
7c2d18e6f7d03a7a94251043ac6f5a46e61586a34d1176e6192e2be2967c3a8b.exe:     file format pei-i386


Disassembly of section .text:

00401000 <.text>:
  401000:	add    BYTE PTR [eax],al
  401002:	add    BYTE PTR [eax],al
  401004:	push   eax
  401005:	sbb    al,0x40
	...
  40100f:	add    BYTE PTR [eax+0x5000401b],al
  401015:	pop    ds
  401016:	inc    eax
  401017:	add    BYTE PTR [eax],al
  401019:	add    BYTE PTR [eax],al
  40101b:	add    BYTE PTR [eax-0x7fffffe7],al
  401021:	sbb    eax,DWORD PTR [eax]
  401023:	add    BYTE PTR [eax+0x1c],dl
  401026:	add    BYTE PTR [eax],al
  401028:	rcr    BYTE PTR [esi],1
  40102a:	add    BYTE PTR [eax],al
  40102c:	loopne 0x40104c
  40102e:	add    BYTE PTR [eax],al
  401030:	add    BYTE PTR [edi],bl
  401032:	add    BYTE PTR [eax],al
  401034:	push   eax
  401035:	pop    ds
  401036:	add    BYTE PTR [eax],al
  401038:	xor    BYTE PTR [edx],ah
  40103a:	add    BYTE PTR [eax],al
  40103c:	shl    BYTE PTR [edx],0x0
  40103f:	add    al,dh
  401041:	and    al,BYTE PTR [eax]
	...
  40104f:	add    BYTE PTR [eax+0x30],al
  401052:	inc    eax
  401053:	add    BYTE PTR [eax+0x52004030],dl
  401059:	add    BYTE PTR [ebp+0x0],dh
  40105c:	outs   dx,BYTE PTR ds:[esi]
  40105d:	add    BYTE PTR [eax+eax*1+0x65],cl
  401061:	add    BYTE PTR [edi+0x0],ah
  401064:	popa   
  401065:	add    BYTE PTR [ebx+0x0],ah
  401068:	jns    0x40106a
  40106a:	inc    ebx
  40106b:	add    BYTE PTR [eax+0x0],dl
  40106e:	dec    esp
	...
  401077:	add    BYTE PTR [ebx+0x0],dh
  40107a:	je     0x40107c
  40107c:	popa   
  40107d:	add    BYTE PTR [eax],al
  40107f:	add    BYTE PTR [eax+eax*1+0x6f],ch
  401083:	add    BYTE PTR [ebx+0x0],ah
  401086:	popa   
  401087:	add    BYTE PTR [eax+eax*1+0x73],ch
  40108b:	add    BYTE PTR [ebp+0x0],ah
  40108e:	jb     0x401090
  401090:	jbe    0x401092
  401092:	add    BYTE PTR gs:[edx+0x0],dh
	...
  40109e:	add    BYTE PTR [eax],al
  4010a0:	add    BYTE PTR cs:[ebp+0x0],ch
  4010a4:	popa   
  4010a5:	add    BYTE PTR [esi+0x0],ch
  4010a8:	imul   eax,DWORD PTR [eax],0x650066
  4010ae:	jae    0x4010b0
  4010b0:	je     0x4010b2
  4010b2:	add    BYTE PTR [eax],al
  4010b4:	dec    ecx
  4010b5:	add    BYTE PTR [ebp+0x0],cl
  4010b8:	inc    ebp
	...
  4010c1:	add    BYTE PTR [eax],al
  4010c3:	add    BYTE PTR [eax+0x3c],cl
  4010c6:	lahf   
  4010c7:	push   ebp
  4010c8:	add    BYTE PTR [eax],al
  4010ca:	add    BYTE PTR [eax],al
  4010cc:	add    al,BYTE PTR [eax]
  4010ce:	add    BYTE PTR [eax],al
  4010d0:	xor    DWORD PTR [eax],eax
  4010d2:	add    BYTE PTR [eax],al
  4010d4:	test   BYTE PTR [ecx],dl
  4010d6:	add    BYTE PTR [eax],al
  4010d8:	test   BYTE PTR ds:0x0,al
  4010de:	add    BYTE PTR [eax],al
  4010e0:	dec    eax
  4010e1:	cmp    al,0x9f
  4010e3:	push   ebp
  4010e4:	add    BYTE PTR [eax],al
  4010e6:	add    BYTE PTR [eax],al
  4010e8:	or     eax,0xc8000000
  4010ed:	add    DWORD PTR [eax],eax
  4010ef:	add    ah,cl
  4010f1:	adc    DWORD PTR [eax],eax
  4010f3:	add    ah,cl
  4010f5:	add    eax,0x0
	...
  401116:	add    BYTE PTR [eax],al
  401118:	push   0x0
	...
  401151:	add    BYTE PTR [eax],al
  401153:	add    BYTE PTR [eax+esi*1],al
  401156:	inc    eax
  401157:	add    BYTE PTR [eax+0x1004011],al
  40115d:	add    BYTE PTR [eax],al
  40115f:	add    BYTE PTR [eax],ah
  401161:	inc    ecx
  401162:	inc    eax
  401163:	add    BYTE PTR [eax],al
  401165:	add    BYTE PTR [eax],al
  401167:	add    BYTE PTR [eax+edx*1],bl
  40116a:	inc    eax
  40116b:	add    BYTE PTR [edx],cl
  40116d:	add    BYTE PTR [eax],al
  40116f:	add    BYTE PTR [eax],al
  401171:	xor    eax,0x0
	...
  40117e:	add    BYTE PTR [eax],al
  401180:	shl    BYTE PTR [edx],0x0
  401183:	add    BYTE PTR [edx+0x53],dl
  401186:	inc    esp
  401187:	push   ebx
  401188:	pop    ebp
  401189:	std    
  40118a:	int3   
  40118b:	popa   
  40118c:	call   0xa3882c76
  401191:	out    0x16,al
  401193:	cmp    bl,ah
  401195:	fidiv  DWORD PTR [ebp-0x71]
  401198:	add    DWORD PTR [eax],eax
  40119a:	add    BYTE PTR [eax],al
  40119c:	push   edx
  40119d:	jne    0x40120d
  40119f:	dec    esp
  4011a0:	gs addr16 popa 
  4011a3:	arpl   WORD PTR [ecx+0x43],di
  4011a6:	push   eax
  4011a7:	dec    esp
  4011a8:	inc    ebp
  4011a9:	ins    BYTE PTR es:[edi],dx
  4011aa:	gs jbe 0x40120e
  4011ad:	je     0x401214
  4011af:	fs cs jo 0x401217
  4011b3:	bound  eax,QWORD PTR [eax]
	...
  4011c9:	add    BYTE PTR [eax],al
  4011cb:	add    BYTE PTR [edi+0x43],al
  4011ce:	push   esp
  4011cf:	dec    esp
  4011d0:	add    BYTE PTR [eax],dl
  4011d2:	add    BYTE PTR [eax],al
  4011d4:	add    al,0x0
  4011d6:	add    BYTE PTR [eax],al
  4011d8:	cs inc ebx
  4011da:	push   edx
  4011db:	push   esp
  4011dc:	and    al,0x58
  4011de:	inc    ebx
  4011df:	inc    ecx
  4011e0:	add    BYTE PTR [eax],al
  4011e2:	add    BYTE PTR [eax],al
  4011e4:	add    al,0x10
  4011e6:	add    BYTE PTR [eax],al
  4011e8:	add    al,0x0
  4011ea:	add    BYTE PTR [eax],al
  4011ec:	cs inc ebx
  4011ee:	push   edx
  4011ef:	push   esp
  4011f0:	and    al,0x58
  4011f2:	inc    ebx
  4011f3:	inc    ecx
  4011f4:	inc    ecx
  4011f5:	add    BYTE PTR [eax],al
  4011f7:	add    BYTE PTR [eax],cl
  4011f9:	adc    BYTE PTR [eax],al
  4011fb:	add    BYTE PTR [eax+eax*1],al
  4011fe:	add    BYTE PTR [eax],al
  401200:	cs inc ebx
  401202:	push   edx
  401203:	push   esp
  401204:	and    al,0x58
  401206:	inc    ebx
  401207:	pop    edx
  401208:	add    BYTE PTR [eax],al
  40120a:	add    BYTE PTR [eax],al
  40120c:	or     al,0x10
  40120e:	add    BYTE PTR [eax],al
  401210:	add    al,0x0
  401212:	add    BYTE PTR [eax],al
  401214:	cs inc ebx
  401216:	push   edx
  401217:	push   esp
  401218:	and    al,0x58
  40121a:	dec    ecx
  40121b:	inc    ecx
  40121c:	add    BYTE PTR [eax],al
  40121e:	add    BYTE PTR [eax],al
  401220:	adc    BYTE PTR [eax],dl
  401222:	add    BYTE PTR [eax],al
  401224:	add    al,0x0
  401226:	add    BYTE PTR [eax],al
  401228:	cs inc ebx
  40122a:	push   edx
  40122b:	push   esp
  40122c:	and    al,0x58
  40122e:	dec    ecx
  40122f:	inc    ecx
  401230:	inc    ecx
  401231:	add    BYTE PTR [eax],al
  401233:	add    BYTE PTR [eax+edx*1],dl
  401236:	add    BYTE PTR [eax],al
  401238:	add    al,0x0
  40123a:	add    BYTE PTR [eax],al
  40123c:	cs inc ebx
  40123e:	push   edx
  40123f:	push   esp
  401240:	and    al,0x58
  401242:	dec    ecx
  401243:	pop    ecx
  401244:	add    BYTE PTR [eax],al
  401246:	add    BYTE PTR [eax],al
  401248:	sbb    BYTE PTR [eax],dl
  40124a:	add    BYTE PTR [eax],al
  40124c:	add    al,0x0
  40124e:	add    BYTE PTR [eax],al
  401250:	cs inc ebx
  401252:	push   edx
  401253:	push   esp
  401254:	and    al,0x58
  401256:	dec    ecx
  401257:	pop    edx
  401258:	add    BYTE PTR [eax],al
  40125a:	add    BYTE PTR [eax],al
  40125c:	sbb    al,0x10
  40125e:	add    BYTE PTR [eax],al
  401260:	sub    BYTE PTR [eax],al
  401262:	add    BYTE PTR [eax],al
  401264:	imul   sp,WORD PTR cs:[si+0x73],0x7824
  40126c:	add    BYTE PTR [eax],al
  40126e:	add    BYTE PTR [eax],al
  401270:	push   eax
  401271:	adc    BYTE PTR [eax],al
  401273:	add    BYTE PTR [eax],dh
  401275:	add    DWORD PTR [eax],eax
  401277:	add    BYTE PTR [esi],ch
  401279:	jb     0x4012df
  40127b:	popa   
  40127c:	je     0x4012df
  40127e:	add    BYTE PTR [eax],al
  401280:	adc    BYTE PTR [ecx],0x0
  401283:	add    BYTE PTR [eax+eax*1],al
  401286:	add    BYTE PTR [eax],al
  401288:	cs jb  0x4012ef
  40128b:	popa   
  40128c:	je     0x4012ef
  40128e:	and    al,0x73
  401290:	js     0x4012f6
  401292:	popa   
  401293:	je     0x4012f6
  401295:	add    BYTE PTR [eax],al
  401297:	add    BYTE PTR [ecx+edx*1+0x2100000],al
  40129e:	add    BYTE PTR [eax],al
  4012a0:	cs jb  0x401307
  4012a3:	popa   
  4012a4:	je     0x401307
  4012a6:	and    al,0x7a
  4012a8:	jp     0x401324
  4012aa:	bound  esp,QWORD PTR fs:[edi+0x0]
  4012ae:	add    BYTE PTR [eax],al
  4012b0:	mov    al,ds:0xcc000013
  4012b5:	adc    DWORD PTR [eax],eax
  4012b7:	add    BYTE PTR [esi],ch
  4012b9:	je     0x401320
  4012bb:	js     0x401331
  4012bd:	and    al,0x6d
  4012bf:	outs   dx,BYTE PTR ds:[esi]
  4012c0:	add    BYTE PTR [eax],al
  4012c2:	add    BYTE PTR [eax],al
  4012c4:	jo     0x4012eb
  4012c6:	add    BYTE PTR [eax],al
  4012c8:	add    BYTE PTR fs:[eax],al
  4012cb:	add    BYTE PTR [esi],ch
  4012cd:	js     0x401333
  4012cf:	popa   
  4012d0:	je     0x401333
  4012d2:	and    al,0x78
  4012d4:	add    BYTE PTR [eax],al
  4012d6:	add    BYTE PTR [eax],al
  4012d8:	add    BYTE PTR [eax],dh
  4012da:	add    BYTE PTR [eax],al
  4012dc:	or     al,0x0
  4012de:	add    BYTE PTR [eax],al
  4012e0:	cs fs popa 
  4012e3:	je     0x401346
  4012e5:	add    BYTE PTR [eax],al
  4012e7:	add    BYTE PTR [eax],dl
  4012e9:	xor    BYTE PTR [eax],al
  4012eb:	add    BYTE PTR [ebx+eax*1+0x0],ah
  4012ef:	add    BYTE PTR [esi],ch
  4012f1:	bound  esi,QWORD PTR [ebx+0x73]
  4012f4:	add    BYTE PTR [eax],al
  4012f6:	add    BYTE PTR [eax],al
  4012f8:	add    BYTE PTR [eax+0x0],al
  4012fb:	add    BYTE PTR [eax],ah
  4012fd:	add    DWORD PTR [eax],eax
  4012ff:	add    BYTE PTR [esi],ch
  401301:	imul   esp,DWORD PTR [ecx+eiz*2+0x74],0x352461
  401309:	add    BYTE PTR [eax],al
  40130b:	add    BYTE PTR [eax],ah
  40130d:	inc    ecx
  40130e:	add    BYTE PTR [eax],al
  401310:	add    al,0x0
  401312:	add    BYTE PTR [eax],al
  401314:	xor    BYTE PTR cs:[eax],dh
  401317:	arpl   WORD PTR [esi+0x67],sp
  40131a:	add    BYTE PTR [eax],al
  40131c:	and    al,0x41
  40131e:	add    BYTE PTR [eax],al
  401320:	inc    eax
  401321:	add    DWORD PTR [eax],eax
  401323:	add    BYTE PTR [esi],ch
  401325:	imul   esp,DWORD PTR [ecx+eiz*2+0x74],0x322461
  40132d:	add    BYTE PTR [eax],al
  40132f:	add    BYTE PTR [edx+eax*2+0x0],ah
  401333:	add    BYTE PTR [eax+eax*1],dl
  401336:	add    BYTE PTR [eax],al
  401338:	imul   esp,DWORD PTR cs:[ecx+eiz*2+0x74],0x332461
  401341:	add    BYTE PTR [eax],al
  401343:	add    BYTE PTR [eax+0x42],bh
  401346:	add    BYTE PTR [eax],al
  401348:	and    BYTE PTR [ecx],al
  40134a:	add    BYTE PTR [eax],al
  40134c:	imul   esp,DWORD PTR cs:[ecx+eiz*2+0x74],0x342461
  401355:	add    BYTE PTR [eax],al
  401357:	add    BYTE PTR [eax+0x7a000043],bl
  40135d:	add    eax,0x692e0000
  401362:	fs popa 
  401364:	je     0x4013c7
  401366:	and    al,0x36
  401368:	add    BYTE PTR [eax],al
  40136a:	add    BYTE PTR [eax],al
  40136c:	add    BYTE PTR [eax+0x0],dl
  40136f:	add    al,al
  401371:	add    eax,DWORD PTR [eax]
  401373:	add    BYTE PTR [esi],ch
  401375:	jb     0x4013ea
  401377:	jb     0x4013dc
  401379:	and    al,0x30
  40137b:	xor    DWORD PTR [eax],eax
  40137d:	add    BYTE PTR [eax],al
  40137f:	add    al,al
  401381:	push   ebx
  401382:	add    BYTE PTR [eax],al
  401384:	xor    BYTE PTR [eax+eax*1+0x73722e00],bh
  40138b:	jb     0x4013f0
  40138d:	and    al,0x30
  40138f:	xor    al,BYTE PTR [eax]
	...
  4013a5:	mov    edi,edi
  4013a7:	push   ebp
  4013a8:	mov    ebp,esp
  4013aa:	push   esi
  4013ab:	xor    esi,esi
  4013ad:	test   edx,edx
  4013af:	je     0x4013b9
  4013b1:	cmp    edx,0x7fffffff
  4013b7:	jbe    0x4013be
  4013b9:	mov    esi,0x80070057
  4013be:	test   esi,esi
  4013c0:	js     0x401401
  4013c2:	xor    esi,esi
  4013c4:	test   edx,edx
  4013c6:	je     0x4013f7
  4013c8:	push   ebx
  4013c9:	mov    ebx,DWORD PTR [ebp+0x8]
  4013cc:	push   edi
  4013cd:	mov    edi,0x7ffffffe
  4013d2:	sub    edi,edx
  4013d4:	sub    ebx,ecx
  4013d6:	lea    eax,[edi+edx*1]
  4013d9:	test   eax,eax
  4013db:	je     0x4013f1
  4013dd:	movzx  eax,WORD PTR [ebx+ecx*1]
  4013e1:	test   ax,ax
  4013e4:	je     0x4013f1
  4013e6:	mov    WORD PTR [ecx],ax
  4013e9:	add    ecx,0x2
  4013ec:	sub    edx,0x1
  4013ef:	jne    0x4013d6
  4013f1:	pop    edi
  4013f2:	pop    ebx
  4013f3:	test   edx,edx
  4013f5:	jne    0x401405
  4013f7:	sub    ecx,0x2
  4013fa:	mov    esi,0x8007007a
  4013ff:	jmp    0x401405
  401401:	test   edx,edx
  401403:	je     0x40140a
  401405:	xor    eax,eax
  401407:	mov    WORD PTR [ecx],ax
  40140a:	mov    eax,esi
  40140c:	pop    esi
  40140d:	pop    ebp
  40140e:	ret    0x4
  401411:	int3   
  401412:	int3   
  401413:	int3   
  401414:	int3   
  401415:	int3   
  401416:	mov    edi,edi
  401418:	push   ebp
  401419:	mov    ebp,esp
  40141b:	and    esp,0xfffffff8
  40141e:	sub    esp,0x14
  401421:	push   ebx
  401422:	push   esi
  401423:	push   edi
  401424:	xor    ebx,ebx
  401426:	push   ebx
  401427:	push   ebx
  401428:	push   0x1
  40142a:	push   ebx
  40142b:	call   DWORD PTR ds:0x40400c
  401431:	push   DWORD PTR [ebp+0x10]
  401434:	call   DWORD PTR ds:0x404004
  40143a:	lea    edi,[eax+0x1]
  40143d:	mov    eax,DWORD PTR [ebp+0x8]
  401440:	mov    ds:0x40335c,eax
  401445:	lea    eax,[edi+edi*1]
  401448:	push   eax
  401449:	push   0x40
  40144b:	call   DWORD PTR ds:0x404008
  401451:	mov    esi,eax
  401453:	test   esi,esi
  401455:	je     0x4014f8
  40145b:	push   DWORD PTR [ebp+0x10]
  40145e:	mov    edx,edi
  401460:	mov    ecx,esi
  401462:	call   0x4013a5
  401467:	test   eax,eax
  401469:	js     0x4014f1
  40146f:	lea    eax,[esp+0x18]
  401473:	mov    ecx,esi
  401475:	push   eax
  401476:	lea    eax,[esp+0x14]
  40147a:	push   eax
  40147b:	lea    eax,[esp+0x1c]
  40147f:	push   eax
  401480:	lea    edx,[esp+0x28]
  401484:	call   0x4015c3
  401489:	test   eax,eax
  40148b:	je     0x4014f1
  40148d:	push   0x8001
  401492:	call   DWORD PTR ds:0x404000
  401498:	push   ecx
  401499:	mov    ecx,DWORD PTR [esp+0x18]
  40149d:	lea    edx,[esp+0x14]
  4014a1:	mov    DWORD PTR [esp+0x14],ebx
  4014a5:	call   0x4017bc
  4014aa:	mov    edi,eax
  4014ac:	call   0x401aeb
  4014b1:	push   DWORD PTR [ebp+0x14]
  4014b4:	mov    ebx,eax
  4014b6:	push   DWORD PTR [esp+0x1c]
  4014ba:	push   DWORD PTR ds:0x40335c
  4014c0:	push   ebx
  4014c1:	call   DWORD PTR ds:0x404028
  4014c7:	test   ebx,ebx
  4014c9:	je     0x4014d2
  4014cb:	push   ebx
  4014cc:	call   DWORD PTR ds:0x404054
  4014d2:	cmp    edi,0xffffffff
  4014d5:	je     0x4014f1
  4014d7:	cmp    DWORD PTR [esp+0x10],0x0
  4014dc:	je     0x4014ea
  4014de:	push   DWORD PTR [esp+0x10]
  4014e2:	push   0x0
  4014e4:	call   DWORD PTR ds:0x40401c
  4014ea:	push   edi
  4014eb:	call   DWORD PTR ds:0x404020
  4014f1:	push   esi
  4014f2:	call   DWORD PTR ds:0x404010
  4014f8:	pop    edi
  4014f9:	pop    esi
  4014fa:	xor    eax,eax
  4014fc:	pop    ebx
  4014fd:	mov    esp,ebp
  4014ff:	pop    ebp
  401500:	ret    0x10
  401503:	int3   
  401504:	int3   
  401505:	int3   
  401506:	int3   
  401507:	int3   
  401508:	mov    edi,edi
  40150a:	push   edi
  40150b:	xor    edi,edi
  40150d:	test   edx,edx
  40150f:	je     0x40153e
  401511:	push   ebx
  401512:	mov    eax,0x4010a0
  401517:	push   esi
  401518:	mov    esi,0x7ffffffe
  40151d:	sub    eax,ecx
  40151f:	test   esi,esi
  401521:	je     0x401538
  401523:	movzx  ebx,WORD PTR [eax+ecx*1]
  401527:	test   bx,bx
  40152a:	je     0x401538
  40152c:	mov    WORD PTR [ecx],bx
  40152f:	add    ecx,0x2
  401532:	dec    esi
  401533:	sub    edx,0x1
  401536:	jne    0x40151f
  401538:	pop    esi
  401539:	pop    ebx
  40153a:	test   edx,edx
  40153c:	jne    0x401546
  40153e:	sub    ecx,0x2
  401541:	mov    edi,0x8007007a
  401546:	xor    eax,eax
  401548:	mov    WORD PTR [ecx],ax
  40154b:	mov    eax,edi
  40154d:	pop    edi
  40154e:	ret    0xc
  401551:	int3   
  401552:	int3   
  401553:	int3   
  401554:	int3   
  401555:	int3   
  401556:	mov    edi,edi
  401558:	push   ebp
  401559:	mov    ebp,esp
  40155b:	push   ecx
  40155c:	push   ebx
  40155d:	mov    ebx,edx
  40155f:	mov    edx,ecx
  401561:	push   esi
  401562:	mov    esi,edx
  401564:	push   edi
  401565:	xor    edi,edi
  401567:	lea    ecx,[esi+0x2]
  40156a:	mov    ax,WORD PTR [esi]
  40156d:	add    esi,0x2
  401570:	cmp    ax,di
  401573:	jne    0x40156a
  401575:	sub    esi,ecx
  401577:	mov    ecx,DWORD PTR [ebx]
  401579:	sar    esi,1
  40157b:	lea    eax,[ecx+0x2]
  40157e:	mov    DWORD PTR [ebp-0x4],eax
  401581:	mov    ax,WORD PTR [ecx]
  401584:	add    ecx,0x2
  401587:	cmp    ax,di
  40158a:	jne    0x401581
  40158c:	sub    ecx,DWORD PTR [ebp-0x4]
  40158f:	sar    ecx,1
  401591:	cmp    esi,ecx
  401593:	jg     0x4015b5
  401595:	push   esi
  401596:	push   DWORD PTR [ebx]
  401598:	push   esi
  401599:	push   edx
  40159a:	push   0x1
  40159c:	push   0x7f
  40159e:	call   DWORD PTR ds:0x4040b0
  4015a4:	cmp    eax,0x2
  4015a7:	jne    0x4015b5
  4015a9:	lea    eax,[esi*2-0x2]
  4015b0:	xor    edi,edi
  4015b2:	add    DWORD PTR [ebx],eax
  4015b4:	inc    edi
  4015b5:	mov    eax,edi
  4015b7:	pop    edi
  4015b8:	pop    esi
  4015b9:	pop    ebx
  4015ba:	mov    esp,ebp
  4015bc:	pop    ebp
  4015bd:	ret    
  4015be:	int3   
  4015bf:	int3   
  4015c0:	int3   
  4015c1:	int3   
  4015c2:	int3   
  4015c3:	mov    edi,edi
  4015c5:	push   ebp
  4015c6:	mov    ebp,esp
  4015c8:	sub    esp,0x10
  4015cb:	mov    eax,DWORD PTR [ebp+0x8]
  4015ce:	push   ebx
  4015cf:	push   esi
  4015d0:	push   edi
  4015d1:	mov    edi,ecx
  4015d3:	mov    DWORD PTR [ebp-0x8],edx
  4015d6:	xor    ecx,ecx
  4015d8:	mov    DWORD PTR [ebp-0x10],0x2f
  4015df:	mov    DWORD PTR [eax],ecx
  4015e1:	mov    eax,DWORD PTR [ebp+0xc]
  4015e4:	push   0x20
  4015e6:	pop    esi
  4015e7:	push   0x2
  4015e9:	mov    DWORD PTR [eax],ecx
  4015eb:	mov    eax,DWORD PTR [ebp+0x10]
  4015ee:	mov    DWORD PTR [edx],ecx
  4015f0:	mov    DWORD PTR [ebp-0xc],esi
  4015f3:	pop    ebx
  4015f4:	mov    DWORD PTR [eax],ecx
  4015f6:	jmp    0x40167f
  4015fb:	add    edi,ebx
  4015fd:	cmp    WORD PTR [edi],si
  401600:	je     0x4015fb
  401602:	movzx  eax,WORD PTR [edi]
  401605:	cmp    ax,WORD PTR [ebp-0x10]
  401609:	je     0x401610
  40160b:	cmp    eax,0x2d
  40160e:	jne    0x401688
  401610:	add    edi,ebx
  401612:	mov    DWORD PTR [ebp-0x4],edi
  401615:	movzx  eax,WORD PTR [edi]
  401618:	test   ax,ax
  40161b:	je     0x401690
  40161d:	cmp    ax,si
  401620:	je     0x40167d
  401622:	movzx  eax,ax
  401625:	cmp    eax,0x4c
  401628:	je     0x401652
  40162a:	cmp    eax,0x53
  40162d:	je     0x401639
  40162f:	cmp    eax,0x6c
  401632:	je     0x401652
  401634:	cmp    eax,0x73
  401637:	jne    0x401670
  401639:	lea    edx,[ebp-0x4]
  40163c:	mov    ecx,0x401078
  401641:	call   0x401556
  401646:	test   eax,eax
  401648:	je     0x40166a
  40164a:	mov    edx,DWORD PTR [ebp-0x8]
  40164d:	or     DWORD PTR [edx],0x1
  401650:	jmp    0x40166d
  401652:	lea    edx,[ebp-0x4]
  401655:	mov    ecx,0x401080
  40165a:	call   0x401556
  40165f:	test   eax,eax
  401661:	je     0x40166a
  401663:	mov    edx,DWORD PTR [ebp-0x8]
  401666:	or     DWORD PTR [edx],ebx
  401668:	jmp    0x40166d
  40166a:	mov    edx,DWORD PTR [ebp-0x8]
  40166d:	mov    edi,DWORD PTR [ebp-0x4]
  401670:	add    edi,ebx
  401672:	mov    DWORD PTR [ebp-0x4],edi
  401675:	movzx  eax,WORD PTR [edi]
  401678:	test   ax,ax
  40167b:	jne    0x40161d
  40167d:	xor    ecx,ecx
  40167f:	cmp    WORD PTR [edi],cx
  401682:	jne    0x4015fd
  401688:	movzx  eax,WORD PTR [edi]
  40168b:	test   ax,ax
  40168e:	jne    0x401697
  401690:	xor    eax,eax
  401692:	jmp    0x4017ae
  401697:	mov    DWORD PTR [ebp-0x4],0x22
  40169e:	mov    esi,edi
  4016a0:	mov    DWORD PTR [ebp-0x10],0x2c
  4016a7:	cmp    ax,WORD PTR [ebp-0x4]
  4016ab:	jne    0x4016d1
  4016ad:	add    edi,ebx
  4016af:	mov    esi,edi
  4016b1:	cmp    WORD PTR [esi],cx
  4016b4:	je     0x401690
  4016b6:	mov    eax,DWORD PTR [ebp-0x4]
  4016b9:	cmp    WORD PTR [esi],ax
  4016bc:	je     0x4016c5
  4016be:	add    esi,ebx
  4016c0:	cmp    WORD PTR [esi],cx
  4016c3:	jne    0x4016b9
  4016c5:	cmp    WORD PTR [esi],cx
  4016c8:	je     0x401690
  4016ca:	xor    eax,eax
  4016cc:	mov    WORD PTR [esi],ax
  4016cf:	jmp    0x4016ff
  4016d1:	movzx  eax,WORD PTR [esi]
  4016d4:	cmp    ax,WORD PTR [ebp-0xc]
  4016d8:	je     0x4016e7
  4016da:	cmp    ax,WORD PTR [ebp-0x10]
  4016de:	je     0x4016e7
  4016e0:	add    esi,ebx
  4016e2:	cmp    WORD PTR [esi],cx
  4016e5:	jne    0x4016d1
  4016e7:	cmp    WORD PTR [esi],cx
  4016ea:	jne    0x4016ca
  4016ec:	test   BYTE PTR [edx],0x3
  4016ef:	jne    0x401701
  4016f1:	jmp    0x401690
  4016f3:	cmp    ax,WORD PTR [ebp-0xc]
  4016f7:	je     0x4016ff
  4016f9:	cmp    ax,WORD PTR [ebp-0x10]
  4016fd:	jne    0x401709
  4016ff:	add    esi,ebx
  401701:	movzx  eax,WORD PTR [esi]
  401704:	test   ax,ax
  401707:	jne    0x4016f3
  401709:	test   BYTE PTR [edx],0x3
  40170c:	mov    ebx,esi
  40170e:	jne    0x401787
  401710:	cmp    WORD PTR [esi],cx
  401713:	je     0x401690
  401719:	push   0x20
  40171b:	pop    eax
  40171c:	cmp    WORD PTR [esi],ax
  40171f:	je     0x401729
  401721:	add    esi,0x2
  401724:	cmp    WORD PTR [esi],cx
  401727:	jne    0x40171c
  401729:	cmp    WORD PTR [esi],cx
  40172c:	je     0x401751
  40172e:	xor    eax,eax
  401730:	mov    WORD PTR [esi],ax
  401733:	add    esi,0x2
  401736:	movzx  eax,WORD PTR [esi]
  401739:	test   ax,ax
  40173c:	je     0x401751
  40173e:	push   0x20
  401740:	pop    ecx
  401741:	cmp    ax,cx
  401744:	ja     0x401751
  401746:	add    esi,0x2
  401749:	movzx  eax,WORD PTR [esi]
  40174c:	test   ax,ax
  40174f:	jne    0x401741
  401751:	movzx  ecx,WORD PTR [ebx]
  401754:	mov    eax,ebx
  401756:	test   cx,cx
  401759:	je     0x40177b
  40175b:	cmp    cx,0x5c
  40175f:	je     0x40179d
  401761:	push   0x2f
  401763:	pop    edx
  401764:	cmp    cx,dx
  401767:	je     0x40179d
  401769:	push   eax
  40176a:	call   DWORD PTR ds:0x4040b8
  401770:	movzx  ecx,WORD PTR [eax]
  401773:	test   cx,cx
  401776:	jne    0x40175b
  401778:	mov    edx,DWORD PTR [ebp-0x8]
  40177b:	xor    ecx,ecx
  40177d:	mov    eax,ecx
  40177f:	test   eax,eax
  401781:	jne    0x401690
  401787:	test   BYTE PTR [edx],0x3
  40178a:	mov    eax,DWORD PTR [ebp+0x8]
  40178d:	mov    DWORD PTR [eax],edi
  40178f:	mov    eax,DWORD PTR [ebp+0xc]
  401792:	jne    0x4017a4
  401794:	mov    DWORD PTR [eax],ebx
  401796:	mov    eax,DWORD PTR [ebp+0x10]
  401799:	mov    DWORD PTR [eax],esi
  40179b:	jmp    0x4017ab
  40179d:	mov    edx,DWORD PTR [ebp-0x8]
  4017a0:	xor    ecx,ecx
  4017a2:	jmp    0x40177f
  4017a4:	mov    DWORD PTR [eax],ecx
  4017a6:	mov    eax,DWORD PTR [ebp+0x10]
  4017a9:	mov    DWORD PTR [eax],ebx
  4017ab:	xor    eax,eax
  4017ad:	inc    eax
  4017ae:	pop    edi
  4017af:	pop    esi
  4017b0:	pop    ebx
  4017b1:	mov    esp,ebp
  4017b3:	pop    ebp
  4017b4:	ret    0xc
  4017b7:	int3   
  4017b8:	int3   
  4017b9:	int3   
  4017ba:	int3   
  4017bb:	int3   
  4017bc:	mov    edi,edi
  4017be:	push   ebp
  4017bf:	mov    ebp,esp
  4017c1:	sub    esp,0x240
  4017c7:	mov    eax,ds:0x403004
  4017cc:	xor    eax,ebp
  4017ce:	mov    DWORD PTR [ebp-0x8],eax
  4017d1:	push   ebx
  4017d2:	push   esi
  4017d3:	mov    eax,edx
  4017d5:	mov    esi,ecx
  4017d7:	push   edi
  4017d8:	xor    edi,edi
  4017da:	mov    DWORD PTR [ebp-0x218],eax
  4017e0:	push   esi
  4017e1:	mov    DWORD PTR [eax],edi
  4017e3:	call   DWORD PTR ds:0x404030
  4017e9:	test   eax,eax
  4017eb:	je     0x40182e
  4017ed:	push   0x8001
  4017f2:	call   DWORD PTR ds:0x404118
  4017f8:	lea    eax,[ebp-0x23c]
  4017fe:	mov    ebx,0x104
  401803:	push   eax
  401804:	lea    eax,[ebp-0x214]
  40180a:	push   eax
  40180b:	push   ebx
  40180c:	push   edi
  40180d:	push   esi
  40180e:	push   edi
  40180f:	call   DWORD PTR ds:0x404088
  401815:	test   eax,eax
  401817:	jne    0x401845
  401819:	xor    eax,eax
  40181b:	mov    ecx,DWORD PTR [ebp-0x8]
  40181e:	pop    edi
  40181f:	pop    esi
  401820:	xor    ecx,ebp
  401822:	pop    ebx
  401823:	call   0x401ee0
  401828:	mov    esp,ebp
  40182a:	pop    ebp
  40182b:	ret    0x4
  40182e:	mov    ebx,0x104
  401833:	lea    ecx,[ebp-0x214]
  401839:	push   esi
  40183a:	mov    edx,ebx
  40183c:	call   0x4013a5
  401841:	test   eax,eax
  401843:	js     0x401819
  401845:	lea    eax,[ebp-0x214]
  40184b:	mov    DWORD PTR [ebp-0x234],edi
  401851:	mov    edi,eax
  401853:	mov    DWORD PTR [ebp-0x238],0x20
  40185d:	or     esi,0xffffffff
  401860:	mov    DWORD PTR [ebp-0x230],eax
  401866:	xor    edx,edx
  401868:	lea    ecx,[edi+0x2]
  40186b:	mov    ax,WORD PTR [edi]
  40186e:	add    edi,0x2
  401871:	cmp    ax,dx
  401874:	jne    0x40186b
  401876:	sub    edi,ecx
  401878:	lea    eax,[ebp-0x214]
  40187e:	sar    edi,1
  401880:	mov    ecx,ebx
  401882:	cmp    WORD PTR [eax],dx
  401885:	je     0x40188f
  401887:	add    eax,0x2
  40188a:	sub    ecx,0x1
  40188d:	jne    0x401882
  40188f:	test   ecx,ecx
  401891:	je     0x4018d1
  401893:	mov    eax,ebx
  401895:	sub    esp,0xc
  401898:	sub    eax,ecx
  40189a:	lea    ecx,[ebp-0x214]
  4018a0:	sub    ebx,eax
  4018a2:	mov    edx,ebx
  4018a4:	lea    ecx,[ecx+eax*2]
  4018a7:	call   0x401508
  4018ac:	test   eax,eax
  4018ae:	js     0x4018d1
  4018b0:	lea    eax,[ebp-0x214]
  4018b6:	push   eax
  4018b7:	call   DWORD PTR ds:0x404078
  4018bd:	cmp    eax,0xffffffff
  4018c0:	je     0x4018d1
  4018c2:	lea    eax,[ebp-0x238]
  4018c8:	push   eax
  4018c9:	call   DWORD PTR ds:0x404014
  4018cf:	mov    esi,eax
  4018d1:	add    edi,edi
  4018d3:	cmp    edi,0x208
  4018d9:	jae    0x401966
  4018df:	xor    eax,eax
  4018e1:	mov    WORD PTR [ebp+edi*1-0x214],ax
  4018e9:	cmp    esi,0xffffffff
  4018ec:	jne    0x401952
  4018ee:	lea    eax,[ebp-0x238]
  4018f4:	mov    DWORD PTR [ebp-0x234],0x8
  4018fe:	push   eax
  4018ff:	mov    DWORD PTR [ebp-0x224],0x7b
  401909:	call   DWORD PTR ds:0x404014
  40190f:	mov    esi,eax
  401911:	cmp    esi,0xffffffff
  401914:	jne    0x401952
  401916:	lea    eax,[ebp-0x238]
  40191c:	mov    DWORD PTR [ebp-0x224],0x7c
  401926:	push   eax
  401927:	call   DWORD PTR ds:0x404014
  40192d:	mov    esi,eax
  40192f:	cmp    esi,0xffffffff
  401932:	jne    0x40195f
  401934:	lea    eax,[ebp-0x238]
  40193a:	mov    DWORD PTR [ebp-0x224],0x2
  401944:	push   eax
  401945:	call   DWORD PTR ds:0x404014
  40194b:	mov    esi,eax
  40194d:	cmp    esi,0xffffffff
  401950:	je     0x40195f
  401952:	push   DWORD PTR [ebp-0x218]
  401958:	push   esi
  401959:	call   DWORD PTR ds:0x404018
  40195f:	mov    eax,esi
  401961:	jmp    0x40181b
  401966:	call   0x40243a
  40196b:	int3   
  40196c:	int3   
  40196d:	int3   
  40196e:	int3   
  40196f:	int3   
  401970:	int3   
  401971:	int3   
  401972:	int3   
  401973:	int3   
  401974:	int3   
  401975:	int3   
  401976:	int3   
  401977:	int3   
  401978:	int3   
  401979:	int3   
  40197a:	int3   
  40197b:	int3   
  40197c:	int3   
  40197d:	int3   
  40197e:	int3   
  40197f:	int3   
  401980:	mov    edi,edi
  401982:	push   ebp
  401983:	mov    ebp,esp
  401985:	sub    esp,0xac
  40198b:	mov    eax,ds:0x403004
  401990:	xor    eax,ebp
  401992:	mov    DWORD PTR [ebp-0x4],eax
  401995:	cmp    DWORD PTR [ebp+0xc],0x1c
  401999:	push   esi
  40199a:	mov    esi,DWORD PTR [ebp+0x14]
  40199d:	push   edi
  40199e:	mov    edi,DWORD PTR [ebp+0x8]
  4019a1:	mov    DWORD PTR [ebp-0xa8],esi
  4019a7:	je     0x4019e4
  4019a9:	cmp    DWORD PTR [ebp+0xc],0x4e
  4019ad:	jne    0x401ac6
  4019b3:	cmp    DWORD PTR [esi+0x8],0xfffffe0c
  4019ba:	jne    0x401ac6
  4019c0:	cmp    DWORD PTR [esi+0xc],0x0
  4019c4:	je     0x4019d2
  4019c6:	push   DWORD PTR [esi+0xc]
  4019c9:	push   0xfffffff2
  4019cb:	push   edi
  4019cc:	call   DWORD PTR ds:0x404058
  4019d2:	push   0x1
  4019d4:	push   0x0
  4019d6:	push   edi
  4019d7:	call   DWORD PTR ds:0x404038
  4019dd:	xor    eax,eax
  4019df:	jmp    0x401ad4
  4019e4:	push   0x0
  4019e6:	push   edi
  4019e7:	call   DWORD PTR ds:0x40405c
  4019ed:	test   eax,eax
  4019ef:	je     0x401ac6
  4019f5:	push   ebx
  4019f6:	push   0x3
  4019f8:	push   edi
  4019f9:	call   DWORD PTR ds:0x404060
  4019ff:	mov    ebx,eax
  401a01:	test   ebx,ebx
  401a03:	je     0x401ac5
  401a09:	xor    eax,eax
  401a0b:	push   0x9e
  401a10:	push   eax
  401a11:	mov    WORD PTR [ebp-0xa4],ax
  401a18:	lea    eax,[ebp-0xa2]
  401a1e:	push   eax
  401a1f:	call   0x402566
  401a24:	add    esp,0xc
  401a27:	lea    eax,[ebp-0xa4]
  401a2d:	push   0x50
  401a2f:	push   eax
  401a30:	push   ebx
  401a31:	call   DWORD PTR ds:0x404048
  401a37:	test   eax,eax
  401a39:	je     0x401a65
  401a3b:	push   0xffffffff
  401a3d:	push   0x4010b4
  401a42:	push   0xffffffff
  401a44:	lea    eax,[ebp-0xa4]
  401a4a:	push   eax
  401a4b:	push   0x1
  401a4d:	push   0x7f
  401a4f:	call   DWORD PTR ds:0x4040b0
  401a55:	cmp    eax,0x2
  401a58:	jne    0x401a65
  401a5a:	push   0x3
  401a5c:	push   ebx
  401a5d:	call   DWORD PTR ds:0x404060
  401a63:	mov    ebx,eax
  401a65:	push   0x4
  401a67:	push   ebx
  401a68:	call   DWORD PTR ds:0x404060
  401a6e:	cmp    eax,edi
  401a70:	jne    0x401ac5
  401a72:	push   0xffffffec
  401a74:	push   ebx
  401a75:	call   DWORD PTR ds:0x40405c
  401a7b:	mov    DWORD PTR [ebp-0xac],eax
  401a81:	test   eax,0x40080
  401a86:	jne    0x401ac5
  401a88:	push   0xffffffde
  401a8a:	push   ebx
  401a8b:	call   DWORD PTR ds:0x40404c
  401a91:	test   eax,eax
  401a93:	jne    0x401ac5
  401a95:	push   0xfffffff2
  401a97:	push   edi
  401a98:	call   DWORD PTR ds:0x40404c
  401a9e:	mov    esi,eax
  401aa0:	mov    eax,DWORD PTR [ebp-0xac]
  401aa6:	or     eax,0x40000
  401aab:	push   eax
  401aac:	push   0xffffffec
  401aae:	push   ebx
  401aaf:	call   DWORD PTR ds:0x404038
  401ab5:	push   esi
  401ab6:	push   0xffffffde
  401ab8:	push   ebx
  401ab9:	call   DWORD PTR ds:0x404058
  401abf:	mov    esi,DWORD PTR [ebp-0xa8]
  401ac5:	pop    ebx
  401ac6:	push   esi
  401ac7:	push   DWORD PTR [ebp+0x10]
  401aca:	push   DWORD PTR [ebp+0xc]
  401acd:	push   edi
  401ace:	call   DWORD PTR ds:0x404044
  401ad4:	mov    ecx,DWORD PTR [ebp-0x4]
  401ad7:	pop    edi
  401ad8:	xor    ecx,ebp
  401ada:	pop    esi
  401adb:	call   0x401ee0
  401ae0:	mov    esp,ebp
  401ae2:	pop    ebp
  401ae3:	ret    0x10
  401ae6:	int3   
  401ae7:	int3   
  401ae8:	int3   
  401ae9:	int3   
  401aea:	int3   
  401aeb:	mov    edi,edi
  401aed:	push   ebp
  401aee:	mov    ebp,esp
  401af0:	sub    esp,0x2c
  401af3:	push   ebx
  401af4:	push   esi
  401af5:	mov    esi,DWORD PTR ds:0x40335c
  401afb:	xor    ebx,ebx
  401afd:	push   edi
  401afe:	push   0x9
  401b00:	pop    ecx
  401b01:	xor    eax,eax
  401b03:	mov    DWORD PTR [ebp-0x2c],ebx
  401b06:	push   0x64
  401b08:	lea    edi,[ebp-0x28]
  401b0b:	rep stos DWORD PTR es:[edi],eax
  401b0d:	push   esi
  401b0e:	mov    DWORD PTR [ebp-0x28],0x401980
  401b15:	mov    DWORD PTR [ebp-0x1c],esi
  401b18:	call   DWORD PTR ds:0x404064
  401b1e:	push   0x7f00
  401b23:	push   ebx
  401b24:	mov    DWORD PTR [ebp-0x18],eax
  401b27:	call   DWORD PTR ds:0x404050
  401b2d:	mov    DWORD PTR [ebp-0x14],eax
  401b30:	mov    edi,0x401058
  401b35:	lea    eax,[ebp-0x2c]
  401b38:	mov    DWORD PTR [ebp-0x10],0x6
  401b3f:	push   eax
  401b40:	mov    DWORD PTR [ebp-0x20],0x4
  401b47:	mov    DWORD PTR [ebp-0x8],edi
  401b4a:	call   DWORD PTR ds:0x404040
  401b50:	push   ebx
  401b51:	push   esi
  401b52:	push   ebx
  401b53:	push   ebx
  401b54:	push   ebx
  401b55:	push   ebx
  401b56:	mov    eax,0x80000000
  401b5b:	push   eax
  401b5c:	push   eax
  401b5d:	push   ebx
  401b5e:	push   0x401074
  401b63:	push   edi
  401b64:	push   0x80
  401b69:	call   DWORD PTR ds:0x40403c
  401b6f:	pop    edi
  401b70:	pop    esi
  401b71:	pop    ebx
  401b72:	mov    esp,ebp
  401b74:	pop    ebp
  401b75:	ret    
  401b76:	int3   
  401b77:	int3   
  401b78:	int3   
  401b79:	int3   
  401b7a:	int3   
  401b7b:	int3   
  401b7c:	int3   
  401b7d:	int3   
  401b7e:	int3   
  401b7f:	int3   
  401b80:	mov    eax,0x5a4d
  401b85:	cmp    WORD PTR ds:0x400000,ax
  401b8c:	je     0x401b92
  401b8e:	xor    eax,eax
  401b90:	jmp    0x401be0
  401b92:	mov    ecx,DWORD PTR ds:0x40003c
  401b98:	cmp    DWORD PTR [ecx+0x400000],0x4550
  401ba2:	jne    0x401b8e
  401ba4:	movzx  eax,WORD PTR [ecx+0x400018]
  401bab:	cmp    eax,0x10b
  401bb0:	je     0x401bcc
  401bb2:	cmp    eax,0x20b
  401bb7:	jne    0x401b8e
  401bb9:	xor    eax,eax
  401bbb:	cmp    DWORD PTR [ecx+0x400084],0xe
  401bc2:	jbe    0x401be0
  401bc4:	cmp    DWORD PTR [ecx+0x4000f8],eax
  401bca:	jmp    0x401bdd
  401bcc:	xor    eax,eax
  401bce:	cmp    DWORD PTR [ecx+0x400074],0xe
  401bd5:	jbe    0x401be0
  401bd7:	cmp    DWORD PTR [ecx+0x4000e8],eax
  401bdd:	setne  al
  401be0:	push   0x2
  401be2:	mov    ds:0x403028,eax
  401be7:	call   0x401fde
  401bec:	push   eax
  401bed:	call   DWORD PTR ds:0x404104
  401bf3:	or     DWORD PTR ds:0x403360,0xffffffff
  401bfa:	or     DWORD PTR ds:0x403364,0xffffffff
  401c01:	pop    ecx
  401c02:	pop    ecx
  401c03:	call   DWORD PTR ds:0x4040f4
  401c09:	mov    ecx,DWORD PTR ds:0x40303c
  401c0f:	mov    DWORD PTR [eax],ecx
  401c11:	call   DWORD PTR ds:0x404110
  401c17:	mov    ecx,DWORD PTR ds:0x403030
  401c1d:	mov    DWORD PTR [eax],ecx
  401c1f:	call   0x402230
  401c24:	cmp    DWORD PTR ds:0x403000,0x0
  401c2b:	jne    0x401c39
  401c2d:	push   0x402230
  401c32:	call   DWORD PTR ds:0x4040f0
  401c38:	pop    ecx
  401c39:	call   0x402238
  401c3e:	xor    eax,eax
  401c40:	ret    
  401c41:	int3   
  401c42:	int3   
  401c43:	int3   
  401c44:	int3   
  401c45:	int3   
  401c46:	int3   
  401c47:	int3   
  401c48:	int3   
  401c49:	int3   
  401c4a:	int3   
  401c4b:	int3   
  401c4c:	int3   
  401c4d:	int3   
  401c4e:	int3   
  401c4f:	int3   
  401c50:	mov    eax,ds:0x403038
  401c55:	push   0x40302c
  401c5a:	push   DWORD PTR ds:0x403034
  401c60:	mov    ds:0x40302c,eax
  401c65:	push   0x403020
  401c6a:	push   0x40301c
  401c6f:	push   0x403018
  401c74:	call   DWORD PTR ds:0x404108
  401c7a:	add    esp,0x14
  401c7d:	mov    ds:0x403024,eax
  401c82:	ret    
  401c83:	int3   
  401c84:	int3   
  401c85:	int3   
  401c86:	int3   
  401c87:	int3   
  401c88:	push   0x5c
  401c8a:	push   0x402570
  401c8f:	call   0x40225c
  401c94:	and    DWORD PTR [ebp-0x24],0x0
  401c98:	and    DWORD PTR [ebp-0x4],0x0
  401c9c:	lea    eax,[ebp-0x6c]
  401c9f:	push   eax
  401ca0:	call   DWORD PTR ds:0x40409c
  401ca6:	mov    DWORD PTR [ebp-0x4],0xfffffffe
  401cad:	xor    ebx,ebx
  401caf:	inc    ebx
  401cb0:	mov    DWORD PTR [ebp-0x4],ebx
  401cb3:	mov    eax,fs:0x18
  401cb9:	mov    edi,DWORD PTR [eax+0x4]
  401cbc:	xor    esi,esi
  401cbe:	mov    edx,0x403368
  401cc3:	mov    ecx,edi
  401cc5:	xor    eax,eax
  401cc7:	lock cmpxchg DWORD PTR [edx],ecx
  401ccb:	test   eax,eax
  401ccd:	je     0x401cd5
  401ccf:	cmp    eax,edi
  401cd1:	jne    0x401ce7
  401cd3:	mov    esi,ebx
  401cd5:	cmp    DWORD PTR ds:0x40336c,ebx
  401cdb:	jne    0x401cf4
  401cdd:	push   0x1f
  401cdf:	call   0x40201a
  401ce4:	pop    ecx
  401ce5:	jmp    0x401d23
  401ce7:	push   0x3e8
  401cec:	call   DWORD PTR ds:0x4040c0
  401cf2:	jmp    0x401cbe
  401cf4:	cmp    DWORD PTR ds:0x40336c,0x0
  401cfb:	jne    0x401d1d
  401cfd:	mov    DWORD PTR ds:0x40336c,ebx
  401d03:	push   0x401018
  401d08:	push   0x40100c
  401d0d:	call   0x401e74
  401d12:	pop    ecx
  401d13:	pop    ecx
  401d14:	test   eax,eax
  401d16:	je     0x401d23
  401d18:	jmp    0x401e5d
  401d1d:	mov    DWORD PTR ds:0x403014,ebx
  401d23:	cmp    DWORD PTR ds:0x40336c,ebx
  401d29:	jne    0x401d46
  401d2b:	push   0x401008
  401d30:	push   0x401000
  401d35:	call   0x402250
  401d3a:	pop    ecx
  401d3b:	pop    ecx
  401d3c:	mov    DWORD PTR ds:0x40336c,0x2
  401d46:	test   esi,esi
  401d48:	jne    0x401d53
  401d4a:	xor    eax,eax
  401d4c:	mov    ecx,0x403368
  401d51:	xchg   DWORD PTR [ecx],eax
  401d53:	cmp    DWORD PTR ds:0x403370,0x0
  401d5a:	je     0x401d81
  401d5c:	push   0x403370
  401d61:	call   0x402080
  401d66:	pop    ecx
  401d67:	test   eax,eax
  401d69:	je     0x401d81
  401d6b:	push   0x0
  401d6d:	push   0x2
  401d6f:	push   0x0
  401d71:	mov    esi,DWORD PTR ds:0x403370
  401d77:	mov    ecx,esi
  401d79:	call   DWORD PTR ds:0x404120
  401d7f:	call   esi
  401d81:	mov    eax,ds:0x4040e8
  401d86:	mov    ecx,DWORD PTR [eax]
  401d88:	test   ecx,ecx
  401d8a:	je     0x401e5d
  401d90:	mov    DWORD PTR [ebp-0x20],ecx
  401d93:	push   0x20
  401d95:	pop    esi
  401d96:	mov    edx,DWORD PTR [ebp-0x24]
  401d99:	movzx  eax,WORD PTR [ecx]
  401d9c:	cmp    ax,si
  401d9f:	ja     0x401df1
  401da1:	test   ax,ax
  401da4:	je     0x401daa
  401da6:	test   edx,edx
  401da8:	jne    0x401df1
  401daa:	movzx  eax,WORD PTR [ecx]
  401dad:	test   ax,ax
  401db0:	je     0x401dbf
  401db2:	cmp    ax,si
  401db5:	ja     0x401dbf
  401db7:	add    ecx,0x2
  401dba:	mov    DWORD PTR [ebp-0x20],ecx
  401dbd:	jmp    0x401daa
  401dbf:	test   BYTE PTR [ebp-0x40],0x1
  401dc3:	je     0x401dcb
  401dc5:	movzx  eax,WORD PTR [ebp-0x3c]
  401dc9:	jmp    0x401dce
  401dcb:	push   0xa
  401dcd:	pop    eax
  401dce:	push   eax
  401dcf:	push   ecx
  401dd0:	push   0x0
  401dd2:	push   0x400000
  401dd7:	call   0x401416
  401ddc:	mov    ds:0x403010,eax
  401de1:	cmp    DWORD PTR ds:0x403028,0x0
  401de8:	jne    0x401e39
  401dea:	push   eax
  401deb:	call   DWORD PTR ds:0x404100
  401df1:	cmp    eax,0x22
  401df4:	jne    0x401e02
  401df6:	xor    eax,eax
  401df8:	test   edx,edx
  401dfa:	sete   al
  401dfd:	mov    edx,eax
  401dff:	mov    DWORD PTR [ebp-0x24],edx
  401e02:	add    ecx,0x2
  401e05:	mov    DWORD PTR [ebp-0x20],ecx
  401e08:	jmp    0x401d99
  401e0a:	mov    ecx,DWORD PTR [ebp-0x14]
  401e0d:	mov    eax,DWORD PTR [ecx]
  401e0f:	mov    eax,DWORD PTR [eax]
  401e11:	mov    DWORD PTR [ebp-0x28],eax
  401e14:	push   ecx
  401e15:	push   eax
  401e16:	call   0x401f64
  401e1b:	pop    ecx
  401e1c:	pop    ecx
  401e1d:	ret    
  401e1e:	mov    esp,DWORD PTR [ebp-0x18]
  401e21:	mov    eax,DWORD PTR [ebp-0x28]
  401e24:	mov    ds:0x403010,eax
  401e29:	cmp    DWORD PTR ds:0x403028,0x0
  401e30:	jne    0x401e39
  401e32:	push   eax
  401e33:	call   DWORD PTR ds:0x4040fc
  401e39:	cmp    DWORD PTR ds:0x403014,0x0
  401e40:	jne    0x401e4d
  401e42:	call   DWORD PTR ds:0x4040f8
  401e48:	mov    eax,ds:0x403010
  401e4d:	mov    DWORD PTR [ebp-0x4],0xfffffffe
  401e54:	jmp    0x401e69
  401e56:	xor    eax,eax
  401e58:	inc    eax
  401e59:	ret    
  401e5a:	mov    esp,DWORD PTR [ebp-0x18]
  401e5d:	mov    DWORD PTR [ebp-0x4],0xfffffffe
  401e64:	mov    eax,0xff
  401e69:	call   0x4022a4
  401e6e:	ret    
  401e6f:	int3   
  401e70:	int3   
  401e71:	int3   
  401e72:	int3   
  401e73:	int3   
  401e74:	mov    edi,edi
  401e76:	push   ebp
  401e77:	mov    ebp,esp
  401e79:	push   ecx
  401e7a:	mov    eax,ds:0x403004
  401e7f:	xor    eax,ebp
  401e81:	mov    DWORD PTR [ebp-0x4],eax
  401e84:	push   esi
  401e85:	mov    esi,DWORD PTR [ebp+0x8]
  401e88:	xor    eax,eax
  401e8a:	cmp    esi,DWORD PTR [ebp+0xc]
  401e8d:	jae    0x401ead
  401e8f:	push   edi
  401e90:	test   eax,eax
  401e92:	jne    0x401eac
  401e94:	mov    edi,DWORD PTR [esi]
  401e96:	test   edi,edi
  401e98:	je     0x401ea4
  401e9a:	mov    ecx,edi
  401e9c:	call   DWORD PTR ds:0x404120
  401ea2:	call   edi
  401ea4:	add    esi,0x4
  401ea7:	cmp    esi,DWORD PTR [ebp+0xc]
  401eaa:	jb     0x401e90
  401eac:	pop    edi
  401ead:	mov    ecx,DWORD PTR [ebp-0x4]
  401eb0:	xor    ecx,ebp
  401eb2:	pop    esi
  401eb3:	call   0x401ee0
  401eb8:	mov    esp,ebp
  401eba:	pop    ebp
  401ebb:	ret    
  401ebc:	int3   
  401ebd:	int3   
  401ebe:	int3   
  401ebf:	int3   
  401ec0:	int3   
  401ec1:	int3   
  401ec2:	int3   
  401ec3:	int3   
  401ec4:	int3   
  401ec5:	int3   
  401ec6:	int3   
  401ec7:	int3   
  401ec8:	int3   
  401ec9:	int3   
  401eca:	int3   
  401ecb:	int3   
  401ecc:	int3   
  401ecd:	int3   
  401ece:	int3   
  401ecf:	int3   
  401ed0:	call   0x402188
  401ed5:	jmp    0x401c88
  401eda:	int3   
  401edb:	int3   
  401edc:	int3   
  401edd:	int3   
  401ede:	int3   
  401edf:	int3   
  401ee0:	cmp    ecx,DWORD PTR ds:0x403004
  401ee6:	jne    0x401eeb
  401ee8:	ret    0x0
  401eeb:	jmp    0x402325
  401ef0:	int3   
  401ef1:	int3   
  401ef2:	int3   
  401ef3:	int3   
  401ef4:	int3   
  401ef5:	int3   
  401ef6:	int3   
  401ef7:	int3   
  401ef8:	int3   
  401ef9:	int3   
  401efa:	int3   
  401efb:	int3   
  401efc:	int3   
  401efd:	int3   
  401efe:	int3   
  401eff:	int3   
  401f00:	mov    edi,edi
  401f02:	push   ebp
  401f03:	mov    ebp,esp
  401f05:	mov    eax,DWORD PTR [ebp+0x8]
  401f08:	mov    eax,DWORD PTR [eax]
  401f0a:	cmp    DWORD PTR [eax],0xe06d7363
  401f10:	jne    0x401f3d
  401f12:	cmp    DWORD PTR [eax+0x10],0x3
  401f16:	jne    0x401f3d
  401f18:	mov    eax,DWORD PTR [eax+0x14]
  401f1b:	cmp    eax,0x19930520
  401f20:	je     0x401f37
  401f22:	cmp    eax,0x19930521
  401f27:	je     0x401f37
  401f29:	cmp    eax,0x19930522
  401f2e:	je     0x401f37
  401f30:	cmp    eax,0x1994000
  401f35:	jne    0x401f3d
  401f37:	call   DWORD PTR ds:0x4040e4
  401f3d:	xor    eax,eax
  401f3f:	pop    ebp
  401f40:	ret    0x4
  401f43:	int3   
  401f44:	int3   
  401f45:	int3   
  401f46:	int3   
  401f47:	int3   
  401f48:	int3   
  401f49:	int3   
  401f4a:	int3   
  401f4b:	int3   
  401f4c:	int3   
  401f4d:	int3   
  401f4e:	int3   
  401f4f:	int3   
  401f50:	push   0x401f00
  401f55:	call   DWORD PTR ds:0x40406c
  401f5b:	xor    eax,eax
  401f5d:	ret    
  401f5e:	int3   
  401f5f:	int3   
  401f60:	int3   
  401f61:	int3   
  401f62:	int3   
  401f63:	int3   
  401f64:	jmp    DWORD PTR ds:0x4040d4
  401f6a:	int3   
  401f6b:	int3   
  401f6c:	int3   
  401f6d:	int3   
  401f6e:	int3   
  401f6f:	push   0xc
  401f71:	push   0x402598
  401f76:	call   0x4024fc
  401f7b:	xor    ecx,ecx
  401f7d:	mov    eax,DWORD PTR [ebp+0x8]
  401f80:	test   eax,eax
  401f82:	je     0x401fcf
  401f84:	cmp    eax,0xffffffff
  401f87:	je     0x401fcf
  401f89:	mov    DWORD PTR [ebp-0x4],ecx
  401f8c:	mov    edx,0x5a4d
  401f91:	cmp    WORD PTR [eax],dx
  401f94:	jne    0x401fc8
  401f96:	mov    edx,DWORD PTR [eax+0x3c]
  401f99:	test   edx,edx
  401f9b:	js     0x401fc8
  401f9d:	cmp    edx,0x10000000
  401fa3:	jae    0x401fc8
  401fa5:	add    eax,edx
  401fa7:	mov    DWORD PTR [ebp-0x1c],eax
  401faa:	mov    ecx,DWORD PTR [eax]
  401fac:	sub    ecx,0x4550
  401fb2:	neg    ecx
  401fb4:	sbb    ecx,ecx
  401fb6:	not    ecx
  401fb8:	and    ecx,eax
  401fba:	jmp    0x401fc5
  401fbc:	xor    eax,eax
  401fbe:	inc    eax
  401fbf:	ret    
  401fc0:	mov    esp,DWORD PTR [ebp-0x18]
  401fc3:	xor    ecx,ecx
  401fc5:	mov    DWORD PTR [ebp-0x1c],ecx
  401fc8:	mov    DWORD PTR [ebp-0x4],0xfffffffe
  401fcf:	mov    eax,ecx
  401fd1:	call   0x402541
  401fd6:	ret    0x4
  401fd9:	int3   
  401fda:	int3   
  401fdb:	int3   
  401fdc:	int3   
  401fdd:	int3   
  401fde:	mov    edi,edi
  401fe0:	push   ebp
  401fe1:	mov    ebp,esp
  401fe3:	push   0x0
  401fe5:	call   DWORD PTR ds:0x404080
  401feb:	test   eax,eax
  401fed:	je     0x40200f
  401fef:	push   eax
  401ff0:	call   0x401f6f
  401ff5:	test   eax,eax
  401ff7:	je     0x40200f
  401ff9:	movzx  ecx,WORD PTR [eax+0x5c]
  401ffd:	push   0x2
  401fff:	pop    eax
  402000:	cmp    cx,ax
  402003:	je     0x402012
  402005:	cmp    ecx,0x3
  402008:	jne    0x40200f
  40200a:	xor    eax,eax
  40200c:	inc    eax
  40200d:	pop    ebp
  40200e:	ret    
  40200f:	mov    eax,DWORD PTR [ebp+0x8]
  402012:	pop    ebp
  402013:	ret    
  402014:	int3   
  402015:	int3   
  402016:	int3   
  402017:	int3   
  402018:	int3   
  402019:	int3   
  40201a:	jmp    DWORD PTR ds:0x40410c
  402020:	int3   
  402021:	int3   
  402022:	int3   
  402023:	int3   
  402024:	int3   
  402025:	int3   
  402026:	int3   
  402027:	int3   
  402028:	int3   
  402029:	int3   
  40202a:	int3   
  40202b:	int3   
  40202c:	int3   
  40202d:	int3   
  40202e:	int3   
  40202f:	int3   
  402030:	mov    edi,edi
  402032:	push   ebp
  402033:	mov    ebp,esp
  402035:	mov    eax,DWORD PTR [ebp+0x8]
  402038:	xor    edx,edx
  40203a:	push   ebx
  40203b:	push   esi
  40203c:	push   edi
  40203d:	mov    ecx,DWORD PTR [eax+0x3c]
  402040:	add    ecx,eax
  402042:	movzx  eax,WORD PTR [ecx+0x14]
  402046:	movzx  ebx,WORD PTR [ecx+0x6]
  40204a:	add    eax,0x18
  40204d:	add    eax,ecx
  40204f:	test   ebx,ebx
  402051:	je     0x40206e
  402053:	mov    edi,DWORD PTR [ebp+0xc]
  402056:	mov    esi,DWORD PTR [eax+0xc]
  402059:	cmp    edi,esi
  40205b:	jb     0x402066
  40205d:	mov    ecx,DWORD PTR [eax+0x8]
  402060:	add    ecx,esi
  402062:	cmp    edi,ecx
  402064:	jb     0x402070
  402066:	inc    edx
  402067:	add    eax,0x28
  40206a:	cmp    edx,ebx
  40206c:	jb     0x402056
  40206e:	xor    eax,eax
  402070:	pop    edi
  402071:	pop    esi
  402072:	pop    ebx
  402073:	pop    ebp
  402074:	ret    
  402075:	int3   
  402076:	int3   
  402077:	int3   
  402078:	int3   
  402079:	int3   
  40207a:	int3   
  40207b:	int3   
  40207c:	int3   
  40207d:	int3   
  40207e:	int3   
  40207f:	int3   
  402080:	mov    edi,edi
  402082:	push   ebp
  402083:	mov    ebp,esp
  402085:	push   0xfffffffe
  402087:	push   0x4025b8
  40208c:	push   0x4022c0
  402091:	mov    eax,fs:0x0
  402097:	push   eax
  402098:	sub    esp,0x8
  40209b:	push   ebx
  40209c:	push   esi
  40209d:	push   edi
  40209e:	mov    eax,ds:0x403004
  4020a3:	xor    DWORD PTR [ebp-0x8],eax
  4020a6:	xor    eax,ebp
  4020a8:	push   eax
  4020a9:	lea    eax,[ebp-0x10]
  4020ac:	mov    fs:0x0,eax
  4020b2:	mov    DWORD PTR [ebp-0x18],esp
  4020b5:	mov    DWORD PTR [ebp-0x4],0x0
  4020bc:	push   0x400000
  4020c1:	call   0x402150
  4020c6:	add    esp,0x4
  4020c9:	test   eax,eax
  4020cb:	je     0x402121
  4020cd:	mov    eax,DWORD PTR [ebp+0x8]
  4020d0:	sub    eax,0x400000
  4020d5:	push   eax
  4020d6:	push   0x400000
  4020db:	call   0x402030
  4020e0:	add    esp,0x8
  4020e3:	test   eax,eax
  4020e5:	je     0x402121
  4020e7:	mov    eax,DWORD PTR [eax+0x24]
  4020ea:	shr    eax,0x1f
  4020ed:	not    eax
  4020ef:	and    eax,0x1
  4020f2:	mov    DWORD PTR [ebp-0x4],0xfffffffe
  4020f9:	mov    ecx,DWORD PTR [ebp-0x10]
  4020fc:	mov    DWORD PTR fs:0x0,ecx
  402103:	pop    ecx
  402104:	pop    edi
  402105:	pop    esi
  402106:	pop    ebx
  402107:	mov    esp,ebp
  402109:	pop    ebp
  40210a:	ret    
  40210b:	mov    eax,DWORD PTR [ebp-0x14]
  40210e:	mov    eax,DWORD PTR [eax]
  402110:	xor    ecx,ecx
  402112:	cmp    DWORD PTR [eax],0xc0000005
  402118:	sete   cl
  40211b:	mov    eax,ecx
  40211d:	ret    
  40211e:	mov    esp,DWORD PTR [ebp-0x18]
  402121:	mov    DWORD PTR [ebp-0x4],0xfffffffe
  402128:	xor    eax,eax
  40212a:	mov    ecx,DWORD PTR [ebp-0x10]
  40212d:	mov    DWORD PTR fs:0x0,ecx
  402134:	pop    ecx
  402135:	pop    edi
  402136:	pop    esi
  402137:	pop    ebx
  402138:	mov    esp,ebp
  40213a:	pop    ebp
  40213b:	ret    
  40213c:	int3   
  40213d:	int3   
  40213e:	int3   
  40213f:	int3   
  402140:	int3   
  402141:	int3   
  402142:	int3   
  402143:	int3   
  402144:	int3   
  402145:	int3   
  402146:	int3   
  402147:	int3   
  402148:	int3   
  402149:	int3   
  40214a:	int3   
  40214b:	int3   
  40214c:	int3   
  40214d:	int3   
  40214e:	int3   
  40214f:	int3   
  402150:	mov    edi,edi
  402152:	push   ebp
  402153:	mov    ebp,esp
  402155:	mov    eax,DWORD PTR [ebp+0x8]
  402158:	mov    ecx,0x5a4d
  40215d:	cmp    WORD PTR [eax],cx
  402160:	je     0x402166
  402162:	xor    eax,eax
  402164:	pop    ebp
  402165:	ret    
  402166:	mov    ecx,DWORD PTR [eax+0x3c]
  402169:	add    ecx,eax
  40216b:	xor    eax,eax
  40216d:	cmp    DWORD PTR [ecx],0x4550
  402173:	jne    0x402181
  402175:	mov    edx,0x10b
  40217a:	cmp    WORD PTR [ecx+0x18],dx
  40217e:	sete   al
  402181:	pop    ebp
  402182:	ret    
  402183:	int3   
  402184:	int3   
  402185:	int3   
  402186:	int3   
  402187:	int3   
  402188:	mov    edi,edi
  40218a:	push   ebp
  40218b:	mov    ebp,esp
  40218d:	sub    esp,0x14
  402190:	and    DWORD PTR [ebp-0xc],0x0
  402194:	and    DWORD PTR [ebp-0x8],0x0
  402198:	mov    eax,ds:0x403004
  40219d:	push   esi
  40219e:	push   edi
  40219f:	mov    edi,0xbb40e64e
  4021a4:	mov    esi,0xffff0000
  4021a9:	cmp    eax,edi
  4021ab:	je     0x4021ba
  4021ad:	test   esi,eax
  4021af:	je     0x4021ba
  4021b1:	not    eax
  4021b3:	mov    ds:0x403008,eax
  4021b8:	jmp    0x402224
  4021ba:	lea    eax,[ebp-0xc]
  4021bd:	push   eax
  4021be:	call   DWORD PTR ds:0x4040cc
  4021c4:	mov    eax,DWORD PTR [ebp-0x8]
  4021c7:	xor    eax,DWORD PTR [ebp-0xc]
  4021ca:	mov    DWORD PTR [ebp-0x4],eax
  4021cd:	call   DWORD PTR ds:0x404094
  4021d3:	xor    DWORD PTR [ebp-0x4],eax
  4021d6:	call   DWORD PTR ds:0x404090
  4021dc:	xor    DWORD PTR [ebp-0x4],eax
  4021df:	call   DWORD PTR ds:0x4040c8
  4021e5:	xor    eax,DWORD PTR [ebp-0x4]
  4021e8:	lea    ecx,[ebp-0x4]
  4021eb:	xor    eax,ecx
  4021ed:	mov    DWORD PTR [ebp-0x4],eax
  4021f0:	lea    eax,[ebp-0x14]
  4021f3:	push   eax
  4021f4:	call   DWORD PTR ds:0x4040a8
  4021fa:	mov    eax,DWORD PTR [ebp-0x10]
  4021fd:	xor    eax,DWORD PTR [ebp-0x14]
  402200:	mov    ecx,DWORD PTR [ebp-0x4]
  402203:	xor    ecx,eax
  402205:	cmp    ecx,edi
  402207:	je     0x402211
  402209:	test   DWORD PTR ds:0x403004,esi
  40220f:	jne    0x402216
  402211:	mov    ecx,0xbb40e64f
  402216:	mov    DWORD PTR ds:0x403004,ecx
  40221c:	not    ecx
  40221e:	mov    DWORD PTR ds:0x403008,ecx
  402224:	pop    edi
  402225:	pop    esi
  402226:	mov    esp,ebp
  402228:	pop    ebp
  402229:	ret    
  40222a:	int3   
  40222b:	int3   
  40222c:	int3   
  40222d:	int3   
  40222e:	int3   
  40222f:	int3   
  402230:	xor    eax,eax
  402232:	ret    
  402233:	int3   
  402234:	int3   
  402235:	int3   
  402236:	int3   
  402237:	int3   
  402238:	push   0x30000
  40223d:	push   0x10000
  402242:	call   DWORD PTR ds:0x4040e0
  402248:	pop    ecx
  402249:	pop    ecx
  40224a:	ret    
  40224b:	int3   
  40224c:	int3   
  40224d:	int3   
  40224e:	int3   
  40224f:	int3   
  402250:	jmp    DWORD PTR ds:0x4040ec
  402256:	int3   
  402257:	int3   
  402258:	int3   
  402259:	int3   
  40225a:	int3   
  40225b:	int3   
  40225c:	push   0x4022c0
  402261:	push   DWORD PTR fs:0x0
  402268:	mov    eax,DWORD PTR [esp+0x10]
  40226c:	mov    DWORD PTR [esp+0x10],ebp
  402270:	lea    ebp,[esp+0x10]
  402274:	sub    esp,eax
  402276:	push   ebx
  402277:	push   esi
  402278:	push   edi
  402279:	mov    eax,ds:0x403004
  40227e:	xor    DWORD PTR [ebp-0x4],eax
  402281:	xor    eax,ebp
  402283:	mov    DWORD PTR [ebp-0x1c],eax
  402286:	push   eax
  402287:	mov    DWORD PTR [ebp-0x18],esp
  40228a:	push   DWORD PTR [ebp-0x8]
  40228d:	mov    eax,DWORD PTR [ebp-0x4]
  402290:	mov    DWORD PTR [ebp-0x4],0xfffffffe
  402297:	mov    DWORD PTR [ebp-0x8],eax
  40229a:	lea    eax,[ebp-0x10]
  40229d:	mov    fs:0x0,eax
  4022a3:	ret    
  4022a4:	mov    ecx,DWORD PTR [ebp-0x1c]
  4022a7:	xor    ecx,ebp
  4022a9:	call   0x401ee0
  4022ae:	jmp    0x402541
  4022b3:	int3   
  4022b4:	int3   
  4022b5:	int3   
  4022b6:	int3   
  4022b7:	int3   
  4022b8:	int3   
  4022b9:	int3   
  4022ba:	int3   
  4022bb:	int3   
  4022bc:	int3   
  4022bd:	int3   
  4022be:	int3   
  4022bf:	int3   
  4022c0:	mov    edi,edi
  4022c2:	push   ebp
  4022c3:	mov    ebp,esp
  4022c5:	push   DWORD PTR [ebp+0x14]
  4022c8:	push   DWORD PTR [ebp+0x10]
  4022cb:	push   DWORD PTR [ebp+0xc]
  4022ce:	push   DWORD PTR [ebp+0x8]
  4022d1:	push   0x401ee0
  4022d6:	push   0x403004
  4022db:	call   0x40255a
  4022e0:	add    esp,0x18
  4022e3:	pop    ebp
  4022e4:	ret    
  4022e5:	int3   
  4022e6:	int3   
  4022e7:	int3   
  4022e8:	int3   
  4022e9:	int3   
  4022ea:	int3   
  4022eb:	int3   
  4022ec:	int3   
  4022ed:	int3   
  4022ee:	int3   
  4022ef:	int3   
  4022f0:	ret    
  4022f1:	int3   
  4022f2:	int3   
  4022f3:	int3   
  4022f4:	int3   
  4022f5:	int3   
  4022f6:	mov    edi,edi
  4022f8:	push   ebp
  4022f9:	mov    ebp,esp
  4022fb:	push   0x0
  4022fd:	call   DWORD PTR ds:0x40406c
  402303:	push   DWORD PTR [ebp+0x8]
  402306:	call   DWORD PTR ds:0x404070
  40230c:	push   0xc0000409
  402311:	call   DWORD PTR ds:0x4040a0
  402317:	push   eax
  402318:	call   DWORD PTR ds:0x404098
  40231e:	pop    ebp
  40231f:	ret    
  402320:	int3   
  402321:	int3   
  402322:	int3   
  402323:	int3   
  402324:	int3   
  402325:	mov    edi,edi
  402327:	push   ebp
  402328:	mov    ebp,esp
  40232a:	sub    esp,0x324
  402330:	mov    ds:0x403140,eax
  402335:	mov    DWORD PTR ds:0x40313c,ecx
  40233b:	mov    DWORD PTR ds:0x403138,edx
  402341:	mov    DWORD PTR ds:0x403134,ebx
  402347:	mov    DWORD PTR ds:0x403130,esi
  40234d:	mov    DWORD PTR ds:0x40312c,edi
  402353:	data16 mov WORD PTR ds:0x403158,ss
  40235a:	data16 mov WORD PTR ds:0x40314c,cs
  402361:	data16 mov WORD PTR ds:0x403128,ds
  402368:	data16 mov WORD PTR ds:0x403124,es
  40236f:	data16 mov WORD PTR ds:0x403120,fs
  402376:	data16 mov WORD PTR ds:0x40311c,gs
  40237d:	pushf  
  40237e:	pop    DWORD PTR ds:0x403150
  402384:	mov    eax,DWORD PTR [ebp+0x0]
  402387:	mov    ds:0x403144,eax
  40238c:	mov    eax,DWORD PTR [ebp+0x4]
  40238f:	mov    ds:0x403148,eax
  402394:	lea    eax,[ebp+0x8]
  402397:	mov    ds:0x403154,eax
  40239c:	mov    eax,DWORD PTR [ebp-0x324]
  4023a2:	mov    DWORD PTR ds:0x403090,0x10001
  4023ac:	mov    eax,ds:0x403148
  4023b1:	mov    ds:0x40304c,eax
  4023b6:	mov    DWORD PTR ds:0x403040,0xc0000409
  4023c0:	mov    DWORD PTR ds:0x403044,0x1
  4023ca:	mov    DWORD PTR ds:0x403050,0x3
  4023d4:	push   0x4
  4023d6:	pop    eax
  4023d7:	imul   eax,eax,0x0
  4023da:	mov    DWORD PTR [eax+0x403054],0x2
  4023e4:	push   0x4
  4023e6:	pop    eax
  4023e7:	shl    eax,0x0
  4023ea:	mov    ecx,DWORD PTR ds:0x403004
  4023f0:	mov    DWORD PTR [eax+0x403054],ecx
  4023f6:	push   0x4
  4023f8:	pop    eax
  4023f9:	shl    eax,1
  4023fb:	mov    ecx,DWORD PTR ds:0x403008
  402401:	mov    DWORD PTR [eax+0x403054],ecx
  402407:	push   0x4
  402409:	pop    eax
  40240a:	imul   eax,eax,0x0
  40240d:	mov    ecx,DWORD PTR ds:0x403004
  402413:	mov    DWORD PTR [ebp+eax*1-0x8],ecx
  402417:	push   0x4
  402419:	pop    eax
  40241a:	shl    eax,0x0
  40241d:	mov    ecx,DWORD PTR ds:0x403008
  402423:	mov    DWORD PTR [ebp+eax*1-0x8],ecx
  402427:	push   0x401050
  40242c:	call   0x4022f6
  402431:	mov    esp,ebp
  402433:	pop    ebp
  402434:	ret    
  402435:	int3   
  402436:	int3   
  402437:	int3   
  402438:	int3   
  402439:	int3   
  40243a:	mov    edi,edi
  40243c:	push   ebp
  40243d:	mov    ebp,esp
  40243f:	mov    ds:0x403140,eax
  402444:	mov    DWORD PTR ds:0x40313c,ecx
  40244a:	mov    DWORD PTR ds:0x403138,edx
  402450:	mov    DWORD PTR ds:0x403134,ebx
  402456:	mov    DWORD PTR ds:0x403130,esi
  40245c:	mov    DWORD PTR ds:0x40312c,edi
  402462:	data16 mov WORD PTR ds:0x403158,ss
  402469:	data16 mov WORD PTR ds:0x40314c,cs
  402470:	data16 mov WORD PTR ds:0x403128,ds
  402477:	data16 mov WORD PTR ds:0x403124,es
  40247e:	data16 mov WORD PTR ds:0x403120,fs
  402485:	data16 mov WORD PTR ds:0x40311c,gs
  40248c:	pushf  
  40248d:	pop    DWORD PTR ds:0x403150
  402493:	mov    DWORD PTR ds:0x403090,0x10001
  40249d:	mov    eax,DWORD PTR [ebp+0x4]
  4024a0:	mov    ds:0x403148,eax
  4024a5:	lea    eax,[ebp+0x4]
  4024a8:	add    eax,0x4
  4024ab:	mov    ds:0x403154,eax
  4024b0:	mov    eax,ds:0x403148
  4024b5:	mov    ds:0x40304c,eax
  4024ba:	mov    DWORD PTR ds:0x403040,0xc0000409
  4024c4:	mov    DWORD PTR ds:0x403044,0x1
  4024ce:	mov    DWORD PTR ds:0x403050,0x1
  4024d8:	push   0x4
  4024da:	pop    eax
  4024db:	imul   eax,eax,0x0
  4024de:	mov    DWORD PTR [eax+0x403054],0x8
  4024e8:	push   0x401050
  4024ed:	call   0x4022f6
  4024f2:	pop    ebp
  4024f3:	ret    
  4024f4:	int3   
  4024f5:	int3   
  4024f6:	int3   
  4024f7:	int3   
  4024f8:	int3   
  4024f9:	int3   
  4024fa:	int3   
  4024fb:	int3   
  4024fc:	push   0x4022c0
  402501:	push   DWORD PTR fs:0x0
  402508:	mov    eax,DWORD PTR [esp+0x10]
  40250c:	mov    DWORD PTR [esp+0x10],ebp
  402510:	lea    ebp,[esp+0x10]
  402514:	sub    esp,eax
  402516:	push   ebx
  402517:	push   esi
  402518:	push   edi
  402519:	mov    eax,ds:0x403004
  40251e:	xor    DWORD PTR [ebp-0x4],eax
  402521:	xor    eax,ebp
  402523:	push   eax
  402524:	mov    DWORD PTR [ebp-0x18],esp
  402527:	push   DWORD PTR [ebp-0x8]
  40252a:	mov    eax,DWORD PTR [ebp-0x4]
  40252d:	mov    DWORD PTR [ebp-0x4],0xfffffffe
  402534:	mov    DWORD PTR [ebp-0x8],eax
  402537:	lea    eax,[ebp-0x10]
  40253a:	mov    fs:0x0,eax
  402540:	ret    
  402541:	mov    ecx,DWORD PTR [ebp-0x10]
  402544:	mov    DWORD PTR fs:0x0,ecx
  40254b:	pop    ecx
  40254c:	pop    edi
  40254d:	pop    edi
  40254e:	pop    esi
  40254f:	pop    ebx
  402550:	mov    esp,ebp
  402552:	pop    ebp
  402553:	push   ecx
  402554:	ret    
  402555:	int3   
  402556:	int3   
  402557:	int3   
  402558:	int3   
  402559:	int3   
  40255a:	jmp    DWORD PTR ds:0x4040dc
  402560:	int3   
  402561:	int3   
  402562:	int3   
  402563:	int3   
  402564:	int3   
  402565:	int3   
  402566:	jmp    DWORD PTR ds:0x4040d8
  40256c:	int3   
  40256d:	int3   
  40256e:	int3   
  40256f:	int3   
  402570:	in     al,0xff
  402572:	(bad)  
  402573:	inc    DWORD PTR [eax]
  402575:	add    BYTE PTR [eax],al
  402577:	add    BYTE PTR [edi+edi*8+0xffff],al
  40257e:	add    BYTE PTR [eax],al
  402580:	(bad)  
  402581:	(bad)  
  402582:	(bad)  
  402583:	call   DWORD PTR [esi+0x1e]
  402586:	inc    eax
  402587:	add    BYTE PTR [edx+0x1e],bl
  40258a:	inc    eax
  40258b:	add    dh,bh
  40258d:	(bad)  
  40258e:	(bad)  
  40258f:	dec    DWORD PTR [edx]
  402591:	push   ds
  402592:	inc    eax
  402593:	add    BYTE PTR [esi],bl
  402595:	push   ds
  402596:	inc    eax
  402597:	add    dh,bh
  402599:	(bad)  
  40259a:	(bad)  
  40259b:	inc    DWORD PTR [eax]
  40259d:	add    BYTE PTR [eax],al
  40259f:	add    ah,dl
  4025a1:	(bad)  
  4025a2:	(bad)  
  4025a3:	inc    DWORD PTR [eax]
  4025a5:	add    BYTE PTR [eax],al
  4025a7:	add    dh,bh
  4025a9:	(bad)  
  4025aa:	(bad)  
  4025ab:	(bad)  
  4025ac:	mov    esp,0xc000401f
  4025b1:	pop    ds
  4025b2:	inc    eax
  4025b3:	add    BYTE PTR [eax],al
  4025b5:	add    BYTE PTR [eax],al
  4025b7:	add    dh,bh
  4025b9:	(bad)  
  4025ba:	(bad)  
  4025bb:	inc    DWORD PTR [eax]
  4025bd:	add    BYTE PTR [eax],al
  4025bf:	add    al,bl
  4025c1:	(bad)  
  4025c2:	(bad)  
  4025c3:	inc    DWORD PTR [eax]
  4025c5:	add    BYTE PTR [eax],al
  4025c7:	add    dh,bh
  4025c9:	(bad)  
  4025ca:	(bad)  
  4025cb:	dec    DWORD PTR [ebx]
  4025cd:	and    DWORD PTR [eax+0x0],eax
  4025d0:	push   ds
  4025d1:	and    DWORD PTR [eax+0x0],eax
