
82de969474a42b8180214095219fa488c130e7599e00a472b05f4534a469df86.exe:     file format pei-i386


Disassembly of section .text:

00402000 <.text>:
  402000:	mov    al,ds:0x6d
  402005:	add    BYTE PTR [eax],al
  402007:	add    BYTE PTR [eax+0x0],cl
  40200a:	add    BYTE PTR [eax],al
  40200c:	add    al,BYTE PTR [eax]
  40200e:	add    eax,0x313800
  402013:	add    al,cl
  402015:	cmp    eax,DWORD PTR [eax]
  402017:	add    BYTE PTR [ecx],cl
  402019:	add    BYTE PTR [eax],al
  40201b:	add    BYTE PTR [ecx],cl
  40201d:	add    BYTE PTR [eax],al
  40201f:	push   es
  402020:	xor    BYTE PTR [eax],ch
  402022:	add    BYTE PTR [eax],al
  402024:	push   es
  402025:	or     DWORD PTR [eax],eax
  402027:	add    BYTE PTR [eax+0x20],dl
  40202a:	add    BYTE PTR [eax],al
  40202c:	add    BYTE PTR [eax],0x0
	...
  40204f:	add    BYTE PTR [ebx-0x768f1a91],dh
  402055:	mov    dh,0xaa
  402057:	mov    eax,0xc803e46b
  40205c:	loop   0x40208e
  40205e:	test   ecx,0xc34dacf8
  402064:	pmaxub mm6,QWORD PTR [edx-0x5f]
  402068:	repz fscale 
  40206b:	cwde   
  40206c:	dec    ebp
  40206d:	sbb    eax,0x69308246
  402072:	das    
  402073:	dec    edx
  402074:	xor    ch,bl
  402076:	adc    dl,BYTE PTR [ebx+0x7]
  402079:	out    dx,al
  40207a:	xchg   BYTE PTR [esi+0x45],cl
  40207d:	sub    DWORD PTR [esi-0x2d],ebx
  402080:	imul   edi,DWORD PTR [ecx+0x9],0x7d
  402084:	jne    0x40204d
  402086:	(bad)  
  402087:	mov    ah,0x3b
  402089:	mov    al,ds:0x66f6bcea
  40208e:	inc    ebx
  40208f:	int    0x67
  402091:	shr    DWORD PTR [edi+0x13],cl
  402094:	leave  
  402095:	std    
  402096:	mov    dh,0x81
  402098:	sub    DWORD PTR [ebp+0x33],esi
  40209b:	jae    0x402090
  40209d:	xchg   BYTE PTR [eax],al
  40209f:	sub    al,0x2f
  4020a1:	jl     0x402096
  4020a3:	inc    ebx
  4020a4:	jle    0x402074
  4020a6:	push   eax
  4020a7:	addr16 push edx
  4020a9:	out    dx,al
  4020aa:	xchg   BYTE PTR [esi],al
  4020ac:	or     eax,0x61bc3317
  4020b1:	retf   0x4104
  4020b4:	lock div DWORD PTR [eax+0x4c]
  4020b8:	in     al,0x83
  4020ba:	sti    
  4020bb:	js     0x40207d
  4020bd:	mov    ebp,0x316957aa
  4020c2:	pop    ds
  4020c3:	stos   DWORD PTR es:[edi],eax
  4020c4:	push   cs
  4020c5:	fwait
  4020c6:	sbb    ah,ah
  4020c8:	add    al,0x7b
  4020ca:	dec    ecx
  4020cb:	iret   
  4020cc:	adc    eax,0x324d4637
  4020d1:	jle    0x402111
  4020d3:	add    BYTE PTR [eax],al
  4020d5:	add    al,0x2
  4020d7:	outs   dx,DWORD PTR ds:[esi]
  4020d8:	adc    eax,DWORD PTR [eax]
  4020da:	add    BYTE PTR [edx],cl
  4020dc:	sub    ch,BYTE PTR [esi]
  4020de:	jb     0x4020e1
  4020e0:	add    BYTE PTR [eax],al
  4020e2:	jo     0x40210c
  4020e4:	add    DWORD PTR [eax],eax
  4020e6:	add    BYTE PTR [esi],al
  4020e8:	sub    ch,BYTE PTR [esi]
  4020ea:	jb     0x402137
  4020ec:	add    BYTE PTR [eax],al
  4020ee:	jo     0x402118
  4020f0:	add    DWORD PTR [eax],eax
  4020f2:	add    BYTE PTR [esi],al
  4020f4:	sub    dl,BYTE PTR [esi+0x72]
  4020f7:	mov    DWORD PTR [eax],eax
  4020f9:	add    BYTE PTR [eax+0x28],dh
  4020fc:	adc    al,0x0
  4020fe:	add    BYTE PTR [edx],cl
  402100:	jae    0x402117
  402102:	add    BYTE PTR [eax],al
  402104:	or     al,BYTE PTR [eax+0x400003e]
  40210a:	sub    dl,BYTE PTR [edx+0x7e]
  40210d:	inc    esp
  40210e:	add    BYTE PTR [eax],al
  402110:	add    al,0x2c
  402112:	add    DWORD PTR [edx],ebp
  402114:	sub    BYTE PTR [eax],cl
  402116:	add    BYTE PTR [eax],al
  402118:	push   es
  402119:	add    ch,BYTE PTR [eax]
  40211b:	push   ss
  40211c:	add    BYTE PTR [eax],al
  40211e:	or     ch,BYTE PTR [edx]
  402120:	xor    ch,BYTE PTR [eax]
  402122:	or     BYTE PTR [eax],al
  402124:	add    BYTE PTR [esi],al
  402126:	add    ch,BYTE PTR [eax]
  402128:	push   ss
  402129:	add    BYTE PTR [eax],al
  40212b:	or     ch,BYTE PTR [edx]
  40212d:	add    BYTE PTR [eax],al
  40212f:	add    BYTE PTR [ebx],al
  402131:	xor    BYTE PTR [edx],al
  402133:	add    ch,bl
  402135:	add    BYTE PTR [eax],al
  402137:	add    BYTE PTR [eax],al
  402139:	add    BYTE PTR [eax],al
  40213b:	add    BYTE PTR [eax],ch
  40213d:	pop    ss
  40213e:	add    BYTE PTR [eax],al
  402140:	or     ch,BYTE PTR [eax]
  402142:	add    eax,0x7e060000
  402147:	inc    esi
  402148:	add    BYTE PTR [eax],al
  40214a:	add    al,0x72
  40214c:	stos   DWORD PTR es:[edi],eax
  40214d:	add    BYTE PTR [eax],al
  40214f:	jo     0x4021c0
  402151:	adc    eax,DWORD PTR [eax]
  402153:	add    BYTE PTR [edx],cl
  402155:	sub    BYTE PTR [edi],dl
  402157:	add    BYTE PTR [eax],al
  402159:	or     ch,BYTE PTR [eax]
  40215b:	sbb    BYTE PTR [eax],al
  40215d:	add    BYTE PTR [edx],cl
  40215f:	sub    BYTE PTR ds:0x7e060000,al
  402165:	inc    esi
  402166:	add    BYTE PTR [eax],al
  402168:	add    al,0x72
  40216a:	mov    ecx,0x6f700000
  40216f:	adc    eax,DWORD PTR [eax]
  402171:	add    BYTE PTR [edx],cl
  402173:	sub    BYTE PTR [edi],dl
  402175:	add    BYTE PTR [eax],al
  402177:	or     ch,BYTE PTR [eax]
  402179:	sbb    BYTE PTR [eax],al
  40217b:	add    BYTE PTR [edx],cl
  40217d:	sub    BYTE PTR ds:0x7e060000,al
  402183:	inc    esi
  402184:	add    BYTE PTR [eax],al
  402186:	add    al,0x72
  402188:	mov    DWORD PTR [eax],0x136f7000
  40218e:	add    BYTE PTR [eax],al
  402190:	or     ch,BYTE PTR [eax]
  402192:	pop    ss
  402193:	add    BYTE PTR [eax],al
  402195:	or     ch,BYTE PTR [eax]
  402197:	sbb    BYTE PTR [eax],al
  402199:	add    BYTE PTR [edx],cl
  40219b:	sub    BYTE PTR ds:0x7e060000,al
  4021a1:	inc    esi
  4021a2:	add    BYTE PTR [eax],al
  4021a4:	add    al,0x72
  4021a6:	aad    0x0
  4021a8:	add    BYTE PTR [eax+0x6f],dh
  4021ab:	adc    eax,DWORD PTR [eax]
  4021ad:	add    BYTE PTR [edx],cl
  4021af:	sub    BYTE PTR [edi],dl
  4021b1:	add    BYTE PTR [eax],al
  4021b3:	or     ch,BYTE PTR [eax]
  4021b5:	sbb    BYTE PTR [eax],al
  4021b7:	add    BYTE PTR [edx],cl
  4021b9:	sub    BYTE PTR ds:0x7e060000,al
  4021bf:	inc    esi
  4021c0:	add    BYTE PTR [eax],al
  4021c2:	add    al,0x72
  4021c4:	jecxz  0x4021c6
  4021c6:	add    BYTE PTR [eax+0x6f],dh
  4021c9:	adc    eax,DWORD PTR [eax]
  4021cb:	add    BYTE PTR [edx],cl
  4021cd:	sub    BYTE PTR [edi],dl
  4021cf:	add    BYTE PTR [eax],al
  4021d1:	or     ch,BYTE PTR [eax]
  4021d3:	sbb    BYTE PTR [eax],al
  4021d5:	add    BYTE PTR [edx],cl
  4021d7:	sub    BYTE PTR ds:0x7e060000,al
  4021dd:	inc    esi
  4021de:	add    BYTE PTR [eax],al
  4021e0:	add    al,0x72
  4021e2:	icebp  
  4021e3:	add    BYTE PTR [eax],al
  4021e5:	jo     0x402256
  4021e7:	adc    eax,DWORD PTR [eax]
  4021e9:	add    BYTE PTR [edx],cl
  4021eb:	sub    BYTE PTR [edi],dl
  4021ed:	add    BYTE PTR [eax],al
  4021ef:	or     ch,BYTE PTR [eax]
  4021f1:	sbb    BYTE PTR [eax],al
  4021f3:	add    BYTE PTR [edx],cl
  4021f5:	sub    BYTE PTR ds:0x7e060000,al
  4021fb:	inc    esi
  4021fc:	add    BYTE PTR [eax],al
  4021fe:	add    al,0x72
  402200:	inc    DWORD PTR [eax]
  402202:	add    BYTE PTR [eax+0x6f],dh
  402205:	adc    eax,DWORD PTR [eax]
  402207:	add    BYTE PTR [edx],cl
  402209:	sub    BYTE PTR [edi],dl
  40220b:	add    BYTE PTR [eax],al
  40220d:	or     ch,BYTE PTR [eax]
  40220f:	sbb    BYTE PTR [eax],al
  402211:	add    BYTE PTR [edx],cl
  402213:	sub    BYTE PTR ds:0x2a060000,al
  402219:	add    BYTE PTR [eax],al
  40221b:	add    BYTE PTR [ebx],dl
  40221d:	xor    BYTE PTR ds:0x6d00,al
  402223:	add    BYTE PTR [ecx],al
  402225:	add    BYTE PTR [eax],al
  402227:	adc    DWORD PTR [esi+0x44],edi
  40222a:	add    BYTE PTR [eax],al
  40222c:	add    al,0x2d
  40222e:	pop    es
  40222f:	jle    0x402270
  402231:	add    BYTE PTR [eax],al
  402233:	add    al,0x2c
  402235:	add    DWORD PTR [edx],ebp
  402237:	pop    ss
  402238:	cmp    BYTE PTR [edi],0x0
  40223b:	add    BYTE PTR [ebx+esi*2],al
  40223e:	sbb    DWORD PTR [eax],eax
  402240:	add    BYTE PTR [edx],cl
  402242:	or     al,BYTE PTR [esi]
  402244:	sbb    ecx,DWORD PTR [ebp+0x100001a]
  40224a:	or     eax,DWORD PTR [edi]
  40224c:	push   ss
  40224d:	jle    0x402295
  40224f:	add    BYTE PTR [eax],al
  402251:	add    al,0x72
  402253:	or     eax,0x6f700001
  402258:	adc    eax,DWORD PTR [eax]
  40225a:	add    BYTE PTR [edx],cl
  40225c:	mov    ds:0x23721707,al
  402261:	add    DWORD PTR [eax],eax
  402263:	jo     0x402207
  402265:	pop    es
  402266:	sbb    BYTE PTR [eax],ch
  402268:	pop    ss
  402269:	add    BYTE PTR [eax],al
  40226b:	or     ah,BYTE PTR [edx+0x2281907]
  402271:	add    BYTE PTR [eax],al
  402273:	push   es
  402274:	mov    ds:0x17281a07,al
  402279:	add    BYTE PTR [eax],al
  40227b:	or     ah,BYTE PTR [edx+0x1a2807]
  402281:	add    BYTE PTR [edx],cl
  402283:	outs   dx,DWORD PTR ds:[esi]
  402284:	sbb    eax,DWORD PTR [eax]
  402286:	add    BYTE PTR [edx],cl
  402288:	es push es
  40228a:	outs   dx,DWORD PTR ds:[esi]
  40228b:	sbb    al,0x0
  40228d:	add    BYTE PTR [edx],cl
  40228f:	sub    BYTE PTR ds:0x2a0a0000,bl
  402295:	add    BYTE PTR [eax],al
  402297:	add    BYTE PTR [ebx],bl
  402299:	xor    BYTE PTR [eax+eax*1],al
  40229c:	inc    DWORD PTR [ecx]
  40229e:	add    BYTE PTR [eax],al
  4022a0:	add    al,BYTE PTR [eax]
  4022a2:	add    BYTE PTR [ecx],dl
  4022a4:	add    cl,BYTE PTR [esi+0x280b2d69]
  4022aa:	or     BYTE PTR [eax],al
  4022ac:	add    BYTE PTR [esi],al
  4022ae:	sub    BYTE PTR [edi],al
  4022b0:	add    BYTE PTR [eax],al
  4022b2:	push   es
  4022b3:	sub    dl,BYTE PTR [esi]
  4022b5:	or     bh,BYTE PTR [eax]
  4022b7:	outs   dx,DWORD PTR ds:[esi]
  4022b8:	add    DWORD PTR [eax],eax
  4022ba:	add    BYTE PTR [esi+0x4e],bh
  4022bd:	add    BYTE PTR [eax],al
  4022bf:	add    al,0x2
  4022c1:	push   es
  4022c2:	call   0xa00:0x1e2817
  4022c9:	sub    BYTE PTR [edi],bl
  4022cb:	add    BYTE PTR [eax],al
  4022cd:	or     ch,BYTE PTR [esi+edi*2]
  4022d0:	jle    0x402319
  4022d2:	add    BYTE PTR [eax],al
  4022d4:	add    al,0x2
  4022d6:	push   es
  4022d7:	call   0xa00:0x1e2817
  4022de:	sub    BYTE PTR [edi],bl
  4022e0:	add    BYTE PTR [eax],al
  4022e2:	or     ch,BYTE PTR [ecx+ebp*2]
  4022e5:	jle    0x40232f
  4022e7:	add    BYTE PTR [eax],al
  4022e9:	add    al,0x2
  4022eb:	push   es
  4022ec:	call   0xa00:0x1e2817
  4022f3:	sub    BYTE PTR [edi],bl
  4022f5:	add    BYTE PTR [eax],al
  4022f7:	or     ch,BYTE PTR [esp+edx*2]
  4022fa:	jle    0x402345
  4022fc:	add    BYTE PTR [eax],al
  4022fe:	add    al,0x2
  402300:	push   es
  402301:	call   0xa00:0x1e2817
  402308:	sub    BYTE PTR [edi],bl
  40230a:	add    BYTE PTR [eax],al
  40230c:	or     ch,BYTE PTR [edi+edi*1]
  40230f:	jle    0x40235b
  402311:	add    BYTE PTR [eax],al
  402313:	add    al,0x2
  402315:	push   es
  402316:	call   0xa00:0x1e2817
  40231d:	sub    BYTE PTR [edi],bl
  40231f:	add    BYTE PTR [eax],al
  402321:	or     ch,BYTE PTR [edx+ebp*1]
  402324:	jle    0x402371
  402326:	add    BYTE PTR [eax],al
  402328:	add    al,0x2
  40232a:	push   es
  40232b:	call   0xa00:0x1e2817
  402332:	sub    BYTE PTR [edi],bl
  402334:	add    BYTE PTR [eax],al
  402336:	or     ch,BYTE PTR [edx*1+0x4c7e]
  40233d:	add    al,0x2
  40233f:	push   es
  402340:	call   0xa00:0x1e2817
  402347:	sub    BYTE PTR [edi],bl
  402349:	add    BYTE PTR [eax],al
  40234b:	or     ch,BYTE PTR ds:0x8280b
  402351:	add    BYTE PTR [esi],al
  402353:	sub    BYTE PTR [edi],al
  402355:	add    BYTE PTR [eax],al
  402357:	push   es
  402358:	sub    bh,BYTE PTR [esi+0x53]
  40235b:	add    BYTE PTR [eax],al
  40235d:	add    al,0x2
  40235f:	push   es
  402360:	call   0xa00:0x1e2817
  402367:	sub    BYTE PTR [edi],bl
  402369:	add    BYTE PTR [eax],al
  40236b:	or     ch,BYTE PTR ds:0x4480170b
  402371:	add    BYTE PTR [eax],al
  402373:	add    al,0x38
  402375:	lods   eax,DWORD PTR ds:[esi]
  402376:	add    BYTE PTR [eax],al
  402378:	add    BYTE PTR [esi+0x52],bh
  40237b:	add    BYTE PTR [eax],al
  40237d:	add    al,0x2
  40237f:	push   es
  402380:	call   0xa00:0x1e2817
  402387:	sub    BYTE PTR [edi],bl
  402389:	add    BYTE PTR [eax],al
  40238b:	or     ch,BYTE PTR ds:0x4380170b
  402391:	add    BYTE PTR [eax],al
  402393:	add    al,0x38
  402395:	lea    eax,[eax]
  402397:	add    BYTE PTR [eax],al
  402399:	jle    0x4023ea
  40239b:	add    BYTE PTR [eax],al
  40239d:	add    al,0x2
  40239f:	push   es
  4023a0:	call   0xa00:0x1e2817
  4023a7:	sub    BYTE PTR [edi],bl
  4023a9:	add    BYTE PTR [eax],al
  4023ab:	or     ch,BYTE PTR ds:0x40801708
  4023b1:	add    BYTE PTR [eax],al
  4023b3:	add    al,0x2b
  4023b5:	jo     0x402435
  4023b7:	push   eax
  4023b8:	add    BYTE PTR [eax],al
  4023ba:	add    al,0x2
  4023bc:	push   es
  4023bd:	call   0xa00:0x1e2817
  4023c4:	sub    BYTE PTR [edi],bl
  4023c6:	add    BYTE PTR [eax],al
  4023c8:	or     ch,BYTE PTR ds:0x41801708
  4023ce:	add    BYTE PTR [eax],al
  4023d0:	add    al,0x2b
  4023d2:	push   ebx
  4023d3:	jle    0x402426
  4023d5:	add    BYTE PTR [eax],al
  4023d7:	add    al,0x2
  4023d9:	push   es
  4023da:	call   0xa00:0x1e2817
  4023e1:	sub    BYTE PTR [edi],bl
  4023e3:	add    BYTE PTR [eax],al
  4023e5:	or     ch,BYTE PTR ds:0x42801708
  4023eb:	add    BYTE PTR [eax],al
  4023ed:	add    al,0x2b
  4023ef:	ss jle 0x402438
  4023f2:	add    BYTE PTR [eax],al
  4023f4:	add    al,0x72
  4023f6:	cmp    eax,0x6f700001
  4023fb:	adc    eax,DWORD PTR [eax]
  4023fd:	add    BYTE PTR [edx],cl
  4023ff:	jb     0x40245c
  402401:	add    DWORD PTR [eax],eax
  402403:	jo     0x40242d
  402405:	sbb    BYTE PTR [eax],al
  402407:	add    BYTE PTR [edx],cl
  402409:	sub    BYTE PTR [esi],al
  40240b:	add    BYTE PTR [eax],al
  40240d:	push   es
  40240e:	add    al,BYTE PTR [esi]
  402410:	call   0x2806:0x628
  402417:	pop    ss
  402418:	add    BYTE PTR [eax],al
  40241a:	or     ch,BYTE PTR [eax]
  40241c:	push   es
  40241d:	add    BYTE PTR [eax],al
  40241f:	push   es
  402420:	sub    BYTE PTR [edi],al
  402422:	add    BYTE PTR [eax],al
  402424:	push   es
  402425:	sub    al,BYTE PTR [esi]
  402427:	pop    ss
  402428:	pop    eax
  402429:	or     al,BYTE PTR [esi]
  40242b:	add    cl,BYTE PTR [esi-0x177c097]
  402431:	(bad)  
  402432:	(bad)  
  402433:	jle    0x402476
  402435:	add    BYTE PTR [eax],al
  402437:	add    al,0x2c
  402439:	sub    edi,DWORD PTR [esi+0x42]
  40243c:	add    BYTE PTR [eax],al
  40243e:	add    al,0x2c
  402440:	and    al,0x7e
  402442:	inc    esi
  402443:	add    BYTE PTR [eax],al
  402445:	add    al,0x72
  402447:	pop    edi
  402448:	add    DWORD PTR [eax],eax
  40244a:	jo     0x4024bb
  40244c:	adc    eax,DWORD PTR [eax]
  40244e:	add    BYTE PTR [edx],cl
  402450:	sub    BYTE PTR [esi],al
  402452:	add    BYTE PTR [eax],al
  402454:	push   es
  402455:	sub    BYTE PTR [edi],dl
  402457:	add    BYTE PTR [eax],al
  402459:	or     ch,BYTE PTR [eax]
  40245b:	push   es
  40245c:	add    BYTE PTR [eax],al
  40245e:	push   es
  40245f:	sub    BYTE PTR [edi],al
  402461:	add    BYTE PTR [eax],al
  402463:	push   es
  402464:	sub    ch,BYTE PTR [eax]
  402466:	or     al,BYTE PTR [eax]
  402468:	add    BYTE PTR [esi],al
  40246a:	fidiv  WORD PTR [esi]
  40246c:	or     edi,DWORD PTR [esi+0x46]
  40246f:	add    BYTE PTR [eax],al
  402471:	add    al,0x72
  402473:	add    DWORD PTR [ecx],0x0
  402476:	jo     0x4024e7
  402478:	adc    eax,DWORD PTR [eax]
  40247a:	add    BYTE PTR [edx],cl
  40247c:	sub    BYTE PTR [esi],al
  40247e:	add    BYTE PTR [eax],al
  402480:	push   es
  402481:	sub    BYTE PTR [edi],dl
  402483:	add    BYTE PTR [eax],al
  402485:	or     ch,BYTE PTR [eax]
  402487:	push   es
  402488:	add    BYTE PTR [eax],al
  40248a:	push   es
  40248b:	pop    es
  40248c:	outs   dx,DWORD PTR ds:[esi]
  40248d:	sbb    al,0x0
  40248f:	add    BYTE PTR [edx],cl
  402491:	sub    BYTE PTR [esi],al
  402493:	add    BYTE PTR [eax],al
  402495:	push   es
  402496:	sub    BYTE PTR [edi],dl
  402498:	add    BYTE PTR [eax],al
  40249a:	or     ch,BYTE PTR [eax]
  40249c:	push   es
  40249d:	add    BYTE PTR [eax],al
  40249f:	push   es
  4024a0:	fiadd  WORD PTR [eax]
  4024a2:	sub    al,BYTE PTR [eax]
  4024a4:	add    DWORD PTR [eax],edx
  4024a6:	add    BYTE PTR [eax],al
  4024a8:	add    BYTE PTR [eax],al
  4024aa:	rol    DWORD PTR [ecx],0x7
  4024ad:	enter  0x3601,0x1d
  4024b1:	add    BYTE PTR [eax],al
  4024b3:	add    esi,edi
  4024b5:	jle    0x4024f9
  4024b7:	add    BYTE PTR [eax],al
  4024b9:	add    al,0x2c
  4024bb:	or     DWORD PTR [edi],ebx
  4024bd:	or     DWORD PTR [eax+0x4000045],eax
  4024c3:	sub    edx,DWORD PTR [esi]
  4024c5:	jle    0x402508
  4024c7:	add    BYTE PTR [eax],al
  4024c9:	add    al,0x2c
  4024cb:	or     DWORD PTR [edi],ebx
  4024cd:	adc    BYTE PTR [eax+0x4000045],al
  4024d3:	sub    eax,DWORD PTR [esi]
  4024d5:	pop    ss
  4024d6:	add    BYTE PTR [ebp+0x0],0x0
  4024da:	add    al,0x7e
  4024dc:	inc    ebx
  4024dd:	add    BYTE PTR [eax],al
  4024df:	add    al,0x2c
  4024e1:	add    eax,0xb28
  4024e6:	push   es
  4024e7:	jle    0x402529
  4024e9:	add    BYTE PTR [eax],al
  4024eb:	add    al,0x2c
  4024ed:	add    eax,0xc28
  4024f2:	push   es
  4024f3:	sub    cl,BYTE PTR [ebx]
  4024f5:	xor    BYTE PTR [edx],al
  4024f7:	add    BYTE PTR [esi],ch
  4024f9:	add    BYTE PTR [eax],al
  4024fb:	add    BYTE PTR [eax],al
  4024fd:	add    BYTE PTR [eax],al
  4024ff:	add    BYTE PTR [esi+0x45],bh
  402502:	add    BYTE PTR [eax],al
  402504:	add    al,0x28
  402506:	and    BYTE PTR [eax],al
  402508:	add    BYTE PTR [edx],cl
  40250a:	fisub  WORD PTR [ecx]
  40250c:	es jle 0x402555
  40250f:	add    BYTE PTR [eax],al
  402511:	add    al,0x72
  402513:	lahf   
  402514:	add    DWORD PTR [eax],eax
  402516:	jo     0x402587
  402518:	adc    eax,DWORD PTR [eax]
  40251a:	add    BYTE PTR [edx],cl
  40251c:	sub    BYTE PTR [esi],al
  40251e:	add    BYTE PTR [eax],al
  402520:	push   es
  402521:	sub    BYTE PTR [edi],dl
  402523:	add    BYTE PTR [eax],al
  402525:	or     ch,BYTE PTR [eax]
  402527:	push   es
  402528:	add    BYTE PTR [eax],al
  40252a:	push   es
  40252b:	fiadd  WORD PTR [eax]
  40252d:	sub    al,BYTE PTR [eax]
  40252f:	add    BYTE PTR [ecx],al
  402531:	adc    BYTE PTR [eax],al
  402533:	add    BYTE PTR [eax],al
  402535:	add    BYTE PTR [eax],al
  402537:	add    BYTE PTR [esp+ecx*1],cl
  40253a:	add    BYTE PTR [ecx],ah
  40253c:	add    DWORD PTR [eax],eax
  40253e:	add    BYTE PTR [ecx],al
  402540:	sbb    esi,DWORD PTR [eax]
  402542:	add    eax,DWORD PTR [eax]
  402544:	jb     0x402547
  402546:	add    BYTE PTR [eax],al
  402548:	add    eax,DWORD PTR [eax]
  40254a:	add    BYTE PTR [ecx],dl
  40254c:	jle    0x402593
  40254e:	add    BYTE PTR [eax],al
  402550:	add    al,0x28
  402552:	and    DWORD PTR [eax],eax
  402554:	add    BYTE PTR [edx],cl
  402556:	or     dl,BYTE PTR [esi]
  402558:	or     eax,0x15438
  40255d:	add    BYTE PTR [ecx],cl
  40255f:	pop    ss
  402560:	pop    eax
  402561:	or     eax,0x226f06
  402566:	add    BYTE PTR [edx],cl
  402568:	je     0x402588
  40256a:	add    BYTE PTR [eax],al
  40256c:	add    DWORD PTR [ebx],ecx
  40256e:	pop    es
  40256f:	outs   dx,DWORD PTR ds:[esi]
  402570:	and    eax,DWORD PTR [eax]
  402572:	add    BYTE PTR [edx],cl
  402574:	or     al,0x7e
  402576:	inc    esi
  402577:	add    BYTE PTR [eax],al
  402579:	add    al,0x72
  40257b:	mov    ecx,0x6f700001
  402580:	adc    eax,DWORD PTR [eax]
  402582:	add    BYTE PTR [edx],cl
  402584:	sub    BYTE PTR ds:0x12060000,al
  40258a:	add    ebp,DWORD PTR [eax]
  40258c:	push   ds
  40258d:	add    BYTE PTR [eax],al
  40258f:	or     ch,BYTE PTR [eax]
  402591:	and    al,0x0
  402593:	add    BYTE PTR [edx],cl
  402595:	sub    BYTE PTR ds:0x28060000,al
  40259b:	pop    ss
  40259c:	add    BYTE PTR [eax],al
  40259e:	or     ch,BYTE PTR [eax]
  4025a0:	add    eax,0x8060000
  4025a5:	pop    ds
  4025a6:	and    BYTE PTR [edi+0x2c],bl
  4025a9:	cmp    BYTE PTR [esi+0x46],bh
  4025ac:	add    BYTE PTR [eax],al
  4025ae:	add    al,0x72
  4025b0:	aad    0x1
  4025b2:	add    BYTE PTR [eax+0x6f],dh
  4025b5:	adc    eax,DWORD PTR [eax]
  4025b7:	add    BYTE PTR [edx],cl
  4025b9:	sub    BYTE PTR [edi],dl
  4025bb:	add    BYTE PTR [eax],al
  4025bd:	or     ch,BYTE PTR [eax]
  4025bf:	sbb    BYTE PTR [eax],al
  4025c1:	add    BYTE PTR [edx],cl
  4025c3:	sub    BYTE PTR ds:0x7060000,al
  4025c9:	outs   dx,DWORD PTR ds:[esi]
  4025ca:	and    eax,0x6f0a0000
  4025cf:	sbb    al,0x0
  4025d1:	add    BYTE PTR [edx],cl
  4025d3:	sub    BYTE PTR ds:0x28060000,al
  4025d9:	pop    ss
  4025da:	add    BYTE PTR [eax],al
  4025dc:	or     ch,BYTE PTR [eax]
  4025de:	add    eax,0x8060000
  4025e3:	sbb    BYTE PTR [edi+0x2c],bl
  4025e6:	cmp    BYTE PTR [esi+0x46],bh
  4025e9:	add    BYTE PTR [eax],al
  4025eb:	add    al,0x72
  4025ed:	in     eax,dx
  4025ee:	add    DWORD PTR [eax],eax
  4025f0:	jo     0x402661
  4025f2:	adc    eax,DWORD PTR [eax]
  4025f4:	add    BYTE PTR [edx],cl
  4025f6:	sub    BYTE PTR [edi],dl
  4025f8:	add    BYTE PTR [eax],al
  4025fa:	or     ch,BYTE PTR [eax]
  4025fc:	sbb    BYTE PTR [eax],al
  4025fe:	add    BYTE PTR [edx],cl
  402600:	sub    BYTE PTR ds:0x7060000,al
  402606:	outs   dx,DWORD PTR ds:[esi]
  402607:	add    BYTE PTR es:[eax],al
  40260a:	or     ch,BYTE PTR [edi+0x1c]
  40260d:	add    BYTE PTR [eax],al
  40260f:	or     ch,BYTE PTR [eax]
  402611:	add    eax,0x28060000
  402616:	pop    ss
  402617:	add    BYTE PTR [eax],al
  402619:	or     ch,BYTE PTR [eax]
  40261b:	add    eax,0x8060000
  402620:	sbb    bl,BYTE PTR [edi+0x2c]
  402623:	cmp    BYTE PTR [esi+0x46],bh
  402626:	add    BYTE PTR [eax],al
  402628:	add    al,0x72
  40262a:	sti    
  40262b:	add    DWORD PTR [eax],eax
  40262d:	jo     0x40269e
  40262f:	adc    eax,DWORD PTR [eax]
  402631:	add    BYTE PTR [edx],cl
  402633:	sub    BYTE PTR [edi],dl
  402635:	add    BYTE PTR [eax],al
  402637:	or     ch,BYTE PTR [eax]
  402639:	sbb    BYTE PTR [eax],al
  40263b:	add    BYTE PTR [edx],cl
  40263d:	sub    BYTE PTR ds:0x7060000,al
  402643:	outs   dx,DWORD PTR ds:[esi]
  402644:	daa    
  402645:	add    BYTE PTR [eax],al
  402647:	or     ch,BYTE PTR [edi+0x1c]
  40264a:	add    BYTE PTR [eax],al
  40264c:	or     ch,BYTE PTR [eax]
  40264e:	add    eax,0x28060000
  402653:	pop    ss
  402654:	add    BYTE PTR [eax],al
  402656:	or     ch,BYTE PTR [eax]
  402658:	add    eax,0x7e060000
  40265d:	inc    edx
  40265e:	add    BYTE PTR [eax],al
  402660:	add    al,0x2d
  402662:	inc    esi
  402663:	jb     0x402672
  402665:	add    al,BYTE PTR [eax]
  402667:	jo     0x4026e7
  402669:	inc    esi
  40266a:	add    BYTE PTR [eax],al
  40266c:	add    al,0x72
  40266e:	adc    DWORD PTR [edx],eax
  402670:	add    BYTE PTR [eax+0x6f],dh
  402673:	adc    eax,DWORD PTR [eax]
  402675:	add    BYTE PTR [edx],cl
  402677:	jb     0x4026d4
  402679:	add    DWORD PTR [eax],eax
  40267b:	jo     0x4026a5
  40267d:	sub    BYTE PTR [eax],al
  40267f:	add    BYTE PTR [edx],cl
  402681:	sub    BYTE PTR ds:0x7060000,al
  402687:	outs   dx,DWORD PTR ds:[esi]
  402688:	sub    DWORD PTR [eax],eax
  40268a:	add    BYTE PTR [edx],cl
  40268c:	adc    eax,DWORD PTR [edx+edx*1]
  40268f:	add    al,0x28
  402691:	push   ds
  402692:	add    BYTE PTR [eax],al
  402694:	or     ch,BYTE PTR [eax]
  402696:	sub    al,BYTE PTR [eax]
  402698:	add    BYTE PTR [edx],cl
  40269a:	sub    BYTE PTR ds:0x28060000,al
  4026a0:	pop    ss
  4026a1:	add    BYTE PTR [eax],al
  4026a3:	or     ch,BYTE PTR [eax]
  4026a5:	add    eax,0xde060000
  4026aa:	pop    es
  4026ab:	pop    es
  4026ac:	outs   dx,DWORD PTR ds:[esi]
  4026ad:	sub    eax,DWORD PTR [eax]
  4026af:	add    BYTE PTR [edx],cl
  4026b1:	fadd   QWORD PTR [esi]
  4026b3:	outs   dx,DWORD PTR ds:[esi]
  4026b4:	sub    al,0x0
  4026b6:	add    BYTE PTR [edx],cl
  4026b8:	cmp    ah,BYTE PTR [ecx+0x2afffffe]
  4026be:	add    BYTE PTR [eax],al
  4026c0:	inc    ecx
  4026c1:	sbb    al,0x0
  4026c3:	add    BYTE PTR [edx],al
  4026c5:	add    BYTE PTR [eax],al
  4026c7:	add    BYTE PTR [edx],ah
  4026c9:	add    BYTE PTR [eax],al
  4026cb:	add    BYTE PTR ds:0x5f000001,bh
  4026d1:	add    DWORD PTR [eax],eax
  4026d3:	add    BYTE PTR [edi],al
  4026d5:	add    BYTE PTR [eax],al
  4026d7:	add    BYTE PTR [eax],al
  4026d9:	add    BYTE PTR [eax],al
  4026db:	add    BYTE PTR [ebx],al
  4026dd:	xor    BYTE PTR [ebx],al
  4026df:	add    BYTE PTR ds:0x1,bh
  4026e5:	add    BYTE PTR [eax],al
  4026e7:	add    BYTE PTR [esi],dl
  4026e9:	cmp    BYTE PTR [edi],0x0
  4026ec:	add    BYTE PTR [esi+edx*1],al
  4026ef:	add    BYTE PTR [eax+0x0],0x0
  4026f3:	add    al,0x16
  4026f5:	add    BYTE PTR [ecx+0x0],0x0
  4026f9:	add    al,0x16
  4026fb:	add    BYTE PTR [edx+0x0],0x0
  4026ff:	add    al,0x16
  402701:	add    BYTE PTR [ebx+0x0],0x0
  402705:	add    al,0x16
  402707:	add    BYTE PTR [eax+eax*1+0x0],0x4
  40270c:	jb     0x402729
  40270e:	add    al,BYTE PTR [eax]
  402710:	jo     0x40273a
  402712:	adc    al,0x0
  402714:	add    BYTE PTR [edx],cl
  402716:	jae    0x40272d
  402718:	add    BYTE PTR [eax],al
  40271a:	or     al,BYTE PTR [eax+0x4000046]
  402720:	jle    0x402768
  402722:	add    BYTE PTR [eax],al
  402724:	add    al,0x72
  402726:	sub    eax,0x6f700002
  40272b:	adc    eax,DWORD PTR [eax]
  40272d:	add    BYTE PTR [edx],cl
  40272f:	add    BYTE PTR [edi+0x0],0x0
  402733:	add    al,0x7e
  402735:	inc    esi
  402736:	add    BYTE PTR [eax],al
  402738:	add    al,0x72
  40273a:	cmp    eax,0x6f700002
  40273f:	adc    eax,DWORD PTR [eax]
  402741:	add    BYTE PTR [edx],cl
  402743:	or     BYTE PTR [eax+0x0],0x0
  402747:	add    al,0x7e
  402749:	inc    esi
  40274a:	add    BYTE PTR [eax],al
  40274c:	add    al,0x72
  40274e:	dec    ebp
  40274f:	add    al,BYTE PTR [eax]
  402751:	jo     0x4027c2
  402753:	adc    eax,DWORD PTR [eax]
  402755:	add    BYTE PTR [edx],cl
  402757:	or     BYTE PTR [ecx+0x0],0x0
  40275b:	add    al,0x7e
  40275d:	inc    esi
  40275e:	add    BYTE PTR [eax],al
  402760:	add    al,0x72
  402762:	pop    ebp
  402763:	add    al,BYTE PTR [eax]
  402765:	jo     0x4027d6
  402767:	adc    eax,DWORD PTR [eax]
  402769:	add    BYTE PTR [edx],cl
  40276b:	or     BYTE PTR [edx+0x0],0x0
  40276f:	add    al,0x7e
  402771:	inc    esi
  402772:	add    BYTE PTR [eax],al
  402774:	add    al,0x72
  402776:	ins    DWORD PTR es:[edi],dx
  402777:	add    al,BYTE PTR [eax]
  402779:	jo     0x4027ea
  40277b:	adc    eax,DWORD PTR [eax]
  40277d:	add    BYTE PTR [edx],cl
  40277f:	or     BYTE PTR [ebx+0x0],0x0
  402783:	add    al,0x7e
  402785:	inc    esi
  402786:	add    BYTE PTR [eax],al
  402788:	add    al,0x72
  40278a:	jge    0x40278e
  40278c:	add    BYTE PTR [eax+0x6f],dh
  40278f:	adc    eax,DWORD PTR [eax]
  402791:	add    BYTE PTR [edx],cl
  402793:	or     BYTE PTR [eax+eax*1+0x0],0x4
  402798:	jle    0x4027e0
  40279a:	add    BYTE PTR [eax],al
  40279c:	add    al,0x72
  40279e:	lea    eax,[edx]
  4027a0:	add    BYTE PTR [eax+0x6f],dh
  4027a3:	adc    eax,DWORD PTR [eax]
  4027a5:	add    BYTE PTR [edx],cl
  4027a7:	or     BYTE PTR [ebp+0x0],0x0
  4027ab:	add    al,0x7e
  4027ad:	inc    esi
  4027ae:	add    BYTE PTR [eax],al
  4027b0:	add    al,0x72
  4027b2:	popf   
  4027b3:	add    al,BYTE PTR [eax]
  4027b5:	jo     0x402826
  4027b7:	adc    eax,DWORD PTR [eax]
  4027b9:	add    BYTE PTR [edx],cl
  4027bb:	or     BYTE PTR [esi+0x0],0x0
  4027bf:	add    al,0x7e
  4027c1:	inc    esi
  4027c2:	add    BYTE PTR [eax],al
  4027c4:	add    al,0x72
  4027c6:	stos   DWORD PTR es:[edi],eax
  4027c7:	add    al,BYTE PTR [eax]
  4027c9:	jo     0x40283a
  4027cb:	adc    eax,DWORD PTR [eax]
  4027cd:	add    BYTE PTR [edx],cl
  4027cf:	or     BYTE PTR [edi+0x0],0x0
  4027d3:	add    al,0x7e
  4027d5:	inc    esi
  4027d6:	add    BYTE PTR [eax],al
  4027d8:	add    al,0x72
  4027da:	mov    ecx,0x6f700002
  4027df:	adc    eax,DWORD PTR [eax]
  4027e1:	add    BYTE PTR [edx],cl
  4027e3:	adc    BYTE PTR [eax+0x0],0x0
  4027e7:	add    al,0x7e
  4027e9:	inc    esi
  4027ea:	add    BYTE PTR [eax],al
  4027ec:	add    al,0x72
  4027ee:	int    0x2
  4027f0:	add    BYTE PTR [eax+0x6f],dh
  4027f3:	adc    eax,DWORD PTR [eax]
  4027f5:	add    BYTE PTR [edx],cl
  4027f7:	adc    BYTE PTR [ecx+0x0],0x0
  4027fb:	add    al,0x7e
  4027fd:	inc    esi
  4027fe:	add    BYTE PTR [eax],al
  402800:	add    al,0x72
  402802:	loope  0x402806
  402804:	add    BYTE PTR [eax+0x6f],dh
  402807:	adc    eax,DWORD PTR [eax]
  402809:	add    BYTE PTR [edx],cl
  40280b:	adc    BYTE PTR [edx+0x0],0x0
  40280f:	add    al,0x7e
  402811:	inc    esi
  402812:	add    BYTE PTR [eax],al
  402814:	add    al,0x72
  402816:	repz add al,BYTE PTR [eax]
  402819:	jo     0x40288a
  40281b:	adc    eax,DWORD PTR [eax]
  40281d:	add    BYTE PTR [edx],cl
  40281f:	adc    BYTE PTR [ebx+0x0],0x0
  402823:	add    al,0x2a
  402825:	push   ds
  402826:	add    ch,BYTE PTR [eax]
  402828:	sub    eax,0x2a0a0000
  40282d:	add    BYTE PTR [eax],al
  40282f:	add    BYTE PTR [esi],dh
  402831:	pop    es
  402832:	add    BYTE PTR [eax],al
  402834:	into   
  402835:	retf   0xbeef
  402838:	add    DWORD PTR [eax],eax
  40283a:	add    BYTE PTR [eax],al
  40283c:	xchg   ecx,eax
  40283d:	add    BYTE PTR [eax],al
  40283f:	add    BYTE PTR [ebx+edx*2+0x79],ch
  402843:	jae    0x4028b9
  402845:	gs ins DWORD PTR es:[edi],dx
  402847:	cs push edx
  402849:	gs jae 0x4028bb
  40284c:	jne    0x4028c0
  40284e:	arpl   WORD PTR [ebp+0x73],sp
  402851:	cs push edx
  402853:	gs jae 0x4028c5
  402856:	jne    0x4028ca
  402858:	arpl   WORD PTR [ebp+0x52],sp
  40285b:	gs popa 
  40285d:	fs gs jb 0x40288d
  402861:	and    BYTE PTR [ebp+0x73],ch
  402864:	arpl   WORD PTR [edi+0x72],bp
  402867:	ins    BYTE PTR es:[edi],dx
  402868:	imul   esp,DWORD PTR [edx+0x2c],0x72655620
  40286f:	jae    0x4028da
  402871:	outs   dx,DWORD PTR ds:[esi]
  402872:	outs   dx,BYTE PTR ds:[esi]
  402873:	cmp    eax,0x2e302e32
  402878:	xor    BYTE PTR [esi],ch
  40287a:	xor    BYTE PTR [eax+eiz*1],ch
  40287d:	inc    ebx
  40287e:	jne    0x4028ec
  402880:	je     0x4028f7
  402882:	jb     0x4028e9
  402884:	cmp    eax,0x7475656e
  402889:	jb     0x4028ec
  40288b:	ins    BYTE PTR es:[edi],dx
  40288c:	sub    al,0x20
  40288e:	push   eax
  40288f:	jne    0x4028f3
  402891:	ins    BYTE PTR es:[edi],dx
  402892:	imul   esp,DWORD PTR [ebx+0x4b],0x6f547965
  402899:	imul   esp,DWORD PTR [ebp+0x6e],0x3d
  40289d:	bound  esi,QWORD PTR [edi]
  40289f:	aaa    
  4028a0:	popa   
  4028a1:	xor    eax,0x31363563
  4028a6:	cmp    DWORD PTR [ebx],esi
  4028a8:	xor    al,0x65
  4028aa:	xor    BYTE PTR [eax],bh
  4028ac:	cmp    DWORD PTR [ebx],esp
  4028ae:	push   ebx
  4028af:	jns    0x402924
  4028b1:	je     0x402918
  4028b3:	ins    DWORD PTR es:[edi],dx
  4028b4:	cs push edx
  4028b6:	gs jae 0x402928
  4028b9:	jne    0x40292d
  4028bb:	arpl   WORD PTR [ebp+0x73],sp
  4028be:	cs push edx
  4028c0:	jne    0x402930
  4028c2:	je     0x40292d
  4028c4:	ins    DWORD PTR es:[edi],dx
  4028c5:	gs push edx
  4028c7:	gs jae 0x402939
  4028ca:	jne    0x40293e
  4028cc:	arpl   WORD PTR [ebp+0x53],sp
  4028cf:	gs je  0x4028d4
  4028d2:	add    BYTE PTR [eax],al
  4028d4:	add    BYTE PTR [edi],bl
  4028d6:	add    BYTE PTR [eax],al
  4028d8:	add    BYTE PTR [eax],al
  4028da:	add    BYTE PTR [eax],al
  4028dc:	add    BYTE PTR [eax+0x41],dl
  4028df:	inc    esp
  4028e0:	push   eax
  4028e1:	inc    ecx
  4028e2:	inc    esp
  4028e3:	push   eax
  4028e4:	inc    ecx
  4028e5:	dec    ebx
  4028e6:	sahf   
  4028e7:	mov    ah,dh
  4028e9:	adc    bh,bh
  4028eb:	mov    BYTE PTR [eax+0x77],bh
  4028ee:	adc    cl,BYTE PTR [ecx-0x76ed8887]
  4028f4:	jp     0x40296d
  4028f6:	adc    cl,BYTE PTR [ecx-0x76ed8884]
  4028fc:	jge    0x402975
  4028fe:	adc    cl,BYTE PTR [ecx-0x76ed8882]
  402904:	jg     0x40297d
  402906:	adc    cl,BYTE PTR [ecx-0x6bb0be45]
  40290c:	movs   DWORD PTR es:[edi],DWORD PTR ds:[esi]
  40290d:	push   cs
  40290e:	xchg   ebp,eax
  40290f:	fwait
  402910:	jg     0x4028cb
  402912:	frstor [eax-0x53b3ed6f]
  402918:	adc    esp,ecx
  40291a:	out    0xae,eax
  40291c:	adc    cl,ah
  40291e:	out    0xae,eax
  402920:	adc    ecx,esp
  402922:	out    0xae,eax
  402924:	adc    al,0xcc
  402926:	out    0xae,eax
  402928:	adc    eax,0x16aee7cc
  40292d:	int3   
  40292e:	out    0xae,eax
  402930:	pop    ss
  402931:	int3   
  402932:	out    0xae,eax
  402934:	inc    esp
  402935:	xor    BYTE PTR [eax+edx*8],cl
  402938:	dec    esp
  402939:	(bad)  
  40293a:	cmp    eax,0x56be8810
  40293f:	sub    DWORD PTR [edx],ecx
  402941:	dec    ebp
  402942:	sar    BYTE PTR [edx],1
  402944:	cmp    BYTE PTR [edx],bh
  402946:	inc    edi
  402947:	inc    edx
  402948:	mov    cl,0x11
  40294a:	movs   BYTE PTR es:[edi],BYTE PTR ds:[esi]
  40294b:	dec    eax
  40294c:	mov    dl,0x11
  40294e:	movs   BYTE PTR es:[edi],BYTE PTR ds:[esi]
  40294f:	dec    eax
  402950:	jg     0x40290e
  402952:	mov    eax,0xbabdcc51
  402957:	push   ecx
  402958:	fwait
  402959:	and    al,0x2d
  40295b:	jae    0x40295d
  40295d:	sub    DWORD PTR [edx+0x2587c],ecx
  402963:	add    BYTE PTR [edx-0x9000000],bl
  402969:	add    DWORD PTR [eax],eax
  40296b:	add    BYTE PTR [edx],cl
  40296d:	add    al,BYTE PTR [eax]
  40296f:	add    BYTE PTR ds:0xab000002,bl
  402975:	add    DWORD PTR [eax],eax
  402977:	add    BYTE PTR [esi-0x2effffff],bh
  40297d:	add    DWORD PTR [eax],eax
  40297f:	add    ah,ah
  402981:	add    DWORD PTR [eax],eax
  402983:	add    BYTE PTR [ebx+0x2],ch
  402986:	add    BYTE PTR [eax],al
  402988:	bound  eax,QWORD PTR [eax]
  40298a:	add    BYTE PTR [eax],al
  40298c:	add    BYTE PTR [eax],al
  40298e:	add    BYTE PTR [eax],al
  402990:	add    al,BYTE PTR [ecx]
  402992:	add    BYTE PTR [eax],al
  402994:	and    eax,DWORD PTR [ecx]
  402996:	add    BYTE PTR [eax],al
  402998:	xor    al,0x1
  40299a:	add    BYTE PTR [eax],al
  40299c:	inc    ebp
  40299d:	add    DWORD PTR [eax],eax
  40299f:	add    BYTE PTR [esi+0x1],dl
  4029a2:	add    BYTE PTR [eax],al
  4029a4:	add    DWORD PTR [bx+si],eax
  4029a7:	add    BYTE PTR [eax+0x1],bh
  4029aa:	add    BYTE PTR [eax],al
  4029ac:	mov    DWORD PTR [ecx],eax
  4029ae:	add    BYTE PTR [eax],al
  4029b0:	mov    ecx,0x80000000
  4029b5:	add    al,BYTE PTR [eax]
  4029b7:	add    BYTE PTR [ebx+0x0],dh
  4029ba:	add    BYTE PTR [eax],al
  4029bc:	jecxz  0x4029be
  4029be:	add    BYTE PTR [eax],al
  4029c0:	inc    ecx
  4029c1:	add    al,BYTE PTR [eax]
  4029c3:	add    BYTE PTR [eax],dh
  4029c5:	add    BYTE PTR [eax],al
  4029c7:	add    BYTE PTR [ecx+0x0],cl
  4029ca:	add    BYTE PTR [eax],al
  4029cc:	xor    BYTE PTR [edx],al
  4029ce:	add    BYTE PTR [eax],al
  4029d0:	call   0x0:0x1b000001
  4029d7:	add    dh,dl
  4029d9:	add    BYTE PTR [eax],al
  4029db:	add    BYTE PTR [ebx+0x4],al
  4029de:	add    BYTE PTR [eax],al
  4029e0:	push   ss
  4029e1:	inc    ecx
  4029e2:	add    BYTE PTR [eax+0x0],dh
  4029e5:	jo     0x4029e7
  4029e7:	ins    BYTE PTR es:[edi],dx
  4029e8:	add    BYTE PTR [ecx+0x0],ch
  4029eb:	arpl   WORD PTR [eax],ax
  4029ed:	popa   
  4029ee:	add    BYTE PTR [eax+eax*1+0x69],dh
  4029f2:	add    BYTE PTR [edi+0x0],ch
  4029f5:	outs   dx,BYTE PTR ds:[esi]
  4029f6:	add    BYTE PTR [eax],al
  4029f8:	add    BYTE PTR [eax],al
  4029fa:	add    BYTE PTR [eax],dl
  4029fc:	inc    ecx
  4029fd:	add    BYTE PTR [ebx+0x0],dh
  402a00:	jae    0x402a02
  402a02:	add    BYTE PTR gs:[ebp+0x0],ch
  402a06:	bound  eax,QWORD PTR [eax]
  402a08:	ins    BYTE PTR es:[edi],dx
  402a09:	add    BYTE PTR [ecx+0x0],bh
  402a0c:	sldt   WORD PTR [eax]
  402a0f:	add    BYTE PTR [ebx+eax*2],dl
  402a12:	add    BYTE PTR [edi+0x0],ch
  402a15:	jo     0x402a17
  402a17:	jns    0x402a19
  402a19:	jb     0x402a1b
  402a1b:	imul   eax,DWORD PTR [eax],0x680067
  402a21:	je     0x402a23
  402a23:	xor    DWORD PTR [eax],eax
  402a25:	sbb    eax,DWORD PTR [eax]
  402a27:	add    BYTE PTR [eax],al
  402a29:	adc    al,0x43
  402a2b:	add    BYTE PTR [edi+0x0],ch
  402a2e:	jo     0x402a30
  402a30:	jns    0x402a32
  402a32:	jb     0x402a34
  402a34:	imul   eax,DWORD PTR [eax],0x680067
  402a3a:	je     0x402a3c
  402a3c:	xor    al,BYTE PTR [eax]
  402a3e:	inc    ebp
  402a3f:	add    BYTE PTR [eax],al
  402a41:	add    BYTE PTR [esp+eax*2],cl
  402a44:	add    BYTE PTR [edi+0x0],ch
  402a47:	ins    DWORD PTR es:[edi],dx
  402a48:	add    BYTE PTR [ecx+0x0],ah
  402a4b:	imul   eax,DWORD PTR [eax],0x8a006e
  402a51:	add    BYTE PTR [eax],al
  402a53:	and    cl,BYTE PTR [ecx+0x0]
  402a56:	outs   dx,BYTE PTR ds:[esi]
  402a57:	add    BYTE PTR [esi+0x0],dh
  402a5a:	popa   
  402a5b:	add    BYTE PTR [eax+eax*1+0x69],ch
  402a5f:	add    BYTE PTR [eax+eax*1+0x5f],ah
  402a63:	add    BYTE PTR [edi+0x0],cl
  402a66:	jo     0x402a68
  402a68:	je     0x402a6a
  402a6a:	imul   eax,DWORD PTR [eax],0x6e006f
  402a70:	pop    edi
  402a71:	add    BYTE PTR [edx+0x0],dl
  402a74:	dec    ebp
  402a75:	add    BYTE PTR [eax+eax*1+0x521a0000],dl
  402a7c:	add    BYTE PTR [ebp+0x0],ah
  402a7f:	arpl   WORD PTR [eax],ax
  402a81:	outs   dx,DWORD PTR ds:[esi]
  402a82:	add    BYTE PTR [edx+0x0],dh
  402a85:	add    BYTE PTR fs:[edi+0x0],bl
  402a89:	dec    esi
  402a8a:	add    BYTE PTR [ebp+0x0],dh
  402a8d:	ins    DWORD PTR es:[edi],dx
  402a8e:	add    BYTE PTR [edx+0x0],ah
  402a91:	add    BYTE PTR gs:[edx+0x0],dh
  402a95:	leave  
  402a96:	add    BYTE PTR [eax],al
  402a98:	add    BYTE PTR [eax],bl
  402a9a:	push   edx
  402a9b:	add    BYTE PTR [ebp+0x0],ah
  402a9e:	ins    DWORD PTR es:[edi],dx
  402a9f:	add    BYTE PTR [edi+0x0],ch
  402aa2:	jbe    0x402aa4
  402aa4:	add    BYTE PTR gs:[edi+0x0],bl
  402aa8:	inc    ebp
  402aa9:	add    BYTE PTR [edx+0x0],dh
  402aac:	jb     0x402aae
  402aae:	outs   dx,DWORD PTR ds:[esi]
  402aaf:	add    BYTE PTR [edx+0x0],dh
  402ab2:	rol    DWORD PTR [eax],cl
  402ab4:	add    BYTE PTR [eax],al
  402ab6:	or     BYTE PTR [ebx+0x0],dl
  402ab9:	imul   eax,DWORD PTR [eax],0x65007a
  402abf:	or     al,0x1
  402ac1:	add    BYTE PTR [eax],al
  402ac3:	sbb    dl,BYTE PTR [ebp+0x0]
  402ac6:	outs   dx,BYTE PTR ds:[esi]
  402ac7:	add    BYTE PTR [ebx+0x0],ch
  402aca:	outs   dx,BYTE PTR ds:[esi]
  402acb:	add    BYTE PTR [edi+0x0],ch
  402ace:	ja     0x402ad0
  402ad0:	outs   dx,BYTE PTR ds:[esi]
  402ad1:	add    BYTE PTR [edi+0x0],bl
  402ad4:	inc    ebp
  402ad5:	add    BYTE PTR [edx+0x0],dh
  402ad8:	jb     0x402ada
  402ada:	outs   dx,DWORD PTR ds:[esi]
  402adb:	add    BYTE PTR [edx+0x0],dh
  402ade:	adc    al,0x1
  402ae0:	add    BYTE PTR [eax],al
  402ae2:	sbb    al,0x55
  402ae4:	add    BYTE PTR [esi+0x0],ch
  402ae7:	imul   eax,DWORD PTR [eax],0x6e
  402aea:	add    BYTE PTR [edi+0x0],ch
  402aed:	ja     0x402aef
  402aef:	outs   dx,BYTE PTR ds:[esi]
  402af0:	add    BYTE PTR [edi+0x0],bl
  402af3:	dec    edi
  402af4:	add    BYTE PTR [eax+0x0],dh
  402af7:	je     0x402af9
  402af9:	imul   eax,DWORD PTR [eax],0x6e006f
  402aff:	and    eax,DWORD PTR [ecx]
  402b01:	add    BYTE PTR [eax],al
  402b03:	or     al,0x55
  402b05:	add    BYTE PTR [ebx+0x0],dh
  402b08:	popa   
  402b09:	add    BYTE PTR [edi+0x0],ah
  402b0c:	add    BYTE PTR gs:[ecx],dh
  402b0f:	add    BYTE PTR [ebx],dh
  402b11:	add    DWORD PTR [eax],eax
  402b13:	add    BYTE PTR [edx*2+0x61007300],cl
  402b1a:	add    BYTE PTR [edi+0x0],ah
  402b1d:	add    BYTE PTR gs:[edx],dh
  402b20:	add    BYTE PTR [edx+0x1],dl
  402b23:	add    BYTE PTR [eax],al
  402b25:	or     al,0x55
  402b27:	add    BYTE PTR [ebx+0x0],dh
  402b2a:	popa   
  402b2b:	add    BYTE PTR [edi+0x0],ah
  402b2e:	add    BYTE PTR gs:[ebx],dh
  402b31:	add    BYTE PTR [edi+0xc000001],cl
  402b37:	push   ebp
  402b38:	add    BYTE PTR [ebx+0x0],dh
  402b3b:	popa   
  402b3c:	add    BYTE PTR [edi+0x0],ah
  402b3f:	add    BYTE PTR gs:[eax+eax*1],dh
  402b43:	fadd   DWORD PTR [ecx]
  402b45:	add    BYTE PTR [eax],al
  402b47:	or     al,0x55
  402b49:	add    BYTE PTR [ebx+0x0],dh
  402b4c:	popa   
  402b4d:	add    BYTE PTR [edi+0x0],ah
  402b50:	add    BYTE PTR gs:0x22000,dh
  402b57:	add    BYTE PTR [edx*2+0x61007300],cl
  402b5e:	add    BYTE PTR [edi+0x0],ah
  402b61:	add    BYTE PTR gs:[esi],dh
  402b64:	add    BYTE PTR [esi+0x2],al
  402b67:	add    BYTE PTR [eax],al
  402b69:	or     al,0x55
  402b6b:	add    BYTE PTR [ebx+0x0],dh
  402b6e:	popa   
  402b6f:	add    BYTE PTR [edi+0x0],ah
  402b72:	add    BYTE PTR gs:[edi],dh
  402b75:	add    BYTE PTR [esi+0x2],dh
  402b78:	add    BYTE PTR [eax],al
  402b7a:	or     al,0x67
  402b7c:	add    BYTE PTR [edi+0x0],bl
  402b7f:	push   0x6c006500
  402b84:	add    BYTE PTR [eax+0x0],dh
  402b87:	pushf  
  402b88:	add    al,BYTE PTR [eax]
  402b8a:	add    BYTE PTR [esi],cl
  402b8c:	add    BYTE PTR [bx+0x0],bl
  402b90:	push   0x6c006500
  402b95:	add    BYTE PTR [eax+0x0],dh
  402b98:	xor    BYTE PTR [eax],al
  402b9a:	mov    ds:0xe000002,eax
  402b9f:	add    BYTE PTR [bx+0x0],bl
  402ba3:	push   0x6c006500
  402ba8:	add    BYTE PTR [eax+0x0],dh
  402bab:	xor    DWORD PTR [eax],eax
  402bad:	test   eax,0xe000002
  402bb2:	add    BYTE PTR [bx+0x0],bl
  402bb6:	push   0x6c006500
  402bbb:	add    BYTE PTR [eax+0x0],dh
  402bbe:	xor    al,BYTE PTR [eax]
  402bc0:	mov    al,0x2
  402bc2:	add    BYTE PTR [eax],al
  402bc4:	push   cs
  402bc5:	add    BYTE PTR [bx+0x0],bl
  402bc9:	push   0x6c006500
  402bce:	add    BYTE PTR [eax+0x0],dh
  402bd1:	xor    eax,DWORD PTR [eax]
  402bd3:	mov    bh,0x2
  402bd5:	add    BYTE PTR [eax],al
  402bd7:	push   cs
  402bd8:	add    BYTE PTR [bx+0x0],bl
  402bdc:	push   0x6c006500
  402be1:	add    BYTE PTR [eax+0x0],dh
  402be4:	xor    al,0x0
  402be6:	mov    ebx,0xe000002
  402beb:	add    BYTE PTR [bx+0x0],bl
  402bef:	push   0x6c006500
  402bf4:	add    BYTE PTR [eax+0x0],dh
  402bf7:	xor    eax,0x2bf00
  402bfc:	add    BYTE PTR [esi],cl
  402bfe:	add    BYTE PTR [bx+0x0],bl
  402c02:	push   0x6c006500
  402c07:	add    BYTE PTR [eax+0x0],dh
  402c0a:	ss add bl,al
  402c0d:	add    al,BYTE PTR [eax]
  402c0f:	add    BYTE PTR [edi+eiz*2],cl
  402c12:	add    BYTE PTR [edi+0x0],bl
  402c15:	ins    BYTE PTR es:[edi],dx
  402c16:	add    BYTE PTR [ecx+0x0],ch
  402c19:	jae    0x402c1b
  402c1b:	je     0x402c1d
  402c1d:	mov    DWORD PTR [edx],0x67120000
  402c23:	add    BYTE PTR [edi+0x0],bl
  402c26:	ins    DWORD PTR es:[edi],dx
  402c27:	add    BYTE PTR [ecx+0x0],ah
  402c2a:	arpl   WORD PTR [eax],ax
  402c2c:	push   0x6e006900
  402c31:	add    BYTE PTR [ebp+0x0],ah
  402c34:	into   
  402c35:	add    al,BYTE PTR [eax]
  402c37:	add    BYTE PTR [esi],cl
  402c39:	add    BYTE PTR [bx+0x0],bl
  402c3d:	jno    0x402c3f
  402c3f:	jne    0x402c41
  402c41:	imul   eax,DWORD PTR [eax],0x740065
  402c47:	fadd   DWORD PTR [edx]
  402c49:	add    BYTE PTR [eax],al
  402c4b:	adc    BYTE PTR [edi+0x0],ah
  402c4e:	pop    edi
  402c4f:	add    BYTE PTR [edx+0x0],dh
  402c52:	add    BYTE PTR gs:[ebp+0x0],ch
  402c56:	outs   dx,DWORD PTR ds:[esi]
  402c57:	add    BYTE PTR [esi+0x0],dh
  402c5a:	gs add al,ah
  402c5d:	add    al,BYTE PTR [eax]
  402c5f:	add    BYTE PTR [edx],dl
  402c61:	add    BYTE PTR [bx+0x0],bl
  402c65:	jb     0x402c67
  402c67:	outs   dx,DWORD PTR ds:[esi]
  402c68:	add    BYTE PTR [ecx+0x0],ah
  402c6b:	ins    DWORD PTR es:[edi],dx
  402c6c:	add    BYTE PTR [ecx+0x0],ch
  402c6f:	outs   dx,BYTE PTR ds:[esi]
  402c70:	add    BYTE PTR [edi+0x0],ah
  402c73:	jmp    0x1402c7a
  402c78:	or     eax,0x7070415b
  402c7d:	ins    BYTE PTR es:[edi],dx
  402c7e:	imul   esp,DWORD PTR [ebx+0x61],0x6e6f6974
  402c85:	pop    ebp
  402c86:	add    DWORD PTR [edx],ecx
  402c88:	pop    ebx
  402c89:	inc    ecx
  402c8a:	jae    0x402cff
  402c8c:	gs ins DWORD PTR es:[edi],dx
  402c8e:	bound  ebp,QWORD PTR [ecx+edi*2+0x5d]
  402c92:	add    DWORD PTR [eax],ebp
  402c94:	dec    ebp
  402c95:	imul   esp,DWORD PTR [ebx+0x72],0x666f736f
  402c9c:	je     0x402cbe
  402c9e:	sub    BYTE PTR [edx+0x29],dl
  402ca1:	and    BYTE PTR [esi],ch
  402ca3:	dec    esi
  402ca4:	inc    ebp
  402ca5:	push   esp
  402ca6:	and    BYTE PTR [esi+0x72],al
  402ca9:	popa   
  402caa:	ins    DWORD PTR es:[edi],dx
  402cab:	gs ja  0x402d1d
  402cae:	jb     0x402d1b
  402cb0:	and    BYTE PTR [ebx+0x74],dl
  402cb3:	outs   dx,DWORD PTR ds:[esi]
  402cb4:	jb     0x402d1b
  402cb6:	and    BYTE PTR [ecx+0x64],al
  402cb9:	ins    DWORD PTR es:[edi],dx
  402cba:	imul   ebp,DWORD PTR [esi+0x1],0x706f4343
  402cc1:	jns    0x402d35
  402cc3:	imul   esp,DWORD PTR [edi+0x68],0x43282074
  402cca:	sub    DWORD PTR [eax],esp
  402ccc:	dec    ebp
  402ccd:	imul   esp,DWORD PTR [ebx+0x72],0x666f736f
  402cd4:	je     0x402cf6
  402cd6:	inc    ebx
  402cd7:	outs   dx,DWORD PTR ds:[esi]
  402cd8:	jb     0x402d4a
  402cda:	outs   dx,DWORD PTR ds:[esi]
  402cdb:	jb     0x402d3e
  402cdd:	je     0x402d48
  402cdf:	outs   dx,DWORD PTR ds:[esi]
  402ce0:	outs   dx,BYTE PTR ds:[esi]
  402ce1:	and    BYTE PTR [ecx],dh
  402ce3:	cmp    DWORD PTR [ecx],edi
  402ce5:	cmp    BYTE PTR ds:0x31303032,ch
  402ceb:	and    BYTE PTR cs:[ecx+0x6c],al
  402cef:	ins    BYTE PTR es:[edi],dx
  402cf0:	and    BYTE PTR [edx+0x69],dh
  402cf3:	addr16 push 0x72207374
  402cf9:	gs jae 0x402d61
  402cfc:	jb     0x402d74
  402cfe:	gs fs add DWORD PTR cs:[eax],ecx
  402d03:	pop    ebx
  402d04:	inc    esp
  402d05:	outs   dx,DWORD PTR ds:[esi]
  402d06:	ins    DWORD PTR es:[edi],dx
  402d07:	popa   
  402d08:	imul   ebp,DWORD PTR [esi+0x5d],0x6f523301
  402d0f:	popa   
  402d10:	ins    DWORD PTR es:[edi],dx
  402d11:	imul   ebp,DWORD PTR [esi+0x67],0x646e6120
  402d18:	and    BYTE PTR [ebp+0x61],cl
  402d1b:	arpl   WORD PTR [eax+0x69],bp
  402d1e:	outs   dx,BYTE PTR ds:[esi]
  402d1f:	and    BYTE PTR gs:[edi+0x70],ch
  402d23:	je     0x402d8e
  402d25:	outs   dx,DWORD PTR ds:[esi]
  402d26:	outs   dx,BYTE PTR ds:[esi]
  402d27:	jae    0x402d49
  402d29:	popa   
  402d2a:	jb     0x402d91
  402d2c:	and    BYTE PTR [ebp+0x75],ch
  402d2f:	je     0x402da6
  402d31:	popa   
  402d32:	ins    BYTE PTR es:[edi],dx
  402d33:	ins    BYTE PTR es:[edi],dx
  402d34:	jns    0x402d56
  402d36:	gs js  0x402d9c
  402d39:	ins    BYTE PTR es:[edi],dx
  402d3a:	jne    0x402daf
  402d3c:	imul   esi,DWORD PTR [esi+0x65],0x5208012e
  402d43:	arpl   WORD PTR gs:[edi+0x72],bp
  402d47:	and    BYTE PTR fs:[ebx],ah
  402d4a:	add    DWORD PTR [edi],esi
  402d4c:	push   ebp
  402d4d:	outs   dx,BYTE PTR ds:[esi]
  402d4e:	popa   
  402d4f:	bound  ebp,QWORD PTR [ebp+eiz*2+0x20]
  402d53:	je     0x402dc4
  402d55:	and    BYTE PTR [ebp+eiz*2+0x6c],ah
  402d59:	gs je  0x402dc1
  402d5c:	and    BYTE PTR [ebx+0x6f],dh
  402d5f:	ins    DWORD PTR es:[edi],dx
  402d60:	and    BYTE PTR gs:[esi+0x69],ah
  402d64:	ins    BYTE PTR es:[edi],dx
  402d65:	gs jae 0x402d94
  402d68:	and    BYTE PTR [eax+ebp*2+0x65],dh
  402d6c:	and    BYTE PTR [ebx+0x74],dh
  402d6f:	outs   dx,DWORD PTR ds:[esi]
  402d70:	jb     0x402dd7
  402d72:	and    BYTE PTR [ebx+0x6f],ah
  402d75:	jne    0x402de3
  402d77:	and    BYTE PTR fs:[edx+0x65],ah
  402d7b:	and    BYTE PTR [ecx+0x6e],ch
  402d7e:	and    BYTE PTR [ebp+0x73],dh
  402d81:	gs add DWORD PTR cs:[esi],eax
  402d85:	push   ebx
  402d86:	imul   edi,DWORD PTR [edx+0x65],0xd013a20
  402d8d:	push   ebp
  402d8e:	outs   dx,BYTE PTR ds:[esi]
  402d8f:	imul   ebp,DWORD PTR [esi+0x6f],0x77
  402d93:	outs   dx,BYTE PTR ds:[esi]
  402d94:	and    BYTE PTR [ebp+0x72],al
  402d97:	jb     0x402e08
  402d99:	jb     0x402d9c
  402d9b:	push   cs
  402d9c:	push   ebp
  402d9d:	outs   dx,BYTE PTR ds:[esi]
  402d9e:	imul   ebp,DWORD PTR [esi+0x6f],0x77
  402da2:	outs   dx,BYTE PTR ds:[esi]
  402da3:	and    BYTE PTR [edi+0x70],cl
  402da6:	je     0x402e11
  402da8:	outs   dx,DWORD PTR ds:[esi]
  402da9:	outs   dx,BYTE PTR ds:[esi]
  402daa:	add    DWORD PTR ds:0x67617355,ebx
  402db0:	and    BYTE PTR gs:[eax],ah
  402db3:	and    BYTE PTR [eax],ah
  402db5:	cmp    ah,BYTE PTR [eax]
  402db7:	push   ebx
  402db8:	je     0x402e29
  402dba:	jb     0x402e21
  402dbc:	inc    ecx
  402dbd:	fs ins DWORD PTR es:[edi],dx
  402dbf:	and    BYTE PTR [ebx+0x6f],bl
  402dc2:	jo     0x402e38
  402dc4:	imul   ebp,DWORD PTR [edi+0x6e],0x3b015d73
  402dcb:	outs   dx,DWORD PTR ds:[esi]
  402dcc:	jo     0x402e42
  402dce:	imul   ebp,DWORD PTR [edi+0x6e],0x3a202073
  402dd5:	and    BYTE PTR [ebx+0x2f],bl
  402dd8:	dec    esp
  402dd9:	dec    ecx
  402dda:	push   ebx
  402ddb:	push   esp
  402ddc:	pop    ebp
  402ddd:	and    BYTE PTR [ebx+0x2f],bl
  402de0:	push   edx
  402de1:	inc    ebp
  402de2:	dec    ebp
  402de3:	dec    edi
  402de4:	push   esi
  402de5:	inc    ebp
  402de6:	pop    ebp
  402de7:	and    BYTE PTR [ebx+0x2f],bl
  402dea:	push   edx
  402deb:	dec    edi
  402dec:	inc    ecx
  402ded:	dec    ebp
  402dee:	dec    ecx
  402def:	dec    esi
  402df0:	inc    edi
  402df1:	and    BYTE PTR [eax+eiz*1+0x2f],bh
  402df5:	dec    ebp
  402df6:	inc    ecx
  402df7:	inc    ebx
  402df8:	dec    eax
  402df9:	dec    ecx
  402dfa:	dec    esi
  402dfb:	inc    ebp
  402dfc:	pop    ebp
  402dfd:	and    BYTE PTR [ebx+0x2f],bl
  402e00:	push   ecx
  402e01:	push   ebp
  402e02:	dec    ecx
  402e03:	inc    ebp
  402e04:	push   esp
  402e05:	pop    ebp
  402e06:	add    DWORD PTR [edi+0x2f],eax
  402e09:	dec    esp
  402e0a:	dec    ecx
  402e0b:	push   ebx
  402e0c:	push   esp
  402e0d:	and    BYTE PTR [eax],ah
  402e0f:	and    BYTE PTR [eax],ah
  402e11:	cmp    ah,BYTE PTR [eax]
  402e13:	inc    esp
  402e14:	imul   esi,DWORD PTR [ebx+0x70],0x7379616c
  402e1b:	and    BYTE PTR [eax+ebp*2+0x65],dh
  402e1f:	and    BYTE PTR [ebp+0x78],ah
  402e22:	imul   esi,DWORD PTR [ebx+0x74],0x20676e69
  402e29:	imul   esi,DWORD PTR [ebx+0x6f],0x6574616c
  402e30:	and    BYTE PTR fs:[ebx+0x74],dh
  402e34:	outs   dx,DWORD PTR ds:[esi]
  402e35:	jb     0x402e98
  402e37:	and    BYTE PTR gs:[bp+0x6f],ah
  402e3c:	jb     0x402e5e
  402e3e:	je     0x402ea8
  402e40:	and    BYTE PTR gs:[ebx+0x75],ah
  402e44:	jb     0x402eb8
  402e46:	outs   dx,BYTE PTR gs:[esi]
  402e48:	je     0x402e6a
  402e4a:	jne    0x402ebf
  402e4c:	gs jb  0x402e7d
  402e4f:	add    DWORD PTR [esi+0x2f],eax
  402e52:	push   edx
  402e53:	inc    ebp
  402e54:	dec    ebp
  402e55:	dec    edi
  402e56:	push   esi
  402e57:	inc    ebp
  402e58:	and    BYTE PTR [eax],ah
  402e5a:	cmp    ah,BYTE PTR [eax]
  402e5c:	push   edx
  402e5d:	gs ins DWORD PTR es:[edi],dx
  402e5f:	outs   dx,DWORD PTR ds:[esi]
  402e60:	jbe    0x402ec7
  402e62:	jae    0x402e84
  402e64:	popa   
  402e65:	ins    BYTE PTR es:[edi],dx
  402e66:	ins    BYTE PTR es:[edi],dx
  402e67:	and    BYTE PTR [ebp+0x78],ah
  402e6a:	imul   esi,DWORD PTR [ebx+0x74],0x20676e69
  402e71:	imul   esi,DWORD PTR [ebx+0x6f],0x6574616c
  402e78:	and    BYTE PTR fs:[ebx+0x74],dh
  402e7c:	outs   dx,DWORD PTR ds:[esi]
  402e7d:	jb     0x402ee0
  402e7f:	and    BYTE PTR gs:[bp+0x6f],ah
  402e84:	jb     0x402ea6
  402e86:	je     0x402ef0
  402e88:	and    BYTE PTR gs:[ebx+0x75],ah
  402e8c:	jb     0x402f00
  402e8e:	outs   dx,BYTE PTR gs:[esi]
  402e90:	je     0x402eb2
  402e92:	jne    0x402f07
  402e94:	gs jb  0x402ec5
  402e97:	add    DWORD PTR [edi+ebp*1],esp
  402e9a:	push   edx
  402e9b:	dec    edi
  402e9c:	inc    ecx
  402e9d:	dec    ebp
  402e9e:	dec    ecx
  402e9f:	dec    esi
  402ea0:	inc    edi
  402ea1:	and    BYTE PTR [edx],bh
  402ea3:	and    BYTE PTR [ebx+0x65],dl
  402ea6:	ins    BYTE PTR es:[edi],dx
  402ea7:	arpl   WORD PTR gs:[eax+eiz*1+0x74],si
  402eac:	push   0x6f722065
  402eb1:	popa   
  402eb2:	ins    DWORD PTR es:[edi],dx
  402eb3:	imul   ebp,DWORD PTR [esi+0x67],0x6f747320
  402eba:	jb     0x402f21
  402ebc:	add    DWORD PTR cs:[esi],ebp
  402ebf:	das    
  402ec0:	push   ecx
  402ec1:	push   ebp
  402ec2:	dec    ecx
  402ec3:	inc    ebp
  402ec4:	push   esp
  402ec5:	and    BYTE PTR [eax],ah
  402ec7:	and    BYTE PTR [edx],bh
  402ec9:	and    BYTE PTR [edi+0x6e],cl
  402ecc:	ins    BYTE PTR es:[edi],dx
  402ecd:	jns    0x402eef
  402ecf:	gs jb  0x402f44
  402ed2:	outs   dx,DWORD PTR ds:[esi]
  402ed3:	jb     0x402ef5
  402ed5:	ins    DWORD PTR es:[edi],dx
  402ed6:	gs jae 0x402f4c
  402ed9:	popa   
  402eda:	addr16 gs jae 0x402efe
  402ede:	ja     0x402f49
  402ee0:	ins    BYTE PTR es:[edi],dx
  402ee1:	ins    BYTE PTR es:[edi],dx
  402ee2:	and    BYTE PTR [edx+0x65],ah
  402ee5:	and    BYTE PTR [edi+0x75],ch
  402ee8:	je     0x402f5a
  402eea:	jne    0x402f60
  402eec:	add    DWORD PTR cs:[edi+ebp*1],esp
  402ef0:	dec    ebp
  402ef1:	inc    ecx
  402ef2:	inc    ebx
  402ef3:	dec    eax
  402ef4:	dec    ecx
  402ef5:	dec    esi
  402ef6:	inc    ebp
  402ef7:	and    BYTE PTR [edx],bh
  402ef9:	and    BYTE PTR [ebx+0x65],dl
  402efc:	ins    BYTE PTR es:[edi],dx
  402efd:	arpl   WORD PTR gs:[eax+eiz*1+0x74],si
  402f02:	push   0x616d2065
  402f07:	arpl   WORD PTR [eax+0x69],bp
  402f0a:	outs   dx,BYTE PTR ds:[esi]
  402f0b:	and    BYTE PTR gs:[ebx+0x74],dh
  402f0f:	outs   dx,DWORD PTR ds:[esi]
  402f10:	jb     0x402f77
  402f12:	add    DWORD PTR cs:0x4c45482f,eax
  402f19:	push   eax
  402f1a:	add    DWORD PTR [eax+ebp*2],eax
  402f1d:	gs ins BYTE PTR es:[edi],dx
  402f1f:	jo     0x402f22
  402f21:	add    eax,0x6c65682d
  402f26:	jo     0x402f29
  402f28:	add    eax,0x6c65682f
  402f2d:	jo     0x402f30
  402f2f:	add    ch,BYTE PTR [edi]
  402f31:	push   0x682d0201
  402f36:	add    DWORD PTR [edx],eax
  402f38:	das    
  402f39:	aas    
  402f3a:	add    DWORD PTR [edx],eax
  402f3c:	sub    eax,0x2f05013f
  402f41:	dec    esp
  402f42:	dec    ecx
  402f43:	push   ebx
  402f44:	push   esp
  402f45:	add    DWORD PTR [eax],ecx
  402f47:	das    
  402f48:	dec    ebp
  402f49:	inc    ecx
  402f4a:	inc    ebx
  402f4b:	dec    eax
  402f4c:	dec    ecx
  402f4d:	dec    esi
  402f4e:	inc    ebp
  402f4f:	add    DWORD PTR [esi],eax
  402f51:	das    
  402f52:	push   ecx
  402f53:	push   ebp
  402f54:	dec    ecx
  402f55:	inc    ebp
  402f56:	push   esp
  402f57:	add    DWORD PTR [edi],eax
  402f59:	das    
  402f5a:	push   edx
  402f5b:	inc    ebp
  402f5c:	dec    ebp
  402f5d:	dec    edi
  402f5e:	push   esi
  402f5f:	inc    ebp
  402f60:	add    DWORD PTR [eax],ecx
  402f62:	das    
  402f63:	push   edx
  402f64:	dec    edi
  402f65:	inc    ecx
  402f66:	dec    ebp
  402f67:	dec    ecx
  402f68:	dec    esi
  402f69:	inc    edi
  402f6a:	add    BYTE PTR [eax],al
  402f6c:	add    BYTE PTR [eax],al
  402f6e:	add    BYTE PTR [eax],al
  402f70:	ret    0x1
  402f73:	add    dh,cl
  402f75:	retf   0xbeef
  402f78:	add    DWORD PTR [eax],eax
  402f7a:	add    BYTE PTR [eax],al
  402f7c:	xchg   ecx,eax
  402f7d:	add    BYTE PTR [eax],al
  402f7f:	add    BYTE PTR [ebx+edx*2+0x79],ch
  402f83:	jae    0x402ff9
  402f85:	gs ins DWORD PTR es:[edi],dx
  402f87:	cs push edx
  402f89:	gs jae 0x402ffb
  402f8c:	jne    0x403000
  402f8e:	arpl   WORD PTR [ebp+0x73],sp
  402f91:	cs push edx
  402f93:	gs jae 0x403005
  402f96:	jne    0x40300a
  402f98:	arpl   WORD PTR [ebp+0x52],sp
  402f9b:	gs popa 
  402f9d:	fs gs jb 0x402fcd
  402fa1:	and    BYTE PTR [ebp+0x73],ch
  402fa4:	arpl   WORD PTR [edi+0x72],bp
  402fa7:	ins    BYTE PTR es:[edi],dx
  402fa8:	imul   esp,DWORD PTR [edx+0x2c],0x72655620
  402faf:	jae    0x40301a
  402fb1:	outs   dx,DWORD PTR ds:[esi]
  402fb2:	outs   dx,BYTE PTR ds:[esi]
  402fb3:	cmp    eax,0x2e302e32
  402fb8:	xor    BYTE PTR [esi],ch
  402fba:	xor    BYTE PTR [eax+eiz*1],ch
  402fbd:	inc    ebx
  402fbe:	jne    0x40302c
  402fc0:	je     0x403037
  402fc2:	jb     0x403029
  402fc4:	cmp    eax,0x7475656e
  402fc9:	jb     0x40302c
  402fcb:	ins    BYTE PTR es:[edi],dx
  402fcc:	sub    al,0x20
  402fce:	push   eax
  402fcf:	jne    0x403033
  402fd1:	ins    BYTE PTR es:[edi],dx
  402fd2:	imul   esp,DWORD PTR [ebx+0x4b],0x6f547965
  402fd9:	imul   esp,DWORD PTR [ebp+0x6e],0x3d
  402fdd:	bound  esi,QWORD PTR [edi]
  402fdf:	aaa    
  402fe0:	popa   
  402fe1:	xor    eax,0x31363563
  402fe6:	cmp    DWORD PTR [ebx],esi
  402fe8:	xor    al,0x65
  402fea:	xor    BYTE PTR [eax],bh
  402fec:	cmp    DWORD PTR [ebx],esp
  402fee:	push   ebx
  402fef:	jns    0x403064
  402ff1:	je     0x403058
  402ff3:	ins    DWORD PTR es:[edi],dx
  402ff4:	cs push edx
  402ff6:	gs jae 0x403068
  402ff9:	jne    0x40306d
  402ffb:	arpl   WORD PTR [ebp+0x73],sp
  402ffe:	cs push edx
  403000:	jne    0x403070
  403002:	je     0x40306d
  403004:	ins    DWORD PTR es:[edi],dx
  403005:	gs push edx
  403007:	gs jae 0x403079
  40300a:	jne    0x40307e
  40300c:	arpl   WORD PTR [ebp+0x53],sp
  40300f:	gs je  0x403014
  403012:	add    BYTE PTR [eax],al
  403014:	add    BYTE PTR [edx],al
  403016:	add    BYTE PTR [eax],al
  403018:	add    BYTE PTR [eax],al
  40301a:	add    BYTE PTR [eax],al
  40301c:	add    BYTE PTR [eax+0x41],dl
  40301f:	inc    esp
  403020:	push   eax
  403021:	inc    ecx
  403022:	inc    esp
  403023:	push   eax
  403024:	cmp    DWORD PTR [ebx+0x33092f78],ecx
  40302a:	adc    BYTE PTR [esi+0x4d],0x0
  40302e:	add    BYTE PTR [eax],al
  403030:	add    BYTE PTR [eax],al
  403032:	add    BYTE PTR [eax],al
  403034:	push   edx
  403035:	add    DWORD PTR [eax],eax
  403037:	add    BYTE PTR [eax+0x4d],cl
  40303a:	add    BYTE PTR [ecx+0x0],ch
  40303d:	arpl   WORD PTR [eax],ax
  40303f:	jb     0x403041
  403041:	outs   dx,DWORD PTR ds:[esi]
  403042:	add    BYTE PTR [ebx+0x0],dh
  403045:	outs   dx,DWORD PTR ds:[esi]
  403046:	add    BYTE PTR [esi+0x0],ah
  403049:	je     0x40304b
  40304b:	pop    edi
  40304c:	add    BYTE PTR [ebx+0x0],al
  40304f:	outs   dx,DWORD PTR ds:[esi]
  403050:	add    BYTE PTR [eax+0x0],dh
  403053:	jns    0x403055
  403055:	jb     0x403057
  403057:	imul   eax,DWORD PTR [eax],0x680067
  40305d:	je     0x40305f
  40305f:	pop    edi
  403060:	add    BYTE PTR [ebx+0x0],al
  403063:	outs   dx,DWORD PTR ds:[esi]
  403064:	add    BYTE PTR [ebp+0x0],ch
  403067:	ins    DWORD PTR es:[edi],dx
  403068:	add    BYTE PTR [ecx+0x0],ah
  40306b:	outs   dx,BYTE PTR ds:[esi]
  40306c:	add    BYTE PTR [eax+eax*1+0x4c],ah
  403070:	add    BYTE PTR [ecx+0x0],ch
  403073:	outs   dx,BYTE PTR ds:[esi]
  403074:	add    BYTE PTR [ebp+0x0],ah
  403077:	pop    edi
  403078:	add    BYTE PTR [eax+eax*1+0x6f],cl
  40307c:	add    BYTE PTR [edi+0x0],ah
  40307f:	outs   dx,DWORD PTR ds:[esi]
  403080:	add    BYTE PTR [eax],al
  403082:	add    BYTE PTR [eax],al
  403084:	add    BYTE PTR [edi+edx*2],bh
  403087:	add    BYTE PTR [ebx+0x0],al
  40308a:	inc    esi
  40308b:	add    BYTE PTR [edi+0x0],bl
  40308e:	push   esp
  40308f:	add    BYTE PTR [edx+0x0],dh
  403092:	popa   
  403093:	add    BYTE PTR [eax+eax*1+0x65],ah
  403097:	add    BYTE PTR [ebp+0x0],ch
  40309a:	popa   
  40309b:	add    BYTE PTR [edx+0x0],dh
  40309e:	imul   eax,DWORD PTR [eax],0x5f
  4030a1:	add    BYTE PTR [ebx+0x0],al
  4030a4:	outs   dx,DWORD PTR ds:[esi]
  4030a5:	add    BYTE PTR [ebp+0x0],ch
  4030a8:	ins    DWORD PTR es:[edi],dx
  4030a9:	add    BYTE PTR [ecx+0x0],ah
  4030ac:	outs   dx,BYTE PTR ds:[esi]
  4030ad:	add    BYTE PTR [eax+eax*1+0x4c],ah
  4030b1:	add    BYTE PTR [ecx+0x0],ch
  4030b4:	outs   dx,BYTE PTR ds:[esi]
  4030b5:	add    BYTE PTR [ebp+0x0],ah
  4030b8:	pop    edi
  4030b9:	add    BYTE PTR [eax+eax*1+0x6f],cl
  4030bd:	add    BYTE PTR [edi+0x0],ah
  4030c0:	outs   dx,DWORD PTR ds:[esi]
  4030c1:	add    BYTE PTR [eax+eax*1],bh
  4030c4:	add    BYTE PTR [eax],al
  4030c6:	add    DWORD PTR [edx],edi
  4030c8:	inc    ebx
  4030c9:	outs   dx,DWORD PTR ds:[esi]
  4030ca:	jo     0x403145
  4030cc:	jb     0x403137
  4030ce:	addr16 push 0x63282074
  4030d4:	sub    DWORD PTR [eax],esp
  4030d6:	dec    ebp
  4030d7:	imul   esp,DWORD PTR [ebx+0x72],0x666f736f
  4030de:	je     0x403100
  4030e0:	inc    ebx
  4030e1:	outs   dx,DWORD PTR ds:[esi]
  4030e2:	jb     0x403154
  4030e4:	outs   dx,DWORD PTR ds:[esi]
  4030e5:	jb     0x403148
  4030e7:	je     0x403152
  4030e9:	outs   dx,DWORD PTR ds:[esi]
  4030ea:	outs   dx,BYTE PTR ds:[esi]
  4030eb:	and    BYTE PTR cs:[eax],ah
  4030ee:	inc    ecx
  4030ef:	ins    BYTE PTR es:[edi],dx
  4030f0:	ins    BYTE PTR es:[edi],dx
  4030f1:	and    BYTE PTR [edx+0x69],dh
  4030f4:	addr16 push 0x72207374
  4030fa:	gs jae 0x403162
  4030fd:	jb     0x403175
  4030ff:	gs fs add DWORD PTR cs:[edx],esi
  403104:	dec    ebp
  403105:	imul   esp,DWORD PTR [ebx+0x72],0x666f736f
  40310c:	je     0x40312e
  40310e:	sub    BYTE PTR [edx+0x29],dl
  403111:	and    BYTE PTR [edi+0x69],dl
  403114:	outs   dx,BYTE PTR ds:[esi]
  403115:	outs   dx,DWORD PTR fs:[esi]
  403117:	ja     0x40318c
  403119:	and    BYTE PTR [eax],ch
  40311b:	push   edx
  40311c:	sub    DWORD PTR [eax],esp
  40311e:	inc    ebx
  40311f:	outs   dx,DWORD PTR ds:[esi]
  403120:	ins    DWORD PTR es:[edi],dx
  403121:	ins    DWORD PTR es:[edi],dx
  403122:	jne    0x403192
  403124:	imul   esp,DWORD PTR [ebx+0x61],0x6e6f6974
  40312b:	and    BYTE PTR [esi+0x6f],al
  40312e:	jne    0x40319e
  403130:	fs popa 
  403132:	je     0x40319d
  403134:	outs   dx,DWORD PTR ds:[esi]
  403135:	outs   dx,BYTE PTR ds:[esi]
  403136:	add    BYTE PTR [eax],al
  403138:	inc    edx
  403139:	push   ebx
  40313a:	dec    edx
  40313b:	inc    edx
  40313c:	add    DWORD PTR [eax],eax
  40313e:	add    DWORD PTR [eax],eax
  403140:	add    BYTE PTR [eax],al
  403142:	add    BYTE PTR [eax],al
  403144:	or     al,0x0
  403146:	add    BYTE PTR [eax],al
  403148:	jbe    0x40317c
  40314a:	xor    BYTE PTR cs:[esi],ch
  40314d:	xor    eax,0x37323730
  403152:	add    BYTE PTR [eax],al
  403154:	add    BYTE PTR [eax],al
  403156:	add    eax,0x6c00
  40315b:	add    BYTE PTR [edi+eax*1+0x7e230000],bh
  403162:	add    BYTE PTR [eax],al
  403164:	sub    BYTE PTR [eax],cl
  403166:	add    BYTE PTR [eax],al
  403168:	add    BYTE PTR [ebx],cl
  40316a:	add    BYTE PTR [eax],al
  40316c:	and    edx,DWORD PTR [ebx+0x74]
  40316f:	jb     0x4031da
  403171:	outs   dx,BYTE PTR ds:[esi]
  403172:	addr16 jae 0x403175
  403175:	add    BYTE PTR [eax],al
  403177:	add    BYTE PTR [eax],ch
  403179:	adc    eax,DWORD PTR [eax]
  40317b:	add    BYTE PTR [ebx+eax*1],al
  40317e:	add    BYTE PTR [eax],al
  403180:	and    edx,DWORD PTR [ebp+0x53]
  403183:	add    BYTE PTR [esi+edx*1],ch
  403186:	add    BYTE PTR [eax],al
  403188:	adc    BYTE PTR [eax],al
  40318a:	add    BYTE PTR [eax],al
  40318c:	and    eax,DWORD PTR [edi+0x55]
  40318f:	dec    ecx
  403190:	inc    esp
  403191:	add    BYTE PTR [eax],al
  403193:	add    BYTE PTR [esi+edx*1],bh
  403196:	add    BYTE PTR [eax],al
  403198:	mov    WORD PTR ds:0x42230000,fs
  40319e:	ins    BYTE PTR es:[edi],dx
  40319f:	outs   dx,DWORD PTR ds:[esi]
  4031a0:	bound  eax,QWORD PTR [eax]
  4031a2:	add    BYTE PTR [eax],al
  4031a4:	add    BYTE PTR [eax],al
  4031a6:	add    BYTE PTR [eax],al
  4031a8:	add    al,BYTE PTR [eax]
  4031aa:	add    BYTE PTR [ecx],al
  4031ac:	push   edi
  4031ad:	sbb    eax,0x10901a2
  4031b2:	add    BYTE PTR [eax],al
  4031b4:	add    dl,bh
  4031b6:	add    DWORD PTR [ebx],esi
  4031b8:	add    BYTE PTR [esi],dl
  4031ba:	add    BYTE PTR [eax],al
  4031bc:	add    DWORD PTR [eax],eax
  4031be:	add    BYTE PTR [eax],al
  4031c0:	and    eax,DWORD PTR [eax]
  4031c2:	add    BYTE PTR [eax],al
  4031c4:	or     BYTE PTR [eax],al
  4031c6:	add    BYTE PTR [eax],al
  4031c8:	push   ebx
  4031c9:	add    BYTE PTR [eax],al
  4031cb:	add    BYTE PTR [esi],cl
  4031cd:	add    BYTE PTR [eax],al
  4031cf:	add    BYTE PTR [eax+eax*1],al
  4031d2:	add    BYTE PTR [eax],al
  4031d4:	sub    eax,0x3d000000
  4031d9:	add    BYTE PTR [eax],al
  4031db:	add    BYTE PTR [ecx],dl
  4031dd:	add    BYTE PTR [eax],al
  4031df:	add    BYTE PTR [ebx],al
  4031e1:	add    BYTE PTR [eax],al
  4031e3:	add    BYTE PTR [ecx],al
  4031e5:	add    BYTE PTR [eax],al
  4031e7:	add    BYTE PTR [edx],al
  4031e9:	add    BYTE PTR [eax],al
  4031eb:	add    BYTE PTR [edx],al
  4031ed:	add    BYTE PTR [eax],al
  4031ef:	add    BYTE PTR [ecx],al
  4031f1:	add    BYTE PTR [eax],al
  4031f3:	add    BYTE PTR [ecx],al
  4031f5:	add    BYTE PTR [eax],al
  4031f7:	add    BYTE PTR [edx],al
  4031f9:	add    BYTE PTR [eax],al
  4031fb:	add    BYTE PTR [eax],al
  4031fd:	add    BYTE PTR [edx],cl
  4031ff:	add    BYTE PTR [ecx],al
  403201:	add    BYTE PTR [eax],al
  403203:	add    BYTE PTR [eax],al
  403205:	add    BYTE PTR [esi],al
  403207:	add    BYTE PTR [edi+0x0],bh
  40320a:	js     0x40320c
  40320c:	push   es
  40320d:	add    ch,bh
  40320f:	add    al,0xec
  403211:	add    al,0x6
  403213:	add    al,dl
  403215:	add    eax,0x605b6
  40321a:	retf   
  40321b:	push   es
  40321c:	lods   al,BYTE PTR ds:[esi]
  40321d:	push   es
  40321e:	push   es
  40321f:	add    bh,bl
  403221:	push   es
  403222:	js     0x403224
  403224:	push   es
  403225:	add    BYTE PTR [edi],al
  403227:	pop    es
  403228:	cmc    
  403229:	push   es
  40322a:	push   es
  40322b:	add    BYTE PTR [esi],bl
  40322d:	pop    es
  40322e:	cmc    
  40322f:	push   es
  403230:	push   es
  403231:	add    BYTE PTR [ebx],bh
  403233:	pop    es
  403234:	cmc    
  403235:	push   es
  403236:	push   es
  403237:	add    BYTE PTR [ecx+0x7],bl
  40323a:	cmc    
  40323b:	push   es
  40323c:	push   es
  40323d:	add    BYTE PTR [edx+0x7],dh
  403240:	cmc    
  403241:	push   es
  403242:	push   es
  403243:	add    BYTE PTR [ebx+0x606f507],cl
  403249:	add    BYTE PTR [esi+0x606f507],ah
  40324f:	add    BYTE PTR [edi+0x606f507],bh
  403255:	add    ah,bl
  403257:	pop    es
  403258:	cmc    
  403259:	push   es
  40325a:	push   es
  40325b:	add    BYTE PTR [edx],al
  40325d:	or     ah,ch
  40325f:	add    al,0x6
  403261:	add    BYTE PTR [eax+ecx*1],ah
  403264:	in     al,dx
  403265:	add    al,0x6
  403267:	add    BYTE PTR [esi+0x8],al
  40326a:	cmc    
  40326b:	push   es
  40326c:	push   es
  40326d:	add    BYTE PTR [ecx+0x8],ah
  403270:	cmc    
  403271:	push   es
  403272:	push   es
  403273:	add    BYTE PTR [ebp+0x4f087a08],cl
  403279:	add    BYTE PTR [ecx+0x6000008],ah
  40327f:	add    al,dl
  403281:	or     BYTE PTR [eax-0xffff9f8],dh
  403287:	or     BYTE PTR [eax+0x1e000608],dh
  40328d:	or     ebp,esi
  40328f:	push   es
  403290:	push   es
  403291:	add    BYTE PTR [ecx+ecx*1],bh
  403294:	js     0x403296
  403296:	push   es
  403297:	add    BYTE PTR [edx+0x9],cl
  40329a:	js     0x40329c
  40329c:	push   es
  40329d:	add    BYTE PTR [edx+0x9],ah
  4032a0:	js     0x4032a2
  4032a2:	push   es
  4032a3:	add    BYTE PTR [ecx+ecx*1+0x70],bh
  4032a7:	or     DWORD PTR [esi],eax
  4032a9:	add    BYTE PTR [ecx+0x609a409],bh
  4032af:	add    dl,ah
  4032b1:	or     DWORD PTR [eax+0x0],edi
  4032b4:	push   es
  4032b5:	add    ah,ch
  4032b7:	or     DWORD PTR [esi+0x13000605],esi
  4032bd:	or     al,BYTE PTR [eax]
  4032bf:	or     al,BYTE PTR [esi]
  4032c1:	add    BYTE PTR [ecx],bh
  4032c3:	or     dh,BYTE PTR [esi+0x53000605]
  4032c9:	or     bh,BYTE PTR [eax+0x0]
  4032cc:	push   es
  4032cd:	add    BYTE PTR [ecx+0xa],bl
  4032d0:	js     0x4032d2
  4032d2:	push   es
  4032d3:	add    BYTE PTR [ecx+0x780a],bh
  4032d9:	add    BYTE PTR [eax],al
  4032db:	add    BYTE PTR [ecx],al
  4032dd:	add    BYTE PTR [eax],al
  4032df:	add    BYTE PTR [eax],al
  4032e1:	add    BYTE PTR [ecx],al
  4032e3:	add    BYTE PTR [ecx],al
  4032e5:	add    BYTE PTR [eax+0x17001001],al
  4032eb:	add    BYTE PTR [eax],al
  4032ed:	add    BYTE PTR ds:0x1000100,al
  4032f3:	add    BYTE PTR [eax+0x24001001],al
  4032f9:	add    BYTE PTR [eax],al
  4032fb:	add    BYTE PTR ds:0x1000200,al
  403301:	add    BYTE PTR [eax+0x31001001],al
  403307:	add    BYTE PTR [eax],al
  403309:	add    BYTE PTR ds:0x1000300,al
  40330f:	add    BYTE PTR [eax+0x3c001001],al
  403315:	add    BYTE PTR [eax],al
  403317:	add    BYTE PTR ds:0x1000400,al
  40331d:	add    BYTE PTR [eax+0x49001001],al
  403323:	add    BYTE PTR [eax],al
  403325:	add    BYTE PTR ds:0x1000b00,al
  40332b:	add    BYTE PTR [eax+0x55001001],al
  403331:	add    BYTE PTR [eax],al
  403333:	add    BYTE PTR ds:0x1003e00,al
  403339:	add    BYTE PTR [eax],al
  40333b:	add    BYTE PTR [eax],dl
  40333d:	add    BYTE PTR [esi+0x0],ah
  403340:	add    BYTE PTR [eax],al
  403342:	add    eax,0x5003f00
  403347:	add    BYTE PTR [ebx-0x80],dl
  40334a:	xchg   BYTE PTR [eax],al
  40334c:	or     al,BYTE PTR [eax]
  40334e:	push   ebx
  40334f:	add    BYTE PTR [esi+0x53000a00],0x80
  403356:	xchg   BYTE PTR [eax],al
  403358:	or     al,BYTE PTR [eax]
  40335a:	push   ebx
  40335b:	or     BYTE PTR [esi+0x53000a00],0x80
  403362:	xchg   esp,eax
  403363:	add    BYTE PTR [edx],cl
  403365:	add    BYTE PTR [ebx-0x80],dl
  403368:	mov    al,ds:0x53000a00
  40336d:	sub    BYTE PTR [ebp+0x53000a00],0x80
  403374:	xchg   BYTE PTR [eax],al
  403376:	or     al,BYTE PTR [eax]
  403378:	push   ebx
  403379:	xor    BYTE PTR [edi+0x53000a00],0x80
  403380:	int3   
  403381:	add    BYTE PTR [eax-0x227fad00],bh
  403387:	add    BYTE PTR [edx],cl
  403389:	add    BYTE PTR [ebx-0x80],dl
  40338c:	jmp    0x40338e
  40338e:	or     al,BYTE PTR [eax]
  403390:	push   ebx
  403391:	cmp    dh,0x0
  403394:	or     al,BYTE PTR [eax]
  403396:	push   ebx
  403397:	adc    BYTE PTR [eax],0x1
  40339a:	or     al,BYTE PTR [eax]
  40339c:	push   ebx
  40339d:	sbb    BYTE PTR [ecx],0x1
  4033a0:	or     al,BYTE PTR [eax]
  4033a2:	push   ebx
  4033a3:	and    BYTE PTR [ecx+eax*1],0xa
  4033a7:	add    BYTE PTR [ebx-0x80],dl
  4033aa:	js     0x4033ac
  4033ac:	or     al,BYTE PTR [eax]
  4033ae:	push   ebx
  4033af:	cmp    BYTE PTR [ebx],0x1
  4033b2:	or     al,BYTE PTR [eax]
  4033b4:	push   ebx
  4033b5:	adc    BYTE PTR [ecx+0x1],0xa
  4033b9:	add    BYTE PTR [ebx-0x80],dl
  4033bc:	add    DWORD PTR fs:[edx],ecx
  4033bf:	add    BYTE PTR [ebx-0x80],dl
  4033c2:	outs   dx,BYTE PTR ds:[esi]
  4033c3:	add    DWORD PTR [edx],ecx
  4033c5:	add    BYTE PTR [ebx-0x80],dl
  4033c8:	add    DWORD PTR [ecx],0x8053000a
  4033ce:	cdq    
  4033cf:	add    DWORD PTR [edx],ecx
  4033d1:	add    BYTE PTR [ebx-0x80],dl
  4033d4:	mov    al,0x1
  4033d6:	or     al,BYTE PTR [eax]
  4033d8:	push   ebx
  4033d9:	add    bl,0x1
  4033dc:	or     al,BYTE PTR [eax]
  4033de:	push   ebx
  4033df:	sbb    bl,0x1
  4033e2:	or     al,BYTE PTR [eax]
  4033e4:	push   ebx
  4033e5:	xor    dl,0x1
  4033e8:	or     al,BYTE PTR [eax]
  4033ea:	push   ebx
  4033eb:	adc    BYTE PTR [esi],0x2
  4033ee:	or     al,BYTE PTR [eax]
  4033f0:	push   ebx
  4033f1:	sub    BYTE PTR [edx],0x2
  4033f4:	or     al,BYTE PTR [eax]
  4033f6:	push   ebx
  4033f7:	add    BYTE PTR [ebp+0x2],0xa
  4033fb:	add    BYTE PTR [ebx-0x80],dl
  4033fe:	push   esi
  4033ff:	add    cl,BYTE PTR [edx]
  403401:	add    BYTE PTR [ebx-0x80],dl
  403404:	arpl   WORD PTR [edx],ax
  403406:	or     al,BYTE PTR [eax]
  403408:	push   ebx
  403409:	cmp    BYTE PTR [ebx+0x2],0xa
  40340d:	add    BYTE PTR [ebx-0x80],dl
  403410:	pop    DWORD PTR [edx]
  403412:	or     al,BYTE PTR [eax]
  403414:	push   ebx
  403415:	sbb    BYTE PTR [ebp+0x53000a02],0x80
  40341c:	mov    dh,0x2
  40341e:	or     al,BYTE PTR [eax]
  403420:	push   ebx
  403421:	add    bh,0x2
  403424:	or     al,BYTE PTR [eax]
  403426:	push   ebx
  403427:	adc    bh,0x2
  40342a:	or     al,BYTE PTR [eax]
  40342c:	push   ebx
  40342d:	add    BYTE PTR [eax],0x3
  403430:	or     al,BYTE PTR [eax]
  403432:	push   ebx
  403433:	or     BYTE PTR [edi],0x3
  403436:	or     al,BYTE PTR [eax]
  403438:	push   ebx
  403439:	and    BYTE PTR [ebx+eax*1],0xa
  40343d:	add    BYTE PTR [ebx-0x80],dl
  403440:	add    ecx,DWORD PTR cs:[edx]
  403443:	add    BYTE PTR [ebx-0x80],dl
  403446:	inc    esp
  403447:	add    ecx,DWORD PTR [edx]
  403449:	add    BYTE PTR [ebx-0x80],dl
  40344c:	pop    ecx
  40344d:	add    ecx,DWORD PTR [edx]
  40344f:	add    BYTE PTR [ebx-0x80],dl
  403452:	je     0x403457
  403454:	or     al,BYTE PTR [eax]
  403456:	push   ebx
  403457:	or     BYTE PTR [edx+0x53000a03],0x80
  40345e:	sahf   
  40345f:	add    ecx,DWORD PTR [edx]
  403461:	add    BYTE PTR [ebx-0x80],dl
  403464:	mov    eax,0x53000a03
  403469:	or     al,0x3
  40346c:	or     al,BYTE PTR [eax]
  40346e:	push   ebx
  40346f:	and    ah,0x3
  403472:	or     al,BYTE PTR [eax]
  403474:	push   ebx
  403475:	xor    ch,0x3
  403478:	or     al,BYTE PTR [eax]
  40347a:	push   ebx
  40347b:	add    BYTE PTR [edi],0x4
  40347e:	or     al,BYTE PTR [eax]
  403480:	push   ebx
  403481:	sbb    BYTE PTR ds:0x53000a04,0x80
  403488:	aas    
  403489:	add    al,0xa
  40348b:	add    BYTE PTR [ebx-0x80],dl
  40348e:	push   ebx
  40348f:	add    al,0xa
  403491:	add    BYTE PTR [ebx-0x80],dl
  403494:	imul   eax,DWORD PTR [edx+ecx*1],0x0
  403498:	push   ebx
  403499:	add    BYTE PTR [ecx+0x53000a04],0x80
  4034a0:	xchg   ebp,eax
  4034a1:	add    al,0xa
  4034a3:	add    BYTE PTR [ebx-0x80],dl
  4034a6:	scas   al,BYTE PTR es:[edi]
  4034a7:	add    al,0xa
  4034a9:	add    BYTE PTR [ebx-0x80],dl
  4034ac:	rol    DWORD PTR [edx+ecx*1],0x0
  4034b0:	push   ebx
  4034b1:	sbb    bl,0x4
  4034b4:	or     al,BYTE PTR [eax]
  4034b6:	adc    DWORD PTR [eax],eax
  4034b8:	or     eax,0x11231d05
  4034bd:	add    BYTE PTR [ebp+eax*1+0x2e],bh
  4034c1:	and    edx,DWORD PTR [ecx]
  4034c3:	add    BYTE PTR [edx+0x11232e05],cl
  4034c9:	add    BYTE PTR [ecx+0x11232e05],dl
  4034cf:	add    BYTE PTR [ebx+0x11232e05],bl
  4034d5:	add    BYTE PTR [ebp+0x11232e05],ah
  4034db:	add    BYTE PTR [esi+0x11232e05],ch
  4034e1:	add    ch,ah
  4034e3:	add    eax,0x112331
  4034e8:	in     eax,dx
  4034e9:	add    eax,0x11231d
  4034ee:	test   BYTE PTR ds:0x11000a,0xfe
  4034f5:	add    eax,0x11000a
  4034fa:	push   es
  4034fb:	push   es
  4034fc:	or     al,BYTE PTR [eax]
  4034fe:	adc    DWORD PTR [eax],eax
  403500:	push   cs
  403501:	push   es
  403502:	or     al,BYTE PTR [eax]
  403504:	adc    DWORD PTR [eax],eax
  403506:	push   ss
  403507:	push   es
  403508:	or     al,BYTE PTR [eax]
  40350a:	adc    DWORD PTR [eax],eax
  40350c:	push   ds
  40350d:	push   es
  40350e:	or     al,BYTE PTR [eax]
  403510:	adc    DWORD PTR [eax],eax
  403512:	es push es
  403514:	or     al,BYTE PTR [eax]
  403516:	adc    DWORD PTR [eax],eax
  403518:	cs push es
  40351a:	or     al,BYTE PTR [eax]
  40351c:	adc    DWORD PTR [eax],eax
  40351e:	xor    eax,0x11000a06
  403523:	add    BYTE PTR [esi+eax*1],bh
  403526:	or     al,BYTE PTR [eax]
  403528:	adc    DWORD PTR [eax],eax
  40352a:	inc    esi
  40352b:	push   es
  40352c:	or     al,BYTE PTR [eax]
  40352e:	adc    DWORD PTR [eax],eax
  403530:	push   eax
  403531:	push   es
  403532:	or     al,BYTE PTR [eax]
  403534:	adc    DWORD PTR [eax],eax
  403536:	pop    ecx
  403537:	push   es
  403538:	or     al,BYTE PTR [eax]
  40353a:	shl    BYTE PTR [eax],1
  40353c:	add    BYTE PTR [eax],al
  40353e:	add    BYTE PTR [eax],al
  403540:	xchg   ebx,eax
  403541:	add    BYTE PTR [eax*1+0x12321],dl
  403548:	frstor [eax]
  40354a:	add    BYTE PTR [eax],al
  40354c:	add    BYTE PTR [eax],al
  40354e:	xchg   ebx,eax
  40354f:	or     BYTE PTR [esi],bl
  403551:	add    eax,0x22326
  403556:	jmp    0x40357b
  40355b:	add    BYTE PTR [ebx+0x26053608],dl
  403561:	and    eax,DWORD PTR [edx]
  403563:	add    ch,dh
  403565:	and    BYTE PTR [eax],al
  403567:	add    BYTE PTR [eax],al
  403569:	add    BYTE PTR [ecx+0x3a091718],dl
  40356f:	and    eax,DWORD PTR [edx]
  403571:	add    BYTE PTR [ebx],cl
  403573:	and    DWORD PTR [eax],eax
  403575:	add    BYTE PTR [eax],al
  403577:	add    BYTE PTR [ecx+0x35066100],dl
  40357d:	and    eax,DWORD PTR [edx]
  40357f:	add    BYTE PTR [eax],ah
  403581:	and    DWORD PTR [eax],eax
  403583:	add    BYTE PTR [eax],al
  403585:	add    BYTE PTR [ecx+0x35066700],dl
  40358b:	and    eax,DWORD PTR [ebx]
  40358d:	add    BYTE PTR [eax],dh
  40358f:	and    DWORD PTR [eax],eax
  403591:	add    BYTE PTR [eax],al
  403593:	add    BYTE PTR [ecx+0x3a067200],dl
  403599:	and    eax,DWORD PTR [eax+eax*1]
  40359c:	sbb    al,0x22
  40359e:	add    BYTE PTR [eax],al
  4035a0:	add    BYTE PTR [eax],al
  4035a2:	xchg   ecx,eax
  4035a3:	add    BYTE PTR [eax+0x6],bh
  4035a6:	cmp    ah,BYTE PTR [ebx]
  4035a8:	add    al,0x0
  4035aa:	cwde   
  4035ab:	and    al,BYTE PTR [eax]
  4035ad:	add    BYTE PTR [eax],al
  4035af:	add    BYTE PTR [ecx+0x3e068200],dl
  4035b5:	and    eax,DWORD PTR [eax+eax*1]
  4035b8:	mov    ah,0x24
  4035ba:	add    BYTE PTR [eax],al
  4035bc:	add    BYTE PTR [eax],al
  4035be:	xchg   ecx,eax
  4035bf:	add    BYTE PTR [edi+0x5233a06],al
  4035c5:	add    ah,dh
  4035c7:	and    al,0x0
  4035c9:	add    BYTE PTR [eax],al
  4035cb:	add    BYTE PTR [ecx+0x3a068f00],dl
  4035d1:	and    eax,DWORD PTR ds:0x254000
  4035d7:	add    BYTE PTR [eax],al
  4035d9:	add    BYTE PTR [ecx+0x3a069600],dl
  4035df:	and    eax,DWORD PTR ds:0x282500
  4035e5:	add    BYTE PTR [eax],al
  4035e7:	add    BYTE PTR [esi+0x44069b18],al
  4035ed:	and    eax,DWORD PTR ds:0x26dc00
  4035f3:	add    BYTE PTR [eax],al
  4035f5:	add    BYTE PTR [ecx+0x3a091718],dl
  4035fb:	and    eax,DWORD PTR ds:0x1000000
  403601:	add    BYTE PTR [ecx+0x1000006],ah
  403607:	add    BYTE PTR [esi+eax*1+0x10000],ah
  40360e:	movs   BYTE PTR es:[edi],BYTE PTR ds:[esi]
  40360f:	push   es
  403610:	add    BYTE PTR [eax],al
  403612:	add    DWORD PTR [eax],eax
  403614:	test   al,0x6
  403616:	and    DWORD PTR [eax],eax
  403618:	fwait
  403619:	push   es
  40361a:	dec    eax
  40361b:	and    ebp,DWORD PTR [ecx]
  40361d:	add    BYTE PTR [ebx+0x31234806],bl
  403623:	add    BYTE PTR [ebx+0x39234d06],bl
  403629:	add    BYTE PTR [ebx+0x41234d06],bl
  40362f:	add    BYTE PTR [ebx+0x49234d06],bl
  403635:	add    BYTE PTR [ebx+0x51234d06],bl
  40363b:	add    BYTE PTR [ebx+0x59234d06],bl
  403641:	add    BYTE PTR [ebx+0x61234d06],bl
  403647:	add    BYTE PTR [ebx+0x69234d06],bl
  40364d:	add    BYTE PTR [ebx+0x71234d06],bl
  403653:	add    BYTE PTR [ebx+0x79234d06],bl
  403659:	add    BYTE PTR [ebx-0x7edcb2fa],bl
  40365f:	add    BYTE PTR [ebx-0x76dcb2fa],bl
  403665:	add    BYTE PTR [ebx-0x6edcb7fa],bl
  40366b:	add    BYTE PTR [ebx-0x66dcb2fa],bl
  403671:	add    BYTE PTR [ebx-0x56dcadfa],bl
  403677:	add    BYTE PTR [ebx-0x4edca7fa],bl
  40367d:	add    BYTE PTR [ebx+0x11234406],bl
  403683:	add    BYTE PTR [eax*1+0xb923ff],dl
  40368a:	daa    
  40368b:	or     DWORD PTR [esp],eax
  40368e:	adc    DWORD PTR [eax],eax
  403690:	fwait
  403691:	push   es
  403692:	or     DWORD PTR [ecx+eax*8],esp
  403695:	add    BYTE PTR [ecx+ecx*1+0x35],al
  403699:	and    ecx,ecx
  40369b:	add    BYTE PTR [esi+0x9],dl
  40369e:	es and edx,ecx
  4036a1:	add    BYTE PTR [ecx+0x9],ch
  4036a4:	adc    BYTE PTR [ecx+ebx*8],ah
  4036a7:	add    BYTE PTR [ebx-0x2edcbbfa],bl
  4036ad:	add    BYTE PTR [ecx+0x9],ch
  4036b0:	push   ss
  4036b1:	and    al,0xd9
  4036b3:	add    BYTE PTR [edx+0x9241c09],cl
  4036b9:	add    BYTE PTR [ecx-0x3edbddf7],dl
  4036bf:	add    BYTE PTR [edx-0x1edccaf7],bl
  4036c5:	add    ch,al
  4036c7:	or     DWORD PTR ds:0xda00d124,ebp
  4036cd:	or     DWORD PTR [edx],esi
  4036cf:	and    al,0xf1
  4036d1:	add    BYTE PTR [edi-0xedbbefa],cl
  4036d7:	add    BYTE PTR [edi],bl
  4036d9:	or     al,BYTE PTR [edi+0x24]
  4036dc:	stc    
  4036dd:	add    BYTE PTR ds:0x1244e0a,ch
  4036e3:	add    DWORD PTR [ecx+0xa],ecx
  4036e6:	push   edx
  4036e7:	and    al,0x9
  4036e9:	add    DWORD PTR [ecx+0x1245709],edx
  4036ef:	add    DWORD PTR [ecx+0xa],ebp
  4036f2:	dec    esi
  4036f3:	and    al,0x1
  4036f5:	add    DWORD PTR [ecx+0x1244e0a],eax
  4036fb:	add    DWORD PTR [edx+ecx*1+0xd1244e],edx
  403702:	imul   ecx,DWORD PTR [ecx],0x101245e
  403708:	test   eax,0x1924650a
  40370d:	add    DWORD PTR [ecx-0xedba8f7],edx
  403713:	add    al,al
  403715:	or     al,BYTE PTR [ebx+eiz*1-0x7]
  403719:	add    dh,al
  40371b:	or     ch,BYTE PTR [ecx+0x24]
  40371e:	or     DWORD PTR [eax],eax
  403720:	fwait
  403721:	push   es
  403722:	inc    esp
  403723:	and    ecx,DWORD PTR [esi]
  403725:	add    BYTE PTR [eax+eax*1],al
  403728:	or     eax,0x8000e00
  40372d:	add    BYTE PTR [eax+eax*1],bl
  403730:	push   cs
  403731:	add    BYTE PTR [eax+eax*1],cl
  403734:	sbb    al,0x0
  403736:	push   cs
  403737:	add    BYTE PTR [eax],dl
  403739:	add    BYTE PTR [ebx],ch
  40373b:	add    BYTE PTR [esi],cl
  40373d:	add    BYTE PTR [eax+eax*1],dl
  403740:	sub    eax,DWORD PTR [eax]
  403742:	push   cs
  403743:	add    BYTE PTR [eax],bl
  403745:	add    BYTE PTR [ebx],ch
  403747:	add    BYTE PTR [esi],cl
  403749:	add    BYTE PTR [eax+eax*1],bl
  40374c:	inc    esp
  40374d:	add    BYTE PTR [esi],cl
  40374f:	add    BYTE PTR [eax],ah
  403751:	add    BYTE PTR [eax+eax*1],bl
  403754:	push   cs
  403755:	add    BYTE PTR [eax+eax*1],ah
  403758:	mov    eax,ds:0x28000800
  40375d:	add    BYTE PTR [ebx+0x2c000e00],bh
  403763:	add    al,al
  403765:	add    BYTE PTR [esi],cl
  403767:	add    BYTE PTR [eax],dh
  403769:	add    al,al
  40376b:	add    BYTE PTR [esi],cl
  40376d:	add    BYTE PTR [eax+eax*1],dh
  403770:	loope  0x403772
  403772:	push   cs
  403773:	add    BYTE PTR [eax],bh
  403775:	add    BYTE PTR [edx],ah
  403777:	add    DWORD PTR [esi],ecx
  403779:	add    BYTE PTR [eax+eax*1],bh
  40377c:	mov    edx,0x40000e01
  403781:	add    BYTE PTR [eax+0x2],bl
  403784:	push   cs
  403785:	add    BYTE PTR [eax+eax*1+0x10],al
  403789:	add    ecx,DWORD PTR [esi]
  40378b:	add    BYTE PTR [eax+0x0],cl
  40378e:	movs   BYTE PTR es:[edi],BYTE PTR ds:[esi]
  40378f:	add    ecx,DWORD PTR [esi]
  403791:	add    BYTE PTR [eax+eax*1+0x5a],cl
  403795:	add    al,0xe
  403797:	add    BYTE PTR [eax+0x0],dl
  40379a:	or     al,BYTE PTR ds:0x54000e
  4037a0:	cmps   BYTE PTR ds:[esi],BYTE PTR es:[edi]
  4037a1:	add    eax,0x58000e
  4037a6:	cmps   BYTE PTR ds:[esi],BYTE PTR es:[edi]
  4037a7:	add    eax,0x5c000e
  4037ac:	mov    DWORD PTR ds:0x60000e,0xe0849
  4037b6:	add    BYTE PTR fs:[ecx+0x8],cl
  4037ba:	push   cs
  4037bb:	add    BYTE PTR [eax+0x0],ch
  4037be:	push   0x8
  4037c0:	push   cs
  4037c1:	add    BYTE PTR [eax+eax*1-0x14],ch
  4037c5:	or     cl,BYTE PTR [esi]
  4037c7:	add    BYTE PTR [eax+0x0],dh
  4037ca:	mov    esi,0x74000e0b
  4037cf:	add    BYTE PTR [esi+0xc],ch
  4037d2:	push   cs
  4037d3:	add    BYTE PTR [eax+0x0],bh
  4037d6:	cs or  eax,0x7c000e
  4037dc:	fmul   DWORD PTR ds:0x80000e
  4037e2:	jp     0x4037f2
  4037e4:	push   cs
  4037e5:	add    BYTE PTR [eax+eax*1+0xe0f32],al
  4037ec:	mov    BYTE PTR [eax],al
  4037ee:	in     al,0xf
  4037f0:	push   cs
  4037f1:	add    BYTE PTR [eax+eax*1+0xe1088],cl
  4037f8:	nop
  4037f9:	add    BYTE PTR [edx+0x11],al
  4037fc:	push   cs
  4037fd:	add    BYTE PTR [eax+eax*1+0xe11ec],dl
  403804:	cwde   
  403805:	add    BYTE PTR [edx+edx*1+0x9c000e],dl
  40380c:	je     0x403821
  40380e:	push   cs
  40380f:	add    BYTE PTR [eax+0xe141a00],ah
  403815:	add    BYTE PTR [eax+eax*1+0xe14cc],ah
  40381c:	test   al,0x0
  40381e:	push   0xac000e15
  403823:	add    BYTE PTR [esi],bl
  403825:	push   ss
  403826:	push   cs
  403827:	add    BYTE PTR [eax+0xe16d200],dh
  40382d:	add    BYTE PTR [eax+eax*1+0xe1794],dh
  403834:	mov    eax,0xe184c00
  403839:	add    BYTE PTR [eax+eax*1+0xe18fe],bh
  403840:	rol    BYTE PTR [eax],0xbe
  403843:	sbb    DWORD PTR [esi],ecx
  403845:	add    ah,al
  403847:	add    BYTE PTR [eax+0x1a],ch
  40384a:	push   cs
  40384b:	add    al,cl
  40384d:	add    BYTE PTR [edx],ch
  40384f:	sbb    ecx,DWORD PTR [esi]
  403851:	add    ah,cl
  403853:	add    dh,dl
  403855:	sbb    ecx,DWORD PTR [esi]
  403857:	add    al,dl
  403859:	add    BYTE PTR [esp+ebx*1+0xd4000e],al
  403860:	cmp    BYTE PTR ds:0xd8000e,bl
  403866:	or     BYTE PTR [esi],bl
  403868:	push   cs
  403869:	add    ah,bl
  40386b:	add    BYTE PTR [esi-0x1ffff1e2],dh
  403871:	add    bh,dl
  403873:	push   ds
  403874:	push   cs
  403875:	add    ah,ah
  403877:	add    BYTE PTR [ebx-0x17fff1e1],cl
  40387d:	add    BYTE PTR [ebx],bh
  40387f:	and    BYTE PTR [esi],cl
  403881:	add    ah,ch
  403883:	add    bh,dh
  403885:	and    BYTE PTR [esi],cl
  403887:	add    al,dh
  403889:	add    BYTE PTR [ebp-0xbfff1df],dh
  40388f:	add    BYTE PTR [ebx+0x22],dh
  403892:	add    BYTE PTR cs:[ebx],cl
  403895:	add    BYTE PTR [eax+0x24],bh
  403898:	add    BYTE PTR cs:[ebx],dl
  40389b:	add    BYTE PTR [esi+0x24],bh
  40389e:	add    BYTE PTR cs:[ebx],bl
  4038a1:	add    BYTE PTR [esp+0x23002e],al
  4038a8:	test   BYTE PTR [esi+ebp*1],ah
  4038ab:	add    BYTE PTR [ebx],ch
  4038ad:	add    BYTE PTR [esp+0x33002e],al
  4038b4:	xchg   esi,eax
  4038b5:	and    al,0x2e
  4038b7:	add    BYTE PTR [ebx],bh
  4038b9:	add    BYTE PTR [ecx+0x43002e24],dh
  4038bf:	add    cl,dl
  4038c1:	and    al,0x2e
  4038c3:	add    BYTE PTR [ebx+0x0],dl
  4038c6:	push   es
  4038c7:	and    eax,0x5b002e
  4038cc:	push   es
  4038cd:	and    eax,0x63002e
  4038d2:	pop    ss
  4038d3:	and    eax,0x6b002e
  4038d8:	and    al,0x25
  4038da:	add    BYTE PTR cs:[ebx+0x0],dh
  4038de:	jle    0x403904
  4038e0:	add    BYTE PTR cs:[ebx+0x0],bh
  4038e4:	das    
  4038e5:	and    eax,0x83002e
  4038ea:	pop    edx
  4038eb:	and    eax,0x8b002e
  4038f0:	arpl   WORD PTR ds:0x93002e,sp
  4038f6:	ins    BYTE PTR es:[edi],dx
  4038f7:	and    eax,0x243b2426
  4038fc:	ins    DWORD PTR es:[edi],dx
  4038fd:	and    al,0x7
  4038ff:	add    BYTE PTR [ecx],al
  403901:	add    BYTE PTR [eax],al
  403903:	add    BYTE PTR [ecx+0x5],dl
  403906:	sub    ah,BYTE PTR [ebx]
  403908:	add    BYTE PTR [eax],al
  40390a:	gs add eax,0x2232a
  403910:	add    al,BYTE PTR [eax]
  403912:	add    eax,DWORD PTR [eax]
  403914:	add    al,BYTE PTR [eax]
  403916:	add    eax,DWORD PTR [eax]
  403918:	add    eax,0x800400
  40391d:	add    BYTE PTR [ebx],al
  40391f:	add    BYTE PTR ds:0x0,al
  403925:	add    BYTE PTR [ecx],al
  403927:	add    BYTE PTR [eax],al
  403929:	add    BYTE PTR [ebp+0x23],bl
  40392c:	push   cs
  40392d:	or     DWORD PTR [eax],eax
  40392f:	add    BYTE PTR [edx],al
	...
  403939:	add    BYTE PTR [eax],al
  40393b:	add    BYTE PTR [ecx],al
  40393d:	add    BYTE PTR [edi+0x0],ch
	...
  403948:	add    DWORD PTR [eax],eax
  40394a:	add    BYTE PTR [eax],al
  40394c:	iret   
  40394d:	or     al,BYTE PTR [eax]
  40394f:	add    BYTE PTR [eax+0x7],al
  403952:	add    BYTE PTR [eax],al
  403954:	add    DWORD PTR [eax],eax
  403956:	add    BYTE PTR [eax],al
  403958:	loop   0x403964
  40395a:	add    BYTE PTR [eax],al
  40395c:	add    BYTE PTR [eax],al
  40395e:	add    BYTE PTR [eax],al
  403960:	add    BYTE PTR [ecx*2+0x6c75646f],bh
  403967:	gs add BYTE PTR ds:[ebx+0x74],dh
  40396c:	outs   dx,DWORD PTR ds:[esi]
  40396d:	jb     0x4039d4
  40396f:	popa   
  403970:	fs ins DWORD PTR es:[edi],dx
  403972:	cs gs js 0x4039db
  403976:	add    BYTE PTR [esi+0x58],al
  403979:	xor    dh,BYTE PTR [eax]
  40397b:	inc    ecx
  40397c:	jae    0x4039f1
  40397e:	gs ins DWORD PTR es:[edi],dx
  403980:	bound  ebp,QWORD PTR [ecx+edi*2+0x0]
  403984:	inc    esi
  403985:	pop    eax
  403986:	xor    esi,DWORD PTR ds:0x65737341
  40398c:	ins    DWORD PTR es:[edi],dx
  40398d:	bound  ebp,QWORD PTR [ecx+edi*2+0x0]
  403991:	inc    esi
  403992:	pop    eax
  403993:	inc    ecx
  403994:	jae    0x403a09
  403996:	gs ins DWORD PTR es:[edi],dx
  403998:	bound  ebp,QWORD PTR [ecx+edi*2+0x0]
  40399c:	push   esp
  40399d:	push   0x73417369
  4039a2:	jae    0x403a09
  4039a4:	ins    DWORD PTR es:[edi],dx
  4039a5:	bound  ebp,QWORD PTR [ecx+edi*2+0x0]
  4039a9:	inc    ecx
  4039aa:	jae    0x403a1f
  4039ac:	gs ins DWORD PTR es:[edi],dx
  4039ae:	bound  ebp,QWORD PTR [ecx+edi*2+0x52]
  4039b2:	data16 add BYTE PTR gs:[ebx+0x6f],al
  4039b7:	ins    DWORD PTR es:[edi],dx
  4039b8:	ins    DWORD PTR es:[edi],dx
  4039b9:	outs   dx,DWORD PTR ds:[esi]
  4039ba:	outs   dx,BYTE PTR ds:[esi]
  4039bb:	push   edx
  4039bc:	gs jae 0x403a12
  4039bf:	je     0x403a33
  4039c1:	imul   ebp,DWORD PTR [esi+0x67],0x74530073
  4039c8:	outs   dx,DWORD PTR ds:[esi]
  4039c9:	jb     0x403a30
  4039cb:	inc    ecx
  4039cc:	fs ins DWORD PTR es:[edi],dx
  4039ce:	add    BYTE PTR [ebp+0x73],ch
  4039d1:	arpl   WORD PTR [edi+0x72],bp
  4039d4:	ins    BYTE PTR es:[edi],dx
  4039d5:	imul   esp,DWORD PTR [edx+0x0],0x74737953
  4039dc:	gs ins DWORD PTR es:[edi],dx
  4039de:	add    BYTE PTR [edi+0x62],cl
  4039e1:	push   0x65
  4039e3:	arpl   WORD PTR [eax+eax*1+0x56],si
  4039e7:	gs jb  0x403a5d
  4039ea:	imul   ebp,DWORD PTR [edi+0x6e],0x74695400
  4039f1:	ins    BYTE PTR es:[edi],dx
  4039f2:	add    BYTE PTR gs:[ebp+eiz*2+0x73],al
  4039f7:	arpl   WORD PTR [edx+0x69],si
  4039fa:	jo     0x403a70
  4039fc:	imul   ebp,DWORD PTR [edi+0x6e],0x66654400
  403a03:	popa   
  403a04:	jne    0x403a72
  403a06:	je     0x403a49
  403a08:	ins    BYTE PTR es:[edi],dx
  403a09:	imul   esp,DWORD PTR [ecx+0x73],0x706f4300
  403a10:	jns    0x403a84
  403a12:	imul   esp,DWORD PTR [edi+0x68],0x6e490074
  403a19:	outs   dx,WORD PTR ds:[esi]
  403a1b:	jb     0x403a8a
  403a1d:	popa   
  403a1e:	je     0x403a89
  403a20:	outs   dx,DWORD PTR ds:[esi]
  403a21:	outs   dx,BYTE PTR ds:[esi]
  403a22:	popa   
  403a23:	ins    BYTE PTR es:[edi],dx
  403a24:	push   esi
  403a25:	gs jb  0x403a9b
  403a28:	imul   ebp,DWORD PTR [edi+0x6e],0x69614400
  403a2f:	ins    BYTE PTR es:[edi],dx
  403a30:	jns    0x403a74
  403a32:	jne    0x403a9d
  403a34:	ins    BYTE PTR es:[edi],dx
  403a35:	fs dec esi
  403a37:	jne    0x403aa6
  403a39:	bound  esp,QWORD PTR [ebp+0x72]
  403a3c:	add    BYTE PTR [ebp+0x63],al
  403a3f:	ins    DWORD PTR es:[edi],dx
  403a40:	popa   
  403a41:	push   eax
  403a42:	jne    0x403aa6
  403a44:	ins    BYTE PTR es:[edi],dx
  403a45:	imul   esp,DWORD PTR [ebx+0x4b],0x45007965
  403a4c:	arpl   WORD PTR [ebp+0x61],bp
  403a4f:	push   eax
  403a50:	jne    0x403ab4
  403a52:	ins    BYTE PTR es:[edi],dx
  403a53:	imul   esp,DWORD PTR [ebx+0x4b],0x6f547965
  403a5a:	imul   esp,DWORD PTR [ebp+0x6e],0x0
  403a5e:	inc    ebp
  403a5f:	arpl   WORD PTR [ebp+0x61],bp
  403a62:	push   eax
  403a63:	jne    0x403ac7
  403a65:	ins    BYTE PTR es:[edi],dx
  403a66:	imul   esp,DWORD PTR [ebx+0x4b],0x75467965
  403a6d:	ins    BYTE PTR es:[edi],dx
  403a6e:	ins    BYTE PTR es:[edi],dx
  403a6f:	add    BYTE PTR [ebp+0x73],cl
  403a72:	arpl   WORD PTR [edi+0x72],bp
  403a75:	ins    BYTE PTR es:[edi],dx
  403a76:	imul   esp,DWORD PTR [edx+0x0],0x74737953
  403a7d:	gs ins DWORD PTR es:[edi],dx
  403a7f:	inc    esp
  403a80:	popa   
  403a81:	je     0x403ae4
  403a83:	add    BYTE PTR [ebx+0x79],dl
  403a86:	jae    0x403afc
  403a88:	gs ins DWORD PTR es:[edi],dx
  403a8a:	inc    esp
  403a8b:	popa   
  403a8c:	je     0x403aef
  403a8e:	dec    edi
  403a8f:	jb     0x403af2
  403a91:	arpl   WORD PTR [ebp+eiz*2+0x43],bp
  403a95:	ins    BYTE PTR es:[edi],dx
  403a96:	imul   esp,DWORD PTR [ebp+0x6e],0x79530074
  403a9d:	jae    0x403b13
  403a9f:	gs ins DWORD PTR es:[edi],dx
  403aa1:	push   edx
  403aa2:	jne    0x403b12
  403aa4:	je     0x403b0f
  403aa6:	ins    DWORD PTR es:[edi],dx
  403aa7:	gs push edx
  403aa9:	gs ins DWORD PTR es:[edi],dx
  403aab:	outs   dx,DWORD PTR ds:[esi]
  403aac:	je     0x403b17
  403aae:	outs   dx,BYTE PTR ds:[esi]
  403aaf:	add    BYTE PTR [bp+di+0x79],dl
  403ab3:	jae    0x403b29
  403ab5:	gs ins DWORD PTR es:[edi],dx
  403ab7:	push   edi
  403ab8:	imul   ebp,DWORD PTR [esi+0x64],0x4673776f
  403abf:	outs   dx,DWORD PTR ds:[esi]
  403ac0:	jb     0x403b2f
  403ac2:	jae    0x403ac4
  403ac4:	push   ebx
  403ac5:	jns    0x403b3a
  403ac7:	je     0x403b2e
  403ac9:	ins    DWORD PTR es:[edi],dx
  403aca:	pop    eax
  403acb:	ins    DWORD PTR es:[edi],dx
  403acc:	ins    BYTE PTR es:[edi],dx
  403acd:	add    BYTE PTR [ebp+0x69],cl
  403ad0:	arpl   WORD PTR [edx+0x6f],si
  403ad3:	jae    0x403b44
  403ad5:	data16 je 0x403b28
  403ad8:	jne    0x403b3c
  403ada:	ins    BYTE PTR es:[edi],dx
  403adb:	imul   esp,DWORD PTR [ebx+0x4b],0x4d007965
  403ae2:	imul   esp,DWORD PTR [ebx+0x72],0x666f736f
  403ae9:	je     0x403b3b
  403aeb:	jne    0x403b4f
  403aed:	ins    BYTE PTR es:[edi],dx
  403aee:	imul   esp,DWORD PTR [ebx+0x4b],0x6f547965
  403af5:	imul   esp,DWORD PTR [ebp+0x6e],0x0
  403af9:	dec    ebp
  403afa:	imul   esp,DWORD PTR [ebx+0x72],0x666f736f
  403b01:	je     0x403b53
  403b03:	jne    0x403b67
  403b05:	ins    BYTE PTR es:[edi],dx
  403b06:	imul   esp,DWORD PTR [ebx+0x4b],0x75467965
  403b0d:	ins    BYTE PTR es:[edi],dx
  403b0e:	ins    BYTE PTR es:[edi],dx
  403b0f:	add    BYTE PTR [ebx+0x68],dl
  403b12:	popa   
  403b13:	jb     0x403b7a
  403b15:	fs dec esp
  403b17:	imul   esp,DWORD PTR [edx+0x50],0x696c6275
  403b1e:	arpl   WORD PTR [ebx+0x65],cx
  403b21:	jns    0x403b23
  403b23:	push   ebx
  403b24:	push   0x64657261
  403b29:	dec    esp
  403b2a:	imul   esp,DWORD PTR [edx+0x50],0x696c6275
  403b31:	arpl   WORD PTR [ebx+0x65],cx
  403b34:	jns    0x403b8a
  403b36:	outs   dx,DWORD PTR ds:[esi]
  403b37:	imul   esp,DWORD PTR [ebp+0x6e],0x0
  403b3b:	push   ebx
  403b3c:	push   0x64657261
  403b41:	dec    esp
  403b42:	imul   esp,DWORD PTR [edx+0x50],0x696c6275
  403b49:	arpl   WORD PTR [ebx+0x65],cx
  403b4c:	jns    0x403b94
  403b4e:	jne    0x403bbc
  403b50:	ins    BYTE PTR es:[edi],dx
  403b51:	add    BYTE PTR [ebx+0x79],dl
  403b54:	jae    0x403bca
  403b56:	gs ins DWORD PTR es:[edi],dx
  403b58:	inc    ebx
  403b59:	outs   dx,DWORD PTR ds:[esi]
  403b5a:	ins    DWORD PTR es:[edi],dx
  403b5b:	jo     0x403bcc
  403b5d:	outs   dx,BYTE PTR ds:[esi]
  403b5e:	outs   dx,BYTE PTR gs:[esi]
  403b60:	je     0x403baf
  403b62:	outs   dx,DWORD PTR ds:[esi]
  403b63:	fs gs ins BYTE PTR es:[edi],dx
  403b66:	inc    esp
  403b67:	popa   
  403b68:	je     0x403bcb
  403b6a:	inc    ecx
  403b6b:	outs   dx,BYTE PTR ds:[esi]
  403b6c:	outs   dx,BYTE PTR ds:[esi]
  403b6d:	outs   dx,DWORD PTR ds:[esi]
  403b6e:	je     0x403bd1
  403b70:	je     0x403bdb
  403b72:	outs   dx,DWORD PTR ds:[esi]
  403b73:	outs   dx,BYTE PTR ds:[esi]
  403b74:	jae    0x403b76
  403b76:	push   ebx
  403b77:	jns    0x403bec
  403b79:	je     0x403be0
  403b7b:	ins    DWORD PTR es:[edi],dx
  403b7c:	inc    ebx
  403b7d:	outs   dx,DWORD PTR ds:[esi]
  403b7e:	outs   dx,BYTE PTR ds:[esi]
  403b7f:	imul   sp,WORD PTR [edi+0x75],0x6172
  403b85:	je     0x403bf0
  403b87:	outs   dx,DWORD PTR ds:[esi]
  403b88:	outs   dx,BYTE PTR ds:[esi]
  403b89:	add    BYTE PTR [ebx+0x79],dl
  403b8c:	jae    0x403c02
  403b8e:	gs ins DWORD PTR es:[edi],dx
  403b90:	inc    ebx
  403b91:	outs   dx,DWORD PTR ds:[esi]
  403b92:	outs   dx,BYTE PTR ds:[esi]
  403b93:	imul   sp,WORD PTR [edi+0x75],0x6172
  403b99:	je     0x403c04
  403b9b:	outs   dx,DWORD PTR ds:[esi]
  403b9c:	outs   dx,BYTE PTR ds:[esi]
  403b9d:	dec    ecx
  403b9e:	outs   dx,BYTE PTR ds:[esi]
  403b9f:	jae    0x403c15
  403ba1:	popa   
  403ba2:	ins    BYTE PTR es:[edi],dx
  403ba3:	ins    BYTE PTR es:[edi],dx
  403ba4:	add    BYTE PTR [ebx+0x79],dl
  403ba7:	jae    0x403c1d
  403ba9:	gs ins DWORD PTR es:[edi],dx
  403bab:	inc    esp
  403bac:	gs jo  0x403c1b
  403baf:	outs   dx,DWORD PTR ds:[esi]
  403bb0:	jns    0x403c1f
  403bb2:	outs   dx,BYTE PTR gs:[esi]
  403bb4:	je     0x403bb6
  403bb6:	push   ebx
  403bb7:	jns    0x403c2c
  403bb9:	je     0x403c20
  403bbb:	ins    DWORD PTR es:[edi],dx
  403bbc:	inc    esp
  403bbd:	gs jae 0x403c29
  403bc0:	outs   dx,BYTE PTR ds:[si]
  403bc2:	add    BYTE PTR [ebx+0x79],dl
  403bc5:	jae    0x403c3b
  403bc7:	gs ins DWORD PTR es:[edi],dx
  403bc9:	inc    esp
  403bca:	imul   esi,DWORD PTR [edx+0x65],0x726f7463
  403bd1:	jns    0x403c26
  403bd3:	gs jb  0x403c4c
  403bd6:	imul   esp,DWORD PTR [ebx+0x65],0x79530073
  403bdd:	jae    0x403c53
  403bdf:	gs ins DWORD PTR es:[edi],dx
  403be1:	inc    esp
  403be2:	jb     0x403c45
  403be4:	ja     0x403c4f
  403be6:	outs   dx,BYTE PTR ds:[esi]
  403be7:	addr16 inc esp
  403be9:	gs jae 0x403c55
  403bec:	outs   dx,BYTE PTR ds:[si]
  403bee:	add    BYTE PTR [ebx+0x79],dl
  403bf1:	jae    0x403c67
  403bf3:	gs ins DWORD PTR es:[edi],dx
  403bf5:	inc    esp
  403bf6:	jb     0x403c59
  403bf8:	ja     0x403c63
  403bfa:	outs   dx,BYTE PTR ds:[esi]
  403bfb:	add    BYTE PTR [bp+di+0x79],dl
  403bff:	jae    0x403c75
  403c01:	gs ins DWORD PTR es:[edi],dx
  403c03:	inc    ebp
  403c04:	outs   dx,BYTE PTR ds:[esi]
  403c05:	je     0x403c6c
  403c07:	jb     0x403c79
  403c09:	jb     0x403c74
  403c0b:	jae    0x403c72
  403c0d:	push   ebx
  403c0e:	gs jb  0x403c87
  403c11:	imul   esp,DWORD PTR [ebx+0x65],0x79530073
  403c18:	jae    0x403c8e
  403c1a:	gs ins DWORD PTR es:[edi],dx
  403c1c:	dec    ebp
  403c1d:	popa   
  403c1e:	outs   dx,BYTE PTR ds:[esi]
  403c1f:	popa   
  403c20:	gs ins DWORD PTR es:[di],dx
  403c23:	outs   dx,BYTE PTR gs:[esi]
  403c25:	je     0x403c27
  403c27:	push   ebx
  403c28:	jns    0x403c9d
  403c2a:	je     0x403c91
  403c2c:	ins    DWORD PTR es:[edi],dx
  403c2d:	dec    ebp
  403c2e:	gs jae 0x403ca4
  403c31:	popa   
  403c32:	imul   ebp,DWORD PTR [bp+0x67],0x73795300
  403c3a:	je     0x403ca1
  403c3c:	ins    DWORD PTR es:[edi],dx
  403c3d:	push   edx
  403c3e:	jne    0x403cae
  403c40:	je     0x403cab
  403c42:	ins    DWORD PTR es:[edi],dx
  403c43:	gs push ebx
  403c45:	gs jb  0x403cb1
  403c48:	popa   
  403c49:	ins    BYTE PTR es:[edi],dx
  403c4a:	imul   edi,DWORD PTR [edx+0x61],0x6e6f6974
  403c51:	inc    esi
  403c52:	outs   dx,DWORD PTR ds:[esi]
  403c53:	jb     0x403cc2
  403c55:	popa   
  403c56:	je     0x403ccc
  403c58:	gs jb  0x403cce
  403c5b:	push   ebx
  403c5c:	outs   dx,DWORD PTR ds:[esi]
  403c5d:	popa   
  403c5e:	jo     0x403c60
  403c60:	push   ebx
  403c61:	jns    0x403cd6
  403c63:	je     0x403cca
  403c65:	ins    DWORD PTR es:[edi],dx
  403c66:	push   ebx
  403c67:	arpl   WORD PTR gs:[ebp+0x72],si
  403c6b:	imul   esi,DWORD PTR [ecx+edi*2+0x0],0x74737953
  403c73:	gs ins DWORD PTR es:[edi],dx
  403c75:	push   ebx
  403c76:	gs jb  0x403cef
  403c79:	imul   esp,DWORD PTR [ebx+0x65],0x636f7250
  403c80:	gs jae 0x403cf6
  403c83:	add    BYTE PTR [ebx+0x79],dl
  403c86:	jae    0x403cfc
  403c88:	gs ins DWORD PTR es:[edi],dx
  403c8a:	push   edi
  403c8b:	bound  eax,QWORD PTR gs:[eax]
  403c8e:	push   ebx
  403c8f:	jns    0x403d04
  403c91:	je     0x403cf8
  403c93:	ins    DWORD PTR es:[edi],dx
  403c94:	push   edi
  403c95:	bound  eax,QWORD PTR gs:[ecx+0x62]
  403c99:	jae    0x403d0f
  403c9b:	jb     0x403cfe
  403c9d:	arpl   WORD PTR [ecx+ebp*2+0x6f],si
  403ca1:	outs   dx,BYTE PTR ds:[esi]
  403ca2:	jae    0x403ca4
  403ca4:	push   ebx
  403ca5:	jns    0x403d1a
  403ca7:	je     0x403d0e
  403ca9:	ins    DWORD PTR es:[edi],dx
  403caa:	push   edi
  403cab:	bound  eax,QWORD PTR gs:[ecx+edi*2+0x6e]
  403cb0:	popa   
  403cb1:	ins    DWORD PTR es:[edi],dx
  403cb2:	imul   esp,DWORD PTR [ebx+0x44],0x617461
  403cb9:	push   ebx
  403cba:	jns    0x403d2f
  403cbc:	je     0x403d23
  403cbe:	ins    DWORD PTR es:[edi],dx
  403cbf:	push   edi
  403cc0:	bound  eax,QWORD PTR gs:[ecx+edi*2+0x6e]
  403cc5:	popa   
  403cc6:	ins    DWORD PTR es:[edi],dx
  403cc7:	imul   esp,DWORD PTR [ebx+0x44],0x44617461
  403cce:	gs jae 0x403d3a
  403cd1:	outs   dx,BYTE PTR ds:[si]
  403cd3:	add    BYTE PTR [ebx+0x79],dl
  403cd6:	jae    0x403d4c
  403cd8:	gs ins DWORD PTR es:[edi],dx
  403cda:	push   edi
  403cdb:	bound  eax,QWORD PTR gs:[ebp+0x6e]
  403cdf:	je     0x403d4a
  403ce1:	je     0x403d5c
  403ce3:	inc    esp
  403ce4:	gs jae 0x403d50
  403ce7:	outs   dx,BYTE PTR ds:[si]
  403ce9:	add    BYTE PTR [ebx+0x79],dl
  403cec:	jae    0x403d62
  403cee:	gs ins DWORD PTR es:[edi],dx
  403cf0:	push   edi
  403cf1:	bound  eax,QWORD PTR gs:[ebp+0x78]
  403cf5:	je     0x403d5c
  403cf7:	outs   dx,BYTE PTR ds:[esi]
  403cf8:	jae    0x403d63
  403cfa:	outs   dx,DWORD PTR ds:[esi]
  403cfb:	outs   dx,BYTE PTR ds:[esi]
  403cfc:	jae    0x403cfe
  403cfe:	push   ebx
  403cff:	jns    0x403d74
  403d01:	je     0x403d68
  403d03:	ins    DWORD PTR es:[edi],dx
  403d04:	push   edi
  403d05:	bound  eax,QWORD PTR gs:[ebp+0x78]
  403d09:	je     0x403d70
  403d0b:	outs   dx,BYTE PTR ds:[esi]
  403d0c:	jae    0x403d77
  403d0e:	outs   dx,DWORD PTR ds:[esi]
  403d0f:	outs   dx,BYTE PTR ds:[esi]
  403d10:	jae    0x403d56
  403d12:	gs jae 0x403d7e
  403d15:	outs   dx,BYTE PTR ds:[si]
  403d17:	add    BYTE PTR [ebx+0x79],dl
  403d1a:	jae    0x403d90
  403d1c:	gs ins DWORD PTR es:[edi],dx
  403d1e:	push   edi
  403d1f:	bound  ecx,QWORD PTR gs:[ebp+0x6f]
  403d23:	bound  ebp,QWORD PTR [ecx+0x6c]
  403d26:	add    BYTE PTR gs:[ebx+0x79],dl
  403d2a:	jae    0x403da0
  403d2c:	gs ins DWORD PTR es:[edi],dx
  403d2e:	push   edi
  403d2f:	bound  edx,QWORD PTR gs:[edx+0x65]
  403d33:	addr16 jne 0x403da2
  403d36:	popa   
  403d37:	jb     0x403d7e
  403d39:	js     0x403dab
  403d3b:	jb     0x403da2
  403d3d:	jae    0x403db2
  403d3f:	imul   ebp,DWORD PTR [edi+0x6e],0x79530073
  403d46:	jae    0x403dbc
  403d48:	gs ins DWORD PTR es:[edi],dx
  403d4a:	push   edi
  403d4b:	bound  edx,QWORD PTR gs:[edx+0x6f]
  403d4f:	jne    0x403dc5
  403d51:	imul   ebp,DWORD PTR [esi+0x67],0x73795300
  403d58:	je     0x403dbf
  403d5a:	ins    DWORD PTR es:[edi],dx
  403d5b:	push   edi
  403d5c:	bound  edx,QWORD PTR gs:[ebx+0x65]
  403d60:	jb     0x403dd8
  403d62:	imul   esp,DWORD PTR [ebx+0x65],0x694d0073
  403d69:	arpl   WORD PTR [edx+0x6f],si
  403d6c:	jae    0x403ddd
  403d6e:	data16 je 0x403dc7
  403d71:	imul   esi,DWORD PTR [ebx+0x75],0x74536c61
  403d78:	jne    0x403dde
  403d7a:	imul   ebp,DWORD PTR [edi+0x0],0x7263694d
  403d81:	outs   dx,DWORD PTR ds:[esi]
  403d82:	jae    0x403df3
  403d84:	data16 je 0x403ddd
  403d87:	imul   esi,DWORD PTR [ebx+0x75],0x74536c61
  403d8e:	jne    0x403df4
  403d90:	imul   ebp,DWORD PTR [edi+0x57],0x6f646e69
  403d97:	ja     0x403e0c
  403d99:	inc    esi
  403d9a:	outs   dx,DWORD PTR ds:[esi]
  403d9b:	jb     0x403e0a
  403d9d:	jae    0x403d9f
  403d9f:	push   esi
  403da0:	dec    edx
  403da1:	push   ebx
  403da2:	push   0x43707261
  403da7:	outs   dx,DWORD PTR ds:[esi]
  403da8:	fs gs push eax
  403dab:	jb     0x403e1c
  403dad:	jbe    0x403e18
  403daf:	fs gs jb 0x403db3
  403db3:	inc    ecx
  403db4:	push   ebx
  403db5:	push   eax
  403db6:	inc    edx
  403db7:	jb     0x403e28
  403db9:	ja     0x403e2e
  403dbb:	gs jb  0x403e01
  403dbe:	popa   
  403dbf:	jo     0x403e34
  403dc1:	push   eax
  403dc2:	jne    0x403e26
  403dc4:	ins    BYTE PTR es:[edi],dx
  403dc5:	imul   esp,DWORD PTR [ebx+0x4b],0x41007965
  403dcc:	push   ebx
  403dcd:	push   eax
  403dce:	inc    edx
  403dcf:	jb     0x403e40
  403dd1:	ja     0x403e46
  403dd3:	gs jb  0x403e19
  403dd6:	popa   
  403dd7:	jo     0x403e4c
  403dd9:	inc    esi
  403dda:	popa   
  403ddb:	arpl   WORD PTR [edi+ebp*2+0x72],si
  403ddf:	jns    0x403de1
  403de1:	dec    ebp
  403de2:	imul   esp,DWORD PTR [ebx+0x72],0x666f736f
  403de9:	je     0x403e41
  403deb:	push   ebx
  403dec:	inc    esp
  403ded:	gs jae 0x403e59
  403df0:	outs   dx,BYTE PTR ds:[si]
  403df2:	gs jb  0x403df5
  403df5:	dec    ebp
  403df6:	imul   esp,DWORD PTR [ebx+0x72],0x666f736f
  403dfd:	je     0x403e55
  403dff:	imul   esi,DWORD PTR [ebx+0x75],0x74536c61
  403e06:	jne    0x403e6c
  403e08:	imul   ebp,DWORD PTR [edi+0x57],0x4d006265
  403e0f:	imul   esp,DWORD PTR [ebx+0x72],0x666f736f
  403e16:	je     0x403e6f
  403e18:	bound  eax,QWORD PTR gs:[ebp+eiz*2+0x73]
  403e1d:	imul   esp,DWORD PTR [edi+0x6e],0x63694d00
  403e24:	jb     0x403e95
  403e26:	jae    0x403e97
  403e28:	data16 je 0x403e81
  403e2b:	push   ebx
  403e2c:	inc    esp
  403e2d:	gs jae 0x403e99
  403e30:	outs   dx,BYTE PTR ds:[si]
  403e32:	gs jb  0x403e82
  403e35:	outs   dx,DWORD PTR ds:[esi]
  403e36:	bound  ebp,QWORD PTR [ecx+0x6c]
  403e39:	add    BYTE PTR gs:[ebp+0x69],cl
  403e3d:	arpl   WORD PTR [edx+0x6f],si
  403e40:	jae    0x403eb1
  403e42:	data16 je 0x403e8f
  403e45:	push   ebx
  403e46:	arpl   WORD PTR [edx+0x69],si
  403e49:	jo     0x403ebf
  403e4b:	add    BYTE PTR [ebx+0x79],dl
  403e4e:	jae    0x403ec4
  403e50:	gs ins DWORD PTR es:[edi],dx
  403e52:	cs push edx
  403e54:	gs jae 0x403ec6
  403e57:	jne    0x403ecb
  403e59:	arpl   WORD PTR [ebp+0x73],sp
  403e5c:	add    BYTE PTR [edx+0x65],dl
  403e5f:	jae    0x403ed0
  403e61:	jne    0x403ed5
  403e63:	arpl   WORD PTR [ebp+0x4d],sp
  403e66:	popa   
  403e67:	outs   dx,BYTE PTR ds:[esi]
  403e68:	popa   
  403e69:	addr16 gs jb 0x403e6d
  403e6d:	jb     0x403ed4
  403e6f:	jae    0x403ede
  403e71:	addr16 jb 0x403e74
  403e74:	inc    edi
  403e75:	gs je  0x403ecb
  403e78:	je     0x403eec
  403e7a:	imul   ebp,DWORD PTR [esi+0x67],0x74656700
  403e81:	pop    edi
  403e82:	inc    ebx
  403e83:	outs   dx,DWORD PTR ds:[esi]
  403e84:	jo     0x403eff
  403e86:	jb     0x403ef1
  403e88:	addr16 push 0x726f4674
  403e8e:	inc    ebx
  403e8f:	ins    DWORD PTR es:[edi],dx
  403e90:	fs dec esp
  403e92:	imul   ebp,DWORD PTR [esi+0x65],0x74656700
  403e99:	pop    edi
  403e9a:	push   edi
  403e9b:	arpl   WORD PTR [esi+0x54],sp
  403e9e:	jb     0x403f01
  403ea0:	fs gs ins DWORD PTR es:[edi],dx
  403ea3:	popa   
  403ea4:	jb     0x403f11
  403ea6:	inc    esi
  403ea7:	outs   dx,DWORD PTR ds:[esi]
  403ea8:	jb     0x403eed
  403eaa:	ins    DWORD PTR es:[edi],dx
  403eab:	fs dec esp
  403ead:	imul   ebp,DWORD PTR [esi+0x65],0x706f4300
  403eb4:	jns    0x403f28
  403eb6:	imul   esp,DWORD PTR [edi+0x68],0x726f4674
  403ebd:	inc    ebx
  403ebe:	ins    DWORD PTR es:[edi],dx
  403ebf:	fs dec esp
  403ec1:	imul   ebp,DWORD PTR [esi+0x65],0x66635700
  403ec8:	push   esp
  403ec9:	jb     0x403f2c
  403ecb:	fs gs ins DWORD PTR es:[edi],dx
  403ece:	popa   
  403ecf:	jb     0x403f3c
  403ed1:	inc    esi
  403ed2:	outs   dx,DWORD PTR ds:[esi]
  403ed3:	jb     0x403f18
  403ed5:	ins    DWORD PTR es:[edi],dx
  403ed6:	fs dec esp
  403ed8:	imul   ebp,DWORD PTR [esi+0x65],0x4c5f7300
  403edf:	outs   dx,DWORD PTR ds:[esi]
  403ee0:	outs   dx,DWORD PTR ds:[si]
  403ee2:	push   eax
  403ee3:	jb     0x403f4e
  403ee5:	outs   dx,BYTE PTR ds:[esi]
  403ee6:	je     0x403f4d
  403ee8:	add    BYTE PTR fs:[ebx+0x5f],dh
  403eec:	ins    BYTE PTR es:[edi],dx
  403eed:	imul   esi,DWORD PTR [ebx+0x74],0x6d5f7300
  403ef4:	popa   
  403ef5:	arpl   WORD PTR [eax+0x69],bp
  403ef8:	outs   dx,BYTE PTR ds:[esi]
  403ef9:	add    BYTE PTR gs:[ebx+0x5f],dh
  403efd:	jb     0x403f6e
  403eff:	popa   
  403f00:	ins    DWORD PTR es:[edi],dx
  403f01:	imul   ebp,DWORD PTR [esi+0x67],0x725f7300
  403f08:	gs ins DWORD PTR es:[edi],dx
  403f0a:	outs   dx,DWORD PTR ds:[esi]
  403f0b:	jbe    0x403f72
  403f0d:	add    BYTE PTR [ebx+0x5f],dh
  403f10:	jno    0x403f87
  403f12:	imul   esp,DWORD PTR [ebp+0x74],0x73795300
  403f19:	je     0x403f80
  403f1b:	ins    DWORD PTR es:[edi],dx
  403f1c:	cs dec ecx
  403f1e:	dec    edi
  403f1f:	cs dec ecx
  403f21:	jae    0x403f92
  403f23:	ins    BYTE PTR es:[edi],dx
  403f24:	popa   
  403f25:	je     0x403f8c
  403f27:	fs push ebx
  403f29:	je     0x403f9a
  403f2b:	jb     0x403f8e
  403f2d:	add    BYTE PTR gs:[bx+di+0x73],cl
  403f32:	outs   dx,DWORD PTR ds:[esi]
  403f33:	ins    BYTE PTR es:[edi],dx
  403f34:	popa   
  403f35:	je     0x403f9c
  403f37:	fs push ebx
  403f39:	je     0x403faa
  403f3b:	jb     0x403f9e
  403f3d:	addr16 gs push ebx
  403f40:	arpl   WORD PTR [edi+0x70],bp
  403f43:	add    BYTE PTR gs:[ebx+0x5f],dh
  403f47:	push   ebx
  403f48:	arpl   WORD PTR [edi+0x70],bp
  403f4b:	add    BYTE PTR gs:[ebx+0x5f],dh
  403f4f:	jb     0x403fb6
  403f51:	jae    0x403fc0
  403f53:	addr16 jb 0x403f56
  403f56:	addr16 pop edi
  403f58:	push   0x30706c65
  403f5d:	add    BYTE PTR [edi+0x5f],ah
  403f60:	push   0x31706c65
  403f65:	add    BYTE PTR [edi+0x5f],ah
  403f68:	push   0x32706c65
  403f6d:	add    BYTE PTR [edi+0x5f],ah
  403f70:	push   0x33706c65
  403f75:	add    BYTE PTR [edi+0x5f],ah
  403f78:	push   0x34706c65
  403f7d:	add    BYTE PTR [edi+0x5f],ah
  403f80:	push   0x35706c65
  403f85:	add    BYTE PTR [edi+0x5f],ah
  403f88:	push   0x36706c65
  403f8d:	add    BYTE PTR [edi+0x5f],ah
  403f90:	push   0x706c65
  403f95:	addr16 pop edi
  403f97:	ins    BYTE PTR es:[edi],dx
  403f98:	imul   esi,DWORD PTR [ebx+0x74],0x6d5f6700
  403f9f:	popa   
  403fa0:	arpl   WORD PTR [eax+0x69],bp
  403fa3:	outs   dx,BYTE PTR ds:[esi]
  403fa4:	add    BYTE PTR gs:[edi+0x5f],ah
  403fa8:	jb     0x404019
  403faa:	popa   
  403fab:	ins    DWORD PTR es:[edi],dx
  403fac:	imul   ebp,DWORD PTR [esi+0x67],0x725f6700
  403fb3:	gs ins DWORD PTR es:[edi],dx
  403fb5:	outs   dx,DWORD PTR ds:[esi]
  403fb6:	jbe    0x40401d
  403fb8:	add    BYTE PTR [edi+0x5f],ah
  403fbb:	jno    0x404032
  403fbd:	imul   esp,DWORD PTR [ebp+0x74],0x69725000
  403fc4:	outs   dx,BYTE PTR ds:[esi]
  403fc5:	je     0x403fc7
  403fc7:	push   eax
  403fc8:	jb     0x404033
  403fca:	outs   dx,BYTE PTR ds:[esi]
  403fcb:	je     0x404012
  403fcd:	jb     0x404041
  403fcf:	outs   dx,DWORD PTR ds:[esi]
  403fd0:	jb     0x403fd2
  403fd2:	push   ebp
  403fd3:	jae    0x404036
  403fd5:	add    BYTE PTR gs:[bx+si+0x72],dl
  403fda:	imul   ebp,DWORD PTR [esi+0x74],0x6f676f4c
  403fe1:	add    BYTE PTR [ebp+0x61],cl
  403fe4:	imul   ebp,DWORD PTR [esi+0x0],0x63657845
  403feb:	jne    0x404061
  403fed:	add    BYTE PTR gs:[edx+0x65],dl
  403ff1:	ins    DWORD PTR es:[edi],dx
  403ff2:	outs   dx,DWORD PTR ds:[esi]
  403ff3:	jbe    0x40405a
  403ff5:	add    BYTE PTR [ecx+ebp*2+0x73],cl
  403ff9:	je     0x403ffb
  403ffb:	arpl   WORD PTR cs:[edi+ebp*2+0x72],si
  404000:	add    BYTE PTR [ecx+0x64],ch
  404003:	add    BYTE PTR [ebx+0x74],dh
  404006:	jb     0x404008
  404008:	popa   
  404009:	jb     0x404072
  40400b:	add    BYTE PTR [ebx+0x79],dl
  40400e:	jae    0x404084
  404010:	gs ins DWORD PTR es:[edi],dx
  404012:	cs push edx
  404014:	jne    0x404084
  404016:	je     0x404081
  404018:	ins    DWORD PTR es:[edi],dx
  404019:	gs cs dec ecx
  40401c:	outs   dx,BYTE PTR ds:[esi]
  40401d:	je     0x404084
  40401f:	jb     0x404090
  404021:	jo     0x404076
  404023:	gs jb  0x40409c
  404026:	imul   esp,DWORD PTR [ebx+0x65],0x6f430073
  40402d:	ins    DWORD PTR es:[edi],dx
  40402e:	push   esi
  40402f:	imul   esi,DWORD PTR [ebx+0x69],0x41656c62
  404036:	je     0x4040ac
  404038:	jb     0x4040a3
  40403a:	bound  esi,QWORD PTR [ebp+0x74]
  40403d:	add    BYTE PTR gs:[ebx+0x4c],al
  404041:	push   ebx
  404042:	inc    ebx
  404043:	outs   dx,DWORD PTR ds:[esi]
  404044:	ins    DWORD PTR es:[edi],dx
  404045:	jo     0x4040b3
  404047:	imul   esp,DWORD PTR [ecx+0x6e],0x74744174
  40404e:	jb     0x4040b9
  404050:	bound  esi,QWORD PTR [ebp+0x74]
  404053:	add    BYTE PTR gs:[ebx+0x79],dl
  404057:	jae    0x4040cd
  404059:	gs ins DWORD PTR es:[edi],dx
  40405b:	cs push edx
  40405d:	gs data16 ins BYTE PTR es:[edi],dx
  404060:	arpl   WORD PTR gs:[ecx+ebp*2+0x6f],si
  404065:	outs   dx,BYTE PTR ds:[esi]
  404066:	add    BYTE PTR [ecx+0x73],al
  404069:	jae    0x4040d0
  40406b:	ins    DWORD PTR es:[edi],dx
  40406c:	bound  ebp,QWORD PTR [ecx+edi*2+0x54]
  404070:	imul   esi,DWORD PTR [esp+ebp*2+0x65],0x72747441
  404078:	imul   esp,DWORD PTR [edx+0x75],0x41006574
  40407f:	jae    0x4040f4
  404081:	gs ins DWORD PTR es:[edi],dx
  404083:	bound  ebp,QWORD PTR [ecx+edi*2+0x44]
  404087:	gs jae 0x4040ed
  40408a:	jb     0x4040f5
  40408c:	jo     0x404102
  40408e:	imul   ebp,DWORD PTR [edi+0x6e],0x72747441
  404095:	imul   esp,DWORD PTR [edx+0x75],0x41006574
  40409c:	jae    0x404111
  40409e:	gs ins DWORD PTR es:[edi],dx
  4040a0:	bound  ebp,QWORD PTR [ecx+edi*2+0x44]
  4040a4:	gs popaw 
  4040a7:	jne    0x404115
  4040a9:	je     0x4040ec
  4040ab:	ins    BYTE PTR es:[edi],dx
  4040ac:	imul   esp,DWORD PTR [ecx+0x73],0x72747441
  4040b3:	imul   esp,DWORD PTR [edx+0x75],0x41006574
  4040ba:	jae    0x40412f
  4040bc:	gs ins DWORD PTR es:[edi],dx
  4040be:	bound  ebp,QWORD PTR [ecx+edi*2+0x43]
  4040c2:	outs   dx,DWORD PTR ds:[esi]
  4040c3:	ins    DWORD PTR es:[edi],dx
  4040c4:	jo     0x404127
  4040c6:	outs   dx,BYTE PTR ds:[esi]
  4040c7:	jns    0x40410a
  4040c9:	je     0x40413f
  4040cb:	jb     0x404136
  4040cd:	bound  esi,QWORD PTR [ebp+0x74]
  4040d0:	add    BYTE PTR gs:[ecx+0x73],al
  4040d4:	jae    0x40413b
  4040d6:	ins    DWORD PTR es:[edi],dx
  4040d7:	bound  ebp,QWORD PTR [ecx+edi*2+0x50]
  4040db:	jb     0x40414c
  4040dd:	fs jne 0x404143
  4040e0:	je     0x404123
  4040e2:	je     0x404158
  4040e4:	jb     0x40414f
  4040e6:	bound  esi,QWORD PTR [ebp+0x74]
  4040e9:	add    BYTE PTR gs:[ecx+0x73],al
  4040ed:	jae    0x404154
  4040ef:	ins    DWORD PTR es:[edi],dx
  4040f0:	bound  ebp,QWORD PTR [ecx+edi*2+0x43]
  4040f4:	outs   dx,DWORD PTR ds:[esi]
  4040f5:	jo     0x404170
  4040f7:	jb     0x404162
  4040f9:	addr16 push 0x74744174
  4040ff:	jb     0x40416a
  404101:	bound  esi,QWORD PTR [ebp+0x74]
  404104:	add    BYTE PTR gs:[ecx+0x73],al
  404108:	jae    0x40416f
  40410a:	ins    DWORD PTR es:[edi],dx
  40410b:	bound  ebp,QWORD PTR [ecx+edi*2+0x56]
  40410f:	gs jb  0x404185
  404112:	imul   ebp,DWORD PTR [edi+0x6e],0x72747441
  404119:	imul   esp,DWORD PTR [edx+0x75],0x41006574
  404120:	jae    0x404195
  404122:	gs ins DWORD PTR es:[edi],dx
  404124:	bound  ebp,QWORD PTR [ecx+edi*2+0x46]
  404128:	imul   ebp,DWORD PTR [ebp+eiz*2+0x56],0x69737265
  404130:	outs   dx,DWORD PTR ds:[esi]
  404131:	outs   dx,BYTE PTR ds:[esi]
  404132:	inc    ecx
  404133:	je     0x4041a9
  404135:	jb     0x4041a0
  404137:	bound  esi,QWORD PTR [ebp+0x74]
  40413a:	add    BYTE PTR gs:[ecx+0x73],al
  40413e:	jae    0x4041a5
  404140:	ins    DWORD PTR es:[edi],dx
  404141:	bound  ebp,QWORD PTR [ecx+edi*2+0x49]
  404145:	outs   dx,BYTE PTR ds:[esi]
  404146:	outs   dx,WORD PTR ds:[esi]
  404148:	jb     0x4041b7
  40414a:	popa   
  40414b:	je     0x4041b6
  40414d:	outs   dx,DWORD PTR ds:[esi]
  40414e:	outs   dx,BYTE PTR ds:[esi]
  40414f:	popa   
  404150:	ins    BYTE PTR es:[edi],dx
  404151:	push   esi
  404152:	gs jb  0x4041c8
  404155:	imul   ebp,DWORD PTR [edi+0x6e],0x72747441
  40415c:	imul   esp,DWORD PTR [edx+0x75],0x53006574
  404163:	popa   
  404164:	je     0x4041cb
  404166:	ins    BYTE PTR es:[edi],dx
  404167:	ins    BYTE PTR es:[edi],dx
  404168:	imul   esi,DWORD PTR [ebp+eiz*2+0x43],0x72746e6f
  404170:	popa   
  404171:	arpl   WORD PTR [esi+edx*2+0x65],si
  404175:	jb     0x4041ea
  404177:	imul   ebp,DWORD PTR [edi+0x6e],0x72747441
  40417e:	imul   esp,DWORD PTR [edx+0x75],0x4e006574
  404185:	gs jne 0x4041fc
  404188:	jb     0x4041eb
  40418a:	ins    BYTE PTR es:[edi],dx
  40418b:	push   edx
  40418c:	gs jae 0x4041fe
  40418f:	jne    0x404203
  404191:	arpl   WORD PTR [ebp+0x73],sp
  404194:	dec    esp
  404195:	popa   
  404196:	outs   dx,BYTE PTR ds:[esi]
  404197:	addr16 jne 0x4041fb
  40419a:	addr16 gs inc ecx
  40419d:	je     0x404213
  40419f:	jb     0x40420a
  4041a1:	bound  esi,QWORD PTR [ebp+0x74]
  4041a4:	add    BYTE PTR gs:[ecx+0x73],al
  4041a8:	jae    0x40420f
  4041aa:	ins    DWORD PTR es:[edi],dx
  4041ab:	bound  ebp,QWORD PTR [ecx+edi*2+0x44]
  4041af:	gs ins BYTE PTR es:[edi],dx
  4041b1:	popa   
  4041b2:	jns    0x404207
  4041b4:	imul   esp,DWORD PTR [edi+0x6e],0x72747441
  4041bb:	imul   esp,DWORD PTR [edx+0x75],0x41006574
  4041c2:	jae    0x404237
  4041c4:	gs ins DWORD PTR es:[edi],dx
  4041c6:	bound  ebp,QWORD PTR [ecx+edi*2+0x4b]
  4041ca:	gs jns 0x404213
  4041cd:	imul   ebp,DWORD PTR [ebp+eiz*2+0x41],0x69727474
  4041d5:	bound  esi,QWORD PTR [ebp+0x74]
  4041d8:	add    BYTE PTR gs:[ebx+0x79],dl
  4041dc:	jae    0x404252
  4041de:	gs ins DWORD PTR es:[edi],dx
  4041e0:	cs inc esp
  4041e2:	imul   esp,DWORD PTR [ecx+0x67],0x74736f6e
  4041e9:	imul   esp,DWORD PTR [ebx+0x73],0x62654400
  4041f0:	jne    0x404259
  4041f2:	addr16 popa 
  4041f4:	bound  ebp,QWORD PTR [ebp+eiz*2+0x41]
  4041f8:	je     0x40426e
  4041fa:	jb     0x404265
  4041fc:	bound  esi,QWORD PTR [ebp+0x74]
  4041ff:	add    BYTE PTR gs:[ebp+eiz*2+0x62],al
  404204:	jne    0x40426d
  404206:	imul   ebp,DWORD PTR [bp+0x67],0x65646f4d
  40420e:	jae    0x404210
  404210:	push   ebx
  404211:	jns    0x404286
  404213:	je     0x40427a
  404215:	ins    DWORD PTR es:[edi],dx
  404216:	cs push edx
  404218:	jne    0x404288
  40421a:	je     0x404285
  40421c:	ins    DWORD PTR es:[edi],dx
  40421d:	gs cs inc ebx
  404220:	outs   dx,DWORD PTR ds:[esi]
  404221:	ins    DWORD PTR es:[edi],dx
  404222:	jo     0x40428d
  404224:	ins    BYTE PTR es:[edi],dx
  404225:	gs jb  0x40427b
  404228:	gs jb  0x4042a1
  40422b:	imul   esp,DWORD PTR [ebx+0x65],0x6f430073
  404232:	ins    DWORD PTR es:[edi],dx
  404233:	jo     0x40429e
  404235:	ins    BYTE PTR es:[edi],dx
  404236:	popa   
  404237:	je     0x4042a2
  404239:	outs   dx,DWORD PTR ds:[esi]
  40423a:	outs   dx,BYTE PTR ds:[esi]
  40423b:	push   edx
  40423c:	gs ins BYTE PTR es:[edi],dx
  40423e:	popa   
  40423f:	js     0x4042a2
  404241:	je     0x4042ac
  404243:	outs   dx,DWORD PTR ds:[esi]
  404244:	outs   dx,BYTE PTR ds:[esi]
  404245:	jae    0x404288
  404247:	je     0x4042bd
  404249:	jb     0x4042b4
  40424b:	bound  esi,QWORD PTR [ebp+0x74]
  40424e:	add    BYTE PTR gs:[edx+0x75],dl
  404252:	outs   dx,BYTE PTR ds:[esi]
  404253:	je     0x4042be
  404255:	ins    DWORD PTR es:[edi],dx
  404256:	gs inc ebx
  404258:	outs   dx,DWORD PTR ds:[esi]
  404259:	ins    DWORD PTR es:[edi],dx
  40425a:	jo     0x4042bd
  40425c:	je     0x4042c7
  40425e:	bound  ebp,QWORD PTR [ecx+0x6c]
  404261:	imul   esi,DWORD PTR [ecx+edi*2+0x41],0x69727474
  404269:	bound  esi,QWORD PTR [ebp+0x74]
  40426c:	add    BYTE PTR gs:[ebx+0x74],dh
  404270:	outs   dx,DWORD PTR ds:[esi]
  404271:	jb     0x4042d8
  404273:	popa   
  404274:	fs ins DWORD PTR es:[edi],dx
  404276:	add    BYTE PTR [esi],ch
  404278:	arpl   WORD PTR [ebx+0x74],sp
  40427b:	outs   dx,DWORD PTR ds:[esi]
  40427c:	jb     0x40427e
  40427e:	inc    ecx
  40427f:	jae    0x4042f4
  404281:	gs ins DWORD PTR es:[edi],dx
  404283:	bound  ebp,QWORD PTR [ecx+edi*2+0x0]
  404287:	inc    edi
  404288:	gs je  0x4042d0
  40428b:	js     0x4042f2
  40428d:	arpl   WORD PTR [ebp+0x74],si
  404290:	imul   ebp,DWORD PTR [esi+0x67],0x65737341
  404297:	ins    DWORD PTR es:[edi],dx
  404298:	bound  ebp,QWORD PTR [ecx+edi*2+0x0]
  40429c:	inc    ebx
  40429d:	outs   dx,DWORD PTR ds:[esi]
  40429e:	outs   dx,BYTE PTR ds:[esi]
  40429f:	jae    0x404310
  4042a1:	ins    BYTE PTR es:[edi],dx
  4042a2:	add    BYTE PTR gs:[edi+0x72],dl
  4042a6:	imul   esi,DWORD PTR [ebp+eiz*2+0x0],0x69766e45
  4042ae:	jb     0x40431f
  4042b0:	outs   dx,BYTE PTR ds:[esi]
  4042b1:	ins    DWORD PTR es:[edi],dx
  4042b2:	outs   dx,BYTE PTR gs:[esi]
  4042b4:	je     0x4042b6
  4042b6:	addr16 gs je 0x404319
  4042ba:	dec    esi
  4042bb:	gs ja  0x40430a
  4042be:	imul   ebp,DWORD PTR [esi+0x65],0x72745300
  4042c5:	imul   ebp,DWORD PTR [esi+0x67],0x6e6f4300
  4042cc:	arpl   WORD PTR [ecx+0x74],sp
  4042cf:	add    BYTE PTR [ebx+0x79],dl
  4042d2:	jae    0x404348
  4042d4:	gs ins DWORD PTR es:[edi],dx
  4042d6:	cs push esp
  4042d8:	gs js  0x40434f
  4042db:	add    BYTE PTR [ebx+0x74],dl
  4042de:	jb     0x404349
  4042e0:	outs   dx,BYTE PTR ds:[esi]
  4042e1:	addr16 inc edx
  4042e3:	jne    0x40434e
  4042e5:	ins    BYTE PTR es:[edi],dx
  4042e6:	fs gs jb 0x4042ea
  4042ea:	inc    ecx
  4042eb:	jo     0x40435d
  4042ed:	outs   dx,BYTE PTR gs:[esi]
  4042ef:	add    BYTE PTR fs:[edi+ebp*2+0x53],dl
  4042f4:	je     0x404368
  4042f6:	imul   ebp,DWORD PTR [esi+0x67],0x69725700
  4042fd:	je     0x404364
  4042ff:	dec    esp
  404300:	imul   ebp,DWORD PTR [esi+0x65],0x73795300
  404307:	je     0x40436e
  404309:	ins    DWORD PTR es:[edi],dx
  40430a:	cs inc edi
  40430c:	ins    BYTE PTR es:[edi],dx
  40430d:	outs   dx,DWORD PTR ds:[esi]
  40430e:	bound  esp,QWORD PTR [ecx+0x6c]
  404311:	imul   edi,DWORD PTR [edx+0x61],0x6e6f6974
  404318:	add    BYTE PTR [ebx+0x75],al
  40431b:	ins    BYTE PTR es:[edi],dx
  40431c:	je     0x404393
  40431e:	jb     0x404385
  404320:	dec    ecx
  404321:	outs   dx,BYTE PTR ds:[esi]
  404322:	outs   dx,WORD PTR ds:[esi]
  404324:	add    BYTE PTR [edi+0x65],ah
  404327:	je     0x404388
  404329:	dec    ecx
  40432a:	outs   dx,BYTE PTR ds:[esi]
  40432b:	jbe    0x40438e
  40432d:	jb     0x404398
  40432f:	popa   
  404330:	outs   dx,BYTE PTR ds:[esi]
  404331:	je     0x404376
  404333:	jne    0x4043a1
  404335:	je     0x4043ac
  404337:	jb     0x40439e
  404339:	add    BYTE PTR [ebx+0x6f],al
  40433c:	ins    DWORD PTR es:[edi],dx
  40433d:	jo     0x4043a0
  40433f:	jb     0x4043a6
  404341:	add    BYTE PTR [ebp+0x78],al
  404344:	arpl   WORD PTR [ebp+0x70],sp
  404347:	je     0x4043b2
  404349:	outs   dx,DWORD PTR ds:[esi]
  40434a:	outs   dx,BYTE PTR ds:[esi]
  40434b:	add    BYTE PTR [ecx+0x73],cl
  40434e:	outs   dx,DWORD PTR ds:[esi]
  40434f:	ins    BYTE PTR es:[edi],dx
  404350:	popa   
  404351:	je     0x4043b8
  404353:	fs push ebx
  404355:	je     0x4043c6
  404357:	jb     0x4043ba
  404359:	addr16 gs inc esi
  40435c:	imul   ebp,DWORD PTR [ebp+eiz*2+0x0],0x74737953
  404364:	gs ins DWORD PTR es:[edi],dx
  404366:	cs inc ebx
  404368:	outs   dx,DWORD PTR ds:[esi]
  404369:	ins    BYTE PTR es:[edi],dx
  40436a:	ins    BYTE PTR es:[edi],dx
  40436b:	arpl   WORD PTR gs:[ecx+ebp*2+0x6f],si
  404370:	outs   dx,BYTE PTR ds:[esi]
  404371:	jae    0x404373
  404373:	dec    ecx
  404374:	inc    ebp
  404375:	outs   dx,BYTE PTR ds:[esi]
  404376:	jne    0x4043e5
  404378:	gs jb  0x4043dc
  40437b:	je     0x4043ec
  40437d:	jb     0x40437f
  40437f:	inc    edi
  404380:	gs je  0x4043c8
  404383:	outs   dx,BYTE PTR ds:[esi]
  404384:	jne    0x4043f3
  404386:	gs jb  0x4043ea
  404389:	je     0x4043fa
  40438b:	jb     0x40438d
  40438d:	addr16 gs je 0x4043f0
  404391:	inc    ebx
  404392:	jne    0x404406
  404394:	jb     0x4043fb
  404396:	outs   dx,BYTE PTR ds:[esi]
  404397:	je     0x404399
  404399:	dec    ecx
  40439a:	jae    0x40440b
  40439c:	ins    BYTE PTR es:[edi],dx
  40439d:	popa   
  40439e:	je     0x404405
  4043a0:	fs push ebx
  4043a2:	je     0x404413
  4043a4:	jb     0x404407
  4043a6:	add    BYTE PTR gs:[bx+0x65],ah
  4043ab:	je     0x40440c
  4043ad:	push   ebx
  4043ae:	arpl   WORD PTR [edi+0x70],bp
  4043b1:	add    BYTE PTR gs:[ecx+0x6e],cl
  4043b5:	je     0x4043ea
  4043b7:	xor    al,BYTE PTR [eax]
  4043b9:	dec    ecx
  4043ba:	inc    esi
  4043bb:	outs   dx,DWORD PTR ds:[esi]
  4043bc:	jb     0x40442b
  4043be:	popa   
  4043bf:	je     0x404411
  4043c1:	jb     0x404432
  4043c3:	jbe    0x40442e
  4043c5:	fs gs jb 0x4043c9
  4043c9:	addr16 gs je 0x40442c
  4043cd:	inc    ecx
  4043ce:	jo     0x404440
  4043d0:	ins    BYTE PTR es:[edi],dx
  4043d1:	imul   esp,DWORD PTR [ebx+0x61],0x6e6f6974
  4043d8:	dec    ecx
  4043d9:	fs outs dx,BYTE PTR gs:[esi]
  4043dc:	je     0x404447
  4043de:	je     0x404459
  4043e0:	add    BYTE PTR [edi+0x65],ah
  4043e3:	je     0x404444
  4043e5:	inc    esp
  4043e6:	outs   dx,DWORD PTR ds:[esi]
  4043e7:	ins    DWORD PTR es:[edi],dx
  4043e8:	popa   
  4043e9:	imul   ebp,DWORD PTR [esi+0x49],0x746e6564
  4043f0:	imul   esi,DWORD PTR [ecx+edi*2+0x0],0x5f746567
  4043f8:	inc    ecx
  4043f9:	jae    0x40446e
  4043fb:	gs ins DWORD PTR es:[edi],dx
  4043fd:	bound  ebp,QWORD PTR [ecx+edi*2+0x49]
  404401:	fs outs dx,BYTE PTR gs:[esi]
  404404:	je     0x40446f
  404406:	je     0x404481
  404408:	add    BYTE PTR [edi+0x65],ah
  40440b:	je     0x40446c
  40440d:	inc    ebx
  40440e:	jne    0x404482
  404410:	jb     0x404477
  404412:	outs   dx,BYTE PTR ds:[esi]
  404413:	je     0x404468
  404415:	imul   edi,DWORD PTR [edx+0x65],0x6e495500
  40441c:	je     0x404454
  40441e:	xor    al,0x0
  404420:	inc    ebx
  404421:	ins    BYTE PTR es:[edi],dx
  404422:	outs   dx,DWORD PTR ds:[esi]
  404423:	jae    0x40448a
  404425:	add    BYTE PTR [ebp+0x6f],cl
  404428:	jbe    0x40448f
  40442a:	dec    esi
  40442b:	gs js  0x4044a2
  40442e:	add    BYTE PTR [ebx+0x74],dh
  404431:	outs   dx,DWORD PTR ds:[esi]
  404432:	jb     0x404499
  404434:	popa   
  404435:	fs ins DWORD PTR es:[edi],dx
  404437:	cs jb  0x40449f
  40443a:	jae    0x4044ab
  40443c:	jne    0x4044b0
  40443e:	arpl   WORD PTR [ebp+0x73],sp
  404441:	add    BYTE PTR [ebx+0x6f],al
  404444:	ins    DWORD PTR es:[edi],dx
  404445:	ins    DWORD PTR es:[edi],dx
  404446:	outs   dx,DWORD PTR ds:[esi]
  404447:	outs   dx,BYTE PTR ds:[esi]
  404448:	push   edx
  404449:	gs jae 0x40449f
  40444c:	je     0x4044c0
  40444e:	imul   ebp,DWORD PTR [esi+0x67],0x65722e73
  404455:	jae    0x4044c6
  404457:	jne    0x4044cb
  404459:	arpl   WORD PTR [ebp+0x73],sp
  40445c:	add    BYTE PTR [eax],al
  40445e:	add    BYTE PTR [eax],al
  404460:	add    BYTE PTR [ecx+0x4d],cl
  404463:	add    BYTE PTR [ecx+0x0],ch
  404466:	arpl   WORD PTR [eax],ax
  404468:	jb     0x40446a
  40446a:	outs   dx,DWORD PTR ds:[esi]
  40446b:	add    BYTE PTR [ebx+0x0],dh
  40446e:	outs   dx,DWORD PTR ds:[esi]
  40446f:	add    BYTE PTR [esi+0x0],ah
  404472:	je     0x404474
  404474:	pop    edi
  404475:	add    BYTE PTR [ebx+0x0],al
  404478:	outs   dx,DWORD PTR ds:[esi]
  404479:	add    BYTE PTR [eax+0x0],dh
  40447c:	jns    0x40447e
  40447e:	jb     0x404480
  404480:	imul   eax,DWORD PTR [eax],0x680067
  404486:	je     0x404488
  404488:	pop    edi
  404489:	add    BYTE PTR [ebx+0x0],al
  40448c:	outs   dx,DWORD PTR ds:[esi]
  40448d:	add    BYTE PTR [ebp+0x0],ch
  404490:	ins    DWORD PTR es:[edi],dx
  404491:	add    BYTE PTR [ecx+0x0],ah
  404494:	outs   dx,BYTE PTR ds:[esi]
  404495:	add    BYTE PTR [eax+eax*1+0x4c],ah
  404499:	add    BYTE PTR [ecx+0x0],ch
  40449c:	outs   dx,BYTE PTR ds:[esi]
  40449d:	add    BYTE PTR [ebp+0x0],ah
  4044a0:	pop    edi
  4044a1:	add    BYTE PTR [eax+eax*1+0x6f],cl
  4044a5:	add    BYTE PTR [edi+0x0],ah
  4044a8:	outs   dx,DWORD PTR ds:[esi]
  4044a9:	add    BYTE PTR [eax],al
  4044ab:	cmp    eax,0x430057
  4044b0:	inc    esi
  4044b1:	add    BYTE PTR [edi+0x0],bl
  4044b4:	push   esp
  4044b5:	add    BYTE PTR [edx+0x0],dh
  4044b8:	popa   
  4044b9:	add    BYTE PTR [eax+eax*1+0x65],ah
  4044bd:	add    BYTE PTR [ebp+0x0],ch
  4044c0:	popa   
  4044c1:	add    BYTE PTR [edx+0x0],dh
  4044c4:	imul   eax,DWORD PTR [eax],0x5f
  4044c7:	add    BYTE PTR [ebx+0x0],al
  4044ca:	outs   dx,DWORD PTR ds:[esi]
  4044cb:	add    BYTE PTR [ebp+0x0],ch
  4044ce:	ins    DWORD PTR es:[edi],dx
  4044cf:	add    BYTE PTR [ecx+0x0],ah
  4044d2:	outs   dx,BYTE PTR ds:[esi]
  4044d3:	add    BYTE PTR [eax+eax*1+0x4c],ah
  4044d7:	add    BYTE PTR [ecx+0x0],ch
  4044da:	outs   dx,BYTE PTR ds:[esi]
  4044db:	add    BYTE PTR [ebp+0x0],ah
  4044de:	pop    edi
  4044df:	add    BYTE PTR [eax+eax*1+0x6f],cl
  4044e3:	add    BYTE PTR [edi+0x0],ah
  4044e6:	outs   dx,DWORD PTR ds:[esi]
  4044e7:	add    BYTE PTR [eax],al
  4044e9:	and    DWORD PTR [ebx+0x0],eax
  4044ec:	outs   dx,DWORD PTR ds:[esi]
  4044ed:	add    BYTE PTR [ebp+0x0],ch
  4044f0:	ins    DWORD PTR es:[edi],dx
  4044f1:	add    BYTE PTR [edi+0x0],ch
  4044f4:	outs   dx,BYTE PTR ds:[esi]
  4044f5:	add    BYTE PTR [edx+0x0],dl
  4044f8:	add    BYTE PTR gs:[ebx+0x0],dh
  4044fc:	push   ebx
  4044fd:	add    BYTE PTR [eax+eax*1+0x72],dh
  404501:	add    BYTE PTR [ecx+0x0],ch
  404504:	outs   dx,BYTE PTR ds:[esi]
  404505:	add    BYTE PTR [edi+0x0],ah
  404508:	jae    0x40450a
  40450a:	add    BYTE PTR ds:0x730055,cl
  404510:	popa   
  404511:	add    BYTE PTR [edi+0x0],ah
  404514:	add    BYTE PTR gs:[ecx],dh
  404517:	add    BYTE PTR [eax],al
  404519:	or     eax,0x730055
  40451e:	popa   
  40451f:	add    BYTE PTR [edi+0x0],ah
  404522:	add    BYTE PTR gs:[edx],dh
  404525:	add    BYTE PTR [eax],al
  404527:	or     eax,0x730055
  40452c:	popa   
  40452d:	add    BYTE PTR [edi+0x0],ah
  404530:	add    BYTE PTR gs:[ebx],dh
  404533:	add    BYTE PTR [eax],al
  404535:	or     eax,0x730055
  40453a:	popa   
  40453b:	add    BYTE PTR [edi+0x0],ah
  40453e:	add    BYTE PTR gs:[eax+eax*1],dh
  404542:	add    BYTE PTR ds:0x730055,cl
  404548:	popa   
  404549:	add    BYTE PTR [edi+0x0],ah
  40454c:	add    BYTE PTR gs:0x550d0000,dh
  404553:	add    BYTE PTR [ebx+0x0],dh
  404556:	popa   
  404557:	add    BYTE PTR [edi+0x0],ah
  40455a:	add    BYTE PTR gs:[esi],dh
  40455d:	add    BYTE PTR [eax],al
  40455f:	or     eax,0x730055
  404564:	popa   
  404565:	add    BYTE PTR [edi+0x0],ah
  404568:	add    BYTE PTR gs:[edi],dh
  40456b:	add    BYTE PTR [eax],al
  40456d:	adc    eax,0x6f0043
  404572:	jo     0x404574
  404574:	jns    0x404576
  404576:	jb     0x404578
  404578:	imul   eax,DWORD PTR [eax],0x680067
  40457e:	je     0x404580
  404580:	xor    DWORD PTR [eax],eax
  404582:	add    BYTE PTR [ecx],bl
  404584:	and    BYTE PTR [eax],al
  404586:	xor    eax,DWORD PTR [eax]
  404588:	add    BYTE PTR cs:0x33002e00,dh
  40458f:	add    BYTE PTR [eax],dh
  404591:	add    BYTE PTR [edi],dh
  404593:	add    BYTE PTR [edx],dh
  404595:	add    BYTE PTR [ecx],bh
  404597:	add    BYTE PTR [esi],ch
  404599:	add    BYTE PTR [ecx],dh
  40459b:	add    BYTE PTR [eax],al
  40459d:	sbb    eax,0x6e0055
  4045a2:	imul   eax,DWORD PTR [eax],0x6e
  4045a5:	add    BYTE PTR [edi+0x0],ch
  4045a8:	ja     0x4045aa
  4045aa:	outs   dx,BYTE PTR ds:[esi]
  4045ab:	add    BYTE PTR [edi+0x0],bl
  4045ae:	dec    edi
  4045af:	add    BYTE PTR [eax+0x0],dh
  4045b2:	je     0x4045b4
  4045b4:	imul   eax,DWORD PTR [eax],0x6e006f
  4045ba:	add    BYTE PTR [ebx],al
  4045bc:	and    BYTE PTR [eax],al
  4045be:	add    BYTE PTR [ebx],ah
  4045c0:	dec    ecx
  4045c1:	add    BYTE PTR [esi+0x0],ch
  4045c4:	jbe    0x4045c6
  4045c6:	popa   
  4045c7:	add    BYTE PTR [eax+eax*1+0x69],ch
  4045cb:	add    BYTE PTR [eax+eax*1+0x5f],ah
  4045cf:	add    BYTE PTR [edi+0x0],cl
  4045d2:	jo     0x4045d4
  4045d4:	je     0x4045d6
  4045d6:	imul   eax,DWORD PTR [eax],0x6e006f
  4045dc:	pop    edi
  4045dd:	add    BYTE PTR [edx+0x0],dl
  4045e0:	dec    ebp
  4045e1:	add    BYTE PTR [eax],al
  4045e3:	sbb    edx,DWORD PTR [ebp+0x0]
  4045e6:	outs   dx,BYTE PTR ds:[esi]
  4045e7:	add    BYTE PTR [ebx+0x0],ch
  4045ea:	outs   dx,BYTE PTR ds:[esi]
  4045eb:	add    BYTE PTR [edi+0x0],ch
  4045ee:	ja     0x4045f0
  4045f0:	outs   dx,BYTE PTR ds:[esi]
  4045f1:	add    BYTE PTR [edi+0x0],bl
  4045f4:	inc    ebp
  4045f5:	add    BYTE PTR [edx+0x0],dh
  4045f8:	jb     0x4045fa
  4045fa:	outs   dx,DWORD PTR ds:[esi]
  4045fb:	add    BYTE PTR [edx+0x0],dh
  4045fe:	add    BYTE PTR [ecx],bl
  404600:	push   edx
  404601:	add    BYTE PTR [ebp+0x0],ah
  404604:	ins    DWORD PTR es:[edi],dx
  404605:	add    BYTE PTR [edi+0x0],ch
  404608:	jbe    0x40460a
  40460a:	add    BYTE PTR gs:[edi+0x0],bl
  40460e:	inc    ebp
  40460f:	add    BYTE PTR [edx+0x0],dh
  404612:	jb     0x404614
  404614:	outs   dx,DWORD PTR ds:[esi]
  404615:	add    BYTE PTR [edx+0x0],dh
  404618:	add    BYTE PTR [ebx],bl
  40461a:	push   edx
  40461b:	add    BYTE PTR [ebp+0x0],ah
  40461e:	arpl   WORD PTR [eax],ax
  404620:	outs   dx,DWORD PTR ds:[esi]
  404621:	add    BYTE PTR [edx+0x0],dh
  404624:	add    BYTE PTR fs:[edi+0x0],bl
  404628:	dec    esi
  404629:	add    BYTE PTR [ebp+0x0],dh
  40462c:	ins    DWORD PTR es:[edi],dx
  40462d:	add    BYTE PTR [edx+0x0],ah
  404630:	add    BYTE PTR gs:[edx+0x0],dh
  404634:	add    BYTE PTR [edi],dl
  404636:	inc    ecx
  404637:	add    BYTE PTR [eax+0x0],dh
  40463a:	jo     0x40463c
  40463c:	ins    BYTE PTR es:[edi],dx
  40463d:	add    BYTE PTR [ecx+0x0],ch
  404640:	arpl   WORD PTR [eax],ax
  404642:	popa   
  404643:	add    BYTE PTR [eax+eax*1+0x69],dh
  404647:	add    BYTE PTR [edi+0x0],ch
  40464a:	outs   dx,BYTE PTR ds:[esi]
  40464b:	add    BYTE PTR [eax],al
  40464d:	or     eax,0x6f0044
  404652:	ins    DWORD PTR es:[edi],dx
  404653:	add    BYTE PTR [ecx+0x0],ah
  404656:	imul   eax,DWORD PTR [eax],0x1100006e
  40465c:	inc    ecx
  40465d:	add    BYTE PTR [ebx+0x0],dh
  404660:	jae    0x404662
  404662:	add    BYTE PTR gs:[ebp+0x0],ch
  404666:	bound  eax,QWORD PTR [eax]
  404668:	ins    BYTE PTR es:[edi],dx
  404669:	add    BYTE PTR [ecx+0x0],bh
  40466c:	add    BYTE PTR [ebx],al
  40466e:	or     DWORD PTR [eax],eax
  404670:	add    BYTE PTR [ecx],cl
  404672:	push   ebx
  404673:	add    BYTE PTR [ecx+0x0],ch
  404676:	jp     0x404678
  404678:	add    BYTE PTR gs:[eax],al
  40467b:	adc    DWORD PTR [ebx+0x0],esi
  40467e:	je     0x404680
  404680:	outs   dx,DWORD PTR ds:[esi]
  404681:	add    BYTE PTR [edx+0x0],dh
  404684:	add    BYTE PTR gs:[ecx+0x0],ah
  404688:	add    BYTE PTR fs:[ebp+0x0],ch
  40468c:	add    BYTE PTR [edi],cl
  40468e:	add    BYTE PTR [bx+0x0],bl
  404692:	push   0x6c006500
  404697:	add    BYTE PTR [eax+0x0],dh
  40469a:	xor    BYTE PTR [eax],al
  40469c:	add    BYTE PTR [edi],cl
  40469e:	add    BYTE PTR [bx+0x0],bl
  4046a2:	push   0x6c006500
  4046a7:	add    BYTE PTR [eax+0x0],dh
  4046aa:	xor    DWORD PTR [eax],eax
  4046ac:	add    BYTE PTR [edi],cl
  4046ae:	add    BYTE PTR [bx+0x0],bl
  4046b2:	push   0x6c006500
  4046b7:	add    BYTE PTR [eax+0x0],dh
  4046ba:	xor    al,BYTE PTR [eax]
  4046bc:	add    BYTE PTR [edi],cl
  4046be:	add    BYTE PTR [bx+0x0],bl
  4046c2:	push   0x6c006500
  4046c7:	add    BYTE PTR [eax+0x0],dh
  4046ca:	xor    eax,DWORD PTR [eax]
  4046cc:	add    BYTE PTR [edi],cl
  4046ce:	add    BYTE PTR [bx+0x0],bl
  4046d2:	push   0x6c006500
  4046d7:	add    BYTE PTR [eax+0x0],dh
  4046da:	xor    al,0x0
  4046dc:	add    BYTE PTR [edi],cl
  4046de:	add    BYTE PTR [bx+0x0],bl
  4046e2:	push   0x6c006500
  4046e7:	add    BYTE PTR [eax+0x0],dh
  4046ea:	xor    eax,0x670f0000
  4046ef:	add    BYTE PTR [edi+0x0],bl
  4046f2:	push   0x6c006500
  4046f7:	add    BYTE PTR [eax+0x0],dh
  4046fa:	add    BYTE PTR ss:[eax],al
  4046fd:	or     eax,0x5f0067
  404702:	push   0x6c006500
  404707:	add    BYTE PTR [eax+0x0],dh
  40470a:	add    BYTE PTR ds:0x5f0067,cl
  404710:	ins    BYTE PTR es:[edi],dx
  404711:	add    BYTE PTR [ecx+0x0],ch
  404714:	jae    0x404716
  404716:	je     0x404718
  404718:	add    BYTE PTR [ebx],dl
  40471a:	add    BYTE PTR [bx+0x0],bl
  40471e:	ins    DWORD PTR es:[edi],dx
  40471f:	add    BYTE PTR [ecx+0x0],ah
  404722:	arpl   WORD PTR [eax],ax
  404724:	push   0x6e006900
  404729:	add    BYTE PTR [ebp+0x0],ah
  40472c:	add    BYTE PTR [ebx],dl
  40472e:	add    BYTE PTR [bx+0x0],bl
  404732:	jb     0x404734
  404734:	outs   dx,DWORD PTR ds:[esi]
  404735:	add    BYTE PTR [ecx+0x0],ah
  404738:	ins    DWORD PTR es:[edi],dx
  404739:	add    BYTE PTR [ecx+0x0],ch
  40473c:	outs   dx,BYTE PTR ds:[esi]
  40473d:	add    BYTE PTR [edi+0x0],ah
  404740:	add    BYTE PTR [ecx],dl
  404742:	add    BYTE PTR [bx+0x0],bl
  404746:	jb     0x404748
  404748:	add    BYTE PTR gs:[ebp+0x0],ch
  40474c:	outs   dx,DWORD PTR ds:[esi]
  40474d:	add    BYTE PTR [esi+0x0],dh
  404750:	add    BYTE PTR gs:[eax],al
  404753:	packuswb mm0,QWORD PTR [eax]
  404756:	pop    edi
  404757:	add    BYTE PTR [ecx+0x0],dh
  40475a:	jne    0x40475c
  40475c:	imul   eax,DWORD PTR [eax],0x740065
  404762:	add    BYTE PTR [eax],al
  404764:	adc    ah,BYTE PTR [ebp+eiz*4+0x1c]
  404768:	jbe    0x404718
  40476a:	out    dx,al
  40476b:	inc    ebx
  40476c:	xchg   ebx,eax
  40476d:	aad    0x9c
  40476f:	mov    ecx,0xc94c2e8a
  404774:	add    BYTE PTR [eax],cl
  404776:	mov    bh,0x7a
  404778:	pop    esp
  404779:	push   esi
  40477a:	sbb    DWORD PTR [eax+eiz*8],esi
  40477d:	mov    DWORD PTR [edx],eax
  40477f:	push   es
  404780:	push   cs
  404781:	push   cs
  404782:	xor    al,BYTE PTR [eax]
  404784:	add    BYTE PTR cs:[eax],dh
  404787:	add    BYTE PTR [esi],ch
  404789:	add    BYTE PTR [eax],dh
  40478b:	add    BYTE PTR [esi],ch
  40478d:	add    BYTE PTR [eax],dh
  40478f:	add    BYTE PTR [esi],cl
  404791:	xor    eax,DWORD PTR [eax]
  404793:	add    BYTE PTR cs:0x30002e00,dh
  40479a:	add    BYTE PTR [esi],ch
  40479c:	add    BYTE PTR [eax],dh
  40479e:	add    BYTE PTR [eax],bl
  4047a0:	jae    0x4047a2
  4047a2:	je     0x4047a4
  4047a4:	outs   dx,DWORD PTR ds:[esi]
  4047a5:	add    BYTE PTR [edx+0x0],dh
  4047a8:	add    BYTE PTR gs:[ecx+0x0],ah
  4047ac:	add    BYTE PTR fs:[ebp+0x0],ch
  4047b0:	add    BYTE PTR cs:[ebp+0x0],ah
  4047b4:	js     0x4047b6
  4047b6:	add    BYTE PTR gs:[ecx+ebp*4+0x0],bl
  4047bb:	and    BYTE PTR [eax],al
  4047bd:	dec    ebp
  4047be:	add    BYTE PTR [ecx+0x0],ch
  4047c1:	arpl   WORD PTR [eax],ax
  4047c3:	jb     0x4047c5
  4047c5:	outs   dx,DWORD PTR ds:[esi]
  4047c6:	add    BYTE PTR [ebx+0x0],dh
  4047c9:	outs   dx,DWORD PTR ds:[esi]
  4047ca:	add    BYTE PTR [esi+0x0],ah
  4047cd:	je     0x4047cf
  4047cf:	and    BYTE PTR [eax],al
  4047d1:	inc    ebx
  4047d2:	add    BYTE PTR [edi+0x0],ch
  4047d5:	jb     0x4047d7
  4047d7:	jo     0x4047d9
  4047d9:	outs   dx,DWORD PTR ds:[esi]
  4047da:	add    BYTE PTR [edx+0x0],dh
  4047dd:	popa   
  4047de:	add    BYTE PTR [eax+eax*1+0x69],dh
  4047e2:	add    BYTE PTR [edi+0x0],ch
  4047e5:	outs   dx,BYTE PTR ds:[esi]
  4047e6:	add    BYTE PTR [esi],ch
  4047e8:	add    BYTE PTR [eax],ah
  4047ea:	add    BYTE PTR [eax],ah
  4047ec:	add    BYTE PTR [ecx+0x0],al
  4047ef:	ins    BYTE PTR es:[edi],dx
  4047f0:	add    BYTE PTR [eax+eax*1+0x20],ch
  4047f4:	add    BYTE PTR [edx+0x0],dh
  4047f7:	imul   eax,DWORD PTR [eax],0x680067
  4047fd:	je     0x4047ff
  4047ff:	jae    0x404801
  404801:	and    BYTE PTR [eax],al
  404803:	jb     0x404805
  404805:	add    BYTE PTR gs:[ebx+0x0],dh
  404809:	add    BYTE PTR gs:[edx+0x0],dh
  40480d:	jbe    0x40480f
  40480f:	add    BYTE PTR gs:[eax+eax*1+0x2e],ah
  404814:	add    BYTE PTR [esi],dl
  404816:	xor    eax,DWORD PTR [eax]
  404818:	add    BYTE PTR cs:0x33002e00,dh
  40481f:	add    BYTE PTR [eax],dh
  404821:	add    BYTE PTR [edi],dh
  404823:	add    BYTE PTR [edx],dh
  404825:	add    BYTE PTR [ecx],bh
  404827:	add    BYTE PTR [esi],ch
  404829:	add    BYTE PTR [ecx],dh
  40482b:	add    BYTE PTR [edx],al
  40482d:	push   es
  40482e:	or     BYTE PTR [ecx+ecx*1],al
  404831:	js     0x404833
  404833:	add    BYTE PTR [eax],ah
  404835:	bound  eax,QWORD PTR [eax]
  404837:	aaa    
  404838:	add    BYTE PTR [edi],dh
  40483a:	add    BYTE PTR [ecx+0x0],ah
  40483d:	xor    eax,0x35006300
  404842:	add    BYTE PTR [esi],dh
  404844:	add    BYTE PTR [ecx],dh
  404846:	add    BYTE PTR [ecx],bh
  404848:	add    BYTE PTR [ebx],dh
  40484a:	add    BYTE PTR [eax+eax*1],dh
  40484d:	add    BYTE PTR gs:[eax],dh
  404850:	add    BYTE PTR [eax],bh
  404852:	add    BYTE PTR [ecx],bh
  404854:	add    BYTE PTR [eax+0x30],al
  404857:	add    BYTE PTR [eax],dh
  404859:	add    BYTE PTR [eax],dh
  40485b:	add    BYTE PTR [eax],dh
  40485d:	add    BYTE PTR [eax],dh
  40485f:	add    BYTE PTR [eax],dh
  404861:	add    BYTE PTR [eax],dh
  404863:	add    BYTE PTR [eax],dh
  404865:	add    BYTE PTR [eax],dh
  404867:	add    BYTE PTR [eax],dh
  404869:	add    BYTE PTR [eax],dh
  40486b:	add    BYTE PTR [eax],dh
  40486d:	add    BYTE PTR [eax],dh
  40486f:	add    BYTE PTR [eax],dh
  404871:	add    BYTE PTR [eax],dh
  404873:	add    BYTE PTR [eax],dh
  404875:	add    BYTE PTR [eax],dh
  404877:	add    BYTE PTR [eax+eax*1],dh
  40487a:	xor    BYTE PTR [eax],al
  40487c:	xor    BYTE PTR [eax],al
  40487e:	xor    BYTE PTR [eax],al
  404880:	xor    BYTE PTR [eax],al
  404882:	xor    BYTE PTR [eax],al
  404884:	xor    BYTE PTR [eax],al
  404886:	xor    BYTE PTR [eax],al
  404888:	xor    BYTE PTR [eax],al
  40488a:	xor    BYTE PTR [eax],al
  40488c:	xor    BYTE PTR [eax],al
  40488e:	xor    BYTE PTR [eax],al
  404890:	xor    BYTE PTR [eax],al
  404892:	xor    BYTE PTR [eax],al
  404894:	xor    BYTE PTR [eax],al
  404896:	adc    BYTE PTR [esi+0x73006d],0x63
  40489d:	add    BYTE PTR [edi+0x0],ch
  4048a0:	jb     0x4048a2
  4048a2:	ins    BYTE PTR es:[edi],dx
  4048a3:	add    BYTE PTR [ecx+0x0],ch
  4048a6:	bound  eax,QWORD PTR [eax]
  4048a8:	sub    al,0x0
  4048aa:	and    BYTE PTR [eax],al
  4048ac:	push   esi
  4048ad:	add    BYTE PTR [ebp+0x0],ah
  4048b0:	jb     0x4048b2
  4048b2:	jae    0x4048b4
  4048b4:	imul   eax,DWORD PTR [eax],0x6e006f
  4048ba:	cmp    eax,0x2e003200
  4048bf:	add    BYTE PTR [eax],dh
  4048c1:	add    BYTE PTR [esi],ch
  4048c3:	add    BYTE PTR [eax],dh
  4048c5:	add    BYTE PTR [esi],ch
  4048c7:	add    BYTE PTR [eax],dh
  4048c9:	add    BYTE PTR [eax+eax*1],ch
  4048cc:	and    BYTE PTR [eax],al
  4048ce:	inc    ebx
  4048cf:	add    BYTE PTR [ebp+0x0],dh
  4048d2:	ins    BYTE PTR es:[edi],dx
  4048d3:	add    BYTE PTR [eax+eax*1+0x75],dh
  4048d7:	add    BYTE PTR [edx+0x0],dh
  4048da:	add    BYTE PTR gs:0x65006e00,bh
  4048e1:	add    BYTE PTR [ebp+0x0],dh
  4048e4:	je     0x4048e6
  4048e6:	jb     0x4048e8
  4048e8:	popa   
  4048e9:	add    BYTE PTR [eax+eax*1+0x2c],ch
  4048ed:	add    BYTE PTR [eax],ah
  4048ef:	add    BYTE PTR [eax+0x0],dl
  4048f2:	jne    0x4048f4
  4048f4:	bound  eax,QWORD PTR [eax]
  4048f6:	ins    BYTE PTR es:[edi],dx
  4048f7:	add    BYTE PTR [ecx+0x0],ch
  4048fa:	arpl   WORD PTR [eax],ax
  4048fc:	dec    ebx
  4048fd:	add    BYTE PTR [ebp+0x0],ah
  404900:	jns    0x404902
  404902:	push   esp
  404903:	add    BYTE PTR [edi+0x0],ch
  404906:	imul   eax,DWORD PTR [eax],0x65
  404909:	add    BYTE PTR [esi+0x0],ch
  40490c:	cmp    eax,0x37006200
  404911:	add    BYTE PTR [edi],dh
  404913:	add    BYTE PTR [ecx+0x0],ah
  404916:	xor    eax,0x35006300
  40491b:	add    BYTE PTR [esi],dh
  40491d:	add    BYTE PTR [ecx],dh
  40491f:	add    BYTE PTR [ecx],bh
  404921:	add    BYTE PTR [ebx],dh
  404923:	add    BYTE PTR [eax+eax*1],dh
  404926:	add    BYTE PTR gs:[eax],dh
  404929:	add    BYTE PTR [eax],bh
  40492b:	add    BYTE PTR [ecx],bh
  40492d:	add    BYTE PTR [eax+0x7900539c],al
  404933:	add    BYTE PTR [ebx+0x0],dh
  404936:	je     0x404938
  404938:	add    BYTE PTR gs:[ebp+0x0],ch
  40493c:	add    BYTE PTR cs:[eax+eax*1+0x61],al
  404941:	add    BYTE PTR [eax+eax*1+0x61],dh
  404945:	add    BYTE PTR [eax+eax*1],ch
  404948:	and    BYTE PTR [eax],al
  40494a:	push   esi
  40494b:	add    BYTE PTR [ebp+0x0],ah
  40494e:	jb     0x404950
  404950:	jae    0x404952
  404952:	imul   eax,DWORD PTR [eax],0x6e006f
  404958:	cmp    eax,0x2e003200
  40495d:	add    BYTE PTR [eax],dh
  40495f:	add    BYTE PTR [esi],ch
  404961:	add    BYTE PTR [eax],dh
  404963:	add    BYTE PTR [esi],ch
  404965:	add    BYTE PTR [eax],dh
  404967:	add    BYTE PTR [eax+eax*1],ch
  40496a:	and    BYTE PTR [eax],al
  40496c:	inc    ebx
  40496d:	add    BYTE PTR [ebp+0x0],dh
  404970:	ins    BYTE PTR es:[edi],dx
  404971:	add    BYTE PTR [eax+eax*1+0x75],dh
  404975:	add    BYTE PTR [edx+0x0],dh
  404978:	add    BYTE PTR gs:0x65006e00,bh
  40497f:	add    BYTE PTR [ebp+0x0],dh
  404982:	je     0x404984
  404984:	jb     0x404986
  404986:	popa   
  404987:	add    BYTE PTR [eax+eax*1+0x2c],ch
  40498b:	add    BYTE PTR [eax],ah
  40498d:	add    BYTE PTR [eax+0x0],dl
  404990:	jne    0x404992
  404992:	bound  eax,QWORD PTR [eax]
  404994:	ins    BYTE PTR es:[edi],dx
  404995:	add    BYTE PTR [ecx+0x0],ch
  404998:	arpl   WORD PTR [eax],ax
  40499a:	dec    ebx
  40499b:	add    BYTE PTR [ebp+0x0],ah
  40499e:	jns    0x4049a0
  4049a0:	push   esp
  4049a1:	add    BYTE PTR [edi+0x0],ch
  4049a4:	imul   eax,DWORD PTR [eax],0x65
  4049a7:	add    BYTE PTR [esi+0x0],ch
  4049aa:	cmp    eax,0x37006200
  4049af:	add    BYTE PTR [edi],dh
  4049b1:	add    BYTE PTR [ecx+0x0],ah
  4049b4:	xor    eax,0x35006300
  4049b9:	add    BYTE PTR [esi],dh
  4049bb:	add    BYTE PTR [ecx],dh
  4049bd:	add    BYTE PTR [ecx],bh
  4049bf:	add    BYTE PTR [ebx],dh
  4049c1:	add    BYTE PTR [eax+eax*1],dh
  4049c4:	add    BYTE PTR gs:[eax],dh
  4049c7:	add    BYTE PTR [eax],bh
  4049c9:	add    BYTE PTR [ecx],bh
  4049cb:	add    BYTE PTR [eax+0x790053b6],al
  4049d1:	add    BYTE PTR [ebx+0x0],dh
  4049d4:	je     0x4049d6
  4049d6:	add    BYTE PTR gs:[ebp+0x0],ch
  4049da:	add    BYTE PTR cs:[eax+eax*1+0x61],al
  4049df:	add    BYTE PTR [eax+eax*1+0x61],dh
  4049e3:	add    BYTE PTR [esi],ch
  4049e5:	add    BYTE PTR [edi+0x0],cl
  4049e8:	jb     0x4049ea
  4049ea:	popa   
  4049eb:	add    BYTE PTR [ebx+0x0],ah
  4049ee:	ins    BYTE PTR es:[edi],dx
  4049ef:	add    BYTE PTR [ebp+0x0],ah
  4049f2:	inc    ebx
  4049f3:	add    BYTE PTR [eax+eax*1+0x69],ch
  4049f7:	add    BYTE PTR [ebp+0x0],ah
  4049fa:	outs   dx,BYTE PTR ds:[esi]
  4049fb:	add    BYTE PTR [eax+eax*1+0x2c],dh
  4049ff:	add    BYTE PTR [eax],ah
  404a01:	add    BYTE PTR [esi+0x0],dl
  404a04:	add    BYTE PTR gs:[edx+0x0],dh
  404a08:	jae    0x404a0a
  404a0a:	imul   eax,DWORD PTR [eax],0x6e006f
  404a10:	cmp    eax,0x2e003200
  404a15:	add    BYTE PTR [eax],dh
  404a17:	add    BYTE PTR [esi],ch
  404a19:	add    BYTE PTR [eax],dh
  404a1b:	add    BYTE PTR [esi],ch
  404a1d:	add    BYTE PTR [eax],dh
  404a1f:	add    BYTE PTR [eax+eax*1],ch
  404a22:	and    BYTE PTR [eax],al
  404a24:	inc    ebx
  404a25:	add    BYTE PTR [ebp+0x0],dh
  404a28:	ins    BYTE PTR es:[edi],dx
  404a29:	add    BYTE PTR [eax+eax*1+0x75],dh
  404a2d:	add    BYTE PTR [edx+0x0],dh
  404a30:	add    BYTE PTR gs:0x65006e00,bh
  404a37:	add    BYTE PTR [ebp+0x0],dh
  404a3a:	je     0x404a3c
  404a3c:	jb     0x404a3e
  404a3e:	popa   
  404a3f:	add    BYTE PTR [eax+eax*1+0x2c],ch
  404a43:	add    BYTE PTR [eax],ah
  404a45:	add    BYTE PTR [eax+0x0],dl
  404a48:	jne    0x404a4a
  404a4a:	bound  eax,QWORD PTR [eax]
  404a4c:	ins    BYTE PTR es:[edi],dx
  404a4d:	add    BYTE PTR [ecx+0x0],ch
  404a50:	arpl   WORD PTR [eax],ax
  404a52:	dec    ebx
  404a53:	add    BYTE PTR [ebp+0x0],ah
  404a56:	jns    0x404a58
  404a58:	push   esp
  404a59:	add    BYTE PTR [edi+0x0],ch
  404a5c:	imul   eax,DWORD PTR [eax],0x65
  404a5f:	add    BYTE PTR [esi+0x0],ch
  404a62:	cmp    eax,0x37006200
  404a67:	add    BYTE PTR [edi],dh
  404a69:	add    BYTE PTR [ecx+0x0],ah
  404a6c:	xor    eax,0x35006300
  404a71:	add    BYTE PTR [esi],dh
  404a73:	add    BYTE PTR [ecx],dh
  404a75:	add    BYTE PTR [ecx],bh
  404a77:	add    BYTE PTR [ebx],dh
  404a79:	add    BYTE PTR [eax+eax*1],dh
  404a7c:	add    BYTE PTR gs:[eax],dh
  404a7f:	add    BYTE PTR [eax],bh
  404a81:	add    BYTE PTR [ecx],bh
  404a83:	add    BYTE PTR [eax+0x79005392],al
  404a89:	add    BYTE PTR [ebx+0x0],dh
  404a8c:	je     0x404a8e
  404a8e:	add    BYTE PTR gs:[ebp+0x0],ch
  404a92:	sub    al,0x0
  404a94:	and    BYTE PTR [eax],al
  404a96:	push   esi
  404a97:	add    BYTE PTR [ebp+0x0],ah
  404a9a:	jb     0x404a9c
  404a9c:	jae    0x404a9e
  404a9e:	imul   eax,DWORD PTR [eax],0x6e006f
  404aa4:	cmp    eax,0x2e003200
  404aa9:	add    BYTE PTR [eax],dh
  404aab:	add    BYTE PTR [esi],ch
  404aad:	add    BYTE PTR [eax],dh
  404aaf:	add    BYTE PTR [esi],ch
  404ab1:	add    BYTE PTR [eax],dh
  404ab3:	add    BYTE PTR [eax+eax*1],ch
  404ab6:	and    BYTE PTR [eax],al
  404ab8:	inc    ebx
  404ab9:	add    BYTE PTR [ebp+0x0],dh
  404abc:	ins    BYTE PTR es:[edi],dx
  404abd:	add    BYTE PTR [eax+eax*1+0x75],dh
  404ac1:	add    BYTE PTR [edx+0x0],dh
  404ac4:	add    BYTE PTR gs:0x65006e00,bh
  404acb:	add    BYTE PTR [ebp+0x0],dh
  404ace:	je     0x404ad0
  404ad0:	jb     0x404ad2
  404ad2:	popa   
  404ad3:	add    BYTE PTR [eax+eax*1+0x2c],ch
  404ad7:	add    BYTE PTR [eax],ah
  404ad9:	add    BYTE PTR [eax+0x0],dl
  404adc:	jne    0x404ade
  404ade:	bound  eax,QWORD PTR [eax]
  404ae0:	ins    BYTE PTR es:[edi],dx
  404ae1:	add    BYTE PTR [ecx+0x0],ch
  404ae4:	arpl   WORD PTR [eax],ax
  404ae6:	dec    ebx
  404ae7:	add    BYTE PTR [ebp+0x0],ah
  404aea:	jns    0x404aec
  404aec:	push   esp
  404aed:	add    BYTE PTR [edi+0x0],ch
  404af0:	imul   eax,DWORD PTR [eax],0x65
  404af3:	add    BYTE PTR [esi+0x0],ch
  404af6:	cmp    eax,0x37006200
  404afb:	add    BYTE PTR [edi],dh
  404afd:	add    BYTE PTR [ecx+0x0],ah
  404b00:	xor    eax,0x35006300
  404b05:	add    BYTE PTR [esi],dh
  404b07:	add    BYTE PTR [ecx],dh
  404b09:	add    BYTE PTR [ecx],bh
  404b0b:	add    BYTE PTR [ebx],dh
  404b0d:	add    BYTE PTR [eax+eax*1],dh
  404b10:	add    BYTE PTR gs:[eax],dh
  404b13:	add    BYTE PTR [eax],bh
  404b15:	add    BYTE PTR [ecx],bh
  404b17:	add    BYTE PTR [eax+0x790053b4],al
  404b1d:	add    BYTE PTR [ebx+0x0],dh
  404b20:	je     0x404b22
  404b22:	add    BYTE PTR gs:[ebp+0x0],ch
  404b26:	add    BYTE PTR cs:[edx+0x0],dl
  404b2a:	jne    0x404b2c
  404b2c:	outs   dx,BYTE PTR ds:[esi]
  404b2d:	add    BYTE PTR [eax+eax*1+0x69],dh
  404b31:	add    BYTE PTR [ebp+0x0],ch
  404b34:	add    BYTE PTR gs:[esi],ch
  404b37:	add    BYTE PTR [edx+0x0],dl
  404b3a:	add    BYTE PTR gs:[ebp+0x0],ch
  404b3e:	outs   dx,DWORD PTR ds:[esi]
  404b3f:	add    BYTE PTR [eax+eax*1+0x69],dh
  404b43:	add    BYTE PTR [esi+0x0],ch
  404b46:	add    BYTE PTR [si],ch
  404b49:	add    BYTE PTR [eax],ah
  404b4b:	add    BYTE PTR [esi+0x0],dl
  404b4e:	add    BYTE PTR gs:[edx+0x0],dh
  404b52:	jae    0x404b54
  404b54:	imul   eax,DWORD PTR [eax],0x6e006f
  404b5a:	cmp    eax,0x2e003200
  404b5f:	add    BYTE PTR [eax],dh
  404b61:	add    BYTE PTR [esi],ch
  404b63:	add    BYTE PTR [eax],dh
  404b65:	add    BYTE PTR [esi],ch
  404b67:	add    BYTE PTR [eax],dh
  404b69:	add    BYTE PTR [eax+eax*1],ch
  404b6c:	and    BYTE PTR [eax],al
  404b6e:	inc    ebx
  404b6f:	add    BYTE PTR [ebp+0x0],dh
  404b72:	ins    BYTE PTR es:[edi],dx
  404b73:	add    BYTE PTR [eax+eax*1+0x75],dh
  404b77:	add    BYTE PTR [edx+0x0],dh
  404b7a:	add    BYTE PTR gs:0x65006e00,bh
  404b81:	add    BYTE PTR [ebp+0x0],dh
  404b84:	je     0x404b86
  404b86:	jb     0x404b88
  404b88:	popa   
  404b89:	add    BYTE PTR [eax+eax*1+0x2c],ch
  404b8d:	add    BYTE PTR [eax],ah
  404b8f:	add    BYTE PTR [eax+0x0],dl
  404b92:	jne    0x404b94
  404b94:	bound  eax,QWORD PTR [eax]
  404b96:	ins    BYTE PTR es:[edi],dx
  404b97:	add    BYTE PTR [ecx+0x0],ch
  404b9a:	arpl   WORD PTR [eax],ax
  404b9c:	dec    ebx
  404b9d:	add    BYTE PTR [ebp+0x0],ah
  404ba0:	jns    0x404ba2
  404ba2:	push   esp
  404ba3:	add    BYTE PTR [edi+0x0],ch
  404ba6:	imul   eax,DWORD PTR [eax],0x65
  404ba9:	add    BYTE PTR [esi+0x0],ch
  404bac:	cmp    eax,0x37006200
  404bb1:	add    BYTE PTR [edi],dh
  404bb3:	add    BYTE PTR [ecx+0x0],ah
  404bb6:	xor    eax,0x35006300
  404bbb:	add    BYTE PTR [esi],dh
  404bbd:	add    BYTE PTR [ecx],dh
  404bbf:	add    BYTE PTR [ecx],bh
  404bc1:	add    BYTE PTR [ebx],dh
  404bc3:	add    BYTE PTR [eax+eax*1],dh
  404bc6:	add    BYTE PTR gs:[eax],dh
  404bc9:	add    BYTE PTR [eax],bh
  404bcb:	add    BYTE PTR [ecx],bh
  404bcd:	add    BYTE PTR [eax+0x790053ae],al
  404bd3:	add    BYTE PTR [ebx+0x0],dh
  404bd6:	je     0x404bd8
  404bd8:	add    BYTE PTR gs:[ebp+0x0],ch
  404bdc:	add    BYTE PTR cs:[edi+0x0],dl
  404be0:	imul   eax,DWORD PTR [eax],0x64006e
  404be6:	outs   dx,DWORD PTR ds:[esi]
  404be7:	add    BYTE PTR [edi+0x0],dh
  404bea:	jae    0x404bec
  404bec:	add    BYTE PTR cs:[esi+0x0],al
  404bf0:	outs   dx,DWORD PTR ds:[esi]
  404bf1:	add    BYTE PTR [edx+0x0],dh
  404bf4:	ins    DWORD PTR es:[edi],dx
  404bf5:	add    BYTE PTR [ebx+0x0],dh
  404bf8:	sub    al,0x0
  404bfa:	and    BYTE PTR [eax],al
  404bfc:	push   esi
  404bfd:	add    BYTE PTR [ebp+0x0],ah
  404c00:	jb     0x404c02
  404c02:	jae    0x404c04
  404c04:	imul   eax,DWORD PTR [eax],0x6e006f
  404c0a:	cmp    eax,0x2e003200
  404c0f:	add    BYTE PTR [eax],dh
  404c11:	add    BYTE PTR [esi],ch
  404c13:	add    BYTE PTR [eax],dh
  404c15:	add    BYTE PTR [esi],ch
  404c17:	add    BYTE PTR [eax],dh
  404c19:	add    BYTE PTR [eax+eax*1],ch
  404c1c:	and    BYTE PTR [eax],al
  404c1e:	inc    ebx
  404c1f:	add    BYTE PTR [ebp+0x0],dh
  404c22:	ins    BYTE PTR es:[edi],dx
  404c23:	add    BYTE PTR [eax+eax*1+0x75],dh
  404c27:	add    BYTE PTR [edx+0x0],dh
  404c2a:	add    BYTE PTR gs:0x65006e00,bh
  404c31:	add    BYTE PTR [ebp+0x0],dh
  404c34:	je     0x404c36
  404c36:	jb     0x404c38
  404c38:	popa   
  404c39:	add    BYTE PTR [eax+eax*1+0x2c],ch
  404c3d:	add    BYTE PTR [eax],ah
  404c3f:	add    BYTE PTR [eax+0x0],dl
  404c42:	jne    0x404c44
  404c44:	bound  eax,QWORD PTR [eax]
  404c46:	ins    BYTE PTR es:[edi],dx
  404c47:	add    BYTE PTR [ecx+0x0],ch
  404c4a:	arpl   WORD PTR [eax],ax
  404c4c:	dec    ebx
  404c4d:	add    BYTE PTR [ebp+0x0],ah
  404c50:	jns    0x404c52
  404c52:	push   esp
  404c53:	add    BYTE PTR [edi+0x0],ch
  404c56:	imul   eax,DWORD PTR [eax],0x65
  404c59:	add    BYTE PTR [esi+0x0],ch
  404c5c:	cmp    eax,0x37006200
  404c61:	add    BYTE PTR [edi],dh
  404c63:	add    BYTE PTR [ecx+0x0],ah
  404c66:	xor    eax,0x35006300
  404c6b:	add    BYTE PTR [esi],dh
  404c6d:	add    BYTE PTR [ecx],dh
  404c6f:	add    BYTE PTR [ecx],bh
  404c71:	add    BYTE PTR [ebx],dh
  404c73:	add    BYTE PTR [eax+eax*1],dh
  404c76:	add    BYTE PTR gs:[eax],dh
  404c79:	add    BYTE PTR [eax],bh
  404c7b:	add    BYTE PTR [ecx],bh
  404c7d:	add    BYTE PTR [eax+0x7900539a],al
  404c83:	add    BYTE PTR [ebx+0x0],dh
  404c86:	je     0x404c88
  404c88:	add    BYTE PTR gs:[ebp+0x0],ch
  404c8c:	add    BYTE PTR cs:[eax+0x0],bl
  404c90:	ins    DWORD PTR es:[edi],dx
  404c91:	add    BYTE PTR [eax+eax*1+0x2c],ch
  404c95:	add    BYTE PTR [eax],ah
  404c97:	add    BYTE PTR [esi+0x0],dl
  404c9a:	add    BYTE PTR gs:[edx+0x0],dh
  404c9e:	jae    0x404ca0
  404ca0:	imul   eax,DWORD PTR [eax],0x6e006f
  404ca6:	cmp    eax,0x2e003200
  404cab:	add    BYTE PTR [eax],dh
  404cad:	add    BYTE PTR [esi],ch
  404caf:	add    BYTE PTR [eax],dh
  404cb1:	add    BYTE PTR [esi],ch
  404cb3:	add    BYTE PTR [eax],dh
  404cb5:	add    BYTE PTR [eax+eax*1],ch
  404cb8:	and    BYTE PTR [eax],al
  404cba:	inc    ebx
  404cbb:	add    BYTE PTR [ebp+0x0],dh
  404cbe:	ins    BYTE PTR es:[edi],dx
  404cbf:	add    BYTE PTR [eax+eax*1+0x75],dh
  404cc3:	add    BYTE PTR [edx+0x0],dh
  404cc6:	add    BYTE PTR gs:0x65006e00,bh
  404ccd:	add    BYTE PTR [ebp+0x0],dh
  404cd0:	je     0x404cd2
  404cd2:	jb     0x404cd4
  404cd4:	popa   
  404cd5:	add    BYTE PTR [eax+eax*1+0x2c],ch
  404cd9:	add    BYTE PTR [eax],ah
  404cdb:	add    BYTE PTR [eax+0x0],dl
  404cde:	jne    0x404ce0
  404ce0:	bound  eax,QWORD PTR [eax]
  404ce2:	ins    BYTE PTR es:[edi],dx
  404ce3:	add    BYTE PTR [ecx+0x0],ch
  404ce6:	arpl   WORD PTR [eax],ax
  404ce8:	dec    ebx
  404ce9:	add    BYTE PTR [ebp+0x0],ah
  404cec:	jns    0x404cee
  404cee:	push   esp
  404cef:	add    BYTE PTR [edi+0x0],ch
  404cf2:	imul   eax,DWORD PTR [eax],0x65
  404cf5:	add    BYTE PTR [esi+0x0],ch
  404cf8:	cmp    eax,0x37006200
  404cfd:	add    BYTE PTR [edi],dh
  404cff:	add    BYTE PTR [ecx+0x0],ah
  404d02:	xor    eax,0x35006300
  404d07:	add    BYTE PTR [esi],dh
  404d09:	add    BYTE PTR [ecx],dh
  404d0b:	add    BYTE PTR [ecx],bh
  404d0d:	add    BYTE PTR [ebx],dh
  404d0f:	add    BYTE PTR [eax+eax*1],dh
  404d12:	add    BYTE PTR gs:[eax],dh
  404d15:	add    BYTE PTR [eax],bh
  404d17:	add    BYTE PTR [ecx],bh
  404d19:	add    BYTE PTR [eax],ah
  404d1b:	bound  eax,QWORD PTR [eax]
  404d1d:	xor    BYTE PTR [eax],al
  404d1f:	xor    eax,DWORD PTR [eax]
  404d21:	data16 add BYTE PTR ds:0x37006600,dh
  404d28:	add    BYTE PTR [esi+0x0],ah
  404d2b:	xor    DWORD PTR [eax],eax
  404d2d:	xor    DWORD PTR [eax],eax
  404d2f:	add    BYTE PTR fs:0x61003000,dh
  404d36:	add    BYTE PTR [ebx],dh
  404d38:	add    BYTE PTR [ecx+0x0],ah
  404d3b:	add    BYTE PTR [eax+0x300030],0x32
  404d42:	add    BYTE PTR [eax+eax*1],dh
  404d45:	xor    BYTE PTR [eax],al
  404d47:	xor    BYTE PTR [eax],al
  404d49:	xor    BYTE PTR [eax],al
  404d4b:	xor    BYTE PTR [eax],al
  404d4d:	xor    BYTE PTR [eax],al
  404d4f:	xor    al,0x0
  404d51:	cmp    BYTE PTR [eax],al
  404d53:	xor    BYTE PTR [eax],al
  404d55:	xor    BYTE PTR [eax],al
  404d57:	xor    BYTE PTR [eax],al
  404d59:	xor    BYTE PTR [eax],al
  404d5b:	xor    BYTE PTR [eax],al
  404d5d:	cmp    DWORD PTR [eax],eax
  404d5f:	xor    al,0x0
  404d61:	xor    BYTE PTR [eax],al
  404d63:	xor    BYTE PTR [eax],al
  404d65:	xor    BYTE PTR [eax],al
  404d67:	xor    BYTE PTR [eax],al
  404d69:	xor    BYTE PTR [eax],al
  404d6b:	xor    BYTE PTR [eax],al
  404d6d:	xor    BYTE PTR [eax],al
  404d6f:	add    BYTE PTR ss:[eax],dh
  404d72:	add    BYTE PTR [edx],dh
  404d74:	add    BYTE PTR [eax],dh
  404d76:	add    BYTE PTR [eax],dh
  404d78:	add    BYTE PTR [eax],dh
  404d7a:	add    BYTE PTR [eax],dh
  404d7c:	add    BYTE PTR [eax],dh
  404d7e:	add    BYTE PTR [eax],dh
  404d80:	add    BYTE PTR [edx],dh
  404d82:	add    BYTE PTR [eax+eax*1],dh
  404d85:	xor    BYTE PTR [eax],al
  404d87:	xor    BYTE PTR [eax],al
  404d89:	xor    BYTE PTR [eax],al
  404d8b:	xor    BYTE PTR [eax],al
  404d8d:	xor    eax,0x35003200
  404d92:	add    BYTE PTR [ebx],dh
  404d94:	add    BYTE PTR [eax+eax*1],dh
  404d97:	xor    DWORD PTR [eax],eax
  404d99:	xor    eax,DWORD PTR [eax]
  404d9b:	xor    DWORD PTR [eax],eax
  404d9d:	xor    BYTE PTR [eax],al
  404d9f:	xor    BYTE PTR [eax],al
  404da1:	xor    BYTE PTR [eax],al
  404da3:	xor    al,0x0
  404da5:	xor    BYTE PTR [eax],al
  404da7:	xor    BYTE PTR [eax],al
  404da9:	xor    BYTE PTR [eax],al
  404dab:	xor    BYTE PTR [eax],al
  404dad:	xor    BYTE PTR [eax],al
  404daf:	xor    DWORD PTR [eax],eax
  404db1:	xor    BYTE PTR [eax],al
  404db3:	xor    BYTE PTR [eax],al
  404db5:	xor    BYTE PTR [eax],al
  404db7:	xor    DWORD PTR [eax],eax
  404db9:	xor    BYTE PTR [eax],al
  404dbb:	xor    BYTE PTR [eax],al
  404dbd:	xor    BYTE PTR [eax],al
  404dbf:	aaa    
  404dc0:	add    BYTE PTR [eax+eax*1+0x31],al
  404dc4:	add    BYTE PTR [esi+0x0],al
  404dc7:	inc    ecx
  404dc8:	add    BYTE PTR ds:0x43003700,dh
  404dce:	add    BYTE PTR [eax+eax*1],dh
  404dd1:	inc    ecx
  404dd2:	add    BYTE PTR [ebp+0x0],al
  404dd5:	inc    esp
  404dd6:	add    BYTE PTR [ecx],bh
  404dd8:	add    BYTE PTR [esi+0x0],al
  404ddb:	xor    BYTE PTR [eax],al
  404ddd:	inc    ecx
  404dde:	add    BYTE PTR [ebx],dh
  404de0:	add    BYTE PTR [edx],dh
  404de2:	add    BYTE PTR [ebp+0x0],al
  404de5:	cmp    BYTE PTR [eax],al
  404de7:	xor    al,0x0
  404de9:	inc    ecx
  404dea:	add    BYTE PTR [ecx+0x0],al
  404ded:	xor    BYTE PTR [eax],al
  404def:	inc    esi
  404df0:	add    BYTE PTR [ecx+0x0],al
  404df3:	inc    ebp
  404df4:	add    BYTE PTR [esi+0x0],al
  404df7:	inc    esp
  404df8:	add    BYTE PTR [eax],dh
  404dfa:	add    BYTE PTR [eax+eax*1+0x45],al
  404dfe:	add    BYTE PTR [ecx],bh
  404e00:	add    BYTE PTR [ebp+0x0],al
  404e03:	cmp    BYTE PTR [eax],al
  404e05:	inc    esi
  404e06:	add    BYTE PTR [eax+eax*1+0x36],al
  404e0a:	add    BYTE PTR [ecx+0x0],al
  404e0d:	inc    ebp
  404e0e:	add    BYTE PTR [ebx+0x0],al
  404e11:	cmp    BYTE PTR [eax],al
  404e13:	inc    esi
  404e14:	add    BYTE PTR [eax],bh
  404e16:	add    BYTE PTR [edi],dh
  404e18:	add    BYTE PTR [esi+0x0],al
  404e1b:	inc    edx
  404e1c:	add    BYTE PTR [eax],dh
  404e1e:	add    BYTE PTR [ebx],dh
  404e20:	add    BYTE PTR [edi],dh
  404e22:	add    BYTE PTR [esi],dh
  404e24:	add    BYTE PTR [esi],dh
  404e26:	add    BYTE PTR [ebx+0x0],al
  404e29:	cmp    BYTE PTR [eax],al
  404e2b:	xor    eax,DWORD PTR [eax]
  404e2d:	xor    al,0x0
  404e2f:	inc    ebx
  404e30:	add    BYTE PTR [ecx],bh
  404e32:	add    BYTE PTR [ecx],bh
  404e34:	add    BYTE PTR [ecx],bh
  404e36:	add    BYTE PTR [edx],dh
  404e38:	add    BYTE PTR [ecx],dh
  404e3a:	add    BYTE PTR [ebp+0x0],al
  404e3d:	inc    edx
  404e3e:	add    BYTE PTR [edx],dh
  404e40:	add    BYTE PTR [ebx],dh
  404e42:	add    BYTE PTR [edx+0x0],al
  404e45:	inc    ebp
  404e46:	add    BYTE PTR [edi],dh
  404e48:	add    BYTE PTR [ecx],bh
  404e4a:	add    BYTE PTR [ecx+0x0],al
  404e4d:	inc    esp
  404e4e:	add    BYTE PTR [ecx],bh
  404e50:	add    BYTE PTR [eax+eax*1+0x35],al
  404e54:	add    BYTE PTR [eax+eax*1+0x43],al
  404e58:	add    BYTE PTR [ebx+0x0],al
  404e5b:	xor    DWORD PTR [eax],eax
  404e5d:	inc    esp
  404e5e:	add    BYTE PTR [eax+eax*1+0x39],al
  404e62:	add    BYTE PTR [ecx+0x0],al
  404e65:	inc    esp
  404e66:	add    BYTE PTR [edx],dh
  404e68:	add    BYTE PTR [ebx],dh
  404e6a:	add    BYTE PTR [esi],dh
  404e6c:	add    BYTE PTR [ecx],dh
  404e6e:	add    BYTE PTR [ebx],dh
  404e70:	add    BYTE PTR [edx],dh
  404e72:	add    BYTE PTR [ecx],dh
  404e74:	add    BYTE PTR [eax],dh
  404e76:	add    BYTE PTR [edx],dh
  404e78:	add    BYTE PTR [ecx],bh
  404e7a:	add    BYTE PTR [eax],dh
  404e7c:	add    BYTE PTR [eax],dh
  404e7e:	add    BYTE PTR [edx+0x0],al
  404e81:	aaa    
  404e82:	add    BYTE PTR [edx],dh
  404e84:	add    BYTE PTR [ebx],dh
  404e86:	add    BYTE PTR [ebx+0x0],al
  404e89:	inc    esi
  404e8a:	add    BYTE PTR [ecx],bh
  404e8c:	add    BYTE PTR [eax],bh
  404e8e:	add    BYTE PTR [eax],dh
  404e90:	add    BYTE PTR [ecx],bh
  404e92:	add    BYTE PTR ds:0x46003700,dh
  404e98:	add    BYTE PTR [ebx+0x0],al
  404e9b:	xor    al,0x0
  404e9d:	inc    ebp
  404e9e:	add    BYTE PTR [ecx],dh
  404ea0:	add    BYTE PTR [edi],dh
  404ea2:	add    BYTE PTR [edi],dh
  404ea4:	add    BYTE PTR [ecx],dh
  404ea6:	add    BYTE PTR [eax],dh
  404ea8:	add    BYTE PTR [eax],bh
  404eaa:	add    BYTE PTR [esi+0x0],al
  404ead:	inc    ebx
  404eae:	add    BYTE PTR [esi],dh
  404eb0:	add    BYTE PTR [eax],dh
  404eb2:	add    BYTE PTR [edi],dh
  404eb4:	add    BYTE PTR [edi],dh
  404eb6:	add    BYTE PTR [edi],dh
  404eb8:	add    BYTE PTR [eax+eax*1],dh
  404ebb:	inc    esi
  404ebc:	add    BYTE PTR [edx],dh
  404ebe:	add    BYTE PTR [ecx],bh
  404ec0:	add    BYTE PTR [ebp+0x0],al
  404ec3:	cmp    BYTE PTR [eax],al
  404ec5:	xor    eax,DWORD PTR [eax]
  404ec7:	xor    al,BYTE PTR [eax]
  404ec9:	xor    BYTE PTR [eax],al
  404ecb:	inc    ebp
  404ecc:	add    BYTE PTR [ecx],bh
  404ece:	add    BYTE PTR [edx],dh
  404ed0:	add    BYTE PTR [ebp+0x0],al
  404ed3:	inc    ecx
  404ed4:	add    BYTE PTR [eax],dh
  404ed6:	add    BYTE PTR ds:0x43004500,dh
  404edc:	add    BYTE PTR [ebp+0x0],al
  404edf:	xor    al,0x0
  404ee1:	inc    ebp
  404ee2:	add    BYTE PTR [eax],bh
  404ee4:	add    BYTE PTR [edx],dh
  404ee6:	add    BYTE PTR [ecx],dh
  404ee8:	add    BYTE PTR [ebx+0x0],al
  404eeb:	xor    BYTE PTR [eax],al
  404eed:	inc    ecx
  404eee:	add    BYTE PTR ds:0x46004500,dh
  404ef4:	add    BYTE PTR [ebp+0x0],al
  404ef7:	cmp    BYTE PTR [eax],al
  404ef9:	inc    esi
  404efa:	add    BYTE PTR [ecx],dh
  404efc:	add    BYTE PTR [esi],dh
  404efe:	add    BYTE PTR [eax+eax*1],dh
  404f01:	xor    eax,0x34004300
  404f06:	add    BYTE PTR [ebx+0x0],al
  404f09:	xor    BYTE PTR [eax],al
  404f0b:	inc    ebx
  404f0c:	add    BYTE PTR [ecx],bh
  404f0e:	add    BYTE PTR [ebx],dh
  404f10:	add    BYTE PTR [ebx+0x0],al
  404f13:	xor    DWORD PTR [eax],eax
  404f15:	inc    ecx
  404f16:	add    BYTE PTR [edx+0x0],al
  404f19:	cmp    DWORD PTR [eax],eax
  404f1b:	cmp    DWORD PTR [eax],eax
  404f1d:	xor    al,BYTE PTR [eax]
  404f1f:	cmp    BYTE PTR [eax],al
  404f21:	xor    eax,0x36004400
  404f26:	add    BYTE PTR [edx],dh
  404f28:	add    BYTE PTR [edx],dh
  404f2a:	add    BYTE PTR [ebx+0x0],al
  404f2d:	inc    ecx
  404f2e:	add    BYTE PTR [ecx+0x0],al
  404f31:	add    BYTE PTR ss:0x43003200,dh
  404f38:	add    BYTE PTR [ecx],dh
  404f3a:	add    BYTE PTR [eax+eax*1+0x46],al
  404f3e:	add    BYTE PTR [ecx+0x0],al
  404f41:	inc    esp
  404f42:	add    BYTE PTR [esi],dh
  404f44:	add    BYTE PTR [ebx],dh
  404f46:	add    BYTE PTR [eax+eax*1+0x37],al
  404f4a:	add    BYTE PTR [eax+eax*1],dh
  404f4d:	xor    eax,0x36004400
  404f52:	add    BYTE PTR [esi+0x0],al
  404f55:	xor    al,BYTE PTR [eax]
  404f57:	inc    esp
  404f58:	add    BYTE PTR [ebp+0x0],al
  404f5b:	xor    eax,0x31004600
  404f60:	add    BYTE PTR [edi],dh
  404f62:	add    BYTE PTR [ebp+0x0],al
  404f65:	xor    eax,0x41004500
  404f6a:	add    BYTE PTR [esi+0x0],al
  404f6d:	xor    BYTE PTR [eax],al
  404f6f:	inc    esi
  404f70:	add    BYTE PTR [ebx+0x0],al
  404f73:	xor    al,0x0
  404f75:	cmp    DWORD PTR [eax],eax
  404f77:	add    BYTE PTR ss:[ebx],dh
  404f7a:	add    BYTE PTR [eax+eax*1+0x32],al
  404f7e:	add    BYTE PTR [esi],dh
  404f80:	add    BYTE PTR [ecx],dh
  404f82:	add    BYTE PTR [ebx+0x0],al
  404f85:	cmp    BYTE PTR [eax],al
  404f87:	inc    ecx
  404f88:	add    BYTE PTR [ecx],dh
  404f8a:	add    BYTE PTR [edx],dh
  404f8c:	add    BYTE PTR [eax+eax*1],dh
  404f8f:	xor    eax,DWORD PTR [eax]
  404f91:	add    BYTE PTR ss:0x38003100,dh
  404f98:	add    BYTE PTR [edx],dh
  404f9a:	add    BYTE PTR [eax],dh
  404f9c:	add    BYTE PTR [esi],dh
  404f9e:	add    BYTE PTR [eax+eax*1+0x43],al
  404fa2:	add    BYTE PTR [eax],dh
  404fa4:	add    BYTE PTR [ecx],bh
  404fa6:	add    BYTE PTR [ebx],dh
  404fa8:	add    BYTE PTR [ebx],dh
  404faa:	add    BYTE PTR [eax+eax*1],dh
  404fad:	xor    al,0x0
  404faf:	inc    esp
  404fb0:	add    BYTE PTR ds:0x44004100,dh
  404fb6:	add    BYTE PTR [edx],dh
  404fb8:	add    BYTE PTR [ecx],bh
  404fba:	add    BYTE PTR [ebx],dh
  404fbc:	add    BYTE PTR [eax],ah
  404fbe:	xor    eax,DWORD PTR [eax]
  404fc0:	xor    DWORD PTR [eax],eax
  404fc2:	bound  eax,QWORD PTR [eax]
  404fc4:	data16 add BYTE PTR [ebx],dh
  404fc7:	add    BYTE PTR [eax],bh
  404fc9:	add    BYTE PTR ds:0x61003600,dh
  404fcf:	add    BYTE PTR [eax+eax*1+0x33],ah
  404fd3:	add    BYTE PTR [esi],dh
  404fd5:	add    BYTE PTR [eax+eax*1],dh
  404fd8:	add    BYTE PTR gs:[ebx],dh
  404fdb:	add    BYTE PTR ds:0x30808200,dh
  404fe1:	add    BYTE PTR [eax],dh
  404fe3:	add    BYTE PTR [edx],dh
  404fe5:	add    BYTE PTR [eax+eax*1],dh
  404fe8:	xor    BYTE PTR [eax],al
  404fea:	xor    BYTE PTR [eax],al
  404fec:	xor    BYTE PTR [eax],al
  404fee:	xor    BYTE PTR [eax],al
  404ff0:	xor    BYTE PTR [eax],al
  404ff2:	xor    al,0x0
  404ff4:	cmp    BYTE PTR [eax],al
  404ff6:	xor    BYTE PTR [eax],al
  404ff8:	xor    BYTE PTR [eax],al
  404ffa:	xor    BYTE PTR [eax],al
  404ffc:	xor    BYTE PTR [eax],al
  404ffe:	xor    BYTE PTR [eax],al
  405000:	cmp    DWORD PTR [eax],eax
  405002:	xor    al,0x0
  405004:	xor    BYTE PTR [eax],al
  405006:	xor    BYTE PTR [eax],al
  405008:	xor    BYTE PTR [eax],al
  40500a:	xor    BYTE PTR [eax],al
  40500c:	xor    BYTE PTR [eax],al
  40500e:	xor    BYTE PTR [eax],al
  405010:	xor    BYTE PTR [eax],al
  405012:	add    BYTE PTR ss:[eax],dh
  405015:	add    BYTE PTR [edx],dh
  405017:	add    BYTE PTR [eax],dh
  405019:	add    BYTE PTR [eax],dh
  40501b:	add    BYTE PTR [eax],dh
  40501d:	add    BYTE PTR [eax],dh
  40501f:	add    BYTE PTR [eax],dh
  405021:	add    BYTE PTR [eax],dh
  405023:	add    BYTE PTR [edx],dh
  405025:	add    BYTE PTR [eax+eax*1],dh
  405028:	xor    BYTE PTR [eax],al
  40502a:	xor    BYTE PTR [eax],al
  40502c:	xor    BYTE PTR [eax],al
  40502e:	xor    BYTE PTR [eax],al
  405030:	xor    eax,0x35003200
  405035:	add    BYTE PTR [ebx],dh
  405037:	add    BYTE PTR [eax+eax*1],dh
  40503a:	xor    DWORD PTR [eax],eax
  40503c:	xor    eax,DWORD PTR [eax]
  40503e:	xor    DWORD PTR [eax],eax
  405040:	xor    BYTE PTR [eax],al
  405042:	xor    BYTE PTR [eax],al
  405044:	xor    BYTE PTR [eax],al
  405046:	xor    al,0x0
  405048:	xor    BYTE PTR [eax],al
  40504a:	xor    BYTE PTR [eax],al
  40504c:	xor    BYTE PTR [eax],al
  40504e:	xor    BYTE PTR [eax],al
  405050:	xor    BYTE PTR [eax],al
  405052:	xor    DWORD PTR [eax],eax
  405054:	xor    BYTE PTR [eax],al
  405056:	xor    BYTE PTR [eax],al
  405058:	xor    BYTE PTR [eax],al
  40505a:	xor    DWORD PTR [eax],eax
  40505c:	xor    BYTE PTR [eax],al
  40505e:	xor    BYTE PTR [eax],al
  405060:	inc    edx
  405061:	add    BYTE PTR ds:0x43004600,dh
  405067:	add    BYTE PTR [ecx],bh
  405069:	add    BYTE PTR [eax],dh
  40506b:	add    BYTE PTR [ebp+0x0],al
  40506e:	aaa    
  40506f:	add    BYTE PTR [eax],dh
  405071:	add    BYTE PTR [edx],dh
  405073:	add    BYTE PTR [edi],dh
  405075:	add    BYTE PTR [esi+0x0],al
  405078:	add    BYTE PTR ss:[edi],dh
  40507b:	add    BYTE PTR [eax],bh
  40507d:	add    BYTE PTR [edi],dh
  40507f:	add    BYTE PTR [ecx],dh
  405081:	add    BYTE PTR [ebp+0x0],al
  405084:	aaa    
  405085:	add    BYTE PTR [edi],dh
  405087:	add    BYTE PTR [ebx],dh
  405089:	add    BYTE PTR [ecx+0x0],al
  40508c:	cmp    BYTE PTR [eax],al
  40508e:	inc    esi
  40508f:	add    BYTE PTR [eax+eax*1+0x45],al
  405093:	add    BYTE PTR [eax],bh
  405095:	add    BYTE PTR [ecx],bh
  405097:	add    BYTE PTR [ebx],dh
  405099:	add    BYTE PTR [eax],bh
  40509b:	add    BYTE PTR [ebx+0x0],al
  40509e:	cmp    BYTE PTR [eax],al
  4050a0:	xor    DWORD PTR [eax],eax
  4050a2:	inc    esp
  4050a3:	add    BYTE PTR [eax+eax*1+0x34],al
  4050a7:	add    BYTE PTR [eax],dh
  4050a9:	add    BYTE PTR [edx],dh
  4050ab:	add    BYTE PTR [edx+0x0],al
  4050ae:	inc    ecx
  4050af:	add    BYTE PTR [esi],dh
  4050b1:	add    BYTE PTR ds:0x39004200,dh
  4050b7:	add    BYTE PTR [edx],dh
  4050b9:	add    BYTE PTR [eax],dh
  4050bb:	add    BYTE PTR [ecx],dh
  4050bd:	add    BYTE PTR [eax+eax*1+0x36],al
  4050c1:	add    BYTE PTR [eax],dh
  4050c3:	add    BYTE PTR ds:0x33003900,dh
  4050c9:	add    BYTE PTR [ebp+0x0],al
  4050cc:	cmp    DWORD PTR [eax],eax
  4050ce:	add    BYTE PTR ss:[ebx+0x0],al
  4050d2:	xor    al,0x0
  4050d4:	cmp    DWORD PTR [eax],eax
  4050d6:	xor    al,BYTE PTR [eax]
  4050d8:	add    BYTE PTR ss:0x45003100,dh
  4050df:	add    BYTE PTR [eax],bh
  4050e1:	add    BYTE PTR [eax],bh
  4050e3:	add    BYTE PTR [ecx],bh
  4050e5:	add    BYTE PTR [ebx+0x0],al
  4050e8:	inc    ebx
  4050e9:	add    BYTE PTR [ecx],dh
  4050eb:	add    BYTE PTR [ebx],dh
  4050ed:	add    BYTE PTR [esi+0x0],al
  4050f0:	xor    DWORD PTR [eax],eax
  4050f2:	xor    al,0x0
  4050f4:	xor    DWORD PTR [eax],eax
  4050f6:	xor    eax,0x42004500
  4050fb:	add    BYTE PTR [edx+0x0],al
  4050fe:	xor    eax,0x46003300
  405103:	add    BYTE PTR [ecx+0x0],al
  405106:	inc    ebx
  405107:	add    BYTE PTR [ecx],dh
  405109:	add    BYTE PTR [ecx],dh
  40510b:	add    BYTE PTR [ebx],dh
  40510d:	add    BYTE PTR [ecx],dh
  40510f:	add    BYTE PTR [ecx+0x0],al
  405112:	inc    ebp
  405113:	add    BYTE PTR [eax],dh
  405115:	add    BYTE PTR [edx+0x0],al
  405118:	inc    esp
  405119:	add    BYTE PTR [ebx],dh
  40511b:	add    BYTE PTR [ebx],dh
  40511d:	add    BYTE PTR [ebx],dh
  40511f:	add    BYTE PTR [ebx+0x0],al
  405122:	xor    eax,0x45004500
  405127:	add    BYTE PTR [esi],dh
  405129:	add    BYTE PTR [eax],dh
  40512b:	add    BYTE PTR [edx],dh
  40512d:	add    BYTE PTR [ecx],dh
  40512f:	add    BYTE PTR [esi],dh
  405131:	add    BYTE PTR [edi],dh
  405133:	add    BYTE PTR [edx],dh
  405135:	add    BYTE PTR [eax+eax*1+0x39],al
  405139:	add    BYTE PTR [edi],dh
  40513b:	add    BYTE PTR [ecx],dh
  40513d:	add    BYTE PTR [eax],bh
  40513f:	add    BYTE PTR [ebp+0x0],al
  405142:	inc    ecx
  405143:	add    BYTE PTR [ebx],dh
  405145:	add    BYTE PTR [ecx],dh
  405147:	add    BYTE PTR [ecx+0x0],al
  40514a:	cmp    BYTE PTR [eax],al
  40514c:	inc    ecx
  40514d:	add    BYTE PTR [ebp+0x0],al
  405150:	inc    edx
  405151:	add    BYTE PTR [eax+eax*1+0x30],al
  405155:	add    BYTE PTR [eax+eax*1+0x41],al
  405159:	add    BYTE PTR [eax],dh
  40515b:	add    BYTE PTR [eax],dh
  40515d:	add    BYTE PTR [edi],dh
  40515f:	add    BYTE PTR [edx],dh
  405161:	add    BYTE PTR [esi+0x0],al
  405164:	xor    al,BYTE PTR [eax]
  405166:	xor    eax,0x38004400
  40516b:	add    BYTE PTR [edi],dh
  40516d:	add    BYTE PTR [eax+eax*1+0x42],al
  405171:	add    BYTE PTR [ecx+0x0],al
  405174:	add    BYTE PTR ss:[esi+0x0],al
  405178:	inc    ebx
  405179:	add    BYTE PTR [ecx],bh
  40517b:	add    BYTE PTR [eax],dh
  40517d:	add    BYTE PTR [esi+0x0],al
  405180:	inc    esi
  405181:	add    BYTE PTR [eax+eax*1+0x35],al
  405185:	add    BYTE PTR [ecx],bh
  405187:	add    BYTE PTR [eax],bh
  405189:	add    BYTE PTR [ebp+0x0],al
  40518c:	inc    esp
  40518d:	add    BYTE PTR [eax+eax*1],dh
  405190:	inc    esp
  405191:	add    BYTE PTR [ecx+0x0],al
  405194:	xor    eax,DWORD PTR [eax]
  405196:	xor    eax,0x34004500
  40519b:	add    BYTE PTR [eax+eax*1],dh
  40519e:	inc    ebx
  40519f:	add    BYTE PTR [ebx],dh
  4051a1:	add    BYTE PTR [ecx],bh
  4051a3:	add    BYTE PTR [eax],bh
  4051a5:	add    BYTE PTR [ebx+0x0],al
  4051a8:	xor    al,0x0
  4051aa:	xor    eax,0x33003400
  4051af:	add    BYTE PTR [eax],dh
  4051b1:	add    BYTE PTR [edi],dh
  4051b3:	add    BYTE PTR [ebp+0x0],al
  4051b6:	cmp    BYTE PTR [eax],al
  4051b8:	inc    ebp
  4051b9:	add    BYTE PTR [ebx],dh
  4051bb:	add    BYTE PTR [ebx],dh
  4051bd:	add    BYTE PTR [edx+0x0],al
  4051c0:	cmp    BYTE PTR [eax],al
  4051c2:	xor    al,0x0
  4051c4:	xor    al,BYTE PTR [eax]
  4051c6:	add    BYTE PTR ss:[ecx],dh
  4051c9:	add    BYTE PTR [eax+eax*1],dh
  4051cc:	xor    eax,DWORD PTR [eax]
  4051ce:	inc    esp
  4051cf:	add    BYTE PTR [ecx+0x0],al
  4051d2:	inc    ebp
  4051d3:	add    BYTE PTR [ebx+0x0],al
  4051d6:	cmp    DWORD PTR [eax],eax
  4051d8:	inc    esi
  4051d9:	add    BYTE PTR ds:0x36003900,dh
  4051df:	add    BYTE PTR [eax],bh
  4051e1:	add    BYTE PTR [ebx],dh
  4051e3:	add    BYTE PTR [esi],dh
  4051e5:	add    BYTE PTR [esi+0x0],al
  4051e8:	cmp    DWORD PTR [eax],eax
  4051ea:	aaa    
  4051eb:	add    BYTE PTR [ebx+0x0],al
  4051ee:	cmp    BYTE PTR [eax],al
  4051f0:	inc    esi
  4051f1:	add    BYTE PTR [edi],dh
  4051f3:	add    BYTE PTR [eax+eax*1],dh
  4051f6:	aaa    
  4051f7:	add    BYTE PTR ds:0x45003000,dh
  4051fd:	add    BYTE PTR ds:0x37003900,dh
  405203:	add    BYTE PTR ds:0x36004300,dh
  405209:	add    BYTE PTR [eax+eax*1],dh
  40520c:	inc    ebp
  40520d:	add    BYTE PTR [edx],dh
  40520f:	add    BYTE PTR [ecx],dh
  405211:	add    BYTE PTR [eax],bh
  405213:	add    BYTE PTR [ecx],bh
  405215:	add    BYTE PTR [esi+0x0],al
  405218:	xor    al,0x0
  40521a:	xor    eax,0x45004400
  40521f:	add    BYTE PTR [esi+0x0],al
  405222:	xor    al,0x0
  405224:	add    BYTE PTR ss:[edx+0x0],al
  405228:	xor    al,BYTE PTR [eax]
  40522a:	inc    ecx
  40522b:	add    BYTE PTR [edx],dh
  40522d:	add    BYTE PTR [edx+0x0],al
  405230:	xor    DWORD PTR [eax],eax
  405232:	xor    al,BYTE PTR [eax]
  405234:	xor    al,0x0
  405236:	aaa    
  405237:	add    BYTE PTR [ecx+0x0],al
  40523a:	inc    esp
  40523b:	add    BYTE PTR [ebx+0x0],al
  40523e:	xor    eax,DWORD PTR [eax]
  405240:	add    BYTE PTR ss:0x42003200,dh
  405247:	add    BYTE PTR [esi+0x0],al
  40524a:	xor    eax,0x33004300
  40524f:	add    BYTE PTR [eax],dh
  405251:	add    BYTE PTR [eax],bh
  405253:	add    BYTE PTR [eax],dh
  405255:	add    BYTE PTR ds:0x44003500,dh
  40525b:	add    BYTE PTR [ecx+0x0],al
  40525e:	cmp    DWORD PTR [eax],eax
  405260:	adc    al,0x53
  405263:	add    BYTE PTR [ecx+0x0],bh
  405266:	jae    0x405268
  405268:	je     0x40526a
  40526a:	add    BYTE PTR gs:[ebp+0x0],ch
  40526e:	add    BYTE PTR cs:[ebx+0x0],al
  405272:	outs   dx,DWORD PTR ds:[esi]
  405273:	add    BYTE PTR [ebp+0x0],ch
  405276:	jo     0x405278
  405278:	outs   dx,DWORD PTR ds:[esi]
  405279:	add    BYTE PTR [esi+0x0],ch
  40527c:	add    BYTE PTR gs:[esi+0x0],ch
  405280:	je     0x405282
  405282:	dec    ebp
  405283:	add    BYTE PTR [edi+0x0],ch
  405286:	add    BYTE PTR fs:[ebp+0x0],ah
  40528a:	ins    BYTE PTR es:[edi],dx
  40528b:	add    BYTE PTR [esi],ch
  40528d:	add    BYTE PTR [eax+eax*1+0x61],al
  405291:	add    BYTE PTR [eax+eax*1+0x61],dh
  405295:	add    BYTE PTR [ecx+0x0],al
  405298:	outs   dx,BYTE PTR ds:[esi]
  405299:	add    BYTE PTR [esi+0x0],ch
  40529c:	outs   dx,DWORD PTR ds:[esi]
  40529d:	add    BYTE PTR [eax+eax*1+0x61],dh
  4052a1:	add    BYTE PTR [eax+eax*1+0x69],dh
  4052a5:	add    BYTE PTR [edi+0x0],ch
  4052a8:	outs   dx,BYTE PTR ds:[esi]
  4052a9:	add    BYTE PTR [ebx+0x0],dh
  4052ac:	sub    al,0x0
  4052ae:	and    BYTE PTR [eax],al
  4052b0:	push   esi
  4052b1:	add    BYTE PTR [ebp+0x0],ah
  4052b4:	jb     0x4052b6
  4052b6:	jae    0x4052b8
  4052b8:	imul   eax,DWORD PTR [eax],0x6e006f
  4052be:	cmp    eax,0x2e003300
  4052c3:	add    BYTE PTR ds:0x30002e00,dh
  4052c9:	add    BYTE PTR [esi],ch
  4052cb:	add    BYTE PTR [eax],dh
  4052cd:	add    BYTE PTR [eax+eax*1],ch
  4052d0:	and    BYTE PTR [eax],al
  4052d2:	inc    ebx
  4052d3:	add    BYTE PTR [ebp+0x0],dh
  4052d6:	ins    BYTE PTR es:[edi],dx
  4052d7:	add    BYTE PTR [eax+eax*1+0x75],dh
  4052db:	add    BYTE PTR [edx+0x0],dh
  4052de:	add    BYTE PTR gs:0x65006e00,bh
  4052e5:	add    BYTE PTR [ebp+0x0],dh
  4052e8:	je     0x4052ea
  4052ea:	jb     0x4052ec
  4052ec:	popa   
  4052ed:	add    BYTE PTR [eax+eax*1+0x2c],ch
  4052f1:	add    BYTE PTR [eax],ah
  4052f3:	add    BYTE PTR [eax+0x0],dl
  4052f6:	jne    0x4052f8
  4052f8:	bound  eax,QWORD PTR [eax]
  4052fa:	ins    BYTE PTR es:[edi],dx
  4052fb:	add    BYTE PTR [ecx+0x0],ch
  4052fe:	arpl   WORD PTR [eax],ax
  405300:	dec    ebx
  405301:	add    BYTE PTR [ebp+0x0],ah
  405304:	jns    0x405306
  405306:	push   esp
  405307:	add    BYTE PTR [edi+0x0],ch
  40530a:	imul   eax,DWORD PTR [eax],0x65
  40530d:	add    BYTE PTR [esi+0x0],ch
  405310:	cmp    eax,0x31003300
  405315:	add    BYTE PTR [edx+0x0],ah
  405318:	data16 add BYTE PTR [ebx],dh
  40531b:	add    BYTE PTR [eax],bh
  40531d:	add    BYTE PTR ds:0x61003600,dh
  405323:	add    BYTE PTR [eax+eax*1+0x33],ah
  405327:	add    BYTE PTR [esi],dh
  405329:	add    BYTE PTR [eax+eax*1],dh
  40532c:	add    BYTE PTR gs:[ebx],dh
  40532f:	add    BYTE PTR ds:0x53ae8000,dh
  405335:	add    BYTE PTR [ecx+0x0],bh
  405338:	jae    0x40533a
  40533a:	je     0x40533c
  40533c:	add    BYTE PTR gs:[ebp+0x0],ch
  405340:	add    BYTE PTR cs:[ebx+0x0],al
  405344:	outs   dx,DWORD PTR ds:[esi]
  405345:	add    BYTE PTR [esi+0x0],ch
  405348:	data16 add BYTE PTR [ecx+0x0],ch
  40534c:	add    BYTE PTR [di+0x0],dh
  405350:	jb     0x405352
  405352:	popa   
  405353:	add    BYTE PTR [eax+eax*1+0x69],dh
  405357:	add    BYTE PTR [edi+0x0],ch
  40535a:	outs   dx,BYTE PTR ds:[esi]
  40535b:	add    BYTE PTR [eax+eax*1],ch
  40535e:	and    BYTE PTR [eax],al
  405360:	push   esi
  405361:	add    BYTE PTR [ebp+0x0],ah
  405364:	jb     0x405366
  405366:	jae    0x405368
  405368:	imul   eax,DWORD PTR [eax],0x6e006f
  40536e:	cmp    eax,0x2e003200
  405373:	add    BYTE PTR [eax],dh
  405375:	add    BYTE PTR [esi],ch
  405377:	add    BYTE PTR [eax],dh
  405379:	add    BYTE PTR [esi],ch
  40537b:	add    BYTE PTR [eax],dh
  40537d:	add    BYTE PTR [eax+eax*1],ch
  405380:	and    BYTE PTR [eax],al
  405382:	inc    ebx
  405383:	add    BYTE PTR [ebp+0x0],dh
  405386:	ins    BYTE PTR es:[edi],dx
  405387:	add    BYTE PTR [eax+eax*1+0x75],dh
  40538b:	add    BYTE PTR [edx+0x0],dh
  40538e:	add    BYTE PTR gs:0x65006e00,bh
  405395:	add    BYTE PTR [ebp+0x0],dh
  405398:	je     0x40539a
  40539a:	jb     0x40539c
  40539c:	popa   
  40539d:	add    BYTE PTR [eax+eax*1+0x2c],ch
  4053a1:	add    BYTE PTR [eax],ah
  4053a3:	add    BYTE PTR [eax+0x0],dl
  4053a6:	jne    0x4053a8
  4053a8:	bound  eax,QWORD PTR [eax]
  4053aa:	ins    BYTE PTR es:[edi],dx
  4053ab:	add    BYTE PTR [ecx+0x0],ch
  4053ae:	arpl   WORD PTR [eax],ax
  4053b0:	dec    ebx
  4053b1:	add    BYTE PTR [ebp+0x0],ah
  4053b4:	jns    0x4053b6
  4053b6:	push   esp
  4053b7:	add    BYTE PTR [edi+0x0],ch
  4053ba:	imul   eax,DWORD PTR [eax],0x65
  4053bd:	add    BYTE PTR [esi+0x0],ch
  4053c0:	cmp    eax,0x30006200
  4053c5:	add    BYTE PTR [ebx],dh
  4053c7:	add    BYTE PTR [esi+0x0],ah
  4053ca:	xor    eax,0x37006600
  4053cf:	add    BYTE PTR [esi+0x0],ah
  4053d2:	xor    DWORD PTR [eax],eax
  4053d4:	xor    DWORD PTR [eax],eax
  4053d6:	add    BYTE PTR fs:0x61003000,dh
  4053dd:	add    BYTE PTR [ebx],dh
  4053df:	add    BYTE PTR [ecx+0x0],ah
  4053e2:	cmp    BYTE PTR [esi+0x790053],0x73
  4053e9:	add    BYTE PTR [eax+eax*1+0x65],dh
  4053ed:	add    BYTE PTR [ebp+0x0],ch
  4053f0:	add    BYTE PTR cs:[ebx+0x0],al
  4053f4:	outs   dx,DWORD PTR ds:[esi]
  4053f5:	add    BYTE PTR [esi+0x0],ch
  4053f8:	data16 add BYTE PTR [ecx+0x0],ch
  4053fc:	add    BYTE PTR [di+0x0],dh
  405400:	jb     0x405402
  405402:	popa   
  405403:	add    BYTE PTR [eax+eax*1+0x69],dh
  405407:	add    BYTE PTR [edi+0x0],ch
  40540a:	outs   dx,BYTE PTR ds:[esi]
  40540b:	add    BYTE PTR [esi],ch
  40540d:	add    BYTE PTR [ecx+0x0],cl
  405410:	outs   dx,BYTE PTR ds:[esi]
  405411:	add    BYTE PTR [ebx+0x0],dh
  405414:	je     0x405416
  405416:	popa   
  405417:	add    BYTE PTR [eax+eax*1+0x6c],ch
  40541b:	add    BYTE PTR [eax+eax*1],ch
  40541e:	and    BYTE PTR [eax],al
  405420:	push   esi
  405421:	add    BYTE PTR [ebp+0x0],ah
  405424:	jb     0x405426
  405426:	jae    0x405428
  405428:	imul   eax,DWORD PTR [eax],0x6e006f
  40542e:	cmp    eax,0x2e003200
  405433:	add    BYTE PTR [eax],dh
  405435:	add    BYTE PTR [esi],ch
  405437:	add    BYTE PTR [eax],dh
  405439:	add    BYTE PTR [esi],ch
  40543b:	add    BYTE PTR [eax],dh
  40543d:	add    BYTE PTR [eax+eax*1],ch
  405440:	and    BYTE PTR [eax],al
  405442:	inc    ebx
  405443:	add    BYTE PTR [ebp+0x0],dh
  405446:	ins    BYTE PTR es:[edi],dx
  405447:	add    BYTE PTR [eax+eax*1+0x75],dh
  40544b:	add    BYTE PTR [edx+0x0],dh
  40544e:	add    BYTE PTR gs:0x65006e00,bh
  405455:	add    BYTE PTR [ebp+0x0],dh
  405458:	je     0x40545a
  40545a:	jb     0x40545c
  40545c:	popa   
  40545d:	add    BYTE PTR [eax+eax*1+0x2c],ch
  405461:	add    BYTE PTR [eax],ah
  405463:	add    BYTE PTR [eax+0x0],dl
  405466:	jne    0x405468
  405468:	bound  eax,QWORD PTR [eax]
  40546a:	ins    BYTE PTR es:[edi],dx
  40546b:	add    BYTE PTR [ecx+0x0],ch
  40546e:	arpl   WORD PTR [eax],ax
  405470:	dec    ebx
  405471:	add    BYTE PTR [ebp+0x0],ah
  405474:	jns    0x405476
  405476:	push   esp
  405477:	add    BYTE PTR [edi+0x0],ch
  40547a:	imul   eax,DWORD PTR [eax],0x65
  40547d:	add    BYTE PTR [esi+0x0],ch
  405480:	cmp    eax,0x30006200
  405485:	add    BYTE PTR [ebx],dh
  405487:	add    BYTE PTR [esi+0x0],ah
  40548a:	xor    eax,0x37006600
  40548f:	add    BYTE PTR [esi+0x0],ah
  405492:	xor    DWORD PTR [eax],eax
  405494:	xor    DWORD PTR [eax],eax
  405496:	add    BYTE PTR fs:0x61003000,dh
  40549d:	add    BYTE PTR [ebx],dh
  40549f:	add    BYTE PTR [ecx+0x0],ah
  4054a2:	sub    BYTE PTR [eax+0x790053],0x73
  4054a9:	add    BYTE PTR [eax+eax*1+0x65],dh
  4054ad:	add    BYTE PTR [ebp+0x0],ch
  4054b0:	add    BYTE PTR cs:[eax+eax*1+0x65],al
  4054b5:	add    BYTE PTR [eax+0x0],dh
  4054b8:	ins    BYTE PTR es:[edi],dx
  4054b9:	add    BYTE PTR [edi+0x0],ch
  4054bc:	jns    0x4054be
  4054be:	ins    DWORD PTR es:[edi],dx
  4054bf:	add    BYTE PTR [ebp+0x0],ah
  4054c2:	outs   dx,BYTE PTR ds:[esi]
  4054c3:	add    BYTE PTR [eax+eax*1+0x2c],dh
  4054c7:	add    BYTE PTR [eax],ah
  4054c9:	add    BYTE PTR [esi+0x0],dl
  4054cc:	add    BYTE PTR gs:[edx+0x0],dh
  4054d0:	jae    0x4054d2
  4054d2:	imul   eax,DWORD PTR [eax],0x6e006f
  4054d8:	cmp    eax,0x2e003200
  4054dd:	add    BYTE PTR [eax],dh
  4054df:	add    BYTE PTR [esi],ch
  4054e1:	add    BYTE PTR [eax],dh
  4054e3:	add    BYTE PTR [esi],ch
  4054e5:	add    BYTE PTR [eax],dh
  4054e7:	add    BYTE PTR [eax+eax*1],ch
  4054ea:	and    BYTE PTR [eax],al
  4054ec:	inc    ebx
  4054ed:	add    BYTE PTR [ebp+0x0],dh
  4054f0:	ins    BYTE PTR es:[edi],dx
  4054f1:	add    BYTE PTR [eax+eax*1+0x75],dh
  4054f5:	add    BYTE PTR [edx+0x0],dh
  4054f8:	add    BYTE PTR gs:0x65006e00,bh
  4054ff:	add    BYTE PTR [ebp+0x0],dh
  405502:	je     0x405504
  405504:	jb     0x405506
  405506:	popa   
  405507:	add    BYTE PTR [eax+eax*1+0x2c],ch
  40550b:	add    BYTE PTR [eax],ah
  40550d:	add    BYTE PTR [eax+0x0],dl
  405510:	jne    0x405512
  405512:	bound  eax,QWORD PTR [eax]
  405514:	ins    BYTE PTR es:[edi],dx
  405515:	add    BYTE PTR [ecx+0x0],ch
  405518:	arpl   WORD PTR [eax],ax
  40551a:	dec    ebx
  40551b:	add    BYTE PTR [ebp+0x0],ah
  40551e:	jns    0x405520
  405520:	push   esp
  405521:	add    BYTE PTR [edi+0x0],ch
  405524:	imul   eax,DWORD PTR [eax],0x65
  405527:	add    BYTE PTR [esi+0x0],ch
  40552a:	cmp    eax,0x30006200
  40552f:	add    BYTE PTR [ebx],dh
  405531:	add    BYTE PTR [esi+0x0],ah
  405534:	xor    eax,0x37006600
  405539:	add    BYTE PTR [esi+0x0],ah
  40553c:	xor    DWORD PTR [eax],eax
  40553e:	xor    DWORD PTR [eax],eax
  405540:	add    BYTE PTR fs:0x61003000,dh
  405547:	add    BYTE PTR [ebx],dh
  405549:	add    BYTE PTR [ecx+0x0],ah
  40554c:	and    BYTE PTR [eax+0x790053],0x73
  405553:	add    BYTE PTR [eax+eax*1+0x65],dh
  405557:	add    BYTE PTR [ebp+0x0],ch
  40555a:	add    BYTE PTR cs:[eax+eax*1+0x65],al
  40555f:	add    BYTE PTR [ebx+0x0],dh
  405562:	imul   eax,DWORD PTR [eax],0x6e0067
  405568:	sub    al,0x0
  40556a:	and    BYTE PTR [eax],al
  40556c:	push   esi
  40556d:	add    BYTE PTR [ebp+0x0],ah
  405570:	jb     0x405572
  405572:	jae    0x405574
  405574:	imul   eax,DWORD PTR [eax],0x6e006f
  40557a:	cmp    eax,0x2e003200
  40557f:	add    BYTE PTR [eax],dh
  405581:	add    BYTE PTR [esi],ch
  405583:	add    BYTE PTR [eax],dh
  405585:	add    BYTE PTR [esi],ch
  405587:	add    BYTE PTR [eax],dh
  405589:	add    BYTE PTR [eax+eax*1],ch
  40558c:	and    BYTE PTR [eax],al
  40558e:	inc    ebx
  40558f:	add    BYTE PTR [ebp+0x0],dh
  405592:	ins    BYTE PTR es:[edi],dx
  405593:	add    BYTE PTR [eax+eax*1+0x75],dh
  405597:	add    BYTE PTR [edx+0x0],dh
  40559a:	add    BYTE PTR gs:0x65006e00,bh
  4055a1:	add    BYTE PTR [ebp+0x0],dh
  4055a4:	je     0x4055a6
  4055a6:	jb     0x4055a8
  4055a8:	popa   
  4055a9:	add    BYTE PTR [eax+eax*1+0x2c],ch
  4055ad:	add    BYTE PTR [eax],ah
  4055af:	add    BYTE PTR [eax+0x0],dl
  4055b2:	jne    0x4055b4
  4055b4:	bound  eax,QWORD PTR [eax]
  4055b6:	ins    BYTE PTR es:[edi],dx
  4055b7:	add    BYTE PTR [ecx+0x0],ch
  4055ba:	arpl   WORD PTR [eax],ax
  4055bc:	dec    ebx
  4055bd:	add    BYTE PTR [ebp+0x0],ah
  4055c0:	jns    0x4055c2
  4055c2:	push   esp
  4055c3:	add    BYTE PTR [edi+0x0],ch
  4055c6:	imul   eax,DWORD PTR [eax],0x65
  4055c9:	add    BYTE PTR [esi+0x0],ch
  4055cc:	cmp    eax,0x30006200
  4055d1:	add    BYTE PTR [ebx],dh
  4055d3:	add    BYTE PTR [esi+0x0],ah
  4055d6:	xor    eax,0x37006600
  4055db:	add    BYTE PTR [esi+0x0],ah
  4055de:	xor    DWORD PTR [eax],eax
  4055e0:	xor    DWORD PTR [eax],eax
  4055e2:	add    BYTE PTR fs:0x61003000,dh
  4055e9:	add    BYTE PTR [ebx],dh
  4055eb:	add    BYTE PTR [ecx+0x0],ah
  4055ee:	xor    BYTE PTR [esi+0x790053],0x73
  4055f5:	add    BYTE PTR [eax+eax*1+0x65],dh
  4055f9:	add    BYTE PTR [ebp+0x0],ch
  4055fc:	add    BYTE PTR cs:[eax+eax*1+0x69],al
  405601:	add    BYTE PTR [edx+0x0],dh
  405604:	add    BYTE PTR gs:[ebx+0x0],ah
  405608:	je     0x40560a
  40560a:	outs   dx,DWORD PTR ds:[esi]
  40560b:	add    BYTE PTR [edx+0x0],dh
  40560e:	jns    0x405610
  405610:	push   ebx
  405611:	add    BYTE PTR [ebp+0x0],ah
  405614:	jb     0x405616
  405616:	jbe    0x405618
  405618:	imul   eax,DWORD PTR [eax],0x650063
  40561e:	jae    0x405620
  405620:	sub    al,0x0
  405622:	and    BYTE PTR [eax],al
  405624:	push   esi
  405625:	add    BYTE PTR [ebp+0x0],ah
  405628:	jb     0x40562a
  40562a:	jae    0x40562c
  40562c:	imul   eax,DWORD PTR [eax],0x6e006f
  405632:	cmp    eax,0x2e003200
  405637:	add    BYTE PTR [eax],dh
  405639:	add    BYTE PTR [esi],ch
  40563b:	add    BYTE PTR [eax],dh
  40563d:	add    BYTE PTR [esi],ch
  40563f:	add    BYTE PTR [eax],dh
  405641:	add    BYTE PTR [eax+eax*1],ch
  405644:	and    BYTE PTR [eax],al
  405646:	inc    ebx
  405647:	add    BYTE PTR [ebp+0x0],dh
  40564a:	ins    BYTE PTR es:[edi],dx
  40564b:	add    BYTE PTR [eax+eax*1+0x75],dh
  40564f:	add    BYTE PTR [edx+0x0],dh
  405652:	add    BYTE PTR gs:0x65006e00,bh
  405659:	add    BYTE PTR [ebp+0x0],dh
  40565c:	je     0x40565e
  40565e:	jb     0x405660
  405660:	popa   
  405661:	add    BYTE PTR [eax+eax*1+0x2c],ch
  405665:	add    BYTE PTR [eax],ah
  405667:	add    BYTE PTR [eax+0x0],dl
  40566a:	jne    0x40566c
  40566c:	bound  eax,QWORD PTR [eax]
  40566e:	ins    BYTE PTR es:[edi],dx
  40566f:	add    BYTE PTR [ecx+0x0],ch
  405672:	arpl   WORD PTR [eax],ax
  405674:	dec    ebx
  405675:	add    BYTE PTR [ebp+0x0],ah
  405678:	jns    0x40567a
  40567a:	push   esp
  40567b:	add    BYTE PTR [edi+0x0],ch
  40567e:	imul   eax,DWORD PTR [eax],0x65
  405681:	add    BYTE PTR [esi+0x0],ch
  405684:	cmp    eax,0x30006200
  405689:	add    BYTE PTR [ebx],dh
  40568b:	add    BYTE PTR [esi+0x0],ah
  40568e:	xor    eax,0x37006600
  405693:	add    BYTE PTR [esi+0x0],ah
  405696:	xor    DWORD PTR [eax],eax
  405698:	xor    DWORD PTR [eax],eax
  40569a:	add    BYTE PTR fs:0x61003000,dh
  4056a1:	add    BYTE PTR [ebx],dh
  4056a3:	add    BYTE PTR [ecx+0x0],ah
  4056a6:	xor    BYTE PTR [eax+0x790053],0x73
  4056ad:	add    BYTE PTR [eax+eax*1+0x65],dh
  4056b1:	add    BYTE PTR [ebp+0x0],ch
  4056b4:	add    BYTE PTR cs:[eax+eax*1+0x72],al
  4056b9:	add    BYTE PTR [ecx+0x0],ah
  4056bc:	ja     0x4056be
  4056be:	imul   eax,DWORD PTR [eax],0x67006e
  4056c4:	add    BYTE PTR cs:[eax+eax*1+0x65],al
  4056c9:	add    BYTE PTR [ebx+0x0],dh
  4056cc:	imul   eax,DWORD PTR [eax],0x6e0067
  4056d2:	sub    al,0x0
  4056d4:	and    BYTE PTR [eax],al
  4056d6:	push   esi
  4056d7:	add    BYTE PTR [ebp+0x0],ah
  4056da:	jb     0x4056dc
  4056dc:	jae    0x4056de
  4056de:	imul   eax,DWORD PTR [eax],0x6e006f
  4056e4:	cmp    eax,0x2e003200
  4056e9:	add    BYTE PTR [eax],dh
  4056eb:	add    BYTE PTR [esi],ch
  4056ed:	add    BYTE PTR [eax],dh
  4056ef:	add    BYTE PTR [esi],ch
  4056f1:	add    BYTE PTR [eax],dh
  4056f3:	add    BYTE PTR [eax+eax*1],ch
  4056f6:	and    BYTE PTR [eax],al
  4056f8:	inc    ebx
  4056f9:	add    BYTE PTR [ebp+0x0],dh
  4056fc:	ins    BYTE PTR es:[edi],dx
  4056fd:	add    BYTE PTR [eax+eax*1+0x75],dh
  405701:	add    BYTE PTR [edx+0x0],dh
  405704:	add    BYTE PTR gs:0x65006e00,bh
  40570b:	add    BYTE PTR [ebp+0x0],dh
  40570e:	je     0x405710
  405710:	jb     0x405712
  405712:	popa   
  405713:	add    BYTE PTR [eax+eax*1+0x2c],ch
  405717:	add    BYTE PTR [eax],ah
  405719:	add    BYTE PTR [eax+0x0],dl
  40571c:	jne    0x40571e
  40571e:	bound  eax,QWORD PTR [eax]
  405720:	ins    BYTE PTR es:[edi],dx
  405721:	add    BYTE PTR [ecx+0x0],ch
  405724:	arpl   WORD PTR [eax],ax
  405726:	dec    ebx
  405727:	add    BYTE PTR [ebp+0x0],ah
  40572a:	jns    0x40572c
  40572c:	push   esp
  40572d:	add    BYTE PTR [edi+0x0],ch
  405730:	imul   eax,DWORD PTR [eax],0x65
  405733:	add    BYTE PTR [esi+0x0],ch
  405736:	cmp    eax,0x30006200
  40573b:	add    BYTE PTR [ebx],dh
  40573d:	add    BYTE PTR [esi+0x0],ah
  405740:	xor    eax,0x37006600
  405745:	add    BYTE PTR [esi+0x0],ah
  405748:	xor    DWORD PTR [eax],eax
  40574a:	xor    DWORD PTR [eax],eax
  40574c:	add    BYTE PTR fs:0x61003000,dh
  405753:	add    BYTE PTR [ebx],dh
  405755:	add    BYTE PTR [ecx+0x0],ah
  405758:	and    BYTE PTR [edx+0x790053],0x73
  40575f:	add    BYTE PTR [eax+eax*1+0x65],dh
  405763:	add    BYTE PTR [ebp+0x0],ch
  405766:	add    BYTE PTR cs:[eax+eax*1+0x72],al
  40576b:	add    BYTE PTR [ecx+0x0],ah
  40576e:	ja     0x405770
  405770:	imul   eax,DWORD PTR [eax],0x67006e
  405776:	sub    al,0x0
  405778:	and    BYTE PTR [eax],al
  40577a:	push   esi
  40577b:	add    BYTE PTR [ebp+0x0],ah
  40577e:	jb     0x405780
  405780:	jae    0x405782
  405782:	imul   eax,DWORD PTR [eax],0x6e006f
  405788:	cmp    eax,0x2e003200
  40578d:	add    BYTE PTR [eax],dh
  40578f:	add    BYTE PTR [esi],ch
  405791:	add    BYTE PTR [eax],dh
  405793:	add    BYTE PTR [esi],ch
  405795:	add    BYTE PTR [eax],dh
  405797:	add    BYTE PTR [eax+eax*1],ch
  40579a:	and    BYTE PTR [eax],al
  40579c:	inc    ebx
  40579d:	add    BYTE PTR [ebp+0x0],dh
  4057a0:	ins    BYTE PTR es:[edi],dx
  4057a1:	add    BYTE PTR [eax+eax*1+0x75],dh
  4057a5:	add    BYTE PTR [edx+0x0],dh
  4057a8:	add    BYTE PTR gs:0x65006e00,bh
  4057af:	add    BYTE PTR [ebp+0x0],dh
  4057b2:	je     0x4057b4
  4057b4:	jb     0x4057b6
  4057b6:	popa   
  4057b7:	add    BYTE PTR [eax+eax*1+0x2c],ch
  4057bb:	add    BYTE PTR [eax],ah
  4057bd:	add    BYTE PTR [eax+0x0],dl
  4057c0:	jne    0x4057c2
  4057c2:	bound  eax,QWORD PTR [eax]
  4057c4:	ins    BYTE PTR es:[edi],dx
  4057c5:	add    BYTE PTR [ecx+0x0],ch
  4057c8:	arpl   WORD PTR [eax],ax
  4057ca:	dec    ebx
  4057cb:	add    BYTE PTR [ebp+0x0],ah
  4057ce:	jns    0x4057d0
  4057d0:	push   esp
  4057d1:	add    BYTE PTR [edi+0x0],ch
  4057d4:	imul   eax,DWORD PTR [eax],0x65
  4057d7:	add    BYTE PTR [esi+0x0],ch
  4057da:	cmp    eax,0x30006200
  4057df:	add    BYTE PTR [ebx],dh
  4057e1:	add    BYTE PTR [esi+0x0],ah
  4057e4:	xor    eax,0x37006600
  4057e9:	add    BYTE PTR [esi+0x0],ah
  4057ec:	xor    DWORD PTR [eax],eax
  4057ee:	xor    DWORD PTR [eax],eax
  4057f0:	add    BYTE PTR fs:0x61003000,dh
  4057f7:	add    BYTE PTR [ebx],dh
  4057f9:	add    BYTE PTR [ecx+0x0],ah
  4057fc:	cmp    BYTE PTR [eax+0x790053],0x73
  405803:	add    BYTE PTR [eax+eax*1+0x65],dh
  405807:	add    BYTE PTR [ebp+0x0],ch
  40580a:	add    BYTE PTR cs:[ebp+0x0],al
  40580e:	outs   dx,BYTE PTR ds:[esi]
  40580f:	add    BYTE PTR [eax+eax*1+0x65],dh
  405813:	add    BYTE PTR [edx+0x0],dh
  405816:	jo     0x405818
  405818:	jb     0x40581a
  40581a:	imul   eax,DWORD PTR [eax],0x650073
  405820:	push   ebx
  405821:	add    BYTE PTR [ebp+0x0],ah
  405824:	jb     0x405826
  405826:	jbe    0x405828
  405828:	imul   eax,DWORD PTR [eax],0x650063
  40582e:	jae    0x405830
  405830:	sub    al,0x0
  405832:	and    BYTE PTR [eax],al
  405834:	push   esi
  405835:	add    BYTE PTR [ebp+0x0],ah
  405838:	jb     0x40583a
  40583a:	jae    0x40583c
  40583c:	imul   eax,DWORD PTR [eax],0x6e006f
  405842:	cmp    eax,0x2e003200
  405847:	add    BYTE PTR [eax],dh
  405849:	add    BYTE PTR [esi],ch
  40584b:	add    BYTE PTR [eax],dh
  40584d:	add    BYTE PTR [esi],ch
  40584f:	add    BYTE PTR [eax],dh
  405851:	add    BYTE PTR [eax+eax*1],ch
  405854:	and    BYTE PTR [eax],al
  405856:	inc    ebx
  405857:	add    BYTE PTR [ebp+0x0],dh
  40585a:	ins    BYTE PTR es:[edi],dx
  40585b:	add    BYTE PTR [eax+eax*1+0x75],dh
  40585f:	add    BYTE PTR [edx+0x0],dh
  405862:	add    BYTE PTR gs:0x65006e00,bh
  405869:	add    BYTE PTR [ebp+0x0],dh
  40586c:	je     0x40586e
  40586e:	jb     0x405870
  405870:	popa   
  405871:	add    BYTE PTR [eax+eax*1+0x2c],ch
  405875:	add    BYTE PTR [eax],ah
  405877:	add    BYTE PTR [eax+0x0],dl
  40587a:	jne    0x40587c
  40587c:	bound  eax,QWORD PTR [eax]
  40587e:	ins    BYTE PTR es:[edi],dx
  40587f:	add    BYTE PTR [ecx+0x0],ch
  405882:	arpl   WORD PTR [eax],ax
  405884:	dec    ebx
  405885:	add    BYTE PTR [ebp+0x0],ah
  405888:	jns    0x40588a
  40588a:	push   esp
  40588b:	add    BYTE PTR [edi+0x0],ch
  40588e:	imul   eax,DWORD PTR [eax],0x65
  405891:	add    BYTE PTR [esi+0x0],ch
  405894:	cmp    eax,0x30006200
  405899:	add    BYTE PTR [ebx],dh
  40589b:	add    BYTE PTR [esi+0x0],ah
  40589e:	xor    eax,0x37006600
  4058a3:	add    BYTE PTR [esi+0x0],ah
  4058a6:	xor    DWORD PTR [eax],eax
  4058a8:	xor    DWORD PTR [eax],eax
  4058aa:	add    BYTE PTR fs:0x61003000,dh
  4058b1:	add    BYTE PTR [ebx],dh
  4058b3:	add    BYTE PTR [ecx+0x0],ah
  4058b6:	sub    BYTE PTR [eax+0x790053],0x73
  4058bd:	add    BYTE PTR [eax+eax*1+0x65],dh
  4058c1:	add    BYTE PTR [ebp+0x0],ch
  4058c4:	add    BYTE PTR cs:[ebp+0x0],cl
  4058c8:	popa   
  4058c9:	add    BYTE PTR [esi+0x0],ch
  4058cc:	popa   
  4058cd:	add    BYTE PTR [edi+0x0],ah
  4058d0:	add    BYTE PTR gs:[ebp+0x0],ch
  4058d4:	add    BYTE PTR gs:[esi+0x0],ch
  4058d8:	je     0x4058da
  4058da:	sub    al,0x0
  4058dc:	and    BYTE PTR [eax],al
  4058de:	push   esi
  4058df:	add    BYTE PTR [ebp+0x0],ah
  4058e2:	jb     0x4058e4
  4058e4:	jae    0x4058e6
  4058e6:	imul   eax,DWORD PTR [eax],0x6e006f
  4058ec:	cmp    eax,0x2e003200
  4058f1:	add    BYTE PTR [eax],dh
  4058f3:	add    BYTE PTR [esi],ch
  4058f5:	add    BYTE PTR [eax],dh
  4058f7:	add    BYTE PTR [esi],ch
  4058f9:	add    BYTE PTR [eax],dh
  4058fb:	add    BYTE PTR [eax+eax*1],ch
  4058fe:	and    BYTE PTR [eax],al
  405900:	inc    ebx
  405901:	add    BYTE PTR [ebp+0x0],dh
  405904:	ins    BYTE PTR es:[edi],dx
  405905:	add    BYTE PTR [eax+eax*1+0x75],dh
  405909:	add    BYTE PTR [edx+0x0],dh
  40590c:	add    BYTE PTR gs:0x65006e00,bh
  405913:	add    BYTE PTR [ebp+0x0],dh
  405916:	je     0x405918
  405918:	jb     0x40591a
  40591a:	popa   
  40591b:	add    BYTE PTR [eax+eax*1+0x2c],ch
  40591f:	add    BYTE PTR [eax],ah
  405921:	add    BYTE PTR [eax+0x0],dl
  405924:	jne    0x405926
  405926:	bound  eax,QWORD PTR [eax]
  405928:	ins    BYTE PTR es:[edi],dx
  405929:	add    BYTE PTR [ecx+0x0],ch
  40592c:	arpl   WORD PTR [eax],ax
  40592e:	dec    ebx
  40592f:	add    BYTE PTR [ebp+0x0],ah
  405932:	jns    0x405934
  405934:	push   esp
  405935:	add    BYTE PTR [edi+0x0],ch
  405938:	imul   eax,DWORD PTR [eax],0x65
  40593b:	add    BYTE PTR [esi+0x0],ch
  40593e:	cmp    eax,0x30006200
  405943:	add    BYTE PTR [ebx],dh
  405945:	add    BYTE PTR [esi+0x0],ah
  405948:	xor    eax,0x37006600
  40594d:	add    BYTE PTR [esi+0x0],ah
  405950:	xor    DWORD PTR [eax],eax
  405952:	xor    DWORD PTR [eax],eax
  405954:	add    BYTE PTR fs:0x61003000,dh
  40595b:	add    BYTE PTR [ebx],dh
  40595d:	add    BYTE PTR [ecx+0x0],ah
  405960:	and    BYTE PTR [esi+0x790053],0x73
  405967:	add    BYTE PTR [eax+eax*1+0x65],dh
  40596b:	add    BYTE PTR [ebp+0x0],ch
  40596e:	add    BYTE PTR cs:[ebp+0x0],cl
  405972:	add    BYTE PTR gs:[ebx+0x0],dh
  405976:	jae    0x405978
  405978:	popa   
  405979:	add    BYTE PTR [edi+0x0],ah
  40597c:	imul   eax,DWORD PTR [eax],0x67006e
  405982:	sub    al,0x0
  405984:	and    BYTE PTR [eax],al
  405986:	push   esi
  405987:	add    BYTE PTR [ebp+0x0],ah
  40598a:	jb     0x40598c
  40598c:	jae    0x40598e
  40598e:	imul   eax,DWORD PTR [eax],0x6e006f
  405994:	cmp    eax,0x2e003200
  405999:	add    BYTE PTR [eax],dh
  40599b:	add    BYTE PTR [esi],ch
  40599d:	add    BYTE PTR [eax],dh
  40599f:	add    BYTE PTR [esi],ch
  4059a1:	add    BYTE PTR [eax],dh
  4059a3:	add    BYTE PTR [eax+eax*1],ch
  4059a6:	and    BYTE PTR [eax],al
  4059a8:	inc    ebx
  4059a9:	add    BYTE PTR [ebp+0x0],dh
  4059ac:	ins    BYTE PTR es:[edi],dx
  4059ad:	add    BYTE PTR [eax+eax*1+0x75],dh
  4059b1:	add    BYTE PTR [edx+0x0],dh
  4059b4:	add    BYTE PTR gs:0x65006e00,bh
  4059bb:	add    BYTE PTR [ebp+0x0],dh
  4059be:	je     0x4059c0
  4059c0:	jb     0x4059c2
  4059c2:	popa   
  4059c3:	add    BYTE PTR [eax+eax*1+0x2c],ch
  4059c7:	add    BYTE PTR [eax],ah
  4059c9:	add    BYTE PTR [eax+0x0],dl
  4059cc:	jne    0x4059ce
  4059ce:	bound  eax,QWORD PTR [eax]
  4059d0:	ins    BYTE PTR es:[edi],dx
  4059d1:	add    BYTE PTR [ecx+0x0],ch
  4059d4:	arpl   WORD PTR [eax],ax
  4059d6:	dec    ebx
  4059d7:	add    BYTE PTR [ebp+0x0],ah
  4059da:	jns    0x4059dc
  4059dc:	push   esp
  4059dd:	add    BYTE PTR [edi+0x0],ch
  4059e0:	imul   eax,DWORD PTR [eax],0x65
  4059e3:	add    BYTE PTR [esi+0x0],ch
  4059e6:	cmp    eax,0x30006200
  4059eb:	add    BYTE PTR [ebx],dh
  4059ed:	add    BYTE PTR [esi+0x0],ah
  4059f0:	xor    eax,0x37006600
  4059f5:	add    BYTE PTR [esi+0x0],ah
  4059f8:	xor    DWORD PTR [eax],eax
  4059fa:	xor    DWORD PTR [eax],eax
  4059fc:	add    BYTE PTR fs:0x61003000,dh
  405a03:	add    BYTE PTR [ebx],dh
  405a05:	add    BYTE PTR [ecx+0x0],ah
  405a08:	sbb    dh,0x53
  405a0b:	add    BYTE PTR [ecx+0x0],bh
  405a0e:	jae    0x405a10
  405a10:	je     0x405a12
  405a12:	add    BYTE PTR gs:[ebp+0x0],ch
  405a16:	add    BYTE PTR cs:[edx+0x0],dl
  405a1a:	jne    0x405a1c
  405a1c:	outs   dx,BYTE PTR ds:[esi]
  405a1d:	add    BYTE PTR [eax+eax*1+0x69],dh
  405a21:	add    BYTE PTR [ebp+0x0],ch
  405a24:	add    BYTE PTR gs:[esi],ch
  405a27:	add    BYTE PTR [ebx+0x0],dl
  405a2a:	add    BYTE PTR gs:[edx+0x0],dh
  405a2e:	imul   eax,DWORD PTR [eax],0x6c0061
  405a34:	imul   eax,DWORD PTR [eax],0x61007a
  405a3a:	je     0x405a3c
  405a3c:	imul   eax,DWORD PTR [eax],0x6e006f
  405a42:	add    BYTE PTR cs:[esi+0x0],al
  405a46:	outs   dx,DWORD PTR ds:[esi]
  405a47:	add    BYTE PTR [edx+0x0],dh
  405a4a:	ins    DWORD PTR es:[edi],dx
  405a4b:	add    BYTE PTR [ecx+0x0],ah
  405a4e:	je     0x405a50
  405a50:	je     0x405a52
  405a52:	add    BYTE PTR gs:[edx+0x0],dh
  405a56:	jae    0x405a58
  405a58:	add    BYTE PTR cs:[ebx+0x0],dl
  405a5c:	outs   dx,DWORD PTR ds:[esi]
  405a5d:	add    BYTE PTR [ecx+0x0],ah
  405a60:	jo     0x405a62
  405a62:	sub    al,0x0
  405a64:	and    BYTE PTR [eax],al
  405a66:	push   esi
  405a67:	add    BYTE PTR [ebp+0x0],ah
  405a6a:	jb     0x405a6c
  405a6c:	jae    0x405a6e
  405a6e:	imul   eax,DWORD PTR [eax],0x6e006f
  405a74:	cmp    eax,0x2e003200
  405a79:	add    BYTE PTR [eax],dh
  405a7b:	add    BYTE PTR [esi],ch
  405a7d:	add    BYTE PTR [eax],dh
  405a7f:	add    BYTE PTR [esi],ch
  405a81:	add    BYTE PTR [eax],dh
  405a83:	add    BYTE PTR [eax+eax*1],ch
  405a86:	and    BYTE PTR [eax],al
  405a88:	inc    ebx
  405a89:	add    BYTE PTR [ebp+0x0],dh
  405a8c:	ins    BYTE PTR es:[edi],dx
  405a8d:	add    BYTE PTR [eax+eax*1+0x75],dh
  405a91:	add    BYTE PTR [edx+0x0],dh
  405a94:	add    BYTE PTR gs:0x65006e00,bh
  405a9b:	add    BYTE PTR [ebp+0x0],dh
  405a9e:	je     0x405aa0
  405aa0:	jb     0x405aa2
  405aa2:	popa   
  405aa3:	add    BYTE PTR [eax+eax*1+0x2c],ch
  405aa7:	add    BYTE PTR [eax],ah
  405aa9:	add    BYTE PTR [eax+0x0],dl
  405aac:	jne    0x405aae
  405aae:	bound  eax,QWORD PTR [eax]
  405ab0:	ins    BYTE PTR es:[edi],dx
  405ab1:	add    BYTE PTR [ecx+0x0],ch
  405ab4:	arpl   WORD PTR [eax],ax
  405ab6:	dec    ebx
  405ab7:	add    BYTE PTR [ebp+0x0],ah
  405aba:	jns    0x405abc
  405abc:	push   esp
  405abd:	add    BYTE PTR [edi+0x0],ch
  405ac0:	imul   eax,DWORD PTR [eax],0x65
  405ac3:	add    BYTE PTR [esi+0x0],ch
  405ac6:	cmp    eax,0x30006200
  405acb:	add    BYTE PTR [ebx],dh
  405acd:	add    BYTE PTR [esi+0x0],ah
  405ad0:	xor    eax,0x37006600
  405ad5:	add    BYTE PTR [esi+0x0],ah
  405ad8:	xor    DWORD PTR [eax],eax
  405ada:	xor    DWORD PTR [eax],eax
  405adc:	add    BYTE PTR fs:0x61003000,dh
  405ae3:	add    BYTE PTR [ebx],dh
  405ae5:	add    BYTE PTR [ecx+0x0],ah
  405ae8:	and    BYTE PTR [ebx+edx*2+0x73007900],0x0
  405af0:	je     0x405af2
  405af2:	add    BYTE PTR gs:[ebp+0x0],ch
  405af6:	add    BYTE PTR cs:[ebx+0x0],dl
  405afa:	add    BYTE PTR gs:[ebx+0x0],ah
  405afe:	jne    0x405b00
  405b00:	jb     0x405b02
  405b02:	imul   eax,DWORD PTR [eax],0x790074
  405b08:	sub    al,0x0
  405b0a:	and    BYTE PTR [eax],al
  405b0c:	push   esi
  405b0d:	add    BYTE PTR [ebp+0x0],ah
  405b10:	jb     0x405b12
  405b12:	jae    0x405b14
  405b14:	imul   eax,DWORD PTR [eax],0x6e006f
  405b1a:	cmp    eax,0x2e003200
  405b1f:	add    BYTE PTR [eax],dh
  405b21:	add    BYTE PTR [esi],ch
  405b23:	add    BYTE PTR [eax],dh
  405b25:	add    BYTE PTR [esi],ch
  405b27:	add    BYTE PTR [eax],dh
  405b29:	add    BYTE PTR [eax+eax*1],ch
  405b2c:	and    BYTE PTR [eax],al
  405b2e:	inc    ebx
  405b2f:	add    BYTE PTR [ebp+0x0],dh
  405b32:	ins    BYTE PTR es:[edi],dx
  405b33:	add    BYTE PTR [eax+eax*1+0x75],dh
  405b37:	add    BYTE PTR [edx+0x0],dh
  405b3a:	add    BYTE PTR gs:0x65006e00,bh
  405b41:	add    BYTE PTR [ebp+0x0],dh
  405b44:	je     0x405b46
  405b46:	jb     0x405b48
  405b48:	popa   
  405b49:	add    BYTE PTR [eax+eax*1+0x2c],ch
  405b4d:	add    BYTE PTR [eax],ah
  405b4f:	add    BYTE PTR [eax+0x0],dl
  405b52:	jne    0x405b54
  405b54:	bound  eax,QWORD PTR [eax]
  405b56:	ins    BYTE PTR es:[edi],dx
  405b57:	add    BYTE PTR [ecx+0x0],ch
  405b5a:	arpl   WORD PTR [eax],ax
  405b5c:	dec    ebx
  405b5d:	add    BYTE PTR [ebp+0x0],ah
  405b60:	jns    0x405b62
  405b62:	push   esp
  405b63:	add    BYTE PTR [edi+0x0],ch
  405b66:	imul   eax,DWORD PTR [eax],0x65
  405b69:	add    BYTE PTR [esi+0x0],ch
  405b6c:	cmp    eax,0x30006200
  405b71:	add    BYTE PTR [ebx],dh
  405b73:	add    BYTE PTR [esi+0x0],ah
  405b76:	xor    eax,0x37006600
  405b7b:	add    BYTE PTR [esi+0x0],ah
  405b7e:	xor    DWORD PTR [eax],eax
  405b80:	xor    DWORD PTR [eax],eax
  405b82:	add    BYTE PTR fs:0x61003000,dh
  405b89:	add    BYTE PTR [ebx],dh
  405b8b:	add    BYTE PTR [ecx+0x0],ah
  405b8e:	xor    BYTE PTR [eax+0x790053],0x73
  405b95:	add    BYTE PTR [eax+eax*1+0x65],dh
  405b99:	add    BYTE PTR [ebp+0x0],ch
  405b9c:	add    BYTE PTR cs:[ebx+0x0],dl
  405ba0:	add    BYTE PTR gs:[edx+0x0],dh
  405ba4:	jbe    0x405ba6
  405ba6:	imul   eax,DWORD PTR [eax],0x650063
  405bac:	push   eax
  405bad:	add    BYTE PTR [edx+0x0],dh
  405bb0:	outs   dx,DWORD PTR ds:[esi]
  405bb1:	add    BYTE PTR [ebx+0x0],ah
  405bb4:	add    BYTE PTR gs:[ebx+0x0],dh
  405bb8:	jae    0x405bba
  405bba:	sub    al,0x0
  405bbc:	and    BYTE PTR [eax],al
  405bbe:	push   esi
  405bbf:	add    BYTE PTR [ebp+0x0],ah
  405bc2:	jb     0x405bc4
  405bc4:	jae    0x405bc6
  405bc6:	imul   eax,DWORD PTR [eax],0x6e006f
  405bcc:	cmp    eax,0x2e003200
  405bd1:	add    BYTE PTR [eax],dh
  405bd3:	add    BYTE PTR [esi],ch
  405bd5:	add    BYTE PTR [eax],dh
  405bd7:	add    BYTE PTR [esi],ch
  405bd9:	add    BYTE PTR [eax],dh
  405bdb:	add    BYTE PTR [eax+eax*1],ch
  405bde:	and    BYTE PTR [eax],al
  405be0:	inc    ebx
  405be1:	add    BYTE PTR [ebp+0x0],dh
  405be4:	ins    BYTE PTR es:[edi],dx
  405be5:	add    BYTE PTR [eax+eax*1+0x75],dh
  405be9:	add    BYTE PTR [edx+0x0],dh
  405bec:	add    BYTE PTR gs:0x65006e00,bh
  405bf3:	add    BYTE PTR [ebp+0x0],dh
  405bf6:	je     0x405bf8
  405bf8:	jb     0x405bfa
  405bfa:	popa   
  405bfb:	add    BYTE PTR [eax+eax*1+0x2c],ch
  405bff:	add    BYTE PTR [eax],ah
  405c01:	add    BYTE PTR [eax+0x0],dl
  405c04:	jne    0x405c06
  405c06:	bound  eax,QWORD PTR [eax]
  405c08:	ins    BYTE PTR es:[edi],dx
  405c09:	add    BYTE PTR [ecx+0x0],ch
  405c0c:	arpl   WORD PTR [eax],ax
  405c0e:	dec    ebx
  405c0f:	add    BYTE PTR [ebp+0x0],ah
  405c12:	jns    0x405c14
  405c14:	push   esp
  405c15:	add    BYTE PTR [edi+0x0],ch
  405c18:	imul   eax,DWORD PTR [eax],0x65
  405c1b:	add    BYTE PTR [esi+0x0],ch
  405c1e:	cmp    eax,0x30006200
  405c23:	add    BYTE PTR [ebx],dh
  405c25:	add    BYTE PTR [esi+0x0],ah
  405c28:	xor    eax,0x37006600
  405c2d:	add    BYTE PTR [esi+0x0],ah
  405c30:	xor    DWORD PTR [eax],eax
  405c32:	xor    DWORD PTR [eax],eax
  405c34:	add    BYTE PTR fs:0x61003000,dh
  405c3b:	add    BYTE PTR [ebx],dh
  405c3d:	add    BYTE PTR [ecx+0x0],ah
  405c40:	sbb    BYTE PTR [edx+0x790053],0x73
  405c47:	add    BYTE PTR [eax+eax*1+0x65],dh
  405c4b:	add    BYTE PTR [ebp+0x0],ch
  405c4e:	add    BYTE PTR cs:[edi+0x0],dl
  405c52:	add    BYTE PTR gs:[edx+0x0],ah
  405c56:	sub    al,0x0
  405c58:	and    BYTE PTR [eax],al
  405c5a:	push   esi
  405c5b:	add    BYTE PTR [ebp+0x0],ah
  405c5e:	jb     0x405c60
  405c60:	jae    0x405c62
  405c62:	imul   eax,DWORD PTR [eax],0x6e006f
  405c68:	cmp    eax,0x2e003200
  405c6d:	add    BYTE PTR [eax],dh
  405c6f:	add    BYTE PTR [esi],ch
  405c71:	add    BYTE PTR [eax],dh
  405c73:	add    BYTE PTR [esi],ch
  405c75:	add    BYTE PTR [eax],dh
  405c77:	add    BYTE PTR [eax+eax*1],ch
  405c7a:	and    BYTE PTR [eax],al
  405c7c:	inc    ebx
  405c7d:	add    BYTE PTR [ebp+0x0],dh
  405c80:	ins    BYTE PTR es:[edi],dx
  405c81:	add    BYTE PTR [eax+eax*1+0x75],dh
  405c85:	add    BYTE PTR [edx+0x0],dh
  405c88:	add    BYTE PTR gs:0x65006e00,bh
  405c8f:	add    BYTE PTR [ebp+0x0],dh
  405c92:	je     0x405c94
  405c94:	jb     0x405c96
  405c96:	popa   
  405c97:	add    BYTE PTR [eax+eax*1+0x2c],ch
  405c9b:	add    BYTE PTR [eax],ah
  405c9d:	add    BYTE PTR [eax+0x0],dl
  405ca0:	jne    0x405ca2
  405ca2:	bound  eax,QWORD PTR [eax]
  405ca4:	ins    BYTE PTR es:[edi],dx
  405ca5:	add    BYTE PTR [ecx+0x0],ch
  405ca8:	arpl   WORD PTR [eax],ax
  405caa:	dec    ebx
  405cab:	add    BYTE PTR [ebp+0x0],ah
  405cae:	jns    0x405cb0
  405cb0:	push   esp
  405cb1:	add    BYTE PTR [edi+0x0],ch
  405cb4:	imul   eax,DWORD PTR [eax],0x65
  405cb7:	add    BYTE PTR [esi+0x0],ch
  405cba:	cmp    eax,0x30006200
  405cbf:	add    BYTE PTR [ebx],dh
  405cc1:	add    BYTE PTR [esi+0x0],ah
  405cc4:	xor    eax,0x37006600
  405cc9:	add    BYTE PTR [esi+0x0],ah
  405ccc:	xor    DWORD PTR [eax],eax
  405cce:	xor    DWORD PTR [eax],eax
  405cd0:	add    BYTE PTR fs:0x61003000,dh
  405cd7:	add    BYTE PTR [ebx],dh
  405cd9:	add    BYTE PTR [ecx+0x0],ah
  405cdc:	xor    BYTE PTR [ebx+edx*2+0x73007900],0x0
  405ce4:	je     0x405ce6
  405ce6:	add    BYTE PTR gs:[ebp+0x0],ch
  405cea:	add    BYTE PTR cs:[edi+0x0],dl
  405cee:	add    BYTE PTR gs:[edx+0x0],ah
  405cf2:	add    BYTE PTR cs:[ecx+0x0],al
  405cf6:	bound  eax,QWORD PTR [eax]
  405cf8:	jae    0x405cfa
  405cfa:	je     0x405cfc
  405cfc:	jb     0x405cfe
  405cfe:	popa   
  405cff:	add    BYTE PTR [ebx+0x0],ah
  405d02:	je     0x405d04
  405d04:	imul   eax,DWORD PTR [eax],0x6e006f
  405d0a:	jae    0x405d0c
  405d0c:	sub    al,0x0
  405d0e:	and    BYTE PTR [eax],al
  405d10:	push   esi
  405d11:	add    BYTE PTR [ebp+0x0],ah
  405d14:	jb     0x405d16
  405d16:	jae    0x405d18
  405d18:	imul   eax,DWORD PTR [eax],0x6e006f
  405d1e:	cmp    eax,0x2e003300
  405d23:	add    BYTE PTR ds:0x30002e00,dh
  405d29:	add    BYTE PTR [esi],ch
  405d2b:	add    BYTE PTR [eax],dh
  405d2d:	add    BYTE PTR [eax+eax*1],ch
  405d30:	and    BYTE PTR [eax],al
  405d32:	inc    ebx
  405d33:	add    BYTE PTR [ebp+0x0],dh
  405d36:	ins    BYTE PTR es:[edi],dx
  405d37:	add    BYTE PTR [eax+eax*1+0x75],dh
  405d3b:	add    BYTE PTR [edx+0x0],dh
  405d3e:	add    BYTE PTR gs:0x65006e00,bh
  405d45:	add    BYTE PTR [ebp+0x0],dh
  405d48:	je     0x405d4a
  405d4a:	jb     0x405d4c
  405d4c:	popa   
  405d4d:	add    BYTE PTR [eax+eax*1+0x2c],ch
  405d51:	add    BYTE PTR [eax],ah
  405d53:	add    BYTE PTR [eax+0x0],dl
  405d56:	jne    0x405d58
  405d58:	bound  eax,QWORD PTR [eax]
  405d5a:	ins    BYTE PTR es:[edi],dx
  405d5b:	add    BYTE PTR [ecx+0x0],ch
  405d5e:	arpl   WORD PTR [eax],ax
  405d60:	dec    ebx
  405d61:	add    BYTE PTR [ebp+0x0],ah
  405d64:	jns    0x405d66
  405d66:	push   esp
  405d67:	add    BYTE PTR [edi+0x0],ch
  405d6a:	imul   eax,DWORD PTR [eax],0x65
  405d6d:	add    BYTE PTR [esi+0x0],ch
  405d70:	cmp    eax,0x31003300
  405d75:	add    BYTE PTR [edx+0x0],ah
  405d78:	data16 add BYTE PTR [ebx],dh
  405d7b:	add    BYTE PTR [eax],bh
  405d7d:	add    BYTE PTR ds:0x61003600,dh
  405d83:	add    BYTE PTR [eax+eax*1+0x33],ah
  405d87:	add    BYTE PTR [esi],dh
  405d89:	add    BYTE PTR [eax+eax*1],dh
  405d8c:	add    BYTE PTR gs:[ebx],dh
  405d8f:	add    BYTE PTR ds:0x53b28000,dh
  405d95:	add    BYTE PTR [ecx+0x0],bh
  405d98:	jae    0x405d9a
  405d9a:	je     0x405d9c
  405d9c:	add    BYTE PTR gs:[ebp+0x0],ch
  405da0:	add    BYTE PTR cs:[edi+0x0],dl
  405da4:	add    BYTE PTR gs:[edx+0x0],ah
  405da8:	add    BYTE PTR cs:[eax+eax*1+0x79],al
  405dad:	add    BYTE PTR [esi+0x0],ch
  405db0:	popa   
  405db1:	add    BYTE PTR [ebp+0x0],ch
  405db4:	imul   eax,DWORD PTR [eax],0x440063
  405dba:	popa   
  405dbb:	add    BYTE PTR [eax+eax*1+0x61],dh
  405dbf:	add    BYTE PTR [eax+eax*1],ch
  405dc2:	and    BYTE PTR [eax],al
  405dc4:	push   esi
  405dc5:	add    BYTE PTR [ebp+0x0],ah
  405dc8:	jb     0x405dca
  405dca:	jae    0x405dcc
  405dcc:	imul   eax,DWORD PTR [eax],0x6e006f
  405dd2:	cmp    eax,0x2e003300
  405dd7:	add    BYTE PTR ds:0x30002e00,dh
  405ddd:	add    BYTE PTR [esi],ch
  405ddf:	add    BYTE PTR [eax],dh
  405de1:	add    BYTE PTR [eax+eax*1],ch
  405de4:	and    BYTE PTR [eax],al
  405de6:	inc    ebx
  405de7:	add    BYTE PTR [ebp+0x0],dh
  405dea:	ins    BYTE PTR es:[edi],dx
  405deb:	add    BYTE PTR [eax+eax*1+0x75],dh
  405def:	add    BYTE PTR [edx+0x0],dh
  405df2:	add    BYTE PTR gs:0x65006e00,bh
  405df9:	add    BYTE PTR [ebp+0x0],dh
  405dfc:	je     0x405dfe
  405dfe:	jb     0x405e00
  405e00:	popa   
  405e01:	add    BYTE PTR [eax+eax*1+0x2c],ch
  405e05:	add    BYTE PTR [eax],ah
  405e07:	add    BYTE PTR [eax+0x0],dl
  405e0a:	jne    0x405e0c
  405e0c:	bound  eax,QWORD PTR [eax]
  405e0e:	ins    BYTE PTR es:[edi],dx
  405e0f:	add    BYTE PTR [ecx+0x0],ch
  405e12:	arpl   WORD PTR [eax],ax
  405e14:	dec    ebx
  405e15:	add    BYTE PTR [ebp+0x0],ah
  405e18:	jns    0x405e1a
  405e1a:	push   esp
  405e1b:	add    BYTE PTR [edi+0x0],ch
  405e1e:	imul   eax,DWORD PTR [eax],0x65
  405e21:	add    BYTE PTR [esi+0x0],ch
  405e24:	cmp    eax,0x31003300
  405e29:	add    BYTE PTR [edx+0x0],ah
  405e2c:	data16 add BYTE PTR [ebx],dh
  405e2f:	add    BYTE PTR [eax],bh
  405e31:	add    BYTE PTR ds:0x61003600,dh
  405e37:	add    BYTE PTR [eax+eax*1+0x33],ah
  405e3b:	add    BYTE PTR [esi],dh
  405e3d:	add    BYTE PTR [eax+eax*1],dh
  405e40:	add    BYTE PTR gs:[ebx],dh
  405e43:	add    BYTE PTR ds:0x53c08000,dh
  405e49:	add    BYTE PTR [ecx+0x0],bh
  405e4c:	jae    0x405e4e
  405e4e:	je     0x405e50
  405e50:	add    BYTE PTR gs:[ebp+0x0],ch
  405e54:	add    BYTE PTR cs:[edi+0x0],dl
  405e58:	add    BYTE PTR gs:[edx+0x0],ah
  405e5c:	add    BYTE PTR cs:[eax+eax*1+0x79],al
  405e61:	add    BYTE PTR [esi+0x0],ch
  405e64:	popa   
  405e65:	add    BYTE PTR [ebp+0x0],ch
  405e68:	imul   eax,DWORD PTR [eax],0x440063
  405e6e:	popa   
  405e6f:	add    BYTE PTR [eax+eax*1+0x61],dh
  405e73:	add    BYTE PTR [esi],ch
  405e75:	add    BYTE PTR [eax+eax*1+0x65],al
  405e79:	add    BYTE PTR [ebx+0x0],dh
  405e7c:	imul   eax,DWORD PTR [eax],0x6e0067
  405e82:	sub    al,0x0
  405e84:	and    BYTE PTR [eax],al
  405e86:	push   esi
  405e87:	add    BYTE PTR [ebp+0x0],ah
  405e8a:	jb     0x405e8c
  405e8c:	jae    0x405e8e
  405e8e:	imul   eax,DWORD PTR [eax],0x6e006f
  405e94:	cmp    eax,0x2e003300
  405e99:	add    BYTE PTR ds:0x30002e00,dh
  405e9f:	add    BYTE PTR [esi],ch
  405ea1:	add    BYTE PTR [eax],dh
  405ea3:	add    BYTE PTR [eax+eax*1],ch
  405ea6:	and    BYTE PTR [eax],al
  405ea8:	inc    ebx
  405ea9:	add    BYTE PTR [ebp+0x0],dh
  405eac:	ins    BYTE PTR es:[edi],dx
  405ead:	add    BYTE PTR [eax+eax*1+0x75],dh
  405eb1:	add    BYTE PTR [edx+0x0],dh
  405eb4:	add    BYTE PTR gs:0x65006e00,bh
  405ebb:	add    BYTE PTR [ebp+0x0],dh
  405ebe:	je     0x405ec0
  405ec0:	jb     0x405ec2
  405ec2:	popa   
  405ec3:	add    BYTE PTR [eax+eax*1+0x2c],ch
  405ec7:	add    BYTE PTR [eax],ah
  405ec9:	add    BYTE PTR [eax+0x0],dl
  405ecc:	jne    0x405ece
  405ece:	bound  eax,QWORD PTR [eax]
  405ed0:	ins    BYTE PTR es:[edi],dx
  405ed1:	add    BYTE PTR [ecx+0x0],ch
  405ed4:	arpl   WORD PTR [eax],ax
  405ed6:	dec    ebx
  405ed7:	add    BYTE PTR [ebp+0x0],ah
  405eda:	jns    0x405edc
  405edc:	push   esp
  405edd:	add    BYTE PTR [edi+0x0],ch
  405ee0:	imul   eax,DWORD PTR [eax],0x65
  405ee3:	add    BYTE PTR [esi+0x0],ch
  405ee6:	cmp    eax,0x31003300
  405eeb:	add    BYTE PTR [edx+0x0],ah
  405eee:	data16 add BYTE PTR [ebx],dh
  405ef1:	add    BYTE PTR [eax],bh
  405ef3:	add    BYTE PTR ds:0x61003600,dh
  405ef9:	add    BYTE PTR [eax+eax*1+0x33],ah
  405efd:	add    BYTE PTR [esi],dh
  405eff:	add    BYTE PTR [eax+eax*1],dh
  405f02:	add    BYTE PTR gs:[ebx],dh
  405f05:	add    BYTE PTR ds:0x53b68000,dh
  405f0b:	add    BYTE PTR [ecx+0x0],bh
  405f0e:	jae    0x405f10
  405f10:	je     0x405f12
  405f12:	add    BYTE PTR gs:[ebp+0x0],ch
  405f16:	add    BYTE PTR cs:[edi+0x0],dl
  405f1a:	add    BYTE PTR gs:[edx+0x0],ah
  405f1e:	add    BYTE PTR cs:[ebp+0x0],al
  405f22:	outs   dx,BYTE PTR ds:[esi]
  405f23:	add    BYTE PTR [eax+eax*1+0x69],dh
  405f27:	add    BYTE PTR [eax+eax*1+0x79],dh
  405f2b:	add    BYTE PTR [esi],ch
  405f2d:	add    BYTE PTR [eax+eax*1+0x65],al
  405f31:	add    BYTE PTR [ebx+0x0],dh
  405f34:	imul   eax,DWORD PTR [eax],0x6e0067
  405f3a:	sub    al,0x0
  405f3c:	and    BYTE PTR [eax],al
  405f3e:	push   esi
  405f3f:	add    BYTE PTR [ebp+0x0],ah
  405f42:	jb     0x405f44
  405f44:	jae    0x405f46
  405f46:	imul   eax,DWORD PTR [eax],0x6e006f
  405f4c:	cmp    eax,0x2e003300
  405f51:	add    BYTE PTR ds:0x30002e00,dh
  405f57:	add    BYTE PTR [esi],ch
  405f59:	add    BYTE PTR [eax],dh
  405f5b:	add    BYTE PTR [eax+eax*1],ch
  405f5e:	and    BYTE PTR [eax],al
  405f60:	inc    ebx
  405f61:	add    BYTE PTR [ebp+0x0],dh
  405f64:	ins    BYTE PTR es:[edi],dx
  405f65:	add    BYTE PTR [eax+eax*1+0x75],dh
  405f69:	add    BYTE PTR [edx+0x0],dh
  405f6c:	add    BYTE PTR gs:0x65006e00,bh
  405f73:	add    BYTE PTR [ebp+0x0],dh
  405f76:	je     0x405f78
  405f78:	jb     0x405f7a
  405f7a:	popa   
  405f7b:	add    BYTE PTR [eax+eax*1+0x2c],ch
  405f7f:	add    BYTE PTR [eax],ah
  405f81:	add    BYTE PTR [eax+0x0],dl
  405f84:	jne    0x405f86
  405f86:	bound  eax,QWORD PTR [eax]
  405f88:	ins    BYTE PTR es:[edi],dx
  405f89:	add    BYTE PTR [ecx+0x0],ch
  405f8c:	arpl   WORD PTR [eax],ax
  405f8e:	dec    ebx
  405f8f:	add    BYTE PTR [ebp+0x0],ah
  405f92:	jns    0x405f94
  405f94:	push   esp
  405f95:	add    BYTE PTR [edi+0x0],ch
  405f98:	imul   eax,DWORD PTR [eax],0x65
  405f9b:	add    BYTE PTR [esi+0x0],ch
  405f9e:	cmp    eax,0x37006200
  405fa3:	add    BYTE PTR [edi],dh
  405fa5:	add    BYTE PTR [ecx+0x0],ah
  405fa8:	xor    eax,0x35006300
  405fad:	add    BYTE PTR [esi],dh
  405faf:	add    BYTE PTR [ecx],dh
  405fb1:	add    BYTE PTR [ecx],bh
  405fb3:	add    BYTE PTR [ebx],dh
  405fb5:	add    BYTE PTR [eax+eax*1],dh
  405fb8:	add    BYTE PTR gs:[eax],dh
  405fbb:	add    BYTE PTR [eax],bh
  405fbd:	add    BYTE PTR [ecx],bh
  405fbf:	add    BYTE PTR [eax+0x790053b0],al
  405fc5:	add    BYTE PTR [ebx+0x0],dh
  405fc8:	je     0x405fca
  405fca:	add    BYTE PTR gs:[ebp+0x0],ch
  405fce:	add    BYTE PTR cs:[edi+0x0],dl
  405fd2:	add    BYTE PTR gs:[edx+0x0],ah
  405fd6:	add    BYTE PTR cs:[ebp+0x0],al
  405fda:	js     0x405fdc
  405fdc:	je     0x405fde
  405fde:	add    BYTE PTR gs:[esi+0x0],ch
  405fe2:	jae    0x405fe4
  405fe4:	imul   eax,DWORD PTR [eax],0x6e006f
  405fea:	jae    0x405fec
  405fec:	sub    al,0x0
  405fee:	and    BYTE PTR [eax],al
  405ff0:	push   esi
  405ff1:	add    BYTE PTR [ebp+0x0],ah
  405ff4:	jb     0x405ff6
  405ff6:	jae    0x405ff8
  405ff8:	imul   eax,DWORD PTR [eax],0x6e006f
  405ffe:	cmp    eax,0x2e003300
  406003:	add    BYTE PTR ds:0x30002e00,dh
  406009:	add    BYTE PTR [esi],ch
  40600b:	add    BYTE PTR [eax],dh
  40600d:	add    BYTE PTR [eax+eax*1],ch
  406010:	and    BYTE PTR [eax],al
  406012:	inc    ebx
  406013:	add    BYTE PTR [ebp+0x0],dh
  406016:	ins    BYTE PTR es:[edi],dx
  406017:	add    BYTE PTR [eax+eax*1+0x75],dh
  40601b:	add    BYTE PTR [edx+0x0],dh
  40601e:	add    BYTE PTR gs:0x65006e00,bh
  406025:	add    BYTE PTR [ebp+0x0],dh
  406028:	je     0x40602a
  40602a:	jb     0x40602c
  40602c:	popa   
  40602d:	add    BYTE PTR [eax+eax*1+0x2c],ch
  406031:	add    BYTE PTR [eax],ah
  406033:	add    BYTE PTR [eax+0x0],dl
  406036:	jne    0x406038
  406038:	bound  eax,QWORD PTR [eax]
  40603a:	ins    BYTE PTR es:[edi],dx
  40603b:	add    BYTE PTR [ecx+0x0],ch
  40603e:	arpl   WORD PTR [eax],ax
  406040:	dec    ebx
  406041:	add    BYTE PTR [ebp+0x0],ah
  406044:	jns    0x406046
  406046:	push   esp
  406047:	add    BYTE PTR [edi+0x0],ch
  40604a:	imul   eax,DWORD PTR [eax],0x65
  40604d:	add    BYTE PTR [esi+0x0],ch
  406050:	cmp    eax,0x31003300
  406055:	add    BYTE PTR [edx+0x0],ah
  406058:	data16 add BYTE PTR [ebx],dh
  40605b:	add    BYTE PTR [eax],bh
  40605d:	add    BYTE PTR ds:0x61003600,dh
  406063:	add    BYTE PTR [eax+eax*1+0x33],ah
  406067:	add    BYTE PTR [esi],dh
  406069:	add    BYTE PTR [eax+eax*1],dh
  40606c:	add    BYTE PTR gs:[ebx],dh
  40606f:	add    BYTE PTR ds:0x53be8000,dh
  406075:	add    BYTE PTR [ecx+0x0],bh
  406078:	jae    0x40607a
  40607a:	je     0x40607c
  40607c:	add    BYTE PTR gs:[ebp+0x0],ch
  406080:	add    BYTE PTR cs:[edi+0x0],dl
  406084:	add    BYTE PTR gs:[edx+0x0],ah
  406088:	add    BYTE PTR cs:[ebp+0x0],al
  40608c:	js     0x40608e
  40608e:	je     0x406090
  406090:	add    BYTE PTR gs:[esi+0x0],ch
  406094:	jae    0x406096
  406096:	imul   eax,DWORD PTR [eax],0x6e006f
  40609c:	jae    0x40609e
  40609e:	add    BYTE PTR cs:[eax+eax*1+0x65],al
  4060a3:	add    BYTE PTR [ebx+0x0],dh
  4060a6:	imul   eax,DWORD PTR [eax],0x6e0067
  4060ac:	sub    al,0x0
  4060ae:	and    BYTE PTR [eax],al
  4060b0:	push   esi
  4060b1:	add    BYTE PTR [ebp+0x0],ah
  4060b4:	jb     0x4060b6
  4060b6:	jae    0x4060b8
  4060b8:	imul   eax,DWORD PTR [eax],0x6e006f
  4060be:	cmp    eax,0x2e003300
  4060c3:	add    BYTE PTR ds:0x30002e00,dh
  4060c9:	add    BYTE PTR [esi],ch
  4060cb:	add    BYTE PTR [eax],dh
  4060cd:	add    BYTE PTR [eax+eax*1],ch
  4060d0:	and    BYTE PTR [eax],al
  4060d2:	inc    ebx
  4060d3:	add    BYTE PTR [ebp+0x0],dh
  4060d6:	ins    BYTE PTR es:[edi],dx
  4060d7:	add    BYTE PTR [eax+eax*1+0x75],dh
  4060db:	add    BYTE PTR [edx+0x0],dh
  4060de:	add    BYTE PTR gs:0x65006e00,bh
  4060e5:	add    BYTE PTR [ebp+0x0],dh
  4060e8:	je     0x4060ea
  4060ea:	jb     0x4060ec
  4060ec:	popa   
  4060ed:	add    BYTE PTR [eax+eax*1+0x2c],ch
  4060f1:	add    BYTE PTR [eax],ah
  4060f3:	add    BYTE PTR [eax+0x0],dl
  4060f6:	jne    0x4060f8
  4060f8:	bound  eax,QWORD PTR [eax]
  4060fa:	ins    BYTE PTR es:[edi],dx
  4060fb:	add    BYTE PTR [ecx+0x0],ch
  4060fe:	arpl   WORD PTR [eax],ax
  406100:	dec    ebx
  406101:	add    BYTE PTR [ebp+0x0],ah
  406104:	jns    0x406106
  406106:	push   esp
  406107:	add    BYTE PTR [edi+0x0],ch
  40610a:	imul   eax,DWORD PTR [eax],0x65
  40610d:	add    BYTE PTR [esi+0x0],ch
  406110:	cmp    eax,0x31003300
  406115:	add    BYTE PTR [edx+0x0],ah
  406118:	data16 add BYTE PTR [ebx],dh
  40611b:	add    BYTE PTR [eax],bh
  40611d:	add    BYTE PTR ds:0x61003600,dh
  406123:	add    BYTE PTR [eax+eax*1+0x33],ah
  406127:	add    BYTE PTR [esi],dh
  406129:	add    BYTE PTR [eax+eax*1],dh
  40612c:	add    BYTE PTR gs:[ebx],dh
  40612f:	add    BYTE PTR ds:0x53a88000,dh
  406135:	add    BYTE PTR [ecx+0x0],bh
  406138:	jae    0x40613a
  40613a:	je     0x40613c
  40613c:	add    BYTE PTR gs:[ebp+0x0],ch
  406140:	add    BYTE PTR cs:[edi+0x0],dl
  406144:	add    BYTE PTR gs:[edx+0x0],ah
  406148:	add    BYTE PTR cs:[ebp+0x0],cl
  40614c:	outs   dx,DWORD PTR ds:[esi]
  40614d:	add    BYTE PTR [edx+0x0],ah
  406150:	imul   eax,DWORD PTR [eax],0x65006c
  406156:	sub    al,0x0
  406158:	and    BYTE PTR [eax],al
  40615a:	push   esi
  40615b:	add    BYTE PTR [ebp+0x0],ah
  40615e:	jb     0x406160
  406160:	jae    0x406162
  406162:	imul   eax,DWORD PTR [eax],0x6e006f
  406168:	cmp    eax,0x2e003200
  40616d:	add    BYTE PTR [eax],dh
  40616f:	add    BYTE PTR [esi],ch
  406171:	add    BYTE PTR [eax],dh
  406173:	add    BYTE PTR [esi],ch
  406175:	add    BYTE PTR [eax],dh
  406177:	add    BYTE PTR [eax+eax*1],ch
  40617a:	and    BYTE PTR [eax],al
  40617c:	inc    ebx
  40617d:	add    BYTE PTR [ebp+0x0],dh
  406180:	ins    BYTE PTR es:[edi],dx
  406181:	add    BYTE PTR [eax+eax*1+0x75],dh
  406185:	add    BYTE PTR [edx+0x0],dh
  406188:	add    BYTE PTR gs:0x65006e00,bh
  40618f:	add    BYTE PTR [ebp+0x0],dh
  406192:	je     0x406194
  406194:	jb     0x406196
  406196:	popa   
  406197:	add    BYTE PTR [eax+eax*1+0x2c],ch
  40619b:	add    BYTE PTR [eax],ah
  40619d:	add    BYTE PTR [eax+0x0],dl
  4061a0:	jne    0x4061a2
  4061a2:	bound  eax,QWORD PTR [eax]
  4061a4:	ins    BYTE PTR es:[edi],dx
  4061a5:	add    BYTE PTR [ecx+0x0],ch
  4061a8:	arpl   WORD PTR [eax],ax
  4061aa:	dec    ebx
  4061ab:	add    BYTE PTR [ebp+0x0],ah
  4061ae:	jns    0x4061b0
  4061b0:	push   esp
  4061b1:	add    BYTE PTR [edi+0x0],ch
  4061b4:	imul   eax,DWORD PTR [eax],0x65
  4061b7:	add    BYTE PTR [esi+0x0],ch
  4061ba:	cmp    eax,0x30006200
  4061bf:	add    BYTE PTR [ebx],dh
  4061c1:	add    BYTE PTR [esi+0x0],ah
  4061c4:	xor    eax,0x37006600
  4061c9:	add    BYTE PTR [esi+0x0],ah
  4061cc:	xor    DWORD PTR [eax],eax
  4061ce:	xor    DWORD PTR [eax],eax
  4061d0:	add    BYTE PTR fs:0x61003000,dh
  4061d7:	add    BYTE PTR [ebx],dh
  4061d9:	add    BYTE PTR [ecx+0x0],ah
  4061dc:	add    al,0x53
  4061df:	add    BYTE PTR [ecx+0x0],bh
  4061e2:	jae    0x4061e4
  4061e4:	je     0x4061e6
  4061e6:	add    BYTE PTR gs:[ebp+0x0],ch
  4061ea:	add    BYTE PTR cs:[edi+0x0],dl
  4061ee:	add    BYTE PTR gs:[edx+0x0],ah
  4061f2:	add    BYTE PTR cs:[edx+0x0],dl
  4061f6:	add    BYTE PTR gs:[edi+0x0],ah
  4061fa:	jne    0x4061fc
  4061fc:	ins    BYTE PTR es:[edi],dx
  4061fd:	add    BYTE PTR [ecx+0x0],ah
  406200:	jb     0x406202
  406202:	inc    ebp
  406203:	add    BYTE PTR [eax+0x0],bh
  406206:	jo     0x406208
  406208:	jb     0x40620a
  40620a:	add    BYTE PTR gs:[ebx+0x0],dh
  40620e:	jae    0x406210
  406210:	imul   eax,DWORD PTR [eax],0x6e006f
  406216:	jae    0x406218
  406218:	sub    al,0x0
  40621a:	and    BYTE PTR [eax],al
  40621c:	push   esi
  40621d:	add    BYTE PTR [ebp+0x0],ah
  406220:	jb     0x406222
  406222:	jae    0x406224
  406224:	imul   eax,DWORD PTR [eax],0x6e006f
  40622a:	cmp    eax,0x2e003200
  40622f:	add    BYTE PTR [eax],dh
  406231:	add    BYTE PTR [esi],ch
  406233:	add    BYTE PTR [eax],dh
  406235:	add    BYTE PTR [esi],ch
  406237:	add    BYTE PTR [eax],dh
  406239:	add    BYTE PTR [eax+eax*1],ch
  40623c:	and    BYTE PTR [eax],al
  40623e:	inc    ebx
  40623f:	add    BYTE PTR [ebp+0x0],dh
  406242:	ins    BYTE PTR es:[edi],dx
  406243:	add    BYTE PTR [eax+eax*1+0x75],dh
  406247:	add    BYTE PTR [edx+0x0],dh
  40624a:	add    BYTE PTR gs:0x65006e00,bh
  406251:	add    BYTE PTR [ebp+0x0],dh
  406254:	je     0x406256
  406256:	jb     0x406258
  406258:	popa   
  406259:	add    BYTE PTR [eax+eax*1+0x2c],ch
  40625d:	add    BYTE PTR [eax],ah
  40625f:	add    BYTE PTR [eax+0x0],dl
  406262:	jne    0x406264
  406264:	bound  eax,QWORD PTR [eax]
  406266:	ins    BYTE PTR es:[edi],dx
  406267:	add    BYTE PTR [ecx+0x0],ch
  40626a:	arpl   WORD PTR [eax],ax
  40626c:	dec    ebx
  40626d:	add    BYTE PTR [ebp+0x0],ah
  406270:	jns    0x406272
  406272:	push   esp
  406273:	add    BYTE PTR [edi+0x0],ch
  406276:	imul   eax,DWORD PTR [eax],0x65
  406279:	add    BYTE PTR [esi+0x0],ch
  40627c:	cmp    eax,0x30006200
  406281:	add    BYTE PTR [ebx],dh
  406283:	add    BYTE PTR [esi+0x0],ah
  406286:	xor    eax,0x37006600
  40628b:	add    BYTE PTR [esi+0x0],ah
  40628e:	xor    DWORD PTR [eax],eax
  406290:	xor    DWORD PTR [eax],eax
  406292:	add    BYTE PTR fs:0x61003000,dh
  406299:	add    BYTE PTR [ebx],dh
  40629b:	add    BYTE PTR [ecx+0x0],ah
  40629e:	sub    BYTE PTR [edx+0x790053],0x73
  4062a5:	add    BYTE PTR [eax+eax*1+0x65],dh
  4062a9:	add    BYTE PTR [ebp+0x0],ch
  4062ac:	add    BYTE PTR cs:[edi+0x0],dl
  4062b0:	add    BYTE PTR gs:[edx+0x0],ah
  4062b4:	add    BYTE PTR cs:[edx+0x0],dl
  4062b8:	outs   dx,DWORD PTR ds:[esi]
  4062b9:	add    BYTE PTR [ebp+0x0],dh
  4062bc:	je     0x4062be
  4062be:	imul   eax,DWORD PTR [eax],0x67006e
  4062c4:	sub    al,0x0
  4062c6:	and    BYTE PTR [eax],al
  4062c8:	push   esi
  4062c9:	add    BYTE PTR [ebp+0x0],ah
  4062cc:	jb     0x4062ce
  4062ce:	jae    0x4062d0
  4062d0:	imul   eax,DWORD PTR [eax],0x6e006f
  4062d6:	cmp    eax,0x2e003300
  4062db:	add    BYTE PTR ds:0x30002e00,dh
  4062e1:	add    BYTE PTR [esi],ch
  4062e3:	add    BYTE PTR [eax],dh
  4062e5:	add    BYTE PTR [eax+eax*1],ch
  4062e8:	and    BYTE PTR [eax],al
  4062ea:	inc    ebx
  4062eb:	add    BYTE PTR [ebp+0x0],dh
  4062ee:	ins    BYTE PTR es:[edi],dx
  4062ef:	add    BYTE PTR [eax+eax*1+0x75],dh
  4062f3:	add    BYTE PTR [edx+0x0],dh
  4062f6:	add    BYTE PTR gs:0x65006e00,bh
  4062fd:	add    BYTE PTR [ebp+0x0],dh
  406300:	je     0x406302
  406302:	jb     0x406304
  406304:	popa   
  406305:	add    BYTE PTR [eax+eax*1+0x2c],ch
  406309:	add    BYTE PTR [eax],ah
  40630b:	add    BYTE PTR [eax+0x0],dl
  40630e:	jne    0x406310
  406310:	bound  eax,QWORD PTR [eax]
  406312:	ins    BYTE PTR es:[edi],dx
  406313:	add    BYTE PTR [ecx+0x0],ch
  406316:	arpl   WORD PTR [eax],ax
  406318:	dec    ebx
  406319:	add    BYTE PTR [ebp+0x0],ah
  40631c:	jns    0x40631e
  40631e:	push   esp
  40631f:	add    BYTE PTR [edi+0x0],ch
  406322:	imul   eax,DWORD PTR [eax],0x65
  406325:	add    BYTE PTR [esi+0x0],ch
  406328:	cmp    eax,0x31003300
  40632d:	add    BYTE PTR [edx+0x0],ah
  406330:	data16 add BYTE PTR [ebx],dh
  406333:	add    BYTE PTR [eax],bh
  406335:	add    BYTE PTR ds:0x61003600,dh
  40633b:	add    BYTE PTR [eax+eax*1+0x33],ah
  40633f:	add    BYTE PTR [esi],dh
  406341:	add    BYTE PTR [eax+eax*1],dh
  406344:	add    BYTE PTR gs:[ebx],dh
  406347:	add    BYTE PTR ds:0x53ac8000,dh
  40634d:	add    BYTE PTR [ecx+0x0],bh
  406350:	jae    0x406352
  406352:	je     0x406354
  406354:	add    BYTE PTR gs:[ebp+0x0],ch
  406358:	add    BYTE PTR cs:[edi+0x0],dl
  40635c:	add    BYTE PTR gs:[edx+0x0],ah
  406360:	add    BYTE PTR cs:[ebx+0x0],dl
  406364:	add    BYTE PTR gs:[edx+0x0],dh
  406368:	jbe    0x40636a
  40636a:	imul   eax,DWORD PTR [eax],0x650063
  406370:	jae    0x406372
  406372:	sub    al,0x0
  406374:	and    BYTE PTR [eax],al
  406376:	push   esi
  406377:	add    BYTE PTR [ebp+0x0],ah
  40637a:	jb     0x40637c
  40637c:	jae    0x40637e
  40637e:	imul   eax,DWORD PTR [eax],0x6e006f
  406384:	cmp    eax,0x2e003200
  406389:	add    BYTE PTR [eax],dh
  40638b:	add    BYTE PTR [esi],ch
  40638d:	add    BYTE PTR [eax],dh
  40638f:	add    BYTE PTR [esi],ch
  406391:	add    BYTE PTR [eax],dh
  406393:	add    BYTE PTR [eax+eax*1],ch
  406396:	and    BYTE PTR [eax],al
  406398:	inc    ebx
  406399:	add    BYTE PTR [ebp+0x0],dh
  40639c:	ins    BYTE PTR es:[edi],dx
  40639d:	add    BYTE PTR [eax+eax*1+0x75],dh
  4063a1:	add    BYTE PTR [edx+0x0],dh
  4063a4:	add    BYTE PTR gs:0x65006e00,bh
  4063ab:	add    BYTE PTR [ebp+0x0],dh
  4063ae:	je     0x4063b0
  4063b0:	jb     0x4063b2
  4063b2:	popa   
  4063b3:	add    BYTE PTR [eax+eax*1+0x2c],ch
  4063b7:	add    BYTE PTR [eax],ah
  4063b9:	add    BYTE PTR [eax+0x0],dl
  4063bc:	jne    0x4063be
  4063be:	bound  eax,QWORD PTR [eax]
  4063c0:	ins    BYTE PTR es:[edi],dx
  4063c1:	add    BYTE PTR [ecx+0x0],ch
  4063c4:	arpl   WORD PTR [eax],ax
  4063c6:	dec    ebx
  4063c7:	add    BYTE PTR [ebp+0x0],ah
  4063ca:	jns    0x4063cc
  4063cc:	push   esp
  4063cd:	add    BYTE PTR [edi+0x0],ch
  4063d0:	imul   eax,DWORD PTR [eax],0x65
  4063d3:	add    BYTE PTR [esi+0x0],ch
  4063d6:	cmp    eax,0x30006200
  4063db:	add    BYTE PTR [ebx],dh
  4063dd:	add    BYTE PTR [esi+0x0],ah
  4063e0:	xor    eax,0x37006600
  4063e5:	add    BYTE PTR [esi+0x0],ah
  4063e8:	xor    DWORD PTR [eax],eax
  4063ea:	xor    DWORD PTR [eax],eax
  4063ec:	add    BYTE PTR fs:0x61003000,dh
  4063f3:	add    BYTE PTR [ebx],dh
  4063f5:	add    BYTE PTR [ecx+0x0],ah
  4063f8:	xor    BYTE PTR [edx+0x69004d],0x63
  4063ff:	add    BYTE PTR [edx+0x0],dh
  406402:	outs   dx,DWORD PTR ds:[esi]
  406403:	add    BYTE PTR [ebx+0x0],dh
  406406:	outs   dx,DWORD PTR ds:[esi]
  406407:	add    BYTE PTR [esi+0x0],ah
  40640a:	je     0x40640c
  40640c:	add    BYTE PTR cs:[esi+0x0],dl
  406410:	imul   eax,DWORD PTR [eax],0x750073
  406416:	popa   
  406417:	add    BYTE PTR [eax+eax*1+0x53],ch
  40641b:	add    BYTE PTR [eax+eax*1+0x75],dh
  40641f:	add    BYTE PTR [eax+eax*1+0x69],ah
  406423:	add    BYTE PTR [edi+0x0],ch
  406426:	sub    al,0x0
  406428:	and    BYTE PTR [eax],al
  40642a:	push   esi
  40642b:	add    BYTE PTR [ebp+0x0],ah
  40642e:	jb     0x406430
  406430:	jae    0x406432
  406432:	imul   eax,DWORD PTR [eax],0x6e006f
  406438:	cmp    eax,0x2e003200
  40643d:	add    BYTE PTR [eax],dh
  40643f:	add    BYTE PTR [esi],ch
  406441:	add    BYTE PTR [eax],dh
  406443:	add    BYTE PTR [esi],ch
  406445:	add    BYTE PTR [eax],dh
  406447:	add    BYTE PTR [eax+eax*1],ch
  40644a:	and    BYTE PTR [eax],al
  40644c:	inc    ebx
  40644d:	add    BYTE PTR [ebp+0x0],dh
  406450:	ins    BYTE PTR es:[edi],dx
  406451:	add    BYTE PTR [eax+eax*1+0x75],dh
  406455:	add    BYTE PTR [edx+0x0],dh
  406458:	add    BYTE PTR gs:0x65006e00,bh
  40645f:	add    BYTE PTR [ebp+0x0],dh
  406462:	je     0x406464
  406464:	jb     0x406466
  406466:	popa   
  406467:	add    BYTE PTR [eax+eax*1+0x2c],ch
  40646b:	add    BYTE PTR [eax],ah
  40646d:	add    BYTE PTR [eax+0x0],dl
  406470:	jne    0x406472
  406472:	bound  eax,QWORD PTR [eax]
  406474:	ins    BYTE PTR es:[edi],dx
  406475:	add    BYTE PTR [ecx+0x0],ch
  406478:	arpl   WORD PTR [eax],ax
  40647a:	dec    ebx
  40647b:	add    BYTE PTR [ebp+0x0],ah
  40647e:	jns    0x406480
  406480:	push   esp
  406481:	add    BYTE PTR [edi+0x0],ch
  406484:	imul   eax,DWORD PTR [eax],0x65
  406487:	add    BYTE PTR [esi+0x0],ch
  40648a:	cmp    eax,0x30006200
  40648f:	add    BYTE PTR [ebx],dh
  406491:	add    BYTE PTR [esi+0x0],ah
  406494:	xor    eax,0x37006600
  406499:	add    BYTE PTR [esi+0x0],ah
  40649c:	xor    DWORD PTR [eax],eax
  40649e:	xor    DWORD PTR [eax],eax
  4064a0:	add    BYTE PTR fs:0x61003000,dh
  4064a7:	add    BYTE PTR [ebx],dh
  4064a9:	add    BYTE PTR [ecx+0x0],ah
  4064ac:	or     dh,0x4d
  4064af:	add    BYTE PTR [ecx+0x0],ch
  4064b2:	arpl   WORD PTR [eax],ax
  4064b4:	jb     0x4064b6
  4064b6:	outs   dx,DWORD PTR ds:[esi]
  4064b7:	add    BYTE PTR [ebx+0x0],dh
  4064ba:	outs   dx,DWORD PTR ds:[esi]
  4064bb:	add    BYTE PTR [esi+0x0],ah
  4064be:	je     0x4064c0
  4064c0:	add    BYTE PTR cs:[esi+0x0],dl
  4064c4:	imul   eax,DWORD PTR [eax],0x750073
  4064ca:	popa   
  4064cb:	add    BYTE PTR [eax+eax*1+0x53],ch
  4064cf:	add    BYTE PTR [eax+eax*1+0x75],dh
  4064d3:	add    BYTE PTR [eax+eax*1+0x69],ah
  4064d7:	add    BYTE PTR [edi+0x0],ch
  4064da:	add    BYTE PTR cs:[edi+0x0],dl
  4064de:	imul   eax,DWORD PTR [eax],0x64006e
  4064e4:	outs   dx,DWORD PTR ds:[esi]
  4064e5:	add    BYTE PTR [edi+0x0],dh
  4064e8:	jae    0x4064ea
  4064ea:	add    BYTE PTR cs:[esi+0x0],al
  4064ee:	outs   dx,DWORD PTR ds:[esi]
  4064ef:	add    BYTE PTR [edx+0x0],dh
  4064f2:	ins    DWORD PTR es:[edi],dx
  4064f3:	add    BYTE PTR [ebx+0x0],dh
  4064f6:	sub    al,0x0
  4064f8:	and    BYTE PTR [eax],al
  4064fa:	push   esi
  4064fb:	add    BYTE PTR [ebp+0x0],ah
  4064fe:	jb     0x406500
  406500:	jae    0x406502
  406502:	imul   eax,DWORD PTR [eax],0x6e006f
  406508:	cmp    eax,0x2e003200
  40650d:	add    BYTE PTR [eax],dh
  40650f:	add    BYTE PTR [esi],ch
  406511:	add    BYTE PTR [eax],dh
  406513:	add    BYTE PTR [esi],ch
  406515:	add    BYTE PTR [eax],dh
  406517:	add    BYTE PTR [eax+eax*1],ch
  40651a:	and    BYTE PTR [eax],al
  40651c:	inc    ebx
  40651d:	add    BYTE PTR [ebp+0x0],dh
  406520:	ins    BYTE PTR es:[edi],dx
  406521:	add    BYTE PTR [eax+eax*1+0x75],dh
  406525:	add    BYTE PTR [edx+0x0],dh
  406528:	add    BYTE PTR gs:0x65006e00,bh
  40652f:	add    BYTE PTR [ebp+0x0],dh
  406532:	je     0x406534
  406534:	jb     0x406536
  406536:	popa   
  406537:	add    BYTE PTR [eax+eax*1+0x2c],ch
  40653b:	add    BYTE PTR [eax],ah
  40653d:	add    BYTE PTR [eax+0x0],dl
  406540:	jne    0x406542
  406542:	bound  eax,QWORD PTR [eax]
  406544:	ins    BYTE PTR es:[edi],dx
  406545:	add    BYTE PTR [ecx+0x0],ch
  406548:	arpl   WORD PTR [eax],ax
  40654a:	dec    ebx
  40654b:	add    BYTE PTR [ebp+0x0],ah
  40654e:	jns    0x406550
  406550:	push   esp
  406551:	add    BYTE PTR [edi+0x0],ch
  406554:	imul   eax,DWORD PTR [eax],0x65
  406557:	add    BYTE PTR [esi+0x0],ch
  40655a:	cmp    eax,0x30006200
  40655f:	add    BYTE PTR [ebx],dh
  406561:	add    BYTE PTR [esi+0x0],ah
  406564:	xor    eax,0x37006600
  406569:	add    BYTE PTR [esi+0x0],ah
  40656c:	xor    DWORD PTR [eax],eax
  40656e:	xor    DWORD PTR [eax],eax
  406570:	add    BYTE PTR fs:0x61003000,dh
  406577:	add    BYTE PTR [ebx],dh
  406579:	add    BYTE PTR [ecx+0x0],ah
  40657c:	sub    BYTE PTR [esi+edx*2+0x53004a00],0x0
  406584:	push   0x72006100
  406589:	add    BYTE PTR [eax+0x0],dh
  40658c:	inc    ebx
  40658d:	add    BYTE PTR [edi+0x0],ch
  406590:	add    BYTE PTR fs:[ebp+0x0],ah
  406594:	push   eax
  406595:	add    BYTE PTR [edx+0x0],dh
  406598:	outs   dx,DWORD PTR ds:[esi]
  406599:	add    BYTE PTR [esi+0x0],dh
  40659c:	imul   eax,DWORD PTR [eax],0x650064
  4065a2:	jb     0x4065a4
  4065a4:	sub    al,0x0
  4065a6:	and    BYTE PTR [eax],al
  4065a8:	push   esi
  4065a9:	add    BYTE PTR [ebp+0x0],ah
  4065ac:	jb     0x4065ae
  4065ae:	jae    0x4065b0
  4065b0:	imul   eax,DWORD PTR [eax],0x6e006f
  4065b6:	cmp    eax,0x2e003200
  4065bb:	add    BYTE PTR [eax],dh
  4065bd:	add    BYTE PTR [esi],ch
  4065bf:	add    BYTE PTR [eax],dh
  4065c1:	add    BYTE PTR [esi],ch
  4065c3:	add    BYTE PTR [eax],dh
  4065c5:	add    BYTE PTR [eax+eax*1],ch
  4065c8:	and    BYTE PTR [eax],al
  4065ca:	inc    ebx
  4065cb:	add    BYTE PTR [ebp+0x0],dh
  4065ce:	ins    BYTE PTR es:[edi],dx
  4065cf:	add    BYTE PTR [eax+eax*1+0x75],dh
  4065d3:	add    BYTE PTR [edx+0x0],dh
  4065d6:	add    BYTE PTR gs:0x65006e00,bh
  4065dd:	add    BYTE PTR [ebp+0x0],dh
  4065e0:	je     0x4065e2
  4065e2:	jb     0x4065e4
  4065e4:	popa   
  4065e5:	add    BYTE PTR [eax+eax*1+0x2c],ch
  4065e9:	add    BYTE PTR [eax],ah
  4065eb:	add    BYTE PTR [eax+0x0],dl
  4065ee:	jne    0x4065f0
  4065f0:	bound  eax,QWORD PTR [eax]
  4065f2:	ins    BYTE PTR es:[edi],dx
  4065f3:	add    BYTE PTR [ecx+0x0],ch
  4065f6:	arpl   WORD PTR [eax],ax
  4065f8:	dec    ebx
  4065f9:	add    BYTE PTR [ebp+0x0],ah
  4065fc:	jns    0x4065fe
  4065fe:	push   esp
  4065ff:	add    BYTE PTR [edi+0x0],ch
  406602:	imul   eax,DWORD PTR [eax],0x65
  406605:	add    BYTE PTR [esi+0x0],ch
  406608:	cmp    eax,0x30006200
  40660d:	add    BYTE PTR [ebx],dh
  40660f:	add    BYTE PTR [esi+0x0],ah
  406612:	xor    eax,0x37006600
  406617:	add    BYTE PTR [esi+0x0],ah
  40661a:	xor    DWORD PTR [eax],eax
  40661c:	xor    DWORD PTR [eax],eax
  40661e:	add    BYTE PTR fs:0x61003000,dh
  406625:	add    BYTE PTR [ebx],dh
  406627:	add    BYTE PTR [ecx+0x0],ah
  40662a:	and    BYTE PTR [edx+0x0],ah
  40662d:	aaa    
  40662e:	add    BYTE PTR [edx+0x0],ah
  406631:	add    BYTE PTR fs:[edi],dh
  406634:	add    BYTE PTR [esi],dh
  406636:	add    BYTE PTR [edi],dh
  406638:	add    BYTE PTR [eax],bh
  40663a:	add    BYTE PTR [edx+0x0],ah
  40663d:	cmp    DWORD PTR [eax],eax
  40663f:	aaa    
  406640:	add    BYTE PTR [edi],dh
  406642:	add    BYTE PTR [edx+0x0],ah
  406645:	add    BYTE PTR fs:[eax],bh
  406648:	add    BYTE PTR [esi+0x0],ah
  40664b:	xor    BYTE PTR [edx+0x530041],0x50
  406652:	add    BYTE PTR [esi],ch
  406654:	add    BYTE PTR [edx+0x0],al
  406657:	jb     0x406659
  406659:	outs   dx,DWORD PTR ds:[esi]
  40665a:	add    BYTE PTR [edi+0x0],dh
  40665d:	jae    0x40665f
  40665f:	add    BYTE PTR gs:[edx+0x0],dh
  406663:	inc    ebx
  406664:	add    BYTE PTR [ecx+0x0],ah
  406667:	jo     0x406669
  406669:	jae    0x40666b
  40666b:	inc    esi
  40666c:	add    BYTE PTR [ecx+0x0],ah
  40666f:	arpl   WORD PTR [eax],ax
  406671:	je     0x406673
  406673:	outs   dx,DWORD PTR ds:[esi]
  406674:	add    BYTE PTR [edx+0x0],dh
  406677:	jns    0x406679
  406679:	sub    al,0x0
  40667b:	and    BYTE PTR [eax],al
  40667d:	push   esi
  40667e:	add    BYTE PTR [ebp+0x0],ah
  406681:	jb     0x406683
  406683:	jae    0x406685
  406685:	imul   eax,DWORD PTR [eax],0x6e006f
  40668b:	cmp    eax,0x2e003200
  406690:	add    BYTE PTR [eax],dh
  406692:	add    BYTE PTR [esi],ch
  406694:	add    BYTE PTR [eax],dh
  406696:	add    BYTE PTR [esi],ch
  406698:	add    BYTE PTR [eax],dh
  40669a:	add    BYTE PTR [eax+eax*1],ch
  40669d:	and    BYTE PTR [eax],al
  40669f:	inc    ebx
  4066a0:	add    BYTE PTR [ebp+0x0],dh
  4066a3:	ins    BYTE PTR es:[edi],dx
  4066a4:	add    BYTE PTR [eax+eax*1+0x75],dh
  4066a8:	add    BYTE PTR [edx+0x0],dh
  4066ab:	add    BYTE PTR gs:0x65006e00,bh
  4066b2:	add    BYTE PTR [ebp+0x0],dh
  4066b5:	je     0x4066b7
  4066b7:	jb     0x4066b9
  4066b9:	popa   
  4066ba:	add    BYTE PTR [eax+eax*1+0x2c],ch
  4066be:	add    BYTE PTR [eax],ah
  4066c0:	add    BYTE PTR [eax+0x0],dl
  4066c3:	jne    0x4066c5
  4066c5:	bound  eax,QWORD PTR [eax]
  4066c7:	ins    BYTE PTR es:[edi],dx
  4066c8:	add    BYTE PTR [ecx+0x0],ch
  4066cb:	arpl   WORD PTR [eax],ax
  4066cd:	dec    ebx
  4066ce:	add    BYTE PTR [ebp+0x0],ah
  4066d1:	jns    0x4066d3
  4066d3:	push   esp
  4066d4:	add    BYTE PTR [edi+0x0],ch
  4066d7:	imul   eax,DWORD PTR [eax],0x65
  4066da:	add    BYTE PTR [esi+0x0],ch
  4066dd:	cmp    eax,0x37006200
  4066e2:	add    BYTE PTR [edx+0x0],ah
  4066e5:	add    BYTE PTR fs:[edi],dh
  4066e8:	add    BYTE PTR [esi],dh
  4066ea:	add    BYTE PTR [edi],dh
  4066ec:	add    BYTE PTR [eax],bh
  4066ee:	add    BYTE PTR [edx+0x0],ah
  4066f1:	cmp    DWORD PTR [eax],eax
  4066f3:	aaa    
  4066f4:	add    BYTE PTR [edi],dh
  4066f6:	add    BYTE PTR [edx+0x0],ah
  4066f9:	add    BYTE PTR fs:[eax],bh
  4066fc:	add    BYTE PTR [esi+0x0],ah
  4066ff:	sub    BYTE PTR [esi+0x69004d],0x63
  406706:	add    BYTE PTR [edx+0x0],dh
  406709:	outs   dx,DWORD PTR ds:[esi]
  40670a:	add    BYTE PTR [ebx+0x0],dh
  40670d:	outs   dx,DWORD PTR ds:[esi]
  40670e:	add    BYTE PTR [esi+0x0],ah
  406711:	je     0x406713
  406713:	add    BYTE PTR cs:[esi+0x0],dl
  406717:	push   ebx
  406718:	add    BYTE PTR [eax+eax*1+0x65],al
  40671c:	add    BYTE PTR [ebx+0x0],dh
  40671f:	imul   eax,DWORD PTR [eax],0x6e0067
  406725:	add    BYTE PTR gs:[edx+0x0],dh
  406729:	sub    al,0x0
  40672b:	and    BYTE PTR [eax],al
  40672d:	push   esi
  40672e:	add    BYTE PTR [ebp+0x0],ah
  406731:	jb     0x406733
  406733:	jae    0x406735
  406735:	imul   eax,DWORD PTR [eax],0x6e006f
  40673b:	cmp    eax,0x2e003900
  406740:	add    BYTE PTR [eax],dh
  406742:	add    BYTE PTR [esi],ch
  406744:	add    BYTE PTR [eax],dh
  406746:	add    BYTE PTR [esi],ch
  406748:	add    BYTE PTR [eax],dh
  40674a:	add    BYTE PTR [eax+eax*1],ch
  40674d:	and    BYTE PTR [eax],al
  40674f:	inc    ebx
  406750:	add    BYTE PTR [ebp+0x0],dh
  406753:	ins    BYTE PTR es:[edi],dx
  406754:	add    BYTE PTR [eax+eax*1+0x75],dh
  406758:	add    BYTE PTR [edx+0x0],dh
  40675b:	add    BYTE PTR gs:0x65006e00,bh
  406762:	add    BYTE PTR [ebp+0x0],dh
  406765:	je     0x406767
  406767:	jb     0x406769
  406769:	popa   
  40676a:	add    BYTE PTR [eax+eax*1+0x2c],ch
  40676e:	add    BYTE PTR [eax],ah
  406770:	add    BYTE PTR [eax+0x0],dl
  406773:	jne    0x406775
  406775:	bound  eax,QWORD PTR [eax]
  406777:	ins    BYTE PTR es:[edi],dx
  406778:	add    BYTE PTR [ecx+0x0],ch
  40677b:	arpl   WORD PTR [eax],ax
  40677d:	dec    ebx
  40677e:	add    BYTE PTR [ebp+0x0],ah
  406781:	jns    0x406783
  406783:	push   esp
  406784:	add    BYTE PTR [edi+0x0],ch
  406787:	imul   eax,DWORD PTR [eax],0x65
  40678a:	add    BYTE PTR [esi+0x0],ch
  40678d:	cmp    eax,0x30006200
  406792:	add    BYTE PTR [ebx],dh
  406794:	add    BYTE PTR [esi+0x0],ah
  406797:	xor    eax,0x37006600
  40679c:	add    BYTE PTR [esi+0x0],ah
  40679f:	xor    DWORD PTR [eax],eax
  4067a1:	xor    DWORD PTR [eax],eax
  4067a3:	add    BYTE PTR fs:0x61003000,dh
  4067aa:	add    BYTE PTR [ebx],dh
  4067ac:	add    BYTE PTR [ecx+0x0],ah
  4067af:	cmp    BYTE PTR [edx+0x69004d],0x63
  4067b6:	add    BYTE PTR [edx+0x0],dh
  4067b9:	outs   dx,DWORD PTR ds:[esi]
  4067ba:	add    BYTE PTR [ebx+0x0],dh
  4067bd:	outs   dx,DWORD PTR ds:[esi]
  4067be:	add    BYTE PTR [esi+0x0],ah
  4067c1:	je     0x4067c3
  4067c3:	add    BYTE PTR cs:[esi+0x0],dl
  4067c7:	imul   eax,DWORD PTR [eax],0x750073
  4067cd:	popa   
  4067ce:	add    BYTE PTR [eax+eax*1+0x53],ch
  4067d2:	add    BYTE PTR [eax+eax*1+0x75],dh
  4067d6:	add    BYTE PTR [eax+eax*1+0x69],ah
  4067da:	add    BYTE PTR [edi+0x0],ch
  4067dd:	add    BYTE PTR cs:[edi+0x0],dl
  4067e1:	add    BYTE PTR gs:[edx+0x0],ah
  4067e5:	sub    al,0x0
  4067e7:	and    BYTE PTR [eax],al
  4067e9:	push   esi
  4067ea:	add    BYTE PTR [ebp+0x0],ah
  4067ed:	jb     0x4067ef
  4067ef:	jae    0x4067f1
  4067f1:	imul   eax,DWORD PTR [eax],0x6e006f
  4067f7:	cmp    eax,0x2e003900
  4067fc:	add    BYTE PTR [eax],dh
  4067fe:	add    BYTE PTR [esi],ch
  406800:	add    BYTE PTR [eax],dh
  406802:	add    BYTE PTR [esi],ch
  406804:	add    BYTE PTR [eax],dh
  406806:	add    BYTE PTR [eax+eax*1],ch
  406809:	and    BYTE PTR [eax],al
  40680b:	inc    ebx
  40680c:	add    BYTE PTR [ebp+0x0],dh
  40680f:	ins    BYTE PTR es:[edi],dx
  406810:	add    BYTE PTR [eax+eax*1+0x75],dh
  406814:	add    BYTE PTR [edx+0x0],dh
  406817:	add    BYTE PTR gs:0x65006e00,bh
  40681e:	add    BYTE PTR [ebp+0x0],dh
  406821:	je     0x406823
  406823:	jb     0x406825
  406825:	popa   
  406826:	add    BYTE PTR [eax+eax*1+0x2c],ch
  40682a:	add    BYTE PTR [eax],ah
  40682c:	add    BYTE PTR [eax+0x0],dl
  40682f:	jne    0x406831
  406831:	bound  eax,QWORD PTR [eax]
  406833:	ins    BYTE PTR es:[edi],dx
  406834:	add    BYTE PTR [ecx+0x0],ch
  406837:	arpl   WORD PTR [eax],ax
  406839:	dec    ebx
  40683a:	add    BYTE PTR [ebp+0x0],ah
  40683d:	jns    0x40683f
  40683f:	push   esp
  406840:	add    BYTE PTR [edi+0x0],ch
  406843:	imul   eax,DWORD PTR [eax],0x65
  406846:	add    BYTE PTR [esi+0x0],ch
  406849:	cmp    eax,0x30006200
  40684e:	add    BYTE PTR [ebx],dh
  406850:	add    BYTE PTR [esi+0x0],ah
  406853:	xor    eax,0x37006600
  406858:	add    BYTE PTR [esi+0x0],ah
  40685b:	xor    DWORD PTR [eax],eax
  40685d:	xor    DWORD PTR [eax],eax
  40685f:	add    BYTE PTR fs:0x61003000,dh
  406866:	add    BYTE PTR [ebx],dh
  406868:	add    BYTE PTR [ecx+0x0],ah
  40686b:	cmp    BYTE PTR [ebp+ecx*2+0x63006900],0x0
  406873:	jb     0x406875
  406875:	outs   dx,DWORD PTR ds:[esi]
  406876:	add    BYTE PTR [ebx+0x0],dh
  406879:	outs   dx,DWORD PTR ds:[esi]
  40687a:	add    BYTE PTR [esi+0x0],ah
  40687d:	je     0x40687f
  40687f:	add    BYTE PTR cs:[edi+0x0],dl
  406883:	add    BYTE PTR gs:[edx+0x0],ah
  406887:	add    BYTE PTR cs:[eax+eax*1+0x65],al
  40688c:	add    BYTE PTR [ebx+0x0],dh
  40688f:	imul   eax,DWORD PTR [eax],0x6e0067
  406895:	add    BYTE PTR cs:[ebx+0x0],al
  406899:	ins    BYTE PTR es:[edi],dx
  40689a:	add    BYTE PTR [ecx+0x0],ch
  40689d:	add    BYTE PTR gs:[esi+0x0],ch
  4068a1:	je     0x4068a3
  4068a3:	sub    al,0x0
  4068a5:	and    BYTE PTR [eax],al
  4068a7:	push   esi
  4068a8:	add    BYTE PTR [ebp+0x0],ah
  4068ab:	jb     0x4068ad
  4068ad:	jae    0x4068af
  4068af:	imul   eax,DWORD PTR [eax],0x6e006f
  4068b5:	cmp    eax,0x2e003900
  4068ba:	add    BYTE PTR [eax],dh
  4068bc:	add    BYTE PTR [esi],ch
  4068be:	add    BYTE PTR [eax],dh
  4068c0:	add    BYTE PTR [esi],ch
  4068c2:	add    BYTE PTR [eax],dh
  4068c4:	add    BYTE PTR [eax+eax*1],ch
  4068c7:	and    BYTE PTR [eax],al
  4068c9:	inc    ebx
  4068ca:	add    BYTE PTR [ebp+0x0],dh
  4068cd:	ins    BYTE PTR es:[edi],dx
  4068ce:	add    BYTE PTR [eax+eax*1+0x75],dh
  4068d2:	add    BYTE PTR [edx+0x0],dh
  4068d5:	add    BYTE PTR gs:0x65006e00,bh
  4068dc:	add    BYTE PTR [ebp+0x0],dh
  4068df:	je     0x4068e1
  4068e1:	jb     0x4068e3
  4068e3:	popa   
  4068e4:	add    BYTE PTR [eax+eax*1+0x2c],ch
  4068e8:	add    BYTE PTR [eax],ah
  4068ea:	add    BYTE PTR [eax+0x0],dl
  4068ed:	jne    0x4068ef
  4068ef:	bound  eax,QWORD PTR [eax]
  4068f1:	ins    BYTE PTR es:[edi],dx
  4068f2:	add    BYTE PTR [ecx+0x0],ch
  4068f5:	arpl   WORD PTR [eax],ax
  4068f7:	dec    ebx
  4068f8:	add    BYTE PTR [ebp+0x0],ah
  4068fb:	jns    0x4068fd
  4068fd:	push   esp
  4068fe:	add    BYTE PTR [edi+0x0],ch
  406901:	imul   eax,DWORD PTR [eax],0x65
  406904:	add    BYTE PTR [esi+0x0],ch
  406907:	cmp    eax,0x30006200
  40690c:	add    BYTE PTR [ebx],dh
  40690e:	add    BYTE PTR [esi+0x0],ah
  406911:	xor    eax,0x37006600
  406916:	add    BYTE PTR [esi+0x0],ah
  406919:	xor    DWORD PTR [eax],eax
  40691b:	xor    DWORD PTR [eax],eax
  40691d:	add    BYTE PTR fs:0x61003000,dh
  406924:	add    BYTE PTR [ebx],dh
  406926:	add    BYTE PTR [ecx+0x0],ah
  406929:	cmp    BYTE PTR [ebp+ecx*2+0x63006900],0x0
  406931:	jb     0x406933
  406933:	outs   dx,DWORD PTR ds:[esi]
  406934:	add    BYTE PTR [ebx+0x0],dh
  406937:	outs   dx,DWORD PTR ds:[esi]
  406938:	add    BYTE PTR [esi+0x0],ah
  40693b:	je     0x40693d
  40693d:	add    BYTE PTR cs:[esi+0x0],dl
  406941:	push   ebx
  406942:	add    BYTE PTR [eax+eax*1+0x65],al
  406946:	add    BYTE PTR [ebx+0x0],dh
  406949:	imul   eax,DWORD PTR [eax],0x6e0067
  40694f:	add    BYTE PTR gs:[edx+0x0],dh
  406953:	add    BYTE PTR cs:[ebp+0x0],cl
  406957:	outs   dx,DWORD PTR ds:[esi]
  406958:	add    BYTE PTR [edx+0x0],ah
  40695b:	imul   eax,DWORD PTR [eax],0x65006c
  406961:	sub    al,0x0
  406963:	and    BYTE PTR [eax],al
  406965:	push   esi
  406966:	add    BYTE PTR [ebp+0x0],ah
  406969:	jb     0x40696b
  40696b:	jae    0x40696d
  40696d:	imul   eax,DWORD PTR [eax],0x6e006f
  406973:	cmp    eax,0x2e003800
  406978:	add    BYTE PTR [eax],dh
  40697a:	add    BYTE PTR [esi],ch
  40697c:	add    BYTE PTR [eax],dh
  40697e:	add    BYTE PTR [esi],ch
  406980:	add    BYTE PTR [eax],dh
  406982:	add    BYTE PTR [eax+eax*1],ch
  406985:	and    BYTE PTR [eax],al
  406987:	inc    ebx
  406988:	add    BYTE PTR [ebp+0x0],dh
  40698b:	ins    BYTE PTR es:[edi],dx
  40698c:	add    BYTE PTR [eax+eax*1+0x75],dh
  406990:	add    BYTE PTR [edx+0x0],dh
  406993:	add    BYTE PTR gs:0x65006e00,bh
  40699a:	add    BYTE PTR [ebp+0x0],dh
  40699d:	je     0x40699f
  40699f:	jb     0x4069a1
  4069a1:	popa   
  4069a2:	add    BYTE PTR [eax+eax*1+0x2c],ch
  4069a6:	add    BYTE PTR [eax],ah
  4069a8:	add    BYTE PTR [eax+0x0],dl
  4069ab:	jne    0x4069ad
  4069ad:	bound  eax,QWORD PTR [eax]
  4069af:	ins    BYTE PTR es:[edi],dx
  4069b0:	add    BYTE PTR [ecx+0x0],ch
  4069b3:	arpl   WORD PTR [eax],ax
  4069b5:	dec    ebx
  4069b6:	add    BYTE PTR [ebp+0x0],ah
  4069b9:	jns    0x4069bb
  4069bb:	push   esp
  4069bc:	add    BYTE PTR [edi+0x0],ch
  4069bf:	imul   eax,DWORD PTR [eax],0x65
  4069c2:	add    BYTE PTR [esi+0x0],ch
  4069c5:	cmp    eax,0x30006200
  4069ca:	add    BYTE PTR [ebx],dh
  4069cc:	add    BYTE PTR [esi+0x0],ah
  4069cf:	xor    eax,0x37006600
  4069d4:	add    BYTE PTR [esi+0x0],ah
  4069d7:	xor    DWORD PTR [eax],eax
  4069d9:	xor    DWORD PTR [eax],eax
  4069db:	add    BYTE PTR fs:0x61003000,dh
  4069e2:	add    BYTE PTR [ebx],dh
  4069e4:	add    BYTE PTR [ecx+0x0],ah
  4069e7:	sub    BYTE PTR [eax+0x69004d],0x63
  4069ee:	add    BYTE PTR [edx+0x0],dh
  4069f1:	outs   dx,DWORD PTR ds:[esi]
  4069f2:	add    BYTE PTR [ebx+0x0],dh
  4069f5:	outs   dx,DWORD PTR ds:[esi]
  4069f6:	add    BYTE PTR [esi+0x0],ah
  4069f9:	je     0x4069fb
  4069fb:	add    BYTE PTR cs:[edx+0x0],cl
  4069ff:	push   ebx
  406a00:	add    BYTE PTR [ebx+0x0],ah
  406a03:	jb     0x406a05
  406a05:	imul   eax,DWORD PTR [eax],0x740070
  406a0b:	sub    al,0x0
  406a0d:	and    BYTE PTR [eax],al
  406a0f:	push   esi
  406a10:	add    BYTE PTR [ebp+0x0],ah
  406a13:	jb     0x406a15
  406a15:	jae    0x406a17
  406a17:	imul   eax,DWORD PTR [eax],0x6e006f
  406a1d:	cmp    eax,0x2e003800
  406a22:	add    BYTE PTR [eax],dh
  406a24:	add    BYTE PTR [esi],ch
  406a26:	add    BYTE PTR [eax],dh
  406a28:	add    BYTE PTR [esi],ch
  406a2a:	add    BYTE PTR [eax],dh
  406a2c:	add    BYTE PTR [eax+eax*1],ch
  406a2f:	and    BYTE PTR [eax],al
  406a31:	inc    ebx
  406a32:	add    BYTE PTR [ebp+0x0],dh
  406a35:	ins    BYTE PTR es:[edi],dx
  406a36:	add    BYTE PTR [eax+eax*1+0x75],dh
  406a3a:	add    BYTE PTR [edx+0x0],dh
  406a3d:	add    BYTE PTR gs:0x65006e00,bh
  406a44:	add    BYTE PTR [ebp+0x0],dh
  406a47:	je     0x406a49
  406a49:	jb     0x406a4b
  406a4b:	popa   
  406a4c:	add    BYTE PTR [eax+eax*1+0x2c],ch
  406a50:	add    BYTE PTR [eax],ah
  406a52:	add    BYTE PTR [eax+0x0],dl
  406a55:	jne    0x406a57
  406a57:	bound  eax,QWORD PTR [eax]
  406a59:	ins    BYTE PTR es:[edi],dx
  406a5a:	add    BYTE PTR [ecx+0x0],ch
  406a5d:	arpl   WORD PTR [eax],ax
  406a5f:	dec    ebx
  406a60:	add    BYTE PTR [ebp+0x0],ah
  406a63:	jns    0x406a65
  406a65:	push   esp
  406a66:	add    BYTE PTR [edi+0x0],ch
  406a69:	imul   eax,DWORD PTR [eax],0x65
  406a6c:	add    BYTE PTR [esi+0x0],ch
  406a6f:	cmp    eax,0x30006200
  406a74:	add    BYTE PTR [ebx],dh
  406a76:	add    BYTE PTR [esi+0x0],ah
  406a79:	xor    eax,0x37006600
  406a7e:	add    BYTE PTR [esi+0x0],ah
  406a81:	xor    DWORD PTR [eax],eax
  406a83:	xor    DWORD PTR [eax],eax
  406a85:	add    BYTE PTR fs:0x61003000,dh
  406a8c:	add    BYTE PTR [ebx],dh
  406a8e:	add    BYTE PTR [ecx+0x0],ah
  406a91:	add    eax,DWORD PTR [esi]
  406a93:	adc    cl,BYTE PTR [ecx]
  406a95:	add    al,0x0
  406a97:	add    DWORD PTR [esi],ecx
  406a99:	push   cs
  406a9a:	add    eax,DWORD PTR [eax]
  406a9c:	add    BYTE PTR [esi],cl
  406a9e:	add    ecx,DWORD PTR [eax]
  406aa0:	add    BYTE PTR [esi],cl
  406aa2:	add    al,BYTE PTR [esi]
  406aa4:	add    al,BYTE PTR [ebx]
  406aa6:	push   es
  406aa7:	adc    DWORD PTR ds:0x1010004,ecx
  406aad:	push   cs
  406aae:	add    eax,DWORD PTR [eax]
  406ab0:	add    BYTE PTR [ecx],al
  406ab2:	add    eax,0x1d010100
  406ab7:	push   cs
  406ab8:	add    esp,DWORD PTR [eax]
  406aba:	add    BYTE PTR [ecx],al
  406abc:	add    al,0x20
  406abe:	add    DWORD PTR [ecx],eax
  406ac0:	add    al,BYTE PTR [eax+eiz*1]
  406ac3:	add    DWORD PTR [ecx],eax
  406ac5:	push   cs
  406ac6:	add    eax,0x11010120
  406acb:	push   ecx
  406acc:	add    al,0x20
  406ace:	add    DWORD PTR [ecx],eax
  406ad0:	or     BYTE PTR [eax+0x2400a0],al
  406ad6:	add    BYTE PTR [eax+eax*4],al
  406ad9:	add    BYTE PTR [eax],al
  406adb:	xchg   esp,eax
  406adc:	add    BYTE PTR [eax],al
  406ade:	add    BYTE PTR [esi],al
  406ae0:	add    al,BYTE PTR [eax]
  406ae2:	add    BYTE PTR [eax],al
  406ae4:	and    al,0x0
  406ae6:	add    BYTE PTR [edx+0x53],dl
  406ae9:	inc    ecx
  406aea:	xor    DWORD PTR [eax],eax
  406aec:	add    al,0x0
  406aee:	add    BYTE PTR [ecx],al
  406af0:	add    BYTE PTR [ecx],al
  406af2:	add    BYTE PTR [edi],al
  406af4:	sar    edx,1
  406af6:	push   edi
  406af7:	les    ebp,FWORD PTR [esi+0x2ea3f0d9]
  406afd:	test   BYTE PTR [edx+0xdfdae0f],ch
  406b03:	jmp    0xecab68f0
  406b08:	pop    DWORD PTR [edi+0x6c7603fb]
  406b0e:	or     DWORD PTR [ecx+ebx*4-0x6e],0x1e
  406b13:	mov    dl,0x3b
  406b15:	out    0x9a,eax
  406b17:	(bad)  
  406b19:	fadd   st(1),st
  406b1b:	fstp   QWORD PTR [edx+0x211336d2]
  406b21:	add    dl,BYTE PTR [eax-0x6c38df5]
  406b27:	adc    BYTE PTR [ebp+0x77e1c47f],0x10
  406b2e:	pop    esi
  406b30:	pop    es
  406b31:	ja     0x406b82
  406b33:	sub    eax,ebp
  406b35:	xor    cl,BYTE PTR [esi]
  406b37:	xchg   edx,eax
  406b38:	jmp    0xc021:0xe8e4ec05
  406b3f:	movs   DWORD PTR es:[edi],DWORD PTR ds:[esi]
  406b40:	out    dx,eax
  406b41:	call   0x4c9cd037
  406b46:	or     al,0x93
  406b48:	shr    DWORD PTR [ebx+0x625d2899],0x2c
  406b4f:	stos   BYTE PTR es:[edi],al
  406b50:	gs sub al,0x1d
  406b53:	cli    
  406b54:	(bad)  
  406b55:	cmp    eax,0x2d6f5d74
  406b5a:	in     eax,0xf1
  406b5c:	jle    0x406bbc
  406b5e:	scas   eax,DWORD PTR es:[edi]
  406b5f:	pinsrw mm2,WORD PTR [esi-0x75e3d9c3],0x12
  406b67:	inc    ebx
  406b68:	sbb    BYTE PTR gs:[eax],ah
  406b6b:	ins    DWORD PTR es:[edi],dx
  406b6c:	rcl    BYTE PTR [ebx-0x2da5b2cc],0x93
  406b73:	add    al,0x20
  406b75:	add    DWORD PTR [esi],ecx
  406b77:	push   cs
  406b78:	add    al,0x0
  406b7a:	add    BYTE PTR [edx],dl
  406b7c:	pop    ebp
  406b7d:	push   es
  406b7e:	and    BYTE PTR [edx],al
  406b80:	add    DWORD PTR [esi],ecx
  406b82:	adc    bl,BYTE PTR [ebp+0x5]
  406b85:	add    BYTE PTR [edx],al
  406b87:	push   cs
  406b88:	push   cs
  406b89:	push   cs
  406b8a:	add    eax,0x1d0e0100
  406b8f:	push   cs
  406b90:	add    eax,0x6d120120
  406b95:	push   cs
  406b96:	add    esp,DWORD PTR [eax]
  406b98:	add    BYTE PTR [esi],cl
  406b9a:	push   es
  406b9b:	pop    es
  406b9c:	add    dl,BYTE PTR [edx]
  406b9e:	ins    DWORD PTR es:[edi],dx
  406b9f:	sbb    eax,0x40e
  406ba4:	adc    dh,BYTE PTR [ecx+0x8]
  406ba7:	add    BYTE PTR [eax+ecx*1],al
  406baa:	push   cs
  406bab:	push   cs
  406bac:	add    dl,BYTE PTR [edx]
  406bae:	jno    0x406bb5
  406bb0:	pop    es
  406bb1:	add    cl,BYTE PTR [eax]
  406bb3:	adc    dh,BYTE PTR [ebp+0x5]
  406bb6:	add    BYTE PTR [ecx],al
  406bb8:	add    DWORD PTR [ecx],edx
  406bba:	or     eax,0x12010006
  406bbf:	jge    0x406bd2
  406bc1:	or     eax,0x1c002003
  406bc6:	add    al,0x20
  406bc8:	add    BYTE PTR [ecx],dl
  406bca:	or     eax,0xe012006
  406bcf:	adc    al,BYTE PTR [eax+0x3000689]
  406bd5:	push   cs
  406bd6:	push   cs
  406bd7:	push   cs
  406bd8:	push   cs
  406bd9:	add    esp,DWORD PTR [eax]
  406bdb:	add    BYTE PTR [ebx],cl
  406bdd:	add    esp,DWORD PTR [eax]
  406bdf:	add    BYTE PTR [edx],al
  406be1:	or     al,BYTE PTR [edi]
  406be3:	add    eax,0x79127d12
  406be8:	adc    DWORD PTR ds:0x1050b08,ecx
  406bee:	add    BYTE PTR [eax],al
  406bf0:	add    BYTE PTR [eax],al
  406bf2:	add    eax,0x10001
  406bf7:	add    BYTE PTR [ecx],dl
  406bf9:	add    DWORD PTR [eax],eax
  406bfb:	or     al,0x73
  406bfd:	je     0x406c6e
  406bff:	jb     0x406c66
  406c01:	popa   
  406c02:	fs ins DWORD PTR es:[edi],dx
  406c04:	cs gs js 0x406c6d
  406c08:	add    BYTE PTR [eax],al
  406c0a:	sbb    al,BYTE PTR [ecx]
  406c0c:	add    BYTE PTR ds:0x7263694d,dl
  406c12:	outs   dx,DWORD PTR ds:[esi]
  406c13:	jae    0x406c84
  406c15:	data16 je 0x406c38
  406c18:	inc    ebx
  406c19:	outs   dx,DWORD PTR ds:[esi]
  406c1a:	jb     0x406c8c
  406c1c:	outs   dx,DWORD PTR ds:[esi]
  406c1d:	jb     0x406c80
  406c1f:	je     0x406c8a
  406c21:	outs   dx,DWORD PTR ds:[esi]
  406c22:	outs   dx,BYTE PTR ds:[esi]
  406c23:	add    BYTE PTR [eax],al
  406c25:	pop    ds
  406c26:	add    DWORD PTR [eax],eax
  406c28:	sbb    cl,BYTE PTR [ebp+0x69]
  406c2b:	arpl   WORD PTR [edx+0x6f],si
  406c2e:	jae    0x406c9f
  406c30:	data16 je 0x406bf5
  406c33:	scas   al,BYTE PTR es:[edi]
  406c34:	and    BYTE PTR [esi],ch
  406c36:	dec    esi
  406c37:	inc    ebp
  406c38:	push   esp
  406c39:	and    BYTE PTR [esi+0x72],al
  406c3c:	popa   
  406c3d:	ins    DWORD PTR es:[edi],dx
  406c3e:	gs ja  0x406cb0
  406c41:	jb     0x406cae
  406c43:	add    BYTE PTR [eax],al
  406c45:	xor    al,0x1
  406c47:	add    BYTE PTR [edi],ch
  406c49:	ret    0x20a9
  406c4c:	dec    ebp
  406c4d:	imul   esp,DWORD PTR [ebx+0x72],0x666f736f
  406c54:	je     0x406c76
  406c56:	inc    ebx
  406c57:	outs   dx,DWORD PTR ds:[esi]
  406c58:	jb     0x406cca
  406c5a:	outs   dx,DWORD PTR ds:[esi]
  406c5b:	jb     0x406cbe
  406c5d:	je     0x406cc8
  406c5f:	outs   dx,DWORD PTR ds:[esi]
  406c60:	outs   dx,BYTE PTR ds:[esi]
  406c61:	and    BYTE PTR cs:[eax],ah
  406c64:	inc    ecx
  406c65:	ins    BYTE PTR es:[edi],dx
  406c66:	ins    BYTE PTR es:[edi],dx
  406c67:	and    BYTE PTR [edx+0x69],dh
  406c6a:	addr16 push 0x72207374
  406c70:	gs jae 0x406cd8
  406c73:	jb     0x406ceb
  406c75:	gs fs add BYTE PTR cs:[eax],al
  406c7a:	adc    BYTE PTR [ecx],al
  406c7c:	add    BYTE PTR [ebx],cl
  406c7e:	xor    ebp,DWORD PTR [esi]
  406c80:	xor    eax,0x3730332e
  406c85:	xor    bh,BYTE PTR [ecx]
  406c87:	xor    DWORD PTR cs:[eax],eax
  406c8a:	add    BYTE PTR [ecx+eax*1],cl
  406c8d:	add    BYTE PTR [edi],al
  406c8f:	xor    ebp,DWORD PTR [esi]
  406c91:	xor    eax,0x302e302e
  406c96:	add    BYTE PTR [eax],al
  406c98:	or     al,BYTE PTR [ecx]
  406c9a:	add    BYTE PTR ds:0x552d6e65,al
  406ca0:	push   ebx
  406ca1:	add    BYTE PTR [eax],al
  406ca3:	sub    al,BYTE PTR [ecx]
  406ca5:	add    BYTE PTR ds:0x645c3a66,ah
  406cab:	fs pop esp
  406cad:	push   esp
  406cae:	outs   dx,DWORD PTR ds:[esi]
  406caf:	outs   dx,DWORD PTR ds:[esi]
  406cb0:	ins    BYTE PTR es:[edi],dx
  406cb1:	jae    0x406d0f
  406cb3:	fs gs jbe 0x406d1b
  406cb7:	imul   esi,DWORD PTR [esi+0x5c],0x616e6946
  406cbe:	ins    BYTE PTR es:[edi],dx
  406cbf:	push   eax
  406cc0:	jne    0x406d24
  406cc2:	ins    BYTE PTR es:[edi],dx
  406cc3:	imul   esp,DWORD PTR [ebx+0x4b],0x732e7965
  406cca:	outs   dx,BYTE PTR ds:[esi]
  406ccb:	imul   eax,DWORD PTR [eax],0x0
  406cce:	or     BYTE PTR [ecx],al
  406cd0:	add    BYTE PTR [edx],al
  406cd2:	add    BYTE PTR [eax],al
  406cd4:	add    BYTE PTR [eax],al
  406cd6:	add    BYTE PTR [eax],cl
  406cd8:	add    DWORD PTR [eax],eax
  406cda:	or     BYTE PTR [eax],al
  406cdc:	add    BYTE PTR [eax],al
  406cde:	add    BYTE PTR [eax],al
  406ce0:	push   ds
  406ce1:	add    DWORD PTR [eax],eax
  406ce3:	add    DWORD PTR [eax],eax
  406ce5:	push   esp
  406ce6:	add    dl,BYTE PTR [esi]
  406ce8:	push   edi
  406ce9:	jb     0x406d4c
  406ceb:	jo     0x406d3b
  406ced:	outs   dx,DWORD PTR ds:[esi]
  406cee:	outs   dx,BYTE PTR ds:[esi]
  406cef:	inc    ebp
  406cf0:	js     0x406d55
  406cf2:	gs jo  0x406d69
  406cf5:	imul   ebp,DWORD PTR [edi+0x6e],0x6f726854
  406cfc:	ja     0x406d71
  406cfe:	add    DWORD PTR [eax],eax
  406d00:	add    BYTE PTR [eax],al
  406d02:	add    BYTE PTR [eax],al
  406d04:	mov    edx,0x488ef6
  406d09:	add    BYTE PTR [eax],al
  406d0b:	add    BYTE PTR [edx],al
  406d0d:	add    BYTE PTR [eax],al
  406d0f:	add    BYTE PTR ds:0x1c000000,ah
  406d15:	ins    DWORD PTR es:[edi],dx
  406d16:	add    BYTE PTR [eax],al
  406d18:	sbb    al,0x5d
  406d1a:	add    BYTE PTR [eax],al
  406d1c:	push   edx
  406d1d:	push   ebx
  406d1e:	inc    esp
  406d1f:	push   ebx
  406d20:	push   ebp
  406d21:	and    DWORD PTR [edi+0x64268e8f],ebp
  406d27:	dec    ebx
  406d28:	add    BYTE PTR [ebx-0x1d19fe95],0x33
  406d2f:	aaa    
  406d30:	add    DWORD PTR [eax],eax
  406d32:	add    BYTE PTR [eax],al
  406d34:	jae    0x406daa
  406d36:	outs   dx,DWORD PTR ds:[esi]
  406d37:	jb     0x406d9e
  406d39:	popa   
  406d3a:	fs ins DWORD PTR es:[edi],dx
  406d3c:	cs jo  0x406da3
  406d3f:	bound  eax,QWORD PTR [eax]
	...
  406d6d:	add    BYTE PTR [eax],al
  406d6f:	add    BYTE PTR [eax+0x6d],bl
  406d75:	add    BYTE PTR [eax],al
  406d77:	add    BYTE PTR [eax],al
  406d79:	add    BYTE PTR [eax],al
  406d7b:	add    BYTE PTR [esi+0x6d],ch
  406d81:	and    BYTE PTR [eax],al
	...
  406d97:	add    BYTE PTR [eax+0x6d],ah
  406d9d:	add    BYTE PTR [eax],al
  406d9f:	add    BYTE PTR [eax],al
  406da1:	add    BYTE PTR [edi+0x43],bl
  406da4:	outs   dx,DWORD PTR ds:[esi]
  406da5:	jb     0x406dec
  406da7:	js     0x406e0e
  406da9:	dec    ebp
  406daa:	popa   
  406dab:	imul   ebp,DWORD PTR [esi+0x0],0x6f63736d
  406db2:	jb     0x406e19
  406db4:	gs cs fs ins BYTE PTR es:[edi],dx
  406db8:	ins    BYTE PTR es:[edi],dx
  406db9:	add    BYTE PTR [eax],al
  406dbb:	add    BYTE PTR [eax],al
  406dbd:	add    bh,bh
  406dbf:	and    eax,0x402000
