
96b5ccf8044c42dce6772da871ab5f9f01ccab554e1a3b8832c6397c1bfe9e7d.exe:     file format pei-i386


Disassembly of section .text:

00401000 <.text>:
  401000:	repz ret 
  401002:	lea    esi,[esi+eiz*1+0x0]
  401009:	lea    edi,[edi+eiz*1+0x0]
  401010:	sub    esp,0x2c
  401013:	mov    eax,ds:0x405020
  401018:	mov    DWORD PTR [esp+0x10],0x405018
  401020:	mov    DWORD PTR [esp+0x8],0x40500c
  401028:	mov    DWORD PTR [esp+0x4],0x405008
  401030:	mov    ds:0x405018,eax
  401035:	mov    eax,ds:0x403004
  40103a:	mov    DWORD PTR [esp],0x405004
  401041:	mov    DWORD PTR [esp+0xc],eax
  401045:	call   0x4027a0
  40104a:	mov    ds:0x40501c,eax
  40104f:	add    esp,0x2c
  401052:	ret    
  401053:	lea    esi,[esi+0x0]
  401059:	lea    edi,[edi+eiz*1+0x0]
  401060:	sub    esp,0x1c
  401063:	xor    eax,eax
  401065:	cmp    WORD PTR ds:0x400000,0x5a4d
  40106e:	mov    DWORD PTR ds:0x40502c,0x1
  401078:	mov    DWORD PTR ds:0x405028,0x1
  401082:	mov    DWORD PTR ds:0x405024,0x1
  40108c:	mov    DWORD PTR ds:0x405034,0x1
  401096:	je     0x401100
  401098:	mov    ds:0x405014,eax
  40109d:	mov    eax,ds:0x405038
  4010a2:	test   eax,eax
  4010a4:	je     0x4010f0
  4010a6:	mov    DWORD PTR [esp],0x2
  4010ad:	call   0x4027a8
  4010b2:	mov    DWORD PTR [esp],0xffffffff
  4010b9:	call   0x401680
  4010be:	mov    edx,DWORD PTR ds:0x40503c
  4010c4:	mov    ds:0x4053cc,eax
  4010c9:	mov    ds:0x4053d0,eax
  4010ce:	mov    eax,ds:0x4061d8
  4010d3:	mov    DWORD PTR [eax],edx
  4010d5:	call   0x4019c0
  4010da:	cmp    DWORD PTR ds:0x40301c,0x1
  4010e1:	je     0x401150
  4010e3:	xor    eax,eax
  4010e5:	add    esp,0x1c
  4010e8:	ret    
  4010e9:	lea    esi,[esi+eiz*1+0x0]
  4010f0:	mov    DWORD PTR [esp],0x1
  4010f7:	call   0x4027a8
  4010fc:	jmp    0x4010b2
  4010fe:	xchg   ax,ax
  401100:	mov    edx,DWORD PTR ds:0x40003c
  401106:	cmp    DWORD PTR [edx+0x400000],0x4550
  401110:	lea    ecx,[edx+0x400000]
  401116:	jne    0x401098
  401118:	movzx  edx,WORD PTR [ecx+0x18]
  40111c:	cmp    dx,0x10b
  401121:	je     0x401162
  401123:	cmp    dx,0x20b
  401128:	jne    0x401098
  40112e:	cmp    DWORD PTR [ecx+0x84],0xe
  401135:	jbe    0x401098
  40113b:	mov    edx,DWORD PTR [ecx+0xf8]
  401141:	xor    eax,eax
  401143:	test   edx,edx
  401145:	setne  al
  401148:	jmp    0x401098
  40114d:	lea    esi,[esi+0x0]
  401150:	mov    DWORD PTR [esp],0x401960
  401157:	call   0x401950
  40115c:	xor    eax,eax
  40115e:	add    esp,0x1c
  401161:	ret    
  401162:	cmp    DWORD PTR [ecx+0x74],0xe
  401166:	jbe    0x401098
  40116c:	mov    ecx,DWORD PTR [ecx+0xe8]
  401172:	xor    eax,eax
  401174:	test   ecx,ecx
  401176:	setne  al
  401179:	jmp    0x401098
  40117e:	xchg   ax,ax
  401180:	push   ebp
  401181:	xor    eax,eax
  401183:	mov    ebp,esp
  401185:	mov    ecx,0x11
  40118a:	push   edi
  40118b:	push   esi
  40118c:	lea    edx,[ebp-0x5c]
  40118f:	push   ebx
  401190:	mov    edi,edx
  401192:	sub    esp,0x7c
  401195:	rep stos DWORD PTR es:[edi],eax
  401197:	mov    al,0x30
  401199:	call   0x402730
  40119e:	sub    esp,eax
  4011a0:	lea    eax,[esp+0x1b]
  4011a4:	and    eax,0xfffffff0
  4011a7:	mov    DWORD PTR [eax],0xcccccccc
  4011ad:	mov    DWORD PTR [eax+0x4],0xcccccccc
  4011b4:	mov    DWORD PTR [eax+0x8],0xcccccccc
  4011bb:	mov    DWORD PTR [eax+0xc],0xcccccccc
  4011c2:	mov    DWORD PTR [eax+0x10],0xcccccccc
  4011c9:	mov    DWORD PTR [eax+0x14],0xcccccccc
  4011d0:	mov    DWORD PTR [eax+0x18],0xcccccccc
  4011d7:	mov    DWORD PTR [eax+0x1c],0xcccccccc
  4011de:	and    esp,0xfffffff0
  4011e1:	mov    eax,ds:0x405038
  4011e6:	test   eax,eax
  4011e8:	jne    0x401480
  4011ee:	mov    eax,fs:0x18
  4011f4:	mov    esi,DWORD PTR ds:0x406188
  4011fa:	mov    ebx,DWORD PTR [eax+0x4]
  4011fd:	jmp    0x401214
  4011ff:	nop
  401200:	cmp    eax,ebx
  401202:	je     0x401430
  401208:	mov    DWORD PTR [esp],0x3e8
  40120f:	call   esi
  401211:	sub    esp,0x4
  401214:	mov    DWORD PTR [esp+0x8],0x0
  40121c:	mov    DWORD PTR [esp+0x4],ebx
  401220:	mov    DWORD PTR [esp],0x4053d4
  401227:	call   0x402780
  40122c:	sub    esp,0xc
  40122f:	test   eax,eax
  401231:	jne    0x401200
  401233:	mov    eax,ds:0x4053d8
  401238:	xor    ebx,ebx
  40123a:	cmp    eax,0x1
  40123d:	je     0x401443
  401243:	mov    eax,ds:0x4053d8
  401248:	test   eax,eax
  40124a:	je     0x401491
  401250:	mov    DWORD PTR ds:0x405000,0x1
  40125a:	mov    eax,ds:0x4053d8
  40125f:	cmp    eax,0x1
  401262:	je     0x40145d
  401268:	test   ebx,ebx
  40126a:	jne    0x401273
  40126c:	lock xchg DWORD PTR ds:0x4053d4,ebx
  401273:	mov    eax,ds:0x404048
  401278:	test   eax,eax
  40127a:	je     0x401298
  40127c:	mov    DWORD PTR [esp+0x8],0x0
  401284:	mov    DWORD PTR [esp+0x4],0x2
  40128c:	mov    DWORD PTR [esp],0x0
  401293:	call   eax
  401295:	sub    esp,0xc
  401298:	call   0x401c70
  40129d:	mov    DWORD PTR [esp],0x401770
  4012a4:	call   DWORD PTR ds:0x406184
  4012aa:	sub    esp,0x4
  4012ad:	mov    ds:0x405040,eax
  4012b2:	call   0x402220
  4012b7:	mov    DWORD PTR [esp+0x4],0x404000
  4012bf:	mov    DWORD PTR [esp],eax
  4012c2:	call   DWORD PTR ds:0x40615c
  4012c8:	sub    esp,0x8
  4012cb:	test   eax,eax
  4012cd:	je     0x4012d8
  4012cf:	mov    DWORD PTR [esp],0x401000
  4012d6:	call   eax
  4012d8:	call   0x4022e0
  4012dd:	mov    eax,ds:0x4061cc
  4012e2:	xor    ecx,ecx
  4012e4:	mov    DWORD PTR ds:0x4053c8,0x400000
  4012ee:	mov    eax,DWORD PTR [eax]
  4012f0:	test   eax,eax
  4012f2:	jne    0x401305
  4012f4:	jmp    0x401334
  4012f6:	test   dl,dl
  4012f8:	je     0x40132f
  4012fa:	test   cl,cl
  4012fc:	lea    esi,[esi+eiz*1+0x0]
  401300:	je     0x401324
  401302:	add    eax,0x1
  401305:	movzx  edx,BYTE PTR [eax]
  401308:	cmp    dl,0x20
  40130b:	jle    0x4012f6
  40130d:	mov    ebx,ecx
  40130f:	xor    ebx,0x1
  401312:	cmp    dl,0x22
  401315:	cmove  ecx,ebx
  401318:	jmp    0x401302
  40131a:	lea    esi,[esi+0x0]
  401320:	test   dl,dl
  401322:	je     0x40132f
  401324:	add    eax,0x1
  401327:	movzx  edx,BYTE PTR [eax]
  40132a:	cmp    dl,0x20
  40132d:	jle    0x401320
  40132f:	mov    ds:0x4053c4,eax
  401334:	mov    eax,ds:0x405038
  401339:	test   eax,eax
  40133b:	je     0x401352
  40133d:	movzx  edx,WORD PTR [ebp-0x2c]
  401341:	mov    eax,0xa
  401346:	test   BYTE PTR [ebp-0x30],0x1
  40134a:	cmovne eax,edx
  40134d:	mov    ds:0x403000,eax
  401352:	mov    edx,DWORD PTR ds:0x405004
  401358:	xor    ebx,ebx
  40135a:	lea    eax,[edx*4+0x4]
  401361:	mov    DWORD PTR [ebp-0x6c],edx
  401364:	mov    DWORD PTR [esp],eax
  401367:	call   0x4027b8
  40136c:	mov    edi,DWORD PTR ds:0x405008
  401372:	mov    DWORD PTR [ebp-0x70],eax
  401375:	mov    eax,DWORD PTR [ebp-0x6c]
  401378:	test   eax,eax
  40137a:	jle    0x4013ba
  40137c:	lea    esi,[esi+eiz*1+0x0]
  401380:	mov    eax,DWORD PTR [edi+ebx*4]
  401383:	mov    DWORD PTR [esp],eax
  401386:	call   0x4027c0
  40138b:	lea    esi,[eax+0x1]
  40138e:	mov    DWORD PTR [esp],esi
  401391:	call   0x4027b8
  401396:	mov    edx,DWORD PTR [ebp-0x70]
  401399:	mov    DWORD PTR [edx+ebx*4],eax
  40139c:	mov    edx,DWORD PTR [edi+ebx*4]
  40139f:	add    ebx,0x1
  4013a2:	mov    DWORD PTR [esp+0x8],esi
  4013a6:	mov    DWORD PTR [esp],eax
  4013a9:	mov    DWORD PTR [esp+0x4],edx
  4013ad:	call   0x4027b0
  4013b2:	cmp    ebx,DWORD PTR [ebp-0x6c]
  4013b5:	jne    0x401380
  4013b7:	shl    ebx,0x2
  4013ba:	mov    eax,DWORD PTR [ebp-0x70]
  4013bd:	mov    DWORD PTR [eax+ebx*1],0x0
  4013c4:	mov    ds:0x405008,eax
  4013c9:	call   0x402370
  4013ce:	mov    eax,ds:0x4061bc
  4013d3:	mov    edx,DWORD PTR ds:0x40500c
  4013d9:	mov    DWORD PTR [eax],edx
  4013db:	mov    eax,ds:0x40500c
  4013e0:	mov    DWORD PTR [esp+0x8],eax
  4013e4:	mov    eax,ds:0x405008
  4013e9:	mov    DWORD PTR [esp+0x4],eax
  4013ed:	mov    eax,ds:0x405004
  4013f2:	mov    DWORD PTR [esp],eax
  4013f5:	call   0x402850
  4013fa:	mov    esi,DWORD PTR ds:0x405014
  401400:	test   esi,esi
  401402:	mov    ds:0x405010,eax
  401407:	je     0x4014b4
  40140d:	mov    ebx,DWORD PTR ds:0x405000
  401413:	test   ebx,ebx
  401415:	jne    0x401421
  401417:	call   0x4027c8
  40141c:	mov    eax,ds:0x405010
  401421:	lea    esp,[ebp-0xc]
  401424:	pop    ebx
  401425:	pop    esi
  401426:	pop    edi
  401427:	pop    ebp
  401428:	ret    
  401429:	lea    esi,[esi+eiz*1+0x0]
  401430:	mov    eax,ds:0x4053d8
  401435:	mov    ebx,0x1
  40143a:	cmp    eax,0x1
  40143d:	jne    0x401243
  401443:	mov    DWORD PTR [esp],0x1f
  40144a:	call   0x4027d0
  40144f:	mov    eax,ds:0x4053d8
  401454:	cmp    eax,0x1
  401457:	jne    0x401268
  40145d:	mov    DWORD PTR [esp+0x4],0x407008
  401465:	mov    DWORD PTR [esp],0x407000
  40146c:	call   0x4027d8
  401471:	mov    DWORD PTR ds:0x4053d8,0x2
  40147b:	jmp    0x401268
  401480:	mov    DWORD PTR [esp],edx
  401483:	call   DWORD PTR ds:0x406160
  401489:	sub    esp,0x4
  40148c:	jmp    0x4011ee
  401491:	mov    DWORD PTR ds:0x4053d8,0x1
  40149b:	mov    DWORD PTR [esp+0x4],0x407018
  4014a3:	mov    DWORD PTR [esp],0x40700c
  4014aa:	call   0x4027d8
  4014af:	jmp    0x40125a
  4014b4:	mov    DWORD PTR [esp],eax
  4014b7:	call   0x4027e0
  4014bc:	lea    esi,[esi+eiz*1+0x0]
  4014c0:	sub    esp,0xc
  4014c3:	mov    DWORD PTR ds:0x405038,0x1
  4014cd:	call   0x402390
  4014d2:	add    esp,0xc
  4014d5:	jmp    0x401180
  4014da:	lea    esi,[esi+0x0]
  4014e0:	sub    esp,0xc
  4014e3:	mov    DWORD PTR ds:0x405038,0x0
  4014ed:	call   0x402390
  4014f2:	add    esp,0xc
  4014f5:	jmp    0x401180
  4014fa:	nop
  4014fb:	nop
  4014fc:	nop
  4014fd:	nop
  4014fe:	nop
  4014ff:	nop
  401500:	push   ebp
  401501:	mov    ebp,esp
  401503:	sub    esp,0x18
  401506:	mov    eax,ds:0x403028
  40150b:	test   eax,eax
  40150d:	je     0x40154b
  40150f:	mov    DWORD PTR [esp],0x404020
  401516:	call   DWORD PTR ds:0x406158
  40151c:	mov    edx,0x0
  401521:	sub    esp,0x4
  401524:	test   eax,eax
  401526:	je     0x40153e
  401528:	mov    DWORD PTR [esp+0x4],0x40402e
  401530:	mov    DWORD PTR [esp],eax
  401533:	call   DWORD PTR ds:0x40615c
  401539:	sub    esp,0x8
  40153c:	mov    edx,eax
  40153e:	test   edx,edx
  401540:	je     0x40154b
  401542:	mov    DWORD PTR [esp],0x403028
  401549:	call   edx
  40154b:	leave  
  40154c:	ret    
  40154d:	lea    esi,[esi+0x0]
  401550:	push   ebp
  401551:	mov    ebp,esp
  401553:	pop    ebp
  401554:	ret    
  401555:	nop
  401556:	nop
  401557:	nop
  401558:	nop
  401559:	nop
  40155a:	nop
  40155b:	nop
  40155c:	nop
  40155d:	nop
  40155e:	nop
  40155f:	nop
  401560:	jmp    DWORD PTR ds:0x4061a4
  401566:	nop
  401567:	nop
  401568:	jmp    DWORD PTR ds:0x4061a8
  40156e:	nop
  40156f:	nop
  401570:	jmp    DWORD PTR ds:0x4061ac
  401576:	nop
  401577:	nop
  401578:	xchg   ax,ax
  40157a:	xchg   ax,ax
  40157c:	xchg   ax,ax
  40157e:	xchg   ax,ax
  401580:	sub    esp,0x1c
  401583:	mov    eax,DWORD PTR [esp+0x24]
  401587:	test   eax,eax
  401589:	je     0x4015a0
  40158b:	cmp    eax,0x3
  40158e:	je     0x4015a0
  401590:	mov    eax,0x1
  401595:	add    esp,0x1c
  401598:	ret    0xc
  40159b:	nop
  40159c:	lea    esi,[esi+eiz*1+0x0]
  4015a0:	mov    edx,DWORD PTR [esp+0x28]
  4015a4:	mov    DWORD PTR [esp+0x4],eax
  4015a8:	mov    eax,DWORD PTR [esp+0x20]
  4015ac:	mov    DWORD PTR [esp+0x8],edx
  4015b0:	mov    DWORD PTR [esp],eax
  4015b3:	call   0x402690
  4015b8:	mov    eax,0x1
  4015bd:	add    esp,0x1c
  4015c0:	ret    0xc
  4015c3:	lea    esi,[esi+0x0]
  4015c9:	lea    edi,[edi+eiz*1+0x0]
  4015d0:	push   esi
  4015d1:	push   ebx
  4015d2:	sub    esp,0x14
  4015d5:	cmp    DWORD PTR ds:0x403018,0x2
  4015dc:	mov    eax,DWORD PTR [esp+0x24]
  4015e0:	je     0x4015ec
  4015e2:	mov    DWORD PTR ds:0x403018,0x2
  4015ec:	cmp    eax,0x2
  4015ef:	je     0x401603
  4015f1:	cmp    eax,0x1
  4015f4:	je     0x401630
  4015f6:	add    esp,0x14
  4015f9:	mov    eax,0x1
  4015fe:	pop    ebx
  4015ff:	pop    esi
  401600:	ret    0xc
  401603:	mov    ebx,0x407030
  401608:	mov    esi,0x407030
  40160d:	cmp    ebx,esi
  40160f:	je     0x4015f6
  401611:	mov    eax,DWORD PTR [ebx]
  401613:	test   eax,eax
  401615:	je     0x401619
  401617:	call   eax
  401619:	add    ebx,0x4
  40161c:	cmp    esi,ebx
  40161e:	xchg   ax,ax
  401620:	jne    0x401611
  401622:	add    esp,0x14
  401625:	mov    eax,0x1
  40162a:	pop    ebx
  40162b:	pop    esi
  40162c:	ret    0xc
  40162f:	nop
  401630:	mov    eax,DWORD PTR [esp+0x28]
  401634:	mov    DWORD PTR [esp+0x4],0x1
  40163c:	mov    DWORD PTR [esp+0x8],eax
  401640:	mov    eax,DWORD PTR [esp+0x20]
  401644:	mov    DWORD PTR [esp],eax
  401647:	call   0x402690
  40164c:	jmp    0x4015f6
  40164e:	xchg   ax,ax
  401650:	xor    eax,eax
  401652:	ret    
  401653:	nop
  401654:	nop
  401655:	nop
  401656:	nop
  401657:	nop
  401658:	nop
  401659:	nop
  40165a:	nop
  40165b:	nop
  40165c:	nop
  40165d:	nop
  40165e:	nop
  40165f:	nop
  401660:	mov    eax,ds:0x4061c0
  401665:	jmp    eax
  401667:	nop
  401668:	nop
  401669:	nop
  40166a:	nop
  40166b:	nop
  40166c:	nop
  40166d:	nop
  40166e:	nop
  40166f:	nop
  401670:	mov    eax,DWORD PTR [esp+0x4]
  401674:	ret    
  401675:	lea    esi,[esi+eiz*1+0x0]
  401679:	lea    edi,[edi+eiz*1+0x0]
  401680:	mov    eax,DWORD PTR [esp+0x4]
  401684:	ret    
  401685:	nop
  401686:	nop
  401687:	nop
  401688:	nop
  401689:	nop
  40168a:	nop
  40168b:	nop
  40168c:	nop
  40168d:	nop
  40168e:	nop
  40168f:	nop
  401690:	push   ebx
  401691:	sub    esp,0x28
  401694:	mov    eax,ds:0x4053d0
  401699:	mov    ebx,DWORD PTR [esp+0x30]
  40169d:	mov    DWORD PTR [esp],eax
  4016a0:	call   0x401670
  4016a5:	cmp    eax,0xffffffff
  4016a8:	mov    DWORD PTR [esp+0x18],eax
  4016ac:	je     0x401730
  4016b2:	mov    DWORD PTR [esp],0x8
  4016b9:	call   0x4027f8
  4016be:	mov    eax,ds:0x4053d0
  4016c3:	mov    DWORD PTR [esp],eax
  4016c6:	call   0x401670
  4016cb:	mov    DWORD PTR [esp+0x18],eax
  4016cf:	mov    eax,ds:0x4053cc
  4016d4:	mov    DWORD PTR [esp],eax
  4016d7:	call   0x401670
  4016dc:	mov    DWORD PTR [esp],ebx
  4016df:	mov    DWORD PTR [esp+0x1c],eax
  4016e3:	lea    eax,[esp+0x1c]
  4016e7:	mov    DWORD PTR [esp+0x8],eax
  4016eb:	lea    eax,[esp+0x18]
  4016ef:	mov    DWORD PTR [esp+0x4],eax
  4016f3:	call   0x402800
  4016f8:	mov    ebx,eax
  4016fa:	mov    eax,DWORD PTR [esp+0x18]
  4016fe:	mov    DWORD PTR [esp],eax
  401701:	call   0x401680
  401706:	mov    ds:0x4053d0,eax
  40170b:	mov    eax,DWORD PTR [esp+0x1c]
  40170f:	mov    DWORD PTR [esp],eax
  401712:	call   0x401680
  401717:	mov    DWORD PTR [esp],0x8
  40171e:	mov    ds:0x4053cc,eax
  401723:	call   0x402808
  401728:	add    esp,0x28
  40172b:	mov    eax,ebx
  40172d:	pop    ebx
  40172e:	ret    
  40172f:	nop
  401730:	mov    DWORD PTR [esp],ebx
  401733:	call   DWORD PTR ds:0x4061e8
  401739:	add    esp,0x28
  40173c:	mov    ebx,eax
  40173e:	mov    eax,ebx
  401740:	pop    ebx
  401741:	ret    
  401742:	lea    esi,[esi+eiz*1+0x0]
  401749:	lea    edi,[edi+eiz*1+0x0]
  401750:	sub    esp,0x1c
  401753:	mov    eax,DWORD PTR [esp+0x20]
  401757:	mov    DWORD PTR [esp],eax
  40175a:	call   0x401690
  40175f:	cmp    eax,0x1
  401762:	sbb    eax,eax
  401764:	add    esp,0x1c
  401767:	ret    
  401768:	nop
  401769:	nop
  40176a:	nop
  40176b:	nop
  40176c:	nop
  40176d:	nop
  40176e:	nop
  40176f:	nop
  401770:	push   esi
  401771:	push   ebx
  401772:	sub    esp,0x24
  401775:	mov    ebx,DWORD PTR [esp+0x30]
  401779:	mov    eax,DWORD PTR [ebx]
  40177b:	mov    eax,DWORD PTR [eax]
  40177d:	cmp    eax,0xc0000091
  401782:	ja     0x4017c7
  401784:	cmp    eax,0xc000008d
  401789:	jb     0x4017f4
  40178b:	mov    esi,0x1
  401790:	mov    DWORD PTR [esp+0x4],0x0
  401798:	mov    DWORD PTR [esp],0x8
  40179f:	call   0x402810
  4017a4:	cmp    eax,0x1
  4017a7:	je     0x4018c0
  4017ad:	test   eax,eax
  4017af:	je     0x4017dc
  4017b1:	mov    DWORD PTR [esp],0x8
  4017b8:	call   eax
  4017ba:	mov    eax,0xffffffff
  4017bf:	add    esp,0x24
  4017c2:	pop    ebx
  4017c3:	pop    esi
  4017c4:	ret    0x4
  4017c7:	cmp    eax,0xc0000094
  4017cc:	je     0x401835
  4017ce:	cmp    eax,0xc0000096
  4017d3:	je     0x401802
  4017d5:	cmp    eax,0xc0000093
  4017da:	je     0x40178b
  4017dc:	mov    eax,ds:0x405040
  4017e1:	test   eax,eax
  4017e3:	je     0x4018b3
  4017e9:	mov    DWORD PTR [esp+0x30],ebx
  4017ed:	add    esp,0x24
  4017f0:	pop    ebx
  4017f1:	pop    esi
  4017f2:	jmp    eax
  4017f4:	cmp    eax,0xc0000005
  4017f9:	je     0x401840
  4017fb:	cmp    eax,0xc000001d
  401800:	jne    0x4017dc
  401802:	mov    DWORD PTR [esp+0x4],0x0
  40180a:	mov    DWORD PTR [esp],0x4
  401811:	call   0x402810
  401816:	cmp    eax,0x1
  401819:	je     0x401877
  40181b:	test   eax,eax
  40181d:	je     0x4017dc
  40181f:	mov    DWORD PTR [esp],0x4
  401826:	call   eax
  401828:	add    esp,0x24
  40182b:	mov    eax,0xffffffff
  401830:	pop    ebx
  401831:	pop    esi
  401832:	ret    0x4
  401835:	xor    esi,esi
  401837:	jmp    0x401790
  40183c:	lea    esi,[esi+eiz*1+0x0]
  401840:	mov    DWORD PTR [esp+0x4],0x0
  401848:	mov    DWORD PTR [esp],0xb
  40184f:	call   0x402810
  401854:	cmp    eax,0x1
  401857:	je     0x401895
  401859:	test   eax,eax
  40185b:	je     0x4017dc
  401861:	mov    DWORD PTR [esp],0xb
  401868:	call   eax
  40186a:	add    esp,0x24
  40186d:	mov    eax,0xffffffff
  401872:	pop    ebx
  401873:	pop    esi
  401874:	ret    0x4
  401877:	mov    DWORD PTR [esp+0x4],0x1
  40187f:	mov    DWORD PTR [esp],0x4
  401886:	call   0x402810
  40188b:	mov    eax,0xffffffff
  401890:	jmp    0x4017bf
  401895:	mov    DWORD PTR [esp+0x4],0x1
  40189d:	mov    DWORD PTR [esp],0xb
  4018a4:	call   0x402810
  4018a9:	mov    eax,0xffffffff
  4018ae:	jmp    0x4017bf
  4018b3:	xor    eax,eax
  4018b5:	jmp    0x4017bf
  4018ba:	lea    esi,[esi+0x0]
  4018c0:	mov    DWORD PTR [esp+0x4],0x1
  4018c8:	mov    DWORD PTR [esp],0x8
  4018cf:	call   0x402810
  4018d4:	test   esi,esi
  4018d6:	mov    eax,0xffffffff
  4018db:	je     0x4017bf
  4018e1:	mov    DWORD PTR [esp+0x1c],eax
  4018e5:	call   0x4022e0
  4018ea:	mov    eax,DWORD PTR [esp+0x1c]
  4018ee:	jmp    0x4017bf
  4018f3:	nop
  4018f4:	nop
  4018f5:	nop
  4018f6:	nop
  4018f7:	nop
  4018f8:	nop
  4018f9:	nop
  4018fa:	nop
  4018fb:	nop
  4018fc:	nop
  4018fd:	nop
  4018fe:	nop
  4018ff:	nop
  401900:	sub    esp,0x3c
  401903:	mov    eax,ds:0x405044
  401908:	fld    QWORD PTR [esp+0x48]
  40190c:	fld    QWORD PTR [esp+0x50]
  401910:	fld    QWORD PTR [esp+0x58]
  401914:	test   eax,eax
  401916:	je     0x401941
  401918:	fxch   st(2)
  40191a:	mov    edx,DWORD PTR [esp+0x40]
  40191e:	fstp   QWORD PTR [esp+0x18]
  401922:	fstp   QWORD PTR [esp+0x20]
  401926:	fstp   QWORD PTR [esp+0x28]
  40192a:	mov    DWORD PTR [esp+0x10],edx
  40192e:	mov    edx,DWORD PTR [esp+0x44]
  401932:	mov    DWORD PTR [esp+0x14],edx
  401936:	lea    edx,[esp+0x10]
  40193a:	mov    DWORD PTR [esp],edx
  40193d:	call   eax
  40193f:	jmp    0x401947
  401941:	fstp   st(0)
  401943:	fstp   st(0)
  401945:	fstp   st(0)
  401947:	add    esp,0x3c
  40194a:	ret    
  40194b:	nop
  40194c:	lea    esi,[esi+eiz*1+0x0]
  401950:	mov    eax,DWORD PTR [esp+0x4]
  401954:	mov    ds:0x405044,eax
  401959:	jmp    0x402818
  40195e:	xchg   ax,ax
  401960:	sub    esp,0x3c
  401963:	mov    edx,0x40404c
  401968:	mov    eax,DWORD PTR [esp+0x40]
  40196c:	mov    ecx,DWORD PTR [eax]
  40196e:	sub    ecx,0x1
  401971:	cmp    ecx,0x5
  401974:	ja     0x40197d
  401976:	mov    edx,DWORD PTR [ecx*4+0x404168]
  40197d:	fld    QWORD PTR [eax+0x18]
  401980:	fstp   QWORD PTR [esp+0x20]
  401984:	fld    QWORD PTR [eax+0x10]
  401987:	fstp   QWORD PTR [esp+0x18]
  40198b:	fld    QWORD PTR [eax+0x8]
  40198e:	fstp   QWORD PTR [esp+0x10]
  401992:	mov    eax,DWORD PTR [eax+0x4]
  401995:	mov    DWORD PTR [esp+0x8],edx
  401999:	mov    DWORD PTR [esp+0x4],0x40405c
  4019a1:	mov    DWORD PTR [esp+0xc],eax
  4019a5:	mov    eax,ds:0x4061e0
  4019aa:	add    eax,0x40
  4019ad:	mov    DWORD PTR [esp],eax
  4019b0:	call   0x402820
  4019b5:	xor    eax,eax
  4019b7:	add    esp,0x3c
  4019ba:	ret    
  4019bb:	nop
  4019bc:	nop
  4019bd:	nop
  4019be:	nop
  4019bf:	nop
  4019c0:	xor    eax,eax
  4019c2:	ret    
  4019c3:	nop
  4019c4:	nop
  4019c5:	nop
  4019c6:	nop
  4019c7:	nop
  4019c8:	nop
  4019c9:	nop
  4019ca:	nop
  4019cb:	nop
  4019cc:	nop
  4019cd:	nop
  4019ce:	nop
  4019cf:	nop
  4019d0:	push   ebx
  4019d1:	sub    esp,0x18
  4019d4:	mov    eax,ds:0x4061e0
  4019d9:	mov    DWORD PTR [esp+0x8],0x1b
  4019e1:	lea    ebx,[esp+0x24]
  4019e5:	mov    DWORD PTR [esp+0x4],0x1
  4019ed:	mov    DWORD PTR [esp],0x404180
  4019f4:	add    eax,0x40
  4019f7:	mov    DWORD PTR [esp+0xc],eax
  4019fb:	call   0x4027f0
  401a00:	mov    eax,DWORD PTR [esp+0x20]
  401a04:	mov    DWORD PTR [esp+0x8],ebx
  401a08:	mov    DWORD PTR [esp+0x4],eax
  401a0c:	mov    eax,ds:0x4061e0
  401a11:	add    eax,0x40
  401a14:	mov    DWORD PTR [esp],eax
  401a17:	call   0x402828
  401a1c:	call   0x402830
  401a21:	jmp    0x401a30
  401a23:	nop
  401a24:	nop
  401a25:	nop
  401a26:	nop
  401a27:	nop
  401a28:	nop
  401a29:	nop
  401a2a:	nop
  401a2b:	nop
  401a2c:	nop
  401a2d:	nop
  401a2e:	nop
  401a2f:	nop
  401a30:	push   ebp
  401a31:	mov    ebp,ecx
  401a33:	push   edi
  401a34:	push   esi
  401a35:	push   ebx
  401a36:	mov    ebx,eax
  401a38:	sub    esp,0x6c
  401a3b:	mov    ecx,DWORD PTR ds:0x405050
  401a41:	mov    DWORD PTR [esp+0x1c],edx
  401a45:	test   ecx,ecx
  401a47:	jle    0x401c12
  401a4d:	mov    eax,ds:0x40504c
  401a52:	xor    esi,esi
  401a54:	mov    edx,DWORD PTR [eax+0x4]
  401a57:	cmp    ebx,edx
  401a59:	jb     0x401a69
  401a5b:	mov    edi,DWORD PTR [eax+0x8]
  401a5e:	add    edx,DWORD PTR [edi+0x8]
  401a61:	cmp    ebx,edx
  401a63:	jb     0x401b40
  401a69:	add    esi,0x1
  401a6c:	add    eax,0xc
  401a6f:	cmp    esi,ecx
  401a71:	jne    0x401a54
  401a73:	mov    DWORD PTR [esp],ebx
  401a76:	call   0x402030
  401a7b:	test   eax,eax
  401a7d:	mov    edi,eax
  401a7f:	je     0x401c39
  401a85:	lea    edx,[esi+esi*2]
  401a88:	mov    esi,DWORD PTR ds:0x40504c
  401a8e:	shl    edx,0x2
  401a91:	add    esi,edx
  401a93:	mov    DWORD PTR [esi+0x8],eax
  401a96:	mov    DWORD PTR [esi],0x0
  401a9c:	mov    DWORD PTR [esp+0x18],edx
  401aa0:	call   0x402110
  401aa5:	mov    edx,DWORD PTR [esp+0x18]
  401aa9:	add    eax,DWORD PTR [edi+0xc]
  401aac:	mov    DWORD PTR [esi+0x4],eax
  401aaf:	lea    eax,[esp+0x40]
  401ab3:	mov    esi,DWORD PTR ds:0x40619c
  401ab9:	mov    DWORD PTR [esp+0x4],eax
  401abd:	mov    eax,ds:0x40504c
  401ac2:	mov    DWORD PTR [esp+0x8],0x1c
  401aca:	mov    eax,DWORD PTR [eax+edx*1+0x4]
  401ace:	mov    DWORD PTR [esp],eax
  401ad1:	call   esi
  401ad3:	sub    esp,0xc
  401ad6:	test   eax,eax
  401ad8:	mov    edx,DWORD PTR [esp+0x18]
  401adc:	je     0x401c19
  401ae2:	mov    eax,DWORD PTR [esp+0x54]
  401ae6:	cmp    eax,0x4
  401ae9:	jne    0x401bc1
  401aef:	add    DWORD PTR ds:0x405050,0x1
  401af6:	lea    eax,[esp+0x24]
  401afa:	mov    DWORD PTR [esp+0x8],0x1c
  401b02:	mov    DWORD PTR [esp+0x4],eax
  401b06:	mov    DWORD PTR [esp],ebx
  401b09:	call   esi
  401b0b:	sub    esp,0xc
  401b0e:	test   eax,eax
  401b10:	je     0x401c49
  401b16:	mov    eax,DWORD PTR [esp+0x38]
  401b1a:	cmp    eax,0x4
  401b1d:	jne    0x401b48
  401b1f:	mov    eax,DWORD PTR [esp+0x1c]
  401b23:	mov    DWORD PTR [esp+0x8],ebp
  401b27:	mov    DWORD PTR [esp],ebx
  401b2a:	mov    DWORD PTR [esp+0x4],eax
  401b2e:	call   0x4027b0
  401b33:	add    esp,0x6c
  401b36:	pop    ebx
  401b37:	pop    esi
  401b38:	pop    edi
  401b39:	pop    ebp
  401b3a:	ret    
  401b3b:	nop
  401b3c:	lea    esi,[esi+eiz*1+0x0]
  401b40:	mov    esi,DWORD PTR ds:0x40619c
  401b46:	jmp    0x401af6
  401b48:	cmp    eax,0x40
  401b4b:	je     0x401b1f
  401b4d:	mov    eax,DWORD PTR [esp+0x30]
  401b51:	lea    edi,[esp+0x5c]
  401b55:	mov    esi,DWORD PTR ds:0x406198
  401b5b:	mov    DWORD PTR [esp+0xc],edi
  401b5f:	mov    DWORD PTR [esp+0x8],0x40
  401b67:	mov    DWORD PTR [esp+0x4],eax
  401b6b:	mov    eax,DWORD PTR [esp+0x24]
  401b6f:	mov    DWORD PTR [esp],eax
  401b72:	call   esi
  401b74:	sub    esp,0x10
  401b77:	mov    eax,DWORD PTR [esp+0x1c]
  401b7b:	mov    DWORD PTR [esp+0x8],ebp
  401b7f:	mov    DWORD PTR [esp],ebx
  401b82:	mov    DWORD PTR [esp+0x4],eax
  401b86:	call   0x4027b0
  401b8b:	mov    eax,DWORD PTR [esp+0x38]
  401b8f:	cmp    eax,0x40
  401b92:	je     0x401b33
  401b94:	cmp    eax,0x4
  401b97:	je     0x401b33
  401b99:	mov    eax,DWORD PTR [esp+0x5c]
  401b9d:	mov    DWORD PTR [esp+0xc],edi
  401ba1:	mov    DWORD PTR [esp+0x8],eax
  401ba5:	mov    eax,DWORD PTR [esp+0x30]
  401ba9:	mov    DWORD PTR [esp+0x4],eax
  401bad:	mov    eax,DWORD PTR [esp+0x24]
  401bb1:	mov    DWORD PTR [esp],eax
  401bb4:	call   esi
  401bb6:	sub    esp,0x10
  401bb9:	add    esp,0x6c
  401bbc:	pop    ebx
  401bbd:	pop    esi
  401bbe:	pop    edi
  401bbf:	pop    ebp
  401bc0:	ret    
  401bc1:	cmp    eax,0x40
  401bc4:	je     0x401aef
  401bca:	mov    eax,DWORD PTR [esp+0x4c]
  401bce:	add    edx,DWORD PTR ds:0x40504c
  401bd4:	mov    DWORD PTR [esp+0x8],0x40
  401bdc:	mov    DWORD PTR [esp+0x4],eax
  401be0:	mov    eax,DWORD PTR [esp+0x40]
  401be4:	mov    DWORD PTR [esp+0xc],edx
  401be8:	mov    DWORD PTR [esp],eax
  401beb:	call   DWORD PTR ds:0x406198
  401bf1:	sub    esp,0x10
  401bf4:	test   eax,eax
  401bf6:	jne    0x401aef
  401bfc:	call   DWORD PTR ds:0x406154
  401c02:	mov    DWORD PTR [esp],0x4041f0
  401c09:	mov    DWORD PTR [esp+0x4],eax
  401c0d:	call   0x4019d0
  401c12:	xor    esi,esi
  401c14:	jmp    0x401a73
  401c19:	mov    eax,ds:0x40504c
  401c1e:	mov    eax,DWORD PTR [eax+edx*1+0x4]
  401c22:	mov    DWORD PTR [esp+0x8],eax
  401c26:	mov    eax,DWORD PTR [edi+0x8]
  401c29:	mov    DWORD PTR [esp],0x4041bc
  401c30:	mov    DWORD PTR [esp+0x4],eax
  401c34:	call   0x4019d0
  401c39:	mov    DWORD PTR [esp+0x4],ebx
  401c3d:	mov    DWORD PTR [esp],0x40419c
  401c44:	call   0x4019d0
  401c49:	mov    DWORD PTR [esp+0x8],ebx
  401c4d:	mov    DWORD PTR [esp+0x4],0x1c
  401c55:	mov    DWORD PTR [esp],0x4041bc
  401c5c:	call   0x4019d0
  401c61:	jmp    0x401c70
  401c63:	nop
  401c64:	nop
  401c65:	nop
  401c66:	nop
  401c67:	nop
  401c68:	nop
  401c69:	nop
  401c6a:	nop
  401c6b:	nop
  401c6c:	nop
  401c6d:	nop
  401c6e:	nop
  401c6f:	nop
  401c70:	push   ebp
  401c71:	mov    ebp,esp
  401c73:	push   edi
  401c74:	push   esi
  401c75:	push   ebx
  401c76:	sub    esp,0x4c
  401c79:	mov    eax,ds:0x405048
  401c7e:	test   eax,eax
  401c80:	je     0x401c90
  401c82:	lea    esp,[ebp-0xc]
  401c85:	pop    ebx
  401c86:	pop    esi
  401c87:	pop    edi
  401c88:	pop    ebp
  401c89:	ret    
  401c8a:	lea    esi,[esi+0x0]
  401c90:	mov    DWORD PTR ds:0x405048,0x1
  401c9a:	call   0x402070
  401c9f:	lea    eax,[eax+eax*2]
  401ca2:	lea    eax,[eax*4+0x1e]
  401ca9:	and    eax,0xfffffff0
  401cac:	call   0x402730
  401cb1:	mov    DWORD PTR ds:0x405050,0x0
  401cbb:	sub    esp,eax
  401cbd:	lea    eax,[esp+0x1f]
  401cc1:	and    eax,0xfffffff0
  401cc4:	mov    ds:0x40504c,eax
  401cc9:	mov    eax,0x404298
  401cce:	sub    eax,0x404298
  401cd3:	cmp    eax,0x7
  401cd6:	jle    0x401c82
  401cd8:	cmp    eax,0xb
  401cdb:	mov    ebx,0x404298
  401ce0:	jle    0x401dd0
  401ce6:	mov    eax,ds:0x404298
  401ceb:	test   eax,eax
  401ced:	jne    0x401d00
  401cef:	mov    eax,ds:0x40429c
  401cf4:	test   eax,eax
  401cf6:	je     0x401dbc
  401cfc:	lea    esi,[esi+eiz*1+0x0]
  401d00:	cmp    ebx,0x404298
  401d06:	jae    0x401c82
  401d0c:	mov    esi,0x400000
  401d11:	mov    eax,DWORD PTR [ebx+0x4]
  401d14:	mov    ecx,0x4
  401d19:	add    eax,esi
  401d1b:	mov    edx,DWORD PTR [eax]
  401d1d:	add    edx,DWORD PTR [ebx]
  401d1f:	add    ebx,0x8
  401d22:	mov    DWORD PTR [ebp-0x1c],edx
  401d25:	lea    edx,[ebp-0x1c]
  401d28:	call   0x401a30
  401d2d:	cmp    ebx,0x404298
  401d33:	jb     0x401d11
  401d35:	mov    ecx,DWORD PTR ds:0x405050
  401d3b:	test   ecx,ecx
  401d3d:	jle    0x401c82
  401d43:	xor    ebx,ebx
  401d45:	xor    esi,esi
  401d47:	mov    edi,DWORD PTR ds:0x40619c
  401d4d:	jmp    0x401d62
  401d4f:	nop
  401d50:	add    esi,0x1
  401d53:	add    ebx,0xc
  401d56:	cmp    esi,DWORD PTR ds:0x405050
  401d5c:	jge    0x401c82
  401d62:	mov    eax,ds:0x40504c
  401d67:	add    eax,ebx
  401d69:	mov    edx,DWORD PTR [eax]
  401d6b:	test   edx,edx
  401d6d:	je     0x401d50
  401d6f:	lea    edx,[ebp-0x3c]
  401d72:	mov    DWORD PTR [esp+0x8],0x1c
  401d7a:	mov    DWORD PTR [esp+0x4],edx
  401d7e:	mov    eax,DWORD PTR [eax+0x4]
  401d81:	mov    DWORD PTR [esp],eax
  401d84:	call   edi
  401d86:	sub    esp,0xc
  401d89:	test   eax,eax
  401d8b:	je     0x401ee2
  401d91:	lea    eax,[ebp-0x1c]
  401d94:	mov    DWORD PTR [esp+0xc],eax
  401d98:	mov    eax,ds:0x40504c
  401d9d:	mov    eax,DWORD PTR [eax+ebx*1]
  401da0:	mov    DWORD PTR [esp+0x8],eax
  401da4:	mov    eax,DWORD PTR [ebp-0x30]
  401da7:	mov    DWORD PTR [esp+0x4],eax
  401dab:	mov    eax,DWORD PTR [ebp-0x3c]
  401dae:	mov    DWORD PTR [esp],eax
  401db1:	call   DWORD PTR ds:0x406198
  401db7:	sub    esp,0x10
  401dba:	jmp    0x401d50
  401dbc:	mov    eax,ds:0x4042a0
  401dc1:	test   eax,eax
  401dc3:	jne    0x401de5
  401dc5:	mov    ebx,0x4042a4
  401dca:	lea    esi,[esi+0x0]
  401dd0:	mov    edi,DWORD PTR [ebx]
  401dd2:	test   edi,edi
  401dd4:	jne    0x401d00
  401dda:	mov    esi,DWORD PTR [ebx+0x4]
  401ddd:	test   esi,esi
  401ddf:	jne    0x401d00
  401de5:	mov    eax,DWORD PTR [ebx+0x8]
  401de8:	cmp    eax,0x1
  401deb:	jne    0x401f05
  401df1:	add    ebx,0xc
  401df4:	cmp    ebx,0x404298
  401dfa:	jae    0x401c82
  401e00:	movzx  edx,BYTE PTR [ebx+0x8]
  401e04:	mov    eax,0x400000
  401e09:	mov    ecx,DWORD PTR [ebx]
  401e0b:	add    eax,DWORD PTR [ebx+0x4]
  401e0e:	cmp    edx,0x10
  401e11:	mov    esi,DWORD PTR [ecx+0x400000]
  401e17:	je     0x401e5a
  401e19:	cmp    edx,0x20
  401e1c:	je     0x401e90
  401e1e:	cmp    edx,0x8
  401e21:	je     0x401e3a
  401e23:	mov    DWORD PTR [esp+0x4],edx
  401e27:	mov    DWORD PTR [esp],0x40424c
  401e2e:	mov    DWORD PTR [ebp-0x20],0x0
  401e35:	call   0x4019d0
  401e3a:	movzx  edi,BYTE PTR [eax]
  401e3d:	test   edi,0x80
  401e43:	je     0x401e65
  401e45:	or     edi,0xffffff00
  401e4b:	sub    edi,ecx
  401e4d:	sub    edi,0x400000
  401e53:	add    esi,edi
  401e55:	mov    DWORD PTR [ebp-0x20],esi
  401e58:	jmp    0x401e81
  401e5a:	movzx  edi,WORD PTR [eax]
  401e5d:	test   edi,0x8000
  401e63:	jne    0x401ec0
  401e65:	sub    edi,ecx
  401e67:	sub    edi,0x400000
  401e6d:	add    esi,edi
  401e6f:	cmp    edx,0x10
  401e72:	mov    DWORD PTR [ebp-0x20],esi
  401e75:	je     0x401ed3
  401e77:	cmp    edx,0x20
  401e7a:	je     0x401e9f
  401e7c:	cmp    edx,0x8
  401e7f:	jne    0x401eac
  401e81:	mov    ecx,0x1
  401e86:	lea    edx,[ebp-0x20]
  401e89:	call   0x401a30
  401e8e:	jmp    0x401eac
  401e90:	mov    edx,DWORD PTR [eax]
  401e92:	sub    edx,ecx
  401e94:	sub    edx,0x400000
  401e9a:	add    edx,esi
  401e9c:	mov    DWORD PTR [ebp-0x20],edx
  401e9f:	mov    ecx,0x4
  401ea4:	lea    edx,[ebp-0x20]
  401ea7:	call   0x401a30
  401eac:	add    ebx,0xc
  401eaf:	cmp    ebx,0x404298
  401eb5:	jb     0x401e00
  401ebb:	jmp    0x401d35
  401ec0:	or     edi,0xffff0000
  401ec6:	sub    edi,ecx
  401ec8:	sub    edi,0x400000
  401ece:	add    esi,edi
  401ed0:	mov    DWORD PTR [ebp-0x20],esi
  401ed3:	mov    ecx,0x2
  401ed8:	lea    edx,[ebp-0x20]
  401edb:	call   0x401a30
  401ee0:	jmp    0x401eac
  401ee2:	add    ebx,DWORD PTR ds:0x40504c
  401ee8:	mov    eax,DWORD PTR [ebx+0x4]
  401eeb:	mov    DWORD PTR [esp+0x8],eax
  401eef:	mov    eax,DWORD PTR [ebx+0x8]
  401ef2:	mov    eax,DWORD PTR [eax+0x8]
  401ef5:	mov    DWORD PTR [esp],0x4041bc
  401efc:	mov    DWORD PTR [esp+0x4],eax
  401f00:	call   0x4019d0
  401f05:	mov    DWORD PTR [esp+0x4],eax
  401f09:	mov    DWORD PTR [esp],0x404218
  401f10:	call   0x4019d0
  401f15:	nop
  401f16:	nop
  401f17:	nop
  401f18:	nop
  401f19:	nop
  401f1a:	nop
  401f1b:	nop
  401f1c:	nop
  401f1d:	nop
  401f1e:	nop
  401f1f:	nop
  401f20:	mov    edx,DWORD PTR [esp+0x4]
  401f24:	xor    eax,eax
  401f26:	cmp    WORD PTR [edx],0x5a4d
  401f2b:	je     0x401f30
  401f2d:	repz ret 
  401f2f:	nop
  401f30:	add    edx,DWORD PTR [edx+0x3c]
  401f33:	cmp    DWORD PTR [edx],0x4550
  401f39:	jne    0x401f2d
  401f3b:	xor    eax,eax
  401f3d:	cmp    WORD PTR [edx+0x18],0x10b
  401f43:	sete   al
  401f46:	ret    
  401f47:	mov    esi,esi
  401f49:	lea    edi,[edi+eiz*1+0x0]
  401f50:	push   esi
  401f51:	xor    eax,eax
  401f53:	push   ebx
  401f54:	mov    edx,DWORD PTR [esp+0xc]
  401f58:	mov    ebx,DWORD PTR [esp+0x10]
  401f5c:	add    edx,DWORD PTR [edx+0x3c]
  401f5f:	movzx  esi,WORD PTR [edx+0x6]
  401f63:	movzx  ecx,WORD PTR [edx+0x14]
  401f67:	test   esi,esi
  401f69:	je     0x401f8e
  401f6b:	movzx  ecx,cx
  401f6e:	lea    eax,[edx+ecx*1+0x18]
  401f72:	xor    edx,edx
  401f74:	mov    ecx,DWORD PTR [eax+0xc]
  401f77:	cmp    ecx,ebx
  401f79:	ja     0x401f82
  401f7b:	add    ecx,DWORD PTR [eax+0x8]
  401f7e:	cmp    ebx,ecx
  401f80:	jb     0x401f8e
  401f82:	add    edx,0x1
  401f85:	add    eax,0x28
  401f88:	cmp    edx,esi
  401f8a:	jb     0x401f74
  401f8c:	xor    eax,eax
  401f8e:	pop    ebx
  401f8f:	pop    esi
  401f90:	ret    
  401f91:	jmp    0x401fa0
  401f93:	nop
  401f94:	nop
  401f95:	nop
  401f96:	nop
  401f97:	nop
  401f98:	nop
  401f99:	nop
  401f9a:	nop
  401f9b:	nop
  401f9c:	nop
  401f9d:	nop
  401f9e:	nop
  401f9f:	nop
  401fa0:	push   ebp
  401fa1:	push   edi
  401fa2:	push   esi
  401fa3:	push   ebx
  401fa4:	xor    ebx,ebx
  401fa6:	sub    esp,0x1c
  401fa9:	mov    edi,DWORD PTR [esp+0x30]
  401fad:	mov    DWORD PTR [esp],edi
  401fb0:	call   0x4027c0
  401fb5:	cmp    eax,0x8
  401fb8:	ja     0x402013
  401fba:	mov    DWORD PTR [esp],0x400000
  401fc1:	call   0x401f20
  401fc6:	test   eax,eax
  401fc8:	je     0x402013
  401fca:	mov    eax,ds:0x40003c
  401fcf:	movzx  ebp,WORD PTR [eax+0x400006]
  401fd6:	movzx  edx,WORD PTR [eax+0x400014]
  401fdd:	add    eax,0x400000
  401fe2:	test   ebp,ebp
  401fe4:	je     0x402013
  401fe6:	movzx  edx,dx
  401fe9:	xor    esi,esi
  401feb:	lea    ebx,[eax+edx*1+0x18]
  401fef:	jmp    0x401ffb
  401ff1:	add    esi,0x1
  401ff4:	add    ebx,0x28
  401ff7:	cmp    esi,ebp
  401ff9:	jae    0x402020
  401ffb:	mov    DWORD PTR [esp+0x8],0x8
  402003:	mov    DWORD PTR [esp+0x4],edi
  402007:	mov    DWORD PTR [esp],ebx
  40200a:	call   0x402838
  40200f:	test   eax,eax
  402011:	jne    0x401ff1
  402013:	add    esp,0x1c
  402016:	mov    eax,ebx
  402018:	pop    ebx
  402019:	pop    esi
  40201a:	pop    edi
  40201b:	pop    ebp
  40201c:	ret    
  40201d:	lea    esi,[esi+0x0]
  402020:	add    esp,0x1c
  402023:	xor    ebx,ebx
  402025:	mov    eax,ebx
  402027:	pop    ebx
  402028:	pop    esi
  402029:	pop    edi
  40202a:	pop    ebp
  40202b:	ret    
  40202c:	lea    esi,[esi+eiz*1+0x0]
  402030:	sub    esp,0x8
  402033:	mov    DWORD PTR [esp],0x400000
  40203a:	call   0x401f20
  40203f:	mov    edx,eax
  402041:	xor    eax,eax
  402043:	test   edx,edx
  402045:	je     0x402060
  402047:	mov    eax,DWORD PTR [esp+0xc]
  40204b:	mov    DWORD PTR [esp],0x400000
  402052:	sub    eax,0x400000
  402057:	mov    DWORD PTR [esp+0x4],eax
  40205b:	call   0x401f50
  402060:	add    esp,0x8
  402063:	ret    
  402064:	lea    esi,[esi+0x0]
  40206a:	lea    edi,[edi+0x0]
  402070:	sub    esp,0x4
  402073:	mov    DWORD PTR [esp],0x400000
  40207a:	call   0x401f20
  40207f:	xor    edx,edx
  402081:	test   eax,eax
  402083:	je     0x402091
  402085:	mov    eax,ds:0x40003c
  40208a:	movzx  edx,WORD PTR [eax+0x400006]
  402091:	mov    eax,edx
  402093:	add    esp,0x4
  402096:	ret    
  402097:	mov    esi,esi
  402099:	lea    edi,[edi+eiz*1+0x0]
  4020a0:	push   esi
  4020a1:	push   ebx
  4020a2:	sub    esp,0x4
  4020a5:	mov    DWORD PTR [esp],0x400000
  4020ac:	mov    ebx,DWORD PTR [esp+0x10]
  4020b0:	call   0x401f20
  4020b5:	xor    edx,edx
  4020b7:	test   eax,eax
  4020b9:	je     0x4020f9
  4020bb:	mov    eax,ds:0x40003c
  4020c0:	movzx  ecx,WORD PTR [eax+0x400006]
  4020c7:	movzx  esi,WORD PTR [eax+0x400014]
  4020ce:	add    eax,0x400000
  4020d3:	test   ecx,ecx
  4020d5:	je     0x4020f9
  4020d7:	movzx  esi,si
  4020da:	lea    edx,[eax+esi*1+0x18]
  4020de:	xor    eax,eax
  4020e0:	test   BYTE PTR [edx+0x27],0x20
  4020e4:	je     0x4020ed
  4020e6:	test   ebx,ebx
  4020e8:	je     0x4020f9
  4020ea:	sub    ebx,0x1
  4020ed:	add    eax,0x1
  4020f0:	add    edx,0x28
  4020f3:	cmp    eax,ecx
  4020f5:	jb     0x4020e0
  4020f7:	xor    edx,edx
  4020f9:	add    esp,0x4
  4020fc:	mov    eax,edx
  4020fe:	pop    ebx
  4020ff:	pop    esi
  402100:	ret    
  402101:	jmp    0x402110
  402103:	nop
  402104:	nop
  402105:	nop
  402106:	nop
  402107:	nop
  402108:	nop
  402109:	nop
  40210a:	nop
  40210b:	nop
  40210c:	nop
  40210d:	nop
  40210e:	nop
  40210f:	nop
  402110:	sub    esp,0x4
  402113:	mov    DWORD PTR [esp],0x400000
  40211a:	call   0x401f20
  40211f:	xor    edx,edx
  402121:	test   eax,eax
  402123:	mov    eax,0x400000
  402128:	cmovne edx,eax
  40212b:	add    esp,0x4
  40212e:	mov    eax,edx
  402130:	ret    
  402131:	jmp    0x402140
  402133:	nop
  402134:	nop
  402135:	nop
  402136:	nop
  402137:	nop
  402138:	nop
  402139:	nop
  40213a:	nop
  40213b:	nop
  40213c:	nop
  40213d:	nop
  40213e:	nop
  40213f:	nop
  402140:	push   ebx
  402141:	xor    ebx,ebx
  402143:	sub    esp,0x8
  402146:	mov    DWORD PTR [esp],0x400000
  40214d:	call   0x401f20
  402152:	test   eax,eax
  402154:	jne    0x402160
  402156:	add    esp,0x8
  402159:	mov    eax,ebx
  40215b:	pop    ebx
  40215c:	ret    
  40215d:	lea    esi,[esi+0x0]
  402160:	mov    eax,DWORD PTR [esp+0x10]
  402164:	mov    DWORD PTR [esp],0x400000
  40216b:	sub    eax,0x400000
  402170:	mov    DWORD PTR [esp+0x4],eax
  402174:	call   0x401f50
  402179:	test   eax,eax
  40217b:	je     0x402156
  40217d:	mov    ebx,DWORD PTR [eax+0x24]
  402180:	add    esp,0x8
  402183:	not    ebx
  402185:	shr    ebx,0x1f
  402188:	mov    eax,ebx
  40218a:	pop    ebx
  40218b:	ret    
  40218c:	lea    esi,[esi+eiz*1+0x0]
  402190:	push   edi
  402191:	xor    edi,edi
  402193:	push   esi
  402194:	push   ebx
  402195:	sub    esp,0x8
  402198:	mov    DWORD PTR [esp],0x400000
  40219f:	mov    ebx,DWORD PTR [esp+0x18]
  4021a3:	call   0x401f20
  4021a8:	test   eax,eax
  4021aa:	je     0x402201
  4021ac:	mov    eax,ds:0x40003c
  4021b1:	mov    esi,DWORD PTR [eax+0x400080]
  4021b7:	test   esi,esi
  4021b9:	je     0x402201
  4021bb:	mov    DWORD PTR [esp+0x4],esi
  4021bf:	mov    DWORD PTR [esp],0x400000
  4021c6:	call   0x401f50
  4021cb:	test   eax,eax
  4021cd:	je     0x402201
  4021cf:	add    esi,0x400000
  4021d5:	jne    0x4021e6
  4021d7:	jmp    0x402201
  4021d9:	lea    esi,[esi+eiz*1+0x0]
  4021e0:	sub    ebx,0x1
  4021e3:	add    esi,0x14
  4021e6:	mov    edx,DWORD PTR [esi+0x4]
  4021e9:	test   edx,edx
  4021eb:	jne    0x4021f4
  4021ed:	mov    eax,DWORD PTR [esi+0xc]
  4021f0:	test   eax,eax
  4021f2:	je     0x402210
  4021f4:	test   ebx,ebx
  4021f6:	jg     0x4021e0
  4021f8:	mov    edi,DWORD PTR [esi+0xc]
  4021fb:	add    edi,0x400000
  402201:	add    esp,0x8
  402204:	mov    eax,edi
  402206:	pop    ebx
  402207:	pop    esi
  402208:	pop    edi
  402209:	ret    
  40220a:	lea    esi,[esi+0x0]
  402210:	add    esp,0x8
  402213:	xor    edi,edi
  402215:	mov    eax,edi
  402217:	pop    ebx
  402218:	pop    esi
  402219:	pop    edi
  40221a:	ret    
  40221b:	nop
  40221c:	lea    esi,[esi+eiz*1+0x0]
  402220:	push   ebx
  402221:	sub    esp,0x18
  402224:	mov    eax,ds:0x405054
  402229:	test   eax,eax
  40222b:	je     0x402232
  40222d:	add    esp,0x18
  402230:	pop    ebx
  402231:	ret    
  402232:	xor    eax,eax
  402234:	mov    DWORD PTR [esp],eax
  402237:	lea    ebx,[eax+0x1]
  40223a:	call   0x402190
  40223f:	test   eax,eax
  402241:	je     0x4022c0
  402243:	movzx  edx,BYTE PTR [eax]
  402246:	cmp    dl,0x4d
  402249:	je     0x402250
  40224b:	cmp    dl,0x6d
  40224e:	jne    0x4022a0
  402250:	movzx  edx,BYTE PTR [eax+0x1]
  402254:	cmp    dl,0x53
  402257:	je     0x40225e
  402259:	cmp    dl,0x73
  40225c:	jne    0x4022a0
  40225e:	movzx  edx,BYTE PTR [eax+0x2]
  402262:	cmp    dl,0x56
  402265:	je     0x40226c
  402267:	cmp    dl,0x76
  40226a:	jne    0x4022a0
  40226c:	movzx  edx,BYTE PTR [eax+0x3]
  402270:	cmp    dl,0x43
  402273:	je     0x40227a
  402275:	cmp    dl,0x63
  402278:	jne    0x4022a0
  40227a:	movzx  edx,BYTE PTR [eax+0x4]
  40227e:	cmp    dl,0x52
  402281:	je     0x402288
  402283:	cmp    dl,0x72
  402286:	jne    0x4022a0
  402288:	movzx  edx,BYTE PTR [eax+0x5]
  40228c:	cmp    dl,0x54
  40228f:	je     0x4022a4
  402291:	cmp    dl,0x74
  402294:	je     0x4022a4
  402296:	sub    edx,0x30
  402299:	cmp    dl,0x9
  40229c:	jbe    0x4022a4
  40229e:	xchg   ax,ax
  4022a0:	mov    eax,ebx
  4022a2:	jmp    0x402234
  4022a4:	mov    DWORD PTR [esp],eax
  4022a7:	call   DWORD PTR ds:0x406158
  4022ad:	sub    esp,0x4
  4022b0:	test   eax,eax
  4022b2:	mov    ds:0x405054,eax
  4022b7:	jne    0x40222d
  4022bd:	lea    esi,[esi+0x0]
  4022c0:	mov    DWORD PTR [esp],0x404278
  4022c7:	call   DWORD PTR ds:0x40617c
  4022cd:	sub    esp,0x4
  4022d0:	mov    ds:0x405054,eax
  4022d5:	jmp    0x40222d
  4022da:	nop
  4022db:	nop
  4022dc:	nop
  4022dd:	nop
  4022de:	nop
  4022df:	nop
  4022e0:	fninit 
  4022e2:	ret    
  4022e3:	nop
  4022e4:	nop
  4022e5:	nop
  4022e6:	nop
  4022e7:	nop
  4022e8:	nop
  4022e9:	nop
  4022ea:	nop
  4022eb:	nop
  4022ec:	nop
  4022ed:	nop
  4022ee:	nop
  4022ef:	nop
  4022f0:	sub    esp,0xc
  4022f3:	mov    eax,ds:0x403014
  4022f8:	mov    eax,DWORD PTR [eax]
  4022fa:	test   eax,eax
  4022fc:	je     0x402317
  4022fe:	xchg   ax,ax
  402300:	call   eax
  402302:	mov    eax,ds:0x403014
  402307:	lea    edx,[eax+0x4]
  40230a:	mov    eax,DWORD PTR [eax+0x4]
  40230d:	mov    DWORD PTR ds:0x403014,edx
  402313:	test   eax,eax
  402315:	jne    0x402300
  402317:	add    esp,0xc
  40231a:	ret    
  40231b:	nop
  40231c:	lea    esi,[esi+eiz*1+0x0]
  402320:	push   ebx
  402321:	sub    esp,0x18
  402324:	mov    ebx,DWORD PTR ds:0x402a40
  40232a:	cmp    ebx,0xffffffff
  40232d:	je     0x402353
  40232f:	test   ebx,ebx
  402331:	je     0x402342
  402333:	call   DWORD PTR [ebx*4+0x402a40]
  40233a:	sub    ebx,0x1
  40233d:	lea    esi,[esi+0x0]
  402340:	jne    0x402333
  402342:	mov    DWORD PTR [esp],0x4022f0
  402349:	call   0x401750
  40234e:	add    esp,0x18
  402351:	pop    ebx
  402352:	ret    
  402353:	xor    ebx,ebx
  402355:	jmp    0x402359
  402357:	mov    ebx,eax
  402359:	lea    eax,[ebx+0x1]
  40235c:	mov    edx,DWORD PTR [eax*4+0x402a40]
  402363:	test   edx,edx
  402365:	jne    0x402357
  402367:	jmp    0x40232f
  402369:	lea    esi,[esi+eiz*1+0x0]
  402370:	mov    ecx,DWORD PTR ds:0x405058
  402376:	test   ecx,ecx
  402378:	je     0x402380
  40237a:	repz ret 
  40237c:	lea    esi,[esi+eiz*1+0x0]
  402380:	mov    DWORD PTR ds:0x405058,0x1
  40238a:	jmp    0x402320
  40238c:	nop
  40238d:	nop
  40238e:	nop
  40238f:	nop
  402390:	sub    esp,0x4c
  402393:	mov    eax,ds:0x403020
  402398:	mov    DWORD PTR [esp+0x3c],ebx
  40239c:	mov    DWORD PTR [esp+0x40],esi
  4023a0:	mov    DWORD PTR [esp+0x44],edi
  4023a4:	cmp    eax,0xbb40e64e
  4023a9:	mov    DWORD PTR [esp+0x48],ebp
  4023ad:	mov    DWORD PTR [esp+0x20],0x0
  4023b5:	mov    DWORD PTR [esp+0x24],0x0
  4023bd:	je     0x4023e0
  4023bf:	not    eax
  4023c1:	mov    ds:0x403024,eax
  4023c6:	mov    ebx,DWORD PTR [esp+0x3c]
  4023ca:	mov    esi,DWORD PTR [esp+0x40]
  4023ce:	mov    edi,DWORD PTR [esp+0x44]
  4023d2:	mov    ebp,DWORD PTR [esp+0x48]
  4023d6:	add    esp,0x4c
  4023d9:	ret    
  4023da:	lea    esi,[esi+0x0]
  4023e0:	lea    eax,[esp+0x20]
  4023e4:	mov    DWORD PTR [esp],eax
  4023e7:	call   DWORD PTR ds:0x406164
  4023ed:	sub    esp,0x4
  4023f0:	mov    eax,DWORD PTR [esp+0x24]
  4023f4:	mov    ebp,DWORD PTR [esp+0x20]
  4023f8:	mov    DWORD PTR [esp+0x1c],eax
  4023fc:	call   DWORD PTR ds:0x406148
  402402:	mov    edi,eax
  402404:	call   DWORD PTR ds:0x40614c
  40240a:	mov    esi,eax
  40240c:	call   DWORD PTR ds:0x406168
  402412:	mov    ebx,eax
  402414:	lea    eax,[esp+0x28]
  402418:	mov    DWORD PTR [esp],eax
  40241b:	call   DWORD PTR ds:0x406180
  402421:	sub    esp,0x4
  402424:	xor    ebp,DWORD PTR [esp+0x1c]
  402428:	xor    ebp,DWORD PTR [esp+0x28]
  40242c:	xor    ebp,DWORD PTR [esp+0x2c]
  402430:	xor    ebp,edi
  402432:	xor    ebp,esi
  402434:	xor    ebp,ebx
  402436:	mov    eax,ebp
  402438:	cmp    ebp,0xbb40e64e
  40243e:	not    eax
  402440:	je     0x402452
  402442:	mov    DWORD PTR ds:0x403020,ebp
  402448:	mov    ds:0x403024,eax
  40244d:	jmp    0x4023c6
  402452:	mov    eax,0x44bf19b0
  402457:	mov    ebp,0xbb40e64f
  40245c:	jmp    0x402442
  40245e:	xchg   ax,ax
  402460:	push   ebp
  402461:	mov    ebp,esp
  402463:	sub    esp,0x28
  402466:	mov    eax,DWORD PTR [ebp+0x4]
  402469:	lea    edx,[ebp+0x4]
  40246c:	mov    DWORD PTR ds:0x405124,edx
  402472:	mov    DWORD PTR ds:0x405340,0xc0000409
  40247c:	mov    DWORD PTR ds:0x405344,0x1
  402486:	mov    ds:0x405118,eax
  40248b:	mov    ds:0x40534c,eax
  402490:	mov    eax,DWORD PTR [ebp+0x8]
  402493:	mov    DWORD PTR [esp],0x0
  40249a:	mov    ds:0x40510c,eax
  40249f:	mov    eax,ds:0x403020
  4024a4:	mov    DWORD PTR [ebp-0x10],eax
  4024a7:	mov    eax,ds:0x403024
  4024ac:	mov    DWORD PTR [ebp-0xc],eax
  4024af:	call   DWORD PTR ds:0x406184
  4024b5:	sub    esp,0x4
  4024b8:	mov    DWORD PTR [esp],0x404290
  4024bf:	call   DWORD PTR ds:0x406194
  4024c5:	sub    esp,0x4
  4024c8:	call   DWORD PTR ds:0x406144
  4024ce:	mov    DWORD PTR [esp+0x4],0xc0000409
  4024d6:	mov    DWORD PTR [esp],eax
  4024d9:	call   DWORD PTR ds:0x40618c
  4024df:	sub    esp,0x8
  4024e2:	call   0x402830
  4024e7:	nop
  4024e8:	nop
  4024e9:	nop
  4024ea:	nop
  4024eb:	nop
  4024ec:	nop
  4024ed:	nop
  4024ee:	nop
  4024ef:	nop
  4024f0:	push   ebp
  4024f1:	push   edi
  4024f2:	push   esi
  4024f3:	push   ebx
  4024f4:	sub    esp,0x1c
  4024f7:	mov    DWORD PTR [esp],0x4053a4
  4024fe:	call   DWORD PTR ds:0x406140
  402504:	mov    ebx,DWORD PTR ds:0x4053bc
  40250a:	sub    esp,0x4
  40250d:	test   ebx,ebx
  40250f:	je     0x402545
  402511:	mov    ebp,DWORD PTR ds:0x406190
  402517:	mov    edi,DWORD PTR ds:0x406154
  40251d:	lea    esi,[esi+0x0]
  402520:	mov    eax,DWORD PTR [ebx]
  402522:	mov    DWORD PTR [esp],eax
  402525:	call   ebp
  402527:	sub    esp,0x4
  40252a:	mov    esi,eax
  40252c:	call   edi
  40252e:	test   eax,eax
  402530:	jne    0x40253e
  402532:	test   esi,esi
  402534:	je     0x40253e
  402536:	mov    eax,DWORD PTR [ebx+0x4]
  402539:	mov    DWORD PTR [esp],esi
  40253c:	call   eax
  40253e:	mov    ebx,DWORD PTR [ebx+0x8]
  402541:	test   ebx,ebx
  402543:	jne    0x402520
  402545:	mov    DWORD PTR [esp],0x4053a4
  40254c:	call   DWORD PTR ds:0x406178
  402552:	sub    esp,0x4
  402555:	add    esp,0x1c
  402558:	pop    ebx
  402559:	pop    esi
  40255a:	pop    edi
  40255b:	pop    ebp
  40255c:	ret    
  40255d:	lea    esi,[esi+0x0]
  402560:	sub    esp,0x1c
  402563:	mov    eax,ds:0x4053a0
  402568:	mov    DWORD PTR [esp+0x14],ebx
  40256c:	xor    ebx,ebx
  40256e:	mov    DWORD PTR [esp+0x18],esi
  402572:	test   eax,eax
  402574:	jne    0x402584
  402576:	mov    eax,ebx
  402578:	mov    esi,DWORD PTR [esp+0x18]
  40257c:	mov    ebx,DWORD PTR [esp+0x14]
  402580:	add    esp,0x1c
  402583:	ret    
  402584:	mov    DWORD PTR [esp+0x4],0xc
  40258c:	mov    DWORD PTR [esp],0x1
  402593:	call   0x402840
  402598:	test   eax,eax
  40259a:	mov    esi,eax
  40259c:	je     0x4025e7
  40259e:	mov    eax,DWORD PTR [esp+0x20]
  4025a2:	mov    DWORD PTR [esp],0x4053a4
  4025a9:	mov    DWORD PTR [esi],eax
  4025ab:	mov    eax,DWORD PTR [esp+0x24]
  4025af:	mov    DWORD PTR [esi+0x4],eax
  4025b2:	call   DWORD PTR ds:0x406140
  4025b8:	mov    eax,ds:0x4053bc
  4025bd:	mov    DWORD PTR ds:0x4053bc,esi
  4025c3:	mov    DWORD PTR [esi+0x8],eax
  4025c6:	sub    esp,0x4
  4025c9:	mov    DWORD PTR [esp],0x4053a4
  4025d0:	call   DWORD PTR ds:0x406178
  4025d6:	mov    eax,ebx
  4025d8:	sub    esp,0x4
  4025db:	mov    ebx,DWORD PTR [esp+0x14]
  4025df:	mov    esi,DWORD PTR [esp+0x18]
  4025e3:	add    esp,0x1c
  4025e6:	ret    
  4025e7:	mov    ebx,0xffffffff
  4025ec:	jmp    0x402576
  4025ee:	xchg   ax,ax
  4025f0:	push   ebx
  4025f1:	sub    esp,0x18
  4025f4:	mov    eax,ds:0x4053a0
  4025f9:	mov    ebx,DWORD PTR [esp+0x20]
  4025fd:	test   eax,eax
  4025ff:	jne    0x402608
  402601:	add    esp,0x18
  402604:	xor    eax,eax
  402606:	pop    ebx
  402607:	ret    
  402608:	mov    DWORD PTR [esp],0x4053a4
  40260f:	call   DWORD PTR ds:0x406140
  402615:	mov    edx,DWORD PTR ds:0x4053bc
  40261b:	sub    esp,0x4
  40261e:	test   edx,edx
  402620:	je     0x40263f
  402622:	mov    eax,DWORD PTR [edx]
  402624:	cmp    eax,ebx
  402626:	jne    0x402638
  402628:	jmp    0x402676
  40262a:	lea    esi,[esi+0x0]
  402630:	mov    ecx,DWORD PTR [eax]
  402632:	cmp    ecx,ebx
  402634:	je     0x402656
  402636:	mov    edx,eax
  402638:	mov    eax,DWORD PTR [edx+0x8]
  40263b:	test   eax,eax
  40263d:	jne    0x402630
  40263f:	mov    DWORD PTR [esp],0x4053a4
  402646:	call   DWORD PTR ds:0x406178
  40264c:	sub    esp,0x4
  40264f:	add    esp,0x18
  402652:	xor    eax,eax
  402654:	pop    ebx
  402655:	ret    
  402656:	mov    ecx,DWORD PTR [eax+0x8]
  402659:	mov    DWORD PTR [edx+0x8],ecx
  40265c:	mov    DWORD PTR [esp],eax
  40265f:	call   0x402848
  402664:	mov    DWORD PTR [esp],0x4053a4
  40266b:	call   DWORD PTR ds:0x406178
  402671:	sub    esp,0x4
  402674:	jmp    0x40264f
  402676:	mov    eax,DWORD PTR [edx+0x8]
  402679:	mov    ds:0x4053bc,eax
  40267e:	mov    eax,edx
  402680:	jmp    0x40265c
  402682:	lea    esi,[esi+eiz*1+0x0]
  402689:	lea    edi,[edi+eiz*1+0x0]
  402690:	sub    esp,0x1c
  402693:	mov    eax,DWORD PTR [esp+0x24]
  402697:	cmp    eax,0x1
  40269a:	je     0x4026e0
  40269c:	jb     0x4026b0
  40269e:	cmp    eax,0x3
  4026a1:	je     0x402700
  4026a3:	mov    eax,0x1
  4026a8:	add    esp,0x1c
  4026ab:	ret    
  4026ac:	lea    esi,[esi+eiz*1+0x0]
  4026b0:	mov    eax,ds:0x4053a0
  4026b5:	test   eax,eax
  4026b7:	jne    0x402722
  4026b9:	mov    eax,ds:0x4053a0
  4026be:	cmp    eax,0x1
  4026c1:	jne    0x4026a3
  4026c3:	mov    DWORD PTR ds:0x4053a0,0x0
  4026cd:	mov    DWORD PTR [esp],0x4053a4
  4026d4:	call   DWORD PTR ds:0x40613c
  4026da:	sub    esp,0x4
  4026dd:	jmp    0x4026a3
  4026df:	nop
  4026e0:	mov    eax,ds:0x4053a0
  4026e5:	test   eax,eax
  4026e7:	je     0x402710
  4026e9:	mov    DWORD PTR ds:0x4053a0,0x1
  4026f3:	mov    eax,0x1
  4026f8:	add    esp,0x1c
  4026fb:	ret    
  4026fc:	lea    esi,[esi+eiz*1+0x0]
  402700:	mov    eax,ds:0x4053a0
  402705:	test   eax,eax
  402707:	je     0x4026a3
  402709:	call   0x4024f0
  40270e:	jmp    0x4026a3
  402710:	mov    DWORD PTR [esp],0x4053a4
  402717:	call   DWORD PTR ds:0x406170
  40271d:	sub    esp,0x4
  402720:	jmp    0x4026e9
  402722:	call   0x4024f0
  402727:	jmp    0x4026b9
  402729:	nop
  40272a:	nop
  40272b:	nop
  40272c:	nop
  40272d:	nop
  40272e:	nop
  40272f:	nop
  402730:	push   ecx
  402731:	push   eax
  402732:	cmp    eax,0x1000
  402737:	lea    ecx,[esp+0xc]
  40273b:	jb     0x402752
  40273d:	sub    ecx,0x1000
  402743:	or     DWORD PTR [ecx],0x0
  402746:	sub    eax,0x1000
  40274b:	cmp    eax,0x1000
  402750:	ja     0x40273d
  402752:	sub    ecx,eax
  402754:	or     DWORD PTR [ecx],0x0
  402757:	pop    eax
  402758:	pop    ecx
  402759:	ret    
  40275a:	nop
  40275b:	nop
  40275c:	xchg   ax,ax
  40275e:	xchg   ax,ax
  402760:	mov    eax,DWORD PTR [esp+0xc]
  402764:	mov    edx,DWORD PTR [esp+0x8]
  402768:	mov    ecx,DWORD PTR [esp+0x4]
  40276c:	lock cmpxchg DWORD PTR [ecx],edx
  402770:	ret    
  402771:	jmp    0x402780
  402773:	nop
  402774:	nop
  402775:	nop
  402776:	nop
  402777:	nop
  402778:	nop
  402779:	nop
  40277a:	nop
  40277b:	nop
  40277c:	nop
  40277d:	nop
  40277e:	nop
  40277f:	nop
  402780:	mov    eax,DWORD PTR [esp+0xc]
  402784:	mov    edx,DWORD PTR [esp+0x8]
  402788:	mov    ecx,DWORD PTR [esp+0x4]
  40278c:	lock cmpxchg DWORD PTR [ecx],edx
  402790:	ret    0xc
  402793:	nop
  402794:	nop
  402795:	nop
  402796:	nop
  402797:	nop
  402798:	nop
  402799:	nop
  40279a:	nop
  40279b:	nop
  40279c:	nop
  40279d:	nop
  40279e:	nop
  40279f:	nop
  4027a0:	jmp    DWORD PTR ds:0x4061b8
  4027a6:	nop
  4027a7:	nop
  4027a8:	jmp    DWORD PTR ds:0x4061c4
  4027ae:	nop
  4027af:	nop
  4027b0:	jmp    DWORD PTR ds:0x40620c
  4027b6:	nop
  4027b7:	nop
  4027b8:	jmp    DWORD PTR ds:0x406208
  4027be:	nop
  4027bf:	nop
  4027c0:	jmp    DWORD PTR ds:0x406218
  4027c6:	nop
  4027c7:	nop
  4027c8:	jmp    DWORD PTR ds:0x4061d4
  4027ce:	nop
  4027cf:	nop
  4027d0:	jmp    DWORD PTR ds:0x4061d0
  4027d6:	nop
  4027d7:	nop
  4027d8:	jmp    DWORD PTR ds:0x4061dc
  4027de:	nop
  4027df:	nop
  4027e0:	jmp    DWORD PTR ds:0x4061f8
  4027e6:	nop
  4027e7:	nop
  4027e8:	jmp    DWORD PTR ds:0x406214
  4027ee:	nop
  4027ef:	nop
  4027f0:	jmp    DWORD PTR ds:0x406204
  4027f6:	nop
  4027f7:	nop
  4027f8:	jmp    DWORD PTR ds:0x4061e4
  4027fe:	nop
  4027ff:	nop
  402800:	jmp    DWORD PTR ds:0x4061b4
  402806:	nop
  402807:	nop
  402808:	jmp    DWORD PTR ds:0x4061ec
  40280e:	nop
  40280f:	nop
  402810:	jmp    DWORD PTR ds:0x406210
  402816:	nop
  402817:	nop
  402818:	jmp    DWORD PTR ds:0x4061c8
  40281e:	nop
  40281f:	nop
  402820:	jmp    DWORD PTR ds:0x4061fc
  402826:	nop
  402827:	nop
  402828:	jmp    DWORD PTR ds:0x406220
  40282e:	nop
  40282f:	nop
  402830:	jmp    DWORD PTR ds:0x4061f0
  402836:	nop
  402837:	nop
  402838:	jmp    DWORD PTR ds:0x40621c
  40283e:	nop
  40283f:	nop
  402840:	jmp    DWORD PTR ds:0x4061f4
  402846:	nop
  402847:	nop
  402848:	jmp    DWORD PTR ds:0x406200
  40284e:	nop
  40284f:	nop
  402850:	lea    ecx,[esp+0x4]
  402854:	and    esp,0xfffffff0
  402857:	push   DWORD PTR [ecx-0x4]
  40285a:	push   ebp
  40285b:	mov    ebp,esp
  40285d:	push   edi
  40285e:	push   esi
  40285f:	push   ebx
  402860:	push   ecx
  402861:	sub    esp,0x258
  402867:	mov    eax,DWORD PTR [ecx]
  402869:	mov    edi,DWORD PTR [ecx+0x4]
  40286c:	lea    ebx,[ebp-0x230]
  402872:	mov    DWORD PTR [ebp-0x23c],eax
  402878:	call   0x402370
  40287d:	lea    eax,[ebp-0x28]
  402880:	mov    DWORD PTR [esp+0xc],eax
  402884:	mov    DWORD PTR [esp+0x8],ebx
  402888:	mov    DWORD PTR [esp+0x4],0x104
  402890:	mov    DWORD PTR [esp],0x404044
  402897:	call   DWORD PTR ds:0x406150
  40289d:	mov    DWORD PTR [ebp-0x240],0x1
  4028a7:	sub    esp,0x10
  4028aa:	test   eax,eax
  4028ac:	je     0x402924
  4028ae:	mov    DWORD PTR [esp+0x4],0x5c
  4028b6:	mov    DWORD PTR [esp],ebx
  4028b9:	call   0x4027e8
  4028be:	test   eax,eax
  4028c0:	mov    DWORD PTR [ebp-0x28],eax
  4028c3:	je     0x4028cf
  4028c5:	lea    edx,[eax+0x1]
  4028c8:	mov    DWORD PTR [ebp-0x28],edx
  4028cb:	mov    BYTE PTR [eax+0x1],0x0
  4028cf:	lea    eax,[ebp-0x1c]
  4028d2:	mov    DWORD PTR [esp+0x14],eax
  4028d6:	lea    eax,[ebp-0x20]
  4028d9:	mov    DWORD PTR [esp+0x10],eax
  4028dd:	lea    eax,[ebp-0x24]
  4028e0:	mov    DWORD PTR [esp+0xc],eax
  4028e4:	lea    eax,[ebp-0x12c]
  4028ea:	mov    DWORD PTR [esp+0x1c],0x0
  4028f2:	mov    DWORD PTR [esp+0x18],0x0
  4028fa:	mov    DWORD PTR [esp+0x8],0x104
  402902:	mov    DWORD PTR [esp+0x4],eax
  402906:	mov    DWORD PTR [esp],ebx
  402909:	call   DWORD PTR ds:0x40616c
  40290f:	mov    DWORD PTR [ebp-0x240],0x1
  402919:	sub    esp,0x20
  40291c:	test   eax,eax
  40291e:	jne    0x4029fe
  402924:	mov    eax,ds:0x4061e0
  402929:	add    eax,0x20
  40292c:	mov    DWORD PTR [esp],eax
  40292f:	call   0x401560
  402934:	mov    DWORD PTR [esp+0x4],0x8000
  40293c:	mov    DWORD PTR [esp],eax
  40293f:	call   0x401568
  402944:	cmp    DWORD PTR [ebp-0x23c],0x1
  40294b:	jle    0x4029f0
  402951:	mov    ebx,0x1
  402956:	jmp    0x4029bf
  402958:	cmp    ebx,0x1
  40295b:	je     0x402991
  40295d:	mov    eax,ds:0x4061e0
  402962:	mov    DWORD PTR [ebp-0x244],edx
  402968:	mov    DWORD PTR [esp+0x8],0x1
  402970:	mov    DWORD PTR [esp+0x4],0x1
  402978:	add    eax,0x20
  40297b:	mov    DWORD PTR [esp+0xc],eax
  40297f:	mov    DWORD PTR [esp],0x404046
  402986:	call   0x4027f0
  40298b:	mov    edx,DWORD PTR [ebp-0x244]
  402991:	mov    eax,ds:0x4061e0
  402996:	mov    DWORD PTR [esp+0x8],edx
  40299a:	mov    DWORD PTR [esp+0x4],0x1
  4029a2:	add    eax,0x20
  4029a5:	mov    DWORD PTR [esp+0xc],eax
  4029a9:	mov    eax,DWORD PTR [edi+ebx*4]
  4029ac:	add    ebx,0x1
  4029af:	mov    DWORD PTR [esp],eax
  4029b2:	call   0x4027f0
  4029b7:	cmp    ebx,DWORD PTR [ebp-0x23c]
  4029bd:	je     0x4029f0
  4029bf:	mov    esi,DWORD PTR [edi+ebx*4]
  4029c2:	mov    DWORD PTR [esp],esi
  4029c5:	call   0x4027c0
  4029ca:	mov    edx,eax
  4029cc:	mov    eax,DWORD PTR [ebp-0x240]
  4029d2:	test   eax,eax
  4029d4:	je     0x402958
  4029d6:	mov    DWORD PTR [ebp-0x244],edx
  4029dc:	mov    DWORD PTR [esp],esi
  4029df:	call   0x401570
  4029e4:	mov    edx,DWORD PTR [ebp-0x244]
  4029ea:	jmp    0x402958
  4029ef:	nop
  4029f0:	lea    esp,[ebp-0x10]
  4029f3:	xor    eax,eax
  4029f5:	pop    ecx
  4029f6:	pop    ebx
  4029f7:	pop    esi
  4029f8:	pop    edi
  4029f9:	pop    ebp
  4029fa:	lea    esp,[ecx-0x4]
  4029fd:	ret    
  4029fe:	xor    eax,eax
  402a00:	test   BYTE PTR [ebp-0x1c],0x2
  402a04:	sete   al
  402a07:	mov    DWORD PTR [ebp-0x240],eax
  402a0d:	jmp    0x402924
  402a12:	nop
  402a13:	nop
  402a14:	nop
  402a15:	nop
  402a16:	nop
  402a17:	nop
  402a18:	nop
  402a19:	nop
  402a1a:	nop
  402a1b:	nop
  402a1c:	nop
  402a1d:	nop
  402a1e:	nop
  402a1f:	nop
  402a20:	push   ebp
  402a21:	mov    ebp,esp
  402a23:	sub    esp,0x18
  402a26:	call   0x401500
  402a2b:	mov    DWORD PTR [esp],0x401550
  402a32:	call   0x401750
  402a37:	leave  
  402a38:	ret    
  402a39:	nop
  402a3a:	nop
  402a3b:	nop
  402a3c:	nop
  402a3d:	nop
  402a3e:	nop
  402a3f:	nop
  402a40:	(bad)  
  402a41:	(bad)  
  402a42:	(bad)  
  402a43:	jmp    DWORD PTR [eax]
  402a45:	sub    al,BYTE PTR [eax+0x0]
  402a48:	add    BYTE PTR [eax],al
  402a4a:	add    BYTE PTR [eax],al
  402a4c:	(bad)  
  402a4d:	(bad)  
  402a4e:	(bad)  
  402a4f:	inc    DWORD PTR [eax]
  402a51:	add    BYTE PTR [eax],al
	...

Disassembly of section .data:

00403000 <.data>:
  403000:	or     al,BYTE PTR [eax]
  403002:	add    BYTE PTR [eax],al
  403004:	(bad)  
  403005:	(bad)  
  403006:	(bad)  
  403007:	(bad)  
  403008:	inc    DWORD PTR [eax]
  40300a:	add    BYTE PTR [eax],al
  40300c:	(bad)  
  40300d:	(bad)  
  40300e:	(bad)  
  40300f:	(bad)  
  403010:	(bad)  
  403011:	(bad)  
  403012:	(bad)  
  403013:	call   DWORD PTR [eax+0x2a]
  403016:	inc    eax
  403017:	add    BYTE PTR [edx],al
  403019:	add    BYTE PTR [eax],al
  40301b:	add    bh,bh
  40301d:	(bad)  
  40301e:	(bad)  
  40301f:	dec    DWORD PTR [esi-0x1a]
  403022:	inc    eax
  403023:	mov    ebx,0x44bf19b1
  403028:	add    BYTE PTR [eax],al
	...

Disassembly of section .rdata:

00404000 <.rdata>:
  404000:	pop    edi
  404001:	jae    0x404068
  404003:	je     0x404064
  404005:	imul   ebp,DWORD PTR [esi+0x76],0x64696c61
  40400c:	pop    edi
  40400d:	jo     0x404070
  40400f:	jb     0x404072
  404011:	ins    DWORD PTR es:[edi],dx
  404012:	gs je  0x40407a
  404015:	jb     0x404076
  404017:	push   0x6c646e61
  40401c:	gs jb  0x40401f
  40401f:	add    BYTE PTR [ecx+ebp*2+0x62],ch
  404023:	arpl   WORD PTR [bp+si+0x2d],bp
  404027:	xor    DWORD PTR [edx],esi
  404029:	cs fs ins BYTE PTR es:[edi],dx
  40402c:	ins    BYTE PTR es:[edi],dx
  40402d:	add    BYTE PTR [edi+0x4a],bl
  404030:	jbe    0x404091
  404032:	push   edx
  404033:	imul   esi,DWORD PTR gs:[bp+di+0x74],0x6c437265
  40403c:	popa   
  40403d:	jae    0x4040b2
  40403f:	gs jae 0x404042
  404042:	add    BYTE PTR [eax],al
  404044:	add    BYTE PTR cs:[eax],al
  404047:	add    al,dl
  404049:	adc    eax,0x6e550040
  40404e:	imul   ebp,DWORD PTR [esi+0x6f],0x77
  404052:	outs   dx,BYTE PTR ds:[esi]
  404053:	and    BYTE PTR [ebp+0x72],ah
  404056:	jb     0x4040c7
  404058:	jb     0x40405a
  40405a:	add    BYTE PTR [eax],al
  40405c:	pop    edi
  40405d:	ins    DWORD PTR es:[edi],dx
  40405e:	popa   
  40405f:	je     0x4040c9
  404061:	gs jb  0x4040d6
  404064:	sub    BYTE PTR [ecx],ch
  404066:	cmp    ah,BYTE PTR [eax]
  404068:	and    eax,0x6e692073
  40406d:	and    BYTE PTR ds:0x67252873,ah
  404073:	sub    al,0x20
  404075:	and    eax,0x20202967
  40407a:	sub    BYTE PTR [edx+0x65],dh
  40407d:	je     0x4040f5
  40407f:	popa   
  404080:	ins    BYTE PTR es:[edi],dx
  404081:	cmp    eax,0xa296725
  404086:	add    BYTE PTR [eax],al
  404088:	inc    ecx
  404089:	jb     0x4040f2
  40408b:	jne    0x4040fa
  40408d:	outs   dx,BYTE PTR gs:[esi]
  40408f:	je     0x4040b1
  404091:	outs   dx,DWORD PTR fs:[esi]
  404093:	ins    DWORD PTR es:[edi],dx
  404094:	popa   
  404095:	imul   ebp,DWORD PTR [esi+0x20],0x6f727265
  40409c:	jb     0x4040be
  40409e:	sub    BYTE PTR [edi+ecx*2+0x4d],al
  4040a2:	inc    ecx
  4040a3:	dec    ecx
  4040a4:	dec    esi
  4040a5:	sub    DWORD PTR [eax],eax
  4040a7:	inc    ecx
  4040a8:	jb     0x404111
  4040aa:	jne    0x404119
  4040ac:	outs   dx,BYTE PTR gs:[esi]
  4040ae:	je     0x4040d0
  4040b0:	jae    0x40411b
  4040b2:	outs   dx,BYTE PTR ds:[esi]
  4040b3:	addr16 jne 0x404122
  4040b6:	popa   
  4040b7:	jb     0x404122
  4040b9:	je     0x404134
  4040bb:	and    BYTE PTR [eax],ch
  4040bd:	push   ebx
  4040be:	dec    ecx
  4040bf:	inc    edi
  4040c0:	dec    esi
  4040c1:	sub    DWORD PTR [eax],eax
  4040c3:	add    BYTE PTR [edi+0x76],cl
  4040c6:	gs jb  0x40412f
  4040c9:	ins    BYTE PTR es:[edi],dx
  4040ca:	outs   dx,DWORD PTR ds:[esi]
  4040cb:	ja     0x4040ed
  4040cd:	jb     0x404130
  4040cf:	outs   dx,BYTE PTR ds:[esi]
  4040d0:	and    BYTE PTR gs:[di+0x72],ah
  4040d5:	jb     0x404146
  4040d7:	jb     0x4040f9
  4040d9:	sub    BYTE PTR [edi+0x56],cl
  4040dc:	inc    ebp
  4040dd:	push   edx
  4040de:	inc    esi
  4040df:	dec    esp
  4040e0:	dec    edi
  4040e1:	push   edi
  4040e2:	sub    DWORD PTR [eax],eax
  4040e4:	push   esp
  4040e5:	push   0x65722065
  4040ea:	jae    0x404161
  4040ec:	ins    BYTE PTR es:[edi],dx
  4040ed:	je     0x40410f
  4040ef:	imul   esi,DWORD PTR [ebx+0x20],0x206f6f74
  4040f6:	jae    0x404165
  4040f8:	popa   
  4040f9:	ins    BYTE PTR es:[edi],dx
  4040fa:	ins    BYTE PTR es:[edi],dx
  4040fb:	and    BYTE PTR [edi+ebp*2+0x20],dh
  4040ff:	bound  esp,QWORD PTR [ebp+0x20]
  404102:	jb     0x404169
  404104:	jo     0x404178
  404106:	gs jae 0x40416e
  404109:	outs   dx,BYTE PTR ds:[esi]
  40410a:	je     0x404171
  40410c:	and    BYTE PTR fs:[eax],ch
  40410f:	push   ebp
  404110:	dec    esi
  404111:	inc    esp
  404112:	inc    ebp
  404113:	push   edx
  404114:	inc    esi
  404115:	dec    esp
  404116:	dec    edi
  404117:	push   edi
  404118:	sub    DWORD PTR [eax],eax
  40411a:	add    BYTE PTR [eax],al
  40411c:	push   esp
  40411d:	outs   dx,DWORD PTR ds:[esi]
  40411e:	je     0x404181
  404120:	ins    BYTE PTR es:[edi],dx
  404121:	and    BYTE PTR [edi+ebp*2+0x73],ch
  404125:	jae    0x404147
  404127:	outs   dx,DWORD PTR ds:[esi]
  404128:	data16 and BYTE PTR [ebx+0x69],dh
  40412c:	outs   dx,BYTE PTR ds:[si]
  40412e:	imul   esp,DWORD PTR [esi+0x69],0x636e6163
  404135:	and    BYTE PTR gs:[eax],ch
  404138:	push   esp
  404139:	dec    esp
  40413a:	dec    edi
  40413b:	push   ebx
  40413c:	push   ebx
  40413d:	sub    DWORD PTR [eax],eax
  40413f:	add    BYTE PTR [eax+0x61],dl
  404142:	jb     0x4041b8
  404144:	imul   esp,DWORD PTR [ecx+0x6c],0x736f6c20
  40414b:	jae    0x40416d
  40414d:	outs   dx,DWORD PTR ds:[esi]
  40414e:	data16 and BYTE PTR [ebx+0x69],dh
  404152:	outs   dx,BYTE PTR ds:[si]
  404154:	imul   esp,DWORD PTR [esi+0x69],0x636e6163
  40415b:	and    BYTE PTR gs:[eax],ch
  40415e:	push   eax
  40415f:	dec    esp
  404160:	dec    edi
  404161:	push   ebx
  404162:	push   ebx
  404163:	sub    DWORD PTR [eax],eax
  404165:	add    BYTE PTR [eax],al
  404167:	add    BYTE PTR [eax-0x58ffbfc0],cl
  40416d:	inc    eax
  40416e:	inc    eax
  40416f:	add    ah,al
  404171:	inc    eax
  404172:	inc    eax
  404173:	add    ah,ah
  404175:	inc    eax
  404176:	inc    eax
  404177:	add    BYTE PTR [ecx+eax*2],bl
  40417a:	inc    eax
  40417b:	add    BYTE PTR [eax+0x41],al
  40417e:	inc    eax
  40417f:	add    BYTE PTR [ebp+0x69],cl
  404182:	outs   dx,BYTE PTR ds:[esi]
  404183:	addr16 ja 0x4041b3
  404186:	ja     0x4041be
  404188:	xor    al,0x20
  40418a:	jb     0x404201
  40418c:	outs   dx,BYTE PTR ds:[esi]
  40418d:	je     0x4041f8
  40418f:	ins    DWORD PTR es:[edi],dx
  404190:	and    BYTE PTR gs:[esi+0x61],ah
  404194:	imul   ebp,DWORD PTR [ebp+esi*2+0x72],0xa3a65
  40419c:	inc    ecx
  40419d:	fs fs jb 0x404206
  4041a1:	jae    0x404216
  4041a3:	and    BYTE PTR ds:0x61682070,ah
  4041a9:	jae    0x4041cb
  4041ab:	outs   dx,BYTE PTR ds:[esi]
  4041ac:	outs   dx,DWORD PTR ds:[esi]
  4041ad:	and    BYTE PTR [ecx+0x6d],ch
  4041b0:	popa   
  4041b1:	addr16 gs sub eax,0x74636573
  4041b8:	imul   ebp,DWORD PTR [edi+0x6e],0x56202000
  4041bf:	imul   esi,DWORD PTR [edx+0x74],0x516c6175
  4041c6:	jne    0x40422d
  4041c8:	jb     0x404243
  4041ca:	and    BYTE PTR [esi+0x61],ah
  4041cd:	imul   ebp,DWORD PTR [ebp+eiz*2+0x64],0x726f6620
  4041d5:	and    BYTE PTR ds:0x79622064,ah
  4041db:	je     0x404242
  4041dd:	jae    0x4041ff
  4041df:	popa   
  4041e0:	je     0x404202
  4041e2:	popa   
  4041e3:	fs fs jb 0x40424c
  4041e7:	jae    0x40425c
  4041e9:	and    BYTE PTR ds:0x70,ah
  4041ef:	add    BYTE PTR [eax],ah
  4041f1:	and    BYTE PTR [esi+0x69],dl
  4041f4:	jb     0x40426a
  4041f6:	jne    0x404259
  4041f8:	ins    BYTE PTR es:[edi],dx
  4041f9:	push   eax
  4041fa:	jb     0x40426b
  4041fc:	je     0x404263
  4041fe:	arpl   WORD PTR [eax+eiz*1+0x66],si
  404202:	popa   
  404203:	imul   ebp,DWORD PTR [ebp+eiz*2+0x64],0x74697720
  40420b:	push   0x646f6320
  404210:	and    BYTE PTR gs:[eax],dh
  404213:	js     0x40423a
  404215:	js     0x404217
  404217:	add    BYTE PTR [eax],ah
  404219:	and    BYTE PTR [ebp+0x6e],dl
  40421c:	imul   ebp,DWORD PTR [esi+0x6f],0x77
  404220:	outs   dx,BYTE PTR ds:[esi]
  404221:	and    BYTE PTR [eax+0x73],dh
  404224:	gs jne 0x40428b
  404227:	outs   dx,DWORD PTR ds:[esi]
  404228:	and    BYTE PTR [edx+0x65],dh
  40422b:	ins    BYTE PTR es:[edi],dx
  40422c:	outs   dx,DWORD PTR ds:[esi]
  40422d:	arpl   WORD PTR [ecx+0x74],sp
  404230:	imul   ebp,DWORD PTR [edi+0x6e],0x6f727020
  404237:	je     0x4042a8
  404239:	arpl   WORD PTR [edi+0x6c],bp
  40423c:	and    BYTE PTR [esi+0x65],dh
  40423f:	jb     0x4042b4
  404241:	imul   ebp,DWORD PTR [edi+0x6e],0x2e642520
  404248:	or     al,BYTE PTR [eax]
  40424a:	add    BYTE PTR [eax],al
  40424c:	and    BYTE PTR [eax],ah
  40424e:	push   ebp
  40424f:	outs   dx,BYTE PTR ds:[esi]
  404250:	imul   ebp,DWORD PTR [esi+0x6f],0x77
  404254:	outs   dx,BYTE PTR ds:[esi]
  404255:	and    BYTE PTR [eax+0x73],dh
  404258:	gs jne 0x4042bf
  40425b:	outs   dx,DWORD PTR ds:[esi]
  40425c:	and    BYTE PTR [edx+0x65],dh
  40425f:	ins    BYTE PTR es:[edi],dx
  404260:	outs   dx,DWORD PTR ds:[esi]
  404261:	arpl   WORD PTR [ecx+0x74],sp
  404264:	imul   ebp,DWORD PTR [edi+0x6e],0x74696220
  40426b:	and    BYTE PTR [ebx+0x69],dh
  40426e:	jp     0x4042d5
  404270:	and    BYTE PTR ds:0xa2e64,ah
  404276:	add    BYTE PTR [eax],al
  404278:	ins    DWORD PTR es:[edi],dx
  404279:	add    BYTE PTR [ebx+0x0],dh
  40427c:	jbe    0x40427e
  40427e:	arpl   WORD PTR [eax],ax
  404280:	jb     0x404282
  404282:	je     0x404284
  404284:	add    BYTE PTR cs:[eax+eax*1+0x6c],ah
  404289:	add    BYTE PTR [eax+eax*1+0x0],ch
  40428d:	add    BYTE PTR [eax],al
  40428f:	add    BYTE PTR [eax+0x53],al
  404292:	inc    eax
  404293:	add    BYTE PTR [eax+0x50],ah
  404296:	inc    eax
	...

Disassembly of section .bss:

00405000 <.bss>:
	...

Disassembly of section .idata:

00406000 <.idata>:
  406000:	push   eax
  406001:	pusha  
	...
  40600a:	add    BYTE PTR [eax],al
  40600c:	clc    
  40600d:	add    BYTE PTR gs:[eax],al
  406010:	cmp    al,0x61
  406012:	add    BYTE PTR [eax],al
  406014:	mov    eax,0x60
  406019:	add    BYTE PTR [eax],al
  40601b:	add    BYTE PTR [eax],al
  40601d:	add    BYTE PTR [eax],al
  40601f:	add    BYTE PTR [esi+eiz*2],dl
  406022:	add    BYTE PTR [eax],al
  406024:	movs   BYTE PTR es:[edi],BYTE PTR ds:[esi]
  406025:	popa   
  406026:	add    BYTE PTR [eax],al
  406028:	enter  0x60,0x0
	...
  406034:	nop
  406035:	data16 add BYTE PTR [eax],al
  406038:	mov    ah,0x61
	...
  40604e:	add    BYTE PTR [eax],al
  406050:	sub    BYTE PTR [edx+0x0],ah
  406053:	add    BYTE PTR [eax+0x62],al
  406056:	add    BYTE PTR [eax],al
  406058:	pop    eax
  406059:	bound  eax,QWORD PTR [eax]
  40605b:	add    BYTE PTR [edx+eiz*2+0x0],ch
  40605f:	add    BYTE PTR [edx-0x67ffff9e],al
  406065:	bound  eax,QWORD PTR [eax]
  406067:	add    BYTE PTR [edx+eiz*2+0x62bc0000],ch
  40606e:	add    BYTE PTR [eax],al
  406070:	shl    BYTE PTR [edx+0x0],1
  406073:	add    dl,ah
  406075:	bound  eax,QWORD PTR [eax]
  406077:	add    ah,dh
  406079:	bound  eax,QWORD PTR [eax]
  40607b:	add    BYTE PTR [esi],cl
  40607d:	arpl   WORD PTR [eax],ax
  40607f:	add    BYTE PTR [esi],bl
  406081:	arpl   WORD PTR [eax],ax
  406083:	add    BYTE PTR [esi],dh
  406085:	arpl   WORD PTR [eax],ax
  406087:	add    BYTE PTR [edx+0x63],dl
  40608a:	add    BYTE PTR [eax],al
  40608c:	jo     0x4060f1
  40608e:	add    BYTE PTR [eax],al
  406090:	mov    BYTE PTR [ebx+0x0],ah
  406093:	add    BYTE PTR [eax-0x4dffff9d],bl
  406099:	arpl   WORD PTR [eax],ax
  40609b:	add    al,dl
  40609d:	arpl   WORD PTR [eax],ax
  40609f:	add    al,bl
  4060a1:	arpl   WORD PTR [eax],ax
  4060a3:	add    ah,ch
  4060a5:	arpl   WORD PTR [eax],ax
  4060a7:	add    dl,bh
  4060a9:	arpl   WORD PTR [eax],ax
  4060ab:	add    BYTE PTR [esi],dl
  4060ad:	add    BYTE PTR fs:[eax],al
  4060b0:	sub    BYTE PTR [eax+eax*1+0x0],ah
  4060b4:	add    BYTE PTR [eax],al
  4060b6:	add    BYTE PTR [eax],al
  4060b8:	cmp    BYTE PTR [eax+eax*1+0x0],ah
  4060bc:	inc    edx
  4060bd:	add    BYTE PTR fs:[eax],al
  4060c0:	dec    esi
  4060c1:	add    BYTE PTR fs:[eax],al
  4060c4:	add    BYTE PTR [eax],al
  4060c6:	add    BYTE PTR [eax],al
  4060c8:	pop    eax
  4060c9:	add    BYTE PTR fs:[eax],al
  4060cc:	data16 add BYTE PTR fs:[eax],al
  4060d0:	jbe    0x406136
  4060d2:	add    BYTE PTR [eax],al
  4060d4:	and    BYTE PTR [eax+eax*1+0x0],0x92
  4060d9:	add    BYTE PTR fs:[eax],al
  4060dc:	movs   BYTE PTR es:[edi],BYTE PTR ds:[esi]
  4060dd:	add    BYTE PTR fs:[eax],al
  4060e0:	mov    eax,0xc2000064
  4060e5:	add    BYTE PTR fs:[eax],al
  4060e8:	shl    BYTE PTR [eax+eax*1+0x0],1
  4060ec:	fisub  DWORD PTR [eax+eax*1+0x0]
  4060f0:	in     al,0x64
  4060f2:	add    BYTE PTR [eax],al
  4060f4:	lock add BYTE PTR fs:[eax],al
  4060f8:	clc    
  4060f9:	add    BYTE PTR fs:[eax],al
  4060fc:	add    BYTE PTR [ebp+0x0],ah
  4060ff:	add    BYTE PTR [edx],cl
  406101:	add    BYTE PTR gs:[eax],al
  406104:	adc    al,0x65
  406106:	add    BYTE PTR [eax],al
  406108:	sbb    al,0x65
  40610a:	add    BYTE PTR [eax],al
  40610c:	es add BYTE PTR gs:[eax],al
  406110:	cs add BYTE PTR gs:[eax],al
  406114:	cmp    BYTE PTR [ebp+0x0],ah
  406117:	add    BYTE PTR [eax+0x65],al
  40611a:	add    BYTE PTR [eax],al
  40611c:	dec    edx
  40611d:	add    BYTE PTR gs:[eax],al
  406120:	push   esp
  406121:	add    BYTE PTR gs:[eax],al
  406124:	pop    esi
  406125:	add    BYTE PTR gs:[eax],al
  406128:	push   0x72000065
  40612d:	add    BYTE PTR gs:[eax],al
  406130:	jl     0x406197
  406132:	add    BYTE PTR [eax],al
  406134:	xchg   BYTE PTR [ebp+0x0],ah
  406137:	add    BYTE PTR [eax],al
  406139:	add    BYTE PTR [eax],al
  40613b:	add    BYTE PTR [eax],ch
  40613d:	bound  eax,QWORD PTR [eax]
  40613f:	add    BYTE PTR [eax+0x62],al
  406142:	add    BYTE PTR [eax],al
  406144:	pop    eax
  406145:	bound  eax,QWORD PTR [eax]
  406147:	add    BYTE PTR [edx+eiz*2+0x0],ch
  40614b:	add    BYTE PTR [edx-0x67ffff9e],al
  406151:	bound  eax,QWORD PTR [eax]
  406153:	add    BYTE PTR [edx+eiz*2+0x62bc0000],ch
  40615a:	add    BYTE PTR [eax],al
  40615c:	shl    BYTE PTR [edx+0x0],1
  40615f:	add    dl,ah
  406161:	bound  eax,QWORD PTR [eax]
  406163:	add    ah,dh
  406165:	bound  eax,QWORD PTR [eax]
  406167:	add    BYTE PTR [esi],cl
  406169:	arpl   WORD PTR [eax],ax
  40616b:	add    BYTE PTR [esi],bl
  40616d:	arpl   WORD PTR [eax],ax
  40616f:	add    BYTE PTR [esi],dh
  406171:	arpl   WORD PTR [eax],ax
  406173:	add    BYTE PTR [edx+0x63],dl
  406176:	add    BYTE PTR [eax],al
  406178:	jo     0x4061dd
  40617a:	add    BYTE PTR [eax],al
  40617c:	mov    BYTE PTR [ebx+0x0],ah
  40617f:	add    BYTE PTR [eax-0x4dffff9d],bl
  406185:	arpl   WORD PTR [eax],ax
  406187:	add    al,dl
  406189:	arpl   WORD PTR [eax],ax
  40618b:	add    al,bl
  40618d:	arpl   WORD PTR [eax],ax
  40618f:	add    ah,ch
  406191:	arpl   WORD PTR [eax],ax
  406193:	add    dl,bh
  406195:	arpl   WORD PTR [eax],ax
  406197:	add    BYTE PTR [esi],dl
  406199:	add    BYTE PTR fs:[eax],al
  40619c:	sub    BYTE PTR [eax+eax*1+0x0],ah
  4061a0:	add    BYTE PTR [eax],al
  4061a2:	add    BYTE PTR [eax],al
  4061a4:	cmp    BYTE PTR [eax+eax*1+0x0],ah
  4061a8:	inc    edx
  4061a9:	add    BYTE PTR fs:[eax],al
  4061ac:	dec    esi
  4061ad:	add    BYTE PTR fs:[eax],al
  4061b0:	add    BYTE PTR [eax],al
  4061b2:	add    BYTE PTR [eax],al
  4061b4:	pop    eax
  4061b5:	add    BYTE PTR fs:[eax],al
  4061b8:	data16 add BYTE PTR fs:[eax],al
  4061bc:	jbe    0x406222
  4061be:	add    BYTE PTR [eax],al
  4061c0:	and    BYTE PTR [eax+eax*1+0x0],0x92
  4061c5:	add    BYTE PTR fs:[eax],al
  4061c8:	movs   BYTE PTR es:[edi],BYTE PTR ds:[esi]
  4061c9:	add    BYTE PTR fs:[eax],al
  4061cc:	mov    eax,0xc2000064
  4061d1:	add    BYTE PTR fs:[eax],al
  4061d4:	shl    BYTE PTR [eax+eax*1+0x0],1
  4061d8:	fisub  DWORD PTR [eax+eax*1+0x0]
  4061dc:	in     al,0x64
  4061de:	add    BYTE PTR [eax],al
  4061e0:	lock add BYTE PTR fs:[eax],al
  4061e4:	clc    
  4061e5:	add    BYTE PTR fs:[eax],al
  4061e8:	add    BYTE PTR [ebp+0x0],ah
  4061eb:	add    BYTE PTR [edx],cl
  4061ed:	add    BYTE PTR gs:[eax],al
  4061f0:	adc    al,0x65
  4061f2:	add    BYTE PTR [eax],al
  4061f4:	sbb    al,0x65
  4061f6:	add    BYTE PTR [eax],al
  4061f8:	es add BYTE PTR gs:[eax],al
  4061fc:	cs add BYTE PTR gs:[eax],al
  406200:	cmp    BYTE PTR [ebp+0x0],ah
  406203:	add    BYTE PTR [eax+0x65],al
  406206:	add    BYTE PTR [eax],al
  406208:	dec    edx
  406209:	add    BYTE PTR gs:[eax],al
  40620c:	push   esp
  40620d:	add    BYTE PTR gs:[eax],al
  406210:	pop    esi
  406211:	add    BYTE PTR gs:[eax],al
  406214:	push   0x72000065
  406219:	add    BYTE PTR gs:[eax],al
  40621c:	jl     0x406283
  40621e:	add    BYTE PTR [eax],al
  406220:	xchg   BYTE PTR [ebp+0x0],ah
  406223:	add    BYTE PTR [eax],al
  406225:	add    BYTE PTR [eax],al
  406227:	add    ah,al
  406229:	add    BYTE PTR [ebp+eiz*2+0x6c],al
  40622d:	gs je  0x406295
  406230:	inc    ebx
  406231:	jb     0x40629c
  406233:	je     0x40629e
  406235:	arpl   WORD PTR [ecx+0x6c],sp
  406238:	push   ebx
  406239:	arpl   WORD PTR gs:[ecx+ebp*2+0x6f],si
  40623e:	outs   dx,BYTE PTR ds:[esi]
  40623f:	add    bh,bl
  406241:	add    BYTE PTR [ebp+0x6e],al
  406244:	je     0x4062ab
  406246:	jb     0x40628b
  406248:	jb     0x4062b3
  40624a:	je     0x4062b5
  40624c:	arpl   WORD PTR [ecx+0x6c],sp
  40624f:	push   ebx
  406250:	arpl   WORD PTR gs:[ecx+ebp*2+0x6f],si
  406255:	outs   dx,BYTE PTR ds:[esi]
  406256:	add    BYTE PTR [eax],al
  406258:	mov    cl,0x1
  40625a:	inc    edi
  40625b:	gs je  0x4062a1
  40625e:	jne    0x4062d2
  406260:	jb     0x4062c7
  406262:	outs   dx,BYTE PTR ds:[esi]
  406263:	je     0x4062b5
  406265:	jb     0x4062d6
  406267:	arpl   WORD PTR [ebp+0x73],sp
  40626a:	jae    0x40626c
  40626c:	mov    dl,0x1
  40626e:	inc    edi
  40626f:	gs je  0x4062b5
  406272:	jne    0x4062e6
  406274:	jb     0x4062db
  406276:	outs   dx,BYTE PTR ds:[esi]
  406277:	je     0x4062c9
  406279:	jb     0x4062ea
  40627b:	arpl   WORD PTR [ebp+0x73],sp
  40627e:	jae    0x4062c9
  406280:	add    BYTE PTR fs:[ebp+0x74654701],dh
  406287:	inc    ebx
  406288:	jne    0x4062fc
  40628a:	jb     0x4062f1
  40628c:	outs   dx,BYTE PTR ds:[esi]
  40628d:	je     0x4062e3
  40628f:	push   0x64616572
  406294:	dec    ecx
  406295:	add    BYTE PTR fs:[eax],al
  406298:	in     al,0x1
  40629a:	inc    edi
  40629b:	gs je  0x4062e4
  40629e:	jne    0x40630c
  4062a0:	ins    BYTE PTR es:[edi],dx
  4062a1:	push   eax
  4062a2:	popa   
  4062a3:	je     0x40630d
  4062a5:	dec    esi
  4062a6:	popa   
  4062a7:	ins    DWORD PTR es:[edi],dx
  4062a8:	gs inc ecx
  4062aa:	add    BYTE PTR [eax],al
  4062ac:	out    dx,al
  4062ad:	add    DWORD PTR [edi+0x65],eax
  4062b0:	je     0x4062fe
  4062b2:	popa   
  4062b3:	jae    0x406329
  4062b5:	inc    ebp
  4062b6:	jb     0x40632a
  4062b8:	outs   dx,DWORD PTR ds:[esi]
  4062b9:	jb     0x4062bb
  4062bb:	add    dh,bh
  4062bd:	add    DWORD PTR [edi+0x65],eax
  4062c0:	je     0x40630f
  4062c2:	outs   dx,DWORD PTR ds:[esi]
  4062c3:	fs jne 0x406332
  4062c6:	gs dec eax
  4062c8:	popa   
  4062c9:	outs   dx,BYTE PTR ds:[esi]
  4062ca:	fs ins BYTE PTR es:[edi],dx
  4062cc:	gs inc ecx
  4062ce:	add    BYTE PTR [eax],al
  4062d0:	sub    DWORD PTR [edx],eax
  4062d2:	inc    edi
  4062d3:	gs je  0x406326
  4062d6:	jb     0x406347
  4062d8:	arpl   WORD PTR [ecx+0x64],ax
  4062db:	fs jb  0x406343
  4062de:	jae    0x406353
  4062e0:	add    BYTE PTR [eax],al
  4062e2:	inc    esp
  4062e3:	add    al,BYTE PTR [edi+0x65]
  4062e6:	je     0x40633b
  4062e8:	je     0x40634b
  4062ea:	jb     0x406360
  4062ec:	jne    0x40635e
  4062ee:	dec    ecx
  4062ef:	outs   dx,BYTE PTR ds:[esi]
  4062f0:	outs   dx,WORD PTR ds:[esi]
  4062f2:	inc    ecx
  4062f3:	add    BYTE PTR [ebx+0x2],bl
  4062f6:	inc    edi
  4062f7:	gs je  0x40634d
  4062fa:	jns    0x40636f
  4062fc:	je     0x406363
  4062fe:	ins    DWORD PTR es:[edi],dx
  4062ff:	push   esp
  406300:	imul   ebp,DWORD PTR [ebp+0x65],0x69467341
  406307:	ins    BYTE PTR es:[edi],dx
  406308:	gs push esp
  40630a:	imul   ebp,DWORD PTR [ebp+0x65],0x47027300
  406311:	gs je  0x406368
  406314:	imul   esp,DWORD PTR [ebx+0x6b],0x6e756f43
  40631b:	je     0x40631d
  40631d:	add    BYTE PTR [edx+eax*1+0x56746547],al
  406324:	outs   dx,DWORD PTR ds:[esi]
  406325:	ins    BYTE PTR es:[edi],dx
  406326:	jne    0x406395
  406328:	gs dec ecx
  40632a:	outs   dx,BYTE PTR ds:[esi]
  40632b:	outs   dx,WORD PTR ds:[esi]
  40632d:	jb     0x40639c
  40632f:	popa   
  406330:	je     0x40639b
  406332:	outs   dx,DWORD PTR ds:[esi]
  406333:	outs   dx,BYTE PTR ds:[esi]
  406334:	inc    ecx
  406335:	add    dh,al
  406337:	add    cl,BYTE PTR [ecx+0x6e]
  40633a:	imul   esi,DWORD PTR [ecx+ebp*2+0x61],0x657a696c
  406342:	inc    ebx
  406343:	jb     0x4063ae
  406345:	je     0x4063b0
  406347:	arpl   WORD PTR [ecx+0x6c],sp
  40634a:	push   ebx
  40634b:	arpl   WORD PTR gs:[ecx+ebp*2+0x6f],si
  406350:	outs   dx,BYTE PTR ds:[esi]
  406351:	add    ch,cl
  406353:	add    cl,BYTE PTR [ecx+0x6e]
  406356:	je     0x4063bd
  406358:	jb     0x4063c6
  40635a:	outs   dx,DWORD PTR ds:[esi]
  40635b:	arpl   WORD PTR [ebx+0x65],bp
  40635e:	fs inc ebx
  406360:	outs   dx,DWORD PTR ds:[esi]
  406361:	ins    DWORD PTR es:[edi],dx
  406362:	jo     0x4063c5
  406364:	jb     0x4063cb
  406366:	inc    ebp
  406367:	js     0x4063cc
  406369:	push   0x65676e61
  40636e:	add    BYTE PTR [eax],al
  406370:	add    DWORD PTR [ebx],eax
  406372:	dec    esp
  406373:	gs popa 
  406375:	jbe    0x4063dc
  406377:	inc    ebx
  406378:	jb     0x4063e3
  40637a:	je     0x4063e5
  40637c:	arpl   WORD PTR [ecx+0x6c],sp
  40637f:	push   ebx
  406380:	arpl   WORD PTR gs:[ecx+ebp*2+0x6f],si
  406385:	outs   dx,BYTE PTR ds:[esi]
  406386:	add    BYTE PTR [eax],al
  406388:	push   es
  406389:	add    ecx,DWORD PTR [edi+ebp*2+0x61]
  40638d:	fs dec esp
  40638f:	imul   esp,DWORD PTR [edx+0x72],0x57797261
  406396:	add    BYTE PTR [eax],al
  406398:	add    edx,DWORD PTR [bx+di+0x75]
  40639c:	gs jb  0x406418
  40639f:	push   eax
  4063a0:	gs jb  0x406409
  4063a3:	outs   dx,DWORD PTR ds:[esi]
  4063a4:	jb     0x406413
  4063a6:	popa   
  4063a7:	outs   dx,BYTE PTR ds:[esi]
  4063a8:	arpl   WORD PTR [ebp+0x43],sp
  4063ab:	outs   dx,DWORD PTR ds:[esi]
  4063ac:	jne    0x40641c
  4063ae:	je     0x406415
  4063b0:	jb     0x4063b2
  4063b2:	xor    DWORD PTR [ebx+edx*2],eax
  4063b5:	gs je  0x40640d
  4063b8:	outs   dx,BYTE PTR ds:[esi]
  4063b9:	push   0x6c646e61
  4063be:	gs fs inc ebp
  4063c1:	js     0x406426
  4063c3:	gs jo  0x40643a
  4063c6:	imul   ebp,DWORD PTR [edi+0x6e],0x746c6946
  4063cd:	gs jb  0x4063d0
  4063d0:	cmp    eax,0x656c5304
  4063d5:	gs jo  0x4063d8
  4063d8:	dec    ecx
  4063d9:	add    al,0x54
  4063db:	gs jb  0x40644b
  4063de:	imul   ebp,DWORD PTR [esi+0x61],0x72506574
  4063e5:	outs   dx,DWORD PTR ds:[esi]
  4063e6:	arpl   WORD PTR [ebp+0x73],sp
  4063e9:	jae    0x4063eb
  4063eb:	add    BYTE PTR [eax+0x4],dl
  4063ee:	push   esp
  4063ef:	ins    BYTE PTR es:[edi],dx
  4063f0:	jae    0x406439
  4063f2:	gs je  0x40644b
  4063f5:	popa   
  4063f6:	ins    BYTE PTR es:[edi],dx
  4063f7:	jne    0x40645e
  4063f9:	add    BYTE PTR [ebp+0x4],bl
  4063fc:	push   ebp
  4063fd:	outs   dx,BYTE PTR ds:[esi]
  4063fe:	push   0x6c646e61
  406403:	gs fs inc ebp
  406406:	js     0x40646b
  406408:	gs jo  0x40647f
  40640b:	imul   ebp,DWORD PTR [edi+0x6e],0x746c6946
  406412:	gs jb  0x406415
  406415:	add    BYTE PTR [ebp+0x4],bh
  406418:	push   esi
  406419:	imul   esi,DWORD PTR [edx+0x74],0x506c6175
  406420:	jb     0x406491
  406422:	je     0x406489
  406424:	arpl   WORD PTR [eax+eax*1+0x0],si
  406428:	add    BYTE PTR [esi+edx*2],0x69
  40642c:	jb     0x4064a2
  40642e:	jne    0x406491
  406430:	ins    BYTE PTR es:[edi],dx
  406431:	push   ecx
  406432:	jne    0x406499
  406434:	jb     0x4064af
  406436:	add    BYTE PTR [eax],al
  406438:	sbb    al,BYTE PTR [eax]
  40643a:	pop    edi
  40643b:	imul   bp,WORD PTR [ebp+eiz*2+0x6e],0x6f
  406442:	inc    eax
  406443:	add    BYTE PTR [edi+0x73],bl
  406446:	gs je  0x4064b6
  406449:	outs   dx,DWORD PTR ds:[esi]
  40644a:	fs add BYTE PTR gs:[eax],al
  40644e:	dec    esi
  40644f:	add    BYTE PTR [edi+0x73],bl
  406452:	je     0x4064c6
  406454:	ins    BYTE PTR es:[edi],dx
  406455:	ja     0x4064c9
  406457:	add    BYTE PTR [eax],bh
  406459:	add    BYTE PTR [edi+0x5f],bl
  40645c:	fs ins BYTE PTR es:[edi],dx
  40645e:	ins    BYTE PTR es:[edi],dx
  40645f:	outs   dx,DWORD PTR ds:[esi]
  406460:	outs   dx,BYTE PTR ds:[esi]
  406461:	gs js  0x4064cd
  406464:	je     0x406466
  406466:	cmp    eax,DWORD PTR [eax]
  406468:	pop    edi
  406469:	pop    edi
  40646a:	addr16 gs je 0x4064db
  40646e:	popa   
  40646f:	imul   ebp,DWORD PTR [esi+0x61],0x736772
  406476:	cmp    al,0x0
  406478:	pop    edi
  406479:	pop    edi
  40647a:	imul   ebp,DWORD PTR [esi+0x69],0x766e6574
  406481:	add    BYTE PTR [ebp+0x0],al
  406484:	pop    edi
  406485:	pop    edi
  406486:	ins    BYTE PTR es:[edi],dx
  406487:	arpl   WORD PTR [edi+0x6e],bp
  40648a:	jbe    0x4064eb
  40648c:	imul   ebp,DWORD PTR [esi+0x69],0x69000074
  406493:	add    BYTE PTR [edi+0x5f],bl
  406496:	jae    0x4064fd
  406498:	je     0x4064f9
  40649a:	popa   
  40649b:	jo     0x40650d
  40649d:	pop    edi
  40649e:	je     0x406519
  4064a0:	jo     0x406507
  4064a2:	add    BYTE PTR [eax],al
  4064a4:	ins    BYTE PTR es:[edi],dx
  4064a5:	add    BYTE PTR [edi+0x5f],bl
  4064a8:	jae    0x40650f
  4064aa:	je     0x406521
  4064ac:	jae    0x406513
  4064ae:	jb     0x40651d
  4064b0:	popa   
  4064b1:	je     0x40651b
  4064b3:	gs jb  0x406528
  4064b6:	add    BYTE PTR [eax],al
  4064b8:	jp     0x4064ba
  4064ba:	pop    edi
  4064bb:	popa   
  4064bc:	arpl   WORD PTR [ebp+0x64],bp
  4064bf:	ins    BYTE PTR es:[edi],dx
  4064c0:	outs   dx,BYTE PTR ds:[esi]
  4064c1:	add    BYTE PTR [edi+0x6d615f00],cl
  4064c7:	jae    0x406530
  4064c9:	pop    edi
  4064ca:	gs js  0x406536
  4064cd:	je     0x4064cf
  4064cf:	add    BYTE PTR [eax+0x65635f00],ah
  4064d5:	js     0x406540
  4064d7:	je     0x4064d9
  4064d9:	add    ah,bh
  4064db:	add    BYTE PTR [edi+0x66],bl
  4064de:	ins    DWORD PTR es:[edi],dx
  4064df:	outs   dx,DWORD PTR ds:[esi]
  4064e0:	fs add BYTE PTR gs:[eax],al
  4064e4:	cmp    eax,0x6e695f01
  4064e9:	imul   esi,DWORD PTR [esp+esi*2+0x65],0x41006d72
  4064f1:	add    DWORD PTR [edi+0x69],ebx
  4064f4:	outs   dx,DWORD PTR ds:[esi]
  4064f5:	bound  eax,QWORD PTR [eax]
  4064f7:	add    BYTE PTR [ebp+0x6f6c5f01],ah
  4064fd:	arpl   WORD PTR [ebx+0x0],bp
  406500:	inc    edi
  406501:	add    bl,BYTE PTR [edi+0x6f]
  406504:	outs   dx,BYTE PTR ds:[esi]
  406505:	gs js  0x406571
  406508:	je     0x40650a
  40650a:	cmc    
  40650b:	add    bl,BYTE PTR [edi+0x75]
  40650e:	outs   dx,BYTE PTR ds:[esi]
  40650f:	ins    BYTE PTR es:[edi],dx
  406510:	outs   dx,DWORD PTR ds:[esi]
  406511:	arpl   WORD PTR [ebx+0x0],bp
  406514:	mov    ebp,0x6f626103
  406519:	jb     0x40658f
  40651b:	add    bl,cl
  40651d:	add    esp,DWORD PTR [ebx+0x61]
  406520:	ins    BYTE PTR es:[edi],dx
  406521:	ins    BYTE PTR es:[edi],dx
  406522:	outs   dx,DWORD PTR ds:[esi]
  406523:	arpl   WORD PTR [eax],ax
  406525:	add    ch,dl
  406527:	add    esp,DWORD PTR [ebp+0x78]
  40652a:	imul   esi,DWORD PTR [eax+eax*1+0x0],0x706603e5
  406532:	jb     0x40659d
  406534:	outs   dx,BYTE PTR ds:[esi]
  406535:	je     0x40659d
  406537:	add    ah,ch
  406539:	add    esp,DWORD PTR [esi+0x72]
  40653c:	gs add BYTE PTR gs:[eax],al
  406540:	test   DWORD PTR [ebx],0x69727766
  406546:	je     0x4065ad
  406548:	add    BYTE PTR [eax],al
  40654a:	and    al,0x4
  40654c:	ins    DWORD PTR es:[edi],dx
  40654d:	popa   
  40654e:	ins    BYTE PTR es:[edi],dx
  40654f:	ins    BYTE PTR es:[edi],dx
  406550:	outs   dx,DWORD PTR ds:[esi]
  406551:	arpl   WORD PTR [eax],ax
  406553:	add    BYTE PTR [esp+eax*1],ch
  406556:	ins    DWORD PTR es:[edi],dx
  406557:	gs ins DWORD PTR es:[edi],dx
  406559:	arpl   WORD PTR [eax+0x79],si
  40655c:	add    BYTE PTR [eax],al
  40655e:	dec    ecx
  40655f:	add    al,0x73
  406561:	imul   esp,DWORD PTR [edi+0x6e],0x6c61
  406568:	push   esp
  406569:	add    al,0x73
  40656b:	je     0x4065df
  40656d:	arpl   WORD PTR [eax+0x72],bp
  406570:	add    BYTE PTR [eax],al
  406572:	pop    ebp
  406573:	add    al,0x73
  406575:	je     0x4065e9
  406577:	ins    BYTE PTR es:[edi],dx
  406578:	outs   dx,BYTE PTR gs:[esi]
  40657a:	add    BYTE PTR [eax],al
  40657c:	pusha  
  40657d:	add    al,0x73
  40657f:	je     0x4065f3
  406581:	outs   dx,BYTE PTR ds:[esi]
  406582:	arpl   WORD PTR [ebp+0x70],bp
  406585:	add    BYTE PTR [eax+0x70667604],al
  40658b:	jb     0x4065f6
  40658d:	outs   dx,BYTE PTR ds:[esi]
  40658e:	je     0x4065f6
  406590:	add    BYTE PTR [eax],al
  406592:	add    BYTE PTR [eax],al
  406594:	add    BYTE PTR [eax+0x0],ah
  406597:	add    BYTE PTR [eax],al
  406599:	pusha  
  40659a:	add    BYTE PTR [eax],al
  40659c:	add    BYTE PTR [eax+0x0],ah
  40659f:	add    BYTE PTR [eax],al
  4065a1:	pusha  
  4065a2:	add    BYTE PTR [eax],al
  4065a4:	add    BYTE PTR [eax+0x0],ah
  4065a7:	add    BYTE PTR [eax],al
  4065a9:	pusha  
  4065aa:	add    BYTE PTR [eax],al
  4065ac:	add    BYTE PTR [eax+0x0],ah
  4065af:	add    BYTE PTR [eax],al
  4065b1:	pusha  
  4065b2:	add    BYTE PTR [eax],al
  4065b4:	add    BYTE PTR [eax+0x0],ah
  4065b7:	add    BYTE PTR [eax],al
  4065b9:	pusha  
  4065ba:	add    BYTE PTR [eax],al
  4065bc:	add    BYTE PTR [eax+0x0],ah
  4065bf:	add    BYTE PTR [eax],al
  4065c1:	pusha  
  4065c2:	add    BYTE PTR [eax],al
  4065c4:	add    BYTE PTR [eax+0x0],ah
  4065c7:	add    BYTE PTR [eax],al
  4065c9:	pusha  
  4065ca:	add    BYTE PTR [eax],al
  4065cc:	add    BYTE PTR [eax+0x0],ah
  4065cf:	add    BYTE PTR [eax],al
  4065d1:	pusha  
  4065d2:	add    BYTE PTR [eax],al
  4065d4:	add    BYTE PTR [eax+0x0],ah
  4065d7:	add    BYTE PTR [eax],al
  4065d9:	pusha  
  4065da:	add    BYTE PTR [eax],al
  4065dc:	add    BYTE PTR [eax+0x0],ah
  4065df:	add    BYTE PTR [eax],al
  4065e1:	pusha  
  4065e2:	add    BYTE PTR [eax],al
  4065e4:	add    BYTE PTR [eax+0x0],ah
  4065e7:	add    BYTE PTR [eax],al
  4065e9:	pusha  
  4065ea:	add    BYTE PTR [eax],al
  4065ec:	add    BYTE PTR [eax+0x0],ah
  4065ef:	add    BYTE PTR [eax],al
  4065f1:	pusha  
  4065f2:	add    BYTE PTR [eax],al
  4065f4:	add    BYTE PTR [eax+0x0],ah
  4065f7:	add    BYTE PTR [ebx+0x45],cl
  4065fa:	push   edx
  4065fb:	dec    esi
  4065fc:	inc    ebp
  4065fd:	dec    esp
  4065fe:	xor    esi,DWORD PTR [edx]
  406600:	cs fs ins BYTE PTR es:[edi],dx
  406603:	ins    BYTE PTR es:[edi],dx
  406604:	add    BYTE PTR [eax],al
  406606:	add    BYTE PTR [eax],al
  406608:	adc    al,0x60
  40660a:	add    BYTE PTR [eax],al
  40660c:	adc    al,0x60
  40660e:	add    BYTE PTR [eax],al
  406610:	adc    al,0x60
  406612:	add    BYTE PTR [eax],al
  406614:	ins    DWORD PTR es:[edi],dx
  406615:	jae    0x40668d
  406617:	arpl   WORD PTR [edx+0x74],si
  40661a:	cs fs ins BYTE PTR es:[edi],dx
  40661d:	ins    BYTE PTR es:[edi],dx
  40661e:	add    BYTE PTR [eax],al
  406620:	sub    BYTE PTR [eax+0x0],ah
  406623:	add    BYTE PTR [eax],ch
  406625:	pusha  
  406626:	add    BYTE PTR [eax],al
  406628:	sub    BYTE PTR [eax+0x0],ah
  40662b:	add    BYTE PTR [eax],ch
  40662d:	pusha  
  40662e:	add    BYTE PTR [eax],al
  406630:	sub    BYTE PTR [eax+0x0],ah
  406633:	add    BYTE PTR [eax],ch
  406635:	pusha  
  406636:	add    BYTE PTR [eax],al
  406638:	sub    BYTE PTR [eax+0x0],ah
  40663b:	add    BYTE PTR [eax],ch
  40663d:	pusha  
  40663e:	add    BYTE PTR [eax],al
  406640:	sub    BYTE PTR [eax+0x0],ah
  406643:	add    BYTE PTR [eax],ch
  406645:	pusha  
  406646:	add    BYTE PTR [eax],al
  406648:	sub    BYTE PTR [eax+0x0],ah
  40664b:	add    BYTE PTR [eax],ch
  40664d:	pusha  
  40664e:	add    BYTE PTR [eax],al
  406650:	sub    BYTE PTR [eax+0x0],ah
  406653:	add    BYTE PTR [eax],ch
  406655:	pusha  
  406656:	add    BYTE PTR [eax],al
  406658:	sub    BYTE PTR [eax+0x0],ah
  40665b:	add    BYTE PTR [eax],ch
  40665d:	pusha  
  40665e:	add    BYTE PTR [eax],al
  406660:	sub    BYTE PTR [eax+0x0],ah
  406663:	add    BYTE PTR [eax],ch
  406665:	pusha  
  406666:	add    BYTE PTR [eax],al
  406668:	sub    BYTE PTR [eax+0x0],ah
  40666b:	add    BYTE PTR [eax],ch
  40666d:	pusha  
  40666e:	add    BYTE PTR [eax],al
  406670:	sub    BYTE PTR [eax+0x0],ah
  406673:	add    BYTE PTR [eax],ch
  406675:	pusha  
  406676:	add    BYTE PTR [eax],al
  406678:	sub    BYTE PTR [eax+0x0],ah
  40667b:	add    BYTE PTR [eax],ch
  40667d:	pusha  
  40667e:	add    BYTE PTR [eax],al
  406680:	sub    BYTE PTR [eax+0x0],ah
  406683:	add    BYTE PTR [eax],ch
  406685:	pusha  
  406686:	add    BYTE PTR [eax],al
  406688:	sub    BYTE PTR [eax+0x0],ah
  40668b:	add    BYTE PTR [eax],ch
  40668d:	pusha  
  40668e:	add    BYTE PTR [eax],al
  406690:	ins    DWORD PTR es:[edi],dx
  406691:	jae    0x406709
  406693:	arpl   WORD PTR [edx+0x74],si
  406696:	cs fs ins BYTE PTR es:[edi],dx
  406699:	ins    BYTE PTR es:[edi],dx
	...

Disassembly of section .CRT:

00407000 <.CRT>:
  407000:	add    BYTE PTR [eax],al
  407002:	add    BYTE PTR [eax],al
  407004:	adc    BYTE PTR [eax],dl
  407006:	inc    eax
	...
  40700f:	add    BYTE PTR [eax+0x10],ah
  407012:	inc    eax
  407013:	add    BYTE PTR [eax+0x16],ah
  407016:	inc    eax
	...
  40701f:	add    al,dl
  407021:	adc    eax,0x15800040
  407026:	inc    eax
	...

Disassembly of section .tls:

00408000 <.tls>:
  408000:	sbb    DWORD PTR [eax-0x7fe3ffc0],eax
  408006:	inc    eax
  408007:	add    BYTE PTR [eax],dh
  408009:	push   eax
  40800a:	inc    eax
  40800b:	add    BYTE PTR [eax],ah
  40800d:	jo     0x40804f
	...
