
9c915242926dc9670f91177af0cd7ca492622a184de5af14a43d140800d775f0.exe:     file format pei-i386


Disassembly of section .text:

00402000 <.text>:
  402000:	mov    al,ds:0x89
  402005:	add    BYTE PTR [eax],al
  402007:	add    BYTE PTR [eax+0x0],cl
  40200a:	add    BYTE PTR [eax],al
  40200c:	add    al,BYTE PTR [eax]
  40200e:	add    eax,0x4d1400
  402013:	add    BYTE PTR [ebx+edi*1],ah
  402016:	add    BYTE PTR [eax],al
  402018:	or     eax,DWORD PTR [eax]
  40201a:	add    BYTE PTR [eax],al
  40201c:	push   ebp
  40201d:	add    BYTE PTR [eax],al
  40201f:	push   es
  402020:	clc    
  402021:	xor    al,0x0
  402023:	add    BYTE PTR [eax+ebx*1],bl
  402026:	add    BYTE PTR [eax],al
  402028:	push   eax
  402029:	and    BYTE PTR [eax],al
  40202b:	add    BYTE PTR [eax+0x0],al
	...
  40204d:	add    BYTE PTR [eax],al
  40204f:	add    dh,ah
  402051:	mov    DWORD PTR [ecx+0x3],ebp
  402054:	jge    0x401fe0
  402056:	ins    DWORD PTR es:[edi],dx
  402057:	test   al,0x41
  402059:	cdq    
  40205a:	or     eax,0x4dbea6f2
  40205f:	(bad)  
  402060:	shl    DWORD PTR [eax-0x5d],cl
  402063:	daa    
  402064:	jle    0x40207a
  402066:	and    ebx,DWORD PTR [edx+edx*4-0x62]
  40206a:	jl     0x402006
  40206c:	jl     0x40207c
  40206e:	cmp    DWORD PTR [ecx-0x33c92d2a],ebx
  402074:	std    
  402075:	aam    0x10
  402077:	stos   DWORD PTR es:[edi],eax
  402078:	or     ebx,edx
  40207a:	mov    eax,0xcb17f44
  40207f:	jg     0x402010
  402081:	xchg   esi,eax
  402082:	inc    ebp
  402083:	add    eax,0x1480fcdb
  402088:	lock loope 0x402088
  40208b:	xchg   ebp,eax
  40208c:	mov    es,WORD PTR [edi+0x4d]
  40208f:	sbb    cl,bl
  402091:	aam    0xf2
  402093:	sbb    eax,0xfe822501
  402098:	jge    0x402083
  40209a:	dec    esi
  40209b:	jb     0x402054
  40209d:	fistp  DWORD PTR [edx-0x7be3a893]
  4020a3:	out    dx,eax
  4020a4:	aad    0x42
  4020a6:	cmp    bh,dh
  4020a8:	call   0x2a12:0xd9fc37b4
  4020af:	pop    ecx
  4020b0:	fucomp st(7)
  4020b2:	(bad)
  4020b5:	push   0xfffffff4
  4020b7:	test   eax,0x41de7edd
  4020bc:	adc    DWORD PTR [eax-0x39],ecx
  4020bf:	outs   dx,DWORD PTR ds:[esi]
  4020c0:	adc    al,0x92
  4020c2:	or     DWORD PTR [ecx+0x74],ecx
  4020c5:	mov    eax,es
  4020c7:	jmp    FWORD PTR fs:[edi]
  4020ca:	iret   
  4020cb:	test   edi,0x1e307e1a
  4020d1:	add    ch,BYTE PTR [eax]
  4020d3:	sbb    DWORD PTR [eax],eax
  4020d5:	add    BYTE PTR [edx],cl
  4020d7:	sub    dl,BYTE PTR [ebx]
  4020d9:	xor    BYTE PTR [edx],al
  4020db:	add    BYTE PTR [ebx],dh
  4020dd:	add    BYTE PTR [eax],al
  4020df:	add    BYTE PTR [ecx],al
  4020e1:	add    BYTE PTR [eax],al
  4020e3:	adc    DWORD PTR [esi+0x1],edi
  4020e6:	add    BYTE PTR [eax],al
  4020e8:	add    al,0x14
  4020ea:	sub    BYTE PTR [edx],bl
  4020ec:	add    BYTE PTR [eax],al
  4020ee:	or     ch,BYTE PTR [eax+eiz*1]
  4020f1:	jb     0x4020f4
  4020f3:	add    BYTE PTR [eax],al
  4020f5:	jo     0x4020c7
  4020f7:	add    al,BYTE PTR [eax]
  4020f9:	add    BYTE PTR [edx],al
  4020fb:	sub    BYTE PTR [ebx],bl
  4020fd:	add    BYTE PTR [eax],al
  4020ff:	or     ch,BYTE PTR [edi+0x1c]
  402102:	add    BYTE PTR [eax],al
  402104:	or     dh,BYTE PTR [ebx+0x1d]
  402107:	add    BYTE PTR [eax],al
  402109:	or     cl,BYTE PTR [edx]
  40210b:	push   es
  40210c:	add    BYTE PTR [ecx],0x0
  40210f:	add    BYTE PTR [esi+edi*2],al
  402112:	add    DWORD PTR [eax],eax
  402114:	add    BYTE PTR [edx+ebp*1],al
  402117:	sbb    bh,BYTE PTR [esi+0x2]
  40211a:	add    BYTE PTR [eax],al
  40211c:	add    al,0x2a
  40211e:	push   ds
  40211f:	add    al,BYTE PTR [eax+0x4000002]
  402125:	sub    dl,BYTE PTR [esi+0x28]
  402128:	add    al,BYTE PTR [eax]
  40212a:	add    BYTE PTR [esi],al
  40212c:	jb     0x4020c6
  40212e:	add    BYTE PTR [eax],al
  402130:	jo     0x4021b0
  402132:	add    al,BYTE PTR [eax]
  402134:	add    BYTE PTR [edi+ebp*2],al
  402137:	push   ds
  402138:	add    BYTE PTR [eax],al
  40213a:	or     ch,BYTE PTR [edx]
  40213c:	push   esi
  40213d:	sub    BYTE PTR [edx],al
  40213f:	add    BYTE PTR [eax],al
  402141:	push   es
  402142:	jb     0x402114
  402144:	add    BYTE PTR [eax],al
  402146:	jo     0x4021c6
  402148:	add    al,BYTE PTR [eax]
  40214a:	add    BYTE PTR [edi+ebp*2],al
  40214d:	push   ds
  40214e:	add    BYTE PTR [eax],al
  402150:	or     ch,BYTE PTR [edx]
  402152:	push   esi
  402153:	sub    BYTE PTR [edx],al
  402155:	add    BYTE PTR [eax],al
  402157:	push   es
  402158:	jb     0x402158
  40215a:	add    BYTE PTR [eax],al
  40215c:	jo     0x4021dc
  40215e:	add    al,BYTE PTR [eax]
  402160:	add    BYTE PTR [edi+ebp*2],al
  402163:	push   ds
  402164:	add    BYTE PTR [eax],al
  402166:	or     ch,BYTE PTR [edx]
  402168:	push   esi
  402169:	sub    BYTE PTR [edx],al
  40216b:	add    BYTE PTR [eax],al
  40216d:	push   es
  40216e:	jb     0x4021a4
  402170:	add    DWORD PTR [eax],eax
  402172:	jo     0x4021f2
  402174:	add    al,BYTE PTR [eax]
  402176:	add    BYTE PTR [edi+ebp*2],al
  402179:	push   ds
  40217a:	add    BYTE PTR [eax],al
  40217c:	or     ch,BYTE PTR [edx]
  40217e:	push   esi
  40217f:	sub    BYTE PTR [edx],al
  402181:	add    BYTE PTR [eax],al
  402183:	push   es
  402184:	jb     0x4021ee
  402186:	add    DWORD PTR [eax],eax
  402188:	jo     0x402208
  40218a:	add    al,BYTE PTR [eax]
  40218c:	add    BYTE PTR [edi+ebp*2],al
  40218f:	push   ds
  402190:	add    BYTE PTR [eax],al
  402192:	or     ch,BYTE PTR [edx]
  402194:	push   esi
  402195:	sub    BYTE PTR [edx],al
  402197:	add    BYTE PTR [eax],al
  402199:	push   es
  40219a:	jb     0x402130
  40219c:	add    DWORD PTR [eax],eax
  40219e:	jo     0x40221e
  4021a0:	add    al,BYTE PTR [eax]
  4021a2:	add    BYTE PTR [edi+ebp*2],al
  4021a5:	push   ds
  4021a6:	add    BYTE PTR [eax],al
  4021a8:	or     ch,BYTE PTR [edx]
  4021aa:	push   esi
  4021ab:	sub    BYTE PTR [edx],al
  4021ad:	add    BYTE PTR [eax],al
  4021af:	push   es
  4021b0:	jb     0x40217c
  4021b2:	add    DWORD PTR [eax],eax
  4021b4:	jo     0x402234
  4021b6:	add    al,BYTE PTR [eax]
  4021b8:	add    BYTE PTR [edi+ebp*2],al
  4021bb:	push   ds
  4021bc:	add    BYTE PTR [eax],al
  4021be:	or     ch,BYTE PTR [edx]
  4021c0:	push   esi
  4021c1:	sub    BYTE PTR [edx],al
  4021c3:	add    BYTE PTR [eax],al
  4021c5:	push   es
  4021c6:	jb     0x4021c2
  4021c8:	add    DWORD PTR [eax],eax
  4021ca:	jo     0x40224a
  4021cc:	add    al,BYTE PTR [eax]
  4021ce:	add    BYTE PTR [edi+ebp*2],al
  4021d1:	push   ds
  4021d2:	add    BYTE PTR [eax],al
  4021d4:	or     ch,BYTE PTR [edx]
  4021d6:	push   esi
  4021d7:	sub    BYTE PTR [edx],al
  4021d9:	add    BYTE PTR [eax],al
  4021db:	push   es
  4021dc:	jb     0x4021f8
  4021de:	add    al,BYTE PTR [eax]
  4021e0:	jo     0x402260
  4021e2:	add    al,BYTE PTR [eax]
  4021e4:	add    BYTE PTR [edi+ebp*2],al
  4021e7:	push   ds
  4021e8:	add    BYTE PTR [eax],al
  4021ea:	or     ch,BYTE PTR [edx]
  4021ec:	push   esi
  4021ed:	sub    BYTE PTR [edx],al
  4021ef:	add    BYTE PTR [eax],al
  4021f1:	push   es
  4021f2:	jb     0x402238
  4021f4:	add    al,BYTE PTR [eax]
  4021f6:	jo     0x402276
  4021f8:	add    al,BYTE PTR [eax]
  4021fa:	add    BYTE PTR [edi+ebp*2],al
  4021fd:	push   ds
  4021fe:	add    BYTE PTR [eax],al
  402200:	or     ch,BYTE PTR [edx]
  402202:	push   esi
  402203:	sub    BYTE PTR [edx],al
  402205:	add    BYTE PTR [eax],al
  402207:	push   es
  402208:	jb     0x402274
  40220a:	add    al,BYTE PTR [eax]
  40220c:	jo     0x40228c
  40220e:	add    al,BYTE PTR [eax]
  402210:	add    BYTE PTR [edi+ebp*2],al
  402213:	push   ds
  402214:	add    BYTE PTR [eax],al
  402216:	or     ch,BYTE PTR [edx]
  402218:	push   esi
  402219:	sub    BYTE PTR [edx],al
  40221b:	add    BYTE PTR [eax],al
  40221d:	push   es
  40221e:	jb     0x4021b2
  402220:	add    al,BYTE PTR [eax]
  402222:	jo     0x4022a2
  402224:	add    al,BYTE PTR [eax]
  402226:	add    BYTE PTR [edi+ebp*2],al
  402229:	push   ds
  40222a:	add    BYTE PTR [eax],al
  40222c:	or     ch,BYTE PTR [edx]
  40222e:	push   esi
  40222f:	sub    BYTE PTR [edx],al
  402231:	add    BYTE PTR [eax],al
  402233:	push   es
  402234:	jb     0x4021f6
  402236:	add    al,BYTE PTR [eax]
  402238:	jo     0x4022b8
  40223a:	add    al,BYTE PTR [eax]
  40223c:	add    BYTE PTR [edi+ebp*2],al
  40223f:	push   ds
  402240:	add    BYTE PTR [eax],al
  402242:	or     ch,BYTE PTR [edx]
  402244:	push   esi
  402245:	sub    BYTE PTR [edx],al
  402247:	add    BYTE PTR [eax],al
  402249:	push   es
  40224a:	jb     0x40224a
  40224c:	add    al,BYTE PTR [eax]
  40224e:	jo     0x4022ce
  402250:	add    al,BYTE PTR [eax]
  402252:	add    BYTE PTR [edi+ebp*2],al
  402255:	push   ds
  402256:	add    BYTE PTR [eax],al
  402258:	or     ch,BYTE PTR [edx]
  40225a:	push   esi
  40225b:	sub    BYTE PTR [edx],al
  40225d:	add    BYTE PTR [eax],al
  40225f:	push   es
  402260:	jb     0x40228e
  402262:	add    eax,DWORD PTR [eax]
  402264:	jo     0x4022e4
  402266:	add    al,BYTE PTR [eax]
  402268:	add    BYTE PTR [edi+ebp*2],al
  40226b:	push   ds
  40226c:	add    BYTE PTR [eax],al
  40226e:	or     ch,BYTE PTR [edx]
  402270:	push   esi
  402271:	sub    BYTE PTR [edx],al
  402273:	add    BYTE PTR [eax],al
  402275:	push   es
  402276:	jb     0x4022bc
  402278:	add    eax,DWORD PTR [eax]
  40227a:	jo     0x4022fa
  40227c:	add    al,BYTE PTR [eax]
  40227e:	add    BYTE PTR [edi+ebp*2],al
  402281:	push   ds
  402282:	add    BYTE PTR [eax],al
  402284:	or     ch,BYTE PTR [edx]
  402286:	push   esi
  402287:	sub    BYTE PTR [edx],al
  402289:	add    BYTE PTR [eax],al
  40228b:	push   es
  40228c:	jb     0x4022e6
  40228e:	add    eax,DWORD PTR [eax]
  402290:	jo     0x402310
  402292:	add    al,BYTE PTR [eax]
  402294:	add    BYTE PTR [edi+ebp*2],al
  402297:	push   ds
  402298:	add    BYTE PTR [eax],al
  40229a:	or     ch,BYTE PTR [edx]
  40229c:	push   esi
  40229d:	sub    BYTE PTR [edx],al
  40229f:	add    BYTE PTR [eax],al
  4022a1:	push   es
  4022a2:	jb     0x40231c
  4022a4:	add    eax,DWORD PTR [eax]
  4022a6:	jo     0x402326
  4022a8:	add    al,BYTE PTR [eax]
  4022aa:	add    BYTE PTR [edi+ebp*2],al
  4022ad:	push   ds
  4022ae:	add    BYTE PTR [eax],al
  4022b0:	or     ch,BYTE PTR [edx]
  4022b2:	push   esi
  4022b3:	sub    BYTE PTR [edx],al
  4022b5:	add    BYTE PTR [eax],al
  4022b7:	push   es
  4022b8:	jb     0x402252
  4022ba:	add    eax,DWORD PTR [eax]
  4022bc:	jo     0x40233c
  4022be:	add    al,BYTE PTR [eax]
  4022c0:	add    BYTE PTR [edi+ebp*2],al
  4022c3:	push   ds
  4022c4:	add    BYTE PTR [eax],al
  4022c6:	or     ch,BYTE PTR [edx]
  4022c8:	push   esi
  4022c9:	sub    BYTE PTR [edx],al
  4022cb:	add    BYTE PTR [eax],al
  4022cd:	push   es
  4022ce:	jb     0x40227a
  4022d0:	add    eax,DWORD PTR [eax]
  4022d2:	jo     0x402352
  4022d4:	add    al,BYTE PTR [eax]
  4022d6:	add    BYTE PTR [edi+ebp*2],al
  4022d9:	push   ds
  4022da:	add    BYTE PTR [eax],al
  4022dc:	or     ch,BYTE PTR [edx]
  4022de:	push   esi
  4022df:	sub    BYTE PTR [edx],al
  4022e1:	add    BYTE PTR [eax],al
  4022e3:	push   es
  4022e4:	jb     0x4022a6
  4022e6:	add    eax,DWORD PTR [eax]
  4022e8:	jo     0x402368
  4022ea:	add    al,BYTE PTR [eax]
  4022ec:	add    BYTE PTR [edi+ebp*2],al
  4022ef:	push   ds
  4022f0:	add    BYTE PTR [eax],al
  4022f2:	or     ch,BYTE PTR [edx]
  4022f4:	push   esi
  4022f5:	sub    BYTE PTR [edx],al
  4022f7:	add    BYTE PTR [eax],al
  4022f9:	push   es
  4022fa:	jb     0x4022d2
  4022fc:	add    eax,DWORD PTR [eax]
  4022fe:	jo     0x40237e
  402300:	add    al,BYTE PTR [eax]
  402302:	add    BYTE PTR [edi+ebp*2],al
  402305:	push   ds
  402306:	add    BYTE PTR [eax],al
  402308:	or     ch,BYTE PTR [edx]
  40230a:	push   esi
  40230b:	sub    BYTE PTR [edx],al
  40230d:	add    BYTE PTR [eax],al
  40230f:	push   es
  402310:	jb     0x402300
  402312:	add    eax,DWORD PTR [eax]
  402314:	jo     0x402394
  402316:	add    al,BYTE PTR [eax]
  402318:	add    BYTE PTR [edi+ebp*2],al
  40231b:	push   ds
  40231c:	add    BYTE PTR [eax],al
  40231e:	or     ch,BYTE PTR [edx]
  402320:	push   esi
  402321:	sub    BYTE PTR [edx],al
  402323:	add    BYTE PTR [eax],al
  402325:	push   es
  402326:	jb     0x40232c
  402328:	add    al,0x0
  40232a:	jo     0x4023aa
  40232c:	add    al,BYTE PTR [eax]
  40232e:	add    BYTE PTR [edi+ebp*2],al
  402331:	push   ds
  402332:	add    BYTE PTR [eax],al
  402334:	or     ch,BYTE PTR [edx]
  402336:	push   esi
  402337:	sub    BYTE PTR [edx],al
  402339:	add    BYTE PTR [eax],al
  40233b:	push   es
  40233c:	jb     0x402362
  40233e:	add    al,0x0
  402340:	jo     0x4023c0
  402342:	add    al,BYTE PTR [eax]
  402344:	add    BYTE PTR [edi+ebp*2],al
  402347:	push   ds
  402348:	add    BYTE PTR [eax],al
  40234a:	or     ch,BYTE PTR [edx]
  40234c:	push   esi
  40234d:	sub    BYTE PTR [edx],al
  40234f:	add    BYTE PTR [eax],al
  402351:	push   es
  402352:	jb     0x40238e
  402354:	add    al,0x0
  402356:	jo     0x4023d6
  402358:	add    al,BYTE PTR [eax]
  40235a:	add    BYTE PTR [edi+ebp*2],al
  40235d:	push   ds
  40235e:	add    BYTE PTR [eax],al
  402360:	or     ch,BYTE PTR [edx]
  402362:	push   esi
  402363:	sub    BYTE PTR [edx],al
  402365:	add    BYTE PTR [eax],al
  402367:	push   es
  402368:	jb     0x4023be
  40236a:	add    al,0x0
  40236c:	jo     0x4023ec
  40236e:	add    al,BYTE PTR [eax]
  402370:	add    BYTE PTR [edi+ebp*2],al
  402373:	push   ds
  402374:	add    BYTE PTR [eax],al
  402376:	or     ch,BYTE PTR [edx]
  402378:	push   esi
  402379:	sub    BYTE PTR [edx],al
  40237b:	add    BYTE PTR [eax],al
  40237d:	push   es
  40237e:	jb     0x4023e4
  402380:	add    al,0x0
  402382:	jo     0x402402
  402384:	add    al,BYTE PTR [eax]
  402386:	add    BYTE PTR [edi+ebp*2],al
  402389:	push   ds
  40238a:	add    BYTE PTR [eax],al
  40238c:	or     ch,BYTE PTR [edx]
  40238e:	push   esi
  40238f:	sub    BYTE PTR [edx],al
  402391:	add    BYTE PTR [eax],al
  402393:	push   es
  402394:	jb     0x40240e
  402396:	add    al,0x0
  402398:	jo     0x402418
  40239a:	add    al,BYTE PTR [eax]
  40239c:	add    BYTE PTR [edi+ebp*2],al
  40239f:	push   ds
  4023a0:	add    BYTE PTR [eax],al
  4023a2:	or     ch,BYTE PTR [edx]
  4023a4:	push   esi
  4023a5:	sub    BYTE PTR [edx],al
  4023a7:	add    BYTE PTR [eax],al
  4023a9:	push   es
  4023aa:	jb     0x402338
  4023ac:	add    al,0x0
  4023ae:	jo     0x40242e
  4023b0:	add    al,BYTE PTR [eax]
  4023b2:	add    BYTE PTR [edi+ebp*2],al
  4023b5:	push   ds
  4023b6:	add    BYTE PTR [eax],al
  4023b8:	or     ch,BYTE PTR [edx]
  4023ba:	push   esi
  4023bb:	sub    BYTE PTR [edx],al
  4023bd:	add    BYTE PTR [eax],al
  4023bf:	push   es
  4023c0:	jb     0x402378
  4023c2:	add    al,0x0
  4023c4:	jo     0x402444
  4023c6:	add    al,BYTE PTR [eax]
  4023c8:	add    BYTE PTR [edi+ebp*2],al
  4023cb:	push   ds
  4023cc:	add    BYTE PTR [eax],al
  4023ce:	or     ch,BYTE PTR [edx]
  4023d0:	push   esi
  4023d1:	sub    BYTE PTR [edx],al
  4023d3:	add    BYTE PTR [eax],al
  4023d5:	push   es
  4023d6:	jb     0x4023be
  4023d8:	add    al,0x0
  4023da:	jo     0x40245a
  4023dc:	add    al,BYTE PTR [eax]
  4023de:	add    BYTE PTR [edi+ebp*2],al
  4023e1:	push   ds
  4023e2:	add    BYTE PTR [eax],al
  4023e4:	or     ch,BYTE PTR [edx]
  4023e6:	push   esi
  4023e7:	sub    BYTE PTR [edx],al
  4023e9:	add    BYTE PTR [eax],al
  4023eb:	push   es
  4023ec:	jb     0x402406
  4023ee:	add    eax,0x27e7000
  4023f3:	add    BYTE PTR [eax],al
  4023f5:	add    al,0x6f
  4023f7:	push   ds
  4023f8:	add    BYTE PTR [eax],al
  4023fa:	or     ch,BYTE PTR [edx]
  4023fc:	push   esi
  4023fd:	sub    BYTE PTR [edx],al
  4023ff:	add    BYTE PTR [eax],al
  402401:	push   es
  402402:	jb     0x402444
  402404:	add    eax,0x27e7000
  402409:	add    BYTE PTR [eax],al
  40240b:	add    al,0x6f
  40240d:	push   ds
  40240e:	add    BYTE PTR [eax],al
  402410:	or     ch,BYTE PTR [edx]
  402412:	push   esi
  402413:	sub    BYTE PTR [edx],al
  402415:	add    BYTE PTR [eax],al
  402417:	push   es
  402418:	jb     0x402480
  40241a:	add    eax,0x27e7000
  40241f:	add    BYTE PTR [eax],al
  402421:	add    al,0x6f
  402423:	push   ds
  402424:	add    BYTE PTR [eax],al
  402426:	or     ch,BYTE PTR [edx]
  402428:	push   esi
  402429:	sub    BYTE PTR [edx],al
  40242b:	add    BYTE PTR [eax],al
  40242d:	push   es
  40242e:	jb     0x4023b0
  402430:	add    eax,0x27e7000
  402435:	add    BYTE PTR [eax],al
  402437:	add    al,0x6f
  402439:	push   ds
  40243a:	add    BYTE PTR [eax],al
  40243c:	or     ch,BYTE PTR [edx]
  40243e:	push   esi
  40243f:	sub    BYTE PTR [edx],al
  402441:	add    BYTE PTR [eax],al
  402443:	push   es
  402444:	jb     0x4023e2
  402446:	add    eax,0x27e7000
  40244b:	add    BYTE PTR [eax],al
  40244d:	add    al,0x6f
  40244f:	push   ds
  402450:	add    BYTE PTR [eax],al
  402452:	or     ch,BYTE PTR [edx]
  402454:	push   esi
  402455:	sub    BYTE PTR [edx],al
  402457:	add    BYTE PTR [eax],al
  402459:	push   es
  40245a:	jb     0x402420
  40245c:	add    eax,0x27e7000
  402461:	add    BYTE PTR [eax],al
  402463:	add    al,0x6f
  402465:	push   ds
  402466:	add    BYTE PTR [eax],al
  402468:	or     ch,BYTE PTR [edx]
  40246a:	push   esi
  40246b:	sub    BYTE PTR [edx],al
  40246d:	add    BYTE PTR [eax],al
  40246f:	push   es
  402470:	jb     0x402454
  402472:	add    eax,0x27e7000
  402477:	add    BYTE PTR [eax],al
  402479:	add    al,0x6f
  40247b:	push   ds
  40247c:	add    BYTE PTR [eax],al
  40247e:	or     ch,BYTE PTR [edx]
  402480:	push   esi
  402481:	sub    BYTE PTR [edx],al
  402483:	add    BYTE PTR [eax],al
  402485:	push   es
  402486:	jb     0x40248a
  402488:	push   es
  402489:	add    BYTE PTR [eax+0x7e],dh
  40248c:	add    al,BYTE PTR [eax]
  40248e:	add    BYTE PTR [edi+ebp*2],al
  402491:	push   ds
  402492:	add    BYTE PTR [eax],al
  402494:	or     ch,BYTE PTR [edx]
  402496:	push   esi
  402497:	sub    BYTE PTR [edx],al
  402499:	add    BYTE PTR [eax],al
  40249b:	push   es
  40249c:	jb     0x4024c6
  40249e:	push   es
  40249f:	add    BYTE PTR [eax+0x7e],dh
  4024a2:	add    al,BYTE PTR [eax]
  4024a4:	add    BYTE PTR [edi+ebp*2],al
  4024a7:	push   ds
  4024a8:	add    BYTE PTR [eax],al
  4024aa:	or     ch,BYTE PTR [edx]
  4024ac:	push   esi
  4024ad:	sub    BYTE PTR [edx],al
  4024af:	add    BYTE PTR [eax],al
  4024b1:	push   es
  4024b2:	jb     0x4024ee
  4024b4:	push   es
  4024b5:	add    BYTE PTR [eax+0x7e],dh
  4024b8:	add    al,BYTE PTR [eax]
  4024ba:	add    BYTE PTR [edi+ebp*2],al
  4024bd:	push   ds
  4024be:	add    BYTE PTR [eax],al
  4024c0:	or     ch,BYTE PTR [edx]
  4024c2:	and    al,BYTE PTR [edx]
  4024c4:	adc    al,0x28
  4024c6:	and    BYTE PTR [eax],al
  4024c8:	add    BYTE PTR [edx],cl
  4024ca:	sub    ah,BYTE PTR [edx]
  4024cc:	add    al,BYTE PTR [ebx]
  4024ce:	sub    BYTE PTR [eax],ah
  4024d0:	add    BYTE PTR [eax],al
  4024d2:	or     ch,BYTE PTR [edx]
  4024d4:	adc    esi,DWORD PTR [eax]
  4024d6:	add    al,BYTE PTR [eax]
  4024d8:	pop    ebx
  4024d9:	add    BYTE PTR [eax],al
  4024db:	add    BYTE PTR [edx],al
  4024dd:	add    BYTE PTR [eax],al
  4024df:	adc    DWORD PTR [edx],eax
  4024e1:	add    esi,DWORD PTR [ebp+0x4]
  4024e4:	add    BYTE PTR [eax],al
  4024e6:	add    bh,BYTE PTR [ebp+0xa]
  4024e9:	add    BYTE PTR [eax],al
  4024eb:	add    al,0x2
  4024ed:	add    bh,BYTE PTR [edx+ecx*1+0x0]
  4024f1:	add    BYTE PTR [eax+ebp*1],al
  4024f4:	add    BYTE PTR ds:[eax],al
  4024f7:	push   es
  4024f8:	adc    al,0xa
  4024fa:	add    bh,BYTE PTR [ebx+0xa]
  4024fd:	add    BYTE PTR [eax],al
  4024ff:	add    al,0x6f
  402501:	push   ecx
  402502:	add    BYTE PTR [eax],al
  402504:	push   es
  402505:	sub    BYTE PTR [ecx],ah
  402507:	add    BYTE PTR [eax],al
  402509:	or     ch,BYTE PTR ds:0xa7b0211
  40250f:	add    BYTE PTR [eax],al
  402511:	add    al,0x6f
  402513:	push   ecx
  402514:	add    BYTE PTR [eax],al
  402516:	push   es
  402517:	jae    0x40253b
  402519:	add    BYTE PTR [eax],al
  40251b:	or     cl,BYTE PTR [edx]
  40251d:	add    bh,BYTE PTR [ebx+0xa]
  402520:	add    BYTE PTR [eax],al
  402522:	add    al,0x6f
  402524:	and    eax,DWORD PTR [eax]
  402526:	add    BYTE PTR [edx],cl
  402528:	sub    al,0x9
  40252a:	add    al,BYTE PTR [esi]
  40252c:	sub    BYTE PTR ds:0x16060000,bh
  402532:	sub    al,BYTE PTR [edx]
  402534:	push   es
  402535:	sub    BYTE PTR [edx+0x0],al
  402538:	add    BYTE PTR [esi],al
  40253a:	sub    bl,BYTE PTR [esi]
  40253c:	add    ch,BYTE PTR [eax]
  40253e:	inc    ebx
  40253f:	add    BYTE PTR [eax],al
  402541:	push   es
  402542:	sub    bl,BYTE PTR [edx]
  402544:	jb     0x402598
  402546:	push   es
  402547:	add    BYTE PTR [eax+0x2a],dh
  40254a:	sbb    dh,BYTE PTR [edx+0x60]
  40254d:	push   es
  40254e:	add    BYTE PTR [eax+0x2a],dh
  402551:	or     dl,BYTE PTR [edi]
  402553:	sub    cl,BYTE PTR [edx]
  402555:	pop    ss
  402556:	sub    cl,BYTE PTR [edx]
  402558:	pop    ss
  402559:	sub    cl,BYTE PTR [edx]
  40255b:	pop    ss
  40255c:	sub    bl,BYTE PTR [edx]
  40255e:	sub    BYTE PTR [esi],cl
  402560:	add    BYTE PTR [eax],al
  402562:	push   es
  402563:	sub    dl,BYTE PTR [ebx]
  402565:	xor    BYTE PTR ds:0x9500,al
  40256b:	add    BYTE PTR [ebx],al
  40256d:	add    BYTE PTR [eax],al
  40256f:	adc    DWORD PTR [ebx],eax
  402571:	jne    0x402577
  402573:	add    BYTE PTR [eax],al
  402575:	add    cl,BYTE PTR [edx]
  402577:	push   es
  402578:	outs   dx,DWORD PTR ds:[esi]
  402579:	push   ecx
  40257a:	add    BYTE PTR [eax],al
  40257c:	push   es
  40257d:	sub    BYTE PTR [ecx],ah
  40257f:	add    BYTE PTR [eax],al
  402581:	or     ch,BYTE PTR [esi+eax*2]
  402584:	add    al,0x25
  402586:	or     al,0x2c
  402588:	and    DWORD PTR [eax],ecx
  40258a:	jb     0x4025fc
  40258c:	push   es
  40258d:	add    BYTE PTR [eax+0x28],dh
  402590:	and    al,0x0
  402592:	add    BYTE PTR [edx],cl
  402594:	sub    al,0x14
  402596:	push   es
  402597:	add    al,0x72
  402599:	jp     0x4025a1
  40259b:	add    BYTE PTR [eax+0x5],dh
  40259e:	sub    BYTE PTR ds:0x6f0a0000,ah
  4025a4:	push   edx
  4025a5:	add    BYTE PTR [eax],al
  4025a7:	push   es
  4025a8:	sub    eax,DWORD PTR [edi]
  4025aa:	push   es
  4025ab:	add    al,0x6f
  4025ad:	push   edx
  4025ae:	add    BYTE PTR [eax],al
  4025b0:	push   es
  4025b1:	add    al,BYTE PTR [esi]
  4025b3:	outs   dx,DWORD PTR ds:[esi]
  4025b4:	push   ecx
  4025b5:	add    BYTE PTR [eax],al
  4025b7:	push   es
  4025b8:	sub    BYTE PTR [ecx+0x0],al
  4025bb:	add    BYTE PTR [esi],al
  4025bd:	sub    eax,0x6f140609
  4025c2:	push   edx
  4025c3:	add    BYTE PTR [eax],al
  4025c5:	push   es
  4025c6:	push   ss
  4025c7:	sub    dl,BYTE PTR [edi]
  4025c9:	sub    al,BYTE PTR ds:0x2128
  4025cf:	or     ch,BYTE PTR ds:0x7a72040e
  4025d5:	push   es
  4025d6:	add    BYTE PTR [eax+0x5],dh
  4025d9:	sub    BYTE PTR ds:0x2b0a0000,ah
  4025df:	add    DWORD PTR [ebx+ecx*1],eax
  4025e2:	add    ch,BYTE PTR [eax]
  4025e4:	or     eax,0x18060000
  4025e9:	lea    ebp,[edi]
  4025eb:	add    BYTE PTR [eax],al
  4025ed:	add    DWORD PTR ds:0x6f061609,ecx
  4025f3:	push   ecx
  4025f4:	add    BYTE PTR [eax],al
  4025f6:	push   es
  4025f7:	mov    ds:0xa2071709,al
  4025fc:	or     DWORD PTR [edi],edx
  4025fe:	sub    BYTE PTR [esi],ah
  402600:	add    BYTE PTR [eax],al
  402602:	or     dl,BYTE PTR [esi]
  402604:	sub    al,BYTE PTR [eax]
  402606:	add    BYTE PTR [eax],al
  402608:	adc    esi,DWORD PTR [eax]
  40260a:	add    al,0x0
  40260c:	pop    ebx
  40260d:	add    BYTE PTR [eax],al
  40260f:	add    BYTE PTR [eax+eax*1],al
  402612:	add    BYTE PTR [ecx],dl
  402614:	add    esi,DWORD PTR [ebp+0x4]
  402617:	add    BYTE PTR [eax],al
  402619:	add    cl,BYTE PTR [edx]
  40261b:	push   es
  40261c:	outs   dx,DWORD PTR ds:[esi]
  40261d:	push   ecx
  40261e:	add    BYTE PTR [eax],al
  402620:	push   es
  402621:	sub    BYTE PTR [ecx],ah
  402623:	add    BYTE PTR [eax],al
  402625:	or     ch,BYTE PTR [ebx+ebx*1]
  402628:	add    ebp,DWORD PTR [edi+0x23]
  40262b:	add    BYTE PTR [eax],al
  40262d:	or     ch,BYTE PTR ds:0x23280213
  402633:	add    BYTE PTR [eax],al
  402635:	push   es
  402636:	jb     0x4026b6
  402638:	push   es
  402639:	add    BYTE PTR [eax+0x17],dh
  40263c:	sub    BYTE PTR [edi],ah
  40263e:	add    BYTE PTR [eax],al
  402640:	or     dl,BYTE PTR [esi]
  402642:	sub    al,BYTE PTR [ebx]
  402644:	outs   dx,DWORD PTR ds:[esi]
  402645:	and    eax,DWORD PTR [eax]
  402647:	add    BYTE PTR [edx],cl
  402649:	sub    eax,0x6f060222
  40264e:	push   ecx
  40264f:	add    BYTE PTR [eax],al
  402651:	push   es
  402652:	sub    BYTE PTR [ecx+0x0],al
  402655:	add    BYTE PTR [esi],al
  402657:	sub    eax,0x23280214
  40265c:	add    BYTE PTR [eax],al
  40265e:	push   es
  40265f:	push   es
  402660:	outs   dx,DWORD PTR ds:[esi]
  402661:	push   ecx
  402662:	add    BYTE PTR [eax],al
  402664:	push   es
  402665:	pop    ss
  402666:	sub    BYTE PTR [edi],ah
  402668:	add    BYTE PTR [eax],al
  40266a:	or     dl,BYTE PTR [esi]
  40266c:	sub    dl,BYTE PTR [edi]
  40266e:	sub    bl,BYTE PTR [edx]
  402670:	jae    0x4026c1
  402672:	add    BYTE PTR [eax],al
  402674:	push   es
  402675:	sub    al,BYTE PTR [eax]
  402677:	add    BYTE PTR [ebx],cl
  402679:	xor    BYTE PTR [eax+eax*1],al
  40267c:	inc    edi
  40267d:	add    BYTE PTR [eax],al
  40267f:	add    BYTE PTR [eax],al
  402681:	add    BYTE PTR [eax],al
  402683:	add    BYTE PTR [ebx],al
  402685:	adc    al,0x28
  402687:	sub    BYTE PTR [eax],al
  402689:	add    BYTE PTR [edx],cl
  40268b:	sub    al,0xd
  40268d:	add    ch,BYTE PTR [eax]
  40268f:	sub    DWORD PTR [eax],eax
  402691:	add    BYTE PTR [esi],al
  402693:	pop    ss
  402694:	sub    BYTE PTR [ecx],ch
  402696:	add    BYTE PTR [eax],al
  402698:	or     ch,BYTE PTR [edx]
  40269a:	add    al,BYTE PTR [ebx]
  40269c:	sub    BYTE PTR [edx],ch
  40269e:	add    BYTE PTR [eax],al
  4026a0:	or     bh,BYTE PTR [ebp+0x7]
  4026a3:	add    BYTE PTR [eax],al
  4026a5:	add    al,0x2
  4026a7:	sub    BYTE PTR [ebx+0x0],al
  4026aa:	add    BYTE PTR [esi],al
  4026ac:	add    ch,BYTE PTR [eax]
  4026ae:	sub    eax,DWORD PTR [eax]
  4026b0:	add    BYTE PTR [esi],al
  4026b2:	sbb    BYTE PTR [eax],ch
  4026b4:	sub    DWORD PTR [eax],eax
  4026b6:	add    BYTE PTR [edx],cl
  4026b8:	ficom  WORD PTR [eax]
  4026ba:	add    ch,BYTE PTR es:[eax]
  4026bd:	and    eax,DWORD PTR [eax]
  4026bf:	add    BYTE PTR [esi],al
  4026c1:	add    edx,DWORD PTR [edi]
  4026c3:	sub    BYTE PTR [edi],ah
  4026c5:	add    BYTE PTR [eax],al
  4026c7:	or     bl,dh
  4026c9:	add    BYTE PTR [edx],ch
  4026cb:	add    BYTE PTR [ecx],al
  4026cd:	adc    BYTE PTR [eax],al
  4026cf:	add    BYTE PTR [eax],al
  4026d1:	add    BYTE PTR [esi],dl
  4026d3:	add    BYTE PTR [eax],ah
  4026d5:	add    BYTE PTR ss:[eax],dl
  4026d8:	xor    DWORD PTR [eax],eax
  4026da:	add    BYTE PTR [ecx],al
  4026dc:	adc    esi,DWORD PTR [eax]
  4026de:	add    al,BYTE PTR [eax]
  4026e0:	scas   al,BYTE PTR es:[edi]
  4026e1:	add    BYTE PTR [eax],al
  4026e3:	add    BYTE PTR ds:0x3110000,al
  4026e9:	push   eax
  4026ea:	outs   dx,DWORD PTR ds:[esi]
  4026eb:	push   ecx
  4026ec:	add    BYTE PTR [eax],al
  4026ee:	push   es
  4026ef:	sub    BYTE PTR [ecx],ah
  4026f1:	add    BYTE PTR [eax],al
  4026f3:	or     ch,BYTE PTR ds:0x28022a01
  4026f9:	dec    esp
  4026fa:	add    BYTE PTR [eax],al
  4026fc:	push   es
  4026fd:	jle    0x402702
  4026ff:	add    BYTE PTR [eax],al
  402701:	add    al,0x6f
  402703:	sub    eax,DWORD PTR [eax]
  402705:	add    BYTE PTR [edx],cl
  402707:	or     al,BYTE PTR [esi]
  402709:	sub    al,0x17
  40270b:	push   es
  40270c:	outs   dx,DWORD PTR ds:[esi]
  40270d:	sub    al,0x0
  40270f:	add    BYTE PTR [edx],cl
  402711:	or     eax,DWORD PTR [edi]
  402713:	sub    BYTE PTR [ecx],ah
  402715:	add    BYTE PTR [eax],al
  402717:	or     ch,BYTE PTR ds:0x7500308
  40271d:	outs   dx,DWORD PTR ds:[esi]
  40271e:	push   edx
  40271f:	add    BYTE PTR [eax],al
  402721:	push   es
  402722:	add    ch,BYTE PTR [eax]
  402724:	dec    esp
  402725:	add    BYTE PTR [eax],al
  402727:	push   es
  402728:	jle    0x40272f
  40272a:	add    BYTE PTR [eax],al
  40272c:	add    al,0x6f
  40272e:	sub    eax,DWORD PTR [eax]
  402730:	add    BYTE PTR [edx],cl
  402732:	or     al,BYTE PTR [esi]
  402734:	sub    al,0x34
  402736:	push   es
  402737:	outs   dx,DWORD PTR ds:[esi]
  402738:	sub    al,0x0
  40273a:	add    BYTE PTR [edx],cl
  40273c:	or     al,0x8
  40273e:	sub    BYTE PTR [ecx],ah
  402740:	add    BYTE PTR [eax],al
  402742:	or     ch,BYTE PTR ds:0x8c17081d
  402748:	xor    al,BYTE PTR [eax]
  40274a:	add    BYTE PTR [ecx],al
  40274c:	outs   dx,DWORD PTR ds:[esi]
  40274d:	sub    al,0x0
  40274f:	add    BYTE PTR [edx],cl
  402751:	sub    BYTE PTR [eax+eax*1],ah
  402754:	add    BYTE PTR [edx],cl
  402756:	sub    al,0xa
  402758:	add    edx,DWORD PTR [eax+0x17]
  40275b:	outs   dx,DWORD PTR ds:[esi]
  40275c:	sub    eax,0x2b0a0000
  402761:	or     BYTE PTR [ebx],al
  402763:	push   eax
  402764:	push   ss
  402765:	outs   dx,DWORD PTR ds:[esi]
  402766:	sub    eax,0x20a0000
  40276b:	sub    BYTE PTR [eax+eax*1+0x0],cl
  40276f:	push   es
  402770:	jle    0x402776
  402772:	add    BYTE PTR [eax],al
  402774:	add    al,0x6f
  402776:	sub    eax,DWORD PTR [eax]
  402778:	add    BYTE PTR [edx],cl
  40277a:	or     al,BYTE PTR [esi]
  40277c:	sub    al,0x17
  40277e:	push   es
  40277f:	outs   dx,DWORD PTR ds:[esi]
  402780:	sub    al,0x0
  402782:	add    BYTE PTR [edx],cl
  402784:	or     eax,0x212809
  402789:	add    BYTE PTR [edx],cl
  40278b:	sub    eax,0x9500308
  402790:	outs   dx,DWORD PTR ds:[esi]
  402791:	add    BYTE PTR cs:[eax],al
  402794:	or     ch,BYTE PTR [edx]
  402796:	add    BYTE PTR [eax],al
  402798:	add    esi,DWORD PTR [eax]
  40279a:	add    eax,DWORD PTR [eax]
  40279c:	inc    eax
  40279d:	add    BYTE PTR [eax],al
  40279f:	add    BYTE PTR [eax],al
  4027a1:	add    BYTE PTR [eax],al
  4027a3:	add    BYTE PTR [edx],al
  4027a5:	sub    BYTE PTR [eax+eax*1+0x0],cl
  4027a9:	push   es
  4027aa:	jle    0x4027b0
  4027ac:	add    BYTE PTR [eax],al
  4027ae:	add    al,0x7e
  4027b0:	das    
  4027b1:	add    BYTE PTR [eax],al
  4027b3:	or     ch,BYTE PTR [edi+0x30]
  4027b6:	add    BYTE PTR [eax],al
  4027b8:	or     al,BYTE PTR [edx]
  4027ba:	sub    BYTE PTR [eax+eax*1+0x0],cl
  4027be:	push   es
  4027bf:	jle    0x4027c4
  4027c1:	add    BYTE PTR [eax],al
  4027c3:	add    al,0x7e
  4027c5:	das    
  4027c6:	add    BYTE PTR [eax],al
  4027c8:	or     ch,BYTE PTR [edi+0x30]
  4027cb:	add    BYTE PTR [eax],al
  4027cd:	or     al,BYTE PTR [edx]
  4027cf:	sub    BYTE PTR [eax+eax*1+0x0],cl
  4027d3:	push   es
  4027d4:	jle    0x4027db
  4027d6:	add    BYTE PTR [eax],al
  4027d8:	add    al,0x7e
  4027da:	das    
  4027db:	add    BYTE PTR [eax],al
  4027dd:	or     ch,BYTE PTR [edi+0x30]
  4027e0:	add    BYTE PTR [eax],al
  4027e2:	or     ch,BYTE PTR [edx]
  4027e4:	add    esi,DWORD PTR [eax]
  4027e6:	add    eax,DWORD PTR [eax]
  4027e8:	dec    ebp
  4027e9:	add    BYTE PTR [eax],al
  4027eb:	add    BYTE PTR [eax],al
  4027ed:	add    BYTE PTR [eax],al
  4027ef:	add    BYTE PTR [edx],al
  4027f1:	sub    BYTE PTR [eax+eax*1+0x0],cl
  4027f5:	push   es
  4027f6:	jle    0x4027fc
  4027f8:	add    BYTE PTR [eax],al
  4027fa:	add    al,0x3
  4027fc:	outs   dx,DWORD PTR ds:[esi]
  4027fd:	xor    DWORD PTR [eax],eax
  4027ff:	add    BYTE PTR [edx],cl
  402801:	outs   dx,DWORD PTR ds:[esi]
  402802:	xor    BYTE PTR [eax],al
  402804:	add    BYTE PTR [edx],cl
  402806:	add    ch,BYTE PTR [eax]
  402808:	dec    esp
  402809:	add    BYTE PTR [eax],al
  40280b:	push   es
  40280c:	jle    0x402811
  40280e:	add    BYTE PTR [eax],al
  402810:	add    al,0x3
  402812:	outs   dx,DWORD PTR ds:[esi]
  402813:	push   ecx
  402814:	add    BYTE PTR [eax],al
  402816:	push   es
  402817:	outs   dx,DWORD PTR ds:[esi]
  402818:	xor    BYTE PTR [eax],al
  40281a:	add    BYTE PTR [edx],cl
  40281c:	add    ch,BYTE PTR [eax]
  40281e:	dec    esp
  40281f:	add    BYTE PTR [eax],al
  402821:	push   es
  402822:	jle    0x402829
  402824:	add    BYTE PTR [eax],al
  402826:	add    al,0x3
  402828:	outs   dx,DWORD PTR ds:[esi]
  402829:	xor    al,BYTE PTR [eax]
  40282b:	add    BYTE PTR [edx],cl
  40282d:	mov    WORD PTR [edx],?
  40282f:	add    BYTE PTR [eax],al
  402831:	add    DWORD PTR [edi+0x2c],ebp
  402834:	add    BYTE PTR [eax],al
  402836:	or     ch,BYTE PTR [edi+0x30]
  402839:	add    BYTE PTR [eax],al
  40283b:	or     ch,BYTE PTR [edx]
  40283d:	add    BYTE PTR [eax],al
  40283f:	add    BYTE PTR [ebx],dl
  402841:	xor    BYTE PTR [edx],al
  402843:	add    BYTE PTR [ebp+0x0],cl
  402846:	add    BYTE PTR [eax],al
  402848:	add    al,BYTE PTR [eax]
  40284a:	add    BYTE PTR [ecx],dl
  40284c:	add    edx,DWORD PTR [edi]
  40284e:	sub    BYTE PTR [ebx],dh
  402850:	add    BYTE PTR [eax],al
  402852:	or     ch,BYTE PTR ds:0x32a1602
  402858:	pop    ss
  402859:	jae    0x40288f
  40285b:	add    BYTE PTR [eax],al
  40285d:	or     cl,BYTE PTR [edx]
  40285f:	push   es
  402860:	outs   dx,DWORD PTR ds:[esi]
  402861:	xor    eax,0x7e0a0000
  402866:	add    BYTE PTR ss:[eax],al
  402869:	or     ch,BYTE PTR [eax]
  40286b:	aaa    
  40286c:	add    BYTE PTR [eax],al
  40286e:	or     ch,BYTE PTR [esi+eiz*1]
  402871:	push   es
  402872:	outs   dx,DWORD PTR ds:[esi]
  402873:	xor    eax,0x7e0a0000
  402878:	cmp    BYTE PTR [eax],al
  40287a:	add    BYTE PTR [edx],cl
  40287c:	sub    BYTE PTR [edi],dh
  40287e:	add    BYTE PTR [eax],al
  402880:	or     ch,BYTE PTR [esp+edx*1]
  402883:	push   es
  402884:	outs   dx,DWORD PTR ds:[esi]
  402885:	xor    eax,0x7e0a0000
  40288a:	cmp    DWORD PTR [eax],eax
  40288c:	add    BYTE PTR [edx],cl
  40288e:	sub    BYTE PTR [edi],dh
  402890:	add    BYTE PTR [eax],al
  402892:	or     ch,BYTE PTR [edx+eax*1]
  402895:	push   ss
  402896:	sub    dl,BYTE PTR [edi]
  402898:	sub    al,BYTE PTR [eax]
  40289a:	add    BYTE PTR [eax],al
  40289c:	sbb    esi,DWORD PTR [eax]
  40289e:	add    al,0x0
  4028a0:	xchg   edi,eax
  4028a1:	add    DWORD PTR [eax],eax
  4028a3:	add    BYTE PTR [esi],al
  4028a5:	add    BYTE PTR [eax],al
  4028a7:	adc    DWORD PTR [ebx],eax
  4028a9:	adc    al,0x28
  4028ab:	sub    BYTE PTR [eax],al
  4028ad:	add    BYTE PTR [edx],cl
  4028af:	sub    al,0x8
  4028b1:	push   ss
  4028b2:	adc    eax,DWORD PTR [ebx*8+0x183]
  4028b9:	add    al,BYTE PTR [ebx]
  4028bb:	sub    BYTE PTR [edx],ch
  4028bd:	add    BYTE PTR [eax],al
  4028bf:	or     bh,BYTE PTR [ebp+0x7]
  4028c2:	add    BYTE PTR [eax],al
  4028c4:	add    al,0x2
  4028c6:	sub    BYTE PTR [edx],dl
  4028c8:	add    BYTE PTR [eax],al
  4028ca:	push   es
  4028cb:	sbb    BYTE PTR [eax],ch
  4028cd:	sub    DWORD PTR [eax],eax
  4028cf:	add    BYTE PTR [edx],cl
  4028d1:	add    bh,BYTE PTR [ebx+0x7]
  4028d4:	add    BYTE PTR [eax],al
  4028d6:	add    al,0x6f
  4028d8:	cmp    al,BYTE PTR [eax]
  4028da:	add    BYTE PTR [edx],cl
  4028dc:	sub    al,0xc
  4028de:	jb     0x402860
  4028e0:	push   es
  4028e1:	add    BYTE PTR [eax+0x28],dh
  4028e4:	cmp    eax,DWORD PTR [eax]
  4028e6:	add    BYTE PTR [edx],cl
  4028e8:	sub    ecx,DWORD PTR [edx]
  4028ea:	jb     0x4028b6
  4028ec:	push   es
  4028ed:	add    BYTE PTR [eax+0x28],dh
  4028f0:	cmp    eax,DWORD PTR [eax]
  4028f2:	add    BYTE PTR [edx],cl
  4028f4:	add    ch,BYTE PTR [eax]
  4028f6:	push   es
  4028f7:	add    BYTE PTR [eax],al
  4028f9:	push   es
  4028fa:	sub    BYTE PTR [eax+eax*1],bh
  4028fd:	add    BYTE PTR [edx],cl
  4028ff:	add    ch,BYTE PTR [eax]
  402901:	inc    esp
  402902:	add    BYTE PTR [eax],al
  402904:	push   es
  402905:	add    bh,BYTE PTR [ebx+0xa]
  402908:	add    BYTE PTR [eax],al
  40290a:	add    al,0x6f
  40290c:	xor    al,BYTE PTR [eax]
  40290e:	add    BYTE PTR [edx],cl
  402910:	pop    ss
  402911:	xor    esp,DWORD PTR [ecx]
  402913:	add    ch,BYTE PTR [eax]
  402915:	or     eax,DWORD PTR [eax]
  402917:	add    BYTE PTR [esi],al
  402919:	sub    BYTE PTR [eax+eax*1],bh
  40291c:	add    BYTE PTR [edx],cl
  40291e:	add    bh,BYTE PTR [ebx+0x7]
  402921:	add    BYTE PTR [eax],al
  402923:	add    al,0xd0
  402925:	xor    al,0x0
  402927:	add    BYTE PTR [ecx],al
  402929:	sub    BYTE PTR [ebx],bl
  40292b:	add    BYTE PTR [eax],al
  40292d:	or     ch,BYTE PTR [edi+0x3d]
  402930:	add    BYTE PTR [eax],al
  402932:	or     ah,BYTE PTR [esi]
  402934:	add    ch,BYTE PTR [eax]
  402936:	or     al,BYTE PTR [eax]
  402938:	add    BYTE PTR [esi],al
  40293a:	sub    BYTE PTR [eax+eax*1],bh
  40293d:	add    BYTE PTR [edx],cl
  40293f:	add    al,BYTE PTR [edx]
  402941:	jnp    0x40294d
  402943:	add    BYTE PTR [eax],al
  402945:	add    al,0x6f
  402947:	xor    DWORD PTR [eax],eax
  402949:	add    BYTE PTR [edx],cl
  40294b:	sub    BYTE PTR [edi+0x0],al
  40294e:	add    BYTE PTR [esi],al
  402950:	ficomp WORD PTR [ebx]
  402952:	or     al,BYTE PTR [edx]
  402954:	sub    BYTE PTR ds:0x6060000,ah
  40295a:	outs   dx,DWORD PTR ds:[esi]
  40295b:	add    BYTE PTR ds:[eax],al
  40295e:	or     dl,BYTE PTR [edi]
  402960:	sub    BYTE PTR [edi],ah
  402962:	add    BYTE PTR [eax],al
  402964:	or     dl,BYTE PTR [esi]
  402966:	adc    eax,DWORD PTR [ebx*8+0xcf]
  40296d:	add    ch,BYTE PTR [eax]
  40296f:	pop    es
  402970:	add    BYTE PTR [eax],al
  402972:	push   es
  402973:	sub    BYTE PTR [eax+eax*1],bh
  402976:	add    BYTE PTR [edx],cl
  402978:	add    al,BYTE PTR [edx]
  40297a:	jnp    0x402986
  40297c:	add    BYTE PTR [eax],al
  40297e:	add    al,0x28
  402980:	inc    eax
  402981:	add    BYTE PTR [eax],al
  402983:	push   es
  402984:	add    ch,BYTE PTR [eax]
  402986:	inc    esi
  402987:	add    BYTE PTR [eax],al
  402989:	push   es
  40298a:	add    bh,BYTE PTR [ebx+0xa]
  40298d:	add    BYTE PTR [eax],al
  40298f:	add    al,0x6f
  402991:	xor    al,BYTE PTR [eax]
  402993:	add    BYTE PTR [edx],cl
  402995:	sub    eax,0x5280211
  40299a:	add    BYTE PTR [eax],al
  40299c:	push   es
  40299d:	sub    BYTE PTR [eax+eax*1],bh
  4029a0:	add    BYTE PTR [edx],cl
  4029a2:	add    ch,BYTE PTR [eax]
  4029a4:	dec    ecx
  4029a5:	add    BYTE PTR [eax],al
  4029a7:	push   es
  4029a8:	add    ch,BYTE PTR [eax]
  4029aa:	or     DWORD PTR [eax],eax
  4029ac:	add    BYTE PTR [esi],al
  4029ae:	sub    BYTE PTR [eax+eax*1],bh
  4029b1:	add    BYTE PTR [edx],cl
  4029b3:	add    al,BYTE PTR [edx]
  4029b5:	jnp    0x4029c1
  4029b7:	add    BYTE PTR [eax],al
  4029b9:	add    al,0x6f
  4029bb:	push   ecx
  4029bc:	add    BYTE PTR [eax],al
  4029be:	push   es
  4029bf:	sub    BYTE PTR [ebx+0x0],cl
  4029c2:	add    BYTE PTR [esi],al
  4029c4:	add    ch,BYTE PTR es:[eax]
  4029c7:	sldt   WORD PTR [eax]
  4029ca:	push   es
  4029cb:	sbb    BYTE PTR [eax],ch
  4029cd:	sub    DWORD PTR [eax],eax
  4029cf:	add    BYTE PTR [edx],cl
  4029d1:	add    bh,BYTE PTR [ebx+0xa]
  4029d4:	add    BYTE PTR [eax],al
  4029d6:	add    al,0x6f
  4029d8:	aas    
  4029d9:	add    BYTE PTR [eax],al
  4029db:	or     ch,BYTE PTR [ecx+edx*1]
  4029de:	add    ch,BYTE PTR [eax]
  4029e0:	sub    BYTE PTR [eax],al
  4029e2:	add    BYTE PTR [esi],al
  4029e4:	sbb    BYTE PTR [eax],ch
  4029e6:	sub    DWORD PTR [eax],eax
  4029e8:	add    BYTE PTR [edx],cl
  4029ea:	push   ss
  4029eb:	adc    eax,DWORD PTR [esi+ebx*8]
  4029ee:	dec    ebp
  4029ef:	pop    ss
  4029f0:	adc    eax,DWORD PTR [esi+ebx*8]
  4029f3:	dec    eax
  4029f4:	or     eax,DWORD PTR [edx]
  4029f6:	sub    BYTE PTR [eax+eax*1],cl
  4029f9:	add    BYTE PTR [esi],al
  4029fb:	pop    es
  4029fc:	outs   dx,DWORD PTR ds:[esi]
  4029fd:	add    BYTE PTR ds:[eax],al
  402a00:	or     dl,BYTE PTR [edi]
  402a02:	sub    BYTE PTR [edi],ah
  402a04:	add    BYTE PTR [eax],al
  402a06:	or     dl,BYTE PTR [esi]
  402a08:	adc    eax,DWORD PTR [esi+ebx*8]
  402a0b:	xor    BYTE PTR [edx+eax*1],cl
  402a0e:	sub    BYTE PTR [ebx],dl
  402a10:	add    BYTE PTR [eax],al
  402a12:	push   es
  402a13:	or     BYTE PTR [edi+0x3e],ch
  402a16:	add    BYTE PTR [eax],al
  402a18:	or     dl,BYTE PTR [edi]
  402a1a:	sub    BYTE PTR [edi],ah
  402a1c:	add    BYTE PTR [eax],al
  402a1e:	or     dl,BYTE PTR [esi]
  402a20:	adc    eax,DWORD PTR [esi+ebx*8]
  402a23:	sbb    BYTE PTR ds:0x2c2802,cl
  402a29:	add    BYTE PTR [esi],al
  402a2b:	or     DWORD PTR [edi+0x3e],ebp
  402a2e:	add    BYTE PTR [eax],al
  402a30:	or     dl,BYTE PTR [edi]
  402a32:	sub    BYTE PTR [edi],ah
  402a34:	add    BYTE PTR [eax],al
  402a36:	or     dl,BYTE PTR [esi]
  402a38:	adc    eax,DWORD PTR [esi+ebx*8]
  402a3b:	add    BYTE PTR [ecx],dl
  402a3d:	add    al,0x2a
  402a3f:	add    BYTE PTR [ecx+0x64],al
  402a42:	add    BYTE PTR [eax],al
  402a44:	add    BYTE PTR [eax],al
  402a46:	add    BYTE PTR [eax],al
  402a48:	xchg   edi,eax
  402a49:	add    BYTE PTR [eax],al
  402a4b:	add    BYTE PTR [ebx],dl
  402a4d:	add    BYTE PTR [eax],al
  402a4f:	add    BYTE PTR [edx+0x1b000000],ch
  402a55:	add    BYTE PTR [eax],al
  402a57:	add    BYTE PTR [edi],dh
  402a59:	add    BYTE PTR [eax],al
  402a5b:	add    DWORD PTR [eax],eax
  402a5d:	add    BYTE PTR [eax],al
  402a5f:	add    BYTE PTR [eax],al
  402a61:	add    BYTE PTR [eax],al
  402a63:	add    BYTE PTR [ecx+eax*1+0x0],cl
  402a67:	add    BYTE PTR [ecx+eax*1+0x0],cl
  402a6b:	add    BYTE PTR [eax],bl
  402a6d:	add    BYTE PTR [eax],al
  402a6f:	add    BYTE PTR [ecx],dh
  402a71:	add    BYTE PTR [eax],al
  402a73:	add    DWORD PTR [eax],eax
  402a75:	add    BYTE PTR [eax],al
  402a77:	add    BYTE PTR [eax],al
  402a79:	add    BYTE PTR [eax],al
  402a7b:	add    BYTE PTR [ecx+eax*1+0x0],cl
  402a7f:	add    BYTE PTR [ecx+eax*1+0x0],ah
  402a83:	add    BYTE PTR [eax],bl
  402a85:	add    BYTE PTR [eax],al
  402a87:	add    BYTE PTR [edi],dh
  402a89:	add    BYTE PTR [eax],al
  402a8b:	add    DWORD PTR [eax],eax
  402a8d:	add    BYTE PTR [eax],al
  402a8f:	add    BYTE PTR [eax],al
  402a91:	add    BYTE PTR [eax],al
  402a93:	add    BYTE PTR [ecx+eax*1+0x0],cl
  402a97:	add    BYTE PTR [ecx+eax*1+0x0],bh
  402a9b:	add    BYTE PTR [eax],bl
  402a9d:	add    BYTE PTR [eax],al
  402a9f:	add    BYTE PTR [esi],dh
  402aa1:	add    BYTE PTR [eax],al
  402aa3:	add    DWORD PTR [ebx],ebx
  402aa5:	xor    BYTE PTR [eax+eax*1],al
  402aa8:	sbb    BYTE PTR [ecx],al
  402aaa:	add    BYTE PTR [eax],al
  402aac:	pop    es
  402aad:	add    BYTE PTR [eax],al
  402aaf:	adc    DWORD PTR [edx],eax
  402ab1:	jnp    0x402abd
  402ab3:	add    BYTE PTR [eax],al
  402ab5:	add    al,0x6f
  402ab7:	inc    eax
  402ab8:	add    BYTE PTR [eax],al
  402aba:	or     cl,BYTE PTR [edx]
  402abc:	add    bh,BYTE PTR [ebx+0xa]
  402abf:	add    BYTE PTR [eax],al
  402ac1:	add    al,0x16
  402ac3:	outs   dx,DWORD PTR ds:[esi]
  402ac4:	inc    ecx
  402ac5:	add    BYTE PTR [eax],al
  402ac7:	or     al,BYTE PTR [edx]
  402ac9:	sub    BYTE PTR [edx+0x0],cl
  402acc:	add    BYTE PTR [esi],al
  402ace:	add    ch,BYTE PTR [eax]
  402ad0:	adc    BYTE PTR [eax],al
  402ad2:	add    BYTE PTR [esi],al
  402ad4:	add    bh,BYTE PTR [ebx+0xa]
  402ad7:	add    BYTE PTR [eax],al
  402ad9:	add    al,0x6f
  402adb:	xor    DWORD PTR [eax],eax
  402add:	add    BYTE PTR [edx],cl
  402adf:	sbb    BYTE PTR [eax],ch
  402ae1:	daa    
  402ae2:	add    BYTE PTR [eax],al
  402ae4:	or     al,BYTE PTR [edx]
  402ae6:	jnp    0x402af2
  402ae8:	add    BYTE PTR [eax],al
  402aea:	add    al,0x6
  402aec:	outs   dx,DWORD PTR ds:[esi]
  402aed:	inc    ecx
  402aee:	add    BYTE PTR [eax],al
  402af0:	or     bl,dh
  402af2:	adc    eax,0x2628020b
  402af7:	add    BYTE PTR [eax],al
  402af9:	push   es
  402afa:	pop    es
  402afb:	outs   dx,DWORD PTR ds:[esi]
  402afc:	add    BYTE PTR ds:[eax],al
  402aff:	or     dl,BYTE PTR [edi]
  402b01:	sub    BYTE PTR [edi],ah
  402b03:	add    BYTE PTR [eax],al
  402b05:	or     bl,dh
  402b07:	add    BYTE PTR [edx],al
  402b09:	jnp    0x402b15
  402b0b:	add    BYTE PTR [eax],al
  402b0d:	add    al,0x6f
  402b0f:	inc    eax
  402b10:	add    BYTE PTR [eax],al
  402b12:	or     ch,BYTE PTR [eiz*2+0x2a2802]
  402b19:	add    BYTE PTR [esi],al
  402b1b:	sbb    BYTE PTR [eax],ch
  402b1d:	sub    DWORD PTR [eax],eax
  402b1f:	add    BYTE PTR [edx],cl
  402b21:	sub    BYTE PTR [edx+0x0],al
  402b24:	add    BYTE PTR [edx],cl
  402b26:	outs   dx,DWORD PTR ds:[esi]
  402b27:	inc    ebx
  402b28:	add    BYTE PTR [eax],al
  402b2a:	or     ch,BYTE PTR [eax]
  402b2c:	inc    esp
  402b2d:	add    BYTE PTR [eax],al
  402b2f:	or     dh,BYTE PTR [edx+0x2c]
  402b32:	pop    es
  402b33:	add    BYTE PTR [eax+0x28],dh
  402b36:	inc    ebp
  402b37:	add    BYTE PTR [eax],al
  402b39:	or     cl,BYTE PTR [edx+esi*2]
  402b3c:	push   eax
  402b3d:	pop    es
  402b3e:	add    BYTE PTR [eax+0x2],dh
  402b41:	jnp    0x402b4d
  402b43:	add    BYTE PTR [eax],al
  402b45:	add    al,0x6f
  402b47:	xor    DWORD PTR [eax],eax
  402b49:	add    BYTE PTR [edx],cl
  402b4b:	jb     0x402ba1
  402b4d:	pop    es
  402b4e:	add    BYTE PTR [eax+0x28],dh
  402b51:	and    eax,0xd0a0000
  402b56:	jae    0x402b9e
  402b58:	add    BYTE PTR [eax],al
  402b5a:	or     dl,BYTE PTR [ebx]
  402b5c:	add    al,0x11
  402b5e:	add    al,0x8
  402b60:	or     DWORD PTR [ebx+0x47],esi
  402b63:	add    BYTE PTR [eax],al
  402b65:	or     ch,BYTE PTR [edi+0x48]
  402b68:	add    BYTE PTR [eax],al
  402b6a:	or     dl,BYTE PTR [ecx]
  402b6c:	add    al,0x6f
  402b6e:	dec    ecx
  402b6f:	add    BYTE PTR [eax],al
  402b71:	or     ah,BYTE PTR [esi]
  402b73:	adc    DWORD PTR [edi+ebp*2],eax
  402b76:	dec    edx
  402b77:	add    BYTE PTR [eax],al
  402b79:	or     al,BYTE PTR [edx]
  402b7b:	sub    BYTE PTR [ebp+0x0],al
  402b7e:	add    BYTE PTR [esi],al
  402b80:	fiadd  WORD PTR [ebp+0x13]
  402b83:	add    eax,0xc2802
  402b88:	add    BYTE PTR [esi],al
  402b8a:	adc    DWORD PTR ds:0x3e6f,eax
  402b90:	or     dl,BYTE PTR [edi]
  402b92:	sub    BYTE PTR [edi],ah
  402b94:	add    BYTE PTR [eax],al
  402b96:	or     bl,dh
  402b98:	adc    eax,DWORD PTR cs:[esi]
  402b9b:	add    ch,BYTE PTR [eax]
  402b9d:	adc    eax,DWORD PTR [eax]
  402b9f:	add    BYTE PTR [esi],al
  402ba1:	adc    DWORD PTR [esi],eax
  402ba3:	outs   dx,DWORD PTR ds:[esi]
  402ba4:	add    BYTE PTR ds:[eax],al
  402ba7:	or     dl,BYTE PTR [edi]
  402ba9:	sub    BYTE PTR [edi],ah
  402bab:	add    BYTE PTR [eax],al
  402bad:	or     bl,dh
  402baf:	pop    ss
  402bb0:	adc    eax,DWORD PTR [edi]
  402bb2:	add    ch,BYTE PTR [eax]
  402bb4:	sub    al,0x0
  402bb6:	add    BYTE PTR [esi],al
  402bb8:	adc    DWORD PTR [edi],eax
  402bba:	outs   dx,DWORD PTR ds:[esi]
  402bbb:	add    BYTE PTR ds:[eax],al
  402bbe:	or     dl,BYTE PTR [edi]
  402bc0:	sub    BYTE PTR [edi],ah
  402bc2:	add    BYTE PTR [eax],al
  402bc4:	or     bl,dh
  402bc6:	add    BYTE PTR [edx],ch
  402bc8:	add    DWORD PTR [eax+eax*1],esi
  402bcb:	add    BYTE PTR [eax],al
  402bcd:	add    BYTE PTR [eax],al
  402bcf:	add    BYTE PTR [ebx+0x43],al
  402bd2:	add    BYTE PTR ds:0x1000037,dl
  402bd8:	add    BYTE PTR [eax],al
  402bda:	pop    eax
  402bdb:	add    BYTE PTR [edx-0x2e],bh
  402bde:	add    BYTE PTR [edi],dl
  402be0:	xor    DWORD PTR [eax],eax
  402be2:	add    BYTE PTR [ecx],al
  402be4:	add    BYTE PTR [eax],al
  402be6:	pop    eax
  402be7:	add    BYTE PTR [edx-0x17],bh
  402bea:	add    BYTE PTR [edi],dl
  402bec:	aaa    
  402bed:	add    BYTE PTR [eax],al
  402bef:	add    DWORD PTR [eax],eax
  402bf1:	add    BYTE PTR [eax+0x0],bl
  402bf4:	jp     0x402bf6
  402bf6:	add    DWORD PTR [edi],edx
  402bf8:	add    BYTE PTR ss:[eax],al
  402bfb:	add    DWORD PTR [ebx],edx
  402bfd:	xor    BYTE PTR [eax+eax*1],al
  402c00:	or     eax,0x8000001
  402c05:	add    BYTE PTR [eax],al
  402c07:	adc    DWORD PTR [ebx+0x4b],esi
  402c0a:	add    BYTE PTR [eax],al
  402c0c:	or     cl,BYTE PTR [edx]
  402c0e:	push   es
  402c0f:	jb     0x402b9d
  402c11:	pop    es
  402c12:	add    BYTE PTR [eax+0x72],dh
  402c15:	mov    dh,0x7
  402c17:	add    BYTE PTR [eax+0x6f],dh
  402c1a:	dec    esp
  402c1b:	add    BYTE PTR [eax],al
  402c1d:	or     al,BYTE PTR [edx]
  402c1f:	jnp    0x402c2b
  402c21:	add    BYTE PTR [eax],al
  402c23:	add    al,0x6f
  402c25:	xor    al,BYTE PTR [eax]
  402c27:	add    BYTE PTR [edx],cl
  402c29:	sub    eax,0xba720612
  402c2e:	pop    es
  402c2f:	add    BYTE PTR [eax+0x72],dh
  402c32:	aam    0x7
  402c34:	add    BYTE PTR [eax+0x6f],dh
  402c37:	dec    esp
  402c38:	add    BYTE PTR [eax],al
  402c3a:	or     ch,BYTE PTR [ebx]
  402c3c:	adc    BYTE PTR [esi],al
  402c3e:	jb     0x402bfa
  402c40:	pop    es
  402c41:	add    BYTE PTR [eax+0x72],dh
  402c44:	and    cl,BYTE PTR [eax]
  402c46:	add    BYTE PTR [eax+0x6f],dh
  402c49:	dec    esp
  402c4a:	add    BYTE PTR [eax],al
  402c4c:	or     al,BYTE PTR [esi]
  402c4e:	jb     0x402cc0
  402c50:	or     BYTE PTR [eax],al
  402c52:	jo     0x402cc6
  402c54:	mov    dh,0x7
  402c56:	add    BYTE PTR [eax+0x6f],dh
  402c59:	dec    esp
  402c5a:	add    BYTE PTR [eax],al
  402c5c:	or     al,BYTE PTR [edx]
  402c5e:	jnp    0x402c6a
  402c60:	add    BYTE PTR [eax],al
  402c62:	add    al,0x6f
  402c64:	dec    ebp
  402c65:	add    BYTE PTR [eax],al
  402c67:	or     ch,BYTE PTR [eax+edx*1]
  402c6a:	push   es
  402c6b:	jb     0x402c03
  402c6d:	or     BYTE PTR [eax],al
  402c6f:	jo     0x402ce3
  402c71:	mov    dh,0x7
  402c73:	add    BYTE PTR [eax+0x6f],dh
  402c76:	dec    esp
  402c77:	add    BYTE PTR [eax],al
  402c79:	or     al,BYTE PTR [edx]
  402c7b:	jnp    0x402c87
  402c7d:	add    BYTE PTR [eax],al
  402c7f:	add    al,0x6f
  402c81:	dec    esi
  402c82:	add    BYTE PTR [eax],al
  402c84:	or     dl,BYTE PTR [edi]
  402c86:	xor    ebx,DWORD PTR [ebx]
  402c88:	push   es
  402c89:	jb     0x402c55
  402c8b:	or     BYTE PTR [eax],al
  402c8d:	jo     0x402ca6
  402c8f:	or     eax,0x4f280312
  402c94:	add    BYTE PTR [eax],al
  402c96:	or     ch,BYTE PTR [eax]
  402c98:	push   eax
  402c99:	add    BYTE PTR [eax],al
  402c9b:	or     ch,BYTE PTR [edi+0x4c]
  402c9e:	add    BYTE PTR [eax],al
  402ca0:	or     ch,BYTE PTR [ebx]
  402ca2:	sub    BYTE PTR [edx],al
  402ca4:	jnp    0x402cb0
  402ca6:	add    BYTE PTR [eax],al
  402ca8:	add    al,0x6f
  402caa:	dec    esi
  402cab:	add    BYTE PTR [eax],al
  402cad:	or     bl,BYTE PTR [eax]
  402caf:	xor    ebx,DWORD PTR [edx]
  402cb1:	push   es
  402cb2:	jb     0x402c7e
  402cb4:	or     BYTE PTR [eax],al
  402cb6:	jo     0x402cd0
  402cb8:	adc    eax,DWORD PTR [edx+edx*1]
  402cbb:	add    al,0x28
  402cbd:	dec    edi
  402cbe:	add    BYTE PTR [eax],al
  402cc0:	or     ch,BYTE PTR [eax]
  402cc2:	push   eax
  402cc3:	add    BYTE PTR [eax],al
  402cc5:	or     ch,BYTE PTR [edi+0x4c]
  402cc8:	add    BYTE PTR [eax],al
  402cca:	or     al,BYTE PTR [esi]
  402ccc:	outs   dx,DWORD PTR ds:[esi]
  402ccd:	push   ecx
  402cce:	add    BYTE PTR [eax],al
  402cd0:	or     ch,BYTE PTR [edi+0x52]
  402cd3:	add    BYTE PTR [eax],al
  402cd5:	or     cl,BYTE PTR [ebp+0x100002f]
  402cdb:	or     eax,DWORD PTR [esi]
  402cdd:	outs   dx,DWORD PTR ds:[esi]
  402cde:	push   ecx
  402cdf:	add    BYTE PTR [eax],al
  402ce1:	or     al,BYTE PTR [edi]
  402ce3:	push   ss
  402ce4:	outs   dx,DWORD PTR ds:[esi]
  402ce5:	push   ebx
  402ce6:	add    BYTE PTR [eax],al
  402ce8:	or     al,BYTE PTR [esi]
  402cea:	outs   dx,DWORD PTR ds:[esi]
  402ceb:	push   esp
  402cec:	add    BYTE PTR [eax],al
  402cee:	or     ch,BYTE PTR [edi+0x55]
  402cf1:	add    BYTE PTR [eax],al
  402cf3:	or     cl,BYTE PTR [ebp+0x100002f]
  402cf9:	or     al,0x6
  402cfb:	outs   dx,DWORD PTR ds:[esi]
  402cfc:	push   esp
  402cfd:	add    BYTE PTR [eax],al
  402cff:	or     cl,BYTE PTR [eax]
  402d01:	push   ss
  402d02:	outs   dx,DWORD PTR ds:[esi]
  402d03:	push   esi
  402d04:	add    BYTE PTR [eax],al
  402d06:	or     al,BYTE PTR [edx]
  402d08:	jnp    0x402d11
  402d0a:	add    BYTE PTR [eax],al
  402d0c:	add    al,0x7
  402d0e:	or     BYTE PTR [edi+0x57],ch
  402d11:	add    BYTE PTR [eax],al
  402d13:	or     ch,BYTE PTR [edx]
  402d15:	add    BYTE PTR [eax],al
  402d17:	add    BYTE PTR [ebx],al
  402d19:	xor    BYTE PTR [ebx],al
  402d1b:	add    BYTE PTR [edx+0x0],ch
  402d1e:	add    BYTE PTR [eax],al
  402d20:	add    BYTE PTR [eax],al
  402d22:	add    BYTE PTR [eax],al
  402d24:	add    ch,BYTE PTR [eax]
  402d26:	adc    DWORD PTR [eax],eax
  402d28:	add    BYTE PTR [esi],al
  402d2a:	sbb    BYTE PTR [eax],ch
  402d2c:	sub    DWORD PTR [eax],eax
  402d2e:	add    BYTE PTR [edx],cl
  402d30:	add    bh,BYTE PTR [ebx+0x7]
  402d33:	add    BYTE PTR [eax],al
  402d35:	add    al,0x7e
  402d37:	or     DWORD PTR [eax],eax
  402d39:	add    BYTE PTR [edi+ebp*2],al
  402d3c:	pop    eax
  402d3d:	add    BYTE PTR [eax],al
  402d3f:	or     ah,BYTE PTR [esi]
  402d41:	add    bh,BYTE PTR [ebx+0x7]
  402d44:	add    BYTE PTR [eax],al
  402d46:	add    al,0x6f
  402d48:	pop    ecx
  402d49:	add    BYTE PTR [eax],al
  402d4b:	or     al,BYTE PTR [edx]
  402d4d:	jnp    0x402d59
  402d4f:	add    BYTE PTR [eax],al
  402d51:	add    al,0x6f
  402d53:	xor    al,BYTE PTR [eax]
  402d55:	add    BYTE PTR [edx],cl
  402d57:	pop    ss
  402d58:	xor    edx,DWORD PTR [esi]
  402d5a:	add    bh,BYTE PTR [ebx+0x7]
  402d5d:	add    BYTE PTR [eax],al
  402d5f:	add    al,0xd0
  402d61:	xor    al,0x0
  402d63:	add    BYTE PTR [ecx],al
  402d65:	sub    BYTE PTR [ebx],bl
  402d67:	add    BYTE PTR [eax],al
  402d69:	or     ch,BYTE PTR [edi+0x5a]
  402d6c:	add    BYTE PTR [eax],al
  402d6e:	or     ah,BYTE PTR [esi]
  402d70:	add    ch,BYTE PTR [eax]
  402d72:	or     BYTE PTR [eax],al
  402d74:	add    BYTE PTR [esi],al
  402d76:	sub    BYTE PTR [eax+eax*1],bh
  402d79:	add    BYTE PTR [edx],cl
  402d7b:	add    bh,BYTE PTR [ebx+0x7]
  402d7e:	add    BYTE PTR [eax],al
  402d80:	add    al,0x6f
  402d82:	pop    ebx
  402d83:	add    BYTE PTR [eax],al
  402d85:	or     ah,BYTE PTR [esi]
  402d87:	add    ch,BYTE PTR [eax]
  402d89:	aas    
  402d8a:	add    BYTE PTR [eax],al
  402d8c:	push   es
  402d8d:	sub    dh,BYTE PTR [esi]
  402d8f:	add    bh,BYTE PTR [ebx+0x7]
  402d92:	add    BYTE PTR [eax],al
  402d94:	add    al,0x6f
  402d96:	pop    ebx
  402d97:	add    BYTE PTR [eax],al
  402d99:	or     ah,BYTE PTR [esi]
  402d9b:	sub    dl,BYTE PTR [ebx]
  402d9d:	xor    BYTE PTR [eax],cl
  402d9f:	add    BYTE PTR [ebx],cl
  402da1:	add    DWORD PTR [eax],eax
  402da3:	add    BYTE PTR [ecx],cl
  402da5:	add    BYTE PTR [eax],al
  402da7:	adc    DWORD PTR [edx],eax
  402da9:	jnp    0x402db2
  402dab:	add    BYTE PTR [eax],al
  402dad:	add    al,0x6f
  402daf:	pop    esp
  402db0:	add    BYTE PTR [eax],al
  402db2:	or     ah,BYTE PTR [esi]
  402db4:	add    bh,BYTE PTR [ebx+0x7]
  402db7:	add    BYTE PTR [eax],al
  402db9:	add    al,0x6f
  402dbb:	pop    ebp
  402dbc:	add    BYTE PTR [eax],al
  402dbe:	or     ah,BYTE PTR [esi]
  402dc0:	jae    0x402e20
  402dc2:	add    BYTE PTR [eax],al
  402dc4:	or     cl,BYTE PTR [edx]
  402dc6:	add    bh,BYTE PTR [ebx+0x7]
  402dc9:	add    BYTE PTR [eax],al
  402dcb:	add    al,0x6f
  402dcd:	pop    ebp
  402dce:	add    BYTE PTR [eax],al
  402dd0:	or     ch,BYTE PTR [eax]
  402dd2:	and    DWORD PTR [eax],eax
  402dd4:	add    BYTE PTR [edx],cl
  402dd6:	sub    eax,0x7b020611
  402ddb:	pop    es
  402ddc:	add    BYTE PTR [eax],al
  402dde:	add    al,0x6f
  402de0:	pop    ebp
  402de1:	add    BYTE PTR [eax],al
  402de3:	or     ch,BYTE PTR [edi+0x5f]
  402de6:	add    BYTE PTR [eax],al
  402de8:	or     al,BYTE PTR [edx]
  402dea:	jnp    0x402df3
  402dec:	add    BYTE PTR [eax],al
  402dee:	add    al,0x6f
  402df0:	pusha  
  402df1:	add    BYTE PTR [eax],al
  402df3:	or     ch,BYTE PTR [eax]
  402df5:	and    DWORD PTR [eax],eax
  402df7:	add    BYTE PTR [edx],cl
  402df9:	sub    eax,0x7b020611
  402dfe:	pop    es
  402dff:	add    BYTE PTR [eax],al
  402e01:	add    al,0x6f
  402e03:	pusha  
  402e04:	add    BYTE PTR [eax],al
  402e06:	or     ch,BYTE PTR [edi+0x5f]
  402e09:	add    BYTE PTR [eax],al
  402e0b:	or     dl,BYTE PTR [edi]
  402e0d:	lea    ebp,[edi]
  402e0f:	add    BYTE PTR [eax],al
  402e11:	add    DWORD PTR ds:0x28021609,ecx
  402e17:	dec    eax
  402e18:	add    BYTE PTR [eax],al
  402e1a:	push   es
  402e1b:	mov    ds:0xf4200b09,al
  402e20:	add    DWORD PTR [eax],eax
  402e22:	add    BYTE PTR [edx+eax*1],cl
  402e25:	jnp    0x402e31
  402e27:	add    BYTE PTR [eax],al
  402e29:	add    al,0x6f
  402e2b:	xor    al,BYTE PTR [eax]
  402e2d:	add    BYTE PTR [edx],cl
  402e2f:	sub    eax,0x4d280219
  402e34:	add    BYTE PTR [eax],al
  402e36:	push   es
  402e37:	pop    ss
  402e38:	add    edx,DWORD PTR [esi+eax*1]
  402e3b:	outs   dx,DWORD PTR ds:[esi]
  402e3c:	popa   
  402e3d:	add    BYTE PTR [eax],al
  402e3f:	or     dl,BYTE PTR [edi]
  402e41:	pop    es
  402e42:	or     BYTE PTR [edi+0x62],ch
  402e45:	add    BYTE PTR [eax],al
  402e47:	or     ch,BYTE PTR [ebx]
  402e49:	pop    ss
  402e4a:	add    ch,BYTE PTR [eax]
  402e4c:	dec    ebp
  402e4d:	add    BYTE PTR [eax],al
  402e4f:	push   es
  402e50:	sbb    BYTE PTR [ebx],al
  402e52:	adc    al,0x6
  402e54:	outs   dx,DWORD PTR ds:[esi]
  402e55:	popa   
  402e56:	add    BYTE PTR [eax],al
  402e58:	or     dl,BYTE PTR [edi]
  402e5a:	pop    es
  402e5b:	or     BYTE PTR [edi+0x62],ch
  402e5e:	add    BYTE PTR [eax],al
  402e60:	or     al,BYTE PTR [edx]
  402e62:	jnp    0x402e6e
  402e64:	add    BYTE PTR [eax],al
  402e66:	add    al,0x6f
  402e68:	dec    esi
  402e69:	add    BYTE PTR [eax],al
  402e6b:	or     dl,BYTE PTR [edi]
  402e6d:	xor    edx,DWORD PTR [edx]
  402e6f:	add    ch,BYTE PTR [eax]
  402e71:	dec    ebp
  402e72:	add    BYTE PTR [eax],al
  402e74:	push   es
  402e75:	outs   dx,DWORD PTR ds:[esi]
  402e76:	arpl   WORD PTR [eax],ax
  402e78:	add    BYTE PTR [edx],cl
  402e7a:	pop    ss
  402e7b:	outs   dx,DWORD PTR ds:[esi]
  402e7c:	add    BYTE PTR fs:[eax],al
  402e7f:	or     ch,BYTE PTR [edx]
  402e81:	add    bh,BYTE PTR [ebx+0xa]
  402e84:	add    BYTE PTR [eax],al
  402e86:	add    al,0x6f
  402e88:	dec    esi
  402e89:	add    BYTE PTR [eax],al
  402e8b:	or     bl,BYTE PTR [eax]
  402e8d:	xor    edx,DWORD PTR [edx]
  402e8f:	add    ch,BYTE PTR [eax]
  402e91:	dec    ebp
  402e92:	add    BYTE PTR [eax],al
  402e94:	push   es
  402e95:	outs   dx,DWORD PTR ds:[esi]
  402e96:	arpl   WORD PTR [eax],ax
  402e98:	add    BYTE PTR [edx],cl
  402e9a:	sbb    BYTE PTR [edi+0x64],ch
  402e9d:	add    BYTE PTR [eax],al
  402e9f:	or     ch,BYTE PTR [edx]
  402ea1:	add    ch,BYTE PTR [eax]
  402ea3:	dec    ebp
  402ea4:	add    BYTE PTR [eax],al
  402ea6:	push   es
  402ea7:	outs   dx,DWORD PTR ds:[esi]
  402ea8:	arpl   WORD PTR [eax],ax
  402eaa:	add    BYTE PTR [edx],cl
  402eac:	push   ss
  402ead:	outs   dx,DWORD PTR ds:[esi]
  402eae:	add    BYTE PTR fs:[eax],al
  402eb1:	or     ch,BYTE PTR [edx]
  402eb3:	add    BYTE PTR [ebx],dl
  402eb5:	xor    BYTE PTR [eax+eax*1],al
  402eb8:	add    BYTE PTR [eax],0x0
  402ebb:	add    BYTE PTR [edx],cl
  402ebd:	add    BYTE PTR [eax],al
  402ebf:	adc    DWORD PTR [edx+ecx*1],edx
  402ec2:	push   ss
  402ec3:	or     edx,DWORD PTR [eax+eiz*1]
  402ec6:	out    dx,al
  402ec7:	add    BYTE PTR [eax],al
  402ec9:	add    BYTE PTR [edx+edx*1],dl
  402ecc:	add    DWORD PTR [eax],ebp
  402ece:	data16 add BYTE PTR [eax],al
  402ed1:	push   es
  402ed2:	es pop es
  402ed4:	jae    0x402f3b
  402ed6:	add    BYTE PTR [eax],al
  402ed8:	or     cl,BYTE PTR [esp+edx*1]
  402edb:	and    dh,ch
  402edd:	add    BYTE PTR [eax],al
  402edf:	add    BYTE PTR [eax],cl
  402ee1:	adc    al,BYTE PTR [ecx]
  402ee3:	sub    BYTE PTR [esi+0x0],ah
  402ee6:	add    BYTE PTR [esi],al
  402ee8:	sub    BYTE PTR [edi+0x0],ah
  402eeb:	add    BYTE PTR [esi],al
  402eed:	sub    al,0x4f
  402eef:	adc    al,0x1c
  402ef1:	adc    al,0x12
  402ef3:	add    DWORD PTR [eax],ebp
  402ef5:	data16 add BYTE PTR [eax],al
  402ef8:	push   es
  402ef9:	es pop es
  402efb:	jae    0x402f62
  402efd:	add    BYTE PTR [eax],al
  402eff:	or     cl,BYTE PTR ds:0x12091c14
  402f05:	add    DWORD PTR [eax],ebp
  402f07:	data16 add BYTE PTR [eax],al
  402f0a:	push   es
  402f0b:	sub    BYTE PTR [edi+0x0],ah
  402f0e:	add    BYTE PTR [esi],al
  402f10:	sub    al,0x2c
  402f12:	sbb    cl,BYTE PTR [ebp+0x1000001]
  402f18:	adc    eax,DWORD PTR [ecx+edx*1]
  402f1b:	add    al,0x16
  402f1d:	jb     0x402f0b
  402f1f:	or     BYTE PTR [eax],al
  402f21:	jo     0x402ec5
  402f23:	adc    DWORD PTR [edi+edx*1],eax
  402f26:	or     BYTE PTR [edx+0x72180411],ah
  402f2c:	lock or BYTE PTR [eax],al
  402f2f:	jo     0x402ed3
  402f31:	adc    DWORD PTR [ecx+ebx*1],eax
  402f34:	or     DWORD PTR [edx+0x66280411],esp
  402f3a:	add    BYTE PTR [eax],al
  402f3c:	or     cl,BYTE PTR [edx]
  402f3e:	push   es
  402f3f:	sub    dh,BYTE PTR [esi+0x2]
  402f42:	sub    BYTE PTR [ebp+0x0],cl
  402f45:	add    BYTE PTR [esi],al
  402f47:	outs   dx,DWORD PTR ds:[esi]
  402f48:	arpl   WORD PTR [eax],ax
  402f4a:	add    BYTE PTR [edx],cl
  402f4c:	add    bh,BYTE PTR [ebx+0x7]
  402f4f:	add    BYTE PTR [eax],al
  402f51:	add    al,0x6f
  402f53:	pop    esp
  402f54:	add    BYTE PTR [eax],al
  402f56:	or     dl,BYTE PTR [edi+ebp*2]
  402f59:	add    BYTE PTR [bx+si],al
  402f5c:	or     ch,BYTE PTR [edx]
  402f5e:	add    BYTE PTR [eax],al
  402f60:	sbb    esi,DWORD PTR [eax]
  402f62:	add    al,BYTE PTR [eax]
  402f64:	add    BYTE PTR gs:[eax],al
  402f67:	add    BYTE PTR [eax+eax*1],cl
  402f6a:	add    BYTE PTR [ecx],dl
  402f6c:	add    bh,BYTE PTR [ebx+0xa]
  402f6f:	add    BYTE PTR [eax],al
  402f71:	add    al,0x6f
  402f73:	xor    al,BYTE PTR [eax]
  402f75:	add    BYTE PTR [edx],cl
  402f77:	sub    eax,0x4d28021d
  402f7c:	add    BYTE PTR [eax],al
  402f7e:	push   es
  402f7f:	outs   dx,DWORD PTR ds:[esi]
  402f80:	arpl   WORD PTR [eax],ax
  402f82:	add    BYTE PTR [edx],cl
  402f84:	add    bh,BYTE PTR [ebx+0x7]
  402f87:	add    BYTE PTR [eax],al
  402f89:	add    al,0x6f
  402f8b:	pop    esp
  402f8c:	add    BYTE PTR [eax],al
  402f8e:	or     ch,BYTE PTR [edi+0x68]
  402f91:	add    BYTE PTR [eax],al
  402f93:	or     ch,BYTE PTR [ebx]
  402f95:	or     eax,DWORD PTR [edx]
  402f97:	jnp    0x402fa0
  402f99:	add    BYTE PTR [eax],al
  402f9b:	add    al,0x6f
  402f9d:	imul   eax,DWORD PTR [eax],0x3de0a00
  402fa3:	or     al,BYTE PTR [esi]
  402fa5:	jp     0x402f85
  402fa7:	sub    BYTE PTR [edx],al
  402fa9:	sub    BYTE PTR [ebp+0x0],cl
  402fac:	add    BYTE PTR [esi],al
  402fae:	adc    eax,0x6a6f
  402fb3:	or     ah,BYTE PTR [esi]
  402fb5:	add    bh,BYTE PTR [ebx+0xa]
  402fb8:	add    BYTE PTR [eax],al
  402fba:	add    al,0x6f
  402fbc:	xor    al,BYTE PTR [eax]
  402fbe:	add    BYTE PTR [edx],cl
  402fc0:	pop    ss
  402fc1:	xor    ecx,DWORD PTR [edx+eax*1]
  402fc4:	jnp    0x402fcd
  402fc6:	add    BYTE PTR [eax],al
  402fc8:	add    al,0x6f
  402fca:	imul   eax,DWORD PTR [eax],0x0
  402fcd:	or     ah,BYTE PTR [esi]
  402fcf:	fsubr  QWORD PTR [edx]
  402fd1:	add    BYTE PTR [eax],al
  402fd3:	add    BYTE PTR [ecx],al
  402fd5:	sbb    al,0x0
  402fd7:	add    BYTE PTR [eax],al
  402fd9:	add    BYTE PTR [eax],al
  402fdb:	add    BYTE PTR [edi],dh
  402fdd:	aaa    
  402fde:	add    BYTE PTR [ebx],al
  402fe0:	add    BYTE PTR ss:[eax],al
  402fe3:	add    DWORD PTR [edx],eax
  402fe5:	add    BYTE PTR [eax],al
  402fe7:	add    BYTE PTR [esp+edi*1],bh
  402fea:	add    BYTE PTR [eax],ch
  402fec:	add    BYTE PTR [eax],al
  402fee:	add    BYTE PTR [eax],al
  402ff0:	sbb    esi,DWORD PTR [eax]
  402ff2:	add    eax,DWORD PTR [eax]
  402ff4:	pusha  
  402ff5:	add    BYTE PTR [eax],al
  402ff7:	add    BYTE PTR ds:0x3110000,cl
  402ffd:	adc    al,BYTE PTR [eax]
  402fff:	jle    0x40306d
  403001:	add    BYTE PTR [eax],al
  403003:	or     ch,BYTE PTR [eax]
  403005:	add    BYTE PTR gs:[eax],al
  403008:	push   es
  403009:	or     eax,DWORD PTR [edi]
  40300b:	sub    eax,0x7b00121a
  403010:	adc    DWORD PTR [eax],eax
  403012:	add    BYTE PTR [eax+ebp*1],al
  403015:	add    BYTE PTR fs:[eax],al
  403018:	push   es
  403019:	adc    al,BYTE PTR es:[eax]
  40301c:	jnp    0x403030
  40301e:	add    BYTE PTR [eax],al
  403020:	add    al,0x28
  403022:	add    BYTE PTR fs:[eax],al
  403025:	push   es
  403026:	fisubr WORD PTR es:[edi]
  403029:	or     al,0x8
  40302b:	jne    0x403072
  40302d:	add    BYTE PTR [eax],al
  40302f:	add    DWORD PTR ds:0x46750808,ebp
  403035:	add    BYTE PTR [eax],al
  403037:	add    DWORD PTR [edx+ebx*1],ebp
  40303a:	add    ebp,DWORD PTR [eax]
  40303c:	ins    DWORD PTR es:[edi],dx
  40303d:	add    BYTE PTR [eax],al
  40303f:	or     ah,BYTE PTR [esi]
  403041:	ficom  WORD PTR [ebx]
  403043:	add    ch,BYTE PTR es:[eax]
  403046:	adc    eax,0x17060000
  40304b:	sub    BYTE PTR [ecx],ch
  40304d:	add    BYTE PTR [eax],al
  40304f:	or     dl,BYTE PTR [esi]
  403051:	or     eax,0x1afe06de
  403056:	fiadd  WORD PTR [eax]
  403058:	pop    ss
  403059:	sub    cl,BYTE PTR [ecx]
  40305b:	sub    al,BYTE PTR [ecx]
  40305d:	sbb    al,0x0
  40305f:	add    BYTE PTR [eax],al
  403061:	add    BYTE PTR [esi],bh
  403063:	add    BYTE PTR [ecx],cl
  403065:	inc    edi
  403066:	add    BYTE PTR [ecx],dl
  403068:	add    DWORD PTR [eax],eax
  40306a:	add    BYTE PTR [ecx],al
  40306c:	add    BYTE PTR [eax],al
  40306e:	add    BYTE PTR [eax],al
  403070:	sub    eax,0x362f002d
  403075:	add    BYTE PTR [eax],al
  403077:	add    DWORD PTR [ebx],edx
  403079:	xor    BYTE PTR [ebx],al
  40307b:	add    BYTE PTR [edi],bh
  40307d:	add    BYTE PTR [eax],al
  40307f:	add    BYTE PTR [esi],cl
  403081:	add    BYTE PTR [eax],al
  403083:	adc    DWORD PTR [edx+ecx*1],edx
  403086:	jb     0x403008
  403088:	push   es
  403089:	add    BYTE PTR [eax+0xb],dh
  40308c:	pop    es
  40308d:	jb     0x403093
  40308f:	or     DWORD PTR [eax],eax
  403091:	jo     0x4030bb
  403093:	inc    ebp
  403094:	add    BYTE PTR [eax],al
  403096:	or     cl,BYTE PTR [ebx]
  403098:	jle    0x403108
  40309a:	add    BYTE PTR [eax],al
  40309c:	or     al,BYTE PTR [edi]
  40309e:	pop    ss
  40309f:	outs   dx,DWORD PTR ds:[esi]
  4030a0:	outs   dx,DWORD PTR ds:[esi]
  4030a1:	add    BYTE PTR [eax],al
  4030a3:	or     cl,BYTE PTR [edx]
  4030a5:	push   es
  4030a6:	sub    eax,0x6e7e19
  4030ab:	add    BYTE PTR [edx],cl
  4030ad:	pop    es
  4030ae:	outs   dx,DWORD PTR ds:[esi]
  4030af:	jo     0x4030b1
  4030b1:	add    BYTE PTR [edx],cl
  4030b3:	es jle 0x403124
  4030b6:	add    BYTE PTR [eax],al
  4030b8:	or     al,BYTE PTR [edi]
  4030ba:	pop    ss
  4030bb:	outs   dx,DWORD PTR ds:[esi]
  4030bc:	outs   dx,DWORD PTR ds:[esi]
  4030bd:	add    BYTE PTR [eax],al
  4030bf:	or     cl,BYTE PTR [edx]
  4030c1:	push   es
  4030c2:	sub    al,BYTE PTR [eax]
  4030c4:	add    esi,DWORD PTR [eax]
  4030c6:	add    eax,DWORD PTR [eax]
  4030c8:	inc    ebx
  4030c9:	add    BYTE PTR [eax],al
  4030cb:	add    BYTE PTR [eax],al
  4030cd:	add    BYTE PTR [eax],al
  4030cf:	add    BYTE PTR [edx],al
  4030d1:	jnp    0x4030db
  4030d3:	add    BYTE PTR [eax],al
  4030d5:	add    al,0x2d
  4030d7:	xor    al,0x2
  4030d9:	add    bh,BYTE PTR [ebx+0x7]
  4030dc:	add    BYTE PTR [eax],al
  4030de:	add    al,0x6f
  4030e0:	cmp    al,BYTE PTR [eax]
  4030e2:	add    BYTE PTR [edx],cl
  4030e4:	push   ss
  4030e5:	inc    BYTE PTR [ecx]
  4030e7:	jge    0x4030ef
  4030e9:	add    BYTE PTR [eax],al
  4030eb:	add    al,0x2
  4030ed:	jnp    0x4030f5
  4030ef:	add    BYTE PTR [eax],al
  4030f1:	add    al,0x2d
  4030f3:	or     eax,0x717302
  4030f8:	add    BYTE PTR [edx],cl
  4030fa:	jge    0x403104
  4030fc:	add    BYTE PTR [eax],al
  4030fe:	add    al,0x2b
  403100:	or     eax,DWORD PTR [edx]
  403102:	jae    0x403176
  403104:	add    BYTE PTR [eax],al
  403106:	or     bh,BYTE PTR [ebp+0x8]
  403109:	add    BYTE PTR [eax],al
  40310b:	add    al,0x2
  40310d:	jnp    0x403117
  40310f:	add    BYTE PTR [eax],al
  403111:	add    al,0x2a
  403113:	add    BYTE PTR [ebx],dl
  403115:	xor    BYTE PTR [ebx],al
  403117:	add    BYTE PTR [eax+eax*1+0x0],ah
  40311b:	add    BYTE PTR [edi],cl
  40311d:	add    BYTE PTR [eax],al
  40311f:	adc    DWORD PTR [edx+0x14],esi
  403122:	or     DWORD PTR [eax],eax
  403124:	jo     0x4030a6
  403126:	add    eax,DWORD PTR [eax]
  403128:	add    BYTE PTR [edx+esi*2],al
  40312b:	inc    edx
  40312c:	or     DWORD PTR [eax],eax
  40312e:	jo     0x4030b0
  403130:	add    al,0x0
  403132:	add    BYTE PTR [edx+esi*2],al
  403135:	jo     0x403140
  403137:	add    BYTE PTR [eax-0x80],dh
  40313a:	add    eax,0x1d040000
  40313f:	lea    ebp,[edi]
  403141:	add    BYTE PTR [eax],al
  403143:	add    DWORD PTR [edx],ecx
  403145:	push   es
  403146:	push   ss
  403147:	jb     0x4030f3
  403149:	or     DWORD PTR [eax],eax
  40314b:	jo     0x4030ef
  40314d:	push   es
  40314e:	pop    ss
  40314f:	jb     0x4030dd
  403151:	pop    es
  403152:	add    BYTE PTR [eax-0x5e],dh
  403155:	push   es
  403156:	sbb    BYTE PTR [edx-0x46],dh
  403159:	pop    es
  40315a:	add    BYTE PTR [eax-0x5e],dh
  40315d:	push   es
  40315e:	sbb    DWORD PTR [edx-0x4c],esi
  403161:	or     DWORD PTR [eax],eax
  403163:	jo     0x403107
  403165:	push   es
  403166:	sbb    dh,BYTE PTR [edx-0x36]
  403169:	or     BYTE PTR [eax],al
  40316b:	jo     0x40310f
  40316d:	push   es
  40316e:	sbb    esi,DWORD PTR [edx+0x70]
  403171:	or     BYTE PTR [eax],al
  403173:	jo     0x403117
  403175:	push   es
  403176:	sbb    al,0x72
  403178:	xchg   esi,eax
  403179:	or     BYTE PTR [eax],al
  40317b:	jo     0x40311f
  40317d:	push   es
  40317e:	or     BYTE PTR [ecx],0x0
  403181:	add    BYTE PTR [edx+ebp*1],al
  403184:	add    ch,BYTE PTR ss:[eax]
  403187:	jae    0x403189
  403189:	add    BYTE PTR [edx],cl
  40318b:	add    ch,BYTE PTR [eax]
  40318d:	push   eax
  40318e:	add    BYTE PTR [eax],al
  403190:	push   es
  403191:	sub    bh,BYTE PTR [esi]
  403193:	add    dl,BYTE PTR [edi]
  403195:	sub    BYTE PTR [eax+eax*1+0x0],dl
  403199:	push   es
  40319a:	add    dl,BYTE PTR [esi]
  40319c:	sub    BYTE PTR ds:0x2a0a0000,ch
  4031a2:	push   ds
  4031a3:	add    bh,BYTE PTR [ebx+0xb]
  4031a6:	add    BYTE PTR [eax],al
  4031a8:	add    al,0x2a
  4031aa:	and    al,BYTE PTR [edx]
  4031ac:	add    edi,DWORD PTR [ebp+0xb]
  4031af:	add    BYTE PTR [eax],al
  4031b1:	add    al,0x2a
  4031b3:	push   ds
  4031b4:	add    bh,BYTE PTR [ebx+0xc]
  4031b7:	add    BYTE PTR [eax],al
  4031b9:	add    al,0x2a
  4031bb:	and    al,BYTE PTR [edx]
  4031bd:	add    edi,DWORD PTR [ebp+0xc]
  4031c0:	add    BYTE PTR [eax],al
  4031c2:	add    al,0x2a
  4031c4:	adc    esi,DWORD PTR [eax]
  4031c6:	add    al,BYTE PTR [eax]
  4031c8:	adc    eax,DWORD PTR [eax]
  4031ca:	add    BYTE PTR [eax],al
  4031cc:	adc    BYTE PTR [eax],al
  4031ce:	add    BYTE PTR [ecx],dl
  4031d0:	jae    0x403235
  4031d2:	add    BYTE PTR [eax],al
  4031d4:	push   es
  4031d5:	or     ch,BYTE PTR [eax]
  4031d7:	pop    ebp
  4031d8:	add    BYTE PTR [eax],al
  4031da:	push   es
  4031db:	push   es
  4031dc:	add    ch,BYTE PTR [edi+0x56]
  4031df:	add    BYTE PTR [eax],al
  4031e1:	push   es
  4031e2:	sub    al,BYTE PTR [eax]
  4031e4:	sbb    esi,DWORD PTR [eax]
  4031e6:	add    eax,DWORD PTR [eax]
  4031e8:	bound  eax,QWORD PTR [eax]
  4031ea:	add    BYTE PTR [eax],al
  4031ec:	adc    DWORD PTR [eax],eax
  4031ee:	add    BYTE PTR [ecx],dl
  4031f0:	add    al,BYTE PTR [edx]
  4031f2:	sub    BYTE PTR [ecx+0x0],bl
  4031f5:	add    BYTE PTR [esi],al
  4031f7:	jge    0x403206
  4031f9:	add    BYTE PTR [eax],al
  4031fb:	add    al,0x2
  4031fd:	jae    0x403273
  4031ff:	add    BYTE PTR [eax],al
  403201:	or     bh,BYTE PTR [ebp+0xe]
  403204:	add    BYTE PTR [eax],al
  403206:	add    al,0x2
  403208:	jnp    0x403217
  40320a:	add    BYTE PTR [eax],al
  40320c:	add    al,0x6f
  40320e:	jne    0x403210
  403210:	add    BYTE PTR [edx],cl
  403212:	or     ebp,DWORD PTR [ebx]
  403214:	sbb    DWORD PTR [edi],eax
  403216:	outs   dx,DWORD PTR ds:[esi]
  403217:	jbe    0x403219
  403219:	add    BYTE PTR [edx],cl
  40321b:	or     al,BYTE PTR [edx]
  40321d:	jnp    0x40322d
  40321f:	add    BYTE PTR [eax],al
  403221:	add    al,0x6
  403223:	outs   dx,DWORD PTR ds:[esi]
  403224:	ja     0x403226
  403226:	add    BYTE PTR [edx],cl
  403228:	push   es
  403229:	outs   dx,DWORD PTR ds:[esi]
  40322a:	js     0x40322c
  40322c:	add    BYTE PTR [edx],cl
  40322e:	pop    es
  40322f:	outs   dx,DWORD PTR ds:[esi]
  403230:	jns    0x403232
  403232:	add    BYTE PTR [edx],cl
  403234:	sub    eax,0x70adedf
  403239:	sub    al,0x6
  40323b:	pop    es
  40323c:	outs   dx,DWORD PTR ds:[esi]
  40323d:	jp     0x40323f
  40323f:	add    BYTE PTR [edx],cl
  403241:	fadd   QWORD PTR [edx]
  403243:	add    ebp,DWORD PTR [eax]
  403245:	pop    eax
  403246:	add    BYTE PTR [eax],al
  403248:	push   es
  403249:	sub    al,0x6
  40324b:	add    ch,BYTE PTR [eax]
  40324d:	push   edi
  40324e:	add    BYTE PTR [eax],al
  403250:	push   es
  403251:	sub    al,BYTE PTR [eax]
  403253:	add    BYTE PTR [ecx],al
  403255:	adc    BYTE PTR [eax],al
  403257:	add    BYTE PTR [edx],al
  403259:	add    BYTE PTR [ebx],ah
  40325b:	add    BYTE PTR ds:0xa0048,ah
  403261:	add    BYTE PTR [eax],al
  403263:	add    BYTE PTR [edx+0x2],bh
  403266:	sub    BYTE PTR ds:0x18060000,ch
  40326c:	sub    BYTE PTR [edi+0x0],bl
  40326f:	add    BYTE PTR [esi],al
  403271:	sub    BYTE PTR [ebx+0x0],bh
  403274:	add    BYTE PTR [edx],cl
  403276:	add    bh,BYTE PTR es:[ebx+0xf]
  40327a:	add    BYTE PTR [eax],al
  40327c:	add    al,0x6f
  40327e:	jl     0x403280
  403280:	add    BYTE PTR [edx],cl
  403282:	sub    al,BYTE PTR [eax]
  403284:	adc    esi,DWORD PTR [eax]
  403286:	add    al,BYTE PTR [eax]
  403288:	aaa    
  403289:	add    BYTE PTR [eax],al
  40328b:	add    BYTE PTR [edx],dl
  40328d:	add    BYTE PTR [eax],al
  40328f:	adc    DWORD PTR [edx],eax
  403291:	(bad)  
  403293:	sub    BYTE PTR [ebx+0x0],bl
  403296:	add    BYTE PTR [esi],al
  403298:	sub    eax,0x22a1602
  40329d:	add    ebp,DWORD PTR [eax]
  40329f:	pop    edx
  4032a0:	add    BYTE PTR [eax],al
  4032a2:	push   es
  4032a3:	or     al,BYTE PTR [esi]
  4032a5:	sub    al,0x1e
  4032a7:	add    bh,BYTE PTR [ebx+0xf]
  4032aa:	add    BYTE PTR [eax],al
  4032ac:	add    al,0x6
  4032ae:	outs   dx,DWORD PTR ds:[esi]
  4032af:	jge    0x4032b1
  4032b1:	add    BYTE PTR [edx],cl
  4032b3:	sub    al,0x10
  4032b5:	add    bh,BYTE PTR [ebx+0xf]
  4032b8:	add    BYTE PTR [eax],al
  4032ba:	add    al,0x6
  4032bc:	outs   dx,DWORD PTR ds:[esi]
  4032bd:	jle    0x4032bf
  4032bf:	add    BYTE PTR [edx],cl
  4032c1:	sub    al,0x2
  4032c3:	pop    ss
  4032c4:	sub    dl,BYTE PTR [esi]
  4032c6:	sub    al,BYTE PTR [eax]
  4032c8:	adc    esi,DWORD PTR [eax]
  4032ca:	add    al,BYTE PTR [eax]
  4032cc:	sbb    DWORD PTR [eax],eax
  4032ce:	add    BYTE PTR [eax],al
  4032d0:	adc    eax,DWORD PTR [eax]
  4032d2:	add    BYTE PTR [ecx],dl
  4032d4:	jae    0x403355
  4032d6:	add    BYTE PTR [eax],al
  4032d8:	or     cl,BYTE PTR [edx]
  4032da:	push   es
  4032db:	add    dh,BYTE PTR [ebx+0x30]
  4032de:	add    BYTE PTR [eax],al
  4032e0:	push   es
  4032e1:	outs   dx,DWORD PTR ds:[esi]
  4032e2:	add    BYTE PTR [eax],0x0
  4032e5:	or     al,BYTE PTR [esi]
  4032e7:	jae    0x40326a
  4032e9:	add    BYTE PTR [eax],al
  4032eb:	or     ch,BYTE PTR [edx]
  4032ed:	add    bh,BYTE PTR ss:[ebx+0xf]
  4032f1:	add    BYTE PTR [eax],al
  4032f3:	add    al,0x3
  4032f5:	outs   dx,DWORD PTR ds:[esi]
  4032f6:	add    BYTE PTR [eax],0x0
  4032f9:	or     ch,BYTE PTR [edx]
  4032fb:	fiadd  DWORD PTR [ebx]
  4032fd:	push   eax
  4032fe:	sub    al,0x6
  403300:	add    edx,DWORD PTR [eax-0x72]
  403303:	imul   ebp,DWORD PTR ds:0x27280214,0x17060000
  40330d:	sub    BYTE PTR [edi+0x0],bl
  403310:	add    BYTE PTR [esi],al
  403312:	add    ch,BYTE PTR [eax]
  403314:	pop    esp
  403315:	add    BYTE PTR [eax],al
  403317:	push   es
  403318:	push   ss
  403319:	sub    al,BYTE PTR [edx]
  40331b:	add    bh,BYTE PTR [ebx+0xe]
  40331e:	add    BYTE PTR [eax],al
  403320:	add    al,0x72
  403322:	push   edx
  403323:	push   es
  403324:	add    BYTE PTR [eax+0x6f],dh
  403327:	add    DWORD PTR [eax],0x0
  40332a:	or     bh,BYTE PTR [ebp+0xf]
  40332d:	add    BYTE PTR [eax],al
  40332f:	add    al,0x17
  403331:	sub    al,BYTE PTR [eax]
  403333:	add    BYTE PTR [ebx],bl
  403335:	xor    BYTE PTR [ebx],al
  403337:	add    bh,al
  403339:	add    BYTE PTR [eax],al
  40333b:	add    BYTE PTR [ecx],dl
  40333d:	add    BYTE PTR [eax],al
  40333f:	adc    DWORD PTR [edx],eax
  403341:	sub    BYTE PTR [ecx],ah
  403343:	add    BYTE PTR [eax],al
  403345:	push   es
  403346:	sbb    BYTE PTR [eax],ch
  403348:	pop    edi
  403349:	add    BYTE PTR [eax],al
  40334b:	push   es
  40334c:	add    ch,BYTE PTR [eax]
  40334e:	push   ss
  40334f:	add    BYTE PTR [eax],al
  403351:	push   es
  403352:	sbb    BYTE PTR [eax],ch
  403354:	pop    edi
  403355:	add    BYTE PTR [eax],al
  403357:	push   es
  403358:	add    ch,BYTE PTR [eax]
  40335a:	sbb    al,BYTE PTR [eax]
  40335c:	add    BYTE PTR [esi],al
  40335e:	sbb    BYTE PTR [eax],ch
  403360:	pop    edi
  403361:	add    BYTE PTR [eax],al
  403363:	push   es
  403364:	add    ch,BYTE PTR [eax]
  403366:	pop    ss
  403367:	add    BYTE PTR [eax],al
  403369:	push   es
  40336a:	sbb    BYTE PTR [eax],ch
  40336c:	pop    edi
  40336d:	add    BYTE PTR [eax],al
  40336f:	push   es
  403370:	add    ch,BYTE PTR [eax]
  403372:	and    BYTE PTR [eax],al
  403374:	add    BYTE PTR [esi],al
  403376:	sbb    BYTE PTR [eax],ch
  403378:	pop    edi
  403379:	add    BYTE PTR [eax],al
  40337b:	push   es
  40337c:	add    ch,BYTE PTR [eax]
  40337e:	sbb    eax,0x18060000
  403383:	sub    BYTE PTR [edi+0x0],bl
  403386:	add    BYTE PTR [esi],al
  403388:	add    ch,BYTE PTR [eax]
  40338a:	sbb    eax,DWORD PTR [eax]
  40338c:	add    BYTE PTR [esi],al
  40338e:	sbb    BYTE PTR [eax],ch
  403390:	pop    edi
  403391:	add    BYTE PTR [eax],al
  403393:	push   es
  403394:	add    ch,BYTE PTR [eax]
  403396:	sbb    BYTE PTR [eax],al
  403398:	add    BYTE PTR [esi],al
  40339a:	sbb    BYTE PTR [eax],ch
  40339c:	pop    edi
  40339d:	add    BYTE PTR [eax],al
  40339f:	push   es
  4033a0:	add    ch,BYTE PTR [eax]
  4033a2:	pop    ds
  4033a3:	add    BYTE PTR [eax],al
  4033a5:	push   es
  4033a6:	sbb    BYTE PTR [eax],ch
  4033a8:	pop    edi
  4033a9:	add    BYTE PTR [eax],al
  4033ab:	push   es
  4033ac:	add    ch,BYTE PTR [eax]
  4033ae:	sbb    DWORD PTR [eax],eax
  4033b0:	add    BYTE PTR [esi],al
  4033b2:	sbb    BYTE PTR [eax],ch
  4033b4:	pop    edi
  4033b5:	add    BYTE PTR [eax],al
  4033b7:	push   es
  4033b8:	add    ch,BYTE PTR [eax]
  4033ba:	push   ds
  4033bb:	add    BYTE PTR [eax],al
  4033bd:	push   es
  4033be:	sbb    BYTE PTR [eax],ch
  4033c0:	pop    edi
  4033c1:	add    BYTE PTR [eax],al
  4033c3:	push   es
  4033c4:	add    ch,BYTE PTR [eax]
  4033c6:	sbb    al,0x0
  4033c8:	add    BYTE PTR [esi],al
  4033ca:	sbb    BYTE PTR [eax],ch
  4033cc:	pop    edi
  4033cd:	add    BYTE PTR [eax],al
  4033cf:	push   es
  4033d0:	add    bh,BYTE PTR [ebx+0xd]
  4033d3:	add    BYTE PTR [eax],al
  4033d5:	add    al,0x6f
  4033d7:	jne    0x4033d9
  4033d9:	add    BYTE PTR [edx],cl
  4033db:	or     ebp,DWORD PTR [ebx]
  4033dd:	adc    al,0x7
  4033df:	outs   dx,DWORD PTR ds:[esi]
  4033e0:	jbe    0x4033e2
  4033e2:	add    BYTE PTR [edx],cl
  4033e4:	or     al,BYTE PTR [edx]
  4033e6:	push   es
  4033e7:	outs   dx,DWORD PTR ds:[esi]
  4033e8:	test   BYTE PTR [eax],al
  4033ea:	add    BYTE PTR [edx],cl
  4033ec:	sbb    BYTE PTR [eax],ch
  4033ee:	pop    edi
  4033ef:	add    BYTE PTR [eax],al
  4033f1:	push   es
  4033f2:	pop    es
  4033f3:	outs   dx,DWORD PTR ds:[esi]
  4033f4:	jns    0x4033f6
  4033f6:	add    BYTE PTR [edx],cl
  4033f8:	sub    eax,0x70adee4
  4033fd:	sub    al,0x6
  4033ff:	pop    es
  403400:	outs   dx,DWORD PTR ds:[esi]
  403401:	jp     0x403403
  403403:	add    BYTE PTR [edx],cl
  403405:	fsubr  QWORD PTR [edx]
  403407:	add    BYTE PTR [ecx],al
  403409:	adc    BYTE PTR [eax],al
  40340b:	add    BYTE PTR [edx],al
  40340d:	add    BYTE PTR [eax+eax*1+0xa00bc20],bl
  403414:	add    BYTE PTR [eax],al
  403416:	add    BYTE PTR [eax],al
  403418:	adc    esi,DWORD PTR [eax]
  40341a:	add    eax,0x3800
  40341f:	add    BYTE PTR [eax+eax*1],dl
  403422:	add    BYTE PTR [ecx],dl
  403424:	sub    BYTE PTR [edx+0x0],al
  403427:	add    BYTE PTR [edx],cl
  403429:	outs   dx,DWORD PTR ds:[esi]
  40342a:	test   DWORD PTR [eax],eax
  40342c:	add    BYTE PTR [edx],cl
  40342e:	outs   dx,DWORD PTR ds:[esi]
  40342f:	xchg   BYTE PTR [eax],al
  403431:	add    BYTE PTR [edx],cl
  403433:	outs   dx,DWORD PTR ds:[esi]
  403434:	sub    al,0x0
  403436:	add    BYTE PTR [edx],cl
  403438:	or     ch,BYTE PTR [eax]
  40343a:	xchg   DWORD PTR [eax],eax
  40343c:	add    BYTE PTR [edx],cl
  40343e:	sub    BYTE PTR [eax+eax*1],ah
  403441:	add    BYTE PTR [esi],al
  403443:	pop    ss
  403444:	lea    eax,[ecx]
  403446:	add    BYTE PTR [eax],al
  403448:	add    DWORD PTR [eax+ecx*1],ecx
  40344b:	push   ss
  40344c:	push   es
  40344d:	mov    ds:0x882808,al
  403452:	add    BYTE PTR [edx],cl
  403454:	or     eax,DWORD PTR [edi]
  403456:	sub    BYTE PTR [ecx+0x2a0a0000],cl
  40345c:	mov    BYTE PTR [ebx],0x2d
  40345f:	adc    eax,0x8a28
  403464:	or     ch,BYTE PTR [eax]
  403466:	mov    eax,DWORD PTR [eax]
  403468:	add    BYTE PTR [edx],cl
  40346a:	sub    BYTE PTR [esi],ch
  40346c:	add    BYTE PTR [eax],al
  40346e:	push   es
  40346f:	sub    BYTE PTR [ebx+0x2a0a0000],cl
  403475:	add    edx,DWORD PTR [edi]
  403477:	xor    edx,DWORD PTR [eax+ebp*1]
  40347a:	mov    al,BYTE PTR [eax]
  40347c:	add    BYTE PTR [edx],cl
  40347e:	sub    BYTE PTR [ebx+0x280a0000],cl
  403484:	adc    al,0x0
  403486:	add    BYTE PTR [esi],al
  403488:	sub    BYTE PTR [ebx+0x2a0a0000],cl
  40348e:	sub    al,BYTE PTR [edx]
  403490:	add    edx,DWORD PTR [esp+eax*1]
  403493:	sub    BYTE PTR [eax+0x0],ah
  403496:	add    BYTE PTR [esi],al
  403498:	sub    al,BYTE PTR [eax]
  40349a:	add    BYTE PTR [eax],al
  40349c:	adc    esi,DWORD PTR [eax]
  40349e:	add    eax,DWORD PTR [eax]
  4034a0:	sub    al,0x0
  4034a2:	add    BYTE PTR [eax],al
  4034a4:	adc    eax,0x2110000
  4034a9:	add    eax,0x5e28
  4034ae:	push   es
  4034af:	add    al,0x2d
  4034b1:	add    al,0x3
  4034b3:	or     ch,BYTE PTR [ebx]
  4034b5:	or     eax,0x8728
  4034ba:	or     al,BYTE PTR [ebx]
  4034bc:	add    al,0x28
  4034be:	mov    BYTE PTR [eax],al
  4034c0:	add    BYTE PTR [edx],cl
  4034c2:	or     ch,BYTE PTR [eax]
  4034c4:	mov    al,BYTE PTR [eax]
  4034c6:	add    BYTE PTR [edx],cl
  4034c8:	sub    BYTE PTR [ebx+0x60a0000],cl
  4034ce:	sub    BYTE PTR [ebx+0x2a0a0000],cl
  4034d4:	push   ds
  4034d5:	add    ebp,DWORD PTR [eax]
  4034d7:	mov    eax,DWORD PTR [eax]
  4034d9:	add    BYTE PTR [edx],cl
  4034db:	sub    al,BYTE PTR [esi]
  4034dd:	sub    bl,BYTE PTR [esi]
  4034df:	add    ch,BYTE PTR [eax]
  4034e1:	sbb    DWORD PTR [eax],eax
  4034e3:	add    BYTE PTR [edx],cl
  4034e5:	sub    ch,BYTE PTR [esi]
  4034e7:	add    ah,BYTE PTR [eax]
  4034e9:	add    BYTE PTR [eax],al
  4034eb:	add    BYTE PTR [eax+0x1fe165f],al
  4034f1:	sub    al,BYTE PTR [eax]
  4034f3:	add    BYTE PTR [eax],al
  4034f5:	add    BYTE PTR [eax],al
  4034f7:	add    BYTE PTR [eax],bl
  4034f9:	sbb    BYTE PTR [eax],al
  4034fb:	add    dh,cl
  4034fd:	retf   0xbeef
  403500:	add    DWORD PTR [eax],eax
  403502:	add    BYTE PTR [eax],al
  403504:	xchg   ecx,eax
  403505:	add    BYTE PTR [eax],al
  403507:	add    BYTE PTR [ebx+edx*2+0x79],ch
  40350b:	jae    0x403581
  40350d:	gs ins DWORD PTR es:[edi],dx
  40350f:	cs push edx
  403511:	gs jae 0x403583
  403514:	jne    0x403588
  403516:	arpl   WORD PTR [ebp+0x73],sp
  403519:	cs push edx
  40351b:	gs jae 0x40358d
  40351e:	jne    0x403592
  403520:	arpl   WORD PTR [ebp+0x52],sp
  403523:	gs popa 
  403525:	fs gs jb 0x403555
  403529:	and    BYTE PTR [ebp+0x73],ch
  40352c:	arpl   WORD PTR [edi+0x72],bp
  40352f:	ins    BYTE PTR es:[edi],dx
  403530:	imul   esp,DWORD PTR [edx+0x2c],0x72655620
  403537:	jae    0x4035a2
  403539:	outs   dx,DWORD PTR ds:[esi]
  40353a:	outs   dx,BYTE PTR ds:[esi]
  40353b:	cmp    eax,0x2e302e34
  403540:	xor    BYTE PTR [esi],ch
  403542:	xor    BYTE PTR [eax+eiz*1],ch
  403545:	inc    ebx
  403546:	jne    0x4035b4
  403548:	je     0x4035bf
  40354a:	jb     0x4035b1
  40354c:	cmp    eax,0x7475656e
  403551:	jb     0x4035b4
  403553:	ins    BYTE PTR es:[edi],dx
  403554:	sub    al,0x20
  403556:	push   eax
  403557:	jne    0x4035bb
  403559:	ins    BYTE PTR es:[edi],dx
  40355a:	imul   esp,DWORD PTR [ebx+0x4b],0x6f547965
  403561:	imul   esp,DWORD PTR [ebp+0x6e],0x3d
  403565:	bound  esi,QWORD PTR [edi]
  403567:	aaa    
  403568:	popa   
  403569:	xor    eax,0x31363563
  40356e:	cmp    DWORD PTR [ebx],esi
  403570:	xor    al,0x65
  403572:	xor    BYTE PTR [eax],bh
  403574:	cmp    DWORD PTR [ebx],esp
  403576:	push   ebx
  403577:	jns    0x4035ec
  403579:	je     0x4035e0
  40357b:	ins    DWORD PTR es:[edi],dx
  40357c:	cs push edx
  40357e:	gs jae 0x4035f0
  403581:	jne    0x4035f5
  403583:	arpl   WORD PTR [ebp+0x73],sp
  403586:	cs push edx
  403588:	jne    0x4035f8
  40358a:	je     0x4035f5
  40358c:	ins    DWORD PTR es:[edi],dx
  40358d:	gs push edx
  40358f:	gs jae 0x403601
  403592:	jne    0x403606
  403594:	arpl   WORD PTR [ebp+0x53],sp
  403597:	gs je  0x40359c
  40359a:	add    BYTE PTR [eax],al
  40359c:	add    BYTE PTR [edx],ch
  40359e:	add    BYTE PTR [eax],al
  4035a0:	add    BYTE PTR [eax],al
  4035a2:	add    BYTE PTR [eax],al
  4035a4:	add    BYTE PTR [eax+0x41],dl
  4035a7:	inc    esp
  4035a8:	push   eax
  4035a9:	inc    ecx
  4035aa:	inc    esp
  4035ab:	push   eax
  4035ac:	iret   
  4035ad:	mov    edx,0x81cd884d
  4035b2:	pop    es
  4035b3:	pop    DWORD PTR [edx+0x1e9015b5]
  4035b9:	and    eax,DWORD PTR [eax-0x6a]
  4035bc:	push   ebp
  4035bd:	inc    ecx
  4035be:	add    ebx,DWORD PTR [ecx-0x61e2c18f]
  4035c4:	aad    0x2
  4035c6:	xor    bl,BYTE PTR [esi-0x603c7e8d]
  4035cc:	dec    ebx
  4035cd:	stos   BYTE PTR es:[edi],al
  4035ce:	cmps   DWORD PTR ds:[esi],DWORD PTR es:[edi]
  4035cf:	movs   DWORD PTR es:[edi],DWORD PTR ds:[esi]
  4035d0:	or     bl,BYTE PTR [ebx-0x21b14ed0]
  4035d6:	(bad)
  4035d9:	xor    al,0xd5
  4035db:	(bad)  
  4035dc:	shr    DWORD PTR [ebp+edx*8+0x59f30d8],cl
  4035e3:	fcomp  QWORD PTR [ebx]
  4035e5:	jecxz  0x403618
  4035e7:	fst    QWORD PTR [eax-0x3a]
  4035ea:	jae    0x4035c9
  4035ec:	jl     0x4035b9
  4035ee:	and    esp,0xecd04bb2
  4035f4:	cmp    BYTE PTR [esp+eax*1-0x558cd611],dl
  4035fb:	clc    
  4035fc:	xchg   BYTE PTR [ebp+0x35],bl
  4035ff:	cli    
  403600:	out    dx,al
  403601:	std    
  403602:	(bad)  
  403603:	or     al,BYTE PTR [ecx+edi*8-0x28]
  403607:	or     ah,bh
  403609:	mov    cl,0xe8
  40360b:	push   cs
  40360c:	dec    ecx
  40360d:	adc    al,0x8d
  40360f:	push   ds
  403610:	adc    edi,DWORD PTR [esi]
  403612:	imul   esp,DWORD PTR [edi],0xffffffcd
  403615:	rcr    BYTE PTR [eax+0xe52952c],0x2f
  40361c:	xchg   esi,eax
  40361d:	je     0x403638
  40361f:	xor    DWORD PTR [eax],esp
  403621:	xor    dl,BYTE PTR [eax-0x216f72ca]
  403627:	aas    
  403628:	adc    BYTE PTR [edi],bh
  40362a:	push   edi
  40362b:	inc    eax
  40362c:	push   es
  40362d:	mov    al,ds:0x36fe47e6
  403632:	jp     0x40367f
  403634:	add    al,0x99
  403636:	stos   DWORD PTR es:[edi],eax
  403637:	dec    edi
  403638:	mov    esi,0xd160eb85
  40363d:	fnsave [edi]
  40363f:	push   0x69ae2f32
  403644:	lds    edx,FWORD PTR [ebx+esi*4+0x69]
  403648:	jno    0x4035f6
  40364a:	mov    al,0x74
  40364c:	cdq    
  40364d:	pushf  
  40364e:	nop
  40364f:	ja     0x403623
  403651:	inc    ecx
  403652:	aad    0x77
  403654:	ja     0x403657
  403656:	add    BYTE PTR [eax],al
  403658:	js     0x40365e
  40365a:	add    BYTE PTR [eax],al
  40365c:	dec    ebx
  40365d:	add    al,0x0
  40365f:	add    BYTE PTR [ebx+eax*1+0x0],ah
  403663:	add    BYTE PTR [ebx+0x3],cl
  403666:	add    BYTE PTR [eax],al
  403668:	xor    al,0x4
  40366a:	add    BYTE PTR [eax],al
  40366c:	sbb    eax,0x1b000004
  403671:	add    al,BYTE PTR [eax]
  403673:	add    BYTE PTR [eax-0x38fffffd],bl
  403679:	add    DWORD PTR [eax],eax
  40367b:	add    BYTE PTR [ebp+eax*1+0x1f00000],bh
  403682:	add    BYTE PTR [eax],al
  403684:	or     BYTE PTR [esi],al
  403686:	add    BYTE PTR [eax],al
  403688:	inc    esp
  403689:	add    DWORD PTR [eax],eax
  40368b:	add    BYTE PTR [ebp-0x41fffffe],cl
  403691:	add    al,BYTE PTR [eax]
  403693:	add    ch,ch
  403695:	add    eax,DWORD PTR [eax]
  403697:	add    BYTE PTR [ebx],dl
  403699:	add    eax,DWORD PTR [eax]
  40369b:	add    BYTE PTR [ecx-0x1ffffffd],dh
  4036a1:	add    al,0x0
  4036a3:	add    ah,bl
  4036a5:	add    BYTE PTR [eax],al
  4036a7:	add    BYTE PTR [ebx+0x51000004],ch
  4036ad:	add    eax,0x5df0000
  4036b2:	add    BYTE PTR [eax],al
  4036b4:	fwait
  4036b5:	add    eax,0x24c0000
  4036ba:	add    BYTE PTR [eax],al
  4036bc:	add    BYTE PTR [eax],al
  4036be:	add    BYTE PTR [eax],al
  4036c0:	ins    BYTE PTR es:[edi],dx
  4036c1:	add    BYTE PTR [eax],al
  4036c3:	add    BYTE PTR [edx-0x26ffffff],bl
  4036c9:	add    al,BYTE PTR [eax]
  4036cb:	add    BYTE PTR [eax+0x5],dh
  4036ce:	add    BYTE PTR [eax],al
  4036d0:	cmp    eax,DWORD PTR [eax]
  4036d2:	add    BYTE PTR [eax],al
  4036d4:	or     eax,DWORD PTR [ecx]
  4036d6:	add    BYTE PTR [eax],al
  4036d8:	xor    al,0x5
  4036da:	add    BYTE PTR [eax],al
  4036dc:	jge    0x4036e1
  4036de:	add    BYTE PTR [eax],al
  4036e0:	movs   DWORD PTR es:[edi],DWORD PTR ds:[esi]
  4036e1:	add    BYTE PTR [eax],al
  4036e3:	add    al,dh
  4036e5:	add    al,BYTE PTR [eax]
  4036e7:	add    BYTE PTR ds:0x36000006,bl
  4036ed:	add    eax,DWORD PTR [eax]
  4036ef:	add    BYTE PTR [ebx],cl
  4036f1:	add    eax,0x40a0000
  4036f6:	add    BYTE PTR [eax],al
  4036f8:	aam    0x3
  4036fa:	add    BYTE PTR [eax],al
  4036fc:	cmp    al,0x8
  4036fe:	add    BYTE PTR [eax],al
  403700:	ss inc ecx
  403702:	add    BYTE PTR [ebx+0x0],dl
  403705:	push   eax
  403706:	add    BYTE PTR [ebp+0x0],al
  403709:	js     0x40370b
  40370b:	add    BYTE PTR gs:[ebx+0x0],ah
  40370f:	jne    0x403711
  403711:	je     0x403713
  403713:	add    BYTE PTR gs:[ebx+0x0],dl
  403717:	je     0x403719
  403719:	add    BYTE PTR gs:[eax+0x0],dh
  40371d:	inc    ecx
  40371e:	add    BYTE PTR [eax+eax*1+0x74],dh
  403722:	add    BYTE PTR [ecx+0x0],ah
  403725:	arpl   WORD PTR [eax],ax
  403727:	push   0x6f004d00
  40372c:	add    BYTE PTR [esi+0x0],ch
  40372f:	imul   eax,DWORD PTR [eax],0x6f0074
  403735:	jb     0x403737
  403737:	add    BYTE PTR [eax],al
  403739:	add    BYTE PTR [eax],al
  40373b:	sub    al,0x41
  40373d:	add    BYTE PTR [ebx+0x0],dl
  403740:	push   eax
  403741:	add    BYTE PTR [ebp+0x0],al
  403744:	js     0x403746
  403746:	add    BYTE PTR gs:[ebx+0x0],ah
  40374a:	jne    0x40374c
  40374c:	je     0x40374e
  40374e:	add    BYTE PTR gs:[ebx+0x0],dl
  403752:	je     0x403754
  403754:	add    BYTE PTR gs:[eax+0x0],dh
  403758:	inc    ebp
  403759:	add    BYTE PTR [esi+0x0],ch
  40375c:	jbe    0x40375e
  40375e:	push   ebx
  40375f:	add    BYTE PTR [ebp+0x0],ah
  403762:	je     0x403764
  403764:	jne    0x403766
  403766:	jo     0x403768
  403768:	and    DWORD PTR [eax],eax
  40376a:	add    BYTE PTR [eax],al
  40376c:	xor    al,0x41
  40376e:	add    BYTE PTR [ebx+0x0],dl
  403771:	push   eax
  403772:	add    BYTE PTR [ebp+0x0],al
  403775:	js     0x403777
  403777:	add    BYTE PTR gs:[ebx+0x0],ah
  40377b:	jne    0x40377d
  40377d:	je     0x40377f
  40377f:	add    BYTE PTR gs:[ebx+0x0],dl
  403783:	je     0x403785
  403785:	add    BYTE PTR gs:[eax+0x0],dh
  403789:	dec    esp
  40378a:	add    BYTE PTR [ecx+0x0],ah
  40378d:	jne    0x40378f
  40378f:	outs   dx,BYTE PTR ds:[esi]
  403790:	add    BYTE PTR [ebx+0x0],ah
  403793:	push   0x6e006900
  403798:	add    BYTE PTR [edi+0x0],ah
  40379b:	inc    ecx
  40379c:	add    BYTE PTR [ebx+0x0],dl
  40379f:	push   eax
  4037a0:	add    BYTE PTR [esi+0x0],al
  4037a3:	add    BYTE PTR [eax],al
  4037a5:	xor    al,BYTE PTR [ecx+0x0]
  4037a8:	push   ebx
  4037a9:	add    BYTE PTR [eax+0x0],dl
  4037ac:	inc    ebp
  4037ad:	add    BYTE PTR [eax+0x0],bh
  4037b0:	add    BYTE PTR gs:[ebx+0x0],ah
  4037b4:	jne    0x4037b6
  4037b6:	je     0x4037b8
  4037b8:	add    BYTE PTR gs:[ebx+0x0],dl
  4037bc:	je     0x4037be
  4037be:	add    BYTE PTR gs:[eax+0x0],dh
  4037c2:	push   edx
  4037c3:	add    BYTE PTR [ebp+0x0],ah
  4037c6:	jae    0x4037c8
  4037c8:	je     0x4037ca
  4037ca:	popa   
  4037cb:	add    BYTE PTR [edx+0x0],dh
  4037ce:	je     0x4037d0
  4037d0:	push   edi
  4037d1:	add    BYTE PTR [ebx],dh
  4037d3:	add    BYTE PTR [edi+0x0],dl
  4037d6:	push   eax
  4037d7:	add    BYTE PTR [eax+eax*1+0x0],ah
  4037db:	add    BYTE PTR [edx],ch
  4037dd:	inc    ecx
  4037de:	add    BYTE PTR [ebx+0x0],dl
  4037e1:	push   eax
  4037e2:	add    BYTE PTR [ebp+0x0],al
  4037e5:	js     0x4037e7
  4037e7:	add    BYTE PTR gs:[ebx+0x0],ah
  4037eb:	jne    0x4037ed
  4037ed:	je     0x4037ef
  4037ef:	add    BYTE PTR gs:[ebx+0x0],dl
  4037f3:	je     0x4037f5
  4037f5:	add    BYTE PTR gs:[eax+0x0],dh
  4037f9:	push   ebx
  4037fa:	add    BYTE PTR [eax+eax*1+0x61],dh
  4037fe:	add    BYTE PTR [edx+0x0],dh
  403801:	je     0x403803
  403803:	dec    ecx
  403804:	add    BYTE PTR [ebp+0x0],al
  403807:	jl     0x403809
  403809:	add    BYTE PTR [eax],al
  40380b:	xor    al,0x41
  40380d:	add    BYTE PTR [ebx+0x0],dl
  403810:	push   eax
  403811:	add    BYTE PTR [ebp+0x0],al
  403814:	js     0x403816
  403816:	add    BYTE PTR gs:[ebx+0x0],ah
  40381a:	jne    0x40381c
  40381c:	je     0x40381e
  40381e:	add    BYTE PTR gs:[ebx+0x0],dl
  403822:	je     0x403824
  403824:	add    BYTE PTR gs:[eax+0x0],dh
  403828:	push   ebx
  403829:	add    BYTE PTR [eax+eax*1+0x61],dh
  40382d:	add    BYTE PTR [edx+0x0],dh
  403830:	je     0x403832
  403832:	dec    ebp
  403833:	add    BYTE PTR [edi+0x0],ch
  403836:	outs   dx,BYTE PTR ds:[esi]
  403837:	add    BYTE PTR [ecx+0x0],ch
  40383a:	je     0x40383c
  40383c:	outs   dx,DWORD PTR ds:[esi]
  40383d:	add    BYTE PTR [edx+0x0],dh
  403840:	call   0x41:0x2e000000
  403847:	push   ebx
  403848:	add    BYTE PTR [eax+0x0],dl
  40384b:	inc    ebp
  40384c:	add    BYTE PTR [eax+0x0],bh
  40384f:	add    BYTE PTR gs:[ebx+0x0],ah
  403853:	jne    0x403855
  403855:	je     0x403857
  403857:	add    BYTE PTR gs:[ebx+0x0],dl
  40385b:	je     0x40385d
  40385d:	add    BYTE PTR gs:[eax+0x0],dh
  403861:	push   edi
  403862:	add    BYTE PTR [ebp+0x0],ah
  403865:	bound  eax,QWORD PTR [eax]
  403867:	inc    ebx
  403868:	add    BYTE PTR [edi+0x0],ch
  40386b:	outs   dx,BYTE PTR ds:[esi]
  40386c:	add    BYTE PTR [esi+0x0],ah
  40386f:	imul   eax,DWORD PTR [eax],0xaf0067
  403875:	add    BYTE PTR [eax],al
  403877:	push   ds
  403878:	inc    ecx
  403879:	add    BYTE PTR [ebx+0x0],dl
  40387c:	push   eax
  40387d:	add    BYTE PTR [esi+0x0],cl
  403880:	add    BYTE PTR gs:[eax+eax*1+0x45],dh
  403885:	add    BYTE PTR [eax+0x0],bh
  403888:	arpl   WORD PTR [eax],ax
  40388a:	add    BYTE PTR gs:[eax+0x0],dh
  40388e:	je     0x403890
  403890:	imul   eax,DWORD PTR [eax],0x6e006f
  403896:	enter  0x0,0x0
  40389a:	sub    BYTE PTR [ecx+0x0],al
  40389d:	push   ebx
  40389e:	add    BYTE PTR [eax+0x0],dl
  4038a1:	dec    esi
  4038a2:	add    BYTE PTR [ebp+0x0],ah
  4038a5:	je     0x4038a7
  4038a7:	dec    ecx
  4038a8:	add    BYTE PTR [esi+0x0],ch
  4038ab:	jbe    0x4038ad
  4038ad:	popa   
  4038ae:	add    BYTE PTR [eax+eax*1+0x69],ch
  4038b2:	add    BYTE PTR [eax+eax*1+0x53],ah
  4038b6:	add    BYTE PTR [ecx+0x0],ch
  4038b9:	je     0x4038bb
  4038bb:	add    BYTE PTR gs:[ecx+0x0],al
  4038bf:	jb     0x4038c1
  4038c1:	addr16 add dh,ch
  4038c4:	add    BYTE PTR [eax],al
  4038c6:	add    BYTE PTR [ecx+eax*2],ah
  4038c9:	add    BYTE PTR [ebx+0x0],dl
  4038cc:	push   eax
  4038cd:	add    BYTE PTR [esi+0x0],cl
  4038d0:	add    BYTE PTR gs:[eax+eax*1+0x53],dh
  4038d5:	add    BYTE PTR [ecx+0x0],ah
  4038d8:	ins    DWORD PTR es:[edi],dx
  4038d9:	add    BYTE PTR [eax+0x0],dh
  4038dc:	ins    BYTE PTR es:[edi],dx
  4038dd:	add    BYTE PTR [ecx+0x0],ch
  4038e0:	outs   dx,BYTE PTR ds:[esi]
  4038e1:	add    BYTE PTR [edi+0x0],ah
  4038e4:	dec    eax
  4038e5:	add    BYTE PTR [ebp+0x0],ah
  4038e8:	ins    BYTE PTR es:[edi],dx
  4038e9:	add    BYTE PTR [eax+0x0],dh
  4038ec:	add    BYTE PTR [ecx],0x0
  4038ef:	add    BYTE PTR [esi],ah
  4038f1:	inc    ecx
  4038f2:	add    BYTE PTR [ebx+0x0],dl
  4038f5:	push   eax
  4038f6:	add    BYTE PTR [esi+0x0],cl
  4038f9:	add    BYTE PTR gs:[eax+eax*1+0x53],dh
  4038fe:	add    BYTE PTR [ecx+0x0],ah
  403901:	ins    DWORD PTR es:[edi],dx
  403902:	add    BYTE PTR [eax+0x0],dh
  403905:	ins    BYTE PTR es:[edi],dx
  403906:	add    BYTE PTR [ecx+0x0],ch
  403909:	outs   dx,BYTE PTR ds:[esi]
  40390a:	add    BYTE PTR [edi+0x0],ah
  40390d:	push   edx
  40390e:	add    BYTE PTR [ebp+0x0],ah
  403911:	popa   
  403912:	add    BYTE PTR [eax+eax*1+0x79],ah
  403916:	add    ch,bh
  403918:	add    DWORD PTR [eax],eax
  40391a:	add    BYTE PTR [ecx+eax*2],ch
  40391d:	add    BYTE PTR [ebx+0x0],dl
  403920:	push   eax
  403921:	add    BYTE PTR [esi+0x0],cl
  403924:	add    BYTE PTR gs:[eax+eax*1+0x53],dh
  403929:	add    BYTE PTR [ecx+0x0],ah
  40392c:	ins    DWORD PTR es:[edi],dx
  40392d:	add    BYTE PTR [eax+0x0],dh
  403930:	ins    BYTE PTR es:[edi],dx
  403931:	add    BYTE PTR [ecx+0x0],ch
  403934:	outs   dx,BYTE PTR ds:[esi]
  403935:	add    BYTE PTR [edi+0x0],ah
  403938:	push   ebx
  403939:	add    BYTE PTR [eax+0x0],ch
  40393c:	jne    0x40393e
  40393e:	je     0x403940
  403940:	add    BYTE PTR fs:[edi+0x0],ch
  403944:	ja     0x403946
  403946:	outs   dx,BYTE PTR ds:[esi]
  403947:	add    BYTE PTR [edi+0x2],cl
  40394a:	add    BYTE PTR [eax],al
  40394c:	cmp    al,0x41
  40394e:	add    BYTE PTR [ebx+0x0],dl
  403951:	push   eax
  403952:	add    BYTE PTR [esi+0x0],cl
  403955:	add    BYTE PTR gs:[eax+eax*1+0x53],dh
  40395a:	add    BYTE PTR [ecx+0x0],ah
  40395d:	ins    DWORD PTR es:[edi],dx
  40395e:	add    BYTE PTR [eax+0x0],dh
  403961:	ins    BYTE PTR es:[edi],dx
  403962:	add    BYTE PTR [ecx+0x0],ch
  403965:	outs   dx,BYTE PTR ds:[esi]
  403966:	add    BYTE PTR [edi+0x0],ah
  403969:	push   ebx
  40396a:	add    BYTE PTR [eax+0x0],ch
  40396d:	jne    0x40396f
  40396f:	je     0x403971
  403971:	add    BYTE PTR fs:[edi+0x0],ch
  403975:	ja     0x403977
  403977:	outs   dx,BYTE PTR ds:[esi]
  403978:	add    BYTE PTR [ebx+0x0],dl
  40397b:	je     0x40397d
  40397d:	popa   
  40397e:	add    BYTE PTR [edx+0x0],dh
  403981:	je     0x403983
  403983:	imul   eax,DWORD PTR [eax],0x67006e
  403989:	mov    WORD PTR [edx],es
  40398b:	add    BYTE PTR [eax],al
  40398d:	sub    al,0x41
  40398f:	add    BYTE PTR [ebx+0x0],dl
  403992:	push   eax
  403993:	add    BYTE PTR [esi+0x0],cl
  403996:	add    BYTE PTR gs:[eax+eax*1+0x53],dh
  40399b:	add    BYTE PTR [ecx+0x0],ah
  40399e:	ins    DWORD PTR es:[edi],dx
  40399f:	add    BYTE PTR [eax+0x0],dh
  4039a2:	ins    BYTE PTR es:[edi],dx
  4039a3:	add    BYTE PTR [ecx+0x0],ch
  4039a6:	outs   dx,BYTE PTR ds:[esi]
  4039a7:	add    BYTE PTR [edi+0x0],ah
  4039aa:	push   ebx
  4039ab:	add    BYTE PTR [eax+eax*1+0x61],dh
  4039af:	add    BYTE PTR [edx+0x0],dh
  4039b2:	je     0x4039b4
  4039b4:	imul   eax,DWORD PTR [eax],0x67006e
  4039ba:	int3   
  4039bb:	add    al,BYTE PTR [eax]
  4039bd:	add    BYTE PTR [esi],dl
  4039bf:	inc    ebx
  4039c0:	add    BYTE PTR [edi+0x0],cl
  4039c3:	dec    ebp
  4039c4:	add    BYTE PTR [ebp+0x0],al
  4039c7:	js     0x4039c9
  4039c9:	add    BYTE PTR gs:[eax+0x0],dh
  4039cd:	je     0x4039cf
  4039cf:	imul   eax,DWORD PTR [eax],0x6e006f
  4039d5:	or     al,BYTE PTR [ebx]
  4039d7:	add    BYTE PTR [eax],al
  4039d9:	adc    al,BYTE PTR [ebp+0x0]
  4039dc:	jb     0x4039de
  4039de:	jb     0x4039e0
  4039e0:	outs   dx,DWORD PTR ds:[esi]
  4039e1:	add    BYTE PTR [edx+0x0],dh
  4039e4:	push   esp
  4039e5:	add    BYTE PTR [ebp+0x0],ah
  4039e8:	js     0x4039ea
  4039ea:	je     0x4039ec
  4039ec:	and    al,BYTE PTR [ebx]
  4039ee:	add    BYTE PTR [eax],al
  4039f0:	push   ds
  4039f1:	inc    esi
  4039f2:	add    BYTE PTR [ecx+0x0],ah
  4039f5:	imul   eax,DWORD PTR [eax],0x65006c
  4039fb:	add    BYTE PTR fs:[eax+eax*1+0x6f],dl
  403a00:	add    BYTE PTR [ebx+0x0],dl
  403a03:	je     0x403a05
  403a05:	popa   
  403a06:	add    BYTE PTR [edx+0x0],dh
  403a09:	je     0x403a0b
  403a0b:	dec    ecx
  403a0c:	add    BYTE PTR [ebp+0x0],al
  403a0f:	sub    al,BYTE PTR [ebx]
  403a11:	add    BYTE PTR [eax],al
  403a13:	push   ds
  403a14:	dec    eax
  403a15:	add    BYTE PTR [ebp+0x0],ah
  403a18:	ins    BYTE PTR es:[edi],dx
  403a19:	add    BYTE PTR [eax+0x0],dh
  403a1c:	inc    esp
  403a1d:	add    BYTE PTR [ebp+0x0],ah
  403a20:	jae    0x403a22
  403a22:	arpl   WORD PTR [eax],ax
  403a24:	jb     0x403a26
  403a26:	imul   eax,DWORD PTR [eax],0x740070
  403a2c:	imul   eax,DWORD PTR [eax],0x6e006f
  403a32:	dec    edi
  403a33:	add    eax,DWORD PTR [eax]
  403a35:	add    BYTE PTR [eax],dl
  403a37:	dec    eax
  403a38:	add    BYTE PTR [ebp+0x0],ah
  403a3b:	ins    BYTE PTR es:[edi],dx
  403a3c:	add    BYTE PTR [eax+0x0],dh
  403a3f:	dec    eax
  403a40:	add    BYTE PTR [ebp+0x0],ah
  403a43:	ins    BYTE PTR es:[edi],dx
  403a44:	add    BYTE PTR [eax+0x0],dh
  403a47:	inc    esi
  403a48:	add    al,0x0
  403a4a:	add    BYTE PTR [eax+ecx*2],dl
  403a4d:	add    BYTE PTR [ebp+0x0],ah
  403a50:	ins    BYTE PTR es:[edi],dx
  403a51:	add    BYTE PTR [eax+0x0],dh
  403a54:	dec    ebp
  403a55:	add    BYTE PTR [ebp+0x0],ah
  403a58:	ins    DWORD PTR es:[edi],dx
  403a59:	add    BYTE PTR [edi+0x0],ch
  403a5c:	jb     0x403a5e
  403a5e:	jns    0x403a60
  403a60:	ja     0x403a66
  403a62:	add    BYTE PTR [eax],al
  403a64:	adc    al,0x48
  403a66:	add    BYTE PTR [ebp+0x0],ah
  403a69:	ins    BYTE PTR es:[edi],dx
  403a6a:	add    BYTE PTR [eax+0x0],dh
  403a6d:	dec    esi
  403a6e:	add    BYTE PTR [edi+0x0],ch
  403a71:	ja     0x403a73
  403a73:	popa   
  403a74:	add    BYTE PTR [ecx+0x0],ch
  403a77:	je     0x403a79
  403a79:	mov    bl,0x5
  403a7b:	add    BYTE PTR [eax],al
  403a7d:	push   ss
  403a7e:	dec    eax
  403a7f:	add    BYTE PTR [ebp+0x0],ah
  403a82:	ins    BYTE PTR es:[edi],dx
  403a83:	add    BYTE PTR [eax+0x0],dh
  403a86:	dec    edi
  403a87:	add    BYTE PTR [eax+0x0],dh
  403a8a:	je     0x403a8c
  403a8c:	imul   eax,DWORD PTR [eax],0x6e006f
  403a92:	jae    0x403a94
  403a94:	jmp    0x14403a9f
  403a99:	dec    eax
  403a9a:	add    BYTE PTR [ebp+0x0],ah
  403a9d:	ins    BYTE PTR es:[edi],dx
  403a9e:	add    BYTE PTR [eax+0x0],dh
  403aa1:	dec    edi
  403aa2:	add    BYTE PTR [ebp+0x0],dh
  403aa5:	je     0x403aa7
  403aa7:	jo     0x403aa9
  403aa9:	jne    0x403aab
  403aab:	je     0x403aad
  403aad:	cmc    
  403aae:	push   es
  403aaf:	add    BYTE PTR [eax],al
  403ab1:	push   ds
  403ab2:	dec    eax
  403ab3:	add    BYTE PTR [ebp+0x0],ah
  403ab6:	ins    BYTE PTR es:[edi],dx
  403ab7:	add    BYTE PTR [eax+0x0],dh
  403aba:	push   eax
  403abb:	add    BYTE PTR [ecx+0x0],ah
  403abe:	arpl   WORD PTR [eax],ax
  403ac0:	imul   eax,DWORD PTR [eax],0x53
  403ac3:	add    BYTE PTR [ecx+0x0],bh
  403ac6:	ins    DWORD PTR es:[edi],dx
  403ac7:	add    BYTE PTR [edx+0x0],ah
  403aca:	outs   dx,DWORD PTR ds:[esi]
  403acb:	add    BYTE PTR [eax+eax*1+0x73],ch
  403acf:	add    cl,bl
  403ad1:	pop    es
  403ad2:	add    BYTE PTR [eax],al
  403ad4:	adc    al,0x48
  403ad6:	add    BYTE PTR [ebp+0x0],ah
  403ad9:	ins    BYTE PTR es:[edi],dx
  403ada:	add    BYTE PTR [eax+0x0],dh
  403add:	push   ebx
  403ade:	add    BYTE PTR [ecx+0x0],ah
  403ae1:	ins    DWORD PTR es:[edi],dx
  403ae2:	add    BYTE PTR [eax+0x0],dh
  403ae5:	ins    BYTE PTR es:[edi],dx
  403ae6:	add    BYTE PTR [ebp+0x0],ah
  403ae9:	nop
  403aea:	or     BYTE PTR [eax],al
  403aec:	add    BYTE PTR [eax],bl
  403aee:	dec    eax
  403aef:	add    BYTE PTR [ebp+0x0],ah
  403af2:	ins    BYTE PTR es:[edi],dx
  403af3:	add    BYTE PTR [eax+0x0],dh
  403af6:	push   ebx
  403af7:	add    BYTE PTR [eax+0x0],ch
  403afa:	jne    0x403afc
  403afc:	je     0x403afe
  403afe:	add    BYTE PTR fs:[edi+0x0],ch
  403b02:	ja     0x403b04
  403b04:	outs   dx,BYTE PTR ds:[esi]
  403b05:	add    BYTE PTR [esi+0x9],al
  403b08:	add    BYTE PTR [eax],al
  403b0a:	push   cs
  403b0b:	dec    eax
  403b0c:	add    BYTE PTR [ebp+0x0],ah
  403b0f:	ins    BYTE PTR es:[edi],dx
  403b10:	add    BYTE PTR [eax+0x0],dh
  403b13:	push   esp
  403b14:	add    BYTE PTR [ecx+0x0],ch
  403b17:	jo     0x403b19
  403b19:	or     eax,0x1200000a
  403b1e:	dec    eax
  403b1f:	add    BYTE PTR [ebp+0x0],ah
  403b22:	ins    BYTE PTR es:[edi],dx
  403b23:	add    BYTE PTR [eax+0x0],dh
  403b26:	push   esp
  403b27:	add    BYTE PTR [edx+0x0],dh
  403b2a:	popa   
  403b2b:	add    BYTE PTR [ebx+0x0],ah
  403b2e:	add    BYTE PTR gs:[edx+ecx*1+0x48120000],dl
  403b36:	add    BYTE PTR [ebp+0x0],ah
  403b39:	ins    BYTE PTR es:[edi],dx
  403b3a:	add    BYTE PTR [eax+0x0],dh
  403b3d:	push   ebp
  403b3e:	add    BYTE PTR [ebx+0x0],dh
  403b41:	popa   
  403b42:	add    BYTE PTR [edi+0x0],ah
  403b45:	add    BYTE PTR gs:[ecx+0x2800000b],ah
  403b4c:	dec    ecx
  403b4d:	add    BYTE PTR [esi+0x0],ch
  403b50:	jbe    0x403b52
  403b52:	popa   
  403b53:	add    BYTE PTR [eax+eax*1+0x69],ch
  403b57:	add    BYTE PTR [eax+eax*1+0x50],ah
  403b5b:	add    BYTE PTR [edx+0x0],dh
  403b5e:	outs   dx,DWORD PTR ds:[esi]
  403b5f:	add    BYTE PTR [esi+0x0],ah
  403b62:	imul   eax,DWORD PTR [eax],0x69006c
  403b68:	outs   dx,BYTE PTR ds:[esi]
  403b69:	add    BYTE PTR [edi+0x0],ah
  403b6c:	push   esp
  403b6d:	add    BYTE PTR [ecx+0x0],bh
  403b70:	jo     0x403b72
  403b72:	gs add dl,dl
  403b75:	or     eax,DWORD PTR [eax]
  403b77:	add    BYTE PTR [esi],ch
  403b79:	dec    ecx
  403b7a:	add    BYTE PTR [esi+0x0],ch
  403b7d:	jbe    0x403b7f
  403b7f:	popa   
  403b80:	add    BYTE PTR [eax+eax*1+0x69],ch
  403b84:	add    BYTE PTR [eax+eax*1+0x57],ah
  403b88:	add    BYTE PTR [ebp+0x0],ah
  403b8b:	bound  eax,QWORD PTR [eax]
  403b8d:	jae    0x403b8f
  403b8f:	imul   eax,DWORD PTR [eax],0x650074
  403b95:	push   ebx
  403b96:	add    BYTE PTR [eax+0x0],dh
  403b99:	add    BYTE PTR gs:[ebx+0x0],ah
  403b9d:	imul   eax,DWORD PTR [eax],0x690066
  403ba3:	add    BYTE PTR gs:[eax+eax*1+0x51],ah
  403ba8:	or     al,0x0
  403baa:	add    BYTE PTR [eax],dh
  403bac:	dec    ebp
  403bad:	add    BYTE PTR [ecx+0x0],ch
  403bb0:	arpl   WORD PTR [eax],ax
  403bb2:	jb     0x403bb4
  403bb4:	outs   dx,DWORD PTR ds:[esi]
  403bb5:	add    BYTE PTR [ebx+0x0],dh
  403bb8:	outs   dx,DWORD PTR ds:[esi]
  403bb9:	add    BYTE PTR [esi+0x0],ah
  403bbc:	je     0x403bbe
  403bbe:	inc    ebx
  403bbf:	add    BYTE PTR [edi+0x0],ch
  403bc2:	jo     0x403bc4
  403bc4:	jns    0x403bc6
  403bc6:	jb     0x403bc8
  403bc8:	imul   eax,DWORD PTR [eax],0x680067
  403bce:	je     0x403bd0
  403bd0:	dec    esi
  403bd1:	add    BYTE PTR [edi+0x0],ch
  403bd4:	je     0x403bd6
  403bd6:	imul   eax,DWORD PTR [eax],0x650063
  403bdc:	mov    DWORD PTR [eax+eax*1],ecx
  403bdf:	add    BYTE PTR [esi],ah
  403be1:	dec    ebp
  403be2:	add    BYTE PTR [edi+0x0],ch
  403be5:	outs   dx,BYTE PTR ds:[esi]
  403be6:	add    BYTE PTR [ecx+0x0],ch
  403be9:	je     0x403beb
  403beb:	outs   dx,DWORD PTR ds:[esi]
  403bec:	add    BYTE PTR [edx+0x0],dh
  403bef:	push   ebx
  403bf0:	add    BYTE PTR [eax+eax*1+0x61],dh
  403bf4:	add    BYTE PTR [edx+0x0],dh
  403bf7:	je     0x403bf9
  403bf9:	inc    esi
  403bfa:	add    BYTE PTR [ecx+0x0],ah
  403bfd:	imul   eax,DWORD PTR [eax],0x75006c
  403c03:	jb     0x403c05
  403c05:	gs add bh,dh
  403c08:	or     al,0x0
  403c0a:	add    BYTE PTR [ecx*2+0x6e006f00],ah
  403c11:	add    BYTE PTR [ecx+0x0],ch
  403c14:	je     0x403c16
  403c16:	outs   dx,DWORD PTR ds:[esi]
  403c17:	add    BYTE PTR [edx+0x0],dh
  403c1a:	push   ebx
  403c1b:	add    BYTE PTR [eax+eax*1+0x6f],dh
  403c1f:	add    BYTE PTR [eax+0x0],dh
  403c22:	inc    esi
  403c23:	add    BYTE PTR [ecx+0x0],ah
  403c26:	imul   eax,DWORD PTR [eax],0x75006c
  403c2c:	jb     0x403c2e
  403c2e:	add    BYTE PTR gs:[esi+0xd],cl
  403c32:	add    BYTE PTR [eax],al
  403c34:	sbb    BYTE PTR [esi+0x0],cl
  403c37:	outs   dx,DWORD PTR ds:[esi]
  403c38:	add    BYTE PTR [eax+0x0],dl
  403c3b:	popa   
  403c3c:	add    BYTE PTR [edx+0x0],dh
  403c3f:	popa   
  403c40:	add    BYTE PTR [ebp+0x0],ch
  403c43:	add    BYTE PTR gs:[eax+eax*1+0x65],dh
  403c48:	add    BYTE PTR [edx+0x0],dh
  403c4b:	jae    0x403c4d
  403c4d:	fmul   DWORD PTR ds:0x4e1a0000
  403c53:	add    BYTE PTR [edi+0x0],ch
  403c56:	push   edi
  403c57:	add    BYTE PTR [ecx+0x0],ah
  403c5a:	imul   eax,DWORD PTR [eax],0x4d0074
  403c60:	add    BYTE PTR gs:[ebx+0x0],dh
  403c64:	jae    0x403c66
  403c66:	popa   
  403c67:	add    BYTE PTR [edi+0x0],ah
  403c6a:	add    BYTE PTR gs:[ebx],ch
  403c6d:	push   cs
  403c6e:	add    BYTE PTR [eax],al
  403c70:	es dec esi
  403c72:	add    BYTE PTR [edi+0x0],ch
  403c75:	push   edi
  403c76:	add    BYTE PTR [ebp+0x0],ah
  403c79:	bound  eax,QWORD PTR [eax]
  403c7b:	jae    0x403c7d
  403c7d:	imul   eax,DWORD PTR [eax],0x650074
  403c83:	dec    ecx
  403c84:	add    BYTE PTR [esi+0x0],ch
  403c87:	push   edx
  403c88:	add    BYTE PTR [ebp+0x0],ah
  403c8b:	add    BYTE PTR [bx+di+0x0],ch
  403c8f:	jae    0x403c91
  403c91:	je     0x403c93
  403c93:	jb     0x403c95
  403c95:	jns    0x403c97
  403c97:	cwde   
  403c98:	push   cs
  403c99:	add    BYTE PTR [eax],al
  403c9b:	sbb    al,0x50
  403c9d:	add    BYTE PTR [ecx+0x0],ah
  403ca0:	arpl   WORD PTR [eax],ax
  403ca2:	imul   eax,DWORD PTR [eax],0x69
  403ca5:	add    BYTE PTR [esi+0x0],ch
  403ca8:	add    BYTE PTR [bp+di+0x0],dl
  403cac:	jns    0x403cae
  403cae:	ins    DWORD PTR es:[edi],dx
  403caf:	add    BYTE PTR [edx+0x0],ah
  403cb2:	outs   dx,DWORD PTR ds:[esi]
  403cb3:	add    BYTE PTR [eax+eax*1+0x73],ch
  403cb7:	add    BYTE PTR [eax],cl
  403cb9:	sldt   WORD PTR [eax]
  403cbc:	push   ds
  403cbd:	push   ebx
  403cbe:	add    BYTE PTR [eax+0x0],ch
  403cc1:	jne    0x403cc3
  403cc3:	je     0x403cc5
  403cc5:	add    BYTE PTR fs:[edi+0x0],ch
  403cc9:	ja     0x403ccb
  403ccb:	outs   dx,BYTE PTR ds:[esi]
  403ccc:	add    BYTE PTR [ebx+0x0],dl
  403ccf:	jne    0x403cd1
  403cd1:	arpl   WORD PTR [eax],ax
  403cd3:	arpl   WORD PTR [eax],ax
  403cd5:	add    BYTE PTR gs:[ebx+0x0],dh
  403cd9:	jae    0x403cdb
  403cdb:	inc    eax
  403cdc:	sldt   WORD PTR [eax]
  403cdf:	and    al,0x55
  403ce1:	add    BYTE PTR [esi+0x0],ch
  403ce4:	push   0x6e006100
  403ce9:	add    BYTE PTR [eax+eax*1+0x6c],ah
  403ced:	add    BYTE PTR [ebp+0x0],ah
  403cf0:	add    BYTE PTR fs:[ebp+0x0],al
  403cf4:	js     0x403cf6
  403cf6:	arpl   WORD PTR [eax],ax
  403cf8:	add    BYTE PTR gs:[eax+0x0],dh
  403cfc:	je     0x403cfe
  403cfe:	imul   eax,DWORD PTR [eax],0x6e006f
  403d04:	or     BYTE PTR [edi],0x0
  403d07:	add    BYTE PTR [eax],dl
  403d09:	push   edi
  403d0a:	add    BYTE PTR [ecx+0x0],ah
  403d0d:	imul   eax,DWORD PTR [eax],0x540074
  403d13:	add    BYTE PTR gs:[eax+0x0],bh
  403d17:	je     0x403d19
  403d19:	stos   BYTE PTR es:[edi],al
  403d1a:	sldt   WORD PTR [eax]
  403d1d:	push   ss
  403d1e:	push   edi
  403d1f:	add    BYTE PTR [ecx+0x0],ah
  403d22:	jb     0x403d24
  403d24:	outs   dx,BYTE PTR ds:[esi]
  403d25:	add    BYTE PTR [ecx+0x0],ch
  403d28:	outs   dx,BYTE PTR ds:[esi]
  403d29:	add    BYTE PTR [edi+0x0],ah
  403d2c:	push   esp
  403d2d:	add    BYTE PTR [ebp+0x0],ah
  403d30:	js     0x403d32
  403d32:	je     0x403d34
  403d34:	ror    BYTE PTR [edi],cl
  403d36:	add    BYTE PTR [eax],al
  403d38:	add    DWORD PTR [edi],ebx
  403d3a:	inc    ecx
  403d3b:	je     0x403db1
  403d3d:	popa   
  403d3e:	arpl   WORD PTR [eax+0x69],bp
  403d41:	outs   dx,BYTE PTR ds:[esi]
  403d42:	and    BYTE PTR [di+0x6f],cl
  403d46:	outs   dx,BYTE PTR ds:[esi]
  403d47:	imul   esi,DWORD PTR [edi+ebp*2+0x72],0x206f7420
  403d4f:	jo     0x403dc3
  403d51:	outs   dx,DWORD PTR ds:[esi]
  403d52:	arpl   WORD PTR [ebp+0x73],sp
  403d55:	jae    0x403d85
  403d57:	or     eax,0x5323010a
  403d5c:	gs je  0x403dd3
  403d5f:	imul   ebp,DWORD PTR [esi+0x67],0x20707520
  403d66:	jo     0x403dda
  403d68:	outs   dx,DWORD PTR ds:[esi]
  403d69:	imul   bp,WORD PTR [ecx+ebp*2+0x6e],0x2067
  403d70:	outs   dx,BYTE PTR gs:[esi]
  403d72:	jbe    0x403ddd
  403d74:	jb     0x403de5
  403d76:	outs   dx,BYTE PTR ds:[esi]
  403d77:	ins    DWORD PTR es:[edi],dx
  403d78:	outs   dx,BYTE PTR gs:[esi]
  403d7a:	je     0x403daa
  403d7c:	or     eax,0x4c1c010a
  403d81:	popa   
  403d82:	jne    0x403df2
  403d84:	arpl   WORD PTR [eax+0x69],bp
  403d87:	outs   dx,BYTE PTR ds:[esi]
  403d88:	and    BYTE PTR [bx+di+0x53],al
  403d8c:	push   eax
  403d8d:	cs dec esi
  403d8f:	inc    ebp
  403d90:	push   esp
  403d91:	and    BYTE PTR [ebx+0x65],dh
  403d94:	jb     0x403e0c
  403d96:	imul   esp,DWORD PTR [ebx+0x65],0x10a0d2e
  403d9d:	push   ss
  403d9e:	push   edx
  403d9f:	gs jae 0x403e16
  403da2:	popa   
  403da3:	jb     0x403e19
  403da5:	imul   ebp,DWORD PTR [esi+0x67],0x77337720
  403dac:	jo     0x403ddc
  403dae:	gs js  0x403e16
  403db1:	cs or  eax,0x4c1c010a
  403db7:	popa   
  403db8:	jne    0x403e28
  403dba:	arpl   WORD PTR [eax+0x69],bp
  403dbd:	outs   dx,BYTE PTR ds:[esi]
  403dbe:	and    BYTE PTR [bx+di+0x6e],cl
  403dc2:	je     0x403e29
  403dc4:	jb     0x403e34
  403dc6:	gs je  0x403de9
  403dc9:	inc    ebp
  403dca:	js     0x403e3c
  403dcc:	ins    BYTE PTR es:[edi],dx
  403dcd:	outs   dx,DWORD PTR ds:[esi]
  403dce:	jb     0x403e35
  403dd0:	jb     0x403e00
  403dd2:	add    DWORD PTR [ebx],edx
  403dd4:	push   ebx
  403dd5:	je     0x403e38
  403dd7:	jb     0x403e4d
  403dd9:	imul   ebp,DWORD PTR [esi+0x67],0x6e6f6d20
  403de0:	imul   esi,DWORD PTR [edi+ebp*2+0x72],0x10a0d2e
  403de8:	pop    ss
  403de9:	dec    ebp
  403dea:	outs   dx,DWORD PTR ds:[esi]
  403deb:	imul   esp,DWORD PTR fs:[esi+0x79],0x20676e69
  403df3:	ja     0x403e5a
  403df5:	bound  ebp,QWORD PTR [esi]
  403df7:	arpl   WORD PTR [edi+0x6e],bp
  403dfa:	imul   sp,WORD PTR [edi+0x2e],0xa0d
  403e00:	add    DWORD PTR [esi+edx*2],esp
  403e03:	push   ebx
  403e04:	push   eax
  403e05:	and    BYTE PTR [edi],dh
  403e07:	xor    BYTE PTR [eax],dh
  403e09:	cmp    BYTE PTR [edx],bh
  403e0b:	and    BYTE PTR [ecx+0x53],al
  403e0e:	push   eax
  403e0f:	outs   dx,BYTE PTR cs:[esi]
  403e11:	gs je  0x403e34
  403e14:	gs js  0x403e7a
  403e17:	gs jo  0x403e8e
  403e1a:	imul   ebp,DWORD PTR [edi+0x6e],0x7b22203a
  403e21:	xor    BYTE PTR [ebp+0x22],bh
  403e24:	or     eax,0x18f010a
  403e29:	push   esi
  403e2a:	push   ebx
  403e2b:	push   eax
  403e2c:	and    BYTE PTR [edi],dh
  403e2e:	xor    BYTE PTR [eax],dh
  403e30:	aaa    
  403e31:	cmp    ah,BYTE PTR [eax]
  403e33:	push   esp
  403e34:	push   0x65772065
  403e39:	bound  esi,QWORD PTR [ebx+0x69]
  403e3c:	je     0x403ea3
  403e3e:	and    BYTE PTR [eax+0x61],dh
  403e41:	je     0x403eab
  403e43:	and    BYTE PTR [ecx+0x73],ch
  403e46:	and    BYTE PTR [ebx+0x65],dh
  403e49:	je     0x403e6b
  403e4b:	je     0x403ebc
  403e4d:	and    BYTE PTR [edx],ah
  403e4f:	jnp    0x403e81
  403e51:	jge    0x403e75
  403e53:	and    BYTE PTR cs:[edx],ah
  403e56:	jnp    0x403e89
  403e58:	jge    0x403e7c
  403e5a:	and    BYTE PTR [edi+0x69],dh
  403e5d:	ins    BYTE PTR es:[edi],dx
  403e5e:	ins    BYTE PTR es:[edi],dx
  403e5f:	and    BYTE PTR [edx+0x65],ah
  403e62:	and    BYTE PTR [ecx+0x67],ch
  403e65:	outs   dx,BYTE PTR ds:[esi]
  403e66:	outs   dx,DWORD PTR ds:[esi]
  403e67:	jb     0x403ece
  403e69:	fs and BYTE PTR cs:[ecx+0x66],cl
  403e6e:	and    BYTE PTR [eax+ebp*2+0x69],dh
  403e72:	jae    0x403ea0
  403e74:	and    BYTE PTR [edi+0x72],ch
  403e77:	and    BYTE PTR [edx],ah
  403e79:	jnp    0x403eab
  403e7b:	jge    0x403e9f
  403e7d:	sub    al,0x20
  403e7f:	ja     0x403ee2
  403e81:	jae    0x403ea3
  403e83:	imul   ebp,DWORD PTR [esi+0x74],0x65646e65
  403e8a:	and    BYTE PTR fs:[ecx+0x73],ah
  403e8e:	and    BYTE PTR [ecx+0x20],ah
  403e91:	data16 ins BYTE PTR es:[edi],dx
  403e93:	popa   
  403e94:	addr16 sub al,0x20
  403e97:	arpl   WORD PTR [eax+0x65],bp
  403e9a:	arpl   WORD PTR [ebx+0x20],bp
  403e9d:	je     0x403f07
  403e9f:	popa   
  403ea0:	je     0x403ec2
  403ea2:	je     0x403f0c
  403ea4:	and    BYTE PTR gs:[ebx+0x79],dh
  403ea8:	outs   dx,BYTE PTR ds:[esi]
  403ea9:	je     0x403f0c
  403eab:	js     0x403ecd
  403ead:	imul   esi,DWORD PTR [ebx+0x20],0x72726f63
  403eb4:	arpl   WORD PTR gs:[esi+ebp*1+0x1],si
  403eb9:	jnp    0x403f12
  403ebb:	inc    ebp
  403ebc:	inc    edx
  403ebd:	push   ebx
  403ebe:	dec    ecx
  403ebf:	push   esp
  403ec0:	inc    ebp
  403ec1:	or     eax,0x2020200a
  403ec6:	and    BYTE PTR [eax],ah
  403ec8:	and    BYTE PTR [eax],ah
  403eca:	and    BYTE PTR [eax],ah
  403ecc:	and    BYTE PTR [eax],ah
  403ece:	and    BYTE PTR [eax],ah
  403ed0:	and    BYTE PTR [eax],ah
  403ed2:	and    BYTE PTR [eax],ah
  403ed4:	and    BYTE PTR [eax],ah
  403ed6:	and    BYTE PTR [eax],ah
  403ed8:	and    BYTE PTR [eax+ebp*2+0x65],dl
  403edc:	and    BYTE PTR [edi+ebp*2+0x63],ch
  403ee0:	popa   
  403ee1:	je     0x403f4c
  403ee3:	outs   dx,DWORD PTR ds:[esi]
  403ee4:	outs   dx,BYTE PTR ds:[esi]
  403ee5:	and    BYTE PTR [edi+0x66],ch
  403ee8:	and    BYTE PTR [eax+ebp*2+0x65],dh
  403eec:	and    BYTE PTR [ecx+eiz*2+0x72],dh
  403ef0:	addr16 gs je 0x403f14
  403ef4:	push   edi
  403ef5:	inc    ebp
  403ef6:	inc    edx
  403ef7:	push   ebx
  403ef8:	dec    ecx
  403ef9:	push   esp
  403efa:	inc    ebp
  403efb:	and    BYTE PTR cs:[edx+0x65],dl
  403eff:	jno    0x403f76
  403f01:	imul   esi,DWORD PTR [edx+0x65],0x6f662064
  403f08:	jb     0x403f2a
  403f0a:	inc    ecx
  403f0b:	push   ebx
  403f0c:	push   eax
  403f0d:	cs dec esi
  403f0f:	inc    ebp
  403f10:	push   esp
  403f11:	or     eax,0x2020200a
  403f16:	and    BYTE PTR [eax],ah
  403f18:	and    BYTE PTR [eax],ah
  403f1a:	and    BYTE PTR [eax],ah
  403f1c:	and    BYTE PTR [eax],ah
  403f1e:	and    BYTE PTR [eax],ah
  403f20:	and    BYTE PTR [eax],ah
  403f22:	and    BYTE PTR [eax],ah
  403f24:	and    BYTE PTR [eax],ah
  403f26:	and    BYTE PTR [eax],ah
  403f28:	and    BYTE PTR [eax+0x72],dh
  403f2b:	outs   dx,DWORD PTR ds:[esi]
  403f2c:	imul   bp,WORD PTR [ecx+ebp*2+0x6e],0x2e67
  403f33:	or     eax,0x5450010a
  403f38:	push   0x72702065
  403f3d:	outs   dx,DWORD PTR ds:[esi]
  403f3e:	imul   bp,WORD PTR [ebp+eiz*2+0x72],0x6920
  403f45:	jae    0x403f67
  403f47:	popa   
  403f48:	je     0x403fbe
  403f4a:	popa   
  403f4b:	arpl   WORD PTR [eax+0x65],bp
  403f4e:	and    BYTE PTR fs:[edi+ebp*2+0x20],dh
  403f53:	inc    ecx
  403f54:	push   ebx
  403f55:	push   eax
  403f56:	outs   dx,BYTE PTR cs:[esi]
  403f58:	gs je  0x403f89
  403f5b:	and    BYTE PTR [eax+0x6c],dl
  403f5e:	gs popa 
  403f60:	jae    0x403fc7
  403f62:	and    BYTE PTR [edx+0x75],dh
  403f65:	outs   dx,BYTE PTR ds:[esi]
  403f66:	and    BYTE PTR [ecx+0x6f],bh
  403f69:	jne    0x403fdd
  403f6b:	and    BYTE PTR [ecx+0x70],ah
  403f6e:	jo     0x403fdc
  403f70:	imul   esp,DWORD PTR [ebx+0x61],0x6e6f6974
  403f77:	and    BYTE PTR [ebx+0x63],dh
  403f7a:	outs   dx,BYTE PTR gs:[esi]
  403f7c:	popa   
  403f7d:	jb     0x403fe8
  403f7f:	outs   dx,DWORD PTR ds:[esi]
  403f80:	and    BYTE PTR [esi+0x6f],ch
  403f83:	ja     0x403fb3
  403f85:	or     eax,0x503b010a
  403f8a:	jb     0x403ffb
  403f8c:	imul   bp,WORD PTR [ecx+ebp*2+0x6e],0x2067
  403f93:	outs   dx,BYTE PTR ds:[esi]
  403f94:	outs   dx,DWORD PTR ds:[esi]
  403f95:	ja     0x403fb7
  403f97:	jae    0x404001
  403f99:	jne    0x40400f
  403f9b:	and    BYTE PTR [edi+ebp*2+0x77],ah
  403f9f:	outs   dx,BYTE PTR ds:[esi]
  403fa0:	and    BYTE PTR cs:[edx+0x65],dl
  403fa4:	jo     0x404015
  403fa6:	jb     0x40401c
  403fa8:	and    BYTE PTR [esi+0x69],ah
  403fab:	ins    BYTE PTR es:[edi],dx
  403fac:	and    BYTE PTR gs:[edx],ah
  403faf:	jnp    0x403fe1
  403fb1:	jge    0x403fd5
  403fb3:	and    BYTE PTR [edi+0x61],dh
  403fb6:	jae    0x403fd8
  403fb8:	outs   dx,BYTE PTR gs:[si]
  403fbb:	gs jb  0x40401f
  403fbe:	je     0x404025
  403fc0:	fs cs or eax,0x533e010a
  403fc7:	push   0x69747475
  403fcc:	outs   dx,BYTE PTR ds:[esi]
  403fcd:	and    BYTE PTR [si+0x6f],ah
  403fd1:	ja     0x404041
  403fd3:	and    BYTE PTR [eax+0x72],dh
  403fd6:	outs   dx,DWORD PTR ds:[esi]
  403fd7:	imul   bp,WORD PTR [ecx+ebp*2+0x6e],0x2067
  403fde:	popa   
  403fdf:	outs   dx,BYTE PTR ds:[esi]
  403fe0:	and    BYTE PTR fs:[edx+0x65],dh
  403fe4:	jae    0x40405a
  403fe6:	popa   
  403fe7:	jb     0x40405d
  403fe9:	imul   ebp,DWORD PTR [esi+0x67],0x50534120
  403ff0:	cs dec esi
  403ff2:	inc    ebp
  403ff3:	push   esp
  403ff4:	and    BYTE PTR cs:[eax+0x6c],dl
  403ff8:	gs popa 
  403ffa:	jae    0x404061
  403ffc:	and    BYTE PTR [edi+0x61],dh
  403fff:	imul   esi,DWORD PTR [esi+ebp*1+0xd],0x433c010a
  404007:	outs   dx,DWORD PTR ds:[esi]
  404008:	outs   dx,BYTE PTR ds:[esi]
  404009:	imul   sp,WORD PTR [edi+0x75],0x6972
  40400f:	outs   dx,BYTE PTR ds:[esi]
  404010:	and    BYTE PTR [bx+di+0x6e],ah
  404014:	and    BYTE PTR fs:[ecx+0x74],ah
  404018:	je     0x40407b
  40401a:	arpl   WORD PTR [eax+0x69],bp
  40401d:	outs   dx,BYTE PTR ds:[esi]
  40401e:	and    BYTE PTR [si+0x6f],dh
  404022:	and    BYTE PTR [ecx+0x53],al
  404025:	push   eax
  404026:	cs dec esi
  404028:	inc    ebp
  404029:	push   esp
  40402a:	and    BYTE PTR [eax+0x72],dh
  40402d:	outs   dx,DWORD PTR ds:[esi]
  40402e:	arpl   WORD PTR [ebp+0x73],sp
  404031:	jae    0x404061
  404033:	and    BYTE PTR [eax+0x6c],dl
  404036:	gs popa 
  404038:	jae    0x40409f
  40403a:	and    BYTE PTR [edi+0x61],dh
  40403d:	imul   esi,DWORD PTR [esi+ebp*1+0xd],0x4316010a
  404045:	dec    edi
  404046:	dec    ebp
  404047:	and    BYTE PTR [ebp+0x78],ah
  40404a:	arpl   WORD PTR [ebp+0x70],sp
  40404d:	je     0x4040b8
  40404f:	outs   dx,DWORD PTR ds:[esi]
  404050:	outs   dx,BYTE PTR ds:[esi]
  404051:	cmp    ah,BYTE PTR [eax]
  404053:	and    bh,BYTE PTR [ebx+0x30]
  404056:	jge    0x40407a
  404058:	or     eax,0x4506010a
  40405d:	jb     0x4040d1
  40405f:	outs   dx,DWORD PTR ds:[esi]
  404060:	jb     0x404082
  404062:	add    DWORD PTR [ebx],esp
  404064:	inc    esi
  404065:	popa   
  404066:	imul   ebp,DWORD PTR [ebp+eiz*2+0x64],0x206f7420
  40406e:	jae    0x4040e4
  404070:	popa   
  404071:	jb     0x4040e7
  404073:	and    BYTE PTR [ecx+0x6e],cl
  404076:	je     0x4040dd
  404078:	jb     0x4040e8
  40407a:	gs je  0x40409d
  40407d:	inc    ebp
  40407e:	js     0x4040f0
  404080:	ins    BYTE PTR es:[edi],dx
  404081:	outs   dx,DWORD PTR ds:[esi]
  404082:	jb     0x4040e9
  404084:	jb     0x404093
  404086:	or     al,BYTE PTR [ecx]
  404088:	hlt    
  404089:	add    DWORD PTR [eax+0x72],edx
  40408c:	outs   dx,DWORD PTR ds:[esi]
  40408d:	imul   bp,WORD PTR [ebp+eiz*2+0x73],0x7420
  404094:	push   0x70732065
  404099:	arpl   WORD PTR gs:[ecx+0x66],bp
  40409d:	imul   esp,DWORD PTR [ebp+0x64],0x42455720
  4040a4:	push   ebx
  4040a5:	dec    ecx
  4040a6:	push   esp
  4040a7:	inc    ebp
  4040a8:	and    BYTE PTR [edi+0x69],dh
  4040ab:	je     0x404115
  4040ad:	outs   dx,DWORD PTR ds:[esi]
  4040ae:	jne    0x404124
  4040b0:	and    BYTE PTR [eax+0x61],ch
  4040b3:	jbe    0x40411e
  4040b5:	outs   dx,BYTE PTR ds:[esi]
  4040b6:	and    BYTE PTR [si+0x6f],dh
  4040ba:	and    BYTE PTR [ebx+0x65],dh
  4040bd:	je     0x4040cc
  4040bf:	or     ah,BYTE PTR [eax]
  4040c1:	and    BYTE PTR [eax],ah
  4040c3:	and    BYTE PTR [eax],ah
  4040c5:	and    BYTE PTR [eax],ah
  4040c7:	and    BYTE PTR [eax],ah
  4040c9:	and    BYTE PTR [eax],ah
  4040cb:	and    BYTE PTR [eax],ah
  4040cd:	and    BYTE PTR [eax],ah
  4040cf:	and    BYTE PTR [eax],ah
  4040d1:	and    BYTE PTR [eax],ah
  4040d3:	and    BYTE PTR [eax],ah
  4040d5:	ins    BYTE PTR es:[di],dx
  4040d7:	outs   dx,DWORD PTR ds:[esi]
  4040d8:	bound  esp,QWORD PTR [ecx+0x6c]
  4040db:	and    BYTE PTR [ebp+0x6e],ah
  4040de:	jbe    0x404149
  4040e0:	jb     0x404151
  4040e2:	outs   dx,BYTE PTR ds:[esi]
  4040e3:	ins    DWORD PTR es:[edi],dx
  4040e4:	outs   dx,BYTE PTR gs:[esi]
  4040e6:	je     0x404108
  4040e8:	jbe    0x40414b
  4040ea:	jb     0x404155
  4040ec:	popa   
  4040ed:	bound  ebp,QWORD PTR [ebp+eiz*2+0x73]
  4040f1:	and    BYTE PTR [ecx+0x6e],ah
  4040f4:	and    BYTE PTR fs:[edx+0x65],dh
  4040f8:	bound  ebp,QWORD PTR [edi+0x6f]
  4040fb:	je     0x40411d
  4040fd:	je     0x404167
  4040ff:	and    BYTE PTR gs:[ebp+0x61],ch
  404103:	arpl   WORD PTR [eax+0x69],bp
  404106:	outs   dx,BYTE PTR ds:[esi]
  404107:	gs cs or eax,0x2020200a
  40410e:	and    BYTE PTR [eax],ah
  404110:	and    BYTE PTR [eax],ah
  404112:	and    BYTE PTR [eax],ah
  404114:	and    BYTE PTR [eax],ah
  404116:	and    BYTE PTR [eax],ah
  404118:	and    BYTE PTR [eax],ah
  40411a:	and    BYTE PTR [eax],ah
  40411c:	and    BYTE PTR [eax],ah
  40411e:	and    BYTE PTR [eax],ah
  404120:	inc    ebx
  404121:	popa   
  404122:	outs   dx,BYTE PTR ds:[esi]
  404123:	and    BYTE PTR [edi+ebp*2+0x20],ah
  404127:	jae    0x40418a
  404129:	ins    DWORD PTR es:[edi],dx
  40412a:	jo     0x404198
  40412c:	imul   ebp,DWORD PTR [esi+0x67],0x6e69202c
  404133:	jae    0x4041a9
  404135:	jb     0x4041ac
  404137:	ins    DWORD PTR es:[edi],dx
  404138:	outs   dx,BYTE PTR gs:[esi]
  40413a:	je     0x40419d
  40413c:	je     0x4041a7
  40413e:	outs   dx,DWORD PTR ds:[esi]
  40413f:	outs   dx,BYTE PTR ds:[esi]
  404140:	sub    al,0x20
  404142:	ins    DWORD PTR es:[edi],dx
  404143:	gs ins DWORD PTR es:[edi],dx
  404145:	outs   dx,DWORD PTR ds:[esi]
  404146:	jb     0x4041c1
  404148:	and    BYTE PTR [ecx+0x6e],ah
  40414b:	and    BYTE PTR fs:[ecx+ebp*2+0x65],dh
  404150:	jb     0x40415f
  404152:	or     ah,BYTE PTR [eax]
  404154:	and    BYTE PTR [eax],ah
  404156:	and    BYTE PTR [eax],ah
  404158:	and    BYTE PTR [eax],ah
  40415a:	and    BYTE PTR [eax],ah
  40415c:	and    BYTE PTR [eax],ah
  40415e:	and    BYTE PTR [eax],ah
  404160:	and    BYTE PTR [eax],ah
  404162:	and    BYTE PTR [eax],ah
  404164:	and    BYTE PTR [eax],ah
  404166:	and    BYTE PTR [eax],ah
  404168:	imul   ebp,DWORD PTR [esi+0x74],0x63617265
  40416f:	je     0x4041da
  404171:	outs   dx,DWORD PTR ds:[esi]
  404172:	outs   dx,BYTE PTR ds:[esi]
  404173:	and    BYTE PTR [eax+0x72],dh
  404176:	outs   dx,DWORD PTR ds:[esi]
  404177:	imul   bp,WORD PTR [ecx+ebp*2+0x6e],0x2e67
  40417e:	add    DWORD PTR [edi],ebp
  404180:	das    
  404181:	aas    
  404182:	and    BYTE PTR [eax],ah
  404184:	and    BYTE PTR [eax],ah
  404186:	and    BYTE PTR [eax],ah
  404188:	and    BYTE PTR [eax],ah
  40418a:	and    BYTE PTR [eax],ah
  40418c:	and    BYTE PTR [eax],ah
  40418e:	and    BYTE PTR [eax],ah
  404190:	and    BYTE PTR [eax],ah
  404192:	and    BYTE PTR [eax],ah
  404194:	and    BYTE PTR [ecx+ebp*2+0x73],al
  404198:	jo     0x404206
  40419a:	popa   
  40419b:	jns    0x4041bd
  40419d:	je     0x404207
  40419f:	imul   esi,DWORD PTR [ebx+0x20],0x706c6568
  4041a6:	and    BYTE PTR [ebp+eiz*2+0x78],dh
  4041aa:	je     0x4041b9
  4041ac:	or     cl,BYTE PTR ds:0x2b9010a
  4041b2:	das    
  4041b3:	ins    DWORD PTR es:[edi],dx
  4041b4:	pop    ebx
  4041b5:	cmp    dl,BYTE PTR [ecx+ebx*2+0x50]
  4041b9:	inc    ebp
  4041ba:	pop    ebp
  4041bb:	and    BYTE PTR [edi],ch
  4041bd:	ins    DWORD PTR es:[edi],dx
  4041be:	gs ins DWORD PTR es:[edi],dx
  4041c0:	outs   dx,DWORD PTR ds:[esi]
  4041c1:	jb     0x40423c
  4041c3:	pop    ebx
  4041c4:	cmp    dl,BYTE PTR [ecx+ebx*2+0x50]
  4041c8:	inc    ebp
  4041c9:	pop    ebp
  4041ca:	or     eax,0x2020200a
  4041cf:	and    BYTE PTR [eax],ah
  4041d1:	and    BYTE PTR [eax],ah
  4041d3:	and    BYTE PTR [eax],ah
  4041d5:	and    BYTE PTR [eax],ah
  4041d7:	and    BYTE PTR [eax],ah
  4041d9:	and    BYTE PTR [eax],ah
  4041db:	and    BYTE PTR [eax],ah
  4041dd:	and    BYTE PTR [eax],ah
  4041df:	and    BYTE PTR [eax],ah
  4041e1:	inc    ebp
  4041e2:	outs   dx,BYTE PTR ds:[esi]
  4041e3:	popa   
  4041e4:	bound  ebp,QWORD PTR [ebp+eiz*2+0x20]
  4041e8:	ins    DWORD PTR es:[edi],dx
  4041e9:	popa   
  4041ea:	outs   dx,BYTE PTR ds:[esi]
  4041eb:	popa   
  4041ec:	gs and BYTE PTR fs:[di+0x65],ch
  4041f2:	ins    DWORD PTR es:[edi],dx
  4041f3:	outs   dx,DWORD PTR ds:[esi]
  4041f4:	jb     0x40426f
  4041f6:	and    BYTE PTR [eax+0x72],dh
  4041f9:	outs   dx,DWORD PTR ds:[esi]
  4041fa:	imul   bp,WORD PTR [ecx+ebp*2+0x6e],0x2e67
  404201:	and    BYTE PTR [ecx+0x74],cl
  404204:	and    BYTE PTR [ecx+0x73],ch
  404207:	and    BYTE PTR [eax+0x6f],dh
  40420a:	jae    0x40427f
  40420c:	imul   esp,DWORD PTR [edx+0x6c],0x6f742065
  404213:	and    BYTE PTR [ebp+0x6e],ah
  404216:	popa   
  404217:	bound  ebp,QWORD PTR [ebp+eiz*2+0xd]
  40421b:	or     ah,BYTE PTR [eax]
  40421d:	and    BYTE PTR [eax],ah
  40421f:	and    BYTE PTR [eax],ah
  404221:	and    BYTE PTR [eax],ah
  404223:	and    BYTE PTR [eax],ah
  404225:	and    BYTE PTR [eax],ah
  404227:	and    BYTE PTR [eax],ah
  404229:	and    BYTE PTR [eax],ah
  40422b:	and    BYTE PTR [eax],ah
  40422d:	and    BYTE PTR [eax],ah
  40422f:	and    BYTE PTR [eax],ah
  404231:	je     0x4042a5
  404233:	popa   
  404234:	arpl   WORD PTR [ecx+0x6e],bp
  404237:	and    BYTE PTR [bx+0x66],ch
  40423b:	and    BYTE PTR [ecx+0x6c],ah
  40423e:	ins    BYTE PTR es:[edi],dx
  40423f:	outs   dx,DWORD PTR ds:[esi]
  404240:	arpl   WORD PTR [ecx+0x74],sp
  404243:	imul   ebp,DWORD PTR [edi+0x6e],0x6e6f2073
  40424a:	ins    BYTE PTR es:[edi],dx
  40424b:	jns    0x40426d
  40424d:	sub    BYTE PTR [edi],ch
  40424f:	ins    DWORD PTR es:[edi],dx
  404250:	cmp    ah,BYTE PTR [ecx+0x6c]
  404253:	ins    BYTE PTR es:[edi],dx
  404254:	outs   dx,DWORD PTR ds:[esi]
  404255:	arpl   WORD PTR [ecx+0x74],sp
  404258:	imul   ebp,DWORD PTR [edi+0x6e],0x20726f20
  40425f:	das    
  404260:	ins    DWORD PTR es:[edi],dx
  404261:	cmp    ah,BYTE PTR [ecx+0x29]
  404264:	and    BYTE PTR [edi+0x72],ch
  404267:	or     eax,0x2020200a
  40426c:	and    BYTE PTR [eax],ah
  40426e:	and    BYTE PTR [eax],ah
  404270:	and    BYTE PTR [eax],ah
  404272:	and    BYTE PTR [eax],ah
  404274:	and    BYTE PTR [eax],ah
  404276:	and    BYTE PTR [eax],ah
  404278:	and    BYTE PTR [eax],ah
  40427a:	and    BYTE PTR [eax],ah
  40427c:	and    BYTE PTR [eax],ah
  40427e:	popa   
  40427f:	ins    BYTE PTR es:[edi],dx
  404280:	ins    BYTE PTR es:[edi],dx
  404281:	outs   dx,DWORD PTR ds:[esi]
  404282:	arpl   WORD PTR [ecx+0x74],sp
  404285:	imul   ebp,DWORD PTR [edi+0x6e],0x6e612073
  40428c:	and    BYTE PTR fs:[ecx+ebp*2+0x66],ch
  404291:	gs je  0x4042fd
  404294:	ins    DWORD PTR es:[edi],dx
  404295:	and    BYTE PTR gs:[edi+0x66],ch
  404299:	and    BYTE PTR [edi+0x62],ch
  40429c:	push   0x65
  40429e:	arpl   WORD PTR [ebx+esi*2+0x20],si
  4042a2:	sub    BYTE PTR [edi],ch
  4042a4:	ins    DWORD PTR es:[edi],dx
  4042a5:	cmp    ch,BYTE PTR [ecx+ebp*2+0x66]
  4042a9:	gs je  0x404315
  4042ac:	ins    DWORD PTR es:[edi],dx
  4042ad:	and    BYTE PTR gs:[edi+0x72],ch
  4042b1:	and    BYTE PTR [edi],ch
  4042b3:	ins    DWORD PTR es:[edi],dx
  4042b4:	cmp    ch,BYTE PTR [ecx+ebp*1+0x2e]
  4042b8:	or     eax,0x2020200a
  4042bd:	and    BYTE PTR [eax],ah
  4042bf:	and    BYTE PTR [eax],ah
  4042c1:	and    BYTE PTR [eax],ah
  4042c3:	and    BYTE PTR [eax],ah
  4042c5:	and    BYTE PTR [eax],ah
  4042c7:	and    BYTE PTR [eax],ah
  4042c9:	and    BYTE PTR [eax],ah
  4042cb:	and    BYTE PTR [eax],ah
  4042cd:	and    BYTE PTR [eax],ah
  4042cf:	inc    esp
  4042d0:	gs popaw 
  4042d3:	jne    0x404341
  4042d5:	je     0x4042f7
  4042d7:	imul   esi,DWORD PTR [ebx+0x20],0x6f6c6c61
  4042de:	arpl   WORD PTR [ecx+0x74],sp
  4042e1:	imul   ebp,DWORD PTR [edi+0x6e],0x6e6f2073
  4042e8:	ins    BYTE PTR es:[edi],dx
  4042e9:	jns    0x404319
  4042eb:	add    DWORD PTR [ebx+0x206e2f02],esi
  4042f1:	das    
  4042f2:	outs   dx,BYTE PTR ds:[esi]
  4042f3:	outs   dx,DWORD PTR ds:[esi]
  4042f4:	ja     0x404357
  4042f6:	imul   esi,DWORD PTR [eax+eiz*1+0x20],0x20202020
  4042fe:	and    BYTE PTR [eax],ah
  404300:	and    BYTE PTR [eax],ah
  404302:	and    BYTE PTR [ecx+0x66],cl
  404305:	and    BYTE PTR [eax+ebp*2+0x69],dh
  404309:	jae    0x40432b
  40430b:	imul   esi,DWORD PTR [ebx+0x20],0x6e727574
  404312:	gs and BYTE PTR fs:[edi+0x6e],ch
  404317:	sub    al,0x20
  404319:	je     0x404383
  40431b:	and    BYTE PTR gs:[ebp+0x6f],ch
  40431f:	outs   dx,BYTE PTR ds:[esi]
  404320:	imul   esi,DWORD PTR [edi+ebp*2+0x72],0x6c697720
  404328:	ins    BYTE PTR es:[edi],dx
  404329:	and    BYTE PTR [ebx+0x65],ch
  40432c:	gs jo  0x40434f
  40432f:	jb     0x4043a6
  404331:	outs   dx,BYTE PTR ds:[esi]
  404332:	outs   dx,BYTE PTR ds:[esi]
  404333:	imul   ebp,DWORD PTR [esi+0x67],0x74666120
  40433a:	gs jb  0x40434a
  40433d:	or     ah,BYTE PTR [eax]
  40433f:	and    BYTE PTR [eax],ah
  404341:	and    BYTE PTR [eax],ah
  404343:	and    BYTE PTR [eax],ah
  404345:	and    BYTE PTR [eax],ah
  404347:	and    BYTE PTR [eax],ah
  404349:	and    BYTE PTR [eax],ah
  40434b:	and    BYTE PTR [eax],ah
  40434d:	and    BYTE PTR [eax],ah
  40434f:	and    BYTE PTR [eax],ah
  404351:	and    BYTE PTR [eax],ah
  404353:	je     0x4043bd
  404355:	imul   esi,DWORD PTR [ebx+0x20],0x636f7270
  40435c:	gs jae 0x4043d2
  40435f:	and    BYTE PTR [eax+0x61],ch
  404362:	jae    0x404384
  404364:	je     0x4043cb
  404366:	jb     0x4043d5
  404368:	imul   ebp,DWORD PTR [esi+0x61],0x2e646574
  40436f:	and    BYTE PTR [ecx+0x66],cl
  404372:	and    BYTE PTR [eax+ebp*2+0x69],dh
  404376:	jae    0x404398
  404378:	imul   esi,DWORD PTR [ebx+0x20],0x202c6e6f
  40437f:	jb     0x4043f6
  404381:	outs   dx,BYTE PTR ds:[esi]
  404382:	and    BYTE PTR [ecx+0x67],ah
  404385:	popa   
  404386:	imul   ebp,DWORD PTR [esi+0x20],0x68746977
  40438d:	or     eax,0x2020200a
  404392:	and    BYTE PTR [eax],ah
  404394:	and    BYTE PTR [eax],ah
  404396:	and    BYTE PTR [eax],ah
  404398:	and    BYTE PTR [eax],ah
  40439a:	and    BYTE PTR [eax],ah
  40439c:	and    BYTE PTR [eax],ah
  40439e:	and    BYTE PTR [eax],ah
  4043a0:	and    BYTE PTR [eax],ah
  4043a2:	and    BYTE PTR [eax],ah
  4043a4:	das    
  4043a5:	jae    0x40440f
  4043a7:	jne    0x40441d
  4043a9:	outs   dx,DWORD PTR fs:[esi]
  4043ab:	ja     0x40441b
  4043ad:	and    BYTE PTR [edi+ebp*2+0x20],dh
  4043b1:	jae    0x404427
  4043b3:	outs   dx,DWORD PTR ds:[esi]
  4043b4:	jo     0x4043d6
  4043b6:	je     0x404420
  4043b8:	and    BYTE PTR gs:[ebp+0x6f],ch
  4043bc:	outs   dx,BYTE PTR ds:[esi]
  4043bd:	imul   esi,DWORD PTR [edi+ebp*2+0x72],0x646e6120
  4043c5:	and    BYTE PTR [edx+0x65],dh
  4043c8:	jae    0x40442f
  4043ca:	je     0x4043ec
  4043cc:	je     0x404436
  4043ce:	and    BYTE PTR gs:[ebp+0x6e],ah
  4043d2:	jbe    0x40443d
  4043d4:	jb     0x404445
  4043d6:	outs   dx,BYTE PTR ds:[esi]
  4043d7:	ins    DWORD PTR es:[edi],dx
  4043d8:	outs   dx,BYTE PTR gs:[esi]
  4043da:	je     0x40440a
  4043dc:	or     eax,0x2020200a
  4043e1:	and    BYTE PTR [eax],ah
  4043e3:	and    BYTE PTR [eax],ah
  4043e5:	and    BYTE PTR [eax],ah
  4043e7:	and    BYTE PTR [eax],ah
  4043e9:	and    BYTE PTR [eax],ah
  4043eb:	and    BYTE PTR [eax],ah
  4043ed:	and    BYTE PTR [eax],ah
  4043ef:	and    BYTE PTR [eax],ah
  4043f1:	and    BYTE PTR [eax],ah
  4043f3:	inc    ebx
  4043f4:	popa   
  4043f5:	outs   dx,BYTE PTR ds:[esi]
  4043f6:	and    BYTE PTR [esi+0x6f],ch
  4043f9:	je     0x40441b
  4043fb:	bound  esp,QWORD PTR [ebp+0x20]
  4043fe:	jne    0x404473
  404400:	gs and BYTE PTR fs:[ecx+0x74],ah
  404405:	and    BYTE PTR [eax+ebp*2+0x65],dh
  404409:	and    BYTE PTR [ebx+0x61],dh
  40440c:	ins    DWORD PTR es:[edi],dx
  40440d:	and    BYTE PTR gs:[ecx+ebp*2+0x6d],dh
  404412:	and    BYTE PTR gs:[ecx+0x73],ah
  404416:	and    BYTE PTR [edi],ch
  404418:	jae    0x404482
  40441a:	jne    0x404490
  40441c:	outs   dx,DWORD PTR fs:[esi]
  40441e:	ja     0x40448e
  404420:	add    DWORD PTR cs:[edx],ecx
  404423:	dec    edi
  404424:	jo     0x40449a
  404426:	imul   ebp,DWORD PTR [edi+0x6e],0xa0d3a73
  40442d:	add    ecx,esp
  40442f:	add    DWORD PTR [edi],ebp
  404431:	outs   dx,DWORD PTR ds:[esi]
  404432:	pop    ebx
  404433:	cmp    al,BYTE PTR [esi+0x49]
  404436:	dec    esp
  404437:	inc    ebp
  404438:	pop    ebp
  404439:	and    BYTE PTR [edi],ch
  40443b:	outs   dx,DWORD PTR ds:[esi]
  40443c:	jne    0x4044b2
  40443e:	jo     0x4044b5
  404440:	je     0x40449d
  404442:	cmp    al,BYTE PTR [esi+0x49]
  404445:	dec    esp
  404446:	inc    ebp
  404447:	pop    ebp
  404448:	or     eax,0x2020200a
  40444d:	and    BYTE PTR [eax],ah
  40444f:	and    BYTE PTR [eax],ah
  404451:	and    BYTE PTR [eax],ah
  404453:	and    BYTE PTR [eax],ah
  404455:	and    BYTE PTR [eax],ah
  404457:	and    BYTE PTR [eax],ah
  404459:	and    BYTE PTR [eax],ah
  40445b:	and    BYTE PTR [eax],ah
  40445d:	and    BYTE PTR [eax],ah
  40445f:	inc    esp
  404460:	jne    0x4044cf
  404462:	jo     0x4044d7
  404464:	and    BYTE PTR [eax+ebp*2+0x65],dh
  404468:	and    BYTE PTR [edx+0x65],dh
  40446b:	jae    0x4044e2
  40446d:	ins    BYTE PTR es:[edi],dx
  40446e:	je     0x4044e3
  404470:	and    BYTE PTR [ecx+0x6e],ch
  404473:	je     0x4044e4
  404475:	and    BYTE PTR [eax+ebp*2+0x65],dh
  404479:	and    BYTE PTR [ebx+0x70],dh
  40447c:	arpl   WORD PTR gs:[ecx+0x66],bp
  404480:	imul   esp,DWORD PTR [ebp+0x64],0x4c494620
  404487:	inc    ebp
  404488:	and    BYTE PTR cs:[ecx+0x66],cl
  40448c:	and    BYTE PTR [esi+0x6f],ch
  40448f:	je     0x40449e
  404491:	or     ah,BYTE PTR [eax]
  404493:	and    BYTE PTR [eax],ah
  404495:	and    BYTE PTR [eax],ah
  404497:	and    BYTE PTR [eax],ah
  404499:	and    BYTE PTR [eax],ah
  40449b:	and    BYTE PTR [eax],ah
  40449d:	and    BYTE PTR [eax],ah
  40449f:	and    BYTE PTR [eax],ah
  4044a1:	and    BYTE PTR [eax],ah
  4044a3:	and    BYTE PTR [eax],ah
  4044a5:	and    BYTE PTR [eax],ah
  4044a7:	jae    0x404519
  4044a9:	arpl   WORD PTR gs:[ecx+0x66],bp
  4044ad:	imul   esp,DWORD PTR [ebp+0x64],0x6874202c
  4044b4:	and    BYTE PTR gs:[edx+0x65],dh
  4044b8:	jae    0x40452f
  4044ba:	ins    BYTE PTR es:[edi],dx
  4044bb:	je     0x404530
  4044bd:	and    BYTE PTR [ecx+0x72],ah
  4044c0:	and    BYTE PTR gs:[ebx+0x74],dh
  4044c4:	outs   dx,DWORD PTR ds:[esi]
  4044c5:	jb     0x40452c
  4044c7:	and    BYTE PTR fs:[ecx+0x6e],ch
  4044cb:	and    BYTE PTR [eax+0x65],dl
  4044ce:	jb     0x404536
  4044d0:	outs   dx,DWORD PTR ds:[esi]
  4044d1:	jb     0x404540
  4044d3:	popa   
  4044d4:	outs   dx,BYTE PTR ds:[esi]
  4044d5:	arpl   WORD PTR [ebp+0x52],sp
  4044d8:	gs jo  0x40454a
  4044db:	jb     0x404551
  4044dd:	cs jbe 0x404553
  4044e0:	jo     0x4044ef
  4044e2:	or     ah,BYTE PTR [eax]
  4044e4:	and    BYTE PTR [eax],ah
  4044e6:	and    BYTE PTR [eax],ah
  4044e8:	and    BYTE PTR [eax],ah
  4044ea:	and    BYTE PTR [eax],ah
  4044ec:	and    BYTE PTR [eax],ah
  4044ee:	and    BYTE PTR [eax],ah
  4044f0:	and    BYTE PTR [eax],ah
  4044f2:	and    BYTE PTR [eax],ah
  4044f4:	and    BYTE PTR [eax],ah
  4044f6:	and    BYTE PTR [eax],ah
  4044f8:	imul   ebp,DWORD PTR [esi+0x20],0x20656874
  4044ff:	arpl   WORD PTR [ebp+0x72],si
  404502:	jb     0x404569
  404504:	outs   dx,BYTE PTR ds:[esi]
  404505:	je     0x404527
  404507:	imul   esi,DWORD PTR fs:[edx+0x65],0x726f7463
  40450f:	jns    0x40453f
  404511:	add    DWORD PTR [ecx+eax*1+0x3a5b702f],esi
  404518:	sub    BYTE PTR [edi+0x6e],ch
  40451b:	jl     0x40458c
  40451d:	data16 sub WORD PTR [ebp+0x20],bx
  404522:	das    
  404523:	jo     0x404586
  404525:	arpl   WORD PTR [ebx+0x73],bp
  404528:	jns    0x404597
  40452a:	bound  ebp,QWORD PTR [edi+0x6c]
  40452d:	jae    0x40458a
  40452f:	cmp    ch,BYTE PTR [eax]
  404531:	outs   dx,DWORD PTR ds:[esi]
  404532:	outs   dx,BYTE PTR ds:[esi]
  404533:	jl     0x4045a4
  404535:	data16 sub WORD PTR [ebp+0xd],bx
  40453a:	or     ah,BYTE PTR [eax]
  40453c:	and    BYTE PTR [eax],ah
  40453e:	and    BYTE PTR [eax],ah
  404540:	and    BYTE PTR [eax],ah
  404542:	and    BYTE PTR [eax],ah
  404544:	and    BYTE PTR [eax],ah
  404546:	and    BYTE PTR [eax],ah
  404548:	and    BYTE PTR [eax],ah
  40454a:	and    BYTE PTR [eax],ah
  40454c:	and    BYTE PTR [eax],ah
  40454e:	and    BYTE PTR [eax],ah
  404550:	inc    ebp
  404551:	outs   dx,BYTE PTR ds:[esi]
  404552:	popa   
  404553:	bound  ebp,QWORD PTR [ebp+eiz*2+0x73]
  404557:	and    BYTE PTR [ebx+0x79],dh
  40455a:	ins    DWORD PTR es:[edi],dx
  40455b:	bound  ebp,QWORD PTR [edi+0x6c]
  40455e:	and    BYTE PTR [eax+0x61],dh
  404561:	arpl   WORD PTR [ebx+0x69],bp
  404564:	outs   dx,BYTE PTR ds:[esi]
  404565:	and    BYTE PTR cs:[bp+di+0x79],dl
  40456a:	ins    DWORD PTR es:[edi],dx
  40456b:	bound  ebp,QWORD PTR [edi+0x6c]
  40456e:	and    BYTE PTR [eax+0x61],dh
  404571:	arpl   WORD PTR [ebx+0x69],bp
  404574:	outs   dx,BYTE PTR ds:[esi]
  404575:	and    BYTE PTR [bx+di+0x73],ch
  404579:	and    BYTE PTR [edi+0x6e],ch
  40457c:	and    BYTE PTR [edx+0x79],ah
  40457f:	and    BYTE PTR [ebp+eiz*2+0x66],ah
  404583:	popa   
  404584:	jne    0x4045f2
  404586:	je     0x4045b6
  404588:	and    BYTE PTR ds:0x2020200a,cl
  40458e:	and    BYTE PTR [eax],ah
  404590:	and    BYTE PTR [eax],ah
  404592:	and    BYTE PTR [eax],ah
  404594:	and    BYTE PTR [eax],ah
  404596:	and    BYTE PTR [eax],ah
  404598:	and    BYTE PTR [eax],ah
  40459a:	and    BYTE PTR [eax],ah
  40459c:	and    BYTE PTR [eax],ah
  40459e:	and    BYTE PTR [eax],ah
  4045a0:	push   esp
  4045a1:	push   0x6c662065
  4045a6:	popa   
  4045a7:	and    BYTE PTR [bp+si+0x79],ah
  4045ab:	and    BYTE PTR [ecx+0x74],ch
  4045ae:	jae    0x404615
  4045b0:	ins    BYTE PTR es:[edi],dx
  4045b1:	data16 and BYTE PTR [ecx+0x73],ch
  4045b5:	and    BYTE PTR [eax+ebp*2+0x65],dh
  4045b9:	and    BYTE PTR [ebx+0x61],dh
  4045bc:	ins    DWORD PTR es:[edi],dx
  4045bd:	and    BYTE PTR gs:[ecx+0x73],ah
  4045c1:	and    BYTE PTR [edi],ch
  4045c3:	jo     0x4045ff
  4045c5:	outs   dx,DWORD PTR ds:[esi]
  4045c6:	outs   dx,BYTE PTR ds:[esi]
  4045c7:	add    DWORD PTR cs:[ebx+0x20732f01],esi
  4045ce:	das    
  4045cf:	jae    0x404632
  4045d1:	ins    DWORD PTR es:[edi],dx
  4045d2:	jo     0x404640
  4045d4:	and    BYTE PTR gs:[eax],ah
  4045d7:	and    BYTE PTR [eax],ah
  4045d9:	and    BYTE PTR [eax],ah
  4045db:	and    BYTE PTR [eax],ah
  4045dd:	and    BYTE PTR [eax],ah
  4045df:	and    BYTE PTR [ebp+esi*2+0x72],dl
  4045e3:	outs   dx,BYTE PTR ds:[esi]
  4045e4:	jae    0x404606
  4045e6:	outs   dx,DWORD PTR ds:[esi]
  4045e7:	outs   dx,BYTE PTR ds:[esi]
  4045e8:	and    BYTE PTR [ebx+0x61],dh
  4045eb:	ins    DWORD PTR es:[edi],dx
  4045ec:	jo     0x40465a
  4045ee:	imul   ebp,DWORD PTR [esi+0x67],0x6f727020
  4045f5:	imul   bp,WORD PTR [ecx+ebp*2+0x6e],0x2e67
  4045fc:	and    BYTE PTR [eax+ebp*2+0x69],dl
  404600:	jae    0x404622
  404602:	outs   dx,DWORD PTR fs:[esi]
  404604:	gs jae 0x404627
  404607:	outs   dx,BYTE PTR ds:[esi]
  404608:	outs   dx,DWORD PTR ds:[esi]
  404609:	je     0x40462b
  40460b:	jb     0x404672
  40460d:	jno    0x404684
  40460f:	imul   esi,DWORD PTR [edx+0x65],0x20200a0d
  404616:	and    BYTE PTR [eax],ah
  404618:	and    BYTE PTR [eax],ah
  40461a:	and    BYTE PTR [eax],ah
  40461c:	and    BYTE PTR [eax],ah
  40461e:	and    BYTE PTR [eax],ah
  404620:	and    BYTE PTR [eax],ah
  404622:	and    BYTE PTR [eax],ah
  404624:	and    BYTE PTR [eax],ah
  404626:	and    BYTE PTR [eax],ah
  404628:	and    BYTE PTR [ecx+0x6e],ch
  40462b:	jae    0x4046a1
  40462d:	jb     0x4046a4
  40462f:	ins    DWORD PTR es:[edi],dx
  404630:	outs   dx,BYTE PTR gs:[esi]
  404632:	je     0x404695
  404634:	je     0x40469f
  404636:	outs   dx,DWORD PTR ds:[esi]
  404637:	outs   dx,BYTE PTR ds:[esi]
  404638:	and    BYTE PTR [edi+0x66],ch
  40463b:	and    BYTE PTR [ecx+0x6e],ah
  40463e:	jns    0x404660
  404640:	outs   dx,DWORD PTR ds:[esi]
  404641:	data16 and BYTE PTR [eax+ebp*2+0x65],dh
  404646:	and    BYTE PTR [ecx+0x73],ah
  404649:	jae    0x4046b0
  40464b:	ins    DWORD PTR es:[edi],dx
  40464c:	bound  ebp,QWORD PTR [ecx+ebp*2+0x65]
  404650:	jae    0x404680
  404652:	and    BYTE PTR [eax+ebp*2+0x69],dl
  404656:	jae    0x404678
  404658:	imul   esi,DWORD PTR [ebx+0x20],0x20656874
  40465f:	or     eax,0x2020200a
  404664:	and    BYTE PTR [eax],ah
  404666:	and    BYTE PTR [eax],ah
  404668:	and    BYTE PTR [eax],ah
  40466a:	and    BYTE PTR [eax],ah
  40466c:	and    BYTE PTR [eax],ah
  40466e:	and    BYTE PTR [eax],ah
  404670:	and    BYTE PTR [eax],ah
  404672:	and    BYTE PTR [eax],ah
  404674:	and    BYTE PTR [eax],ah
  404676:	fs gs popaw 
  40467a:	jne    0x4046e8
  40467c:	je     0x4046ac
  40467e:	add    esp,eax
  404680:	add    DWORD PTR [edi],ebp
  404682:	and    BYTE PTR fs:[edi],ch
  404685:	jae    0x4046ef
  404687:	jne    0x4046fd
  404689:	outs   dx,DWORD PTR fs:[esi]
  40468b:	ja     0x4046fb
  40468d:	and    BYTE PTR [eax],ah
  40468f:	and    BYTE PTR [eax],ah
  404691:	and    BYTE PTR [eax],ah
  404693:	and    BYTE PTR [eax],ah
  404695:	and    BYTE PTR [ebx+0x68],dl
  404698:	jne    0x40470e
  40469a:	jae    0x4046bc
  40469c:	outs   dx,DWORD PTR fs:[esi]
  40469e:	ja     0x40470e
  4046a0:	and    BYTE PTR [eax+ebp*2+0x65],dh
  4046a4:	and    BYTE PTR [ebp+0x6f],ch
  4046a7:	outs   dx,BYTE PTR ds:[esi]
  4046a8:	imul   esi,DWORD PTR [edi+ebp*2+0x72],0x646e6120
  4046b0:	and    BYTE PTR [ebx+0x6c],ah
  4046b3:	gs popa 
  4046b5:	jb     0x40472a
  4046b7:	and    BYTE PTR [eax+ebp*2+0x65],dh
  4046bb:	and    BYTE PTR [ebp+0x6e],ah
  4046be:	jbe    0x404729
  4046c0:	jb     0x404731
  4046c2:	outs   dx,BYTE PTR ds:[esi]
  4046c3:	ins    DWORD PTR es:[edi],dx
  4046c4:	outs   dx,BYTE PTR gs:[esi]
  4046c6:	je     0x4046f6
  4046c8:	and    BYTE PTR [ebx+0x61],al
  4046cb:	outs   dx,BYTE PTR ds:[esi]
  4046cc:	or     eax,0x2020200a
  4046d1:	and    BYTE PTR [eax],ah
  4046d3:	and    BYTE PTR [eax],ah
  4046d5:	and    BYTE PTR [eax],ah
  4046d7:	and    BYTE PTR [eax],ah
  4046d9:	and    BYTE PTR [eax],ah
  4046db:	and    BYTE PTR [eax],ah
  4046dd:	and    BYTE PTR [eax],ah
  4046df:	and    BYTE PTR [eax],ah
  4046e1:	and    BYTE PTR [eax],ah
  4046e3:	outs   dx,BYTE PTR ds:[esi]
  4046e4:	outs   dx,DWORD PTR ds:[esi]
  4046e5:	je     0x404707
  4046e7:	bound  esp,QWORD PTR [ebp+0x20]
  4046ea:	jne    0x40475f
  4046ec:	gs and BYTE PTR fs:[ecx+0x74],ah
  4046f1:	and    BYTE PTR [eax+ebp*2+0x65],dh
  4046f5:	and    BYTE PTR [ebx+0x61],dh
  4046f8:	ins    DWORD PTR es:[edi],dx
  4046f9:	and    BYTE PTR gs:[ecx+ebp*2+0x6d],dh
  4046fe:	and    BYTE PTR gs:[ecx+0x73],ah
  404702:	and    BYTE PTR [edi],ch
  404704:	outs   dx,BYTE PTR ds:[esi]
  404705:	outs   dx,DWORD PTR ds:[esi]
  404706:	ja     0x404769
  404708:	imul   esi,DWORD PTR [esi+ebp*1+0x20],0x20657355
  404710:	je     0x40477a
  404712:	imul   esi,DWORD PTR [ebx+0x20],0x63206e69
  404719:	popa   
  40471a:	jae    0x404781
  40471c:	or     eax,0x2020200a
  404721:	and    BYTE PTR [eax],ah
  404723:	and    BYTE PTR [eax],ah
  404725:	and    BYTE PTR [eax],ah
  404727:	and    BYTE PTR [eax],ah
  404729:	and    BYTE PTR [eax],ah
  40472b:	and    BYTE PTR [eax],ah
  40472d:	and    BYTE PTR [eax],ah
  40472f:	and    BYTE PTR [eax],ah
  404731:	and    BYTE PTR [eax],ah
  404733:	outs   dx,DWORD PTR ds:[esi]
  404734:	data16 and BYTE PTR [ecx+0x6e],ah
  404738:	and    BYTE PTR [ebp+0x72],ah
  40473b:	jb     0x4047ac
  40473d:	jb     0x40475f
  40473f:	jae    0x4047b5
  404741:	popa   
  404742:	je     0x4047a9
  404744:	add    DWORD PTR cs:[ecx+eax*1+0x2f20692f],eax
  40474c:	je     0x4047b7
  40474e:	jo     0x404770
  404750:	and    BYTE PTR [eax],ah
  404752:	and    BYTE PTR [eax],ah
  404754:	and    BYTE PTR [eax],ah
  404756:	and    BYTE PTR [eax],ah
  404758:	and    BYTE PTR [eax],ah
  40475a:	and    BYTE PTR [eax],ah
  40475c:	and    BYTE PTR [ebp+0x6e],al
  40475f:	popa   
  404760:	bound  ebp,QWORD PTR [ebp+eiz*2+0x20]
  404764:	push   esp
  404765:	imul   esp,DWORD PTR [ebp+0x72],0x746e4920
  40476c:	gs jb  0x4047d0
  40476f:	arpl   WORD PTR [ecx+ebp*2+0x6f],si
  404773:	outs   dx,BYTE PTR ds:[esi]
  404774:	and    BYTE PTR [eax+0x72],dl
  404777:	outs   dx,DWORD PTR ds:[esi]
  404778:	imul   bp,WORD PTR [ecx+ebp*2+0x6e],0x2e67
  40477f:	and    BYTE PTR [edi+0x66],cl
  404782:	data16 and BYTE PTR [edx+0x79],ah
  404786:	and    BYTE PTR [ebp+eiz*2+0x66],ah
  40478a:	popa   
  40478b:	jne    0x4047f9
  40478d:	je     0x4047bd
  40478f:	and    BYTE PTR ds:0x2020200a,cl
  404795:	and    BYTE PTR [eax],ah
  404797:	and    BYTE PTR [eax],ah
  404799:	and    BYTE PTR [eax],ah
  40479b:	and    BYTE PTR [eax],ah
  40479d:	and    BYTE PTR [eax],ah
  40479f:	and    BYTE PTR [eax],ah
  4047a1:	and    BYTE PTR [eax],ah
  4047a3:	and    BYTE PTR [eax],ah
  4047a5:	and    BYTE PTR [eax],ah
  4047a7:	sub    BYTE PTR [edx+0x65],dl
  4047aa:	jno    0x404821
  4047ac:	imul   esi,DWORD PTR [edx+0x65],0x6e492073
  4047b3:	je     0x40481a
  4047b5:	ins    BYTE PTR es:[edi],dx
  4047b6:	ins    BYTE PTR es:[edi],dx
  4047b7:	imul   edx,DWORD PTR [edx+esi*2+0x61],0x62206563
  4047bf:	and    BYTE PTR gs:[ecx+0x6e],ch
  4047c3:	jae    0x404839
  4047c5:	popa   
  4047c6:	ins    BYTE PTR es:[edi],dx
  4047c7:	ins    BYTE PTR es:[edi],dx
  4047c8:	gs fs sub DWORD PTR cs:[ecx],eax
  4047cd:	mov    al,BYTE PTR [edx]
  4047cf:	das    
  4047d0:	je     0x4047f2
  4047d2:	das    
  4047d3:	je     0x404847
  4047d5:	popa   
  4047d6:	arpl   WORD PTR [ebp+0x20],sp
  4047d9:	and    BYTE PTR [eax],ah
  4047db:	and    BYTE PTR [eax],ah
  4047dd:	and    BYTE PTR [eax],ah
  4047df:	and    BYTE PTR [eax],ah
  4047e1:	and    BYTE PTR [eax],ah
  4047e3:	and    BYTE PTR [ebp+esi*2+0x72],dl
  4047e7:	outs   dx,BYTE PTR ds:[esi]
  4047e8:	jae    0x40480a
  4047ea:	outs   dx,DWORD PTR ds:[esi]
  4047eb:	outs   dx,BYTE PTR ds:[esi]
  4047ec:	and    BYTE PTR [ecx+0x6e],ch
  4047ef:	jae    0x404865
  4047f1:	jb     0x404868
  4047f3:	ins    DWORD PTR es:[edi],dx
  4047f4:	outs   dx,BYTE PTR gs:[esi]
  4047f6:	je     0x404859
  4047f8:	je     0x404863
  4047fa:	outs   dx,DWORD PTR ds:[esi]
  4047fb:	outs   dx,BYTE PTR ds:[esi]
  4047fc:	and    BYTE PTR [eax+0x72],dh
  4047ff:	outs   dx,DWORD PTR ds:[esi]
  404800:	imul   bp,WORD PTR [ecx+ebp*2+0x6e],0x2e67
  404807:	and    BYTE PTR [esi+0x6f],al
  40480a:	jb     0x40482c
  40480c:	inc    ecx
  40480d:	push   ebx
  40480e:	push   eax
  40480f:	outs   dx,BYTE PTR cs:[esi]
  404811:	gs je  0x404834
  404814:	je     0x40487e
  404816:	imul   esi,DWORD PTR [ebx+0xd],0x2020200a
  40481d:	and    BYTE PTR [eax],ah
  40481f:	and    BYTE PTR [eax],ah
  404821:	and    BYTE PTR [eax],ah
  404823:	and    BYTE PTR [eax],ah
  404825:	and    BYTE PTR [eax],ah
  404827:	and    BYTE PTR [eax],ah
  404829:	and    BYTE PTR [eax],ah
  40482b:	and    BYTE PTR [eax],ah
  40482d:	and    BYTE PTR [eax],ah
  40482f:	ja     0x40489a
  404831:	ins    BYTE PTR es:[edi],dx
  404832:	ins    BYTE PTR es:[edi],dx
  404833:	and    BYTE PTR [ecx+0x75],ah
  404836:	je     0x4048a7
  404838:	ins    DWORD PTR es:[edi],dx
  404839:	popa   
  40483a:	je     0x4048a5
  40483c:	arpl   WORD PTR [ecx+0x6c],sp
  40483f:	ins    BYTE PTR es:[edi],dx
  404840:	jns    0x404862
  404842:	imul   ebp,DWORD PTR [esi+0x73],0x6d757274
  404849:	outs   dx,BYTE PTR gs:[esi]
  40484b:	je     0x40486d
  40484d:	je     0x4048b7
  40484f:	and    BYTE PTR gs:[ecx+edi*2+0x6e],ah
  404854:	popa   
  404855:	ins    DWORD PTR es:[edi],dx
  404856:	imul   esp,DWORD PTR [ebx+0x61],0x20796c6c
  40485d:	outs   dx,BYTE PTR gs:[si]
  404860:	gs jb  0x4048c4
  404863:	je     0x4048ca
  404865:	fs or  eax,0x2020200a
  40486b:	and    BYTE PTR [eax],ah
  40486d:	and    BYTE PTR [eax],ah
  40486f:	and    BYTE PTR [eax],ah
  404871:	and    BYTE PTR [eax],ah
  404873:	and    BYTE PTR [eax],ah
  404875:	and    BYTE PTR [eax],ah
  404877:	and    BYTE PTR [eax],ah
  404879:	and    BYTE PTR [eax],ah
  40487b:	and    BYTE PTR [eax],ah
  40487d:	popa   
  40487e:	jae    0x4048f3
  404880:	gs ins DWORD PTR es:[edi],dx
  404882:	bound  ebp,QWORD PTR [ecx+ebp*2+0x65]
  404886:	jae    0x4048b4
  404888:	and    BYTE PTR [edx+0x75],ah
  40488b:	je     0x4048ad
  40488d:	je     0x4048f7
  40488f:	and    BYTE PTR gs:[ebx+0x74],dh
  404893:	popa   
  404894:	je     0x4048ff
  404896:	arpl   WORD PTR [eax],sp
  404898:	outs   dx,DWORD PTR ds:[esi]
  404899:	outs   dx,BYTE PTR ds:[esi]
  40489a:	gs jae 0x4048bd
  40489d:	push   0x20657661
  4048a2:	je     0x404913
  4048a4:	and    BYTE PTR [edx+0x65],ah
  4048a7:	and    BYTE PTR [ecx+0x6e],ch
  4048aa:	jae    0x404920
  4048ac:	jb     0x404923
  4048ae:	ins    DWORD PTR es:[edi],dx
  4048af:	outs   dx,BYTE PTR gs:[esi]
  4048b1:	je     0x404918
  4048b3:	fs or  eax,0x2020200a
  4048b9:	and    BYTE PTR [eax],ah
  4048bb:	and    BYTE PTR [eax],ah
  4048bd:	and    BYTE PTR [eax],ah
  4048bf:	and    BYTE PTR [eax],ah
  4048c1:	and    BYTE PTR [eax],ah
  4048c3:	and    BYTE PTR [eax],ah
  4048c5:	and    BYTE PTR [eax],ah
  4048c7:	and    BYTE PTR [eax],ah
  4048c9:	and    BYTE PTR [eax],ah
  4048cb:	jne    0x404940
  4048cd:	imul   ebp,DWORD PTR [esi+0x67],0x69737620
  4048d4:	outs   dx,BYTE PTR ds:[esi]
  4048d5:	jae    0x40494b
  4048d7:	jb     0x404907
  4048d9:	add    DWORD PTR [edi],ebp
  4048db:	push   ebp
  4048dc:	jae    0x40493f
  4048de:	cmp    cl,BYTE PTR gs:[di]
  4048e2:	or     ah,BYTE PTR [eax]
  4048e4:	and    BYTE PTR [eax],ah
  4048e6:	and    BYTE PTR [eax],ah
  4048e8:	and    BYTE PTR [esi+0x53],dl
  4048eb:	push   eax
  4048ec:	gs jb  0x404955
  4048ef:	inc    ecx
  4048f0:	push   ebx
  4048f1:	push   eax
  4048f2:	dec    esi
  4048f3:	gs je  0x404939
  4048f6:	ins    DWORD PTR es:[edi],dx
  4048f7:	and    BYTE PTR fs:[ebx+0x6f],bl
  4048fb:	jo     0x404971
  4048fd:	imul   ebp,DWORD PTR [edi+0x6e],0x57205d73
  404904:	inc    ebp
  404905:	inc    edx
  404906:	push   ebx
  404907:	dec    ecx
  404908:	push   esp
  404909:	inc    ebp
  40490a:	add    DWORD PTR [ebp+0x56],edi
  40490d:	push   ebx
  40490e:	push   eax
  40490f:	and    BYTE PTR [edi],dh
  404911:	xor    BYTE PTR [eax],dh
  404913:	cmp    ah,BYTE PTR ss:[eax]
  404916:	push   esp
  404917:	push   0x70732065
  40491c:	arpl   WORD PTR gs:[ecx+0x66],bp
  404920:	imul   esp,DWORD PTR [ebp+0x64],0x6f727020
  404927:	imul   bp,WORD PTR [ecx+ebp*2+0x6e],0x2067
  40492e:	je     0x4049a9
  404930:	jo     0x404997
  404932:	and    BYTE PTR [edx],ah
  404934:	jnp    0x404966
  404936:	jge    0x40495a
  404938:	and    BYTE PTR [ecx+0x73],ch
  40493b:	and    BYTE PTR [esi+0x6f],ch
  40493e:	je     0x404960
  404940:	popa   
  404941:	and    BYTE PTR [esi+0x61],dh
  404944:	ins    BYTE PTR es:[edi],dx
  404945:	imul   esp,DWORD PTR [eax+eiz*1+0x70],0x69666f72
  40494d:	ins    BYTE PTR es:[edi],dx
  40494e:	imul   ebp,DWORD PTR [esi+0x67],0x70797420
  404955:	gs and BYTE PTR cs:[ebx+0x68],al
  40495a:	arpl   WORD PTR gs:[ebx+0x20],bp
  40495e:	je     0x4049c8
  404960:	and    BYTE PTR gs:[edi],ch
  404963:	aas    
  404964:	and    BYTE PTR [eax+0x65],ch
  404967:	ins    BYTE PTR es:[edi],dx
  404968:	jo     0x40498a
  40496a:	je     0x4049d1
  40496c:	js     0x4049e2
  40496e:	and    BYTE PTR [esi+0x6f],ah
  404971:	jb     0x404993
  404973:	jbe    0x4049d6
  404975:	ins    BYTE PTR es:[edi],dx
  404976:	imul   esp,DWORD PTR [eax+eiz*1+0x70],0x69666f72
  40497e:	ins    BYTE PTR es:[edi],dx
  40497f:	imul   ebp,DWORD PTR [esi+0x67],0x70797420
  404986:	gs jae 0x4049b7
  404989:	add    DWORD PTR [esi],esi
  40498b:	push   esi
  40498c:	push   ebx
  40498d:	push   eax
  40498e:	and    BYTE PTR [edi],dh
  404990:	xor    BYTE PTR [eax],dh
  404992:	xor    eax,0x7053203a
  404997:	arpl   WORD PTR gs:[ecx+0x66],bp
  40499b:	imul   esp,DWORD PTR [ebp+0x64],0x62657720
  4049a2:	jae    0x404a0d
  4049a4:	je     0x404a0b
  4049a6:	and    BYTE PTR [edx],ah
  4049a8:	jnp    0x4049da
  4049aa:	jge    0x4049ce
  4049ac:	and    BYTE PTR [ecx+0x73],ch
  4049af:	and    BYTE PTR [esi+0x6f],ch
  4049b2:	je     0x4049d4
  4049b4:	popa   
  4049b5:	and    BYTE PTR [esi+0x61],dh
  4049b8:	ins    BYTE PTR es:[edi],dx
  4049b9:	imul   esp,DWORD PTR [eax+eiz*1+0x55],0xa0d4952
  4049c1:	add    DWORD PTR [ebp+ecx*2+0x69],ebp
  4049c5:	arpl   WORD PTR [edx+0x6f],si
  4049c8:	jae    0x404a39
  4049ca:	data16 je 0x4049ed
  4049cd:	sub    BYTE PTR [edx+0x29],dl
  4049d0:	and    BYTE PTR [esi+0x53],dl
  4049d3:	push   eax
  4049d4:	gs jb  0x404a3d
  4049d7:	and    BYTE PTR [ecx+0x53],al
  4049da:	push   eax
  4049db:	cs dec esi
  4049dd:	inc    ebp
  4049de:	push   esp
  4049df:	and    BYTE PTR [ebx+0x6f],al
  4049e2:	ins    DWORD PTR es:[edi],dx
  4049e3:	ins    DWORD PTR es:[edi],dx
  4049e4:	popa   
  4049e5:	outs   dx,BYTE PTR ds:[esi]
  4049e6:	fs sub al,0x20
  4049e9:	push   esi
  4049ea:	gs jb  0x404a60
  4049ed:	imul   ebp,DWORD PTR [edi+0x6e],0x7d307b20
  4049f4:	or     eax,0x706f430a
  4049f9:	jns    0x404a6d
  4049fb:	imul   esp,DWORD PTR [edi+0x68],0x43282074
  404a02:	sub    DWORD PTR [eax],esp
  404a04:	dec    ebp
  404a05:	imul   esp,DWORD PTR [ebx+0x72],0x666f736f
  404a0c:	je     0x404a2e
  404a0e:	inc    ebx
  404a0f:	outs   dx,DWORD PTR ds:[esi]
  404a10:	jb     0x404a82
  404a12:	outs   dx,DWORD PTR ds:[esi]
  404a13:	jb     0x404a76
  404a15:	je     0x404a80
  404a17:	outs   dx,DWORD PTR ds:[esi]
  404a18:	outs   dx,BYTE PTR ds:[esi]
  404a19:	and    BYTE PTR cs:[ecx+0x6c],al
  404a1d:	ins    BYTE PTR es:[edi],dx
  404a1e:	and    BYTE PTR [edx+0x69],dh
  404a21:	addr16 push 0x72207374
  404a27:	gs jae 0x404a8f
  404a2a:	jb     0x404aa2
  404a2c:	gs fs add DWORD PTR cs:[ebp+0x56],edx
  404a32:	push   ebx
  404a33:	push   eax
  404a34:	and    BYTE PTR [edi],dh
  404a36:	xor    BYTE PTR [eax],dh
  404a38:	xor    al,0x3a
  404a3a:	and    BYTE PTR [edx],ah
  404a3c:	jnp    0x404a6e
  404a3e:	jge    0x404a62
  404a40:	and    BYTE PTR [ebp+0x61],cl
  404a43:	imul   esp,DWORD PTR [ebp+0x20],0x73
  404a47:	jne    0x404abb
  404a49:	and    BYTE PTR gs:[eax+ebp*2+0x61],dh
  404a4e:	je     0x404a70
  404a50:	je     0x404aba
  404a52:	and    BYTE PTR gs:[esi],ch
  404a55:	jbe    0x404aca
  404a57:	jo     0x404a79
  404a59:	imul   esi,DWORD PTR [ebx+0x6e],0x6f207427
  404a60:	jo     0x404ac7
  404a62:	outs   dx,BYTE PTR ds:[esi]
  404a63:	and    BYTE PTR [ecx+0x6e],ah
  404a66:	and    BYTE PTR fs:[edx+0x75],dh
  404a6a:	outs   dx,BYTE PTR ds:[esi]
  404a6b:	and    BYTE PTR [esi+0x53],dl
  404a6e:	push   eax
  404a6f:	gs jb  0x404ad8
  404a72:	inc    ecx
  404a73:	jae    0x404ae5
  404a75:	dec    esi
  404a76:	gs je  0x404abc
  404a79:	ins    DWORD PTR es:[edi],dx
  404a7a:	and    BYTE PTR fs:[edi],ch
  404a7d:	jae    0x404ae7
  404a7f:	jne    0x404af5
  404a81:	outs   dx,DWORD PTR fs:[esi]
  404a83:	ja     0x404af3
  404a85:	add    DWORD PTR cs:[edi+0x50535601],eax
  404a8c:	and    BYTE PTR [edi],dh
  404a8e:	xor    BYTE PTR [eax],dh
  404a90:	xor    edi,DWORD PTR [edx]
  404a92:	and    BYTE PTR [edx],ah
  404a94:	jnp    0x404ac6
  404a96:	jge    0x404aba
  404a98:	and    BYTE PTR [esi+0x61],al
  404a9b:	imul   ebp,DWORD PTR [ebp+eiz*2+0x64],0x206f7420
  404aa3:	jae    0x404b19
  404aa5:	outs   dx,DWORD PTR ds:[esi]
  404aa6:	jo     0x404ac8
  404aa8:	ins    DWORD PTR es:[edi],dx
  404aa9:	outs   dx,DWORD PTR ds:[esi]
  404aaa:	outs   dx,BYTE PTR ds:[esi]
  404aab:	imul   esi,DWORD PTR [edi+ebp*2+0x72],0x6854202e
  404ab3:	imul   esi,DWORD PTR [ebx+0x20],0x6c756f63
  404aba:	and    BYTE PTR fs:[eax+0x61],ch
  404abe:	jo     0x404b30
  404ac0:	outs   dx,BYTE PTR gs:[esi]
  404ac2:	and    BYTE PTR [ecx+0x66],ch
  404ac5:	and    BYTE PTR [esi+0x53],dl
  404ac8:	push   eax
  404ac9:	gs jb  0x404b32
  404acc:	dec    ebp
  404acd:	outs   dx,DWORD PTR ds:[esi]
  404ace:	outs   dx,BYTE PTR ds:[esi]
  404acf:	cs gs js 0x404b38
  404ad3:	and    BYTE PTR [ecx+0x73],ch
  404ad6:	and    BYTE PTR [ebp+eiz*2+0x74],ah
  404ada:	popa   
  404adb:	arpl   WORD PTR [eax+0x65],bp
  404ade:	and    BYTE PTR fs:[edx+0x65],ah
  404ae2:	outs   dx,WORD PTR ds:[esi]
  404ae4:	jb     0x404b4b
  404ae6:	and    BYTE PTR [esi+0x53],dl
  404ae9:	push   eax
  404aea:	gs jb  0x404b53
  404aed:	inc    ecx
  404aee:	push   ebx
  404aef:	push   eax
  404af0:	dec    esi
  404af1:	gs je  0x404b37
  404af4:	ins    DWORD PTR es:[edi],dx
  404af5:	fs cs gs js 0x404b5f
  404afa:	and    BYTE PTR [esi+0x69],ah
  404afd:	outs   dx,BYTE PTR ds:[esi]
  404afe:	imul   esi,DWORD PTR [ebx+0x68],0x70206465
  404b05:	jb     0x404b76
  404b07:	imul   bp,WORD PTR [ecx+ebp*2+0x6e],0x2e67
  404b0e:	or     eax,0x5651010a
  404b13:	push   ebx
  404b14:	push   eax
  404b15:	and    BYTE PTR [edi],dh
  404b17:	xor    BYTE PTR [eax],dh
  404b19:	xor    bh,BYTE PTR [edx]
  404b1b:	and    BYTE PTR [esi+0x6f],cl
  404b1e:	and    BYTE PTR [eax+0x61],dh
  404b21:	jb     0x404b84
  404b23:	ins    DWORD PTR es:[edi],dx
  404b24:	gs je  0x404b8c
  404b27:	jb     0x404b9c
  404b29:	and    BYTE PTR [edi+0x69],ah
  404b2c:	jbe    0x404b93
  404b2e:	outs   dx,BYTE PTR ds:[esi]
  404b2f:	and    BYTE PTR cs:[edx+esi*2+0x79],dl
  404b34:	and    BYTE PTR [ebx+0x68],ah
  404b37:	arpl   WORD PTR gs:[ebx+0x69],bp
  404b3b:	outs   dx,BYTE PTR ds:[esi]
  404b3c:	and    BYTE PTR [bp+0x53],dl
  404b40:	push   eax
  404b41:	gs jb  0x404baa
  404b44:	inc    ecx
  404b45:	jae    0x404bb7
  404b47:	dec    esi
  404b48:	gs je  0x404b8e
  404b4b:	ins    DWORD PTR es:[edi],dx
  404b4c:	and    BYTE PTR fs:[edi],ch
  404b4f:	aas    
  404b50:	and    BYTE PTR [esi+0x6f],ah
  404b53:	jb     0x404b75
  404b55:	push   0x20706c65
  404b5a:	arpl   WORD PTR [edi+0x6d],bp
  404b5d:	ins    DWORD PTR es:[edi],dx
  404b5e:	popa   
  404b5f:	outs   dx,BYTE PTR ds:[esi]
  404b60:	fs jae 0x404b91
  404b63:	add    DWORD PTR [ebx+0x54],ebp
  404b66:	push   0x6f6d2065
  404b6b:	outs   dx,BYTE PTR ds:[esi]
  404b6c:	imul   esi,DWORD PTR [edi+ebp*2+0x72],0x20736920
  404b74:	jae    0x404bea
  404b76:	imul   ebp,DWORD PTR [esp+ebp*2+0x20],0x6e6e7572
  404b7e:	imul   ebp,DWORD PTR [esi+0x67],0x7552202e
  404b85:	outs   dx,BYTE PTR ds:[esi]
  404b86:	and    BYTE PTR [esi+0x53],dl
  404b89:	push   eax
  404b8a:	gs jb  0x404bf3
  404b8d:	inc    ecx
  404b8e:	jae    0x404c00
  404b90:	dec    esi
  404b91:	gs je  0x404bd7
  404b94:	ins    DWORD PTR es:[edi],dx
  404b95:	and    BYTE PTR fs:[edi],ch
  404b98:	jae    0x404c02
  404b9a:	jne    0x404c10
  404b9c:	outs   dx,DWORD PTR fs:[esi]
  404b9e:	ja     0x404c0e
  404ba0:	and    BYTE PTR [edi+ebp*2+0x20],dh
  404ba4:	arpl   WORD PTR [ebp+eiz*2+0x61],bp
  404ba8:	outs   dx,BYTE PTR ds:[esi]
  404ba9:	and    BYTE PTR [eax+ebp*2+0x65],dh
  404bad:	and    BYTE PTR [ebp+0x6e],ah
  404bb0:	jbe    0x404c1b
  404bb2:	jb     0x404c23
  404bb4:	outs   dx,BYTE PTR ds:[esi]
  404bb5:	ins    DWORD PTR es:[edi],dx
  404bb6:	outs   dx,BYTE PTR gs:[esi]
  404bb8:	je     0x404bda
  404bba:	popa   
  404bbb:	outs   dx,BYTE PTR ds:[esi]
  404bbc:	and    BYTE PTR fs:[edx+0x65],dh
  404bc0:	jae    0x404c36
  404bc2:	popa   
  404bc3:	jb     0x404c39
  404bc5:	and    BYTE PTR [ecx+0x53],al
  404bc8:	push   eax
  404bc9:	cs dec esi
  404bcb:	inc    ebp
  404bcc:	push   esp
  404bcd:	cs or  eax,0x566e010a
  404bd3:	push   ebx
  404bd4:	push   eax
  404bd5:	and    BYTE PTR [edi],dh
  404bd7:	xor    BYTE PTR [eax],dh
  404bd9:	xor    DWORD PTR [edx],edi
  404bdb:	and    BYTE PTR [ebx+0x69],dl
  404bde:	je     0x404c45
  404be0:	and    BYTE PTR [edi+ebp*2+0x20],dh
  404be4:	jae    0x404c4e
  404be6:	jne    0x404c5c
  404be8:	and    BYTE PTR [edi+ebp*2+0x77],ah
  404bec:	outs   dx,BYTE PTR ds:[esi]
  404bed:	and    BYTE PTR [esi+0x6f],ch
  404bf0:	je     0x404c12
  404bf2:	outs   dx,WORD PTR ds:[esi]
  404bf4:	jne    0x404c64
  404bf6:	fs and BYTE PTR cs:[eax+0x6c],dl
  404bfb:	gs popa 
  404bfd:	jae    0x404c64
  404bff:	and    BYTE PTR [ebx+0x70],dh
  404c02:	arpl   WORD PTR gs:[ecx+0x66],bp
  404c06:	jns    0x404c28
  404c08:	je     0x404c72
  404c0a:	and    BYTE PTR gs:[edi+0x65],dh
  404c0e:	bound  esi,QWORD PTR [ebx+0x69]
  404c11:	je     0x404c78
  404c13:	and    BYTE PTR [edi+ebp*2+0x20],dh
  404c17:	jae    0x404c81
  404c19:	jne    0x404c8f
  404c1b:	and    BYTE PTR [edi+ebp*2+0x77],ah
  404c1f:	outs   dx,BYTE PTR ds:[esi]
  404c20:	and    BYTE PTR [eax],ch
  404c22:	push   esi
  404c23:	push   ebx
  404c24:	push   eax
  404c25:	gs jb  0x404c8e
  404c28:	inc    ecx
  404c29:	jae    0x404c9b
  404c2b:	dec    esi
  404c2c:	gs je  0x404c72
  404c2f:	ins    DWORD PTR es:[edi],dx
  404c30:	and    BYTE PTR fs:[edi+0x45],dl
  404c34:	inc    edx
  404c35:	push   ebx
  404c36:	dec    ecx
  404c37:	push   esp
  404c38:	inc    ebp
  404c39:	and    BYTE PTR [edi],ch
  404c3b:	sub    DWORD PTR fs:[esi],ebp
  404c3e:	or     eax,0x5236010a
  404c43:	jne    0x404cb3
  404c45:	outs   dx,BYTE PTR ds:[esi]
  404c46:	imul   ebp,DWORD PTR [esi+0x67],0x50735620
  404c4d:	gs jb  0x404cb6
  404c50:	push   edx
  404c51:	gs jo  0x404cc3
  404c54:	jb     0x404cca
  404c56:	sub    al,0x20
  404c58:	jo     0x404cbb
  404c5a:	arpl   WORD PTR [ebx+0x69],bp
  404c5d:	outs   dx,BYTE PTR ds:[esi]
  404c5e:	and    BYTE PTR [bp+di+0x79],dh
  404c62:	ins    DWORD PTR es:[edi],dx
  404c63:	bound  ebp,QWORD PTR [edi+0x6c]
  404c66:	jae    0x404c88
  404c68:	imul   ebp,DWORD PTR [esi+0x74],0x6874206f
  404c6f:	and    BYTE PTR gs:[esi],ch
  404c72:	push   esi
  404c73:	push   ebx
  404c74:	push   eax
  404c75:	cs or  eax,0x5440010a
  404c7b:	push   0x6f6d2065
  404c80:	outs   dx,BYTE PTR ds:[esi]
  404c81:	imul   esi,DWORD PTR [edi+ebp*2+0x72],0x73616820
  404c89:	and    BYTE PTR [ebx+0x68],dh
  404c8c:	jne    0x404d02
  404c8e:	outs   dx,DWORD PTR fs:[esi]
  404c90:	ja     0x404d00
  404c92:	and    BYTE PTR [ecx+0x6e],ah
  404c95:	and    BYTE PTR fs:[eax+ebp*2+0x65],dh
  404c9a:	and    BYTE PTR [ebp+0x6e],ah
  404c9d:	jbe    0x404d08
  404c9f:	jb     0x404d10
  404ca1:	outs   dx,BYTE PTR ds:[esi]
  404ca2:	ins    DWORD PTR es:[edi],dx
  404ca3:	outs   dx,BYTE PTR gs:[esi]
  404ca5:	je     0x404cc7
  404ca7:	push   0x62207361
  404cac:	gs outs dx,BYTE PTR gs:[esi]
  404caf:	and    BYTE PTR [ebx+0x6c],ah
  404cb2:	gs popa 
  404cb4:	jb     0x404d1b
  404cb6:	fs cs or eax,0x5626010a
  404cbd:	push   ebx
  404cbe:	push   eax
  404cbf:	and    BYTE PTR [ecx],dh
  404cc1:	xor    BYTE PTR [eax],dh
  404cc3:	xor    DWORD PTR [edx],edi
  404cc5:	and    BYTE PTR [ebp+0x6e],dl
  404cc8:	push   0x6c646e61
  404ccd:	gs and BYTE PTR fs:[ebp+0x78],ah
  404cd2:	arpl   WORD PTR [ebp+0x70],sp
  404cd5:	je     0x404d40
  404cd7:	outs   dx,DWORD PTR ds:[esi]
  404cd8:	outs   dx,BYTE PTR ds:[esi]
  404cd9:	cmp    ah,BYTE PTR [eax]
  404cdb:	and    bh,BYTE PTR [ebx+0x30]
  404cde:	jge    0x404d02
  404ce0:	or     eax,0x5026010a
  404ce5:	jb     0x404d4c
  404ce7:	jae    0x404d5c
  404ce9:	and    BYTE PTR [ebp+0x6e],al
  404cec:	je     0x404d53
  404cee:	jb     0x404d10
  404cf0:	je     0x404d61
  404cf2:	and    BYTE PTR [ebx+0x74],dh
  404cf5:	outs   dx,DWORD PTR ds:[esi]
  404cf6:	jo     0x404d18
  404cf8:	fs popa 
  404cfa:	je     0x404d5d
  404cfc:	and    BYTE PTR [ebx+0x6f],ah
  404cff:	ins    BYTE PTR es:[edi],dx
  404d00:	ins    BYTE PTR es:[edi],dx
  404d01:	arpl   WORD PTR gs:[ecx+ebp*2+0x6f],si
  404d06:	outs   dx,BYTE PTR ds:[esi]
  404d07:	cs cs add DWORD PTR cs:[eax],ecx
  404d0c:	push   edi
  404d0d:	popa   
  404d0e:	jb     0x404d7e
  404d10:	imul   ebp,DWORD PTR [esi+0x67],0x4a53423a
  404d17:	inc    edx
  404d18:	add    DWORD PTR [eax],eax
  404d1a:	add    DWORD PTR [eax],eax
  404d1c:	add    BYTE PTR [eax],al
  404d1e:	add    BYTE PTR [eax],al
  404d20:	or     al,0x0
  404d22:	add    BYTE PTR [eax],al
  404d24:	jbe    0x404d5a
  404d26:	xor    BYTE PTR cs:[esi],ch
  404d29:	xor    esi,DWORD PTR [eax]
  404d2b:	xor    esi,DWORD PTR [ecx]
  404d2d:	cmp    DWORD PTR [eax],eax
  404d2f:	add    BYTE PTR [eax],al
  404d31:	add    BYTE PTR ds:0x6c00,al
  404d37:	add    BYTE PTR [eax+0x23000011],ch
  404d3d:	jle    0x404d3f
  404d3f:	add    BYTE PTR [edx+edx*1],dl
  404d42:	add    BYTE PTR [eax],al
  404d44:	and    BYTE PTR [ecx],bl
  404d46:	add    BYTE PTR [eax],al
  404d48:	and    edx,DWORD PTR [ebx+0x74]
  404d4b:	jb     0x404db6
  404d4d:	outs   dx,BYTE PTR ds:[esi]
  404d4e:	addr16 jae 0x404d51
  404d51:	add    BYTE PTR [eax],al
  404d53:	add    BYTE PTR [ebx+ebp*1],dh
  404d56:	add    BYTE PTR [eax],al
  404d58:	fmul   QWORD PTR [ecx]
  404d5a:	add    BYTE PTR [eax],al
  404d5c:	and    edx,DWORD PTR [ebp+0x53]
  404d5f:	add    BYTE PTR [eax],dl
  404d61:	xor    eax,0x100000
  404d66:	add    BYTE PTR [eax],al
  404d68:	and    eax,DWORD PTR [edi+0x55]
  404d6b:	dec    ecx
  404d6c:	inc    esp
  404d6d:	add    BYTE PTR [eax],al
  404d6f:	add    BYTE PTR [eax],ah
  404d71:	xor    eax,0x6040000
  404d76:	add    BYTE PTR [eax],al
  404d78:	and    eax,DWORD PTR [edx+0x6c]
  404d7b:	outs   dx,DWORD PTR ds:[esi]
  404d7c:	bound  eax,QWORD PTR [eax]
  404d7e:	add    BYTE PTR [eax],al
  404d80:	add    BYTE PTR [eax],al
  404d82:	add    BYTE PTR [eax],al
  404d84:	add    al,BYTE PTR [eax]
  404d86:	add    BYTE PTR [ecx],al
  404d88:	push   edi
  404d89:	aas    
  404d8a:	mov    ds:0x3091d,al
  404d8f:	add    BYTE PTR [eax],al
  404d91:	cli    
  404d92:	and    eax,0x160033
  404d97:	add    BYTE PTR [ecx],al
  404d99:	add    BYTE PTR [eax],al
  404d9b:	add    BYTE PTR [ebp+0x0],dl
  404d9e:	add    BYTE PTR [eax],al
  404da0:	pop    es
  404da1:	add    BYTE PTR [eax],al
  404da3:	add    BYTE PTR [eax+eax*1],dl
  404da6:	add    BYTE PTR [eax],al
  404da8:	add    BYTE PTR [bx+si],al
  404dab:	add    BYTE PTR [edi],ah
  404dad:	add    BYTE PTR [eax],al
  404daf:	add    BYTE PTR [ecx],al
  404db1:	add    BYTE PTR [eax],al
  404db3:	add    BYTE PTR [ebp+0x1000000],cl
  404db9:	add    BYTE PTR [eax],al
  404dbb:	add    BYTE PTR ds:0x1000000,bl
  404dc1:	add    BYTE PTR [eax],al
  404dc3:	add    BYTE PTR ds:0x3000000,dl
  404dc9:	add    BYTE PTR [eax],al
  404dcb:	add    BYTE PTR [edi],dh
  404dcd:	add    BYTE PTR [eax],al
  404dcf:	add    BYTE PTR [edx],bh
  404dd1:	add    BYTE PTR [eax],al
  404dd3:	add    BYTE PTR [ebx],al
  404dd5:	add    BYTE PTR [eax],al
  404dd7:	add    BYTE PTR [eax],cl
  404dd9:	add    BYTE PTR [eax],al
  404ddb:	add    BYTE PTR [ebx],al
  404ddd:	add    BYTE PTR [eax],al
  404ddf:	add    BYTE PTR [ecx],al
  404de1:	add    BYTE PTR [eax],al
  404de3:	add    BYTE PTR [edi],al
  404de5:	add    BYTE PTR [eax],al
  404de7:	add    BYTE PTR [ecx],al
  404de9:	add    BYTE PTR [eax],al
  404deb:	add    BYTE PTR [ecx],al
  404ded:	add    BYTE PTR [eax],al
  404def:	add    BYTE PTR [eax],al
  404df1:	add    BYTE PTR [edx],cl
  404df3:	add    BYTE PTR [ecx],al
  404df5:	add    BYTE PTR [eax],al
  404df7:	add    BYTE PTR [eax],al
  404df9:	add    BYTE PTR [esi],al
  404dfb:	add    dl,al
  404dfd:	add    BYTE PTR [ebx-0x4fff600],bh
  404e03:	add    cl,cl
  404e05:	add    BYTE PTR [edx],cl
  404e07:	add    BYTE PTR [ecx],cl
  404e09:	add    ecx,ecx
  404e0b:	add    BYTE PTR [edx],cl
  404e0d:	add    BYTE PTR [edi],dl
  404e0f:	add    ecx,ecx
  404e11:	add    BYTE PTR [esi],al
  404e13:	add    BYTE PTR [eax],dh
  404e15:	add    DWORD PTR [ebx+0x4b000600],edi
  404e1b:	add    DWORD PTR [edx],edi
  404e1d:	add    DWORD PTR [esi],eax
  404e1f:	add    BYTE PTR [ecx+eax*1+0x67],bh
  404e23:	add    DWORD PTR [esi],ecx
  404e25:	add    dh,dh
  404e27:	or     BYTE PTR [ebx+0x21000600],bh
  404e2d:	or     dl,BYTE PTR [ecx]
  404e2f:	or     dl,BYTE PTR [edx]
  404e31:	add    BYTE PTR [edx+ecx*1+0x160a57],al
  404e38:	adc    eax,0x60aec0b
  404e3d:	add    BYTE PTR [edi+0xa0c880c],ah
  404e43:	add    BYTE PTR [ebx],al
  404e45:	or     eax,0x600c9
  404e4a:	push   ecx
  404e4b:	or     eax,0x60d36
  404e50:	ror    DWORD PTR ds:0x60dc7,cl
  404e56:	fmul   DWORD PTR [esi]
  404e58:	mov    ecx,0xeb00060e
  404e5d:	push   cs
  404e5e:	mov    ecx,0x60e
  404e63:	ud1    ecx,DWORD PTR [esi]
  404e66:	push   es
  404e67:	add    BYTE PTR [eax+0xf],dh
  404e6a:	push   esi
  404e6b:	clts   
  404e6d:	add    BYTE PTR [ecx+0x60eb90f],cl
  404e73:	add    BYTE PTR [ebp+0x600bb0f],bl
  404e79:	add    ch,al
  404e7b:	btr    DWORD PTR [edi],ecx
  404e7e:	push   es
  404e7f:	add    ah,bl
  404e81:	btr    DWORD PTR [edi],ecx
  404e84:	push   es
  404e85:	add    cl,bh
  404e87:	btr    DWORD PTR [edi],ecx
  404e8a:	push   es
  404e8b:	add    BYTE PTR [edi],dl
  404e8d:	adc    BYTE PTR [ebx+0x3000060f],dh
  404e93:	adc    BYTE PTR [ebx+0x4900060f],dh
  404e99:	adc    BYTE PTR [ebx+0x6400060f],dh
  404e9f:	adc    BYTE PTR [ebx+0x7d00060f],dh
  404ea5:	adc    BYTE PTR [ebx-0x65fff9f1],dh
  404eab:	adc    BYTE PTR [ebx-0x3ffff9f1],dh
  404eb1:	adc    BYTE PTR [edx],bh
  404eb3:	add    DWORD PTR [esi],eax
  404eb5:	add    dl,ah
  404eb7:	adc    BYTE PTR [edx],bh
  404eb9:	add    DWORD PTR [esi],eax
  404ebb:	add    BYTE PTR [ecx+edx*1],al
  404ebe:	mov    bl,0xf
  404ec0:	push   es
  404ec1:	add    BYTE PTR [edi],bl
  404ec3:	adc    DWORD PTR [ebx+0x5800060f],esi
  404ec9:	adc    DWORD PTR [eax],edi
  404ecb:	adc    DWORD PTR [esi],eax
  404ecd:	add    BYTE PTR [ecx-0x6cee89ef],cl
  404ed3:	add    BYTE PTR [ebp+0x6000011],bl
  404ed9:	add    BYTE PTR [ecx+edx*1+0xe1138],ch
  404ee0:	hlt    
  404ee1:	adc    esp,ebx
  404ee3:	adc    DWORD PTR [esi],eax
  404ee5:	add    BYTE PTR [ebx],cl
  404ee7:	adc    dh,BYTE PTR [esi+0x11]
  404eea:	push   es
  404eeb:	add    BYTE PTR [eax],ch
  404eed:	adc    bh,BYTE PTR [eax]
  404eef:	adc    DWORD PTR [esi],eax
  404ef1:	add    BYTE PTR [ebx+0x12],dl
  404ef4:	mov    ebx,0x58000600
  404ef9:	adc    bh,BYTE PTR [ebx+0x7c000600]
  404eff:	adc    dh,BYTE PTR [ebx-0x4dfff1f1]
  404f05:	adc    bl,BYTE PTR [edx+edx*1+0x12cb000e]
  404f0c:	pushf  
  404f0d:	adc    al,BYTE PTR [esi]
  404f0f:	add    al,ah
  404f11:	adc    bh,BYTE PTR [ebx-0x9ffe600]
  404f17:	or     BYTE PTR [ebx+0x1c001600],bh
  404f1d:	adc    ebp,esp
  404f1f:	or     cl,BYTE PTR [edx]
  404f21:	add    BYTE PTR [ebx+edx*1-0x37],al
  404f25:	add    BYTE PTR [esi],cl
  404f27:	add    BYTE PTR [ebx+0x1600bb13],ah
  404f2d:	add    BYTE PTR [esp+edx*1],ah
  404f30:	in     al,dx
  404f31:	or     bl,BYTE PTR [esi]
  404f33:	add    BYTE PTR [ebx+0x12],dl
  404f36:	mov    ebx,0x4f000600
  404f3b:	adc    al,0xbb
  404f3d:	add    BYTE PTR [esi],al
  404f3f:	add    BYTE PTR [eax+0x14],dh
  404f42:	mov    ecx,0xc900060e
  404f47:	adc    al,0xbf
  404f49:	adc    al,0xe
  404f4b:	add    BYTE PTR ds:0xe11760e,al
  404f51:	add    bh,bl
  404f53:	adc    al,0x76
  404f55:	adc    DWORD PTR [edx],ecx
  404f57:	add    BYTE PTR [ecx],ah
  404f59:	adc    eax,0x600c9
  404f5e:	pop    ebp
  404f5f:	adc    eax,0x600bb
  404f64:	arpl   WORD PTR ds:0x3b00bb,dx
  404f6a:	jae    0x404f81
  404f6c:	add    BYTE PTR [eax],al
  404f6e:	cmp    eax,DWORD PTR [eax]
  404f70:	fwait
  404f71:	adc    eax,0x60000
  404f76:	xor    dl,BYTE PTR [esi]
  404f78:	ss or  eax,0x166b0012
  404f7e:	push   edi
  404f7f:	or     dl,BYTE PTR [edx]
  404f81:	add    BYTE PTR [edi+0x16],dh
  404f84:	push   edi
  404f85:	or     dl,BYTE PTR [edx]
  404f87:	add    BYTE PTR [esi+0x60a5716],dl
  404f8d:	add    bl,bl
  404f8f:	push   ss
  404f90:	mov    ebx,0xe7000600
  404f95:	push   ss
  404f96:	mov    ebx,0x3000600
  404f9b:	pop    ss
  404f9c:	mov    ebx,0x18000600
  404fa1:	pop    ss
  404fa2:	adc    DWORD PTR [edx],ecx
  404fa4:	adc    al,BYTE PTR [eax]
  404fa6:	inc    ebp
  404fa7:	pop    ss
  404fa8:	push   edi
  404fa9:	or     dl,BYTE PTR [edx]
  404fab:	add    BYTE PTR [ebp+0x17],dl
  404fae:	push   edi
  404faf:	or     al,BYTE PTR [esi]
  404fb1:	add    BYTE PTR [edi+edx*1+0x36],ch
  404fb5:	or     eax,0x17a70006
  404fba:	xchg   esp,eax
  404fbb:	pop    ss
  404fbc:	push   es
  404fbd:	add    BYTE PTR [edi+edx*1+0x600bb],bh
  404fc4:	rcl    BYTE PTR [edi],1
  404fc6:	mov    ebx,0xed000600
  404fcb:	pop    ss
  404fcc:	mov    BYTE PTR [esi+eax*1],cl
  404fcf:	add    dl,bh
  404fd1:	pop    ss
  404fd2:	ss or  eax,0x180b0006
  404fd8:	mov    bl,0xf
  404fda:	push   es
  404fdb:	add    BYTE PTR [eax],ah
  404fdd:	sbb    BYTE PTR [ebx+0x58000600],bh
  404fe3:	sbb    BYTE PTR [ebx+0x76000600],bh
  404fe9:	sbb    BYTE PTR [ecx-0x55fff9f2],bh
  404fef:	sbb    BYTE PTR [ecx-0x3ffff9f2],bh
  404ff5:	sbb    BYTE PTR [ecx+0xe],bh
  404ffb:	add    BYTE PTR [ecx],al
  404ffd:	add    BYTE PTR [eax],al
  404fff:	add    BYTE PTR [eax],al
  405001:	add    BYTE PTR [ecx],al
  405003:	add    BYTE PTR [ecx],al
  405005:	add    BYTE PTR [eax],al
  405007:	add    BYTE PTR [eax],dl
  405009:	add    BYTE PTR [esi],bl
  40500b:	add    BYTE PTR [ecx],dh
  40500d:	add    BYTE PTR ds:0x1000100,al
  405013:	add    BYTE PTR [ecx],al
  405015:	add    BYTE PTR [eax],dl
  405017:	add    BYTE PTR [ecx+0x0],ch
  40501a:	xor    DWORD PTR [eax],eax
  40501c:	or     DWORD PTR [eax],eax
  40501e:	add    eax,DWORD PTR [eax]
  405020:	das    
  405021:	add    BYTE PTR [ecx],al
  405023:	add    BYTE PTR [eax],dl
  405025:	add    BYTE PTR [ebx+0x0],dh
  405028:	xor    DWORD PTR [eax],eax
  40502a:	or     eax,0x4f000b00
  40502f:	add    BYTE PTR [eax],al
  405031:	add    BYTE PTR [eax],dl
  405033:	add    BYTE PTR [ecx+0x5003100],al
  405039:	add    BYTE PTR ds:0x80005500,cl
  40503f:	add    DWORD PTR [eax],edx
  405041:	add    BYTE PTR [ecx+0x5003100],dl
  405047:	add    BYTE PTR [eax],dl
  405049:	add    BYTE PTR [eax+eax*1+0xa],ah
  40504d:	add    DWORD PTR [eax],edx
  40504f:	add    BYTE PTR [edi+0x15000000],bl
  405055:	add    BYTE PTR [ecx],dl
  405057:	add    BYTE PTR [eax+0x0],ch
  40505a:	adc    DWORD PTR [eax],eax
  40505c:	pop    ebx
  40505d:	add    DWORD PTR [ebx],edx
  40505f:	add    BYTE PTR [ecx],dl
  405061:	add    BYTE PTR [eax+0x11001701],cl
  405067:	add    BYTE PTR [edx+ecx*1+0x11008f],bl
  40506e:	movs   BYTE PTR es:[edi],BYTE PTR ds:[esi]
  40506f:	or     cl,BYTE PTR [edi-0x53ffef00]
  405075:	or     cl,BYTE PTR [edi-0x4bffff00]
  40507b:	or     dl,BYTE PTR [edx+0x22000100]
  405081:	or     edx,DWORD PTR [ebp+0x30000100]
  405087:	or     ebx,DWORD PTR [ecx+0x3d003100]
  40508d:	or     ebx,DWORD PTR [ebp+0x55000100]
  405093:	or     esp,DWORD PTR [ecx+0x22000100]
  405099:	or     al,0x8f
  40509b:	add    BYTE PTR [ecx],al
  40509d:	add    BYTE PTR [ebx],bh
  40509f:	or     al,0x92
  4050a1:	add    BYTE PTR [ecx],al
  4050a3:	add    BYTE PTR [esi],ah
  4050a5:	or     eax,0x100ef
  4050aa:	pop    esi
  4050ab:	or     eax,0x100f7
  4050b0:	je     0x4050bf
  4050b2:	add    BYTE PTR [ecx],al
  4050b4:	push   esi
  4050b5:	sub    BYTE PTR [ebp+ecx*1+0x60119],0x5
  4050bd:	push   cs
  4050be:	add    DWORD PTR ds:[esi],eax
  4050c1:	add    BYTE PTR ds:0x6013e0e,cl
  4050c7:	add    BYTE PTR [esi+ecx*1],dl
  4050ca:	sbb    DWORD PTR [ecx],eax
  4050cc:	push   es
  4050cd:	add    BYTE PTR [esi],bl
  4050cf:	push   cs
  4050d0:	sbb    DWORD PTR [ecx],eax
  4050d2:	shl    BYTE PTR [eax],1
  4050d4:	add    BYTE PTR [eax],al
  4050d6:	add    BYTE PTR [eax],al
  4050d8:	sbb    DWORD PTR [eax],0xffffff98
  4050db:	add    DWORD PTR [ebx],ebx
  4050dd:	add    BYTE PTR [ecx],al
  4050df:	add    al,bl
  4050e1:	and    BYTE PTR [eax],al
  4050e3:	add    BYTE PTR [eax],al
  4050e5:	add    BYTE PTR [ebx+0x1f019e08],dl
  4050eb:	add    BYTE PTR [ecx],al
  4050ed:	add    BYTE PTR [edi],dl
  4050ef:	and    DWORD PTR [eax],eax
  4050f1:	add    BYTE PTR [eax],al
  4050f3:	add    BYTE PTR [ebx+0x2401b208],dl
  4050f9:	add    BYTE PTR [ecx],al
  4050fb:	add    BYTE PTR [esi],bl
  4050fd:	and    DWORD PTR [eax],eax
  4050ff:	add    BYTE PTR [eax],al
  405101:	add    BYTE PTR [ebx+0x2901be08],dl
  405107:	add    BYTE PTR [ecx],al
  405109:	add    BYTE PTR [esi],ah
  40510b:	and    DWORD PTR [eax],eax
  40510d:	add    BYTE PTR [eax],al
  40510f:	add    BYTE PTR [ebx+0x2f01ca08],dl
  405115:	add    BYTE PTR [edx],al
  405117:	add    BYTE PTR [ecx+eiz*1],bh
  40511a:	add    BYTE PTR [eax],al
  40511c:	add    BYTE PTR [eax],al
  40511e:	xchg   ebx,eax
  40511f:	or     dl,ch
  405121:	add    DWORD PTR [edi],ebp
  405123:	add    BYTE PTR [edx],al
  405125:	add    BYTE PTR [edx+0x21],dl
  405128:	add    BYTE PTR [eax],al
  40512a:	add    BYTE PTR [eax],al
  40512c:	xchg   ebx,eax
  40512d:	or     BYTE PTR ds:0x2002f02,al
  405133:	add    BYTE PTR [eax+0x21],ch
  405136:	add    BYTE PTR [eax],al
  405138:	add    BYTE PTR [eax],al
  40513a:	xchg   ebx,eax
  40513b:	or     BYTE PTR [edx+eax*1],ah
  40513e:	das    
  40513f:	add    BYTE PTR [edx],al
  405141:	add    BYTE PTR [esi+0x21],bh
  405144:	add    BYTE PTR [eax],al
  405146:	add    BYTE PTR [eax],al
  405148:	xchg   ebx,eax
  405149:	or     BYTE PTR [edx+0x2],al
  40514c:	das    
  40514d:	add    BYTE PTR [edx],al
  40514f:	add    BYTE PTR [ecx+eiz*1+0x0],dl
  405156:	xchg   ebx,eax
  405157:	or     BYTE PTR [edx+eax*1+0x2f],bl
  40515b:	add    BYTE PTR [edx],al
  40515d:	add    BYTE PTR [edx+0x21],ch
  405163:	add    BYTE PTR [ebx+0x2f027b08],dl
  405169:	add    BYTE PTR [edx],al
  40516b:	add    al,al
  40516d:	and    DWORD PTR [eax],eax
  40516f:	add    BYTE PTR [eax],al
  405171:	add    BYTE PTR [ebx+0x2f029708],dl
  405177:	add    BYTE PTR [edx],al
  405179:	add    dh,dl
  40517b:	and    DWORD PTR [eax],eax
  40517d:	add    BYTE PTR [eax],al
  40517f:	add    BYTE PTR [ebx+0x2f02ab08],dl
  405185:	add    BYTE PTR [edx],al
  405187:	add    ah,ch
  405189:	and    DWORD PTR [eax],eax
  40518b:	add    BYTE PTR [eax],al
  40518d:	add    BYTE PTR [ebx+0x2f02c408],dl
  405193:	add    BYTE PTR [edx],al
  405195:	add    BYTE PTR [edx],al
  405197:	and    al,BYTE PTR [eax]
  405199:	add    BYTE PTR [eax],al
  40519b:	add    BYTE PTR [ebx+0x2f02db08],dl
  4051a1:	add    BYTE PTR [edx],al
  4051a3:	add    BYTE PTR [eax],bl
  4051a5:	and    al,BYTE PTR [eax]
  4051a7:	add    BYTE PTR [eax],al
  4051a9:	add    BYTE PTR [ebx+0x2f02f308],dl
  4051af:	add    BYTE PTR [edx],al
  4051b1:	add    BYTE PTR [esi],ch
  4051b3:	and    al,BYTE PTR [eax]
  4051b5:	add    BYTE PTR [eax],al
  4051b7:	add    BYTE PTR [ebx+0x2f030e08],dl
  4051bd:	add    BYTE PTR [edx],al
  4051bf:	add    BYTE PTR [edx+eiz*1+0x0],al
  4051c3:	add    BYTE PTR [eax],al
  4051c5:	add    BYTE PTR [ebx+0x2f033108],dl
  4051cb:	add    BYTE PTR [edx],al
  4051cd:	add    BYTE PTR [edx+0x22],bl
  4051d0:	add    BYTE PTR [eax],al
  4051d2:	add    BYTE PTR [eax],al
  4051d4:	xchg   ebx,eax
  4051d5:	or     BYTE PTR [ebx+eax*1+0x2f],cl
  4051d9:	add    BYTE PTR [edx],al
  4051db:	add    BYTE PTR [eax+0x22],dh
  4051de:	add    BYTE PTR [eax],al
  4051e0:	add    BYTE PTR [eax],al
  4051e2:	xchg   ebx,eax
  4051e3:	or     BYTE PTR [ebx+eax*1+0x2f],bl
  4051e7:	add    BYTE PTR [edx],al
  4051e9:	add    BYTE PTR [esi+0x22],al
  4051ef:	add    BYTE PTR [ebx+0x2f036a08],dl
  4051f5:	add    BYTE PTR [edx],al
  4051f7:	add    BYTE PTR [edx+eiz*1+0x0],bl
  4051fe:	xchg   ebx,eax
  4051ff:	or     BYTE PTR [esi+0x3],bh
  405202:	das    
  405203:	add    BYTE PTR [edx],al
  405205:	add    BYTE PTR [edx+0x22],dh
  40520b:	add    BYTE PTR [ebx+0x2f039208],dl
  405211:	add    BYTE PTR [edx],al
  405213:	add    al,cl
  405215:	and    al,BYTE PTR [eax]
  405217:	add    BYTE PTR [eax],al
  405219:	add    BYTE PTR [ebx+0x2f039f08],dl
  40521f:	add    BYTE PTR [edx],al
  405221:	add    dh,bl
  405223:	and    al,BYTE PTR [eax]
  405225:	add    BYTE PTR [eax],al
  405227:	add    BYTE PTR [ebx+0x2f03ae08],dl
  40522d:	add    BYTE PTR [edx],al
  40522f:	add    ah,dh
  405231:	and    al,BYTE PTR [eax]
  405233:	add    BYTE PTR [eax],al
  405235:	add    BYTE PTR [ebx+0x2f03bd08],dl
  40523b:	add    BYTE PTR [edx],al
  40523d:	add    BYTE PTR [edx],cl
  40523f:	and    eax,DWORD PTR [eax]
  405241:	add    BYTE PTR [eax],al
  405243:	add    BYTE PTR [ebx+0x2f03cd08],dl
  405249:	add    BYTE PTR [edx],al
  40524b:	add    BYTE PTR [eax],ah
  40524d:	and    eax,DWORD PTR [eax]
  40524f:	add    BYTE PTR [eax],al
  405251:	add    BYTE PTR [ebx+0x2f03dc08],dl
  405257:	add    BYTE PTR [edx],al
  405259:	add    BYTE PTR [esi],dh
  40525b:	and    eax,DWORD PTR [eax]
  40525d:	add    BYTE PTR [eax],al
  40525f:	add    BYTE PTR [ebx+0x2f03f008],dl
  405265:	add    BYTE PTR [edx],al
  405267:	add    BYTE PTR [ebx+eiz*1+0x0],cl
  40526b:	add    BYTE PTR [eax],al
  40526d:	add    BYTE PTR [ebx+0x2f03ff08],dl
  405273:	add    BYTE PTR [edx],al
  405275:	add    BYTE PTR [edx+0x23],ah
  405278:	add    BYTE PTR [eax],al
  40527a:	add    BYTE PTR [eax],al
  40527c:	xchg   ebx,eax
  40527d:	or     BYTE PTR [eax],dl
  40527f:	add    al,0x2f
  405281:	add    BYTE PTR [edx],al
  405283:	add    BYTE PTR [eax+0x23],bh
  405286:	add    BYTE PTR [eax],al
  405288:	add    BYTE PTR [eax],al
  40528a:	xchg   ebx,eax
  40528b:	or     BYTE PTR [esp+eax*1],bl
  40528e:	das    
  40528f:	add    BYTE PTR [edx],al
  405291:	add    BYTE PTR [esi+0x23],cl
  405297:	add    BYTE PTR [ebx+0x2f042a08],dl
  40529d:	add    BYTE PTR [edx],al
  40529f:	add    BYTE PTR [ebx+eiz*1+0x0],ah
  4052a6:	xchg   ebx,eax
  4052a7:	or     BYTE PTR [eax],bh
  4052a9:	add    al,0x2f
  4052ab:	add    BYTE PTR [edx],al
  4052ad:	add    BYTE PTR [edx+0x23],bh
  4052b3:	add    BYTE PTR [ebx+0x2f045108],dl
  4052b9:	add    BYTE PTR [edx],al
  4052bb:	add    al,dl
  4052bd:	and    eax,DWORD PTR [eax]
  4052bf:	add    BYTE PTR [eax],al
  4052c1:	add    BYTE PTR [ebx+0x2f046d08],dl
  4052c7:	add    BYTE PTR [edx],al
  4052c9:	add    dh,ah
  4052cb:	and    eax,DWORD PTR [eax]
  4052cd:	add    BYTE PTR [eax],al
  4052cf:	add    BYTE PTR [ebx+0x2f048a08],dl
  4052d5:	add    BYTE PTR [edx],al
  4052d7:	add    ah,bh
  4052d9:	and    eax,DWORD PTR [eax]
  4052db:	add    BYTE PTR [eax],al
  4052dd:	add    BYTE PTR [ebx+0x2f04a208],dl
  4052e3:	add    BYTE PTR [edx],al
  4052e5:	add    BYTE PTR [edx],dl
  4052e7:	and    al,0x0
  4052e9:	add    BYTE PTR [eax],al
  4052eb:	add    BYTE PTR [ebx+0x2f04b908],dl
  4052f1:	add    BYTE PTR [edx],al
  4052f3:	add    BYTE PTR [eax],ch
  4052f5:	and    al,0x0
  4052f7:	add    BYTE PTR [eax],al
  4052f9:	add    BYTE PTR [ebx+0x2f04ca08],dl
  4052ff:	add    BYTE PTR [edx],al
  405301:	add    BYTE PTR [esi],bh
  405303:	and    al,0x0
  405305:	add    BYTE PTR [eax],al
  405307:	add    BYTE PTR [ebx+0x2f04dc08],dl
  40530d:	add    BYTE PTR [edx],al
  40530f:	add    BYTE PTR [esp+0x0],dl
  405313:	add    BYTE PTR [eax],al
  405315:	add    BYTE PTR [ebx+0x2f04f408],dl
  40531b:	add    BYTE PTR [edx],al
  40531d:	add    BYTE PTR [edx+0x24],ch
  405320:	add    BYTE PTR [eax],al
  405322:	add    BYTE PTR [eax],al
  405324:	xchg   ebx,eax
  405325:	or     BYTE PTR [edi],al
  405327:	add    eax,0x2002f
  40532c:	and    BYTE PTR [eax+eax*1],0x0
  405330:	add    BYTE PTR [eax],al
  405332:	xchg   ebx,eax
  405333:	or     BYTE PTR [ebx],bl
  405335:	add    eax,0x2002f
  40533a:	xchg   esi,eax
  40533b:	and    al,0x0
  40533d:	add    BYTE PTR [eax],al
  40533f:	add    BYTE PTR [ebx+0x2f053208],dl
  405345:	add    BYTE PTR [edx],al
  405347:	add    BYTE PTR [esp+0x0],ch
  40534e:	xchg   ebx,eax
  40534f:	or     BYTE PTR [edi],bh
  405351:	add    eax,0x2002f
  405356:	ret    0x24
  405359:	add    BYTE PTR [eax],al
  40535b:	add    BYTE PTR [esi+0x1b019818],al
  405361:	add    BYTE PTR [edx],al
  405363:	add    bl,cl
  405365:	and    al,0x0
  405367:	add    BYTE PTR [eax],al
  405369:	add    BYTE PTR [esi+0x41019818],al
  40536f:	add    BYTE PTR [edx],al
  405371:	add    ah,dl
  405373:	and    al,0x0
  405375:	add    BYTE PTR [eax],al
  405377:	add    dh,al
  405379:	add    BYTE PTR [eax+ecx*1],dh
  40537c:	inc    edi
  40537d:	add    BYTE PTR [ebx],al
  40537f:	add    BYTE PTR [ebx],bh
  405381:	and    eax,0x0
  405386:	mov    BYTE PTR [eax],0x3c
  405389:	or     BYTE PTR [ebx],bl
  40538b:	add    BYTE PTR [eax+eax*1],al
  40538e:	inc    ebx
  40538f:	and    eax,0x0
  405394:	(bad)  
  405395:	or     BYTE PTR [ebp+0x8],al
  405398:	dec    ebp
  405399:	add    BYTE PTR [eax+eax*1],al
  40539c:	dec    edx
  40539d:	and    eax,0x0
  4053a2:	(bad)  
  4053a3:	or     BYTE PTR [eax+ecx*1+0x4d],dl
  4053a7:	add    BYTE PTR [eax+eax*1],al
  4053aa:	push   ecx
  4053ab:	and    eax,0x0
  4053b0:	(bad)  
  4053b1:	or     BYTE PTR [esi+0x8],bl
  4053b4:	push   ecx
  4053b5:	add    BYTE PTR [eax+eax*1],al
  4053b8:	push   esp
  4053b9:	and    eax,0x0
  4053be:	(bad)  
  4053bf:	or     BYTE PTR [ebx+0x8],dh
  4053c2:	push   ecx
  4053c3:	add    BYTE PTR [eax+eax*1],al
  4053c6:	push   edi
  4053c7:	and    eax,0x0
  4053cc:	(bad)  
  4053cd:	or     BYTE PTR [edi+0x4005108],cl
  4053d3:	add    BYTE PTR [edx+0x25],bl
  4053d6:	add    BYTE PTR [eax],al
  4053d8:	add    BYTE PTR [eax],al
  4053da:	(bad)  
  4053db:	or     BYTE PTR [edx+0x4005108],ah
  4053e1:	add    BYTE PTR [ebp+0x25],bl
  4053e4:	add    BYTE PTR [eax],al
  4053e6:	add    BYTE PTR [eax],al
  4053e8:	(bad)  
  4053e9:	or     BYTE PTR [edx+0x4004d08],dh
  4053ef:	add    BYTE PTR [ebp+eiz*1+0x0],ah
  4053f3:	add    BYTE PTR [eax],al
  4053f5:	add    ah,al
  4053f7:	add    BYTE PTR [edi+0x4005508],bh
  4053fd:	add    BYTE PTR [eax],cl
  4053ff:	add    BYTE PTR es:[eax],al
  405402:	add    BYTE PTR [eax],al
  405404:	les    eax,FWORD PTR [eax]
  405406:	aad    0x8
  405408:	inc    edi
  405409:	add    BYTE PTR [edi],al
  40540b:	add    BYTE PTR [edi+0x26],ch
  40540e:	add    BYTE PTR [eax],al
  405410:	add    BYTE PTR [eax],al
  405412:	les    eax,FWORD PTR [eax]
  405414:	jmp    0x40541e
  405416:	pop    ebp
  405417:	add    BYTE PTR [eax],cl
  405419:	add    BYTE PTR [eax+0x26],bh
  40541c:	add    BYTE PTR [eax],al
  40541e:	add    BYTE PTR [eax],al
  405420:	add    DWORD PTR [eax],0x6208fa
  405426:	or     BYTE PTR [eax],al
  405428:	fsub   QWORD PTR [esi]
  40542a:	add    BYTE PTR [eax],al
  40542c:	add    BYTE PTR [eax],al
  40542e:	add    DWORD PTR [eax],0x68090a
  405434:	or     DWORD PTR [eax],eax
  405436:	cwde   
  405437:	daa    
  405438:	add    BYTE PTR [eax],al
  40543a:	add    BYTE PTR [eax],al
  40543c:	add    DWORD PTR [eax],0x1b091c
  405442:	or     al,BYTE PTR [eax]
  405444:	in     al,0x27
  405446:	add    BYTE PTR [eax],al
  405448:	add    BYTE PTR [eax],al
  40544a:	add    DWORD PTR [eax],0x6f0932
  405450:	or     al,BYTE PTR [eax]
  405452:	inc    eax
  405453:	sub    BYTE PTR [eax],al
  405455:	add    BYTE PTR [eax],al
  405457:	add    BYTE PTR [ecx+0x75094600],al
  40545d:	add    BYTE PTR [ebx],cl
  40545f:	add    BYTE PTR [eax+ebp*1+0x0],bl
  405466:	add    DWORD PTR [eax],0x7a0951
  40546c:	or     al,0x0
  40546e:	movs   BYTE PTR es:[edi],BYTE PTR ds:[esi]
  40546f:	sub    al,BYTE PTR [eax]
  405471:	add    BYTE PTR [eax],al
  405473:	add    BYTE PTR [ecx+0x1b096a00],al
  405479:	add    BYTE PTR ds:0x2bfc00,cl
  40547f:	add    BYTE PTR [eax],al
  405481:	add    BYTE PTR [ecx+0x1b098400],al
  405487:	add    BYTE PTR ds:0x2d1800,cl
  40548d:	add    BYTE PTR [eax],al
  40548f:	add    BYTE PTR [ecx+0x1b099c00],al
  405495:	add    BYTE PTR ds:0x2d8e00,cl
  40549b:	add    BYTE PTR [eax],al
  40549d:	add    BYTE PTR [ecx+0x1b09b300],al
  4054a3:	add    BYTE PTR ds:0x2d9c00,cl
  4054a9:	add    BYTE PTR [eax],al
  4054ab:	add    BYTE PTR [ecx-0x7ff63900],al
  4054b1:	add    BYTE PTR ds:0x2eb400,cl
  4054b7:	add    BYTE PTR [eax],al
  4054b9:	add    BYTE PTR [ecx+0x4d09d400],al
  4054bf:	add    BYTE PTR [esi],cl
  4054c1:	add    BYTE PTR [eax+0x2f],al
  4054c4:	add    BYTE PTR [eax],al
  4054c6:	add    BYTE PTR [eax],al
  4054c8:	add    DWORD PTR [eax],0x1b09e8
  4054ce:	push   cs
  4054cf:	add    BYTE PTR [eax+0x2f],ah
  4054d2:	add    BYTE PTR [eax],al
  4054d4:	add    BYTE PTR [eax],al
  4054d6:	add    DWORD PTR [eax],0x1b09f6
  4054dc:	push   cs
  4054dd:	add    al,dh
  4054df:	das    
  4054e0:	add    BYTE PTR [eax],al
  4054e2:	add    BYTE PTR [eax],al
  4054e4:	add    DWORD PTR [eax],0x750a08
  4054ea:	push   cs
  4054eb:	add    BYTE PTR [eax+0x30],bh
  4054ee:	add    BYTE PTR [eax],al
  4054f0:	add    BYTE PTR [eax],al
  4054f2:	or     DWORD PTR [eax],0x850a2d
  4054f8:	sldt   esp
  4054fb:	xor    BYTE PTR [eax],al
  4054fd:	add    BYTE PTR [eax],al
  4054ff:	add    BYTE PTR [ecx-0x75f573f8],al
  405505:	add    BYTE PTR [edi],cl
  405507:	add    BYTE PTR [ecx+esi*1],dl
  40550a:	add    BYTE PTR [eax],al
  40550c:	add    BYTE PTR [eax],al
  40550e:	xchg   ecx,eax
  40550f:	sbb    BYTE PTR [ebp+0x17],ah
  405512:	in     eax,0x0
  405514:	sldt   WORD PTR [ecx+esi*1+0x0]
  40551c:	xchg   BYTE PTR [eax],bl
  40551e:	cwde   
  40551f:	add    DWORD PTR [ebx],ebx
  405521:	add    BYTE PTR [edi],cl
  405523:	add    BYTE PTR [edx+0x31],dl
  405529:	add    BYTE PTR [ecx+0x1b0bde00],al
  40552f:	add    BYTE PTR [edi],cl
  405531:	add    BYTE PTR [edx+0x31],ah
  405537:	add    BYTE PTR [esi+0x4d0bf008],al
  40553d:	add    BYTE PTR [edi],cl
  40553f:	add    BYTE PTR [edx+0x31],ch
  405545:	add    BYTE PTR [esi-0x7ff403f8],al
  40554b:	add    BYTE PTR [edi],cl
  40554d:	add    BYTE PTR [ebx+0x31],dh
  405553:	add    BYTE PTR [esi+0x510c0808],al
  405559:	add    BYTE PTR [eax],dl
  40555b:	add    BYTE PTR [ebx+0x31],bh
  405561:	add    BYTE PTR [esi-0x48f3eaf8],al
  405567:	add    BYTE PTR [eax],dl
  405569:	add    ah,al
  40556b:	xor    DWORD PTR [eax],eax
  40556d:	add    BYTE PTR [eax],al
  40556f:	add    BYTE PTR [ecx-0x43f3a300],dl
  405575:	add    BYTE PTR [ecx],dl
  405577:	add    ah,ah
  405579:	xor    DWORD PTR [eax],eax
  40557b:	add    BYTE PTR [eax],al
  40557d:	add    BYTE PTR [esi-0x3df39e00],al
  405583:	add    BYTE PTR [edx],dl
  405585:	add    BYTE PTR [edx+esi*1+0x0],ah
  405589:	add    BYTE PTR [eax],al
  40558b:	add    BYTE PTR [ecx+0x1b0c7000],al
  405591:	add    BYTE PTR [ebx],dl
  405593:	add    BYTE PTR [edx+esi*1+0x0],al
  40559a:	add    DWORD PTR [eax],0xc80c80
  4055a0:	adc    eax,DWORD PTR [eax]
  4055a2:	enter  0x32,0x0
  4055a6:	add    BYTE PTR [eax],al
  4055a8:	add    DWORD PTR [eax],0xce0cbc
  4055ae:	adc    al,0x0
  4055b0:	in     eax,dx
  4055b1:	xor    al,BYTE PTR [eax]
  4055b3:	add    BYTE PTR [eax],al
  4055b5:	add    BYTE PTR [ecx-0x28f33100],al
  4055bb:	add    BYTE PTR [eax+eax*1],dl
  4055be:	sti    
  4055bf:	xor    al,BYTE PTR [eax]
  4055c1:	add    BYTE PTR [eax],al
  4055c3:	add    BYTE PTR [ebx-0x21f32200],al
  4055c9:	add    BYTE PTR ds:0x333400,dl
  4055cf:	add    BYTE PTR [eax],al
  4055d1:	add    dh,ah
  4055d3:	add    ecx,esi
  4055d5:	or     al,0x1b
  4055d7:	add    BYTE PTR [esi],dl
  4055d9:	add    BYTE PTR [eax],bl
  4055db:	xor    al,0x0
  4055dd:	add    BYTE PTR [eax],al
  4055df:	add    BYTE PTR [ecx-0x1af30600],dl
  4055e5:	add    BYTE PTR [esi],dl
  4055e7:	add    BYTE PTR [esp+esi*1+0x0],bl
  4055eb:	add    BYTE PTR [eax],al
  4055ed:	add    BYTE PTR [ecx-0x16f2f100],al
  4055f3:	add    BYTE PTR [esi],dl
  4055f5:	add    BYTE PTR [esi+0x34],cl
  4055fb:	add    BYTE PTR [esi+0x40d8100],al
  405601:	add    DWORD PTR [edi],edx
  405603:	add    BYTE PTR [esp+esi*1+0x0],bl
  40560a:	out    0x1,al
  40560c:	or     DWORD PTR ds:0x19010b,0x34d4
  405616:	add    BYTE PTR [eax],al
  405618:	out    0x1,al
  40561a:	(bad)  
  40561b:	or     eax,0x1c0080
  405620:	fdiv   QWORD PTR [eax+eax*1]
  405623:	add    BYTE PTR [eax],al
  405625:	add    dh,ah
  405627:	add    DWORD PTR [esi+0x1d01140d],ebx
  40562d:	add    dh,bl
  40562f:	xor    al,0x0
  405631:	add    BYTE PTR [eax],al
  405633:	add    BYTE PTR [esi+0x1b019818],al
  405639:	add    BYTE PTR [esi],bl
  40563b:	add    BYTE PTR [eax],al
  40563d:	add    BYTE PTR [eax],al
  40563f:	add    BYTE PTR [eax-0x50df6a00],al
  405645:	or     eax,0x1e0121
  40564a:	add    BYTE PTR [eax],al
  40564c:	add    BYTE PTR [eax],al
  40564e:	add    BYTE PTR [eax],0x96
  405651:	and    BYTE PTR [ebx+0x2001260d],bh
  405657:	add    BYTE PTR [eax],al
  405659:	add    BYTE PTR [eax],al
  40565b:	add    BYTE PTR [eax-0x1edf6a00],al
  405661:	or     eax,0x23012f
  405666:	out    0x34,al
  405668:	add    BYTE PTR [eax],al
  40566a:	add    BYTE PTR [eax],al
  40566c:	xchg   ebx,eax
  40566d:	add    bl,bh
  40566f:	or     eax,0x270139
  405674:	add    BYTE PTR [eax],al
  405676:	add    DWORD PTR [eax],eax
  405678:	daa    
  405679:	push   cs
  40567a:	add    BYTE PTR [eax],al
  40567c:	add    DWORD PTR [eax],eax
  40567e:	sub    eax,0x100000e
  405683:	add    BYTE PTR ds:0x100000e,bh
  405689:	add    BYTE PTR [ebx+0xe],cl
  40568c:	add    BYTE PTR [eax],al
  40568e:	add    al,BYTE PTR [eax]
  405690:	dec    esi
  405691:	push   cs
  405692:	add    BYTE PTR [eax],al
  405694:	add    eax,DWORD PTR [eax]
  405696:	push   edi
  405697:	push   cs
  405698:	add    BYTE PTR [eax],al
  40569a:	add    DWORD PTR [eax],eax
  40569c:	dec    ebx
  40569d:	push   cs
  40569e:	add    BYTE PTR [eax],al
  4056a0:	add    DWORD PTR [eax],eax
  4056a2:	popa   
  4056a3:	push   cs
  4056a4:	add    BYTE PTR [eax],al
  4056a6:	add    DWORD PTR [eax],eax
  4056a8:	gs push cs
  4056aa:	add    BYTE PTR [eax],al
  4056ac:	add    DWORD PTR [eax],eax
  4056ae:	js     0x4056be
  4056b0:	add    BYTE PTR [eax],al
  4056b2:	add    DWORD PTR [eax],eax
  4056b4:	or     BYTE PTR [esi],0x0
  4056b7:	add    BYTE PTR [ecx],al
  4056b9:	add    BYTE PTR [ecx+0xe],ah
  4056bc:	add    BYTE PTR [eax],al
  4056be:	add    DWORD PTR [eax],eax
  4056c0:	test   BYTE PTR [esi],cl
  4056c2:	add    BYTE PTR [eax],al
  4056c4:	add    DWORD PTR [eax],eax
  4056c6:	or     BYTE PTR [esi],0x0
  4056c9:	add    BYTE PTR [ecx],al
  4056cb:	add    BYTE PTR [edi],ah
  4056cd:	push   cs
  4056ce:	add    BYTE PTR [eax],al
  4056d0:	add    DWORD PTR [eax],eax
  4056d2:	daa    
  4056d3:	push   cs
  4056d4:	add    BYTE PTR [eax],al
  4056d6:	add    DWORD PTR [eax],eax
  4056d8:	(bad)  
  4056d9:	push   cs
  4056da:	add    BYTE PTR [eax],al
  4056dc:	add    DWORD PTR [eax],eax
  4056de:	(bad)  
  4056df:	push   cs
  4056e0:	add    BYTE PTR [eax],al
  4056e2:	add    DWORD PTR [eax],eax
  4056e4:	(bad)  
  4056e5:	push   cs
  4056e6:	add    BYTE PTR [eax],al
  4056e8:	add    DWORD PTR [eax],eax
  4056ea:	(bad)  
  4056eb:	push   cs
  4056ec:	add    BYTE PTR [eax],al
  4056ee:	add    DWORD PTR [eax],eax
  4056f0:	(bad)  
  4056f1:	push   cs
  4056f2:	add    BYTE PTR [eax],al
  4056f4:	add    DWORD PTR [eax],eax
  4056f6:	xchg   esp,eax
  4056f7:	push   cs
  4056f8:	add    BYTE PTR [eax],al
  4056fa:	add    DWORD PTR [eax],eax
  4056fc:	mov    al,ds:0x200000e
  405701:	add    BYTE PTR [esi+ecx*1+0x10000],dl
  405708:	mov    al,ds:0x200000e
  40570d:	add    BYTE PTR [eax+0x300000e],ch
  405713:	add    BYTE PTR [esi+ecx*1+0x10000],dl
  40571a:	mov    al,ds:0x100000e
  40571f:	add    BYTE PTR [ebx+0x20000e],dh
  405725:	add    BYTE PTR [eax],al
  405727:	add    BYTE PTR [eax],al
  405729:	add    BYTE PTR [ecx],al
  40572b:	add    cl,bh
  40572d:	push   cs
  40572e:	add    BYTE PTR [eax],al
  405730:	add    DWORD PTR [eax],eax
  405732:	or     BYTE PTR [esi],0x2
  405735:	add    BYTE PTR [edx],al
  405737:	add    ch,bh
  405739:	push   cs
  40573a:	add    BYTE PTR [eax],al
  40573c:	add    eax,DWORD PTR [eax]
  40573e:	or     eax,0x100000f
  405743:	add    BYTE PTR [ecx],bl
  405745:	sldt   WORD PTR [eax]
  405748:	add    al,BYTE PTR [eax]
  40574a:	daa    
  40574b:	sldt   WORD PTR [eax]
  40574e:	add    eax,DWORD PTR [eax]
  405750:	xor    ecx,DWORD PTR [edi]
  405752:	add    BYTE PTR [eax],al
  405754:	add    al,0x0
  405756:	inc    eax
  405757:	sldt   WORD PTR [eax]
  40575a:	add    DWORD PTR [eax],eax
  40575c:	push   ebx
  40575d:	syscall 
  40575f:	add    BYTE PTR [ecx],dl
  405761:	add    BYTE PTR [ecx+0x41019800],al
  405767:	add    DWORD PTR [ecx+0x1b019800],edx
  40576d:	add    BYTE PTR [ecx-0x7ffe6800],bl
  405773:	add    BYTE PTR [ecx-0x48fe6800],ah
  405779:	add    BYTE PTR [ecx-0x48fe6800],ch
  40577f:	add    BYTE PTR [ecx-0x7ffe6800],dh
  405785:	add    BYTE PTR [ecx-0x7ffe6800],bh
  40578b:	add    cl,al
  40578d:	add    BYTE PTR [eax-0x36ff7fff],bl
  405793:	add    BYTE PTR [eax-0x2eff7fff],bl
  405799:	add    BYTE PTR [eax-0x26ff7fff],bl
  40579f:	add    BYTE PTR [eax-0x1eff7fff],bl
  4057a5:	add    BYTE PTR [eax-0x16ff7fff],bl
  4057ab:	add    BYTE PTR [eax-0xeff7fff],bl
  4057b1:	add    BYTE PTR [eax-0x6ff7fff],bl
  4057b7:	add    BYTE PTR [eax+0x1008001],bl
  4057bd:	add    DWORD PTR [eax+0x9008001],ebx
  4057c3:	add    DWORD PTR [eax+0x1100b701],ebx
  4057c9:	add    DWORD PTR [eax+0x19008001],ebx
  4057cf:	add    DWORD PTR [eax+0x21001b01],ebx
  4057d5:	add    DWORD PTR [eax+0x31014901],ebx
  4057db:	add    DWORD PTR [eax+0x39011401],ebx
  4057e1:	add    DWORD PTR [eax+0x4101f201],ebx
  4057e7:	add    DWORD PTR [eax+0x49001b01],ebx
  4057ed:	add    DWORD PTR [eax+0x9001b01],ebx
  4057f3:	add    BYTE PTR [eax+0x9001b01],bl
  4057f9:	add    BYTE PTR [ebx+0x12],al
  4057fc:	add    dl,BYTE PTR ds:[ecx+0x1]
  405800:	push   0x12
  405802:	inc    esp
  405803:	add    dl,BYTE PTR [ecx+0x1]
  405806:	test   DWORD PTR [edx],edx
  405808:	dec    ebp
  405809:	add    dh,BYTE PTR [ecx]
  40580b:	add    BYTE PTR [eax+0x31025301],bl
  405811:	add    BYTE PTR [edx+0x69026012],dl
  405817:	add    DWORD PTR [eax+0x11026701],ebx
  40581d:	add    BYTE PTR [eax+0x79004101],bl
  405823:	add    edi,esp
  405825:	adc    dh,BYTE PTR [edi+0x2]
  405828:	inc    ecx
  405829:	add    BYTE PTR [eax+0x19008001],bl
  40582f:	add    ch,dh
  405831:	adc    dl,BYTE PTR [ecx+0x0]
  405834:	jns    0x405837
  405836:	add    dl,BYTE PTR [ebx]
  405838:	add    DWORD PTR [edx],0x130e0179
  40583e:	xchg   DWORD PTR [edx],eax
  405840:	adc    DWORD PTR [eax],eax
  405842:	or     DWORD PTR ds:0x11010b,0x2970d81
  40584c:	inc    ecx
  40584d:	add    BYTE PTR [edx],al
  40584f:	adc    esp,DWORD PTR [edx+eax*1+0xd810011]
  405856:	add    al,0x1
  405858:	pop    ecx
  405859:	add    BYTE PTR ds:0x4902ac13,dl
  40585f:	add    BYTE PTR [edx],dh
  405861:	adc    esi,DWORD PTR [edx+eax*1+0x133b0009]
  405868:	dec    ebp
  405869:	add    BYTE PTR [ecx],bl
  40586b:	add    BYTE PTR [edx+0x13],dl
  40586e:	mov    ecx,0x64001902
  405873:	adc    eax,DWORD PTR [eax+0x73017900]
  405879:	adc    ecx,DWORD PTR [edi+0x79004900]
  40587f:	adc    eax,edi
  405881:	add    bl,BYTE PTR [ecx]
  405883:	add    BYTE PTR [edx+0x19004d13],al
  405889:	add    BYTE PTR [ecx+0x4102cd13],dl
  40588f:	add    BYTE PTR [ebx+0x4102d313],ch
  405895:	add    BYTE PTR [eax+0x4102db01],bl
  40589b:	add    cl,al
  40589d:	adc    ecx,DWORD PTR [ebp+0x0]
  4058a0:	inc    ecx
  4058a1:	add    ah,cl
  4058a3:	adc    ecx,DWORD PTR [edi-0x25fe8700]
  4058a9:	adc    eax,DWORD PTR [ecx-0x17ffbefe]
  4058af:	adc    ecx,DWORD PTR [edi-0x8ffbf00]
  4058b5:	adc    ecx,DWORD PTR [edi+0x5005900]
  4058bb:	adc    al,0x51
  4058bd:	add    BYTE PTR [ecx+0x0],bl
  4058c0:	adc    DWORD PTR [ebx+eiz*8],edx
  4058c3:	add    dl,BYTE PTR [ecx]
  4058c5:	add    BYTE PTR [edi+0x5900800d],cl
  4058cb:	add    BYTE PTR [edi],bh
  4058cd:	adc    al,0xe8
  4058cf:	add    dh,BYTE PTR [ecx+0x4d145901]
  4058d5:	add    BYTE PTR [ecx],bl
  4058d7:	add    BYTE PTR [ebp+0x14],ah
  4058da:	push   ecx
  4058db:	add    BYTE PTR [ecx],bl
  4058dd:	add    BYTE PTR [ebp+0x14],bh
  4058e0:	push   ecx
  4058e1:	add    BYTE PTR [ecx],bl
  4058e3:	add    BYTE PTR [ebp+0x6100b714],cl
  4058e9:	add    DWORD PTR [ebp+0x6102ff14],ebx
  4058ef:	add    DWORD PTR [edx-0x3effb2ec],esi
  4058f5:	add    esi,ecx
  4058f7:	adc    al,0x5
  4058f9:	add    edi,DWORD PTR [ecx+0x1]
  4058fc:	push   cs
  4058fd:	adc    ecx,DWORD PTR [edx]
  4058ff:	add    ecx,ecx
  405901:	add    DWORD PTR [eax-0x2effe4ff],ebx
  405907:	add    DWORD PTR [eax-0x36fe0dff],ebx
  40590d:	add    eax,esi
  40590f:	adc    al,0x10
  405911:	add    ecx,ecx
  405913:	add    esi,edi
  405915:	adc    al,0x51
  405917:	add    cl,cl
  405919:	add    DWORD PTR [edx*1+0xc001b],eax
  405920:	cwde   
  405921:	add    DWORD PTR [ebx],ebx
  405923:	add    BYTE PTR [eax+eax*1],cl
  405926:	adc    BYTE PTR ds:0x190333,dl
  40592c:	sbb    DWORD PTR ds:0x190051,edx
  405932:	ss adc eax,0x39033b
  405938:	dec    eax
  405939:	adc    eax,0x1e10024
  40593e:	cmp    edx,DWORD PTR [ebx]
  405940:	inc    ecx
  405941:	add    ecx,DWORD PTR [eax+eax*1]
  405944:	adc    DWORD PTR ds:0x140348,0x35c158a
  40594e:	adc    al,0x0
  405950:	xchg   esp,eax
  405951:	adc    eax,0xc0360
  405956:	stos   DWORD PTR es:[edi],eax
  405957:	adc    eax,0x1c0368
  40595c:	mov    dl,BYTE PTR ds:0x1c035c
  405962:	xchg   esp,eax
  405963:	adc    eax,0x59037c
  405968:	mov    dh,0x15
  40596a:	test   BYTE PTR [ebx],al
  40596c:	pop    ecx
  40596d:	add    dh,al
  40596f:	adc    eax,0x5900c8
  405974:	xlat   BYTE PTR ds:[ebx]
  405975:	adc    eax,0x59001b
  40597a:	out    0x15,al
  40597c:	call   0xf840b283
  405981:	adc    eax,0x590051
  405986:	add    al,0x16
  405988:	pop    esp
  405989:	add    ebx,DWORD PTR [ecx+0x0]
  40598c:	sbb    BYTE PTR [esi],dl
  40598e:	dec    ebp
  40598f:	add    BYTE PTR [eax+eax*1],ah
  405992:	cwde   
  405993:	add    DWORD PTR [ebx],ebx
  405995:	add    BYTE PTR [eax+eax*1],ah
  405998:	cmp    DWORD PTR [esi],edx
  40599a:	mov    ds:0x3d005903,al
  40599f:	push   ss
  4059a0:	dec    ebp
  4059a1:	add    BYTE PTR [eax+eax*1],ah
  4059a4:	arpl   WORD PTR [esi],dx
  4059a6:	test   al,0x3
  4059a8:	push   ecx
  4059a9:	add    bh,al
  4059ab:	or     DWORD PTR [esi-0x75ffaefd],ebp
  4059b1:	push   ss
  4059b2:	mov    ebx,0xa6021103
  4059b7:	push   ss
  4059b8:	rol    DWORD PTR [ebx],0x79
  4059bb:	add    BYTE PTR [eax+0x79011401],bl
  4059c1:	add    DWORD PTR [esi],ecx
  4059c3:	adc    edx,esi
  4059c5:	add    edx,DWORD PTR [ecx]
  4059c7:	add    bh,BYTE PTR [eax+0x1103ea16]
  4059cd:	add    al,dh
  4059cf:	push   ss
  4059d0:	adc    al,0x1
  4059d2:	pop    ecx
  4059d3:	add    BYTE PTR [eax+ecx*1],bh
  4059d6:	sbb    eax,DWORD PTR [eax]
  4059d8:	push   ecx
  4059d9:	add    BYTE PTR [eax+ecx*1],bh
  4059dc:	lock add ebx,DWORD PTR [ecx+0x0]
  4059e0:	aam    0x16
  4059e2:	push   ecx
  4059e3:	add    BYTE PTR [ecx],ah
  4059e5:	add    ah,dl
  4059e7:	push   ss
  4059e8:	ds add ecx,ecx
  4059eb:	add    esi,edi
  4059ed:	adc    al,0xfb
  4059ef:	add    edi,DWORD PTR [ecx]
  4059f1:	add    ah,BYTE PTR [ecx]
  4059f3:	pop    ss
  4059f4:	or     al,0x4
  4059f6:	dec    ecx
  4059f7:	add    BYTE PTR ds:0x49041017,ch
  4059fd:	add    BYTE PTR [eax],bh
  4059ff:	pop    ss
  405a00:	pop    ss
  405a01:	add    al,0x41
  405a03:	add    bl,BYTE PTR [eax+0x49001b01]
  405a09:	add    bl,BYTE PTR [eax+0x19001b01]
  405a0f:	add    BYTE PTR [eax+0x2c001b01],bl
  405a15:	add    BYTE PTR [eax+0x34001b01],bl
  405a1b:	add    BYTE PTR [edx+0x17],bh
  405a1e:	cmp    al,0x4
  405a20:	cmp    al,0x0
  405a22:	mov    BYTE PTR [edi],dl
  405a24:	dec    esi
  405a25:	add    al,0x11
  405a27:	add    BYTE PTR [ebp+0x8],al
  405a2a:	dec    ebp
  405a2b:	add    BYTE PTR [eax+eax*1],ch
  405a2e:	cmp    DWORD PTR [esi],edx
  405a30:	xor    eax,DWORD PTR [ebx]
  405a32:	pop    ecx
  405a33:	add    dh,BYTE PTR [ebx+0x61005117]
  405a39:	add    cl,al
  405a3b:	pop    ss
  405a3c:	sbb    eax,DWORD PTR [eax]
  405a3e:	imul   eax,DWORD PTR [edx],0x45f17d8
  405a44:	adc    DWORD PTR [eax],eax
  405a46:	cmp    al,0x8
  405a48:	sbb    eax,DWORD PTR [eax]
  405a4a:	adc    DWORD PTR [eax],eax
  405a4c:	fst    QWORD PTR [edi]
  405a4e:	inc    edi
  405a4f:	add    BYTE PTR [ecx],dl
  405a51:	add    BYTE PTR [eax+ecx*1],dh
  405a54:	inc    edi
  405a55:	add    BYTE PTR [eax+eax*1-0x68],al
  405a59:	add    DWORD PTR [ebx],ebx
  405a5b:	add    BYTE PTR [eax+eax*1+0x39],al
  405a5f:	push   ss
  405a60:	mov    ds:0x98003403,al
  405a65:	add    DWORD PTR [eax+0x4],esi
  405a68:	adc    DWORD PTR [eax],eax
  405a6a:	iret   
  405a6b:	or     al,0xd7
  405a6d:	add    BYTE PTR [eax+eax*1],ch
  405a70:	add    bl,BYTE PTR [eax]
  405a72:	test   DWORD PTR [ecx+edx*1],eax
  405a75:	add    BYTE PTR [edx+0x61004d08],dh
  405a7b:	add    DWORD PTR [eax],ebx
  405a7d:	sbb    BYTE PTR [esp+eax*1+0x18280281],cl
  405a84:	xchg   edx,eax
  405a85:	add    al,0x39
  405a87:	add    BYTE PTR [eax+ebx*1],dh
  405a8a:	and    al,0x0
  405a8c:	jns    0x405a8f
  405a8e:	inc    edi
  405a8f:	sbb    BYTE PTR [eax+0x4e026904],bl
  405a95:	sbb    bl,ah
  405a97:	add    dl,BYTE PTR [ecx+0x2f186402]
  405a9d:	add    BYTE PTR [ecx+0x2],ch
  405aa0:	jo     0x405aba
  405aa2:	jecxz  0x405aa6
  405aa4:	cdq    
  405aa5:	add    bl,BYTE PTR [eax-0x5eff7fff]
  405aab:	add    bl,BYTE PTR [eax+0x804ad01]
  405ab1:	add    BYTE PTR [eax+0x0],al
  405ab4:	sbb    al,0x1
  405ab6:	sub    DWORD PTR [eax],eax
  405ab8:	sti    
  405ab9:	add    BYTE PTR [esi+0x2],ch
  405abc:	add    BYTE PTR cs:[ebx],dh
  405abf:	add    al,bh
  405ac1:	add    al,0x2e
  405ac3:	add    BYTE PTR [ebx],bh
  405ac5:	add    al,bh
  405ac7:	add    al,0x2e
  405ac9:	add    BYTE PTR [ebx+0x2e05fb00],ch
  405acf:	add    BYTE PTR [ebx],bl
  405ad1:	add    BYTE PTR [esp+eax*1+0x23002e],dh
  405ad8:	in     al,dx
  405ad9:	add    al,0x2e
  405adb:	add    BYTE PTR [ebx],ch
  405add:	add    dl,dh
  405adf:	add    al,0x2e
  405ae1:	add    BYTE PTR [ebx+0x0],al
  405ae4:	clc    
  405ae5:	add    al,0x2e
  405ae7:	add    BYTE PTR [ebx+0x0],cl
  405aea:	adc    DWORD PTR ds:0x53002e,eax
  405af0:	sub    al,0x5
  405af2:	add    BYTE PTR cs:[ebx+0x0],bl
  405af6:	push   edx
  405af7:	add    eax,0x6b002e
  405afc:	xchg   BYTE PTR ds:0x73002e,al
  405b02:	xchg   BYTE PTR ds:0x7b002e,al
  405b08:	cwde   
  405b09:	add    eax,0x83002e
  405b0e:	cmps   BYTE PTR ds:[esi],BYTE PTR es:[edi]
  405b0f:	add    eax,0x8b002e
  405b14:	repnz add al,0x2e
  405b17:	add    BYTE PTR [ebx+0x2e05b100],dl
  405b1d:	add    BYTE PTR [ebx+0x2e05dc00],bl
  405b23:	add    BYTE PTR [ebx+0x43026e00],ah
  405b29:	add    BYTE PTR [ebx+0x43023900],bh
  405b2f:	add    bl,al
  405b31:	add    BYTE PTR [ecx],bh
  405b33:	add    al,BYTE PTR [ebx+0x0]
  405b36:	mov    bl,0x0
  405b38:	clc    
  405b39:	add    DWORD PTR [ecx+0x0],ecx
  405b3c:	sti    
  405b3d:	add    BYTE PTR [esi+0x2],ch
  405b40:	popa   
  405b41:	add    ebx,eax
  405b43:	add    BYTE PTR [ecx],bh
  405b45:	add    al,BYTE PTR [ecx+0x3900c301]
  405b4b:	add    ah,BYTE PTR [eax]
  405b4d:	or     al,bl
  405b4f:	add    BYTE PTR [ecx],bh
  405b51:	add    al,BYTE PTR [eax+0xa]
  405b54:	ret    
  405b55:	add    BYTE PTR [ecx],bh
  405b57:	add    ah,BYTE PTR [eax+0xa]
  405b5a:	ret    
  405b5b:	add    BYTE PTR [ecx],bh
  405b5d:	add    al,BYTE PTR [eax+0x3900c30a]
  405b63:	add    bh,BYTE PTR ds:0x5b014700
  405b69:	add    bh,BYTE PTR [edx+eax*1-0x72]
  405b6d:	add    bl,BYTE PTR [edi-0x10fd3ffe]
  405b73:	add    dl,BYTE PTR [edi]
  405b75:	add    ecx,DWORD PTR [ebx+eax*1+0x3dc03c8]
  405b7c:	out    0x3,eax
  405b7e:	cmc    
  405b7f:	add    eax,DWORD PTR [edx]
  405b81:	add    al,0x1d
  405b83:	add    al,0x23
  405b85:	add    al,0x28
  405b87:	add    al,0x53
  405b89:	add    al,0x63
  405b8b:	add    al,0x7b
  405b8d:	add    al,0xa2
  405b8f:	add    al,0xa9
  405b91:	add    al,0x2
  405b93:	add    BYTE PTR [ecx],al
  405b95:	add    BYTE PTR [ebx],al
  405b97:	add    BYTE PTR ds:0x36000400,ch
  405b9d:	add    BYTE PTR [eax],al
  405b9f:	add    BYTE PTR [ebx+0x1],cl
  405ba2:	xor    eax,DWORD PTR [eax]
  405ba4:	add    BYTE PTR [eax],al
  405ba6:	dec    edi
  405ba7:	add    eax,0x38
  405bac:	push   edi
  405bad:	add    eax,0x3d
  405bb2:	jae    0x405bb9
  405bb4:	cmp    eax,0x8a000000
  405bb9:	add    eax,0x3d
  405bbe:	movs   DWORD PTR es:[edi],DWORD PTR ds:[esi]
  405bbf:	add    eax,0x3d
  405bc4:	mov    edi,0x3d05
  405bc9:	add    ch,dl
  405bcb:	add    eax,0x3d
  405bd0:	lock add eax,0x3d
  405bd6:	or     BYTE PTR [esi],al
  405bd8:	cmp    eax,0x18000000
  405bdd:	push   es
  405bde:	cmp    eax,0x2d000000
  405be3:	push   es
  405be4:	cmp    eax,0x40000000
  405be9:	push   es
  405bea:	cmp    eax,0x54000000
  405bef:	push   es
  405bf0:	cmp    eax,0x6b000000
  405bf5:	push   es
  405bf6:	cmp    eax,0x8a000000
  405bfb:	push   es
  405bfc:	cmp    eax,0xa1000000
  405c01:	push   es
  405c02:	cmp    eax,0xad000000
  405c07:	push   es
  405c08:	cmp    eax,0xb7000000
  405c0d:	push   es
  405c0e:	cmp    eax,0xc7000000
  405c13:	push   es
  405c14:	cmp    eax,0xd7000000
  405c19:	push   es
  405c1a:	cmp    eax,0xe0000000
  405c1f:	push   es
  405c20:	cmp    eax,0xeb000000
  405c25:	push   es
  405c26:	cmp    eax,0xf6000000
  405c2b:	push   es
  405c2c:	cmp    eax,0x2000000
  405c31:	pop    es
  405c32:	cmp    eax,0xd000000
  405c37:	pop    es
  405c38:	cmp    eax,0x1d000000
  405c3d:	pop    es
  405c3e:	cmp    eax,0x28000000
  405c43:	pop    es
  405c44:	cmp    eax,0x35000000
  405c49:	pop    es
  405c4a:	cmp    eax,0x3d000000
  405c4f:	pop    es
  405c50:	cmp    eax,0x47000000
  405c55:	pop    es
  405c56:	cmp    eax,0x51000000
  405c5b:	pop    es
  405c5c:	cmp    eax,0x66000000
  405c61:	pop    es
  405c62:	cmp    eax,0x7e000000
  405c67:	pop    es
  405c68:	cmp    eax,0x97000000
  405c6d:	pop    es
  405c6e:	cmp    eax,0xab000000
  405c73:	pop    es
  405c74:	cmp    eax,0xbe000000
  405c79:	pop    es
  405c7a:	cmp    eax,0xcb000000
  405c7f:	pop    es
  405c80:	cmp    eax,0xd9000000
  405c85:	pop    es
  405c86:	cmp    eax,0xed000000
  405c8b:	pop    es
  405c8c:	cmp    eax,0xfc000000
  405c91:	pop    es
  405c92:	cmp    eax,0xc000000
  405c97:	or     BYTE PTR ds:0x1f000000,bh
  405c9d:	or     BYTE PTR ds:0x28000000,bh
  405ca3:	or     BYTE PTR ds:0x64000000,bh
  405ca9:	or     esp,DWORD PTR [ebp+0x6f000000]
  405caf:	or     esp,DWORD PTR [ebp+0x75000000]
  405cb5:	or     ebp,DWORD PTR [ecx-0x7a000000]
  405cbb:	or     ebp,DWORD PTR [ecx-0x62000000]
  405cc1:	or     ebp,DWORD PTR [ecx-0x53000000]
  405cc7:	or     ebp,DWORD PTR [ecx-0x47000000]
  405ccd:	or     esp,DWORD PTR [ebp-0x3e000000]
  405cd3:	or     ebp,DWORD PTR [ebp-0x2e000000]
  405cd9:	or     esi,DWORD PTR [edx+0x55000000]
  405cdf:	or     al,0xa5
  405ce1:	add    BYTE PTR [eax],al
  405ce3:	add    BYTE PTR [eax],cl
  405ce5:	or     ch,BYTE PTR [ecx+0x2000200]
  405ceb:	add    BYTE PTR [ebx],al
  405ced:	add    BYTE PTR [ecx],al
  405cef:	add    BYTE PTR [eax+eax*1],al
  405cf2:	add    eax,0x3000200
  405cf7:	add    BYTE PTR ds:0x5000200,al
  405cfd:	add    BYTE PTR [edi],al
  405cff:	add    BYTE PTR [edx],al
  405d01:	add    BYTE PTR [esi],al
  405d03:	add    BYTE PTR [ecx],cl
  405d05:	add    BYTE PTR [edx],al
  405d07:	add    BYTE PTR [edi],al
  405d09:	add    BYTE PTR [ebx],cl
  405d0b:	add    BYTE PTR [edx],al
  405d0d:	add    BYTE PTR [eax],cl
  405d0f:	add    BYTE PTR ds:0x9000200,cl
  405d15:	add    BYTE PTR [edi],cl
  405d17:	add    BYTE PTR [edx],al
  405d19:	add    BYTE PTR [edx],cl
  405d1b:	add    BYTE PTR [ecx],dl
  405d1d:	add    BYTE PTR [edx],al
  405d1f:	add    BYTE PTR [ebx],cl
  405d21:	add    BYTE PTR [ebx],dl
  405d23:	add    BYTE PTR [edx],al
  405d25:	add    BYTE PTR [eax+eax*1],cl
  405d28:	adc    eax,0xd000200
  405d2d:	add    BYTE PTR [edi],dl
  405d2f:	add    BYTE PTR [edx],al
  405d31:	add    BYTE PTR [esi],cl
  405d33:	add    BYTE PTR [ecx],bl
  405d35:	add    BYTE PTR [edx],al
  405d37:	add    BYTE PTR [edi],cl
  405d39:	add    BYTE PTR [ebx],bl
  405d3b:	add    BYTE PTR [edx],al
  405d3d:	add    BYTE PTR [eax],dl
  405d3f:	add    BYTE PTR ds:0x11000200,bl
  405d45:	add    BYTE PTR [edi],bl
  405d47:	add    BYTE PTR [edx],al
  405d49:	add    BYTE PTR [edx],dl
  405d4b:	add    BYTE PTR [ecx],ah
  405d4d:	add    BYTE PTR [edx],al
  405d4f:	add    BYTE PTR [ebx],dl
  405d51:	add    BYTE PTR [ebx],ah
  405d53:	add    BYTE PTR [edx],al
  405d55:	add    BYTE PTR [eax+eax*1],dl
  405d58:	and    eax,0x15000200
  405d5d:	add    BYTE PTR [edi],ah
  405d5f:	add    BYTE PTR [edx],al
  405d61:	add    BYTE PTR [esi],dl
  405d63:	add    BYTE PTR [ecx],ch
  405d65:	add    BYTE PTR [edx],al
  405d67:	add    BYTE PTR [edi],dl
  405d69:	add    BYTE PTR [ebx],ch
  405d6b:	add    BYTE PTR [edx],al
  405d6d:	add    BYTE PTR [eax],bl
  405d6f:	add    BYTE PTR ds:0x19000200,ch
  405d75:	add    BYTE PTR [edi],ch
  405d77:	add    BYTE PTR [edx],al
  405d79:	add    BYTE PTR [edx],bl
  405d7b:	add    BYTE PTR [ecx],dh
  405d7d:	add    BYTE PTR [edx],al
  405d7f:	add    BYTE PTR [ebx],bl
  405d81:	add    BYTE PTR [ebx],dh
  405d83:	add    BYTE PTR [edx],al
  405d85:	add    BYTE PTR [eax+eax*1],bl
  405d88:	xor    eax,0x1d000200
  405d8d:	add    BYTE PTR [edi],dh
  405d8f:	add    BYTE PTR [edx],al
  405d91:	add    BYTE PTR [esi],bl
  405d93:	add    BYTE PTR [ecx],bh
  405d95:	add    BYTE PTR [edx],al
  405d97:	add    BYTE PTR [edi],bl
  405d99:	add    BYTE PTR [ebx],bh
  405d9b:	add    BYTE PTR [edx],al
  405d9d:	add    BYTE PTR [eax],ah
  405d9f:	add    BYTE PTR ds:0x21000200,bh
  405da5:	add    BYTE PTR [edi],bh
  405da7:	add    BYTE PTR [edx],al
  405da9:	add    BYTE PTR [edx],ah
  405dab:	add    BYTE PTR [ecx+0x0],al
  405dae:	add    al,BYTE PTR [eax]
  405db0:	and    eax,DWORD PTR [eax]
  405db2:	inc    ebx
  405db3:	add    BYTE PTR [edx],al
  405db5:	add    BYTE PTR [eax+eax*1],ah
  405db8:	inc    ebp
  405db9:	add    BYTE PTR [edx],al
  405dbb:	add    BYTE PTR ds:0x2004700,ah
  405dc1:	add    BYTE PTR [esi],ah
  405dc3:	add    BYTE PTR [ecx+0x0],cl
  405dc6:	add    al,BYTE PTR [eax]
  405dc8:	daa    
  405dc9:	add    BYTE PTR [ebx+0x0],cl
  405dcc:	add    al,BYTE PTR [eax]
  405dce:	sub    BYTE PTR [eax],al
  405dd0:	dec    ebp
  405dd1:	add    BYTE PTR [edx],al
  405dd3:	add    BYTE PTR [ecx],ch
  405dd5:	add    BYTE PTR [edi+0x0],cl
  405dd8:	add    al,BYTE PTR [eax]
  405dda:	sub    al,BYTE PTR [eax]
  405ddc:	push   ecx
  405ddd:	add    BYTE PTR [edx],al
  405ddf:	add    BYTE PTR [ebx],ch
  405de1:	add    BYTE PTR [ebx+0x0],dl
  405de4:	add    al,BYTE PTR [eax]
  405de6:	sub    al,0x0
  405de8:	push   ebp
  405de9:	add    BYTE PTR [edx],al
  405deb:	add    BYTE PTR ds:0x2005700,ch
  405df1:	add    BYTE PTR [esi],ch
  405df3:	add    BYTE PTR [ecx+0x0],bl
  405df6:	add    al,BYTE PTR [eax]
  405df8:	xor    eax,DWORD PTR [eax]
  405dfa:	pop    ebx
  405dfb:	add    BYTE PTR [edx],al
  405dfd:	add    BYTE PTR [eax+eax*1],dh
  405e00:	pop    ebp
  405e01:	add    BYTE PTR [edx],al
  405e03:	add    BYTE PTR ds:0x2005f00,dh
  405e09:	add    BYTE PTR [esi],dh
  405e0b:	add    BYTE PTR [ecx+0x0],ah
  405e0e:	add    al,BYTE PTR [eax]
  405e10:	aaa    
  405e11:	add    BYTE PTR [ebx+0x0],ah
  405e14:	add    al,BYTE PTR [eax]
  405e16:	cmp    BYTE PTR [eax],al
  405e18:	add    BYTE PTR gs:[edx],al
  405e1b:	add    BYTE PTR [ecx],bh
  405e1d:	add    BYTE PTR [edi+0x0],ah
  405e20:	add    al,BYTE PTR [eax]
  405e22:	dec    esp
  405e23:	add    BYTE PTR [ecx+0x0],ch
  405e26:	add    al,BYTE PTR [eax]
  405e28:	dec    ebp
  405e29:	add    BYTE PTR [ebx+0x0],ch
  405e2c:	add    al,BYTE PTR [eax]
  405e2e:	push   ecx
  405e2f:	add    BYTE PTR [ebp+0x0],ch
  405e32:	add    DWORD PTR [eax],eax
  405e34:	push   edx
  405e35:	add    BYTE PTR [ebp+0x0],ch
  405e38:	add    al,BYTE PTR [eax]
  405e3a:	push   ebx
  405e3b:	add    BYTE PTR [edi+0x0],ch
  405e3e:	add    DWORD PTR [eax],eax
  405e40:	push   esp
  405e41:	add    BYTE PTR [edi+0x0],ch
  405e44:	mov    DWORD PTR [eax],ebx
  405e46:	xchg   esi,eax
  405e47:	sbb    BYTE PTR [edx+0x54032c18],ah
  405e4d:	add    esi,DWORD PTR [ebx+eax*1-0x65]
  405e51:	add    ebp,DWORD PTR ds:0x46043504
  405e57:	add    al,0x68
  405e59:	add    al,0x0
  405e5b:	add    ecx,ecx
  405e5d:	add    BYTE PTR [edi+0x500010d],ch
  405e63:	add    ebx,ecx
  405e65:	add    BYTE PTR [ebx+0x400020d],bh
  405e6b:	add    ebp,ecx
  405e6d:	add    cl,ah
  405e6f:	or     eax,0x80040003
  405e74:	add    BYTE PTR [eax],al
  405e76:	or     eax,DWORD PTR [eax]
  405e78:	add    BYTE PTR [eax],al
  405e7a:	add    BYTE PTR [eax],al
  405e7c:	add    BYTE PTR [eax],al
  405e7e:	add    DWORD PTR [eax],eax
  405e80:	add    BYTE PTR [eax],al
  405e82:	push   eax
  405e83:	add    esp,ecx
  405e85:	adc    DWORD PTR [eax],eax
  405e87:	add    BYTE PTR [eax+eax*1],al
	...
  405e92:	add    BYTE PTR [eax],al
  405e94:	add    DWORD PTR [eax],eax
  405e96:	mov    dl,0x0
  405e98:	add    BYTE PTR [eax],al
  405e9a:	add    BYTE PTR [eax],al
  405e9c:	or     eax,DWORD PTR [eax]
	...
  405ea6:	add    BYTE PTR [eax],al
  405ea8:	or     al,BYTE PTR [eax]
  405eaa:	leave  
  405eab:	add    BYTE PTR [eax],al
  405ead:	add    BYTE PTR [eax],al
  405eaf:	add    BYTE PTR [eax+eax*1],al
	...
  405eba:	add    BYTE PTR [eax],al
  405ebc:	add    DWORD PTR [eax],eax
  405ebe:	mov    ebx,0x0
  405ec3:	add    BYTE PTR [ebx],cl
	...
  405ecd:	add    BYTE PTR [eax],al
  405ecf:	add    BYTE PTR [edx],cl
  405ed1:	add    BYTE PTR [ecx+0xa],al
  405ed4:	add    BYTE PTR [eax],al
  405ed6:	add    BYTE PTR [eax],al
  405ed8:	or     eax,DWORD PTR [eax]
	...
  405ee2:	add    BYTE PTR [eax],al
  405ee4:	or     al,BYTE PTR [eax]
  405ee6:	mov    ebp,0xa
  405eeb:	add    BYTE PTR [edx],al
	...
  405ef5:	add    BYTE PTR [eax],al
  405ef7:	add    BYTE PTR [ecx],al
  405ef9:	add    BYTE PTR [ebx+0x0],bh
  405eff:	add    BYTE PTR [edx],al
	...
  405f09:	add    BYTE PTR [eax],al
  405f0b:	add    BYTE PTR [ecx],al
  405f0d:	add    BYTE PTR [edx+0x0],dh
  405f13:	add    BYTE PTR [eax],al
  405f15:	add    BYTE PTR [eax],al
  405f17:	add    BYTE PTR [ecx],al
  405f19:	add    BYTE PTR [eax],al
  405f1b:	add    bl,cl
  405f1d:	sbb    BYTE PTR [eax],al
  405f1f:	add    BYTE PTR [edi],al
  405f21:	add    BYTE PTR [esi],al
  405f23:	add    BYTE PTR [eax],al
  405f25:	add    BYTE PTR [eax],al
  405f27:	add    BYTE PTR [eax],al
  405f29:	cmp    al,0x4d
  405f2b:	outs   dx,DWORD PTR ds:[esi]
  405f2c:	fs jne 0x405f9b
  405f2f:	gs add BYTE PTR ds:[esi+0x53],dl
  405f34:	push   eax
  405f35:	gs jb  0x405f9e
  405f38:	inc    ecx
  405f39:	jae    0x405fab
  405f3b:	dec    esi
  405f3c:	gs je  0x405f82
  405f3f:	ins    DWORD PTR es:[edi],dx
  405f40:	fs cs gs js 0x405faa
  405f45:	add    BYTE PTR [ecx+0x53],al
  405f48:	push   eax
  405f49:	dec    esi
  405f4a:	gs je  0x405f90
  405f4d:	ins    DWORD PTR es:[edi],dx
  405f4e:	fs push edx
  405f50:	gs jae 0x405fc2
  405f53:	jne    0x405fc7
  405f55:	arpl   WORD PTR [ebp+0x73],sp
  405f58:	add    BYTE PTR [ebp+0x69],cl
  405f5b:	arpl   WORD PTR [edx+0x6f],si
  405f5e:	jae    0x405fcf
  405f60:	data16 je 0x405f91
  405f63:	push   esi
  405f64:	imul   esi,DWORD PTR [ebx+0x75],0x74536c61
  405f6b:	jne    0x405fd1
  405f6d:	imul   ebp,DWORD PTR [edi+0x2e],0x66726550
  405f74:	outs   dx,DWORD PTR ds:[esi]
  405f75:	jb     0x405fe4
  405f77:	popa   
  405f78:	outs   dx,BYTE PTR ds:[esi]
  405f79:	arpl   WORD PTR [ebp+0x54],sp
  405f7c:	outs   dx,DWORD PTR ds:[esi]
  405f7d:	outs   dx,DWORD PTR ds:[esi]
  405f7e:	ins    BYTE PTR es:[edi],dx
  405f7f:	jae    0x405faf
  405f81:	push   esi
  405f82:	push   ebx
  405f83:	push   eax
  405f84:	gs jb  0x405fed
  405f87:	inc    ecx
  405f88:	jae    0x405ffa
  405f8a:	dec    esi
  405f8b:	gs je  0x405fd1
  405f8e:	ins    DWORD PTR es:[edi],dx
  405f8f:	add    BYTE PTR fs:[ecx+0x73],al
  405f93:	jo     0x405fe3
  405f95:	gs je  0x405fdb
  405f98:	ins    DWORD PTR es:[edi],dx
  405f99:	add    BYTE PTR fs:[ecx+0x73],al
  405f9d:	jo     0x405fed
  405f9f:	gs je  0x405ff1
  405fa2:	jo     0x406018
  405fa4:	imul   ebp,DWORD PTR [edi+0x6e],0x53560073
  405fab:	push   eax
  405fac:	gs jb  0x406015
  405faf:	inc    ecx
  405fb0:	push   ebx
  405fb1:	push   eax
  405fb2:	dec    esi
  405fb3:	gs je  0x405ff9
  405fb6:	ins    DWORD PTR es:[edi],dx
  405fb7:	add    BYTE PTR fs:[esi+0x61],cl
  405fbb:	je     0x406026
  405fbd:	jbe    0x406024
  405fbf:	dec    ebp
  405fc0:	gs je  0x40602b
  405fc3:	outs   dx,DWORD PTR ds:[esi]
  405fc4:	fs jae 0x405fc7
  405fc7:	push   eax
  405fc8:	jb     0x406039
  405fca:	arpl   WORD PTR [ebp+0x73],sp
  405fcd:	jae    0x406018
  405fcf:	outs   dx,BYTE PTR ds:[esi]
  405fd0:	outs   dx,WORD PTR ds:[esi]
  405fd2:	jb     0x406041
  405fd4:	popa   
  405fd5:	je     0x406040
  405fd7:	outs   dx,DWORD PTR ds:[esi]
  405fd8:	outs   dx,BYTE PTR ds:[esi]
  405fd9:	add    BYTE PTR [ebp+0x73],ch
  405fdc:	arpl   WORD PTR [edi+0x72],bp
  405fdf:	ins    BYTE PTR es:[edi],dx
  405fe0:	imul   esp,DWORD PTR [edx+0x0],0x74737953
  405fe7:	gs ins DWORD PTR es:[edi],dx
  405fe9:	add    BYTE PTR [edi+0x62],cl
  405fec:	push   0x65
  405fee:	arpl   WORD PTR [eax+eax*1+0x4d],si
  405ff2:	imul   esp,DWORD PTR [ebx+0x72],0x666f736f
  405ff9:	je     0x406029
  405ffb:	push   esi
  405ffc:	imul   esi,DWORD PTR [ebx+0x75],0x74536c61
  406003:	jne    0x406069
  406005:	imul   ebp,DWORD PTR [edi+0x2e],0x66726550
  40600c:	outs   dx,DWORD PTR ds:[esi]
  40600d:	jb     0x40607c
  40600f:	popa   
  406010:	outs   dx,BYTE PTR ds:[esi]
  406011:	arpl   WORD PTR [ebp+0x54],sp
  406014:	outs   dx,DWORD PTR ds:[esi]
  406015:	outs   dx,DWORD PTR ds:[esi]
  406016:	ins    BYTE PTR es:[edi],dx
  406017:	jae    0x406047
  406019:	inc    ebx
  40601a:	ins    DWORD PTR es:[edi],dx
  40601b:	fs dec eax
  40601d:	gs ins BYTE PTR es:[edi],dx
  40601f:	jo     0x406086
  406021:	jb     0x406023
  406023:	inc    ebx
  406024:	ins    DWORD PTR es:[edi],dx
  406025:	fs dec eax
  406027:	gs ins BYTE PTR es:[edi],dx
  406029:	jo     0x406090
  40602b:	jb     0x40606f
  40602d:	popa   
  40602e:	jae    0x406095
  406030:	add    BYTE PTR [edi+0x6c],al
  406033:	outs   dx,DWORD PTR ds:[esi]
  406034:	bound  esp,QWORD PTR [ecx+0x6c]
  406037:	dec    edi
  406038:	jo     0x4060ae
  40603a:	imul   ebp,DWORD PTR [edi+0x6e],0x45490073
  406041:	popa   
  406042:	jae    0x4060bd
  406044:	push   eax
  406045:	jb     0x4060b6
  406047:	dec    bp
  406049:	gs jae 0x4060bf
  40604c:	popa   
  40604d:	addr16 gs push edx
  406050:	gs jo  0x4060c2
  406053:	jb     0x4060c9
  406055:	gs jb  0x406058
  406058:	push   esi
  406059:	popa   
  40605a:	ins    BYTE PTR es:[edi],dx
  40605b:	jne    0x4060c2
  40605d:	push   esp
  40605e:	jns    0x4060d0
  406060:	add    BYTE PTR gs:[ebx+0x79],dl
  406064:	jae    0x4060da
  406066:	gs ins DWORD PTR es:[edi],dx
  406068:	cs push edx
  40606a:	gs jae 0x4060dc
  40606d:	jne    0x4060e1
  40606f:	arpl   WORD PTR [ebp+0x73],sp
  406072:	add    BYTE PTR [edx+0x65],dl
  406075:	jae    0x4060e6
  406077:	jne    0x4060eb
  406079:	arpl   WORD PTR [ebp+0x4d],sp
  40607c:	popa   
  40607d:	outs   dx,BYTE PTR ds:[esi]
  40607e:	popa   
  40607f:	addr16 gs jb 0x406083
  406083:	jb     0x4060ea
  406085:	jae    0x4060f6
  406087:	jne    0x4060fb
  406089:	arpl   WORD PTR [ebp+0x4d],sp
  40608c:	popa   
  40608d:	outs   dx,BYTE PTR ds:[esi]
  40608e:	add    BYTE PTR [ebx+0x79],dl
  406091:	jae    0x406107
  406093:	gs ins DWORD PTR es:[edi],dx
  406095:	cs inc edi
  406097:	ins    BYTE PTR es:[edi],dx
  406098:	outs   dx,DWORD PTR ds:[esi]
  406099:	bound  esp,QWORD PTR [ecx+0x6c]
  40609c:	imul   edi,DWORD PTR [edx+0x61],0x6e6f6974
  4060a3:	add    BYTE PTR [ebx+0x75],al
  4060a6:	ins    BYTE PTR es:[edi],dx
  4060a7:	je     0x40611e
  4060a9:	jb     0x406110
  4060ab:	dec    ecx
  4060ac:	outs   dx,BYTE PTR ds:[esi]
  4060ad:	outs   dx,WORD PTR ds:[esi]
  4060af:	add    BYTE PTR [edx+0x65],dh
  4060b2:	jae    0x406123
  4060b4:	jne    0x406128
  4060b6:	arpl   WORD PTR [ebp+0x43],sp
  4060b9:	jne    0x406127
  4060bb:	je     0x406132
  4060bd:	jb     0x406124
  4060bf:	add    BYTE PTR [esi],ch
  4060c1:	arpl   WORD PTR [edi+ebp*2+0x72],si
  4060c5:	add    BYTE PTR [edi+0x65],ah
  4060c8:	je     0x406129
  4060ca:	push   edx
  4060cb:	gs jae 0x40613d
  4060ce:	jne    0x406142
  4060d0:	arpl   WORD PTR [ebp+0x4d],sp
  4060d3:	popa   
  4060d4:	outs   dx,BYTE PTR ds:[esi]
  4060d5:	popa   
  4060d6:	addr16 gs jb 0x4060da
  4060da:	addr16 gs je 0x40613d
  4060de:	inc    ebx
  4060df:	jne    0x40614d
  4060e1:	je     0x406158
  4060e3:	jb     0x40614a
  4060e5:	add    BYTE PTR [ebx+0x65],dh
  4060e8:	je     0x406149
  4060ea:	inc    ebx
  4060eb:	jne    0x406159
  4060ed:	je     0x406164
  4060ef:	jb     0x406156
  4060f1:	add    BYTE PTR [edi+0x65],ah
  4060f4:	je     0x406155
  4060f6:	inc    ecx
  4060f7:	push   ebx
  4060f8:	push   eax
  4060f9:	inc    ebp
  4060fa:	js     0x406161
  4060fc:	arpl   WORD PTR [ebp+0x74],si
  4060ff:	gs push ebx
  406101:	je     0x406168
  406103:	jo     0x406146
  406105:	je     0x40617b
  406107:	popa   
  406108:	arpl   WORD PTR [eax+0x4d],bp
  40610b:	outs   dx,DWORD PTR ds:[esi]
  40610c:	outs   dx,BYTE PTR ds:[esi]
  40610d:	imul   esi,DWORD PTR [edi+ebp*2+0x72],0x74656700
  406115:	pop    edi
  406116:	inc    ecx
  406117:	push   ebx
  406118:	push   eax
  406119:	inc    ebp
  40611a:	js     0x406181
  40611c:	arpl   WORD PTR [ebp+0x74],si
  40611f:	gs push ebx
  406121:	je     0x406188
  406123:	jo     0x40616a
  406125:	outs   dx,BYTE PTR ds:[esi]
  406126:	jbe    0x40617b
  406128:	gs je  0x4061a0
  40612b:	jo     0x40612d
  40612d:	addr16 gs je 0x406190
  406131:	inc    ecx
  406132:	push   ebx
  406133:	push   eax
  406134:	inc    ebp
  406135:	js     0x40619c
  406137:	arpl   WORD PTR [ebp+0x74],si
  40613a:	gs push ebx
  40613c:	je     0x4061a3
  40613e:	jo     0x40618c
  406140:	popa   
  406141:	jne    0x4061b1
  406143:	arpl   WORD PTR [eax+0x69],bp
  406146:	outs   dx,BYTE PTR ds:[esi]
  406147:	addr16 inc ecx
  406149:	push   ebx
  40614a:	push   eax
  40614b:	add    BYTE PTR [edi+0x65],ah
  40614e:	je     0x4061af
  406150:	inc    ecx
  406151:	push   ebx
  406152:	push   eax
  406153:	inc    ebp
  406154:	js     0x4061bb
  406156:	arpl   WORD PTR [ebp+0x74],si
  406159:	gs push ebx
  40615b:	je     0x4061c2
  40615d:	jo     0x4061b1
  40615f:	gs jae 0x4061d6
  406162:	popa   
  406163:	jb     0x4061d9
  406165:	push   edi
  406166:	xor    edx,DWORD PTR [edi+0x50]
  406169:	add    BYTE PTR [edi+0x65],ah
  40616c:	je     0x4061cd
  40616e:	inc    ecx
  40616f:	push   ebx
  406170:	push   eax
  406171:	inc    ebp
  406172:	js     0x4061d9
  406174:	arpl   WORD PTR [ebp+0x74],si
  406177:	gs push ebx
  406179:	je     0x4061e0
  40617b:	jo     0x4061d0
  40617d:	je     0x4061e0
  40617f:	jb     0x4061f5
  406181:	dec    ecx
  406182:	inc    ebp
  406183:	add    BYTE PTR [edi+0x65],ah
  406186:	je     0x4061e7
  406188:	inc    ecx
  406189:	push   ebx
  40618a:	push   eax
  40618b:	inc    ebp
  40618c:	js     0x4061f3
  40618e:	arpl   WORD PTR [ebp+0x74],si
  406191:	gs push ebx
  406193:	je     0x4061fa
  406195:	jo     0x4061ea
  406197:	je     0x4061fa
  406199:	jb     0x40620f
  40619b:	dec    ebp
  40619c:	outs   dx,DWORD PTR ds:[esi]
  40619d:	outs   dx,BYTE PTR ds:[esi]
  40619e:	imul   esi,DWORD PTR [edi+ebp*2+0x72],0x74656700
  4061a6:	pop    edi
  4061a7:	inc    ecx
  4061a8:	push   ebx
  4061a9:	push   eax
  4061aa:	inc    ebp
  4061ab:	js     0x406212
  4061ad:	arpl   WORD PTR [ebp+0x74],si
  4061b0:	gs push ebx
  4061b2:	je     0x406219
  4061b4:	jo     0x40620d
  4061b6:	bound  eax,QWORD PTR gs:[ebx+0x6f]
  4061ba:	outs   dx,BYTE PTR ds:[esi]
  4061bb:	imul   sp,WORD PTR [edi+0x0],0x6567
  4061c1:	je     0x406222
  4061c3:	inc    ecx
  4061c4:	push   ebx
  4061c5:	push   eax
  4061c6:	dec    esi
  4061c7:	gs je  0x40620f
  4061ca:	js     0x40622f
  4061cc:	gs jo  0x406243
  4061cf:	imul   ebp,DWORD PTR [edi+0x6e],0x74656700
  4061d6:	pop    edi
  4061d7:	inc    ecx
  4061d8:	push   ebx
  4061d9:	push   eax
  4061da:	dec    esi
  4061db:	gs je  0x406227
  4061de:	outs   dx,BYTE PTR ds:[esi]
  4061df:	jbe    0x406242
  4061e1:	ins    BYTE PTR es:[edi],dx
  4061e2:	imul   esp,DWORD PTR [ebx+edx*2+0x69],0x72416574
  4061ea:	add    BYTE PTR [bx+0x65],ah
  4061ee:	je     0x40624f
  4061f0:	inc    ecx
  4061f1:	push   ebx
  4061f2:	push   eax
  4061f3:	dec    esi
  4061f4:	gs je  0x40624a
  4061f7:	popa   
  4061f8:	ins    DWORD PTR es:[edi],dx
  4061f9:	jo     0x406267
  4061fb:	imul   ebp,DWORD PTR [esi+0x67],0x706c6548
  406202:	add    BYTE PTR [edi+0x65],ah
  406205:	je     0x406266
  406207:	inc    ecx
  406208:	push   ebx
  406209:	push   eax
  40620a:	dec    esi
  40620b:	gs je  0x406261
  40620e:	popa   
  40620f:	ins    DWORD PTR es:[edi],dx
  406210:	jo     0x40627e
  406212:	imul   ebp,DWORD PTR [esi+0x67],0x64616552
  406219:	jns    0x40621b
  40621b:	addr16 gs je 0x40627e
  40621f:	inc    ecx
  406220:	push   ebx
  406221:	push   eax
  406222:	dec    esi
  406223:	gs je  0x406279
  406226:	popa   
  406227:	ins    DWORD PTR es:[edi],dx
  406228:	jo     0x406296
  40622a:	imul   ebp,DWORD PTR [esi+0x67],0x74756853
  406231:	outs   dx,DWORD PTR fs:[esi]
  406233:	ja     0x4062a3
  406235:	add    BYTE PTR [edi+0x65],ah
  406238:	je     0x406299
  40623a:	inc    ecx
  40623b:	push   ebx
  40623c:	push   eax
  40623d:	dec    esi
  40623e:	gs je  0x406294
  406241:	popa   
  406242:	ins    DWORD PTR es:[edi],dx
  406243:	jo     0x4062b1
  406245:	imul   ebp,DWORD PTR [esi+0x67],0x74756853
  40624c:	outs   dx,DWORD PTR fs:[esi]
  40624e:	ja     0x4062be
  406250:	push   ebx
  406251:	je     0x4062b4
  406253:	jb     0x4062c9
  406255:	imul   ebp,DWORD PTR [esi+0x67],0x74656700
  40625c:	pop    edi
  40625d:	inc    ecx
  40625e:	push   ebx
  40625f:	push   eax
  406260:	dec    esi
  406261:	gs je  0x4062b7
  406264:	popa   
  406265:	ins    DWORD PTR es:[edi],dx
  406266:	jo     0x4062d4
  406268:	imul   ebp,DWORD PTR [esi+0x67],0x72617453
  40626f:	je     0x4062da
  406271:	outs   dx,BYTE PTR ds:[esi]
  406272:	add    BYTE PTR [bx+0x65],ah
  406276:	je     0x4062d7
  406278:	inc    ebx
  406279:	dec    edi
  40627a:	dec    ebp
  40627b:	inc    ebp
  40627c:	js     0x4062e3
  40627e:	jo     0x4062f4
  406280:	imul   ebp,DWORD PTR [edi+0x6e],0x74656700
  406287:	pop    edi
  406288:	inc    ebp
  406289:	jb     0x4062fd
  40628b:	outs   dx,DWORD PTR ds:[esi]
  40628c:	jb     0x4062e2
  40628e:	gs js  0x406305
  406291:	add    BYTE PTR [edi+0x65],ah
  406294:	je     0x4062f5
  406296:	inc    esi
  406297:	popa   
  406298:	imul   ebp,DWORD PTR [ebp+eiz*2+0x64],0x74536f54
  4062a0:	popa   
  4062a1:	jb     0x406317
  4062a3:	dec    ecx
  4062a4:	inc    ebp
  4062a5:	add    BYTE PTR [edi+0x65],ah
  4062a8:	je     0x406309
  4062aa:	dec    eax
  4062ab:	gs ins BYTE PTR es:[edi],dx
  4062ad:	jo     0x4062f3
  4062af:	gs jae 0x406315
  4062b2:	jb     0x40631d
  4062b4:	jo     0x40632a
  4062b6:	imul   ebp,DWORD PTR [edi+0x6e],0x74656700
  4062bd:	pop    edi
  4062be:	dec    eax
  4062bf:	gs ins BYTE PTR es:[edi],dx
  4062c1:	jo     0x40630b
  4062c3:	gs ins BYTE PTR es:[edi],dx
  4062c5:	jo     0x4062c7
  4062c7:	addr16 gs je 0x40632a
  4062cb:	dec    eax
  4062cc:	gs ins BYTE PTR es:[edi],dx
  4062ce:	jo     0x40631d
  4062d0:	gs ins DWORD PTR es:[edi],dx
  4062d2:	outs   dx,DWORD PTR ds:[esi]
  4062d3:	jb     0x40634e
  4062d5:	add    BYTE PTR [edi+0x65],ah
  4062d8:	je     0x406339
  4062da:	dec    eax
  4062db:	gs ins BYTE PTR es:[edi],dx
  4062dd:	jo     0x40632d
  4062df:	outs   dx,DWORD PTR ds:[esi]
  4062e0:	ja     0x406343
  4062e2:	imul   esi,DWORD PTR [eax+eax*1+0x67],0x485f7465
  4062ea:	gs ins BYTE PTR es:[edi],dx
  4062ec:	jo     0x40633d
  4062ee:	jo     0x406364
  4062f0:	imul   ebp,DWORD PTR [edi+0x6e],0x65670073
  4062f7:	je     0x406358
  4062f9:	dec    eax
  4062fa:	gs ins BYTE PTR es:[edi],dx
  4062fc:	jo     0x40634d
  4062fe:	jne    0x406374
  406300:	jo     0x406377
  406302:	je     0x406304
  406304:	addr16 gs je 0x406367
  406308:	dec    eax
  406309:	gs ins BYTE PTR es:[edi],dx
  40630b:	jo     0x40635d
  40630d:	popa   
  40630e:	arpl   WORD PTR [ebx+0x53],bp
  406311:	jns    0x406380
  406313:	bound  ebp,QWORD PTR [edi+0x6c]
  406316:	jae    0x406318
  406318:	addr16 gs je 0x40637b
  40631c:	dec    eax
  40631d:	gs ins BYTE PTR es:[edi],dx
  40631f:	jo     0x406374
  406321:	popa   
  406322:	ins    DWORD PTR es:[edi],dx
  406323:	jo     0x406391
  406325:	add    BYTE PTR gs:[edi+0x65],ah
  406329:	je     0x40638a
  40632b:	dec    eax
  40632c:	gs ins BYTE PTR es:[edi],dx
  40632e:	jo     0x406383
  406330:	push   0x6f647475
  406335:	ja     0x4063a5
  406337:	add    BYTE PTR [edi+0x65],ah
  40633a:	je     0x40639b
  40633c:	dec    eax
  40633d:	gs ins BYTE PTR es:[edi],dx
  40633f:	jo     0x406395
  406341:	imul   esi,DWORD PTR [eax+0x0],0x5f746567
  406348:	dec    eax
  406349:	gs ins BYTE PTR es:[edi],dx
  40634b:	jo     0x4063a1
  40634d:	jb     0x4063b0
  40634f:	arpl   WORD PTR [ebp+0x0],sp
  406352:	addr16 gs je 0x4063b5
  406356:	dec    eax
  406357:	gs ins BYTE PTR es:[edi],dx
  406359:	jo     0x4063b0
  40635b:	jae    0x4063be
  40635d:	add    BYTE PTR gs:[bx+0x65],ah
  406362:	je     0x4063c3
  406364:	dec    ecx
  406365:	outs   dx,BYTE PTR ds:[esi]
  406366:	jbe    0x4063c9
  406368:	ins    BYTE PTR es:[edi],dx
  406369:	imul   esp,DWORD PTR [eax+edx*2+0x72],0x6c69666f
  406371:	imul   ebp,DWORD PTR [esi+0x67],0x65707954
  406378:	add    BYTE PTR [edi+0x65],ah
  40637b:	je     0x4063dc
  40637d:	dec    ecx
  40637e:	outs   dx,BYTE PTR ds:[esi]
  40637f:	jbe    0x4063e2
  406381:	ins    BYTE PTR es:[edi],dx
  406382:	imul   esp,DWORD PTR [edi+edx*2+0x65],0x74697362
  40638a:	gs push ebx
  40638c:	jo     0x4063f3
  40638e:	arpl   WORD PTR [ecx+0x66],bp
  406391:	imul   esp,DWORD PTR [ebp+0x64],0x74656700
  406398:	pop    edi
  406399:	dec    ebp
  40639a:	imul   esp,DWORD PTR [ebx+0x72],0x666f736f
  4063a1:	je     0x4063e6
  4063a3:	outs   dx,DWORD PTR ds:[esi]
  4063a4:	jo     0x40641f
  4063a6:	jb     0x406411
  4063a8:	addr16 push 0x746f4e74
  4063ae:	imul   esp,DWORD PTR [ebx+0x65],0x74656700
  4063b5:	pop    edi
  4063b6:	dec    ebp
  4063b7:	outs   dx,DWORD PTR ds:[esi]
  4063b8:	outs   dx,BYTE PTR ds:[esi]
  4063b9:	imul   esi,DWORD PTR [edi+ebp*2+0x72],0x72617453
  4063c1:	je     0x406409
  4063c3:	popa   
  4063c4:	imul   ebp,DWORD PTR [ebp+esi*2+0x72],0x65670065
  4063cc:	je     0x40642d
  4063ce:	dec    ebp
  4063cf:	outs   dx,DWORD PTR ds:[esi]
  4063d0:	outs   dx,BYTE PTR ds:[esi]
  4063d1:	imul   esi,DWORD PTR [edi+ebp*2+0x72],0x706f7453
  4063d9:	inc    esi
  4063da:	popa   
  4063db:	imul   ebp,DWORD PTR [ebp+esi*2+0x72],0x65670065
  4063e3:	je     0x406444
  4063e5:	dec    esi
  4063e6:	outs   dx,DWORD PTR ds:[esi]
  4063e7:	push   eax
  4063e8:	popa   
  4063e9:	jb     0x40644c
  4063eb:	ins    DWORD PTR es:[edi],dx
  4063ec:	gs je  0x406454
  4063ef:	jb     0x406464
  4063f1:	add    BYTE PTR [edi+0x65],ah
  4063f4:	je     0x406455
  4063f6:	dec    esi
  4063f7:	outs   dx,DWORD PTR ds:[esi]
  4063f8:	push   edi
  4063f9:	popa   
  4063fa:	imul   esi,DWORD PTR [ebp+ecx*2+0x65],0x67617373
  406402:	add    BYTE PTR gs:[edi+0x65],ah
  406406:	je     0x406467
  406408:	dec    esi
  406409:	outs   dx,DWORD PTR ds:[esi]
  40640a:	push   edi
  40640b:	bound  esi,QWORD PTR gs:[ebx+0x69]
  40640f:	je     0x406476
  406411:	dec    ecx
  406412:	outs   dx,BYTE PTR ds:[esi]
  406413:	push   edx
  406414:	imul   esi,DWORD PTR gs:[bp+di+0x74],0x67007972
  40641d:	gs je  0x40647f
  406420:	push   eax
  406421:	popa   
  406422:	arpl   WORD PTR [ebx+0x69],bp
  406425:	outs   dx,BYTE PTR ds:[esi]
  406426:	addr16 push ebx
  406428:	jns    0x406497
  40642a:	bound  ebp,QWORD PTR [edi+0x6c]
  40642d:	jae    0x40642f
  40642f:	addr16 gs je 0x406492
  406433:	push   ebx
  406434:	push   0x6f647475
  406439:	ja     0x4064a9
  40643b:	push   ebx
  40643c:	jne    0x4064a1
  40643e:	arpl   WORD PTR [ebp+0x73],sp
  406441:	jae    0x406443
  406443:	addr16 gs je 0x4064a6
  406447:	push   ebp
  406448:	outs   dx,BYTE PTR ds:[esi]
  406449:	push   0x6c646e61
  40644e:	gs fs inc ebp
  406451:	js     0x4064b6
  406453:	gs jo  0x4064ca
  406456:	imul   ebp,DWORD PTR [edi+0x6e],0x74656700
  40645d:	pop    edi
  40645e:	push   edi
  40645f:	popa   
  406460:	imul   esi,DWORD PTR [esp+edx*2+0x65],0x67007478
  406468:	gs je  0x4064ca
  40646b:	push   edi
  40646c:	popa   
  40646d:	jb     0x4064dd
  40646f:	imul   ebp,DWORD PTR [esi+0x67],0x74786554
  406476:	add    BYTE PTR [ebx+0x75],al
  406479:	ins    BYTE PTR es:[edi],dx
  40647a:	je     0x4064f1
  40647c:	jb     0x4064e3
  40647e:	add    BYTE PTR [ecx+0x53],al
  406481:	push   eax
  406482:	inc    ebp
  406483:	js     0x4064ea
  406485:	arpl   WORD PTR [ebp+0x74],si
  406488:	gs push ebx
  40648a:	je     0x4064f1
  40648c:	jo     0x4064cf
  40648e:	je     0x406504
  406490:	popa   
  406491:	arpl   WORD PTR [eax+0x4d],bp
  406494:	outs   dx,DWORD PTR ds:[esi]
  406495:	outs   dx,BYTE PTR ds:[esi]
  406496:	imul   esi,DWORD PTR [edi+ebp*2+0x72],0x50534100
  40649e:	inc    ebp
  40649f:	js     0x406506
  4064a1:	arpl   WORD PTR [ebp+0x74],si
  4064a4:	gs push ebx
  4064a6:	je     0x40650d
  4064a8:	jo     0x4064ef
  4064aa:	outs   dx,BYTE PTR ds:[esi]
  4064ab:	jbe    0x406500
  4064ad:	gs je  0x406525
  4064b0:	jo     0x4064b2
  4064b2:	inc    ecx
  4064b3:	push   ebx
  4064b4:	push   eax
  4064b5:	inc    ebp
  4064b6:	js     0x40651d
  4064b8:	arpl   WORD PTR [ebp+0x74],si
  4064bb:	gs push ebx
  4064bd:	je     0x406524
  4064bf:	jo     0x40650d
  4064c1:	popa   
  4064c2:	jne    0x406532
  4064c4:	arpl   WORD PTR [eax+0x69],bp
  4064c7:	outs   dx,BYTE PTR ds:[esi]
  4064c8:	addr16 inc ecx
  4064ca:	push   ebx
  4064cb:	push   eax
  4064cc:	add    BYTE PTR [ecx+0x53],al
  4064cf:	push   eax
  4064d0:	inc    ebp
  4064d1:	js     0x406538
  4064d3:	arpl   WORD PTR [ebp+0x74],si
  4064d6:	gs push ebx
  4064d8:	je     0x40653f
  4064da:	jo     0x40652e
  4064dc:	gs jae 0x406553
  4064df:	popa   
  4064e0:	jb     0x406556
  4064e2:	push   edi
  4064e3:	xor    edx,DWORD PTR [edi+0x50]
  4064e6:	add    BYTE PTR [ecx+0x53],al
  4064e9:	push   eax
  4064ea:	inc    ebp
  4064eb:	js     0x406552
  4064ed:	arpl   WORD PTR [ebp+0x74],si
  4064f0:	gs push ebx
  4064f2:	je     0x406559
  4064f4:	jo     0x406549
  4064f6:	je     0x406559
  4064f8:	jb     0x40656e
  4064fa:	dec    ecx
  4064fb:	inc    ebp
  4064fc:	add    BYTE PTR [ecx+0x53],al
  4064ff:	push   eax
  406500:	inc    ebp
  406501:	js     0x406568
  406503:	arpl   WORD PTR [ebp+0x74],si
  406506:	gs push ebx
  406508:	je     0x40656f
  40650a:	jo     0x40655f
  40650c:	je     0x40656f
  40650e:	jb     0x406584
  406510:	dec    ebp
  406511:	outs   dx,DWORD PTR ds:[esi]
  406512:	outs   dx,BYTE PTR ds:[esi]
  406513:	imul   esi,DWORD PTR [edi+ebp*2+0x72],0x50534100
  40651b:	inc    ebp
  40651c:	js     0x406583
  40651e:	arpl   WORD PTR [ebp+0x74],si
  406521:	gs push ebx
  406523:	je     0x40658a
  406525:	jo     0x40657e
  406527:	bound  eax,QWORD PTR gs:[ebx+0x6f]
  40652b:	outs   dx,BYTE PTR ds:[esi]
  40652c:	imul   sp,WORD PTR [edi+0x0],0x5341
  406532:	push   eax
  406533:	dec    esi
  406534:	gs je  0x40657c
  406537:	js     0x40659c
  406539:	gs jo  0x4065b0
  40653c:	imul   ebp,DWORD PTR [edi+0x6e],0x50534100
  406543:	dec    esi
  406544:	gs je  0x406590
  406547:	outs   dx,BYTE PTR ds:[esi]
  406548:	jbe    0x4065ab
  40654a:	ins    BYTE PTR es:[edi],dx
  40654b:	imul   esp,DWORD PTR [ebx+edx*2+0x69],0x72416574
  406553:	add    BYTE PTR [bx+di+0x53],al
  406557:	push   eax
  406558:	dec    esi
  406559:	gs je  0x4065af
  40655c:	popa   
  40655d:	ins    DWORD PTR es:[edi],dx
  40655e:	jo     0x4065cc
  406560:	imul   ebp,DWORD PTR [esi+0x67],0x706c6548
  406567:	add    BYTE PTR [ecx+0x53],al
  40656a:	push   eax
  40656b:	dec    esi
  40656c:	gs je  0x4065c2
  40656f:	popa   
  406570:	ins    DWORD PTR es:[edi],dx
  406571:	jo     0x4065df
  406573:	imul   ebp,DWORD PTR [esi+0x67],0x64616552
  40657a:	jns    0x40657c
  40657c:	inc    ecx
  40657d:	push   ebx
  40657e:	push   eax
  40657f:	dec    esi
  406580:	gs je  0x4065d6
  406583:	popa   
  406584:	ins    DWORD PTR es:[edi],dx
  406585:	jo     0x4065f3
  406587:	imul   ebp,DWORD PTR [esi+0x67],0x74756853
  40658e:	outs   dx,DWORD PTR fs:[esi]
  406590:	ja     0x406600
  406592:	add    BYTE PTR [ecx+0x53],al
  406595:	push   eax
  406596:	dec    esi
  406597:	gs je  0x4065ed
  40659a:	popa   
  40659b:	ins    DWORD PTR es:[edi],dx
  40659c:	jo     0x40660a
  40659e:	imul   ebp,DWORD PTR [esi+0x67],0x74756853
  4065a5:	outs   dx,DWORD PTR fs:[esi]
  4065a7:	ja     0x406617
  4065a9:	push   ebx
  4065aa:	je     0x40660d
  4065ac:	jb     0x406622
  4065ae:	imul   ebp,DWORD PTR [esi+0x67],0x50534100
  4065b5:	dec    esi
  4065b6:	gs je  0x40660c
  4065b9:	popa   
  4065ba:	ins    DWORD PTR es:[edi],dx
  4065bb:	jo     0x406629
  4065bd:	imul   ebp,DWORD PTR [esi+0x67],0x72617453
  4065c4:	je     0x40662f
  4065c6:	outs   dx,BYTE PTR ds:[esi]
  4065c7:	add    BYTE PTR [bp+di+0x4f],al
  4065cb:	dec    ebp
  4065cc:	inc    ebp
  4065cd:	js     0x406634
  4065cf:	jo     0x406645
  4065d1:	imul   ebp,DWORD PTR [edi+0x6e],0x72724500
  4065d8:	outs   dx,DWORD PTR ds:[esi]
  4065d9:	jb     0x40662f
  4065db:	gs js  0x406652
  4065de:	add    BYTE PTR [esi+0x61],al
  4065e1:	imul   ebp,DWORD PTR [ebp+eiz*2+0x64],0x74536f54
  4065e9:	popa   
  4065ea:	jb     0x406660
  4065ec:	dec    ecx
  4065ed:	inc    ebp
  4065ee:	add    BYTE PTR [eax+0x65],cl
  4065f1:	ins    BYTE PTR es:[edi],dx
  4065f2:	jo     0x406638
  4065f4:	gs jae 0x40665a
  4065f7:	jb     0x406662
  4065f9:	jo     0x40666f
  4065fb:	imul   ebp,DWORD PTR [edi+0x6e],0x6c654800
  406602:	jo     0x40664c
  406604:	gs ins BYTE PTR es:[edi],dx
  406606:	jo     0x406608
  406608:	dec    eax
  406609:	gs ins BYTE PTR es:[edi],dx
  40660b:	jo     0x40665a
  40660d:	gs ins DWORD PTR es:[edi],dx
  40660f:	outs   dx,DWORD PTR ds:[esi]
  406610:	jb     0x40668b
  406612:	add    BYTE PTR [eax+0x65],cl
  406615:	ins    BYTE PTR es:[edi],dx
  406616:	jo     0x406666
  406618:	outs   dx,DWORD PTR ds:[esi]
  406619:	ja     0x40667c
  40661b:	imul   esi,DWORD PTR [eax+eax*1+0x48],0x4f706c65
  406623:	jo     0x406699
  406625:	imul   ebp,DWORD PTR [edi+0x6e],0x65480073
  40662c:	ins    BYTE PTR es:[edi],dx
  40662d:	jo     0x40667e
  40662f:	jne    0x4066a5
  406631:	jo     0x4066a8
  406633:	je     0x406635
  406635:	dec    eax
  406636:	gs ins BYTE PTR es:[edi],dx
  406638:	jo     0x40668a
  40663a:	popa   
  40663b:	arpl   WORD PTR [ebx+0x53],bp
  40663e:	jns    0x4066ad
  406640:	bound  ebp,QWORD PTR [edi+0x6c]
  406643:	jae    0x406645
  406645:	dec    eax
  406646:	gs ins BYTE PTR es:[edi],dx
  406648:	jo     0x40669d
  40664a:	popa   
  40664b:	ins    DWORD PTR es:[edi],dx
  40664c:	jo     0x4066ba
  40664e:	add    BYTE PTR gs:[eax+0x65],cl
  406652:	ins    BYTE PTR es:[edi],dx
  406653:	jo     0x4066a8
  406655:	push   0x6f647475
  40665a:	ja     0x4066ca
  40665c:	add    BYTE PTR [eax+0x65],cl
  40665f:	ins    BYTE PTR es:[edi],dx
  406660:	jo     0x4066b6
  406662:	imul   esi,DWORD PTR [eax+0x0],0x706c6548
  406669:	push   esp
  40666a:	jb     0x4066cd
  40666c:	arpl   WORD PTR [ebp+0x0],sp
  40666f:	dec    eax
  406670:	gs ins BYTE PTR es:[edi],dx
  406672:	jo     0x4066c9
  406674:	jae    0x4066d7
  406676:	add    BYTE PTR gs:[bx+di+0x6e],cl
  40667b:	jbe    0x4066de
  40667d:	ins    BYTE PTR es:[edi],dx
  40667e:	imul   esp,DWORD PTR [eax+edx*2+0x72],0x6c69666f
  406686:	imul   ebp,DWORD PTR [esi+0x67],0x65707954
  40668d:	add    BYTE PTR [ecx+0x6e],cl
  406690:	jbe    0x4066f3
  406692:	ins    BYTE PTR es:[edi],dx
  406693:	imul   esp,DWORD PTR [edi+edx*2+0x65],0x74697362
  40669b:	gs push ebx
  40669d:	jo     0x406704
  40669f:	arpl   WORD PTR [ecx+0x66],bp
  4066a2:	imul   esp,DWORD PTR [ebp+0x64],0x63694d00
  4066a9:	jb     0x40671a
  4066ab:	jae    0x40671c
  4066ad:	data16 je 0x4066f3
  4066b0:	outs   dx,DWORD PTR ds:[esi]
  4066b1:	jo     0x40672c
  4066b3:	jb     0x40671e
  4066b5:	addr16 push 0x746f4e74
  4066bb:	imul   esp,DWORD PTR [ebx+0x65],0x6e6f4d00
  4066c2:	imul   esi,DWORD PTR [edi+ebp*2+0x72],0x72617453
  4066ca:	je     0x406712
  4066cc:	popa   
  4066cd:	imul   ebp,DWORD PTR [ebp+esi*2+0x72],0x6f4d0065
  4066d5:	outs   dx,BYTE PTR ds:[esi]
  4066d6:	imul   esi,DWORD PTR [edi+ebp*2+0x72],0x706f7453
  4066de:	inc    esi
  4066df:	popa   
  4066e0:	imul   ebp,DWORD PTR [ebp+esi*2+0x72],0x6f4e0065
  4066e8:	push   eax
  4066e9:	popa   
  4066ea:	jb     0x40674d
  4066ec:	ins    DWORD PTR es:[edi],dx
  4066ed:	gs je  0x406755
  4066f0:	jb     0x406765
  4066f2:	add    BYTE PTR [esi+0x6f],cl
  4066f5:	push   edi
  4066f6:	popa   
  4066f7:	imul   esi,DWORD PTR [ebp+ecx*2+0x65],0x67617373
  4066ff:	add    BYTE PTR gs:[esi+0x6f],cl
  406703:	push   edi
  406704:	bound  esi,QWORD PTR gs:[ebx+0x69]
  406708:	je     0x40676f
  40670a:	dec    ecx
  40670b:	outs   dx,BYTE PTR ds:[esi]
  40670c:	push   edx
  40670d:	imul   esi,DWORD PTR gs:[bp+di+0x74],0x50007972
  406716:	popa   
  406717:	arpl   WORD PTR [ebx+0x69],bp
  40671a:	outs   dx,BYTE PTR ds:[esi]
  40671b:	addr16 push ebx
  40671d:	jns    0x40678c
  40671f:	bound  ebp,QWORD PTR [edi+0x6c]
  406722:	jae    0x406724
  406724:	push   ebx
  406725:	push   0x6f647475
  40672a:	ja     0x40679a
  40672c:	push   ebx
  40672d:	jne    0x406792
  40672f:	arpl   WORD PTR [ebp+0x73],sp
  406732:	jae    0x406734
  406734:	push   ebp
  406735:	outs   dx,BYTE PTR ds:[esi]
  406736:	push   0x6c646e61
  40673b:	gs fs inc ebp
  40673e:	js     0x4067a3
  406740:	gs jo  0x4067b7
  406743:	imul   ebp,DWORD PTR [edi+0x6e],0x69615700
  40674a:	je     0x4067a0
  40674c:	gs js  0x4067c3
  40674f:	add    BYTE PTR [edi+0x61],dl
  406752:	jb     0x4067c2
  406754:	imul   ebp,DWORD PTR [esi+0x67],0x74786554
  40675b:	add    BYTE PTR [ebp+0x78],al
  40675e:	arpl   WORD PTR gs:[ebp+0x74],si
  406762:	add    BYTE PTR gs:[ebx+0x68],dl
  406766:	jne    0x4067dc
  406768:	outs   dx,DWORD PTR fs:[esi]
  40676a:	ja     0x4067da
  40676c:	add    BYTE PTR [edi+0x65],ah
  40676f:	je     0x4067d0
  406771:	inc    ebx
  406772:	outs   dx,DWORD PTR ds:[esi]
  406773:	outs   dx,BYTE PTR ds:[esi]
  406774:	je     0x4067e8
  406776:	outs   dx,DWORD PTR ds:[esi]
  406777:	ins    BYTE PTR es:[edi],dx
  406778:	push   esp
  406779:	popa   
  40677a:	add    BYTE PTR [bx+0x65],ah
  40677e:	je     0x4067df
  406780:	push   esp
  406781:	imul   esi,DWORD PTR [esp+ebp*2+0x65],0x74656700
  406789:	pop    edi
  40678a:	push   ebx
  40678b:	jne    0x4067fd
  40678d:	jo     0x4067fe
  40678f:	jb     0x406805
  406791:	jae    0x4067e6
  406793:	popa   
  406794:	ins    DWORD PTR es:[edi],dx
  406795:	jo     0x406803
  406797:	imul   ebp,DWORD PTR [esi+0x67],0x74656700
  40679e:	pop    edi
  40679f:	push   ebx
  4067a0:	jne    0x406812
  4067a2:	jo     0x406813
  4067a4:	jb     0x40681a
  4067a6:	jae    0x4067f1
  4067a8:	outs   dx,BYTE PTR ds:[esi]
  4067a9:	jae    0x40681f
  4067ab:	jb     0x406822
  4067ad:	ins    DWORD PTR es:[edi],dx
  4067ae:	outs   dx,BYTE PTR gs:[esi]
  4067b0:	je     0x406813
  4067b2:	je     0x40681d
  4067b4:	outs   dx,DWORD PTR ds:[esi]
  4067b5:	outs   dx,BYTE PTR ds:[esi]
  4067b6:	add    BYTE PTR [edi+0x65],ah
  4067b9:	je     0x40681a
  4067bb:	push   ebx
  4067bc:	jne    0x40682e
  4067be:	jo     0x40682f
  4067c0:	jb     0x406836
  4067c2:	jae    0x406811
  4067c4:	gs ins DWORD PTR es:[edi],dx
  4067c6:	outs   dx,DWORD PTR ds:[esi]
  4067c7:	jb     0x406842
  4067c9:	add    BYTE PTR [edi+0x65],ah
  4067cc:	je     0x40682d
  4067ce:	push   ebx
  4067cf:	jne    0x406841
  4067d1:	jo     0x406842
  4067d3:	jb     0x406849
  4067d5:	jae    0x40682b
  4067d7:	imul   esi,DWORD PTR [eax+0x0],0x5f746567
  4067de:	dec    eax
  4067df:	gs ins BYTE PTR es:[edi],dx
  4067e1:	jo     0x406837
  4067e3:	gs js  0x40685a
  4067e6:	add    BYTE PTR [eax+0x61],dl
  4067e9:	jb     0x40685e
  4067eb:	gs push ebx
  4067ed:	jo     0x406854
  4067ef:	arpl   WORD PTR [ecx+0x66],bp
  4067f2:	imul   esp,DWORD PTR [ebx+0x41],0x6d756772
  4067f9:	outs   dx,BYTE PTR gs:[esi]
  4067fb:	je     0x4067fd
  4067fd:	push   esi
  4067fe:	gs jb  0x40686a
  406801:	data16 jns 0x406857
  406804:	jo     0x40686b
  406806:	arpl   WORD PTR [ecx+0x66],bp
  406809:	imul   esp,DWORD PTR [ebx+0x4f],0x6f697470
  406810:	outs   dx,BYTE PTR ds:[esi]
  406811:	jae    0x406813
  406813:	inc    edi
  406814:	gs je  0x406866
  406817:	jo     0x40688d
  406819:	imul   ebp,DWORD PTR [edi+0x6e],0x72550073
  406820:	imul   eax,DWORD PTR [eax],0x63657845
  406826:	jne    0x40689c
  406828:	gs push ebx
  40682a:	push   0x6f647475
  40682f:	ja     0x40689f
  406831:	add    BYTE PTR [ecx+0x6e],cl
  406834:	imul   esi,DWORD PTR [ecx+eax*2+0x73],0x74654e70
  40683c:	dec    edi
  40683d:	jo     0x4068b3
  40683f:	imul   ebp,DWORD PTR [edi+0x6e],0x65520073
  406846:	jae    0x4068ad
  406848:	je     0x40689c
  40684a:	imul   esi,DWORD PTR gs:[bp+di+0x74],0x65537972
  406853:	je     0x4068c9
  406855:	imul   ebp,DWORD PTR [esi+0x67],0x65530073
  40685c:	je     0x4068b0
  40685e:	imul   esi,DWORD PTR gs:[bp+di+0x74],0x65537972
  406867:	je     0x4068dd
  406869:	imul   ebp,DWORD PTR [esi+0x67],0x73490073
  406870:	push   ebp
  406871:	jb     0x4068df
  406873:	push   esi
  406874:	popa   
  406875:	ins    BYTE PTR es:[edi],dx
  406876:	imul   esp,DWORD PTR [eax+eax*1+0x45],0x75636578
  40687e:	je     0x4068e5
  406880:	push   eax
  406881:	jb     0x4068f2
  406883:	imul   bp,WORD PTR [ecx+ebp*2+0x6e],0x4967
  40688a:	outs   dx,BYTE PTR ds:[esi]
  40688b:	je     0x4068f2
  40688d:	jb     0x4068fd
  40688f:	popa   
  406890:	ins    BYTE PTR es:[edi],dx
  406891:	add    BYTE PTR [ebx+0x68],dl
  406894:	jne    0x40690a
  406896:	outs   dx,DWORD PTR fs:[esi]
  406898:	ja     0x406908
  40689a:	push   eax
  40689b:	jb     0x40690c
  40689d:	imul   bp,WORD PTR [ecx+ebp*2+0x6e],0x4967
  4068a4:	outs   dx,BYTE PTR ds:[esi]
  4068a5:	je     0x40690c
  4068a7:	jb     0x406917
  4068a9:	popa   
  4068aa:	ins    BYTE PTR es:[edi],dx
  4068ab:	add    BYTE PTR [ebx+0x65],dl
  4068ae:	je     0x406900
  4068b0:	jb     0x406921
  4068b2:	imul   bp,WORD PTR [ecx+ebp*2+0x6e],0x4567
  4068b9:	outs   dx,BYTE PTR ds:[esi]
  4068ba:	jbe    0x406925
  4068bc:	jb     0x40692d
  4068be:	outs   dx,BYTE PTR ds:[esi]
  4068bf:	ins    DWORD PTR es:[edi],dx
  4068c0:	outs   dx,BYTE PTR gs:[esi]
  4068c2:	je     0x4068c4
  4068c4:	inc    ebx
  4068c5:	ins    BYTE PTR es:[edi],dx
  4068c6:	gs popa 
  4068c8:	jb     0x40690f
  4068ca:	outs   dx,BYTE PTR ds:[esi]
  4068cb:	jbe    0x40690e
  4068cd:	outs   dx,BYTE PTR ds:[esi]
  4068ce:	fs push ebx
  4068d0:	push   0x6f647475
  4068d5:	ja     0x406945
  4068d7:	inc    ecx
  4068d8:	push   ebx
  4068d9:	push   eax
  4068da:	add    BYTE PTR [ecx+eiz*2+0x75],cl
  4068de:	outs   dx,BYTE PTR ds:[esi]
  4068df:	arpl   WORD PTR [eax+0x41],bp
  4068e2:	push   ebx
  4068e3:	push   eax
  4068e4:	dec    esi
  4068e5:	gs je  0x40693b
  4068e8:	gs jb  0x406961
  4068eb:	imul   esp,DWORD PTR [ebx+0x65],0x61745300
  4068f2:	jb     0x406968
  4068f4:	dec    ebp
  4068f5:	outs   dx,DWORD PTR ds:[esi]
  4068f6:	outs   dx,BYTE PTR ds:[esi]
  4068f7:	imul   esi,DWORD PTR [edi+ebp*2+0x72],0x74654700
  4068ff:	push   eax
  406900:	fs push 0x6e756f43
  406906:	je     0x40696d
  406908:	jb     0x40695d
  40690a:	je     0x40697e
  40690c:	imul   ebp,DWORD PTR [esi+0x67],0x74744100
  406913:	popa   
  406914:	arpl   WORD PTR [eax+0x4d],bp
  406917:	outs   dx,DWORD PTR ds:[esi]
  406918:	outs   dx,BYTE PTR ds:[esi]
  406919:	imul   esi,DWORD PTR [edi+ebp*2+0x72],0x75685300
  406921:	je     0x406987
  406923:	outs   dx,DWORD PTR ds:[esi]
  406924:	ja     0x406994
  406926:	push   eax
  406927:	jb     0x406998
  406929:	imul   bp,WORD PTR [ecx+ebp*2+0x6e],0x67
  406930:	dec    esp
  406931:	popa   
  406932:	jne    0x4069a2
  406934:	arpl   WORD PTR [eax+0x49],bp
  406937:	inc    ebp
  406938:	add    BYTE PTR [ebp+0x69],cl
  40693b:	arpl   WORD PTR [edx+0x6f],si
  40693e:	jae    0x4069af
  406940:	data16 je 0x406971
  406943:	push   edi
  406944:	imul   ebp,DWORD PTR [esi+0x33],0x65520032
  40694b:	imul   esi,DWORD PTR [bp+di+0x74],0x654b7972
  406953:	jns    0x406955
  406955:	addr16 gs je 0x4069b8
  406959:	dec    esp
  40695a:	popa   
  40695b:	jae    0x4069d1
  40695d:	push   edx
  40695e:	jne    0x4069ce
  406960:	push   ebx
  406961:	gs je  0x4069d8
  406964:	imul   ebp,DWORD PTR [esi+0x67],0x53560073
  40696b:	push   eax
  40696c:	gs jb  0x4069d5
  40696f:	inc    ebx
  406970:	outs   dx,DWORD PTR ds:[esi]
  406971:	outs   dx,BYTE PTR ds:[esi]
  406972:	je     0x4069e6
  406974:	outs   dx,DWORD PTR ds:[esi]
  406975:	ins    BYTE PTR es:[edi],dx
  406976:	cs dec ecx
  406978:	outs   dx,BYTE PTR ds:[esi]
  406979:	je     0x4069e0
  40697b:	jb     0x4069ec
  40697d:	jo     0x40697f
  40697f:	dec    ebp
  406980:	imul   esp,DWORD PTR [ebx+0x72],0x666f736f
  406987:	je     0x4069b7
  406989:	push   esi
  40698a:	imul   esi,DWORD PTR [ebx+0x75],0x74536c61
  406991:	jne    0x4069f7
  406993:	imul   ebp,DWORD PTR [edi+0x2e],0x65505356
  40699a:	jb     0x406a02
  40699c:	inc    ebx
  40699d:	outs   dx,DWORD PTR ds:[esi]
  40699e:	outs   dx,BYTE PTR ds:[esi]
  40699f:	je     0x406a13
  4069a1:	outs   dx,DWORD PTR ds:[esi]
  4069a2:	ins    BYTE PTR es:[edi],dx
  4069a3:	cs dec ecx
  4069a5:	outs   dx,BYTE PTR ds:[esi]
  4069a6:	je     0x406a0d
  4069a8:	jb     0x406a19
  4069aa:	jo     0x4069ac
  4069ac:	dec    ecx
  4069ad:	push   esi
  4069ae:	push   ebx
  4069af:	push   eax
  4069b0:	gs jb  0x406a19
  4069b3:	add    BYTE PTR [edi+0x65],ah
  4069b6:	je     0x406a17
  4069b8:	push   eax
  4069b9:	gs jb  0x406a22
  4069bc:	inc    ebx
  4069bd:	outs   dx,DWORD PTR ds:[esi]
  4069be:	outs   dx,BYTE PTR ds:[esi]
  4069bf:	je     0x406a33
  4069c1:	outs   dx,DWORD PTR ds:[esi]
  4069c2:	ins    BYTE PTR es:[edi],dx
  4069c3:	add    BYTE PTR [ebx+0x65],ch
  4069c6:	jns    0x406a16
  4069c8:	popa   
  4069c9:	ins    DWORD PTR es:[edi],dx
  4069ca:	add    BYTE PTR gs:[ebx+0x65],ch
  4069ce:	jns    0x406a16
  4069d0:	imul   ebp,DWORD PTR [ebp+eiz*2+0x0],0x5079656b
  4069d8:	jb     0x406a49
  4069da:	data16 add BYTE PTR [edi+0x69],bl
  4069de:	jae    0x406a16
  4069e0:	xor    al,0x42
  4069e2:	imul   esi,DWORD PTR [eax+eax*1+0x4d],0x6f726369
  4069ea:	jae    0x406a5b
  4069ec:	data16 je 0x406a1d
  4069ef:	push   esi
  4069f0:	imul   esi,DWORD PTR [ebx+0x75],0x74536c61
  4069f7:	jne    0x406a5d
  4069f9:	imul   ebp,DWORD PTR [edi+0x2e],0x65746e45
  406a00:	jb     0x406a72
  406a02:	jb     0x406a6d
  406a04:	jae    0x406a6b
  406a06:	cs inc ecx
  406a08:	jae    0x406a7a
  406a0a:	dec    esi
  406a0b:	gs je  0x406a56
  406a0e:	gs ins BYTE PTR es:[edi],dx
  406a10:	jo     0x406a77
  406a12:	jb     0x406a14
  406a14:	dec    ebp
  406a15:	imul   esp,DWORD PTR [ebx+0x72],0x666f736f
  406a1c:	je     0x406a4c
  406a1e:	push   esi
  406a1f:	imul   esi,DWORD PTR [ebx+0x75],0x74536c61
  406a26:	jne    0x406a8c
  406a28:	imul   ebp,DWORD PTR [edi+0x2e],0x65746e45
  406a2f:	jb     0x406aa1
  406a31:	jb     0x406a9c
  406a33:	jae    0x406a9a
  406a35:	cs inc ebx
  406a37:	outs   dx,DWORD PTR ds:[esi]
  406a38:	ins    DWORD PTR es:[edi],dx
  406a39:	ins    DWORD PTR es:[edi],dx
  406a3a:	outs   dx,DWORD PTR ds:[esi]
  406a3b:	outs   dx,BYTE PTR ds:[esi]
  406a3c:	add    BYTE PTR [ecx+0x73],al
  406a3f:	jo     0x406a8f
  406a41:	gs je  0x406a8c
  406a44:	gs ins BYTE PTR es:[edi],dx
  406a46:	jo     0x406aad
  406a48:	jb     0x406a4a
  406a4a:	pop    edi
  406a4b:	popa   
  406a4c:	jae    0x406abe
  406a4e:	dec    esi
  406a4f:	gs je  0x406a9a
  406a52:	gs ins BYTE PTR es:[edi],dx
  406a54:	jo     0x406abb
  406a56:	jb     0x406a58
  406a58:	pop    edi
  406a59:	jo     0x406ac0
  406a5b:	jb     0x406ac3
  406a5d:	inc    ebx
  406a5e:	outs   dx,DWORD PTR ds:[esi]
  406a5f:	outs   dx,BYTE PTR ds:[esi]
  406a60:	je     0x406ad4
  406a62:	outs   dx,DWORD PTR ds:[esi]
  406a63:	ins    BYTE PTR es:[edi],dx
  406a64:	add    BYTE PTR [ecx+0x6c],al
  406a67:	ins    BYTE PTR es:[edi],dx
  406a68:	inc    ebp
  406a69:	outs   dx,BYTE PTR ds:[esi]
  406a6a:	jbe    0x406ad5
  406a6c:	jb     0x406add
  406a6e:	outs   dx,BYTE PTR ds:[esi]
  406a6f:	ins    DWORD PTR es:[edi],dx
  406a70:	outs   dx,BYTE PTR gs:[esi]
  406a72:	je     0x406aca
  406a74:	popa   
  406a75:	jb     0x406ae0
  406a77:	popa   
  406a78:	bound  ebp,QWORD PTR [ebp+eiz*2+0x73]
  406a7c:	add    BYTE PTR [edi+0x61],bl
  406a7f:	jae    0x406af1
  406a81:	dec    esi
  406a82:	gs je  0x406ad4
  406a85:	jo     0x406afb
  406a87:	imul   ebp,DWORD PTR [edi+0x6e],0x6f430073
  406a8e:	outs   dx,BYTE PTR ds:[esi]
  406a8f:	je     0x406b03
  406a91:	outs   dx,DWORD PTR ds:[esi]
  406a92:	ins    BYTE PTR es:[edi],dx
  406a93:	push   esp
  406a94:	popa   
  406a95:	add    BYTE PTR [si+0x69],dl
  406a99:	je     0x406b07
  406a9b:	add    BYTE PTR gs:[ebx+0x75],dl
  406a9f:	jo     0x406b11
  406aa1:	outs   dx,DWORD PTR ds:[esi]
  406aa2:	jb     0x406b18
  406aa4:	jae    0x406af9
  406aa6:	popa   
  406aa7:	ins    DWORD PTR es:[edi],dx
  406aa8:	jo     0x406b16
  406aaa:	imul   ebp,DWORD PTR [esi+0x67],0x70755300
  406ab1:	jo     0x406b22
  406ab3:	jb     0x406b29
  406ab5:	jae    0x406b00
  406ab7:	outs   dx,BYTE PTR ds:[esi]
  406ab8:	jae    0x406b2e
  406aba:	jb     0x406b31
  406abc:	ins    DWORD PTR es:[edi],dx
  406abd:	outs   dx,BYTE PTR gs:[esi]
  406abf:	je     0x406b22
  406ac1:	je     0x406b2c
  406ac3:	outs   dx,DWORD PTR ds:[esi]
  406ac4:	outs   dx,BYTE PTR ds:[esi]
  406ac5:	add    BYTE PTR [ebx+0x75],dl
  406ac8:	jo     0x406b3a
  406aca:	outs   dx,DWORD PTR ds:[esi]
  406acb:	jb     0x406b41
  406acd:	jae    0x406b1c
  406acf:	gs ins DWORD PTR es:[edi],dx
  406ad1:	outs   dx,DWORD PTR ds:[esi]
  406ad2:	jb     0x406b4d
  406ad4:	add    BYTE PTR [ebx+0x75],dl
  406ad7:	jo     0x406b49
  406ad9:	outs   dx,DWORD PTR ds:[esi]
  406ada:	jb     0x406b50
  406adc:	jae    0x406b32
  406ade:	imul   esi,DWORD PTR [eax+0x0],0x706c6548
  406ae5:	push   esp
  406ae6:	gs js  0x406b5d
  406ae9:	add    BYTE PTR [ecx+eiz*2+0x73],cl
  406aed:	je     0x406b41
  406aef:	jne    0x406b5f
  406af1:	push   ebx
  406af2:	gs je  0x406b69
  406af5:	imul   ebp,DWORD PTR [esi+0x67],0x65500073
  406afc:	jb     0x406b64
  406afe:	inc    ebx
  406aff:	outs   dx,DWORD PTR ds:[esi]
  406b00:	outs   dx,BYTE PTR ds:[esi]
  406b01:	je     0x406b75
  406b03:	outs   dx,DWORD PTR ds:[esi]
  406b04:	ins    BYTE PTR es:[edi],dx
  406b05:	add    BYTE PTR [edi+ebp*2+0x61],cl
  406b09:	fs inc esp
  406b0b:	gs popaw 
  406b0e:	jne    0x406b7c
  406b10:	je     0x406b68
  406b12:	popa   
  406b13:	ins    BYTE PTR es:[edi],dx
  406b14:	jne    0x406b7b
  406b16:	jae    0x406b18
  406b18:	addr16 gs je 0x406b7b
  406b1c:	push   edi
  406b1d:	bound  esi,QWORD PTR gs:[ebx+0x69]
  406b21:	je     0x406b88
  406b23:	add    BYTE PTR [ebx+0x65],dh
  406b26:	je     0x406b87
  406b28:	push   edi
  406b29:	bound  esi,QWORD PTR gs:[ebx+0x69]
  406b2d:	je     0x406b94
  406b2f:	add    BYTE PTR [edi+0x65],ah
  406b32:	je     0x406b93
  406b34:	dec    esp
  406b35:	popa   
  406b36:	jne    0x406ba6
  406b38:	arpl   WORD PTR [eax+0x49],bp
  406b3b:	inc    ebp
  406b3c:	add    BYTE PTR [ebx+0x65],dh
  406b3f:	je     0x406ba0
  406b41:	dec    esp
  406b42:	popa   
  406b43:	jne    0x406bb3
  406b45:	arpl   WORD PTR [eax+0x49],bp
  406b48:	inc    ebp
  406b49:	add    BYTE PTR [edi+edx*2],bh
  406b4c:	bound  esi,QWORD PTR gs:[ebx+0x69]
  406b50:	je     0x406bb7
  406b52:	imul   ebx,DWORD PTR ds:[edi+0x5f],0x42
  406b57:	popa   
  406b58:	arpl   WORD PTR [ebx+0x69],bp
  406b5b:	outs   dx,BYTE PTR ds:[esi]
  406b5c:	addr16 inc esi
  406b5e:	imul   esp,DWORD PTR [ebp+0x6c],0x4c3c0064
  406b65:	popa   
  406b66:	jne    0x406bd6
  406b68:	arpl   WORD PTR [eax+0x49],bp
  406b6b:	inc    ebp
  406b6c:	imul   ebx,DWORD PTR ds:[edi+0x5f],0x42
  406b71:	popa   
  406b72:	arpl   WORD PTR [ebx+0x69],bp
  406b75:	outs   dx,BYTE PTR ds:[esi]
  406b76:	addr16 inc esi
  406b78:	imul   esp,DWORD PTR [ebp+0x6c],0x65570064
  406b7f:	bound  esi,QWORD PTR [ebx+0x69]
  406b82:	je     0x406be9
  406b84:	add    BYTE PTR [ebp+0x61],cl
  406b87:	imul   ebp,DWORD PTR [esi+0x0],0x6e69614d
  406b8e:	inc    ebp
  406b8f:	js     0x406bf6
  406b91:	arpl   WORD PTR [ebp+0x74],si
  406b94:	imul   ebp,DWORD PTR [edi+0x6e],0x69615700
  406b9b:	je     0x406be3
  406b9d:	outs   dx,DWORD PTR ds:[esi]
  406b9e:	jb     0x406bf3
  406ba0:	push   0x6f647475
  406ba5:	ja     0x406c15
  406ba7:	add    BYTE PTR [ebx+0x74],dl
  406baa:	popa   
  406bab:	jb     0x406c21
  406bad:	jne    0x406c1f
  406baf:	add    BYTE PTR [ebx+0x79],dl
  406bb2:	jae    0x406c28
  406bb4:	gs ins DWORD PTR es:[edi],dx
  406bb6:	cs inc ebx
  406bb8:	outs   dx,DWORD PTR ds:[esi]
  406bb9:	ins    BYTE PTR es:[edi],dx
  406bba:	ins    BYTE PTR es:[edi],dx
  406bbb:	arpl   WORD PTR gs:[ecx+ebp*2+0x6f],si
  406bc0:	outs   dx,BYTE PTR ds:[esi]
  406bc1:	jae    0x406bf1
  406bc3:	dec    edi
  406bc4:	bound  ebp,QWORD PTR [edx+0x65]
  406bc7:	arpl   WORD PTR [ebp+ecx*2+0x6f],si
  406bcb:	fs gs ins BYTE PTR es:[edi],dx
  406bce:	add    BYTE PTR [edx+0x65],dl
  406bd1:	popa   
  406bd2:	fs dec edi
  406bd4:	outs   dx,BYTE PTR ds:[esi]
  406bd5:	ins    BYTE PTR es:[edi],dx
  406bd6:	jns    0x406c1b
  406bd8:	outs   dx,DWORD PTR ds:[esi]
  406bd9:	ins    BYTE PTR es:[edi],dx
  406bda:	ins    BYTE PTR es:[edi],dx
  406bdb:	arpl   WORD PTR gs:[ecx+ebp*2+0x6f],si
  406be0:	outs   dx,BYTE PTR ds:[esi]
  406be1:	pusha  
  406be2:	xor    DWORD PTR [eax],eax
  406be4:	dec    esp
  406be5:	outs   dx,DWORD PTR ds:[esi]
  406be6:	popa   
  406be7:	fs push eax
  406be9:	jb     0x406c5a
  406beb:	imul   bp,WORD PTR [ecx+ebp*2+0x6e],0x5467
  406bf2:	jns    0x406c64
  406bf4:	gs jae 0x406bf7
  406bf7:	push   eax
  406bf8:	popa   
  406bf9:	jb     0x406c6e
  406bfb:	gs inc ecx
  406bfd:	jb     0x406c66
  406bff:	jne    0x406c6e
  406c01:	outs   dx,BYTE PTR gs:[esi]
  406c03:	je     0x406c78
  406c05:	add    BYTE PTR [eax+0x61],dl
  406c08:	jb     0x406c7d
  406c0a:	gs inc esi
  406c0c:	imul   esi,DWORD PTR [edx+0x73],0x67724174
  406c13:	jne    0x406c82
  406c15:	outs   dx,BYTE PTR gs:[esi]
  406c17:	je     0x406c19
  406c19:	push   ebx
  406c1a:	push   0x6548776f
  406c1f:	ins    BYTE PTR es:[edi],dx
  406c20:	jo     0x406c22
  406c22:	push   ebx
  406c23:	push   0x6f4c776f
  406c28:	outs   dx,DWORD PTR ds:[si]
  406c2a:	add    BYTE PTR [ebp+0x65],cl
  406c2d:	jae    0x406ca2
  406c2f:	popa   
  406c30:	addr16 gs push esp
  406c33:	jns    0x406ca5
  406c35:	add    BYTE PTR gs:[ebx+0x68],dl
  406c39:	outs   dx,DWORD PTR ds:[esi]
  406c3a:	ja     0x406c93
  406c3c:	popa   
  406c3d:	jb     0x406cad
  406c3f:	imul   ebp,DWORD PTR [esi+0x67],0x7245724f
  406c46:	jb     0x406cb7
  406c48:	jb     0x406c9e
  406c4a:	gs js  0x406cc1
  406c4d:	add    BYTE PTR [edi+0x70],bl
  406c50:	jb     0x406cc1
  406c52:	imul   bp,WORD PTR [ecx+ebp*2+0x6e],0x5467
  406c59:	jns    0x406ccb
  406c5b:	gs jae 0x406c5e
  406c5e:	push   ebx
  406c5f:	jns    0x406cd4
  406c61:	je     0x406cc8
  406c63:	ins    DWORD PTR es:[edi],dx
  406c64:	cs inc ebx
  406c66:	outs   dx,DWORD PTR ds:[esi]
  406c67:	ins    BYTE PTR es:[edi],dx
  406c68:	ins    BYTE PTR es:[edi],dx
  406c69:	arpl   WORD PTR gs:[ecx+ebp*2+0x6f],si
  406c6e:	outs   dx,BYTE PTR ds:[esi]
  406c6f:	jae    0x406c9f
  406c71:	inc    edi
  406c72:	outs   dx,BYTE PTR gs:[esi]
  406c74:	gs jb  0x406ce0
  406c77:	arpl   WORD PTR [eax],ax
  406c79:	inc    esp
  406c7a:	imul   esp,DWORD PTR [ebx+0x74],0x616e6f69
  406c81:	jb     0x406cfc
  406c83:	pusha  
  406c84:	xor    al,BYTE PTR [eax]
  406c86:	pop    edi
  406c87:	jo     0x406cfb
  406c89:	outs   dx,DWORD PTR ds:[esi]
  406c8a:	imul   bp,WORD PTR [ecx+ebp*2+0x6e],0x5467
  406c91:	jns    0x406d03
  406c93:	gs jae 0x406cd8
  406c96:	jns    0x406ce6
  406c98:	popa   
  406c99:	ins    DWORD PTR es:[edi],dx
  406c9a:	add    BYTE PTR gs:[edi+0x63],bl
  406c9e:	jne    0x406d12
  406ca0:	jb     0x406d07
  406ca2:	outs   dx,BYTE PTR ds:[esi]
  406ca3:	je     0x406cf9
  406ca5:	jns    0x406d17
  406ca7:	add    BYTE PTR gs:[edx+0x65],dl
  406cab:	jo     0x406d1c
  406cad:	jb     0x406d23
  406caf:	dec    ebp
  406cb0:	gs jae 0x406d26
  406cb3:	popa   
  406cb4:	add    BYTE PTR gs:[di+0x70],dl
  406cb9:	fs popa 
  406cbb:	je     0x406d22
  406cbd:	push   eax
  406cbe:	jb     0x406d2f
  406cc0:	addr16 jb 0x406d28
  406cc3:	jae    0x406d38
  406cc5:	add    BYTE PTR [ebx+0x74],dl
  406cc8:	popa   
  406cc9:	jb     0x406d3f
  406ccb:	push   eax
  406ccc:	jb     0x406d3d
  406cce:	addr16 jb 0x406d36
  406cd1:	jae    0x406d46
  406cd3:	add    BYTE PTR [edi+0x6b],cl
  406cd6:	add    BYTE PTR [ebx+0x6c],al
  406cd9:	outs   dx,DWORD PTR ds:[esi]
  406cda:	jae    0x406d41
  406cdc:	dec    eax
  406cdd:	popa   
  406cde:	outs   dx,BYTE PTR ds:[esi]
  406cdf:	fs ins BYTE PTR es:[edi],dx
  406ce1:	add    BYTE PTR gs:[ecx+0x45],cl
  406ce5:	dec    esp
  406ce6:	popa   
  406ce7:	jne    0x406d57
  406ce9:	arpl   WORD PTR [eax+0x55],bp
  406cec:	push   edx
  406ced:	dec    esp
  406cee:	add    BYTE PTR [ebx+0x79],dl
  406cf1:	jae    0x406d67
  406cf3:	gs ins DWORD PTR es:[edi],dx
  406cf5:	cs push esp
  406cf7:	gs js  0x406d6e
  406cfa:	add    BYTE PTR [ebx+0x74],dl
  406cfd:	jb     0x406d68
  406cff:	outs   dx,BYTE PTR ds:[esi]
  406d00:	addr16 inc edx
  406d02:	jne    0x406d6d
  406d04:	ins    BYTE PTR es:[edi],dx
  406d05:	fs gs jb 0x406d09
  406d09:	push   eax
  406d0a:	fs push 0x6b6f6f4c
  406d10:	jne    0x406d82
  406d12:	push   eax
  406d13:	gs jb  0x406d7c
  406d16:	dec    esi
  406d17:	popa   
  406d18:	ins    DWORD PTR es:[edi],dx
  406d19:	gs inc edx
  406d1b:	jns    0x406d66
  406d1d:	outs   dx,BYTE PTR ds:[esi]
  406d1e:	fs gs js 0x406d79
  406d22:	add    BYTE PTR [ebx+0x75],dl
  406d25:	arpl   WORD PTR [ebx+0x65],sp
  406d28:	gs fs gs add BYTE PTR fs:[eax+0x72],dl
  406d2f:	outs   dx,DWORD PTR ds:[esi]
  406d30:	arpl   WORD PTR [ebp+0x73],sp
  406d33:	jae    0x406d35
  406d35:	push   esp
  406d36:	push   0x64616572
  406d3b:	add    BYTE PTR [eax+0x72],dl
  406d3e:	outs   dx,DWORD PTR ds:[esi]
  406d3f:	arpl   WORD PTR [ebp+0x73],sp
  406d42:	jae    0x406d8d
  406d44:	add    BYTE PTR fs:[eax+ebp*2+0x72],dl
  406d49:	gs popa 
  406d4b:	fs dec ecx
  406d4d:	add    BYTE PTR fs:[esi+0x61],dh
  406d51:	ins    BYTE PTR es:[edi],dx
  406d52:	jne    0x406db9
  406d54:	add    BYTE PTR [ebp+0x65],ch
  406d57:	jae    0x406dcc
  406d59:	popa   
  406d5a:	addr16 gs push edx
  406d5d:	gs jo  0x406dcf
  406d60:	jb     0x406dd6
  406d62:	gs jb  0x406d65
  406d65:	ins    BYTE PTR es:[di],dx
  406d67:	outs   dx,DWORD PTR ds:[esi]
  406d68:	bound  esp,QWORD PTR [ecx+0x6c]
  406d6b:	dec    edi
  406d6c:	jo     0x406de2
  406d6e:	imul   ebp,DWORD PTR [edi+0x6e],0x6f670073
  406d75:	add    BYTE PTR [ecx+0x72],ah
  406d78:	addr16 jne 0x406de8
  406d7b:	outs   dx,BYTE PTR gs:[esi]
  406d7d:	je     0x406d7f
  406d7f:	popa   
  406d80:	jb     0x406de9
  406d82:	dec    edi
  406d83:	jo     0x406df9
  406d85:	imul   ebp,DWORD PTR [edi+0x6e],0x69727500
  406d8c:	add    BYTE PTR [ecx+0x73],ah
  406d8f:	jo     0x406de4
  406d91:	popa   
  406d92:	ins    DWORD PTR es:[edi],dx
  406d93:	jo     0x406e01
  406d95:	imul   ebp,DWORD PTR [esi+0x67],0x6974704f
  406d9c:	outs   dx,DWORD PTR ds:[esi]
  406d9d:	outs   dx,BYTE PTR ds:[esi]
  406d9e:	jae    0x406da0
  406da0:	outs   dx,DWORD PTR ds:[esi]
  406da1:	jo     0x406e17
  406da3:	imul   ebp,DWORD PTR [edi+0x6e],0x72750073
  406daa:	ins    BYTE PTR es:[edi],dx
  406dab:	add    BYTE PTR [edi+0x75],ch
  406dae:	je     0x406e20
  406db0:	jne    0x406e26
  406db2:	inc    esi
  406db3:	imul   ebp,DWORD PTR [ebp+eiz*2+0x0],0x73677261
  406dbb:	add    BYTE PTR [ebp+0x65],ch
  406dbe:	jae    0x406e33
  406dc0:	popa   
  406dc1:	addr16 gs push esp
  406dc4:	jns    0x406e36
  406dc6:	add    BYTE PTR gs:[ebp+0x65],ch
  406dca:	jae    0x406e3f
  406dcc:	popa   
  406dcd:	add    BYTE PTR gs:[bx+si+0x61],dh
  406dd2:	jb     0x406e35
  406dd4:	ins    DWORD PTR es:[edi],dx
  406dd5:	gs je  0x406e3d
  406dd8:	jb     0x406e4d
  406dda:	add    BYTE PTR [edi+ebp*2+0x74],dh
  406dde:	popa   
  406ddf:	ins    BYTE PTR es:[edi],dx
  406de0:	add    BYTE PTR [ebx+0x79],dl
  406de3:	jae    0x406e59
  406de5:	gs ins DWORD PTR es:[edi],dx
  406de7:	cs push edx
  406de9:	jne    0x406e59
  406deb:	je     0x406e56
  406ded:	ins    DWORD PTR es:[edi],dx
  406dee:	gs cs dec ecx
  406df1:	outs   dx,BYTE PTR ds:[esi]
  406df2:	je     0x406e59
  406df4:	jb     0x406e65
  406df6:	jo     0x406e4b
  406df8:	gs jb  0x406e71
  406dfb:	imul   esp,DWORD PTR [ebx+0x65],0x614d0073
  406e02:	jb     0x406e77
  406e04:	push   0x73416c61
  406e09:	inc    ecx
  406e0a:	je     0x406e80
  406e0c:	jb     0x406e77
  406e0e:	bound  esi,QWORD PTR [ebp+0x74]
  406e11:	add    BYTE PTR gs:[ebp+0x6e],dl
  406e15:	ins    DWORD PTR es:[edi],dx
  406e16:	popa   
  406e17:	outs   dx,BYTE PTR ds:[esi]
  406e18:	popa   
  406e19:	addr16 gs fs push esp
  406e1d:	jns    0x406e8f
  406e1f:	add    BYTE PTR gs:[edi+0x62],ch
  406e23:	push   0x0
  406e25:	jo     0x406e90
  406e27:	add    BYTE PTR [edi+0x75],cl
  406e2a:	je     0x406e6d
  406e2c:	je     0x406ea2
  406e2e:	jb     0x406e99
  406e30:	bound  esi,QWORD PTR [ebp+0x74]
  406e33:	add    BYTE PTR gs:[eax+0x4c],dh
  406e37:	popa   
  406e38:	jne    0x406ea8
  406e3a:	arpl   WORD PTR [eax+0x49],bp
  406e3d:	outs   dx,BYTE PTR ds:[esi]
  406e3e:	outs   dx,WORD PTR ds:[esi]
  406e40:	add    BYTE PTR [ebx+0x7a],dh
  406e43:	dec    ebp
  406e44:	popa   
  406e45:	arpl   WORD PTR [eax+0x69],bp
  406e48:	outs   dx,BYTE PTR ds:[esi]
  406e49:	gs dec esi
  406e4b:	popa   
  406e4c:	ins    DWORD PTR es:[edi],dx
  406e4d:	add    BYTE PTR gs:[edi+esi*2+0x4e],ah
  406e52:	popa   
  406e53:	ins    DWORD PTR es:[edi],dx
  406e54:	gs dec ecx
  406e56:	outs   dx,BYTE PTR ds:[esi]
  406e57:	fs gs js 0x406e5b
  406e5b:	jae    0x406ed7
  406e5d:	dec    esi
  406e5e:	popa   
  406e5f:	ins    DWORD PTR es:[edi],dx
  406e60:	gs inc edx
  406e62:	jne    0x406eca
  406e64:	data16 gs jb 0x406e68
  406e68:	jo     0x406ecd
  406e6a:	arpl   WORD PTR [eax+0x4e],bp
  406e6d:	popa   
  406e6e:	ins    DWORD PTR es:[edi],dx
  406e6f:	gs inc edx
  406e71:	jne    0x406ed9
  406e73:	data16 gs jb 0x406eca
  406e77:	imul   edi,DWORD PTR [edx+0x65],0x726800
  406e7e:	push   ebx
  406e7f:	jns    0x406ef4
  406e81:	je     0x406ee8
  406e83:	ins    DWORD PTR es:[edi],dx
  406e84:	cs push edx
  406e86:	jne    0x406ef6
  406e88:	je     0x406ef3
  406e8a:	ins    DWORD PTR es:[edi],dx
  406e8b:	gs cs push esi
  406e8e:	gs jb  0x406f04
  406e91:	imul   ebp,DWORD PTR [edi+0x6e],0x676e69
  406e98:	push   esp
  406e99:	popa   
  406e9a:	jb     0x406f03
  406e9c:	gs je  0x406ee5
  406e9f:	jb     0x406f02
  406ea1:	ins    DWORD PTR es:[edi],dx
  406ea2:	gs ja  0x406f14
  406ea5:	jb     0x406f12
  406ea7:	inc    ecx
  406ea8:	je     0x406f1e
  406eaa:	jb     0x406f15
  406eac:	bound  esi,QWORD PTR [ebp+0x74]
  406eaf:	add    BYTE PTR gs:[ebx+0x6f],al
  406eb3:	ins    DWORD PTR es:[edi],dx
  406eb4:	push   esi
  406eb5:	imul   esi,DWORD PTR [ebx+0x69],0x41656c62
  406ebc:	je     0x406f32
  406ebe:	jb     0x406f29
  406ec0:	bound  esi,QWORD PTR [ebp+0x74]
  406ec3:	add    BYTE PTR gs:[ebx+0x4c],al
  406ec7:	push   ebx
  406ec8:	inc    ebx
  406ec9:	outs   dx,DWORD PTR ds:[esi]
  406eca:	ins    DWORD PTR es:[edi],dx
  406ecb:	jo     0x406f39
  406ecd:	imul   esp,DWORD PTR [ecx+0x6e],0x74744174
  406ed4:	jb     0x406f3f
  406ed6:	bound  esi,QWORD PTR [ebp+0x74]
  406ed9:	add    BYTE PTR gs:[ebx+0x79],dl
  406edd:	jae    0x406f53
  406edf:	gs ins DWORD PTR es:[edi],dx
  406ee1:	cs push edx
  406ee3:	gs data16 ins BYTE PTR es:[edi],dx
  406ee6:	arpl   WORD PTR gs:[ecx+ebp*2+0x6f],si
  406eeb:	outs   dx,BYTE PTR ds:[esi]
  406eec:	add    BYTE PTR [ecx+0x73],al
  406eef:	jae    0x406f56
  406ef1:	ins    DWORD PTR es:[edi],dx
  406ef2:	bound  ebp,QWORD PTR [ecx+edi*2+0x54]
  406ef6:	imul   esi,DWORD PTR [esp+ebp*2+0x65],0x72747441
  406efe:	imul   esp,DWORD PTR [edx+0x75],0x41006574
  406f05:	jae    0x406f7a
  406f07:	gs ins DWORD PTR es:[edi],dx
  406f09:	bound  ebp,QWORD PTR [ecx+edi*2+0x44]
  406f0d:	gs jae 0x406f73
  406f10:	jb     0x406f7b
  406f12:	jo     0x406f88
  406f14:	imul   ebp,DWORD PTR [edi+0x6e],0x72747441
  406f1b:	imul   esp,DWORD PTR [edx+0x75],0x41006574
  406f22:	jae    0x406f97
  406f24:	gs ins DWORD PTR es:[edi],dx
  406f26:	bound  ebp,QWORD PTR [ecx+edi*2+0x44]
  406f2a:	gs popaw 
  406f2d:	jne    0x406f9b
  406f2f:	je     0x406f72
  406f31:	ins    BYTE PTR es:[edi],dx
  406f32:	imul   esp,DWORD PTR [ecx+0x73],0x72747441
  406f39:	imul   esp,DWORD PTR [edx+0x75],0x41006574
  406f40:	jae    0x406fb5
  406f42:	gs ins DWORD PTR es:[edi],dx
  406f44:	bound  ebp,QWORD PTR [ecx+edi*2+0x43]
  406f48:	outs   dx,DWORD PTR ds:[esi]
  406f49:	ins    DWORD PTR es:[edi],dx
  406f4a:	jo     0x406fad
  406f4c:	outs   dx,BYTE PTR ds:[esi]
  406f4d:	jns    0x406f90
  406f4f:	je     0x406fc5
  406f51:	jb     0x406fbc
  406f53:	bound  esi,QWORD PTR [ebp+0x74]
  406f56:	add    BYTE PTR gs:[ecx+0x73],al
  406f5a:	jae    0x406fc1
  406f5c:	ins    DWORD PTR es:[edi],dx
  406f5d:	bound  ebp,QWORD PTR [ecx+edi*2+0x50]
  406f61:	jb     0x406fd2
  406f63:	fs jne 0x406fc9
  406f66:	je     0x406fa9
  406f68:	je     0x406fde
  406f6a:	jb     0x406fd5
  406f6c:	bound  esi,QWORD PTR [ebp+0x74]
  406f6f:	add    BYTE PTR gs:[ecx+0x73],al
  406f73:	jae    0x406fda
  406f75:	ins    DWORD PTR es:[edi],dx
  406f76:	bound  ebp,QWORD PTR [ecx+edi*2+0x43]
  406f7a:	outs   dx,DWORD PTR ds:[esi]
  406f7b:	jo     0x406ff6
  406f7d:	jb     0x406fe8
  406f7f:	addr16 push 0x74744174
  406f85:	jb     0x406ff0
  406f87:	bound  esi,QWORD PTR [ebp+0x74]
  406f8a:	add    BYTE PTR gs:[ecx+0x73],al
  406f8e:	jae    0x406ff5
  406f90:	ins    DWORD PTR es:[edi],dx
  406f91:	bound  ebp,QWORD PTR [ecx+edi*2+0x56]
  406f95:	gs jb  0x40700b
  406f98:	imul   ebp,DWORD PTR [edi+0x6e],0x72747441
  406f9f:	imul   esp,DWORD PTR [edx+0x75],0x41006574
  406fa6:	jae    0x40701b
  406fa8:	gs ins DWORD PTR es:[edi],dx
  406faa:	bound  ebp,QWORD PTR [ecx+edi*2+0x46]
  406fae:	imul   ebp,DWORD PTR [ebp+eiz*2+0x56],0x69737265
  406fb6:	outs   dx,DWORD PTR ds:[esi]
  406fb7:	outs   dx,BYTE PTR ds:[esi]
  406fb8:	inc    ecx
  406fb9:	je     0x40702f
  406fbb:	jb     0x407026
  406fbd:	bound  esi,QWORD PTR [ebp+0x74]
  406fc0:	add    BYTE PTR gs:[ecx+0x73],al
  406fc4:	jae    0x40702b
  406fc6:	ins    DWORD PTR es:[edi],dx
  406fc7:	bound  ebp,QWORD PTR [ecx+edi*2+0x49]
  406fcb:	outs   dx,BYTE PTR ds:[esi]
  406fcc:	outs   dx,WORD PTR ds:[esi]
  406fce:	jb     0x40703d
  406fd0:	popa   
  406fd1:	je     0x40703c
  406fd3:	outs   dx,DWORD PTR ds:[esi]
  406fd4:	outs   dx,BYTE PTR ds:[esi]
  406fd5:	popa   
  406fd6:	ins    BYTE PTR es:[edi],dx
  406fd7:	push   esi
  406fd8:	gs jb  0x40704e
  406fdb:	imul   ebp,DWORD PTR [edi+0x6e],0x72747441
  406fe2:	imul   esp,DWORD PTR [edx+0x75],0x53006574
  406fe9:	popa   
  406fea:	je     0x407051
  406fec:	ins    BYTE PTR es:[edi],dx
  406fed:	ins    BYTE PTR es:[edi],dx
  406fee:	imul   esi,DWORD PTR [ebp+eiz*2+0x43],0x72746e6f
  406ff6:	popa   
  406ff7:	arpl   WORD PTR [esi+edx*2+0x65],si
  406ffb:	jb     0x407070
  406ffd:	imul   ebp,DWORD PTR [edi+0x6e],0x72747441
  407004:	imul   esp,DWORD PTR [edx+0x75],0x4e006574
  40700b:	gs jne 0x407082
  40700e:	jb     0x407071
  407010:	ins    BYTE PTR es:[edi],dx
  407011:	push   edx
  407012:	gs jae 0x407084
  407015:	jne    0x407089
  407017:	arpl   WORD PTR [ebp+0x73],sp
  40701a:	dec    esp
  40701b:	popa   
  40701c:	outs   dx,BYTE PTR ds:[esi]
  40701d:	addr16 jne 0x407081
  407020:	addr16 gs inc ecx
  407023:	je     0x407099
  407025:	jb     0x407090
  407027:	bound  esi,QWORD PTR [ebp+0x74]
  40702a:	add    BYTE PTR gs:[ecx+0x73],al
  40702e:	jae    0x407095
  407030:	ins    DWORD PTR es:[edi],dx
  407031:	bound  ebp,QWORD PTR [ecx+edi*2+0x44]
  407035:	gs ins BYTE PTR es:[edi],dx
  407037:	popa   
  407038:	jns    0x40708d
  40703a:	imul   esp,DWORD PTR [edi+0x6e],0x72747441
  407041:	imul   esp,DWORD PTR [edx+0x75],0x41006574
  407048:	jae    0x4070bd
  40704a:	gs ins DWORD PTR es:[edi],dx
  40704c:	bound  ebp,QWORD PTR [ecx+edi*2+0x4b]
  407050:	gs jns 0x407099
  407053:	imul   ebp,DWORD PTR [ebp+eiz*2+0x41],0x69727474
  40705b:	bound  esi,QWORD PTR [ebp+0x74]
  40705e:	add    BYTE PTR gs:[ebx+0x79],dl
  407062:	jae    0x4070d8
  407064:	gs ins DWORD PTR es:[edi],dx
  407066:	cs push edx
  407068:	jne    0x4070d8
  40706a:	je     0x4070d5
  40706c:	ins    DWORD PTR es:[edi],dx
  40706d:	gs cs inc ebx
  407070:	outs   dx,DWORD PTR ds:[esi]
  407071:	ins    DWORD PTR es:[edi],dx
  407072:	jo     0x4070dd
  407074:	ins    BYTE PTR es:[edi],dx
  407075:	gs jb  0x4070cb
  407078:	gs jb  0x4070f1
  40707b:	imul   esp,DWORD PTR [ebx+0x65],0x75520073
  407082:	outs   dx,BYTE PTR ds:[esi]
  407083:	je     0x4070ee
  407085:	ins    DWORD PTR es:[edi],dx
  407086:	gs inc ebx
  407088:	outs   dx,DWORD PTR ds:[esi]
  407089:	ins    DWORD PTR es:[edi],dx
  40708a:	jo     0x4070ed
  40708c:	je     0x4070f7
  40708e:	bound  ebp,QWORD PTR [ecx+0x6c]
  407091:	imul   esi,DWORD PTR [ecx+edi*2+0x41],0x69727474
  407099:	bound  esi,QWORD PTR [ebp+0x74]
  40709c:	add    BYTE PTR gs:[ebx+0x79],dl
  4070a0:	jae    0x407116
  4070a2:	gs ins DWORD PTR es:[edi],dx
  4070a4:	cs inc esp
  4070a6:	imul   esp,DWORD PTR [ecx+0x67],0x74736f6e
  4070ad:	imul   esp,DWORD PTR [ebx+0x73],0x62654400
  4070b4:	jne    0x40711d
  4070b6:	addr16 popa 
  4070b8:	bound  ebp,QWORD PTR [ebp+eiz*2+0x41]
  4070bc:	je     0x407132
  4070be:	jb     0x407129
  4070c0:	bound  esi,QWORD PTR [ebp+0x74]
  4070c3:	add    BYTE PTR gs:[ebp+eiz*2+0x62],al
  4070c8:	jne    0x407131
  4070ca:	imul   ebp,DWORD PTR [bp+0x67],0x65646f4d
  4070d2:	jae    0x4070d4
  4070d4:	inc    ebx
  4070d5:	outs   dx,DWORD PTR ds:[esi]
  4070d6:	ins    DWORD PTR es:[edi],dx
  4070d7:	jo     0x407142
  4070d9:	ins    BYTE PTR es:[edi],dx
  4070da:	popa   
  4070db:	je     0x407146
  4070dd:	outs   dx,DWORD PTR ds:[esi]
  4070de:	outs   dx,BYTE PTR ds:[esi]
  4070df:	push   edx
  4070e0:	gs ins BYTE PTR es:[edi],dx
  4070e2:	popa   
  4070e3:	js     0x407146
  4070e5:	je     0x407150
  4070e7:	outs   dx,DWORD PTR ds:[esi]
  4070e8:	outs   dx,BYTE PTR ds:[esi]
  4070e9:	jae    0x40712c
  4070eb:	je     0x407161
  4070ed:	jb     0x407158
  4070ef:	bound  esi,QWORD PTR [ebp+0x74]
  4070f2:	add    BYTE PTR gs:[esi+0x53],dl
  4070f6:	push   eax
  4070f7:	gs jb  0x407160
  4070fa:	inc    ecx
  4070fb:	jae    0x40716d
  4070fd:	dec    esi
  4070fe:	gs je  0x407144
  407101:	ins    DWORD PTR es:[edi],dx
  407102:	add    BYTE PTR fs:[ebx+0x79],dl
  407106:	jae    0x40717c
  407108:	gs ins DWORD PTR es:[edi],dx
  40710a:	cs inc ebx
  40710c:	outs   dx,DWORD PTR ds:[esi]
  40710d:	fs gs inc esp
  407110:	outs   dx,DWORD PTR ds:[esi]
  407111:	ins    DWORD PTR es:[edi],dx
  407112:	cs inc ebx
  407114:	outs   dx,DWORD PTR ds:[esi]
  407115:	ins    DWORD PTR es:[edi],dx
  407116:	jo     0x407181
  407118:	ins    BYTE PTR es:[edi],dx
  407119:	gs jb  0x40711c
  40711c:	inc    edi
  40711d:	outs   dx,BYTE PTR gs:[esi]
  40711f:	gs jb  0x407183
  407122:	je     0x407189
  407124:	fs inc ebx
  407126:	outs   dx,DWORD PTR ds:[esi]
  407127:	fs gs inc ecx
  40712a:	je     0x4071a0
  40712c:	jb     0x407197
  40712e:	bound  esi,QWORD PTR [ebp+0x74]
  407131:	add    BYTE PTR gs:[ebp+eiz*2+0x62],al
  407136:	jne    0x40719f
  407138:	addr16 gs jb 0x40718a
  40713c:	outs   dx,DWORD PTR ds:[esi]
  40713d:	outs   dx,BYTE PTR ds:[esi]
  40713e:	push   ebp
  40713f:	jae    0x4071a6
  407141:	jb     0x407186
  407143:	outs   dx,DWORD PTR ds:[esi]
  407144:	fs gs inc ecx
  407147:	je     0x4071bd
  407149:	jb     0x4071b4
  40714b:	bound  esi,QWORD PTR [ebp+0x74]
  40714e:	add    BYTE PTR gs:[ebx+0x6f],al
  407152:	ins    DWORD PTR es:[edi],dx
  407153:	jo     0x4071be
  407155:	ins    BYTE PTR es:[edi],dx
  407156:	gs jb  0x4071a0
  407159:	outs   dx,BYTE PTR gs:[esi]
  40715b:	gs jb  0x4071bf
  40715e:	je     0x4071c5
  407160:	fs inc ecx
  407162:	je     0x4071d8
  407164:	jb     0x4071cf
  407166:	bound  esi,QWORD PTR [ebp+0x74]
  407169:	add    BYTE PTR gs:[edx+0x65],dl
  40716d:	data16 gs jb 0x4071d6
  407171:	outs   dx,BYTE PTR ds:[esi]
  407172:	arpl   WORD PTR [ebp+0x45],sp
  407175:	jno    0x4071ec
  407177:	popa   
  407178:	ins    BYTE PTR es:[edi],dx
  407179:	jae    0x40717b
  40717b:	push   esp
  40717c:	jns    0x4071ee
  40717e:	add    BYTE PTR gs:[edx+0x75],dl
  407182:	outs   dx,BYTE PTR ds:[esi]
  407183:	je     0x4071ee
  407185:	ins    DWORD PTR es:[edi],dx
  407186:	gs push esp
  407188:	jns    0x4071fa
  40718a:	gs dec eax
  40718c:	popa   
  40718d:	outs   dx,BYTE PTR ds:[esi]
  40718e:	fs ins BYTE PTR es:[edi],dx
  407190:	add    BYTE PTR gs:[edi+0x65],al
  407194:	je     0x4071ea
  407196:	jns    0x407208
  407198:	gs inc esi
  40719a:	jb     0x40720b
  40719c:	ins    DWORD PTR es:[edi],dx
  40719d:	dec    eax
  40719e:	popa   
  40719f:	outs   dx,BYTE PTR ds:[esi]
  4071a0:	fs ins BYTE PTR es:[edi],dx
  4071a2:	add    BYTE PTR gs:[ecx+0x73],al
  4071a6:	jae    0x40720d
  4071a8:	ins    DWORD PTR es:[edi],dx
  4071a9:	bound  ebp,QWORD PTR [ecx+edi*2+0x0]
  4071ad:	addr16 gs je 0x407210
  4071b1:	inc    ecx
  4071b2:	jae    0x407227
  4071b4:	gs ins DWORD PTR es:[edi],dx
  4071b6:	bound  ebp,QWORD PTR [ecx+edi*2+0x0]
  4071ba:	inc    edi
  4071bb:	gs je  0x407211
  4071be:	je     0x407232
  4071c0:	imul   ebp,DWORD PTR [esi+0x67],0x73795300
  4071c7:	je     0x40722e
  4071c9:	ins    DWORD PTR es:[edi],dx
  4071ca:	cs inc ebx
  4071cc:	outs   dx,DWORD PTR ds:[esi]
  4071cd:	ins    DWORD PTR es:[edi],dx
  4071ce:	jo     0x40723f
  4071d0:	outs   dx,BYTE PTR ds:[esi]
  4071d1:	outs   dx,BYTE PTR gs:[esi]
  4071d3:	je     0x407222
  4071d5:	outs   dx,DWORD PTR ds:[esi]
  4071d6:	fs gs ins BYTE PTR es:[edi],dx
  4071d9:	add    BYTE PTR [ebp+0x64],al
  4071dc:	imul   esi,DWORD PTR [edi+ebp*2+0x72],0x776f7242
  4071e4:	jae    0x407247
  4071e6:	bound  ebp,QWORD PTR [ebp+eiz*2+0x41]
  4071ea:	je     0x407260
  4071ec:	jb     0x407257
  4071ee:	bound  esi,QWORD PTR [ebp+0x74]
  4071f1:	add    BYTE PTR gs:[ebp+0x64],al
  4071f5:	imul   esi,DWORD PTR [edi+ebp*2+0x72],0x776f7242
  4071fd:	jae    0x407260
  4071ff:	bound  ebp,QWORD PTR [ebp+eiz*2+0x53]
  407203:	je     0x407266
  407205:	je     0x40726c
  407207:	add    BYTE PTR [ebx+0x74],dl
  40720a:	jb     0x407275
  40720c:	outs   dx,BYTE PTR ds:[esi]
  40720d:	add    BYTE PTR [bx+di+0x73],cl
  407211:	dec    esi
  407212:	jne    0x407280
  407214:	ins    BYTE PTR es:[edi],dx
  407215:	dec    edi
  407216:	jb     0x40725d
  407218:	ins    DWORD PTR es:[edi],dx
  407219:	jo     0x40728f
  40721b:	jns    0x40721d
  40721d:	addr16 gs je 0x407280
  407221:	push   ebx
  407222:	push   0x6f647475
  407227:	ja     0x407297
  407229:	add    BYTE PTR [edi+0x70],ch
  40722c:	pop    edi
  40722d:	inc    ebp
  40722e:	jno    0x4072a5
  407230:	popa   
  407231:	ins    BYTE PTR es:[edi],dx
  407232:	imul   esi,DWORD PTR [ecx+edi*2+0x0],0x636e6f43
  40723a:	popa   
  40723b:	je     0x40723d
  40723d:	inc    ebx
  40723e:	jb     0x4072a5
  407240:	popa   
  407241:	je     0x4072a8
  407243:	add    BYTE PTR [ecx+0x73],al
  407246:	jo     0x407296
  407248:	gs je  0x407293
  40724b:	gs ins BYTE PTR es:[edi],dx
  40724d:	jo     0x4072b4
  40724f:	jb     0x407296
  407251:	js     0x4072b6
  407253:	gs jo  0x4072ca
  407256:	imul   ebp,DWORD PTR [edi+0x6e],0x74654700
  40725d:	push   esi
  40725e:	popa   
  40725f:	ins    BYTE PTR es:[edi],dx
  407260:	jne    0x4072c7
  407262:	add    BYTE PTR [edi+ebp*2+0x53],dl
  407266:	je     0x4072da
  407268:	imul   ebp,DWORD PTR [esi+0x67],0x6f725000
  40726f:	imul   bp,WORD PTR [ecx+ebp*2+0x6e],0x4d67
  407276:	outs   dx,DWORD PTR ds:[esi]
  407277:	fs add BYTE PTR gs:[ebx+0x65],dh
  40727c:	je     0x4072dd
  40727e:	push   eax
  40727f:	jb     0x4072f0
  407281:	imul   bp,WORD PTR [ecx+ebp*2+0x6e],0x4d67
  407288:	outs   dx,DWORD PTR ds:[esi]
  407289:	fs add BYTE PTR gs:[ebx+0x65],dh
  40728e:	je     0x4072ef
  407290:	dec    edi
  407291:	jne    0x407307
  407293:	jo     0x40730a
  407295:	je     0x4072dd
  407297:	imul   ebp,DWORD PTR [ebp+eiz*2+0x0],0x74706d45
  40729f:	jns    0x4072a1
  4072a1:	push   ebx
  4072a2:	gs je  0x4072fb
  4072a5:	popa   
  4072a6:	ins    BYTE PTR es:[edi],dx
  4072a7:	jne    0x40730e
  4072a9:	add    BYTE PTR [edi+0x65],ah
  4072ac:	je     0x40730d
  4072ae:	dec    edi
  4072af:	jne    0x407325
  4072b1:	jo     0x407328
  4072b3:	je     0x4072fb
  4072b5:	imul   ebp,DWORD PTR [ebp+eiz*2+0x0],0x5f746567
  4072bd:	push   eax
  4072be:	jb     0x40732f
  4072c0:	imul   bp,WORD PTR [ecx+ebp*2+0x6e],0x4d67
  4072c7:	outs   dx,DWORD PTR ds:[esi]
  4072c8:	fs add BYTE PTR gs:[ebp+0x72],dl
  4072cd:	imul   ecx,DWORD PTR [ebx+0x69],0x4900646e
  4072d4:	jae    0x40732d
  4072d6:	gs ins BYTE PTR es:[edi],dx
  4072d8:	ins    BYTE PTR es:[edi],dx
  4072d9:	inc    esi
  4072da:	outs   dx,DWORD PTR ds:[esi]
  4072db:	jb     0x40734a
  4072dd:	gs fs push ebp
  4072e0:	jb     0x40734b
  4072e2:	push   ebx
  4072e3:	je     0x407357
  4072e5:	imul   ebp,DWORD PTR [esi+0x67],0x74656700
  4072ec:	pop    edi
  4072ed:	push   ebx
  4072ee:	arpl   WORD PTR [eax+0x65],bp
  4072f1:	ins    DWORD PTR es:[edi],dx
  4072f2:	add    BYTE PTR gs:[ebp+0x72],dl
  4072f6:	imul   edx,DWORD PTR [ebx+0x63],0x656d6568
  4072fd:	dec    eax
  4072fe:	je     0x407374
  407300:	jo     0x407302
  407302:	outs   dx,DWORD PTR ds:[esi]
  407303:	jo     0x407364
  407305:	dec    ecx
  407306:	outs   dx,BYTE PTR ds:[esi]
  407307:	gs jno 0x40737f
  40730a:	popa   
  40730b:	ins    BYTE PTR es:[edi],dx
  40730c:	imul   esi,DWORD PTR [ecx+edi*2+0x0],0x53697255
  407314:	arpl   WORD PTR [eax+0x65],bp
  407317:	ins    DWORD PTR es:[edi],dx
  407318:	gs dec eax
  40731a:	je     0x407390
  40731c:	jo     0x407391
  40731e:	add    BYTE PTR [ebp+0x72],dl
  407321:	imul   edx,DWORD PTR [ebx+0x63],0x656d6568
  407328:	inc    esi
  407329:	imul   ebp,DWORD PTR [ebp+eiz*2+0x0],0x5f746567
  407331:	dec    ecx
  407332:	jae    0x40738b
  407334:	imul   ebp,DWORD PTR [esi+0x33],0x6e490032
  40733b:	imul   esi,DWORD PTR [ecx+ebp*2+0x61],0x657a696c
  407343:	inc    esp
  407344:	gs popaw 
  407347:	jne    0x4073b5
  407349:	je     0x4073be
  40734b:	add    BYTE PTR [ecx+0x73],al
  40734e:	jo     0x4073a0
  407350:	gs jb  0x4073b9
  407353:	outs   dx,DWORD PTR ds:[esi]
  407354:	jb     0x4073c3
  407356:	popa   
  407357:	outs   dx,BYTE PTR ds:[esi]
  407358:	arpl   WORD PTR [ebp+0x49],sp
  40735b:	outs   dx,BYTE PTR ds:[esi]
  40735c:	jae    0x4073d2
  40735e:	jb     0x4073d5
  407360:	ins    DWORD PTR es:[edi],dx
  407361:	outs   dx,BYTE PTR gs:[esi]
  407363:	je     0x4073ca
  407365:	jb     0x407367
  407367:	push   ebx
  407368:	gs je  0x4073e0
  40736b:	jo     0x4073b6
  40736d:	outs   dx,BYTE PTR ds:[esi]
  40736e:	jae    0x4073e4
  407370:	jb     0x4073e7
  407372:	ins    DWORD PTR es:[edi],dx
  407373:	outs   dx,BYTE PTR gs:[esi]
  407375:	je     0x407377
  407377:	inc    ebp
  407378:	js     0x4073dd
  40737a:	gs jo  0x4073f1
  40737d:	imul   ebp,DWORD PTR [edi+0x6e],0x74656700
  407384:	pop    edi
  407385:	dec    ebp
  407386:	gs jae 0x4073fc
  407389:	popa   
  40738a:	add    BYTE PTR gs:[bx+0x65],ah
  40738f:	je     0x4073f0
  407391:	dec    esi
  407392:	outs   dx,DWORD PTR ds:[esi]
  407393:	ja     0x4073f6
  407395:	imul   esi,DWORD PTR [eax+eax*1+0x43],0x78454d4f
  40739d:	arpl   WORD PTR [ebp+0x70],sp
  4073a0:	je     0x40740b
  4073a2:	outs   dx,DWORD PTR ds:[esi]
  4073a3:	outs   dx,BYTE PTR ds:[esi]
  4073a4:	add    BYTE PTR [edi+0x65],ah
  4073a7:	je     0x407408
  4073a9:	push   eax
  4073aa:	popa   
  4073ab:	arpl   WORD PTR [ebx+0x73],bp
  4073ae:	jns    0x40741d
  4073b0:	bound  ebp,QWORD PTR [edi+0x6c]
  4073b3:	jae    0x4073b5
  4073b5:	jae    0x40741c
  4073b7:	je     0x407418
  4073b9:	push   eax
  4073ba:	popa   
  4073bb:	arpl   WORD PTR [ebx+0x73],bp
  4073be:	jns    0x40742d
  4073c0:	bound  ebp,QWORD PTR [edi+0x6c]
  4073c3:	jae    0x4073c5
  4073c5:	inc    edi
  4073c6:	gs je  0x40740e
  4073c9:	js     0x407430
  4073cb:	arpl   WORD PTR [ebp+0x74],si
  4073ce:	imul   ebp,DWORD PTR [esi+0x67],0x65737341
  4073d5:	ins    DWORD PTR es:[edi],dx
  4073d6:	bound  ebp,QWORD PTR [ecx+edi*2+0x0]
  4073da:	addr16 gs je 0x40743d
  4073de:	dec    esp
  4073df:	outs   dx,DWORD PTR ds:[esi]
  4073e0:	arpl   WORD PTR [ecx+0x74],sp
  4073e3:	imul   ebp,DWORD PTR [edi+0x6e],0x73795300
  4073ea:	je     0x407451
  4073ec:	ins    DWORD PTR es:[edi],dx
  4073ed:	cs dec ecx
  4073ef:	dec    edi
  4073f0:	add    BYTE PTR [eax+0x61],dl
  4073f3:	je     0x40745d
  4073f5:	add    BYTE PTR [edi+0x65],al
  4073f8:	je     0x40743e
  4073fa:	imul   esi,DWORD PTR [edx+0x65],0x726f7463
  407401:	jns    0x407451
  407403:	popa   
  407404:	ins    DWORD PTR es:[edi],dx
  407405:	add    BYTE PTR gs:[eax+0x72],dl
  407409:	outs   dx,DWORD PTR ds:[esi]
  40740a:	arpl   WORD PTR [ebp+0x73],sp
  40740d:	jae    0x407462
  40740f:	je     0x407472
  407411:	jb     0x407487
  407413:	dec    ecx
  407414:	outs   dx,BYTE PTR ds:[esi]
  407415:	outs   dx,WORD PTR ds:[esi]
  407417:	add    BYTE PTR [ebx+0x65],dh
  40741a:	je     0x40747b
  40741c:	push   ebx
  40741d:	je     0x407480
  40741f:	jb     0x407495
  407421:	dec    ecx
  407422:	outs   dx,BYTE PTR ds:[esi]
  407423:	outs   dx,WORD PTR ds:[esi]
  407425:	add    BYTE PTR [ebx+0x74],dl
  407428:	popa   
  407429:	jb     0x40749f
  40742b:	add    BYTE PTR [edi+0x61],dl
  40742e:	imul   esi,DWORD PTR [esi+eax*2+0x6f],0x69784572
  407436:	je     0x407438
  407438:	jae    0x40749f
  40743a:	je     0x40749b
  40743c:	dec    ecx
  40743d:	je     0x4074a4
  40743f:	ins    DWORD PTR es:[edi],dx
  407440:	add    BYTE PTR [edi+0x65],ah
  407443:	je     0x4074a4
  407445:	push   esp
  407446:	imul   esi,DWORD PTR [eax+0x0],0x6f6d654d
  40744d:	jb     0x4074c8
  40744f:	inc    ebx
  407450:	outs   dx,DWORD PTR ds:[esi]
  407451:	ins    BYTE PTR es:[edi],dx
  407452:	ins    BYTE PTR es:[edi],dx
  407453:	arpl   WORD PTR gs:[ecx+ebp*2+0x6f],si
  407458:	outs   dx,BYTE PTR ds:[esi]
  407459:	dec    ebp
  40745a:	outs   dx,DWORD PTR ds:[esi]
  40745b:	fs add BYTE PTR gs:[edi+0x65],ah
  407460:	je     0x4074c1
  407462:	inc    ebx
  407463:	outs   dx,DWORD PTR ds:[esi]
  407464:	ins    BYTE PTR es:[edi],dx
  407465:	ins    BYTE PTR es:[edi],dx
  407466:	arpl   WORD PTR gs:[ebp+ecx*2+0x65],si
  40746b:	ins    DWORD PTR es:[edi],dx
  40746c:	outs   dx,DWORD PTR ds:[esi]
  40746d:	jb     0x4074e8
  40746f:	add    BYTE PTR [edi+0x65],ah
  407472:	je     0x4074d3
  407474:	dec    ecx
  407475:	outs   dx,BYTE PTR ds:[esi]
  407476:	jbe    0x4074d9
  407478:	jb     0x4074e3
  40747a:	popa   
  40747b:	outs   dx,BYTE PTR ds:[esi]
  40747c:	je     0x4074c1
  40747e:	jne    0x4074ec
  407480:	je     0x4074f7
  407482:	jb     0x4074e9
  407484:	add    BYTE PTR [ecx+0x6e],cl
  407487:	je     0x4074bc
  407489:	xor    al,BYTE PTR [eax]
  40748b:	dec    ecx
  40748c:	inc    esi
  40748d:	outs   dx,DWORD PTR ds:[esi]
  40748e:	jb     0x4074fd
  407490:	popa   
  407491:	je     0x4074e3
  407493:	jb     0x407504
  407495:	jbe    0x407500
  407497:	fs gs jb 0x40749b
  40749b:	dec    ebx
  40749c:	gs jns 0x4074e2
  40749f:	outs   dx,DWORD PTR ds:[esi]
  4074a0:	ins    BYTE PTR es:[edi],dx
  4074a1:	ins    BYTE PTR es:[edi],dx
  4074a2:	arpl   WORD PTR gs:[ecx+ebp*2+0x6f],si
  4074a7:	outs   dx,BYTE PTR ds:[esi]
  4074a8:	add    BYTE PTR [edi+0x65],ah
  4074ab:	je     0x40750c
  4074ad:	dec    ebx
  4074ae:	gs jns 0x407524
  4074b1:	add    BYTE PTR [edi+0x65],ah
  4074b4:	je     0x407515
  4074b6:	inc    ebx
  4074b7:	outs   dx,DWORD PTR ds:[esi]
  4074b8:	jne    0x407528
  4074ba:	je     0x4074bc
  4074bc:	inc    ebx
  4074bd:	outs   dx,DWORD PTR ds:[esi]
  4074be:	jo     0x407539
  4074c0:	push   esp
  4074c1:	outs   dx,DWORD PTR ds:[esi]
  4074c2:	add    BYTE PTR [esi+0x61],dl
  4074c5:	ins    BYTE PTR es:[edi],dx
  4074c6:	jne    0x40752d
  4074c8:	inc    ebx
  4074c9:	outs   dx,DWORD PTR ds:[esi]
  4074ca:	ins    BYTE PTR es:[edi],dx
  4074cb:	ins    BYTE PTR es:[edi],dx
  4074cc:	arpl   WORD PTR gs:[ecx+ebp*2+0x6f],si
  4074d1:	outs   dx,BYTE PTR ds:[esi]
  4074d2:	add    BYTE PTR [edi+0x65],ah
  4074d5:	je     0x407536
  4074d7:	push   esi
  4074d8:	popa   
  4074d9:	ins    BYTE PTR es:[edi],dx
  4074da:	jne    0x407541
  4074dc:	jae    0x4074de
  4074de:	push   eax
  4074df:	jne    0x407554
  4074e1:	push   0x76726553
  4074e6:	imul   esp,DWORD PTR [ebx+0x65],0x73726156
  4074ed:	add    BYTE PTR [ebx+0x6c],al
  4074f0:	gs popa 
  4074f2:	jb     0x407547
  4074f4:	gs jb  0x40756d
  4074f7:	imul   esp,DWORD PTR [ebx+0x65],0x73726156
  4074fe:	add    BYTE PTR [ebx+0x68],dl
  407501:	jne    0x407577
  407503:	outs   dx,DWORD PTR fs:[esi]
  407505:	ja     0x407575
  407507:	inc    esi
  407508:	jb     0x40756f
  40750a:	gs jp  0x407572
  40750d:	add    BYTE PTR [ebx+0x6c],al
  407510:	gs popa 
  407512:	outs   dx,BYTE PTR ds:[esi]
  407513:	jne    0x407585
  407515:	dec    ecx
  407516:	outs   dx,BYTE PTR ds:[esi]
  407517:	jae    0x40758d
  407519:	jb     0x407590
  40751b:	ins    DWORD PTR es:[edi],dx
  40751c:	outs   dx,BYTE PTR gs:[esi]
  40751e:	je     0x407520
  407520:	dec    esp
  407521:	popa   
  407522:	jne    0x407592
  407524:	arpl   WORD PTR [eax+0x52],bp
  407527:	gs jae 0x40758f
  40752a:	je     0x40752c
  40752c:	addr16 gs je 0x40758f
  407530:	push   edi
  407531:	outs   dx,DWORD PTR ds:[esi]
  407532:	jb     0x40759f
  407534:	gs jb  0x407587
  407537:	jb     0x4075a8
  407539:	arpl   WORD PTR [ebp+0x73],sp
  40753c:	jae    0x407587
  40753e:	add    BYTE PTR fs:[edi+0x65],ah
  407542:	je     0x4075a3
  407544:	push   edi
  407545:	outs   dx,DWORD PTR ds:[esi]
  407546:	jb     0x4075b3
  407548:	gs jb  0x40759b
  40754b:	jb     0x4075bc
  40754d:	arpl   WORD PTR [ebp+0x73],sp
  407550:	jae    0x40759b
  407552:	fs outs dx,BYTE PTR gs:[esi]
  407555:	je     0x4075c0
  407557:	je     0x4075d2
  407559:	add    BYTE PTR [ecx+ebp*2+0x73],cl
  40755d:	je     0x4075bf
  40755f:	xor    DWORD PTR [eax],eax
  407561:	inc    ecx
  407562:	fs add BYTE PTR fs:[edi+0x65],ah
  407567:	je     0x4075c8
  407569:	push   edi
  40756a:	outs   dx,DWORD PTR ds:[esi]
  40756b:	jb     0x4075d8
  40756d:	gs jb  0x4075c0
  407570:	jb     0x4075e1
  407572:	arpl   WORD PTR [ebp+0x73],sp
  407575:	jae    0x4075c0
  407577:	ins    DWORD PTR es:[edi],dx
  407578:	jo     0x4075df
  40757a:	jb     0x4075ef
  40757c:	outs   dx,DWORD PTR ds:[esi]
  40757d:	outs   dx,BYTE PTR ds:[esi]
  40757e:	popa   
  40757f:	je     0x4075e6
  407581:	fs dec ecx
  407583:	fs outs dx,BYTE PTR gs:[esi]
  407586:	je     0x4075f1
  407588:	je     0x407603
  40758a:	add    BYTE PTR [edi+ebp*2+0x41],dl
  40758e:	jb     0x407602
  407590:	popa   
  407591:	jns    0x407593
  407593:	dec    ebp
  407594:	outs   dx,DWORD PTR ds:[esi]
  407595:	outs   dx,BYTE PTR ds:[esi]
  407596:	imul   esi,DWORD PTR [edi+ebp*2+0x72],0x65707954
  40759e:	add    BYTE PTR [ecx+0x56],cl
  4075a1:	push   ebx
  4075a2:	push   ebx
  4075a3:	popa   
  4075a4:	ins    DWORD PTR es:[edi],dx
  4075a5:	jo     0x407613
  4075a7:	imul   ebp,DWORD PTR [esi+0x67],0x746e6f43
  4075ae:	jb     0x40761f
  4075b0:	ins    BYTE PTR es:[edi],dx
  4075b1:	add    BYTE PTR [edi+0x65],ah
  4075b4:	je     0x407615
  4075b6:	push   ebx
  4075b7:	popa   
  4075b8:	ins    DWORD PTR es:[edi],dx
  4075b9:	jo     0x407627
  4075bb:	gs jb  0x4075be
  4075be:	push   esi
  4075bf:	push   ebx
  4075c0:	inc    edi
  4075c1:	inc    ebx
  4075c2:	push   eax
  4075c3:	jb     0x407634
  4075c5:	imul   bp,WORD PTR [ebp+eiz*2+0x54],0x7079
  4075cc:	add    BYTE PTR gs:[ebx+0x65],dh
  4075d0:	je     0x407631
  4075d2:	push   esi
  4075d3:	push   ebx
  4075d4:	inc    edi
  4075d5:	inc    ebx
  4075d6:	push   eax
  4075d7:	jb     0x407648
  4075d9:	imul   bp,WORD PTR [ecx+ebp*2+0x6e],0x67
  4075e0:	inc    ecx
  4075e1:	je     0x407657
  4075e3:	popa   
  4075e4:	arpl   WORD PTR [eax+0x53],bp
  4075e7:	popa   
  4075e8:	ins    DWORD PTR es:[edi],dx
  4075e9:	jo     0x407657
  4075eb:	gs jb  0x4075ee
  4075ee:	inc    esp
  4075ef:	gs je  0x407653
  4075f2:	arpl   WORD PTR [eax+0x53],bp
  4075f5:	popa   
  4075f6:	ins    DWORD PTR es:[edi],dx
  4075f7:	jo     0x407665
  4075f9:	gs jb  0x4075fc
  4075fc:	dec    esp
  4075fd:	popa   
  4075fe:	jne    0x40766e
  407600:	arpl   WORD PTR [eax+0x0],bp
  407603:	dec    ecx
  407604:	outs   dx,BYTE PTR ds:[esi]
  407605:	je     0x407657
  407607:	je     0x40767b
  407609:	add    BYTE PTR [edx+0x65],bl
  40760c:	jb     0x40767d
  40760e:	add    BYTE PTR [ebp+0x6e],al
  407611:	je     0x407685
  407613:	jns    0x407665
  407615:	outs   dx,DWORD PTR ds:[esi]
  407616:	imul   ebp,DWORD PTR [esi+0x74],0x46746f4e
  40761d:	outs   dx,DWORD PTR ds:[esi]
  40761e:	jne    0x40768e
  407620:	fs inc ebp
  407622:	js     0x407687
  407624:	gs jo  0x40769b
  407627:	imul   ebp,DWORD PTR [edi+0x6e],0x6c6c4400
  40762e:	dec    esi
  40762f:	outs   dx,DWORD PTR ds:[esi]
  407630:	je     0x407678
  407632:	outs   dx,DWORD PTR ds:[esi]
  407633:	jne    0x4076a3
  407635:	fs inc ebp
  407637:	js     0x40769c
  407639:	gs jo  0x4076b0
  40763c:	imul   ebp,DWORD PTR [edi+0x6e],0x67655200
  407643:	imul   esi,DWORD PTR [ebx+0x74],0x43007972
  40764a:	jne    0x4076be
  40764c:	jb     0x4076b3
  40764e:	outs   dx,BYTE PTR ds:[esi]
  40764f:	je     0x4076a6
  407651:	jae    0x4076b8
  407653:	jb     0x407655
  407655:	dec    edi
  407656:	jo     0x4076bd
  407658:	outs   dx,BYTE PTR ds:[esi]
  407659:	push   ebx
  40765a:	jne    0x4076be
  40765c:	dec    ebx
  40765d:	gs jns 0x407660
  407660:	inc    ebx
  407661:	jb     0x4076c8
  407663:	popa   
  407664:	je     0x4076cb
  407666:	push   ebx
  407667:	jne    0x4076cb
  407669:	dec    ebx
  40766a:	gs jns 0x40766d
  40766d:	inc    ebx
  40766e:	outs   dx,DWORD PTR ds:[esi]
  40766f:	push   esi
  407670:	push   ebx
  407671:	push   eax
  407672:	gs jb  0x4076db
  407675:	xor    esi,DWORD PTR [edx]
  407677:	inc    ebx
  407678:	ins    BYTE PTR es:[edi],dx
  407679:	popa   
  40767a:	jae    0x4076ef
  40767c:	add    BYTE PTR [ebx+0x6f],al
  40767f:	push   esi
  407680:	push   ebx
  407681:	push   eax
  407682:	gs jb  0x4076eb
  407685:	ss xor al,0x43
  407688:	ins    BYTE PTR es:[edi],dx
  407689:	popa   
  40768a:	jae    0x4076ff
  40768c:	add    BYTE PTR [esi],ch
  40768e:	arpl   WORD PTR [ebx+0x74],sp
  407691:	outs   dx,DWORD PTR ds:[esi]
  407692:	jb     0x407694
  407694:	dec    ecx
  407695:	inc    ebp
  407696:	outs   dx,BYTE PTR ds:[esi]
  407697:	jne    0x407706
  407699:	gs jb  0x4076fd
  40769c:	je     0x40770d
  40769e:	jb     0x407700
  4076a0:	xor    DWORD PTR [eax],eax
  4076a2:	inc    edi
  4076a3:	gs je  0x4076eb
  4076a6:	outs   dx,BYTE PTR ds:[esi]
  4076a7:	jne    0x407716
  4076a9:	gs jb  0x40770d
  4076ac:	je     0x40771d
  4076ae:	jb     0x4076b0
  4076b0:	addr16 gs je 0x407713
  4076b4:	inc    ebx
  4076b5:	jne    0x407729
  4076b7:	jb     0x40771e
  4076b9:	outs   dx,BYTE PTR ds:[esi]
  4076ba:	je     0x4076bc
  4076bc:	push   ebx
  4076bd:	jns    0x407732
  4076bf:	je     0x407726
  4076c1:	ins    DWORD PTR es:[edi],dx
  4076c2:	cs inc ebx
  4076c4:	outs   dx,DWORD PTR ds:[esi]
  4076c5:	ins    BYTE PTR es:[edi],dx
  4076c6:	ins    BYTE PTR es:[edi],dx
  4076c7:	arpl   WORD PTR gs:[ecx+ebp*2+0x6f],si
  4076cc:	outs   dx,BYTE PTR ds:[esi]
  4076cd:	jae    0x4076cf
  4076cf:	dec    ecx
  4076d0:	inc    ebp
  4076d1:	outs   dx,BYTE PTR ds:[esi]
  4076d2:	jne    0x407741
  4076d4:	gs jb  0x407738
  4076d7:	je     0x407748
  4076d9:	jb     0x4076db
  4076db:	dec    ebp
  4076dc:	outs   dx,DWORD PTR ds:[esi]
  4076dd:	jbe    0x407744
  4076df:	dec    esi
  4076e0:	gs js  0x407757
  4076e3:	add    BYTE PTR [ecx+0x44],cl
  4076e6:	imul   esi,DWORD PTR [ebx+0x70],0x6261736f
  4076ed:	ins    BYTE PTR es:[edi],dx
  4076ee:	add    BYTE PTR gs:[ecx+ebp*2+0x73],al
  4076f3:	jo     0x407764
  4076f5:	jae    0x40775c
  4076f7:	add    BYTE PTR [ebx+0x6f],al
  4076fa:	outs   dx,BYTE PTR ds:[esi]
  4076fb:	jae    0x40776c
  4076fd:	ins    BYTE PTR es:[edi],dx
  4076fe:	add    BYTE PTR gs:[edx+0x65],dl
  407702:	popa   
  407703:	add    BYTE PTR fs:[esi+0x61],dl
  407707:	ins    BYTE PTR es:[edi],dx
  407708:	imul   esp,DWORD PTR [ecx+eiz*2+0x74],0x74704f65
  407710:	imul   ebp,DWORD PTR [edi+0x6e],0x6f430073
  407717:	ins    BYTE PTR es:[edi],dx
  407718:	ins    BYTE PTR es:[edi],dx
  407719:	arpl   WORD PTR gs:[ecx+ebp*2+0x6f],si
  40771e:	outs   dx,BYTE PTR ds:[esi]
  40771f:	pusha  
  407720:	xor    DWORD PTR [eax],eax
  407722:	dec    ecx
  407723:	dec    esp
  407724:	imul   esi,DWORD PTR [ebx+0x74],0x67003160
  40772b:	gs je  0x40778d
  40772e:	dec    ecx
  40772f:	je     0x407796
  407731:	ins    DWORD PTR es:[edi],dx
  407732:	add    BYTE PTR [ecx+0x73],al
  407735:	jae    0x40779c
  407737:	ins    DWORD PTR es:[edi],dx
  407738:	bound  ebp,QWORD PTR [ecx+edi*2+0x4e]
  40773c:	popa   
  40773d:	ins    DWORD PTR es:[edi],dx
  40773e:	add    BYTE PTR gs:[edi+0x65],al
  407742:	je     0x407792
  407744:	popa   
  407745:	ins    DWORD PTR es:[edi],dx
  407746:	add    BYTE PTR gs:[esi+0x65],dl
  40774a:	jb     0x4077bf
  40774c:	imul   ebp,DWORD PTR [edi+0x6e],0x74656700
  407753:	pop    edi
  407754:	push   esi
  407755:	gs jb  0x4077cb
  407758:	imul   ebp,DWORD PTR [edi+0x6e],0x74656700
  40775f:	pop    edi
  407760:	inc    ebx
  407761:	jne    0x4077d5
  407763:	jb     0x4077ca
  407765:	outs   dx,BYTE PTR ds:[esi]
  407766:	je     0x4077ab
  407768:	jne    0x4077d6
  40776a:	je     0x4077e1
  40776c:	jb     0x4077d3
  40776e:	add    BYTE PTR [esi+0x6f],al
  407771:	jb     0x4077e0
  407773:	popa   
  407774:	je     0x407776
  407776:	push   edi
  407777:	jb     0x4077e2
  407779:	je     0x4077e0
  40777b:	dec    esp
  40777c:	imul   ebp,DWORD PTR [esi+0x65],0x766e4500
  407783:	imul   esi,DWORD PTR [edx+0x6f],0x6e656d6e
  40778a:	je     0x40778c
  40778c:	addr16 gs je 0x4077ef
  407790:	dec    esi
  407791:	gs ja  0x4077e0
  407794:	imul   ebp,DWORD PTR [esi+0x65],0x69725700
  40779b:	je     0x407802
  40779d:	add    BYTE PTR [esp+ebp*2+0x6c],al
  4077a1:	dec    ecx
  4077a2:	ins    DWORD PTR es:[edi],dx
  4077a3:	jo     0x407814
  4077a5:	jb     0x40781b
  4077a7:	inc    ecx
  4077a8:	je     0x40781e
  4077aa:	jb     0x407815
  4077ac:	bound  esi,QWORD PTR [ebp+0x74]
  4077af:	add    BYTE PTR gs:[ebx+0x65],cl
  4077b3:	jb     0x407823
  4077b5:	gs ins BYTE PTR es:[edi],dx
  4077b7:	xor    esi,DWORD PTR [edx]
  4077b9:	cs fs ins BYTE PTR es:[edi],dx
  4077bc:	ins    BYTE PTR es:[edi],dx
  4077bd:	add    BYTE PTR [ecx+0x65],ch
  4077c0:	data16 jb 0x407824
  4077c3:	ins    DWORD PTR es:[edi],dx
  4077c4:	gs cs fs ins BYTE PTR es:[edi],dx
  4077c8:	ins    BYTE PTR es:[edi],dx
  4077c9:	add    BYTE PTR [eax+0x64],dl
  4077cc:	push   0x6c6c642e
  4077d1:	add    BYTE PTR [ebx+0x74],dl
  4077d4:	jb     0x40784b
  4077d6:	arpl   WORD PTR [esp+ecx*2+0x61],si
  4077da:	jns    0x40784b
  4077dc:	jne    0x407852
  4077de:	inc    ecx
  4077df:	je     0x407855
  4077e1:	jb     0x40784c
  4077e3:	bound  esi,QWORD PTR [ebp+0x74]
  4077e6:	add    BYTE PTR gs:[ecx+eiz*2+0x79],cl
  4077eb:	outs   dx,DWORD PTR ds:[esi]
  4077ec:	jne    0x407862
  4077ee:	dec    ebx
  4077ef:	imul   ebp,DWORD PTR [esi+0x64],0x63694d00
  4077f6:	jb     0x407867
  4077f8:	jae    0x407869
  4077fa:	data16 je 0x40782b
  4077fd:	push   esi
  4077fe:	imul   esi,DWORD PTR [ebx+0x75],0x74536c61
  407805:	jne    0x40786b
  407807:	imul   ebp,DWORD PTR [edi+0x2e],0x66726550
  40780e:	outs   dx,DWORD PTR ds:[esi]
  40780f:	jb     0x40787e
  407811:	popa   
  407812:	outs   dx,BYTE PTR ds:[esi]
  407813:	arpl   WORD PTR [ebp+0x54],sp
  407816:	outs   dx,DWORD PTR ds:[esi]
  407817:	outs   dx,DWORD PTR ds:[esi]
  407818:	ins    BYTE PTR es:[edi],dx
  407819:	jae    0x407849
  40781b:	push   esi
  40781c:	push   ebx
  40781d:	push   eax
  40781e:	gs jb  0x407887
  407821:	inc    ecx
  407822:	push   ebx
  407823:	push   eax
  407824:	dec    esi
  407825:	gs je  0x40786b
  407828:	ins    DWORD PTR es:[edi],dx
  407829:	fs cs inc ecx
  40782c:	push   ebx
  40782d:	push   eax
  40782e:	dec    esi
  40782f:	gs je  0x407875
  407832:	ins    DWORD PTR es:[edi],dx
  407833:	fs push edx
  407835:	gs jae 0x4078a7
  407838:	jne    0x4078ac
  40783a:	arpl   WORD PTR [ebp+0x73],sp
  40783d:	cs jb  0x4078a5
  407840:	jae    0x4078b1
  407842:	jne    0x4078b6
  407844:	arpl   WORD PTR [ebp+0x73],sp
  407847:	add    BYTE PTR [eax],al
  407849:	adc    BYTE PTR [ebp+0x69004d],0x63
  407850:	add    BYTE PTR [edx+0x0],dh
  407853:	outs   dx,DWORD PTR ds:[esi]
  407854:	add    BYTE PTR [ebx+0x0],dh
  407857:	outs   dx,DWORD PTR ds:[esi]
  407858:	add    BYTE PTR [esi+0x0],ah
  40785b:	je     0x40785d
  40785d:	add    BYTE PTR cs:[esi+0x0],dl
  407861:	imul   eax,DWORD PTR [eax],0x750073
  407867:	popa   
  407868:	add    BYTE PTR [eax+eax*1+0x53],ch
  40786c:	add    BYTE PTR [eax+eax*1+0x75],dh
  407870:	add    BYTE PTR [eax+eax*1+0x69],ah
  407874:	add    BYTE PTR [edi+0x0],ch
  407877:	add    BYTE PTR cs:[eax+0x0],dl
  40787b:	add    BYTE PTR gs:[edx+0x0],dh
  40787f:	data16 add BYTE PTR [edi+0x0],ch
  407883:	jb     0x407885
  407885:	ins    DWORD PTR es:[edi],dx
  407886:	add    BYTE PTR [ecx+0x0],ah
  407889:	outs   dx,BYTE PTR ds:[esi]
  40788a:	add    BYTE PTR [ebx+0x0],ah
  40788d:	add    BYTE PTR gs:[eax+eax*1+0x6f],dl
  407892:	add    BYTE PTR [edi+0x0],ch
  407895:	ins    BYTE PTR es:[edi],dx
  407896:	add    BYTE PTR [ebx+0x0],dh
  407899:	add    BYTE PTR cs:[esi+0x0],dl
  40789d:	push   ebx
  40789e:	add    BYTE PTR [eax+0x0],dl
  4078a1:	add    BYTE PTR gs:[edx+0x0],dh
  4078a5:	data16 add BYTE PTR [ecx+0x0],al
  4078a9:	push   ebx
  4078aa:	add    BYTE PTR [eax+0x0],dl
  4078ad:	dec    esi
  4078ae:	add    BYTE PTR [ebp+0x0],ah
  4078b1:	je     0x4078b3
  4078b3:	inc    ebx
  4078b4:	add    BYTE PTR [ebp+0x0],ch
  4078b7:	add    BYTE PTR fs:[esi],ch
  4078ba:	add    BYTE PTR [ecx+0x0],al
  4078bd:	push   ebx
  4078be:	add    BYTE PTR [eax+0x0],dl
  4078c1:	dec    esi
  4078c2:	add    BYTE PTR [ebp+0x0],ah
  4078c5:	je     0x4078c7
  4078c7:	inc    ebx
  4078c8:	add    BYTE PTR [ebp+0x0],ch
  4078cb:	add    BYTE PTR fs:[edx+0x0],dl
  4078cf:	add    BYTE PTR gs:[ebx+0x0],dh
  4078d3:	outs   dx,DWORD PTR ds:[esi]
  4078d4:	add    BYTE PTR [ebp+0x0],dh
  4078d7:	jb     0x4078d9
  4078d9:	arpl   WORD PTR [eax],ax
  4078db:	add    BYTE PTR gs:[ebx+0x0],dh
  4078df:	add    BYTE PTR [edi],dh
  4078e1:	inc    ecx
  4078e2:	add    BYTE PTR [ebx+0x0],dl
  4078e5:	push   eax
  4078e6:	add    BYTE PTR [ebp+0x0],al
  4078e9:	js     0x4078eb
  4078eb:	add    BYTE PTR gs:[ebx+0x0],ah
  4078ef:	jne    0x4078f1
  4078f1:	je     0x4078f3
  4078f3:	add    BYTE PTR gs:[ebx+0x0],dl
  4078f7:	je     0x4078f9
  4078f9:	add    BYTE PTR gs:[eax+0x0],dh
  4078fd:	inc    ecx
  4078fe:	add    BYTE PTR [eax+eax*1+0x74],dh
  407902:	add    BYTE PTR [ecx+0x0],ah
  407905:	arpl   WORD PTR [eax],ax
  407907:	push   0x6f004d00
  40790c:	add    BYTE PTR [esi+0x0],ch
  40790f:	imul   eax,DWORD PTR [eax],0x6f0074
  407915:	jb     0x407917
  407917:	add    BYTE PTR ds:0x530041,ch
  40791d:	push   eax
  40791e:	add    BYTE PTR [ebp+0x0],al
  407921:	js     0x407923
  407923:	add    BYTE PTR gs:[ebx+0x0],ah
  407927:	jne    0x407929
  407929:	je     0x40792b
  40792b:	add    BYTE PTR gs:[ebx+0x0],dl
  40792f:	je     0x407931
  407931:	add    BYTE PTR gs:[eax+0x0],dh
  407935:	inc    ebp
  407936:	add    BYTE PTR [esi+0x0],ch
  407939:	jbe    0x40793b
  40793b:	push   ebx
  40793c:	add    BYTE PTR [ebp+0x0],ah
  40793f:	je     0x407941
  407941:	jne    0x407943
  407943:	jo     0x407945
  407945:	add    BYTE PTR ds:0x530041,dh
  40794b:	push   eax
  40794c:	add    BYTE PTR [ebp+0x0],al
  40794f:	js     0x407951
  407951:	add    BYTE PTR gs:[ebx+0x0],ah
  407955:	jne    0x407957
  407957:	je     0x407959
  407959:	add    BYTE PTR gs:[ebx+0x0],dl
  40795d:	je     0x40795f
  40795f:	add    BYTE PTR gs:[eax+0x0],dh
  407963:	dec    esp
  407964:	add    BYTE PTR [ecx+0x0],ah
  407967:	jne    0x407969
  407969:	outs   dx,BYTE PTR ds:[esi]
  40796a:	add    BYTE PTR [ebx+0x0],ah
  40796d:	push   0x6e006900
  407972:	add    BYTE PTR [edi+0x0],ah
  407975:	inc    ecx
  407976:	add    BYTE PTR [ebx+0x0],dl
  407979:	push   eax
  40797a:	add    BYTE PTR [eax],al
  40797c:	xor    eax,DWORD PTR [ecx+0x0]
  40797f:	push   ebx
  407980:	add    BYTE PTR [eax+0x0],dl
  407983:	inc    ebp
  407984:	add    BYTE PTR [eax+0x0],bh
  407987:	add    BYTE PTR gs:[ebx+0x0],ah
  40798b:	jne    0x40798d
  40798d:	je     0x40798f
  40798f:	add    BYTE PTR gs:[ebx+0x0],dl
  407993:	je     0x407995
  407995:	add    BYTE PTR gs:[eax+0x0],dh
  407999:	push   edx
  40799a:	add    BYTE PTR [ebp+0x0],ah
  40799d:	jae    0x40799f
  40799f:	je     0x4079a1
  4079a1:	popa   
  4079a2:	add    BYTE PTR [edx+0x0],dh
  4079a5:	je     0x4079a7
  4079a7:	push   edi
  4079a8:	add    BYTE PTR [ebx],dh
  4079aa:	add    BYTE PTR [edi+0x0],dl
  4079ad:	push   eax
  4079ae:	add    BYTE PTR [eax],al
  4079b0:	sub    eax,DWORD PTR [ecx+0x0]
  4079b3:	push   ebx
  4079b4:	add    BYTE PTR [eax+0x0],dl
  4079b7:	inc    ebp
  4079b8:	add    BYTE PTR [eax+0x0],bh
  4079bb:	add    BYTE PTR gs:[ebx+0x0],ah
  4079bf:	jne    0x4079c1
  4079c1:	je     0x4079c3
  4079c3:	add    BYTE PTR gs:[ebx+0x0],dl
  4079c7:	je     0x4079c9
  4079c9:	add    BYTE PTR gs:[eax+0x0],dh
  4079cd:	push   ebx
  4079ce:	add    BYTE PTR [eax+eax*1+0x61],dh
  4079d2:	add    BYTE PTR [edx+0x0],dh
  4079d5:	je     0x4079d7
  4079d7:	dec    ecx
  4079d8:	add    BYTE PTR [ebp+0x0],al
  4079db:	add    BYTE PTR ds:0x530041,dh
  4079e1:	push   eax
  4079e2:	add    BYTE PTR [ebp+0x0],al
  4079e5:	js     0x4079e7
  4079e7:	add    BYTE PTR gs:[ebx+0x0],ah
  4079eb:	jne    0x4079ed
  4079ed:	je     0x4079ef
  4079ef:	add    BYTE PTR gs:[ebx+0x0],dl
  4079f3:	je     0x4079f5
  4079f5:	add    BYTE PTR gs:[eax+0x0],dh
  4079f9:	push   ebx
  4079fa:	add    BYTE PTR [eax+eax*1+0x61],dh
  4079fe:	add    BYTE PTR [edx+0x0],dh
  407a01:	je     0x407a03
  407a03:	dec    ebp
  407a04:	add    BYTE PTR [edi+0x0],ch
  407a07:	outs   dx,BYTE PTR ds:[esi]
  407a08:	add    BYTE PTR [ecx+0x0],ch
  407a0b:	je     0x407a0d
  407a0d:	outs   dx,DWORD PTR ds:[esi]
  407a0e:	add    BYTE PTR [edx+0x0],dh
  407a11:	add    BYTE PTR [edi],ch
  407a13:	inc    ecx
  407a14:	add    BYTE PTR [ebx+0x0],dl
  407a17:	push   eax
  407a18:	add    BYTE PTR [ebp+0x0],al
  407a1b:	js     0x407a1d
  407a1d:	add    BYTE PTR gs:[ebx+0x0],ah
  407a21:	jne    0x407a23
  407a23:	je     0x407a25
  407a25:	add    BYTE PTR gs:[ebx+0x0],dl
  407a29:	je     0x407a2b
  407a2b:	add    BYTE PTR gs:[eax+0x0],dh
  407a2f:	push   edi
  407a30:	add    BYTE PTR [ebp+0x0],ah
  407a33:	bound  eax,QWORD PTR [eax]
  407a35:	inc    ebx
  407a36:	add    BYTE PTR [edi+0x0],ch
  407a39:	outs   dx,BYTE PTR ds:[esi]
  407a3a:	add    BYTE PTR [esi+0x0],ah
  407a3d:	imul   eax,DWORD PTR [eax],0x1f000067
  407a43:	inc    ecx
  407a44:	add    BYTE PTR [ebx+0x0],dl
  407a47:	push   eax
  407a48:	add    BYTE PTR [esi+0x0],cl
  407a4b:	add    BYTE PTR gs:[eax+eax*1+0x45],dh
  407a50:	add    BYTE PTR [eax+0x0],bh
  407a53:	arpl   WORD PTR [eax],ax
  407a55:	add    BYTE PTR gs:[eax+0x0],dh
  407a59:	je     0x407a5b
  407a5b:	imul   eax,DWORD PTR [eax],0x6e006f
  407a61:	add    BYTE PTR [ecx],ch
  407a63:	inc    ecx
  407a64:	add    BYTE PTR [ebx+0x0],dl
  407a67:	push   eax
  407a68:	add    BYTE PTR [esi+0x0],cl
  407a6b:	add    BYTE PTR gs:[eax+eax*1+0x49],dh
  407a70:	add    BYTE PTR [esi+0x0],ch
  407a73:	jbe    0x407a75
  407a75:	popa   
  407a76:	add    BYTE PTR [eax+eax*1+0x69],ch
  407a7a:	add    BYTE PTR [eax+eax*1+0x53],ah
  407a7e:	add    BYTE PTR [ecx+0x0],ch
  407a81:	je     0x407a83
  407a83:	add    BYTE PTR gs:[ecx+0x0],al
  407a87:	jb     0x407a89
  407a89:	add    BYTE PTR [bx+si],al
  407a8c:	and    eax,0x530041
  407a91:	push   eax
  407a92:	add    BYTE PTR [esi+0x0],cl
  407a95:	add    BYTE PTR gs:[eax+eax*1+0x53],dh
  407a9a:	add    BYTE PTR [ecx+0x0],ah
  407a9d:	ins    DWORD PTR es:[edi],dx
  407a9e:	add    BYTE PTR [eax+0x0],dh
  407aa1:	ins    BYTE PTR es:[edi],dx
  407aa2:	add    BYTE PTR [ecx+0x0],ch
  407aa5:	outs   dx,BYTE PTR ds:[esi]
  407aa6:	add    BYTE PTR [edi+0x0],ah
  407aa9:	dec    eax
  407aaa:	add    BYTE PTR [ebp+0x0],ah
  407aad:	ins    BYTE PTR es:[edi],dx
  407aae:	add    BYTE PTR [eax+0x0],dh
  407ab1:	add    BYTE PTR [edi],ah
  407ab3:	inc    ecx
  407ab4:	add    BYTE PTR [ebx+0x0],dl
  407ab7:	push   eax
  407ab8:	add    BYTE PTR [esi+0x0],cl
  407abb:	add    BYTE PTR gs:[eax+eax*1+0x53],dh
  407ac0:	add    BYTE PTR [ecx+0x0],ah
  407ac3:	ins    DWORD PTR es:[edi],dx
  407ac4:	add    BYTE PTR [eax+0x0],dh
  407ac7:	ins    BYTE PTR es:[edi],dx
  407ac8:	add    BYTE PTR [ecx+0x0],ch
  407acb:	outs   dx,BYTE PTR ds:[esi]
  407acc:	add    BYTE PTR [edi+0x0],ah
  407acf:	push   edx
  407ad0:	add    BYTE PTR [ebp+0x0],ah
  407ad3:	popa   
  407ad4:	add    BYTE PTR [eax+eax*1+0x79],ah
  407ad8:	add    BYTE PTR [eax],al
  407ada:	sub    eax,0x530041
  407adf:	push   eax
  407ae0:	add    BYTE PTR [esi+0x0],cl
  407ae3:	add    BYTE PTR gs:[eax+eax*1+0x53],dh
  407ae8:	add    BYTE PTR [ecx+0x0],ah
  407aeb:	ins    DWORD PTR es:[edi],dx
  407aec:	add    BYTE PTR [eax+0x0],dh
  407aef:	ins    BYTE PTR es:[edi],dx
  407af0:	add    BYTE PTR [ecx+0x0],ch
  407af3:	outs   dx,BYTE PTR ds:[esi]
  407af4:	add    BYTE PTR [edi+0x0],ah
  407af7:	push   ebx
  407af8:	add    BYTE PTR [eax+0x0],ch
  407afb:	jne    0x407afd
  407afd:	je     0x407aff
  407aff:	add    BYTE PTR fs:[edi+0x0],ch
  407b03:	ja     0x407b05
  407b05:	outs   dx,BYTE PTR ds:[esi]
  407b06:	add    BYTE PTR [eax],al
  407b08:	cmp    eax,0x530041
  407b0d:	push   eax
  407b0e:	add    BYTE PTR [esi+0x0],cl
  407b11:	add    BYTE PTR gs:[eax+eax*1+0x53],dh
  407b16:	add    BYTE PTR [ecx+0x0],ah
  407b19:	ins    DWORD PTR es:[edi],dx
  407b1a:	add    BYTE PTR [eax+0x0],dh
  407b1d:	ins    BYTE PTR es:[edi],dx
  407b1e:	add    BYTE PTR [ecx+0x0],ch
  407b21:	outs   dx,BYTE PTR ds:[esi]
  407b22:	add    BYTE PTR [edi+0x0],ah
  407b25:	push   ebx
  407b26:	add    BYTE PTR [eax+0x0],ch
  407b29:	jne    0x407b2b
  407b2b:	je     0x407b2d
  407b2d:	add    BYTE PTR fs:[edi+0x0],ch
  407b31:	ja     0x407b33
  407b33:	outs   dx,BYTE PTR ds:[esi]
  407b34:	add    BYTE PTR [ebx+0x0],dl
  407b37:	je     0x407b39
  407b39:	popa   
  407b3a:	add    BYTE PTR [edx+0x0],dh
  407b3d:	je     0x407b3f
  407b3f:	imul   eax,DWORD PTR [eax],0x67006e
  407b45:	add    BYTE PTR ds:0x530041,ch
  407b4b:	push   eax
  407b4c:	add    BYTE PTR [esi+0x0],cl
  407b4f:	add    BYTE PTR gs:[eax+eax*1+0x53],dh
  407b54:	add    BYTE PTR [ecx+0x0],ah
  407b57:	ins    DWORD PTR es:[edi],dx
  407b58:	add    BYTE PTR [eax+0x0],dh
  407b5b:	ins    BYTE PTR es:[edi],dx
  407b5c:	add    BYTE PTR [ecx+0x0],ch
  407b5f:	outs   dx,BYTE PTR ds:[esi]
  407b60:	add    BYTE PTR [edi+0x0],ah
  407b63:	push   ebx
  407b64:	add    BYTE PTR [eax+eax*1+0x61],dh
  407b68:	add    BYTE PTR [edx+0x0],dh
  407b6b:	je     0x407b6d
  407b6d:	imul   eax,DWORD PTR [eax],0x67006e
  407b73:	add    BYTE PTR [edi],dl
  407b75:	inc    ebx
  407b76:	add    BYTE PTR [edi+0x0],cl
  407b79:	dec    ebp
  407b7a:	add    BYTE PTR [ebp+0x0],al
  407b7d:	js     0x407b7f
  407b7f:	add    BYTE PTR gs:[eax+0x0],dh
  407b83:	je     0x407b85
  407b85:	imul   eax,DWORD PTR [eax],0x6e006f
  407b8b:	add    BYTE PTR [ebx],dl
  407b8d:	inc    ebp
  407b8e:	add    BYTE PTR [edx+0x0],dh
  407b91:	jb     0x407b93
  407b93:	outs   dx,DWORD PTR ds:[esi]
  407b94:	add    BYTE PTR [edx+0x0],dh
  407b97:	push   esp
  407b98:	add    BYTE PTR [ebp+0x0],ah
  407b9b:	js     0x407b9d
  407b9d:	je     0x407b9f
  407b9f:	add    BYTE PTR [edi],bl
  407ba1:	inc    esi
  407ba2:	add    BYTE PTR [ecx+0x0],ah
  407ba5:	imul   eax,DWORD PTR [eax],0x65006c
  407bab:	add    BYTE PTR fs:[eax+eax*1+0x6f],dl
  407bb0:	add    BYTE PTR [ebx+0x0],dl
  407bb3:	je     0x407bb5
  407bb5:	popa   
  407bb6:	add    BYTE PTR [edx+0x0],dh
  407bb9:	je     0x407bbb
  407bbb:	dec    ecx
  407bbc:	add    BYTE PTR [ebp+0x0],al
  407bbf:	add    BYTE PTR [edi],bl
  407bc1:	dec    eax
  407bc2:	add    BYTE PTR [ebp+0x0],ah
  407bc5:	ins    BYTE PTR es:[edi],dx
  407bc6:	add    BYTE PTR [eax+0x0],dh
  407bc9:	inc    esp
  407bca:	add    BYTE PTR [ebp+0x0],ah
  407bcd:	jae    0x407bcf
  407bcf:	arpl   WORD PTR [eax],ax
  407bd1:	jb     0x407bd3
  407bd3:	imul   eax,DWORD PTR [eax],0x740070
  407bd9:	imul   eax,DWORD PTR [eax],0x6e006f
  407bdf:	add    BYTE PTR [ecx],dl
  407be1:	dec    eax
  407be2:	add    BYTE PTR [ebp+0x0],ah
  407be5:	ins    BYTE PTR es:[edi],dx
  407be6:	add    BYTE PTR [eax+0x0],dh
  407be9:	dec    eax
  407bea:	add    BYTE PTR [ebp+0x0],ah
  407bed:	ins    BYTE PTR es:[edi],dx
  407bee:	add    BYTE PTR [eax+0x0],dh
  407bf1:	add    BYTE PTR ds:0x650048,dl
  407bf7:	ins    BYTE PTR es:[edi],dx
  407bf8:	add    BYTE PTR [eax+0x0],dh
  407bfb:	dec    ebp
  407bfc:	add    BYTE PTR [ebp+0x0],ah
  407bff:	ins    DWORD PTR es:[edi],dx
  407c00:	add    BYTE PTR [edi+0x0],ch
  407c03:	jb     0x407c05
  407c05:	jns    0x407c07
  407c07:	add    BYTE PTR ds:0x650048,dl
  407c0d:	ins    BYTE PTR es:[edi],dx
  407c0e:	add    BYTE PTR [eax+0x0],dh
  407c11:	dec    esi
  407c12:	add    BYTE PTR [edi+0x0],ch
  407c15:	ja     0x407c17
  407c17:	popa   
  407c18:	add    BYTE PTR [ecx+0x0],ch
  407c1b:	je     0x407c1d
  407c1d:	add    BYTE PTR [edi],dl
  407c1f:	dec    eax
  407c20:	add    BYTE PTR [ebp+0x0],ah
  407c23:	ins    BYTE PTR es:[edi],dx
  407c24:	add    BYTE PTR [eax+0x0],dh
  407c27:	dec    edi
  407c28:	add    BYTE PTR [eax+0x0],dh
  407c2b:	je     0x407c2d
  407c2d:	imul   eax,DWORD PTR [eax],0x6e006f
  407c33:	jae    0x407c35
  407c35:	add    BYTE PTR ds:0x650048,dl
  407c3b:	ins    BYTE PTR es:[edi],dx
  407c3c:	add    BYTE PTR [eax+0x0],dh
  407c3f:	dec    edi
  407c40:	add    BYTE PTR [ebp+0x0],dh
  407c43:	je     0x407c45
  407c45:	jo     0x407c47
  407c47:	jne    0x407c49
  407c49:	je     0x407c4b
  407c4b:	add    BYTE PTR [edi],bl
  407c4d:	dec    eax
  407c4e:	add    BYTE PTR [ebp+0x0],ah
  407c51:	ins    BYTE PTR es:[edi],dx
  407c52:	add    BYTE PTR [eax+0x0],dh
  407c55:	push   eax
  407c56:	add    BYTE PTR [ecx+0x0],ah
  407c59:	arpl   WORD PTR [eax],ax
  407c5b:	imul   eax,DWORD PTR [eax],0x53
  407c5e:	add    BYTE PTR [ecx+0x0],bh
  407c61:	ins    DWORD PTR es:[edi],dx
  407c62:	add    BYTE PTR [edx+0x0],ah
  407c65:	outs   dx,DWORD PTR ds:[esi]
  407c66:	add    BYTE PTR [eax+eax*1+0x73],ch
  407c6a:	add    BYTE PTR [eax],al
  407c6c:	adc    eax,0x650048
  407c71:	ins    BYTE PTR es:[edi],dx
  407c72:	add    BYTE PTR [eax+0x0],dh
  407c75:	push   ebx
  407c76:	add    BYTE PTR [ecx+0x0],ah
  407c79:	ins    DWORD PTR es:[edi],dx
  407c7a:	add    BYTE PTR [eax+0x0],dh
  407c7d:	ins    BYTE PTR es:[edi],dx
  407c7e:	add    BYTE PTR [ebp+0x0],ah
  407c81:	add    BYTE PTR [ecx],bl
  407c83:	dec    eax
  407c84:	add    BYTE PTR [ebp+0x0],ah
  407c87:	ins    BYTE PTR es:[edi],dx
  407c88:	add    BYTE PTR [eax+0x0],dh
  407c8b:	push   ebx
  407c8c:	add    BYTE PTR [eax+0x0],ch
  407c8f:	jne    0x407c91
  407c91:	je     0x407c93
  407c93:	add    BYTE PTR fs:[edi+0x0],ch
  407c97:	ja     0x407c99
  407c99:	outs   dx,BYTE PTR ds:[esi]
  407c9a:	add    BYTE PTR [eax],al
  407c9c:	cmovs  eax,DWORD PTR [eax]
  407c9f:	add    BYTE PTR gs:[eax+eax*1+0x70],ch
  407ca4:	add    BYTE PTR [eax+eax*1+0x69],dl
  407ca8:	add    BYTE PTR [eax+0x0],dh
  407cab:	add    BYTE PTR [ebx],dl
  407cad:	dec    eax
  407cae:	add    BYTE PTR [ebp+0x0],ah
  407cb1:	ins    BYTE PTR es:[edi],dx
  407cb2:	add    BYTE PTR [eax+0x0],dh
  407cb5:	push   esp
  407cb6:	add    BYTE PTR [edx+0x0],dh
  407cb9:	popa   
  407cba:	add    BYTE PTR [ebx+0x0],ah
  407cbd:	add    BYTE PTR gs:[eax],al
  407cc0:	adc    ecx,DWORD PTR [eax+0x0]
  407cc3:	add    BYTE PTR gs:[eax+eax*1+0x70],ch
  407cc8:	add    BYTE PTR [ebp+0x0],dl
  407ccb:	jae    0x407ccd
  407ccd:	popa   
  407cce:	add    BYTE PTR [edi+0x0],ah
  407cd1:	add    BYTE PTR gs:[eax],al
  407cd4:	sub    DWORD PTR [ecx+0x0],ecx
  407cd7:	outs   dx,BYTE PTR ds:[esi]
  407cd8:	add    BYTE PTR [esi+0x0],dh
  407cdb:	popa   
  407cdc:	add    BYTE PTR [eax+eax*1+0x69],ch
  407ce0:	add    BYTE PTR [eax+eax*1+0x50],ah
  407ce4:	add    BYTE PTR [edx+0x0],dh
  407ce7:	outs   dx,DWORD PTR ds:[esi]
  407ce8:	add    BYTE PTR [esi+0x0],ah
  407ceb:	imul   eax,DWORD PTR [eax],0x69006c
  407cf1:	outs   dx,BYTE PTR ds:[esi]
  407cf2:	add    BYTE PTR [edi+0x0],ah
  407cf5:	push   esp
  407cf6:	add    BYTE PTR [ecx+0x0],bh
  407cf9:	jo     0x407cfb
  407cfb:	add    BYTE PTR gs:[eax],al
  407cfe:	das    
  407cff:	dec    ecx
  407d00:	add    BYTE PTR [esi+0x0],ch
  407d03:	jbe    0x407d05
  407d05:	popa   
  407d06:	add    BYTE PTR [eax+eax*1+0x69],ch
  407d0a:	add    BYTE PTR [eax+eax*1+0x57],ah
  407d0e:	add    BYTE PTR [ebp+0x0],ah
  407d11:	bound  eax,QWORD PTR [eax]
  407d13:	jae    0x407d15
  407d15:	imul   eax,DWORD PTR [eax],0x650074
  407d1b:	push   ebx
  407d1c:	add    BYTE PTR [eax+0x0],dh
  407d1f:	add    BYTE PTR gs:[ebx+0x0],ah
  407d23:	imul   eax,DWORD PTR [eax],0x690066
  407d29:	add    BYTE PTR gs:[eax+eax*1+0x0],ah
  407d2e:	xor    DWORD PTR [ebp+0x0],ecx
  407d31:	imul   eax,DWORD PTR [eax],0x720063
  407d37:	outs   dx,DWORD PTR ds:[esi]
  407d38:	add    BYTE PTR [ebx+0x0],dh
  407d3b:	outs   dx,DWORD PTR ds:[esi]
  407d3c:	add    BYTE PTR [esi+0x0],ah
  407d3f:	je     0x407d41
  407d41:	inc    ebx
  407d42:	add    BYTE PTR [edi+0x0],ch
  407d45:	jo     0x407d47
  407d47:	jns    0x407d49
  407d49:	jb     0x407d4b
  407d4b:	imul   eax,DWORD PTR [eax],0x680067
  407d51:	je     0x407d53
  407d53:	dec    esi
  407d54:	add    BYTE PTR [edi+0x0],ch
  407d57:	je     0x407d59
  407d59:	imul   eax,DWORD PTR [eax],0x650063
  407d5f:	add    BYTE PTR [edi],ah
  407d61:	dec    ebp
  407d62:	add    BYTE PTR [edi+0x0],ch
  407d65:	outs   dx,BYTE PTR ds:[esi]
  407d66:	add    BYTE PTR [ecx+0x0],ch
  407d69:	je     0x407d6b
  407d6b:	outs   dx,DWORD PTR ds:[esi]
  407d6c:	add    BYTE PTR [edx+0x0],dh
  407d6f:	push   ebx
  407d70:	add    BYTE PTR [eax+eax*1+0x61],dh
  407d74:	add    BYTE PTR [edx+0x0],dh
  407d77:	je     0x407d79
  407d79:	inc    esi
  407d7a:	add    BYTE PTR [ecx+0x0],ah
  407d7d:	imul   eax,DWORD PTR [eax],0x75006c
  407d83:	jb     0x407d85
  407d85:	add    BYTE PTR gs:[eax],al
  407d88:	and    eax,0x6f004d
  407d8d:	outs   dx,BYTE PTR ds:[esi]
  407d8e:	add    BYTE PTR [ecx+0x0],ch
  407d91:	je     0x407d93
  407d93:	outs   dx,DWORD PTR ds:[esi]
  407d94:	add    BYTE PTR [edx+0x0],dh
  407d97:	push   ebx
  407d98:	add    BYTE PTR [eax+eax*1+0x6f],dh
  407d9c:	add    BYTE PTR [eax+0x0],dh
  407d9f:	inc    esi
  407da0:	add    BYTE PTR [ecx+0x0],ah
  407da3:	imul   eax,DWORD PTR [eax],0x75006c
  407da9:	jb     0x407dab
  407dab:	add    BYTE PTR gs:[eax],al
  407dae:	sbb    DWORD PTR [esi+0x0],ecx
  407db1:	outs   dx,DWORD PTR ds:[esi]
  407db2:	add    BYTE PTR [eax+0x0],dl
  407db5:	popa   
  407db6:	add    BYTE PTR [edx+0x0],dh
  407db9:	popa   
  407dba:	add    BYTE PTR [ebp+0x0],ch
  407dbd:	add    BYTE PTR gs:[eax+eax*1+0x65],dh
  407dc2:	add    BYTE PTR [edx+0x0],dh
  407dc5:	jae    0x407dc7
  407dc7:	add    BYTE PTR [ebx],bl
  407dc9:	dec    esi
  407dca:	add    BYTE PTR [edi+0x0],ch
  407dcd:	push   edi
  407dce:	add    BYTE PTR [ecx+0x0],ah
  407dd1:	imul   eax,DWORD PTR [eax],0x4d0074
  407dd7:	add    BYTE PTR gs:[ebx+0x0],dh
  407ddb:	jae    0x407ddd
  407ddd:	popa   
  407dde:	add    BYTE PTR [edi+0x0],ah
  407de1:	add    BYTE PTR gs:[eax],al
  407de4:	daa    
  407de5:	dec    esi
  407de6:	add    BYTE PTR [edi+0x0],ch
  407de9:	push   edi
  407dea:	add    BYTE PTR [ebp+0x0],ah
  407ded:	bound  eax,QWORD PTR [eax]
  407def:	jae    0x407df1
  407df1:	imul   eax,DWORD PTR [eax],0x650074
  407df7:	dec    ecx
  407df8:	add    BYTE PTR [esi+0x0],ch
  407dfb:	push   edx
  407dfc:	add    BYTE PTR [ebp+0x0],ah
  407dff:	add    BYTE PTR [bx+di+0x0],ch
  407e03:	jae    0x407e05
  407e05:	je     0x407e07
  407e07:	jb     0x407e09
  407e09:	jns    0x407e0b
  407e0b:	add    BYTE PTR ds:0x610050,bl
  407e11:	arpl   WORD PTR [eax],ax
  407e13:	imul   eax,DWORD PTR [eax],0x69
  407e16:	add    BYTE PTR [esi+0x0],ch
  407e19:	add    BYTE PTR [bp+di+0x0],dl
  407e1d:	jns    0x407e1f
  407e1f:	ins    DWORD PTR es:[edi],dx
  407e20:	add    BYTE PTR [edx+0x0],ah
  407e23:	outs   dx,DWORD PTR ds:[esi]
  407e24:	add    BYTE PTR [eax+eax*1+0x73],ch
  407e28:	add    BYTE PTR [eax],al
  407e2a:	pop    ds
  407e2b:	push   ebx
  407e2c:	add    BYTE PTR [eax+0x0],ch
  407e2f:	jne    0x407e31
  407e31:	je     0x407e33
  407e33:	add    BYTE PTR fs:[edi+0x0],ch
  407e37:	ja     0x407e39
  407e39:	outs   dx,BYTE PTR ds:[esi]
  407e3a:	add    BYTE PTR [ebx+0x0],dl
  407e3d:	jne    0x407e3f
  407e3f:	arpl   WORD PTR [eax],ax
  407e41:	arpl   WORD PTR [eax],ax
  407e43:	add    BYTE PTR gs:[ebx+0x0],dh
  407e47:	jae    0x407e49
  407e49:	add    BYTE PTR ds:0x6e0055,ah
  407e4f:	push   0x6e006100
  407e54:	add    BYTE PTR [eax+eax*1+0x6c],ah
  407e58:	add    BYTE PTR [ebp+0x0],ah
  407e5b:	add    BYTE PTR fs:[ebp+0x0],al
  407e5f:	js     0x407e61
  407e61:	arpl   WORD PTR [eax],ax
  407e63:	add    BYTE PTR gs:[eax+0x0],dh
  407e67:	je     0x407e69
  407e69:	imul   eax,DWORD PTR [eax],0x6e006f
  407e6f:	add    BYTE PTR [ecx],dl
  407e71:	push   edi
  407e72:	add    BYTE PTR [ecx+0x0],ah
  407e75:	imul   eax,DWORD PTR [eax],0x540074
  407e7b:	add    BYTE PTR gs:[eax+0x0],bh
  407e7f:	je     0x407e81
  407e81:	add    BYTE PTR [edi],dl
  407e83:	push   edi
  407e84:	add    BYTE PTR [ecx+0x0],ah
  407e87:	jb     0x407e89
  407e89:	outs   dx,BYTE PTR ds:[esi]
  407e8a:	add    BYTE PTR [ecx+0x0],ch
  407e8d:	outs   dx,BYTE PTR ds:[esi]
  407e8e:	add    BYTE PTR [edi+0x0],ah
  407e91:	push   esp
  407e92:	add    BYTE PTR [ebp+0x0],ah
  407e95:	js     0x407e97
  407e97:	je     0x407e99
  407e99:	add    BYTE PTR ds:0x530041,cl
  407e9f:	push   eax
  407ea0:	add    BYTE PTR [esi+0x0],cl
  407ea3:	add    BYTE PTR gs:[eax+eax*1+0x0],dh
  407ea8:	cmovno eax,DWORD PTR [eax]
  407eab:	push   ebx
  407eac:	add    BYTE PTR [eax+0x0],dl
  407eaf:	add    BYTE PTR cs:[esi+0x0],ch
  407eb3:	add    BYTE PTR gs:[eax+eax*1+0x0],dh
  407eb8:	or     DWORD PTR [eax+0x0],ebp
  407ebb:	je     0x407ebd
  407ebd:	je     0x407ebf
  407ebf:	jo     0x407ec1
  407ec1:	add    BYTE PTR [ebx],al
  407ec3:	cmp    al,BYTE PTR [eax]
  407ec5:	add    BYTE PTR [ecx],al
  407ec7:	add    BYTE PTR [ecx+0x53],cl
  407eca:	add    BYTE PTR [edi+0x0],ch
  407ecd:	data16 add BYTE PTR [eax+eax*1+0x77],dh
  407ed2:	add    BYTE PTR [ecx+0x0],ah
  407ed5:	jb     0x407ed7
  407ed7:	add    BYTE PTR gs:[eax+eax*1+0x4d],bl
  407edc:	add    BYTE PTR [ecx+0x0],ch
  407edf:	arpl   WORD PTR [eax],ax
  407ee1:	jb     0x407ee3
  407ee3:	outs   dx,DWORD PTR ds:[esi]
  407ee4:	add    BYTE PTR [ebx+0x0],dh
  407ee7:	outs   dx,DWORD PTR ds:[esi]
  407ee8:	add    BYTE PTR [esi+0x0],ah
  407eeb:	je     0x407eed
  407eed:	pop    esp
  407eee:	add    BYTE PTR [esi+0x0],dl
  407ef1:	imul   eax,DWORD PTR [eax],0x750073
  407ef7:	popa   
  407ef8:	add    BYTE PTR [eax+eax*1+0x53],ch
  407efc:	add    BYTE PTR [eax+eax*1+0x75],dh
  407f00:	add    BYTE PTR [eax+eax*1+0x69],ah
  407f04:	add    BYTE PTR [edi+0x0],ch
  407f07:	pop    esp
  407f08:	add    BYTE PTR [ecx],dh
  407f0a:	add    BYTE PTR [ecx],dh
  407f0c:	add    BYTE PTR [esi],ch
  407f0e:	add    BYTE PTR [eax],dh
  407f10:	add    BYTE PTR [eax],al
  407f12:	popa   
  407f13:	push   ebx
  407f14:	add    BYTE PTR [edi+0x0],ch
  407f17:	data16 add BYTE PTR [eax+eax*1+0x77],dh
  407f1c:	add    BYTE PTR [ecx+0x0],ah
  407f1f:	jb     0x407f21
  407f21:	add    BYTE PTR gs:[eax+eax*1+0x57],bl
  407f26:	add    BYTE PTR [edi+0x0],ch
  407f29:	ja     0x407f2b
  407f2b:	add    BYTE PTR ss:[eax+eax*1],dh
  407f2f:	xor    eax,DWORD PTR [eax]
  407f31:	xor    al,BYTE PTR [eax]
  407f33:	dec    esi
  407f34:	add    BYTE PTR [edi+0x0],ch
  407f37:	add    BYTE PTR fs:[ebp+0x0],ah
  407f3b:	pop    esp
  407f3c:	add    BYTE PTR [ebp+0x0],cl
  407f3f:	imul   eax,DWORD PTR [eax],0x720063
  407f45:	outs   dx,DWORD PTR ds:[esi]
  407f46:	add    BYTE PTR [ebx+0x0],dh
  407f49:	outs   dx,DWORD PTR ds:[esi]
  407f4a:	add    BYTE PTR [esi+0x0],ah
  407f4d:	je     0x407f4f
  407f4f:	pop    esp
  407f50:	add    BYTE PTR [esi+0x0],dl
  407f53:	imul   eax,DWORD PTR [eax],0x750073
  407f59:	popa   
  407f5a:	add    BYTE PTR [eax+eax*1+0x53],ch
  407f5e:	add    BYTE PTR [eax+eax*1+0x75],dh
  407f62:	add    BYTE PTR [eax+eax*1+0x69],ah
  407f66:	add    BYTE PTR [edi+0x0],ch
  407f69:	pop    esp
  407f6a:	add    BYTE PTR [ecx],dh
  407f6c:	add    BYTE PTR [ecx],dh
  407f6e:	add    BYTE PTR [esi],ch
  407f70:	add    BYTE PTR [eax],dh
  407f72:	add    BYTE PTR [eax],al
  407f74:	and    ebx,DWORD PTR [eax+eax*1+0x56]
  407f78:	add    BYTE PTR [ebx+0x0],dl
  407f7b:	push   eax
  407f7c:	add    BYTE PTR [ebp+0x0],ah
  407f7f:	jb     0x407f81
  407f81:	data16 add BYTE PTR [edx+0x0],dl
  407f85:	add    BYTE PTR gs:[eax+0x0],dh
  407f89:	outs   dx,DWORD PTR ds:[esi]
  407f8a:	add    BYTE PTR [edx+0x0],dh
  407f8d:	je     0x407f8f
  407f8f:	add    BYTE PTR cs:[ebp+0x0],ah
  407f93:	js     0x407f95
  407f95:	add    BYTE PTR gs:[eax],al
  407f98:	add    esp,DWORD PTR [edx]
  407f9a:	add    BYTE PTR [eax],al
  407f9c:	aaa    
  407f9d:	and    al,BYTE PTR [eax]
  407f9f:	and    BYTE PTR [eax],al
  407fa1:	das    
  407fa2:	add    BYTE PTR [eax+0x0],dh
  407fa5:	popa   
  407fa6:	add    BYTE PTR [ebx+0x0],ah
  407fa9:	imul   eax,DWORD PTR [eax],0x73
  407fac:	add    BYTE PTR [ecx+0x0],bh
  407faf:	ins    DWORD PTR es:[edi],dx
  407fb0:	add    BYTE PTR [edx+0x0],ah
  407fb3:	outs   dx,DWORD PTR ds:[esi]
  407fb4:	add    BYTE PTR [eax+eax*1+0x73],ch
  407fb8:	add    BYTE PTR [eax],ah
  407fba:	add    BYTE PTR [edi],ch
  407fbc:	add    BYTE PTR [ebx+0x0],dh
  407fbf:	jne    0x407fc1
  407fc1:	ins    DWORD PTR es:[edi],dx
  407fc2:	add    BYTE PTR [ebp+0x0],ch
  407fc5:	popa   
  407fc6:	add    BYTE PTR [edx+0x0],dh
  407fc9:	jns    0x407fcb
  407fcb:	cmp    al,BYTE PTR [eax]
  407fcd:	popa   
  407fce:	add    BYTE PTR [eax+eax*1+0x6c],ch
  407fd2:	add    BYTE PTR [eax],al
  407fd4:	sub    DWORD PTR [ebx+0x0],eax
  407fd7:	dec    edi
  407fd8:	add    BYTE PTR [edx+0x0],dl
  407fdb:	pop    edi
  407fdc:	add    BYTE PTR [ebp+0x0],al
  407fdf:	dec    esi
  407fe0:	add    BYTE PTR [ecx+0x0],al
  407fe3:	inc    edx
  407fe4:	add    BYTE PTR [eax+eax*1+0x45],cl
  407fe8:	add    BYTE PTR [edi+0x0],bl
  407feb:	push   eax
  407fec:	add    BYTE PTR [edx+0x0],dl
  407fef:	dec    edi
  407ff0:	add    BYTE PTR [esi+0x0],al
  407ff3:	dec    ecx
  407ff4:	add    BYTE PTR [eax+eax*1+0x49],cl
  407ff8:	add    BYTE PTR [esi+0x0],cl
  407ffb:	inc    edi
  407ffc:	add    BYTE PTR [eax],al
  407ffe:	add    esi,DWORD PTR [ecx]
  408000:	add    BYTE PTR [eax],al
  408002:	sbb    DWORD PTR [ebx+0x0],eax
  408005:	dec    edi
  408006:	add    BYTE PTR [edx+0x0],dl
  408009:	pop    edi
  40800a:	add    BYTE PTR [eax+0x0],dl
  40800d:	push   edx
  40800e:	add    BYTE PTR [edi+0x0],cl
  408011:	inc    esi
  408012:	add    BYTE PTR [ecx+0x0],cl
  408015:	dec    esp
  408016:	add    BYTE PTR [ebp+0x0],al
  408019:	push   edx
  40801a:	add    BYTE PTR [eax],al
  40801c:	dec    ebp
  40801d:	jnp    0x40801f
  40801f:	xor    al,0x0
  408021:	xor    al,0x0
  408023:	popa   
  408024:	add    BYTE PTR [eax],bh
  408026:	add    BYTE PTR [esi],dh
  408028:	add    BYTE PTR [ebx+0x0],ah
  40802b:	popa   
  40802c:	add    BYTE PTR [eax+eax*1+0x2d],ah
  408030:	add    BYTE PTR [esi+0x0],ah
  408033:	aaa    
  408034:	add    BYTE PTR [ebp+0x0],ah
  408037:	add    BYTE PTR gs:0x32003400,ch
  40803e:	add    BYTE PTR [ecx],bh
  408040:	add    BYTE PTR [ebx+0x0],ah
  408043:	sub    eax,0x33003800
  408048:	add    BYTE PTR [ebp+0x0],ah
  40804b:	bound  eax,QWORD PTR [eax]
  40804d:	sub    eax,0x33006600
  408052:	add    BYTE PTR [ebx+0x0],ah
  408055:	add    BYTE PTR fs:[ebp+0x0],ah
  408059:	xor    eax,DWORD PTR [eax]
  40805b:	bound  eax,QWORD PTR [eax]
  40805d:	cmp    BYTE PTR [eax],al
  40805f:	aaa    
  408060:	add    BYTE PTR [edx+0x0],ah
  408063:	aaa    
  408064:	add    BYTE PTR [eax],dh
  408066:	add    BYTE PTR [ebp+0x0],bh
  408069:	add    DWORD PTR [ebp+0x7b],ecx
  40806c:	add    BYTE PTR [eax+eax*1+0x39],ah
  408070:	add    BYTE PTR [eax+eax*1+0x62],ah
  408074:	add    BYTE PTR [eax],bh
  408076:	add    BYTE PTR [ecx],dh
  408078:	add    BYTE PTR [eax+eax*1+0x62],ah
  40807c:	add    BYTE PTR ds:0x31003800,ch
  408082:	add    BYTE PTR [esi+0x0],ah
  408085:	add    BYTE PTR gs:0x36003400,ch
  40808c:	add    BYTE PTR [ecx],dh
  40808e:	add    BYTE PTR [ecx],dh
  408090:	add    BYTE PTR ds:0x31003800,ch
  408096:	add    BYTE PTR ds:0x2d006400,dh
  40809c:	add    BYTE PTR [ecx],dh
  40809e:	add    BYTE PTR [eax+eax*1],dh
  4080a1:	xor    al,0x0
  4080a3:	popa   
  4080a4:	add    BYTE PTR [eax+eax*1+0x35],ah
  4080a8:	add    BYTE PTR [edx],dh
  4080aa:	add    BYTE PTR [edx],dh
  4080ac:	add    BYTE PTR [ebp+0x0],ah
  4080af:	xor    DWORD PTR [eax],eax
  4080b1:	bound  eax,QWORD PTR [eax]
  4080b3:	xor    DWORD PTR [eax],eax
  4080b5:	jge    0x4080b7
  4080b7:	add    DWORD PTR ds:0x4f0043,esp
  4080bd:	push   edx
  4080be:	add    BYTE PTR [edi+0x0],bl
  4080c1:	dec    esp
  4080c2:	add    BYTE PTR [ecx+0x0],cl
  4080c5:	dec    esi
  4080c6:	add    BYTE PTR [ebp+0x0],al
  4080c9:	pop    edi
  4080ca:	add    BYTE PTR [eax+0x0],dl
  4080cd:	push   edx
  4080ce:	add    BYTE PTR [edi+0x0],cl
  4080d1:	inc    esi
  4080d2:	add    BYTE PTR [ecx+0x0],cl
  4080d5:	dec    esp
  4080d6:	add    BYTE PTR [ecx+0x0],cl
  4080d9:	dec    esi
  4080da:	add    BYTE PTR [edi+0x0],al
  4080dd:	add    BYTE PTR [ebx],dh
  4080df:	inc    ebx
  4080e0:	add    BYTE PTR [edi+0x0],cl
  4080e3:	push   edx
  4080e4:	add    BYTE PTR [edi+0x0],bl
  4080e7:	dec    ecx
  4080e8:	add    BYTE PTR [esi+0x0],cl
  4080eb:	push   esp
  4080ec:	add    BYTE PTR [ebp+0x0],al
  4080ef:	push   edx
  4080f0:	add    BYTE PTR [ecx+0x0],al
  4080f3:	inc    ebx
  4080f4:	add    BYTE PTR [eax+eax*1+0x49],dl
  4080f8:	add    BYTE PTR [edi+0x0],cl
  4080fb:	dec    esi
  4080fc:	add    BYTE PTR [edi+0x0],bl
  4080ff:	push   eax
  408100:	add    BYTE PTR [edx+0x0],dl
  408103:	dec    edi
  408104:	add    BYTE PTR [esi+0x0],al
  408107:	dec    ecx
  408108:	add    BYTE PTR [eax+eax*1+0x49],cl
  40810c:	add    BYTE PTR [esi+0x0],cl
  40810f:	inc    edi
  408110:	add    BYTE PTR [eax],al
  408112:	and    DWORD PTR [ebx+0x0],eax
  408115:	dec    edi
  408116:	add    BYTE PTR [edx+0x0],dl
  408119:	pop    edi
  40811a:	add    BYTE PTR [edi+0x0],al
  40811d:	inc    ebx
  40811e:	add    BYTE PTR [edi+0x0],bl
  408121:	push   eax
  408122:	add    BYTE PTR [edx+0x0],dl
  408125:	dec    edi
  408126:	add    BYTE PTR [esi+0x0],al
  408129:	dec    ecx
  40812a:	add    BYTE PTR [eax+eax*1+0x49],cl
  40812e:	add    BYTE PTR [esi+0x0],cl
  408131:	inc    edi
  408132:	add    BYTE PTR [eax],al
  408134:	add    ebx,DWORD PTR [eax+eax*1+0x0]
  408138:	adc    ebp,DWORD PTR [eax]
  40813a:	add    BYTE PTR [edi+0x0],bl
  40813d:	push   esp
  40813e:	add    BYTE PTR [edi+0x0],ch
  408141:	je     0x408143
  408143:	popa   
  408144:	add    BYTE PTR [eax+eax*1+0x29],ch
  408148:	add    BYTE PTR [eax+eax*1+0x0],bl
  40814c:	subps  xmm0,XMMWORD PTR [eax]
  40814f:	push   esi
  408150:	add    BYTE PTR [ebx+0x0],dl
  408153:	push   eax
  408154:	add    BYTE PTR [ebp+0x0],ah
  408157:	jb     0x408159
  408159:	data16 add BYTE PTR [eax],al
  40815c:	sub    eax,0x530056
  408161:	push   eax
  408162:	add    BYTE PTR [ebp+0x0],ah
  408165:	jb     0x408167
  408167:	data16 add BYTE PTR [ecx+0x0],al
  40816b:	jae    0x40816d
  40816d:	jo     0x40816f
  40816f:	dec    esi
  408170:	add    BYTE PTR [ebp+0x0],ah
  408173:	je     0x408175
  408175:	inc    ebx
  408176:	add    BYTE PTR [ebp+0x0],ch
  408179:	add    BYTE PTR fs:[edi+0x0],dl
  40817d:	add    BYTE PTR gs:[edx+0x0],ah
  408181:	jae    0x408183
  408183:	imul   eax,DWORD PTR [eax],0x650074
  408189:	add    BYTE PTR ds:0x530056,ch
  40818f:	push   eax
  408190:	add    BYTE PTR [ebp+0x0],ah
  408193:	jb     0x408195
  408195:	data16 add BYTE PTR [ecx+0x0],al
  408199:	jae    0x40819b
  40819b:	jo     0x40819d
  40819d:	dec    esi
  40819e:	add    BYTE PTR [ebp+0x0],ah
  4081a1:	je     0x4081a3
  4081a3:	inc    ebx
  4081a4:	add    BYTE PTR [ebp+0x0],ch
  4081a7:	add    BYTE PTR fs:[edi+0x0],cl
  4081ab:	jne    0x4081ad
  4081ad:	je     0x4081af
  4081af:	inc    esi
  4081b0:	add    BYTE PTR [ecx+0x0],ch
  4081b3:	ins    BYTE PTR es:[edi],dx
  4081b4:	add    BYTE PTR [ebp+0x0],ah
  4081b7:	add    BYTE PTR [ecx],bh
  4081b9:	push   esi
  4081ba:	add    BYTE PTR [ebx+0x0],dl
  4081bd:	push   eax
  4081be:	add    BYTE PTR [ebp+0x0],ah
  4081c1:	jb     0x4081c3
  4081c3:	data16 add BYTE PTR [ecx+0x0],al
  4081c7:	jae    0x4081c9
  4081c9:	jo     0x4081cb
  4081cb:	dec    esi
  4081cc:	add    BYTE PTR [ebp+0x0],ah
  4081cf:	je     0x4081d1
  4081d1:	inc    ebx
  4081d2:	add    BYTE PTR [ebp+0x0],ch
  4081d5:	add    BYTE PTR fs:[eax+0x0],dl
  4081d9:	jb     0x4081db
  4081db:	outs   dx,DWORD PTR ds:[esi]
  4081dc:	add    BYTE PTR [esi+0x0],ah
  4081df:	imul   eax,DWORD PTR [eax],0x69006c
  4081e5:	outs   dx,BYTE PTR ds:[esi]
  4081e6:	add    BYTE PTR [edi+0x0],ah
  4081e9:	push   esp
  4081ea:	add    BYTE PTR [ecx+0x0],bh
  4081ed:	jo     0x4081ef
  4081ef:	add    BYTE PTR gs:[eax],al
  4081f2:	or     DWORD PTR [eax+0x0],edx
  4081f5:	inc    ecx
  4081f6:	add    BYTE PTR [eax+eax*1+0x48],dl
  4081fa:	add    BYTE PTR [eax],al
  4081fc:	and    eax,0x4f0043
  408201:	dec    ebp
  408202:	add    BYTE PTR [eax+0x0],dl
  408205:	dec    esp
  408206:	add    BYTE PTR [ebp+0x0],dl
  408209:	push   ebx
  40820a:	add    BYTE PTR [edi+0x0],bl
  40820d:	inc    ebp
  40820e:	add    BYTE PTR [eax+eax*1+0x57],dl
  408212:	add    BYTE PTR [ebp+0x0],al
  408215:	outs   dx,BYTE PTR ds:[esi]
  408216:	add    BYTE PTR [ecx+0x0],ah
  408219:	bound  eax,QWORD PTR [eax]
  40821b:	ins    BYTE PTR es:[edi],dx
  40821c:	add    BYTE PTR [ebp+0x0],ah
  40821f:	add    BYTE PTR fs:[eax],al
  408222:	add    BYTE PTR [eax],al
  408224:	outs   dx,BYTE PTR ds:[esi]
  408225:	lods   al,BYTE PTR ds:[esi]
  408226:	test   al,0x6c
  408228:	shr    BYTE PTR [edx-0x12],0x48
  40822c:	mov    ch,0xe0
  40822e:	rcl    BYTE PTR [edx-0x37],1
  408231:	mov    al,ds:0x8008c6d
  408236:	mov    bh,0x7a
  408238:	pop    esp
  408239:	push   esi
  40823a:	sbb    DWORD PTR [eax+eiz*8],esi
  40823d:	mov    DWORD PTR [eax],ecx
  40823f:	mov    al,0x3f
  408241:	pop    edi
  408242:	jg     0x408255
  408244:	aad    0xa
  408246:	cmp    al,BYTE PTR [ebx]
  408248:	push   es
  408249:	adc    bl,BYTE PTR [ecx]
  40824b:	add    eax,DWORD PTR [esi]
  40824d:	adc    bl,BYTE PTR ds:0x1002003
  408253:	add    al,0x0
  408255:	add    BYTE PTR [edx],dl
  408257:	sbb    DWORD PTR [eax+eax*1],eax
  40825a:	add    BYTE PTR [edx],dl
  40825c:	sbb    eax,0x1010005
  408261:	adc    bl,BYTE PTR ds:0xe000003
  408267:	add    al,0x8
  408269:	add    BYTE PTR [edx],dl
  40826b:	sbb    DWORD PTR [eax+ecx*1],eax
  40826e:	add    BYTE PTR [edx],dl
  408270:	sbb    eax,0xe000803
  408275:	add    eax,0x12010120
  40827a:	adc    DWORD PTR ds:0x12020120,eax
  408280:	or     eax,0xe002003
  408285:	add    esp,DWORD PTR [eax]
  408287:	add    BYTE PTR [edx],al
  408289:	pop    es
  40828a:	and    BYTE PTR [ebx],al
  40828c:	add    dl,BYTE PTR [edx]
  40828e:	or     eax,0x20040e0e
  408293:	add    BYTE PTR [edx],dl
  408295:	or     eax,0x1012005
  40829a:	adc    ah,BYTE PTR [ecx]
  40829c:	push   es
  40829d:	and    BYTE PTR [ecx],al
  40829f:	add    DWORD PTR [eax],edx
  4082a1:	adc    dl,BYTE PTR [eax]
  4082a3:	add    eax,0x12010120
  4082a8:	adc    BYTE PTR [eax+eiz*1],al
  4082ab:	add    DWORD PTR [edx],eax
  4082ad:	push   cs
  4082ae:	add    eax,0x12020120
  4082b3:	and    DWORD PTR [eax+eiz*1],eax
  4082b6:	add    DWORD PTR [ecx],eax
  4082b8:	push   cs
  4082b9:	add    al,0x20
  4082bb:	add    BYTE PTR [edx],dl
  4082bd:	and    eax,0x12002004
  4082c2:	sub    DWORD PTR [edx],eax
  4082c4:	push   es
  4082c5:	push   cs
  4082c6:	add    al,BYTE PTR [esi]
  4082c8:	add    al,BYTE PTR [ebx]
  4082ca:	push   es
  4082cb:	adc    ch,BYTE PTR ds:0x29120603
  4082d1:	add    eax,DWORD PTR [esi]
  4082d3:	sbb    eax,0x1206030e
  4082d8:	adc    BYTE PTR [ebx],al
  4082da:	sub    BYTE PTR [eax],al
  4082dc:	push   cs
  4082dd:	add    ebp,DWORD PTR [eax]
  4082df:	add    BYTE PTR [edx],al
  4082e1:	add    al,0x28
  4082e3:	add    BYTE PTR [edx],dl
  4082e5:	and    eax,0x12002804
  4082ea:	sub    DWORD PTR [eax+eiz*1],eax
  4082ed:	add    DWORD PTR [ecx],eax
  4082ef:	add    al,BYTE PTR ds:0x1d010100
  4082f5:	push   cs
  4082f6:	add    eax,0x1d010120
  4082fb:	push   cs
  4082fc:	add    eax,0x1d020120
  408301:	push   cs
  408302:	or     BYTE PTR [eax],ah
  408304:	add    BYTE PTR ds:0x12013112,dl
  40830a:	or     DWORD PTR [esi],eax
  40830c:	and    BYTE PTR [ecx],al
  40830e:	adc    cl,BYTE PTR ds:0x20060e1d
  408314:	add    DWORD PTR [edx],eax
  408316:	adc    BYTE PTR ds:0x30e,bl
  40831c:	add    DWORD PTR ds:0x11010120,eax
  408322:	xor    eax,0x12150607
  408327:	xor    DWORD PTR [ecx],eax
  408329:	adc    cl,BYTE PTR [ecx]
  40832b:	or     BYTE PTR [esi],al
  40832d:	adc    eax,0xe023912
  408332:	adc    cl,BYTE PTR [ecx]
  408334:	add    eax,DWORD PTR [esi]
  408336:	adc    cl,BYTE PTR [ecx]
  408338:	push   es
  408339:	and    BYTE PTR [edx],al
  40833b:	add    DWORD PTR [esi],ecx
  40833d:	adc    DWORD PTR ds:0x1032008,esi
  408343:	push   cs
  408344:	sbb    eax,0x435111c
  408349:	and    BYTE PTR [ecx],al
  40834b:	add    DWORD PTR [eax],ecx
  40834d:	add    al,BYTE PTR [esi]
  40834f:	or     BYTE PTR [eax+eax*1],al
  408352:	add    BYTE PTR [eax],al
  408354:	add    BYTE PTR [eax+eax*1],al
  408357:	add    DWORD PTR [edx],eax
  408359:	sbb    BYTE PTR [eax],cl
  40835b:	add    BYTE PTR [ebx],al
  40835d:	or     BYTE PTR [esi],cl
  40835f:	adc    BYTE PTR [ecx],dl
  408361:	sbb    al,0x18
  408363:	or     DWORD PTR [eax],eax
  408365:	add    al,0x9
  408367:	push   cs
  408368:	or     DWORD PTR [edx],edx
  40836a:	cmp    eax,0x40910
  40836f:	add    DWORD PTR [edx],eax
  408371:	or     DWORD PTR [edx],eax
  408373:	push   es
  408374:	sbb    BYTE PTR ds:0x11010120,al
  40837a:	inc    ebp
  40837b:	add    DWORD PTR [edx],eax
  40837d:	push   es
  40837e:	and    BYTE PTR [ecx],al
  408380:	add    DWORD PTR [ecx],edx
  408382:	adc    BYTE PTR [ebp+0x2400a080],0x0
  408389:	add    BYTE PTR [eax+eax*4],al
  40838c:	add    BYTE PTR [eax],al
  40838e:	xchg   esp,eax
  40838f:	add    BYTE PTR [eax],al
  408391:	add    BYTE PTR [esi],al
  408393:	add    al,BYTE PTR [eax]
  408395:	add    BYTE PTR [eax],al
  408397:	and    al,0x0
  408399:	add    BYTE PTR [edx+0x53],dl
  40839c:	inc    ecx
  40839d:	xor    DWORD PTR [eax],eax
  40839f:	add    al,0x0
  4083a1:	add    BYTE PTR [ecx],al
  4083a3:	add    BYTE PTR [ecx],al
  4083a5:	add    BYTE PTR [edi],al
  4083a7:	sar    edx,1
  4083a9:	push   edi
  4083aa:	les    ebp,FWORD PTR [esi+0x2ea3f0d9]
  4083b0:	test   BYTE PTR [edx+0xdfdae0f],ch
  4083b6:	jmp    0xecab81a3
  4083bb:	pop    DWORD PTR [edi+0x6c7603fb]
  4083c1:	or     DWORD PTR [ecx+ebx*4-0x6e],0x1e
  4083c6:	mov    dl,0x3b
  4083c8:	out    0x9a,eax
  4083ca:	(bad)  
  4083cc:	fadd   st(1),st
  4083ce:	fstp   QWORD PTR [edx+0x211336d2]
  4083d4:	add    dl,BYTE PTR [eax-0x6c38df5]
  4083da:	adc    BYTE PTR [ebp+0x77e1c47f],0x10
  4083e1:	pop    esi
  4083e3:	pop    es
  4083e4:	ja     0x408435
  4083e6:	sub    eax,ebp
  4083e8:	xor    cl,BYTE PTR [esi]
  4083ea:	xchg   edx,eax
  4083eb:	jmp    0xc021:0xe8e4ec05
  4083f2:	movs   DWORD PTR es:[edi],DWORD PTR ds:[esi]
  4083f3:	out    dx,eax
  4083f4:	call   0x4c9ce8ea
  4083f9:	or     al,0x93
  4083fb:	shr    DWORD PTR [ebx+0x625d2899],0x2c
  408402:	stos   BYTE PTR es:[edi],al
  408403:	gs sub al,0x1d
  408406:	cli    
  408407:	(bad)  
  408408:	cmp    eax,0x2d6f5d74
  40840d:	in     eax,0xf1
  40840f:	jle    0x40846f
  408411:	scas   eax,DWORD PTR es:[edi]
  408412:	pinsrw mm2,WORD PTR [esi-0x75e3d9c3],0x12
  40841a:	inc    ebx
  40841b:	sbb    BYTE PTR gs:[eax],ah
  40841e:	ins    DWORD PTR es:[edi],dx
  40841f:	rcl    BYTE PTR [ebx-0x2da5b2cc],0x93
  408426:	add    eax,0xe010220
  40842b:	push   cs
  40842c:	inc    eax
  40842d:	add    DWORD PTR [eax],eax
  40842f:	xor    edx,DWORD PTR [ebx+0x79]
  408432:	jae    0x4084a8
  408434:	gs ins DWORD PTR es:[edi],dx
  408436:	cs push edx
  408438:	gs jae 0x4084aa
  40843b:	jne    0x4084af
  40843d:	arpl   WORD PTR [ebp+0x73],sp
  408440:	cs push esp
  408442:	outs   dx,DWORD PTR ds:[esi]
  408443:	outs   dx,DWORD PTR ds:[esi]
  408444:	ins    BYTE PTR es:[edi],dx
  408445:	jae    0x408475
  408447:	push   ebx
  408448:	je     0x4084bc
  40844a:	outs   dx,DWORD PTR ds:[esi]
  40844b:	outs   dx,BYTE PTR ds:[esi]
  40844c:	ins    BYTE PTR es:[di],dx
  40844e:	jns    0x4084a4
  408450:	jns    0x4084c2
  408452:	gs fs push edx
  408455:	gs jae 0x4084c7
  408458:	jne    0x4084cc
  40845a:	arpl   WORD PTR [ebp+0x42],sp
  40845d:	jne    0x4084c8
  40845f:	ins    BYTE PTR es:[edi],dx
  408460:	fs gs jb 0x40846b
  408464:	xor    al,0x2e
  408466:	xor    BYTE PTR [esi],ch
  408468:	xor    BYTE PTR [esi],ch
  40846a:	xor    BYTE PTR [eax],al
  40846c:	add    BYTE PTR [ecx+eax*1],al
  40846f:	add    BYTE PTR [eax],al
  408471:	add    BYTE PTR ds:0x1c020200,al
  408477:	sbb    al,0x8
  408479:	add    BYTE PTR [ecx],al
  40847b:	adc    al,BYTE PTR [eax-0x527fee57]
  408481:	add    eax,0x80120020
  408486:	mov    cl,0x7
  408488:	and    BYTE PTR [edx],al
  40848a:	add    DWORD PTR [esi],ecx
  40848c:	adc    al,BYTE PTR [eax+0x10704b1]
  408492:	adc    bl,BYTE PTR [ecx]
  408494:	push   es
  408495:	and    BYTE PTR [edx],al
  408497:	push   cs
  408498:	push   cs
  408499:	adc    bl,BYTE PTR ds:0x1012006
  40849f:	adc    DWORD PTR [eax+0x108b9],eax
  4084a5:	add    al,BYTE PTR [eax]
  4084a7:	add    BYTE PTR [eax],al
  4084a9:	add    BYTE PTR [eax],al
  4084ab:	add    al,0x0
  4084ad:	add    DWORD PTR [edx],eax
  4084af:	push   cs
  4084b0:	add    al,0x7
  4084b2:	add    DWORD PTR [edx],edx
  4084b4:	and    DWORD PTR ds:0xe020200,eax
  4084ba:	push   cs
  4084bb:	push   es
  4084bc:	add    BYTE PTR [ebx],al
  4084be:	push   cs
  4084bf:	push   cs
  4084c0:	push   cs
  4084c1:	push   cs
  4084c2:	or     BYTE PTR [edi],al
  4084c4:	add    al,0x12
  4084c6:	adc    BYTE PTR [esi],cl
  4084c8:	push   cs
  4084c9:	sbb    eax,0x320070e
  4084ce:	add    DWORD PTR [esi],ecx
  4084d0:	sbb    al,0x11
  4084d2:	xor    eax,0x12010704
  4084d7:	adc    BYTE PTR [edi],al
  4084d9:	add    BYTE PTR [edx],al
  4084db:	add    dl,BYTE PTR [edx]
  4084dd:	and    DWORD PTR [edx],edx
  4084df:	and    DWORD PTR [edi],eax
  4084e1:	add    BYTE PTR [ecx],al
  4084e3:	adc    ch,BYTE PTR ds:0x4c18012
  4084e9:	and    BYTE PTR [ecx],al
  4084eb:	sbb    al,0xe
  4084ed:	push   es
  4084ee:	and    BYTE PTR [ecx],al
  4084f0:	add    DWORD PTR [ecx],edx
  4084f2:	or     cl,0x6
  4084f5:	pop    es
  4084f6:	add    al,0x1c
  4084f8:	push   cs
  4084f9:	push   cs
  4084fa:	push   cs
  4084fb:	add    eax,0xe010220
  408500:	sbb    al,0x5
  408502:	and    BYTE PTR [eax],al
  408504:	adc    DWORD PTR [eax+0x20007c9],eax
  40850a:	add    cl,BYTE PTR [esi]
  40850c:	adc    DWORD PTR [eax+0x22007cd],eax
  408512:	add    DWORD PTR [esi],ecx
  408514:	adc    DWORD PTR [eax+0x10004cd],eax
  40851a:	add    DWORD PTR [esi],ecx
  40851c:	push   es
  40851d:	and    BYTE PTR [ecx],al
  40851f:	add    dl,BYTE PTR [edx]
  408521:	adc    ch,0xf
  408524:	pop    es
  408525:	add    eax,0x12dd8012
  40852a:	add    ch,0x12
  40852d:	sbb    ch,0x12
  408530:	sbb    cl,0x2
  408533:	add    eax,0x80120000
  408538:	mov    cl,0x4
  40853a:	add    BYTE PTR [ecx],al
  40853c:	push   cs
  40853d:	push   cs
  40853e:	add    eax,0xe0e0200
  408543:	push   cs
  408544:	push   es
  408545:	and    BYTE PTR [ecx],al
  408547:	add    DWORD PTR [edx],edx
  408549:	sub    cl,0x14
  40854c:	pop    es
  40854d:	or     BYTE PTR [edx],al
  40854f:	adc    al,BYTE PTR [eax+0x120e0edd]
  408555:	and    ch,0x12
  408558:	add    ch,0x12
  40855b:	sbb    ch,0x12
  40855e:	sbb    cl,0x6
  408561:	adc    eax,0xe023912
  408566:	push   cs
  408567:	pop    es
  408568:	and    BYTE PTR [edx],al
  40856a:	add    DWORD PTR [ebx],edx
  40856c:	add    BYTE PTR [ebx],dl
  40856e:	add    DWORD PTR ds:0x80110020,eax
  408574:	in     eax,dx
  408575:	push   es
  408576:	and    BYTE PTR [ecx],al
  408578:	push   cs
  408579:	adc    al,BYTE PTR [eax+0x200bf5]
  40857f:	adc    eax,0x2f98012
  408584:	adc    eax,DWORD PTR [eax]
  408586:	adc    eax,DWORD PTR [ecx]
  408588:	pop    es
  408589:	adc    eax,0x2f98012
  40858e:	push   cs
  40858f:	push   cs
  408590:	add    esp,DWORD PTR [eax]
  408592:	add    BYTE PTR [eax],cl
  408594:	pop    es
  408595:	and    BYTE PTR [edx],al
  408597:	add    DWORD PTR ds:0xb080013,ebx
  40859d:	and    BYTE PTR [eax],al
  40859f:	adc    eax,0x2fd8012
  4085a4:	adc    eax,DWORD PTR [eax]
  4085a6:	adc    eax,DWORD PTR [ecx]
  4085a8:	pop    es
  4085a9:	adc    eax,0x2fd8012
  4085ae:	push   cs
  4085af:	push   cs
  4085b0:	pop    es
  4085b1:	and    BYTE PTR [edx],al
  4085b3:	add    DWORD PTR ds:0x7080113,ebx
  4085b9:	and    BYTE PTR [edx],al
  4085bb:	add    DWORD PTR ds:0xe0e1d0e,ebx
  4085c1:	pop    es
  4085c2:	add    eax,0x2391215
  4085c7:	push   cs
  4085c8:	push   cs
  4085c9:	sbb    eax,0x80e1d0e
  4085ce:	or     BYTE PTR [esi],al
  4085d0:	adc    eax,0x1018112
  4085d5:	push   cs
  4085d6:	add    eax,0x13010120
  4085db:	add    BYTE PTR ds:0x131d0020,al
  4085e1:	add    BYTE PTR [eax+eiz*1],cl
  4085e4:	pop    es
  4085e5:	add    DWORD PTR [ecx],edx
  4085e7:	add    DWORD PTR ds:0x21c1c0e,0x2005091c
  4085f1:	add    BYTE PTR [edx],dl
  4085f3:	or     DWORD PTR [ecx],0x1012006
  4085f9:	adc    DWORD PTR [ecx+0x4070d0d],eax
  4085ff:	adc    eax,0x1018112
  408604:	push   cs
  408605:	sbb    eax,0xe1d090e
  40860a:	add    eax,0x1d0e0100
  40860f:	sbb    al,0xa
  408611:	pop    es
  408612:	add    eax,0x3d12090e
  408617:	adc    bh,BYTE PTR ds:0x6021c1d
  40861d:	or     DWORD PTR ds:0x8010220,eax
  408623:	push   cs
  408624:	add    al,0x20
  408626:	add    DWORD PTR [edx],eax
  408628:	or     BYTE PTR ds:0x80120107,al
  40862e:	fld    DWORD PTR [esi]
  408630:	add    BYTE PTR [ecx],al
  408632:	adc    al,BYTE PTR [eax+0x7090ee5]
  408638:	add    al,0x11
  40863a:	sbb    al,0x8
  40863c:	adc    al,BYTE PTR [eax+0x60302d9]
  408642:	adc    ah,BYTE PTR ds:0x12022006
  408648:	and    eax,0x2005020e
  40864d:	add    DWORD PTR [edx],edx
  40864f:	and    eax,0x207050e
  408654:	adc    ah,BYTE PTR ds:0x107040e
  40865a:	sbb    eax,0x107040e
  40865f:	adc    dl,BYTE PTR [edi+eax*1]
  408662:	adc    eax,0xe023912
  408667:	adc    cl,BYTE PTR [ecx]
  408669:	push   es
  40866a:	adc    eax,0x12013112
  40866f:	or     DWORD PTR [ecx],ecx
  408671:	and    BYTE PTR [eax],al
  408673:	adc    eax,0x1298112
  408678:	adc    eax,DWORD PTR [eax]
  40867a:	pop    es
  40867b:	adc    eax,0x1298112
  408680:	adc    cl,BYTE PTR [ecx]
  408682:	add    al,0x20
  408684:	add    BYTE PTR [ebx],dl
  408686:	add    BYTE PTR [ebx],cl
  408688:	pop    es
  408689:	add    dl,BYTE PTR [edx]
  40868b:	or     DWORD PTR ds:0x1298112,edx
  408691:	adc    cl,BYTE PTR [ecx]
  408693:	add    eax,DWORD PTR [eax]
  408695:	add    BYTE PTR [eax],cl
  408697:	add    al,0x7
  408699:	add    DWORD PTR [edx],edx
  40869b:	or     eax,0x81121507
  4086a0:	cmp    DWORD PTR [ecx],eax
  4086a2:	adc    cl,BYTE PTR [ecx]
  4086a4:	or     ah,BYTE PTR [eax]
  4086a6:	add    DWORD PTR [ecx],eax
  4086a8:	adc    eax,0x13d8112
  4086ad:	adc    eax,DWORD PTR [eax]
  4086af:	or     DWORD PTR [edi],eax
  4086b1:	add    DWORD PTR ds:0x1398112,edx
  4086b7:	adc    cl,BYTE PTR [ecx]
  4086b9:	push   es
  4086ba:	and    BYTE PTR [ecx],al
  4086bc:	adc    eax,DWORD PTR [ecx]
  4086be:	adc    eax,DWORD PTR [eax]
  4086c0:	add    eax,0x81120020
  4086c5:	inc    ecx
  4086c6:	add    eax,0x81120020
  4086cb:	inc    ebp
  4086cc:	or     DWORD PTR [eax],eax
  4086ce:	add    ecx,DWORD PTR [esi]
  4086d0:	adc    al,BYTE PTR [eax+0x1c1d0ef5]
  4086d6:	push   es
  4086d7:	pop    es
  4086d8:	add    ecx,DWORD PTR [esi]
  4086da:	push   cs
  4086db:	sbb    eax,0x107031c
  4086e0:	push   cs
  4086e1:	push   es
  4086e2:	and    BYTE PTR [ecx],al
  4086e4:	add    DWORD PTR [ecx],edx
  4086e6:	adc    DWORD PTR [ebp+0x37],0x2e1a0001
  4086ed:	dec    esi
  4086ee:	inc    ebp
  4086ef:	push   esp
  4086f0:	inc    esi
  4086f1:	jb     0x408754
  4086f3:	ins    DWORD PTR es:[edi],dx
  4086f4:	gs ja  0x408766
  4086f7:	jb     0x408764
  4086f9:	sub    al,0x56
  4086fb:	gs jb  0x408771
  4086fe:	imul   ebp,DWORD PTR [edi+0x6e],0x2e34763d
  408705:	xor    BYTE PTR [ecx],al
  408707:	add    BYTE PTR [esi+ecx*1+0x14],dl
  40870b:	inc    esi
  40870c:	jb     0x40876f
  40870e:	ins    DWORD PTR es:[edi],dx
  40870f:	gs ja  0x408781
  408712:	jb     0x40877f
  408714:	inc    esp
  408715:	imul   esi,DWORD PTR [ebx+0x70],0x4e79616c
  40871c:	popa   
  40871d:	ins    DWORD PTR es:[edi],dx
  40871e:	add    BYTE PTR gs:0x1,al
  408725:	add    BYTE PTR ds:0x10001,al
  40872b:	add    BYTE PTR [eax],bl
  40872d:	add    DWORD PTR [eax],eax
  40872f:	adc    edx,DWORD PTR [esi+0x53]
  408732:	push   eax
  408733:	gs jb  0x40879c
  408736:	inc    ecx
  408737:	jae    0x4087a9
  408739:	dec    esi
  40873a:	gs je  0x408780
  40873d:	ins    DWORD PTR es:[edi],dx
  40873e:	fs cs gs js 0x4087a8
  408743:	add    BYTE PTR [eax],al
  408745:	sbb    al,BYTE PTR [ecx]
  408747:	add    BYTE PTR ds:0x7263694d,dl
  40874d:	outs   dx,DWORD PTR ds:[esi]
  40874e:	jae    0x4087bf
  408750:	data16 je 0x408773
  408753:	inc    ebx
  408754:	outs   dx,DWORD PTR ds:[esi]
  408755:	jb     0x4087c7
  408757:	outs   dx,DWORD PTR ds:[esi]
  408758:	jb     0x4087bb
  40875a:	je     0x4087c5
  40875c:	outs   dx,DWORD PTR ds:[esi]
  40875d:	outs   dx,BYTE PTR ds:[esi]
  40875e:	add    BYTE PTR [eax],al
  408760:	and    eax,0x4d200001
  408765:	imul   esp,DWORD PTR [ebx+0x72],0x666f736f
  40876c:	je     0x408730
  40876e:	scas   al,BYTE PTR es:[edi]
  40876f:	and    BYTE PTR [esi+0x69],dl
  408772:	jae    0x4087e9
  408774:	popa   
  408775:	ins    BYTE PTR es:[edi],dx
  408776:	and    BYTE PTR [ebx+0x74],dl
  408779:	jne    0x4087df
  40877b:	imul   ebp,DWORD PTR [edi-0x3e],0x303220ae
  408782:	xor    DWORD PTR [edx],esi
  408784:	add    BYTE PTR [eax],al
  408786:	xor    eax,DWORD PTR [ecx]
  408788:	add    BYTE PTR [esi],ch
  40878a:	ret    0x20a9
  40878d:	dec    ebp
  40878e:	imul   esp,DWORD PTR [ebx+0x72],0x666f736f
  408795:	je     0x4087b7
  408797:	inc    ebx
  408798:	outs   dx,DWORD PTR ds:[esi]
  408799:	jb     0x40880b
  40879b:	outs   dx,DWORD PTR ds:[esi]
  40879c:	jb     0x4087ff
  40879e:	je     0x408809
  4087a0:	outs   dx,DWORD PTR ds:[esi]
  4087a1:	outs   dx,BYTE PTR ds:[esi]
  4087a2:	and    BYTE PTR cs:[ecx+0x6c],al
  4087a6:	ins    BYTE PTR es:[edi],dx
  4087a7:	and    BYTE PTR [edx+0x69],dh
  4087aa:	addr16 push 0x72207374
  4087b0:	gs jae 0x408818
  4087b3:	jb     0x40882b
  4087b5:	gs fs add BYTE PTR cs:[eax],al
  4087ba:	adc    DWORD PTR [ecx],eax
  4087bc:	add    BYTE PTR [ecx+esi*1],cl
  4087bf:	xor    DWORD PTR [esi],ebp
  4087c1:	xor    BYTE PTR [esi],ch
  4087c3:	xor    eax,0x37323730
  4087c8:	xor    DWORD PTR cs:[eax],eax
  4087cb:	add    BYTE PTR ds:0x31080001,cl
  4087d1:	xor    DWORD PTR [esi],ebp
  4087d3:	xor    BYTE PTR [esi],ch
  4087d5:	xor    BYTE PTR [esi],ch
  4087d7:	xor    BYTE PTR [eax],al
  4087d9:	add    BYTE PTR [edx],cl
  4087db:	add    DWORD PTR [eax],eax
  4087dd:	add    eax,0x552d6e65
  4087e2:	push   ebx
  4087e3:	add    BYTE PTR [eax],al
  4087e5:	sub    al,BYTE PTR [ecx]
  4087e7:	add    BYTE PTR ds:0x645c3a46,ah
  4087ed:	fs pop esp
  4087ef:	je     0x408860
  4087f1:	outs   dx,DWORD PTR ds:[esi]
  4087f2:	ins    BYTE PTR es:[edi],dx
  4087f3:	jae    0x408851
  4087f5:	fs gs jbe 0x40885d
  4087f9:	imul   esi,DWORD PTR [esi+0x5c],0x616e6946
  408800:	ins    BYTE PTR es:[edi],dx
  408801:	push   eax
  408802:	jne    0x408866
  408804:	ins    BYTE PTR es:[edi],dx
  408805:	imul   esp,DWORD PTR [ebx+0x4b],0x732e7965
  40880c:	outs   dx,BYTE PTR ds:[esi]
  40880d:	imul   eax,DWORD PTR [eax],0x0
  408810:	push   ds
  408811:	add    DWORD PTR [eax],eax
  408813:	add    DWORD PTR [eax],eax
  408815:	push   esp
  408816:	add    dl,BYTE PTR [esi]
  408818:	push   edi
  408819:	jb     0x40887c
  40881b:	jo     0x40886b
  40881d:	outs   dx,DWORD PTR ds:[esi]
  40881e:	outs   dx,BYTE PTR ds:[esi]
  40881f:	inc    ebp
  408820:	js     0x408885
  408822:	gs jo  0x408899
  408825:	imul   ebp,DWORD PTR [edi+0x6e],0x6f726854
  40882c:	ja     0x4088a1
  40882e:	add    DWORD PTR [eax],ecx
  408830:	add    DWORD PTR [eax],eax
  408832:	or     BYTE PTR [eax],al
	...
  40883c:	dec    ebx
  40883d:	ficom  DWORD PTR [ecx]
  40883f:	push   eax
  408840:	add    BYTE PTR [eax],al
  408842:	add    BYTE PTR [eax],al
  408844:	add    al,BYTE PTR [eax]
  408846:	add    BYTE PTR [eax],al
  408848:	sbb    al,0x1
  40884a:	add    BYTE PTR [eax],al
  40884c:	push   esp
  40884d:	mov    BYTE PTR [eax],al
  40884f:	add    BYTE PTR [edx+ebp*2+0x0],dl
  408853:	add    BYTE PTR [edx+0x53],dl
  408856:	inc    esp
  408857:	push   ebx
  408858:	and    DWORD PTR [ebx],0x6ac40b64
  40885e:	xchg   esi,eax
  40885f:	dec    edx
  408860:	mov    eax,ds:0xb9dee7bb
  408865:	out    0x9a,al
  408867:	js     0x40886a
  408869:	add    BYTE PTR [eax],al
  40886b:	add    BYTE PTR [esi+0x3a],ah
  40886e:	pop    esp
  40886f:	bound  ebp,QWORD PTR [ecx+0x6e]
  408872:	popa   
  408873:	jb     0x4088de
  408875:	gs jae 0x4088d4
  408878:	dec    ecx
  408879:	outs   dx,BYTE PTR ds:[esi]
  40887a:	je     0x4088e1
  40887c:	jb     0x4088eb
  40887e:	gs imul esp,DWORD PTR fs:[ecx+0x74],0x63695c65
  408887:	arpl   WORD PTR gs:[ecx+0x70],sp
  40888b:	pop    esp
  40888c:	jbe    0x408901
  40888e:	jo     0x4088f5
  408890:	jb     0x4088f8
  408892:	popa   
  408893:	jae    0x408905
  408895:	outs   dx,BYTE PTR ds:[esi]
  408896:	gs je  0x4088fc
  408899:	ins    DWORD PTR es:[edi],dx
  40889a:	fs arpl WORD PTR cs:[ebx+0x70],si
  40889f:	jb     0x408910
  4088a1:	push   0x5f
  4088a3:	xor    DWORD PTR [ebx],esi
  4088a5:	xor    esi,DWORD PTR [edi]
  4088a7:	aaa    
  4088a8:	xor    al,0x36
  4088aa:	xor    al,0x39
  4088ac:	aaa    
  4088ad:	pop    esp
  4088ae:	outs   dx,DWORD PTR ds:[esi]
  4088af:	bound  ebp,QWORD PTR [edx+0x72]
  4088b2:	pop    esp
  4088b3:	js     0x4088ed
  4088b5:	ss pop esp
  4088b7:	push   esi
  4088b8:	push   ebx
  4088b9:	push   eax
  4088ba:	gs jb  0x408923
  4088bd:	inc    ecx
  4088be:	jae    0x408930
  4088c0:	dec    esi
  4088c1:	gs je  0x408907
  4088c4:	ins    DWORD PTR es:[edi],dx
  4088c5:	fs cs jo 0x40892d
  4088c9:	bound  eax,QWORD PTR [eax]
	...
  40896f:	add    BYTE PTR [eax+0x89],bl
  408975:	add    BYTE PTR [eax],al
  408977:	add    BYTE PTR [eax],al
  408979:	add    BYTE PTR [eax],al
  40897b:	add    BYTE PTR [esi+0x89],ch
  408981:	and    BYTE PTR [eax],al
	...
  408997:	add    BYTE PTR [eax+0x89],ah
  40899d:	add    BYTE PTR [eax],al
  40899f:	add    BYTE PTR [eax],al
  4089a1:	add    BYTE PTR [edi+0x43],bl
  4089a4:	outs   dx,DWORD PTR ds:[esi]
  4089a5:	jb     0x4089ec
  4089a7:	js     0x408a0e
  4089a9:	dec    ebp
  4089aa:	popa   
  4089ab:	imul   ebp,DWORD PTR [esi+0x0],0x6f63736d
  4089b2:	jb     0x408a19
  4089b4:	gs cs fs ins BYTE PTR es:[edi],dx
  4089b8:	ins    BYTE PTR es:[edi],dx
  4089b9:	add    BYTE PTR [eax],al
  4089bb:	add    BYTE PTR [eax],al
  4089bd:	add    bh,bh
  4089bf:	and    eax,0x402000

Disassembly of section .rsrc:

0040a000 <.rsrc>:
	...
  40a00c:	add    BYTE PTR [eax],al
  40a00e:	add    al,BYTE PTR [eax]
  40a010:	adc    BYTE PTR [eax],al
  40a012:	add    BYTE PTR [eax],al
  40a014:	and    BYTE PTR [eax],al
  40a016:	add    BYTE PTR [eax+0x18],al
  40a01c:	cmp    BYTE PTR [eax],al
  40a01e:	add    BYTE PTR [eax+0x0],al
	...
  40a02c:	add    BYTE PTR [eax],al
  40a02e:	add    DWORD PTR [eax],eax
  40a030:	add    DWORD PTR [eax],eax
  40a032:	add    BYTE PTR [eax],al
  40a034:	push   eax
  40a035:	add    BYTE PTR [eax],al
  40a037:	add    BYTE PTR [eax],0x0
	...
  40a046:	add    DWORD PTR [eax],eax
  40a048:	add    DWORD PTR [eax],eax
  40a04a:	add    BYTE PTR [eax],al
  40a04c:	push   0x800000
	...
  40a05d:	add    BYTE PTR [ecx],al
  40a05f:	add    BYTE PTR [eax],al
  40a061:	add    BYTE PTR [eax],al
  40a063:	add    BYTE PTR [eax+0x0],al
	...
  40a075:	add    BYTE PTR [ecx],al
  40a077:	add    BYTE PTR [eax],al
  40a079:	add    BYTE PTR [eax],al
  40a07b:	add    BYTE PTR [eax-0x60000000],dl
  40a081:	mov    al,ds:0x3e80000
	...
  40a08e:	add    BYTE PTR [eax],al
  40a090:	mov    BYTE PTR [eax+eax*1+0x1ea00],ah
	...
  40a09f:	add    al,ch
  40a0a1:	add    esi,DWORD PTR [eax+eax*1]
  40a0a4:	add    BYTE PTR [eax],al
  40a0a6:	push   esi
  40a0a7:	add    BYTE PTR [ebx+0x0],dl
  40a0aa:	pop    edi
  40a0ab:	add    BYTE PTR [esi+0x0],dl
  40a0ae:	inc    ebp
  40a0af:	add    BYTE PTR [edx+0x0],dl
  40a0b2:	push   ebx
  40a0b3:	add    BYTE PTR [ecx+0x0],cl
  40a0b6:	dec    edi
  40a0b7:	add    BYTE PTR [esi+0x0],cl
  40a0ba:	pop    edi
  40a0bb:	add    BYTE PTR [ecx+0x0],cl
  40a0be:	dec    esi
  40a0bf:	add    BYTE PTR [esi+0x0],al
  40a0c2:	dec    edi
  40a0c3:	add    BYTE PTR [eax],al
  40a0c5:	add    BYTE PTR [eax],al
  40a0c7:	add    BYTE PTR [ebp+0xfeef04],bh
  40a0cd:	add    BYTE PTR [ecx],al
  40a0cf:	add    BYTE PTR [eax],al
  40a0d1:	add    BYTE PTR [ebx],cl
  40a0d3:	add    BYTE PTR [ecx],al
  40a0d5:	add    BYTE PTR [edi],ah
  40a0d7:	mov    BYTE PTR [eax],0x0
  40a0da:	or     eax,DWORD PTR [eax]
  40a0dc:	add    DWORD PTR [eax],eax
  40a0de:	daa    
  40a0df:	(bad)  
  40a0e0:	aas    
  40a0e1:	add    BYTE PTR [eax],al
  40a0e3:	add    BYTE PTR [eax],al
  40a0e5:	add    BYTE PTR [eax],al
  40a0e7:	add    BYTE PTR [eax+eax*1],al
  40a0ea:	add    BYTE PTR [eax],al
  40a0ec:	add    DWORD PTR [eax],eax
	...
  40a0fa:	add    BYTE PTR [eax],al
  40a0fc:	inc    esp
  40a0fd:	add    BYTE PTR [eax],al
  40a0ff:	add    BYTE PTR [ecx],al
  40a101:	add    BYTE PTR [esi+0x0],dl
  40a104:	popa   
  40a105:	add    BYTE PTR [edx+0x0],dh
  40a108:	inc    esi
  40a109:	add    BYTE PTR [ecx+0x0],ch
  40a10c:	ins    BYTE PTR es:[edi],dx
  40a10d:	add    BYTE PTR [ebp+0x0],ah
  40a110:	dec    ecx
  40a111:	add    BYTE PTR [esi+0x0],ch
  40a114:	data16 add BYTE PTR [edi+0x0],ch
  40a118:	add    BYTE PTR [eax],al
  40a11a:	add    BYTE PTR [eax],al
  40a11c:	and    al,0x0
  40a11e:	add    al,0x0
  40a120:	add    BYTE PTR [eax],al
  40a122:	push   esp
  40a123:	add    BYTE PTR [edx+0x0],dh
  40a126:	popa   
  40a127:	add    BYTE PTR [esi+0x0],ch
  40a12a:	jae    0x40a12c
  40a12c:	ins    BYTE PTR es:[edi],dx
  40a12d:	add    BYTE PTR [ecx+0x0],ah
  40a130:	je     0x40a132
  40a132:	imul   eax,DWORD PTR [eax],0x6e006f
  40a138:	add    BYTE PTR [eax],al
  40a13a:	add    BYTE PTR [eax],al
  40a13c:	add    BYTE PTR [eax],al
  40a13e:	mov    al,0x4
  40a140:	dec    eax
  40a141:	add    eax,DWORD PTR [eax]
  40a143:	add    BYTE PTR [ecx],al
  40a145:	add    BYTE PTR [ebx+0x0],dl
  40a148:	je     0x40a14a
  40a14a:	jb     0x40a14c
  40a14c:	imul   eax,DWORD PTR [eax],0x67006e
  40a152:	inc    esi
  40a153:	add    BYTE PTR [ecx+0x0],ch
  40a156:	ins    BYTE PTR es:[edi],dx
  40a157:	add    BYTE PTR [ebp+0x0],ah
  40a15a:	dec    ecx
  40a15b:	add    BYTE PTR [esi+0x0],ch
  40a15e:	data16 add BYTE PTR [edi+0x0],ch
  40a162:	add    BYTE PTR [eax],al
  40a164:	and    al,0x3
  40a166:	add    BYTE PTR [eax],al
  40a168:	add    DWORD PTR [eax],eax
  40a16a:	xor    BYTE PTR [eax],al
  40a16c:	xor    BYTE PTR [eax],al
  40a16e:	xor    BYTE PTR [eax],al
  40a170:	xor    BYTE PTR [eax],al
  40a172:	xor    BYTE PTR [eax],al
  40a174:	xor    al,0x0
  40a176:	bound  eax,QWORD PTR [eax]
  40a178:	xor    BYTE PTR [eax],al
  40a17a:	add    BYTE PTR [eax],al
  40a17c:	inc    eax
  40a17d:	add    BYTE PTR [eax+eax*1],dl
  40a180:	add    DWORD PTR [eax],eax
  40a182:	inc    ebx
  40a183:	add    BYTE PTR [edi+0x0],ch
  40a186:	ins    DWORD PTR es:[edi],dx
  40a187:	add    BYTE PTR [ebp+0x0],ch
  40a18a:	add    BYTE PTR gs:[esi+0x0],ch
  40a18e:	je     0x40a190
  40a190:	jae    0x40a192
  40a192:	add    BYTE PTR [eax],al
  40a194:	push   esi
  40a195:	add    BYTE PTR [ebx+0x0],dl
  40a198:	push   eax
  40a199:	add    BYTE PTR [ebp+0x0],ah
  40a19c:	jb     0x40a19e
  40a19e:	data16 add BYTE PTR [ecx+0x0],al
  40a1a2:	jae    0x40a1a4
  40a1a4:	jo     0x40a1a6
  40a1a6:	dec    esi
  40a1a7:	add    BYTE PTR [ebp+0x0],ah
  40a1aa:	je     0x40a1ac
  40a1ac:	inc    ebx
  40a1ad:	add    BYTE PTR [ebp+0x0],ch
  40a1b0:	add    BYTE PTR fs:[esi],ch
  40a1b3:	add    BYTE PTR [ebp+0x0],ah
  40a1b6:	js     0x40a1b8
  40a1b8:	add    BYTE PTR gs:[eax],al
  40a1bb:	add    BYTE PTR [eax+eax*1+0x16],cl
  40a1bf:	add    BYTE PTR [ecx],al
  40a1c1:	add    BYTE PTR [ebx+0x0],al
  40a1c4:	outs   dx,DWORD PTR ds:[esi]
  40a1c5:	add    BYTE PTR [ebp+0x0],ch
  40a1c8:	jo     0x40a1ca
  40a1ca:	popa   
  40a1cb:	add    BYTE PTR [esi+0x0],ch
  40a1ce:	jns    0x40a1d0
  40a1d0:	dec    esi
  40a1d1:	add    BYTE PTR [ecx+0x0],ah
  40a1d4:	ins    DWORD PTR es:[edi],dx
  40a1d5:	add    BYTE PTR [ebp+0x0],ah
  40a1d8:	add    BYTE PTR [eax],al
  40a1da:	add    BYTE PTR [eax],al
  40a1dc:	dec    ebp
  40a1dd:	add    BYTE PTR [ecx+0x0],ch
  40a1e0:	arpl   WORD PTR [eax],ax
  40a1e2:	jb     0x40a1e4
  40a1e4:	outs   dx,DWORD PTR ds:[esi]
  40a1e5:	add    BYTE PTR [ebx+0x0],dh
  40a1e8:	outs   dx,DWORD PTR ds:[esi]
  40a1e9:	add    BYTE PTR [esi+0x0],ah
  40a1ec:	je     0x40a1ee
  40a1ee:	and    BYTE PTR [eax],al
  40a1f0:	inc    ebx
  40a1f1:	add    BYTE PTR [edi+0x0],ch
  40a1f4:	jb     0x40a1f6
  40a1f6:	jo     0x40a1f8
  40a1f8:	outs   dx,DWORD PTR ds:[esi]
  40a1f9:	add    BYTE PTR [edx+0x0],dh
  40a1fc:	popa   
  40a1fd:	add    BYTE PTR [eax+eax*1+0x69],dh
  40a201:	add    BYTE PTR [edi+0x0],ch
  40a204:	outs   dx,BYTE PTR ds:[esi]
  40a205:	add    BYTE PTR [eax],al
  40a207:	add    BYTE PTR [eax+0x0],dl
  40a20a:	adc    al,0x0
  40a20c:	add    DWORD PTR [eax],eax
  40a20e:	inc    esi
  40a20f:	add    BYTE PTR [ecx+0x0],ch
  40a212:	ins    BYTE PTR es:[edi],dx
  40a213:	add    BYTE PTR [ebp+0x0],ah
  40a216:	inc    esp
  40a217:	add    BYTE PTR [ebp+0x0],ah
  40a21a:	jae    0x40a21c
  40a21c:	arpl   WORD PTR [eax],ax
  40a21e:	jb     0x40a220
  40a220:	imul   eax,DWORD PTR [eax],0x740070
  40a226:	imul   eax,DWORD PTR [eax],0x6e006f
  40a22c:	add    BYTE PTR [eax],al
  40a22e:	add    BYTE PTR [eax],al
  40a230:	push   esi
  40a231:	add    BYTE PTR [ebx+0x0],dl
  40a234:	push   eax
  40a235:	add    BYTE PTR [ebp+0x0],ah
  40a238:	jb     0x40a23a
  40a23a:	data16 add BYTE PTR [ecx+0x0],al
  40a23e:	jae    0x40a240
  40a240:	jo     0x40a242
  40a242:	dec    esi
  40a243:	add    BYTE PTR [ebp+0x0],ah
  40a246:	je     0x40a248
  40a248:	inc    ebx
  40a249:	add    BYTE PTR [ebp+0x0],ch
  40a24c:	add    BYTE PTR fs:[esi],ch
  40a24f:	add    BYTE PTR [ebp+0x0],ah
  40a252:	js     0x40a254
  40a254:	add    BYTE PTR gs:[eax],al
  40a257:	add    BYTE PTR [eax+eax*1],bh
  40a25a:	or     eax,0x46000100
  40a25f:	add    BYTE PTR [ecx+0x0],ch
  40a262:	ins    BYTE PTR es:[edi],dx
  40a263:	add    BYTE PTR [ebp+0x0],ah
  40a266:	push   esi
  40a267:	add    BYTE PTR [ebp+0x0],ah
  40a26a:	jb     0x40a26c
  40a26c:	jae    0x40a26e
  40a26e:	imul   eax,DWORD PTR [eax],0x6e006f
  40a274:	add    BYTE PTR [eax],al
  40a276:	add    BYTE PTR [eax],al
  40a278:	xor    DWORD PTR [eax],eax
  40a27a:	xor    DWORD PTR [eax],eax
  40a27c:	add    BYTE PTR cs:[eax],dh
  40a27f:	add    BYTE PTR [esi],ch
  40a281:	add    BYTE PTR ds:0x37003000,dh
  40a287:	add    BYTE PTR [edx],dh
  40a289:	add    BYTE PTR [edi],dh
  40a28b:	add    BYTE PTR [esi],ch
  40a28d:	add    BYTE PTR [ecx],dh
  40a28f:	add    BYTE PTR [eax],al
  40a291:	add    BYTE PTR [eax],al
  40a293:	add    BYTE PTR [eax+0x0],cl
  40a296:	adc    al,0x0
  40a298:	add    DWORD PTR [eax],eax
  40a29a:	dec    ecx
  40a29b:	add    BYTE PTR [esi+0x0],ch
  40a29e:	je     0x40a2a0
  40a2a0:	add    BYTE PTR gs:[edx+0x0],dh
  40a2a4:	outs   dx,BYTE PTR ds:[esi]
  40a2a5:	add    BYTE PTR [ecx+0x0],ah
  40a2a8:	ins    BYTE PTR es:[edi],dx
  40a2a9:	add    BYTE PTR [esi+0x0],cl
  40a2ac:	popa   
  40a2ad:	add    BYTE PTR [ebp+0x0],ch
  40a2b0:	add    BYTE PTR gs:[eax],al
  40a2b3:	add    BYTE PTR [esi+0x0],dl
  40a2b6:	push   ebx
  40a2b7:	add    BYTE PTR [eax+0x0],dl
  40a2ba:	add    BYTE PTR gs:[edx+0x0],dh
  40a2be:	data16 add BYTE PTR [ecx+0x0],al
  40a2c2:	jae    0x40a2c4
  40a2c4:	jo     0x40a2c6
  40a2c6:	dec    esi
  40a2c7:	add    BYTE PTR [ebp+0x0],ah
  40a2ca:	je     0x40a2cc
  40a2cc:	inc    ebx
  40a2cd:	add    BYTE PTR [ebp+0x0],ch
  40a2d0:	add    BYTE PTR fs:[esi],ch
  40a2d3:	add    BYTE PTR [ebp+0x0],ah
  40a2d6:	js     0x40a2d8
  40a2d8:	add    BYTE PTR gs:[eax],al
  40a2db:	add    BYTE PTR [eax+0x1002e00],al
  40a2e1:	add    BYTE PTR [eax+eax*1+0x65],cl
  40a2e5:	add    BYTE PTR [edi+0x0],ah
  40a2e8:	popa   
  40a2e9:	add    BYTE PTR [eax+eax*1+0x43],ch
  40a2ed:	add    BYTE PTR [edi+0x0],ch
  40a2f0:	jo     0x40a2f2
  40a2f2:	jns    0x40a2f4
  40a2f4:	jb     0x40a2f6
  40a2f6:	imul   eax,DWORD PTR [eax],0x680067
  40a2fc:	je     0x40a2fe
  40a2fe:	add    BYTE PTR [eax],al
  40a300:	test   eax,0x4d002000
  40a305:	add    BYTE PTR [ecx+0x0],ch
  40a308:	arpl   WORD PTR [eax],ax
  40a30a:	jb     0x40a30c
  40a30c:	outs   dx,DWORD PTR ds:[esi]
  40a30d:	add    BYTE PTR [ebx+0x0],dh
  40a310:	outs   dx,DWORD PTR ds:[esi]
  40a311:	add    BYTE PTR [esi+0x0],ah
  40a314:	je     0x40a316
  40a316:	and    BYTE PTR [eax],al
  40a318:	inc    ebx
  40a319:	add    BYTE PTR [edi+0x0],ch
  40a31c:	jb     0x40a31e
  40a31e:	jo     0x40a320
  40a320:	outs   dx,DWORD PTR ds:[esi]
  40a321:	add    BYTE PTR [edx+0x0],dh
  40a324:	popa   
  40a325:	add    BYTE PTR [eax+eax*1+0x69],dh
  40a329:	add    BYTE PTR [edi+0x0],ch
  40a32c:	outs   dx,BYTE PTR ds:[esi]
  40a32d:	add    BYTE PTR [esi],ch
  40a32f:	add    BYTE PTR [eax],ah
  40a331:	add    BYTE PTR [ecx+0x0],al
  40a334:	ins    BYTE PTR es:[edi],dx
  40a335:	add    BYTE PTR [eax+eax*1+0x20],ch
  40a339:	add    BYTE PTR [edx+0x0],dh
  40a33c:	imul   eax,DWORD PTR [eax],0x680067
  40a342:	je     0x40a344
  40a344:	jae    0x40a346
  40a346:	and    BYTE PTR [eax],al
  40a348:	jb     0x40a34a
  40a34a:	add    BYTE PTR gs:[ebx+0x0],dh
  40a34e:	add    BYTE PTR gs:[edx+0x0],dh
  40a352:	jbe    0x40a354
  40a354:	add    BYTE PTR gs:[eax+eax*1+0x2e],ah
  40a359:	add    BYTE PTR [eax],al
  40a35b:	add    BYTE PTR [eax+0x0],dl
  40a35e:	adc    al,0x0
  40a360:	add    DWORD PTR [eax],eax
  40a362:	dec    edi
  40a363:	add    BYTE PTR [edx+0x0],dh
  40a366:	imul   eax,DWORD PTR [eax],0x690067
  40a36c:	outs   dx,BYTE PTR ds:[esi]
  40a36d:	add    BYTE PTR [ecx+0x0],ah
  40a370:	ins    BYTE PTR es:[edi],dx
  40a371:	add    BYTE PTR [esi+0x0],al
  40a374:	imul   eax,DWORD PTR [eax],0x65006c
  40a37a:	outs   dx,BYTE PTR ds:[esi]
  40a37b:	add    BYTE PTR [ecx+0x0],ah
  40a37e:	ins    DWORD PTR es:[edi],dx
  40a37f:	add    BYTE PTR [ebp+0x0],ah
  40a382:	add    BYTE PTR [eax],al
  40a384:	push   esi
  40a385:	add    BYTE PTR [ebx+0x0],dl
  40a388:	push   eax
  40a389:	add    BYTE PTR [ebp+0x0],ah
  40a38c:	jb     0x40a38e
  40a38e:	data16 add BYTE PTR [ecx+0x0],al
  40a392:	jae    0x40a394
  40a394:	jo     0x40a396
  40a396:	dec    esi
  40a397:	add    BYTE PTR [ebp+0x0],ah
  40a39a:	je     0x40a39c
  40a39c:	inc    ebx
  40a39d:	add    BYTE PTR [ebp+0x0],ch
  40a3a0:	add    BYTE PTR fs:[esi],ch
  40a3a3:	add    BYTE PTR [ebp+0x0],ah
  40a3a6:	js     0x40a3a8
  40a3a8:	add    BYTE PTR gs:[eax],al
  40a3ab:	add    BYTE PTR [eax+0x0],ah
  40a3ae:	pop    ds
  40a3af:	add    BYTE PTR [ecx],al
  40a3b1:	add    BYTE PTR [eax+0x0],dl
  40a3b4:	jb     0x40a3b6
  40a3b6:	outs   dx,DWORD PTR ds:[esi]
  40a3b7:	add    BYTE PTR [eax+eax*1+0x75],ah
  40a3bb:	add    BYTE PTR [ebx+0x0],ah
  40a3be:	je     0x40a3c0
  40a3c0:	dec    esi
  40a3c1:	add    BYTE PTR [ecx+0x0],ah
  40a3c4:	ins    DWORD PTR es:[edi],dx
  40a3c5:	add    BYTE PTR [ebp+0x0],ah
  40a3c8:	add    BYTE PTR [eax],al
  40a3ca:	add    BYTE PTR [eax],al
  40a3cc:	dec    ebp
  40a3cd:	add    BYTE PTR [ecx+0x0],ch
  40a3d0:	arpl   WORD PTR [eax],ax
  40a3d2:	jb     0x40a3d4
  40a3d4:	outs   dx,DWORD PTR ds:[esi]
  40a3d5:	add    BYTE PTR [ebx+0x0],dh
  40a3d8:	outs   dx,DWORD PTR ds:[esi]
  40a3d9:	add    BYTE PTR [esi+0x0],ah
  40a3dc:	je     0x40a3de
  40a3de:	scas   al,BYTE PTR es:[edi]
  40a3df:	add    BYTE PTR [eax],ah
  40a3e1:	add    BYTE PTR [esi+0x0],dl
  40a3e4:	imul   eax,DWORD PTR [eax],0x750073
  40a3ea:	popa   
  40a3eb:	add    BYTE PTR [eax+eax*1+0x20],ch
  40a3ef:	add    BYTE PTR [ebx+0x0],dl
  40a3f2:	je     0x40a3f4
  40a3f4:	jne    0x40a3f6
  40a3f6:	add    BYTE PTR fs:[ecx+0x0],ch
  40a3fa:	outs   dx,DWORD PTR ds:[esi]
  40a3fb:	add    BYTE PTR [esi+0x32002000],ch
  40a401:	add    BYTE PTR [eax],dh
  40a403:	add    BYTE PTR [ecx],dh
  40a405:	add    BYTE PTR [edx],dh
  40a407:	add    BYTE PTR [eax],al
  40a409:	add    BYTE PTR [eax],al
  40a40b:	add    BYTE PTR [eax+0x0],al
  40a40e:	or     eax,0x50000100
  40a413:	add    BYTE PTR [edx+0x0],dh
  40a416:	outs   dx,DWORD PTR ds:[esi]
  40a417:	add    BYTE PTR [eax+eax*1+0x75],ah
  40a41b:	add    BYTE PTR [ebx+0x0],ah
  40a41e:	je     0x40a420
  40a420:	push   esi
  40a421:	add    BYTE PTR [ebp+0x0],ah
  40a424:	jb     0x40a426
  40a426:	jae    0x40a428
  40a428:	imul   eax,DWORD PTR [eax],0x6e006f
  40a42e:	add    BYTE PTR [eax],al
  40a430:	xor    DWORD PTR [eax],eax
  40a432:	xor    DWORD PTR [eax],eax
  40a434:	add    BYTE PTR cs:[eax],dh
  40a437:	add    BYTE PTR [esi],ch
  40a439:	add    BYTE PTR ds:0x37003000,dh
  40a43f:	add    BYTE PTR [edx],dh
  40a441:	add    BYTE PTR [edi],dh
  40a443:	add    BYTE PTR [esi],ch
  40a445:	add    BYTE PTR [ecx],dh
  40a447:	add    BYTE PTR [eax],al
  40a449:	add    BYTE PTR [eax],al
  40a44b:	add    BYTE PTR [eax+eax*1],bh
  40a44e:	or     DWORD PTR [eax],eax
  40a450:	add    DWORD PTR [eax],eax
  40a452:	inc    ecx
  40a453:	add    BYTE PTR [ebx+0x0],dh
  40a456:	jae    0x40a458
  40a458:	add    BYTE PTR gs:[ebp+0x0],ch
  40a45c:	bound  eax,QWORD PTR [eax]
  40a45e:	ins    BYTE PTR es:[edi],dx
  40a45f:	add    BYTE PTR [ecx+0x0],bh
  40a462:	and    BYTE PTR [eax],al
  40a464:	push   esi
  40a465:	add    BYTE PTR [ebp+0x0],ah
  40a468:	jb     0x40a46a
  40a46a:	jae    0x40a46c
  40a46c:	imul   eax,DWORD PTR [eax],0x6e006f
  40a472:	add    BYTE PTR [eax],al
  40a474:	xor    DWORD PTR [eax],eax
  40a476:	xor    DWORD PTR [eax],eax
  40a478:	add    BYTE PTR cs:[eax],dh
  40a47b:	add    BYTE PTR [esi],ch
  40a47d:	add    BYTE PTR [eax],dh
  40a47f:	add    BYTE PTR [esi],ch
  40a481:	add    BYTE PTR [eax],dh
  40a483:	add    BYTE PTR [eax],al
  40a485:	add    BYTE PTR [eax],al
  40a487:	add    bh,ch
  40a489:	mov    ebx,0x783f3cbf
  40a48e:	ins    DWORD PTR es:[edi],dx
  40a48f:	ins    BYTE PTR es:[edi],dx
  40a490:	and    BYTE PTR [esi+0x65],dh
  40a493:	jb     0x40a508
  40a495:	imul   ebp,DWORD PTR [edi+0x6e],0x2e31223d
  40a49c:	xor    BYTE PTR [edx],ah
  40a49e:	and    BYTE PTR [ebp+0x6e],ah
  40a4a1:	arpl   WORD PTR [edi+0x64],bp
  40a4a4:	imul   ebp,DWORD PTR [esi+0x67],0x5455223d
  40a4ab:	inc    esi
  40a4ac:	sub    eax,0x73202238
  40a4b1:	je     0x40a514
  40a4b3:	outs   dx,BYTE PTR ds:[esi]
  40a4b4:	fs popa 
  40a4b6:	ins    BYTE PTR es:[edi],dx
  40a4b7:	outs   dx,DWORD PTR ds:[esi]
  40a4b8:	outs   dx,BYTE PTR ds:[esi]
  40a4b9:	gs cmp eax,0x73657922
  40a4bf:	and    bh,BYTE PTR [edi]
  40a4c1:	ds or  eax,0x73613c0a
  40a4c7:	jae    0x40a52e
  40a4c9:	ins    DWORD PTR es:[edi],dx
  40a4ca:	bound  ebp,QWORD PTR [ecx+edi*2+0x20]
  40a4ce:	js     0x40a53d
  40a4d0:	ins    BYTE PTR es:[edi],dx
  40a4d1:	outs   dx,BYTE PTR ds:[esi]
  40a4d2:	jae    0x40a511
  40a4d4:	and    dh,BYTE PTR [ebp+0x72]
  40a4d7:	outs   dx,BYTE PTR ds:[esi]
  40a4d8:	cmp    dh,BYTE PTR [ebx+0x63]
  40a4db:	push   0x73616d65
  40a4e0:	sub    eax,0x7263696d
  40a4e5:	outs   dx,DWORD PTR ds:[esi]
  40a4e6:	jae    0x40a557
  40a4e8:	data16 je 0x40a518
  40a4eb:	arpl   WORD PTR [edi+0x6d],bp
  40a4ee:	cmp    ah,BYTE PTR [ecx+0x73]
  40a4f1:	ins    DWORD PTR es:[edi],dx
  40a4f2:	cs jbe 0x40a526
  40a4f5:	and    ah,BYTE PTR [eax]
  40a4f7:	ins    DWORD PTR es:[edi],dx
  40a4f8:	popa   
  40a4f9:	outs   dx,BYTE PTR ds:[esi]
  40a4fa:	imul   esp,DWORD PTR [esi+0x65],0x65567473
  40a501:	jb     0x40a576
  40a503:	imul   ebp,DWORD PTR [edi+0x6e],0x2e31223d
  40a50a:	xor    BYTE PTR [edx],ah
  40a50c:	ds or  eax,0x3c20200a
  40a512:	popa   
  40a513:	jae    0x40a588
  40a515:	gs ins DWORD PTR es:[edi],dx
  40a517:	bound  ebp,QWORD PTR [ecx+edi*2+0x49]
  40a51b:	fs outs dx,BYTE PTR gs:[esi]
  40a51e:	je     0x40a589
  40a520:	je     0x40a59b
  40a522:	and    BYTE PTR [esi+0x65],dh
  40a525:	jb     0x40a59a
  40a527:	imul   ebp,DWORD PTR [edi+0x6e],0x2e31223d
  40a52e:	xor    BYTE PTR [esi],ch
  40a530:	xor    BYTE PTR [esi],ch
  40a532:	xor    BYTE PTR [edx],ah
  40a534:	and    BYTE PTR [esi+0x61],ch
  40a537:	ins    DWORD PTR es:[edi],dx
  40a538:	gs cmp eax,0x41794d22
  40a53e:	jo     0x40a5b0
  40a540:	ins    BYTE PTR es:[edi],dx
  40a541:	imul   esp,DWORD PTR [ebx+0x61],0x6e6f6974
  40a548:	cs popa 
  40a54a:	jo     0x40a5bc
  40a54c:	and    ch,BYTE PTR [edi]
  40a54e:	ds or  eax,0x3c20200a
  40a554:	je     0x40a5c8
  40a556:	jne    0x40a5cb
  40a558:	je     0x40a5a3
  40a55a:	outs   dx,BYTE PTR ds:[esi]
  40a55b:	outs   dx,WORD PTR ds:[esi]
  40a55d:	and    BYTE PTR [eax+0x6d],bh
  40a560:	ins    BYTE PTR es:[edi],dx
  40a561:	outs   dx,BYTE PTR ds:[esi]
  40a562:	jae    0x40a5a1
  40a564:	and    dh,BYTE PTR [ebp+0x72]
  40a567:	outs   dx,BYTE PTR ds:[esi]
  40a568:	cmp    dh,BYTE PTR [ebx+0x63]
  40a56b:	push   0x73616d65
  40a570:	sub    eax,0x7263696d
  40a575:	outs   dx,DWORD PTR ds:[esi]
  40a576:	jae    0x40a5e7
  40a578:	data16 je 0x40a5a8
  40a57b:	arpl   WORD PTR [edi+0x6d],bp
  40a57e:	cmp    ah,BYTE PTR [ecx+0x73]
  40a581:	ins    DWORD PTR es:[edi],dx
  40a582:	cs jbe 0x40a5b7
  40a585:	and    bh,BYTE PTR [esi]
  40a587:	or     eax,0x2020200a
  40a58c:	and    BYTE PTR [ebx+esi*2],bh
  40a58f:	arpl   WORD PTR gs:[ebp+0x72],si
  40a593:	imul   esi,DWORD PTR [ecx+edi*2+0x3e],0x20200a0d
  40a59b:	and    BYTE PTR [eax],ah
  40a59d:	and    BYTE PTR [eax],ah
  40a59f:	cmp    al,0x72
  40a5a1:	gs jno 0x40a619
  40a5a4:	gs jae 0x40a61b
  40a5a7:	gs fs push eax
  40a5aa:	jb     0x40a615
  40a5ac:	jbe    0x40a617
  40a5ae:	ins    BYTE PTR es:[edi],dx
  40a5af:	gs addr16 gs jae 0x40a5d4
  40a5b4:	js     0x40a623
  40a5b6:	ins    BYTE PTR es:[edi],dx
  40a5b7:	outs   dx,BYTE PTR ds:[esi]
  40a5b8:	jae    0x40a5f7
  40a5ba:	and    dh,BYTE PTR [ebp+0x72]
  40a5bd:	outs   dx,BYTE PTR ds:[esi]
  40a5be:	cmp    dh,BYTE PTR [ebx+0x63]
  40a5c1:	push   0x73616d65
  40a5c6:	sub    eax,0x7263696d
  40a5cb:	outs   dx,DWORD PTR ds:[esi]
  40a5cc:	jae    0x40a63d
  40a5ce:	data16 je 0x40a5fe
  40a5d1:	arpl   WORD PTR [edi+0x6d],bp
  40a5d4:	cmp    ah,BYTE PTR [ecx+0x73]
  40a5d7:	ins    DWORD PTR es:[edi],dx
  40a5d8:	cs jbe 0x40a60e
  40a5db:	and    bh,BYTE PTR [esi]
  40a5dd:	or     eax,0x2020200a
  40a5e2:	and    BYTE PTR [eax],ah
  40a5e4:	and    BYTE PTR [eax],ah
  40a5e6:	and    BYTE PTR [edx+esi*2],bh
  40a5e9:	gs jno 0x40a661
  40a5ec:	gs jae 0x40a663
  40a5ef:	gs fs inc ebp
  40a5f2:	js     0x40a659
  40a5f4:	arpl   WORD PTR [ebp+0x74],si
  40a5f7:	imul   ebp,DWORD PTR [edi+0x6e],0x6576654c
  40a5fe:	ins    BYTE PTR es:[edi],dx
  40a5ff:	and    BYTE PTR [ebp+eiz*2+0x76],ch
  40a603:	gs ins BYTE PTR es:[edi],dx
  40a605:	cmp    eax,0x49736122
  40a60a:	outs   dx,BYTE PTR ds:[esi]
  40a60b:	jbe    0x40a67c
  40a60d:	imul   esp,DWORD PTR [ebp+0x72],0x22
  40a611:	and    BYTE PTR [ebp+0x69],dh
  40a614:	inc    ecx
  40a615:	arpl   WORD PTR [ebx+0x65],sp
  40a618:	jae    0x40a68d
  40a61a:	cmp    eax,0x6c616622
  40a61f:	jae    0x40a686
  40a621:	and    ch,BYTE PTR [edi]
  40a623:	ds or  eax,0x2020200a
  40a629:	and    BYTE PTR [eax],ah
  40a62b:	and    BYTE PTR [edi+ebp*1],bh
  40a62e:	jb     0x40a695
  40a630:	jno    0x40a6a7
  40a632:	gs jae 0x40a6a9
  40a635:	gs fs push eax
  40a638:	jb     0x40a6a3
  40a63a:	jbe    0x40a6a5
  40a63c:	ins    BYTE PTR es:[edi],dx
  40a63d:	gs addr16 gs jae 0x40a680
  40a642:	or     eax,0x2020200a
  40a647:	and    BYTE PTR [edi+ebp*1],bh
  40a64a:	jae    0x40a6b1
  40a64c:	arpl   WORD PTR [ebp+0x72],si
  40a64f:	imul   esi,DWORD PTR [ecx+edi*2+0x3e],0x20200a0d
  40a657:	cmp    al,0x2f
  40a659:	je     0x40a6cd
  40a65b:	jne    0x40a6d0
  40a65d:	je     0x40a6a8
  40a65f:	outs   dx,BYTE PTR ds:[esi]
  40a660:	outs   dx,WORD PTR ds:[esi]
  40a662:	ds or  eax,0x612f3c0a
  40a668:	jae    0x40a6dd
  40a66a:	gs ins DWORD PTR es:[edi],dx
  40a66c:	bound  ebp,QWORD PTR [ecx+edi*2+0x3e]
  40a670:	or     eax,0xa
  40a675:	add    BYTE PTR [eax],al
	...

Disassembly of section .reloc:

0040c000 <.reloc>:
  40c000:	add    BYTE PTR [eax+0xc0000],al
  40c006:	add    BYTE PTR [eax],al
  40c008:	sar    BYTE PTR [ecx],0x0
	...
