
9f3849e18bbc5116b6430849f460172540fee98344953178908ad14783d1c9c2.exe:     file format pei-i386


Disassembly of section .text:

00402000 <.text>:
  402000:	sar    BYTE PTR [eax],1
  402002:	add    DWORD PTR [eax],eax
  402004:	add    BYTE PTR [eax],al
  402006:	add    BYTE PTR [eax],al
  402008:	dec    eax
  402009:	add    BYTE PTR [eax],al
  40200b:	add    BYTE PTR [edx],al
  40200d:	add    BYTE PTR ds:0x6bc400,al
  402013:	add    BYTE PTR [eax+0x90000cb],bl
  402019:	add    BYTE PTR [eax],al
  40201b:	add    BYTE PTR [eax+eax*1+0x61c00600],bl
  402022:	add    BYTE PTR [eax],al
  402024:	add    ecx,DWORD PTR [edx]
  402026:	add    BYTE PTR [eax],al
  402028:	push   eax
  402029:	and    BYTE PTR [eax],al
  40202b:	add    BYTE PTR [eax],al
  40202d:	add    DWORD PTR [eax],eax
	...
  40204f:	add    BYTE PTR [ebx-0x6e],cl
  402052:	xor    BYTE PTR [eax],cl
  402054:	add    al,0xd0
  402056:	rcr    DWORD PTR [edx],1
  402058:	cs out 0x7e,eax
  40205b:	sar    dl,0x1e
  40205e:	ins    DWORD PTR es:[edi],dx
  40205f:	dec    esi
  402060:	jge    0x4020de
  402062:	mov    edi,0xdd7052ac
  402067:	(bad)  
  402068:	mov    eax,DWORD PTR [ecx+edx*2+0x6c]
  40206c:	inc    edx
  40206d:	and    BYTE PTR [edx],al
  40206f:	pop    ecx
  402070:	jne    0x4020d2
  402072:	popa   
  402073:	outs   dx,DWORD PTR ds:[esi]
  402074:	cmp    dh,bl
  402076:	ror    DWORD PTR [eax-0x7b1cda51],cl
  40207c:	sbb    BYTE PTR [ecx-0x17a7942f],bl
  402082:	pop    edx
  402083:	mov    eax,DWORD PTR [eax+0x20562c14]
  402089:	(bad)  
  40208a:	jl     0x402062
  40208c:	mov    bl,0x3a
  40208e:	lods   al,BYTE PTR ds:[esi]
  40208f:	scas   al,BYTE PTR es:[edi]
  402090:	push   ecx
  402091:	push   ecx
  402092:	dec    ebx
  402093:	stc    
  402094:	xchg   edi,eax
  402095:	push   ecx
  402096:	daa    
  402097:	or     dl,dh
  402099:	mov    ecx,0x227d4b82
  40209e:	ss mov dl,0x25
  4020a1:	sbb    ch,bl
  4020a3:	inc    edx
  4020a4:	and    DWORD PTR [ebx],0x24f9f021
  4020aa:	add    edi,edx
  4020ac:	inc    ecx
  4020ad:	mov    eax,ds:0x8e08a243
  4020b2:	pusha  
  4020b3:	pusha  
  4020b4:	test   al,0xbd
  4020b6:	fnstcw WORD PTR [edx+0x514ca6d8]
  4020bc:	aam    0xfd
  4020be:	(bad)
  4020c1:	enter  0x9474,0x36
  4020c5:	mov    ecx,0xfbc36bd1
  4020ca:	pop    eax
  4020cb:	pop    ss
  4020cc:	daa    
  4020cd:	and    al,0xbd
  4020cf:	jl     0x40209b
  4020d1:	lea    ecx,[ebx+0xc]
  4020d4:	pop    ds
  4020d5:	or     DWORD PTR [ecx],edx
  4020d7:	aad    0x20
  4020d9:	movs   DWORD PTR es:[edi],DWORD PTR ds:[esi]
  4020da:	xchg   ecx,eax
  4020db:	dec    esp
  4020dc:	mov    ds:0xdcec6a92,al
  4020e1:	xchg   ecx,eax
  4020e2:	pop    ss
  4020e3:	(bad)  
  4020e4:	pop    edx
  4020e5:	les    eax,FWORD PTR [ecx]
  4020e7:	inc    edx
  4020e8:	pusha  
  4020e9:	sbb    bh,BYTE PTR [esi+edi*8]
  4020ec:	and    dh,BYTE PTR [ebx-0x63643255]
  4020f2:	cli    
  4020f3:	call   0x96dc0b3c
  4020f8:	cmps   BYTE PTR ds:[esi],BYTE PTR es:[edi]
  4020f9:	xchg   esi,eax
  4020fa:	lods   al,BYTE PTR ds:[esi]
  4020fb:	jb     0x4020b4
  4020fd:	ss push ebp
  4020ff:	and    eax,0xc3a40179
  402104:	or     eax,0x2f8823dc
  402109:	dec    ecx
  40210a:	repz mov ds:0x7722baa9,eax
  402111:	loope  0x40212a
  402113:	mov    ds,WORD PTR es:[esi]
  402116:	sbb    al,0x36
  402118:	hlt    
  402119:	retf   
  40211a:	jo     0x402104
  40211c:	pop    ds
  40211d:	sti    
  40211e:	shl    DWORD PTR [ecx],1
  402120:	push   0xe4881329
  402125:	push   edi
  402126:	jae    0x402170
  402128:	div    BYTE PTR [ecx+0x10]
  40212b:	xlat   BYTE PTR ds:[ebx]
  40212c:	xchg   ecx,eax
  40212d:	loop   0x4020d5
  40212f:	push   ebx
  402130:	outs   dx,BYTE PTR ds:[esi]
  402131:	test   eax,0x420406ea
  402136:	ret    0xd326
  402139:	in     al,0xa6
  40213b:	movs   BYTE PTR es:[edi],BYTE PTR ds:[esi]
  40213c:	retf   
  40213d:	adc    BYTE PTR [esi+0xb],dh
  402140:	inc    ebx
  402141:	dec    eax
  402142:	sbb    DWORD PTR [ebx],edx
  402144:	gs pop ds
  402146:	adc    esp,DWORD PTR [ebp-0x17]
  402149:	fld    DWORD PTR [ebp-0x51]
  40214c:	movs   DWORD PTR es:[edi],DWORD PTR ds:[esi]
  40214d:	imul   edx,DWORD PTR [eax],0x2301319
  402153:	add    BYTE PTR [esi],dl
  402155:	add    BYTE PTR [eax],al
  402157:	add    BYTE PTR [ecx],al
  402159:	add    BYTE PTR [eax],al
  40215b:	adc    DWORD PTR [edx],edx
  40215d:	add    BYTE PTR [eax],ch
  40215f:	pop    es
  402160:	add    BYTE PTR [eax],al
  402162:	push   es
  402163:	or     eax,DWORD PTR [edx]
  402165:	push   es
  402166:	sub    BYTE PTR [eax+eax*1],al
  402169:	add    BYTE PTR [esi],al
  40216b:	or     DWORD PTR [ecx],0x7010000
  402171:	sub    al,BYTE PTR [eax]
  402173:	add    BYTE PTR [ebx],dl
  402175:	xor    BYTE PTR [edx],al
  402177:	add    BYTE PTR [ebx],bl
  402179:	add    BYTE PTR [eax],al
  40217b:	add    BYTE PTR [ecx],al
  40217d:	add    BYTE PTR [eax],al
  40217f:	adc    DWORD PTR [eax],ebp
  402181:	push   es
  402182:	add    BYTE PTR [eax],al
  402184:	push   es
  402185:	adc    al,BYTE PTR [eax]
  402187:	sub    BYTE PTR [eax],cl
  402189:	add    BYTE PTR [eax],al
  40218b:	push   es
  40218c:	or     eax,DWORD PTR [edx]
  40218e:	push   es
  40218f:	sub    BYTE PTR [eax+eax*1],al
  402192:	add    BYTE PTR [esi],al
  402194:	or     DWORD PTR [ecx],0x7010000
  40219a:	sub    ch,BYTE PTR [esi]
  40219c:	sub    BYTE PTR [esi],al
  40219e:	add    BYTE PTR [eax],al
  4021a0:	push   es
  4021a1:	sub    BYTE PTR [ecx],cl
  4021a3:	add    BYTE PTR [eax],al
  4021a5:	push   es
  4021a6:	sub    al,BYTE PTR [eax]
  4021a8:	adc    esi,DWORD PTR [eax]
  4021aa:	add    al,BYTE PTR [eax]
  4021ac:	sbb    al,0x0
  4021ae:	add    BYTE PTR [eax],al
  4021b0:	add    al,BYTE PTR [eax]
  4021b2:	add    BYTE PTR [ecx],dl
  4021b4:	(bad)  
  4021b6:	jnp    0x4021d0
  4021b8:	add    BYTE PTR [eax],al
  4021ba:	or     ch,BYTE PTR [edx+0x1f]
  4021bd:	and    BYTE PTR [edx+0xf],ah
  4021c0:	add    BYTE PTR [ebx+0x19],bh
  4021c3:	add    BYTE PTR [eax],al
  4021c5:	or     ch,BYTE PTR [edx+0x58]
  4021c8:	or     al,BYTE PTR [esi]
  4021ca:	sub    BYTE PTR [edx],bl
  4021cc:	add    BYTE PTR [eax],al
  4021ce:	or     ch,BYTE PTR [edx]
  4021d0:	push   ds
  4021d1:	add    ch,BYTE PTR [eax]
  4021d3:	sbb    eax,DWORD PTR [eax]
  4021d5:	add    BYTE PTR [edx],cl
  4021d7:	sub    bl,BYTE PTR [esi]
  4021d9:	add    ch,BYTE PTR [eax]
  4021db:	sbb    eax,DWORD PTR [eax]
  4021dd:	add    BYTE PTR [edx],cl
  4021df:	sub    dl,BYTE PTR [ebx]
  4021e1:	xor    BYTE PTR [eax+eax*1],al
  4021e4:	mov    eax,DWORD PTR [eax]
  4021e6:	add    BYTE PTR [eax],al
  4021e8:	add    eax,DWORD PTR [eax]
  4021ea:	add    BYTE PTR [ecx],dl
  4021ec:	add    ebp,DWORD PTR [eax]
  4021ee:	sbb    eax,0x2d0a0000
  4021f3:	pop    es
  4021f4:	add    al,BYTE PTR [ebx]
  4021f6:	jge    0x402214
  4021f8:	add    BYTE PTR [eax],al
  4021fa:	add    al,0x28
  4021fc:	push   ds
  4021fd:	add    BYTE PTR [eax],al
  4021ff:	or     ch,BYTE PTR [edi+0x1f]
  402202:	add    BYTE PTR [eax],al
  402204:	or     ch,BYTE PTR [edi+0x20]
  402207:	add    BYTE PTR [eax],al
  402209:	or     bl,BYTE PTR [eax+esi*1]
  40220c:	and    al,0x28
  40220e:	push   ds
  40220f:	add    BYTE PTR [eax],al
  402211:	or     ch,BYTE PTR [edi+0x1f]
  402214:	add    BYTE PTR [eax],al
  402216:	or     ch,BYTE PTR [edi+0x20]
  402219:	add    BYTE PTR [eax],al
  40221b:	or     bl,BYTE PTR [ebx+esi*1]
  40221e:	cmp    BYTE PTR [eax],ch
  402220:	push   ds
  402221:	add    BYTE PTR [eax],al
  402223:	or     ch,BYTE PTR [edi+0x1f]
  402226:	add    BYTE PTR [eax],al
  402228:	or     ch,BYTE PTR [edi+0x21]
  40222b:	add    BYTE PTR [eax],al
  40222d:	or     bl,BYTE PTR [eax]
  40222f:	xor    ah,BYTE PTR [esi]
  402231:	jb     0x402234
  402233:	add    BYTE PTR [eax],al
  402235:	jo     0x40224e
  402237:	lea    eax,[ecx]
  402239:	add    BYTE PTR [eax],al
  40223b:	add    DWORD PTR [edx],ecx
  40223d:	push   es
  40223e:	push   ss
  40223f:	sub    BYTE PTR [esi],bl
  402241:	add    BYTE PTR [eax],al
  402243:	or     ch,BYTE PTR [edi+0x22]
  402246:	add    BYTE PTR [eax],al
  402248:	or     ah,BYTE PTR [edx+0x232806]
  40224e:	add    BYTE PTR [edx],cl
  402250:	add    ch,BYTE PTR [eax]
  402252:	sldt   WORD PTR [eax]
  402255:	push   es
  402256:	sub    dh,BYTE PTR [edx+0xe]
  402259:	add    DWORD PTR [eax],eax
  40225b:	jo     0x402274
  40225d:	lea    eax,[ecx]
  40225f:	add    BYTE PTR [eax],al
  402261:	add    DWORD PTR [ebx],ecx
  402263:	pop    es
  402264:	push   ss
  402265:	sub    BYTE PTR [esi],bl
  402267:	add    BYTE PTR [eax],al
  402269:	or     ch,BYTE PTR [edi+0x22]
  40226c:	add    BYTE PTR [eax],al
  40226e:	or     ah,BYTE PTR [edx+0x242807]
  402274:	add    BYTE PTR [edx],cl
  402276:	sub    bl,BYTE PTR [esi]
  402278:	add    ch,BYTE PTR [eax]
  40227a:	adc    DWORD PTR [eax],eax
  40227c:	add    BYTE PTR [esi],al
  40227e:	sub    bl,BYTE PTR [esi]
  402280:	add    bh,BYTE PTR [ebx+0x1c]
  402283:	add    BYTE PTR [eax],al
  402285:	add    al,0x2a
  402287:	add    BYTE PTR [ebx],bl
  402289:	xor    BYTE PTR [eax+eax*1],al
  40228c:	lea    eax,[ecx]
  40228e:	add    BYTE PTR [eax],al
  402290:	add    al,0x0
  402292:	add    BYTE PTR [ecx],dl
  402294:	jb     0x4022b5
  402296:	add    al,BYTE PTR [eax]
  402298:	jo     0x4022b2
  40229a:	lea    eax,[ecx]
  40229c:	add    BYTE PTR [eax],al
  40229e:	add    DWORD PTR [ebx],edx
  4022a0:	or     DWORD PTR [ecx],edx
  4022a2:	or     DWORD PTR [esi],edx
  4022a4:	add    esp,DWORD PTR [edx+0x4170911]
  4022aa:	mov    ds:0x23280911,al
  4022af:	add    BYTE PTR [eax],al
  4022b1:	or     al,BYTE PTR [eax+ebp*1]
  4022b4:	and    eax,0xa0a0000
  4022b9:	adc    al,0xb
  4022bb:	push   es
  4022bc:	mov    gs,WORD PTR [ecx+0x17]
  4022bf:	xor    esi,DWORD PTR [esi]
  4022c1:	push   es
  4022c2:	push   ss
  4022c3:	call   0x7000:0x2a2720b
  4022ca:	sbb    BYTE PTR [ebp+0x1000001],cl
  4022d0:	adc    ecx,DWORD PTR [edx]
  4022d2:	adc    DWORD PTR [edx],ecx
  4022d4:	push   ss
  4022d5:	pop    es
  4022d6:	outs   dx,DWORD PTR ds:[esi]
  4022d7:	add    BYTE PTR es:[eax],al
  4022da:	or     cl,BYTE PTR [ecx+edx*2-0x5dff0000]
  4022e1:	adc    DWORD PTR [edx],ecx
  4022e3:	pop    ss
  4022e4:	pop    es
  4022e5:	outs   dx,DWORD PTR ds:[esi]
  4022e6:	daa    
  4022e7:	add    BYTE PTR [eax],al
  4022e9:	or     ah,BYTE PTR [edx+0x28280a11]
  4022ef:	add    BYTE PTR [eax],al
  4022f1:	or     bh,BYTE PTR [eax]
  4022f3:	and    eax,0x72000001
  4022f8:	inc    ebp
  4022f9:	add    eax,DWORD PTR [eax]
  4022fb:	jo     0x402314
  4022fd:	lea    eax,[ecx]
  4022ff:	add    BYTE PTR [eax],al
  402301:	add    DWORD PTR [ebx],edx
  402303:	or     edx,DWORD PTR [ecx]
  402305:	or     edx,DWORD PTR [esi]
  402307:	push   es
  402308:	mov    gs,WORD PTR [ecx-0x74]
  40230b:	push   ecx
  40230c:	add    BYTE PTR [eax],al
  40230e:	add    DWORD PTR [edx+0x23280b11],esp
  402314:	add    BYTE PTR [eax],al
  402316:	or     al,BYTE PTR [esi]
  402318:	adc    ecx,DWORD PTR [esi+edx*1]
  40231b:	adc    ecx,DWORD PTR ds:0xc11552b
  402321:	adc    DWORD PTR ds:0x6f080c9a,ecx
  402327:	sub    DWORD PTR [eax],eax
  402329:	add    BYTE PTR [edx],cl
  40232b:	or     BYTE PTR [edi],bl
  40232d:	adc    al,0x6f
  40232f:	sub    al,BYTE PTR [eax]
  402331:	add    BYTE PTR [edx],cl
  402333:	sub    eax,0x41c7212
  402338:	add    BYTE PTR [eax+0x28],dh
  40233b:	sub    eax,DWORD PTR [eax]
  40233d:	add    BYTE PTR [edx],cl
  40233f:	adc    al,0x13
  402341:	or     ch,bl
  402343:	xlat   BYTE PTR ds:[ebx]
  402344:	add    BYTE PTR [eax],al
  402346:	add    dh,bl
  402348:	and    eax,0xd22de26
  40234d:	jb     0x40230a
  40234f:	add    al,0x0
  402351:	jo     0x40236a
  402353:	lea    eax,[ecx]
  402355:	add    BYTE PTR [eax],al
  402357:	add    DWORD PTR [ebx],edx
  402359:	push   cs
  40235a:	adc    DWORD PTR [esi],ecx
  40235c:	push   ss
  40235d:	or     DWORD PTR [edx+0x2c280e11],esp
  402363:	add    BYTE PTR [eax],al
  402365:	or     dl,BYTE PTR [ebx+edx*1]
  402368:	or     ch,bl
  40236a:	mov    al,0x0
  40236c:	add    BYTE PTR [eax],al
  40236e:	adc    DWORD PTR ds:0xd135817,ecx
  402374:	adc    DWORD PTR ds:0x698e0c11,ecx
  40237a:	xor    ah,BYTE PTR [ebx+0x2d280403]
  402380:	add    BYTE PTR [eax],al
  402382:	or     dl,BYTE PTR [ebx]
  402384:	add    al,0x72
  402386:	jl     0x40238d
  402388:	add    BYTE PTR [eax+0x2],dh
  40238b:	jnp    0x4023a9
  40238d:	add    BYTE PTR [eax],al
  40238f:	add    al,0x28
  402391:	add    BYTE PTR cs:[eax],al
  402394:	or     dh,BYTE PTR [edx+0x7c]
  402397:	add    eax,0x2f287000
  40239c:	add    BYTE PTR [eax],al
  40239e:	or     dl,BYTE PTR [ebx]
  4023a0:	add    eax,0x3028
  4023a5:	or     bl,BYTE PTR [ecx]
  4023a7:	xor    bl,BYTE PTR ds:0x80720511
  4023ad:	add    eax,0x30287000
  4023b2:	add    BYTE PTR [eax],al
  4023b4:	or     cl,BYTE PTR [esp+edx*2+0x6f010000]
  4023bb:	xor    DWORD PTR [eax],eax
  4023bd:	add    BYTE PTR [edx],cl
  4023bf:	sub    BYTE PTR [edi],ch
  4023c1:	add    BYTE PTR [eax],al
  4023c3:	or     dl,BYTE PTR [ebx]
  4023c5:	add    eax,0x58472
  4023ca:	jo     0x4023e4
  4023cc:	lea    eax,[ecx]
  4023ce:	add    BYTE PTR [eax],al
  4023d0:	add    DWORD PTR [ebx],edx
  4023d2:	movups XMMWORD PTR [edi],xmm1
  4023d5:	push   ss
  4023d6:	adc    DWORD PTR [edx+eiz*4],eax
  4023d9:	adc    DWORD PTR [edi],ecx
  4023db:	pop    ss
  4023dc:	adc    DWORD PTR ds:0x280f11a2,eax
  4023e2:	and    eax,DWORD PTR [eax]
  4023e4:	add    BYTE PTR [edx],cl
  4023e6:	adc    DWORD PTR [ecx+edx*1],eax
  4023e9:	add    eax,0x3273
  4023ee:	or     dl,BYTE PTR [ebx]
  4023f0:	push   es
  4023f1:	adc    DWORD PTR [esi],eax
  4023f3:	sub    BYTE PTR [ebx],dh
  4023f5:	add    BYTE PTR [eax],al
  4023f7:	or     cl,BYTE PTR [ebx]
  4023f9:	fisub  WORD PTR [ecx]
  4023fb:	adc    eax,DWORD PTR [edi]
  4023fd:	jb     0x40243a
  4023ff:	push   es
  402400:	add    BYTE PTR [eax+0x17],dh
  402403:	lea    eax,[ecx]
  402405:	add    BYTE PTR [eax],al
  402407:	add    DWORD PTR [ebx],edx
  402409:	adc    BYTE PTR [ecx],dl
  40240b:	adc    BYTE PTR [esi],dl
  40240d:	adc    DWORD PTR [edi],eax
  40240f:	mov    ds:0x24281011,al
  402414:	add    BYTE PTR [eax],al
  402416:	or     dl,BYTE PTR [ebx+edx*1]
  402419:	or     dh,bl
  40241b:	add    al,BYTE PTR [edi]
  40241d:	sub    dl,BYTE PTR [ecx]
  40241f:	or     BYTE PTR [edx],ch
  402421:	add    BYTE PTR [eax],al
  402423:	add    BYTE PTR [ecx],al
  402425:	sub    BYTE PTR [eax],al
  402427:	add    BYTE PTR [eax],al
  402429:	add    BYTE PTR [ecx+0xb52400],dl
  40242f:	add    edx,DWORD PTR [edi+0x0]
  402432:	add    BYTE PTR [ecx],al
  402434:	add    BYTE PTR [eax],al
  402436:	xchg   ecx,eax
  402437:	add    BYTE PTR [eax+edi*4],ah
  40243a:	add    BYTE PTR [edx],ah
  40243c:	push   esi
  40243d:	add    BYTE PTR [eax],al
  40243f:	add    DWORD PTR [eax],eax
  402441:	add    BYTE PTR [ebp+0x1],bl
  402444:	or     ah,BYTE PTR [edi+0x1]
  402447:	and    DWORD PTR [esi+0x0],edx
  40244a:	add    BYTE PTR [ecx],al
  40244c:	sbb    esi,DWORD PTR [eax]
  40244e:	add    al,0x0
  402450:	pushf  
  402451:	add    BYTE PTR [eax],al
  402453:	add    BYTE PTR ds:0x28110000,al
  402459:	xor    al,0x0
  40245b:	add    BYTE PTR [edx],cl
  40245d:	outs   dx,DWORD PTR ds:[esi]
  40245e:	xor    eax,0x6f0a0000
  402463:	add    BYTE PTR ss:[eax],al
  402466:	or     cl,BYTE PTR [edx]
  402468:	push   es
  402469:	sub    BYTE PTR [edi],dh
  40246b:	add    BYTE PTR [eax],al
  40246d:	or     cl,BYTE PTR [ebx]
  40246f:	add    al,BYTE PTR [edx]
  402471:	pop    es
  402472:	jb     0x4024a8
  402474:	pop    es
  402475:	add    BYTE PTR [eax+0x28],dh
  402478:	push   cs
  402479:	add    BYTE PTR [eax],al
  40247b:	push   es
  40247c:	jge    0x402499
  40247e:	add    BYTE PTR [eax],al
  402480:	add    al,0x2
  402482:	jnp    0x40249f
  402484:	add    BYTE PTR [eax],al
  402486:	add    al,0x2c
  402488:	dec    eax
  402489:	jb     0x4024f5
  40248b:	pop    es
  40248c:	add    BYTE PTR [eax+0x28],dh
  40248f:	cmp    BYTE PTR [eax],al
  402491:	add    BYTE PTR [edx],cl
  402493:	add    bh,BYTE PTR [ebx+0x1b]
  402496:	add    BYTE PTR [eax],al
  402498:	add    al,0x17
  40249a:	outs   dx,DWORD PTR ds:[esi]
  40249b:	cmp    DWORD PTR [eax],eax
  40249d:	add    BYTE PTR [edx],cl
  40249f:	add    bh,BYTE PTR [ebx+0x1b]
  4024a2:	add    BYTE PTR [eax],al
  4024a4:	add    al,0x2
  4024a6:	inc    BYTE PTR [esi]
  4024a8:	adc    BYTE PTR [eax],al
  4024aa:	add    BYTE PTR [esi],al
  4024ac:	jae    0x4024e8
  4024ae:	add    BYTE PTR [eax],al
  4024b0:	or     ch,BYTE PTR [edi+0x3b]
  4024b3:	add    BYTE PTR [eax],al
  4024b5:	or     bl,dh
  4024b7:	cmp    ecx,DWORD PTR [edx+esi*2]
  4024ba:	mov    esi,0x17700007
  4024bf:	lea    eax,[ecx]
  4024c1:	add    BYTE PTR [eax],al
  4024c3:	add    DWORD PTR ds:0xa2081609,ecx
  4024c9:	or     DWORD PTR [eax],ebp
  4024cb:	sub    al,0x0
  4024cd:	add    BYTE PTR [edx],cl
  4024cf:	fisub  WORD PTR [edx]
  4024d1:	jb     0x40253e
  4024d3:	or     BYTE PTR [eax],al
  4024d5:	jo     0x4024ef
  4024d7:	lea    eax,[ecx]
  4024d9:	add    BYTE PTR [eax],al
  4024db:	add    DWORD PTR [ebx],edx
  4024dd:	add    al,0x11
  4024df:	add    al,0x16
  4024e1:	pop    es
  4024e2:	mov    ds:0x72170411,al
  4024e7:	xor    al,0x7
  4024e9:	add    BYTE PTR [eax-0x5e],dh
  4024ec:	adc    DWORD PTR [eax+ebp*1],eax
  4024ef:	and    eax,DWORD PTR [eax]
  4024f1:	add    BYTE PTR [edx],cl
  4024f3:	sub    al,BYTE PTR [ecx]
  4024f5:	adc    BYTE PTR [eax],al
  4024f7:	add    BYTE PTR [eax],al
  4024f9:	add    BYTE PTR [ebx],bh
  4024fb:	add    BYTE PTR ds:0x56190060,ah
  402501:	add    BYTE PTR [eax],al
  402503:	add    DWORD PTR [esi+0x1b7b02],edx
  402509:	add    BYTE PTR [esp+ebp*1],al
  40250c:	sbb    al,0x2
  40250e:	jnp    0x40252b
  402510:	add    BYTE PTR [eax],al
  402512:	add    al,0x6f
  402514:	cmp    al,0x0
  402516:	add    BYTE PTR [edx],cl
  402518:	add    dl,BYTE PTR [edi*2+0x400001b]
  40251f:	jb     0x40250a
  402521:	or     BYTE PTR [eax],al
  402523:	jo     0x40254d
  402525:	cmp    eax,0x2a0a0000
  40252a:	add    BYTE PTR [eax],al
  40252c:	sbb    esi,DWORD PTR [eax]
  40252e:	add    al,0x0
  402530:	inc    eax
  402531:	add    BYTE PTR [eax],al
  402533:	add    BYTE PTR [esi],al
  402535:	add    BYTE PTR [eax],al
  402537:	adc    DWORD PTR [edx],eax
  402539:	jnp    0x402556
  40253b:	add    BYTE PTR [eax],al
  40253d:	add    al,0x2c
  40253f:	aaa    
  402540:	jb     0x40257d
  402542:	or     DWORD PTR [eax],eax
  402544:	jo     0x40256e
  402546:	cmp    BYTE PTR [eax],al
  402548:	add    BYTE PTR [edx],cl
  40254a:	add    bh,BYTE PTR [ebx+0x1b]
  40254d:	add    BYTE PTR [eax],al
  40254f:	add    al,0x6f
  402551:	sub    DWORD PTR [eax],eax
  402553:	add    BYTE PTR [edx],cl
  402555:	add    dl,BYTE PTR [edi*2+0x400001b]
  40255c:	ficomp WORD PTR [ecx]
  40255e:	or     dh,BYTE PTR [edx-0x63]
  402561:	or     DWORD PTR [eax],eax
  402563:	jo     0x40257c
  402565:	lea    eax,[ecx]
  402567:	add    BYTE PTR [eax],al
  402569:	add    DWORD PTR [ebx],ecx
  40256b:	pop    es
  40256c:	push   ss
  40256d:	push   es
  40256e:	mov    ds:0x242807,al
  402573:	add    BYTE PTR [edx],cl
  402575:	fiadd  WORD PTR [eax]
  402577:	sub    al,BYTE PTR [ecx]
  402579:	adc    BYTE PTR [eax],al
  40257b:	add    BYTE PTR [eax],al
  40257d:	add    BYTE PTR [edx],dl
  40257f:	add    BYTE PTR [esi+eiz*1],dl
  402582:	add    BYTE PTR [ecx],bl
  402584:	push   esi
  402585:	add    BYTE PTR [eax],al
  402587:	add    DWORD PTR [esi],ebx
  402589:	add    ch,BYTE PTR [eax]
  40258b:	sbb    eax,DWORD PTR [eax]
  40258d:	add    BYTE PTR [edx],cl
  40258f:	sub    bl,BYTE PTR [esi]
  402591:	sub    BYTE PTR [edi],bh
  402593:	add    BYTE PTR [eax],al
  402595:	or     ah,BYTE PTR [esi]
  402597:	sub    ch,dl
  402599:	add    ch,BYTE PTR [eax]
  40259b:	sbb    eax,DWORD PTR [eax]
  40259d:	add    BYTE PTR [edx],cl
  40259f:	jb     0x4025cb
  4025a1:	or     al,BYTE PTR [eax]
  4025a3:	jo     0x4025cd
  4025a5:	cmp    BYTE PTR [eax],al
  4025a7:	add    BYTE PTR [edx],cl
  4025a9:	jle    0x4025d1
  4025ab:	add    BYTE PTR [eax],al
  4025ad:	add    al,0x2d
  4025af:	adc    DWORD PTR [esi+edi*8],edx
  4025b2:	push   es
  4025b3:	push   ds
  4025b4:	add    BYTE PTR [eax],al
  4025b6:	push   es
  4025b7:	jae    0x4025f9
  4025b9:	add    BYTE PTR [eax],al
  4025bb:	or     al,BYTE PTR [eax+0x4000026]
  4025c1:	jle    0x4025e9
  4025c3:	add    BYTE PTR [eax],al
  4025c5:	add    al,0x28
  4025c7:	inc    ecx
  4025c8:	add    BYTE PTR [eax],al
  4025ca:	or     ah,BYTE PTR [esi]
  4025cc:	add    ch,BYTE PTR [eax]
  4025ce:	adc    eax,0x2a060000
  4025d3:	push   ds
  4025d4:	add    ch,BYTE PTR [eax]
  4025d6:	sbb    eax,DWORD PTR [eax]
  4025d8:	add    BYTE PTR [edx],cl
  4025da:	sub    ah,BYTE PTR [edx+0x2]
  4025dd:	jnp    0x402642
  4025df:	add    BYTE PTR [eax],al
  4025e1:	add    al,0x2
  4025e3:	jnp    0x402649
  4025e5:	add    BYTE PTR [eax],al
  4025e7:	add    al,0x2
  4025e9:	jnp    0x402650
  4025eb:	add    BYTE PTR [eax],al
  4025ed:	add    al,0x28
  4025ef:	push   ss
  4025f0:	add    BYTE PTR [eax],al
  4025f2:	push   es
  4025f3:	sub    dl,BYTE PTR [ebx]
  4025f5:	xor    BYTE PTR [ebx],al
  4025f7:	add    BYTE PTR [ebx+0x0],dh
  4025fa:	add    BYTE PTR [eax],al
  4025fc:	pop    es
  4025fd:	add    BYTE PTR [eax],al
  4025ff:	adc    DWORD PTR [ebx-0x46],esi
  402602:	add    BYTE PTR [eax],al
  402604:	push   es
  402605:	or     al,BYTE PTR [esi]
  402607:	add    edi,DWORD PTR [ebp+0x64]
  40260a:	add    BYTE PTR [eax],al
  40260c:	add    al,0x6
  40260e:	add    al,0x7d
  402610:	add    BYTE PTR gs:[eax],al
  402613:	add    al,0x6
  402615:	add    bh,BYTE PTR [ebp+0x63]
  402618:	add    BYTE PTR [eax],al
  40261a:	add    al,0x72
  40261c:	sahf   
  40261d:	or     al,BYTE PTR [eax]
  40261f:	jo     0x402649
  402621:	cmp    eax,0x20a0000
  402626:	sub    BYTE PTR [eax+eax*1],bl
  402629:	add    BYTE PTR [esi],al
  40262b:	sub    al,0x14
  40262d:	sub    BYTE PTR [edx+0x0],al
  402630:	add    BYTE PTR [edx],cl
  402632:	jae    0x402677
  402634:	add    BYTE PTR [eax],al
  402636:	or     bh,BYTE PTR [esi+0x44]
  402639:	add    BYTE PTR [eax],al
  40263b:	or     ch,BYTE PTR [eax]
  40263d:	inc    ebp
  40263e:	add    BYTE PTR [eax],al
  402640:	or     dl,BYTE PTR [edi]
  402642:	(bad)  
  402643:	adc    eax,DWORD PTR [eax+0x4000023]
  402649:	add    al,BYTE PTR [esi]
  40264b:	jnp    0x4026b1
  40264d:	add    BYTE PTR [eax],al
  40264f:	add    al,0x6
  402651:	jnp    0x4026b8
  402653:	add    BYTE PTR [eax],al
  402655:	add    al,0x73
  402657:	inc    esi
  402658:	add    BYTE PTR [eax],al
  40265a:	or     bh,BYTE PTR [ebp+0x25]
  40265d:	add    BYTE PTR [eax],al
  40265f:	add    al,0x6
  402661:	inc    BYTE PTR [esi]
  402663:	mov    ebx,0x73060000
  402668:	inc    eax
  402669:	add    BYTE PTR [eax],al
  40266b:	or     ch,BYTE PTR [eax]
  40266d:	inc    ecx
  40266e:	add    BYTE PTR [eax],al
  402670:	or     ah,BYTE PTR [esi]
  402672:	sub    al,BYTE PTR [eax]
  402674:	sbb    esi,DWORD PTR [eax]
  402676:	add    al,0x0
  402678:	out    dx,eax
  402679:	add    BYTE PTR [eax],al
  40267b:	add    BYTE PTR [eax],cl
  40267d:	add    BYTE PTR [eax],al
  40267f:	adc    DWORD PTR [eax],ebp
  402681:	inc    edi
  402682:	add    BYTE PTR [eax],al
  402684:	or     cl,BYTE PTR [eax+ecx*1]
  402687:	jb     0x402661
  402689:	or     al,BYTE PTR [eax]
  40268b:	jo     0x4026a4
  40268d:	sub    BYTE PTR [eax+0x0],cl
  402690:	add    BYTE PTR [edx],cl
  402692:	or     cl,BYTE PTR [eax]
  402694:	jb     0x4026be
  402696:	or     eax,DWORD PTR [eax]
  402698:	jo     0x4026b5
  40269a:	sub    BYTE PTR [eax+0x0],cl
  40269d:	add    BYTE PTR [edx],cl
  40269f:	or     ebx,esi
  4026a1:	and    BYTE PTR ds:0xb7872,cl
  4026a7:	jo     0x4026c0
  4026a9:	lea    eax,[ecx]
  4026ab:	add    BYTE PTR [eax],al
  4026ad:	add    DWORD PTR [ebx],edx
  4026af:	add    eax,0x9160511
  4026b4:	mov    ds:0x24280511,al
  4026b9:	add    BYTE PTR [eax],al
  4026bb:	or     dl,BYTE PTR [edi]
  4026bd:	or     bl,BYTE PTR [ebx]
  4026bf:	or     ebx,esi
  4026c1:	add    BYTE PTR [edx],al
  4026c3:	push   es
  4026c4:	pop    es
  4026c5:	sub    BYTE PTR [ecx+0x0],cl
  4026c8:	add    BYTE PTR [edx],cl
  4026ca:	jae    0x402716
  4026cc:	add    BYTE PTR [eax],al
  4026ce:	or     bh,BYTE PTR [ebp+0x20]
  4026d1:	add    BYTE PTR [eax],al
  4026d3:	add    al,0x2
  4026d5:	jnp    0x4026f7
  4026d7:	add    BYTE PTR [eax],al
  4026d9:	add    al,0x6f
  4026db:	dec    ebx
  4026dc:	add    BYTE PTR [eax],al
  4026de:	or     dh,BYTE PTR [edx-0x22]
  4026e1:	or     eax,DWORD PTR [eax]
  4026e3:	jo     0x4026fc
  4026e5:	lea    eax,[ecx]
  4026e7:	add    BYTE PTR [eax],al
  4026e9:	add    DWORD PTR [ebx],edx
  4026eb:	push   es
  4026ec:	adc    DWORD PTR [esi],eax
  4026ee:	push   ss
  4026ef:	push   es
  4026f0:	mov    WORD PTR [ecx+0x0],ss
  4026f3:	add    BYTE PTR [ecx],al
  4026f5:	mov    ds:0x23280611,al
  4026fa:	add    BYTE PTR [eax],al
  4026fc:	or     dh,BYTE PTR [edx+0x50]
  4026ff:	or     al,0x0
  402701:	jo     0x40271a
  402703:	lea    eax,[ecx]
  402705:	add    BYTE PTR [eax],al
  402707:	add    DWORD PTR [ebx],edx
  402709:	pop    es
  40270a:	adc    DWORD PTR [edi],eax
  40270c:	push   ss
  40270d:	pop    es
  40270e:	mov    WORD PTR [ecx+0x0],ss
  402711:	add    BYTE PTR [ecx],al
  402713:	mov    ds:0x23280711,al
  402718:	add    BYTE PTR [eax],al
  40271a:	or     al,BYTE PTR [edx]
  40271c:	add    bh,BYTE PTR [ebx+0x20]
  40271f:	add    BYTE PTR [eax],al
  402721:	add    al,0xfe
  402723:	push   es
  402724:	dec    esp
  402725:	add    BYTE PTR [eax],al
  402727:	or     dh,BYTE PTR [ebx+0x4d]
  40272a:	add    BYTE PTR [eax],al
  40272c:	or     dh,BYTE PTR [ebx+0x4e]
  40272f:	add    BYTE PTR [eax],al
  402731:	or     bh,BYTE PTR [ebp+0x1f]
  402734:	add    BYTE PTR [eax],al
  402736:	add    al,0xde
  402738:	xor    eax,0xc2720413
  40273d:	or     al,0x0
  40273f:	jo     0x402758
  402741:	lea    eax,[ecx]
  402743:	add    BYTE PTR [eax],al
  402745:	add    DWORD PTR [ebx],edx
  402747:	or     BYTE PTR [ecx],dl
  402749:	or     BYTE PTR [esi],dl
  40274b:	adc    DWORD PTR [edx+eiz*4],eax
  40274e:	adc    DWORD PTR [eax],ecx
  402750:	sub    BYTE PTR [eax+eax*1],ah
  402753:	add    BYTE PTR [edx],cl
  402755:	add    dl,BYTE PTR [esi+edi*8]
  402758:	push   es
  402759:	inc    ecx
  40275a:	add    BYTE PTR [eax],al
  40275c:	or     dh,BYTE PTR [ebx+0x4d]
  40275f:	add    BYTE PTR [eax],al
  402761:	or     dh,BYTE PTR [ebx+0x4e]
  402764:	add    BYTE PTR [eax],al
  402766:	or     bh,BYTE PTR [ebp+0x1f]
  402769:	add    BYTE PTR [eax],al
  40276b:	add    al,0xde
  40276d:	add    BYTE PTR [edx],ch
  40276f:	add    BYTE PTR [ecx],al
  402771:	sbb    al,0x0
  402773:	add    BYTE PTR [eax],al
  402775:	add    BYTE PTR [eax],al
  402777:	add    BYTE PTR [edx],ah
  402779:	and    al,BYTE PTR [eax]
  40277b:	and    BYTE PTR [eax+eax*1+0x0],ch
  40277f:	add    DWORD PTR [eax],eax
  402781:	add    BYTE PTR [edx+0x0],al
  402784:	ja     0x40273f
  402786:	add    BYTE PTR ds:0x1000063,dh
  40278c:	sbb    esi,DWORD PTR [eax]
  40278e:	push   es
  40278f:	add    dh,ch
  402791:	add    BYTE PTR [eax],al
  402793:	add    BYTE PTR [ecx],cl
  402795:	add    BYTE PTR [eax],al
  402797:	adc    DWORD PTR [edx+0x5f],esi
  40279a:	or     eax,0x4f737000
  40279f:	add    BYTE PTR [eax],al
  4027a1:	or     dl,BYTE PTR [ebx]
  4027a3:	add    al,0x2
  4027a5:	add    al,0x7d
  4027a7:	and    al,BYTE PTR [eax]
  4027a9:	add    BYTE PTR [edx+eax*1],al
  4027ac:	add    ebp,DWORD PTR [edi+0x50]
  4027af:	add    BYTE PTR [eax],al
  4027b1:	or     ch,BYTE PTR [eax]
  4027b3:	sbb    eax,0x72060000
  4027b8:	movs   DWORD PTR es:[edi],DWORD PTR ds:[esi]
  4027b9:	or     eax,0x38287000
  4027be:	add    BYTE PTR [eax],al
  4027c0:	or     dh,BYTE PTR [edx+0x1]
  4027c3:	push   cs
  4027c4:	add    BYTE PTR [eax+0x16],dh
  4027c7:	lea    eax,[ecx]
  4027c9:	add    BYTE PTR [eax],al
  4027cb:	add    DWORD PTR [eax],ebp
  4027cd:	push   ecx
  4027ce:	add    BYTE PTR [eax],al
  4027d0:	or     dl,BYTE PTR [ebx]
  4027d2:	add    eax,0x3f28
  4027d7:	or     ah,BYTE PTR [esi]
  4027d9:	fimul  WORD PTR [ecx+edx*1]
  4027dc:	add    eax,0x511072c
  4027e1:	outs   dx,DWORD PTR ds:[esi]
  4027e2:	add    DWORD PTR [eax],eax
  4027e4:	add    BYTE PTR [edx],cl
  4027e6:	fsubr  QWORD PTR [eax]
  4027e8:	and    BYTE PTR [eax],al
  4027ea:	add    BYTE PTR [esi],al
  4027ec:	or     al,BYTE PTR [edx]
  4027ee:	add    eax,DWORD PTR [esi]
  4027f0:	jae    0x402844
  4027f2:	add    BYTE PTR [eax],al
  4027f4:	or     cl,BYTE PTR [ebx]
  4027f6:	sub    BYTE PTR [ebx+0x0],dl
  4027f9:	add    BYTE PTR [edx],cl
  4027fb:	or     al,0x72
  4027fd:	pop    ebp
  4027fe:	push   cs
  4027ff:	add    BYTE PTR [eax+0x28],dh
  402802:	cmp    BYTE PTR [eax],al
  402804:	add    BYTE PTR [edx],cl
  402806:	add    al,BYTE PTR [edx]
  402808:	push   ss
  402809:	pop    es
  40280a:	or     BYTE PTR [edx],al
  40280c:	jnp    0x40282d
  40280e:	add    BYTE PTR [eax],al
  402810:	add    al,0x73
  402812:	push   esp
  402813:	add    BYTE PTR [eax],al
  402815:	or     bh,BYTE PTR [ebp+0x21]
  402818:	add    BYTE PTR [eax],al
  40281a:	add    al,0x2
  40281c:	jnp    0x40283f
  40281e:	add    BYTE PTR [eax],al
  402820:	add    al,0x3
  402822:	outs   dx,DWORD PTR ds:[esi]
  402823:	push   ebp
  402824:	add    BYTE PTR [eax],al
  402826:	or     ah,BYTE PTR [esi]
  402828:	jb     0x4027e5
  40282a:	push   cs
  40282b:	add    BYTE PTR [eax+0x28],dh
  40282e:	cmp    BYTE PTR [eax],al
  402830:	add    BYTE PTR [edx],cl
  402832:	add    bh,BYTE PTR [ebx+0x25]
  402835:	add    BYTE PTR [eax],al
  402837:	add    al,0x6f
  402839:	push   esi
  40283a:	add    BYTE PTR [eax],al
  40283c:	or     bl,dh
  40283e:	cmp    BYTE PTR ds:0xf1572,cl
  402844:	jo     0x40285d
  402846:	lea    eax,[ecx]
  402848:	add    BYTE PTR [eax],al
  40284a:	add    DWORD PTR [ebx],edx
  40284c:	push   es
  40284d:	adc    DWORD PTR [esi],eax
  40284f:	push   ss
  402850:	or     DWORD PTR [edx+0x2c280611],esp
  402856:	add    BYTE PTR [eax],al
  402858:	or     al,BYTE PTR [edx]
  40285a:	jnp    0x402881
  40285c:	add    BYTE PTR [eax],al
  40285e:	add    al,0x9
  402860:	outs   dx,DWORD PTR ds:[esi]
  402861:	push   edi
  402862:	add    BYTE PTR [eax],al
  402864:	or     ch,BYTE PTR [edi+0x58]
  402867:	add    BYTE PTR [eax],al
  402869:	or     al,BYTE PTR [edx]
  40286b:	jnp    0x402892
  40286d:	add    BYTE PTR [eax],al
  40286f:	add    al,0x6f
  402871:	pop    ecx
  402872:	add    BYTE PTR [eax],al
  402874:	or     bl,dh
  402876:	add    dh,bl
  402878:	or     al,0x11
  40287a:	add    al,0x2c
  40287c:	pop    es
  40287d:	adc    DWORD PTR [edi+ebp*2],eax
  402880:	add    DWORD PTR [eax],eax
  402882:	add    BYTE PTR [edx],cl
  402884:	fsubr  QWORD PTR [edx]
  402886:	add    BYTE PTR [eax],al
  402888:	add    DWORD PTR [eax],ebp
  40288a:	add    BYTE PTR [eax],al
  40288c:	add    al,BYTE PTR [eax]
  40288e:	cmp    eax,DWORD PTR [eax]
  402890:	or     BYTE PTR [ebx+0x0],al
  402893:	or     al,0x0
  402895:	add    BYTE PTR [eax],al
  402897:	add    BYTE PTR [eax],al
  402899:	add    BYTE PTR [eax+eax*1],cl
  40289c:	fwait
  40289d:	cmps   DWORD PTR ds:[esi],DWORD PTR es:[edi]
  40289e:	add    BYTE PTR [eax],bh
  4028a0:	arpl   WORD PTR [eax],ax
  4028a2:	add    BYTE PTR [ecx],al
  4028a4:	add    al,BYTE PTR [eax]
  4028a6:	or     al,0x0
  4028a8:	aad    0xe1
  4028aa:	add    BYTE PTR [eax+eax*1],cl
  4028ad:	add    BYTE PTR [eax],al
  4028af:	add    BYTE PTR [ebx],dl
  4028b1:	xor    BYTE PTR ds:0x6a00,al
  4028b7:	add    BYTE PTR [edx],cl
  4028b9:	add    BYTE PTR [eax],al
  4028bb:	adc    esi,edi
  4028bd:	adc    edi,DWORD PTR [esi+0x23]
  4028c0:	add    BYTE PTR [eax],al
  4028c2:	add    al,0x2d
  4028c4:	cmp    BYTE PTR [edx-0x71],dh
  4028c7:	(bad)  
  4028c9:	jo     0x4028f3
  4028cb:	pop    edx
  4028cc:	add    BYTE PTR [eax],al
  4028ce:	or     ch,BYTE PTR [eax]
  4028d0:	pop    ebx
  4028d1:	add    BYTE PTR [eax],al
  4028d3:	or     ch,BYTE PTR [eax]
  4028d5:	pop    esp
  4028d6:	add    BYTE PTR [eax],al
  4028d8:	or     dl,BYTE PTR [edi]
  4028da:	lea    eax,[ecx]
  4028dc:	add    BYTE PTR [eax],al
  4028de:	add    DWORD PTR [edx],ecx
  4028e0:	push   es
  4028e1:	push   ss
  4028e2:	jb     0x4028f1
  4028e4:	adc    BYTE PTR [eax],al
  4028e6:	jo     0x40288a
  4028e8:	push   es
  4028e9:	sub    BYTE PTR [ebp+0x0],bl
  4028ec:	add    BYTE PTR [edx],cl
  4028ee:	jae    0x402933
  4028f0:	add    BYTE PTR [eax],al
  4028f2:	or     bh,BYTE PTR [esi+0x44]
  4028f5:	add    BYTE PTR [eax],al
  4028f7:	or     ch,BYTE PTR [eax]
  4028f9:	inc    ebp
  4028fa:	add    BYTE PTR [eax],al
  4028fc:	or     dh,BYTE PTR [edx+0x23]
  4028ff:	adc    BYTE PTR [eax],al
  402901:	jo     0x40292b
  402903:	cmp    eax,0x20a0000
  402908:	jnp    0x40292b
  40290a:	add    BYTE PTR [eax],al
  40290c:	add    al,0x6f
  40290e:	pop    esi
  40290f:	add    BYTE PTR [eax],al
  402911:	or     al,BYTE PTR [edx]
  402913:	jnp    0x40293a
  402915:	add    BYTE PTR [eax],al
  402917:	add    al,0x6f
  402919:	pop    ecx
  40291a:	add    BYTE PTR [eax],al
  40291c:	or     dl,BYTE PTR [esi]
  40291e:	(bad)  
  40291f:	adc    eax,DWORD PTR [eax+0x4000023]
  402925:	sub    al,BYTE PTR [eax]
  402927:	add    BYTE PTR [ebx],dl
  402929:	xor    BYTE PTR ds:0x4400,al
  40292f:	add    BYTE PTR [edx],cl
  402931:	add    BYTE PTR [eax],al
  402933:	adc    DWORD PTR [edx],eax
  402935:	sub    BYTE PTR [eax+eax*1],bl
  402938:	add    BYTE PTR [esi],al
  40293a:	sub    eax,0x5b282e
  40293f:	add    BYTE PTR [edx],cl
  402941:	sub    BYTE PTR [eax+eax*1+0x0],bl
  402945:	or     dl,BYTE PTR [edi]
  402947:	lea    eax,[ecx]
  402949:	add    BYTE PTR [eax],al
  40294b:	add    DWORD PTR [edx],ecx
  40294d:	push   es
  40294e:	push   ss
  40294f:	jb     0x4029a0
  402951:	adc    BYTE PTR [eax],al
  402953:	jo     0x4028f7
  402955:	push   es
  402956:	sub    BYTE PTR [ebp+0x0],bl
  402959:	add    BYTE PTR [edx],cl
  40295b:	jae    0x4029a0
  40295d:	add    BYTE PTR [eax],al
  40295f:	or     bh,BYTE PTR [esi+0x44]
  402962:	add    BYTE PTR [eax],al
  402964:	or     ch,BYTE PTR [eax]
  402966:	inc    ebp
  402967:	add    BYTE PTR [eax],al
  402969:	or     al,BYTE PTR [edx]
  40296b:	jnp    0x40298e
  40296d:	add    BYTE PTR [eax],al
  40296f:	add    al,0x3
  402971:	add    al,0x6f
  402973:	pop    edi
  402974:	add    BYTE PTR [eax],al
  402976:	or     ch,BYTE PTR [edx]
  402978:	adc    esi,DWORD PTR [eax]
  40297a:	add    eax,0x4500
  40297f:	add    BYTE PTR [edx],cl
  402981:	add    BYTE PTR [eax],al
  402983:	adc    DWORD PTR [edx],eax
  402985:	sub    BYTE PTR [eax+eax*1],bl
  402988:	add    BYTE PTR [esi],al
  40298a:	sub    eax,0x5b282e
  40298f:	add    BYTE PTR [edx],cl
  402991:	sub    BYTE PTR [eax+eax*1+0x0],bl
  402995:	or     dl,BYTE PTR [edi]
  402997:	lea    eax,[ecx]
  402999:	add    BYTE PTR [eax],al
  40299b:	add    DWORD PTR [edx],ecx
  40299d:	push   es
  40299e:	push   ss
  40299f:	jb     0x4029f0
  4029a1:	adc    BYTE PTR [eax],al
  4029a3:	jo     0x402947
  4029a5:	push   es
  4029a6:	sub    BYTE PTR [ebp+0x0],bl
  4029a9:	add    BYTE PTR [edx],cl
  4029ab:	jae    0x4029f0
  4029ad:	add    BYTE PTR [eax],al
  4029af:	or     bh,BYTE PTR [esi+0x44]
  4029b2:	add    BYTE PTR [eax],al
  4029b4:	or     ch,BYTE PTR [eax]
  4029b6:	inc    ebp
  4029b7:	add    BYTE PTR [eax],al
  4029b9:	or     al,BYTE PTR [edx]
  4029bb:	jnp    0x4029de
  4029bd:	add    BYTE PTR [eax],al
  4029bf:	add    al,0x3
  4029c1:	add    al,0x5
  4029c3:	outs   dx,DWORD PTR ds:[esi]
  4029c4:	pusha  
  4029c5:	add    BYTE PTR [eax],al
  4029c7:	or     ch,BYTE PTR [edx]
  4029c9:	mov    ds:0x1c2802,al
  4029ce:	add    BYTE PTR [esi],al
  4029d0:	sub    eax,0x1065720b
  4029d5:	add    BYTE PTR [eax+0x28],dh
  4029d8:	pop    edx
  4029d9:	add    BYTE PTR [eax],al
  4029db:	or     ch,BYTE PTR [edx]
  4029dd:	add    bh,BYTE PTR [ebx+0x22]
  4029e0:	add    BYTE PTR [eax],al
  4029e2:	add    al,0x2c
  4029e4:	or     al,0x2
  4029e6:	jnp    0x402a0a
  4029e8:	add    BYTE PTR [eax],al
  4029ea:	add    al,0x3
  4029ec:	outs   dx,DWORD PTR ds:[esi]
  4029ed:	popa   
  4029ee:	add    BYTE PTR [eax],al
  4029f0:	or     ch,BYTE PTR [edx]
  4029f2:	add    BYTE PTR [eax],al
  4029f4:	sbb    esi,DWORD PTR [eax]
  4029f6:	add    al,0x0
  4029f8:	inc    edx
  4029f9:	add    BYTE PTR [eax],al
  4029fb:	add    BYTE PTR [ebx],cl
  4029fd:	add    BYTE PTR [eax],al
  4029ff:	adc    DWORD PTR [edx],eax
  402a01:	jnp    0x402a27
  402a03:	add    BYTE PTR [eax],al
  402a05:	add    al,0x2d
  402a07:	cmp    esi,edi
  402a09:	adc    edi,DWORD PTR [esi+0x23]
  402a0c:	add    BYTE PTR [eax],al
  402a0e:	add    al,0x2c
  402a10:	sub    DWORD PTR [edx],eax
  402a12:	sub    BYTE PTR [edi],dl
  402a14:	add    BYTE PTR [eax],al
  402a16:	push   es
  402a17:	ficomp WORD PTR [ecx]
  402a19:	or     dh,BYTE PTR [edx-0x8]
  402a1c:	adc    BYTE PTR [eax],al
  402a1e:	jo     0x402a37
  402a20:	lea    eax,[ecx]
  402a22:	add    BYTE PTR [eax],al
  402a24:	add    DWORD PTR [ebx],ecx
  402a26:	pop    es
  402a27:	push   ss
  402a28:	push   es
  402a29:	mov    ds:0x2c2807,al
  402a2e:	add    BYTE PTR [edx],cl
  402a30:	fiadd  WORD PTR [eax]
  402a32:	push   ss
  402a33:	(bad)  
  402a34:	adc    eax,DWORD PTR [eax+0x4000023]
  402a3a:	add    dl,BYTE PTR [edi]
  402a3c:	jge    0x402a62
  402a3e:	add    BYTE PTR [eax],al
  402a40:	add    al,0x2a
  402a42:	add    BYTE PTR [eax],al
  402a44:	add    DWORD PTR [eax],edx
  402a46:	add    BYTE PTR [eax],al
  402a48:	add    BYTE PTR [eax],al
  402a4a:	adc    DWORD PTR [eax],eax
  402a4c:	or     BYTE PTR [ecx],bl
  402a4e:	add    BYTE PTR [ecx],bl
  402a50:	arpl   WORD PTR [eax],ax
  402a52:	add    BYTE PTR [ecx],al
  402a54:	and    bh,dh
  402a56:	adc    edi,DWORD PTR [esi+0x23]
  402a59:	add    BYTE PTR [eax],al
  402a5b:	add    al,0x2a
  402a5d:	add    BYTE PTR [eax],al
  402a5f:	add    BYTE PTR [ebx],bl
  402a61:	xor    BYTE PTR [eax+eax*1],al
  402a64:	lods   eax,DWORD PTR ds:[esi]
  402a65:	add    BYTE PTR [eax],al
  402a67:	add    BYTE PTR [eax+eax*1],cl
  402a6a:	add    BYTE PTR [ecx],dl
  402a6c:	add    ebp,DWORD PTR [edi+0x62]
  402a6f:	add    BYTE PTR [eax],al
  402a71:	or     bh,BYTE PTR [esi+0x63]
  402a74:	add    BYTE PTR [eax],al
  402a76:	or     bh,BYTE PTR [esi+0x64]
  402a79:	add    BYTE PTR [eax],al
  402a7b:	or     dh,BYTE PTR [ebx+0x65]
  402a7e:	add    BYTE PTR [eax],al
  402a80:	or     dh,BYTE PTR [ebx+0x66]
  402a83:	add    BYTE PTR [eax],al
  402a85:	or     ch,BYTE PTR [edi+0x67]
  402a88:	add    BYTE PTR [eax],al
  402a8a:	or     al,BYTE PTR [ebx]
  402a8c:	outs   dx,DWORD PTR ds:[esi]
  402a8d:	bound  eax,QWORD PTR [eax]
  402a8f:	add    BYTE PTR [edx],cl
  402a91:	jle    0x402afb
  402a93:	add    BYTE PTR [eax],al
  402a95:	or     ch,BYTE PTR [edi+0x69]
  402a98:	add    BYTE PTR [eax],al
  402a9a:	or     ch,BYTE PTR [ecx+eiz*1]
  402a9d:	add    ebp,DWORD PTR [edi+0x62]
  402aa0:	add    BYTE PTR [eax],al
  402aa2:	or     bh,BYTE PTR [esi+0x68]
  402aa5:	add    BYTE PTR [eax],al
  402aa7:	or     ch,BYTE PTR [edi+0x6a]
  402aaa:	add    BYTE PTR [eax],al
  402aac:	or     ah,BYTE PTR [esi]
  402aae:	add    bh,BYTE PTR [ebx+0x25]
  402ab1:	add    BYTE PTR [eax],al
  402ab3:	add    al,0x72
  402ab5:	push   esp
  402ab6:	adc    DWORD PTR [eax],eax
  402ab8:	jo     0x402b29
  402aba:	imul   eax,DWORD PTR [eax],0x0
  402abd:	or     ch,BYTE PTR [eax]
  402abf:	ins    BYTE PTR es:[edi],dx
  402ac0:	add    BYTE PTR [eax],al
  402ac2:	or     ch,BYTE PTR [ebx+edx*2]
  402ac5:	jb     0x402a81
  402ac7:	adc    DWORD PTR [eax],eax
  402ac9:	jo     0x402af3
  402acb:	cmp    BYTE PTR [eax],al
  402acd:	add    BYTE PTR [edx],cl
  402acf:	add    ebp,DWORD PTR [edi+0x62]
  402ad2:	add    BYTE PTR [eax],al
  402ad4:	or     ch,BYTE PTR [edi+0x6d]
  402ad7:	add    BYTE PTR [eax],al
  402ad9:	or     ch,BYTE PTR [edi+0x6e]
  402adc:	add    BYTE PTR [eax],al
  402ade:	or     cl,BYTE PTR [ebx]
  402ae0:	sub    esp,DWORD PTR [edx]
  402ae2:	pop    es
  402ae3:	outs   dx,DWORD PTR ds:[esi]
  402ae4:	outs   dx,DWORD PTR ds:[esi]
  402ae5:	add    BYTE PTR [eax],al
  402ae7:	or     cl,BYTE PTR [edx]
  402ae9:	jb     0x402b19
  402aeb:	adc    al,BYTE PTR [eax]
  402aed:	jo     0x402b06
  402aef:	lea    eax,[ecx]
  402af1:	add    BYTE PTR [eax],al
  402af3:	add    DWORD PTR [eax+ecx*1],ecx
  402af6:	push   ss
  402af7:	push   es
  402af8:	outs   dx,DWORD PTR ds:[esi]
  402af9:	jo     0x402afb
  402afb:	add    BYTE PTR [edx],cl
  402afd:	mov    ds:0x232808,al
  402b02:	add    BYTE PTR [edx],cl
  402b04:	pop    es
  402b05:	outs   dx,DWORD PTR ds:[esi]
  402b06:	jno    0x402b08
  402b08:	add    BYTE PTR [edx],cl
  402b0a:	sub    eax,0x70aded6
  402b0f:	sub    al,0x6
  402b11:	pop    es
  402b12:	outs   dx,DWORD PTR ds:[esi]
  402b13:	add    DWORD PTR [eax],eax
  402b15:	add    BYTE PTR [edx],cl
  402b17:	fsubr  QWORD PTR [edx]
  402b19:	add    BYTE PTR [eax],al
  402b1b:	add    BYTE PTR [ecx],al
  402b1d:	adc    BYTE PTR [eax],al
  402b1f:	add    BYTE PTR [edx],al
  402b21:	add    BYTE PTR [eax+eax*1+0x2e],dh
  402b25:	mov    ds:0xa00,al
  402b2a:	add    BYTE PTR [eax],al
  402b2c:	push   es
  402b2d:	sub    al,BYTE PTR [eax]
  402b2f:	add    BYTE PTR [ebx],dl
  402b31:	xor    BYTE PTR [edx],al
  402b33:	add    BYTE PTR [edx],dl
  402b35:	add    BYTE PTR [eax],al
  402b37:	add    BYTE PTR ds:0x73110000,cl
  402b3d:	jb     0x402b3f
  402b3f:	add    BYTE PTR [edx],cl
  402b41:	or     ch,BYTE PTR [eax]
  402b43:	jae    0x402b45
  402b45:	add    BYTE PTR [edx],cl
  402b47:	push   es
  402b48:	jae    0x402bbe
  402b4a:	add    BYTE PTR [eax],al
  402b4c:	or     ch,BYTE PTR [edx]
  402b4e:	push   ds
  402b4f:	add    ch,BYTE PTR [eax]
  402b51:	sbb    eax,DWORD PTR [eax]
  402b53:	add    BYTE PTR [edx],cl
  402b55:	sub    bh,BYTE PTR [esi+0x2]
  402b58:	sub    BYTE PTR [ebx],bl
  402b5a:	add    BYTE PTR [eax],al
  402b5c:	or     bh,BYTE PTR [esi+0x27]
  402b5f:	add    BYTE PTR [eax],al
  402b61:	add    al,0x17
  402b63:	push   0x58
  402b65:	and    BYTE PTR [edi],0x0
  402b68:	add    BYTE PTR [edx+eax*1],al
  402b6b:	jle    0x402b94
  402b6d:	add    BYTE PTR [eax],al
  402b6f:	add    al,0x28
  402b71:	add    BYTE PTR es:[eax],al
  402b74:	push   es
  402b75:	sub    bl,BYTE PTR [esi]
  402b77:	add    bh,BYTE PTR [ebx+0x28]
  402b7a:	add    BYTE PTR [eax],al
  402b7c:	add    al,0x2a
  402b7e:	and    al,BYTE PTR [edx]
  402b80:	add    edi,DWORD PTR [ebp+0x28]
  402b83:	add    BYTE PTR [eax],al
  402b85:	add    al,0x2a
  402b87:	push   es
  402b88:	sub    dl,BYTE PTR [edx+0x222802]
  402b8e:	add    BYTE PTR [esi],al
  402b90:	add    al,BYTE PTR [ebx]
  402b92:	sub    BYTE PTR [eax+eax*1],bh
  402b95:	add    BYTE PTR [esi],al
  402b97:	add    al,BYTE PTR [eax+ebp*1]
  402b9a:	add    BYTE PTR ds:[eax],al
  402b9d:	push   es
  402b9e:	add    al,BYTE PTR ds:0x4028
  402ba4:	push   es
  402ba5:	add    cl,BYTE PTR [esi]
  402ba7:	add    al,0x28
  402ba9:	inc    edx
  402baa:	add    BYTE PTR [eax],al
  402bac:	push   es
  402bad:	sub    al,BYTE PTR [eax]
  402baf:	add    BYTE PTR [ebx],dl
  402bb1:	xor    BYTE PTR ds:0x2600,al
  402bb7:	add    BYTE PTR [esi],cl
  402bb9:	add    BYTE PTR [eax],al
  402bbb:	adc    DWORD PTR [edx+0x68],esi
  402bbe:	adc    al,BYTE PTR [eax]
  402bc0:	jo     0x402bea
  402bc2:	cmp    BYTE PTR [eax],al
  402bc4:	add    BYTE PTR [edx],cl
  402bc6:	add    ch,BYTE PTR [eax]
  402bc8:	cmp    eax,0x2060000
  402bcd:	sub    BYTE PTR [ebx],bh
  402bcf:	add    BYTE PTR [eax],al
  402bd1:	push   es
  402bd2:	adc    al,BYTE PTR [eax]
  402bd4:	add    ch,BYTE PTR [eax]
  402bd6:	aas    
  402bd7:	add    BYTE PTR [eax],al
  402bd9:	push   es
  402bda:	add    ch,BYTE PTR [edi+0x2a]
  402bdd:	add    BYTE PTR [eax],al
  402bdf:	push   es
  402be0:	sub    ah,BYTE PTR es:[esi+0x12e072]
  402be7:	jo     0x402c11
  402be9:	cmp    BYTE PTR [eax],al
  402beb:	add    BYTE PTR [edx],cl
  402bed:	add    ch,BYTE PTR [eax]
  402bef:	inc    ecx
  402bf0:	add    BYTE PTR [eax],al
  402bf2:	push   es
  402bf3:	sub    al,0xc
  402bf5:	add    ch,BYTE PTR [eax]
  402bf7:	inc    ecx
  402bf8:	add    BYTE PTR [eax],al
  402bfa:	push   es
  402bfb:	outs   dx,DWORD PTR ds:[esi]
  402bfc:	sub    eax,0x2a060000
  402c01:	jb     0x402c4b
  402c03:	adc    eax,DWORD PTR [eax]
  402c05:	jo     0x402c2f
  402c07:	cmp    BYTE PTR [eax],al
  402c09:	add    BYTE PTR [edx],cl
  402c0b:	sub    bl,BYTE PTR [esi]
  402c0d:	add    bh,BYTE PTR [ebx+0x29]
  402c10:	add    BYTE PTR [eax],al
  402c12:	add    al,0x2a
  402c14:	and    al,BYTE PTR [edx]
  402c16:	add    edi,DWORD PTR [ebp+0x29]
  402c19:	add    BYTE PTR [eax],al
  402c1b:	add    al,0x2a
  402c1d:	push   ds
  402c1e:	add    bh,BYTE PTR [ebx+0x2a]
  402c21:	add    BYTE PTR [eax],al
  402c23:	add    al,0x2a
  402c25:	and    al,BYTE PTR [edx]
  402c27:	add    edi,DWORD PTR [ebp+0x2a]
  402c2a:	add    BYTE PTR [eax],al
  402c2c:	add    al,0x2a
  402c2e:	push   ds
  402c2f:	add    bh,BYTE PTR [ebx+0x2b]
  402c32:	add    BYTE PTR [eax],al
  402c34:	add    al,0x2a
  402c36:	and    al,BYTE PTR [edx]
  402c38:	add    edi,DWORD PTR [ebp+0x2b]
  402c3b:	add    BYTE PTR [eax],al
  402c3d:	add    al,0x2a
  402c3f:	push   ds
  402c40:	add    bh,BYTE PTR [ebx+0x2c]
  402c43:	add    BYTE PTR [eax],al
  402c45:	add    al,0x2a
  402c47:	and    al,BYTE PTR [edx]
  402c49:	add    edi,DWORD PTR [ebp+0x2c]
  402c4c:	add    BYTE PTR [eax],al
  402c4e:	add    al,0x2a
  402c50:	jb     0x402c54
  402c52:	sub    BYTE PTR [edx],ah
  402c54:	add    BYTE PTR [eax],al
  402c56:	push   es
  402c57:	add    al,BYTE PTR [ebx]
  402c59:	sub    BYTE PTR [edi+0x0],al
  402c5c:	add    BYTE PTR [esi],al
  402c5e:	add    al,BYTE PTR [eax+ebp*1]
  402c61:	dec    ecx
  402c62:	add    BYTE PTR [eax],al
  402c64:	push   es
  402c65:	add    al,BYTE PTR ds:0x4b28
  402c6b:	push   es
  402c6c:	sub    al,BYTE PTR [eax]
  402c6e:	add    BYTE PTR [eax],al
  402c70:	adc    esi,DWORD PTR [eax]
  402c72:	add    al,0x0
  402c74:	and    BYTE PTR [eax],al
  402c76:	add    BYTE PTR [eax],al
  402c78:	push   cs
  402c79:	add    BYTE PTR [eax],al
  402c7b:	adc    DWORD PTR [edx-0x3c],esi
  402c7e:	adc    eax,DWORD PTR [eax]
  402c80:	jo     0x402caa
  402c82:	cmp    BYTE PTR [eax],al
  402c84:	add    BYTE PTR [edx],cl
  402c86:	add    ch,BYTE PTR [eax]
  402c88:	inc    esi
  402c89:	add    BYTE PTR [eax],al
  402c8b:	push   es
  402c8c:	adc    al,BYTE PTR [eax]
  402c8e:	add    ch,BYTE PTR [eax]
  402c90:	dec    eax
  402c91:	add    BYTE PTR [eax],al
  402c93:	push   es
  402c94:	add    ch,BYTE PTR [edi+0x32]
  402c97:	add    BYTE PTR [eax],al
  402c99:	push   es
  402c9a:	sub    ah,BYTE PTR es:[esi+0x143e72]
  402ca1:	jo     0x402ccb
  402ca3:	cmp    BYTE PTR [eax],al
  402ca5:	add    BYTE PTR [edx],cl
  402ca7:	add    ch,BYTE PTR [eax]
  402ca9:	dec    edx
  402caa:	add    BYTE PTR [eax],al
  402cac:	push   es
  402cad:	sub    al,0xc
  402caf:	add    ch,BYTE PTR [eax]
  402cb1:	dec    edx
  402cb2:	add    BYTE PTR [eax],al
  402cb4:	push   es
  402cb5:	outs   dx,DWORD PTR ds:[esi]
  402cb6:	xor    eax,0x2a060000
  402cbb:	jb     0x402d05
  402cbd:	adc    eax,DWORD PTR [eax]
  402cbf:	jo     0x402ce9
  402cc1:	cmp    BYTE PTR [eax],al
  402cc3:	add    BYTE PTR [edx],cl
  402cc5:	sub    bl,BYTE PTR [esi]
  402cc7:	add    bh,BYTE PTR [ebx+0x2d]
  402cca:	add    BYTE PTR [eax],al
  402ccc:	add    al,0x2a
  402cce:	and    al,BYTE PTR [edx]
  402cd0:	add    edi,DWORD PTR [ebp+0x2d]
  402cd3:	add    BYTE PTR [eax],al
  402cd5:	add    al,0x2a
  402cd7:	push   ds
  402cd8:	add    bh,BYTE PTR [ebx+0x2e]
  402cdb:	add    BYTE PTR [eax],al
  402cdd:	add    al,0x2a
  402cdf:	and    al,BYTE PTR [edx]
  402ce1:	add    edi,DWORD PTR [ebp+0x2e]
  402ce4:	add    BYTE PTR [eax],al
  402ce6:	add    al,0x2a
  402ce8:	push   ds
  402ce9:	add    bh,BYTE PTR [ebx+0x2f]
  402cec:	add    BYTE PTR [eax],al
  402cee:	add    al,0x2a
  402cf0:	and    al,BYTE PTR [edx]
  402cf2:	add    edi,DWORD PTR [ebp+0x2f]
  402cf5:	add    BYTE PTR [eax],al
  402cf7:	add    al,0x2a
  402cf9:	jbe    0x402cfd
  402cfb:	sub    BYTE PTR [ebx],bl
  402cfd:	add    BYTE PTR [eax],al
  402cff:	or     al,BYTE PTR [edx]
  402d01:	jae    0x402d78
  402d03:	add    BYTE PTR [eax],al
  402d05:	or     bh,BYTE PTR [ebp+0x31]
  402d08:	add    BYTE PTR [eax],al
  402d0a:	add    al,0x2
  402d0c:	jae    0x402d29
  402d0e:	add    BYTE PTR [eax],al
  402d10:	or     bh,BYTE PTR [ebp+0x32]
  402d13:	add    BYTE PTR [eax],al
  402d15:	add    al,0x2a
  402d17:	pop    esi
  402d18:	jle    0x402d4a
  402d1a:	add    BYTE PTR [eax],al
  402d1c:	add    al,0x2d
  402d1e:	or     dh,BYTE PTR [ebx+0x4c]
  402d21:	add    BYTE PTR [eax],al
  402d23:	push   es
  402d24:	xor    BYTE PTR [eax],0x0
  402d27:	add    BYTE PTR [esi+edi*2],al
  402d2a:	xor    BYTE PTR [eax],al
  402d2c:	add    BYTE PTR [edx+ebp*1],al
  402d2f:	add    BYTE PTR [ebx],dl
  402d31:	xor    BYTE PTR [eax+eax*1],al
  402d34:	dec    ecx
  402d35:	add    BYTE PTR [eax],al
  402d37:	add    BYTE PTR [edi],cl
  402d39:	add    BYTE PTR [eax],al
  402d3b:	adc    DWORD PTR [ebx],eax
  402d3d:	add    al,0x5
  402d3f:	push   cs
  402d40:	add    al,0x73
  402d42:	cmp    BYTE PTR [eax],al
  402d44:	add    BYTE PTR [esi],al
  402d46:	or     dh,BYTE PTR [edx-0x42]
  402d49:	adc    al,0x0
  402d4b:	jo     0x402d64
  402d4d:	lea    eax,[ecx]
  402d4f:	add    BYTE PTR [eax],al
  402d51:	add    DWORD PTR [ebx],ecx
  402d53:	pop    es
  402d54:	push   ss
  402d55:	push   es
  402d56:	outs   dx,DWORD PTR ds:[esi]
  402d57:	and    eax,0x8c060000
  402d5c:	add    BYTE PTR [eax],0x0
  402d5f:	add    DWORD PTR [edx+0x232807],esp
  402d65:	add    BYTE PTR [edx],cl
  402d67:	add    al,BYTE PTR [esi]
  402d69:	sub    BYTE PTR [edx+0x0],dl
  402d6c:	add    BYTE PTR [esi],al
  402d6e:	jb     0x402d9c
  402d70:	adc    eax,0x38287000
  402d75:	add    BYTE PTR [eax],al
  402d77:	or     al,BYTE PTR [esi]
  402d79:	outs   dx,DWORD PTR ds:[esi]
  402d7a:	and    eax,DWORD PTR [eax]
  402d7c:	add    BYTE PTR [esi],al
  402d7e:	push   es
  402d7f:	outs   dx,DWORD PTR ds:[esi]
  402d80:	and    eax,0x2a060000
  402d85:	add    BYTE PTR [eax],al
  402d87:	add    BYTE PTR [ebx],dl
  402d89:	xor    BYTE PTR [eax+eax*1],al
  402d8c:	inc    edi
  402d8d:	add    BYTE PTR [eax],al
  402d8f:	add    BYTE PTR [eax],dl
  402d91:	add    BYTE PTR [eax],al
  402d93:	adc    DWORD PTR [ebx],eax
  402d95:	add    al,0x5
  402d97:	jae    0x402ddc
  402d99:	add    BYTE PTR [eax],al
  402d9b:	push   es
  402d9c:	or     dh,BYTE PTR [edx-0x70]
  402d9f:	adc    eax,0x8d177000
  402da4:	add    DWORD PTR [eax],eax
  402da6:	add    BYTE PTR [ecx],al
  402da8:	or     eax,DWORD PTR [edi]
  402daa:	push   ss
  402dab:	push   es
  402dac:	outs   dx,DWORD PTR ds:[esi]
  402dad:	and    eax,0x8c060000
  402db2:	add    BYTE PTR [eax],0x0
  402db5:	add    DWORD PTR [edx+0x232807],esp
  402dbb:	add    BYTE PTR [edx],cl
  402dbd:	add    al,BYTE PTR [esi]
  402dbf:	sub    BYTE PTR [edx+0x0],dl
  402dc2:	add    BYTE PTR [esi],al
  402dc4:	jb     0x402df2
  402dc6:	adc    eax,0x38287000
  402dcb:	add    BYTE PTR [eax],al
  402dcd:	or     al,BYTE PTR [esi]
  402dcf:	outs   dx,DWORD PTR ds:[esi]
  402dd0:	and    eax,DWORD PTR [eax]
  402dd2:	add    BYTE PTR [esi],al
  402dd4:	push   es
  402dd5:	outs   dx,DWORD PTR ds:[esi]
  402dd6:	and    eax,0x2a060000
  402ddb:	add    BYTE PTR [ebx],dl
  402ddd:	xor    BYTE PTR [edx],al
  402ddf:	add    BYTE PTR [ecx],bl
  402de1:	add    BYTE PTR [eax],al
  402de3:	add    BYTE PTR [ecx],dl
  402de5:	add    BYTE PTR [eax],al
  402de7:	adc    DWORD PTR [edx],eax
  402de9:	add    ebp,DWORD PTR [eax]
  402deb:	push   ecx
  402dec:	add    BYTE PTR [eax],al
  402dee:	push   es
  402def:	or     dh,BYTE PTR [edx+0xa]
  402df2:	push   ss
  402df3:	add    BYTE PTR [eax+0x28],dh
  402df6:	cmp    BYTE PTR [eax],al
  402df8:	add    BYTE PTR [edx],cl
  402dfa:	push   es
  402dfb:	outs   dx,DWORD PTR ds:[esi]
  402dfc:	and    al,0x0
  402dfe:	add    BYTE PTR [esi],al
  402e00:	sub    al,BYTE PTR [eax]
  402e02:	add    BYTE PTR [eax],al
  402e04:	sbb    esi,DWORD PTR [eax]
  402e06:	add    eax,DWORD PTR [eax]
  402e08:	xor    BYTE PTR [eax],al
  402e0a:	add    BYTE PTR [eax],al
  402e0c:	adc    al,BYTE PTR [eax]
  402e0e:	add    BYTE PTR [ecx],dl
  402e10:	adc    al,0xa
  402e12:	push   ss
  402e13:	or     eax,DWORD PTR [edx]
  402e15:	jnp    0x402e49
  402e17:	add    BYTE PTR [eax],al
  402e19:	add    al,0x25
  402e1b:	or     al,0x12
  402e1d:	add    DWORD PTR [eax],ebp
  402e1f:	jbe    0x402e21
  402e21:	add    BYTE PTR [edx],cl
  402e23:	add    bh,BYTE PTR [ebx+0x31]
  402e26:	add    BYTE PTR [eax],al
  402e28:	add    al,0x3
  402e2a:	adc    al,BYTE PTR [eax]
  402e2c:	outs   dx,DWORD PTR ds:[esi]
  402e2d:	ja     0x402e2f
  402e2f:	add    BYTE PTR [edx],cl
  402e31:	fimul  WORD PTR es:[edx]
  402e34:	pop    es
  402e35:	sub    al,0x6
  402e37:	or     BYTE PTR [eax],ch
  402e39:	js     0x402e3b
  402e3b:	add    BYTE PTR [edx],cl
  402e3d:	fadd   QWORD PTR [esi]
  402e3f:	sub    al,BYTE PTR [ecx]
  402e41:	adc    BYTE PTR [eax],al
  402e43:	add    BYTE PTR [edx],al
  402e45:	add    BYTE PTR [eax+eax*1],al
  402e48:	and    BYTE PTR [eax+eax*1],ah
  402e4b:	or     al,BYTE PTR [eax]
  402e4d:	add    BYTE PTR [eax],al
  402e4f:	add    BYTE PTR [ebx],bl
  402e51:	xor    BYTE PTR [ebx],al
  402e53:	add    BYTE PTR [edx+0x0],cl
  402e56:	add    BYTE PTR [eax],al
  402e58:	adc    eax,DWORD PTR [eax]
  402e5a:	add    BYTE PTR [ecx],dl
  402e5c:	push   ss
  402e5d:	or     al,BYTE PTR [edx]
  402e5f:	jnp    0x402e93
  402e61:	add    BYTE PTR [eax],al
  402e63:	add    al,0x25
  402e65:	or     edx,DWORD PTR [edx]
  402e67:	add    BYTE PTR [eax],ch
  402e69:	jbe    0x402e6b
  402e6b:	add    BYTE PTR [edx],cl
  402e6d:	add    al,BYTE PTR [ebx]
  402e6f:	outs   dx,DWORD PTR ds:[esi]
  402e70:	and    eax,0x28060000
  402e75:	push   ecx
  402e76:	add    BYTE PTR [eax],al
  402e78:	push   es
  402e79:	sub    al,0xc
  402e7b:	jb     0x402ed9
  402e7d:	push   ss
  402e7e:	add    BYTE PTR [eax+0x28],dh
  402e81:	jns    0x402e83
  402e83:	add    BYTE PTR [edx],cl
  402e85:	ficomp WORD PTR [esi]
  402e87:	add    bh,BYTE PTR [ebx+0x31]
  402e8a:	add    BYTE PTR [eax],al
  402e8c:	add    al,0x3
  402e8e:	outs   dx,DWORD PTR ds:[esi]
  402e8f:	and    eax,0x3060000
  402e94:	outs   dx,DWORD PTR ds:[esi]
  402e95:	jp     0x402e97
  402e97:	add    BYTE PTR [edx],cl
  402e99:	fimul  WORD PTR [edx]
  402e9b:	push   es
  402e9c:	sub    al,0x6
  402e9e:	pop    es
  402e9f:	sub    BYTE PTR [eax+0x0],bh
  402ea2:	add    BYTE PTR [edx],cl
  402ea4:	fsubr  QWORD PTR [edx]
  402ea6:	add    BYTE PTR [eax],al
  402ea8:	add    DWORD PTR [eax],edx
  402eaa:	add    BYTE PTR [eax],al
  402eac:	add    al,BYTE PTR [eax]
  402eae:	add    al,BYTE PTR [eax]
  402eb0:	cmp    eax,0xa003f
  402eb5:	add    BYTE PTR [eax],al
  402eb7:	add    BYTE PTR [ebx],bl
  402eb9:	xor    BYTE PTR [edx],al
  402ebb:	add    BYTE PTR [ebx],ch
  402ebd:	add    BYTE PTR [eax],al
  402ebf:	add    BYTE PTR [ebx],dl
  402ec1:	add    BYTE PTR [eax],al
  402ec3:	adc    DWORD PTR [esi],edx
  402ec5:	or     al,BYTE PTR [edx]
  402ec7:	jnp    0x402efb
  402ec9:	add    BYTE PTR [eax],al
  402ecb:	add    al,0x25
  402ecd:	or     edx,DWORD PTR [edx]
  402ecf:	add    BYTE PTR [eax],ch
  402ed1:	jbe    0x402ed3
  402ed3:	add    BYTE PTR [edx],cl
  402ed5:	add    bh,BYTE PTR [ebx+0x31]
  402ed8:	add    BYTE PTR [eax],al
  402eda:	add    al,0x3
  402edc:	outs   dx,DWORD PTR ds:[esi]
  402edd:	jnp    0x402edf
  402edf:	add    BYTE PTR [edx],cl
  402ee1:	fimul  WORD PTR es:[edx]
  402ee4:	push   es
  402ee5:	sub    al,0x6
  402ee7:	pop    es
  402ee8:	sub    BYTE PTR [eax+0x0],bh
  402eeb:	add    BYTE PTR [edx],cl
  402eed:	fsubr  QWORD PTR [edx]
  402eef:	add    BYTE PTR [ecx],al
  402ef1:	adc    BYTE PTR [eax],al
  402ef3:	add    BYTE PTR [edx],al
  402ef5:	add    BYTE PTR [edx],al
  402ef7:	add    BYTE PTR [esi],bl
  402ef9:	and    BYTE PTR [eax],al
  402efb:	or     al,BYTE PTR [eax]
  402efd:	add    BYTE PTR [eax],al
  402eff:	add    BYTE PTR [edx+0x16be72],ch
  402f05:	jo     0x402f2f
  402f07:	cmp    BYTE PTR [eax],al
  402f09:	add    BYTE PTR [edx],cl
  402f0b:	add    al,BYTE PTR [edi*2+0x4000036]
  402f12:	add    al,BYTE PTR [ebx]
  402f14:	jge    0x402f4b
  402f16:	add    BYTE PTR [eax],al
  402f18:	add    al,0x2
  402f1a:	jae    0x402f78
  402f1c:	add    BYTE PTR [eax],al
  402f1e:	push   es
  402f1f:	jge    0x402f58
  402f21:	add    BYTE PTR [eax],al
  402f23:	add    al,0x2
  402f25:	sub    BYTE PTR [esi+0x0],dl
  402f28:	add    BYTE PTR [esi],al
  402f2a:	sub    al,BYTE PTR [eax]
  402f2c:	add    esi,DWORD PTR [eax]
  402f2e:	add    eax,DWORD PTR [eax]
  402f30:	inc    ecx
  402f31:	add    BYTE PTR [eax],al
  402f33:	add    BYTE PTR [eax],al
  402f35:	add    BYTE PTR [eax],al
  402f37:	add    BYTE PTR [edx],al
  402f39:	jnp    0x402f6e
  402f3b:	add    BYTE PTR [eax],al
  402f3d:	add    al,0x2c
  402f3f:	cmp    BYTE PTR [edx+0x2e],dh
  402f42:	pop    ss
  402f43:	add    BYTE PTR [eax+0x28],dh
  402f46:	cmp    BYTE PTR [eax],al
  402f48:	add    BYTE PTR [edx],cl
  402f4a:	add    bh,BYTE PTR [ebx+0x34]
  402f4d:	add    BYTE PTR [eax],al
  402f4f:	add    al,0x6f
  402f51:	jl     0x402f53
  402f53:	add    BYTE PTR [edx],cl
  402f55:	add    bh,BYTE PTR es:[ebx+0x33]
  402f59:	add    BYTE PTR [eax],al
  402f5b:	add    al,0x2
  402f5d:	inc    BYTE PTR [esi]
  402f5f:	push   edi
  402f60:	add    BYTE PTR [eax],al
  402f62:	push   es
  402f63:	jae    0x402f9f
  402f65:	add    BYTE PTR [eax],al
  402f67:	or     ch,BYTE PTR [edi+0x7d]
  402f6a:	add    BYTE PTR [eax],al
  402f6c:	or     al,BYTE PTR [edx]
  402f6e:	jnp    0x402fa3
  402f70:	add    BYTE PTR [eax],al
  402f72:	add    al,0x6f
  402f74:	jle    0x402f76
  402f76:	add    BYTE PTR [edx],cl
  402f78:	sub    al,BYTE PTR [eax]
  402f7a:	add    BYTE PTR [eax],al
  402f7c:	sbb    esi,DWORD PTR [eax]
  402f7e:	add    eax,0x11e00
  402f83:	add    BYTE PTR [eax+eax*1],dl
  402f86:	add    BYTE PTR [ecx],dl
  402f88:	jb     0x402f28
  402f8a:	pop    ss
  402f8b:	add    BYTE PTR [eax+0x16],dh
  402f8e:	lea    eax,[ecx]
  402f90:	add    BYTE PTR [eax],al
  402f92:	add    DWORD PTR [eax],ebp
  402f94:	push   ecx
  402f95:	add    BYTE PTR [eax],al
  402f97:	or     cl,BYTE PTR [edx]
  402f99:	adc    al,0xb
  402f9b:	adc    al,0xc
  402f9d:	add    bh,BYTE PTR [ebx+0x36]
  402fa0:	add    BYTE PTR [eax],al
  402fa2:	add    al,0x28
  402fa4:	jg     0x402fa6
  402fa6:	add    BYTE PTR [edx],cl
  402fa8:	or     ebp,DWORD PTR [eax]
  402faa:	add    BYTE PTR [eax],0x0
  402fad:	or     al,BYTE PTR [edx]
  402faf:	jnp    0x402fe6
  402fb1:	add    BYTE PTR [eax],al
  402fb3:	add    al,0x2
  402fb5:	jnp    0x402fed
  402fb7:	add    BYTE PTR [eax],al
  402fb9:	add    al,0x28
  402fbb:	add    DWORD PTR [eax],0x720c0a00
  402fc1:	ret    0x17
  402fc4:	jo     0x402fee
  402fc6:	cmp    BYTE PTR [eax],al
  402fc8:	add    BYTE PTR [edx],cl
  402fca:	add    al,BYTE PTR [edx]
  402fcc:	jnp    0x403005
  402fce:	add    BYTE PTR [eax],al
  402fd0:	add    al,0x17
  402fd2:	lea    ecx,[eax+0x13010000]
  402fd8:	add    al,0x11
  402fda:	add    al,0x16
  402fdc:	or     BYTE PTR [edx-0x7d8cfbef],ah
  402fe2:	add    BYTE PTR [eax],al
  402fe4:	or     bh,BYTE PTR [ebp+0x33]
  402fe7:	add    BYTE PTR [eax],al
  402fe9:	add    al,0x73
  402feb:	add    DWORD PTR [eax],0x0
  402fee:	or     cl,BYTE PTR ds:0xffff2009
  402ff4:	(bad)  
  402ff5:	jg     0x403066
  402ff7:	test   BYTE PTR [eax],al
  402ff9:	add    BYTE PTR [edx],cl
  402ffb:	add    bh,BYTE PTR [ebx+0x33]
  402ffe:	add    BYTE PTR [eax],al
  403000:	add    al,0x6f
  403002:	test   DWORD PTR [eax],eax
  403004:	add    BYTE PTR [edx],cl
  403006:	outs   dx,DWORD PTR ds:[esi]
  403007:	xchg   BYTE PTR [eax],al
  403009:	add    BYTE PTR [edx],cl
  40300b:	or     DWORD PTR [edi-0x79],ebp
  40300e:	add    BYTE PTR [eax],al
  403010:	or     al,BYTE PTR [edx]
  403012:	jnp    0x403047
  403014:	add    BYTE PTR [eax],al
  403016:	add    al,0xd0
  403018:	pop    es
  403019:	add    BYTE PTR [eax],al
  40301b:	add    DWORD PTR [eax],ebp
  40301d:	mov    BYTE PTR [eax],al
  40301f:	add    BYTE PTR [edx],cl
  403021:	pop    es
  403022:	or     BYTE PTR [edi-0x77],ch
  403025:	add    BYTE PTR [eax],al
  403027:	or     ah,BYTE PTR [esi]
  403029:	add    bh,BYTE PTR [ebx+0x33]
  40302c:	add    BYTE PTR [eax],al
  40302e:	add    al,0xd0
  403030:	or     BYTE PTR [eax],al
  403032:	add    BYTE PTR [ecx],al
  403034:	sub    BYTE PTR [eax+0x70a0000],cl
  40303a:	or     BYTE PTR [edi-0x77],ch
  40303d:	add    BYTE PTR [eax],al
  40303f:	or     ah,BYTE PTR [esi]
  403041:	add    bh,BYTE PTR [ebx+0x33]
  403044:	add    BYTE PTR [eax],al
  403046:	add    al,0x2
  403048:	inc    BYTE PTR [esi]
  40304a:	push   edi
  40304b:	add    BYTE PTR [eax],al
  40304d:	push   es
  40304e:	jae    0x40308a
  403050:	add    BYTE PTR [eax],al
  403052:	or     ch,BYTE PTR [edi-0x76]
  403055:	add    BYTE PTR [eax],al
  403057:	or     dh,BYTE PTR [edx+0x42]
  40305a:	sbb    BYTE PTR [eax],al
  40305c:	jo     0x403086
  40305e:	cmp    BYTE PTR [eax],al
  403060:	add    BYTE PTR [edx],cl
  403062:	add    bh,BYTE PTR [ebx+0x33]
  403065:	add    BYTE PTR [eax],al
  403067:	add    al,0x6f
  403069:	mov    eax,DWORD PTR [eax]
  40306b:	add    BYTE PTR [edx],cl
  40306d:	add    bh,BYTE PTR [ebx+0x37]
  403070:	add    BYTE PTR [eax],al
  403072:	add    al,0x7b
  403074:	inc    ebp
  403075:	add    BYTE PTR [eax],al
  403077:	add    al,0x6f
  403079:	jl     0x40307b
  40307b:	add    BYTE PTR [edx],cl
  40307d:	es jb  0x403045
  403080:	sbb    BYTE PTR [eax],al
  403082:	jo     0x4030ac
  403084:	cmp    BYTE PTR [eax],al
  403086:	add    BYTE PTR [edx],cl
  403088:	push   es
  403089:	jb     0x4030e3
  40308b:	sbb    DWORD PTR [eax],eax
  40308d:	jo     0x4030a5
  40308f:	lea    eax,[ecx]
  403091:	add    BYTE PTR [eax],al
  403093:	add    DWORD PTR [edi-0x74],ebp
  403096:	add    BYTE PTR [eax],al
  403098:	or     bl,dh
  40309a:	or     al,BYTE PTR [esi]
  40309c:	sub    al,0x6
  40309e:	push   es
  40309f:	outs   dx,DWORD PTR ds:[esi]
  4030a0:	add    DWORD PTR [eax],eax
  4030a2:	add    BYTE PTR [edx],cl
  4030a4:	fsubr  QWORD PTR [edx]
  4030a6:	add    BYTE PTR [eax],al
  4030a8:	inc    ecx
  4030a9:	sbb    al,0x0
  4030ab:	add    BYTE PTR [edx],al
  4030ad:	add    BYTE PTR [eax],al
  4030af:	add    BYTE PTR [ecx],dl
  4030b1:	add    BYTE PTR [eax],al
  4030b3:	add    BYTE PTR [edx],al
  4030b5:	add    DWORD PTR [eax],eax
  4030b7:	add    BYTE PTR [ebx],dl
  4030b9:	add    DWORD PTR [eax],eax
  4030bb:	add    BYTE PTR [edx],cl
  4030bd:	add    BYTE PTR [eax],al
  4030bf:	add    BYTE PTR [eax],al
  4030c1:	add    BYTE PTR [eax],al
  4030c3:	add    BYTE PTR [esi],bl
  4030c5:	add    ch,BYTE PTR [eax]
  4030c7:	pop    eax
  4030c8:	add    BYTE PTR [eax],al
  4030ca:	push   es
  4030cb:	sub    bl,BYTE PTR [ebx]
  4030cd:	xor    BYTE PTR [eax+eax*1],al
  4030d0:	test   al,0x0
  4030d2:	add    BYTE PTR [eax],al
  4030d4:	adc    eax,0x14110000
  4030d9:	or     al,0x72
  4030db:	js     0x4030f6
  4030dd:	add    BYTE PTR [eax+0x28],dh
  4030e0:	sub    eax,DWORD PTR [eax]
  4030e2:	add    BYTE PTR [edx],cl
  4030e4:	add    bh,BYTE PTR [ebx+0x33]
  4030e7:	add    BYTE PTR [eax],al
  4030e9:	add    al,0x6f
  4030eb:	lea    eax,[eax]
  4030ed:	add    BYTE PTR [edx],cl
  4030ef:	sbb    eax,DWORD PTR [eax-0x76]
  4030f2:	add    BYTE PTR [eax],al
  4030f4:	add    BYTE PTR [edx],al
  4030f6:	jnp    0x40312f
  4030f8:	add    BYTE PTR [eax],al
  4030fa:	add    al,0x6f
  4030fc:	je     0x4030fe
  4030fe:	add    BYTE PTR [esi],al
  403100:	add    bh,BYTE PTR [ebx+0x33]
  403103:	add    BYTE PTR [eax],al
  403105:	add    al,0x6f
  403107:	mov    es,WORD PTR [eax]
  403109:	add    BYTE PTR [edx],cl
  40310b:	fidiv  WORD PTR ds:0x1a11720a
  403111:	add    BYTE PTR [eax+0x17],dh
  403114:	lea    eax,[ecx]
  403116:	add    BYTE PTR [eax],al
  403118:	add    DWORD PTR ds:0xa2061609,ecx
  40311e:	or     DWORD PTR [eax],ebp
  403120:	sub    al,0x0
  403122:	add    BYTE PTR [edx],cl
  403124:	ficomp WORD PTR [ebx+ecx*1]
  403127:	jb     0x40313a
  403129:	sbb    al,BYTE PTR [eax]
  40312b:	jo     0x403144
  40312d:	lea    eax,[ecx]
  40312f:	add    BYTE PTR [eax],al
  403131:	add    DWORD PTR [ebx],edx
  403133:	add    al,0x11
  403135:	add    al,0x16
  403137:	pop    es
  403138:	mov    ds:0x2c280411,al
  40313d:	add    BYTE PTR [eax],al
  40313f:	or     bl,dh
  403141:	add    dh,bl
  403143:	cmp    eax,DWORD PTR [edx]
  403145:	jnp    0x40317a
  403147:	add    BYTE PTR [eax],al
  403149:	add    al,0x2
  40314b:	inc    BYTE PTR [esi]
  40314d:	push   edi
  40314e:	add    BYTE PTR [eax],al
  403150:	push   es
  403151:	jae    0x40318d
  403153:	add    BYTE PTR [eax],al
  403155:	or     ch,BYTE PTR [edi+0x7d]
  403158:	add    BYTE PTR [eax],al
  40315a:	or     al,BYTE PTR [edx]
  40315c:	jnp    0x403192
  40315e:	add    BYTE PTR [eax],al
  403160:	add    al,0x6f
  403162:	pop    DWORD PTR [eax]
  403164:	add    BYTE PTR [edx],cl
  403166:	or     BYTE PTR es:0x6fe020d,ch
  40316d:	pop    ebx
  40316e:	add    BYTE PTR [eax],al
  403170:	push   es
  403171:	jae    0x4031b3
  403173:	add    BYTE PTR [eax],al
  403175:	or     cl,BYTE PTR [eax+ecx*1]
  403178:	sub    BYTE PTR [ecx+0x0],al
  40317b:	add    BYTE PTR [edx],cl
  40317d:	fsubr  QWORD PTR es:[edx]
  403180:	add    DWORD PTR [eax],ebp
  403182:	add    BYTE PTR [eax],al
  403184:	add    BYTE PTR [eax],al
  403186:	sbb    eax,0x351800
  40318b:	sbb    DWORD PTR [edx+0x10000],edx
  403191:	add    BYTE PTR ds:0x4e1800,bl
  403197:	sbb    al,0x93
  403199:	add    BYTE PTR [eax],al
  40319b:	add    DWORD PTR [edx],eax
  40319d:	add    BYTE PTR ds:0x6c4f00,bl
  4031a3:	cmp    eax,DWORD PTR [eax]
  4031a5:	add    BYTE PTR [eax],al
  4031a7:	add    BYTE PTR [ebx],bl
  4031a9:	xor    BYTE PTR [eax+eax*1],al
  4031ac:	jne    0x4031ae
  4031ae:	add    BYTE PTR [eax],al
  4031b0:	push   ss
  4031b1:	add    BYTE PTR [eax],al
  4031b3:	adc    DWORD PTR [ebx],ebp
  4031b5:	add    bh,BYTE PTR fs:[ebx+0x35]
  4031b9:	add    BYTE PTR [eax],al
  4031bb:	add    al,0x28
  4031bd:	nop
  4031be:	add    BYTE PTR [eax],al
  4031c0:	or     ch,BYTE PTR [eax+ecx*1]
  4031c3:	add    ch,BYTE PTR [eax]
  4031c5:	push   esi
  4031c6:	add    BYTE PTR [eax],al
  4031c8:	push   es
  4031c9:	ficomp WORD PTR [ebp-0x22]
  4031cc:	xor    cl,BYTE PTR [edx]
  4031ce:	jb     0x40319a
  4031d0:	sbb    al,BYTE PTR [eax]
  4031d2:	jo     0x4031eb
  4031d4:	lea    eax,[ecx]
  4031d6:	add    BYTE PTR [eax],al
  4031d8:	add    DWORD PTR [eax+ecx*1],ecx
  4031db:	push   ss
  4031dc:	push   es
  4031dd:	mov    ds:0x2c2808,al
  4031e2:	add    BYTE PTR [edx],cl
  4031e4:	ficomp WORD PTR [ecx]
  4031e6:	or     esi,DWORD PTR [edx-0x36]
  4031e9:	sbb    al,BYTE PTR [eax]
  4031eb:	jo     0x403204
  4031ed:	lea    eax,[ecx]
  4031ef:	add    BYTE PTR [eax],al
  4031f1:	add    DWORD PTR ds:0xa2071609,ecx
  4031f7:	or     DWORD PTR [eax],ebp
  4031f9:	sub    al,0x0
  4031fb:	add    BYTE PTR [edx],cl
  4031fd:	fiadd  WORD PTR [eax]
  4031ff:	jb     0x40327a
  403201:	sbb    eax,DWORD PTR [eax]
  403203:	jo     0x40322d
  403205:	cmp    BYTE PTR [eax],al
  403207:	add    BYTE PTR [edx],cl
  403209:	add    bh,BYTE PTR [ebx+0x34]
  40320c:	add    BYTE PTR [eax],al
  40320e:	add    al,0x7e
  403210:	xchg   ecx,eax
  403211:	add    BYTE PTR [eax],al
  403213:	or     ch,BYTE PTR [edi-0x6e]
  403216:	add    BYTE PTR [eax],al
  403218:	or     ah,BYTE PTR [esi]
  40321a:	add    bh,BYTE PTR [ebx+0x34]
  40321d:	add    BYTE PTR [eax],al
  40321f:	add    al,0x16
  403221:	outs   dx,DWORD PTR ds:[esi]
  403222:	xchg   ebx,eax
  403223:	add    BYTE PTR [eax],al
  403225:	or     ch,BYTE PTR [esi+ecx*4]
  403228:	sub    al,BYTE PTR [eax]
  40322a:	add    BYTE PTR [eax],al
  40322c:	add    DWORD PTR [eax+eax*1],ebx
  40322f:	add    BYTE PTR [eax],al
  403231:	add    BYTE PTR [edx],al
  403233:	add    BYTE PTR [edi],dl
  403235:	sbb    DWORD PTR [eax],eax
  403237:	sbb    DWORD PTR [edx+0x10000],edx
  40323d:	add    BYTE PTR [edx],al
  40323f:	add    BYTE PTR [edi],dl
  403241:	xor    al,BYTE PTR [eax]
  403243:	sbb    DWORD PTR [ebx-0x55ff0000],edx
  403249:	jb     0x403255
  40324b:	sbb    al,0x0
  40324d:	jo     0x403277
  40324f:	cmp    BYTE PTR [eax],al
  403251:	add    BYTE PTR [edx],cl
  403253:	add    ebp,DWORD PTR [edx*1+0x337b02]
  40325a:	add    BYTE PTR [esp+ebp*1],al
  40325d:	or     eax,0x552802
  403262:	add    BYTE PTR [esi],al
  403264:	add    dl,BYTE PTR [edi*2+0x4000033]
  40326b:	add    al,BYTE PTR [ebx]
  40326d:	sub    BYTE PTR [eax+eax*1+0x4e2a0a00],dl
  403274:	add    dl,BYTE PTR [esi]
  403276:	jae    0x40320d
  403278:	add    BYTE PTR [eax],al
  40327a:	or     bh,BYTE PTR [ebp+0x34]
  40327d:	add    BYTE PTR [eax],al
  40327f:	add    al,0x2
  403281:	sub    BYTE PTR [esi+0x2a0a0000],dl
  403287:	add    BYTE PTR [ebx],bl
  403289:	xor    BYTE PTR [eax+eax*1],al
  40328c:	and    BYTE PTR [ecx],al
  40328e:	add    BYTE PTR [eax],al
  403290:	pop    ss
  403291:	add    BYTE PTR [eax],al
  403293:	adc    DWORD PTR [edx],eax
  403295:	sub    BYTE PTR [eax+0x7d0a0000],bl
  40329b:	inc    eax
  40329c:	add    BYTE PTR [eax],al
  40329e:	add    al,0x2
  4032a0:	jle    0x403300
  4032a2:	add    BYTE PTR [eax],al
  4032a4:	add    al,0x16
  4032a6:	jae    0x403241
  4032a8:	add    BYTE PTR [eax],al
  4032aa:	or     bh,BYTE PTR [ebp+0x41]
  4032ad:	add    BYTE PTR [eax],al
  4032af:	add    al,0x2
  4032b1:	push   ss
  4032b2:	jae    0x403249
  4032b4:	add    BYTE PTR [eax],al
  4032b6:	or     bh,BYTE PTR [ebp+0x45]
  4032b9:	add    BYTE PTR [eax],al
  4032bb:	add    al,0x2
  4032bd:	sub    BYTE PTR [ebx],bl
  4032bf:	add    BYTE PTR [eax],al
  4032c1:	or     al,BYTE PTR [edx]
  4032c3:	jae    0x4032d8
  4032c5:	add    BYTE PTR [eax],al
  4032c7:	push   es
  4032c8:	jge    0x403304
  4032ca:	add    BYTE PTR [eax],al
  4032cc:	add    al,0x2
  4032ce:	jae    0x40326a
  4032d0:	add    BYTE PTR [eax],al
  4032d2:	or     bh,BYTE PTR [ebp+0x3f]
  4032d5:	add    BYTE PTR [eax],al
  4032d7:	add    al,0x28
  4032d9:	inc    edi
  4032da:	add    BYTE PTR [eax],al
  4032dc:	or     dh,BYTE PTR [edx+0x42]
  4032df:	sbb    al,0x0
  4032e1:	jo     0x403352
  4032e3:	fwait
  4032e4:	add    BYTE PTR [eax],al
  4032e6:	or     ch,BYTE PTR [eax]
  4032e8:	pop    ebx
  4032e9:	add    BYTE PTR [eax],al
  4032eb:	or     al,BYTE PTR [edx]
  4032ed:	jl     0x403333
  4032ef:	add    BYTE PTR [eax],al
  4032f1:	add    al,0x28
  4032f3:	pushf  
  4032f4:	add    BYTE PTR [eax],al
  4032f6:	or     ch,BYTE PTR ds:0x230214
  4032fc:	add    BYTE PTR [eax],al
  4032fe:	add    BYTE PTR [eax],al
  403300:	add    BYTE PTR [esi],bh
  403302:	inc    eax
  403303:	sub    BYTE PTR [ebp+0x7d0a0000],bl
  403309:	inc    esp
  40330a:	add    BYTE PTR [eax],al
  40330c:	add    al,0x2
  40330e:	jae    0x4032ae
  403310:	add    BYTE PTR [eax],al
  403312:	or     bh,BYTE PTR [ebp+0x43]
  403315:	add    BYTE PTR [eax],al
  403317:	add    al,0x2
  403319:	jnp    0x40335e
  40331b:	add    BYTE PTR [eax],al
  40331d:	add    al,0x2
  40331f:	inc    BYTE PTR [esi]
  403321:	jno    0x403323
  403323:	add    BYTE PTR [esi],al
  403325:	jae    0x4032c6
  403327:	add    BYTE PTR [eax],al
  403329:	or     ch,BYTE PTR [edi-0x60]
  40332c:	add    BYTE PTR [eax],al
  40332e:	or     al,BYTE PTR [edx]
  403330:	jnp    0x403375
  403332:	add    BYTE PTR [eax],al
  403334:	add    al,0x17
  403336:	outs   dx,DWORD PTR ds:[esi]
  403337:	mov    eax,ds:0x20a0000
  40333c:	sub    BYTE PTR [edx+0x0],dh
  40333f:	add    BYTE PTR [esi],al
  403341:	jb     0x4033b1
  403343:	sbb    al,0x0
  403345:	jo     0x40335e
  403347:	lea    eax,[ecx]
  403349:	add    BYTE PTR [eax],al
  40334b:	add    DWORD PTR [eax+ecx*1],ecx
  40334e:	push   ss
  40334f:	add    bh,BYTE PTR [ebx+0x44]
  403352:	add    BYTE PTR [eax],al
  403354:	add    al,0x8c
  403356:	sub    BYTE PTR [eax],al
  403358:	add    BYTE PTR [ecx],al
  40335a:	mov    ds:0x232808,al
  40335f:	add    BYTE PTR [edx],cl
  403361:	sub    BYTE PTR [edi+0x0],al
  403364:	add    BYTE PTR [edx],cl
  403366:	or     al,BYTE PTR [esi]
  403368:	outs   dx,DWORD PTR ds:[esi]
  403369:	mov    ds:0x160a0000,al
  40336e:	xor    DWORD PTR [ebx+0x6],eax
  403371:	jb     0x403341
  403373:	sbb    al,0x0
  403375:	jo     0x4033e6
  403377:	fwait
  403378:	add    BYTE PTR [eax],al
  40337a:	or     dh,BYTE PTR [edx-0x4]
  40337d:	sbb    al,0x0
  40337f:	jo     0x40339c
  403381:	sub    BYTE PTR [ebx+0x2c0a0000],ah
  403387:	sub    eax,DWORD PTR [edx]
  403389:	jb     0x40338f
  40338b:	sbb    eax,0xa4737000
  403390:	add    BYTE PTR [eax],al
  403392:	or     bh,BYTE PTR [ebp+0x42]
  403395:	add    BYTE PTR [eax],al
  403397:	add    al,0xde
  403399:	sbb    DWORD PTR [ebx],ecx
  40339b:	jb     0x4033f3
  40339d:	sbb    eax,0x8d177000
  4033a2:	add    DWORD PTR [eax],eax
  4033a4:	add    BYTE PTR [ecx],al
  4033a6:	or     eax,0xa2071609
  4033ab:	or     DWORD PTR [eax],ebp
  4033ad:	sub    al,0x0
  4033af:	add    BYTE PTR [edx],cl
  4033b1:	fiadd  WORD PTR [eax]
  4033b3:	sub    al,BYTE PTR [ecx]
  4033b5:	adc    BYTE PTR [eax],al
  4033b7:	add    BYTE PTR [eax],al
  4033b9:	add    ah,dh
  4033bb:	add    BYTE PTR [edx],dl
  4033bd:	push   es
  4033be:	add    DWORD PTR [ecx],ebx
  4033c0:	call   0x530:0x1b010000
  4033c7:	add    BYTE PTR [eax+0x18000002],al
  4033cd:	add    BYTE PTR [eax],al
  4033cf:	adc    DWORD PTR [edx+0x23],esi
  4033d2:	push   ds
  4033d3:	add    BYTE PTR [eax+0x16],dh
  4033d6:	lea    eax,[ecx]
  4033d8:	add    BYTE PTR [eax],al
  4033da:	add    DWORD PTR [eax],ebp
  4033dc:	push   ecx
  4033dd:	add    BYTE PTR [eax],al
  4033df:	or     dl,BYTE PTR [ebx]
  4033e1:	add    eax,0x7e041316
  4033e6:	cmp    eax,0x25040000
  4033eb:	adc    eax,DWORD PTR [esi]
  4033ed:	adc    al,BYTE PTR [eax+ebp*1]
  4033f0:	jbe    0x4033f2
  4033f2:	add    BYTE PTR [edx],cl
  4033f4:	jb     0x403445
  4033f6:	push   ds
  4033f7:	add    BYTE PTR [eax+0x28],dh
  4033fa:	cmp    BYTE PTR [eax],al
  4033fc:	add    BYTE PTR [edx],cl
  4033fe:	add    bh,BYTE PTR [ebx+0x41]
  403401:	add    BYTE PTR [eax],al
  403403:	add    al,0x28
  403405:	cmps   BYTE PTR ds:[esi],BYTE PTR es:[edi]
  403406:	add    BYTE PTR [eax],al
  403408:	or     ch,BYTE PTR [edi-0x59]
  40340b:	add    BYTE PTR [eax],al
  40340d:	or     ch,BYTE PTR [edi-0x58]
  403410:	add    BYTE PTR [eax],al
  403412:	or     al,BYTE PTR [edx]
  403414:	jnp    0x403456
  403416:	add    BYTE PTR [eax],al
  403418:	add    al,0x6f
  40341a:	test   eax,0x30a0000
  40341f:	outs   dx,DWORD PTR ds:[esi]
  403420:	stos   BYTE PTR es:[edi],al
  403421:	add    BYTE PTR [eax],al
  403423:	or     ch,BYTE PTR [eax]
  403425:	stos   DWORD PTR es:[edi],eax
  403426:	add    BYTE PTR [eax],al
  403428:	or     ch,BYTE PTR [edx*1+0x20d0]
  40342f:	add    DWORD PTR [eax],ebp
  403431:	mov    BYTE PTR [eax],al
  403433:	add    BYTE PTR [edx],cl
  403435:	outs   dx,DWORD PTR ds:[esi]
  403436:	lods   al,BYTE PTR ds:[esi]
  403437:	add    BYTE PTR [eax],al
  403439:	or     dh,BYTE PTR [ebx-0x53]
  40343c:	add    BYTE PTR [eax],al
  40343e:	or     bh,BYTE PTR [edx+0x72]
  403441:	lea    ebx,[esi]
  403443:	add    BYTE PTR [eax+0x19],dh
  403446:	lea    eax,[ecx]
  403448:	add    BYTE PTR [eax],al
  40344a:	add    DWORD PTR [ebx],edx
  40344c:	pop    es
  40344d:	adc    DWORD PTR [edi],eax
  40344f:	push   ss
  403450:	sub    BYTE PTR [esi+0x6f0a0000],ah
  403456:	cmps   DWORD PTR ds:[esi],DWORD PTR es:[edi]
  403457:	add    BYTE PTR [eax],al
  403459:	or     ch,BYTE PTR [edi-0x58]
  40345c:	add    BYTE PTR [eax],al
  40345e:	or     ch,BYTE PTR [edi-0x52]
  403461:	add    BYTE PTR [eax],al
  403463:	or     ah,BYTE PTR [edx+0x3170711]
  403469:	outs   dx,DWORD PTR ds:[esi]
  40346a:	stos   BYTE PTR es:[edi],al
  40346b:	add    BYTE PTR [eax],al
  40346d:	or     ah,BYTE PTR [edx+0x3180711]
  403473:	outs   dx,DWORD PTR ds:[esi]
  403474:	scas   eax,DWORD PTR es:[edi]
  403475:	add    BYTE PTR [eax],al
  403477:	or     cl,BYTE PTR [edx+eax*4-0x5dff0000]
  40347e:	adc    DWORD PTR [edi],eax
  403480:	sub    BYTE PTR [ebx],ah
  403482:	add    BYTE PTR [eax],al
  403484:	or     al,BYTE PTR [esp+ebp*1]
  403487:	cmp    DWORD PTR [edx],eax
  403489:	sub    BYTE PTR [ebx+0x0],bh
  40348c:	add    BYTE PTR [esi],al
  40348e:	sub    eax,0xb0280f
  403493:	add    BYTE PTR [edx],cl
  403495:	jle    0x403448
  403497:	add    BYTE PTR [eax],al
  403499:	or     ch,BYTE PTR [eax]
  40349b:	mov    dl,0x0
  40349d:	add    BYTE PTR [edx],cl
  40349f:	add    ch,BYTE PTR [eax]
  4034a1:	jnp    0x4034a3
  4034a3:	add    BYTE PTR [esi],al
  4034a5:	outs   dx,DWORD PTR ds:[esi]
  4034a6:	scas   eax,DWORD PTR es:[edi]
  4034a7:	add    BYTE PTR [eax],al
  4034a9:	or     al,BYTE PTR [ebx]
  4034ab:	outs   dx,DWORD PTR ds:[esi]
  4034ac:	scas   eax,DWORD PTR es:[edi]
  4034ad:	add    BYTE PTR [eax],al
  4034af:	or     ch,BYTE PTR [esi]
  4034b1:	movaps xmm6,XMMWORD PTR [eax+0x7e0a0000]
  4034b8:	mov    cl,0x0
  4034ba:	add    BYTE PTR [edx],cl
  4034bc:	sub    BYTE PTR [edx+0x20a0000],dh
  4034c2:	jnp    0x4034fe
  4034c4:	add    BYTE PTR [eax],al
  4034c6:	add    al,0x6f
  4034c8:	sbb    al,0x0
  4034ca:	add    BYTE PTR [esi],al
  4034cc:	cmp    DWORD PTR [esi],ecx
  4034ce:	add    DWORD PTR [eax],eax
  4034d0:	add    BYTE PTR [ebx],al
  4034d2:	outs   dx,DWORD PTR ds:[esi]
  4034d3:	scas   eax,DWORD PTR es:[edi]
  4034d4:	add    BYTE PTR [eax],al
  4034d6:	or     al,BYTE PTR [edx]
  4034d8:	sub    BYTE PTR [ebx+0x0],bh
  4034db:	add    BYTE PTR [esi],al
  4034dd:	outs   dx,DWORD PTR ds:[esi]
  4034de:	scas   eax,DWORD PTR es:[edi]
  4034df:	add    BYTE PTR [eax],al
  4034e1:	or     dh,BYTE PTR [ebx]
  4034e3:	cmp    BYTE PTR [edx+0x3],dh
  4034e6:	pop    ds
  4034e7:	add    BYTE PTR [eax+0x18],dh
  4034ea:	lea    eax,[ecx]
  4034ec:	add    BYTE PTR [eax],al
  4034ee:	add    DWORD PTR [ebx],edx
  4034f0:	or     BYTE PTR [ecx],dl
  4034f2:	or     BYTE PTR [esi],dl
  4034f4:	add    ebp,DWORD PTR [edi-0x56]
  4034f7:	add    BYTE PTR [eax],al
  4034f9:	or     ah,BYTE PTR [edx+0x3170811]
  4034ff:	outs   dx,DWORD PTR ds:[esi]
  403500:	scas   eax,DWORD PTR es:[edi]
  403501:	add    BYTE PTR [eax],al
  403503:	or     cl,BYTE PTR [edx+eax*4-0x5dff0000]
  40350a:	adc    DWORD PTR [eax],ecx
  40350c:	sub    BYTE PTR [eax],ch
  40350e:	add    BYTE PTR [eax],al
  403510:	or     al,BYTE PTR [edx]
  403512:	sub    BYTE PTR [eax+eax*1+0x0],dh
  403516:	push   es
  403517:	cmp    bl,al
  403519:	add    BYTE PTR [eax],al
  40351b:	add    BYTE PTR [ebx],al
  40351d:	outs   dx,DWORD PTR ds:[esi]
  40351e:	stos   BYTE PTR es:[edi],al
  40351f:	add    BYTE PTR [eax],al
  403521:	or     al,BYTE PTR [edx]
  403523:	sub    BYTE PTR [ebx+0x0],bh
  403526:	add    BYTE PTR [esi],al
  403528:	outs   dx,DWORD PTR ds:[esi]
  403529:	stos   BYTE PTR es:[edi],al
  40352a:	add    BYTE PTR [eax],al
  40352c:	or     ch,BYTE PTR [eax]
  40352e:	mov    bl,0x0
  403530:	add    BYTE PTR [edx],cl
  403532:	sub    al,0x43
  403534:	jb     0x4034c0
  403536:	pop    ds
  403537:	add    BYTE PTR [eax+0x28],dh
  40353a:	sub    eax,DWORD PTR [eax]
  40353c:	add    BYTE PTR [edx],cl
  40353e:	add    dl,BYTE PTR [esi]
  403540:	jge    0x403588
  403542:	add    BYTE PTR [eax],al
  403544:	add    al,0x2
  403546:	sub    BYTE PTR [eax+eax*1+0x0],dh
  40354a:	push   es
  40354b:	add    bh,BYTE PTR [ebx+0x3a]
  40354e:	add    BYTE PTR [eax],al
  403550:	add    al,0x6f
  403552:	pop    ss
  403553:	add    BYTE PTR [eax],al
  403555:	push   es
  403556:	fld    QWORD PTR [eax+eax*1+0x720a0000]
  40355d:	cmp    esp,DWORD PTR [eax]
  40355f:	add    BYTE PTR [eax+0x17],dh
  403562:	lea    eax,[ecx]
  403564:	add    BYTE PTR [eax],al
  403566:	add    DWORD PTR [ebx],edx
  403568:	or     DWORD PTR [ecx],edx
  40356a:	or     DWORD PTR [esi],edx
  40356c:	push   es
  40356d:	mov    ds:0x2c280911,al
  403572:	add    BYTE PTR [eax],al
  403574:	or     bl,dh
  403576:	push   0x20ad72
  40357b:	jo     0x403595
  40357d:	lea    eax,[ecx]
  40357f:	add    BYTE PTR [eax],al
  403581:	add    DWORD PTR [ebx],edx
  403583:	or     dl,BYTE PTR [ecx]
  403585:	or     dl,BYTE PTR [esi]
  403587:	add    ebp,DWORD PTR [edi-0x56]
  40358a:	add    BYTE PTR [eax],al
  40358c:	or     ah,BYTE PTR [edx+0x2170a11]
  403592:	sub    BYTE PTR [ebx+0x0],bh
  403595:	add    BYTE PTR [esi],al
  403597:	outs   dx,DWORD PTR ds:[esi]
  403598:	stos   BYTE PTR es:[edi],al
  403599:	add    BYTE PTR [eax],al
  40359b:	or     ah,BYTE PTR [edx+0x24280a11]
  4035a1:	add    BYTE PTR [eax],al
  4035a3:	or     ch,BYTE PTR [eax]
  4035a5:	pop    ebx
  4035a6:	add    BYTE PTR [eax],al
  4035a8:	or     ch,BYTE PTR [eax]
  4035aa:	mov    ah,0x0
  4035ac:	add    BYTE PTR [edx],cl
  4035ae:	pop    ss
  4035af:	lea    eax,[ecx]
  4035b1:	add    BYTE PTR [eax],al
  4035b3:	add    DWORD PTR [ebx],edx
  4035b5:	or     edx,DWORD PTR [ecx]
  4035b7:	or     edx,DWORD PTR [esi]
  4035b9:	add    ch,BYTE PTR [eax]
  4035bb:	jnp    0x4035bd
  4035bd:	add    BYTE PTR [esi],al
  4035bf:	outs   dx,DWORD PTR ds:[esi]
  4035c0:	stos   BYTE PTR es:[edi],al
  4035c1:	add    BYTE PTR [eax],al
  4035c3:	or     ah,BYTE PTR [edx+0x5d280b11]
  4035c9:	add    BYTE PTR [eax],al
  4035cb:	or     dh,BYTE PTR [ebx-0x4b]
  4035ce:	add    BYTE PTR [eax],al
  4035d0:	or     cl,BYTE PTR [ebx]
  4035d2:	pop    es
  4035d3:	jle    0x40358b
  4035d5:	add    BYTE PTR [eax],al
  4035d7:	or     ch,BYTE PTR [edi-0x49]
  4035da:	add    BYTE PTR [eax],al
  4035dc:	or     al,BYTE PTR [edi]
  4035de:	jp     0x4035e2
  4035e0:	add    ebp,DWORD PTR [eax]
  4035e2:	jl     0x4035e4
  4035e4:	add    BYTE PTR [esi],al
  4035e6:	add    ch,BYTE PTR [eax]
  4035e8:	cmps   BYTE PTR ds:[esi],BYTE PTR es:[edi]
  4035e9:	add    BYTE PTR [eax],al
  4035eb:	or     ch,BYTE PTR [edi+0x1]
  4035ee:	add    BYTE PTR [eax],al
  4035f0:	sub    ebp,DWORD PTR [eax]
  4035f2:	jae    0x4035f4
  4035f4:	add    BYTE PTR [esi],al
  4035f6:	jb     0x403644
  4035f8:	and    DWORD PTR [eax],eax
  4035fa:	jo     0x403613
  4035fc:	lea    eax,[ecx]
  4035fe:	add    BYTE PTR [eax],al
  403600:	add    DWORD PTR [ebx],edx
  403602:	or     al,0x11
  403604:	or     al,0x16
  403606:	add    ch,BYTE PTR [eax]
  403608:	jnp    0x40360a
  40360a:	add    BYTE PTR [esi],al
  40360c:	outs   dx,DWORD PTR ds:[esi]
  40360d:	stos   BYTE PTR es:[edi],al
  40360e:	add    BYTE PTR [eax],al
  403610:	or     ah,BYTE PTR [edx+0x28280c11]
  403616:	add    BYTE PTR [eax],al
  403618:	or     bl,dh
  40361a:	sbb    BYTE PTR [eax+ecx*1],cl
  40361d:	or     BYTE PTR [edi-0x47],ch
  403620:	add    BYTE PTR [eax],al
  403622:	or     ch,BYTE PTR [eax]
  403624:	inc    ebp
  403625:	add    BYTE PTR [eax],al
  403627:	or     bl,dh
  403629:	or     DWORD PTR ds:0xba2809,ecx
  40362f:	add    BYTE PTR [edx],cl
  403631:	fiadd  WORD PTR [eax]
  403633:	fimul  WORD PTR [ecx+edx*1]
  403636:	add    al,0x2c
  403638:	pop    es
  403639:	adc    DWORD PTR [esi],eax
  40363b:	sub    BYTE PTR [eax+0x0],bh
  40363e:	add    BYTE PTR [edx],cl
  403640:	(bad)  
  403642:	or     al,0x11
  403644:	add    eax,0x511072c
  403649:	outs   dx,DWORD PTR ds:[esi]
  40364a:	add    DWORD PTR [eax],eax
  40364c:	add    BYTE PTR [edx],cl
  40364e:	fsubr  QWORD PTR [edx]
  403650:	inc    ecx
  403651:	jl     0x403653
  403653:	add    BYTE PTR [eax],al
  403655:	add    BYTE PTR [eax],al
  403657:	add    BYTE PTR [ebx+0x1],bh
  40365a:	add    BYTE PTR [eax],al
  40365c:	adc    BYTE PTR [eax],al
  40365e:	add    BYTE PTR [eax],al
  403660:	mov    eax,DWORD PTR [ecx]
  403662:	add    BYTE PTR [eax],al
  403664:	sbb    al,0x0
  403666:	add    BYTE PTR [eax],al
  403668:	arpl   WORD PTR [eax],ax
  40366a:	add    BYTE PTR [ecx],al
  40366c:	add    BYTE PTR [eax],al
  40366e:	add    BYTE PTR [eax],al
  403670:	and    al,0x0
  403672:	add    BYTE PTR [eax],al
  403674:	daa    
  403675:	add    al,BYTE PTR [eax]
  403677:	add    BYTE PTR [ebx+0x2],cl
  40367a:	add    BYTE PTR [eax],al
  40367c:	sldt   WORD PTR [eax]
  40367f:	add    BYTE PTR [ecx+0x10000],ah
  403685:	add    BYTE PTR [eax],al
  403687:	add    BYTE PTR [eax+eax*1],ah
  40368a:	add    BYTE PTR [eax],al
  40368c:	daa    
  40368d:	add    al,BYTE PTR [eax]
  40368f:	add    BYTE PTR [edx+0x2],bl
  403692:	add    BYTE PTR [eax],al
  403694:	or     DWORD PTR [eax],eax
  403696:	add    BYTE PTR [eax],al
  403698:	arpl   WORD PTR [eax],ax
  40369a:	add    BYTE PTR [ecx],al
  40369c:	add    al,BYTE PTR [eax]
  40369e:	add    BYTE PTR [eax],al
  4036a0:	adc    eax,0x50000000
  4036a5:	add    al,BYTE PTR [eax]
  4036a7:	add    BYTE PTR [ebp+0x2],ah
  4036aa:	add    BYTE PTR [eax],al
  4036ac:	or     al,0x0
  4036ae:	add    BYTE PTR [eax],al
  4036b0:	add    BYTE PTR [eax],al
  4036b2:	add    BYTE PTR [eax],al
  4036b4:	add    al,BYTE PTR [eax]
  4036b6:	add    BYTE PTR [eax],al
  4036b8:	adc    al,BYTE PTR [eax]
  4036ba:	add    BYTE PTR [eax],al
  4036bc:	popa   
  4036bd:	add    al,BYTE PTR [eax]
  4036bf:	add    BYTE PTR [ebx+0x2],dh
  4036c2:	add    BYTE PTR [eax],al
  4036c4:	or     al,0x0
  4036c6:	add    BYTE PTR [eax],al
  4036c8:	add    BYTE PTR [eax],al
  4036ca:	add    BYTE PTR [eax],al
  4036cc:	sbb    esi,DWORD PTR [eax]
  4036ce:	add    al,0x0
  4036d0:	les    eax,FWORD PTR [eax]
  4036d2:	add    BYTE PTR [eax],al
  4036d4:	sbb    DWORD PTR [eax],eax
  4036d6:	add    BYTE PTR [ecx],dl
  4036d8:	jb     0x40365a
  4036da:	and    DWORD PTR [eax],eax
  4036dc:	jo     0x4036f4
  4036de:	lea    eax,[ecx]
  4036e0:	add    BYTE PTR [eax],al
  4036e2:	add    DWORD PTR [eax],ebp
  4036e4:	push   ecx
  4036e5:	add    BYTE PTR [eax],al
  4036e7:	or     cl,BYTE PTR [esi+edx*1]
  4036ea:	or     edi,DWORD PTR [esi+0x3d]
  4036ed:	add    BYTE PTR [eax],al
  4036ef:	add    al,0x25
  4036f1:	or     eax,0x76280112
  4036f6:	add    BYTE PTR [eax],al
  4036f8:	or     dh,BYTE PTR [edx-0x5c]
  4036fb:	and    DWORD PTR [eax],eax
  4036fd:	jo     0x403727
  4036ff:	cmp    BYTE PTR [eax],al
  403701:	add    BYTE PTR [edx],cl
  403703:	sub    BYTE PTR [esi+0x2c0a0000],ah
  403709:	dec    esp
  40370a:	add    bh,BYTE PTR [ebx+0x41]
  40370d:	add    BYTE PTR [eax],al
  40370f:	add    al,0x28
  403711:	cmps   BYTE PTR ds:[esi],BYTE PTR es:[edi]
  403712:	add    BYTE PTR [eax],al
  403714:	or     ch,BYTE PTR [edi-0x59]
  403717:	add    BYTE PTR [eax],al
  403719:	or     ch,BYTE PTR [edi-0x58]
  40371c:	add    BYTE PTR [eax],al
  40371e:	or     al,BYTE PTR [edx]
  403720:	jnp    0x403762
  403722:	add    BYTE PTR [eax],al
  403724:	add    al,0x6f
  403726:	test   eax,0x720a0000
  40372b:	fsub   QWORD PTR [ecx]
  40372d:	add    BYTE PTR [eax+0x17],dh
  403730:	lea    eax,[ecx]
  403732:	add    BYTE PTR [eax],al
  403734:	add    DWORD PTR [ebx],edx
  403736:	add    al,0x11
  403738:	add    al,0x16
  40373a:	sub    BYTE PTR [esi+0x6f0a0000],ah
  403740:	cmps   DWORD PTR ds:[esi],DWORD PTR es:[edi]
  403741:	add    BYTE PTR [eax],al
  403743:	or     ch,BYTE PTR [edi-0x58]
  403746:	add    BYTE PTR [eax],al
  403748:	or     ch,BYTE PTR [edi-0x52]
  40374b:	add    BYTE PTR [eax],al
  40374d:	or     ah,BYTE PTR [edx+0x28280411]
  403753:	add    BYTE PTR [eax],al
  403755:	or     al,BYTE PTR [edx]
  403757:	push   ss
  403758:	jge    0x4037a0
  40375a:	add    BYTE PTR [eax],al
  40375c:	add    al,0x2
  40375e:	jnp    0x40379a
  403760:	add    BYTE PTR [eax],al
  403762:	add    al,0x6f
  403764:	pop    ss
  403765:	add    BYTE PTR [eax],al
  403767:	push   es
  403768:	add    ch,BYTE PTR [eax]
  40376a:	jb     0x40376c
  40376c:	add    BYTE PTR [esi],al
  40376e:	jb     0x40378e
  403770:	and    al,BYTE PTR [eax]
  403772:	jo     0x40379c
  403774:	cmp    BYTE PTR [eax],al
  403776:	add    BYTE PTR [edx],cl
  403778:	fimul  WORD PTR [ecx]
  40377a:	or     al,BYTE PTR [esi]
  40377c:	sub    BYTE PTR [edx-0x21f60000],bh
  403782:	add    dh,bl
  403784:	or     al,BYTE PTR [edi]
  403786:	sub    al,0x6
  403788:	or     DWORD PTR [eax],ebp
  40378a:	js     0x40378c
  40378c:	add    BYTE PTR [edx],cl
  40378e:	(bad)  
  403790:	or     cl,BYTE PTR [eax]
  403792:	sub    al,0x6
  403794:	or     BYTE PTR [edi+0x1],ch
  403797:	add    BYTE PTR [eax],al
  403799:	or     bl,ah
  40379b:	sub    al,BYTE PTR [ecx]
  40379d:	sub    BYTE PTR [eax],al
  40379f:	add    BYTE PTR [eax],al
  4037a1:	add    BYTE PTR [ecx],ah
  4037a3:	add    BYTE PTR [ecx+0x630900a2],al
  4037a9:	add    BYTE PTR [eax],al
  4037ab:	add    DWORD PTR [edx],eax
  4037ad:	add    BYTE PTR [ebx],dl
  4037af:	add    BYTE PTR [edx+0xa00ad],bl
  4037b5:	add    BYTE PTR [eax],al
  4037b7:	add    BYTE PTR [edx],al
  4037b9:	add    BYTE PTR [ecx],dl
  4037bb:	add    BYTE PTR [eax+0xa00b9],ch
  4037c1:	add    BYTE PTR [eax],al
  4037c3:	add    BYTE PTR [ebx],bl
  4037c5:	xor    BYTE PTR [ebx],al
  4037c7:	add    BYTE PTR [esi],dh
  4037c9:	add    BYTE PTR [eax],al
  4037cb:	add    BYTE PTR [edx],bl
  4037cd:	add    BYTE PTR [eax],al
  4037cf:	adc    DWORD PTR [edx+0x58],esi
  4037d2:	and    al,BYTE PTR [eax]
  4037d4:	jo     0x4037fe
  4037d6:	cmp    BYTE PTR [eax],al
  4037d8:	add    BYTE PTR [edx],cl
  4037da:	add    bh,BYTE PTR [ebx+0x41]
  4037dd:	add    BYTE PTR [eax],al
  4037df:	add    al,0x28
  4037e1:	cmps   BYTE PTR ds:[esi],BYTE PTR es:[edi]
  4037e2:	add    BYTE PTR [eax],al
  4037e4:	or     ch,BYTE PTR [edi-0x59]
  4037e7:	add    BYTE PTR [eax],al
  4037e9:	or     ch,BYTE PTR [edi-0x58]
  4037ec:	add    BYTE PTR [eax],al
  4037ee:	or     al,BYTE PTR [edx]
  4037f0:	jnp    0x403832
  4037f2:	add    BYTE PTR [eax],al
  4037f4:	add    al,0x6f
  4037f6:	test   eax,0xde0a0000
  4037fb:	or     DWORD PTR [edx],ecx
  4037fd:	push   es
  4037fe:	sub    BYTE PTR [edx-0x21f60000],bh
  403804:	add    BYTE PTR [edx],ch
  403806:	add    BYTE PTR [eax],al
  403808:	add    DWORD PTR [eax],edx
  40380a:	add    BYTE PTR [eax],al
  40380c:	add    BYTE PTR [eax],al
  40380e:	add    BYTE PTR [eax],al
  403810:	sub    al,0x2c
  403812:	add    BYTE PTR [ecx],cl
  403814:	arpl   WORD PTR [eax],ax
  403816:	add    BYTE PTR [ecx],al
  403818:	sbb    esi,DWORD PTR [eax]
  40381a:	add    al,0x0
  40381c:	fild   WORD PTR [eax]
  40381e:	add    BYTE PTR [eax],al
  403820:	sbb    eax,DWORD PTR [eax]
  403822:	add    BYTE PTR [ecx],dl
  403824:	jb     0x4037bc
  403826:	and    al,BYTE PTR [eax]
  403828:	jo     0x403840
  40382a:	lea    eax,[ecx]
  40382c:	add    BYTE PTR [eax],al
  40382e:	add    DWORD PTR [eax],ebp
  403830:	push   ecx
  403831:	add    BYTE PTR [eax],al
  403833:	or     cl,BYTE PTR ds:0x3d7e0c16
  403839:	add    BYTE PTR [eax],al
  40383b:	add    al,0x25
  40383d:	adc    eax,DWORD PTR [edx+edx*1]
  403840:	add    ch,BYTE PTR [eax]
  403842:	jbe    0x403844
  403844:	add    BYTE PTR [edx],cl
  403846:	add    bh,BYTE PTR [ebx+0x41]
  403849:	add    BYTE PTR [eax],al
  40384b:	add    al,0x28
  40384d:	cmps   BYTE PTR ds:[esi],BYTE PTR es:[edi]
  40384e:	add    BYTE PTR [eax],al
  403850:	or     ch,BYTE PTR [edi-0x59]
  403853:	add    BYTE PTR [eax],al
  403855:	or     ch,BYTE PTR [edi-0x58]
  403858:	add    BYTE PTR [eax],al
  40385a:	or     al,BYTE PTR [edx]
  40385c:	jnp    0x40389e
  40385e:	add    BYTE PTR [eax],al
  403860:	add    al,0x6f
  403862:	test   eax,0x720a0000
  403867:	enter  0x22,0x70
  40386b:	sbb    BYTE PTR [ebp+0x1000001],cl
  403871:	adc    eax,DWORD PTR ds:0x28160511
  403877:	cmps   BYTE PTR ds:[esi],BYTE PTR es:[edi]
  403878:	add    BYTE PTR [eax],al
  40387a:	or     ch,BYTE PTR [edi-0x59]
  40387d:	add    BYTE PTR [eax],al
  40387f:	or     ch,BYTE PTR [edi-0x58]
  403882:	add    BYTE PTR [eax],al
  403884:	or     ch,BYTE PTR [edi-0x52]
  403887:	add    BYTE PTR [eax],al
  403889:	or     ah,BYTE PTR [edx+0x2170511]
  40388f:	sub    BYTE PTR [ebx+0x0],bh
  403892:	add    BYTE PTR [esi],al
  403894:	outs   dx,DWORD PTR ds:[esi]
  403895:	stos   BYTE PTR es:[edi],al
  403896:	add    BYTE PTR [eax],al
  403898:	or     ah,BYTE PTR [edx+0x23280511]
  40389e:	add    BYTE PTR [eax],al
  4038a0:	or     al,BYTE PTR [edx]
  4038a2:	jnp    0x4038e7
  4038a4:	add    BYTE PTR [eax],al
  4038a6:	add    al,0x6f
  4038a8:	mov    ebx,0x20a0000
  4038ad:	jnp    0x4038e9
  4038af:	add    BYTE PTR [eax],al
  4038b1:	add    al,0x2
  4038b3:	jnp    0x4038f4
  4038b5:	add    BYTE PTR [eax],al
  4038b7:	add    al,0x3
  4038b9:	outs   dx,DWORD PTR ds:[esi]
  4038ba:	add    al,BYTE PTR [eax]
  4038bc:	add    BYTE PTR [ebx],ch
  4038be:	add    bh,dh
  4038c0:	push   es
  4038c1:	arpl   WORD PTR [eax],ax
  4038c3:	add    BYTE PTR [esi],al
  4038c5:	jae    0x403884
  4038c7:	add    BYTE PTR [eax],al
  4038c9:	or     ch,BYTE PTR [edi+0x14]
  4038cc:	add    BYTE PTR [eax],al
  4038ce:	push   es
  4038cf:	ficomp WORD PTR [eax]
  4038d1:	or     al,BYTE PTR [esi]
  4038d3:	push   es
  4038d4:	outs   dx,DWORD PTR ds:[esi]
  4038d5:	mov    ecx,0x280a0000
  4038da:	inc    ebp
  4038db:	add    BYTE PTR [eax],al
  4038dd:	or     bl,dh
  4038df:	or     DWORD PTR [ebx],ecx
  4038e1:	pop    es
  4038e2:	sub    BYTE PTR [edx-0x21f60000],bh
  4038e8:	add    dh,bl
  4038ea:	or     ecx,DWORD PTR [eax]
  4038ec:	sub    al,0x7
  4038ee:	adc    DWORD PTR [eax+ebp*1],eax
  4038f1:	js     0x4038f3
  4038f3:	add    BYTE PTR [edx],cl
  4038f5:	(bad)  
  4038f7:	or     cl,BYTE PTR [ecx]
  4038f9:	sub    al,0x6
  4038fb:	or     DWORD PTR [edi+0x1],ebp
  4038fe:	add    BYTE PTR [eax],al
  403900:	or     bl,ah
  403902:	sub    al,BYTE PTR [eax]
  403904:	add    DWORD PTR [eax+eax*1],esi
  403907:	add    BYTE PTR [eax],al
  403909:	add    BYTE PTR [edx],ah
  40390b:	add    BYTE PTR [ebx-0x5df0ff53],cl
  403911:	add    BYTE PTR [eax],al
  403913:	add    DWORD PTR [eax],eax
  403915:	add    BYTE PTR [edx],ah
  403917:	add    BYTE PTR [ebx+0x630900bc],cl
  40391d:	add    BYTE PTR [eax],al
  40391f:	add    DWORD PTR [edx],eax
  403921:	add    BYTE PTR [ebx],dl
  403923:	add    BYTE PTR [edi+eax*8+0xb00],dh
  40392a:	add    BYTE PTR [eax],al
  40392c:	add    al,BYTE PTR [eax]
  40392e:	adc    DWORD PTR [eax],eax
  403930:	ret    
  403931:	aam    0x0
  403933:	or     al,BYTE PTR [eax]
  403935:	add    BYTE PTR [eax],al
  403937:	add    BYTE PTR [ebx],bl
  403939:	xor    BYTE PTR [eax+eax*1],al
  40393c:	call   0x1c403941
  403941:	add    BYTE PTR [eax],al
  403943:	adc    DWORD PTR [edx+0x26],esi
  403946:	and    eax,DWORD PTR [eax]
  403948:	jo     0x403960
  40394a:	lea    eax,[ecx]
  40394c:	add    BYTE PTR [eax],al
  40394e:	add    DWORD PTR [eax],ebp
  403950:	push   ecx
  403951:	add    BYTE PTR [eax],al
  403953:	or     cl,BYTE PTR ds:0x234a72
  403959:	jo     0x403983
  40395b:	cmp    BYTE PTR [eax],al
  40395d:	add    BYTE PTR [edx],cl
  40395f:	jb     0x4038fb
  403961:	and    eax,DWORD PTR [eax]
  403963:	jo     0x40397c
  403965:	lea    eax,[ecx]
  403967:	add    BYTE PTR [eax],al
  403969:	add    DWORD PTR [ebx],edx
  40396b:	add    al,0x11
  40396d:	add    al,0x16
  40396f:	sub    BYTE PTR [esi+0x6f0a0000],ah
  403975:	cmps   DWORD PTR ds:[esi],DWORD PTR es:[edi]
  403976:	add    BYTE PTR [eax],al
  403978:	or     ch,BYTE PTR [edi-0x58]
  40397b:	add    BYTE PTR [eax],al
  40397d:	or     ch,BYTE PTR [edi-0x52]
  403980:	add    BYTE PTR [eax],al
  403982:	or     ah,BYTE PTR [edx+0x28280411]
  403988:	add    BYTE PTR [eax],al
  40398a:	or     al,BYTE PTR [edx]
  40398c:	jnp    0x4039cf
  40398e:	add    BYTE PTR [eax],al
  403990:	add    al,0x28
  403992:	cmps   BYTE PTR ds:[esi],BYTE PTR es:[edi]
  403993:	add    BYTE PTR [eax],al
  403995:	or     ch,BYTE PTR [edi-0x59]
  403998:	add    BYTE PTR [eax],al
  40399a:	or     ch,BYTE PTR [edi-0x58]
  40399d:	add    BYTE PTR [eax],al
  40399f:	or     al,BYTE PTR [edx]
  4039a1:	jnp    0x4039e3
  4039a3:	add    BYTE PTR [eax],al
  4039a5:	add    al,0x6f
  4039a7:	test   eax,0x720a0000
  4039ac:	fsub   QWORD PTR [ecx]
  4039ae:	add    BYTE PTR [eax+0x17],dh
  4039b1:	lea    eax,[ecx]
  4039b3:	add    BYTE PTR [eax],al
  4039b5:	add    DWORD PTR [ebx],edx
  4039b7:	add    eax,0x28160511
  4039bc:	cmps   BYTE PTR ds:[esi],BYTE PTR es:[edi]
  4039bd:	add    BYTE PTR [eax],al
  4039bf:	or     ch,BYTE PTR [edi-0x59]
  4039c2:	add    BYTE PTR [eax],al
  4039c4:	or     ch,BYTE PTR [edi-0x58]
  4039c7:	add    BYTE PTR [eax],al
  4039c9:	or     ch,BYTE PTR [edi-0x52]
  4039cc:	add    BYTE PTR [eax],al
  4039ce:	or     ah,BYTE PTR [edx+0x28280511]
  4039d4:	add    BYTE PTR [eax],al
  4039d6:	or     al,BYTE PTR [edx]
  4039d8:	jnp    0x403a14
  4039da:	add    BYTE PTR [eax],al
  4039dc:	add    al,0xa
  4039de:	add    bh,BYTE PTR [ebx+0x3f]
  4039e1:	add    BYTE PTR [eax],al
  4039e3:	add    al,0x3
  4039e5:	outs   dx,DWORD PTR ds:[esi]
  4039e6:	add    eax,DWORD PTR [eax]
  4039e8:	add    BYTE PTR [ebx],ch
  4039ea:	or     eax,DWORD PTR [edx]
  4039ec:	jnp    0x403a34
  4039ee:	add    BYTE PTR [eax],al
  4039f0:	add    al,0x2d
  4039f2:	push   cs
  4039f3:	pop    es
  4039f4:	jne    0x403999
  4039f6:	add    BYTE PTR [eax],al
  4039f8:	add    DWORD PTR [esi+eax*1],ebp
  4039fb:	add    ch,BYTE PTR [eax]
  4039fd:	jp     0x4039ff
  4039ff:	add    BYTE PTR [esi],al
  403a01:	push   es
  403a02:	pop    es
  403a03:	add    bh,BYTE PTR [ebx+0x3f]
  403a06:	add    BYTE PTR [eax],al
  403a08:	add    al,0x4
  403a0a:	outs   dx,DWORD PTR ds:[esi]
  403a0b:	add    al,0x0
  403a0d:	add    BYTE PTR [ebx],ch
  403a0f:	outs   dx,DWORD PTR ds:[esi]
  403a10:	mov    esi,0xde0a0000
  403a15:	or     DWORD PTR [eax+ecx*1],ecx
  403a18:	sub    BYTE PTR [edx-0x21f60000],bh
  403a1e:	add    dh,bl
  403a20:	or     cl,BYTE PTR [ecx]
  403a22:	sub    al,0x6
  403a24:	or     DWORD PTR [edi+0x1],ebp
  403a27:	add    BYTE PTR [eax],al
  403a29:	or     bl,ah
  403a2b:	sub    al,BYTE PTR [ecx]
  403a2d:	sbb    al,0x0
  403a2f:	add    BYTE PTR [eax],al
  403a31:	add    BYTE PTR [ecx],dl
  403a33:	add    cl,al
  403a35:	rol    BYTE PTR [eax],cl
  403a37:	or     DWORD PTR [ebx+0x0],esp
  403a3a:	add    BYTE PTR [ecx],al
  403a3c:	add    al,BYTE PTR [eax]
  403a3e:	adc    DWORD PTR [eax],eax
  403a40:	int3   
  403a41:	fld    QWORD PTR [eax]
  403a43:	or     al,BYTE PTR [eax]
  403a45:	add    BYTE PTR [eax],al
  403a47:	add    BYTE PTR [ebx],bl
  403a49:	xor    BYTE PTR ds:0xf400,al
  403a4f:	add    BYTE PTR [eax+eax*1],bl
  403a52:	add    BYTE PTR [ecx],dl
  403a54:	jb     0x403a1a
  403a56:	and    eax,DWORD PTR [eax]
  403a58:	jo     0x403a70
  403a5a:	lea    eax,[ecx]
  403a5c:	add    BYTE PTR [eax],al
  403a5e:	add    DWORD PTR [eax],ebp
  403a60:	push   ecx
  403a61:	add    BYTE PTR [eax],al
  403a63:	or     cl,BYTE PTR ds:0x234a72
  403a69:	jo     0x403a93
  403a6b:	cmp    BYTE PTR [eax],al
  403a6d:	add    BYTE PTR [edx],cl
  403a6f:	jb     0x403a0b
  403a71:	and    eax,DWORD PTR [eax]
  403a73:	jo     0x403a8c
  403a75:	lea    eax,[ecx]
  403a77:	add    BYTE PTR [eax],al
  403a79:	add    DWORD PTR [ebx],edx
  403a7b:	add    al,0x11
  403a7d:	add    al,0x16
  403a7f:	sub    BYTE PTR [esi+0x6f0a0000],ah
  403a85:	cmps   DWORD PTR ds:[esi],DWORD PTR es:[edi]
  403a86:	add    BYTE PTR [eax],al
  403a88:	or     ch,BYTE PTR [edi-0x58]
  403a8b:	add    BYTE PTR [eax],al
  403a8d:	or     ch,BYTE PTR [edi-0x52]
  403a90:	add    BYTE PTR [eax],al
  403a92:	or     ah,BYTE PTR [edx+0x28280411]
  403a98:	add    BYTE PTR [eax],al
  403a9a:	or     al,BYTE PTR [edx]
  403a9c:	jnp    0x403adf
  403a9e:	add    BYTE PTR [eax],al
  403aa0:	add    al,0x28
  403aa2:	cmps   BYTE PTR ds:[esi],BYTE PTR es:[edi]
  403aa3:	add    BYTE PTR [eax],al
  403aa5:	or     ch,BYTE PTR [edi-0x59]
  403aa8:	add    BYTE PTR [eax],al
  403aaa:	or     ch,BYTE PTR [edi-0x58]
  403aad:	add    BYTE PTR [eax],al
  403aaf:	or     al,BYTE PTR [edx]
  403ab1:	jnp    0x403af3
  403ab3:	add    BYTE PTR [eax],al
  403ab5:	add    al,0x6f
  403ab7:	test   eax,0x720a0000
  403abc:	fsub   QWORD PTR [ecx]
  403abe:	add    BYTE PTR [eax+0x17],dh
  403ac1:	lea    eax,[ecx]
  403ac3:	add    BYTE PTR [eax],al
  403ac5:	add    DWORD PTR [ebx],edx
  403ac7:	add    eax,0x28160511
  403acc:	cmps   BYTE PTR ds:[esi],BYTE PTR es:[edi]
  403acd:	add    BYTE PTR [eax],al
  403acf:	or     ch,BYTE PTR [edi-0x59]
  403ad2:	add    BYTE PTR [eax],al
  403ad4:	or     ch,BYTE PTR [edi-0x58]
  403ad7:	add    BYTE PTR [eax],al
  403ad9:	or     ch,BYTE PTR [edi-0x52]
  403adc:	add    BYTE PTR [eax],al
  403ade:	or     ah,BYTE PTR [edx+0x28280511]
  403ae4:	add    BYTE PTR [eax],al
  403ae6:	or     al,BYTE PTR [edx]
  403ae8:	jnp    0x403b24
  403aea:	add    BYTE PTR [eax],al
  403aec:	add    al,0xa
  403aee:	add    bh,BYTE PTR [ebx+0x3f]
  403af1:	add    BYTE PTR [eax],al
  403af3:	add    al,0x3
  403af5:	outs   dx,DWORD PTR ds:[esi]
  403af6:	add    eax,DWORD PTR [eax]
  403af8:	add    BYTE PTR [ebx],ch
  403afa:	or     eax,DWORD PTR [edx]
  403afc:	jnp    0x403b44
  403afe:	add    BYTE PTR [eax],al
  403b00:	add    al,0x2d
  403b02:	push   cs
  403b03:	pop    es
  403b04:	jne    0x403aa9
  403b06:	add    BYTE PTR [eax],al
  403b08:	add    DWORD PTR [esi+eax*1],ebp
  403b0b:	add    ch,BYTE PTR [eax]
  403b0d:	jp     0x403b0f
  403b0f:	add    BYTE PTR [esi],al
  403b11:	push   es
  403b12:	pop    es
  403b13:	add    bh,BYTE PTR [ebx+0x3f]
  403b16:	add    BYTE PTR [eax],al
  403b18:	add    al,0x4
  403b1a:	outs   dx,DWORD PTR ds:[esi]
  403b1b:	add    al,0x0
  403b1d:	add    BYTE PTR [ebx],ch
  403b1f:	add    bh,BYTE PTR [ebx+0x3f]
  403b22:	add    BYTE PTR [eax],al
  403b24:	add    al,0x5
  403b26:	outs   dx,DWORD PTR ds:[esi]
  403b27:	add    eax,0x6f2b0000
  403b2c:	mov    edi,0xde0a0000
  403b31:	or     DWORD PTR [eax+ecx*1],ecx
  403b34:	sub    BYTE PTR [edx-0x21f60000],bh
  403b3a:	add    dh,bl
  403b3c:	or     cl,BYTE PTR [ecx]
  403b3e:	sub    al,0x6
  403b40:	or     DWORD PTR [edi+0x1],ebp
  403b43:	add    BYTE PTR [eax],al
  403b45:	or     bl,ah
  403b47:	sub    al,BYTE PTR [ecx]
  403b49:	sbb    al,0x0
  403b4b:	add    BYTE PTR [eax],al
  403b4d:	add    BYTE PTR [ecx],dl
  403b4f:	add    ch,cl
  403b51:	fiadd  WORD PTR [eax]
  403b53:	or     DWORD PTR [ebx+0x0],esp
  403b56:	add    BYTE PTR [ecx],al
  403b58:	add    al,BYTE PTR [eax]
  403b5a:	adc    DWORD PTR [eax],eax
  403b5c:	fsubr  st,st(1)
  403b5e:	add    BYTE PTR [edx],cl
  403b60:	add    BYTE PTR [eax],al
  403b62:	add    BYTE PTR [eax],al
  403b64:	sbb    esi,DWORD PTR [eax]
  403b66:	add    al,0x0
  403b68:	add    al,0x1
  403b6a:	add    BYTE PTR [eax],al
  403b6c:	sbb    eax,0x72110000
  403b71:	mul    BYTE PTR [ebx]
  403b73:	add    BYTE PTR [eax+0x3],dh
  403b76:	outs   dx,DWORD PTR ds:[esi]
  403b77:	rol    BYTE PTR [eax],0x0
  403b7a:	or     ch,BYTE PTR [edi-0x54]
  403b7d:	add    BYTE PTR [eax],al
  403b7f:	or     ch,BYTE PTR [eax]
  403b81:	rol    DWORD PTR [eax],0x0
  403b84:	or     ch,BYTE PTR [eax]
  403b86:	cmp    BYTE PTR [eax],al
  403b88:	add    BYTE PTR [edx],cl
  403b8a:	push   ss
  403b8b:	adc    eax,DWORD PTR ds:0x3c7e
  403b91:	add    al,0x25
  403b93:	adc    eax,DWORD PTR [esi]
  403b95:	adc    al,BYTE PTR ds:0x7628
  403b9b:	or     al,BYTE PTR [edx]
  403b9d:	jnp    0x403bda
  403b9f:	add    BYTE PTR [eax],al
  403ba1:	add    al,0x2d
  403ba3:	(bad)  
  403ba5:	cmp    BYTE PTR [eax+eax*1],ah
  403ba8:	jo     0x403bd2
  403baa:	pop    edx
  403bab:	add    BYTE PTR [eax],al
  403bad:	or     bl,ch
  403baf:	rol    BYTE PTR [eax],0x0
  403bb2:	add    BYTE PTR [ebx],al
  403bb4:	jne    0x403b5a
  403bb6:	add    BYTE PTR [eax],al
  403bb8:	add    DWORD PTR [edx],ecx
  403bba:	push   es
  403bbb:	sub    al,0x7
  403bbd:	push   es
  403bbe:	pop    ss
  403bbf:	outs   dx,DWORD PTR ds:[esi]
  403bc0:	ret    0x0
  403bc3:	or     al,BYTE PTR [edx]
  403bc5:	jnp    0x403c06
  403bc7:	add    BYTE PTR [eax],al
  403bc9:	add    al,0x3
  403bcb:	outs   dx,DWORD PTR ds:[esi]
  403bcc:	ret    
  403bcd:	add    BYTE PTR [eax],al
  403bcf:	or     cl,BYTE PTR [ebx]
  403bd1:	add    bh,BYTE PTR [ebx+0x3b]
  403bd4:	add    BYTE PTR [eax],al
  403bd6:	add    al,0x7
  403bd8:	outs   dx,DWORD PTR ds:[esi]
  403bd9:	les    eax,FWORD PTR [eax]
  403bdb:	add    BYTE PTR [edx],cl
  403bdd:	fidivr WORD PTR [esi+eiz*1+0x72]
  403be1:	mov    dh,0x24
  403be3:	add    BYTE PTR [eax+0x17],dh
  403be6:	lea    eax,[ecx]
  403be8:	add    BYTE PTR [eax],al
  403bea:	add    DWORD PTR [ebx],edx
  403bec:	pop    es
  403bed:	adc    DWORD PTR [edi],eax
  403bef:	push   ss
  403bf0:	add    ebp,DWORD PTR [edi-0x40]
  403bf3:	add    BYTE PTR [eax],al
  403bf5:	or     ch,BYTE PTR [edi-0x54]
  403bf8:	add    BYTE PTR [eax],al
  403bfa:	or     ah,BYTE PTR [edx+0x24280711]
  403c00:	add    BYTE PTR [eax],al
  403c02:	or     bl,dh
  403c04:	push   esi
  403c05:	or     al,0x72
  403c07:	and    al,0x25
  403c09:	add    BYTE PTR [eax+0x17],dh
  403c0c:	lea    eax,[ecx]
  403c0e:	add    BYTE PTR [eax],al
  403c10:	add    DWORD PTR [ebx],edx
  403c12:	or     BYTE PTR [ecx],dl
  403c14:	or     BYTE PTR [esi],dl
  403c16:	or     BYTE PTR [edx+0x24280811],ah
  403c1c:	add    BYTE PTR [eax],al
  403c1e:	or     bl,dh
  403c20:	cmp    cl,BYTE PTR ds:0x252472
  403c26:	jo     0x403c3f
  403c28:	lea    eax,[ecx]
  403c2a:	add    BYTE PTR [eax],al
  403c2c:	add    DWORD PTR [ebx],edx
  403c2e:	or     DWORD PTR [ecx],edx
  403c30:	or     DWORD PTR [esi],edx
  403c32:	or     DWORD PTR [edx+0x24280911],esp
  403c38:	add    BYTE PTR [eax],al
  403c3a:	or     bl,dh
  403c3c:	push   ds
  403c3d:	adc    eax,DWORD PTR [edx+esi*2]
  403c40:	nop
  403c41:	and    eax,0x8d177000
  403c46:	add    DWORD PTR [eax],eax
  403c48:	add    BYTE PTR [ecx],al
  403c4a:	adc    ecx,DWORD PTR [edx]
  403c4c:	adc    DWORD PTR [edx],ecx
  403c4e:	push   ss
  403c4f:	adc    DWORD PTR [edx+eiz*4],eax
  403c52:	adc    DWORD PTR [edx],ecx
  403c54:	sub    BYTE PTR [eax+eax*1],ah
  403c57:	add    BYTE PTR [edx],cl
  403c59:	fiadd  WORD PTR [eax]
  403c5b:	fimul  WORD PTR [ecx+edx*1]
  403c5e:	add    eax,0x611072c
  403c63:	sub    BYTE PTR [eax+0x0],bh
  403c66:	add    BYTE PTR [edx],cl
  403c68:	fdiv   QWORD PTR [edx-0x26]
  403c6b:	and    eax,0x38287000
  403c70:	add    BYTE PTR [eax],al
  403c72:	or     ch,BYTE PTR [edx]
  403c74:	add    DWORD PTR [eax+0x0],eax
  403c77:	add    BYTE PTR [eax],al
  403c79:	add    BYTE PTR [ebx+0x0],al
  403c7c:	sub    al,0x6f
  403c7e:	add    BYTE PTR [esi],ah
  403c80:	cmps   BYTE PTR ds:[esi],BYTE PTR es:[edi]
  403c81:	add    BYTE PTR [eax],al
  403c83:	add    DWORD PTR [eax],eax
  403c85:	add    BYTE PTR [ebx+0x0],al
  403c88:	sub    al,0x95
  403c8a:	add    BYTE PTR [edx+edx*4],bl
  403c8d:	add    BYTE PTR [eax],al
  403c8f:	add    DWORD PTR [eax],eax
  403c91:	add    BYTE PTR [ebx+0x0],al
  403c94:	sub    al,0xb1
  403c96:	add    BYTE PTR [ebx+edx*4],bl
  403c99:	add    BYTE PTR [eax],al
  403c9b:	add    DWORD PTR [eax],eax
  403c9d:	add    BYTE PTR [ebx+0x0],al
  403ca0:	sub    al,0xcd
  403ca2:	add    BYTE PTR [esi],bl
  403ca4:	movs   DWORD PTR es:[edi],DWORD PTR ds:[esi]
  403ca5:	add    BYTE PTR [eax],al
  403ca7:	add    DWORD PTR [edx],eax
  403ca9:	add    BYTE PTR ds:0xedd000,bl
  403caf:	or     al,0x0
  403cb1:	add    BYTE PTR [eax],al
  403cb3:	add    BYTE PTR [ebx],bl
  403cb5:	xor    BYTE PTR [eax+eax*1],al
  403cb8:	int    0x0
  403cba:	add    BYTE PTR [eax],al
  403cbc:	push   ds
  403cbd:	add    BYTE PTR [eax],al
  403cbf:	adc    DWORD PTR [edx+0x6],esi
  403cc2:	add    BYTE PTR es:[eax+0x16],dh
  403cc6:	lea    eax,[ecx]
  403cc8:	add    BYTE PTR [eax],al
  403cca:	add    DWORD PTR [eax],ebp
  403ccc:	push   ecx
  403ccd:	add    BYTE PTR [eax],al
  403ccf:	or     cl,BYTE PTR ds:0x3d7e0c16
  403cd5:	add    BYTE PTR [eax],al
  403cd7:	add    al,0x25
  403cd9:	adc    eax,DWORD PTR [edx+edx*1]
  403cdc:	add    ch,BYTE PTR [eax]
  403cde:	jbe    0x403ce0
  403ce0:	add    BYTE PTR [edx],cl
  403ce2:	add    ch,BYTE PTR [eax]
  403ce4:	js     0x403ce6
  403ce6:	add    BYTE PTR [esi],al
  403ce8:	sub    al,0x11
  403cea:	jb     0x403d30
  403cec:	add    BYTE PTR es:[eax+0x28],dh
  403cf0:	cmp    BYTE PTR [eax],al
  403cf2:	add    BYTE PTR [edx],cl
  403cf4:	add    dl,BYTE PTR [esi]
  403cf6:	sub    BYTE PTR [esi+0x0],ch
  403cf9:	add    BYTE PTR [esi],al
  403cfb:	ficomp WORD PTR [edx+ecx*1]
  403cfe:	jb     0x403cd3
  403d00:	add    BYTE PTR es:[eax+0x17],dh
  403d04:	lea    eax,[ecx]
  403d06:	add    BYTE PTR [eax],al
  403d08:	add    DWORD PTR [ebx],edx
  403d0a:	add    eax,0x6160511
  403d0f:	mov    ds:0xc5280511,al
  403d14:	add    BYTE PTR [eax],al
  403d16:	or     bl,dh
  403d18:	add    BYTE PTR [edx+0x76],dh
  403d1b:	daa    
  403d1c:	add    BYTE PTR [eax+0x17],dh
  403d1f:	lea    eax,[ecx]
  403d21:	add    BYTE PTR [eax],al
  403d23:	add    DWORD PTR [ebx],edx
  403d25:	push   es
  403d26:	adc    DWORD PTR [esi],eax
  403d28:	push   ss
  403d29:	add    esp,DWORD PTR [edx+0x23280611]
  403d2f:	add    BYTE PTR [eax],al
  403d31:	or     al,BYTE PTR [edx]
  403d33:	jnp    0x403d78
  403d35:	add    BYTE PTR [eax],al
  403d37:	add    al,0x6f
  403d39:	mov    ebx,0x20a0000
  403d3e:	add    eax,DWORD PTR [edx]
  403d40:	jnp    0x403d7d
  403d42:	add    BYTE PTR [eax],al
  403d44:	add    al,0x73
  403d46:	jle    0x403d48
  403d48:	add    BYTE PTR [esi],al
  403d4a:	sub    BYTE PTR [ecx+0x0],bh
  403d4d:	add    BYTE PTR [esi],al
  403d4f:	jb     0x403d47
  403d51:	daa    
  403d52:	add    BYTE PTR [eax+0x17],dh
  403d55:	lea    eax,[ecx]
  403d57:	add    BYTE PTR [eax],al
  403d59:	add    DWORD PTR [ebx],edx
  403d5b:	pop    es
  403d5c:	adc    DWORD PTR [edi],eax
  403d5e:	push   ss
  403d5f:	add    esp,DWORD PTR [edx+0x23280711]
  403d65:	add    BYTE PTR [eax],al
  403d67:	or     bl,dh
  403d69:	or     DWORD PTR [ebx],ecx
  403d6b:	pop    es
  403d6c:	sub    BYTE PTR [edx-0x21f60000],bh
  403d72:	add    dh,bl
  403d74:	or     ecx,DWORD PTR [eax]
  403d76:	sub    al,0x7
  403d78:	adc    DWORD PTR [eax+ebp*1],eax
  403d7b:	js     0x403d7d
  403d7d:	add    BYTE PTR [edx],cl
  403d7f:	(bad)  
  403d81:	or     cl,BYTE PTR [ecx]
  403d83:	sub    al,0x6
  403d85:	or     DWORD PTR [edi+0x1],ebp
  403d88:	add    BYTE PTR [eax],al
  403d8a:	or     bl,ah
  403d8c:	sub    al,BYTE PTR [eax]
  403d8e:	add    BYTE PTR [eax],al
  403d90:	add    DWORD PTR [eax+eax*1],esi
  403d93:	add    BYTE PTR [eax],al
  403d95:	add    BYTE PTR [edx],ah
  403d97:	add    BYTE PTR [ebx],bl
  403d99:	cmp    eax,0x631c00
  403d9e:	add    BYTE PTR [ecx],al
  403da0:	add    BYTE PTR [eax],al
  403da2:	pop    ecx
  403da3:	add    BYTE PTR [ecx-0x56],dl
  403da6:	add    BYTE PTR [ecx],cl
  403da8:	arpl   WORD PTR [eax],ax
  403daa:	add    BYTE PTR [ecx],al
  403dac:	add    al,BYTE PTR [eax]
  403dae:	adc    eax,DWORD PTR [eax]
  403db0:	mov    ds:0xb00b5,al
  403db5:	add    BYTE PTR [eax],al
  403db7:	add    BYTE PTR [edx],al
  403db9:	add    BYTE PTR [ecx],dl
  403dbb:	add    BYTE PTR [ecx+0xa00c2],dh
  403dc1:	add    BYTE PTR [eax],al
  403dc3:	add    BYTE PTR [ebx],bl
  403dc5:	xor    BYTE PTR [ebx],al
  403dc7:	add    BYTE PTR [eax+0x0],bl
  403dca:	add    BYTE PTR [eax],al
  403dcc:	pop    ds
  403dcd:	add    BYTE PTR [eax],al
  403dcf:	adc    DWORD PTR [edx+0x74],esi
  403dd2:	sub    BYTE PTR [eax],al
  403dd4:	jo     0x403dec
  403dd6:	lea    eax,[ecx]
  403dd8:	add    BYTE PTR [eax],al
  403dda:	add    DWORD PTR [eax],ebp
  403ddc:	push   ecx
  403ddd:	add    BYTE PTR [eax],al
  403ddf:	or     cl,BYTE PTR [edx+eax*1]
  403de2:	sub    BYTE PTR [eax+0x0],bh
  403de5:	add    BYTE PTR [esi],al
  403de7:	sub    eax,0x289e7215
  403dec:	add    BYTE PTR [eax+0x28],dh
  403def:	jns    0x403df1
  403df1:	add    BYTE PTR [edx],cl
  403df3:	sub    BYTE PTR [ecx+0x73060000],dh
  403df9:	mov    BYTE PTR [eax],0x0
  403dfc:	or     bh,BYTE PTR [edx+0x2]
  403dff:	sub    BYTE PTR [eax+0x0],bh
  403e02:	add    BYTE PTR [esi],al
  403e04:	add    eax,DWORD PTR [edi+ebp*2]
  403e07:	jg     0x403e09
  403e09:	add    BYTE PTR [esi],al
  403e0b:	or     ebx,esi
  403e0d:	sbb    BYTE PTR [edx],cl
  403e0f:	push   es
  403e10:	sub    BYTE PTR [edx-0x21f60000],bh
  403e16:	add    BYTE PTR ds:0xade0b6a,dl
  403e1c:	or     BYTE PTR [esi+eax*1],ch
  403e1f:	or     BYTE PTR [edi+0x1],ch
  403e22:	add    BYTE PTR [eax],al
  403e24:	or     bl,ah
  403e26:	pop    es
  403e27:	sub    al,BYTE PTR [ecx]
  403e29:	sbb    al,0x0
  403e2b:	add    BYTE PTR [eax],al
  403e2d:	add    BYTE PTR [ecx],dl
  403e2f:	add    BYTE PTR ds:0x6309003e,ch
  403e35:	add    BYTE PTR [eax],al
  403e37:	add    DWORD PTR [edx],eax
  403e39:	add    BYTE PTR [ecx],dl
  403e3b:	add    BYTE PTR [ebx],bh
  403e3d:	dec    esp
  403e3e:	add    BYTE PTR [edx],cl
  403e40:	add    BYTE PTR [eax],al
  403e42:	add    BYTE PTR [eax],al
  403e44:	sbb    esi,DWORD PTR [eax]
  403e46:	add    eax,DWORD PTR [eax]
  403e48:	push   ebx
  403e49:	add    BYTE PTR [eax],al
  403e4b:	add    BYTE PTR [eax],ah
  403e4d:	add    BYTE PTR [eax],al
  403e4f:	adc    DWORD PTR [edx+0x6],esi
  403e52:	sub    DWORD PTR [eax],eax
  403e54:	jo     0x403e6c
  403e56:	lea    eax,[ecx]
  403e58:	add    BYTE PTR [eax],al
  403e5a:	add    DWORD PTR [eax],ebp
  403e5c:	push   ecx
  403e5d:	add    BYTE PTR [eax],al
  403e5f:	or     cl,BYTE PTR [ebx]
  403e61:	add    ch,BYTE PTR [eax]
  403e63:	js     0x403e65
  403e65:	add    BYTE PTR [esi],al
  403e67:	sub    eax,0x29387215
  403e6c:	add    BYTE PTR [eax+0x28],dh
  403e6f:	jns    0x403e71
  403e71:	add    BYTE PTR [edx],cl
  403e73:	sub    BYTE PTR [ecx+0x73060000],dh
  403e79:	mov    BYTE PTR [eax],0x0
  403e7c:	or     bh,BYTE PTR [edx+0x2]
  403e7f:	sub    BYTE PTR [eax+0x0],bh
  403e82:	add    BYTE PTR [esi],al
  403e84:	add    eax,DWORD PTR [edi+ebp*2]
  403e87:	add    BYTE PTR [eax],0x0
  403e8a:	push   es
  403e8b:	fimul  WORD PTR [ecx]
  403e8d:	or     al,BYTE PTR [esi]
  403e8f:	sub    BYTE PTR [edx-0x21f60000],bh
  403e95:	add    dh,bl
  403e97:	or     al,BYTE PTR [edi]
  403e99:	sub    al,0x6
  403e9b:	pop    es
  403e9c:	outs   dx,DWORD PTR ds:[esi]
  403e9d:	add    DWORD PTR [eax],eax
  403e9f:	add    BYTE PTR [edx],cl
  403ea1:	fsubr  QWORD PTR [edx]
  403ea3:	add    BYTE PTR [ecx],al
  403ea5:	sbb    al,0x0
  403ea7:	add    BYTE PTR [eax],al
  403ea9:	add    BYTE PTR [ecx],dl
  403eab:	add    BYTE PTR [edi*1+0x630900],ch
  403eb2:	add    BYTE PTR [ecx],al
  403eb4:	add    al,BYTE PTR [eax]
  403eb6:	adc    DWORD PTR [eax],eax
  403eb8:	aaa    
  403eb9:	dec    eax
  403eba:	add    BYTE PTR [edx],cl
  403ebc:	add    BYTE PTR [eax],al
  403ebe:	add    BYTE PTR [eax],al
  403ec0:	sbb    esi,DWORD PTR [eax]
  403ec2:	add    al,BYTE PTR [eax]
  403ec4:	push   edx
  403ec5:	add    BYTE PTR [eax],al
  403ec7:	add    BYTE PTR [eax],ah
  403ec9:	add    BYTE PTR [eax],al
  403ecb:	adc    DWORD PTR [edx-0x58],esi
  403ece:	sub    DWORD PTR [eax],eax
  403ed0:	jo     0x403ee8
  403ed2:	lea    eax,[ecx]
  403ed4:	add    BYTE PTR [eax],al
  403ed6:	add    DWORD PTR [eax],ebp
  403ed8:	push   ecx
  403ed9:	add    BYTE PTR [eax],al
  403edb:	or     cl,BYTE PTR [ebx]
  403edd:	add    ch,BYTE PTR [eax]
  403edf:	js     0x403ee1
  403ee1:	add    BYTE PTR [esi],al
  403ee3:	sub    eax,0x29ca7215
  403ee8:	add    BYTE PTR [eax+0x28],dh
  403eeb:	jns    0x403eed
  403eed:	add    BYTE PTR [edx],cl
  403eef:	sub    BYTE PTR [ecx+0x73060000],dh
  403ef5:	mov    BYTE PTR [eax],0x0
  403ef8:	or     bh,BYTE PTR [edx+0x2]
  403efb:	sub    BYTE PTR [eax+0x0],bh
  403efe:	add    BYTE PTR [esi],al
  403f00:	add    ebp,DWORD PTR [edi-0x7f]
  403f03:	add    BYTE PTR [eax],al
  403f05:	push   es
  403f06:	fimul  WORD PTR [ecx]
  403f08:	or     al,BYTE PTR [esi]
  403f0a:	sub    BYTE PTR [edx-0x21f60000],bh
  403f10:	add    dh,bl
  403f12:	or     al,BYTE PTR [edi]
  403f14:	sub    al,0x6
  403f16:	pop    es
  403f17:	outs   dx,DWORD PTR ds:[esi]
  403f18:	add    DWORD PTR [eax],eax
  403f1a:	add    BYTE PTR [edx],cl
  403f1c:	fsubr  QWORD PTR [edx]
  403f1e:	add    BYTE PTR [eax],al
  403f20:	add    DWORD PTR [eax+eax*1],ebx
  403f23:	add    BYTE PTR [eax],al
  403f25:	add    BYTE PTR [ecx],dl
  403f27:	add    BYTE PTR [ebx],ch
  403f29:	cmp    al,0x0
  403f2b:	or     DWORD PTR [ebx+0x0],esp
  403f2e:	add    BYTE PTR [ecx],al
  403f30:	add    al,BYTE PTR [eax]
  403f32:	adc    DWORD PTR [eax],eax
  403f34:	ss inc edi
  403f36:	add    BYTE PTR [edx],cl
  403f38:	add    BYTE PTR [eax],al
  403f3a:	add    BYTE PTR [eax],al
  403f3c:	sbb    esi,DWORD PTR [eax]
  403f3e:	add    al,BYTE PTR [eax]
  403f40:	push   ecx
  403f41:	add    BYTE PTR [eax],al
  403f43:	add    BYTE PTR [eax],ah
  403f45:	add    BYTE PTR [eax],al
  403f47:	adc    DWORD PTR [edx+0x2a],esi
  403f4a:	sub    al,BYTE PTR [eax]
  403f4c:	jo     0x403f64
  403f4e:	lea    eax,[ecx]
  403f50:	add    BYTE PTR [eax],al
  403f52:	add    DWORD PTR [eax],ebp
  403f54:	push   ecx
  403f55:	add    BYTE PTR [eax],al
  403f57:	or     cl,BYTE PTR [ebx]
  403f59:	add    ch,BYTE PTR [eax]
  403f5b:	js     0x403f5d
  403f5d:	add    BYTE PTR [esi],al
  403f5f:	sub    eax,0x2a5e7215
  403f64:	add    BYTE PTR [eax+0x28],dh
  403f67:	jns    0x403f69
  403f69:	add    BYTE PTR [edx],cl
  403f6b:	sub    BYTE PTR [ecx+0x73060000],dh
  403f71:	mov    BYTE PTR [eax],0x0
  403f74:	or     bh,BYTE PTR [edx+0x2]
  403f77:	sub    BYTE PTR [eax+0x0],bh
  403f7a:	add    BYTE PTR [esi],al
  403f7c:	outs   dx,DWORD PTR ds:[esi]
  403f7d:	add    DWORD PTR [eax],0x0
  403f80:	push   es
  403f81:	fimul  WORD PTR [ecx]
  403f83:	or     al,BYTE PTR [esi]
  403f85:	sub    BYTE PTR [edx-0x21f60000],bh
  403f8b:	add    dh,bl
  403f8d:	or     al,BYTE PTR [edi]
  403f8f:	sub    al,0x6
  403f91:	pop    es
  403f92:	outs   dx,DWORD PTR ds:[esi]
  403f93:	add    DWORD PTR [eax],eax
  403f95:	add    BYTE PTR [edx],cl
  403f97:	fsubr  QWORD PTR [edx]
  403f99:	add    BYTE PTR [eax],al
  403f9b:	add    BYTE PTR [ecx],al
  403f9d:	sbb    al,0x0
  403f9f:	add    BYTE PTR [eax],al
  403fa1:	add    BYTE PTR [ecx],dl
  403fa3:	add    BYTE PTR [edx],ch
  403fa5:	cmp    eax,DWORD PTR [eax]
  403fa7:	or     DWORD PTR [ebx+0x0],esp
  403faa:	add    BYTE PTR [ecx],al
  403fac:	add    al,BYTE PTR [eax]
  403fae:	adc    DWORD PTR [eax],eax
  403fb0:	xor    eax,0xa0046
  403fb5:	add    BYTE PTR [eax],al
  403fb7:	add    BYTE PTR [ebx],bl
  403fb9:	xor    BYTE PTR [edx],al
  403fbb:	add    BYTE PTR [esi+0x0],dl
  403fbe:	add    BYTE PTR [eax],al
  403fc0:	and    DWORD PTR [eax],eax
  403fc2:	add    BYTE PTR [ecx],dl
  403fc4:	jb     0x403f96
  403fc6:	sub    al,BYTE PTR [eax]
  403fc8:	jo     0x403fe0
  403fca:	lea    eax,[ecx]
  403fcc:	add    BYTE PTR [eax],al
  403fce:	add    DWORD PTR [eax],ebp
  403fd0:	push   ecx
  403fd1:	add    BYTE PTR [eax],al
  403fd3:	or     cl,BYTE PTR [edx+eax*1]
  403fd6:	sub    BYTE PTR [eax+0x0],bh
  403fd9:	add    BYTE PTR [esi],al
  403fdb:	sub    eax,0x2b147215
  403fe0:	add    BYTE PTR [eax+0x28],dh
  403fe3:	jns    0x403fe5
  403fe5:	add    BYTE PTR [edx],cl
  403fe7:	sub    BYTE PTR [ecx+0x73060000],dh
  403fed:	mov    BYTE PTR [eax],0x0
  403ff0:	or     bh,BYTE PTR [edx+0x2]
  403ff3:	sub    BYTE PTR [eax+0x0],bh
  403ff6:	add    BYTE PTR [esi],al
  403ff8:	add    ebp,DWORD PTR [edi-0x7b]
  403ffb:	add    BYTE PTR [eax],al
  403ffd:	push   es
  403ffe:	or     ebx,esi
  404000:	pop    ss
  404001:	or     al,BYTE PTR [esi]
  404003:	sub    BYTE PTR [edx-0x21f60000],bh
  404009:	add    BYTE PTR [esi],dl
  40400b:	or     ebx,esi
  40400d:	or     cl,BYTE PTR [eax]
  40400f:	sub    al,0x6
  404011:	or     BYTE PTR [edi+0x1],ch
  404014:	add    BYTE PTR [eax],al
  404016:	or     bl,ah
  404018:	pop    es
  404019:	sub    al,BYTE PTR [eax]
  40401b:	add    BYTE PTR [ecx],al
  40401d:	sbb    al,0x0
  40401f:	add    BYTE PTR [eax],al
  404021:	add    BYTE PTR [ecx],dl
  404023:	add    BYTE PTR [edi*1+0x630900],ch
  40402a:	add    BYTE PTR [ecx],al
  40402c:	add    al,BYTE PTR [eax]
  40402e:	adc    DWORD PTR [eax],eax
  404030:	cmp    DWORD PTR [edx+0x0],ecx
  404033:	or     al,BYTE PTR [eax]
  404035:	add    BYTE PTR [eax],al
  404037:	add    BYTE PTR [ebx],bl
  404039:	xor    BYTE PTR [edx],al
  40403b:	add    BYTE PTR [edi+0x0],dl
  40403e:	add    BYTE PTR [eax],al
  404040:	pop    ds
  404041:	add    BYTE PTR [eax],al
  404043:	adc    DWORD PTR [edx-0x69],esi
  404046:	sub    eax,DWORD PTR [eax]
  404048:	jo     0x404060
  40404a:	lea    eax,[ecx]
  40404c:	add    BYTE PTR [eax],al
  40404e:	add    DWORD PTR [eax],ebp
  404050:	push   ecx
  404051:	add    BYTE PTR [eax],al
  404053:	or     cl,BYTE PTR [edx+eax*1]
  404056:	sub    BYTE PTR [eax+0x0],bh
  404059:	add    BYTE PTR [esi],al
  40405b:	sub    eax,0x2bdd7215
  404060:	add    BYTE PTR [eax+0x28],dh
  404063:	jns    0x404065
  404065:	add    BYTE PTR [edx],cl
  404067:	sub    BYTE PTR [ecx+0x73060000],dh
  40406d:	mov    BYTE PTR [eax],0x0
  404070:	or     bh,BYTE PTR [edx+0x2]
  404073:	sub    BYTE PTR [eax+0x0],bh
  404076:	add    BYTE PTR [esi],al
  404078:	add    ebp,DWORD PTR [edi-0x7a]
  40407b:	add    BYTE PTR [eax],al
  40407d:	push   es
  40407e:	or     ebx,esi
  404080:	sbb    BYTE PTR [edx],cl
  404082:	push   es
  404083:	sub    BYTE PTR [edx-0x21f60000],bh
  404089:	add    BYTE PTR [esi],dl
  40408b:	push   0xb
  40408d:	fimul  WORD PTR [edx]
  40408f:	or     BYTE PTR [esi+eax*1],ch
  404092:	or     BYTE PTR [edi+0x1],ch
  404095:	add    BYTE PTR [eax],al
  404097:	or     bl,ah
  404099:	pop    es
  40409a:	sub    al,BYTE PTR [eax]
  40409c:	add    DWORD PTR [eax+eax*1],ebx
  40409f:	add    BYTE PTR [eax],al
  4040a1:	add    BYTE PTR [ecx],dl
  4040a3:	add    BYTE PTR [edi*1+0x630900],ch
  4040aa:	add    BYTE PTR [ecx],al
  4040ac:	add    al,BYTE PTR [eax]
  4040ae:	adc    DWORD PTR [eax],eax
  4040b0:	cmp    cl,BYTE PTR [ebx+0x0]
  4040b3:	or     al,BYTE PTR [eax]
  4040b5:	add    BYTE PTR [eax],al
  4040b7:	add    BYTE PTR [ebx],bl
  4040b9:	xor    BYTE PTR [edx],al
  4040bb:	add    BYTE PTR [ebp+0x0],dl
  4040be:	add    BYTE PTR [eax],al
  4040c0:	and    DWORD PTR [eax],eax
  4040c2:	add    BYTE PTR [ecx],dl
  4040c4:	jb     0x404128
  4040c6:	sub    al,0x0
  4040c8:	jo     0x4040e0
  4040ca:	lea    eax,[ecx]
  4040cc:	add    BYTE PTR [eax],al
  4040ce:	add    DWORD PTR [eax],ebp
  4040d0:	push   ecx
  4040d1:	add    BYTE PTR [eax],al
  4040d3:	or     cl,BYTE PTR [edx+eax*1]
  4040d6:	sub    BYTE PTR [eax+0x0],bh
  4040d9:	add    BYTE PTR [esi],al
  4040db:	sub    eax,0x2ca87215
  4040e0:	add    BYTE PTR [eax+0x28],dh
  4040e3:	jns    0x4040e5
  4040e5:	add    BYTE PTR [edx],cl
  4040e7:	sub    BYTE PTR [ecx+0x73060000],dh
  4040ed:	mov    BYTE PTR [eax],0x0
  4040f0:	or     bh,BYTE PTR [edx+0x2]
  4040f3:	sub    BYTE PTR [eax+0x0],bh
  4040f6:	add    BYTE PTR [esi],al
  4040f8:	outs   dx,DWORD PTR ds:[esi]
  4040f9:	mov    eax,DWORD PTR [eax]
  4040fb:	add    BYTE PTR [esi],al
  4040fd:	or     ebx,esi
  4040ff:	pop    ss
  404100:	or     al,BYTE PTR [esi]
  404102:	sub    BYTE PTR [edx-0x21f60000],bh
  404108:	add    BYTE PTR [esi],dl
  40410a:	or     ebx,esi
  40410c:	or     cl,BYTE PTR [eax]
  40410e:	sub    al,0x6
  404110:	or     BYTE PTR [edi+0x1],ch
  404113:	add    BYTE PTR [eax],al
  404115:	or     bl,ah
  404117:	pop    es
  404118:	sub    al,BYTE PTR [eax]
  40411a:	add    BYTE PTR [eax],al
  40411c:	add    DWORD PTR [eax+eax*1],ebx
  40411f:	add    BYTE PTR [eax],al
  404121:	add    BYTE PTR [ecx],dl
  404123:	add    BYTE PTR [ebx],ch
  404125:	cmp    al,0x0
  404127:	or     DWORD PTR [ebx+0x0],esp
  40412a:	add    BYTE PTR [ecx],al
  40412c:	add    al,BYTE PTR [eax]
  40412e:	adc    DWORD PTR [eax],eax
  404130:	cmp    BYTE PTR [ecx+0x0],cl
  404133:	or     al,BYTE PTR [eax]
  404135:	add    BYTE PTR [eax],al
  404137:	add    BYTE PTR [ebx],bl
  404139:	xor    BYTE PTR [edx],al
  40413b:	add    BYTE PTR [esi+0x0],dl
  40413e:	add    BYTE PTR [eax],al
  404140:	pop    ds
  404141:	add    BYTE PTR [eax],al
  404143:	adc    DWORD PTR [edx+0x2d],esi
  404146:	sub    eax,0x8d167000
  40414b:	add    DWORD PTR [eax],eax
  40414d:	add    BYTE PTR [ecx],al
  40414f:	sub    BYTE PTR [ecx+0x0],dl
  404152:	add    BYTE PTR [edx],cl
  404154:	or     al,0x2
  404156:	sub    BYTE PTR [eax+0x0],bh
  404159:	add    BYTE PTR [esi],al
  40415b:	sub    eax,0x2d757215
  404160:	add    BYTE PTR [eax+0x28],dh
  404163:	jns    0x404165
  404165:	add    BYTE PTR [edx],cl
  404167:	sub    BYTE PTR [ecx+0x73060000],dh
  40416d:	mov    BYTE PTR [eax],0x0
  404170:	or     bh,BYTE PTR [edx+0x2]
  404173:	sub    BYTE PTR [eax+0x0],bh
  404176:	add    BYTE PTR [esi],al
  404178:	outs   dx,DWORD PTR ds:[esi]
  404179:	mov    WORD PTR [eax],es
  40417b:	add    BYTE PTR [esi],al
  40417d:	or     ebx,esi
  40417f:	sbb    BYTE PTR [edx],cl
  404181:	push   es
  404182:	sub    BYTE PTR [edx-0x21f60000],bh
  404188:	add    BYTE PTR [esi],dl
  40418a:	push   0xb
  40418c:	fimul  WORD PTR [edx]
  40418e:	or     BYTE PTR [esi+eax*1],ch
  404191:	or     BYTE PTR [edi+0x1],ch
  404194:	add    BYTE PTR [eax],al
  404196:	or     bl,ah
  404198:	pop    es
  404199:	sub    al,BYTE PTR [eax]
  40419b:	add    BYTE PTR [ecx],al
  40419d:	sbb    al,0x0
  40419f:	add    BYTE PTR [eax],al
  4041a1:	add    BYTE PTR [ecx],dl
  4041a3:	add    BYTE PTR [ebx],ch
  4041a5:	cmp    al,0x0
  4041a7:	or     DWORD PTR [ebx+0x0],esp
  4041aa:	add    BYTE PTR [ecx],al
  4041ac:	add    al,BYTE PTR [eax]
  4041ae:	adc    DWORD PTR [eax],eax
  4041b0:	cmp    DWORD PTR [edx+0x0],ecx
  4041b3:	or     al,BYTE PTR [eax]
  4041b5:	add    BYTE PTR [eax],al
  4041b7:	add    BYTE PTR [ebx],bl
  4041b9:	xor    BYTE PTR [eax+eax*1],al
  4041bc:	push   0x0
  4041be:	add    BYTE PTR [eax],al
  4041c0:	and    al,BYTE PTR [eax]
  4041c2:	add    BYTE PTR [ecx],dl
  4041c4:	jb     0x4041c2
  4041c6:	sub    eax,0x8d177000
  4041cb:	add    DWORD PTR [eax],eax
  4041cd:	add    BYTE PTR [ecx],al
  4041cf:	or     eax,DWORD PTR [edi]
  4041d1:	push   ss
  4041d2:	add    ecx,DWORD PTR [edx+eax*4-0x5dff0000]
  4041d9:	pop    es
  4041da:	sub    BYTE PTR [ebx],ah
  4041dc:	add    BYTE PTR [eax],al
  4041de:	or     al,BYTE PTR [edx]
  4041e0:	sub    BYTE PTR [eax+0x0],bh
  4041e3:	add    BYTE PTR [esi],al
  4041e5:	sub    eax,0x2e7a7215
  4041ea:	add    BYTE PTR [eax+0x28],dh
  4041ed:	jns    0x4041ef
  4041ef:	add    BYTE PTR [edx],cl
  4041f1:	sub    BYTE PTR [ecx+0x73060000],dh
  4041f7:	mov    BYTE PTR [eax],0x0
  4041fa:	or     bh,BYTE PTR [edx+0x72]
  4041fd:	lock add BYTE PTR cs:[eax+0x17],dh
  404202:	lea    eax,[ecx]
  404204:	add    BYTE PTR [eax],al
  404206:	add    DWORD PTR [eax+ecx*1],ecx
  404209:	push   ss
  40420a:	add    ecx,DWORD PTR [edx+eax*4-0x5dff0000]
  404211:	or     BYTE PTR [eax],ch
  404213:	and    eax,DWORD PTR [eax]
  404215:	add    BYTE PTR [edx],cl
  404217:	sub    BYTE PTR [ebp+0x0],cl
  40421a:	add    BYTE PTR [esi],al
  40421c:	add    ebp,DWORD PTR [edi+0x50]
  40421f:	add    BYTE PTR [eax],al
  404221:	push   es
  404222:	fimul  WORD PTR [ecx]
  404224:	or     al,BYTE PTR [esi]
  404226:	sub    BYTE PTR [edx-0x21f60000],bh
  40422c:	add    BYTE PTR [edx],ch
  40422e:	add    BYTE PTR [eax],al
  404230:	add    DWORD PTR [eax],edx
  404232:	add    BYTE PTR [eax],al
  404234:	add    BYTE PTR [eax],al
  404236:	sbb    eax,DWORD PTR [eax]
  404238:	inc    ebp
  404239:	pusha  
  40423a:	add    BYTE PTR [ecx],cl
  40423c:	arpl   WORD PTR [eax],ax
  40423e:	add    BYTE PTR [ecx],al
  404240:	sbb    esi,DWORD PTR [eax]
  404242:	add    al,0x0
  404244:	pushf  
  404245:	add    BYTE PTR [eax],al
  404247:	add    BYTE PTR [ebx],ah
  404249:	add    BYTE PTR [eax],al
  40424b:	adc    DWORD PTR [edx-0x6b],esi
  40424e:	das    
  40424f:	add    BYTE PTR [eax+0x17],dh
  404252:	lea    eax,[ecx]
  404254:	add    BYTE PTR [eax],al
  404256:	add    DWORD PTR [eax+ecx*1],ecx
  404259:	push   ss
  40425a:	add    ecx,DWORD PTR [eax+ebp*4-0x5dff0000]
  404261:	or     BYTE PTR [eax],ch
  404263:	and    eax,DWORD PTR [eax]
  404265:	add    BYTE PTR [edx],cl
  404267:	push   ss
  404268:	or     edi,DWORD PTR [esi+0x3d]
  40426b:	add    BYTE PTR [eax],al
  40426d:	add    al,0x25
  40426f:	or     eax,0x76280112
  404274:	add    BYTE PTR [eax],al
  404276:	or     al,BYTE PTR [edx]
  404278:	sub    BYTE PTR [eax+0x0],bh
  40427b:	add    BYTE PTR [esi],al
  40427d:	sub    al,0x52
  40427f:	add    ch,BYTE PTR [eax]
  404281:	js     0x404283
  404283:	add    BYTE PTR [esi],al
  404285:	outs   dx,DWORD PTR ds:[esi]
  404286:	xchg   esp,eax
  404287:	add    BYTE PTR [eax],al
  404289:	push   es
  40428a:	add    ebp,DWORD PTR [ebx+ecx*1]
  40428d:	add    ch,BYTE PTR [eax]
  40428f:	js     0x404291
  404291:	add    BYTE PTR [esi],al
  404293:	outs   dx,DWORD PTR ds:[esi]
  404294:	add    BYTE PTR [eax],0x0
  404297:	push   es
  404298:	add    ch,BYTE PTR [eax]
  40429a:	jb     0x40429c
  40429c:	add    BYTE PTR [esi],al
  40429e:	fisub  WORD PTR [edi]
  4042a0:	or     dh,BYTE PTR [edx+0x1a]
  4042a3:	xor    BYTE PTR [eax],al
  4042a5:	jo     0x4042be
  4042a7:	lea    eax,[ecx]
  4042a9:	add    BYTE PTR [eax],al
  4042ab:	add    DWORD PTR [ebx],edx
  4042ad:	add    al,0x11
  4042af:	add    al,0x16
  4042b1:	push   es
  4042b2:	outs   dx,DWORD PTR ds:[esi]
  4042b3:	push   edi
  4042b4:	add    BYTE PTR [eax],al
  4042b6:	or     ah,BYTE PTR [edx+0x28280411]
  4042bc:	add    BYTE PTR [eax],al
  4042be:	or     al,BYTE PTR [esi]
  4042c0:	sub    BYTE PTR [edx-0x21f60000],bh
  4042c6:	add    dh,bl
  4042c8:	or     BYTE PTR [edx],al
  4042ca:	adc    al,0x28
  4042cc:	jns    0x4042ce
  4042ce:	add    BYTE PTR [esi],al
  4042d0:	(bad)  
  4042d2:	or     al,BYTE PTR [edi]
  4042d4:	sub    al,0x6
  4042d6:	or     DWORD PTR [eax],ebp
  4042d8:	js     0x4042da
  4042da:	add    BYTE PTR [edx],cl
  4042dc:	fdiv   QWORD PTR [edx-0x61]
  4042df:	xor    BYTE PTR [eax],al
  4042e1:	jo     0x40430b
  4042e3:	cmp    BYTE PTR [eax],al
  4042e5:	add    BYTE PTR [edx],cl
  4042e7:	sub    al,BYTE PTR [ecx]
  4042e9:	sub    BYTE PTR [eax],al
  4042eb:	add    BYTE PTR [eax],al
  4042ed:	add    BYTE PTR [ebx],dh
  4042ef:	add    BYTE PTR [ecx],ah
  4042f1:	push   esp
  4042f2:	add    BYTE PTR [edi],ah
  4042f4:	arpl   WORD PTR [eax],ax
  4042f6:	add    BYTE PTR [ecx],al
  4042f8:	add    al,BYTE PTR [eax]
  4042fa:	xor    eax,DWORD PTR [eax]
  4042fc:	dec    edx
  4042fd:	jge    0x4042ff
  4042ff:	or     BYTE PTR [eax],al
  404301:	add    BYTE PTR [eax],al
  404303:	add    BYTE PTR [edx],al
  404305:	add    BYTE PTR ds:0x876a00,bl
  40430b:	or     al,BYTE PTR [eax]
  40430d:	add    BYTE PTR [eax],al
  40430f:	add    BYTE PTR [ebx],bl
  404311:	xor    BYTE PTR [ebx],al
  404313:	add    BYTE PTR [edi+0x0],dh
  404316:	add    BYTE PTR [eax],al
  404318:	and    al,0x0
  40431a:	add    BYTE PTR [ecx],dl
  40431c:	jb     0x40430b
  40431e:	xor    BYTE PTR [eax],al
  404320:	jo     0x404338
  404322:	lea    eax,[ecx]
  404324:	add    BYTE PTR [eax],al
  404326:	add    DWORD PTR [eax],ebp
  404328:	push   ecx
  404329:	add    BYTE PTR [eax],al
  40432b:	or     cl,BYTE PTR [edx]
  40432d:	jb     0x40431c
  40432f:	xor    BYTE PTR [eax],al
  404331:	jo     0x40435b
  404333:	cmp    BYTE PTR [eax],al
  404335:	add    BYTE PTR [edx],cl
  404337:	add    bh,BYTE PTR [ebx+0x43]
  40433a:	add    BYTE PTR [eax],al
  40433c:	add    al,0x2
  40433e:	inc    BYTE PTR [esi]
  404340:	jno    0x404342
  404342:	add    BYTE PTR [esi],al
  404344:	jae    0x4042e5
  404346:	add    BYTE PTR [eax],al
  404348:	or     ch,BYTE PTR [edi-0x39]
  40434b:	add    BYTE PTR [eax],al
  40434d:	or     al,BYTE PTR [edx]
  40434f:	jnp    0x404394
  404351:	add    BYTE PTR [eax],al
  404353:	add    al,0x6f
  404355:	enter  0x0,0xa
  404359:	add    bh,BYTE PTR [ebx+0x3e]
  40435c:	add    BYTE PTR [eax],al
  40435e:	add    al,0x2d
  404360:	and    eax,0x3a7b02
  404365:	add    BYTE PTR [edi+ebp*2],al
  404368:	add    DWORD PTR [eax],eax
  40436a:	add    BYTE PTR [edx],cl
  40436c:	add    ch,BYTE PTR [eax]
  40436e:	js     0x404370
  404370:	add    BYTE PTR [esi],al
  404372:	sub    al,0xb
  404374:	add    ch,BYTE PTR [eax]
  404376:	js     0x404378
  404378:	add    BYTE PTR [esi],al
  40437a:	outs   dx,DWORD PTR ds:[esi]
  40437b:	add    DWORD PTR [eax],eax
  40437d:	add    BYTE PTR [edx],cl
  40437f:	add    dl,BYTE PTR [edi]
  404381:	jge    0x4043c1
  404383:	add    BYTE PTR [eax],al
  404385:	add    al,0xde
  404387:	or     al,BYTE PTR [esi]
  404389:	sub    al,0x6
  40438b:	push   es
  40438c:	outs   dx,DWORD PTR ds:[esi]
  40438d:	add    DWORD PTR [eax],eax
  40438f:	add    BYTE PTR [edx],cl
  404391:	fsubr  QWORD PTR [edx]
  404393:	add    BYTE PTR [ecx],al
  404395:	adc    BYTE PTR [eax],al
  404397:	add    BYTE PTR [edx],al
  404399:	add    BYTE PTR [ecx],dl
  40439b:	add    BYTE PTR [ebx+0x6c],bl
  40439e:	add    BYTE PTR [edx],cl
  4043a0:	add    BYTE PTR [eax],al
  4043a2:	add    BYTE PTR [eax],al
  4043a4:	sbb    esi,DWORD PTR [eax]
  4043a6:	add    al,0x0
  4043a8:	mov    eax,ds:0x25000000
  4043ad:	add    BYTE PTR [eax],al
  4043af:	adc    DWORD PTR [edx+0xb],esi
  4043b2:	xor    DWORD PTR [eax],eax
  4043b4:	jo     0x4043de
  4043b6:	cmp    BYTE PTR [eax],al
  4043b8:	add    BYTE PTR [edx],cl
  4043ba:	push   ss
  4043bb:	or     al,0x7e
  4043bd:	cmp    al,0x0
  4043bf:	add    BYTE PTR [eiz*1+0x2802120d],al
  4043c6:	jbe    0x4043c8
  4043c8:	add    BYTE PTR [edx],cl
  4043ca:	add    bh,BYTE PTR [ebx+0x3b]
  4043cd:	add    BYTE PTR [eax],al
  4043cf:	add    al,0x2d
  4043d1:	add    bl,dh
  4043d3:	jl     0x4043d7
  4043d5:	jnp    0x404412
  4043d7:	add    BYTE PTR [eax],al
  4043d9:	add    al,0x74
  4043db:	stos   BYTE PTR es:[edi],al
  4043dc:	add    BYTE PTR [eax],al
  4043de:	add    DWORD PTR [edi-0x37],ebp
  4043e1:	add    BYTE PTR [eax],al
  4043e3:	or     bl,BYTE PTR [ebx]
  4043e5:	cs add bl,dh
  4043e8:	addr16 jb 0x404414
  4043eb:	xor    DWORD PTR [eax],eax
  4043ed:	jo     0x404417
  4043ef:	pop    edx
  4043f0:	add    BYTE PTR [eax],al
  4043f2:	or     al,BYTE PTR [edx]
  4043f4:	jnp    0x404431
  4043f6:	add    BYTE PTR [eax],al
  4043f8:	add    al,0x74
  4043fa:	stos   BYTE PTR es:[edi],al
  4043fb:	add    BYTE PTR [eax],al
  4043fd:	add    DWORD PTR [edi-0x36],ebp
  404400:	add    BYTE PTR [eax],al
  404402:	or     bl,dh
  404404:	cmp    BYTE PTR [edx],cl
  404406:	jb     0x404487
  404408:	xor    DWORD PTR [eax],eax
  40440a:	jo     0x404423
  40440c:	lea    eax,[ecx]
  40440e:	add    BYTE PTR [eax],al
  404410:	add    DWORD PTR [ebx],edx
  404412:	add    al,0x11
  404414:	add    al,0x16
  404416:	push   es
  404417:	mov    ds:0x2c280411,al
  40441c:	add    BYTE PTR [eax],al
  40441e:	or     bl,dh
  404420:	sbb    al,0xb
  404422:	jb     0x40440b
  404424:	xor    DWORD PTR [eax],eax
  404426:	jo     0x40443f
  404428:	lea    eax,[ecx]
  40442a:	add    BYTE PTR [eax],al
  40442c:	add    DWORD PTR [ebx],edx
  40442e:	add    eax,0x7160511
  404433:	mov    ds:0x2c280511,al
  404438:	add    BYTE PTR [eax],al
  40443a:	or     bl,dh
  40443c:	add    BYTE PTR [edx],al
  40443e:	adc    al,0x7d
  404440:	cmp    eax,DWORD PTR [eax]
  404442:	add    BYTE PTR [esi+ebx*8],al
  404445:	or     cl,BYTE PTR [eax]
  404447:	sub    al,0x6
  404449:	or     DWORD PTR [eax],ebp
  40444b:	js     0x40444d
  40444d:	add    BYTE PTR [edx],cl
  40444f:	fsubr  QWORD PTR [edx]
  404451:	add    BYTE PTR [eax],al
  404453:	add    BYTE PTR [ecx],al
  404455:	sub    BYTE PTR [eax],al
  404457:	add    BYTE PTR [eax],al
  404459:	add    BYTE PTR [ebx+0x0],al
  40445c:	adc    dl,BYTE PTR [ebp+0x0]
  40445f:	sbb    al,0x92
  404461:	add    BYTE PTR [eax],al
  404463:	add    DWORD PTR [eax],eax
  404465:	add    BYTE PTR [ebx+0x0],al
  404468:	adc    dh,BYTE PTR [ecx+0x0]
  40446b:	sbb    al,0x93
  40446d:	add    BYTE PTR [eax],al
  40446f:	add    DWORD PTR [edx],eax
  404471:	add    BYTE PTR [eax+eax*1],cl
  404474:	mov    dl,BYTE PTR [esi+0xa00]
  40447a:	add    BYTE PTR [eax],al
  40447c:	sbb    esi,DWORD PTR [eax]
  40447e:	add    al,BYTE PTR [eax]
  404480:	inc    edi
  404481:	add    BYTE PTR [eax],al
  404483:	add    BYTE PTR [ebx],dl
  404485:	add    BYTE PTR [eax],al
  404487:	adc    DWORD PTR [esi],edx
  404489:	or     bh,BYTE PTR [esi+0x3d]
  40448c:	add    BYTE PTR [eax],al
  40448e:	add    al,0x25
  404490:	or     edx,DWORD PTR [edx]
  404492:	add    BYTE PTR [eax],ch
  404494:	jbe    0x404496
  404496:	add    BYTE PTR [edx],cl
  404498:	add    bh,BYTE PTR [ebx+0x3a]
  40449b:	add    BYTE PTR [eax],al
  40449d:	add    al,0x6f
  40449f:	sbb    al,0x0
  4044a1:	add    BYTE PTR [esi],al
  4044a3:	sub    eax,0x7828021d
  4044a8:	add    BYTE PTR [eax],al
  4044aa:	push   es
  4044ab:	sub    eax,0x32417215
  4044b0:	add    BYTE PTR [eax+0x28],dh
  4044b3:	cmp    eax,0x7e0a0000
  4044b8:	pop    edi
  4044b9:	add    BYTE PTR [eax],al
  4044bb:	add    al,0x6f
  4044bd:	jl     0x4044bf
  4044bf:	add    BYTE PTR [edx],cl
  4044c1:	fimul  WORD PTR es:[edx]
  4044c4:	push   es
  4044c5:	sub    al,0x6
  4044c7:	pop    es
  4044c8:	sub    BYTE PTR [eax+0x0],bh
  4044cb:	add    BYTE PTR [edx],cl
  4044cd:	fsubr  QWORD PTR [edx]
  4044cf:	add    BYTE PTR [ecx],al
  4044d1:	adc    BYTE PTR [eax],al
  4044d3:	add    BYTE PTR [edx],al
  4044d5:	add    BYTE PTR [edx],al
  4044d7:	add    BYTE PTR [edx],bh
  4044d9:	cmp    al,0x0
  4044db:	or     al,BYTE PTR [eax]
  4044dd:	add    BYTE PTR [eax],al
  4044df:	add    dl,ah
  4044e1:	add    bh,BYTE PTR [esp+eax*2+0x0]
  4044e5:	add    BYTE PTR [eax+ebp*1],al
  4044e8:	retf   
  4044e9:	add    BYTE PTR [eax],al
  4044eb:	or     ah,BYTE PTR [ebx]
	...
  4044f5:	and    DWORD PTR ss:[edx],eax
  4044f8:	jnp    0x40453d
  4044fa:	add    BYTE PTR [eax],al
  4044fc:	add    al,0x2
  4044fe:	jl     0x404544
  404500:	add    BYTE PTR [eax],al
  404502:	add    al,0x28
  404504:	retf   
  404505:	add    BYTE PTR [eax],al
  404507:	or     ch,BYTE PTR [edi-0x34]
  40450a:	add    BYTE PTR [eax],al
  40450c:	or     al,BYTE PTR [edx]
  40450e:	jnp    0x404553
  404510:	add    BYTE PTR [eax],al
  404512:	add    al,0x6f
  404514:	int    0x0
  404516:	add    BYTE PTR [edx],cl
  404518:	sub    al,BYTE PTR [eax]
  40451a:	add    BYTE PTR [eax],al
  40451c:	sbb    esi,DWORD PTR [eax]
  40451e:	add    eax,DWORD PTR [eax]
  404520:	dec    edx
  404521:	add    BYTE PTR [eax],al
  404523:	add    BYTE PTR [ebx],dl
  404525:	add    BYTE PTR [eax],al
  404527:	adc    DWORD PTR [edx-0x14],esi
  40452a:	xor    al,BYTE PTR [eax]
  40452c:	jo     0x404556
  40452e:	cmp    BYTE PTR [eax],al
  404530:	add    BYTE PTR [edx],cl
  404532:	push   ss
  404533:	or     bh,BYTE PTR [esi+0x3c]
  404536:	add    BYTE PTR [eax],al
  404538:	add    al,0x25
  40453a:	or     edx,DWORD PTR [edx]
  40453c:	add    BYTE PTR [eax],ch
  40453e:	jbe    0x404540
  404540:	add    BYTE PTR [edx],cl
  404542:	add    al,BYTE PTR [ebx]
  404544:	jge    0x404581
  404546:	add    BYTE PTR [eax],al
  404548:	add    al,0x2
  40454a:	jnp    0x404587
  40454c:	add    BYTE PTR [eax],al
  40454e:	add    al,0x74
  404550:	stos   BYTE PTR es:[edi],al
  404551:	add    BYTE PTR [eax],al
  404553:	add    DWORD PTR [edx],eax
  404555:	inc    BYTE PTR [esi]
  404557:	jo     0x404559
  404559:	add    BYTE PTR [esi],al
  40455b:	jae    0x404597
  40455d:	add    BYTE PTR [eax],al
  40455f:	or     ch,BYTE PTR [edi-0x32]
  404562:	add    BYTE PTR [eax],al
  404564:	or     bl,dh
  404566:	or     al,BYTE PTR [esi]
  404568:	sub    al,0x6
  40456a:	pop    es
  40456b:	sub    BYTE PTR [eax+0x0],bh
  40456e:	add    BYTE PTR [edx],cl
  404570:	fsubr  QWORD PTR [edx]
  404572:	add    BYTE PTR [eax],al
  404574:	add    DWORD PTR [eax],edx
  404576:	add    BYTE PTR [eax],al
  404578:	add    al,BYTE PTR [eax]
  40457a:	or     al,0x0
  40457c:	xor    edi,DWORD PTR [edi]
  40457e:	add    BYTE PTR [edx],cl
  404580:	add    BYTE PTR [eax],al
  404582:	add    BYTE PTR [eax],al
  404584:	sbb    esi,DWORD PTR [eax]
  404586:	add    al,0x0
  404588:	sahf   
  404589:	add    BYTE PTR [eax],al
  40458b:	add    BYTE PTR [esi],ah
  40458d:	add    BYTE PTR [eax],al
  40458f:	adc    DWORD PTR [edx+0x1a],esi
  404592:	xor    eax,DWORD PTR [eax]
  404594:	jo     0x4045be
  404596:	cmp    BYTE PTR [eax],al
  404598:	add    BYTE PTR [edx],cl
  40459a:	push   ss
  40459b:	or     al,0x7e
  40459d:	cmp    al,0x0
  40459f:	add    BYTE PTR [eiz*1+0x2802120d],al
  4045a6:	jbe    0x4045a8
  4045a8:	add    BYTE PTR [edx],cl
  4045aa:	add    bh,BYTE PTR [ebx+0x3b]
  4045ad:	add    BYTE PTR [eax],al
  4045af:	add    al,0x2d
  4045b1:	add    bl,dh
  4045b3:	jns    0x4045b7
  4045b5:	jnp    0x4045f2
  4045b7:	add    BYTE PTR [eax],al
  4045b9:	add    al,0x74
  4045bb:	stos   BYTE PTR es:[edi],al
  4045bc:	add    BYTE PTR [eax],al
  4045be:	add    DWORD PTR [edx],eax
  4045c0:	inc    BYTE PTR [esi]
  4045c2:	jo     0x4045c4
  4045c4:	add    BYTE PTR [esi],al
  4045c6:	jae    0x404602
  4045c8:	add    BYTE PTR [eax],al
  4045ca:	or     ch,BYTE PTR [edi-0x31]
  4045cd:	add    BYTE PTR [eax],al
  4045cf:	or     al,BYTE PTR [edx]
  4045d1:	jnp    0x40460e
  4045d3:	add    BYTE PTR [eax],al
  4045d5:	add    al,0x74
  4045d7:	stos   BYTE PTR es:[edi],al
  4045d8:	add    BYTE PTR [eax],al
  4045da:	add    DWORD PTR [edi-0x36],ebp
  4045dd:	add    BYTE PTR [eax],al
  4045df:	or     bl,dh
  4045e1:	cmp    BYTE PTR [edx],cl
  4045e3:	jb     0x4045cc
  4045e5:	xor    DWORD PTR [eax],eax
  4045e7:	jo     0x404600
  4045e9:	lea    eax,[ecx]
  4045eb:	add    BYTE PTR [eax],al
  4045ed:	add    DWORD PTR [ebx],edx
  4045ef:	add    al,0x11
  4045f1:	add    al,0x16
  4045f3:	push   es
  4045f4:	mov    ds:0x2c280411,al
  4045f9:	add    BYTE PTR [eax],al
  4045fb:	or     bl,dh
  4045fd:	sbb    al,0xb
  4045ff:	jb     0x404659
  404601:	xor    eax,DWORD PTR [eax]
  404603:	jo     0x40461c
  404605:	lea    eax,[ecx]
  404607:	add    BYTE PTR [eax],al
  404609:	add    DWORD PTR [ebx],edx
  40460b:	add    eax,0x7160511
  404610:	mov    ds:0x2c280511,al
  404615:	add    BYTE PTR [eax],al
  404617:	or     bl,dh
  404619:	add    BYTE PTR [edx],al
  40461b:	adc    al,0x7d
  40461d:	cmp    eax,DWORD PTR [eax]
  40461f:	add    BYTE PTR [esi+ebx*8],al
  404622:	or     cl,BYTE PTR [eax]
  404624:	sub    al,0x6
  404626:	or     DWORD PTR [eax],ebp
  404628:	js     0x40462a
  40462a:	add    BYTE PTR [edx],cl
  40462c:	fsubr  QWORD PTR [edx]
  40462e:	add    BYTE PTR [eax],al
  404630:	add    DWORD PTR [eax],ebp
  404632:	add    BYTE PTR [eax],al
  404634:	add    BYTE PTR [eax],al
  404636:	and    al,0x0
  404638:	cs push edx
  40463a:	add    BYTE PTR [ebx+edx*4],bl
  40463d:	add    BYTE PTR [eax],al
  40463f:	add    DWORD PTR [eax],eax
  404641:	add    BYTE PTR [eax+eax*1],ah
  404644:	outs   dx,BYTE PTR cs:[esi]
  404646:	add    BYTE PTR [edx+edx*4],bl
  404649:	add    BYTE PTR [eax],al
  40464b:	add    DWORD PTR [edx],eax
  40464d:	add    BYTE PTR [eax+eax*1],cl
  404650:	xchg   DWORD PTR [ebx+0xa00],edx
  404656:	add    BYTE PTR [eax],al
  404658:	sbb    esi,DWORD PTR [eax]
  40465a:	add    al,BYTE PTR [eax]
  40465c:	dec    edx
  40465d:	add    BYTE PTR [eax],al
  40465f:	add    BYTE PTR [edi],ah
  404661:	add    BYTE PTR [eax],al
  404663:	adc    DWORD PTR [edx-0x42],esi
  404666:	xor    eax,DWORD PTR [eax]
  404668:	jo     0x404692
  40466a:	cmp    BYTE PTR [eax],al
  40466c:	add    BYTE PTR [edx],cl
  40466e:	sub    BYTE PTR [esi+0x6f0a0000],ah
  404674:	cmps   DWORD PTR ds:[esi],DWORD PTR es:[edi]
  404675:	add    BYTE PTR [eax],al
  404677:	or     ch,BYTE PTR [edi-0x58]
  40467a:	add    BYTE PTR [eax],al
  40467c:	or     al,BYTE PTR [edx]
  40467e:	jnp    0x4046c0
  404680:	add    BYTE PTR [eax],al
  404682:	add    al,0x28
  404684:	rol    BYTE PTR [eax],1
  404686:	add    BYTE PTR [edx],cl
  404688:	jle    0x4046e9
  40468a:	add    BYTE PTR [eax],al
  40468c:	add    al,0x6f
  40468e:	jl     0x404690
  404690:	add    BYTE PTR [edx],cl
  404692:	ficomp WORD PTR es:[eax]
  404695:	or     al,BYTE PTR [esi]
  404697:	push   es
  404698:	outs   dx,DWORD PTR ds:[esi]
  404699:	mov    ecx,0x280a0000
  40469e:	inc    ebp
  40469f:	add    BYTE PTR [eax],al
  4046a1:	or     bl,dh
  4046a3:	or     DWORD PTR [ebx],ecx
  4046a5:	pop    es
  4046a6:	sub    BYTE PTR [edx-0x21f60000],bh
  4046ac:	add    BYTE PTR [edx],ch
  4046ae:	add    BYTE PTR [eax],al
  4046b0:	add    DWORD PTR [eax+eax*1],ebx
  4046b3:	add    BYTE PTR [eax],al
  4046b5:	add    BYTE PTR [eax],al
  4046b7:	add    BYTE PTR [ecx],dh
  4046b9:	xor    DWORD PTR [eax],eax
  4046bb:	cpuid  
  4046bd:	add    BYTE PTR [eax],al
  4046bf:	add    DWORD PTR [eax],eax
  4046c1:	add    BYTE PTR [eax],al
  4046c3:	add    BYTE PTR [ecx],dh
  4046c5:	inc    eax
  4046c6:	add    BYTE PTR [ecx],cl
  4046c8:	arpl   WORD PTR [eax],ax
  4046ca:	add    BYTE PTR [ecx],al
  4046cc:	jb     0x4046d0
  4046ce:	jnp    0x40470a
  4046d0:	add    BYTE PTR [eax],al
  4046d2:	add    al,0x6f
  4046d4:	sbb    al,0x0
  4046d6:	add    BYTE PTR [esi],al
  4046d8:	sub    eax,0x7828020d
  4046dd:	add    BYTE PTR [eax],al
  4046df:	push   es
  4046e0:	adc    al,0xfe
  4046e2:	add    DWORD PTR [esi],edx
  4046e4:	inc    BYTE PTR [ecx]
  4046e6:	sub    dl,BYTE PTR [edi]
  4046e8:	sub    al,BYTE PTR [eax]
  4046ea:	add    BYTE PTR [eax],al
  4046ec:	adc    esi,DWORD PTR [eax]
  4046ee:	add    al,BYTE PTR [eax]
  4046f0:	and    eax,DWORD PTR [eax]
  4046f2:	add    BYTE PTR [eax],al
  4046f4:	sub    BYTE PTR [eax],al
  4046f6:	add    BYTE PTR [ecx],dl
  4046f8:	jb     0x4046de
  4046fa:	xor    eax,DWORD PTR [eax]
  4046fc:	jo     0x404726
  4046fe:	cmp    BYTE PTR [eax],al
  404700:	add    BYTE PTR [edx],cl
  404702:	add    bh,BYTE PTR [ebx+0x45]
  404705:	add    BYTE PTR [eax],al
  404707:	add    al,0x3
  404709:	outs   dx,DWORD PTR ds:[esi]
  40470a:	xchg   ebx,eax
  40470b:	add    BYTE PTR [eax],al
  40470d:	or     cl,BYTE PTR [edx]
  40470f:	jb     0x404741
  404711:	xor    al,0x0
  404713:	jo     0x40473d
  404715:	cmp    BYTE PTR [eax],al
  404717:	add    BYTE PTR [edx],cl
  404719:	push   es
  40471a:	sub    bl,BYTE PTR [esi]
  40471c:	add    bh,BYTE PTR [ebx+0x47]
  40471f:	add    BYTE PTR [eax],al
  404721:	add    al,0x2a
  404723:	and    al,BYTE PTR [edx]
  404725:	add    edi,DWORD PTR [ebp+0x47]
  404728:	add    BYTE PTR [eax],al
  40472a:	add    al,0x2a
  40472c:	sbb    esi,DWORD PTR [eax]
  40472e:	add    al,0x0
  404730:	add    BYTE PTR ds:[eax],al
  404733:	add    BYTE PTR [ebx],cl
  404735:	add    BYTE PTR [eax],al
  404737:	adc    DWORD PTR [edx],eax
  404739:	jnp    0x40477d
  40473b:	add    BYTE PTR [eax],al
  40473d:	add    al,0x2c
  40473f:	xor    eax,0x427b02
  404744:	add    BYTE PTR [eax+ebp*1],al
  404747:	rol    DWORD PTR [eax],1
  404749:	add    BYTE PTR [edx],cl
  40474b:	outs   dx,DWORD PTR ds:[esi]
  40474c:	rol    BYTE PTR [eax],cl
  40474e:	add    BYTE PTR [edx],cl
  404750:	ficomp WORD PTR [ecx]
  404752:	or     dh,BYTE PTR [edx+0x78]
  404755:	xor    al,0x0
  404757:	jo     0x404770
  404759:	lea    eax,[ecx]
  40475b:	add    BYTE PTR [eax],al
  40475d:	add    DWORD PTR [ebx],ecx
  40475f:	pop    es
  404760:	push   ss
  404761:	push   es
  404762:	mov    ds:0x2c2807,al
  404767:	add    BYTE PTR [edx],cl
  404769:	fiadd  WORD PTR [eax]
  40476b:	fimul  WORD PTR [eax]
  40476d:	add    dl,BYTE PTR [edi]
  40476f:	jge    0x4047b7
  404771:	add    BYTE PTR [eax],al
  404773:	add    al,0xdc
  404775:	sub    al,BYTE PTR [eax]
  404777:	add    BYTE PTR [ecx],al
  404779:	sbb    al,0x0
  40477b:	add    BYTE PTR [eax],al
  40477d:	add    BYTE PTR [eax],cl
  40477f:	add    BYTE PTR [edx],dl
  404781:	sbb    al,BYTE PTR [eax]
  404783:	sbb    DWORD PTR [ebx+0x0],esp
  404786:	add    BYTE PTR [ecx],al
  404788:	add    al,BYTE PTR [eax]
  40478a:	or     BYTE PTR [eax],al
  40478c:	sub    eax,0x80035
  404791:	add    BYTE PTR [eax],al
  404793:	add    BYTE PTR [esi],bl
  404795:	add    bh,BYTE PTR [ebx+0x48]
  404798:	add    BYTE PTR [eax],al
  40479a:	add    al,0x2a
  40479c:	and    al,BYTE PTR [edx]
  40479e:	add    edi,DWORD PTR [ebp+0x48]
  4047a1:	add    BYTE PTR [eax],al
  4047a3:	add    al,0x2a
  4047a5:	push   esi
  4047a6:	jae    0x4047c3
  4047a8:	add    BYTE PTR [eax],al
  4047aa:	or     al,BYTE PTR [eax+0x400003c]
  4047b0:	jae    0x4047cd
  4047b2:	add    BYTE PTR [eax],al
  4047b4:	or     al,BYTE PTR [eax+0x400003d]
  4047ba:	sub    al,BYTE PTR [eax]
  4047bc:	adc    esi,DWORD PTR [eax]
  4047be:	add    al,0x0
  4047c0:	outs   dx,BYTE PTR ds:[esi]
  4047c1:	add    BYTE PTR [eax],al
  4047c3:	add    BYTE PTR [ecx],ch
  4047c5:	add    BYTE PTR [eax],al
  4047c7:	adc    DWORD PTR [edx],eax
  4047c9:	jae    0x4047e6
  4047cb:	add    BYTE PTR [eax],al
  4047cd:	or     bh,BYTE PTR [ebp+0x50]
  4047d0:	add    BYTE PTR [eax],al
  4047d2:	add    al,0x2
  4047d4:	sub    BYTE PTR [ebx],bl
  4047d6:	add    BYTE PTR [eax],al
  4047d8:	or     al,BYTE PTR [edx]
  4047da:	add    ebp,DWORD PTR [eax]
  4047dc:	rol    DWORD PTR [eax],cl
  4047de:	add    BYTE PTR [edx],cl
  4047e0:	jge    0x40482d
  4047e2:	add    BYTE PTR [eax],al
  4047e4:	add    al,0x2
  4047e6:	add    ebp,DWORD PTR [eax]
  4047e8:	aaa    
  4047e9:	add    BYTE PTR [eax],al
  4047eb:	or     bh,BYTE PTR [ebp+0x4c]
  4047ee:	add    BYTE PTR [eax],al
  4047f0:	add    al,0x28
  4047f2:	aam    0x0
  4047f4:	add    BYTE PTR [edx],cl
  4047f6:	or     al,BYTE PTR [edx]
  4047f8:	push   es
  4047f9:	sub    ch,dl
  4047fb:	add    BYTE PTR [eax],al
  4047fd:	or     ch,BYTE PTR [eax]
  4047ff:	sub    eax,0x7d0a0000
  404804:	dec    ebp
  404805:	add    BYTE PTR [eax],al
  404807:	add    al,0x72
  404809:	hlt    
  40480a:	xor    al,0x0
  40480c:	jo     0x404825
  40480e:	lea    eax,[ecx]
  404810:	add    BYTE PTR [eax],al
  404812:	add    DWORD PTR [ebx],ecx
  404814:	pop    es
  404815:	push   ss
  404816:	add    bh,BYTE PTR [ebx+0x4d]
  404819:	add    BYTE PTR [eax],al
  40481b:	add    al,0xa2
  40481d:	pop    es
  40481e:	sub    BYTE PTR [ebx],ah
  404820:	add    BYTE PTR [eax],al
  404822:	or     al,BYTE PTR [edx]
  404824:	add    al,0x7d
  404826:	push   edx
  404827:	add    BYTE PTR [eax],al
  404829:	add    al,0x2
  40482b:	jae    0x404803
  40482d:	add    BYTE PTR [eax],al
  40482f:	or     bh,BYTE PTR [ebp+0x4e]
  404832:	add    BYTE PTR [eax],al
  404834:	add    al,0x2a
  404836:	add    BYTE PTR [eax],al
  404838:	sbb    esi,DWORD PTR [eax]
  40483a:	add    al,0x0
  40483c:	rol    BYTE PTR [eax],1
  40483e:	add    BYTE PTR [eax],al
  404840:	sub    al,BYTE PTR [eax]
  404842:	add    BYTE PTR [ecx],dl
  404844:	add    bh,BYTE PTR [ebx+0x4d]
  404847:	add    BYTE PTR [eax],al
  404849:	add    al,0x28
  40484b:	xlat   BYTE PTR ds:[ebx]
  40484c:	add    BYTE PTR [eax],al
  40484e:	or     ch,BYTE PTR ds:0x4d7b020c
  404854:	add    BYTE PTR [eax],al
  404856:	add    al,0x28
  404858:	fadd   DWORD PTR [eax]
  40485a:	add    BYTE PTR [edx],cl
  40485c:	es add al,0x2d
  40485f:	push   ss
  404860:	add    eax,DWORD PTR [edx]
  404862:	jnp    0x4048b0
  404864:	add    BYTE PTR [eax],al
  404866:	add    al,0x6f
  404868:	fld    DWORD PTR [eax]
  40486a:	add    BYTE PTR [edx],cl
  40486c:	pop    ss
  40486d:	pop    eax
  40486e:	outs   dx,DWORD PTR ds:[esi]
  40486f:	fiadd  DWORD PTR [eax]
  404871:	add    BYTE PTR [edx],cl
  404873:	or     ebp,DWORD PTR [ebx]
  404875:	add    al,BYTE PTR [ebx]
  404877:	or     eax,DWORD PTR [edx]
  404879:	jnp    0x4048c8
  40487b:	add    BYTE PTR [eax],al
  40487d:	add    al,0x7
  40487f:	sub    BYTE PTR ds:0xc0a0000,ch
  404885:	or     BYTE PTR [eax],ch
  404887:	aaa    
  404888:	add    BYTE PTR [eax],al
  40488a:	or     cl,BYTE PTR ds:0xab2809
  404890:	add    BYTE PTR [edx],cl
  404892:	sub    eax,0xd7280928
  404897:	add    BYTE PTR [eax],al
  404899:	or     ch,BYTE PTR ds:0x35427220
  40489f:	add    BYTE PTR [eax+0x17],dh
  4048a2:	lea    eax,[ecx]
  4048a4:	add    BYTE PTR [eax],al
  4048a6:	add    DWORD PTR [ebx],edx
  4048a8:	pop    es
  4048a9:	adc    DWORD PTR [edi],eax
  4048ab:	push   ss
  4048ac:	or     DWORD PTR [edx+0x23280711],esp
  4048b2:	add    BYTE PTR [eax],al
  4048b4:	or     cl,BYTE PTR [ecx]
  4048b6:	sub    al,bl
  4048b8:	add    BYTE PTR [eax],al
  4048ba:	or     ah,BYTE PTR [esi]
  4048bc:	jb     0x404842
  4048be:	xor    eax,0x8d177000
  4048c3:	add    DWORD PTR [eax],eax
  4048c5:	add    BYTE PTR [ecx],al
  4048c7:	adc    ecx,DWORD PTR [eax]
  4048c9:	adc    DWORD PTR [eax],ecx
  4048cb:	push   ss
  4048cc:	or     BYTE PTR [edx+0x23280811],ah
  4048d2:	add    BYTE PTR [eax],al
  4048d4:	or     cl,BYTE PTR [eax]
  4048d6:	pop    ss
  4048d7:	sbb    BYTE PTR [ebx-0x25],dh
  4048da:	add    BYTE PTR [eax],al
  4048dc:	or     dl,BYTE PTR [ebx]
  4048de:	add    al,0x2
  4048e0:	adc    DWORD PTR [eax+ebp*1],eax
  4048e3:	xchg   edx,eax
  4048e4:	add    BYTE PTR [eax],al
  4048e6:	push   es
  4048e7:	or     al,BYTE PTR [esi]
  4048e9:	adc    eax,DWORD PTR [esi]
  4048eb:	fisub  WORD PTR [ebx+edx*1]
  4048ee:	add    eax,0x35cc72
  4048f3:	jo     0x40490c
  4048f5:	lea    eax,[ecx]
  4048f7:	add    BYTE PTR [eax],al
  4048f9:	add    DWORD PTR [ebx],edx
  4048fb:	or     DWORD PTR [ecx],edx
  4048fd:	or     DWORD PTR [esi],edx
  4048ff:	adc    DWORD PTR ds:0x316f,eax
  404905:	or     ah,BYTE PTR [edx+0x28280911]
  40490b:	add    BYTE PTR [eax],al
  40490d:	or     dl,BYTE PTR [ecx]
  40490f:	add    eax,0x2a06117a
  404914:	add    DWORD PTR [eax],edx
  404916:	add    BYTE PTR [eax],al
  404918:	add    BYTE PTR [eax],al
  40491a:	add    BYTE PTR [eax],al
  40491c:	test   eax,0x632400a9
  404921:	add    BYTE PTR [eax],al
  404923:	add    DWORD PTR [ebx],edx
  404925:	xor    BYTE PTR [eax+eax*1],al
  404928:	cmp    eax,0x2b000000
  40492d:	add    BYTE PTR [eax],al
  40492f:	adc    DWORD PTR [edx],eax
  404931:	add    ebp,DWORD PTR [eax]
  404933:	xchg   ecx,eax
  404934:	add    BYTE PTR [eax],al
  404936:	push   es
  404937:	or     al,BYTE PTR [esi]
  404939:	sub    al,0x31
  40493b:	jb     0x40496f
  40493d:	add    BYTE PTR ss:[eax+0x18],dh
  404941:	lea    eax,[ecx]
  404943:	add    BYTE PTR [eax],al
  404945:	add    DWORD PTR [ebx],ecx
  404947:	pop    es
  404948:	push   ss
  404949:	add    ecx,DWORD PTR [edx+eax*4-0x5dff0000]
  404950:	pop    es
  404951:	pop    ss
  404952:	add    al,0x8e
  404954:	imul   ecx,DWORD PTR [ecx+edx*2-0x5dff0000],0x232807
  40495f:	add    BYTE PTR [edx],cl
  404961:	push   es
  404962:	add    al,0x16
  404964:	add    al,0x8e
  404966:	imul   ebp,DWORD PTR [edi-0x24],0x2a0a0000
  40496d:	add    BYTE PTR [eax],al
  40496f:	add    BYTE PTR [ebx],dl
  404971:	xor    BYTE PTR [eax+eax*1],al
  404974:	xor    al,0x0
  404976:	add    BYTE PTR [eax],al
  404978:	sub    eax,DWORD PTR [eax]
  40497a:	add    BYTE PTR [ecx],dl
  40497c:	add    al,BYTE PTR [ebx]
  40497e:	sub    BYTE PTR [ecx+0xa060000],dl
  404984:	push   es
  404985:	sub    al,0x28
  404987:	jb     0x40495a
  404989:	add    BYTE PTR ss:[eax+0x17],dh
  40498d:	lea    eax,[ecx]
  40498f:	add    BYTE PTR [eax],al
  404991:	add    DWORD PTR [ebx],ecx
  404993:	pop    es
  404994:	push   ss
  404995:	add    ecx,DWORD PTR [edx+eax*4-0x5dff0000]
  40499c:	pop    es
  40499d:	sub    BYTE PTR [ebx],ah
  40499f:	add    BYTE PTR [eax],al
  4049a1:	or     al,BYTE PTR [esi]
  4049a3:	outs   dx,DWORD PTR ds:[esi]
  4049a4:	fld    QWORD PTR [eax]
  4049a6:	add    BYTE PTR [edx],cl
  4049a8:	add    al,BYTE PTR [ebx]
  4049aa:	sub    BYTE PTR [ebx+0x2a060000],dl
  4049b0:	adc    esi,DWORD PTR [eax]
  4049b2:	add    al,0x0
  4049b4:	cmp    eax,DWORD PTR [eax]
  4049b6:	add    BYTE PTR [eax],al
  4049b8:	or     al,BYTE PTR [eax]
  4049ba:	add    BYTE PTR [ecx],dl
  4049bc:	add    ch,BYTE PTR [eax]
  4049be:	xchg   esp,eax
  4049bf:	add    BYTE PTR [eax],al
  4049c1:	push   es
  4049c2:	jb     0x4049e7
  4049c4:	aaa    
  4049c5:	add    BYTE PTR [eax+0x17],dh
  4049c8:	lea    eax,[ecx]
  4049ca:	add    BYTE PTR [eax],al
  4049cc:	add    DWORD PTR [edx],ecx
  4049ce:	push   es
  4049cf:	push   ss
  4049d0:	add    bh,BYTE PTR [ebx+0x4d]
  4049d3:	add    BYTE PTR [eax],al
  4049d5:	add    al,0xa2
  4049d7:	push   es
  4049d8:	sub    BYTE PTR [ebx],ah
  4049da:	add    BYTE PTR [eax],al
  4049dc:	or     al,BYTE PTR [edx]
  4049de:	jnp    0x404a2d
  4049e0:	add    BYTE PTR [eax],al
  4049e2:	add    al,0x28
  4049e4:	xlat   BYTE PTR ds:[ebx]
  4049e5:	add    BYTE PTR [eax],al
  4049e7:	or     ch,BYTE PTR [esp+ecx*1]
  4049ea:	add    bh,BYTE PTR [ebx+0x4d]
  4049ed:	add    BYTE PTR [eax],al
  4049ef:	add    al,0x17
  4049f1:	sub    dh,bl
  4049f3:	add    BYTE PTR [eax],al
  4049f5:	or     ch,BYTE PTR [edx]
  4049f7:	add    BYTE PTR [ebx],dl
  4049f9:	xor    BYTE PTR [eax+eax*1],al
  4049fc:	pop    edi
  4049fd:	add    BYTE PTR [eax],al
  4049ff:	add    BYTE PTR [eax+eax*1],ch
  404a02:	add    BYTE PTR [ecx],dl
  404a04:	add    bh,BYTE PTR [ebx+0x4d]
  404a07:	add    BYTE PTR [eax],al
  404a09:	add    al,0x28
  404a0b:	fild   WORD PTR [eax]
  404a0d:	add    BYTE PTR [edx],cl
  404a0f:	or     al,BYTE PTR [edx]
  404a11:	jnp    0x404a60
  404a13:	add    BYTE PTR [eax],al
  404a15:	add    al,0x2
  404a17:	jnp    0x404a64
  404a19:	add    BYTE PTR [eax],al
  404a1b:	add    al,0x28
  404a1d:	sub    eax,0xb0a0000
  404a22:	push   es
  404a23:	sub    al,ah
  404a25:	add    BYTE PTR [eax],al
  404a27:	or     ch,BYTE PTR [eax]
  404a29:	loope  0x404a2b
  404a2b:	add    BYTE PTR [edx],cl
  404a2d:	or     dh,BYTE PTR [edx+0x63]
  404a30:	aaa    
  404a31:	add    BYTE PTR [eax+0x17],dh
  404a34:	lea    eax,[ecx]
  404a36:	add    BYTE PTR [eax],al
  404a38:	add    DWORD PTR [eax+ecx*1],ecx
  404a3b:	push   ss
  404a3c:	pop    es
  404a3d:	mov    ds:0x232808,al
  404a42:	add    BYTE PTR [edx],cl
  404a44:	pop    es
  404a45:	push   es
  404a46:	sub    BYTE PTR [ecx+0x26060000],bl
  404a4c:	jb     0x4049f7
  404a4e:	aaa    
  404a4f:	add    BYTE PTR [eax+0x17],dh
  404a52:	lea    eax,[ecx]
  404a54:	add    BYTE PTR [eax],al
  404a56:	add    DWORD PTR ds:0xa2071609,ecx
  404a5c:	or     DWORD PTR [eax],ebp
  404a5e:	and    eax,DWORD PTR [eax]
  404a60:	add    BYTE PTR [edx],cl
  404a62:	sub    al,BYTE PTR [eax]
  404a64:	sbb    esi,DWORD PTR [eax]
  404a66:	add    al,0x0
  404a68:	xor    DWORD PTR [ecx],eax
  404a6a:	add    BYTE PTR [eax],al
  404a6c:	sub    eax,0x2110000
  404a71:	jnp    0x404ac5
  404a73:	add    BYTE PTR [eax],al
  404a75:	add    al,0x2d
  404a77:	cmp    BYTE PTR [edx+0x1],dh
  404a7a:	cmp    BYTE PTR [eax],al
  404a7c:	jo     0x404a97
  404a7e:	lea    eax,[ecx]
  404a80:	add    BYTE PTR [eax],al
  404a82:	add    DWORD PTR [ebx],ecx
  404a84:	pop    es
  404a85:	push   ss
  404a86:	add    ebp,DWORD PTR [edi-0x1e]
  404a89:	add    BYTE PTR [eax],al
  404a8b:	or     cl,BYTE PTR [edx+eax*4-0x5dff0000]
  404a92:	pop    es
  404a93:	pop    ss
  404a94:	add    ebp,DWORD PTR [edi-0x1d]
  404a97:	add    BYTE PTR [eax],al
  404a99:	or     cl,BYTE PTR [edx+esi*4-0x5dff0000]
  404aa0:	pop    es
  404aa1:	sbb    BYTE PTR [ebx],al
  404aa3:	outs   dx,DWORD PTR ds:[esi]
  404aa4:	in     al,0x0
  404aa6:	add    BYTE PTR [edx],cl
  404aa8:	mov    ds:0x242807,al
  404aad:	add    BYTE PTR [edx],cl
  404aaf:	sub    al,BYTE PTR [edx]
  404ab1:	jnp    0x404b05
  404ab3:	add    BYTE PTR [eax],al
  404ab5:	add    al,0x74
  404ab7:	stos   BYTE PTR es:[edi],al
  404ab8:	add    BYTE PTR [eax],al
  404aba:	add    DWORD PTR [edi-0x37],ebp
  404abd:	add    BYTE PTR [eax],al
  404abf:	or     bl,BYTE PTR [ebx]
  404ac1:	cs je  0x404ac6
  404ac4:	jnp    0x404b18
  404ac6:	add    BYTE PTR [eax],al
  404ac8:	add    al,0x74
  404aca:	stos   BYTE PTR es:[edi],al
  404acb:	add    BYTE PTR [eax],al
  404acd:	add    DWORD PTR [edi-0x37],ebp
  404ad0:	add    BYTE PTR [eax],al
  404ad2:	or     bl,BYTE PTR [edx]
  404ad4:	cs popa 
  404ad6:	jb     0x404a90
  404ad8:	cmp    BYTE PTR [eax],al
  404ada:	jo     0x404af5
  404adc:	lea    eax,[ecx]
  404ade:	add    BYTE PTR [eax],al
  404ae0:	add    DWORD PTR [eax+ecx*1],ecx
  404ae3:	push   ss
  404ae4:	add    ebp,DWORD PTR [edi-0x1e]
  404ae7:	add    BYTE PTR [eax],al
  404ae9:	or     cl,BYTE PTR [edx+eax*4-0x5dff0000]
  404af0:	or     BYTE PTR [edi],dl
  404af2:	add    ebp,DWORD PTR [edi-0x1d]
  404af5:	add    BYTE PTR [eax],al
  404af7:	or     cl,BYTE PTR [edx+esi*4-0x5dff0000]
  404afe:	or     BYTE PTR [eax],bl
  404b00:	add    ebp,DWORD PTR [edi-0x1c]
  404b03:	add    BYTE PTR [eax],al
  404b05:	or     ah,BYTE PTR [edx+0x232808]
  404b0b:	add    BYTE PTR [edx],cl
  404b0d:	add    bh,BYTE PTR [ebx+0x52]
  404b10:	add    BYTE PTR [eax],al
  404b12:	add    al,0x3
  404b14:	outs   dx,DWORD PTR ds:[esi]
  404b15:	in     eax,0x0
  404b17:	add    BYTE PTR [edx],cl
  404b19:	fld    QWORD PTR [edx+0xa000000]
  404b1f:	jb     0x404b80
  404b21:	cmp    DWORD PTR [eax],eax
  404b23:	jo     0x404b3c
  404b25:	lea    eax,[ecx]
  404b27:	add    BYTE PTR [eax],al
  404b29:	add    DWORD PTR ds:0xa2061609,ecx
  404b2f:	or     DWORD PTR [eax],ebp
  404b31:	and    al,0x0
  404b33:	add    BYTE PTR [edx],cl
  404b35:	fisubr WORD PTR [ecx+0x72]
  404b38:	cmp    bh,BYTE PTR [edx]
  404b3a:	add    BYTE PTR [eax+0x17],dh
  404b3d:	lea    eax,[ecx]
  404b3f:	add    BYTE PTR [eax],al
  404b41:	add    DWORD PTR [ebx],edx
  404b43:	add    al,0x11
  404b45:	add    al,0x16
  404b47:	add    bh,BYTE PTR [ebx+0x52]
  404b4a:	add    BYTE PTR [eax],al
  404b4c:	add    al,0x74
  404b4e:	stos   BYTE PTR es:[edi],al
  404b4f:	add    BYTE PTR [eax],al
  404b51:	add    DWORD PTR [edi-0x37],ebp
  404b54:	add    BYTE PTR [eax],al
  404b56:	or     cl,BYTE PTR [ecx+edx*4-0x5dff0000]
  404b5d:	adc    DWORD PTR [eax+ebp*1],eax
  404b60:	and    eax,DWORD PTR [eax]
  404b62:	add    BYTE PTR [edx],cl
  404b64:	jb     0x404afc
  404b66:	cmp    al,BYTE PTR [eax]
  404b68:	jo     0x404b83
  404b6a:	lea    eax,[ecx]
  404b6c:	add    BYTE PTR [eax],al
  404b6e:	add    DWORD PTR [ebx],edx
  404b70:	add    eax,0x3160511
  404b75:	outs   dx,DWORD PTR ds:[esi]
  404b76:	loop   0x404b78
  404b78:	add    BYTE PTR [edx],cl
  404b7a:	mov    WORD PTR [edx-0x5dff0000],es
  404b80:	adc    DWORD PTR ds:0xe36f0317,eax
  404b86:	add    BYTE PTR [eax],al
  404b88:	or     cl,BYTE PTR [edx+esi*4-0x5dff0000]
  404b8f:	adc    DWORD PTR ds:0xe46f0318,eax
  404b95:	add    BYTE PTR [eax],al
  404b97:	or     ah,BYTE PTR [edx+0x24280511]
  404b9d:	add    BYTE PTR [eax],al
  404b9f:	or     ch,BYTE PTR [edx]
  404ba1:	add    BYTE PTR [eax],al
  404ba3:	add    BYTE PTR [ecx],al
  404ba5:	adc    BYTE PTR [eax],al
  404ba7:	add    BYTE PTR [eax],al
  404ba9:	add    BYTE PTR [ebp+0xae1100],bl
  404baf:	sbb    DWORD PTR [ebx+0x0],esp
  404bb2:	add    BYTE PTR [ecx],al
  404bb4:	sbb    esi,DWORD PTR [eax]
  404bb6:	add    al,0x0
  404bb8:	sahf   
  404bb9:	add    BYTE PTR [eax],al
  404bbb:	add    BYTE PTR [esi],ch
  404bbd:	add    BYTE PTR [eax],al
  404bbf:	adc    DWORD PTR [edx-0x5d],esi
  404bc2:	cmp    eax,DWORD PTR [eax]
  404bc4:	jo     0x404bdd
  404bc6:	lea    eax,[ecx]
  404bc8:	add    BYTE PTR [eax],al
  404bca:	add    DWORD PTR [ebx],edx
  404bcc:	add    eax,0x3160511
  404bd1:	mov    ds:0x23280511,al
  404bd6:	add    BYTE PTR [eax],al
  404bd8:	or     dl,BYTE PTR [edx+ecx*1]
  404bdb:	add    ebp,DWORD PTR [eax]
  404bdd:	stos   DWORD PTR es:[edi],eax
  404bde:	add    BYTE PTR [eax],al
  404be0:	or     ch,BYTE PTR [edx*1+0x3c2a72]
  404be7:	jo     0x404c11
  404be9:	jns    0x404beb
  404beb:	add    BYTE PTR [edx],cl
  404bed:	jb     0x404bae
  404bef:	cmp    al,0x0
  404bf1:	jo     0x404c66
  404bf3:	out    0x0,al
  404bf5:	add    BYTE PTR [edx],cl
  404bf7:	jp     0x404bfb
  404bf9:	sub    BYTE PTR [eax+0x3060000],dl
  404bff:	sub    BYTE PTR ds:0xb0a0000,ch
  404c05:	sbb    al,0x18
  404c07:	jae    0x404bf0
  404c09:	add    BYTE PTR [eax],al
  404c0b:	or     cl,BYTE PTR [edx]
  404c0d:	push   es
  404c0e:	push   ss
  404c0f:	outs   dx,DWORD PTR ds:[esi]
  404c10:	call   0x74a4c15
  404c15:	jae    0x404c00
  404c17:	add    BYTE PTR [eax],al
  404c19:	or     cl,BYTE PTR [esi+eax*1]
  404c1c:	outs   dx,DWORD PTR ds:[esi]
  404c1d:	jmp    0x8728:0x80a0000
  404c24:	add    BYTE PTR [eax],al
  404c26:	push   es
  404c27:	adc    eax,DWORD PTR [esi+ebx*8]
  404c2a:	xor    BYTE PTR ds:0x3ce772,cl
  404c30:	jo     0x404c49
  404c32:	lea    eax,[ecx]
  404c34:	add    BYTE PTR [eax],al
  404c36:	add    DWORD PTR [ebx],edx
  404c38:	push   es
  404c39:	adc    DWORD PTR [esi],eax
  404c3b:	push   ss
  404c3c:	or     DWORD PTR [edx+0x24280611],esp
  404c42:	add    BYTE PTR [eax],al
  404c44:	or     bh,dh
  404c46:	sbb    al,BYTE PTR [esi]
  404c48:	sub    al,0x10
  404c4a:	jb     0x404c91
  404c4c:	cmp    eax,0x5a287000
  404c51:	add    BYTE PTR [eax],al
  404c53:	or     al,BYTE PTR [esi]
  404c55:	outs   dx,DWORD PTR ds:[esi]
  404c56:	jmp    0x404c58
  404c58:	add    BYTE PTR [edx],cl
  404c5a:	fcom   QWORD PTR [ecx]
  404c5c:	add    al,0x2a
  404c5e:	add    BYTE PTR [eax],al
  404c60:	add    DWORD PTR [eax+eax*1],ebx
  404c63:	add    BYTE PTR [eax],al
  404c65:	add    BYTE PTR [eax],bh
  404c67:	add    BYTE PTR [ebx],dh
  404c69:	imul   eax,DWORD PTR [eax],0x1c
  404c6c:	mov    eax,0x2010000
  404c71:	add    BYTE PTR [eax],bh
  404c73:	add    BYTE PTR [edi-0x79],cl
  404c76:	add    BYTE PTR [eax+eax*1],dl
  404c79:	add    BYTE PTR [eax],al
  404c7b:	add    BYTE PTR [ebx],dl
  404c7d:	xor    BYTE PTR ds:0x4700,al
  404c83:	add    BYTE PTR [edi],ch
  404c85:	add    BYTE PTR [eax],al
  404c87:	adc    DWORD PTR [edx],eax
  404c89:	inc    BYTE PTR [esi]
  404c8b:	mov    BYTE PTR [eax],al
  404c8d:	add    BYTE PTR [esi],al
  404c8f:	jae    0x404cb9
  404c91:	add    BYTE PTR [eax],al
  404c93:	push   es
  404c94:	or     al,BYTE PTR [edx]
  404c96:	inc    BYTE PTR [esi]
  404c98:	mov    DWORD PTR [eax],eax
  404c9a:	add    BYTE PTR [esi],al
  404c9c:	jae    0x404c8a
  404c9e:	add    BYTE PTR [eax],al
  404ca0:	or     cl,BYTE PTR [ebx]
  404ca2:	add    bh,dh
  404ca4:	push   es
  404ca5:	mov    al,BYTE PTR [eax]
  404ca7:	add    BYTE PTR [esi],al
  404ca9:	jae    0x404cd7
  404cab:	add    BYTE PTR [eax],al
  404cad:	push   es
  404cae:	or     al,0x2
  404cb0:	sub    BYTE PTR [eax+0x3060000],dl
  404cb6:	sub    BYTE PTR ds:0xd0a0000,ch
  404cbc:	sub    BYTE PTR [ebp+0x0],cl
  404cbf:	add    BYTE PTR [esi],al
  404cc1:	or     DWORD PTR [esi],eax
  404cc3:	pop    es
  404cc4:	or     BYTE PTR [edi+0x4e],ch
  404cc7:	add    BYTE PTR [eax],al
  404cc9:	push   es
  404cca:	adc    eax,DWORD PTR [ecx+edx*1]
  404ccd:	add    al,0x2a
  404ccf:	add    BYTE PTR [ebx],dl
  404cd1:	xor    BYTE PTR [edx],al
  404cd3:	add    BYTE PTR [ecx],ch
  404cd5:	add    BYTE PTR [eax],al
  404cd7:	add    BYTE PTR [eax],dh
  404cd9:	add    BYTE PTR [eax],al
  404cdb:	adc    DWORD PTR [edx],eax
  404cdd:	outs   dx,DWORD PTR ds:[esi]
  404cde:	in     eax,dx
  404cdf:	add    BYTE PTR [eax],al
  404ce1:	or     cl,BYTE PTR [ebx+ebp*1]
  404ce4:	adc    al,0x8
  404ce6:	outs   dx,DWORD PTR ds:[esi]
  404ce7:	out    dx,al
  404ce8:	add    BYTE PTR [eax],al
  404cea:	or     cl,BYTE PTR [edx]
  404cec:	push   es
  404ced:	add    ebp,DWORD PTR [edi-0x11]
  404cf0:	add    BYTE PTR [eax],al
  404cf2:	or     ch,BYTE PTR [esp+eax*1]
  404cf5:	pop    ss
  404cf6:	or     ebx,esi
  404cf8:	or     cl,BYTE PTR [eax]
  404cfa:	outs   dx,DWORD PTR ds:[esi]
  404cfb:	lock add BYTE PTR [eax],al
  404cfe:	or     ch,BYTE PTR ds:0x72a16e4
  404d04:	sub    al,BYTE PTR [eax]
  404d06:	add    BYTE PTR [eax],al
  404d08:	sbb    esi,DWORD PTR [eax]
  404d0a:	push   es
  404d0b:	add    ch,cl
  404d0d:	add    al,BYTE PTR [eax]
  404d0f:	add    BYTE PTR [ecx],dh
  404d11:	add    BYTE PTR [eax],al
  404d13:	adc    DWORD PTR [esi+edi*2],eax
  404d16:	icebp  
  404d17:	add    BYTE PTR [eax],al
  404d19:	or     dl,BYTE PTR [ecx+0x2]
  404d1c:	adc    al,0x7d
  404d1e:	push   esp
  404d1f:	add    BYTE PTR [eax],al
  404d21:	add    al,0x72
  404d23:	xchg   ebx,eax
  404d24:	cmp    eax,0x8d177000
  404d29:	add    DWORD PTR [eax],eax
  404d2b:	add    BYTE PTR [ecx],al
  404d2d:	adc    ecx,DWORD PTR [ecx]
  404d2f:	adc    DWORD PTR [ecx],ecx
  404d31:	push   ss
  404d32:	add    esp,DWORD PTR [edx+0x23280911]
  404d38:	add    BYTE PTR [eax],al
  404d3a:	or     ch,BYTE PTR [eax]
  404d3c:	repnz add BYTE PTR [eax],al
  404d3f:	or     ch,BYTE PTR [edi-0xd]
  404d42:	add    BYTE PTR [eax],al
  404d44:	or     ch,BYTE PTR [eax]
  404d46:	aaa    
  404d47:	add    BYTE PTR [eax],al
  404d49:	or     cl,BYTE PTR [edx]
  404d4b:	push   es
  404d4c:	jb     0x404d43
  404d4e:	cmp    eax,0x2d287000
  404d53:	add    BYTE PTR [eax],al
  404d55:	or     cl,BYTE PTR [ebx]
  404d57:	pop    es
  404d58:	sub    ah,dh
  404d5a:	add    BYTE PTR [eax],al
  404d5c:	or     ch,BYTE PTR ds:0x3e197219
  404d62:	add    BYTE PTR [eax+0x28],dh
  404d65:	pop    edx
  404d66:	add    BYTE PTR [eax],al
  404d68:	or     al,BYTE PTR [eax+ebp*1]
  404d6b:	mov    bl,0x0
  404d6d:	add    BYTE PTR [esi],al
  404d6f:	push   ecx
  404d70:	pop    ss
  404d71:	adc    ecx,DWORD PTR [eax]
  404d73:	frstor [esi+0x2]
  404d76:	add    BYTE PTR [eax],al
  404d78:	add    ebp,DWORD PTR [eax]
  404d7a:	hlt    
  404d7b:	add    BYTE PTR [eax],al
  404d7d:	or     ch,BYTE PTR ds:0x5b284b
  404d83:	add    BYTE PTR [edx],cl
  404d85:	jb     0x404df2
  404d87:	add    BYTE PTR ds:[eax+0x17],dh
  404d8b:	lea    eax,[ecx]
  404d8d:	add    BYTE PTR [eax],al
  404d8f:	add    DWORD PTR [ebx],edx
  404d91:	or     dl,BYTE PTR [ecx]
  404d93:	or     dl,BYTE PTR [esi]
  404d95:	add    esp,DWORD PTR [edx+0x5d280a11]
  404d9b:	add    BYTE PTR [eax],al
  404d9d:	or     ch,BYTE PTR [eax]
  404d9f:	pop    edx
  404da0:	add    BYTE PTR [eax],al
  404da2:	or     al,BYTE PTR [eax+ebp*1]
  404da5:	pop    ebx
  404da6:	add    BYTE PTR [eax],al
  404da8:	or     ch,BYTE PTR [eax]
  404daa:	mov    bh,0x0
  404dac:	add    BYTE PTR [esi],al
  404dae:	pop    ss
  404daf:	lea    eax,[ecx]
  404db1:	add    BYTE PTR [eax],al
  404db3:	add    DWORD PTR [ebx],edx
  404db5:	or     edx,DWORD PTR [ecx]
  404db7:	or     edx,DWORD PTR [esi]
  404db9:	add    esp,DWORD PTR [edx+0x5d280b11]
  404dbf:	add    BYTE PTR [eax],al
  404dc1:	or     dl,BYTE PTR [ecx+0x17]
  404dc4:	adc    ecx,DWORD PTR [eax]
  404dc6:	fst    QWORD PTR [ebx]
  404dc8:	add    al,BYTE PTR [eax]
  404dca:	add    BYTE PTR [edx],al
  404dcc:	add    ebp,DWORD PTR [eax]
  404dce:	test   DWORD PTR [eax],eax
  404dd0:	add    BYTE PTR [esi],al
  404dd2:	sub    al,0x50
  404dd4:	sub    BYTE PTR [ebx+0x0],bl
  404dd7:	add    BYTE PTR [edx],cl
  404dd9:	jb     0x404d78
  404ddb:	add    BYTE PTR ds:[eax+0x17],dh
  404ddf:	lea    eax,[ecx]
  404de1:	add    BYTE PTR [eax],al
  404de3:	add    DWORD PTR [ebx],edx
  404de5:	or     al,0x11
  404de7:	or     al,0x16
  404de9:	add    esp,DWORD PTR [edx+0x5d280c11]
  404def:	add    BYTE PTR [eax],al
  404df1:	or     ch,BYTE PTR [eax]
  404df3:	pop    edx
  404df4:	add    BYTE PTR [eax],al
  404df6:	or     al,BYTE PTR [eax+ebp*1]
  404df9:	pop    ebx
  404dfa:	add    BYTE PTR [eax],al
  404dfc:	or     ch,BYTE PTR [eax]
  404dfe:	mov    dh,0x0
  404e00:	add    BYTE PTR [esi],al
  404e02:	pop    ss
  404e03:	lea    eax,[ecx]
  404e05:	add    BYTE PTR [eax],al
  404e07:	add    DWORD PTR [ebx],edx
  404e09:	or     eax,0x3160d11
  404e0e:	sub    bl,dl
  404e10:	add    BYTE PTR [eax],al
  404e12:	or     ah,BYTE PTR [edx+0x5d280d11]
  404e18:	add    BYTE PTR [eax],al
  404e1a:	or     dl,BYTE PTR [ecx+0x16]
  404e1d:	adc    ecx,DWORD PTR [eax]
  404e1f:	fnstsw WORD PTR [edx+0x73000001]
  404e25:	cmc    
  404e26:	add    BYTE PTR [eax],al
  404e28:	or     cl,BYTE PTR [eax+ecx*1]
  404e2b:	outs   dx,DWORD PTR ds:[esi]
  404e2c:	test   BYTE PTR [eax],0x0
  404e2f:	or     al,BYTE PTR [edi]
  404e31:	outs   dx,DWORD PTR ds:[esi]
  404e32:	test   DWORD PTR [eax],0x6f080a00
  404e38:	test   BYTE PTR [eax],0x0
  404e3b:	or     al,BYTE PTR [ebx]
  404e3d:	outs   dx,DWORD PTR ds:[esi]
  404e3e:	clc    
  404e3f:	add    BYTE PTR [eax],al
  404e41:	or     cl,BYTE PTR [eax]
  404e43:	outs   dx,DWORD PTR ds:[esi]
  404e44:	test   BYTE PTR [eax],0x0
  404e47:	or     dl,BYTE PTR [edi]
  404e49:	outs   dx,DWORD PTR ds:[esi]
  404e4a:	stc    
  404e4b:	add    BYTE PTR [eax],al
  404e4d:	or     cl,BYTE PTR [eax]
  404e4f:	outs   dx,DWORD PTR ds:[esi]
  404e50:	cli    
  404e51:	add    BYTE PTR [eax],al
  404e53:	or     ah,BYTE PTR [esi]
  404e55:	add    cl,BYTE PTR [eax]
  404e57:	jge    0x404ead
  404e59:	add    BYTE PTR [eax],al
  404e5b:	add    al,0x72
  404e5d:	cmc    
  404e5e:	add    BYTE PTR ds:[eax+0x17],dh
  404e62:	lea    eax,[ecx]
  404e64:	add    BYTE PTR [eax],al
  404e66:	add    DWORD PTR [ebx],edx
  404e68:	push   cs
  404e69:	adc    DWORD PTR [esi],ecx
  404e6b:	push   ss
  404e6c:	add    bh,BYTE PTR [ebx+0x54]
  404e6f:	add    BYTE PTR [eax],al
  404e71:	add    al,0x6f
  404e73:	add    BYTE PTR es:[eax],al
  404e76:	or     cl,BYTE PTR [ecx+edx*2-0x5dff0000]
  404e7d:	adc    DWORD PTR [esi],ecx
  404e7f:	sub    BYTE PTR [ebx],ah
  404e81:	add    BYTE PTR [eax],al
  404e83:	or     al,BYTE PTR [edx]
  404e85:	jnp    0x404edb
  404e87:	add    BYTE PTR [eax],al
  404e89:	add    al,0x6f
  404e8b:	sti    
  404e8c:	add    BYTE PTR [eax],al
  404e8e:	or     al,BYTE PTR [edx]
  404e90:	jnp    0x404ee6
  404e92:	add    BYTE PTR [eax],al
  404e94:	add    al,0x6f
  404e96:	cld    
  404e97:	add    BYTE PTR [eax],al
  404e99:	or     cl,BYTE PTR ds:0x3f6172
  404e9f:	jo     0x404eb8
  404ea1:	lea    eax,[ecx]
  404ea3:	add    BYTE PTR [eax],al
  404ea5:	add    DWORD PTR [ebx],edx
  404ea7:	movups XMMWORD PTR [edi],xmm1
  404eaa:	push   ss
  404eab:	or     DWORD PTR [ecx+edx*2-0x5dff0000],ecx
  404eb2:	adc    DWORD PTR [edi],ecx
  404eb4:	sub    BYTE PTR [ebx],ah
  404eb6:	add    BYTE PTR [eax],al
  404eb8:	or     cl,BYTE PTR [ecx]
  404eba:	cmp    edi,ebp
  404ebc:	add    BYTE PTR [eax],al
  404ebe:	add    BYTE PTR [eax],ch
  404ec0:	aam    0x0
  404ec2:	add    BYTE PTR [edx],cl
  404ec4:	sub    BYTE PTR [ebx+0x0],bl
  404ec7:	add    BYTE PTR [edx],cl
  404ec9:	jb     0x404e9e
  404ecb:	aas    
  404ecc:	add    BYTE PTR [eax+0x17],dh
  404ecf:	lea    eax,[ecx]
  404ed1:	add    BYTE PTR [eax],al
  404ed3:	add    DWORD PTR [ebx],edx
  404ed5:	adc    BYTE PTR [ecx],dl
  404ed7:	adc    BYTE PTR [esi],dl
  404ed9:	add    bh,BYTE PTR [ebx+0x54]
  404edc:	add    BYTE PTR [eax],al
  404ede:	add    al,0x6f
  404ee0:	add    BYTE PTR es:[eax],al
  404ee3:	or     cl,BYTE PTR [ecx+edx*2-0x5dff0000]
  404eea:	adc    DWORD PTR [eax],edx
  404eec:	sub    BYTE PTR [ebp+0x0],bl
  404eef:	add    BYTE PTR [edx],cl
  404ef1:	sub    BYTE PTR ds:0x130a0000,ch
  404ef7:	add    al,0x72
  404ef9:	(bad)  
  404efa:	aas    
  404efb:	add    BYTE PTR [eax+0x17],dh
  404efe:	lea    eax,[ecx]
  404f00:	add    BYTE PTR [eax],al
  404f02:	add    DWORD PTR [ebx],edx
  404f04:	adc    DWORD PTR [ecx],edx
  404f06:	adc    DWORD PTR [esi],edx
  404f08:	adc    DWORD PTR [edx+eiz*4],eax
  404f0b:	adc    DWORD PTR [ecx],edx
  404f0d:	sub    BYTE PTR [ebx],ah
  404f0f:	add    BYTE PTR [eax],al
  404f11:	or     dl,BYTE PTR [ecx]
  404f13:	add    al,0x28
  404f15:	hlt    
  404f16:	add    BYTE PTR [eax],al
  404f18:	or     ch,BYTE PTR ds:0x4043721c
  404f1e:	add    BYTE PTR [eax+0x17],dh
  404f21:	lea    eax,[ecx]
  404f23:	add    BYTE PTR [eax],al
  404f25:	add    DWORD PTR [ebx],edx
  404f27:	adc    dl,BYTE PTR [ecx]
  404f29:	adc    dl,BYTE PTR [esi]
  404f2b:	adc    DWORD PTR [edx+eiz*4],eax
  404f2e:	adc    DWORD PTR [edx],edx
  404f30:	sub    BYTE PTR [ebx],ah
  404f32:	add    BYTE PTR [eax],al
  404f34:	or     ch,BYTE PTR [ebx]
  404f36:	pop    ebx
  404f37:	adc    DWORD PTR [ebx+esi*2],eax
  404f3a:	std    
  404f3b:	add    BYTE PTR [eax],al
  404f3d:	or     dl,BYTE PTR [ebx]
  404f3f:	add    eax,0x6f051104
  404f44:	inc    BYTE PTR [eax]
  404f46:	add    BYTE PTR [edx],cl
  404f48:	push   ecx
  404f49:	jb     0x404ee0
  404f4b:	inc    eax
  404f4c:	add    BYTE PTR [eax+0x17],dh
  404f4f:	lea    eax,[ecx]
  404f51:	add    BYTE PTR [eax],al
  404f53:	add    DWORD PTR [ebx],edx
  404f55:	adc    edx,DWORD PTR [ecx]
  404f57:	adc    edx,DWORD PTR [esi]
  404f59:	add    al,0x50
  404f5b:	mov    ds:0x23281311,al
  404f60:	add    BYTE PTR [eax],al
  404f62:	or     bl,dh
  404f64:	or     al,0x11
  404f66:	add    eax,0x511072c
  404f6b:	outs   dx,DWORD PTR ds:[esi]
  404f6c:	add    DWORD PTR [eax],eax
  404f6e:	add    BYTE PTR [edx],cl
  404f70:	fdiv   QWORD PTR [edx+0xb]
  404f73:	inc    ecx
  404f74:	add    BYTE PTR [eax+0x17],dh
  404f77:	lea    eax,[ecx]
  404f79:	add    BYTE PTR [eax],al
  404f7b:	add    DWORD PTR [ebx],edx
  404f7d:	adc    al,0x11
  404f7f:	adc    al,0x16
  404f81:	adc    DWORD PTR [edx+eiz*4],eax
  404f84:	adc    DWORD PTR [eax+ebp*1],edx
  404f87:	and    eax,DWORD PTR [eax]
  404f89:	add    BYTE PTR [edx],cl
  404f8b:	adc    DWORD PTR [eax+ebp*1],eax
  404f8e:	inc    DWORD PTR [eax]
  404f90:	add    BYTE PTR [edx],cl
  404f92:	ficomp WORD PTR [edx]
  404f94:	adc    eax,DWORD PTR [esi]
  404f96:	jb     0x404fe1
  404f98:	inc    ecx
  404f99:	add    BYTE PTR [eax+0x11],dh
  404f9c:	push   es
  404f9d:	outs   dx,DWORD PTR ds:[esi]
  404f9e:	xor    DWORD PTR [eax],eax
  404fa0:	add    BYTE PTR [edx],cl
  404fa2:	sub    cl,al
  404fa4:	add    BYTE PTR [eax],al
  404fa6:	or     ch,BYTE PTR [eax]
  404fa8:	pop    edx
  404fa9:	add    BYTE PTR [eax],al
  404fab:	or     bl,dh
  404fad:	add    BYTE PTR [ecx],cl
  404faf:	adc    ecx,DWORD PTR [eax]
  404fb1:	fisubr WORD PTR [ebx]
  404fb3:	adc    eax,DWORD PTR [edi]
  404fb5:	add    al,0x11
  404fb7:	pop    es
  404fb8:	outs   dx,DWORD PTR ds:[esi]
  404fb9:	push   edi
  404fba:	add    BYTE PTR [eax],al
  404fbc:	or     dl,BYTE PTR [ecx+0x17]
  404fbf:	adc    ecx,DWORD PTR [eax]
  404fc1:	ficomp WORD PTR [ebx]
  404fc3:	add    bh,BYTE PTR [ebx+0x54]
  404fc6:	add    BYTE PTR [eax],al
  404fc8:	add    al,0x2c
  404fca:	adc    al,BYTE PTR [edx]
  404fcc:	jnp    0x405022
  404fce:	add    BYTE PTR [eax],al
  404fd0:	add    al,0x6f
  404fd2:	cmp    al,0x0
  404fd4:	add    BYTE PTR [edx],cl
  404fd6:	add    dl,BYTE PTR [edi*2+0x4000054]
  404fdd:	fcom   QWORD PTR [ecx]
  404fdf:	or     BYTE PTR [edx],ch
  404fe1:	add    BYTE PTR [eax],al
  404fe3:	add    BYTE PTR [ecx+0x64],al
  404fe6:	add    BYTE PTR [eax],al
  404fe8:	add    al,BYTE PTR [eax]
  404fea:	add    BYTE PTR [eax],al
  404fec:	sub    al,0x2
  404fee:	add    BYTE PTR [eax],al
  404ff0:	and    eax,0x51000000
  404ff5:	add    al,BYTE PTR [eax]
  404ff7:	add    BYTE PTR [eax+eax*1],cl
	...
  405002:	add    BYTE PTR [eax],al
  405004:	stos   DWORD PTR es:[edi],eax
  405005:	add    DWORD PTR [eax],eax
  405007:	add    ch,dl
  405009:	add    BYTE PTR [eax],al
  40500b:	add    BYTE PTR [eax+0x1a000002],al
  405011:	add    BYTE PTR [eax],al
  405013:	add    BYTE PTR [ebx+0x0],ah
  405016:	add    BYTE PTR [ecx],al
	...
  405020:	lahf   
  405021:	add    al,BYTE PTR [eax]
  405023:	add    BYTE PTR [edi+0x10000002],bl
  405029:	add    BYTE PTR [eax],al
  40502b:	add    BYTE PTR [ebx+0x0],ah
  40502e:	add    BYTE PTR [ecx],al
  405030:	add    al,BYTE PTR [eax]
  405032:	add    BYTE PTR [eax],al
  405034:	add    BYTE PTR [eax],al
  405036:	add    BYTE PTR [eax],al
  405038:	scas   eax,DWORD PTR es:[edi]
  405039:	add    al,BYTE PTR [eax]
  40503b:	add    BYTE PTR [edi+0x1b000002],ch
  405041:	add    BYTE PTR [eax],al
  405043:	add    BYTE PTR [eax],al
  405045:	add    BYTE PTR [eax],al
  405047:	add    BYTE PTR [ebx],dl
  405049:	xor    BYTE PTR [eax+eax*1],al
  40504c:	loopne 0x40504e
  40504e:	add    BYTE PTR [eax],al
  405050:	xor    al,BYTE PTR [eax]
  405052:	add    BYTE PTR [ecx],dl
  405054:	jb     0x405058
  405056:	inc    edx
  405057:	add    BYTE PTR [eax+0x28],dh
  40505a:	cmp    BYTE PTR [eax],al
  40505c:	add    BYTE PTR [edx],cl
  40505e:	add    esi,DWORD PTR [edi+edi*4+0x0]
  405062:	add    BYTE PTR [ecx],al
  405064:	or     al,BYTE PTR [esi]
  405066:	outs   dx,DWORD PTR ds:[esi]
  405067:	add    BYTE PTR [ecx],al
  405069:	add    BYTE PTR [edx],cl
  40506b:	je     0x405075
  40506d:	add    BYTE PTR [eax],al
  40506f:	add    cl,BYTE PTR [ebx]
  405071:	add    ebp,DWORD PTR [edi+0x1]
  405074:	add    DWORD PTR [eax],eax
  405076:	or     dh,BYTE PTR [esp+ecx*1+0x0]
  40507a:	add    BYTE PTR [edx],al
  40507c:	or     al,0x7e
  40507e:	icebp  
  40507f:	add    BYTE PTR [eax],al
  405081:	or     cl,BYTE PTR ds:0x3031207
  405087:	outs   dx,DWORD PTR ds:[esi]
  405088:	sub    eax,DWORD PTR [eax]
  40508a:	add    BYTE PTR [esi],al
  40508c:	adc    eax,DWORD PTR [edx+esi*2]
  40508f:	push   esp
  405090:	inc    edx
  405091:	add    BYTE PTR [eax+0x18],dh
  405094:	lea    eax,[ecx]
  405096:	add    BYTE PTR [eax],al
  405098:	add    DWORD PTR [ebx],edx
  40509a:	push   es
  40509b:	adc    DWORD PTR [esi],eax
  40509d:	push   ss
  40509e:	or     BYTE PTR [edi+0x25],ch
  4050a1:	add    BYTE PTR [eax],al
  4050a3:	push   es
  4050a4:	mov    WORD PTR [edx-0x5dff0000],es
  4050aa:	adc    DWORD PTR [esi],eax
  4050ac:	pop    ss
  4050ad:	adc    DWORD PTR [esp+ecx*4],eax
  4050b0:	push   ecx
  4050b1:	add    BYTE PTR [eax],al
  4050b3:	add    DWORD PTR [edx+0x23280611],esp
  4050b9:	add    BYTE PTR [eax],al
  4050bb:	or     dl,BYTE PTR [ecx]
  4050bd:	add    al,0x2d
  4050bf:	adc    DWORD PTR [eax],ecx
  4050c1:	outs   dx,DWORD PTR ds:[esi]
  4050c2:	and    eax,0x18060000
  4050c7:	or     DWORD PTR [ebx+0x2],esi
  4050ca:	add    DWORD PTR [eax],eax
  4050cc:	or     dl,BYTE PTR [ebx]
  4050ce:	add    eax,0x28091d2b
  4050d3:	stos   DWORD PTR es:[edi],eax
  4050d4:	add    BYTE PTR [eax],al
  4050d6:	or     ch,BYTE PTR [esi+eax*1]
  4050d9:	sub    BYTE PTR [ecx+0xd060000],bh
  4050df:	or     BYTE PTR [edi+0x25],ch
  4050e2:	add    BYTE PTR [eax],al
  4050e4:	push   es
  4050e5:	sbb    DWORD PTR [ecx],ecx
  4050e7:	jae    0x4050eb
  4050e9:	add    DWORD PTR [eax],eax
  4050eb:	or     dl,BYTE PTR [ebx]
  4050ed:	add    eax,0x28051102
  4050f2:	test   BYTE PTR [eax],al
  4050f4:	add    BYTE PTR [esi],al
  4050f6:	jb     0x4050c2
  4050f8:	inc    edx
  4050f9:	add    BYTE PTR [eax+0x17],dh
  4050fc:	lea    eax,[ecx]
  4050fe:	add    BYTE PTR [eax],al
  405100:	add    DWORD PTR [ebx],edx
  405102:	pop    es
  405103:	adc    DWORD PTR [edi],eax
  405105:	push   ss
  405106:	or     BYTE PTR [edi+0x25],ch
  405109:	add    BYTE PTR [eax],al
  40510b:	push   es
  40510c:	mov    WORD PTR [edx-0x5dff0000],es
  405112:	adc    DWORD PTR [edi],eax
  405114:	sub    BYTE PTR [ebx],ah
  405116:	add    BYTE PTR [eax],al
  405118:	or     ch,BYTE PTR [eax]
  40511a:	dec    ebp
  40511b:	add    BYTE PTR [eax],al
  40511d:	push   es
  40511e:	or     BYTE PTR [edi+0x25],ch
  405121:	add    BYTE PTR [eax],al
  405123:	push   es
  405124:	outs   dx,DWORD PTR ds:[esi]
  405125:	push   ebx
  405126:	add    BYTE PTR [eax],al
  405128:	push   es
  405129:	jb     0x405141
  40512b:	inc    ebx
  40512c:	add    BYTE PTR [eax+0x28],dh
  40512f:	cmp    BYTE PTR [eax],al
  405131:	add    BYTE PTR [edx],cl
  405133:	sub    dl,BYTE PTR [ebx]
  405135:	xor    BYTE PTR [eax+eax*1],al
  405138:	push   ebp
  405139:	add    BYTE PTR [eax],al
  40513b:	add    BYTE PTR [edx],cl
  40513d:	add    BYTE PTR [eax],al
  40513f:	adc    DWORD PTR [edx],eax
  405141:	jnp    0x405197
  405143:	add    BYTE PTR [eax],al
  405145:	add    al,0x2d
  405147:	adc    eax,0x436672
  40514c:	jo     0x405176
  40514e:	cmp    BYTE PTR [eax],al
  405150:	add    BYTE PTR [edx],cl
  405152:	sub    BYTE PTR [edi+0x73060000],ch
  405158:	mov    BYTE PTR [eax],0x0
  40515b:	or     bh,BYTE PTR [edx+0x72]
  40515e:	in     al,0x43
  405160:	add    BYTE PTR [eax+0x17],dh
  405163:	lea    eax,[ecx]
  405165:	add    BYTE PTR [eax],al
  405167:	add    DWORD PTR [edx],ecx
  405169:	push   es
  40516a:	push   ss
  40516b:	add    bh,BYTE PTR [ebx+0x54]
  40516e:	add    BYTE PTR [eax],al
  405170:	add    al,0x6f
  405172:	add    BYTE PTR es:[eax],al
  405175:	or     cl,BYTE PTR [ecx+edx*2-0x5dff0000]
  40517c:	push   es
  40517d:	sub    BYTE PTR [ebx],ah
  40517f:	add    BYTE PTR [eax],al
  405181:	or     al,BYTE PTR [edx]
  405183:	jnp    0x4051d9
  405185:	add    BYTE PTR [eax],al
  405187:	add    al,0x6f
  405189:	sub    DWORD PTR [eax],eax
  40518b:	add    BYTE PTR [edx],cl
  40518d:	add    dl,BYTE PTR [edi*2+0x4000054]
  405194:	sub    al,BYTE PTR [eax]
  405196:	add    BYTE PTR [eax],al
  405198:	sbb    esi,DWORD PTR [eax]
  40519a:	add    al,0x0
  40519c:	mov    ds:0x33000000,al
  4051a1:	add    BYTE PTR [eax],al
  4051a3:	adc    DWORD PTR [edx+0x36],esi
  4051a6:	inc    esp
  4051a7:	add    BYTE PTR [eax+0x28],dh
  4051aa:	cmp    BYTE PTR [eax],al
  4051ac:	add    BYTE PTR [edx],cl
  4051ae:	adc    al,BYTE PTR [ecx]
  4051b0:	sub    BYTE PTR [ecx],al
  4051b2:	add    BYTE PTR [eax],al
  4051b4:	push   es
  4051b5:	or     bl,dh
  4051b7:	push   ss
  4051b8:	es jb  0x405188
  4051bb:	inc    esp
  4051bc:	add    BYTE PTR [eax+0x28],dh
  4051bf:	pop    edx
  4051c0:	add    BYTE PTR [eax],al
  4051c2:	or     ch,BYTE PTR [eax]
  4051c4:	mov    al,0x0
  4051c6:	add    BYTE PTR [esi],al
  4051c8:	jae    0x405190
  4051ca:	add    BYTE PTR [eax],al
  4051cc:	or     bh,BYTE PTR [edx+0x72]
  4051cf:	sbb    eax,0x17700045
  4051d4:	lea    eax,[ecx]
  4051d6:	add    BYTE PTR [eax],al
  4051d8:	add    DWORD PTR [eax+ecx*1],ecx
  4051db:	push   ss
  4051dc:	push   es
  4051dd:	mov    eax,es
  4051df:	add    BYTE PTR [eax],al
  4051e1:	add    DWORD PTR [edx+0x232808],esp
  4051e7:	add    BYTE PTR [edx],cl
  4051e9:	push   es
  4051ea:	sub    eax,0x45937258
  4051ef:	add    BYTE PTR [eax+0x19],dh
  4051f2:	lea    eax,[ecx]
  4051f4:	add    BYTE PTR [eax],al
  4051f6:	add    DWORD PTR ds:0x1121609,ecx
  4051fc:	sub    BYTE PTR [ebx],al
  4051fe:	add    DWORD PTR [eax],eax
  405200:	or     cl,BYTE PTR [ecx+ecx*1-0x5dff0000]
  405207:	or     DWORD PTR [edi],edx
  405209:	adc    al,BYTE PTR [ecx]
  40520b:	sub    BYTE PTR [ecx+eax*1],al
  40520e:	add    BYTE PTR [edx],cl
  405210:	mov    WORD PTR [ecx+0x0],ss
  405213:	add    BYTE PTR [ecx],al
  405215:	mov    ds:0x1121809,al
  40521a:	sub    BYTE PTR ds:0x8c0a0001,al
  405220:	push   ecx
  405221:	add    BYTE PTR [eax],al
  405223:	add    DWORD PTR [edx+0x232809],esp
  405229:	add    BYTE PTR [edx],cl
  40522b:	pop    es
  40522c:	sub    BYTE PTR [esi],al
  40522e:	add    DWORD PTR [eax],eax
  405230:	or     ch,BYTE PTR [eax]
  405232:	pop    es
  405233:	add    DWORD PTR [eax],eax
  405235:	or     ch,BYTE PTR [edx+eax*1]
  405238:	pop    ss
  405239:	sub    dh,BYTE PTR [edx+0xf]
  40523c:	inc    esi
  40523d:	add    BYTE PTR [eax+0x28],dh
  405240:	cmp    BYTE PTR [eax],al
  405242:	add    BYTE PTR [edx],cl
  405244:	push   ss
  405245:	sub    al,BYTE PTR [eax]
  405247:	add    BYTE PTR [ecx],al
  405249:	adc    BYTE PTR [eax],al
  40524b:	add    BYTE PTR [eax],al
  40524d:	add    BYTE PTR [edx],cl
  40524f:	add    BYTE PTR [edx],cl
  405251:	adc    al,0x0
  405253:	push   ss
  405254:	rol    DWORD PTR [eax],0x0
  405257:	add    DWORD PTR [ebx],edx
  405259:	xor    BYTE PTR [eax+eax*1],al
  40525c:	aaa    
  40525d:	add    BYTE PTR [eax],al
  40525f:	add    BYTE PTR [eax+eax*1],dh
  405262:	add    BYTE PTR [ecx],dl
  405264:	add    bh,dh
  405266:	push   es
  405267:	lea    eax,[eax]
  405269:	add    BYTE PTR [esi],al
  40526b:	jae    0x40529d
  40526d:	add    BYTE PTR [eax],al
  40526f:	push   es
  405270:	or     al,BYTE PTR [edx]
  405272:	inc    BYTE PTR [esi]
  405274:	mov    es,WORD PTR [eax]
  405276:	add    BYTE PTR [esi],al
  405278:	jae    0x405266
  40527a:	add    BYTE PTR [eax],al
  40527c:	or     cl,BYTE PTR [ebx]
  40527e:	add    bh,dh
  405280:	push   es
  405281:	pop    DWORD PTR [eax]
  405283:	add    BYTE PTR [esi],al
  405285:	jae    0x4052bb
  405287:	add    BYTE PTR [eax],al
  405289:	push   es
  40528a:	or     al,0x28
  40528c:	dec    ebp
  40528d:	add    BYTE PTR [eax],al
  40528f:	push   es
  405290:	push   es
  405291:	pop    es
  405292:	or     BYTE PTR [edi+0x4f],ch
  405295:	add    BYTE PTR [eax],al
  405297:	push   es
  405298:	or     eax,0x1b002a09
  40529d:	xor    BYTE PTR [esi],al
  40529f:	add    bh,bl
  4052a1:	add    DWORD PTR [eax],eax
  4052a3:	add    BYTE PTR ds:0x3110000,dh
  4052a9:	jle    0x40529c
  4052ab:	add    BYTE PTR [eax],al
  4052ad:	or     dl,BYTE PTR [ecx+0x72]
  4052b0:	pop    ebp
  4052b1:	inc    esi
  4052b2:	add    BYTE PTR [eax+0x28],dh
  4052b5:	cmp    BYTE PTR [eax],al
  4052b7:	add    BYTE PTR [edx],cl
  4052b9:	sub    dl,dh
  4052bb:	add    BYTE PTR [eax],al
  4052bd:	or     ch,BYTE PTR [edi-0xd]
  4052c0:	add    BYTE PTR [eax],al
  4052c2:	or     ch,BYTE PTR [eax]
  4052c4:	aaa    
  4052c5:	add    BYTE PTR [eax],al
  4052c7:	or     cl,BYTE PTR [edx]
  4052c9:	push   es
  4052ca:	jb     0x40527b
  4052cc:	inc    esi
  4052cd:	add    BYTE PTR [eax+0x28],dh
  4052d0:	sub    eax,0xb0a0000
  4052d5:	pop    es
  4052d6:	sub    ah,dh
  4052d8:	add    BYTE PTR [eax],al
  4052da:	or     ch,BYTE PTR ds:0x46e77219
  4052e0:	add    BYTE PTR [eax+0x28],dh
  4052e3:	pop    edx
  4052e4:	add    BYTE PTR [eax],al
  4052e6:	or     al,BYTE PTR [ebx]
  4052e8:	sub    BYTE PTR [edx+0x51060000],dh
  4052ee:	pop    ss
  4052ef:	adc    eax,DWORD PTR ds:0x18edd
  4052f5:	add    BYTE PTR [edx],al
  4052f7:	adc    al,0x7d
  4052f9:	push   ebx
  4052fa:	add    BYTE PTR [eax],al
  4052fc:	add    al,0x73
  4052fe:	cmc    
  4052ff:	add    BYTE PTR [eax],al
  405301:	or     cl,BYTE PTR [eax+ecx*1]
  405304:	outs   dx,DWORD PTR ds:[esi]
  405305:	test   BYTE PTR [eax],0x0
  405308:	or     al,BYTE PTR [edi]
  40530a:	outs   dx,DWORD PTR ds:[esi]
  40530b:	test   DWORD PTR [eax],0x6f080a00
  405311:	test   BYTE PTR [eax],0x0
  405314:	or     dl,BYTE PTR [edi]
  405316:	outs   dx,DWORD PTR ds:[esi]
  405317:	stc    
  405318:	add    BYTE PTR [eax],al
  40531a:	or     cl,BYTE PTR [eax]
  40531c:	outs   dx,DWORD PTR ds:[esi]
  40531d:	cli    
  40531e:	add    BYTE PTR [eax],al
  405320:	or     ah,BYTE PTR [esi]
  405322:	add    cl,BYTE PTR [eax]
  405324:	jge    0x405379
  405326:	add    BYTE PTR [eax],al
  405328:	add    al,0x72
  40532a:	xor    eax,0x17700047
  40532f:	lea    eax,[ecx]
  405331:	add    BYTE PTR [eax],al
  405333:	add    DWORD PTR [ebx],edx
  405335:	push   es
  405336:	adc    DWORD PTR [esi],eax
  405338:	push   ss
  405339:	add    bh,BYTE PTR [ebx+0x53]
  40533c:	add    BYTE PTR [eax],al
  40533e:	add    al,0x6f
  405340:	add    BYTE PTR es:[eax],al
  405343:	or     cl,BYTE PTR [ecx+edx*2-0x5dff0000]
  40534a:	adc    DWORD PTR [esi],eax
  40534c:	sub    BYTE PTR [ebx],ah
  40534e:	add    BYTE PTR [eax],al
  405350:	or     al,BYTE PTR [edx]
  405352:	jnp    0x4053a7
  405354:	add    BYTE PTR [eax],al
  405356:	add    al,0x6f
  405358:	sti    
  405359:	add    BYTE PTR [eax],al
  40535b:	or     al,BYTE PTR [edx]
  40535d:	jnp    0x4053b2
  40535f:	add    BYTE PTR [eax],al
  405361:	add    al,0x6f
  405363:	cld    
  405364:	add    BYTE PTR [eax],al
  405366:	or     cl,BYTE PTR ds:0xae3909
  40536c:	add    BYTE PTR [eax],al
  40536e:	or     DWORD PTR [ebx],edx
  405370:	pop    es
  405371:	adc    DWORD PTR [edi],eax
  405373:	and    BYTE PTR [eax+ecx*4+0x14358004],bl
  40537a:	adc    DWORD PTR [edi],eax
  40537c:	and    BYTE PTR [edx-0x78],al
  40537f:	add    al,0x80
  405381:	cs dec ebp
  405383:	adc    DWORD PTR [edi],eax
  405385:	and    BYTE PTR [eax+ecx*4+0x1d2e8004],bl
  40538c:	sub    ebp,DWORD PTR [ecx+0x11]
  40538f:	pop    es
  405390:	and    BYTE PTR [ebx+0x0],al
  405393:	pop    es
  405394:	sub    BYTE PTR [esi],0x12
  405397:	adc    DWORD PTR [edi],eax
  405399:	and    bh,al
  40539b:	add    al,0x7
  40539d:	sub    BYTE PTR [esi],0x30
  4053a0:	adc    DWORD PTR [edi],eax
  4053a2:	and    bh,cl
  4053a4:	add    al,0x7
  4053a6:	xor    BYTE PTR [ebx],0x4e
  4053a9:	add    ebp,DWORD PTR [eax]
  4053ab:	pop    ebx
  4053ac:	add    BYTE PTR [eax],al
  4053ae:	or     ch,BYTE PTR [eax]
  4053b0:	lods   eax,DWORD PTR ds:[esi]
  4053b1:	add    BYTE PTR [eax],al
  4053b3:	push   es
  4053b4:	pop    ss
  4053b5:	lea    eax,[ecx]
  4053b7:	add    BYTE PTR [eax],al
  4053b9:	add    DWORD PTR [ebx],edx
  4053bb:	or     BYTE PTR [ecx],dl
  4053bd:	or     BYTE PTR [esi],dl
  4053bf:	or     DWORD PTR [ecx+edx*2-0x5dff0000],ecx
  4053c6:	adc    DWORD PTR [eax],ecx
  4053c8:	sub    BYTE PTR [ebp+0x0],bl
  4053cb:	add    BYTE PTR [edx],cl
  4053cd:	push   ecx
  4053ce:	sub    ecx,DWORD PTR [ebx+eax*1+0x28]
  4053d2:	pop    ebx
  4053d3:	add    BYTE PTR [eax],al
  4053d5:	or     ch,BYTE PTR [eax]
  4053d7:	lods   al,BYTE PTR ds:[esi]
  4053d8:	add    BYTE PTR [eax],al
  4053da:	push   es
  4053db:	pop    ss
  4053dc:	lea    eax,[ecx]
  4053de:	add    BYTE PTR [eax],al
  4053e0:	add    DWORD PTR [ebx],edx
  4053e2:	or     DWORD PTR [ecx],edx
  4053e4:	or     DWORD PTR [esi],edx
  4053e6:	or     DWORD PTR [ecx+edx*2-0x5dff0000],ecx
  4053ed:	adc    DWORD PTR [ecx],ecx
  4053ef:	sub    BYTE PTR [ebp+0x0],bl
  4053f2:	add    BYTE PTR [edx],cl
  4053f4:	push   ecx
  4053f5:	sub    esp,DWORD PTR ds:0x5b2803
  4053fb:	add    BYTE PTR [edx],cl
  4053fd:	sub    BYTE PTR [esi+0x17060000],ch
  405403:	lea    eax,[ecx]
  405405:	add    BYTE PTR [eax],al
  405407:	add    DWORD PTR [ebx],edx
  405409:	or     dl,BYTE PTR [ecx]
  40540b:	or     dl,BYTE PTR [esi]
  40540d:	or     DWORD PTR [ecx+edx*2-0x5dff0000],ecx
  405414:	adc    DWORD PTR [edx],ecx
  405416:	sub    BYTE PTR [ebp+0x0],bl
  405419:	add    BYTE PTR [edx],cl
  40541b:	push   ecx
  40541c:	jb     0x4053d3
  40541e:	inc    edi
  40541f:	add    BYTE PTR [eax+0x17],dh
  405422:	lea    eax,[ecx]
  405424:	add    BYTE PTR [eax],al
  405426:	add    DWORD PTR [ebx],edx
  405428:	or     edx,DWORD PTR [ecx]
  40542a:	or     edx,DWORD PTR [esi]
  40542c:	or     DWORD PTR [ecx+edx*2-0x5dff0000],ecx
  405433:	adc    DWORD PTR [ebx],ecx
  405435:	sub    BYTE PTR [ebx],ah
  405437:	add    BYTE PTR [eax],al
  405439:	or     cl,BYTE PTR [ecx]
  40543b:	adc    eax,DWORD PTR ds:0x41345de
  405441:	jb     0x40547d
  405443:	dec    eax
  405444:	add    BYTE PTR [eax+0x17],dh
  405447:	lea    eax,[ecx]
  405449:	add    BYTE PTR [eax],al
  40544b:	add    DWORD PTR [ebx],edx
  40544d:	or     al,0x11
  40544f:	or     al,0x16
  405451:	adc    DWORD PTR [edx+eiz*4],eax
  405454:	adc    DWORD PTR [eax+ebp*1],ecx
  405457:	and    al,0x0
  405459:	add    BYTE PTR [edx],cl
  40545b:	add    edx,DWORD PTR [ecx]
  40545d:	add    al,0x6f
  40545f:	push   edi
  405460:	add    BYTE PTR [eax],al
  405462:	or     dl,BYTE PTR [ecx+0x17]
  405465:	adc    eax,DWORD PTR ds:0x7b021bde
  40546b:	push   ebx
  40546c:	add    BYTE PTR [eax],al
  40546e:	add    al,0x2c
  405470:	adc    al,BYTE PTR [edx]
  405472:	jnp    0x4054c7
  405474:	add    BYTE PTR [eax],al
  405476:	add    al,0x6f
  405478:	cmp    al,0x0
  40547a:	add    BYTE PTR [edx],cl
  40547c:	add    dl,BYTE PTR [edi*2+0x4000053]
  405483:	fcom   QWORD PTR [ecx]
  405485:	add    eax,0x3441002a
  40548a:	add    BYTE PTR [eax],al
  40548c:	add    BYTE PTR [eax],al
  40548e:	add    BYTE PTR [eax],al
  405490:	adc    DWORD PTR [eax],eax
  405492:	add    BYTE PTR [eax],al
  405494:	xchg   BYTE PTR [ecx],al
  405496:	add    BYTE PTR [eax],al
  405498:	xchg   edi,eax
  405499:	add    DWORD PTR [eax],eax
  40549b:	add    BYTE PTR [edx],ch
  40549d:	add    BYTE PTR [eax],al
  40549f:	add    BYTE PTR [ebx+0x0],ah
  4054a2:	add    BYTE PTR [ecx],al
  4054a4:	add    al,BYTE PTR [eax]
  4054a6:	add    BYTE PTR [eax],al
  4054a8:	adc    DWORD PTR [eax],eax
  4054aa:	add    BYTE PTR [eax],al
  4054ac:	mov    al,0x1
  4054ae:	add    BYTE PTR [eax],al
  4054b0:	rol    DWORD PTR [ecx],0x0
  4054b3:	add    BYTE PTR [ebx],bl
  4054b5:	add    BYTE PTR [eax],al
  4054b7:	add    BYTE PTR [eax],al
  4054b9:	add    BYTE PTR [eax],al
  4054bb:	add    BYTE PTR [ebx],dl
  4054bd:	xor    BYTE PTR [eax+eax*1],al
  4054c0:	jmp    0x4054c2
  4054c2:	add    BYTE PTR [eax],al
  4054c4:	add    BYTE PTR ss:[eax],al
  4054c7:	adc    DWORD PTR [edx-0x3d],esi
  4054ca:	dec    eax
  4054cb:	add    BYTE PTR [eax+0x28],dh
  4054ce:	cmp    BYTE PTR [eax],al
  4054d0:	add    BYTE PTR [edx],cl
  4054d2:	add    esi,DWORD PTR [edi+edi*4+0x0]
  4054d6:	add    BYTE PTR [ecx],al
  4054d8:	or     al,BYTE PTR [esi]
  4054da:	outs   dx,DWORD PTR ds:[esi]
  4054db:	add    BYTE PTR [ecx],al
  4054dd:	add    BYTE PTR [edx],cl
  4054df:	je     0x4054eb
  4054e1:	add    BYTE PTR [eax],al
  4054e3:	add    cl,BYTE PTR [ebx]
  4054e5:	add    ebp,DWORD PTR [edi+0x1]
  4054e8:	add    DWORD PTR [eax],eax
  4054ea:	or     dh,BYTE PTR [ebp+ecx*1+0x0]
  4054ee:	add    BYTE PTR [edx],al
  4054f0:	or     al,0x7e
  4054f2:	icebp  
  4054f3:	add    BYTE PTR [eax],al
  4054f5:	or     cl,BYTE PTR ds:0x3031207
  4054fb:	outs   dx,DWORD PTR ds:[esi]
  4054fc:	xor    eax,DWORD PTR [eax]
  4054fe:	add    BYTE PTR [esi],al
  405500:	adc    eax,DWORD PTR [edx+esi*2]
  405503:	and    DWORD PTR [ecx+0x0],ecx
  405506:	jo     0x405520
  405508:	lea    eax,[ecx]
  40550a:	add    BYTE PTR [eax],al
  40550c:	add    DWORD PTR [ebx],edx
  40550e:	push   es
  40550f:	adc    DWORD PTR [esi],eax
  405511:	push   ss
  405512:	or     BYTE PTR [edi+0x25],ch
  405515:	add    BYTE PTR [eax],al
  405517:	push   es
  405518:	mov    WORD PTR [edx-0x5dff0000],es
  40551e:	adc    DWORD PTR [esi],eax
  405520:	pop    ss
  405521:	adc    DWORD PTR [esp+ecx*4],eax
  405524:	push   ecx
  405525:	add    BYTE PTR [eax],al
  405527:	add    DWORD PTR [edx+0x23280611],esp
  40552d:	add    BYTE PTR [eax],al
  40552f:	or     dl,BYTE PTR [ecx]
  405531:	add    al,0x2d
  405533:	adc    DWORD PTR [eax],ecx
  405535:	outs   dx,DWORD PTR ds:[esi]
  405536:	and    eax,0x18060000
  40553b:	or     DWORD PTR [ebx+0x2],esi
  40553e:	add    DWORD PTR [eax],eax
  405540:	or     dl,BYTE PTR [ebx]
  405542:	add    eax,0xa672282b
  405547:	dec    ecx
  405548:	add    BYTE PTR [eax+0x17],dh
  40554b:	lea    eax,[ecx]
  40554d:	add    BYTE PTR [eax],al
  40554f:	add    DWORD PTR [ebx],edx
  405551:	pop    es
  405552:	adc    DWORD PTR [edi],eax
  405554:	push   ss
  405555:	or     DWORD PTR [edx+0x24280711],esp
  40555b:	add    BYTE PTR [eax],al
  40555d:	or     cl,BYTE PTR [eax]
  40555f:	outs   dx,DWORD PTR ds:[esi]
  405560:	and    eax,0x19060000
  405565:	or     DWORD PTR [ebx+0x2],esi
  405568:	add    DWORD PTR [eax],eax
  40556a:	or     dl,BYTE PTR [ebx]
  40556c:	add    eax,0x28051102
  405571:	test   BYTE PTR [eax],al
  405573:	add    BYTE PTR [esi],al
  405575:	jb     0x405541
  405577:	inc    edx
  405578:	add    BYTE PTR [eax+0x17],dh
  40557b:	lea    eax,[ecx]
  40557d:	add    BYTE PTR [eax],al
  40557f:	add    DWORD PTR [ebx],edx
  405581:	or     BYTE PTR [ecx],dl
  405583:	or     BYTE PTR [esi],dl
  405585:	or     BYTE PTR [edi+0x25],ch
  405588:	add    BYTE PTR [eax],al
  40558a:	push   es
  40558b:	mov    WORD PTR [edx-0x5dff0000],es
  405591:	adc    DWORD PTR [eax],ecx
  405593:	sub    BYTE PTR [ebx],ah
  405595:	add    BYTE PTR [eax],al
  405597:	or     ch,BYTE PTR [eax]
  405599:	dec    ebp
  40559a:	add    BYTE PTR [eax],al
  40559c:	push   es
  40559d:	or     BYTE PTR [edi+0x25],ch
  4055a0:	add    BYTE PTR [eax],al
  4055a2:	push   es
  4055a3:	outs   dx,DWORD PTR ds:[esi]
  4055a4:	push   ebx
  4055a5:	add    BYTE PTR [eax],al
  4055a7:	push   es
  4055a8:	jb     0x4055b6
  4055aa:	dec    edx
  4055ab:	add    BYTE PTR [eax+0x28],dh
  4055ae:	cmp    BYTE PTR [eax],al
  4055b0:	add    BYTE PTR [edx],cl
  4055b2:	sub    al,BYTE PTR [eax]
  4055b4:	adc    esi,DWORD PTR [eax]
  4055b6:	add    al,0x0
  4055b8:	push   ebp
  4055b9:	add    BYTE PTR [eax],al
  4055bb:	add    BYTE PTR [edx],cl
  4055bd:	add    BYTE PTR [eax],al
  4055bf:	adc    DWORD PTR [edx],eax
  4055c1:	jnp    0x405616
  4055c3:	add    BYTE PTR [eax],al
  4055c5:	add    al,0x2d
  4055c7:	adc    eax,0x4a6872
  4055cc:	jo     0x4055f6
  4055ce:	cmp    BYTE PTR [eax],al
  4055d0:	add    BYTE PTR [edx],cl
  4055d2:	sub    BYTE PTR [edi+0x73060000],ch
  4055d8:	mov    BYTE PTR [eax],0x0
  4055db:	or     bh,BYTE PTR [edx+0x72]
  4055de:	in     al,0x43
  4055e0:	add    BYTE PTR [eax+0x17],dh
  4055e3:	lea    eax,[ecx]
  4055e5:	add    BYTE PTR [eax],al
  4055e7:	add    DWORD PTR [edx],ecx
  4055e9:	push   es
  4055ea:	push   ss
  4055eb:	add    bh,BYTE PTR [ebx+0x53]
  4055ee:	add    BYTE PTR [eax],al
  4055f0:	add    al,0x6f
  4055f2:	add    BYTE PTR es:[eax],al
  4055f5:	or     cl,BYTE PTR [ecx+edx*2-0x5dff0000]
  4055fc:	push   es
  4055fd:	sub    BYTE PTR [ebx],ah
  4055ff:	add    BYTE PTR [eax],al
  405601:	or     al,BYTE PTR [edx]
  405603:	jnp    0x405658
  405605:	add    BYTE PTR [eax],al
  405607:	add    al,0x6f
  405609:	sub    DWORD PTR [eax],eax
  40560b:	add    BYTE PTR [edx],cl
  40560d:	add    dl,BYTE PTR [edi*2+0x4000053]
  405614:	sub    bl,BYTE PTR [esi]
  405616:	add    bh,BYTE PTR [ebx+0x4d]
  405619:	add    BYTE PTR [eax],al
  40561b:	add    al,0x2a
  40561d:	add    BYTE PTR [eax],al
  40561f:	add    BYTE PTR [ebx],bl
  405621:	xor    BYTE PTR [ebx],al
  405623:	add    BYTE PTR [eax],dh
  405625:	add    BYTE PTR [eax],al
  405627:	add    BYTE PTR [edi],dh
  405629:	add    BYTE PTR [eax],al
  40562b:	adc    DWORD PTR [edx+ecx*1],edx
  40562e:	push   ss
  40562f:	or     eax,DWORD PTR [edx]
  405631:	jnp    0x405683
  405633:	add    BYTE PTR [eax],al
  405635:	add    al,0x25
  405637:	or     al,0x12
  405639:	add    DWORD PTR [eax],ebp
  40563b:	jbe    0x40563d
  40563d:	add    BYTE PTR [edx],cl
  40563f:	add    bh,BYTE PTR [ebx+0x4e]
  405642:	add    BYTE PTR [eax],al
  405644:	add    al,0x3
  405646:	adc    al,BYTE PTR [eax]
  405648:	outs   dx,DWORD PTR ds:[esi]
  405649:	or     BYTE PTR [ecx],al
  40564b:	add    BYTE PTR [edx],cl
  40564d:	fimul  WORD PTR es:[edx]
  405650:	pop    es
  405651:	sub    al,0x6
  405653:	or     BYTE PTR [eax],ch
  405655:	js     0x405657
  405657:	add    BYTE PTR [edx],cl
  405659:	fadd   QWORD PTR [esi]
  40565b:	sub    al,BYTE PTR [ecx]
  40565d:	adc    BYTE PTR [eax],al
  40565f:	add    BYTE PTR [edx],al
  405661:	add    BYTE PTR [eax+eax*1],al
  405664:	and    BYTE PTR [eax+eax*1],ah
  405667:	or     al,BYTE PTR [eax]
  405669:	add    BYTE PTR [eax],al
  40566b:	add    BYTE PTR [ebx],bl
  40566d:	xor    BYTE PTR [ebx],al
  40566f:	add    BYTE PTR [ebp+0x0],al
  405672:	add    BYTE PTR [eax],al
  405674:	cmp    BYTE PTR [eax],al
  405676:	add    BYTE PTR [ecx],dl
  405678:	adc    eax,0xb160a6a
  40567d:	add    bh,BYTE PTR [ebx+0x50]
  405680:	add    BYTE PTR [eax],al
  405682:	add    al,0x25
  405684:	or     al,0x12
  405686:	add    DWORD PTR [eax],ebp
  405688:	jbe    0x40568a
  40568a:	add    BYTE PTR [edx],cl
  40568c:	add    ah,BYTE PTR ds:0x4f7b
  405692:	add    al,0x17
  405694:	push   0x58
  405696:	jge    0x4056e7
  405698:	add    BYTE PTR [eax],al
  40569a:	add    al,0x2
  40569c:	jnp    0x4056ed
  40569e:	add    BYTE PTR [eax],al
  4056a0:	add    al,0xa
  4056a2:	add    bh,BYTE PTR [ebx+0x4e]
  4056a5:	add    BYTE PTR [eax],al
  4056a7:	add    al,0x6
  4056a9:	add    ebp,DWORD PTR [edi+0x9]
  4056ac:	add    DWORD PTR [eax],eax
  4056ae:	or     bl,dh
  4056b0:	or     al,BYTE PTR [edi]
  4056b2:	sub    al,0x6
  4056b4:	or     BYTE PTR [eax],ch
  4056b6:	js     0x4056b8
  4056b8:	add    BYTE PTR [edx],cl
  4056ba:	fadd   QWORD PTR [esi]
  4056bc:	sub    al,BYTE PTR [eax]
  4056be:	add    BYTE PTR [eax],al
  4056c0:	add    DWORD PTR [eax],edx
  4056c2:	add    BYTE PTR [eax],al
  4056c4:	add    al,BYTE PTR [eax]
  4056c6:	add    eax,0x393400
  4056cb:	or     al,BYTE PTR [eax]
  4056cd:	add    BYTE PTR [eax],al
  4056cf:	add    BYTE PTR [ebx],bl
  4056d1:	xor    BYTE PTR [edx],al
  4056d3:	add    BYTE PTR [ebx],ch
  4056d5:	add    BYTE PTR [eax],al
  4056d7:	add    BYTE PTR [ebx],dl
  4056d9:	add    BYTE PTR [eax],al
  4056db:	adc    DWORD PTR [esi],edx
  4056dd:	or     al,BYTE PTR [edx]
  4056df:	jnp    0x405731
  4056e1:	add    BYTE PTR [eax],al
  4056e3:	add    al,0x25
  4056e5:	or     edx,DWORD PTR [edx]
  4056e7:	add    BYTE PTR [eax],ch
  4056e9:	jbe    0x4056eb
  4056eb:	add    BYTE PTR [edx],cl
  4056ed:	add    bh,BYTE PTR [ebx+0x4e]
  4056f0:	add    BYTE PTR [eax],al
  4056f2:	add    al,0x3
  4056f4:	outs   dx,DWORD PTR ds:[esi]
  4056f5:	or     al,BYTE PTR [ecx]
  4056f7:	add    BYTE PTR [edx],cl
  4056f9:	fimul  WORD PTR es:[edx]
  4056fc:	push   es
  4056fd:	sub    al,0x6
  4056ff:	pop    es
  405700:	sub    BYTE PTR [eax+0x0],bh
  405703:	add    BYTE PTR [edx],cl
  405705:	fsubr  QWORD PTR [edx]
  405707:	add    BYTE PTR [ecx],al
  405709:	adc    BYTE PTR [eax],al
  40570b:	add    BYTE PTR [edx],al
  40570d:	add    BYTE PTR [edx],al
  40570f:	add    BYTE PTR [esi],bl
  405711:	and    BYTE PTR [eax],al
  405713:	or     al,BYTE PTR [eax]
  405715:	add    BYTE PTR [eax],al
  405717:	add    BYTE PTR [ebx],bl
  405719:	xor    BYTE PTR [eax+eax*1],al
  40571c:	xchg   BYTE PTR [eax],al
  40571e:	add    BYTE PTR [eax],al
  405720:	cmp    DWORD PTR [eax],eax
  405722:	add    BYTE PTR [ecx],dl
  405724:	push   ss
  405725:	or     eax,DWORD PTR [edx]
  405727:	jnp    0x405779
  405729:	add    BYTE PTR [eax],al
  40572b:	add    al,0x25
  40572d:	or     al,0x12
  40572f:	add    DWORD PTR [eax],ebp
  405731:	jbe    0x405733
  405733:	add    BYTE PTR [edx],cl
  405735:	add    bh,BYTE PTR [ebx+0x4e]
  405738:	add    BYTE PTR [eax],al
  40573a:	add    al,0x6f
  40573c:	or     eax,DWORD PTR [ecx]
  40573e:	add    BYTE PTR [edx],cl
  405740:	or     eax,0x312412b
  405745:	sub    BYTE PTR [ecx+eax*1],cl
  405748:	add    BYTE PTR [edx],cl
  40574a:	or     dh,BYTE PTR [edx-0x9]
  40574d:	dec    edx
  40574e:	add    BYTE PTR [eax+0x17],dh
  405751:	lea    eax,[ecx]
  405753:	add    BYTE PTR [eax],al
  405755:	add    DWORD PTR [ebx],edx
  405757:	add    al,0x11
  405759:	add    al,0x16
  40575b:	adc    al,BYTE PTR [eax]
  40575d:	sub    BYTE PTR ds:0x8c0a0001,cl
  405763:	add    BYTE PTR [eax],0x0
  405766:	add    DWORD PTR [edx+0x23280411],esp
  40576c:	add    BYTE PTR [eax],al
  40576e:	or     dl,BYTE PTR [edx]
  405770:	add    BYTE PTR [eax],ch
  405772:	push   cs
  405773:	add    DWORD PTR [eax],eax
  405775:	or     ch,BYTE PTR [esp+ecx*1]
  405778:	adc    al,BYTE PTR [eax]
  40577a:	sub    BYTE PTR [esi],cl
  40577c:	add    DWORD PTR [eax],eax
  40577e:	or     ch,BYTE PTR [edi-0x23]
  405781:	add    BYTE PTR [eax],al
  405783:	or     dl,BYTE PTR [edx]
  405785:	add    ebp,DWORD PTR [eax]
  405787:	sgdtd  [eax]
  40578a:	or     ch,BYTE PTR ds:0x120edeb6
  405790:	add    edi,esi
  405792:	push   ss
  405793:	pop    es
  405794:	add    BYTE PTR [eax],al
  405796:	sbb    ebp,DWORD PTR [edi+0x1]
  405799:	add    BYTE PTR [eax],al
  40579b:	or     bl,ah
  40579d:	fimul  WORD PTR [edx]
  40579f:	pop    es
  4057a0:	sub    al,0x6
  4057a2:	or     BYTE PTR [eax],ch
  4057a4:	js     0x4057a6
  4057a6:	add    BYTE PTR [edx],cl
  4057a8:	fsubr  QWORD PTR [edx]
  4057aa:	add    BYTE PTR [eax],al
  4057ac:	add    DWORD PTR [eax+eax*1],ebx
  4057af:	add    BYTE PTR [edx],al
  4057b1:	add    BYTE PTR ds:0x6b4e00,bl
  4057b7:	push   cs
  4057b8:	add    BYTE PTR [eax],al
  4057ba:	add    BYTE PTR [eax],al
  4057bc:	add    al,BYTE PTR [eax]
  4057be:	add    al,BYTE PTR [eax]
  4057c0:	jns    0x40583d
  4057c2:	add    BYTE PTR [edx],cl
  4057c4:	add    BYTE PTR [eax],al
  4057c6:	add    BYTE PTR [eax],al
  4057c8:	data16 add bh,BYTE PTR [ebx+0x51]
  4057cc:	add    BYTE PTR [eax],al
  4057ce:	add    al,0x2d
  4057d0:	adc    BYTE PTR [ebx],al
  4057d2:	sub    al,0x6
  4057d4:	add    ch,BYTE PTR [eax]
  4057d6:	xchg   esp,eax
  4057d7:	add    BYTE PTR [eax],al
  4057d9:	push   es
  4057da:	add    dl,BYTE PTR [edi]
  4057dc:	jge    0x40582f
  4057de:	add    BYTE PTR [eax],al
  4057e0:	add    al,0x2a
  4057e2:	cmp    al,BYTE PTR [edx]
  4057e4:	pop    ss
  4057e5:	sub    BYTE PTR [ebp+0x2060000],dl
  4057eb:	sub    BYTE PTR [eax],dl
  4057ed:	add    DWORD PTR [eax],eax
  4057ef:	or     ch,BYTE PTR [edx]
  4057f1:	add    BYTE PTR [eax],al
  4057f3:	add    BYTE PTR [ebx],dl
  4057f5:	xor    BYTE PTR ds:0x3c00,al
  4057fb:	add    BYTE PTR [edx],cl
  4057fd:	add    BYTE PTR [eax],al
  4057ff:	adc    DWORD PTR [edx],eax
  405801:	sub    BYTE PTR [ebx+0x2c0a0000],ch
  405807:	adc    BYTE PTR [edx+0x4b],dh
  40580a:	dec    ebx
  40580b:	add    BYTE PTR [eax+0x28],dh
  40580e:	jns    0x405810
  405810:	add    BYTE PTR [edx],cl
  405812:	jle    0x405805
  405814:	add    BYTE PTR [eax],al
  405816:	or     ch,BYTE PTR [edx]
  405818:	sub    BYTE PTR [ecx],dl
  40581a:	add    DWORD PTR [eax],eax
  40581c:	or     dh,BYTE PTR [edx-0x4f]
  40581f:	dec    ebx
  405820:	add    BYTE PTR [eax+0x18],dh
  405823:	lea    eax,[ecx]
  405825:	add    BYTE PTR [eax],al
  405827:	add    DWORD PTR [edx],ecx
  405829:	push   es
  40582a:	push   ss
  40582b:	jle    0x40583f
  40582d:	add    DWORD PTR [eax],eax
  40582f:	or     ah,BYTE PTR [edx-0x5dfde8fa]
  405835:	push   es
  405836:	sub    BYTE PTR [ebp+0x0],bl
  405839:	add    BYTE PTR [edx],cl
  40583b:	sub    dl,BYTE PTR [ebx]
  40583d:	xor    BYTE PTR [eax+eax*1],al
  405840:	sbb    al,BYTE PTR [eax]
  405842:	add    BYTE PTR [eax],al
  405844:	cmp    al,BYTE PTR [eax]
  405846:	add    BYTE PTR [ecx],dl
  405848:	add    dl,BYTE PTR [edi]
  40584a:	lea    ebp,ds:0xb010000
  405850:	pop    es
  405851:	push   ss
  405852:	add    esp,DWORD PTR [edx+0x1136f07]
  405858:	add    BYTE PTR [edx],cl
  40585a:	or     al,BYTE PTR [esi]
  40585c:	sub    BYTE PTR [ecx+eax*1],dl
  40585f:	add    BYTE PTR [edx],cl
  405861:	sub    al,BYTE PTR [eax]
  405863:	add    BYTE PTR [ebx],bl
  405865:	xor    BYTE PTR [eax+eax*1],al
  405868:	adc    eax,0x3b000001
  40586d:	add    BYTE PTR [eax],al
  40586f:	adc    DWORD PTR [ebx+0x15],esi
  405872:	add    DWORD PTR [eax],eax
  405874:	or     cl,BYTE PTR [edx]
  405876:	add    ch,BYTE PTR [eax]
  405878:	xchg   edi,eax
  405879:	add    BYTE PTR [eax],al
  40587b:	push   es
  40587c:	or     eax,DWORD PTR [edi]
  40587e:	jae    0x405896
  405880:	add    DWORD PTR [eax],eax
  405882:	or     cl,BYTE PTR [eax+edx*8]
  405885:	mov    al,0x0
  405887:	add    BYTE PTR [ecx],al
  405889:	sub    BYTE PTR [eax-0x2ff60000],cl
  40588f:	mov    BYTE PTR [eax],al
  405891:	add    BYTE PTR [ecx],al
  405893:	sub    BYTE PTR [eax+0x280a0000],cl
  405899:	cwde   
  40589a:	add    BYTE PTR [eax],al
  40589c:	push   es
  40589d:	je     0x4058a8
  40589f:	add    BYTE PTR [eax],al
  4058a1:	sbb    ecx,DWORD PTR ds:0x1176f03
  4058a7:	add    BYTE PTR [edx],cl
  4058a9:	adc    ecx,DWORD PTR [edx]
  4058ab:	sub    esp,DWORD PTR [ebx]
  4058ad:	adc    DWORD PTR [edx],ecx
  4058af:	outs   dx,DWORD PTR ds:[esi]
  4058b0:	sbb    BYTE PTR [ecx],al
  4058b2:	add    BYTE PTR [edx],cl
  4058b4:	adc    eax,DWORD PTR [ecx+edx*1]
  4058b7:	add    al,0x28
  4058b9:	xchg   edi,eax
  4058ba:	add    BYTE PTR [eax],al
  4058bc:	push   es
  4058bd:	adc    eax,DWORD PTR ds:0x16730511
  4058c3:	add    DWORD PTR [eax],eax
  4058c5:	or     dl,BYTE PTR [ebx]
  4058c7:	push   es
  4058c8:	or     DWORD PTR [ecx],edx
  4058ca:	push   es
  4058cb:	outs   dx,DWORD PTR ds:[esi]
  4058cc:	sbb    DWORD PTR [ecx],eax
  4058ce:	add    BYTE PTR [edx],cl
  4058d0:	adc    DWORD PTR [edx],ecx
  4058d2:	outs   dx,DWORD PTR ds:[esi]
  4058d3:	jno    0x4058d5
  4058d5:	add    BYTE PTR [edx],cl
  4058d7:	sub    eax,0x110cded4
  4058dc:	or     ch,BYTE PTR [edi+eax*1]
  4058df:	adc    DWORD PTR [edx],ecx
  4058e1:	outs   dx,DWORD PTR ds:[esi]
  4058e2:	add    DWORD PTR [eax],eax
  4058e4:	add    BYTE PTR [edx],cl
  4058e6:	fadd   QWORD PTR [esi]
  4058e8:	or     BYTE PTR [ecx],cl
  4058ea:	push   ss
  4058eb:	outs   dx,DWORD PTR ds:[esi]
  4058ec:	sbb    al,BYTE PTR [ecx]
  4058ee:	add    BYTE PTR [edx],cl
  4058f0:	adc    eax,DWORD PTR [edi]
  4058f2:	jle    0x40594a
  4058f4:	add    BYTE PTR [eax],al
  4058f6:	add    al,0x6f
  4058f8:	pop    DWORD PTR [eax]
  4058fa:	add    BYTE PTR [edx],cl
  4058fc:	adc    DWORD PTR es:[edi],eax
  4058ff:	adc    al,0xfe
  405901:	push   es
  405902:	call   0x11b:0x73060000
  405909:	add    BYTE PTR [edx],cl
  40590b:	outs   dx,DWORD PTR ds:[esi]
  40590c:	sbb    al,0x1
  40590e:	add    BYTE PTR [edx],cl
  405910:	jle    0x405968
  405912:	add    BYTE PTR [eax],al
  405914:	add    al,0x6f
  405916:	sbb    eax,0x260a0001
  40591b:	push   ss
  40591c:	adc    ecx,DWORD PTR [eax]
  40591e:	adc    DWORD PTR [edi],eax
  405920:	outs   dx,DWORD PTR ds:[esi]
  405921:	push   ds
  405922:	add    DWORD PTR [eax],eax
  405924:	or     dl,BYTE PTR [ebx]
  405926:	or     DWORD PTR [ecx],edx
  405928:	or     DWORD PTR [edi+edx*2],ebp
  40592b:	adc    DWORD PTR [ecx],ecx
  40592d:	sub    BYTE PTR [edi],bl
  40592f:	add    DWORD PTR [eax],eax
  405931:	or     dl,BYTE PTR [ebx]
  405933:	or     BYTE PTR [edx-0x3b],dh
  405936:	dec    ebx
  405937:	add    BYTE PTR [eax+0x17],dh
  40593a:	lea    eax,[ecx]
  40593c:	add    BYTE PTR [eax],al
  40593e:	add    DWORD PTR [ebx],edx
  405940:	or     edx,DWORD PTR [ecx]
  405942:	or     edx,DWORD PTR [esi]
  405944:	adc    DWORD PTR [eax],ecx
  405946:	mov    WORD PTR [ecx+0x0],ss
  405949:	add    BYTE PTR [ecx],al
  40594b:	mov    ds:0x23280b11,al
  405950:	add    BYTE PTR [eax],al
  405952:	or     dh,BYTE PTR [edx+0x35]
  405955:	dec    esp
  405956:	add    BYTE PTR [eax+0x17],dh
  405959:	lea    eax,[ecx]
  40595b:	add    BYTE PTR [eax],al
  40595d:	add    DWORD PTR [ebx],edx
  40595f:	or     al,0x11
  405961:	or     al,0x16
  405963:	adc    DWORD PTR [ecx],ecx
  405965:	outs   dx,DWORD PTR ds:[esi]
  405966:	xor    DWORD PTR [eax],eax
  405968:	add    BYTE PTR [edx],cl
  40596a:	mov    ds:0x23280c11,al
  40596f:	add    BYTE PTR [eax],al
  405971:	or     dl,BYTE PTR [ecx]
  405973:	or     BYTE PTR [esp+ecx*1],ch
  405976:	adc    DWORD PTR [eax],ecx
  405978:	and    bl,bh
  40597a:	cmp    al,0x7
  40597c:	sub    BYTE PTR [esi],0x3
  40597f:	adc    DWORD PTR [ecx],ecx
  405981:	jp     0x405994
  405983:	or     BYTE PTR [edx],ch
  405985:	add    BYTE PTR [eax],al
  405987:	add    BYTE PTR [ecx],al
  405989:	adc    BYTE PTR [eax],al
  40598b:	add    BYTE PTR [edx],al
  40598d:	add    BYTE PTR [ebx],bh
  40598f:	add    BYTE PTR [eax],dh
  405991:	imul   eax,DWORD PTR [eax],0xc
  405994:	add    BYTE PTR [eax],al
  405996:	add    BYTE PTR [eax],al
  405998:	xor    bh,BYTE PTR [esi+0x56]
  40599b:	add    BYTE PTR [eax],al
  40599d:	add    al,0x6f
  40599f:	jl     0x4059a1
  4059a1:	add    BYTE PTR [edx],cl
  4059a3:	sub    dh,BYTE PTR es:[edx]
  4059a6:	push   ss
  4059a7:	jae    0x40593e
  4059a9:	add    BYTE PTR [eax],al
  4059ab:	or     al,BYTE PTR [eax+0x4000056]
  4059b1:	sub    al,BYTE PTR [eax]
  4059b3:	add    BYTE PTR [ebx],bl
  4059b5:	xor    BYTE PTR ds:0x1f600,al
  4059bb:	add    BYTE PTR [eax+eax*1],bh
  4059be:	add    BYTE PTR [ecx],dl
  4059c0:	add    ch,BYTE PTR [eax]
  4059c2:	popf   
  4059c3:	add    BYTE PTR [eax],al
  4059c5:	push   es
  4059c6:	sbb    BYTE PTR [esi+0x0],0x0
  4059ca:	add    al,0x7e
  4059cc:	pop    esi
  4059cd:	add    BYTE PTR [eax],al
  4059cf:	add    al,0x2d
  4059d1:	push   es
  4059d2:	adc    eax,0x12028
  4059d7:	or     ch,BYTE PTR [eax]
  4059d9:	and    DWORD PTR [ecx],eax
  4059db:	add    BYTE PTR [edx],cl
  4059dd:	adc    al,0xa
  4059df:	adc    al,0xb
  4059e1:	jb     0x405986
  4059e3:	dec    esp
  4059e4:	add    BYTE PTR [eax+0x16],dh
  4059e7:	lea    eax,[ecx]
  4059e9:	add    BYTE PTR [eax],al
  4059eb:	add    DWORD PTR [eax],ebp
  4059ed:	push   ecx
  4059ee:	add    BYTE PTR [eax],al
  4059f0:	or     cl,BYTE PTR ds:0x12228
  4059f6:	or     dl,BYTE PTR [esi+edi*8]
  4059f9:	push   es
  4059fa:	mov    al,ds:0x73060000
  4059ff:	and    eax,DWORD PTR [ecx]
  405a01:	add    BYTE PTR [edx],cl
  405a03:	outs   dx,DWORD PTR ds:[esi]
  405a04:	and    al,0x1
  405a06:	add    BYTE PTR [edx],cl
  405a08:	sub    BYTE PTR [edi+0x14060000],bl
  405a0e:	inc    BYTE PTR [esi]
  405a10:	mov    ds:0x73060000,al
  405a15:	and    eax,0x730a0001
  405a1a:	add    DWORD PTR es:[eax],eax
  405a1d:	or     cl,BYTE PTR [ebx]
  405a1f:	pop    es
  405a20:	outs   dx,DWORD PTR ds:[esi]
  405a21:	daa    
  405a22:	add    DWORD PTR [eax],eax
  405a24:	or     ch,BYTE PTR [eax]
  405a26:	adc    DWORD PTR [ecx],eax
  405a28:	add    BYTE PTR [edx],cl
  405a2a:	jb     0x4059d9
  405a2c:	dec    esp
  405a2d:	add    BYTE PTR [eax+0x17],dh
  405a30:	lea    eax,[ecx]
  405a32:	add    BYTE PTR [eax],al
  405a34:	add    DWORD PTR [ebx],edx
  405a36:	add    al,0x11
  405a38:	add    al,0x16
  405a3a:	jle    0x405a9a
  405a3c:	add    BYTE PTR [eax],al
  405a3e:	add    al,0x8c
  405a40:	sbb    eax,0xa2010000
  405a45:	adc    DWORD PTR [eax+ebp*1],eax
  405a48:	pop    ebp
  405a49:	add    BYTE PTR [eax],al
  405a4b:	or     ch,BYTE PTR [eax]
  405a4d:	cmp    eax,0x280a0000
  405a52:	adc    DWORD PTR [ecx],eax
  405a54:	add    BYTE PTR [edx],cl
  405a56:	jb     0x405a51
  405a58:	dec    esp
  405a59:	add    BYTE PTR [eax+0x17],dh
  405a5c:	lea    eax,[ecx]
  405a5e:	add    BYTE PTR [eax],al
  405a60:	add    DWORD PTR [ebx],edx
  405a62:	add    eax,0x28160511
  405a67:	cwde   
  405a68:	add    BYTE PTR [eax],al
  405a6a:	or     ch,BYTE PTR [edi-0x52]
  405a6d:	add    BYTE PTR [eax],al
  405a6f:	or     ah,BYTE PTR [edx+0x5d280511]
  405a75:	add    BYTE PTR [eax],al
  405a77:	or     ch,BYTE PTR [eax]
  405a79:	cmp    eax,0x280a0000
  405a7e:	xor    al,0x0
  405a80:	add    BYTE PTR [edx],cl
  405a82:	outs   dx,DWORD PTR ds:[esi]
  405a83:	daa    
  405a84:	add    BYTE PTR [eax],al
  405a86:	or     ch,BYTE PTR [eax]
  405a88:	and    eax,0x8e0a0000
  405a8d:	imul   edx,DWORD PTR [edi],0x5b721031
  405a93:	dec    ebp
  405a94:	add    BYTE PTR [eax+0x28],dh
  405a97:	pop    edx
  405a98:	add    BYTE PTR [eax],al
  405a9a:	or     dl,BYTE PTR ds:0x12028
  405aa0:	or     bh,BYTE PTR [esi+0x5e]
  405aa3:	add    BYTE PTR [eax],al
  405aa5:	add    al,0x17
  405aa7:	xor    edi,DWORD PTR [esi]
  405aa9:	sub    BYTE PTR [ebp+0x28060000],ah
  405aaf:	nop
  405ab0:	add    BYTE PTR [eax],al
  405ab2:	or     ch,BYTE PTR ds:0x1112832
  405ab8:	add    BYTE PTR [edx],cl
  405aba:	jb     0x405aaa
  405abc:	dec    ebp
  405abd:	add    BYTE PTR [eax+0x17],dh
  405ac0:	lea    eax,[ecx]
  405ac2:	add    BYTE PTR [eax],al
  405ac4:	add    DWORD PTR [ebx],edx
  405ac6:	push   es
  405ac7:	adc    DWORD PTR [esi],eax
  405ac9:	push   ss
  405aca:	sub    BYTE PTR [ebp-0x73fa0000],ah
  405ad0:	push   ecx
  405ad1:	add    BYTE PTR [eax],al
  405ad3:	add    DWORD PTR [edx+0x5d280611],esp
  405ad9:	add    BYTE PTR [eax],al
  405adb:	or     ch,BYTE PTR [eax]
  405add:	pop    edx
  405ade:	add    BYTE PTR [eax],al
  405ae0:	or     dl,BYTE PTR ds:0x12028
  405ae6:	or     dh,BYTE PTR [ebx+0x5a]
  405ae9:	add    BYTE PTR [eax],al
  405aeb:	push   es
  405aec:	or     dh,BYTE PTR [edx+0x3a]
  405aef:	dec    esi
  405af0:	add    BYTE PTR [eax+0x17],dh
  405af3:	lea    eax,[ecx]
  405af5:	add    BYTE PTR [eax],al
  405af7:	add    DWORD PTR [ebx],edx
  405af9:	pop    es
  405afa:	adc    DWORD PTR [edi],eax
  405afc:	push   ss
  405afd:	jle    0x405b5d
  405aff:	add    BYTE PTR [eax],al
  405b01:	add    al,0x8c
  405b03:	sbb    eax,0xa2010000
  405b08:	adc    DWORD PTR [edi],eax
  405b0a:	sub    BYTE PTR [ebx],ah
  405b0c:	add    BYTE PTR [eax],al
  405b0e:	or     al,BYTE PTR [esi]
  405b10:	sub    BYTE PTR [ebp+0x7e060000],ah
  405b16:	pop    esi
  405b17:	add    BYTE PTR [eax],al
  405b19:	add    al,0x6f
  405b1b:	push   esp
  405b1c:	add    BYTE PTR [eax],al
  405b1e:	push   es
  405b1f:	jb     0x405ab3
  405b21:	dec    esi
  405b22:	add    BYTE PTR [eax+0x17],dh
  405b25:	lea    eax,[ecx]
  405b27:	add    BYTE PTR [eax],al
  405b29:	add    DWORD PTR [ebx],edx
  405b2b:	or     BYTE PTR [ecx],dl
  405b2d:	or     BYTE PTR [esi],dl
  405b2f:	sub    BYTE PTR [ebp-0x73fa0000],ah
  405b35:	push   ecx
  405b36:	add    BYTE PTR [eax],al
  405b38:	add    DWORD PTR [edx+0x23280811],esp
  405b3e:	add    BYTE PTR [eax],al
  405b40:	or     bl,dh
  405b42:	inc    ebp
  405b43:	or     al,0x72
  405b45:	int3   
  405b46:	dec    esi
  405b47:	add    BYTE PTR [eax+0x17],dh
  405b4a:	lea    eax,[ecx]
  405b4c:	add    BYTE PTR [eax],al
  405b4e:	add    DWORD PTR [ebx],edx
  405b50:	or     DWORD PTR [ecx],edx
  405b52:	or     DWORD PTR [esi],edx
  405b54:	or     BYTE PTR [edx+0x23280911],ah
  405b5a:	add    BYTE PTR [eax],al
  405b5c:	or     ch,BYTE PTR [eax]
  405b5e:	adc    DWORD PTR [ecx],eax
  405b60:	add    BYTE PTR [edx],cl
  405b62:	jb     0x405b30
  405b64:	dec    esi
  405b65:	add    BYTE PTR [eax+0x17],dh
  405b68:	lea    eax,[ecx]
  405b6a:	add    BYTE PTR [eax],al
  405b6c:	add    DWORD PTR [ebx],edx
  405b6e:	or     dl,BYTE PTR [ecx]
  405b70:	or     dl,BYTE PTR [esi]
  405b72:	or     BYTE PTR [edx+0x5d280a11],ah
  405b78:	add    BYTE PTR [eax],al
  405b7a:	or     ch,BYTE PTR [eax]
  405b7c:	pop    edx
  405b7d:	add    BYTE PTR [eax],al
  405b7f:	or     dl,BYTE PTR ds:0x12028
  405b85:	or     bl,dh
  405b87:	add    dh,bl
  405b89:	or     cl,BYTE PTR [ecx]
  405b8b:	sub    al,0x6
  405b8d:	or     DWORD PTR [edi+0x1],ebp
  405b90:	add    BYTE PTR [eax],al
  405b92:	or     bl,ah
  405b94:	jle    0x405bf5
  405b96:	add    BYTE PTR [eax],al
  405b98:	add    al,0x6f
  405b9a:	sbb    eax,0x260a0001
  405b9f:	jle    0x405c00
  405ba1:	add    BYTE PTR [eax],al
  405ba3:	add    al,0x6f
  405ba5:	pop    DWORD PTR [eax]
  405ba7:	add    BYTE PTR [edx],cl
  405ba9:	sub    BYTE PTR es:[ebx+0x6060000],ah
  405bb0:	sub    BYTE PTR [esi+0x2a060000],bl
  405bb6:	add    BYTE PTR [eax],al
  405bb8:	inc    ecx
  405bb9:	xor    al,0x0
  405bbb:	add    BYTE PTR [eax],al
  405bbd:	add    BYTE PTR [eax],al
  405bbf:	add    BYTE PTR [edx],dh
  405bc1:	add    BYTE PTR [eax],al
  405bc3:	add    BYTE PTR [ecx+0x1],dl
  405bc6:	add    BYTE PTR [eax],al
  405bc8:	add    DWORD PTR [ecx],0x0
  405bcb:	add    BYTE PTR [ebp+0x0],al
  405bce:	add    BYTE PTR [eax],al
  405bd0:	arpl   WORD PTR [eax],ax
  405bd2:	add    BYTE PTR [ecx],al
  405bd4:	add    al,BYTE PTR [eax]
  405bd6:	add    BYTE PTR [eax],al
  405bd8:	xor    al,BYTE PTR [eax]
  405bda:	add    BYTE PTR [eax],al
  405bdc:	cwde   
  405bdd:	add    DWORD PTR [eax],eax
  405bdf:	add    dl,cl
  405be1:	add    DWORD PTR [eax],eax
  405be3:	add    BYTE PTR [edx],cl
  405be5:	add    BYTE PTR [eax],al
  405be7:	add    BYTE PTR [eax],al
  405be9:	add    BYTE PTR [eax],al
  405beb:	add    BYTE PTR [ebx],dl
  405bed:	xor    BYTE PTR [eax+eax*1],al
  405bf0:	pop    edx
  405bf1:	add    BYTE PTR [eax],al
  405bf3:	add    BYTE PTR ds:0x16110000,bh
  405bf9:	or     al,BYTE PTR [edx]
  405bfb:	mov    gs,WORD PTR [ecx+0x2d]
  405bfe:	add    al,0x17
  405c00:	or     ch,BYTE PTR [ebx]
  405c02:	sub    DWORD PTR [esi],edx
  405c04:	or     edi,DWORD PTR [esi+0x5c]
  405c07:	add    BYTE PTR [eax],al
  405c09:	add    al,0x2
  405c0b:	pop    es
  405c0c:	call   0x2c0a:0x1286f
  405c13:	add    al,0x18
  405c15:	or     ch,BYTE PTR [ebx]
  405c17:	adc    al,0x2
  405c19:	push   ss
  405c1a:	call   0x1:0x29280212
  405c21:	or     ch,BYTE PTR [eax+ecx*1]
  405c24:	pop    ss
  405c25:	or     cl,BYTE PTR [eax]
  405c27:	sub    BYTE PTR [eax+eax*1+0x1a720600],ah
  405c2e:	dec    edi
  405c2f:	add    BYTE PTR [eax+0x17],dh
  405c32:	lea    eax,[ecx]
  405c34:	add    BYTE PTR [eax],al
  405c36:	add    DWORD PTR ds:0x5e7e1609,ecx
  405c3c:	add    BYTE PTR [eax],al
  405c3e:	add    al,0x8c
  405c40:	sbb    eax,0x6f010000
  405c45:	xor    DWORD PTR [eax],eax
  405c47:	add    BYTE PTR [edx],cl
  405c49:	mov    ds:0x282809,al
  405c4e:	add    BYTE PTR [edx],cl
  405c50:	push   es
  405c51:	sub    bh,BYTE PTR [esi+0x12a28]
  405c57:	or     al,BYTE PTR [edx]
  405c59:	sub    al,0x6
  405c5b:	add    ch,BYTE PTR [edi-0x38]
  405c5e:	add    BYTE PTR [eax],al
  405c60:	or     ch,BYTE PTR [eax]
  405c62:	and    al,BYTE PTR [ecx]
  405c64:	add    BYTE PTR [edx],cl
  405c66:	adc    al,0xfe
  405c68:	push   es
  405c69:	mov    al,ds:0x73060000
  405c6e:	and    eax,DWORD PTR [ecx]
  405c70:	add    BYTE PTR [edx],cl
  405c72:	outs   dx,DWORD PTR ds:[esi]
  405c73:	sub    eax,DWORD PTR [ecx]
  405c75:	add    BYTE PTR [edx],cl
  405c77:	jb     0x405ccb
  405c79:	dec    edi
  405c7a:	add    BYTE PTR [eax+0x28],dh
  405c7d:	cmp    BYTE PTR [eax],al
  405c7f:	add    BYTE PTR [edx],cl
  405c81:	sub    al,BYTE PTR [eax]
  405c83:	add    BYTE PTR [ebx],dl
  405c85:	xor    BYTE PTR ds:0x11d00,al
  405c8b:	add    BYTE PTR [esi],bh
  405c8d:	add    BYTE PTR [eax],al
  405c8f:	adc    DWORD PTR [eax],ebp
  405c91:	aam    0x0
  405c93:	add    BYTE PTR [edx],cl
  405c95:	jb     0x405c1f
  405c97:	dec    edi
  405c98:	add    BYTE PTR [eax+0x28],dh
  405c9b:	sub    eax,0x800a0000
  405ca0:	pop    edx
  405ca1:	add    BYTE PTR [eax],al
  405ca3:	add    al,0x7e
  405ca5:	pop    edx
  405ca6:	add    BYTE PTR [eax],al
  405ca8:	add    al,0x28
  405caa:	mov    eax,ds:0x80060000
  405caf:	pop    edx
  405cb0:	add    BYTE PTR [eax],al
  405cb2:	add    al,0x28
  405cb4:	xor    BYTE PTR [eax],al
  405cb6:	add    BYTE PTR [edx],cl
  405cb8:	push   ss
  405cb9:	ds out dx,al
  405cbb:	add    BYTE PTR [eax],al
  405cbd:	add    BYTE PTR [edx+ecx*1],dl
  405cc0:	jle    0x405d1c
  405cc2:	add    BYTE PTR [eax],al
  405cc4:	add    al,0x28
  405cc6:	stos   DWORD PTR es:[edi],eax
  405cc7:	add    BYTE PTR [eax],al
  405cc9:	or     bh,BYTE PTR [edx]
  405ccb:	fld    QWORD PTR [eax]
  405ccd:	add    BYTE PTR [eax],al
  405ccf:	jle    0x405d2b
  405cd1:	add    BYTE PTR [eax],al
  405cd3:	add    al,0x72
  405cd5:	stos   BYTE PTR es:[edi],al
  405cd6:	dec    edi
  405cd7:	add    BYTE PTR [eax+0x28],dh
  405cda:	sub    eax,0xb0a0000
  405cdf:	pop    es
  405ce0:	jae    0x405d0e
  405ce2:	add    DWORD PTR [eax],eax
  405ce4:	or     cl,BYTE PTR [edx]
  405ce6:	sub    BYTE PTR ds:0x60a0001,ch
  405cec:	outs   dx,DWORD PTR ds:[esi]
  405ced:	add    DWORD PTR cs:[eax],eax
  405cf0:	or     ah,BYTE PTR [esi]
  405cf2:	pop    ss
  405cf3:	sub    BYTE PTR [edi],ch
  405cf5:	add    DWORD PTR [eax],eax
  405cf7:	or     dh,BYTE PTR [edx-0x2c]
  405cfa:	dec    edi
  405cfb:	add    BYTE PTR [eax+0x28],dh
  405cfe:	xor    BYTE PTR [ecx],al
  405d00:	add    BYTE PTR [edx],cl
  405d02:	jb     0x405cd8
  405d04:	dec    edi
  405d05:	add    BYTE PTR [eax+0x28],dh
  405d08:	xor    BYTE PTR [ecx],al
  405d0a:	add    BYTE PTR [edx],cl
  405d0c:	pop    ds
  405d0d:	sub    bl,BYTE PTR [edi]
  405d0f:	pusha  
  405d10:	jae    0x405d43
  405d12:	add    DWORD PTR [eax],eax
  405d14:	or     ch,BYTE PTR [eax]
  405d16:	xor    BYTE PTR [ecx],al
  405d18:	add    BYTE PTR [edx],cl
  405d1a:	sub    BYTE PTR [ecx],dl
  405d1c:	add    DWORD PTR [eax],eax
  405d1e:	or     dh,BYTE PTR [edx-0x2a]
  405d21:	dec    edi
  405d22:	add    BYTE PTR [eax+0x17],dh
  405d25:	lea    eax,[ecx]
  405d27:	add    BYTE PTR [eax],al
  405d29:	add    DWORD PTR ds:0x6281609,ecx
  405d2f:	add    DWORD PTR [eax],eax
  405d31:	or     cl,BYTE PTR [ecx+ecx*1-0x5dff0000]
  405d38:	or     DWORD PTR [eax],ebp
  405d3a:	pop    ebp
  405d3b:	add    BYTE PTR [eax],al
  405d3d:	or     cl,BYTE PTR [eax+ecx*1]
  405d40:	sub    BYTE PTR [eax],dh
  405d42:	add    DWORD PTR [eax],eax
  405d44:	or     ch,BYTE PTR [eax]
  405d46:	adc    DWORD PTR [ecx],eax
  405d48:	add    BYTE PTR [edx],cl
  405d4a:	jb     0x405db7
  405d4c:	push   eax
  405d4d:	add    BYTE PTR [eax+0x17],dh
  405d50:	lea    eax,[ecx]
  405d52:	add    BYTE PTR [eax],al
  405d54:	add    DWORD PTR [ebx],edx
  405d56:	add    al,0x11
  405d58:	add    al,0x16
  405d5a:	sub    BYTE PTR [esi],bl
  405d5c:	add    BYTE PTR [eax],al
  405d5e:	or     ch,BYTE PTR [edi+0x31]
  405d61:	add    BYTE PTR [eax],al
  405d63:	or     ah,BYTE PTR [edx+0x5d280411]
  405d69:	add    BYTE PTR [eax],al
  405d6b:	or     ch,BYTE PTR [eax]
  405d6d:	xor    BYTE PTR [ecx],al
  405d6f:	add    BYTE PTR [edx],cl
  405d71:	sub    BYTE PTR [ecx],dl
  405d73:	add    DWORD PTR [eax],eax
  405d75:	or     dh,BYTE PTR [edx-0x73]
  405d78:	push   eax
  405d79:	add    BYTE PTR [eax+0x17],dh
  405d7c:	lea    eax,[ecx]
  405d7e:	add    BYTE PTR [eax],al
  405d80:	add    DWORD PTR [ebx],edx
  405d82:	add    eax,0x28160511
  405d87:	repnz add BYTE PTR [eax],al
  405d8a:	or     ch,BYTE PTR [edi+0x32]
  405d8d:	add    DWORD PTR [eax],eax
  405d8f:	or     ch,BYTE PTR [edi+0x33]
  405d92:	add    DWORD PTR [eax],eax
  405d94:	or     ah,BYTE PTR [edx+0x5d280511]
  405d9a:	add    BYTE PTR [eax],al
  405d9c:	or     ch,BYTE PTR [eax]
  405d9e:	xor    BYTE PTR [ecx],al
  405da0:	add    BYTE PTR [edx],cl
  405da2:	jb     0x405d78
  405da4:	dec    edi
  405da5:	add    BYTE PTR [eax+0x28],dh
  405da8:	xor    BYTE PTR [ecx],al
  405daa:	add    BYTE PTR [edx],cl
  405dac:	sub    al,BYTE PTR [eax]
  405dae:	add    BYTE PTR [eax],al
  405db0:	adc    esi,DWORD PTR [eax]
  405db2:	add    al,0x0
  405db4:	and    DWORD PTR [eax],eax
  405db6:	add    BYTE PTR [eax],al
  405db8:	or     al,BYTE PTR [eax]
  405dba:	add    BYTE PTR [ecx],dl
  405dbc:	jb     0x405d7d
  405dbe:	push   eax
  405dbf:	add    BYTE PTR [eax+0x17],dh
  405dc2:	lea    eax,[ecx]
  405dc4:	add    BYTE PTR [eax],al
  405dc6:	add    DWORD PTR [edx],ecx
  405dc8:	push   es
  405dc9:	push   ss
  405dca:	add    ebp,DWORD PTR [edi+0x34]
  405dcd:	add    DWORD PTR [eax],eax
  405dcf:	or     ah,BYTE PTR [edx+0x2c2806]
  405dd5:	add    BYTE PTR [edx],cl
  405dd7:	sub    BYTE PTR [edx],ch
  405dd9:	add    DWORD PTR [eax],eax
  405ddb:	or     ch,BYTE PTR [edx]
  405ddd:	add    BYTE PTR [eax],al
  405ddf:	add    BYTE PTR [ebx],bl
  405de1:	xor    BYTE PTR ds:0xe300,al
  405de7:	add    BYTE PTR [edi],bh
  405de9:	add    BYTE PTR [eax],al
  405deb:	adc    DWORD PTR [edx],eax
  405ded:	sub    bh,dl
  405def:	add    BYTE PTR [eax],al
  405df1:	or     ch,BYTE PTR ds:0xd8280207
  405df7:	add    BYTE PTR [eax],al
  405df9:	or     ah,BYTE PTR [esi]
  405dfb:	add    dh,BYTE PTR [edx+0x15]
  405dfe:	push   ecx
  405dff:	add    BYTE PTR [eax+0x28],dh
  405e02:	xor    eax,0xa0a0001
  405e07:	and    BYTE PTR [eax],al
  405e09:	add    BYTE PTR [eax],al
  405e0b:	or     BYTE PTR [ebx],0x20
  405e0e:	add    BYTE PTR [eax],al
  405e10:	add    BYTE PTR [eax+0x20d170c],al
  405e16:	jb     0x405e47
  405e18:	push   ecx
  405e19:	add    BYTE PTR [eax+0x28],dh
  405e1c:	sub    eax,0x130a0000
  405e21:	add    al,0x17
  405e23:	adc    eax,DWORD PTR ds:0x16081306
  405e29:	adc    ecx,DWORD PTR [ecx]
  405e2b:	sub    edi,DWORD PTR [edx]
  405e2d:	adc    DWORD PTR [eax],ecx
  405e2f:	adc    DWORD PTR [ecx],ecx
  405e31:	call   0x7202:0x6110613
  405e38:	aas    
  405e39:	push   ecx
  405e3a:	add    BYTE PTR [eax+0x28],dh
  405e3d:	sub    eax,0x6f0a0000
  405e42:	fld    DWORD PTR [eax]
  405e44:	add    BYTE PTR [edx],cl
  405e46:	outs   dx,DWORD PTR ds:[esi]
  405e47:	fiadd  DWORD PTR [eax]
  405e49:	add    BYTE PTR [edx],cl
  405e4b:	adc    eax,DWORD PTR [edi]
  405e4d:	adc    DWORD PTR [edi],eax
  405e4f:	adc    al,BYTE PTR [ecx]
  405e51:	sub    BYTE PTR [ecx],ch
  405e53:	add    DWORD PTR [eax],eax
  405e55:	or     ch,BYTE PTR [ecx+ecx*1]
  405e58:	pop    es
  405e59:	or     BYTE PTR [ecx],dh
  405e5b:	add    eax,0x13160c07
  405e60:	add    eax,0x58170911
  405e65:	adc    ecx,DWORD PTR [ecx]
  405e67:	adc    DWORD PTR [ecx],ecx
  405e69:	adc    DWORD PTR [eax],ecx
  405e6b:	mov    gs,WORD PTR [ecx+0x32]
  405e6e:	mov    esi,0x42d0511
  405e73:	or     BYTE PTR [edi],dl
  405e75:	pop    eax
  405e76:	or     eax,0xd7280411
  405e7b:	add    BYTE PTR [eax],al
  405e7d:	or     ch,BYTE PTR [esp+eax*2]
  405e80:	adc    DWORD PTR [edx+eax*1],eax
  405e83:	jb     0x405ec4
  405e85:	push   ecx
  405e86:	add    BYTE PTR [eax+0x12],dh
  405e89:	add    ebp,DWORD PTR [eax]
  405e8b:	adc    DWORD PTR [ecx],eax
  405e8d:	add    BYTE PTR [edx],cl
  405e8f:	sub    BYTE PTR [esi],dh
  405e91:	add    DWORD PTR [eax],eax
  405e93:	or     ch,BYTE PTR [eax]
  405e95:	rol    DWORD PTR [eax],0x0
  405e98:	or     ch,BYTE PTR [eax]
  405e9a:	sub    eax,0x280a0000
  405e9f:	aaa    
  405ea0:	add    DWORD PTR [eax],eax
  405ea2:	or     bl,dh
  405ea4:	pop    ds
  405ea5:	add    ch,BYTE PTR es:[eax]
  405ea8:	cmp    BYTE PTR [ecx],al
  405eaa:	add    BYTE PTR [edx],cl
  405eac:	adc    ecx,DWORD PTR [edx]
  405eae:	adc    cl,BYTE PTR [edx]
  405eb0:	(bad)  
  405eb1:	push   ss
  405eb2:	fadd   DWORD PTR [eax]
  405eb4:	add    BYTE PTR [ecx],al
  405eb6:	outs   dx,DWORD PTR ds:[esi]
  405eb7:	xor    DWORD PTR [eax],eax
  405eb9:	add    BYTE PTR [edx],cl
  405ebb:	sub    BYTE PTR ds:0x130a0000,ch
  405ec1:	add    al,0xde
  405ec3:	add    BYTE PTR [ecx],dl
  405ec5:	add    al,0x28
  405ec7:	fadd   DWORD PTR [eax]
  405ec9:	add    BYTE PTR [edx],cl
  405ecb:	adc    DWORD PTR es:[edx+ebp*1],eax
  405ecf:	add    BYTE PTR [ecx],al
  405ed1:	adc    BYTE PTR [eax],al
  405ed3:	add    BYTE PTR [eax],al
  405ed5:	add    BYTE PTR [eax+eax*1+0x1f00b925],dl
  405edc:	arpl   WORD PTR [eax],ax
  405ede:	add    BYTE PTR [ecx],al
  405ee0:	adc    esi,DWORD PTR [eax]
  405ee2:	add    al,0x0
  405ee4:	add    BYTE PTR ds:[eax],al
  405ee7:	add    BYTE PTR [edx],cl
  405ee9:	add    BYTE PTR [eax],al
  405eeb:	adc    DWORD PTR [edx+0x57],esi
  405eee:	push   ecx
  405eef:	add    BYTE PTR [eax+0x28],dh
  405ef2:	cmp    BYTE PTR [eax],al
  405ef4:	add    BYTE PTR [edx],cl
  405ef6:	jae    0x405f0a
  405ef8:	add    BYTE PTR [eax],al
  405efa:	push   es
  405efb:	sbb    BYTE PTR [ebx+0x0],0x0
  405eff:	add    al,0x72
  405f01:	mov    ds:0x17700051,eax
  405f06:	lea    eax,[ecx]
  405f08:	add    BYTE PTR [eax],al
  405f0a:	add    DWORD PTR [edx],ecx
  405f0c:	push   es
  405f0d:	push   ss
  405f0e:	jle    0x405f6a
  405f10:	add    BYTE PTR [eax],al
  405f12:	add    al,0xa2
  405f14:	push   es
  405f15:	sub    BYTE PTR [eax],ch
  405f17:	add    BYTE PTR [eax],al
  405f19:	or     bh,BYTE PTR [esi+0x5b]
  405f1c:	add    BYTE PTR [eax],al
  405f1e:	add    al,0x7e
  405f20:	pop    edx
  405f21:	add    BYTE PTR [eax],al
  405f23:	add    al,0x6f
  405f25:	or     eax,DWORD PTR [eax]
  405f27:	add    BYTE PTR [esi],al
  405f29:	sub    bh,BYTE PTR [esi+0x72]
  405f2c:	dec    esp
  405f2d:	push   edx
  405f2e:	add    BYTE PTR [eax+0x28],dh
  405f31:	cmp    BYTE PTR [eax],al
  405f33:	add    BYTE PTR [edx],cl
  405f35:	jb     0x405ecd
  405f37:	push   edx
  405f38:	add    BYTE PTR [eax+0x28],dh
  405f3b:	cmp    eax,0x7e0a0000
  405f40:	pop    ebx
  405f41:	add    BYTE PTR [eax],al
  405f43:	add    al,0x6f
  405f45:	or     al,0x0
  405f47:	add    BYTE PTR [esi],al
  405f49:	sub    bl,BYTE PTR [esi]
  405f4b:	add    al,BYTE PTR [eax+0x4000060]
  405f51:	sub    al,BYTE PTR [eax]
  405f53:	add    BYTE PTR [ebx],dl
  405f55:	xor    BYTE PTR [edx],al
  405f57:	add    BYTE PTR [ebx+0x0],al
  405f5a:	add    BYTE PTR [eax],al
  405f5c:	inc    eax
  405f5d:	add    BYTE PTR [eax],al
  405f5f:	adc    DWORD PTR [esi+0x60],edi
  405f62:	add    BYTE PTR [eax],al
  405f64:	add    al,0x15
  405f66:	cs push es
  405f68:	jle    0x405fca
  405f6a:	add    BYTE PTR [eax],al
  405f6c:	add    al,0x2a
  405f6e:	sub    BYTE PTR [edi+0x0],al
  405f71:	add    BYTE PTR [edx],cl
  405f73:	or     eax,DWORD PTR [edi]
  405f75:	outs   dx,DWORD PTR ds:[esi]
  405f76:	mov    ds:0x160a0000,al
  405f7b:	xor    DWORD PTR [eax],esp
  405f7d:	pop    es
  405f7e:	jb     0x405f84
  405f80:	push   ebx
  405f81:	add    BYTE PTR [eax+0x6f],dh
  405f84:	fwait
  405f85:	add    BYTE PTR [eax],al
  405f87:	or     dl,BYTE PTR [edx]
  405f89:	add    BYTE PTR [eax],ch
  405f8b:	sub    DWORD PTR [ecx],eax
  405f8d:	add    BYTE PTR [edx],cl
  405f8f:	sub    al,0xc
  405f91:	push   es
  405f92:	push   ss
  405f93:	xor    BYTE PTR [esi],al
  405f95:	and    dl,bh
  405f97:	sbb    al,BYTE PTR [eax]
  405f99:	add    BYTE PTR [edx],ch
  405f9b:	push   es
  405f9c:	sub    ah,BYTE PTR [eax]
  405f9e:	cli    
  405f9f:	sbb    al,BYTE PTR [eax]
  405fa1:	add    BYTE PTR [edx],ch
  405fa3:	add    BYTE PTR [ebx],dl
  405fa5:	xor    BYTE PTR [ebx],al
  405fa7:	add    BYTE PTR [esi+0x0],dh
  405faa:	add    BYTE PTR [eax],al
  405fac:	inc    ecx
  405fad:	add    BYTE PTR [eax],al
  405faf:	adc    DWORD PTR [eax+eax*4],edx
  405fb2:	pop    edx
  405fb3:	add    BYTE PTR [eax],al
  405fb5:	add    al,0x19
  405fb7:	lea    ecx,[eax+eax*1+0x0]
  405fbb:	add    DWORD PTR [edx],ecx
  405fbd:	push   es
  405fbe:	push   ss
  405fbf:	jb     0x405fdd
  405fc1:	push   ebx
  405fc2:	add    BYTE PTR [eax-0x5e],dh
  405fc5:	push   es
  405fc6:	pop    ss
  405fc7:	jb     0x405feb
  405fc9:	push   ebx
  405fca:	add    BYTE PTR [eax-0x5e],dh
  405fcd:	push   es
  405fce:	sbb    BYTE PTR [edx+0x38],dh
  405fd1:	push   ebx
  405fd2:	add    BYTE PTR [eax-0x5e],dh
  405fd5:	push   es
  405fd6:	sub    BYTE PTR [ecx],bh
  405fd8:	add    DWORD PTR [eax],eax
  405fda:	or     dh,BYTE PTR [ebx+0x3a]
  405fdd:	add    DWORD PTR [eax],eax
  405fdf:	or     al,BYTE PTR [eax+0x400005c]
  405fe5:	sbb    DWORD PTR [ebp+0x100004c],ecx
  405feb:	or     eax,DWORD PTR [edi]
  405fed:	push   ss
  405fee:	jb     0x406046
  405ff0:	push   ebx
  405ff1:	add    BYTE PTR [eax-0x5e],dh
  405ff4:	pop    es
  405ff5:	pop    ss
  405ff6:	jb     0x406054
  405ff8:	push   ebx
  405ff9:	add    BYTE PTR [eax-0x5e],dh
  405ffc:	pop    es
  405ffd:	sbb    BYTE PTR [edx+0x62],dh
  406000:	push   ebx
  406001:	add    BYTE PTR [eax-0x5e],dh
  406004:	pop    es
  406005:	sub    BYTE PTR [ecx],bh
  406007:	add    DWORD PTR [eax],eax
  406009:	or     dh,BYTE PTR [ebx+0x3a]
  40600c:	add    DWORD PTR [eax],eax
  40600e:	or     al,BYTE PTR [eax+0x400005d]
  406014:	push   ss
  406015:	jae    0x405fac
  406017:	add    BYTE PTR [eax],al
  406019:	or     al,BYTE PTR [eax+0x400005f]
  40601f:	adc    eax,0x6080
  406024:	add    al,0x2a
  406026:	push   ds
  406027:	add    ch,BYTE PTR [eax]
  406029:	sbb    eax,DWORD PTR [eax]
  40602b:	add    BYTE PTR [edx],cl
  40602d:	sub    bl,BYTE PTR [esi]
  40602f:	add    ch,BYTE PTR [eax]
  406031:	sbb    eax,DWORD PTR [eax]
  406033:	add    BYTE PTR [edx],cl
  406035:	sub    al,BYTE PTR [eax]
  406037:	add    BYTE PTR [ebx],dl
  406039:	xor    BYTE PTR [edx],al
  40603b:	add    BYTE PTR [ebx],dh
  40603d:	add    BYTE PTR [eax],al
  40603f:	add    BYTE PTR [edx+0x0],al
  406042:	add    BYTE PTR [ecx],dl
  406044:	jle    0x4060a7
  406046:	add    BYTE PTR [eax],al
  406048:	add    al,0x14
  40604a:	sub    BYTE PTR ds:0x2c0a0001,bh
  406050:	and    BYTE PTR [edx+0x68],dh
  406053:	push   ebx
  406054:	add    BYTE PTR [eax-0x30],dh
  406057:	adc    al,0x0
  406059:	add    BYTE PTR [edx],al
  40605b:	sub    BYTE PTR [eax+0x6f0a0000],cl
  406061:	add    DWORD PTR ds:[eax],eax
  406064:	or     dh,BYTE PTR [ebx+0x3f]
  406067:	add    DWORD PTR [eax],eax
  406069:	or     cl,BYTE PTR [edx]
  40606b:	push   es
  40606c:	and    BYTE PTR [ecx+0x0],0x0
  406070:	add    al,0x7e
  406072:	popa   
  406073:	add    BYTE PTR [eax],al
  406075:	add    al,0x2a
  406077:	sbb    bh,BYTE PTR [esi+0x62]
  40607a:	add    BYTE PTR [eax],al
  40607c:	add    al,0x2a
  40607e:	push   ds
  40607f:	add    al,BYTE PTR [eax+0x4000062]
  406085:	sub    dl,BYTE PTR [esi+0x28]
  406088:	test   eax,0x72060000
  40608d:	sbb    DWORD PTR [eax+eax*1+0x70],edx
  406091:	jle    0x4060f5
  406093:	add    BYTE PTR [eax],al
  406095:	add    al,0x6f
  406097:	inc    eax
  406098:	add    DWORD PTR [eax],eax
  40609a:	or     ch,BYTE PTR [edx]
  40609c:	push   esi
  40609d:	sub    BYTE PTR [ecx+0x72060000],ch
  4060a3:	outs   dx,DWORD PTR ds:[esi]
  4060a4:	push   esp
  4060a5:	add    BYTE PTR [eax+0x7e],dh
  4060a8:	bound  eax,QWORD PTR [eax]
  4060aa:	add    BYTE PTR [edi+ebp*2],al
  4060ad:	inc    eax
  4060ae:	add    DWORD PTR [eax],eax
  4060b0:	or     ch,BYTE PTR [edx]
  4060b2:	push   esi
  4060b3:	sub    BYTE PTR [ecx+0x72060000],ch
  4060b9:	(bad)  
  4060ba:	push   esp
  4060bb:	add    BYTE PTR [eax+0x7e],dh
  4060be:	bound  eax,QWORD PTR [eax]
  4060c0:	add    BYTE PTR [edi+ebp*2],al
  4060c3:	inc    eax
  4060c4:	add    DWORD PTR [eax],eax
  4060c6:	or     ch,BYTE PTR [edx]
  4060c8:	push   esi
  4060c9:	sub    BYTE PTR [ecx+0x72060000],ch
  4060cf:	sbb    edx,DWORD PTR [ebp+0x0]
  4060d2:	jo     0x406152
  4060d4:	bound  eax,QWORD PTR [eax]
  4060d6:	add    BYTE PTR [edi+ebp*2],al
  4060d9:	inc    eax
  4060da:	add    DWORD PTR [eax],eax
  4060dc:	or     ch,BYTE PTR [edx]
  4060de:	push   esi
  4060df:	sub    BYTE PTR [ecx+0x72060000],ch
  4060e5:	dec    edi
  4060e6:	push   ebp
  4060e7:	add    BYTE PTR [eax+0x7e],dh
  4060ea:	bound  eax,QWORD PTR [eax]
  4060ec:	add    BYTE PTR [edi+ebp*2],al
  4060ef:	inc    eax
  4060f0:	add    DWORD PTR [eax],eax
  4060f2:	or     ch,BYTE PTR [edx]
  4060f4:	push   esi
  4060f5:	sub    BYTE PTR [ecx+0x72060000],ch
  4060fb:	jg     0x406152
  4060fd:	add    BYTE PTR [eax+0x7e],dh
  406100:	bound  eax,QWORD PTR [eax]
  406102:	add    BYTE PTR [edi+ebp*2],al
  406105:	inc    eax
  406106:	add    DWORD PTR [eax],eax
  406108:	or     ch,BYTE PTR [edx]
  40610a:	push   esi
  40610b:	sub    BYTE PTR [ecx+0x72060000],ch
  406111:	movs   DWORD PTR es:[edi],DWORD PTR ds:[esi]
  406112:	push   ebp
  406113:	add    BYTE PTR [eax+0x7e],dh
  406116:	bound  eax,QWORD PTR [eax]
  406118:	add    BYTE PTR [edi+ebp*2],al
  40611b:	inc    eax
  40611c:	add    DWORD PTR [eax],eax
  40611e:	or     ch,BYTE PTR [edx]
  406120:	push   esi
  406121:	sub    BYTE PTR [ecx+0x72060000],ch
  406127:	jecxz  0x40617e
  406129:	add    BYTE PTR [eax+0x7e],dh
  40612c:	bound  eax,QWORD PTR [eax]
  40612e:	add    BYTE PTR [edi+ebp*2],al
  406131:	inc    eax
  406132:	add    DWORD PTR [eax],eax
  406134:	or     ch,BYTE PTR [edx]
  406136:	push   esi
  406137:	sub    BYTE PTR [ecx+0x72060000],ch
  40613d:	adc    eax,0x7e700056
  406142:	bound  eax,QWORD PTR [eax]
  406144:	add    BYTE PTR [edi+ebp*2],al
  406147:	inc    eax
  406148:	add    DWORD PTR [eax],eax
  40614a:	or     ch,BYTE PTR [edx]
  40614c:	push   esi
  40614d:	sub    BYTE PTR [ecx+0x72060000],ch
  406153:	gs push esi
  406155:	add    BYTE PTR [eax+0x7e],dh
  406158:	bound  eax,QWORD PTR [eax]
  40615a:	add    BYTE PTR [edi+ebp*2],al
  40615d:	inc    eax
  40615e:	add    DWORD PTR [eax],eax
  406160:	or     ch,BYTE PTR [edx]
  406162:	push   esi
  406163:	sub    BYTE PTR [ecx+0x72060000],ch
  406169:	fwait
  40616a:	push   esi
  40616b:	add    BYTE PTR [eax+0x7e],dh
  40616e:	bound  eax,QWORD PTR [eax]
  406170:	add    BYTE PTR [edi+ebp*2],al
  406173:	inc    eax
  406174:	add    DWORD PTR [eax],eax
  406176:	or     ch,BYTE PTR [edx]
  406178:	push   esi
  406179:	sub    BYTE PTR [ecx+0x72060000],ch
  40617f:	int    0x56
  406181:	add    BYTE PTR [eax+0x7e],dh
  406184:	bound  eax,QWORD PTR [eax]
  406186:	add    BYTE PTR [edi+ebp*2],al
  406189:	inc    eax
  40618a:	add    DWORD PTR [eax],eax
  40618c:	or     ch,BYTE PTR [edx]
  40618e:	push   esi
  40618f:	sub    BYTE PTR [ecx+0x72060000],ch
  406195:	call   DWORD PTR [esi+0x0]
  406198:	jo     0x406218
  40619a:	bound  eax,QWORD PTR [eax]
  40619c:	add    BYTE PTR [edi+ebp*2],al
  40619f:	inc    eax
  4061a0:	add    DWORD PTR [eax],eax
  4061a2:	or     ch,BYTE PTR [edx]
  4061a4:	push   esi
  4061a5:	sub    BYTE PTR [ecx+0x72060000],ch
  4061ab:	sub    DWORD PTR [edi+0x0],edx
  4061ae:	jo     0x40622e
  4061b0:	bound  eax,QWORD PTR [eax]
  4061b2:	add    BYTE PTR [edi+ebp*2],al
  4061b5:	inc    eax
  4061b6:	add    DWORD PTR [eax],eax
  4061b8:	or     ch,BYTE PTR [edx]
  4061ba:	add    BYTE PTR [eax],al
  4061bc:	add    BYTE PTR [eax],al
  4061be:	add    BYTE PTR [eax],al
  4061c0:	dec    DWORD PTR [ecx]
  4061c2:	add    BYTE PTR [eax],al
  4061c4:	into   
  4061c5:	retf   0xbeef
  4061c8:	add    DWORD PTR [eax],eax
  4061ca:	add    BYTE PTR [eax],al
  4061cc:	xchg   ecx,eax
  4061cd:	add    BYTE PTR [eax],al
  4061cf:	add    BYTE PTR [ebx+edx*2+0x79],ch
  4061d3:	jae    0x406249
  4061d5:	gs ins DWORD PTR es:[edi],dx
  4061d7:	cs push edx
  4061d9:	gs jae 0x40624b
  4061dc:	jne    0x406250
  4061de:	arpl   WORD PTR [ebp+0x73],sp
  4061e1:	cs push edx
  4061e3:	gs jae 0x406255
  4061e6:	jne    0x40625a
  4061e8:	arpl   WORD PTR [ebp+0x52],sp
  4061eb:	gs popa 
  4061ed:	fs gs jb 0x40621d
  4061f1:	and    BYTE PTR [ebp+0x73],ch
  4061f4:	arpl   WORD PTR [edi+0x72],bp
  4061f7:	ins    BYTE PTR es:[edi],dx
  4061f8:	imul   esp,DWORD PTR [edx+0x2c],0x72655620
  4061ff:	jae    0x40626a
  406201:	outs   dx,DWORD PTR ds:[esi]
  406202:	outs   dx,BYTE PTR ds:[esi]
  406203:	cmp    eax,0x2e302e34
  406208:	xor    BYTE PTR [esi],ch
  40620a:	xor    BYTE PTR [eax+eiz*1],ch
  40620d:	inc    ebx
  40620e:	jne    0x40627c
  406210:	je     0x406287
  406212:	jb     0x406279
  406214:	cmp    eax,0x7475656e
  406219:	jb     0x40627c
  40621b:	ins    BYTE PTR es:[edi],dx
  40621c:	sub    al,0x20
  40621e:	push   eax
  40621f:	jne    0x406283
  406221:	ins    BYTE PTR es:[edi],dx
  406222:	imul   esp,DWORD PTR [ebx+0x4b],0x6f547965
  406229:	imul   esp,DWORD PTR [ebp+0x6e],0x3d
  40622d:	bound  esi,QWORD PTR [edi]
  40622f:	aaa    
  406230:	popa   
  406231:	xor    eax,0x31363563
  406236:	cmp    DWORD PTR [ebx],esi
  406238:	xor    al,0x65
  40623a:	xor    BYTE PTR [eax],bh
  40623c:	cmp    DWORD PTR [ebx],esp
  40623e:	push   ebx
  40623f:	jns    0x4062b4
  406241:	je     0x4062a8
  406243:	ins    DWORD PTR es:[edi],dx
  406244:	cs push edx
  406246:	gs jae 0x4062b8
  406249:	jne    0x4062bd
  40624b:	arpl   WORD PTR [ebp+0x73],sp
  40624e:	cs push edx
  406250:	jne    0x4062c0
  406252:	je     0x4062bd
  406254:	ins    DWORD PTR es:[edi],dx
  406255:	gs push edx
  406257:	gs jae 0x4062c9
  40625a:	jne    0x4062ce
  40625c:	arpl   WORD PTR [ebp+0x53],sp
  40625f:	gs je  0x406264
  406262:	add    BYTE PTR [eax],al
  406264:	add    BYTE PTR [esi],cl
  406266:	add    BYTE PTR [eax],al
  406268:	add    BYTE PTR [eax],al
  40626a:	add    BYTE PTR [eax],al
  40626c:	add    BYTE PTR [eax+0x41],dl
  40626f:	inc    esp
  406270:	push   eax
  406271:	inc    ecx
  406272:	inc    esp
  406273:	push   eax
  406274:	movs   DWORD PTR es:[edi],DWORD PTR ds:[esi]
  406275:	in     eax,0x98
  406277:	xchg   esi,ecx
  406279:	mov    gs,WORD PTR [ecx+0x6412588d]
  40627f:	mov    fs,ebp
  406281:	pop    es
  406282:	sti    
  406283:	cwde   
  406284:	inc    esi
  406285:	sub    eax,0xc966aa06
  40628a:	jb     0x40624e
  40628c:	sar    DWORD PTR [edi-0x100f39a2],1
  406292:	loopne 0x406263
  406294:	adc    eax,0x1ef9d42f
  406299:	mov    BYTE PTR [ebx-0x2c95d3fd],dh
  40629f:	or     al,0xa4
  4062a1:	lahf   
  4062a2:	jbe    0x4062bf
  4062a4:	and    eax,0xfb201df3
  4062a9:	std    
  4062aa:	jnp    0x40630e
  4062ac:	mov    ah,0x0
  4062ae:	add    BYTE PTR [eax],al
  4062b0:	aad    0x2
  4062b2:	add    BYTE PTR [eax],al
  4062b4:	aaa    
  4062b5:	add    eax,DWORD PTR [eax]
  4062b7:	add    BYTE PTR [eax],al
  4062b9:	add    BYTE PTR [eax],al
  4062bb:	add    BYTE PTR [edx+eax*1],dl
  4062be:	add    BYTE PTR [eax],al
  4062c0:	or     al,BYTE PTR [ebx]
  4062c2:	add    BYTE PTR [eax],al
  4062c4:	sahf   
  4062c5:	add    DWORD PTR [eax],eax
  4062c7:	add    BYTE PTR [ecx+0x0],bl
  4062ca:	add    BYTE PTR [eax],al
  4062cc:	mov    al,ds:0x42000002
  4062d1:	add    DWORD PTR [eax],eax
  4062d3:	add    BYTE PTR [ebp+0x1],dh
  4062d6:	add    BYTE PTR [eax],al
  4062d8:	fild   WORD PTR [ecx]
  4062da:	add    BYTE PTR [eax],al
  4062dc:	add    al,BYTE PTR [bx+si]
  4062df:	add    BYTE PTR [ebx],cl
  4062e1:	add    DWORD PTR [eax],eax
  4062e3:	add    BYTE PTR [esp+eax*1+0x41540000],dh
  4062ea:	add    BYTE PTR [ebx+0x0],ah
  4062ed:	jno    0x4062ef
  4062ef:	jne    0x4062f1
  4062f1:	imul   eax,DWORD PTR [eax],0x690072
  4062f7:	outs   dx,BYTE PTR ds:[esi]
  4062f8:	add    BYTE PTR [edi+0x0],ah
  4062fb:	inc    esp
  4062fc:	add    BYTE PTR [ebp+0x0],ah
  4062ff:	jbe    0x406301
  406301:	dec    esp
  406302:	add    BYTE PTR [ecx+0x0],ch
  406305:	arpl   WORD PTR [eax],ax
  406307:	add    BYTE PTR gs:[esi+0x0],ch
  40630b:	jae    0x40630d
  40630d:	add    BYTE PTR gs:[esi+0x0],al
  406311:	popa   
  406312:	add    BYTE PTR [ecx+0x0],ch
  406315:	ins    BYTE PTR es:[edi],dx
  406316:	add    BYTE PTR [ebp+0x0],ah
  406319:	add    BYTE PTR fs:[edi+0x0],cl
  40631d:	jo     0x40631f
  40631f:	add    BYTE PTR gs:[edx+0x0],dh
  406323:	popa   
  406324:	add    BYTE PTR [eax+eax*1+0x69],dh
  406328:	add    BYTE PTR [edi+0x0],ch
  40632b:	outs   dx,BYTE PTR ds:[esi]
  40632c:	add    BYTE PTR [ebx+0x0],al
  40632f:	popa   
  406330:	add    BYTE PTR [esi+0x0],ch
  406333:	arpl   WORD PTR [eax],ax
  406335:	add    BYTE PTR gs:[eax+eax*1+0x65],ch
  40633a:	add    BYTE PTR [eax+eax*1+0x0],ah
  40633e:	add    BYTE PTR [eax],al
  406340:	add    BYTE PTR [esi+0x41],dl
  406343:	add    BYTE PTR [ebx+0x0],ah
  406346:	jno    0x406348
  406348:	jne    0x40634a
  40634a:	imul   eax,DWORD PTR [eax],0x690072
  406350:	outs   dx,BYTE PTR ds:[esi]
  406351:	add    BYTE PTR [edi+0x0],ah
  406354:	inc    esp
  406355:	add    BYTE PTR [ebp+0x0],ah
  406358:	jbe    0x40635a
  40635a:	dec    esp
  40635b:	add    BYTE PTR [ecx+0x0],ch
  40635e:	arpl   WORD PTR [eax],ax
  406360:	add    BYTE PTR gs:[esi+0x0],ch
  406364:	jae    0x406366
  406366:	add    BYTE PTR gs:[esi+0x0],al
  40636a:	popa   
  40636b:	add    BYTE PTR [ecx+0x0],ch
  40636e:	ins    BYTE PTR es:[edi],dx
  40636f:	add    BYTE PTR [ebp+0x0],ah
  406372:	add    BYTE PTR fs:[ebx+0x0],dl
  406376:	add    BYTE PTR gs:[edx+0x0],dh
  40637a:	jbe    0x40637c
  40637c:	add    BYTE PTR gs:[edx+0x0],dh
  406380:	dec    esi
  406381:	add    BYTE PTR [edi+0x0],ch
  406384:	je     0x406386
  406386:	push   edx
  406387:	add    BYTE PTR [ebp+0x0],ah
  40638a:	popa   
  40638b:	add    BYTE PTR [ebx+0x0],ah
  40638e:	push   0x62006100
  406393:	add    BYTE PTR [eax+eax*1+0x65],ch
  406397:	add    BYTE PTR [ebx+0x0],bl
  40639a:	add    BYTE PTR [eax],al
  40639c:	push   edx
  40639d:	inc    ecx
  40639e:	add    BYTE PTR [ebx+0x0],ah
  4063a1:	jno    0x4063a3
  4063a3:	jne    0x4063a5
  4063a5:	imul   eax,DWORD PTR [eax],0x690072
  4063ab:	outs   dx,BYTE PTR ds:[esi]
  4063ac:	add    BYTE PTR [edi+0x0],ah
  4063af:	inc    esp
  4063b0:	add    BYTE PTR [ebp+0x0],ah
  4063b3:	jbe    0x4063b5
  4063b5:	dec    esp
  4063b6:	add    BYTE PTR [ecx+0x0],ch
  4063b9:	arpl   WORD PTR [eax],ax
  4063bb:	add    BYTE PTR gs:[esi+0x0],ch
  4063bf:	jae    0x4063c1
  4063c1:	add    BYTE PTR gs:[esi+0x0],al
  4063c5:	popa   
  4063c6:	add    BYTE PTR [ecx+0x0],ch
  4063c9:	ins    BYTE PTR es:[edi],dx
  4063ca:	add    BYTE PTR [ebp+0x0],ah
  4063cd:	add    BYTE PTR fs:[edi+0x0],dl
  4063d1:	imul   eax,DWORD PTR [eax],0x680074
  4063d7:	push   ebp
  4063d8:	add    BYTE PTR [esi+0x0],ch
  4063db:	imul   eax,DWORD PTR [eax],0x6e
  4063de:	add    BYTE PTR [edi+0x0],ch
  4063e1:	ja     0x4063e3
  4063e3:	outs   dx,BYTE PTR ds:[esi]
  4063e4:	add    BYTE PTR [ebp+0x0],al
  4063e7:	jb     0x4063e9
  4063e9:	jb     0x4063eb
  4063eb:	outs   dx,DWORD PTR ds:[esi]
  4063ec:	add    BYTE PTR [edx+0x0],dh
  4063ef:	sub    DWORD PTR [ecx],eax
  4063f1:	add    BYTE PTR [eax],al
  4063f3:	xor    al,BYTE PTR [ebx+0x0]
  4063f6:	popa   
  4063f7:	add    BYTE PTR [esi+0x0],ch
  4063fa:	arpl   WORD PTR [eax],ax
  4063fc:	add    BYTE PTR gs:[eax+eax*1+0x4f],ch
  406401:	add    BYTE PTR [eax+0x0],dh
  406404:	add    BYTE PTR gs:[edx+0x0],dh
  406408:	popa   
  406409:	add    BYTE PTR [eax+eax*1+0x69],dh
  40640d:	add    BYTE PTR [edi+0x0],ch
  406410:	outs   dx,BYTE PTR ds:[esi]
  406411:	add    BYTE PTR [esi+0x0],cl
  406414:	outs   dx,DWORD PTR ds:[esi]
  406415:	add    BYTE PTR [eax+eax*1+0x41],dh
  406419:	add    BYTE PTR [eax+eax*1+0x6c],ch
  40641d:	add    BYTE PTR [edi+0x0],ch
  406420:	ja     0x406422
  406422:	add    BYTE PTR gs:[eax+eax*1+0x77],ah
  406427:	add    DWORD PTR [eax],eax
  406429:	add    BYTE PTR [esi],ch
  40642b:	inc    ebx
  40642c:	add    BYTE PTR [edi+0x0],ch
  40642f:	jne    0x406431
  406431:	ins    BYTE PTR es:[edi],dx
  406432:	add    BYTE PTR [eax+eax*1+0x4e],ah
  406436:	add    BYTE PTR [edi+0x0],ch
  406439:	je     0x40643b
  40643b:	dec    esp
  40643c:	add    BYTE PTR [edi+0x0],ch
  40643f:	popa   
  406440:	add    BYTE PTR [eax+eax*1+0x57],ah
  406444:	add    BYTE PTR [ebx+0x0],dh
  406447:	inc    ebx
  406448:	add    BYTE PTR [eax+eax*1+0x69],ch
  40644c:	add    BYTE PTR [ebp+0x0],ah
  40644f:	outs   dx,BYTE PTR ds:[esi]
  406450:	add    BYTE PTR [eax+eax*1+0x44],dh
  406454:	add    BYTE PTR [eax+eax*1+0x6c],ch
  406458:	add    BYTE PTR [ecx+0x24000001],bh
  40645e:	inc    esp
  40645f:	add    BYTE PTR [ebp+0x0],ah
  406462:	jo     0x406464
  406464:	ins    BYTE PTR es:[edi],dx
  406465:	add    BYTE PTR [edi+0x0],ch
  406468:	jns    0x40646a
  40646a:	inc    ecx
  40646b:	add    BYTE PTR [eax+0x0],dh
  40646e:	jo     0x406470
  406470:	js     0x406472
  406472:	dec    eax
  406473:	add    BYTE PTR [edi+0x0],ch
  406476:	jae    0x406478
  406478:	je     0x40647a
  40647a:	dec    esi
  40647b:	add    BYTE PTR [ebp+0x0],dh
  40647e:	ins    BYTE PTR es:[edi],dx
  40647f:	add    BYTE PTR [eax+eax*1+0x4c],ch
  406483:	add    al,BYTE PTR [eax]
  406485:	add    BYTE PTR [eax*2+0x65007800],bh
  40648c:	add    BYTE PTR [eax+eax*1+0x6f],dl
  406490:	add    BYTE PTR [ecx+0x0],al
  406493:	arpl   WORD PTR [eax],ax
  406495:	jno    0x406497
  406497:	jne    0x406499
  406499:	imul   eax,DWORD PTR [eax],0x650072
  40649f:	inc    esp
  4064a0:	add    BYTE PTR [ebp+0x0],ah
  4064a3:	jbe    0x4064a5
  4064a5:	dec    esp
  4064a6:	add    BYTE PTR [ecx+0x0],ch
  4064a9:	arpl   WORD PTR [eax],ax
  4064ab:	add    BYTE PTR gs:[esi+0x0],ch
  4064af:	jae    0x4064b1
  4064b1:	add    BYTE PTR gs:[esi+0x0],cl
  4064b5:	outs   dx,DWORD PTR ds:[esi]
  4064b6:	add    BYTE PTR [eax+eax*1+0x46],dh
  4064ba:	add    BYTE PTR [edi+0x0],ch
  4064bd:	jne    0x4064bf
  4064bf:	outs   dx,BYTE PTR ds:[esi]
  4064c0:	add    BYTE PTR [eax+eax*1-0x4a],ah
  4064c4:	add    al,BYTE PTR [eax]
  4064c6:	add    BYTE PTR [eax],dh
  4064c8:	inc    ebp
  4064c9:	add    BYTE PTR [eax+0x0],bh
  4064cc:	add    BYTE PTR gs:[eax+eax*1+0x6f],dl
  4064d1:	add    BYTE PTR [ecx+0x0],cl
  4064d4:	outs   dx,BYTE PTR ds:[esi]
  4064d5:	add    BYTE PTR [ebx+0x0],dh
  4064d8:	je     0x4064da
  4064da:	popa   
  4064db:	add    BYTE PTR [eax+eax*1+0x6c],ch
  4064df:	add    BYTE PTR [ebx+0x0],al
  4064e2:	add    BYTE PTR gs:[edx+0x0],dh
  4064e6:	je     0x4064e8
  4064e8:	dec    esi
  4064e9:	add    BYTE PTR [edi+0x0],ch
  4064ec:	je     0x4064ee
  4064ee:	inc    esi
  4064ef:	add    BYTE PTR [edi+0x0],ch
  4064f2:	jne    0x4064f4
  4064f4:	outs   dx,BYTE PTR ds:[esi]
  4064f5:	add    BYTE PTR [eax+eax*1-0x7],ah
  4064f9:	add    al,BYTE PTR [eax]
  4064fb:	add    BYTE PTR [esi+0x49],cl
  4064fe:	add    BYTE PTR [esi+0x0],ch
  406501:	je     0x406503
  406503:	add    BYTE PTR gs:[edx+0x0],dh
  406507:	outs   dx,BYTE PTR ds:[esi]
  406508:	add    BYTE PTR [ecx+0x0],ah
  40650b:	ins    BYTE PTR es:[edi],dx
  40650c:	add    BYTE PTR [ebp+0x0],al
  40650f:	jb     0x406511
  406511:	jb     0x406513
  406513:	outs   dx,DWORD PTR ds:[esi]
  406514:	add    BYTE PTR [edx+0x0],dh
  406517:	push   edi
  406518:	add    BYTE PTR [eax+0x0],ch
  40651b:	imul   eax,DWORD PTR [eax],0x65006c
  406521:	dec    ecx
  406522:	add    BYTE PTR [esi+0x0],ch
  406525:	jbe    0x406527
  406527:	outs   dx,DWORD PTR ds:[esi]
  406528:	add    BYTE PTR [ebx+0x0],ch
  40652b:	imul   eax,DWORD PTR [eax],0x67006e
  406531:	inc    ebx
  406532:	add    BYTE PTR [ebp+0x0],ah
  406535:	jb     0x406537
  406537:	je     0x406539
  406539:	dec    ecx
  40653a:	add    BYTE PTR [esi+0x0],ch
  40653d:	jae    0x40653f
  40653f:	je     0x406541
  406541:	popa   
  406542:	add    BYTE PTR [eax+eax*1+0x6c],ch
  406546:	add    BYTE PTR [ebp+0x0],ah
  406549:	jb     0x40654b
  40654b:	add    eax,DWORD PTR ss:[eax]
  40654e:	add    BYTE PTR [eax+edx*2],dh
  406551:	add    BYTE PTR [ecx+0x0],ah
  406554:	arpl   WORD PTR [eax],ax
  406556:	imul   eax,DWORD PTR [eax],0x61
  406559:	add    BYTE PTR [edi+0x0],ah
  40655c:	add    BYTE PTR gs:[ebp+0x0],cl
  406560:	popa   
  406561:	add    BYTE PTR [esi+0x0],ch
  406564:	add    BYTE PTR [di+0x0],ah
  406568:	jb     0x40656a
  40656a:	push   esp
  40656b:	add    BYTE PTR [ecx+0x0],bh
  40656e:	jo     0x406570
  406570:	add    BYTE PTR gs:[ebx+0x0],dh
  406574:	dec    esi
  406575:	add    BYTE PTR [edi+0x0],ch
  406578:	je     0x40657a
  40657a:	inc    esi
  40657b:	add    BYTE PTR [edi+0x0],ch
  40657e:	jne    0x406580
  406580:	outs   dx,BYTE PTR ds:[esi]
  406581:	add    BYTE PTR [eax+eax*1+0x7f],ah
  406585:	add    eax,DWORD PTR [eax]
  406587:	add    BYTE PTR [eax],dh
  406589:	push   esp
  40658a:	add    BYTE PTR [ebp+0x0],ah
  40658d:	jae    0x40658f
  40658f:	je     0x406591
  406591:	inc    ebx
  406592:	add    BYTE PTR [ebp+0x0],ah
  406595:	jb     0x406597
  406597:	je     0x406599
  406599:	inc    ecx
  40659a:	add    BYTE PTR [eax+eax*1+0x72],ch
  40659e:	add    BYTE PTR [ebp+0x0],ah
  4065a1:	popa   
  4065a2:	add    BYTE PTR [eax+eax*1+0x79],ah
  4065a6:	add    BYTE PTR [ecx+0x0],cl
  4065a9:	outs   dx,BYTE PTR ds:[esi]
  4065aa:	add    BYTE PTR [ebx+0x0],dh
  4065ad:	je     0x4065af
  4065af:	popa   
  4065b0:	add    BYTE PTR [eax+eax*1+0x6c],ch
  4065b4:	add    BYTE PTR [ebp+0x0],ah
  4065b7:	fs add bh,ah
  4065ba:	add    eax,DWORD PTR [eax]
  4065bc:	add    BYTE PTR [eax],dh
  4065be:	push   esp
  4065bf:	add    BYTE PTR [ebp+0x0],ah
  4065c2:	jae    0x4065c4
  4065c4:	je     0x4065c6
  4065c6:	inc    ebx
  4065c7:	add    BYTE PTR [ebp+0x0],ah
  4065ca:	jb     0x4065cc
  4065cc:	je     0x4065ce
  4065ce:	inc    esi
  4065cf:	add    BYTE PTR [ecx+0x0],ch
  4065d2:	ins    BYTE PTR es:[edi],dx
  4065d3:	add    BYTE PTR [ebp+0x0],ah
  4065d6:	inc    esp
  4065d7:	add    BYTE PTR [edi+0x0],ch
  4065da:	add    BYTE PTR gs:[ebx+0x0],dh
  4065de:	dec    esi
  4065df:	add    BYTE PTR [edi+0x0],ch
  4065e2:	je     0x4065e4
  4065e4:	inc    ebp
  4065e5:	add    BYTE PTR [eax+0x0],bh
  4065e8:	imul   eax,DWORD PTR [eax],0x740073
  4065ee:	xor    al,BYTE PTR [eax+eax*1]
  4065f1:	add    BYTE PTR [eax],ch
  4065f3:	push   esp
  4065f4:	add    BYTE PTR [ecx+0x0],ch
  4065f7:	ins    DWORD PTR es:[edi],dx
  4065f8:	add    BYTE PTR [ebp+0x0],ah
  4065fb:	add    BYTE PTR fs:[edi+0x0],ch
  4065ff:	jne    0x406601
  406601:	je     0x406603
  406603:	dec    ecx
  406604:	add    BYTE PTR [esi+0x0],ch
  406607:	inc    ecx
  406608:	add    BYTE PTR [eax+eax*1+0x64],ah
  40660c:	add    BYTE PTR [eax+0x0],dl
  40660f:	popa   
  406610:	add    BYTE PTR [ebx+0x0],ah
  406613:	imul   eax,DWORD PTR [eax],0x61
  406616:	add    BYTE PTR [edi+0x0],ah
  406619:	add    BYTE PTR gs:[edx+0x4],dh
  40661d:	add    BYTE PTR [eax],al
  40661f:	push   esp
  406620:	push   ebp
  406621:	add    BYTE PTR [esi+0x0],ch
  406624:	jae    0x406626
  406626:	jo     0x406628
  406628:	add    BYTE PTR gs:[ebx+0x0],ah
  40662c:	imul   eax,DWORD PTR [eax],0x690066
  406632:	add    BYTE PTR gs:[eax+eax*1+0x45],ah
  406637:	add    BYTE PTR [edx+0x0],dh
  40663a:	jb     0x40663c
  40663c:	outs   dx,DWORD PTR ds:[esi]
  40663d:	add    BYTE PTR [edx+0x0],dh
  406640:	push   edi
  406641:	add    BYTE PTR [eax+0x0],ch
  406644:	imul   eax,DWORD PTR [eax],0x65006c
  40664a:	dec    ecx
  40664b:	add    BYTE PTR [esi+0x0],ch
  40664e:	jbe    0x406650
  406650:	outs   dx,DWORD PTR ds:[esi]
  406651:	add    BYTE PTR [ebx+0x0],ch
  406654:	imul   eax,DWORD PTR [eax],0x67006e
  40665a:	inc    ebx
  40665b:	add    BYTE PTR [ebp+0x0],ah
  40665e:	jb     0x406660
  406660:	je     0x406662
  406662:	dec    ecx
  406663:	add    BYTE PTR [esi+0x0],ch
  406666:	jae    0x406668
  406668:	je     0x40666a
  40666a:	popa   
  40666b:	add    BYTE PTR [eax+eax*1+0x6c],ch
  40666f:	add    BYTE PTR [ebp+0x0],ah
  406672:	jb     0x406674
  406674:	sbb    al,BYTE PTR ds:0x59010000
  40667a:	push   esp
  40667b:	inc    esi
  40667c:	xor    bh,BYTE PTR [ecx]
  40667e:	cmp    BYTE PTR [eax],dh
  406680:	xor    bh,BYTE PTR [ecx]
  406682:	and    BYTE PTR [edx],bh
  406684:	and    BYTE PTR [ecx+0x63],al
  406687:	jno    0x4066fe
  406689:	imul   esi,DWORD PTR [ebx+0x69],0x6e6f6974
  406690:	and    BYTE PTR [edi+0x66],ch
  406693:	and    BYTE PTR [ebp+eiz*2+0x76],ah
  406697:	gs ins BYTE PTR es:[edi],dx
  406699:	outs   dx,DWORD PTR ds:[esi]
  40669a:	jo     0x406701
  40669c:	jb     0x4066be
  40669e:	ins    BYTE PTR es:[edi],dx
  40669f:	imul   esp,DWORD PTR [ebx+0x65],0x2065736e
  4066a6:	ja     0x406709
  4066a8:	jae    0x4066ca
  4066aa:	arpl   WORD PTR [ecx+0x6e],sp
  4066ad:	arpl   WORD PTR [ebp+0x6c],sp
  4066b0:	gs and BYTE PTR fs:[edx+0x79],ah
  4066b5:	and    BYTE PTR [eax+ebp*2+0x65],dh
  4066b9:	and    BYTE PTR [ebp+0x73],dh
  4066bc:	gs jb  0x4066ed
  4066bf:	and    BYTE PTR [ebp+0x72],al
  4066c2:	jb     0x406733
  4066c4:	jb     0x4066e6
  4066c6:	arpl   WORD PTR [edi+0x64],bp
  4066c9:	cmp    ah,BYTE PTR gs:[eax]
  4066cc:	xor    BYTE PTR [eax+0x7b],bh
  4066cf:	xor    BYTE PTR [edx],bh
  4066d1:	pop    eax
  4066d2:	jge    0x4066d5
  4066d4:	retf   
  4066d5:	add    DWORD PTR [esi+eax*2+0x32],edx
  4066d9:	cmp    DWORD PTR [eax],edi
  4066db:	xor    BYTE PTR [ebx],dh
  4066dd:	xor    BYTE PTR [eax],ah
  4066df:	cmp    ah,BYTE PTR [eax]
  4066e1:	inc    ebx
  4066e2:	outs   dx,DWORD PTR ds:[esi]
  4066e3:	jne    0x406751
  4066e5:	and    BYTE PTR fs:[esi+0x6f],ch
  4066e9:	je     0x40670b
  4066eb:	ins    BYTE PTR es:[edi],dx
  4066ec:	outs   dx,DWORD PTR ds:[esi]
  4066ed:	imul   ebp,DWORD PTR [bp+0x20],0x74206f74
  4066f5:	push   0x65442065
  4066fa:	jbe    0x406761
  4066fc:	ins    BYTE PTR es:[edi],dx
  4066fd:	outs   dx,DWORD PTR ds:[esi]
  4066fe:	jo     0x406765
  406700:	jb     0x406722
  406702:	ins    BYTE PTR es:[edi],dx
  406703:	imul   esp,DWORD PTR [ebx+0x65],0x2065736e
  40670a:	jae    0x406771
  40670c:	jb     0x406784
  40670e:	gs jb  0x406731
  406711:	jne    0x406786
  406713:	imul   ebp,DWORD PTR [esi+0x67],0x65687420
  40671a:	and    BYTE PTR [ebx+0x72],ah
  40671d:	gs fs outs dx,BYTE PTR gs:[esi]
  406721:	je     0x40678c
  406723:	popa   
  406724:	ins    BYTE PTR es:[edi],dx
  406725:	and    BYTE PTR [eax+0x72],dh
  406728:	outs   dx,DWORD PTR ds:[esi]
  406729:	jbe    0x406794
  40672b:	fs gs fs and BYTE PTR cs:[ebp+0x69],al
  406732:	je     0x40679c
  406734:	gs jb  0x406757
  406737:	je     0x4067a1
  406739:	and    BYTE PTR gs:[ebp+eiz*2+0x76],al
  40673e:	gs ins BYTE PTR es:[edi],dx
  406740:	outs   dx,DWORD PTR ds:[esi]
  406741:	jo     0x4067a8
  406743:	jb     0x406765
  406745:	ins    BYTE PTR es:[edi],dx
  406746:	imul   esp,DWORD PTR [ebx+0x65],0x2065736e
  40674d:	jae    0x4067b4
  40674f:	jb     0x4067c7
  406751:	gs jb  0x406774
  406754:	imul   esi,DWORD PTR [ebx+0x20],0x65726e75
  40675b:	popa   
  40675c:	arpl   WORD PTR [eax+0x61],bp
  40675f:	bound  ebp,QWORD PTR [ebp+eiz*2+0x20]
  406763:	outs   dx,DWORD PTR ds:[esi]
  406764:	jb     0x406786
  406766:	je     0x4067d0
  406768:	and    BYTE PTR gs:[ebx+0x72],ah
  40676c:	gs fs outs dx,BYTE PTR gs:[esi]
  406770:	je     0x4067db
  406772:	popa   
  406773:	ins    BYTE PTR es:[edi],dx
  406774:	jae    0x406796
  406776:	jo     0x4067ea
  406778:	outs   dx,DWORD PTR ds:[esi]
  406779:	jbe    0x4067e4
  40677b:	fs gs and BYTE PTR fs:[ecx+0x72],ah
  406781:	and    BYTE PTR gs:[ecx+0x6e],ch
  406785:	arpl   WORD PTR [edi+0x72],bp
  406788:	jb     0x4067ef
  40678a:	arpl   WORD PTR [esi+ebp*1+0x20],si
  40678e:	inc    ebp
  40678f:	jb     0x406803
  406791:	outs   dx,DWORD PTR ds:[esi]
  406792:	jb     0x4067b4
  406794:	arpl   WORD PTR [edi+0x64],bp
  406797:	cmp    ah,BYTE PTR gs:[eax]
  40679a:	xor    BYTE PTR [eax+0x7b],bh
  40679d:	xor    BYTE PTR [edx],bh
  40679f:	pop    eax
  4067a0:	jge    0x4067a3
  4067a2:	dec    esp
  4067a3:	push   esp
  4067a4:	inc    esi
  4067a5:	xor    bh,BYTE PTR [ecx]
  4067a7:	cmp    BYTE PTR [eax],dh
  4067a9:	xor    esi,DWORD PTR [ecx]
  4067ab:	and    BYTE PTR [edx],bh
  4067ad:	and    BYTE PTR [ecx+0x63],al
  4067b0:	jno    0x406827
  4067b2:	imul   esi,DWORD PTR [ebx+0x69],0x6e6f6974
  4067b9:	and    BYTE PTR [edi+0x66],ch
  4067bc:	and    BYTE PTR [ebp+eiz*2+0x76],ah
  4067c0:	gs ins BYTE PTR es:[edi],dx
  4067c2:	outs   dx,DWORD PTR ds:[esi]
  4067c3:	jo     0x40682a
  4067c5:	jb     0x4067e7
  4067c7:	ins    BYTE PTR es:[edi],dx
  4067c8:	imul   esp,DWORD PTR [ebx+0x65],0x2065736e
  4067cf:	popaw  
  4067d1:	imul   ebp,DWORD PTR [ebp+eiz*2+0x64],0x74697720
  4067d9:	push   0x72726520
  4067de:	outs   dx,DWORD PTR ds:[esi]
  4067df:	jb     0x406801
  4067e1:	arpl   WORD PTR [edi+0x64],bp
  4067e4:	cmp    ah,BYTE PTR gs:[eax]
  4067e7:	xor    BYTE PTR [eax+0x7b],bh
  4067ea:	xor    BYTE PTR [edx],bh
  4067ec:	pop    eax
  4067ed:	jge    0x40681d
  4067ef:	add    DWORD PTR [eax+0x54],eax
  4067f2:	inc    esi
  4067f3:	xor    bh,BYTE PTR [ecx]
  4067f5:	cmp    BYTE PTR [eax],dh
  4067f7:	xor    esi,DWORD PTR [edx]
  4067f9:	and    BYTE PTR [edx],bh
  4067fb:	and    BYTE PTR [eax+ebp*2+0x69],dl
  4067ff:	jae    0x406821
  406801:	jae    0x406877
  406803:	gs jo  0x406826
  406806:	jb     0x40686d
  406808:	jno    0x40687f
  40680a:	imul   esi,DWORD PTR [edx+0x65],0x73752073
  406811:	gs jb  0x406834
  406814:	imul   ebp,DWORD PTR [esi+0x70],0x61207475
  40681b:	outs   dx,BYTE PTR ds:[esi]
  40681c:	and    BYTE PTR fs:[ebx+0x61],ah
  406820:	outs   dx,BYTE PTR ds:[esi]
  406821:	outs   dx,BYTE PTR ds:[esi]
  406822:	outs   dx,DWORD PTR ds:[esi]
  406823:	je     0x406845
  406825:	bound  esp,QWORD PTR [ebp+0x20]
  406828:	arpl   WORD PTR [ecx+0x6e],sp
  40682b:	arpl   WORD PTR [ebp+0x6c],sp
  40682e:	gs fs add DWORD PTR cs:[eax+0x32465401],edx
  406837:	cmp    DWORD PTR [eax],edi
  406839:	xor    BYTE PTR [ebx],dh
  40683b:	xor    esp,DWORD PTR [eax]
  40683d:	cmp    ah,BYTE PTR [eax]
  40683f:	inc    ebx
  406840:	outs   dx,DWORD PTR ds:[esi]
  406841:	jne    0x4068af
  406843:	and    BYTE PTR fs:[esi+0x6f],ch
  406847:	je     0x406869
  406849:	ins    BYTE PTR es:[edi],dx
  40684a:	outs   dx,DWORD PTR ds:[esi]
  40684b:	popa   
  40684c:	and    BYTE PTR fs:[eax+ebp*2+0x65],dh
  406851:	and    BYTE PTR [ecx+0x73],ah
  406854:	jae    0x4068bb
  406856:	ins    DWORD PTR es:[edi],dx
  406857:	bound  ebp,QWORD PTR [ecx+edi*2+0x20]
  40685b:	je     0x4068cc
  40685d:	and    BYTE PTR [eax+0x65],dh
  406860:	jb     0x4068c8
  406862:	outs   dx,DWORD PTR ds:[esi]
  406863:	jb     0x4068d2
  406865:	and    BYTE PTR [eax+ebp*2+0x65],dh
  406869:	and    BYTE PTR [edi+0x70],ch
  40686c:	gs jb  0x4068d0
  40686f:	je     0x4068da
  406871:	outs   dx,DWORD PTR ds:[esi]
  406872:	outs   dx,BYTE PTR ds:[esi]
  406873:	jae    0x406895
  406875:	outs   dx,WORD PTR ds:[esi]
  406877:	jb     0x406899
  406879:	inc    esp
  40687a:	gs jbe 0x4068e2
  40687d:	ins    BYTE PTR es:[edi],dx
  40687e:	outs   dx,DWORD PTR ds:[esi]
  40687f:	jo     0x4068e6
  406881:	jb     0x4068a3
  406883:	dec    esp
  406884:	imul   esp,DWORD PTR [ebx+0x65],0x6e69736e
  40688b:	and    BYTE PTR cs:[di+0x61],cl
  406890:	imul   esp,DWORD PTR [ebp+0x20],0x73
  406894:	jne    0x406908
  406896:	and    BYTE PTR gs:[edi+0x69],dl
  40689a:	outs   dx,BYTE PTR ds:[esi]
  40689b:	outs   dx,DWORD PTR fs:[esi]
  40689d:	ja     0x406912
  40689f:	and    BYTE PTR [eax],bh
  4068a1:	and    BYTE PTR [ecx+0x73],ch
  4068a4:	and    BYTE PTR [ecx+0x6e],ch
  4068a7:	jae    0x40691d
  4068a9:	popa   
  4068aa:	ins    BYTE PTR es:[edi],dx
  4068ab:	ins    BYTE PTR es:[edi],dx
  4068ac:	gs and BYTE PTR fs:[edi+0x6e],ch
  4068b1:	and    BYTE PTR [eax+ebp*2+0x65],dh
  4068b5:	and    BYTE PTR [edx+0x65],dh
  4068b8:	ins    DWORD PTR es:[edi],dx
  4068b9:	outs   dx,DWORD PTR ds:[esi]
  4068ba:	je     0x406921
  4068bc:	and    BYTE PTR [ebp+eiz*2+0x76],ah
  4068c0:	imul   esp,DWORD PTR [ebx+0x65],0x5468012e
  4068c7:	inc    esi
  4068c8:	xor    bh,BYTE PTR [ecx]
  4068ca:	cmp    BYTE PTR [eax],dh
  4068cc:	xor    esi,DWORD PTR [eax+eiz*1]
  4068cf:	cmp    ah,BYTE PTR [eax]
  4068d1:	inc    ecx
  4068d2:	outs   dx,BYTE PTR ds:[esi]
  4068d3:	and    BYTE PTR [ecx+0x6e],ch
  4068d6:	je     0x40693d
  4068d8:	jb     0x406948
  4068da:	popa   
  4068db:	ins    BYTE PTR es:[edi],dx
  4068dc:	and    BYTE PTR [ebp+0x72],ah
  4068df:	jb     0x406950
  4068e1:	jb     0x406903
  4068e3:	push   0x6f207361
  4068e8:	arpl   WORD PTR [ebx+0x75],sp
  4068eb:	jb     0x40695f
  4068ed:	gs fs and BYTE PTR cs:[eax+ebp*2+0x65],dl
  4068f4:	and    BYTE PTR [eax+0x6f],ch
  4068f7:	jae    0x40696d
  4068f9:	and    BYTE PTR [esi+0x6f],ah
  4068fc:	jb     0x40691e
  4068fe:	fs gs jo 0x40696e
  406902:	outs   dx,DWORD PTR ds:[esi]
  406903:	jns    0x40696e
  406905:	outs   dx,BYTE PTR ds:[esi]
  406906:	and    BYTE PTR [bx+0x69],dl
  40690a:	outs   dx,BYTE PTR ds:[esi]
  40690b:	outs   dx,DWORD PTR fs:[esi]
  40690d:	ja     0x406982
  40690f:	and    BYTE PTR [ebx+0x74],dl
  406912:	outs   dx,DWORD PTR ds:[esi]
  406913:	jb     0x40697a
  406915:	and    BYTE PTR [ecx+0x70],ah
  406918:	jo     0x40698d
  40691a:	and    BYTE PTR [ecx+0x73],ch
  40691d:	and    BYTE PTR [esi+0x6f],ch
  406920:	je     0x406942
  406922:	imul   ebp,DWORD PTR [esi+0x69],0x6c616974
  406929:	imul   edi,DWORD PTR [edx+0x65],0x41012e64
  406930:	push   esp
  406931:	inc    esi
  406932:	xor    bh,BYTE PTR [ecx]
  406934:	cmp    BYTE PTR [eax],dh
  406936:	xor    esi,DWORD PTR ds:0x43203a20
  40693c:	outs   dx,DWORD PTR ds:[esi]
  40693d:	jne    0x4069ab
  40693f:	and    BYTE PTR fs:[esi+0x6f],ch
  406943:	je     0x406965
  406945:	imul   bp,WORD PTR [esi+0x64],0x6120
  40694b:	and    BYTE PTR [eax+0x72],dh
  40694e:	outs   dx,DWORD PTR ds:[esi]
  40694f:	addr16 jb 0x4069b3
  406952:	ins    DWORD PTR es:[edi],dx
  406953:	and    BYTE PTR [edi+ebp*2+0x20],dh
  406957:	popa   
  406958:	arpl   WORD PTR [ecx+0x75],si
  40695b:	imul   esi,DWORD PTR [edx+0x65],0x76656420
  406962:	gs ins BYTE PTR es:[edi],dx
  406964:	outs   dx,DWORD PTR ds:[esi]
  406965:	jo     0x4069cc
  406967:	jb     0x406989
  406969:	ins    BYTE PTR es:[edi],dx
  40696a:	imul   esp,DWORD PTR [ebx+0x65],0x2e65736e
  406971:	add    DWORD PTR [ebx],edi
  406973:	push   esp
  406974:	inc    esi
  406975:	xor    bh,BYTE PTR [ecx]
  406977:	cmp    BYTE PTR [eax],dh
  406979:	xor    esi,DWORD PTR [esi]
  40697b:	and    BYTE PTR [edx],bh
  40697d:	and    BYTE PTR [ebx+0x6f],al
  406980:	jne    0x4069ee
  406982:	and    BYTE PTR fs:[esi+0x6f],ch
  406986:	je     0x4069a8
  406988:	imul   bp,WORD PTR [esi+0x64],0x6120
  40698e:	and    BYTE PTR [eax+0x72],dh
  406991:	outs   dx,DWORD PTR ds:[esi]
  406992:	addr16 jb 0x4069f6
  406995:	ins    DWORD PTR es:[edi],dx
  406996:	and    BYTE PTR [edi+ebp*2+0x20],dh
  40699a:	imul   ebp,DWORD PTR [esi+0x73],0x6c6c6174
  4069a1:	and    BYTE PTR [ebx+0x65],ah
  4069a4:	jb     0x406a1a
  4069a6:	imul   esp,DWORD PTR [esi+0x69],0x65746163
  4069ad:	add    DWORD PTR cs:[edi+0x54],eax
  4069b1:	inc    esi
  4069b2:	xor    bh,BYTE PTR [ecx]
  4069b4:	cmp    BYTE PTR [eax],dh
  4069b6:	xor    esi,DWORD PTR [edi]
  4069b8:	and    BYTE PTR [edx],bh
  4069ba:	and    BYTE PTR [ecx+0x6e],al
  4069bd:	and    BYTE PTR [ecx+0x6e],ch
  4069c0:	je     0x406a27
  4069c2:	jb     0x406a32
  4069c4:	popa   
  4069c5:	ins    BYTE PTR es:[edi],dx
  4069c6:	and    BYTE PTR [ebp+0x72],ah
  4069c9:	jb     0x406a3a
  4069cb:	jb     0x4069ed
  4069cd:	outs   dx,DWORD PTR ds:[esi]
  4069ce:	arpl   WORD PTR [ebx+0x75],sp
  4069d1:	jb     0x406a45
  4069d3:	gs and BYTE PTR fs:[edi+0x68],dh
  4069d8:	imul   ebp,DWORD PTR [ebp+eiz*2+0x20],0x74736e69
  4069e0:	popa   
  4069e1:	ins    BYTE PTR es:[edi],dx
  4069e2:	ins    BYTE PTR es:[edi],dx
  4069e3:	imul   ebp,DWORD PTR [esi+0x67],0x65687420
  4069ea:	and    BYTE PTR [ebx+0x65],ah
  4069ed:	jb     0x406a63
  4069ef:	imul   esp,DWORD PTR [esi+0x69],0x65746163
  4069f6:	add    DWORD PTR cs:[esi+0x54],esp
  4069fa:	inc    esi
  4069fb:	xor    bh,BYTE PTR [ecx]
  4069fd:	cmp    BYTE PTR [eax],dh
  4069ff:	xor    edi,DWORD PTR [eax]
  406a01:	and    BYTE PTR [edx],bh
  406a03:	and    BYTE PTR [ebx+0x61],al
  406a06:	outs   dx,BYTE PTR ds:[esi]
  406a07:	outs   dx,BYTE PTR ds:[esi]
  406a08:	outs   dx,DWORD PTR ds:[esi]
  406a09:	je     0x406a2b
  406a0b:	ins    BYTE PTR es:[edi],dx
  406a0c:	outs   dx,DWORD PTR ds:[esi]
  406a0d:	popa   
  406a0e:	and    BYTE PTR fs:[edi+0x69],dl
  406a12:	outs   dx,BYTE PTR ds:[esi]
  406a13:	outs   dx,DWORD PTR fs:[esi]
  406a15:	ja     0x406a8a
  406a17:	and    BYTE PTR [eax+0x61],dl
  406a1a:	arpl   WORD PTR [ebx+0x61],bp
  406a1d:	and    BYTE PTR gs:[di+0x61],cl
  406a22:	outs   dx,BYTE PTR ds:[esi]
  406a23:	popa   
  406a24:	addr16 gs jb 0x406a56
  406a28:	and    BYTE PTR [ebp+0x61],cl
  406a2b:	imul   esp,DWORD PTR [ebp+0x20],0x73
  406a2f:	jne    0x406aa3
  406a31:	and    BYTE PTR gs:[edi+0x69],dl
  406a35:	outs   dx,BYTE PTR ds:[esi]
  406a36:	outs   dx,DWORD PTR fs:[esi]
  406a38:	ja     0x406aad
  406a3a:	and    BYTE PTR [eax],bh
  406a3c:	and    BYTE PTR [ecx+0x73],ch
  406a3f:	and    BYTE PTR [ecx+0x6e],ch
  406a42:	jae    0x406ab8
  406a44:	popa   
  406a45:	ins    BYTE PTR es:[edi],dx
  406a46:	ins    BYTE PTR es:[edi],dx
  406a47:	gs and BYTE PTR fs:[edi+0x6e],ch
  406a4c:	and    BYTE PTR [eax+ebp*2+0x65],dh
  406a50:	and    BYTE PTR [edx+0x65],dh
  406a53:	ins    DWORD PTR es:[edi],dx
  406a54:	outs   dx,DWORD PTR ds:[esi]
  406a55:	je     0x406abc
  406a57:	and    BYTE PTR [ebp+eiz*2+0x76],ah
  406a5b:	imul   esp,DWORD PTR [ebx+0x65],0x5449012e
  406a62:	push   0x6f662065
  406a67:	ins    BYTE PTR es:[edi],dx
  406a68:	ins    BYTE PTR es:[edi],dx
  406a69:	outs   dx,DWORD PTR ds:[esi]
  406a6a:	ja     0x406ad5
  406a6c:	outs   dx,BYTE PTR ds:[esi]
  406a6d:	and    BYTE PTR [bp+di+0x65],ah
  406a71:	jb     0x406ae7
  406a73:	imul   esp,DWORD PTR [esi+0x69],0x65746163
  406a7a:	and    BYTE PTR [ecx+0x73],ch
  406a7d:	and    BYTE PTR [ecx+0x6c],ah
  406a80:	jb     0x406ae7
  406a82:	popa   
  406a83:	fs jns 0x406aa6
  406a86:	imul   ebp,DWORD PTR [esi+0x73],0x6c6c6174
  406a8d:	gs and BYTE PTR fs:[edi+0x6e],ch
  406a92:	and    BYTE PTR [eax+ebp*2+0x65],dh
  406a96:	and    BYTE PTR [edx+0x65],dh
  406a99:	ins    DWORD PTR es:[edi],dx
  406a9a:	outs   dx,DWORD PTR ds:[esi]
  406a9b:	je     0x406b02
  406a9d:	and    BYTE PTR [ebp+eiz*2+0x76],ah
  406aa1:	imul   esp,DWORD PTR [ebx+0x65],0x307b203a
  406aa8:	jge    0x406ad8
  406aaa:	add    DWORD PTR [esi],edi
  406aac:	push   esp
  406aad:	inc    esi
  406aae:	xor    bh,BYTE PTR [ecx]
  406ab0:	cmp    BYTE PTR [eax],dh
  406ab2:	xor    edi,DWORD PTR [ecx]
  406ab4:	and    BYTE PTR [edx],bh
  406ab6:	and    BYTE PTR [eax+ebp*2+0x65],dl
  406aba:	and    BYTE PTR [esi+0x6f],ah
  406abd:	ins    BYTE PTR es:[edi],dx
  406abe:	ins    BYTE PTR es:[edi],dx
  406abf:	outs   dx,DWORD PTR ds:[esi]
  406ac0:	ja     0x406b2b
  406ac2:	outs   dx,BYTE PTR ds:[esi]
  406ac3:	and    BYTE PTR [bp+di+0x65],ah
  406ac7:	jb     0x406b3d
  406ac9:	imul   esp,DWORD PTR [esi+0x69],0x65746163
  406ad0:	and    BYTE PTR [esi+0x69],ah
  406ad3:	ins    BYTE PTR es:[edi],dx
  406ad4:	and    BYTE PTR gs:[edi+ebp*2+0x65],ah
  406ad9:	jae    0x406afb
  406adb:	outs   dx,BYTE PTR ds:[esi]
  406adc:	outs   dx,DWORD PTR ds:[esi]
  406add:	je     0x406aff
  406adf:	gs js  0x406b4b
  406ae2:	jae    0x406b58
  406ae4:	cmp    ah,BYTE PTR [eax]
  406ae6:	jnp    0x406b18
  406ae8:	jge    0x406b18
  406aea:	add    DWORD PTR [ebp+0x32465401],esp
  406af0:	cmp    DWORD PTR [eax],edi
  406af2:	xor    BYTE PTR [eax+esi*1],dh
  406af5:	and    BYTE PTR [edx],bh
  406af7:	and    BYTE PTR [ecx+0x6e],cl
  406afa:	jae    0x406b70
  406afc:	popa   
  406afd:	ins    BYTE PTR es:[edi],dx
  406afe:	ins    BYTE PTR es:[edi],dx
  406aff:	and    BYTE PTR [ecx+0x70],ah
  406b02:	jo     0x406b70
  406b04:	imul   esp,DWORD PTR [ebx+0x61],0x6e6f6974
  406b0b:	and    BYTE PTR [eax+0x61],ch
  406b0e:	jae    0x406b30
  406b10:	je     0x406b7b
  406b12:	ins    DWORD PTR es:[edi],dx
  406b13:	gs and BYTE PTR fs:[edi+0x75],ch
  406b18:	je     0x406b48
  406b1a:	and    BYTE PTR [ebp+0x69],al
  406b1d:	je     0x406b87
  406b1f:	gs jb  0x406b42
  406b22:	je     0x406b8c
  406b24:	and    BYTE PTR gs:[ebx+0x6f],ah
  406b28:	outs   dx,BYTE PTR ds:[esi]
  406b29:	outs   dx,BYTE PTR ds:[esi]
  406b2a:	arpl   WORD PTR gs:[ecx+ebp*2+0x6f],si
  406b2f:	outs   dx,BYTE PTR ds:[esi]
  406b30:	and    BYTE PTR [edi+ebp*2+0x20],dh
  406b34:	je     0x406b9e
  406b36:	and    BYTE PTR gs:[edx+0x65],dh
  406b3a:	ins    DWORD PTR es:[edi],dx
  406b3b:	outs   dx,DWORD PTR ds:[esi]
  406b3c:	je     0x406ba3
  406b3e:	and    BYTE PTR [ebp+eiz*2+0x76],ah
  406b42:	imul   esp,DWORD PTR [ebx+0x65],0x73617720
  406b49:	and    BYTE PTR [edi+ebp*2+0x73],ch
  406b4d:	je     0x406b6f
  406b4f:	outs   dx,DWORD PTR ds:[esi]
  406b50:	jb     0x406b72
  406b52:	je     0x406bbc
  406b54:	and    BYTE PTR gs:[ebp+0x73],dh
  406b58:	gs jb  0x406b7b
  406b5b:	imul   esp,DWORD PTR fs:[eax+eiz*1+0x6e],0x7020746f
  406b64:	gs jb  0x406bcd
  406b67:	outs   dx,DWORD PTR ds:[esi]
  406b68:	jb     0x406bd7
  406b6a:	and    BYTE PTR [edx+0x65],dh
  406b6d:	jno    0x406be4
  406b6f:	imul   esi,DWORD PTR [edx+0x65],0x63612064
  406b76:	je     0x406be1
  406b78:	outs   dx,DWORD PTR ds:[esi]
  406b79:	outs   dx,BYTE PTR ds:[esi]
  406b7a:	jae    0x406b9c
  406b7c:	outs   dx,DWORD PTR ds:[esi]
  406b7d:	outs   dx,BYTE PTR ds:[esi]
  406b7e:	and    BYTE PTR [eax+ebp*2+0x65],dh
  406b82:	and    BYTE PTR [edx+0x65],dh
  406b85:	ins    DWORD PTR es:[edi],dx
  406b86:	outs   dx,DWORD PTR ds:[esi]
  406b87:	je     0x406bee
  406b89:	and    BYTE PTR [ebp+eiz*2+0x76],ah
  406b8d:	imul   esp,DWORD PTR [ebx+0x65],0x2f01202e
  406b94:	push   esp
  406b95:	inc    esi
  406b96:	xor    bh,BYTE PTR [ecx]
  406b98:	cmp    BYTE PTR [eax],dh
  406b9a:	xor    al,0x31
  406b9c:	and    BYTE PTR [edx],bh
  406b9e:	and    BYTE PTR [eax+ebp*2+0x65],dl
  406ba2:	and    BYTE PTR [ebx+0x65],ah
  406ba5:	jb     0x406c1b
  406ba7:	imul   esp,DWORD PTR [esi+0x69],0x65746163
  406bae:	and    BYTE PTR [ecx+0x6e],ch
  406bb1:	jae    0x406c27
  406bb3:	popa   
  406bb4:	ins    BYTE PTR es:[edi],dx
  406bb5:	ins    BYTE PTR es:[edi],dx
  406bb6:	popa   
  406bb7:	je     0x406c22
  406bb9:	outs   dx,DWORD PTR ds:[esi]
  406bba:	outs   dx,BYTE PTR ds:[esi]
  406bbb:	and    BYTE PTR [esi+0x61],ah
  406bbe:	imul   ebp,DWORD PTR [ebp+eiz*2+0x64],0x5342002e
  406bc6:	dec    edx
  406bc7:	inc    edx
  406bc8:	add    DWORD PTR [eax],eax
  406bca:	add    DWORD PTR [eax],eax
  406bcc:	add    BYTE PTR [eax],al
  406bce:	add    BYTE PTR [eax],al
  406bd0:	or     al,0x0
  406bd2:	add    BYTE PTR [eax],al
  406bd4:	jbe    0x406c0a
  406bd6:	xor    BYTE PTR cs:[esi],ch
  406bd9:	xor    esi,DWORD PTR [eax]
  406bdb:	xor    esi,DWORD PTR [ecx]
  406bdd:	cmp    DWORD PTR [eax],eax
  406bdf:	add    BYTE PTR [eax],al
  406be1:	add    BYTE PTR ds:0x6c00,al
  406be7:	add    BYTE PTR [eiz*1+0x7e230000],dh
  406bee:	add    BYTE PTR [eax],al
  406bf0:	mov    al,ds:0x5c000025
  406bf5:	aaa    
  406bf6:	add    BYTE PTR [eax],al
  406bf8:	and    edx,DWORD PTR [ebx+0x74]
  406bfb:	jb     0x406c66
  406bfd:	outs   dx,BYTE PTR ds:[esi]
  406bfe:	addr16 jae 0x406c01
  406c01:	add    BYTE PTR [eax],al
  406c03:	add    ah,bh
  406c05:	pop    esp
  406c06:	add    BYTE PTR [eax],al
  406c08:	adc    BYTE PTR [edi+0x0],0x0
  406c0c:	and    edx,DWORD PTR [ebp+0x53]
  406c0f:	add    BYTE PTR [esp+esi*4+0x0],bh
  406c13:	add    BYTE PTR [eax],dl
  406c15:	add    BYTE PTR [eax],al
  406c17:	add    BYTE PTR [ebx],ah
  406c19:	inc    edi
  406c1a:	push   ebp
  406c1b:	dec    ecx
  406c1c:	inc    esp
  406c1d:	add    BYTE PTR [eax],al
  406c1f:	add    BYTE PTR [esp+esi*4+0x170c0000],cl
  406c26:	add    BYTE PTR [eax],al
  406c28:	and    eax,DWORD PTR [edx+0x6c]
  406c2b:	outs   dx,DWORD PTR ds:[esi]
  406c2c:	bound  eax,QWORD PTR [eax]
  406c2e:	add    BYTE PTR [eax],al
  406c30:	add    BYTE PTR [eax],al
  406c32:	add    BYTE PTR [eax],al
  406c34:	add    al,BYTE PTR [eax]
  406c36:	add    BYTE PTR [ecx],al
  406c38:	push   edi
  406c39:	pop    ds
  406c3a:	mov    ds:0xb091f,al
  406c3f:	add    BYTE PTR [eax],al
  406c41:	cli    
  406c42:	and    eax,0x160033
  406c47:	add    BYTE PTR [ecx],al
  406c49:	add    BYTE PTR [eax],al
  406c4b:	add    dh,bl
  406c4d:	add    BYTE PTR [eax],al
  406c4f:	add    BYTE PTR ds:0x65000000,dl
  406c55:	add    BYTE PTR [eax],al
  406c57:	add    BYTE PTR [ebx-0x6c000000],bh
  406c5d:	add    BYTE PTR [eax],al
  406c5f:	add    BYTE PTR [eax],cl
  406c61:	add    BYTE PTR [eax],al
  406c63:	add    BYTE PTR [ecx+0x1],al
  406c66:	add    BYTE PTR [eax],al
  406c68:	and    al,0x0
  406c6a:	add    BYTE PTR [eax],al
  406c6c:	push   eax
  406c6d:	add    BYTE PTR [eax],al
  406c6f:	add    BYTE PTR [edx+0x0],al
  406c72:	add    BYTE PTR [eax],al
  406c74:	or     al,BYTE PTR [eax]
  406c76:	add    BYTE PTR [eax],al
  406c78:	pop    ds
  406c79:	add    BYTE PTR [eax],al
  406c7b:	add    BYTE PTR [ebx],ch
  406c7d:	add    BYTE PTR [eax],al
  406c7f:	add    BYTE PTR [ecx],al
  406c81:	add    BYTE PTR [eax],al
  406c83:	add    BYTE PTR [edx],al
  406c85:	add    BYTE PTR [eax],al
  406c87:	add    BYTE PTR [esi],cl
  406c89:	add    BYTE PTR [eax],al
  406c8b:	add    BYTE PTR [eax+eax*1],al
  406c8e:	add    BYTE PTR [eax],al
  406c90:	add    DWORD PTR [eax],eax
  406c92:	add    BYTE PTR [eax],al
  406c94:	or     eax,0x1000000
  406c99:	add    BYTE PTR [eax],al
  406c9b:	add    BYTE PTR [ecx],al
  406c9d:	add    BYTE PTR [eax],al
  406c9f:	add    BYTE PTR ds:0x0,al
  406ca5:	add    BYTE PTR [edx],cl
  406ca7:	add    BYTE PTR [ecx],al
  406ca9:	add    BYTE PTR [eax],al
  406cab:	add    BYTE PTR [eax],al
  406cad:	add    BYTE PTR [esi],al
  406caf:	add    BYTE PTR [edx],cl
  406cb1:	add    al,BYTE PTR [ebx]
  406cb3:	add    cl,BYTE PTR [edx]
  406cb5:	add    BYTE PTR [eax+0x2],dh
  406cb8:	inc    ebp
  406cb9:	add    cl,BYTE PTR [edx]
  406cbb:	add    BYTE PTR [edx+eax*1+0x60245],al
  406cc2:	nop
  406cc3:	add    al,BYTE PTR [ebx]
  406cc5:	add    al,BYTE PTR [esi]
  406cc7:	add    BYTE PTR [edx+eax*1+0xe0203],bl
  406cce:	les    eax,FWORD PTR [edx]
  406cd0:	scas   al,BYTE PTR es:[edi]
  406cd1:	add    dl,BYTE PTR [edx]
  406cd3:	add    BYTE PTR [ecx],cl
  406cd5:	add    edx,eax
  406cd7:	add    dl,BYTE PTR [edx]
  406cd9:	add    BYTE PTR [eax],ah
  406cdb:	add    edx,eax
  406cdd:	add    al,BYTE PTR [esi]
  406cdf:	add    BYTE PTR [ebx],bh
  406ce1:	add    eax,0x60203
  406ce6:	mov    cl,0x5
  406ce8:	mov    DWORD PTR ds:0x6330016,eax
  406cee:	and    BYTE PTR [esi],al
  406cf0:	push   es
  406cf1:	add    BYTE PTR [esi+0x6],ch
  406cf4:	add    eax,DWORD PTR [edx]
  406cf6:	sbb    al,BYTE PTR [eax]
  406cf8:	xchg   BYTE PTR [edi],al
  406cfa:	pop    esi
  406cfb:	pop    es
  406cfc:	or     al,BYTE PTR [eax]
  406cfe:	mov    es,WORD PTR [edi]
  406d00:	inc    ebp
  406d01:	add    cl,BYTE PTR [edx]
  406d03:	add    dh,bh
  406d05:	pop    es
  406d06:	inc    ebp
  406d07:	add    cl,BYTE PTR [edx]
  406d09:	add    BYTE PTR [esi],dl
  406d0b:	or     BYTE PTR [ebp+0x2],al
  406d0e:	or     al,BYTE PTR [eax]
  406d10:	xor    eax,0x1a024508
  406d15:	add    BYTE PTR [eax+0x8],dl
  406d18:	pop    esi
  406d19:	pop    es
  406d1a:	sbb    al,BYTE PTR [eax]
  406d1c:	test   DWORD PTR [eax],ecx
  406d1e:	pop    esi
  406d1f:	pop    es
  406d20:	sbb    al,BYTE PTR [eax]
  406d22:	mov    ebp,0x1a075e08
  406d27:	add    BYTE PTR ds:0xa08f409,bl
  406d2d:	add    BYTE PTR [esi+0x9],dh
  406d30:	inc    esi
  406d31:	or     DWORD PTR [esi],eax
  406d33:	add    bh,cl
  406d35:	or     DWORD PTR [edi-0x9fff5f7],ebp
  406d3b:	or     DWORD PTR [ebp+0x2],eax
  406d3e:	or     al,BYTE PTR [eax]
  406d40:	and    eax,0x602450a
  406d45:	add    al,al
  406d47:	or     al,BYTE PTR [ebx]
  406d49:	add    al,BYTE PTR [esi]
  406d4b:	add    ch,cl
  406d4d:	or     al,BYTE PTR [ebx]
  406d4f:	add    al,BYTE PTR [esi]
  406d51:	add    ah,bh
  406d53:	or     al,0xe1
  406d55:	or     al,0x12
  406d57:	add    BYTE PTR [eax],ch
  406d59:	or     eax,0x1e02d0
  406d5e:	(bad)  
  406d5f:	or     eax,0x60d7b
  406d64:	ror    DWORD PTR ds:0x120db0,0x3a
  406d6b:	push   cs
  406d6c:	rol    BYTE PTR [edx],1
  406d6e:	push   ss
  406d6f:	add    BYTE PTR [edi+ecx*1+0x120f8e],bl
  406d76:	(bad)  
  406d77:	(bad)  
  406d79:	add    dl,BYTE PTR [edx]
  406d7b:	add    ah,cl
  406d7d:	adc    al,dl
  406d7f:	add    al,BYTE PTR [esi]
  406d81:	add    BYTE PTR [eax],al
  406d83:	adc    esi,esp
  406d85:	adc    BYTE PTR [edx],dl
  406d87:	add    BYTE PTR [eax],ah
  406d89:	adc    eax,edx
  406d8b:	add    ah,BYTE PTR [edx]
  406d8d:	add    BYTE PTR [esi+0x11],ch
  406d90:	inc    eax
  406d91:	adc    DWORD PTR [esi],edx
  406d93:	add    BYTE PTR [ecx+edx*1+0x60f8e],dl
  406d9a:	lods   al,BYTE PTR ds:[esi]
  406d9b:	adc    DWORD PTR [ebx],eax
  406d9d:	add    dl,BYTE PTR [edx]
  406d9f:	add    BYTE PTR [edx+0x1602d012],ch
  406da5:	add    bh,bh
  406da7:	adc    dl,cl
  406da9:	adc    dl,BYTE PTR [esi]
  406dab:	add    BYTE PTR [edx],bl
  406dad:	adc    edx,ecx
  406daf:	adc    al,BYTE PTR [esi]
  406db1:	add    cl,cl
  406db3:	adc    edi,DWORD PTR [edi-0x10fff9ed]
  406db9:	adc    al,0x3
  406dbb:	add    al,BYTE PTR [esi]
  406dbd:	add    BYTE PTR [edx],al
  406dbf:	adc    eax,0x260ce1
  406dc4:	ss adc eax,0x61523
  406dca:	enter  0x315,0x2
  406dce:	sub    al,BYTE PTR [eax]
  406dd0:	aaa    
  406dd1:	push   ss
  406dd2:	loope  0x406de0
  406dd4:	push   es
  406dd5:	add    BYTE PTR [edi+0x6169616],ah
  406ddb:	add    al,bl
  406ddd:	push   ss
  406dde:	ret    
  406ddf:	push   ss
  406de0:	push   es
  406de1:	add    ah,dh
  406de3:	sbb    dl,ch
  406de5:	sbb    al,BYTE PTR [esi]
  406de7:	add    BYTE PTR [eax+0x61d6e1d],cl
  406ded:	add    BYTE PTR [ecx+0x61ad51d],ah
  406df3:	add    BYTE PTR [ebp+0x602031d],dh
  406df9:	add    ch,bl
  406dfb:	sbb    eax,0x61dcb
  406e00:	hlt    
  406e01:	sbb    eax,0x61dcb
  406e06:	adc    DWORD PTR [esi],ebx
  406e08:	retf   
  406e09:	sbb    eax,0x1e2f0006
  406e0e:	retf   
  406e0f:	sbb    eax,0x1e480006
  406e14:	retf   
  406e15:	sbb    eax,0x1e610006
  406e1a:	retf   
  406e1b:	sbb    eax,0x1e7c0006
  406e20:	retf   
  406e21:	sbb    eax,0x1e950006
  406e26:	retf   
  406e27:	sbb    eax,0x1eb20006
  406e2c:	retf   
  406e2d:	sbb    eax,0x1ed80006
  406e32:	xchg   esi,eax
  406e33:	push   ss
  406e34:	push   es
  406e35:	add    dl,bh
  406e37:	push   ds
  406e38:	xchg   esi,eax
  406e39:	push   ss
  406e3a:	push   es
  406e3b:	add    BYTE PTR [edi+ebx*1],bl
  406e3e:	retf   
  406e3f:	sbb    eax,0x1f370006
  406e44:	retf   
  406e45:	sbb    eax,0x1f500006
  406e4a:	retf   
  406e4b:	sbb    eax,0x1f6e0006
  406e50:	scas   eax,DWORD PTR es:[edi]
  406e51:	or     DWORD PTR [esi],eax
  406e53:	add    BYTE PTR [edi+ebx*1+0x609af],cl
  406e5a:	test   al,0x1f
  406e5c:	and    BYTE PTR [esi],al
  406e5e:	and    eax,DWORD PTR [ecx]
  406e60:	mov    esp,0x600001f
  406e65:	add    bl,cl
  406e67:	pop    ds
  406e68:	scas   eax,DWORD PTR es:[edi]
  406e69:	or     DWORD PTR [esi],eax
  406e6b:	add    BYTE PTR [edx],bl
  406e6d:	and    ch,dl
  406e6f:	sbb    al,BYTE PTR [esi]
  406e71:	add    BYTE PTR [ebp+0x20],al
  406e74:	add    eax,DWORD PTR [edx]
  406e76:	push   es
  406e77:	add    BYTE PTR [edi+0x20],bl
  406e7a:	add    eax,DWORD PTR [edx]
  406e7c:	push   es
  406e7d:	add    BYTE PTR [ebx+0x20],ch
  406e80:	add    eax,DWORD PTR [edx]
  406e82:	push   es
  406e83:	add    BYTE PTR [ecx+0x1a020320],cl
  406e89:	add    al,dh
  406e8b:	and    bl,al
  406e8d:	and    BYTE PTR [esi],al
  406e8f:	add    BYTE PTR [ecx],ah
  406e91:	and    DWORD PTR [ebx],eax
  406e93:	add    al,BYTE PTR [esi]
  406e95:	add    BYTE PTR [ebp+0x21],dl
  406e98:	mov    edi,0x75002e13
  406e9d:	and    DWORD PTR [eax],esp
  406e9f:	push   es
  406ea0:	push   ss
  406ea1:	add    BYTE PTR [ebp+0x21],dh
  406ea4:	and    BYTE PTR [esi],al
  406ea6:	push   ss
  406ea7:	add    BYTE PTR [eax+0x6062021],bl
  406ead:	add    BYTE PTR [edi+0x6020321],ch
  406eb3:	add    BYTE PTR [edi+0x16020321],bh
  406eb9:	add    bl,ch
  406ebb:	and    DWORD PTR [eax],esp
  406ebd:	push   es
  406ebe:	push   es
  406ebf:	add    BYTE PTR [esi],bh
  406ec1:	and    al,BYTE PTR [ebx]
  406ec3:	add    al,BYTE PTR [esi]
  406ec5:	add    BYTE PTR [esi+0x22],ch
  406ec8:	mov    al,0xd
  406eca:	push   es
  406ecb:	add    BYTE PTR [edx+0xa09af22],ah
  406ed1:	add    BYTE PTR [ebp+0x32024522],bh
  406ed7:	add    bh,ch
  406ed9:	and    dl,al
  406edb:	and    cl,BYTE PTR [edx]
  406edd:	add    BYTE PTR [ebx+eiz*1],al
  406ee0:	inc    ebp
  406ee1:	add    al,BYTE PTR [esi]
  406ee3:	add    BYTE PTR [eax],bh
  406ee5:	and    esi,DWORD PTR [eax-0x6effedf3]
  406eeb:	and    edx,eax
  406eed:	add    dl,BYTE PTR [edx]
  406eef:	add    BYTE PTR [esi+0x1202d023],dh
  406ef5:	add    ch,bl
  406ef7:	and    edx,eax
  406ef9:	add    al,BYTE PTR [esi]
  406efb:	add    BYTE PTR [edx],dl
  406efd:	and    al,0x3
  406eff:	add    dh,BYTE PTR [esi]
  406f01:	add    BYTE PTR [ebp+0x24],al
  406f04:	xor    BYTE PTR [esi+edx*1],ah
  406f07:	add    BYTE PTR [ecx+0x24],bh
  406f0a:	pop    edx
  406f0b:	and    al,0x1a
  406f0d:	add    BYTE PTR [ebp+0x2e075e24],bl
  406f13:	add    BYTE PTR [ecx+0x24],bh
  406f16:	pop    edx
  406f17:	and    al,0x1a
  406f19:	add    bl,cl
  406f1b:	and    al,0x5e
  406f1d:	pop    es
  406f1e:	xor    al,BYTE PTR [eax]
  406f20:	outs   dx,BYTE PTR ds:[esi]
  406f21:	and    dh,BYTE PTR [eax-0x7fff9f3]
  406f27:	and    al,0x3
  406f29:	add    dh,BYTE PTR [edx]
  406f2b:	add    al,bh
  406f2d:	and    al,0x3
  406f2f:	add    dh,BYTE PTR [esi]
  406f31:	add    BYTE PTR [eiz*1+0x122430],al
  406f38:	and    DWORD PTR ds:0x1a02d0,esp
  406f3e:	inc    ecx
  406f3f:	and    eax,0x1a075e
  406f44:	pop    ebx
  406f45:	and    eax,0xa075e
  406f4a:	js     0x406f71
  406f4c:	inc    esi
  406f4d:	or     DWORD PTR [edx],ecx
  406f4f:	add    BYTE PTR [ecx+0xa024525],dl
  406f55:	add    BYTE PTR [edx+0xa024525],ah
  406f5b:	add    bh,ah
  406f5d:	and    eax,0x320245
  406f62:	add    DWORD PTR [esi],esp
  406f64:	loope  0x406f72
  406f66:	or     al,BYTE PTR [eax]
  406f68:	(bad)  
  406f6a:	inc    ebp
  406f6b:	add    al,BYTE PTR [esi]
  406f6d:	add    BYTE PTR [edx+0x1a020326],dh
  406f73:	add    al,bl
  406f75:	es pop esi
  406f77:	pop    es
  406f78:	sbb    al,BYTE PTR [eax]
  406f7a:	hlt    
  406f7b:	es pop esi
  406f7d:	pop    es
  406f7e:	add    BYTE PTR cs:[edi+eiz*1],al
  406f82:	add    eax,DWORD PTR [edx]
  406f84:	sbb    al,BYTE PTR [eax]
  406f86:	dec    ecx
  406f87:	daa    
  406f88:	pop    esi
  406f89:	pop    es
  406f8a:	sbb    al,BYTE PTR [eax]
  406f8c:	imul   esp,DWORD PTR [edi],0x5e
  406f8f:	pop    es
  406f90:	sbb    al,BYTE PTR [eax]
  406f92:	and    BYTE PTR [edi],0x5e
  406f95:	pop    es
  406f96:	push   es
  406f97:	add    BYTE PTR [edx],ah
  406f99:	sub    cl,ah
  406f9b:	or     al,0x6
  406f9d:	add    BYTE PTR [ebp+0x28],ah
  406fa0:	push   edx
  406fa1:	sub    BYTE PTR [esi],al
  406fa3:	add    BYTE PTR [ecx+0xa285228],al
  406fa9:	add    BYTE PTR [ebx+0x32024528],cl
  406faf:	add    BYTE PTR [ecx+0x6285228],al
  406fb5:	add    BYTE PTR [edx+0x6020328],bh
  406fbb:	add    al,al
  406fbd:	sub    BYTE PTR [eax-0x10fff9f3],dh
  406fc3:	sub    BYTE PTR [eax+0x20001e0d],dh
  406fc9:	sub    DWORD PTR [ebx],eax
  406fcb:	sub    DWORD PTR [edx],edx
  406fcd:	add    BYTE PTR [ebx+0x29],al
  406fd0:	rol    BYTE PTR [edx],1
  406fd2:	push   ds
  406fd3:	add    BYTE PTR [edx+0x29],dl
  406fd6:	add    ebp,DWORD PTR [ecx]
  406fd8:	push   ss
  406fd9:	add    BYTE PTR [edi+eiz*1],al
  406fdc:	add    eax,DWORD PTR [edx]
  406fde:	push   ds
  406fdf:	add    BYTE PTR [ebx+0x1e299329],dh
  406fe5:	add    bh,ah
  406fe7:	sub    DWORD PTR [ebx+0xd],edi
  406fea:	push   ds
  406feb:	add    bh,dh
  406fed:	sub    DWORD PTR [ebx+0x1a001e29],edx
  406ff3:	sub    ah,cl
  406ff5:	or     al,0x1e
  406ff7:	add    BYTE PTR [edx],dh
  406ff9:	sub    dl,BYTE PTR [ebx+0x51000629]
  406fff:	sub    dl,al
  407001:	and    al,BYTE PTR [esi]
  407003:	add    BYTE PTR [esi+0x2a],bl
  407006:	add    eax,DWORD PTR [edx]
  407008:	push   ds
  407009:	add    BYTE PTR [edx+0x1e29932a],al
  40700f:	add    ch,cl
  407011:	sub    bh,BYTE PTR [ebx+0xd]
  407014:	push   ds
  407015:	add    dh,dh
  407017:	sub    bh,BYTE PTR [ebx+0xd]
  40701a:	push   es
  40701b:	add    BYTE PTR ds:0x1202032b,cl
  407021:	add    BYTE PTR [esi],ch
  407023:	sub    edx,eax
  407025:	add    al,BYTE PTR [esi]
  407027:	add    BYTE PTR [edx+0x2b],bl
  40702a:	mov    al,0xd
  40702c:	push   ds
  40702d:	add    BYTE PTR [ebp+0x2b],ch
  407030:	jnp    0x40703f
  407032:	push   ss
  407033:	add    BYTE PTR [edi+0x160f8e2b],ch
  407039:	add    ch,bl
  40703b:	sub    ebx,DWORD PTR [edx+0x24]
  40703e:	push   es
  40703f:	add    BYTE PTR [eax],al
  407041:	sub    al,0x3
  407043:	add    dl,BYTE PTR [esi]
  407045:	add    BYTE PTR [esi],ch
  407047:	sub    al,0x18
  407049:	sub    al,0x1e
  40704b:	add    BYTE PTR ds:0x1e0d7b2c,bh
  407051:	add    BYTE PTR [eax+0x2c],bl
  407054:	jnp    0x407063
  407056:	push   ds
  407057:	add    BYTE PTR [ecx+0x2c],ch
  40705a:	jnp    0x407069
  40705c:	push   es
  40705d:	add    al,ah
  40705f:	sub    al,0xcb
  407061:	sbb    eax,0x2cf40006
  407066:	add    eax,DWORD PTR [edx]
  407068:	push   es
  407069:	add    BYTE PTR ds:0x122d062d,bl
  40706f:	add    BYTE PTR [eax+0x1202d02d],dh
  407075:	add    BYTE PTR [eax+0x2e],dl
  407078:	rol    BYTE PTR [edx],1
  40707a:	or     al,BYTE PTR [eax]
  40707c:	outs   dx,DWORD PTR ds:[esi]
  40707d:	cs inc ebp
  40707f:	add    cl,BYTE PTR [edx]
  407081:	add    BYTE PTR [esi+0x602452e],cl
  407087:	add    ch,ah
  407089:	add    eax,DWORD PTR cs:[edx]
  40708c:	push   es
  40708d:	add    BYTE PTR [edx],bl
  40708f:	das    
  407090:	std    
  407091:	adc    al,BYTE PTR cs:[eax]
  407094:	xor    DWORD PTR [edi],ebp
  407096:	rol    BYTE PTR [edx],1
  407098:	push   es
  407099:	add    BYTE PTR [ebp+0x2f],al
  40709c:	add    eax,DWORD PTR [edx]
  40709e:	push   ss
  40709f:	add    BYTE PTR [edi+ebp*1+0x18],bl
  4070a3:	sub    al,0x1e
  4070a5:	add    BYTE PTR [esi+0x2f],ah
  4070a8:	jnp    0x4070b7
  4070aa:	push   es
  4070ab:	add    BYTE PTR [eax+esi*1],bl
  4070ae:	mov    edi,0x2d000613
  4070b3:	xor    BYTE PTR [edi+0x60000613],bh
  4070b9:	xor    BYTE PTR [edi+0x69000613],bh
  4070bf:	xor    BYTE PTR [edi+0x74000613],bh
  4070c5:	xor    BYTE PTR [edi-0x77fff9ed],bh
  4070cb:	xor    cl,ah
  4070cd:	or     al,0x12
  4070cf:	add    BYTE PTR [esi+0x1202d030],ah
  4070d5:	add    dh,ch
  4070d7:	xor    al,dl
  4070d9:	add    al,BYTE PTR [esi]
  4070db:	add    BYTE PTR [edx],ch
  4070dd:	xor    DWORD PTR [ebx],eax
  4070df:	add    dl,BYTE PTR [esi]
  4070e1:	add    BYTE PTR [eax+0x31],al
  4070e4:	rcl    DWORD PTR [edx],1
  4070e6:	push   ss
  4070e7:	add    BYTE PTR [edx+0x31],cl
  4070ea:	rcl    DWORD PTR [edx],1
  4070ec:	push   ss
  4070ed:	add    BYTE PTR [ecx+esi*1-0x2f],dl
  4070f1:	adc    dl,BYTE PTR [esi]
  4070f3:	add    BYTE PTR [edx+0x31],ah
  4070f6:	rcl    DWORD PTR [edx],1
  4070f8:	push   es
  4070f9:	add    BYTE PTR [edx+0x16317d31],bl
  4070ff:	add    BYTE PTR [ecx+0x612d131],dh
  407105:	add    ah,cl
  407107:	xor    ecx,edx
  407109:	adc    al,BYTE PTR [esi]
  40710b:	add    dl,ah
  40710d:	xor    ebx,ecx
  40710f:	sbb    eax,0x320d0006
  407114:	mov    edi,0x5c000613
  407119:	xor    bh,BYTE PTR [edi+0x69000613]
  40711f:	xor    bh,BYTE PTR [edi-0x5ffff9ed]
  407125:	xor    bh,BYTE PTR [esi+0x32]
  407128:	push   es
  407129:	add    ch,cl
  40712b:	xor    al,BYTE PTR [ebx]
  40712d:	add    al,BYTE PTR [esi]
  40712f:	add    BYTE PTR [edi],al
  407131:	xor    eax,DWORD PTR [ebx]
  407133:	add    dh,BYTE PTR [ebx+0x0]
  407136:	sbb    al,0x33
  407138:	add    BYTE PTR [eax],al
  40713a:	push   es
  40713b:	add    BYTE PTR [edi],ah
  40713d:	xor    esp,ecx
  40713f:	or     al,0x6
  407141:	add    BYTE PTR [eax+0x33],cl
  407144:	add    eax,DWORD PTR [edx]
  407146:	push   es
  407147:	add    BYTE PTR [edi+0x26020333],cl
  40714d:	add    dh,al
  40714f:	xor    ebp,DWORD PTR [eax-0x2affd9cd]
  407155:	xor    esp,DWORD PTR [ebx]
  407157:	adc    eax,0x33f30026
  40715c:	test   al,0x33
  40715e:	add    BYTE PTR es:[esp+esi*1],al
  407162:	test   al,0x33
  407164:	add    BYTE PTR es:[edi],dl
  407167:	xor    al,0xa8
  407169:	xor    esp,DWORD PTR [esi]
  40716b:	add    BYTE PTR [ecx],bh
  40716d:	xor    al,0x23
  40716f:	adc    eax,0x34740026
  407174:	and    edx,DWORD PTR ds:0x348d0006
  40717a:	aad    0x1a
  40717c:	adc    al,BYTE PTR [eax]
  40717e:	cmps   DWORD PTR ds:[esi],DWORD PTR es:[edi]
  40717f:	xor    al,0xd0
  407181:	add    al,BYTE PTR [esi]
  407183:	add    ah,cl
  407185:	xor    al,0x3
  407187:	add    al,BYTE PTR [esi]
  407189:	add    al,ch
  40718b:	xor    al,0x3
  40718d:	add    al,BYTE PTR [esi]
  40718f:	add    BYTE PTR [esi],bl
  407191:	xor    eax,0x60203
  407196:	cmp    al,0x35
  407198:	and    eax,0x4a001635
  40719d:	xor    eax,0x160620
  4071a2:	jo     0x4071d9
  4071a4:	and    BYTE PTR [esi],al
  4071a6:	push   ss
  4071a7:	add    BYTE PTR [eax+0x16062035],cl
  4071ad:	add    BYTE PTR [esi+0x6062035],ch
  4071b3:	add    ah,dl
  4071b5:	xor    eax,0x61dcb
  4071ba:	adc    DWORD PTR [esi],esi
  4071bc:	add    eax,DWORD PTR [edx]
  4071be:	push   es
  4071bf:	add    BYTE PTR [esi],bl
  4071c1:	add    eax,DWORD PTR ss:[edx]
  4071c4:	push   es
  4071c5:	add    BYTE PTR [ebx+0x36],al
  4071c8:	loope  0x4071d6
  4071ca:	push   ss
  4071cb:	add    BYTE PTR [edi+0x36],ch
  4071ce:	push   edi
  4071cf:	ss push es
  4071d1:	add    BYTE PTR [esi+0x16062036],al
  4071d7:	add    dl,cl
  4071d9:	sbb    BYTE PTR ss:[esi+edx*1],ch
  4071dd:	add    bl,ah
  4071df:	sbb    BYTE PTR ss:[eax+eax*1],ch
  4071e3:	add    BYTE PTR [eax],al
  4071e5:	add    BYTE PTR [ecx],al
  4071e7:	add    BYTE PTR [eax],al
  4071e9:	add    BYTE PTR [eax],al
  4071eb:	add    BYTE PTR [ecx],al
  4071ed:	add    BYTE PTR [ecx],al
  4071ef:	add    BYTE PTR [eax],al
  4071f1:	add    BYTE PTR [eax],dl
  4071f3:	add    BYTE PTR [ebx],dl
  4071f5:	add    BYTE PTR [eax],ah
  4071f7:	add    BYTE PTR ds:0x1000100,al
  4071fd:	add    BYTE PTR [eax],al
  4071ff:	add    BYTE PTR [eax],dl
  407201:	add    BYTE PTR [ebp+0x0],ah
  407204:	and    BYTE PTR [eax],al
  407206:	add    eax,0x6001a00
  40720b:	add    BYTE PTR [eax],al
  40720d:	add    BYTE PTR [eax],dl
  40720f:	add    BYTE PTR [ebx+0x0],dh
  407212:	add    DWORD PTR [eax],0x1a0005
  407218:	or     eax,DWORD PTR [eax]
  40721a:	add    BYTE PTR [eax],al
  40721c:	adc    BYTE PTR [eax],al
  40721e:	mov    edi,0x5008100
  407223:	add    BYTE PTR ds:0x1300,bl
  407229:	add    BYTE PTR [eax],dl
  40722b:	add    cl,cl
  40722d:	add    BYTE PTR [ecx+0x27000500],al
  407233:	add    BYTE PTR [eax],ah
  407235:	add    BYTE PTR [eax-0x2afff000],al
  40723b:	add    BYTE PTR [ecx+0x27000500],al
  407241:	add    BYTE PTR [edx],ah
  407243:	add    BYTE PTR [eax],al
  407245:	add    DWORD PTR [eax],eax
  407247:	add    ah,ah
  407249:	add    BYTE PTR [ecx+0x29001500],al
  40724f:	add    BYTE PTR [eax],ch
  407251:	add    BYTE PTR [eax],al
  407253:	add    DWORD PTR [eax],eax
  407255:	add    al,bh
  407257:	add    BYTE PTR [ecx+0x29001500],al
  40725d:	add    BYTE PTR [eax+eax*1],ch
  407260:	add    BYTE PTR [ecx],al
  407262:	add    BYTE PTR [eax],al
  407264:	adc    al,BYTE PTR [ecx]
  407266:	add    DWORD PTR [eax],0x290015
  40726c:	xor    BYTE PTR [eax],al
  40726e:	add    BYTE PTR [ecx],al
  407270:	add    BYTE PTR [eax],al
  407272:	sub    al,0x1
  407274:	add    DWORD PTR [eax],0x290015
  40727a:	xor    al,0x0
  40727c:	add    BYTE PTR [eax],al
  40727e:	adc    BYTE PTR [eax],al
  407280:	dec    esp
  407281:	add    DWORD PTR [ecx+0x29001c00],eax
  407287:	add    BYTE PTR [eax],bh
  407289:	add    BYTE PTR [eax],al
  40728b:	add    BYTE PTR [eax],dl
  40728d:	add    BYTE PTR [ecx+0x1],ah
  407290:	add    DWORD PTR [eax],0x2d001c
  407296:	inc    ebx
  407297:	add    BYTE PTR [eax],al
  407299:	add    BYTE PTR [eax],dl
  40729b:	add    BYTE PTR [ecx+eax*1-0x7f],bh
  40729f:	add    BYTE PTR ds:0x4c003000,al
  4072a5:	add    BYTE PTR [ecx],al
  4072a7:	add    BYTE PTR [eax],dl
  4072a9:	add    BYTE PTR [edx+0x19008101],dl
  4072af:	add    BYTE PTR [ebx],dh
  4072b1:	add    BYTE PTR [eax+eax*1+0x0],dl
  4072b5:	add    BYTE PTR [eax],dl
  4072b7:	add    BYTE PTR [ecx+eax*1+0x50081],ah
  4072be:	cmp    BYTE PTR [eax],al
  4072c0:	pop    esp
  4072c1:	add    BYTE PTR [eax],al
  4072c3:	add    BYTE PTR [eax],dl
  4072c5:	add    BYTE PTR [ebx+0x5008101],ch
  4072cb:	add    BYTE PTR [ecx+0x0],cl
  4072ce:	jle    0x4072d0
  4072d0:	add    BYTE PTR [ecx],0x10
  4072d3:	add    BYTE PTR [edx+0x5008101],bh
  4072d9:	add    BYTE PTR [ebp+0x0],dl
  4072dc:	xchg   edi,eax
  4072dd:	add    BYTE PTR [eax],al
  4072df:	add    BYTE PTR [eax],dl
  4072e1:	add    bh,cl
  4072e3:	add    DWORD PTR [ecx+0x57000500],eax
  4072e9:	add    BYTE PTR [eax+eax*1+0x100000],bl
  4072f0:	loopne 0x4072f3
  4072f2:	add    DWORD PTR [eax],0x610005
  4072f8:	test   al,0x0
  4072fa:	add    eax,DWORD PTR [ecx]
  4072fc:	adc    BYTE PTR [eax],al
  4072fe:	push   ebp
  4072ff:	and    eax,DWORD PTR [eax]
  407301:	add    BYTE PTR ds:0xba006300,al
  407307:	add    BYTE PTR [ecx-0x80],dl
  40730a:	cmp    eax,DWORD PTR [ebx]
  40730c:	adc    eax,DWORD PTR [eax]
  40730e:	push   ecx
  40730f:	or     BYTE PTR [edx+0x3],0x13
  407313:	add    BYTE PTR [ecx-0x80],dl
  407316:	push   esp
  407317:	add    edx,DWORD PTR [ebx]
  407319:	add    BYTE PTR [ecx-0x80],dl
  40731c:	pop    edi
  40731d:	add    edx,DWORD PTR [ebx]
  40731f:	add    BYTE PTR [ecx-0x80],dl
  407322:	outs   dx,DWORD PTR ds:[esi]
  407323:	add    edx,DWORD PTR [ebx]
  407325:	add    BYTE PTR [ecx-0x80],dl
  407328:	xchg   DWORD PTR [ebx],eax
  40732a:	adc    eax,DWORD PTR [eax]
  40732c:	push   ecx
  40732d:	and    BYTE PTR [ecx+0x51001303],0x80
  407334:	mov    ch,0x3
  407336:	adc    eax,DWORD PTR [eax]
  407338:	push   ecx
  407339:	or     al,0x3
  40733c:	adc    eax,DWORD PTR [eax]
  40733e:	push   ecx
  40733f:	sbb    al,0x3
  407342:	adc    eax,DWORD PTR [eax]
  407344:	push   esi
  407345:	sub    ch,0x3
  407348:	adc    eax,DWORD PTR [eax]
  40734a:	push   esi
  40734b:	xor    dl,0x3
  40734e:	adc    eax,DWORD PTR [eax]
  407350:	push   esi
  407351:	cmp    cl,0x3
  407354:	adc    eax,DWORD PTR [eax]
  407356:	push   esi
  407357:	add    BYTE PTR [esi],0x4
  40735a:	adc    eax,DWORD PTR [eax]
  40735c:	push   esi
  40735d:	adc    BYTE PTR [esp+eax*1],0x13
  407361:	add    BYTE PTR [esi-0x80],dl
  407364:	sub    eax,0x56001304
  407369:	add    BYTE PTR [edi+0x4],0x13
  40736d:	add    BYTE PTR [esi-0x80],dl
  407370:	pop    esp
  407371:	add    al,0x13
  407373:	add    BYTE PTR [esi-0x80],dl
  407376:	jne    0x40737c
  407378:	adc    eax,DWORD PTR [eax]
  40737a:	push   esi
  40737b:	or     BYTE PTR [ebp+0x56001304],0x80
  407382:	lods   eax,DWORD PTR ds:[esi]
  407383:	add    al,0x13
  407385:	add    BYTE PTR [esi-0x80],dl
  407388:	iret   
  407389:	add    al,0x13
  40738b:	add    BYTE PTR [esi-0x80],dl
  40738e:	jmp    0x407394
  407390:	adc    eax,DWORD PTR [eax]
  407392:	push   esi
  407393:	add    BYTE PTR [esi],0x5
  407396:	adc    eax,DWORD PTR [eax]
  407398:	push   esi
  407399:	sbb    BYTE PTR [esi],0x5
  40739c:	adc    eax,DWORD PTR [eax]
  40739e:	push   ecx
  40739f:	and    ah,0x5
  4073a2:	rol    DWORD PTR [eax],0x1
  4073a5:	add    BYTE PTR [ebp+0x1011006],ah
  4073ab:	add    BYTE PTR [edi+0x5100c106],bh
  4073b1:	and    cl,0x6
  4073b4:	sbb    BYTE PTR [ecx],al
  4073b6:	push   ecx
  4073b7:	or     BYTE PTR [edx],0x7
  4073ba:	sbb    BYTE PTR [ecx],al
  4073bc:	add    DWORD PTR [eax],eax
  4073be:	fimul  WORD PTR [eax]
  4073c0:	dec    edx
  4073c1:	add    DWORD PTR [ecx],eax
  4073c3:	add    BYTE PTR [ebx],ch
  4073c5:	or     DWORD PTR [esi+0x1],ecx
  4073c8:	add    DWORD PTR [eax],eax
  4073ca:	lea    ecx,[ecx]
  4073cc:	push   edx
  4073cd:	add    DWORD PTR [ecx],eax
  4073cf:	add    BYTE PTR [ebx+0x11015609],bl
  4073d5:	add    dl,bl
  4073d7:	or     DWORD PTR [edx+0x1],ebx
  4073da:	add    DWORD PTR [eax],eax
  4073dc:	in     eax,dx
  4073dd:	or     DWORD PTR [edi+0x1],ebx
  4073e0:	add    DWORD PTR [eax],eax
  4073e2:	push   es
  4073e3:	or     ah,BYTE PTR [edx+0x1]
  4073e6:	adc    DWORD PTR [eax],eax
  4073e8:	jnp    0x40740c
  4073ea:	aam    0x5
  4073ec:	adc    DWORD PTR [eax],eax
  4073ee:	or     BYTE PTR [edx],0x78
  4073f1:	add    DWORD PTR [ecx],eax
  4073f3:	add    BYTE PTR [eax+0x101780a],dl
  4073f9:	add    BYTE PTR [edi+0x100c10b],dl
  4073ff:	add    BYTE PTR [ebx+ecx*1+0x101e9],bh
  407406:	fmul   QWORD PTR [ebx]
  407408:	in     eax,dx
  407409:	add    DWORD PTR [ecx],eax
  40740b:	add    dh,bh
  40740d:	or     esi,ecx
  40740f:	add    DWORD PTR [ecx],eax
  407411:	add    BYTE PTR [ebx+ecx*1+0x10224],bh
  407418:	fmul   QWORD PTR [ebx]
  40741a:	in     eax,dx
  40741b:	add    DWORD PTR [ecx],eax
  40741d:	add    dh,bh
  40741f:	or     ebp,DWORD PTR [eax]
  407421:	add    dl,BYTE PTR [ecx]
  407423:	add    dh,dl
  407425:	or     al,0x5c
  407427:	add    al,BYTE PTR [ecx]
  407429:	add    BYTE PTR [ecx],cl
  40742b:	or     eax,0x10260
  407430:	adc    al,0xd
  407432:	imul   eax,DWORD PTR [edx],0xd9b0001
  407438:	jge    0x40743c
  40743a:	add    DWORD PTR [eax],eax
  40743c:	ror    BYTE PTR ds:0x10281,cl
  407442:	in     eax,dx
  407443:	or     eax,0x10118
  407448:	test   BYTE PTR ds:0x10285,0xfb
  40744f:	or     eax,0x80510289
  407454:	push   es
  407455:	push   cs
  407456:	lea    eax,[edx]
  407458:	push   ecx
  407459:	sub    BYTE PTR [edx],0xe
  40745c:	rol    DWORD PTR [eax],0x1
  40745f:	add    BYTE PTR [ebx+0x1034010],dl
  407465:	add    BYTE PTR [ebp+0x11034410],bl
  40746b:	add    BYTE PTR [esi+0x11026910],ah
  407471:	add    BYTE PTR [ebx+0x1026910],dh
  407477:	add    ch,ch
  407479:	or     DWORD PTR [edi+0x1],ebx
  40747c:	add    DWORD PTR [eax],eax
  40747e:	fst    DWORD PTR [eax]
  407480:	dec    ecx
  407481:	add    eax,DWORD PTR [ecx]
  407483:	add    BYTE PTR [eax],dl
  407485:	adc    DWORD PTR [esi+0x3],ecx
  407488:	add    DWORD PTR [eax],eax
  40748a:	xor    BYTE PTR [ecx],dl
  40748c:	push   ebx
  40748d:	add    eax,DWORD PTR [ecx]
  40748f:	add    BYTE PTR [esi+0x1035811],al
  407495:	add    BYTE PTR [edx+0x1035d11],bl
  40749b:	add    BYTE PTR [ebp+0x3036211],dh
  4074a1:	add    cl,cl
  4074a3:	adc    DWORD PTR [ecx-0x1efffcfe],eax
  4074a9:	adc    DWORD PTR [edi+0x1],ebx
  4074ac:	add    DWORD PTR [eax],eax
  4074ae:	xor    DWORD PTR [edx],edx
  4074b0:	je     0x4074b5
  4074b2:	add    DWORD PTR [eax],eax
  4074b4:	push   ecx
  4074b5:	adc    bh,BYTE PTR [eax+0x3]
  4074b8:	push   ecx
  4074b9:	or     BYTE PTR [edx+0x51011812],0x80
  4074c0:	xchg   edx,eax
  4074c1:	adc    bl,BYTE PTR [eax]
  4074c3:	add    DWORD PTR [ecx],eax
  4074c5:	add    BYTE PTR [eax+0x14],cl
  4074c8:	rol    DWORD PTR [eax],0x1
  4074cb:	add    BYTE PTR [ecx+0x14],dl
  4074ce:	rol    DWORD PTR [eax],0x1
  4074d1:	add    BYTE PTR [esp+edx*1-0x3f],bl
  4074d5:	add    BYTE PTR [ecx],al
  4074d7:	add    BYTE PTR [edi+0x14],ah
  4074da:	scas   eax,DWORD PTR es:[edi]
  4074db:	add    eax,DWORD PTR [ecx]
  4074dd:	add    BYTE PTR [ebx+0x14],dh
  4074e0:	js     0x4074e3
  4074e2:	add    DWORD PTR [eax],eax
  4074e4:	adc    al,0xd
  4074e6:	imul   eax,DWORD PTR [edx],0x147e0001
  4074ec:	pop    edi
  4074ed:	add    DWORD PTR [ecx],eax
  4074ef:	add    BYTE PTR [ebp+0x1034410],bl
  4074f5:	add    BYTE PTR [ecx+0x1011014],cl
  4074fb:	add    BYTE PTR [edx+0x51011014],ah
  407501:	add    al,0x14
  407504:	sbb    BYTE PTR [ecx],al
  407506:	adc    DWORD PTR [eax],eax
  407508:	iret   
  407509:	adc    al,0x81
  40750b:	add    dl,BYTE PTR [ecx-0x80]
  40750e:	push   ecx
  40750f:	adc    eax,0x80510118
  407514:	arpl   WORD PTR ds:0x805100c1,dx
  40751a:	je     0x407531
  40751c:	rol    DWORD PTR [eax],0x11
  40751f:	add    BYTE PTR [edi+0x1100c106],bh
  407525:	add    BYTE PTR ds:0x11043316,bl
  40752b:	add    BYTE PTR [ecx+0x16],al
  40752e:	aaa    
  40752f:	add    al,0x11
  407531:	add    BYTE PTR [esi+edx*1+0x37],dl
  407535:	add    al,0x13
  407537:	add    BYTE PTR [esi+0x16],bl
  40753a:	test   DWORD PTR [edx],eax
  40753c:	adc    eax,DWORD PTR [eax]
  40753e:	jb     0x407556
  407540:	add    DWORD PTR [edx],0x16830011
  407546:	sbb    BYTE PTR [ecx],al
  407548:	adc    DWORD PTR [eax],eax
  40754a:	mov    bh,0x16
  40754c:	inc    ebx
  40754d:	add    al,0x11
  40754f:	add    ah,ah
  407551:	push   ss
  407552:	dec    eax
  407553:	add    al,0x6
  407555:	add    BYTE PTR [eax+0x23],ch
  407558:	inc    eax
  407559:	add    eax,DWORD PTR [esi]
  40755b:	add    BYTE PTR [eax+0x1b],cl
  40755e:	jmp    0x407565
  407560:	push   es
  407561:	add    BYTE PTR [eax+0x1b],dl
  407564:	push   esi
  407565:	add    DWORD PTR [eax+0x21],edx
  407568:	add    BYTE PTR [eax],al
  40756a:	add    BYTE PTR [eax],al
  40756c:	xchg   esi,eax
  40756d:	add    BYTE PTR [ebp+eax*1-0x6d],al
  407571:	add    BYTE PTR [ecx],al
  407573:	add    BYTE PTR [ecx+eiz*1+0x0],dh
  407577:	add    BYTE PTR [eax],al
  407579:	add    BYTE PTR [esi-0x6cfaa600],dl
  40757f:	add    BYTE PTR [edx],al
  407581:	add    BYTE PTR [ebx+0x21],bl
  407587:	add    BYTE PTR [esi-0x65fa8e00],dl
  40758d:	add    BYTE PTR [ebx],al
  40758f:	add    BYTE PTR [eax+0x21],ch
  407595:	add    BYTE PTR [ecx-0x61fa4600],dl
  40759b:	add    BYTE PTR [ebx],al
  40759d:	add    al,dl
  40759f:	and    DWORD PTR [eax],eax
  4075a1:	add    BYTE PTR [eax],al
  4075a3:	add    BYTE PTR [esi-0x5afa32e8],al
  4075a9:	add    BYTE PTR [eax+eax*1],al
  4075ac:	add    BYTE PTR [eax],al
  4075ae:	add    BYTE PTR [eax],al
  4075b0:	add    BYTE PTR [eax],0x96
  4075b3:	and    bl,dl
  4075b5:	add    eax,0x400a9
  4075ba:	add    BYTE PTR [eax],al
  4075bc:	add    BYTE PTR [eax],al
  4075be:	add    BYTE PTR [eax],0x96
  4075c1:	and    BYTE PTR [ebp+eax*1-0x53],al
  4075c5:	add    BYTE PTR [eax+eax*1],al
  4075c8:	add    BYTE PTR [eax],al
  4075ca:	add    BYTE PTR [eax],al
  4075cc:	add    BYTE PTR [eax],0x96
  4075cf:	and    BYTE PTR [edx+0x5],bl
  4075d2:	mov    ah,0x0
  4075d4:	add    eax,0x0
  4075d9:	add    BYTE PTR [eax+0x72209600],al
  4075df:	add    eax,0x700bc
  4075e4:	fsub   DWORD PTR [ecx]
  4075e6:	add    BYTE PTR [eax],al
  4075e8:	add    BYTE PTR [eax],al
  4075ea:	xchg   BYTE PTR [eax],bl
  4075ec:	int    0x5
  4075ee:	movs   DWORD PTR es:[edi],DWORD PTR ds:[esi]
  4075ef:	add    BYTE PTR [eax],cl
  4075f1:	add    al,ah
  4075f3:	and    DWORD PTR [eax],eax
  4075f5:	add    BYTE PTR [eax],al
  4075f7:	add    BYTE PTR [ebx-0x6fa0400],al
  4075fd:	add    BYTE PTR [eax],cl
  4075ff:	add    BYTE PTR [edi+0x22],dh
  407602:	add    BYTE PTR [eax],al
  407604:	add    BYTE PTR [eax],al
  407606:	add    DWORD PTR [eax],0x4
  407609:	push   es
  40760a:	movs   DWORD PTR es:[edi],DWORD PTR ds:[esi]
  40760b:	add    BYTE PTR [ecx],cl
  40760d:	add    BYTE PTR [edi+0x22],bh
  407610:	add    BYTE PTR [eax],al
  407612:	add    BYTE PTR [eax],al
  407614:	or     DWORD PTR [eax],0xb
  407617:	push   es
  407618:	inc    BYTE PTR [eax]
  40761a:	or     DWORD PTR [eax],eax
  40761c:	mov    BYTE PTR [edx],ah
  40761e:	add    BYTE PTR [eax],al
  407620:	add    BYTE PTR [eax],al
  407622:	add    DWORD PTR [eax],0x102063b
  407628:	or     DWORD PTR [eax],eax
  40762a:	dec    esp
  40762b:	and    al,0x0
  40762d:	add    BYTE PTR [eax],al
  40762f:	add    BYTE PTR [ecx-0x5af9a500],al
  407635:	add    BYTE PTR [ebx],cl
  407637:	add    BYTE PTR [eiz*1+0x0],al
  40763e:	add    DWORD PTR [eax],0x1090678
  407644:	or     eax,DWORD PTR [eax]
  407646:	sub    al,0x25
  407648:	add    BYTE PTR [eax],al
  40764a:	add    BYTE PTR [eax],al
  40764c:	add    DWORD PTR [eax],0xa50693
  407652:	or     eax,0x258800
  407657:	add    BYTE PTR [eax],al
  407659:	add    BYTE PTR [esi-0x5afa32e8],al
  40765f:	add    BYTE PTR ds:0x259800,cl
  407665:	add    BYTE PTR [eax],al
  407667:	add    BYTE PTR [esi-0x5afa32e8],al
  40766d:	add    BYTE PTR ds:0x25f400,cl
  407673:	add    BYTE PTR [eax],al
  407675:	add    BYTE PTR [esi+0x2007aa00],al
  40767b:	add    DWORD PTR ds:0x267400,ecx
  407681:	add    BYTE PTR [eax],al
  407683:	add    BYTE PTR [ecx-0x5af84400],al
  407689:	add    BYTE PTR [edi],cl
  40768b:	add    BYTE PTR [edi+eiz*1+0x0],cl
  407692:	add    DWORD PTR [eax],0x12007da
  407698:	(bad)  
  40769a:	mov    al,0x28
  40769c:	add    BYTE PTR [eax],al
  40769e:	add    BYTE PTR [eax],al
  4076a0:	xchg   BYTE PTR [eax],al
  4076a2:	repz pop es
  4076a4:	movs   DWORD PTR es:[edi],DWORD PTR ds:[esi]
  4076a5:	add    BYTE PTR [ecx],dl
  4076a7:	add    BYTE PTR [eax],ch
  4076a9:	sub    DWORD PTR [eax],eax
  4076ab:	add    BYTE PTR [eax],al
  4076ad:	add    dh,ah
  4076af:	add    DWORD PTR [edx],ebp
  4076b1:	or     BYTE PTR [eax],ch
  4076b3:	add    DWORD PTR [ecx],edx
  4076b5:	add    BYTE PTR [eax+0x29],bh
  4076b8:	add    BYTE PTR [eax],al
  4076ba:	add    BYTE PTR [eax],al
  4076bc:	out    0x1,al
  4076be:	sub    cl,BYTE PTR [eax]
  4076c0:	xor    BYTE PTR [ecx],al
  4076c2:	adc    eax,DWORD PTR [eax]
  4076c4:	leave  
  4076c5:	sub    DWORD PTR [eax],eax
  4076c7:	add    BYTE PTR [eax],al
  4076c9:	add    dh,ah
  4076cb:	add    DWORD PTR [eax+ecx*1+0x3a],ebx
  4076cf:	add    DWORD PTR [esi],edx
  4076d1:	add    ah,dh
  4076d3:	sub    DWORD PTR [eax],eax
  4076d5:	add    BYTE PTR [eax],al
  4076d7:	add    dh,ah
  4076d9:	add    DWORD PTR [esi+0x8],esp
  4076dc:	movs   DWORD PTR es:[edi],DWORD PTR ds:[esi]
  4076dd:	add    BYTE PTR [edi],dl
  4076df:	add    BYTE PTR [edx+ebp*1+0x0],dl
  4076e3:	add    BYTE PTR [eax],al
  4076e5:	add    BYTE PTR [esi+0x40086e08],al
  4076eb:	add    DWORD PTR [edi],edx
  4076ed:	add    BYTE PTR [eax+0x2a],ah
  4076f0:	add    BYTE PTR [eax],al
  4076f2:	add    BYTE PTR [eax],al
  4076f4:	add    DWORD PTR [eax],0x144089a
  4076fa:	pop    ss
  4076fb:	add    BYTE PTR [eax+0x25],dl
  407701:	add    BYTE PTR [ecx-0x30dda400],dl
  407707:	add    eax,0x2b2c0018
  40770c:	add    BYTE PTR [eax],al
  40770e:	add    BYTE PTR [eax],al
  407710:	xchg   ecx,eax
  407711:	sbb    BYTE PTR [edx+0x28],bh
  407714:	push   ds
  407715:	add    al,0x19
  407717:	add    BYTE PTR [eax],dh
  407719:	sub    eax,DWORD PTR [eax]
  40771b:	add    BYTE PTR [eax],al
  40771d:	add    BYTE PTR [ebx+0x6a0a3100],dl
  407723:	add    DWORD PTR [ecx],ebx
  407725:	add    BYTE PTR [esi+0x2b],cl
  407728:	add    BYTE PTR [eax],al
  40772a:	add    BYTE PTR [eax],al
  40772c:	xchg   BYTE PTR [eax],bl
  40772e:	int    0x5
  407730:	movs   DWORD PTR es:[edi],DWORD PTR ds:[esi]
  407731:	add    BYTE PTR [ecx],bl
  407733:	add    BYTE PTR [esi+0x2b],dl
  407736:	add    BYTE PTR [eax],al
  407738:	add    BYTE PTR [eax],al
  40773a:	sbb    DWORD PTR [eax],0xffffffcd
  40773d:	add    eax,0x1900a5
  407742:	add    BYTE PTR [eax],al
  407744:	add    BYTE PTR [eax],al
  407746:	add    BYTE PTR [eax],al
  407748:	ret    
  407749:	pop    es
  40774a:	cmp    al,0xa
  40774c:	movs   DWORD PTR es:[edi],DWORD PTR ds:[esi]
  40774d:	add    BYTE PTR [ecx],bl
  40774f:	add    BYTE PTR [eax],al
  407751:	add    BYTE PTR [eax],al
  407753:	add    BYTE PTR [eax],al
  407755:	add    bl,al
  407757:	pop    es
  407758:	push   eax
  407759:	or     ah,BYTE PTR [ebp+0x76001900]
  40775f:	sub    eax,DWORD PTR [eax]
  407761:	add    BYTE PTR [eax],al
  407763:	add    BYTE PTR [ebx+0x6f0a6008],al
  407769:	add    DWORD PTR [ecx],ebx
  40776b:	add    BYTE PTR [esi+0x2b],bh
  40776e:	add    BYTE PTR [eax],al
  407770:	add    BYTE PTR [eax],al
  407772:	or     DWORD PTR [eax],0x1730a70
  407778:	sbb    DWORD PTR [eax],eax
  40777a:	xchg   DWORD PTR [ebx],ebp
  40777c:	add    BYTE PTR [eax],al
  40777e:	add    BYTE PTR [eax],al
  407780:	xchg   ecx,eax
  407781:	sbb    BYTE PTR [edx+0x28],bh
  407784:	push   ds
  407785:	add    al,0x1a
  407787:	add    BYTE PTR [eax],al
  407789:	add    BYTE PTR [eax],al
  40778b:	add    BYTE PTR [ebx],al
  40778d:	add    BYTE PTR [esi+0x7f05cd18],al
  407793:	add    DWORD PTR [edx],ebx
  407795:	add    BYTE PTR [eax],al
  407797:	add    BYTE PTR [eax],al
  407799:	add    BYTE PTR [ebx],al
  40779b:	add    dh,al
  40779d:	add    DWORD PTR [ecx+0x1c01850a],edi
  4077a3:	add    BYTE PTR [eax],al
  4077a5:	add    BYTE PTR [eax],al
  4077a7:	add    BYTE PTR [ebx],al
  4077a9:	add    dh,al
  4077ab:	add    ebx,ebx
  4077ad:	or     cl,BYTE PTR [ecx+eax*1+0x1e]
  4077b4:	add    BYTE PTR [eax],al
  4077b6:	add    eax,DWORD PTR [eax]
  4077b8:	mov    BYTE PTR [ecx],0xe7
  4077bb:	or     dl,BYTE PTR [edi+0x2201]
  4077c1:	add    BYTE PTR [eax],al
  4077c3:	add    BYTE PTR [ebx],al
  4077c5:	add    BYTE PTR [esi+0x7f05cd18],al
  4077cb:	add    DWORD PTR [eax+eax*1],esp
  4077ce:	add    BYTE PTR [eax],al
  4077d0:	add    BYTE PTR [eax],al
  4077d2:	add    eax,DWORD PTR [eax]
  4077d4:	mov    BYTE PTR [ecx],0xb9
  4077d7:	or     ah,BYTE PTR [ebp+0x2600]
  4077dd:	add    BYTE PTR [eax],al
  4077df:	add    BYTE PTR [ebx],al
  4077e1:	add    dh,al
  4077e3:	add    ebx,ebx
  4077e5:	or     bl,BYTE PTR [edi+0x2601]
  4077eb:	add    BYTE PTR [eax],al
  4077ed:	add    BYTE PTR [ebx],al
  4077ef:	add    dh,al
  4077f1:	add    edi,esp
  4077f3:	or     ah,BYTE PTR [edi+0x2801]
  4077f9:	add    BYTE PTR [eax],al
  4077fb:	add    BYTE PTR [ebx],al
  4077fd:	add    BYTE PTR [esi+0x7f05cd18],al
  407803:	add    DWORD PTR [ecx],ebp
  407805:	add    BYTE PTR [eax],al
  407807:	add    BYTE PTR [eax],al
  407809:	add    BYTE PTR [ebx],al
  40780b:	add    dh,al
  40780d:	add    DWORD PTR [ecx+0x2b01ad0a],edi
  407813:	add    BYTE PTR [eax],al
  407815:	add    BYTE PTR [eax],al
  407817:	add    BYTE PTR [ebx],al
  407819:	add    dh,al
  40781b:	add    ebx,ebx
  40781d:	or     dh,BYTE PTR [ebx+0x2c01]
  407823:	add    BYTE PTR [eax],al
  407825:	add    BYTE PTR [ebx],al
  407827:	add    dh,al
  407829:	add    edi,esp
  40782b:	or     dl,BYTE PTR [edi+0x2f01]
  407831:	add    BYTE PTR [eax],al
  407833:	add    BYTE PTR [ebx],al
  407835:	add    BYTE PTR [esi+0x7f05cd18],al
  40783b:	add    DWORD PTR [ecx],esi
  40783d:	add    BYTE PTR [eax],al
  40783f:	add    BYTE PTR [eax],al
  407841:	add    BYTE PTR [ebx],al
  407843:	add    dh,al
  407845:	add    DWORD PTR [ecx+0x3300a50a],edi
  40784b:	add    BYTE PTR [eax],al
  40784d:	add    BYTE PTR [eax],al
  40784f:	add    BYTE PTR [ebx],al
  407851:	add    dh,al
  407853:	add    ebx,ebx
  407855:	or     bl,BYTE PTR [edi+0x3301]
  40785b:	add    BYTE PTR [eax],al
  40785d:	add    BYTE PTR [ebx],al
  40785f:	add    dh,al
  407861:	add    edi,esp
  407863:	or     ah,BYTE PTR [edi-0x76ffcaff]
  407869:	sub    eax,DWORD PTR [eax]
  40786b:	add    BYTE PTR [eax],al
  40786d:	add    BYTE PTR [esi-0x42fa32e8],al
  407873:	add    DWORD PTR [esi],esi
  407875:	add    BYTE PTR [eax+0x2b],dh
  40787b:	add    bl,al
  40787d:	add    bh,BYTE PTR [edx+ecx*1]
  407880:	movs   DWORD PTR es:[edi],DWORD PTR ds:[esi]
  407881:	add    BYTE PTR [edx],bh
  407883:	add    dl,ah
  407885:	sub    eax,DWORD PTR [eax]
  407887:	add    BYTE PTR [eax],al
  407889:	add    bl,al
  40788b:	add    dl,BYTE PTR [eax+0xa]
  40788e:	movs   DWORD PTR es:[edi],DWORD PTR ds:[esi]
  40788f:	add    BYTE PTR [edx],bh
  407891:	add    BYTE PTR [esp+ebp*1],cl
  407894:	add    BYTE PTR [eax],al
  407896:	add    BYTE PTR [eax],al
  407898:	or     DWORD PTR [eax],0xfffffff1
  40789b:	or     bh,dh
  40789d:	add    BYTE PTR [edx],bh
  40789f:	add    BYTE PTR [esp+ebp*1],dl
  4078a2:	add    BYTE PTR [eax],al
  4078a4:	add    BYTE PTR [eax],al
  4078a6:	or     DWORD PTR [eax],0xf90b09
  4078ac:	cmp    al,BYTE PTR [eax]
  4078ae:	sbb    eax,0x2c
  4078b3:	add    BYTE PTR [ebx-0x37f4def8],al
  4078b9:	add    DWORD PTR [ebx],edi
  4078bb:	add    BYTE PTR ds:0x2c,ah
  4078c1:	add    BYTE PTR [ecx-0x32f4cbf8],al
  4078c7:	add    DWORD PTR [ebx],edi
  4078c9:	add    BYTE PTR [esi],ch
  4078cb:	sub    al,0x0
  4078cd:	add    BYTE PTR [eax],al
  4078cf:	add    BYTE PTR [ebx-0x2cf4b8f8],al
  4078d5:	add    DWORD PTR [eax+eax*1],edi
  4078d8:	ss sub al,0x0
  4078db:	add    BYTE PTR [eax],al
  4078dd:	add    BYTE PTR [ecx-0x27f4a3f8],al
  4078e3:	add    DWORD PTR [eax+eax*1],edi
  4078e6:	aas    
  4078e7:	sub    al,0x0
  4078e9:	add    BYTE PTR [eax],al
  4078eb:	add    BYTE PTR [ebx-0x21f48ef8],al
  4078f1:	add    DWORD PTR ds:0x2c4700,edi
  4078f7:	add    BYTE PTR [eax],al
  4078f9:	add    BYTE PTR [ecx-0x1cf47bf8],al
  4078ff:	add    DWORD PTR ds:0x2c5000,edi
  407905:	add    BYTE PTR [eax],al
  407907:	add    BYTE PTR [esi+0x405cd18],al
  40790d:	add    bh,BYTE PTR [esi]
  40790f:	add    BYTE PTR [eax+0x2c],dh
  407912:	add    BYTE PTR [eax],al
  407914:	add    BYTE PTR [eax],al
  407916:	ret    
  407917:	add    bh,BYTE PTR [edx+ecx*1]
  40791a:	movs   DWORD PTR es:[edi],DWORD PTR ds:[esi]
  40791b:	add    BYTE PTR [ecx+0x0],al
  40791e:	pushf  
  40791f:	sub    al,0x0
  407921:	add    BYTE PTR [eax],al
  407923:	add    bl,al
  407925:	add    dl,BYTE PTR [eax+0xa]
  407928:	movs   DWORD PTR es:[edi],DWORD PTR ds:[esi]
  407929:	add    BYTE PTR [ecx+0x0],al
  40792c:	(bad)  
  40792d:	sub    al,0x0
  40792f:	add    BYTE PTR [eax],al
  407931:	add    BYTE PTR [ebx+0xe0b2108],al
  407937:	add    al,BYTE PTR [ecx+0x0]
  40793a:	into   
  40793b:	sub    al,0x0
  40793d:	add    BYTE PTR [eax],al
  40793f:	add    BYTE PTR [ecx+0x130b3408],al
  407945:	add    al,BYTE PTR [ecx+0x0]
  407948:	xlat   BYTE PTR ds:[ebx]
  407949:	sub    al,0x0
  40794b:	add    BYTE PTR [eax],al
  40794d:	add    BYTE PTR [ebx-0x2cf4b8f8],al
  407953:	add    DWORD PTR [edx+0x0],eax
  407956:	fild   QWORD PTR [eax+eax*1]
  407959:	add    BYTE PTR [eax],al
  40795b:	add    BYTE PTR [ecx-0x27f4a3f8],al
  407961:	add    DWORD PTR [edx+0x0],eax
  407964:	call   0x407995
  407969:	add    BYTE PTR [ebx+0x190b7108],al
  40796f:	add    al,BYTE PTR [ebx+0x0]
  407972:	lock sub al,0x0
  407975:	add    BYTE PTR [eax],al
  407977:	add    BYTE PTR [ecx+0x1e0b8408],al
  40797d:	add    al,BYTE PTR [ebx+0x0]
  407980:	stc    
  407981:	sub    al,0x0
  407983:	add    BYTE PTR [eax],al
  407985:	add    BYTE PTR [ecx-0x5afa32e8],al
  40798b:	add    BYTE PTR [eax+eax*1+0x17],al
  40798f:	sub    eax,0x0
  407994:	xchg   esi,eax
  407995:	or     BYTE PTR [ecx+0xc],ah
  407998:	add    al,BYTE PTR ss:[eax+eax*1+0x30]
  40799d:	sub    eax,0x0
  4079a2:	xchg   BYTE PTR [eax],al
  4079a4:	outs   dx,BYTE PTR ds:[esi]
  4079a5:	or     al,0x3b
  4079a7:	add    al,BYTE PTR [eax+eax*1-0x78]
  4079ab:	sub    eax,0x0
  4079b0:	xchg   BYTE PTR [eax],al
  4079b2:	jg     0x4079c0
  4079b4:	inc    esi
  4079b5:	add    cl,BYTE PTR [eax+0x0]
  4079b8:	fsubr  QWORD PTR ds:0x0
  4079be:	xchg   BYTE PTR [eax],al
  4079c0:	xchg   esi,eax
  4079c1:	or     al,0x73
  4079c3:	add    DWORD PTR [ebx+0x0],ecx
  4079c6:	add    al,0x2e
  4079c8:	add    BYTE PTR [eax],al
  4079ca:	add    BYTE PTR [eax],al
  4079cc:	add    DWORD PTR [eax],0x2500cab
  4079d2:	dec    esp
  4079d3:	add    BYTE PTR [eax+0x2e],dl
  4079d6:	add    BYTE PTR [eax],al
  4079d8:	add    BYTE PTR [eax],al
  4079da:	add    DWORD PTR [eax],0x2560cb9
  4079e0:	dec    ebp
  4079e1:	add    BYTE PTR [eax+0x2e],bh
  4079e7:	add    BYTE PTR [ebx+0x730cc600],al
  4079ed:	add    DWORD PTR [esi+0x0],ecx
  4079f0:	add    BYTE PTR [edi],ch
  4079f2:	add    BYTE PTR [eax],al
  4079f4:	add    BYTE PTR [eax],al
  4079f6:	add    DWORD PTR [eax],0x30
  4079f9:	or     eax,0x4f0271
  4079fe:	sub    al,0x2f
  407a00:	add    BYTE PTR [eax],al
  407a02:	add    BYTE PTR [eax],al
  407a04:	add    DWORD PTR [eax],0x3e
  407a07:	or     eax,0x5100a5
  407a0c:	jl     0x407a3d
  407a0e:	add    BYTE PTR [eax],al
  407a10:	add    BYTE PTR [eax],al
  407a12:	add    DWORD PTR [eax],0xa50d4b
  407a18:	push   ecx
  407a19:	add    ah,cl
  407a1b:	xor    BYTE PTR [eax],al
  407a1d:	add    BYTE PTR [eax],al
  407a1f:	add    BYTE PTR [ecx+0x90d5d00],al
  407a25:	add    DWORD PTR [ecx+0x0],edx
  407a28:	test   al,0x31
  407a2a:	add    BYTE PTR [eax],al
  407a2c:	add    BYTE PTR [eax],al
  407a2e:	add    DWORD PTR [eax],0xa50d69
  407a34:	push   ebx
  407a35:	add    BYTE PTR [eax+0x32],cl
  407a38:	add    BYTE PTR [eax],al
  407a3a:	add    BYTE PTR [eax],al
  407a3c:	les    eax,FWORD PTR [eax]
  407a3e:	data16 or BYTE PTR [eax+0x2],bh
  407a42:	push   ebx
  407a43:	add    BYTE PTR [ebx+0x32],dh
  407a46:	add    BYTE PTR [eax],al
  407a48:	add    BYTE PTR [eax],al
  407a4a:	xchg   BYTE PTR [eax],bl
  407a4c:	int    0x5
  407a4e:	movs   DWORD PTR es:[edi],DWORD PTR ds:[esi]
  407a4f:	add    BYTE PTR [eax+eax*1-0x3c],dl
  407a53:	xor    BYTE PTR [eax],al
  407a55:	add    BYTE PTR [eax],al
  407a57:	add    BYTE PTR [ecx-0x10d54500],al
  407a5d:	add    eax,0x32880054
  407a62:	add    BYTE PTR [eax],al
  407a64:	add    BYTE PTR [eax],al
  407a66:	xchg   BYTE PTR [eax],bl
  407a68:	int    0x5
  407a6a:	movs   DWORD PTR es:[edi],DWORD PTR ds:[esi]
  407a6b:	add    BYTE PTR [ebp+0x0],dl
  407a6e:	les    esi,FWORD PTR [ebx]
  407a70:	add    BYTE PTR [eax],al
  407a72:	add    BYTE PTR [eax],al
  407a74:	out    0x1,al
  407a76:	push   ebx
  407a77:	push   cs
  407a78:	jmp    0x36:0xcc005502
  407a7f:	add    BYTE PTR [eax],al
  407a81:	add    dh,ah
  407a83:	add    ebx,esi
  407a85:	pop    es
  407a86:	movs   DWORD PTR es:[edi],DWORD PTR ds:[esi]
  407a87:	add    BYTE PTR [edi+0x0],dl
  407a8a:	les    esi,FWORD PTR [edi]
  407a8c:	add    BYTE PTR [eax],al
  407a8e:	add    BYTE PTR [eax],al
  407a90:	out    0x1,al
  407a92:	pushw  cs
  407a94:	movs   DWORD PTR es:[edi],DWORD PTR ds:[esi]
  407a95:	add    BYTE PTR [edi+0x0],dl
  407a98:	sbb    BYTE PTR [eax],bh
  407a9a:	add    BYTE PTR [eax],al
  407a9c:	add    BYTE PTR [eax],al
  407a9e:	out    0x1,al
  407aa0:	stos   BYTE PTR es:[edi],al
  407aa1:	pop    es
  407aa2:	repnz add dl,BYTE PTR [edi+0x0]
  407aa6:	cmp    BYTE PTR [ecx],bh
  407aa8:	add    BYTE PTR [eax],al
  407aaa:	add    BYTE PTR [eax],al
  407aac:	out    0x1,al
  407aae:	jne    0x407abe
  407ab0:	clc    
  407ab1:	add    bl,BYTE PTR [eax+0x0]
  407ab4:	dec    eax
  407ab5:	cmp    al,BYTE PTR [eax]
  407ab7:	add    BYTE PTR [eax],al
  407ab9:	add    dh,ah
  407abb:	add    DWORD PTR [esi+ecx*1+0x5a0300],ecx
  407ac2:	cmp    eax,DWORD PTR fs:[eax]
  407ac5:	add    BYTE PTR [eax],al
  407ac7:	add    dh,ah
  407ac9:	add    DWORD PTR [eax+ecx*1+0x3a],ebx
  407acd:	add    DWORD PTR [ebp+0x0],ebx
  407ad0:	mov    ah,0x3c
  407ad2:	add    BYTE PTR [eax],al
  407ad4:	add    BYTE PTR [eax],al
  407ad6:	out    0x1,al
  407ad8:	scas   al,BYTE PTR es:[edi]
  407ad9:	push   cs
  407ada:	stc    
  407adb:	add    BYTE PTR [esi+0x0],bl
  407ade:	les    edi,FWORD PTR ds:0x0
  407ae4:	out    0x1,al
  407ae6:	(bad)  
  407ae7:	push   cs
  407ae8:	or     al,BYTE PTR [ebx]
  407aea:	pop    edi
  407aeb:	add    BYTE PTR [esi+edi*1+0x0],al
  407aef:	add    BYTE PTR [eax],al
  407af1:	add    dh,ah
  407af3:	add    esp,edx
  407af5:	push   cs
  407af6:	adc    BYTE PTR [ebx],al
  407af8:	popa   
  407af9:	add    al,al
  407afb:	add    BYTE PTR ds:[eax],al
  407afe:	add    BYTE PTR [eax],al
  407b00:	out    0x1,al
  407b02:	out    0xe,al
  407b04:	jae    0x407b07
  407b06:	arpl   WORD PTR [eax],ax
  407b08:	cmp    al,0x3f
  407b0a:	add    BYTE PTR [eax],al
  407b0c:	add    BYTE PTR [eax],al
  407b0e:	out    0x1,al
  407b10:	lock push cs
  407b12:	movs   DWORD PTR es:[edi],DWORD PTR ds:[esi]
  407b13:	add    BYTE PTR [eax+eax*1-0x48],ah
  407b17:	aas    
  407b18:	add    BYTE PTR [eax],al
  407b1a:	add    BYTE PTR [eax],al
  407b1c:	out    0x1,al
  407b1e:	add    ecx,DWORD PTR [edi]
  407b20:	pop    ss
  407b21:	add    esp,DWORD PTR [eax+eax*1+0x38]
  407b25:	inc    eax
  407b26:	add    BYTE PTR [eax],al
  407b28:	add    BYTE PTR [eax],al
  407b2a:	out    0x1,al
  407b2c:	push   ds
  407b2d:	cldemote BYTE PTR [ebx]
  407b30:	add    BYTE PTR gs:[eax+0x40],bh
  407b37:	add    dh,ah
  407b39:	add    DWORD PTR [edx],edi
  407b3b:	cmovo  eax,DWORD PTR [ecx]
  407b3e:	data16 add BYTE PTR [eax],bh
  407b41:	inc    ecx
  407b42:	add    BYTE PTR [eax],al
  407b44:	add    BYTE PTR [eax],al
  407b46:	out    0x1,al
  407b48:	push   esi
  407b49:	movq   mm0,QWORD PTR [ecx]
  407b4c:	data16 add BYTE PTR [eax+0x41],bh
  407b53:	add    dh,ah
  407b55:	add    DWORD PTR [esi+0x6601730c],edx
  407b5b:	add    BYTE PTR [eax+0x42],al
  407b5e:	add    BYTE PTR [eax],al
  407b60:	add    BYTE PTR [eax],al
  407b62:	out    0x1,al
  407b64:	jae    0x407b75
  407b66:	js     0x407b6a
  407b68:	add    BYTE PTR [bx+si],dl
  407b6b:	inc    ebx
  407b6c:	add    BYTE PTR [eax],al
  407b6e:	add    BYTE PTR [eax],al
  407b70:	out    0x1,al
  407b72:	data16 or BYTE PTR [ebp-0x5bff9800],ah
  407b79:	inc    ebx
  407b7a:	add    BYTE PTR [eax],al
  407b7c:	add    BYTE PTR [eax],al
  407b7e:	add    DWORD PTR [eax],0x1090f86
  407b84:	push   0x447c00
  407b89:	add    BYTE PTR [eax],al
  407b8b:	add    BYTE PTR [ecx+0x210fad00],al
  407b91:	add    ebp,DWORD PTR [edx+0x0]
  407b94:	loopne 0x407bda
  407b96:	add    BYTE PTR [eax],al
  407b98:	add    BYTE PTR [eax],al
  407b9a:	add    DWORD PTR [eax],0xa50fc1
  407ba0:	ins    BYTE PTR es:[edi],dx
  407ba1:	add    BYTE PTR [eax*2+0x0],bl
  407ba8:	add    DWORD PTR [eax],0x3290fe9
  407bae:	ins    BYTE PTR es:[edi],dx
  407baf:	add    BYTE PTR [ebp+eax*2+0x0],al
  407bb6:	add    DWORD PTR [eax],0xfffffff9
  407bb9:	shld   DWORD PTR [eax],eax,cl
  407bbc:	ins    DWORD PTR es:[edi],dx
  407bbd:	add    BYTE PTR [eax+0x46],bl
  407bc0:	add    BYTE PTR [eax],al
  407bc2:	add    BYTE PTR [eax],al
  407bc4:	out    0x1,al
  407bc6:	adc    DWORD PTR [eax],edx
  407bc8:	movs   DWORD PTR es:[edi],DWORD PTR ds:[esi]
  407bc9:	add    BYTE PTR [ebp+0x0],ch
  407bcc:	int3   
  407bcd:	inc    esi
  407bce:	add    BYTE PTR [eax],al
  407bd0:	add    BYTE PTR [eax],al
  407bd2:	out    0x1,al
  407bd4:	sbb    eax,0x6d014010
  407bd9:	add    ah,ch
  407bdb:	inc    esi
  407bdc:	add    BYTE PTR [eax],al
  407bde:	add    BYTE PTR [eax],al
  407be0:	out    0x1,al
  407be2:	xor    DWORD PTR [eax],edx
  407be4:	xor    BYTE PTR [ebx],al
  407be6:	ins    DWORD PTR es:[edi],dx
  407be7:	add    BYTE PTR [ebx],bl
  407be9:	inc    edi
  407bea:	add    BYTE PTR [eax],al
  407bec:	add    BYTE PTR [eax],al
  407bee:	or     DWORD PTR [eax],0x49
  407bf1:	adc    BYTE PTR ds:0x23006e03,dh
  407bf7:	inc    edi
  407bf8:	add    BYTE PTR [eax],al
  407bfa:	add    BYTE PTR [eax],al
  407bfc:	or     DWORD PTR [eax],0x33a105c
  407c02:	outs   dx,BYTE PTR ds:[esi]
  407c03:	add    BYTE PTR [edi+eax*2],ch
  407c06:	add    BYTE PTR [eax],al
  407c08:	add    BYTE PTR [eax],al
  407c0a:	add    DWORD PTR [eax],0xa5106f
  407c10:	outs   dx,DWORD PTR ds:[esi]
  407c11:	add    BYTE PTR [edi+eax*2+0x0],dl
  407c18:	xchg   BYTE PTR [eax],cl
  407c1a:	not    DWORD PTR [ecx]
  407c1c:	add    ebp,DWORD PTR [bx+0x0]
  407c20:	pushf  
  407c21:	inc    edi
  407c22:	add    BYTE PTR [eax],al
  407c24:	add    BYTE PTR [eax],al
  407c26:	or     DWORD PTR [eax],0x36d1214
  407c2c:	outs   dx,DWORD PTR ds:[esi]
  407c2d:	add    BYTE PTR [ebp+0x47],ah
  407c33:	add    BYTE PTR [ecx+0x1e287a18],dl
  407c39:	add    al,0x70
  407c3b:	add    BYTE PTR [edi+eax*2+0x0],bh
  407c42:	xchg   BYTE PTR [eax],bl
  407c44:	int    0x5
  407c46:	mov    BYTE PTR [ebx],al
  407c48:	jo     0x407c4a
  407c4a:	cmp    BYTE PTR [eax+0x0],cl
  407c4d:	add    BYTE PTR [eax],al
  407c4f:	add    BYTE PTR [esi+0xa0ec600],al
  407c55:	add    esi,DWORD PTR [edx+0x0]
  407c58:	and    al,0x49
  407c5a:	add    BYTE PTR [eax],al
  407c5c:	add    BYTE PTR [eax],al
  407c5e:	xchg   BYTE PTR [eax],al
  407c60:	aam    0xe
  407c62:	adc    BYTE PTR [ebx],al
  407c64:	je     0x407c66
  407c66:	jo     0x407cb1
  407c68:	add    BYTE PTR [eax],al
  407c6a:	add    BYTE PTR [eax],al
  407c6c:	xchg   BYTE PTR [eax],al
  407c6e:	out    0xe,al
  407c70:	jae    0x407c73
  407c72:	jbe    0x407c74
  407c74:	mov    al,0x49
  407c76:	add    BYTE PTR [eax],al
  407c78:	add    BYTE PTR [eax],al
  407c7a:	xchg   BYTE PTR [eax],al
  407c7c:	call   0xf800:0x7700a512
  407c83:	dec    ecx
  407c84:	add    BYTE PTR [eax],al
  407c86:	add    BYTE PTR [eax],al
  407c88:	xchg   BYTE PTR [eax],al
  407c8a:	lock push cs
  407c8c:	movs   DWORD PTR es:[edi],DWORD PTR ds:[esi]
  407c8d:	add    BYTE PTR [edi+0x0],dh
  407c90:	fs dec edx
  407c92:	add    BYTE PTR [eax],al
  407c94:	add    BYTE PTR [eax],al
  407c96:	add    DWORD PTR [eax],0x39012bd
  407c9c:	ja     0x407c9e
  407c9e:	mov    ah,0x4b
  407ca0:	add    BYTE PTR [eax],al
  407ca2:	add    BYTE PTR [eax],al
  407ca4:	add    DWORD PTR [eax],0x3
  407ca7:	movhps QWORD PTR [ebx],xmm0
  407caa:	js     0x407cac
  407cac:	jl     0x407cfa
  407cae:	add    BYTE PTR [eax],al
  407cb0:	add    BYTE PTR [eax],al
  407cb2:	add    DWORD PTR [eax],0x1e
  407cb5:	cldemote BYTE PTR [ebx]
  407cb8:	jns    0x407cba
  407cba:	ror    BYTE PTR [eax+eax*1+0x0],1
  407cbe:	add    BYTE PTR [eax],al
  407cc0:	xchg   ecx,eax
  407cc1:	add    BYTE PTR [ebx],ch
  407cc3:	adc    edx,DWORD PTR [edi+0x8007a03]
  407cc9:	dec    ebp
  407cca:	add    BYTE PTR [eax],al
  407ccc:	add    BYTE PTR [eax],al
  407cce:	add    DWORD PTR [eax],0x1851342
  407cd4:	jl     0x407cd6
  407cd6:	dec    eax
  407cd7:	push   eax
  407cd8:	add    BYTE PTR [eax],al
  407cda:	add    BYTE PTR [eax],al
  407cdc:	add    DWORD PTR [eax],0x1a71359
  407ce2:	jle    0x407ce4
  407ce4:	xor    al,0x51
  407ce6:	add    BYTE PTR [eax],al
  407ce8:	add    BYTE PTR [eax],al
  407cea:	add    DWORD PTR [eax],0xa5136d
  407cf0:	jg     0x407cf2
  407cf2:	cwde   
  407cf3:	push   ecx
  407cf4:	add    BYTE PTR [eax],al
  407cf6:	add    BYTE PTR [eax],al
  407cf8:	add    DWORD PTR [eax],0x3a
  407cfb:	cmovo  eax,DWORD PTR [ecx]
  407cfe:	jg     0x407d00
  407d00:	pop    eax
  407d01:	push   edx
  407d02:	add    BYTE PTR [eax],al
  407d04:	add    BYTE PTR [eax],al
  407d06:	add    DWORD PTR [eax],0x56
  407d09:	movq   mm0,QWORD PTR [ecx]
  407d0c:	jg     0x407d0e
  407d0e:	pushf  
  407d0f:	push   edx
  407d10:	add    BYTE PTR [eax],al
  407d12:	add    BYTE PTR [eax],al
  407d14:	add    DWORD PTR [eax],0x1ad055a
  407d1a:	jg     0x407d1c
  407d1c:	mov    esp,0x54
  407d21:	add    BYTE PTR [ecx-0x58ec8100],al
  407d27:	add    DWORD PTR [eax+0x55b400],eax
  407d2d:	add    BYTE PTR [eax],al
  407d2f:	add    BYTE PTR [ecx-0x5aec6700],al
  407d35:	add    BYTE PTR [ecx+0x561500],al
  407d3b:	add    BYTE PTR [eax],al
  407d3d:	add    BYTE PTR [ebx-0x1ec4ff8],al
  407d43:	add    BYTE PTR [ecx+0x562000],al
  407d49:	add    BYTE PTR [eax],al
  407d4b:	add    BYTE PTR [ecx-0x5eec2c00],al
  407d51:	add    eax,DWORD PTR [ecx+0x566c00]
  407d57:	add    BYTE PTR [eax],al
  407d59:	add    BYTE PTR [ecx-0x57ec1600],al
  407d5f:	add    eax,DWORD PTR [edx+0x56d000]
  407d65:	add    BYTE PTR [eax],al
  407d67:	add    BYTE PTR [ecx+0x7313ff00],al
  407d6d:	add    DWORD PTR [ebx+0x571800],eax
  407d73:	add    BYTE PTR [eax],al
  407d75:	add    BYTE PTR [ebx-0x5aebe700],al
  407d7b:	add    BYTE PTR [eax+eax*1+0x57c8],al
  407d82:	add    BYTE PTR [eax],al
  407d84:	add    DWORD PTR [eax],0x2780866
  407d8a:	test   BYTE PTR [eax],al
  407d8c:	loop   0x407de5
  407d8e:	add    BYTE PTR [eax],al
  407d90:	add    BYTE PTR [eax],al
  407d92:	loope  0x407d95
  407d94:	sub    eax,0x8500a514
  407d99:	add    ah,dh
  407d9b:	push   edi
  407d9c:	add    BYTE PTR [eax],al
  407d9e:	add    BYTE PTR [eax],al
  407da0:	xchg   ecx,eax
  407da1:	add    cl,ah
  407da3:	adc    al,0xbe
  407da5:	add    eax,DWORD PTR [ebp+0x583c00]
  407dab:	add    BYTE PTR [eax],al
  407dad:	add    BYTE PTR [ecx-0x3ceb0c00],dl
  407db3:	add    eax,DWORD PTR [esi+0x586400]
  407db9:	add    BYTE PTR [eax],al
  407dbb:	add    BYTE PTR [esi-0x32eaf000],dl
  407dc1:	add    ecx,DWORD PTR [eax+0x599800]
  407dc7:	add    BYTE PTR [eax],al
  407dc9:	add    BYTE PTR [ecx-0x27eabe00],dl
  407dcf:	add    ecx,DWORD PTR [edx+0x59a500]
  407dd5:	add    BYTE PTR [eax],al
  407dd7:	add    BYTE PTR [ecx+0x1e287a18],dl
  407ddd:	add    al,0x8c
  407ddf:	add    BYTE PTR [ecx+ebx*2+0x0],dh
  407de6:	xchg   ecx,eax
  407de7:	add    BYTE PTR [ecx-0x73fbf4eb],cl
  407ded:	add    ah,ch
  407def:	pop    ebx
  407df0:	add    BYTE PTR [eax],al
  407df2:	add    BYTE PTR [eax],al
  407df4:	xchg   ecx,eax
  407df5:	add    BYTE PTR [esi-0x72fbeeeb],cl
  407dfb:	add    BYTE PTR [edx+0x5c],dl
  407dfe:	add    BYTE PTR [eax],al
  407e00:	add    BYTE PTR [eax],al
  407e02:	xchg   ecx,eax
  407e03:	add    BYTE PTR [edi-0x71fbe7eb],bl
  407e09:	add    BYTE PTR [esp+ebx*2+0x0],al
  407e10:	xchg   ecx,eax
  407e11:	add    BYTE PTR [eax-0x70fbe1eb],dh
  407e17:	add    BYTE PTR [eax+0x5d],dh
  407e1d:	add    BYTE PTR [ecx+0x2215e400],dl
  407e23:	add    al,0x8f
  407e25:	add    al,ah
  407e27:	pop    ebp
  407e28:	add    BYTE PTR [eax],al
  407e2a:	add    BYTE PTR [eax],al
  407e2c:	xchg   ecx,eax
  407e2d:	add    bh,dh
  407e2f:	adc    eax,0x9103be
  407e34:	loopne 0x407e94
  407e36:	add    BYTE PTR [eax],al
  407e38:	add    BYTE PTR [eax],al
  407e3a:	xchg   ebx,eax
  407e3b:	add    ah,bh
  407e3d:	add    eax,0x92041e
  407e42:	sub    bl,BYTE PTR [edi+0x0]
  407e45:	add    BYTE PTR [eax],al
  407e47:	add    BYTE PTR [ebx+0x1e060400],dl
  407e4d:	add    al,0x92
  407e4f:	add    BYTE PTR [edx+0x5f],cl
  407e52:	add    BYTE PTR [eax],al
  407e54:	add    BYTE PTR [eax],al
  407e56:	xchg   esi,eax
  407e57:	or     BYTE PTR [ebx],cl
  407e59:	push   ss
  407e5a:	sub    al,BYTE PTR [edx+edx*4]
  407e5d:	add    BYTE PTR [edi+ebx*2+0x0],dl
  407e61:	add    BYTE PTR [eax],al
  407e63:	add    BYTE PTR [esi+0x2f161408],dl
  407e69:	add    al,0x93
  407e6b:	add    BYTE PTR [esi],ah
  407e6d:	pusha  
  407e6e:	add    BYTE PTR [eax],al
  407e70:	add    BYTE PTR [eax],al
  407e72:	xchg   BYTE PTR [eax],bl
  407e74:	int    0x5
  407e76:	movs   DWORD PTR es:[edi],DWORD PTR ds:[esi]
  407e77:	add    BYTE PTR [ebx+0x5fa400],dl
  407e7d:	add    BYTE PTR [eax],al
  407e7f:	add    BYTE PTR [ecx+0x1e287a18],dl
  407e85:	add    al,0x93
  407e87:	add    BYTE PTR [esi],ch
  407e89:	pusha  
  407e8a:	add    BYTE PTR [eax],al
  407e8c:	add    BYTE PTR [eax],al
  407e8e:	sbb    DWORD PTR [eax],0xffffffcd
  407e91:	add    eax,0x9300a5
  407e96:	cmp    BYTE PTR [eax+0x0],ah
  407e99:	add    BYTE PTR [eax],al
  407e9b:	add    BYTE PTR [ebx+0x4d16f408],dl
  407ea1:	add    al,0x93
  407ea3:	add    BYTE PTR [edi+0x60],dh
  407ea6:	add    BYTE PTR [eax],al
  407ea8:	add    BYTE PTR [eax],al
  407eaa:	xchg   ebx,eax
  407eab:	or     BYTE PTR [eax],cl
  407ead:	pop    ss
  407eae:	push   ebx
  407eaf:	add    al,0x93
  407eb1:	add    BYTE PTR [esi+0x60],bh
  407eb4:	add    BYTE PTR [eax],al
  407eb6:	add    BYTE PTR [eax],al
  407eb8:	xchg   ebx,eax
  407eb9:	or     BYTE PTR [edi+edx*1],dl
  407ebc:	pop    ecx
  407ebd:	add    al,0x93
  407ebf:	add    BYTE PTR [esi+0x60],al
  407ec5:	add    BYTE PTR [ebx+0x60172008],dl
  407ecb:	add    al,0x94
  407ecd:	add    BYTE PTR [eax+eiz*2+0x0],bl
  407ed4:	xchg   ebx,eax
  407ed5:	or     BYTE PTR [edi+0x17],cl
  407ed8:	pusha  
  407ed9:	add    al,0x94
  407edb:	add    BYTE PTR [edx+0x60],dh
  407ee1:	add    BYTE PTR [ebx+0x60177f08],dl
  407ee7:	add    al,0x94
  407ee9:	add    al,cl
  407eeb:	pusha  
  407eec:	add    BYTE PTR [eax],al
  407eee:	add    BYTE PTR [eax],al
  407ef0:	xchg   ebx,eax
  407ef1:	or     BYTE PTR [ebp-0x6bfb9fe9],ch
  407ef7:	add    dh,bl
  407ef9:	pusha  
  407efa:	add    BYTE PTR [eax],al
  407efc:	add    BYTE PTR [eax],al
  407efe:	xchg   ebx,eax
  407eff:	or     bl,cl
  407f01:	pop    ss
  407f02:	pusha  
  407f03:	add    al,0x94
  407f05:	add    ah,dh
  407f07:	pusha  
  407f08:	add    BYTE PTR [eax],al
  407f0a:	add    BYTE PTR [eax],al
  407f0c:	xchg   ebx,eax
  407f0d:	or     bh,ah
  407f0f:	pop    ss
  407f10:	pusha  
  407f11:	add    al,0x94
  407f13:	add    BYTE PTR [edx],cl
  407f15:	popa   
  407f16:	add    BYTE PTR [eax],al
  407f18:	add    BYTE PTR [eax],al
  407f1a:	xchg   ebx,eax
  407f1b:	or     dh,bh
  407f1d:	pop    ss
  407f1e:	pusha  
  407f1f:	add    al,0x94
  407f21:	add    BYTE PTR [eax],ah
  407f23:	popa   
  407f24:	add    BYTE PTR [eax],al
  407f26:	add    BYTE PTR [eax],al
  407f28:	xchg   ebx,eax
  407f29:	or     BYTE PTR [ecx],ah
  407f2b:	sbb    BYTE PTR [eax+0x4],ah
  407f2e:	xchg   esp,eax
  407f2f:	add    BYTE PTR [esi],dh
  407f31:	popa   
  407f32:	add    BYTE PTR [eax],al
  407f34:	add    BYTE PTR [eax],al
  407f36:	xchg   ebx,eax
  407f37:	or     BYTE PTR [esi],bh
  407f39:	sbb    BYTE PTR [eax+0x4],ah
  407f3c:	xchg   esp,eax
  407f3d:	add    BYTE PTR [ecx+eiz*2+0x0],cl
  407f41:	add    BYTE PTR [eax],al
  407f43:	add    BYTE PTR [ebx+0x60186a08],dl
  407f49:	add    al,0x94
  407f4b:	add    BYTE PTR [edx+0x61],ah
  407f4e:	add    BYTE PTR [eax],al
  407f50:	add    BYTE PTR [eax],al
  407f52:	xchg   ebx,eax
  407f53:	or     BYTE PTR [ecx-0x6bfb9fe8],cl
  407f59:	add    BYTE PTR [eax+0x61],bh
  407f5c:	add    BYTE PTR [eax],al
  407f5e:	add    BYTE PTR [eax],al
  407f60:	xchg   ebx,eax
  407f61:	or     BYTE PTR [esi-0x6bfb9fe8],ah
  407f67:	add    BYTE PTR [esi+0x61],cl
  407f6d:	add    BYTE PTR [ebx+0x6018c308],dl
  407f73:	add    al,0x94
  407f75:	add    BYTE PTR [ecx+eiz*2+0x0],ah
  407f7c:	xchg   ebx,eax
  407f7d:	or     ah,bl
  407f7f:	sbb    BYTE PTR [eax+0x4],ah
  407f82:	xchg   esp,eax
  407f83:	add    bl,dl
  407f85:	and    eax,0x0
  407f8a:	xchg   BYTE PTR [eax],bl
  407f8c:	int    0x5
  407f8e:	movs   DWORD PTR es:[edi],DWORD PTR ds:[esi]
  407f8f:	add    BYTE PTR [eax+eax*1+0x25db],dl
  407f96:	add    BYTE PTR [eax],al
  407f98:	xchg   BYTE PTR [eax],al
  407f9a:	jb     0x407fbf
  407f9c:	out    dx,eax
  407f9d:	add    eax,0x20094
  407fa2:	add    DWORD PTR [eax],eax
  407fa4:	(bad)  
  407fa5:	sbb    al,BYTE PTR [edx]
  407fa7:	add    BYTE PTR [ecx],al
  407fa9:	add    dh,al
  407fab:	sbb    al,BYTE PTR [eax]
  407fad:	add    BYTE PTR [ecx],al
  407faf:	add    BYTE PTR [ecx],al
  407fb1:	sbb    eax,DWORD PTR [edx]
  407fb3:	add    BYTE PTR [ecx],al
  407fb5:	add    dh,al
  407fb7:	sbb    al,BYTE PTR [eax]
  407fb9:	add    BYTE PTR [ecx],al
  407fbb:	add    BYTE PTR [edx],cl
  407fbd:	sbb    eax,DWORD PTR [edx]
  407fbf:	add    BYTE PTR [edx],al
  407fc1:	add    dh,al
  407fc3:	sbb    al,BYTE PTR [eax]
  407fc5:	add    BYTE PTR [ecx],al
  407fc7:	add    BYTE PTR [edx],cl
  407fc9:	sbb    eax,DWORD PTR [eax]
  407fcb:	add    BYTE PTR [ecx],al
  407fcd:	add    BYTE PTR [edi+0x1000006],bh
  407fd3:	add    BYTE PTR [edi],cl
  407fd5:	sbb    eax,DWORD PTR [eax]
  407fd7:	add    BYTE PTR [edx],al
  407fd9:	add    BYTE PTR [esi],ah
  407fdb:	sbb    eax,DWORD PTR [eax]
  407fdd:	add    BYTE PTR [ecx],al
  407fdf:	add    BYTE PTR [edi],bh
  407fe1:	sbb    eax,DWORD PTR [eax]
  407fe3:	add    BYTE PTR [edx],al
  407fe5:	add    BYTE PTR [esi+0x1b],al
  407fe8:	add    BYTE PTR [eax],al
  407fea:	add    DWORD PTR [eax],eax
  407fec:	dec    eax
  407fed:	sbb    eax,DWORD PTR [eax]
  407fef:	add    BYTE PTR [edx],al
  407ff1:	add    BYTE PTR [eax+0x1b],dl
  407ff4:	add    BYTE PTR [eax],al
  407ff6:	add    DWORD PTR [eax],eax
  407ff8:	dec    eax
  407ff9:	sbb    eax,DWORD PTR [eax]
  407ffb:	add    BYTE PTR [edx],al
  407ffd:	add    BYTE PTR [eax+0x1b],dl
  408000:	add    BYTE PTR [eax],al
  408002:	add    DWORD PTR [eax],eax
  408004:	pusha  
  408005:	sbb    eax,DWORD PTR [eax]
  408007:	add    BYTE PTR [edx],al
  408009:	add    BYTE PTR [edx+0x1b],ch
  40800c:	add    BYTE PTR [eax],al
  40800e:	add    DWORD PTR [eax],eax
  408010:	pusha  
  408011:	sbb    eax,DWORD PTR [eax]
  408013:	add    BYTE PTR [edx],al
  408015:	add    BYTE PTR [edx+0x1b],ch
  408018:	add    BYTE PTR [eax],al
  40801a:	add    eax,DWORD PTR [eax]
  40801c:	jle    0x408039
  40801e:	add    BYTE PTR [eax],al
  408020:	add    DWORD PTR [eax],eax
  408022:	lea    ebx,[ebx]
  408024:	add    BYTE PTR [eax],al
  408026:	add    DWORD PTR [eax],eax
  408028:	cdq    
  408029:	sbb    eax,DWORD PTR [eax]
  40802b:	add    BYTE PTR [ecx],al
  40802d:	add    BYTE PTR [eax+0x22],ch
  408030:	add    BYTE PTR [eax],al
  408032:	add    DWORD PTR [eax],eax
  408034:	mov    al,ds:0x100001b
  408039:	add    BYTE PTR [esi+0x200001b],ah
  40803f:	add    BYTE PTR [ebp+0x100001b],ch
  408045:	add    BYTE PTR [ebx+ebx*1+0x20002],dh
  40804c:	rcr    DWORD PTR [ebx],0x0
  40804f:	add    BYTE PTR [ecx],al
  408051:	add    BYTE PTR [ebx+ebx*1+0x20002],dh
  408058:	rcr    DWORD PTR [ebx],0x0
  40805b:	add    BYTE PTR [ebx],al
  40805d:	add    cl,cl
  40805f:	sbb    eax,DWORD PTR [eax]
  408061:	add    BYTE PTR [eax+eax*1],al
  408064:	cmps   BYTE PTR ds:[esi],BYTE PTR es:[edi]
  408065:	sbb    eax,DWORD PTR [edx]
  408067:	add    BYTE PTR [ecx],al
  408069:	add    cl,al
  40806b:	sbb    eax,DWORD PTR [eax]
  40806d:	add    BYTE PTR [edx],al
  40806f:	add    dl,dl
  408071:	sbb    eax,DWORD PTR [eax]
  408073:	add    BYTE PTR [ecx],al
  408075:	add    BYTE PTR [esi+0x200001b],ah
  40807b:	add    BYTE PTR [ebp+0x100001b],ch
  408081:	add    cl,cl
  408083:	sbb    eax,DWORD PTR [eax]
  408085:	add    BYTE PTR [edx],al
  408087:	add    BYTE PTR [esi+0x100001b],ah
  40808d:	add    dl,dl
  40808f:	sbb    eax,DWORD PTR [eax]
  408091:	add    BYTE PTR [ecx],al
  408093:	add    BYTE PTR [esi+0x200001b],ah
  408099:	add    BYTE PTR [ebp+0x100021b],ch
  40809f:	add    cl,al
  4080a1:	sbb    eax,DWORD PTR [edx]
  4080a3:	add    BYTE PTR [ecx],al
  4080a5:	add    cl,al
  4080a7:	sbb    eax,DWORD PTR [eax]
  4080a9:	add    BYTE PTR [edx],al
  4080ab:	add    cl,cl
  4080ad:	sbb    eax,DWORD PTR [eax]
  4080af:	add    BYTE PTR [ebx],al
  4080b1:	add    BYTE PTR [esi+0x100021b],ah
  4080b7:	add    cl,al
  4080b9:	sbb    eax,DWORD PTR [eax]
  4080bb:	add    BYTE PTR [edx],al
  4080bd:	add    dl,dl
  4080bf:	sbb    eax,DWORD PTR [eax]
  4080c1:	add    BYTE PTR [ecx],al
  4080c3:	add    BYTE PTR [esi+0x200001b],ah
  4080c9:	add    BYTE PTR [ebp+0x100001b],ch
  4080cf:	add    cl,cl
  4080d1:	sbb    eax,DWORD PTR [eax]
  4080d3:	add    BYTE PTR [edx],al
  4080d5:	add    BYTE PTR [esi+0x100001b],ah
  4080db:	add    dl,dl
  4080dd:	sbb    eax,DWORD PTR [eax]
  4080df:	add    BYTE PTR [ecx],al
  4080e1:	add    BYTE PTR [ebx+ebx*1+0x20000],dh
  4080e8:	fstp   DWORD PTR [ebx]
  4080ea:	add    BYTE PTR [eax],al
  4080ec:	add    eax,DWORD PTR [eax]
  4080ee:	call   0x440810e
  4080f3:	add    cl,bh
  4080f5:	sbb    eax,DWORD PTR [eax]
  4080f7:	add    BYTE PTR [ecx],al
  4080f9:	add    BYTE PTR [eax+0x100001b],ah
  4080ff:	add    BYTE PTR [eax+0x100001b],ah
  408105:	add    BYTE PTR [eax+0x100001b],ah
  40810b:	add    BYTE PTR [eax+0x100001b],ah
  408111:	add    cl,bl
  408113:	sbb    eax,DWORD PTR [eax]
  408115:	add    BYTE PTR [edx],al
  408117:	add    al,ch
  408119:	sbb    eax,DWORD PTR [eax]
  40811b:	add    BYTE PTR [ebx],al
  40811d:	add    cl,bh
  40811f:	sbb    eax,DWORD PTR [eax]
  408121:	add    BYTE PTR [ecx],al
  408123:	add    BYTE PTR [eax+0x100001b],ah
  408129:	add    BYTE PTR [eax+0x100001b],ah
  40812f:	add    BYTE PTR [eax+0x100001b],ah
  408135:	add    BYTE PTR [ebx+ebx*1+0x20000],dh
  40813c:	fstp   DWORD PTR [ebx]
  40813e:	add    BYTE PTR [eax],al
  408140:	add    eax,DWORD PTR [eax]
  408142:	call   0x4408162
  408147:	add    cl,bh
  408149:	sbb    eax,DWORD PTR [eax]
  40814b:	add    BYTE PTR [ecx],al
  40814d:	add    cl,bl
  40814f:	sbb    eax,DWORD PTR [eax]
  408151:	add    BYTE PTR [edx],al
  408153:	add    al,ch
  408155:	sbb    eax,DWORD PTR [eax]
  408157:	add    BYTE PTR [ebx],al
  408159:	add    cl,bh
  40815b:	sbb    eax,DWORD PTR [eax]
  40815d:	add    BYTE PTR [ecx],al
  40815f:	add    BYTE PTR [eax],cl
  408161:	sbb    al,0x0
  408163:	add    BYTE PTR [ecx],al
  408165:	add    BYTE PTR [eax],cl
  408167:	sbb    al,0x0
  408169:	add    BYTE PTR [ecx],al
  40816b:	add    BYTE PTR [esp+ebx*1],dl
  40816e:	add    BYTE PTR [eax],al
  408170:	add    DWORD PTR [eax],eax
  408172:	or     BYTE PTR [eax+eax*1],bl
  408175:	add    BYTE PTR [ecx],al
  408177:	add    BYTE PTR [esi],bl
  408179:	sbb    al,0x0
  40817b:	add    BYTE PTR [edx],al
  40817d:	add    dh,dh
  40817f:	or     eax,0x10000
  408184:	aas    
  408185:	sbb    eax,DWORD PTR [eax]
  408187:	add    BYTE PTR [edx],al
  408189:	add    BYTE PTR [esi+0x1b],al
  40818c:	add    BYTE PTR [eax],al
  40818e:	add    DWORD PTR [eax],eax
  408190:	and    ebx,DWORD PTR [eax+eax*1]
  408193:	add    BYTE PTR [ecx],al
  408195:	add    BYTE PTR [edx+0x1000023],cl
  40819b:	add    BYTE PTR ds:0x200001c,ch
  4081a1:	add    BYTE PTR [esi+0x1c],al
  4081a4:	add    BYTE PTR [eax],al
  4081a6:	add    DWORD PTR [eax],eax
  4081a8:	dec    eax
  4081a9:	sbb    eax,DWORD PTR [eax]
  4081ab:	add    BYTE PTR [ecx],al
  4081ad:	add    BYTE PTR [ebp+0x1c],bl
  4081b0:	add    BYTE PTR [eax],al
  4081b2:	add    al,BYTE PTR [eax]
  4081b4:	push   0x1b
  4081b6:	add    BYTE PTR [eax],al
  4081b8:	add    DWORD PTR [eax],eax
  4081ba:	pop    ebp
  4081bb:	sbb    al,0x0
  4081bd:	add    BYTE PTR [edx],al
  4081bf:	add    BYTE PTR [edx+0x1b],ch
  4081c2:	add    BYTE PTR [eax],al
  4081c4:	add    eax,DWORD PTR [eax]
  4081c6:	jno    0x4081e4
  4081c8:	add    BYTE PTR [eax],al
  4081ca:	add    DWORD PTR [eax],eax
  4081cc:	lea    ebx,[ebx]
  4081ce:	add    BYTE PTR [eax],al
  4081d0:	add    DWORD PTR [eax],eax
  4081d2:	sbb    DWORD PTR [eax+eax*1],0x0
  4081d6:	add    DWORD PTR [eax],eax
  4081d8:	mov    WORD PTR [eax+eax*1],ds
  4081db:	add    BYTE PTR [edx],al
  4081dd:	add    BYTE PTR [ebp+0x100001c],dl
  4081e3:	add    BYTE PTR [eax+0x200001c],ah
  4081e9:	add    BYTE PTR [edi+0x100001c],ah
  4081ef:	add    BYTE PTR [eax+0x100001c],ah
  4081f5:	add    BYTE PTR [eax+0x100001c],dh
  4081fb:	add    BYTE PTR [eax+0x100001c],dh
  408201:	add    BYTE PTR [eax],cl
  408203:	sbb    al,0x0
  408205:	add    BYTE PTR [ecx],al
  408207:	add    ah,al
  408209:	sbb    al,0x0
  40820b:	add    BYTE PTR [ecx],al
  40820d:	add    BYTE PTR [edi],bh
  40820f:	sbb    eax,DWORD PTR [eax]
  408211:	add    BYTE PTR [edx],al
  408213:	add    BYTE PTR [esi+0x1b],al
  408216:	add    BYTE PTR [eax],al
  408218:	add    DWORD PTR [eax],eax
  40821a:	aas    
  40821b:	sbb    eax,DWORD PTR [eax]
  40821d:	add    BYTE PTR [edx],al
  40821f:	add    BYTE PTR [esi+0x1b],al
  408222:	add    BYTE PTR [eax],al
  408224:	add    DWORD PTR [eax],eax
  408226:	aam    0x1c
  408228:	add    BYTE PTR [eax],al
  40822a:	add    DWORD PTR [eax],eax
  40822c:	loopne 0x40824a
  40822e:	add    BYTE PTR [eax],al
  408230:	add    DWORD PTR [eax],eax
  408232:	mov    al,ds:0x100001b
  408237:	add    BYTE PTR [eax+0x100001b],ah
  40823d:	add    BYTE PTR [ebx+0x200001c],al
  408243:	add    al,ch
  408245:	sbb    al,0x0
  408247:	add    BYTE PTR [ecx],al
  408249:	add    BYTE PTR [esp+ebx*1+0x20000],cl
  408250:	xchg   ebp,eax
  408251:	sbb    al,0x0
  408253:	add    BYTE PTR [ecx],al
  408255:	add    BYTE PTR [eax+0x200001c],ah
  40825b:	add    BYTE PTR [edi+0x100001c],ah
  408261:	add    BYTE PTR [eax+0x100001c],ah
  408267:	add    al,bh
  408269:	sbb    al,0x0
  40826b:	add    BYTE PTR [ecx],al
  40826d:	add    BYTE PTR [eax+0x100001c],dh
  408273:	add    BYTE PTR [eax+0x100001c],dh
  408279:	add    BYTE PTR [ecx],al
  40827b:	sbb    eax,0x20000
  408280:	pop    es
  408281:	sbb    eax,0x10000
  408286:	mov    al,0x1c
  408288:	add    al,BYTE PTR [eax]
  40828a:	add    al,BYTE PTR [eax]
  40828c:	rcr    DWORD PTR [ebx],0x0
  40828f:	add    BYTE PTR [ecx],al
  408291:	add    BYTE PTR [eax],dl
  408293:	sbb    eax,0x10002
  408298:	rcr    DWORD PTR [ebx],0x0
  40829b:	add    BYTE PTR [ecx],al
  40829d:	add    BYTE PTR [eax],dl
  40829f:	sbb    eax,0x10000
  4082a4:	mov    al,ds:0x100001c
  4082a9:	add    BYTE PTR [ebx],dl
  4082ab:	sbb    eax,0x10000
  4082b0:	mov    al,ds:0x100001c
  4082b5:	add    BYTE PTR [ebx],ah
  4082b7:	sbb    al,0x0
  4082b9:	add    BYTE PTR [ecx],al
  4082bb:	add    BYTE PTR [esp+ebx*1+0x10000],cl
  4082c2:	sbb    ebx,DWORD PTR ds:0x20000
  4082c8:	and    ebx,DWORD PTR ds:0x10000
  4082ce:	sbb    DWORD PTR [eax+eax*1],0x0
  4082d2:	add    al,BYTE PTR [eax]
  4082d4:	sub    eax,0x100001d
  4082d9:	add    BYTE PTR [esp+ebx*1],dl
  4082dc:	add    BYTE PTR [eax],al
  4082de:	add    al,BYTE PTR [eax]
  4082e0:	inc    eax
  4082e1:	sbb    eax,0x10000
  4082e6:	dec    esp
  4082e7:	sbb    eax,0x10000
  4082ec:	dec    esp
  4082ed:	sbb    eax,0x10000
  4082f2:	push   ecx
  4082f3:	sbb    eax,0x10000
  4082f8:	aas    
  4082f9:	sbb    eax,DWORD PTR [eax]
  4082fb:	add    BYTE PTR [edx],al
  4082fd:	add    BYTE PTR [eax+0x1b],ah
  408300:	add    BYTE PTR [eax],al
  408302:	add    DWORD PTR [eax],eax
  408304:	arpl   WORD PTR ds:0x10000,bx
  40830a:	mov    al,ds:0x100001b
  40830f:	add    BYTE PTR [eax+0x100001b],ah
  408315:	add    BYTE PTR [edx+0x9000523],cl
  40831b:	add    BYTE PTR ds:0x5000d00,al
  408321:	add    BYTE PTR [ecx],dl
  408323:	add    BYTE PTR [eax],dl
  408325:	add    BYTE PTR ds:0xd001000,bl
  40832b:	add    BYTE PTR [eax],dl
  40832d:	add    BYTE PTR [ecx],dl
  40832f:	add    BYTE PTR [eax],dl
  408331:	add    BYTE PTR [ecx],ah
  408333:	add    BYTE PTR [ecx],dl
  408335:	add    BYTE PTR [ecx],dl
  408337:	add    BYTE PTR [ecx],ah
  408339:	add    BYTE PTR [esi+0x8],ah
  40833c:	movs   DWORD PTR es:[edi],DWORD PTR ds:[esi]
  40833d:	add    BYTE PTR [ecx-0x5afa32ff],ah
  408343:	add    BYTE PTR [ecx-0x6fa32ff],ch
  408349:	add    BYTE PTR [ecx+0x7805cd01],dh
  40834f:	add    bh,BYTE PTR [ecx+0x7805cd01]
  408355:	add    al,cl
  408357:	add    ebp,ecx
  408359:	add    eax,0x1c900f9
  40835e:	int    0x5
  408360:	stc    
  408361:	add    cl,dl
  408363:	add    ebp,ecx
  408365:	add    eax,0x1d900f9
  40836a:	int    0x5
  40836c:	stc    
  40836d:	add    cl,ah
  40836f:	add    ebp,ecx
  408371:	add    eax,0x1e900f9
  408376:	int    0x5
  408378:	stc    
  408379:	add    cl,dh
  40837b:	add    ebp,ecx
  40837d:	add    eax,0x1f900f9
  408382:	int    0x5
  408384:	stc    
  408385:	add    BYTE PTR [ecx],al
  408387:	add    cl,ch
  408389:	add    eax,0x20900f9
  40838e:	int    0x5
  408390:	stc    
  408391:	add    BYTE PTR [ecx],dl
  408393:	add    cl,ch
  408395:	add    eax,0x21900f9
  40839a:	int    0x5
  40839c:	js     0x4083a0
  40839e:	and    DWORD PTR [edx],eax
  4083a0:	int    0x5
  4083a2:	stc    
  4083a3:	add    BYTE PTR [ecx],ch
  4083a5:	add    cl,ch
  4083a7:	add    eax,0x2310474
  4083ac:	int    0x5
  4083ae:	movs   DWORD PTR es:[edi],DWORD PTR ds:[esi]
  4083af:	add    BYTE PTR [ecx],bh
  4083b1:	add    cl,ch
  4083b3:	add    eax,0x24100f9
  4083b8:	int    0x5
  4083ba:	jp     0x4083c0
  4083bc:	push   ecx
  4083bd:	add    cl,ch
  4083bf:	add    eax,0x510481
  4083c4:	lock pop ds
  4083c6:	sbb    BYTE PTR [ecx],al
  4083c8:	push   ecx
  4083c9:	add    bh,bh
  4083cb:	pop    ds
  4083cc:	sbb    BYTE PTR [ecx],al
  4083ce:	dec    ecx
  4083cf:	add    BYTE PTR ds:0x9052e20,cl
  4083d5:	add    ch,cl
  4083d7:	add    eax,0x25900a5
  4083dc:	int    0x5
  4083de:	stc    
  4083df:	add    BYTE PTR [ecx+0x2],ah
  4083e2:	dec    esp
  4083e3:	and    BYTE PTR [eax],bh
  4083e5:	add    eax,0x207b0269
  4083ea:	cmp    eax,0x91027105
  4083ef:	and    BYTE PTR [ebx+0x5],al
  4083f2:	jns    0x4083f6
  4083f4:	popf   
  4083f5:	and    BYTE PTR [ecx+0x5],cl
  4083f8:	jns    0x4083fc
  4083fa:	cmps   DWORD PTR ds:[esi],DWORD PTR es:[edi]
  4083fb:	and    BYTE PTR [ecx+0x5],cl
  4083fe:	jno    0x408402
  408400:	mov    cl,0x20
  408402:	inc    BYTE PTR [eax]
  408404:	add    DWORD PTR [edx],0x54d20f9
  40840a:	add    DWORD PTR [edx],0x54d2101
  408410:	pop    ecx
  408411:	add    BYTE PTR [edi],al
  408413:	and    DWORD PTR [ebx+0x5],ebx
  408416:	pop    ecx
  408417:	add    BYTE PTR [edx],bl
  408419:	and    DWORD PTR [ecx+0x5],ecx
  40841c:	pop    ecx
  40841d:	add    BYTE PTR [edi],ah
  40841f:	and    esi,edi
  408421:	add    BYTE PTR [ecx+0x4d213702],al
  408427:	add    eax,0x213c0059
  40842c:	movs   DWORD PTR es:[edi],DWORD PTR ds:[esi]
  40842d:	add    BYTE PTR [ecx+0x0],bl
  408430:	inc    ecx
  408431:	and    DWORD PTR [eax],esi
  408433:	add    eax,DWORD PTR [ecx+0x62214d02]
  408439:	add    eax,0x214d0281
  40843e:	dec    ebp
  40843f:	add    eax,0x215a0291
  408444:	addr16 add eax,0x21620291
  40844a:	mov    esi,0x6e026103
  40844f:	and    DWORD PTR [ebp+0x5],ebp
  408452:	add    DWORD PTR [edx],0x5742180
  408458:	or     DWORD PTR [eax],eax
  40845a:	(bad)  
  40845b:	and    esi,edi
  40845d:	add    BYTE PTR [ecx+0x7405cd02],ch
  408463:	add    al,0x59
  408465:	add    BYTE PTR [ecx+0x59057a21],ch
  40846b:	add    cl,bl
  40846d:	and    DWORD PTR [ecx-0x6ffa6fb],ebp
  408473:	and    DWORD PTR [esi+0x802c105],ebp
  408479:	and    bh,dh
  40847b:	add    BYTE PTR [ecx-0x41ddeafe],dl
  408481:	add    eax,DWORD PTR [ecx+0x6220f902]
  408487:	add    eax,0x22260059
  40848c:	js     0x408490
  40848e:	leave  
  40848f:	add    cl,ch
  408491:	add    eax,0x59017f
  408496:	dec    ebx
  408497:	and    dh,BYTE PTR [ebp+eax*1+0x22560059]
  40849e:	movs   DWORD PTR es:[edi],DWORD PTR ds:[esi]
  40849f:	add    BYTE PTR [ecx+0x62213702],al
  4084a5:	add    eax,0x5cd02d9
  4084aa:	movs   DWORD PTR es:[edi],DWORD PTR ds:[esi]
  4084ab:	add    cl,ah
  4084ad:	add    bl,BYTE PTR ds:0xd105d923
  4084b3:	add    cl,ch
  4084b5:	add    eax,0x2f9017f
  4084ba:	inc    ebx
  4084bb:	and    esp,esp
  4084bd:	add    eax,0x239b0301
  4084c2:	pusha  
  4084c3:	add    al,0x9
  4084c5:	add    ecx,ebp
  4084c7:	add    eax,0x31100f9
  4084cc:	hlt    
  4084cd:	and    eax,ecx
  4084cf:	add    BYTE PTR [ecx],dl
  4084d1:	add    ebx,DWORD PTR [esp]
  4084d4:	hlt    
  4084d5:	add    eax,0x5cd00c1
  4084da:	and    BYTE PTR [ecx],al
  4084dc:	and    DWORD PTR [ebx],eax
  4084de:	lea    esp,[ecx+eax*1]
  4084e1:	push   es
  4084e2:	xor    DWORD PTR [ebx],eax
  4084e4:	scas   eax,DWORD PTR es:[edi]
  4084e5:	and    al,0x7
  4084e7:	push   es
  4084e8:	inc    ecx
  4084e9:	add    ebx,ecx
  4084eb:	and    al,0x2f
  4084ed:	add    al,0xa9
  4084ef:	add    ch,cl
  4084f1:	add    eax,0xa90610
  4084f6:	test   eax,0xa900a521
  4084fb:	add    BYTE PTR [ebx+0x23],al
  4084fe:	pop    ss
  4084ff:	push   es
  408500:	or     al,0x0
  408502:	int    0x5
  408504:	jg     0x408507
  408506:	mov    eax,ds:0x2705cd00
  40850b:	push   es
  40850c:	imul   eax,DWORD PTR [ebx],0xf905cd
  408512:	imul   eax,DWORD PTR [eax],0x649252c
  408518:	jno    0x40851d
  40851a:	outs   dx,DWORD PTR ds:[esi]
  40851b:	and    eax,0x381064e
  408520:	int    0x5
  408522:	push   edi
  408523:	push   es
  408524:	xchg   ecx,eax
  408525:	add    eax,ebx
  408527:	and    eax,0xb10662
  40852c:	int    0x5
  40852e:	push   0x3000b106
  408533:	es ja  0x40853c
  408536:	rol    DWORD PTR [eax],0x4a
  408539:	movs   DWORD PTR es:[edi],DWORD PTR es:[esi]
  40853b:	add    BYTE PTR [ecx],bl
  40853d:	add    ebx,DWORD PTR [ecx+0x26]
  408540:	inc    BYTE PTR [eax]
  408542:	rol    DWORD PTR [eax],0x65
  408545:	es stc 
  408547:	add    cl,al
  408549:	add    BYTE PTR [edi+0x26],ch
  40854c:	movs   DWORD PTR es:[edi],DWORD PTR ds:[esi]
  40854d:	add    BYTE PTR [ecx+0x62210102],al
  408553:	add    eax,0x26800199
  408558:	push   ebx
  408559:	add    al,0x1
  40855b:	add    edx,DWORD PTR [ebx+0x61046026]
  408561:	add    al,dl
  408563:	es call 0xa526:0xc900b106
  40856b:	add    BYTE PTR [ecx+0x28082a00],dh
  408571:	add    DWORD PTR [ecx+0x30082a00],esi
  408577:	add    DWORD PTR [ecx+0x0],esi
  40857a:	mov    ecx,0x99013a0a
  40857f:	add    dl,ah
  408581:	es mov cl,0x6
  408584:	rol    DWORD PTR [ebx],0x8
  408587:	daa    
  408588:	mov    bh,0x6
  40858a:	rol    DWORD PTR [ebx],0x26
  40858d:	daa    
  40858e:	rol    DWORD PTR [eax],0xd1
  408591:	add    ecx,ebp
  408593:	add    eax,0x3d900a5
  408598:	int    0x5
  40859a:	mov    esp,0x9d03b906
  40859f:	daa    
  4085a0:	mov    DWORD PTR [esi],0x27ae03c1
  4085a6:	mov    bh,0x6
  4085a8:	mov    ecx,0xce27c503
  4085ad:	push   es
  4085ae:	mov    ecx,0xce27db03
  4085b3:	push   es
  4085b4:	rol    DWORD PTR [eax],0xef
  4085b7:	daa    
  4085b8:	stc    
  4085b9:	add    BYTE PTR [ecx-0x2ad804fe],al
  4085bf:	push   es
  4085c0:	mov    ecx,0xd9280c03
  4085c5:	push   es
  4085c6:	adc    al,0x0
  4085c8:	xor    BYTE PTR [eax],ch
  4085ca:	in     eax,dx
  4085cb:	push   es
  4085cc:	sbb    al,0x0
  4085ce:	sub    BYTE PTR ds:[eax],al
  4085d1:	pop    es
  4085d2:	fld    DWORD PTR [ebx]
  4085d4:	dec    edx
  4085d5:	sub    BYTE PTR ds:0x7103f107,al
  4085db:	sub    BYTE PTR [eax+0x1],al
  4085de:	stc    
  4085df:	add    ecx,ebp
  4085e1:	add    eax,0x40100a5
  4085e6:	sahf   
  4085e7:	sub    BYTE PTR [ebx],bl
  4085e9:	pop    es
  4085ea:	leave  
  4085eb:	add    ch,cl
  4085ed:	add    eax,0x240720
  4085f2:	int    0x5
  4085f4:	movs   DWORD PTR es:[edi],DWORD PTR ds:[esi]
  4085f5:	add    BYTE PTR [ecx],bl
  4085f7:	add    al,0xc8
  4085f9:	sub    BYTE PTR [esi+0x7],cl
  4085fc:	and    al,0x0
  4085fe:	into   
  4085ff:	sub    BYTE PTR [ebp+0x7],dl
  408602:	sbb    DWORD PTR [edx+ebx*8],eax
  408605:	sub    bh,cl
  408607:	add    eax,0x28df0281
  40860c:	bound  eax,QWORD PTR ds:0x28e40024
  408612:	gs pop es
  408614:	and    al,0x0
  408616:	call   0x2147f843
  40861b:	add    al,0xff
  40861d:	sub    BYTE PTR [eax+0x1],al
  408620:	sub    DWORD PTR [esp+esi*1],eax
  408623:	sub    DWORD PTR [ebp+eax*1+0x22560429],esi
  40862a:	movs   DWORD PTR es:[edi],DWORD PTR ds:[esi]
  40862b:	add    BYTE PTR [ecx],dh
  40862d:	add    al,0x5a
  40862f:	sub    DWORD PTR [eax+0x7],edi
  408632:	imul   eax,DWORD PTR [edx],0x4602973
  408638:	xor    DWORD PTR [ebx+eax*4],eax
  40863b:	sub    DWORD PTR [eax-0x32ff0ef9],eax
  408641:	add    eax,0x449078a
  408646:	int    0x5
  408648:	movs   DWORD PTR es:[edi],DWORD PTR ds:[esi]
  408649:	add    BYTE PTR [ecx+0x4],cl
  40864c:	int    0x29
  40864e:	add    DWORD PTR [ecx+edx*2],0x932a0a04
  408655:	pop    es
  408656:	pop    ecx
  408657:	add    al,0x43
  408659:	sub    bl,BYTE PTR [ecx-0x1bffd3f9]
  40865f:	sub    BYTE PTR [ebp+0x70016907],ch
  408665:	sub    dh,BYTE PTR [ebx-0x6dff0ef9]
  40866b:	sub    bh,BYTE PTR [edi+eax*1+0x2aa50429]
  408672:	mov    ah,0x5
  408674:	sub    DWORD PTR [ecx+esi*4],eax
  408677:	sub    ah,BYTE PTR [ebp-0x49fc8700]
  40867d:	sub    cl,bl
  40867f:	pop    es
  408680:	sub    DWORD PTR [eax+eiz*8],eax
  408683:	sub    ah,ch
  408685:	pop    es
  408686:	sub    DWORD PTR [edx+ebp*8],eax
  408689:	sub    ah,BYTE PTR [ebp-0xffbdf00]
  40868f:	sub    al,BYTE PTR [eax+0x1]
  408692:	xor    DWORD PTR [esi+ebx*1],eax
  408695:	sub    edi,ebx
  408697:	pop    es
  408698:	mov    eax,ds:0x622b3604
  40869d:	add    ebp,DWORD PTR [ecx+0x2b6504]
  4086a3:	or     BYTE PTR [ecx+0x302b6504],ch
  4086a9:	add    esi,DWORD PTR [ecx]
  4086ab:	add    BYTE PTR [esi+0x8],ah
  4086ae:	js     0x4086b2
  4086b0:	stc    
  4086b1:	add    ch,cl
  4086b3:	add    eax,0x310278
  4086b8:	int    0x5
  4086ba:	movs   DWORD PTR es:[edi],DWORD PTR ds:[esi]
  4086bb:	add    BYTE PTR [ecx-0x5afa32fc],dh
  4086c1:	add    BYTE PTR [ecx],ah
  4086c3:	add    DWORD PTR [esi+0x2909842b],eax
  4086c9:	add    ebp,ecx
  4086cb:	add    eax,0x119098a
  4086d0:	int    0x5
  4086d2:	movs   DWORD PTR es:[edi],DWORD PTR ds:[esi]
  4086d3:	add    BYTE PTR [ecx],ch
  4086d5:	add    edx,DWORD PTR [ecx+0x4109912b]
  4086db:	add    DWORD PTR [edx+0x4109962b],ebx
  4086e1:	add    DWORD PTR [ebx+0x3909a22b],esp
  4086e7:	add    ebp,ecx
  4086e9:	add    eax,0x4b900a5
  4086ee:	int    0x5
  4086f0:	jg     0x4086f3
  4086f2:	cmp    DWORD PTR [ecx],eax
  4086f4:	ret    
  4086f5:	sub    ebp,DWORD PTR [ecx-0x30fec6f7]
  4086fb:	sub    edi,DWORD PTR [eax+0x2]
  4086fe:	rol    DWORD PTR [esi+esi*8],0x2b
  408702:	dec    ecx
  408703:	add    eax,0x2c110261
  408708:	mov    al,0x9
  40870a:	xor    DWORD PTR [ecx],eax
  40870c:	int    0x5
  40870e:	stc    
  40870f:	add    cl,bl
  408711:	add    al,0xcd
  408713:	add    eax,0x4e100a5
  408718:	sub    BYTE PTR ds:[eax+0xa],ah
  40871c:	loope  0x408722
  40871e:	sub    BYTE PTR [esi+eiz*2],0xa
  408722:	jmp    0x6c6d222b
  408727:	or     ch,BYTE PTR [ecx]
  408729:	add    DWORD PTR [edi+0x10a722c],ebp
  40872f:	add    DWORD PTR [esp+ebp*1+0x26100fe],edi
  408736:	shr    BYTE PTR [eax+edi*1],cl
  408739:	add    eax,0x2ceb04f1
  40873e:	inc    BYTE PTR [eax]
  408740:	stc    
  408741:	add    al,0xcd
  408743:	add    eax,0x50100f9
  408748:	jmp    0x408776
  40874a:	inc    BYTE PTR [eax]
  40874c:	add    DWORD PTR [ecx],eax
  40874e:	sub    al,0x2d
  408750:	outs   dx,DWORD PTR ds:[esi]
  408751:	add    DWORD PTR [ecx],eax
  408753:	add    edi,DWORD PTR ds:0x1104602d
  408759:	add    esp,DWORD PTR [ebp+ebp*1-0x3f]
  40875d:	add    BYTE PTR [ecx],dl
  40875f:	add    ebx,DWORD PTR [esp]
  408762:	jl     0x40876e
  408764:	popa   
  408765:	add    al,BYTE PTR [edi+0x10a822d]
  40876b:	add    edx,DWORD PTR [ebx+0x904602d]
  408771:	add    eax,0xf905cd
  408776:	adc    DWORD PTR [ebx],eax
  408778:	shr    DWORD PTR ds:0x50900c1,1
  40877e:	clc    
  40877f:	sub    eax,0x4e100f9
  408784:	adc    ch,BYTE PTR [esi]
  408786:	mov    BYTE PTR [edx],cl
  408788:	or     DWORD PTR ds:0xfe2e25,eax
  40878e:	adc    DWORD PTR [ebx],eax
  408790:	sbb    al,0x24
  408792:	xchg   esp,eax
  408793:	or     bh,BYTE PTR [ecx]
  408795:	add    DWORD PTR [edi],edi
  408797:	movs   DWORD PTR es:[edi],DWORD PTR cs:[esi]
  408799:	add    BYTE PTR [ecx],bl
  40879b:	add    DWORD PTR [esi+ebp*1-0x32],eax
  40879f:	or     dh,BYTE PTR [ecx+0x0]
  4087a2:	int    0x5
  4087a4:	jg     0x4087a7
  4087a6:	adc    DWORD PTR [eax],eax
  4087a8:	sub    cl,BYTE PTR [eax]
  4087aa:	sub    BYTE PTR [ecx],al
  4087ac:	adc    DWORD PTR [eax],eax
  4087ae:	sub    cl,BYTE PTR [eax]
  4087b0:	xor    BYTE PTR [ecx],al
  4087b2:	or     DWORD PTR [eax],eax
  4087b4:	xchg   BYTE PTR [esi],ch
  4087b6:	or     ecx,DWORD PTR [ebx]
  4087b8:	popa   
  4087b9:	add    ch,BYTE PTR [esi+0x21]
  4087bc:	addr16 add eax,0x2ea40521
  4087c2:	js     0x4087c6
  4087c4:	sbb    DWORD PTR [ecx],eax
  4087c6:	mov    esi,0x110b112e
  4087cb:	add    ecx,edx
  4087cd:	repnz add al,BYTE PTR cs:[ecx+0x4d28df02]
  4087d5:	add    eax,0x5cd0539
  4087da:	stc    
  4087db:	add    BYTE PTR [ecx],bh
  4087dd:	add    DWORD PTR [ebp+0x2f],ecx
  4087e0:	test   eax,0x66054909
  4087e5:	or     BYTE PTR [ebp-0x1ffaaf00],ah
  4087eb:	sub    ah,ch
  4087ed:	pop    es
  4087ee:	push   ecx
  4087ef:	add    eax,0xa52aea
  4087f4:	inc    ecx
  4087f5:	add    DWORD PTR [ebx+0x2f],edi
  4087f8:	mov    cs,WORD PTR [ebx]
  4087fa:	cmp    DWORD PTR [ecx],eax
  4087fc:	xchg   ecx,eax
  4087fd:	das    
  4087fe:	xchg   edx,eax
  4087ff:	or     edi,DWORD PTR [ecx]
  408801:	add    DWORD PTR [ecx+0x5100a521],ebp
  408807:	add    eax,0x5b42aa5
  40880c:	push   ecx
  40880d:	add    eax,0x5b42934
  408812:	sub    DWORD PTR [ecx],eax
  408814:	sahf   
  408815:	das    
  408816:	cmps   BYTE PTR ds:[esi],BYTE PTR es:[edi]
  408817:	or     eax,DWORD PTR [ecx]
  408819:	add    edi,DWORD PTR [esi+0x3104602f]
  40881f:	add    ecx,esp
  408821:	das    
  408822:	stc    
  408823:	add    BYTE PTR [ecx-0x41d00dfe],dl
  408829:	add    edx,DWORD PTR [ecx+0x602ffe02]
  40882f:	add    al,0x91
  408831:	add    cl,BYTE PTR [edx]
  408833:	xor    BYTE PTR [eax+0x4],ah
  408836:	xor    al,0x0
  408838:	int    0x5
  40883a:	movs   DWORD PTR es:[edi],DWORD PTR ds:[esi]
  40883b:	add    BYTE PTR [ecx+0x5],bl
  40883e:	xor    BYTE PTR es:[eax],bh
  408841:	add    eax,0x303b0559
  408846:	int3   
  408847:	or     esp,DWORD PTR [ecx+0x2]
  40884a:	dec    ebx
  40884b:	xor    BYTE PTR [ecx+0x5],cl
  40884e:	popa   
  40884f:	add    dl,BYTE PTR [esi+0x30]
  408852:	ror    DWORD PTR [ebx],cl
  408854:	popa   
  408855:	add    ebp,ecx
  408857:	add    eax,0x5790bd8
  40885c:	jnp    0x40888e
  40885e:	test   DWORD PTR [ebx],0x22560579
  408864:	movs   DWORD PTR es:[edi],DWORD PTR ds:[esi]
  408865:	add    BYTE PTR [ecx+0x5],bl
  408868:	xor    DWORD PTR [eax],0x4a10c07
  40886e:	(bad)  
  40886f:	xor    BYTE PTR ds:0xb304a10c,cl
  408875:	xor    BYTE PTR [edi],dl
  408877:	or     al,0xa1
  408879:	add    al,0xc6
  40887b:	xor    BYTE PTR ds:0xe701490c,bl
  408881:	xor    BYTE PTR [edi+0x1],ch
  408884:	dec    ecx
  408885:	add    DWORD PTR [ebx],eax
  408887:	xor    DWORD PTR ds:0x5901490c,edi
  40888d:	inc    BYTE PTR es:[eax]
  408890:	adc    DWORD PTR [ecx],eax
  408892:	push   cs
  408893:	xor    DWORD PTR [eax-0x32fa66fd],edx
  408899:	add    eax,0x5a100f9
  40889e:	int    0x5
  4088a0:	push   ebx
  4088a1:	or     al,0xa1
  4088a3:	add    eax,0xc5d2ab1
  4088a8:	pop    ecx
  4088a9:	add    ebp,ecx
  4088ab:	add    eax,0x5a100f9
  4088b0:	ins    BYTE PTR es:[edi],dx
  4088b1:	xor    DWORD PTR [esp+ecx*1-0x5f],esp
  4088b5:	add    eax,0xa52256
  4088ba:	fld    DWORD PTR [eax]
  4088bc:	int    0x5
  4088be:	jg     0x4088c1
  4088c0:	push   ecx
  4088c1:	add    DWORD PTR [eax],esi
  4088c3:	sub    BYTE PTR [edi+0x3e05c90c],al
  4088c9:	sub    BYTE PTR [ebp+0x1105d10c],cl
  4088cf:	sub    al,0x93
  4088d1:	or     al,0xc9
  4088d3:	add    eax,0x1402871
  4088d8:	popa   
  4088d9:	add    bl,ah
  4088db:	xor    ecx,eax
  4088dd:	add    cl,bl
  4088df:	add    eax,0xca431eb
  4088e4:	fld    DWORD PTR ds:0xfe3200
  4088ea:	loope  0x4088f1
  4088ec:	xor    BYTE PTR es:[eax],bh
  4088ef:	add    eax,0x5cd0059
  4088f4:	movs   DWORD PTR es:[edi],DWORD PTR ds:[esi]
  4088f5:	add    BYTE PTR [ecx+0x0],bl
  4088f8:	adc    dh,BYTE PTR [edx]
  4088fa:	stos   BYTE PTR es:[edi],al
  4088fb:	or     al,0xa9
  4088fd:	add    ah,BYTE PTR [eax]
  4088ff:	xor    bh,cl
  408901:	add    BYTE PTR [ecx-0x6cdd2fe],ch
  408907:	add    BYTE PTR [ecx+0x78323b02],ch
  40890d:	add    bl,BYTE PTR [ecx+0x0]
  408910:	test   eax,0x59014021
  408915:	add    BYTE PTR [ecx+0x21],al
  408918:	movs   DWORD PTR es:[edi],DWORD PTR ds:[esi]
  408919:	add    BYTE PTR [ecx+0x0],bl
  40891c:	dec    edi
  40891d:	xor    cl,BYTE PTR [ecx+0x5]
  408920:	jmp    0xf946562a
  408925:	add    cl,dh
  408927:	add    eax,0xfe3274
  40892c:	loope  0x408933
  40892e:	xor    DWORD PTR [eax],0x5f90562
  408934:	lods   al,BYTE PTR ds:[esi]
  408935:	xor    bl,bl
  408937:	or     al,0xd1
  408939:	add    BYTE PTR [esi+0x490cdb32],bh
  40893f:	add    ebp,ecx
  408941:	add    eax,0x490cdf
  408946:	aam    0x32
  408948:	sti    
  408949:	or     al,0x49
  40894b:	add    ch,bl
  40894d:	xor    cl,BYTE PTR [ecx+0x5]
  408950:	dec    ecx
  408951:	add    bh,ah
  408953:	xor    cl,BYTE PTR [ecx+0x5]
  408956:	dec    ecx
  408957:	add    al,dh
  408959:	xor    al,BYTE PTR [eax]
  40895b:	or     eax,0x32f80049
  408960:	add    eax,0xce00340d
  408965:	sub    BYTE PTR [ebp+0x7],dl
  408968:	xor    al,0x0
  40896a:	in     al,0x28
  40896c:	gs pop es
  40896e:	xor    al,0x0
  408970:	call   0x3447fb9d
  408975:	add    BYTE PTR [eax],dh
  408977:	sub    BYTE PTR [ebp+0xd],bl
  40897a:	cmp    al,0x0
  40897c:	sub    BYTE PTR ds:[ebx+0xd],dh
  408980:	inc    esp
  408981:	add    BYTE PTR [esi],dh
  408983:	xor    eax,DWORD PTR [eax]
  408985:	pop    es
  408986:	inc    esp
  408987:	add    BYTE PTR [esi],bh
  408989:	xor    ecx,DWORD PTR [ecx+0x71003c0d]
  40898f:	sub    BYTE PTR [eax+0x1],al
  408992:	and    DWORD PTR [esi],eax
  408994:	dec    ebx
  408995:	xor    ecx,edi
  408997:	add    eax,0x335c0199
  40899c:	push   ebx
  40899d:	add    al,0x41
  40899f:	add    al,0x71
  4089a1:	xor    eax,ecx
  4089a3:	add    BYTE PTR [ecx+0x1],ch
  4089a6:	jg     0x4089db
  4089a8:	cmps   DWORD PTR ds:[esi],DWORD PTR es:[edi]
  4089a9:	or     eax,0x33990629
  4089ae:	mov    cl,0xd
  4089b0:	xor    DWORD PTR [esi],eax
  4089b2:	int    0x5
  4089b4:	movs   DWORD PTR es:[edi],DWORD PTR ds:[esi]
  4089b5:	add    BYTE PTR [ecx+0x4],al
  4089b8:	int    0x5
  4089ba:	stc    
  4089bb:	add    BYTE PTR [eax+eax*1+0x30],dl
  4089bf:	sub    ch,ch
  4089c1:	push   es
  4089c2:	pop    esp
  4089c3:	add    BYTE PTR [esi],bh
  4089c5:	sub    BYTE PTR [eax],al
  4089c7:	pop    es
  4089c8:	dec    esp
  4089c9:	add    ah,ah
  4089cb:	sub    BYTE PTR [ebp+0x29063107],ch
  4089d1:	xor    al,0xd9
  4089d3:	or     eax,0x5cd0064
  4089d8:	jg     0x4089db
  4089da:	ins    BYTE PTR es:[edi],dx
  4089db:	add    BYTE PTR [esi+0x34],ah
  4089de:	or     eax,0x6504a90e
  4089e3:	sub    eax,DWORD PTR [eax+0x1]
  4089e6:	popa   
  4089e7:	push   es
  4089e8:	jg     0x408a1e
  4089ea:	sbb    cl,BYTE PTR [esi]
  4089ec:	imul   eax,DWORD PTR [esi],0xe203495
  4089f2:	imul   eax,DWORD PTR [edx],0x42a28da
  4089f8:	jno    0x408a00
  4089fa:	mov    edx,0x79041e34
  4089ff:	push   es
  408a00:	(bad)  
  408a01:	xor    al,0x57
  408a03:	push   cs
  408a04:	add    DWORD PTR [esi],0x17f05cd
  408a0a:	jns    0x408a12
  408a0c:	pop    es
  408a0d:	xor    eax,0x6890e5d
  408a12:	int    0x5
  408a14:	jg     0x408a17
  408a16:	xchg   ecx,eax
  408a17:	push   es
  408a18:	int    0x5
  408a1a:	fs push cs
  408a1c:	xchg   ecx,eax
  408a1d:	push   es
  408a1e:	test   eax,0x7400a521
  408a23:	add    BYTE PTR [ecx+0x35],al
  408a26:	jb     0x408a2f
  408a28:	mov    DWORD PTR [edx],eax
  408a2a:	call   0x5006:0x990e8e2b
  408a31:	xor    eax,0x679041e
  408a36:	push   esi
  408a37:	xor    eax,0x6a10e5d
  408a3c:	int    0x5
  408a3e:	stc    
  408a3f:	add    BYTE PTR [ecx-0x61ca5ffa],bl
  408a45:	push   cs
  408a46:	test   eax,0xa428e406
  408a4b:	push   cs
  408a4c:	cdq    
  408a4d:	push   es
  408a4e:	mov    esp,0x990eab35
  408a53:	push   es
  408a54:	retf   0x6235
  408a57:	add    eax,0x5cd0261
  408a5c:	mov    al,0xe
  408a5e:	fld    DWORD PTR ds:0xeb635e1
  408a64:	mov    ecx,0x43209106
  408a69:	add    eax,0x35e90181
  408a6e:	fisttp DWORD PTR [ecx+ebx*2]
  408a71:	add    eax,0xeca35fd
  408a76:	mov    DWORD PTR [edx],eax
  408a78:	(bad)  
  408a79:	and    ecx,edx
  408a7b:	push   cs
  408a7c:	pop    ecx
  408a7d:	add    eax,0xa7c360c
  408a82:	rol    DWORD PTR [esi],0x16
  408a85:	fmul   DWORD PTR ss:[esi]
  408a88:	leave  
  408a89:	push   es
  408a8a:	sub    eax,0x740ef736
  408a8f:	add    ch,cl
  408a91:	add    eax,0x6d90efd
  408a96:	int    0x5
  408a98:	je     0x408a9e
  408a9a:	loope  0x408aa2
  408a9c:	int    0x5
  408a9e:	movs   DWORD PTR es:[edi],DWORD PTR ds:[esi]
  408a9f:	add    BYTE PTR [ecx],cl
  408aa1:	add    BYTE PTR [ebx+0x690f5736],ah
  408aa7:	add    DWORD PTR [ebx-0x6ef0a2ca],esi
  408aad:	add    ebp,ecx
  408aaf:	add    eax,0x1910f63
  408ab4:	shl    BYTE PTR [esi],0x71
  408ab7:	psubsw mm0,QWORD PTR [esi]
  408aba:	int    0x5
  408abc:	jns    0x408acd
  408abe:	or     DWORD PTR [eax],eax
  408ac0:	add    al,0x0
  408ac2:	push   ss
  408ac3:	add    BYTE PTR [ecx],cl
  408ac5:	add    BYTE PTR [eax],cl
  408ac7:	add    BYTE PTR [ebx],bl
  408ac9:	add    BYTE PTR [ecx],cl
  408acb:	add    BYTE PTR [eax+eax*1],cl
  408ace:	and    BYTE PTR [eax],al
  408ad0:	or     DWORD PTR [eax],eax
  408ad2:	adc    BYTE PTR [eax],al
  408ad4:	and    eax,0x14000900
  408ad9:	add    BYTE PTR [edx],ch
  408adb:	add    BYTE PTR [ecx],cl
  408add:	add    BYTE PTR [eax],bl
  408adf:	add    BYTE PTR [edi],ch
  408ae1:	add    BYTE PTR [ecx],cl
  408ae3:	add    BYTE PTR [eax+eax*1],bl
  408ae6:	xor    al,0x0
  408ae8:	or     DWORD PTR [eax],eax
  408aea:	and    BYTE PTR [eax],al
  408aec:	cmp    DWORD PTR [eax],eax
  408aee:	or     DWORD PTR [eax],eax
  408af0:	and    al,0x0
  408af2:	add    BYTE PTR ds:[ecx],cl
  408af5:	add    BYTE PTR [eax],ch
  408af7:	add    BYTE PTR [ebx+0x0],al
  408afa:	or     DWORD PTR [eax],eax
  408afc:	sub    al,0x0
  408afe:	dec    eax
  408aff:	add    BYTE PTR [ecx],cl
  408b01:	add    BYTE PTR [eax],dh
  408b03:	add    BYTE PTR [ebp+0x0],cl
  408b06:	or     DWORD PTR [eax],eax
  408b08:	xor    al,0x0
  408b0a:	push   edx
  408b0b:	add    BYTE PTR [ecx],cl
  408b0d:	add    BYTE PTR [eax],bh
  408b0f:	add    BYTE PTR [edi+0x0],dl
  408b12:	or     DWORD PTR [eax],eax
  408b14:	cmp    al,0x0
  408b16:	pop    esp
  408b17:	add    BYTE PTR [ecx],cl
  408b19:	add    BYTE PTR [eax+0x0],al
  408b1c:	popa   
  408b1d:	add    BYTE PTR [ecx],cl
  408b1f:	add    BYTE PTR [eax+eax*1+0x66],al
  408b23:	add    BYTE PTR [ecx],cl
  408b25:	add    BYTE PTR [eax+0x0],cl
  408b28:	imul   eax,DWORD PTR [eax],0x9
  408b2b:	add    BYTE PTR [eax+eax*1+0x70],cl
  408b2f:	add    BYTE PTR [ecx],cl
  408b31:	add    BYTE PTR [eax+0x0],dl
  408b34:	jne    0x408b36
  408b36:	or     DWORD PTR [eax],eax
  408b38:	push   esp
  408b39:	add    BYTE PTR [edx+0x0],bh
  408b3c:	or     DWORD PTR [eax],eax
  408b3e:	pop    eax
  408b3f:	add    BYTE PTR [edi+0x0],bh
  408b42:	or     DWORD PTR [eax],eax
  408b44:	pop    esp
  408b45:	add    BYTE PTR [eax+eax*1+0x600009],al
  408b4c:	mov    DWORD PTR [eax],eax
  408b4e:	or     DWORD PTR [eax],eax
  408b50:	add    BYTE PTR fs:[esi+0x68000e00],cl
  408b57:	add    ah,al
  408b59:	add    BYTE PTR [eax],cl
  408b5b:	add    BYTE PTR [eax+eax*1+0x1b],dh
  408b5f:	add    DWORD PTR [eax],ecx
  408b61:	add    BYTE PTR [eax+0x0],bh
  408b64:	xor    al,0x0
  408b66:	or     eax,0x9000e000
  408b6b:	add    cl,BYTE PTR [esi]
  408b6d:	add    ah,ah
  408b6f:	add    BYTE PTR [ecx+0x24000802],bl
  408b75:	add    DWORD PTR [eax+0x0],ecx
  408b78:	or     BYTE PTR [eax],al
  408b7a:	sub    BYTE PTR [ecx],al
  408b7c:	sbb    eax,DWORD PTR [ecx]
  408b7e:	or     BYTE PTR [eax],al
  408b80:	push   esp
  408b81:	add    DWORD PTR [ecx+0x5c000803],edi
  408b87:	add    eax,esp
  408b89:	add    ecx,DWORD PTR [esi]
  408b8b:	add    BYTE PTR [eax+0x1],ah
  408b8e:	in     eax,0x3
  408b90:	push   cs
  408b91:	add    BYTE PTR [ecx+eax*1-0xc],ah
  408b95:	add    ebp,DWORD PTR [esi]
  408b97:	add    BYTE PTR [ebx+0x2e142300],ch
  408b9d:	add    BYTE PTR [ebx+0x2e158900],ch
  408ba3:	add    BYTE PTR [ebx+0x2e0f8000],dh
  408ba9:	add    BYTE PTR [ebx+0x2e170100],bh
  408baf:	add    BYTE PTR [ebx],bl
  408bb1:	add    BYTE PTR [ecx+0x23002e0f],cl
  408bb7:	add    cl,al
  408bb9:	ucomiss xmm0,DWORD PTR [eax]
  408bbc:	sub    eax,DWORD PTR [eax]
  408bbe:	(bad)  
  408bbf:	ucomiss xmm0,DWORD PTR [eax]
  408bc2:	xor    eax,DWORD PTR [eax]
  408bc4:	int    0xf
  408bc6:	add    BYTE PTR cs:[ebx],bh
  408bc9:	add    ch,cl
  408bcb:	ucomiss xmm0,DWORD PTR [eax]
  408bce:	inc    ebx
  408bcf:	add    ch,cl
  408bd1:	ucomiss xmm0,DWORD PTR [eax]
  408bd4:	dec    ebx
  408bd5:	add    bh,ch
  408bd7:	ucomiss xmm0,DWORD PTR [eax]
  408bda:	push   ebx
  408bdb:	add    BYTE PTR [edx],cl
  408bdd:	adc    BYTE PTR [esi],ch
  408bdf:	add    BYTE PTR [ebx+0x0],bl
  408be2:	xor    BYTE PTR [eax],dl
  408be4:	add    BYTE PTR cs:[ebx+0x0],ch
  408be8:	adc    BYTE PTR fs:[esi],ch
  408beb:	add    BYTE PTR [ebx+0x0],dh
  408bee:	adc    BYTE PTR fs:[esi],ch
  408bf1:	add    BYTE PTR [ebx+0x0],bh
  408bf4:	jbe    0x408c06
  408bf6:	add    BYTE PTR cs:[ebx+0x2e108400],al
  408bfd:	add    BYTE PTR [ebx+0x2e0fc700],cl
  408c03:	add    BYTE PTR [ebx+0x2e108f00],dl
  408c09:	add    BYTE PTR [ebx+0x2e10ba00],bl
  408c0f:	add    BYTE PTR [ebx+0x3140400],ah
  408c15:	add    bh,BYTE PTR [ebx+0x9081404]
  408c1b:	add    cl,BYTE PTR [ebx]
  408c1d:	or     al,BYTE PTR [eax+0xb02290f]
  408c23:	or     al,BYTE PTR [eax-0x1cfd7cf1]
  408c29:	or     DWORD PTR [ebx],ebx
  408c2b:	add    DWORD PTR [ebx+0x1b01f302],eax
  408c31:	add    DWORD PTR [ebx+0x1609db02],eax
  408c37:	bt     DWORD PTR [edx],eax
  408c3a:	repz add DWORD PTR [ebx],ebx
  408c3d:	add    eax,eax
  408c3f:	add    esi,ebx
  408c41:	add    DWORD PTR [ebx],ebx
  408c43:	add    DWORD PTR [eax+0x1b01f304],esp
  408c49:	add    eax,eax
  408c4b:	add    al,0xf3
  408c4d:	add    DWORD PTR [ebx],ebx
  408c4f:	add    ecx,eax
  408c51:	add    al,0xf3
  408c53:	add    DWORD PTR [ebx],ebx
  408c55:	add    DWORD PTR [ecx],eax
  408c57:	add    eax,0x11b01f3
  408c5c:	and    DWORD PTR ds:0x11b01f3,eax
  408c62:	inc    ecx
  408c63:	add    eax,0x11b01f3
  408c68:	popa   
  408c69:	add    eax,0x11b01f3
  408c6e:	add    DWORD PTR ds:0x11b01f3,0x1f305a1
  408c78:	sbb    eax,DWORD PTR [ecx]
  408c7a:	rol    DWORD PTR ds:0x11b01f3,0xe1
  408c81:	add    eax,0x11b01f3
  408c86:	pusha  
  408c87:	pop    es
  408c88:	repz add DWORD PTR [ebx],ebx
  408c8b:	add    DWORD PTR [eax+0x1b01f307],eax
  408c91:	add    DWORD PTR [eax+0x1b01f307],esp
  408c97:	add    eax,eax
  408c99:	pop    es
  408c9a:	repz add DWORD PTR [ebx],ebx
  408c9d:	add    eax,esp
  408c9f:	pop    es
  408ca0:	repz add DWORD PTR [ebx],ebx
  408ca3:	add    DWORD PTR [eax],eax
  408ca5:	or     bl,dh
  408ca7:	add    DWORD PTR [ebx],ebx
  408ca9:	add    DWORD PTR [eax],esp
  408cab:	or     bl,dh
  408cad:	add    DWORD PTR [ebx],ebx
  408caf:	add    DWORD PTR [eax+0x8],eax
  408cb2:	repz add DWORD PTR [ebx],ebx
  408cb5:	add    eax,eax
  408cb7:	or     bl,dh
  408cb9:	add    DWORD PTR [ebx],ebx
  408cbb:	add    eax,esp
  408cbd:	or     bl,dh
  408cbf:	add    DWORD PTR [ebx],ebx
  408cc1:	add    ecx,esp
  408cc3:	or     bl,dh
  408cc5:	add    DWORD PTR [ebx],ebx
  408cc7:	add    DWORD PTR [eax],eax
  408cc9:	or     ebx,esi
  408ccb:	add    DWORD PTR [ebx],ebx
  408ccd:	add    DWORD PTR [ecx],eax
  408ccf:	or     ebx,esi
  408cd1:	add    DWORD PTR [ebx],ebx
  408cd3:	add    DWORD PTR [eax],esp
  408cd5:	or     ebx,esi
  408cd7:	add    DWORD PTR [ebx],ebx
  408cd9:	add    DWORD PTR [eax+0x9],eax
  408cdc:	repz add DWORD PTR [ebx],ebx
  408cdf:	add    DWORD PTR [eax+0x9],esp
  408ce2:	repz add DWORD PTR [ebx],ebx
  408ce5:	add    DWORD PTR [eax+0xb],esp
  408ce8:	repz add DWORD PTR [ebx],ebx
  408ceb:	add    DWORD PTR [eax-0x39fad4f5],esp
  408cf1:	or     eax,eax
  408cf3:	or     ebp,DWORD PTR [ebx]
  408cf5:	add    eax,0xc0009c6
  408cfa:	sub    eax,DWORD PTR ds:0xc2009c6
  408d00:	sub    eax,DWORD PTR ds:0xc4009c6
  408d06:	sub    eax,DWORD PTR ds:0xc8009c6
  408d0c:	sub    eax,DWORD PTR ds:0xca009c6
  408d12:	sub    eax,DWORD PTR ds:0xcc009c6
  408d18:	sub    eax,DWORD PTR ds:0xce009c6
  408d1e:	sub    eax,DWORD PTR ds:0xd0009c6
  408d24:	sub    eax,DWORD PTR ds:0xd2009c6
  408d2a:	sub    eax,DWORD PTR ds:0xd4009c6
  408d30:	sub    eax,DWORD PTR ds:0xd6009c6
  408d36:	sub    eax,DWORD PTR ds:0xd8009c6
  408d3c:	sub    eax,DWORD PTR ds:0xda009c6
  408d42:	sub    eax,DWORD PTR ds:0xdc009c6
  408d48:	sub    eax,DWORD PTR ds:0xea009c6
  408d4e:	sub    eax,DWORD PTR ds:0xec009c6
  408d54:	sub    eax,DWORD PTR ds:0xee009c6
  408d5a:	sub    eax,DWORD PTR ds:0xf0009c6
  408d60:	repz add DWORD PTR [ebx],ebx
  408d63:	add    DWORD PTR [eax],esp
  408d65:	psllq  mm0,QWORD PTR [ecx]
  408d68:	sbb    eax,DWORD PTR [ecx]
  408d6a:	pusha  
  408d6b:	psllq  mm0,QWORD PTR [ecx]
  408d6e:	sbb    eax,DWORD PTR [ecx]
  408d70:	or     BYTE PTR [edi],0xf3
  408d73:	add    DWORD PTR [ebx],ebx
  408d75:	add    DWORD PTR [eax],ebp
  408d77:	add    eax,0x5540534
  408d7c:	add    BYTE PTR ds:0x5c705bb,0xfc
  408d83:	add    eax,0x6840633
  408d88:	movs   BYTE PTR es:[edi],BYTE PTR ds:[esi]
  408d89:	push   es
  408d8a:	test   eax,0x29070b06
  408d8f:	pop    es
  408d90:	das    
  408d91:	pop    es
  408d92:	cmp    eax,DWORD PTR [edi]
  408d94:	inc    edx
  408d95:	pop    es
  408d96:	dec    ecx
  408d97:	pop    es
  408d98:	pop    esi
  408d99:	pop    es
  408d9a:	ins    DWORD PTR es:[edi],dx
  408d9b:	pop    es
  408d9c:	rol    BYTE PTR [edi],cl
  408d9e:	jmp    0x408da7
  408da0:	pop    es
  408da1:	or     BYTE PTR [ecx-0x44f564f7],bh
  408da7:	or     cl,al
  408da9:	or     bl,bl
  408dab:	or     dh,ch
  408dad:	or     dl,BYTE PTR [edi]
  408daf:	or     esi,DWORD PTR [edx]
  408db1:	or     eax,DWORD PTR [esi+0xb]
  408db4:	push   eax
  408db5:	or     ebx,DWORD PTR [ecx+0xb]
  408db8:	arpl   WORD PTR [ebx],cx
  408dba:	ins    DWORD PTR es:[edi],dx
  408dbb:	or     edi,DWORD PTR [ecx+0xb]
  408dbe:	jg     0x408dcb
  408dc0:	xchg   edi,eax
  408dc1:	or     esi,DWORD PTR [eax-0x39f446f5]
  408dc7:	or     esp,ebx
  408dc9:	or     edi,edi
  408dcb:	or     ebp,DWORD PTR [edi]
  408dcd:	or     al,0x43
  408dcf:	or     al,0x6a
  408dd1:	or     al,0x7c
  408dd3:	or     al,0x9a
  408dd5:	or     al,0xb0
  408dd7:	or     al,0xe8
  408dd9:	or     al,0xd
  408ddb:	or     eax,0xd210d17
  408de0:	cmp    cl,BYTE PTR ds:0xd570d4f
  408de6:	mov    cs,WORD PTR ds:0xe270db8
  408dec:	imul   ecx,DWORD PTR [esi],0xffffff95
  408def:	push   cs
  408df0:	mov    esp,0xf00ede0e
  408df5:	push   cs
  408df6:	(bad)  
  408df7:	packssdw mm1,QWORD PTR [edi]
  408dfa:	add    al,0x0
  408dfc:	add    DWORD PTR [eax],eax
  408dfe:	add    eax,0x7000200
  408e03:	add    BYTE PTR [ebx],al
  408e05:	add    BYTE PTR [eax+eax*1],cl
  408e08:	add    al,0x0
  408e0a:	or     eax,0xe000800
  408e0f:	add    BYTE PTR [ebx],cl
  408e11:	add    BYTE PTR [eax],dl
  408e13:	add    BYTE PTR [eax+eax*1],cl
  408e16:	adc    DWORD PTR [eax],eax
  408e18:	push   cs
  408e19:	add    BYTE PTR [ebx],dl
  408e1b:	add    BYTE PTR [edi],cl
  408e1d:	add    BYTE PTR [eax+eax*1],dl
  408e20:	adc    BYTE PTR [eax],al
  408e22:	add    BYTE PTR [eax],al
  408e24:	rol    BYTE PTR [esi],1
  408e26:	adc    al,0x1
  408e28:	add    BYTE PTR [eax],al
  408e2a:	adc    cl,BYTE PTR [edx]
  408e2c:	add    WORD PTR [eax],ax
  408e2f:	add    BYTE PTR [ebp+0x17b0a],ch
  408e35:	add    BYTE PTR [esi],bl
  408e37:	or     al,0x14
  408e39:	add    DWORD PTR [eax],eax
  408e3b:	add    BYTE PTR [edx],dh
  408e3d:	or     al,0xf5
  408e3f:	add    DWORD PTR [eax],eax
  408e41:	add    BYTE PTR [ecx+0xc],al
  408e44:	cli    
  408e45:	add    DWORD PTR [eax],eax
  408e47:	add    BYTE PTR [edx+0xc],dl
  408e4a:	inc    DWORD PTR [ecx]
  408e4c:	add    BYTE PTR [eax],al
  408e4e:	xor    cl,BYTE PTR [esp+ebp*1]
  408e51:	add    al,BYTE PTR [eax]
  408e53:	add    BYTE PTR [ecx+0xc],al
  408e56:	cli    
  408e57:	add    DWORD PTR [eax],eax
  408e59:	add    BYTE PTR [edx+0xc],dl
  408e5c:	xor    DWORD PTR [edx],eax
  408e5e:	add    BYTE PTR [eax],al
  408e60:	pop    ds
  408e61:	or     eax,0x26c
  408e66:	jnp    0x408e7a
  408e68:	jge    0x408e6d
  408e6a:	add    BYTE PTR [eax],al
  408e6c:	cmp    cl,BYTE PTR [esi]
  408e6e:	add    BYTE PTR [ebx],0x0
  408e71:	add    BYTE PTR [ebp+0x11414],dh
  408e77:	add    BYTE PTR [ecx+0x43f16],dl
  408e7d:	add    BYTE PTR [edi+0x46416],ah
  408e83:	add    BYTE PTR [ebx],cl
  408e85:	sbb    DWORD PTR [edx+0x4],ebp
  408e88:	add    BYTE PTR [eax],al
  408e8a:	adc    ebx,DWORD PTR [ecx]
  408e8c:	jo     0x408e92
  408e8e:	add    BYTE PTR [eax],al
  408e90:	sbb    DWORD PTR ds:[eax+0x4],esi
  408e94:	add    BYTE PTR [eax],al
  408e96:	push   0x19
  408e98:	jo     0x408e9e
  408e9a:	add    BYTE PTR [eax],al
  408e9c:	xchg   esp,eax
  408e9d:	sbb    DWORD PTR [eax+0x4],esi
  408ea0:	add    BYTE PTR [eax],al
  408ea2:	scas   al,BYTE PTR es:[edi]
  408ea3:	sbb    DWORD PTR [eax+0x4],esi
  408ea6:	add    BYTE PTR [eax],al
  408ea8:	(bad)  
  408ea9:	sbb    DWORD PTR [eax+0x4],esi
  408eac:	add    BYTE PTR [eax],al
  408eae:	fstp   DWORD PTR [ecx]
  408eb0:	jo     0x408eb6
  408eb2:	add    BYTE PTR [eax],al
  408eb4:	clc    
  408eb5:	sbb    DWORD PTR [eax+0x4],esi
  408eb8:	add    BYTE PTR [eax],al
  408eba:	adc    DWORD PTR [edx],ebx
  408ebc:	jo     0x408ec2
  408ebe:	add    BYTE PTR [eax],al
  408ec0:	cmp    DWORD PTR [edx],ebx
  408ec2:	jo     0x408ec8
  408ec4:	add    BYTE PTR [eax],al
  408ec6:	push   esp
  408ec7:	sbb    dh,BYTE PTR [eax+0x4]
  408eca:	add    BYTE PTR [eax],al
  408ecc:	ins    DWORD PTR es:[edi],dx
  408ecd:	sbb    dh,BYTE PTR [eax+0x4]
  408ed0:	add    BYTE PTR [eax],al
  408ed2:	xchg   BYTE PTR [edx],bl
  408ed4:	jo     0x408eda
  408ed6:	add    BYTE PTR [eax],al
  408ed8:	fwait
  408ed9:	sbb    dh,BYTE PTR [eax+0x4]
  408edc:	add    al,BYTE PTR [eax]
  408ede:	or     eax,0x2000300
  408ee3:	add    BYTE PTR [eax+eax*1],bl
  408ee6:	add    eax,0x25000200
  408eeb:	add    BYTE PTR [edi],al
  408eed:	add    BYTE PTR [ecx],al
  408eef:	add    BYTE PTR [esi],ah
  408ef1:	add    BYTE PTR [edi],al
  408ef3:	add    BYTE PTR [edx],al
  408ef5:	add    BYTE PTR [ebx],bh
  408ef7:	add    BYTE PTR [ecx],cl
  408ef9:	add    BYTE PTR [ecx],al
  408efb:	add    BYTE PTR [eax+eax*1],bh
  408efe:	or     DWORD PTR [eax],eax
  408f00:	add    DWORD PTR [eax],eax
  408f02:	add    BYTE PTR ds:[ebx],cl
  408f05:	add    BYTE PTR [edx],al
  408f07:	add    BYTE PTR ds:0x2000b00,bh
  408f0d:	add    BYTE PTR [edi],bh
  408f0f:	add    BYTE PTR ds:0x40000100,cl
  408f15:	add    BYTE PTR ds:0x41000200,cl
  408f1b:	add    BYTE PTR [edi],cl
  408f1d:	add    BYTE PTR [ecx],al
  408f1f:	add    BYTE PTR [edx+0x0],al
  408f22:	sldt   WORD PTR [edx]
  408f25:	add    BYTE PTR [esi+0x0],al
  408f28:	adc    DWORD PTR [eax],eax
  408f2a:	add    DWORD PTR [eax],eax
  408f2c:	inc    edi
  408f2d:	add    BYTE PTR [ecx],dl
  408f2f:	add    BYTE PTR [ecx],al
  408f31:	add    BYTE PTR [ecx+0x0],cl
  408f34:	adc    eax,DWORD PTR [eax]
  408f36:	add    al,BYTE PTR [eax]
  408f38:	dec    eax
  408f39:	add    BYTE PTR [ebx],dl
  408f3b:	add    BYTE PTR [ecx],al
  408f3d:	add    BYTE PTR [ebx+0x0],cl
  408f40:	adc    eax,0x4a000200
  408f45:	add    BYTE PTR ds:0x4d000200,dl
  408f4b:	add    BYTE PTR [edi],dl
  408f4d:	add    BYTE PTR [edx],al
  408f4f:	add    BYTE PTR [eax+0x0],bh
  408f52:	sbb    DWORD PTR [eax],eax
  408f54:	add    DWORD PTR [eax],eax
  408f56:	jns    0x408f58
  408f58:	sbb    DWORD PTR [eax],eax
  408f5a:	add    al,BYTE PTR [eax]
  408f5c:	jnp    0x408f5e
  408f5e:	sbb    eax,DWORD PTR [eax]
  408f60:	add    DWORD PTR [eax],eax
  408f62:	jl     0x408f64
  408f64:	sbb    eax,DWORD PTR [eax]
  408f66:	add    al,BYTE PTR [eax]
  408f68:	nop
  408f69:	add    BYTE PTR ds:0xa5000200,bl
  408f6f:	add    BYTE PTR [edi],bl
  408f71:	add    BYTE PTR [ecx],al
  408f73:	add    BYTE PTR [eax+eax*1+0x2001f],ah
  408f7a:	test   eax,0x2002100
  408f7f:	add    BYTE PTR [edx+0x1002300],ch
  408f85:	add    BYTE PTR [ebx+0x2002300],ch
  408f8b:	add    BYTE PTR [eax+eax*1+0x20025],ch
  408f92:	lods   eax,DWORD PTR ds:[esi]
  408f93:	add    BYTE PTR [edi],ah
  408f95:	add    BYTE PTR [edx],al
  408f97:	add    BYTE PTR [esi+0x2002900],ch
  408f9d:	add    BYTE PTR [edi+0x2002b00],ch
  408fa3:	add    BYTE PTR [eax+0x2002d00],dh
  408fa9:	add    BYTE PTR [ecx+0x2002f00],dh
  408faf:	add    BYTE PTR [edx+0x2003100],dh
  408fb5:	add    BYTE PTR [ebx+0x2003300],dh
  408fbb:	add    BYTE PTR [eax+eax*1+0x20035],dh
  408fc2:	mov    ch,0x0
  408fc4:	aaa    
  408fc5:	add    BYTE PTR [edx],al
  408fc7:	add    BYTE PTR [esi+0x2003900],dh
  408fcd:	add    BYTE PTR [edi+0x2003b00],dh
  408fd3:	add    BYTE PTR [eax+0x2003d00],bh
  408fd9:	add    BYTE PTR [ecx+0x11003f00],bh
  408fdf:	add    BYTE PTR [ecx+eax*1],ch
  408fe2:	add    eax,DWORD PTR [eax]
  408fe4:	sub    eax,0x1e203820
  408fe9:	push   es
  408fea:	in     al,0x6
  408fec:	test   DWORD PTR [esi],0x7a40733
  408ff2:	mov    ebp,0x7f0d690b
  408ff7:	or     eax,0xdcb0dc2
  408ffc:	ror    BYTE PTR ds:0xe010df5,cl
  409002:	xchg   DWORD PTR [esi],ecx
  409004:	add    BYTE PTR [ecx],al
  409006:	or     eax,0x105d300
  40900b:	add    BYTE PTR [eax],al
  40900d:	add    DWORD PTR [edi],ecx
  40900f:	add    BYTE PTR [ebp+eax*1+0x2],al
  409013:	add    BYTE PTR [eax],al
  409015:	add    DWORD PTR [ecx],edx
  409017:	add    BYTE PTR [edx+0x5],bl
  40901a:	add    al,BYTE PTR [eax]
  40901c:	add    BYTE PTR [ecx],al
  40901e:	adc    eax,DWORD PTR [eax]
  409020:	jb     0x409027
  409022:	add    al,BYTE PTR [eax]
  409024:	add    al,0x80
  409026:	add    BYTE PTR [eax],al
  409028:	or     eax,DWORD PTR [eax]
  40902a:	add    BYTE PTR [eax],al
  40902c:	add    BYTE PTR [eax],al
  40902e:	add    BYTE PTR [eax],al
  409030:	add    DWORD PTR [eax],eax
  409032:	add    BYTE PTR [eax],al
  409034:	xchg   BYTE PTR [ebx+ebp*8],al
  409037:	pop    ds
  409038:	add    BYTE PTR [eax],al
  40903a:	add    al,0x0
	...
  409044:	add    BYTE PTR [eax],al
  409046:	add    DWORD PTR [eax],eax
  409048:	cli    
  409049:	add    DWORD PTR [eax],eax
  40904b:	add    BYTE PTR [eax],al
  40904d:	add    BYTE PTR [ebx],cl
	...
  409057:	add    BYTE PTR [eax],al
  409059:	add    BYTE PTR [edx],cl
  40905b:	add    BYTE PTR [ecx],dl
  40905d:	add    al,BYTE PTR [eax]
  40905f:	add    BYTE PTR [eax],al
  409061:	add    BYTE PTR [eax+eax*1],al
	...
  40906c:	add    BYTE PTR [eax],al
  40906e:	or     al,BYTE PTR [eax]
  409070:	scas   al,BYTE PTR es:[edi]
  409071:	add    al,BYTE PTR [eax]
  409073:	add    BYTE PTR [eax],al
  409075:	add    BYTE PTR [ebx],cl
	...
  40907f:	add    BYTE PTR [eax],al
  409081:	add    BYTE PTR [edx],cl
  409083:	add    al,dl
  409085:	add    al,BYTE PTR [eax]
  409087:	add    BYTE PTR [eax],al
  409089:	add    BYTE PTR [eax+eax*1],al
	...
  409094:	add    BYTE PTR [eax],al
  409096:	add    DWORD PTR [eax],eax
  409098:	add    eax,DWORD PTR [edx]
  40909a:	add    BYTE PTR [eax],al
  40909c:	add    BYTE PTR [eax],al
  40909e:	or     eax,DWORD PTR [eax]
	...
  4090a8:	add    BYTE PTR [eax],al
  4090aa:	or     al,BYTE PTR [eax]
  4090ac:	xor    eax,DWORD PTR [edi]
  4090ae:	add    BYTE PTR [eax],al
  4090b0:	add    BYTE PTR [eax],al
  4090b2:	add    al,0x0
	...
  4090bc:	add    BYTE PTR [eax],al
  4090be:	add    DWORD PTR [eax],eax
  4090c0:	jnp    0x4090cf
  4090c2:	add    BYTE PTR [eax],al
  4090c4:	add    BYTE PTR [eax],al
  4090c6:	or     eax,DWORD PTR [eax]
	...
  4090d0:	add    BYTE PTR [eax],al
  4090d2:	or     al,BYTE PTR [eax]
  4090d4:	inc    eax
  4090d5:	adc    DWORD PTR [eax],eax
  4090d7:	add    BYTE PTR [eax],al
  4090d9:	add    bh,bh
  4090db:	add    bh,bh
  4090dd:	add    bh,bh
  4090df:	add    bh,bh
  4090e1:	add    BYTE PTR [eax],al
  4090e3:	add    al,BYTE PTR [eax]
  4090e5:	add    BYTE PTR [eax],al
  4090e7:	add    BYTE PTR [ebx],bl
  4090e9:	adc    eax,0x0
  4090ee:	add    al,0x0
	...
  4090f8:	add    BYTE PTR [eax],al
  4090fa:	add    DWORD PTR [eax],eax
  4090fc:	sub    edx,DWORD PTR [esi]
  4090fe:	add    BYTE PTR [eax],al
  409100:	add    BYTE PTR [eax],al
  409102:	add    al,BYTE PTR [eax]
	...
  40910c:	add    BYTE PTR [eax],al
  40910e:	add    DWORD PTR [eax],eax
  409110:	add    eax,DWORD PTR [edx]
  409112:	add    BYTE PTR [eax],al
  409114:	add    BYTE PTR [eax],al
  409116:	add    al,BYTE PTR [eax]
	...
  409120:	add    BYTE PTR [eax],al
  409122:	add    DWORD PTR [eax],eax
  409124:	cli    
  409125:	add    DWORD PTR [eax],eax
  409127:	add    BYTE PTR [eax],al
  409129:	add    BYTE PTR [eax+eax*1],al
	...
  409134:	add    BYTE PTR [eax],al
  409136:	or     al,BYTE PTR [eax]
  409138:	xor    BYTE PTR [eax+eax*1],ah
  40913b:	add    BYTE PTR [eax],al
  40913d:	add    BYTE PTR [eax],al
  40913f:	add    BYTE PTR [eax],al
  409141:	add    BYTE PTR [ecx],al
  409143:	add    BYTE PTR [eax],al
  409145:	add    al,bh
  409147:	add    BYTE PTR ss:[eax],al
  40914a:	adc    eax,0x71000500
  40914f:	add    DWORD PTR [esi-0x29fe86f6],ecx
  409155:	or     bh,BYTE PTR [ecx+0x1]
  409158:	jmp    0x409164
  40915a:	jns    0x40915d
  40915c:	lock or bh,BYTE PTR [ecx+0x1]
  409160:	push   es
  409161:	or     eax,DWORD PTR [eax]
  409163:	add    BYTE PTR [eax],al
  409165:	cmp    al,0x4d
  409167:	outs   dx,DWORD PTR ds:[esi]
  409168:	fs jne 0x4091d7
  40916b:	gs add BYTE PTR ds:[ebp+0x74],ch
  409170:	je     0x4091d3
  409172:	cs gs js 0x4091db
  409176:	add    BYTE PTR [ebp+eiz*2+0x76],al
  40917a:	dec    esp
  40917b:	imul   esp,DWORD PTR [ebx+0x65],0x6e69736e
  409182:	add    BYTE PTR [di+0x69],cl
  409186:	arpl   WORD PTR [edx+0x6f],si
  409189:	jae    0x4091fa
  40918b:	data16 je 0x4091bc
  40918e:	push   esi
  40918f:	imul   esi,DWORD PTR [ebx+0x75],0x74536c61
  409196:	jne    0x4091fc
  409198:	imul   ebp,DWORD PTR [edi+0x2e],0x6c617551
  40919f:	imul   esi,DWORD PTR [ecx+edi*2+0x54],0x736c6f6f
  4091a7:	cs push edx
  4091a9:	gs ins DWORD PTR es:[edi],dx
  4091ab:	outs   dx,DWORD PTR ds:[esi]
  4091ac:	je     0x409213
  4091ae:	inc    esp
  4091af:	popa   
  4091b0:	je     0x409213
  4091b2:	inc    ebx
  4091b3:	outs   dx,DWORD PTR ds:[esi]
  4091b4:	ins    BYTE PTR es:[edi],dx
  4091b5:	ins    BYTE PTR es:[edi],dx
  4091b6:	arpl   WORD PTR gs:[ecx+ebp*2+0x6f],si
  4091bb:	outs   dx,BYTE PTR ds:[esi]
  4091bc:	cs dec eax
  4091be:	outs   dx,DWORD PTR ds:[esi]
  4091bf:	jae    0x409235
  4091c1:	cs push ebx
  4091c3:	push   0x64657261
  4091c8:	add    BYTE PTR [esi+0x61],cl
  4091cb:	je     0x409236
  4091cd:	jbe    0x409234
  4091cf:	dec    ebp
  4091d0:	gs je  0x40923b
  4091d3:	outs   dx,DWORD PTR ds:[esi]
  4091d4:	fs jae 0x4091d7
  4091d7:	push   esp
  4091d8:	outs   dx,DWORD PTR ds:[esi]
  4091d9:	jne    0x40923e
  4091db:	push   0x6f636552
  4091e0:	jb     0x409246
  4091e2:	gs jb  0x4091e5
  4091e5:	dec    ebp
  4091e6:	imul   esp,DWORD PTR [ebx+0x72],0x666f736f
  4091ed:	je     0x40921d
  4091ef:	push   esi
  4091f0:	imul   esi,DWORD PTR [ebx+0x75],0x74536c61
  4091f7:	jne    0x40925d
  4091f9:	imul   ebp,DWORD PTR [edi+0x2e],0x6c617551
  409200:	imul   esi,DWORD PTR [ecx+edi*2+0x54],0x736c6f6f
  409208:	cs push edx
  40920a:	gs ins DWORD PTR es:[edi],dx
  40920c:	outs   dx,DWORD PTR ds:[esi]
  40920d:	je     0x409274
  40920f:	inc    esp
  409210:	popa   
  409211:	je     0x409274
  409213:	inc    ebx
  409214:	outs   dx,DWORD PTR ds:[esi]
  409215:	ins    BYTE PTR es:[edi],dx
  409216:	ins    BYTE PTR es:[edi],dx
  409217:	arpl   WORD PTR gs:[ecx+ebp*2+0x6f],si
  40921c:	outs   dx,BYTE PTR ds:[esi]
  40921d:	cs dec eax
  40921f:	outs   dx,DWORD PTR ds:[esi]
  409220:	jae    0x409296
  409222:	add    BYTE PTR [ebx+eax*2+0x4d],al
  409226:	popa   
  409227:	outs   dx,BYTE PTR ds:[esi]
  409228:	popa   
  409229:	addr16 gs jb 0x40922d
  40922d:	dec    eax
  40922e:	outs   dx,DWORD PTR ds:[esi]
  40922f:	jae    0x4092a5
  409231:	push   ebp
  409232:	je     0x40929d
  409234:	ins    BYTE PTR es:[edi],dx
  409235:	imul   esi,DWORD PTR [ecx+edi*2+0x0],0x6e797341
  40923d:	arpl   WORD PTR [edi+0x70],cx
  409240:	gs jb  0x4092a4
  409243:	je     0x4092ae
  409245:	outs   dx,DWORD PTR ds:[esi]
  409246:	outs   dx,BYTE PTR ds:[esi]
  409247:	add    BYTE PTR [ebx+0x65],al
  40924a:	jb     0x4092c0
  40924c:	dec    ecx
  40924d:	outs   dx,BYTE PTR ds:[esi]
  40924e:	jae    0x4092c4
  409250:	popa   
  409251:	ins    BYTE PTR es:[edi],dx
  409252:	ins    BYTE PTR es:[edi],dx
  409253:	inc    esp
  409254:	gs ins BYTE PTR es:[edi],dx
  409256:	gs addr16 popa 
  409259:	je     0x4092c0
  40925b:	add    BYTE PTR [ebx+0x61],al
  40925e:	outs   dx,BYTE PTR ds:[esi]
  40925f:	arpl   WORD PTR [ebp+0x6c],sp
  409262:	inc    ebx
  409263:	gs jb  0x4092da
  409266:	dec    ecx
  409267:	outs   dx,BYTE PTR ds:[esi]
  409268:	jae    0x4092de
  40926a:	popa   
  40926b:	ins    BYTE PTR es:[edi],dx
  40926c:	ins    BYTE PTR es:[edi],dx
  40926d:	inc    esp
  40926e:	gs ins BYTE PTR es:[edi],dx
  409270:	gs addr16 popa 
  409273:	je     0x4092da
  409275:	add    BYTE PTR [ecx+0x63],al
  409278:	jno    0x4092ef
  40927a:	imul   esi,DWORD PTR [edx+0x65],0x4c766544
  409281:	imul   esp,DWORD PTR [ebx+0x65],0x4465736e
  409288:	gs ins BYTE PTR es:[edi],dx
  40928a:	gs addr16 popa 
  40928d:	je     0x4092f4
  40928f:	add    BYTE PTR [ebx+0x61],al
  409292:	outs   dx,BYTE PTR ds:[esi]
  409293:	arpl   WORD PTR [ebp+0x6c],sp
  409296:	inc    ecx
  409297:	arpl   WORD PTR [ecx+0x75],si
  40929a:	imul   esi,DWORD PTR [edx+0x65],0x4c766544
  4092a1:	imul   esp,DWORD PTR [ebx+0x65],0x4465736e
  4092a8:	gs ins BYTE PTR es:[edi],dx
  4092aa:	gs addr16 popa 
  4092ad:	je     0x409314
  4092af:	add    BYTE PTR [ecx+0x6e],cl
  4092b2:	jae    0x409328
  4092b4:	popa   
  4092b5:	ins    BYTE PTR es:[edi],dx
  4092b6:	ins    BYTE PTR es:[edi],dx
  4092b7:	inc    ebx
  4092b8:	gs jb  0x40932f
  4092bb:	dec    edi
  4092bc:	jo     0x409323
  4092be:	jb     0x409321
  4092c0:	je     0x40932b
  4092c2:	outs   dx,DWORD PTR ds:[esi]
  4092c3:	outs   dx,BYTE PTR ds:[esi]
  4092c4:	add    BYTE PTR [ecx+0x63],al
  4092c7:	jno    0x40933e
  4092c9:	imul   esi,DWORD PTR [edx+0x65],0x4c766544
  4092d0:	imul   esp,DWORD PTR [ebx+0x65],0x4f65736e
  4092d7:	jo     0x40933e
  4092d9:	jb     0x40933c
  4092db:	je     0x409346
  4092dd:	outs   dx,DWORD PTR ds:[esi]
  4092de:	outs   dx,BYTE PTR ds:[esi]
  4092df:	add    BYTE PTR [ecx+0x73],al
  4092e2:	jns    0x409352
  4092e4:	arpl   WORD PTR [edi+0x70],cx
  4092e7:	gs jb  0x40934b
  4092ea:	je     0x409355
  4092ec:	outs   dx,DWORD PTR ds:[esi]
  4092ed:	outs   dx,BYTE PTR ds:[esi]
  4092ee:	dec    ebp
  4092ef:	popa   
  4092f0:	outs   dx,BYTE PTR ds:[esi]
  4092f1:	popa   
  4092f2:	addr16 gs jb 0x4092f6
  4092f6:	inc    ebx
  4092f7:	outs   dx,DWORD PTR ds:[esi]
  4092f8:	ins    BYTE PTR es:[edi],dx
  4092f9:	ins    BYTE PTR es:[edi],dx
  4092fa:	arpl   WORD PTR gs:[ecx+ebp*2+0x6f],si
  4092ff:	outs   dx,BYTE PTR ds:[esi]
  409300:	push   ebx
  409301:	gs jb  0x40937a
  409304:	imul   esp,DWORD PTR [ebx+0x65],0x48434400
  40930b:	outs   dx,DWORD PTR ds:[esi]
  40930c:	jae    0x409382
  40930e:	add    BYTE PTR [ebp+eiz*2+0x70],al
  409312:	ins    BYTE PTR es:[edi],dx
  409313:	outs   dx,DWORD PTR ds:[esi]
  409314:	jns    0x409357
  409316:	jo     0x409388
  409318:	js     0x409362
  40931a:	outs   dx,DWORD PTR ds:[esi]
  40931b:	jae    0x409391
  40931d:	add    BYTE PTR [eax+0x61],dl
  409320:	arpl   WORD PTR [ebx+0x61],bp
  409323:	addr16 gs dec ebp
  409326:	popa   
  409327:	outs   dx,BYTE PTR ds:[esi]
  409328:	popa   
  409329:	addr16 gs jb 0x409375
  40932d:	gs ins BYTE PTR es:[edi],dx
  40932f:	jo     0x409396
  409331:	jb     0x409333
  409333:	push   edx
  409334:	gs ins DWORD PTR es:[edi],dx
  409336:	outs   dx,DWORD PTR ds:[esi]
  409337:	je     0x40939e
  409339:	push   esp
  40933a:	gs jae 0x4093b1
  40933d:	push   edx
  40933e:	jne    0x4093ae
  409340:	outs   dx,BYTE PTR ds:[esi]
  409341:	gs jb  0x409344
  409344:	push   edx
  409345:	gs ins DWORD PTR es:[edi],dx
  409347:	outs   dx,DWORD PTR ds:[esi]
  409348:	je     0x4093af
  40934a:	push   esp
  40934b:	gs jae 0x4093c2
  40934e:	push   edx
  40934f:	jne    0x4093bf
  409351:	outs   dx,BYTE PTR ds:[esi]
  409352:	gs jb  0x4093a7
  409355:	gs jae 0x4093c7
  409358:	jne    0x4093cc
  40935a:	arpl   WORD PTR [ebp+0x73],sp
  40935d:	add    BYTE PTR [ebp+0x73],ch
  409360:	arpl   WORD PTR [edi+0x72],bp
  409363:	ins    BYTE PTR es:[edi],dx
  409364:	imul   esp,DWORD PTR [edx+0x0],0x74737953
  40936b:	gs ins DWORD PTR es:[edi],dx
  40936d:	add    BYTE PTR [edi+0x62],cl
  409370:	push   0x65
  409372:	arpl   WORD PTR [eax+eax*1+0x4d],si
  409376:	imul   esp,DWORD PTR [ebx+0x72],0x666f736f
  40937d:	je     0x4093ad
  40937f:	push   esi
  409380:	imul   esi,DWORD PTR [ebx+0x75],0x74536c61
  409387:	jne    0x4093ed
  409389:	imul   ebp,DWORD PTR [edi+0x2e],0x6c617551
  409390:	imul   esi,DWORD PTR [ecx+edi*2+0x54],0x736c6f6f
  409398:	cs inc ebp
  40939a:	js     0x409401
  40939c:	arpl   WORD PTR [ebp+0x74],si
  40939f:	imul   ebp,DWORD PTR [edi+0x6e],0x6d6d6f43
  4093a6:	outs   dx,DWORD PTR ds:[esi]
  4093a7:	outs   dx,BYTE PTR ds:[esi]
  4093a8:	add    BYTE PTR [ebp+0x69],cl
  4093ab:	arpl   WORD PTR [edx+0x6f],si
  4093ae:	jae    0x40941f
  4093b0:	data16 je 0x4093e1
  4093b3:	push   esi
  4093b4:	imul   esi,DWORD PTR [ebx+0x75],0x74536c61
  4093bb:	jne    0x409421
  4093bd:	imul   ebp,DWORD PTR [edi+0x2e],0x74736554
  4093c4:	push   esp
  4093c5:	outs   dx,DWORD PTR ds:[esi]
  4093c6:	outs   dx,DWORD PTR ds:[esi]
  4093c7:	ins    BYTE PTR es:[edi],dx
  4093c8:	jae    0x4093f8
  4093ca:	inc    ebp
  4093cb:	js     0x409432
  4093cd:	arpl   WORD PTR [ebp+0x74],si
  4093d0:	imul   ebp,DWORD PTR [edi+0x6e],0x6f434900
  4093d7:	ins    BYTE PTR es:[edi],dx
  4093d8:	ins    BYTE PTR es:[edi],dx
  4093d9:	arpl   WORD PTR gs:[edi+ebp*2+0x72],si
  4093de:	inc    ebp
  4093df:	jbe    0x409446
  4093e1:	outs   dx,BYTE PTR ds:[esi]
  4093e2:	je     0x409437
  4093e4:	imul   ebp,DWORD PTR [esi+0x6b],0x65524900
  4093eb:	jae    0x409462
  4093ed:	ins    BYTE PTR es:[edi],dx
  4093ee:	je     0x409443
  4093f0:	imul   ebp,DWORD PTR [esi+0x6b],0x69444900
  4093f7:	jae    0x409469
  4093f9:	outs   dx,DWORD PTR ds:[esi]
  4093fa:	jae    0x40945d
  4093fc:	bound  ebp,QWORD PTR [ebp+eiz*2+0x0]
  409400:	dec    ebp
  409401:	jne    0x40946f
  409403:	je     0x40946e
  409405:	arpl   WORD PTR [ecx+0x73],sp
  409408:	je     0x40944e
  40940a:	gs ins BYTE PTR es:[edi],dx
  40940c:	gs addr16 popa 
  40940f:	je     0x409476
  409411:	add    BYTE PTR [ebx+0x79],dl
  409414:	jae    0x40948a
  409416:	gs ins DWORD PTR es:[edi],dx
  409418:	cs push ebx
  40941a:	gs jb  0x409493
  40941d:	imul   esp,DWORD PTR [ebx+0x65],0x636f7250
  409424:	gs jae 0x40949a
  409427:	add    BYTE PTR [ebx+0x65],dl
  40942a:	jb     0x4094a2
  40942c:	imul   esp,DWORD PTR [ebx+0x65],0x65736142
  409433:	add    BYTE PTR [ebp+0x69],cl
  409436:	arpl   WORD PTR [edx+0x6f],si
  409439:	jae    0x4094aa
  40943b:	data16 je 0x40946c
  40943e:	push   esi
  40943f:	imul   esi,DWORD PTR [ebx+0x75],0x74536c61
  409446:	jne    0x4094ac
  409448:	imul   ebp,DWORD PTR [edi+0x2e],0x6c617551
  40944f:	imul   esi,DWORD PTR [ecx+edi*2+0x54],0x736c6f6f
  409457:	cs inc esp
  409459:	popa   
  40945a:	je     0x4094bd
  40945c:	inc    ebx
  40945d:	outs   dx,DWORD PTR ds:[esi]
  40945e:	ins    BYTE PTR es:[edi],dx
  40945f:	ins    BYTE PTR es:[edi],dx
  409460:	arpl   WORD PTR gs:[ecx+ebp*2+0x6f],si
  409465:	outs   dx,BYTE PTR ds:[esi]
  409466:	inc    ebx
  409467:	outs   dx,DWORD PTR ds:[esi]
  409468:	ins    DWORD PTR es:[edi],dx
  409469:	ins    DWORD PTR es:[edi],dx
  40946a:	outs   dx,DWORD PTR ds:[esi]
  40946b:	outs   dx,BYTE PTR ds:[esi]
  40946c:	add    BYTE PTR [ecx+0x44],cl
  40946f:	inc    ebx
  409470:	inc    ebx
  409471:	push   0x656e6e61
  409476:	ins    BYTE PTR es:[edi],dx
  409477:	push   esp
  409478:	outs   dx,DWORD PTR ds:[esi]
  409479:	inc    ebx
  40947a:	outs   dx,DWORD PTR ds:[esi]
  40947b:	ins    BYTE PTR es:[edi],dx
  40947c:	ins    BYTE PTR es:[edi],dx
  40947d:	arpl   WORD PTR gs:[edi+ebp*2+0x72],si
  409482:	jae    0x409484
  409484:	dec    ecx
  409485:	inc    ebx
  409486:	push   0x656e6e61
  40948b:	ins    BYTE PTR es:[edi],dx
  40948c:	push   esp
  40948d:	outs   dx,DWORD PTR ds:[esi]
  40948e:	push   edx
  40948f:	gs ins DWORD PTR es:[edi],dx
  409491:	outs   dx,DWORD PTR ds:[esi]
  409492:	je     0x4094f9
  409494:	push   esp
  409495:	gs jae 0x40950c
  409498:	push   edx
  409499:	jne    0x409509
  40949b:	outs   dx,BYTE PTR ds:[esi]
  40949c:	gs jb  0x40949f
  40949f:	inc    esi
  4094a0:	inc    ecx
  4094a1:	inc    ebx
  4094a2:	dec    ecx
  4094a3:	dec    esp
  4094a4:	dec    ecx
  4094a5:	push   esp
  4094a6:	pop    ecx
  4094a7:	pop    edi
  4094a8:	push   edi
  4094a9:	dec    ecx
  4094aa:	dec    esi
  4094ab:	xor    esi,DWORD PTR [edx]
  4094ad:	add    BYTE PTR [ebp+0x52],al
  4094b0:	push   edx
  4094b1:	dec    edi
  4094b2:	push   edx
  4094b3:	dec    ebp
  4094b4:	inc    ecx
  4094b5:	push   ebx
  4094b6:	dec    ebx
  4094b7:	add    BYTE PTR [ebp+0x52],al
  4094ba:	push   edx
  4094bb:	dec    edi
  4094bc:	push   edx
  4094bd:	inc    esi
  4094be:	dec    esp
  4094bf:	inc    ecx
  4094c0:	inc    edi
  4094c1:	push   ebx
  4094c2:	add    BYTE PTR [ebp+0x52],al
  4094c5:	push   edx
  4094c6:	dec    edi
  4094c7:	push   edx
  4094c8:	pop    edi
  4094c9:	dec    esi
  4094ca:	dec    edi
  4094cb:	push   esp
  4094cc:	pop    edi
  4094cd:	inc    esi
  4094ce:	dec    edi
  4094cf:	push   ebp
  4094d0:	dec    esi
  4094d1:	inc    esp
  4094d2:	add    BYTE PTR [ebp+0x52],al
  4094d5:	push   edx
  4094d6:	dec    edi
  4094d7:	push   edx
  4094d8:	pop    edi
  4094d9:	dec    esi
  4094da:	dec    edi
  4094db:	push   esp
  4094dc:	pop    edi
  4094dd:	inc    ecx
  4094de:	push   ebp
  4094df:	push   esp
  4094e0:	dec    eax
  4094e1:	inc    ebp
  4094e2:	dec    esi
  4094e3:	push   esp
  4094e4:	dec    ecx
  4094e5:	inc    ebx
  4094e6:	inc    ecx
  4094e7:	push   esp
  4094e8:	inc    ebp
  4094e9:	inc    esp
  4094ea:	add    BYTE PTR [ebp+0x52],al
  4094ed:	push   edx
  4094ee:	dec    edi
  4094ef:	push   edx
  4094f0:	pop    edi
  4094f1:	dec    esi
  4094f2:	inc    ebp
  4094f3:	push   esp
  4094f4:	push   edi
  4094f5:	dec    edi
  4094f6:	push   edx
  4094f7:	dec    ebx
  4094f8:	pop    edi
  4094f9:	push   ebp
  4094fa:	dec    esi
  4094fb:	push   edx
  4094fc:	inc    ebp
  4094fd:	inc    ecx
  4094fe:	inc    ebx
  4094ff:	dec    eax
  409500:	inc    ecx
  409501:	inc    edx
  409502:	dec    esp
  409503:	inc    ebp
  409504:	add    BYTE PTR [ebp+0x52],al
  409507:	push   edx
  409508:	dec    edi
  409509:	push   edx
  40950a:	pop    edi
  40950b:	inc    ecx
  40950c:	inc    ebx
  40950d:	inc    ebx
  40950e:	inc    ebp
  40950f:	push   ebx
  409510:	push   ebx
  409511:	pop    edi
  409512:	inc    esp
  409513:	inc    ebp
  409514:	dec    esi
  409515:	dec    ecx
  409516:	inc    ebp
  409517:	inc    esp
  409518:	add    BYTE PTR [ebp+0x52],al
  40951b:	push   edx
  40951c:	dec    edi
  40951d:	push   edx
  40951e:	pop    edi
  40951f:	inc    edx
  409520:	inc    ecx
  409521:	inc    esp
  409522:	pop    edi
  409523:	dec    esi
  409524:	inc    ebp
  409525:	push   esp
  409526:	pop    edi
  409527:	dec    esi
  409528:	inc    ecx
  409529:	dec    ebp
  40952a:	inc    ebp
  40952b:	add    BYTE PTR [ebp+0x52],al
  40952e:	push   edx
  40952f:	dec    edi
  409530:	push   edx
  409531:	pop    edi
  409532:	inc    ebx
  409533:	inc    ecx
  409534:	dec    esi
  409535:	inc    ebx
  409536:	inc    ebp
  409537:	dec    esp
  409538:	dec    esp
  409539:	inc    ebp
  40953a:	inc    esp
  40953b:	add    BYTE PTR [ebp+0x52],al
  40953e:	push   edx
  40953f:	dec    edi
  409540:	push   edx
  409541:	pop    edi
  409542:	inc    esi
  409543:	dec    ecx
  409544:	dec    esp
  409545:	inc    ebp
  409546:	pop    edi
  409547:	dec    esi
  409548:	dec    edi
  409549:	push   esp
  40954a:	pop    edi
  40954b:	inc    esi
  40954c:	dec    edi
  40954d:	push   ebp
  40954e:	dec    esi
  40954f:	inc    esp
  409550:	add    BYTE PTR [ebx+0x5f],dl
  409553:	dec    edi
  409554:	dec    ebx
  409555:	add    BYTE PTR [ebp+0x5f],al
  409558:	inc    esi
  409559:	inc    ecx
  40955a:	dec    ecx
  40955b:	dec    esp
  40955c:	add    BYTE PTR [ebp+0x5f],al
  40955f:	dec    ecx
  409560:	dec    esi
  409561:	push   esi
  409562:	inc    ecx
  409563:	dec    esp
  409564:	dec    ecx
  409565:	inc    esp
  409566:	inc    ecx
  409567:	push   edx
  409568:	inc    edi
  409569:	add    BYTE PTR [ebp+0x5f],al
  40956c:	dec    edi
  40956d:	push   ebp
  40956e:	push   esp
  40956f:	dec    edi
  409570:	inc    esi
  409571:	dec    ebp
  409572:	inc    ebp
  409573:	dec    ebp
  409574:	dec    edi
  409575:	push   edx
  409576:	pop    ecx
  409577:	add    BYTE PTR [ebp+0x5f],al
  40957a:	push   ebp
  40957b:	dec    esi
  40957c:	dec    ebx
  40957d:	dec    esi
  40957e:	dec    edi
  40957f:	push   edi
  409580:	dec    esi
  409581:	pop    edi
  409582:	dec    esp
  409583:	dec    ecx
  409584:	push   esi
  409585:	inc    ebp
  409586:	pop    edi
  409587:	inc    ebx
  409588:	inc    ecx
  409589:	dec    esi
  40958a:	inc    ebx
  40958b:	inc    ebp
  40958c:	dec    esp
  40958d:	dec    esp
  40958e:	inc    ebp
  40958f:	inc    esp
  409590:	add    BYTE PTR [ebp+0x5f],al
  409593:	push   edi
  409594:	push   ebx
  409595:	pop    edi
  409596:	push   ebx
  409597:	inc    ebp
  409598:	push   edx
  409599:	push   esi
  40959a:	inc    ebp
  40959b:	push   edx
  40959c:	pop    edi
  40959d:	dec    esi
  40959e:	dec    edi
  40959f:	push   esp
  4095a0:	pop    edi
  4095a1:	push   edx
  4095a2:	inc    ebp
  4095a3:	inc    ecx
  4095a4:	inc    ebx
  4095a5:	dec    eax
  4095a6:	inc    ecx
  4095a7:	inc    edx
  4095a8:	dec    esp
  4095a9:	inc    ebp
  4095aa:	add    BYTE PTR [ebp+0x5f],al
  4095ad:	push   edi
  4095ae:	push   ebx
  4095af:	pop    edi
  4095b0:	dec    esp
  4095b1:	dec    ecx
  4095b2:	inc    ebx
  4095b3:	inc    ebp
  4095b4:	dec    esi
  4095b5:	push   ebx
  4095b6:	inc    ebp
  4095b7:	pop    edi
  4095b8:	inc    ebp
  4095b9:	pop    eax
  4095ba:	push   eax
  4095bb:	dec    ecx
  4095bc:	push   edx
  4095bd:	inc    ebp
  4095be:	inc    esp
  4095bf:	add    BYTE PTR [ebp+0x5f],al
  4095c2:	push   edi
  4095c3:	push   ebx
  4095c4:	pop    edi
  4095c5:	push   ebp
  4095c6:	push   ebx
  4095c7:	inc    ebp
  4095c8:	push   edx
  4095c9:	pop    edi
  4095ca:	dec    esi
  4095cb:	dec    edi
  4095cc:	push   esp
  4095cd:	pop    edi
  4095ce:	inc    ecx
  4095cf:	push   ebp
  4095d0:	push   esp
  4095d1:	dec    eax
  4095d2:	dec    edi
  4095d3:	push   edx
  4095d4:	dec    ecx
  4095d5:	pop    edx
  4095d6:	inc    ebp
  4095d7:	inc    esp
  4095d8:	add    BYTE PTR [eax+0x52],cl
  4095db:	inc    ebp
  4095dc:	push   ebx
  4095dd:	push   ebp
  4095de:	dec    esp
  4095df:	push   esp
  4095e0:	pop    edi
  4095e1:	inc    ebp
  4095e2:	push   edx
  4095e3:	push   edx
  4095e4:	dec    edi
  4095e5:	push   edx
  4095e6:	pop    edi
  4095e7:	dec    esi
  4095e8:	dec    edi
  4095e9:	push   esp
  4095ea:	pop    edi
  4095eb:	inc    esi
  4095ec:	dec    edi
  4095ed:	push   ebp
  4095ee:	dec    esi
  4095ef:	inc    esp
  4095f0:	add    BYTE PTR [eax+0x52],cl
  4095f3:	inc    ebp
  4095f4:	push   ebx
  4095f5:	push   ebp
  4095f6:	dec    esp
  4095f7:	push   esp
  4095f8:	pop    edi
  4095f9:	inc    ebp
  4095fa:	push   edx
  4095fb:	push   edx
  4095fc:	dec    edi
  4095fd:	push   edx
  4095fe:	pop    edi
  4095ff:	dec    esi
  409600:	dec    edi
  409601:	push   esp
  409602:	pop    edi
  409603:	inc    ecx
  409604:	push   ebp
  409605:	push   esp
  409606:	dec    eax
  409607:	inc    ebp
  409608:	dec    esi
  409609:	push   esp
  40960a:	dec    ecx
  40960b:	inc    ebx
  40960c:	inc    ecx
  40960d:	push   esp
  40960e:	inc    ebp
  40960f:	inc    esp
  409610:	add    BYTE PTR [eax+0x52],cl
  409613:	inc    ebp
  409614:	push   ebx
  409615:	push   ebp
  409616:	dec    esp
  409617:	push   esp
  409618:	pop    edi
  409619:	inc    ebp
  40961a:	push   edx
  40961b:	push   edx
  40961c:	dec    edi
  40961d:	push   edx
  40961e:	pop    edi
  40961f:	dec    esi
  409620:	inc    ebp
  409621:	push   esp
  409622:	push   edi
  409623:	dec    edi
  409624:	push   edx
  409625:	dec    ebx
  409626:	pop    edi
  409627:	push   ebp
  409628:	dec    esi
  409629:	push   edx
  40962a:	inc    ebp
  40962b:	inc    ecx
  40962c:	inc    ebx
  40962d:	dec    eax
  40962e:	inc    ecx
  40962f:	inc    edx
  409630:	dec    esp
  409631:	inc    ebp
  409632:	add    BYTE PTR [eax+0x52],cl
  409635:	inc    ebp
  409636:	push   ebx
  409637:	push   ebp
  409638:	dec    esp
  409639:	push   esp
  40963a:	pop    edi
  40963b:	inc    ebp
  40963c:	push   edx
  40963d:	push   edx
  40963e:	dec    edi
  40963f:	push   edx
  409640:	pop    edi
  409641:	inc    ecx
  409642:	inc    ebx
  409643:	inc    ebx
  409644:	inc    ebp
  409645:	push   ebx
  409646:	push   ebx
  409647:	pop    edi
  409648:	inc    esp
  409649:	inc    ebp
  40964a:	dec    esi
  40964b:	dec    ecx
  40964c:	inc    ebp
  40964d:	inc    esp
  40964e:	add    BYTE PTR [eax+0x52],cl
  409651:	inc    ebp
  409652:	push   ebx
  409653:	push   ebp
  409654:	dec    esp
  409655:	push   esp
  409656:	pop    edi
  409657:	inc    ebp
  409658:	push   edx
  409659:	push   edx
  40965a:	dec    edi
  40965b:	push   edx
  40965c:	pop    edi
  40965d:	inc    edx
  40965e:	inc    ecx
  40965f:	inc    esp
  409660:	pop    edi
  409661:	dec    esi
  409662:	inc    ebp
  409663:	push   esp
  409664:	pop    edi
  409665:	dec    esi
  409666:	inc    ecx
  409667:	dec    ebp
  409668:	inc    ebp
  409669:	add    BYTE PTR [eax+0x52],cl
  40966c:	inc    ebp
  40966d:	push   ebx
  40966e:	push   ebp
  40966f:	dec    esp
  409670:	push   esp
  409671:	pop    edi
  409672:	inc    ebp
  409673:	push   edx
  409674:	push   edx
  409675:	dec    edi
  409676:	push   edx
  409677:	pop    edi
  409678:	inc    ebx
  409679:	inc    ecx
  40967a:	dec    esi
  40967b:	inc    ebx
  40967c:	inc    ebp
  40967d:	dec    esp
  40967e:	dec    esp
  40967f:	inc    ebp
  409680:	inc    esp
  409681:	add    BYTE PTR [eax+0x52],cl
  409684:	inc    ebp
  409685:	push   ebx
  409686:	push   ebp
  409687:	dec    esp
  409688:	push   esp
  409689:	pop    edi
  40968a:	inc    ebp
  40968b:	push   edx
  40968c:	push   edx
  40968d:	dec    edi
  40968e:	push   edx
  40968f:	pop    edi
  409690:	inc    esi
  409691:	dec    ecx
  409692:	dec    esp
  409693:	inc    ebp
  409694:	pop    edi
  409695:	dec    esi
  409696:	dec    edi
  409697:	push   esp
  409698:	pop    edi
  409699:	inc    esi
  40969a:	dec    edi
  40969b:	push   ebp
  40969c:	dec    esi
  40969d:	inc    esp
  40969e:	add    BYTE PTR [ecx+eiz*2+0x74],al
  4096a2:	gs push esp
  4096a4:	imul   ebp,DWORD PTR [ebp+0x65],0x65684300
  4096ab:	arpl   WORD PTR [ebx+0x44],bp
  4096ae:	gs jbe 0x409716
  4096b1:	ins    BYTE PTR es:[edi],dx
  4096b2:	outs   dx,DWORD PTR ds:[esi]
  4096b3:	jo     0x40971a
  4096b5:	jb     0x409703
  4096b7:	imul   esp,DWORD PTR [ebx+0x65],0x65736e
  4096be:	inc    ecx
  4096bf:	arpl   WORD PTR [ecx+0x75],si
  4096c2:	imul   esi,DWORD PTR [edx+0x65],0x65766544
  4096c9:	ins    BYTE PTR es:[edi],dx
  4096ca:	outs   dx,DWORD PTR ds:[esi]
  4096cb:	jo     0x409732
  4096cd:	jb     0x40971b
  4096cf:	imul   esp,DWORD PTR [ebx+0x65],0x65736e
  4096d6:	push   edx
  4096d7:	gs ins DWORD PTR es:[edi],dx
  4096d9:	outs   dx,DWORD PTR ds:[esi]
  4096da:	jbe    0x409741
  4096dc:	inc    esp
  4096dd:	gs jbe 0x409745
  4096e0:	ins    BYTE PTR es:[edi],dx
  4096e1:	outs   dx,DWORD PTR ds:[esi]
  4096e2:	jo     0x409749
  4096e4:	jb     0x409732
  4096e6:	imul   esp,DWORD PTR [ebx+0x65],0x65736e
  4096ed:	push   ebx
  4096ee:	jns    0x409763
  4096f0:	je     0x409757
  4096f2:	ins    DWORD PTR es:[edi],dx
  4096f3:	cs push edx
  4096f5:	jne    0x409765
  4096f7:	je     0x409762
  4096f9:	ins    DWORD PTR es:[edi],dx
  4096fa:	gs cs dec ecx
  4096fd:	outs   dx,BYTE PTR ds:[esi]
  4096fe:	je     0x409765
  409700:	jb     0x409771
  409702:	jo     0x409757
  409704:	gs jb  0x40977d
  409707:	imul   esp,DWORD PTR [ebx+0x65],0x6f432e73
  40970e:	ins    DWORD PTR es:[edi],dx
  40970f:	push   esp
  409710:	jns    0x409782
  409712:	gs jae 0x409715
  409715:	inc    esi
  409716:	dec    ecx
  409717:	dec    esp
  409718:	inc    ebp
  409719:	push   esp
  40971a:	dec    ecx
  40971b:	dec    ebp
  40971c:	inc    ebp
  40971d:	add    BYTE PTR [esi+0x69],al
  409720:	ins    BYTE PTR es:[edi],dx
  409721:	gs push esp
  409723:	imul   ebp,DWORD PTR [ebp+0x65],0x61446f54
  40972a:	je     0x409791
  40972c:	push   esp
  40972d:	imul   ebp,DWORD PTR [ebp+0x65],0x74632e00
  409734:	outs   dx,DWORD PTR ds:[esi]
  409735:	jb     0x409737
  409737:	inc    edi
  409738:	gs je  0x40977f
  40973b:	gs jae 0x4097a9
  40973e:	je     0x4097af
  409740:	jo     0x409799
  409742:	imul   ebp,DWORD PTR [esi+0x64],0x5400776f
  409749:	outs   dx,DWORD PTR ds:[esi]
  40974a:	jne    0x4097af
  40974c:	push   0x6f636552
  409751:	jb     0x4097b7
  409753:	gs jb  0x40979b
  409756:	js     0x4097bd
  409758:	arpl   WORD PTR [ebp+0x74],si
  40975b:	popa   
  40975c:	bound  ebp,QWORD PTR [ebp+eiz*2+0x0]
  409760:	dec    edi
  409761:	outs   dx,BYTE PTR ds:[esi]
  409762:	push   ebx
  409763:	je     0x4097c6
  409765:	jb     0x4097db
  409767:	add    BYTE PTR [edi+0x6e],cl
  40976a:	push   ebx
  40976b:	je     0x4097dc
  40976d:	jo     0x40976f
  40976f:	addr16 gs je 0x4097d2
  409773:	dec    esp
  409774:	outs   dx,DWORD PTR ds:[esi]
  409775:	addr16 inc esi
  409777:	imul   ebp,DWORD PTR [ebp+eiz*2+0x44],0x63657269
  40977f:	je     0x4097f0
  409781:	jb     0x4097fc
  409783:	add    BYTE PTR [ebx+0x79],dl
  409786:	jae    0x4097fc
  409788:	gs ins DWORD PTR es:[edi],dx
  40978a:	cs inc esp
  40978c:	imul   esp,DWORD PTR [ecx+0x67],0x74736f6e
  409793:	imul   esp,DWORD PTR [ebx+0x73],0x6f725000
  40979a:	arpl   WORD PTR [ebp+0x73],sp
  40979d:	jae    0x40979f
  40979f:	push   ebx
  4097a0:	je     0x409803
  4097a2:	jb     0x409818
  4097a4:	push   ebx
  4097a5:	imul   ebp,DWORD PTR [esi+0x67],0x6f54656c
  4097ac:	jne    0x409811
  4097ae:	push   0x6f636552
  4097b3:	jb     0x409819
  4097b5:	gs jb  0x409808
  4097b8:	jb     0x409829
  4097ba:	arpl   WORD PTR [ebp+0x73],sp
  4097bd:	jae    0x4097bf
  4097bf:	push   ebx
  4097c0:	je     0x409823
  4097c2:	jb     0x409838
  4097c4:	push   esp
  4097c5:	outs   dx,DWORD PTR ds:[esi]
  4097c6:	jne    0x40982b
  4097c8:	push   0x6f636552
  4097cd:	jb     0x409833
  4097cf:	gs jb  0x4097d2
  4097d2:	inc    ebp
  4097d3:	jbe    0x40983a
  4097d5:	outs   dx,BYTE PTR ds:[esi]
  4097d6:	je     0x409819
  4097d8:	jb     0x409841
  4097da:	jae    0x4097dc
  4097dc:	push   esp
  4097dd:	outs   dx,DWORD PTR ds:[esi]
  4097de:	jne    0x409843
  4097e0:	push   0x6f636552
  4097e5:	jb     0x40984b
  4097e7:	gs jb  0x40983a
  4097ea:	jb     0x40985b
  4097ec:	arpl   WORD PTR [ebp+0x73],sp
  4097ef:	jae    0x409836
  4097f1:	js     0x40985c
  4097f3:	je     0x40985a
  4097f5:	add    BYTE PTR fs:[ebx+0x74],dl
  4097f9:	outs   dx,DWORD PTR ds:[esi]
  4097fa:	jo     0x409850
  4097fc:	outs   dx,DWORD PTR ds:[esi]
  4097fd:	jne    0x409862
  4097ff:	push   0x6f636552
  409804:	jb     0x40986a
  409806:	gs jb  0x409809
  409809:	je     0x40987a
  40980b:	jne    0x409870
  40980d:	push   0x6f636552
  409812:	jb     0x409878
  409814:	gs jb  0x409858
  409817:	outs   dx,BYTE PTR gs:[si]
  40981a:	je     0x40986c
  40981c:	jb     0x40988d
  40981e:	arpl   WORD PTR [ebp+0x73],sp
  409821:	jae    0x409823
  409823:	ins    BYTE PTR es:[edi],dx
  409824:	outs   dx,DWORD PTR ds:[esi]
  409825:	addr16 inc esi
  409827:	imul   ebp,DWORD PTR [ebp+eiz*2+0x44],0x63657269
  40982f:	je     0x4098a0
  409831:	jb     0x4098ac
  409833:	add    BYTE PTR [edi+ebp*2+0x67],cl
  409837:	inc    esi
  409838:	imul   ebp,DWORD PTR [ebp+eiz*2+0x44],0x63657269
  409840:	je     0x4098b1
  409842:	jb     0x4098bd
  409844:	add    BYTE PTR [ebp+eiz*2+0x66],al
  409848:	popa   
  409849:	jne    0x4098b7
  40984b:	je     0x40989a
  40984d:	imul   ebp,DWORD PTR [esi+0x44],0x43617461
  409854:	outs   dx,DWORD PTR ds:[esi]
  409855:	ins    BYTE PTR es:[edi],dx
  409856:	ins    BYTE PTR es:[edi],dx
  409857:	arpl   WORD PTR gs:[edi+ebp*2+0x72],si
  40985c:	push   esp
  40985d:	push   0x64616572
  409862:	push   eax
  409863:	outs   dx,DWORD PTR ds:[esi]
  409864:	outs   dx,DWORD PTR ds:[esi]
  409865:	ins    BYTE PTR es:[edi],dx
  409866:	push   esp
  409867:	push   0x64616572
  40986c:	jae    0x40986e
  40986e:	inc    esp
  40986f:	gs popaw 
  409872:	jne    0x4098e0
  409874:	je     0x4098c3
  409876:	popa   
  409877:	js     0x4098bd
  409879:	popa   
  40987a:	je     0x4098dd
  40987c:	inc    ebx
  40987d:	outs   dx,DWORD PTR ds:[esi]
  40987e:	ins    BYTE PTR es:[edi],dx
  40987f:	ins    BYTE PTR es:[edi],dx
  409880:	arpl   WORD PTR gs:[edi+ebp*2+0x72],si
  409885:	push   esp
  409886:	push   0x64616572
  40988b:	push   eax
  40988c:	outs   dx,DWORD PTR ds:[esi]
  40988d:	outs   dx,DWORD PTR ds:[esi]
  40988e:	ins    BYTE PTR es:[edi],dx
  40988f:	push   esp
  409890:	push   0x64616572
  409895:	jae    0x409897
  409897:	dec    ebp
  409898:	imul   esp,DWORD PTR [ebx+0x72],0x666f736f
  40989f:	je     0x4098cf
  4098a1:	push   esi
  4098a2:	imul   esi,DWORD PTR [ebx+0x75],0x74536c61
  4098a9:	jne    0x40990f
  4098ab:	imul   ebp,DWORD PTR [edi+0x2e],0x6c617551
  4098b2:	imul   esi,DWORD PTR [ecx+edi*2+0x54],0x736c6f6f
  4098ba:	cs inc ebx
  4098bc:	outs   dx,DWORD PTR ds:[esi]
  4098bd:	ins    DWORD PTR es:[edi],dx
  4098be:	ins    DWORD PTR es:[edi],dx
  4098bf:	outs   dx,DWORD PTR ds:[esi]
  4098c0:	outs   dx,BYTE PTR ds:[esi]
  4098c1:	add    BYTE PTR [ebp+0x69],cl
  4098c4:	arpl   WORD PTR [edx+0x6f],si
  4098c7:	jae    0x409938
  4098c9:	data16 je 0x4098fa
  4098cc:	push   esi
  4098cd:	imul   esi,DWORD PTR [ebx+0x75],0x74536c61
  4098d4:	jne    0x40993a
  4098d6:	imul   ebp,DWORD PTR [edi+0x2e],0x74736554
  4098dd:	push   esp
  4098de:	outs   dx,DWORD PTR ds:[esi]
  4098df:	outs   dx,DWORD PTR ds:[esi]
  4098e0:	ins    BYTE PTR es:[edi],dx
  4098e1:	jae    0x409911
  4098e3:	inc    ebx
  4098e4:	outs   dx,DWORD PTR ds:[esi]
  4098e5:	ins    DWORD PTR es:[edi],dx
  4098e6:	ins    DWORD PTR es:[edi],dx
  4098e7:	outs   dx,DWORD PTR ds:[esi]
  4098e8:	outs   dx,BYTE PTR ds:[esi]
  4098e9:	add    BYTE PTR [ebp+eiz*2+0x73],dl
  4098ed:	je     0x409941
  4098ef:	jne    0x40995f
  4098f1:	add    BYTE PTR [ebp+eiz*2+0x73],dl
  4098f5:	je     0x409944
  4098f7:	gs jae 0x40996d
  4098fa:	popa   
  4098fb:	addr16 gs push edx
  4098fe:	arpl   WORD PTR gs:[ebp+0x69],sp
  409902:	jbe    0x409969
  409904:	jb     0x40994a
  409906:	gs ins BYTE PTR es:[edi],dx
  409908:	gs addr16 popa 
  40990b:	je     0x409972
  40990d:	add    BYTE PTR [ecx+0x6e],cl
  409910:	imul   esi,DWORD PTR [ecx+ebp*2+0x61],0x657a696c
  409918:	push   ebx
  409919:	gs jae 0x40998f
  40991c:	imul   ebp,DWORD PTR [edi+0x6e],0x696e4900
  409923:	je     0x40998e
  409925:	popa   
  409926:	ins    BYTE PTR es:[edi],dx
  409927:	imul   edi,DWORD PTR [edx+0x65],0x72657355
  40992e:	push   edi
  40992f:	outs   dx,DWORD PTR ds:[esi]
  409930:	jb     0x40999d
  409932:	dec    ecx
  409933:	je     0x40999a
  409935:	ins    DWORD PTR es:[edi],dx
  409936:	inc    esi
  409937:	popa   
  409938:	arpl   WORD PTR [edi+ebp*2+0x72],si
  40993c:	jns    0x40993e
  40993e:	dec    ecx
  40993f:	outs   dx,BYTE PTR ds:[esi]
  409940:	imul   esi,DWORD PTR [ecx+ebp*2+0x61],0x657a696c
  409948:	inc    esp
  409949:	popa   
  40994a:	je     0x4099ad
  40994c:	inc    ebx
  40994d:	outs   dx,DWORD PTR ds:[esi]
  40994e:	ins    BYTE PTR es:[edi],dx
  40994f:	ins    BYTE PTR es:[edi],dx
  409950:	arpl   WORD PTR gs:[edi+ebp*2+0x72],si
  409955:	jae    0x409957
  409957:	inc    ebp
  409958:	outs   dx,BYTE PTR ds:[esi]
  409959:	fs push ebx
  40995b:	gs jae 0x4099d1
  40995e:	imul   ebp,DWORD PTR [edi+0x6e],0x74614400
  409965:	popa   
  409966:	inc    ebx
  409967:	outs   dx,DWORD PTR ds:[esi]
  409968:	ins    BYTE PTR es:[edi],dx
  409969:	ins    BYTE PTR es:[edi],dx
  40996a:	arpl   WORD PTR gs:[ecx+ebp*2+0x6f],si
  40996f:	outs   dx,BYTE PTR ds:[esi]
  409970:	inc    ebp
  409971:	jbe    0x4099d8
  409973:	outs   dx,BYTE PTR ds:[esi]
  409974:	je     0x4099b7
  409976:	jb     0x4099df
  409978:	jae    0x40997a
  40997a:	push   ebx
  40997b:	jns    0x4099eb
  40997d:	arpl   WORD PTR [eax+0x72],bp
  409980:	outs   dx,DWORD PTR ds:[esi]
  409981:	outs   dx,BYTE PTR ds:[esi]
  409982:	imul   edi,DWORD PTR [edx+0x61],0x6e6f6974
  409989:	dec    ecx
  40998a:	outs   dx,BYTE PTR ds:[esi]
  40998b:	outs   dx,WORD PTR ds:[esi]
  40998d:	add    BYTE PTR [edx+0x61],dl
  409990:	imul   esi,DWORD PTR [ebx+0x65],0x6e657645
  409997:	je     0x409999
  409999:	dec    esi
  40999a:	outs   dx,DWORD PTR ds:[esi]
  40999b:	je     0x409a06
  40999d:	imul   sp,WORD PTR [ebx+0x61],0x6974
  4099a3:	outs   dx,DWORD PTR ds:[esi]
  4099a4:	outs   dx,BYTE PTR ds:[esi]
  4099a5:	inc    edx
  4099a6:	jb     0x409a17
  4099a8:	popa   
  4099a9:	arpl   WORD PTR fs:[ecx+0x73],sp
  4099ad:	je     0x4099fb
  4099af:	gs jbe 0x409a17
  4099b2:	ins    BYTE PTR es:[edi],dx
  4099b3:	add    BYTE PTR [ebp+eiz*2+0x73],dl
  4099b7:	je     0x409a06
  4099b9:	gs jae 0x409a2f
  4099bc:	popa   
  4099bd:	add    BYTE PTR gs:[bx+di+0x64],al
  4099c2:	fs push edx
  4099c4:	gs jae 0x409a3c
  4099c7:	ins    BYTE PTR es:[edi],dx
  4099c8:	je     0x4099ca
  4099ca:	inc    esp
  4099cb:	imul   esi,DWORD PTR [ebx+0x70],0x65736f
  4099d2:	addr16 gs je 0x409a35
  4099d6:	push   ebx
  4099d7:	gs jae 0x409a4d
  4099da:	imul   ebp,DWORD PTR [edi+0x6e],0x61747345
  4099e1:	bound  ebp,QWORD PTR [ecx+ebp*2+0x73]
  4099e5:	push   0x54006465
  4099ea:	gs jae 0x409a61
  4099ed:	push   edx
  4099ee:	jne    0x409a5e
  4099f0:	inc    ebx
  4099f1:	outs   dx,DWORD PTR ds:[esi]
  4099f2:	outs   dx,BYTE PTR ds:[esi]
  4099f3:	imul   sp,WORD PTR [edi+0x75],0x6172
  4099f9:	je     0x409a64
  4099fb:	outs   dx,DWORD PTR ds:[esi]
  4099fc:	outs   dx,BYTE PTR ds:[esi]
  4099fd:	add    BYTE PTR [ecx+0x70],al
  409a00:	jo     0x409a6e
  409a02:	jns    0x409a58
  409a04:	gs jae 0x409a7b
  409a07:	push   edx
  409a08:	jne    0x409a78
  409a0a:	inc    ebx
  409a0b:	outs   dx,DWORD PTR ds:[esi]
  409a0c:	outs   dx,BYTE PTR ds:[esi]
  409a0d:	imul   sp,WORD PTR [edi+0x75],0x6172
  409a13:	je     0x409a7e
  409a15:	outs   dx,DWORD PTR ds:[esi]
  409a16:	outs   dx,BYTE PTR ds:[esi]
  409a17:	dec    edi
  409a18:	jbe    0x409a7f
  409a1a:	jb     0x409a8e
  409a1c:	imul   esp,DWORD PTR [ebp+eiz*2+0x73],0x66615300
  409a24:	gs inc ecx
  409a26:	bound  ebp,QWORD PTR [edi+0x72]
  409a29:	je     0x409a8c
  409a2b:	bound  ebp,QWORD PTR [ebp+eiz*2+0x55]
  409a2f:	jae    0x409a96
  409a31:	jb     0x409a8a
  409a33:	outs   dx,DWORD PTR ds:[esi]
  409a34:	jb     0x409aa1
  409a36:	dec    ecx
  409a37:	je     0x409a9e
  409a39:	ins    DWORD PTR es:[edi],dx
  409a3a:	inc    esi
  409a3b:	popa   
  409a3c:	arpl   WORD PTR [edi+ebp*2+0x72],si
  409a40:	jns    0x409a42
  409a42:	ins    DWORD PTR es:[edi],dx
  409a43:	pop    edi
  409a44:	jne    0x409ab9
  409a46:	gs jb  0x409aa0
  409a49:	outs   dx,DWORD PTR ds:[esi]
  409a4a:	jb     0x409ab7
  409a4c:	dec    ecx
  409a4d:	je     0x409ab4
  409a4f:	ins    DWORD PTR es:[edi],dx
  409a50:	inc    esi
  409a51:	popa   
  409a52:	arpl   WORD PTR [edi+ebp*2+0x72],si
  409a56:	jns    0x409a58
  409a58:	dec    ebp
  409a59:	imul   esp,DWORD PTR [ebx+0x72],0x666f736f
  409a60:	je     0x409a90
  409a62:	push   esi
  409a63:	imul   esi,DWORD PTR [ebx+0x75],0x74536c61
  409a6a:	jne    0x409ad0
  409a6c:	imul   ebp,DWORD PTR [edi+0x2e],0x74736554
  409a73:	push   esp
  409a74:	outs   dx,DWORD PTR ds:[esi]
  409a75:	outs   dx,DWORD PTR ds:[esi]
  409a76:	ins    BYTE PTR es:[edi],dx
  409a77:	jae    0x409aa7
  409a79:	push   ebp
  409a7a:	je     0x409ae5
  409a7c:	ins    BYTE PTR es:[edi],dx
  409a7d:	imul   esi,DWORD PTR [ecx+edi*2+0x0],0x54747145
  409a85:	push   0x64616572
  409a8a:	push   eax
  409a8b:	outs   dx,DWORD PTR ds:[esi]
  409a8c:	outs   dx,DWORD PTR ds:[esi]
  409a8d:	ins    BYTE PTR es:[edi],dx
  409a8e:	add    BYTE PTR [ebp+0x5f],ch
  409a91:	fs popa 
  409a93:	je     0x409af6
  409a95:	inc    ebx
  409a96:	outs   dx,DWORD PTR ds:[esi]
  409a97:	ins    BYTE PTR es:[edi],dx
  409a98:	ins    BYTE PTR es:[edi],dx
  409a99:	arpl   WORD PTR gs:[ecx+ebp*2+0x6f],si
  409a9e:	outs   dx,BYTE PTR ds:[esi]
  409a9f:	push   esp
  409aa0:	push   0x64616572
  409aa5:	push   eax
  409aa6:	outs   dx,DWORD PTR ds:[esi]
  409aa7:	outs   dx,DWORD PTR ds:[esi]
  409aa8:	ins    BYTE PTR es:[edi],dx
  409aa9:	add    BYTE PTR [ebp+0x69],cl
  409aac:	arpl   WORD PTR [edx+0x6f],si
  409aaf:	jae    0x409b20
  409ab1:	data16 je 0x409ae2
  409ab4:	push   esi
  409ab5:	imul   esi,DWORD PTR [ebx+0x75],0x74536c61
  409abc:	jne    0x409b22
  409abe:	imul   ebp,DWORD PTR [edi+0x2e],0x74736554
  409ac5:	push   esp
  409ac6:	outs   dx,DWORD PTR ds:[esi]
  409ac7:	outs   dx,DWORD PTR ds:[esi]
  409ac8:	ins    BYTE PTR es:[edi],dx
  409ac9:	jae    0x409af9
  409acb:	inc    esp
  409acc:	popa   
  409acd:	je     0x409b30
  409acf:	inc    ebx
  409ad0:	outs   dx,DWORD PTR ds:[esi]
  409ad1:	ins    BYTE PTR es:[edi],dx
  409ad2:	ins    BYTE PTR es:[edi],dx
  409ad3:	arpl   WORD PTR gs:[ecx+ebp*2+0x6f],si
  409ad8:	outs   dx,BYTE PTR ds:[esi]
  409ad9:	add    BYTE PTR [ebp+0x78],al
  409adc:	arpl   WORD PTR gs:[ebp+0x74],si
  409ae0:	imul   ebp,DWORD PTR [edi+0x6e],0x67756c50
  409ae7:	imul   ebp,DWORD PTR [esi+0x4d],0x67616e61
  409aee:	gs jb  0x409af1
  409af1:	jo     0x409b5f
  409af3:	jne    0x409b5c
  409af5:	imul   ebp,DWORD PTR [esi+0x4d],0x67616e61
  409afc:	gs jb  0x409aff
  409aff:	je     0x409b66
  409b01:	jae    0x409b77
  409b03:	dec    ebp
  409b04:	gs jae 0x409b7a
  409b07:	popa   
  409b08:	addr16 gs push edx
  409b0b:	arpl   WORD PTR gs:[ebp+0x69],sp
  409b0f:	jbe    0x409b76
  409b11:	jb     0x409b13
  409b13:	push   ebx
  409b14:	jns    0x409b89
  409b16:	je     0x409b7d
  409b18:	ins    DWORD PTR es:[edi],dx
  409b19:	cs push edx
  409b1b:	jne    0x409b8b
  409b1d:	je     0x409b88
  409b1f:	ins    DWORD PTR es:[edi],dx
  409b20:	gs cs inc ebx
  409b23:	outs   dx,DWORD PTR ds:[esi]
  409b24:	ins    DWORD PTR es:[edi],dx
  409b25:	jo     0x409b90
  409b27:	ins    BYTE PTR es:[edi],dx
  409b28:	gs jb  0x409b7e
  409b2b:	gs jb  0x409ba4
  409b2e:	imul   esp,DWORD PTR [ebx+0x65],0x73490073
  409b35:	push   esi
  409b36:	outs   dx,DWORD PTR ds:[esi]
  409b37:	ins    BYTE PTR es:[edi],dx
  409b38:	popa   
  409b39:	je     0x409ba4
  409b3b:	ins    BYTE PTR es:[edi],dx
  409b3c:	add    BYTE PTR gs:[ebx+0x65],dh
  409b40:	jae    0x409bb5
  409b42:	imul   ebp,DWORD PTR [edi+0x6e],0x61747345
  409b49:	bound  ebp,QWORD PTR [ecx+ebp*2+0x73]
  409b4d:	push   0x64006465
  409b52:	imul   esi,DWORD PTR [ebx+0x70],0x6465736f
  409b59:	add    BYTE PTR [ebx+eax*2+0x4d],al
  409b5d:	gs jae 0x409bd3
  409b60:	popa   
  409b61:	addr16 gs push ebx
  409b64:	outs   dx,BYTE PTR gs:[esi]
  409b66:	fs gs jb 0x409b6a
  409b6a:	arpl   WORD PTR fs:[ebp+0x73],cx
  409b6e:	addr16 push ebx
  409b70:	outs   dx,BYTE PTR gs:[esi]
  409b72:	fs gs jb 0x409b76
  409b76:	push   ebx
  409b77:	gs jae 0x409bed
  409b7a:	imul   ebp,DWORD PTR [edi+0x6e],0x61747345
  409b81:	bound  ebp,QWORD PTR [ecx+ebp*2+0x73]
  409b85:	push   0x43006465
  409b8a:	outs   dx,DWORD PTR ds:[esi]
  409b8b:	outs   dx,BYTE PTR ds:[esi]
  409b8c:	je     0x409bf3
  409b8e:	js     0x409c04
  409b90:	inc    edx
  409b91:	popa   
  409b92:	jae    0x409bf9
  409b94:	add    BYTE PTR [edi+0x65],al
  409b97:	je     0x409bdc
  409b99:	outs   dx,DWORD PTR ds:[esi]
  409b9a:	outs   dx,BYTE PTR ds:[esi]
  409b9b:	je     0x409c02
  409b9d:	js     0x409c13
  409b9f:	add    BYTE PTR [ebx+0x74],dl
  409ba2:	popa   
  409ba3:	jb     0x409c19
  409ba5:	dec    edi
  409ba6:	jo     0x409c0d
  409ba8:	jb     0x409c0b
  409baa:	je     0x409c15
  409bac:	outs   dx,DWORD PTR ds:[esi]
  409bad:	outs   dx,BYTE PTR ds:[esi]
  409bae:	inc    ecx
  409baf:	jae    0x409c2a
  409bb1:	outs   dx,BYTE PTR ds:[esi]
  409bb2:	arpl   WORD PTR [eax],ax
  409bb4:	inc    ebx
  409bb5:	popa   
  409bb6:	outs   dx,BYTE PTR ds:[esi]
  409bb7:	arpl   WORD PTR [ebp+0x6c],sp
  409bba:	dec    edi
  409bbb:	jo     0x409c22
  409bbd:	jb     0x409c20
  409bbf:	je     0x409c2a
  409bc1:	outs   dx,DWORD PTR ds:[esi]
  409bc2:	outs   dx,BYTE PTR ds:[esi]
  409bc3:	add    BYTE PTR [edi+0x65],ah
  409bc6:	je     0x409c27
  409bc8:	dec    edi
  409bc9:	jo     0x409c30
  409bcb:	jb     0x409c2e
  409bcd:	je     0x409c38
  409bcf:	outs   dx,DWORD PTR ds:[esi]
  409bd0:	outs   dx,BYTE PTR ds:[esi]
  409bd1:	dec    ecx
  409bd2:	add    BYTE PTR fs:[ebx+0x65],dh
  409bd6:	je     0x409c37
  409bd8:	dec    edi
  409bd9:	jo     0x409c40
  409bdb:	jb     0x409c3e
  409bdd:	je     0x409c48
  409bdf:	outs   dx,DWORD PTR ds:[esi]
  409be0:	outs   dx,BYTE PTR ds:[esi]
  409be1:	dec    ecx
  409be2:	add    BYTE PTR fs:[ecx+eiz*2+0x73],ch
  409be7:	je     0x409c38
  409be9:	jo     0x409c50
  409beb:	jb     0x409c4e
  409bed:	je     0x409c58
  409bef:	outs   dx,DWORD PTR ds:[esi]
  409bf0:	outs   dx,BYTE PTR ds:[esi]
  409bf1:	dec    ecx
  409bf2:	add    BYTE PTR fs:[edi+ecx*2],bh
  409bf6:	jo     0x409c5d
  409bf8:	jb     0x409c5b
  409bfa:	je     0x409c65
  409bfc:	outs   dx,DWORD PTR ds:[esi]
  409bfd:	outs   dx,BYTE PTR ds:[esi]
  409bfe:	dec    ecx
  409bff:	fs imul ebx,DWORD PTR ds:[edi+0x5f],0x42
  409c05:	popa   
  409c06:	arpl   WORD PTR [ebx+0x69],bp
  409c09:	outs   dx,BYTE PTR ds:[esi]
  409c0a:	addr16 inc esi
  409c0c:	imul   esp,DWORD PTR [ebp+0x6c],0x704f0064
  409c13:	gs jb  0x409c77
  409c16:	je     0x409c81
  409c18:	outs   dx,DWORD PTR ds:[esi]
  409c19:	outs   dx,BYTE PTR ds:[esi]
  409c1a:	dec    ecx
  409c1b:	add    BYTE PTR fs:[ecx+0x6e],cl
  409c1f:	jbe    0x409c90
  409c21:	imul   esp,DWORD PTR [ebp+0x0],0x49
  409c25:	inc    ecx
  409c26:	jae    0x409ca1
  409c28:	outs   dx,BYTE PTR ds:[esi]
  409c29:	arpl   WORD PTR [edx+0x65],dx
  409c2c:	jae    0x409ca3
  409c2e:	ins    BYTE PTR es:[edi],dx
  409c2f:	je     0x409c31
  409c31:	inc    ecx
  409c32:	jae    0x409cad
  409c34:	outs   dx,BYTE PTR ds:[esi]
  409c35:	arpl   WORD PTR [ebx+0x61],ax
  409c38:	ins    BYTE PTR es:[edi],dx
  409c39:	ins    BYTE PTR es:[edi],dx
  409c3a:	bound  esp,QWORD PTR [ecx+0x63]
  409c3d:	imul   eax,DWORD PTR [eax],0x42
  409c40:	imul   ebp,DWORD PTR gs:[bp+0x49],0x6b6f766e
  409c49:	add    BYTE PTR gs:[ebp+0x6e],al
  409c4d:	fs dec ecx
  409c4f:	outs   dx,BYTE PTR ds:[esi]
  409c50:	jbe    0x409cc1
  409c52:	imul   esp,DWORD PTR [ebp+0x0],0x67
  409c56:	gs je  0x409cb8
  409c59:	inc    ebx
  409c5a:	gs jb  0x409cd1
  409c5d:	imul   esp,DWORD PTR [esi+0x69],0x65746163
  409c64:	inc    esi
  409c65:	imul   ebp,DWORD PTR [ebp+eiz*2+0x4e],0x656d61
  409c6d:	jae    0x409cd4
  409c6f:	je     0x409cd0
  409c71:	inc    ebx
  409c72:	gs jb  0x409ce9
  409c75:	imul   esp,DWORD PTR [esi+0x69],0x65746163
  409c7c:	inc    esi
  409c7d:	imul   ebp,DWORD PTR [ebp+eiz*2+0x4e],0x656d61
  409c85:	addr16 gs je 0x409ce8
  409c89:	push   edi
  409c8a:	outs   dx,DWORD PTR ds:[esi]
  409c8b:	jb     0x409cf8
  409c8d:	gs jb  0x409cd4
  409c90:	gs ins BYTE PTR es:[edi],dx
  409c92:	gs addr16 popa 
  409c95:	je     0x409cfc
  409c97:	add    BYTE PTR [ebx+0x65],dh
  409c9a:	je     0x409cfb
  409c9c:	push   edi
  409c9d:	outs   dx,DWORD PTR ds:[esi]
  409c9e:	jb     0x409d0b
  409ca0:	gs jb  0x409ce7
  409ca3:	gs ins BYTE PTR es:[edi],dx
  409ca5:	gs addr16 popa 
  409ca8:	je     0x409d0f
  409caa:	add    BYTE PTR [edi+0x65],ah
  409cad:	je     0x409d0e
  409caf:	inc    ebx
  409cb0:	popa   
  409cb1:	ins    BYTE PTR es:[edi],dx
  409cb2:	ins    BYTE PTR es:[edi],dx
  409cb3:	bound  esp,QWORD PTR [ecx+0x63]
  409cb6:	imul   eax,DWORD PTR [ebp+eiz*2+0x6c],0x65
  409cbb:	addr16 popa 
  409cbd:	je     0x409d24
  409cbf:	add    BYTE PTR [ebx+0x65],dh
  409cc2:	je     0x409d23
  409cc4:	inc    ebx
  409cc5:	popa   
  409cc6:	ins    BYTE PTR es:[edi],dx
  409cc7:	ins    BYTE PTR es:[edi],dx
  409cc8:	bound  esp,QWORD PTR [ecx+0x63]
  409ccb:	imul   eax,DWORD PTR [ebp+eiz*2+0x6c],0x65
  409cd0:	addr16 popa 
  409cd2:	je     0x409d39
  409cd4:	add    BYTE PTR [edi+0x65],ah
  409cd7:	je     0x409d38
  409cd9:	inc    ebx
  409cda:	popa   
  409cdb:	outs   dx,BYTE PTR ds:[esi]
  409cdc:	arpl   WORD PTR [ebp+0x6c],sp
  409cdf:	inc    esp
  409ce0:	gs ins BYTE PTR es:[edi],dx
  409ce2:	gs addr16 popa 
  409ce5:	je     0x409d4c
  409ce7:	add    BYTE PTR [ebx+0x65],dh
  409cea:	je     0x409d4b
  409cec:	inc    ebx
  409ced:	popa   
  409cee:	outs   dx,BYTE PTR ds:[esi]
  409cef:	arpl   WORD PTR [ebp+0x6c],sp
  409cf2:	inc    esp
  409cf3:	gs ins BYTE PTR es:[edi],dx
  409cf5:	gs addr16 popa 
  409cf8:	je     0x409d5f
  409cfa:	add    BYTE PTR [ebx+eax*2],bh
  409cfd:	gs jb  0x409d74
  409d00:	imul   esp,DWORD PTR [esi+0x69],0x65746163
  409d07:	inc    esi
  409d08:	imul   ebp,DWORD PTR [ebp+eiz*2+0x4e],0x3e656d61
  409d10:	imul   ebx,DWORD PTR [edi+0x5f],0x42
  409d14:	popa   
  409d15:	arpl   WORD PTR [ebx+0x69],bp
  409d18:	outs   dx,BYTE PTR ds:[esi]
  409d19:	addr16 inc esi
  409d1b:	imul   esp,DWORD PTR [ebp+0x6c],0x573c0064
  409d22:	outs   dx,DWORD PTR ds:[esi]
  409d23:	jb     0x409d90
  409d25:	gs jb  0x409d6c
  409d28:	gs ins BYTE PTR es:[edi],dx
  409d2a:	gs addr16 popa 
  409d2d:	je     0x409d94
  409d2f:	imul   ebx,DWORD PTR ds:[edi+0x5f],0x42
  409d34:	popa   
  409d35:	arpl   WORD PTR [ebx+0x69],bp
  409d38:	outs   dx,BYTE PTR ds:[esi]
  409d39:	addr16 inc esi
  409d3b:	imul   esp,DWORD PTR [ebp+0x6c],0x433c0064
  409d42:	popa   
  409d43:	ins    BYTE PTR es:[edi],dx
  409d44:	ins    BYTE PTR es:[edi],dx
  409d45:	bound  esp,QWORD PTR [ecx+0x63]
  409d48:	imul   eax,DWORD PTR [ebp+eiz*2+0x6c],0x65
  409d4d:	addr16 popa 
  409d4f:	je     0x409db6
  409d51:	imul   ebx,DWORD PTR ds:[edi+0x5f],0x42
  409d56:	popa   
  409d57:	arpl   WORD PTR [ebx+0x69],bp
  409d5a:	outs   dx,BYTE PTR ds:[esi]
  409d5b:	addr16 inc esi
  409d5d:	imul   esp,DWORD PTR [ebp+0x6c],0x433c0064
  409d64:	popa   
  409d65:	outs   dx,BYTE PTR ds:[esi]
  409d66:	arpl   WORD PTR [ebp+0x6c],sp
  409d69:	inc    esp
  409d6a:	gs ins BYTE PTR es:[edi],dx
  409d6c:	gs addr16 popa 
  409d6f:	je     0x409dd6
  409d71:	imul   ebx,DWORD PTR ds:[edi+0x5f],0x42
  409d76:	popa   
  409d77:	arpl   WORD PTR [ebx+0x69],bp
  409d7a:	outs   dx,BYTE PTR ds:[esi]
  409d7b:	addr16 inc esi
  409d7d:	imul   esp,DWORD PTR [ebp+0x6c],0x65430064
  409d84:	jb     0x409dfa
  409d86:	imul   esp,DWORD PTR [esi+0x69],0x65746163
  409d8d:	inc    esi
  409d8e:	imul   ebp,DWORD PTR [ebp+eiz*2+0x4e],0x656d61
  409d96:	push   edi
  409d97:	outs   dx,DWORD PTR ds:[esi]
  409d98:	jb     0x409e05
  409d9a:	gs jb  0x409de1
  409d9d:	gs ins BYTE PTR es:[edi],dx
  409d9f:	gs addr16 popa 
  409da2:	je     0x409e09
  409da4:	add    BYTE PTR [ebx+0x61],al
  409da7:	ins    BYTE PTR es:[edi],dx
  409da8:	ins    BYTE PTR es:[edi],dx
  409da9:	bound  esp,QWORD PTR [ecx+0x63]
  409dac:	imul   eax,DWORD PTR [ebp+eiz*2+0x6c],0x65
  409db1:	addr16 popa 
  409db3:	je     0x409e1a
  409db5:	add    BYTE PTR [ebx+0x61],al
  409db8:	outs   dx,BYTE PTR ds:[esi]
  409db9:	arpl   WORD PTR [ebp+0x6c],sp
  409dbc:	inc    esp
  409dbd:	gs ins BYTE PTR es:[edi],dx
  409dbf:	gs addr16 popa 
  409dc2:	je     0x409e29
  409dc4:	add    BYTE PTR [edi+0x65],ah
  409dc7:	je     0x409e28
  409dc9:	dec    ecx
  409dca:	outs   dx,BYTE PTR ds:[esi]
  409dcb:	jae    0x409e41
  409dcd:	popa   
  409dce:	outs   dx,BYTE PTR ds:[esi]
  409dcf:	arpl   WORD PTR [ebp+0x0],sp
  409dd2:	inc    ebx
  409dd3:	gs jb  0x409e4a
  409dd6:	dec    ecx
  409dd7:	outs   dx,BYTE PTR ds:[esi]
  409dd8:	jae    0x409e4e
  409dda:	popa   
  409ddb:	ins    BYTE PTR es:[edi],dx
  409ddc:	ins    BYTE PTR es:[edi],dx
  409ddd:	inc    ecx
  409dde:	jae    0x409e59
  409de0:	outs   dx,BYTE PTR ds:[esi]
  409de1:	arpl   WORD PTR [eax],ax
  409de3:	inc    ecx
  409de4:	arpl   WORD PTR [ecx+0x75],si
  409de7:	imul   esi,DWORD PTR [edx+0x65],0x4c766544
  409dee:	imul   esp,DWORD PTR [ebx+0x65],0x4165736e
  409df5:	jae    0x409e70
  409df7:	outs   dx,BYTE PTR ds:[esi]
  409df8:	arpl   WORD PTR [eax],ax
  409dfa:	inc    ebx
  409dfb:	popa   
  409dfc:	outs   dx,BYTE PTR ds:[esi]
  409dfd:	arpl   WORD PTR [ebp+0x6c],sp
  409e00:	inc    ecx
  409e01:	jae    0x409e7c
  409e03:	outs   dx,BYTE PTR ds:[esi]
  409e04:	arpl   WORD PTR [edi+0x70],cx
  409e07:	gs jb  0x409e6b
  409e0a:	je     0x409e75
  409e0c:	outs   dx,DWORD PTR ds:[esi]
  409e0d:	outs   dx,BYTE PTR ds:[esi]
  409e0e:	add    BYTE PTR [esi+0x69],al
  409e11:	outs   dx,BYTE PTR ds:[esi]
  409e12:	fs dec edi
  409e14:	jo     0x409e7b
  409e16:	jb     0x409e79
  409e18:	je     0x409e83
  409e1a:	outs   dx,DWORD PTR ds:[esi]
  409e1b:	outs   dx,BYTE PTR ds:[esi]
  409e1c:	add    BYTE PTR [ecx+0x64],al
  409e1f:	fs dec edi
  409e21:	jo     0x409e88
  409e23:	jb     0x409e86
  409e25:	je     0x409e90
  409e27:	outs   dx,DWORD PTR ds:[esi]
  409e28:	outs   dx,BYTE PTR ds:[esi]
  409e29:	add    BYTE PTR [ebp+eiz*2+0x6c],al
  409e2d:	gs je  0x409e95
  409e30:	dec    edi
  409e31:	jo     0x409e98
  409e33:	jb     0x409e96
  409e35:	je     0x409ea0
  409e37:	outs   dx,DWORD PTR ds:[esi]
  409e38:	outs   dx,BYTE PTR ds:[esi]
  409e39:	add    BYTE PTR [ebp+0x5f],ch
  409e3c:	imul   ebp,DWORD PTR [esi+0x73],0x636e6174
  409e43:	add    BYTE PTR gs:[ebx+0x79],dl
  409e47:	jae    0x409ebd
  409e49:	gs ins DWORD PTR es:[edi],dx
  409e4b:	cs inc ebx
  409e4d:	outs   dx,DWORD PTR ds:[esi]
  409e4e:	ins    BYTE PTR es:[edi],dx
  409e4f:	ins    BYTE PTR es:[edi],dx
  409e50:	arpl   WORD PTR gs:[ecx+ebp*2+0x6f],si
  409e55:	outs   dx,BYTE PTR ds:[esi]
  409e56:	jae    0x409e86
  409e58:	inc    edi
  409e59:	outs   dx,BYTE PTR gs:[esi]
  409e5b:	gs jb  0x409ec7
  409e5e:	arpl   WORD PTR [eax],ax
  409e60:	inc    esp
  409e61:	imul   esp,DWORD PTR [ebx+0x74],0x616e6f69
  409e68:	jb     0x409ee3
  409e6a:	pusha  
  409e6b:	xor    al,BYTE PTR [eax]
  409e6d:	outs   dx,DWORD PTR ds:[esi]
  409e6e:	jo     0x409ed5
  409e70:	jb     0x409ed3
  409e72:	je     0x409edd
  409e74:	outs   dx,DWORD PTR ds:[esi]
  409e75:	outs   dx,BYTE PTR ds:[esi]
  409e76:	jae    0x409e78
  409e78:	ins    BYTE PTR es:[edi],dx
  409e79:	outs   dx,DWORD PTR ds:[esi]
  409e7a:	arpl   WORD PTR [ebx+0x4f],bp
  409e7d:	bound  ebp,QWORD PTR [edx+0x65]
  409e80:	arpl   WORD PTR [eax+eax*1+0x49],si
  409e84:	outs   dx,BYTE PTR ds:[esi]
  409e85:	jae    0x409efb
  409e87:	popa   
  409e88:	outs   dx,BYTE PTR ds:[esi]
  409e89:	arpl   WORD PTR [ebp+0x0],sp
  409e8c:	push   edx
  409e8d:	push   esp
  409e8e:	push   edx
  409e8f:	dec    ebp
  409e90:	outs   dx,DWORD PTR ds:[esi]
  409e91:	fs add BYTE PTR gs:[ecx+0x6e],cl
  409e96:	je     0x409efd
  409e98:	jb     0x409f08
  409e9a:	popa   
  409e9b:	ins    BYTE PTR es:[edi],dx
  409e9c:	push   ebx
  409e9d:	je     0x409f00
  409e9f:	jb     0x409f15
  409ea1:	add    BYTE PTR [ecx+0x6e],cl
  409ea4:	je     0x409f0b
  409ea6:	jb     0x409f16
  409ea8:	popa   
  409ea9:	ins    BYTE PTR es:[edi],dx
  409eaa:	push   ebx
  409eab:	je     0x409f1c
  409ead:	jo     0x409eaf
  409eaf:	inc    ebx
  409eb0:	jb     0x409f17
  409eb2:	popa   
  409eb3:	je     0x409f1a
  409eb5:	push   ebx
  409eb6:	gs jb  0x409f2f
  409eb9:	imul   esp,DWORD PTR [ebx+0x65],0x74736f48
  409ec0:	add    BYTE PTR [edi+0x6e],cl
  409ec3:	dec    eax
  409ec4:	outs   dx,DWORD PTR ds:[esi]
  409ec5:	jae    0x409f3b
  409ec7:	inc    esi
  409ec8:	popa   
  409ec9:	jne    0x409f37
  409ecb:	je     0x409ecd
  409ecd:	push   edx
  409ece:	gs jae 0x409f45
  409ed1:	popa   
  409ed2:	jb     0x409f48
  409ed4:	dec    eax
  409ed5:	outs   dx,DWORD PTR ds:[esi]
  409ed6:	jae    0x409f4c
  409ed8:	push   esp
  409ed9:	push   0x64616572
  409ede:	add    BYTE PTR [ebx+0x79],dl
  409ee1:	jae    0x409f57
  409ee3:	gs ins DWORD PTR es:[edi],dx
  409ee5:	cs push ebx
  409ee7:	gs jb  0x409f60
  409eea:	imul   esp,DWORD PTR [ebx+0x65],0x65646f4d
  409ef1:	ins    BYTE PTR es:[edi],dx
  409ef2:	add    BYTE PTR [ebx+0x65],dl
  409ef5:	jb     0x409f6d
  409ef7:	imul   esp,DWORD PTR [ebx+0x65],0x74736f48
  409efe:	add    BYTE PTR [ebx+0x6f],ah
  409f01:	ins    BYTE PTR es:[edi],dx
  409f02:	ins    BYTE PTR es:[edi],dx
  409f03:	arpl   WORD PTR gs:[edi+ebp*2+0x72],si
  409f08:	push   ebx
  409f09:	gs jb  0x409f82
  409f0c:	imul   esp,DWORD PTR [ebx+0x65],0x74736f48
  409f13:	add    BYTE PTR [ebx+0x79],dl
  409f16:	jae    0x409f8c
  409f18:	gs ins DWORD PTR es:[edi],dx
  409f1a:	cs push esp
  409f1c:	push   0x64616572
  409f21:	imul   ebp,DWORD PTR [esi+0x67],0x6e614d00
  409f28:	jne    0x409f8b
  409f2a:	ins    BYTE PTR es:[edi],dx
  409f2b:	push   edx
  409f2c:	gs jae 0x409f94
  409f2f:	je     0x409f76
  409f31:	jbe    0x409f98
  409f33:	outs   dx,BYTE PTR ds:[esi]
  409f34:	je     0x409f36
  409f36:	jb     0x409f9d
  409f38:	jae    0x409fae
  409f3a:	popa   
  409f3b:	jb     0x409fb1
  409f3d:	dec    eax
  409f3e:	outs   dx,DWORD PTR ds:[esi]
  409f3f:	jae    0x409fb5
  409f41:	push   esp
  409f42:	push   0x64616572
  409f47:	inc    ebp
  409f48:	js     0x409fb3
  409f4a:	je     0x409f91
  409f4c:	jbe    0x409fb3
  409f4e:	outs   dx,BYTE PTR ds:[esi]
  409f4f:	je     0x409f51
  409f51:	push   0x5074736f
  409f56:	outs   dx,DWORD PTR ds:[esi]
  409f57:	jb     0x409fcd
  409f59:	add    BYTE PTR [ebp+0x6f],ch
  409f5c:	fs add BYTE PTR gs:[eax+0x6f],ch
  409f61:	jae    0x409fd7
  409f63:	dec    edi
  409f64:	bound  ebp,QWORD PTR [edx+0x65]
  409f67:	arpl   WORD PTR [eax+eax*1+0x6d],si
  409f6b:	pop    edi
  409f6c:	fs gs popaw 
  409f70:	jne    0x409fde
  409f72:	je     0x409fbd
  409f74:	outs   dx,BYTE PTR ds:[esi]
  409f75:	popa   
  409f76:	arpl   WORD PTR [ecx+ebp*2+0x76],si
  409f7a:	imul   esi,DWORD PTR [ecx+edi*2+0x54],0x6f656d69
  409f82:	jne    0x409ff8
  409f84:	dec    ecx
  409f85:	outs   dx,BYTE PTR ds:[esi]
  409f86:	dec    ebp
  409f87:	imul   ebp,DWORD PTR [esi+0x75],0x736574
  409f8e:	dec    ebp
  409f8f:	push   esp
  409f90:	push   esp
  409f91:	inc    ecx
  409f92:	inc    ebx
  409f93:	outs   dx,DWORD PTR ds:[esi]
  409f94:	outs   dx,BYTE PTR ds:[esi]
  409f95:	imul   sp,WORD PTR [edi+0x41],0x7070
  409f9b:	dec    ecx
  409f9c:	add    BYTE PTR fs:[eax+0x6f],cl
  409fa0:	jae    0x40a016
  409fa2:	inc    ebx
  409fa3:	outs   dx,DWORD PTR ds:[esi]
  409fa4:	outs   dx,BYTE PTR ds:[esi]
  409fa5:	outs   dx,BYTE PTR ds:[esi]
  409fa6:	arpl   WORD PTR gs:[ecx+ebp*2+0x6f],si
  409fab:	outs   dx,BYTE PTR ds:[esi]
  409fac:	push   eax
  409fad:	popa   
  409fae:	jb     0x40a011
  409fb0:	ins    DWORD PTR es:[edi],dx
  409fb1:	gs je  0x40a019
  409fb4:	jb     0x40a029
  409fb6:	add    BYTE PTR [edi+0x70],cl
  409fb9:	outs   dx,BYTE PTR gs:[esi]
  409fbb:	dec    eax
  409fbc:	outs   dx,DWORD PTR ds:[esi]
  409fbd:	jae    0x40a033
  409fbf:	inc    ebx
  409fc0:	outs   dx,DWORD PTR ds:[esi]
  409fc1:	outs   dx,BYTE PTR ds:[esi]
  409fc2:	outs   dx,BYTE PTR ds:[esi]
  409fc3:	arpl   WORD PTR gs:[ecx+ebp*2+0x6f],si
  409fc8:	outs   dx,BYTE PTR ds:[esi]
  409fc9:	add    BYTE PTR [ebp+eiz*2+0x73],dl
  409fcd:	je     0x40a012
  409fcf:	outs   dx,DWORD PTR ds:[esi]
  409fd0:	outs   dx,BYTE PTR ds:[esi]
  409fd1:	outs   dx,BYTE PTR ds:[esi]
  409fd2:	arpl   WORD PTR gs:[ecx+ebp*2+0x6f],si
  409fd7:	outs   dx,BYTE PTR ds:[esi]
  409fd8:	add    BYTE PTR [edx+0x61],dl
  409fdb:	imul   esi,DWORD PTR [ebx+0x65],0x6e657645
  409fe2:	je     0x40a038
  409fe4:	outs   dx,DWORD PTR ds:[esi]
  409fe5:	inc    ebx
  409fe6:	outs   dx,DWORD PTR ds:[esi]
  409fe7:	ins    BYTE PTR es:[edi],dx
  409fe8:	ins    BYTE PTR es:[edi],dx
  409fe9:	arpl   WORD PTR gs:[edi+ebp*2+0x72],si
  409fee:	jae    0x409ff0
  409ff0:	push   edx
  409ff1:	popa   
  409ff2:	imul   esi,DWORD PTR [ebx+0x65],0x6e657645
  409ff9:	je     0x40a04f
  409ffb:	outs   dx,DWORD PTR ds:[esi]
  409ffc:	inc    ebx
  409ffd:	outs   dx,DWORD PTR ds:[esi]
  409ffe:	ins    BYTE PTR es:[edi],dx
  409fff:	ins    BYTE PTR es:[edi],dx
  40a000:	arpl   WORD PTR gs:[edi+ebp*2+0x72],si
  40a005:	jae    0x40a05a
  40a007:	gs ins BYTE PTR es:[edi],dx
  40a009:	arpl   WORD PTR gs:[ecx+ebp*2+0x76],si
  40a00e:	gs ins BYTE PTR es:[edi],dx
  40a010:	jns    0x40a012
  40a012:	dec    ecx
  40a013:	outs   dx,BYTE PTR ds:[esi]
  40a014:	imul   esi,DWORD PTR [ecx+ebp*2+0x61],0x657a696c
  40a01c:	inc    esp
  40a01d:	gs jo  0x40a08c
  40a020:	outs   dx,DWORD PTR ds:[esi]
  40a021:	jns    0x40a076
  40a023:	gs jae 0x40a099
  40a026:	imul   ebp,DWORD PTR [edi+0x6e],0x65724300
  40a02d:	popa   
  40a02e:	je     0x40a095
  40a030:	dec    esi
  40a031:	gs ja  0x40a07a
  40a034:	imul   ebp,DWORD PTR [ebp+eiz*2+0x0],0x43646441
  40a03c:	outs   dx,DWORD PTR ds:[esi]
  40a03d:	outs   dx,BYTE PTR ds:[esi]
  40a03e:	je     0x40a0a5
  40a040:	outs   dx,BYTE PTR ds:[esi]
  40a041:	je     0x40a0b6
  40a043:	push   esp
  40a044:	outs   dx,DWORD PTR ds:[esi]
  40a045:	inc    esi
  40a046:	imul   ebp,DWORD PTR [ebp+eiz*2+0x0],0x736f6c43
  40a04e:	gs inc esi
  40a050:	imul   ebp,DWORD PTR [ebp+eiz*2+0x0],0x74736e49
  40a058:	popa   
  40a059:	ins    BYTE PTR es:[edi],dx
  40a05a:	ins    BYTE PTR es:[edi],dx
  40a05b:	inc    ecx
  40a05c:	jo     0x40a0ce
  40a05e:	js     0x40a0b0
  40a060:	popa   
  40a061:	arpl   WORD PTR [ebx+0x61],bp
  40a064:	add    BYTE PTR gs:[bx+di+0x73],cl
  40a069:	push   esp
  40a06a:	gs jae 0x40a0e1
  40a06d:	inc    ebx
  40a06e:	gs jb  0x40a0e5
  40a071:	imul   esp,DWORD PTR [esi+0x69],0x65746163
  40a078:	dec    ecx
  40a079:	outs   dx,BYTE PTR ds:[esi]
  40a07a:	jae    0x40a0f0
  40a07c:	popa   
  40a07d:	ins    BYTE PTR es:[edi],dx
  40a07e:	ins    BYTE PTR es:[edi],dx
  40a07f:	gs add BYTE PTR fs:[ecx+0x6e],cl
  40a084:	jae    0x40a0fa
  40a086:	popa   
  40a087:	ins    BYTE PTR es:[edi],dx
  40a088:	ins    BYTE PTR es:[edi],dx
  40a089:	push   esp
  40a08a:	gs jae 0x40a101
  40a08d:	inc    ebx
  40a08e:	gs jb  0x40a105
  40a091:	imul   esp,DWORD PTR [esi+0x69],0x65746163
  40a098:	inc    ecx
  40a099:	jae    0x40a114
  40a09b:	outs   dx,BYTE PTR ds:[esi]
  40a09c:	arpl   WORD PTR [eax],ax
  40a09e:	dec    ecx
  40a09f:	jae    0x40a0e5
  40a0a1:	gs jbe 0x40a109
  40a0a4:	ins    BYTE PTR es:[edi],dx
  40a0a5:	outs   dx,DWORD PTR ds:[esi]
  40a0a6:	jo     0x40a10d
  40a0a8:	jb     0x40a0f6
  40a0aa:	imul   esp,DWORD PTR [ebx+0x65],0x4965736e
  40a0b1:	outs   dx,BYTE PTR ds:[esi]
  40a0b2:	jae    0x40a128
  40a0b4:	popa   
  40a0b5:	ins    BYTE PTR es:[edi],dx
  40a0b6:	ins    BYTE PTR es:[edi],dx
  40a0b7:	gs add BYTE PTR fs:[ecx+0x6e],cl
  40a0bc:	jae    0x40a132
  40a0be:	popa   
  40a0bf:	ins    BYTE PTR es:[edi],dx
  40a0c0:	ins    BYTE PTR es:[edi],dx
  40a0c1:	inc    esp
  40a0c2:	gs jbe 0x40a12a
  40a0c5:	ins    BYTE PTR es:[edi],dx
  40a0c6:	outs   dx,DWORD PTR ds:[esi]
  40a0c7:	jo     0x40a12e
  40a0c9:	jb     0x40a117
  40a0cb:	imul   esp,DWORD PTR [ebx+0x65],0x4165736e
  40a0d2:	jae    0x40a14d
  40a0d4:	outs   dx,BYTE PTR ds:[esi]
  40a0d5:	arpl   WORD PTR [eax],ax
  40a0d7:	inc    ebx
  40a0d8:	ins    BYTE PTR es:[edi],dx
  40a0d9:	outs   dx,DWORD PTR ds:[esi]
  40a0da:	jae    0x40a141
  40a0dc:	inc    esp
  40a0dd:	gs jo  0x40a14c
  40a0e0:	outs   dx,DWORD PTR ds:[esi]
  40a0e1:	jns    0x40a136
  40a0e3:	gs jae 0x40a159
  40a0e6:	imul   ebp,DWORD PTR [edi+0x6e],0x466e4f00
  40a0ed:	popa   
  40a0ee:	jne    0x40a15c
  40a0f0:	je     0x40a0f2
  40a0f2:	push   ebx
  40a0f3:	jns    0x40a168
  40a0f5:	je     0x40a15c
  40a0f7:	ins    DWORD PTR es:[edi],dx
  40a0f8:	cs push esp
  40a0fa:	imul   ebp,DWORD PTR [ebp+0x65],0x45007372
  40a101:	ins    BYTE PTR es:[edi],dx
  40a102:	popa   
  40a103:	jo     0x40a178
  40a105:	gs fs inc ebp
  40a108:	jbe    0x40a16f
  40a10a:	outs   dx,BYTE PTR ds:[esi]
  40a10b:	je     0x40a14e
  40a10d:	jb     0x40a176
  40a10f:	jae    0x40a111
  40a111:	dec    edi
  40a112:	outs   dx,BYTE PTR ds:[esi]
  40a113:	dec    ecx
  40a114:	outs   dx,BYTE PTR ds:[esi]
  40a115:	popa   
  40a116:	arpl   WORD PTR [ecx+ebp*2+0x76],si
  40a11a:	imul   esi,DWORD PTR [ecx+edi*2+0x54],0x6f656d69
  40a122:	jne    0x40a198
  40a124:	add    BYTE PTR [ebx+0x74],dl
  40a127:	popa   
  40a128:	jb     0x40a19e
  40a12a:	dec    ecx
  40a12b:	outs   dx,BYTE PTR ds:[esi]
  40a12c:	popa   
  40a12d:	arpl   WORD PTR [ecx+ebp*2+0x76],si
  40a131:	imul   esi,DWORD PTR [ecx+edi*2+0x54],0x72656d69
  40a139:	add    BYTE PTR [ecx+0x44],cl
  40a13c:	inc    ebx
  40a13d:	inc    ebx
  40a13e:	push   0x656e6e61
  40a143:	ins    BYTE PTR es:[edi],dx
  40a144:	push   esp
  40a145:	outs   dx,DWORD PTR ds:[esi]
  40a146:	inc    ebx
  40a147:	ins    BYTE PTR es:[edi],dx
  40a148:	imul   esp,DWORD PTR [ebp+0x6e],0x61530074
  40a14f:	jbe    0x40a1b6
  40a151:	dec    esi
  40a152:	gs ja  0x40a198
  40a155:	popa   
  40a156:	ins    BYTE PTR es:[edi],dx
  40a157:	ins    BYTE PTR es:[edi],dx
  40a158:	bound  esp,QWORD PTR [ecx+0x63]
  40a15b:	imul   eax,DWORD PTR [eax],0x44
  40a15e:	imul   esi,DWORD PTR [ebx+0x63],0x45647261
  40a165:	js     0x40a1d0
  40a167:	jae    0x40a1dd
  40a169:	imul   ebp,DWORD PTR [esi+0x67],0x6c6c6143
  40a170:	bound  esp,QWORD PTR [ecx+0x63]
  40a173:	imul   eax,DWORD PTR [eax],0x53
  40a176:	push   0x6f647475
  40a17b:	ja     0x40a1eb
  40a17d:	push   edx
  40a17e:	push   esp
  40a17f:	push   edx
  40a180:	add    BYTE PTR [ecx+0x73],cl
  40a183:	push   ebx
  40a184:	gs jae 0x40a1fa
  40a187:	imul   ebp,DWORD PTR [edi+0x6e],0x72506e49
  40a18e:	outs   dx,DWORD PTR ds:[esi]
  40a18f:	addr16 jb 0x40a1f7
  40a192:	jae    0x40a207
  40a194:	add    BYTE PTR [edi+0x61],dl
  40a197:	imul   esi,DWORD PTR [esi+eax*2+0x6f],0x72655372
  40a19f:	jbe    0x40a20a
  40a1a1:	arpl   WORD PTR [ebp+0x48],sp
  40a1a4:	outs   dx,DWORD PTR ds:[esi]
  40a1a5:	jae    0x40a21b
  40a1a7:	push   ebx
  40a1a8:	je     0x40a20b
  40a1aa:	jb     0x40a220
  40a1ac:	add    BYTE PTR [edi+0x65],ah
  40a1af:	je     0x40a210
  40a1b1:	fs gs jo 0x40a221
  40a1b5:	outs   dx,DWORD PTR ds:[esi]
  40a1b6:	jns    0x40a1f9
  40a1b8:	jo     0x40a22a
  40a1ba:	js     0x40a204
  40a1bc:	outs   dx,DWORD PTR ds:[esi]
  40a1bd:	jae    0x40a233
  40a1bf:	add    BYTE PTR [ebx+0x65],dh
  40a1c2:	je     0x40a223
  40a1c4:	fs gs jo 0x40a234
  40a1c8:	outs   dx,DWORD PTR ds:[esi]
  40a1c9:	jns    0x40a20c
  40a1cb:	jo     0x40a23d
  40a1cd:	js     0x40a217
  40a1cf:	outs   dx,DWORD PTR ds:[esi]
  40a1d0:	jae    0x40a246
  40a1d2:	add    BYTE PTR [ebx+0x68],dl
  40a1d5:	outs   dx,DWORD PTR ds:[esi]
  40a1d6:	ja     0x40a22c
  40a1d8:	outs   dx,DWORD PTR ds:[esi]
  40a1d9:	popa   
  40a1da:	jae    0x40a250
  40a1dc:	dec    esi
  40a1dd:	outs   dx,DWORD PTR ds:[esi]
  40a1de:	je     0x40a249
  40a1e0:	imul   sp,WORD PTR [ebx+0x61],0x6974
  40a1e6:	outs   dx,DWORD PTR ds:[esi]
  40a1e7:	outs   dx,BYTE PTR ds:[esi]
  40a1e8:	inc    esi
  40a1e9:	outs   dx,DWORD PTR ds:[esi]
  40a1ea:	jb     0x40a240
  40a1ec:	push   0x65537369
  40a1f1:	jae    0x40a266
  40a1f3:	imul   ebp,DWORD PTR [edi+0x6e],0x4d636400
  40a1fa:	popa   
  40a1fb:	outs   dx,BYTE PTR ds:[esi]
  40a1fc:	popa   
  40a1fd:	addr16 gs jb 0x40a201
  40a201:	arpl   WORD PTR [ecx+0x6c],sp
  40a204:	ins    BYTE PTR es:[edi],dx
  40a205:	inc    edx
  40a206:	popa   
  40a207:	arpl   WORD PTR [ebx+0x0],bp
  40a20a:	arpl   WORD PTR [ecx+0x6c],sp
  40a20d:	ins    BYTE PTR es:[edi],dx
  40a20e:	bound  esp,QWORD PTR [ecx+0x63]
  40a211:	imul   ecx,DWORD PTR [edi+ebp*2+0x63],0x6b
  40a216:	add    BYTE PTR [ebx+0x65],dl
  40a219:	jae    0x40a28e
  40a21b:	imul   ebp,DWORD PTR [edi+0x6e],0x43646e41
  40a222:	outs   dx,DWORD PTR ds:[esi]
  40a223:	outs   dx,BYTE PTR ds:[esi]
  40a224:	outs   dx,BYTE PTR ds:[esi]
  40a225:	arpl   WORD PTR gs:[ecx+ebp*2+0x6f],si
  40a22a:	outs   dx,BYTE PTR ds:[esi]
  40a22b:	dec    esp
  40a22c:	outs   dx,DWORD PTR ds:[esi]
  40a22d:	arpl   WORD PTR [ebx+0x0],bp
  40a230:	inc    esp
  40a231:	inc    ebx
  40a232:	push   ebx
  40a233:	gs jb  0x40a29f
  40a236:	popa   
  40a237:	ins    BYTE PTR es:[edi],dx
  40a238:	imul   edi,DWORD PTR [edx+0x65],0x63640072
  40a23f:	push   ebx
  40a240:	gs jb  0x40a2ac
  40a243:	popa   
  40a244:	ins    BYTE PTR es:[edi],dx
  40a245:	imul   edi,DWORD PTR [edx+0x65],0x79530072
  40a24c:	jae    0x40a2c2
  40a24e:	gs ins DWORD PTR es:[edi],dx
  40a250:	cs push ebx
  40a252:	arpl   WORD PTR gs:[ebp+0x72],si
  40a256:	imul   esi,DWORD PTR [ecx+edi*2+0x2e],0x6e697250
  40a25e:	arpl   WORD PTR [ecx+0x70],bp
  40a261:	popa   
  40a262:	ins    BYTE PTR es:[edi],dx
  40a263:	add    BYTE PTR [edi+0x69],dl
  40a266:	outs   dx,BYTE PTR ds:[esi]
  40a267:	outs   dx,DWORD PTR fs:[esi]
  40a269:	ja     0x40a2de
  40a26b:	dec    ecx
  40a26c:	fs outs dx,BYTE PTR gs:[esi]
  40a26f:	je     0x40a2da
  40a271:	je     0x40a2ec
  40a273:	add    BYTE PTR [ebx+0x65],dh
  40a276:	jb     0x40a2ee
  40a278:	imul   esp,DWORD PTR [ebx+0x65],0x6e656449
  40a27f:	je     0x40a2ea
  40a281:	je     0x40a2fc
  40a283:	add    BYTE PTR [ebx+0x65],dl
  40a286:	arpl   WORD PTR [ebp+0x72],si
  40a289:	imul   esi,DWORD PTR [ecx+edi*2+0x4d],0x67616e61
  40a291:	gs jb  0x40a294
  40a294:	jae    0x40a2fb
  40a296:	arpl   WORD PTR [ebp+0x72],si
  40a299:	imul   esi,DWORD PTR [ecx+edi*2+0x4d],0x67616e61
  40a2a1:	gs jb  0x40a2a4
  40a2a4:	dec    ebp
  40a2a5:	imul   esp,DWORD PTR [ebx+0x72],0x666f736f
  40a2ac:	je     0x40a2dc
  40a2ae:	push   esi
  40a2af:	imul   esi,DWORD PTR [ebx+0x75],0x74536c61
  40a2b6:	jne    0x40a31c
  40a2b8:	imul   ebp,DWORD PTR [edi+0x2e],0x6c617551
  40a2bf:	imul   esi,DWORD PTR [ecx+edi*2+0x54],0x736c6f6f
  40a2c7:	cs push ebp
  40a2c9:	je     0x40a334
  40a2cb:	ins    BYTE PTR es:[edi],dx
  40a2cc:	imul   esi,DWORD PTR [ecx+ebp*2+0x65],0x6f540073
  40a2d4:	popa   
  40a2d5:	jae    0x40a34b
  40a2d7:	dec    esi
  40a2d8:	outs   dx,DWORD PTR ds:[esi]
  40a2d9:	je     0x40a344
  40a2db:	imul   sp,WORD PTR [ebx+0x61],0x6974
  40a2e1:	outs   dx,DWORD PTR ds:[esi]
  40a2e2:	outs   dx,BYTE PTR ds:[esi]
  40a2e3:	dec    eax
  40a2e4:	gs ins BYTE PTR es:[edi],dx
  40a2e6:	jo     0x40a34d
  40a2e8:	jb     0x40a2ea
  40a2ea:	je     0x40a35b
  40a2ec:	popa   
  40a2ed:	jae    0x40a363
  40a2ef:	dec    esi
  40a2f0:	outs   dx,DWORD PTR ds:[esi]
  40a2f1:	je     0x40a35c
  40a2f3:	imul   sp,WORD PTR [ebp+0x72],0x5400
  40a2f9:	imul   ebp,DWORD PTR [ebp+0x65],0x5f6d0072
  40a300:	imul   ebp,DWORD PTR [esi+0x61],0x76697463
  40a307:	imul   esi,DWORD PTR [ecx+edi*2+0x54],0x72656d69
  40a30f:	add    BYTE PTR [ecx+ebp*2+0x6d],dl
  40a313:	gs push ebx
  40a315:	jo     0x40a378
  40a317:	outs   dx,BYTE PTR ds:[esi]
  40a318:	add    BYTE PTR [ebp+0x5f],ch
  40a31b:	imul   ebp,DWORD PTR [esi+0x61],0x76697463
  40a322:	imul   esi,DWORD PTR [ecx+edi*2+0x54],0x6f656d69
  40a32a:	jne    0x40a3a0
  40a32c:	add    BYTE PTR [ebx+0x65],dl
  40a32f:	jb     0x40a3a7
  40a331:	imul   esp,DWORD PTR [ebx+0x65],0x74736f48
  40a338:	push   ebx
  40a339:	je     0x40a39c
  40a33b:	jb     0x40a3b1
  40a33d:	gs fs inc ebp
  40a340:	jbe    0x40a3a7
  40a342:	outs   dx,BYTE PTR ds:[esi]
  40a343:	je     0x40a345
  40a345:	jae    0x40a3af
  40a347:	outs   dx,DWORD PTR ds:[esi]
  40a348:	ja     0x40a39e
  40a34a:	outs   dx,DWORD PTR ds:[esi]
  40a34b:	popa   
  40a34c:	jae    0x40a3c2
  40a34e:	dec    esi
  40a34f:	outs   dx,DWORD PTR ds:[esi]
  40a350:	je     0x40a3bb
  40a352:	imul   sp,WORD PTR [ebx+0x61],0x6974
  40a358:	outs   dx,DWORD PTR ds:[esi]
  40a359:	outs   dx,BYTE PTR ds:[esi]
  40a35a:	add    BYTE PTR [edi+0x65],ah
  40a35d:	je     0x40a3be
  40a35f:	dec    eax
  40a360:	outs   dx,DWORD PTR ds:[esi]
  40a361:	jae    0x40a3d7
  40a363:	inc    ebx
  40a364:	outs   dx,DWORD PTR ds:[esi]
  40a365:	outs   dx,BYTE PTR ds:[esi]
  40a366:	outs   dx,BYTE PTR ds:[esi]
  40a367:	arpl   WORD PTR gs:[ecx+ebp*2+0x6f],si
  40a36c:	outs   dx,BYTE PTR ds:[esi]
  40a36d:	push   eax
  40a36e:	popa   
  40a36f:	jb     0x40a3d2
  40a371:	ins    DWORD PTR es:[edi],dx
  40a372:	gs je  0x40a3da
  40a375:	jb     0x40a3ea
  40a377:	add    BYTE PTR [ebx+0x65],dh
  40a37a:	je     0x40a3db
  40a37c:	dec    eax
  40a37d:	outs   dx,DWORD PTR ds:[esi]
  40a37e:	jae    0x40a3f4
  40a380:	inc    ebx
  40a381:	outs   dx,DWORD PTR ds:[esi]
  40a382:	outs   dx,BYTE PTR ds:[esi]
  40a383:	outs   dx,BYTE PTR ds:[esi]
  40a384:	arpl   WORD PTR gs:[ecx+ebp*2+0x6f],si
  40a389:	outs   dx,BYTE PTR ds:[esi]
  40a38a:	push   eax
  40a38b:	popa   
  40a38c:	jb     0x40a3ef
  40a38e:	ins    DWORD PTR es:[edi],dx
  40a38f:	gs je  0x40a3f7
  40a392:	jb     0x40a407
  40a394:	add    BYTE PTR [esp+eiz*2],bh
  40a397:	gs jo  0x40a406
  40a39a:	outs   dx,DWORD PTR ds:[esi]
  40a39b:	jns    0x40a3de
  40a39d:	jo     0x40a40f
  40a39f:	js     0x40a3e9
  40a3a1:	outs   dx,DWORD PTR ds:[esi]
  40a3a2:	jae    0x40a418
  40a3a4:	imul   ebx,DWORD PTR ds:[edi+0x5f],0x42
  40a3a9:	popa   
  40a3aa:	arpl   WORD PTR [ebx+0x69],bp
  40a3ad:	outs   dx,BYTE PTR ds:[esi]
  40a3ae:	addr16 inc esi
  40a3b0:	imul   esp,DWORD PTR [ebp+0x6c],0x483c0064
  40a3b7:	outs   dx,DWORD PTR ds:[esi]
  40a3b8:	jae    0x40a42e
  40a3ba:	inc    ebx
  40a3bb:	outs   dx,DWORD PTR ds:[esi]
  40a3bc:	outs   dx,BYTE PTR ds:[esi]
  40a3bd:	outs   dx,BYTE PTR ds:[esi]
  40a3be:	arpl   WORD PTR gs:[ecx+ebp*2+0x6f],si
  40a3c3:	outs   dx,BYTE PTR ds:[esi]
  40a3c4:	push   eax
  40a3c5:	popa   
  40a3c6:	jb     0x40a429
  40a3c8:	ins    DWORD PTR es:[edi],dx
  40a3c9:	gs je  0x40a431
  40a3cc:	jb     0x40a441
  40a3ce:	imul   ebx,DWORD PTR ds:[edi+0x5f],0x42
  40a3d3:	popa   
  40a3d4:	arpl   WORD PTR [ebx+0x69],bp
  40a3d7:	outs   dx,BYTE PTR ds:[esi]
  40a3d8:	addr16 inc esi
  40a3da:	imul   esp,DWORD PTR [ebp+0x6c],0x65640064
  40a3e1:	jo     0x40a44f
  40a3e3:	outs   dx,DWORD PTR ds:[esi]
  40a3e4:	jns    0x40a427
  40a3e6:	jo     0x40a458
  40a3e8:	js     0x40a432
  40a3ea:	outs   dx,DWORD PTR ds:[esi]
  40a3eb:	jae    0x40a461
  40a3ed:	add    BYTE PTR [ebx+0x75],dl
  40a3f0:	arpl   WORD PTR [ebx+0x65],sp
  40a3f3:	jae    0x40a468
  40a3f5:	add    BYTE PTR [esi+0x61],al
  40a3f8:	imul   ebp,DWORD PTR [ebp+esi*2+0x72],0x65440065
  40a400:	ins    BYTE PTR es:[edi],dx
  40a401:	gs je  0x40a469
  40a404:	push   esp
  40a405:	gs ins DWORD PTR es:[edi],dx
  40a407:	jo     0x40a44f
  40a409:	imul   ebp,DWORD PTR [ebp+eiz*2+0x73],0x79734100
  40a411:	outs   dx,BYTE PTR ds:[esi]
  40a412:	arpl   WORD PTR [edi+0x70],cx
  40a415:	gs jb  0x40a479
  40a418:	je     0x40a483
  40a41a:	outs   dx,DWORD PTR ds:[esi]
  40a41b:	outs   dx,BYTE PTR ds:[esi]
  40a41c:	dec    ecx
  40a41d:	outs   dx,BYTE PTR ds:[esi]
  40a41e:	outs   dx,WORD PTR ds:[esi]
  40a420:	add    BYTE PTR [ebx+0x65],dl
  40a423:	outs   dx,BYTE PTR ds:[esi]
  40a424:	fs dec edi
  40a426:	jo     0x40a48d
  40a428:	jb     0x40a48b
  40a42a:	je     0x40a495
  40a42c:	outs   dx,DWORD PTR ds:[esi]
  40a42d:	outs   dx,BYTE PTR ds:[esi]
  40a42e:	push   ebx
  40a42f:	je     0x40a492
  40a431:	je     0x40a4a8
  40a433:	jae    0x40a435
  40a435:	push   ebx
  40a436:	jns    0x40a4ab
  40a438:	je     0x40a49f
  40a43a:	ins    DWORD PTR es:[edi],dx
  40a43b:	cs push ebx
  40a43d:	arpl   WORD PTR gs:[ebp+0x72],si
  40a441:	imul   esi,DWORD PTR [ecx+edi*2+0x2e],0x70797243
  40a449:	je     0x40a4ba
  40a44b:	addr16 jb 0x40a4af
  40a44e:	jo     0x40a4b8
  40a450:	jns    0x40a480
  40a452:	pop    eax
  40a453:	xor    eax,0x65433930
  40a458:	jb     0x40a4ce
  40a45a:	imul   esp,DWORD PTR [esi+0x69],0x65746163
  40a461:	jae    0x40a463
  40a463:	pop    eax
  40a464:	xor    eax,0x65433930
  40a469:	jb     0x40a4df
  40a46b:	imul   esp,DWORD PTR [esi+0x69],0x65746163
  40a472:	xor    al,BYTE PTR [ebx+0x6f]
  40a475:	ins    BYTE PTR es:[edi],dx
  40a476:	ins    BYTE PTR es:[edi],dx
  40a477:	arpl   WORD PTR gs:[ecx+ebp*2+0x6f],si
  40a47c:	outs   dx,BYTE PTR ds:[esi]
  40a47d:	add    BYTE PTR [eax+0x35],bl
  40a480:	xor    BYTE PTR [ecx],bh
  40a482:	inc    ebx
  40a483:	gs jb  0x40a4fa
  40a486:	imul   esp,DWORD PTR [esi+0x69],0x65746163
  40a48d:	xor    al,BYTE PTR [eax]
  40a48f:	inc    ebx
  40a490:	push   0x496b6365
  40a495:	inc    bx
  40a497:	gs jb  0x40a50e
  40a49a:	dec    ecx
  40a49b:	jae    0x40a4e6
  40a49d:	outs   dx,BYTE PTR ds:[esi]
  40a49e:	jae    0x40a514
  40a4a0:	popa   
  40a4a1:	ins    BYTE PTR es:[edi],dx
  40a4a2:	ins    BYTE PTR es:[edi],dx
  40a4a3:	gs add BYTE PTR fs:[ecx+0x6e],cl
  40a4a8:	jae    0x40a51e
  40a4aa:	popa   
  40a4ab:	ins    BYTE PTR es:[edi],dx
  40a4ac:	ins    BYTE PTR es:[edi],dx
  40a4ad:	push   esp
  40a4ae:	gs jae 0x40a525
  40a4b1:	inc    ebx
  40a4b2:	gs jb  0x40a529
  40a4b5:	imul   esp,DWORD PTR [esi+0x69],0x65746163
  40a4bc:	add    BYTE PTR [ebx+0x65],al
  40a4bf:	jb     0x40a535
  40a4c1:	dec    ecx
  40a4c2:	outs   dx,BYTE PTR ds:[esi]
  40a4c3:	jae    0x40a539
  40a4c5:	popa   
  40a4c6:	ins    BYTE PTR es:[edi],dx
  40a4c7:	ins    BYTE PTR es:[edi],dx
  40a4c8:	inc    ebx
  40a4c9:	popa   
  40a4ca:	ins    BYTE PTR es:[edi],dx
  40a4cb:	ins    BYTE PTR es:[edi],dx
  40a4cc:	bound  esp,QWORD PTR [ecx+0x63]
  40a4cf:	imul   eax,DWORD PTR [eax],0x43
  40a4d2:	popa   
  40a4d3:	outs   dx,BYTE PTR ds:[esi]
  40a4d4:	arpl   WORD PTR [ebp+0x6c],sp
  40a4d7:	inc    ebx
  40a4d8:	gs jb  0x40a54f
  40a4db:	dec    ecx
  40a4dc:	outs   dx,BYTE PTR ds:[esi]
  40a4dd:	jae    0x40a553
  40a4df:	popa   
  40a4e0:	ins    BYTE PTR es:[edi],dx
  40a4e1:	ins    BYTE PTR es:[edi],dx
  40a4e2:	add    BYTE PTR [ecx+0x63],al
  40a4e5:	jno    0x40a55c
  40a4e7:	imul   esi,DWORD PTR [edx+0x65],0x4c766544
  40a4ee:	imul   esp,DWORD PTR [ebx+0x65],0x4365736e
  40a4f5:	popa   
  40a4f6:	ins    BYTE PTR es:[edi],dx
  40a4f7:	ins    BYTE PTR es:[edi],dx
  40a4f8:	bound  esp,QWORD PTR [ecx+0x63]
  40a4fb:	imul   eax,DWORD PTR [eax],0x43
  40a4fe:	popa   
  40a4ff:	outs   dx,BYTE PTR ds:[esi]
  40a500:	arpl   WORD PTR [ebp+0x6c],sp
  40a503:	inc    ecx
  40a504:	jno    0x40a57b
  40a506:	imul   esi,DWORD PTR [edx+0x65],0x4c766544
  40a50d:	imul   esp,DWORD PTR [ebx+0x65],0x65736e
  40a514:	addr16 gs je 0x40a577
  40a518:	inc    esp
  40a519:	gs jae 0x40a590
  40a51c:	inc    esi
  40a51d:	outs   dx,DWORD PTR ds:[esi]
  40a51e:	ins    BYTE PTR es:[edi],dx
  40a51f:	fs gs jb 0x40a523
  40a523:	push   ebx
  40a524:	jns    0x40a599
  40a526:	je     0x40a58d
  40a528:	ins    DWORD PTR es:[edi],dx
  40a529:	cs dec ecx
  40a52b:	dec    edi
  40a52c:	add    BYTE PTR [esi+0x69],al
  40a52f:	ins    BYTE PTR es:[edi],dx
  40a530:	gs push ebx
  40a532:	je     0x40a5a6
  40a534:	gs popa 
  40a536:	ins    DWORD PTR es:[edi],dx
  40a537:	add    BYTE PTR [esi+0x69],al
  40a53a:	outs   dx,BYTE PTR ds:[esi]
  40a53b:	fs inc esi
  40a53d:	imul   ebp,DWORD PTR [ebp+eiz*2+0x49],0x65704f6e
  40a545:	outs   dx,BYTE PTR ds:[esi]
  40a546:	gs fs inc esi
  40a549:	imul   ebp,DWORD PTR [ebp+eiz*2+0x73],0x64644100
  40a551:	inc    esi
  40a552:	imul   ebp,DWORD PTR [ebp+eiz*2+0x54],0x6c69466f
  40a55a:	gs jae 0x40a5ac
  40a55d:	jo     0x40a5c4
  40a55f:	outs   dx,BYTE PTR ds:[esi]
  40a560:	gs add BYTE PTR fs:[edx+0x65],dl
  40a565:	ins    DWORD PTR es:[edi],dx
  40a566:	outs   dx,DWORD PTR ds:[esi]
  40a567:	jbe    0x40a5ce
  40a569:	inc    esi
  40a56a:	imul   ebp,DWORD PTR [ebp+eiz*2+0x46],0x466d6f72
  40a572:	imul   ebp,DWORD PTR [ebp+eiz*2+0x73],0x6e65704f
  40a57a:	gs add BYTE PTR fs:[ebx+0x6c],al
  40a57f:	outs   dx,DWORD PTR ds:[esi]
  40a580:	jae    0x40a5e7
  40a582:	inc    ecx
  40a583:	ins    BYTE PTR es:[edi],dx
  40a584:	ins    BYTE PTR es:[edi],dx
  40a585:	dec    edi
  40a586:	jo     0x40a5ed
  40a588:	outs   dx,BYTE PTR ds:[esi]
  40a589:	gs fs inc esi
  40a58c:	imul   ebp,DWORD PTR [ebp+eiz*2+0x73],0x73795300
  40a594:	je     0x40a5fb
  40a596:	ins    DWORD PTR es:[edi],dx
  40a597:	cs dec ecx
  40a599:	inc    esp
  40a59a:	imul   esi,DWORD PTR [ebx+0x70],0x6261736f
  40a5a1:	ins    BYTE PTR es:[edi],dx
  40a5a2:	gs cs inc esp
  40a5a5:	imul   esi,DWORD PTR [ebx+0x70],0x65736f
  40a5ac:	popa   
  40a5ad:	jo     0x40a61f
  40a5af:	js     0x40a5f7
  40a5b1:	imul   ebp,DWORD PTR [ebp+eiz*2+0x0],0x78707061
  40a5b9:	inc    esi
  40a5ba:	outs   dx,DWORD PTR ds:[esi]
  40a5bb:	ins    BYTE PTR es:[edi],dx
  40a5bc:	fs gs jb 0x40a5c0
  40a5c0:	fs gs jae 0x40a638
  40a5c4:	inc    esi
  40a5c5:	outs   dx,DWORD PTR ds:[esi]
  40a5c6:	ins    BYTE PTR es:[edi],dx
  40a5c7:	fs gs jb 0x40a5cb
  40a5cb:	imul   bp,WORD PTR [ebp+eiz*2+0x73],0x704f
  40a5d2:	outs   dx,BYTE PTR gs:[esi]
  40a5d4:	gs add BYTE PTR fs:[ecx+eiz*2+0x73],ch
  40a5da:	je     0x40a622
  40a5dc:	imul   ebp,DWORD PTR [ebp+eiz*2+0x49],0x73690064
  40a5e4:	inc    esp
  40a5e5:	imul   esi,DWORD PTR [ebx+0x70],0x6465736f
  40a5ec:	add    BYTE PTR [ecx+0x63],al
  40a5ef:	jno    0x40a666
  40a5f1:	imul   esi,DWORD PTR [edx+0x65],0x4c766544
  40a5f8:	imul   esp,DWORD PTR [ebx+0x65],0x5065736e
  40a5ff:	jb     0x40a670
  40a601:	arpl   WORD PTR [ebp+0x73],sp
  40a604:	jae    0x40a606
  40a606:	inc    ebx
  40a607:	gs jb  0x40a67e
  40a60a:	dec    ecx
  40a60b:	outs   dx,BYTE PTR ds:[esi]
  40a60c:	jae    0x40a682
  40a60e:	popa   
  40a60f:	ins    BYTE PTR es:[edi],dx
  40a610:	ins    BYTE PTR es:[edi],dx
  40a611:	push   eax
  40a612:	jb     0x40a683
  40a614:	arpl   WORD PTR [ebp+0x73],sp
  40a617:	jae    0x40a619
  40a619:	inc    esp
  40a61a:	gs jae 0x40a691
  40a61d:	inc    esi
  40a61e:	outs   dx,DWORD PTR ds:[esi]
  40a61f:	ins    BYTE PTR es:[edi],dx
  40a620:	fs gs jb 0x40a624
  40a624:	inc    ecx
  40a625:	dec    esp
  40a626:	push   edx
  40a627:	inc    ebp
  40a628:	inc    ecx
  40a629:	inc    esp
  40a62a:	pop    ecx
  40a62b:	pop    edi
  40a62c:	inc    ebp
  40a62d:	pop    eax
  40a62e:	dec    ecx
  40a62f:	push   ebx
  40a630:	push   esp
  40a631:	push   ebx
  40a632:	add    BYTE PTR [ebx+0x5f],dh
  40a635:	push   edi
  40a636:	popa   
  40a637:	imul   esi,DWORD PTR [esi+eax*2+0x6f],0x6d6f4372
  40a63f:	jo     0x40a6ad
  40a641:	gs je  0x40a6a9
  40a644:	add    BYTE PTR [ebx+0x72],al
  40a647:	gs popa 
  40a649:	je     0x40a6b0
  40a64b:	inc    esi
  40a64c:	imul   ebp,DWORD PTR [ebp+eiz*2+0x55],0x54006972
  40a654:	jns    0x40a6c6
  40a656:	add    BYTE PTR gs:[ebx+0x72],al
  40a65a:	gs popa 
  40a65c:	je     0x40a6c3
  40a65e:	inc    edi
  40a65f:	outs   dx,BYTE PTR gs:[esi]
  40a661:	gs jb  0x40a6cd
  40a664:	arpl   WORD PTR [eax],ax
  40a666:	dec    ecx
  40a667:	inc    ebp
  40a668:	outs   dx,BYTE PTR ds:[esi]
  40a669:	jne    0x40a6d8
  40a66b:	gs jb  0x40a6cf
  40a66e:	bound  ebp,QWORD PTR [ebp+eiz*2+0x60]
  40a672:	xor    DWORD PTR [eax],eax
  40a674:	inc    ecx
  40a675:	fs fs push eax
  40a678:	popa   
  40a679:	arpl   WORD PTR [ebx+0x61],bp
  40a67c:	add    BYTE PTR gs:[bx+0x69],dl
  40a681:	outs   dx,BYTE PTR ds:[esi]
  40a682:	outs   dx,DWORD PTR fs:[esi]
  40a684:	ja     0x40a6f9
  40a686:	add    BYTE PTR [edi+0x69],dl
  40a689:	outs   dx,BYTE PTR ds:[esi]
  40a68a:	outs   dx,DWORD PTR fs:[esi]
  40a68c:	ja     0x40a701
  40a68e:	cs inc esi
  40a690:	outs   dx,DWORD PTR ds:[esi]
  40a691:	jne    0x40a701
  40a693:	fs popa 
  40a695:	je     0x40a700
  40a697:	outs   dx,DWORD PTR ds:[esi]
  40a698:	outs   dx,BYTE PTR ds:[esi]
  40a699:	add    BYTE PTR [ecx+0x73],al
  40a69c:	jns    0x40a70c
  40a69e:	arpl   WORD PTR [ebx+0x74],dx
  40a6a1:	popa   
  40a6a2:	je     0x40a719
  40a6a4:	jae    0x40a6a6
  40a6a6:	push   ebx
  40a6a7:	gs je  0x40a6f7
  40a6aa:	popa   
  40a6ab:	outs   dx,BYTE PTR ds:[esi]
  40a6ac:	jne    0x40a70f
  40a6ae:	ins    BYTE PTR es:[edi],dx
  40a6af:	inc    ebp
  40a6b0:	jbe    0x40a717
  40a6b2:	outs   dx,BYTE PTR ds:[esi]
  40a6b3:	je     0x40a6b5
  40a6b5:	fs gs popaw 
  40a6b9:	jne    0x40a727
  40a6bb:	je     0x40a70d
  40a6bd:	outs   dx,DWORD PTR ds:[esi]
  40a6be:	jb     0x40a734
  40a6c0:	dec    esi
  40a6c1:	jne    0x40a730
  40a6c3:	bound  esp,QWORD PTR [ebp+0x72]
  40a6c6:	add    BYTE PTR [ecx+eiz*2+0x73],cl
  40a6ca:	je     0x40a71e
  40a6cc:	jne    0x40a73c
  40a6ce:	inc    esp
  40a6cf:	imul   esi,DWORD PTR [edx+0x65],0x726f7463
  40a6d6:	jns    0x40a6d8
  40a6d8:	push   eax
  40a6d9:	jb     0x40a740
  40a6db:	jbe    0x40a746
  40a6dd:	outs   dx,DWORD PTR ds:[esi]
  40a6de:	jne    0x40a753
  40a6e0:	push   edx
  40a6e1:	jne    0x40a751
  40a6e3:	inc    esp
  40a6e4:	imul   esi,DWORD PTR [edx+0x65],0x726f7463
  40a6eb:	jns    0x40a6ed
  40a6ed:	dec    ebp
  40a6ee:	popa   
  40a6ef:	imul   ebp,DWORD PTR [esi+0x0],0x636f7250
  40a6f6:	gs jae 0x40a76c
  40a6f9:	inc    ecx
  40a6fa:	jb     0x40a763
  40a6fc:	jne    0x40a76b
  40a6fe:	outs   dx,BYTE PTR gs:[esi]
  40a700:	je     0x40a775
  40a702:	add    BYTE PTR [ebp+0x6e],al
  40a705:	fs inc ebx
  40a707:	outs   dx,DWORD PTR ds:[esi]
  40a708:	ins    BYTE PTR es:[edi],dx
  40a709:	ins    BYTE PTR es:[edi],dx
  40a70a:	arpl   WORD PTR gs:[edi+ebp*2+0x72],si
  40a70f:	dec    eax
  40a710:	outs   dx,DWORD PTR ds:[esi]
  40a711:	jae    0x40a787
  40a713:	add    BYTE PTR [ecx+0x6e],cl
  40a716:	imul   esi,DWORD PTR [ecx+ebp*2+0x61],0x657a696c
  40a71e:	push   esp
  40a71f:	jb     0x40a782
  40a721:	arpl   WORD PTR [ebp+0x4c],sp
  40a724:	imul   esi,DWORD PTR [ebx+0x74],0x72656e65
  40a72b:	add    BYTE PTR [ebp+0x6e],dl
  40a72e:	push   0x6c646e61
  40a733:	gs fs inc ebp
  40a736:	js     0x40a79b
  40a738:	gs jo  0x40a7af
  40a73b:	imul   ebp,DWORD PTR [edi+0x6e],0x6e657645
  40a742:	je     0x40a785
  40a744:	jb     0x40a7ad
  40a746:	jae    0x40a748
  40a748:	push   ebp
  40a749:	outs   dx,BYTE PTR ds:[esi]
  40a74a:	push   0x6c646e61
  40a74f:	gs fs inc ebp
  40a752:	js     0x40a7b7
  40a754:	gs jo  0x40a7cb
  40a757:	imul   ebp,DWORD PTR [edi+0x6e],0x74654700
  40a75e:	dec    esp
  40a75f:	outs   dx,DWORD PTR ds:[esi]
  40a760:	addr16 inc esi
  40a762:	imul   ebp,DWORD PTR [ebp+eiz*2+0x44],0x63657269
  40a76a:	je     0x40a7db
  40a76c:	jb     0x40a7e7
  40a76e:	add    BYTE PTR [ebx+0x65],dh
  40a771:	je     0x40a7d2
  40a773:	push   eax
  40a774:	outs   dx,DWORD PTR ds:[esi]
  40a775:	jb     0x40a7eb
  40a777:	add    BYTE PTR [edi+0x65],ah
  40a77a:	je     0x40a7db
  40a77c:	push   eax
  40a77d:	outs   dx,DWORD PTR ds:[esi]
  40a77e:	jb     0x40a7f4
  40a780:	add    BYTE PTR [edi+ebp*2+0x75],dh
  40a784:	arpl   WORD PTR [eax+0x52],bp
  40a787:	arpl   WORD PTR gs:[edi+0x72],bp
  40a78b:	fs gs jb 0x40a78f
  40a78f:	push   ebx
  40a790:	jns    0x40a805
  40a792:	je     0x40a7f9
  40a794:	ins    DWORD PTR es:[edi],dx
  40a795:	cs inc ebx
  40a797:	outs   dx,DWORD PTR ds:[esi]
  40a798:	jb     0x40a7ff
  40a79a:	add    BYTE PTR [eax+0x61],cl
  40a79d:	jae    0x40a807
  40a79f:	push   ebx
  40a7a0:	gs je  0x40a803
  40a7a3:	xor    DWORD PTR [eax],eax
  40a7a5:	ins    DWORD PTR es:[edi],dx
  40a7a6:	outs   dx,DWORD PTR ds:[esi]
  40a7a7:	fs gs push ebx
  40a7aa:	imul   ebp,DWORD PTR [ebp+0x75],0x6f74616c
  40a7b1:	jb     0x40a7fb
  40a7b3:	imul   ebp,DWORD PTR [esi+0x74],0x65680073
  40a7ba:	ins    BYTE PTR es:[edi],dx
  40a7bb:	jo     0x40a805
  40a7bd:	imul   ebp,DWORD PTR [esi+0x74],0x75630073
  40a7c4:	jb     0x40a838
  40a7c6:	outs   dx,BYTE PTR gs:[esi]
  40a7c8:	je     0x40a813
  40a7ca:	outs   dx,BYTE PTR ds:[esi]
  40a7cb:	jae    0x40a841
  40a7cd:	popa   
  40a7ce:	outs   dx,BYTE PTR ds:[esi]
  40a7cf:	arpl   WORD PTR [ebp+0x4d],sp
  40a7d2:	outs   dx,DWORD PTR ds:[esi]
  40a7d3:	fs add BYTE PTR gs:[ebp+0x78],al
  40a7d8:	imul   esi,DWORD PTR [eax+edx*2+0x72],0x7365636f
  40a7e0:	jae    0x40a827
  40a7e2:	jbe    0x40a849
  40a7e4:	outs   dx,BYTE PTR ds:[esi]
  40a7e5:	je     0x40a7e7
  40a7e7:	jb     0x40a85d
  40a7e9:	jb     0x40a83b
  40a7eb:	outs   dx,DWORD PTR ds:[esi]
  40a7ec:	jb     0x40a862
  40a7ee:	dec    esi
  40a7ef:	jne    0x40a85e
  40a7f1:	bound  esp,QWORD PTR [ebp+0x72]
  40a7f4:	add    BYTE PTR [eax+0x6f],dl
  40a7f7:	jb     0x40a86d
  40a7f9:	add    BYTE PTR [ebx+0x79],dl
  40a7fc:	jae    0x40a872
  40a7fe:	gs ins DWORD PTR es:[edi],dx
  40a800:	cs push edx
  40a802:	gs jae 0x40a874
  40a805:	jne    0x40a879
  40a807:	arpl   WORD PTR [ebp+0x73],sp
  40a80a:	add    BYTE PTR [edx+0x65],dl
  40a80d:	jae    0x40a87e
  40a80f:	jne    0x40a883
  40a811:	arpl   WORD PTR [ebp+0x4d],sp
  40a814:	popa   
  40a815:	outs   dx,BYTE PTR ds:[esi]
  40a816:	popa   
  40a817:	addr16 gs jb 0x40a81b
  40a81b:	jb     0x40a882
  40a81d:	jae    0x40a88e
  40a81f:	jne    0x40a893
  40a821:	arpl   WORD PTR [ebp+0x4d],sp
  40a824:	popa   
  40a825:	outs   dx,BYTE PTR ds:[esi]
  40a826:	add    BYTE PTR [ebx+0x79],dl
  40a829:	jae    0x40a89f
  40a82b:	gs ins DWORD PTR es:[edi],dx
  40a82d:	cs inc edi
  40a82f:	ins    BYTE PTR es:[edi],dx
  40a830:	outs   dx,DWORD PTR ds:[esi]
  40a831:	bound  esp,QWORD PTR [ecx+0x6c]
  40a834:	imul   edi,DWORD PTR [edx+0x61],0x6e6f6974
  40a83b:	add    BYTE PTR [ebx+0x75],al
  40a83e:	ins    BYTE PTR es:[edi],dx
  40a83f:	je     0x40a8b6
  40a841:	jb     0x40a8a8
  40a843:	dec    ecx
  40a844:	outs   dx,BYTE PTR ds:[esi]
  40a845:	outs   dx,WORD PTR ds:[esi]
  40a847:	add    BYTE PTR [edx+0x65],dh
  40a84a:	jae    0x40a8bb
  40a84c:	jne    0x40a8c0
  40a84e:	arpl   WORD PTR [ebp+0x43],sp
  40a851:	jne    0x40a8bf
  40a853:	je     0x40a8ca
  40a855:	jb     0x40a8bc
  40a857:	add    BYTE PTR [edi+0x65],ah
  40a85a:	je     0x40a8bb
  40a85c:	push   edx
  40a85d:	gs jae 0x40a8cf
  40a860:	jne    0x40a8d4
  40a862:	arpl   WORD PTR [ebp+0x4d],sp
  40a865:	popa   
  40a866:	outs   dx,BYTE PTR ds:[esi]
  40a867:	popa   
  40a868:	addr16 gs jb 0x40a86c
  40a86c:	addr16 gs je 0x40a8cf
  40a870:	inc    ebx
  40a871:	jne    0x40a8df
  40a873:	je     0x40a8ea
  40a875:	jb     0x40a8dc
  40a877:	add    BYTE PTR [ebx+0x65],dh
  40a87a:	je     0x40a8db
  40a87c:	inc    ebx
  40a87d:	jne    0x40a8eb
  40a87f:	je     0x40a8f6
  40a881:	jb     0x40a8e8
  40a883:	add    BYTE PTR [edi+0x65],ah
  40a886:	je     0x40a8e7
  40a888:	inc    ecx
  40a889:	arpl   WORD PTR [ecx+0x75],si
  40a88c:	imul   esi,DWORD PTR [edx+0x69],0x6544676e
  40a893:	jbe    0x40a8e1
  40a895:	imul   esp,DWORD PTR [ebx+0x65],0x4665736e
  40a89c:	popa   
  40a89d:	imul   ebp,DWORD PTR [ebp+eiz*2+0x64],0x7265704f
  40a8a5:	popa   
  40a8a6:	je     0x40a911
  40a8a8:	outs   dx,DWORD PTR ds:[esi]
  40a8a9:	outs   dx,BYTE PTR ds:[esi]
  40a8aa:	inc    ebx
  40a8ab:	popa   
  40a8ac:	outs   dx,BYTE PTR ds:[esi]
  40a8ad:	arpl   WORD PTR [ebp+0x6c],sp
  40a8b0:	gs add BYTE PTR fs:[edi+0x65],ah
  40a8b5:	je     0x40a916
  40a8b7:	inc    ecx
  40a8b8:	arpl   WORD PTR [ecx+0x75],si
  40a8bb:	imul   esi,DWORD PTR [edx+0x69],0x6544676e
  40a8c2:	jbe    0x40a910
  40a8c4:	imul   esp,DWORD PTR [ebx+0x65],0x4665736e
  40a8cb:	popa   
  40a8cc:	imul   ebp,DWORD PTR [ebp+eiz*2+0x64],0x76726553
  40a8d4:	gs jb  0x40a925
  40a8d7:	outs   dx,DWORD PTR ds:[esi]
  40a8d8:	je     0x40a92c
  40a8da:	gs popa 
  40a8dc:	arpl   WORD PTR [eax+0x61],bp
  40a8df:	bound  ebp,QWORD PTR [ebp+eiz*2+0x0]
  40a8e3:	addr16 gs je 0x40a946
  40a8e7:	inc    ecx
  40a8e8:	arpl   WORD PTR [ecx+0x75],si
  40a8eb:	imul   esi,DWORD PTR [edx+0x69],0x6544676e
  40a8f2:	jbe    0x40a940
  40a8f4:	imul   esp,DWORD PTR [ebx+0x65],0x4665736e
  40a8fb:	popa   
  40a8fc:	imul   ebp,DWORD PTR [ebp+eiz*2+0x64],0x68746957
  40a904:	push   ebp
  40a905:	outs   dx,BYTE PTR ds:[esi]
  40a906:	imul   ebp,DWORD PTR [esi+0x6f],0x77
  40a90a:	outs   dx,BYTE PTR ds:[esi]
  40a90b:	inc    ebp
  40a90c:	jb     0x40a980
  40a90e:	outs   dx,DWORD PTR ds:[esi]
  40a90f:	jb     0x40a911
  40a911:	addr16 gs je 0x40a974
  40a915:	inc    ebx
  40a916:	popa   
  40a917:	outs   dx,BYTE PTR ds:[esi]
  40a918:	arpl   WORD PTR [ebp+0x6c],sp
  40a91b:	dec    edi
  40a91c:	jo     0x40a983
  40a91e:	jb     0x40a981
  40a920:	je     0x40a98b
  40a922:	outs   dx,DWORD PTR ds:[esi]
  40a923:	outs   dx,BYTE PTR ds:[esi]
  40a924:	dec    esi
  40a925:	outs   dx,DWORD PTR ds:[esi]
  40a926:	je     0x40a969
  40a928:	ins    BYTE PTR es:[edi],dx
  40a929:	ins    BYTE PTR es:[edi],dx
  40a92a:	outs   dx,DWORD PTR ds:[esi]
  40a92b:	ja     0x40a992
  40a92d:	add    BYTE PTR fs:[edi+0x65],ah
  40a931:	je     0x40a992
  40a933:	inc    ebx
  40a934:	outs   dx,DWORD PTR ds:[esi]
  40a935:	jne    0x40a9a3
  40a937:	fs dec esi
  40a939:	outs   dx,DWORD PTR ds:[esi]
  40a93a:	je     0x40a988
  40a93c:	outs   dx,DWORD PTR ds:[esi]
  40a93d:	popa   
  40a93e:	fs push edi
  40a940:	jae    0x40a985
  40a942:	ins    BYTE PTR es:[edi],dx
  40a943:	imul   esp,DWORD PTR [ebp+0x6e],0x6c6c4474
  40a94a:	add    BYTE PTR [edi+0x65],ah
  40a94d:	je     0x40a9ae
  40a94f:	inc    esp
  40a950:	gs jo  0x40a9bf
  40a953:	outs   dx,DWORD PTR ds:[esi]
  40a954:	jns    0x40a997
  40a956:	jo     0x40a9c8
  40a958:	js     0x40a9a2
  40a95a:	outs   dx,DWORD PTR ds:[esi]
  40a95b:	jae    0x40a9d1
  40a95d:	dec    esi
  40a95e:	jne    0x40a9cc
  40a960:	ins    BYTE PTR es:[edi],dx
  40a961:	add    BYTE PTR [edi+0x65],ah
  40a964:	je     0x40a9c5
  40a966:	inc    ebp
  40a967:	js     0x40a9ce
  40a969:	push   esp
  40a96a:	outs   dx,DWORD PTR ds:[esi]
  40a96b:	inc    ecx
  40a96c:	arpl   WORD PTR [ecx+0x75],si
  40a96f:	imul   esi,DWORD PTR [edx+0x65],0x4c766544
  40a976:	imul   esp,DWORD PTR [ebx+0x65],0x4e65736e
  40a97d:	outs   dx,DWORD PTR ds:[esi]
  40a97e:	je     0x40a9c6
  40a980:	outs   dx,DWORD PTR ds:[esi]
  40a981:	jne    0x40a9f1
  40a983:	add    BYTE PTR fs:[edi+0x65],ah
  40a987:	je     0x40a9e8
  40a989:	inc    ebp
  40a98a:	js     0x40a9f1
  40a98c:	push   esp
  40a98d:	outs   dx,DWORD PTR ds:[esi]
  40a98e:	dec    ecx
  40a98f:	outs   dx,BYTE PTR ds:[esi]
  40a990:	jae    0x40aa06
  40a992:	popa   
  40a993:	ins    BYTE PTR es:[edi],dx
  40a994:	ins    BYTE PTR es:[edi],dx
  40a995:	inc    ebx
  40a996:	gs jb  0x40aa0d
  40a999:	dec    esi
  40a99a:	outs   dx,DWORD PTR ds:[esi]
  40a99b:	je     0x40a9e3
  40a99d:	outs   dx,DWORD PTR ds:[esi]
  40a99e:	jne    0x40aa0e
  40a9a0:	add    BYTE PTR fs:[edi+0x65],ah
  40a9a4:	je     0x40aa05
  40a9a6:	dec    ecx
  40a9a7:	outs   dx,BYTE PTR ds:[esi]
  40a9a8:	je     0x40aa0f
  40a9aa:	jb     0x40aa1a
  40a9ac:	popa   
  40a9ad:	ins    BYTE PTR es:[edi],dx
  40a9ae:	inc    ebp
  40a9af:	jb     0x40aa23
  40a9b1:	outs   dx,DWORD PTR ds:[esi]
  40a9b2:	jb     0x40aa0b
  40a9b4:	push   0x49656c69
  40a9b9:	outs   dx,BYTE PTR ds:[esi]
  40a9ba:	jbe    0x40aa2b
  40a9bc:	imul   ebp,DWORD PTR [ecx+0x6e],0x67
  40a9c0:	inc    ebx
  40a9c1:	gs jb  0x40aa38
  40a9c4:	dec    ecx
  40a9c5:	outs   dx,BYTE PTR ds:[esi]
  40a9c6:	jae    0x40aa3c
  40a9c8:	popa   
  40a9c9:	ins    BYTE PTR es:[edi],dx
  40a9ca:	ins    BYTE PTR es:[edi],dx
  40a9cb:	gs jb  0x40a9ce
  40a9ce:	addr16 gs je 0x40aa31
  40a9d2:	push   eax
  40a9d3:	popa   
  40a9d4:	arpl   WORD PTR [ebx+0x61],bp
  40a9d7:	addr16 gs dec ebp
  40a9da:	popa   
  40a9db:	outs   dx,BYTE PTR ds:[esi]
  40a9dc:	addr16 gs jb 0x40aa34
  40a9e0:	jns    0x40aa52
  40a9e2:	gs jae 0x40aa33
  40a9e5:	outs   dx,DWORD PTR ds:[esi]
  40a9e6:	je     0x40aa2e
  40a9e8:	outs   dx,DWORD PTR ds:[esi]
  40a9e9:	jne    0x40aa59
  40a9eb:	add    BYTE PTR fs:[edi+0x65],ah
  40a9ef:	je     0x40aa50
  40a9f1:	push   esp
  40a9f2:	gs jae 0x40aa69
  40a9f5:	inc    ebx
  40a9f6:	gs jb  0x40aa6d
  40a9f9:	inc    ecx
  40a9fa:	ins    BYTE PTR es:[edi],dx
  40a9fb:	jb     0x40aa62
  40a9fd:	popa   
  40a9fe:	fs jns 0x40aa4a
  40aa01:	outs   dx,BYTE PTR ds:[esi]
  40aa02:	jae    0x40aa78
  40aa04:	popa   
  40aa05:	ins    BYTE PTR es:[edi],dx
  40aa06:	ins    BYTE PTR es:[edi],dx
  40aa07:	gs add BYTE PTR fs:[edi+0x65],ah
  40aa0c:	je     0x40aa6d
  40aa0e:	push   esp
  40aa0f:	gs jae 0x40aa86
  40aa12:	inc    ebx
  40aa13:	gs jb  0x40aa8a
  40aa16:	inc    esi
  40aa17:	imul   ebp,DWORD PTR [ebp+eiz*2+0x44],0x4e73656f
  40aa1f:	outs   dx,DWORD PTR ds:[esi]
  40aa20:	je     0x40aa67
  40aa22:	js     0x40aa8d
  40aa24:	jae    0x40aa9a
  40aa26:	add    BYTE PTR [edi+0x65],ah
  40aa29:	je     0x40aa8a
  40aa2b:	push   esp
  40aa2c:	imul   ebp,DWORD PTR [ebp+0x65],0x74756f64
  40aa33:	dec    ecx
  40aa34:	outs   dx,BYTE PTR ds:[esi]
  40aa35:	inc    ecx
  40aa36:	fs fs push eax
  40aa39:	popa   
  40aa3a:	arpl   WORD PTR [ebx+0x61],bp
  40aa3d:	add    BYTE PTR gs:[bx+0x65],ah
  40aa42:	je     0x40aaa3
  40aa44:	push   ebp
  40aa45:	outs   dx,BYTE PTR ds:[esi]
  40aa46:	jae    0x40aab8
  40aa48:	arpl   WORD PTR gs:[ecx+0x66],bp
  40aa4c:	imul   esp,DWORD PTR [ebp+0x64],0x6f727245
  40aa53:	jb     0x40aaac
  40aa55:	push   0x49656c69
  40aa5a:	outs   dx,BYTE PTR ds:[esi]
  40aa5b:	jbe    0x40aacc
  40aa5d:	imul   ebp,DWORD PTR [ecx+0x6e],0x67
  40aa61:	inc    ebx
  40aa62:	gs jb  0x40aad9
  40aa65:	dec    ecx
  40aa66:	outs   dx,BYTE PTR ds:[esi]
  40aa67:	jae    0x40aadd
  40aa69:	popa   
  40aa6a:	ins    BYTE PTR es:[edi],dx
  40aa6b:	ins    BYTE PTR es:[edi],dx
  40aa6c:	gs jb  0x40aa6f
  40aa6f:	inc    ebx
  40aa70:	jne    0x40aade
  40aa72:	je     0x40aae9
  40aa74:	jb     0x40aadb
  40aa76:	add    BYTE PTR [ecx+0x63],al
  40aa79:	jno    0x40aaf0
  40aa7b:	imul   esi,DWORD PTR [edx+0x69],0x6544676e
  40aa82:	jbe    0x40aad0
  40aa84:	imul   esp,DWORD PTR [ebx+0x65],0x4665736e
  40aa8b:	popa   
  40aa8c:	imul   ebp,DWORD PTR [ebp+eiz*2+0x64],0x7265704f
  40aa94:	popa   
  40aa95:	je     0x40ab00
  40aa97:	outs   dx,DWORD PTR ds:[esi]
  40aa98:	outs   dx,BYTE PTR ds:[esi]
  40aa99:	inc    ebx
  40aa9a:	popa   
  40aa9b:	outs   dx,BYTE PTR ds:[esi]
  40aa9c:	arpl   WORD PTR [ebp+0x6c],sp
  40aa9f:	gs add BYTE PTR fs:[ecx+0x63],al
  40aaa4:	jno    0x40ab1b
  40aaa6:	imul   esi,DWORD PTR [edx+0x69],0x6544676e
  40aaad:	jbe    0x40aafb
  40aaaf:	imul   esp,DWORD PTR [ebx+0x65],0x4665736e
  40aab6:	popa   
  40aab7:	imul   ebp,DWORD PTR [ebp+eiz*2+0x64],0x76726553
  40aabf:	gs jb  0x40ab10
  40aac2:	outs   dx,DWORD PTR ds:[esi]
  40aac3:	je     0x40ab17
  40aac5:	gs popa 
  40aac7:	arpl   WORD PTR [eax+0x61],bp
  40aaca:	bound  ebp,QWORD PTR [ebp+eiz*2+0x0]
  40aace:	inc    ecx
  40aacf:	arpl   WORD PTR [ecx+0x75],si
  40aad2:	imul   esi,DWORD PTR [edx+0x69],0x6544676e
  40aad9:	jbe    0x40ab27
  40aadb:	imul   esp,DWORD PTR [ebx+0x65],0x4665736e
  40aae2:	popa   
  40aae3:	imul   ebp,DWORD PTR [ebp+eiz*2+0x64],0x68746957
  40aaeb:	push   ebp
  40aaec:	outs   dx,BYTE PTR ds:[esi]
  40aaed:	imul   ebp,DWORD PTR [esi+0x6f],0x77
  40aaf1:	outs   dx,BYTE PTR ds:[esi]
  40aaf2:	inc    ebp
  40aaf3:	jb     0x40ab67
  40aaf5:	outs   dx,DWORD PTR ds:[esi]
  40aaf6:	jb     0x40aaf8
  40aaf8:	inc    ebx
  40aaf9:	popa   
  40aafa:	outs   dx,BYTE PTR ds:[esi]
  40aafb:	arpl   WORD PTR [ebp+0x6c],sp
  40aafe:	dec    edi
  40aaff:	jo     0x40ab66
  40ab01:	jb     0x40ab64
  40ab03:	je     0x40ab6e
  40ab05:	outs   dx,DWORD PTR ds:[esi]
  40ab06:	outs   dx,BYTE PTR ds:[esi]
  40ab07:	dec    esi
  40ab08:	outs   dx,DWORD PTR ds:[esi]
  40ab09:	je     0x40ab4c
  40ab0b:	ins    BYTE PTR es:[edi],dx
  40ab0c:	ins    BYTE PTR es:[edi],dx
  40ab0d:	outs   dx,DWORD PTR ds:[esi]
  40ab0e:	ja     0x40ab75
  40ab10:	add    BYTE PTR fs:[ebx+0x6f],al
  40ab14:	jne    0x40ab82
  40ab16:	fs dec esi
  40ab18:	outs   dx,DWORD PTR ds:[esi]
  40ab19:	je     0x40ab67
  40ab1b:	outs   dx,DWORD PTR ds:[esi]
  40ab1c:	popa   
  40ab1d:	fs push edi
  40ab1f:	jae    0x40ab64
  40ab21:	ins    BYTE PTR es:[edi],dx
  40ab22:	imul   esp,DWORD PTR [ebp+0x6e],0x6c6c4474
  40ab29:	add    BYTE PTR [ebp+eiz*2+0x70],al
  40ab2d:	ins    BYTE PTR es:[edi],dx
  40ab2e:	outs   dx,DWORD PTR ds:[esi]
  40ab2f:	jns    0x40ab72
  40ab31:	jo     0x40aba3
  40ab33:	js     0x40ab7d
  40ab35:	outs   dx,DWORD PTR ds:[esi]
  40ab36:	jae    0x40abac
  40ab38:	dec    esi
  40ab39:	jne    0x40aba7
  40ab3b:	ins    BYTE PTR es:[edi],dx
  40ab3c:	add    BYTE PTR [ebp+0x78],al
  40ab3f:	gs push esp
  40ab41:	outs   dx,DWORD PTR ds:[esi]
  40ab42:	inc    ecx
  40ab43:	arpl   WORD PTR [ecx+0x75],si
  40ab46:	imul   esi,DWORD PTR [edx+0x65],0x4c766544
  40ab4d:	imul   esp,DWORD PTR [ebx+0x65],0x4e65736e
  40ab54:	outs   dx,DWORD PTR ds:[esi]
  40ab55:	je     0x40ab9d
  40ab57:	outs   dx,DWORD PTR ds:[esi]
  40ab58:	jne    0x40abc8
  40ab5a:	add    BYTE PTR fs:[ebp+0x78],al
  40ab5e:	gs push esp
  40ab60:	outs   dx,DWORD PTR ds:[esi]
  40ab61:	dec    ecx
  40ab62:	outs   dx,BYTE PTR ds:[esi]
  40ab63:	jae    0x40abd9
  40ab65:	popa   
  40ab66:	ins    BYTE PTR es:[edi],dx
  40ab67:	ins    BYTE PTR es:[edi],dx
  40ab68:	inc    ebx
  40ab69:	gs jb  0x40abe0
  40ab6c:	dec    esi
  40ab6d:	outs   dx,DWORD PTR ds:[esi]
  40ab6e:	je     0x40abb6
  40ab70:	outs   dx,DWORD PTR ds:[esi]
  40ab71:	jne    0x40abe1
  40ab73:	add    BYTE PTR fs:[ecx+0x6e],cl
  40ab77:	je     0x40abde
  40ab79:	jb     0x40abe9
  40ab7b:	popa   
  40ab7c:	ins    BYTE PTR es:[edi],dx
  40ab7d:	inc    ebp
  40ab7e:	jb     0x40abf2
  40ab80:	outs   dx,DWORD PTR ds:[esi]
  40ab81:	jb     0x40abda
  40ab83:	push   0x49656c69
  40ab88:	outs   dx,BYTE PTR ds:[esi]
  40ab89:	jbe    0x40abfa
  40ab8b:	imul   ebp,DWORD PTR [ecx+0x6e],0x67
  40ab8f:	inc    ebx
  40ab90:	gs jb  0x40ac07
  40ab93:	dec    ecx
  40ab94:	outs   dx,BYTE PTR ds:[esi]
  40ab95:	jae    0x40ac0b
  40ab97:	popa   
  40ab98:	ins    BYTE PTR es:[edi],dx
  40ab99:	ins    BYTE PTR es:[edi],dx
  40ab9a:	gs jb  0x40ab9d
  40ab9d:	push   eax
  40ab9e:	popa   
  40ab9f:	arpl   WORD PTR [ebx+0x61],bp
  40aba2:	addr16 gs dec ebp
  40aba5:	popa   
  40aba6:	outs   dx,BYTE PTR ds:[esi]
  40aba7:	addr16 gs jb 0x40abff
  40abab:	jns    0x40ac1d
  40abad:	gs jae 0x40abfe
  40abb0:	outs   dx,DWORD PTR ds:[esi]
  40abb1:	je     0x40abf9
  40abb3:	outs   dx,DWORD PTR ds:[esi]
  40abb4:	jne    0x40ac24
  40abb6:	add    BYTE PTR fs:[ebp+eiz*2+0x73],dl
  40abbb:	je     0x40ac00
  40abbd:	gs jb  0x40ac34
  40abc0:	inc    ecx
  40abc1:	ins    BYTE PTR es:[edi],dx
  40abc2:	jb     0x40ac29
  40abc4:	popa   
  40abc5:	fs jns 0x40ac11
  40abc8:	outs   dx,BYTE PTR ds:[esi]
  40abc9:	jae    0x40ac3f
  40abcb:	popa   
  40abcc:	ins    BYTE PTR es:[edi],dx
  40abcd:	ins    BYTE PTR es:[edi],dx
  40abce:	gs add BYTE PTR fs:[ebp+eiz*2+0x73],dl
  40abd4:	je     0x40ac19
  40abd6:	gs jb  0x40ac4d
  40abd9:	inc    esi
  40abda:	imul   ebp,DWORD PTR [ebp+eiz*2+0x44],0x4e73656f
  40abe2:	outs   dx,DWORD PTR ds:[esi]
  40abe3:	je     0x40ac2a
  40abe5:	js     0x40ac50
  40abe7:	jae    0x40ac5d
  40abe9:	add    BYTE PTR [ecx+ebp*2+0x6d],dl
  40abed:	gs outs dx,DWORD PTR fs:[esi]
  40abf0:	jne    0x40ac66
  40abf2:	dec    ecx
  40abf3:	outs   dx,BYTE PTR ds:[esi]
  40abf4:	inc    ecx
  40abf5:	fs fs push eax
  40abf8:	popa   
  40abf9:	arpl   WORD PTR [ebx+0x61],bp
  40abfc:	add    BYTE PTR gs:[di+0x6e],dl
  40ac01:	jae    0x40ac73
  40ac03:	arpl   WORD PTR gs:[ecx+0x66],bp
  40ac07:	imul   esp,DWORD PTR [ebp+0x64],0x6f727245
  40ac0e:	jb     0x40ac67
  40ac10:	push   0x49656c69
  40ac15:	outs   dx,BYTE PTR ds:[esi]
  40ac16:	jbe    0x40ac87
  40ac18:	imul   ebp,DWORD PTR [ecx+0x6e],0x67
  40ac1c:	inc    ebx
  40ac1d:	gs jb  0x40ac94
  40ac20:	dec    ecx
  40ac21:	outs   dx,BYTE PTR ds:[esi]
  40ac22:	jae    0x40ac98
  40ac24:	popa   
  40ac25:	ins    BYTE PTR es:[edi],dx
  40ac26:	ins    BYTE PTR es:[edi],dx
  40ac27:	gs jb  0x40ac2a
  40ac2a:	gs js  0x40ac9d
  40ac2d:	imul   esi,DWORD PTR [edx+0x61],0x6e6f6974
  40ac34:	push   esp
  40ac35:	imul   ebp,DWORD PTR [ebp+0x65],0x73795300
  40ac3c:	je     0x40aca3
  40ac3e:	ins    DWORD PTR es:[edi],dx
  40ac3f:	cs push edx
  40ac41:	jne    0x40acb1
  40ac43:	je     0x40acae
  40ac45:	ins    DWORD PTR es:[edi],dx
  40ac46:	gs cs dec ecx
  40ac49:	outs   dx,BYTE PTR ds:[esi]
  40ac4a:	je     0x40acb1
  40ac4c:	jb     0x40acbd
  40ac4e:	jo     0x40aca3
  40ac50:	gs jb  0x40acc9
  40ac53:	imul   esp,DWORD PTR [ebx+0x65],0x754f0073
  40ac5a:	je     0x40ac9d
  40ac5c:	je     0x40acd2
  40ac5e:	jb     0x40acc9
  40ac60:	bound  esi,QWORD PTR [ebp+0x74]
  40ac63:	add    BYTE PTR gs:[esi+0x69],ah
  40ac67:	ins    BYTE PTR es:[edi],dx
  40ac68:	gs push esp
  40ac6a:	imul   ebp,DWORD PTR [ebp+0x65],0x6e776800
  40ac71:	add    BYTE PTR fs:[edi+ebp*2+0x75],dh
  40ac76:	arpl   WORD PTR [eax+0x52],bp
  40ac79:	arpl   WORD PTR gs:[edi+0x72],bp
  40ac7d:	fs gs jb 0x40acc5
  40ac81:	imul   esi,DWORD PTR [edx+0x65],0x726f7463
  40ac88:	jns    0x40ac8a
  40ac8a:	je     0x40acfb
  40ac8c:	jne    0x40acf1
  40ac8e:	push   0x6f636552
  40ac93:	jb     0x40acf9
  40ac95:	gs jb  0x40ace8
  40ac98:	jb     0x40ad09
  40ac9a:	arpl   WORD PTR [ebp+0x73],sp
  40ac9d:	jae    0x40aced
  40ac9f:	popa   
  40aca0:	ins    DWORD PTR es:[edi],dx
  40aca1:	add    BYTE PTR gs:[ebx+0x65],dh
  40aca5:	outs   dx,BYTE PTR ds:[esi]
  40aca6:	fs gs jb 0x40acaa
  40acaa:	add    BYTE PTR gs:[ebp+eiz*2+0x73],dh
  40acaf:	je     0x40ad03
  40acb1:	jne    0x40ad21
  40acb3:	add    BYTE PTR [ebp+0x65],ch
  40acb6:	jae    0x40ad2b
  40acb8:	popa   
  40acb9:	addr16 gs push edx
  40acbc:	arpl   WORD PTR gs:[ebp+0x69],sp
  40acc0:	jbe    0x40ad27
  40acc2:	jb     0x40acc4
  40acc4:	gs jbe 0x40ad2c
  40acc7:	outs   dx,BYTE PTR ds:[esi]
  40acc8:	je     0x40ad0b
  40acca:	jb     0x40ad33
  40accc:	jae    0x40acce
  40acce:	jae    0x40ad49
  40acd0:	outs   dx,BYTE PTR ds:[esi]
  40acd1:	arpl   WORD PTR [eax+0x72],bp
  40acd4:	outs   dx,DWORD PTR ds:[esi]
  40acd5:	outs   dx,BYTE PTR ds:[esi]
  40acd6:	imul   edi,DWORD PTR [edx+0x61],0x6e6f6974
  40acdd:	dec    ecx
  40acde:	outs   dx,BYTE PTR ds:[esi]
  40acdf:	outs   dx,WORD PTR ds:[esi]
  40ace1:	add    BYTE PTR [edx+0x72],ah
  40ace4:	outs   dx,DWORD PTR ds:[esi]
  40ace5:	popa   
  40ace6:	arpl   WORD PTR fs:[ecx+0x73],sp
  40acea:	je     0x40ad38
  40acec:	gs jbe 0x40ad54
  40acef:	ins    BYTE PTR es:[edi],dx
  40acf0:	add    BYTE PTR [ebp+eiz*2+0x73],dh
  40acf4:	je     0x40ad43
  40acf6:	gs jae 0x40ad6c
  40acf9:	popa   
  40acfa:	add    BYTE PTR gs:[bp+di+0x6f],ah
  40acff:	outs   dx,BYTE PTR ds:[esi]
  40ad00:	imul   sp,WORD PTR [edi+0x0],0x6176
  40ad06:	ins    BYTE PTR es:[edi],dx
  40ad07:	jne    0x40ad6e
  40ad09:	add    BYTE PTR [edi+0x62],ch
  40ad0c:	push   0x65
  40ad0e:	arpl   WORD PTR [eax+eax*1+0x6d],si
  40ad12:	gs je  0x40ad7d
  40ad15:	outs   dx,DWORD PTR ds:[esi]
  40ad16:	add    BYTE PTR fs:[ebx+0x65],ah
  40ad1a:	jb     0x40ad90
  40ad1c:	inc    esi
  40ad1d:	imul   ebp,DWORD PTR [ebp+eiz*2+0x4e],0x656d61
  40ad25:	ins    DWORD PTR es:[edi],dx
  40ad26:	gs jae 0x40ad9c
  40ad29:	popa   
  40ad2a:	add    BYTE PTR gs:[bp+di+0x61],ah
  40ad2f:	ins    BYTE PTR es:[edi],dx
  40ad30:	ins    BYTE PTR es:[edi],dx
  40ad31:	bound  esp,QWORD PTR [ecx+0x63]
  40ad34:	imul   eax,DWORD PTR [eax],0x72
  40ad37:	gs jae 0x40adaf
  40ad3a:	ins    BYTE PTR es:[edi],dx
  40ad3b:	je     0x40ad3d
  40ad3d:	ja     0x40adae
  40ad3f:	jb     0x40adac
  40ad41:	gs jb  0x40ad88
  40ad44:	gs ins BYTE PTR es:[edi],dx
  40ad46:	gs addr16 popa 
  40ad49:	je     0x40adb0
  40ad4b:	add    BYTE PTR [ebx+0x61],ah
  40ad4e:	ins    BYTE PTR es:[edi],dx
  40ad4f:	ins    BYTE PTR es:[edi],dx
  40ad50:	bound  esp,QWORD PTR [ecx+0x63]
  40ad53:	imul   eax,DWORD PTR [ebp+eiz*2+0x6c],0x65
  40ad58:	addr16 popa 
  40ad5a:	je     0x40adc1
  40ad5c:	add    BYTE PTR [ebx+0x61],ah
  40ad5f:	outs   dx,BYTE PTR ds:[esi]
  40ad60:	arpl   WORD PTR [ebp+0x6c],sp
  40ad63:	inc    esp
  40ad64:	gs ins BYTE PTR es:[edi],dx
  40ad66:	gs addr16 popa 
  40ad69:	je     0x40add0
  40ad6b:	add    BYTE PTR [edi+0x70],ch
  40ad6e:	gs jb  0x40add2
  40ad71:	je     0x40addc
  40ad73:	outs   dx,DWORD PTR ds:[esi]
  40ad74:	outs   dx,BYTE PTR ds:[esi]
  40ad75:	dec    ecx
  40ad76:	add    BYTE PTR fs:[edi+0x70],ch
  40ad7a:	gs jb  0x40adde
  40ad7d:	je     0x40ade8
  40ad7f:	outs   dx,DWORD PTR ds:[esi]
  40ad80:	outs   dx,BYTE PTR ds:[esi]
  40ad81:	add    BYTE PTR [eax+0x6f],dh
  40ad84:	jb     0x40adfa
  40ad86:	add    BYTE PTR [ecx+ebp*2+0x73],ah
  40ad8a:	jo     0x40adfb
  40ad8c:	jae    0x40adf7
  40ad8e:	outs   dx,BYTE PTR ds:[esi]
  40ad8f:	add    BYTE PTR [bx+si+0x6f],ch
  40ad93:	jae    0x40ae09
  40ad95:	inc    ebx
  40ad96:	outs   dx,DWORD PTR ds:[esi]
  40ad97:	outs   dx,BYTE PTR ds:[esi]
  40ad98:	outs   dx,BYTE PTR ds:[esi]
  40ad99:	arpl   WORD PTR gs:[ecx+ebp*2+0x6f],si
  40ad9e:	outs   dx,BYTE PTR ds:[esi]
  40ad9f:	push   eax
  40ada0:	popa   
  40ada1:	jb     0x40ae04
  40ada3:	ins    DWORD PTR es:[edi],dx
  40ada4:	gs je  0x40ae0c
  40ada7:	jb     0x40ae1c
  40ada9:	add    BYTE PTR [edx+0x65],dh
  40adac:	jae    0x40ae23
  40adae:	ins    DWORD PTR es:[edi],dx
  40adaf:	imul   ebp,DWORD PTR [esi+0x67],0x6d6f7246
  40adb6:	inc    esp
  40adb7:	imul   esi,DWORD PTR [ebx+0x63],0x656e6e6f
  40adbe:	arpl   WORD PTR [eax+eax*1+0x63],si
  40adc2:	outs   dx,DWORD PTR ds:[esi]
  40adc3:	ins    BYTE PTR es:[edi],dx
  40adc4:	ins    BYTE PTR es:[edi],dx
  40adc5:	arpl   WORD PTR gs:[ecx+ebp*2+0x6f],si
  40adca:	outs   dx,BYTE PTR ds:[esi]
  40adcb:	inc    ebp
  40adcc:	jbe    0x40ae33
  40adce:	outs   dx,BYTE PTR ds:[esi]
  40adcf:	je     0x40ae12
  40add1:	jb     0x40ae3a
  40add3:	jae    0x40add5
  40add5:	outs   dx,BYTE PTR ds:[esi]
  40add6:	outs   dx,DWORD PTR ds:[esi]
  40add7:	je     0x40ae42
  40add9:	imul   sp,WORD PTR [ebx+0x61],0x6974
  40addf:	outs   dx,DWORD PTR ds:[esi]
  40ade0:	outs   dx,BYTE PTR ds:[esi]
  40ade1:	dec    esp
  40ade2:	gs jbe 0x40ae4a
  40ade5:	ins    BYTE PTR es:[edi],dx
  40ade6:	add    BYTE PTR [ecx+0x70],ah
  40ade9:	jo     0x40ae63
  40adeb:	push   eax
  40adec:	popa   
  40aded:	je     0x40ae57
  40adef:	add    BYTE PTR [esi+0x69],ah
  40adf2:	ins    BYTE PTR es:[edi],dx
  40adf3:	gs dec esi
  40adf5:	popa   
  40adf6:	ins    DWORD PTR es:[edi],dx
  40adf7:	add    BYTE PTR gs:[ecx+0x73],ch
  40adfb:	push   edx
  40adfc:	gs ins BYTE PTR es:[edi],dx
  40adfe:	popa   
  40adff:	je     0x40ae6a
  40ae01:	jbe    0x40ae68
  40ae03:	add    BYTE PTR [esi+0x69],ah
  40ae06:	ins    BYTE PTR es:[edi],dx
  40ae07:	gs dec ecx
  40ae09:	add    BYTE PTR fs:[ebx+0x6f],ah
  40ae0d:	outs   dx,BYTE PTR ds:[esi]
  40ae0e:	je     0x40ae75
  40ae10:	outs   dx,BYTE PTR ds:[esi]
  40ae11:	je     0x40ae86
  40ae13:	add    BYTE PTR [ebx+0x65],ah
  40ae16:	jb     0x40ae8c
  40ae18:	imul   esp,DWORD PTR [esi+0x69],0x65746163
  40ae1f:	inc    esi
  40ae20:	imul   ebp,DWORD PTR [ebp+eiz*2+0x4e],0x656d61
  40ae28:	fs gs ins BYTE PTR es:[edi],dx
  40ae2b:	gs je  0x40ae93
  40ae2e:	push   esp
  40ae2f:	gs ins DWORD PTR es:[edi],dx
  40ae31:	jo     0x40ae79
  40ae33:	imul   ebp,DWORD PTR [ebp+eiz*2+0x73],0x77656e00
  40ae3b:	inc    ebx
  40ae3c:	popa   
  40ae3d:	ins    BYTE PTR es:[edi],dx
  40ae3e:	ins    BYTE PTR es:[edi],dx
  40ae3f:	bound  esp,QWORD PTR [ecx+0x63]
  40ae42:	imul   eax,DWORD PTR [eax],0x74
  40ae45:	imul   ebp,DWORD PTR [ebp+0x65],0x74756f
  40ae4c:	arpl   WORD PTR [ecx+0x6c],sp
  40ae4f:	ins    BYTE PTR es:[edi],dx
  40ae50:	bound  esp,QWORD PTR [ecx+0x63]
  40ae53:	imul   eax,DWORD PTR [ebx+0x68],0x61
  40ae57:	outs   dx,BYTE PTR ds:[esi]
  40ae58:	outs   dx,BYTE PTR ds:[esi]
  40ae59:	gs ins BYTE PTR es:[edi],dx
  40ae5b:	add    BYTE PTR [edi+0x70],ch
  40ae5e:	push   ebx
  40ae5f:	je     0x40aec2
  40ae61:	je     0x40aed8
  40ae63:	jae    0x40ae65
  40ae65:	arpl   WORD PTR [ebp+0x72],sp
  40ae68:	je     0x40aedd
  40ae6a:	add    BYTE PTR [ebp+eiz*2+0x73],dh
  40ae6e:	je     0x40aeb3
  40ae70:	gs jb  0x40aee7
  40ae73:	add    BYTE PTR [ecx+0x72],ah
  40ae76:	add    BYTE PTR [esi+0x53],ah
  40ae79:	je     0x40aeed
  40ae7b:	gs popa 
  40ae7d:	ins    DWORD PTR es:[edi],dx
  40ae7e:	add    BYTE PTR [edi+0x65],ah
  40ae81:	outs   dx,BYTE PTR ds:[esi]
  40ae82:	gs jb  0x40aeee
  40ae85:	arpl   WORD PTR [eax],ax
  40ae87:	imul   ebp,DWORD PTR [esi+0x6e],0x79547265
  40ae8e:	jo     0x40aef5
  40ae90:	add    BYTE PTR [ebp+eiz*2+0x70],ah
  40ae94:	outs   dx,BYTE PTR gs:[esi]
  40ae96:	fs outs dx,BYTE PTR gs:[esi]
  40ae99:	arpl   WORD PTR [ecx+0x50],di
  40ae9c:	popa   
  40ae9d:	arpl   WORD PTR [ebx+0x61],bp
  40aea0:	addr16 gs jae 0x40aea4
  40aea4:	popa   
  40aea5:	jae    0x40af20
  40aea7:	outs   dx,BYTE PTR ds:[esi]
  40aea8:	arpl   WORD PTR [ebx+0x74],dx
  40aeab:	popa   
  40aeac:	je     0x40af23
  40aeae:	jae    0x40aeb0
  40aeb0:	popa   
  40aeb1:	jb     0x40af1a
  40aeb3:	jae    0x40aeb5
  40aeb5:	arpl   WORD PTR [edi+0x6c],bp
  40aeb8:	ins    BYTE PTR es:[edi],dx
  40aeb9:	arpl   WORD PTR gs:[ecx+ebp*2+0x6f],si
  40aebe:	outs   dx,BYTE PTR ds:[esi]
  40aebf:	push   ebx
  40aec0:	gs jb  0x40af39
  40aec3:	imul   esp,DWORD PTR [ebx+0x65],0x72615000
  40aeca:	outs   dx,BYTE PTR gs:[esi]
  40aecc:	je     0x40af1e
  40aece:	popa   
  40aecf:	je     0x40af39
  40aed1:	add    BYTE PTR [ebx+0x79],dl
  40aed4:	jae    0x40af4a
  40aed6:	gs ins DWORD PTR es:[edi],dx
  40aed8:	cs push edx
  40aeda:	jne    0x40af4a
  40aedc:	je     0x40af47
  40aede:	ins    DWORD PTR es:[edi],dx
  40aedf:	gs cs push esi
  40aee2:	gs jb  0x40af58
  40aee5:	imul   ebp,DWORD PTR [edi+0x6e],0x676e69
  40aeec:	push   esp
  40aeed:	popa   
  40aeee:	jb     0x40af57
  40aef0:	gs je  0x40af39
  40aef3:	jb     0x40af56
  40aef5:	ins    DWORD PTR es:[edi],dx
  40aef6:	gs ja  0x40af68
  40aef9:	jb     0x40af66
  40aefb:	inc    ecx
  40aefc:	je     0x40af72
  40aefe:	jb     0x40af69
  40af00:	bound  esi,QWORD PTR [ebp+0x74]
  40af03:	add    BYTE PTR gs:[ebx+0x6f],al
  40af07:	ins    DWORD PTR es:[edi],dx
  40af08:	push   esi
  40af09:	imul   esi,DWORD PTR [ebx+0x69],0x41656c62
  40af10:	je     0x40af86
  40af12:	jb     0x40af7d
  40af14:	bound  esi,QWORD PTR [ebp+0x74]
  40af17:	add    BYTE PTR gs:[ebx+0x4c],al
  40af1b:	push   ebx
  40af1c:	inc    ebx
  40af1d:	outs   dx,DWORD PTR ds:[esi]
  40af1e:	ins    DWORD PTR es:[edi],dx
  40af1f:	jo     0x40af8d
  40af21:	imul   esp,DWORD PTR [ecx+0x6e],0x74744174
  40af28:	jb     0x40af93
  40af2a:	bound  esi,QWORD PTR [ebp+0x74]
  40af2d:	add    BYTE PTR gs:[ebx+0x79],dl
  40af31:	jae    0x40afa7
  40af33:	gs ins DWORD PTR es:[edi],dx
  40af35:	cs push edx
  40af37:	gs data16 ins BYTE PTR es:[edi],dx
  40af3a:	arpl   WORD PTR gs:[ecx+ebp*2+0x6f],si
  40af3f:	outs   dx,BYTE PTR ds:[esi]
  40af40:	add    BYTE PTR [ecx+0x73],al
  40af43:	jae    0x40afaa
  40af45:	ins    DWORD PTR es:[edi],dx
  40af46:	bound  ebp,QWORD PTR [ecx+edi*2+0x54]
  40af4a:	imul   esi,DWORD PTR [esp+ebp*2+0x65],0x72747441
  40af52:	imul   esp,DWORD PTR [edx+0x75],0x41006574
  40af59:	jae    0x40afce
  40af5b:	gs ins DWORD PTR es:[edi],dx
  40af5d:	bound  ebp,QWORD PTR [ecx+edi*2+0x44]
  40af61:	gs jae 0x40afc7
  40af64:	jb     0x40afcf
  40af66:	jo     0x40afdc
  40af68:	imul   ebp,DWORD PTR [edi+0x6e],0x72747441
  40af6f:	imul   esp,DWORD PTR [edx+0x75],0x41006574
  40af76:	jae    0x40afeb
  40af78:	gs ins DWORD PTR es:[edi],dx
  40af7a:	bound  ebp,QWORD PTR [ecx+edi*2+0x44]
  40af7e:	gs popaw 
  40af81:	jne    0x40afef
  40af83:	je     0x40afc6
  40af85:	ins    BYTE PTR es:[edi],dx
  40af86:	imul   esp,DWORD PTR [ecx+0x73],0x72747441
  40af8d:	imul   esp,DWORD PTR [edx+0x75],0x41006574
  40af94:	jae    0x40b009
  40af96:	gs ins DWORD PTR es:[edi],dx
  40af98:	bound  ebp,QWORD PTR [ecx+edi*2+0x43]
  40af9c:	outs   dx,DWORD PTR ds:[esi]
  40af9d:	ins    DWORD PTR es:[edi],dx
  40af9e:	jo     0x40b001
  40afa0:	outs   dx,BYTE PTR ds:[esi]
  40afa1:	jns    0x40afe4
  40afa3:	je     0x40b019
  40afa5:	jb     0x40b010
  40afa7:	bound  esi,QWORD PTR [ebp+0x74]
  40afaa:	add    BYTE PTR gs:[ecx+0x73],al
  40afae:	jae    0x40b015
  40afb0:	ins    DWORD PTR es:[edi],dx
  40afb1:	bound  ebp,QWORD PTR [ecx+edi*2+0x50]
  40afb5:	jb     0x40b026
  40afb7:	fs jne 0x40b01d
  40afba:	je     0x40affd
  40afbc:	je     0x40b032
  40afbe:	jb     0x40b029
  40afc0:	bound  esi,QWORD PTR [ebp+0x74]
  40afc3:	add    BYTE PTR gs:[ecx+0x73],al
  40afc7:	jae    0x40b02e
  40afc9:	ins    DWORD PTR es:[edi],dx
  40afca:	bound  ebp,QWORD PTR [ecx+edi*2+0x43]
  40afce:	outs   dx,DWORD PTR ds:[esi]
  40afcf:	jo     0x40b04a
  40afd1:	jb     0x40b03c
  40afd3:	addr16 push 0x74744174
  40afd9:	jb     0x40b044
  40afdb:	bound  esi,QWORD PTR [ebp+0x74]
  40afde:	add    BYTE PTR gs:[ecx+0x73],al
  40afe2:	jae    0x40b049
  40afe4:	ins    DWORD PTR es:[edi],dx
  40afe5:	bound  ebp,QWORD PTR [ecx+edi*2+0x56]
  40afe9:	gs jb  0x40b05f
  40afec:	imul   ebp,DWORD PTR [edi+0x6e],0x72747441
  40aff3:	imul   esp,DWORD PTR [edx+0x75],0x41006574
  40affa:	jae    0x40b06f
  40affc:	gs ins DWORD PTR es:[edi],dx
  40affe:	bound  ebp,QWORD PTR [ecx+edi*2+0x46]
  40b002:	imul   ebp,DWORD PTR [ebp+eiz*2+0x56],0x69737265
  40b00a:	outs   dx,DWORD PTR ds:[esi]
  40b00b:	outs   dx,BYTE PTR ds:[esi]
  40b00c:	inc    ecx
  40b00d:	je     0x40b083
  40b00f:	jb     0x40b07a
  40b011:	bound  esi,QWORD PTR [ebp+0x74]
  40b014:	add    BYTE PTR gs:[ecx+0x73],al
  40b018:	jae    0x40b07f
  40b01a:	ins    DWORD PTR es:[edi],dx
  40b01b:	bound  ebp,QWORD PTR [ecx+edi*2+0x49]
  40b01f:	outs   dx,BYTE PTR ds:[esi]
  40b020:	outs   dx,WORD PTR ds:[esi]
  40b022:	jb     0x40b091
  40b024:	popa   
  40b025:	je     0x40b090
  40b027:	outs   dx,DWORD PTR ds:[esi]
  40b028:	outs   dx,BYTE PTR ds:[esi]
  40b029:	popa   
  40b02a:	ins    BYTE PTR es:[edi],dx
  40b02b:	push   esi
  40b02c:	gs jb  0x40b0a2
  40b02f:	imul   ebp,DWORD PTR [edi+0x6e],0x72747441
  40b036:	imul   esp,DWORD PTR [edx+0x75],0x53006574
  40b03d:	popa   
  40b03e:	je     0x40b0a5
  40b040:	ins    BYTE PTR es:[edi],dx
  40b041:	ins    BYTE PTR es:[edi],dx
  40b042:	imul   esi,DWORD PTR [ebp+eiz*2+0x43],0x72746e6f
  40b04a:	popa   
  40b04b:	arpl   WORD PTR [esi+edx*2+0x65],si
  40b04f:	jb     0x40b0c4
  40b051:	imul   ebp,DWORD PTR [edi+0x6e],0x72747441
  40b058:	imul   esp,DWORD PTR [edx+0x75],0x4e006574
  40b05f:	gs jne 0x40b0d6
  40b062:	jb     0x40b0c5
  40b064:	ins    BYTE PTR es:[edi],dx
  40b065:	push   edx
  40b066:	gs jae 0x40b0d8
  40b069:	jne    0x40b0dd
  40b06b:	arpl   WORD PTR [ebp+0x73],sp
  40b06e:	dec    esp
  40b06f:	popa   
  40b070:	outs   dx,BYTE PTR ds:[esi]
  40b071:	addr16 jne 0x40b0d5
  40b074:	addr16 gs inc ecx
  40b077:	je     0x40b0ed
  40b079:	jb     0x40b0e4
  40b07b:	bound  esi,QWORD PTR [ebp+0x74]
  40b07e:	add    BYTE PTR gs:[ecx+0x73],al
  40b082:	jae    0x40b0e9
  40b084:	ins    DWORD PTR es:[edi],dx
  40b085:	bound  ebp,QWORD PTR [ecx+edi*2+0x44]
  40b089:	gs ins BYTE PTR es:[edi],dx
  40b08b:	popa   
  40b08c:	jns    0x40b0e1
  40b08e:	imul   esp,DWORD PTR [edi+0x6e],0x72747441
  40b095:	imul   esp,DWORD PTR [edx+0x75],0x41006574
  40b09c:	jae    0x40b111
  40b09e:	gs ins DWORD PTR es:[edi],dx
  40b0a0:	bound  ebp,QWORD PTR [ecx+edi*2+0x4b]
  40b0a4:	gs jns 0x40b0ed
  40b0a7:	imul   ebp,DWORD PTR [ebp+eiz*2+0x41],0x69727474
  40b0af:	bound  esi,QWORD PTR [ebp+0x74]
  40b0b2:	add    BYTE PTR gs:[ecx+0x73],al
  40b0b6:	jae    0x40b11d
  40b0b8:	ins    DWORD PTR es:[edi],dx
  40b0b9:	bound  ebp,QWORD PTR [ecx+edi*2+0x53]
  40b0bd:	imul   esp,DWORD PTR [edi+0x6e],0x72757461
  40b0c4:	gs dec ebx
  40b0c6:	gs jns 0x40b10a
  40b0c9:	je     0x40b13f
  40b0cb:	jb     0x40b136
  40b0cd:	bound  esi,QWORD PTR [ebp+0x74]
  40b0d0:	add    BYTE PTR gs:[edx+0x75],dl
  40b0d4:	outs   dx,BYTE PTR ds:[esi]
  40b0d5:	je     0x40b140
  40b0d7:	ins    DWORD PTR es:[edi],dx
  40b0d8:	gs inc ebx
  40b0da:	outs   dx,DWORD PTR ds:[esi]
  40b0db:	ins    DWORD PTR es:[edi],dx
  40b0dc:	jo     0x40b13f
  40b0de:	je     0x40b149
  40b0e0:	bound  ebp,QWORD PTR [ecx+0x6c]
  40b0e3:	imul   esi,DWORD PTR [ecx+edi*2+0x41],0x69727474
  40b0eb:	bound  esi,QWORD PTR [ebp+0x74]
  40b0ee:	add    BYTE PTR gs:[ecx+0x6e],cl
  40b0f2:	je     0x40b159
  40b0f4:	jb     0x40b164
  40b0f6:	popa   
  40b0f7:	ins    BYTE PTR es:[edi],dx
  40b0f8:	jae    0x40b150
  40b0fa:	imul   esi,DWORD PTR [ebx+0x69],0x54656c62
  40b101:	outs   dx,DWORD PTR ds:[esi]
  40b102:	inc    ecx
  40b103:	je     0x40b179
  40b105:	jb     0x40b170
  40b107:	bound  esi,QWORD PTR [ebp+0x74]
  40b10a:	add    BYTE PTR gs:[ebp+eiz*2+0x62],al
  40b10f:	jne    0x40b178
  40b111:	addr16 popa 
  40b113:	bound  ebp,QWORD PTR [ebp+eiz*2+0x41]
  40b117:	je     0x40b18d
  40b119:	jb     0x40b184
  40b11b:	bound  esi,QWORD PTR [ebp+0x74]
  40b11e:	add    BYTE PTR gs:[ebp+eiz*2+0x62],al
  40b123:	jne    0x40b18c
  40b125:	imul   ebp,DWORD PTR [bp+0x67],0x65646f4d
  40b12d:	jae    0x40b12f
  40b12f:	inc    ebx
  40b130:	outs   dx,DWORD PTR ds:[esi]
  40b131:	ins    DWORD PTR es:[edi],dx
  40b132:	jo     0x40b19d
  40b134:	ins    BYTE PTR es:[edi],dx
  40b135:	popa   
  40b136:	je     0x40b1a1
  40b138:	outs   dx,DWORD PTR ds:[esi]
  40b139:	outs   dx,BYTE PTR ds:[esi]
  40b13a:	push   edx
  40b13b:	gs ins BYTE PTR es:[edi],dx
  40b13d:	popa   
  40b13e:	js     0x40b1a1
  40b140:	je     0x40b1ab
  40b142:	outs   dx,DWORD PTR ds:[esi]
  40b143:	outs   dx,BYTE PTR ds:[esi]
  40b144:	jae    0x40b187
  40b146:	je     0x40b1bc
  40b148:	jb     0x40b1b3
  40b14a:	bound  esi,QWORD PTR [ebp+0x74]
  40b14d:	add    BYTE PTR gs:[ebp+0x74],ch
  40b151:	je     0x40b1b4
  40b153:	add    BYTE PTR [edi+esi*2+0x48],ah
  40b157:	imul   esp,DWORD PTR [edi+0x68],0x65746144
  40b15e:	push   esp
  40b15f:	imul   ebp,DWORD PTR [ebp+0x65],0x4c776400
  40b166:	outs   dx,DWORD PTR ds:[esi]
  40b167:	ja     0x40b1ad
  40b169:	popa   
  40b16a:	je     0x40b1d1
  40b16c:	push   esp
  40b16d:	imul   ebp,DWORD PTR [ebp+0x65],0x6f724600
  40b174:	ins    DWORD PTR es:[edi],dx
  40b175:	inc    esi
  40b176:	imul   ebp,DWORD PTR [ebp+eiz*2+0x54],0x656d69
  40b17e:	inc    esp
  40b17f:	ins    BYTE PTR es:[edi],dx
  40b180:	ins    BYTE PTR es:[edi],dx
  40b181:	dec    ecx
  40b182:	ins    DWORD PTR es:[edi],dx
  40b183:	jo     0x40b1f4
  40b185:	jb     0x40b1fb
  40b187:	inc    ecx
  40b188:	je     0x40b1fe
  40b18a:	jb     0x40b1f5
  40b18c:	bound  esi,QWORD PTR [ebp+0x74]
  40b18f:	add    BYTE PTR gs:[ebp+0x73],dh
  40b193:	gs jb  0x40b1c9
  40b196:	xor    ch,BYTE PTR [esi]
  40b198:	fs ins BYTE PTR es:[edi],dx
  40b19a:	ins    BYTE PTR es:[edi],dx
  40b19b:	add    BYTE PTR [edi+0x73],dh
  40b19e:	arpl   WORD PTR [ecx+ebp*2+0x65],bp
  40b1a2:	outs   dx,BYTE PTR ds:[esi]
  40b1a3:	je     0x40b1d3
  40b1a5:	fs ins BYTE PTR es:[edi],dx
  40b1a7:	ins    BYTE PTR es:[edi],dx
  40b1a8:	add    BYTE PTR [ebx+0x74],dl
  40b1ab:	jb     0x40b216
  40b1ad:	outs   dx,BYTE PTR ds:[esi]
  40b1ae:	add    BYTE PTR [bx+di+0x73],cl
  40b1b2:	dec    esi
  40b1b3:	jne    0x40b221
  40b1b5:	ins    BYTE PTR es:[edi],dx
  40b1b6:	dec    edi
  40b1b7:	jb     0x40b210
  40b1b9:	push   0x53657469
  40b1be:	jo     0x40b221
  40b1c0:	arpl   WORD PTR [ebp+0x0],sp
  40b1c3:	inc    ebp
  40b1c4:	outs   dx,BYTE PTR ds:[esi]
  40b1c5:	jbe    0x40b230
  40b1c7:	jb     0x40b238
  40b1c9:	outs   dx,BYTE PTR ds:[esi]
  40b1ca:	ins    DWORD PTR es:[edi],dx
  40b1cb:	outs   dx,BYTE PTR gs:[esi]
  40b1cd:	je     0x40b1cf
  40b1cf:	dec    edi
  40b1d0:	jo     0x40b237
  40b1d2:	jb     0x40b235
  40b1d4:	je     0x40b23f
  40b1d6:	outs   dx,BYTE PTR ds:[esi]
  40b1d7:	addr16 push ebx
  40b1d9:	jns    0x40b24e
  40b1db:	je     0x40b242
  40b1dd:	ins    DWORD PTR es:[edi],dx
  40b1de:	add    BYTE PTR [edi+0x65],ah
  40b1e1:	je     0x40b242
  40b1e3:	dec    edi
  40b1e4:	push   ebx
  40b1e5:	push   esi
  40b1e6:	gs jb  0x40b25c
  40b1e9:	imul   ebp,DWORD PTR [edi+0x6e],0x72655600
  40b1f0:	jae    0x40b25b
  40b1f2:	outs   dx,DWORD PTR ds:[esi]
  40b1f3:	outs   dx,BYTE PTR ds:[esi]
  40b1f4:	add    BYTE PTR [edi+0x65],ah
  40b1f7:	je     0x40b258
  40b1f9:	push   esi
  40b1fa:	gs jb  0x40b270
  40b1fd:	imul   ebp,DWORD PTR [edi+0x6e],0x74656700
  40b204:	pop    edi
  40b205:	dec    ebp
  40b206:	popa   
  40b207:	push   0x6f
  40b209:	jb     0x40b20b
  40b20b:	addr16 gs je 0x40b26e
  40b20f:	dec    ebp
  40b210:	imul   ebp,DWORD PTR [esi+0x6f],0x65670072
  40b217:	je     0x40b278
  40b219:	push   esi
  40b21a:	gs jb  0x40b290
  40b21d:	imul   ebp,DWORD PTR [edi+0x6e],0x69727453
  40b224:	outs   dx,BYTE PTR ds:[esi]
  40b225:	add    BYTE PTR [di+0x69],cl
  40b229:	arpl   WORD PTR [edx+0x6f],si
  40b22c:	jae    0x40b29d
  40b22e:	data16 je 0x40b25f
  40b231:	push   esi
  40b232:	imul   esi,DWORD PTR [ebx+0x75],0x74536c61
  40b239:	jne    0x40b29f
  40b23b:	imul   ebp,DWORD PTR [edi+0x2e],0x74736554
  40b242:	push   esp
  40b243:	outs   dx,DWORD PTR ds:[esi]
  40b244:	outs   dx,DWORD PTR ds:[esi]
  40b245:	ins    BYTE PTR es:[edi],dx
  40b246:	jae    0x40b276
  40b248:	inc    esp
  40b249:	imul   esp,DWORD PTR [ecx+0x67],0x74736f6e
  40b250:	imul   esp,DWORD PTR [ebx+0x73],0x74714500
  40b257:	push   esp
  40b258:	jb     0x40b2bb
  40b25a:	arpl   WORD PTR [ebp+0x0],sp
  40b25d:	push   esi
  40b25e:	gs jb  0x40b2c3
  40b261:	outs   dx,DWORD PTR ds:[esi]
  40b262:	jae    0x40b2c9
  40b264:	add    BYTE PTR [ebp+0x72],al
  40b267:	jb     0x40b2d8
  40b269:	jb     0x40b26b
  40b26b:	inc    edi
  40b26c:	gs je  0x40b2bf
  40b26f:	jb     0x40b2e0
  40b271:	arpl   WORD PTR [ebp+0x73],sp
  40b274:	jae    0x40b2db
  40b276:	jae    0x40b2ba
  40b278:	jns    0x40b2c8
  40b27a:	popa   
  40b27b:	ins    DWORD PTR es:[edi],dx
  40b27c:	add    BYTE PTR gs:[edi+0x65],ah
  40b280:	je     0x40b2e1
  40b282:	dec    ecx
  40b283:	add    BYTE PTR fs:[ecx+0x6e],cl
  40b287:	je     0x40b2bc
  40b289:	xor    al,BYTE PTR [eax]
  40b28b:	addr16 gs je 0x40b2ee
  40b28f:	push   eax
  40b290:	jb     0x40b301
  40b292:	arpl   WORD PTR [ebp+0x73],sp
  40b295:	jae    0x40b2e5
  40b297:	popa   
  40b298:	ins    DWORD PTR es:[edi],dx
  40b299:	add    BYTE PTR gs:[ecx+0x6e],cl
  40b29d:	outs   dx,WORD PTR ds:[esi]
  40b29f:	add    BYTE PTR [ebx+0x69],cl
  40b2a2:	ins    BYTE PTR es:[edi],dx
  40b2a3:	ins    BYTE PTR es:[edi],dx
  40b2a4:	add    BYTE PTR [edi+0x61],dl
  40b2a7:	imul   esi,DWORD PTR [esi+eax*2+0x6f],0x69784572
  40b2af:	je     0x40b2b1
  40b2b1:	push   edi
  40b2b2:	popa   
  40b2b3:	jb     0x40b323
  40b2b5:	imul   ebp,DWORD PTR [esi+0x67],0x74615000
  40b2bc:	push   0x6d6f4300
  40b2c1:	bound  ebp,QWORD PTR [ecx+0x6e]
  40b2c4:	add    BYTE PTR gs:[edi+0x65],al
  40b2c8:	je     0x40b310
  40b2ca:	jne    0x40b338
  40b2cc:	ins    BYTE PTR es:[edi],dx
  40b2cd:	push   eax
  40b2ce:	popa   
  40b2cf:	je     0x40b339
  40b2d1:	add    BYTE PTR [ebx+0x6f],al
  40b2d4:	outs   dx,BYTE PTR ds:[esi]
  40b2d5:	arpl   WORD PTR [ecx+0x74],sp
  40b2d8:	add    BYTE PTR [edx+esi*2+0x61],dl
  40b2dc:	arpl   WORD PTR [ebp+0x4c],sp
  40b2df:	gs jbe 0x40b347
  40b2e2:	ins    BYTE PTR es:[edi],dx
  40b2e3:	add    BYTE PTR [edi+0x65],ah
  40b2e6:	je     0x40b347
  40b2e8:	push   esp
  40b2e9:	jb     0x40b34c
  40b2eb:	arpl   WORD PTR [ebp+0x4c],sp
  40b2ee:	gs jbe 0x40b356
  40b2f1:	ins    BYTE PTR es:[edi],dx
  40b2f2:	add    BYTE PTR [edi+ebp*2+0x53],dl
  40b2f6:	je     0x40b36a
  40b2f8:	imul   ebp,DWORD PTR [esi+0x67],0x6f725000
  40b2ff:	arpl   WORD PTR [ebp+0x73],sp
  40b302:	jae    0x40b357
  40b304:	je     0x40b367
  40b306:	jb     0x40b37c
  40b308:	dec    ecx
  40b309:	outs   dx,BYTE PTR ds:[esi]
  40b30a:	outs   dx,WORD PTR ds:[esi]
  40b30c:	add    BYTE PTR [ebx+0x74],dl
  40b30f:	popa   
  40b310:	jb     0x40b386
  40b312:	add    BYTE PTR [ebx+0x79],dl
  40b315:	jae    0x40b38b
  40b317:	gs ins DWORD PTR es:[edi],dx
  40b319:	inc    ebp
  40b31a:	js     0x40b37f
  40b31c:	gs jo  0x40b393
  40b31f:	imul   ebp,DWORD PTR [edi+0x6e],0x766e4900
  40b326:	popa   
  40b327:	ins    BYTE PTR es:[edi],dx
  40b328:	imul   esp,DWORD PTR [edi+ecx*2+0x70],0x74617265
  40b330:	imul   ebp,DWORD PTR [edi+0x6e],0x65637845
  40b337:	jo     0x40b3ad
  40b339:	imul   ebp,DWORD PTR [edi+0x6e],0x74654700
  40b340:	inc    ebx
  40b341:	jne    0x40b3b5
  40b343:	jb     0x40b3aa
  40b345:	outs   dx,BYTE PTR ds:[esi]
  40b346:	je     0x40b398
  40b348:	jb     0x40b3b9
  40b34a:	arpl   WORD PTR [ebp+0x73],sp
  40b34d:	jae    0x40b34f
  40b34f:	push   eax
  40b350:	jb     0x40b3c1
  40b352:	arpl   WORD PTR [ebp+0x73],sp
  40b355:	jae    0x40b3a4
  40b357:	outs   dx,DWORD PTR ds:[esi]
  40b358:	fs jne 0x40b3c7
  40b35b:	add    BYTE PTR gs:[edi+0x65],ah
  40b35f:	je     0x40b3c0
  40b361:	dec    ebp
  40b362:	popa   
  40b363:	imul   ebp,DWORD PTR [esi+0x4d],0x6c75646f
  40b36a:	add    BYTE PTR gs:[edi+0x65],ah
  40b36e:	je     0x40b3cf
  40b370:	inc    esi
  40b371:	imul   ebp,DWORD PTR [ebp+eiz*2+0x4e],0x656d61
  40b379:	inc    edi
  40b37a:	gs je  0x40b3c1
  40b37d:	imul   esi,DWORD PTR [edx+0x65],0x726f7463
  40b384:	jns    0x40b3d4
  40b386:	popa   
  40b387:	ins    DWORD PTR es:[edi],dx
  40b388:	add    BYTE PTR gs:[ebx+0x65],dh
  40b38c:	je     0x40b3ed
  40b38e:	inc    ebp
  40b38f:	outs   dx,BYTE PTR ds:[esi]
  40b390:	popa   
  40b391:	bound  ebp,QWORD PTR [ebp+eiz*2+0x52]
  40b395:	popa   
  40b396:	imul   esi,DWORD PTR [ebx+0x69],0x7645676e
  40b39d:	outs   dx,BYTE PTR gs:[esi]
  40b39f:	je     0x40b414
  40b3a1:	add    BYTE PTR [ebp+0x76],al
  40b3a4:	outs   dx,BYTE PTR gs:[esi]
  40b3a6:	je     0x40b3f0
  40b3a8:	popa   
  40b3a9:	outs   dx,BYTE PTR ds:[esi]
  40b3aa:	fs ins BYTE PTR es:[edi],dx
  40b3ac:	gs jb  0x40b3af
  40b3af:	popa   
  40b3b0:	fs fs pop edi
  40b3b3:	inc    ebp
  40b3b4:	js     0x40b41f
  40b3b6:	je     0x40b41d
  40b3b8:	add    BYTE PTR fs:[ebx+0x6c],al
  40b3bc:	outs   dx,DWORD PTR ds:[esi]
  40b3bd:	jae    0x40b424
  40b3bf:	add    BYTE PTR [esi+ebp*1],bh
  40b3c2:	arpl   WORD PTR [edi+ebp*2+0x72],si
  40b3c6:	bound  ebx,QWORD PTR ds:[edi+0x5f]
  40b3ca:	xor    BYTE PTR [eax],al
  40b3cc:	jae    0x40b442
  40b3ce:	popa   
  40b3cf:	je     0x40b436
  40b3d1:	add    BYTE PTR [edi+0x61],dl
  40b3d4:	imul   esi,DWORD PTR [ebx+eax*2+0x61],0x61626c6c
  40b3dc:	arpl   WORD PTR [ebx+0x0],bp
  40b3df:	inc    ebx
  40b3e0:	push   ebx
  40b3e1:	and    al,0x3c
  40b3e3:	cmp    DWORD PTR ds:[edi+0x5f],ebx
  40b3e7:	inc    ebx
  40b3e8:	popa   
  40b3e9:	arpl   WORD PTR [eax+0x65],bp
  40b3ec:	fs inc ecx
  40b3ee:	outs   dx,BYTE PTR ds:[esi]
  40b3ef:	outs   dx,DWORD PTR ds:[esi]
  40b3f0:	outs   dx,BYTE PTR ds:[esi]
  40b3f1:	jns    0x40b460
  40b3f3:	outs   dx,DWORD PTR ds:[esi]
  40b3f4:	jne    0x40b469
  40b3f6:	dec    ebp
  40b3f7:	gs je  0x40b462
  40b3fa:	outs   dx,DWORD PTR ds:[esi]
  40b3fb:	fs inc esp
  40b3fd:	gs ins BYTE PTR es:[edi],dx
  40b3ff:	gs addr16 popa 
  40b402:	je     0x40b469
  40b404:	xor    DWORD PTR [eax],eax
  40b406:	inc    ebx
  40b407:	outs   dx,DWORD PTR ds:[esi]
  40b408:	ins    DWORD PTR es:[edi],dx
  40b409:	jo     0x40b474
  40b40b:	ins    BYTE PTR es:[edi],dx
  40b40c:	gs jb  0x40b456
  40b40f:	outs   dx,BYTE PTR gs:[esi]
  40b411:	gs jb  0x40b475
  40b414:	je     0x40b47b
  40b416:	fs inc ecx
  40b418:	je     0x40b48e
  40b41a:	jb     0x40b485
  40b41c:	bound  esi,QWORD PTR [ebp+0x74]
  40b41f:	add    BYTE PTR gs:[ecx+eiz*2+0x74],al
  40b424:	popa   
  40b425:	inc    ebx
  40b426:	outs   dx,DWORD PTR ds:[esi]
  40b427:	ins    BYTE PTR es:[edi],dx
  40b428:	ins    BYTE PTR es:[edi],dx
  40b429:	arpl   WORD PTR gs:[edi+ebp*2+0x72],si
  40b42e:	inc    ebx
  40b42f:	popa   
  40b430:	arpl   WORD PTR [eax+0x65],bp
  40b433:	add    BYTE PTR [ebx+0x79],dl
  40b436:	jae    0x40b4ac
  40b438:	gs ins DWORD PTR es:[edi],dx
  40b43a:	cs inc ebx
  40b43c:	outs   dx,DWORD PTR ds:[esi]
  40b43d:	ins    BYTE PTR es:[edi],dx
  40b43e:	ins    BYTE PTR es:[edi],dx
  40b43f:	arpl   WORD PTR gs:[ecx+ebp*2+0x6f],si
  40b444:	outs   dx,BYTE PTR ds:[esi]
  40b445:	jae    0x40b475
  40b447:	dec    edi
  40b448:	bound  ebp,QWORD PTR [edx+0x65]
  40b44b:	arpl   WORD PTR [ebp+ecx*2+0x6f],si
  40b44f:	fs gs ins BYTE PTR es:[edi],dx
  40b452:	add    BYTE PTR [edx+0x65],dl
  40b455:	popa   
  40b456:	fs dec edi
  40b458:	outs   dx,BYTE PTR ds:[esi]
  40b459:	ins    BYTE PTR es:[edi],dx
  40b45a:	jns    0x40b49f
  40b45c:	outs   dx,DWORD PTR ds:[esi]
  40b45d:	ins    BYTE PTR es:[edi],dx
  40b45e:	ins    BYTE PTR es:[edi],dx
  40b45f:	arpl   WORD PTR gs:[ecx+ebp*2+0x6f],si
  40b464:	outs   dx,BYTE PTR ds:[esi]
  40b465:	pusha  
  40b466:	xor    DWORD PTR [eax],eax
  40b468:	inc    esp
  40b469:	popa   
  40b46a:	je     0x40b4cd
  40b46c:	inc    ebx
  40b46d:	outs   dx,DWORD PTR ds:[esi]
  40b46e:	ins    BYTE PTR es:[edi],dx
  40b46f:	ins    BYTE PTR es:[edi],dx
  40b470:	arpl   WORD PTR gs:[edi+ebp*2+0x72],si
  40b475:	dec    ecx
  40b476:	outs   dx,BYTE PTR ds:[esi]
  40b477:	outs   dx,WORD PTR ds:[esi]
  40b479:	jb     0x40b4e8
  40b47b:	popa   
  40b47c:	je     0x40b4e7
  40b47e:	outs   dx,DWORD PTR ds:[esi]
  40b47f:	outs   dx,BYTE PTR ds:[esi]
  40b480:	add    BYTE PTR [edi+0x65],al
  40b483:	je     0x40b4c6
  40b485:	ins    BYTE PTR es:[edi],dx
  40b486:	ins    BYTE PTR es:[edi],dx
  40b487:	inc    ebx
  40b488:	outs   dx,DWORD PTR ds:[esi]
  40b489:	ins    BYTE PTR es:[edi],dx
  40b48a:	ins    BYTE PTR es:[edi],dx
  40b48b:	arpl   WORD PTR gs:[edi+ebp*2+0x72],si
  40b490:	dec    ecx
  40b491:	outs   dx,BYTE PTR ds:[esi]
  40b492:	outs   dx,WORD PTR ds:[esi]
  40b494:	jb     0x40b503
  40b496:	popa   
  40b497:	je     0x40b502
  40b499:	outs   dx,DWORD PTR ds:[esi]
  40b49a:	outs   dx,BYTE PTR ds:[esi]
  40b49b:	add    BYTE PTR [eax+ebp*2+0x72],dl
  40b49f:	gs popa 
  40b4a1:	fs push eax
  40b4a3:	outs   dx,DWORD PTR ds:[esi]
  40b4a4:	outs   dx,DWORD PTR ds:[esi]
  40b4a5:	ins    BYTE PTR es:[edi],dx
  40b4a6:	add    BYTE PTR [ecx+0x75],dl
  40b4a9:	gs jne 0x40b511
  40b4ac:	push   ebp
  40b4ad:	jae    0x40b514
  40b4af:	jb     0x40b508
  40b4b1:	outs   dx,DWORD PTR ds:[esi]
  40b4b2:	jb     0x40b51f
  40b4b4:	dec    ecx
  40b4b5:	je     0x40b51c
  40b4b7:	ins    DWORD PTR es:[edi],dx
  40b4b8:	add    BYTE PTR [esi+edi*1],bh
  40b4bb:	arpl   WORD PTR [edi+0x5f],bx
  40b4be:	inc    esp
  40b4bf:	imul   esi,DWORD PTR [ebx+0x70],0x4379616c
  40b4c6:	ins    BYTE PTR es:[edi],dx
  40b4c7:	popa   
  40b4c8:	jae    0x40b53d
  40b4ca:	xor    eax,DWORD PTR [eax]
  40b4cc:	cmp    al,0x3e
  40b4ce:	xor    al,0x5f
  40b4d0:	pop    edi
  40b4d1:	je     0x40b53b
  40b4d3:	imul   esi,DWORD PTR [ebx+0x0],0x696e493c
  40b4da:	je     0x40b545
  40b4dc:	popa   
  40b4dd:	ins    BYTE PTR es:[edi],dx
  40b4de:	imul   edi,DWORD PTR [edx+0x65],0x73736553
  40b4e5:	imul   ebp,DWORD PTR [edi+0x6e],0x5f5f623e
  40b4ec:	xor    al,BYTE PTR [eax]
  40b4ee:	jo     0x40b551
  40b4f0:	jb     0x40b553
  40b4f2:	ins    DWORD PTR es:[edi],dx
  40b4f3:	xor    BYTE PTR [eax],al
  40b4f5:	push   edx
  40b4f6:	gs jae 0x40b568
  40b4f9:	jne    0x40b56d
  40b4fb:	arpl   WORD PTR [ebp+0x73],sp
  40b4fe:	add    BYTE PTR [edi+0x65],ah
  40b501:	je     0x40b562
  40b503:	dec    ecx
  40b504:	outs   dx,BYTE PTR ds:[esi]
  40b505:	imul   esi,DWORD PTR [ecx+ebp*2+0x61],0x657a696c
  40b50d:	push   ebx
  40b50e:	gs jae 0x40b584
  40b511:	imul   ebp,DWORD PTR [edi+0x6e],0x6f727245
  40b518:	jb     0x40b51a
  40b51a:	inc    esp
  40b51b:	popa   
  40b51c:	je     0x40b57f
  40b51e:	inc    ebx
  40b51f:	outs   dx,DWORD PTR ds:[esi]
  40b520:	ins    BYTE PTR es:[edi],dx
  40b521:	ins    BYTE PTR es:[edi],dx
  40b522:	arpl   WORD PTR gs:[edi+ebp*2+0x72],si
  40b527:	dec    ecx
  40b528:	outs   dx,BYTE PTR ds:[esi]
  40b529:	jbe    0x40b58c
  40b52b:	ins    BYTE PTR es:[edi],dx
  40b52c:	imul   esp,DWORD PTR [edi+ecx*2+0x70],0x74617265
  40b534:	imul   ebp,DWORD PTR [edi+0x6e],0x65637845
  40b53b:	jo     0x40b5b1
  40b53d:	imul   ebp,DWORD PTR [edi+0x6e],0x74614400
  40b544:	popa   
  40b545:	inc    ebx
  40b546:	outs   dx,DWORD PTR ds:[esi]
  40b547:	ins    BYTE PTR es:[edi],dx
  40b548:	ins    BYTE PTR es:[edi],dx
  40b549:	arpl   WORD PTR gs:[edi+ebp*2+0x72],si
  40b54e:	dec    eax
  40b54f:	outs   dx,DWORD PTR ds:[esi]
  40b550:	jae    0x40b5c6
  40b552:	inc    esi
  40b553:	popa   
  40b554:	jne    0x40b5c2
  40b556:	je     0x40b558
  40b558:	inc    esp
  40b559:	popa   
  40b55a:	je     0x40b5bd
  40b55c:	inc    ebx
  40b55d:	outs   dx,DWORD PTR ds:[esi]
  40b55e:	ins    BYTE PTR es:[edi],dx
  40b55f:	ins    BYTE PTR es:[edi],dx
  40b560:	arpl   WORD PTR gs:[edi+ebp*2+0x72],si
  40b565:	dec    ecx
  40b566:	outs   dx,BYTE PTR ds:[esi]
  40b567:	jbe    0x40b5ca
  40b569:	ins    BYTE PTR es:[edi],dx
  40b56a:	imul   esp,DWORD PTR [edi+ecx*2+0x70],0x74617265
  40b572:	imul   ebp,DWORD PTR [edi+0x6e],0x63784500
  40b579:	gs jo  0x40b5f0
  40b57c:	imul   ebp,DWORD PTR [edi+0x6e],0x72685400
  40b583:	outs   dx,DWORD PTR ds:[esi]
  40b584:	ja     0x40b5cc
  40b586:	popa   
  40b587:	jne    0x40b5f5
  40b589:	je     0x40b5d0
  40b58b:	js     0x40b5f0
  40b58d:	gs jo  0x40b604
  40b590:	imul   ebp,DWORD PTR [edi+0x6e],0x73795300
  40b597:	je     0x40b5fe
  40b599:	ins    DWORD PTR es:[edi],dx
  40b59a:	cs inc ebx
  40b59c:	outs   dx,DWORD PTR ds:[esi]
  40b59d:	outs   dx,BYTE PTR ds:[esi]
  40b59e:	imul   sp,WORD PTR [edi+0x75],0x6172
  40b5a4:	je     0x40b60f
  40b5a6:	outs   dx,DWORD PTR ds:[esi]
  40b5a7:	outs   dx,BYTE PTR ds:[esi]
  40b5a8:	add    BYTE PTR [ebx+0x6f],al
  40b5ab:	outs   dx,BYTE PTR ds:[esi]
  40b5ac:	imul   sp,WORD PTR [edi+0x75],0x6172
  40b5b2:	je     0x40b61d
  40b5b4:	outs   dx,DWORD PTR ds:[esi]
  40b5b5:	outs   dx,BYTE PTR ds:[esi]
  40b5b6:	dec    ebp
  40b5b7:	popa   
  40b5b8:	outs   dx,BYTE PTR ds:[esi]
  40b5b9:	popa   
  40b5ba:	addr16 gs jb 0x40b5be
  40b5be:	push   ebx
  40b5bf:	jns    0x40b634
  40b5c1:	je     0x40b628
  40b5c3:	ins    DWORD PTR es:[edi],dx
  40b5c4:	cs inc ebx
  40b5c6:	outs   dx,DWORD PTR ds:[esi]
  40b5c7:	ins    BYTE PTR es:[edi],dx
  40b5c8:	ins    BYTE PTR es:[edi],dx
  40b5c9:	arpl   WORD PTR gs:[ecx+ebp*2+0x6f],si
  40b5ce:	outs   dx,BYTE PTR ds:[esi]
  40b5cf:	jae    0x40b5ff
  40b5d1:	push   ebx
  40b5d2:	jo     0x40b639
  40b5d4:	arpl   WORD PTR [ecx+0x61],bp
  40b5d7:	ins    BYTE PTR es:[edi],dx
  40b5d8:	imul   edi,DWORD PTR [edx+0x65],0x614e0064
  40b5df:	ins    DWORD PTR es:[edi],dx
  40b5e0:	gs push esi
  40b5e2:	popa   
  40b5e3:	ins    BYTE PTR es:[edi],dx
  40b5e4:	jne    0x40b64b
  40b5e6:	inc    ebx
  40b5e7:	outs   dx,DWORD PTR ds:[esi]
  40b5e8:	ins    BYTE PTR es:[edi],dx
  40b5e9:	ins    BYTE PTR es:[edi],dx
  40b5ea:	arpl   WORD PTR gs:[ecx+ebp*2+0x6f],si
  40b5ef:	outs   dx,BYTE PTR ds:[esi]
  40b5f0:	add    BYTE PTR [edi+0x65],ah
  40b5f3:	je     0x40b654
  40b5f5:	inc    ecx
  40b5f6:	jo     0x40b668
  40b5f8:	push   ebx
  40b5f9:	gs je  0x40b670
  40b5fc:	imul   ebp,DWORD PTR [esi+0x67],0x70410073
  40b603:	jo     0x40b658
  40b605:	gs je  0x40b67c
  40b608:	imul   ebp,DWORD PTR [esi+0x67],0x6c654873
  40b60f:	jo     0x40b676
  40b611:	jb     0x40b613
  40b613:	inc    edi
  40b614:	gs je  0x40b660
  40b617:	outs   dx,BYTE PTR ds:[esi]
  40b618:	je     0x40b67f
  40b61a:	addr16 gs jb 0x40b674
  40b61e:	popa   
  40b61f:	ins    BYTE PTR es:[edi],dx
  40b620:	jne    0x40b687
  40b622:	inc    esi
  40b623:	jb     0x40b694
  40b625:	ins    DWORD PTR es:[edi],dx
  40b626:	push   ebx
  40b627:	gs je  0x40b69e
  40b62a:	imul   ebp,DWORD PTR [esi+0x67],0x67410073
  40b631:	outs   dx,BYTE PTR gs:[esi]
  40b633:	je     0x40b679
  40b635:	gs popaw 
  40b638:	jne    0x40b6a6
  40b63a:	je     0x40b6af
  40b63c:	add    BYTE PTR [edi+0x65],ah
  40b63f:	je     0x40b6a0
  40b641:	dec    ebp
  40b642:	popa   
  40b643:	js     0x40b6ae
  40b645:	ins    DWORD PTR es:[edi],dx
  40b646:	jne    0x40b6b5
  40b648:	push   esp
  40b649:	gs jae 0x40b6c0
  40b64c:	push   esp
  40b64d:	push   0x64616572
  40b652:	push   ebx
  40b653:	je     0x40b6b6
  40b655:	arpl   WORD PTR [ebx+0x53],bp
  40b658:	imul   edi,DWORD PTR [edx+0x65],0x65725000
  40b65f:	imul   esp,DWORD PTR fs:[ebx+0x61],0x31606574
  40b667:	add    BYTE PTR [ebx+0x6f],al
  40b66a:	outs   dx,BYTE PTR ds:[esi]
  40b66b:	imul   sp,WORD PTR [edi+0x75],0x6172
  40b671:	je     0x40b6dc
  40b673:	outs   dx,DWORD PTR ds:[esi]
  40b674:	outs   dx,BYTE PTR ds:[esi]
  40b675:	inc    ebp
  40b676:	jb     0x40b6ea
  40b678:	outs   dx,DWORD PTR ds:[esi]
  40b679:	jb     0x40b6ee
  40b67b:	inc    ebp
  40b67c:	js     0x40b6e1
  40b67e:	gs jo  0x40b6f5
  40b681:	imul   ebp,DWORD PTR [edi+0x6e],0x6d695400
  40b688:	gs dec ebp
  40b68a:	popa   
  40b68b:	jb     0x40b6f8
  40b68d:	gs jb  0x40b690
  40b690:	addr16 gs je 0x40b6f3
  40b694:	push   edx
  40b695:	jne    0x40b705
  40b697:	inc    ebx
  40b698:	outs   dx,DWORD PTR ds:[esi]
  40b699:	outs   dx,BYTE PTR ds:[esi]
  40b69a:	imul   sp,WORD PTR [edi+0x75],0x6172
  40b6a0:	je     0x40b70b
  40b6a2:	outs   dx,DWORD PTR ds:[esi]
  40b6a3:	outs   dx,BYTE PTR ds:[esi]
  40b6a4:	add    BYTE PTR [ecx+0x54],dl
  40b6a7:	dec    ebp
  40b6a8:	gs popa 
  40b6aa:	jae    0x40b721
  40b6ac:	jb     0x40b713
  40b6ae:	ins    DWORD PTR es:[edi],dx
  40b6af:	outs   dx,BYTE PTR gs:[esi]
  40b6b1:	je     0x40b6f5
  40b6b3:	ins    BYTE PTR es:[edi],dx
  40b6b4:	outs   dx,DWORD PTR ds:[esi]
  40b6b5:	arpl   WORD PTR [ebx+0x46],bp
  40b6b8:	popa   
  40b6b9:	arpl   WORD PTR [edi+ebp*2+0x72],si
  40b6bd:	jns    0x40b6bf
  40b6bf:	dec    ecx
  40b6c0:	push   ecx
  40b6c1:	push   esp
  40b6c2:	dec    ebp
  40b6c3:	gs popa 
  40b6c5:	jae    0x40b73c
  40b6c7:	jb     0x40b72e
  40b6c9:	ins    DWORD PTR es:[edi],dx
  40b6ca:	outs   dx,BYTE PTR gs:[esi]
  40b6cc:	je     0x40b710
  40b6ce:	ins    BYTE PTR es:[edi],dx
  40b6cf:	outs   dx,DWORD PTR ds:[esi]
  40b6d0:	arpl   WORD PTR [ebx+0x0],bp
  40b6d3:	inc    edx
  40b6d4:	imul   ebp,DWORD PTR gs:[bp+0x4e],0x44007765
  40b6dd:	popa   
  40b6de:	je     0x40b741
  40b6e0:	inc    ebx
  40b6e1:	outs   dx,DWORD PTR ds:[esi]
  40b6e2:	ins    BYTE PTR es:[edi],dx
  40b6e3:	ins    BYTE PTR es:[edi],dx
  40b6e4:	arpl   WORD PTR gs:[ecx+ebp*2+0x6f],si
  40b6e9:	outs   dx,BYTE PTR ds:[esi]
  40b6ea:	push   edx
  40b6eb:	jne    0x40b75b
  40b6ed:	inc    ebx
  40b6ee:	outs   dx,DWORD PTR ds:[esi]
  40b6ef:	outs   dx,BYTE PTR ds:[esi]
  40b6f0:	je     0x40b757
  40b6f2:	js     0x40b768
  40b6f4:	add    BYTE PTR [ecx+0x43],cl
  40b6f7:	outs   dx,DWORD PTR ds:[esi]
  40b6f8:	outs   dx,BYTE PTR ds:[esi]
  40b6f9:	je     0x40b760
  40b6fb:	js     0x40b771
  40b6fd:	inc    ecx
  40b6fe:	arpl   WORD PTR [ebx+0x65],sp
  40b701:	jae    0x40b776
  40b703:	outs   dx,DWORD PTR ds:[esi]
  40b704:	jb     0x40b706
  40b706:	inc    esp
  40b707:	popa   
  40b708:	je     0x40b76b
  40b70a:	inc    ebx
  40b70b:	outs   dx,DWORD PTR ds:[esi]
  40b70c:	ins    BYTE PTR es:[edi],dx
  40b70d:	ins    BYTE PTR es:[edi],dx
  40b70e:	arpl   WORD PTR gs:[ecx+ebp*2+0x6f],si
  40b713:	outs   dx,BYTE PTR ds:[esi]
  40b714:	inc    ebp
  40b715:	outs   dx,BYTE PTR ds:[esi]
  40b716:	jbe    0x40b781
  40b718:	jb     0x40b789
  40b71a:	outs   dx,BYTE PTR ds:[esi]
  40b71b:	ins    DWORD PTR es:[edi],dx
  40b71c:	outs   dx,BYTE PTR gs:[esi]
  40b71e:	je     0x40b763
  40b720:	outs   dx,DWORD PTR ds:[esi]
  40b721:	outs   dx,BYTE PTR ds:[esi]
  40b722:	je     0x40b789
  40b724:	js     0x40b79a
  40b726:	add    BYTE PTR [ebx+0x72],al
  40b729:	gs popa 
  40b72b:	je     0x40b792
  40b72d:	inc    esi
  40b72e:	outs   dx,DWORD PTR ds:[esi]
  40b72f:	jb     0x40b774
  40b731:	outs   dx,DWORD PTR ds:[esi]
  40b732:	outs   dx,BYTE PTR ds:[esi]
  40b733:	outs   dx,BYTE PTR ds:[esi]
  40b734:	arpl   WORD PTR gs:[ebp+eiz*2+0x64],si
  40b739:	inc    esp
  40b73a:	gs jbe 0x40b7a6
  40b73d:	arpl   WORD PTR [ebp+0x45],sp
  40b740:	outs   dx,BYTE PTR ds:[esi]
  40b741:	jbe    0x40b7ac
  40b743:	jb     0x40b7b4
  40b745:	outs   dx,BYTE PTR ds:[esi]
  40b746:	ins    DWORD PTR es:[edi],dx
  40b747:	outs   dx,BYTE PTR gs:[esi]
  40b749:	je     0x40b74b
  40b74b:	dec    ecx
  40b74c:	inc    esp
  40b74d:	popa   
  40b74e:	je     0x40b7b1
  40b750:	inc    ebx
  40b751:	outs   dx,DWORD PTR ds:[esi]
  40b752:	ins    BYTE PTR es:[edi],dx
  40b753:	ins    BYTE PTR es:[edi],dx
  40b754:	arpl   WORD PTR gs:[ecx+ebp*2+0x6f],si
  40b759:	outs   dx,BYTE PTR ds:[esi]
  40b75a:	push   edx
  40b75b:	jne    0x40b7cb
  40b75d:	inc    ebx
  40b75e:	outs   dx,DWORD PTR ds:[esi]
  40b75f:	outs   dx,BYTE PTR ds:[esi]
  40b760:	je     0x40b7c7
  40b762:	js     0x40b7d8
  40b764:	add    BYTE PTR [ecx+0x43],cl
  40b767:	outs   dx,DWORD PTR ds:[esi]
  40b768:	ins    BYTE PTR es:[edi],dx
  40b769:	ins    BYTE PTR es:[edi],dx
  40b76a:	arpl   WORD PTR gs:[ecx+ebp*2+0x6f],si
  40b76f:	outs   dx,BYTE PTR ds:[esi]
  40b770:	pusha  
  40b771:	xor    DWORD PTR [eax],eax
  40b773:	push   esp
  40b774:	gs jae 0x40b7eb
  40b777:	inc    ebp
  40b778:	js     0x40b7df
  40b77a:	arpl   WORD PTR [ebp+0x74],si
  40b77d:	imul   ebp,DWORD PTR [edi+0x6e],0x69766e45
  40b784:	jb     0x40b7f5
  40b786:	outs   dx,BYTE PTR ds:[esi]
  40b787:	ins    DWORD PTR es:[edi],dx
  40b788:	outs   dx,BYTE PTR gs:[esi]
  40b78a:	je     0x40b7e2
  40b78c:	popa   
  40b78d:	jb     0x40b7f8
  40b78f:	popa   
  40b790:	bound  ebp,QWORD PTR [ebp+eiz*2+0x0]
  40b794:	dec    esp
  40b795:	outs   dx,DWORD PTR ds:[esi]
  40b796:	popa   
  40b797:	fs inc ecx
  40b799:	outs   dx,BYTE PTR ds:[esi]
  40b79a:	fs dec ecx
  40b79c:	outs   dx,BYTE PTR ds:[esi]
  40b79d:	imul   esi,DWORD PTR [esp+eax*2+0x61],0x6f436174
  40b7a5:	ins    BYTE PTR es:[edi],dx
  40b7a6:	ins    BYTE PTR es:[edi],dx
  40b7a7:	arpl   WORD PTR gs:[edi+ebp*2+0x72],si
  40b7ac:	jae    0x40b7ae
  40b7ae:	push   ebx
  40b7af:	outs   dx,BYTE PTR gs:[esi]
  40b7b1:	fs push edx
  40b7b3:	jne    0x40b823
  40b7b5:	push   ebx
  40b7b6:	je     0x40b819
  40b7b8:	jb     0x40b82e
  40b7ba:	gs add BYTE PTR fs:[edi+0x65],ah
  40b7bf:	je     0x40b820
  40b7c1:	dec    ebp
  40b7c2:	gs jae 0x40b838
  40b7c5:	popa   
  40b7c6:	add    BYTE PTR gs:[bp+di+0x65],dl
  40b7cb:	outs   dx,BYTE PTR ds:[esi]
  40b7cc:	fs inc ebp
  40b7ce:	jb     0x40b842
  40b7d0:	outs   dx,DWORD PTR ds:[esi]
  40b7d1:	jb     0x40b7d3
  40b7d3:	push   ebx
  40b7d4:	outs   dx,BYTE PTR gs:[esi]
  40b7d6:	fs push edx
  40b7d8:	jne    0x40b848
  40b7da:	inc    ebx
  40b7db:	outs   dx,DWORD PTR ds:[esi]
  40b7dc:	ins    DWORD PTR es:[edi],dx
  40b7dd:	jo     0x40b84b
  40b7df:	gs je  0x40b847
  40b7e2:	add    BYTE PTR fs:[edi+0x65],ah
  40b7e6:	je     0x40b847
  40b7e8:	inc    ebx
  40b7e9:	jne    0x40b85d
  40b7eb:	jb     0x40b852
  40b7ed:	outs   dx,BYTE PTR ds:[esi]
  40b7ee:	je     0x40b833
  40b7f0:	jne    0x40b85e
  40b7f2:	je     0x40b869
  40b7f4:	jb     0x40b85b
  40b7f6:	add    BYTE PTR [edi+0x65],ah
  40b7f9:	je     0x40b85a
  40b7fb:	push   ebx
  40b7fc:	gs jae 0x40b872
  40b7ff:	imul   ebp,DWORD PTR [edi+0x6e],0x49746f4e
  40b806:	outs   dx,BYTE PTR ds:[esi]
  40b807:	imul   esi,DWORD PTR [ecx+ebp*2+0x61],0x657a696c
  40b80f:	fs inc ebp
  40b811:	jb     0x40b885
  40b813:	outs   dx,DWORD PTR ds:[esi]
  40b814:	jb     0x40b816
  40b816:	dec    ecx
  40b817:	inc    esi
  40b818:	outs   dx,DWORD PTR ds:[esi]
  40b819:	jb     0x40b888
  40b81b:	popa   
  40b81c:	je     0x40b86e
  40b81e:	jb     0x40b88f
  40b820:	jbe    0x40b88b
  40b822:	fs gs jb 0x40b826
  40b826:	inc    esi
  40b827:	outs   dx,DWORD PTR ds:[esi]
  40b828:	jb     0x40b897
  40b82a:	popa   
  40b82b:	je     0x40b82d
  40b82d:	inc    ebx
  40b82e:	ins    BYTE PTR es:[edi],dx
  40b82f:	gs popa 
  40b831:	outs   dx,BYTE PTR ds:[esi]
  40b832:	jne    0x40b8a4
  40b834:	push   eax
  40b835:	ins    BYTE PTR es:[edi],dx
  40b836:	jne    0x40b89f
  40b838:	imul   ebp,DWORD PTR [esi+0x73],0x65674100
  40b83f:	outs   dx,BYTE PTR ds:[esi]
  40b840:	je     0x40b894
  40b842:	jne    0x40b8b0
  40b844:	add    BYTE PTR gs:[edi+0x65],ah
  40b848:	je     0x40b8a9
  40b84a:	inc    ebp
  40b84b:	js     0x40b8b2
  40b84d:	arpl   WORD PTR [ebp+0x74],si
  40b850:	imul   ebp,DWORD PTR [edi+0x6e],0x656c7552
  40b857:	add    BYTE PTR [ebp+eiz*2+0x73],dl
  40b85b:	je     0x40b8af
  40b85d:	jne    0x40b8cd
  40b85f:	inc    esp
  40b860:	gs popaw 
  40b863:	jne    0x40b8d1
  40b865:	je     0x40b8da
  40b867:	add    BYTE PTR [ebp+0x72],dl
  40b86a:	imul   eax,DWORD PTR [eax],0x65726353
  40b870:	outs   dx,BYTE PTR gs:[esi]
  40b872:	inc    ebx
  40b873:	popa   
  40b874:	jo     0x40b8ea
  40b876:	jne    0x40b8ea
  40b878:	gs inc esp
  40b87a:	popa   
  40b87b:	je     0x40b8de
  40b87d:	inc    ebx
  40b87e:	outs   dx,DWORD PTR ds:[esi]
  40b87f:	ins    BYTE PTR es:[edi],dx
  40b880:	ins    BYTE PTR es:[edi],dx
  40b881:	arpl   WORD PTR gs:[edi+ebp*2+0x72],si
  40b886:	push   ebp
  40b887:	jb     0x40b8f2
  40b889:	add    BYTE PTR [ebx+0x63],dl
  40b88c:	jb     0x40b8f3
  40b88e:	outs   dx,BYTE PTR gs:[esi]
  40b890:	inc    ebx
  40b891:	popa   
  40b892:	jo     0x40b908
  40b894:	jne    0x40b908
  40b896:	gs inc esp
  40b898:	popa   
  40b899:	je     0x40b8fc
  40b89b:	inc    ebx
  40b89c:	outs   dx,DWORD PTR ds:[esi]
  40b89d:	ins    BYTE PTR es:[edi],dx
  40b89e:	ins    BYTE PTR es:[edi],dx
  40b89f:	arpl   WORD PTR gs:[edi+ebp*2+0x72],si
  40b8a4:	push   esp
  40b8a5:	jns    0x40b917
  40b8a7:	gs dec esi
  40b8a9:	popa   
  40b8aa:	ins    DWORD PTR es:[edi],dx
  40b8ab:	add    BYTE PTR gs:[ebp+eiz*2+0x66],al
  40b8b0:	popa   
  40b8b1:	jne    0x40b91f
  40b8b3:	je     0x40b8f9
  40b8b5:	popa   
  40b8b6:	je     0x40b919
  40b8b8:	inc    ebx
  40b8b9:	outs   dx,DWORD PTR ds:[esi]
  40b8ba:	ins    BYTE PTR es:[edi],dx
  40b8bb:	ins    BYTE PTR es:[edi],dx
  40b8bc:	arpl   WORD PTR gs:[edi+ebp*2+0x72],si
  40b8c1:	inc    ebx
  40b8c2:	outs   dx,DWORD PTR ds:[esi]
  40b8c3:	outs   dx,BYTE PTR ds:[esi]
  40b8c4:	imul   sp,WORD PTR [edi+0x75],0x6172
  40b8ca:	je     0x40b935
  40b8cc:	outs   dx,DWORD PTR ds:[esi]
  40b8cd:	outs   dx,BYTE PTR ds:[esi]
  40b8ce:	add    BYTE PTR [ecx+0x67],al
  40b8d1:	outs   dx,BYTE PTR gs:[esi]
  40b8d3:	je     0x40b927
  40b8d5:	jne    0x40b943
  40b8d7:	gs inc esp
  40b8d9:	popa   
  40b8da:	je     0x40b93d
  40b8dc:	inc    ebx
  40b8dd:	outs   dx,DWORD PTR ds:[esi]
  40b8de:	ins    BYTE PTR es:[edi],dx
  40b8df:	ins    BYTE PTR es:[edi],dx
  40b8e0:	arpl   WORD PTR gs:[edi+ebp*2+0x72],si
  40b8e5:	add    BYTE PTR [ecx+eiz*2+0x74],al
  40b8e9:	popa   
  40b8ea:	inc    ebx
  40b8eb:	outs   dx,DWORD PTR ds:[esi]
  40b8ec:	ins    BYTE PTR es:[edi],dx
  40b8ed:	ins    BYTE PTR es:[edi],dx
  40b8ee:	arpl   WORD PTR gs:[edi+ebp*2+0x72],si
  40b8f3:	inc    ebx
  40b8f4:	outs   dx,DWORD PTR ds:[esi]
  40b8f5:	outs   dx,BYTE PTR ds:[esi]
  40b8f6:	imul   sp,WORD PTR [edi+0x75],0x6172
  40b8fc:	je     0x40b967
  40b8fe:	outs   dx,DWORD PTR ds:[esi]
  40b8ff:	outs   dx,BYTE PTR ds:[esi]
  40b900:	add    BYTE PTR [ecx+0x64],al
  40b903:	fs inc esp
  40b905:	popa   
  40b906:	je     0x40b969
  40b908:	inc    ebx
  40b909:	outs   dx,DWORD PTR ds:[esi]
  40b90a:	ins    BYTE PTR es:[edi],dx
  40b90b:	ins    BYTE PTR es:[edi],dx
  40b90c:	arpl   WORD PTR gs:[edi+ebp*2+0x72],si
  40b911:	add    BYTE PTR [esi+0x69],dl
  40b914:	fs outs dx,DWORD PTR gs:[esi]
  40b917:	push   edx
  40b918:	arpl   WORD PTR gs:[edi+0x72],bp
  40b91c:	fs gs jb 0x40b970
  40b920:	ins    BYTE PTR es:[edi],dx
  40b921:	jne    0x40b98a
  40b923:	imul   ebp,DWORD PTR [esi+0x55],0x43006972
  40b92a:	outs   dx,DWORD PTR ds:[esi]
  40b92b:	outs   dx,BYTE PTR ds:[esi]
  40b92c:	je     0x40b98f
  40b92e:	imul   ebp,DWORD PTR [esi+0x73],0x61746144
  40b935:	inc    ebx
  40b936:	outs   dx,DWORD PTR ds:[esi]
  40b937:	ins    BYTE PTR es:[edi],dx
  40b938:	ins    BYTE PTR es:[edi],dx
  40b939:	arpl   WORD PTR gs:[edi+ebp*2+0x72],si
  40b93e:	add    BYTE PTR [edx+0x65],dl
  40b941:	ins    DWORD PTR es:[edi],dx
  40b942:	outs   dx,DWORD PTR ds:[esi]
  40b943:	jbe    0x40b9aa
  40b945:	inc    esp
  40b946:	popa   
  40b947:	je     0x40b9aa
  40b949:	inc    ebx
  40b94a:	outs   dx,DWORD PTR ds:[esi]
  40b94b:	ins    BYTE PTR es:[edi],dx
  40b94c:	ins    BYTE PTR es:[edi],dx
  40b94d:	arpl   WORD PTR gs:[edi+ebp*2+0x72],si
  40b952:	add    BYTE PTR [ebx+0x65],dl
  40b955:	outs   dx,BYTE PTR ds:[esi]
  40b956:	fs push edi
  40b958:	popa   
  40b959:	jb     0x40b9c9
  40b95b:	imul   ebp,DWORD PTR [esi+0x67],0x74656700
  40b962:	pop    edi
  40b963:	push   esp
  40b964:	jb     0x40b9c7
  40b966:	arpl   WORD PTR [ebp+0x56],sp
  40b969:	gs jb  0x40b9ce
  40b96c:	outs   dx,DWORD PTR ds:[esi]
  40b96d:	jae    0x40b9d4
  40b96f:	add    BYTE PTR [edi+0x65],al
  40b972:	je     0x40b9b8
  40b974:	popa   
  40b975:	je     0x40b9d8
  40b977:	inc    ebx
  40b978:	outs   dx,DWORD PTR ds:[esi]
  40b979:	ins    BYTE PTR es:[edi],dx
  40b97a:	ins    BYTE PTR es:[edi],dx
  40b97b:	arpl   WORD PTR gs:[edi+ebp*2+0x72],si
  40b980:	jae    0x40b9c5
  40b982:	outs   dx,DWORD PTR ds:[esi]
  40b983:	jo     0x40b9fe
  40b985:	add    BYTE PTR [ecx+0x45],cl
  40b988:	outs   dx,BYTE PTR ds:[esi]
  40b989:	jne    0x40b9f8
  40b98b:	gs jb  0x40b9ef
  40b98e:	je     0x40b9ff
  40b990:	jb     0x40b9f2
  40b992:	xor    DWORD PTR [eax],eax
  40b994:	inc    edi
  40b995:	gs je  0x40b9dd
  40b998:	outs   dx,BYTE PTR ds:[esi]
  40b999:	jne    0x40ba08
  40b99b:	gs jb  0x40b9ff
  40b99e:	je     0x40ba0f
  40b9a0:	jb     0x40b9a2
  40b9a2:	addr16 gs je 0x40ba05
  40b9a6:	inc    ebx
  40b9a7:	jne    0x40ba1b
  40b9a9:	jb     0x40ba10
  40b9ab:	outs   dx,BYTE PTR ds:[esi]
  40b9ac:	je     0x40b9ae
  40b9ae:	addr16 gs je 0x40ba11
  40b9b2:	push   ebp
  40b9b3:	jb     0x40ba1e
  40b9b5:	add    BYTE PTR [ebx+0x79],dl
  40b9b8:	jae    0x40ba2e
  40b9ba:	gs ins DWORD PTR es:[edi],dx
  40b9bc:	cs inc ebx
  40b9be:	outs   dx,DWORD PTR ds:[esi]
  40b9bf:	ins    BYTE PTR es:[edi],dx
  40b9c0:	ins    BYTE PTR es:[edi],dx
  40b9c1:	arpl   WORD PTR gs:[ecx+ebp*2+0x6f],si
  40b9c6:	outs   dx,BYTE PTR ds:[esi]
  40b9c7:	jae    0x40b9c9
  40b9c9:	dec    ecx
  40b9ca:	inc    ebp
  40b9cb:	outs   dx,BYTE PTR ds:[esi]
  40b9cc:	jne    0x40ba3b
  40b9ce:	gs jb  0x40ba32
  40b9d1:	je     0x40ba42
  40b9d3:	jb     0x40b9d5
  40b9d5:	dec    ebp
  40b9d6:	outs   dx,DWORD PTR ds:[esi]
  40b9d7:	jbe    0x40ba3e
  40b9d9:	dec    esi
  40b9da:	gs js  0x40ba51
  40b9dd:	add    BYTE PTR [esi],ch
  40b9df:	arpl   WORD PTR [ebx+0x74],sp
  40b9e2:	outs   dx,DWORD PTR ds:[esi]
  40b9e3:	jb     0x40b9e5
  40b9e5:	dec    eax
  40b9e6:	popa   
  40b9e7:	jae    0x40ba51
  40b9e9:	je     0x40ba4c
  40b9eb:	bound  ebp,QWORD PTR [ebp+eiz*2+0x0]
  40b9ef:	inc    ebp
  40b9f0:	js     0x40ba57
  40b9f2:	arpl   WORD PTR [ebp+0x74],si
  40b9f5:	imul   ebp,DWORD PTR [edi+0x6e],0x6c697455
  40b9fc:	imul   esi,DWORD PTR [ecx+ebp*2+0x65],0x65670073
  40ba04:	je     0x40ba65
  40ba06:	push   edx
  40ba07:	jne    0x40ba77
  40ba09:	inc    ebx
  40ba0a:	outs   dx,DWORD PTR ds:[esi]
  40ba0b:	outs   dx,BYTE PTR ds:[esi]
  40ba0c:	je     0x40ba73
  40ba0e:	js     0x40ba84
  40ba10:	push   edx
  40ba11:	gs popa 
  40ba13:	fs dec edi
  40ba15:	outs   dx,BYTE PTR ds:[esi]
  40ba16:	ins    BYTE PTR es:[edi],dx
  40ba17:	jns    0x40ba5a
  40ba19:	jb     0x40ba8d
  40ba1b:	popa   
  40ba1c:	jns    0x40ba1e
  40ba1e:	dec    ecx
  40ba1f:	outs   dx,BYTE PTR ds:[esi]
  40ba20:	je     0x40ba58
  40ba22:	xor    al,0x0
  40ba24:	dec    ebp
  40ba25:	outs   dx,DWORD PTR ds:[esi]
  40ba26:	outs   dx,BYTE PTR ds:[esi]
  40ba27:	imul   esi,DWORD PTR [edi+ebp*2+0x72],0x746e4500
  40ba2f:	gs jb  0x40ba32
  40ba32:	push   esp
  40ba33:	jb     0x40baae
  40ba35:	inc    edi
  40ba36:	gs je  0x40ba8f
  40ba39:	popa   
  40ba3a:	ins    BYTE PTR es:[edi],dx
  40ba3b:	jne    0x40baa2
  40ba3d:	add    BYTE PTR [ebp+0x78],al
  40ba40:	imul   esi,DWORD PTR [eax+eax*1+0x46],0x6c6961
  40ba48:	inc    ecx
  40ba49:	fs add BYTE PTR fs:[edx+0x65],dl
  40ba4e:	ins    DWORD PTR es:[edi],dx
  40ba4f:	outs   dx,DWORD PTR ds:[esi]
  40ba50:	jbe    0x40bab7
  40ba52:	add    BYTE PTR [ebp+0x76],al
  40ba55:	outs   dx,BYTE PTR gs:[esi]
  40ba57:	je     0x40bab0
  40ba59:	popa   
  40ba5a:	imul   esi,DWORD PTR [eax+ecx*2+0x61],0x656c646e
  40ba62:	add    BYTE PTR [ebx+0x65],dl
  40ba65:	je     0x40ba67
  40ba67:	push   ebx
  40ba68:	jns    0x40badd
  40ba6a:	je     0x40bad1
  40ba6c:	ins    DWORD PTR es:[edi],dx
  40ba6d:	cs push ebx
  40ba6f:	gs jb  0x40bae8
  40ba72:	imul   esp,DWORD PTR [ebx+0x65],0x65646f4d
  40ba79:	ins    BYTE PTR es:[edi],dx
  40ba7a:	cs inc ebx
  40ba7c:	push   0x656e6e61
  40ba81:	ins    BYTE PTR es:[edi],dx
  40ba82:	jae    0x40ba84
  40ba84:	inc    ebx
  40ba85:	outs   dx,DWORD PTR ds:[esi]
  40ba86:	ins    DWORD PTR es:[edi],dx
  40ba87:	ins    DWORD PTR es:[edi],dx
  40ba88:	jne    0x40baf8
  40ba8a:	imul   esp,DWORD PTR [ebx+0x61],0x6e6f6974
  40ba91:	dec    edi
  40ba92:	bound  ebp,QWORD PTR [edx+0x65]
  40ba95:	arpl   WORD PTR [eax+eax*1+0x72],si
  40ba99:	gs ins DWORD PTR es:[edi],dx
  40ba9b:	outs   dx,DWORD PTR ds:[esi]
  40ba9c:	jbe    0x40bb03
  40ba9e:	pop    edi
  40ba9f:	inc    esi
  40baa0:	popa   
  40baa1:	jne    0x40bb0f
  40baa3:	je     0x40bb0a
  40baa5:	add    BYTE PTR fs:[edx+0x69],al
  40baa9:	outs   dx,BYTE PTR ds:[esi]
  40baaa:	imul   ebp,DWORD PTR fs:[esi+0x67],0x616e614d
  40bab2:	addr16 gs jb 0x40bab6
  40bab6:	inc    edx
  40bab7:	imul   ebp,DWORD PTR [esi+0x64],0x676e69
  40babe:	inc    ebx
  40babf:	jb     0x40bb26
  40bac1:	popa   
  40bac2:	je     0x40bb29
  40bac4:	inc    ecx
  40bac5:	jo     0x40bb37
  40bac7:	jb     0x40bb38
  40bac9:	jo     0x40bb3d
  40bacb:	imul   esp,DWORD PTR [ecx+0x74],0x6e694265
  40bad2:	imul   ebp,DWORD PTR fs:[esi+0x67],0x74656700
  40bada:	pop    edi
  40badb:	dec    ebp
  40badc:	popa   
  40badd:	arpl   WORD PTR [eax+0x69],bp
  40bae0:	outs   dx,BYTE PTR ds:[esi]
  40bae1:	gs dec esi
  40bae3:	popa   
  40bae4:	ins    DWORD PTR es:[edi],dx
  40bae5:	add    BYTE PTR gs:[ebx+0x72],al
  40bae9:	gs popa 
  40baeb:	je     0x40bb52
  40baed:	push   ebx
  40baee:	gs jb  0x40bb67
  40baf1:	gs jb  0x40bb49
  40baf4:	jb     0x40bb5f
  40baf6:	add    BYTE PTR [ebx+0x79],dl
  40baf9:	jae    0x40bb6f
  40bafb:	gs ins DWORD PTR es:[edi],dx
  40bafd:	cs push ebx
  40baff:	gs jb  0x40bb78
  40bb02:	imul   esp,DWORD PTR [ebx+0x65],0x65646f4d
  40bb09:	ins    BYTE PTR es:[edi],dx
  40bb0a:	cs inc esp
  40bb0c:	gs jae 0x40bb72
  40bb0f:	jb     0x40bb7a
  40bb11:	jo     0x40bb87
  40bb13:	imul   ebp,DWORD PTR [edi+0x6e],0x72655300
  40bb1a:	jbe    0x40bb85
  40bb1c:	arpl   WORD PTR [ebp+0x54],sp
  40bb1f:	push   0x74746f72
  40bb24:	ins    BYTE PTR es:[edi],dx
  40bb25:	imul   ebp,DWORD PTR [esi+0x67],0x61686542
  40bb2c:	jbe    0x40bb97
  40bb2e:	outs   dx,DWORD PTR ds:[esi]
  40bb2f:	jb     0x40bb31
  40bb31:	jae    0x40bb98
  40bb33:	je     0x40bb94
  40bb35:	dec    ebp
  40bb36:	popa   
  40bb37:	js     0x40bb7c
  40bb39:	outs   dx,DWORD PTR ds:[esi]
  40bb3a:	outs   dx,BYTE PTR ds:[esi]
  40bb3b:	arpl   WORD PTR [ebp+0x72],si
  40bb3e:	jb     0x40bba5
  40bb40:	outs   dx,BYTE PTR ds:[esi]
  40bb41:	je     0x40bb96
  40bb43:	gs jae 0x40bbb9
  40bb46:	imul   ebp,DWORD PTR [edi+0x6e],0x65530073
  40bb4d:	jb     0x40bbc5
  40bb4f:	imul   esp,DWORD PTR [ebx+0x65],0x74736f48
  40bb56:	inc    edx
  40bb57:	popa   
  40bb58:	jae    0x40bbbf
  40bb5a:	add    BYTE PTR [ebx+0x65],dl
  40bb5d:	jb     0x40bbd5
  40bb5f:	imul   esp,DWORD PTR [ebx+0x65],0x63736544
  40bb66:	jb     0x40bbd1
  40bb68:	jo     0x40bbde
  40bb6a:	imul   ebp,DWORD PTR [edi+0x6e],0x74656700
  40bb71:	pop    edi
  40bb72:	inc    esp
  40bb73:	gs jae 0x40bbd9
  40bb76:	jb     0x40bbe1
  40bb78:	jo     0x40bbee
  40bb7a:	imul   ebp,DWORD PTR [edi+0x6e],0x79654b00
  40bb81:	gs fs inc edx
  40bb84:	jns    0x40bbda
  40bb86:	jns    0x40bbf8
  40bb88:	gs inc ebx
  40bb8a:	outs   dx,DWORD PTR ds:[esi]
  40bb8b:	ins    BYTE PTR es:[edi],dx
  40bb8c:	ins    BYTE PTR es:[edi],dx
  40bb8d:	arpl   WORD PTR gs:[ecx+ebp*2+0x6f],si
  40bb92:	outs   dx,BYTE PTR ds:[esi]
  40bb93:	pusha  
  40bb94:	xor    DWORD PTR [eax],eax
  40bb96:	dec    ecx
  40bb97:	push   ebx
  40bb98:	gs jb  0x40bc11
  40bb9b:	imul   esp,DWORD PTR [ebx+0x65],0x61686542
  40bba2:	jbe    0x40bc0d
  40bba4:	outs   dx,DWORD PTR ds:[esi]
  40bba5:	jb     0x40bba7
  40bba7:	addr16 gs je 0x40bc0a
  40bbab:	inc    edx
  40bbac:	gs push 0x6f697661
  40bbb2:	jb     0x40bc27
  40bbb4:	add    BYTE PTR [ebx+0x6f],al
  40bbb7:	ins    BYTE PTR es:[edi],dx
  40bbb8:	ins    BYTE PTR es:[edi],dx
  40bbb9:	arpl   WORD PTR gs:[ecx+ebp*2+0x6f],si
  40bbbe:	outs   dx,BYTE PTR ds:[esi]
  40bbbf:	pusha  
  40bbc0:	xor    DWORD PTR [eax],eax
  40bbc2:	push   edx
  40bbc3:	jne    0x40bc33
  40bbc5:	je     0x40bc30
  40bbc7:	ins    DWORD PTR es:[edi],dx
  40bbc8:	gs push esp
  40bbca:	jns    0x40bc3c
  40bbcc:	gs dec eax
  40bbce:	popa   
  40bbcf:	outs   dx,BYTE PTR ds:[esi]
  40bbd0:	fs ins BYTE PTR es:[edi],dx
  40bbd2:	add    BYTE PTR gs:[edi+0x65],al
  40bbd6:	je     0x40bc2c
  40bbd8:	jns    0x40bc4a
  40bbda:	gs inc esi
  40bbdc:	jb     0x40bc4d
  40bbde:	ins    DWORD PTR es:[edi],dx
  40bbdf:	dec    eax
  40bbe0:	popa   
  40bbe1:	outs   dx,BYTE PTR ds:[esi]
  40bbe2:	fs ins BYTE PTR es:[edi],dx
  40bbe4:	add    BYTE PTR gs:[ebx+0x65],dl
  40bbe8:	jb     0x40bc60
  40bbea:	imul   esp,DWORD PTR [ebx+0x65],0x70646e45
  40bbf1:	outs   dx,DWORD PTR ds:[esi]
  40bbf2:	imul   ebp,DWORD PTR [esi+0x74],0x64644100
  40bbf9:	push   ebx
  40bbfa:	gs jb  0x40bc73
  40bbfd:	imul   esp,DWORD PTR [ebx+0x65],0x70646e45
  40bc04:	outs   dx,DWORD PTR ds:[esi]
  40bc05:	imul   ebp,DWORD PTR [esi+0x74],0x64646100
  40bc0c:	pop    edi
  40bc0d:	inc    esi
  40bc0e:	popa   
  40bc0f:	jne    0x40bc7d
  40bc11:	je     0x40bc78
  40bc13:	add    BYTE PTR fs:[edi+0x70],cl
  40bc17:	outs   dx,BYTE PTR gs:[esi]
  40bc19:	add    BYTE PTR [ebx+0x74],dl
  40bc1c:	gs jo  0x40bc1f
  40bc1f:	cmp    al,0x4f
  40bc21:	outs   dx,BYTE PTR ds:[esi]
  40bc22:	dec    eax
  40bc23:	outs   dx,DWORD PTR ds:[esi]
  40bc24:	jae    0x40bc9a
  40bc26:	inc    esi
  40bc27:	popa   
  40bc28:	jne    0x40bc96
  40bc2a:	je     0x40bc6a
  40bc2c:	bound  ebx,QWORD PTR [edi+0x5f]
  40bc2f:	xor    BYTE PTR [eax],al
  40bc31:	inc    ebx
  40bc32:	outs   dx,DWORD PTR ds:[esi]
  40bc33:	ins    DWORD PTR es:[edi],dx
  40bc34:	ins    DWORD PTR es:[edi],dx
  40bc35:	jne    0x40bca5
  40bc37:	imul   esp,DWORD PTR [ebx+0x61],0x6e6f6974
  40bc3e:	push   ebx
  40bc3f:	je     0x40bca2
  40bc41:	je     0x40bca8
  40bc43:	add    BYTE PTR [edi+0x65],ah
  40bc46:	je     0x40bca7
  40bc48:	push   ebx
  40bc49:	je     0x40bcac
  40bc4b:	je     0x40bcb2
  40bc4d:	add    BYTE PTR [ecx+0x62],al
  40bc50:	outs   dx,DWORD PTR ds:[esi]
  40bc51:	jb     0x40bcc7
  40bc53:	add    BYTE PTR [edx+0x65],dl
  40bc56:	jae    0x40bcbd
  40bc58:	je     0x40bc5a
  40bc5a:	inc    ebx
  40bc5b:	outs   dx,DWORD PTR ds:[esi]
  40bc5c:	ins    DWORD PTR es:[edi],dx
  40bc5d:	ins    DWORD PTR es:[edi],dx
  40bc5e:	jne    0x40bcce
  40bc60:	imul   esp,DWORD PTR [ebx+0x61],0x6e6f6974
  40bc67:	inc    ebp
  40bc68:	js     0x40bccd
  40bc6a:	gs jo  0x40bce1
  40bc6d:	imul   ebp,DWORD PTR [edi+0x6e],0x6d695400
  40bc74:	outs   dx,DWORD PTR gs:[esi]
  40bc76:	jne    0x40bcec
  40bc78:	inc    ebp
  40bc79:	js     0x40bcde
  40bc7b:	gs jo  0x40bcf2
  40bc7e:	imul   ebp,DWORD PTR [edi+0x6e],0x50734900
  40bc85:	outs   dx,DWORD PTR ds:[esi]
  40bc86:	jb     0x40bcfc
  40bc88:	inc    ecx
  40bc89:	jbe    0x40bcec
  40bc8b:	imul   ebp,DWORD PTR [ecx+eiz*2+0x62],0x5500656c
  40bc93:	je     0x40bcfe
  40bc95:	ins    BYTE PTR es:[edi],dx
  40bc96:	imul   esi,DWORD PTR [ecx+edi*2+0x0],0x6e6e6f43
  40bc9e:	arpl   WORD PTR gs:[ebp+eiz*2+0x64],si
  40bca3:	inc    esp
  40bca4:	gs jbe 0x40bd10
  40bca7:	arpl   WORD PTR [ebp+0x52],sp
  40bcaa:	arpl   WORD PTR gs:[edi+0x6e],bp
  40bcae:	outs   dx,BYTE PTR ds:[esi]
  40bcaf:	arpl   WORD PTR gs:[ecx+ebp*2+0x6f],si
  40bcb4:	outs   dx,BYTE PTR ds:[esi]
  40bcb5:	push   edi
  40bcb6:	popa   
  40bcb7:	imul   esi,DWORD PTR [esp+edx*2+0x69],0x5700656d
  40bcbf:	popa   
  40bcc0:	imul   esi,DWORD PTR [eax+ecx*2+0x61],0x656c646e
  40bcc8:	add    BYTE PTR [edi+0x61],dl
  40bccb:	imul   esi,DWORD PTR [edi+ecx*2+0x6e],0x65530065
  40bcd3:	jb     0x40bd4b
  40bcd5:	imul   esp,DWORD PTR [ebx+0x65],0x61686542
  40bcdc:	jbe    0x40bd47
  40bcde:	outs   dx,DWORD PTR ds:[esi]
  40bcdf:	jb     0x40bd22
  40bce1:	je     0x40bd57
  40bce3:	jb     0x40bd4e
  40bce5:	bound  esi,QWORD PTR [ebp+0x74]
  40bce8:	add    BYTE PTR gs:[edi+0x65],al
  40bcec:	je     0x40bd31
  40bcee:	jne    0x40bd62
  40bcf0:	jb     0x40bd57
  40bcf2:	outs   dx,BYTE PTR ds:[esi]
  40bcf3:	je     0x40bcf5
  40bcf5:	addr16 gs je 0x40bd58
  40bcf9:	dec    ecx
  40bcfa:	je     0x40bd61
  40bcfc:	ins    DWORD PTR es:[edi],dx
  40bcfd:	add    BYTE PTR [edx+esi*2+0x79],dl
  40bd01:	push   eax
  40bd02:	popa   
  40bd03:	jb     0x40bd78
  40bd05:	add    BYTE PTR gs:[esi+0x72],al
  40bd09:	outs   dx,DWORD PTR ds:[esi]
  40bd0a:	ins    DWORD PTR es:[edi],dx
  40bd0b:	dec    ebp
  40bd0c:	imul   ebp,DWORD PTR [esi+0x75],0x736574
  40bd13:	inc    ebp
  40bd14:	ins    BYTE PTR es:[edi],dx
  40bd15:	popa   
  40bd16:	jo     0x40bd8b
  40bd18:	gs fs inc ebp
  40bd1b:	jbe    0x40bd82
  40bd1d:	outs   dx,BYTE PTR ds:[esi]
  40bd1e:	je     0x40bd68
  40bd20:	popa   
  40bd21:	outs   dx,BYTE PTR ds:[esi]
  40bd22:	fs ins BYTE PTR es:[edi],dx
  40bd24:	gs jb  0x40bd27
  40bd27:	popa   
  40bd28:	fs fs pop edi
  40bd2b:	inc    ebp
  40bd2c:	ins    BYTE PTR es:[edi],dx
  40bd2d:	popa   
  40bd2e:	jo     0x40bda3
  40bd30:	gs add BYTE PTR fs:[ebx+0x65],dh
  40bd35:	je     0x40bd96
  40bd37:	inc    ecx
  40bd38:	jne    0x40bdae
  40bd3a:	outs   dx,DWORD PTR ds:[esi]
  40bd3b:	push   edx
  40bd3c:	gs jae 0x40bda4
  40bd3f:	je     0x40bd41
  40bd41:	dec    esi
  40bd42:	popa   
  40bd43:	ins    DWORD PTR es:[edi],dx
  40bd44:	gs dec edi
  40bd46:	bound  ebp,QWORD PTR [edx+0x65]
  40bd49:	arpl   WORD PTR [ebx+eax*2+0x6f],si
  40bd4d:	ins    BYTE PTR es:[edi],dx
  40bd4e:	ins    BYTE PTR es:[edi],dx
  40bd4f:	arpl   WORD PTR gs:[ecx+ebp*2+0x6f],si
  40bd54:	outs   dx,BYTE PTR ds:[esi]
  40bd55:	inc    edx
  40bd56:	popa   
  40bd57:	jae    0x40bdbe
  40bd59:	add    BYTE PTR [edi+0x65],ah
  40bd5c:	je     0x40bdbd
  40bd5e:	inc    ebx
  40bd5f:	outs   dx,DWORD PTR ds:[esi]
  40bd60:	jne    0x40bdd0
  40bd62:	je     0x40bd64
  40bd64:	push   ebx
  40bd65:	je     0x40bdd9
  40bd67:	imul   ebp,DWORD PTR [esi+0x67],0x706d6f43
  40bd6e:	popa   
  40bd6f:	jb     0x40bdda
  40bd71:	jae    0x40bde2
  40bd73:	outs   dx,BYTE PTR ds:[esi]
  40bd74:	add    BYTE PTR [ebp+0x71],al
  40bd77:	jne    0x40bdda
  40bd79:	ins    BYTE PTR es:[edi],dx
  40bd7a:	jae    0x40bd7c
  40bd7c:	push   ebx
  40bd7d:	jns    0x40bdf2
  40bd7f:	je     0x40bde6
  40bd81:	ins    DWORD PTR es:[edi],dx
  40bd82:	cs inc ebx
  40bd84:	outs   dx,DWORD PTR ds:[esi]
  40bd85:	ins    DWORD PTR es:[edi],dx
  40bd86:	jo     0x40bdf7
  40bd88:	outs   dx,BYTE PTR ds:[esi]
  40bd89:	outs   dx,BYTE PTR gs:[esi]
  40bd8b:	je     0x40bdda
  40bd8d:	outs   dx,DWORD PTR ds:[esi]
  40bd8e:	fs gs ins BYTE PTR es:[edi],dx
  40bd91:	add    BYTE PTR [edi+0x69],dl
  40bd94:	outs   dx,BYTE PTR ds:[esi]
  40bd95:	xor    esi,DWORD PTR [edx]
  40bd97:	inc    ebp
  40bd98:	js     0x40bdfd
  40bd9a:	gs jo  0x40be11
  40bd9d:	imul   ebp,DWORD PTR [edi+0x6e],0x65704f00
  40bda4:	jb     0x40be07
  40bda6:	je     0x40be11
  40bda8:	outs   dx,DWORD PTR ds:[esi]
  40bda9:	outs   dx,BYTE PTR ds:[esi]
  40bdaa:	inc    edx
  40bdab:	gs push 0x6f697661
  40bdb1:	jb     0x40bdf4
  40bdb3:	je     0x40be29
  40bdb5:	jb     0x40be20
  40bdb7:	bound  esi,QWORD PTR [ebp+0x74]
  40bdba:	add    BYTE PTR gs:[edi+0x70],cl
  40bdbe:	gs jb  0x40be22
  40bdc1:	je     0x40be2c
  40bdc3:	outs   dx,DWORD PTR ds:[esi]
  40bdc4:	outs   dx,BYTE PTR ds:[esi]
  40bdc5:	inc    ebx
  40bdc6:	outs   dx,DWORD PTR ds:[esi]
  40bdc7:	outs   dx,BYTE PTR ds:[esi]
  40bdc8:	je     0x40be2f
  40bdca:	js     0x40be40
  40bdcc:	add    BYTE PTR [ebx+0x65],dl
  40bdcf:	jb     0x40be47
  40bdd1:	imul   esp,DWORD PTR [ebx+0x65],0x75636553
  40bdd8:	jb     0x40be43
  40bdda:	je     0x40be55
  40bddc:	inc    ebx
  40bddd:	outs   dx,DWORD PTR ds:[esi]
  40bdde:	outs   dx,BYTE PTR ds:[esi]
  40bddf:	je     0x40be46
  40bde1:	js     0x40be57
  40bde3:	add    BYTE PTR [edi+0x65],ah
  40bde6:	je     0x40be47
  40bde8:	push   ebx
  40bde9:	gs jb  0x40be62
  40bdec:	imul   esp,DWORD PTR [ebx+0x65],0x75636553
  40bdf3:	jb     0x40be5e
  40bdf5:	je     0x40be70
  40bdf7:	inc    ebx
  40bdf8:	outs   dx,DWORD PTR ds:[esi]
  40bdf9:	outs   dx,BYTE PTR ds:[esi]
  40bdfa:	je     0x40be61
  40bdfc:	js     0x40be72
  40bdfe:	add    BYTE PTR [edi+0x65],ah
  40be01:	je     0x40be62
  40be03:	push   edi
  40be04:	imul   ebp,DWORD PTR [esi+0x64],0x4973776f
  40be0b:	fs outs dx,BYTE PTR gs:[esi]
  40be0e:	je     0x40be79
  40be10:	je     0x40be8b
  40be12:	add    BYTE PTR [esi+0x61],dl
  40be15:	ins    BYTE PTR es:[edi],dx
  40be16:	imul   esp,DWORD PTR [ecx+eiz*2+0x74],0x65735565
  40be1e:	jb     0x40be20
  40be20:	addr16 gs je 0x40be83
  40be24:	inc    ebx
  40be25:	ins    BYTE PTR es:[edi],dx
  40be26:	imul   esp,DWORD PTR [ebp+0x6e],0x63614d74
  40be2d:	push   0x4e656e69
  40be32:	popa   
  40be33:	ins    DWORD PTR es:[edi],dx
  40be34:	add    BYTE PTR gs:[ecx+0x73],cl
  40be38:	dec    esi
  40be39:	jne    0x40bea7
  40be3b:	ins    BYTE PTR es:[edi],dx
  40be3c:	dec    edi
  40be3d:	jb     0x40be84
  40be3f:	ins    DWORD PTR es:[edi],dx
  40be40:	jo     0x40beb6
  40be42:	jns    0x40be44
  40be44:	dec    ebp
  40be45:	gs ins DWORD PTR es:[edi],dx
  40be47:	bound  esp,QWORD PTR [ebp+0x72]
  40be4a:	dec    ecx
  40be4b:	outs   dx,BYTE PTR ds:[esi]
  40be4c:	outs   dx,WORD PTR ds:[esi]
  40be4e:	add    BYTE PTR [edi+0x65],ah
  40be51:	je     0x40beb2
  40be53:	dec    esi
  40be54:	popa   
  40be55:	ins    DWORD PTR es:[edi],dx
  40be56:	add    BYTE PTR gs:[ecx+0x72],al
  40be5a:	addr16 jne 0x40beca
  40be5d:	outs   dx,BYTE PTR gs:[esi]
  40be5f:	je     0x40bea6
  40be61:	js     0x40bec6
  40be63:	gs jo  0x40beda
  40be66:	imul   ebp,DWORD PTR [edi+0x6e],0x73795300
  40be6d:	je     0x40bed4
  40be6f:	ins    DWORD PTR es:[edi],dx
  40be70:	cs push ebx
  40be72:	arpl   WORD PTR gs:[ebp+0x72],si
  40be76:	imul   esi,DWORD PTR [ecx+edi*2+0x2e],0x69616c43
  40be7e:	ins    DWORD PTR es:[edi],dx
  40be7f:	jae    0x40be81
  40be81:	inc    ebx
  40be82:	ins    BYTE PTR es:[edi],dx
  40be83:	popa   
  40be84:	imul   ebp,DWORD PTR [ebp+0x73],0x6e656449
  40be8b:	je     0x40bef6
  40be8d:	je     0x40bf08
  40be8f:	add    BYTE PTR [edi+0x65],ah
  40be92:	je     0x40bef3
  40be94:	inc    ebx
  40be95:	outs   dx,DWORD PTR ds:[esi]
  40be96:	outs   dx,BYTE PTR ds:[esi]
  40be97:	outs   dx,BYTE PTR ds:[esi]
  40be98:	arpl   WORD PTR gs:[ecx+ebp*2+0x6f],si
  40be9d:	outs   dx,BYTE PTR ds:[esi]
  40be9e:	dec    ecx
  40be9f:	add    BYTE PTR fs:[edi+0x65],ah
  40bea3:	je     0x40bf04
  40bea5:	inc    esp
  40bea6:	popa   
  40bea7:	je     0x40bf0a
  40bea9:	inc    ebx
  40beaa:	outs   dx,DWORD PTR ds:[esi]
  40beab:	ins    BYTE PTR es:[edi],dx
  40beac:	ins    BYTE PTR es:[edi],dx
  40bead:	arpl   WORD PTR gs:[edi+ebp*2+0x72],si
  40beb2:	dec    esi
  40beb3:	outs   dx,DWORD PTR ds:[esi]
  40beb4:	outs   dx,BYTE PTR ds:[esi]
  40beb5:	gs js  0x40bf21
  40beb8:	jae    0x40bf2e
  40beba:	outs   dx,BYTE PTR gs:[esi]
  40bebc:	je     0x40bf01
  40bebe:	outs   dx,DWORD PTR ds:[esi]
  40bebf:	outs   dx,BYTE PTR ds:[esi]
  40bec0:	outs   dx,BYTE PTR ds:[esi]
  40bec1:	arpl   WORD PTR gs:[ecx+ebp*2+0x6f],si
  40bec6:	outs   dx,BYTE PTR ds:[esi]
  40bec7:	add    BYTE PTR [ecx+eiz*2+0x74],al
  40becb:	popa   
  40becc:	inc    ebx
  40becd:	outs   dx,DWORD PTR ds:[esi]
  40bece:	ins    BYTE PTR es:[edi],dx
  40becf:	ins    BYTE PTR es:[edi],dx
  40bed0:	arpl   WORD PTR gs:[edi+ebp*2+0x72],si
  40bed5:	dec    esi
  40bed6:	outs   dx,DWORD PTR ds:[esi]
  40bed7:	outs   dx,BYTE PTR ds:[esi]
  40bed8:	gs js  0x40bf44
  40bedb:	jae    0x40bf51
  40bedd:	outs   dx,BYTE PTR gs:[esi]
  40bedf:	je     0x40bf24
  40bee1:	outs   dx,DWORD PTR ds:[esi]
  40bee2:	outs   dx,BYTE PTR ds:[esi]
  40bee3:	outs   dx,BYTE PTR ds:[esi]
  40bee4:	arpl   WORD PTR gs:[ecx+ebp*2+0x6f],si
  40bee9:	outs   dx,BYTE PTR ds:[esi]
  40beea:	add    BYTE PTR [edi+0x70],ch
  40beed:	pop    edi
  40beee:	inc    ebp
  40beef:	jno    0x40bf66
  40bef1:	popa   
  40bef2:	ins    BYTE PTR es:[edi],dx
  40bef3:	imul   esi,DWORD PTR [ecx+edi*2+0x0],0x5f746567
  40befb:	push   ebx
  40befc:	gs jae 0x40bf72
  40beff:	imul   ebp,DWORD PTR [edi+0x6e],0x65726c41
  40bf06:	popa   
  40bf07:	fs jns 0x40bf53
  40bf0a:	outs   dx,BYTE PTR ds:[esi]
  40bf0b:	push   eax
  40bf0c:	jb     0x40bf7d
  40bf0e:	addr16 jb 0x40bf76
  40bf11:	jae    0x40bf86
  40bf13:	add    BYTE PTR [ecx+eiz*2+0x74],al
  40bf17:	popa   
  40bf18:	inc    ebx
  40bf19:	outs   dx,DWORD PTR ds:[esi]
  40bf1a:	ins    BYTE PTR es:[edi],dx
  40bf1b:	ins    BYTE PTR es:[edi],dx
  40bf1c:	arpl   WORD PTR gs:[edi+ebp*2+0x72],si
  40bf21:	inc    ebx
  40bf22:	outs   dx,DWORD PTR ds:[esi]
  40bf23:	outs   dx,BYTE PTR ds:[esi]
  40bf24:	outs   dx,BYTE PTR ds:[esi]
  40bf25:	arpl   WORD PTR gs:[ecx+ebp*2+0x6f],si
  40bf2a:	outs   dx,BYTE PTR ds:[esi]
  40bf2b:	inc    ebp
  40bf2c:	js     0x40bf91
  40bf2e:	gs jo  0x40bfa5
  40bf31:	imul   ebp,DWORD PTR [edi+0x6e],0x74614400
  40bf38:	popa   
  40bf39:	inc    ebx
  40bf3a:	outs   dx,DWORD PTR ds:[esi]
  40bf3b:	ins    BYTE PTR es:[edi],dx
  40bf3c:	ins    BYTE PTR es:[edi],dx
  40bf3d:	arpl   WORD PTR gs:[edi+ebp*2+0x72],si
  40bf42:	push   ebx
  40bf43:	gs jae 0x40bfb9
  40bf46:	imul   ebp,DWORD PTR [edi+0x6e],0x72506e49
  40bf4d:	outs   dx,DWORD PTR ds:[esi]
  40bf4e:	addr16 gs jae 0x40bfc5
  40bf52:	inc    esi
  40bf53:	popa   
  40bf54:	jne    0x40bfc2
  40bf56:	je     0x40bf9b
  40bf58:	outs   dx,DWORD PTR ds:[esi]
  40bf59:	fs add BYTE PTR gs:[ebx+0x65],dh
  40bf5e:	je     0x40bfbf
  40bf60:	inc    ebx
  40bf61:	outs   dx,DWORD PTR ds:[esi]
  40bf62:	outs   dx,BYTE PTR ds:[esi]
  40bf63:	outs   dx,BYTE PTR ds:[esi]
  40bf64:	arpl   WORD PTR gs:[ecx+ebp*2+0x6f],si
  40bf69:	outs   dx,BYTE PTR ds:[esi]
  40bf6a:	inc    esi
  40bf6b:	popa   
  40bf6c:	imul   ebp,DWORD PTR [ebp+esi*2+0x72],0x646f4365
  40bf74:	add    BYTE PTR gs:[edi+0x65],al
  40bf78:	je     0x40bfbd
  40bf7a:	popa   
  40bf7b:	ins    BYTE PTR es:[edi],dx
  40bf7c:	ins    BYTE PTR es:[edi],dx
  40bf7d:	bound  esp,QWORD PTR [ecx+0x63]
  40bf80:	imul   eax,DWORD PTR [ebx+0x68],0x61
  40bf84:	outs   dx,BYTE PTR ds:[esi]
  40bf85:	outs   dx,BYTE PTR ds:[esi]
  40bf86:	gs ins BYTE PTR es:[edi],dx
  40bf88:	add    BYTE PTR [edi+0x65],ah
  40bf8b:	je     0x40bfec
  40bf8d:	inc    ebx
  40bf8e:	outs   dx,DWORD PTR ds:[esi]
  40bf8f:	outs   dx,BYTE PTR ds:[esi]
  40bf90:	outs   dx,BYTE PTR ds:[esi]
  40bf91:	arpl   WORD PTR gs:[ecx+ebp*2+0x6f],si
  40bf96:	outs   dx,BYTE PTR ds:[esi]
  40bf97:	inc    esi
  40bf98:	popa   
  40bf99:	imul   ebp,DWORD PTR [ebp+esi*2+0x72],0x646f4365
  40bfa1:	add    BYTE PTR gs:[ebx+0x74],dl
  40bfa5:	outs   dx,DWORD PTR ds:[esi]
  40bfa6:	jo     0x40bfa8
  40bfa8:	inc    esp
  40bfa9:	gs jae 0x40c011
  40bfac:	jb     0x40c017
  40bfae:	popa   
  40bfaf:	ins    BYTE PTR es:[edi],dx
  40bfb0:	imul   edi,DWORD PTR [edx+0x65],0x74614400
  40bfb7:	popa   
  40bfb8:	inc    ebx
  40bfb9:	outs   dx,DWORD PTR ds:[esi]
  40bfba:	ins    BYTE PTR es:[edi],dx
  40bfbb:	ins    BYTE PTR es:[edi],dx
  40bfbc:	arpl   WORD PTR gs:[edi+ebp*2+0x72],si
  40bfc1:	push   ebx
  40bfc2:	arpl   WORD PTR gs:[ebp+0x72],si
  40bfc6:	imul   esi,DWORD PTR [ecx+edi*2+0x45],0x70656378
  40bfce:	je     0x40c039
  40bfd0:	outs   dx,DWORD PTR ds:[esi]
  40bfd1:	outs   dx,BYTE PTR ds:[esi]
  40bfd2:	add    BYTE PTR [ebp+eiz*2+0x73],dl
  40bfd6:	je     0x40c01b
  40bfd8:	popa   
  40bfd9:	jae    0x40c040
  40bfdb:	push   ebx
  40bfdc:	je     0x40c03f
  40bfde:	jb     0x40c054
  40bfe0:	inc    ebp
  40bfe1:	jbe    0x40c048
  40bfe3:	outs   dx,BYTE PTR ds:[esi]
  40bfe4:	je     0x40c027
  40bfe6:	jb     0x40c04f
  40bfe8:	jae    0x40bfea
  40bfea:	inc    edi
  40bfeb:	gs je  0x40c042
  40bfee:	jns    0x40c060
  40bff0:	add    BYTE PTR gs:[ecx+eiz*2+0x74],al
  40bff5:	popa   
  40bff6:	inc    ebx
  40bff7:	outs   dx,DWORD PTR ds:[esi]
  40bff8:	ins    BYTE PTR es:[edi],dx
  40bff9:	ins    BYTE PTR es:[edi],dx
  40bffa:	arpl   WORD PTR gs:[ecx+ebp*2+0x6f],si
  40bfff:	outs   dx,BYTE PTR ds:[esi]
  40c000:	dec    ebp
  40c001:	gs jae 0x40c077
  40c004:	popa   
  40c005:	add    BYTE PTR gs:[bp+di+0x65],dh
  40c00a:	je     0x40c06b
  40c00c:	dec    ecx
  40c00d:	jae    0x40c055
  40c00f:	jb     0x40c080
  40c011:	ins    DWORD PTR es:[edi],dx
  40c012:	inc    ebx
  40c013:	outs   dx,DWORD PTR ds:[esi]
  40c014:	outs   dx,BYTE PTR ds:[esi]
  40c015:	outs   dx,BYTE PTR ds:[esi]
  40c016:	arpl   WORD PTR gs:[ebp+eiz*2+0x64],si
  40c01b:	inc    esp
  40c01c:	gs jbe 0x40c088
  40c01f:	arpl   WORD PTR [ebp+0x0],sp
  40c022:	inc    edi
  40c023:	gs je  0x40c079
  40c026:	gs jb  0x40c092
  40c029:	popa   
  40c02a:	ins    BYTE PTR es:[edi],dx
  40c02b:	imul   edi,DWORD PTR [edx+0x65],0x74794264
  40c032:	gs jae 0x40c035
  40c035:	push   ebx
  40c036:	outs   dx,BYTE PTR gs:[esi]
  40c038:	fs dec ebp
  40c03a:	gs jae 0x40c0b0
  40c03d:	popa   
  40c03e:	addr16 gs push esp
  40c041:	outs   dx,DWORD PTR ds:[esi]
  40c042:	inc    ebx
  40c043:	ins    BYTE PTR es:[edi],dx
  40c044:	imul   esp,DWORD PTR [ebp+0x6e],0x624f0074
  40c04b:	push   0x65
  40c04d:	arpl   WORD PTR [esp+eax*2+0x69],si
  40c051:	jae    0x40c0c3
  40c053:	outs   dx,DWORD PTR ds:[esi]
  40c054:	jae    0x40c0bb
  40c056:	fs inc ebp
  40c058:	js     0x40c0bd
  40c05a:	gs jo  0x40c0d1
  40c05d:	imul   ebp,DWORD PTR [edi+0x6e],0x73795300
  40c064:	je     0x40c0cb
  40c066:	ins    DWORD PTR es:[edi],dx
  40c067:	cs push edx
  40c069:	jne    0x40c0d9
  40c06b:	je     0x40c0d6
  40c06d:	ins    DWORD PTR es:[edi],dx
  40c06e:	gs cs push ebx
  40c071:	gs jb  0x40c0dd
  40c074:	popa   
  40c075:	ins    BYTE PTR es:[edi],dx
  40c076:	imul   edi,DWORD PTR [edx+0x61],0x6e6f6974
  40c07d:	add    BYTE PTR [ebx+0x65],dl
  40c080:	jb     0x40c0eb
  40c082:	popa   
  40c083:	ins    BYTE PTR es:[edi],dx
  40c084:	imul   edi,DWORD PTR [edx+0x61],0x6e6f6974
  40c08b:	inc    ebp
  40c08c:	js     0x40c0f1
  40c08e:	gs jo  0x40c105
  40c091:	imul   ebp,DWORD PTR [edi+0x6e],0x70654400
  40c098:	ins    BYTE PTR es:[edi],dx
  40c099:	outs   dx,DWORD PTR ds:[esi]
  40c09a:	jns    0x40c0dd
  40c09c:	jo     0x40c10e
  40c09e:	js     0x40c0e5
  40c0a0:	js     0x40c105
  40c0a2:	gs jo  0x40c119
  40c0a5:	imul   ebp,DWORD PTR [edi+0x6e],0x6f6f4200
  40c0ac:	ins    BYTE PTR es:[edi],dx
  40c0ad:	gs popa 
  40c0af:	outs   dx,BYTE PTR ds:[esi]
  40c0b0:	add    BYTE PTR [edx+0x65],dh
  40c0b3:	ins    DWORD PTR es:[edi],dx
  40c0b4:	outs   dx,DWORD PTR ds:[esi]
  40c0b5:	jbe    0x40c11c
  40c0b7:	pop    edi
  40c0b8:	inc    ebp
  40c0b9:	ins    BYTE PTR es:[edi],dx
  40c0ba:	popa   
  40c0bb:	jo     0x40c130
  40c0bd:	gs add BYTE PTR fs:[ebx+0x6f],al
  40c0c2:	ins    DWORD PTR es:[edi],dx
  40c0c3:	jo     0x40c134
  40c0c5:	outs   dx,BYTE PTR ds:[esi]
  40c0c6:	outs   dx,BYTE PTR gs:[esi]
  40c0c8:	je     0x40c0ca
  40c0ca:	dec    ecx
  40c0cb:	inc    ebx
  40c0cc:	outs   dx,DWORD PTR ds:[esi]
  40c0cd:	ins    DWORD PTR es:[edi],dx
  40c0ce:	ins    DWORD PTR es:[edi],dx
  40c0cf:	jne    0x40c13f
  40c0d1:	imul   esp,DWORD PTR [ebx+0x61],0x6e6f6974
  40c0d8:	dec    edi
  40c0d9:	bound  ebp,QWORD PTR [edx+0x65]
  40c0dc:	arpl   WORD PTR [eax+eax*1+0x67],si
  40c0e0:	gs je  0x40c142
  40c0e3:	push   esp
  40c0e4:	outs   dx,DWORD PTR ds:[esi]
  40c0e5:	je     0x40c148
  40c0e7:	ins    BYTE PTR es:[edi],dx
  40c0e8:	dec    ebp
  40c0e9:	imul   ebp,DWORD PTR [esp+ebp*2+0x69],0x6f636573
  40c0f1:	outs   dx,BYTE PTR ds:[esi]
  40c0f2:	fs jae 0x40c0f5
  40c0f5:	jae    0x40c15c
  40c0f7:	je     0x40c158
  40c0f9:	dec    ecx
  40c0fa:	outs   dx,BYTE PTR ds:[esi]
  40c0fb:	je     0x40c162
  40c0fd:	jb     0x40c175
  40c0ff:	popa   
  40c100:	ins    BYTE PTR es:[edi],dx
  40c101:	add    BYTE PTR [esi+0x61],dl
  40c104:	ins    BYTE PTR es:[edi],dx
  40c105:	imul   esp,DWORD PTR [ecx+eiz*2+0x74],0x4c664965
  40c10d:	outs   dx,DWORD PTR ds:[esi]
  40c10e:	arpl   WORD PTR [ecx+0x6c],sp
  40c111:	push   ebx
  40c112:	jns    0x40c187
  40c114:	je     0x40c17b
  40c116:	ins    DWORD PTR es:[edi],dx
  40c117:	dec    edi
  40c118:	jb     0x40c16d
  40c11a:	popa   
  40c11b:	ins    DWORD PTR es:[edi],dx
  40c11c:	gs push ebp
  40c11e:	jae    0x40c185
  40c120:	jb     0x40c122
  40c122:	addr16 gs je 0x40c185
  40c126:	push   esp
  40c127:	gs jae 0x40c19e
  40c12a:	push   ebx
  40c12b:	gs jae 0x40c1a1
  40c12e:	imul   ebp,DWORD PTR [edi+0x6e],0x72617453
  40c135:	je     0x40c19c
  40c137:	fs dec esi
  40c139:	outs   dx,DWORD PTR ds:[esi]
  40c13a:	je     0x40c1a5
  40c13c:	imul   sp,WORD PTR [ebx+0x61],0x6974
  40c142:	outs   dx,DWORD PTR ds:[esi]
  40c143:	outs   dx,BYTE PTR ds:[esi]
  40c144:	add    BYTE PTR [ebx+0x68],dl
  40c147:	outs   dx,DWORD PTR ds:[esi]
  40c148:	ja     0x40c198
  40c14a:	outs   dx,DWORD PTR ds:[esi]
  40c14b:	je     0x40c1b6
  40c14d:	imul   sp,WORD PTR [ebx+0x61],0x6974
  40c153:	outs   dx,DWORD PTR ds:[esi]
  40c154:	outs   dx,BYTE PTR ds:[esi]
  40c155:	add    BYTE PTR [edi+0x65],al
  40c158:	je     0x40c1a0
  40c15a:	imul   ebp,DWORD PTR [ebp+eiz*2+0x4e],0x656d61
  40c162:	inc    edi
  40c163:	gs je  0x40c1ba
  40c166:	gs ins DWORD PTR es:[edi],dx
  40c168:	jo     0x40c1ba
  40c16a:	popa   
  40c16b:	je     0x40c1d5
  40c16d:	add    BYTE PTR [edi+0x65],al
  40c170:	je     0x40c1c4
  40c172:	popa   
  40c173:	outs   dx,BYTE PTR ds:[esi]
  40c174:	outs   dx,DWORD PTR fs:[esi]
  40c176:	ins    DWORD PTR es:[edi],dx
  40c177:	inc    esi
  40c178:	imul   ebp,DWORD PTR [ebp+eiz*2+0x4e],0x656d61
  40c180:	inc    esp
  40c181:	imul   esi,DWORD PTR [edx+0x65],0x726f7463
  40c188:	jns    0x40c18a
  40c18a:	inc    ebp
  40c18b:	js     0x40c1f6
  40c18d:	jae    0x40c203
  40c18f:	jae    0x40c191
  40c191:	inc    esp
  40c192:	imul   esi,DWORD PTR [edx+0x65],0x726f7463
  40c199:	jns    0x40c1e4
  40c19b:	outs   dx,BYTE PTR ds:[esi]
  40c19c:	outs   dx,WORD PTR ds:[esi]
  40c19e:	add    BYTE PTR [ebx+0x72],al
  40c1a1:	gs popa 
  40c1a3:	je     0x40c20a
  40c1a5:	inc    esp
  40c1a6:	imul   esi,DWORD PTR [edx+0x65],0x726f7463
  40c1ad:	jns    0x40c1af
  40c1af:	addr16 gs je 0x40c212
  40c1b3:	dec    esp
  40c1b4:	outs   dx,BYTE PTR gs:[esi]
  40c1b6:	addr16 je 0x40c221
  40c1b9:	add    BYTE PTR [ebx+0x75],dl
  40c1bc:	bound  esi,QWORD PTR [ebx+0x74]
  40c1bf:	jb     0x40c22a
  40c1c1:	outs   dx,BYTE PTR ds:[esi]
  40c1c2:	add    BYTE PTR [bp+0x69],al
  40c1c6:	ins    BYTE PTR es:[edi],dx
  40c1c7:	gs dec ebp
  40c1c9:	outs   dx,DWORD PTR ds:[esi]
  40c1ca:	fs add BYTE PTR gs:[esi+0x69],al
  40c1cf:	ins    BYTE PTR es:[edi],dx
  40c1d0:	gs inc ecx
  40c1d2:	arpl   WORD PTR [ebx+0x65],sp
  40c1d5:	jae    0x40c24a
  40c1d7:	add    BYTE PTR [ebx+0x74],dl
  40c1da:	jb     0x40c241
  40c1dc:	popa   
  40c1dd:	ins    DWORD PTR es:[edi],dx
  40c1de:	add    BYTE PTR [edi+0x72],dl
  40c1e1:	imul   esi,DWORD PTR [ebp+eiz*2+0x0],0x656c6544
  40c1e9:	je     0x40c250
  40c1eb:	add    BYTE PTR [ecx+ebp*2+0x73],cl
  40c1ef:	je     0x40c251
  40c1f1:	xor    DWORD PTR [eax],eax
  40c1f3:	inc    esi
  40c1f4:	imul   ebp,DWORD PTR [esi+0x64],0x65706544
  40c1fb:	outs   dx,BYTE PTR ds:[esi]
  40c1fc:	fs outs dx,BYTE PTR gs:[esi]
  40c1ff:	arpl   WORD PTR [ecx+0x50],di
  40c202:	popa   
  40c203:	arpl   WORD PTR [ebx+0x61],bp
  40c206:	addr16 gs jae 0x40c20a
  40c20a:	inc    ecx
  40c20b:	jb     0x40c270
  40c20d:	push   0x63657469
  40c212:	je     0x40c289
  40c214:	jb     0x40c27b
  40c216:	add    BYTE PTR [edi+0x65],ah
  40c219:	je     0x40c27a
  40c21b:	dec    edi
  40c21c:	push   ebx
  40c21d:	inc    ecx
  40c21e:	jb     0x40c283
  40c220:	push   0x63657469
  40c225:	je     0x40c29c
  40c227:	jb     0x40c28e
  40c229:	add    BYTE PTR [esi+0x69],al
  40c22c:	ins    BYTE PTR es:[edi],dx
  40c22d:	je     0x40c294
  40c22f:	jb     0x40c275
  40c231:	gs jo  0x40c299
  40c234:	outs   dx,BYTE PTR ds:[esi]
  40c235:	fs outs dx,BYTE PTR gs:[esi]
  40c238:	arpl   WORD PTR [ecx+0x65],bp
  40c23b:	jae    0x40c27f
  40c23d:	jns    0x40c280
  40c23f:	jb     0x40c2a4
  40c241:	push   0x63657469
  40c246:	je     0x40c2bd
  40c248:	jb     0x40c2af
  40c24a:	add    BYTE PTR [edi+0x65],ah
  40c24d:	je     0x40c2ae
  40c24f:	dec    ecx
  40c250:	inc    esp
  40c251:	add    BYTE PTR [ecx+0x73],al
  40c254:	jns    0x40c2c4
  40c256:	arpl   WORD PTR [edi+0x70],cx
  40c259:	gs jb  0x40c2bd
  40c25c:	je     0x40c2c7
  40c25e:	outs   dx,DWORD PTR ds:[esi]
  40c25f:	outs   dx,BYTE PTR ds:[esi]
  40c260:	push   ebx
  40c261:	je     0x40c2c4
  40c263:	je     0x40c2da
  40c265:	jae    0x40c267
  40c267:	addr16 gs je 0x40c2ca
  40c26b:	push   ebx
  40c26c:	je     0x40c2cf
  40c26e:	je     0x40c2e5
  40c270:	jae    0x40c272
  40c272:	push   ebx
  40c273:	outs   dx,BYTE PTR gs:[esi]
  40c275:	fs dec edi
  40c277:	jo     0x40c2de
  40c279:	jb     0x40c2dc
  40c27b:	je     0x40c2e6
  40c27d:	outs   dx,DWORD PTR ds:[esi]
  40c27e:	outs   dx,BYTE PTR ds:[esi]
  40c27f:	push   ebx
  40c280:	je     0x40c2e3
  40c282:	je     0x40c2f9
  40c284:	jae    0x40c2da
  40c286:	outs   dx,DWORD PTR ds:[esi]
  40c287:	inc    ebx
  40c288:	ins    BYTE PTR es:[edi],dx
  40c289:	imul   esp,DWORD PTR [ebp+0x6e],0x72410074
  40c290:	addr16 jne 0x40c300
  40c293:	outs   dx,BYTE PTR gs:[esi]
  40c295:	je     0x40c2e5
  40c297:	jne    0x40c305
  40c299:	ins    BYTE PTR es:[edi],dx
  40c29a:	inc    ebp
  40c29b:	js     0x40c300
  40c29d:	gs jo  0x40c314
  40c2a0:	imul   ebp,DWORD PTR [edi+0x6e],0x30355800
  40c2a7:	cmp    DWORD PTR [ebx+0x74],edx
  40c2aa:	outs   dx,DWORD PTR ds:[esi]
  40c2ab:	jb     0x40c312
  40c2ad:	add    BYTE PTR [ebx+0x74],dl
  40c2b0:	outs   dx,DWORD PTR ds:[esi]
  40c2b1:	jb     0x40c318
  40c2b3:	dec    esi
  40c2b4:	popa   
  40c2b5:	ins    DWORD PTR es:[edi],dx
  40c2b6:	add    BYTE PTR gs:[ebx+0x74],dl
  40c2ba:	outs   dx,DWORD PTR ds:[esi]
  40c2bb:	jb     0x40c322
  40c2bd:	dec    esp
  40c2be:	outs   dx,DWORD PTR ds:[esi]
  40c2bf:	arpl   WORD PTR [ecx+0x74],sp
  40c2c2:	imul   ebp,DWORD PTR [edi+0x6e],0x65704f00
  40c2c9:	outs   dx,BYTE PTR ds:[esi]
  40c2ca:	inc    esi
  40c2cb:	ins    BYTE PTR es:[edi],dx
  40c2cc:	popa   
  40c2cd:	addr16 jae 0x40c2d0
  40c2d0:	addr16 gs je 0x40c333
  40c2d4:	inc    ebx
  40c2d5:	gs jb  0x40c34c
  40c2d8:	imul   esp,DWORD PTR [esi+0x69],0x65746163
  40c2df:	jae    0x40c2e1
  40c2e1:	push   ebx
  40c2e2:	jns    0x40c357
  40c2e4:	je     0x40c34b
  40c2e6:	ins    DWORD PTR es:[edi],dx
  40c2e7:	cs push ebx
  40c2e9:	arpl   WORD PTR gs:[ebp+0x72],si
  40c2ed:	imul   esi,DWORD PTR [ecx+edi*2+0x2e],0x70797243
  40c2f5:	je     0x40c366
  40c2f7:	addr16 jb 0x40c35b
  40c2fa:	jo     0x40c364
  40c2fc:	jns    0x40c2fe
  40c2fe:	inc    ebx
  40c2ff:	jb     0x40c37a
  40c301:	jo     0x40c377
  40c303:	outs   dx,DWORD PTR ds:[esi]
  40c304:	addr16 jb 0x40c368
  40c307:	jo     0x40c371
  40c309:	imul   esp,DWORD PTR [ebx+0x45],0x70656378
  40c310:	je     0x40c37b
  40c312:	outs   dx,DWORD PTR ds:[esi]
  40c313:	outs   dx,BYTE PTR ds:[esi]
  40c314:	add    BYTE PTR [eax+0x35],bl
  40c317:	xor    BYTE PTR [ecx],bh
  40c319:	inc    ebx
  40c31a:	gs jb  0x40c391
  40c31d:	imul   esp,DWORD PTR [esi+0x69],0x65746163
  40c324:	xor    al,BYTE PTR [ebp+0x6e]
  40c327:	jne    0x40c396
  40c329:	gs jb  0x40c38d
  40c32c:	je     0x40c39d
  40c32e:	jb     0x40c330
  40c330:	pop    eax
  40c331:	xor    eax,0x65433930
  40c336:	jb     0x40c3ac
  40c338:	imul   esp,DWORD PTR [esi+0x69],0x65746163
  40c33f:	add    BYTE PTR [ebp+0x6d],al
  40c342:	jo     0x40c3b8
  40c344:	jns    0x40c346
  40c346:	inc    ecx
  40c347:	jae    0x40c3bc
  40c349:	gs ins DWORD PTR es:[edi],dx
  40c34b:	bound  ebp,QWORD PTR [ecx+edi*2+0x0]
  40c34f:	inc    edi
  40c350:	gs je  0x40c398
  40c353:	js     0x40c3ba
  40c355:	arpl   WORD PTR [ebp+0x74],si
  40c358:	imul   ebp,DWORD PTR [esi+0x67],0x65737341
  40c35f:	ins    DWORD PTR es:[edi],dx
  40c360:	bound  ebp,QWORD PTR [ecx+edi*2+0x0]
  40c364:	addr16 gs je 0x40c3c7
  40c368:	dec    esp
  40c369:	outs   dx,DWORD PTR ds:[esi]
  40c36a:	arpl   WORD PTR [ecx+0x74],sp
  40c36d:	imul   ebp,DWORD PTR [edi+0x6e],0x6c694600
  40c374:	add    BYTE PTR gs:[edi+0x65],ah
  40c378:	je     0x40c3d9
  40c37a:	push   ebx
  40c37b:	je     0x40c3de
  40c37d:	jb     0x40c3f3
  40c37f:	dec    ecx
  40c380:	outs   dx,BYTE PTR ds:[esi]
  40c381:	outs   dx,WORD PTR ds:[esi]
  40c383:	add    BYTE PTR [ebx+0x65],dh
  40c386:	je     0x40c3e7
  40c388:	inc    esi
  40c389:	imul   ebp,DWORD PTR [ebp+eiz*2+0x4e],0x656d61
  40c391:	jae    0x40c3f8
  40c393:	je     0x40c3f4
  40c395:	inc    ecx
  40c396:	jb     0x40c3ff
  40c398:	jne    0x40c407
  40c39a:	outs   dx,BYTE PTR gs:[esi]
  40c39c:	je     0x40c411
  40c39e:	add    BYTE PTR [ebx+0x65],dh
  40c3a1:	je     0x40c402
  40c3a3:	push   ebp
  40c3a4:	jae    0x40c40b
  40c3a6:	push   ebx
  40c3a7:	push   0x456c6c65
  40c3ac:	js     0x40c413
  40c3ae:	arpl   WORD PTR [ebp+0x74],si
  40c3b1:	add    BYTE PTR gs:[edi+0x65],ah
  40c3b5:	je     0x40c416
  40c3b7:	inc    ebp
  40c3b8:	js     0x40c423
  40c3ba:	je     0x40c3ff
  40c3bc:	outs   dx,DWORD PTR ds:[esi]
  40c3bd:	fs add BYTE PTR gs:[ebx+0x74],dl
  40c3c2:	jb     0x40c429
  40c3c4:	popa   
  40c3c5:	ins    DWORD PTR es:[edi],dx
  40c3c6:	push   edx
  40c3c7:	gs popa 
  40c3c9:	fs gs jb 0x40c3cd
  40c3cd:	push   esp
  40c3ce:	gs js  0x40c445
  40c3d1:	push   edx
  40c3d2:	gs popa 
  40c3d4:	fs gs jb 0x40c3d8
  40c3d8:	push   edx
  40c3d9:	gs popa 
  40c3db:	fs push esp
  40c3dd:	outs   dx,DWORD PTR ds:[esi]
  40c3de:	inc    ebp
  40c3df:	outs   dx,BYTE PTR ds:[esi]
  40c3e0:	add    BYTE PTR fs:[ebx+0x79],dl
  40c3e4:	jae    0x40c45a
  40c3e6:	gs ins DWORD PTR es:[edi],dx
  40c3e8:	cs push edx
  40c3ea:	jne    0x40c45a
  40c3ec:	je     0x40c457
  40c3ee:	ins    DWORD PTR es:[edi],dx
  40c3ef:	gs cs push edx
  40c3f2:	gs ins DWORD PTR es:[edi],dx
  40c3f4:	outs   dx,DWORD PTR ds:[esi]
  40c3f5:	je     0x40c460
  40c3f7:	outs   dx,BYTE PTR ds:[esi]
  40c3f8:	addr16 cs dec ebp
  40c3fb:	gs jae 0x40c471
  40c3fe:	popa   
  40c3ff:	imul   ebp,DWORD PTR [bp+0x67],0x79734100
  40c407:	outs   dx,BYTE PTR ds:[esi]
  40c408:	arpl   WORD PTR [edx+0x65],dx
  40c40b:	jae    0x40c482
  40c40d:	ins    BYTE PTR es:[edi],dx
  40c40e:	je     0x40c410
  40c410:	addr16 gs je 0x40c473
  40c414:	inc    ecx
  40c415:	jae    0x40c490
  40c417:	outs   dx,BYTE PTR ds:[esi]
  40c418:	arpl   WORD PTR [ebp+eiz*2+0x6c],ax
  40c41c:	gs addr16 popa 
  40c41f:	je     0x40c486
  40c421:	add    BYTE PTR [edi+0x65],ah
  40c424:	je     0x40c485
  40c426:	inc    ecx
  40c427:	jae    0x40c4a2
  40c429:	outs   dx,BYTE PTR ds:[esi]
  40c42a:	arpl   WORD PTR [ebx+0x74],dx
  40c42d:	popa   
  40c42e:	je     0x40c495
  40c430:	add    BYTE PTR [ebp+0x49],dl
  40c433:	outs   dx,BYTE PTR ds:[esi]
  40c434:	je     0x40c469
  40c436:	xor    al,BYTE PTR [eax]
  40c438:	addr16 gs je 0x40c49b
  40c43c:	inc    esp
  40c43d:	popa   
  40c43e:	je     0x40c4a5
  40c440:	add    BYTE PTR [edi+0x65],ah
  40c443:	je     0x40c4a4
  40c445:	dec    ebp
  40c446:	outs   dx,DWORD PTR ds:[esi]
  40c447:	outs   dx,BYTE PTR ds:[esi]
  40c448:	je     0x40c4b2
  40c44a:	add    BYTE PTR [edi+0x65],ah
  40c44d:	je     0x40c4ae
  40c44f:	pop    ecx
  40c450:	gs popa 
  40c452:	jb     0x40c454
  40c454:	addr16 gs je 0x40c4b7
  40c458:	dec    esi
  40c459:	outs   dx,DWORD PTR ds:[esi]
  40c45a:	ja     0x40c45c
  40c45c:	outs   dx,DWORD PTR ds:[esi]
  40c45d:	jo     0x40c4be
  40c45f:	inc    edi
  40c460:	jb     0x40c4c7
  40c462:	popa   
  40c463:	je     0x40c4ca
  40c465:	jb     0x40c4bb
  40c467:	push   0x44006e61
  40c46c:	ins    BYTE PTR es:[edi],dx
  40c46d:	ins    BYTE PTR es:[edi],dx
  40c46e:	dec    esi
  40c46f:	outs   dx,DWORD PTR ds:[esi]
  40c470:	je     0x40c4b8
  40c472:	outs   dx,DWORD PTR ds:[esi]
  40c473:	jne    0x40c4e3
  40c475:	fs inc ebp
  40c477:	js     0x40c4dc
  40c479:	gs jo  0x40c4f0
  40c47c:	imul   ebp,DWORD PTR [edi+0x6e],0x756e4500
  40c483:	ins    DWORD PTR es:[edi],dx
  40c484:	gs jb  0x40c4e8
  40c487:	je     0x40c4f8
  40c489:	jb     0x40c48b
  40c48b:	dec    ebx
  40c48c:	gs jns 0x40c4e5
  40c48f:	popa   
  40c490:	ins    BYTE PTR es:[edi],dx
  40c491:	jne    0x40c4f8
  40c493:	push   eax
  40c494:	popa   
  40c495:	imul   esi,DWORD PTR [edx+0x60],0x65670032
  40c49c:	je     0x40c4fd
  40c49e:	dec    ebx
  40c49f:	gs jns 0x40c4a2
  40c4a2:	addr16 gs je 0x40c505
  40c4a6:	push   esi
  40c4a7:	popa   
  40c4a8:	ins    BYTE PTR es:[edi],dx
  40c4a9:	jne    0x40c510
  40c4ab:	add    BYTE PTR [edi+0x43],al
  40c4ae:	add    BYTE PTR [ebx+0x75],dl
  40c4b1:	jo     0x40c523
  40c4b3:	jb     0x40c51a
  40c4b5:	jae    0x40c52a
  40c4b7:	inc    esi
  40c4b8:	imul   ebp,DWORD PTR [esi+0x61],0x657a696c
  40c4bf:	add    BYTE PTR [edi+0x65],ah
  40c4c2:	je     0x40c523
  40c4c4:	dec    ecx
  40c4c5:	outs   dx,BYTE PTR ds:[esi]
  40c4c6:	jbe    0x40c529
  40c4c8:	jb     0x40c533
  40c4ca:	popa   
  40c4cb:	outs   dx,BYTE PTR ds:[esi]
  40c4cc:	je     0x40c511
  40c4ce:	jne    0x40c53c
  40c4d0:	je     0x40c547
  40c4d2:	jb     0x40c539
  40c4d4:	add    BYTE PTR [ebp+0x72],dl
  40c4d7:	imul   edx,DWORD PTR [ebx+0x63],0x656d6568
  40c4de:	inc    esi
  40c4df:	imul   ebp,DWORD PTR [ebp+eiz*2+0x0],0x656b614d
  40c4e7:	inc    edi
  40c4e8:	outs   dx,BYTE PTR gs:[esi]
  40c4ea:	gs jb  0x40c556
  40c4ed:	arpl   WORD PTR [ecx+edi*2+0x70],dx
  40c4f1:	add    BYTE PTR gs:[ecx+0x63],al
  40c4f5:	je     0x40c560
  40c4f7:	jbe    0x40c55a
  40c4f9:	je     0x40c56a
  40c4fb:	jb     0x40c4fd
  40c4fd:	inc    ebx
  40c4fe:	jb     0x40c565
  40c500:	popa   
  40c501:	je     0x40c568
  40c503:	dec    ecx
  40c504:	outs   dx,BYTE PTR ds:[esi]
  40c505:	jae    0x40c57b
  40c507:	popa   
  40c508:	outs   dx,BYTE PTR ds:[esi]
  40c509:	arpl   WORD PTR [ebp+0x0],sp
  40c50c:	push   edi
  40c50d:	imul   ebp,DWORD PTR [esi+0x64],0x2e73776f
  40c514:	dec    ebp
  40c515:	popa   
  40c516:	outs   dx,BYTE PTR ds:[esi]
  40c517:	popa   
  40c518:	gs ins DWORD PTR es:[di],dx
  40c51b:	outs   dx,BYTE PTR gs:[esi]
  40c51d:	je     0x40c54d
  40c51f:	inc    esp
  40c520:	gs jo  0x40c58f
  40c523:	outs   dx,DWORD PTR ds:[esi]
  40c524:	jns    0x40c593
  40c526:	outs   dx,BYTE PTR gs:[esi]
  40c528:	je     0x40c52a
  40c52a:	push   eax
  40c52b:	popa   
  40c52c:	arpl   WORD PTR [ebx+0x61],bp
  40c52f:	addr16 gs dec ebp
  40c532:	popa   
  40c533:	outs   dx,BYTE PTR ds:[esi]
  40c534:	popa   
  40c535:	addr16 gs jb 0x40c539
  40c539:	dec    ecx
  40c53a:	inc    ecx
  40c53b:	jae    0x40c5b6
  40c53d:	outs   dx,BYTE PTR ds:[esi]
  40c53e:	arpl   WORD PTR [edi+0x70],cx
  40c541:	gs jb  0x40c5a5
  40c544:	je     0x40c5af
  40c546:	outs   dx,DWORD PTR ds:[esi]
  40c547:	outs   dx,BYTE PTR ds:[esi]
  40c548:	push   edi
  40c549:	imul   esi,DWORD PTR [eax+ebp*2+0x50],0x72676f72
  40c551:	gs jae 0x40c5c7
  40c554:	pusha  
  40c555:	xor    al,BYTE PTR [eax]
  40c557:	inc    esp
  40c558:	gs jo  0x40c5c7
  40c55b:	outs   dx,DWORD PTR ds:[esi]
  40c55c:	jns    0x40c5cb
  40c55e:	outs   dx,BYTE PTR gs:[esi]
  40c560:	je     0x40c5b4
  40c562:	gs jae 0x40c5da
  40c565:	ins    BYTE PTR es:[edi],dx
  40c566:	je     0x40c568
  40c568:	inc    esp
  40c569:	gs jo  0x40c5d8
  40c56c:	outs   dx,DWORD PTR ds:[esi]
  40c56d:	jns    0x40c5dc
  40c56f:	outs   dx,BYTE PTR gs:[esi]
  40c571:	je     0x40c5c3
  40c573:	jb     0x40c5e4
  40c575:	addr16 jb 0x40c5dd
  40c578:	jae    0x40c5ed
  40c57a:	add    BYTE PTR [ebp+eiz*2+0x70],al
  40c57e:	ins    BYTE PTR es:[edi],dx
  40c57f:	outs   dx,DWORD PTR ds:[esi]
  40c580:	jns    0x40c5ef
  40c582:	outs   dx,BYTE PTR gs:[esi]
  40c584:	je     0x40c5d5
  40c586:	jo     0x40c5fc
  40c588:	imul   ebp,DWORD PTR [edi+0x6e],0x64410073
  40c58f:	fs push eax
  40c591:	popa   
  40c592:	arpl   WORD PTR [ebx+0x61],bp
  40c595:	addr16 gs inc ecx
  40c598:	jae    0x40c613
  40c59a:	outs   dx,BYTE PTR ds:[esi]
  40c59b:	arpl   WORD PTR [eax],ax
  40c59d:	inc    ecx
  40c59e:	jae    0x40c619
  40c5a0:	outs   dx,BYTE PTR ds:[esi]
  40c5a1:	arpl   WORD PTR [edi+0x70],cx
  40c5a4:	gs jb  0x40c608
  40c5a7:	je     0x40c612
  40c5a9:	outs   dx,DWORD PTR ds:[esi]
  40c5aa:	outs   dx,BYTE PTR ds:[esi]
  40c5ab:	push   edi
  40c5ac:	imul   esi,DWORD PTR [eax+ebp*2+0x50],0x72676f72
  40c5b4:	gs jae 0x40c62a
  40c5b7:	inc    ebx
  40c5b8:	outs   dx,DWORD PTR ds:[esi]
  40c5b9:	ins    DWORD PTR es:[edi],dx
  40c5ba:	jo     0x40c628
  40c5bc:	gs je  0x40c624
  40c5bf:	fs dec eax
  40c5c1:	popa   
  40c5c2:	outs   dx,BYTE PTR ds:[esi]
  40c5c3:	fs ins BYTE PTR es:[edi],dx
  40c5c5:	gs jb  0x40c628
  40c5c8:	xor    al,BYTE PTR [eax]
  40c5ca:	jo     0x40c641
  40c5cc:	je     0x40c62d
  40c5ce:	inc    ebx
  40c5cf:	outs   dx,DWORD PTR ds:[esi]
  40c5d0:	ins    DWORD PTR es:[edi],dx
  40c5d1:	jo     0x40c63f
  40c5d3:	gs je  0x40c63b
  40c5d6:	add    BYTE PTR fs:[ecx+0x41],cl
  40c5da:	jae    0x40c655
  40c5dc:	outs   dx,BYTE PTR ds:[esi]
  40c5dd:	arpl   WORD PTR [ecx+0x6e],cx
  40c5e0:	outs   dx,WORD PTR ds:[esi]
  40c5e2:	add    BYTE PTR [edi+0x65],ah
  40c5e5:	je     0x40c646
  40c5e7:	inc    ebp
  40c5e8:	jb     0x40c65c
  40c5ea:	outs   dx,DWORD PTR ds:[esi]
  40c5eb:	jb     0x40c630
  40c5ed:	outs   dx,DWORD PTR ds:[esi]
  40c5ee:	fs add BYTE PTR gs:[ebp+0x61],cl
  40c5f3:	jb     0x40c668
  40c5f5:	push   0x47006c61
  40c5fa:	gs je  0x40c645
  40c5fd:	push   edx
  40c5fe:	inc    esi
  40c5ff:	outs   dx,DWORD PTR ds:[esi]
  40c600:	jb     0x40c647
  40c602:	js     0x40c667
  40c604:	gs jo  0x40c67b
  40c607:	imul   ebp,DWORD PTR [edi+0x6e],0x4d434400
  40c60e:	gs popa 
  40c610:	jae    0x40c687
  40c612:	jb     0x40c679
  40c614:	ins    DWORD PTR es:[edi],dx
  40c615:	outs   dx,BYTE PTR gs:[esi]
  40c617:	je     0x40c65b
  40c619:	ins    BYTE PTR es:[edi],dx
  40c61a:	outs   dx,DWORD PTR ds:[esi]
  40c61b:	arpl   WORD PTR [ebx+0x0],bp
  40c61e:	dec    ecx
  40c61f:	outs   dx,BYTE PTR ds:[esi]
  40c620:	imul   esi,DWORD PTR [ecx+ebp*2+0x61],0x657a696c
  40c628:	inc    esi
  40c629:	popa   
  40c62a:	arpl   WORD PTR [edi+ebp*2+0x72],si
  40c62e:	jns    0x40c630
  40c630:	inc    ecx
  40c631:	jo     0x40c6a3
  40c633:	inc    esp
  40c634:	outs   dx,DWORD PTR ds:[esi]
  40c635:	ins    DWORD PTR es:[edi],dx
  40c636:	popa   
  40c637:	imul   ebp,DWORD PTR [esi+0x0],0x5f746567
  40c63e:	inc    ebx
  40c63f:	jne    0x40c6b3
  40c641:	jb     0x40c6a8
  40c643:	outs   dx,BYTE PTR ds:[esi]
  40c644:	je     0x40c68a
  40c646:	outs   dx,DWORD PTR ds:[esi]
  40c647:	ins    DWORD PTR es:[edi],dx
  40c648:	popa   
  40c649:	imul   ebp,DWORD PTR [esi+0x0],0x61686e55
  40c650:	outs   dx,BYTE PTR ds:[esi]
  40c651:	fs ins BYTE PTR es:[edi],dx
  40c653:	gs fs inc ebp
  40c656:	js     0x40c6bb
  40c658:	gs jo  0x40c6cf
  40c65b:	imul   ebp,DWORD PTR [edi+0x6e],0x6e657645
  40c662:	je     0x40c6ac
  40c664:	popa   
  40c665:	outs   dx,BYTE PTR ds:[esi]
  40c666:	fs ins BYTE PTR es:[edi],dx
  40c668:	gs jb  0x40c66b
  40c66b:	popa   
  40c66c:	fs fs pop edi
  40c66f:	push   ebp
  40c670:	outs   dx,BYTE PTR ds:[esi]
  40c671:	push   0x6c646e61
  40c676:	gs fs inc ebp
  40c679:	js     0x40c6de
  40c67b:	gs jo  0x40c6f2
  40c67e:	imul   ebp,DWORD PTR [edi+0x6e],0x74634100
  40c685:	imul   ebp,DWORD PTR [edi+0x6e],0x73795300
  40c68c:	je     0x40c6f3
  40c68e:	ins    DWORD PTR es:[edi],dx
  40c68f:	cs push esp
  40c691:	push   0x64616572
  40c696:	imul   ebp,DWORD PTR [esi+0x67],0x7361542e
  40c69d:	imul   esi,DWORD PTR [ebx+0x0],0x54
  40c6a1:	popa   
  40c6a2:	jae    0x40c70f
  40c6a4:	add    BYTE PTR [ebx+0x6f],al
  40c6a7:	outs   dx,BYTE PTR ds:[esi]
  40c6a8:	je     0x40c70b
  40c6aa:	imul   ebp,DWORD PTR [esi+0x73],0x61725400
  40c6b1:	arpl   WORD PTR [ebp+0x0],sp
  40c6b4:	inc    esi
  40c6b5:	ins    BYTE PTR es:[edi],dx
  40c6b6:	jne    0x40c72b
  40c6b8:	push   0x6d657200
  40c6bd:	outs   dx,DWORD PTR ds:[esi]
  40c6be:	jbe    0x40c725
  40c6c0:	pop    edi
  40c6c1:	push   ebp
  40c6c2:	outs   dx,BYTE PTR ds:[esi]
  40c6c3:	push   0x6c646e61
  40c6c8:	gs fs inc ebp
  40c6cb:	js     0x40c730
  40c6cd:	gs jo  0x40c744
  40c6d0:	imul   ebp,DWORD PTR [edi+0x6e],0x78655400
  40c6d7:	je     0x40c730
  40c6d9:	jb     0x40c744
  40c6db:	je     0x40c742
  40c6dd:	jb     0x40c733
  40c6df:	jb     0x40c742
  40c6e1:	arpl   WORD PTR [ebp+0x4c],sp
  40c6e4:	imul   esi,DWORD PTR [ebx+0x74],0x72656e65
  40c6eb:	add    BYTE PTR [edx+esi*2+0x61],dl
  40c6ef:	arpl   WORD PTR [ebp+0x4c],sp
  40c6f2:	imul   esi,DWORD PTR [ebx+0x74],0x72656e65
  40c6f9:	inc    ebx
  40c6fa:	outs   dx,DWORD PTR ds:[esi]
  40c6fb:	ins    BYTE PTR es:[edi],dx
  40c6fc:	ins    BYTE PTR es:[edi],dx
  40c6fd:	arpl   WORD PTR gs:[ecx+ebp*2+0x6f],si
  40c702:	outs   dx,BYTE PTR ds:[esi]
  40c703:	add    BYTE PTR [edi+0x65],ah
  40c706:	je     0x40c767
  40c708:	dec    esp
  40c709:	imul   esi,DWORD PTR [ebx+0x74],0x72656e65
  40c710:	jae    0x40c712
  40c712:	push   esp
  40c713:	jb     0x40c776
  40c715:	arpl   WORD PTR [ebp+0x4c],sp
  40c718:	imul   esi,DWORD PTR [ebx+0x74],0x72656e65
  40c71f:	add    BYTE PTR [ebx+0x65],dh
  40c722:	je     0x40c783
  40c724:	inc    ecx
  40c725:	jne    0x40c79b
  40c727:	outs   dx,DWORD PTR ds:[esi]
  40c728:	inc    esi
  40c729:	ins    BYTE PTR es:[edi],dx
  40c72a:	jne    0x40c79f
  40c72c:	push   0x69725700
  40c731:	je     0x40c798
  40c733:	dec    esp
  40c734:	imul   ebp,DWORD PTR [esi+0x65],0x73734100
  40c73b:	gs ins DWORD PTR es:[edi],dx
  40c73d:	bound  ebp,QWORD PTR [ecx+edi*2+0x4e]
  40c741:	popa   
  40c742:	ins    DWORD PTR es:[edi],dx
  40c743:	add    BYTE PTR gs:[edi+0x65],al
  40c747:	je     0x40c797
  40c749:	popa   
  40c74a:	ins    DWORD PTR es:[edi],dx
  40c74b:	add    BYTE PTR gs:[edi+0x65],ah
  40c74f:	je     0x40c7b0
  40c751:	inc    ebp
  40c752:	js     0x40c7b7
  40c754:	gs jo  0x40c7cb
  40c757:	imul   ebp,DWORD PTR [edi+0x6e],0x656a624f
  40c75e:	arpl   WORD PTR [eax+eax*1+0x47],si
  40c762:	gs je  0x40c7a9
  40c765:	imul   esi,DWORD PTR [edx+0x65],0x726f7463
  40c76c:	imul   esp,DWORD PTR [ebp+0x73],0x766f4d00
  40c773:	add    BYTE PTR gs:[edi+0x75],al
  40c777:	imul   esp,DWORD PTR [eax+eax*1+0x4e],0x75477765
  40c77f:	imul   esp,DWORD PTR [eax+eax*1+0x53],0x6e697274
  40c787:	addr16 inc ebx
  40c789:	outs   dx,DWORD PTR ds:[esi]
  40c78a:	ins    DWORD PTR es:[edi],dx
  40c78b:	jo     0x40c7ee
  40c78d:	jb     0x40c7f4
  40c78f:	jb     0x40c791
  40c791:	addr16 gs je 0x40c7f4
  40c795:	dec    edi
  40c796:	jb     0x40c7fc
  40c798:	imul   ebp,DWORD PTR [esi+0x61],0x6e67496c
  40c79f:	outs   dx,DWORD PTR ds:[esi]
  40c7a0:	jb     0x40c807
  40c7a2:	inc    ebx
  40c7a3:	popa   
  40c7a4:	jae    0x40c80b
  40c7a6:	add    BYTE PTR [ecx+0x45],cl
  40c7a9:	jno    0x40c820
  40c7ab:	popa   
  40c7ac:	ins    BYTE PTR es:[edi],dx
  40c7ad:	imul   esi,DWORD PTR [ecx+edi*2+0x43],0x61706d6f
  40c7b5:	jb     0x40c81c
  40c7b7:	jb     0x40c819
  40c7b9:	xor    DWORD PTR [eax],eax
  40c7bb:	push   ebx
  40c7bc:	jns    0x40c831
  40c7be:	je     0x40c825
  40c7c0:	ins    DWORD PTR es:[edi],dx
  40c7c1:	cs inc ebx
  40c7c3:	outs   dx,DWORD PTR ds:[esi]
  40c7c4:	fs gs inc esp
  40c7c7:	outs   dx,DWORD PTR ds:[esi]
  40c7c8:	ins    DWORD PTR es:[edi],dx
  40c7c9:	cs inc ebx
  40c7cb:	outs   dx,DWORD PTR ds:[esi]
  40c7cc:	ins    DWORD PTR es:[edi],dx
  40c7cd:	jo     0x40c838
  40c7cf:	ins    BYTE PTR es:[edi],dx
  40c7d0:	gs jb  0x40c7d3
  40c7d3:	inc    edi
  40c7d4:	outs   dx,BYTE PTR gs:[esi]
  40c7d6:	gs jb  0x40c83a
  40c7d9:	je     0x40c840
  40c7db:	fs inc ebx
  40c7dd:	outs   dx,DWORD PTR ds:[esi]
  40c7de:	fs gs inc ecx
  40c7e1:	je     0x40c857
  40c7e3:	jb     0x40c84e
  40c7e5:	bound  esi,QWORD PTR [ebp+0x74]
  40c7e8:	add    BYTE PTR gs:[ebp+eiz*2+0x62],al
  40c7ed:	jne    0x40c856
  40c7ef:	addr16 gs jb 0x40c841
  40c7f3:	outs   dx,DWORD PTR ds:[esi]
  40c7f4:	outs   dx,BYTE PTR ds:[esi]
  40c7f5:	push   ebp
  40c7f6:	jae    0x40c85d
  40c7f8:	jb     0x40c83d
  40c7fa:	outs   dx,DWORD PTR ds:[esi]
  40c7fb:	fs gs inc ecx
  40c7fe:	je     0x40c874
  40c800:	jb     0x40c86b
  40c802:	bound  esi,QWORD PTR [ebp+0x74]
  40c805:	add    BYTE PTR gs:[edx+0x65],dl
  40c809:	data16 gs jb 0x40c872
  40c80d:	outs   dx,BYTE PTR ds:[esi]
  40c80e:	arpl   WORD PTR [ebp+0x45],sp
  40c811:	jno    0x40c888
  40c813:	popa   
  40c814:	ins    BYTE PTR es:[edi],dx
  40c815:	jae    0x40c817
  40c817:	addr16 gs je 0x40c87a
  40c81b:	inc    ecx
  40c81c:	jae    0x40c891
  40c81e:	gs ins DWORD PTR es:[edi],dx
  40c820:	bound  ebp,QWORD PTR [ecx+edi*2+0x0]
  40c824:	inc    edi
  40c825:	gs je  0x40c87b
  40c828:	je     0x40c89c
  40c82a:	imul   ebp,DWORD PTR [esi+0x67],0x69644500
  40c831:	je     0x40c8a2
  40c833:	jb     0x40c877
  40c835:	jb     0x40c8a6
  40c837:	ja     0x40c8ac
  40c839:	popa   
  40c83a:	bound  ebp,QWORD PTR [ebp+eiz*2+0x41]
  40c83e:	je     0x40c8b4
  40c840:	jb     0x40c8ab
  40c842:	bound  esi,QWORD PTR [ebp+0x74]
  40c845:	add    BYTE PTR gs:[ebp+0x64],al
  40c849:	imul   esi,DWORD PTR [edi+ebp*2+0x72],0x776f7242
  40c851:	jae    0x40c8b4
  40c853:	bound  ebp,QWORD PTR [ebp+eiz*2+0x53]
  40c857:	je     0x40c8ba
  40c859:	je     0x40c8c0
  40c85b:	add    BYTE PTR [ebp+0x69],cl
  40c85e:	arpl   WORD PTR [edx+0x6f],si
  40c861:	jae    0x40c8d2
  40c863:	data16 je 0x40c894
  40c866:	push   esi
  40c867:	imul   esi,DWORD PTR [ebx+0x75],0x74536c61
  40c86e:	jne    0x40c8d4
  40c870:	imul   ebp,DWORD PTR [edi+0x2e],0x6c617551
  40c877:	imul   esi,DWORD PTR [ecx+edi*2+0x54],0x736c6f6f
  40c87f:	cs push edx
  40c881:	gs ins DWORD PTR es:[edi],dx
  40c883:	outs   dx,DWORD PTR ds:[esi]
  40c884:	je     0x40c8eb
  40c886:	inc    esp
  40c887:	popa   
  40c888:	je     0x40c8eb
  40c88a:	inc    ebx
  40c88b:	outs   dx,DWORD PTR ds:[esi]
  40c88c:	ins    BYTE PTR es:[edi],dx
  40c88d:	ins    BYTE PTR es:[edi],dx
  40c88e:	arpl   WORD PTR gs:[ecx+ebp*2+0x6f],si
  40c893:	outs   dx,BYTE PTR ds:[esi]
  40c894:	cs dec eax
  40c896:	outs   dx,DWORD PTR ds:[esi]
  40c897:	jae    0x40c90d
  40c899:	cs push edx
  40c89b:	gs ins DWORD PTR es:[edi],dx
  40c89d:	outs   dx,DWORD PTR ds:[esi]
  40c89e:	je     0x40c905
  40c8a0:	push   esp
  40c8a1:	gs jae 0x40c918
  40c8a4:	push   edx
  40c8a5:	jne    0x40c915
  40c8a7:	outs   dx,BYTE PTR ds:[esi]
  40c8a8:	gs jb  0x40c8fd
  40c8ab:	gs jae 0x40c91d
  40c8ae:	jne    0x40c922
  40c8b0:	arpl   WORD PTR [ebp+0x73],sp
  40c8b3:	cs jb  0x40c91b
  40c8b6:	jae    0x40c927
  40c8b8:	jne    0x40c92c
  40c8ba:	arpl   WORD PTR [ebp+0x73],sp
  40c8bd:	add    BYTE PTR [eax],al
  40c8bf:	add    BYTE PTR [eax],al
  40c8c1:	or     DWORD PTR [ebx],0x650052
  40c8c7:	ins    DWORD PTR es:[edi],dx
  40c8c8:	add    BYTE PTR [edi+0x0],ch
  40c8cb:	je     0x40c8cd
  40c8cd:	add    BYTE PTR gs:[eax+eax*1+0x65],dl
  40c8d2:	add    BYTE PTR [ebx+0x0],dh
  40c8d5:	je     0x40c8d7
  40c8d7:	push   edx
  40c8d8:	add    BYTE PTR [ebp+0x0],dh
  40c8db:	outs   dx,BYTE PTR ds:[esi]
  40c8dc:	add    BYTE PTR [esi+0x0],ch
  40c8df:	add    BYTE PTR gs:[edx+0x0],dh
  40c8e3:	cmp    al,BYTE PTR [eax]
  40c8e5:	and    BYTE PTR [eax],al
  40c8e7:	push   ebx
  40c8e8:	add    BYTE PTR [eax+eax*1+0x61],dh
  40c8ec:	add    BYTE PTR [edx+0x0],dh
  40c8ef:	je     0x40c8f1
  40c8f1:	and    BYTE PTR [eax],al
  40c8f3:	push   esp
  40c8f4:	add    BYTE PTR [edi+0x0],ch
  40c8f7:	jne    0x40c8f9
  40c8f9:	arpl   WORD PTR [eax],ax
  40c8fb:	push   0x52002000
  40c900:	add    BYTE PTR [ebp+0x0],ah
  40c903:	arpl   WORD PTR [eax],ax
  40c905:	outs   dx,DWORD PTR ds:[esi]
  40c906:	add    BYTE PTR [edx+0x0],dh
  40c909:	add    BYTE PTR fs:[ebp+0x0],ah
  40c90d:	jb     0x40c90f
  40c90f:	cmp    al,BYTE PTR [eax]
  40c911:	and    BYTE PTR [eax],al
  40c913:	push   esp
  40c914:	add    BYTE PTR [eax+0x0],ch
  40c917:	add    BYTE PTR gs:[eax],ah
  40c91a:	add    BYTE PTR [edi+0x0],cl
  40c91d:	push   ebx
  40c91e:	add    BYTE PTR [eax],ah
  40c920:	add    BYTE PTR [esi+0x0],dh
  40c923:	add    BYTE PTR gs:[edx+0x0],dh
  40c927:	jae    0x40c929
  40c929:	imul   eax,DWORD PTR [eax],0x6e006f
  40c92f:	and    BYTE PTR [eax],al
  40c931:	jb     0x40c933
  40c933:	jne    0x40c935
  40c935:	outs   dx,BYTE PTR ds:[esi]
  40c936:	add    BYTE PTR [esi+0x0],ch
  40c939:	imul   eax,DWORD PTR [eax],0x67006e
  40c93f:	and    BYTE PTR [eax],al
  40c941:	outs   dx,DWORD PTR ds:[esi]
  40c942:	add    BYTE PTR [esi+0x0],ch
  40c945:	and    BYTE PTR [eax],al
  40c947:	je     0x40c949
  40c949:	push   0x20006500
  40c94e:	add    BYTE PTR [eax+eax*1+0x65],ah
  40c952:	add    BYTE PTR [esi+0x0],dh
  40c955:	imul   eax,DWORD PTR [eax],0x650063
  40c95b:	and    BYTE PTR [eax],al
  40c95d:	daa    
  40c95e:	add    BYTE PTR [ebx+0x0],bh
  40c961:	xor    BYTE PTR [eax],al
  40c963:	jge    0x40c965
  40c965:	daa    
  40c966:	add    BYTE PTR [eax],ah
  40c968:	add    BYTE PTR [ecx+0x0],ch
  40c96b:	jae    0x40c96d
  40c96d:	and    BYTE PTR [eax],al
  40c96f:	add    BYTE PTR [bp+si+0x0],dh
  40c973:	add    BYTE PTR gs:[ecx+0x0],ah
  40c977:	je     0x40c979
  40c979:	add    BYTE PTR gs:[edx+0x0],dh
  40c97d:	and    BYTE PTR [eax],al
  40c97f:	je     0x40c981
  40c981:	push   0x6e006100
  40c986:	add    BYTE PTR [eax],ah
  40c988:	add    BYTE PTR [edi+0x0],ch
  40c98b:	jb     0x40c98d
  40c98d:	and    BYTE PTR [eax],al
  40c98f:	add    BYTE PTR gs:[ecx+0x0],dh
  40c993:	jne    0x40c995
  40c995:	popa   
  40c996:	add    BYTE PTR [eax+eax*1+0x20],ch
  40c99a:	add    BYTE PTR [eax+eax*1+0x6f],dh
  40c99e:	add    BYTE PTR [eax],ah
  40c9a0:	add    BYTE PTR [eax+eax*1+0x68],dh
  40c9a4:	add    BYTE PTR [ebp+0x0],ah
  40c9a7:	and    BYTE PTR [eax],al
  40c9a9:	ins    DWORD PTR es:[edi],dx
  40c9aa:	add    BYTE PTR [ecx+0x0],ch
  40c9ad:	outs   dx,BYTE PTR ds:[esi]
  40c9ae:	add    BYTE PTR [ecx+0x0],ch
  40c9b1:	ins    DWORD PTR es:[edi],dx
  40c9b2:	add    BYTE PTR [ebp+0x0],dh
  40c9b5:	ins    DWORD PTR es:[edi],dx
  40c9b6:	add    BYTE PTR [eax],ah
  40c9b8:	add    BYTE PTR [ebx+0x0],dh
  40c9bb:	jne    0x40c9bd
  40c9bd:	jo     0x40c9bf
  40c9bf:	jo     0x40c9c1
  40c9c1:	outs   dx,DWORD PTR ds:[esi]
  40c9c2:	add    BYTE PTR [edx+0x0],dh
  40c9c5:	je     0x40c9c7
  40c9c7:	add    BYTE PTR gs:[eax+eax*1+0x2e],ah
  40c9cc:	add    BYTE PTR [ecx],al
  40c9ce:	or     DWORD PTR [edi],0x650052
  40c9d4:	ins    DWORD PTR es:[edi],dx
  40c9d5:	add    BYTE PTR [edi+0x0],ch
  40c9d8:	je     0x40c9da
  40c9da:	add    BYTE PTR gs:[eax+eax*1+0x65],dl
  40c9df:	add    BYTE PTR [ebx+0x0],dh
  40c9e2:	je     0x40c9e4
  40c9e4:	push   edx
  40c9e5:	add    BYTE PTR [ebp+0x0],dh
  40c9e8:	outs   dx,BYTE PTR ds:[esi]
  40c9e9:	add    BYTE PTR [esi+0x0],ch
  40c9ec:	add    BYTE PTR gs:[edx+0x0],dh
  40c9f0:	cmp    al,BYTE PTR [eax]
  40c9f2:	and    BYTE PTR [eax],al
  40c9f4:	push   ebx
  40c9f5:	add    BYTE PTR [eax+eax*1+0x61],dh
  40c9f9:	add    BYTE PTR [edx+0x0],dh
  40c9fc:	je     0x40c9fe
  40c9fe:	and    BYTE PTR [eax],al
  40ca00:	push   esp
  40ca01:	add    BYTE PTR [edi+0x0],ch
  40ca04:	jne    0x40ca06
  40ca06:	arpl   WORD PTR [eax],ax
  40ca08:	push   0x52002000
  40ca0d:	add    BYTE PTR [ebp+0x0],ah
  40ca10:	arpl   WORD PTR [eax],ax
  40ca12:	outs   dx,DWORD PTR ds:[esi]
  40ca13:	add    BYTE PTR [edx+0x0],dh
  40ca16:	add    BYTE PTR fs:[ebp+0x0],ah
  40ca1a:	jb     0x40ca1c
  40ca1c:	cmp    al,BYTE PTR [eax]
  40ca1e:	and    BYTE PTR [eax],al
  40ca20:	push   esp
  40ca21:	add    BYTE PTR [eax+0x0],ch
  40ca24:	add    BYTE PTR gs:[eax],ah
  40ca27:	add    BYTE PTR [edi+0x0],cl
  40ca2a:	push   ebx
  40ca2b:	add    BYTE PTR [eax],ah
  40ca2d:	add    BYTE PTR [esi+0x0],dh
  40ca30:	add    BYTE PTR gs:[edx+0x0],dh
  40ca34:	jae    0x40ca36
  40ca36:	imul   eax,DWORD PTR [eax],0x6e006f
  40ca3c:	and    BYTE PTR [eax],al
  40ca3e:	jb     0x40ca40
  40ca40:	jne    0x40ca42
  40ca42:	outs   dx,BYTE PTR ds:[esi]
  40ca43:	add    BYTE PTR [esi+0x0],ch
  40ca46:	imul   eax,DWORD PTR [eax],0x67006e
  40ca4c:	and    BYTE PTR [eax],al
  40ca4e:	outs   dx,DWORD PTR ds:[esi]
  40ca4f:	add    BYTE PTR [esi+0x0],ch
  40ca52:	and    BYTE PTR [eax],al
  40ca54:	je     0x40ca56
  40ca56:	push   0x20006500
  40ca5b:	add    BYTE PTR [eax+eax*1+0x65],ah
  40ca5f:	add    BYTE PTR [esi+0x0],dh
  40ca62:	imul   eax,DWORD PTR [eax],0x650063
  40ca68:	and    BYTE PTR [eax],al
  40ca6a:	daa    
  40ca6b:	add    BYTE PTR [ebx+0x0],bh
  40ca6e:	xor    BYTE PTR [eax],al
  40ca70:	jge    0x40ca72
  40ca72:	daa    
  40ca73:	add    BYTE PTR [eax],ah
  40ca75:	add    BYTE PTR [ecx+0x0],ch
  40ca78:	jae    0x40ca7a
  40ca7a:	and    BYTE PTR [eax],al
  40ca7c:	ins    BYTE PTR es:[edi],dx
  40ca7d:	add    BYTE PTR [ebp+0x0],ah
  40ca80:	jae    0x40ca82
  40ca82:	jae    0x40ca84
  40ca84:	and    BYTE PTR [eax],al
  40ca86:	je     0x40ca88
  40ca88:	push   0x6e006100
  40ca8d:	add    BYTE PTR [eax],ah
  40ca8f:	add    BYTE PTR [eax+eax*1+0x68],dh
  40ca93:	add    BYTE PTR [ebp+0x0],ah
  40ca96:	and    BYTE PTR [eax],al
  40ca98:	ins    DWORD PTR es:[edi],dx
  40ca99:	add    BYTE PTR [ecx+0x0],ch
  40ca9c:	outs   dx,BYTE PTR ds:[esi]
  40ca9d:	add    BYTE PTR [ecx+0x0],ch
  40caa0:	ins    DWORD PTR es:[edi],dx
  40caa1:	add    BYTE PTR [ebp+0x0],dh
  40caa4:	ins    DWORD PTR es:[edi],dx
  40caa5:	add    BYTE PTR [eax],ah
  40caa7:	add    BYTE PTR [ebx+0x0],bl
  40caaa:	add    BYTE PTR ss:[esi],ch
  40caad:	add    BYTE PTR [edx],dh
  40caaf:	add    BYTE PTR [ebp+0x0],bl
  40cab2:	and    BYTE PTR [eax],al
  40cab4:	jae    0x40cab6
  40cab6:	jne    0x40cab8
  40cab8:	jo     0x40caba
  40caba:	jo     0x40cabc
  40cabc:	outs   dx,DWORD PTR ds:[esi]
  40cabd:	add    BYTE PTR [edx+0x0],dh
  40cac0:	je     0x40cac2
  40cac2:	add    BYTE PTR gs:[eax+eax*1+0x20],ah
  40cac7:	add    BYTE PTR [edi+0x0],cl
  40caca:	push   ebx
  40cacb:	add    BYTE PTR [eax],ah
  40cacd:	add    BYTE PTR [esi+0x0],dh
  40cad0:	add    BYTE PTR gs:[edx+0x0],dh
  40cad4:	jae    0x40cad6
  40cad6:	imul   eax,DWORD PTR [eax],0x6e006f
  40cadc:	add    BYTE PTR cs:[ecx],al
  40cadf:	add    BYTE PTR [ecx+0x650052],0x6d
  40cae6:	add    BYTE PTR [edi+0x0],ch
  40cae9:	je     0x40caeb
  40caeb:	add    BYTE PTR gs:[eax+eax*1+0x65],dl
  40caf0:	add    BYTE PTR [ebx+0x0],dh
  40caf3:	je     0x40caf5
  40caf5:	push   edx
  40caf6:	add    BYTE PTR [ebp+0x0],dh
  40caf9:	outs   dx,BYTE PTR ds:[esi]
  40cafa:	add    BYTE PTR [esi+0x0],ch
  40cafd:	add    BYTE PTR gs:[edx+0x0],dh
  40cb01:	cmp    al,BYTE PTR [eax]
  40cb03:	and    BYTE PTR [eax],al
  40cb05:	push   ebx
  40cb06:	add    BYTE PTR [eax+eax*1+0x61],dh
  40cb0a:	add    BYTE PTR [edx+0x0],dh
  40cb0d:	je     0x40cb0f
  40cb0f:	and    BYTE PTR [eax],al
  40cb11:	push   esp
  40cb12:	add    BYTE PTR [edi+0x0],ch
  40cb15:	jne    0x40cb17
  40cb17:	arpl   WORD PTR [eax],ax
  40cb19:	push   0x52002000
  40cb1e:	add    BYTE PTR [ebp+0x0],ah
  40cb21:	arpl   WORD PTR [eax],ax
  40cb23:	outs   dx,DWORD PTR ds:[esi]
  40cb24:	add    BYTE PTR [edx+0x0],dh
  40cb27:	add    BYTE PTR fs:[ebp+0x0],ah
  40cb2b:	jb     0x40cb2d
  40cb2d:	cmp    al,BYTE PTR [eax]
  40cb2f:	and    BYTE PTR [eax],al
  40cb31:	inc    ebx
  40cb32:	add    BYTE PTR [ecx+0x0],ah
  40cb35:	ins    BYTE PTR es:[edi],dx
  40cb36:	add    BYTE PTR [eax+eax*1+0x65],ch
  40cb3a:	add    BYTE PTR [eax+eax*1+0x20],ah
  40cb3e:	add    BYTE PTR [eax+eax*1+0x6f],dh
  40cb42:	add    BYTE PTR [eax],ah
  40cb44:	add    BYTE PTR [eax+eax*1+0x61],ch
  40cb48:	add    BYTE PTR [ebp+0x0],dh
  40cb4b:	outs   dx,BYTE PTR ds:[esi]
  40cb4c:	add    BYTE PTR [ebx+0x0],ah
  40cb4f:	push   0x7b002000
  40cb54:	add    BYTE PTR [eax],dh
  40cb56:	add    BYTE PTR [ebp+0x0],bh
  40cb59:	pop    esp
  40cb5a:	add    BYTE PTR [ebx+0x0],bh
  40cb5d:	xor    DWORD PTR [eax],eax
  40cb5f:	jge    0x40cb61
  40cb61:	add    BYTE PTR [eax+0x650052a1],al
  40cb67:	add    BYTE PTR [ebp+0x0],ch
  40cb6a:	outs   dx,DWORD PTR ds:[esi]
  40cb6b:	add    BYTE PTR [eax+eax*1+0x65],dh
  40cb6f:	add    BYTE PTR [eax+eax*1+0x65],dl
  40cb73:	add    BYTE PTR [ebx+0x0],dh
  40cb76:	je     0x40cb78
  40cb78:	push   edx
  40cb79:	add    BYTE PTR [ebp+0x0],dh
  40cb7c:	outs   dx,BYTE PTR ds:[esi]
  40cb7d:	add    BYTE PTR [esi+0x0],ch
  40cb80:	add    BYTE PTR gs:[edx+0x0],dh
  40cb84:	cmp    al,BYTE PTR [eax]
  40cb86:	and    BYTE PTR [eax],al
  40cb88:	push   ebx
  40cb89:	add    BYTE PTR [eax+eax*1+0x61],dh
  40cb8d:	add    BYTE PTR [edx+0x0],dh
  40cb90:	je     0x40cb92
  40cb92:	and    BYTE PTR [eax],al
  40cb94:	push   esp
  40cb95:	add    BYTE PTR [edi+0x0],ch
  40cb98:	jne    0x40cb9a
  40cb9a:	arpl   WORD PTR [eax],ax
  40cb9c:	push   0x52002000
  40cba1:	add    BYTE PTR [ebp+0x0],ah
  40cba4:	arpl   WORD PTR [eax],ax
  40cba6:	outs   dx,DWORD PTR ds:[esi]
  40cba7:	add    BYTE PTR [edx+0x0],dh
  40cbaa:	add    BYTE PTR fs:[ebp+0x0],ah
  40cbae:	jb     0x40cbb0
  40cbb0:	cmp    al,BYTE PTR [eax]
  40cbb2:	and    BYTE PTR [eax],al
  40cbb4:	inc    esi
  40cbb5:	add    BYTE PTR [edi+0x0],ch
  40cbb8:	jne    0x40cbba
  40cbba:	outs   dx,BYTE PTR ds:[esi]
  40cbbb:	add    BYTE PTR [eax+eax*1+0x20],ah
  40cbbf:	add    BYTE PTR [eax+0x0],dl
  40cbc2:	jb     0x40cbc4
  40cbc4:	outs   dx,DWORD PTR ds:[esi]
  40cbc5:	add    BYTE PTR [ebx+0x0],ah
  40cbc8:	add    BYTE PTR gs:[ebx+0x0],dh
  40cbcc:	jae    0x40cbce
  40cbce:	and    BYTE PTR [eax],al
  40cbd0:	pop    ebx
  40cbd1:	add    BYTE PTR [ebx+0x0],bh
  40cbd4:	xor    BYTE PTR [eax],al
  40cbd6:	jge    0x40cbd8
  40cbd8:	pop    ebp
  40cbd9:	add    BYTE PTR [edx],bh
  40cbdb:	add    BYTE PTR [ebx+0x0],bh
  40cbde:	xor    DWORD PTR [eax],eax
  40cbe0:	jge    0x40cbe2
  40cbe2:	and    BYTE PTR [eax],al
  40cbe4:	jb     0x40cbe6
  40cbe6:	jne    0x40cbe8
  40cbe8:	outs   dx,BYTE PTR ds:[esi]
  40cbe9:	add    BYTE PTR [esi+0x0],ch
  40cbec:	imul   eax,DWORD PTR [eax],0x67006e
  40cbf2:	and    BYTE PTR [eax],al
  40cbf4:	popa   
  40cbf5:	add    BYTE PTR [eax+eax*1+0x72],ch
  40cbf9:	add    BYTE PTR [ebp+0x0],ah
  40cbfc:	popa   
  40cbfd:	add    BYTE PTR [eax+eax*1+0x79],ah
  40cc01:	add    BYTE PTR [esi],ch
  40cc03:	add    BYTE PTR [eax],al
  40cc05:	adc    ch,0x52
  40cc08:	add    BYTE PTR [ebp+0x0],ah
  40cc0b:	ins    DWORD PTR es:[edi],dx
  40cc0c:	add    BYTE PTR [edi+0x0],ch
  40cc0f:	je     0x40cc11
  40cc11:	add    BYTE PTR gs:[eax+eax*1+0x65],dl
  40cc16:	add    BYTE PTR [ebx+0x0],dh
  40cc19:	je     0x40cc1b
  40cc1b:	push   edx
  40cc1c:	add    BYTE PTR [ebp+0x0],dh
  40cc1f:	outs   dx,BYTE PTR ds:[esi]
  40cc20:	add    BYTE PTR [esi+0x0],ch
  40cc23:	add    BYTE PTR gs:[edx+0x0],dh
  40cc27:	cmp    al,BYTE PTR [eax]
  40cc29:	and    BYTE PTR [eax],al
  40cc2b:	push   ebx
  40cc2c:	add    BYTE PTR [eax+eax*1+0x61],dh
  40cc30:	add    BYTE PTR [edx+0x0],dh
  40cc33:	je     0x40cc35
  40cc35:	and    BYTE PTR [eax],al
  40cc37:	push   esp
  40cc38:	add    BYTE PTR [edi+0x0],ch
  40cc3b:	jne    0x40cc3d
  40cc3d:	arpl   WORD PTR [eax],ax
  40cc3f:	push   0x52002000
  40cc44:	add    BYTE PTR [ebp+0x0],ah
  40cc47:	arpl   WORD PTR [eax],ax
  40cc49:	outs   dx,DWORD PTR ds:[esi]
  40cc4a:	add    BYTE PTR [edx+0x0],dh
  40cc4d:	add    BYTE PTR fs:[ebp+0x0],ah
  40cc51:	jb     0x40cc53
  40cc53:	cmp    al,BYTE PTR [eax]
  40cc55:	and    BYTE PTR [eax],al
  40cc57:	inc    esi
  40cc58:	add    BYTE PTR [edi+0x0],ch
  40cc5b:	jne    0x40cc5d
  40cc5d:	outs   dx,BYTE PTR ds:[esi]
  40cc5e:	add    BYTE PTR [eax+eax*1+0x20],ah
  40cc62:	add    BYTE PTR [ebx+0x0],bh
  40cc65:	xor    BYTE PTR [eax],al
  40cc67:	jge    0x40cc69
  40cc69:	and    BYTE PTR [eax],al
  40cc6b:	push   esp
  40cc6c:	add    BYTE PTR [edx+0x0],dl
  40cc6f:	dec    ecx
  40cc70:	add    BYTE PTR [eax],ah
  40cc72:	add    BYTE PTR [eax+0x0],dh
  40cc75:	jb     0x40cc77
  40cc77:	outs   dx,DWORD PTR ds:[esi]
  40cc78:	add    BYTE PTR [ebx+0x0],ah
  40cc7b:	add    BYTE PTR gs:[ebx+0x0],dh
  40cc7f:	jae    0x40cc81
  40cc81:	add    BYTE PTR gs:[ebx+0x0],dh
  40cc85:	and    BYTE PTR [eax],al
  40cc87:	jb     0x40cc89
  40cc89:	jne    0x40cc8b
  40cc8b:	outs   dx,BYTE PTR ds:[esi]
  40cc8c:	add    BYTE PTR [esi+0x0],ch
  40cc8f:	imul   eax,DWORD PTR [eax],0x67006e
  40cc95:	add    BYTE PTR cs:[eax],ah
  40cc98:	add    BYTE PTR [ecx+0x0],al
  40cc9b:	je     0x40cc9d
  40cc9d:	je     0x40cc9f
  40cc9f:	add    BYTE PTR gs:[ebp+0x0],ch
  40cca3:	jo     0x40cca5
  40cca5:	je     0x40cca7
  40cca7:	imul   eax,DWORD PTR [eax],0x67006e
  40ccad:	and    BYTE PTR [eax],al
  40ccaf:	je     0x40ccb1
  40ccb1:	outs   dx,DWORD PTR ds:[esi]
  40ccb2:	add    BYTE PTR [eax],ah
  40ccb4:	add    BYTE PTR [ebp+0x0],ch
  40ccb7:	add    BYTE PTR gs:[esi+0x0],ch
  40ccbb:	add    BYTE PTR fs:[eax],ah
  40ccbe:	add    BYTE PTR [eax+eax*1+0x68],dh
  40ccc2:	add    BYTE PTR [ebp+0x0],ah
  40ccc5:	and    BYTE PTR [eax],al
  40ccc7:	jae    0x40ccc9
  40ccc9:	imul   eax,DWORD PTR [eax],0x750074
  40cccf:	popa   
  40ccd0:	add    BYTE PTR [eax+eax*1+0x69],dh
  40ccd4:	add    BYTE PTR [edi+0x0],ch
  40ccd7:	outs   dx,BYTE PTR ds:[esi]
  40ccd8:	add    BYTE PTR [esi],ch
  40ccda:	add    BYTE PTR [eax],al
  40ccdc:	sbb    BYTE PTR [ebp+0x650052],0x6d
  40cce3:	add    BYTE PTR [edi+0x0],ch
  40cce6:	je     0x40cce8
  40cce8:	add    BYTE PTR gs:[eax+eax*1+0x65],dl
  40cced:	add    BYTE PTR [ebx+0x0],dh
  40ccf0:	je     0x40ccf2
  40ccf2:	push   edx
  40ccf3:	add    BYTE PTR [ebp+0x0],dh
  40ccf6:	outs   dx,BYTE PTR ds:[esi]
  40ccf7:	add    BYTE PTR [esi+0x0],ch
  40ccfa:	add    BYTE PTR gs:[edx+0x0],dh
  40ccfe:	cmp    al,BYTE PTR [eax]
  40cd00:	and    BYTE PTR [eax],al
  40cd02:	push   ebx
  40cd03:	add    BYTE PTR [eax+eax*1+0x61],dh
  40cd07:	add    BYTE PTR [edx+0x0],dh
  40cd0a:	je     0x40cd0c
  40cd0c:	and    BYTE PTR [eax],al
  40cd0e:	push   esp
  40cd0f:	add    BYTE PTR [edi+0x0],ch
  40cd12:	jne    0x40cd14
  40cd14:	arpl   WORD PTR [eax],ax
  40cd16:	push   0x52002000
  40cd1b:	add    BYTE PTR [ebp+0x0],ah
  40cd1e:	arpl   WORD PTR [eax],ax
  40cd20:	outs   dx,DWORD PTR ds:[esi]
  40cd21:	add    BYTE PTR [edx+0x0],dh
  40cd24:	add    BYTE PTR fs:[ebp+0x0],ah
  40cd28:	jb     0x40cd2a
  40cd2a:	cmp    al,BYTE PTR [eax]
  40cd2c:	and    BYTE PTR [eax],al
  40cd2e:	inc    ecx
  40cd2f:	add    BYTE PTR [eax+eax*1+0x74],dh
  40cd33:	add    BYTE PTR [ebp+0x0],ah
  40cd36:	ins    DWORD PTR es:[edi],dx
  40cd37:	add    BYTE PTR [eax+0x0],dh
  40cd3a:	je     0x40cd3c
  40cd3c:	and    BYTE PTR [eax],al
  40cd3e:	je     0x40cd40
  40cd40:	outs   dx,DWORD PTR ds:[esi]
  40cd41:	add    BYTE PTR [eax],ah
  40cd43:	add    BYTE PTR [ebx+0x0],ah
  40cd46:	ins    BYTE PTR es:[edi],dx
  40cd47:	add    BYTE PTR [edi+0x0],ch
  40cd4a:	jae    0x40cd4c
  40cd4c:	add    BYTE PTR gs:[eax],ah
  40cd4f:	add    BYTE PTR [eax+eax*1+0x52],dl
  40cd53:	add    BYTE PTR [ecx+0x0],cl
  40cd56:	and    BYTE PTR [eax],al
  40cd58:	jo     0x40cd5a
  40cd5a:	jb     0x40cd5c
  40cd5c:	outs   dx,DWORD PTR ds:[esi]
  40cd5d:	add    BYTE PTR [ebx+0x0],ah
  40cd60:	add    BYTE PTR gs:[ebx+0x0],dh
  40cd64:	jae    0x40cd66
  40cd66:	and    BYTE PTR [eax],al
  40cd68:	je     0x40cd6a
  40cd6a:	imul   eax,DWORD PTR [eax],0x65006d
  40cd70:	add    BYTE PTR fs:[edi+0x0],ch
  40cd74:	jne    0x40cd76
  40cd76:	je     0x40cd78
  40cd78:	add    BYTE PTR cs:[eax],al
  40cd7b:	cmp    BYTE PTR [edi+0x650052],0x6d
  40cd82:	add    BYTE PTR [edi+0x0],ch
  40cd85:	je     0x40cd87
  40cd87:	add    BYTE PTR gs:[eax+eax*1+0x65],dl
  40cd8c:	add    BYTE PTR [ebx+0x0],dh
  40cd8f:	je     0x40cd91
  40cd91:	push   edx
  40cd92:	add    BYTE PTR [ebp+0x0],dh
  40cd95:	outs   dx,BYTE PTR ds:[esi]
  40cd96:	add    BYTE PTR [esi+0x0],ch
  40cd99:	add    BYTE PTR gs:[edx+0x0],dh
  40cd9d:	cmp    al,BYTE PTR [eax]
  40cd9f:	and    BYTE PTR [eax],al
  40cda1:	push   ebx
  40cda2:	add    BYTE PTR [eax+eax*1+0x61],dh
  40cda6:	add    BYTE PTR [edx+0x0],dh
  40cda9:	je     0x40cdab
  40cdab:	and    BYTE PTR [eax],al
  40cdad:	push   esp
  40cdae:	add    BYTE PTR [edi+0x0],ch
  40cdb1:	jne    0x40cdb3
  40cdb3:	arpl   WORD PTR [eax],ax
  40cdb5:	push   0x52002000
  40cdba:	add    BYTE PTR [ebp+0x0],ah
  40cdbd:	arpl   WORD PTR [eax],ax
  40cdbf:	outs   dx,DWORD PTR ds:[esi]
  40cdc0:	add    BYTE PTR [edx+0x0],dh
  40cdc3:	add    BYTE PTR fs:[ebp+0x0],ah
  40cdc7:	jb     0x40cdc9
  40cdc9:	cmp    al,BYTE PTR [eax]
  40cdcb:	and    BYTE PTR [eax],al
  40cdcd:	inc    ecx
  40cdce:	add    BYTE PTR [eax+eax*1+0x74],dh
  40cdd2:	add    BYTE PTR [ebp+0x0],ah
  40cdd5:	ins    DWORD PTR es:[edi],dx
  40cdd6:	add    BYTE PTR [eax+0x0],dh
  40cdd9:	je     0x40cddb
  40cddb:	and    BYTE PTR [eax],al
  40cddd:	je     0x40cddf
  40cddf:	outs   dx,DWORD PTR ds:[esi]
  40cde0:	add    BYTE PTR [eax],ah
  40cde2:	add    BYTE PTR [ebx+0x0],ah
  40cde5:	ins    BYTE PTR es:[edi],dx
  40cde6:	add    BYTE PTR [edi+0x0],ch
  40cde9:	jae    0x40cdeb
  40cdeb:	add    BYTE PTR gs:[eax],ah
  40cdee:	add    BYTE PTR [eax+eax*1+0x52],dl
  40cdf2:	add    BYTE PTR [ecx+0x0],cl
  40cdf5:	and    BYTE PTR [eax],al
  40cdf7:	jo     0x40cdf9
  40cdf9:	jb     0x40cdfb
  40cdfb:	outs   dx,DWORD PTR ds:[esi]
  40cdfc:	add    BYTE PTR [ebx+0x0],ah
  40cdff:	add    BYTE PTR gs:[ebx+0x0],dh
  40ce03:	jae    0x40ce05
  40ce05:	and    BYTE PTR [eax],al
  40ce07:	data16 add BYTE PTR [ecx+0x0],ah
  40ce0b:	imul   eax,DWORD PTR [eax],0x65006c
  40ce11:	add    BYTE PTR fs:[eax],ah
  40ce14:	add    BYTE PTR [edi+0x0],dh
  40ce17:	imul   eax,DWORD PTR [eax],0x680074
  40ce1d:	and    BYTE PTR [eax],al
  40ce1f:	add    BYTE PTR gs:[eax+0x0],bh
  40ce23:	arpl   WORD PTR [eax],ax
  40ce25:	add    BYTE PTR gs:[eax+0x0],dh
  40ce29:	je     0x40ce2b
  40ce2b:	imul   eax,DWORD PTR [eax],0x6e006f
  40ce31:	and    BYTE PTR [eax],al
  40ce33:	jnp    0x40ce35
  40ce35:	xor    BYTE PTR [eax],al
  40ce37:	jge    0x40ce39
  40ce39:	add    BYTE PTR cs:[eax],al
  40ce3c:	add    esp,DWORD PTR [edx]
  40ce3e:	add    BYTE PTR [eax],al
  40ce40:	add    esp,DWORD PTR [eax]
  40ce42:	add    BYTE PTR [eax],al
  40ce44:	xor    BYTE PTR [ebp+0x650052],0x6d
  40ce4b:	add    BYTE PTR [edi+0x0],ch
  40ce4e:	je     0x40ce50
  40ce50:	add    BYTE PTR gs:[eax+eax*1+0x65],dl
  40ce55:	add    BYTE PTR [ebx+0x0],dh
  40ce58:	je     0x40ce5a
  40ce5a:	push   edx
  40ce5b:	add    BYTE PTR [ebp+0x0],dh
  40ce5e:	outs   dx,BYTE PTR ds:[esi]
  40ce5f:	add    BYTE PTR [esi+0x0],ch
  40ce62:	add    BYTE PTR gs:[edx+0x0],dh
  40ce66:	cmp    al,BYTE PTR [eax]
  40ce68:	and    BYTE PTR [eax],al
  40ce6a:	push   ebx
  40ce6b:	add    BYTE PTR [eax+eax*1+0x61],dh
  40ce6f:	add    BYTE PTR [edx+0x0],dh
  40ce72:	je     0x40ce74
  40ce74:	and    BYTE PTR [eax],al
  40ce76:	push   esp
  40ce77:	add    BYTE PTR [edi+0x0],ch
  40ce7a:	jne    0x40ce7c
  40ce7c:	arpl   WORD PTR [eax],ax
  40ce7e:	push   0x52002000
  40ce83:	add    BYTE PTR [ebp+0x0],ah
  40ce86:	arpl   WORD PTR [eax],ax
  40ce88:	outs   dx,DWORD PTR ds:[esi]
  40ce89:	add    BYTE PTR [edx+0x0],dh
  40ce8c:	add    BYTE PTR fs:[ebp+0x0],ah
  40ce90:	jb     0x40ce92
  40ce92:	cmp    al,BYTE PTR [eax]
  40ce94:	and    BYTE PTR [eax],al
  40ce96:	dec    esp
  40ce97:	add    BYTE PTR [ecx+0x0],ah
  40ce9a:	jne    0x40ce9c
  40ce9c:	outs   dx,BYTE PTR ds:[esi]
  40ce9d:	add    BYTE PTR [ebx+0x0],ah
  40cea0:	push   0x6e006900
  40cea5:	add    BYTE PTR [edi+0x0],ah
  40cea8:	and    BYTE PTR [eax],al
  40ceaa:	je     0x40ceac
  40ceac:	push   0x20006500
  40ceb1:	add    BYTE PTR [eax+eax*1+0x52],dl
  40ceb5:	add    BYTE PTR [ecx+0x0],cl
  40ceb8:	and    BYTE PTR [eax],al
  40ceba:	jo     0x40cebc
  40cebc:	jb     0x40cebe
  40cebe:	outs   dx,DWORD PTR ds:[esi]
  40cebf:	add    BYTE PTR [ebx+0x0],ah
  40cec2:	add    BYTE PTR gs:[ebx+0x0],dh
  40cec6:	jae    0x40cec8
  40cec8:	and    BYTE PTR [eax],al
  40ceca:	jnp    0x40cecc
  40cecc:	xor    BYTE PTR [eax],al
  40cece:	jge    0x40ced0
  40ced0:	and    BYTE PTR [eax],al
  40ced2:	ja     0x40ced4
  40ced4:	imul   eax,DWORD PTR [eax],0x680074
  40ceda:	and    BYTE PTR [eax],al
  40cedc:	popa   
  40cedd:	add    BYTE PTR [edx+0x0],dh
  40cee0:	add    BYTE PTR [di+0x0],dh
  40cee4:	ins    DWORD PTR es:[edi],dx
  40cee5:	add    BYTE PTR [ebp+0x0],ah
  40cee8:	outs   dx,BYTE PTR ds:[esi]
  40cee9:	add    BYTE PTR [eax+eax*1+0x73],dh
  40ceed:	add    BYTE PTR [eax],ah
  40ceef:	add    BYTE PTR [ebx+0x0],bh
  40cef2:	xor    DWORD PTR [eax],eax
  40cef4:	jge    0x40cef6
  40cef6:	add    BYTE PTR cs:[esi],ch
  40cef9:	add    BYTE PTR [eax],al
  40cefb:	xor    bh,0x52
  40cefe:	add    BYTE PTR [ebp+0x0],ah
  40cf01:	ins    DWORD PTR es:[edi],dx
  40cf02:	add    BYTE PTR [edi+0x0],ch
  40cf05:	je     0x40cf07
  40cf07:	add    BYTE PTR gs:[eax+eax*1+0x65],dl
  40cf0c:	add    BYTE PTR [ebx+0x0],dh
  40cf0f:	je     0x40cf11
  40cf11:	push   edx
  40cf12:	add    BYTE PTR [ebp+0x0],dh
  40cf15:	outs   dx,BYTE PTR ds:[esi]
  40cf16:	add    BYTE PTR [esi+0x0],ch
  40cf19:	add    BYTE PTR gs:[edx+0x0],dh
  40cf1d:	cmp    al,BYTE PTR [eax]
  40cf1f:	and    BYTE PTR [eax],al
  40cf21:	push   ebx
  40cf22:	add    BYTE PTR [eax+eax*1+0x61],dh
  40cf26:	add    BYTE PTR [edx+0x0],dh
  40cf29:	je     0x40cf2b
  40cf2b:	and    BYTE PTR [eax],al
  40cf2d:	push   esp
  40cf2e:	add    BYTE PTR [edi+0x0],ch
  40cf31:	jne    0x40cf33
  40cf33:	arpl   WORD PTR [eax],ax
  40cf35:	push   0x52002000
  40cf3a:	add    BYTE PTR [ebp+0x0],ah
  40cf3d:	arpl   WORD PTR [eax],ax
  40cf3f:	outs   dx,DWORD PTR ds:[esi]
  40cf40:	add    BYTE PTR [edx+0x0],dh
  40cf43:	add    BYTE PTR fs:[ebp+0x0],ah
  40cf47:	jb     0x40cf49
  40cf49:	cmp    al,BYTE PTR [eax]
  40cf4b:	and    BYTE PTR [eax],al
  40cf4d:	inc    esi
  40cf4e:	add    BYTE PTR [ecx+0x0],ah
  40cf51:	imul   eax,DWORD PTR [eax],0x65006c
  40cf57:	add    BYTE PTR fs:[eax],ah
  40cf5a:	add    BYTE PTR [eax+eax*1+0x6f],dh
  40cf5e:	add    BYTE PTR [eax],ah
  40cf60:	add    BYTE PTR [ebx+0x0],dh
  40cf63:	je     0x40cf65
  40cf65:	popa   
  40cf66:	add    BYTE PTR [edx+0x0],dh
  40cf69:	je     0x40cf6b
  40cf6b:	and    BYTE PTR [eax],al
  40cf6d:	je     0x40cf6f
  40cf6f:	push   0x20006500
  40cf74:	add    BYTE PTR [eax+eax*1+0x52],dl
  40cf78:	add    BYTE PTR [ecx+0x0],cl
  40cf7b:	and    BYTE PTR [eax],al
  40cf7d:	jo     0x40cf7f
  40cf7f:	jb     0x40cf81
  40cf81:	outs   dx,DWORD PTR ds:[esi]
  40cf82:	add    BYTE PTR [ebx+0x0],ah
  40cf85:	add    BYTE PTR gs:[ebx+0x0],dh
  40cf89:	jae    0x40cf8b
  40cf8b:	add    BYTE PTR cs:[eax],ah
  40cf8e:	add    BYTE PTR [eax+eax*1+0x6f],dl
  40cf92:	add    BYTE PTR [ebp+0x0],dh
  40cf95:	arpl   WORD PTR [eax],ax
  40cf97:	push   0x61002000
  40cf9c:	add    BYTE PTR [ebx+0x0],ah
  40cf9f:	je     0x40cfa1
  40cfa1:	imul   eax,DWORD PTR [eax],0x6e006f
  40cfa7:	jae    0x40cfa9
  40cfa9:	and    BYTE PTR [eax],al
  40cfab:	ja     0x40cfad
  40cfad:	imul   eax,DWORD PTR [eax],0x6c006c
  40cfb3:	and    BYTE PTR [eax],al
  40cfb5:	outs   dx,BYTE PTR ds:[esi]
  40cfb6:	add    BYTE PTR [edi+0x0],ch
  40cfb9:	je     0x40cfbb
  40cfbb:	and    BYTE PTR [eax],al
  40cfbd:	bound  eax,QWORD PTR [eax]
  40cfbf:	add    BYTE PTR gs:[eax],ah
  40cfc2:	add    BYTE PTR [edx+0x0],dh
  40cfc5:	add    BYTE PTR gs:[ebx+0x0],ah
  40cfc9:	outs   dx,DWORD PTR ds:[esi]
  40cfca:	add    BYTE PTR [edx+0x0],dh
  40cfcd:	add    BYTE PTR fs:[ebp+0x0],ah
  40cfd1:	add    BYTE PTR fs:[esi],ch
  40cfd4:	add    BYTE PTR [eax],ah
  40cfd6:	add    BYTE PTR [ebp+0x0],al
  40cfd9:	js     0x40cfdb
  40cfdb:	arpl   WORD PTR [eax],ax
  40cfdd:	add    BYTE PTR gs:[eax+0x0],dh
  40cfe1:	je     0x40cfe3
  40cfe3:	imul   eax,DWORD PTR [eax],0x6e006f
  40cfe9:	cmp    al,BYTE PTR [eax]
  40cfeb:	and    BYTE PTR [eax],al
  40cfed:	jnp    0x40cfef
  40cfef:	xor    BYTE PTR [eax],al
  40cff1:	jge    0x40cff3
  40cff3:	add    BYTE PTR ds:0x490055,dh
  40cff9:	push   esp
  40cffa:	add    BYTE PTR [ebp+0x0],ah
  40cffd:	jae    0x40cfff
  40cfff:	je     0x40d001
  40d001:	push   eax
  40d002:	add    BYTE PTR [edi+0x0],ch
  40d005:	imul   eax,DWORD PTR [eax],0x74006e
  40d00b:	add    BYTE PTR gs:[edx+0x0],dh
  40d00f:	dec    ecx
  40d010:	add    BYTE PTR [esi+0x0],ch
  40d013:	jo     0x40d015
  40d015:	jne    0x40d017
  40d017:	je     0x40d019
  40d019:	push   edx
  40d01a:	add    BYTE PTR [ebp+0x0],ah
  40d01d:	arpl   WORD PTR [eax],ax
  40d01f:	add    BYTE PTR gs:[ecx+0x0],ch
  40d023:	jbe    0x40d025
  40d025:	add    BYTE PTR gs:[edx+0x0],dh
  40d029:	add    BYTE PTR [ebx+0x52],dl
  40d02c:	add    BYTE PTR [ebp+0x0],ah
  40d02f:	ins    DWORD PTR es:[edi],dx
  40d030:	add    BYTE PTR [edi+0x0],ch
  40d033:	je     0x40d035
  40d035:	add    BYTE PTR gs:[eax+eax*1+0x65],dl
  40d03a:	add    BYTE PTR [ebx+0x0],dh
  40d03d:	je     0x40d03f
  40d03f:	push   edx
  40d040:	add    BYTE PTR [ebp+0x0],dh
  40d043:	outs   dx,BYTE PTR ds:[esi]
  40d044:	add    BYTE PTR [esi+0x0],ch
  40d047:	add    BYTE PTR gs:[edx+0x0],dh
  40d04b:	cmp    al,BYTE PTR [eax]
  40d04d:	and    BYTE PTR [eax],al
  40d04f:	push   esp
  40d050:	add    BYTE PTR [edi+0x0],ch
  40d053:	jne    0x40d055
  40d055:	arpl   WORD PTR [eax],ax
  40d057:	push   0x52002000
  40d05c:	add    BYTE PTR [ebp+0x0],ah
  40d05f:	arpl   WORD PTR [eax],ax
  40d061:	outs   dx,DWORD PTR ds:[esi]
  40d062:	add    BYTE PTR [edx+0x0],dh
  40d065:	add    BYTE PTR fs:[ebp+0x0],ah
  40d069:	jb     0x40d06b
  40d06b:	and    BYTE PTR [eax],al
  40d06d:	jae    0x40d06f
  40d06f:	je     0x40d071
  40d071:	popa   
  40d072:	add    BYTE PTR [edx+0x0],dh
  40d075:	je     0x40d077
  40d077:	add    BYTE PTR gs:[eax+eax*1+0x2e],ah
  40d07c:	add    BYTE PTR [eax],al
  40d07e:	sub    BYTE PTR [ebx+0x650052],0x6d
  40d085:	add    BYTE PTR [edi+0x0],ch
  40d088:	je     0x40d08a
  40d08a:	add    BYTE PTR gs:[eax+eax*1+0x65],dl
  40d08f:	add    BYTE PTR [ebx+0x0],dh
  40d092:	je     0x40d094
  40d094:	push   edx
  40d095:	add    BYTE PTR [ebp+0x0],dh
  40d098:	outs   dx,BYTE PTR ds:[esi]
  40d099:	add    BYTE PTR [esi+0x0],ch
  40d09c:	add    BYTE PTR gs:[edx+0x0],dh
  40d0a0:	cmp    al,BYTE PTR [eax]
  40d0a2:	and    BYTE PTR [eax],al
  40d0a4:	push   esp
  40d0a5:	add    BYTE PTR [edi+0x0],ch
  40d0a8:	jne    0x40d0aa
  40d0aa:	arpl   WORD PTR [eax],ax
  40d0ac:	push   0x52002000
  40d0b1:	add    BYTE PTR [ebp+0x0],ah
  40d0b4:	arpl   WORD PTR [eax],ax
  40d0b6:	outs   dx,DWORD PTR ds:[esi]
  40d0b7:	add    BYTE PTR [edx+0x0],dh
  40d0ba:	add    BYTE PTR fs:[ebp+0x0],ah
  40d0be:	jb     0x40d0c0
  40d0c0:	and    BYTE PTR [eax],al
  40d0c2:	jo     0x40d0c4
  40d0c4:	jb     0x40d0c6
  40d0c6:	outs   dx,DWORD PTR ds:[esi]
  40d0c7:	add    BYTE PTR [ebx+0x0],ah
  40d0ca:	add    BYTE PTR gs:[ebx+0x0],dh
  40d0ce:	jae    0x40d0d0
  40d0d0:	and    BYTE PTR [eax],al
  40d0d2:	add    BYTE PTR gs:[eax+0x0],bh
  40d0d6:	imul   eax,DWORD PTR [eax],0x200074
  40d0dc:	arpl   WORD PTR [eax],ax
  40d0de:	popa   
  40d0df:	add    BYTE PTR [esi+0x0],ch
  40d0e2:	outs   dx,BYTE PTR ds:[esi]
  40d0e3:	add    BYTE PTR [edi+0x0],ch
  40d0e6:	je     0x40d0e8
  40d0e8:	and    BYTE PTR [eax],al
  40d0ea:	bound  eax,QWORD PTR [eax]
  40d0ec:	add    BYTE PTR gs:[eax],ah
  40d0ef:	add    BYTE PTR [eax+eax*1+0x72],dh
  40d0f3:	add    BYTE PTR [ecx+0x0],ah
  40d0f6:	arpl   WORD PTR [eax],ax
  40d0f8:	imul   eax,DWORD PTR [eax],0x65
  40d0fb:	add    BYTE PTR [eax+eax*1+0x20],ah
  40d0ff:	add    BYTE PTR [eax+eax*1+0x75],ah
  40d103:	add    BYTE PTR [ebp+0x0],ah
  40d106:	and    BYTE PTR [eax],al
  40d108:	je     0x40d10a
  40d10a:	outs   dx,DWORD PTR ds:[esi]
  40d10b:	add    BYTE PTR [eax],ah
  40d10d:	add    BYTE PTR [ebp+0x0],ah
  40d110:	js     0x40d112
  40d112:	arpl   WORD PTR [eax],ax
  40d114:	add    BYTE PTR gs:[eax+0x0],dh
  40d118:	je     0x40d11a
  40d11a:	imul   eax,DWORD PTR [eax],0x6e006f
  40d120:	cmp    al,BYTE PTR [eax]
  40d122:	and    BYTE PTR [eax],al
  40d124:	jnp    0x40d126
  40d126:	xor    BYTE PTR [eax],al
  40d128:	jge    0x40d12a
  40d12a:	add    BYTE PTR [ebp+0x52],bh
  40d12d:	add    BYTE PTR [ebp+0x0],ah
  40d130:	ins    DWORD PTR es:[edi],dx
  40d131:	add    BYTE PTR [edi+0x0],ch
  40d134:	je     0x40d136
  40d136:	add    BYTE PTR gs:[eax+eax*1+0x65],dl
  40d13b:	add    BYTE PTR [ebx+0x0],dh
  40d13e:	je     0x40d140
  40d140:	push   edx
  40d141:	add    BYTE PTR [ebp+0x0],dh
  40d144:	outs   dx,BYTE PTR ds:[esi]
  40d145:	add    BYTE PTR [esi+0x0],ch
  40d148:	add    BYTE PTR gs:[edx+0x0],dh
  40d14c:	cmp    al,BYTE PTR [eax]
  40d14e:	and    BYTE PTR [eax],al
  40d150:	push   esp
  40d151:	add    BYTE PTR [edi+0x0],ch
  40d154:	jne    0x40d156
  40d156:	arpl   WORD PTR [eax],ax
  40d158:	push   0x52002000
  40d15d:	add    BYTE PTR [ebp+0x0],ah
  40d160:	arpl   WORD PTR [eax],ax
  40d162:	outs   dx,DWORD PTR ds:[esi]
  40d163:	add    BYTE PTR [edx+0x0],dh
  40d166:	add    BYTE PTR fs:[ebp+0x0],ah
  40d16a:	jb     0x40d16c
  40d16c:	and    BYTE PTR [eax],al
  40d16e:	jnp    0x40d170
  40d170:	xor    BYTE PTR [eax],al
  40d172:	jge    0x40d174
  40d174:	pop    esp
  40d175:	add    BYTE PTR [ebx+0x0],bh
  40d178:	xor    DWORD PTR [eax],eax
  40d17a:	jge    0x40d17c
  40d17c:	and    BYTE PTR [eax],al
  40d17e:	arpl   WORD PTR [eax],ax
  40d180:	outs   dx,DWORD PTR ds:[esi]
  40d181:	add    BYTE PTR [ebp+0x0],dh
  40d184:	ins    BYTE PTR es:[edi],dx
  40d185:	add    BYTE PTR [eax+eax*1+0x20],ah
  40d189:	add    BYTE PTR [esi+0x0],ch
  40d18c:	outs   dx,DWORD PTR ds:[esi]
  40d18d:	add    BYTE PTR [eax+eax*1+0x20],dh
  40d191:	add    BYTE PTR [edx+0x0],ah
  40d194:	add    BYTE PTR gs:[eax],ah
  40d197:	add    BYTE PTR [ebx+0x0],dh
  40d19a:	je     0x40d19c
  40d19c:	popa   
  40d19d:	add    BYTE PTR [edx+0x0],dh
  40d1a0:	je     0x40d1a2
  40d1a2:	add    BYTE PTR gs:[eax+eax*1+0x2e],ah
  40d1a7:	add    BYTE PTR [eax],al
  40d1a9:	push   ecx
  40d1aa:	push   edx
  40d1ab:	add    BYTE PTR [ebp+0x0],ah
  40d1ae:	ins    DWORD PTR es:[edi],dx
  40d1af:	add    BYTE PTR [edi+0x0],ch
  40d1b2:	je     0x40d1b4
  40d1b4:	add    BYTE PTR gs:[eax+eax*1+0x65],dl
  40d1b9:	add    BYTE PTR [ebx+0x0],dh
  40d1bc:	je     0x40d1be
  40d1be:	push   edx
  40d1bf:	add    BYTE PTR [ebp+0x0],dh
  40d1c2:	outs   dx,BYTE PTR ds:[esi]
  40d1c3:	add    BYTE PTR [esi+0x0],ch
  40d1c6:	add    BYTE PTR gs:[edx+0x0],dh
  40d1ca:	cmp    al,BYTE PTR [eax]
  40d1cc:	and    BYTE PTR [eax],al
  40d1ce:	push   esp
  40d1cf:	add    BYTE PTR [edi+0x0],ch
  40d1d2:	jne    0x40d1d4
  40d1d4:	arpl   WORD PTR [eax],ax
  40d1d6:	push   0x52002000
  40d1db:	add    BYTE PTR [ebp+0x0],ah
  40d1de:	arpl   WORD PTR [eax],ax
  40d1e0:	outs   dx,DWORD PTR ds:[esi]
  40d1e1:	add    BYTE PTR [edx+0x0],dh
  40d1e4:	add    BYTE PTR fs:[ebp+0x0],ah
  40d1e8:	jb     0x40d1ea
  40d1ea:	and    BYTE PTR [eax],al
  40d1ec:	add    BYTE PTR gs:[eax+0x0],bh
  40d1f0:	imul   eax,DWORD PTR [eax],0x650074
  40d1f6:	add    BYTE PTR fs:[esi],ch
  40d1f9:	add    BYTE PTR [eax],al
  40d1fb:	popa   
  40d1fc:	push   edx
  40d1fd:	add    BYTE PTR [ebp+0x0],ah
  40d200:	ins    DWORD PTR es:[edi],dx
  40d201:	add    BYTE PTR [edi+0x0],ch
  40d204:	je     0x40d206
  40d206:	add    BYTE PTR gs:[eax+eax*1+0x65],dl
  40d20b:	add    BYTE PTR [ebx+0x0],dh
  40d20e:	je     0x40d210
  40d210:	push   edx
  40d211:	add    BYTE PTR [ebp+0x0],dh
  40d214:	outs   dx,BYTE PTR ds:[esi]
  40d215:	add    BYTE PTR [esi+0x0],ch
  40d218:	add    BYTE PTR gs:[edx+0x0],dh
  40d21c:	cmp    al,BYTE PTR [eax]
  40d21e:	and    BYTE PTR [eax],al
  40d220:	push   ebx
  40d221:	add    BYTE PTR [eax+eax*1+0x6f],dh
  40d225:	add    BYTE PTR [eax+0x0],dh
  40d228:	jo     0x40d22a
  40d22a:	imul   eax,DWORD PTR [eax],0x67006e
  40d230:	and    BYTE PTR [eax],al
  40d232:	push   esp
  40d233:	add    BYTE PTR [edi+0x0],ch
  40d236:	jne    0x40d238
  40d238:	arpl   WORD PTR [eax],ax
  40d23a:	push   0x52002000
  40d23f:	add    BYTE PTR [ebp+0x0],ah
  40d242:	arpl   WORD PTR [eax],ax
  40d244:	outs   dx,DWORD PTR ds:[esi]
  40d245:	add    BYTE PTR [edx+0x0],dh
  40d248:	add    BYTE PTR fs:[ebp+0x0],ah
  40d24c:	jb     0x40d24e
  40d24e:	and    BYTE PTR [eax],al
  40d250:	popa   
  40d251:	add    BYTE PTR [edi+0x0],ah
  40d254:	add    BYTE PTR gs:[esi+0x0],ch
  40d258:	je     0x40d25a
  40d25a:	add    BYTE PTR cs:[eax],al
  40d25d:	or     BYTE PTR [ebx+0x650052],0x6d
  40d264:	add    BYTE PTR [edi+0x0],ch
  40d267:	je     0x40d269
  40d269:	add    BYTE PTR gs:[eax+eax*1+0x65],dl
  40d26e:	add    BYTE PTR [ebx+0x0],dh
  40d271:	je     0x40d273
  40d273:	push   edx
  40d274:	add    BYTE PTR [ebp+0x0],dh
  40d277:	outs   dx,BYTE PTR ds:[esi]
  40d278:	add    BYTE PTR [esi+0x0],ch
  40d27b:	add    BYTE PTR gs:[edx+0x0],dh
  40d27f:	cmp    al,BYTE PTR [eax]
  40d281:	and    BYTE PTR [eax],al
  40d283:	inc    esi
  40d284:	add    BYTE PTR [ecx+0x0],ah
  40d287:	imul   eax,DWORD PTR [eax],0x65006c
  40d28d:	add    BYTE PTR fs:[eax],ah
  40d290:	add    BYTE PTR [eax+eax*1+0x6f],dh
  40d294:	add    BYTE PTR [eax],ah
  40d296:	add    BYTE PTR [ebx+0x0],dh
  40d299:	je     0x40d29b
  40d29b:	outs   dx,DWORD PTR ds:[esi]
  40d29c:	add    BYTE PTR [eax+0x0],dh
  40d29f:	and    BYTE PTR [eax],al
  40d2a1:	push   esp
  40d2a2:	add    BYTE PTR [edi+0x0],ch
  40d2a5:	jne    0x40d2a7
  40d2a7:	arpl   WORD PTR [eax],ax
  40d2a9:	push   0x52002000
  40d2ae:	add    BYTE PTR [ebp+0x0],ah
  40d2b1:	arpl   WORD PTR [eax],ax
  40d2b3:	outs   dx,DWORD PTR ds:[esi]
  40d2b4:	add    BYTE PTR [edx+0x0],dh
  40d2b7:	add    BYTE PTR fs:[ebp+0x0],ah
  40d2bb:	jb     0x40d2bd
  40d2bd:	and    BYTE PTR [eax],al
  40d2bf:	popa   
  40d2c0:	add    BYTE PTR [edi+0x0],ah
  40d2c3:	add    BYTE PTR gs:[esi+0x0],ch
  40d2c7:	je     0x40d2c9
  40d2c9:	sub    al,0x0
  40d2cb:	and    BYTE PTR [eax],al
  40d2cd:	add    BYTE PTR gs:[eax+0x0],bh
  40d2d1:	arpl   WORD PTR [eax],ax
  40d2d3:	add    BYTE PTR gs:[eax+0x0],dh
  40d2d7:	je     0x40d2d9
  40d2d9:	imul   eax,DWORD PTR [eax],0x6e006f
  40d2df:	cmp    al,BYTE PTR [eax]
  40d2e1:	and    BYTE PTR [eax],al
  40d2e3:	jnp    0x40d2e5
  40d2e5:	xor    DWORD PTR [eax],eax
  40d2e7:	jge    0x40d2e9
  40d2e9:	add    BYTE PTR [ebx+0x44],dh
  40d2ec:	add    BYTE PTR [ebx+0x0],al
  40d2ef:	dec    ebp
  40d2f0:	add    BYTE PTR [ecx+0x0],ah
  40d2f3:	outs   dx,BYTE PTR ds:[esi]
  40d2f4:	add    BYTE PTR [ecx+0x0],ah
  40d2f7:	add    BYTE PTR [di+0x0],ah
  40d2fb:	jb     0x40d2fd
  40d2fd:	and    BYTE PTR [eax],al
  40d2ff:	arpl   WORD PTR [eax],ax
  40d301:	outs   dx,DWORD PTR ds:[esi]
  40d302:	add    BYTE PTR [esi+0x0],ch
  40d305:	jae    0x40d307
  40d307:	je     0x40d309
  40d309:	jb     0x40d30b
  40d30b:	jne    0x40d30d
  40d30d:	arpl   WORD PTR [eax],ax
  40d30f:	je     0x40d311
  40d311:	outs   dx,DWORD PTR ds:[esi]
  40d312:	add    BYTE PTR [edx+0x0],dh
  40d315:	cmp    al,BYTE PTR [eax]
  40d317:	and    BYTE PTR [eax],al
  40d319:	inc    edi
  40d31a:	add    BYTE PTR [ebp+0x0],ah
  40d31d:	je     0x40d31f
  40d31f:	je     0x40d321
  40d321:	imul   eax,DWORD PTR [eax],0x67006e
  40d327:	and    BYTE PTR [eax],al
  40d329:	add    BYTE PTR fs:[ecx+0x0],ah
  40d32d:	je     0x40d32f
  40d32f:	popa   
  40d330:	add    BYTE PTR [eax],ah
  40d332:	add    BYTE PTR [ebx+0x0],ah
  40d335:	outs   dx,DWORD PTR ds:[esi]
  40d336:	add    BYTE PTR [eax+eax*1+0x6c],ch
  40d33a:	add    BYTE PTR [ebp+0x0],ah
  40d33d:	arpl   WORD PTR [eax],ax
  40d33f:	je     0x40d341
  40d341:	outs   dx,DWORD PTR ds:[esi]
  40d342:	add    BYTE PTR [edx+0x0],dh
  40d345:	and    BYTE PTR [eax],al
  40d347:	imul   eax,DWORD PTR [eax],0x66006e
  40d34d:	outs   dx,DWORD PTR ds:[esi]
  40d34e:	add    BYTE PTR [edx+0x0],dh
  40d351:	ins    DWORD PTR es:[edi],dx
  40d352:	add    BYTE PTR [ecx+0x0],ah
  40d355:	je     0x40d357
  40d357:	imul   eax,DWORD PTR [eax],0x6e006f
  40d35d:	add    BYTE PTR [ecx],bh
  40d35f:	inc    esp
  40d360:	add    BYTE PTR [ebx+0x0],al
  40d363:	dec    ebp
  40d364:	add    BYTE PTR [ecx+0x0],ah
  40d367:	outs   dx,BYTE PTR ds:[esi]
  40d368:	add    BYTE PTR [ecx+0x0],ah
  40d36b:	add    BYTE PTR [di+0x0],ah
  40d36f:	jb     0x40d371
  40d371:	cmp    al,BYTE PTR [eax]
  40d373:	and    BYTE PTR [eax],al
  40d375:	dec    ecx
  40d376:	add    BYTE PTR [esi+0x0],ch
  40d379:	imul   eax,DWORD PTR [eax],0x690074
  40d37f:	popa   
  40d380:	add    BYTE PTR [eax+eax*1+0x69],ch
  40d384:	add    BYTE PTR [edx+0x0],bh
  40d387:	add    BYTE PTR gs:[ebx+0x0],dl
  40d38b:	add    BYTE PTR gs:[ebx+0x0],dh
  40d38f:	jae    0x40d391
  40d391:	imul   eax,DWORD PTR [eax],0x6e006f
  40d397:	add    BYTE PTR [edi+0x4d],cl
  40d39a:	add    BYTE PTR [ecx+0x0],ch
  40d39d:	outs   dx,BYTE PTR ds:[esi]
  40d39e:	add    BYTE PTR [ecx+0x0],ch
  40d3a1:	ins    DWORD PTR es:[edi],dx
  40d3a2:	add    BYTE PTR [ebp+0x0],dh
  40d3a5:	ins    DWORD PTR es:[edi],dx
  40d3a6:	add    BYTE PTR [ebx+0x0],dl
  40d3a9:	imul   eax,DWORD PTR [eax],0x65007a
  40d3af:	inc    esp
  40d3b0:	add    BYTE PTR [ecx+0x0],ah
  40d3b3:	je     0x40d3b5
  40d3b5:	popa   
  40d3b6:	add    BYTE PTR [ebx+0x0],al
  40d3b9:	outs   dx,DWORD PTR ds:[esi]
  40d3ba:	add    BYTE PTR [eax+eax*1+0x6c],ch
  40d3be:	add    BYTE PTR [ebp+0x0],ah
  40d3c1:	arpl   WORD PTR [eax],ax
  40d3c3:	je     0x40d3c5
  40d3c5:	outs   dx,DWORD PTR ds:[esi]
  40d3c6:	add    BYTE PTR [edx+0x0],dh
  40d3c9:	inc    ebp
  40d3ca:	add    BYTE PTR [esi+0x0],dh
  40d3cd:	add    BYTE PTR gs:[esi+0x0],ch
  40d3d1:	je     0x40d3d3
  40d3d3:	push   esp
  40d3d4:	add    BYTE PTR [eax+0x0],ch
  40d3d7:	jb     0x40d3d9
  40d3d9:	add    BYTE PTR gs:[ecx+0x0],ah
  40d3dd:	add    BYTE PTR fs:[eax+0x0],dl
  40d3e1:	outs   dx,DWORD PTR ds:[esi]
  40d3e2:	add    BYTE PTR [edi+0x0],ch
  40d3e5:	ins    BYTE PTR es:[edi],dx
  40d3e6:	add    BYTE PTR [eax],al
  40d3e8:	dec    edi
  40d3e9:	dec    ebp
  40d3ea:	add    BYTE PTR [ecx+0x0],ah
  40d3ed:	js     0x40d3ef
  40d3ef:	imul   eax,DWORD PTR [eax],0x75006d
  40d3f5:	ins    DWORD PTR es:[edi],dx
  40d3f6:	add    BYTE PTR [ebx+0x0],dl
  40d3f9:	imul   eax,DWORD PTR [eax],0x65007a
  40d3ff:	inc    esp
  40d400:	add    BYTE PTR [ecx+0x0],ah
  40d403:	je     0x40d405
  40d405:	popa   
  40d406:	add    BYTE PTR [ebx+0x0],al
  40d409:	outs   dx,DWORD PTR ds:[esi]
  40d40a:	add    BYTE PTR [eax+eax*1+0x6c],ch
  40d40e:	add    BYTE PTR [ebp+0x0],ah
  40d411:	arpl   WORD PTR [eax],ax
  40d413:	je     0x40d415
  40d415:	outs   dx,DWORD PTR ds:[esi]
  40d416:	add    BYTE PTR [edx+0x0],dh
  40d419:	inc    ebp
  40d41a:	add    BYTE PTR [esi+0x0],dh
  40d41d:	add    BYTE PTR gs:[esi+0x0],ch
  40d421:	je     0x40d423
  40d423:	push   esp
  40d424:	add    BYTE PTR [eax+0x0],ch
  40d427:	jb     0x40d429
  40d429:	add    BYTE PTR gs:[ecx+0x0],ah
  40d42d:	add    BYTE PTR fs:[eax+0x0],dl
  40d431:	outs   dx,DWORD PTR ds:[esi]
  40d432:	add    BYTE PTR [edi+0x0],ch
  40d435:	ins    BYTE PTR es:[edi],dx
  40d436:	add    BYTE PTR [eax],al
  40d438:	gs inc esp
  40d43a:	add    BYTE PTR [ebx+0x0],al
  40d43d:	dec    ebp
  40d43e:	add    BYTE PTR [ecx+0x0],ah
  40d441:	outs   dx,BYTE PTR ds:[esi]
  40d442:	add    BYTE PTR [ecx+0x0],ah
  40d445:	add    BYTE PTR [di+0x0],ah
  40d449:	jb     0x40d44b
  40d44b:	cmp    al,BYTE PTR [eax]
  40d44d:	and    BYTE PTR [eax],al
  40d44f:	inc    ebp
  40d450:	add    BYTE PTR [edx+0x0],dh
  40d453:	jb     0x40d455
  40d455:	outs   dx,DWORD PTR ds:[esi]
  40d456:	add    BYTE PTR [edx+0x0],dh
  40d459:	and    BYTE PTR [eax],al
  40d45b:	ins    BYTE PTR es:[edi],dx
  40d45c:	add    BYTE PTR [edi+0x0],ch
  40d45f:	popa   
  40d460:	add    BYTE PTR [eax+eax*1+0x69],ah
  40d464:	add    BYTE PTR [esi+0x0],ch
  40d467:	add    BYTE PTR [bx+si],ah
  40d46a:	add    BYTE PTR [ecx+0x0],ah
  40d46d:	jo     0x40d46f
  40d46f:	jo     0x40d471
  40d471:	ins    BYTE PTR es:[edi],dx
  40d472:	add    BYTE PTR [ecx+0x0],ch
  40d475:	arpl   WORD PTR [eax],ax
  40d477:	popa   
  40d478:	add    BYTE PTR [eax+eax*1+0x69],dh
  40d47c:	add    BYTE PTR [edi+0x0],ch
  40d47f:	outs   dx,BYTE PTR ds:[esi]
  40d480:	add    BYTE PTR [eax],ah
  40d482:	add    BYTE PTR [ebx+0x0],dh
  40d485:	add    BYTE PTR gs:[eax+eax*1+0x74],dh
  40d48a:	add    BYTE PTR [ecx+0x0],ch
  40d48d:	outs   dx,BYTE PTR ds:[esi]
  40d48e:	add    BYTE PTR [edi+0x0],ah
  40d491:	jae    0x40d493
  40d493:	cmp    al,BYTE PTR [eax]
  40d495:	and    BYTE PTR [eax],al
  40d497:	jnp    0x40d499
  40d499:	xor    BYTE PTR [eax],al
  40d49b:	jge    0x40d49d
  40d49d:	add    BYTE PTR [ecx+0x44],dh
  40d4a0:	add    BYTE PTR [ebx+0x0],al
  40d4a3:	dec    ebp
  40d4a4:	add    BYTE PTR [ecx+0x0],ah
  40d4a7:	outs   dx,BYTE PTR ds:[esi]
  40d4a8:	add    BYTE PTR [ecx+0x0],ah
  40d4ab:	add    BYTE PTR [di+0x0],ah
  40d4af:	jb     0x40d4b1
  40d4b1:	cmp    al,BYTE PTR [eax]
  40d4b3:	and    BYTE PTR [eax],al
  40d4b5:	dec    ebp
  40d4b6:	add    BYTE PTR [ecx+0x0],ch
  40d4b9:	outs   dx,BYTE PTR ds:[esi]
  40d4ba:	add    BYTE PTR [ecx+0x0],ch
  40d4bd:	ins    DWORD PTR es:[edi],dx
  40d4be:	add    BYTE PTR [ebp+0x0],dh
  40d4c1:	ins    DWORD PTR es:[edi],dx
  40d4c2:	add    BYTE PTR [ebx+0x0],dl
  40d4c5:	imul   eax,DWORD PTR [eax],0x65007a
  40d4cb:	inc    esp
  40d4cc:	add    BYTE PTR [ecx+0x0],ah
  40d4cf:	je     0x40d4d1
  40d4d1:	popa   
  40d4d2:	add    BYTE PTR [ebx+0x0],al
  40d4d5:	outs   dx,DWORD PTR ds:[esi]
  40d4d6:	add    BYTE PTR [eax+eax*1+0x6c],ch
  40d4da:	add    BYTE PTR [ebp+0x0],ah
  40d4dd:	arpl   WORD PTR [eax],ax
  40d4df:	je     0x40d4e1
  40d4e1:	outs   dx,DWORD PTR ds:[esi]
  40d4e2:	add    BYTE PTR [edx+0x0],dh
  40d4e5:	inc    ebp
  40d4e6:	add    BYTE PTR [esi+0x0],dh
  40d4e9:	add    BYTE PTR gs:[esi+0x0],ch
  40d4ed:	je     0x40d4ef
  40d4ef:	push   esp
  40d4f0:	add    BYTE PTR [eax+0x0],ch
  40d4f3:	jb     0x40d4f5
  40d4f5:	add    BYTE PTR gs:[ecx+0x0],ah
  40d4f9:	add    BYTE PTR fs:[eax+0x0],dl
  40d4fd:	outs   dx,DWORD PTR ds:[esi]
  40d4fe:	add    BYTE PTR [edi+0x0],ch
  40d501:	ins    BYTE PTR es:[edi],dx
  40d502:	add    BYTE PTR [eax],ah
  40d504:	add    BYTE PTR ds:0x7b002000,bh
  40d50a:	add    BYTE PTR [eax],dh
  40d50c:	add    BYTE PTR [ebp+0x0],bh
  40d50f:	add    BYTE PTR [ecx+0x44],dh
  40d512:	add    BYTE PTR [ebx+0x0],al
  40d515:	dec    ebp
  40d516:	add    BYTE PTR [ecx+0x0],ah
  40d519:	outs   dx,BYTE PTR ds:[esi]
  40d51a:	add    BYTE PTR [ecx+0x0],ah
  40d51d:	add    BYTE PTR [di+0x0],ah
  40d521:	jb     0x40d523
  40d523:	cmp    al,BYTE PTR [eax]
  40d525:	and    BYTE PTR [eax],al
  40d527:	dec    ebp
  40d528:	add    BYTE PTR [ecx+0x0],ah
  40d52b:	js     0x40d52d
  40d52d:	imul   eax,DWORD PTR [eax],0x75006d
  40d533:	ins    DWORD PTR es:[edi],dx
  40d534:	add    BYTE PTR [ebx+0x0],dl
  40d537:	imul   eax,DWORD PTR [eax],0x65007a
  40d53d:	inc    esp
  40d53e:	add    BYTE PTR [ecx+0x0],ah
  40d541:	je     0x40d543
  40d543:	popa   
  40d544:	add    BYTE PTR [ebx+0x0],al
  40d547:	outs   dx,DWORD PTR ds:[esi]
  40d548:	add    BYTE PTR [eax+eax*1+0x6c],ch
  40d54c:	add    BYTE PTR [ebp+0x0],ah
  40d54f:	arpl   WORD PTR [eax],ax
  40d551:	je     0x40d553
  40d553:	outs   dx,DWORD PTR ds:[esi]
  40d554:	add    BYTE PTR [edx+0x0],dh
  40d557:	inc    ebp
  40d558:	add    BYTE PTR [esi+0x0],dh
  40d55b:	add    BYTE PTR gs:[esi+0x0],ch
  40d55f:	je     0x40d561
  40d561:	push   esp
  40d562:	add    BYTE PTR [eax+0x0],ch
  40d565:	jb     0x40d567
  40d567:	add    BYTE PTR gs:[ecx+0x0],ah
  40d56b:	add    BYTE PTR fs:[eax+0x0],dl
  40d56f:	outs   dx,DWORD PTR ds:[esi]
  40d570:	add    BYTE PTR [edi+0x0],ch
  40d573:	ins    BYTE PTR es:[edi],dx
  40d574:	add    BYTE PTR [eax],ah
  40d576:	add    BYTE PTR ds:0x7b002000,bh
  40d57c:	add    BYTE PTR [eax],dh
  40d57e:	add    BYTE PTR [ebp+0x0],bh
  40d581:	add    BYTE PTR [eax+0x4300449b],al
  40d587:	add    BYTE PTR [ebp+0x0],cl
  40d58a:	popa   
  40d58b:	add    BYTE PTR [esi+0x0],ch
  40d58e:	popa   
  40d58f:	add    BYTE PTR [edi+0x0],ah
  40d592:	add    BYTE PTR gs:[edx+0x0],dh
  40d596:	cmp    al,BYTE PTR [eax]
  40d598:	and    BYTE PTR [eax],al
  40d59a:	inc    ebp
  40d59b:	add    BYTE PTR [edx+0x0],dh
  40d59e:	jb     0x40d5a0
  40d5a0:	outs   dx,DWORD PTR ds:[esi]
  40d5a1:	add    BYTE PTR [edx+0x0],dh
  40d5a4:	and    BYTE PTR [eax],al
  40d5a6:	jae    0x40d5a8
  40d5a8:	je     0x40d5aa
  40d5aa:	popa   
  40d5ab:	add    BYTE PTR [edx+0x0],dh
  40d5ae:	je     0x40d5b0
  40d5b0:	imul   eax,DWORD PTR [eax],0x67006e
  40d5b6:	and    BYTE PTR [eax],al
  40d5b8:	inc    ebp
  40d5b9:	add    BYTE PTR [ecx+0x0],dh
  40d5bc:	je     0x40d5be
  40d5be:	push   esp
  40d5bf:	add    BYTE PTR [eax+0x0],ch
  40d5c2:	jb     0x40d5c4
  40d5c4:	add    BYTE PTR gs:[ecx+0x0],ah
  40d5c8:	add    BYTE PTR fs:[eax+0x0],dl
  40d5cc:	outs   dx,DWORD PTR ds:[esi]
  40d5cd:	add    BYTE PTR [edi+0x0],ch
  40d5d0:	ins    BYTE PTR es:[edi],dx
  40d5d1:	add    BYTE PTR [esi],ch
  40d5d3:	add    BYTE PTR [eax],ah
  40d5d5:	add    BYTE PTR [eax],ah
  40d5d7:	add    BYTE PTR [eax+eax*1+0x65],al
  40d5db:	add    BYTE PTR [esi+0x0],ah
  40d5de:	popa   
  40d5df:	add    BYTE PTR [ebp+0x0],dh
  40d5e2:	ins    BYTE PTR es:[edi],dx
  40d5e3:	add    BYTE PTR [eax+eax*1+0x69],dh
  40d5e7:	add    BYTE PTR [esi+0x0],ch
  40d5ea:	add    BYTE PTR [bx+si],ah
  40d5ed:	add    BYTE PTR [eax+eax*1+0x6f],dh
  40d5f1:	add    BYTE PTR [eax],ah
  40d5f3:	add    BYTE PTR [esi],ch
  40d5f5:	add    BYTE PTR [esi+0x0],cl
  40d5f8:	inc    ebp
  40d5f9:	add    BYTE PTR [eax+eax*1+0x20],dl
  40d5fd:	add    BYTE PTR [eax+eax*1+0x68],dh
  40d601:	add    BYTE PTR [edx+0x0],dh
  40d604:	add    BYTE PTR gs:[ecx+0x0],ah
  40d608:	add    BYTE PTR fs:[eax],ah
  40d60b:	add    BYTE PTR [eax+0x0],dh
  40d60e:	outs   dx,DWORD PTR ds:[esi]
  40d60f:	add    BYTE PTR [edi+0x0],ch
  40d612:	ins    BYTE PTR es:[edi],dx
  40d613:	add    BYTE PTR [esi],ch
  40d615:	add    BYTE PTR [eax],ah
  40d617:	add    BYTE PTR [ebx+0x0],bh
  40d61a:	xor    BYTE PTR [eax],al
  40d61c:	jge    0x40d61e
  40d61e:	add    BYTE PTR [ebp+0x44],al
  40d621:	add    BYTE PTR [ebx+0x0],al
  40d624:	dec    ebp
  40d625:	add    BYTE PTR [ecx+0x0],ah
  40d628:	outs   dx,BYTE PTR ds:[esi]
  40d629:	add    BYTE PTR [ecx+0x0],ah
  40d62c:	add    BYTE PTR [di+0x0],ah
  40d630:	jb     0x40d632
  40d632:	pop    edi
  40d633:	add    BYTE PTR [ecx+0x0],cl
  40d636:	outs   dx,BYTE PTR ds:[esi]
  40d637:	add    BYTE PTR [ecx+0x0],ch
  40d63a:	je     0x40d63c
  40d63c:	imul   eax,DWORD PTR [eax],0x6c0061
  40d642:	imul   eax,DWORD PTR [eax],0x65007a
  40d648:	inc    esp
  40d649:	add    BYTE PTR [ecx+0x0],ah
  40d64c:	je     0x40d64e
  40d64e:	popa   
  40d64f:	add    BYTE PTR [ebx+0x0],al
  40d652:	outs   dx,DWORD PTR ds:[esi]
  40d653:	add    BYTE PTR [eax+eax*1+0x6c],ch
  40d657:	add    BYTE PTR [ebp+0x0],ah
  40d65a:	arpl   WORD PTR [eax],ax
  40d65c:	je     0x40d65e
  40d65e:	outs   dx,DWORD PTR ds:[esi]
  40d65f:	add    BYTE PTR [edx+0x0],dh
  40d662:	jae    0x40d664
  40d664:	add    BYTE PTR [ebx+0x44],bl
  40d667:	add    BYTE PTR [ebx+0x0],al
  40d66a:	dec    ebp
  40d66b:	add    BYTE PTR [ecx+0x0],ah
  40d66e:	outs   dx,BYTE PTR ds:[esi]
  40d66f:	add    BYTE PTR [ecx+0x0],ah
  40d672:	add    BYTE PTR [di+0x0],ah
  40d676:	jb     0x40d678
  40d678:	cmp    al,BYTE PTR [eax]
  40d67a:	and    BYTE PTR [eax],al
  40d67c:	inc    edi
  40d67d:	add    BYTE PTR [ebp+0x0],ah
  40d680:	je     0x40d682
  40d682:	je     0x40d684
  40d684:	imul   eax,DWORD PTR [eax],0x67006e
  40d68a:	and    BYTE PTR [eax],al
  40d68c:	add    BYTE PTR fs:[ecx+0x0],ah
  40d690:	je     0x40d692
  40d692:	popa   
  40d693:	add    BYTE PTR [eax],ah
  40d695:	add    BYTE PTR [ebx+0x0],ah
  40d698:	outs   dx,DWORD PTR ds:[esi]
  40d699:	add    BYTE PTR [eax+eax*1+0x6c],ch
  40d69d:	add    BYTE PTR [ebp+0x0],ah
  40d6a0:	arpl   WORD PTR [eax],ax
  40d6a2:	je     0x40d6a4
  40d6a4:	outs   dx,DWORD PTR ds:[esi]
  40d6a5:	add    BYTE PTR [edx+0x0],dh
  40d6a8:	and    BYTE PTR [eax],al
  40d6aa:	imul   eax,DWORD PTR [eax],0x66006e
  40d6b0:	outs   dx,DWORD PTR ds:[esi]
  40d6b1:	add    BYTE PTR [edx+0x0],dh
  40d6b4:	ins    DWORD PTR es:[edi],dx
  40d6b5:	add    BYTE PTR [ecx+0x0],ah
  40d6b8:	je     0x40d6ba
  40d6ba:	imul   eax,DWORD PTR [eax],0x6e006f
  40d6c0:	add    BYTE PTR [ebx+0x44],bl
  40d6c3:	add    BYTE PTR [ecx+0x0],ah
  40d6c6:	je     0x40d6c8
  40d6c8:	popa   
  40d6c9:	add    BYTE PTR [ebx+0x0],al
  40d6cc:	outs   dx,DWORD PTR ds:[esi]
  40d6cd:	add    BYTE PTR [eax+eax*1+0x6c],ch
  40d6d1:	add    BYTE PTR [ebp+0x0],ah
  40d6d4:	arpl   WORD PTR [eax],ax
  40d6d6:	je     0x40d6d8
  40d6d8:	outs   dx,DWORD PTR ds:[esi]
  40d6d9:	add    BYTE PTR [edx+0x0],dh
  40d6dc:	inc    ebx
  40d6dd:	add    BYTE PTR [ecx+0x0],ah
  40d6e0:	arpl   WORD PTR [eax],ax
  40d6e2:	push   0x2e006500
  40d6e7:	add    BYTE PTR [edi+0x0],al
  40d6ea:	add    BYTE PTR gs:[eax+eax*1+0x41],dh
  40d6ef:	add    BYTE PTR [eax+eax*1+0x6c],ch
  40d6f3:	add    BYTE PTR [ebx+0x0],al
  40d6f6:	outs   dx,DWORD PTR ds:[esi]
  40d6f7:	add    BYTE PTR [eax+eax*1+0x6c],ch
  40d6fb:	add    BYTE PTR [ebp+0x0],ah
  40d6fe:	arpl   WORD PTR [eax],ax
  40d700:	je     0x40d702
  40d702:	outs   dx,DWORD PTR ds:[esi]
  40d703:	add    BYTE PTR [edx+0x0],dh
  40d706:	dec    ecx
  40d707:	add    BYTE PTR [esi+0x0],ch
  40d70a:	data16 add BYTE PTR [edi+0x0],ch
  40d70e:	jb     0x40d710
  40d710:	ins    DWORD PTR es:[edi],dx
  40d711:	add    BYTE PTR [ecx+0x0],ah
  40d714:	je     0x40d716
  40d716:	imul   eax,DWORD PTR [eax],0x6e006f
  40d71c:	add    BYTE PTR [ebp+0x44],bl
  40d71f:	add    BYTE PTR [ebx+0x0],al
  40d722:	dec    ebp
  40d723:	add    BYTE PTR [ecx+0x0],ah
  40d726:	outs   dx,BYTE PTR ds:[esi]
  40d727:	add    BYTE PTR [ecx+0x0],ah
  40d72a:	add    BYTE PTR [di+0x0],ah
  40d72e:	jb     0x40d730
  40d730:	cmp    al,BYTE PTR [eax]
  40d732:	and    BYTE PTR [eax],al
  40d734:	inc    ebp
  40d735:	add    BYTE PTR [eax+0x0],bh
  40d738:	add    BYTE PTR gs:[ebx+0x0],ah
  40d73c:	jne    0x40d73e
  40d73e:	je     0x40d740
  40d740:	imul   eax,DWORD PTR [eax],0x6e006f
  40d746:	push   eax
  40d747:	add    BYTE PTR [eax+eax*1+0x75],ch
  40d74b:	add    BYTE PTR [edi+0x0],ah
  40d74e:	imul   eax,DWORD PTR [eax],0x4d006e
  40d754:	popa   
  40d755:	add    BYTE PTR [esi+0x0],ch
  40d758:	popa   
  40d759:	add    BYTE PTR [edi+0x0],ah
  40d75c:	add    BYTE PTR gs:[edx+0x0],dh
  40d760:	and    BYTE PTR [eax],al
  40d762:	imul   eax,DWORD PTR [eax],0x69006e
  40d768:	je     0x40d76a
  40d76a:	imul   eax,DWORD PTR [eax],0x6c0061
  40d770:	imul   eax,DWORD PTR [eax],0x69007a
  40d776:	outs   dx,BYTE PTR ds:[esi]
  40d777:	add    BYTE PTR [edi+0x0],ah
  40d77a:	add    BYTE PTR [ecx+0x44],bl
  40d77d:	add    BYTE PTR [ebx+0x0],al
  40d780:	dec    ebp
  40d781:	add    BYTE PTR [ecx+0x0],ah
  40d784:	outs   dx,BYTE PTR ds:[esi]
  40d785:	add    BYTE PTR [ecx+0x0],ah
  40d788:	add    BYTE PTR [di+0x0],ah
  40d78c:	jb     0x40d78e
  40d78e:	cmp    al,BYTE PTR [eax]
  40d790:	and    BYTE PTR [eax],al
  40d792:	inc    ebx
  40d793:	add    BYTE PTR [edi+0x0],ch
  40d796:	ins    BYTE PTR es:[edi],dx
  40d797:	add    BYTE PTR [eax+eax*1+0x65],ch
  40d79b:	add    BYTE PTR [ebx+0x0],ah
  40d79e:	je     0x40d7a0
  40d7a0:	outs   dx,DWORD PTR ds:[esi]
  40d7a1:	add    BYTE PTR [edx+0x0],dh
  40d7a4:	jae    0x40d7a6
  40d7a6:	and    BYTE PTR [eax],al
  40d7a8:	ins    BYTE PTR es:[edi],dx
  40d7a9:	add    BYTE PTR [edi+0x0],ch
  40d7ac:	popa   
  40d7ad:	add    BYTE PTR [eax+eax*1+0x65],ah
  40d7b1:	add    BYTE PTR [eax+eax*1+0x20],ah
  40d7b5:	add    BYTE PTR [ecx+0x0],ah
  40d7b8:	outs   dx,BYTE PTR ds:[esi]
  40d7b9:	add    BYTE PTR [eax+eax*1+0x20],ah
  40d7bd:	add    BYTE PTR [ecx+0x0],ch
  40d7c0:	outs   dx,BYTE PTR ds:[esi]
  40d7c1:	add    BYTE PTR [ecx+0x0],ch
  40d7c4:	je     0x40d7c6
  40d7c6:	imul   eax,DWORD PTR [eax],0x6c0061
  40d7cc:	imul   eax,DWORD PTR [eax],0x65007a
  40d7d2:	add    BYTE PTR fs:[eax],al
  40d7d5:	jns    0x40d81b
  40d7d7:	add    BYTE PTR [ebx+0x0],al
  40d7da:	dec    ebp
  40d7db:	add    BYTE PTR [ecx+0x0],ah
  40d7de:	outs   dx,BYTE PTR ds:[esi]
  40d7df:	add    BYTE PTR [ecx+0x0],ah
  40d7e2:	add    BYTE PTR [di+0x0],ah
  40d7e6:	jb     0x40d7e8
  40d7e8:	cmp    al,BYTE PTR [eax]
  40d7ea:	and    BYTE PTR [eax],al
  40d7ec:	dec    ecx
  40d7ed:	add    BYTE PTR [esi+0x0],ch
  40d7f0:	imul   eax,DWORD PTR [eax],0x690074
  40d7f6:	popa   
  40d7f7:	add    BYTE PTR [eax+eax*1+0x69],ch
  40d7fb:	add    BYTE PTR [edx+0x0],bh
  40d7fe:	add    BYTE PTR gs:[eax],ah
  40d801:	add    BYTE PTR [eax+eax*1+0x61],al
  40d805:	add    BYTE PTR [eax+eax*1+0x61],dh
  40d809:	add    BYTE PTR [eax],ah
  40d80b:	add    BYTE PTR [ebx+0x0],al
  40d80e:	outs   dx,DWORD PTR ds:[esi]
  40d80f:	add    BYTE PTR [eax+eax*1+0x6c],ch
  40d813:	add    BYTE PTR [ebp+0x0],ah
  40d816:	arpl   WORD PTR [eax],ax
  40d818:	je     0x40d81a
  40d81a:	outs   dx,DWORD PTR ds:[esi]
  40d81b:	add    BYTE PTR [edx+0x0],dh
  40d81e:	and    BYTE PTR [eax],al
  40d820:	dec    eax
  40d821:	add    BYTE PTR [ecx+0x0],ah
  40d824:	outs   dx,BYTE PTR ds:[esi]
  40d825:	add    BYTE PTR [eax+eax*1+0x6c],ah
  40d829:	add    BYTE PTR [ebp+0x0],ah
  40d82c:	add    BYTE PTR fs:[eax],ah
  40d82f:	add    BYTE PTR [ebp+0x0],ah
  40d832:	js     0x40d834
  40d834:	arpl   WORD PTR [eax],ax
  40d836:	add    BYTE PTR gs:[eax+0x0],dh
  40d83a:	je     0x40d83c
  40d83c:	imul   eax,DWORD PTR [eax],0x6e006f
  40d842:	and    BYTE PTR [eax],al
  40d844:	cmp    al,BYTE PTR [eax]
  40d846:	and    BYTE PTR [eax],al
  40d848:	jnp    0x40d84a
  40d84a:	xor    BYTE PTR [eax],al
  40d84c:	jge    0x40d84e
  40d84e:	add    BYTE PTR [ebp+0x44],bh
  40d851:	add    BYTE PTR [ebx+0x0],al
  40d854:	dec    ebp
  40d855:	add    BYTE PTR [ecx+0x0],ah
  40d858:	outs   dx,BYTE PTR ds:[esi]
  40d859:	add    BYTE PTR [ecx+0x0],ah
  40d85c:	add    BYTE PTR [di+0x0],ah
  40d860:	jb     0x40d862
  40d862:	cmp    al,BYTE PTR [eax]
  40d864:	and    BYTE PTR [eax],al
  40d866:	inc    ebp
  40d867:	add    BYTE PTR [esi+0x0],ch
  40d86a:	add    BYTE PTR fs:[ebx+0x0],dl
  40d86e:	add    BYTE PTR gs:[ebx+0x0],dh
  40d872:	jae    0x40d874
  40d874:	imul   eax,DWORD PTR [eax],0x6e006f
  40d87a:	and    BYTE PTR [eax],al
  40d87c:	jbe    0x40d87e
  40d87e:	popa   
  40d87f:	add    BYTE PTR [eax+eax*1+0x69],ch
  40d883:	add    BYTE PTR [eax+eax*1+0x20],ah
  40d887:	add    BYTE PTR [edi+0x0],ch
  40d88a:	outs   dx,BYTE PTR ds:[esi]
  40d88b:	add    BYTE PTR [eax+eax*1+0x79],ch
  40d88f:	add    BYTE PTR [eax],ah
  40d891:	add    BYTE PTR [edi+0x0],dh
  40d894:	push   0x6e006500
  40d899:	add    BYTE PTR [eax],ah
  40d89b:	add    BYTE PTR [ecx+0x0],ah
  40d89e:	and    BYTE PTR [eax],al
  40d8a0:	jae    0x40d8a2
  40d8a2:	add    BYTE PTR gs:[ebx+0x0],dh
  40d8a6:	jae    0x40d8a8
  40d8a8:	imul   eax,DWORD PTR [eax],0x6e006f
  40d8ae:	and    BYTE PTR [eax],al
  40d8b0:	push   0x73006100
  40d8b5:	add    BYTE PTR [eax],ah
  40d8b7:	add    BYTE PTR [edx+0x0],ah
  40d8ba:	add    BYTE PTR gs:[ebp+0x0],ah
  40d8be:	outs   dx,BYTE PTR ds:[esi]
  40d8bf:	add    BYTE PTR [eax],ah
  40d8c1:	add    BYTE PTR [ebx+0x0],dh
  40d8c4:	add    BYTE PTR gs:[eax+eax*1+0x75],dh
  40d8c9:	add    BYTE PTR [eax+0x0],dh
  40d8cc:	add    BYTE PTR ds:0x6e0045,dl
  40d8d2:	add    BYTE PTR fs:[ebx+0x0],dl
  40d8d6:	add    BYTE PTR gs:[ebx+0x0],dh
  40d8da:	jae    0x40d8dc
  40d8dc:	imul   eax,DWORD PTR [eax],0x6e006f
  40d8e2:	add    BYTE PTR [ebx],ch
  40d8e4:	inc    esp
  40d8e5:	add    BYTE PTR [ebx+0x0],al
  40d8e8:	dec    ebp
  40d8e9:	add    BYTE PTR [ecx+0x0],ah
  40d8ec:	outs   dx,BYTE PTR ds:[esi]
  40d8ed:	add    BYTE PTR [ecx+0x0],ah
  40d8f0:	add    BYTE PTR [di+0x0],ah
  40d8f4:	jb     0x40d8f6
  40d8f6:	cmp    al,BYTE PTR [eax]
  40d8f8:	and    BYTE PTR [eax],al
  40d8fa:	inc    ebp
  40d8fb:	add    BYTE PTR [esi+0x0],ch
  40d8fe:	add    BYTE PTR fs:[ebx+0x0],dl
  40d902:	add    BYTE PTR gs:[ebx+0x0],dh
  40d906:	jae    0x40d908
  40d908:	imul   eax,DWORD PTR [eax],0x6e006f
  40d90e:	add    BYTE PTR ds:0x610052,dl
  40d914:	imul   eax,DWORD PTR [eax],0x650073
  40d91a:	inc    ebp
  40d91b:	add    BYTE PTR [esi+0x0],dh
  40d91e:	add    BYTE PTR gs:[esi+0x0],ch
  40d922:	je     0x40d924
  40d924:	add    BYTE PTR [eax+0x72005491],al
  40d92a:	add    BYTE PTR [ecx+0x0],bh
  40d92d:	imul   eax,DWORD PTR [eax],0x67006e
  40d933:	and    BYTE PTR [eax],al
  40d935:	je     0x40d937
  40d937:	outs   dx,DWORD PTR ds:[esi]
  40d938:	add    BYTE PTR [eax],ah
  40d93a:	add    BYTE PTR [ecx+0x0],ah
  40d93d:	add    BYTE PTR fs:[eax+eax*1+0x20],ah
  40d942:	add    BYTE PTR [edx+0x0],dh
  40d945:	add    BYTE PTR gs:[ebx+0x0],dh
  40d949:	jne    0x40d94b
  40d94b:	ins    BYTE PTR es:[edi],dx
  40d94c:	add    BYTE PTR [eax+eax*1+0x20],dh
  40d950:	add    BYTE PTR [edi+0x0],dh
  40d953:	push   0x6e006500
  40d958:	add    BYTE PTR [eax],ah
  40d95a:	add    BYTE PTR [eax+eax*1+0x68],dh
  40d95e:	add    BYTE PTR [ebp+0x0],ah
  40d961:	and    BYTE PTR [eax],al
  40d963:	jae    0x40d965
  40d965:	add    BYTE PTR gs:[ebx+0x0],dh
  40d969:	jae    0x40d96b
  40d96b:	imul   eax,DWORD PTR [eax],0x6e006f
  40d971:	and    BYTE PTR [eax],al
  40d973:	imul   eax,DWORD PTR [eax],0x200073
  40d979:	outs   dx,BYTE PTR ds:[esi]
  40d97a:	add    BYTE PTR [edi+0x0],ch
  40d97d:	je     0x40d97f
  40d97f:	and    BYTE PTR [eax],al
  40d981:	jbe    0x40d983
  40d983:	popa   
  40d984:	add    BYTE PTR [eax+eax*1+0x69],ch
  40d988:	add    BYTE PTR [eax+eax*1+0x2e],ah
  40d98c:	add    BYTE PTR [eax],ah
  40d98e:	add    BYTE PTR [eax+eax*1+0x72],al
  40d992:	add    BYTE PTR [edi+0x0],ch
  40d995:	jo     0x40d997
  40d997:	jo     0x40d999
  40d999:	imul   eax,DWORD PTR [eax],0x67006e
  40d99f:	and    BYTE PTR [eax],al
  40d9a1:	je     0x40d9a3
  40d9a3:	push   0x20006500
  40d9a8:	add    BYTE PTR [ebp+0x0],ch
  40d9ab:	add    BYTE PTR gs:[ebx+0x0],dh
  40d9af:	jae    0x40d9b1
  40d9b1:	popa   
  40d9b2:	add    BYTE PTR [edi+0x0],ah
  40d9b5:	add    BYTE PTR gs:[eax],al
  40d9b8:	pop    ebx
  40d9b9:	inc    esp
  40d9ba:	add    BYTE PTR [ebx+0x0],al
  40d9bd:	dec    ebp
  40d9be:	add    BYTE PTR [ecx+0x0],ah
  40d9c1:	outs   dx,BYTE PTR ds:[esi]
  40d9c2:	add    BYTE PTR [ecx+0x0],ah
  40d9c5:	add    BYTE PTR [di+0x0],ah
  40d9c9:	jb     0x40d9cb
  40d9cb:	add    BYTE PTR cs:[eax+eax*1+0x69],al
  40d9d0:	add    BYTE PTR [ebx+0x0],dh
  40d9d3:	jo     0x40d9d5
  40d9d5:	outs   dx,DWORD PTR ds:[esi]
  40d9d6:	add    BYTE PTR [ebx+0x0],dh
  40d9d9:	add    BYTE PTR gs:[eax],ch
  40d9dc:	add    BYTE PTR [ecx],ch
  40d9de:	add    BYTE PTR ds:0x45002000,ch
  40d9e4:	add    BYTE PTR [edx+0x0],dh
  40d9e7:	jb     0x40d9e9
  40d9e9:	outs   dx,DWORD PTR ds:[esi]
  40d9ea:	add    BYTE PTR [edx+0x0],dh
  40d9ed:	and    BYTE PTR [eax],al
  40d9ef:	arpl   WORD PTR [eax],ax
  40d9f1:	popa   
  40d9f2:	add    BYTE PTR [eax+eax*1+0x6c],ch
  40d9f6:	add    BYTE PTR [ecx+0x0],ch
  40d9f9:	outs   dx,BYTE PTR ds:[esi]
  40d9fa:	add    BYTE PTR [edi+0x0],ah
  40d9fd:	and    BYTE PTR [eax],al
  40d9ff:	inc    ebp
  40da00:	add    BYTE PTR [esi+0x0],ch
  40da03:	add    BYTE PTR fs:[ebx+0x0],dl
  40da07:	add    BYTE PTR gs:[ebx+0x0],dh
  40da0b:	jae    0x40da0d
  40da0d:	imul   eax,DWORD PTR [eax],0x6e006f
  40da13:	add    DWORD PTR [ebp+0x56],esp
  40da16:	add    BYTE PTR [ecx+0x0],ch
  40da19:	add    BYTE PTR fs:[ebp+0x0],ah
  40da1d:	outs   dx,DWORD PTR ds:[esi]
  40da1e:	add    BYTE PTR [eax],ah
  40da20:	add    BYTE PTR [ebx+0x0],ah
  40da23:	popa   
  40da24:	add    BYTE PTR [esi+0x0],ch
  40da27:	outs   dx,BYTE PTR ds:[esi]
  40da28:	add    BYTE PTR [edi+0x0],ch
  40da2b:	je     0x40da2d
  40da2d:	and    BYTE PTR [eax],al
  40da2f:	bound  eax,QWORD PTR [eax]
  40da31:	add    BYTE PTR gs:[eax],ah
  40da34:	add    BYTE PTR [edx+0x0],dh
  40da37:	add    BYTE PTR gs:[ebx+0x0],ah
  40da3b:	outs   dx,DWORD PTR ds:[esi]
  40da3c:	add    BYTE PTR [edx+0x0],dh
  40da3f:	add    BYTE PTR fs:[ebp+0x0],ah
  40da43:	add    BYTE PTR fs:[eax],ah
  40da46:	add    BYTE PTR [ecx+0x0],ch
  40da49:	outs   dx,BYTE PTR ds:[esi]
  40da4a:	add    BYTE PTR [eax],ah
  40da4c:	add    BYTE PTR [ebx+0x0],ah
  40da4f:	outs   dx,DWORD PTR ds:[esi]
  40da50:	add    BYTE PTR [esi+0x0],ch
  40da53:	outs   dx,BYTE PTR ds:[esi]
  40da54:	add    BYTE PTR [ebp+0x0],ah
  40da57:	arpl   WORD PTR [eax],ax
  40da59:	je     0x40da5b
  40da5b:	add    BYTE PTR gs:[eax+eax*1+0x20],ah
  40da60:	add    BYTE PTR [eax+eax*1+0x65],ah
  40da64:	add    BYTE PTR [esi+0x0],dh
  40da67:	imul   eax,DWORD PTR [eax],0x650063
  40da6d:	and    BYTE PTR [eax],al
  40da6f:	ins    DWORD PTR es:[edi],dx
  40da70:	add    BYTE PTR [edi+0x0],ch
  40da73:	add    BYTE PTR fs:[ebp+0x0],ah
  40da77:	add    BYTE PTR cs:[eax],al
  40da7a:	jae    0x40dac0
  40da7c:	add    BYTE PTR [ebx+0x0],al
  40da7f:	dec    ebp
  40da80:	add    BYTE PTR [ecx+0x0],ah
  40da83:	outs   dx,BYTE PTR ds:[esi]
  40da84:	add    BYTE PTR [ecx+0x0],ah
  40da87:	add    BYTE PTR [di+0x0],ah
  40da8b:	jb     0x40da8d
  40da8d:	cmp    al,BYTE PTR [eax]
  40da8f:	and    BYTE PTR [eax],al
  40da91:	inc    ebx
  40da92:	add    BYTE PTR [edi+0x0],ch
  40da95:	ins    BYTE PTR es:[edi],dx
  40da96:	add    BYTE PTR [eax+eax*1+0x65],ch
  40da9a:	add    BYTE PTR [ebx+0x0],ah
  40da9d:	je     0x40da9f
  40da9f:	outs   dx,DWORD PTR ds:[esi]
  40daa0:	add    BYTE PTR [edx+0x0],dh
  40daa3:	jae    0x40daa5
  40daa5:	and    BYTE PTR [eax],al
  40daa7:	imul   eax,DWORD PTR [eax],0x76006e
  40daad:	outs   dx,DWORD PTR ds:[esi]
  40daae:	add    BYTE PTR [eax+eax*1+0x76],ch
  40dab2:	add    BYTE PTR [ebp+0x0],ah
  40dab5:	add    BYTE PTR fs:[eax],ah
  40dab8:	add    BYTE PTR [ecx+0x0],ch
  40dabb:	outs   dx,BYTE PTR ds:[esi]
  40dabc:	add    BYTE PTR [eax],ah
  40dabe:	add    BYTE PTR [eax+eax*1+0x68],dh
  40dac2:	add    BYTE PTR [ebp+0x0],ah
  40dac5:	and    BYTE PTR [eax],al
  40dac7:	push   edx
  40dac8:	add    BYTE PTR [ebp+0x0],dh
  40dacb:	outs   dx,BYTE PTR ds:[esi]
  40dacc:	add    BYTE PTR [eax],ah
  40dace:	add    BYTE PTR [ecx+0x0],ah
  40dad1:	data16 add BYTE PTR [eax+eax*1+0x65],dh
  40dad6:	add    BYTE PTR [edx+0x0],dh
  40dad9:	and    BYTE PTR [eax],al
  40dadb:	outs   dx,DWORD PTR ds:[esi]
  40dadc:	add    BYTE PTR [esi+0x0],dh
  40dadf:	add    BYTE PTR gs:[edx+0x0],dh
  40dae3:	jb     0x40dae5
  40dae5:	imul   eax,DWORD PTR [eax],0x650064
  40daeb:	jae    0x40daed
  40daed:	add    BYTE PTR [ecx],bh
  40daef:	inc    esp
  40daf0:	add    BYTE PTR [ebx+0x0],al
  40daf3:	dec    ebp
  40daf4:	add    BYTE PTR [ecx+0x0],ah
  40daf7:	outs   dx,BYTE PTR ds:[esi]
  40daf8:	add    BYTE PTR [ecx+0x0],ah
  40dafb:	add    BYTE PTR [di+0x0],ah
  40daff:	jb     0x40db01
  40db01:	cmp    al,BYTE PTR [eax]
  40db03:	and    BYTE PTR [eax],al
  40db05:	inc    ebx
  40db06:	add    BYTE PTR [edi+0x0],ch
  40db09:	ins    BYTE PTR es:[edi],dx
  40db0a:	add    BYTE PTR [eax+eax*1+0x65],ch
  40db0e:	add    BYTE PTR [ebx+0x0],ah
  40db11:	je     0x40db13
  40db13:	outs   dx,DWORD PTR ds:[esi]
  40db14:	add    BYTE PTR [edx+0x0],dh
  40db17:	and    BYTE PTR [eax],al
  40db19:	push   ebp
  40db1a:	add    BYTE PTR [edx+0x0],dh
  40db1d:	imul   eax,DWORD PTR [eax],0x7b0020
  40db23:	xor    BYTE PTR [eax],al
  40db25:	jge    0x40db27
  40db27:	add    BYTE PTR [edi+0x44],dh
  40db2a:	add    BYTE PTR [ebp+0x0],ah
  40db2d:	jo     0x40db2f
  40db2f:	ins    BYTE PTR es:[edi],dx
  40db30:	add    BYTE PTR [edi+0x0],ch
  40db33:	jns    0x40db35
  40db35:	inc    ecx
  40db36:	add    BYTE PTR [eax+0x0],dh
  40db39:	jo     0x40db3b
  40db3b:	js     0x40db3d
  40db3d:	cmp    al,BYTE PTR [eax]
  40db3f:	and    BYTE PTR [eax],al
  40db41:	inc    ebx
  40db42:	add    BYTE PTR [ecx+0x0],ah
  40db45:	ins    BYTE PTR es:[edi],dx
  40db46:	add    BYTE PTR [eax+eax*1+0x69],ch
  40db4a:	add    BYTE PTR [esi+0x0],ch
  40db4d:	add    BYTE PTR [bx+si],ah
  40db50:	add    BYTE PTR [ebx+0x0],ah
  40db53:	add    BYTE PTR gs:[edx+0x0],dh
  40db57:	je     0x40db59
  40db59:	and    BYTE PTR [eax],al
  40db5b:	imul   eax,DWORD PTR [eax],0x73006e
  40db61:	je     0x40db63
  40db63:	popa   
  40db64:	add    BYTE PTR [eax+eax*1+0x6c],ch
  40db68:	add    BYTE PTR [ebp+0x0],ah
  40db6b:	jb     0x40db6d
  40db6d:	and    BYTE PTR [eax],al
  40db6f:	add    BYTE PTR fs:[ebp+0x0],ah
  40db73:	ins    BYTE PTR es:[edi],dx
  40db74:	add    BYTE PTR [ebp+0x0],ah
  40db77:	add    BYTE PTR [bx+di+0x0],ah
  40db7b:	je     0x40db7d
  40db7d:	add    BYTE PTR gs:[eax],ah
  40db80:	add    BYTE PTR [eax],ah
  40db82:	add    BYTE PTR [ecx+0x0],ah
  40db85:	jae    0x40db87
  40db87:	jns    0x40db89
  40db89:	outs   dx,BYTE PTR ds:[esi]
  40db8a:	add    BYTE PTR [ebx+0x0],ah
  40db8d:	push   0x6f007200
  40db92:	add    BYTE PTR [esi+0x0],ch
  40db95:	outs   dx,DWORD PTR ds:[esi]
  40db96:	add    BYTE PTR [ebp+0x0],dh
  40db99:	jae    0x40db9b
  40db9b:	ins    BYTE PTR es:[edi],dx
  40db9c:	add    BYTE PTR [ecx+0x0],bh
  40db9f:	add    BYTE PTR [edi+0x44],ah
  40dba2:	add    BYTE PTR [ebp+0x0],ah
  40dba5:	jo     0x40dba7
  40dba7:	ins    BYTE PTR es:[edi],dx
  40dba8:	add    BYTE PTR [edi+0x0],ch
  40dbab:	jns    0x40dbad
  40dbad:	inc    ecx
  40dbae:	add    BYTE PTR [eax+0x0],dh
  40dbb1:	jo     0x40dbb3
  40dbb3:	js     0x40dbb5
  40dbb5:	cmp    al,BYTE PTR [eax]
  40dbb7:	and    BYTE PTR [eax],al
  40dbb9:	inc    ebx
  40dbba:	add    BYTE PTR [ecx+0x0],ah
  40dbbd:	outs   dx,BYTE PTR ds:[esi]
  40dbbe:	add    BYTE PTR [ebx+0x0],ah
  40dbc1:	add    BYTE PTR gs:[eax+eax*1+0x69],ch
  40dbc6:	add    BYTE PTR [esi+0x0],ch
  40dbc9:	add    BYTE PTR [bx+si],ah
  40dbcc:	add    BYTE PTR [ecx+0x0],cl
  40dbcf:	outs   dx,BYTE PTR ds:[esi]
  40dbd0:	add    BYTE PTR [ebx+0x0],dh
  40dbd3:	je     0x40dbd5
  40dbd5:	popa   
  40dbd6:	add    BYTE PTR [eax+eax*1+0x6c],ch
  40dbda:	add    BYTE PTR [eax],ah
  40dbdc:	add    BYTE PTR [ebx+0x0],al
  40dbdf:	add    BYTE PTR gs:[edx+0x0],dh
  40dbe3:	je     0x40dbe5
  40dbe5:	and    BYTE PTR [eax],al
  40dbe7:	inc    ecx
  40dbe8:	add    BYTE PTR [ebx+0x0],dh
  40dbeb:	jns    0x40dbed
  40dbed:	outs   dx,BYTE PTR ds:[esi]
  40dbee:	add    BYTE PTR [ebx+0x0],ah
  40dbf1:	and    BYTE PTR [eax],al
  40dbf3:	dec    edi
  40dbf4:	add    BYTE PTR [eax+0x0],dh
  40dbf7:	add    BYTE PTR gs:[edx+0x0],dh
  40dbfb:	popa   
  40dbfc:	add    BYTE PTR [eax+eax*1+0x69],dh
  40dc00:	add    BYTE PTR [edi+0x0],ch
  40dc03:	outs   dx,BYTE PTR ds:[esi]
  40dc04:	add    BYTE PTR [esi],ch
  40dc06:	add    BYTE PTR [eax],al
  40dc08:	jnp    0x40dc4e
  40dc0a:	add    BYTE PTR [ebp+0x0],ah
  40dc0d:	jo     0x40dc0f
  40dc0f:	ins    BYTE PTR es:[edi],dx
  40dc10:	add    BYTE PTR [edi+0x0],ch
  40dc13:	jns    0x40dc15
  40dc15:	inc    ecx
  40dc16:	add    BYTE PTR [eax+0x0],dh
  40dc19:	jo     0x40dc1b
  40dc1b:	js     0x40dc1d
  40dc1d:	cmp    al,BYTE PTR [eax]
  40dc1f:	and    BYTE PTR [eax],al
  40dc21:	inc    ebx
  40dc22:	add    BYTE PTR [ecx+0x0],ah
  40dc25:	outs   dx,BYTE PTR ds:[esi]
  40dc26:	add    BYTE PTR [ebx+0x0],ah
  40dc29:	add    BYTE PTR gs:[eax+eax*1+0x44],ch
  40dc2e:	add    BYTE PTR [ebp+0x0],ah
  40dc31:	ins    BYTE PTR es:[edi],dx
  40dc32:	add    BYTE PTR [ebp+0x0],ah
  40dc35:	add    BYTE PTR [bx+di+0x0],ah
  40dc39:	je     0x40dc3b
  40dc3b:	add    BYTE PTR gs:[eax],ah
  40dc3e:	add    BYTE PTR [ecx+0x0],ch
  40dc41:	jae    0x40dc43
  40dc43:	and    BYTE PTR [eax],al
  40dc45:	outs   dx,BYTE PTR ds:[esi]
  40dc46:	add    BYTE PTR [ebp+0x0],dh
  40dc49:	ins    BYTE PTR es:[edi],dx
  40dc4a:	add    BYTE PTR [eax+eax*1+0x2e],ch
  40dc4e:	add    BYTE PTR [eax],ah
  40dc50:	add    BYTE PTR [ebx+0x0],dl
  40dc53:	imul   eax,DWORD PTR [eax],0x69
  40dc56:	add    BYTE PTR [eax+0x0],dh
  40dc59:	jo     0x40dc5b
  40dc5b:	imul   eax,DWORD PTR [eax],0x67006e
  40dc61:	and    BYTE PTR [eax],al
  40dc63:	je     0x40dc65
  40dc65:	push   0x20006500
  40dc6a:	add    BYTE PTR [ebx+0x0],ah
  40dc6d:	popa   
  40dc6e:	add    BYTE PTR [esi+0x0],ch
  40dc71:	arpl   WORD PTR [eax],ax
  40dc73:	add    BYTE PTR gs:[eax+eax*1+0x61],ch
  40dc78:	add    BYTE PTR [eax+eax*1+0x69],dh
  40dc7c:	add    BYTE PTR [edi+0x0],ch
  40dc7f:	outs   dx,BYTE PTR ds:[esi]
  40dc80:	add    BYTE PTR [esi],ch
  40dc82:	add    BYTE PTR [eax],al
  40dc84:	jns    0x40dcca
  40dc86:	add    BYTE PTR [ebp+0x0],ah
  40dc89:	jo     0x40dc8b
  40dc8b:	ins    BYTE PTR es:[edi],dx
  40dc8c:	add    BYTE PTR [edi+0x0],ch
  40dc8f:	jns    0x40dc91
  40dc91:	inc    ecx
  40dc92:	add    BYTE PTR [eax+0x0],dh
  40dc95:	jo     0x40dc97
  40dc97:	js     0x40dc99
  40dc99:	cmp    al,BYTE PTR [eax]
  40dc9b:	and    BYTE PTR [eax],al
  40dc9d:	inc    ebx
  40dc9e:	add    BYTE PTR [ecx+0x0],ah
  40dca1:	ins    BYTE PTR es:[edi],dx
  40dca2:	add    BYTE PTR [eax+eax*1+0x69],ch
  40dca6:	add    BYTE PTR [esi+0x0],ch
  40dca9:	add    BYTE PTR [bx+si],ah
  40dcac:	add    BYTE PTR [ecx+0x0],ah
  40dcaf:	arpl   WORD PTR [eax],ax
  40dcb1:	jno    0x40dcb3
  40dcb3:	jne    0x40dcb5
  40dcb5:	imul   eax,DWORD PTR [eax],0x690073
  40dcbb:	je     0x40dcbd
  40dcbd:	imul   eax,DWORD PTR [eax],0x6e006f
  40dcc3:	and    BYTE PTR [eax],al
  40dcc5:	outs   dx,DWORD PTR ds:[esi]
  40dcc6:	add    BYTE PTR [esi+0x0],ah
  40dcc9:	and    BYTE PTR [eax],al
  40dccb:	add    BYTE PTR fs:[ebp+0x0],ah
  40dccf:	jbe    0x40dcd1
  40dcd1:	and    BYTE PTR [eax],al
  40dcd3:	ins    BYTE PTR es:[edi],dx
  40dcd4:	add    BYTE PTR [ecx+0x0],ch
  40dcd7:	add    BYTE PTR gs:[esi+0x0],ch
  40dcdb:	jae    0x40dcdd
  40dcdd:	add    BYTE PTR gs:[eax],ah
  40dce0:	add    BYTE PTR [ecx+0x0],ah
  40dce3:	jae    0x40dce5
  40dce5:	jns    0x40dce7
  40dce7:	outs   dx,BYTE PTR ds:[esi]
  40dce8:	add    BYTE PTR [ebx+0x0],ah
  40dceb:	push   0x6f007200
  40dcf0:	add    BYTE PTR [esi+0x0],ch
  40dcf3:	outs   dx,DWORD PTR ds:[esi]
  40dcf4:	add    BYTE PTR [ebp+0x0],dh
  40dcf7:	jae    0x40dcf9
  40dcf9:	ins    BYTE PTR es:[edi],dx
  40dcfa:	add    BYTE PTR [ecx+0x0],bh
  40dcfd:	add    BYTE PTR [edi+0x44],bh
  40dd00:	add    BYTE PTR [ebp+0x0],ah
  40dd03:	jo     0x40dd05
  40dd05:	ins    BYTE PTR es:[edi],dx
  40dd06:	add    BYTE PTR [edi+0x0],ch
  40dd09:	jns    0x40dd0b
  40dd0b:	inc    ecx
  40dd0c:	add    BYTE PTR [eax+0x0],dh
  40dd0f:	jo     0x40dd11
  40dd11:	js     0x40dd13
  40dd13:	cmp    al,BYTE PTR [eax]
  40dd15:	and    BYTE PTR [eax],al
  40dd17:	inc    ebx
  40dd18:	add    BYTE PTR [ecx+0x0],ah
  40dd1b:	outs   dx,BYTE PTR ds:[esi]
  40dd1c:	add    BYTE PTR [ebx+0x0],ah
  40dd1f:	add    BYTE PTR gs:[eax+eax*1+0x69],ch
  40dd24:	add    BYTE PTR [esi+0x0],ch
  40dd27:	add    BYTE PTR [bx+si],ah
  40dd2a:	add    BYTE PTR [ecx+0x0],ah
  40dd2d:	arpl   WORD PTR [eax],ax
  40dd2f:	jno    0x40dd31
  40dd31:	jne    0x40dd33
  40dd33:	imul   eax,DWORD PTR [eax],0x690073
  40dd39:	outs   dx,DWORD PTR ds:[esi]
  40dd3a:	add    BYTE PTR [esi+0x0],ch
  40dd3d:	and    BYTE PTR [eax],al
  40dd3f:	outs   dx,DWORD PTR ds:[esi]
  40dd40:	add    BYTE PTR [esi+0x0],ah
  40dd43:	and    BYTE PTR [eax],al
  40dd45:	add    BYTE PTR fs:[ebp+0x0],ah
  40dd49:	jbe    0x40dd4b
  40dd4b:	and    BYTE PTR [eax],al
  40dd4d:	ins    BYTE PTR es:[edi],dx
  40dd4e:	add    BYTE PTR [ecx+0x0],ch
  40dd51:	arpl   WORD PTR [eax],ax
  40dd53:	add    BYTE PTR gs:[esi+0x0],ch
  40dd57:	jae    0x40dd59
  40dd59:	add    BYTE PTR gs:[eax],ah
  40dd5c:	add    BYTE PTR [ecx+0x0],ah
  40dd5f:	jae    0x40dd61
  40dd61:	jns    0x40dd63
  40dd63:	outs   dx,BYTE PTR ds:[esi]
  40dd64:	add    BYTE PTR [ebx+0x0],ah
  40dd67:	and    BYTE PTR [eax],al
  40dd69:	dec    edi
  40dd6a:	add    BYTE PTR [eax+0x0],dh
  40dd6d:	add    BYTE PTR gs:[edx+0x0],dh
  40dd71:	popa   
  40dd72:	add    BYTE PTR [eax+eax*1+0x69],dh
  40dd76:	add    BYTE PTR [edi+0x0],ch
  40dd79:	outs   dx,BYTE PTR ds:[esi]
  40dd7a:	add    BYTE PTR [esi],ch
  40dd7c:	add    BYTE PTR [eax],al
  40dd7e:	ins    DWORD PTR es:[edi],dx
  40dd7f:	inc    esp
  40dd80:	add    BYTE PTR [ebp+0x0],ah
  40dd83:	jo     0x40dd85
  40dd85:	ins    BYTE PTR es:[edi],dx
  40dd86:	add    BYTE PTR [edi+0x0],ch
  40dd89:	jns    0x40dd8b
  40dd8b:	inc    ecx
  40dd8c:	add    BYTE PTR [eax+0x0],dh
  40dd8f:	jo     0x40dd91
  40dd91:	js     0x40dd93
  40dd93:	cmp    al,BYTE PTR [eax]
  40dd95:	and    BYTE PTR [eax],al
  40dd97:	arpl   WORD PTR [eax],ax
  40dd99:	jb     0x40dd9b
  40dd9b:	add    BYTE PTR gs:[ecx+0x0],ah
  40dd9f:	je     0x40dda1
  40dda1:	add    BYTE PTR gs:[eax+eax*1+0x20],ah
  40dda6:	add    BYTE PTR [ecx+0x0],cl
  40dda9:	outs   dx,BYTE PTR ds:[esi]
  40ddaa:	add    BYTE PTR [ebx+0x0],dh
  40ddad:	je     0x40ddaf
  40ddaf:	popa   
  40ddb0:	add    BYTE PTR [eax+eax*1+0x6c],ch
  40ddb4:	add    BYTE PTR [ebx+0x0],al
  40ddb7:	add    BYTE PTR gs:[edx+0x0],dh
  40ddbb:	je     0x40ddbd
  40ddbd:	dec    edi
  40ddbe:	add    BYTE PTR [eax+0x0],dh
  40ddc1:	add    BYTE PTR gs:[edx+0x0],dh
  40ddc5:	popa   
  40ddc6:	add    BYTE PTR [eax+eax*1+0x69],dh
  40ddca:	add    BYTE PTR [edi+0x0],ch
  40ddcd:	outs   dx,BYTE PTR ds:[esi]
  40ddce:	add    BYTE PTR [eax],ah
  40ddd0:	add    BYTE PTR [edi+0x0],dh
  40ddd3:	imul   eax,DWORD PTR [eax],0x680074
  40ddd9:	and    BYTE PTR [eax],al
  40dddb:	imul   eax,DWORD PTR [eax],0x200064
  40dde1:	cmp    al,BYTE PTR [eax]
  40dde3:	and    BYTE PTR [eax],al
  40dde5:	jnp    0x40dde7
  40dde7:	xor    BYTE PTR [eax],al
  40dde9:	jge    0x40ddeb
  40ddeb:	add    BYTE PTR [ebx+0x44],ah
  40ddee:	add    BYTE PTR [ebp+0x0],ah
  40ddf1:	jo     0x40ddf3
  40ddf3:	ins    BYTE PTR es:[edi],dx
  40ddf4:	add    BYTE PTR [edi+0x0],ch
  40ddf7:	jns    0x40ddf9
  40ddf9:	inc    ecx
  40ddfa:	add    BYTE PTR [eax+0x0],dh
  40ddfd:	jo     0x40ddff
  40ddff:	js     0x40de01
  40de01:	cmp    al,BYTE PTR [eax]
  40de03:	and    BYTE PTR [eax],al
  40de05:	arpl   WORD PTR [eax],ax
  40de07:	popa   
  40de08:	add    BYTE PTR [eax+eax*1+0x6c],ch
  40de0c:	add    BYTE PTR [ecx+0x0],ch
  40de0f:	outs   dx,BYTE PTR ds:[esi]
  40de10:	add    BYTE PTR [edi+0x0],ah
  40de13:	and    BYTE PTR [eax],al
  40de15:	outs   dx,DWORD PTR ds:[esi]
  40de16:	add    BYTE PTR [eax+0x0],dh
  40de19:	add    BYTE PTR gs:[edx+0x0],dh
  40de1d:	popa   
  40de1e:	add    BYTE PTR [eax+eax*1+0x69],dh
  40de22:	add    BYTE PTR [edi+0x0],ch
  40de25:	outs   dx,BYTE PTR ds:[esi]
  40de26:	add    BYTE PTR [esi],ch
  40de28:	add    BYTE PTR [ebx+0x0],dl
  40de2b:	je     0x40de2d
  40de2d:	popa   
  40de2e:	add    BYTE PTR [edx+0x0],dh
  40de31:	je     0x40de33
  40de33:	dec    edi
  40de34:	add    BYTE PTR [eax+0x0],dh
  40de37:	add    BYTE PTR gs:[edx+0x0],dh
  40de3b:	popa   
  40de3c:	add    BYTE PTR [eax+eax*1+0x69],dh
  40de40:	add    BYTE PTR [edi+0x0],ch
  40de43:	outs   dx,BYTE PTR ds:[esi]
  40de44:	add    BYTE PTR [ecx+0x0],al
  40de47:	jae    0x40de49
  40de49:	jns    0x40de4b
  40de4b:	outs   dx,BYTE PTR ds:[esi]
  40de4c:	add    BYTE PTR [ebx+0x0],ah
  40de4f:	add    BYTE PTR [ecx+0x44],bh
  40de52:	add    BYTE PTR [ebp+0x0],ah
  40de55:	jo     0x40de57
  40de57:	ins    BYTE PTR es:[edi],dx
  40de58:	add    BYTE PTR [edi+0x0],ch
  40de5b:	jns    0x40de5d
  40de5d:	inc    ecx
  40de5e:	add    BYTE PTR [eax+0x0],dh
  40de61:	jo     0x40de63
  40de63:	js     0x40de65
  40de65:	cmp    al,BYTE PTR [eax]
  40de67:	and    BYTE PTR [eax],al
  40de69:	arpl   WORD PTR [eax],ax
  40de6b:	jb     0x40de6d
  40de6d:	add    BYTE PTR gs:[ecx+0x0],ah
  40de71:	je     0x40de73
  40de73:	add    BYTE PTR gs:[eax+eax*1+0x20],ah
  40de78:	add    BYTE PTR [ecx+0x0],al
  40de7b:	arpl   WORD PTR [eax],ax
  40de7d:	jno    0x40de7f
  40de7f:	jne    0x40de81
  40de81:	imul   eax,DWORD PTR [eax],0x650072
  40de87:	inc    esp
  40de88:	add    BYTE PTR [ebp+0x0],ah
  40de8b:	jbe    0x40de8d
  40de8d:	dec    esp
  40de8e:	add    BYTE PTR [ecx+0x0],ch
  40de91:	arpl   WORD PTR [eax],ax
  40de93:	add    BYTE PTR gs:[esi+0x0],ch
  40de97:	jae    0x40de99
  40de99:	add    BYTE PTR gs:[edi+0x0],cl
  40de9d:	jo     0x40de9f
  40de9f:	add    BYTE PTR gs:[edx+0x0],dh
  40dea3:	popa   
  40dea4:	add    BYTE PTR [eax+eax*1+0x69],dh
  40dea8:	add    BYTE PTR [edi+0x0],ch
  40deab:	outs   dx,BYTE PTR ds:[esi]
  40deac:	add    BYTE PTR [eax],ah
  40deae:	add    BYTE PTR [edi+0x0],dh
  40deb1:	imul   eax,DWORD PTR [eax],0x680074
  40deb7:	and    BYTE PTR [eax],al
  40deb9:	imul   eax,DWORD PTR [eax],0x200064
  40debf:	cmp    al,BYTE PTR [eax]
  40dec1:	and    BYTE PTR [eax],al
  40dec3:	jnp    0x40dec5
  40dec5:	xor    BYTE PTR [eax],al
  40dec7:	jge    0x40dec9
  40dec9:	add    BYTE PTR [ecx+0x44],dl
  40decc:	add    BYTE PTR [ebp+0x0],ah
  40decf:	jo     0x40ded1
  40ded1:	ins    BYTE PTR es:[edi],dx
  40ded2:	add    BYTE PTR [edi+0x0],ch
  40ded5:	jns    0x40ded7
  40ded7:	inc    ecx
  40ded8:	add    BYTE PTR [eax+0x0],dh
  40dedb:	jo     0x40dedd
  40dedd:	js     0x40dedf
  40dedf:	cmp    al,BYTE PTR [eax]
  40dee1:	and    BYTE PTR [eax],al
  40dee3:	arpl   WORD PTR [eax],ax
  40dee5:	popa   
  40dee6:	add    BYTE PTR [eax+eax*1+0x6c],ch
  40deea:	add    BYTE PTR [ecx+0x0],ch
  40deed:	outs   dx,BYTE PTR ds:[esi]
  40deee:	add    BYTE PTR [edi+0x0],ah
  40def1:	and    BYTE PTR [eax],al
  40def3:	arpl   WORD PTR [eax],ax
  40def5:	popa   
  40def6:	add    BYTE PTR [esi+0x0],ch
  40def9:	arpl   WORD PTR [eax],ax
  40defb:	add    BYTE PTR gs:[eax+eax*1+0x20],ch
  40df00:	add    BYTE PTR [edi+0x0],ch
  40df03:	outs   dx,BYTE PTR ds:[esi]
  40df04:	add    BYTE PTR [eax],ah
  40df06:	add    BYTE PTR [edi+0x0],ch
  40df09:	jo     0x40df0b
  40df0b:	add    BYTE PTR gs:[edx+0x0],dh
  40df0f:	popa   
  40df10:	add    BYTE PTR [eax+eax*1+0x69],dh
  40df14:	add    BYTE PTR [edi+0x0],ch
  40df17:	outs   dx,BYTE PTR ds:[esi]
  40df18:	add    BYTE PTR [esi],ch
  40df1a:	add    BYTE PTR [eax],al
  40df1c:	popa   
  40df1d:	push   esp
  40df1e:	add    BYTE PTR [edx+0x0],dh
  40df21:	jns    0x40df23
  40df23:	imul   eax,DWORD PTR [eax],0x67006e
  40df29:	and    BYTE PTR [eax],al
  40df2b:	je     0x40df2d
  40df2d:	outs   dx,DWORD PTR ds:[esi]
  40df2e:	add    BYTE PTR [eax],ah
  40df30:	add    BYTE PTR [ecx+0x0],ah
  40df33:	add    BYTE PTR fs:[eax+eax*1+0x20],ah
  40df38:	add    BYTE PTR [ecx+0x0],ah
  40df3b:	outs   dx,BYTE PTR ds:[esi]
  40df3c:	add    BYTE PTR [eax],ah
  40df3e:	add    BYTE PTR [edi+0x0],ch
  40df41:	jo     0x40df43
  40df43:	add    BYTE PTR gs:[edx+0x0],dh
  40df47:	popa   
  40df48:	add    BYTE PTR [eax+eax*1+0x69],dh
  40df4c:	add    BYTE PTR [edi+0x0],ch
  40df4f:	outs   dx,BYTE PTR ds:[esi]
  40df50:	add    BYTE PTR [eax],ah
  40df52:	add    BYTE PTR [edi+0x0],dh
  40df55:	imul   eax,DWORD PTR [eax],0x680074
  40df5b:	and    BYTE PTR [eax],al
  40df5d:	je     0x40df5f
  40df5f:	push   0x20006500
  40df64:	add    BYTE PTR [ebp+0x0],ah
  40df67:	js     0x40df69
  40df69:	imul   eax,DWORD PTR [eax],0x740073
  40df6f:	imul   eax,DWORD PTR [eax],0x67006e
  40df75:	and    BYTE PTR [eax],al
  40df77:	dec    ecx
  40df78:	add    BYTE PTR [eax+eax*1+0x2e],al
  40df7c:	add    BYTE PTR [eax],al
  40df7e:	outs   dx,DWORD PTR ds:[esi]
  40df7f:	inc    ebx
  40df80:	add    BYTE PTR [edi+0x0],ch
  40df83:	ins    BYTE PTR es:[edi],dx
  40df84:	add    BYTE PTR [eax+eax*1+0x65],ch
  40df88:	add    BYTE PTR [ebx+0x0],ah
  40df8b:	je     0x40df8d
  40df8d:	imul   eax,DWORD PTR [eax],0x6e006f
  40df93:	push   ebx
  40df94:	add    BYTE PTR [ebp+0x0],ah
  40df97:	jb     0x40df99
  40df99:	jbe    0x40df9b
  40df9b:	imul   eax,DWORD PTR [eax],0x650063
  40dfa1:	cmp    al,BYTE PTR [eax]
  40dfa3:	push   ebx
  40dfa4:	add    BYTE PTR [eax+eax*1+0x61],dh
  40dfa8:	add    BYTE PTR [edx+0x0],dh
  40dfab:	je     0x40dfad
  40dfad:	imul   eax,DWORD PTR [eax],0x67006e
  40dfb3:	and    BYTE PTR [eax],al
  40dfb5:	je     0x40dfb7
  40dfb7:	push   0x20006500
  40dfbc:	add    BYTE PTR [edx+0x0],dh
  40dfbf:	add    BYTE PTR gs:[ebp+0x0],ch
  40dfc3:	outs   dx,DWORD PTR ds:[esi]
  40dfc4:	add    BYTE PTR [eax+eax*1+0x65],dh
  40dfc8:	add    BYTE PTR [eax],ah
  40dfca:	add    BYTE PTR [eax+eax*1+0x65],dh
  40dfce:	add    BYTE PTR [ebx+0x0],dh
  40dfd1:	je     0x40dfd3
  40dfd3:	and    BYTE PTR [eax],al
  40dfd5:	jb     0x40dfd7
  40dfd7:	jne    0x40dfd9
  40dfd9:	outs   dx,BYTE PTR ds:[esi]
  40dfda:	add    BYTE PTR [esi+0x0],ch
  40dfdd:	add    BYTE PTR gs:[edx+0x0],dh
  40dfe1:	and    BYTE PTR [eax],al
  40dfe3:	push   0x73006f00
  40dfe8:	add    BYTE PTR [eax+eax*1+0x2e],dh
  40dfec:	add    BYTE PTR [eax],al
  40dfee:	outs   dx,DWORD PTR ds:[esi]
  40dfef:	inc    ebx
  40dff0:	add    BYTE PTR [edi+0x0],ch
  40dff3:	ins    BYTE PTR es:[edi],dx
  40dff4:	add    BYTE PTR [eax+eax*1+0x65],ch
  40dff8:	add    BYTE PTR [ebx+0x0],ah
  40dffb:	je     0x40dffd
  40dffd:	imul   eax,DWORD PTR [eax],0x6e006f
  40e003:	push   ebx
  40e004:	add    BYTE PTR [ebp+0x0],ah
  40e007:	jb     0x40e009
  40e009:	jbe    0x40e00b
  40e00b:	imul   eax,DWORD PTR [eax],0x650063
  40e011:	cmp    al,BYTE PTR [eax]
  40e013:	push   ebx
  40e014:	add    BYTE PTR [eax+eax*1+0x6f],dh
  40e018:	add    BYTE PTR [eax+0x0],dh
  40e01b:	jo     0x40e01d
  40e01d:	imul   eax,DWORD PTR [eax],0x67006e
  40e023:	and    BYTE PTR [eax],al
  40e025:	je     0x40e027
  40e027:	push   0x20006500
  40e02c:	add    BYTE PTR [edx+0x0],dh
  40e02f:	add    BYTE PTR gs:[ebp+0x0],ch
  40e033:	outs   dx,DWORD PTR ds:[esi]
  40e034:	add    BYTE PTR [eax+eax*1+0x65],dh
  40e038:	add    BYTE PTR [eax],ah
  40e03a:	add    BYTE PTR [eax+eax*1+0x65],dh
  40e03e:	add    BYTE PTR [ebx+0x0],dh
  40e041:	je     0x40e043
  40e043:	and    BYTE PTR [eax],al
  40e045:	jb     0x40e047
  40e047:	jne    0x40e049
  40e049:	outs   dx,BYTE PTR ds:[esi]
  40e04a:	add    BYTE PTR [esi+0x0],ch
  40e04d:	add    BYTE PTR gs:[edx+0x0],dh
  40e051:	and    BYTE PTR [eax],al
  40e053:	push   0x73006f00
  40e058:	add    BYTE PTR [eax+eax*1+0x2e],dh
  40e05c:	add    BYTE PTR [eax],al
  40e05e:	and    eax,DWORD PTR [ebx+0x0]
  40e061:	jb     0x40e063
  40e063:	add    BYTE PTR gs:[ecx+0x0],ah
  40e067:	je     0x40e069
  40e069:	add    BYTE PTR gs:[ebx+0x0],dl
  40e06d:	add    BYTE PTR gs:[edx+0x0],dh
  40e071:	jbe    0x40e073
  40e073:	imul   eax,DWORD PTR [eax],0x650063
  40e079:	dec    eax
  40e07a:	add    BYTE PTR [edi+0x0],ch
  40e07d:	jae    0x40e07f
  40e07f:	je     0x40e081
  40e081:	add    BYTE PTR [edi+0x43],bh
  40e084:	add    BYTE PTR [edi+0x0],ch
  40e087:	ins    BYTE PTR es:[edi],dx
  40e088:	add    BYTE PTR [eax+eax*1+0x65],ch
  40e08c:	add    BYTE PTR [ebx+0x0],ah
  40e08f:	je     0x40e091
  40e091:	imul   eax,DWORD PTR [eax],0x6e006f
  40e097:	push   ebx
  40e098:	add    BYTE PTR [ebp+0x0],ah
  40e09b:	jb     0x40e09d
  40e09d:	jbe    0x40e09f
  40e09f:	imul   eax,DWORD PTR [eax],0x650063
  40e0a5:	add    BYTE PTR cs:[ebx+0x0],al
  40e0a9:	jb     0x40e0ab
  40e0ab:	add    BYTE PTR gs:[ecx+0x0],ah
  40e0af:	je     0x40e0b1
  40e0b1:	add    BYTE PTR gs:[ebx+0x0],dl
  40e0b5:	add    BYTE PTR gs:[edx+0x0],dh
  40e0b9:	jbe    0x40e0bb
  40e0bb:	imul   eax,DWORD PTR [eax],0x650063
  40e0c1:	dec    eax
  40e0c2:	add    BYTE PTR [edi+0x0],ch
  40e0c5:	jae    0x40e0c7
  40e0c7:	je     0x40e0c9
  40e0c9:	cmp    al,BYTE PTR [eax]
  40e0cb:	inc    ebx
  40e0cc:	add    BYTE PTR [edx+0x0],dh
  40e0cf:	add    BYTE PTR gs:[ecx+0x0],ah
  40e0d3:	je     0x40e0d5
  40e0d5:	imul   eax,DWORD PTR [eax],0x67006e
  40e0db:	and    BYTE PTR [eax],al
  40e0dd:	popa   
  40e0de:	add    BYTE PTR [eax],ah
  40e0e0:	add    BYTE PTR [esi+0x0],ch
  40e0e3:	add    BYTE PTR gs:[edi+0x0],dh
  40e0e7:	and    BYTE PTR [eax],al
  40e0e9:	jae    0x40e0eb
  40e0eb:	add    BYTE PTR gs:[edx+0x0],dh
  40e0ef:	jbe    0x40e0f1
  40e0f1:	imul   eax,DWORD PTR [eax],0x650063
  40e0f7:	and    BYTE PTR [eax],al
  40e0f9:	push   0x73006f00
  40e0fe:	add    BYTE PTR [eax+eax*1+0x0],dh
  40e102:	add    BYTE PTR [ecx+0x6f0043],0x6c
  40e109:	add    BYTE PTR [eax+eax*1+0x65],ch
  40e10d:	add    BYTE PTR [ebx+0x0],ah
  40e110:	je     0x40e112
  40e112:	imul   eax,DWORD PTR [eax],0x6e006f
  40e118:	push   ebx
  40e119:	add    BYTE PTR [ebp+0x0],ah
  40e11c:	jb     0x40e11e
  40e11e:	jbe    0x40e120
  40e120:	imul   eax,DWORD PTR [eax],0x650063
  40e126:	add    BYTE PTR cs:[ebx+0x0],al
  40e12a:	jb     0x40e12c
  40e12c:	add    BYTE PTR gs:[ecx+0x0],ah
  40e130:	je     0x40e132
  40e132:	add    BYTE PTR gs:[ebx+0x0],dl
  40e136:	add    BYTE PTR gs:[edx+0x0],dh
  40e13a:	jbe    0x40e13c
  40e13c:	imul   eax,DWORD PTR [eax],0x650063
  40e142:	dec    eax
  40e143:	add    BYTE PTR [edi+0x0],ch
  40e146:	jae    0x40e148
  40e148:	je     0x40e14a
  40e14a:	cmp    al,BYTE PTR [eax]
  40e14c:	push   ebx
  40e14d:	add    BYTE PTR [eax+eax*1+0x61],dh
  40e151:	add    BYTE PTR [edx+0x0],dh
  40e154:	je     0x40e156
  40e156:	imul   eax,DWORD PTR [eax],0x67006e
  40e15c:	and    BYTE PTR [eax],al
  40e15e:	je     0x40e160
  40e160:	push   0x20006500
  40e165:	add    BYTE PTR [ebx+0x0],ah
  40e168:	outs   dx,DWORD PTR ds:[esi]
  40e169:	add    BYTE PTR [eax+eax*1+0x6c],ch
  40e16d:	add    BYTE PTR [ebp+0x0],ah
  40e170:	arpl   WORD PTR [eax],ax
  40e172:	je     0x40e174
  40e174:	imul   eax,DWORD PTR [eax],0x6e006f
  40e17a:	and    BYTE PTR [eax],al
  40e17c:	push   0x73006f00
  40e181:	add    BYTE PTR [eax+eax*1+0x0],dh
  40e185:	adc    BYTE PTR [ecx+0x6f0043],0x6c
  40e18c:	add    BYTE PTR [eax+eax*1+0x65],ch
  40e190:	add    BYTE PTR [ebx+0x0],ah
  40e193:	je     0x40e195
  40e195:	imul   eax,DWORD PTR [eax],0x6e006f
  40e19b:	push   ebx
  40e19c:	add    BYTE PTR [ebp+0x0],ah
  40e19f:	jb     0x40e1a1
  40e1a1:	jbe    0x40e1a3
  40e1a3:	imul   eax,DWORD PTR [eax],0x650063
  40e1a9:	add    BYTE PTR cs:[ebx+0x0],al
  40e1ad:	jb     0x40e1af
  40e1af:	add    BYTE PTR gs:[ecx+0x0],ah
  40e1b3:	je     0x40e1b5
  40e1b5:	add    BYTE PTR gs:[ebx+0x0],dl
  40e1b9:	add    BYTE PTR gs:[edx+0x0],dh
  40e1bd:	jbe    0x40e1bf
  40e1bf:	imul   eax,DWORD PTR [eax],0x650063
  40e1c5:	dec    eax
  40e1c6:	add    BYTE PTR [edi+0x0],ch
  40e1c9:	jae    0x40e1cb
  40e1cb:	je     0x40e1cd
  40e1cd:	cmp    al,BYTE PTR [eax]
  40e1cf:	inc    ebx
  40e1d0:	add    BYTE PTR [edi+0x0],ch
  40e1d3:	ins    BYTE PTR es:[edi],dx
  40e1d4:	add    BYTE PTR [eax+eax*1+0x65],ch
  40e1d8:	add    BYTE PTR [ebx+0x0],ah
  40e1db:	je     0x40e1dd
  40e1dd:	imul   eax,DWORD PTR [eax],0x6e006f
  40e1e3:	and    BYTE PTR [eax],al
  40e1e5:	push   0x73006f00
  40e1ea:	add    BYTE PTR [eax+eax*1+0x20],dh
  40e1ee:	add    BYTE PTR [ebx+0x0],dh
  40e1f1:	je     0x40e1f3
  40e1f3:	popa   
  40e1f4:	add    BYTE PTR [edx+0x0],dh
  40e1f7:	je     0x40e1f9
  40e1f9:	add    BYTE PTR gs:[eax+eax*1+0x20],ah
  40e1fe:	add    BYTE PTR [ebx+0x0],dh
  40e201:	jne    0x40e203
  40e203:	arpl   WORD PTR [eax],ax
  40e205:	arpl   WORD PTR [eax],ax
  40e207:	add    BYTE PTR gs:[ebx+0x0],dh
  40e20b:	jae    0x40e20d
  40e20d:	data16 add BYTE PTR [ebp+0x0],dh
  40e211:	ins    BYTE PTR es:[edi],dx
  40e212:	add    BYTE PTR [eax+eax*1+0x79],ch
  40e216:	add    BYTE PTR [eax],al
  40e218:	pop    ds
  40e219:	push   edi
  40e21a:	add    BYTE PTR [ebx+0x0],al
  40e21d:	inc    esi
  40e21e:	add    BYTE PTR [eax],ah
  40e220:	add    BYTE PTR [eax+0x0],ch
  40e223:	outs   dx,DWORD PTR ds:[esi]
  40e224:	add    BYTE PTR [ebx+0x0],dh
  40e227:	je     0x40e229
  40e229:	and    BYTE PTR [eax],al
  40e22b:	outs   dx,DWORD PTR ds:[esi]
  40e22c:	add    BYTE PTR [eax+0x0],dh
  40e22f:	add    BYTE PTR gs:[esi+0x0],ch
  40e233:	add    BYTE PTR gs:[eax+eax*1+0x0],ah
  40e238:	adc    BYTE PTR [edi+0x6f0043],0x6c
  40e23f:	add    BYTE PTR [eax+eax*1+0x65],ch
  40e243:	add    BYTE PTR [ebx+0x0],ah
  40e246:	je     0x40e248
  40e248:	imul   eax,DWORD PTR [eax],0x6e006f
  40e24e:	push   ebx
  40e24f:	add    BYTE PTR [ebp+0x0],ah
  40e252:	jb     0x40e254
  40e254:	jbe    0x40e256
  40e256:	imul   eax,DWORD PTR [eax],0x650063
  40e25c:	add    BYTE PTR cs:[edi+0x0],cl
  40e260:	outs   dx,BYTE PTR ds:[esi]
  40e261:	add    BYTE PTR [eax+0x0],cl
  40e264:	outs   dx,DWORD PTR ds:[esi]
  40e265:	add    BYTE PTR [ebx+0x0],dh
  40e268:	je     0x40e26a
  40e26a:	inc    esi
  40e26b:	add    BYTE PTR [ecx+0x0],ah
  40e26e:	jne    0x40e270
  40e270:	ins    BYTE PTR es:[edi],dx
  40e271:	add    BYTE PTR [eax+eax*1+0x3a],dh
  40e275:	add    BYTE PTR [eax+0x0],cl
  40e278:	outs   dx,DWORD PTR ds:[esi]
  40e279:	add    BYTE PTR [ebx+0x0],dh
  40e27c:	je     0x40e27e
  40e27e:	and    BYTE PTR [eax],al
  40e280:	push   0x73006100
  40e285:	add    BYTE PTR [eax],ah
  40e287:	add    BYTE PTR [esi+0x0],ah
  40e28a:	popa   
  40e28b:	add    BYTE PTR [ebp+0x0],dh
  40e28e:	ins    BYTE PTR es:[edi],dx
  40e28f:	add    BYTE PTR [eax+eax*1+0x65],dh
  40e293:	add    BYTE PTR [eax+eax*1+0x2e],ah
  40e297:	add    BYTE PTR [eax],ah
  40e299:	add    BYTE PTR [ecx+0x0],al
  40e29c:	bound  eax,QWORD PTR [eax]
  40e29e:	outs   dx,DWORD PTR ds:[esi]
  40e29f:	add    BYTE PTR [edx+0x0],dh
  40e2a2:	je     0x40e2a4
  40e2a4:	imul   eax,DWORD PTR [eax],0x67006e
  40e2aa:	and    BYTE PTR [eax],al
  40e2ac:	popa   
  40e2ad:	add    BYTE PTR [esi+0x0],ch
  40e2b0:	add    BYTE PTR fs:[eax],ah
  40e2b3:	add    BYTE PTR [ebx+0x0],dh
  40e2b6:	je     0x40e2b8
  40e2b8:	popa   
  40e2b9:	add    BYTE PTR [edx+0x0],dh
  40e2bc:	je     0x40e2be
  40e2be:	imul   eax,DWORD PTR [eax],0x67006e
  40e2c4:	and    BYTE PTR [eax],al
  40e2c6:	popa   
  40e2c7:	add    BYTE PTR [edi+0x0],ah
  40e2ca:	popa   
  40e2cb:	add    BYTE PTR [ecx+0x0],ch
  40e2ce:	outs   dx,BYTE PTR ds:[esi]
  40e2cf:	add    BYTE PTR [eax],al
  40e2d1:	xor    BYTE PTR [edi+0x6f0043],0x6c
  40e2d8:	add    BYTE PTR [eax+eax*1+0x65],ch
  40e2dc:	add    BYTE PTR [ebx+0x0],ah
  40e2df:	je     0x40e2e1
  40e2e1:	imul   eax,DWORD PTR [eax],0x6e006f
  40e2e7:	push   ebx
  40e2e8:	add    BYTE PTR [ebp+0x0],ah
  40e2eb:	jb     0x40e2ed
  40e2ed:	jbe    0x40e2ef
  40e2ef:	imul   eax,DWORD PTR [eax],0x650063
  40e2f5:	add    BYTE PTR cs:[edi+0x0],cl
  40e2f9:	outs   dx,BYTE PTR ds:[esi]
  40e2fa:	add    BYTE PTR [eax+0x0],cl
  40e2fd:	outs   dx,DWORD PTR ds:[esi]
  40e2fe:	add    BYTE PTR [ebx+0x0],dh
  40e301:	je     0x40e303
  40e303:	inc    esi
  40e304:	add    BYTE PTR [ecx+0x0],ah
  40e307:	jne    0x40e309
  40e309:	ins    BYTE PTR es:[edi],dx
  40e30a:	add    BYTE PTR [eax+eax*1+0x3a],dh
  40e30e:	add    BYTE PTR [ebp+0x0],al
  40e311:	js     0x40e313
  40e313:	arpl   WORD PTR [eax],ax
  40e315:	add    BYTE PTR gs:[eax+0x0],dh
  40e319:	je     0x40e31b
  40e31b:	imul   eax,DWORD PTR [eax],0x6e006f
  40e321:	and    BYTE PTR [eax],al
  40e323:	arpl   WORD PTR [eax],ax
  40e325:	popa   
  40e326:	add    BYTE PTR [ebp+0x0],dh
  40e329:	add    BYTE PTR [bx+si+0x0],ch
  40e32d:	je     0x40e32f
  40e32f:	and    BYTE PTR [eax],al
  40e331:	ja     0x40e333
  40e333:	push   0x6c006900
  40e338:	add    BYTE PTR [ebp+0x0],ah
  40e33b:	and    BYTE PTR [eax],al
  40e33d:	je     0x40e33f
  40e33f:	jb     0x40e341
  40e341:	jns    0x40e343
  40e343:	imul   eax,DWORD PTR [eax],0x67006e
  40e349:	and    BYTE PTR [eax],al
  40e34b:	je     0x40e34d
  40e34d:	outs   dx,DWORD PTR ds:[esi]
  40e34e:	add    BYTE PTR [eax],ah
  40e350:	add    BYTE PTR [ebx+0x0],ah
  40e353:	ins    BYTE PTR es:[edi],dx
  40e354:	add    BYTE PTR [edi+0x0],ch
  40e357:	jae    0x40e359
  40e359:	add    BYTE PTR gs:[eax],ah
  40e35c:	add    BYTE PTR [eax+eax*1+0x68],dh
  40e360:	add    BYTE PTR [ebp+0x0],ah
  40e363:	and    BYTE PTR [eax],al
  40e365:	add    BYTE PTR gs:[eax+0x0],bh
  40e369:	imul   eax,DWORD PTR [eax],0x740073
  40e36f:	imul   eax,DWORD PTR [eax],0x67006e
  40e375:	and    BYTE PTR [eax],al
  40e377:	push   0x73006f00
  40e37c:	add    BYTE PTR [eax+eax*1+0x2e],dh
  40e380:	add    BYTE PTR [eax],ah
  40e382:	add    BYTE PTR [ebx+0x0],bh
  40e385:	xor    BYTE PTR [eax],al
  40e387:	jge    0x40e389
  40e389:	add    BYTE PTR [eax+0x6f0043ad],al
  40e38f:	add    BYTE PTR [eax+eax*1+0x6c],ch
  40e393:	add    BYTE PTR [ebp+0x0],ah
  40e396:	arpl   WORD PTR [eax],ax
  40e398:	je     0x40e39a
  40e39a:	imul   eax,DWORD PTR [eax],0x6e006f
  40e3a0:	push   ebx
  40e3a1:	add    BYTE PTR [ebp+0x0],ah
  40e3a4:	jb     0x40e3a6
  40e3a6:	jbe    0x40e3a8
  40e3a8:	imul   eax,DWORD PTR [eax],0x650063
  40e3ae:	add    BYTE PTR cs:[edx+0x0],dl
  40e3b2:	add    BYTE PTR gs:[ebx+0x0],dh
  40e3b6:	je     0x40e3b8
  40e3b8:	popa   
  40e3b9:	add    BYTE PTR [edx+0x0],dh
  40e3bc:	je     0x40e3be
  40e3be:	dec    eax
  40e3bf:	add    BYTE PTR [edi+0x0],ch
  40e3c2:	jae    0x40e3c4
  40e3c4:	je     0x40e3c6
  40e3c6:	push   esp
  40e3c7:	add    BYTE PTR [eax+0x0],ch
  40e3ca:	jb     0x40e3cc
  40e3cc:	add    BYTE PTR gs:[ecx+0x0],ah
  40e3d0:	add    BYTE PTR fs:[edx],bh
  40e3d3:	add    BYTE PTR [ebp+0x0],al
  40e3d6:	js     0x40e3d8
  40e3d8:	arpl   WORD PTR [eax],ax
  40e3da:	add    BYTE PTR gs:[eax+0x0],dh
  40e3de:	je     0x40e3e0
  40e3e0:	imul   eax,DWORD PTR [eax],0x6e006f
  40e3e6:	and    BYTE PTR [eax],al
  40e3e8:	arpl   WORD PTR [eax],ax
  40e3ea:	popa   
  40e3eb:	add    BYTE PTR [ebp+0x0],dh
  40e3ee:	add    BYTE PTR [bx+si+0x0],ch
  40e3f2:	je     0x40e3f4
  40e3f4:	and    BYTE PTR [eax],al
  40e3f6:	ja     0x40e3f8
  40e3f8:	push   0x6c006900
  40e3fd:	add    BYTE PTR [ebp+0x0],ah
  40e400:	and    BYTE PTR [eax],al
  40e402:	je     0x40e404
  40e404:	jb     0x40e406
  40e406:	jns    0x40e408
  40e408:	imul   eax,DWORD PTR [eax],0x67006e
  40e40e:	and    BYTE PTR [eax],al
  40e410:	je     0x40e412
  40e412:	outs   dx,DWORD PTR ds:[esi]
  40e413:	add    BYTE PTR [eax],ah
  40e415:	add    BYTE PTR [edx+0x0],dh
  40e418:	add    BYTE PTR gs:[ebx+0x0],dh
  40e41c:	je     0x40e41e
  40e41e:	popa   
  40e41f:	add    BYTE PTR [edx+0x0],dh
  40e422:	je     0x40e424
  40e424:	and    BYTE PTR [eax],al
  40e426:	push   0x73006f00
  40e42b:	add    BYTE PTR [eax+eax*1+0x2e],dh
  40e42f:	add    BYTE PTR [eax],ah
  40e431:	add    BYTE PTR [ebx+0x0],bh
  40e434:	xor    BYTE PTR [eax],al
  40e436:	jge    0x40e438
  40e438:	add    BYTE PTR [eax+0x6f00438f],al
  40e43e:	add    BYTE PTR [eax+eax*1+0x6c],ch
  40e442:	add    BYTE PTR [ebp+0x0],ah
  40e445:	arpl   WORD PTR [eax],ax
  40e447:	je     0x40e449
  40e449:	imul   eax,DWORD PTR [eax],0x6e006f
  40e44f:	push   ebx
  40e450:	add    BYTE PTR [ebp+0x0],ah
  40e453:	jb     0x40e455
  40e455:	jbe    0x40e457
  40e457:	imul   eax,DWORD PTR [eax],0x650063
  40e45d:	add    BYTE PTR cs:[edx+0x0],dl
  40e461:	add    BYTE PTR gs:[ebx+0x0],dh
  40e465:	je     0x40e467
  40e467:	popa   
  40e468:	add    BYTE PTR [edx+0x0],dh
  40e46b:	je     0x40e46d
  40e46d:	dec    eax
  40e46e:	add    BYTE PTR [edi+0x0],ch
  40e471:	jae    0x40e473
  40e473:	je     0x40e475
  40e475:	push   esp
  40e476:	add    BYTE PTR [eax+0x0],ch
  40e479:	jb     0x40e47b
  40e47b:	add    BYTE PTR gs:[ecx+0x0],ah
  40e47f:	add    BYTE PTR fs:[edx],bh
  40e482:	add    BYTE PTR [eax+0x0],cl
  40e485:	outs   dx,DWORD PTR ds:[esi]
  40e486:	add    BYTE PTR [ebx+0x0],dh
  40e489:	je     0x40e48b
  40e48b:	and    BYTE PTR [eax],al
  40e48d:	imul   eax,DWORD PTR [eax],0x200073
  40e493:	outs   dx,BYTE PTR ds:[esi]
  40e494:	add    BYTE PTR [edi+0x0],ch
  40e497:	je     0x40e499
  40e499:	and    BYTE PTR [eax],al
  40e49b:	jne    0x40e49d
  40e49d:	jo     0x40e49f
  40e49f:	and    BYTE PTR [eax],al
  40e4a1:	jns    0x40e4a3
  40e4a3:	add    BYTE PTR gs:[eax+eax*1+0x2e],dh
  40e4a8:	add    BYTE PTR [eax],ah
  40e4aa:	add    BYTE PTR [eax+eax*1+0x72],dl
  40e4ae:	add    BYTE PTR [ecx+0x0],bh
  40e4b1:	imul   eax,DWORD PTR [eax],0x67006e
  40e4b7:	and    BYTE PTR [eax],al
  40e4b9:	popa   
  40e4ba:	add    BYTE PTR [edi+0x0],ah
  40e4bd:	popa   
  40e4be:	add    BYTE PTR [ecx+0x0],ch
  40e4c1:	outs   dx,BYTE PTR ds:[esi]
  40e4c2:	add    BYTE PTR [esi],ch
  40e4c4:	add    BYTE PTR [esi],ch
  40e4c6:	add    BYTE PTR [esi],ch
  40e4c8:	add    BYTE PTR [eax],al
  40e4ca:	aaa    
  40e4cb:	inc    ebx
  40e4cc:	add    BYTE PTR [edi+0x0],ch
  40e4cf:	ins    BYTE PTR es:[edi],dx
  40e4d0:	add    BYTE PTR [eax+eax*1+0x65],ch
  40e4d4:	add    BYTE PTR [ebx+0x0],ah
  40e4d7:	je     0x40e4d9
  40e4d9:	imul   eax,DWORD PTR [eax],0x6e006f
  40e4df:	push   ebx
  40e4e0:	add    BYTE PTR [ebp+0x0],ah
  40e4e3:	jb     0x40e4e5
  40e4e5:	jbe    0x40e4e7
  40e4e7:	imul   eax,DWORD PTR [eax],0x650063
  40e4ed:	cmp    al,BYTE PTR [eax]
  40e4ef:	inc    esp
  40e4f0:	add    BYTE PTR [ecx+0x0],ch
  40e4f3:	jae    0x40e4f5
  40e4f5:	jo     0x40e4f7
  40e4f7:	outs   dx,DWORD PTR ds:[esi]
  40e4f8:	add    BYTE PTR [ebx+0x0],dh
  40e4fb:	add    BYTE PTR gs:[eax],ch
  40e4fe:	add    BYTE PTR [ecx],ch
  40e500:	add    BYTE PTR [eax],al
  40e502:	sub    ecx,DWORD PTR [eax+0x0]
  40e505:	outs   dx,DWORD PTR ds:[esi]
  40e506:	add    BYTE PTR [ebx+0x0],dh
  40e509:	je     0x40e50b
  40e50b:	dec    ecx
  40e50c:	add    BYTE PTR [esi+0x0],ch
  40e50f:	popa   
  40e510:	add    BYTE PTR [ebx+0x0],ah
  40e513:	je     0x40e515
  40e515:	imul   eax,DWORD PTR [eax],0x690076
  40e51b:	je     0x40e51d
  40e51d:	jns    0x40e51f
  40e51f:	push   esp
  40e520:	add    BYTE PTR [ecx+0x0],ch
  40e523:	ins    DWORD PTR es:[edi],dx
  40e524:	add    BYTE PTR [ebp+0x0],ah
  40e527:	outs   dx,DWORD PTR ds:[esi]
  40e528:	add    BYTE PTR [ebp+0x0],dh
  40e52b:	je     0x40e52d
  40e52d:	add    BYTE PTR [edi+0x44],bl
  40e530:	add    BYTE PTR [ebx+0x0],al
  40e533:	dec    eax
  40e534:	add    BYTE PTR [edi+0x0],ch
  40e537:	jae    0x40e539
  40e539:	je     0x40e53b
  40e53b:	cmp    al,BYTE PTR [eax]
  40e53d:	dec    eax
  40e53e:	add    BYTE PTR [edi+0x0],ch
  40e541:	jae    0x40e543
  40e543:	je     0x40e545
  40e545:	and    BYTE PTR [eax],al
  40e547:	jae    0x40e549
  40e549:	je     0x40e54b
  40e54b:	popa   
  40e54c:	add    BYTE PTR [edx+0x0],dh
  40e54f:	je     0x40e551
  40e551:	add    BYTE PTR gs:[eax+eax*1+0x20],ah
  40e556:	add    BYTE PTR [edi+0x0],dh
  40e559:	imul   eax,DWORD PTR [eax],0x680074
  40e55f:	and    BYTE PTR [eax],al
  40e561:	imul   eax,DWORD PTR [eax],0x61006e
  40e567:	arpl   WORD PTR [eax],ax
  40e569:	je     0x40e56b
  40e56b:	imul   eax,DWORD PTR [eax],0x690076
  40e571:	je     0x40e573
  40e573:	jns    0x40e575
  40e575:	and    BYTE PTR [eax],al
  40e577:	je     0x40e579
  40e579:	imul   eax,DWORD PTR [eax],0x65006d
  40e57f:	outs   dx,DWORD PTR ds:[esi]
  40e580:	add    BYTE PTR [ebp+0x0],dh
  40e583:	je     0x40e585
  40e585:	and    BYTE PTR [eax],al
  40e587:	jnp    0x40e589
  40e589:	xor    BYTE PTR [eax],al
  40e58b:	jge    0x40e58d
  40e58d:	add    BYTE PTR ds:0x680053,ch
  40e593:	outs   dx,DWORD PTR ds:[esi]
  40e594:	add    BYTE PTR [edi+0x0],dh
  40e597:	push   esp
  40e598:	add    BYTE PTR [edi+0x0],ch
  40e59b:	popa   
  40e59c:	add    BYTE PTR [ebx+0x0],dh
  40e59f:	je     0x40e5a1
  40e5a1:	dec    esi
  40e5a2:	add    BYTE PTR [edi+0x0],ch
  40e5a5:	je     0x40e5a7
  40e5a7:	imul   eax,DWORD PTR [eax],0x690066
  40e5ad:	arpl   WORD PTR [eax],ax
  40e5af:	popa   
  40e5b0:	add    BYTE PTR [eax+eax*1+0x69],dh
  40e5b4:	add    BYTE PTR [edi+0x0],ch
  40e5b7:	outs   dx,BYTE PTR ds:[esi]
  40e5b8:	add    BYTE PTR [ebx+0x0],dh
  40e5bb:	add    BYTE PTR [edi],al
  40e5bd:	jns    0x40e5bf
  40e5bf:	add    BYTE PTR gs:[ebx+0x0],dh
  40e5c3:	add    BYTE PTR [ecx+0x4d],dl
  40e5c6:	add    BYTE PTR [ecx+0x0],ch
  40e5c9:	arpl   WORD PTR [eax],ax
  40e5cb:	jb     0x40e5cd
  40e5cd:	outs   dx,DWORD PTR ds:[esi]
  40e5ce:	add    BYTE PTR [ebx+0x0],dh
  40e5d1:	outs   dx,DWORD PTR ds:[esi]
  40e5d2:	add    BYTE PTR [esi+0x0],ah
  40e5d5:	je     0x40e5d7
  40e5d7:	add    BYTE PTR cs:[eax+eax*1+0x65],dl
  40e5dc:	add    BYTE PTR [ebx+0x0],dh
  40e5df:	je     0x40e5e1
  40e5e1:	push   esp
  40e5e2:	add    BYTE PTR [edi+0x0],ch
  40e5e5:	outs   dx,DWORD PTR ds:[esi]
  40e5e6:	add    BYTE PTR [eax+eax*1+0x73],ch
  40e5ea:	add    BYTE PTR [ecx+0x0],al
  40e5ed:	add    BYTE PTR fs:[ecx+0x0],ah
  40e5f1:	jo     0x40e5f3
  40e5f3:	je     0x40e5f5
  40e5f5:	add    BYTE PTR gs:[edx+0x0],dh
  40e5f9:	add    BYTE PTR cs:[ebx+0x0],al
  40e5fd:	outs   dx,DWORD PTR ds:[esi]
  40e5fe:	add    BYTE PTR [esi+0x0],ch
  40e601:	data16 add BYTE PTR [ecx+0x0],ch
  40e605:	add    BYTE PTR [di+0x0],dh
  40e609:	jb     0x40e60b
  40e60b:	popa   
  40e60c:	add    BYTE PTR [eax+eax*1+0x69],dh
  40e610:	add    BYTE PTR [edi+0x0],ch
  40e613:	outs   dx,BYTE PTR ds:[esi]
  40e614:	add    BYTE PTR [eax],al
  40e616:	or     bl,0x45
  40e619:	add    BYTE PTR [edx+0x0],dh
  40e61c:	jb     0x40e61e
  40e61e:	outs   dx,DWORD PTR ds:[esi]
  40e61f:	add    BYTE PTR [edx+0x0],dh
  40e622:	and    BYTE PTR [eax],al
  40e624:	outs   dx,DWORD PTR ds:[esi]
  40e625:	add    BYTE PTR [ebx+0x0],ah
  40e628:	arpl   WORD PTR [eax],ax
  40e62a:	jne    0x40e62c
  40e62c:	jb     0x40e62e
  40e62e:	add    BYTE PTR gs:[eax+eax*1+0x20],ah
  40e633:	add    BYTE PTR [edi+0x0],dh
  40e636:	push   0x6c006900
  40e63b:	add    BYTE PTR [ebp+0x0],ah
  40e63e:	and    BYTE PTR [eax],al
  40e640:	je     0x40e642
  40e642:	jb     0x40e644
  40e644:	jns    0x40e646
  40e646:	imul   eax,DWORD PTR [eax],0x67006e
  40e64c:	and    BYTE PTR [eax],al
  40e64e:	je     0x40e650
  40e650:	outs   dx,DWORD PTR ds:[esi]
  40e651:	add    BYTE PTR [eax],ah
  40e653:	add    BYTE PTR [ebx+0x0],dh
  40e656:	add    BYTE PTR gs:[eax+eax*1+0x20],dh
  40e65b:	add    BYTE PTR [eax+eax*1+0x68],dh
  40e65f:	add    BYTE PTR [ebp+0x0],ah
  40e662:	and    BYTE PTR [eax],al
  40e664:	popa   
  40e665:	add    BYTE PTR [eax+0x0],dh
  40e668:	jo     0x40e66a
  40e66a:	ins    BYTE PTR es:[edi],dx
  40e66b:	add    BYTE PTR [ecx+0x0],ch
  40e66e:	arpl   WORD PTR [eax],ax
  40e670:	popa   
  40e671:	add    BYTE PTR [eax+eax*1+0x69],dh
  40e675:	add    BYTE PTR [edi+0x0],ch
  40e678:	outs   dx,BYTE PTR ds:[esi]
  40e679:	add    BYTE PTR [eax],ah
  40e67b:	add    BYTE PTR [ecx+0x0],cl
  40e67e:	add    BYTE PTR fs:[esi],ch
  40e681:	add    BYTE PTR [eax],ah
  40e683:	add    BYTE PTR [esi+0x0],cl
  40e686:	outs   dx,DWORD PTR ds:[esi]
  40e687:	add    BYTE PTR [eax+eax*1+0x69],dh
  40e68b:	add    BYTE PTR [esi+0x0],ah
  40e68e:	imul   eax,DWORD PTR [eax],0x610063
  40e694:	je     0x40e696
  40e696:	imul   eax,DWORD PTR [eax],0x6e006f
  40e69c:	jae    0x40e69e
  40e69e:	and    BYTE PTR [eax],al
  40e6a0:	ja     0x40e6a2
  40e6a2:	imul   eax,DWORD PTR [eax],0x6c006c
  40e6a8:	and    BYTE PTR [eax],al
  40e6aa:	outs   dx,BYTE PTR ds:[esi]
  40e6ab:	add    BYTE PTR [edi+0x0],ch
  40e6ae:	je     0x40e6b0
  40e6b0:	and    BYTE PTR [eax],al
  40e6b2:	bound  eax,QWORD PTR [eax]
  40e6b4:	add    BYTE PTR gs:[eax],ah
  40e6b7:	add    BYTE PTR [edx+0x0],dh
  40e6ba:	popa   
  40e6bb:	add    BYTE PTR [ecx+0x0],ch
  40e6be:	jae    0x40e6c0
  40e6c0:	add    BYTE PTR gs:[eax+eax*1+0x2e],ah
  40e6c5:	add    BYTE PTR [eax],ah
  40e6c7:	add    BYTE PTR [ebp+0x0],al
  40e6ca:	js     0x40e6cc
  40e6cc:	arpl   WORD PTR [eax],ax
  40e6ce:	add    BYTE PTR gs:[eax+0x0],dh
  40e6d2:	je     0x40e6d4
  40e6d4:	imul   eax,DWORD PTR [eax],0x6e006f
  40e6da:	cmp    al,BYTE PTR [eax]
  40e6dc:	jnp    0x40e6de
  40e6de:	xor    BYTE PTR [eax],al
  40e6e0:	jge    0x40e6e2
  40e6e2:	add    BYTE PTR [ebx],ch
  40e6e4:	inc    esp
  40e6e5:	add    BYTE PTR [ebx+0x0],al
  40e6e8:	dec    eax
  40e6e9:	add    BYTE PTR [edi+0x0],ch
  40e6ec:	jae    0x40e6ee
  40e6ee:	je     0x40e6f0
  40e6f0:	add    BYTE PTR cs:[edi+0x0],cl
  40e6f4:	jo     0x40e6f6
  40e6f6:	add    BYTE PTR gs:[esi+0x0],ch
  40e6fa:	inc    ebx
  40e6fb:	add    BYTE PTR [edi+0x0],ch
  40e6fe:	outs   dx,BYTE PTR ds:[esi]
  40e6ff:	add    BYTE PTR [esi+0x0],ch
  40e702:	add    BYTE PTR gs:[ebx+0x0],ah
  40e706:	je     0x40e708
  40e708:	imul   eax,DWORD PTR [eax],0x6e006f
  40e70e:	add    BYTE PTR ds:0x430044,bh
  40e714:	dec    eax
  40e715:	add    BYTE PTR [edi+0x0],ch
  40e718:	jae    0x40e71a
  40e71a:	je     0x40e71c
  40e71c:	add    BYTE PTR cs:[edi+0x0],cl
  40e720:	jo     0x40e722
  40e722:	add    BYTE PTR gs:[esi+0x0],ch
  40e726:	inc    ebx
  40e727:	add    BYTE PTR [edi+0x0],ch
  40e72a:	outs   dx,BYTE PTR ds:[esi]
  40e72b:	add    BYTE PTR [esi+0x0],ch
  40e72e:	add    BYTE PTR gs:[ebx+0x0],ah
  40e732:	je     0x40e734
  40e734:	imul   eax,DWORD PTR [eax],0x6e006f
  40e73a:	cmp    al,BYTE PTR [eax]
  40e73c:	and    BYTE PTR [eax],al
  40e73e:	imul   eax,DWORD PTR [eax],0x76006e
  40e744:	outs   dx,DWORD PTR ds:[esi]
  40e745:	add    BYTE PTR [ebx+0x0],ch
  40e748:	add    BYTE PTR gs:[eax+eax*1+0x0],ah
  40e74d:	jne    0x40e793
  40e74f:	add    BYTE PTR [ebx+0x0],al
  40e752:	dec    eax
  40e753:	add    BYTE PTR [edi+0x0],ch
  40e756:	jae    0x40e758
  40e758:	je     0x40e75a
  40e75a:	add    BYTE PTR cs:[edi+0x0],cl
  40e75e:	jo     0x40e760
  40e760:	add    BYTE PTR gs:[esi+0x0],ch
  40e764:	inc    ebx
  40e765:	add    BYTE PTR [edi+0x0],ch
  40e768:	outs   dx,BYTE PTR ds:[esi]
  40e769:	add    BYTE PTR [esi+0x0],ch
  40e76c:	add    BYTE PTR gs:[ebx+0x0],ah
  40e770:	je     0x40e772
  40e772:	imul   eax,DWORD PTR [eax],0x6e006f
  40e778:	cmp    al,BYTE PTR [eax]
  40e77a:	and    BYTE PTR [eax],al
  40e77c:	push   ebp
  40e77d:	add    BYTE PTR [ebx+0x0],dh
  40e780:	add    BYTE PTR gs:[edx+0x0],dh
  40e784:	and    BYTE PTR [eax],al
  40e786:	jnp    0x40e788
  40e788:	xor    BYTE PTR [eax],al
  40e78a:	jge    0x40e78c
  40e78c:	sub    al,0x0
  40e78e:	and    BYTE PTR [eax],al
  40e790:	inc    ebx
  40e791:	add    BYTE PTR [eax+eax*1+0x69],ch
  40e795:	add    BYTE PTR [ebp+0x0],ah
  40e798:	outs   dx,BYTE PTR ds:[esi]
  40e799:	add    BYTE PTR [eax+eax*1+0x20],dh
  40e79d:	add    BYTE PTR [ebx+0x0],bh
  40e7a0:	xor    DWORD PTR [eax],eax
  40e7a2:	jge    0x40e7a4
  40e7a4:	sub    al,0x0
  40e7a6:	and    BYTE PTR [eax],al
  40e7a8:	push   ebx
  40e7a9:	add    BYTE PTR [ebp+0x0],ah
  40e7ac:	jae    0x40e7ae
  40e7ae:	jae    0x40e7b0
  40e7b0:	imul   eax,DWORD PTR [eax],0x6e006f
  40e7b6:	dec    ecx
  40e7b7:	add    BYTE PTR [eax+eax*1+0x20],al
  40e7bb:	add    BYTE PTR [ebx+0x0],bh
  40e7be:	xor    al,BYTE PTR [eax]
  40e7c0:	jge    0x40e7c2
  40e7c2:	add    BYTE PTR [eax+0x43004485],al
  40e7c8:	add    BYTE PTR [eax+0x0],cl
  40e7cb:	outs   dx,DWORD PTR ds:[esi]
  40e7cc:	add    BYTE PTR [ebx+0x0],dh
  40e7cf:	je     0x40e7d1
  40e7d1:	add    BYTE PTR cs:[edi+0x0],cl
  40e7d5:	jo     0x40e7d7
  40e7d7:	add    BYTE PTR gs:[esi+0x0],ch
  40e7db:	inc    ebx
  40e7dc:	add    BYTE PTR [edi+0x0],ch
  40e7df:	outs   dx,BYTE PTR ds:[esi]
  40e7e0:	add    BYTE PTR [esi+0x0],ch
  40e7e3:	add    BYTE PTR gs:[ebx+0x0],ah
  40e7e7:	je     0x40e7e9
  40e7e9:	imul   eax,DWORD PTR [eax],0x6e006f
  40e7ef:	cmp    al,BYTE PTR [eax]
  40e7f1:	and    BYTE PTR [eax],al
  40e7f3:	inc    ebx
  40e7f4:	add    BYTE PTR [eax+eax*1+0x69],ch
  40e7f8:	add    BYTE PTR [ebp+0x0],ah
  40e7fb:	outs   dx,BYTE PTR ds:[esi]
  40e7fc:	add    BYTE PTR [eax+eax*1+0x20],dh
  40e800:	add    BYTE PTR [ebx+0x0],bh
  40e803:	xor    BYTE PTR [eax],al
  40e805:	jge    0x40e807
  40e807:	and    BYTE PTR [eax],al
  40e809:	je     0x40e80b
  40e80b:	jb     0x40e80d
  40e80d:	jns    0x40e80f
  40e80f:	imul   eax,DWORD PTR [eax],0x67006e
  40e815:	and    BYTE PTR [eax],al
  40e817:	je     0x40e819
  40e819:	outs   dx,DWORD PTR ds:[esi]
  40e81a:	add    BYTE PTR [eax],ah
  40e81c:	add    BYTE PTR [edx+0x0],dh
  40e81f:	add    BYTE PTR gs:[ebx+0x0],dh
  40e823:	je     0x40e825
  40e825:	popa   
  40e826:	add    BYTE PTR [edx+0x0],ah
  40e829:	ins    BYTE PTR es:[edi],dx
  40e82a:	add    BYTE PTR [ecx+0x0],ch
  40e82d:	jae    0x40e82f
  40e82f:	push   0x73002000
  40e834:	add    BYTE PTR [ebp+0x0],ah
  40e837:	jae    0x40e839
  40e839:	jae    0x40e83b
  40e83b:	imul   eax,DWORD PTR [eax],0x6e006f
  40e841:	and    BYTE PTR [eax],al
  40e843:	jnp    0x40e845
  40e845:	xor    DWORD PTR [eax],eax
  40e847:	jge    0x40e849
  40e849:	add    BYTE PTR [eax+0x430044af],al
  40e84f:	add    BYTE PTR [eax+0x0],cl
  40e852:	outs   dx,DWORD PTR ds:[esi]
  40e853:	add    BYTE PTR [ebx+0x0],dh
  40e856:	je     0x40e858
  40e858:	add    BYTE PTR cs:[edi+0x0],cl
  40e85c:	jo     0x40e85e
  40e85e:	add    BYTE PTR gs:[esi+0x0],ch
  40e862:	inc    ebx
  40e863:	add    BYTE PTR [edi+0x0],ch
  40e866:	outs   dx,BYTE PTR ds:[esi]
  40e867:	add    BYTE PTR [esi+0x0],ch
  40e86a:	add    BYTE PTR gs:[ebx+0x0],ah
  40e86e:	je     0x40e870
  40e870:	imul   eax,DWORD PTR [eax],0x6e006f
  40e876:	cmp    al,BYTE PTR [eax]
  40e878:	and    BYTE PTR [eax],al
  40e87a:	inc    ecx
  40e87b:	add    BYTE PTR [edx+0x0],ah
  40e87e:	outs   dx,DWORD PTR ds:[esi]
  40e87f:	add    BYTE PTR [edx+0x0],dh
  40e882:	je     0x40e884
  40e884:	imul   eax,DWORD PTR [eax],0x67006e
  40e88a:	and    BYTE PTR [eax],al
  40e88c:	add    BYTE PTR gs:[eax+0x0],bh
  40e890:	imul   eax,DWORD PTR [eax],0x740073
  40e896:	imul   eax,DWORD PTR [eax],0x67006e
  40e89c:	and    BYTE PTR [eax],al
  40e89e:	jae    0x40e8a0
  40e8a0:	add    BYTE PTR gs:[ebx+0x0],dh
  40e8a4:	jae    0x40e8a6
  40e8a6:	imul   eax,DWORD PTR [eax],0x6e006f
  40e8ac:	and    BYTE PTR [eax],al
  40e8ae:	je     0x40e8b0
  40e8b0:	outs   dx,DWORD PTR ds:[esi]
  40e8b1:	add    BYTE PTR [eax],ah
  40e8b3:	add    BYTE PTR [ebp+0x0],ah
  40e8b6:	jae    0x40e8b8
  40e8b8:	je     0x40e8ba
  40e8ba:	popa   
  40e8bb:	add    BYTE PTR [edx+0x0],ah
  40e8be:	ins    BYTE PTR es:[edi],dx
  40e8bf:	add    BYTE PTR [ecx+0x0],ch
  40e8c2:	jae    0x40e8c4
  40e8c4:	push   0x61002000
  40e8c9:	add    BYTE PTR [eax],ah
  40e8cb:	add    BYTE PTR [esi+0x0],ch
  40e8ce:	add    BYTE PTR gs:[edi+0x0],dh
  40e8d2:	and    BYTE PTR [eax],al
  40e8d4:	outs   dx,DWORD PTR ds:[esi]
  40e8d5:	add    BYTE PTR [esi+0x0],ch
  40e8d8:	add    BYTE PTR gs:[eax],ah
  40e8db:	add    BYTE PTR [esi+0x0],ah
  40e8de:	outs   dx,DWORD PTR ds:[esi]
  40e8df:	add    BYTE PTR [edx+0x0],dh
  40e8e2:	and    BYTE PTR [eax],al
  40e8e4:	jae    0x40e8e6
  40e8e6:	popa   
  40e8e7:	add    BYTE PTR [ebp+0x0],ch
  40e8ea:	add    BYTE PTR gs:[eax],ah
  40e8ed:	add    BYTE PTR [ebx+0x0],ah
  40e8f0:	ins    BYTE PTR es:[edi],dx
  40e8f1:	add    BYTE PTR [ecx+0x0],ch
  40e8f4:	add    BYTE PTR gs:[esi+0x0],ch
  40e8f8:	je     0x40e8fa
  40e8fa:	add    BYTE PTR [ecx+0x44],dh
  40e8fd:	add    BYTE PTR [ebx+0x0],al
  40e900:	dec    ebp
  40e901:	add    BYTE PTR [ecx+0x0],ah
  40e904:	outs   dx,BYTE PTR ds:[esi]
  40e905:	add    BYTE PTR [ecx+0x0],ah
  40e908:	add    BYTE PTR [di+0x0],ah
  40e90c:	jb     0x40e90e
  40e90e:	add    BYTE PTR cs:[edi+0x0],cl
  40e912:	jo     0x40e914
  40e914:	add    BYTE PTR gs:[esi+0x0],ch
  40e918:	dec    eax
  40e919:	add    BYTE PTR [edi+0x0],ch
  40e91c:	jae    0x40e91e
  40e91e:	je     0x40e920
  40e920:	inc    ebx
  40e921:	add    BYTE PTR [edi+0x0],ch
  40e924:	outs   dx,BYTE PTR ds:[esi]
  40e925:	add    BYTE PTR [esi+0x0],ch
  40e928:	add    BYTE PTR gs:[ebx+0x0],ah
  40e92c:	je     0x40e92e
  40e92e:	imul   eax,DWORD PTR [eax],0x6e006f
  40e934:	sub    BYTE PTR [eax],al
  40e936:	sub    DWORD PTR [eax],eax
  40e938:	sub    eax,0x45002000
  40e93d:	add    BYTE PTR [edx+0x0],dh
  40e940:	jb     0x40e942
  40e942:	outs   dx,DWORD PTR ds:[esi]
  40e943:	add    BYTE PTR [edx+0x0],dh
  40e946:	and    BYTE PTR [eax],al
  40e948:	arpl   WORD PTR [eax],ax
  40e94a:	popa   
  40e94b:	add    BYTE PTR [eax+eax*1+0x6c],ch
  40e94f:	add    BYTE PTR [ecx+0x0],ch
  40e952:	outs   dx,BYTE PTR ds:[esi]
  40e953:	add    BYTE PTR [edi+0x0],ah
  40e956:	and    BYTE PTR [eax],al
  40e958:	inc    ebp
  40e959:	add    BYTE PTR [esi+0x0],ch
  40e95c:	add    BYTE PTR fs:[ebx+0x0],dl
  40e960:	add    BYTE PTR gs:[ebx+0x0],dh
  40e964:	jae    0x40e966
  40e966:	imul   eax,DWORD PTR [eax],0x6e006f
  40e96c:	add    DWORD PTR [eax+0x4300449d],eax
  40e972:	add    BYTE PTR [eax+0x0],cl
  40e975:	outs   dx,DWORD PTR ds:[esi]
  40e976:	add    BYTE PTR [ebx+0x0],dh
  40e979:	je     0x40e97b
  40e97b:	add    BYTE PTR cs:[edi+0x0],cl
  40e97f:	jo     0x40e981
  40e981:	add    BYTE PTR gs:[esi+0x0],ch
  40e985:	inc    ebx
  40e986:	add    BYTE PTR [edi+0x0],ch
  40e989:	outs   dx,BYTE PTR ds:[esi]
  40e98a:	add    BYTE PTR [esi+0x0],ch
  40e98d:	add    BYTE PTR gs:[ebx+0x0],ah
  40e991:	je     0x40e993
  40e993:	imul   eax,DWORD PTR [eax],0x6e006f
  40e999:	cmp    al,BYTE PTR [eax]
  40e99b:	and    BYTE PTR [eax],al
  40e99d:	push   ebx
  40e99e:	add    BYTE PTR [edi+0x0],ch
  40e9a1:	ins    DWORD PTR es:[edi],dx
  40e9a2:	add    BYTE PTR [ebp+0x0],ah
  40e9a5:	and    BYTE PTR [eax],al
  40e9a7:	inc    ebx
  40e9a8:	add    BYTE PTR [eax+eax*1+0x69],ch
  40e9ac:	add    BYTE PTR [ebp+0x0],ah
  40e9af:	outs   dx,BYTE PTR ds:[esi]
  40e9b0:	add    BYTE PTR [eax+eax*1+0x20],dh
  40e9b4:	add    BYTE PTR [ebx+0x0],bh
  40e9b7:	xor    BYTE PTR [eax],al
  40e9b9:	jge    0x40e9bb
  40e9bb:	and    BYTE PTR [eax],al
  40e9bd:	imul   eax,DWORD PTR [eax],0x200073
  40e9c3:	je     0x40e9c5
  40e9c5:	jb     0x40e9c7
  40e9c7:	jns    0x40e9c9
  40e9c9:	imul   eax,DWORD PTR [eax],0x67006e
  40e9cf:	and    BYTE PTR [eax],al
  40e9d1:	je     0x40e9d3
  40e9d3:	outs   dx,DWORD PTR ds:[esi]
  40e9d4:	add    BYTE PTR [eax],ah
  40e9d6:	add    BYTE PTR [eax+0x0],ch
  40e9d9:	imul   eax,DWORD PTR [eax],0x61006a
  40e9df:	arpl   WORD PTR [eax],ax
  40e9e1:	imul   eax,DWORD PTR [eax],0x20
  40e9e4:	add    BYTE PTR [ebp+0x0],ah
  40e9e7:	js     0x40e9e9
  40e9e9:	imul   eax,DWORD PTR [eax],0x740073
  40e9ef:	imul   eax,DWORD PTR [eax],0x67006e
  40e9f5:	and    BYTE PTR [eax],al
  40e9f7:	arpl   WORD PTR [eax],ax
  40e9f9:	ins    BYTE PTR es:[edi],dx
  40e9fa:	add    BYTE PTR [ecx+0x0],ch
  40e9fd:	add    BYTE PTR gs:[esi+0x0],ch
  40ea01:	je     0x40ea03
  40ea03:	and    BYTE PTR [eax],al
  40ea05:	jnp    0x40ea07
  40ea07:	xor    DWORD PTR [eax],eax
  40ea09:	jge    0x40ea0b
  40ea0b:	add    BYTE PTR [ebx],dh
  40ea0d:	inc    ebx
  40ea0e:	add    BYTE PTR [edi+0x0],ch
  40ea11:	outs   dx,BYTE PTR ds:[esi]
  40ea12:	add    BYTE PTR [esi+0x0],ch
  40ea15:	add    BYTE PTR gs:[ebx+0x0],ah
  40ea19:	je     0x40ea1b
  40ea1b:	add    BYTE PTR gs:[eax+eax*1+0x20],ah
  40ea20:	add    BYTE PTR [eax+eax*1+0x6f],dh
  40ea24:	add    BYTE PTR [eax],ah
  40ea26:	add    BYTE PTR [ebx+0x0],ah
  40ea29:	ins    BYTE PTR es:[edi],dx
  40ea2a:	add    BYTE PTR [ecx+0x0],ch
  40ea2d:	add    BYTE PTR gs:[esi+0x0],ch
  40ea31:	je     0x40ea33
  40ea33:	and    BYTE PTR [eax],al
  40ea35:	cmp    al,BYTE PTR [eax]
  40ea37:	and    BYTE PTR [eax],al
  40ea39:	jnp    0x40ea3b
  40ea3b:	xor    BYTE PTR [eax],al
  40ea3d:	jge    0x40ea3f
  40ea3f:	add    BYTE PTR [ebx],ah
  40ea41:	inc    esp
  40ea42:	add    BYTE PTR [ebx+0x0],al
  40ea45:	dec    eax
  40ea46:	add    BYTE PTR [edi+0x0],ch
  40ea49:	jae    0x40ea4b
  40ea4b:	je     0x40ea4d
  40ea4d:	add    BYTE PTR cs:[ebp+0x0],al
  40ea51:	outs   dx,BYTE PTR ds:[esi]
  40ea52:	add    BYTE PTR [eax+eax*1+0x53],ah
  40ea56:	add    BYTE PTR [ebp+0x0],ah
  40ea59:	jae    0x40ea5b
  40ea5b:	jae    0x40ea5d
  40ea5d:	imul   eax,DWORD PTR [eax],0x6e006f
  40ea63:	add    BYTE PTR [edi],dh
  40ea65:	inc    esp
  40ea66:	add    BYTE PTR [ebx+0x0],al
  40ea69:	dec    eax
  40ea6a:	add    BYTE PTR [edi+0x0],ch
  40ea6d:	jae    0x40ea6f
  40ea6f:	je     0x40ea71
  40ea71:	and    BYTE PTR [eax],al
  40ea73:	cmp    al,BYTE PTR [eax]
  40ea75:	and    BYTE PTR [eax],al
  40ea77:	inc    ebp
  40ea78:	add    BYTE PTR [esi+0x0],ch
  40ea7b:	add    BYTE PTR fs:[ebx+0x0],dl
  40ea7f:	add    BYTE PTR gs:[ebx+0x0],dh
  40ea83:	jae    0x40ea85
  40ea85:	imul   eax,DWORD PTR [eax],0x6e006f
  40ea8b:	and    BYTE PTR [eax],al
  40ea8d:	imul   eax,DWORD PTR [eax],0x76006e
  40ea93:	outs   dx,DWORD PTR ds:[esi]
  40ea94:	add    BYTE PTR [ebx+0x0],ch
  40ea97:	add    BYTE PTR gs:[eax+eax*1+0x0],ah
  40ea9c:	inc    ecx
  40ea9d:	push   ebx
  40ea9e:	add    BYTE PTR [ebp+0x0],dh
  40eaa1:	arpl   WORD PTR [eax],ax
  40eaa3:	arpl   WORD PTR [eax],ax
  40eaa5:	add    BYTE PTR gs:[ebx+0x0],dh
  40eaa9:	jae    0x40eaab
  40eaab:	data16 add BYTE PTR [ebp+0x0],dh
  40eaaf:	ins    BYTE PTR es:[edi],dx
  40eab0:	add    BYTE PTR [eax+eax*1+0x79],ch
  40eab4:	add    BYTE PTR [eax],ah
  40eab6:	add    BYTE PTR [esi+0x0],dh
  40eab9:	popa   
  40eaba:	add    BYTE PTR [eax+eax*1+0x69],ch
  40eabe:	add    BYTE PTR [eax+eax*1+0x61],ah
  40eac2:	add    BYTE PTR [eax+eax*1+0x65],dh
  40eac6:	add    BYTE PTR [eax+eax*1+0x20],ah
  40eaca:	add    BYTE PTR [ebp+0x0],dh
  40eacd:	jae    0x40eacf
  40eacf:	add    BYTE PTR gs:[edx+0x0],dh
  40ead3:	and    BYTE PTR [eax],al
  40ead5:	jnp    0x40ead7
  40ead7:	xor    BYTE PTR [eax],al
  40ead9:	jge    0x40eadb
  40eadb:	add    BYTE PTR cs:[eax],al
  40eade:	cmp    DWORD PTR [eax+eax*1+0x43],eax
  40eae2:	add    BYTE PTR [eax+0x0],cl
  40eae5:	outs   dx,DWORD PTR ds:[esi]
  40eae6:	add    BYTE PTR [ebx+0x0],dh
  40eae9:	je     0x40eaeb
  40eaeb:	and    BYTE PTR [eax],al
  40eaed:	cmp    al,BYTE PTR [eax]
  40eaef:	and    BYTE PTR [eax],al
  40eaf1:	inc    ebp
  40eaf2:	add    BYTE PTR [esi+0x0],ch
  40eaf5:	add    BYTE PTR fs:[ebx+0x0],dl
  40eaf9:	add    BYTE PTR gs:[ebx+0x0],dh
  40eafd:	jae    0x40eaff
  40eaff:	imul   eax,DWORD PTR [eax],0x6e006f
  40eb05:	and    BYTE PTR [eax],al
  40eb07:	arpl   WORD PTR [eax],ax
  40eb09:	outs   dx,DWORD PTR ds:[esi]
  40eb0a:	add    BYTE PTR [ebp+0x0],ch
  40eb0d:	jo     0x40eb0f
  40eb0f:	ins    BYTE PTR es:[edi],dx
  40eb10:	add    BYTE PTR [ebp+0x0],ah
  40eb13:	je     0x40eb15
  40eb15:	add    BYTE PTR gs:[eax],al
  40eb18:	cmp    eax,0x430044
  40eb1d:	dec    eax
  40eb1e:	add    BYTE PTR [edi+0x0],ch
  40eb21:	jae    0x40eb23
  40eb23:	je     0x40eb25
  40eb25:	add    BYTE PTR cs:[eax+eax*1+0x65],dl
  40eb2a:	add    BYTE PTR [ebx+0x0],dh
  40eb2d:	je     0x40eb2f
  40eb2f:	inc    ebx
  40eb30:	add    BYTE PTR [edi+0x0],ch
  40eb33:	outs   dx,BYTE PTR ds:[esi]
  40eb34:	add    BYTE PTR [esi+0x0],ch
  40eb37:	add    BYTE PTR gs:[ebx+0x0],ah
  40eb3b:	je     0x40eb3d
  40eb3d:	imul   eax,DWORD PTR [eax],0x6e006f
  40eb43:	cmp    al,BYTE PTR [eax]
  40eb45:	and    BYTE PTR [eax],al
  40eb47:	imul   eax,DWORD PTR [eax],0x76006e
  40eb4d:	outs   dx,DWORD PTR ds:[esi]
  40eb4e:	add    BYTE PTR [ebx+0x0],ch
  40eb51:	add    BYTE PTR gs:[eax+eax*1+0x0],ah
  40eb56:	xor    DWORD PTR [eax+eax*1+0x43],eax
  40eb5a:	add    BYTE PTR [eax+0x0],cl
  40eb5d:	outs   dx,DWORD PTR ds:[esi]
  40eb5e:	add    BYTE PTR [ebx+0x0],dh
  40eb61:	je     0x40eb63
  40eb63:	add    BYTE PTR cs:[ecx+0x0],cl
  40eb67:	outs   dx,BYTE PTR ds:[esi]
  40eb68:	add    BYTE PTR [ecx+0x0],ch
  40eb6b:	je     0x40eb6d
  40eb6d:	imul   eax,DWORD PTR [eax],0x6c0061
  40eb73:	imul   eax,DWORD PTR [eax],0x65007a
  40eb79:	push   ebx
  40eb7a:	add    BYTE PTR [ebp+0x0],ah
  40eb7d:	jae    0x40eb7f
  40eb7f:	jae    0x40eb81
  40eb81:	imul   eax,DWORD PTR [eax],0x6e006f
  40eb87:	add    BYTE PTR [ebp+0x44],bl
  40eb8a:	add    BYTE PTR [ebx+0x0],al
  40eb8d:	dec    eax
  40eb8e:	add    BYTE PTR [edi+0x0],ch
  40eb91:	jae    0x40eb93
  40eb93:	je     0x40eb95
  40eb95:	add    BYTE PTR cs:[ecx+0x0],cl
  40eb99:	outs   dx,BYTE PTR ds:[esi]
  40eb9a:	add    BYTE PTR [ecx+0x0],ch
  40eb9d:	je     0x40eb9f
  40eb9f:	imul   eax,DWORD PTR [eax],0x6c0061
  40eba5:	imul   eax,DWORD PTR [eax],0x65007a
  40ebab:	push   ebx
  40ebac:	add    BYTE PTR [ebp+0x0],ah
  40ebaf:	jae    0x40ebb1
  40ebb1:	jae    0x40ebb3
  40ebb3:	imul   eax,DWORD PTR [eax],0x6e006f
  40ebb9:	cmp    al,BYTE PTR [eax]
  40ebbb:	and    BYTE PTR [eax],al
  40ebbd:	push   ebp
  40ebbe:	add    BYTE PTR [ebx+0x0],dh
  40ebc1:	add    BYTE PTR gs:[edx+0x0],dh
  40ebc5:	and    BYTE PTR [eax],al
  40ebc7:	jnp    0x40ebc9
  40ebc9:	xor    BYTE PTR [eax],al
  40ebcb:	jge    0x40ebcd
  40ebcd:	sub    al,0x0
  40ebcf:	and    BYTE PTR [eax],al
  40ebd1:	inc    ebx
  40ebd2:	add    BYTE PTR [eax+eax*1+0x69],ch
  40ebd6:	add    BYTE PTR [ebp+0x0],ah
  40ebd9:	outs   dx,BYTE PTR ds:[esi]
  40ebda:	add    BYTE PTR [eax+eax*1+0x20],dh
  40ebde:	add    BYTE PTR [ebx+0x0],bh
  40ebe1:	xor    DWORD PTR [eax],eax
  40ebe3:	jge    0x40ebe5
  40ebe5:	add    BYTE PTR [ebx],ah
  40ebe7:	inc    esp
  40ebe8:	add    BYTE PTR [ebx+0x0],al
  40ebeb:	dec    eax
  40ebec:	add    BYTE PTR [edi+0x0],ch
  40ebef:	jae    0x40ebf1
  40ebf1:	je     0x40ebf3
  40ebf3:	add    BYTE PTR cs:[edx+0x0],dl
  40ebf7:	popa   
  40ebf8:	add    BYTE PTR [ecx+0x0],ch
  40ebfb:	jae    0x40ebfd
  40ebfd:	add    BYTE PTR gs:[ebp+0x0],al
  40ec01:	jbe    0x40ec03
  40ec03:	add    BYTE PTR gs:[esi+0x0],ch
  40ec07:	je     0x40ec09
  40ec09:	add    BYTE PTR [edi+0x44],cl
  40ec0c:	add    BYTE PTR [ebx+0x0],al
  40ec0f:	dec    eax
  40ec10:	add    BYTE PTR [edi+0x0],ch
  40ec13:	jae    0x40ec15
  40ec15:	je     0x40ec17
  40ec17:	and    BYTE PTR [eax],al
  40ec19:	cmp    al,BYTE PTR [eax]
  40ec1b:	and    BYTE PTR [eax],al
  40ec1d:	push   edx
  40ec1e:	add    BYTE PTR [ecx+0x0],ah
  40ec21:	imul   eax,DWORD PTR [eax],0x650073
  40ec27:	inc    ebp
  40ec28:	add    BYTE PTR [esi+0x0],dh
  40ec2b:	add    BYTE PTR gs:[esi+0x0],ch
  40ec2f:	je     0x40ec31
  40ec31:	push   esp
  40ec32:	add    BYTE PTR [edi+0x0],ch
  40ec35:	inc    ebx
  40ec36:	add    BYTE PTR [edi+0x0],ch
  40ec39:	ins    BYTE PTR es:[edi],dx
  40ec3a:	add    BYTE PTR [eax+eax*1+0x65],ch
  40ec3e:	add    BYTE PTR [ebx+0x0],ah
  40ec41:	je     0x40ec43
  40ec43:	outs   dx,DWORD PTR ds:[esi]
  40ec44:	add    BYTE PTR [edx+0x0],dh
  40ec47:	jae    0x40ec49
  40ec49:	and    BYTE PTR [eax],al
  40ec4b:	imul   eax,DWORD PTR [eax],0x76006e
  40ec51:	outs   dx,DWORD PTR ds:[esi]
  40ec52:	add    BYTE PTR [ebx+0x0],ch
  40ec55:	add    BYTE PTR gs:[eax+eax*1+0x0],ah
  40ec5a:	sub    DWORD PTR [esi+0x0],edx
  40ec5d:	popa   
  40ec5e:	add    BYTE PTR [eax+eax*1+0x69],ch
  40ec62:	add    BYTE PTR [eax+eax*1+0x61],ah
  40ec66:	add    BYTE PTR [eax+eax*1+0x69],dh
  40ec6a:	add    BYTE PTR [esi+0x0],ch
  40ec6d:	add    BYTE PTR [bx+si],ah
  40ec70:	add    BYTE PTR [ebp+0x0],dh
  40ec73:	jae    0x40ec75
  40ec75:	add    BYTE PTR gs:[edx+0x0],dh
  40ec79:	and    BYTE PTR [eax],al
  40ec7b:	jnp    0x40ec7d
  40ec7d:	xor    BYTE PTR [eax],al
  40ec7f:	jge    0x40ec81
  40ec81:	add    BYTE PTR cs:[eax],al
  40ec84:	xor    DWORD PTR [eax+eax*1+0x43],eax
  40ec88:	add    BYTE PTR [eax+0x0],cl
  40ec8b:	outs   dx,DWORD PTR ds:[esi]
  40ec8c:	add    BYTE PTR [ebx+0x0],dh
  40ec8f:	je     0x40ec91
  40ec91:	add    BYTE PTR cs:[edx+0x0],dl
  40ec95:	popa   
  40ec96:	add    BYTE PTR [ecx+0x0],ch
  40ec99:	jae    0x40ec9b
  40ec9b:	add    BYTE PTR gs:[ebp+0x0],al
  40ec9f:	jbe    0x40eca1
  40eca1:	add    BYTE PTR gs:[esi+0x0],ch
  40eca5:	je     0x40eca7
  40eca7:	inc    ecx
  40eca8:	add    BYTE PTR [eax+eax*1+0x4c],dh
  40ecac:	add    BYTE PTR [ebp+0x0],ah
  40ecaf:	jbe    0x40ecb1
  40ecb1:	add    BYTE PTR gs:[eax+eax*1+0x0],ch
  40ecb6:	inc    ecx
  40ecb7:	inc    esp
  40ecb8:	add    BYTE PTR [ebx+0x0],al
  40ecbb:	dec    eax
  40ecbc:	add    BYTE PTR [edi+0x0],ch
  40ecbf:	jae    0x40ecc1
  40ecc1:	je     0x40ecc3
  40ecc3:	add    BYTE PTR cs:[ecx+0x0],al
  40ecc7:	add    BYTE PTR fs:[eax+eax*1+0x52],ah
  40eccc:	add    BYTE PTR [ebp+0x0],ah
  40eccf:	jae    0x40ecd1
  40ecd1:	jne    0x40ecd3
  40ecd3:	ins    BYTE PTR es:[edi],dx
  40ecd4:	add    BYTE PTR [eax+eax*1+0x3a],dh
  40ecd8:	add    BYTE PTR [eax],ah
  40ecda:	add    BYTE PTR [ecx+0x0],dl
  40ecdd:	jne    0x40ecdf
  40ecdf:	add    BYTE PTR gs:[ebp+0x0],dh
  40ece3:	add    BYTE PTR gs:[ecx+0x0],ch
  40ece7:	outs   dx,BYTE PTR ds:[esi]
  40ece8:	add    BYTE PTR [edi+0x0],ah
  40eceb:	and    BYTE PTR [eax],al
  40eced:	jne    0x40ecef
  40ecef:	jo     0x40ecf1
  40ecf1:	and    BYTE PTR [eax],al
  40ecf3:	popa   
  40ecf4:	add    BYTE PTR [eax],ah
  40ecf6:	add    BYTE PTR [eax],al
  40ecf8:	jge    0x40ed3e
  40ecfa:	add    BYTE PTR [ebx+0x0],al
  40ecfd:	dec    eax
  40ecfe:	add    BYTE PTR [edi+0x0],ch
  40ed01:	jae    0x40ed03
  40ed03:	je     0x40ed05
  40ed05:	add    BYTE PTR cs:[ecx+0x0],al
  40ed09:	add    BYTE PTR fs:[eax+eax*1+0x52],ah
  40ed0e:	add    BYTE PTR [ebp+0x0],ah
  40ed11:	jae    0x40ed13
  40ed13:	jne    0x40ed15
  40ed15:	ins    BYTE PTR es:[edi],dx
  40ed16:	add    BYTE PTR [eax+eax*1+0x3a],dh
  40ed1a:	add    BYTE PTR [eax],ah
  40ed1c:	add    BYTE PTR [eax+eax*1+0x6f],cl
  40ed20:	add    BYTE PTR [ebx+0x0],dh
  40ed23:	je     0x40ed25
  40ed25:	and    BYTE PTR [eax],al
  40ed27:	arpl   WORD PTR [eax],ax
  40ed29:	outs   dx,DWORD PTR ds:[esi]
  40ed2a:	add    BYTE PTR [esi+0x0],ch
  40ed2d:	outs   dx,BYTE PTR ds:[esi]
  40ed2e:	add    BYTE PTR [ebp+0x0],ah
  40ed31:	arpl   WORD PTR [eax],ax
  40ed33:	je     0x40ed35
  40ed35:	imul   eax,DWORD PTR [eax],0x6e006f
  40ed3b:	and    BYTE PTR [eax],al
  40ed3d:	je     0x40ed3f
  40ed3f:	outs   dx,DWORD PTR ds:[esi]
  40ed40:	add    BYTE PTR [eax],ah
  40ed42:	add    BYTE PTR [ebx+0x0],ah
  40ed45:	ins    BYTE PTR es:[edi],dx
  40ed46:	add    BYTE PTR [ecx+0x0],ch
  40ed49:	add    BYTE PTR gs:[esi+0x0],ch
  40ed4d:	je     0x40ed4f
  40ed4f:	add    BYTE PTR cs:[eax],ah
  40ed52:	add    BYTE PTR [eax+eax*1+0x72],al
  40ed56:	add    BYTE PTR [edi+0x0],ch
  40ed59:	jo     0x40ed5b
  40ed5b:	jo     0x40ed5d
  40ed5d:	imul   eax,DWORD PTR [eax],0x67006e
  40ed63:	and    BYTE PTR [eax],al
  40ed65:	ins    DWORD PTR es:[edi],dx
  40ed66:	add    BYTE PTR [ebp+0x0],ah
  40ed69:	jae    0x40ed6b
  40ed6b:	jae    0x40ed6d
  40ed6d:	popa   
  40ed6e:	add    BYTE PTR [edi+0x0],ah
  40ed71:	add    BYTE PTR gs:[ecx],ah
  40ed74:	add    BYTE PTR [eax],al
  40ed76:	ins    DWORD PTR es:[edi],dx
  40ed77:	inc    esp
  40ed78:	add    BYTE PTR [ebx+0x0],al
  40ed7b:	dec    eax
  40ed7c:	add    BYTE PTR [edi+0x0],ch
  40ed7f:	jae    0x40ed81
  40ed81:	je     0x40ed83
  40ed83:	add    BYTE PTR cs:[ecx+0x0],al
  40ed87:	add    BYTE PTR fs:[eax+eax*1+0x52],ah
  40ed8c:	add    BYTE PTR [ebp+0x0],ah
  40ed8f:	jae    0x40ed91
  40ed91:	jne    0x40ed93
  40ed93:	ins    BYTE PTR es:[edi],dx
  40ed94:	add    BYTE PTR [eax+eax*1+0x3a],dh
  40ed98:	add    BYTE PTR [eax],ah
  40ed9a:	add    BYTE PTR [esi+0x0],al
  40ed9d:	popa   
  40ed9e:	add    BYTE PTR [ecx+0x0],ch
  40eda1:	ins    BYTE PTR es:[edi],dx
  40eda2:	add    BYTE PTR [ebp+0x0],ah
  40eda5:	add    BYTE PTR fs:[eax],ah
  40eda8:	add    BYTE PTR [eax+eax*1+0x6f],dh
  40edac:	add    BYTE PTR [eax],ah
  40edae:	add    BYTE PTR [ebx+0x0],dh
  40edb1:	add    BYTE PTR gs:[edx+0x0],dh
  40edb5:	imul   eax,DWORD PTR [eax],0x6c0061
  40edbb:	imul   eax,DWORD PTR [eax],0x65007a
  40edc1:	and    BYTE PTR [eax],al
  40edc3:	jnp    0x40edc5
  40edc5:	xor    BYTE PTR [eax],al
  40edc7:	jge    0x40edc9
  40edc9:	add    BYTE PTR cs:[eax],ah
  40edcc:	add    BYTE PTR [eax+eax*1+0x72],al
  40edd0:	add    BYTE PTR [edi+0x0],ch
  40edd3:	jo     0x40edd5
  40edd5:	jo     0x40edd7
  40edd7:	imul   eax,DWORD PTR [eax],0x67006e
  40eddd:	and    BYTE PTR [eax],al
  40eddf:	imul   eax,DWORD PTR [eax],0x6b000074
  40ede5:	inc    esp
  40ede6:	add    BYTE PTR [ebx+0x0],al
  40ede9:	dec    eax
  40edea:	add    BYTE PTR [edi+0x0],ch
  40eded:	jae    0x40edef
  40edef:	je     0x40edf1
  40edf1:	add    BYTE PTR cs:[ecx+0x0],al
  40edf5:	add    BYTE PTR fs:[eax+eax*1+0x52],ah
  40edfa:	add    BYTE PTR [ebp+0x0],ah
  40edfd:	jae    0x40edff
  40edff:	jne    0x40ee01
  40ee01:	ins    BYTE PTR es:[edi],dx
  40ee02:	add    BYTE PTR [eax+eax*1+0x3a],dh
  40ee06:	add    BYTE PTR [eax],ah
  40ee08:	add    BYTE PTR [eax+0x0],cl
  40ee0b:	popa   
  40ee0c:	add    BYTE PTR [esi+0x0],ch
  40ee0f:	add    BYTE PTR fs:[eax+eax*1+0x65],ch
  40ee14:	add    BYTE PTR [eax+eax*1+0x20],ah
  40ee18:	add    BYTE PTR [ebx+0x0],al
  40ee1b:	outs   dx,DWORD PTR ds:[esi]
  40ee1c:	add    BYTE PTR [ebp+0x0],ch
  40ee1f:	ins    DWORD PTR es:[edi],dx
  40ee20:	add    BYTE PTR [ebp+0x0],dh
  40ee23:	outs   dx,BYTE PTR ds:[esi]
  40ee24:	add    BYTE PTR [ecx+0x0],ch
  40ee27:	arpl   WORD PTR [eax],ax
  40ee29:	popa   
  40ee2a:	add    BYTE PTR [eax+eax*1+0x69],dh
  40ee2e:	add    BYTE PTR [edi+0x0],ch
  40ee31:	outs   dx,BYTE PTR ds:[esi]
  40ee32:	add    BYTE PTR [eax],ah
  40ee34:	add    BYTE PTR [ebp+0x0],ah
  40ee37:	js     0x40ee39
  40ee39:	arpl   WORD PTR [eax],ax
  40ee3b:	add    BYTE PTR gs:[eax+0x0],dh
  40ee3f:	je     0x40ee41
  40ee41:	imul   eax,DWORD PTR [eax],0x6e006f
  40ee47:	cmp    al,BYTE PTR [eax]
  40ee49:	jnp    0x40ee4b
  40ee4b:	xor    BYTE PTR [eax],al
  40ee4d:	jge    0x40ee4f
  40ee4f:	add    BYTE PTR [ecx+0x44],cl
  40ee52:	add    BYTE PTR [ebx+0x0],al
  40ee55:	dec    eax
  40ee56:	add    BYTE PTR [edi+0x0],ch
  40ee59:	jae    0x40ee5b
  40ee5b:	je     0x40ee5d
  40ee5d:	add    BYTE PTR cs:[ecx+0x0],al
  40ee61:	add    BYTE PTR fs:[eax+eax*1+0x52],ah
  40ee66:	add    BYTE PTR [ebp+0x0],ah
  40ee69:	jae    0x40ee6b
  40ee6b:	jne    0x40ee6d
  40ee6d:	ins    BYTE PTR es:[edi],dx
  40ee6e:	add    BYTE PTR [eax+eax*1+0x3a],dh
  40ee72:	add    BYTE PTR [eax],ah
  40ee74:	add    BYTE PTR [ebx+0x0],ah
  40ee77:	push   0x6e006100
  40ee7c:	add    BYTE PTR [esi+0x0],ch
  40ee7f:	add    BYTE PTR gs:[eax+eax*1+0x20],ch
  40ee84:	add    BYTE PTR [ecx+0x0],ch
  40ee87:	jae    0x40ee89
  40ee89:	and    BYTE PTR [eax],al
  40ee8b:	add    BYTE PTR fs:[ecx+0x0],ch
  40ee8f:	jae    0x40ee91
  40ee91:	jo     0x40ee93
  40ee93:	outs   dx,DWORD PTR ds:[esi]
  40ee94:	add    BYTE PTR [ebx+0x0],dh
  40ee97:	add    BYTE PTR gs:[eax],al
  40ee9a:	sub    eax,DWORD PTR [eax+eax*1+0x43]
  40ee9e:	add    BYTE PTR [eax+0x0],cl
  40eea1:	outs   dx,DWORD PTR ds:[esi]
  40eea2:	add    BYTE PTR [ebx+0x0],dh
  40eea5:	je     0x40eea7
  40eea7:	add    BYTE PTR cs:[ecx+0x0],al
  40eeab:	add    BYTE PTR fs:[eax+eax*1+0x52],ah
  40eeb0:	add    BYTE PTR [ebp+0x0],ah
  40eeb3:	jae    0x40eeb5
  40eeb5:	jne    0x40eeb7
  40eeb7:	ins    BYTE PTR es:[edi],dx
  40eeb8:	add    BYTE PTR [eax+eax*1+0x2d],dh
  40eebc:	add    BYTE PTR [eax],ah
  40eebe:	add    BYTE PTR [ebp+0x0],al
  40eec1:	outs   dx,BYTE PTR ds:[esi]
  40eec2:	add    BYTE PTR [eax+eax*1+0x1],ah
  40eec6:	cmp    eax,0x430044
  40eecb:	dec    eax
  40eecc:	add    BYTE PTR [edi+0x0],ch
  40eecf:	jae    0x40eed1
  40eed1:	je     0x40eed3
  40eed3:	add    BYTE PTR cs:[ecx+0x0],cl
  40eed7:	outs   dx,BYTE PTR ds:[esi]
  40eed8:	add    BYTE PTR [ecx+0x0],ch
  40eedb:	je     0x40eedd
  40eedd:	imul   eax,DWORD PTR [eax],0x6c0061
  40eee3:	imul   eax,DWORD PTR [eax],0x65007a
  40eee9:	inc    esp
  40eeea:	add    BYTE PTR [ebp+0x0],ah
  40eeed:	jo     0x40eeef
  40eeef:	ins    BYTE PTR es:[edi],dx
  40eef0:	add    BYTE PTR [edi+0x0],ch
  40eef3:	jns    0x40eef5
  40eef5:	push   ebx
  40eef6:	add    BYTE PTR [ebp+0x0],ah
  40eef9:	jae    0x40eefb
  40eefb:	jae    0x40eefd
  40eefd:	imul   eax,DWORD PTR [eax],0x6e006f
  40ef03:	add    BYTE PTR [eax+0x6500448d],al
  40ef09:	add    BYTE PTR [eax+0x0],dh
  40ef0c:	ins    BYTE PTR es:[edi],dx
  40ef0d:	add    BYTE PTR [edi+0x0],ch
  40ef10:	jns    0x40ef12
  40ef12:	inc    ecx
  40ef13:	add    BYTE PTR [eax+0x0],dh
  40ef16:	jo     0x40ef18
  40ef18:	js     0x40ef1a
  40ef1a:	cmp    al,BYTE PTR [eax]
  40ef1c:	and    BYTE PTR [eax],al
  40ef1e:	inc    ebx
  40ef1f:	add    BYTE PTR [eax+eax*1+0x6f],ch
  40ef23:	add    BYTE PTR [ebx+0x0],dh
  40ef26:	add    BYTE PTR gs:[eax],ah
  40ef29:	add    BYTE PTR [eax+eax*1+0x68],dh
  40ef2d:	add    BYTE PTR [ebp+0x0],ah
  40ef30:	and    BYTE PTR [eax],al
  40ef32:	jo     0x40ef34
  40ef34:	jb     0x40ef36
  40ef36:	add    BYTE PTR gs:[esi+0x0],dh
  40ef3a:	imul   eax,DWORD PTR [eax],0x75006f
  40ef40:	jae    0x40ef42
  40ef42:	and    BYTE PTR [eax],al
  40ef44:	jae    0x40ef46
  40ef46:	add    BYTE PTR gs:[ebx+0x0],dh
  40ef4a:	jae    0x40ef4c
  40ef4c:	imul   eax,DWORD PTR [eax],0x6e006f
  40ef52:	and    BYTE PTR [eax],al
  40ef54:	popa   
  40ef55:	add    BYTE PTR [ebx+0x0],dh
  40ef58:	and    BYTE PTR [eax],al
  40ef5a:	imul   eax,DWORD PTR [eax],0x200074
  40ef60:	jae    0x40ef62
  40ef62:	add    BYTE PTR gs:[ebp+0x0],ah
  40ef66:	ins    DWORD PTR es:[edi],dx
  40ef67:	add    BYTE PTR [ebx+0x0],dh
  40ef6a:	and    BYTE PTR [eax],al
  40ef6c:	je     0x40ef6e
  40ef6e:	outs   dx,DWORD PTR ds:[esi]
  40ef6f:	add    BYTE PTR [eax],ah
  40ef71:	add    BYTE PTR [edx+0x0],ah
  40ef74:	add    BYTE PTR gs:[eax],ah
  40ef77:	add    BYTE PTR [ebx+0x0],dh
  40ef7a:	je     0x40ef7c
  40ef7c:	imul   eax,DWORD PTR [eax],0x6c006c
  40ef82:	and    BYTE PTR [eax],al
  40ef84:	popa   
  40ef85:	add    BYTE PTR [ebx+0x0],ah
  40ef88:	je     0x40ef8a
  40ef8a:	imul   eax,DWORD PTR [eax],0x650076
  40ef90:	add    BYTE PTR cs:[eax],al
  40ef93:	and    BYTE PTR [ecx+0x650044],0x70
  40ef9a:	add    BYTE PTR [eax+eax*1+0x6f],ch
  40ef9e:	add    BYTE PTR [ecx+0x0],bh
  40efa1:	inc    ecx
  40efa2:	add    BYTE PTR [eax+0x0],dh
  40efa5:	jo     0x40efa7
  40efa7:	js     0x40efa9
  40efa9:	cmp    al,BYTE PTR [eax]
  40efab:	and    BYTE PTR [eax],al
  40efad:	inc    ebp
  40efae:	add    BYTE PTR [esi+0x0],ch
  40efb1:	arpl   WORD PTR [eax],ax
  40efb3:	outs   dx,DWORD PTR ds:[esi]
  40efb4:	add    BYTE PTR [ebp+0x0],dh
  40efb7:	outs   dx,BYTE PTR ds:[esi]
  40efb8:	add    BYTE PTR [eax+eax*1+0x65],dh
  40efbc:	add    BYTE PTR [edx+0x0],dh
  40efbf:	add    BYTE PTR gs:[eax+eax*1+0x20],ah
  40efc4:	add    BYTE PTR [eax+eax*1+0x68],dh
  40efc8:	add    BYTE PTR [ebp+0x0],ah
  40efcb:	and    BYTE PTR [eax],al
  40efcd:	add    BYTE PTR gs:[eax+0x0],bh
  40efd1:	arpl   WORD PTR [eax],ax
  40efd3:	add    BYTE PTR gs:[eax+0x0],dh
  40efd7:	je     0x40efd9
  40efd9:	imul   eax,DWORD PTR [eax],0x6e006f
  40efdf:	and    BYTE PTR [eax],al
  40efe1:	ja     0x40efe3
  40efe3:	push   0x6e006500
  40efe8:	add    BYTE PTR [eax],ah
  40efea:	add    BYTE PTR [eax+eax*1+0x72],dh
  40efee:	add    BYTE PTR [ecx+0x0],bh
  40eff1:	imul   eax,DWORD PTR [eax],0x67006e
  40eff7:	and    BYTE PTR [eax],al
  40eff9:	je     0x40effb
  40effb:	outs   dx,DWORD PTR ds:[esi]
  40effc:	add    BYTE PTR [eax],ah
  40effe:	add    BYTE PTR [ebx+0x0],ah
  40f001:	ins    BYTE PTR es:[edi],dx
  40f002:	add    BYTE PTR [edi+0x0],ch
  40f005:	jae    0x40f007
  40f007:	add    BYTE PTR gs:[eax],ah
  40f00a:	add    BYTE PTR [eax+0x0],dh
  40f00d:	jb     0x40f00f
  40f00f:	add    BYTE PTR gs:[esi+0x0],dh
  40f013:	imul   eax,DWORD PTR [eax],0x75006f
  40f019:	jae    0x40f01b
  40f01b:	and    BYTE PTR [eax],al
  40f01d:	jae    0x40f01f
  40f01f:	add    BYTE PTR gs:[ebx+0x0],dh
  40f023:	jae    0x40f025
  40f025:	imul   eax,DWORD PTR [eax],0x6e006f
  40f02b:	add    BYTE PTR cs:[eax],ah
  40f02e:	add    BYTE PTR [ebx+0x0],bh
  40f031:	xor    BYTE PTR [eax],al
  40f033:	jge    0x40f035
  40f035:	add    BYTE PTR [edi+0x44],bh
  40f038:	add    BYTE PTR [ebp+0x0],ah
  40f03b:	jo     0x40f03d
  40f03d:	ins    BYTE PTR es:[edi],dx
  40f03e:	add    BYTE PTR [edi+0x0],ch
  40f041:	jns    0x40f043
  40f043:	inc    ecx
  40f044:	add    BYTE PTR [eax+0x0],dh
  40f047:	jo     0x40f049
  40f049:	js     0x40f04b
  40f04b:	cmp    al,BYTE PTR [eax]
  40f04d:	and    BYTE PTR [eax],al
  40f04f:	inc    ebp
  40f050:	add    BYTE PTR [esi+0x0],ch
  40f053:	je     0x40f055
  40f055:	add    BYTE PTR gs:[edx+0x0],dh
  40f059:	imul   eax,DWORD PTR [eax],0x67006e
  40f05f:	and    BYTE PTR [eax],al
  40f061:	dec    ecx
  40f062:	add    BYTE PTR [esi+0x0],ch
  40f065:	imul   eax,DWORD PTR [eax],0x690074
  40f06b:	popa   
  40f06c:	add    BYTE PTR [eax+eax*1+0x69],ch
  40f070:	add    BYTE PTR [edx+0x0],bh
  40f073:	add    BYTE PTR gs:[eax+eax*1+0x65],al
  40f078:	add    BYTE PTR [eax+0x0],dh
  40f07b:	ins    BYTE PTR es:[edi],dx
  40f07c:	add    BYTE PTR [edi+0x0],ch
  40f07f:	jns    0x40f081
  40f081:	push   ebx
  40f082:	add    BYTE PTR [ebp+0x0],ah
  40f085:	jae    0x40f087
  40f087:	jae    0x40f089
  40f089:	imul   eax,DWORD PTR [eax],0x6e006f
  40f08f:	and    BYTE PTR [eax],al
  40f091:	ja     0x40f093
  40f093:	imul   eax,DWORD PTR [eax],0x680074
  40f099:	and    BYTE PTR [eax],al
  40f09b:	popa   
  40f09c:	add    BYTE PTR [eax+0x0],dh
  40f09f:	jo     0x40f0a1
  40f0a1:	js     0x40f0a3
  40f0a3:	push   eax
  40f0a4:	add    BYTE PTR [ecx+0x0],ah
  40f0a7:	je     0x40f0a9
  40f0a9:	push   0x20003a00
  40f0ae:	add    BYTE PTR [ebx+0x0],bh
  40f0b1:	xor    BYTE PTR [eax],al
  40f0b3:	jge    0x40f0b5
  40f0b5:	add    BYTE PTR [ebp+0x44],bh
  40f0b8:	add    BYTE PTR [ebp+0x0],ah
  40f0bb:	jo     0x40f0bd
  40f0bd:	ins    BYTE PTR es:[edi],dx
  40f0be:	add    BYTE PTR [edi+0x0],ch
  40f0c1:	jns    0x40f0c3
  40f0c3:	inc    ecx
  40f0c4:	add    BYTE PTR [eax+0x0],dh
  40f0c7:	jo     0x40f0c9
  40f0c9:	js     0x40f0cb
  40f0cb:	cmp    al,BYTE PTR [eax]
  40f0cd:	and    BYTE PTR [eax],al
  40f0cf:	inc    ebp
  40f0d0:	add    BYTE PTR [eax+0x0],bh
  40f0d3:	imul   eax,DWORD PTR [eax],0x690074
  40f0d9:	outs   dx,BYTE PTR ds:[esi]
  40f0da:	add    BYTE PTR [edi+0x0],ah
  40f0dd:	and    BYTE PTR [eax],al
  40f0df:	dec    ecx
  40f0e0:	add    BYTE PTR [esi+0x0],ch
  40f0e3:	imul   eax,DWORD PTR [eax],0x690074
  40f0e9:	popa   
  40f0ea:	add    BYTE PTR [eax+eax*1+0x69],ch
  40f0ee:	add    BYTE PTR [edx+0x0],bh
  40f0f1:	add    BYTE PTR gs:[eax+eax*1+0x65],al
  40f0f6:	add    BYTE PTR [eax+0x0],dh
  40f0f9:	ins    BYTE PTR es:[edi],dx
  40f0fa:	add    BYTE PTR [edi+0x0],ch
  40f0fd:	jns    0x40f0ff
  40f0ff:	push   ebx
  40f100:	add    BYTE PTR [ebp+0x0],ah
  40f103:	jae    0x40f105
  40f105:	jae    0x40f107
  40f107:	imul   eax,DWORD PTR [eax],0x6e006f
  40f10d:	and    BYTE PTR [eax],al
  40f10f:	ja     0x40f111
  40f111:	imul   eax,DWORD PTR [eax],0x680074
  40f117:	and    BYTE PTR [eax],al
  40f119:	popa   
  40f11a:	add    BYTE PTR [eax+0x0],dh
  40f11d:	jo     0x40f11f
  40f11f:	js     0x40f121
  40f121:	push   eax
  40f122:	add    BYTE PTR [ecx+0x0],ah
  40f125:	je     0x40f127
  40f127:	push   0x20003a00
  40f12c:	add    BYTE PTR [ebx+0x0],bh
  40f12f:	xor    BYTE PTR [eax],al
  40f131:	jge    0x40f133
  40f133:	add    BYTE PTR [ecx],ch
  40f135:	inc    esp
  40f136:	add    BYTE PTR [ebx+0x0],al
  40f139:	dec    eax
  40f13a:	add    BYTE PTR [edi+0x0],ch
  40f13d:	jae    0x40f13f
  40f13f:	je     0x40f141
  40f141:	add    BYTE PTR cs:[ebx+0x0],al
  40f145:	jb     0x40f147
  40f147:	add    BYTE PTR gs:[ecx+0x0],ah
  40f14b:	je     0x40f14d
  40f14d:	add    BYTE PTR gs:[esi+0x0],cl
  40f151:	add    BYTE PTR gs:[edi+0x0],dh
  40f155:	inc    esi
  40f156:	add    BYTE PTR [ecx+0x0],ch
  40f159:	ins    BYTE PTR es:[edi],dx
  40f15a:	add    BYTE PTR [ebp+0x0],ah
  40f15d:	add    BYTE PTR [edi+0x44],ah
  40f160:	add    BYTE PTR [ebp+0x0],ah
  40f163:	jo     0x40f165
  40f165:	ins    BYTE PTR es:[edi],dx
  40f166:	add    BYTE PTR [edi+0x0],ch
  40f169:	jns    0x40f16b
  40f16b:	inc    ecx
  40f16c:	add    BYTE PTR [eax+0x0],dh
  40f16f:	jo     0x40f171
  40f171:	js     0x40f173
  40f173:	cmp    al,BYTE PTR [eax]
  40f175:	and    BYTE PTR [eax],al
  40f177:	add    BYTE PTR fs:[ebp+0x0],ah
  40f17b:	jo     0x40f17d
  40f17d:	ins    BYTE PTR es:[edi],dx
  40f17e:	add    BYTE PTR [edi+0x0],ch
  40f181:	jns    0x40f183
  40f183:	inc    ecx
  40f184:	add    BYTE PTR [eax+0x0],dh
  40f187:	jo     0x40f189
  40f189:	js     0x40f18b
  40f18b:	dec    eax
  40f18c:	add    BYTE PTR [edi+0x0],ch
  40f18f:	jae    0x40f191
  40f191:	je     0x40f193
  40f193:	and    BYTE PTR [eax],al
  40f195:	imul   eax,DWORD PTR [eax],0x20006e
  40f19b:	outs   dx,BYTE PTR ds:[esi]
  40f19c:	add    BYTE PTR [ebp+0x0],dh
  40f19f:	ins    BYTE PTR es:[edi],dx
  40f1a0:	add    BYTE PTR [eax+eax*1+0x20],ch
  40f1a4:	add    BYTE PTR [ecx+0x0],ch
  40f1a7:	outs   dx,BYTE PTR ds:[esi]
  40f1a8:	add    BYTE PTR [eax],ah
  40f1aa:	add    BYTE PTR [ebx+0x0],al
  40f1ad:	jb     0x40f1af
  40f1af:	add    BYTE PTR gs:[ecx+0x0],ah
  40f1b3:	je     0x40f1b5
  40f1b5:	add    BYTE PTR gs:[esi+0x0],cl
  40f1b9:	add    BYTE PTR gs:[edi+0x0],dh
  40f1bd:	inc    esi
  40f1be:	add    BYTE PTR [ecx+0x0],ch
  40f1c1:	ins    BYTE PTR es:[edi],dx
  40f1c2:	add    BYTE PTR [ebp+0x0],ah
  40f1c5:	add    BYTE PTR [ecx],dh
  40f1c7:	inc    esp
  40f1c8:	add    BYTE PTR [ebx+0x0],al
  40f1cb:	dec    eax
  40f1cc:	add    BYTE PTR [edi+0x0],ch
  40f1cf:	jae    0x40f1d1
  40f1d1:	je     0x40f1d3
  40f1d3:	add    BYTE PTR cs:[ecx+0x0],al
  40f1d7:	add    BYTE PTR fs:[eax+eax*1+0x43],ah
  40f1dc:	add    BYTE PTR [edi+0x0],ch
  40f1df:	outs   dx,BYTE PTR ds:[esi]
  40f1e0:	add    BYTE PTR [eax+eax*1+0x65],dh
  40f1e4:	add    BYTE PTR [esi+0x0],ch
  40f1e7:	je     0x40f1e9
  40f1e9:	jae    0x40f1eb
  40f1eb:	push   esp
  40f1ec:	add    BYTE PTR [edi+0x0],ch
  40f1ef:	inc    esi
  40f1f0:	add    BYTE PTR [ecx+0x0],ch
  40f1f3:	ins    BYTE PTR es:[edi],dx
  40f1f4:	add    BYTE PTR [ebp+0x0],ah
  40f1f7:	add    BYTE PTR [edi+0x44],ch
  40f1fa:	add    BYTE PTR [ebp+0x0],ah
  40f1fd:	jo     0x40f1ff
  40f1ff:	ins    BYTE PTR es:[edi],dx
  40f200:	add    BYTE PTR [edi+0x0],ch
  40f203:	jns    0x40f205
  40f205:	inc    ecx
  40f206:	add    BYTE PTR [eax+0x0],dh
  40f209:	jo     0x40f20b
  40f20b:	js     0x40f20d
  40f20d:	cmp    al,BYTE PTR [eax]
  40f20f:	and    BYTE PTR [eax],al
  40f211:	add    BYTE PTR fs:[ebp+0x0],ah
  40f215:	jo     0x40f217
  40f217:	ins    BYTE PTR es:[edi],dx
  40f218:	add    BYTE PTR [edi+0x0],ch
  40f21b:	jns    0x40f21d
  40f21d:	inc    ecx
  40f21e:	add    BYTE PTR [eax+0x0],dh
  40f221:	jo     0x40f223
  40f223:	js     0x40f225
  40f225:	dec    eax
  40f226:	add    BYTE PTR [edi+0x0],ch
  40f229:	jae    0x40f22b
  40f22b:	je     0x40f22d
  40f22d:	and    BYTE PTR [eax],al
  40f22f:	imul   eax,DWORD PTR [eax],0x20006e
  40f235:	outs   dx,BYTE PTR ds:[esi]
  40f236:	add    BYTE PTR [ebp+0x0],dh
  40f239:	ins    BYTE PTR es:[edi],dx
  40f23a:	add    BYTE PTR [eax+eax*1+0x20],ch
  40f23e:	add    BYTE PTR [ecx+0x0],ch
  40f241:	outs   dx,BYTE PTR ds:[esi]
  40f242:	add    BYTE PTR [eax],ah
  40f244:	add    BYTE PTR [ecx+0x0],al
  40f247:	add    BYTE PTR fs:[eax+eax*1+0x43],ah
  40f24c:	add    BYTE PTR [edi+0x0],ch
  40f24f:	outs   dx,BYTE PTR ds:[esi]
  40f250:	add    BYTE PTR [eax+eax*1+0x65],dh
  40f254:	add    BYTE PTR [esi+0x0],ch
  40f257:	je     0x40f259
  40f259:	jae    0x40f25b
  40f25b:	push   esp
  40f25c:	add    BYTE PTR [edi+0x0],ch
  40f25f:	inc    esi
  40f260:	add    BYTE PTR [ecx+0x0],ch
  40f263:	ins    BYTE PTR es:[edi],dx
  40f264:	add    BYTE PTR [ebp+0x0],ah
  40f267:	add    BYTE PTR [ecx],ah
  40f269:	inc    esp
  40f26a:	add    BYTE PTR [ebx+0x0],al
  40f26d:	dec    eax
  40f26e:	add    BYTE PTR [edi+0x0],ch
  40f271:	jae    0x40f273
  40f273:	je     0x40f275
  40f275:	add    BYTE PTR cs:[ebx+0x0],al
  40f279:	ins    BYTE PTR es:[edi],dx
  40f27a:	add    BYTE PTR [edi+0x0],ch
  40f27d:	jae    0x40f27f
  40f27f:	add    BYTE PTR gs:[esi+0x0],al
  40f283:	imul   eax,DWORD PTR [eax],0x65006c
  40f289:	add    BYTE PTR [edi+0x44],bl
  40f28c:	add    BYTE PTR [ebp+0x0],ah
  40f28f:	jo     0x40f291
  40f291:	ins    BYTE PTR es:[edi],dx
  40f292:	add    BYTE PTR [edi+0x0],ch
  40f295:	jns    0x40f297
  40f297:	inc    ecx
  40f298:	add    BYTE PTR [eax+0x0],dh
  40f29b:	jo     0x40f29d
  40f29d:	js     0x40f29f
  40f29f:	cmp    al,BYTE PTR [eax]
  40f2a1:	and    BYTE PTR [eax],al
  40f2a3:	add    BYTE PTR fs:[ebp+0x0],ah
  40f2a7:	jo     0x40f2a9
  40f2a9:	ins    BYTE PTR es:[edi],dx
  40f2aa:	add    BYTE PTR [edi+0x0],ch
  40f2ad:	jns    0x40f2af
  40f2af:	inc    ecx
  40f2b0:	add    BYTE PTR [eax+0x0],dh
  40f2b3:	jo     0x40f2b5
  40f2b5:	js     0x40f2b7
  40f2b7:	dec    eax
  40f2b8:	add    BYTE PTR [edi+0x0],ch
  40f2bb:	jae    0x40f2bd
  40f2bd:	je     0x40f2bf
  40f2bf:	and    BYTE PTR [eax],al
  40f2c1:	imul   eax,DWORD PTR [eax],0x20006e
  40f2c7:	outs   dx,BYTE PTR ds:[esi]
  40f2c8:	add    BYTE PTR [ebp+0x0],dh
  40f2cb:	ins    BYTE PTR es:[edi],dx
  40f2cc:	add    BYTE PTR [eax+eax*1+0x20],ch
  40f2d0:	add    BYTE PTR [ecx+0x0],ch
  40f2d3:	outs   dx,BYTE PTR ds:[esi]
  40f2d4:	add    BYTE PTR [eax],ah
  40f2d6:	add    BYTE PTR [ebx+0x0],al
  40f2d9:	ins    BYTE PTR es:[edi],dx
  40f2da:	add    BYTE PTR [edi+0x0],ch
  40f2dd:	jae    0x40f2df
  40f2df:	add    BYTE PTR gs:[esi+0x0],al
  40f2e3:	imul   eax,DWORD PTR [eax],0x65006c
  40f2e9:	add    BYTE PTR [ebx],dh
  40f2eb:	inc    esp
  40f2ec:	add    BYTE PTR [ebx+0x0],al
  40f2ef:	dec    eax
  40f2f0:	add    BYTE PTR [edi+0x0],ch
  40f2f3:	jae    0x40f2f5
  40f2f5:	je     0x40f2f7
  40f2f7:	add    BYTE PTR cs:[ecx+0x0],cl
  40f2fb:	outs   dx,BYTE PTR ds:[esi]
  40f2fc:	add    BYTE PTR [ebx+0x0],dh
  40f2ff:	je     0x40f301
  40f301:	popa   
  40f302:	add    BYTE PTR [eax+eax*1+0x6c],ch
  40f306:	add    BYTE PTR [ecx+0x0],al
  40f309:	jo     0x40f30b
  40f30b:	jo     0x40f30d
  40f30d:	js     0x40f30f
  40f30f:	push   eax
  40f310:	add    BYTE PTR [ecx+0x0],ah
  40f313:	arpl   WORD PTR [eax],ax
  40f315:	imul   eax,DWORD PTR [eax],0x61
  40f318:	add    BYTE PTR [edi+0x0],ah
  40f31b:	add    BYTE PTR gs:[eax],al
  40f31e:	jno    0x40f364
  40f320:	add    BYTE PTR [ebp+0x0],ah
  40f323:	jo     0x40f325
  40f325:	ins    BYTE PTR es:[edi],dx
  40f326:	add    BYTE PTR [edi+0x0],ch
  40f329:	jns    0x40f32b
  40f32b:	inc    ecx
  40f32c:	add    BYTE PTR [eax+0x0],dh
  40f32f:	jo     0x40f331
  40f331:	js     0x40f333
  40f333:	cmp    al,BYTE PTR [eax]
  40f335:	and    BYTE PTR [eax],al
  40f337:	add    BYTE PTR fs:[ebp+0x0],ah
  40f33b:	jo     0x40f33d
  40f33d:	ins    BYTE PTR es:[edi],dx
  40f33e:	add    BYTE PTR [edi+0x0],ch
  40f341:	jns    0x40f343
  40f343:	inc    ecx
  40f344:	add    BYTE PTR [eax+0x0],dh
  40f347:	jo     0x40f349
  40f349:	js     0x40f34b
  40f34b:	dec    eax
  40f34c:	add    BYTE PTR [edi+0x0],ch
  40f34f:	jae    0x40f351
  40f351:	je     0x40f353
  40f353:	and    BYTE PTR [eax],al
  40f355:	imul   eax,DWORD PTR [eax],0x20006e
  40f35b:	outs   dx,BYTE PTR ds:[esi]
  40f35c:	add    BYTE PTR [ebp+0x0],dh
  40f35f:	ins    BYTE PTR es:[edi],dx
  40f360:	add    BYTE PTR [eax+eax*1+0x20],ch
  40f364:	add    BYTE PTR [ecx+0x0],ch
  40f367:	outs   dx,BYTE PTR ds:[esi]
  40f368:	add    BYTE PTR [eax],ah
  40f36a:	add    BYTE PTR [ecx+0x0],cl
  40f36d:	outs   dx,BYTE PTR ds:[esi]
  40f36e:	add    BYTE PTR [ebx+0x0],dh
  40f371:	je     0x40f373
  40f373:	popa   
  40f374:	add    BYTE PTR [eax+eax*1+0x6c],ch
  40f378:	add    BYTE PTR [ecx+0x0],al
  40f37b:	jo     0x40f37d
  40f37d:	jo     0x40f37f
  40f37f:	js     0x40f381
  40f381:	push   eax
  40f382:	add    BYTE PTR [ecx+0x0],ah
  40f385:	arpl   WORD PTR [eax],ax
  40f387:	imul   eax,DWORD PTR [eax],0x61
  40f38a:	add    BYTE PTR [edi+0x0],ah
  40f38d:	add    BYTE PTR gs:[eax],al
  40f390:	inc    ebx
  40f391:	inc    esp
  40f392:	add    BYTE PTR [ebx+0x0],al
  40f395:	dec    eax
  40f396:	add    BYTE PTR [edi+0x0],ch
  40f399:	jae    0x40f39b
  40f39b:	je     0x40f39d
  40f39d:	add    BYTE PTR cs:[ecx+0x0],cl
  40f3a1:	jae    0x40f3a3
  40f3a3:	push   esp
  40f3a4:	add    BYTE PTR [ebp+0x0],ah
  40f3a7:	jae    0x40f3a9
  40f3a9:	je     0x40f3ab
  40f3ab:	inc    ebx
  40f3ac:	add    BYTE PTR [ebp+0x0],ah
  40f3af:	jb     0x40f3b1
  40f3b1:	je     0x40f3b3
  40f3b3:	imul   eax,DWORD PTR [eax],0x690066
  40f3b9:	arpl   WORD PTR [eax],ax
  40f3bb:	popa   
  40f3bc:	add    BYTE PTR [eax+eax*1+0x65],dh
  40f3c0:	add    BYTE PTR [ecx+0x0],cl
  40f3c3:	outs   dx,BYTE PTR ds:[esi]
  40f3c4:	add    BYTE PTR [ebx+0x0],dh
  40f3c7:	je     0x40f3c9
  40f3c9:	popa   
  40f3ca:	add    BYTE PTR [eax+eax*1+0x6c],ch
  40f3ce:	add    BYTE PTR [ebp+0x0],ah
  40f3d1:	add    BYTE PTR fs:[eax],al
  40f3d4:	add    BYTE PTR [ecx+0x650044],0x70
  40f3db:	add    BYTE PTR [eax+eax*1+0x6f],ch
  40f3df:	add    BYTE PTR [ecx+0x0],bh
  40f3e2:	inc    ecx
  40f3e3:	add    BYTE PTR [eax+0x0],dh
  40f3e6:	jo     0x40f3e8
  40f3e8:	js     0x40f3ea
  40f3ea:	cmp    al,BYTE PTR [eax]
  40f3ec:	and    BYTE PTR [eax],al
  40f3ee:	add    BYTE PTR fs:[ebp+0x0],ah
  40f3f2:	jo     0x40f3f4
  40f3f4:	ins    BYTE PTR es:[edi],dx
  40f3f5:	add    BYTE PTR [edi+0x0],ch
  40f3f8:	jns    0x40f3fa
  40f3fa:	inc    ecx
  40f3fb:	add    BYTE PTR [eax+0x0],dh
  40f3fe:	jo     0x40f400
  40f400:	js     0x40f402
  40f402:	dec    eax
  40f403:	add    BYTE PTR [edi+0x0],ch
  40f406:	jae    0x40f408
  40f408:	je     0x40f40a
  40f40a:	and    BYTE PTR [eax],al
  40f40c:	imul   eax,DWORD PTR [eax],0x20006e
  40f412:	outs   dx,BYTE PTR ds:[esi]
  40f413:	add    BYTE PTR [ebp+0x0],dh
  40f416:	ins    BYTE PTR es:[edi],dx
  40f417:	add    BYTE PTR [eax+eax*1+0x20],ch
  40f41b:	add    BYTE PTR [ecx+0x0],ch
  40f41e:	outs   dx,BYTE PTR ds:[esi]
  40f41f:	add    BYTE PTR [eax],ah
  40f421:	add    BYTE PTR [ecx+0x0],cl
  40f424:	jae    0x40f426
  40f426:	push   esp
  40f427:	add    BYTE PTR [ebp+0x0],ah
  40f42a:	jae    0x40f42c
  40f42c:	je     0x40f42e
  40f42e:	inc    ebx
  40f42f:	add    BYTE PTR [ebp+0x0],ah
  40f432:	jb     0x40f434
  40f434:	je     0x40f436
  40f436:	imul   eax,DWORD PTR [eax],0x690066
  40f43c:	arpl   WORD PTR [eax],ax
  40f43e:	popa   
  40f43f:	add    BYTE PTR [eax+eax*1+0x65],dh
  40f443:	add    BYTE PTR [ecx+0x0],cl
  40f446:	outs   dx,BYTE PTR ds:[esi]
  40f447:	add    BYTE PTR [ebx+0x0],dh
  40f44a:	je     0x40f44c
  40f44c:	popa   
  40f44d:	add    BYTE PTR [eax+eax*1+0x6c],ch
  40f451:	add    BYTE PTR [ebp+0x0],ah
  40f454:	add    BYTE PTR fs:[eax],al
  40f457:	inc    ebp
  40f458:	inc    esp
  40f459:	add    BYTE PTR [ebx+0x0],al
  40f45c:	dec    eax
  40f45d:	add    BYTE PTR [edi+0x0],ch
  40f460:	jae    0x40f462
  40f462:	je     0x40f464
  40f464:	add    BYTE PTR cs:[ecx+0x0],cl
  40f468:	outs   dx,BYTE PTR ds:[esi]
  40f469:	add    BYTE PTR [ebx+0x0],dh
  40f46c:	je     0x40f46e
  40f46e:	popa   
  40f46f:	add    BYTE PTR [eax+eax*1+0x6c],ch
  40f473:	add    BYTE PTR [eax+eax*1+0x65],dl
  40f477:	add    BYTE PTR [ebx+0x0],dh
  40f47a:	je     0x40f47c
  40f47c:	inc    ebx
  40f47d:	add    BYTE PTR [ebp+0x0],ah
  40f480:	jb     0x40f482
  40f482:	je     0x40f484
  40f484:	imul   eax,DWORD PTR [eax],0x690066
  40f48a:	arpl   WORD PTR [eax],ax
  40f48c:	popa   
  40f48d:	add    BYTE PTR [eax+eax*1+0x65],dh
  40f491:	add    BYTE PTR [ecx+0x0],al
  40f494:	jae    0x40f496
  40f496:	jns    0x40f498
  40f498:	outs   dx,BYTE PTR ds:[esi]
  40f499:	add    BYTE PTR [ebx+0x0],ah
  40f49c:	add    BYTE PTR [eax+0x65004483],al
  40f4a2:	add    BYTE PTR [eax+0x0],dh
  40f4a5:	ins    BYTE PTR es:[edi],dx
  40f4a6:	add    BYTE PTR [edi+0x0],ch
  40f4a9:	jns    0x40f4ab
  40f4ab:	inc    ecx
  40f4ac:	add    BYTE PTR [eax+0x0],dh
  40f4af:	jo     0x40f4b1
  40f4b1:	js     0x40f4b3
  40f4b3:	cmp    al,BYTE PTR [eax]
  40f4b5:	and    BYTE PTR [eax],al
  40f4b7:	add    BYTE PTR fs:[ebp+0x0],ah
  40f4bb:	jo     0x40f4bd
  40f4bd:	ins    BYTE PTR es:[edi],dx
  40f4be:	add    BYTE PTR [edi+0x0],ch
  40f4c1:	jns    0x40f4c3
  40f4c3:	inc    ecx
  40f4c4:	add    BYTE PTR [eax+0x0],dh
  40f4c7:	jo     0x40f4c9
  40f4c9:	js     0x40f4cb
  40f4cb:	dec    eax
  40f4cc:	add    BYTE PTR [edi+0x0],ch
  40f4cf:	jae    0x40f4d1
  40f4d1:	je     0x40f4d3
  40f4d3:	and    BYTE PTR [eax],al
  40f4d5:	imul   eax,DWORD PTR [eax],0x20006e
  40f4db:	outs   dx,BYTE PTR ds:[esi]
  40f4dc:	add    BYTE PTR [ebp+0x0],dh
  40f4df:	ins    BYTE PTR es:[edi],dx
  40f4e0:	add    BYTE PTR [eax+eax*1+0x20],ch
  40f4e4:	add    BYTE PTR [ecx+0x0],ch
  40f4e7:	outs   dx,BYTE PTR ds:[esi]
  40f4e8:	add    BYTE PTR [eax],ah
  40f4ea:	add    BYTE PTR [ecx+0x0],cl
  40f4ed:	outs   dx,BYTE PTR ds:[esi]
  40f4ee:	add    BYTE PTR [ebx+0x0],dh
  40f4f1:	je     0x40f4f3
  40f4f3:	popa   
  40f4f4:	add    BYTE PTR [eax+eax*1+0x6c],ch
  40f4f8:	add    BYTE PTR [eax+eax*1+0x65],dl
  40f4fc:	add    BYTE PTR [ebx+0x0],dh
  40f4ff:	je     0x40f501
  40f501:	inc    ebx
  40f502:	add    BYTE PTR [ebp+0x0],ah
  40f505:	jb     0x40f507
  40f507:	je     0x40f509
  40f509:	imul   eax,DWORD PTR [eax],0x690066
  40f50f:	arpl   WORD PTR [eax],ax
  40f511:	popa   
  40f512:	add    BYTE PTR [eax+eax*1+0x65],dh
  40f516:	add    BYTE PTR [ecx+0x0],al
  40f519:	jae    0x40f51b
  40f51b:	jns    0x40f51d
  40f51d:	outs   dx,BYTE PTR ds:[esi]
  40f51e:	add    BYTE PTR [ebx+0x0],ah
  40f521:	add    BYTE PTR [ebp+0x44],al
  40f524:	add    BYTE PTR [ebx+0x0],al
  40f527:	dec    eax
  40f528:	add    BYTE PTR [edi+0x0],ch
  40f52b:	jae    0x40f52d
  40f52d:	je     0x40f52f
  40f52f:	add    BYTE PTR cs:[ecx+0x0],cl
  40f533:	jae    0x40f535
  40f535:	inc    esp
  40f536:	add    BYTE PTR [ebp+0x0],ah
  40f539:	jbe    0x40f53b
  40f53b:	add    BYTE PTR gs:[eax+eax*1+0x6f],ch
  40f540:	add    BYTE PTR [eax+0x0],dh
  40f543:	add    BYTE PTR gs:[edx+0x0],dh
  40f547:	dec    esp
  40f548:	add    BYTE PTR [ecx+0x0],ch
  40f54b:	arpl   WORD PTR [eax],ax
  40f54d:	add    BYTE PTR gs:[esi+0x0],ch
  40f551:	jae    0x40f553
  40f553:	add    BYTE PTR gs:[ecx+0x0],cl
  40f557:	outs   dx,BYTE PTR ds:[esi]
  40f558:	add    BYTE PTR [ebx+0x0],dh
  40f55b:	je     0x40f55d
  40f55d:	popa   
  40f55e:	add    BYTE PTR [eax+eax*1+0x6c],ch
  40f562:	add    BYTE PTR [ebp+0x0],ah
  40f565:	add    BYTE PTR fs:[eax],al
  40f568:	add    BYTE PTR [ebx+0x650044],0x70
  40f56f:	add    BYTE PTR [eax+eax*1+0x6f],ch
  40f573:	add    BYTE PTR [ecx+0x0],bh
  40f576:	inc    ecx
  40f577:	add    BYTE PTR [eax+0x0],dh
  40f57a:	jo     0x40f57c
  40f57c:	js     0x40f57e
  40f57e:	cmp    al,BYTE PTR [eax]
  40f580:	and    BYTE PTR [eax],al
  40f582:	add    BYTE PTR fs:[ebp+0x0],ah
  40f586:	jo     0x40f588
  40f588:	ins    BYTE PTR es:[edi],dx
  40f589:	add    BYTE PTR [edi+0x0],ch
  40f58c:	jns    0x40f58e
  40f58e:	inc    ecx
  40f58f:	add    BYTE PTR [eax+0x0],dh
  40f592:	jo     0x40f594
  40f594:	js     0x40f596
  40f596:	dec    eax
  40f597:	add    BYTE PTR [edi+0x0],ch
  40f59a:	jae    0x40f59c
  40f59c:	je     0x40f59e
  40f59e:	and    BYTE PTR [eax],al
  40f5a0:	imul   eax,DWORD PTR [eax],0x20006e
  40f5a6:	outs   dx,BYTE PTR ds:[esi]
  40f5a7:	add    BYTE PTR [ebp+0x0],dh
  40f5aa:	ins    BYTE PTR es:[edi],dx
  40f5ab:	add    BYTE PTR [eax+eax*1+0x20],ch
  40f5af:	add    BYTE PTR [ecx+0x0],ch
  40f5b2:	outs   dx,BYTE PTR ds:[esi]
  40f5b3:	add    BYTE PTR [eax],ah
  40f5b5:	add    BYTE PTR [ecx+0x0],cl
  40f5b8:	jae    0x40f5ba
  40f5ba:	inc    esp
  40f5bb:	add    BYTE PTR [ebp+0x0],ah
  40f5be:	jbe    0x40f5c0
  40f5c0:	add    BYTE PTR gs:[eax+eax*1+0x6f],ch
  40f5c5:	add    BYTE PTR [eax+0x0],dh
  40f5c8:	add    BYTE PTR gs:[edx+0x0],dh
  40f5cc:	dec    esp
  40f5cd:	add    BYTE PTR [ecx+0x0],ch
  40f5d0:	arpl   WORD PTR [eax],ax
  40f5d2:	add    BYTE PTR gs:[esi+0x0],ch
  40f5d6:	jae    0x40f5d8
  40f5d8:	add    BYTE PTR gs:[ecx+0x0],cl
  40f5dc:	outs   dx,BYTE PTR ds:[esi]
  40f5dd:	add    BYTE PTR [ebx+0x0],dh
  40f5e0:	je     0x40f5e2
  40f5e2:	popa   
  40f5e3:	add    BYTE PTR [eax+eax*1+0x6c],ch
  40f5e7:	add    BYTE PTR [ebp+0x0],ah
  40f5ea:	add    BYTE PTR fs:[eax],al
  40f5ed:	inc    edi
  40f5ee:	inc    esp
  40f5ef:	add    BYTE PTR [ebx+0x0],al
  40f5f2:	dec    eax
  40f5f3:	add    BYTE PTR [edi+0x0],ch
  40f5f6:	jae    0x40f5f8
  40f5f8:	je     0x40f5fa
  40f5fa:	add    BYTE PTR cs:[ecx+0x0],cl
  40f5fe:	outs   dx,BYTE PTR ds:[esi]
  40f5ff:	add    BYTE PTR [ebx+0x0],dh
  40f602:	je     0x40f604
  40f604:	popa   
  40f605:	add    BYTE PTR [eax+eax*1+0x6c],ch
  40f609:	add    BYTE PTR [eax+eax*1+0x65],al
  40f60d:	add    BYTE PTR [esi+0x0],dh
  40f610:	add    BYTE PTR gs:[eax+eax*1+0x6f],ch
  40f615:	add    BYTE PTR [eax+0x0],dh
  40f618:	add    BYTE PTR gs:[edx+0x0],dh
  40f61c:	dec    esp
  40f61d:	add    BYTE PTR [ecx+0x0],ch
  40f620:	arpl   WORD PTR [eax],ax
  40f622:	add    BYTE PTR gs:[esi+0x0],ch
  40f626:	jae    0x40f628
  40f628:	add    BYTE PTR gs:[ecx+0x0],al
  40f62c:	jae    0x40f62e
  40f62e:	jns    0x40f630
  40f630:	outs   dx,BYTE PTR ds:[esi]
  40f631:	add    BYTE PTR [ebx+0x0],ah
  40f634:	add    BYTE PTR [eax+0x65004485],al
  40f63a:	add    BYTE PTR [eax+0x0],dh
  40f63d:	ins    BYTE PTR es:[edi],dx
  40f63e:	add    BYTE PTR [edi+0x0],ch
  40f641:	jns    0x40f643
  40f643:	inc    ecx
  40f644:	add    BYTE PTR [eax+0x0],dh
  40f647:	jo     0x40f649
  40f649:	js     0x40f64b
  40f64b:	cmp    al,BYTE PTR [eax]
  40f64d:	and    BYTE PTR [eax],al
  40f64f:	add    BYTE PTR fs:[ebp+0x0],ah
  40f653:	jo     0x40f655
  40f655:	ins    BYTE PTR es:[edi],dx
  40f656:	add    BYTE PTR [edi+0x0],ch
  40f659:	jns    0x40f65b
  40f65b:	inc    ecx
  40f65c:	add    BYTE PTR [eax+0x0],dh
  40f65f:	jo     0x40f661
  40f661:	js     0x40f663
  40f663:	dec    eax
  40f664:	add    BYTE PTR [edi+0x0],ch
  40f667:	jae    0x40f669
  40f669:	je     0x40f66b
  40f66b:	and    BYTE PTR [eax],al
  40f66d:	imul   eax,DWORD PTR [eax],0x20006e
  40f673:	outs   dx,BYTE PTR ds:[esi]
  40f674:	add    BYTE PTR [ebp+0x0],dh
  40f677:	ins    BYTE PTR es:[edi],dx
  40f678:	add    BYTE PTR [eax+eax*1+0x20],ch
  40f67c:	add    BYTE PTR [ecx+0x0],ch
  40f67f:	outs   dx,BYTE PTR ds:[esi]
  40f680:	add    BYTE PTR [eax],ah
  40f682:	add    BYTE PTR [ecx+0x0],cl
  40f685:	outs   dx,BYTE PTR ds:[esi]
  40f686:	add    BYTE PTR [ebx+0x0],dh
  40f689:	je     0x40f68b
  40f68b:	popa   
  40f68c:	add    BYTE PTR [eax+eax*1+0x6c],ch
  40f690:	add    BYTE PTR [eax+eax*1+0x65],al
  40f694:	add    BYTE PTR [esi+0x0],dh
  40f697:	add    BYTE PTR gs:[eax+eax*1+0x6f],ch
  40f69c:	add    BYTE PTR [eax+0x0],dh
  40f69f:	add    BYTE PTR gs:[edx+0x0],dh
  40f6a3:	dec    esp
  40f6a4:	add    BYTE PTR [ecx+0x0],ch
  40f6a7:	arpl   WORD PTR [eax],ax
  40f6a9:	add    BYTE PTR gs:[esi+0x0],ch
  40f6ad:	jae    0x40f6af
  40f6af:	add    BYTE PTR gs:[ecx+0x0],al
  40f6b3:	jae    0x40f6b5
  40f6b5:	jns    0x40f6b7
  40f6b7:	outs   dx,BYTE PTR ds:[esi]
  40f6b8:	add    BYTE PTR [ebx+0x0],ah
  40f6bb:	add    BYTE PTR [ebp+0x44],bh
  40f6be:	add    BYTE PTR [ebp+0x0],ah
  40f6c1:	jo     0x40f6c3
  40f6c3:	ins    BYTE PTR es:[edi],dx
  40f6c4:	add    BYTE PTR [edi+0x0],ch
  40f6c7:	jns    0x40f6c9
  40f6c9:	inc    ecx
  40f6ca:	add    BYTE PTR [eax+0x0],dh
  40f6cd:	jo     0x40f6cf
  40f6cf:	js     0x40f6d1
  40f6d1:	cmp    al,BYTE PTR [eax]
  40f6d3:	and    BYTE PTR [eax],al
  40f6d5:	dec    ecx
  40f6d6:	add    BYTE PTR [esi+0x0],ch
  40f6d9:	and    BYTE PTR [eax],al
  40f6db:	inc    ebx
  40f6dc:	add    BYTE PTR [ecx+0x0],ah
  40f6df:	outs   dx,BYTE PTR ds:[esi]
  40f6e0:	add    BYTE PTR [ebx+0x0],ah
  40f6e3:	add    BYTE PTR gs:[eax+eax*1+0x41],ch
  40f6e8:	add    BYTE PTR [ebx+0x0],dh
  40f6eb:	jns    0x40f6ed
  40f6ed:	outs   dx,BYTE PTR ds:[esi]
  40f6ee:	add    BYTE PTR [ebx+0x0],ah
  40f6f1:	dec    edi
  40f6f2:	add    BYTE PTR [eax+0x0],dh
  40f6f5:	add    BYTE PTR gs:[edx+0x0],dh
  40f6f9:	popa   
  40f6fa:	add    BYTE PTR [eax+eax*1+0x69],dh
  40f6fe:	add    BYTE PTR [edi+0x0],ch
  40f701:	outs   dx,BYTE PTR ds:[esi]
  40f702:	add    BYTE PTR [eax],ah
  40f704:	add    BYTE PTR [esi+0x0],ah
  40f707:	outs   dx,DWORD PTR ds:[esi]
  40f708:	add    BYTE PTR [edx+0x0],dh
  40f70b:	and    BYTE PTR [eax],al
  40f70d:	outs   dx,DWORD PTR ds:[esi]
  40f70e:	add    BYTE PTR [eax+0x0],dh
  40f711:	add    BYTE PTR gs:[edx+0x0],dh
  40f715:	popa   
  40f716:	add    BYTE PTR [eax+eax*1+0x69],dh
  40f71a:	add    BYTE PTR [edi+0x0],ch
  40f71d:	outs   dx,BYTE PTR ds:[esi]
  40f71e:	add    BYTE PTR [eax],ah
  40f720:	add    BYTE PTR [edi+0x0],dh
  40f723:	imul   eax,DWORD PTR [eax],0x680074
  40f729:	and    BYTE PTR [eax],al
  40f72b:	imul   eax,DWORD PTR [eax],0x3a0064
  40f731:	and    BYTE PTR [eax],al
  40f733:	jnp    0x40f735
  40f735:	xor    BYTE PTR [eax],al
  40f737:	jge    0x40f739
  40f739:	add    BYTE PTR [ebp+0x44],dh
  40f73c:	add    BYTE PTR [ebp+0x0],ah
  40f73f:	jo     0x40f741
  40f741:	ins    BYTE PTR es:[edi],dx
  40f742:	add    BYTE PTR [edi+0x0],ch
  40f745:	jns    0x40f747
  40f747:	inc    ecx
  40f748:	add    BYTE PTR [eax+0x0],dh
  40f74b:	jo     0x40f74d
  40f74d:	js     0x40f74f
  40f74f:	cmp    al,BYTE PTR [eax]
  40f751:	and    BYTE PTR [eax],al
  40f753:	add    BYTE PTR fs:[ebp+0x0],ah
  40f757:	jo     0x40f759
  40f759:	ins    BYTE PTR es:[edi],dx
  40f75a:	add    BYTE PTR [edi+0x0],ch
  40f75d:	jns    0x40f75f
  40f75f:	inc    ecx
  40f760:	add    BYTE PTR [eax+0x0],dh
  40f763:	jo     0x40f765
  40f765:	js     0x40f767
  40f767:	dec    eax
  40f768:	add    BYTE PTR [edi+0x0],ch
  40f76b:	jae    0x40f76d
  40f76d:	je     0x40f76f
  40f76f:	and    BYTE PTR [eax],al
  40f771:	imul   eax,DWORD PTR [eax],0x20006e
  40f777:	outs   dx,BYTE PTR ds:[esi]
  40f778:	add    BYTE PTR [ebp+0x0],dh
  40f77b:	ins    BYTE PTR es:[edi],dx
  40f77c:	add    BYTE PTR [eax+eax*1+0x20],ch
  40f780:	add    BYTE PTR [ecx+0x0],ch
  40f783:	outs   dx,BYTE PTR ds:[esi]
  40f784:	add    BYTE PTR [eax],ah
  40f786:	add    BYTE PTR [ebx+0x0],al
  40f789:	popa   
  40f78a:	add    BYTE PTR [esi+0x0],ch
  40f78d:	arpl   WORD PTR [eax],ax
  40f78f:	add    BYTE PTR gs:[eax+eax*1+0x41],ch
  40f794:	add    BYTE PTR [ebx+0x0],dh
  40f797:	jns    0x40f799
  40f799:	outs   dx,BYTE PTR ds:[esi]
  40f79a:	add    BYTE PTR [ebx+0x0],ah
  40f79d:	dec    edi
  40f79e:	add    BYTE PTR [eax+0x0],dh
  40f7a1:	add    BYTE PTR gs:[edx+0x0],dh
  40f7a5:	popa   
  40f7a6:	add    BYTE PTR [eax+eax*1+0x69],dh
  40f7aa:	add    BYTE PTR [edi+0x0],ch
  40f7ad:	outs   dx,BYTE PTR ds:[esi]
  40f7ae:	add    BYTE PTR [eax],al
  40f7b0:	and    BYTE PTR [ebx+0x650044],0x70
  40f7b7:	add    BYTE PTR [eax+eax*1+0x6f],ch
  40f7bb:	add    BYTE PTR [ecx+0x0],bh
  40f7be:	inc    ecx
  40f7bf:	add    BYTE PTR [eax+0x0],dh
  40f7c2:	jo     0x40f7c4
  40f7c4:	js     0x40f7c6
  40f7c6:	cmp    al,BYTE PTR [eax]
  40f7c8:	and    BYTE PTR [eax],al
  40f7ca:	inc    ebx
  40f7cb:	add    BYTE PTR [ecx+0x0],ah
  40f7ce:	ins    BYTE PTR es:[edi],dx
  40f7cf:	add    BYTE PTR [eax+eax*1+0x69],ch
  40f7d3:	add    BYTE PTR [esi+0x0],ch
  40f7d6:	add    BYTE PTR [bx+si],ah
  40f7d9:	add    BYTE PTR [ecx+0x0],al
  40f7dc:	jae    0x40f7de
  40f7de:	jns    0x40f7e0
  40f7e0:	outs   dx,BYTE PTR ds:[esi]
  40f7e1:	add    BYTE PTR [ebx+0x0],ah
  40f7e4:	dec    edi
  40f7e5:	add    BYTE PTR [eax+0x0],dh
  40f7e8:	add    BYTE PTR gs:[edx+0x0],dh
  40f7ec:	popa   
  40f7ed:	add    BYTE PTR [eax+eax*1+0x69],dh
  40f7f1:	add    BYTE PTR [edi+0x0],ch
  40f7f4:	outs   dx,BYTE PTR ds:[esi]
  40f7f5:	add    BYTE PTR [ebp+0x0],cl
  40f7f8:	popa   
  40f7f9:	add    BYTE PTR [esi+0x0],ch
  40f7fc:	popa   
  40f7fd:	add    BYTE PTR [edi+0x0],ah
  40f800:	add    BYTE PTR gs:[edx+0x0],dh
  40f804:	cmp    al,BYTE PTR [eax]
  40f806:	inc    ebx
  40f807:	add    BYTE PTR [ecx+0x0],ah
  40f80a:	outs   dx,BYTE PTR ds:[esi]
  40f80b:	add    BYTE PTR [ebx+0x0],ah
  40f80e:	add    BYTE PTR gs:[eax+eax*1+0x41],ch
  40f813:	add    BYTE PTR [ebx+0x0],dh
  40f816:	jns    0x40f818
  40f818:	outs   dx,BYTE PTR ds:[esi]
  40f819:	add    BYTE PTR [ebx+0x0],ah
  40f81c:	dec    edi
  40f81d:	add    BYTE PTR [eax+0x0],dh
  40f820:	add    BYTE PTR gs:[edx+0x0],dh
  40f824:	popa   
  40f825:	add    BYTE PTR [eax+eax*1+0x69],dh
  40f829:	add    BYTE PTR [edi+0x0],ch
  40f82c:	outs   dx,BYTE PTR ds:[esi]
  40f82d:	add    BYTE PTR [eax+eax*1],ch
  40f830:	and    BYTE PTR [eax],al
  40f832:	outs   dx,DWORD PTR ds:[esi]
  40f833:	add    BYTE PTR [eax+0x0],dh
  40f836:	add    BYTE PTR gs:[edx+0x0],dh
  40f83a:	popa   
  40f83b:	add    BYTE PTR [eax+eax*1+0x69],dh
  40f83f:	add    BYTE PTR [edi+0x0],ch
  40f842:	outs   dx,BYTE PTR ds:[esi]
  40f843:	add    BYTE PTR [eax],ah
  40f845:	add    BYTE PTR [ecx+0x0],ch
  40f848:	add    BYTE PTR fs:[edx],bh
  40f84b:	add    BYTE PTR [eax],ah
  40f84d:	add    BYTE PTR [ebx+0x0],bh
  40f850:	xor    BYTE PTR [eax],al
  40f852:	jge    0x40f854
  40f854:	add    BYTE PTR [eax+0x65004483],al
  40f85a:	add    BYTE PTR [eax+0x0],dh
  40f85d:	ins    BYTE PTR es:[edi],dx
  40f85e:	add    BYTE PTR [edi+0x0],ch
  40f861:	jns    0x40f863
  40f863:	inc    ecx
  40f864:	add    BYTE PTR [eax+0x0],dh
  40f867:	jo     0x40f869
  40f869:	js     0x40f86b
  40f86b:	cmp    al,BYTE PTR [eax]
  40f86d:	and    BYTE PTR [eax],al
  40f86f:	inc    ebp
  40f870:	add    BYTE PTR [esi+0x0],ch
  40f873:	je     0x40f875
  40f875:	add    BYTE PTR gs:[edx+0x0],dh
  40f879:	imul   eax,DWORD PTR [eax],0x67006e
  40f87f:	and    BYTE PTR [eax],al
  40f881:	inc    ebx
  40f882:	add    BYTE PTR [eax+eax*1+0x6f],ch
  40f886:	add    BYTE PTR [ebx+0x0],dh
  40f889:	add    BYTE PTR gs:[eax+eax*1+0x65],al
  40f88e:	add    BYTE PTR [eax+0x0],dh
  40f891:	ins    BYTE PTR es:[edi],dx
  40f892:	add    BYTE PTR [edi+0x0],ch
  40f895:	jns    0x40f897
  40f897:	push   ebx
  40f898:	add    BYTE PTR [ebp+0x0],ah
  40f89b:	jae    0x40f89d
  40f89d:	jae    0x40f89f
  40f89f:	imul   eax,DWORD PTR [eax],0x6e006f
  40f8a5:	and    BYTE PTR [eax],al
  40f8a7:	ja     0x40f8a9
  40f8a9:	imul   eax,DWORD PTR [eax],0x680074
  40f8af:	and    BYTE PTR [eax],al
  40f8b1:	add    BYTE PTR fs:[ebp+0x0],ah
  40f8b5:	ins    BYTE PTR es:[edi],dx
  40f8b6:	add    BYTE PTR [ebp+0x0],ah
  40f8b9:	je     0x40f8bb
  40f8bb:	add    BYTE PTR gs:[eax+eax*1+0x65],dl
  40f8c0:	add    BYTE PTR [ebp+0x0],ch
  40f8c3:	jo     0x40f8c5
  40f8c5:	data16 add BYTE PTR [ecx+0x0],ch
  40f8c9:	ins    BYTE PTR es:[edi],dx
  40f8ca:	add    BYTE PTR [ebp+0x0],ah
  40f8cd:	jae    0x40f8cf
  40f8cf:	cmp    al,BYTE PTR [eax]
  40f8d1:	and    BYTE PTR [eax],al
  40f8d3:	jnp    0x40f8d5
  40f8d5:	xor    BYTE PTR [eax],al
  40f8d7:	jge    0x40f8d9
  40f8d9:	add    BYTE PTR [eax+0x65004483],al
  40f8df:	add    BYTE PTR [eax+0x0],dh
  40f8e2:	ins    BYTE PTR es:[edi],dx
  40f8e3:	add    BYTE PTR [edi+0x0],ch
  40f8e6:	jns    0x40f8e8
  40f8e8:	inc    ecx
  40f8e9:	add    BYTE PTR [eax+0x0],dh
  40f8ec:	jo     0x40f8ee
  40f8ee:	js     0x40f8f0
  40f8f0:	cmp    al,BYTE PTR [eax]
  40f8f2:	and    BYTE PTR [eax],al
  40f8f4:	inc    ebp
  40f8f5:	add    BYTE PTR [eax+0x0],bh
  40f8f8:	arpl   WORD PTR [eax],ax
  40f8fa:	add    BYTE PTR gs:[eax+0x0],dh
  40f8fe:	je     0x40f900
  40f900:	imul   eax,DWORD PTR [eax],0x6e006f
  40f906:	and    BYTE PTR [eax],al
  40f908:	add    BYTE PTR gs:[esi+0x0],ch
  40f90c:	arpl   WORD PTR [eax],ax
  40f90e:	outs   dx,DWORD PTR ds:[esi]
  40f90f:	add    BYTE PTR [ebp+0x0],dh
  40f912:	outs   dx,BYTE PTR ds:[esi]
  40f913:	add    BYTE PTR [eax+eax*1+0x65],dh
  40f917:	add    BYTE PTR [edx+0x0],dh
  40f91a:	add    BYTE PTR gs:[eax+eax*1+0x20],ah
  40f91f:	add    BYTE PTR [ecx+0x0],ch
  40f922:	ja     0x40f924
  40f924:	push   0x6c006900
  40f929:	add    BYTE PTR [ebp+0x0],ah
  40f92c:	and    BYTE PTR [eax],al
  40f92e:	add    BYTE PTR fs:[ebp+0x0],ah
  40f932:	ins    BYTE PTR es:[edi],dx
  40f933:	add    BYTE PTR [ebp+0x0],ah
  40f936:	je     0x40f938
  40f938:	imul   eax,DWORD PTR [eax],0x67006e
  40f93e:	and    BYTE PTR [eax],al
  40f940:	je     0x40f942
  40f942:	add    BYTE PTR gs:[ebp+0x0],ch
  40f946:	jo     0x40f948
  40f948:	and    BYTE PTR [eax],al
  40f94a:	data16 add BYTE PTR [ecx+0x0],ch
  40f94e:	ins    BYTE PTR es:[edi],dx
  40f94f:	add    BYTE PTR [ebp+0x0],ah
  40f952:	jae    0x40f954
  40f954:	cmp    al,BYTE PTR [eax]
  40f956:	and    BYTE PTR [eax],al
  40f958:	jnp    0x40f95a
  40f95a:	xor    BYTE PTR [eax],al
  40f95c:	jge    0x40f95e
  40f95e:	add    BYTE PTR [ebp+0x44],cl
  40f961:	add    BYTE PTR [ebp+0x0],ah
  40f964:	jo     0x40f966
  40f966:	ins    BYTE PTR es:[edi],dx
  40f967:	add    BYTE PTR [edi+0x0],ch
  40f96a:	jns    0x40f96c
  40f96c:	inc    ecx
  40f96d:	add    BYTE PTR [eax+0x0],dh
  40f970:	jo     0x40f972
  40f972:	js     0x40f974
  40f974:	cmp    al,BYTE PTR [eax]
  40f976:	and    BYTE PTR [eax],al
  40f978:	inc    ebp
  40f979:	add    BYTE PTR [eax+0x0],bh
  40f97c:	imul   eax,DWORD PTR [eax],0x690074
  40f982:	outs   dx,BYTE PTR ds:[esi]
  40f983:	add    BYTE PTR [edi+0x0],ah
  40f986:	and    BYTE PTR [eax],al
  40f988:	inc    ebx
  40f989:	add    BYTE PTR [eax+eax*1+0x6f],ch
  40f98d:	add    BYTE PTR [ebx+0x0],dh
  40f990:	add    BYTE PTR gs:[eax+eax*1+0x65],al
  40f995:	add    BYTE PTR [eax+0x0],dh
  40f998:	ins    BYTE PTR es:[edi],dx
  40f999:	add    BYTE PTR [edi+0x0],ch
  40f99c:	jns    0x40f99e
  40f99e:	push   ebx
  40f99f:	add    BYTE PTR [ebp+0x0],ah
  40f9a2:	jae    0x40f9a4
  40f9a4:	jae    0x40f9a6
  40f9a6:	imul   eax,DWORD PTR [eax],0x6e006f
  40f9ac:	add    BYTE PTR ds:0x430044,bl
  40f9b2:	dec    eax
  40f9b3:	add    BYTE PTR [edi+0x0],ch
  40f9b6:	jae    0x40f9b8
  40f9b8:	je     0x40f9ba
  40f9ba:	add    BYTE PTR cs:[eax+eax*1+0x69],al
  40f9bf:	add    BYTE PTR [ebx+0x0],dh
  40f9c2:	jo     0x40f9c4
  40f9c4:	outs   dx,DWORD PTR ds:[esi]
  40f9c5:	add    BYTE PTR [ebx+0x0],dh
  40f9c8:	add    BYTE PTR gs:[eax],al
  40f9cb:	sbb    eax,0x430044
  40f9d0:	dec    eax
  40f9d1:	add    BYTE PTR [edi+0x0],ch
  40f9d4:	jae    0x40f9d6
  40f9d6:	je     0x40f9d8
  40f9d8:	add    BYTE PTR cs:[edi+0x0],cl
  40f9dc:	outs   dx,BYTE PTR ds:[esi]
  40f9dd:	add    BYTE PTR [esi+0x0],al
  40f9e0:	popa   
  40f9e1:	add    BYTE PTR [ebp+0x0],dh
  40f9e4:	ins    BYTE PTR es:[edi],dx
  40f9e5:	add    BYTE PTR [eax+eax*1+0x0],dh
  40f9e9:	push   ebp
  40f9ea:	inc    esp
  40f9eb:	add    BYTE PTR [ebx+0x0],al
  40f9ee:	dec    eax
  40f9ef:	add    BYTE PTR [edi+0x0],ch
  40f9f2:	jae    0x40f9f4
  40f9f4:	je     0x40f9f6
  40f9f6:	cmp    al,BYTE PTR [eax]
  40f9f8:	and    BYTE PTR [eax],al
  40f9fa:	push   edi
  40f9fb:	add    BYTE PTR [ebx+0x0],al
  40f9fe:	inc    esi
  40f9ff:	add    BYTE PTR [eax],ah
  40fa01:	add    BYTE PTR [ebx+0x0],ah
  40fa04:	ins    BYTE PTR es:[edi],dx
  40fa05:	add    BYTE PTR [ecx+0x0],ch
  40fa08:	add    BYTE PTR gs:[esi+0x0],ch
  40fa0c:	je     0x40fa0e
  40fa0e:	and    BYTE PTR [eax],al
  40fa10:	imul   eax,DWORD PTR [eax],0x74006e
  40fa16:	add    BYTE PTR gs:[edx+0x0],dh
  40fa1a:	data16 add BYTE PTR [ecx+0x0],ah
  40fa1e:	arpl   WORD PTR [eax],ax
  40fa20:	add    BYTE PTR gs:[eax],ah
  40fa23:	add    BYTE PTR [eax+0x0],ch
  40fa26:	popa   
  40fa27:	add    BYTE PTR [ebx+0x0],dh
  40fa2a:	and    BYTE PTR [eax],al
  40fa2c:	data16 add BYTE PTR [ecx+0x0],ah
  40fa30:	jne    0x40fa32
  40fa32:	ins    BYTE PTR es:[edi],dx
  40fa33:	add    BYTE PTR [eax+eax*1+0x65],dh
  40fa37:	add    BYTE PTR [eax+eax*1+0x21],ah
  40fa3b:	add    BYTE PTR [eax],ah
  40fa3d:	add    BYTE PTR [eax],al
  40fa3f:	addr16 inc esp
  40fa41:	add    BYTE PTR [ebx+0x0],al
  40fa44:	dec    eax
  40fa45:	add    BYTE PTR [edi+0x0],ch
  40fa48:	jae    0x40fa4a
  40fa4a:	je     0x40fa4c
  40fa4c:	add    BYTE PTR cs:[edi+0x0],cl
  40fa50:	outs   dx,BYTE PTR ds:[esi]
  40fa51:	add    BYTE PTR [esi+0x0],al
  40fa54:	popa   
  40fa55:	add    BYTE PTR [ebp+0x0],dh
  40fa58:	ins    BYTE PTR es:[edi],dx
  40fa59:	add    BYTE PTR [eax+eax*1+0x3a],dh
  40fa5d:	add    BYTE PTR [eax],ah
  40fa5f:	add    BYTE PTR [eax+0x0],cl
  40fa62:	popa   
  40fa63:	add    BYTE PTR [esi+0x0],ch
  40fa66:	add    BYTE PTR fs:[eax+eax*1+0x65],ch
  40fa6b:	add    BYTE PTR [eax+eax*1+0x20],ah
  40fa6f:	add    BYTE PTR [ebx+0x0],al
  40fa72:	outs   dx,DWORD PTR ds:[esi]
  40fa73:	add    BYTE PTR [ebp+0x0],ch
  40fa76:	ins    DWORD PTR es:[edi],dx
  40fa77:	add    BYTE PTR [ebp+0x0],dh
  40fa7a:	outs   dx,BYTE PTR ds:[esi]
  40fa7b:	add    BYTE PTR [ecx+0x0],ch
  40fa7e:	arpl   WORD PTR [eax],ax
  40fa80:	popa   
  40fa81:	add    BYTE PTR [eax+eax*1+0x69],dh
  40fa85:	add    BYTE PTR [edi+0x0],ch
  40fa88:	outs   dx,BYTE PTR ds:[esi]
  40fa89:	add    BYTE PTR [eax],ah
  40fa8b:	add    BYTE PTR [ebp+0x0],ah
  40fa8e:	js     0x40fa90
  40fa90:	arpl   WORD PTR [eax],ax
  40fa92:	add    BYTE PTR gs:[eax+0x0],dh
  40fa96:	je     0x40fa98
  40fa98:	imul   eax,DWORD PTR [eax],0x6e006f
  40fa9e:	and    BYTE PTR [eax],al
  40faa0:	jnp    0x40faa2
  40faa2:	xor    BYTE PTR [eax],al
  40faa4:	jge    0x40faa6
  40faa6:	add    BYTE PTR [ecx+0x44],bl
  40faa9:	add    BYTE PTR [ebx+0x0],al
  40faac:	dec    eax
  40faad:	add    BYTE PTR [edi+0x0],ch
  40fab0:	jae    0x40fab2
  40fab2:	je     0x40fab4
  40fab4:	add    BYTE PTR cs:[edi+0x0],cl
  40fab8:	outs   dx,BYTE PTR ds:[esi]
  40fab9:	add    BYTE PTR [esi+0x0],al
  40fabc:	popa   
  40fabd:	add    BYTE PTR [ebp+0x0],dh
  40fac0:	ins    BYTE PTR es:[edi],dx
  40fac1:	add    BYTE PTR [eax+eax*1+0x3a],dh
  40fac5:	add    BYTE PTR [eax],ah
  40fac7:	add    BYTE PTR [eax+0x0],cl
  40faca:	popa   
  40facb:	add    BYTE PTR [esi+0x0],ch
  40face:	add    BYTE PTR fs:[eax+eax*1+0x65],ch
  40fad3:	add    BYTE PTR [eax+eax*1+0x20],ah
  40fad7:	add    BYTE PTR [eax+eax*1+0x69],dl
  40fadb:	add    BYTE PTR [ebp+0x0],ch
  40fade:	add    BYTE PTR gs:[edi+0x0],ch
  40fae2:	jne    0x40fae4
  40fae4:	je     0x40fae6
  40fae6:	inc    ebp
  40fae7:	add    BYTE PTR [eax+0x0],bh
  40faea:	arpl   WORD PTR [eax],ax
  40faec:	add    BYTE PTR gs:[eax+0x0],dh
  40faf0:	je     0x40faf2
  40faf2:	imul   eax,DWORD PTR [eax],0x6e006f
  40faf8:	and    BYTE PTR [eax],al
  40fafa:	jnp    0x40fafc
  40fafc:	xor    BYTE PTR [eax],al
  40fafe:	jge    0x40fb00
  40fb00:	add    BYTE PTR [eax+0x430044a9],al
  40fb06:	add    BYTE PTR [eax+0x0],cl
  40fb09:	outs   dx,DWORD PTR ds:[esi]
  40fb0a:	add    BYTE PTR [ebx+0x0],dh
  40fb0d:	je     0x40fb0f
  40fb0f:	add    BYTE PTR cs:[edi+0x0],cl
  40fb13:	outs   dx,BYTE PTR ds:[esi]
  40fb14:	add    BYTE PTR [ecx+0x0],cl
  40fb17:	outs   dx,BYTE PTR ds:[esi]
  40fb18:	add    BYTE PTR [ecx+0x0],ah
  40fb1b:	arpl   WORD PTR [eax],ax
  40fb1d:	je     0x40fb1f
  40fb1f:	imul   eax,DWORD PTR [eax],0x690076
  40fb25:	je     0x40fb27
  40fb27:	jns    0x40fb29
  40fb29:	push   esp
  40fb2a:	add    BYTE PTR [ecx+0x0],ch
  40fb2d:	ins    DWORD PTR es:[edi],dx
  40fb2e:	add    BYTE PTR [ebp+0x0],ah
  40fb31:	outs   dx,DWORD PTR ds:[esi]
  40fb32:	add    BYTE PTR [ebp+0x0],dh
  40fb35:	je     0x40fb37
  40fb37:	cmp    al,BYTE PTR [eax]
  40fb39:	and    BYTE PTR [eax],al
  40fb3b:	push   edx
  40fb3c:	add    BYTE PTR [ebp+0x0],ah
  40fb3f:	ins    DWORD PTR es:[edi],dx
  40fb40:	add    BYTE PTR [edi+0x0],ch
  40fb43:	je     0x40fb45
  40fb45:	add    BYTE PTR gs:[eax],ah
  40fb48:	add    BYTE PTR [eax+eax*1+0x65],dl
  40fb4c:	add    BYTE PTR [ebx+0x0],dh
  40fb4f:	je     0x40fb51
  40fb51:	and    BYTE PTR [eax],al
  40fb53:	push   edx
  40fb54:	add    BYTE PTR [ebp+0x0],dh
  40fb57:	outs   dx,BYTE PTR ds:[esi]
  40fb58:	add    BYTE PTR [esi+0x0],ch
  40fb5b:	add    BYTE PTR gs:[edx+0x0],dh
  40fb5f:	and    BYTE PTR [eax],al
  40fb61:	jo     0x40fb63
  40fb63:	jb     0x40fb65
  40fb65:	outs   dx,DWORD PTR ds:[esi]
  40fb66:	add    BYTE PTR [ebx+0x0],ah
  40fb69:	add    BYTE PTR gs:[ebx+0x0],dh
  40fb6d:	jae    0x40fb6f
  40fb6f:	and    BYTE PTR [eax],al
  40fb71:	imul   eax,DWORD PTR [eax],0x200073
  40fb77:	add    BYTE PTR gs:[eax+0x0],bh
  40fb7b:	imul   eax,DWORD PTR [eax],0x690074
  40fb81:	outs   dx,BYTE PTR ds:[esi]
  40fb82:	add    BYTE PTR [edi+0x0],ah
  40fb85:	and    BYTE PTR [eax],al
  40fb87:	add    BYTE PTR fs:[ebp+0x0],dh
  40fb8b:	add    BYTE PTR gs:[eax],ah
  40fb8e:	add    BYTE PTR [eax+eax*1+0x6f],dh
  40fb92:	add    BYTE PTR [eax],ah
  40fb94:	add    BYTE PTR [ecx+0x0],ch
  40fb97:	outs   dx,BYTE PTR ds:[esi]
  40fb98:	add    BYTE PTR [ecx+0x0],ah
  40fb9b:	arpl   WORD PTR [eax],ax
  40fb9d:	je     0x40fb9f
  40fb9f:	imul   eax,DWORD PTR [eax],0x690076
  40fba5:	je     0x40fba7
  40fba7:	jns    0x40fba9
  40fba9:	add    BYTE PTR cs:[eax],al
  40fbac:	sub    eax,0x430044
  40fbb1:	dec    eax
  40fbb2:	add    BYTE PTR [edi+0x0],ch
  40fbb5:	jae    0x40fbb7
  40fbb7:	je     0x40fbb9
  40fbb9:	add    BYTE PTR cs:[ebx+0x0],dl
  40fbbd:	popa   
  40fbbe:	add    BYTE PTR [esi+0x0],dh
  40fbc1:	add    BYTE PTR gs:[esi+0x0],cl
  40fbc5:	add    BYTE PTR gs:[edi+0x0],dh
  40fbc9:	inc    ebx
  40fbca:	add    BYTE PTR [ecx+0x0],ah
  40fbcd:	ins    BYTE PTR es:[edi],dx
  40fbce:	add    BYTE PTR [eax+eax*1+0x62],ch
  40fbd2:	add    BYTE PTR [ecx+0x0],ah
  40fbd5:	arpl   WORD PTR [eax],ax
  40fbd7:	imul   eax,DWORD PTR [eax],0x0
  40fbda:	cmp    eax,0x430044
  40fbdf:	dec    eax
  40fbe0:	add    BYTE PTR [edi+0x0],ch
  40fbe3:	jae    0x40fbe5
  40fbe5:	je     0x40fbe7
  40fbe7:	add    BYTE PTR cs:[eax+eax*1+0x69],al
  40fbec:	add    BYTE PTR [ebx+0x0],dh
  40fbef:	arpl   WORD PTR [eax],ax
  40fbf1:	popa   
  40fbf2:	add    BYTE PTR [edx+0x0],dh
  40fbf5:	add    BYTE PTR fs:[ebp+0x0],al
  40fbf9:	js     0x40fbfb
  40fbfb:	imul   eax,DWORD PTR [eax],0x740073
  40fc01:	imul   eax,DWORD PTR [eax],0x67006e
  40fc07:	inc    ebx
  40fc08:	add    BYTE PTR [ecx+0x0],ah
  40fc0b:	ins    BYTE PTR es:[edi],dx
  40fc0c:	add    BYTE PTR [eax+eax*1+0x62],ch
  40fc10:	add    BYTE PTR [ecx+0x0],ah
  40fc13:	arpl   WORD PTR [eax],ax
  40fc15:	imul   eax,DWORD PTR [eax],0x0
  40fc18:	gs inc esp
  40fc1a:	add    BYTE PTR [ebx+0x0],al
  40fc1d:	dec    eax
  40fc1e:	add    BYTE PTR [edi+0x0],ch
  40fc21:	jae    0x40fc23
  40fc23:	je     0x40fc25
  40fc25:	add    BYTE PTR cs:[edi+0x0],cl
  40fc29:	outs   dx,BYTE PTR ds:[esi]
  40fc2a:	add    BYTE PTR [esi+0x0],al
  40fc2d:	popa   
  40fc2e:	add    BYTE PTR [ebp+0x0],dh
  40fc31:	ins    BYTE PTR es:[edi],dx
  40fc32:	add    BYTE PTR [eax+eax*1+0x3a],dh
  40fc36:	add    BYTE PTR [eax],ah
  40fc38:	add    BYTE PTR [eax+0x0],cl
  40fc3b:	popa   
  40fc3c:	add    BYTE PTR [esi+0x0],ch
  40fc3f:	add    BYTE PTR fs:[eax+eax*1+0x65],ch
  40fc44:	add    BYTE PTR [eax+eax*1+0x20],ah
  40fc48:	add    BYTE PTR [ebx+0x0],al
  40fc4b:	outs   dx,DWORD PTR ds:[esi]
  40fc4c:	add    BYTE PTR [ebp+0x0],ch
  40fc4f:	ins    DWORD PTR es:[edi],dx
  40fc50:	add    BYTE PTR [ebp+0x0],dh
  40fc53:	outs   dx,BYTE PTR ds:[esi]
  40fc54:	add    BYTE PTR [ecx+0x0],ch
  40fc57:	arpl   WORD PTR [eax],ax
  40fc59:	popa   
  40fc5a:	add    BYTE PTR [eax+eax*1+0x69],dh
  40fc5e:	add    BYTE PTR [edi+0x0],ch
  40fc61:	outs   dx,BYTE PTR ds:[esi]
  40fc62:	add    BYTE PTR [ebp+0x0],al
  40fc65:	js     0x40fc67
  40fc67:	arpl   WORD PTR [eax],ax
  40fc69:	add    BYTE PTR gs:[eax+0x0],dh
  40fc6d:	je     0x40fc6f
  40fc6f:	imul   eax,DWORD PTR [eax],0x6e006f
  40fc75:	and    BYTE PTR [eax],al
  40fc77:	jnp    0x40fc79
  40fc79:	xor    BYTE PTR [eax],al
  40fc7b:	jge    0x40fc7d
  40fc7d:	add    BYTE PTR ds:0x430044,ah
  40fc83:	dec    eax
  40fc84:	add    BYTE PTR [edi+0x0],ch
  40fc87:	jae    0x40fc89
  40fc89:	je     0x40fc8b
  40fc8b:	cmp    al,BYTE PTR [eax]
  40fc8d:	push   ebx
  40fc8e:	add    BYTE PTR [eax+0x0],ch
  40fc91:	jne    0x40fc93
  40fc93:	je     0x40fc95
  40fc95:	add    BYTE PTR fs:[edi+0x0],ch
  40fc99:	ja     0x40fc9b
  40fc9b:	outs   dx,BYTE PTR ds:[esi]
  40fc9c:	add    BYTE PTR [edx+0x0],dl
  40fc9f:	push   esp
  40fca0:	add    BYTE PTR [edx+0x0],dl
  40fca3:	add    BYTE PTR [ebx+0x44],cl
  40fca6:	add    BYTE PTR [ebx+0x0],al
  40fca9:	dec    eax
  40fcaa:	add    BYTE PTR [edi+0x0],ch
  40fcad:	jae    0x40fcaf
  40fcaf:	je     0x40fcb1
  40fcb1:	add    BYTE PTR cs:[edi+0x0],dl
  40fcb5:	popa   
  40fcb6:	add    BYTE PTR [ecx+0x0],ch
  40fcb9:	je     0x40fcbb
  40fcbb:	inc    esi
  40fcbc:	add    BYTE PTR [edi+0x0],ch
  40fcbf:	jb     0x40fcc1
  40fcc1:	push   ebx
  40fcc2:	add    BYTE PTR [ebp+0x0],ah
  40fcc5:	jb     0x40fcc7
  40fcc7:	jbe    0x40fcc9
  40fcc9:	imul   eax,DWORD PTR [eax],0x650063
  40fccf:	dec    eax
  40fcd0:	add    BYTE PTR [edi+0x0],ch
  40fcd3:	jae    0x40fcd5
  40fcd5:	je     0x40fcd7
  40fcd7:	push   ebx
  40fcd8:	add    BYTE PTR [eax+eax*1+0x61],dh
  40fcdc:	add    BYTE PTR [edx+0x0],dh
  40fcdf:	je     0x40fce1
  40fce1:	sub    eax,0x53002000
  40fce6:	add    BYTE PTR [eax+eax*1+0x61],dh
  40fcea:	add    BYTE PTR [edx+0x0],dh
  40fced:	je     0x40fcef
  40fcef:	add    DWORD PTR [edi+0x44],eax
  40fcf2:	add    BYTE PTR [ebx+0x0],al
  40fcf5:	dec    eax
  40fcf6:	add    BYTE PTR [edi+0x0],ch
  40fcf9:	jae    0x40fcfb
  40fcfb:	je     0x40fcfd
  40fcfd:	add    BYTE PTR cs:[edi+0x0],dl
  40fd01:	popa   
  40fd02:	add    BYTE PTR [ecx+0x0],ch
  40fd05:	je     0x40fd07
  40fd07:	inc    esi
  40fd08:	add    BYTE PTR [edi+0x0],ch
  40fd0b:	jb     0x40fd0d
  40fd0d:	push   ebx
  40fd0e:	add    BYTE PTR [ebp+0x0],ah
  40fd11:	jb     0x40fd13
  40fd13:	jbe    0x40fd15
  40fd15:	imul   eax,DWORD PTR [eax],0x650063
  40fd1b:	dec    eax
  40fd1c:	add    BYTE PTR [edi+0x0],ch
  40fd1f:	jae    0x40fd21
  40fd21:	je     0x40fd23
  40fd23:	push   ebx
  40fd24:	add    BYTE PTR [eax+eax*1+0x61],dh
  40fd28:	add    BYTE PTR [edx+0x0],dh
  40fd2b:	je     0x40fd2d
  40fd2d:	sub    eax,0x45002000
  40fd32:	add    BYTE PTR [esi+0x0],ch
  40fd35:	add    BYTE PTR fs:[ecx],al
  40fd38:	jnp    0x40fd7f
  40fd3a:	add    BYTE PTR [eax+0x0],bh
  40fd3d:	arpl   WORD PTR [eax],ax
  40fd3f:	add    BYTE PTR gs:[eax+0x0],dh
  40fd43:	je     0x40fd45
  40fd45:	imul   eax,DWORD PTR [eax],0x6e006f
  40fd4b:	and    BYTE PTR [eax],al
  40fd4d:	arpl   WORD PTR [eax],ax
  40fd4f:	popa   
  40fd50:	add    BYTE PTR [ebp+0x0],dh
  40fd53:	add    BYTE PTR [bx+si+0x0],ch
  40fd57:	je     0x40fd59
  40fd59:	and    BYTE PTR [eax],al
  40fd5b:	ja     0x40fd5d
  40fd5d:	push   0x6c006900
  40fd62:	add    BYTE PTR [ebp+0x0],ah
  40fd65:	and    BYTE PTR [eax],al
  40fd67:	je     0x40fd69
  40fd69:	jb     0x40fd6b
  40fd6b:	jns    0x40fd6d
  40fd6d:	imul   eax,DWORD PTR [eax],0x67006e
  40fd73:	and    BYTE PTR [eax],al
  40fd75:	je     0x40fd77
  40fd77:	outs   dx,DWORD PTR ds:[esi]
  40fd78:	add    BYTE PTR [eax],ah
  40fd7a:	add    BYTE PTR [ebx+0x0],dh
  40fd7d:	push   0x77006f00
  40fd82:	add    BYTE PTR [eax],ah
  40fd84:	add    BYTE PTR [eax+eax*1+0x6f],dh
  40fd88:	add    BYTE PTR [ecx+0x0],ah
  40fd8b:	jae    0x40fd8d
  40fd8d:	je     0x40fd8f
  40fd8f:	and    BYTE PTR [eax],al
  40fd91:	outs   dx,BYTE PTR ds:[esi]
  40fd92:	add    BYTE PTR [edi+0x0],ch
  40fd95:	je     0x40fd97
  40fd97:	imul   eax,DWORD PTR [eax],0x690066
  40fd9d:	arpl   WORD PTR [eax],ax
  40fd9f:	popa   
  40fda0:	add    BYTE PTR [eax+eax*1+0x69],dh
  40fda4:	add    BYTE PTR [edi+0x0],ch
  40fda7:	outs   dx,BYTE PTR ds:[esi]
  40fda8:	add    BYTE PTR [edx],bh
  40fdaa:	add    BYTE PTR [eax],ah
  40fdac:	add    BYTE PTR [ebx+0x0],bh
  40fdaf:	xor    BYTE PTR [eax],al
  40fdb1:	jge    0x40fdb3
  40fdb3:	add    BYTE PTR [ebp+0x44],cl
  40fdb6:	add    BYTE PTR [ebp+0x0],ah
  40fdb9:	jo     0x40fdbb
  40fdbb:	ins    BYTE PTR es:[edi],dx
  40fdbc:	add    BYTE PTR [edi+0x0],ch
  40fdbf:	jns    0x40fdc1
  40fdc1:	inc    ecx
  40fdc2:	add    BYTE PTR [eax+0x0],dh
  40fdc5:	jo     0x40fdc7
  40fdc7:	js     0x40fdc9
  40fdc9:	cmp    al,BYTE PTR [eax]
  40fdcb:	and    BYTE PTR [eax],al
  40fdcd:	inc    esp
  40fdce:	add    BYTE PTR [ebp+0x0],ah
  40fdd1:	jae    0x40fdd3
  40fdd3:	je     0x40fdd5
  40fdd5:	imul   eax,DWORD PTR [eax],0x61006e
  40fddb:	je     0x40fddd
  40fddd:	imul   eax,DWORD PTR [eax],0x6e006f
  40fde3:	and    BYTE PTR [eax],al
  40fde5:	data16 add BYTE PTR [edi+0x0],ch
  40fde9:	ins    BYTE PTR es:[edi],dx
  40fdea:	add    BYTE PTR [eax+eax*1+0x65],ah
  40fdee:	add    BYTE PTR [edx+0x0],dh
  40fdf1:	and    BYTE PTR [eax],al
  40fdf3:	imul   eax,DWORD PTR [eax],0x3a0073
  40fdf9:	and    BYTE PTR [eax],al
  40fdfb:	jnp    0x40fdfd
  40fdfd:	xor    BYTE PTR [eax],al
  40fdff:	jge    0x40fe01
  40fe01:	add    BYTE PTR [ecx+0x44],al
  40fe04:	add    BYTE PTR [ebp+0x0],ah
  40fe07:	jo     0x40fe09
  40fe09:	ins    BYTE PTR es:[edi],dx
  40fe0a:	add    BYTE PTR [edi+0x0],ch
  40fe0d:	jns    0x40fe0f
  40fe0f:	inc    ecx
  40fe10:	add    BYTE PTR [eax+0x0],dh
  40fe13:	jo     0x40fe15
  40fe15:	js     0x40fe17
  40fe17:	cmp    al,BYTE PTR [eax]
  40fe19:	and    BYTE PTR [eax],al
  40fe1b:	inc    ebx
  40fe1c:	add    BYTE PTR [edx+0x0],dh
  40fe1f:	add    BYTE PTR gs:[ecx+0x0],ah
  40fe23:	je     0x40fe25
  40fe25:	imul   eax,DWORD PTR [eax],0x67006e
  40fe2b:	and    BYTE PTR [eax],al
  40fe2d:	data16 add BYTE PTR [edi+0x0],ch
  40fe31:	ins    BYTE PTR es:[edi],dx
  40fe32:	add    BYTE PTR [eax+eax*1+0x65],ah
  40fe36:	add    BYTE PTR [edx+0x0],dh
  40fe39:	cmp    al,BYTE PTR [eax]
  40fe3b:	and    BYTE PTR [eax],al
  40fe3d:	jnp    0x40fe3f
  40fe3f:	xor    BYTE PTR [eax],al
  40fe41:	jge    0x40fe43
  40fe43:	add    BYTE PTR [edi+0x44],al
  40fe46:	add    BYTE PTR [ebp+0x0],ah
  40fe49:	jo     0x40fe4b
  40fe4b:	ins    BYTE PTR es:[edi],dx
  40fe4c:	add    BYTE PTR [edi+0x0],ch
  40fe4f:	jns    0x40fe51
  40fe51:	inc    ecx
  40fe52:	add    BYTE PTR [eax+0x0],dh
  40fe55:	jo     0x40fe57
  40fe57:	js     0x40fe59
  40fe59:	cmp    al,BYTE PTR [eax]
  40fe5b:	and    BYTE PTR [eax],al
  40fe5d:	inc    ebx
  40fe5e:	add    BYTE PTR [edx+0x0],dh
  40fe61:	add    BYTE PTR gs:[ecx+0x0],ah
  40fe65:	je     0x40fe67
  40fe67:	imul   eax,DWORD PTR [eax],0x67006e
  40fe6d:	and    BYTE PTR [eax],al
  40fe6f:	popa   
  40fe70:	add    BYTE PTR [eax],ah
  40fe72:	add    BYTE PTR [esi+0x0],ch
  40fe75:	add    BYTE PTR gs:[edi+0x0],dh
  40fe79:	and    BYTE PTR [eax],al
  40fe7b:	data16 add BYTE PTR [ecx+0x0],ch
  40fe7f:	ins    BYTE PTR es:[edi],dx
  40fe80:	add    BYTE PTR [ebp+0x0],ah
  40fe83:	and    BYTE PTR [eax],al
  40fe85:	jnp    0x40fe87
  40fe87:	xor    BYTE PTR [eax],al
  40fe89:	jge    0x40fe8b
  40fe8b:	add    BYTE PTR [ebp+0x44],ah
  40fe8e:	add    BYTE PTR [ebp+0x0],ah
  40fe91:	jo     0x40fe93
  40fe93:	ins    BYTE PTR es:[edi],dx
  40fe94:	add    BYTE PTR [edi+0x0],ch
  40fe97:	jns    0x40fe99
  40fe99:	inc    ecx
  40fe9a:	add    BYTE PTR [eax+0x0],dh
  40fe9d:	jo     0x40fe9f
  40fe9f:	js     0x40fea1
  40fea1:	cmp    al,BYTE PTR [eax]
  40fea3:	and    BYTE PTR [eax],al
  40fea5:	inc    ebp
  40fea6:	add    BYTE PTR [eax+0x0],bh
  40fea9:	arpl   WORD PTR [eax],ax
  40feab:	add    BYTE PTR gs:[eax+0x0],dh
  40feaf:	je     0x40feb1
  40feb1:	imul   eax,DWORD PTR [eax],0x6e006f
  40feb7:	and    BYTE PTR [eax],al
  40feb9:	arpl   WORD PTR [eax],ax
  40febb:	popa   
  40febc:	add    BYTE PTR [ebp+0x0],dh
  40febf:	add    BYTE PTR [bx+si+0x0],ch
  40fec3:	je     0x40fec5
  40fec5:	and    BYTE PTR [eax],al
  40fec7:	imul   eax,DWORD PTR [eax],0x20006e
  40fecd:	inc    ebx
  40fece:	add    BYTE PTR [edx+0x0],dh
  40fed1:	add    BYTE PTR gs:[ecx+0x0],ah
  40fed5:	je     0x40fed7
  40fed7:	add    BYTE PTR gs:[esi+0x0],ch
  40fedb:	add    BYTE PTR gs:[edi+0x0],dh
  40fedf:	inc    esi
  40fee0:	add    BYTE PTR [ecx+0x0],ch
  40fee3:	ins    BYTE PTR es:[edi],dx
  40fee4:	add    BYTE PTR [ebp+0x0],ah
  40fee7:	cmp    al,BYTE PTR [eax]
  40fee9:	and    BYTE PTR [eax],al
  40feeb:	jnp    0x40feed
  40feed:	xor    BYTE PTR [eax],al
  40feef:	jge    0x40fef1
  40fef1:	add    BYTE PTR [eax+0x6500449d],al
  40fef7:	add    BYTE PTR [eax+0x0],dh
  40fefa:	ins    BYTE PTR es:[edi],dx
  40fefb:	add    BYTE PTR [edi+0x0],ch
  40fefe:	jns    0x40ff00
  40ff00:	inc    ecx
  40ff01:	add    BYTE PTR [eax+0x0],dh
  40ff04:	jo     0x40ff06
  40ff06:	js     0x40ff08
  40ff08:	cmp    al,BYTE PTR [eax]
  40ff0a:	and    BYTE PTR [eax],al
  40ff0c:	inc    ecx
  40ff0d:	add    BYTE PTR [eax+eax*1+0x64],ah
  40ff11:	add    BYTE PTR [ecx+0x0],ch
  40ff14:	outs   dx,BYTE PTR ds:[esi]
  40ff15:	add    BYTE PTR [edi+0x0],ah
  40ff18:	and    BYTE PTR [eax],al
  40ff1a:	je     0x40ff1c
  40ff1c:	push   0x20006500
  40ff21:	add    BYTE PTR [ebx+0x0],ah
  40ff24:	outs   dx,DWORD PTR ds:[esi]
  40ff25:	add    BYTE PTR [esi+0x0],ch
  40ff28:	je     0x40ff2a
  40ff2a:	add    BYTE PTR gs:[esi+0x0],ch
  40ff2e:	je     0x40ff30
  40ff30:	jae    0x40ff32
  40ff32:	and    BYTE PTR [eax],al
  40ff34:	je     0x40ff36
  40ff36:	outs   dx,DWORD PTR ds:[esi]
  40ff37:	add    BYTE PTR [eax],ah
  40ff39:	add    BYTE PTR [eax+eax*1+0x68],dh
  40ff3d:	add    BYTE PTR [ebp+0x0],ah
  40ff40:	and    BYTE PTR [eax],al
  40ff42:	data16 add BYTE PTR [ecx+0x0],ch
  40ff46:	ins    BYTE PTR es:[edi],dx
  40ff47:	add    BYTE PTR [ebp+0x0],ah
  40ff4a:	and    BYTE PTR [eax],al
  40ff4c:	ja     0x40ff4e
  40ff4e:	imul   eax,DWORD PTR [eax],0x680074
  40ff54:	and    BYTE PTR [eax],al
  40ff56:	imul   eax,DWORD PTR [eax],0x200064
  40ff5c:	jnp    0x40ff5e
  40ff5e:	xor    BYTE PTR [eax],al
  40ff60:	jge    0x40ff62
  40ff62:	sub    al,0x0
  40ff64:	and    BYTE PTR [eax],al
  40ff66:	jae    0x40ff68
  40ff68:	imul   eax,DWORD PTR [eax],0x65007a
  40ff6e:	and    BYTE PTR [eax],al
  40ff70:	outs   dx,DWORD PTR ds:[esi]
  40ff71:	add    BYTE PTR [esi+0x0],ah
  40ff74:	and    BYTE PTR [eax],al
  40ff76:	inc    ebx
  40ff77:	add    BYTE PTR [edi+0x0],ch
  40ff7a:	outs   dx,BYTE PTR ds:[esi]
  40ff7b:	add    BYTE PTR [eax+eax*1+0x65],dh
  40ff7f:	add    BYTE PTR [esi+0x0],ch
  40ff82:	je     0x40ff84
  40ff84:	jae    0x40ff86
  40ff86:	cmp    al,BYTE PTR [eax]
  40ff88:	and    BYTE PTR [eax],al
  40ff8a:	jnp    0x40ff8c
  40ff8c:	xor    DWORD PTR [eax],eax
  40ff8e:	jge    0x40ff90
  40ff90:	add    BYTE PTR [ecx+0x44],dl
  40ff93:	add    BYTE PTR [ebp+0x0],ah
  40ff96:	jo     0x40ff98
  40ff98:	ins    BYTE PTR es:[edi],dx
  40ff99:	add    BYTE PTR [edi+0x0],ch
  40ff9c:	jns    0x40ff9e
  40ff9e:	inc    ecx
  40ff9f:	add    BYTE PTR [eax+0x0],dh
  40ffa2:	jo     0x40ffa4
  40ffa4:	js     0x40ffa6
  40ffa6:	cmp    al,BYTE PTR [eax]
  40ffa8:	and    BYTE PTR [eax],al
  40ffaa:	inc    ebx
  40ffab:	add    BYTE PTR [eax+eax*1+0x6f],ch
  40ffaf:	add    BYTE PTR [ebx+0x0],dh
  40ffb2:	imul   eax,DWORD PTR [eax],0x67006e
  40ffb8:	and    BYTE PTR [eax],al
  40ffba:	je     0x40ffbc
  40ffbc:	push   0x20006500
  40ffc1:	add    BYTE PTR [esi+0x0],ah
  40ffc4:	imul   eax,DWORD PTR [eax],0x65006c
  40ffca:	and    BYTE PTR [eax],al
  40ffcc:	ja     0x40ffce
  40ffce:	imul   eax,DWORD PTR [eax],0x680074
  40ffd4:	and    BYTE PTR [eax],al
  40ffd6:	imul   eax,DWORD PTR [eax],0x200064
  40ffdc:	jnp    0x40ffde
  40ffde:	xor    BYTE PTR [eax],al
  40ffe0:	jge    0x40ffe2
  40ffe2:	add    BYTE PTR [edi],bh
  40ffe4:	inc    esp
  40ffe5:	add    BYTE PTR [ebp+0x0],ah
  40ffe8:	jo     0x40ffea
  40ffea:	ins    BYTE PTR es:[edi],dx
  40ffeb:	add    BYTE PTR [edi+0x0],ch
  40ffee:	jns    0x40fff0
  40fff0:	inc    ecx
  40fff1:	add    BYTE PTR [eax+0x0],dh
  40fff4:	jo     0x40fff6
  40fff6:	js     0x40fff8
  40fff8:	cmp    al,BYTE PTR [eax]
  40fffa:	and    BYTE PTR [eax],al
  40fffc:	inc    esp
  40fffd:	add    BYTE PTR [ebp+0x0],ah
  410000:	ins    BYTE PTR es:[edi],dx
  410001:	add    BYTE PTR [ebp+0x0],ah
  410004:	je     0x410006
  410006:	imul   eax,DWORD PTR [eax],0x67006e
  41000c:	and    BYTE PTR [eax],al
  41000e:	data16 add BYTE PTR [edi+0x0],ch
  410012:	ins    BYTE PTR es:[edi],dx
  410013:	add    BYTE PTR [eax+eax*1+0x65],ah
  410017:	add    BYTE PTR [edx+0x0],dh
  41001a:	and    BYTE PTR [eax],al
  41001c:	jnp    0x41001e
  41001e:	xor    BYTE PTR [eax],al
  410020:	jge    0x410022
  410022:	add    BYTE PTR [ebp+0x44],al
  410025:	add    BYTE PTR [ebp+0x0],ah
  410028:	jo     0x41002a
  41002a:	ins    BYTE PTR es:[edi],dx
  41002b:	add    BYTE PTR [edi+0x0],ch
  41002e:	jns    0x410030
  410030:	inc    ecx
  410031:	add    BYTE PTR [eax+0x0],dh
  410034:	jo     0x410036
  410036:	js     0x410038
  410038:	cmp    al,BYTE PTR [eax]
  41003a:	and    BYTE PTR [eax],al
  41003c:	inc    ecx
  41003d:	add    BYTE PTR [eax+eax*1+0x64],ah
  410041:	add    BYTE PTR [ecx+0x0],ch
  410044:	outs   dx,BYTE PTR ds:[esi]
  410045:	add    BYTE PTR [edi+0x0],ah
  410048:	and    BYTE PTR [eax],al
  41004a:	jo     0x41004c
  41004c:	popa   
  41004d:	add    BYTE PTR [ebx+0x0],ah
  410050:	imul   eax,DWORD PTR [eax],0x61
  410053:	add    BYTE PTR [edi+0x0],ah
  410056:	add    BYTE PTR gs:[eax],ah
  410059:	add    BYTE PTR [esi+0x0],ah
  41005c:	outs   dx,DWORD PTR ds:[esi]
  41005d:	add    BYTE PTR [edx+0x0],dh
  410060:	and    BYTE PTR [eax],al
  410062:	jnp    0x410064
  410064:	xor    BYTE PTR [eax],al
  410066:	jge    0x410068
  410068:	add    BYTE PTR [edi+0x44],dl
  41006b:	add    BYTE PTR [ebp+0x0],ah
  41006e:	jo     0x410070
  410070:	ins    BYTE PTR es:[edi],dx
  410071:	add    BYTE PTR [edi+0x0],ch
  410074:	jns    0x410076
  410076:	inc    ecx
  410077:	add    BYTE PTR [eax+0x0],dh
  41007a:	jo     0x41007c
  41007c:	js     0x41007e
  41007e:	cmp    al,BYTE PTR [eax]
  410080:	and    BYTE PTR [eax],al
  410082:	inc    ecx
  410083:	add    BYTE PTR [eax+0x0],dh
  410086:	jo     0x410088
  410088:	js     0x41008a
  41008a:	and    BYTE PTR [eax],al
  41008c:	jnp    0x41008e
  41008e:	xor    BYTE PTR [eax],al
  410090:	jge    0x410092
  410092:	and    BYTE PTR [eax],al
  410094:	dec    ecx
  410095:	add    BYTE PTR [esi+0x0],ch
  410098:	jae    0x41009a
  41009a:	je     0x41009c
  41009c:	popa   
  41009d:	add    BYTE PTR [eax+eax*1+0x6c],ch
  4100a1:	add    BYTE PTR [ebp+0x0],ah
  4100a4:	add    BYTE PTR fs:[eax],ah
  4100a7:	add    BYTE PTR [ebx+0x0],dh
  4100aa:	jne    0x4100ac
  4100ac:	arpl   WORD PTR [eax],ax
  4100ae:	arpl   WORD PTR [eax],ax
  4100b0:	add    BYTE PTR gs:[ebx+0x0],dh
  4100b4:	jae    0x4100b6
  4100b6:	data16 add BYTE PTR [ebp+0x0],dh
  4100ba:	ins    BYTE PTR es:[edi],dx
  4100bb:	add    BYTE PTR [eax+eax*1+0x79],ch
  4100bf:	add    BYTE PTR [eax],al
  4100c1:	xor    BYTE PTR [ebp+0x650044],0x70
  4100c8:	add    BYTE PTR [eax+eax*1+0x6f],ch
  4100cc:	add    BYTE PTR [ecx+0x0],bh
  4100cf:	inc    ecx
  4100d0:	add    BYTE PTR [eax+0x0],dh
  4100d3:	jo     0x4100d5
  4100d5:	js     0x4100d7
  4100d7:	cmp    al,BYTE PTR [eax]
  4100d9:	and    BYTE PTR [eax],al
  4100db:	inc    esp
  4100dc:	add    BYTE PTR [edx+0x0],dh
  4100df:	outs   dx,DWORD PTR ds:[esi]
  4100e0:	add    BYTE PTR [eax+0x0],dh
  4100e3:	jo     0x4100e5
  4100e5:	imul   eax,DWORD PTR [eax],0x67006e
  4100eb:	and    BYTE PTR [eax],al
  4100ed:	jae    0x4100ef
  4100ef:	je     0x4100f1
  4100f1:	popa   
  4100f2:	add    BYTE PTR [eax+eax*1+0x75],dh
  4100f6:	add    BYTE PTR [ebx+0x0],dh
  4100f9:	and    BYTE PTR [eax],al
  4100fb:	jo     0x4100fd
  4100fd:	popa   
  4100fe:	add    BYTE PTR [ebx+0x0],ah
  410101:	imul   eax,DWORD PTR [eax],0x65
  410104:	add    BYTE PTR [eax+eax*1+0x20],dh
  410108:	add    BYTE PTR [esi+0x0],ah
  41010b:	outs   dx,DWORD PTR ds:[esi]
  41010c:	add    BYTE PTR [edx+0x0],dh
  41010f:	and    BYTE PTR [eax],al
  410111:	popa   
  410112:	add    BYTE PTR [ebx+0x0],dh
  410115:	jns    0x410117
  410117:	outs   dx,BYTE PTR ds:[esi]
  410118:	add    BYTE PTR [ebx+0x0],ah
  41011b:	and    BYTE PTR [eax],al
  41011d:	outs   dx,DWORD PTR ds:[esi]
  41011e:	add    BYTE PTR [eax+0x0],dh
  410121:	add    BYTE PTR gs:[edx+0x0],dh
  410125:	popa   
  410126:	add    BYTE PTR [eax+eax*1+0x69],dh
  41012a:	add    BYTE PTR [edi+0x0],ch
  41012d:	outs   dx,BYTE PTR ds:[esi]
  41012e:	add    BYTE PTR [esi],ch
  410130:	add    BYTE PTR [eax],ah
  410132:	add    BYTE PTR [ecx+0x0],cl
  410135:	add    BYTE PTR fs:[edx],bh
  410138:	add    BYTE PTR [eax],ah
  41013a:	add    BYTE PTR [ebx+0x0],bh
  41013d:	xor    BYTE PTR [eax],al
  41013f:	jge    0x410141
  410141:	sub    al,0x0
  410143:	and    BYTE PTR [eax],al
  410145:	push   ebx
  410146:	add    BYTE PTR [eax+eax*1+0x61],dh
  41014a:	add    BYTE PTR [eax+eax*1+0x75],dh
  41014e:	add    BYTE PTR [ebx+0x0],dh
  410151:	cmp    al,BYTE PTR [eax]
  410153:	and    BYTE PTR [eax],al
  410155:	jnp    0x410157
  410157:	xor    DWORD PTR [eax],eax
  410159:	jge    0x41015b
  41015b:	sub    al,0x0
  41015d:	and    BYTE PTR [eax],al
  41015f:	dec    ebp
  410160:	add    BYTE PTR [ebp+0x0],ah
  410163:	jae    0x410165
  410165:	jae    0x410167
  410167:	popa   
  410168:	add    BYTE PTR [edi+0x0],ah
  41016b:	add    BYTE PTR gs:[edx],bh
  41016e:	add    BYTE PTR [eax],ah
  410170:	add    BYTE PTR [ebx+0x0],bh
  410173:	xor    al,BYTE PTR [eax]
  410175:	jge    0x410177
  410177:	add    BYTE PTR [eax+0x650044a5],al
  41017d:	add    BYTE PTR [eax+0x0],dh
  410180:	ins    BYTE PTR es:[edi],dx
  410181:	add    BYTE PTR [edi+0x0],ch
  410184:	jns    0x410186
  410186:	inc    ecx
  410187:	add    BYTE PTR [eax+0x0],dh
  41018a:	jo     0x41018c
  41018c:	js     0x41018e
  41018e:	cmp    al,BYTE PTR [eax]
  410190:	and    BYTE PTR [eax],al
  410192:	push   ebx
  410193:	add    BYTE PTR [ebp+0x0],ah
  410196:	outs   dx,BYTE PTR ds:[esi]
  410197:	add    BYTE PTR [eax+eax*1+0x69],ah
  41019b:	add    BYTE PTR [esi+0x0],ch
  41019e:	add    BYTE PTR [bx+si],ah
  4101a1:	add    BYTE PTR [eax+eax*1+0x68],dh
  4101a5:	add    BYTE PTR [ebp+0x0],ah
  4101a8:	and    BYTE PTR [eax],al
  4101aa:	popa   
  4101ab:	add    BYTE PTR [ebx+0x0],dh
  4101ae:	jns    0x4101b0
  4101b0:	outs   dx,BYTE PTR ds:[esi]
  4101b1:	add    BYTE PTR [ebx+0x0],ah
  4101b4:	and    BYTE PTR [eax],al
  4101b6:	outs   dx,DWORD PTR ds:[esi]
  4101b7:	add    BYTE PTR [eax+0x0],dh
  4101ba:	add    BYTE PTR gs:[edx+0x0],dh
  4101be:	popa   
  4101bf:	add    BYTE PTR [eax+eax*1+0x69],dh
  4101c3:	add    BYTE PTR [edi+0x0],ch
  4101c6:	outs   dx,BYTE PTR ds:[esi]
  4101c7:	add    BYTE PTR [eax],ah
  4101c9:	add    BYTE PTR [ebx+0x0],dh
  4101cc:	je     0x4101ce
  4101ce:	popa   
  4101cf:	add    BYTE PTR [eax+eax*1+0x75],dh
  4101d3:	add    BYTE PTR [ebx+0x0],dh
  4101d6:	add    BYTE PTR cs:[eax],ah
  4101d9:	add    BYTE PTR [ecx+0x0],cl
  4101dc:	inc    esp
  4101dd:	add    BYTE PTR [edx],bh
  4101df:	add    BYTE PTR [eax],ah
  4101e1:	add    BYTE PTR [ebx+0x0],bh
  4101e4:	xor    BYTE PTR [eax],al
  4101e6:	jge    0x4101e8
  4101e8:	sub    al,0x0
  4101ea:	and    BYTE PTR [eax],al
  4101ec:	push   ebx
  4101ed:	add    BYTE PTR [eax+eax*1+0x61],dh
  4101f1:	add    BYTE PTR [eax+eax*1+0x75],dh
  4101f5:	add    BYTE PTR [ebx+0x0],dh
  4101f8:	cmp    al,BYTE PTR [eax]
  4101fa:	and    BYTE PTR [eax],al
  4101fc:	jnp    0x4101fe
  4101fe:	xor    DWORD PTR [eax],eax
  410200:	jge    0x410202
  410202:	sub    al,0x0
  410204:	and    BYTE PTR [eax],al
  410206:	dec    ebp
  410207:	add    BYTE PTR [ebp+0x0],ah
  41020a:	jae    0x41020c
  41020c:	jae    0x41020e
  41020e:	popa   
  41020f:	add    BYTE PTR [edi+0x0],ah
  410212:	add    BYTE PTR gs:[edx],bh
  410215:	add    BYTE PTR [eax],ah
  410217:	add    BYTE PTR [ebx+0x0],bh
  41021a:	xor    al,BYTE PTR [eax]
  41021c:	jge    0x41021e
  41021e:	add    BYTE PTR [eax+0x650044d9],al
  410224:	add    BYTE PTR [eax+0x0],dh
  410227:	ins    BYTE PTR es:[edi],dx
  410228:	add    BYTE PTR [edi+0x0],ch
  41022b:	jns    0x41022d
  41022d:	inc    ecx
  41022e:	add    BYTE PTR [eax+0x0],dh
  410231:	jo     0x410233
  410233:	js     0x410235
  410235:	add    BYTE PTR cs:[ebx+0x0],dl
  410239:	add    BYTE PTR gs:[esi+0x0],ch
  41023d:	add    BYTE PTR fs:[edi+0x0],cl
  410241:	jo     0x410243
  410243:	add    BYTE PTR gs:[edx+0x0],dh
  410247:	popa   
  410248:	add    BYTE PTR [eax+eax*1+0x69],dh
  41024c:	add    BYTE PTR [edi+0x0],ch
  41024f:	outs   dx,BYTE PTR ds:[esi]
  410250:	add    BYTE PTR [ebx+0x0],dl
  410253:	je     0x410255
  410255:	popa   
  410256:	add    BYTE PTR [eax+eax*1+0x75],dh
  41025a:	add    BYTE PTR [ebx+0x0],dh
  41025d:	cmp    al,BYTE PTR [eax]
  41025f:	inc    ebp
  410260:	add    BYTE PTR [edx+0x0],dh
  410263:	jb     0x410265
  410265:	outs   dx,DWORD PTR ds:[esi]
  410266:	add    BYTE PTR [edx+0x0],dh
  410269:	and    BYTE PTR [eax],al
  41026b:	outs   dx,DWORD PTR ds:[esi]
  41026c:	add    BYTE PTR [ebx+0x0],ah
  41026f:	arpl   WORD PTR [eax],ax
  410271:	jne    0x410273
  410273:	jb     0x410275
  410275:	jb     0x410277
  410277:	add    BYTE PTR gs:[eax+eax*1+0x20],ah
  41027c:	add    BYTE PTR [edi+0x0],dh
  41027f:	push   0x6c006900
  410284:	add    BYTE PTR [ebp+0x0],ah
  410287:	and    BYTE PTR [eax],al
  410289:	je     0x41028b
  41028b:	jb     0x41028d
  41028d:	jns    0x41028f
  41028f:	imul   eax,DWORD PTR [eax],0x67006e
  410295:	and    BYTE PTR [eax],al
  410297:	je     0x410299
  410299:	outs   dx,DWORD PTR ds:[esi]
  41029a:	add    BYTE PTR [eax],ah
  41029c:	add    BYTE PTR [ebx+0x0],dh
  41029f:	add    BYTE PTR gs:[esi+0x0],ch
  4102a3:	add    BYTE PTR fs:[eax],ah
  4102a6:	add    BYTE PTR [edi+0x0],ch
  4102a9:	jo     0x4102ab
  4102ab:	add    BYTE PTR gs:[edx+0x0],dh
  4102af:	popa   
  4102b0:	add    BYTE PTR [eax+eax*1+0x69],dh
  4102b4:	add    BYTE PTR [edi+0x0],ch
  4102b7:	outs   dx,BYTE PTR ds:[esi]
  4102b8:	add    BYTE PTR [eax],ah
  4102ba:	add    BYTE PTR [ebx+0x0],dh
  4102bd:	je     0x4102bf
  4102bf:	popa   
  4102c0:	add    BYTE PTR [eax+eax*1+0x75],dh
  4102c4:	add    BYTE PTR [ebx+0x0],dh
  4102c7:	and    BYTE PTR [eax],al
  4102c9:	je     0x4102cb
  4102cb:	outs   dx,DWORD PTR ds:[esi]
  4102cc:	add    BYTE PTR [eax],ah
  4102ce:	add    BYTE PTR [ebx+0x0],ah
  4102d1:	ins    BYTE PTR es:[edi],dx
  4102d2:	add    BYTE PTR [ecx+0x0],ch
  4102d5:	add    BYTE PTR gs:[esi+0x0],ch
  4102d9:	je     0x4102db
  4102db:	add    BYTE PTR cs:[eax],ah
  4102de:	add    BYTE PTR [ebp+0x0],al
  4102e1:	js     0x4102e3
  4102e3:	arpl   WORD PTR [eax],ax
  4102e5:	add    BYTE PTR gs:[eax+0x0],dh
  4102e9:	je     0x4102eb
  4102eb:	imul   eax,DWORD PTR [eax],0x6e006f
  4102f1:	and    BYTE PTR [eax],al
  4102f3:	jnp    0x4102f5
  4102f5:	xor    BYTE PTR [eax],al
  4102f7:	jge    0x4102f9
  4102f9:	add    BYTE PTR [ebx+0x44],bl
  4102fc:	add    BYTE PTR [ebp+0x0],ah
  4102ff:	jo     0x410301
  410301:	ins    BYTE PTR es:[edi],dx
  410302:	add    BYTE PTR [edi+0x0],ch
  410305:	jns    0x410307
  410307:	inc    ecx
  410308:	add    BYTE PTR [eax+0x0],dh
  41030b:	jo     0x41030d
  41030d:	js     0x41030f
  41030f:	cmp    al,BYTE PTR [eax]
  410311:	and    BYTE PTR [eax],al
  410313:	push   ebx
  410314:	add    BYTE PTR [eax+eax*1+0x61],dh
  410318:	add    BYTE PTR [eax+eax*1+0x65],dh
  41031c:	add    BYTE PTR [eax],ah
  41031e:	add    BYTE PTR [edi+0x0],ch
  410321:	data16 add BYTE PTR [eax],ah
  410324:	add    BYTE PTR [ebx+0x0],ah
  410327:	popa   
  410328:	add    BYTE PTR [eax+eax*1+0x6c],ch
  41032c:	add    BYTE PTR [edx+0x0],ah
  41032f:	popa   
  410330:	add    BYTE PTR [ebx+0x0],ah
  410333:	imul   eax,DWORD PTR [eax],0x20
  410336:	add    BYTE PTR [ebx+0x0],ah
  410339:	push   0x6e006100
  41033e:	add    BYTE PTR [esi+0x0],ch
  410341:	add    BYTE PTR gs:[eax+eax*1+0x20],ch
  410346:	add    BYTE PTR [ecx+0x0],ch
  410349:	jae    0x41034b
  41034b:	cmp    al,BYTE PTR [eax]
  41034d:	and    BYTE PTR [eax],al
  41034f:	jnp    0x410351
  410351:	xor    BYTE PTR [eax],al
  410353:	jge    0x410355
  410355:	add    BYTE PTR [ecx+0x6500440b],al
  41035b:	add    BYTE PTR [eax+0x0],dh
  41035e:	ins    BYTE PTR es:[edi],dx
  41035f:	add    BYTE PTR [edi+0x0],ch
  410362:	jns    0x410364
  410364:	inc    ecx
  410365:	add    BYTE PTR [eax+0x0],dh
  410368:	jo     0x41036a
  41036a:	js     0x41036c
  41036c:	cmp    al,BYTE PTR [eax]
  41036e:	and    BYTE PTR [eax],al
  410370:	inc    esp
  410371:	add    BYTE PTR [edx+0x0],dh
  410374:	outs   dx,DWORD PTR ds:[esi]
  410375:	add    BYTE PTR [eax+0x0],dh
  410378:	jo     0x41037a
  41037a:	imul   eax,DWORD PTR [eax],0x67006e
  410380:	and    BYTE PTR [eax],al
  410382:	jae    0x410384
  410384:	je     0x410386
  410386:	popa   
  410387:	add    BYTE PTR [eax+eax*1+0x75],dh
  41038b:	add    BYTE PTR [ebx+0x0],dh
  41038e:	and    BYTE PTR [eax],al
  410390:	jo     0x410392
  410392:	popa   
  410393:	add    BYTE PTR [ebx+0x0],ah
  410396:	imul   eax,DWORD PTR [eax],0x65
  410399:	add    BYTE PTR [eax+eax*1+0x20],dh
  41039d:	add    BYTE PTR [esi+0x0],ah
  4103a0:	outs   dx,DWORD PTR ds:[esi]
  4103a1:	add    BYTE PTR [edx+0x0],dh
  4103a4:	and    BYTE PTR [eax],al
  4103a6:	popa   
  4103a7:	add    BYTE PTR [ebx+0x0],dh
  4103aa:	jns    0x4103ac
  4103ac:	outs   dx,BYTE PTR ds:[esi]
  4103ad:	add    BYTE PTR [ebx+0x0],ah
  4103b0:	and    BYTE PTR [eax],al
  4103b2:	outs   dx,DWORD PTR ds:[esi]
  4103b3:	add    BYTE PTR [eax+0x0],dh
  4103b6:	add    BYTE PTR gs:[edx+0x0],dh
  4103ba:	popa   
  4103bb:	add    BYTE PTR [eax+eax*1+0x69],dh
  4103bf:	add    BYTE PTR [edi+0x0],ch
  4103c2:	outs   dx,BYTE PTR ds:[esi]
  4103c3:	add    BYTE PTR [eax],ah
  4103c5:	add    BYTE PTR [ecx+0x0],ah
  4103c8:	jae    0x4103ca
  4103ca:	and    BYTE PTR [eax],al
  4103cc:	je     0x4103ce
  4103ce:	push   0x20006500
  4103d3:	add    BYTE PTR [ebx+0x0],ah
  4103d6:	popa   
  4103d7:	add    BYTE PTR [eax+eax*1+0x6c],ch
  4103db:	add    BYTE PTR [edx+0x0],ah
  4103de:	popa   
  4103df:	add    BYTE PTR [ebx+0x0],ah
  4103e2:	imul   eax,DWORD PTR [eax],0x20
  4103e5:	add    BYTE PTR [ebx+0x0],ah
  4103e8:	push   0x6e006100
  4103ed:	add    BYTE PTR [esi+0x0],ch
  4103f0:	add    BYTE PTR gs:[eax+eax*1+0x20],ch
  4103f5:	add    BYTE PTR [ecx+0x0],ch
  4103f8:	jae    0x4103fa
  4103fa:	and    BYTE PTR [eax],al
  4103fc:	imul   eax,DWORD PTR [eax],0x20006e
  410402:	data16 add BYTE PTR [ecx+0x0],ah
  410406:	jne    0x410408
  410408:	ins    BYTE PTR es:[edi],dx
  410409:	add    BYTE PTR [eax+eax*1+0x65],dh
  41040d:	add    BYTE PTR [eax+eax*1+0x20],ah
  410411:	add    BYTE PTR [ebx+0x0],dh
  410414:	je     0x410416
  410416:	popa   
  410417:	add    BYTE PTR [eax+eax*1+0x65],dh
  41041b:	add    BYTE PTR [esi],ch
  41041d:	add    BYTE PTR [eax],ah
  41041f:	add    BYTE PTR [ecx+0x0],cl
  410422:	add    BYTE PTR fs:[edx],bh
  410425:	add    BYTE PTR [ebx+0x0],bh
  410428:	xor    BYTE PTR [eax],al
  41042a:	jge    0x41042c
  41042c:	sub    al,0x0
  41042e:	and    BYTE PTR [eax],al
  410430:	push   ebx
  410431:	add    BYTE PTR [eax+eax*1+0x61],dh
  410435:	add    BYTE PTR [eax+eax*1+0x75],dh
  410439:	add    BYTE PTR [ebx+0x0],dh
  41043c:	cmp    al,BYTE PTR [eax]
  41043e:	and    BYTE PTR [eax],al
  410440:	jnp    0x410442
  410442:	xor    DWORD PTR [eax],eax
  410444:	jge    0x410446
  410446:	sub    al,0x0
  410448:	and    BYTE PTR [eax],al
  41044a:	dec    ebp
  41044b:	add    BYTE PTR [ebp+0x0],ah
  41044e:	jae    0x410450
  410450:	jae    0x410452
  410452:	popa   
  410453:	add    BYTE PTR [edi+0x0],ah
  410456:	add    BYTE PTR gs:[edx],bh
  410459:	add    BYTE PTR [eax],ah
  41045b:	add    BYTE PTR [ebx+0x0],bh
  41045e:	xor    al,BYTE PTR [eax]
  410460:	jge    0x410462
  410462:	add    BYTE PTR [eax+0x65004485],al
  410468:	add    BYTE PTR [eax+0x0],dh
  41046b:	ins    BYTE PTR es:[edi],dx
  41046c:	add    BYTE PTR [edi+0x0],ch
  41046f:	jns    0x410471
  410471:	inc    ecx
  410472:	add    BYTE PTR [eax+0x0],dh
  410475:	jo     0x410477
  410477:	js     0x410479
  410479:	cmp    al,BYTE PTR [eax]
  41047b:	and    BYTE PTR [eax],al
  41047d:	inc    ebx
  41047e:	add    BYTE PTR [eax+0x0],ch
  410481:	add    BYTE PTR gs:[ebx+0x0],ah
  410485:	imul   eax,DWORD PTR [eax],0x69
  410488:	add    BYTE PTR [esi+0x0],ch
  41048b:	add    BYTE PTR [bx+si],ah
  41048e:	add    BYTE PTR [ecx+0x0],ch
  410491:	data16 add BYTE PTR [eax],ah
  410494:	add    BYTE PTR [eax+eax*1+0x68],dh
  410498:	add    BYTE PTR [ebp+0x0],ah
  41049b:	and    BYTE PTR [eax],al
  41049d:	je     0x41049f
  41049f:	add    BYTE PTR gs:[ebx+0x0],dh
  4104a3:	je     0x4104a5
  4104a5:	and    BYTE PTR [eax],al
  4104a7:	arpl   WORD PTR [eax],ax
  4104a9:	add    BYTE PTR gs:[edx+0x0],dh
  4104ad:	je     0x4104af
  4104af:	jae    0x4104b1
  4104b1:	and    BYTE PTR [eax],al
  4104b3:	popa   
  4104b4:	add    BYTE PTR [edx+0x0],dh
  4104b7:	add    BYTE PTR gs:[eax],ah
  4104ba:	add    BYTE PTR [ecx+0x0],ch
  4104bd:	outs   dx,BYTE PTR ds:[esi]
  4104be:	add    BYTE PTR [ebx+0x0],dh
  4104c1:	je     0x4104c3
  4104c3:	popa   
  4104c4:	add    BYTE PTR [eax+eax*1+0x6c],ch
  4104c8:	add    BYTE PTR [ebp+0x0],ah
  4104cb:	add    BYTE PTR fs:[eax],ah
  4104ce:	add    BYTE PTR [esi+0x0],ah
  4104d1:	outs   dx,DWORD PTR ds:[esi]
  4104d2:	add    BYTE PTR [edx+0x0],dh
  4104d5:	and    BYTE PTR [eax],al
  4104d7:	data16 add BYTE PTR [ecx+0x0],ch
  4104db:	ins    BYTE PTR es:[edi],dx
  4104dc:	add    BYTE PTR [ebp+0x0],ah
  4104df:	cmp    al,BYTE PTR [eax]
  4104e1:	and    BYTE PTR [eax],al
  4104e3:	jnp    0x4104e5
  4104e5:	xor    BYTE PTR [eax],al
  4104e7:	jge    0x4104e9
  4104e9:	add    BYTE PTR [eax+0x65004493],al
  4104ef:	add    BYTE PTR [eax+0x0],dh
  4104f2:	ins    BYTE PTR es:[edi],dx
  4104f3:	add    BYTE PTR [edi+0x0],ch
  4104f6:	jns    0x4104f8
  4104f8:	inc    ecx
  4104f9:	add    BYTE PTR [eax+0x0],dh
  4104fc:	jo     0x4104fe
  4104fe:	js     0x410500
  410500:	cmp    al,BYTE PTR [eax]
  410502:	and    BYTE PTR [eax],al
  410504:	dec    esi
  410505:	add    BYTE PTR [ebp+0x0],dh
  410508:	ins    BYTE PTR es:[edi],dx
  410509:	add    BYTE PTR [eax+eax*1+0x20],ch
  41050d:	add    BYTE PTR [ebx+0x0],ah
  410510:	add    BYTE PTR gs:[edx+0x0],dh
  410514:	je     0x410516
  410516:	imul   eax,DWORD PTR [eax],0x690066
  41051c:	arpl   WORD PTR [eax],ax
  41051e:	popa   
  41051f:	add    BYTE PTR [eax+eax*1+0x65],dh
  410523:	add    BYTE PTR [esi+0x0],al
  410526:	imul   eax,DWORD PTR [eax],0x65006c
  41052c:	dec    esi
  41052d:	add    BYTE PTR [ecx+0x0],ah
  410530:	ins    DWORD PTR es:[edi],dx
  410531:	add    BYTE PTR [ebp+0x0],ah
  410534:	and    BYTE PTR [eax],al
  410536:	jo     0x410538
  410538:	popa   
  410539:	add    BYTE PTR [ebx+0x0],dh
  41053c:	jae    0x41053e
  41053e:	add    BYTE PTR gs:[eax+eax*1+0x20],ah
  410543:	add    BYTE PTR [eax+eax*1+0x6f],dh
  410547:	add    BYTE PTR [eax],ah
  410549:	add    BYTE PTR [ecx+0x0],cl
  41054c:	jae    0x41054e
  41054e:	push   esp
  41054f:	add    BYTE PTR [ebp+0x0],ah
  410552:	jae    0x410554
  410554:	je     0x410556
  410556:	inc    ebx
  410557:	add    BYTE PTR [ebp+0x0],ah
  41055a:	jb     0x41055c
  41055c:	je     0x41055e
  41055e:	imul   eax,DWORD PTR [eax],0x690066
  410564:	arpl   WORD PTR [eax],ax
  410566:	popa   
  410567:	add    BYTE PTR [eax+eax*1+0x65],dh
  41056b:	add    BYTE PTR [ecx+0x0],cl
  41056e:	outs   dx,BYTE PTR ds:[esi]
  41056f:	add    BYTE PTR [ebx+0x0],dh
  410572:	je     0x410574
  410574:	popa   
  410575:	add    BYTE PTR [eax+eax*1+0x6c],ch
  410579:	add    BYTE PTR [ebp+0x0],ah
  41057c:	add    BYTE PTR fs:[eax],al
  41057f:	daa    
  410580:	arpl   WORD PTR [eax],ax
  410582:	add    BYTE PTR gs:[edx+0x0],dh
  410586:	je     0x410588
  410588:	imul   eax,DWORD PTR [eax],0x690066
  41058e:	arpl   WORD PTR [eax],ax
  410590:	popa   
  410591:	add    BYTE PTR [eax+eax*1+0x65],dh
  410595:	add    BYTE PTR [esi+0x0],al
  410598:	imul   eax,DWORD PTR [eax],0x65006c
  41059e:	dec    esi
  41059f:	add    BYTE PTR [ecx+0x0],ah
  4105a2:	ins    DWORD PTR es:[edi],dx
  4105a3:	add    BYTE PTR [ebp+0x0],ah
  4105a6:	add    BYTE PTR [ebp+0x44],bl
  4105a9:	add    BYTE PTR [ebp+0x0],ah
  4105ac:	jo     0x4105ae
  4105ae:	ins    BYTE PTR es:[edi],dx
  4105af:	add    BYTE PTR [edi+0x0],ch
  4105b2:	jns    0x4105b4
  4105b4:	inc    ecx
  4105b5:	add    BYTE PTR [eax+0x0],dh
  4105b8:	jo     0x4105ba
  4105ba:	js     0x4105bc
  4105bc:	cmp    al,BYTE PTR [eax]
  4105be:	and    BYTE PTR [eax],al
  4105c0:	inc    ebx
  4105c1:	add    BYTE PTR [ecx+0x0],ah
  4105c4:	jne    0x4105c6
  4105c6:	add    BYTE PTR [bx+si+0x0],ch
  4105ca:	je     0x4105cc
  4105cc:	and    BYTE PTR [eax],al
  4105ce:	inc    ebx
  4105cf:	add    BYTE PTR [edx+0x0],dh
  4105d2:	jns    0x4105d4
  4105d4:	jo     0x4105d6
  4105d6:	je     0x4105d8
  4105d8:	outs   dx,DWORD PTR ds:[esi]
  4105d9:	add    BYTE PTR [edi+0x0],ah
  4105dc:	jb     0x4105de
  4105de:	popa   
  4105df:	add    BYTE PTR [eax+0x0],dh
  4105e2:	push   0x63006900
  4105e7:	add    BYTE PTR [ebp+0x0],al
  4105ea:	js     0x4105ec
  4105ec:	arpl   WORD PTR [eax],ax
  4105ee:	add    BYTE PTR gs:[eax+0x0],dh
  4105f2:	je     0x4105f4
  4105f4:	imul   eax,DWORD PTR [eax],0x6e006f
  4105fa:	cmp    al,BYTE PTR [eax]
  4105fc:	and    BYTE PTR [eax],al
  4105fe:	jnp    0x410600
  410600:	xor    BYTE PTR [eax],al
  410602:	jge    0x410604
  410604:	add    BYTE PTR [ebp+0x44],cl
  410607:	add    BYTE PTR [ebp+0x0],ah
  41060a:	jo     0x41060c
  41060c:	ins    BYTE PTR es:[edi],dx
  41060d:	add    BYTE PTR [edi+0x0],ch
  410610:	jns    0x410612
  410612:	inc    ecx
  410613:	add    BYTE PTR [eax+0x0],dh
  410616:	jo     0x410618
  410618:	js     0x41061a
  41061a:	cmp    al,BYTE PTR [eax]
  41061c:	and    BYTE PTR [eax],al
  41061e:	inc    ebx
  41061f:	add    BYTE PTR [eax+eax*1+0x6f],ch
  410623:	add    BYTE PTR [ebx+0x0],dh
  410626:	imul   eax,DWORD PTR [eax],0x67006e
  41062c:	and    BYTE PTR [eax],al
  41062e:	arpl   WORD PTR [eax],ax
  410630:	add    BYTE PTR gs:[edx+0x0],dh
  410634:	je     0x410636
  410636:	imul   eax,DWORD PTR [eax],0x690066
  41063c:	arpl   WORD PTR [eax],ax
  41063e:	popa   
  41063f:	add    BYTE PTR [eax+eax*1+0x65],dh
  410643:	add    BYTE PTR [eax],ah
  410645:	add    BYTE PTR [ebx+0x0],dh
  410648:	je     0x41064a
  41064a:	outs   dx,DWORD PTR ds:[esi]
  41064b:	add    BYTE PTR [edx+0x0],dh
  41064e:	add    BYTE PTR gs:[esi],ch
  410651:	add    BYTE PTR [eax],al
  410653:	popa   
  410654:	inc    esp
  410655:	add    BYTE PTR [ebp+0x0],ah
  410658:	jo     0x41065a
  41065a:	ins    BYTE PTR es:[edi],dx
  41065b:	add    BYTE PTR [edi+0x0],ch
  41065e:	jns    0x410660
  410660:	inc    ecx
  410661:	add    BYTE PTR [eax+0x0],dh
  410664:	jo     0x410666
  410666:	js     0x410668
  410668:	cmp    al,BYTE PTR [eax]
  41066a:	and    BYTE PTR [eax],al
  41066c:	dec    ecx
  41066d:	add    BYTE PTR [esi+0x0],ch
  410670:	jae    0x410672
  410672:	je     0x410674
  410674:	popa   
  410675:	add    BYTE PTR [eax+eax*1+0x6c],ch
  410679:	add    BYTE PTR [ecx+0x0],ch
  41067c:	outs   dx,BYTE PTR ds:[esi]
  41067d:	add    BYTE PTR [edi+0x0],ah
  410680:	and    BYTE PTR [eax],al
  410682:	je     0x410684
  410684:	push   0x20006500
  410689:	add    BYTE PTR [eax+eax*1+0x65],dh
  41068d:	add    BYTE PTR [ebx+0x0],dh
  410690:	je     0x410692
  410692:	and    BYTE PTR [eax],al
  410694:	arpl   WORD PTR [eax],ax
  410696:	add    BYTE PTR gs:[edx+0x0],dh
  41069a:	je     0x41069c
  41069c:	imul   eax,DWORD PTR [eax],0x690066
  4106a2:	arpl   WORD PTR [eax],ax
  4106a4:	popa   
  4106a5:	add    BYTE PTR [eax+eax*1+0x65],dh
  4106a9:	add    BYTE PTR [edx],bh
  4106ab:	add    BYTE PTR [eax],ah
  4106ad:	add    BYTE PTR [ebx+0x0],bh
  4106b0:	xor    BYTE PTR [eax],al
  4106b2:	jge    0x4106b4
  4106b4:	add    BYTE PTR [ebx],ah
  4106b6:	inc    ebx
  4106b7:	add    BYTE PTR [ebp+0x0],ah
  4106ba:	jb     0x4106bc
  4106bc:	je     0x4106be
  4106be:	dec    ecx
  4106bf:	add    BYTE PTR [esi+0x0],ch
  4106c2:	jae    0x4106c4
  4106c4:	je     0x4106c6
  4106c6:	popa   
  4106c7:	add    BYTE PTR [eax+eax*1+0x6c],ch
  4106cb:	add    BYTE PTR [ebp+0x0],ah
  4106ce:	jb     0x4106d0
  4106d0:	add    BYTE PTR cs:[ebp+0x0],ah
  4106d4:	js     0x4106d6
  4106d6:	add    BYTE PTR gs:[eax],al
  4106d9:	push   ecx
  4106da:	inc    esp
  4106db:	add    BYTE PTR [ebp+0x0],ah
  4106de:	jo     0x4106e0
  4106e0:	ins    BYTE PTR es:[edi],dx
  4106e1:	add    BYTE PTR [edi+0x0],ch
  4106e4:	jns    0x4106e6
  4106e6:	inc    ecx
  4106e7:	add    BYTE PTR [eax+0x0],dh
  4106ea:	jo     0x4106ec
  4106ec:	js     0x4106ee
  4106ee:	cmp    al,BYTE PTR [eax]
  4106f0:	and    BYTE PTR [eax],al
  4106f2:	inc    ebx
  4106f3:	add    BYTE PTR [ebp+0x0],ah
  4106f6:	jb     0x4106f8
  4106f8:	je     0x4106fa
  4106fa:	dec    ecx
  4106fb:	add    BYTE PTR [esi+0x0],ch
  4106fe:	jae    0x410700
  410700:	je     0x410702
  410702:	popa   
  410703:	add    BYTE PTR [eax+eax*1+0x6c],ch
  410707:	add    BYTE PTR [ebp+0x0],ah
  41070a:	jb     0x41070c
  41070c:	add    BYTE PTR cs:[ebp+0x0],ah
  410710:	js     0x410712
  410712:	add    BYTE PTR gs:[eax],ah
  410715:	add    BYTE PTR [esi+0x0],ch
  410718:	outs   dx,DWORD PTR ds:[esi]
  410719:	add    BYTE PTR [eax+eax*1+0x20],dh
  41071d:	add    BYTE PTR [esi+0x0],ah
  410720:	outs   dx,DWORD PTR ds:[esi]
  410721:	add    BYTE PTR [ebp+0x0],dh
  410724:	outs   dx,BYTE PTR ds:[esi]
  410725:	add    BYTE PTR [eax+eax*1+0x2e],ah
  410729:	add    BYTE PTR [eax],al
  41072b:	xor    DWORD PTR [esi+0x0],eax
  41072e:	imul   eax,DWORD PTR [eax],0x65006c
  410734:	and    BYTE PTR [eax],al
  410736:	jnp    0x410738
  410738:	xor    BYTE PTR [eax],al
  41073a:	jge    0x41073c
  41073c:	and    BYTE PTR [eax],al
  41073e:	add    BYTE PTR fs:[edi+0x0],ch
  410742:	add    BYTE PTR gs:[ebx+0x0],dh
  410746:	and    BYTE PTR [eax],al
  410748:	outs   dx,BYTE PTR ds:[esi]
  410749:	add    BYTE PTR [edi+0x0],ch
  41074c:	je     0x41074e
  41074e:	and    BYTE PTR [eax],al
  410750:	add    BYTE PTR gs:[eax+0x0],bh
  410754:	imul   eax,DWORD PTR [eax],0x740073
  41075a:	add    BYTE PTR cs:[eax],al
  41075d:	push   edi
  41075e:	push   esp
  41075f:	add    BYTE PTR [ebp+0x0],ah
  410762:	jae    0x410764
  410764:	je     0x410766
  410766:	and    BYTE PTR [eax],al
  410768:	inc    ebx
  410769:	add    BYTE PTR [ebx+0x0],ah
  41076c:	add    BYTE PTR gs:[edx+0x0],dh
  410770:	je     0x410772
  410772:	imul   eax,DWORD PTR [eax],0x690066
  410778:	arpl   WORD PTR [eax],ax
  41077a:	popa   
  41077b:	add    BYTE PTR [eax+eax*1+0x65],dh
  41077f:	add    BYTE PTR [eax],ah
  410781:	add    BYTE PTR [ebx+0x0],bh
  410784:	xor    BYTE PTR [eax],al
  410786:	jge    0x410788
  410788:	and    BYTE PTR [eax],al
  41078a:	imul   eax,DWORD PTR [eax],0x200073
  410790:	popa   
  410791:	add    BYTE PTR [eax+eax*1+0x72],ch
  410795:	add    BYTE PTR [ebp+0x0],ah
  410798:	popa   
  410799:	add    BYTE PTR [eax+eax*1+0x79],ah
  41079d:	add    BYTE PTR [eax],ah
  41079f:	add    BYTE PTR [ecx+0x0],ch
  4107a2:	outs   dx,BYTE PTR ds:[esi]
  4107a3:	add    BYTE PTR [ebx+0x0],dh
  4107a6:	je     0x4107a8
  4107a8:	popa   
  4107a9:	add    BYTE PTR [eax+eax*1+0x6c],ch
  4107ad:	add    BYTE PTR [ebp+0x0],ah
  4107b0:	add    BYTE PTR fs:[esi],ch
  4107b3:	add    BYTE PTR [eax],al
  4107b5:	imul   eax,DWORD PTR [eax+eax*1+0x65],0x0
  4107ba:	jo     0x4107bc
  4107bc:	ins    BYTE PTR es:[edi],dx
  4107bd:	add    BYTE PTR [edi+0x0],ch
  4107c0:	jns    0x4107c2
  4107c2:	inc    ecx
  4107c3:	add    BYTE PTR [eax+0x0],dh
  4107c6:	jo     0x4107c8
  4107c8:	js     0x4107ca
  4107ca:	cmp    al,BYTE PTR [eax]
  4107cc:	and    BYTE PTR [eax],al
  4107ce:	push   eax
  4107cf:	add    BYTE PTR [edx+0x0],dh
  4107d2:	outs   dx,DWORD PTR ds:[esi]
  4107d3:	add    BYTE PTR [ebx+0x0],ah
  4107d6:	add    BYTE PTR gs:[ebx+0x0],dh
  4107da:	jae    0x4107dc
  4107dc:	and    BYTE PTR [eax],al
  4107de:	imul   eax,DWORD PTR [eax],0x200064
  4107e4:	data16 add BYTE PTR [edi+0x0],ch
  4107e8:	jb     0x4107ea
  4107ea:	and    BYTE PTR [eax],al
  4107ec:	arpl   WORD PTR [eax],ax
  4107ee:	add    BYTE PTR gs:[edx+0x0],dh
  4107f2:	je     0x4107f4
  4107f4:	imul   eax,DWORD PTR [eax],0x73006e
  4107fa:	je     0x4107fc
  4107fc:	popa   
  4107fd:	add    BYTE PTR [eax+eax*1+0x6c],ch
  410801:	add    BYTE PTR [ebp+0x0],ah
  410804:	jb     0x410806
  410806:	add    BYTE PTR cs:[ebp+0x0],ah
  41080a:	js     0x41080c
  41080c:	add    BYTE PTR gs:[eax],ah
  41080f:	add    BYTE PTR [ecx+0x0],ch
  410812:	jae    0x410814
  410814:	and    BYTE PTR [eax],al
  410816:	cmp    al,BYTE PTR [eax]
  410818:	and    BYTE PTR [eax],al
  41081a:	jnp    0x41081c
  41081c:	xor    BYTE PTR [eax],al
  41081e:	jge    0x410820
  410820:	add    BYTE PTR [ecx+0x44],dh
  410823:	add    BYTE PTR [ebp+0x0],ah
  410826:	jo     0x410828
  410828:	ins    BYTE PTR es:[edi],dx
  410829:	add    BYTE PTR [edi+0x0],ch
  41082c:	jns    0x41082e
  41082e:	inc    ecx
  41082f:	add    BYTE PTR [eax+0x0],dh
  410832:	jo     0x410834
  410834:	js     0x410836
  410836:	cmp    al,BYTE PTR [eax]
  410838:	and    BYTE PTR [eax],al
  41083a:	arpl   WORD PTR [eax],ax
  41083c:	add    BYTE PTR gs:[edx+0x0],dh
  410840:	je     0x410842
  410842:	imul   eax,DWORD PTR [eax],0x73006e
  410848:	je     0x41084a
  41084a:	popa   
  41084b:	add    BYTE PTR [eax+eax*1+0x6c],ch
  41084f:	add    BYTE PTR [ebp+0x0],ah
  410852:	jb     0x410854
  410854:	add    BYTE PTR cs:[ebp+0x0],ah
  410858:	js     0x41085a
  41085a:	add    BYTE PTR gs:[eax],ah
  41085d:	add    BYTE PTR [ebp+0x0],ah
  410860:	js     0x410862
  410862:	imul   eax,DWORD PTR [eax],0x690074
  410868:	add    BYTE PTR gs:[eax+eax*1+0x20],ah
  41086d:	add    BYTE PTR [edi+0x0],dh
  410870:	imul   eax,DWORD PTR [eax],0x680074
  410876:	and    BYTE PTR [eax],al
  410878:	add    BYTE PTR gs:[eax+0x0],bh
  41087c:	imul   eax,DWORD PTR [eax],0x430074
  410882:	outs   dx,DWORD PTR ds:[esi]
  410883:	add    BYTE PTR [eax+eax*1+0x65],ah
  410887:	add    BYTE PTR [edx],bh
  410889:	add    BYTE PTR [eax],ah
  41088b:	add    BYTE PTR [ebx+0x0],bh
  41088e:	xor    BYTE PTR [eax],al
  410890:	jge    0x410892
  410892:	add    BYTE PTR [ebx],ch
  410894:	inc    ebx
  410895:	add    BYTE PTR [ebp+0x0],ah
  410898:	jb     0x41089a
  41089a:	je     0x41089c
  41089c:	dec    ecx
  41089d:	add    BYTE PTR [esi+0x0],ch
  4108a0:	jae    0x4108a2
  4108a2:	je     0x4108a4
  4108a4:	popa   
  4108a5:	add    BYTE PTR [eax+eax*1+0x6c],ch
  4108a9:	add    BYTE PTR [ebp+0x0],ah
  4108ac:	jb     0x4108ae
  4108ae:	pop    edi
  4108af:	add    BYTE PTR [ebx+0x0],bh
  4108b2:	xor    BYTE PTR [eax],al
  4108b4:	jge    0x4108b6
  4108b6:	add    BYTE PTR cs:[eax+eax*1+0x6f],ch
  4108bb:	add    BYTE PTR [edi+0x0],ah
  4108be:	add    BYTE PTR [ebx+0x44],al
  4108c1:	add    BYTE PTR [ebp+0x0],ah
  4108c4:	jo     0x4108c6
  4108c6:	ins    BYTE PTR es:[edi],dx
  4108c7:	add    BYTE PTR [edi+0x0],ch
  4108ca:	jns    0x4108cc
  4108cc:	inc    ecx
  4108cd:	add    BYTE PTR [eax+0x0],dl
  4108d0:	jo     0x4108d2
  4108d2:	js     0x4108d4
  4108d4:	cmp    al,BYTE PTR [eax]
  4108d6:	and    BYTE PTR [eax],al
  4108d8:	dec    edi
  4108d9:	add    BYTE PTR [eax+0x0],dh
  4108dc:	add    BYTE PTR gs:[esi+0x0],ch
  4108e0:	imul   eax,DWORD PTR [eax],0x67006e
  4108e6:	and    BYTE PTR [eax],al
  4108e8:	ins    BYTE PTR es:[edi],dx
  4108e9:	add    BYTE PTR [edi+0x0],ch
  4108ec:	add    BYTE PTR [bx+si],ah
  4108ef:	add    BYTE PTR [esi+0x0],ah
  4108f2:	imul   eax,DWORD PTR [eax],0x65006c
  4108f8:	cmp    al,BYTE PTR [eax]
  4108fa:	and    BYTE PTR [eax],al
  4108fc:	jnp    0x4108fe
  4108fe:	xor    BYTE PTR [eax],al
  410900:	jge    0x410902
  410902:	add    BYTE PTR [ecx+0x44],dl
  410905:	add    BYTE PTR [ebp+0x0],ah
  410908:	jo     0x41090a
  41090a:	ins    BYTE PTR es:[edi],dx
  41090b:	add    BYTE PTR [edi+0x0],ch
  41090e:	jns    0x410910
  410910:	inc    ecx
  410911:	add    BYTE PTR [eax+0x0],dh
  410914:	jo     0x410916
  410916:	js     0x410918
  410918:	cmp    al,BYTE PTR [eax]
  41091a:	and    BYTE PTR [eax],al
  41091c:	dec    esp
  41091d:	add    BYTE PTR [edi+0x0],ch
  410920:	add    BYTE PTR [bx+si],ah
  410923:	add    BYTE PTR [esi+0x0],ah
  410926:	imul   eax,DWORD PTR [eax],0x65006c
  41092c:	and    BYTE PTR [eax],al
  41092e:	jnp    0x410930
  410930:	xor    BYTE PTR [eax],al
  410932:	jge    0x410934
  410934:	and    BYTE PTR [eax],al
  410936:	add    BYTE PTR fs:[edi+0x0],ch
  41093a:	add    BYTE PTR gs:[ebx+0x0],dh
  41093e:	and    BYTE PTR [eax],al
  410940:	outs   dx,BYTE PTR ds:[esi]
  410941:	add    BYTE PTR [edi+0x0],ch
  410944:	je     0x410946
  410946:	and    BYTE PTR [eax],al
  410948:	add    BYTE PTR gs:[eax+0x0],bh
  41094c:	imul   eax,DWORD PTR [eax],0x740073
  410952:	add    BYTE PTR cs:[eax],al
  410955:	jne    0x41099b
  410957:	add    BYTE PTR [ebp+0x0],ah
  41095a:	jo     0x41095c
  41095c:	ins    BYTE PTR es:[edi],dx
  41095d:	add    BYTE PTR [edi+0x0],ch
  410960:	jns    0x410962
  410962:	inc    ecx
  410963:	add    BYTE PTR [eax+0x0],dh
  410966:	jo     0x410968
  410968:	js     0x41096a
  41096a:	cmp    al,BYTE PTR [eax]
  41096c:	and    BYTE PTR [eax],al
  41096e:	inc    edi
  41096f:	add    BYTE PTR [edi+0x0],ch
  410972:	je     0x410974
  410974:	and    BYTE PTR [eax],al
  410976:	data16 add BYTE PTR [edi+0x0],ch
  41097a:	ins    BYTE PTR es:[edi],dx
  41097b:	add    BYTE PTR [eax+eax*1+0x6f],ch
  41097f:	add    BYTE PTR [edi+0x0],dh
  410982:	imul   eax,DWORD PTR [eax],0x67006e
  410988:	and    BYTE PTR [eax],al
  41098a:	add    BYTE PTR gs:[edx+0x0],dh
  41098e:	jb     0x410990
  410990:	outs   dx,DWORD PTR ds:[esi]
  410991:	add    BYTE PTR [edx+0x0],dh
  410994:	and    BYTE PTR [eax],al
  410996:	ins    DWORD PTR es:[edi],dx
  410997:	add    BYTE PTR [ebp+0x0],ah
  41099a:	jae    0x41099c
  41099c:	jae    0x41099e
  41099e:	popa   
  41099f:	add    BYTE PTR [edi+0x0],ah
  4109a2:	add    BYTE PTR gs:[eax],ah
  4109a5:	add    BYTE PTR [esi+0x0],ah
  4109a8:	jb     0x4109aa
  4109aa:	outs   dx,DWORD PTR ds:[esi]
  4109ab:	add    BYTE PTR [ebp+0x0],ch
  4109ae:	and    BYTE PTR [eax],al
  4109b0:	ins    BYTE PTR es:[edi],dx
  4109b1:	add    BYTE PTR [edi+0x0],ch
  4109b4:	add    BYTE PTR [bx+si],ah
  4109b7:	add    BYTE PTR [esi+0x0],ah
  4109ba:	imul   eax,DWORD PTR [eax],0x65006c
  4109c0:	cmp    al,BYTE PTR [eax]
  4109c2:	and    BYTE PTR [eax],al
  4109c4:	jnp    0x4109c6
  4109c6:	xor    BYTE PTR [eax],al
  4109c8:	jge    0x4109ca
  4109ca:	add    BYTE PTR ds:0x650044,bh
  4109d0:	jo     0x4109d2
  4109d2:	ins    BYTE PTR es:[edi],dx
  4109d3:	add    BYTE PTR [edi+0x0],ch
  4109d6:	jns    0x4109d8
  4109d8:	inc    ecx
  4109d9:	add    BYTE PTR [eax+0x0],dh
  4109dc:	jo     0x4109de
  4109de:	js     0x4109e0
  4109e0:	cmp    al,BYTE PTR [eax]
  4109e2:	and    BYTE PTR [eax],al
  4109e4:	inc    esp
  4109e5:	add    BYTE PTR [ebp+0x0],ah
  4109e8:	ins    BYTE PTR es:[edi],dx
  4109e9:	add    BYTE PTR [ebp+0x0],ah
  4109ec:	je     0x4109ee
  4109ee:	imul   eax,DWORD PTR [eax],0x67006e
  4109f4:	and    BYTE PTR [eax],al
  4109f6:	data16 add BYTE PTR [ecx+0x0],ch
  4109fa:	ins    BYTE PTR es:[edi],dx
  4109fb:	add    BYTE PTR [ebp+0x0],ah
  4109fe:	cmp    al,BYTE PTR [eax]
  410a00:	and    BYTE PTR [eax],al
  410a02:	jnp    0x410a04
  410a04:	xor    BYTE PTR [eax],al
  410a06:	jge    0x410a08
  410a08:	add    BYTE PTR [eax+0x680057b7],al
  410a0e:	add    BYTE PTR [ecx+0x0],ch
  410a11:	ins    BYTE PTR es:[edi],dx
  410a12:	add    BYTE PTR [ebp+0x0],ah
  410a15:	and    BYTE PTR [eax],al
  410a17:	jb     0x410a19
  410a19:	add    BYTE PTR gs:[ecx+0x0],ah
  410a1d:	add    BYTE PTR fs:[ecx+0x0],ch
  410a21:	outs   dx,BYTE PTR ds:[esi]
  410a22:	add    BYTE PTR [edi+0x0],ah
  410a25:	and    BYTE PTR [eax],al
  410a27:	je     0x410a29
  410a29:	push   0x20006500
  410a2e:	add    BYTE PTR [ebp+0x0],ah
  410a31:	jb     0x410a33
  410a33:	jb     0x410a35
  410a35:	outs   dx,DWORD PTR ds:[esi]
  410a36:	add    BYTE PTR [edx+0x0],dh
  410a39:	and    BYTE PTR [eax],al
  410a3b:	data16 add BYTE PTR [edx+0x0],dh
  410a3f:	outs   dx,DWORD PTR ds:[esi]
  410a40:	add    BYTE PTR [ebp+0x0],ch
  410a43:	and    BYTE PTR [eax],al
  410a45:	arpl   WORD PTR [eax],ax
  410a47:	add    BYTE PTR gs:[edx+0x0],dh
  410a4b:	je     0x410a4d
  410a4d:	and    BYTE PTR [eax],al
  410a4f:	imul   eax,DWORD PTR [eax],0x73006e
  410a55:	je     0x410a57
  410a57:	popa   
  410a58:	add    BYTE PTR [eax+eax*1+0x6c],ch
  410a5c:	add    BYTE PTR [ebp+0x0],ah
  410a5f:	jb     0x410a61
  410a61:	and    BYTE PTR [eax],al
  410a63:	ins    BYTE PTR es:[edi],dx
  410a64:	add    BYTE PTR [edi+0x0],ch
  410a67:	add    BYTE PTR [bx+si],ah
  410a6a:	add    BYTE PTR [esi+0x0],ah
  410a6d:	imul   eax,DWORD PTR [eax],0x65006c
  410a73:	sub    al,0x0
  410a75:	and    BYTE PTR [eax],al
  410a77:	add    BYTE PTR gs:[esi+0x0],ch
  410a7b:	arpl   WORD PTR [eax],ax
  410a7d:	outs   dx,DWORD PTR ds:[esi]
  410a7e:	add    BYTE PTR [ebp+0x0],dh
  410a81:	outs   dx,BYTE PTR ds:[esi]
  410a82:	add    BYTE PTR [eax+eax*1+0x65],dh
  410a86:	add    BYTE PTR [edx+0x0],dh
  410a89:	add    BYTE PTR gs:[eax+eax*1+0x20],ah
  410a8e:	add    BYTE PTR [eax+eax*1+0x68],dh
  410a92:	add    BYTE PTR [ebp+0x0],ah
  410a95:	and    BYTE PTR [eax],al
  410a97:	data16 add BYTE PTR [edi+0x0],ch
  410a9b:	ins    BYTE PTR es:[edi],dx
  410a9c:	add    BYTE PTR [eax+eax*1+0x6f],ch
  410aa0:	add    BYTE PTR [edi+0x0],dh
  410aa3:	imul   eax,DWORD PTR [eax],0x67006e
  410aa9:	and    BYTE PTR [eax],al
  410aab:	add    BYTE PTR gs:[eax+0x0],bh
  410aaf:	arpl   WORD PTR [eax],ax
  410ab1:	add    BYTE PTR gs:[eax+0x0],dh
  410ab5:	je     0x410ab7
  410ab7:	imul   eax,DWORD PTR [eax],0x6e006f
  410abd:	cmp    al,BYTE PTR [eax]
  410abf:	and    BYTE PTR [eax],al
  410ac1:	add    BYTE PTR [ecx+0x44],dl
  410ac4:	add    BYTE PTR [ebp+0x0],ah
  410ac7:	jo     0x410ac9
  410ac9:	ins    BYTE PTR es:[edi],dx
  410aca:	add    BYTE PTR [edi+0x0],ch
  410acd:	jns    0x410acf
  410acf:	inc    ecx
  410ad0:	add    BYTE PTR [eax+0x0],dh
  410ad3:	jo     0x410ad5
  410ad5:	js     0x410ad7
  410ad7:	cmp    al,BYTE PTR [eax]
  410ad9:	and    BYTE PTR [eax],al
  410adb:	inc    ebp
  410adc:	add    BYTE PTR [esi+0x0],ch
  410adf:	je     0x410ae1
  410ae1:	add    BYTE PTR gs:[edx+0x0],dh
  410ae5:	imul   eax,DWORD PTR [eax],0x67006e
  410aeb:	and    BYTE PTR [eax],al
  410aed:	inc    ebx
  410aee:	add    BYTE PTR [ebp+0x0],ah
  410af1:	jb     0x410af3
  410af3:	je     0x410af5
  410af5:	dec    ecx
  410af6:	add    BYTE PTR [esi+0x0],ch
  410af9:	jae    0x410afb
  410afb:	je     0x410afd
  410afd:	popa   
  410afe:	add    BYTE PTR [eax+eax*1+0x6c],ch
  410b02:	add    BYTE PTR [ebx+0x0],al
  410b05:	popa   
  410b06:	add    BYTE PTR [eax+eax*1+0x6c],ch
  410b0a:	add    BYTE PTR [edx+0x0],ah
  410b0d:	popa   
  410b0e:	add    BYTE PTR [ebx+0x0],ah
  410b11:	imul   eax,DWORD PTR [eax],0x0
  410b14:	jne    0x410b5a
  410b16:	add    BYTE PTR [ebp+0x0],ah
  410b19:	jo     0x410b1b
  410b1b:	ins    BYTE PTR es:[edi],dx
  410b1c:	add    BYTE PTR [edi+0x0],ch
  410b1f:	jns    0x410b21
  410b21:	inc    ecx
  410b22:	add    BYTE PTR [eax+0x0],dh
  410b25:	jo     0x410b27
  410b27:	js     0x410b29
  410b29:	cmp    al,BYTE PTR [eax]
  410b2b:	and    BYTE PTR [eax],al
  410b2d:	inc    ebx
  410b2e:	add    BYTE PTR [ebp+0x0],ah
  410b31:	jb     0x410b33
  410b33:	je     0x410b35
  410b35:	and    BYTE PTR [eax],al
  410b37:	dec    ecx
  410b38:	add    BYTE PTR [esi+0x0],ch
  410b3b:	jae    0x410b3d
  410b3d:	je     0x410b3f
  410b3f:	popa   
  410b40:	add    BYTE PTR [eax+eax*1+0x6c],ch
  410b44:	add    BYTE PTR [eax],ah
  410b46:	add    BYTE PTR [edi+0x0],cl
  410b49:	jo     0x410b4b
  410b4b:	add    BYTE PTR gs:[edx+0x0],dh
  410b4f:	popa   
  410b50:	add    BYTE PTR [eax+eax*1+0x69],dh
  410b54:	add    BYTE PTR [edi+0x0],ch
  410b57:	outs   dx,BYTE PTR ds:[esi]
  410b58:	add    BYTE PTR [eax],ah
  410b5a:	add    BYTE PTR [ecx+0x0],cl
  410b5d:	inc    esp
  410b5e:	add    BYTE PTR [edx],bh
  410b60:	add    BYTE PTR [eax],ah
  410b62:	add    BYTE PTR [ebx+0x0],bh
  410b65:	xor    BYTE PTR [eax],al
  410b67:	jge    0x410b69
  410b69:	sub    al,0x0
  410b6b:	and    BYTE PTR [eax],al
  410b6d:	add    BYTE PTR gs:[edx+0x0],dh
  410b71:	jb     0x410b73
  410b73:	outs   dx,DWORD PTR ds:[esi]
  410b74:	add    BYTE PTR [edx+0x0],dh
  410b77:	inc    ebx
  410b78:	add    BYTE PTR [edi+0x0],ch
  410b7b:	add    BYTE PTR fs:[ebp+0x0],ah
  410b7f:	cmp    al,BYTE PTR [eax]
  410b81:	and    BYTE PTR [eax],al
  410b83:	jnp    0x410b85
  410b85:	xor    DWORD PTR [eax],eax
  410b87:	jge    0x410b89
  410b89:	add    BYTE PTR [ebx+0x44],cl
  410b8c:	add    BYTE PTR [ebp+0x0],ah
  410b8f:	jo     0x410b91
  410b91:	ins    BYTE PTR es:[edi],dx
  410b92:	add    BYTE PTR [edi+0x0],ch
  410b95:	jns    0x410b97
  410b97:	inc    ecx
  410b98:	add    BYTE PTR [eax+0x0],dh
  410b9b:	jo     0x410b9d
  410b9d:	js     0x410b9f
  410b9f:	cmp    al,BYTE PTR [eax]
  410ba1:	and    BYTE PTR [eax],al
  410ba3:	add    BYTE PTR fs:[ebp+0x0],ah
  410ba7:	ins    BYTE PTR es:[edi],dx
  410ba8:	add    BYTE PTR [ebp+0x0],ah
  410bab:	je     0x410bad
  410bad:	add    BYTE PTR gs:[eax],ah
  410bb0:	add    BYTE PTR [eax+eax*1+0x68],dh
  410bb4:	add    BYTE PTR [ebp+0x0],ah
  410bb7:	and    BYTE PTR [eax],al
  410bb9:	outs   dx,DWORD PTR ds:[esi]
  410bba:	add    BYTE PTR [eax+0x0],dh
  410bbd:	add    BYTE PTR gs:[edx+0x0],dh
  410bc1:	popa   
  410bc2:	add    BYTE PTR [eax+eax*1+0x69],dh
  410bc6:	add    BYTE PTR [edi+0x0],ch
  410bc9:	outs   dx,BYTE PTR ds:[esi]
  410bca:	add    BYTE PTR [edx],bh
  410bcc:	add    BYTE PTR [eax],ah
  410bce:	add    BYTE PTR [ebx+0x0],bh
  410bd1:	xor    BYTE PTR [eax],al
  410bd3:	jge    0x410bd5
  410bd5:	add    BYTE PTR [edi+0x44],cl
  410bd8:	add    BYTE PTR [ebp+0x0],ah
  410bdb:	jo     0x410bdd
  410bdd:	ins    BYTE PTR es:[edi],dx
  410bde:	add    BYTE PTR [edi+0x0],ch
  410be1:	jns    0x410be3
  410be3:	inc    ecx
  410be4:	add    BYTE PTR [eax+0x0],dh
  410be7:	jo     0x410be9
  410be9:	js     0x410beb
  410beb:	cmp    al,BYTE PTR [eax]
  410bed:	and    BYTE PTR [eax],al
  410bef:	inc    ebp
  410bf0:	add    BYTE PTR [eax+0x0],bh
  410bf3:	imul   eax,DWORD PTR [eax],0x690074
  410bf9:	outs   dx,BYTE PTR ds:[esi]
  410bfa:	add    BYTE PTR [edi+0x0],ah
  410bfd:	and    BYTE PTR [eax],al
  410bff:	inc    ebx
  410c00:	add    BYTE PTR [ebp+0x0],ah
  410c03:	jb     0x410c05
  410c05:	je     0x410c07
  410c07:	dec    ecx
  410c08:	add    BYTE PTR [esi+0x0],ch
  410c0b:	jae    0x410c0d
  410c0d:	je     0x410c0f
  410c0f:	popa   
  410c10:	add    BYTE PTR [eax+eax*1+0x6c],ch
  410c14:	add    BYTE PTR [ebx+0x0],al
  410c17:	popa   
  410c18:	add    BYTE PTR [eax+eax*1+0x6c],ch
  410c1c:	add    BYTE PTR [edx+0x0],ah
  410c1f:	popa   
  410c20:	add    BYTE PTR [ebx+0x0],ah
  410c23:	imul   eax,DWORD PTR [eax],0x0
  410c26:	jge    0x410c6c
  410c28:	add    BYTE PTR [ebp+0x0],ah
  410c2b:	jo     0x410c2d
  410c2d:	ins    BYTE PTR es:[edi],dx
  410c2e:	add    BYTE PTR [edi+0x0],ch
  410c31:	jns    0x410c33
  410c33:	inc    ecx
  410c34:	add    BYTE PTR [eax+0x0],dh
  410c37:	jo     0x410c39
  410c39:	js     0x410c3b
  410c3b:	cmp    al,BYTE PTR [eax]
  410c3d:	and    BYTE PTR [eax],al
  410c3f:	push   ebx
  410c40:	add    BYTE PTR [ebx+0x0],ch
  410c43:	imul   eax,DWORD PTR [eax],0x700070
  410c49:	imul   eax,DWORD PTR [eax],0x67006e
  410c4f:	and    BYTE PTR [eax],al
  410c51:	arpl   WORD PTR [eax],ax
  410c53:	popa   
  410c54:	add    BYTE PTR [esi+0x0],ch
  410c57:	arpl   WORD PTR [eax],ax
  410c59:	add    BYTE PTR gs:[eax+eax*1+0x6c],ch
  410c5e:	add    BYTE PTR [ecx+0x0],ah
  410c61:	je     0x410c63
  410c63:	imul   eax,DWORD PTR [eax],0x6e006f
  410c69:	and    BYTE PTR [eax],al
  410c6b:	outs   dx,DWORD PTR ds:[esi]
  410c6c:	add    BYTE PTR [esi+0x0],ah
  410c6f:	and    BYTE PTR [eax],al
  410c71:	arpl   WORD PTR [eax],ax
  410c73:	add    BYTE PTR gs:[edx+0x0],dh
  410c77:	je     0x410c79
  410c79:	imul   eax,DWORD PTR [eax],0x690066
  410c7f:	arpl   WORD PTR [eax],ax
  410c81:	popa   
  410c82:	add    BYTE PTR [eax+eax*1+0x65],dh
  410c86:	add    BYTE PTR [eax],ah
  410c88:	add    BYTE PTR [ecx+0x0],ch
  410c8b:	outs   dx,BYTE PTR ds:[esi]
  410c8c:	add    BYTE PTR [ebx+0x0],dh
  410c8f:	je     0x410c91
  410c91:	popa   
  410c92:	add    BYTE PTR [eax+eax*1+0x6c],ch
  410c96:	add    BYTE PTR [ecx+0x0],ah
  410c99:	je     0x410c9b
  410c9b:	imul   eax,DWORD PTR [eax],0x6e006f
  410ca1:	add    BYTE PTR cs:[eax],al
  410ca4:	push   ecx
  410ca5:	inc    esp
  410ca6:	add    BYTE PTR [ebp+0x0],ah
  410ca9:	jo     0x410cab
  410cab:	ins    BYTE PTR es:[edi],dx
  410cac:	add    BYTE PTR [edi+0x0],ch
  410caf:	jns    0x410cb1
  410cb1:	inc    ecx
  410cb2:	add    BYTE PTR [eax+0x0],dh
  410cb5:	jo     0x410cb7
  410cb7:	js     0x410cb9
  410cb9:	cmp    al,BYTE PTR [eax]
  410cbb:	and    BYTE PTR [eax],al
  410cbd:	dec    ebx
  410cbe:	add    BYTE PTR [ecx+0x0],ch
  410cc1:	ins    BYTE PTR es:[edi],dx
  410cc2:	add    BYTE PTR [eax+eax*1+0x69],ch
  410cc6:	add    BYTE PTR [esi+0x0],ch
  410cc9:	add    BYTE PTR [bx+si],ah
  410ccc:	add    BYTE PTR [eax+0x0],dh
  410ccf:	jb     0x410cd1
  410cd1:	outs   dx,DWORD PTR ds:[esi]
  410cd2:	add    BYTE PTR [ebx+0x0],ah
  410cd5:	add    BYTE PTR gs:[ebx+0x0],dh
  410cd9:	jae    0x410cdb
  410cdb:	and    BYTE PTR [eax],al
  410cdd:	ja     0x410cdf
  410cdf:	imul   eax,DWORD PTR [eax],0x680074
  410ce5:	and    BYTE PTR [eax],al
  410ce7:	dec    ecx
  410ce8:	add    BYTE PTR [eax+eax*1+0x3a],al
  410cec:	add    BYTE PTR [eax],ah
  410cee:	add    BYTE PTR [ebx+0x0],bh
  410cf1:	xor    BYTE PTR [eax],al
  410cf3:	jge    0x410cf5
  410cf5:	add    BYTE PTR [eax+0x65004495],al
  410cfb:	add    BYTE PTR [eax+0x0],dh
  410cfe:	ins    BYTE PTR es:[edi],dx
  410cff:	add    BYTE PTR [edi+0x0],ch
  410d02:	jns    0x410d04
  410d04:	inc    ecx
  410d05:	add    BYTE PTR [eax+0x0],dh
  410d08:	jo     0x410d0a
  410d0a:	js     0x410d0c
  410d0c:	cmp    al,BYTE PTR [eax]
  410d0e:	and    BYTE PTR [eax],al
  410d10:	inc    ebx
  410d11:	add    BYTE PTR [eax+0x0],ch
  410d14:	add    BYTE PTR gs:[ebx+0x0],ah
  410d18:	imul   eax,DWORD PTR [eax],0x69
  410d1b:	add    BYTE PTR [esi+0x0],ch
  410d1e:	add    BYTE PTR [bx+si],ah
  410d21:	add    BYTE PTR [edi+0x0],dh
  410d24:	push   0x74006500
  410d29:	add    BYTE PTR [eax+0x0],ch
  410d2c:	add    BYTE PTR gs:[edx+0x0],dh
  410d30:	and    BYTE PTR [eax],al
  410d32:	add    BYTE PTR fs:[ebp+0x0],ah
  410d36:	jbe    0x410d38
  410d38:	add    BYTE PTR gs:[eax+eax*1+0x6f],ch
  410d3d:	add    BYTE PTR [eax+0x0],dh
  410d40:	add    BYTE PTR gs:[edx+0x0],dh
  410d44:	and    BYTE PTR [eax],al
  410d46:	ins    BYTE PTR es:[edi],dx
  410d47:	add    BYTE PTR [ecx+0x0],ch
  410d4a:	arpl   WORD PTR [eax],ax
  410d4c:	add    BYTE PTR gs:[esi+0x0],ch
  410d50:	jae    0x410d52
  410d52:	add    BYTE PTR gs:[eax],ah
  410d55:	add    BYTE PTR [ecx+0x0],ch
  410d58:	jae    0x410d5a
  410d5a:	and    BYTE PTR [eax],al
  410d5c:	imul   eax,DWORD PTR [eax],0x73006e
  410d62:	je     0x410d64
  410d64:	popa   
  410d65:	add    BYTE PTR [eax+eax*1+0x6c],ch
  410d69:	add    BYTE PTR [ebp+0x0],ah
  410d6c:	add    BYTE PTR fs:[eax],ah
  410d6f:	add    BYTE PTR [edi+0x0],ch
  410d72:	outs   dx,BYTE PTR ds:[esi]
  410d73:	add    BYTE PTR [eax],ah
  410d75:	add    BYTE PTR [eax+eax*1+0x68],dh
  410d79:	add    BYTE PTR [ebp+0x0],ah
  410d7c:	and    BYTE PTR [eax],al
  410d7e:	ins    DWORD PTR es:[edi],dx
  410d7f:	add    BYTE PTR [ecx+0x0],ah
  410d82:	arpl   WORD PTR [eax],ax
  410d84:	push   0x6e006900
  410d89:	add    BYTE PTR [ebp+0x0],ah
  410d8c:	add    BYTE PTR [edi+0x44],cl
  410d8f:	add    BYTE PTR [ebp+0x0],ah
  410d92:	jo     0x410d94
  410d94:	ins    BYTE PTR es:[edi],dx
  410d95:	add    BYTE PTR [edi+0x0],ch
  410d98:	jns    0x410d9a
  410d9a:	inc    ecx
  410d9b:	add    BYTE PTR [eax+0x0],dh
  410d9e:	jo     0x410da0
  410da0:	js     0x410da2
  410da2:	cmp    al,BYTE PTR [eax]
  410da4:	and    BYTE PTR [eax],al
  410da6:	inc    ebx
  410da7:	add    BYTE PTR [edi+0x0],ch
  410daa:	jne    0x410dac
  410dac:	ins    BYTE PTR es:[edi],dx
  410dad:	add    BYTE PTR [eax+eax*1+0x20],ah
  410db1:	add    BYTE PTR [esi+0x0],ch
  410db4:	outs   dx,DWORD PTR ds:[esi]
  410db5:	add    BYTE PTR [eax+eax*1+0x20],dh
  410db9:	add    BYTE PTR [eax+eax*1+0x6f],ch
  410dbd:	add    BYTE PTR [ecx+0x0],ah
  410dc0:	add    BYTE PTR fs:[eax],ah
  410dc3:	add    BYTE PTR [edi+0x0],dl
  410dc6:	push   ebx
  410dc7:	add    BYTE PTR [ebx+0x0],al
  410dca:	ins    BYTE PTR es:[edi],dx
  410dcb:	add    BYTE PTR [ecx+0x0],ch
  410dce:	add    BYTE PTR gs:[esi+0x0],ch
  410dd2:	je     0x410dd4
  410dd4:	add    BYTE PTR cs:[eax+eax*1+0x6c],ah
  410dd9:	add    BYTE PTR [eax+eax*1+0x0],ch
  410ddd:	jne    0x410e23
  410ddf:	add    BYTE PTR [ebp+0x0],ah
  410de2:	jo     0x410de4
  410de4:	ins    BYTE PTR es:[edi],dx
  410de5:	add    BYTE PTR [edi+0x0],ch
  410de8:	jns    0x410dea
  410dea:	inc    ecx
  410deb:	add    BYTE PTR [eax+0x0],dh
  410dee:	jo     0x410df0
  410df0:	js     0x410df2
  410df2:	cmp    al,BYTE PTR [eax]
  410df4:	and    BYTE PTR [eax],al
  410df6:	inc    esp
  410df7:	add    BYTE PTR [ebp+0x0],ah
  410dfa:	jbe    0x410dfc
  410dfc:	dec    esp
  410dfd:	add    BYTE PTR [ecx+0x0],ch
  410e00:	arpl   WORD PTR [eax],ax
  410e02:	add    BYTE PTR gs:[esi+0x0],ch
  410e06:	jae    0x410e08
  410e08:	imul   eax,DWORD PTR [eax],0x67006e
  410e0e:	add    BYTE PTR cs:[ebx+0x0],al
  410e12:	push   0x63006500
  410e17:	add    BYTE PTR [ebx+0x0],ch
  410e1a:	inc    esp
  410e1b:	add    BYTE PTR [ebp+0x0],ah
  410e1e:	jbe    0x410e20
  410e20:	add    BYTE PTR gs:[eax+eax*1+0x6f],ch
  410e25:	add    BYTE PTR [eax+0x0],dh
  410e28:	add    BYTE PTR gs:[edx+0x0],dh
  410e2c:	dec    esp
  410e2d:	add    BYTE PTR [ecx+0x0],ch
  410e30:	arpl   WORD PTR [eax],ax
  410e32:	add    BYTE PTR gs:[esi+0x0],ch
  410e36:	jae    0x410e38
  410e38:	add    BYTE PTR gs:[eax],ah
  410e3b:	add    BYTE PTR [edx+0x0],dh
  410e3e:	add    BYTE PTR gs:[eax+eax*1+0x75],dh
  410e43:	add    BYTE PTR [edx+0x0],dh
  410e46:	outs   dx,BYTE PTR ds:[esi]
  410e47:	add    BYTE PTR [ebx+0x0],dh
  410e4a:	and    BYTE PTR [eax],al
  410e4c:	jnp    0x410e4e
  410e4e:	xor    BYTE PTR [eax],al
  410e50:	jge    0x410e52
  410e52:	add    BYTE PTR [ebx+0x44],bh
  410e55:	add    BYTE PTR [ebp+0x0],ah
  410e58:	jo     0x410e5a
  410e5a:	ins    BYTE PTR es:[edi],dx
  410e5b:	add    BYTE PTR [edi+0x0],ch
  410e5e:	jns    0x410e60
  410e60:	inc    ecx
  410e61:	add    BYTE PTR [eax+0x0],dh
  410e64:	jo     0x410e66
  410e66:	js     0x410e68
  410e68:	cmp    al,BYTE PTR [eax]
  410e6a:	and    BYTE PTR [eax],al
  410e6c:	inc    ebp
  410e6d:	add    BYTE PTR [eax+0x0],bh
  410e70:	jo     0x410e72
  410e72:	imul   eax,DWORD PTR [eax],0x610072
  410e78:	je     0x410e7a
  410e7a:	imul   eax,DWORD PTR [eax],0x6e006f
  410e80:	and    BYTE PTR [eax],al
  410e82:	inc    esp
  410e83:	add    BYTE PTR [ecx+0x0],ah
  410e86:	je     0x410e88
  410e88:	add    BYTE PTR gs:[eax],ah
  410e8b:	add    BYTE PTR [edi+0x0],ch
  410e8e:	data16 add BYTE PTR [eax],ah
  410e91:	add    BYTE PTR [eax+eax*1+0x65],ah
  410e95:	add    BYTE PTR [esi+0x0],dh
  410e98:	add    BYTE PTR gs:[eax+eax*1+0x6f],ch
  410e9d:	add    BYTE PTR [eax+0x0],dh
  410ea0:	add    BYTE PTR gs:[edx+0x0],dh
  410ea4:	and    BYTE PTR [eax],al
  410ea6:	ins    BYTE PTR es:[edi],dx
  410ea7:	add    BYTE PTR [ecx+0x0],ch
  410eaa:	arpl   WORD PTR [eax],ax
  410eac:	add    BYTE PTR gs:[esi+0x0],ch
  410eb0:	jae    0x410eb2
  410eb2:	add    BYTE PTR gs:[edx],bh
  410eb5:	add    BYTE PTR [eax],ah
  410eb7:	add    BYTE PTR [ebx+0x0],bh
  410eba:	xor    BYTE PTR [eax],al
  410ebc:	jge    0x410ebe
  410ebe:	and    BYTE PTR [eax],al
  410ec0:	jnp    0x410ec2
  410ec2:	xor    DWORD PTR [eax],eax
  410ec4:	jge    0x410ec6
  410ec6:	and    BYTE PTR [eax],al
  410ec8:	jnp    0x410eca
  410eca:	xor    al,BYTE PTR [eax]
  410ecc:	jge    0x410ece
  410ece:	add    BYTE PTR [ebp+0x44],cl
  410ed1:	add    BYTE PTR [ebp+0x0],ah
  410ed4:	jo     0x410ed6
  410ed6:	ins    BYTE PTR es:[edi],dx
  410ed7:	add    BYTE PTR [edi+0x0],ch
  410eda:	jns    0x410edc
  410edc:	inc    ecx
  410edd:	add    BYTE PTR [eax+0x0],dh
  410ee0:	jo     0x410ee2
  410ee2:	js     0x410ee4
  410ee4:	cmp    al,BYTE PTR [eax]
  410ee6:	and    BYTE PTR [eax],al
  410ee8:	inc    esp
  410ee9:	add    BYTE PTR [ebp+0x0],ah
  410eec:	jbe    0x410eee
  410eee:	add    BYTE PTR gs:[eax+eax*1+0x6f],ch
  410ef3:	add    BYTE PTR [eax+0x0],dh
  410ef6:	add    BYTE PTR gs:[edx+0x0],dh
  410efa:	and    BYTE PTR [eax],al
  410efc:	dec    esp
  410efd:	add    BYTE PTR [ecx+0x0],ch
  410f00:	arpl   WORD PTR [eax],ax
  410f02:	add    BYTE PTR gs:[esi+0x0],ch
  410f06:	jae    0x410f08
  410f08:	add    BYTE PTR gs:[eax],ah
  410f0b:	add    BYTE PTR [ebp+0x0],ah
  410f0e:	js     0x410f10
  410f10:	jo     0x410f12
  410f12:	imul   eax,DWORD PTR [eax],0x650072
  410f18:	add    BYTE PTR fs:[esi],ch
  410f1b:	add    BYTE PTR [eax],al
  410f1d:	push   ecx
  410f1e:	inc    esp
  410f1f:	add    BYTE PTR [ebp+0x0],ah
  410f22:	jo     0x410f24
  410f24:	ins    BYTE PTR es:[edi],dx
  410f25:	add    BYTE PTR [edi+0x0],ch
  410f28:	jns    0x410f2a
  410f2a:	inc    ecx
  410f2b:	add    BYTE PTR [eax+0x0],dh
  410f2e:	jo     0x410f30
  410f30:	js     0x410f32
  410f32:	cmp    al,BYTE PTR [eax]
  410f34:	and    BYTE PTR [eax],al
  410f36:	inc    ecx
  410f37:	add    BYTE PTR [ebx+0x0],ah
  410f3a:	jno    0x410f3c
  410f3c:	jne    0x410f3e
  410f3e:	imul   eax,DWORD PTR [eax],0x690072
  410f44:	outs   dx,BYTE PTR ds:[esi]
  410f45:	add    BYTE PTR [edi+0x0],ah
  410f48:	and    BYTE PTR [eax],al
  410f4a:	add    BYTE PTR fs:[ebp+0x0],ah
  410f4e:	jbe    0x410f50
  410f50:	add    BYTE PTR gs:[eax+eax*1+0x6f],ch
  410f55:	add    BYTE PTR [eax+0x0],dh
  410f58:	add    BYTE PTR gs:[edx+0x0],dh
  410f5c:	and    BYTE PTR [eax],al
  410f5e:	ins    BYTE PTR es:[edi],dx
  410f5f:	add    BYTE PTR [ecx+0x0],ch
  410f62:	arpl   WORD PTR [eax],ax
  410f64:	add    BYTE PTR gs:[esi+0x0],ch
  410f68:	jae    0x410f6a
  410f6a:	add    BYTE PTR gs:[esi],ch
  410f6d:	add    BYTE PTR [eax],al
  410f6f:	aaa    
  410f70:	inc    ecx
  410f71:	add    BYTE PTR [ebx+0x0],ah
  410f74:	jno    0x410f76
  410f76:	jne    0x410f78
  410f78:	imul   eax,DWORD PTR [eax],0x650072
  410f7e:	inc    esp
  410f7f:	add    BYTE PTR [ebp+0x0],ah
  410f82:	jbe    0x410f84
  410f84:	add    BYTE PTR gs:[eax+eax*1+0x6f],ch
  410f89:	add    BYTE PTR [eax+0x0],dh
  410f8c:	add    BYTE PTR gs:[edx+0x0],dh
  410f90:	dec    esp
  410f91:	add    BYTE PTR [ecx+0x0],ch
  410f94:	arpl   WORD PTR [eax],ax
  410f96:	add    BYTE PTR gs:[esi+0x0],ch
  410f9a:	jae    0x410f9c
  410f9c:	add    BYTE PTR gs:[esi],ch
  410f9f:	add    BYTE PTR [ebp+0x0],ah
  410fa2:	js     0x410fa4
  410fa4:	add    BYTE PTR gs:[eax],al
  410fa7:	dec    ebp
  410fa8:	inc    ecx
  410fa9:	add    BYTE PTR [ebx+0x0],ah
  410fac:	jno    0x410fae
  410fae:	jne    0x410fb0
  410fb0:	imul   eax,DWORD PTR [eax],0x650072
  410fb6:	inc    esp
  410fb7:	add    BYTE PTR [ebp+0x0],ah
  410fba:	jbe    0x410fbc
  410fbc:	add    BYTE PTR gs:[eax+eax*1+0x6f],ch
  410fc1:	add    BYTE PTR [eax+0x0],dh
  410fc4:	add    BYTE PTR gs:[edx+0x0],dh
  410fc8:	dec    esp
  410fc9:	add    BYTE PTR [ecx+0x0],ch
  410fcc:	arpl   WORD PTR [eax],ax
  410fce:	add    BYTE PTR gs:[esi+0x0],ch
  410fd2:	jae    0x410fd4
  410fd4:	add    BYTE PTR gs:[esi],ch
  410fd7:	add    BYTE PTR [ebp+0x0],ah
  410fda:	js     0x410fdc
  410fdc:	add    BYTE PTR gs:[eax],ah
  410fdf:	add    BYTE PTR [esi+0x0],ch
  410fe2:	outs   dx,DWORD PTR ds:[esi]
  410fe3:	add    BYTE PTR [eax+eax*1+0x20],dh
  410fe7:	add    BYTE PTR [esi+0x0],ah
  410fea:	outs   dx,DWORD PTR ds:[esi]
  410feb:	add    BYTE PTR [ebp+0x0],dh
  410fee:	outs   dx,BYTE PTR ds:[esi]
  410fef:	add    BYTE PTR [eax+eax*1+0x2e],ah
  410ff3:	add    BYTE PTR [eax],al
  410ff5:	jg     0x41103b
  410ff7:	add    BYTE PTR [ebp+0x0],ah
  410ffa:	jo     0x410ffc
  410ffc:	ins    BYTE PTR es:[edi],dx
  410ffd:	add    BYTE PTR [edi+0x0],ch
  411000:	jns    0x411002
  411002:	inc    ecx
  411003:	add    BYTE PTR [eax+0x0],dh
  411006:	jo     0x411008
  411008:	js     0x41100a
  41100a:	cmp    al,BYTE PTR [eax]
  41100c:	and    BYTE PTR [eax],al
  41100e:	push   eax
  41100f:	add    BYTE PTR [edx+0x0],dh
  411012:	outs   dx,DWORD PTR ds:[esi]
  411013:	add    BYTE PTR [ebx+0x0],ah
  411016:	add    BYTE PTR gs:[ebx+0x0],dh
  41101a:	jae    0x41101c
  41101c:	and    BYTE PTR [eax],al
  41101e:	imul   eax,DWORD PTR [eax],0x200064
  411024:	data16 add BYTE PTR [edi+0x0],ch
  411028:	jb     0x41102a
  41102a:	and    BYTE PTR [eax],al
  41102c:	inc    ecx
  41102d:	add    BYTE PTR [ebx+0x0],ah
  411030:	jno    0x411032
  411032:	jne    0x411034
  411034:	imul   eax,DWORD PTR [eax],0x650072
  41103a:	inc    esp
  41103b:	add    BYTE PTR [ebp+0x0],ah
  41103e:	jbe    0x411040
  411040:	add    BYTE PTR gs:[eax+eax*1+0x6f],ch
  411045:	add    BYTE PTR [eax+0x0],dh
  411048:	add    BYTE PTR gs:[edx+0x0],dh
  41104c:	dec    esp
  41104d:	add    BYTE PTR [ecx+0x0],ch
  411050:	arpl   WORD PTR [eax],ax
  411052:	add    BYTE PTR gs:[esi+0x0],ch
  411056:	jae    0x411058
  411058:	add    BYTE PTR gs:[esi],ch
  41105b:	add    BYTE PTR [ebp+0x0],ah
  41105e:	js     0x411060
  411060:	add    BYTE PTR gs:[eax],ah
  411063:	add    BYTE PTR [ecx+0x0],ch
  411066:	jae    0x411068
  411068:	and    BYTE PTR [eax],al
  41106a:	cmp    al,BYTE PTR [eax]
  41106c:	and    BYTE PTR [eax],al
  41106e:	jnp    0x411070
  411070:	xor    BYTE PTR [eax],al
  411072:	jge    0x411074
  411074:	add    BYTE PTR [eax+0x65004483],al
  41107a:	add    BYTE PTR [eax+0x0],dh
  41107d:	ins    BYTE PTR es:[edi],dx
  41107e:	add    BYTE PTR [edi+0x0],ch
  411081:	jns    0x411083
  411083:	inc    ecx
  411084:	add    BYTE PTR [eax+0x0],dh
  411087:	jo     0x411089
  411089:	js     0x41108b
  41108b:	cmp    al,BYTE PTR [eax]
  41108d:	and    BYTE PTR [eax],al
  41108f:	inc    ecx
  411090:	add    BYTE PTR [ebx+0x0],ah
  411093:	jno    0x411095
  411095:	jne    0x411097
  411097:	imul   eax,DWORD PTR [eax],0x650072
  41109d:	inc    esp
  41109e:	add    BYTE PTR [ebp+0x0],ah
  4110a1:	jbe    0x4110a3
  4110a3:	add    BYTE PTR gs:[eax+eax*1+0x6f],ch
  4110a8:	add    BYTE PTR [eax+0x0],dh
  4110ab:	add    BYTE PTR gs:[edx+0x0],dh
  4110af:	dec    esp
  4110b0:	add    BYTE PTR [ecx+0x0],ch
  4110b3:	arpl   WORD PTR [eax],ax
  4110b5:	add    BYTE PTR gs:[esi+0x0],ch
  4110b9:	jae    0x4110bb
  4110bb:	add    BYTE PTR gs:[esi],ch
  4110be:	add    BYTE PTR [ebp+0x0],ah
  4110c1:	js     0x4110c3
  4110c3:	add    BYTE PTR gs:[eax],ah
  4110c6:	add    BYTE PTR [ebp+0x0],ah
  4110c9:	js     0x4110cb
  4110cb:	imul   eax,DWORD PTR [eax],0x650074
  4110d1:	add    BYTE PTR fs:[eax],ah
  4110d4:	add    BYTE PTR [edi+0x0],dh
  4110d7:	imul   eax,DWORD PTR [eax],0x680074
  4110dd:	and    BYTE PTR [eax],al
  4110df:	add    BYTE PTR gs:[eax+0x0],bh
  4110e3:	imul   eax,DWORD PTR [eax],0x430074
  4110e9:	outs   dx,DWORD PTR ds:[esi]
  4110ea:	add    BYTE PTR [eax+eax*1+0x65],ah
  4110ee:	add    BYTE PTR [edx],bh
  4110f0:	add    BYTE PTR [eax],ah
  4110f2:	add    BYTE PTR [ebx+0x0],bh
  4110f5:	xor    BYTE PTR [eax],al
  4110f7:	jge    0x4110f9
  4110f9:	add    BYTE PTR [eax+0x65004487],al
  4110ff:	add    BYTE PTR [eax+0x0],dh
  411102:	ins    BYTE PTR es:[edi],dx
  411103:	add    BYTE PTR [edi+0x0],ch
  411106:	jns    0x411108
  411108:	inc    ecx
  411109:	add    BYTE PTR [eax+0x0],dh
  41110c:	jo     0x41110e
  41110e:	js     0x411110
  411110:	cmp    al,BYTE PTR [eax]
  411112:	and    BYTE PTR [eax],al
  411114:	inc    ebp
  411115:	add    BYTE PTR [eax+0x0],bh
  411118:	arpl   WORD PTR [eax],ax
  41111a:	add    BYTE PTR gs:[eax+0x0],dh
  41111e:	je     0x411120
  411120:	imul   eax,DWORD PTR [eax],0x6e006f
  411126:	and    BYTE PTR [eax],al
  411128:	inc    ebx
  411129:	add    BYTE PTR [ecx+0x0],ah
  41112c:	jne    0x41112e
  41112e:	add    BYTE PTR [bx+si+0x0],ch
  411132:	je     0x411134
  411134:	and    BYTE PTR [eax],al
  411136:	ja     0x411138
  411138:	push   0x6c006900
  41113d:	add    BYTE PTR [ebp+0x0],ah
  411140:	and    BYTE PTR [eax],al
  411142:	popa   
  411143:	add    BYTE PTR [ebx+0x0],ah
  411146:	jno    0x411148
  411148:	jne    0x41114a
  41114a:	imul   eax,DWORD PTR [eax],0x690072
  411150:	outs   dx,BYTE PTR ds:[esi]
  411151:	add    BYTE PTR [edi+0x0],ah
  411154:	and    BYTE PTR [eax],al
  411156:	add    BYTE PTR fs:[ebp+0x0],ah
  41115a:	jbe    0x41115c
  41115c:	add    BYTE PTR gs:[eax+eax*1+0x6f],ch
  411161:	add    BYTE PTR [eax+0x0],dh
  411164:	add    BYTE PTR gs:[edx+0x0],dh
  411168:	and    BYTE PTR [eax],al
  41116a:	ins    BYTE PTR es:[edi],dx
  41116b:	add    BYTE PTR [ecx+0x0],ch
  41116e:	arpl   WORD PTR [eax],ax
  411170:	add    BYTE PTR gs:[esi+0x0],ch
  411174:	jae    0x411176
  411176:	add    BYTE PTR gs:[edx],bh
  411179:	add    BYTE PTR [eax],ah
  41117b:	add    BYTE PTR [ebx+0x0],bh
  41117e:	xor    BYTE PTR [eax],al
  411180:	jge    0x411182
  411182:	add    BYTE PTR [ebp+0x44],bl
  411185:	add    BYTE PTR [ebp+0x0],ah
  411188:	jo     0x41118a
  41118a:	ins    BYTE PTR es:[edi],dx
  41118b:	add    BYTE PTR [edi+0x0],ch
  41118e:	jns    0x411190
  411190:	inc    ecx
  411191:	add    BYTE PTR [eax+0x0],dh
  411194:	jo     0x411196
  411196:	js     0x411198
  411198:	cmp    al,BYTE PTR [eax]
  41119a:	and    BYTE PTR [eax],al
  41119c:	inc    ebp
  41119d:	add    BYTE PTR [esi+0x0],ch
  4111a0:	je     0x4111a2
  4111a2:	add    BYTE PTR gs:[edx+0x0],dh
  4111a6:	imul   eax,DWORD PTR [eax],0x67006e
  4111ac:	and    BYTE PTR [eax],al
  4111ae:	inc    ecx
  4111af:	add    BYTE PTR [ebx+0x0],ah
  4111b2:	jno    0x4111b4
  4111b4:	jne    0x4111b6
  4111b6:	imul   eax,DWORD PTR [eax],0x650072
  4111bc:	inc    esp
  4111bd:	add    BYTE PTR [ebp+0x0],ah
  4111c0:	jbe    0x4111c2
  4111c2:	dec    esp
  4111c3:	add    BYTE PTR [ecx+0x0],ch
  4111c6:	arpl   WORD PTR [eax],ax
  4111c8:	add    BYTE PTR gs:[esi+0x0],ch
  4111cc:	jae    0x4111ce
  4111ce:	add    BYTE PTR gs:[ebx+0x0],al
  4111d2:	popa   
  4111d3:	add    BYTE PTR [eax+eax*1+0x6c],ch
  4111d7:	add    BYTE PTR [edx+0x0],ah
  4111da:	popa   
  4111db:	add    BYTE PTR [ebx+0x0],ah
  4111de:	imul   eax,DWORD PTR [eax],0x0
  4111e1:	add    BYTE PTR [ebx+0x650044],0x70
  4111e8:	add    BYTE PTR [eax+eax*1+0x6f],ch
  4111ec:	add    BYTE PTR [ecx+0x0],bh
  4111ef:	inc    ecx
  4111f0:	add    BYTE PTR [eax+0x0],dh
  4111f3:	jo     0x4111f5
  4111f5:	js     0x4111f7
  4111f7:	cmp    al,BYTE PTR [eax]
  4111f9:	and    BYTE PTR [eax],al
  4111fb:	inc    ecx
  4111fc:	add    BYTE PTR [ebx+0x0],ah
  4111ff:	jno    0x411201
  411201:	jne    0x411203
  411203:	imul   eax,DWORD PTR [eax],0x650072
  411209:	and    BYTE PTR [eax],al
  41120b:	inc    esp
  41120c:	add    BYTE PTR [ebp+0x0],ah
  41120f:	jbe    0x411211
  411211:	and    BYTE PTR [eax],al
  411213:	dec    esp
  411214:	add    BYTE PTR [ecx+0x0],ch
  411217:	arpl   WORD PTR [eax],ax
  411219:	add    BYTE PTR gs:[esi+0x0],ch
  41121d:	jae    0x41121f
  41121f:	add    BYTE PTR gs:[eax],ah
  411222:	add    BYTE PTR [edi+0x0],cl
  411225:	jo     0x411227
  411227:	add    BYTE PTR gs:[edx+0x0],dh
  41122b:	popa   
  41122c:	add    BYTE PTR [eax+eax*1+0x69],dh
  411230:	add    BYTE PTR [edi+0x0],ch
  411233:	outs   dx,BYTE PTR ds:[esi]
  411234:	add    BYTE PTR [eax],ah
  411236:	add    BYTE PTR [ecx+0x0],cl
  411239:	inc    esp
  41123a:	add    BYTE PTR [edx],bh
  41123c:	add    BYTE PTR [eax],ah
  41123e:	add    BYTE PTR [ebx+0x0],bh
  411241:	xor    BYTE PTR [eax],al
  411243:	jge    0x411245
  411245:	sub    al,0x0
  411247:	and    BYTE PTR [eax],al
  411249:	add    BYTE PTR gs:[edx+0x0],dh
  41124d:	jb     0x41124f
  41124f:	outs   dx,DWORD PTR ds:[esi]
  411250:	add    BYTE PTR [edx+0x0],dh
  411253:	inc    ebx
  411254:	add    BYTE PTR [edi+0x0],ch
  411257:	add    BYTE PTR fs:[ebp+0x0],ah
  41125b:	cmp    al,BYTE PTR [eax]
  41125d:	and    BYTE PTR [eax],al
  41125f:	jnp    0x411261
  411261:	xor    DWORD PTR [eax],eax
  411263:	jge    0x411265
  411265:	add    BYTE PTR [ebp+0x44],ah
  411268:	add    BYTE PTR [ebp+0x0],ah
  41126b:	jo     0x41126d
  41126d:	ins    BYTE PTR es:[edi],dx
  41126e:	add    BYTE PTR [edi+0x0],ch
  411271:	jns    0x411273
  411273:	inc    ecx
  411274:	add    BYTE PTR [eax+0x0],dh
  411277:	jo     0x411279
  411279:	js     0x41127b
  41127b:	cmp    al,BYTE PTR [eax]
  41127d:	and    BYTE PTR [eax],al
  41127f:	inc    ecx
  411280:	add    BYTE PTR [ebx+0x0],ah
  411283:	jno    0x411285
  411285:	jne    0x411287
  411287:	imul   eax,DWORD PTR [eax],0x690073
  41128d:	je     0x41128f
  41128f:	imul   eax,DWORD PTR [eax],0x6e006f
  411295:	and    BYTE PTR [eax],al
  411297:	outs   dx,DWORD PTR ds:[esi]
  411298:	add    BYTE PTR [esi+0x0],ah
  41129b:	and    BYTE PTR [eax],al
  41129d:	add    BYTE PTR fs:[ebp+0x0],ah
  4112a1:	jbe    0x4112a3
  4112a3:	and    BYTE PTR [eax],al
  4112a5:	ins    BYTE PTR es:[edi],dx
  4112a6:	add    BYTE PTR [ecx+0x0],ch
  4112a9:	arpl   WORD PTR [eax],ax
  4112ab:	add    BYTE PTR gs:[esi+0x0],ch
  4112af:	jae    0x4112b1
  4112b1:	add    BYTE PTR gs:[eax],ah
  4112b4:	add    BYTE PTR [esi+0x0],al
  4112b7:	popa   
  4112b8:	add    BYTE PTR [ecx+0x0],ch
  4112bb:	ins    BYTE PTR es:[edi],dx
  4112bc:	add    BYTE PTR [ebp+0x0],ah
  4112bf:	add    BYTE PTR fs:[edx],bh
  4112c2:	add    BYTE PTR [eax],ah
  4112c4:	add    BYTE PTR [ebx+0x0],bh
  4112c7:	xor    BYTE PTR [eax],al
  4112c9:	jge    0x4112cb
  4112cb:	add    BYTE PTR [ebx+0x44],bl
  4112ce:	add    BYTE PTR [ebp+0x0],ah
  4112d1:	jo     0x4112d3
  4112d3:	ins    BYTE PTR es:[edi],dx
  4112d4:	add    BYTE PTR [edi+0x0],ch
  4112d7:	jns    0x4112d9
  4112d9:	inc    ecx
  4112da:	add    BYTE PTR [eax+0x0],dh
  4112dd:	jo     0x4112df
  4112df:	js     0x4112e1
  4112e1:	cmp    al,BYTE PTR [eax]
  4112e3:	and    BYTE PTR [eax],al
  4112e5:	inc    ebp
  4112e6:	add    BYTE PTR [eax+0x0],bh
  4112e9:	imul   eax,DWORD PTR [eax],0x690074
  4112ef:	outs   dx,BYTE PTR ds:[esi]
  4112f0:	add    BYTE PTR [edi+0x0],ah
  4112f3:	and    BYTE PTR [eax],al
  4112f5:	inc    ecx
  4112f6:	add    BYTE PTR [ebx+0x0],ah
  4112f9:	jno    0x4112fb
  4112fb:	jne    0x4112fd
  4112fd:	imul   eax,DWORD PTR [eax],0x650072
  411303:	inc    esp
  411304:	add    BYTE PTR [ebp+0x0],ah
  411307:	jbe    0x411309
  411309:	dec    esp
  41130a:	add    BYTE PTR [ecx+0x0],ch
  41130d:	arpl   WORD PTR [eax],ax
  41130f:	add    BYTE PTR gs:[esi+0x0],ch
  411313:	jae    0x411315
  411315:	add    BYTE PTR gs:[ebx+0x0],al
  411319:	popa   
  41131a:	add    BYTE PTR [eax+eax*1+0x6c],ch
  41131e:	add    BYTE PTR [edx+0x0],ah
  411321:	popa   
  411322:	add    BYTE PTR [ebx+0x0],ah
  411325:	imul   eax,DWORD PTR [eax],0x0
  411328:	or     BYTE PTR [ebp+0x650044],0x70
  41132f:	add    BYTE PTR [eax+eax*1+0x6f],ch
  411333:	add    BYTE PTR [ecx+0x0],bh
  411336:	inc    ecx
  411337:	add    BYTE PTR [eax+0x0],dh
  41133a:	jo     0x41133c
  41133c:	js     0x41133e
  41133e:	cmp    al,BYTE PTR [eax]
  411340:	and    BYTE PTR [eax],al
  411342:	push   ebx
  411343:	add    BYTE PTR [ebx+0x0],ch
  411346:	imul   eax,DWORD PTR [eax],0x700070
  41134c:	imul   eax,DWORD PTR [eax],0x67006e
  411352:	and    BYTE PTR [eax],al
  411354:	arpl   WORD PTR [eax],ax
  411356:	popa   
  411357:	add    BYTE PTR [esi+0x0],ch
  41135a:	arpl   WORD PTR [eax],ax
  41135c:	add    BYTE PTR gs:[eax+eax*1+0x6c],ch
  411361:	add    BYTE PTR [ecx+0x0],ah
  411364:	je     0x411366
  411366:	imul   eax,DWORD PTR [eax],0x6e006f
  41136c:	and    BYTE PTR [eax],al
  41136e:	outs   dx,DWORD PTR ds:[esi]
  41136f:	add    BYTE PTR [esi+0x0],ah
  411372:	and    BYTE PTR [eax],al
  411374:	popa   
  411375:	add    BYTE PTR [ebx+0x0],ah
  411378:	jno    0x41137a
  41137a:	jne    0x41137c
  41137c:	imul   eax,DWORD PTR [eax],0x690073
  411382:	je     0x411384
  411384:	imul   eax,DWORD PTR [eax],0x6e006f
  41138a:	and    BYTE PTR [eax],al
  41138c:	outs   dx,DWORD PTR ds:[esi]
  41138d:	add    BYTE PTR [esi+0x0],ah
  411390:	and    BYTE PTR [eax],al
  411392:	add    BYTE PTR fs:[ebp+0x0],ah
  411396:	jbe    0x411398
  411398:	add    BYTE PTR gs:[eax+eax*1+0x6f],ch
  41139d:	add    BYTE PTR [eax+0x0],dh
  4113a0:	add    BYTE PTR gs:[edx+0x0],dh
  4113a4:	and    BYTE PTR [eax],al
  4113a6:	ins    BYTE PTR es:[edi],dx
  4113a7:	add    BYTE PTR [ecx+0x0],ch
  4113aa:	arpl   WORD PTR [eax],ax
  4113ac:	add    BYTE PTR gs:[esi+0x0],ch
  4113b0:	jae    0x4113b2
  4113b2:	add    BYTE PTR gs:[esi],ch
  4113b5:	add    BYTE PTR [eax],al
  4113b7:	push   ebx
  4113b8:	inc    esp
  4113b9:	add    BYTE PTR [ebp+0x0],ah
  4113bc:	jo     0x4113be
  4113be:	ins    BYTE PTR es:[edi],dx
  4113bf:	add    BYTE PTR [edi+0x0],ch
  4113c2:	jns    0x4113c4
  4113c4:	inc    ecx
  4113c5:	add    BYTE PTR [eax+0x0],dh
  4113c8:	jo     0x4113ca
  4113ca:	js     0x4113cc
  4113cc:	cmp    al,BYTE PTR [eax]
  4113ce:	and    BYTE PTR [eax],al
  4113d0:	inc    ebx
  4113d1:	add    BYTE PTR [eax+eax*1+0x6f],ch
  4113d5:	add    BYTE PTR [ebx+0x0],dh
  4113d8:	imul   eax,DWORD PTR [eax],0x67006e
  4113de:	and    BYTE PTR [eax],al
  4113e0:	je     0x4113e2
  4113e2:	push   0x20006500
  4113e7:	add    BYTE PTR [esi+0x0],ah
  4113ea:	imul   eax,DWORD PTR [eax],0x65006c
  4113f0:	and    BYTE PTR [eax],al
  4113f2:	ja     0x4113f4
  4113f4:	imul   eax,DWORD PTR [eax],0x680074
  4113fa:	and    BYTE PTR [eax],al
  4113fc:	dec    ecx
  4113fd:	add    BYTE PTR [eax+eax*1+0x3a],al
  411401:	add    BYTE PTR [eax],ah
  411403:	add    BYTE PTR [ebx+0x0],bh
  411406:	xor    BYTE PTR [eax],al
  411408:	jge    0x41140a
  41140a:	add    BYTE PTR [ebp+0x44],ah
  41140d:	add    BYTE PTR [ebp+0x0],ah
  411410:	jo     0x411412
  411412:	ins    BYTE PTR es:[edi],dx
  411413:	add    BYTE PTR [edi+0x0],ch
  411416:	jns    0x411418
  411418:	inc    ecx
  411419:	add    BYTE PTR [eax+0x0],dh
  41141c:	jo     0x41141e
  41141e:	js     0x411420
  411420:	cmp    al,BYTE PTR [eax]
  411422:	and    BYTE PTR [eax],al
  411424:	outs   dx,BYTE PTR ds:[esi]
  411425:	add    BYTE PTR [ebp+0x0],dh
  411428:	ins    BYTE PTR es:[edi],dx
  411429:	add    BYTE PTR [eax+eax*1+0x20],ch
  41142d:	add    BYTE PTR [esi+0x0],ah
  411430:	imul   eax,DWORD PTR [eax],0x65006c
  411436:	outs   dx,BYTE PTR ds:[esi]
  411437:	add    BYTE PTR [ecx+0x0],ah
  41143a:	ins    DWORD PTR es:[edi],dx
  41143b:	add    BYTE PTR [ebp+0x0],ah
  41143e:	and    BYTE PTR [eax],al
  411440:	jo     0x411442
  411442:	popa   
  411443:	add    BYTE PTR [ebx+0x0],dh
  411446:	jae    0x411448
  411448:	add    BYTE PTR gs:[eax+eax*1+0x20],ah
  41144d:	add    BYTE PTR [ecx+0x0],ch
  411450:	outs   dx,BYTE PTR ds:[esi]
  411451:	add    BYTE PTR [eax],ah
  411453:	add    BYTE PTR [ebx+0x0],al
  411456:	jb     0x411458
  411458:	add    BYTE PTR gs:[ecx+0x0],ah
  41145c:	je     0x41145e
  41145e:	add    BYTE PTR gs:[esi+0x0],al
  411462:	imul   eax,DWORD PTR [eax],0x65006c
  411468:	push   ebp
  411469:	add    BYTE PTR [edx+0x0],dh
  41146c:	imul   eax,DWORD PTR [eax],0x1300002e
  411472:	jnp    0x411474
  411474:	xor    BYTE PTR [eax],al
  411476:	jge    0x411478
  411478:	cmp    al,BYTE PTR [eax]
  41147a:	das    
  41147b:	add    BYTE PTR [edi],ch
  41147d:	add    BYTE PTR [ebx+0x0],bh
  411480:	xor    DWORD PTR [eax],eax
  411482:	jge    0x411484
  411484:	add    BYTE PTR [edi+0x44],ch
  411487:	add    BYTE PTR [ebp+0x0],ah
  41148a:	jo     0x41148c
  41148c:	ins    BYTE PTR es:[edi],dx
  41148d:	add    BYTE PTR [edi+0x0],ch
  411490:	jns    0x411492
  411492:	inc    ecx
  411493:	add    BYTE PTR [eax+0x0],dh
  411496:	jo     0x411498
  411498:	js     0x41149a
  41149a:	cmp    al,BYTE PTR [eax]
  41149c:	and    BYTE PTR [eax],al
  41149e:	inc    ebp
  41149f:	add    BYTE PTR [edx+0x0],dh
  4114a2:	jb     0x4114a4
  4114a4:	outs   dx,DWORD PTR ds:[esi]
  4114a5:	add    BYTE PTR [edx+0x0],dh
  4114a8:	and    BYTE PTR [eax],al
  4114aa:	inc    ebx
  4114ab:	add    BYTE PTR [edi+0x0],ch
  4114ae:	add    BYTE PTR fs:[ebp+0x0],ah
  4114b2:	and    BYTE PTR [eax],al
  4114b4:	jb     0x4114b6
  4114b6:	add    BYTE PTR gs:[eax+eax*1+0x75],dh
  4114bb:	add    BYTE PTR [edx+0x0],dh
  4114be:	outs   dx,BYTE PTR ds:[esi]
  4114bf:	add    BYTE PTR [ebp+0x0],ah
  4114c2:	add    BYTE PTR fs:[eax],ah
  4114c5:	add    BYTE PTR [edx+0x0],ah
  4114c8:	jns    0x4114ca
  4114ca:	and    BYTE PTR [eax],al
  4114cc:	inc    ecx
  4114cd:	add    BYTE PTR [eax+eax*1+0x64],ah
  4114d1:	add    BYTE PTR [eax+0x0],dl
  4114d4:	popa   
  4114d5:	add    BYTE PTR [ebx+0x0],ah
  4114d8:	imul   eax,DWORD PTR [eax],0x61
  4114db:	add    BYTE PTR [edi+0x0],ah
  4114de:	add    BYTE PTR gs:[ecx+0x0],al
  4114e2:	jae    0x4114e4
  4114e4:	jns    0x4114e6
  4114e6:	outs   dx,BYTE PTR ds:[esi]
  4114e7:	add    BYTE PTR [ebx+0x0],ah
  4114ea:	cmp    al,BYTE PTR [eax]
  4114ec:	and    BYTE PTR [eax],al
  4114ee:	jnp    0x4114f0
  4114f0:	xor    BYTE PTR [eax],al
  4114f2:	jge    0x4114f4
  4114f4:	add    BYTE PTR [ebp+0x44],ch
  4114f7:	add    BYTE PTR [ebp+0x0],ah
  4114fa:	jo     0x4114fc
  4114fc:	ins    BYTE PTR es:[edi],dx
  4114fd:	add    BYTE PTR [edi+0x0],ch
  411500:	jns    0x411502
  411502:	inc    ecx
  411503:	add    BYTE PTR [eax+0x0],dh
  411506:	jo     0x411508
  411508:	js     0x41150a
  41150a:	cmp    al,BYTE PTR [eax]
  41150c:	and    BYTE PTR [eax],al
  41150e:	inc    ebp
  41150f:	add    BYTE PTR [eax+0x0],bh
  411512:	arpl   WORD PTR [eax],ax
  411514:	add    BYTE PTR gs:[eax+0x0],dh
  411518:	je     0x41151a
  41151a:	imul   eax,DWORD PTR [eax],0x6e006f
  411520:	and    BYTE PTR [eax],al
  411522:	jb     0x411524
  411524:	add    BYTE PTR gs:[eax+eax*1+0x75],dh
  411529:	add    BYTE PTR [edx+0x0],dh
  41152c:	outs   dx,BYTE PTR ds:[esi]
  41152d:	add    BYTE PTR [ebp+0x0],ah
  411530:	add    BYTE PTR fs:[eax],ah
  411533:	add    BYTE PTR [edx+0x0],ah
  411536:	jns    0x411538
  411538:	and    BYTE PTR [eax],al
  41153a:	inc    ecx
  41153b:	add    BYTE PTR [eax+eax*1+0x64],ah
  41153f:	add    BYTE PTR [eax+0x0],dl
  411542:	popa   
  411543:	add    BYTE PTR [ebx+0x0],ah
  411546:	imul   eax,DWORD PTR [eax],0x61
  411549:	add    BYTE PTR [edi+0x0],ah
  41154c:	add    BYTE PTR gs:[ecx+0x0],al
  411550:	jae    0x411552
  411552:	jns    0x411554
  411554:	outs   dx,BYTE PTR ds:[esi]
  411555:	add    BYTE PTR [ebx+0x0],ah
  411558:	cmp    al,BYTE PTR [eax]
  41155a:	and    BYTE PTR [eax],al
  41155c:	jnp    0x41155e
  41155e:	xor    BYTE PTR [eax],al
  411560:	jge    0x411562
  411562:	add    BYTE PTR [ecx],cl
  411564:	dec    ebp
  411565:	add    BYTE PTR [ecx+0x0],ah
  411568:	imul   eax,DWORD PTR [eax],0x4b00006e
  41156e:	push   edx
  41156f:	add    BYTE PTR [ebp+0x0],ah
  411572:	ins    DWORD PTR es:[edi],dx
  411573:	add    BYTE PTR [edi+0x0],ch
  411576:	je     0x411578
  411578:	add    BYTE PTR gs:[eax+eax*1+0x65],dl
  41157d:	add    BYTE PTR [ebx+0x0],dh
  411580:	je     0x411582
  411582:	push   edx
  411583:	add    BYTE PTR [ebp+0x0],dh
  411586:	outs   dx,BYTE PTR ds:[esi]
  411587:	add    BYTE PTR [esi+0x0],ch
  41158a:	add    BYTE PTR gs:[edx+0x0],dh
  41158e:	and    BYTE PTR [eax],al
  411590:	jae    0x411592
  411592:	je     0x411594
  411594:	popa   
  411595:	add    BYTE PTR [edx+0x0],dh
  411598:	je     0x41159a
  41159a:	add    BYTE PTR gs:[eax+eax*1+0x20],ah
  41159f:	add    BYTE PTR [ecx+0x0],ch
  4115a2:	outs   dx,BYTE PTR ds:[esi]
  4115a3:	add    BYTE PTR [eax],ah
  4115a5:	add    BYTE PTR [ebx+0x0],bh
  4115a8:	xor    BYTE PTR [eax],al
  4115aa:	jge    0x4115ac
  4115ac:	and    BYTE PTR [eax],al
  4115ae:	ins    DWORD PTR es:[edi],dx
  4115af:	add    BYTE PTR [edi+0x0],ch
  4115b2:	add    BYTE PTR fs:[ebp+0x0],ah
  4115b6:	add    BYTE PTR cs:[eax],al
  4115b9:	popa   
  4115ba:	push   edx
  4115bb:	add    BYTE PTR [ebp+0x0],ah
  4115be:	ins    DWORD PTR es:[edi],dx
  4115bf:	add    BYTE PTR [edi+0x0],ch
  4115c2:	je     0x4115c4
  4115c4:	add    BYTE PTR gs:[eax+eax*1+0x65],dl
  4115c9:	add    BYTE PTR [ebx+0x0],dh
  4115cc:	je     0x4115ce
  4115ce:	push   edx
  4115cf:	add    BYTE PTR [ebp+0x0],dh
  4115d2:	outs   dx,BYTE PTR ds:[esi]
  4115d3:	add    BYTE PTR [esi+0x0],ch
  4115d6:	add    BYTE PTR gs:[edx+0x0],dh
  4115da:	and    BYTE PTR [eax],al
  4115dc:	jae    0x4115de
  4115de:	je     0x4115e0
  4115e0:	popa   
  4115e1:	add    BYTE PTR [edx+0x0],dh
  4115e4:	je     0x4115e6
  4115e6:	add    BYTE PTR gs:[eax+eax*1+0x20],ah
  4115eb:	add    BYTE PTR [ebp+0x0],dh
  4115ee:	outs   dx,BYTE PTR ds:[esi]
  4115ef:	add    BYTE PTR [eax+eax*1+0x65],ah
  4115f3:	add    BYTE PTR [edx+0x0],dh
  4115f6:	and    BYTE PTR [eax],al
  4115f8:	arpl   WORD PTR [eax],ax
  4115fa:	jb     0x4115fc
  4115fc:	add    BYTE PTR gs:[eax+eax*1+0x65],ah
  411601:	add    BYTE PTR [esi+0x0],ch
  411604:	je     0x411606
  411606:	imul   eax,DWORD PTR [eax],0x6c0061
  41160c:	jae    0x41160e
  41160e:	and    BYTE PTR [eax],al
  411610:	cmp    al,BYTE PTR [eax]
  411612:	and    BYTE PTR [eax],al
  411614:	jnp    0x411616
  411616:	xor    BYTE PTR [eax],al
  411618:	jge    0x41161a
  41161a:	add    BYTE PTR [eax+0x68005491],al
  411620:	add    BYTE PTR [ebp+0x0],ah
  411623:	jb     0x411625
  411625:	add    BYTE PTR gs:[eax],ah
  411628:	add    BYTE PTR [ecx+0x0],ch
  41162b:	jae    0x41162d
  41162d:	and    BYTE PTR [eax],al
  41162f:	popa   
  411630:	add    BYTE PTR [esi+0x0],ch
  411633:	and    BYTE PTR [eax],al
  411635:	popa   
  411636:	add    BYTE PTR [ebx+0x0],ah
  411639:	je     0x41163b
  41163b:	imul   eax,DWORD PTR [eax],0x650076
  411641:	and    BYTE PTR [eax],al
  411643:	push   edx
  411644:	add    BYTE PTR [ebp+0x0],ah
  411647:	ins    DWORD PTR es:[edi],dx
  411648:	add    BYTE PTR [edi+0x0],ch
  41164b:	je     0x41164d
  41164d:	add    BYTE PTR gs:[eax],ah
  411650:	add    BYTE PTR [eax+eax*1+0x65],dl
  411654:	add    BYTE PTR [ebx+0x0],dh
  411657:	je     0x411659
  411659:	and    BYTE PTR [eax],al
  41165b:	push   edx
  41165c:	add    BYTE PTR [ebp+0x0],dh
  41165f:	outs   dx,BYTE PTR ds:[esi]
  411660:	add    BYTE PTR [esi+0x0],ch
  411663:	add    BYTE PTR gs:[edx+0x0],dh
  411667:	and    BYTE PTR [eax],al
  411669:	jo     0x41166b
  41166b:	jb     0x41166d
  41166d:	outs   dx,DWORD PTR ds:[esi]
  41166e:	add    BYTE PTR [ebx+0x0],ah
  411671:	add    BYTE PTR gs:[ebx+0x0],dh
  411675:	jae    0x411677
  411677:	add    BYTE PTR cs:[eax],ah
  41167a:	add    BYTE PTR [eax+eax*1+0x68],dl
  41167e:	add    BYTE PTR [ecx+0x0],ch
  411681:	jae    0x411683
  411683:	and    BYTE PTR [eax],al
  411685:	imul   eax,DWORD PTR [eax],0x73006e
  41168b:	je     0x41168d
  41168d:	popa   
  41168e:	add    BYTE PTR [esi+0x0],ch
  411691:	arpl   WORD PTR [eax],ax
  411693:	add    BYTE PTR gs:[eax],ah
  411696:	add    BYTE PTR [ecx+0x0],ch
  411699:	jae    0x41169b
  41169b:	and    BYTE PTR [eax],al
  41169d:	add    BYTE PTR gs:[eax+0x0],bh
  4116a1:	imul   eax,DWORD PTR [eax],0x690074
  4116a7:	outs   dx,BYTE PTR ds:[esi]
  4116a8:	add    BYTE PTR [edi+0x0],ah
  4116ab:	add    BYTE PTR cs:[eax],al
  4116ae:	dec    ebx
  4116af:	inc    ecx
  4116b0:	add    BYTE PTR [esi+0x0],ch
  4116b3:	outs   dx,DWORD PTR ds:[esi]
  4116b4:	add    BYTE PTR [eax+eax*1+0x68],dh
  4116b8:	add    BYTE PTR [ebp+0x0],ah
  4116bb:	jb     0x4116bd
  4116bd:	and    BYTE PTR [eax],al
  4116bf:	jo     0x4116c1
  4116c1:	jb     0x4116c3
  4116c3:	outs   dx,DWORD PTR ds:[esi]
  4116c4:	add    BYTE PTR [ebx+0x0],ah
  4116c7:	add    BYTE PTR gs:[ebx+0x0],dh
  4116cb:	jae    0x4116cd
  4116cd:	and    BYTE PTR [eax],al
  4116cf:	imul   eax,DWORD PTR [eax],0x200073
  4116d5:	jne    0x4116d7
  4116d7:	jae    0x4116d9
  4116d9:	imul   eax,DWORD PTR [eax],0x67006e
  4116df:	and    BYTE PTR [eax],al
  4116e1:	je     0x4116e3
  4116e3:	push   0x20006500
  4116e8:	add    BYTE PTR [eax+0x0],dh
  4116eb:	outs   dx,DWORD PTR ds:[esi]
  4116ec:	add    BYTE PTR [edx+0x0],dh
  4116ef:	je     0x4116f1
  4116f1:	and    BYTE PTR [eax],al
  4116f3:	jnp    0x4116f5
  4116f5:	xor    BYTE PTR [eax],al
  4116f7:	jge    0x4116f9
  4116f9:	add    BYTE PTR [edi+0x48],dl
  4116fc:	add    BYTE PTR [edi+0x0],cl
  4116ff:	push   ebx
  411700:	add    BYTE PTR [eax+eax*1+0x20],dl
  411704:	add    BYTE PTR [edx],bh
  411706:	add    BYTE PTR [eax],ah
  411708:	add    BYTE PTR [ebx+0x0],al
  41170b:	popa   
  41170c:	add    BYTE PTR [eax+eax*1+0x6c],ch
  411710:	add    BYTE PTR [ecx+0x0],ch
  411713:	outs   dx,BYTE PTR ds:[esi]
  411714:	add    BYTE PTR [edi+0x0],ah
  411717:	and    BYTE PTR [eax],al
  411719:	dec    ecx
  41171a:	add    BYTE PTR [esi+0x0],ch
  41171d:	je     0x41171f
  41171f:	add    BYTE PTR gs:[edx+0x0],dh
  411723:	outs   dx,BYTE PTR ds:[esi]
  411724:	add    BYTE PTR [ecx+0x0],ah
  411727:	ins    BYTE PTR es:[edi],dx
  411728:	add    BYTE PTR [ebx+0x0],dl
  41172b:	je     0x41172d
  41172d:	popa   
  41172e:	add    BYTE PTR [edx+0x0],dh
  411731:	je     0x411733
  411733:	and    BYTE PTR [eax],al
  411735:	ja     0x411737
  411737:	imul   eax,DWORD PTR [eax],0x680074
  41173d:	and    BYTE PTR [eax],al
  41173f:	ins    DWORD PTR es:[edi],dx
  411740:	add    BYTE PTR [edi+0x0],ch
  411743:	add    BYTE PTR fs:[ebp+0x0],ah
  411747:	and    BYTE PTR [eax],al
  411749:	cmp    al,BYTE PTR [eax]
  41174b:	jnp    0x41174d
  41174d:	xor    BYTE PTR [eax],al
  41174f:	jge    0x411751
  411751:	add    BYTE PTR [ecx],bh
  411753:	dec    eax
  411754:	add    BYTE PTR [edi+0x0],cl
  411757:	push   ebx
  411758:	add    BYTE PTR [eax+eax*1+0x20],dl
  41175c:	add    BYTE PTR [edx],bh
  41175e:	add    BYTE PTR [eax],ah
  411760:	add    BYTE PTR [ebx+0x0],dl
  411763:	je     0x411765
  411765:	popa   
  411766:	add    BYTE PTR [edx+0x0],dh
  411769:	je     0x41176b
  41176b:	add    BYTE PTR gs:[eax+eax*1+0x20],ah
  411770:	add    BYTE PTR [ecx+0x0],ah
  411773:	je     0x411775
  411775:	and    BYTE PTR [eax],al
  411777:	push   eax
  411778:	add    BYTE PTR [edi+0x0],ch
  41177b:	jb     0x41177d
  41177d:	je     0x41177f
  41177f:	and    BYTE PTR [eax],al
  411781:	cmp    al,BYTE PTR [eax]
  411783:	and    BYTE PTR [eax],al
  411785:	jnp    0x411787
  411787:	xor    BYTE PTR [eax],al
  411789:	jge    0x41178b
  41178b:	add    BYTE PTR [ebp+0x52],cl
  41178e:	add    BYTE PTR [ebp+0x0],ah
  411791:	ins    DWORD PTR es:[edi],dx
  411792:	add    BYTE PTR [edi+0x0],ch
  411795:	je     0x411797
  411797:	add    BYTE PTR gs:[eax+eax*1+0x65],dl
  41179c:	add    BYTE PTR [ebx+0x0],dh
  41179f:	je     0x4117a1
  4117a1:	push   edx
  4117a2:	add    BYTE PTR [ebp+0x0],dh
  4117a5:	outs   dx,BYTE PTR ds:[esi]
  4117a6:	add    BYTE PTR [esi+0x0],ch
  4117a9:	add    BYTE PTR gs:[edx+0x0],dh
  4117ad:	and    BYTE PTR [eax],al
  4117af:	cmp    al,BYTE PTR [eax]
  4117b1:	and    BYTE PTR [eax],al
  4117b3:	dec    eax
  4117b4:	add    BYTE PTR [ecx+0x0],ch
  4117b7:	je     0x4117b9
  4117b9:	and    BYTE PTR [eax],al
  4117bb:	inc    ebp
  4117bc:	add    BYTE PTR [eax+0x0],bh
  4117bf:	arpl   WORD PTR [eax],ax
  4117c1:	add    BYTE PTR gs:[eax+0x0],dh
  4117c5:	je     0x4117c7
  4117c7:	imul   eax,DWORD PTR [eax],0x6e006f
  4117cd:	and    BYTE PTR [eax],al
  4117cf:	cmp    al,BYTE PTR [eax]
  4117d1:	and    BYTE PTR [eax],al
  4117d3:	jnp    0x4117d5
  4117d5:	xor    BYTE PTR [eax],al
  4117d7:	jge    0x4117d9
  4117d9:	add    BYTE PTR [edi],dh
  4117db:	push   edx
  4117dc:	add    BYTE PTR [ebp+0x0],ah
  4117df:	ins    DWORD PTR es:[edi],dx
  4117e0:	add    BYTE PTR [edi+0x0],ch
  4117e3:	je     0x4117e5
  4117e5:	add    BYTE PTR gs:[eax+eax*1+0x65],dl
  4117ea:	add    BYTE PTR [ebx+0x0],dh
  4117ed:	je     0x4117ef
  4117ef:	push   edx
  4117f0:	add    BYTE PTR [ebp+0x0],dh
  4117f3:	outs   dx,BYTE PTR ds:[esi]
  4117f4:	add    BYTE PTR [esi+0x0],ch
  4117f7:	add    BYTE PTR gs:[edx+0x0],dh
  4117fb:	cmp    al,BYTE PTR [eax]
  4117fd:	and    BYTE PTR [eax],al
  4117ff:	dec    ebp
  411800:	add    BYTE PTR [edi+0x0],ch
  411803:	add    BYTE PTR fs:[ebp+0x0],ah
  411807:	cmp    al,BYTE PTR [eax]
  411809:	and    BYTE PTR [eax],al
  41180b:	jnp    0x41180d
  41180d:	xor    BYTE PTR [eax],al
  41180f:	jge    0x411811
  411811:	add    BYTE PTR ds:0x650052,dh
  411817:	ins    DWORD PTR es:[edi],dx
  411818:	add    BYTE PTR [edi+0x0],ch
  41181b:	je     0x41181d
  41181d:	add    BYTE PTR gs:[eax+eax*1+0x65],dl
  411822:	add    BYTE PTR [ebx+0x0],dh
  411825:	je     0x411827
  411827:	push   edx
  411828:	add    BYTE PTR [ebp+0x0],dh
  41182b:	outs   dx,BYTE PTR ds:[esi]
  41182c:	add    BYTE PTR [esi+0x0],ch
  41182f:	add    BYTE PTR gs:[edx+0x0],dh
  411833:	and    BYTE PTR [eax],al
  411835:	cmp    al,BYTE PTR [eax]
  411837:	and    BYTE PTR [eax],al
  411839:	inc    ebp
  41183a:	add    BYTE PTR [eax+0x0],bh
  41183d:	imul   eax,DWORD PTR [eax],0x690074
  411843:	outs   dx,BYTE PTR ds:[esi]
  411844:	add    BYTE PTR [edi+0x0],ah
  411847:	add    BYTE PTR [ecx],ah
  411849:	push   edx
  41184a:	add    BYTE PTR [ebp+0x0],ah
  41184d:	ins    DWORD PTR es:[edi],dx
  41184e:	add    BYTE PTR [edi+0x0],ch
  411851:	je     0x411853
  411853:	add    BYTE PTR gs:[eax+eax*1+0x65],dl
  411858:	add    BYTE PTR [ebx+0x0],dh
  41185b:	je     0x41185d
  41185d:	push   edx
  41185e:	add    BYTE PTR [ebp+0x0],dh
  411861:	outs   dx,BYTE PTR ds:[esi]
  411862:	add    BYTE PTR [esi+0x0],ch
  411865:	add    BYTE PTR gs:[edx+0x0],dh
  411869:	add    BYTE PTR [ecx],ch
  41186b:	push   edx
  41186c:	add    BYTE PTR [ebp+0x0],ah
  41186f:	ins    DWORD PTR es:[edi],dx
  411870:	add    BYTE PTR [edi+0x0],ch
  411873:	je     0x411875
  411875:	add    BYTE PTR gs:[eax+eax*1+0x65],dl
  41187a:	add    BYTE PTR [ebx+0x0],dh
  41187d:	je     0x41187f
  41187f:	push   edx
  411880:	add    BYTE PTR [ebp+0x0],dh
  411883:	outs   dx,BYTE PTR ds:[esi]
  411884:	add    BYTE PTR [esi+0x0],ch
  411887:	add    BYTE PTR gs:[edx+0x0],dh
  41188b:	add    BYTE PTR cs:[eax+eax*1+0x6f],ch
  411890:	add    BYTE PTR [edi+0x0],ah
  411893:	add    BYTE PTR [ecx],al
  411895:	add    BYTE PTR [eax+0x65005293],al
  41189b:	add    BYTE PTR [ebp+0x0],ch
  41189e:	outs   dx,DWORD PTR ds:[esi]
  41189f:	add    BYTE PTR [eax+eax*1+0x65],dh
  4118a3:	add    BYTE PTR [eax+eax*1+0x65],dl
  4118a7:	add    BYTE PTR [ebx+0x0],dh
  4118aa:	je     0x4118ac
  4118ac:	push   edx
  4118ad:	add    BYTE PTR [ebp+0x0],dh
  4118b0:	outs   dx,BYTE PTR ds:[esi]
  4118b1:	add    BYTE PTR [esi+0x0],ch
  4118b4:	add    BYTE PTR gs:[edx+0x0],dh
  4118b8:	and    BYTE PTR [eax],al
  4118ba:	jae    0x4118bc
  4118bc:	je     0x4118be
  4118be:	popa   
  4118bf:	add    BYTE PTR [edx+0x0],dh
  4118c2:	je     0x4118c4
  4118c4:	add    BYTE PTR gs:[eax+eax*1+0x20],ah
  4118c9:	add    BYTE PTR [edi+0x0],ch
  4118cc:	outs   dx,BYTE PTR ds:[esi]
  4118cd:	add    BYTE PTR [eax],ah
  4118cf:	add    BYTE PTR [ebx+0x0],bh
  4118d2:	xor    BYTE PTR [eax],al
  4118d4:	cmp    al,BYTE PTR [eax]
  4118d6:	jns    0x4118d8
  4118d8:	jns    0x4118da
  4118da:	jns    0x4118dc
  4118dc:	jns    0x4118de
  4118de:	jge    0x4118e0
  4118e0:	das    
  4118e1:	add    BYTE PTR [ebx+0x0],bh
  4118e4:	xor    BYTE PTR [eax],al
  4118e6:	cmp    al,BYTE PTR [eax]
  4118e8:	dec    ebp
  4118e9:	add    BYTE PTR [ebp+0x0],cl
  4118ec:	jge    0x4118ee
  4118ee:	das    
  4118ef:	add    BYTE PTR [ebx+0x0],bh
  4118f2:	xor    BYTE PTR [eax],al
  4118f4:	cmp    al,BYTE PTR [eax]
  4118f6:	add    BYTE PTR fs:[eax+eax*1+0x7d],ah
  4118fb:	add    BYTE PTR [eax+eax*1],ch
  4118fe:	and    BYTE PTR [eax],al
  411900:	jnp    0x411902
  411902:	xor    BYTE PTR [eax],al
  411904:	cmp    al,BYTE PTR [eax]
  411906:	dec    eax
  411907:	add    BYTE PTR [eax+0x0],cl
  41190a:	jge    0x41190c
  41190c:	cmp    al,BYTE PTR [eax]
  41190e:	jnp    0x411910
  411910:	xor    BYTE PTR [eax],al
  411912:	cmp    al,BYTE PTR [eax]
  411914:	ins    DWORD PTR es:[edi],dx
  411915:	add    BYTE PTR [ebp+0x0],ch
  411918:	jge    0x41191a
  41191a:	cmp    al,BYTE PTR [eax]
  41191c:	jnp    0x41191e
  41191e:	xor    BYTE PTR [eax],al
  411920:	cmp    al,BYTE PTR [eax]
  411922:	jae    0x411924
  411924:	jae    0x411926
  411926:	jge    0x411928
  411928:	add    BYTE PTR cs:[eax],al
  41192b:	and    DWORD PTR [edi+0x0],ecx
  41192e:	push   ebx
  41192f:	add    BYTE PTR [eax],ah
  411931:	add    BYTE PTR [esi+0x0],dl
  411934:	add    BYTE PTR gs:[edx+0x0],dh
  411938:	jae    0x41193a
  41193a:	imul   eax,DWORD PTR [eax],0x6e006f
  411940:	and    BYTE PTR [eax],al
  411942:	cmp    al,BYTE PTR [eax]
  411944:	and    BYTE PTR [eax],al
  411946:	jnp    0x411948
  411948:	xor    BYTE PTR [eax],al
  41194a:	jge    0x41194c
  41194c:	add    BYTE PTR [ecx],dh
  41194e:	inc    ebp
  41194f:	add    BYTE PTR [eax+0x0],bh
  411952:	add    BYTE PTR gs:[ebx+0x0],ah
  411956:	jne    0x411958
  411958:	je     0x41195a
  41195a:	popa   
  41195b:	add    BYTE PTR [edx+0x0],ah
  41195e:	ins    BYTE PTR es:[edi],dx
  41195f:	add    BYTE PTR [ebp+0x0],ah
  411962:	and    BYTE PTR [eax],al
  411964:	jbe    0x411966
  411966:	add    BYTE PTR gs:[edx+0x0],dh
  41196a:	jae    0x41196c
  41196c:	imul   eax,DWORD PTR [eax],0x6e006f
  411972:	and    BYTE PTR [eax],al
  411974:	cmp    al,BYTE PTR [eax]
  411976:	and    BYTE PTR [eax],al
  411978:	jnp    0x41197a
  41197a:	xor    BYTE PTR [eax],al
  41197c:	jge    0x41197e
  41197e:	add    BYTE PTR [ebp+0x52],dl
  411981:	add    BYTE PTR [ebp+0x0],ah
  411984:	ins    DWORD PTR es:[edi],dx
  411985:	add    BYTE PTR [edi+0x0],ch
  411988:	je     0x41198a
  41198a:	add    BYTE PTR gs:[eax+eax*1+0x65],dl
  41198f:	add    BYTE PTR [ebx+0x0],dh
  411992:	je     0x411994
  411994:	push   edx
  411995:	add    BYTE PTR [ebp+0x0],dh
  411998:	outs   dx,BYTE PTR ds:[esi]
  411999:	add    BYTE PTR [esi+0x0],ch
  41199c:	add    BYTE PTR gs:[edx+0x0],dh
  4119a0:	and    BYTE PTR [eax],al
  4119a2:	cmp    al,BYTE PTR [eax]
  4119a4:	and    BYTE PTR [eax],al
  4119a6:	inc    ebp
  4119a7:	add    BYTE PTR [eax+0x0],bh
  4119aa:	arpl   WORD PTR [eax],ax
  4119ac:	add    BYTE PTR gs:[eax+0x0],dh
  4119b0:	je     0x4119b2
  4119b2:	imul   eax,DWORD PTR [eax],0x6e006f
  4119b8:	and    BYTE PTR [eax],al
  4119ba:	jne    0x4119bc
  4119bc:	outs   dx,BYTE PTR ds:[esi]
  4119bd:	add    BYTE PTR [eax+0x0],ch
  4119c0:	popa   
  4119c1:	add    BYTE PTR [esi+0x0],ch
  4119c4:	add    BYTE PTR fs:[eax+eax*1+0x65],ch
  4119c9:	add    BYTE PTR [eax+eax*1+0x20],ah
  4119cd:	add    BYTE PTR [ebx+0x0],bh
  4119d0:	xor    BYTE PTR [eax],al
  4119d2:	jge    0x4119d4
  4119d4:	add    BYTE PTR [ecx],bl
  4119d6:	push   eax
  4119d7:	add    BYTE PTR [edx+0x0],dh
  4119da:	add    BYTE PTR gs:[esi+0x0],dh
  4119de:	imul   eax,DWORD PTR [eax],0x75006f
  4119e4:	jae    0x4119e6
  4119e6:	push   edx
  4119e7:	add    BYTE PTR [ebp+0x0],dh
  4119ea:	outs   dx,BYTE PTR ds:[esi]
  4119eb:	add    BYTE PTR [edx],ch
  4119ed:	add    BYTE PTR [eax],al
  4119ef:	cmovl  eax,DWORD PTR [eax]
  4119f2:	popa   
  4119f3:	add    BYTE PTR [ebx+0x0],dh
  4119f6:	je     0x4119f8
  4119f8:	push   edx
  4119f9:	add    BYTE PTR [ebp+0x0],dh
  4119fc:	outs   dx,BYTE PTR ds:[esi]
  4119fd:	add    BYTE PTR [eax],al
  4119ff:	pop    ss
  411a00:	push   eax
  411a01:	add    BYTE PTR [edx+0x0],dh
  411a04:	add    BYTE PTR gs:[esi+0x0],dh
  411a08:	imul   eax,DWORD PTR [eax],0x75006f
  411a0e:	jae    0x411a10
  411a10:	push   edx
  411a11:	add    BYTE PTR [ebp+0x0],dh
  411a14:	outs   dx,BYTE PTR ds:[esi]
  411a15:	add    BYTE PTR [eax],al
  411a17:	dec    ebx
  411a18:	push   edx
  411a19:	add    BYTE PTR [ebp+0x0],ah
  411a1c:	ins    DWORD PTR es:[edi],dx
  411a1d:	add    BYTE PTR [edi+0x0],ch
  411a20:	je     0x411a22
  411a22:	add    BYTE PTR gs:[eax+eax*1+0x65],dl
  411a27:	add    BYTE PTR [ebx+0x0],dh
  411a2a:	je     0x411a2c
  411a2c:	push   edx
  411a2d:	add    BYTE PTR [ebp+0x0],dh
  411a30:	outs   dx,BYTE PTR ds:[esi]
  411a31:	add    BYTE PTR [esi+0x0],ch
  411a34:	add    BYTE PTR gs:[edx+0x0],dh
  411a38:	add    BYTE PTR cs:[edi+0x0],cl
  411a3c:	outs   dx,BYTE PTR ds:[esi]
  411a3d:	add    BYTE PTR [ebx+0x0],dh
  411a40:	je     0x411a42
  411a42:	popa   
  411a43:	add    BYTE PTR [edx+0x0],dh
  411a46:	je     0x411a48
  411a48:	sub    BYTE PTR [eax],al
  411a4a:	sub    DWORD PTR [eax],eax
  411a4c:	and    BYTE PTR [eax],al
  411a4e:	cmp    al,BYTE PTR [eax]
  411a50:	and    BYTE PTR [eax],al
  411a52:	dec    ecx
  411a53:	add    BYTE PTR [esi+0x0],ch
  411a56:	jbe    0x411a58
  411a58:	outs   dx,DWORD PTR ds:[esi]
  411a59:	add    BYTE PTR [ebx+0x0],ch
  411a5c:	add    BYTE PTR gs:[eax+eax*1+0x2e],ah
  411a61:	add    BYTE PTR [eax],al
  411a63:	and    BYTE PTR [edi+0x650052],0x6d
  411a6a:	add    BYTE PTR [edi+0x0],ch
  411a6d:	je     0x411a6f
  411a6f:	add    BYTE PTR gs:[eax+eax*1+0x65],dl
  411a74:	add    BYTE PTR [ebx+0x0],dh
  411a77:	je     0x411a79
  411a79:	push   edx
  411a7a:	add    BYTE PTR [ebp+0x0],dh
  411a7d:	outs   dx,BYTE PTR ds:[esi]
  411a7e:	add    BYTE PTR [esi+0x0],ch
  411a81:	add    BYTE PTR gs:[edx+0x0],dh
  411a85:	add    BYTE PTR cs:[edi+0x0],cl
  411a89:	outs   dx,BYTE PTR ds:[esi]
  411a8a:	add    BYTE PTR [ebx+0x0],dh
  411a8d:	je     0x411a8f
  411a8f:	popa   
  411a90:	add    BYTE PTR [edx+0x0],dh
  411a93:	je     0x411a95
  411a95:	sub    BYTE PTR [eax],al
  411a97:	sub    DWORD PTR [eax],eax
  411a99:	and    BYTE PTR [eax],al
  411a9b:	cmp    al,BYTE PTR [eax]
  411a9d:	and    BYTE PTR [eax],al
  411a9f:	push   esp
  411aa0:	add    BYTE PTR [edx+0x0],dh
  411aa3:	jns    0x411aa5
  411aa5:	imul   eax,DWORD PTR [eax],0x67006e
  411aab:	and    BYTE PTR [eax],al
  411aad:	je     0x411aaf
  411aaf:	outs   dx,DWORD PTR ds:[esi]
  411ab0:	add    BYTE PTR [eax],ah
  411ab2:	add    BYTE PTR [ebx+0x0],dh
  411ab5:	je     0x411ab7
  411ab7:	popa   
  411ab8:	add    BYTE PTR [edx+0x0],dh
  411abb:	je     0x411abd
  411abd:	and    BYTE PTR [eax],al
  411abf:	push   esp
  411ac0:	add    BYTE PTR [edx+0x0],dl
  411ac3:	dec    ecx
  411ac4:	add    BYTE PTR [eax],ah
  411ac6:	add    BYTE PTR [eax+0x0],dh
  411ac9:	jb     0x411acb
  411acb:	outs   dx,DWORD PTR ds:[esi]
  411acc:	add    BYTE PTR [ebx+0x0],ah
  411acf:	add    BYTE PTR gs:[ebx+0x0],dh
  411ad3:	jae    0x411ad5
  411ad5:	and    BYTE PTR [eax],al
  411ad7:	ja     0x411ad9
  411ad9:	imul   eax,DWORD PTR [eax],0x680074
  411adf:	and    BYTE PTR [eax],al
  411ae1:	je     0x411ae3
  411ae3:	jb     0x411ae5
  411ae5:	popa   
  411ae6:	add    BYTE PTR [ebx+0x0],ah
  411ae9:	add    BYTE PTR gs:[eax],ah
  411aec:	add    BYTE PTR [eax+eax*1+0x69],ah
  411af0:	add    BYTE PTR [edx+0x0],dh
  411af3:	add    BYTE PTR gs:[ebx+0x0],ah
  411af7:	je     0x411af9
  411af9:	outs   dx,DWORD PTR ds:[esi]
  411afa:	add    BYTE PTR [edx+0x0],dh
  411afd:	jns    0x411aff
  411aff:	and    BYTE PTR [eax],al
  411b01:	cmp    eax,0x7b002000
  411b06:	add    BYTE PTR [eax],dh
  411b08:	add    BYTE PTR [ebp+0x0],bh
  411b0b:	add    BYTE PTR [ecx+0x52],cl
  411b0e:	add    BYTE PTR [ebp+0x0],ah
  411b11:	ins    DWORD PTR es:[edi],dx
  411b12:	add    BYTE PTR [edi+0x0],ch
  411b15:	je     0x411b17
  411b17:	add    BYTE PTR gs:[eax+eax*1+0x65],dl
  411b1c:	add    BYTE PTR [ebx+0x0],dh
  411b1f:	je     0x411b21
  411b21:	push   edx
  411b22:	add    BYTE PTR [ebp+0x0],dh
  411b25:	outs   dx,BYTE PTR ds:[esi]
  411b26:	add    BYTE PTR [esi+0x0],ch
  411b29:	add    BYTE PTR gs:[edx+0x0],dh
  411b2d:	add    BYTE PTR cs:[edi+0x0],cl
  411b31:	outs   dx,BYTE PTR ds:[esi]
  411b32:	add    BYTE PTR [ebx+0x0],dl
  411b35:	je     0x411b37
  411b37:	outs   dx,DWORD PTR ds:[esi]
  411b38:	add    BYTE PTR [eax+0x0],dh
  411b3b:	sub    BYTE PTR [eax],al
  411b3d:	sub    DWORD PTR [eax],eax
  411b3f:	and    BYTE PTR [eax],al
  411b41:	cmp    al,BYTE PTR [eax]
  411b43:	and    BYTE PTR [eax],al
  411b45:	dec    ecx
  411b46:	add    BYTE PTR [esi+0x0],ch
  411b49:	jbe    0x411b4b
  411b4b:	outs   dx,DWORD PTR ds:[esi]
  411b4c:	add    BYTE PTR [ebx+0x0],ch
  411b4f:	add    BYTE PTR gs:[eax+eax*1+0x2e],ah
  411b54:	add    BYTE PTR [eax],al
  411b56:	ins    DWORD PTR es:[edi],dx
  411b57:	push   edx
  411b58:	add    BYTE PTR [ebp+0x0],ah
  411b5b:	ins    DWORD PTR es:[edi],dx
  411b5c:	add    BYTE PTR [edi+0x0],ch
  411b5f:	je     0x411b61
  411b61:	add    BYTE PTR gs:[eax+eax*1+0x65],dl
  411b66:	add    BYTE PTR [ebx+0x0],dh
  411b69:	je     0x411b6b
  411b6b:	push   edx
  411b6c:	add    BYTE PTR [ebp+0x0],dh
  411b6f:	outs   dx,BYTE PTR ds:[esi]
  411b70:	add    BYTE PTR [esi+0x0],ch
  411b73:	add    BYTE PTR gs:[edx+0x0],dh
  411b77:	add    BYTE PTR cs:[edi+0x0],cl
  411b7b:	outs   dx,BYTE PTR ds:[esi]
  411b7c:	add    BYTE PTR [ebx+0x0],dl
  411b7f:	je     0x411b81
  411b81:	outs   dx,DWORD PTR ds:[esi]
  411b82:	add    BYTE PTR [eax+0x0],dh
  411b85:	sub    BYTE PTR [eax],al
  411b87:	sub    DWORD PTR [eax],eax
  411b89:	and    BYTE PTR [eax],al
  411b8b:	cmp    al,BYTE PTR [eax]
  411b8d:	and    BYTE PTR [eax],al
  411b8f:	push   esp
  411b90:	add    BYTE PTR [edx+0x0],dh
  411b93:	jns    0x411b95
  411b95:	imul   eax,DWORD PTR [eax],0x67006e
  411b9b:	and    BYTE PTR [eax],al
  411b9d:	je     0x411b9f
  411b9f:	outs   dx,DWORD PTR ds:[esi]
  411ba0:	add    BYTE PTR [eax],ah
  411ba2:	add    BYTE PTR [ebx+0x0],dh
  411ba5:	je     0x411ba7
  411ba7:	outs   dx,DWORD PTR ds:[esi]
  411ba8:	add    BYTE PTR [eax+0x0],dh
  411bab:	and    BYTE PTR [eax],al
  411bad:	push   esp
  411bae:	add    BYTE PTR [edx+0x0],dl
  411bb1:	dec    ecx
  411bb2:	add    BYTE PTR [eax],ah
  411bb4:	add    BYTE PTR [eax+0x0],dh
  411bb7:	jb     0x411bb9
  411bb9:	outs   dx,DWORD PTR ds:[esi]
  411bba:	add    BYTE PTR [ebx+0x0],ah
  411bbd:	add    BYTE PTR gs:[ebx+0x0],dh
  411bc1:	jae    0x411bc3
  411bc3:	add    BYTE PTR [edi],dl
  411bc5:	inc    esp
  411bc6:	add    BYTE PTR [ebp+0x0],ah
  411bc9:	data16 add BYTE PTR [ecx+0x0],ah
  411bcd:	jne    0x411bcf
  411bcf:	ins    BYTE PTR es:[edi],dx
  411bd0:	add    BYTE PTR [eax+eax*1+0x50],dh
  411bd4:	add    BYTE PTR [edi+0x0],ch
  411bd7:	jb     0x411bd9
  411bd9:	je     0x411bdb
  411bdb:	add    BYTE PTR ds:0x73002f,al
  411be1:	add    BYTE PTR ds:0x73002f,dl
  411be7:	imul   eax,DWORD PTR [eax],0x75006d
  411bed:	ins    BYTE PTR es:[edi],dx
  411bee:	add    BYTE PTR [ecx+0x0],ah
  411bf1:	je     0x411bf3
  411bf3:	outs   dx,DWORD PTR ds:[esi]
  411bf4:	add    BYTE PTR [edx+0x0],dh
  411bf7:	add    BYTE PTR ds:0x73002f,bl
  411bfd:	imul   eax,DWORD PTR [eax],0x75006d
  411c03:	ins    BYTE PTR es:[edi],dx
  411c04:	add    BYTE PTR [ecx+0x0],ah
  411c07:	je     0x411c09
  411c09:	outs   dx,DWORD PTR ds:[esi]
  411c0a:	add    BYTE PTR [edx+0x0],dh
  411c0d:	ins    DWORD PTR es:[edi],dx
  411c0e:	add    BYTE PTR [edi+0x0],ch
  411c11:	add    BYTE PTR fs:[ebp+0x0],ah
  411c15:	add    BYTE PTR ds:0x68002f,al
  411c1b:	add    BYTE PTR ds:0x3f002f,al
  411c21:	add    BYTE PTR ds:0x3f002d,al
  411c27:	add    DWORD PTR [eax+0x69004daf],eax
  411c2d:	add    BYTE PTR [ebx+0x0],ah
  411c30:	jb     0x411c32
  411c32:	outs   dx,DWORD PTR ds:[esi]
  411c33:	add    BYTE PTR [ebx+0x0],dh
  411c36:	outs   dx,DWORD PTR ds:[esi]
  411c37:	add    BYTE PTR [esi+0x0],ah
  411c3a:	je     0x411c3c
  411c3c:	add    BYTE PTR cs:[esi+0x0],dl
  411c40:	imul   eax,DWORD PTR [eax],0x750073
  411c46:	popa   
  411c47:	add    BYTE PTR [eax+eax*1+0x53],ch
  411c4b:	add    BYTE PTR [eax+eax*1+0x75],dh
  411c4f:	add    BYTE PTR [eax+eax*1+0x69],ah
  411c53:	add    BYTE PTR [edi+0x0],ch
  411c56:	add    BYTE PTR cs:[ecx+0x0],dl
  411c5a:	jne    0x411c5c
  411c5c:	popa   
  411c5d:	add    BYTE PTR [eax+eax*1+0x69],ch
  411c61:	add    BYTE PTR [eax+eax*1+0x79],dh
  411c65:	add    BYTE PTR [eax+eax*1+0x6f],dl
  411c69:	add    BYTE PTR [edi+0x0],ch
  411c6c:	ins    BYTE PTR es:[edi],dx
  411c6d:	add    BYTE PTR [ebx+0x0],dh
  411c70:	add    BYTE PTR cs:[edx+0x0],dl
  411c74:	add    BYTE PTR gs:[ebp+0x0],ch
  411c78:	outs   dx,DWORD PTR ds:[esi]
  411c79:	add    BYTE PTR [eax+eax*1+0x65],dh
  411c7d:	add    BYTE PTR [eax+eax*1+0x61],al
  411c81:	add    BYTE PTR [eax+eax*1+0x61],dh
  411c85:	add    BYTE PTR [ebx+0x0],al
  411c88:	outs   dx,DWORD PTR ds:[esi]
  411c89:	add    BYTE PTR [eax+eax*1+0x6c],ch
  411c8d:	add    BYTE PTR [ebp+0x0],ah
  411c90:	arpl   WORD PTR [eax],ax
  411c92:	je     0x411c94
  411c94:	imul   eax,DWORD PTR [eax],0x6e006f
  411c9a:	add    BYTE PTR cs:[eax+0x0],cl
  411c9e:	outs   dx,DWORD PTR ds:[esi]
  411c9f:	add    BYTE PTR [ebx+0x0],dh
  411ca2:	je     0x411ca4
  411ca4:	add    BYTE PTR cs:[edx+0x0],dl
  411ca8:	add    BYTE PTR gs:[ebp+0x0],ch
  411cac:	outs   dx,DWORD PTR ds:[esi]
  411cad:	add    BYTE PTR [eax+eax*1+0x65],dh
  411cb1:	add    BYTE PTR [eax+eax*1+0x65],dl
  411cb5:	add    BYTE PTR [ebx+0x0],dh
  411cb8:	je     0x411cba
  411cba:	push   edx
  411cbb:	add    BYTE PTR [ebp+0x0],dh
  411cbe:	outs   dx,BYTE PTR ds:[esi]
  411cbf:	add    BYTE PTR [esi+0x0],ch
  411cc2:	add    BYTE PTR gs:[edx+0x0],dh
  411cc6:	push   edx
  411cc7:	add    BYTE PTR [ebp+0x0],ah
  411cca:	jae    0x411ccc
  411ccc:	outs   dx,DWORD PTR ds:[esi]
  411ccd:	add    BYTE PTR [ebp+0x0],dh
  411cd0:	jb     0x411cd2
  411cd2:	arpl   WORD PTR [eax],ax
  411cd4:	add    BYTE PTR gs:[ebx+0x0],dh
  411cd8:	add    BYTE PTR [ebp+0x41],dl
  411cdb:	add    BYTE PTR [ebx+0x0],ah
  411cde:	jno    0x411ce0
  411ce0:	jne    0x411ce2
  411ce2:	imul   eax,DWORD PTR [eax],0x690072
  411ce8:	outs   dx,BYTE PTR ds:[esi]
  411ce9:	add    BYTE PTR [edi+0x0],ah
  411cec:	inc    esp
  411ced:	add    BYTE PTR [ebp+0x0],ah
  411cf0:	jbe    0x411cf2
  411cf2:	dec    esp
  411cf3:	add    BYTE PTR [ecx+0x0],ch
  411cf6:	arpl   WORD PTR [eax],ax
  411cf8:	add    BYTE PTR gs:[esi+0x0],ch
  411cfc:	jae    0x411cfe
  411cfe:	add    BYTE PTR gs:[esi+0x0],al
  411d02:	popa   
  411d03:	add    BYTE PTR [ecx+0x0],ch
  411d06:	ins    BYTE PTR es:[edi],dx
  411d07:	add    BYTE PTR [ebp+0x0],ah
  411d0a:	add    BYTE PTR fs:[edi+0x0],cl
  411d0e:	jo     0x411d10
  411d10:	add    BYTE PTR gs:[edx+0x0],dh
  411d14:	popa   
  411d15:	add    BYTE PTR [eax+eax*1+0x69],dh
  411d19:	add    BYTE PTR [edi+0x0],ch
  411d1c:	outs   dx,BYTE PTR ds:[esi]
  411d1d:	add    BYTE PTR [ebx+0x0],al
  411d20:	popa   
  411d21:	add    BYTE PTR [esi+0x0],ch
  411d24:	arpl   WORD PTR [eax],ax
  411d26:	add    BYTE PTR gs:[eax+eax*1+0x65],ch
  411d2b:	add    BYTE PTR [eax+eax*1+0x0],ah
  411d2f:	push   edi
  411d30:	inc    ecx
  411d31:	add    BYTE PTR [ebx+0x0],ah
  411d34:	jno    0x411d36
  411d36:	jne    0x411d38
  411d38:	imul   eax,DWORD PTR [eax],0x690072
  411d3e:	outs   dx,BYTE PTR ds:[esi]
  411d3f:	add    BYTE PTR [edi+0x0],ah
  411d42:	inc    esp
  411d43:	add    BYTE PTR [ebp+0x0],ah
  411d46:	jbe    0x411d48
  411d48:	dec    esp
  411d49:	add    BYTE PTR [ecx+0x0],ch
  411d4c:	arpl   WORD PTR [eax],ax
  411d4e:	add    BYTE PTR gs:[esi+0x0],ch
  411d52:	jae    0x411d54
  411d54:	add    BYTE PTR gs:[esi+0x0],al
  411d58:	popa   
  411d59:	add    BYTE PTR [ecx+0x0],ch
  411d5c:	ins    BYTE PTR es:[edi],dx
  411d5d:	add    BYTE PTR [ebp+0x0],ah
  411d60:	add    BYTE PTR fs:[ebx+0x0],dl
  411d64:	add    BYTE PTR gs:[edx+0x0],dh
  411d68:	jbe    0x411d6a
  411d6a:	add    BYTE PTR gs:[edx+0x0],dh
  411d6e:	dec    esi
  411d6f:	add    BYTE PTR [edi+0x0],ch
  411d72:	je     0x411d74
  411d74:	push   edx
  411d75:	add    BYTE PTR [ebp+0x0],ah
  411d78:	popa   
  411d79:	add    BYTE PTR [ebx+0x0],ah
  411d7c:	push   0x62006100
  411d81:	add    BYTE PTR [eax+eax*1+0x65],ch
  411d85:	add    BYTE PTR [eax],al
  411d87:	push   ebx
  411d88:	inc    ecx
  411d89:	add    BYTE PTR [ebx+0x0],ah
  411d8c:	jno    0x411d8e
  411d8e:	jne    0x411d90
  411d90:	imul   eax,DWORD PTR [eax],0x690072
  411d96:	outs   dx,BYTE PTR ds:[esi]
  411d97:	add    BYTE PTR [edi+0x0],ah
  411d9a:	inc    esp
  411d9b:	add    BYTE PTR [ebp+0x0],ah
  411d9e:	jbe    0x411da0
  411da0:	dec    esp
  411da1:	add    BYTE PTR [ecx+0x0],ch
  411da4:	arpl   WORD PTR [eax],ax
  411da6:	add    BYTE PTR gs:[esi+0x0],ch
  411daa:	jae    0x411dac
  411dac:	add    BYTE PTR gs:[esi+0x0],al
  411db0:	popa   
  411db1:	add    BYTE PTR [ecx+0x0],ch
  411db4:	ins    BYTE PTR es:[edi],dx
  411db5:	add    BYTE PTR [ebp+0x0],ah
  411db8:	add    BYTE PTR fs:[edi+0x0],dl
  411dbc:	imul   eax,DWORD PTR [eax],0x680074
  411dc2:	push   ebp
  411dc3:	add    BYTE PTR [esi+0x0],ch
  411dc6:	imul   eax,DWORD PTR [eax],0x6e
  411dc9:	add    BYTE PTR [edi+0x0],ch
  411dcc:	ja     0x411dce
  411dce:	outs   dx,BYTE PTR ds:[esi]
  411dcf:	add    BYTE PTR [ebp+0x0],al
  411dd2:	jb     0x411dd4
  411dd4:	jb     0x411dd6
  411dd6:	outs   dx,DWORD PTR ds:[esi]
  411dd7:	add    BYTE PTR [edx+0x0],dh
  411dda:	add    BYTE PTR [ebx],dh
  411ddc:	inc    ebx
  411ddd:	add    BYTE PTR [ecx+0x0],ah
  411de0:	outs   dx,BYTE PTR ds:[esi]
  411de1:	add    BYTE PTR [ebx+0x0],ah
  411de4:	add    BYTE PTR gs:[eax+eax*1+0x4f],ch
  411de9:	add    BYTE PTR [eax+0x0],dh
  411dec:	add    BYTE PTR gs:[edx+0x0],dh
  411df0:	popa   
  411df1:	add    BYTE PTR [eax+eax*1+0x69],dh
  411df5:	add    BYTE PTR [edi+0x0],ch
  411df8:	outs   dx,BYTE PTR ds:[esi]
  411df9:	add    BYTE PTR [esi+0x0],cl
  411dfc:	outs   dx,DWORD PTR ds:[esi]
  411dfd:	add    BYTE PTR [eax+eax*1+0x41],dh
  411e01:	add    BYTE PTR [eax+eax*1+0x6c],ch
  411e05:	add    BYTE PTR [edi+0x0],ch
  411e08:	ja     0x411e0a
  411e0a:	add    BYTE PTR gs:[eax+eax*1+0x0],ah
  411e0f:	das    
  411e10:	inc    ebx
  411e11:	add    BYTE PTR [edi+0x0],ch
  411e14:	jne    0x411e16
  411e16:	ins    BYTE PTR es:[edi],dx
  411e17:	add    BYTE PTR [eax+eax*1+0x4e],ah
  411e1b:	add    BYTE PTR [edi+0x0],ch
  411e1e:	je     0x411e20
  411e20:	dec    esp
  411e21:	add    BYTE PTR [edi+0x0],ch
  411e24:	popa   
  411e25:	add    BYTE PTR [eax+eax*1+0x57],ah
  411e29:	add    BYTE PTR [ebx+0x0],dh
  411e2c:	inc    ebx
  411e2d:	add    BYTE PTR [eax+eax*1+0x69],ch
  411e31:	add    BYTE PTR [ebp+0x0],ah
  411e34:	outs   dx,BYTE PTR ds:[esi]
  411e35:	add    BYTE PTR [eax+eax*1+0x44],dh
  411e39:	add    BYTE PTR [eax+eax*1+0x6c],ch
  411e3d:	add    BYTE PTR [eax],al
  411e3f:	and    eax,0x650044
  411e44:	jo     0x411e46
  411e46:	ins    BYTE PTR es:[edi],dx
  411e47:	add    BYTE PTR [edi+0x0],ch
  411e4a:	jns    0x411e4c
  411e4c:	inc    ecx
  411e4d:	add    BYTE PTR [eax+0x0],dh
  411e50:	jo     0x411e52
  411e52:	js     0x411e54
  411e54:	dec    eax
  411e55:	add    BYTE PTR [edi+0x0],ch
  411e58:	jae    0x411e5a
  411e5a:	je     0x411e5c
  411e5c:	dec    esi
  411e5d:	add    BYTE PTR [ebp+0x0],dh
  411e60:	ins    BYTE PTR es:[edi],dx
  411e61:	add    BYTE PTR [eax+eax*1+0x0],ch
  411e65:	cmp    eax,0x780045
  411e6a:	add    BYTE PTR gs:[eax+eax*1+0x6f],dl
  411e6f:	add    BYTE PTR [ecx+0x0],al
  411e72:	arpl   WORD PTR [eax],ax
  411e74:	jno    0x411e76
  411e76:	jne    0x411e78
  411e78:	imul   eax,DWORD PTR [eax],0x650072
  411e7e:	inc    esp
  411e7f:	add    BYTE PTR [ebp+0x0],ah
  411e82:	jbe    0x411e84
  411e84:	dec    esp
  411e85:	add    BYTE PTR [ecx+0x0],ch
  411e88:	arpl   WORD PTR [eax],ax
  411e8a:	add    BYTE PTR gs:[esi+0x0],ch
  411e8e:	jae    0x411e90
  411e90:	add    BYTE PTR gs:[esi+0x0],cl
  411e94:	outs   dx,DWORD PTR ds:[esi]
  411e95:	add    BYTE PTR [eax+eax*1+0x46],dh
  411e99:	add    BYTE PTR [edi+0x0],ch
  411e9c:	jne    0x411e9e
  411e9e:	outs   dx,BYTE PTR ds:[esi]
  411e9f:	add    BYTE PTR [eax+eax*1+0x0],ah
  411ea3:	xor    DWORD PTR [ebp+0x0],eax
  411ea6:	js     0x411ea8
  411ea8:	add    BYTE PTR gs:[eax+eax*1+0x6f],dl
  411ead:	add    BYTE PTR [ecx+0x0],cl
  411eb0:	outs   dx,BYTE PTR ds:[esi]
  411eb1:	add    BYTE PTR [ebx+0x0],dh
  411eb4:	je     0x411eb6
  411eb6:	popa   
  411eb7:	add    BYTE PTR [eax+eax*1+0x6c],ch
  411ebb:	add    BYTE PTR [ebx+0x0],al
  411ebe:	add    BYTE PTR gs:[edx+0x0],dh
  411ec2:	je     0x411ec4
  411ec4:	dec    esi
  411ec5:	add    BYTE PTR [edi+0x0],ch
  411ec8:	je     0x411eca
  411eca:	inc    esi
  411ecb:	add    BYTE PTR [edi+0x0],ch
  411ece:	jne    0x411ed0
  411ed0:	outs   dx,BYTE PTR ds:[esi]
  411ed1:	add    BYTE PTR [eax+eax*1+0x0],ah
  411ed5:	dec    edi
  411ed6:	dec    ecx
  411ed7:	add    BYTE PTR [esi+0x0],ch
  411eda:	je     0x411edc
  411edc:	add    BYTE PTR gs:[edx+0x0],dh
  411ee0:	outs   dx,BYTE PTR ds:[esi]
  411ee1:	add    BYTE PTR [ecx+0x0],ah
  411ee4:	ins    BYTE PTR es:[edi],dx
  411ee5:	add    BYTE PTR [ebp+0x0],al
  411ee8:	jb     0x411eea
  411eea:	jb     0x411eec
  411eec:	outs   dx,DWORD PTR ds:[esi]
  411eed:	add    BYTE PTR [edx+0x0],dh
  411ef0:	push   edi
  411ef1:	add    BYTE PTR [eax+0x0],ch
  411ef4:	imul   eax,DWORD PTR [eax],0x65006c
  411efa:	dec    ecx
  411efb:	add    BYTE PTR [esi+0x0],ch
  411efe:	jbe    0x411f00
  411f00:	outs   dx,DWORD PTR ds:[esi]
  411f01:	add    BYTE PTR [ebx+0x0],ch
  411f04:	imul   eax,DWORD PTR [eax],0x67006e
  411f0a:	inc    ebx
  411f0b:	add    BYTE PTR [ebp+0x0],ah
  411f0e:	jb     0x411f10
  411f10:	je     0x411f12
  411f12:	dec    ecx
  411f13:	add    BYTE PTR [esi+0x0],ch
  411f16:	jae    0x411f18
  411f18:	je     0x411f1a
  411f1a:	popa   
  411f1b:	add    BYTE PTR [eax+eax*1+0x6c],ch
  411f1f:	add    BYTE PTR [ebp+0x0],ah
  411f22:	jb     0x411f24
  411f24:	add    BYTE PTR ds:0x610050,dh
  411f2a:	arpl   WORD PTR [eax],ax
  411f2c:	imul   eax,DWORD PTR [eax],0x61
  411f2f:	add    BYTE PTR [edi+0x0],ah
  411f32:	add    BYTE PTR gs:[ebp+0x0],cl
  411f36:	popa   
  411f37:	add    BYTE PTR [esi+0x0],ch
  411f3a:	add    BYTE PTR [di+0x0],ah
  411f3e:	jb     0x411f40
  411f40:	push   esp
  411f41:	add    BYTE PTR [ecx+0x0],bh
  411f44:	jo     0x411f46
  411f46:	add    BYTE PTR gs:[ebx+0x0],dh
  411f4a:	dec    esi
  411f4b:	add    BYTE PTR [edi+0x0],ch
  411f4e:	je     0x411f50
  411f50:	inc    esi
  411f51:	add    BYTE PTR [edi+0x0],ch
  411f54:	jne    0x411f56
  411f56:	outs   dx,BYTE PTR ds:[esi]
  411f57:	add    BYTE PTR [eax+eax*1+0x0],ah
  411f5b:	xor    DWORD PTR [eax+eax*1+0x65],edx
  411f5f:	add    BYTE PTR [ebx+0x0],dh
  411f62:	je     0x411f64
  411f64:	inc    ebx
  411f65:	add    BYTE PTR [ebp+0x0],ah
  411f68:	jb     0x411f6a
  411f6a:	je     0x411f6c
  411f6c:	inc    ecx
  411f6d:	add    BYTE PTR [eax+eax*1+0x72],ch
  411f71:	add    BYTE PTR [ebp+0x0],ah
  411f74:	popa   
  411f75:	add    BYTE PTR [eax+eax*1+0x79],ah
  411f79:	add    BYTE PTR [ecx+0x0],cl
  411f7c:	outs   dx,BYTE PTR ds:[esi]
  411f7d:	add    BYTE PTR [ebx+0x0],dh
  411f80:	je     0x411f82
  411f82:	popa   
  411f83:	add    BYTE PTR [eax+eax*1+0x6c],ch
  411f87:	add    BYTE PTR [ebp+0x0],ah
  411f8a:	add    BYTE PTR fs:[eax],al
  411f8d:	xor    DWORD PTR [eax+eax*1+0x65],edx
  411f91:	add    BYTE PTR [ebx+0x0],dh
  411f94:	je     0x411f96
  411f96:	inc    ebx
  411f97:	add    BYTE PTR [ebp+0x0],ah
  411f9a:	jb     0x411f9c
  411f9c:	je     0x411f9e
  411f9e:	inc    esi
  411f9f:	add    BYTE PTR [ecx+0x0],ch
  411fa2:	ins    BYTE PTR es:[edi],dx
  411fa3:	add    BYTE PTR [ebp+0x0],ah
  411fa6:	inc    esp
  411fa7:	add    BYTE PTR [edi+0x0],ch
  411faa:	add    BYTE PTR gs:[ebx+0x0],dh
  411fae:	dec    esi
  411faf:	add    BYTE PTR [edi+0x0],ch
  411fb2:	je     0x411fb4
  411fb4:	inc    ebp
  411fb5:	add    BYTE PTR [eax+0x0],bh
  411fb8:	imul   eax,DWORD PTR [eax],0x740073
  411fbe:	add    BYTE PTR [ecx],ch
  411fc0:	push   esp
  411fc1:	add    BYTE PTR [ecx+0x0],ch
  411fc4:	ins    DWORD PTR es:[edi],dx
  411fc5:	add    BYTE PTR [ebp+0x0],ah
  411fc8:	add    BYTE PTR fs:[edi+0x0],ch
  411fcc:	jne    0x411fce
  411fce:	je     0x411fd0
  411fd0:	dec    ecx
  411fd1:	add    BYTE PTR [esi+0x0],ch
  411fd4:	inc    ecx
  411fd5:	add    BYTE PTR [eax+eax*1+0x64],ah
  411fd9:	add    BYTE PTR [eax+0x0],dl
  411fdc:	popa   
  411fdd:	add    BYTE PTR [ebx+0x0],ah
  411fe0:	imul   eax,DWORD PTR [eax],0x61
  411fe3:	add    BYTE PTR [edi+0x0],ah
  411fe6:	add    BYTE PTR gs:[eax],al
  411fe9:	push   ebp
  411fea:	push   ebp
  411feb:	add    BYTE PTR [esi+0x0],ch
  411fee:	jae    0x411ff0
  411ff0:	jo     0x411ff2
  411ff2:	add    BYTE PTR gs:[ebx+0x0],ah
  411ff6:	imul   eax,DWORD PTR [eax],0x690066
  411ffc:	add    BYTE PTR gs:[eax+eax*1+0x45],ah
  412001:	add    BYTE PTR [edx+0x0],dh
  412004:	jb     0x412006
  412006:	outs   dx,DWORD PTR ds:[esi]
  412007:	add    BYTE PTR [edx+0x0],dh
  41200a:	push   edi
  41200b:	add    BYTE PTR [eax+0x0],ch
  41200e:	imul   eax,DWORD PTR [eax],0x65006c
  412014:	dec    ecx
  412015:	add    BYTE PTR [esi+0x0],ch
  412018:	jbe    0x41201a
  41201a:	outs   dx,DWORD PTR ds:[esi]
  41201b:	add    BYTE PTR [ebx+0x0],ch
  41201e:	imul   eax,DWORD PTR [eax],0x67006e
  412024:	inc    ebx
  412025:	add    BYTE PTR [ebp+0x0],ah
  412028:	jb     0x41202a
  41202a:	je     0x41202c
  41202c:	dec    ecx
  41202d:	add    BYTE PTR [esi+0x0],ch
  412030:	jae    0x412032
  412032:	je     0x412034
  412034:	popa   
  412035:	add    BYTE PTR [eax+eax*1+0x6c],ch
  412039:	add    BYTE PTR [ebp+0x0],ah
  41203c:	jb     0x41203e
  41203e:	add    BYTE PTR [eax],al
  412040:	ror    BYTE PTR [ecx-0x5f],0xad
  412044:	ror    ch,1
  412046:	adc    eax,0x51c8ad4a
  41204b:	hlt    
  41204c:	xor    esp,DWORD PTR [edi]
  41204e:	push   0xffffff9b
  412050:	add    BYTE PTR [eax],cl
  412052:	mov    bh,0x7a
  412054:	pop    esp
  412055:	push   esi
  412056:	sbb    DWORD PTR [eax+eiz*8],esi
  412059:	mov    DWORD PTR [eax],ecx
  41205b:	mov    al,0x3f
  41205d:	pop    edi
  41205e:	jg     0x412071
  412060:	aad    0xa
  412062:	cmp    al,BYTE PTR [edx]
  412064:	push   es
  412065:	or     DWORD PTR [eax+eax*1],eax
  412068:	add    BYTE PTR [edi],al
  41206a:	add    BYTE PTR [edi+edi*8],al
  41206d:	inc    DWORD PTR [eax]
  41206f:	add    BYTE PTR [eax+eax*1],al
  412072:	add    BYTE PTR [edi],al
  412074:	add    BYTE PTR [eax+edx*4],0x4
  412078:	add    BYTE PTR [eax],al
  41207a:	add    al,0xdc
  41207c:	add    al,0x0
  41207e:	add    BYTE PTR [edi+ecx*8],al
  412081:	add    al,0x0
  412083:	add    BYTE PTR [eax*1+0x4000000],al
  41208a:	inc    ebx
  41208b:	add    BYTE PTR [eax],al
  41208d:	add    BYTE PTR [edi+eax*8],al
  412090:	add    al,0x0
  412092:	add    BYTE PTR [edx+eax*1],al
  412095:	add    BYTE PTR [eax],al
  412097:	add    BYTE PTR [eax+eax*1],al
  41209a:	add    BYTE PTR [eax],al
  41209c:	add    BYTE PTR [eax*1+0x4800040],al
  4120a3:	push   edi
  4120a4:	add    BYTE PTR [edi],al
  4120a6:	add    BYTE PTR [esi+ecx*1],0x0
  4120aa:	pop    es
  4120ab:	add    BYTE PTR [edx+eax*2],0x88
  4120af:	add    al,0x80
  4120b1:	add    al,0x9c
  4120b3:	mov    BYTE PTR [eax+eax*4],al
  4120b6:	add    al,0x17
  4120b8:	add    ecx,DWORD PTR [ecx]
  4120ba:	add    BYTE PTR [esi+edi*8],0xff
  4120be:	pop    es
  4120bf:	add    BYTE PTR [eax+edx*4],0x4
  4120c3:	pop    es
  4120c4:	add    BYTE PTR [esp+ebx*8],0x4
  4120c8:	pop    es
  4120c9:	add    BYTE PTR [edi+ecx*8],0x4
  4120cd:	pop    es
  4120ce:	add    BYTE PTR [eax*1+0x4800700],0x43
  4120d6:	add    BYTE PTR [edi],al
  4120d8:	add    BYTE PTR [edi+eax*8],0x4
  4120dc:	pop    es
  4120dd:	add    BYTE PTR [edx+eax*1],0x0
  4120e1:	pop    es
  4120e2:	add    BYTE PTR [esi],0x0
  4120e5:	add    DWORD PTR [ecx],ecx
  4120e7:	adc    BYTE PTR [ecx],dl
  4120e9:	and    eax,0x9000003
  4120ee:	push   es
  4120ef:	add    BYTE PTR [ecx],al
  4120f1:	adc    DWORD PTR ds:0x20032911,esp
  4120f7:	add    BYTE PTR [ecx],al
  4120f9:	add    eax,DWORD PTR [eax]
  4120fb:	add    BYTE PTR [eax],bl
  4120fd:	push   es
  4120fe:	add    BYTE PTR [ecx],al
  412100:	or     DWORD PTR [eax],edx
  412102:	adc    DWORD PTR [ecx],ebp
  412104:	pop    es
  412105:	add    BYTE PTR [edx],al
  412107:	or     DWORD PTR [eax],ebx
  412109:	adc    BYTE PTR [ecx],dl
  41210b:	sub    DWORD PTR [eax+eax*1],eax
  41210e:	add    DWORD PTR [ecx],ecx
  412110:	sbb    BYTE PTR [edx],al
  412112:	push   es
  412113:	push   cs
  412114:	xor    al,0x55
  412116:	add    BYTE PTR [ecx+0x0],cl
  412119:	push   esp
  41211a:	add    BYTE PTR [ebp+0x0],ah
  41211d:	jae    0x41211f
  41211f:	je     0x412121
  412121:	push   eax
  412122:	add    BYTE PTR [edi+0x0],ch
  412125:	imul   eax,DWORD PTR [eax],0x74006e
  41212b:	add    BYTE PTR gs:[edx+0x0],dh
  41212f:	dec    ecx
  412130:	add    BYTE PTR [esi+0x0],ch
  412133:	jo     0x412135
  412135:	jne    0x412137
  412137:	je     0x412139
  412139:	push   edx
  41213a:	add    BYTE PTR [ebp+0x0],ah
  41213d:	arpl   WORD PTR [eax],ax
  41213f:	add    BYTE PTR gs:[ecx+0x0],ch
  412143:	jbe    0x412145
  412145:	add    BYTE PTR gs:[edx+0x0],dh
  412149:	add    al,0x20
  41214b:	add    DWORD PTR [ecx],eax
  41214d:	push   cs
  41214e:	add    esp,DWORD PTR [eax]
  412150:	add    BYTE PTR [esi],cl
  412152:	push   es
  412153:	and    BYTE PTR [edx],al
  412155:	adc    ch,BYTE PTR ds:0x20060e0e
  41215b:	add    al,BYTE PTR [ecx]
  41215d:	sbb    al,0x12
  41215f:	xor    DWORD PTR [ebx],eax
  412161:	push   es
  412162:	adc    ch,BYTE PTR ds:0xe002803
  412168:	add    al,BYTE PTR [esi]
  41216a:	or     BYTE PTR [ecx+eax*1],al
  41216d:	add    BYTE PTR [eax],al
  41216f:	add    BYTE PTR [edi],al
  412171:	and    BYTE PTR [edx],al
  412173:	add    DWORD PTR [edx],edx
  412175:	xor    eax,0x20073912
  41217a:	add    al,BYTE PTR [ecx]
  41217c:	adc    bh,BYTE PTR ds:0x20094112
  412182:	add    eax,DWORD PTR [ecx]
  412184:	adc    bh,BYTE PTR ds:0x45114112
  41218a:	add    eax,0x12010120
  41218f:	dec    ecx
  412190:	add    esp,DWORD PTR [eax]
  412192:	add    BYTE PTR [edx],al
  412194:	add    eax,0x12010120
  412199:	dec    ebp
  41219a:	add    eax,DWORD PTR [esi]
  41219c:	adc    dl,BYTE PTR [ecx+0x3]
  41219f:	push   es
  4121a0:	adc    dl,BYTE PTR [ebp+0x3]
  4121a3:	push   es
  4121a4:	adc    bl,BYTE PTR [ecx+0x3]
  4121a7:	push   es
  4121a8:	adc    bh,BYTE PTR [ecx]
  4121aa:	add    al,0x6
  4121ac:	pop    ds
  4121ad:	pop    ebp
  4121ae:	add    al,BYTE PTR [edx]
  4121b0:	push   es
  4121b1:	add    al,BYTE PTR [ebx]
  4121b3:	push   es
  4121b4:	adc    ah,BYTE PTR [ecx+0x3]
  4121b7:	sub    BYTE PTR [eax],al
  4121b9:	add    al,BYTE PTR [eax+eax*1]
  4121bc:	add    BYTE PTR [edx],dl
  4121be:	add    esp,DWORD PTR gs:[eax]
  4121c1:	add    BYTE PTR [edx],cl
  4121c3:	add    al,0x20
  4121c5:	add    DWORD PTR [ecx],eax
  4121c7:	or     al,BYTE PTR [edx]
  4121c9:	push   es
  4121ca:	or     al,BYTE PTR [ebx]
  4121cc:	sub    BYTE PTR [eax],al
  4121ce:	or     al,BYTE PTR ds:0x1c010220
  4121d4:	sbb    BYTE PTR [esi],al
  4121d6:	and    BYTE PTR [edx],al
  4121d8:	or     BYTE PTR [esi],cl
  4121da:	adc    BYTE PTR [esi],cl
  4121dc:	or     ah,BYTE PTR [eax]
  4121de:	add    al,0x12
  4121e0:	imul   ecx,DWORD PTR [esi],0x6d120e10
  4121e6:	sbb    al,0x7
  4121e8:	and    BYTE PTR [edx],al
  4121ea:	or     BYTE PTR [eax],dl
  4121ec:	push   cs
  4121ed:	adc    ch,BYTE PTR [ecx+0x7]
  4121f0:	and    BYTE PTR [edx],al
  4121f2:	adc    ch,BYTE PTR [ecx+0x12]
  4121f5:	ins    DWORD PTR es:[edi],dx
  4121f6:	sbb    al,0x5
  4121f8:	and    BYTE PTR [ecx],al
  4121fa:	add    DWORD PTR [edx],edx
  4121fc:	imul   eax,DWORD PTR ds:0x10080120,0x320090e
  412206:	adc    ch,BYTE PTR [ecx+0x10]
  412209:	push   cs
  41220a:	adc    ch,BYTE PTR [ebp+0x1c]
  41220d:	or     ah,BYTE PTR [eax]
  41220f:	add    al,0x1
  412211:	push   cs
  412212:	adc    ah,BYTE PTR [eax]
  412214:	adc    ch,BYTE PTR [ebp+0x12]
  412217:	and    al,0x4
  412219:	and    BYTE PTR [eax],al
  41221b:	adc    ah,BYTE PTR [eax]
  41221d:	add    eax,0x12010120
  412222:	and    BYTE PTR [eax+eiz*1],al
  412225:	add    BYTE PTR [edx],dl
  412227:	ins    DWORD PTR es:[edi],dx
  412228:	add    eax,0x12010120
  41222d:	ins    DWORD PTR es:[edi],dx
  41222e:	add    al,0x20
  412230:	add    BYTE PTR [edx],dl
  412232:	and    al,0x5
  412234:	and    BYTE PTR [ecx],al
  412236:	add    DWORD PTR [edx],edx
  412238:	and    al,0x3
  41223a:	push   es
  41223b:	adc    ah,BYTE PTR [eax]
  41223d:	add    eax,DWORD PTR [esi]
  41223f:	adc    ch,BYTE PTR [ebp+0x3]
  412242:	push   es
  412243:	adc    ah,BYTE PTR [esp+eax*1]
  412246:	sub    BYTE PTR [eax],al
  412248:	adc    ah,BYTE PTR [eax]
  41224a:	add    al,0x28
  41224c:	add    BYTE PTR [edx],dl
  41224e:	ins    DWORD PTR es:[edi],dx
  41224f:	add    al,0x28
  412251:	add    BYTE PTR [edx],dl
  412253:	and    al,0x9
  412255:	and    BYTE PTR [ebx],al
  412257:	add    DWORD PTR [edx],edx
  412259:	sub    BYTE PTR [edx],dl
  41225b:	ins    DWORD PTR es:[edi],dx
  41225c:	adc    ch,BYTE PTR [esp+eax*1]
  41225f:	and    BYTE PTR [eax],al
  412261:	adc    ch,BYTE PTR [eax]
  412263:	add    eax,0x12010120
  412268:	sub    BYTE PTR [eax+eiz*1],al
  41226b:	add    BYTE PTR [edx],dl
  41226d:	sub    al,0x5
  41226f:	and    BYTE PTR [ecx],al
  412271:	add    DWORD PTR [edx],edx
  412273:	sub    al,0x3
  412275:	push   es
  412276:	adc    ch,BYTE PTR [eax]
  412278:	add    eax,DWORD PTR [esi]
  41227a:	adc    ch,BYTE PTR [esp+eax*1]
  41227d:	sub    BYTE PTR [eax],al
  41227f:	adc    ch,BYTE PTR [eax]
  412281:	add    al,0x28
  412283:	add    BYTE PTR [edx],dl
  412285:	sub    al,0x4
  412287:	add    BYTE PTR [eax],al
  412289:	adc    bh,BYTE PTR [eax]
  41228b:	or     ah,BYTE PTR [eax]
  41228d:	add    al,0xa
  41228f:	push   cs
  412290:	adc    ah,BYTE PTR [eax]
  412292:	adc    ch,BYTE PTR [ebp+0x12]
  412295:	and    al,0x9
  412297:	and    BYTE PTR [ebx],al
  412299:	or     dl,BYTE PTR [edx]
  41229b:	sub    BYTE PTR [edx],dl
  41229d:	ins    DWORD PTR es:[edi],dx
  41229e:	adc    ch,BYTE PTR [eax*1+0x1c120120]
  4122a5:	or     al,BYTE PTR ds:0x12010120
  4122ab:	sbb    al,0x3
  4122ad:	push   es
  4122ae:	adc    bh,BYTE PTR [eax]
  4122b0:	or     BYTE PTR [esi],al
  4122b2:	adc    eax,0xa027112
  4122b7:	adc    bl,BYTE PTR [edx+eax*1]
  4122ba:	push   es
  4122bb:	sbb    al,0x4
  4122bd:	or     BYTE PTR [eax],al
  4122bf:	adc    bh,BYTE PTR [eax]
  4122c1:	push   es
  4122c2:	and    BYTE PTR [edx],al
  4122c4:	add    DWORD PTR [eax],ecx
  4122c6:	adc    DWORD PTR [ebp+0x4],esi
  4122c9:	and    BYTE PTR [ecx],al
  4122cb:	add    DWORD PTR [edx],eax
  4122cd:	add    eax,DWORD PTR [esi]
  4122cf:	adc    bh,BYTE PTR [ecx+0x3]
  4122d2:	push   es
  4122d3:	adc    bh,BYTE PTR [ebp+0x3]
  4122d6:	push   es
  4122d7:	adc    DWORD PTR [ebp+0x3],esi
  4122da:	push   es
  4122db:	adc    al,BYTE PTR [eax+0x2]
  4122de:	push   es
  4122df:	or     eax,0x8
  4122e4:	add    BYTE PTR [eax],al
  4122e6:	add    BYTE PTR [esi],bh
  4122e8:	inc    eax
  4122e9:	push   eax
  4122ea:	dec    ebp
  4122eb:	add    BYTE PTR [ecx+0x0],ch
  4122ee:	arpl   WORD PTR [eax],ax
  4122f0:	jb     0x4122f2
  4122f2:	outs   dx,DWORD PTR ds:[esi]
  4122f3:	add    BYTE PTR [ebx+0x0],dh
  4122f6:	outs   dx,DWORD PTR ds:[esi]
  4122f7:	add    BYTE PTR [esi+0x0],ah
  4122fa:	je     0x4122fc
  4122fc:	add    BYTE PTR cs:[eax+eax*1+0x65],dl
  412301:	add    BYTE PTR [ebx+0x0],dh
  412304:	je     0x412306
  412306:	push   esp
  412307:	add    BYTE PTR [edi+0x0],ch
  41230a:	outs   dx,DWORD PTR ds:[esi]
  41230b:	add    BYTE PTR [eax+eax*1+0x73],ch
  41230f:	add    BYTE PTR [ecx+0x0],al
  412312:	add    BYTE PTR fs:[ecx+0x0],ah
  412316:	jo     0x412318
  412318:	je     0x41231a
  41231a:	add    BYTE PTR gs:[edx+0x0],dh
  41231e:	add    BYTE PTR cs:[ebx+0x0],al
  412322:	outs   dx,DWORD PTR ds:[esi]
  412323:	add    BYTE PTR [esi+0x0],ch
  412326:	data16 add BYTE PTR [ecx+0x0],ch
  41232a:	add    BYTE PTR [di+0x0],dh
  41232e:	jb     0x412330
  412330:	popa   
  412331:	add    BYTE PTR [eax+eax*1+0x69],dh
  412335:	add    BYTE PTR [edi+0x0],ch
  412338:	outs   dx,BYTE PTR ds:[esi]
  412339:	add    BYTE PTR [edi],al
  41233b:	and    BYTE PTR [edx],al
  41233d:	add    DWORD PTR [edx],edx
  41233f:	add    BYTE PTR [ecx+0x1200502],0x1
  412346:	sbb    eax,0x2200705
  41234b:	add    DWORD PTR ds:0x9051d05,ebx
  412351:	and    BYTE PTR [ebx],al
  412353:	add    DWORD PTR ds:0x1d051d05,ebx
  412359:	add    eax,0xa022005
  41235e:	push   cs
  41235f:	add    al,BYTE PTR [esi]
  412361:	and    BYTE PTR [edx],al
  412363:	add    DWORD PTR [edx],ecx
  412365:	sbb    eax,0x1200405
  41236a:	add    cl,BYTE PTR [esi]
  41236c:	add    al,0x20
  41236e:	add    DWORD PTR [edx],ecx
  412370:	push   cs
  412371:	pop    es
  412372:	and    BYTE PTR [edx],al
  412374:	add    DWORD PTR [edx+edx*1],ebx
  412377:	add    BYTE PTR [ebp+0x1012006],0x12
  41237e:	or     BYTE PTR [ecx+0x2012004],0x8
  412385:	add    al,0x20
  412387:	add    BYTE PTR [edx],dl
  412389:	inc    esp
  41238a:	add    eax,0x12010120
  41238f:	inc    esp
  412390:	add    eax,DWORD PTR [esi]
  412392:	adc    dl,BYTE PTR [esp+eax*1]
  412395:	push   es
  412396:	adc    al,BYTE PTR [eax+0x12060489]
  41239c:	or     BYTE PTR [ebp-0x7fedf9fc],0x91
  4123a3:	add    al,0x6
  4123a5:	adc    al,BYTE PTR [eax+0x12060495]
  4123ab:	sbb    BYTE PTR [ecx-0x7fedf9fc],0x9d
  4123b2:	add    al,0x6
  4123b4:	adc    DWORD PTR [eax+0x2005a1],eax
  4123ba:	adc    al,BYTE PTR [eax+0x1200681]
  4123c0:	add    DWORD PTR [edx],edx
  4123c2:	add    BYTE PTR [ecx+0x44120603],0x4
  4123c9:	push   es
  4123ca:	adc    al,BYTE PTR [eax+0x280481]
  4123d0:	adc    al,BYTE PTR [ebp+eax*1+0x28]
  4123d4:	add    BYTE PTR [edx],dl
  4123d6:	add    BYTE PTR [ecx+0x1022007],0xe
  4123dd:	adc    al,BYTE PTR [eax+0x1200689]
  4123e3:	add    DWORD PTR [edx],edx
  4123e5:	and    BYTE PTR [ebp+0x2020009],0x12
  4123ec:	sub    BYTE PTR [ecx+0x6ad8012],0x20
  4123f3:	add    DWORD PTR [edx],edx
  4123f5:	xor    BYTE PTR [ecx+0x120060a],0xa
  4123fc:	adc    al,BYTE PTR [eax+0x150609b1]
  412402:	adc    dh,BYTE PTR [ecx+0x2]
  412405:	or     dl,BYTE PTR [edx]
  412407:	xor    BYTE PTR [ecx+0x73cfb04],0x80
  41240e:	add    al,0x0
  412410:	add    DWORD PTR [esi],ecx
  412412:	push   cs
  412413:	or     DWORD PTR [eax],eax
  412415:	add    bl,BYTE PTR [edx+edx*1]
  412418:	xor    BYTE PTR [ebp+0xab58012],0x0
  41241f:	add    cl,BYTE PTR [eax]
  412421:	push   cs
  412422:	adc    eax,0x1b98012
  412427:	push   cs
  412428:	pop    es
  412429:	add    BYTE PTR [edx],al
  41242b:	add    DWORD PTR [ecx+edx*1],ebx
  41242e:	cmp    BYTE PTR [ebp+0x1afa04],0x0
  412435:	push   cs
  412436:	dec    esp
  412437:	add    BYTE PTR [ecx+0x0],ah
  41243a:	jae    0x41243c
  41243c:	je     0x41243e
  41243e:	push   edx
  41243f:	add    BYTE PTR [ebp+0x0],dh
  412442:	outs   dx,BYTE PTR ds:[esi]
  412443:	add    BYTE PTR [esi],dl
  412445:	push   eax
  412446:	add    BYTE PTR [edx+0x0],dh
  412449:	add    BYTE PTR gs:[esi+0x0],dh
  41244d:	imul   eax,DWORD PTR [eax],0x75006f
  412453:	jae    0x412455
  412455:	push   edx
  412456:	add    BYTE PTR [ebp+0x0],dh
  412459:	outs   dx,BYTE PTR ds:[esi]
  41245a:	add    BYTE PTR ds:0x1d010100,al
  412460:	push   cs
  412461:	push   es
  412462:	add    BYTE PTR [ecx],al
  412464:	adc    DWORD PTR [ebp+0x1d],esi
  412467:	push   cs
  412468:	add    eax,0x12010100
  41246d:	cmp    al,0x3
  41246f:	add    BYTE PTR [eax],al
  412471:	add    DWORD PTR [edi],eax
  412473:	add    BYTE PTR [edx],al
  412475:	add    DWORD PTR [edx+edx*1],ebx
  412478:	add    cl,0x4
  41247b:	add    BYTE PTR [ecx],al
  41247d:	add    DWORD PTR [eax],ecx
  41247f:	add    eax,DWORD PTR [eax]
  412481:	add    BYTE PTR [eax],cl
  412483:	add    eax,DWORD PTR [esi]
  412485:	adc    dl,BYTE PTR [eax]
  412487:	pop    es
  412488:	push   es
  412489:	adc    eax,0x1c58012
  41248e:	push   cs
  41248f:	add    ecx,DWORD PTR [eax]
  412491:	add    BYTE PTR [eax],cl
  412493:	add    al,0x6
  412495:	adc    al,BYTE PTR [eax+0x120604c9]
  41249b:	or     ch,0x5
  41249e:	add    BYTE PTR [eax],al
  4124a0:	adc    al,BYTE PTR [eax+0x5c9]
  4124a6:	adc    al,BYTE PTR [eax+0x10006cd]
  4124ac:	add    DWORD PTR [edx],edx
  4124ae:	or     ch,0x3
  4124b1:	add    BYTE PTR [eax],al
  4124b3:	push   cs
  4124b4:	add    eax,0x80120008
  4124b9:	leave  
  4124ba:	add    eax,0x80120008
  4124bf:	int    0x3
  4124c1:	or     BYTE PTR [eax],al
  4124c3:	push   cs
  4124c4:	add    eax,0xe010220
  4124c9:	push   cs
  4124ca:	push   es
  4124cb:	and    BYTE PTR [ecx],al
  4124cd:	add    DWORD PTR [ecx],edx
  4124cf:	and    DWORD PTR ds:0x1012004,0xa08008
  4124d9:	and    al,0x0
  4124db:	add    BYTE PTR [eax+eax*4],al
  4124de:	add    BYTE PTR [eax],al
  4124e0:	xchg   esp,eax
  4124e1:	add    BYTE PTR [eax],al
  4124e3:	add    BYTE PTR [esi],al
  4124e5:	add    al,BYTE PTR [eax]
  4124e7:	add    BYTE PTR [eax],al
  4124e9:	and    al,0x0
  4124eb:	add    BYTE PTR [edx+0x53],dl
  4124ee:	inc    ecx
  4124ef:	xor    DWORD PTR [eax],eax
  4124f1:	add    al,0x0
  4124f3:	add    BYTE PTR [ecx],al
  4124f5:	add    BYTE PTR [ecx],al
  4124f7:	add    BYTE PTR [edi],al
  4124f9:	sar    edx,1
  4124fb:	push   edi
  4124fc:	les    ebp,FWORD PTR [esi+0x2ea3f0d9]
  412502:	test   BYTE PTR [edx+0xdfdae0f],ch
  412508:	jmp    0xecac22f5
  41250d:	pop    DWORD PTR [edi+0x6c7603fb]
  412513:	or     DWORD PTR [ecx+ebx*4-0x6e],0x1e
  412518:	mov    dl,0x3b
  41251a:	out    0x9a,eax
  41251c:	(bad)  
  41251e:	fadd   st(1),st
  412520:	fstp   QWORD PTR [edx+0x211336d2]
  412526:	add    dl,BYTE PTR [eax-0x6c38df5]
  41252c:	adc    BYTE PTR [ebp+0x77e1c47f],0x10
  412533:	pop    esi
  412535:	pop    es
  412536:	ja     0x412587
  412538:	sub    eax,ebp
  41253a:	xor    cl,BYTE PTR [esi]
  41253c:	xchg   edx,eax
  41253d:	jmp    0xc021:0xe8e4ec05
  412544:	movs   DWORD PTR es:[edi],DWORD PTR ds:[esi]
  412545:	out    dx,eax
  412546:	call   0x4c9d8a3c
  41254b:	or     al,0x93
  41254d:	shr    DWORD PTR [ebx+0x625d2899],0x2c
  412554:	stos   BYTE PTR es:[edi],al
  412555:	gs sub al,0x1d
  412558:	cli    
  412559:	(bad)  
  41255a:	cmp    eax,0x2d6f5d74
  41255f:	in     eax,0xf1
  412561:	jle    0x4125c1
  412563:	scas   eax,DWORD PTR es:[edi]
  412564:	pinsrw mm2,WORD PTR [esi-0x75e3d9c3],0x12
  41256c:	inc    ebx
  41256d:	sbb    BYTE PTR gs:[eax],ah
  412570:	ins    DWORD PTR es:[edi],dx
  412571:	rcl    BYTE PTR [ebx-0x2da5b2cc],0x93
  412578:	add    eax,0x29110207
  41257d:	or     DWORD PTR ds:0x25110100,eax
  412583:	or     al,BYTE PTR [ebx]
  412585:	pop    es
  412586:	add    DWORD PTR [edx],ecx
  412588:	add    al,0x0
  41258a:	add    DWORD PTR [edx],eax
  41258c:	push   cs
  41258d:	add    eax,0x81120000
  412592:	cmp    DWORD PTR ds:0x81120020,eax
  412598:	cmp    eax,0x8002003
  41259d:	push   es
  41259e:	add    BYTE PTR [edx],al
  4125a0:	add    DWORD PTR [esi],ecx
  4125a2:	sbb    eax,0x207061c
  4125a7:	sbb    eax,0x61c1d1c
  4125ac:	add    BYTE PTR [ecx],al
  4125ae:	sbb    eax,0x40e2d12
  4125b3:	add    BYTE PTR [ecx],al
  4125b5:	add    DWORD PTR [esi],ecx
  4125b7:	add    eax,0xe0e0200
  4125bc:	push   cs
  4125bd:	push   es
  4125be:	add    BYTE PTR [ebx],al
  4125c0:	push   cs
  4125c1:	push   cs
  4125c2:	push   cs
  4125c3:	push   cs
  4125c4:	add    eax,0x81110000
  4125c9:	dec    ebp
  4125ca:	pop    es
  4125cb:	add    BYTE PTR [ecx],al
  4125cd:	adc    ch,BYTE PTR ds:0x26558112
  4125d3:	pop    es
  4125d4:	adc    DWORD PTR ds:0x2d122d12,ebx
  4125da:	adc    ch,BYTE PTR ds:0xe598112
  4125e0:	push   cs
  4125e1:	adc    al,BYTE PTR [ecx+0x59811255]
  4125e7:	adc    ch,BYTE PTR ds:0x1c1d1c1d
  4125ed:	sbb    eax,0x2d121d1c
  4125f2:	or     BYTE PTR ds:0x1d1c1d1c,bl
  4125f8:	sbb    al,0x4
  4125fa:	add    BYTE PTR [eax],al
  4125fc:	adc    ch,BYTE PTR ds:0x12002005
  412602:	and    DWORD PTR [ecx+0x6],0x12010120
  412609:	and    DWORD PTR [ebp+0xb],0xe0e0507
  412610:	adc    al,BYTE PTR [ecx+0x1d1c1d59]
  412616:	sbb    al,0x7
  412618:	pop    es
  412619:	add    dl,BYTE PTR [edx]
  41261b:	sbb    DWORD PTR [ecx+0x1d],0x100041c
  412622:	add    DWORD PTR [esp+eax*1],ebx
  412625:	push   es
  412626:	adc    al,BYTE PTR [ecx+0xa69]
  41262c:	adc    eax,0x1758112
  412631:	adc    al,BYTE PTR [ecx+0x1000679]
  412637:	add    dl,BYTE PTR [edx]
  412639:	sub    DWORD PTR [ecx+0x3],0x4351206
  412640:	and    BYTE PTR [ecx],al
  412642:	add    DWORD PTR [edi+eax*1],ebx
  412645:	add    BYTE PTR [edx],al
  412647:	add    DWORD PTR [edx],edx
  412649:	or     DWORD PTR [ebp+0x107040e],0x55412
  412653:	add    BYTE PTR [edx],dl
  412655:	adc    DWORD PTR [ebp+0x8030008],0xe9d8112
  41265f:	or     BYTE PTR [esi],al
  412661:	and    BYTE PTR [ebx],al
  412663:	add    DWORD PTR [eax],ecx
  412665:	or     BYTE PTR [eax],cl
  412667:	push   es
  412668:	and    BYTE PTR [ecx],al
  41266a:	add    dl,BYTE PTR [edx]
  41266c:	and    DWORD PTR [ebp-0x7eedeaf8],0x811201a9
  412676:	imul   ecx,DWORD PTR [ebx],0x15010120
  41267c:	adc    al,BYTE PTR [ecx-0x7eedfe53]
  412682:	movs   DWORD PTR es:[edi],DWORD PTR ds:[esi]
  412683:	adc    eax,0x8080907
  412688:	adc    al,BYTE PTR [ecx-0x4e7eed6b]
  41268e:	adc    al,BYTE PTR [ecx+0x1d1c1d8d]
  412694:	sbb    al,0x1d
  412696:	sbb    al,0x1d
  412698:	sbb    al,0x4
  41269a:	and    BYTE PTR [eax],al
  41269c:	adc    cl,BYTE PTR [ebp+0x8]
  41269f:	add    BYTE PTR [edx],al
  4126a1:	adc    al,BYTE PTR [ecx+0x1c1d0ebd]
  4126a7:	or     ah,BYTE PTR [eax]
  4126a9:	add    eax,DWORD PTR [ecx]
  4126ab:	adc    cl,BYTE PTR ds:0x81123512
  4126b1:	lds    eax,FWORD PTR ds:0x81120000
  4126b7:	leave  
  4126b8:	push   cs
  4126b9:	and    BYTE PTR ds:0x20d1201,al
  4126bf:	adc    al,BYTE PTR [ecx-0x367eed33]
  4126c5:	adc    dl,BYTE PTR [ecx+0xc]
  4126c8:	and    BYTE PTR [ecx],al
  4126ca:	adc    eax,0x1d18112
  4126cf:	adc    al,BYTE PTR [ecx+0x153512d5]
  4126d5:	pop    es
  4126d6:	pop    es
  4126d7:	adc    ah,BYTE PTR [ebp+0x12]
  4126da:	add    ecx,0x12c98112
  4126e0:	or     DWORD PTR [ebp+0x12b58112],0x1c1dbd81
  4126ea:	or     DWORD PTR [eax],eax
  4126ec:	add    ecx,DWORD PTR [esi]
  4126ee:	adc    al,BYTE PTR [ecx+0x1c1d0ed9]
  4126f4:	add    al,0x7
  4126f6:	add    DWORD PTR ds:0x207071c,ebx
  4126fc:	adc    al,BYTE PTR [ecx+0x51c1d8d]
  412702:	and    BYTE PTR [eax],al
  412704:	adc    al,BYTE PTR [ecx+0x120604dd]
  41270a:	and    ebp,0x103200a
  412710:	adc    al,BYTE PTR [ecx-0x7eedf11b]
  412716:	icebp  
  412717:	push   es
  412718:	and    BYTE PTR [ecx],al
  41271a:	add    DWORD PTR [edx],edx
  41271c:	sub    ebp,0x2012006
  412722:	adc    al,BYTE PTR [ecx+0x3e5]
  412728:	add    cl,BYTE PTR [edx]
  41272a:	and    BYTE PTR [eax],al
  41272c:	adc    eax,0x1d18112
  412731:	adc    al,BYTE PTR [ecx+0x121508ed]
  412737:	cmp    BYTE PTR [ecx-0x127eedff],0x9
  41273e:	and    BYTE PTR [eax],al
  412740:	adc    eax,0x1f58112
  412745:	adc    eax,DWORD PTR [eax]
  412747:	or     BYTE PTR ds:0x1f58112,dl
  41274d:	adc    al,BYTE PTR [ecx+0x2004ed]
  412753:	adc    eax,DWORD PTR [eax]
  412755:	add    eax,0x81120020
  41275a:	in     eax,0xf
  41275c:	pop    es
  41275d:	add    edx,DWORD PTR [edx]
  41275f:	sub    ebp,0xf5811215
  412765:	add    DWORD PTR [edx],edx
  412767:	sub    ebp,0x41c1d
  41276d:	add    BYTE PTR ds:0x220080e,bl
  412773:	add    DWORD PTR ds:0x582120e,ebx
  412779:	add    eax,0x81120107
  41277e:	std    
  41277f:	add    eax,DWORD PTR [edi]
  412781:	add    DWORD PTR [esi],ecx
  412783:	pop    es
  412784:	adc    eax,0xa027112
  412789:	adc    bl,BYTE PTR [esi+eax*1]
  41278c:	pop    es
  41278d:	add    dl,BYTE PTR [edx]
  41278f:	xor    BYTE PTR ds:0x207061c,bl
  412795:	adc    dh,BYTE PTR [ebx*1+0x107041c]
  41279c:	adc    bl,BYTE PTR [esi+eax*1]
  41279f:	add    BYTE PTR [edx],al
  4127a1:	add    DWORD PTR [eax+edx*1],ebx
  4127a4:	add    cl,BYTE PTR [eax]
  4127a6:	and    BYTE PTR [edx],al
  4127a8:	add    dl,BYTE PTR [ebx]
  4127aa:	add    BYTE PTR [eax],dl
  4127ac:	adc    eax,DWORD PTR [ecx]
  4127ae:	push   es
  4127af:	pop    es
  4127b0:	add    edx,DWORD PTR [edx]
  4127b2:	sbb    al,0x2
  4127b4:	sbb    al,0x7
  4127b6:	and    BYTE PTR [edx],al
  4127b8:	add    DWORD PTR [ebx],edx
  4127ba:	add    BYTE PTR [ebx],dl
  4127bc:	add    DWORD PTR [edi+eax*1],eax
  4127bf:	add    al,BYTE PTR [edx]
  4127c1:	sbb    al,0x5
  4127c3:	and    BYTE PTR [ecx],al
  4127c5:	add    dl,BYTE PTR [ebx]
  4127c7:	add    BYTE PTR [edi],al
  4127c9:	add    BYTE PTR [ecx],al
  4127cb:	adc    al,BYTE PTR [edx+0x975111d]
  4127d1:	add    BYTE PTR [ebx],al
  4127d3:	adc    al,BYTE PTR [edx+0x11080e21]
  4127d9:	jne    0x4127e3
  4127db:	and    BYTE PTR [edx],al
  4127dd:	add    DWORD PTR [ebx*1+0x5218212],ebx
  4127e4:	and    BYTE PTR [eax],al
  4127e6:	adc    al,BYTE PTR [edx+0x200a2d]
  4127ec:	adc    eax,0x1318212
  4127f1:	adc    al,BYTE PTR [edx+0x12150835]
  4127f7:	cmp    BYTE PTR [ecx],0x1
  4127fa:	adc    al,BYTE PTR [edx+0x1200535]
  412800:	add    DWORD PTR [ebx],edx
  412802:	add    BYTE PTR [eax],cl
  412804:	add    BYTE PTR [ecx],al
  412806:	adc    al,BYTE PTR [eax+0x3d8211b5]
  41280c:	push   cs
  41280d:	and    BYTE PTR [ebx],al
  41280f:	adc    al,BYTE PTR [edx-0x4a7fedbf]
  412815:	adc    al,BYTE PTR [edx+0x2182121d]
  41281b:	push   es
  41281c:	and    BYTE PTR [edx],al
  41281e:	add    DWORD PTR [esi],ecx
  412820:	sbb    eax,0x507121c
  412825:	adc    al,BYTE PTR [ecx+0x1d8212bd]
  41282b:	adc    al,BYTE PTR [edx+0x25821221]
  412831:	sbb    eax,0x5218212
  412836:	and    BYTE PTR [eax],al
  412838:	adc    DWORD PTR [edx+0x5070f45],eax
  41283e:	adc    al,BYTE PTR [edx+0x4d821249]
  412844:	adc    al,BYTE PTR [ecx+0x1d1c1d69]
  41284a:	sbb    al,0x4
  41284c:	add    BYTE PTR [ecx],al
  41284e:	add    cl,BYTE PTR [eax]
  412850:	push   es
  412851:	and    BYTE PTR [ecx],al
  412853:	add    dl,BYTE PTR [ecx]
  412855:	and    BYTE PTR [ecx+0x1204070c],0x82
  41285c:	dec    ecx
  41285d:	adc    al,BYTE PTR [edx+0x1d1c1d4d]
  412863:	sbb    al,0x81
  412865:	outs   dx,BYTE PTR ds:[esi]
  412866:	add    DWORD PTR [eax],eax
  412868:	add    al,0x0
  41286a:	push   esp
  41286b:	add    bl,BYTE PTR [esi]
  41286d:	dec    ecx
  41286e:	outs   dx,BYTE PTR ds:[esi]
  41286f:	arpl   WORD PTR [ebp+esi*2+0x64],bp
  412873:	gs inc ebp
  412875:	js     0x4128da
  412877:	gs jo  0x4128ee
  41287a:	imul   ebp,DWORD PTR [edi+0x6e],0x61746544
  412881:	imul   ebp,DWORD PTR [ecx+ecx*2+0x6e],0x6c756146
  412889:	je     0x4128fe
  41288b:	add    DWORD PTR [ebp+edx*2+0x7f],edx
  41288f:	push   ebx
  412890:	jns    0x412905
  412892:	je     0x4128f9
  412894:	ins    DWORD PTR es:[edi],dx
  412895:	cs push ebx
  412897:	gs jb  0x412910
  41289a:	imul   esp,DWORD PTR [ebx+0x65],0x65646f4d
  4128a1:	ins    BYTE PTR es:[edi],dx
  4128a2:	cs dec ecx
  4128a4:	outs   dx,BYTE PTR ds:[esi]
  4128a5:	jae    0x41291b
  4128a7:	popa   
  4128a8:	outs   dx,BYTE PTR ds:[esi]
  4128a9:	arpl   WORD PTR [ebp+0x43],sp
  4128ac:	outs   dx,DWORD PTR ds:[esi]
  4128ad:	outs   dx,BYTE PTR ds:[esi]
  4128ae:	je     0x412915
  4128b0:	js     0x412926
  4128b2:	dec    ebp
  4128b3:	outs   dx,DWORD PTR ds:[esi]
  4128b4:	fs gs sub al,0x20
  4128b8:	push   ebx
  4128b9:	jns    0x41292e
  4128bb:	je     0x412922
  4128bd:	ins    DWORD PTR es:[edi],dx
  4128be:	cs push ebx
  4128c0:	gs jb  0x412939
  4128c3:	imul   esp,DWORD PTR [ebx+0x65],0x65646f4d
  4128ca:	ins    BYTE PTR es:[edi],dx
  4128cb:	sub    al,0x20
  4128cd:	push   esi
  4128ce:	gs jb  0x412944
  4128d1:	imul   ebp,DWORD PTR [edi+0x6e],0x302e343d
  4128d8:	xor    BYTE PTR cs:[esi],ch
  4128db:	xor    BYTE PTR [eax+eiz*1],ch
  4128de:	inc    ebx
  4128df:	jne    0x41294d
  4128e1:	je     0x412958
  4128e3:	jb     0x41294a
  4128e5:	cmp    eax,0x7475656e
  4128ea:	jb     0x41294d
  4128ec:	ins    BYTE PTR es:[edi],dx
  4128ed:	sub    al,0x20
  4128ef:	push   eax
  4128f0:	jne    0x412954
  4128f2:	ins    BYTE PTR es:[edi],dx
  4128f3:	imul   esp,DWORD PTR [ebx+0x4b],0x6f547965
  4128fa:	imul   esp,DWORD PTR [ebp+0x6e],0x3d
  4128fe:	bound  esi,QWORD PTR [edi]
  412900:	aaa    
  412901:	popa   
  412902:	xor    eax,0x31363563
  412907:	cmp    DWORD PTR [ebx],esi
  412909:	xor    al,0x65
  41290b:	xor    BYTE PTR [eax],bh
  41290d:	cmp    DWORD PTR [ebx],edx
  41290f:	dec    ecx
  412910:	outs   dx,BYTE PTR ds:[esi]
  412911:	jae    0x412987
  412913:	popa   
  412914:	outs   dx,BYTE PTR ds:[esi]
  412915:	arpl   WORD PTR [ebp+0x43],sp
  412918:	outs   dx,DWORD PTR ds:[esi]
  412919:	outs   dx,BYTE PTR ds:[esi]
  41291a:	je     0x412981
  41291c:	js     0x412992
  41291e:	dec    ebp
  41291f:	outs   dx,DWORD PTR ds:[esi]
  412920:	fs add al,BYTE PTR gs:[eax]
  412924:	add    BYTE PTR [eax],al
  412926:	push   esp
  412927:	push   ebp
  412928:	jnp    0x41297d
  41292a:	jns    0x41299f
  41292c:	je     0x412993
  41292e:	ins    DWORD PTR es:[edi],dx
  41292f:	cs push ebx
  412931:	gs jb  0x4129aa
  412934:	imul   esp,DWORD PTR [ebx+0x65],0x65646f4d
  41293b:	ins    BYTE PTR es:[edi],dx
  41293c:	cs inc ebx
  41293e:	outs   dx,DWORD PTR ds:[esi]
  41293f:	outs   dx,BYTE PTR ds:[esi]
  412940:	arpl   WORD PTR [ebp+0x72],si
  412943:	jb     0x4129aa
  412945:	outs   dx,BYTE PTR ds:[esi]
  412946:	arpl   WORD PTR [ecx+0x4d],di
  412949:	outs   dx,DWORD PTR ds:[esi]
  41294a:	fs gs sub al,0x20
  41294e:	push   ebx
  41294f:	jns    0x4129c4
  412951:	je     0x4129b8
  412953:	ins    DWORD PTR es:[edi],dx
  412954:	cs push ebx
  412956:	gs jb  0x4129cf
  412959:	imul   esp,DWORD PTR [ebx+0x65],0x65646f4d
  412960:	ins    BYTE PTR es:[edi],dx
  412961:	sub    al,0x20
  412963:	push   esi
  412964:	gs jb  0x4129da
  412967:	imul   ebp,DWORD PTR [edi+0x6e],0x302e343d
  41296e:	xor    BYTE PTR cs:[esi],ch
  412971:	xor    BYTE PTR [eax+eiz*1],ch
  412974:	inc    ebx
  412975:	jne    0x4129e3
  412977:	je     0x4129ee
  412979:	jb     0x4129e0
  41297b:	cmp    eax,0x7475656e
  412980:	jb     0x4129e3
  412982:	ins    BYTE PTR es:[edi],dx
  412983:	sub    al,0x20
  412985:	push   eax
  412986:	jne    0x4129ea
  412988:	ins    BYTE PTR es:[edi],dx
  412989:	imul   esp,DWORD PTR [ebx+0x4b],0x6f547965
  412990:	imul   esp,DWORD PTR [ebp+0x6e],0x3d
  412994:	bound  esi,QWORD PTR [edi]
  412996:	aaa    
  412997:	popa   
  412998:	xor    eax,0x31363563
  41299d:	cmp    DWORD PTR [ebx],esi
  41299f:	xor    al,0x65
  4129a1:	xor    BYTE PTR [eax],bh
  4129a3:	cmp    DWORD PTR [edi],ecx
  4129a5:	inc    ebx
  4129a6:	outs   dx,DWORD PTR ds:[esi]
  4129a7:	outs   dx,BYTE PTR ds:[esi]
  4129a8:	arpl   WORD PTR [ebp+0x72],si
  4129ab:	jb     0x412a12
  4129ad:	outs   dx,BYTE PTR ds:[esi]
  4129ae:	arpl   WORD PTR [ecx+0x4d],di
  4129b1:	outs   dx,DWORD PTR ds:[esi]
  4129b2:	fs add al,BYTE PTR gs:[eax]
  4129b6:	add    BYTE PTR [eax],al
  4129b8:	push   esp
  4129b9:	or     BYTE PTR ds:0x4978614d,dl
  4129bf:	je     0x412a26
  4129c1:	ins    DWORD PTR es:[edi],dx
  4129c2:	jae    0x412a0d
  4129c4:	outs   dx,BYTE PTR ds:[esi]
  4129c5:	dec    edi
  4129c6:	bound  ebp,QWORD PTR [edx+0x65]
  4129c9:	arpl   WORD PTR [edi+eax*2+0x72],si
  4129cd:	popa   
  4129ce:	jo     0x412a38
  4129d0:	(bad)  
  4129d1:	(bad)  
  4129d2:	(bad)  
  4129d3:	jg     0x4129da
  4129d5:	add    BYTE PTR [eax],al
  4129d7:	adc    al,BYTE PTR [eax+0x2200691]
  4129dd:	add    DWORD PTR [ecx],edx
  4129df:	jne    0x4129e3
  4129e1:	add    al,0x20
  4129e3:	add    DWORD PTR [esi],ecx
  4129e5:	push   cs
  4129e6:	or     eax,DWORD PTR [eax]
  4129e8:	add    eax,DWORD PTR [edx]
  4129ea:	push   cs
  4129eb:	adc    al,BYTE PTR [ecx-0x7feeef27]
  4129f1:	mov    eax,ds:0x11010006
  4129f6:	and    BYTE PTR [ecx+0x120060d],0x1
  4129fd:	adc    al,BYTE PTR [edx+0x300085d]
  412a03:	add    cl,BYTE PTR [esi]
  412a05:	push   cs
  412a06:	adc    DWORD PTR [edx+0x4070c65],eax
  412a0c:	adc    al,BYTE PTR [ecx+0x69821295]
  412a12:	sbb    eax,0x801c1d1c
  412a17:	cwde   
  412a18:	add    DWORD PTR [eax],eax
  412a1a:	add    DWORD PTR [eax],eax
  412a1c:	push   esp
  412a1d:	push   ebp
  412a1e:	jg     0x412a73
  412a20:	jns    0x412a95
  412a22:	je     0x412a89
  412a24:	ins    DWORD PTR es:[edi],dx
  412a25:	cs push ebx
  412a27:	gs jb  0x412aa0
  412a2a:	imul   esp,DWORD PTR [ebx+0x65],0x65646f4d
  412a31:	ins    BYTE PTR es:[edi],dx
  412a32:	cs dec ecx
  412a34:	ins    DWORD PTR es:[edi],dx
  412a35:	jo     0x412a9c
  412a37:	jb     0x412aac
  412a39:	outs   dx,DWORD PTR ds:[esi]
  412a3a:	outs   dx,BYTE PTR ds:[esi]
  412a3b:	popa   
  412a3c:	je     0x412aa7
  412a3e:	outs   dx,DWORD PTR ds:[esi]
  412a3f:	outs   dx,BYTE PTR ds:[esi]
  412a40:	dec    edi
  412a41:	jo     0x412ab7
  412a43:	imul   ebp,DWORD PTR [edi+0x6e],0x7953202c
  412a4a:	jae    0x412ac0
  412a4c:	gs ins DWORD PTR es:[edi],dx
  412a4e:	cs push ebx
  412a50:	gs jb  0x412ac9
  412a53:	imul   esp,DWORD PTR [ebx+0x65],0x65646f4d
  412a5a:	ins    BYTE PTR es:[edi],dx
  412a5b:	sub    al,0x20
  412a5d:	push   esi
  412a5e:	gs jb  0x412ad4
  412a61:	imul   ebp,DWORD PTR [edi+0x6e],0x302e343d
  412a68:	xor    BYTE PTR cs:[esi],ch
  412a6b:	xor    BYTE PTR [eax+eiz*1],ch
  412a6e:	inc    ebx
  412a6f:	jne    0x412add
  412a71:	je     0x412ae8
  412a73:	jb     0x412ada
  412a75:	cmp    eax,0x7475656e
  412a7a:	jb     0x412add
  412a7c:	ins    BYTE PTR es:[edi],dx
  412a7d:	sub    al,0x20
  412a7f:	push   eax
  412a80:	jne    0x412ae4
  412a82:	ins    BYTE PTR es:[edi],dx
  412a83:	imul   esp,DWORD PTR [ebx+0x4b],0x6f547965
  412a8a:	imul   esp,DWORD PTR [ebp+0x6e],0x3d
  412a8e:	bound  esi,QWORD PTR [edi]
  412a90:	aaa    
  412a91:	popa   
  412a92:	xor    eax,0x31363563
  412a97:	cmp    DWORD PTR [ebx],esi
  412a99:	xor    al,0x65
  412a9b:	xor    BYTE PTR [eax],bh
  412a9d:	cmp    DWORD PTR ds:0x65706d49,ecx
  412aa3:	jb     0x412b18
  412aa5:	outs   dx,DWORD PTR ds:[esi]
  412aa6:	outs   dx,BYTE PTR ds:[esi]
  412aa7:	popa   
  412aa8:	je     0x412b13
  412aaa:	outs   dx,DWORD PTR ds:[esi]
  412aab:	outs   dx,BYTE PTR ds:[esi]
  412aac:	add    BYTE PTR [eax],al
  412aae:	add    BYTE PTR [eax],al
  412ab0:	add    eax,0x82120000
  412ab5:	jno    0x412abc
  412ab7:	and    BYTE PTR [eax],al
  412ab9:	adc    al,BYTE PTR [edx+0x200575]
  412abf:	adc    al,BYTE PTR [eax+0x2200991]
  412ac5:	add    DWORD PTR [edx],edx
  412ac7:	adc    BYTE PTR [ecx+0x5918012],0x0
  412ace:	add    al,BYTE PTR [ecx]
  412ad0:	push   cs
  412ad1:	push   cs
  412ad2:	add    eax,0xe020200
  412ad7:	push   cs
  412ad8:	add    eax,0x1e000130
  412add:	add    BYTE PTR ds:0x8012010a,al
  412ae3:	mov    DWORD PTR [esi],eax
  412ae5:	add    BYTE PTR [ecx],al
  412ae7:	add    DWORD PTR [edx],edx
  412ae9:	or     DWORD PTR [ebp+0x120d071f],0x82128d81
  412af3:	test   DWORD PTR [edx],edx
  412af5:	add    BYTE PTR [ebp+0x28d8112],0x12
  412afc:	cmp    DWORD PTR [ebp+0x1d1c1d1c],0x1d1c1d1c
  412b06:	sbb    al,0x1d
  412b08:	sbb    al,0x1d
  412b0a:	sbb    al,0xc
  412b0c:	pop    es
  412b0d:	add    eax,0x28d8112
  412b12:	adc    al,BYTE PTR [ecx+0x1c1d1cbd]
  412b18:	add    eax,0x81120107
  412b1d:	lea    eax,[edi]
  412b1f:	xor    BYTE PTR [ecx],al
  412b21:	add    DWORD PTR [esi],ebx
  412b23:	add    BYTE PTR ds:0x10a0405,bl
  412b29:	adc    dh,BYTE PTR ds:0x1206070f
  412b2f:	or     BYTE PTR [ecx+0x28d8112],0x12
  412b36:	cmp    DWORD PTR [ebp+0x41c1d1c],0x3d12010a
  412b40:	add    al,0xa
  412b42:	add    DWORD PTR [edx],edx
  412b44:	inc    ecx
  412b45:	adc    BYTE PTR [edi],al
  412b47:	push   es
  412b48:	adc    cl,BYTE PTR [ecx]
  412b4a:	adc    bh,BYTE PTR ds:0x128d8112
  412b50:	cmp    DWORD PTR [ebp+0x1c1d1c1d],0x11010a04
  412b5a:	inc    ebp
  412b5b:	add    eax,0x80120020
  412b60:	mov    ch,0x5
  412b62:	and    BYTE PTR [ecx],al
  412b64:	sbb    eax,0x71a1c05
  412b69:	or     edx,DWORD PTR [edx]
  412b6b:	adc    BYTE PTR [ecx-0x7dedfae3],0x49
  412b72:	adc    al,BYTE PTR [edx-0x6a7dedb3]
  412b78:	add    bl,BYTE PTR [ebx*1+0x1d1c1d1c]
  412b7f:	sbb    al,0x1d
  412b81:	sbb    al,0x13
  412b83:	pop    es
  412b84:	or     BYTE PTR [edx],dl
  412b86:	or     DWORD PTR [ebp+0x28d8112],0x1cbd8112
  412b90:	sbb    eax,0x1d1c1d1c
  412b95:	sbb    al,0x9
  412b97:	pop    es
  412b98:	add    edx,DWORD PTR [edx]
  412b9a:	or     DWORD PTR [ebp-0x427eedf6],0x12020708
  412ba4:	or     DWORD PTR [ebp+0x9bd8112],0x81120307
  412bae:	lea    eax,[edx]
  412bb0:	adc    al,BYTE PTR [ecx+0x30709bd]
  412bb6:	adc    al,BYTE PTR [ecx+0x1d1c1d8d]
  412bbc:	sbb    al,0xb
  412bbe:	pop    es
  412bbf:	add    eax,0x28d8112
  412bc4:	sbb    eax,0x1c1d1c1c
  412bc9:	add    eax,0x81120107
  412bce:	mov    ebp,0x1206070e
  412bd3:	or     BYTE PTR [ecx+0x12],0x82
  412bd7:	dec    ebp
  412bd8:	add    bl,BYTE PTR [ebx*1+0x31c1d1c]
  412bdf:	and    BYTE PTR [eax],al
  412be1:	or     eax,0x1012004
  412be6:	or     eax,0x1206070e
  412beb:	or     BYTE PTR [ebp+0x12],0x82
  412bef:	dec    ecx
  412bf0:	add    bl,BYTE PTR [ebx*1+0x91c1d1c]
  412bf7:	add    BYTE PTR [edx],al
  412bf9:	add    DWORD PTR [edx],edx
  412bfb:	adc    BYTE PTR [ecx+0x8918012],0x7
  412c02:	add    dl,BYTE PTR [edx]
  412c04:	or     BYTE PTR [ecx+0x38d8112],0x7
  412c0b:	add    DWORD PTR [edx],eax
  412c0d:	or     BYTE PTR ds:0xa027112,dl
  412c13:	adc    al,BYTE PTR [eax+0x20705b1]
  412c19:	push   cs
  412c1a:	sbb    eax,0x100061c
  412c1f:	adc    al,BYTE PTR [edx+0x20040eb1]
  412c25:	add    DWORD PTR [esi],ecx
  412c27:	or     BYTE PTR [edx],cl
  412c29:	and    BYTE PTR [ebx],al
  412c2b:	add    DWORD PTR [esi],ecx
  412c2d:	adc    DWORD PTR [edx-0x467dee4b],eax
  412c33:	adc    eax,DWORD PTR [edi]
  412c35:	or     cl,BYTE PTR [edx]
  412c37:	push   cs
  412c38:	push   cs
  412c39:	push   cs
  412c3a:	adc    al,BYTE PTR [eax-0x727eed4f]
  412c40:	or     bl,BYTE PTR ds:0x1d1c1d1c
  412c46:	sbb    al,0x7
  412c48:	and    BYTE PTR [ebx],al
  412c4a:	add    DWORD PTR ds:0x7080805,ebx
  412c50:	pop    es
  412c51:	add    dl,BYTE PTR [edx]
  412c53:	xor    BYTE PTR [ecx+0x51c1d],0x2
  412c5a:	add    DWORD PTR [esi],ecx
  412c5c:	add    cl,BYTE PTR [ecx]
  412c5e:	add    BYTE PTR [ecx],al
  412c60:	adc    eax,0x1c18212
  412c65:	push   cs
  412c66:	push   cs
  412c67:	add    eax,0x82110000
  412c6c:	lds    edx,FWORD PTR [ecx]
  412c6e:	add    BYTE PTR [edx],al
  412c70:	adc    eax,0x1c18212
  412c75:	push   cs
  412c76:	adc    eax,0x1c18212
  412c7b:	push   cs
  412c7c:	adc    DWORD PTR [edx+0x4070dc5],eax
  412c82:	adc    eax,0x1c18212
  412c87:	push   cs
  412c88:	push   cs
  412c89:	sbb    eax,0x51c1d1c
  412c8e:	and    BYTE PTR [eax],al
  412c90:	adc    DWORD PTR [edx+0x6070fc9],eax
  412c96:	adc    al,BYTE PTR [ecx+0x1d1c1d8d]
  412c9c:	sbb    al,0x1d
  412c9e:	sbb    al,0x1d
  412ca0:	sbb    al,0x1d
  412ca2:	sbb    al,0x9
  412ca4:	and    BYTE PTR [edx],al
  412ca6:	add    DWORD PTR [ecx],edx
  412ca8:	adc    ch,0x11
  412cab:	sbb    cl,0x6
  412cae:	and    BYTE PTR [ecx],al
  412cb0:	add    DWORD PTR [ecx],edx
  412cb2:	sbb    ch,0x5
  412cb5:	and    BYTE PTR [eax],al
  412cb7:	adc    al,BYTE PTR [eax+0x70711a9]
  412cbd:	adc    al,BYTE PTR [edx-0x7fedf12f]
  412cc3:	lods   eax,DWORD PTR ds:[esi]
  412cc4:	adc    al,BYTE PTR [edx+0x1c1d02e1]
  412cca:	sbb    eax,0x5070a1c
  412ccf:	adc    ah,BYTE PTR [eax]
  412cd1:	adc    ch,BYTE PTR [ebp+0x12]
  412cd4:	and    al,0xe
  412cd6:	or     al,BYTE PTR ds:0x82120020
  412cdc:	in     eax,0x5
  412cde:	and    BYTE PTR [eax],al
  412ce0:	adc    al,BYTE PTR [eax+0x12006ad]
  412ce6:	add    dl,BYTE PTR [edx]
  412ce8:	sub    cl,0x9
  412ceb:	pop    es
  412cec:	add    edx,DWORD PTR [edx]
  412cee:	sub    BYTE PTR [ebp-0x1a7dedfe],0x5
  412cf5:	add    BYTE PTR [eax],al
  412cf7:	adc    al,BYTE PTR [edx+0x2005ed]
  412cfd:	adc    al,BYTE PTR [ecx+0x15072a55]
  412d03:	push   cs
  412d04:	push   cs
  412d05:	adc    ch,BYTE PTR ds:0x82120e08
  412d0b:	stc    
  412d0c:	adc    al,BYTE PTR [ecx-0x727eed73]
  412d12:	or     BYTE PTR ds:0x1d1c1d1c,bl
  412d18:	sbb    al,0x1d
  412d1a:	sbb    al,0x1d
  412d1c:	sbb    al,0x1d
  412d1e:	sbb    al,0x1d
  412d20:	sbb    al,0x1d
  412d22:	sbb    al,0x1d
  412d24:	sbb    al,0x1d
  412d26:	sbb    al,0x1d
  412d28:	sbb    al,0x1d
  412d2a:	sbb    al,0x3
  412d2c:	and    BYTE PTR [eax],al
  412d2e:	sbb    al,0x8
  412d30:	and    BYTE PTR [ebx],al
  412d32:	add    DWORD PTR [edx],ecx
  412d34:	adc    DWORD PTR [edx+0x7120ec9],eax
  412d3a:	or     BYTE PTR [edx],dl
  412d3c:	cmp    ch,0x12
  412d3f:	and    BYTE PTR [edx],dl
  412d41:	xor    BYTE PTR [esi],cl
  412d43:	or     BYTE PTR [edx],dl
  412d45:	and    BYTE PTR [ebp+0x1c1d1c1d],0x4
  412d4c:	and    BYTE PTR [eax],al
  412d4e:	adc    DWORD PTR ds:0x11000004,esp
  412d54:	and    eax,0x2020007
  412d59:	adc    DWORD PTR ds:0x7092511,esp
  412d5f:	add    al,0x9
  412d61:	adc    DWORD PTR ds:0x1c1d1c1d,esp
  412d67:	or     DWORD PTR [edi],eax
  412d69:	add    al,0x12
  412d6b:	sub    BYTE PTR [edx],dl
  412d6d:	ins    DWORD PTR es:[edi],dx
  412d6e:	adc    ch,BYTE PTR [edx+ecx*1]
  412d71:	sbb    BYTE PTR [edi],al
  412d73:	or     eax,0x2d120e0e
  412d78:	or     BYTE PTR [edx],dl
  412d7a:	or     DWORD PTR [ebp+0x91c1d08],0x1c1d1c1d
  412d84:	sbb    eax,0x1d1c1d1c
  412d89:	sbb    al,0x14
  412d8b:	pop    es
  412d8c:	or     DWORD PTR [edx],edx
  412d8e:	cmp    ch,0x12
  412d91:	sub    BYTE PTR [edx],dl
  412d93:	xor    al,0xe
  412d95:	or     BYTE PTR [edx],dl
  412d97:	and    BYTE PTR [ebp+0x1c1d1c1d],0x1d
  412d9e:	sbb    al,0x7
  412da0:	pop    es
  412da1:	add    edx,DWORD PTR [edx]
  412da3:	xor    BYTE PTR [ecx+0x7051c02],0x3
  412daa:	or     al,BYTE PTR [edx]
  412dac:	sbb    al,0xb
  412dae:	and    BYTE PTR [eax],al
  412db0:	adc    eax,0x2098311
  412db5:	adc    eax,DWORD PTR [eax]
  412db7:	adc    eax,DWORD PTR [ecx]
  412db9:	or     DWORD PTR ds:0x2098311,edx
  412dbf:	or     dl,BYTE PTR [edx]
  412dc1:	xor    BYTE PTR [ecx+0x1500200b],0x11
  412dc8:	or     DWORD PTR ds:0x13001302,0x1
  412dcf:	or     DWORD PTR ds:0x20d8311,edx
  412dd5:	or     dl,BYTE PTR [edx]
  412dd7:	xor    BYTE PTR [ecx+0x13002004],0x1
  412dde:	sbb    BYTE PTR [edi],al
  412de0:	add    eax,0xd831115
  412de5:	add    cl,BYTE PTR [edx]
  412de7:	adc    al,BYTE PTR [eax+0x151c02b1]
  412ded:	adc    DWORD PTR [ebx+0x120a0209],eax
  412df3:	xor    BYTE PTR [ecx+0x20091c1d],0x1
  412dfa:	adc    al,BYTE PTR [eax-0x7fede24b]
  412e00:	mov    ch,0x6
  412e02:	add    BYTE PTR [ecx],al
  412e04:	sbb    al,0x12
  412e06:	xor    BYTE PTR [ebp+0x12020709],0x80
  412e0d:	mov    ch,0x1d
  412e0f:	adc    al,BYTE PTR [eax+0x121508b5]
  412e15:	add    cl,0x1
  412e18:	adc    al,BYTE PTR [edx+0x12150621]
  412e1e:	cmp    BYTE PTR [ecx+0x15060e01],0x12
  412e25:	xor    ebp,0x201b0e01
  412e2b:	add    edx,DWORD PTR ds:0x21d8312
  412e31:	adc    al,BYTE PTR [ebx+0x25831121]
  412e37:	adc    al,BYTE PTR [edx-0x7fedeadf]
  412e3d:	mov    ecx,0x21821201
  412e42:	adc    DWORD PTR [ebx+0x12150b29],eax
  412e48:	sub    DWORD PTR ds:0x21831202,0x11
  412e4f:	and    DWORD PTR ds:0x8312150b,0x1d
  412e56:	add    dl,BYTE PTR [edx]
  412e58:	and    DWORD PTR [ecx],0x11
  412e5b:	and    DWORD PTR ds:0x101200c,0x15
  412e62:	adc    al,BYTE PTR [ebx+0x13022d]
  412e68:	adc    eax,DWORD PTR [ecx]
  412e6a:	add    eax,0x81120020
  412e6f:	lea    eax,[esi]
  412e71:	add    BYTE PTR [ecx],al
  412e73:	or     BYTE PTR [edx],dl
  412e75:	or     DWORD PTR [ebp+0x120d072f],0x120e1983
  412e7f:	and    BYTE PTR [ecx],0x15
  412e82:	adc    al,BYTE PTR [edx-0x7dedfe3f]
  412e88:	and    DWORD PTR [esi],ecx
  412e8a:	push   cs
  412e8b:	adc    al,BYTE PTR [edx-0x7cedeadf]
  412e91:	sbb    eax,0x21831202
  412e96:	adc    DWORD PTR [ebx-0x7eedf7db],eax
  412e9c:	lea    edx,ds:0x1f58112
  412ea2:	push   cs
  412ea3:	sbb    eax,0x51c1d1c
  412ea8:	add    BYTE PTR [eax],al
  412eaa:	adc    al,BYTE PTR [ebx+0x120063d]
  412eb0:	add    DWORD PTR [edx],edx
  412eb2:	add    DWORD PTR [ecx+0x6],0x20
  412eb6:	add    DWORD PTR [ecx],eax
  412eb8:	adc    al,BYTE PTR [ebx+0xb071b45]
  412ebe:	adc    bh,BYTE PTR [edx+edx*1]
  412ec1:	or     DWORD PTR [ecx+0x12],0xffffff81
  412ec5:	lea    edx,[edx]
  412ec7:	cmp    DWORD PTR [ebp+0x1c1d1c1d],0x1c1d1c1d
  412ed1:	sbb    eax,0x1d1c1d1c
  412ed6:	sbb    al,0x6
  412ed8:	adc    eax,0x1c58012
  412edd:	push   cs
  412ede:	push   es
  412edf:	add    BYTE PTR [edx],al
  412ee1:	add    cl,BYTE PTR [esi]
  412ee3:	adc    BYTE PTR [eax],cl
  412ee5:	or     BYTE PTR [edi],al
  412ee7:	add    al,0x11
  412ee9:	jne    0x412ef3
  412eeb:	or     BYTE PTR ds:0x51c,bl
  412ef1:	adc    al,BYTE PTR [ebx+0x1200655]
  412ef7:	or     BYTE PTR [edx],dl
  412ef9:	sbb    DWORD PTR [ecx+0x4],0x0
  412efd:	add    DWORD PTR [ecx],eax
  412eff:	add    al,BYTE PTR ds:0x3010220
  412f05:	or     BYTE PTR ds:0x83120020,al
  412f0b:	pop    ebp
  412f0c:	or     eax,0x83120607
  412f11:	push   ecx
  412f12:	push   cs
  412f13:	push   cs
  412f14:	sbb    eax,0x1d1c1d1c
  412f19:	sbb    al,0x6
  412f1b:	add    BYTE PTR [edx],al
  412f1d:	sbb    eax,0x60e0e0e
  412f22:	and    BYTE PTR [ecx],al
  412f24:	push   cs
  412f25:	adc    al,BYTE PTR [ecx+0x5d9]
  412f2b:	adc    DWORD PTR [ebx+0xb071161],eax
  412f31:	sbb    eax,0x808080e
  412f36:	push   cs
  412f37:	add    cl,BYTE PTR [esi]
  412f39:	push   cs
  412f3a:	sbb    eax,0x8311080e
  412f3f:	popa   
  412f40:	push   es
  412f41:	pop    es
  412f42:	add    cl,BYTE PTR [eax]
  412f44:	adc    al,BYTE PTR [ecx+0x595]
  412f4a:	adc    al,BYTE PTR [ebx+0x2201165]
  412f50:	add    DWORD PTR ds:0x1b98012,edx
  412f56:	adc    eax,DWORD PTR [eax]
  412f58:	adc    eax,0x1698312
  412f5d:	adc    eax,DWORD PTR [eax]
  412f5f:	push   es
  412f60:	pop    es
  412f61:	add    bl,BYTE PTR ds:0x400e1d0e
  412f67:	add    DWORD PTR [eax],eax
  412f69:	xor    edx,DWORD PTR [ebx+0x79]
  412f6c:	jae    0x412fe2
  412f6e:	gs ins DWORD PTR es:[edi],dx
  412f70:	cs push edx
  412f72:	gs jae 0x412fe4
  412f75:	jne    0x412fe9
  412f77:	arpl   WORD PTR [ebp+0x73],sp
  412f7a:	cs push esp
  412f7c:	outs   dx,DWORD PTR ds:[esi]
  412f7d:	outs   dx,DWORD PTR ds:[esi]
  412f7e:	ins    BYTE PTR es:[edi],dx
  412f7f:	jae    0x412faf
  412f81:	push   ebx
  412f82:	je     0x412ff6
  412f84:	outs   dx,DWORD PTR ds:[esi]
  412f85:	outs   dx,BYTE PTR ds:[esi]
  412f86:	ins    BYTE PTR es:[di],dx
  412f88:	jns    0x412fde
  412f8a:	jns    0x412ffc
  412f8c:	gs fs push edx
  412f8f:	gs jae 0x413001
  412f92:	jne    0x413006
  412f94:	arpl   WORD PTR [ebp+0x42],sp
  412f97:	jne    0x413002
  412f99:	ins    BYTE PTR es:[edi],dx
  412f9a:	fs gs jb 0x412fa5
  412f9e:	xor    al,0x2e
  412fa0:	xor    BYTE PTR [esi],ch
  412fa2:	xor    BYTE PTR [esi],ch
  412fa4:	xor    BYTE PTR [eax],al
  412fa6:	add    BYTE PTR ds:0x1c020200,al
  412fac:	sbb    al,0x5
  412fae:	and    BYTE PTR [eax],al
  412fb0:	adc    al,BYTE PTR [edx+0x22007ed]
  412fb6:	add    DWORD PTR [esi],ecx
  412fb8:	adc    al,BYTE PTR [edx+0x10705ed]
  412fbe:	adc    al,BYTE PTR [eax+0x22007c9]
  412fc4:	push   cs
  412fc5:	push   cs
  412fc6:	adc    al,BYTE PTR [eax+0x12006cd]
  412fcc:	add    DWORD PTR [ecx],edx
  412fce:	cmp    DWORD PTR [ecx+0x8],0x1
  412fd2:	add    BYTE PTR [edx],al
  412fd4:	add    BYTE PTR [eax],al
  412fd6:	add    BYTE PTR [eax],al
  412fd8:	add    BYTE PTR [edi],dh
  412fda:	add    DWORD PTR [eax],eax
  412fdc:	sbb    ch,BYTE PTR [esi]
  412fde:	dec    esi
  412fdf:	inc    ebp
  412fe0:	push   esp
  412fe1:	inc    esi
  412fe2:	jb     0x413045
  412fe4:	ins    DWORD PTR es:[edi],dx
  412fe5:	gs ja  0x413057
  412fe8:	jb     0x413055
  412fea:	sub    al,0x56
  412fec:	gs jb  0x413062
  412fef:	imul   ebp,DWORD PTR [edi+0x6e],0x2e34763d
  412ff6:	xor    eax,0xe540001
  412ffb:	adc    al,0x46
  412ffd:	jb     0x413060
  412fff:	ins    DWORD PTR es:[edi],dx
  413000:	gs ja  0x413072
  413003:	jb     0x413070
  413005:	inc    esp
  413006:	imul   esi,DWORD PTR [ebx+0x70],0x4e79616c
  41300d:	popa   
  41300e:	ins    DWORD PTR es:[edi],dx
  41300f:	add    BYTE PTR gs:0x1,al
  413016:	add    BYTE PTR ds:0x10001,al
  41301c:	add    BYTE PTR [ecx],ah
  41301e:	add    DWORD PTR [eax],eax
  413020:	sbb    al,0x4d
  413022:	imul   esp,DWORD PTR [ebx+0x72],0x666f736f
  413029:	je     0x41304b
  41302b:	push   esp
  41302c:	gs jae 0x4130a3
  41302f:	and    BYTE PTR [edi+ebp*2+0x6f],dl
  413033:	ins    BYTE PTR es:[edi],dx
  413034:	jae    0x413056
  413036:	inc    ecx
  413037:	fs popa 
  413039:	jo     0x4130af
  41303b:	gs jb  0x41303e
  41303e:	add    BYTE PTR [edx],bl
  413040:	add    DWORD PTR [eax],eax
  413042:	adc    eax,0x7263694d
  413047:	outs   dx,DWORD PTR ds:[esi]
  413048:	jae    0x4130b9
  41304a:	data16 je 0x41306d
  41304d:	inc    ebx
  41304e:	outs   dx,DWORD PTR ds:[esi]
  41304f:	jb     0x4130c1
  413051:	outs   dx,DWORD PTR ds:[esi]
  413052:	jb     0x4130b5
  413054:	je     0x4130bf
  413056:	outs   dx,DWORD PTR ds:[esi]
  413057:	outs   dx,BYTE PTR ds:[esi]
  413058:	add    BYTE PTR [eax],al
  41305a:	and    eax,0x4d200001
  41305f:	imul   esp,DWORD PTR [ebx+0x72],0x666f736f
  413066:	je     0x41302a
  413068:	scas   al,BYTE PTR es:[edi]
  413069:	and    BYTE PTR [esi+0x69],dl
  41306c:	jae    0x4130e3
  41306e:	popa   
  41306f:	ins    BYTE PTR es:[edi],dx
  413070:	and    BYTE PTR [ebx+0x74],dl
  413073:	jne    0x4130d9
  413075:	imul   ebp,DWORD PTR [edi-0x3e],0x303220ae
  41307c:	xor    DWORD PTR [edx],esi
  41307e:	add    BYTE PTR [eax],al
  413080:	xor    eax,DWORD PTR [ecx]
  413082:	add    BYTE PTR [esi],ch
  413084:	ret    0x20a9
  413087:	dec    ebp
  413088:	imul   esp,DWORD PTR [ebx+0x72],0x666f736f
  41308f:	je     0x4130b1
  413091:	inc    ebx
  413092:	outs   dx,DWORD PTR ds:[esi]
  413093:	jb     0x413105
  413095:	outs   dx,DWORD PTR ds:[esi]
  413096:	jb     0x4130f9
  413098:	je     0x413103
  41309a:	outs   dx,DWORD PTR ds:[esi]
  41309b:	outs   dx,BYTE PTR ds:[esi]
  41309c:	and    BYTE PTR cs:[ecx+0x6c],al
  4130a0:	ins    BYTE PTR es:[edi],dx
  4130a1:	and    BYTE PTR [edx+0x69],dh
  4130a4:	addr16 push 0x72207374
  4130aa:	gs jae 0x413112
  4130ad:	jb     0x413125
  4130af:	gs fs add BYTE PTR cs:[eax],al
  4130b4:	adc    DWORD PTR [ecx],eax
  4130b6:	add    BYTE PTR [ecx+esi*1],cl
  4130b9:	xor    DWORD PTR [esi],ebp
  4130bb:	xor    BYTE PTR [esi],ch
  4130bd:	xor    eax,0x37323730
  4130c2:	xor    DWORD PTR cs:[eax],eax
  4130c5:	add    BYTE PTR ds:0x31080001,cl
  4130cb:	xor    DWORD PTR [esi],ebp
  4130cd:	xor    BYTE PTR [esi],ch
  4130cf:	xor    BYTE PTR [esi],ch
  4130d1:	xor    BYTE PTR [eax],al
  4130d3:	add    BYTE PTR [edx],cl
  4130d5:	add    DWORD PTR [eax],eax
  4130d7:	add    eax,0x552d6e65
  4130dc:	push   ebx
  4130dd:	add    BYTE PTR [eax],al
  4130df:	sub    al,BYTE PTR [ecx]
  4130e1:	add    BYTE PTR ds:0x645c3a46,ah
  4130e7:	fs pop esp
  4130e9:	je     0x41315a
  4130eb:	outs   dx,DWORD PTR ds:[esi]
  4130ec:	ins    BYTE PTR es:[edi],dx
  4130ed:	jae    0x41314b
  4130ef:	fs gs jbe 0x413157
  4130f3:	imul   esi,DWORD PTR [esi+0x5c],0x616e6946
  4130fa:	ins    BYTE PTR es:[edi],dx
  4130fb:	push   eax
  4130fc:	jne    0x413160
  4130fe:	ins    BYTE PTR es:[edi],dx
  4130ff:	imul   esp,DWORD PTR [ebx+0x4b],0x732e7965
  413106:	outs   dx,BYTE PTR ds:[esi]
  413107:	imul   eax,DWORD PTR [eax],0x0
  41310a:	or     DWORD PTR [eax+0x1],0x0
  41310e:	add    BYTE PTR [eax+0x30],0x30
  413112:	xor    dh,BYTE PTR [eax+esi*1]
  413115:	xor    BYTE PTR [eax],dh
  413117:	xor    BYTE PTR [eax],dh
  413119:	arpl   WORD PTR [eax],di
  41311b:	xor    BYTE PTR [eax],dh
  41311d:	xor    BYTE PTR [eax],dh
  41311f:	xor    BYTE PTR [ecx],dh
  413121:	xor    al,0x30
  413123:	xor    DWORD PTR [eax],esi
  413125:	xor    BYTE PTR [eax],dh
  413127:	xor    BYTE PTR [eax],dh
  413129:	xor    BYTE PTR ss:[edx],dh
  41312c:	xor    BYTE PTR [eax],dh
  41312e:	xor    BYTE PTR [eax],dh
  413130:	xor    BYTE PTR [eax],dh
  413132:	xor    dh,BYTE PTR [eax+esi*1]
  413135:	xor    BYTE PTR [eax],dh
  413137:	xor    BYTE PTR ds:0x34333532,dh
  41313d:	xor    DWORD PTR [ebx],esi
  41313f:	xor    DWORD PTR [eax],esi
  413141:	xor    BYTE PTR [eax],dh
  413143:	cmp    BYTE PTR [eax],dh
  413145:	xor    BYTE PTR [eax],dh
  413147:	xor    BYTE PTR [eax],dh
  413149:	xor    DWORD PTR [eax],esi
  41314b:	xor    BYTE PTR [eax],dh
  41314d:	xor    DWORD PTR [eax],esi
  41314f:	xor    BYTE PTR [esi],dh
  413151:	xor    DWORD PTR [ebx],esi
  413153:	xor    edi,DWORD PTR [ecx]
  413155:	cmp    DWORD PTR [ecx+0x66],esp
  413158:	xor    WORD PTR [eax],di
  41315b:	xor    WORD PTR gs:[ecx+0x32],sp
  413160:	arpl   WORD PTR [edx],si
  413162:	xor    eax,0x32613431
  413167:	aaa    
  413168:	xor    esp,DWORD PTR [ecx+0x34]
  41316b:	xor    ah,BYTE PTR [ecx+edi*1+0x30]
  41316f:	xor    al,0x32
  413171:	bound  esi,QWORD PTR [edi]
  413173:	xor    dh,BYTE PTR [ebx]
  413175:	xor    dh,BYTE PTR [ecx]
  413177:	xor    WORD PTR [edi],si
  41317a:	xor    eax,0x32303137
  41317f:	cmp    WORD PTR fs:[ebp+0x62],sp
  413184:	popa   
  413185:	fs popa 
  413187:	cmp    DWORD PTR ss:[ecx],edi
  41318a:	xor    dh,BYTE PTR [ebx]
  41318c:	xor    dh,BYTE PTR gs:[edi]
  41318f:	xor    edi,DWORD PTR [eax]
  413191:	xor    al,0x30
  413193:	arpl   WORD PTR ss:[edx],si
  413196:	xor    DWORD PTR [ebp+0x35],esp
  413199:	bound  edi,QWORD PTR [eax]
  41319b:	xor    BYTE PTR [ecx],dh
  41319d:	xor    eax,0x62613235
  4131a2:	cmp    BYTE PTR [edx+esi*1+0x30],ah
  4131a6:	xor    BYTE PTR [ecx+0x36],ah
  4131a9:	xor    eax,0x35333261
  4131ae:	xor    BYTE PTR gs:[eax],dh
  4131b1:	xor    DWORD PTR [ecx+0x63],esp
  4131b4:	cmp    DWORD PTR [ecx+0x64],esp
  4131b7:	arpl   WORD PTR [edx],si
  4131b9:	xor    eax,0x38643266
  4131be:	xor    DWORD PTR [ecx],esi
  4131c0:	bound  esi,QWORD PTR gs:[eax]
  4131c3:	cmp    DWORD PTR [ecx+edi*1],esi
  4131c6:	ss popa 
  4131c8:	xor    al,0x63
  4131ca:	ss popa 
  4131cc:	xor    eax,0x36346439
  4131d1:	xor    DWORD PTR [ecx],edi
  4131d3:	xor    eax,0x36633938
  4131d8:	cmp    DWORD PTR [esi+0x35],esp
  4131db:	bound  esp,QWORD PTR [ecx+0x66]
  4131de:	xor    BYTE PTR [ebx+0x34],ah
  4131e1:	xor    DWORD PTR [edi],esi
  4131e3:	cmp    DWORD PTR [ecx+0x34],esp
  4131e6:	aaa    
  4131e7:	xor    esi,DWORD PTR [ecx]
  4131e9:	xor    DWORD PTR [ecx+edi*1+0x32],esp
  4131ed:	xor    eax,0x64633535
  4131f2:	xor    BYTE PTR [eax],dh
  4131f4:	ss popa 
  4131f6:	arpl   WORD PTR [ebx+0x38],sp
  4131f9:	bound  esi,QWORD PTR ds:0x66393539
  4131ff:	xor    ah,BYTE PTR [edx+0x64]
  413202:	ss xor DWORD PTR gs:[eax],esi
  413206:	xor    esi,DWORD PTR gs:[esi]
  413209:	xor    BYTE PTR [ebx+0x33],ah
  41320c:	xor    al,0x35
  41320e:	xor    esi,DWORD PTR [edi]
  413210:	popa   
  413211:	xor    DWORD PTR [edx+esi*1+0x36],esp
  413215:	ss fs popa 
  413218:	cmp    BYTE PTR [eax],dh
  41321a:	cmp    BYTE PTR ds:0x35363538,dh
  413220:	cmp    BYTE PTR [ebx],dh
  413222:	arpl   WORD PTR [eax],di
  413224:	xor    eax,0x64313864
  413229:	popa   
  41322a:	aaa    
  41322b:	xor    sp,WORD PTR [ebp+0x63]
  41322f:	xor    BYTE PTR [ecx],dh
  413231:	gs cmp DWORD PTR fs:0x35633436,esi
  413239:	cmp    BYTE PTR [ecx+edi*1+0x33],ah
  41323d:	fs aaa 
  41323f:	xor    DWORD PTR [ebx],esi
  413241:	arpl   WORD PTR [eax+esi*1+0x31],sp
  413245:	aaa    
  413246:	xor    ah,BYTE PTR [ebx+0x38]
  413249:	xor    dh,BYTE PTR gs:[ebx]
  41324c:	popa   
  41324d:	xor    DWORD PTR [eax],esi
  41324f:	data16 xor BYTE PTR [edx],dh
  413252:	xor    edi,DWORD PTR [ecx]
  413254:	bound  edi,QWORD PTR [eax]
  413256:	xor    BYTE PTR [ebx+0x39],ah
  413259:	bound  esi,QWORD PTR ss:[eax]
  41325c:	aaa    
  41325d:	aaa    
  41325e:	xor    esi,DWORD PTR [esi]
  413260:	xor    ax,0x3864
  413264:	bound  esi,QWORD PTR [eax]
  413266:	xor    dh,BYTE PTR [edx]
  413268:	xor    eax,0x34613234
  41326d:	gs aaa 
  41326f:	xor    al,0x32
  413271:	xor    eax,0x66356131
  413276:	xor    al,0x33
  413278:	xor    bh,BYTE PTR [eax]
  41327a:	xor    dh,BYTE PTR [ebx+esi*1]
  41327d:	xor    DWORD PTR [eax],edi
  41327f:	bound  esi,QWORD PTR [ebx]
  413281:	xor    eax,0x35613933
  413286:	popa   
  413287:	xor    BYTE PTR [eax],bh
  413289:	aaa    
  41328a:	data16 cmp BYTE PTR [ebp+0x35],ah
  41328e:	xor    esp,DWORD PTR [edx+esi*1+0x66]
  413292:	xor    DWORD PTR [ebx],esi
  413294:	xor    eax,0x61633966
  413299:	xor    al,0x37
  41329b:	xor    sp,WORD PTR [edx+0x62]
  41329f:	xor    ah,BYTE PTR [ebp+0x31]
  4132a2:	xor    BYTE PTR [ecx+0x66],ah
  4132a5:	data16 xor BYTE PTR [ecx+0x66],ah
  4132a9:	xor    BYTE PTR [eax],bh
  4132ab:	xor    al,0x39
  4132ad:	xor    eax,0x62663430
  4132b2:	aaa    
  4132b3:	arpl   WORD PTR [ebp+0x61],sp
  4132b6:	xor    esp,DWORD PTR [esi+0x66]
  4132b9:	xor    DWORD PTR [ecx],edi
  4132bb:	xor    ah,BYTE PTR [ebx+eiz*2+0x38]
  4132bf:	fs xor BYTE PTR gs:[ebp+0x64],ah
  4132c4:	popa   
  4132c5:	fs ss xor al,0x63
  4132c9:	cmp    BYTE PTR ss:[ebp+0x66],ah
  4132cd:	fs xor esi,DWORD PTR gs:[ebx+eiz*2]
  4132d2:	xor    eax,0x30336436
  4132d7:	xor    ah,BYTE PTR [ecx+0x64]
  4132da:	xor    eax,0x36646635
  4132df:	cmp    BYTE PTR gs:[eax],dh
  4132e2:	xor    si,WORD PTR [eax]
  4132e5:	xor    ah,BYTE PTR [ebp+esi*1+0x65]
  4132e9:	data16 arpl WORD PTR [ebp+eiz*2+0x61],sp
  4132ee:	cmp    DWORD PTR gs:0x38353633,esi
  4132f5:	xor    esi,DWORD PTR fs:[esi*1+0x31363532]
  4132fd:	bound  esi,QWORD PTR ds:0x63363366
  413303:	xor    eax,0x66653234
  413308:	bound  esp,QWORD PTR fs:[esp+eiz*2+0x39]
  41330d:	data16 cmp BYTE PTR [eax],bh
  413310:	cmp    BYTE PTR ds:0x33643833,dh
  413316:	aaa    
  413317:	xor    al,0x63
  413319:	xor    WORD PTR gs:[eax],si
  41331d:	ss popa 
  41331f:	arpl   WORD PTR [esi+0x37],sp
  413322:	cmp    DWORD PTR fs:[ebx],esi
  413325:	popa   
  413326:	xor    al,0x34
  413328:	xor    al,0x35
  41332a:	arpl   WORD PTR [ebx],si
  41332c:	arpl   WORD PTR [edi],si
  41332e:	xor    esp,DWORD PTR [ebx+0x64]
  413331:	cmp    DWORD PTR [ecx],esi
  413333:	xor    DWORD PTR [esi+0x30],esp
  413336:	xor    eax,0x61613137
  41333b:	xor    sp,WORD PTR [ebp+esi*1+0x34]
  413340:	fs popa 
  413342:	xor    DWORD PTR [edx],esi
  413344:	bound  esi,QWORD PTR [ecx]
  413346:	xor    DWORD PTR [esp+eiz*2+0x65],esp
  41334a:	arpl   WORD PTR [ebx],si
  41334c:	aaa    
  41334d:	xor    eax,0x813362
  413352:	popa   
  413353:	xor    eax,0x36363861
  413358:	xor    DWORD PTR gs:[ebp+0x65],esp
  41335c:	xor    DWORD PTR [eax],edi
  41335e:	data16 cmp BYTE PTR ss:[eax],dh
  413362:	aaa    
  413363:	ss cmp BYTE PTR ss:[edx],dh
  413367:	xor    BYTE PTR [ecx],bh
  413369:	xor    sp,WORD PTR [edx+0x31]
  41336d:	xor    DWORD PTR [edx],esi
  41336f:	xor    esi,DWORD PTR [esi]
  413371:	popa   
  413372:	arpl   WORD PTR [ebp+0x35],sp
  413375:	xor    dh,BYTE PTR gs:[ecx]
  413378:	xor    WORD PTR [ecx],si
  41337b:	aaa    
  41337c:	cmp    BYTE PTR [eax],dh
  41337e:	xor    esp,DWORD PTR [ecx+0x33]
  413381:	xor    DWORD PTR [ebx+esi*1],esi
  413384:	popa   
  413385:	bound  esp,QWORD PTR [edx+0x31]
  413388:	xor    dh,BYTE PTR [esi]
  41338a:	fs xor BYTE PTR fs:[ebx],dh
  41338e:	xor    eax,0x32643764
  413393:	data16 cmp BYTE PTR [edi],dh
  413396:	bound  esi,QWORD PTR ss:[esi]
  413399:	cmp    DWORD PTR [ebx],esi
  41339b:	cmp    BYTE PTR [ecx+0x61],ah
  41339e:	data16 xor ah,BYTE PTR [ebp+0x65]
  4133a2:	xor    esi,DWORD PTR [ecx+esi*1]
  4133a5:	xor    al,0x64
  4133a7:	xor    eax,0x64303234
  4133ac:	aaa    
  4133ad:	xor    eax,0x31323633
  4133b2:	xor    al,0x30
  4133b4:	xor    BYTE PTR [edx+eiz*2+0x34],ah
  4133b8:	xor    al,0x61
  4133ba:	xor    al,0x39
  4133bc:	arpl   WORD PTR [eax+edi*1],si
  4133bf:	arpl   WORD PTR ss:[ebp+0x31],sp
  4133c3:	xor    esi,DWORD PTR [ebx+esi*1]
  4133c6:	xor    BYTE PTR [eax],dh
  4133c8:	popa   
  4133c9:	xor    dh,BYTE PTR [ecx]
  4133cb:	xor    BYTE PTR [esi],dh
  4133cd:	popa   
  4133ce:	bound  esi,QWORD PTR fs:[esi]
  4133d1:	bound  esp,QWORD PTR [edx+eiz*2+0x34]
  4133d5:	xor    esi,DWORD PTR [ebx]
  4133d7:	xor    eax,0x65663039
  4133dc:	data16 cmp BYTE PTR [ecx+0x64],ah
  4133e0:	xor    eax,0x63333463
  4133e5:	bound  esp,QWORD PTR [ecx+0x38]
  4133e8:	xor    dh,BYTE PTR [edx]
  4133ea:	cmp    DWORD PTR [eax],esi
  4133ec:	arpl   WORD PTR fs:[ecx+edi*1],si
  4133f0:	xor    eax,0x66653033
  4133f5:	data16 cmp BYTE PTR fs:[esi],dh
  4133f9:	xor    eax,0x39643332
  4133fe:	xor    al,0x38
  413400:	xor    esp,DWORD PTR [ebx+0x30]
  413403:	xor    BYTE PTR [esi+0x34],ah
  413406:	xor    eax,0x34666138
  41340b:	cmp    BYTE PTR ss:[ecx],bh
  41340e:	xor    BYTE PTR [eax],dh
  413410:	xor    esi,DWORD PTR [esi]
  413412:	bound  esi,QWORD PTR [eax]
  413414:	xor    ah,BYTE PTR gs:[ebx+0x36]
  413418:	xor    DWORD PTR [eax+esi*1+0x37],esp
  41341c:	aaa    
  41341d:	fs aaa 
  41341f:	bound  sp,DWORD PTR [ecx+0x63]
  413423:	xor    al,0x36
  413425:	aaa    
  413426:	popa   
  413427:	xor    eax,0x62653630
  41342c:	popa   
  41342d:	xor    bh,BYTE PTR [ecx]
  41342f:	gs xor al,0x36
  413432:	aaa    
  413433:	popa   
  413434:	cmp    BYTE PTR [edi],dh
  413436:	xor    DWORD PTR [ecx],edi
  413438:	cmp    BYTE PTR [edx+0x30],ah
  41343b:	xor    eax,0x34376333
  413440:	cmp    DWORD PTR [ecx+0x61],esp
  413443:	xor    ah,BYTE PTR [ecx+0x34]
  413446:	xor    bh,BYTE PTR fs:[eax]
  413449:	xor    al,0x30
  41344b:	arpl   WORD PTR [edi],si
  41344d:	cmp    BYTE PTR [eiz*2+0x6436],dh
  413454:	push   ds
  413455:	add    DWORD PTR [eax],eax
  413457:	add    DWORD PTR [eax],eax
  413459:	push   esp
  41345a:	add    dl,BYTE PTR [esi]
  41345c:	push   edi
  41345d:	jb     0x4134c0
  41345f:	jo     0x4134af
  413461:	outs   dx,DWORD PTR ds:[esi]
  413462:	outs   dx,BYTE PTR ds:[esi]
  413463:	inc    ebp
  413464:	js     0x4134c9
  413466:	gs jo  0x4134dd
  413469:	imul   ebp,DWORD PTR [edi+0x6e],0x6f726854
  413470:	ja     0x4134e5
  413472:	add    DWORD PTR [ecx-0x7efffe9c],eax
  413478:	pop    esi
  413479:	inc    esp
  41347a:	popa   
  41347b:	je     0x4134de
  41347d:	inc    ebx
  41347e:	outs   dx,DWORD PTR ds:[esi]
  41347f:	ins    BYTE PTR es:[edi],dx
  413480:	ins    BYTE PTR es:[edi],dx
  413481:	arpl   WORD PTR gs:[edi+ebp*2+0x72],si
  413486:	push   esp
  413487:	gs jae 0x4134fe
  41348a:	jae    0x4134b8
  41348c:	and    BYTE PTR [eax+0x75],dl
  41348f:	bound  ebp,QWORD PTR [ecx+ebp*2+0x63]
  413493:	dec    ebx
  413494:	gs jns 0x4134d4
  413497:	xor    BYTE PTR [eax],dh
  413499:	xor    dh,BYTE PTR [eax+esi*1]
  41349c:	xor    BYTE PTR [eax],dh
  41349e:	xor    BYTE PTR [eax],dh
  4134a0:	xor    al,0x38
  4134a2:	xor    BYTE PTR [eax],dh
  4134a4:	xor    BYTE PTR [eax],dh
  4134a6:	xor    BYTE PTR [ecx],bh
  4134a8:	xor    al,0x30
  4134aa:	xor    BYTE PTR [eax],dh
  4134ac:	xor    BYTE PTR [eax],dh
  4134ae:	xor    BYTE PTR [eax],dh
  4134b0:	xor    BYTE PTR ss:[edx],dh
  4134b3:	xor    BYTE PTR [eax],dh
  4134b5:	xor    BYTE PTR [eax],dh
  4134b7:	xor    BYTE PTR [eax],dh
  4134b9:	xor    dh,BYTE PTR [eax+esi*1]
  4134bc:	xor    BYTE PTR [eax],dh
  4134be:	xor    BYTE PTR ds:0x34333532,dh
  4134c4:	xor    DWORD PTR [ebx],esi
  4134c6:	xor    DWORD PTR [eax],esi
  4134c8:	xor    BYTE PTR [eax],dh
  4134ca:	xor    al,0x30
  4134cc:	xor    BYTE PTR [eax],dh
  4134ce:	xor    BYTE PTR [eax],dh
  4134d0:	xor    DWORD PTR [eax],esi
  4134d2:	xor    BYTE PTR [eax],dh
  4134d4:	xor    DWORD PTR [eax],esi
  4134d6:	xor    BYTE PTR [eax],dh
  4134d8:	aaa    
  4134d9:	xor    DWORD PTR fs:[esi+0x61],esp
  4134dd:	xor    eax,0x61346337
  4134e2:	gs cmp DWORD PTR fs:[esi+0x30],esp
  4134e7:	popa   
  4134e8:	xor    esi,DWORD PTR [edx]
  4134ea:	cmp    BYTE PTR gs:[ecx+eiz*2],dh
  4134ee:	popa   
  4134ef:	xor    BYTE PTR [esi+0x61],ah
  4134f2:	gs data16 xor BYTE PTR fs:[ebp+eiz*2+0x39],ah
  4134f9:	cmp    BYTE PTR gs:[esi+0x64],ah
  4134fd:	ss popa 
  4134ff:	arpl   WORD PTR gs:[eax],di
  413502:	data16 cmp BYTE PTR [edi],dh
  413505:	bound  si,DWORD PTR [eax]
  413508:	xor    esi,DWORD PTR [edi]
  41350a:	ss arpl WORD PTR ss:[eax],di
  41350e:	xor    esi,DWORD PTR [ebx+eiz*2]
  413511:	cmp    DWORD PTR [ecx],edi
  413513:	cmp    DWORD PTR [edx],esi
  413515:	xor    DWORD PTR [ebp+0x62],esp
  413518:	xor    dh,BYTE PTR [ebx]
  41351a:	bound  esp,QWORD PTR [ebp+0x37]
  41351d:	cmp    DWORD PTR [ecx+0x64],esp
  413520:	cmp    DWORD PTR [ebp+esi*1+0x64],esp
  413524:	arpl   WORD PTR [ebx+0x31],sp
  413527:	fs cmp DWORD PTR fs:[ecx+0x64],esp
  41352c:	xor    dh,BYTE PTR [ebx]
  41352e:	xor    DWORD PTR ss:[ebx],esi
  413531:	xor    dh,BYTE PTR [ecx]
  413533:	xor    BYTE PTR [edx],dh
  413535:	cmp    DWORD PTR [eax],esi
  413537:	xor    BYTE PTR [edx+0x37],ah
  41353a:	xor    dh,BYTE PTR [ebx]
  41353c:	arpl   WORD PTR [esi+0x39],sp
  41353f:	cmp    BYTE PTR [eax],dh
  413541:	cmp    DWORD PTR ds:0x34636637,esi
  413547:	xor    DWORD PTR gs:[edi],esi
  41354a:	aaa    
  41354b:	xor    DWORD PTR [eax],esi
  41354d:	cmp    BYTE PTR [esi+0x63],ah
  413550:	xor    BYTE PTR ss:[edi],dh
  413553:	aaa    
  413554:	aaa    
  413555:	xor    al,0x66
  413557:	xor    bh,BYTE PTR [ecx]
  413559:	cmp    BYTE PTR gs:[ebx],dh
  41355c:	xor    dh,BYTE PTR [eax]
  41355e:	cmp    DWORD PTR gs:[edx],esi
  413561:	gs popa 
  413563:	xor    BYTE PTR ds:0x34656365,dh
  413569:	cmp    BYTE PTR gs:[edx],dh
  41356c:	xor    DWORD PTR [ebx+0x30],esp
  41356f:	popa   
  413570:	xor    eax,0x38656665
  413575:	xor    WORD PTR [esi],si
  413578:	xor    al,0x35
  41357a:	arpl   WORD PTR [ebx+eiz*2],si
  41357d:	xor    BYTE PTR [ebx+0x39],ah
  413580:	xor    esp,DWORD PTR [ebx+0x31]
  413583:	popa   
  413584:	bound  edi,QWORD PTR [ecx]
  413586:	cmp    DWORD PTR [edx],esi
  413588:	cmp    BYTE PTR ds:0x32323664,dh
  41358e:	arpl   WORD PTR [ecx+0x61],sp
  413591:	ss xor eax,0x64316332
  413597:	popaw  
  413599:	fs xor esp,DWORD PTR ss:[edi+esi*1+0x34]
  41359f:	xor    eax,0x32663664
  4135a4:	fs gs xor eax,0x65373166
  4135ab:	xor    eax,0x30666165
  4135b0:	data16 arpl WORD PTR [ecx+edi*1],si
  4135b4:	xor    esp,DWORD PTR ss:[edx+esi*1+0x36]
  4135b9:	xor    DWORD PTR [ebx+0x38],esp
  4135bc:	popa   
  4135bd:	xor    DWORD PTR [edx],esi
  4135bf:	xor    al,0x33
  4135c1:	ss xor eax,0x30323831
  4135c7:	ss arpl WORD PTR fs:[eax],si
  4135cb:	cmp    DWORD PTR [ebx],esi
  4135cd:	xor    esi,DWORD PTR [esp+esi*1]
  4135d0:	fs xor eax,0x39326461
  4135d6:	xor    eax,DWORD PTR [eax]
  4135d8:	add    BYTE PTR [ecx-0x7efffe8a],al
  4135de:	jo     0x41362d
  4135e0:	push   ebx
  4135e1:	cs push esp
  4135e3:	dec    esp
  4135e4:	dec    ebp
  4135e5:	cs push esp
  4135e7:	inc    ebp
  4135e8:	push   ebx
  4135e9:	push   esp
  4135ea:	cs push esp
  4135ec:	inc    ebp
  4135ed:	cs inc esp
  4135ef:	inc    ebx
  4135f0:	cs inc esp
  4135f2:	popa   
  4135f3:	je     0x413656
  4135f5:	inc    ebx
  4135f6:	outs   dx,DWORD PTR ds:[esi]
  4135f7:	ins    BYTE PTR es:[edi],dx
  4135f8:	ins    BYTE PTR es:[edi],dx
  4135f9:	arpl   WORD PTR gs:[edi+ebp*2+0x72],si
  4135fe:	push   esp
  4135ff:	gs jae 0x413676
  413602:	jae    0x413630
  413604:	and    BYTE PTR [eax+0x75],dl
  413607:	bound  ebp,QWORD PTR [ecx+ebp*2+0x63]
  41360b:	dec    ebx
  41360c:	gs jns 0x41364c
  41360f:	xor    BYTE PTR [eax],dh
  413611:	xor    dh,BYTE PTR [eax+esi*1]
  413614:	xor    BYTE PTR [eax],dh
  413616:	xor    BYTE PTR [eax],dh
  413618:	xor    al,0x38
  41361a:	xor    BYTE PTR [eax],dh
  41361c:	xor    BYTE PTR [eax],dh
  41361e:	xor    BYTE PTR [ecx],bh
  413620:	xor    al,0x30
  413622:	xor    BYTE PTR [eax],dh
  413624:	xor    BYTE PTR [eax],dh
  413626:	xor    BYTE PTR [eax],dh
  413628:	xor    BYTE PTR ss:[edx],dh
  41362b:	xor    BYTE PTR [eax],dh
  41362d:	xor    BYTE PTR [eax],dh
  41362f:	xor    BYTE PTR [eax],dh
  413631:	xor    dh,BYTE PTR [eax+esi*1]
  413634:	xor    BYTE PTR [eax],dh
  413636:	xor    BYTE PTR ds:0x34333532,dh
  41363c:	xor    DWORD PTR [ebx],esi
  41363e:	xor    DWORD PTR [eax],esi
  413640:	xor    BYTE PTR [eax],dh
  413642:	xor    al,0x30
  413644:	xor    BYTE PTR [eax],dh
  413646:	xor    BYTE PTR [eax],dh
  413648:	xor    DWORD PTR [eax],esi
  41364a:	xor    BYTE PTR [eax],dh
  41364c:	xor    DWORD PTR [eax],esi
  41364e:	xor    BYTE PTR [eax],dh
  413650:	aaa    
  413651:	xor    DWORD PTR fs:[esi+0x61],esp
  413655:	xor    eax,0x61346337
  41365a:	gs cmp DWORD PTR fs:[esi+0x30],esp
  41365f:	popa   
  413660:	xor    esi,DWORD PTR [edx]
  413662:	cmp    BYTE PTR gs:[ecx+eiz*2],dh
  413666:	popa   
  413667:	xor    BYTE PTR [esi+0x61],ah
  41366a:	gs data16 xor BYTE PTR fs:[ebp+eiz*2+0x39],ah
  413671:	cmp    BYTE PTR gs:[esi+0x64],ah
  413675:	ss popa 
  413677:	arpl   WORD PTR gs:[eax],di
  41367a:	data16 cmp BYTE PTR [edi],dh
  41367d:	bound  si,DWORD PTR [eax]
  413680:	xor    esi,DWORD PTR [edi]
  413682:	ss arpl WORD PTR ss:[eax],di
  413686:	xor    esi,DWORD PTR [ebx+eiz*2]
  413689:	cmp    DWORD PTR [ecx],edi
  41368b:	cmp    DWORD PTR [edx],esi
  41368d:	xor    DWORD PTR [ebp+0x62],esp
  413690:	xor    dh,BYTE PTR [ebx]
  413692:	bound  esp,QWORD PTR [ebp+0x37]
  413695:	cmp    DWORD PTR [ecx+0x64],esp
  413698:	cmp    DWORD PTR [ebp+esi*1+0x64],esp
  41369c:	arpl   WORD PTR [ebx+0x31],sp
  41369f:	fs cmp DWORD PTR fs:[ecx+0x64],esp
  4136a4:	xor    dh,BYTE PTR [ebx]
  4136a6:	xor    DWORD PTR ss:[ebx],esi
  4136a9:	xor    dh,BYTE PTR [ecx]
  4136ab:	xor    BYTE PTR [edx],dh
  4136ad:	cmp    DWORD PTR [eax],esi
  4136af:	xor    BYTE PTR [edx+0x37],ah
  4136b2:	xor    dh,BYTE PTR [ebx]
  4136b4:	arpl   WORD PTR [esi+0x39],sp
  4136b7:	cmp    BYTE PTR [eax],dh
  4136b9:	cmp    DWORD PTR ds:0x34636637,esi
  4136bf:	xor    DWORD PTR gs:[edi],esi
  4136c2:	aaa    
  4136c3:	xor    DWORD PTR [eax],esi
  4136c5:	cmp    BYTE PTR [esi+0x63],ah
  4136c8:	xor    BYTE PTR ss:[edi],dh
  4136cb:	aaa    
  4136cc:	aaa    
  4136cd:	xor    al,0x66
  4136cf:	xor    bh,BYTE PTR [ecx]
  4136d1:	cmp    BYTE PTR gs:[ebx],dh
  4136d4:	xor    dh,BYTE PTR [eax]
  4136d6:	cmp    DWORD PTR gs:[edx],esi
  4136d9:	gs popa 
  4136db:	xor    BYTE PTR ds:0x34656365,dh
  4136e1:	cmp    BYTE PTR gs:[edx],dh
  4136e4:	xor    DWORD PTR [ebx+0x30],esp
  4136e7:	popa   
  4136e8:	xor    eax,0x38656665
  4136ed:	xor    WORD PTR [esi],si
  4136f0:	xor    al,0x35
  4136f2:	arpl   WORD PTR [ebx+eiz*2],si
  4136f5:	xor    BYTE PTR [ebx+0x39],ah
  4136f8:	xor    esp,DWORD PTR [ebx+0x31]
  4136fb:	popa   
  4136fc:	bound  edi,QWORD PTR [ecx]
  4136fe:	cmp    DWORD PTR [edx],esi
  413700:	cmp    BYTE PTR ds:0x32323664,dh
  413706:	arpl   WORD PTR [ecx+0x61],sp
  413709:	ss xor eax,0x64316332
  41370f:	popaw  
  413711:	fs xor esp,DWORD PTR ss:[edi+esi*1+0x34]
  413717:	xor    eax,0x32663664
  41371c:	fs gs xor eax,0x65373166
  413723:	xor    eax,0x30666165
  413728:	data16 arpl WORD PTR [ecx+edi*1],si
  41372c:	xor    esp,DWORD PTR ss:[edx+esi*1+0x36]
  413731:	xor    DWORD PTR [ebx+0x38],esp
  413734:	popa   
  413735:	xor    DWORD PTR [edx],esi
  413737:	xor    al,0x33
  413739:	ss xor eax,0x30323831
  41373f:	ss arpl WORD PTR fs:[eax],si
  413743:	cmp    DWORD PTR [ebx],esi
  413745:	xor    esi,DWORD PTR [esp+esi*1]
  413748:	fs xor eax,0x39326461
  41374e:	xor    eax,DWORD PTR [eax]
  413750:	add    BYTE PTR [eax],cl
  413752:	add    DWORD PTR [eax],eax
  413754:	or     BYTE PTR [eax],al
	...
  41375e:	add    BYTE PTR [eax],al
  413760:	and    ebx,0x11
  413763:	push   eax
  413764:	add    BYTE PTR [eax],al
  413766:	add    BYTE PTR [eax],al
  413768:	add    al,BYTE PTR [eax]
  41376a:	add    BYTE PTR [eax],al
  41376c:	sbb    al,0x1
  41376e:	add    BYTE PTR [eax],al
  413770:	js     0x4137a9
  413772:	add    DWORD PTR [eax],eax
  413774:	js     0x41378f
  413776:	add    DWORD PTR [eax],eax
  413778:	push   edx
  413779:	push   ebx
  41377a:	inc    esp
  41377b:	push   ebx
  41377c:	push   esi
  41377d:	loopne 0x41378e
  41377f:	cmp    ecx,ebx
  413781:	push   0xffffff8e
  413783:	dec    ebp
  413784:	lahf   
  413785:	dec    edx
  413786:	xchg   edx,eax
  413787:	pop    ebp
  413788:	pop    ds
  413789:	inc    eax
  41378a:	jl     0x413747
  41378c:	add    DWORD PTR [eax],eax
  41378e:	add    BYTE PTR [eax],al
  413790:	data16 cmp bl,BYTE PTR [edx+eiz*2+0x69]
  413795:	outs   dx,BYTE PTR ds:[esi]
  413796:	popa   
  413797:	jb     0x413802
  413799:	gs jae 0x4137f8
  41379c:	dec    ecx
  41379d:	outs   dx,BYTE PTR ds:[esi]
  41379e:	je     0x413805
  4137a0:	jb     0x41380f
  4137a2:	gs imul esp,DWORD PTR fs:[ecx+0x74],0x73765c65
  4137ab:	gs je  0x41380a
  4137ae:	fs popa 
  4137b0:	je     0x413813
  4137b2:	arpl   WORD PTR [edi+0x6c],bp
  4137b5:	ins    BYTE PTR es:[edi],dx
  4137b6:	arpl   WORD PTR gs:[edi+ebp*2+0x72],si
  4137bb:	push   0x2e74736f
  4137c0:	arpl   WORD PTR [ebx+0x70],si
  4137c3:	jb     0x413834
  4137c5:	push   0x5f
  4137c7:	pop    edi
  4137c8:	xor    al,0x37
  4137ca:	xor    esi,DWORD PTR ds:0x30313234
  4137d0:	pop    esp
  4137d1:	outs   dx,DWORD PTR ds:[esi]
  4137d2:	bound  ebp,QWORD PTR [edx+0x72]
  4137d5:	pop    esp
  4137d6:	js     0x413810
  4137d8:	ss pop esp
  4137da:	ins    DWORD PTR es:[edi],dx
  4137db:	je     0x413851
  4137dd:	popa   
  4137de:	cs jo  0x413845
  4137e1:	bound  eax,QWORD PTR [eax]
	...
  413893:	add    BYTE PTR [eax+edi*1+0x1],bh
  41389a:	add    BYTE PTR [eax],al
  41389c:	add    BYTE PTR [eax],al
  41389e:	add    BYTE PTR [eax],al
  4138a0:	fidivr WORD PTR [eax]
  4138a2:	add    DWORD PTR [eax],eax
  4138a4:	add    BYTE PTR [eax],ah
	...
  4138ba:	add    BYTE PTR [eax],al
  4138bc:	sar    BYTE PTR [eax],1
  4138be:	add    DWORD PTR [eax],eax
	...
  4138d0:	add    BYTE PTR [eax],al
  4138d2:	pop    edi
  4138d3:	inc    ebx
  4138d4:	outs   dx,DWORD PTR ds:[esi]
  4138d5:	jb     0x41391c
  4138d7:	js     0x41393e
  4138d9:	dec    ebp
  4138da:	popa   
  4138db:	imul   ebp,DWORD PTR [esi+0x0],0x6f63736d
  4138e2:	jb     0x413949
  4138e4:	gs cs fs ins BYTE PTR es:[edi],dx
  4138e8:	ins    BYTE PTR es:[edi],dx
  4138e9:	add    BYTE PTR [eax],al
  4138eb:	add    BYTE PTR [eax],al
  4138ed:	add    bh,bh
  4138ef:	and    eax,0x402000
