
a5d76d29280af398aeb406063676620060a5d0cb28b2d33d917f41a5c06e4d84.exe:     file format pei-i386


Disassembly of section .text:

00402000 <.text>:
  402000:	jo     0x402065
  402002:	add    BYTE PTR [eax],al
  402004:	add    BYTE PTR [eax],al
  402006:	add    BYTE PTR [eax],al
  402008:	dec    eax
  402009:	add    BYTE PTR [eax],al
  40200b:	add    BYTE PTR [edx],al
  40200d:	add    BYTE PTR ds:0x35f800,al
  402013:	add    BYTE PTR [eax],cl
  402015:	sub    al,0x0
  402017:	add    BYTE PTR [ebx],al
  402019:	add    BYTE PTR [edx],al
  40201b:	add    BYTE PTR [edi],bh
  40201d:	add    BYTE PTR [eax],al
  40201f:	push   es
  402020:	inc    eax
  402021:	xor    eax,0xb80000
	...
  40204e:	add    BYTE PTR [eax],al
  402050:	push   edx
  402051:	add    dh,BYTE PTR [edx+0x1]
  402054:	add    BYTE PTR [eax],al
  402056:	jo     0x4020ca
  402058:	add    eax,0x28700000
  40205d:	add    al,BYTE PTR [eax]
  40205f:	add    BYTE PTR [esi],al
  402061:	add    BYTE PTR [eax],al
  402063:	add    BYTE PTR [edx],ch
  402065:	add    BYTE PTR [eax],al
  402067:	add    BYTE PTR [ebx],al
  402069:	xor    BYTE PTR [edx],al
  40206b:	add    BYTE PTR [ecx+0x0],al
  40206e:	add    BYTE PTR [eax],al
  402070:	add    BYTE PTR [eax],al
  402072:	add    BYTE PTR [eax],al
  402074:	add    ch,BYTE PTR [eax]
  402076:	adc    al,BYTE PTR [eax]
  402078:	add    BYTE PTR [edx],cl
  40207a:	add    BYTE PTR [eax],al
  40207c:	add    al,BYTE PTR [ebx]
  40207e:	jge    0x402081
  402080:	add    BYTE PTR [eax],al
  402082:	add    al,0x2
  402084:	add    al,0x7d
  402086:	add    al,BYTE PTR [eax]
  402088:	add    BYTE PTR [edx+eax*1],al
  40208b:	sub    BYTE PTR [edx],bl
  40208d:	add    BYTE PTR [eax],al
  40208f:	push   es
  402090:	jge    0x402095
  402092:	add    BYTE PTR [eax],al
  402094:	add    al,0x2
  402096:	jnp    0x40209b
  402098:	add    BYTE PTR [eax],al
  40209a:	add    al,0x28
  40209c:	adc    eax,DWORD PTR [eax]
  40209e:	add    BYTE PTR [edx],cl
  4020a0:	add    BYTE PTR [edx],al
  4020a2:	jnp    0x4020a5
  4020a4:	add    BYTE PTR [eax],al
  4020a6:	add    al,0x28
  4020a8:	adc    eax,DWORD PTR [eax]
  4020aa:	add    BYTE PTR [esi],al
  4020ac:	add    BYTE PTR [eax],ch
  4020ae:	push   ss
  4020af:	add    BYTE PTR [eax],al
  4020b1:	push   es
  4020b2:	add    BYTE PTR [eax],al
  4020b4:	sub    bh,BYTE PTR [esi+0x172800]
  4020ba:	add    BYTE PTR [esi],al
  4020bc:	add    BYTE PTR [edx],al
  4020be:	jnp    0x4020c2
  4020c0:	add    BYTE PTR [eax],al
  4020c2:	add    al,0x28
  4020c4:	adc    eax,DWORD PTR [eax]
  4020c6:	add    BYTE PTR [esi],al
  4020c8:	add    BYTE PTR [edx],al
  4020ca:	jnp    0x4020cf
  4020cc:	add    BYTE PTR [eax],al
  4020ce:	add    al,0x28
  4020d0:	adc    al,0x0
  4020d2:	add    BYTE PTR [edx],cl
  4020d4:	add    BYTE PTR [edx],al
  4020d6:	pop    ss
  4020d7:	outs   dx,DWORD PTR ds:[esi]
  4020d8:	add    al,0x0
  4020da:	add    BYTE PTR [esi],al
  4020dc:	add    BYTE PTR [edx],al
  4020de:	sub    BYTE PTR ds:0xa0000,dl
  4020e4:	sub    al,BYTE PTR [eax]
  4020e6:	add    BYTE PTR [eax],al
  4020e8:	adc    esi,DWORD PTR [eax]
  4020ea:	add    al,BYTE PTR [eax]
  4020ec:	pop    ds
  4020ed:	add    BYTE PTR [eax],al
  4020ef:	add    BYTE PTR [ecx],al
  4020f1:	add    BYTE PTR [eax],al
  4020f3:	adc    DWORD PTR [eax],eax
  4020f5:	add    bh,BYTE PTR [ebx+0x4]
  4020f8:	add    BYTE PTR [eax],al
  4020fa:	add    al,0xa
  4020fc:	push   es
  4020fd:	sub    eax,0x16030013
  402102:	inc    BYTE PTR [ecx]
  402104:	or     al,BYTE PTR [esi]
  402106:	sub    eax,0x2000002
  40210b:	pop    ss
  40210c:	jge    0x402112
  40210e:	add    BYTE PTR [eax],al
  402110:	add    al,0x0
  402112:	sub    dh,BYTE PTR [edx+0x2]
  402115:	sub    BYTE PTR [edx],dl
  402117:	add    BYTE PTR [eax],al
  402119:	or     al,BYTE PTR [eax]
  40211b:	add    BYTE PTR [edx],al
  40211d:	inc    BYTE PTR [esi]
  40211f:	or     al,BYTE PTR [eax]
  402121:	add    BYTE PTR [esi],al
  402123:	jae    0x40212a
  402125:	add    BYTE PTR [eax],al
  402127:	push   es
  402128:	sub    BYTE PTR [ebx],cl
  40212a:	add    BYTE PTR [eax],al
  40212c:	push   es
  40212d:	add    BYTE PTR [eax],al
  40212f:	sub    ah,BYTE PTR [esi]
  402131:	add    BYTE PTR [ebx],al
  402133:	sub    BYTE PTR [esi],dl
  402135:	add    BYTE PTR [eax],al
  402137:	or     al,BYTE PTR [eax]
  402139:	sub    bh,BYTE PTR [edx]
  40213b:	add    BYTE PTR [esi+0x5],bh
  40213e:	add    BYTE PTR [eax],al
  402140:	add    al,0x2
  402142:	outs   dx,DWORD PTR ds:[esi]
  402143:	push   ds
  402144:	add    BYTE PTR [eax],al
  402146:	push   es
  402147:	add    BYTE PTR [edx],ch
  402149:	cmp    al,BYTE PTR [eax]
  40214b:	jle    0x402152
  40214d:	add    BYTE PTR [eax],al
  40214f:	add    al,0x2
  402151:	outs   dx,DWORD PTR ds:[esi]
  402152:	pop    ds
  402153:	add    BYTE PTR [eax],al
  402155:	push   es
  402156:	add    BYTE PTR [edx],ch
  402158:	adc    esi,DWORD PTR [eax]
  40215a:	add    DWORD PTR [eax],eax
  40215c:	adc    BYTE PTR [eax],al
  40215e:	add    BYTE PTR [eax],al
  402160:	add    al,BYTE PTR [eax]
  402162:	add    BYTE PTR [ecx],dl
  402164:	add    BYTE PTR [esi+0x5],bh
  402167:	add    BYTE PTR [eax],al
  402169:	add    al,0x6f
  40216b:	and    DWORD PTR [eax],eax
  40216d:	add    BYTE PTR [esi],al
  40216f:	or     ch,BYTE PTR [ebx]
  402171:	add    BYTE PTR [esi],al
  402173:	sub    bh,BYTE PTR [edx]
  402175:	add    BYTE PTR [esi+0x5],bh
  402178:	add    BYTE PTR [eax],al
  40217a:	add    al,0x2
  40217c:	outs   dx,DWORD PTR ds:[esi]
  40217d:	and    al,BYTE PTR [eax]
  40217f:	add    BYTE PTR [esi],al
  402181:	add    BYTE PTR [edx],ch
  402183:	add    BYTE PTR [ebx],dl
  402185:	xor    BYTE PTR [ecx],al
  402187:	add    BYTE PTR [eax],dl
  402189:	add    BYTE PTR [eax],al
  40218b:	add    BYTE PTR [ebx],al
  40218d:	add    BYTE PTR [eax],al
  40218f:	adc    DWORD PTR [eax],eax
  402191:	jle    0x402198
  402193:	add    BYTE PTR [eax],al
  402195:	add    al,0x6f
  402197:	and    eax,DWORD PTR [eax]
  402199:	add    BYTE PTR [esi],al
  40219b:	or     ch,BYTE PTR [ebx]
  40219d:	add    BYTE PTR [esi],al
  40219f:	sub    bh,BYTE PTR [edx]
  4021a1:	add    BYTE PTR [esi+0x5],bh
  4021a4:	add    BYTE PTR [eax],al
  4021a6:	add    al,0x2
  4021a8:	outs   dx,DWORD PTR ds:[esi]
  4021a9:	and    al,0x0
  4021ab:	add    BYTE PTR [esi],al
  4021ad:	add    BYTE PTR [edx],ch
  4021af:	cmp    al,BYTE PTR [eax]
  4021b1:	jle    0x4021b8
  4021b3:	add    BYTE PTR [eax],al
  4021b5:	add    al,0x2
  4021b7:	outs   dx,DWORD PTR ds:[esi]
  4021b8:	xor    eax,0x60000
  4021bd:	sub    bh,BYTE PTR [esi]
  4021bf:	add    BYTE PTR [esi+0x5],bh
  4021c2:	add    BYTE PTR [eax],al
  4021c4:	add    al,0x2
  4021c6:	add    ebp,DWORD PTR [edi+0x36]
  4021c9:	add    BYTE PTR [eax],al
  4021cb:	push   es
  4021cc:	add    BYTE PTR [edx],ch
  4021ce:	cmp    al,BYTE PTR [eax]
  4021d0:	jle    0x4021d7
  4021d2:	add    BYTE PTR [eax],al
  4021d4:	add    al,0x2
  4021d6:	outs   dx,DWORD PTR ds:[esi]
  4021d7:	aaa    
  4021d8:	add    BYTE PTR [eax],al
  4021da:	push   es
  4021db:	add    BYTE PTR [edx],ch
  4021dd:	add    BYTE PTR ds:[esi+0x5],bh
  4021e1:	add    BYTE PTR [eax],al
  4021e3:	add    al,0x2
  4021e5:	add    ebp,DWORD PTR [edi+0x38]
  4021e8:	add    BYTE PTR [eax],al
  4021ea:	push   es
  4021eb:	add    BYTE PTR [edx],ch
  4021ed:	dec    esi
  4021ee:	add    BYTE PTR [esi+0x5],bh
  4021f1:	add    BYTE PTR [eax],al
  4021f3:	add    al,0x2
  4021f5:	outs   dx,DWORD PTR ds:[esi]
  4021f6:	pop    ss
  4021f7:	add    BYTE PTR [eax],al
  4021f9:	or     ch,BYTE PTR [edi+0x37]
  4021fc:	add    BYTE PTR [eax],al
  4021fe:	push   es
  4021ff:	add    BYTE PTR [edx],ch
  402201:	add    BYTE PTR ss:[esi+0x5],bh
  402205:	add    BYTE PTR [eax],al
  402207:	add    al,0x6f
  402209:	sub    al,BYTE PTR [eax]
  40220b:	add    BYTE PTR [esi],al
  40220d:	add    BYTE PTR [edx],ch
  40220f:	add    BYTE PTR ss:[esi+0x5],bh
  402213:	add    BYTE PTR [eax],al
  402215:	add    al,0x6f
  402217:	sub    eax,DWORD PTR [eax]
  402219:	add    BYTE PTR [esi],al
  40221b:	add    BYTE PTR [edx],ch
  40221d:	add    BYTE PTR ss:[esi+0x5],bh
  402221:	add    BYTE PTR [eax],al
  402223:	add    al,0x6f
  402225:	sub    al,0x0
  402227:	add    BYTE PTR [esi],al
  402229:	add    BYTE PTR [edx],ch
  40222b:	add    BYTE PTR ss:[esi+0x5],bh
  40222f:	add    BYTE PTR [eax],al
  402231:	add    al,0x6f
  402233:	sub    eax,0x60000
  402238:	sub    al,BYTE PTR [eax]
  40223a:	add    BYTE PTR [eax],al
  40223c:	adc    esi,DWORD PTR [eax]
  40223e:	add    DWORD PTR [eax],eax
  402240:	adc    BYTE PTR [eax],al
  402242:	add    BYTE PTR [eax],al
  402244:	add    al,0x0
  402246:	add    BYTE PTR [ecx],dl
  402248:	add    BYTE PTR [esi+0x5],bh
  40224b:	add    BYTE PTR [eax],al
  40224d:	add    al,0x6f
  40224f:	add    BYTE PTR cs:[eax],al
  402252:	push   es
  402253:	or     ch,BYTE PTR [ebx]
  402255:	add    BYTE PTR [esi],al
  402257:	sub    dh,BYTE PTR [esi]
  402259:	add    BYTE PTR [esi+0x5],bh
  40225c:	add    BYTE PTR [eax],al
  40225e:	add    al,0x6f
  402260:	xor    al,BYTE PTR [eax]
  402262:	add    BYTE PTR [esi],al
  402264:	add    BYTE PTR [edx],ch
  402266:	add    BYTE PTR ss:[esi+0x5],bh
  40226a:	add    BYTE PTR [eax],al
  40226c:	add    al,0x6f
  40226e:	daa    
  40226f:	add    BYTE PTR [eax],al
  402271:	push   es
  402272:	add    BYTE PTR [edx],ch
  402274:	cs jae 0x402297
  402277:	add    BYTE PTR [eax],al
  402279:	push   es
  40227a:	add    BYTE PTR ds:0x2a040000,0x13
  402281:	xor    BYTE PTR [ebx],al
  402283:	add    BYTE PTR [eax],dh
  402285:	add    BYTE PTR [eax],al
  402287:	add    BYTE PTR ds:0x2110000,al
  40228d:	jnp    0x402295
  40228f:	add    BYTE PTR [eax],al
  402291:	add    al,0xa
  402293:	push   es
  402294:	or     eax,DWORD PTR [edi]
  402296:	add    ebp,DWORD PTR [eax]
  402298:	sbb    BYTE PTR [eax],al
  40229a:	add    BYTE PTR [edx],cl
  40229c:	je     0x4022a1
  40229e:	add    BYTE PTR [eax],al
  4022a0:	add    cl,BYTE PTR [edx+eax*1]
  4022a3:	jl     0x4022ab
  4022a5:	add    BYTE PTR [eax],al
  4022a7:	add    al,0x8
  4022a9:	pop    es
  4022aa:	sub    BYTE PTR [ecx],al
  4022ac:	add    BYTE PTR [eax],al
  4022ae:	sub    ecx,DWORD PTR [edx]
  4022b0:	push   es
  4022b1:	pop    es
  4022b2:	inc    BYTE PTR [ecx]
  4022b4:	push   ss
  4022b5:	inc    BYTE PTR [ecx]
  4022b7:	or     eax,0x2ad82d09
  4022bc:	adc    esi,DWORD PTR [eax]
  4022be:	add    eax,DWORD PTR [eax]
  4022c0:	xor    BYTE PTR [eax],al
  4022c2:	add    BYTE PTR [eax],al
  4022c4:	add    eax,0x2110000
  4022c9:	jnp    0x4022d1
  4022cb:	add    BYTE PTR [eax],al
  4022cd:	add    al,0xa
  4022cf:	push   es
  4022d0:	or     eax,DWORD PTR [edi]
  4022d2:	add    ebp,DWORD PTR [eax]
  4022d4:	sbb    al,BYTE PTR [eax]
  4022d6:	add    BYTE PTR [edx],cl
  4022d8:	je     0x4022dd
  4022da:	add    BYTE PTR [eax],al
  4022dc:	add    cl,BYTE PTR [edx+eax*1]
  4022df:	jl     0x4022e7
  4022e1:	add    BYTE PTR [eax],al
  4022e3:	add    al,0x8
  4022e5:	pop    es
  4022e6:	sub    BYTE PTR [ecx],al
  4022e8:	add    BYTE PTR [eax],al
  4022ea:	sub    ecx,DWORD PTR [edx]
  4022ec:	push   es
  4022ed:	pop    es
  4022ee:	inc    BYTE PTR [ecx]
  4022f0:	push   ss
  4022f1:	inc    BYTE PTR [ecx]
  4022f3:	or     eax,0x2ad82d09
  4022f8:	cmps   BYTE PTR ds:[esi],BYTE PTR es:[edi]
  4022f9:	add    dh,BYTE PTR [ebx+0x12]
  4022fc:	add    BYTE PTR [eax],al
  4022fe:	or     bh,BYTE PTR [ebp+0xa]
  402301:	add    BYTE PTR [eax],al
  402303:	add    al,0x2
  402305:	jae    0x402322
  402307:	add    BYTE PTR [eax],al
  402309:	or     bh,BYTE PTR [ebp+0xb]
  40230c:	add    BYTE PTR [eax],al
  40230e:	add    al,0x2
  402310:	sub    BYTE PTR [edx],dl
  402312:	add    BYTE PTR [eax],al
  402314:	or     al,BYTE PTR [eax]
  402316:	add    BYTE PTR [edx],al
  402318:	pop    ds
  402319:	sub    BYTE PTR fs:[edx],ah
  40231c:	add    BYTE PTR [eax],al
  40231e:	push   es
  40231f:	add    BYTE PTR [eax],al
  402321:	sub    al,BYTE PTR [eax]
  402323:	add    BYTE PTR [ebx],dl
  402325:	xor    BYTE PTR [ecx],al
  402327:	add    BYTE PTR [ebx],cl
  402329:	add    BYTE PTR [eax],al
  40232b:	add    BYTE PTR [edx],al
  40232d:	add    BYTE PTR [eax],al
  40232f:	adc    DWORD PTR [edx],eax
  402331:	jnp    0x402340
  402333:	add    BYTE PTR [eax],al
  402335:	add    al,0xa
  402337:	sub    eax,DWORD PTR [eax]
  402339:	push   es
  40233a:	sub    ah,BYTE PTR [edx]
  40233c:	add    al,BYTE PTR [ebx]
  40233e:	jge    0x40234d
  402340:	add    BYTE PTR [eax],al
  402342:	add    al,0x2a
  402344:	adc    esi,DWORD PTR [eax]
  402346:	add    DWORD PTR [eax],eax
  402348:	or     al,0x0
  40234a:	add    BYTE PTR [eax],al
  40234c:	add    eax,DWORD PTR [eax]
  40234e:	add    BYTE PTR [ecx],dl
  402350:	add    BYTE PTR [edx],al
  402352:	jnp    0x40235c
  402354:	add    BYTE PTR [eax],al
  402356:	add    al,0xa
  402358:	sub    eax,DWORD PTR [eax]
  40235a:	push   es
  40235b:	sub    bl,BYTE PTR [ebx]
  40235d:	xor    BYTE PTR [edx],al
  40235f:	add    BYTE PTR [eax+0x0],ch
  402362:	add    BYTE PTR [eax],al
  402364:	push   es
  402365:	add    BYTE PTR [eax],al
  402367:	adc    DWORD PTR [eax],eax
  402369:	add    al,BYTE PTR [ebx]
  40236b:	jge    0x402375
  40236d:	add    BYTE PTR [eax],al
  40236f:	add    al,0x16
  402371:	or     al,BYTE PTR [edx]
  402373:	jnp    0x40237f
  402375:	add    BYTE PTR [eax],al
  402377:	add    al,0x25
  402379:	or     edx,DWORD PTR [edx]
  40237b:	add    BYTE PTR [eax],ch
  40237d:	sbb    eax,0xa0000
  402382:	add    BYTE PTR [edx],al
  402384:	jnp    0x40238d
  402386:	add    BYTE PTR [eax],al
  402388:	add    al,0x14
  40238a:	inc    BYTE PTR [ecx]
  40238c:	or     al,0x8
  40238e:	sub    eax,0x28020009
  402393:	daa    
  402394:	add    BYTE PTR [eax],al
  402396:	push   es
  402397:	add    BYTE PTR [eax],al
  402399:	add    bh,BYTE PTR [ebx+0x8]
  40239c:	add    BYTE PTR [eax],al
  40239e:	add    al,0x28
  4023a0:	push   ds
  4023a1:	add    BYTE PTR [eax],al
  4023a3:	or     ch,BYTE PTR [eax]
  4023a5:	pop    ds
  4023a6:	add    BYTE PTR [eax],al
  4023a8:	or     ah,BYTE PTR [esi]
  4023aa:	add    al,BYTE PTR [edx]
  4023ac:	jnp    0x4023b6
  4023ae:	add    BYTE PTR [eax],al
  4023b0:	add    al,0x73
  4023b2:	and    BYTE PTR [eax],al
  4023b4:	add    BYTE PTR [edx],cl
  4023b6:	jge    0x4023bf
  4023b8:	add    BYTE PTR [eax],al
  4023ba:	add    al,0x0
  4023bc:	ficom  WORD PTR [eax]
  4023be:	push   es
  4023bf:	push   ss
  4023c0:	inc    BYTE PTR [ecx]
  4023c2:	or     al,0x8
  4023c4:	sub    eax,0x14280707
  4023c9:	add    BYTE PTR [eax],al
  4023cb:	or     al,BYTE PTR [eax]
  4023cd:	fadd   QWORD PTR [eax]
  4023cf:	sub    al,BYTE PTR [ecx]
  4023d1:	adc    BYTE PTR [eax],al
  4023d3:	add    BYTE PTR [edx],al
  4023d5:	add    BYTE PTR [edx],cl
  4023d7:	add    BYTE PTR [esi+edx*2+0x0],cl
  4023db:	adc    BYTE PTR [eax],al
  4023dd:	add    BYTE PTR [eax],al
  4023df:	add    BYTE PTR [ebx],dl
  4023e1:	xor    BYTE PTR [ecx],al
  4023e3:	add    BYTE PTR [ebx],cl
  4023e5:	add    BYTE PTR [eax],al
  4023e7:	add    BYTE PTR [edi],al
  4023e9:	add    BYTE PTR [eax],al
  4023eb:	adc    DWORD PTR [edx],eax
  4023ed:	jnp    0x4023fd
  4023ef:	add    BYTE PTR [eax],al
  4023f1:	add    al,0xa
  4023f3:	sub    eax,DWORD PTR [eax]
  4023f5:	push   es
  4023f6:	sub    ah,BYTE PTR [edx]
  4023f8:	add    al,BYTE PTR [ebx]
  4023fa:	jge    0x40240a
  4023fc:	add    BYTE PTR [eax],al
  4023fe:	add    al,0x2a
  402400:	sbb    esi,DWORD PTR [eax]
  402402:	add    al,BYTE PTR [eax]
  402404:	push   edi
  402405:	add    BYTE PTR [eax],al
  402407:	add    BYTE PTR [esi],al
  402409:	add    BYTE PTR [eax],al
  40240b:	adc    DWORD PTR [eax],eax
  40240d:	push   ss
  40240e:	or     al,BYTE PTR [edx]
  402410:	jnp    0x40241c
  402412:	add    BYTE PTR [eax],al
  402414:	add    al,0x25
  402416:	or     edx,DWORD PTR [edx]
  402418:	add    BYTE PTR [eax],ch
  40241a:	sbb    eax,0xa0000
  40241f:	add    BYTE PTR [edx],al
  402421:	jnp    0x40242a
  402423:	add    BYTE PTR [eax],al
  402425:	add    al,0x14
  402427:	inc    BYTE PTR [ecx]
  402429:	or     al,0x8
  40242b:	sub    eax,0x7b020021
  402430:	pop    es
  402431:	add    BYTE PTR [eax],al
  402433:	add    al,0x6f
  402435:	and    DWORD PTR [eax],eax
  402437:	add    BYTE PTR [edx],cl
  402439:	add    BYTE PTR [edx],al
  40243b:	jnp    0x402444
  40243d:	add    BYTE PTR [eax],al
  40243f:	add    al,0x6f
  402441:	and    al,BYTE PTR [eax]
  402443:	add    BYTE PTR [edx],cl
  402445:	add    BYTE PTR [edx],al
  402447:	adc    al,0x7d
  402449:	pop    es
  40244a:	add    BYTE PTR [eax],al
  40244c:	add    al,0x0
  40244e:	add    dh,bl
  402450:	adc    BYTE PTR [esi],al
  402452:	push   ss
  402453:	inc    BYTE PTR [ecx]
  402455:	or     al,0x8
  402457:	sub    eax,0x14280707
  40245c:	add    BYTE PTR [eax],al
  40245e:	or     al,BYTE PTR [eax]
  402460:	fadd   QWORD PTR [eax]
  402462:	sub    al,BYTE PTR [eax]
  402464:	add    DWORD PTR [eax],edx
  402466:	add    BYTE PTR [eax],al
  402468:	add    al,BYTE PTR [eax]
  40246a:	add    eax,DWORD PTR [eax]
  40246c:	inc    edx
  40246d:	inc    ebp
  40246e:	add    BYTE PTR [eax],dl
  402470:	add    BYTE PTR [eax],al
  402472:	add    BYTE PTR [eax],al
  402474:	adc    esi,DWORD PTR [eax]
  402476:	add    DWORD PTR [eax],eax
  402478:	adc    BYTE PTR [eax],al
  40247a:	add    BYTE PTR [eax],al
  40247c:	add    al,BYTE PTR [eax]
  40247e:	add    BYTE PTR [ecx],dl
  402480:	add    BYTE PTR [esi+0x9],bh
  402483:	add    BYTE PTR [eax],al
  402485:	add    al,0x7b
  402487:	adc    DWORD PTR [eax],eax
  402489:	add    BYTE PTR [edx+ecx*1],al
  40248c:	sub    eax,DWORD PTR [eax]
  40248e:	push   es
  40248f:	sub    dl,BYTE PTR [ebx]
  402491:	xor    BYTE PTR [ebx],al
  402493:	add    BYTE PTR [eax+0x0],dl
  402496:	add    BYTE PTR [eax],al
  402498:	or     BYTE PTR [eax],al
  40249a:	add    BYTE PTR [ecx],dl
  40249c:	add    BYTE PTR [eax],ch
  40249e:	and    eax,DWORD PTR [eax]
  4024a0:	add    BYTE PTR [edx],cl
  4024a2:	or     bh,BYTE PTR [esi+0x9]
  4024a5:	add    BYTE PTR [eax],al
  4024a7:	add    al,0x7b
  4024a9:	adc    al,BYTE PTR [eax]
  4024ab:	add    BYTE PTR [esi+eax*1],al
  4024ae:	outs   dx,DWORD PTR ds:[esi]
  4024af:	and    al,0x0
  4024b1:	add    BYTE PTR [edx],cl
  4024b3:	push   ss
  4024b4:	inc    BYTE PTR [ecx]
  4024b6:	or     eax,0x7e132d09
  4024bb:	or     DWORD PTR [eax],eax
  4024bd:	add    BYTE PTR [ebx+edi*2],al
  4024c0:	adc    al,BYTE PTR [eax]
  4024c2:	add    BYTE PTR [esi+eax*1],al
  4024c5:	outs   dx,DWORD PTR ds:[esi]
  4024c6:	and    eax,0xc0a0000
  4024cb:	sub    ebx,DWORD PTR ds:0x3b7300
  4024d1:	add    BYTE PTR [esi],al
  4024d3:	or     edi,DWORD PTR [esi+0x9]
  4024d6:	add    BYTE PTR [eax],al
  4024d8:	add    al,0x7b
  4024da:	adc    al,BYTE PTR [eax]
  4024dc:	add    BYTE PTR [esi+eax*1],al
  4024df:	pop    es
  4024e0:	outs   dx,DWORD PTR ds:[esi]
  4024e1:	add    BYTE PTR es:[eax],al
  4024e4:	or     al,BYTE PTR [eax]
  4024e6:	pop    es
  4024e7:	or     al,0x2b
  4024e9:	add    BYTE PTR [eax],cl
  4024eb:	sub    bh,BYTE PTR [edx]
  4024ed:	add    BYTE PTR [edx],al
  4024ef:	sub    BYTE PTR [ecx],ch
  4024f1:	add    BYTE PTR [eax],al
  4024f3:	push   es
  4024f4:	outs   dx,DWORD PTR ds:[esi]
  4024f5:	cmp    al,0x0
  4024f7:	add    BYTE PTR [esi],al
  4024f9:	add    BYTE PTR [edx],ch
  4024fb:	cmp    al,BYTE PTR [eax]
  4024fd:	add    ch,BYTE PTR [eax]
  4024ff:	sub    DWORD PTR [eax],eax
  402501:	add    BYTE PTR [esi],al
  402503:	outs   dx,DWORD PTR ds:[esi]
  402504:	cmp    eax,0x60000
  402509:	sub    al,BYTE PTR [eax]
  40250b:	add    BYTE PTR [ebx],bl
  40250d:	xor    BYTE PTR [ebx],al
  40250f:	add    BYTE PTR [eax+eax*1+0x90000],dl
  402516:	add    BYTE PTR [ecx],dl
  402518:	add    BYTE PTR [esi+0x9],bh
  40251b:	add    BYTE PTR [eax],al
  40251d:	add    al,0x25
  40251f:	jnp    0x402532
  402521:	add    BYTE PTR [eax],al
  402523:	add    al,0x17
  402525:	pop    eax
  402526:	jge    0x402539
  402528:	add    BYTE PTR [eax],al
  40252a:	add    al,0x16
  40252c:	or     eax,DWORD PTR [edx]
  40252e:	jnp    0x40253a
  402530:	add    BYTE PTR [eax],al
  402532:	add    al,0x25
  402534:	or     al,0x12
  402536:	add    DWORD PTR [eax],ebp
  402538:	sbb    eax,0xa0000
  40253d:	add    BYTE PTR [eax],al
  40253f:	jle    0x40254a
  402541:	add    BYTE PTR [eax],al
  402543:	add    al,0x7b
  402545:	adc    al,BYTE PTR [eax]
  402547:	add    BYTE PTR [edi+ebp*2],al
  40254a:	daa    
  40254b:	add    BYTE PTR [eax],al
  40254d:	or     ch,BYTE PTR [edi+0x28]
  402550:	add    BYTE PTR [eax],al
  402552:	or     cl,BYTE PTR ds:0x312202b
  402558:	sub    BYTE PTR [ecx],ch
  40255a:	add    BYTE PTR [eax],al
  40255c:	or     cl,BYTE PTR [edx]
  40255e:	add    BYTE PTR [esi+0x9],bh
  402561:	add    BYTE PTR [eax],al
  402563:	add    al,0x7b
  402565:	adc    al,BYTE PTR [eax]
  402567:	add    BYTE PTR [esi+eax*1],al
  40256a:	outs   dx,DWORD PTR ds:[esi]
  40256b:	and    eax,0x6f0a0000
  402570:	add    BYTE PTR ds:[eax],al
  402573:	push   es
  402574:	add    BYTE PTR [eax],al
  402576:	adc    al,BYTE PTR [ebx]
  402578:	sub    BYTE PTR [edx],ch
  40257a:	add    BYTE PTR [eax],al
  40257c:	or     dl,BYTE PTR [ebx]
  40257e:	add    al,0x11
  402580:	add    al,0x2d
  402582:	rcr    esi,cl
  402584:	movlps xmm0,QWORD PTR [ebx]
  402587:	(bad)  
  402588:	push   ss
  402589:	add    eax,DWORD PTR [eax]
  40258b:	add    BYTE PTR [ebx],bl
  40258d:	outs   dx,DWORD PTR ds:[esi]
  40258e:	sub    eax,DWORD PTR [eax]
  402590:	add    BYTE PTR [edx],cl
  402592:	add    ah,bl
  402594:	add    BYTE PTR [eax],al
  402596:	ficom  WORD PTR [edx]
  402598:	pop    es
  402599:	push   ss
  40259a:	inc    BYTE PTR [ecx]
  40259c:	adc    eax,DWORD PTR [ecx+edx*1]
  40259f:	add    al,0x2d
  4025a1:	pop    es
  4025a2:	or     BYTE PTR [eax],ch
  4025a4:	adc    al,0x0
  4025a6:	add    BYTE PTR [edx],cl
  4025a8:	add    ah,bl
  4025aa:	add    BYTE PTR [edx],ch
  4025ac:	add    DWORD PTR [eax+eax*1],ebx
  4025af:	add    BYTE PTR [edx],al
  4025b1:	add    BYTE PTR [eax+eax*1],bh
  4025b4:	xor    DWORD PTR [ebp+0x0],ebp
  4025b7:	sldt   WORD PTR [eax]
  4025ba:	add    BYTE PTR [eax],al
  4025bc:	add    al,BYTE PTR [eax]
  4025be:	adc    eax,0x806b00
  4025c3:	adc    al,BYTE PTR [eax]
  4025c5:	add    BYTE PTR [eax],al
  4025c7:	add    BYTE PTR [ebx],bl
  4025c9:	xor    BYTE PTR [ebx],al
  4025cb:	add    BYTE PTR [esi+0x9000000],ch
  4025d1:	add    BYTE PTR [eax],al
  4025d3:	adc    DWORD PTR [eax],eax
  4025d5:	jle    0x4025e0
  4025d7:	add    BYTE PTR [eax],al
  4025d9:	add    al,0x25
  4025db:	jnp    0x4025ee
  4025dd:	add    BYTE PTR [eax],al
  4025df:	add    al,0x17
  4025e1:	pop    ecx
  4025e2:	jge    0x4025f5
  4025e4:	add    BYTE PTR [eax],al
  4025e6:	add    al,0x7e
  4025e8:	or     DWORD PTR [eax],eax
  4025ea:	add    BYTE PTR [esi+edx*1],al
  4025ed:	jle    0x4025f8
  4025ef:	add    BYTE PTR [eax],al
  4025f1:	add    al,0x7b
  4025f3:	adc    DWORD PTR [eax],eax
  4025f5:	add    BYTE PTR [eax+ebp*1],al
  4025f8:	sub    al,0x0
  4025fa:	add    BYTE PTR [edx],cl
  4025fc:	jge    0x40260f
  4025fe:	add    BYTE PTR [eax],al
  402600:	add    al,0x16
  402602:	or     eax,DWORD PTR [edx]
  402604:	jnp    0x402610
  402606:	add    BYTE PTR [eax],al
  402608:	add    al,0x25
  40260a:	or     al,0x12
  40260c:	add    DWORD PTR [eax],ebp
  40260e:	sbb    eax,0xa0000
  402613:	add    BYTE PTR [eax],al
  402615:	jle    0x402620
  402617:	add    BYTE PTR [eax],al
  402619:	add    al,0x7b
  40261b:	adc    al,BYTE PTR [eax]
  40261d:	add    BYTE PTR [edi+ebp*2],al
  402620:	daa    
  402621:	add    BYTE PTR [eax],al
  402623:	or     ch,BYTE PTR [edi+0x28]
  402626:	add    BYTE PTR [eax],al
  402628:	or     cl,BYTE PTR ds:0x312202b
  40262e:	sub    BYTE PTR [ecx],ch
  402630:	add    BYTE PTR [eax],al
  402632:	or     cl,BYTE PTR [edx]
  402634:	add    BYTE PTR [esi+0x9],bh
  402637:	add    BYTE PTR [eax],al
  402639:	add    al,0x7b
  40263b:	adc    al,BYTE PTR [eax]
  40263d:	add    BYTE PTR [esi+eax*1],al
  402640:	outs   dx,DWORD PTR ds:[esi]
  402641:	and    eax,0x6f0a0000
  402646:	add    BYTE PTR ds:[eax],al
  402649:	push   es
  40264a:	add    BYTE PTR [eax],al
  40264c:	adc    al,BYTE PTR [ebx]
  40264e:	sub    BYTE PTR [edx],ch
  402650:	add    BYTE PTR [eax],al
  402652:	or     dl,BYTE PTR [ebx]
  402654:	add    al,0x11
  402656:	add    al,0x2d
  402658:	rcr    esi,cl
  40265a:	movlps xmm0,QWORD PTR [ebx]
  40265d:	(bad)  
  40265e:	push   ss
  40265f:	add    eax,DWORD PTR [eax]
  402661:	add    BYTE PTR [ebx],bl
  402663:	outs   dx,DWORD PTR ds:[esi]
  402664:	sub    eax,DWORD PTR [eax]
  402666:	add    BYTE PTR [edx],cl
  402668:	add    ah,bl
  40266a:	add    BYTE PTR [eax],al
  40266c:	ficom  WORD PTR [edx]
  40266e:	pop    es
  40266f:	push   ss
  402670:	inc    BYTE PTR [ecx]
  402672:	adc    eax,DWORD PTR [ecx+edx*1]
  402675:	add    al,0x2d
  402677:	pop    es
  402678:	or     BYTE PTR [eax],ch
  40267a:	adc    al,0x0
  40267c:	add    BYTE PTR [edx],cl
  40267e:	add    ah,bl
  402680:	add    BYTE PTR [edx],ch
  402682:	add    BYTE PTR [eax],al
  402684:	add    DWORD PTR [eax+eax*1],ebx
  402687:	add    BYTE PTR [edx],al
  402689:	add    BYTE PTR [esi+0x0],dl
  40268c:	xor    DWORD PTR [edi+0xf00],eax
  402692:	add    BYTE PTR [eax],al
  402694:	add    al,BYTE PTR [eax]
  402696:	das    
  402697:	add    BYTE PTR [ebx-0x66],ch
  40269a:	add    BYTE PTR [edx],dl
  40269c:	add    BYTE PTR [eax],al
  40269e:	add    BYTE PTR [eax],al
  4026a0:	adc    esi,DWORD PTR [eax]
  4026a2:	add    DWORD PTR [eax],eax
  4026a4:	or     al,0x0
  4026a6:	add    BYTE PTR [eax],al
  4026a8:	add    al,0x0
  4026aa:	add    BYTE PTR [ecx],dl
  4026ac:	add    BYTE PTR [edx],al
  4026ae:	jnp    0x4026ba
  4026b0:	add    BYTE PTR [eax],al
  4026b2:	add    al,0xa
  4026b4:	sub    eax,DWORD PTR [eax]
  4026b6:	push   es
  4026b7:	sub    dl,BYTE PTR [ebx]
  4026b9:	xor    BYTE PTR [eax+eax*1],al
  4026bc:	sbb    eax,DWORD PTR [eax]
  4026be:	add    BYTE PTR [eax],al
  4026c0:	or     al,BYTE PTR [eax]
  4026c2:	add    BYTE PTR [ecx],dl
  4026c4:	add    BYTE PTR [ebx],al
  4026c6:	pop    ss
  4026c7:	lea    esi,[esi]
  4026c9:	add    BYTE PTR [eax],al
  4026cb:	add    DWORD PTR [eax+ecx*1],ecx
  4026ce:	push   ss
  4026cf:	pop    ds
  4026d0:	or     bl,BYTE PTR [ebp+0x2d6f08]
  4026d6:	add    BYTE PTR [edx],cl
  4026d8:	or     al,BYTE PTR [esi]
  4026da:	or     ebp,DWORD PTR [ebx]
  4026dc:	add    BYTE PTR [edi],al
  4026de:	sub    al,BYTE PTR [eax]
  4026e0:	adc    esi,DWORD PTR [eax]
  4026e2:	add    eax,DWORD PTR [eax]
  4026e4:	dec    eax
  4026e5:	add    BYTE PTR [eax],al
  4026e7:	add    BYTE PTR [ecx],al
  4026e9:	add    BYTE PTR [eax],al
  4026eb:	adc    DWORD PTR [eax],eax
  4026ed:	add    bh,BYTE PTR [ebx+0xb]
  4026f0:	add    BYTE PTR [eax],al
  4026f2:	add    al,0x3
  4026f4:	outs   dx,DWORD PTR ds:[esi]
  4026f5:	add    BYTE PTR cs:[eax],al
  4026f8:	or     ah,BYTE PTR [esi]
  4026fa:	add    ah,BYTE PTR ds:0xc7b
  402700:	add    al,0x17
  402702:	pop    eax
  402703:	jge    0x402711
  402705:	add    BYTE PTR [eax],al
  402707:	add    al,0x2
  402709:	jnp    0x402717
  40270b:	add    BYTE PTR [eax],al
  40270d:	add    al,0x2
  40270f:	sub    BYTE PTR [ecx],ah
  402711:	add    BYTE PTR [eax],al
  402713:	push   es
  402714:	inc    BYTE PTR [edx]
  402716:	push   ss
  402717:	inc    BYTE PTR [ecx]
  402719:	or     al,BYTE PTR [esi]
  40271b:	sub    eax,0x28020009
  402720:	xor    al,BYTE PTR [eax]
  402722:	add    BYTE PTR [esi],al
  402724:	add    BYTE PTR [eax],al
  402726:	add    bh,BYTE PTR [ebx+0x6]
  402729:	add    BYTE PTR [eax],al
  40272b:	add    al,0x3
  40272d:	outs   dx,DWORD PTR ds:[esi]
  40272e:	push   es
  40272f:	add    BYTE PTR [eax],al
  402731:	push   es
  402732:	add    BYTE PTR [edx],ch
  402734:	sbb    esi,DWORD PTR [eax]
  402736:	add    al,BYTE PTR [eax]
  402738:	mov    DWORD PTR [eax],eax
  40273a:	add    BYTE PTR [eax],al
  40273c:	push   es
  40273d:	add    BYTE PTR [eax],al
  40273f:	adc    DWORD PTR [eax],eax
  402741:	push   ss
  402742:	or     al,BYTE PTR [edx]
  402744:	jnp    0x402750
  402746:	add    BYTE PTR [eax],al
  402748:	add    al,0x25
  40274a:	or     edx,DWORD PTR [edx]
  40274c:	add    BYTE PTR [eax],ch
  40274e:	sbb    eax,0xa0000
  402753:	add    BYTE PTR [edx],al
  402755:	jnp    0x40275e
  402757:	add    BYTE PTR [eax],al
  402759:	add    al,0x14
  40275b:	inc    BYTE PTR [ecx]
  40275d:	or     al,0x8
  40275f:	sub    eax,0x7b020040
  402764:	pop    es
  402765:	add    BYTE PTR [eax],al
  402767:	add    al,0x2
  402769:	jnp    0x402776
  40276b:	add    BYTE PTR [eax],al
  40276d:	add    al,0x6f
  40276f:	xor    BYTE PTR [eax],al
  402771:	add    BYTE PTR [edx],cl
  402773:	add    BYTE PTR [edx],al
  402775:	jnp    0x40277e
  402777:	add    BYTE PTR [eax],al
  402779:	add    al,0x6f
  40277b:	and    DWORD PTR [eax],eax
  40277d:	add    BYTE PTR [edx],cl
  40277f:	add    BYTE PTR [edx],al
  402781:	jnp    0x40278a
  402783:	add    BYTE PTR [eax],al
  402785:	add    al,0x6f
  402787:	xor    DWORD PTR [eax],eax
  402789:	add    BYTE PTR [edx],cl
  40278b:	je     0x4027c7
  40278d:	add    BYTE PTR [eax],al
  40278f:	add    DWORD PTR [edi+0x32],ebp
  402792:	add    BYTE PTR [eax],al
  402794:	or     ch,BYTE PTR [edi+0x33]
  402797:	add    BYTE PTR [eax],al
  402799:	or     ch,BYTE PTR [eax]
  40279b:	xor    DWORD PTR [eax],eax
  40279d:	add    BYTE PTR [esi],al
  40279f:	add    BYTE PTR es:[edx],al
  4027a2:	push   ss
  4027a3:	jge    0x4027b1
  4027a5:	add    BYTE PTR [eax],al
  4027a7:	add    al,0x2
  4027a9:	jnp    0x4027b6
  4027ab:	add    BYTE PTR [eax],al
  4027ad:	add    al,0x6f
  4027af:	xor    al,0x0
  4027b1:	add    BYTE PTR [edx],cl
  4027b3:	es add dh,bl
  4027b6:	adc    BYTE PTR [esi],al
  4027b8:	push   ss
  4027b9:	inc    BYTE PTR [ecx]
  4027bb:	or     al,0x8
  4027bd:	sub    eax,0x14280707
  4027c2:	add    BYTE PTR [eax],al
  4027c4:	or     al,BYTE PTR [eax]
  4027c6:	fadd   QWORD PTR [eax]
  4027c8:	sub    al,BYTE PTR [eax]
  4027ca:	add    BYTE PTR [eax],al
  4027cc:	add    DWORD PTR [eax],edx
  4027ce:	add    BYTE PTR [eax],al
  4027d0:	add    al,BYTE PTR [eax]
  4027d2:	add    eax,DWORD PTR [eax]
  4027d4:	je     0x40284d
  4027d6:	add    BYTE PTR [eax],dl
  4027d8:	add    BYTE PTR [eax],al
  4027da:	add    BYTE PTR [eax],al
  4027dc:	sbb    esi,DWORD PTR [eax]
  4027de:	push   es
  4027df:	add    BYTE PTR [ebx+0xb000000],dh
  4027e5:	add    BYTE PTR [eax],al
  4027e7:	adc    DWORD PTR [eax],eax
  4027e9:	push   ss
  4027ea:	adc    eax,DWORD PTR [edx+eax*1]
  4027ed:	jnp    0x4027f9
  4027ef:	add    BYTE PTR [eax],al
  4027f1:	add    al,0x25
  4027f3:	adc    eax,DWORD PTR ds:0x1d280412
  4027f9:	add    BYTE PTR [eax],al
  4027fb:	or     al,BYTE PTR [eax]
  4027fd:	add    BYTE PTR [edx],al
  4027ff:	sub    BYTE PTR [ecx],ch
  402801:	add    BYTE PTR [eax],al
  402803:	push   es
  402804:	or     dl,BYTE PTR [esi]
  402806:	or     ebp,DWORD PTR [ebx]
  402808:	sub    BYTE PTR [eax],al
  40280a:	jb     0x402815
  40280c:	add    BYTE PTR [eax],al
  40280e:	jo     0x402816
  402810:	jnp    0x402827
  402812:	add    BYTE PTR [eax],al
  402814:	add    al,0x6
  402816:	jnp    0x40282e
  402818:	add    BYTE PTR [eax],al
  40281a:	add    al,0x3
  40281c:	pop    es
  40281d:	call   0xc0a:0x3528
  402824:	add    cl,BYTE PTR [eax]
  402826:	sub    BYTE PTR [eax],dh
  402828:	add    BYTE PTR [eax],al
  40282a:	push   es
  40282b:	add    BYTE PTR [eax],al
  40282d:	pop    es
  40282e:	pop    ss
  40282f:	pop    eax
  402830:	or     eax,DWORD PTR [edi]
  402832:	add    ecx,DWORD PTR [esi-0x1a6e897]
  402838:	add    al,0x13
  40283a:	push   es
  40283b:	adc    DWORD PTR [esi],eax
  40283d:	sub    eax,0x698e03ca
  402842:	pop    ss
  402843:	inc    BYTE PTR [esi+edx*1]
  402846:	inc    BYTE PTR [ecx]
  402848:	adc    eax,DWORD PTR [esi]
  40284a:	adc    DWORD PTR [esi],eax
  40284c:	sub    eax,0x9720034
  402851:	add    BYTE PTR [eax],al
  402853:	jo     0x40285b
  402855:	jnp    0x40286c
  402857:	add    BYTE PTR [eax],al
  402859:	add    al,0x6
  40285b:	jnp    0x402873
  40285d:	add    BYTE PTR [eax],al
  40285f:	add    al,0x3
  402861:	add    ecx,DWORD PTR [esi-0x65a6e897]
  402867:	sub    BYTE PTR ds:0xd0a0000,dh
  40286d:	or     DWORD PTR [eax],ebp
  40286f:	add    BYTE PTR ss:[eax],al
  402872:	or     dl,BYTE PTR [ebx]
  402874:	push   es
  402875:	adc    DWORD PTR [esi],eax
  402877:	sub    eax,0x28090208
  40287c:	xor    BYTE PTR [eax],al
  40287e:	add    BYTE PTR [esi],al
  402880:	add    BYTE PTR [eax],al
  402882:	add    dh,bl
  402884:	adc    al,0x11
  402886:	add    al,0x16
  402888:	inc    BYTE PTR [ecx]
  40288a:	adc    eax,DWORD PTR [esi]
  40288c:	adc    DWORD PTR [esi],eax
  40288e:	sub    eax,0x28051108
  402893:	adc    al,0x0
  402895:	add    BYTE PTR [edx],cl
  402897:	add    ah,bl
  402899:	add    BYTE PTR [edx],ch
  40289b:	add    BYTE PTR [ecx],al
  40289d:	adc    BYTE PTR [eax],al
  40289f:	add    BYTE PTR [edx],al
  4028a1:	add    BYTE PTR [eax+eax*1],al
  4028a4:	cdq    
  4028a5:	popf   
  4028a6:	add    BYTE PTR [eax+eax*1],dl
  4028a9:	add    BYTE PTR [eax],al
  4028ab:	add    BYTE PTR [ebx],bl
  4028ad:	xor    BYTE PTR [eax+eax*1],al
  4028b0:	push   edx
  4028b1:	add    BYTE PTR [eax],al
  4028b3:	add    BYTE PTR [eax+eax*1],cl
  4028b6:	add    BYTE PTR [ecx],dl
  4028b8:	add    BYTE PTR [esi],dl
  4028ba:	or     al,0x2
  4028bc:	jnp    0x4028c8
  4028be:	add    BYTE PTR [eax],al
  4028c0:	add    al,0x25
  4028c2:	or     eax,0x1d280212
  4028c7:	add    BYTE PTR [eax],al
  4028c9:	or     al,BYTE PTR [eax]
  4028cb:	add    BYTE PTR [edx],al
  4028cd:	sub    BYTE PTR [ecx],ch
  4028cf:	add    BYTE PTR [eax],al
  4028d1:	push   es
  4028d2:	or     dh,BYTE PTR [edx+0x9]
  4028d5:	add    BYTE PTR [eax],al
  4028d7:	jo     0x4028df
  4028d9:	jnp    0x4028f0
  4028db:	add    BYTE PTR [eax],al
  4028dd:	add    al,0x6
  4028df:	jnp    0x4028f7
  4028e1:	add    BYTE PTR [eax],al
  4028e3:	add    al,0x3
  4028e5:	sub    BYTE PTR ds:0xb0a0000,dh
  4028eb:	add    al,BYTE PTR [edi]
  4028ed:	sub    BYTE PTR [eax],dh
  4028ef:	add    BYTE PTR [eax],al
  4028f1:	push   es
  4028f2:	add    BYTE PTR [eax],al
  4028f4:	ficom  WORD PTR [edx]
  4028f6:	or     BYTE PTR [esi],dl
  4028f8:	inc    BYTE PTR [ecx]
  4028fa:	adc    eax,DWORD PTR [ecx+edx*1]
  4028fd:	add    al,0x2d
  4028ff:	pop    es
  402900:	or     DWORD PTR [eax],ebp
  402902:	adc    al,0x0
  402904:	add    BYTE PTR [edx],cl
  402906:	add    ah,bl
  402908:	add    BYTE PTR [edx],ch
  40290a:	add    BYTE PTR [eax],al
  40290c:	add    DWORD PTR [eax],edx
  40290e:	add    BYTE PTR [eax],al
  402910:	add    al,BYTE PTR [eax]
  402912:	add    eax,DWORD PTR [eax]
  402914:	cmp    edi,DWORD PTR [esi]
  402916:	add    BYTE PTR [edx],dl
  402918:	add    BYTE PTR [eax],al
  40291a:	add    BYTE PTR [eax],al
  40291c:	adc    esi,DWORD PTR [eax]
  40291e:	add    eax,DWORD PTR [eax]
  402920:	dec    ebp
  402921:	add    BYTE PTR [eax],al
  402923:	add    BYTE PTR ds:0x110000,cl
  402929:	add    esi,DWORD PTR [edx+0x1f]
  40292c:	add    BYTE PTR [eax],al
  40292e:	jo     0x40299f
  402930:	aaa    
  402931:	add    BYTE PTR [eax],al
  402933:	or     dl,BYTE PTR [esi]
  402935:	inc    BYTE PTR [ecx]
  402937:	or     eax,DWORD PTR [edi]
  402939:	sub    eax,0x3020037
  40293e:	sub    BYTE PTR [edi],ch
  402940:	add    BYTE PTR [eax],al
  402942:	push   es
  402943:	or     al,BYTE PTR [esi]
  402945:	mov    gs,WORD PTR [ecx+0x17]
  402948:	inc    BYTE PTR [ecx]
  40294a:	push   ss
  40294b:	inc    BYTE PTR [ecx]
  40294d:	or     eax,DWORD PTR [edi]
  40294f:	sub    eax,0x16060216
  402954:	call   0x2870:0x1f72
  40295b:	cmp    BYTE PTR [eax],al
  40295d:	add    BYTE PTR [edx],cl
  40295f:	sub    BYTE PTR [eax+eax*1],dh
  402962:	add    BYTE PTR [esi],al
  402964:	add    BYTE PTR [ebx],ch
  402966:	or     BYTE PTR [edx],al
  402968:	push   es
  402969:	sub    BYTE PTR [ebx],dh
  40296b:	add    BYTE PTR [eax],al
  40296d:	push   es
  40296e:	add    BYTE PTR [eax],al
  402970:	sub    eax,DWORD PTR [edx]
  402972:	add    BYTE PTR [eax],al
  402974:	sub    al,BYTE PTR [eax]
  402976:	add    BYTE PTR [eax],al
  402978:	adc    esi,DWORD PTR [eax]
  40297a:	add    al,BYTE PTR [eax]
  40297c:	adc    al,BYTE PTR [eax]
  40297e:	add    BYTE PTR [eax],al
  402980:	add    eax,DWORD PTR [eax]
  402982:	add    BYTE PTR [ecx],dl
  402984:	add    BYTE PTR [ebx],al
  402986:	add    al,0x28
  402988:	cmp    DWORD PTR [eax],eax
  40298a:	add    BYTE PTR [edx],cl
  40298c:	or     al,BYTE PTR [edx]
  40298e:	push   es
  40298f:	sub    BYTE PTR ds:0x60000,dh
  402995:	sub    dl,BYTE PTR [edx+0x0]
  402998:	add    al,BYTE PTR [ebx]
  40299a:	jb     0x4029bb
  40299c:	add    BYTE PTR [eax],al
  40299e:	jo     0x4029c8
  4029a0:	cmp    BYTE PTR [eax],al
  4029a2:	add    BYTE PTR [edx],cl
  4029a4:	sub    BYTE PTR ds:0x60000,dh
  4029aa:	sub    al,BYTE PTR [eax]
  4029ac:	adc    esi,DWORD PTR [eax]
  4029ae:	add    al,BYTE PTR [eax]
  4029b0:	sbb    al,0x0
  4029b2:	add    BYTE PTR [eax],al
  4029b4:	add    eax,DWORD PTR [eax]
  4029b6:	add    BYTE PTR [ecx],dl
  4029b8:	add    BYTE PTR [ebx],al
  4029ba:	add    al,0x28
  4029bc:	cmp    DWORD PTR [eax],eax
  4029be:	add    BYTE PTR [edx],cl
  4029c0:	jb     0x4029e1
  4029c2:	add    BYTE PTR [eax],al
  4029c4:	jo     0x4029ee
  4029c6:	cmp    BYTE PTR [eax],al
  4029c8:	add    BYTE PTR [edx],cl
  4029ca:	or     al,BYTE PTR [edx]
  4029cc:	push   es
  4029cd:	sub    BYTE PTR ds:0x60000,dh
  4029d3:	sub    ch,BYTE PTR [esi]
  4029d5:	jae    0x402a11
  4029d7:	add    BYTE PTR [eax],al
  4029d9:	push   es
  4029da:	or     BYTE PTR [ecx],0x0
  4029dd:	add    BYTE PTR [edx+ebp*1],al
  4029e0:	jp     0x4029e4
  4029e2:	jb     0x402a07
  4029e4:	add    BYTE PTR [eax],al
  4029e6:	jo     0x402a65
  4029e8:	adc    BYTE PTR [eax],al
  4029ea:	add    BYTE PTR [edx+eax*1],al
  4029ed:	jae    0x402a2a
  4029ef:	add    BYTE PTR [eax],al
  4029f1:	or     bh,BYTE PTR [ebp+0x12]
  4029f4:	add    BYTE PTR [eax],al
  4029f6:	add    al,0x2
  4029f8:	sub    BYTE PTR [eax+eax*1],bh
  4029fb:	add    BYTE PTR [edx],cl
  4029fd:	add    BYTE PTR [edx],ch
  4029ff:	add    BYTE PTR [ebx],dl
  402a01:	xor    BYTE PTR [eax+eax*1],al
  402a04:	pop    esp
  402a05:	add    BYTE PTR [eax],al
  402a07:	add    BYTE PTR [edx],al
  402a09:	add    BYTE PTR [eax],al
  402a0b:	adc    DWORD PTR [edx],eax
  402a0d:	sub    BYTE PTR [edx],dl
  402a0f:	add    BYTE PTR [eax],al
  402a11:	or     al,BYTE PTR [eax]
  402a13:	add    BYTE PTR [edx],al
  402a15:	jle    0x402a20
  402a17:	add    BYTE PTR [eax],al
  402a19:	add    al,0x25
  402a1b:	jnp    0x402a2c
  402a1d:	add    BYTE PTR [eax],al
  402a1f:	add    al,0x25
  402a21:	or     dl,BYTE PTR [edi]
  402a23:	pop    eax
  402a24:	jge    0x402a35
  402a26:	add    BYTE PTR [eax],al
  402a28:	add    al,0x6
  402a2a:	jge    0x402a3f
  402a2c:	add    BYTE PTR [eax],al
  402a2e:	add    al,0x2
  402a30:	jle    0x402a3b
  402a32:	add    BYTE PTR [eax],al
  402a34:	add    al,0x7b
  402a36:	adc    BYTE PTR [eax],al
  402a38:	add    BYTE PTR [edx+eax*1],al
  402a3b:	jnp    0x402a50
  402a3d:	add    BYTE PTR [eax],al
  402a3f:	add    al,0x8c
  402a41:	add    BYTE PTR ds:[eax],al
  402a44:	add    DWORD PTR [eax],ebp
  402a46:	cmp    eax,0x7d0a0000
  402a4b:	adc    eax,0x2040000
  402a50:	pop    ds
  402a51:	or     DWORD PTR [esi+0x9],edi
  402a54:	add    BYTE PTR [eax],al
  402a56:	add    al,0x7b
  402a58:	adc    DWORD PTR [eax],eax
  402a5a:	add    BYTE PTR [ebx+esi*2],al
  402a5d:	add    BYTE PTR ds:[eax],al
  402a60:	or     bh,BYTE PTR [ebp+0x16]
  402a63:	add    BYTE PTR [eax],al
  402a65:	add    al,0x0
  402a67:	sub    bh,BYTE PTR [edx+0x7b250200]
  402a6d:	adc    al,0x0
  402a6f:	add    BYTE PTR [edi+edx*1],al
  402a72:	pop    eax
  402a73:	jge    0x402a89
  402a75:	add    BYTE PTR [eax],al
  402a77:	add    al,0x2
  402a79:	pop    ds
  402a7a:	or     DWORD PTR [esi+0x9],edi
  402a7d:	add    BYTE PTR [eax],al
  402a7f:	add    al,0x7b
  402a81:	adc    DWORD PTR [eax],eax
  402a83:	add    BYTE PTR [edx+eax*1],al
  402a86:	jnp    0x402a9c
  402a88:	add    BYTE PTR [eax],al
  402a8a:	add    al,0x58
  402a8c:	jae    0x402acc
  402a8e:	add    BYTE PTR [eax],al
  402a90:	or     bh,BYTE PTR [ebp+0x16]
  402a93:	add    BYTE PTR [eax],al
  402a95:	add    al,0x2a
  402a97:	add    BYTE PTR [ebx],al
  402a99:	xor    BYTE PTR [eax+eax*1],al
  402a9c:	inc    eax
	...
  402aa5:	add    ah,BYTE PTR ds:0x147b
  402aab:	add    al,0x17
  402aad:	pop    ecx
  402aae:	jge    0x402ac4
  402ab0:	add    BYTE PTR [eax],al
  402ab2:	add    al,0x2
  402ab4:	push   ss
  402ab5:	add    bh,BYTE PTR [ebx+0x14]
  402ab8:	add    BYTE PTR [eax],al
  402aba:	add    al,0x28
  402abc:	sub    al,0x0
  402abe:	add    BYTE PTR [edx],cl
  402ac0:	jge    0x402ad6
  402ac2:	add    BYTE PTR [eax],al
  402ac4:	add    al,0x2
  402ac6:	pop    ds
  402ac7:	or     DWORD PTR [esi+0x9],edi
  402aca:	add    BYTE PTR [eax],al
  402acc:	add    al,0x7b
  402ace:	adc    DWORD PTR [eax],eax
  402ad0:	add    BYTE PTR [edx+eax*1],al
  402ad3:	jnp    0x402ae9
  402ad5:	add    BYTE PTR [eax],al
  402ad7:	add    al,0x58
  402ad9:	jae    0x402b19
  402adb:	add    BYTE PTR [eax],al
  402add:	or     bh,BYTE PTR [ebp+0x16]
  402ae0:	add    BYTE PTR [eax],al
  402ae2:	add    al,0x2a
  402ae4:	add    BYTE PTR [eax],0x2
  402ae7:	pop    ds
  402ae8:	or     DWORD PTR [esi+0x9],edi
  402aeb:	add    BYTE PTR [eax],al
  402aed:	add    al,0x7b
  402aef:	adc    DWORD PTR [eax],eax
  402af1:	add    BYTE PTR [edx+eax*1],al
  402af4:	jnp    0x402b0a
  402af6:	add    BYTE PTR [eax],al
  402af8:	add    al,0x58
  402afa:	jae    0x402b3a
  402afc:	add    BYTE PTR [eax],al
  402afe:	or     bh,BYTE PTR [ebp+0x16]
  402b01:	add    BYTE PTR [eax],al
  402b03:	add    al,0x2a
  402b05:	add    BYTE PTR [eax],al
  402b07:	add    BYTE PTR [ebx],dl
  402b09:	xor    BYTE PTR [ebx],al
  402b0b:	add    BYTE PTR [ecx+eax*1+0xe0000],al
  402b12:	add    BYTE PTR [ecx],dl
  402b14:	add    BYTE PTR [eax],ch
  402b16:	inc    eax
  402b17:	add    BYTE PTR [eax],al
  402b19:	or     al,BYTE PTR [eax]
  402b1b:	push   ss
  402b1c:	sub    BYTE PTR [ecx+0x0],al
  402b1f:	add    BYTE PTR [edx],cl
  402b21:	add    BYTE PTR [ebx+0x9],dh
  402b24:	add    BYTE PTR [eax],al
  402b26:	push   es
  402b27:	or     dl,BYTE PTR [edi]
  402b29:	jb     0x402b50
  402b2b:	add    BYTE PTR [eax],al
  402b2d:	jo     0x402b41
  402b2f:	add    DWORD PTR [ebx+0x42],esi
  402b32:	add    BYTE PTR [eax],al
  402b34:	or     cl,BYTE PTR [edi+eax*1]
  402b37:	adc    ecx,DWORD PTR ds:0x702d0d11
  402b3d:	add    BYTE PTR [edx+0x4f],dh
  402b40:	add    BYTE PTR [eax],al
  402b42:	jo     0x402b6c
  402b44:	inc    ebx
  402b45:	add    BYTE PTR [eax],al
  402b47:	or     cl,BYTE PTR ds:0x4428
  402b4d:	or     dl,BYTE PTR [ebx]
  402b4f:	add    al,0x0
  402b51:	or     DWORD PTR [ebx],edx
  402b53:	push   cs
  402b54:	push   ss
  402b55:	adc    ecx,DWORD PTR [edi]
  402b57:	sub    esi,DWORD PTR [edi]
  402b59:	adc    DWORD PTR [esi],ecx
  402b5b:	adc    DWORD PTR [edi],ecx
  402b5d:	call   0x6f05:0x11000513
  402b64:	inc    ebp
  402b65:	add    BYTE PTR [eax],al
  402b67:	or     dl,BYTE PTR [ecx]
  402b69:	add    al,0x6f
  402b6b:	inc    ebp
  402b6c:	add    BYTE PTR [eax],al
  402b6e:	or     bh,dh
  402b70:	add    DWORD PTR [ebx],edx
  402b72:	or     eax,0x122d0d11
  402b77:	add    BYTE PTR [ecx],dl
  402b79:	add    eax,0x466f
  402b7e:	or     al,BYTE PTR [eax]
  402b80:	adc    DWORD PTR ds:0x476f,eax
  402b86:	or     al,BYTE PTR [eax]
  402b88:	add    BYTE PTR [eax],al
  402b8a:	adc    DWORD PTR [edi],ecx
  402b8c:	pop    ss
  402b8d:	pop    eax
  402b8e:	adc    ecx,DWORD PTR [edi]
  402b90:	adc    DWORD PTR [edi],ecx
  402b92:	adc    DWORD PTR [esi],ecx
  402b94:	mov    gs,WORD PTR [ecx-0x2]
  402b97:	add    al,0x13
  402b99:	or     eax,0xbb2d0d11
  402b9e:	pop    ss
  402b9f:	jb     0x402bc6
  402ba1:	add    BYTE PTR [eax],al
  402ba3:	jo     0x402bb7
  402ba5:	add    DWORD PTR [ebx+0x42],esi
  402ba8:	add    BYTE PTR [eax],al
  402baa:	or     cl,BYTE PTR [eax+eax*1]
  402bad:	jb     0x402c20
  402baf:	add    BYTE PTR [eax],al
  402bb1:	jo     0x402bc6
  402bb3:	push   es
  402bb4:	add    cl,BYTE PTR [esi+0x1fe1669]
  402bba:	adc    ecx,DWORD PTR ds:0x52d0d11
  402bc0:	add    dl,BYTE PTR [esi]
  402bc2:	call   0x0:0x99720613
  402bc9:	jo     0x402bdc
  402bcb:	push   es
  402bcc:	sub    BYTE PTR [eax],bh
  402bce:	add    BYTE PTR [eax],al
  402bd0:	or     ch,BYTE PTR [eax]
  402bd2:	adc    eax,DWORD PTR [eax]
  402bd4:	add    BYTE PTR [esi],al
  402bd6:	add    BYTE PTR [ecx],dl
  402bd8:	push   es
  402bd9:	sub    BYTE PTR [eax+0x0],cl
  402bdc:	add    BYTE PTR [edx],cl
  402bde:	adc    eax,DWORD PTR [esi]
  402be0:	jb     0x402b95
  402be2:	add    BYTE PTR [eax],al
  402be4:	jo     0x402bf7
  402be6:	push   es
  402be7:	sub    BYTE PTR [eax],bh
  402be9:	add    BYTE PTR [eax],al
  402beb:	or     ch,BYTE PTR [eax]
  402bed:	adc    eax,DWORD PTR [eax]
  402bef:	add    BYTE PTR [esi],al
  402bf1:	add    BYTE PTR [ebx+0x49],dh
  402bf4:	add    BYTE PTR [eax],al
  402bf6:	or     dl,BYTE PTR [ebx]
  402bf8:	pop    es
  402bf9:	jb     0x402bce
  402bfb:	add    BYTE PTR [eax],al
  402bfd:	jo     0x402c72
  402bff:	inc    edi
  402c00:	add    BYTE PTR [eax],al
  402c02:	push   es
  402c03:	adc    ecx,DWORD PTR [eax]
  402c05:	adc    DWORD PTR [eax],ecx
  402c07:	jae    0x402c58
  402c09:	add    BYTE PTR [eax],al
  402c0b:	push   es
  402c0c:	adc    ecx,DWORD PTR [ecx]
  402c0e:	adc    DWORD PTR [edi],eax
  402c10:	adc    DWORD PTR [esi],eax
  402c12:	outs   dx,DWORD PTR ds:[esi]
  402c13:	dec    edx
  402c14:	add    BYTE PTR [eax],al
  402c16:	or     al,BYTE PTR [eax]
  402c18:	adc    DWORD PTR [edi],eax
  402c1a:	pop    ss
  402c1b:	outs   dx,DWORD PTR ds:[esi]
  402c1c:	dec    ebx
  402c1d:	add    BYTE PTR [eax],al
  402c1f:	or     al,BYTE PTR [eax]
  402c21:	adc    DWORD PTR [edi],eax
  402c23:	pop    ds
  402c24:	jg     0x402c95
  402c26:	dec    esp
  402c27:	add    BYTE PTR [eax],al
  402c29:	or     al,BYTE PTR [eax]
  402c2b:	adc    DWORD PTR [edi],eax
  402c2d:	adc    DWORD PTR [ecx],ecx
  402c2f:	and    eax,0x4a07fe
  402c34:	add    BYTE PTR [esi],al
  402c36:	jae    0x402c85
  402c38:	add    BYTE PTR [eax],al
  402c3a:	or     ch,BYTE PTR [edi+0x4e]
  402c3d:	add    BYTE PTR [eax],al
  402c3f:	or     al,BYTE PTR [eax]
  402c41:	adc    DWORD PTR [edi],eax
  402c43:	adc    DWORD PTR [ecx],ecx
  402c45:	and    eax,0x4907fe
  402c4a:	add    BYTE PTR [esi],al
  402c4c:	jae    0x402c9b
  402c4e:	add    BYTE PTR [eax],al
  402c50:	or     ch,BYTE PTR [edi+0x4f]
  402c53:	add    BYTE PTR [eax],al
  402c55:	or     al,BYTE PTR [eax]
  402c57:	adc    DWORD PTR [edi],eax
  402c59:	pop    ss
  402c5a:	outs   dx,DWORD PTR ds:[esi]
  402c5b:	push   eax
  402c5c:	add    BYTE PTR [eax],al
  402c5e:	or     al,BYTE PTR [eax]
  402c60:	push   ss
  402c61:	jae    0x402cb4
  402c63:	add    BYTE PTR [eax],al
  402c65:	or     dl,BYTE PTR [ebx]
  402c67:	or     dl,BYTE PTR [ecx]
  402c69:	or     dl,BYTE PTR [ecx]
  402c6b:	or     DWORD PTR [ebx+0x41],esi
  402c6e:	add    BYTE PTR [eax],al
  402c70:	push   es
  402c71:	adc    ecx,DWORD PTR [ebx]
  402c73:	adc    DWORD PTR [ebx],ecx
  402c75:	inc    BYTE PTR [esi]
  402c77:	inc    edx
  402c78:	add    BYTE PTR [eax],al
  402c7a:	push   es
  402c7b:	jae    0x402ccf
  402c7d:	add    BYTE PTR [eax],al
  402c7f:	or     dh,BYTE PTR [ebx+0x53]
  402c82:	add    BYTE PTR [eax],al
  402c84:	or     dl,BYTE PTR [ebx]
  402c86:	or     al,0x11
  402c88:	or     al,0x6f
  402c8a:	push   esp
  402c8b:	add    BYTE PTR [eax],al
  402c8d:	or     al,BYTE PTR [eax]
  402c8f:	adc    DWORD PTR [edx],ecx
  402c91:	outs   dx,DWORD PTR ds:[esi]
  402c92:	push   ebp
  402c93:	add    BYTE PTR [eax],al
  402c95:	or     ah,BYTE PTR [esi]
  402c97:	sub    bl,BYTE PTR [esi]
  402c99:	add    ch,BYTE PTR [eax]
  402c9b:	adc    al,BYTE PTR [eax]
  402c9d:	add    BYTE PTR [edx],cl
  402c9f:	sub    ah,BYTE PTR [edx+0x2]
  402ca2:	sub    BYTE PTR [edx],dl
  402ca4:	add    BYTE PTR [eax],al
  402ca6:	or     al,BYTE PTR [eax]
  402ca8:	add    BYTE PTR [edx],al
  402caa:	add    edi,DWORD PTR [ebp+0x17]
  402cad:	add    BYTE PTR [eax],al
  402caf:	add    al,0x2
  402cb1:	add    al,0x7d
  402cb3:	sbb    BYTE PTR [eax],al
  402cb5:	add    BYTE PTR [eax+eax*1],al
  402cb8:	sub    al,BYTE PTR [eax]
  402cba:	add    BYTE PTR [eax],al
  402cbc:	adc    esi,DWORD PTR [eax]
  402cbe:	add    al,0x0
  402cc0:	mov    al,ds:0xf000000
  402cc5:	add    BYTE PTR [eax],al
  402cc7:	adc    DWORD PTR [eax],eax
  402cc9:	push   ss
  402cca:	or     ch,BYTE PTR [eax]
  402ccc:	push   esi
  402ccd:	add    BYTE PTR [eax],al
  402ccf:	or     cl,BYTE PTR [ebx]
  402cd1:	adc    al,BYTE PTR [edx]
  402cd3:	push   ss
  402cd4:	push   ss
  402cd5:	pop    ds
  402cd6:	push   ds
  402cd7:	sub    BYTE PTR [edi+0x0],dl
  402cda:	add    BYTE PTR [edx],cl
  402cdc:	add    BYTE PTR [ebx],ch
  402cde:	jb     0x402ce0
  402ce0:	push   ss
  402ce1:	or     eax,0xf972
  402ce6:	jo     0x402d10
  402ce8:	inc    ebx
  402ce9:	add    BYTE PTR [eax],al
  402ceb:	or     dl,BYTE PTR [ebx]
  402ced:	add    al,0x72
  402cef:	add    eax,0x28700001
  402cf4:	inc    ebx
  402cf5:	add    BYTE PTR [eax],al
  402cf7:	or     dl,BYTE PTR [ebx]
  402cf9:	add    eax,0x698e0411
  402cfe:	sub    eax,0x8e051113
  402d03:	imul   ebp,DWORD PTR ds:0x187b020d,0x6f040000
  402d0d:	dec    ebp
  402d0e:	add    BYTE PTR [eax],al
  402d10:	push   es
  402d11:	sub    eax,DWORD PTR [ecx]
  402d13:	pop    ss
  402d14:	add    BYTE PTR [ebx],dl
  402d16:	push   es
  402d17:	adc    DWORD PTR [esi],eax
  402d19:	sub    eax,0x90d1702
  402d1e:	push   ss
  402d1f:	inc    BYTE PTR [ecx]
  402d21:	adc    eax,DWORD PTR [esi]
  402d23:	adc    DWORD PTR [esi],eax
  402d25:	sub    eax,0x56280016
  402d2a:	add    BYTE PTR [eax],al
  402d2c:	or     al,BYTE PTR [edi]
  402d2e:	sub    BYTE PTR [eax+0x0],bl
  402d31:	add    BYTE PTR [edx],cl
  402d33:	or     BYTE PTR [eax],ch
  402d35:	pop    ecx
  402d36:	add    BYTE PTR [eax],al
  402d38:	or     cl,BYTE PTR [edx]
  402d3a:	add    BYTE PTR [ebx],ch
  402d3c:	or     BYTE PTR [eax],al
  402d3e:	sub    BYTE PTR [esi+0x0],dl
  402d41:	add    BYTE PTR [edx],cl
  402d43:	or     eax,DWORD PTR [eax]
  402d45:	and    al,ch
  402d47:	add    eax,DWORD PTR [eax]
  402d49:	add    BYTE PTR [eax],ch
  402d4b:	pop    edx
  402d4c:	add    BYTE PTR [eax],al
  402d4e:	or     al,BYTE PTR [eax]
  402d50:	add    BYTE PTR [esi],al
  402d52:	push   ss
  402d53:	inc    BYTE PTR [ecx]
  402d55:	adc    eax,DWORD PTR [esi]
  402d57:	adc    DWORD PTR [esi],eax
  402d59:	sub    eax,0x177b0284
  402d5e:	add    BYTE PTR [eax],al
  402d60:	add    al,0x6f
  402d62:	pop    ebx
  402d63:	add    BYTE PTR [eax],al
  402d65:	or     ah,BYTE PTR [esi]
  402d67:	sub    bl,BYTE PTR [esi]
  402d69:	add    ch,BYTE PTR [eax]
  402d6b:	adc    al,BYTE PTR [eax]
  402d6d:	add    BYTE PTR [edx],cl
  402d6f:	sub    ah,BYTE PTR [edx+0x2]
  402d72:	sub    BYTE PTR [eax+eax*1+0x0],al
  402d76:	push   es
  402d77:	add    BYTE PTR [eax],al
  402d79:	add    al,BYTE PTR [ebx]
  402d7b:	jge    0x402d96
  402d7d:	add    BYTE PTR [eax],al
  402d7f:	add    al,0x3
  402d81:	sub    BYTE PTR [edi],bl
  402d83:	add    BYTE PTR [eax],al
  402d85:	or     ah,BYTE PTR [esi]
  402d87:	add    BYTE PTR [edx],ch
  402d89:	jle    0x402d8b
  402d8b:	add    eax,DWORD PTR [edx]
  402d8d:	jnp    0x402da8
  402d8f:	add    BYTE PTR [eax],al
  402d91:	add    al,0x72
  402d93:	pop    ss
  402d94:	add    DWORD PTR [eax],eax
  402d96:	jo     0x402d9b
  402d98:	sub    BYTE PTR [eax+eax*1+0x0],bl
  402d9c:	or     ch,BYTE PTR [eax]
  402d9e:	pop    ebp
  402d9f:	add    BYTE PTR [eax],al
  402da1:	or     ch,BYTE PTR [eax]
  402da3:	pop    esi
  402da4:	add    BYTE PTR [eax],al
  402da6:	or     al,BYTE PTR [eax]
  402da8:	sub    dh,dh
  402daa:	add    dh,BYTE PTR [edx+0x1b]
  402dad:	add    DWORD PTR [eax],eax
  402daf:	jo     0x402dd0
  402db1:	or     DWORD PTR [ebx+0x5f],esi
  402db4:	add    BYTE PTR [eax],al
  402db6:	or     bh,BYTE PTR [ebp+0x1c]
  402db9:	add    BYTE PTR [eax],al
  402dbb:	add    al,0x2
  402dbd:	sub    BYTE PTR [eax+eax*1+0x0],al
  402dc1:	push   es
  402dc2:	add    BYTE PTR [eax],al
  402dc4:	add    al,BYTE PTR [ebx]
  402dc6:	jge    0x402de2
  402dc8:	add    BYTE PTR [eax],al
  402dca:	add    al,0x2
  402dcc:	jb     0x402e01
  402dce:	add    DWORD PTR [eax],eax
  402dd0:	jo     0x402e44
  402dd2:	pop    ebp
  402dd3:	add    DWORD PTR [eax],eax
  402dd5:	jo     0x402e55
  402dd7:	pusha  
  402dd8:	add    BYTE PTR [eax],al
  402dda:	or     dh,BYTE PTR [ebx+0x61]
  402ddd:	add    BYTE PTR [eax],al
  402ddf:	or     bh,BYTE PTR [ebp+0x1b]
  402de2:	add    BYTE PTR [eax],al
  402de4:	add    al,0x0
  402de6:	sub    al,BYTE PTR [eax]
  402de8:	adc    esi,DWORD PTR [eax]
  402dea:	add    al,0x0
  402dec:	dec    edi
  402ded:	add    BYTE PTR [eax],al
  402def:	add    BYTE PTR [eax],dl
  402df1:	add    BYTE PTR [eax],al
  402df3:	adc    DWORD PTR [eax],eax
  402df5:	add    bh,BYTE PTR [ebx+0x1c]
  402df8:	add    BYTE PTR [eax],al
  402dfa:	add    al,0x3
  402dfc:	outs   dx,DWORD PTR ds:[esi]
  402dfd:	bound  eax,QWORD PTR [eax]
  402dff:	add    BYTE PTR [edx],cl
  402e01:	or     al,BYTE PTR [esi]
  402e03:	outs   dx,DWORD PTR ds:[esi]
  402e04:	arpl   WORD PTR [eax],ax
  402e06:	add    BYTE PTR [edx],cl
  402e08:	pop    ss
  402e09:	outs   dx,DWORD PTR ds:[esi]
  402e0a:	add    BYTE PTR fs:[eax],al
  402e0d:	or     ch,BYTE PTR [edi+0x65]
  402e10:	add    BYTE PTR [eax],al
  402e12:	or     ch,BYTE PTR [edi+0x66]
  402e15:	add    BYTE PTR [eax],al
  402e17:	or     dh,BYTE PTR [edx-0x51]
  402e1a:	add    DWORD PTR [eax],eax
  402e1c:	jo     0x402e21
  402e1e:	sub    BYTE PTR [eax+eax*1+0x0],bl
  402e22:	or     ch,BYTE PTR [edi+0x66]
  402e25:	add    BYTE PTR [eax],al
  402e27:	or     ch,BYTE PTR [eax]
  402e29:	pop    ebp
  402e2a:	add    BYTE PTR [eax],al
  402e2c:	or     cl,BYTE PTR [ebx]
  402e2e:	add    bh,BYTE PTR [ebx+0x1b]
  402e31:	add    BYTE PTR [eax],al
  402e33:	add    al,0x3
  402e35:	add    bh,BYTE PTR [ebx+0x1a]
  402e38:	add    BYTE PTR [eax],al
  402e3a:	add    al,0x7
  402e3c:	outs   dx,DWORD PTR ds:[esi]
  402e3d:	add    BYTE PTR [bx+si],al
  402e40:	or     al,BYTE PTR [eax]
  402e42:	sub    bl,BYTE PTR [esi]
  402e44:	add    ch,BYTE PTR [eax]
  402e46:	adc    al,BYTE PTR [eax]
  402e48:	add    BYTE PTR [edx],cl
  402e4a:	sub    al,BYTE PTR [esi+0x2]
  402e4d:	sub    BYTE PTR [esi+0x0],cl
  402e50:	add    BYTE PTR [esi],al
  402e52:	add    BYTE PTR [eax],al
  402e54:	add    al,BYTE PTR [ebx]
  402e56:	jge    0x402e76
  402e58:	add    BYTE PTR [eax],al
  402e5a:	add    al,0x0
  402e5c:	sub    al,BYTE PTR [eax]
  402e5e:	add    BYTE PTR [eax],al
  402e60:	adc    esi,DWORD PTR [eax]
  402e62:	add    al,0x0
  402e64:	xor    eax,DWORD PTR [eax]
  402e66:	add    BYTE PTR [eax],al
  402e68:	adc    DWORD PTR [eax],eax
  402e6a:	add    BYTE PTR [ecx],dl
  402e6c:	add    BYTE PTR [edi+ebp*2],al
  402e6f:	push   0xa0a0000
  402e74:	jb     0x402e29
  402e76:	add    DWORD PTR [eax],eax
  402e78:	jo     0x402e92
  402e7a:	lea    eax,[ecx]
  402e7c:	add    BYTE PTR [eax],al
  402e7e:	add    DWORD PTR [ebx],ecx
  402e80:	pop    es
  402e81:	push   ss
  402e82:	add    al,0x6f
  402e84:	imul   eax,DWORD PTR [eax],0x7a20a00
  402e8a:	pop    ss
  402e8b:	push   es
  402e8c:	mov    WORD PTR [eax+0x0],ss
  402e8f:	add    BYTE PTR [ecx],al
  402e91:	outs   dx,DWORD PTR ds:[esi]
  402e92:	pop    ss
  402e93:	add    BYTE PTR [eax],al
  402e95:	or     ah,BYTE PTR [edx+0x142807]
  402e9b:	add    BYTE PTR [esi],al
  402e9d:	add    BYTE PTR [edx],ch
  402e9f:	add    BYTE PTR [ebx],dl
  402ea1:	xor    BYTE PTR [eax+eax*1],al
  402ea4:	add    BYTE PTR [bx+si],al
  402ea7:	add    BYTE PTR [edx],dl
  402ea9:	add    BYTE PTR [eax],al
  402eab:	adc    DWORD PTR [eax],eax
  402ead:	add    al,0x6f
  402eaf:	push   0xa0a0000
  402eb4:	jb     0x402e69
  402eb6:	add    DWORD PTR [eax],eax
  402eb8:	jo     0x402ed2
  402eba:	lea    eax,[ecx]
  402ebc:	add    BYTE PTR [eax],al
  402ebe:	add    DWORD PTR [eax+ecx*1],ecx
  402ec1:	push   ss
  402ec2:	add    al,0x6f
  402ec4:	imul   eax,DWORD PTR [eax],0x8a20a00
  402eca:	pop    ss
  402ecb:	push   es
  402ecc:	mov    WORD PTR [eax+0x0],ss
  402ecf:	add    BYTE PTR [ecx],al
  402ed1:	outs   dx,DWORD PTR ds:[esi]
  402ed2:	pop    ss
  402ed3:	add    BYTE PTR [eax],al
  402ed5:	or     ah,BYTE PTR [edx+0x142808]
  402edb:	add    BYTE PTR [esi],al
  402edd:	add    BYTE PTR [edi+ebp*2],al
  402ee0:	imul   eax,DWORD PTR [eax],0x6a280a00
  402ee6:	add    BYTE PTR [eax],al
  402ee8:	or     cl,BYTE PTR [ebx]
  402eea:	pop    es
  402eeb:	pop    ds
  402eec:	adc    BYTE PTR [edi+0x1f],bl
  402eef:	adc    dh,bh
  402ef1:	add    DWORD PTR [esi],edx
  402ef3:	inc    BYTE PTR [ecx]
  402ef5:	or     eax,0x192d09
  402efa:	add    al,BYTE PTR [edi+ebp*2]
  402efd:	imul   eax,DWORD PTR [eax],0x7b020a00
  402f03:	push   ds
  402f04:	add    BYTE PTR [eax],al
  402f06:	add    al,0x73
  402f08:	push   ebp
  402f09:	add    BYTE PTR [eax],al
  402f0b:	push   es
  402f0c:	jge    0x402f2b
  402f0e:	add    BYTE PTR [eax],al
  402f10:	add    al,0x0
  402f12:	sub    al,BYTE PTR [eax]
  402f14:	adc    esi,DWORD PTR [eax]
  402f16:	add    al,0x0
  402f18:	xor    eax,DWORD PTR [eax]
  402f1a:	add    BYTE PTR [eax],al
  402f1c:	adc    DWORD PTR [eax],eax
  402f1e:	add    BYTE PTR [ecx],dl
  402f20:	add    BYTE PTR [edi+ebp*2],al
  402f23:	push   0xa0a0000
  402f28:	jb     0x402edd
  402f2a:	add    DWORD PTR [eax],eax
  402f2c:	jo     0x402f46
  402f2e:	lea    eax,[ecx]
  402f30:	add    BYTE PTR [eax],al
  402f32:	add    DWORD PTR [ebx],ecx
  402f34:	pop    es
  402f35:	push   ss
  402f36:	add    al,0x6f
  402f38:	imul   eax,DWORD PTR [eax],0x7a20a00
  402f3e:	pop    ss
  402f3f:	push   es
  402f40:	mov    WORD PTR [eax+0x0],ss
  402f43:	add    BYTE PTR [ecx],al
  402f45:	outs   dx,DWORD PTR ds:[esi]
  402f46:	pop    ss
  402f47:	add    BYTE PTR [eax],al
  402f49:	or     ah,BYTE PTR [edx+0x142807]
  402f4f:	add    BYTE PTR [esi],al
  402f51:	add    BYTE PTR [edx],ch
  402f53:	add    BYTE PTR [ebx],dl
  402f55:	xor    BYTE PTR [eax+eax*1],al
  402f58:	xor    eax,DWORD PTR [eax]
  402f5a:	add    BYTE PTR [eax],al
  402f5c:	adc    DWORD PTR [eax],eax
  402f5e:	add    BYTE PTR [ecx],dl
  402f60:	add    BYTE PTR [edi+ebp*2],al
  402f63:	push   0xa0a0000
  402f68:	jb     0x402f1d
  402f6a:	add    DWORD PTR [eax],eax
  402f6c:	jo     0x402f86
  402f6e:	lea    eax,[ecx]
  402f70:	add    BYTE PTR [eax],al
  402f72:	add    DWORD PTR [ebx],ecx
  402f74:	pop    es
  402f75:	push   ss
  402f76:	add    al,0x6f
  402f78:	imul   eax,DWORD PTR [eax],0x7a20a00
  402f7e:	pop    ss
  402f7f:	push   es
  402f80:	mov    WORD PTR [eax+0x0],ss
  402f83:	add    BYTE PTR [ecx],al
  402f85:	outs   dx,DWORD PTR ds:[esi]
  402f86:	pop    ss
  402f87:	add    BYTE PTR [eax],al
  402f89:	or     ah,BYTE PTR [edx+0x142807]
  402f8f:	add    BYTE PTR [esi],al
  402f91:	add    BYTE PTR [edx],ch
  402f93:	add    BYTE PTR [ebx],dl
  402f95:	xor    BYTE PTR [edx],al
  402f97:	add    BYTE PTR [edx],ah
  402f99:	add    BYTE PTR [eax],al
  402f9b:	add    BYTE PTR [ebx],dl
  402f9d:	add    BYTE PTR [eax],al
  402f9f:	adc    DWORD PTR [eax],eax
  402fa1:	add    bh,BYTE PTR [ebx+0x1d]
  402fa4:	add    BYTE PTR [eax],al
  402fa6:	add    al,0x14
  402fa8:	inc    BYTE PTR [ecx]
  402faa:	or     eax,DWORD PTR [edi]
  402fac:	sub    eax,0x1d7b020e
  402fb1:	add    BYTE PTR [eax],al
  402fb3:	add    al,0x6f
  402fb5:	dec    ebp
  402fb6:	add    BYTE PTR [eax],al
  402fb8:	push   es
  402fb9:	or     ch,BYTE PTR [ebx]
  402fbb:	add    al,0x16
  402fbd:	or     ch,BYTE PTR [ebx]
  402fbf:	add    BYTE PTR [esi],al
  402fc1:	sub    al,BYTE PTR [eax]
  402fc3:	add    BYTE PTR [ebx],al
  402fc5:	xor    BYTE PTR [ebx],al
  402fc7:	add    BYTE PTR [edi+0x0],dl
  402fca:	add    BYTE PTR [eax],al
  402fcc:	add    BYTE PTR [eax],al
  402fce:	add    BYTE PTR [eax],al
  402fd0:	add    dh,BYTE PTR [ebx+0x49]
  402fd3:	add    BYTE PTR [eax],al
  402fd5:	or     bh,BYTE PTR [ebp+0x1f]
  402fd8:	add    BYTE PTR [eax],al
  402fda:	add    al,0x2
  402fdc:	push   ss
  402fdd:	(bad)  
  402fde:	adc    edi,DWORD PTR [ebp+0x22]
  402fe1:	add    BYTE PTR [eax],al
  402fe3:	add    al,0x2
  402fe5:	pop    ds
  402fe6:	push   ds
  402fe7:	jge    0x40300d
  402fe9:	add    BYTE PTR [eax],al
  402feb:	add    al,0x2
  402fed:	sub    BYTE PTR [esi+0x0],cl
  402ff0:	add    BYTE PTR [esi],al
  402ff2:	add    BYTE PTR [eax],al
  402ff4:	add    al,BYTE PTR [ebx]
  402ff6:	jge    0x403018
  402ff8:	add    BYTE PTR [eax],al
  402ffa:	add    al,0x2
  402ffc:	add    al,0x7d
  402ffe:	and    eax,0x2040000
  403003:	add    bh,dh
  403005:	push   es
  403006:	push   esi
  403007:	add    BYTE PTR [eax],al
  403009:	push   es
  40300a:	jae    0x40305e
  40300c:	add    BYTE PTR [eax],al
  40300e:	or     dh,BYTE PTR [ebx+0x53]
  403011:	add    BYTE PTR [eax],al
  403013:	or     bh,BYTE PTR [ebp+0x29]
  403016:	add    BYTE PTR [eax],al
  403018:	add    al,0x2
  40301a:	jnp    0x403045
  40301c:	add    BYTE PTR [eax],al
  40301e:	add    al,0x6f
  403020:	push   esp
  403021:	add    BYTE PTR [eax],al
  403023:	or     al,BYTE PTR [eax]
  403025:	add    BYTE PTR [edx],ch
  403027:	add    BYTE PTR [ebx],al
  403029:	xor    BYTE PTR [ebx],al
  40302b:	add    bl,bh
	...
  403035:	add    dl,BYTE PTR [edi]
  403037:	jge    0x40305f
  403039:	add    BYTE PTR [eax],al
  40303b:	add    al,0x2
  40303d:	add    bh,dh
  40303f:	push   es
  403040:	pop    ebx
  403041:	add    BYTE PTR [eax],al
  403043:	push   es
  403044:	jae    0x403098
  403046:	add    BYTE PTR [eax],al
  403048:	or     dh,BYTE PTR [ebx+0x53]
  40304b:	add    BYTE PTR [eax],al
  40304d:	or     bh,BYTE PTR [ebp+0x23]
  403050:	add    BYTE PTR [eax],al
  403052:	add    al,0x2
  403054:	jnp    0x403075
  403056:	add    BYTE PTR [eax],al
  403058:	add    al,0x2
  40305a:	jnp    0x40307c
  40305c:	add    BYTE PTR [eax],al
  40305e:	add    al,0x6f
  403060:	dec    edx
  403061:	add    BYTE PTR [eax],al
  403063:	or     al,BYTE PTR [eax]
  403065:	add    bh,BYTE PTR [ebx+0x1f]
  403068:	add    BYTE PTR [eax],al
  40306a:	add    al,0x17
  40306c:	outs   dx,DWORD PTR ds:[esi]
  40306d:	dec    ebx
  40306e:	add    BYTE PTR [eax],al
  403070:	or     al,BYTE PTR [eax]
  403072:	add    bh,BYTE PTR [ebx+0x1f]
  403075:	add    BYTE PTR [eax],al
  403077:	add    al,0x1f
  403079:	jg     0x4030ea
  40307b:	dec    esp
  40307c:	add    BYTE PTR [eax],al
  40307e:	or     al,BYTE PTR [eax]
  403080:	add    bh,BYTE PTR [ebx+0x1f]
  403083:	add    BYTE PTR [eax],al
  403085:	add    al,0x2
  403087:	and    eax,0x4a07fe
  40308c:	add    BYTE PTR [esi],al
  40308e:	jae    0x4030dd
  403090:	add    BYTE PTR [eax],al
  403092:	or     ch,BYTE PTR [edi+0x4e]
  403095:	add    BYTE PTR [eax],al
  403097:	or     al,BYTE PTR [eax]
  403099:	add    bh,BYTE PTR [ebx+0x1f]
  40309c:	add    BYTE PTR [eax],al
  40309e:	add    al,0x2
  4030a0:	and    eax,0x4907fe
  4030a5:	add    BYTE PTR [esi],al
  4030a7:	jae    0x4030f6
  4030a9:	add    BYTE PTR [eax],al
  4030ab:	or     ch,BYTE PTR [edi+0x4f]
  4030ae:	add    BYTE PTR [eax],al
  4030b0:	or     al,BYTE PTR [eax]
  4030b2:	add    bh,BYTE PTR [ebx+0x1f]
  4030b5:	add    BYTE PTR [eax],al
  4030b7:	add    al,0x17
  4030b9:	outs   dx,DWORD PTR ds:[esi]
  4030ba:	push   eax
  4030bb:	add    BYTE PTR [eax],al
  4030bd:	or     al,BYTE PTR [eax]
  4030bf:	add    ch,BYTE PTR [eax]
  4030c1:	push   esi
  4030c2:	add    BYTE PTR [eax],al
  4030c4:	or     bh,BYTE PTR [ebp+0x21]
  4030c7:	add    BYTE PTR [eax],al
  4030c9:	add    al,0x2
  4030cb:	jae    0x40312e
  4030cd:	add    BYTE PTR [eax],al
  4030cf:	push   es
  4030d0:	jge    0x4030f9
  4030d2:	add    BYTE PTR [eax],al
  4030d4:	add    al,0x2
  4030d6:	jnp    0x4030ff
  4030d8:	add    BYTE PTR [eax],al
  4030da:	add    al,0x17
  4030dc:	outs   dx,DWORD PTR ds:[esi]
  4030dd:	imul   eax,DWORD PTR [eax],0x0
  4030e0:	or     al,BYTE PTR [eax]
  4030e2:	add    bh,BYTE PTR [ebx+0x27]
  4030e5:	add    BYTE PTR [eax],al
  4030e7:	add    al,0x6f
  4030e9:	ins    BYTE PTR es:[edi],dx
  4030ea:	add    BYTE PTR [eax],al
  4030ec:	or     al,BYTE PTR [eax]
  4030ee:	add    bh,BYTE PTR [ebx+0x27]
  4030f1:	add    BYTE PTR [eax],al
  4030f3:	add    al,0x6f
  4030f5:	ins    DWORD PTR es:[edi],dx
  4030f6:	add    BYTE PTR [eax],al
  4030f8:	or     al,BYTE PTR [eax]
  4030fa:	add    al,BYTE PTR [edx]
  4030fc:	jnp    0x403125
  4030fe:	add    BYTE PTR [eax],al
  403100:	add    al,0x2
  403102:	jnp    0x403127
  403104:	add    BYTE PTR [eax],al
  403106:	add    al,0x6f
  403108:	outs   dx,BYTE PTR ds:[esi]
  403109:	add    BYTE PTR [eax],al
  40310b:	or     dh,BYTE PTR [ebx+0x5d]
  40310e:	add    BYTE PTR [eax],al
  403110:	push   es
  403111:	jge    0x40313b
  403113:	add    BYTE PTR [eax],al
  403115:	add    al,0x2
  403117:	jnp    0x40313c
  403119:	add    BYTE PTR [eax],al
  40311b:	add    al,0x6f
  40311d:	push   esp
  40311e:	add    BYTE PTR [eax],al
  403120:	or     al,BYTE PTR [eax]
  403122:	add    bh,BYTE PTR [ebx+0x27]
  403125:	add    BYTE PTR [eax],al
  403127:	add    al,0x28
  403129:	outs   dx,DWORD PTR ds:[esi]
  40312a:	add    BYTE PTR [eax],al
  40312c:	or     al,BYTE PTR [eax]
  40312e:	sub    bl,BYTE PTR [edx+0x0]
  403131:	add    ch,BYTE PTR [eax]
  403133:	push   esi
  403134:	add    BYTE PTR [eax],al
  403136:	or     bh,BYTE PTR [ebp+0x21]
  403139:	add    BYTE PTR [eax],al
  40313b:	add    al,0x2
  40313d:	pop    ss
  40313e:	(bad)  
  40313f:	adc    edi,DWORD PTR [ebp+0x22]
  403142:	add    BYTE PTR [eax],al
  403144:	add    al,0x2a
  403146:	pop    edx
  403147:	add    BYTE PTR [edx],al
  403149:	sub    BYTE PTR [esi+0x0],dl
  40314c:	add    BYTE PTR [edx],cl
  40314e:	jge    0x403171
  403150:	add    BYTE PTR [eax],al
  403152:	add    al,0x2
  403154:	pop    ss
  403155:	(bad)  
  403156:	adc    edi,DWORD PTR [ebp+0x22]
  403159:	add    BYTE PTR [eax],al
  40315b:	add    al,0x2a
  40315d:	pop    edx
  40315e:	add    BYTE PTR [edx],al
  403160:	sub    BYTE PTR [esi+0x0],dl
  403163:	add    BYTE PTR [edx],cl
  403165:	jge    0x403188
  403167:	add    BYTE PTR [eax],al
  403169:	add    al,0x2
  40316b:	pop    ss
  40316c:	(bad)  
  40316d:	adc    edi,DWORD PTR [ebp+0x22]
  403170:	add    BYTE PTR [eax],al
  403172:	add    al,0x2a
  403174:	pop    edx
  403175:	add    BYTE PTR [edx],al
  403177:	sub    BYTE PTR [esi+0x0],dl
  40317a:	add    BYTE PTR [edx],cl
  40317c:	jge    0x40319f
  40317e:	add    BYTE PTR [eax],al
  403180:	add    al,0x2
  403182:	pop    ss
  403183:	(bad)  
  403184:	adc    edi,DWORD PTR [ebp+0x22]
  403187:	add    BYTE PTR [eax],al
  403189:	add    al,0x2a
  40318b:	add    BYTE PTR [ebx],dl
  40318d:	xor    BYTE PTR [eax+eax*1],al
  403190:	or     eax,0x14000001
  403195:	add    BYTE PTR [eax],al
  403197:	adc    DWORD PTR [eax],eax
  403199:	add    bh,BYTE PTR [ebx+0x28]
  40319c:	add    BYTE PTR [eax],al
  40319e:	add    al,0x6f
  4031a0:	pop    edi
  4031a1:	add    BYTE PTR [eax],al
  4031a3:	push   es
  4031a4:	add    BYTE PTR [edx-0x33],dh
  4031a7:	add    DWORD PTR [eax],eax
  4031a9:	jo     0x4031c2
  4031ab:	lea    eax,[ecx]
  4031ad:	add    BYTE PTR [eax],al
  4031af:	add    DWORD PTR [ebx],ecx
  4031b1:	pop    es
  4031b2:	push   ss
  4031b3:	add    bh,BYTE PTR [ebx+0x20]
  4031b6:	add    BYTE PTR [eax],al
  4031b8:	add    al,0xa2
  4031ba:	pop    es
  4031bb:	sub    BYTE PTR [eax+eax*1],dl
  4031be:	add    BYTE PTR [esi],al
  4031c0:	add    BYTE PTR [edx],dl
  4031c2:	add    BYTE PTR [esi],dl
  4031c4:	push   ss
  4031c5:	add    bh,BYTE PTR [ebx+0x24]
  4031c8:	add    BYTE PTR [eax],al
  4031ca:	add    al,0x28
  4031cc:	push   edi
  4031cd:	add    BYTE PTR [eax],al
  4031cf:	or     al,BYTE PTR [eax]
  4031d1:	sub    esi,DWORD PTR [edx]
  4031d3:	add    BYTE PTR [eax],ah
  4031d5:	call   0x284031dd
  4031da:	pop    edx
  4031db:	add    BYTE PTR [eax],al
  4031dd:	or     al,BYTE PTR [eax]
  4031df:	add    bh,dh
  4031e1:	adc    edi,DWORD PTR [ebx+0x22]
  4031e4:	add    BYTE PTR [eax],al
  4031e6:	add    al,0x16
  4031e8:	inc    BYTE PTR [ecx]
  4031ea:	or     al,0x8
  4031ec:	sub    eax,0x28020016
  4031f1:	push   esi
  4031f2:	add    BYTE PTR [eax],al
  4031f4:	or     bh,BYTE PTR [ebp+0x21]
  4031f7:	add    BYTE PTR [eax],al
  4031f9:	add    al,0x2
  4031fb:	push   ss
  4031fc:	(bad)  
  4031fd:	adc    edi,DWORD PTR [ebp+0x22]
  403200:	add    BYTE PTR [eax],al
  403202:	add    al,0x0
  403204:	add    BYTE PTR [eax],ch
  403206:	push   esi
  403207:	add    BYTE PTR [eax],al
  403209:	or     al,BYTE PTR [edx]
  40320b:	jnp    0x40322e
  40320d:	add    BYTE PTR [eax],al
  40320f:	add    al,0x28
  403211:	pop    eax
  403212:	add    BYTE PTR [eax],al
  403214:	or     al,BYTE PTR [esi]
  403216:	sub    BYTE PTR [eax+0x0],dh
  403219:	add    BYTE PTR [edx],cl
  40321b:	or     al,0x8
  40321d:	sub    eax,0x21f72b4
  403222:	add    BYTE PTR [eax+0x17],dh
  403225:	lea    eax,[ecx]
  403227:	add    BYTE PTR [eax],al
  403229:	add    DWORD PTR [ebx],ecx
  40322b:	pop    es
  40322c:	push   ss
  40322d:	add    bh,BYTE PTR [ebx+0x20]
  403230:	add    BYTE PTR [eax],al
  403232:	add    al,0xa2
  403234:	pop    es
  403235:	sub    BYTE PTR [eax+eax*1],dl
  403238:	add    BYTE PTR [esi],al
  40323a:	add    BYTE PTR [edx],al
  40323c:	jnp    0x40325e
  40323e:	add    BYTE PTR [eax],al
  403240:	add    al,0x2
  403242:	jnp    0x403264
  403244:	add    BYTE PTR [eax],al
  403246:	add    al,0x72
  403248:	arpl   WORD PTR [edx],ax
  40324a:	add    BYTE PTR [eax+0x28],dh
  40324d:	cmp    BYTE PTR [eax],al
  40324f:	add    BYTE PTR [edx],cl
  403251:	push   ss
  403252:	pop    ss
  403253:	sub    BYTE PTR [ecx+0x0],dh
  403256:	add    BYTE PTR [edx],cl
  403258:	add    BYTE PTR [edx],al
  40325a:	jnp    0x403281
  40325c:	add    BYTE PTR [eax],al
  40325e:	add    al,0x2
  403260:	jnp    0x403282
  403262:	add    BYTE PTR [eax],al
  403264:	add    al,0x72
  403266:	arpl   WORD PTR [edx],ax
  403268:	add    BYTE PTR [eax+0x28],dh
  40326b:	cmp    BYTE PTR [eax],al
  40326d:	add    BYTE PTR [edx],cl
  40326f:	outs   dx,DWORD PTR ds:[esi]
  403270:	inc    ebx
  403271:	add    BYTE PTR [eax],al
  403273:	push   es
  403274:	add    BYTE PTR [edx+0x6d],dh
  403277:	add    al,BYTE PTR [eax]
  403279:	jo     0x403292
  40327b:	lea    eax,[ecx]
  40327d:	add    BYTE PTR [eax],al
  40327f:	add    DWORD PTR [ebx],ecx
  403281:	pop    es
  403282:	push   ss
  403283:	add    bh,BYTE PTR [ebx+0x20]
  403286:	add    BYTE PTR [eax],al
  403288:	add    al,0xa2
  40328a:	pop    es
  40328b:	sub    BYTE PTR [eax+eax*1],dl
  40328e:	add    BYTE PTR [esi],al
  403290:	add    BYTE PTR [edx],al
  403292:	push   ss
  403293:	jge    0x4032bb
  403295:	add    BYTE PTR [eax],al
  403297:	add    al,0x2
  403299:	jnp    0x4032c3
  40329b:	add    BYTE PTR [eax],al
  40329d:	add    al,0x6f
  40329f:	pusha  
  4032a0:	add    BYTE PTR [eax],al
  4032a2:	push   es
  4032a3:	add    BYTE PTR [edx],ch
  4032a5:	add    BYTE PTR [eax],al
  4032a7:	add    BYTE PTR [ebx],dl
  4032a9:	xor    BYTE PTR [ecx],al
  4032ab:	add    BYTE PTR [eax+eax*1],cl
  4032ae:	add    BYTE PTR [eax],al
  4032b0:	add    DWORD PTR [eax],eax
  4032b2:	add    BYTE PTR [ecx],dl
  4032b4:	add    BYTE PTR [edx],al
  4032b6:	jnp    0x4032de
  4032b8:	add    BYTE PTR [eax],al
  4032ba:	add    al,0xa
  4032bc:	sub    eax,DWORD PTR [eax]
  4032be:	push   es
  4032bf:	sub    ch,BYTE PTR [edx+0x122802]
  4032c5:	add    BYTE PTR [edx],cl
  4032c7:	add    BYTE PTR [eax],al
  4032c9:	add    al,BYTE PTR [ebx]
  4032cb:	jge    0x4032f7
  4032cd:	add    BYTE PTR [eax],al
  4032cf:	add    al,0x2
  4032d1:	add    al,0x7d
  4032d3:	sub    eax,DWORD PTR [eax]
  4032d5:	add    BYTE PTR [edx+eax*1],al
  4032d8:	inc    BYTE PTR [esi]
  4032da:	pop    esi
  4032db:	add    BYTE PTR [eax],al
  4032dd:	push   es
  4032de:	jae    0x4032e5
  4032e0:	add    BYTE PTR [eax],al
  4032e2:	push   es
  4032e3:	sub    BYTE PTR [ebx],cl
  4032e5:	add    BYTE PTR [eax],al
  4032e7:	push   es
  4032e8:	add    BYTE PTR [eax],al
  4032ea:	sub    al,BYTE PTR [eax]
  4032ec:	adc    esi,DWORD PTR [eax]
  4032ee:	add    al,BYTE PTR [eax]
  4032f0:	aas    
  4032f1:	add    BYTE PTR [eax],al
  4032f3:	add    BYTE PTR ds:0x110000,dl
  4032f9:	add    ch,BYTE PTR [eax]
  4032fb:	pop    edi
  4032fc:	add    BYTE PTR [eax],al
  4032fe:	push   es
  4032ff:	add    BYTE PTR [eax],ch
  403301:	jb     0x403303
  403303:	add    BYTE PTR [edx],cl
  403305:	or     al,BYTE PTR [edx]
  403307:	jnp    0x403334
  403309:	add    BYTE PTR [eax],al
  40330b:	add    al,0xb
  40330d:	adc    al,BYTE PTR [eax]
  40330f:	sub    BYTE PTR [ebx+0x0],dh
  403312:	add    BYTE PTR [edx],cl
  403314:	pop    es
  403315:	xor    ecx,DWORD PTR [ecx]
  403317:	adc    al,BYTE PTR [eax]
  403319:	sub    BYTE PTR [eax+eax*1+0x0],dh
  40331d:	or     ch,BYTE PTR [ebx]
  40331f:	add    DWORD PTR [esi],edx
  403321:	add    BYTE PTR [esi],dl
  403323:	inc    BYTE PTR [ecx]
  403325:	or     al,0x8
  403327:	sub    eax,0x2a7b020d
  40332c:	add    BYTE PTR [eax],al
  40332e:	add    al,0x3
  403330:	outs   dx,DWORD PTR ds:[esi]
  403331:	bound  eax,QWORD PTR [eax]
  403333:	add    BYTE PTR [esi],al
  403335:	add    BYTE PTR [edx],ch
  403337:	sahf   
  403338:	add    BYTE PTR [edx],al
  40333a:	jnp    0x403366
  40333c:	add    BYTE PTR [eax],al
  40333e:	add    al,0x17
  403340:	outs   dx,DWORD PTR ds:[esi]
  403341:	imul   eax,DWORD PTR [eax],0x0
  403344:	or     al,BYTE PTR [eax]
  403346:	add    bh,BYTE PTR [ebx+0x2a]
  403349:	add    BYTE PTR [eax],al
  40334b:	add    al,0x6f
  40334d:	ins    BYTE PTR es:[edi],dx
  40334e:	add    BYTE PTR [eax],al
  403350:	or     al,BYTE PTR [eax]
  403352:	add    bh,BYTE PTR [ebx+0x2a]
  403355:	add    BYTE PTR [eax],al
  403357:	add    al,0x6f
  403359:	jne    0x40335b
  40335b:	add    BYTE PTR [edx],cl
  40335d:	sub    dl,BYTE PTR es:[esi+0x6fe0200]
  403364:	pop    esi
  403365:	add    BYTE PTR [eax],al
  403367:	push   es
  403368:	jae    0x40336f
  40336a:	add    BYTE PTR [eax],al
  40336c:	push   es
  40336d:	sub    BYTE PTR [eax+eax*1],cl
  403370:	add    BYTE PTR [esi],al
  403372:	add    BYTE PTR [edx],al
  403374:	jnp    0x4033a0
  403376:	add    BYTE PTR [eax],al
  403378:	add    al,0x72
  40337a:	mov    ebx,0x6f700002
  40337f:	jbe    0x403381
  403381:	add    BYTE PTR [edx],cl
  403383:	add    BYTE PTR [edx],ch
  403385:	bound  eax,QWORD PTR [edx]
  403387:	adc    al,0x7d
  403389:	sub    al,0x0
  40338b:	add    BYTE PTR [edx+eax*1],al
  40338e:	sub    BYTE PTR [edi+0x0],dh
  403391:	add    BYTE PTR [edx],cl
  403393:	add    BYTE PTR [eax],al
  403395:	add    ch,BYTE PTR [eax]
  403397:	add    BYTE PTR fs:[eax],al
  40339a:	push   es
  40339b:	add    BYTE PTR [eax],al
  40339d:	sub    al,BYTE PTR [eax]
  40339f:	add    BYTE PTR [ebx],dl
  4033a1:	xor    BYTE PTR ds:0x4900,al
  4033a7:	add    BYTE PTR [esi],dl
  4033a9:	add    BYTE PTR [eax],al
  4033ab:	adc    DWORD PTR [eax],eax
  4033ad:	add    ch,BYTE PTR [eax]
  4033af:	js     0x4033b1
  4033b1:	add    BYTE PTR [edx],cl
  4033b3:	push   ss
  4033b4:	inc    BYTE PTR [ecx]
  4033b6:	or     al,BYTE PTR [esi]
  4033b8:	sub    eax,0x2020022
  4033bd:	inc    BYTE PTR [esi]
  4033bf:	bound  eax,QWORD PTR [eax]
  4033c1:	add    BYTE PTR [esi],al
  4033c3:	jae    0x40343e
  4033c5:	add    BYTE PTR [eax],al
  4033c7:	or     dl,BYTE PTR [edi]
  4033c9:	lea    eax,[ecx]
  4033cb:	add    BYTE PTR [eax],al
  4033cd:	add    DWORD PTR [ebx],ecx
  4033cf:	pop    es
  4033d0:	push   ss
  4033d1:	add    esp,DWORD PTR [edx+0x7a2807]
  4033d7:	add    BYTE PTR [edx],cl
  4033d9:	sub    ebx,DWORD PTR es:[eax]
  4033dc:	add    bh,BYTE PTR [ebx+0x2d]
  4033df:	add    BYTE PTR [eax],al
  4033e1:	add    al,0x25
  4033e3:	outs   dx,DWORD PTR ds:[esi]
  4033e4:	jnp    0x4033e6
  4033e6:	add    BYTE PTR [edx],cl
  4033e8:	add    ebp,DWORD PTR [eax]
  4033ea:	cmp    BYTE PTR [eax],al
  4033ec:	add    BYTE PTR [edx],cl
  4033ee:	outs   dx,DWORD PTR ds:[esi]
  4033ef:	jbe    0x4033f1
  4033f1:	add    BYTE PTR [edx],cl
  4033f3:	add    BYTE PTR [edx],ch
  4033f5:	add    BYTE PTR [eax],al
  4033f7:	add    BYTE PTR [ebx],dl
  4033f9:	xor    BYTE PTR [edx],al
  4033fb:	add    BYTE PTR [eax+eax*1],ch
  4033fe:	add    BYTE PTR [eax],al
  403400:	add    DWORD PTR [eax],eax
  403402:	add    BYTE PTR [ecx],dl
  403404:	add    BYTE PTR [ebx],al
  403406:	sub    al,0xb
  403408:	add    bh,BYTE PTR [ebx+0x2c]
  40340b:	add    BYTE PTR [eax],al
  40340d:	add    al,0x14
  40340f:	inc    BYTE PTR [ecx]
  403411:	sub    eax,DWORD PTR [ecx]
  403413:	pop    ss
  403414:	add    BYTE PTR [edx],cl
  403416:	push   es
  403417:	sub    eax,0x7b02000e
  40341c:	sub    al,0x0
  40341e:	add    BYTE PTR [edi+ebp*2],al
  403421:	sub    eax,DWORD PTR [eax]
  403423:	add    BYTE PTR [edx],cl
  403425:	add    BYTE PTR [eax],al
  403427:	add    al,BYTE PTR [ebx]
  403429:	sub    BYTE PTR [eax+eax*1+0x0],bh
  40342d:	or     al,BYTE PTR [eax]
  40342f:	sub    al,BYTE PTR [ebx]
  403431:	xor    BYTE PTR [esi],al
  403433:	add    BYTE PTR [edx],al
  403435:	add    DWORD PTR [eax],eax
  403437:	add    BYTE PTR [eax],al
  403439:	add    BYTE PTR [eax],al
  40343b:	add    BYTE PTR [eax],al
  40343d:	add    dh,BYTE PTR [ebx+0x7d]
  403440:	add    BYTE PTR [eax],al
  403442:	or     bh,BYTE PTR [ebp+0x2d]
  403445:	add    BYTE PTR [eax],al
  403447:	add    al,0x2
  403449:	sub    BYTE PTR [esi+0x0],bh
  40344c:	add    BYTE PTR [edx],cl
  40344e:	add    BYTE PTR [edx],al
  403450:	jnp    0x40347f
  403452:	add    BYTE PTR [eax],al
  403454:	add    al,0x1b
  403456:	outs   dx,DWORD PTR ds:[esi]
  403457:	jg     0x403459
  403459:	add    BYTE PTR [edx],cl
  40345b:	add    BYTE PTR [edx],al
  40345d:	jnp    0x40348c
  40345f:	add    BYTE PTR [eax],al
  403461:	add    al,0x72
  403463:	fld    QWORD PTR [edx]
  403465:	add    BYTE PTR [eax+0x22],dh
  403468:	add    BYTE PTR [eax],al
  40346a:	inc    eax
  40346b:	inc    ecx
  40346c:	pop    ss
  40346d:	sbb    DWORD PTR [esi],edx
  40346f:	jae    0x4033f1
  403471:	add    BYTE PTR [eax],al
  403473:	or     ch,BYTE PTR [edi-0x7f]
  403476:	add    BYTE PTR [eax],al
  403478:	or     al,BYTE PTR [eax]
  40347a:	add    bh,BYTE PTR [ebx+0x2d]
  40347d:	add    BYTE PTR [eax],al
  40347f:	add    al,0x16
  403481:	push   ss
  403482:	jae    0x403406
  403484:	add    BYTE PTR [eax],al
  403486:	or     ch,BYTE PTR [edi-0x7d]
  403489:	add    BYTE PTR [eax],al
  40348b:	or     al,BYTE PTR [eax]
  40348d:	add    bh,BYTE PTR [ebx+0x2d]
  403490:	add    BYTE PTR [eax],al
  403492:	add    al,0x72
  403494:	pop    es
  403495:	add    eax,DWORD PTR [eax]
  403497:	jo     0x403508
  403499:	test   BYTE PTR [eax],al
  40349b:	add    BYTE PTR [edx],cl
  40349d:	add    BYTE PTR [edx],al
  40349f:	jnp    0x4034ce
  4034a1:	add    BYTE PTR [eax],al
  4034a3:	add    al,0x20
  4034a5:	dec    edx
  4034a6:	add    al,0x0
  4034a8:	add    BYTE PTR [eax],ah
  4034aa:	and    al,0x1
  4034ac:	add    BYTE PTR [eax],al
  4034ae:	jae    0x403435
  4034b0:	add    BYTE PTR [eax],al
  4034b2:	or     ch,BYTE PTR [edi-0x7a]
  4034b5:	add    BYTE PTR [eax],al
  4034b7:	or     al,BYTE PTR [eax]
  4034b9:	add    bh,BYTE PTR [ebx+0x2d]
  4034bc:	add    BYTE PTR [eax],al
  4034be:	add    al,0x16
  4034c0:	outs   dx,DWORD PTR ds:[esi]
  4034c1:	xchg   DWORD PTR [eax],eax
  4034c3:	add    BYTE PTR [edx],cl
  4034c5:	add    BYTE PTR [edx],al
  4034c7:	jnp    0x4034f6
  4034c9:	add    BYTE PTR [eax],al
  4034cb:	add    al,0x72
  4034cd:	and    eax,DWORD PTR [eax]
  4034cf:	add    BYTE PTR [eax+0x6f],dh
  4034d2:	jbe    0x4034d4
  4034d4:	add    BYTE PTR [edx],cl
  4034d6:	add    BYTE PTR [edx],al
  4034d8:	and    al,BYTE PTR [eax]
  4034da:	add    al,al
  4034dc:	inc    eax
  4034dd:	and    al,BYTE PTR [eax]
  4034df:	add    BYTE PTR [eax+0x41],dl
  4034e2:	jae    0x40346c
  4034e4:	add    BYTE PTR [eax],al
  4034e6:	or     ch,BYTE PTR [eax]
  4034e8:	mov    DWORD PTR [eax],eax
  4034ea:	add    BYTE PTR [edx],cl
  4034ec:	add    BYTE PTR [edx],al
  4034ee:	pop    ss
  4034ef:	sub    BYTE PTR [edx+0xa0000],cl
  4034f5:	add    ah,BYTE PTR [eax]
  4034f7:	dec    edx
  4034f8:	add    al,0x0
  4034fa:	add    BYTE PTR [eax],ah
  4034fc:	and    al,0x1
  4034fe:	add    BYTE PTR [eax],al
  403500:	jae    0x403487
  403502:	add    BYTE PTR [eax],al
  403504:	or     ch,BYTE PTR [eax]
  403506:	mov    eax,DWORD PTR [eax]
  403508:	add    BYTE PTR [edx],cl
  40350a:	add    BYTE PTR [edx],al
  40350c:	sub    BYTE PTR [eax+eax*1+0x7b020a00],cl
  403513:	sub    eax,0x6f040000
  403518:	lea    eax,[eax]
  40351a:	add    BYTE PTR [edx],cl
  40351c:	add    BYTE PTR [edx],al
  40351e:	jb     0x403541
  403520:	add    eax,DWORD PTR [eax]
  403522:	jo     0x40354c
  403524:	test   BYTE PTR [eax],al
  403526:	add    BYTE PTR [edx],cl
  403528:	add    BYTE PTR [edx],al
  40352a:	jb     0x403569
  40352c:	add    eax,DWORD PTR [eax]
  40352e:	jo     0x40359f
  403530:	jbe    0x403532
  403532:	add    BYTE PTR [edx],cl
  403534:	add    BYTE PTR [edx],al
  403536:	push   ss
  403537:	sub    BYTE PTR [esi+0xa0000],cl
  40353d:	sub    al,BYTE PTR [eax]
  40353f:	add    BYTE PTR [eax+eax*1-0x35320000],dh
  403546:	out    dx,eax
  403547:	mov    esi,0x1
  40354c:	xchg   ecx,eax
  40354d:	add    BYTE PTR [eax],al
  40354f:	add    BYTE PTR [ebx+edx*2+0x79],ch
  403553:	jae    0x4035c9
  403555:	gs ins DWORD PTR es:[edi],dx
  403557:	cs push edx
  403559:	gs jae 0x4035cb
  40355c:	jne    0x4035d0
  40355e:	arpl   WORD PTR [ebp+0x73],sp
  403561:	cs push edx
  403563:	gs jae 0x4035d5
  403566:	jne    0x4035da
  403568:	arpl   WORD PTR [ebp+0x52],sp
  40356b:	gs popa 
  40356d:	fs gs jb 0x40359d
  403571:	and    BYTE PTR [ebp+0x73],ch
  403574:	arpl   WORD PTR [edi+0x72],bp
  403577:	ins    BYTE PTR es:[edi],dx
  403578:	imul   esp,DWORD PTR [edx+0x2c],0x72655620
  40357f:	jae    0x4035ea
  403581:	outs   dx,DWORD PTR ds:[esi]
  403582:	outs   dx,BYTE PTR ds:[esi]
  403583:	cmp    eax,0x2e302e34
  403588:	xor    BYTE PTR [esi],ch
  40358a:	xor    BYTE PTR [eax+eiz*1],ch
  40358d:	inc    ebx
  40358e:	jne    0x4035fc
  403590:	je     0x403607
  403592:	jb     0x4035f9
  403594:	cmp    eax,0x7475656e
  403599:	jb     0x4035fc
  40359b:	ins    BYTE PTR es:[edi],dx
  40359c:	sub    al,0x20
  40359e:	push   eax
  40359f:	jne    0x403603
  4035a1:	ins    BYTE PTR es:[edi],dx
  4035a2:	imul   esp,DWORD PTR [ebx+0x4b],0x6f547965
  4035a9:	imul   esp,DWORD PTR [ebp+0x6e],0x3d
  4035ad:	bound  esi,QWORD PTR [edi]
  4035af:	aaa    
  4035b0:	popa   
  4035b1:	xor    eax,0x31363563
  4035b6:	cmp    DWORD PTR [ebx],esi
  4035b8:	xor    al,0x65
  4035ba:	xor    BYTE PTR [eax],bh
  4035bc:	cmp    DWORD PTR [ebx],esp
  4035be:	push   ebx
  4035bf:	jns    0x403634
  4035c1:	je     0x403628
  4035c3:	ins    DWORD PTR es:[edi],dx
  4035c4:	cs push edx
  4035c6:	gs jae 0x403638
  4035c9:	jne    0x40363d
  4035cb:	arpl   WORD PTR [ebp+0x73],sp
  4035ce:	cs push edx
  4035d0:	jne    0x403640
  4035d2:	je     0x40363d
  4035d4:	ins    DWORD PTR es:[edi],dx
  4035d5:	gs push edx
  4035d7:	gs jae 0x403649
  4035da:	jne    0x40364e
  4035dc:	arpl   WORD PTR [ebp+0x53],sp
  4035df:	gs je  0x4035e4
	...
  4035ea:	add    BYTE PTR [eax],al
  4035ec:	add    BYTE PTR [eax+0x41],dl
  4035ef:	inc    esp
  4035f0:	push   eax
  4035f1:	inc    ecx
  4035f2:	inc    esp
  4035f3:	push   eax
  4035f4:	mov    ah,0x0
  4035f6:	add    BYTE PTR [eax],al
  4035f8:	inc    edx
  4035f9:	push   ebx
  4035fa:	dec    edx
  4035fb:	inc    edx
  4035fc:	add    DWORD PTR [eax],eax
  4035fe:	add    DWORD PTR [eax],eax
  403600:	add    BYTE PTR [eax],al
  403602:	add    BYTE PTR [eax],al
  403604:	or     al,0x0
  403606:	add    BYTE PTR [eax],al
  403608:	jbe    0x40363e
  40360a:	xor    BYTE PTR cs:[esi],ch
  40360d:	xor    esi,DWORD PTR [eax]
  40360f:	xor    esi,DWORD PTR [ecx]
  403611:	cmp    DWORD PTR [eax],eax
  403613:	add    BYTE PTR [eax],al
  403615:	add    BYTE PTR ds:0x6c00,al
  40361b:	add    BYTE PTR [ecx+edx*1+0x7e230000],dl
  403622:	add    BYTE PTR [eax],al
  403624:	add    BYTE PTR [edx],dl
  403626:	add    BYTE PTR [eax],al
  403628:	cmp    BYTE PTR [ecx],dl
  40362a:	add    BYTE PTR [eax],al
  40362c:	and    edx,DWORD PTR [ebx+0x74]
  40362f:	jb     0x40369a
  403631:	outs   dx,BYTE PTR ds:[esi]
  403632:	addr16 jae 0x403635
  403635:	add    BYTE PTR [eax],al
  403637:	add    BYTE PTR [eax],bh
  403639:	and    eax,DWORD PTR [eax]
  40363b:	add    BYTE PTR [ebx+eax*1+0x55230000],cl
  403642:	push   ebx
  403643:	add    ah,al
  403645:	add    BYTE PTR es:[eax],al
  403648:	adc    BYTE PTR [eax],al
  40364a:	add    BYTE PTR [eax],al
  40364c:	and    eax,DWORD PTR [edi+0x55]
  40364f:	dec    ecx
  403650:	inc    esp
  403651:	add    BYTE PTR [eax],al
  403653:	add    ah,dl
  403655:	add    BYTE PTR es:[eax],al
  403658:	xor    al,0x5
  40365a:	add    BYTE PTR [eax],al
  40365c:	and    eax,DWORD PTR [edx+0x6c]
  40365f:	outs   dx,DWORD PTR ds:[esi]
  403660:	bound  eax,QWORD PTR [eax]
  403662:	add    BYTE PTR [eax],al
  403664:	add    BYTE PTR [eax],al
  403666:	add    BYTE PTR [eax],al
  403668:	add    al,BYTE PTR [eax]
  40366a:	add    BYTE PTR [ecx],al
  40366c:	push   edi
  40366d:	pop    ss
  40366e:	mov    dh,0x1d
  403670:	or     DWORD PTR [ebx],ecx
  403672:	add    BYTE PTR [eax],al
  403674:	add    dl,bh
  403676:	and    eax,0x160033
  40367b:	add    BYTE PTR [ecx],al
  40367d:	add    BYTE PTR [eax],al
  40367f:	add    BYTE PTR [eax+0x0],ah
  403682:	add    BYTE PTR [eax],al
  403684:	adc    al,BYTE PTR [eax]
  403686:	add    BYTE PTR [eax],al
  403688:	sub    eax,0x64000000
  40368d:	add    BYTE PTR [eax],al
  40368f:	add    BYTE PTR [esi+0x0],cl
  403692:	add    BYTE PTR [eax],al
  403694:	add    DWORD PTR [eax],eax
  403696:	add    BYTE PTR [eax],al
  403698:	mov    es,WORD PTR [eax]
  40369a:	add    BYTE PTR [eax],al
  40369c:	sbb    al,BYTE PTR [eax]
  40369e:	add    BYTE PTR [eax],al
  4036a0:	push   ss
  4036a1:	add    BYTE PTR [eax],al
  4036a3:	add    BYTE PTR [edx],al
  4036a5:	add    BYTE PTR [eax],al
  4036a7:	add    BYTE PTR [edx],al
  4036a9:	add    BYTE PTR [eax],al
  4036ab:	add    BYTE PTR [edx],al
  4036ad:	add    BYTE PTR [eax],al
  4036af:	add    BYTE PTR [esi],al
  4036b1:	add    BYTE PTR [eax],al
  4036b3:	add    BYTE PTR [edi],cl
  4036b5:	add    BYTE PTR [eax],al
  4036b7:	add    BYTE PTR [ecx],al
  4036b9:	add    BYTE PTR [eax],al
  4036bb:	add    BYTE PTR ds:0x1000000,al
  4036c1:	add    BYTE PTR [eax],al
  4036c3:	add    BYTE PTR [ecx],al
  4036c5:	add    BYTE PTR [eax],al
  4036c7:	add    BYTE PTR [esi],al
  4036c9:	add    BYTE PTR [eax],al
  4036cb:	add    BYTE PTR [ecx],al
  4036cd:	add    BYTE PTR [eax],al
  4036cf:	add    BYTE PTR [eax+eax*1],al
  4036d2:	add    BYTE PTR [eax],al
  4036d4:	add    DWORD PTR [eax],eax
  4036d6:	add    BYTE PTR [eax],al
  4036d8:	add    BYTE PTR [eax],al
  4036da:	or     al,BYTE PTR [eax]
  4036dc:	add    DWORD PTR [eax],eax
  4036de:	add    BYTE PTR [eax],al
  4036e0:	add    BYTE PTR [eax],al
  4036e2:	push   es
  4036e3:	add    BYTE PTR ds:0x6010e01,dl
  4036e9:	add    BYTE PTR [ecx+eax*1],bl
  4036ec:	push   cs
  4036ed:	add    DWORD PTR [esi],eax
  4036ef:	add    BYTE PTR [eax],ch
  4036f1:	add    DWORD PTR [esi],ecx
  4036f3:	add    DWORD PTR [esi],eax
  4036f5:	add    BYTE PTR [edx],bh
  4036f7:	add    DWORD PTR [esi],ecx
  4036f9:	add    DWORD PTR [edx],ecx
  4036fb:	add    BYTE PTR [edx+0x1],ah
  4036fe:	dec    ebp
  4036ff:	add    DWORD PTR [esi],eax
  403701:	add    BYTE PTR [esi+0x6010e01],ah
  403707:	add    BYTE PTR [ebx+0x6010e01],dh
  40370d:	add    dh,dl
  40370f:	add    cl,ah
  403711:	add    cl,BYTE PTR [esi]
  403713:	add    BYTE PTR [ebx],bh
  403715:	add    ebp,DWORD PTR [eax]
  403717:	add    eax,DWORD PTR [esi]
  403719:	add    BYTE PTR [ecx+0x6038503],dl
  40371f:	add    BYTE PTR [ebx+0x4],bh
  403722:	pusha  
  403723:	add    al,0x6
  403725:	add    BYTE PTR [ecx+0x6048804],bl
  40372b:	add    dh,dl
  40372d:	add    al,0x88
  40372f:	add    al,0x12
  403731:	add    BYTE PTR [ebx],dh
  403733:	add    eax,0xe0520
  403738:	gs add eax,0xe0546
  40373e:	jo     0x403745
  403740:	int3   
  403741:	add    cl,BYTE PTR [esi]
  403743:	add    dl,cl
  403745:	add    eax,0x602cc
  40374a:	icebp  
  40374b:	add    eax,0x6010e
  403750:	and    al,0x6
  403752:	add    al,0x6
  403754:	push   es
  403755:	add    BYTE PTR [edi+0x6],cl
  403758:	cmp    BYTE PTR [esi],al
  40375a:	push   cs
  40375b:	add    ch,ch
  40375d:	push   es
  40375e:	xlat   BYTE PTR ds:[ebx]
  40375f:	push   es
  403760:	or     al,BYTE PTR [eax]
  403762:	pop    ss
  403763:	pop    es
  403764:	dec    ebp
  403765:	add    DWORD PTR [esi],eax
  403767:	add    BYTE PTR [edi+eax*1+0x6010e],al
  40376e:	xor    eax,0x6081b08
  403773:	add    BYTE PTR [eax+0x8],ah
  403776:	dec    esi
  403777:	or     BYTE PTR [esi],al
  403779:	add    BYTE PTR [edi+0x8],dh
  40377c:	dec    esi
  40377d:	or     BYTE PTR [esi],al
  40377f:	add    BYTE PTR [eax+ecx*1+0x6084e],dl
  403786:	mov    bl,0x8
  403788:	dec    esi
  403789:	or     BYTE PTR [esi],al
  40378b:	add    ah,cl
  40378d:	or     BYTE PTR [esi+0x8],cl
  403790:	push   es
  403791:	add    ch,ah
  403793:	or     BYTE PTR [esi+0x8],cl
  403796:	push   es
  403797:	add    BYTE PTR [eax],al
  403799:	or     DWORD PTR [esi+0x8],ecx
  40379c:	push   es
  40379d:	add    BYTE PTR [ebx],bl
  40379f:	or     DWORD PTR [esi+0x8],ecx
  4037a2:	push   es
  4037a3:	add    BYTE PTR [ebx+0x9],dl
  4037a6:	xor    al,0x9
  4037a8:	push   es
  4037a9:	add    BYTE PTR [edi+0x9],ah
  4037ac:	xor    al,0x9
  4037ae:	push   es
  4037af:	add    BYTE PTR [ebp+0x9],dh
  4037b2:	dec    esi
  4037b3:	or     BYTE PTR [esi],al
  4037b5:	add    BYTE PTR [esi+0x6084e09],cl
  4037bb:	add    BYTE PTR [ebx-0x68fcd7f7],ch
  4037c1:	add    BYTE PTR [edi+0x6000009],bh
  4037c7:	add    dh,cl
  4037c9:	or     DWORD PTR [esi+eax*1],eax
  4037cc:	push   es
  4037cd:	add    dh,ch
  4037cf:	or     DWORD PTR [esi+eax*1],eax
  4037d2:	push   es
  4037d3:	add    BYTE PTR [edx+ecx*1],cl
  4037d6:	mov    BYTE PTR [esi+eax*1],al
  4037d9:	add    BYTE PTR [edi],bl
  4037db:	or     cl,BYTE PTR [esi]
  4037dd:	add    DWORD PTR [esi],eax
  4037df:	add    BYTE PTR [ebx],dh
  4037e1:	or     cl,BYTE PTR [esi]
  4037e3:	add    DWORD PTR [esi],eax
  4037e5:	add    BYTE PTR [ebx+0xa],cl
  4037e8:	push   cs
  4037e9:	add    DWORD PTR [esi],eax
  4037eb:	add    BYTE PTR [edx+ecx*1-0x78],bl
  4037ef:	add    al,0x6
  4037f1:	add    BYTE PTR [edi+0xa],bh
  4037f4:	add    al,0x6
  4037f6:	push   es
  4037f7:	add    BYTE PTR [edx+0x602cc0a],bl
  4037fd:	add    BYTE PTR [eax+0x602cc0a],dh
  403803:	add    BYTE PTR [edx+0x602cc0a],bh
  403809:	add    al,bl
  40380b:	or     cl,ah
  40380d:	add    ch,BYTE PTR [edi]
  40380f:	add    BYTE PTR [ebx],dl
  403811:	or     eax,DWORD PTR [eax]
  403813:	add    bh,cl
  403815:	add    BYTE PTR [edx],ch
  403817:	or     eax,DWORD PTR [eax]
  403819:	add    BYTE PTR [esi],al
  40381b:	add    BYTE PTR [eax+0xb],bl
  40381e:	push   cs
  40381f:	add    DWORD PTR [esi],eax
  403821:	add    BYTE PTR [ecx+0xb],ah
  403824:	push   cs
  403825:	add    DWORD PTR [esi],eax
  403827:	add    BYTE PTR [esi+0xb],ah
  40382a:	push   cs
  40382b:	add    DWORD PTR [esi],eax
  40382d:	add    BYTE PTR [edx+0xb],bh
  403830:	xor    al,0x9
  403832:	push   es
  403833:	add    BYTE PTR [esi+0x602cc0b],dl
  403839:	add    BYTE PTR [ebx+ecx*1+0x602cc],ch
  403840:	ror    DWORD PTR [ebx],cl
  403842:	mov    bh,0xb
  403844:	push   es
  403845:	add    ch,dh
  403847:	or     esi,DWORD PTR [ecx+ecx*1]
  40384a:	push   es
  40384b:	add    BYTE PTR [edi+0xc],bl
  40384e:	ds or  al,0x6
  403851:	add    BYTE PTR [eax+0xc],bh
  403854:	push   cs
  403855:	add    DWORD PTR [esi],eax
  403857:	add    BYTE PTR [esi+0xc],bh
  40385a:	push   cs
  40385b:	add    DWORD PTR [edx],ecx
  40385d:	add    BYTE PTR [ecx+0x6014d0c],dl
  403863:	add    dl,dl
  403865:	or     al,0x88
  403867:	add    al,0xe
  403869:	add    al,bl
  40386b:	or     al,0x28
  40386d:	add    ecx,DWORD PTR [esi]
  40386f:	add    BYTE PTR [ebp+ecx*1-0x34],cl
  403873:	add    cl,BYTE PTR [esi]
  403875:	add    BYTE PTR [ebx+0xd],ch
  403878:	int3   
  403879:	add    al,BYTE PTR [esi]
  40387b:	add    BYTE PTR [edx+0x6010e0d],dh
  403881:	add    BYTE PTR [edi+0x604880d],bh
  403887:	add    dl,bl
  403889:	or     eax,0x6010e
  40388e:	pop    es
  40388f:	push   cs
  403890:	mov    BYTE PTR [esi+eax*1],al
  403893:	add    BYTE PTR [edi],ah
  403895:	push   cs
  403896:	int3   
  403897:	add    cl,BYTE PTR [esi]
  403899:	add    BYTE PTR [ecx],dh
  40389b:	push   cs
  40389c:	inc    esi
  40389d:	add    eax,0xe450012
  4038a2:	ds push cs
  4038a4:	push   cs
  4038a5:	add    BYTE PTR [esi+ecx*1+0x46],bl
  4038a9:	add    eax,0xe62000e
  4038ae:	inc    esi
  4038af:	add    eax,0xe7d000e
  4038b4:	inc    esi
  4038b5:	add    eax,0xe83000e
  4038ba:	inc    esi
  4038bb:	add    eax,0xea4000e
  4038c0:	int3   
  4038c1:	add    al,BYTE PTR [esi]
  4038c3:	add    bl,dl
  4038c5:	push   cs
  4038c6:	int3   
  4038c7:	add    cl,BYTE PTR [edx]
  4038c9:	add    ah,bh
  4038cb:	push   cs
  4038cc:	dec    ebp
  4038cd:	add    DWORD PTR [esi],edx
  4038cf:	add    BYTE PTR [ecx+0xf],bl
  4038d2:	inc    ebx
  4038d3:	femms  
  4038d5:	add    BYTE PTR [ecx+0xf],ah
  4038d8:	inc    ebx
  4038d9:	clts   
  4038db:	add    BYTE PTR [esi+0x6010e0f],al
  4038e1:	add    al,ah
  4038e3:	femms  
  4038e5:	add    DWORD PTR [edx],ecx
  4038e7:	add    BYTE PTR [eax],al
  4038e9:	adc    BYTE PTR [ebp+0x1],cl
  4038ec:	sbb    al,BYTE PTR [eax]
  4038ee:	and    dl,BYTE PTR [eax]
  4038f0:	adc    edx,DWORD PTR [eax]
  4038f2:	sbb    al,BYTE PTR [eax]
  4038f4:	daa    
  4038f5:	adc    BYTE PTR [ebx],dl
  4038f7:	adc    BYTE PTR [edx],bl
  4038f9:	add    BYTE PTR [ecx],dh
  4038fb:	adc    BYTE PTR [ebx],dl
  4038fd:	adc    BYTE PTR [edx],bl
  4038ff:	add    BYTE PTR [edi+0x10],al
  403902:	adc    edx,DWORD PTR [eax]
  403904:	sbb    al,BYTE PTR [eax]
  403906:	arpl   WORD PTR [eax],dx
  403908:	adc    edx,DWORD PTR [eax]
  40390a:	sbb    al,BYTE PTR [eax]
  40390c:	jle    0x40391e
  40390e:	adc    edx,DWORD PTR [eax]
  403910:	or     al,BYTE PTR [eax]
  403912:	test   BYTE PTR [eax],dl
  403914:	dec    ebp
  403915:	add    DWORD PTR [edx],ecx
  403917:	add    BYTE PTR [ebp+0x4b014d10],ch
  40391d:	add    esp,ebx
  40391f:	adc    BYTE PTR [eax],al
  403921:	add    BYTE PTR [eax],al
  403923:	add    BYTE PTR [eax],al
  403925:	add    BYTE PTR [ecx],al
  403927:	add    BYTE PTR [eax],al
  403929:	add    BYTE PTR [eax],al
  40392b:	add    BYTE PTR [ecx],al
  40392d:	add    BYTE PTR [ecx],al
  40392f:	add    BYTE PTR [ecx],al
  403931:	add    BYTE PTR [eax],dl
  403933:	add    BYTE PTR [edi],bl
  403935:	add    BYTE PTR [ebx],dh
  403937:	add    BYTE PTR ds:0x1000100,al
  40393d:	add    BYTE PTR [ecx],al
  40393f:	add    DWORD PTR [eax],eax
  403941:	add    BYTE PTR [eax+eax*1+0x33],al
  403945:	add    BYTE PTR ds:0x5000500,cl
  40394b:	add    BYTE PTR [ecx],al
  40394d:	add    BYTE PTR [eax],dl
  40394f:	add    BYTE PTR [esi+0x0],cl
  403952:	xor    eax,DWORD PTR [eax]
  403954:	add    eax,0x9000500
  403959:	add    BYTE PTR [eax+0x5c001001],al
  40395f:	add    BYTE PTR [ebx],dh
  403961:	add    BYTE PTR ds:0xb000500,al
  403967:	add    BYTE PTR [eax],al
  403969:	add    BYTE PTR [eax],dl
  40396b:	add    BYTE PTR [ebx+0x0],ah
  40396e:	xor    eax,DWORD PTR [eax]
  403970:	add    eax,0x1e000600
  403975:	add    BYTE PTR [ebx],al
  403977:	add    BYTE PTR [eax],dl
  403979:	add    BYTE PTR [esi+0x0],ch
  40397c:	add    BYTE PTR [eax],al
  40397e:	adc    DWORD PTR [eax],eax
  403980:	(bad)  
  403982:	cmp    al,BYTE PTR [eax]
  403984:	add    eax,DWORD PTR [eax]
  403986:	adc    BYTE PTR [eax],al
  403988:	jbe    0x40398a
  40398a:	add    BYTE PTR [eax],al
  40398c:	add    eax,0x3b001300
  403991:	add    BYTE PTR [eax],al
  403993:	add    BYTE PTR [eax],dl
  403995:	add    BYTE PTR [eax+eax*1+0x50033],al
  40399c:	pop    ss
  40399d:	add    BYTE PTR [edi],bh
  40399f:	add    BYTE PTR [ebx],al
  4039a1:	add    BYTE PTR [eax],dl
  4039a3:	add    BYTE PTR [eax+eax*1+0x50000],cl
  4039aa:	pop    ss
  4039ab:	add    BYTE PTR [ecx+0x0],al
  4039ae:	add    BYTE PTR [eax],0x10
  4039b1:	add    BYTE PTR [eax+0x5003300],bl
  4039b7:	add    BYTE PTR [ecx],bl
  4039b9:	add    BYTE PTR [ebx+0x0],al
  4039bc:	add    BYTE PTR [eax],al
  4039be:	adc    BYTE PTR [eax],al
  4039c0:	test   al,0x0
  4039c2:	xor    eax,DWORD PTR [eax]
  4039c4:	sub    al,0x0
  4039c6:	sbb    DWORD PTR [eax],eax
  4039c8:	inc    ebp
  4039c9:	add    BYTE PTR [eax],al
  4039cb:	add    BYTE PTR [eax],dl
  4039cd:	add    BYTE PTR [eax+0x2c003300],bh
  4039d3:	add    BYTE PTR [edx],bl
  4039d5:	add    BYTE PTR [edi+0x0],al
  4039d8:	add    BYTE PTR [eax],0x10
  4039db:	add    bl,al
  4039dd:	add    BYTE PTR [ebx],dh
  4039df:	add    BYTE PTR ds:0x49001d00,al
  4039e5:	add    BYTE PTR [eax],al
  4039e7:	add    BYTE PTR [eax],dl
  4039e9:	add    ah,cl
  4039eb:	add    BYTE PTR [ebx],dh
  4039ed:	add    BYTE PTR [eax],bh
  4039ef:	add    BYTE PTR ds:0x4f00,bl
  4039f5:	add    BYTE PTR [eax],dl
  4039f7:	add    bl,bl
  4039f9:	add    BYTE PTR [ebx],dh
  4039fb:	add    BYTE PTR [eax],bh
  4039fd:	add    BYTE PTR [edi],bl
  4039ff:	add    BYTE PTR [ebp+0x0],dl
  403a02:	add    al,BYTE PTR [eax]
  403a04:	adc    BYTE PTR [eax],al
  403a06:	in     eax,0x0
  403a08:	add    BYTE PTR [eax],al
  403a0a:	add    eax,0x5d002a00
  403a0f:	add    BYTE PTR [ecx],al
  403a11:	add    BYTE PTR [eax],dl
  403a13:	add    bh,dh
  403a15:	add    BYTE PTR [ebx],dh
  403a17:	add    BYTE PTR ds:0x61002c00,dl
  403a1d:	add    BYTE PTR [ecx],al
  403a1f:	add    BYTE PTR [edi+0x1],ah
  403a22:	or     al,BYTE PTR [eax]
  403a24:	add    DWORD PTR [eax],eax
  403a26:	jno    0x403a29
  403a28:	or     al,BYTE PTR [eax]
  403a2a:	add    DWORD PTR [eax],eax
  403a2c:	jnp    0x403a2f
  403a2e:	or     eax,0x96000100
  403a33:	add    DWORD PTR [edx],ebx
  403a35:	add    BYTE PTR [ecx],dl
  403a37:	add    BYTE PTR [ecx],cl
  403a39:	add    al,BYTE PTR [edx+0x0]
  403a3c:	add    DWORD PTR [eax],eax
  403a3e:	test   eax,0x1007402
  403a43:	add    bl,ah
  403a45:	add    al,BYTE PTR [edi-0xfffff00]
  403a4b:	add    cl,BYTE PTR [edx]
  403a4d:	add    BYTE PTR [ecx],dl
  403a4f:	add    dh,bh
  403a51:	add    cl,BYTE PTR [ebx+0x79000100]
  403a57:	add    ecx,DWORD PTR ds:0x9f000100
  403a5d:	add    esp,DWORD PTR [ebx-0x58ffff00]
  403a63:	add    esp,DWORD PTR [edi-0xfffff00]
  403a69:	add    esp,DWORD PTR [edi+0xc000100]
  403a6f:	add    al,0xc6
  403a71:	add    BYTE PTR [esi],al
  403a73:	add    BYTE PTR [ebx],bh
  403a75:	add    al,0xa7
  403a77:	add    BYTE PTR [esi],al
  403a79:	add    BYTE PTR [esp+eax*1+0xa],al
  403a7d:	add    BYTE PTR [esi],al
  403a7f:	add    BYTE PTR [edi+0x4],dl
  403a82:	cmps   DWORD PTR ds:[esi],DWORD PTR es:[edi]
  403a83:	add    BYTE PTR [esi],al
  403a85:	add    BYTE PTR [eax+0x600d704],ah
  403a8b:	add    BYTE PTR [edi+0x600a704],dh
  403a91:	add    BYTE PTR [edi+0x4],dl
  403a94:	cmps   DWORD PTR ds:[esi],DWORD PTR es:[edi]
  403a95:	add    BYTE PTR [esi],al
  403a97:	add    BYTE PTR [edx+0x6000a04],bh
  403a9d:	add    bh,al
  403a9f:	add    al,0xa
  403aa1:	add    BYTE PTR [ecx],al
  403aa3:	add    ch,ah
  403aa5:	add    al,0xe7
  403aa7:	add    BYTE PTR [ecx],al
  403aa9:	add    al,ch
  403aab:	add    al,0xeb
  403aad:	add    BYTE PTR [ecx],al
  403aaf:	add    BYTE PTR [esi],al
  403ab1:	add    eax,0x1000a
  403ab6:	push   cs
  403ab7:	add    eax,0x1000a
  403abc:	inc    ebx
  403abd:	add    eax,0x10100
  403ac2:	imul   eax,DWORD PTR ds:0x10104,0xffffffb8
  403ac9:	add    eax,0x10113
  403ace:	mov    ebx,0x1011705
  403ad3:	add    ah,bl
  403ad5:	add    eax,0x10121
  403ada:	loopne 0x403ae1
  403adc:	or     al,BYTE PTR [eax]
  403ade:	add    DWORD PTR [eax],eax
  403ae0:	cli    
  403ae1:	add    eax,0x10125
  403ae6:	das    
  403ae7:	push   es
  403ae8:	sub    DWORD PTR [ecx],eax
  403aea:	add    DWORD PTR [eax],eax
  403aec:	push   esp
  403aed:	push   es
  403aee:	add    DWORD PTR cs:[ecx],eax
  403af1:	add    BYTE PTR [esi+eax*1-0x59],bl
  403af5:	add    BYTE PTR [ecx],al
  403af7:	add    BYTE PTR [ebx+0x1011705],bh
  403afd:	add    BYTE PTR [eax+0x6],ch
  403b00:	sbb    al,BYTE PTR [eax]
  403b02:	add    DWORD PTR [eax],eax
  403b04:	outs   dx,BYTE PTR ds:[esi]
  403b05:	push   es
  403b06:	xor    al,BYTE PTR [ecx]
  403b08:	add    DWORD PTR [eax],eax
  403b0a:	jle    0x403b12
  403b0c:	add    DWORD PTR ss:[ecx],eax
  403b0f:	add    BYTE PTR [ebp+0x6012e06],cl
  403b15:	add    BYTE PTR [edx+0x1013206],ch
  403b1b:	add    BYTE PTR [ebx+0x100a706],dh
  403b21:	add    al,bh
  403b23:	push   es
  403b24:	dec    eax
  403b25:	add    DWORD PTR [ecx],eax
  403b27:	add    BYTE PTR [ebx],ah
  403b29:	pop    es
  403b2a:	dec    esp
  403b2b:	add    DWORD PTR [eax+0x20],edx
  403b2e:	add    BYTE PTR [eax],al
  403b30:	add    BYTE PTR [eax],al
  403b32:	xchg   BYTE PTR [eax],bl
  403b34:	mov    BYTE PTR [ecx],al
  403b36:	adc    BYTE PTR [eax],al
  403b38:	add    DWORD PTR [eax],eax
  403b3a:	push   0x20
  403b3f:	add    BYTE PTR [esi+0x14018818],al
  403b45:	add    BYTE PTR [ecx],al
  403b47:	add    BYTE PTR [ebp+0x20],dh
  403b4d:	add    dh,ah
  403b4f:	add    DWORD PTR [esi+0x3001001],ecx
  403b55:	add    al,ch
  403b57:	and    BYTE PTR [eax],al
  403b59:	add    BYTE PTR [eax],al
  403b5b:	add    ah,al
  403b5d:	add    DWORD PTR [esi+0x3001d01],ecx
  403b63:	add    BYTE PTR [eax],al
  403b65:	add    BYTE PTR [eax],al
  403b67:	add    BYTE PTR [ebx],al
  403b69:	add    BYTE PTR [esi+0x22018818],al
  403b6f:	add    BYTE PTR [eax+eax*1],al
  403b72:	add    BYTE PTR [eax],al
  403b74:	add    BYTE PTR [eax],al
  403b76:	add    eax,DWORD PTR [eax]
  403b78:	mov    BYTE PTR [ecx],0x9f
  403b7b:	add    DWORD PTR [eax],ebp
  403b7d:	add    BYTE PTR [esi],al
  403b7f:	add    BYTE PTR [eax],al
  403b81:	add    BYTE PTR [eax],al
  403b83:	add    BYTE PTR [ebx],al
  403b85:	add    dh,al
  403b87:	add    ecx,eax
  403b89:	add    DWORD PTR ds:0x700,ebp
  403b8f:	add    BYTE PTR [eax],al
  403b91:	add    BYTE PTR [ebx],al
  403b93:	add    dh,al
  403b95:	add    ebp,ecx
  403b97:	add    DWORD PTR [esi],esi
  403b99:	add    BYTE PTR [edx],cl
  403b9b:	add    BYTE PTR [ebx],dl
  403b9d:	and    DWORD PTR [eax],eax
  403b9f:	add    BYTE PTR [eax],al
  403ba1:	add    BYTE PTR [esi+0x10018818],al
  403ba7:	add    BYTE PTR [ebx],cl
  403ba9:	add    BYTE PTR [eax],dh
  403bab:	and    DWORD PTR [eax],eax
  403bad:	add    BYTE PTR [eax],al
  403baf:	add    BYTE PTR [esi+0x2801d700],al
  403bb5:	add    BYTE PTR [ebx],cl
  403bb7:	add    BYTE PTR [edx],bh
  403bb9:	and    DWORD PTR [eax],eax
  403bbb:	add    BYTE PTR [eax],al
  403bbd:	add    BYTE PTR [esi+0x3c01e608],dl
  403bc3:	add    BYTE PTR [eax+eax*1],cl
  403bc6:	dec    ecx
  403bc7:	and    DWORD PTR [eax],eax
  403bc9:	add    BYTE PTR [eax],al
  403bcb:	add    BYTE PTR [esi+0x3c01f608],dl
  403bd1:	add    BYTE PTR ds:0x215800,cl
  403bd7:	add    BYTE PTR [eax],al
  403bd9:	add    BYTE PTR [esi+0x46021408],dl
  403bdf:	add    BYTE PTR [esi],cl
  403be1:	add    BYTE PTR [ecx+eiz*1+0x0],dh
  403be5:	add    BYTE PTR [eax],al
  403be7:	add    BYTE PTR [esi+0x4a022308],dl
  403bed:	add    BYTE PTR [esi],cl
  403bef:	add    BYTE PTR [ecx+eiz*1+0x0],al
  403bf6:	xchg   esi,eax
  403bf7:	or     BYTE PTR [edx],dh
  403bf9:	add    cl,BYTE PTR [edi+0x0]
  403bfc:	verr   WORD PTR [eax+0x21]
  403c03:	add    BYTE PTR [esi+0x53024208],dl
  403c09:	add    BYTE PTR [edi],cl
  403c0b:	add    BYTE PTR [edi+0x21],ch
  403c11:	add    BYTE PTR [esi+0x53025200],dl
  403c17:	add    BYTE PTR [eax],dl
  403c19:	add    BYTE PTR [esi+0x21],bh
  403c1f:	add    BYTE PTR [esi+0x58025200],dl
  403c25:	add    BYTE PTR [ecx],dl
  403c27:	add    dh,cl
  403c29:	and    DWORD PTR [eax],eax
  403c2b:	add    BYTE PTR [eax],al
  403c2d:	add    BYTE PTR [esi+0x53025800],dl
  403c33:	add    BYTE PTR [ebx],dl
  403c35:	add    ch,bl
  403c37:	and    DWORD PTR [eax],eax
  403c39:	add    BYTE PTR [eax],al
  403c3b:	add    BYTE PTR [esi+0x58025800],dl
  403c41:	add    BYTE PTR [eax+eax*1],dl
  403c44:	in     eax,dx
  403c45:	and    DWORD PTR [eax],eax
  403c47:	add    BYTE PTR [eax],al
  403c49:	add    BYTE PTR [esi+0x5f025800],dl
  403c4f:	add    BYTE PTR [esi],dl
  403c51:	add    BYTE PTR [ecx],al
  403c53:	and    al,BYTE PTR [eax]
  403c55:	add    BYTE PTR [eax],al
  403c57:	add    BYTE PTR [esi+0x64026200],dl
  403c5d:	add    BYTE PTR [edi],dl
  403c5f:	add    BYTE PTR [edi],cl
  403c61:	and    al,BYTE PTR [eax]
  403c63:	add    BYTE PTR [eax],al
  403c65:	add    BYTE PTR [esi+0x64026900],dl
  403c6b:	add    BYTE PTR [edi],dl
  403c6d:	add    BYTE PTR ds:0x22,bl
  403c73:	add    BYTE PTR [esi+0x64027300],dl
  403c79:	add    BYTE PTR [edi],dl
  403c7b:	add    BYTE PTR [ebx],ch
  403c7d:	and    al,BYTE PTR [eax]
  403c7f:	add    BYTE PTR [eax],al
  403c81:	add    BYTE PTR [esi+0x64028000],dl
  403c87:	add    BYTE PTR [edi],dl
  403c89:	add    BYTE PTR [edx+eiz*1],bh
  403c8c:	add    BYTE PTR [eax],al
  403c8e:	add    BYTE PTR [eax],al
  403c90:	xchg   esi,eax
  403c91:	add    BYTE PTR [eax+0x17006802],dl
  403c97:	add    BYTE PTR [eax+0x22],bl
  403c9a:	add    BYTE PTR [eax],al
  403c9c:	add    BYTE PTR [eax],al
  403c9e:	xchg   esi,eax
  403c9f:	add    BYTE PTR [ebp+0x17006402],bl
  403ca5:	add    BYTE PTR [esi+0x22],ah
  403ca8:	add    BYTE PTR [eax],al
  403caa:	add    BYTE PTR [eax],al
  403cac:	xchg   esi,eax
  403cad:	add    BYTE PTR [ebx+0x17006402],ah
  403cb3:	add    BYTE PTR [edx+eiz*1+0x0],dh
  403cb7:	add    BYTE PTR [eax],al
  403cb9:	add    BYTE PTR [ecx+0x640a4418],dl
  403cbf:	add    BYTE PTR [edi],dl
  403cc1:	add    BYTE PTR [eax+0x22],al
  403cc7:	add    BYTE PTR [esi+0x7801e608],al
  403ccd:	add    BYTE PTR [edi],dl
  403ccf:	add    BYTE PTR [edx+eiz*1+0x0],bh
  403cd6:	xchg   BYTE PTR [eax],cl
  403cd8:	test   BYTE PTR [ecx],0x78
  403cdb:	add    BYTE PTR [eax],bl
  403cdd:	add    al,bh
  403cdf:	and    al,BYTE PTR [eax]
  403ce1:	add    BYTE PTR [eax],al
  403ce3:	add    BYTE PTR [esi+0x10018818],al
  403ce9:	add    BYTE PTR [ecx],bl
  403ceb:	add    BYTE PTR [ebx+eiz*1],ah
  403cee:	add    BYTE PTR [eax],al
  403cf0:	add    BYTE PTR [eax],al
  403cf2:	xchg   BYTE PTR [eax],cl
  403cf4:	adc    al,0x2
  403cf6:	jle    0x403cf8
  403cf8:	sbb    DWORD PTR [eax],eax
  403cfa:	cmp    esp,DWORD PTR [ebx]
  403cfc:	add    BYTE PTR [eax],al
  403cfe:	add    BYTE PTR [eax],al
  403d00:	xchg   BYTE PTR [eax],cl
  403d02:	and    eax,DWORD PTR [edx]
  403d04:	add    BYTE PTR [eax],0x19
  403d07:	add    BYTE PTR [ebx+eiz*1+0x0],al
  403d0b:	add    BYTE PTR [eax],al
  403d0d:	add    BYTE PTR [esi-0x70fcf7f8],al
  403d13:	add    BYTE PTR [edx],bl
  403d15:	add    BYTE PTR [ebx+eiz*1+0x0],bl
  403d19:	add    BYTE PTR [eax],al
  403d1b:	add    BYTE PTR [esi+0x28031808],al
  403d21:	add    BYTE PTR [edx],bl
  403d23:	add    al,ah
  403d25:	and    eax,DWORD PTR [eax]
  403d27:	add    BYTE PTR [eax],al
  403d29:	add    BYTE PTR [esi-0x6cfcbbf8],al
  403d2f:	add    BYTE PTR [ebx],bl
  403d31:	add    bh,dh
  403d33:	and    eax,DWORD PTR [eax]
  403d35:	add    BYTE PTR [eax],al
  403d37:	add    BYTE PTR [esi-0x67fcaef8],al
  403d3d:	add    BYTE PTR [ebx],bl
  403d3f:	add    BYTE PTR [eax],al
  403d41:	and    al,0x0
  403d43:	add    BYTE PTR [eax],al
  403d45:	add    BYTE PTR [esi+0x1002a300],al
  403d4b:	add    BYTE PTR [eax+eax*1],bl
  403d4e:	je     0x403d74
  403d50:	add    BYTE PTR [eax],al
  403d52:	add    BYTE PTR [eax],al
  403d54:	xchg   BYTE PTR [eax],cl
  403d56:	pop    esi
  403d57:	add    edi,DWORD PTR [esi+0x0]
  403d5a:	sbb    al,0x0
  403d5c:	nop
  403d5d:	and    al,0x0
  403d5f:	add    BYTE PTR [eax],al
  403d61:	add    BYTE PTR [ecx-0x61fc9500],al
  403d67:	add    BYTE PTR [eax+eax*1],bl
  403d6a:	in     al,dx
  403d6b:	and    al,0x0
  403d6d:	add    BYTE PTR [eax],al
  403d6f:	add    BYTE PTR [esi+0x10026200],al
  403d75:	add    BYTE PTR [eax+eax*1],bl
  403d78:	sti    
  403d79:	and    al,0x0
  403d7b:	add    BYTE PTR [eax],al
  403d7d:	add    BYTE PTR [esi+0x10026900],al
  403d83:	add    BYTE PTR [eax+eax*1],bl
  403d86:	or     al,0x25
  403d88:	add    BYTE PTR [eax],al
  403d8a:	add    BYTE PTR [eax],al
  403d8c:	xchg   BYTE PTR [eax],al
  403d8e:	jae    0x403d92
  403d90:	adc    BYTE PTR [eax],al
  403d92:	sbb    al,0x0
  403d94:	enter  0x25,0x0
  403d98:	add    BYTE PTR [eax],al
  403d9a:	xchg   BYTE PTR [eax],al
  403d9c:	add    BYTE PTR [edx],0x10
  403d9f:	add    BYTE PTR [eax+eax*1],bl
  403da2:	mov    al,ds:0x26
  403da7:	add    BYTE PTR [esi-0x55fd7000],al
  403dad:	add    BYTE PTR [eax+eax*1],bl
  403db0:	mov    eax,0x26
  403db5:	add    BYTE PTR [ecx-0x51fc4c00],al
  403dbb:	add    BYTE PTR [eax+eax*1],bl
  403dbe:	loopne 0x403de6
  403dc0:	add    BYTE PTR [eax],al
  403dc2:	add    BYTE PTR [eax],al
  403dc4:	add    DWORD PTR [eax],0x2803bd
  403dca:	sbb    eax,0x0
  403dcf:	add    BYTE PTR [eax-0x33df6f00],al
  403dd5:	add    esi,DWORD PTR [eax+eax*1+0x2734001e]
  403ddc:	add    BYTE PTR [eax],al
  403dde:	add    BYTE PTR [eax],al
  403de0:	xchg   BYTE PTR [eax],al
  403de2:	popf   
  403de3:	add    dl,BYTE PTR [eax]
  403de5:	add    BYTE PTR [edi],bl
  403de7:	add    ah,bl
  403de9:	daa    
  403dea:	add    BYTE PTR [eax],al
  403dec:	add    BYTE PTR [eax],al
  403dee:	add    DWORD PTR [eax],0xb903dd
  403df4:	pop    ds
  403df5:	add    BYTE PTR [eax+ebp*1+0x0],ch
  403dfc:	add    DWORD PTR [eax],0x2803e6
  403e02:	and    BYTE PTR [eax],al
  403e04:	sbb    al,0x29
  403e06:	add    BYTE PTR [eax],al
  403e08:	add    BYTE PTR [eax],al
  403e0a:	xchg   BYTE PTR [eax],al
  403e0c:	push   edx
  403e0d:	add    ch,BYTE PTR [eax]
  403e0f:	add    BYTE PTR [ecx],ah
  403e11:	add    BYTE PTR [eax+0x29],bh
  403e14:	add    BYTE PTR [eax],al
  403e16:	add    BYTE PTR [eax],al
  403e18:	xchg   BYTE PTR [eax],al
  403e1a:	push   edx
  403e1b:	add    bh,BYTE PTR [edi-0x69ffde00]
  403e21:	sub    DWORD PTR [eax],eax
  403e23:	add    BYTE PTR [eax],al
  403e25:	add    BYTE PTR [esi+0x28025800],al
  403e2b:	add    BYTE PTR [eax+eax*1],ah
  403e2e:	lods   al,BYTE PTR ds:[esi]
  403e2f:	sub    DWORD PTR [eax],eax
  403e31:	add    BYTE PTR [eax],al
  403e33:	add    BYTE PTR [esi-0x40fda800],al
  403e39:	add    BYTE PTR ds:0x29d400,ah
  403e3f:	add    BYTE PTR [eax],al
  403e41:	add    BYTE PTR [ecx+0x640a4418],dl
  403e47:	add    BYTE PTR [edi],ah
  403e49:	add    al,ah
  403e4b:	sub    DWORD PTR [eax],eax
  403e4d:	add    BYTE PTR [eax],al
  403e4f:	add    BYTE PTR [esi+0x10018818],al
  403e55:	add    BYTE PTR [edi],ah
  403e57:	add    BYTE PTR [eax],al
  403e59:	sub    al,BYTE PTR [eax]
  403e5b:	add    BYTE PTR [eax],al
  403e5d:	add    BYTE PTR [esi+0x10018818],al
  403e63:	add    BYTE PTR [edi],ah
  403e65:	add    BYTE PTR [eax+0x2a],ch
  403e68:	add    BYTE PTR [eax],al
  403e6a:	add    BYTE PTR [eax],al
  403e6c:	xchg   BYTE PTR [eax],al
  403e6e:	bound  eax,QWORD PTR [edx]
  403e70:	adc    BYTE PTR [eax],al
  403e72:	daa    
  403e73:	add    BYTE PTR [eax+0x2a],bl
  403e79:	add    BYTE PTR [esi+0x10026900],al
  403e7f:	add    BYTE PTR [edi],ah
  403e81:	add    ah,ah
  403e83:	sub    al,BYTE PTR [eax]
  403e85:	add    BYTE PTR [eax],al
  403e87:	add    BYTE PTR [esi+0x1004ae00],al
  403e8d:	add    BYTE PTR [edi],ah
  403e8f:	add    BYTE PTR [eax],cl
  403e91:	sub    eax,DWORD PTR [eax]
  403e93:	add    BYTE PTR [eax],al
  403e95:	add    BYTE PTR [ecx-0x1efb2f00],dl
  403e9b:	add    BYTE PTR [edi],ah
  403e9d:	add    BYTE PTR [eax+0x2c],bl
  403ea3:	add    BYTE PTR [esi+0x10018818],al
  403ea9:	add    BYTE PTR [eax],ch
  403eab:	add    BYTE PTR [eax+0x2c],ah
  403eb1:	add    BYTE PTR [esi-0x10fe77e8],al
  403eb7:	add    BYTE PTR [eax],ch
  403eb9:	add    BYTE PTR [esp+ebp*1+0x0],bh
  403ec0:	xchg   BYTE PTR [eax],al
  403ec2:	lock add al,0x10
  403ec5:	add    BYTE PTR [edx],ch
  403ec7:	add    BYTE PTR [eax],al
  403ec9:	add    BYTE PTR [eax],al
  403ecb:	add    BYTE PTR [eax],al
  403ecd:	add    dh,al
  403ecf:	add    eax,0x2804f9
  403ed4:	sub    al,BYTE PTR [eax]
  403ed6:	push   0x2d
  403edb:	add    BYTE PTR [eax+ebx*1+0x100188],al
  403ee2:	sub    eax,DWORD PTR [eax]
  403ee4:	jo     0x403f13
  403ee6:	add    BYTE PTR [eax],al
  403ee8:	add    BYTE PTR [eax],al
  403eea:	xchg   BYTE PTR [eax],bl
  403eec:	mov    BYTE PTR [ecx],al
  403eee:	sub    BYTE PTR [eax],al
  403ef0:	sub    eax,DWORD PTR [eax]
  403ef2:	mov    DWORD PTR ds:0x0,ebp
  403ef8:	mov    BYTE PTR [eax],0xf9
  403efb:	add    al,0x28
  403efd:	add    BYTE PTR [eax+eax*1],ch
  403f00:	test   eax,0x2d
  403f05:	add    BYTE PTR [esi+0x28018818],al
  403f0b:	add    BYTE PTR ds:0x2de800,ch
  403f11:	add    BYTE PTR [eax],al
  403f13:	add    dh,al
  403f15:	add    cl,bh
  403f17:	add    al,0x28
  403f19:	add    BYTE PTR [esi],ch
  403f1b:	add    BYTE PTR [eax],al
  403f1d:	add    BYTE PTR [eax],al
  403f1f:	add    BYTE PTR [eax],al
  403f21:	add    dh,al
  403f23:	add    eax,0x1080584
  403f28:	das    
  403f29:	add    BYTE PTR [eax],al
  403f2b:	add    BYTE PTR [eax],al
  403f2d:	add    BYTE PTR [eax],al
  403f2f:	add    dh,al
  403f31:	add    eax,0x108058e
  403f36:	xor    DWORD PTR [eax],eax
  403f38:	add    BYTE PTR [eax],al
  403f3a:	add    BYTE PTR [eax],al
  403f3c:	add    BYTE PTR [eax],al
  403f3e:	mov    BYTE PTR ds:0x1080598,0x33
  403f45:	add    BYTE PTR [eax],al
  403f47:	add    BYTE PTR [eax],al
  403f49:	add    BYTE PTR [eax],al
  403f4b:	add    dh,al
  403f4d:	add    eax,0x10805a5
  403f52:	xor    eax,0x0
  403f57:	add    BYTE PTR [eax],al
  403f59:	add    dh,al
  403f5b:	add    eax,0x10f05b1
  403f60:	aaa    
  403f61:	add    BYTE PTR [ebx+0x2e],al
  403f64:	add    BYTE PTR [eax],al
  403f66:	add    BYTE PTR [eax],al
  403f68:	test   BYTE PTR [eax],bl
  403f6a:	mov    BYTE PTR [ecx],al
  403f6c:	adc    BYTE PTR [eax],al
  403f6e:	aaa    
  403f6f:	add    BYTE PTR [ebx+0x2e],cl
  403f72:	add    BYTE PTR [eax],al
  403f74:	add    BYTE PTR [eax],al
  403f76:	xchg   BYTE PTR [eax],bl
  403f78:	mov    BYTE PTR [ecx],al
  403f7a:	sbb    eax,DWORD PTR [ecx]
  403f7c:	aaa    
  403f7d:	add    BYTE PTR [eax+0x2e],ah
  403f80:	add    BYTE PTR [eax],al
  403f82:	add    BYTE PTR [eax],al
  403f84:	mov    BYTE PTR [eax],0x84
  403f87:	add    eax,0x380108
  403f8c:	mov    al,ds:0x2e
  403f91:	add    dh,al
  403f93:	add    BYTE PTR [esi+0x3a010805],cl
  403f99:	add    BYTE PTR [edi+ebp*1],dl
  403f9c:	add    BYTE PTR [eax],al
  403f9e:	add    BYTE PTR [eax],al
  403fa0:	mov    BYTE PTR [eax],0x98
  403fa3:	add    eax,0x3c0108
  403fa8:	push   esp
  403fa9:	das    
  403faa:	add    BYTE PTR [eax],al
  403fac:	add    BYTE PTR [eax],al
  403fae:	mov    BYTE PTR [eax],0xa5
  403fb1:	add    eax,0x3e0108
  403fb6:	xchg   esp,eax
  403fb7:	das    
  403fb8:	add    BYTE PTR [eax],al
  403fba:	add    BYTE PTR [eax],al
  403fbc:	mov    BYTE PTR [eax],0xb1
  403fbf:	add    eax,0x40010f
  403fc4:	les    ebp,FWORD PTR [edi]
  403fc6:	add    BYTE PTR [eax],al
  403fc8:	add    BYTE PTR [eax],al
  403fca:	xchg   BYTE PTR [eax],bl
  403fcc:	mov    BYTE PTR [ecx],al
  403fce:	cmp    al,BYTE PTR [ecx]
  403fd0:	inc    eax
  403fd1:	add    BYTE PTR [eax],ch
  403fd3:	xor    BYTE PTR [eax],al
  403fd5:	add    BYTE PTR [eax],al
  403fd7:	add    BYTE PTR [ecx+0x10069400],al
  403fdd:	add    BYTE PTR [edx+0x0],al
  403fe0:	das    
  403fe1:	xor    DWORD PTR [eax],eax
  403fe3:	add    BYTE PTR [eax],al
  403fe5:	add    dh,al
  403fe7:	add    BYTE PTR [ebp+eax*1+0x420108],al
  403fee:	inc    esi
  403fef:	xor    DWORD PTR [eax],eax
  403ff1:	add    BYTE PTR [eax],al
  403ff3:	add    dh,al
  403ff5:	add    BYTE PTR [esi+0x44010805],cl
  403ffb:	add    BYTE PTR [ebp+0x31],bl
  403ffe:	add    BYTE PTR [eax],al
  404000:	add    BYTE PTR [eax],al
  404002:	mov    BYTE PTR [eax],0x98
  404005:	add    eax,0x460108
  40400a:	je     0x40403d
  40400c:	add    BYTE PTR [eax],al
  40400e:	add    BYTE PTR [eax],al
  404010:	mov    BYTE PTR [eax],0xa5
  404013:	add    eax,0x480108
  404018:	mov    WORD PTR [ecx],?
  40401a:	add    BYTE PTR [eax],al
  40401c:	add    BYTE PTR [eax],al
  40401e:	add    DWORD PTR [eax],0x1006a2
  404024:	dec    edx
  404025:	add    BYTE PTR [eax+0x32],ch
  40402b:	add    dh,al
  40402d:	add    BYTE PTR [ecx+0x4a010f05],dh
  404033:	add    al,al
  404035:	xor    al,BYTE PTR [eax]
  404037:	add    BYTE PTR [eax],al
  404039:	add    BYTE PTR [esi+0x41018818],al
  40403f:	add    DWORD PTR [edx+0x0],ecx
  404042:	in     al,dx
  404043:	xor    al,BYTE PTR [eax]
  404045:	add    BYTE PTR [eax],al
  404047:	add    BYTE PTR [esi+0x2802a900],al
  40404d:	add    BYTE PTR [eax+eax*1+0x37],cl
  404051:	xor    eax,DWORD PTR [eax]
  404053:	add    BYTE PTR [eax],al
  404055:	add    BYTE PTR [esi+0x1006bc00],al
  40405b:	add    BYTE PTR [ebp+0x0],cl
  40405e:	pop    edi
  40405f:	xor    eax,DWORD PTR [eax]
  404061:	add    BYTE PTR [eax],al
  404063:	add    BYTE PTR [esi+0x1002a300],al
  404069:	add    BYTE PTR [ebp+0x0],cl
  40406c:	test   DWORD PTR [ebx],esi
  40406e:	add    BYTE PTR [eax],al
  404070:	add    BYTE PTR [eax],al
  404072:	xchg   BYTE PTR [eax],bl
  404074:	mov    BYTE PTR [ecx],al
  404076:	adc    BYTE PTR [eax],al
  404078:	dec    ebp
  404079:	add    BYTE PTR [eax+0x33],ah
  40407f:	add    BYTE PTR [esi+0x2806c900],al
  404085:	add    BYTE PTR [ebp+0x0],cl
  404088:	clc    
  404089:	xor    eax,DWORD PTR [eax]
  40408b:	add    BYTE PTR [eax],al
  40408d:	add    ah,al
  40408f:	add    BYTE PTR [esi+0x4e001d01],cl
  404095:	add    BYTE PTR [eax],dh
  404097:	xor    al,0x0
  404099:	add    BYTE PTR [eax],al
  40409b:	add    BYTE PTR [ecx+0x10070300],al
  4040a1:	add    BYTE PTR [edi+0x0],cl
  4040a4:	add    BYTE PTR [eax],al
  4040a6:	add    DWORD PTR [eax],eax
  4040a8:	xor    BYTE PTR [edi],al
  4040aa:	add    BYTE PTR [eax],al
  4040ac:	add    al,BYTE PTR [eax]
  4040ae:	cmp    BYTE PTR [edi],al
  4040b0:	add    BYTE PTR [eax],al
  4040b2:	add    DWORD PTR [eax],eax
  4040b4:	inc    eax
  4040b5:	pop    es
  4040b6:	add    BYTE PTR [eax],al
  4040b8:	add    DWORD PTR [eax],eax
  4040ba:	dec    edx
  4040bb:	pop    es
  4040bc:	add    BYTE PTR [eax],al
  4040be:	add    al,BYTE PTR [eax]
  4040c0:	push   ecx
  4040c1:	pop    es
  4040c2:	add    BYTE PTR [eax],al
  4040c4:	add    DWORD PTR [eax],eax
  4040c6:	pop    eax
  4040c7:	pop    es
  4040c8:	add    BYTE PTR [eax],al
  4040ca:	add    DWORD PTR [eax],eax
  4040cc:	pop    eax
  4040cd:	pop    es
  4040ce:	add    BYTE PTR [eax],al
  4040d0:	add    al,BYTE PTR [eax]
  4040d2:	pop    ebp
  4040d3:	pop    es
  4040d4:	add    BYTE PTR [eax],al
  4040d6:	add    eax,DWORD PTR [eax]
  4040d8:	dec    edx
  4040d9:	pop    es
  4040da:	add    BYTE PTR [eax],al
  4040dc:	add    DWORD PTR [eax],eax
  4040de:	popw   es
  4040e0:	add    BYTE PTR [eax],al
  4040e2:	add    DWORD PTR [eax],eax
  4040e4:	ins    DWORD PTR es:[edi],dx
  4040e5:	pop    es
  4040e6:	add    BYTE PTR [eax],al
  4040e8:	add    DWORD PTR [eax],eax
  4040ea:	outs   dx,DWORD PTR ds:[esi]
  4040eb:	pop    es
  4040ec:	add    BYTE PTR [eax],al
  4040ee:	add    DWORD PTR [eax],eax
  4040f0:	outs   dx,DWORD PTR ds:[esi]
  4040f1:	pop    es
  4040f2:	add    BYTE PTR [eax],al
  4040f4:	add    DWORD PTR [eax],eax
  4040f6:	outs   dx,DWORD PTR ds:[esi]
  4040f7:	pop    es
  4040f8:	add    BYTE PTR [eax],al
  4040fa:	add    DWORD PTR [eax],eax
  4040fc:	outs   dx,DWORD PTR ds:[esi]
  4040fd:	pop    es
  4040fe:	add    BYTE PTR [eax],al
  404100:	add    DWORD PTR [eax],eax
  404102:	ins    DWORD PTR es:[edi],dx
  404103:	pop    es
  404104:	add    BYTE PTR [eax],al
  404106:	add    DWORD PTR [eax],eax
  404108:	jne    0x404111
  40410a:	add    BYTE PTR [eax],al
  40410c:	add    al,BYTE PTR [eax]
  40410e:	jns    0x404117
  404110:	add    BYTE PTR [eax],al
  404112:	add    DWORD PTR [eax],eax
  404114:	ins    DWORD PTR es:[edi],dx
  404115:	pop    es
  404116:	add    BYTE PTR [eax],al
  404118:	add    DWORD PTR [eax],eax
  40411a:	jne    0x404123
  40411c:	add    BYTE PTR [eax],al
  40411e:	add    al,BYTE PTR [eax]
  404120:	jns    0x404129
  404122:	add    BYTE PTR [eax],al
  404124:	add    DWORD PTR [eax],eax
  404126:	cwde   
  404127:	pop    es
  404128:	add    BYTE PTR [eax],al
  40412a:	add    DWORD PTR [eax],eax
  40412c:	outs   dx,DWORD PTR ds:[esi]
  40412d:	pop    es
  40412e:	add    BYTE PTR [eax],al
  404130:	add    DWORD PTR [eax],eax
  404132:	outs   dx,DWORD PTR ds:[esi]
  404133:	pop    es
  404134:	add    BYTE PTR [eax],al
  404136:	add    DWORD PTR [eax],eax
  404138:	outs   dx,DWORD PTR ds:[esi]
  404139:	pop    es
  40413a:	add    BYTE PTR [eax],al
  40413c:	add    DWORD PTR [eax],eax
  40413e:	outs   dx,DWORD PTR ds:[esi]
  40413f:	pop    es
  404140:	add    BYTE PTR [eax],al
  404142:	add    DWORD PTR [eax],eax
  404144:	outs   dx,DWORD PTR ds:[esi]
  404145:	pop    es
  404146:	add    BYTE PTR [eax],al
  404148:	add    DWORD PTR [eax],eax
  40414a:	ins    DWORD PTR es:[edi],dx
  40414b:	pop    es
  40414c:	add    BYTE PTR [eax],al
  40414e:	add    DWORD PTR [eax],eax
  404150:	ins    DWORD PTR es:[edi],dx
  404151:	pop    es
  404152:	add    BYTE PTR [eax],al
  404154:	add    DWORD PTR [eax],eax
  404156:	pushf  
  404157:	pop    es
  404158:	add    BYTE PTR [eax],al
  40415a:	add    DWORD PTR [eax],eax
  40415c:	mov    ds:0x1000007,eax
  404161:	add    BYTE PTR [ebp+0x7],ch
  404164:	add    BYTE PTR [eax],al
  404166:	add    DWORD PTR [eax],eax
  404168:	ins    DWORD PTR es:[edi],dx
  404169:	pop    es
  40416a:	add    BYTE PTR [eax],al
  40416c:	add    DWORD PTR [eax],eax
  40416e:	jne    0x404177
  404170:	add    BYTE PTR [eax],al
  404172:	add    al,BYTE PTR [eax]
  404174:	jns    0x40417d
  404176:	add    BYTE PTR [eax],al
  404178:	add    DWORD PTR [eax],eax
  40417a:	ins    DWORD PTR es:[edi],dx
  40417b:	pop    es
  40417c:	add    BYTE PTR [eax],al
  40417e:	add    DWORD PTR [eax],eax
  404180:	jne    0x404189
  404182:	add    BYTE PTR [eax],al
  404184:	add    al,BYTE PTR [eax]
  404186:	jns    0x40418f
  404188:	add    BYTE PTR [eax],al
  40418a:	add    DWORD PTR [eax],eax
  40418c:	test   eax,0x1000007
  404191:	add    BYTE PTR [esi+0x2000007],ch
  404197:	add    BYTE PTR [ebx+0x1000007],bh
  40419d:	add    ch,al
  40419f:	pop    es
  4041a0:	add    BYTE PTR [eax],al
  4041a2:	add    DWORD PTR [eax],eax
  4041a4:	into   
  4041a5:	pop    es
  4041a6:	add    BYTE PTR [eax],al
  4041a8:	add    DWORD PTR [eax],eax
  4041aa:	lds    eax,FWORD PTR [edi]
  4041ac:	add    BYTE PTR [eax],al
  4041ae:	add    DWORD PTR [eax],eax
  4041b0:	fiadd  DWORD PTR [edi]
  4041b2:	add    BYTE PTR [eax],al
  4041b4:	add    DWORD PTR [eax],eax
  4041b6:	lds    eax,FWORD PTR [edi]
  4041b8:	add    BYTE PTR [eax],al
  4041ba:	add    DWORD PTR [eax],eax
  4041bc:	out    0x7,eax
  4041be:	add    BYTE PTR [eax],al
  4041c0:	add    al,BYTE PTR [eax]
  4041c2:	out    dx,al
  4041c3:	pop    es
  4041c4:	add    BYTE PTR [eax],al
  4041c6:	add    DWORD PTR [eax],eax
  4041c8:	out    0x7,eax
  4041ca:	add    BYTE PTR [eax],al
  4041cc:	add    al,BYTE PTR [eax]
  4041ce:	out    dx,al
  4041cf:	pop    es
  4041d0:	add    BYTE PTR [eax],al
  4041d2:	add    DWORD PTR [eax],eax
  4041d4:	out    0x7,eax
  4041d6:	add    BYTE PTR [eax],al
  4041d8:	add    al,BYTE PTR [eax]
  4041da:	out    dx,al
  4041db:	pop    es
  4041dc:	add    BYTE PTR [eax],al
  4041de:	add    DWORD PTR [eax],eax
  4041e0:	out    0x7,eax
  4041e2:	add    BYTE PTR [eax],al
  4041e4:	add    al,BYTE PTR [eax]
  4041e6:	out    dx,al
  4041e7:	pop    es
  4041e8:	add    BYTE PTR [eax],al
  4041ea:	add    DWORD PTR [eax],eax
  4041ec:	lock pop es
  4041ee:	add    BYTE PTR [eax],al
  4041f0:	add    DWORD PTR [eax],eax
  4041f2:	out    0x7,eax
  4041f4:	add    BYTE PTR [eax],al
  4041f6:	add    al,BYTE PTR [eax]
  4041f8:	out    dx,al
  4041f9:	pop    es
  4041fa:	add    BYTE PTR [eax],al
  4041fc:	add    DWORD PTR [eax],eax
  4041fe:	out    0x7,eax
  404200:	add    BYTE PTR [eax],al
  404202:	add    al,BYTE PTR [eax]
  404204:	out    dx,al
  404205:	pop    es
  404206:	add    BYTE PTR [eax],al
  404208:	add    DWORD PTR [eax],eax
  40420a:	out    0x7,eax
  40420c:	add    BYTE PTR [eax],al
  40420e:	add    al,BYTE PTR [eax]
  404210:	out    dx,al
  404211:	pop    es
  404212:	add    BYTE PTR [eax],al
  404214:	add    DWORD PTR [eax],eax
  404216:	out    0x7,eax
  404218:	add    BYTE PTR [eax],al
  40421a:	add    al,BYTE PTR [eax]
  40421c:	out    dx,al
  40421d:	pop    es
  40421e:	add    BYTE PTR [eax],al
  404220:	add    DWORD PTR [eax],eax
  404222:	add    DWORD PTR [eax],ecx
  404224:	add    BYTE PTR [eax],al
  404226:	add    al,BYTE PTR [eax]
  404228:	lock pop es
  40422a:	add    BYTE PTR [eax],al
  40422c:	add    DWORD PTR [eax],eax
  40422e:	out    0x7,eax
  404230:	add    BYTE PTR [eax],al
  404232:	add    al,BYTE PTR [eax]
  404234:	out    dx,al
  404235:	pop    es
  404236:	add    BYTE PTR [eax],al
  404238:	add    DWORD PTR [eax],eax
  40423a:	out    0x7,eax
  40423c:	add    BYTE PTR [eax],al
  40423e:	add    al,BYTE PTR [eax]
  404240:	out    dx,al
  404241:	pop    es
  404242:	add    BYTE PTR [eax],al
  404244:	add    DWORD PTR [eax],eax
  404246:	out    0x7,eax
  404248:	add    BYTE PTR [eax],al
  40424a:	add    al,BYTE PTR [eax]
  40424c:	out    dx,al
  40424d:	pop    es
  40424e:	add    BYTE PTR [eax],al
  404250:	add    DWORD PTR [eax],eax
  404252:	out    0x7,eax
  404254:	add    BYTE PTR [eax],al
  404256:	add    al,BYTE PTR [eax]
  404258:	out    dx,al
  404259:	pop    es
  40425a:	add    BYTE PTR [eax],al
  40425c:	add    DWORD PTR [eax],eax
  40425e:	or     ecx,DWORD PTR [eax]
  404260:	add    BYTE PTR [eax],al
  404262:	add    al,BYTE PTR [eax]
  404264:	adc    cl,BYTE PTR [eax]
  404266:	add    BYTE PTR [eax],al
  404268:	add    DWORD PTR [eax],eax
  40426a:	ins    DWORD PTR es:[edi],dx
  40426b:	pop    es
  40426c:	add    BYTE PTR [eax],al
  40426e:	add    DWORD PTR [eax],eax
  404270:	ins    DWORD PTR es:[edi],dx
  404271:	pop    es
  404272:	add    BYTE PTR [eax],al
  404274:	add    DWORD PTR [eax],eax
  404276:	inc    eax
  404277:	pop    es
  404278:	add    al,BYTE PTR [eax]
  40427a:	or     DWORD PTR [eax],eax
  40427c:	mov    ecx,0x10018800
  404281:	add    cl,al
  404283:	add    BYTE PTR [eax-0x36ffd7ff],cl
  404289:	add    BYTE PTR [eax-0x2effd7ff],cl
  40428f:	add    BYTE PTR [eax-0x26ffd7ff],cl
  404295:	add    BYTE PTR [eax-0x1effd7ff],cl
  40429b:	add    BYTE PTR [eax-0x16ffd7ff],cl
  4042a1:	add    BYTE PTR [eax-0xeffd7ff],cl
  4042a7:	add    BYTE PTR [eax-0x6ffd7ff],cl
  4042ad:	add    BYTE PTR [eax+0x1002801],cl
  4042b3:	add    DWORD PTR [eax+0x9002801],ecx
  4042b9:	add    DWORD PTR [eax+0x11001d01],ecx
  4042bf:	add    DWORD PTR [eax+0x19002801],ecx
  4042c5:	add    DWORD PTR [eax+0x21002801],ecx
  4042cb:	add    DWORD PTR [eax+0x29002801],ecx
  4042d1:	add    DWORD PTR [eax+0x39015501],ecx
  4042d7:	add    DWORD PTR [eax+0x41008201],ecx
  4042dd:	add    DWORD PTR [eax+0x9001001],ecx
  4042e3:	add    BYTE PTR [eax+0x49001001],cl
  4042e9:	add    DWORD PTR [edx+ecx*1],edx
  4042ec:	pop    edi
  4042ed:	add    BYTE PTR [ecx+0x1],cl
  4042f0:	sbb    cl,BYTE PTR [edx]
  4042f2:	pop    edi
  4042f3:	add    BYTE PTR [ecx+0x1],dl
  4042f6:	and    cl,BYTE PTR [edx]
  4042f8:	pop    edi
  4042f9:	add    BYTE PTR [ecx+0x1],bl
  4042fc:	pop    eax
  4042fd:	add    dl,BYTE PTR [ebx+0x0]
  404300:	or     DWORD PTR [eax],eax
  404302:	cmp    ecx,DWORD PTR [edx]
  404304:	pop    DWORD PTR [eax]
  404306:	popa   
  404307:	add    DWORD PTR [edx+ecx*1+0x6c],edx
  40430b:	add    DWORD PTR [ecx+0x1],ebp
  40430e:	push   0x6101780a
  404313:	add    DWORD PTR [eax+0xa],edi
  404316:	ins    BYTE PTR es:[edi],dx
  404317:	add    DWORD PTR [ecx+0x0],edx
  40431a:	mov    BYTE PTR [ecx],al
  40431c:	adc    BYTE PTR [eax],al
  40431e:	jno    0x404321
  404320:	mov    BYTE PTR [ecx],al
  404322:	adc    BYTE PTR [eax],al
  404324:	dec    ecx
  404325:	add    DWORD PTR [edx+ecx*1],edx
  404328:	xchg   esp,eax
  404329:	add    DWORD PTR [ecx+0x1],edi
  40432c:	lahf   
  40432d:	or     bl,BYTE PTR [ebx-0x37fe7eff]
  404333:	or     ah,BYTE PTR [eax-0x77ffbeff]
  404339:	add    DWORD PTR [eax],ebp
  40433b:	add    BYTE PTR [ecx+0x10029d01],dl
  404341:	add    BYTE PTR [ecx+0x1002a301],dl
  404347:	add    BYTE PTR [ecx+0x0],ah
  40434a:	jecxz  0x404356
  40434c:	mov    dl,0x1
  40434e:	or     al,0x0
  404350:	cmc    
  404351:	or     al,al
  404353:	add    DWORD PTR [eax+eax*1],ecx
  404356:	add    DWORD PTR [ebx],ecx
  404358:	mov    BYTE PTR [ecx],0xc
  40435b:	add    BYTE PTR [edx],cl
  40435d:	or     ecx,ebp
  40435f:	add    DWORD PTR [eax+eax*1],ecx
  404362:	and    DWORD PTR [ebx],ecx
  404364:	fild   WORD PTR [ecx]
  404366:	adc    al,0x0
  404368:	xor    eax,0x1c01f50b
  40436d:	add    BYTE PTR [ebx+0xb],al
  404370:	or     eax,DWORD PTR [edx]
  404372:	sbb    al,0x0
  404374:	dec    edi
  404375:	or     ecx,DWORD PTR [edi]
  404377:	add    DWORD PTR [ecx],edx
  404379:	add    BYTE PTR [esi-0x56ffefff],cl
  40437f:	add    DWORD PTR [ebp+0xb],ebx
  404382:	and    DWORD PTR [edx],eax
  404384:	mov    ecx,0x270b6d01
  404389:	add    dl,BYTE PTR [ecx+0x0]
  40438c:	jae    0x404399
  40438e:	aaa    
  40438f:	add    al,cl
  404391:	add    DWORD PTR [eax-0x6effd7ff],ecx
  404397:	add    DWORD PTR [edx+0x2],edx
  40439a:	cmp    eax,0x9d004102
  40439f:	or     eax,DWORD PTR [edx+0x2]
  4043a2:	rol    DWORD PTR [ecx],1
  4043a4:	loop   0x4043b1
  4043a6:	dec    eax
  4043a7:	add    ah,cl
  4043a9:	add    DWORD PTR [eax],eax
  4043ab:	or     al,0x4e
  4043ad:	add    dl,BYTE PTR [ecx+0x0]
  4043b0:	adc    ecx,DWORD PTR [edx+edx*2]
  4043b3:	add    bh,BYTE PTR [ecx+0x570c1901]
  4043b9:	add    bh,BYTE PTR [ecx+0x5f0c2001]
  4043bf:	add    bh,BYTE PTR [ecx+0x780c2e01]
  4043c5:	add    bh,BYTE PTR [ecx+0x7d0c3701]
  4043cb:	add    bh,BYTE PTR [ecx-0x76f3e6ff]
  4043d1:	add    ch,cl
  4043d3:	add    DWORD PTR [eax+0xc001001],ecx
  4043d9:	add    BYTE PTR [eax+0x21001001],cl
  4043df:	add    BYTE PTR [eax-0x46ffefff],cl
  4043e5:	add    DWORD PTR [ecx],ebx
  4043e7:	or     al,0x90
  4043e9:	add    bh,BYTE PTR [ecx-0x69fe77ff]
  4043ef:	add    bh,cl
  4043f1:	add    DWORD PTR [eax+0x1001001],ecx
  4043f7:	add    bl,BYTE PTR [ebp+0x100640c]
  4043fd:	add    dh,BYTE PTR [eax+0x9029c0c]
  404403:	add    cl,BYTE PTR [eax+0x1102a101]
  404409:	add    ah,al
  40440b:	or     al,0xa9
  40440d:	add    dl,BYTE PTR [ecx]
  40440f:	add    dh,bl
  404411:	or     al,0xb1
  404413:	add    dl,BYTE PTR [ecx]
  404415:	add    al,BYTE PTR ds:0x11007e0d
  40441b:	add    cl,BYTE PTR [ecx*1+0x2110010]
  404422:	adc    DWORD PTR ds:0x1790010,ecx
  404428:	sbb    eax,0x89019b0d
  40442d:	add    BYTE PTR [eax-0x76ffefff],cl
  404433:	add    BYTE PTR [ecx],ch
  404435:	or     eax,0x890028
  40443a:	xor    cl,BYTE PTR ds:0x89001d
  404440:	pop    edx
  404441:	or     eax,0x22102b7
  404446:	mov    BYTE PTR [ecx],al
  404448:	and    al,BYTE PTR [eax]
  40444a:	mov    DWORD PTR [eax],eax
  40444c:	or     BYTE PTR ds:0x8902be,0x8e
  404453:	or     eax,0x8902be
  404458:	call   0x8800:0x69001d0d
  40445f:	add    DWORD PTR ds:0x88022900,ebx
  404465:	add    DWORD PTR [edx],esp
  404467:	add    BYTE PTR [ecx-0x3afe7800],ah
  40446d:	add    ah,BYTE PTR [ecx+0x100db900]
  404473:	add    BYTE PTR [ecx],dh
  404475:	add    cl,dl
  404477:	or     eax,0x91010f
  40447c:	ror    BYTE PTR ds:0x23902f2,cl
  404482:	mov    BYTE PTR [ecx],al
  404484:	test   DWORD PTR [edx],0xde30091
  40448a:	inc    BYTE PTR [edx]
  40448c:	cmp    DWORD PTR [edx],eax
  40448e:	repnz or eax,0x610308
  404494:	add    DWORD PTR [esi],ecx
  404496:	dec    edx
  404497:	add    BYTE PTR [ecx+0x2],al
  40449a:	pop    ss
  40449b:	push   cs
  40449c:	invlpg BYTE PTR [ecx+0x1]
  4044a0:	sbb    ecx,DWORD PTR [esi]
  4044a2:	fwait
  4044a3:	add    DWORD PTR [ecx+0x250c3701],edi
  4044a9:	add    ecx,DWORD PTR [ecx+0x2]
  4044ac:	sub    al,0xe
  4044ae:	sub    al,0x3
  4044b0:	jns    0x4044b2
  4044b2:	mov    BYTE PTR [ecx],al
  4044b4:	xor    al,BYTE PTR [ebx]
  4044b6:	pop    ecx
  4044b7:	add    dl,BYTE PTR [esi+ecx*1+0x3a]
  4044bb:	add    esi,DWORD PTR [ecx+0x0]
  4044be:	mov    BYTE PTR [ecx],al
  4044c0:	aas    
  4044c1:	add    edi,DWORD PTR [ecx+0x0]
  4044c4:	pop    esp
  4044c5:	push   cs
  4044c6:	dec    eax
  4044c7:	add    esp,DWORD PTR [ecx+0x2]
  4044ca:	jb     0x4044da
  4044cc:	dec    edi
  4044cd:	add    ebp,DWORD PTR [ecx+0x2]
  4044d0:	add    DWORD PTR [ebx],ecx
  4044d2:	push   ebp
  4044d3:	add    edi,DWORD PTR [ecx+0x2]
  4044d6:	mov    ecx,DWORD PTR [esi]
  4044d8:	pop    DWORD PTR [eax]
  4044da:	mov    ecx,0x8f0e9501
  4044df:	add    BYTE PTR [ecx+0x0],dh
  4044e2:	popf   
  4044e3:	push   cs
  4044e4:	pop    esp
  4044e5:	add    eax,DWORD PTR [ecx+0x6a0eb700]
  4044eb:	add    eax,DWORD PTR [ecx-0x70f13a00]
  4044f1:	add    BYTE PTR [ecx+0x2],cl
  4044f4:	loop   0x404504
  4044f6:	js     0x4044fb
  4044f8:	sub    DWORD PTR [eax],eax
  4044fa:	lock push cs
  4044fc:	sbb    eax,0x4029100
  404501:	movups xmm0,XMMWORD PTR [eax]
  404504:	sub    DWORD PTR [eax],eax
  404506:	or     DWORD PTR [edi],ecx
  404508:	adc    BYTE PTR [eax],al
  40450a:	mov    eax,ds:0x7e0d0500
  40450f:	add    BYTE PTR [ecx],al
  404511:	add    dl,BYTE PTR [edx]
  404513:	seto   BYTE PTR [ebx]
  404516:	cmp    DWORD PTR [edx],eax
  404518:	push   ss
  404519:	invd   
  40451b:	add    ebx,DWORD PTR [ecx-0x69f08dfe]
  404521:	add    esp,DWORD PTR [ecx-0x56f06f00]
  404527:	add    esp,DWORD PTR [eax+eax*1]
  40452a:	lahf   
  40452b:	ud2    
  40452d:	add    ah,BYTE PTR [eax+eax*1]
  404530:	mov    cl,0xf
  404532:	lgdtd  [ecx+0xf0fbe02]
  404539:	add    DWORD PTR [ecx+0x280fc402],edx
  40453f:	add    BYTE PTR [ecx],ch
  404541:	add    BYTE PTR [eax-0x6effefff],cl
  404547:	add    cl,ch
  404549:	(bad)  
  40454a:	(bad)  
  40454c:	sub    al,0x0
  40454e:	mov    BYTE PTR [ecx],al
  404550:	and    al,BYTE PTR [eax]
  404552:	xchg   ecx,eax
  404553:	add    bl,BYTE PTR [edi-0x6efc34ff]
  404559:	add    ch,cl
  40455b:	jg     0x8e406e61
  404561:	add    DWORD PTR ds:0x8800b100,ebx
  404567:	add    DWORD PTR [eax],edx
  404569:	add    BYTE PTR [ecx+0x100ff202],dl
  40456f:	add    BYTE PTR [ecx-0x25eff5fe],dl
  404575:	add    eax,ecx
  404577:	add    cl,BYTE PTR [eax-0x6efc15ff]
  40457d:	add    bh,BYTE PTR [esi]
  40457f:	adc    bh,dh
  404581:	add    ebx,ecx
  404583:	add    cl,BYTE PTR [eax-0x6efc01ff]
  404589:	add    cl,BYTE PTR [ebp+0x10]
  40458c:	add    al,0x4
  40458e:	xchg   ecx,eax
  40458f:	add    bl,BYTE PTR [edx+0x10]
  404592:	sub    BYTE PTR [eax],al
  404594:	loope  0x404598
  404596:	mov    BYTE PTR [ecx],al
  404598:	inc    BYTE PTR [ebx]
  40459a:	xchg   ecx,eax
  40459b:	add    ch,BYTE PTR [eax+0x10]
  40459e:	or     eax,DWORD PTR [ecx+edx*4]
  4045a1:	add    dh,BYTE PTR [ecx+0x10]
  4045a4:	add    BYTE PTR [eax],0xe9
  4045a7:	add    cl,BYTE PTR [eax-0xefbedff]
  4045ad:	add    dl,BYTE PTR [ebp-0xefbe7f0]
  4045b3:	add    bh,BYTE PTR [ebx+0x29041f10]
  4045b9:	add    ch,cl
  4045bb:	adc    BYTE PTR [ebx],cl
  4045bd:	add    al,0x91
  4045bf:	add    ch,dh
  4045c1:	adc    BYTE PTR [esi],ah
  4045c3:	add    al,0x1
  4045c5:	add    edi,ebx
  4045c7:	adc    BYTE PTR [esp+eax*1],ch
  4045ca:	xchg   ecx,eax
  4045cb:	add    bh,bh
  4045cd:	adc    BYTE PTR ds:0x13002e00,bl
  4045d3:	add    BYTE PTR [ebx],dh
  4045d5:	add    al,0x2e
  4045d7:	add    BYTE PTR [ebx],bl
  4045d9:	add    BYTE PTR [ebp+0x4],bh
  4045dc:	add    BYTE PTR cs:[ebx+0x2e051200],cl
  4045e3:	add    BYTE PTR [ebx],bh
  4045e5:	add    BYTE PTR [ebp+0x4],bh
  4045e8:	add    BYTE PTR cs:[ebx+0x2e050900],al
  4045ef:	add    BYTE PTR [ebx+0x0],al
  4045f2:	test   al,0x4
  4045f4:	add    BYTE PTR cs:[ebx],ah
  4045f7:	add    BYTE PTR [ebx+0x2b002e04],dl
  4045fd:	add    BYTE PTR [ebx+0x33002e04],dl
  404603:	add    BYTE PTR [ecx+0x5b002e04],bl
  404609:	add    BYTE PTR [ebx+0x4b002e04],dl
  40460f:	add    BYTE PTR [ebx+0x63002e04],dl
  404615:	add    cl,cl
  404617:	add    al,0x2e
  404619:	add    BYTE PTR [ebx+0x0],dh
  40461c:	repz add al,0x2e
  40461f:	add    BYTE PTR [ebx+0x0],bh
  404622:	add    BYTE PTR ds:0x1d300e3,al
  404628:	push   eax
  404629:	add    DWORD PTR [ecx+0x5000e301],esp
  40462f:	add    ecx,eax
  404631:	add    ebx,esp
  404633:	add    BYTE PTR [eax+0x1],dl
  404636:	inc    esp
  404637:	add    cl,BYTE PTR [ebx]
  404639:	add    BYTE PTR [eax+0x1],dl
  40463c:	movs   BYTE PTR es:[edi],BYTE PTR ds:[esi]
  40463d:	add    cl,BYTE PTR [ebx]
  40463f:	add    BYTE PTR [eax+0x1],dl
  404642:	and    BYTE PTR [ebx+eiz*8],al
  404645:	add    BYTE PTR [eax+0x1],dl
  404648:	inc    eax
  404649:	add    al,0xe3
  40464b:	add    BYTE PTR [eax+0x1],dl
  40464e:	fs add al,0xb
  404651:	add    BYTE PTR [eax+0x1],dl
  404654:	mov    al,ds:0x5000e304
  404659:	add    eax,eax
  40465b:	add    al,0xe3
  40465d:	add    BYTE PTR [eax+0x1],dl
  404660:	les    eax,FWORD PTR [ebx+ecx*1]
  404663:	add    BYTE PTR [eax+0x1],dl
  404666:	loopne 0x40466f
  404668:	sti    
  404669:	add    DWORD PTR [eax+0x1],edx
  40466c:	pop    esp
  40466d:	add    DWORD PTR [eax+0x1],esp
  404670:	add    DWORD PTR fs:[eax+0x1],ebp
  404674:	mov    al,BYTE PTR [ecx]
  404676:	cmps   DWORD PTR ds:[esi],DWORD PTR es:[edi]
  404677:	add    DWORD PTR [ebp+0x1001d501],ebp
  40467d:	add    ch,BYTE PTR [esi]
  40467f:	add    ah,BYTE PTR [edx+eax*1+0x6f]
  404683:	add    al,BYTE PTR [ebx+0x1202cc02]
  404689:	add    esp,DWORD PTR [ebx+0x3]
  40468c:	jo     0x404691
  40468e:	jg     0x404693
  404690:	mov    eax,DWORD PTR [ebx]
  404692:	mov    al,ds:0xd403b903
  404697:	add    eax,DWORD PTR ds:0x6000100
  40469d:	add    BYTE PTR [edx],al
  40469f:	add    BYTE PTR [eax],al
  4046a1:	add    BYTE PTR [ecx+0xc02],ch
  4046a7:	add    BYTE PTR [ecx+0x5000c02],ch
  4046ad:	add    BYTE PTR [ecx],al
  4046af:	add    BYTE PTR [esi],al
  4046b1:	add    BYTE PTR [ebx],al
  4046b3:	add    BYTE PTR [eax],al
  4046b5:	add    BYTE PTR [ebp+0x6c02],dh
  4046bb:	add    al,al
  4046bd:	add    dh,BYTE PTR [eax+0x0]
  4046c0:	add    BYTE PTR [eax],al
  4046c2:	mov    ch,0x2
  4046c4:	retf   0x0
  4046c7:	add    BYTE PTR [esi],ah
  4046c9:	add    al,0xce
  4046cb:	add    BYTE PTR [eax],al
  4046cd:	add    BYTE PTR [ebx],bh
  4046cf:	add    edx,edx
  4046d1:	add    BYTE PTR [eax],al
  4046d3:	add    BYTE PTR [edx],dh
  4046d5:	add    al,0xca
  4046d7:	add    BYTE PTR [eax],cl
  4046d9:	add    BYTE PTR [ebx],cl
  4046db:	add    BYTE PTR [edx],al
  4046dd:	add    BYTE PTR [eax],dl
  4046df:	add    BYTE PTR [eax+eax*1],cl
  4046e2:	add    al,BYTE PTR [eax]
  4046e4:	add    al,BYTE PTR [eax]
  4046e6:	or     eax,0x1000300
  4046eb:	add    BYTE PTR [esi],cl
  4046ed:	add    BYTE PTR [ebx],al
  4046ef:	add    BYTE PTR [eax],dl
  4046f1:	add    BYTE PTR [edi],bl
  4046f3:	add    BYTE PTR [eax+eax*1],al
  4046f6:	or     BYTE PTR [eax],al
  4046f8:	push   ds
  4046f9:	add    BYTE PTR [eax+eax*1],al
  4046fc:	add    DWORD PTR [eax],eax
  4046fe:	adc    BYTE PTR [eax],al
  404700:	add    eax,0xf000200
  404705:	add    BYTE PTR ds:0x22000100,al
  40470b:	add    BYTE PTR [edi],al
  40470d:	add    BYTE PTR [edx],al
  40470f:	add    BYTE PTR [ecx],ah
  404711:	add    BYTE PTR [edi],al
  404713:	add    BYTE PTR [ecx],al
  404715:	add    BYTE PTR [eax+eax*1],ah
  404718:	or     DWORD PTR [eax],eax
  40471a:	add    al,BYTE PTR [eax]
  40471c:	and    eax,DWORD PTR [eax]
  40471e:	or     DWORD PTR [eax],eax
  404720:	add    al,BYTE PTR [eax]
  404722:	and    eax,0x1000b00
  404727:	add    BYTE PTR [esi],ah
  404729:	add    BYTE PTR [ebx],cl
  40472b:	add    BYTE PTR [edx],al
  40472d:	add    BYTE PTR [eax],ch
  40472f:	add    BYTE PTR ds:0xb70b8d00,cl
  404735:	add    ebx,ebp
  404737:	add    DWORD PTR [ecx],eax
  404739:	add    dh,BYTE PTR [edx+0x4003c403]
  40473f:	add    DWORD PTR [ebx+0x0],esp
  404742:	int3   
  404743:	add    eax,DWORD PTR [ecx]
  404745:	add    BYTE PTR [eax+eax*4],al
  404748:	add    BYTE PTR [eax],al
  40474a:	add    DWORD PTR [eax],eax
	...
  404758:	xor    eax,DWORD PTR [eax]
  40475a:	add    BYTE PTR [eax],al
  40475c:	add    al,0x0
	...
  404766:	add    BYTE PTR [eax],al
  404768:	add    DWORD PTR [eax],eax
  40476a:	add    eax,0x1
  40476f:	add    BYTE PTR [eax+eax*1],al
	...
  40477a:	add    BYTE PTR [eax],al
  40477c:	add    DWORD PTR [eax],eax
  40477e:	dec    ebp
  40477f:	add    DWORD PTR [eax],eax
  404781:	add    BYTE PTR [eax],al
  404783:	add    BYTE PTR [eax+eax*1],al
	...
  40478e:	add    BYTE PTR [eax],al
  404790:	add    DWORD PTR [eax],eax
  404792:	push   cs
  404793:	add    DWORD PTR [eax],eax
  404795:	add    BYTE PTR [eax],al
  404797:	add    BYTE PTR [edx],al
  404799:	add    BYTE PTR [ebx],al
  40479b:	add    BYTE PTR ds:0x0,ch
  4047a1:	add    BYTE PTR [eax],al
  4047a3:	add    bh,dh
  4047a5:	add    BYTE PTR [ecx],bl
  4047a7:	add    eax,0x0
  4047ac:	add    al,0x0
	...
  4047b6:	add    BYTE PTR [eax],al
  4047b8:	add    DWORD PTR [eax],eax
  4047ba:	and    cl,BYTE PTR [edi]
  4047bc:	add    BYTE PTR [eax],al
  4047be:	add    BYTE PTR [eax],al
  4047c0:	add    al,0x0
	...
  4047ca:	add    BYTE PTR [eax],al
  4047cc:	loope  0x4047d1
  4047ce:	adc    edx,DWORD PTR [eax]
	...
  4047d8:	add    DWORD PTR [eax],eax
  4047da:	add    BYTE PTR [eax],al
  4047dc:	or     al,0x11
  4047de:	add    BYTE PTR [eax],al
  4047e0:	pop    es
  4047e1:	add    BYTE PTR [esi],al
  4047e3:	add    BYTE PTR [eax],cl
  4047e5:	add    BYTE PTR [esi],al
  4047e7:	add    BYTE PTR [edx],cl
  4047e9:	add    BYTE PTR [ecx],cl
  4047eb:	add    BYTE PTR [ecx],dl
  4047ed:	add    BYTE PTR [eax],dl
  4047ef:	add    BYTE PTR [ebx],dh
  4047f1:	add    BYTE PTR [ebp+0x1],al
  4047f7:	add    BYTE PTR [eax],al
  4047f9:	cmp    al,0x4d
  4047fb:	outs   dx,DWORD PTR ds:[esi]
  4047fc:	fs jne 0x40486b
  4047ff:	gs add BYTE PTR ds:[ebx+0x72],al
  404804:	popa   
  404805:	jae    0x40486f
  404807:	inc    esp
  404808:	jne    0x404877
  40480a:	jo     0x404863
  40480c:	popa   
  40480d:	je     0x404872
  40480f:	push   0x652e7265
  404814:	js     0x40487b
  404816:	add    BYTE PTR [edi+ebp*2+0x67],cl
  40481a:	inc    edx
  40481b:	ins    BYTE PTR es:[edi],dx
  40481c:	outs   dx,DWORD PTR ds:[esi]
  40481d:	arpl   WORD PTR [ebx+0x45],bp
  404820:	outs   dx,BYTE PTR ds:[esi]
  404821:	arpl   WORD PTR [ecx+0x70],sp
  404824:	jae    0x40489b
  404826:	ins    BYTE PTR es:[edi],dx
  404827:	popa   
  404828:	je     0x40488f
  40482a:	add    BYTE PTR [ebx+0x72],al
  40482d:	popa   
  40482e:	jae    0x404898
  404830:	inc    esp
  404831:	jne    0x4048a0
  404833:	jo     0x40488c
  404835:	popa   
  404836:	je     0x40489b
  404838:	push   0x4c007265
  40483d:	imul   ebp,DWORD PTR [esi+0x65],0x65646441
  404844:	add    BYTE PTR fs:[ebx+0x6f],al
  404848:	outs   dx,BYTE PTR ds:[esi]
  404849:	jae    0x4048ba
  40484b:	ins    BYTE PTR es:[edi],dx
  40484c:	gs dec esp
  40484e:	outs   dx,DWORD PTR ds:[esi]
  40484f:	addr16 addr16 gs jb 0x404854
  404854:	dec    esp
  404855:	outs   dx,DWORD PTR ds:[esi]
  404856:	addr16 addr16 gs jb 0x40485b
  40485b:	dec    esp
  40485c:	outs   dx,DWORD PTR ds:[esi]
  40485d:	addr16 addr16 gs jb 0x4048ab
  404862:	ins    DWORD PTR es:[edi],dx
  404863:	jo     0x4048d1
  404865:	add    BYTE PTR [edi+0x6c],al
  404868:	outs   dx,DWORD PTR ds:[esi]
  404869:	bound  esp,QWORD PTR [ecx+0x6c]
  40486c:	jae    0x40486e
  40486e:	push   eax
  40486f:	gs jb  0x4048c6
  404872:	push   0x64616572
  404877:	dec    ecx
  404878:	outs   dx,BYTE PTR ds:[esi]
  404879:	outs   dx,WORD PTR ds:[esi]
  40487b:	add    BYTE PTR [eax+0x72],dl
  40487e:	outs   dx,DWORD PTR ds:[esi]
  40487f:	addr16 jb 0x4048e3
  404882:	ins    DWORD PTR es:[edi],dx
  404883:	add    BYTE PTR [edx+0x75],al
  404886:	jae    0x404901
  404888:	push   edi
  404889:	popa   
  40488a:	je     0x4048ef
  40488c:	push   0x49007265
  404891:	push   esp
  404892:	jb     0x4048f5
  404894:	outs   dx,BYTE PTR ds:[esi]
  404895:	jae    0x4048fd
  404897:	gs jb  0x4048e7
  40489a:	gs je  0x404905
  40489d:	outs   dx,DWORD PTR ds:[esi]
  40489e:	add    BYTE PTR fs:[esi+0x65],cl
  4048a2:	je     0x40491b
  4048a4:	outs   dx,DWORD PTR ds:[esi]
  4048a5:	jb     0x404912
  4048a7:	push   esp
  4048a8:	jb     0x40490b
  4048aa:	outs   dx,BYTE PTR ds:[esi]
  4048ab:	jae    0x404913
  4048ad:	gs jb  0x4048b0
  4048b0:	push   ebx
  4048b1:	xor    edx,DWORD PTR [edx+esi*2+0x61]
  4048b5:	outs   dx,BYTE PTR ds:[esi]
  4048b6:	jae    0x40491e
  4048b8:	gs jb  0x4048bb
  4048bb:	dec    ecx
  4048bc:	push   edi
  4048bd:	popa   
  4048be:	je     0x404923
  4048c0:	push   0x57007265
  4048c5:	popa   
  4048c6:	je     0x40492b
  4048c8:	push   0x61487265
  4048cd:	outs   dx,BYTE PTR ds:[esi]
  4048ce:	fs ins BYTE PTR es:[edi],dx
  4048d0:	gs jb  0x4048d3
  4048d3:	pop    edx
  4048d4:	imul   esi,DWORD PTR [eax+0x53],0x65646e65
  4048db:	jb     0x4048dd
  4048dd:	push   edx
  4048de:	imul   esp,DWORD PTR [ebx+0x68],0x74786554
  4048e5:	inc    edx
  4048e6:	outs   dx,DWORD PTR ds:[esi]
  4048e7:	js     0x404935
  4048e9:	outs   dx,DWORD PTR ds:[esi]
  4048ea:	addr16 addr16 gs jb 0x4048ef
  4048ef:	push   edi
  4048f0:	outs   dx,DWORD PTR ds:[esi]
  4048f1:	jb     0x40495e
  4048f3:	imul   ebp,DWORD PTR [esi+0x67],0x6c616944
  4048fa:	outs   dx,DWORD PTR ds:[esi]
  4048fb:	add    BYTE PTR [di+0x73],ch
  4048ff:	arpl   WORD PTR [edi+0x72],bp
  404902:	ins    BYTE PTR es:[edi],dx
  404903:	imul   esp,DWORD PTR [edx+0x0],0x74737953
  40490a:	gs ins DWORD PTR es:[edi],dx
  40490c:	add    BYTE PTR [edi+0x62],cl
  40490f:	push   0x65
  404911:	arpl   WORD PTR [eax+eax*1+0x49],si
  404915:	inc    esp
  404916:	imul   esi,DWORD PTR [ebx+0x70],0x6261736f
  40491d:	ins    BYTE PTR es:[edi],dx
  40491e:	add    BYTE PTR gs:[ebp+0x75],cl
  404922:	ins    BYTE PTR es:[edi],dx
  404923:	je     0x40498e
  404925:	arpl   WORD PTR [ecx+0x73],sp
  404928:	je     0x40496e
  40492a:	gs ins BYTE PTR es:[edi],dx
  40492c:	gs addr16 popa 
  40492f:	je     0x404996
  404931:	add    BYTE PTR [ebx+0x6f],al
  404934:	outs   dx,BYTE PTR ds:[esi]
  404935:	je     0x40499c
  404937:	js     0x4049ad
  404939:	inc    edx
  40493a:	outs   dx,DWORD PTR ds:[esi]
  40493b:	jne    0x4049ab
  40493d:	fs dec edi
  40493f:	bound  ebp,QWORD PTR [edx+0x65]
  404942:	arpl   WORD PTR [eax+eax*1+0x53],si
  404946:	jns    0x4049bb
  404948:	je     0x4049af
  40494a:	ins    DWORD PTR es:[edi],dx
  40494b:	cs push edi
  40494d:	imul   ebp,DWORD PTR [esi+0x64],0x2e73776f
  404954:	inc    esi
  404955:	outs   dx,DWORD PTR ds:[esi]
  404956:	jb     0x4049c5
  404958:	jae    0x40495a
  40495a:	inc    esi
  40495b:	outs   dx,DWORD PTR ds:[esi]
  40495c:	jb     0x4049cb
  40495e:	add    BYTE PTR [ebp+0x5f],ch
  404961:	outs   dx,DWORD PTR ds:[esi]
  404962:	jo     0x4049c9
  404964:	outs   dx,BYTE PTR ds:[esi]
  404965:	imul   ebp,DWORD PTR [esi+0x67],0x635f6d00
  40496c:	ins    BYTE PTR es:[edi],dx
  40496d:	outs   dx,DWORD PTR ds:[esi]
  40496e:	jae    0x4049d9
  404970:	outs   dx,BYTE PTR ds:[esi]
  404971:	add    BYTE PTR [di+0x5f],ch
  404975:	ins    BYTE PTR es:[edi],dx
  404976:	outs   dx,DWORD PTR ds:[esi]
  404977:	arpl   WORD PTR [ebx+0x4f],bp
  40497a:	bound  ebp,QWORD PTR [edx+0x65]
  40497d:	arpl   WORD PTR [eax+eax*1+0x2e],si
  404981:	arpl   WORD PTR [edi+ebp*2+0x72],si
  404985:	add    BYTE PTR [ecx+ebp*2+0x73],al
  404989:	jo     0x4049fa
  40498b:	jae    0x4049f2
  40498d:	add    BYTE PTR [ecx+ebp*2+0x73],ah
  404991:	jo     0x404a02
  404993:	jae    0x4049fa
  404995:	add    BYTE PTR fs:[ecx+0x6e],cl
  404999:	jbe    0x404a0a
  40499b:	imul   esp,DWORD PTR [ebp+0x0],0x49
  40499f:	inc    ecx
  4049a0:	jae    0x404a1b
  4049a2:	outs   dx,BYTE PTR ds:[esi]
  4049a3:	arpl   WORD PTR [edx+0x65],dx
  4049a6:	jae    0x404a1d
  4049a8:	ins    BYTE PTR es:[edi],dx
  4049a9:	je     0x4049ab
  4049ab:	inc    ecx
  4049ac:	jae    0x404a27
  4049ae:	outs   dx,BYTE PTR ds:[esi]
  4049af:	arpl   WORD PTR [ebx+0x61],ax
  4049b2:	ins    BYTE PTR es:[edi],dx
  4049b3:	ins    BYTE PTR es:[edi],dx
  4049b4:	bound  esp,QWORD PTR [ecx+0x63]
  4049b7:	imul   eax,DWORD PTR [eax],0x42
  4049ba:	imul   ebp,DWORD PTR gs:[bp+0x49],0x6b6f766e
  4049c3:	add    BYTE PTR gs:[ebp+0x6e],al
  4049c7:	fs dec ecx
  4049c9:	outs   dx,BYTE PTR ds:[esi]
  4049ca:	jbe    0x404a3b
  4049cc:	imul   esp,DWORD PTR [ebp+0x0],0x4f
  4049d0:	outs   dx,BYTE PTR ds:[esi]
  4049d1:	dec    esp
  4049d2:	outs   dx,DWORD PTR ds:[esi]
  4049d3:	addr16 dec esp
  4049d5:	imul   ebp,DWORD PTR [esi+0x65],0x65646441
  4049dc:	add    BYTE PTR fs:[ecx+0x64],ah
  4049e0:	fs pop edi
  4049e2:	dec    edi
  4049e3:	outs   dx,BYTE PTR ds:[esi]
  4049e4:	dec    esp
  4049e5:	imul   ebp,DWORD PTR [esi+0x65],0x65646441
  4049ec:	add    BYTE PTR fs:[edx+0x65],dh
  4049f0:	ins    DWORD PTR es:[edi],dx
  4049f1:	outs   dx,DWORD PTR ds:[esi]
  4049f2:	jbe    0x404a59
  4049f4:	pop    edi
  4049f5:	dec    edi
  4049f6:	outs   dx,BYTE PTR ds:[esi]
  4049f7:	dec    esp
  4049f8:	imul   ebp,DWORD PTR [esi+0x65],0x65646441
  4049ff:	add    BYTE PTR fs:[ebp+0x5f],ch
  404a03:	imul   ebp,DWORD PTR [esi+0x73],0x636e6174
  404a0a:	add    BYTE PTR gs:[edi+0x65],ah
  404a0e:	je     0x404a6f
  404a10:	inc    esi
  404a11:	ins    BYTE PTR es:[edi],dx
  404a12:	jne    0x404a87
  404a14:	push   0x756c6156
  404a19:	add    BYTE PTR gs:[ebx+0x65],dh
  404a1d:	je     0x404a7e
  404a1f:	inc    esi
  404a20:	ins    BYTE PTR es:[edi],dx
  404a21:	jne    0x404a96
  404a23:	push   0x756c6156
  404a28:	add    BYTE PTR gs:[edi+0x65],ah
  404a2c:	je     0x404a8d
  404a2e:	dec    esp
  404a2f:	outs   dx,DWORD PTR ds:[esi]
  404a30:	addr16 inc esi
  404a32:	imul   ebp,DWORD PTR [ebp+eiz*2+0x6e],0x656d61
  404a3a:	jae    0x404aa1
  404a3c:	je     0x404a9d
  404a3e:	dec    esp
  404a3f:	outs   dx,DWORD PTR ds:[esi]
  404a40:	addr16 inc esi
  404a42:	imul   ebp,DWORD PTR [ebp+eiz*2+0x6e],0x656d61
  404a4a:	push   edi
  404a4b:	jb     0x404ab6
  404a4d:	je     0x404ab4
  404a4f:	add    BYTE PTR [edi+0x72],dl
  404a52:	imul   esi,DWORD PTR [ebp+eiz*2+0x4c],0x656e69
  404a5a:	inc    ecx
  404a5b:	fs fs push esp
  404a5e:	popa   
  404a5f:	bound  eax,QWORD PTR [eax]
  404a61:	push   edx
  404a62:	gs ins DWORD PTR es:[edi],dx
  404a64:	outs   dx,DWORD PTR ds:[esi]
  404a65:	jbe    0x404acc
  404a67:	push   esp
  404a68:	popa   
  404a69:	bound  eax,QWORD PTR [eax]
  404a6b:	inc    ecx
  404a6c:	fs fs inc edi
  404a6f:	ins    BYTE PTR es:[edi],dx
  404a70:	outs   dx,DWORD PTR ds:[esi]
  404a71:	bound  esp,QWORD PTR [ecx+0x6c]
  404a74:	push   esp
  404a75:	popa   
  404a76:	bound  eax,QWORD PTR [eax]
  404a78:	push   edx
  404a79:	gs ins DWORD PTR es:[edi],dx
  404a7b:	outs   dx,DWORD PTR ds:[esi]
  404a7c:	jbe    0x404ae3
  404a7e:	inc    edi
  404a7f:	ins    BYTE PTR es:[edi],dx
  404a80:	outs   dx,DWORD PTR ds:[esi]
  404a81:	bound  esp,QWORD PTR [ecx+0x6c]
  404a84:	push   esp
  404a85:	popa   
  404a86:	bound  eax,QWORD PTR [eax]
  404a88:	inc    edi
  404a89:	gs je  0x404ae3
  404a8c:	jb     0x404af7
  404a8e:	je     0x404af5
  404a90:	dec    esp
  404a91:	outs   dx,DWORD PTR ds:[esi]
  404a92:	arpl   WORD PTR [ebx+0x0],bp
  404a95:	inc    esi
  404a96:	ins    BYTE PTR es:[edi],dx
  404a97:	jne    0x404b0c
  404a99:	push   0x6f6c4300
  404a9e:	jae    0x404b05
  404aa0:	add    BYTE PTR [edi+0x6e],cl
  404aa3:	dec    esp
  404aa4:	imul   ebp,DWORD PTR [esi+0x65],0x65646441
  404aab:	add    BYTE PTR fs:[esi+0x6c],al
  404aaf:	jne    0x404b24
  404ab1:	push   0x756c6156
  404ab6:	add    BYTE PTR gs:[edi+ebp*2+0x67],cl
  404abb:	inc    esi
  404abc:	imul   ebp,DWORD PTR [ebp+eiz*2+0x6e],0x656d61
  404ac4:	push   ebx
  404ac5:	jns    0x404b3a
  404ac7:	je     0x404b2e
  404ac9:	ins    DWORD PTR es:[edi],dx
  404aca:	cs dec ecx
  404acc:	dec    edi
  404acd:	add    BYTE PTR [ebx+0x74],dl
  404ad0:	jb     0x404b37
  404ad2:	popa   
  404ad3:	ins    DWORD PTR es:[edi],dx
  404ad4:	push   edi
  404ad5:	jb     0x404b40
  404ad7:	je     0x404b3e
  404ad9:	jb     0x404adb
  404adb:	ins    DWORD PTR es:[edi],dx
  404adc:	pop    edi
  404add:	outs   dx,DWORD PTR ds:[esi]
  404ade:	jne    0x404b54
  404ae0:	jo     0x404b57
  404ae2:	je     0x404b2a
  404ae4:	imul   ebp,DWORD PTR [ebp+eiz*2+0x0],0x6f6c5f6d
  404aec:	addr16 inc esi
  404aee:	imul   ebp,DWORD PTR [ebp+eiz*2+0x6e],0x656d61
  404af6:	ins    DWORD PTR es:[edi],dx
  404af7:	pop    edi
  404af8:	ins    BYTE PTR es:[di],dx
  404afa:	outs   dx,DWORD PTR ds:[esi]
  404afb:	bound  esp,QWORD PTR [ecx+0x6c]
  404afe:	jae    0x404b00
  404b00:	addr16 gs je 0x404b63
  404b04:	dec    esp
  404b05:	outs   dx,DWORD PTR ds:[esi]
  404b06:	addr16 inc esi
  404b08:	imul   ebp,DWORD PTR [ebp+eiz*2+0x4e],0x656d61
  404b10:	jae    0x404b77
  404b12:	je     0x404b73
  404b14:	dec    esp
  404b15:	outs   dx,DWORD PTR ds:[esi]
  404b16:	addr16 inc esi
  404b18:	imul   ebp,DWORD PTR [ebp+eiz*2+0x4e],0x656d61
  404b20:	push   ebx
  404b21:	jns    0x404b96
  404b23:	je     0x404b8a
  404b25:	ins    DWORD PTR es:[edi],dx
  404b26:	cs inc esp
  404b28:	imul   esp,DWORD PTR [ecx+0x67],0x74736f6e
  404b2f:	imul   esp,DWORD PTR [ebx+0x73],0x65764500
  404b36:	outs   dx,BYTE PTR ds:[esi]
  404b37:	je     0x404b85
  404b39:	outs   dx,DWORD PTR ds:[esi]
  404b3a:	add    BYTE PTR [bx+0x65],ah
  404b3e:	je     0x404b9f
  404b40:	inc    ebp
  404b41:	jbe    0x404ba8
  404b43:	outs   dx,BYTE PTR ds:[esi]
  404b44:	je     0x404b92
  404b46:	outs   dx,DWORD PTR ds:[esi]
  404b47:	add    BYTE PTR [bp+di+0x65],dh
  404b4b:	je     0x404bac
  404b4d:	inc    ebp
  404b4e:	jbe    0x404bb5
  404b50:	outs   dx,BYTE PTR ds:[esi]
  404b51:	je     0x404b9f
  404b53:	outs   dx,DWORD PTR ds:[esi]
  404b54:	add    BYTE PTR [bx+0x65],ah
  404b58:	je     0x404bb9
  404b5a:	push   esp
  404b5b:	popa   
  404b5c:	bound  eax,QWORD PTR [ebx+0x6f]
  404b5f:	jne    0x404bcf
  404b61:	je     0x404b63
  404b63:	inc    edi
  404b64:	gs je  0x404bbb
  404b67:	push   0x64616572
  404b6c:	dec    ecx
  404b6d:	outs   dx,BYTE PTR ds:[esi]
  404b6e:	outs   dx,WORD PTR ds:[esi]
  404b70:	add    BYTE PTR [ebp+0x5f],ch
  404b73:	ja     0x404be7
  404b75:	imul   esi,DWORD PTR [ebp+eiz*2+0x4c],0x6b636f
  404b7d:	push   ebx
  404b7e:	jns    0x404bf3
  404b80:	je     0x404be7
  404b82:	ins    DWORD PTR es:[edi],dx
  404b83:	cs push esp
  404b85:	gs js  0x404bfc
  404b88:	add    BYTE PTR [ebx+0x74],dl
  404b8b:	jb     0x404bf6
  404b8d:	outs   dx,BYTE PTR ds:[esi]
  404b8e:	addr16 inc edx
  404b90:	jne    0x404bfb
  404b92:	ins    BYTE PTR es:[edi],dx
  404b93:	fs gs jb 0x404b97
  404b97:	ins    DWORD PTR es:[edi],dx
  404b98:	pop    edi
  404b99:	arpl   WORD PTR [ecx+0x63],sp
  404b9c:	push   0x5f6d0065
  404ba1:	ja     0x404c15
  404ba3:	imul   esi,DWORD PTR [ebp+eiz*2+0x43],0x746e756f
  404bab:	add    BYTE PTR [edi+0x65],al
  404bae:	je     0x404bfc
  404bb0:	imul   ebp,DWORD PTR [esi+0x65],0x64410073
  404bb7:	fs dec esp
  404bb9:	imul   ebp,DWORD PTR [esi+0x65],0x61436f54
  404bc0:	arpl   WORD PTR [eax+0x65],bp
  404bc3:	add    BYTE PTR [esi+0x6c],al
  404bc6:	jne    0x404c3b
  404bc8:	push   0x656c6946
  404bcd:	inc    edx
  404bce:	jne    0x404c36
  404bd0:	data16 gs jb 0x404c47
  404bd4:	add    BYTE PTR [ecx+0x64],al
  404bd7:	fs dec esp
  404bd9:	imul   ebp,DWORD PTR [esi+0x65],0x64410073
  404be0:	fs push ebx
  404be2:	je     0x404c56
  404be4:	imul   ebp,DWORD PTR [esi+0x67],0x6c463c00
  404beb:	jne    0x404c60
  404bed:	push   0x756c6156
  404bf2:	gs imul ebx,DWORD PTR ds:[edi+0x5f],0x42
  404bf8:	popa   
  404bf9:	arpl   WORD PTR [ebx+0x69],bp
  404bfc:	outs   dx,BYTE PTR ds:[esi]
  404bfd:	addr16 inc esi
  404bff:	imul   esp,DWORD PTR [ebp+0x6c],0x453c0064
  404c06:	jbe    0x404c6d
  404c08:	outs   dx,BYTE PTR ds:[esi]
  404c09:	je     0x404c57
  404c0b:	outs   dx,DWORD PTR ds:[esi]
  404c0c:	imul   ebx,DWORD PTR ds:[bx+0x5f],0x42
  404c12:	popa   
  404c13:	arpl   WORD PTR [ebx+0x69],bp
  404c16:	outs   dx,BYTE PTR ds:[esi]
  404c17:	addr16 inc esi
  404c19:	imul   esp,DWORD PTR [ebp+0x6c],0x6f4c0064
  404c20:	addr16 inc esi
  404c22:	imul   ebp,DWORD PTR [ebp+eiz*2+0x4e],0x656d61
  404c2a:	push   esp
  404c2b:	popa   
  404c2c:	bound  eax,QWORD PTR [ebx+0x6f]
  404c2f:	jne    0x404c9f
  404c31:	je     0x404c33
  404c33:	je     0x404c9d
  404c35:	jb     0x404c9c
  404c37:	popa   
  404c38:	fs dec ecx
  404c3a:	add    BYTE PTR fs:[eax+ebp*2+0x72],dh
  404c3f:	gs popa 
  404c41:	fs push eax
  404c43:	jb     0x404caa
  404c45:	imul   di,WORD PTR [eax+0x46],0x726f
  404c4b:	ins    DWORD PTR es:[edi],dx
  404c4c:	popa   
  404c4d:	je     0x404c4f
  404c4f:	je     0x404cb2
  404c51:	bound  eax,QWORD PTR [ebx+0x6f]
  404c54:	jne    0x404cc4
  404c56:	je     0x404c58
  404c58:	push   ebx
  404c59:	jns    0x404cce
  404c5b:	je     0x404cc2
  404c5d:	ins    DWORD PTR es:[edi],dx
  404c5e:	cs inc ebx
  404c60:	outs   dx,DWORD PTR ds:[esi]
  404c61:	ins    BYTE PTR es:[edi],dx
  404c62:	ins    BYTE PTR es:[edi],dx
  404c63:	arpl   WORD PTR gs:[ecx+ebp*2+0x6f],si
  404c68:	outs   dx,BYTE PTR ds:[esi]
  404c69:	jae    0x404c99
  404c6b:	inc    edi
  404c6c:	outs   dx,BYTE PTR gs:[esi]
  404c6e:	gs jb  0x404cda
  404c71:	arpl   WORD PTR [eax],ax
  404c73:	inc    esp
  404c74:	imul   esp,DWORD PTR [ebx+0x74],0x616e6f69
  404c7b:	jb     0x404cf6
  404c7d:	pusha  
  404c7e:	xor    al,BYTE PTR [eax]
  404c80:	push   ebx
  404c81:	jns    0x404cf6
  404c83:	je     0x404cea
  404c85:	ins    DWORD PTR es:[edi],dx
  404c86:	cs push esp
  404c88:	push   0x64616572
  404c8d:	imul   ebp,DWORD PTR [esi+0x67],0x72685400
  404c94:	gs popa 
  404c96:	add    BYTE PTR fs:[ebp+0x5f],ch
  404c9a:	je     0x404d04
  404c9c:	jb     0x404d03
  404c9e:	popa   
  404c9f:	fs dec ecx
  404ca1:	outs   dx,BYTE PTR ds:[esi]
  404ca2:	outs   dx,WORD PTR ds:[esi]
  404ca4:	jae    0x404ca6
  404ca6:	push   esp
  404ca7:	outs   dx,DWORD PTR ds:[esi]
  404ca8:	jne    0x404d0d
  404caa:	push   0x626154
  404caf:	imul   esp,DWORD PTR [eax+eax*1+0x74],0x61657268
  404cb7:	fs push eax
  404cb9:	jb     0x404d20
  404cbb:	imul   di,WORD PTR [eax+0x0],0x6174
  404cc1:	bound  edx,QWORD PTR [eax+0x72]
  404cc4:	imul   di,WORD PTR gs:[eax+0x0],0x614d
  404ccb:	imul   ebp,DWORD PTR [esi+0x0],0x6f747541
  404cd2:	push   edx
  404cd3:	gs jae 0x404d3b
  404cd6:	je     0x404d1d
  404cd8:	jbe    0x404d3f
  404cda:	outs   dx,BYTE PTR ds:[esi]
  404cdb:	je     0x404cdd
  404cdd:	ja     0x404d47
  404cdf:	add    BYTE PTR [edi+0x61],dh
  404ce2:	je     0x404d47
  404ce4:	push   0x42007265
  404ce9:	jne    0x404d5e
  404ceb:	jns    0x404d44
  404ced:	popa   
  404cee:	imul   esi,DWORD PTR [eax+eax*1+0x54],0x736e6172
  404cf6:	data16 gs jb 0x404d40
  404cfa:	imul   ebp,DWORD PTR [ebp+eiz*2+0x0],0x50636e75
  404d02:	popa   
  404d03:	je     0x404d6d
  404d05:	add    BYTE PTR [edx+0x75],ah
  404d08:	arpl   WORD PTR [ebx+0x65],bp
  404d0b:	je     0x404d5b
  404d0d:	popa   
  404d0e:	ins    DWORD PTR es:[edi],dx
  404d0f:	add    BYTE PTR gs:[ecx+0x57],al
  404d13:	push   ebx
  404d14:	push   ebx
  404d15:	inc    esp
  404d16:	dec    ebx
  404d17:	add    BYTE PTR [ecx+0x6d],al
  404d1a:	popa   
  404d1b:	jp     0x404d8c
  404d1d:	outs   dx,BYTE PTR ds:[esi]
  404d1e:	cs push ebx
  404d20:	xor    ebp,DWORD PTR [esi]
  404d22:	push   esp
  404d23:	jb     0x404d86
  404d25:	outs   dx,BYTE PTR ds:[esi]
  404d26:	jae    0x404d8e
  404d28:	gs jb  0x404d2b
  404d2b:	push   esp
  404d2c:	jb     0x404d8f
  404d2e:	outs   dx,BYTE PTR ds:[esi]
  404d2f:	jae    0x404d97
  404d31:	gs jb  0x404d89
  404d34:	je     0x404d9f
  404d36:	ins    BYTE PTR es:[edi],dx
  404d37:	imul   esi,DWORD PTR [ecx+edi*2+0x0],0x53007574
  404d3f:	jns    0x404db4
  404d41:	je     0x404da8
  404d43:	ins    DWORD PTR es:[edi],dx
  404d44:	cs push esp
  404d46:	gs js  0x404dbd
  404d49:	cs push edx
  404d4b:	gs addr16 jne 0x404dbb
  404d4f:	popa   
  404d50:	jb     0x404d97
  404d52:	js     0x404dc4
  404d54:	jb     0x404dbb
  404d56:	jae    0x404dcb
  404d58:	imul   ebp,DWORD PTR [edi+0x6e],0x65520073
  404d5f:	addr16 gs js 0x404d63
  404d63:	jb     0x404dca
  404d65:	inc    ebx
  404d66:	dec    esp
  404d67:	add    BYTE PTR [esi+0x69],al
  404d6a:	ins    BYTE PTR es:[edi],dx
  404d6b:	gs push ebx
  404d6d:	jns    0x404de2
  404d6f:	je     0x404dd6
  404d71:	ins    DWORD PTR es:[edi],dx
  404d72:	inc    ebp
  404d73:	jbe    0x404dda
  404d75:	outs   dx,BYTE PTR ds:[esi]
  404d76:	je     0x404db9
  404d78:	jb     0x404de1
  404d7a:	jae    0x404d7c
  404d7c:	dec    edi
  404d7d:	outs   dx,BYTE PTR ds:[esi]
  404d7e:	inc    ebx
  404d7f:	push   0x65676e61
  404d84:	add    BYTE PTR fs:[edi+0x6e],cl
  404d88:	inc    ebx
  404d89:	jb     0x404df0
  404d8b:	popa   
  404d8c:	je     0x404df3
  404d8e:	add    BYTE PTR fs:[edi+0x6e],cl
  404d92:	dec    esp
  404d93:	popa   
  404d94:	jae    0x404e0a
  404d96:	inc    ecx
  404d97:	arpl   WORD PTR [ebx+0x65],sp
  404d9a:	jae    0x404e0f
  404d9c:	add    BYTE PTR [edi+0x6e],cl
  404d9f:	dec    esp
  404da0:	popa   
  404da1:	jae    0x404e17
  404da3:	push   edi
  404da4:	jb     0x404e0f
  404da6:	je     0x404e0d
  404da8:	add    BYTE PTR [ecx+0x73],cl
  404dab:	inc    edx
  404dac:	jne    0x404e21
  404dae:	jns    0x404db0
  404db0:	jp     0x404e25
  404db2:	add    BYTE PTR [edx+esi*2+0x61],dh
  404db6:	outs   dx,BYTE PTR ds:[esi]
  404db7:	jae    0x404e1f
  404db9:	gs jb  0x404e09
  404dbc:	gs je  0x404e27
  404dbf:	outs   dx,DWORD PTR ds:[esi]
  404dc0:	add    BYTE PTR fs:[esi+0x69],al
  404dc4:	ins    BYTE PTR es:[edi],dx
  404dc5:	gs push ebx
  404dc7:	jns    0x404e3c
  404dc9:	je     0x404e30
  404dcb:	ins    DWORD PTR es:[edi],dx
  404dcc:	push   edi
  404dcd:	popa   
  404dce:	je     0x404e33
  404dd0:	push   0x66007265
  404dd5:	jae    0x404e4e
  404dd7:	add    BYTE PTR [edi+0x61],dh
  404dda:	je     0x404e3f
  404ddc:	push   0x69446465
  404de1:	jb     0x404e48
  404de3:	arpl   WORD PTR [edi+ebp*2+0x72],si
  404de7:	jns    0x404de9
  404de9:	inc    esp
  404dea:	popa   
  404deb:	je     0x404e52
  404ded:	push   esp
  404dee:	imul   ebp,DWORD PTR [ebp+0x65],0x73616c00
  404df5:	je     0x404e4b
  404df7:	outs   dx,DWORD PTR ds:[esi]
  404df8:	jne    0x404e5d
  404dfa:	push   0x73795300
  404dff:	je     0x404e66
  404e01:	ins    DWORD PTR es:[edi],dx
  404e02:	cs push edx
  404e04:	jne    0x404e74
  404e06:	je     0x404e71
  404e08:	ins    DWORD PTR es:[edi],dx
  404e09:	gs cs inc ebx
  404e0c:	outs   dx,DWORD PTR ds:[esi]
  404e0d:	ins    DWORD PTR es:[edi],dx
  404e0e:	jo     0x404e79
  404e10:	ins    BYTE PTR es:[edi],dx
  404e11:	gs jb  0x404e67
  404e14:	gs jb  0x404e8d
  404e17:	imul   esp,DWORD PTR [ebx+0x65],0x73490073
  404e1e:	push   esi
  404e1f:	outs   dx,DWORD PTR ds:[esi]
  404e20:	ins    BYTE PTR es:[edi],dx
  404e21:	popa   
  404e22:	je     0x404e8d
  404e24:	ins    BYTE PTR es:[edi],dx
  404e25:	add    BYTE PTR gs:[edx+0x54],ah
  404e29:	outs   dx,DWORD PTR ds:[esi]
  404e2a:	jne    0x404e8f
  404e2c:	push   0x53006465
  404e31:	jns    0x404ea6
  404e33:	je     0x404e9a
  404e35:	ins    DWORD PTR es:[edi],dx
  404e36:	cs push esp
  404e38:	push   0x64616572
  404e3d:	imul   ebp,DWORD PTR [esi+0x67],0x7361542e
  404e44:	imul   esi,DWORD PTR [ebx+0x0],0x54
  404e48:	popa   
  404e49:	jae    0x404eb6
  404e4b:	add    BYTE PTR [edx+0x69],bh
  404e4e:	jo     0x404ea4
  404e50:	popa   
  404e51:	jae    0x404ebe
  404e53:	add    BYTE PTR [edi+0x61],dh
  404e56:	imul   esi,DWORD PTR [ebx+edx*2+0x65],0x646e6f63
  404e5e:	jae    0x404e60
  404e60:	bound  eax,QWORD PTR [edx+0x75]
  404e63:	jae    0x404ede
  404e65:	add    BYTE PTR [ebp+0x5f],ch
  404e68:	ja     0x404ed9
  404e6a:	jb     0x404ed7
  404e6c:	imul   ebp,DWORD PTR [esi+0x67],0x6c616944
  404e73:	outs   dx,DWORD PTR ds:[esi]
  404e74:	add    BYTE PTR [di+0x5f],ch
  404e78:	imul   esp,DWORD PTR fs:[ecx+0x6c],0x6f4c676f
  404e80:	addr16 addr16 gs jb 0x404e85
  404e85:	ins    DWORD PTR es:[edi],dx
  404e86:	pop    edi
  404e87:	je     0x404eea
  404e89:	jae    0x404ef6
  404e8b:	add    BYTE PTR [edx+0x69],bl
  404e8e:	jo     0x404ee3
  404e90:	outs   dx,BYTE PTR gs:[esi]
  404e92:	fs gs jb 0x404eea
  404e96:	popa   
  404e97:	jae    0x404f04
  404e99:	add    BYTE PTR [edx+0x69],bl
  404e9c:	jo     0x404ef2
  404e9e:	popa   
  404e9f:	jae    0x404f0c
  404ea1:	add    BYTE PTR [ebp+0x5f],ch
  404ea4:	imul   esp,DWORD PTR fs:[ecx+0x6c],0x6d00676f
  404eac:	pop    edi
  404ead:	je     0x404f10
  404eaf:	jae    0x404f1c
  404eb1:	dec    ecx
  404eb2:	add    BYTE PTR fs:[edx+0x72],al
  404eb6:	imul   ebp,DWORD PTR [esi+0x67],0x72466f54
  404ebd:	outs   dx,DWORD PTR ds:[esi]
  404ebe:	outs   dx,BYTE PTR ds:[esi]
  404ebf:	je     0x404ec1
  404ec1:	inc    ecx
  404ec2:	jo     0x404f34
  404ec4:	outs   dx,BYTE PTR gs:[esi]
  404ec6:	fs push esp
  404ec8:	gs js  0x404f3f
  404ecb:	inc    edx
  404ecc:	outs   dx,DWORD PTR ds:[esi]
  404ecd:	js     0x404ecf
  404ecf:	push   ebx
  404ed0:	jns    0x404f45
  404ed2:	je     0x404f39
  404ed4:	ins    DWORD PTR es:[edi],dx
  404ed5:	cs inc ebx
  404ed7:	outs   dx,DWORD PTR ds:[esi]
  404ed8:	ins    DWORD PTR es:[edi],dx
  404ed9:	jo     0x404f4a
  404edb:	outs   dx,BYTE PTR ds:[esi]
  404edc:	outs   dx,BYTE PTR gs:[esi]
  404ede:	je     0x404f2d
  404ee0:	outs   dx,DWORD PTR ds:[esi]
  404ee1:	fs gs ins BYTE PTR es:[edi],dx
  404ee4:	add    BYTE PTR [ecx+0x43],cl
  404ee7:	outs   dx,DWORD PTR ds:[esi]
  404ee8:	outs   dx,BYTE PTR ds:[esi]
  404ee9:	je     0x404f4c
  404eeb:	imul   ebp,DWORD PTR [esi+0x65],0x6f630072
  404ef2:	ins    DWORD PTR es:[edi],dx
  404ef3:	jo     0x404f64
  404ef5:	outs   dx,BYTE PTR ds:[esi]
  404ef6:	outs   dx,BYTE PTR gs:[esi]
  404ef8:	je     0x404f6d
  404efa:	add    BYTE PTR [ecx+0x6e],cl
  404efd:	imul   esi,DWORD PTR [ecx+ebp*2+0x61],0x657a696c
  404f05:	inc    ebx
  404f06:	outs   dx,DWORD PTR ds:[esi]
  404f07:	ins    DWORD PTR es:[edi],dx
  404f08:	jo     0x404f79
  404f0a:	outs   dx,BYTE PTR ds:[esi]
  404f0b:	outs   dx,BYTE PTR gs:[esi]
  404f0d:	je     0x404f0f
  404f0f:	push   edx
  404f10:	imul   esp,DWORD PTR [ebx+0x68],0x74786554
  404f17:	inc    edx
  404f18:	outs   dx,DWORD PTR ds:[esi]
  404f19:	js     0x404f1b
  404f1b:	jb     0x404f86
  404f1d:	arpl   WORD PTR [eax+0x54],bp
  404f20:	gs js  0x404f97
  404f23:	inc    edx
  404f24:	outs   dx,DWORD PTR ds:[esi]
  404f25:	js     0x404f58
  404f27:	add    BYTE PTR [edi+0x70],ch
  404f2a:	outs   dx,BYTE PTR gs:[esi]
  404f2c:	imul   ebp,DWORD PTR [esi+0x67],0x6f6c6300
  404f33:	jae    0x404f9e
  404f35:	outs   dx,BYTE PTR ds:[esi]
  404f36:	add    BYTE PTR [si+0x69],ah
  404f3a:	jae    0x404fac
  404f3c:	outs   dx,DWORD PTR ds:[esi]
  404f3d:	jae    0x404fa8
  404f3f:	outs   dx,BYTE PTR ds:[esi]
  404f40:	add    BYTE PTR [bx+0x62],ch
  404f44:	push   0x65
  404f46:	arpl   WORD PTR [eax+eax*1+0x6d],si
  404f4a:	gs je  0x404fb5
  404f4d:	outs   dx,DWORD PTR ds:[esi]
  404f4e:	add    BYTE PTR fs:[ecx+ebp*2+0x6e],ch
  404f53:	add    BYTE PTR gs:[ebx+0x61],ah
  404f57:	ins    BYTE PTR es:[edi],dx
  404f58:	ins    BYTE PTR es:[edi],dx
  404f59:	bound  esp,QWORD PTR [ecx+0x63]
  404f5c:	imul   eax,DWORD PTR [eax],0x72
  404f5f:	gs jae 0x404fd7
  404f62:	ins    BYTE PTR es:[edi],dx
  404f63:	je     0x404f65
  404f65:	jae    0x404f67
  404f67:	jbe    0x404fca
  404f69:	ins    BYTE PTR es:[edi],dx
  404f6a:	jne    0x404fd1
  404f6c:	add    BYTE PTR [esi+0x6d],ah
  404f6f:	je     0x404f71
  404f71:	jo     0x404fd4
  404f73:	jb     0x404fd6
  404f75:	ins    DWORD PTR es:[edi],dx
  404f76:	gs je  0x404fde
  404f79:	jb     0x404fee
  404f7b:	add    BYTE PTR [eax+0x61],dl
  404f7e:	jb     0x404fe1
  404f80:	ins    DWORD PTR es:[edi],dx
  404f81:	inc    ecx
  404f82:	jb     0x404ff6
  404f84:	popa   
  404f85:	jns    0x404fc8
  404f87:	je     0x404ffd
  404f89:	jb     0x404ff4
  404f8b:	bound  esi,QWORD PTR [ebp+0x74]
  404f8e:	add    BYTE PTR gs:[edi+0x62],ch
  404f92:	push   0x0
  404f94:	push   0x6c646e61
  404f99:	add    BYTE PTR gs:[ecx+ebp*2+0x6e],ch
  404f9e:	gs jae 0x404fa1
  404fa1:	popa   
  404fa2:	jb     0x40500b
  404fa4:	jae    0x404fa6
  404fa6:	imul   ebp,DWORD PTR [esi+0x57],0x48746961
  404fad:	popa   
  404fae:	outs   dx,BYTE PTR ds:[esi]
  404faf:	fs ins BYTE PTR es:[edi],dx
  404fb1:	add    BYTE PTR gs:[ecx+0x6e],ch
  404fb5:	push   edi
  404fb6:	popa   
  404fb7:	je     0x40501c
  404fb9:	push   0x66007265
  404fbe:	imul   ebp,DWORD PTR [ebp+eiz*2+0x6e],0x656d61
  404fc6:	bound  esp,QWORD PTR [ecx+0x73]
  404fc9:	gs push ebp
  404fcb:	dec    esi
  404fcc:	inc    ebx
  404fcd:	push   eax
  404fce:	popa   
  404fcf:	je     0x405039
  404fd1:	add    BYTE PTR [ecx+0x6e],ch
  404fd4:	inc    edx
  404fd5:	jne    0x40503a
  404fd7:	imul   esp,DWORD PTR [ebp+0x74],0x4e
  404fdb:	popa   
  404fdc:	ins    DWORD PTR es:[edi],dx
  404fdd:	add    BYTE PTR gs:[ebx+0x6f],dh
  404fe1:	jne    0x405055
  404fe3:	arpl   WORD PTR [ebp+0x0],sp
  404fe6:	add    BYTE PTR gs:[ecx+0x6e],ch
  404fea:	push   esp
  404feb:	jb     0x40504e
  404fed:	outs   dx,BYTE PTR ds:[esi]
  404fee:	jae    0x405056
  404ff0:	gs jb  0x405040
  404ff3:	gs je  0x40505e
  404ff6:	outs   dx,DWORD PTR ds:[esi]
  404ff7:	add    BYTE PTR fs:[ecx+ebp*2+0x72],ah
  404ffc:	arpl   WORD PTR gs:[edi+ebp*2+0x72],si
  405001:	jns    0x405003
  405003:	imul   esp,DWORD PTR fs:[ecx+0x6c],0x6900676f
  40500b:	outs   dx,BYTE PTR ds:[esi]
  40500c:	push   esp
  40500d:	popa   
  40500e:	jae    0x40507b
  405010:	dec    ecx
  405011:	add    BYTE PTR fs:[ebx+0x79],dl
  405015:	jae    0x40508b
  405017:	gs ins DWORD PTR es:[edi],dx
  405019:	cs push edx
  40501b:	jne    0x40508b
  40501d:	je     0x405088
  40501f:	ins    DWORD PTR es:[edi],dx
  405020:	gs cs push esi
  405023:	gs jb  0x405099
  405026:	imul   ebp,DWORD PTR [edi+0x6e],0x676e69
  40502d:	push   esp
  40502e:	popa   
  40502f:	jb     0x405098
  405031:	gs je  0x40507a
  405034:	jb     0x405097
  405036:	ins    DWORD PTR es:[edi],dx
  405037:	gs ja  0x4050a9
  40503a:	jb     0x4050a7
  40503c:	inc    ecx
  40503d:	je     0x4050b3
  40503f:	jb     0x4050aa
  405041:	bound  esi,QWORD PTR [ebp+0x74]
  405044:	add    BYTE PTR gs:[ebx+0x79],dl
  405048:	jae    0x4050be
  40504a:	gs ins DWORD PTR es:[edi],dx
  40504c:	cs push edx
  40504e:	gs data16 ins BYTE PTR es:[edi],dx
  405051:	arpl   WORD PTR gs:[ecx+ebp*2+0x6f],si
  405056:	outs   dx,BYTE PTR ds:[esi]
  405057:	add    BYTE PTR [ecx+0x73],al
  40505a:	jae    0x4050c1
  40505c:	ins    DWORD PTR es:[edi],dx
  40505d:	bound  ebp,QWORD PTR [ecx+edi*2+0x54]
  405061:	imul   esi,DWORD PTR [esp+ebp*2+0x65],0x72747441
  405069:	imul   esp,DWORD PTR [edx+0x75],0x41006574
  405070:	jae    0x4050e5
  405072:	gs ins DWORD PTR es:[edi],dx
  405074:	bound  ebp,QWORD PTR [ecx+edi*2+0x44]
  405078:	gs jae 0x4050de
  40507b:	jb     0x4050e6
  40507d:	jo     0x4050f3
  40507f:	imul   ebp,DWORD PTR [edi+0x6e],0x72747441
  405086:	imul   esp,DWORD PTR [edx+0x75],0x41006574
  40508d:	jae    0x405102
  40508f:	gs ins DWORD PTR es:[edi],dx
  405091:	bound  ebp,QWORD PTR [ecx+edi*2+0x43]
  405095:	outs   dx,DWORD PTR ds:[esi]
  405096:	outs   dx,BYTE PTR ds:[esi]
  405097:	imul   sp,WORD PTR [edi+0x75],0x6172
  40509d:	je     0x405108
  40509f:	outs   dx,DWORD PTR ds:[esi]
  4050a0:	outs   dx,BYTE PTR ds:[esi]
  4050a1:	inc    ecx
  4050a2:	je     0x405118
  4050a4:	jb     0x40510f
  4050a6:	bound  esi,QWORD PTR [ebp+0x74]
  4050a9:	add    BYTE PTR gs:[ecx+0x73],al
  4050ad:	jae    0x405114
  4050af:	ins    DWORD PTR es:[edi],dx
  4050b0:	bound  ebp,QWORD PTR [ecx+edi*2+0x43]
  4050b4:	outs   dx,DWORD PTR ds:[esi]
  4050b5:	ins    DWORD PTR es:[edi],dx
  4050b6:	jo     0x405119
  4050b8:	outs   dx,BYTE PTR ds:[esi]
  4050b9:	jns    0x4050fc
  4050bb:	je     0x405131
  4050bd:	jb     0x405128
  4050bf:	bound  esi,QWORD PTR [ebp+0x74]
  4050c2:	add    BYTE PTR gs:[ecx+0x73],al
  4050c6:	jae    0x40512d
  4050c8:	ins    DWORD PTR es:[edi],dx
  4050c9:	bound  ebp,QWORD PTR [ecx+edi*2+0x50]
  4050cd:	jb     0x40513e
  4050cf:	fs jne 0x405135
  4050d2:	je     0x405115
  4050d4:	je     0x40514a
  4050d6:	jb     0x405141
  4050d8:	bound  esi,QWORD PTR [ebp+0x74]
  4050db:	add    BYTE PTR gs:[ecx+0x73],al
  4050df:	jae    0x405146
  4050e1:	ins    DWORD PTR es:[edi],dx
  4050e2:	bound  ebp,QWORD PTR [ecx+edi*2+0x43]
  4050e6:	outs   dx,DWORD PTR ds:[esi]
  4050e7:	jo     0x405162
  4050e9:	jb     0x405154
  4050eb:	addr16 push 0x74744174
  4050f1:	jb     0x40515c
  4050f3:	bound  esi,QWORD PTR [ebp+0x74]
  4050f6:	add    BYTE PTR gs:[ecx+0x73],al
  4050fa:	jae    0x405161
  4050fc:	ins    DWORD PTR es:[edi],dx
  4050fd:	bound  ebp,QWORD PTR [ecx+edi*2+0x54]
  405101:	jb     0x405164
  405103:	fs gs ins DWORD PTR es:[edi],dx
  405106:	popa   
  405107:	jb     0x405174
  405109:	inc    ecx
  40510a:	je     0x405180
  40510c:	jb     0x405177
  40510e:	bound  esi,QWORD PTR [ebp+0x74]
  405111:	add    BYTE PTR gs:[ecx+0x73],al
  405115:	jae    0x40517c
  405117:	ins    DWORD PTR es:[edi],dx
  405118:	bound  ebp,QWORD PTR [ecx+edi*2+0x43]
  40511c:	jne    0x40518a
  40511e:	je     0x405195
  405120:	jb     0x405187
  405122:	inc    ecx
  405123:	je     0x405199
  405125:	jb     0x405190
  405127:	bound  esi,QWORD PTR [ebp+0x74]
  40512a:	add    BYTE PTR gs:[ebx+0x79],dl
  40512e:	jae    0x4051a4
  405130:	gs ins DWORD PTR es:[edi],dx
  405132:	cs push edx
  405134:	jne    0x4051a4
  405136:	je     0x4051a1
  405138:	ins    DWORD PTR es:[edi],dx
  405139:	gs cs dec ecx
  40513c:	outs   dx,BYTE PTR ds:[esi]
  40513d:	je     0x4051a4
  40513f:	jb     0x4051b0
  405141:	jo     0x405196
  405143:	gs jb  0x4051bc
  405146:	imul   esp,DWORD PTR [ebx+0x65],0x6f430073
  40514d:	ins    DWORD PTR es:[edi],dx
  40514e:	push   esi
  40514f:	imul   esi,DWORD PTR [ebx+0x69],0x41656c62
  405156:	je     0x4051cc
  405158:	jb     0x4051c3
  40515a:	bound  esi,QWORD PTR [ebp+0x74]
  40515d:	add    BYTE PTR gs:[edi+0x75],al
  405161:	imul   esp,DWORD PTR [ecx+eax*2+0x74],0x62697274
  405169:	jne    0x4051df
  40516b:	add    BYTE PTR gs:[ecx+0x73],al
  40516f:	jae    0x4051d6
  405171:	ins    DWORD PTR es:[edi],dx
  405172:	bound  ebp,QWORD PTR [ecx+edi*2+0x56]
  405176:	gs jb  0x4051ec
  405179:	imul   ebp,DWORD PTR [edi+0x6e],0x72747441
  405180:	imul   esp,DWORD PTR [edx+0x75],0x41006574
  405187:	jae    0x4051fc
  405189:	gs ins DWORD PTR es:[edi],dx
  40518b:	bound  ebp,QWORD PTR [ecx+edi*2+0x46]
  40518f:	imul   ebp,DWORD PTR [ebp+eiz*2+0x56],0x69737265
  405197:	outs   dx,DWORD PTR ds:[esi]
  405198:	outs   dx,BYTE PTR ds:[esi]
  405199:	inc    ecx
  40519a:	je     0x405210
  40519c:	jb     0x405207
  40519e:	bound  esi,QWORD PTR [ebp+0x74]
  4051a1:	add    BYTE PTR gs:[ebp+eiz*2+0x62],al
  4051a6:	jne    0x40520f
  4051a8:	addr16 popa 
  4051aa:	bound  ebp,QWORD PTR [ebp+eiz*2+0x41]
  4051ae:	je     0x405224
  4051b0:	jb     0x40521b
  4051b2:	bound  esi,QWORD PTR [ebp+0x74]
  4051b5:	add    BYTE PTR gs:[ebp+eiz*2+0x62],al
  4051ba:	jne    0x405223
  4051bc:	imul   ebp,DWORD PTR [bp+0x67],0x65646f4d
  4051c4:	jae    0x4051c6
  4051c6:	inc    ebx
  4051c7:	outs   dx,DWORD PTR ds:[esi]
  4051c8:	ins    DWORD PTR es:[edi],dx
  4051c9:	jo     0x405234
  4051cb:	ins    BYTE PTR es:[edi],dx
  4051cc:	popa   
  4051cd:	je     0x405238
  4051cf:	outs   dx,DWORD PTR ds:[esi]
  4051d0:	outs   dx,BYTE PTR ds:[esi]
  4051d1:	push   edx
  4051d2:	gs ins BYTE PTR es:[edi],dx
  4051d4:	popa   
  4051d5:	js     0x405238
  4051d7:	je     0x405242
  4051d9:	outs   dx,DWORD PTR ds:[esi]
  4051da:	outs   dx,BYTE PTR ds:[esi]
  4051db:	jae    0x40521e
  4051dd:	je     0x405253
  4051df:	jb     0x40524a
  4051e1:	bound  esi,QWORD PTR [ebp+0x74]
  4051e4:	add    BYTE PTR gs:[edx+0x75],dl
  4051e8:	outs   dx,BYTE PTR ds:[esi]
  4051e9:	je     0x405254
  4051eb:	ins    DWORD PTR es:[edi],dx
  4051ec:	gs inc ebx
  4051ee:	outs   dx,DWORD PTR ds:[esi]
  4051ef:	ins    DWORD PTR es:[edi],dx
  4051f0:	jo     0x405253
  4051f2:	je     0x40525d
  4051f4:	bound  ebp,QWORD PTR [ecx+0x6c]
  4051f7:	imul   esi,DWORD PTR [ecx+edi*2+0x41],0x69727474
  4051ff:	bound  esi,QWORD PTR [ebp+0x74]
  405202:	add    BYTE PTR gs:[ebp+0x6f],cl
  405206:	outs   dx,BYTE PTR ds:[esi]
  405207:	imul   esi,DWORD PTR [edi+ebp*2+0x72],0x746e4500
  40520f:	gs jb  0x405212
  405212:	inc    ebp
  405213:	js     0x40527e
  405215:	je     0x405217
  405217:	inc    edi
  405218:	inc    ebx
  405219:	add    BYTE PTR [ebx+0x75],dl
  40521c:	jo     0x40528e
  40521e:	jb     0x405285
  405220:	jae    0x405295
  405222:	inc    esi
  405223:	imul   ebp,DWORD PTR [esi+0x61],0x657a696c
  40522a:	add    BYTE PTR [ebx+0x6f],al
  40522d:	outs   dx,BYTE PTR ds:[esi]
  40522e:	jae    0x40529f
  405230:	ins    BYTE PTR es:[edi],dx
  405231:	add    BYTE PTR gs:[edi+ebp*2+0x53],dl
  405236:	je     0x4052aa
  405238:	imul   ebp,DWORD PTR [esi+0x67],0x63632e00
  40523f:	je     0x4052b0
  405241:	jb     0x405243
  405243:	inc    esp
  405244:	gs ins BYTE PTR es:[edi],dx
  405246:	gs addr16 popa 
  405249:	je     0x4052b0
  40524b:	add    BYTE PTR [ebx+0x6f],al
  40524e:	ins    DWORD PTR es:[edi],dx
  40524f:	bound  ebp,QWORD PTR [ecx+0x6e]
  405252:	add    BYTE PTR gs:[ecx+0x6e],cl
  405256:	je     0x4052bd
  405258:	jb     0x4052c6
  40525a:	outs   dx,DWORD PTR ds:[esi]
  40525b:	arpl   WORD PTR [ebx+0x65],bp
  40525e:	add    BYTE PTR fs:[ebx+0x6f],al
  405262:	ins    DWORD PTR es:[edi],dx
  405263:	jo     0x4052c6
  405265:	jb     0x4052cc
  405267:	inc    ebp
  405268:	js     0x4052cd
  40526a:	push   0x65676e61
  40526f:	add    BYTE PTR [edx+0x65],dl
  405272:	ins    DWORD PTR es:[edi],dx
  405273:	outs   dx,DWORD PTR ds:[esi]
  405274:	jbe    0x4052db
  405276:	add    BYTE PTR [ebx+0x6f],al
  405279:	ins    DWORD PTR es:[edi],dx
  40527a:	jo     0x4052e5
  40527c:	ins    BYTE PTR es:[edi],dx
  40527d:	gs jb  0x4052c7
  405280:	outs   dx,BYTE PTR gs:[esi]
  405282:	gs jb  0x4052e6
  405285:	je     0x4052ec
  405287:	fs inc ecx
  405289:	je     0x4052ff
  40528b:	jb     0x4052f6
  40528d:	bound  esi,QWORD PTR [ebp+0x74]
  405290:	add    BYTE PTR gs:[eax+0x61],dl
  405294:	je     0x4052fe
  405296:	add    BYTE PTR [edi+0x65],al
  405299:	je     0x4052df
  40529b:	imul   esi,DWORD PTR [edx+0x65],0x726f7463
  4052a2:	jns    0x4052f2
  4052a4:	popa   
  4052a5:	ins    DWORD PTR es:[edi],dx
  4052a6:	add    BYTE PTR gs:[ecx+ebp*2+0x72],al
  4052ab:	arpl   WORD PTR gs:[edi+ebp*2+0x72],si
  4052b0:	jns    0x4052b2
  4052b2:	inc    esp
  4052b3:	imul   esi,DWORD PTR [edx+0x65],0x726f7463
  4052ba:	jns    0x405305
  4052bc:	outs   dx,BYTE PTR ds:[esi]
  4052bd:	outs   dx,WORD PTR ds:[esi]
  4052bf:	add    BYTE PTR [ebx+0x72],al
  4052c2:	gs popa 
  4052c4:	je     0x40532b
  4052c6:	inc    esp
  4052c7:	imul   esi,DWORD PTR [edx+0x65],0x726f7463
  4052ce:	jns    0x4052d0
  4052d0:	push   esp
  4052d1:	gs js  0x405348
  4052d4:	push   edi
  4052d5:	jb     0x405340
  4052d7:	je     0x40533e
  4052d9:	jb     0x4052db
  4052db:	addr16 gs je 0x40533e
  4052df:	inc    ebx
  4052e0:	jne    0x405354
  4052e2:	jb     0x405349
  4052e4:	outs   dx,BYTE PTR ds:[esi]
  4052e5:	je     0x40533b
  4052e7:	push   0x64616572
  4052ec:	add    BYTE PTR [ebx+0x6f],al
  4052ef:	outs   dx,BYTE PTR ds:[esi]
  4052f0:	je     0x405353
  4052f2:	imul   ebp,DWORD PTR [esi+0x73],0x79654b
  4052f9:	addr16 gs je 0x40535c
  4052fd:	dec    ecx
  4052fe:	je     0x405365
  405300:	ins    DWORD PTR es:[edi],dx
  405301:	add    BYTE PTR [ebx+0x65],dh
  405304:	je     0x405365
  405306:	dec    ecx
  405307:	je     0x40536e
  405309:	ins    DWORD PTR es:[edi],dx
  40530a:	add    BYTE PTR [ebx+0x65],cl
  40530d:	jns    0x405352
  40530f:	outs   dx,DWORD PTR ds:[esi]
  405310:	ins    BYTE PTR es:[edi],dx
  405311:	ins    BYTE PTR es:[edi],dx
  405312:	arpl   WORD PTR gs:[ecx+ebp*2+0x6f],si
  405317:	outs   dx,BYTE PTR ds:[esi]
  405318:	add    BYTE PTR [edi+0x65],ah
  40531b:	je     0x40537c
  40531d:	dec    ebx
  40531e:	gs jns 0x405394
  405321:	add    BYTE PTR [ebp+0x6e],al
  405324:	jne    0x405393
  405326:	gs jb  0x40538a
  405329:	je     0x40539a
  40532b:	jb     0x40532d
  40532d:	inc    edi
  40532e:	gs je  0x405376
  405331:	outs   dx,BYTE PTR ds:[esi]
  405332:	jne    0x4053a1
  405334:	gs jb  0x405398
  405337:	je     0x4053a8
  405339:	jb     0x40533b
  40533b:	addr16 gs je 0x40539e
  40533f:	inc    ebx
  405340:	jne    0x4053b4
  405342:	jb     0x4053a9
  405344:	outs   dx,BYTE PTR ds:[esi]
  405345:	je     0x405347
  405347:	dec    ebp
  405348:	outs   dx,DWORD PTR ds:[esi]
  405349:	jbe    0x4053b0
  40534b:	dec    esi
  40534c:	gs js  0x4053c3
  40534f:	add    BYTE PTR [ebp+0x61],cl
  405352:	je     0x4053bc
  405354:	add    BYTE PTR [ebp+0x61],cl
  405357:	js     0x405359
  405359:	inc    ebx
  40535a:	push   0x53007261
  40535f:	je     0x4053d3
  405361:	imul   ebp,DWORD PTR [esi+0x67],0x6c705300
  405368:	imul   esi,DWORD PTR [eax+eax*1+0x41],0x6e657070
  405370:	add    BYTE PTR fs:[esp+ebp*2+0x6c],al
  405375:	dec    ecx
  405376:	ins    DWORD PTR es:[edi],dx
  405377:	jo     0x4053e8
  405379:	jb     0x4053ef
  40537b:	inc    ecx
  40537c:	je     0x4053f2
  40537e:	jb     0x4053e9
  405380:	bound  esi,QWORD PTR [ebp+0x74]
  405383:	add    BYTE PTR gs:[ebx+0x65],ch
  405387:	jb     0x4053f7
  405389:	gs ins BYTE PTR es:[edi],dx
  40538b:	xor    esi,DWORD PTR [edx]
  40538d:	add    BYTE PTR [ebx+0x74],dl
  405390:	jb     0x4053f7
  405392:	popa   
  405393:	ins    DWORD PTR es:[edi],dx
  405394:	add    BYTE PTR [edi+0x65],ah
  405397:	je     0x4053f8
  405399:	inc    edx
  40539a:	popa   
  40539b:	jae    0x405402
  40539d:	push   ebx
  40539e:	je     0x405412
  4053a0:	gs popa 
  4053a2:	ins    DWORD PTR es:[edi],dx
  4053a3:	add    BYTE PTR [esi+0x69],al
  4053a6:	ins    BYTE PTR es:[edi],dx
  4053a7:	gs push ebx
  4053a9:	je     0x40541d
  4053ab:	gs popa 
  4053ad:	ins    DWORD PTR es:[edi],dx
  4053ae:	add    BYTE PTR [ebp+0x69],cl
  4053b1:	arpl   WORD PTR [edx+0x6f],si
  4053b4:	jae    0x405425
  4053b6:	data16 je 0x4053e7
  4053b9:	push   edi
  4053ba:	imul   ebp,DWORD PTR [esi+0x33],0x61532e32
  4053c1:	gs dec ax
  4053c4:	popa   
  4053c5:	outs   dx,BYTE PTR ds:[esi]
  4053c6:	fs ins BYTE PTR es:[edi],dx
  4053c8:	gs jae 0x4053cb
  4053cb:	push   ebx
  4053cc:	popa   
  4053cd:	gs inc si
  4053d0:	imul   ebp,DWORD PTR [ebp+eiz*2+0x48],0x6c646e61
  4053d8:	add    BYTE PTR gs:[edi+0x65],ah
  4053dc:	je     0x40543d
  4053de:	push   ebx
  4053df:	popa   
  4053e0:	gs inc si
  4053e3:	imul   ebp,DWORD PTR [ebp+eiz*2+0x48],0x6c646e61
  4053eb:	add    BYTE PTR gs:[ebx+0x61],dl
  4053ef:	gs dec ax
  4053f2:	popa   
  4053f3:	outs   dx,BYTE PTR ds:[esi]
  4053f4:	fs ins BYTE PTR es:[edi],dx
  4053f6:	add    BYTE PTR gs:[ecx+eiz*2+0x6e],al
  4053fb:	addr16 gs jb 0x40546e
  4053ff:	jne    0x405474
  405401:	inc    edi
  405402:	gs je  0x40544d
  405405:	popa   
  405406:	outs   dx,BYTE PTR ds:[esi]
  405407:	fs ins BYTE PTR es:[edi],dx
  405409:	add    BYTE PTR gs:[ebx+0x6c],al
  40540d:	gs popa 
  40540f:	jb     0x405411
  405411:	inc    esi
  405412:	outs   dx,DWORD PTR ds:[esi]
  405413:	jb     0x405482
  405415:	popa   
  405416:	je     0x405418
  405418:	dec    ecx
  405419:	jae    0x405469
  40541b:	jne    0x405489
  40541d:	ins    BYTE PTR es:[edi],dx
  40541e:	dec    edi
  40541f:	jb     0x405466
  405421:	ins    DWORD PTR es:[edi],dx
  405422:	jo     0x405498
  405424:	jns    0x405426
  405426:	inc    ebp
  405427:	outs   dx,BYTE PTR ds:[esi]
  405428:	fs jae 0x405482
  40542b:	imul   esi,DWORD PTR [eax+ebp*2+0x0],0x636e6f43
  405433:	popa   
  405434:	je     0x405436
  405436:	push   ebx
  405437:	jns    0x4054ac
  405439:	je     0x4054a0
  40543b:	ins    DWORD PTR es:[edi],dx
  40543c:	cs push edx
  40543e:	jne    0x4054ae
  405440:	je     0x4054ab
  405442:	ins    DWORD PTR es:[edi],dx
  405443:	gs cs push edx
  405446:	gs ins DWORD PTR es:[edi],dx
  405448:	outs   dx,DWORD PTR ds:[esi]
  405449:	je     0x4054b4
  40544b:	outs   dx,BYTE PTR ds:[esi]
  40544c:	addr16 cs inc ebx
  40544f:	outs   dx,DWORD PTR ds:[esi]
  405450:	outs   dx,BYTE PTR ds:[esi]
  405451:	je     0x4054b8
  405453:	js     0x4054c9
  405455:	jae    0x405457
  405457:	push   ebx
  405458:	jns    0x4054c8
  40545a:	arpl   WORD PTR [eax+0x72],bp
  40545d:	outs   dx,DWORD PTR ds:[esi]
  40545e:	outs   dx,BYTE PTR ds:[esi]
  40545f:	imul   edi,DWORD PTR [edx+0x61],0x6e6f6974
  405466:	inc    ecx
  405467:	je     0x4054dd
  405469:	jb     0x4054d4
  40546b:	bound  esi,QWORD PTR [ebp+0x74]
  40546e:	add    BYTE PTR gs:[ecx+0x6e],cl
  405472:	je     0x4054a7
  405474:	xor    al,BYTE PTR [eax]
  405476:	push   ebx
  405477:	push   esp
  405478:	inc    ecx
  405479:	push   esp
  40547a:	push   0x64616572
  40547f:	inc    ecx
  405480:	je     0x4054f6
  405482:	jb     0x4054ed
  405484:	bound  esi,QWORD PTR [ebp+0x74]
  405487:	add    BYTE PTR gs:[ecx+0x70],al
  40548b:	jo     0x4054f9
  40548d:	imul   esp,DWORD PTR [ebx+0x61],0x6e6f6974
  405494:	add    BYTE PTR [ebp+0x6e],al
  405497:	popa   
  405498:	bound  ebp,QWORD PTR [ebp+eiz*2+0x56]
  40549c:	imul   esi,DWORD PTR [ebx+0x75],0x74536c61
  4054a3:	jns    0x405511
  4054a5:	gs jae 0x4054a8
  4054a8:	push   ebx
  4054a9:	gs je  0x4054ef
  4054ac:	outs   dx,DWORD PTR ds:[esi]
  4054ad:	ins    DWORD PTR es:[edi],dx
  4054ae:	jo     0x405511
  4054b0:	je     0x40551b
  4054b2:	bound  ebp,QWORD PTR [ebp+eiz*2+0x54]
  4054b6:	gs js  0x40552d
  4054b9:	push   edx
  4054ba:	outs   dx,BYTE PTR gs:[esi]
  4054bc:	fs gs jb 0x405529
  4054c0:	outs   dx,BYTE PTR ds:[esi]
  4054c1:	addr16 inc esp
  4054c3:	gs popaw 
  4054c6:	jne    0x405534
  4054c8:	je     0x4054ca
  4054ca:	dec    ebp
  4054cb:	jne    0x405541
  4054cd:	gs js  0x4054d0
  4054d0:	push   eax
  4054d1:	jb     0x405542
  4054d3:	arpl   WORD PTR [ebp+0x73],sp
  4054d6:	jae    0x4054d8
  4054d8:	inc    edi
  4054d9:	gs je  0x40552c
  4054dc:	jb     0x40554d
  4054de:	arpl   WORD PTR [ebp+0x73],sp
  4054e1:	jae    0x405548
  4054e3:	jae    0x405527
  4054e5:	jns    0x405535
  4054e7:	popa   
  4054e8:	ins    DWORD PTR es:[edi],dx
  4054e9:	add    BYTE PTR gs:[edi+0x65],al
  4054ed:	je     0x405532
  4054ef:	jne    0x405563
  4054f1:	jb     0x405558
  4054f3:	outs   dx,BYTE PTR ds:[esi]
  4054f4:	je     0x405546
  4054f6:	jb     0x405567
  4054f8:	arpl   WORD PTR [ebp+0x73],sp
  4054fb:	jae    0x4054fd
  4054fd:	addr16 gs je 0x405560
  405501:	dec    ecx
  405502:	add    BYTE PTR fs:[ebx+0x69],cl
  405506:	ins    BYTE PTR es:[edi],dx
  405507:	ins    BYTE PTR es:[edi],dx
  405508:	add    BYTE PTR [edi+0x61],dl
  40550b:	imul   esi,DWORD PTR [esi+eax*2+0x6f],0x69784572
  405513:	je     0x405515
  405515:	inc    edi
  405516:	gs je  0x40555f
  405519:	jne    0x405587
  40551b:	ins    BYTE PTR es:[edi],dx
  40551c:	push   eax
  40551d:	popa   
  40551e:	je     0x405588
  405520:	add    BYTE PTR [ebx+0x65],dh
  405523:	je     0x405584
  405525:	push   eax
  405526:	popa   
  405527:	je     0x405591
  405529:	add    BYTE PTR [ebx+0x65],dh
  40552c:	je     0x40558d
  40552e:	dec    ecx
  40552f:	outs   dx,BYTE PTR ds:[esi]
  405530:	arpl   WORD PTR [ebp+esi*2+0x64],bp
  405534:	gs push ebx
  405536:	jne    0x40559a
  405538:	imul   esi,DWORD PTR fs:[edx+0x65],0x726f7463
  405540:	imul   esp,DWORD PTR [ebp+0x73],0x746f4e00
  405547:	imul   esp,DWORD PTR [esi+0x79],0x746c6946
  40554e:	gs jb  0x4055c4
  405551:	add    BYTE PTR [ebx+0x65],dh
  405554:	je     0x4055b5
  405556:	dec    esi
  405557:	outs   dx,DWORD PTR ds:[esi]
  405558:	je     0x4055c3
  40555a:	data16 jns 0x4055a3
  40555d:	imul   ebp,DWORD PTR [esp+esi*2+0x65],0x69460072
  405565:	ins    BYTE PTR es:[edi],dx
  405566:	gs push ebx
  405568:	jns    0x4055dd
  40556a:	je     0x4055d1
  40556c:	ins    DWORD PTR es:[edi],dx
  40556d:	inc    ebp
  40556e:	jbe    0x4055d5
  405570:	outs   dx,BYTE PTR ds:[esi]
  405571:	je     0x4055bb
  405573:	popa   
  405574:	outs   dx,BYTE PTR ds:[esi]
  405575:	fs ins BYTE PTR es:[edi],dx
  405577:	gs jb  0x40557a
  40557a:	popa   
  40557b:	fs fs pop edi
  40557e:	inc    ebx
  40557f:	jb     0x4055e6
  405581:	popa   
  405582:	je     0x4055e9
  405584:	add    BYTE PTR fs:[ecx+0x64],ah
  405588:	fs pop edi
  40558a:	inc    ebx
  40558b:	push   0x65676e61
  405590:	add    BYTE PTR fs:[ebx+0x65],dh
  405594:	je     0x4055f5
  405596:	inc    ebp
  405597:	outs   dx,BYTE PTR ds:[esi]
  405598:	popa   
  405599:	bound  ebp,QWORD PTR [ebp+eiz*2+0x52]
  40559d:	popa   
  40559e:	imul   esi,DWORD PTR [ebx+0x69],0x7645676e
  4055a5:	outs   dx,BYTE PTR gs:[esi]
  4055a7:	je     0x40561c
  4055a9:	add    BYTE PTR [ecx+0x63],al
  4055ac:	je     0x405617
  4055ae:	outs   dx,DWORD PTR ds:[esi]
  4055af:	outs   dx,BYTE PTR ds:[esi]
  4055b0:	add    BYTE PTR [ebx+0x74],dl
  4055b3:	popa   
  4055b4:	jb     0x40562a
  4055b6:	add    BYTE PTR [edi+0x61],dl
  4055b9:	imul   esi,DWORD PTR [eax+ecx*2+0x61],0x656c646e
  4055c1:	add    BYTE PTR [edi+0x61],dl
  4055c4:	imul   esi,DWORD PTR [edi+ecx*2+0x6e],0x65670065
  4055cc:	je     0x40562d
  4055ce:	dec    esi
  4055cf:	outs   dx,DWORD PTR ds:[esi]
  4055d0:	ja     0x4055d2
  4055d2:	push   esp
  4055d3:	imul   ebp,DWORD PTR [ebp+0x65],0x6e617053
  4055da:	add    BYTE PTR [edi+0x70],ch
  4055dd:	pop    edi
  4055de:	push   ebx
  4055df:	jne    0x405643
  4055e1:	je     0x405655
  4055e3:	popa   
  4055e4:	arpl   WORD PTR [ecx+ebp*2+0x6f],si
  4055e8:	outs   dx,BYTE PTR ds:[esi]
  4055e9:	add    BYTE PTR [edi+0x70],ch
  4055ec:	pop    edi
  4055ed:	inc    edi
  4055ee:	jb     0x405655
  4055f0:	popa   
  4055f1:	je     0x405658
  4055f3:	jb     0x405649
  4055f5:	push   0x53006e61
  4055fa:	ins    BYTE PTR es:[edi],dx
  4055fb:	gs gs jo 0x4055ff
  4055ff:	inc    ebp
  405600:	jbe    0x405667
  405602:	outs   dx,BYTE PTR ds:[esi]
  405603:	je     0x40565c
  405605:	popa   
  405606:	imul   esi,DWORD PTR [eax+ecx*2+0x61],0x656c646e
  40560e:	add    BYTE PTR [ebx+0x65],dl
  405611:	je     0x405613
  405613:	inc    edi
  405614:	gs je  0x40565d
  405617:	imul   ebp,DWORD PTR [ebp+eiz*2+0x4e],0x656d61
  40561f:	inc    esi
  405620:	imul   ebp,DWORD PTR [ebp+eiz*2+0x0],0x79706f43
  405628:	add    BYTE PTR [edx+0x65],dl
  40562b:	addr16 gs js 0x40567e
  40562f:	jo     0x4056a5
  405631:	imul   ebp,DWORD PTR [edi+0x6e],0x6d410073
  405638:	popa   
  405639:	jp     0x4056aa
  40563b:	outs   dx,BYTE PTR ds:[esi]
  40563c:	add    BYTE PTR [edx+0x65],dl
  40563f:	imul   ebp,DWORD PTR [bx+0x6e],0x70646e45
  405647:	outs   dx,DWORD PTR ds:[esi]
  405648:	imul   ebp,DWORD PTR [esi+0x74],0x45535500
  40564f:	popa   
  405650:	jae    0x4056c6
  405652:	xor    DWORD PTR [eax],eax
  405654:	dec    ebp
  405655:	popa   
  405656:	je     0x4056bb
  405658:	push   0x6f724700
  40565d:	jne    0x4056cf
  40565f:	inc    ebx
  405660:	outs   dx,DWORD PTR ds:[esi]
  405661:	ins    BYTE PTR es:[edi],dx
  405662:	ins    BYTE PTR es:[edi],dx
  405663:	arpl   WORD PTR gs:[ecx+ebp*2+0x6f],si
  405668:	outs   dx,BYTE PTR ds:[esi]
  405669:	add    BYTE PTR [edi+0x65],ah
  40566c:	je     0x4056cd
  40566e:	inc    edi
  40566f:	jb     0x4056e0
  405671:	jne    0x4056e3
  405673:	jae    0x405675
  405675:	inc    edi
  405676:	jb     0x4056e7
  405678:	jne    0x4056ea
  40567a:	add    BYTE PTR [ebx+0x61],al
  40567d:	jo     0x4056f3
  40567f:	jne    0x4056f3
  405681:	add    BYTE PTR gs:[edi+0x65],ah
  405685:	je     0x4056e6
  405687:	push   esi
  405688:	popa   
  405689:	ins    BYTE PTR es:[edi],dx
  40568a:	jne    0x4056f1
  40568c:	add    BYTE PTR [edi+ebp*2+0x4c],dl
  405690:	outs   dx,DWORD PTR ds:[esi]
  405691:	ja     0x4056f8
  405693:	jb     0x405695
  405695:	push   ebp
  405696:	jo     0x405704
  405698:	outs   dx,DWORD PTR ds:[esi]
  405699:	popa   
  40569a:	add    BYTE PTR fs:[edi+0x61],dl
  40569e:	je     0x405703
  4056a0:	push   0x68437265
  4056a5:	popa   
  4056a6:	outs   dx,BYTE PTR ds:[esi]
  4056a7:	addr16 gs push esp
  4056aa:	jns    0x40571c
  4056ac:	gs jae 0x4056af
  4056af:	addr16 gs je 0x405712
  4056b3:	inc    ebx
  4056b4:	push   0x65676e61
  4056b9:	push   esp
  4056ba:	jns    0x40572c
  4056bc:	add    BYTE PTR gs:[edi+0x65],ah
  4056c0:	je     0x405721
  4056c2:	inc    esi
  4056c3:	jne    0x405731
  4056c5:	ins    BYTE PTR es:[edi],dx
  4056c6:	push   eax
  4056c7:	popa   
  4056c8:	je     0x405732
  4056ca:	add    BYTE PTR [esi+0x69],al
  4056cd:	ins    BYTE PTR es:[edi],dx
  4056ce:	gs inc ecx
  4056d0:	je     0x405746
  4056d2:	jb     0x40573d
  4056d4:	bound  esi,QWORD PTR [ebp+0x74]
  4056d7:	gs jae 0x4056da
  4056da:	inc    edi
  4056db:	gs je  0x40571f
  4056de:	je     0x405754
  4056e0:	jb     0x40574b
  4056e2:	bound  esi,QWORD PTR [ebp+0x74]
  4056e5:	gs jae 0x4056e8
  4056e8:	jae    0x40574f
  4056ea:	je     0x40574b
  4056ec:	push   esp
  4056ed:	outs   dx,DWORD PTR ds:[esi]
  4056ee:	jo     0x40573d
  4056f0:	outs   dx,DWORD PTR ds:[esi]
  4056f1:	jae    0x405767
  4056f3:	add    BYTE PTR [ebx+0x6f],al
  4056f6:	outs   dx,BYTE PTR ds:[esi]
  4056f7:	je     0x40576b
  4056f9:	outs   dx,DWORD PTR ds:[esi]
  4056fa:	ins    BYTE PTR es:[edi],dx
  4056fb:	add    BYTE PTR [ebx+0x68],dl
  4056fe:	outs   dx,DWORD PTR ds:[esi]
  4056ff:	ja     0x405701
  405701:	inc    ecx
  405702:	arpl   WORD PTR [ecx+ebp*2+0x76],si
  405706:	popa   
  405707:	je     0x40576e
  405709:	add    BYTE PTR [edx+0x75],dl
  40570c:	outs   dx,BYTE PTR ds:[esi]
  40570d:	add    BYTE PTR [edi+0x70],ch
  405710:	pop    edi
  405711:	dec    esp
  405712:	gs jae 0x405788
  405715:	push   esp
  405716:	push   0x53006e61
  40571b:	jns    0x405790
  40571d:	je     0x405784
  40571f:	ins    DWORD PTR es:[edi],dx
  405720:	cs dec ecx
  405722:	dec    edi
  405723:	cs inc ebx
  405725:	outs   dx,DWORD PTR ds:[esi]
  405726:	ins    DWORD PTR es:[edi],dx
  405727:	jo     0x40579b
  405729:	gs jae 0x40579f
  40572c:	imul   ebp,DWORD PTR [edi+0x6e],0x6c69462e
  405733:	gs push ebx
  405735:	jns    0x4057aa
  405737:	je     0x40579e
  405739:	ins    DWORD PTR es:[edi],dx
  40573a:	add    BYTE PTR [ebx+0x79],dl
  40573d:	jae    0x4057b3
  40573f:	gs ins DWORD PTR es:[edi],dx
  405741:	cs dec ecx
  405743:	dec    edi
  405744:	cs inc ebx
  405746:	outs   dx,DWORD PTR ds:[esi]
  405747:	ins    DWORD PTR es:[edi],dx
  405748:	jo     0x4057bc
  40574a:	gs jae 0x4057c0
  40574d:	imul   ebp,DWORD PTR [edi+0x6e],0x70695a00
  405754:	inc    esi
  405755:	imul   ebp,DWORD PTR [ebp+eiz*2+0x0],0x706d6f43
  40575d:	jb     0x4057c4
  40575f:	jae    0x4057d4
  405761:	imul   ebp,DWORD PTR [edi+0x6e],0x6576654c
  405768:	ins    BYTE PTR es:[edi],dx
  405769:	add    BYTE PTR [ebx+0x72],al
  40576c:	gs popa 
  40576e:	je     0x4057d5
  405770:	inc    esi
  405771:	jb     0x4057e2
  405773:	ins    DWORD PTR es:[edi],dx
  405774:	inc    esp
  405775:	imul   esi,DWORD PTR [edx+0x65],0x726f7463
  40577c:	jns    0x40577e
  40577e:	dec    esi
  40577f:	jne    0x4057ed
  405781:	ins    BYTE PTR es:[edi],dx
  405782:	popa   
  405783:	bound  ebp,QWORD PTR [ebp+eiz*2+0x60]
  405787:	xor    DWORD PTR [eax],eax
  405789:	addr16 gs je 0x4057ec
  40578d:	inc    ebx
  40578e:	jne    0x405802
  405790:	jb     0x4057f7
  405792:	outs   dx,BYTE PTR ds:[esi]
  405793:	je     0x4057de
  405795:	add    BYTE PTR fs:[edi+0x65],al
  405799:	je     0x4057f1
  40579b:	popa   
  40579c:	ins    BYTE PTR es:[edi],dx
  40579d:	jne    0x405804
  40579f:	dec    edi
  4057a0:	jb     0x4057e6
  4057a2:	gs popaw 
  4057a5:	jne    0x405813
  4057a7:	je     0x4057a9
  4057a9:	addr16 gs je 0x40580c
  4057ad:	dec    eax
  4057ae:	popa   
  4057af:	jae    0x405807
  4057b1:	popa   
  4057b2:	ins    BYTE PTR es:[edi],dx
  4057b3:	jne    0x40581a
  4057b5:	add    BYTE PTR [esi+0x6f],al
  4057b8:	arpl   WORD PTR [ebp+0x73],si
  4057bb:	add    BYTE PTR [ebx+0x65],dh
  4057be:	je     0x40581f
  4057c0:	push   esp
  4057c1:	gs js  0x405838
  4057c4:	add    BYTE PTR [edi+0x65],ah
  4057c7:	je     0x405828
  4057c9:	dec    ecx
  4057ca:	outs   dx,BYTE PTR ds:[esi]
  4057cb:	jbe    0x40583c
  4057cd:	imul   esp,DWORD PTR [ebp+0x52],0x65
  4057d1:	jno    0x405848
  4057d3:	imul   esi,DWORD PTR [edx+0x65],0x63410064
  4057da:	je     0x405845
  4057dc:	outs   dx,DWORD PTR ds:[esi]
  4057dd:	outs   dx,BYTE PTR ds:[esi]
  4057de:	pusha  
  4057df:	xor    DWORD PTR [eax],eax
  4057e1:	addr16 gs je 0x405844
  4057e5:	push   esp
  4057e6:	gs js  0x40585d
  4057e9:	add    BYTE PTR [ebx+0x75],dl
  4057ec:	jae    0x40585e
  4057ee:	outs   dx,BYTE PTR gs:[esi]
  4057f0:	fs dec esp
  4057f2:	popa   
  4057f3:	jns    0x405864
  4057f5:	jne    0x40586b
  4057f7:	add    BYTE PTR [edi+ebp*2+0x63],al
  4057fb:	imul   edx,DWORD PTR [ebx+0x74],0x79
  4057ff:	ins    BYTE PTR es:[edi],dx
  405800:	add    BYTE PTR gs:[ebx+0x65],dh
  405804:	je     0x405865
  405806:	inc    esp
  405807:	outs   dx,DWORD PTR ds:[esi]
  405808:	arpl   WORD PTR [ebx+0x0],bp
  40580b:	push   ebx
  40580c:	jns    0x405881
  40580e:	je     0x405875
  405810:	ins    DWORD PTR es:[edi],dx
  405811:	cs inc esp
  405813:	jb     0x405876
  405815:	ja     0x405880
  405817:	outs   dx,BYTE PTR ds:[esi]
  405818:	add    BYTE PTR [bp+0x6f],al
  40581c:	outs   dx,BYTE PTR ds:[esi]
  40581d:	je     0x40581f
  40581f:	inc    esi
  405820:	outs   dx,DWORD PTR ds:[esi]
  405821:	outs   dx,BYTE PTR ds:[esi]
  405822:	je     0x405877
  405824:	je     0x40589f
  405826:	ins    BYTE PTR es:[edi],dx
  405827:	add    BYTE PTR gs:[edi+0x72],al
  40582b:	popa   
  40582c:	jo     0x405896
  40582e:	imul   esp,DWORD PTR [ebx+0x73],0x74696e55
  405835:	add    BYTE PTR [ebx+0x65],dh
  405838:	je     0x405899
  40583a:	inc    esi
  40583b:	outs   dx,DWORD PTR ds:[esi]
  40583c:	outs   dx,BYTE PTR ds:[esi]
  40583d:	je     0x40583f
  40583f:	push   eax
  405840:	outs   dx,DWORD PTR ds:[esi]
  405841:	imul   ebp,DWORD PTR [esi+0x74],0x74657300
  405848:	pop    edi
  405849:	dec    esp
  40584a:	outs   dx,DWORD PTR ds:[esi]
  40584b:	arpl   WORD PTR [ecx+0x74],sp
  40584e:	imul   ebp,DWORD PTR [edi+0x6e],0x74657300
  405855:	pop    edi
  405856:	dec    esi
  405857:	popa   
  405858:	ins    DWORD PTR es:[edi],dx
  405859:	add    BYTE PTR gs:[ebx+0x69],dl
  40585d:	jp     0x4058c4
  40585f:	add    BYTE PTR [ebx+0x65],dh
  405862:	je     0x4058c3
  405864:	push   ebx
  405865:	imul   edi,DWORD PTR [edx+0x65],0x74657300
  40586c:	pop    edi
  40586d:	push   esp
  40586e:	popa   
  40586f:	bound  ecx,QWORD PTR [ecx+0x6e]
  405872:	fs gs js 0x405876
  405876:	push   ebx
  405877:	imul   edi,DWORD PTR [edx+0x65],0x6f430046
  40587e:	outs   dx,BYTE PTR ds:[esi]
  40587f:	je     0x4058e2
  405881:	imul   ebp,DWORD PTR [esi+0x65],0x6e6f4372
  405888:	je     0x4058fc
  40588a:	outs   dx,DWORD PTR ds:[esi]
  40588b:	ins    BYTE PTR es:[edi],dx
  40588c:	add    BYTE PTR [ebx+0x65],dh
  40588f:	je     0x4058f0
  405891:	inc    ecx
  405892:	jne    0x405908
  405894:	outs   dx,DWORD PTR ds:[esi]
  405895:	push   ebx
  405896:	arpl   WORD PTR [ecx+0x6c],sp
  405899:	gs inc esp
  40589b:	imul   ebp,DWORD PTR [ebp+0x65],0x6f69736e
  4058a2:	outs   dx,BYTE PTR ds:[esi]
  4058a3:	jae    0x4058a5
  4058a5:	inc    ecx
  4058a6:	jne    0x40591c
  4058a8:	outs   dx,DWORD PTR ds:[esi]
  4058a9:	push   ebx
  4058aa:	arpl   WORD PTR [ecx+0x6c],sp
  4058ad:	gs dec ebp
  4058af:	outs   dx,DWORD PTR ds:[esi]
  4058b0:	fs add BYTE PTR gs:[ebx+0x65],dh
  4058b5:	je     0x405916
  4058b7:	inc    ecx
  4058b8:	jne    0x40592e
  4058ba:	outs   dx,DWORD PTR ds:[esi]
  4058bb:	push   ebx
  4058bc:	arpl   WORD PTR [ecx+0x6c],sp
  4058bf:	gs dec ebp
  4058c1:	outs   dx,DWORD PTR ds:[esi]
  4058c2:	fs add BYTE PTR gs:[ebx+0x65],dh
  4058c7:	je     0x405928
  4058c9:	inc    ebx
  4058ca:	ins    BYTE PTR es:[edi],dx
  4058cb:	imul   esp,DWORD PTR [ebp+0x6e],0x7a695374
  4058d2:	add    BYTE PTR gs:[ebx+0x6f],al
  4058d6:	outs   dx,BYTE PTR ds:[esi]
  4058d7:	je     0x40594b
  4058d9:	outs   dx,DWORD PTR ds:[esi]
  4058da:	ins    BYTE PTR es:[edi],dx
  4058db:	inc    ebx
  4058dc:	outs   dx,DWORD PTR ds:[esi]
  4058dd:	ins    BYTE PTR es:[edi],dx
  4058de:	ins    BYTE PTR es:[edi],dx
  4058df:	arpl   WORD PTR gs:[ecx+ebp*2+0x6f],si
  4058e4:	outs   dx,BYTE PTR ds:[esi]
  4058e5:	add    BYTE PTR [edi+0x65],ah
  4058e8:	je     0x405949
  4058ea:	inc    ebx
  4058eb:	outs   dx,DWORD PTR ds:[esi]
  4058ec:	outs   dx,BYTE PTR ds:[esi]
  4058ed:	je     0x405961
  4058ef:	outs   dx,DWORD PTR ds:[esi]
  4058f0:	ins    BYTE PTR es:[edi],dx
  4058f1:	jae    0x4058f3
  4058f3:	inc    ecx
  4058f4:	fs add BYTE PTR fs:[edx+0x65],dl
  4058f9:	jae    0x405970
  4058fb:	ins    DWORD PTR es:[edi],dx
  4058fc:	gs dec esp
  4058fe:	popa   
  4058ff:	jns    0x405970
  405901:	jne    0x405977
  405903:	add    BYTE PTR [ebx+0x72],al
  405906:	popa   
  405907:	jae    0x405971
  405909:	inc    esp
  40590a:	jne    0x405979
  40590c:	jo     0x405965
  40590e:	popa   
  40590f:	je     0x405974
  405911:	push   0x572e7265
  405916:	outs   dx,DWORD PTR ds:[esi]
  405917:	jb     0x405984
  405919:	imul   ebp,DWORD PTR [esi+0x67],0x6c616944
  405920:	outs   dx,DWORD PTR ds:[esi]
  405921:	addr16 cs jb 0x40598a
  405925:	jae    0x405996
  405927:	jne    0x40599b
  405929:	arpl   WORD PTR [ebp+0x73],sp
  40592c:	add    BYTE PTR [eax],al
  40592e:	add    BYTE PTR [eax],al
  405930:	add    BYTE PTR [ebx],al
  405932:	jnp    0x405934
  405934:	add    BYTE PTR [ebx],al
  405936:	jge    0x405938
  405938:	add    BYTE PTR ds:0x30007b,dl
  40593e:	jge    0x405940
  405940:	jnp    0x405942
  405942:	xor    DWORD PTR [eax],eax
  405944:	jge    0x405946
  405946:	jnp    0x405948
  405948:	xor    al,BYTE PTR [eax]
  40594a:	jge    0x40594c
  40594c:	or     al,BYTE PTR [eax]
  40594e:	add    BYTE PTR [ebx],al
  405950:	or     al,BYTE PTR [eax]
  405952:	add    BYTE PTR [ecx],al
  405954:	add    BYTE PTR [ecx],ch
  405956:	pop    eax
  405957:	add    BYTE PTR [ebx+0x0],al
  40595a:	outs   dx,DWORD PTR ds:[esi]
  40595b:	add    BYTE PTR [ebp+0x0],ch
  40595e:	inc    ebx
  40595f:	add    BYTE PTR [edx+0x0],dh
  405962:	popa   
  405963:	add    BYTE PTR [ebx+0x0],dh
  405966:	push   0x75004400
  40596b:	add    BYTE PTR [ebp+0x0],ch
  40596e:	jo     0x405970
  405970:	push   edi
  405971:	add    BYTE PTR [ecx+0x0],ah
  405974:	je     0x405976
  405976:	arpl   WORD PTR [eax],ax
  405978:	push   0x72006500
  40597d:	add    BYTE PTR [eax],al
  40597f:	and    DWORD PTR [ebx+0x0],eax
  405982:	jb     0x405984
  405984:	popa   
  405985:	add    BYTE PTR [ebx+0x0],dh
  405988:	push   0x75004400
  40598d:	add    BYTE PTR [ebp+0x0],ch
  405990:	jo     0x405992
  405992:	push   edi
  405993:	add    BYTE PTR [ecx+0x0],ah
  405996:	je     0x405998
  405998:	arpl   WORD PTR [eax],ax
  40599a:	push   0x72006500
  40599f:	add    BYTE PTR [eax],al
  4059a1:	daa    
  4059a2:	add    BYTE PTR cs:[esi],ch
  4059a5:	add    BYTE PTR [eax+eax*1+0x2e],bl
  4059a9:	add    BYTE PTR [esi],ch
  4059ab:	add    BYTE PTR [eax+eax*1+0x58],bl
  4059af:	add    BYTE PTR [ebx+0x0],al
  4059b2:	outs   dx,DWORD PTR ds:[esi]
  4059b3:	add    BYTE PTR [ebp+0x0],ch
  4059b6:	inc    edi
  4059b7:	add    BYTE PTR [ecx+0x0],ah
  4059ba:	ins    DWORD PTR es:[edi],dx
  4059bb:	add    BYTE PTR [ebp+0x0],ah
  4059be:	pop    esp
  4059bf:	add    BYTE PTR [eax+eax*1+0x6f],cl
  4059c3:	add    BYTE PTR [edi+0x0],ah
  4059c6:	jae    0x4059c8
  4059c8:	add    BYTE PTR [ecx],bl
  4059ca:	imul   eax,DWORD PTR [eax],0x70006e
  4059d0:	jne    0x4059d2
  4059d2:	je     0x4059d4
  4059d4:	and    BYTE PTR [eax],al
  4059d6:	push   eax
  4059d7:	add    BYTE PTR [ecx+0x0],ah
  4059da:	je     0x4059dc
  4059dc:	push   0x20003a00
  4059e1:	add    BYTE PTR [eax],al
  4059e3:	pop    ds
  4059e4:	push   edi
  4059e5:	add    BYTE PTR [ecx+0x0],ah
  4059e8:	je     0x4059ea
  4059ea:	arpl   WORD PTR [eax],ax
  4059ec:	push   0x6e006900
  4059f1:	add    BYTE PTR [edi+0x0],ah
  4059f4:	and    BYTE PTR [eax],al
  4059f6:	push   eax
  4059f7:	add    BYTE PTR [ecx+0x0],ah
  4059fa:	je     0x4059fc
  4059fc:	push   0x20003a00
  405a01:	add    BYTE PTR [eax],al
  405a03:	and    eax,0x6b0032
  405a08:	add    BYTE PTR [bp+si+0x0],ah
  405a0c:	popa   
  405a0d:	add    BYTE PTR [eax+eax*1+0x2d],ch
  405a11:	add    BYTE PTR [eax+eax*1+0x61],ch
  405a15:	add    BYTE PTR [edx+0x0],bh
  405a18:	popa   
  405a19:	add    BYTE PTR [edx+0x0],dh
  405a1c:	jne    0x405a1e
  405a1e:	jae    0x405a20
  405a20:	sub    eax,0x65006400
  405a25:	add    BYTE PTR [esi+0x0],dh
  405a28:	add    DWORD PTR [ebx],ecx
  405a2a:	pop    eax
  405a2b:	add    BYTE PTR [ebx+0x0],al
  405a2e:	outs   dx,DWORD PTR ds:[esi]
  405a2f:	add    BYTE PTR [ebp+0x0],ch
  405a32:	xor    al,BYTE PTR [eax]
  405a34:	add    BYTE PTR [ecx],dl
  405a36:	pop    eax
  405a37:	add    BYTE PTR [ebx+0x0],al
  405a3a:	outs   dx,DWORD PTR ds:[esi]
  405a3b:	add    BYTE PTR [ebp+0x0],ch
  405a3e:	inc    edi
  405a3f:	add    BYTE PTR [ecx+0x0],ah
  405a42:	ins    DWORD PTR es:[edi],dx
  405a43:	add    BYTE PTR [ebp+0x0],ah
  405a46:	add    BYTE PTR [ebx],al
  405a48:	pop    esp
  405a49:	add    BYTE PTR [eax],al
  405a4b:	pop    ss
  405a4c:	sub    eax,0x63002800
  405a51:	add    BYTE PTR [eax+eax*1+0x5b],ch
  405a55:	add    BYTE PTR [esi+0x0],bl
  405a58:	sub    eax,0x2a005d00
  405a5d:	add    BYTE PTR [ecx],ch
  405a5f:	add    BYTE PTR ds:0x41290100,ch
  405a65:	add    BYTE PTR [ebx+0x0],cl
  405a68:	dec    ecx
  405a69:	add    BYTE PTR [ecx+0x0],al
  405a6c:	dec    edx
  405a6d:	add    BYTE PTR [edi+0x0],dl
  405a70:	aaa    
  405a71:	add    BYTE PTR [ecx+0x0],bl
  405a74:	push   edx
  405a75:	add    BYTE PTR [edx],dh
  405a77:	add    BYTE PTR [ebx+0x0],al
  405a7a:	dec    ebx
  405a7b:	add    BYTE PTR [eax+eax*1],dh
  405a7e:	xor    eax,0x56005700
  405a83:	add    BYTE PTR [ebx+0x0],cl
  405a86:	xor    eax,DWORD PTR [eax]
  405a88:	inc    esi
  405a89:	add    BYTE PTR [ecx+0x0],dl
  405a8c:	add    BYTE PTR [ecx+0x61],dl
  405a8f:	add    BYTE PTR [ecx+0x0],cl
  405a92:	jbe    0x405a94
  405a94:	push   0x49005200
  405a99:	add    BYTE PTR [eax+eax*1+0x6c],dh
  405a9d:	add    BYTE PTR [ecx+0x0],bl
  405aa0:	dec    edx
  405aa1:	add    BYTE PTR [edx+0x0],bl
  405aa4:	inc    ecx
  405aa5:	add    BYTE PTR [eax+0x0],dh
  405aa8:	dec    edx
  405aa9:	add    BYTE PTR [edi+0x0],dl
  405aac:	imul   eax,DWORD PTR [eax],0x2b
  405aaf:	add    BYTE PTR [esi+0x0],dl
  405ab2:	add    BYTE PTR ss:[eax+0x0],ch
  405ab6:	push   0x0
  405ab8:	xor    eax,DWORD PTR [eax]
  405aba:	add    BYTE PTR ss:[eax+eax*1+0x36],cl
  405abf:	add    BYTE PTR [esi+0x0],dh
  405ac2:	push   eax
  405ac3:	add    BYTE PTR [ebp+0x0],ch
  405ac6:	bound  eax,QWORD PTR [eax]
  405ac8:	push   ebx
  405ac9:	add    BYTE PTR [ecx+0x0],bh
  405acc:	dec    esp
  405acd:	add    BYTE PTR [ebp+0x0],al
  405ad0:	ins    DWORD PTR es:[edi],dx
  405ad1:	add    BYTE PTR [esi+0x0],dh
  405ad4:	push   esi
  405ad5:	add    BYTE PTR [edi+0x0],ch
  405ad8:	outs   dx,DWORD PTR ds:[esi]
  405ad9:	add    BYTE PTR [eax+0x0],dl
  405adc:	inc    ebp
  405add:	add    BYTE PTR [eax],al
  405adf:	add    ebp,DWORD PTR [edi]
  405ae1:	add    BYTE PTR [eax],al
  405ae3:	sbb    DWORD PTR [esi+0x0],eax
  405ae6:	imul   eax,DWORD PTR [eax],0x65006c
  405aec:	and    BYTE PTR [eax],al
  405aee:	jnp    0x405af0
  405af0:	xor    BYTE PTR [eax],al
  405af2:	jge    0x405af4
  405af4:	and    BYTE PTR [eax],al
  405af6:	jnp    0x405af8
  405af8:	xor    DWORD PTR [eax],eax
  405afa:	jge    0x405afc
  405afc:	add    BYTE PTR [ecx+0x77],dl
  405aff:	add    BYTE PTR [ecx+0x0],ah
  405b02:	imul   eax,DWORD PTR [eax],0x690074
  405b08:	outs   dx,BYTE PTR ds:[esi]
  405b09:	add    BYTE PTR [edi+0x0],ah
  405b0c:	and    BYTE PTR [eax],al
  405b0e:	data16 add BYTE PTR [edi+0x0],ch
  405b12:	jb     0x405b14
  405b14:	or     eax,0x9000a00
  405b19:	add    BYTE PTR [eax],ah
  405b1b:	add    BYTE PTR [ebx+0x0],bh
  405b1e:	xor    BYTE PTR [eax],al
  405b20:	jge    0x405b22
  405b22:	or     eax,0x74000a00
  405b27:	add    BYTE PTR [edi+0x0],ch
  405b2a:	and    BYTE PTR [eax],al
  405b2c:	arpl   WORD PTR [eax],ax
  405b2e:	outs   dx,DWORD PTR ds:[esi]
  405b2f:	add    BYTE PTR [ebp+0x0],ch
  405b32:	jo     0x405b34
  405b34:	ins    BYTE PTR es:[edi],dx
  405b35:	add    BYTE PTR [ebp+0x0],ah
  405b38:	je     0x405b3a
  405b3a:	add    BYTE PTR gs:[eax],ah
  405b3d:	add    BYTE PTR [ebx+0x0],dh
  405b40:	popa   
  405b41:	add    BYTE PTR [esi+0x0],dh
  405b44:	imul   eax,DWORD PTR [eax],0x67006e
  405b4a:	or     eax,0xa00
  405b4f:	inc    ebx
  405b50:	jp     0x405b52
  405b52:	imul   eax,DWORD PTR [eax],0x700070
  405b58:	imul   eax,DWORD PTR [eax],0x67006e
  405b5e:	and    BYTE PTR [eax],al
  405b60:	popa   
  405b61:	add    BYTE PTR [esi+0x0],ch
  405b64:	add    BYTE PTR fs:[eax],ah
  405b67:	add    BYTE PTR [ebx+0x0],dh
  405b6a:	add    BYTE PTR gs:[esi+0x0],ch
  405b6e:	add    BYTE PTR fs:[ecx+0x0],ch
  405b72:	outs   dx,BYTE PTR ds:[esi]
  405b73:	add    BYTE PTR [edi+0x0],ah
  405b76:	or     eax,0x9000a00
  405b7b:	add    BYTE PTR [eax],ah
  405b7d:	add    BYTE PTR [ebx+0x0],bh
  405b80:	xor    BYTE PTR [eax],al
  405b82:	jge    0x405b84
  405b84:	or     eax,0x6e000a00
  405b89:	add    BYTE PTR [edi+0x0],ch
  405b8c:	ja     0x405b8e
  405b8e:	or     eax,0xa00
  405b93:	or     DWORD PTR [esi],ebp
  405b95:	add    BYTE PTR [edx+0x0],bh
  405b98:	imul   eax,DWORD PTR [eax],0x4d000070
  405b9e:	jp     0x405ba0
  405ba0:	imul   eax,DWORD PTR [eax],0x700070
  405ba6:	imul   eax,DWORD PTR [eax],0x67006e
  405bac:	and    BYTE PTR [eax],al
  405bae:	popa   
  405baf:	add    BYTE PTR [esi+0x0],ch
  405bb2:	add    BYTE PTR fs:[eax],ah
  405bb5:	add    BYTE PTR [ebx+0x0],dh
  405bb8:	add    BYTE PTR gs:[esi+0x0],ch
  405bbc:	add    BYTE PTR fs:[ecx+0x0],ch
  405bc0:	outs   dx,BYTE PTR ds:[esi]
  405bc1:	add    BYTE PTR [edi+0x0],ah
  405bc4:	or     eax,0x9000a00
  405bc9:	add    BYTE PTR [eax],ah
  405bcb:	add    BYTE PTR [ebx+0x0],bh
  405bce:	xor    BYTE PTR [eax],al
  405bd0:	jge    0x405bd2
  405bd2:	or     eax,0x63000a00
  405bd7:	add    BYTE PTR [edi+0x0],ch
  405bda:	ins    DWORD PTR es:[edi],dx
  405bdb:	add    BYTE PTR [eax+0x0],dh
  405bde:	ins    BYTE PTR es:[edi],dx
  405bdf:	add    BYTE PTR [ebp+0x0],ah
  405be2:	je     0x405be4
  405be4:	add    BYTE PTR gs:0xa00,cl
  405beb:	and    DWORD PTR [ebp+0x0],edx
  405bee:	jo     0x405bf0
  405bf0:	ins    BYTE PTR es:[edi],dx
  405bf1:	add    BYTE PTR [edi+0x0],ch
  405bf4:	popa   
  405bf5:	add    BYTE PTR [eax+eax*1+0x20],ah
  405bf9:	add    BYTE PTR [ebx+0x0],al
  405bfc:	outs   dx,DWORD PTR ds:[esi]
  405bfd:	add    BYTE PTR [ebp+0x0],ch
  405c00:	jo     0x405c02
  405c02:	ins    BYTE PTR es:[edi],dx
  405c03:	add    BYTE PTR [ebp+0x0],ah
  405c06:	je     0x405c08
  405c08:	add    BYTE PTR gs:[eax+eax*1+0x0],ah
  405c0d:	sub    DWORD PTR [ebp+0x0],ecx
  405c10:	imul   eax,DWORD PTR [eax],0x720063
  405c16:	outs   dx,DWORD PTR ds:[esi]
  405c17:	add    BYTE PTR [ebx+0x0],dh
  405c1a:	outs   dx,DWORD PTR ds:[esi]
  405c1b:	add    BYTE PTR [esi+0x0],ah
  405c1e:	je     0x405c20
  405c20:	and    BYTE PTR [eax],al
  405c22:	push   ebx
  405c23:	add    BYTE PTR [ecx+0x0],ah
  405c26:	outs   dx,BYTE PTR ds:[esi]
  405c27:	add    BYTE PTR [ebx+0x0],dh
  405c2a:	and    BYTE PTR [eax],al
  405c2c:	push   ebx
  405c2d:	add    BYTE PTR [ebp+0x0],ah
  405c30:	jb     0x405c32
  405c32:	imul   eax,DWORD PTR [eax],0x19000066
  405c38:	jb     0x405c3a
  405c3a:	imul   eax,DWORD PTR [eax],0x680063
  405c40:	push   esp
  405c41:	add    BYTE PTR [ebp+0x0],ah
  405c44:	js     0x405c46
  405c46:	je     0x405c48
  405c48:	inc    edx
  405c49:	add    BYTE PTR [edi+0x0],ch
  405c4c:	js     0x405c4e
  405c4e:	xor    DWORD PTR [eax],eax
  405c50:	add    BYTE PTR [ebx],bl
  405c52:	push   edi
  405c53:	add    BYTE PTR [edi+0x0],ch
  405c56:	jb     0x405c58
  405c58:	imul   eax,DWORD PTR [eax],0x69
  405c5b:	add    BYTE PTR [esi+0x0],ch
  405c5e:	add    BYTE PTR [si+0x0],al
  405c62:	imul   eax,DWORD PTR [eax],0x6c0061
  405c68:	outs   dx,DWORD PTR ds:[esi]
  405c69:	add    BYTE PTR [edi+0x0],ah
  405c6c:	add    BYTE PTR [ebp+0x50],cl
  405c6f:	add    BYTE PTR [eax+eax*1+0x65],ch
  405c73:	add    BYTE PTR [ecx+0x0],ah
  405c76:	jae    0x405c78
  405c78:	add    BYTE PTR gs:[eax],ah
  405c7b:	add    BYTE PTR [edi+0x0],dl
  405c7e:	popa   
  405c7f:	add    BYTE PTR [ecx+0x0],ch
  405c82:	je     0x405c84
  405c84:	and    BYTE PTR [eax],al
  405c86:	sub    eax,0x43002000
  405c8b:	add    BYTE PTR [edx+0x0],dh
  405c8e:	popa   
  405c8f:	add    BYTE PTR [ebx+0x0],dh
  405c92:	push   0x55002000
  405c97:	add    BYTE PTR [eax+0x0],dh
  405c9a:	ins    BYTE PTR es:[edi],dx
  405c9b:	add    BYTE PTR [edi+0x0],ch
  405c9e:	popa   
  405c9f:	add    BYTE PTR [eax+eax*1+0x20],ah
  405ca3:	add    BYTE PTR [ecx+0x0],cl
  405ca6:	outs   dx,BYTE PTR ds:[esi]
  405ca7:	add    BYTE PTR [eax],ah
  405ca9:	add    BYTE PTR [eax+0x0],dl
  405cac:	jb     0x405cae
  405cae:	outs   dx,DWORD PTR ds:[esi]
  405caf:	add    BYTE PTR [edi+0x0],ah
  405cb2:	jb     0x405cb4
  405cb4:	add    BYTE PTR gs:[ebx+0x0],dh
  405cb8:	jae    0x405cba
  405cba:	add    DWORD PTR [eax],eax
  405cbc:	cmp    dl,cl
  405cbe:	mov    al,0x3
  405cc0:	adc    al,0xf0
  405cc2:	xor    ecx,DWORD PTR [edi-0x49]
  405cc5:	cmp    bl,bl
  405cc7:	and    BYTE PTR [esi],ch
  405cc9:	add    ah,BYTE PTR [edi-0x48f7ff3d]
  405ccf:	jp     0x405d2d
  405cd1:	push   esi
  405cd2:	sbb    DWORD PTR [eax+eiz*8],esi
  405cd5:	mov    DWORD PTR [edx],eax
  405cd7:	push   es
  405cd8:	push   cs
  405cd9:	add    al,BYTE PTR [esi]
  405cdb:	sbb    al,0x3
  405cdd:	and    BYTE PTR [eax],al
  405cdf:	add    DWORD PTR ds:0xe010220,eax
  405ce5:	push   cs
  405ce6:	add    al,BYTE PTR [esi]
  405ce8:	add    al,BYTE PTR [eax+eiz*1]
  405ceb:	add    DWORD PTR [ecx],eax
  405ced:	add    al,BYTE PTR ds:0x1c010220
  405cf3:	sbb    BYTE PTR [eax+eiz*1],al
  405cf6:	add    DWORD PTR [ecx],eax
  405cf8:	push   cs
  405cf9:	or     BYTE PTR [eax],ah
  405cfb:	add    edx,DWORD PTR [edx]
  405cfd:	sbb    DWORD PTR [esi],ecx
  405cff:	adc    bl,BYTE PTR ds:0x120051c
  405d05:	add    DWORD PTR [edx],edx
  405d07:	sbb    DWORD PTR ds:0x12010100,eax
  405d0d:	or     al,0x3
  405d0f:	push   es
  405d10:	adc    bl,BYTE PTR [eax]
  405d12:	add    eax,DWORD PTR [eax]
  405d14:	add    BYTE PTR [eax],cl
  405d16:	add    al,0x0
  405d18:	add    DWORD PTR [ecx],eax
  405d1a:	or     BYTE PTR [ebx],al
  405d1c:	add    BYTE PTR [eax],al
  405d1e:	push   cs
  405d1f:	add    al,0x0
  405d21:	add    DWORD PTR [ecx],eax
  405d23:	push   cs
  405d24:	push   es
  405d25:	add    BYTE PTR [edx],al
  405d27:	add    DWORD PTR [esi],ecx
  405d29:	sbb    eax,0x100041c
  405d2e:	add    DWORD PTR [ebx+eax*1],ebx
  405d31:	add    BYTE PTR [eax],al
  405d33:	add    DWORD PTR [ebx],eax
  405d35:	add    BYTE PTR [eax],al
  405d37:	sbb    al,0x3
  405d39:	or     BYTE PTR [eax],al
  405d3b:	or     BYTE PTR [ebx],al
  405d3d:	or     BYTE PTR [eax],al
  405d3f:	push   cs
  405d40:	add    eax,DWORD PTR [esi]
  405d42:	adc    cl,BYTE PTR [eax*1+0x12010120]
  405d49:	or     al,0x3
  405d4b:	and    BYTE PTR [eax],al
  405d4d:	or     BYTE PTR [eax+eiz*1],al
  405d50:	add    DWORD PTR [ecx],eax
  405d52:	or     BYTE PTR [ebx],al
  405d54:	push   es
  405d55:	adc    ah,BYTE PTR [ecx]
  405d57:	add    eax,DWORD PTR [esi]
  405d59:	adc    bl,BYTE PTR [ebx+eax*1]
  405d5c:	and    BYTE PTR [eax],al
  405d5e:	push   cs
  405d5f:	add    al,0x20
  405d61:	add    BYTE PTR [edx],dl
  405d63:	and    eax,0x1012005
  405d68:	adc    ah,BYTE PTR ds:0x12002004
  405d6e:	and    BYTE PTR [ebx],al
  405d70:	push   es
  405d71:	adc    ch,BYTE PTR [ecx]
  405d73:	add    al,BYTE PTR [esi]
  405d75:	or     BYTE PTR [ebx],al
  405d77:	and    BYTE PTR [eax],al
  405d79:	sbb    al,0x5
  405d7b:	and    BYTE PTR [ecx],al
  405d7d:	sbb    eax,0x40e0e
  405d82:	add    DWORD PTR [edx],eax
  405d84:	sbb    BYTE PTR ds:0x1d010120,al
  405d8a:	push   cs
  405d8b:	push   es
  405d8c:	and    BYTE PTR [edx],al
  405d8e:	add    DWORD PTR [esi],ecx
  405d90:	sbb    eax,0x1206031c
  405d95:	and    eax,0x8002803
  405d9a:	add    ebp,DWORD PTR [eax]
  405d9c:	add    BYTE PTR [esi],cl
  405d9e:	add    al,0x28
  405da0:	add    BYTE PTR [edx],dl
  405da2:	and    eax,0x12150609
  405da7:	sub    eax,0x12311202
  405dac:	and    BYTE PTR ds:0x1d010100,al
  405db2:	push   cs
  405db3:	add    eax,DWORD PTR [esi]
  405db5:	adc    dh,BYTE PTR ds:0x38120603
  405dbb:	pop    es
  405dbc:	and    BYTE PTR [edx],al
  405dbe:	add    DWORD PTR [edx],edx
  405dc0:	xor    eax,0x9f083812
  405dc5:	inc    edi
  405dc6:	ins    DWORD PTR es:[edi],dx
  405dc7:	xor    BYTE PTR [ecx+0x3e32bb5],cl
  405dcd:	push   es
  405dce:	adc    bh,BYTE PTR [ecx]
  405dd0:	add    eax,DWORD PTR [esi]
  405dd2:	adc    bh,BYTE PTR ds:0x1022006
  405dd8:	sbb    al,0x12
  405dda:	inc    ecx
  405ddb:	add    esp,DWORD PTR [eax]
  405ddd:	add    BYTE PTR [edx],al
  405ddf:	add    eax,DWORD PTR [esi]
  405de1:	adc    al,BYTE PTR [eax+0x3]
  405de4:	push   es
  405de5:	adc    ch,BYTE PTR [eax*1+0x12010120]
  405dec:	sub    al,0x3
  405dee:	push   es
  405def:	adc    al,BYTE PTR [ebp+0x3]
  405df2:	push   es
  405df3:	adc    DWORD PTR [ecx+0x4],ecx
  405df6:	push   es
  405df7:	pop    ds
  405df8:	dec    ebp
  405df9:	add    al,BYTE PTR [ebx]
  405dfb:	push   es
  405dfc:	adc    dl,BYTE PTR [ecx+0x3]
  405dff:	push   es
  405e00:	adc    cl,BYTE PTR [eax+0x3]
  405e03:	push   es
  405e04:	adc    al,BYTE PTR [esi+eax*1+0x20]
  405e08:	add    al,BYTE PTR [ecx]
  405e0a:	push   cs
  405e0b:	adc    ch,BYTE PTR [esi+eax*1]
  405e0e:	and    BYTE PTR [edx],al
  405e10:	add    DWORD PTR [edx],edx
  405e12:	dec    eax
  405e13:	or     BYTE PTR [ebx],al
  405e15:	push   es
  405e16:	adc    dl,BYTE PTR [ebp+0x3]
  405e19:	push   es
  405e1a:	adc    bl,BYTE PTR [ecx+0x4]
  405e1d:	add    DWORD PTR [eax],eax
  405e1f:	add    BYTE PTR [eax],al
  405e21:	push   es
  405e22:	and    BYTE PTR [ecx],al
  405e24:	add    DWORD PTR [ecx],edx
  405e26:	sbb    BYTE PTR [ecx+0x2010703],0x3
  405e2d:	pop    es
  405e2e:	add    DWORD PTR [eax],ecx
  405e30:	add    eax,DWORD PTR [edi]
  405e32:	add    DWORD PTR [esi],ecx
  405e34:	add    eax,DWORD PTR [edi]
  405e36:	add    DWORD PTR [ebx+ecx*1],ebx
  405e39:	add    BYTE PTR [edx],al
  405e3b:	adc    al,BYTE PTR [eax-0x4e7fed4f]
  405e41:	adc    al,BYTE PTR [eax+0x1100cb1]
  405e47:	add    ebx,DWORD PTR [esi]
  405e49:	add    BYTE PTR [eax],dl
  405e4b:	push   ds
  405e4c:	add    BYTE PTR [esi],bl
  405e4e:	add    BYTE PTR [esi],bl
  405e50:	add    BYTE PTR [edx+ecx*1],al
  405e53:	add    DWORD PTR [edx],edx
  405e55:	or     al,0x9
  405e57:	pop    es
  405e58:	add    al,0x12
  405e5a:	or     al,0x12
  405e5c:	or     al,0x12
  405e5e:	or     al,0x2
  405e60:	push   es
  405e61:	add    BYTE PTR [edx],al
  405e63:	add    DWORD PTR [eax+edx*1],ebx
  405e66:	add    al,BYTE PTR [eax+eax*1]
  405e69:	add    DWORD PTR [esi],ecx
  405e6b:	push   cs
  405e6c:	push   es
  405e6d:	add    BYTE PTR [ecx],al
  405e6f:	adc    al,BYTE PTR [eax+0x7050ec5]
  405e75:	add    eax,DWORD PTR [edx]
  405e77:	sbb    al,0x2
  405e79:	add    al,0x7
  405e7b:	add    DWORD PTR [edx],edx
  405e7d:	and    eax,0x12000004
  405e82:	xor    DWORD PTR [eax],ecx
  405e84:	adc    eax,0x12022d12
  405e89:	xor    DWORD PTR [edx],edx
  405e8b:	and    BYTE PTR ds:0x13020120,al
  405e91:	add    BYTE PTR [esi],al
  405e93:	and    BYTE PTR [ecx],al
  405e95:	adc    eax,DWORD PTR [ecx]
  405e97:	adc    eax,DWORD PTR [eax]
  405e99:	pop    es
  405e9a:	and    BYTE PTR [edx],al
  405e9c:	add    DWORD PTR [ebx],edx
  405e9e:	add    BYTE PTR [ebx],dl
  405ea0:	add    DWORD PTR [ecx],ecx
  405ea2:	pop    es
  405ea3:	add    al,0x12
  405ea5:	xor    DWORD PTR [edx],edx
  405ea7:	and    BYTE PTR [edx],dl
  405ea9:	and    BYTE PTR [edx],al
  405eab:	or     esp,DWORD PTR [eax]
  405ead:	add    BYTE PTR ds:0x2cd8012,dl
  405eb3:	adc    eax,DWORD PTR [eax]
  405eb5:	adc    eax,DWORD PTR [ecx]
  405eb7:	or     DWORD PTR ds:0x2cd8012,edx
  405ebd:	adc    dh,BYTE PTR [ecx]
  405ebf:	adc    ah,BYTE PTR [eax]
  405ec1:	or     esp,DWORD PTR [eax]
  405ec3:	add    BYTE PTR ds:0x2d18011,dl
  405ec9:	adc    eax,DWORD PTR [eax]
  405ecb:	adc    eax,DWORD PTR [ecx]
  405ecd:	or     DWORD PTR ds:0x2d18011,edx
  405ed3:	adc    dh,BYTE PTR [ecx]
  405ed5:	adc    ah,BYTE PTR [eax]
  405ed7:	add    al,0x20
  405ed9:	add    BYTE PTR [ebx],dl
  405edb:	add    BYTE PTR [eax],dl
  405edd:	pop    es
  405ede:	add    eax,0x1c023112
  405ee3:	adc    eax,0x2d18011
  405ee8:	adc    dh,BYTE PTR [ecx]
  405eea:	adc    ah,BYTE PTR [eax]
  405eec:	add    al,BYTE PTR ds:0x8080200
  405ef2:	or     BYTE PTR [esi],al
  405ef4:	and    BYTE PTR [ecx],al
  405ef6:	sbb    eax,0x8031d0e
  405efb:	pop    es
  405efc:	add    ebx,DWORD PTR ds:0x1d0e1d0e
  405f02:	add    eax,DWORD PTR ds:0x29120120
  405f08:	push   cs
  405f09:	add    al,0x20
  405f0b:	add    DWORD PTR [ecx],eax
  405f0d:	sbb    al,0x5
  405f0f:	and    BYTE PTR [eax],al
  405f11:	adc    al,BYTE PTR [eax+0x2005e5]
  405f17:	adc    al,BYTE PTR [eax+0x2003ed]
  405f1d:	sbb    BYTE PTR [eax+eiz*1],al
  405f20:	add    BYTE PTR [edx],dl
  405f22:	sub    DWORD PTR [edi],eax
  405f24:	add    BYTE PTR [esi+ecx*1],al
  405f27:	push   cs
  405f28:	sbb    al,0x1c
  405f2a:	sbb    al,0x4
  405f2c:	add    BYTE PTR [ecx],al
  405f2e:	add    cl,BYTE PTR [esi]
  405f30:	or     al,BYTE PTR [edi]
  405f32:	pop    es
  405f33:	adc    ah,BYTE PTR [eax]
  405f35:	or     BYTE PTR [esi],cl
  405f37:	push   cs
  405f38:	add    bl,BYTE PTR [edx+eax*1]
  405f3b:	or     BYTE PTR [edi],al
  405f3d:	add    eax,0x20e2012
  405f42:	sbb    al,0x2
  405f44:	add    al,0x20
  405f46:	add    DWORD PTR [edx],eax
  405f48:	push   cs
  405f49:	add    eax,0xe0e0200
  405f4e:	push   cs
  405f4f:	add    eax,0xe1d0207
  405f54:	add    al,BYTE PTR [esi]
  405f56:	add    BYTE PTR [edx],al
  405f58:	push   cs
  405f59:	push   cs
  405f5a:	sbb    eax,0x200051c
  405f5f:	push   cs
  405f60:	push   cs
  405f61:	sbb    al,0x5
  405f63:	and    BYTE PTR [edx],al
  405f65:	add    DWORD PTR [ebx],eax
  405f67:	or     BYTE PTR [eax+eax*1],al
  405f6a:	add    DWORD PTR [ecx],eax
  405f6c:	add    al,BYTE PTR [edi]
  405f6e:	and    BYTE PTR [ebx],al
  405f70:	add    DWORD PTR [edx],eax
  405f72:	push   cs
  405f73:	adc    BYTE PTR [edx],al
  405f75:	pop    es
  405f76:	add    BYTE PTR [ecx],al
  405f78:	sbb    eax,0xe098112
  405f7d:	add    eax,0x81120000
  405f82:	or     DWORD PTR [esi],eax
  405f84:	and    BYTE PTR [ecx],al
  405f86:	add    DWORD PTR [ecx],edx
  405f88:	or     DWORD PTR ds:0x1012006,0x6118112
  405f92:	and    BYTE PTR [ecx],al
  405f94:	add    DWORD PTR [edx],edx
  405f96:	adc    DWORD PTR ds:0x12100725,0x81120210
  405fa0:	add    eax,0x981121d
  405fa5:	adc    al,BYTE PTR [ecx+0x9811209]
  405fab:	push   cs
  405fac:	adc    al,BYTE PTR [ebp+0x12]
  405faf:	sub    al,0x12
  405fb1:	cmp    al,0x12
  405fb3:	xor    eax,0x51122812
  405fb8:	add    bl,BYTE PTR ds:0x8098112
  405fbe:	add    al,0x0
  405fc0:	add    BYTE PTR [ecx],dl
  405fc2:	dec    ecx
  405fc3:	push   es
  405fc4:	and    BYTE PTR [ebx],al
  405fc6:	add    DWORD PTR [eax],ecx
  405fc8:	or     BYTE PTR [eax],cl
  405fca:	or     DWORD PTR [eax],eax
  405fcc:	add    dl,BYTE PTR [ecx]
  405fce:	sbb    DWORD PTR ds:0x49114911,0x2020009
  405fd8:	adc    DWORD PTR [ecx+0x1d81111d],eax
  405fde:	adc    al,BYTE PTR [edi]
  405fe0:	pop    es
  405fe1:	add    dl,BYTE PTR [ecx]
  405fe3:	dec    ecx
  405fe4:	adc    DWORD PTR [ecx+0x121d021d],eax
  405fea:	or     DWORD PTR [ecx],0x981121d
  405ff0:	add    al,BYTE PTR [esi]
  405ff2:	add    BYTE PTR [ebx],al
  405ff4:	push   cs
  405ff5:	push   cs
  405ff6:	push   cs
  405ff7:	push   cs
  405ff8:	add    eax,0xe010200
  405ffd:	push   cs
  405ffe:	pop    es
  405fff:	and    BYTE PTR [edx],al
  406001:	add    DWORD PTR [esi],ecx
  406003:	adc    DWORD PTR [ecx+0x12060429],eax
  406009:	sub    DWORD PTR ds:0x1032008,0x81120e0e
  406013:	sub    eax,0x12012006
  406018:	xor    DWORD PTR [ecx],0x20050e
  40601e:	adc    al,BYTE PTR [ecx+0x1200635]
  406024:	adc    al,BYTE PTR [ecx+0x20060839]
  40602a:	add    eax,DWORD PTR [ecx]
  40602c:	push   cs
  40602d:	push   cs
  40602e:	push   cs
  40602f:	push   es
  406030:	pop    es
  406031:	add    dl,BYTE PTR [edx]
  406033:	xor    DWORD PTR [ecx],0x20050e
  406039:	adc    DWORD PTR [ecx+0x2070741],eax
  40603f:	adc    DWORD PTR [ecx+0x61c1d41],eax
  406045:	add    BYTE PTR [ecx],al
  406047:	adc    DWORD PTR [ecx+0x70b0e45],eax
  40604d:	add    al,0x11
  40604f:	add    DWORD PTR [ecx+0x11],0x1c1d4581
  406056:	add    al,BYTE PTR [edi+eax*1]
  406059:	add    al,BYTE PTR [edx]
  40605b:	add    al,BYTE PTR ds:0x12010100
  406061:	adc    eax,0x1040009
  406066:	push   cs
  406067:	push   cs
  406068:	adc    DWORD PTR [ecx+0x7080251],eax
  40606e:	add    edx,DWORD PTR [ecx]
  406070:	sbb    DWORD PTR ds:0x8021c1d,0x11150000
  40607a:	adc    DWORD PTR [ebp+0x1],0x11150608
  406081:	adc    DWORD PTR [ebp+0x1],0x3070a08
  406088:	adc    eax,0x1558111
  40608d:	or     BYTE PTR [eax],cl
  40608f:	add    al,BYTE PTR [esi]
  406091:	adc    eax,0x1598112
  406096:	push   cs
  406097:	or     BYTE PTR [eax],ah
  406099:	add    bl,BYTE PTR [edx+edx*1]
  40609c:	xor    BYTE PTR [ecx+0x7051c1d],0x2
  4060a3:	add    bl,BYTE PTR ds:0x120061c
  4060a9:	add    DWORD PTR [ecx],edx
  4060ab:	sbb    DWORD PTR [ebp+0x8],0x7f5f3fb0
  4060b2:	adc    ebp,edx
  4060b4:	or     bh,BYTE PTR [edx]
  4060b6:	or     al,0x20
  4060b8:	add    eax,0x110c0e01
  4060bd:	and    DWORD PTR [ebp+0x11],0x6056981
  4060c4:	and    BYTE PTR [ecx],al
  4060c6:	add    DWORD PTR [edx],edx
  4060c8:	and    DWORD PTR [ecx+0x5],0x8010220
  4060cf:	or     BYTE PTR [esi],al
  4060d1:	and    BYTE PTR [ecx],al
  4060d3:	add    DWORD PTR [ecx],edx
  4060d5:	sub    DWORD PTR [ebp+0x6],0x11010120
  4060dc:	xor    DWORD PTR [ecx+0x5],0xc010220
  4060e3:	or     al,0x6
  4060e5:	and    BYTE PTR [ecx],al
  4060e7:	add    DWORD PTR [ecx],edx
  4060e9:	xor    DWORD PTR [ebp+0x6],0x11010120
  4060f0:	cmp    DWORD PTR [ebp+0x5],0x81120020
  4060f7:	add    DWORD PTR [esi],0x12010120
  4060fd:	or     DWORD PTR [ecx+0x49],0x2e1a0001
  406104:	dec    esi
  406105:	inc    ebp
  406106:	push   esp
  406107:	inc    esi
  406108:	jb     0x40616b
  40610a:	ins    DWORD PTR es:[edi],dx
  40610b:	gs ja  0x40617d
  40610e:	jb     0x40617b
  406110:	sub    al,0x56
  406112:	gs jb  0x406188
  406115:	imul   ebp,DWORD PTR [edi+0x6e],0x2e34763d
  40611c:	xor    eax,0xe540001
  406121:	adc    al,0x46
  406123:	jb     0x406186
  406125:	ins    DWORD PTR es:[edi],dx
  406126:	gs ja  0x406198
  406129:	jb     0x406196
  40612b:	inc    esp
  40612c:	imul   esi,DWORD PTR [ebx+0x70],0x4e79616c
  406133:	popa   
  406134:	ins    DWORD PTR es:[edi],dx
  406135:	adc    ch,BYTE PTR gs:[esi]
  406138:	dec    esi
  406139:	inc    ebp
  40613a:	push   esp
  40613b:	and    BYTE PTR [esi+0x72],al
  40613e:	popa   
  40613f:	ins    DWORD PTR es:[edi],dx
  406140:	gs ja  0x4061b2
  406143:	jb     0x4061b0
  406145:	and    BYTE PTR [esi+ebp*1],dh
  406148:	xor    eax,0x10000115
  40614d:	inc    ebx
  40614e:	jb     0x4061b1
  406150:	jae    0x4061ba
  406152:	inc    esp
  406153:	jne    0x4061c2
  406155:	jo     0x4061ae
  406157:	popa   
  406158:	je     0x4061bd
  40615a:	push   0x7265
  40615f:	add    eax,0x1
  406164:	add    BYTE PTR [esi],cl
  406166:	add    DWORD PTR [eax],eax
  406168:	or     DWORD PTR [ebp+0x69],ecx
  40616b:	arpl   WORD PTR [edx+0x6f],si
  40616e:	jae    0x4061df
  406170:	data16 je 0x406173
  406173:	add    BYTE PTR [eax],ah
  406175:	add    DWORD PTR [eax],eax
  406177:	sbb    eax,DWORD PTR [ebx+0x6f]
  40617a:	jo     0x4061f5
  40617c:	jb     0x4061e7
  40617e:	addr16 push 0xa9c22074
  406184:	and    BYTE PTR [ebp+0x69],cl
  406187:	arpl   WORD PTR [edx+0x6f],si
  40618a:	jae    0x4061fb
  40618c:	data16 je 0x4061af
  40618f:	xor    dh,BYTE PTR [eax]
  406191:	xor    DWORD PTR ds:0x1290000,esi
  406197:	add    BYTE PTR [ecx+edi*1],ah
  40619a:	ss xor al,0x64
  40619d:	cmp    BYTE PTR [esi+0x36],ah
  4061a0:	xor    al,0x2d
  4061a2:	ss bound esi,QWORD PTR gs:[edi]
  4061a6:	sub    eax,0x63643634
  4061ab:	sub    eax,0x63373238
  4061b0:	sub    eax,0x34636166
  4061b5:	xor    ah,BYTE PTR [ecx+0x34]
  4061b8:	aaa    
  4061b9:	popa   
  4061ba:	xor    eax,0x3662
  4061bf:	or     al,0x1
  4061c1:	add    BYTE PTR [edi],al
  4061c3:	xor    DWORD PTR [esi],ebp
  4061c5:	xor    BYTE PTR [esi],ch
  4061c7:	xor    BYTE PTR [esi],ch
  4061c9:	xor    BYTE PTR [eax],al
  4061cb:	add    BYTE PTR [eax],cl
  4061cd:	add    DWORD PTR [eax],eax
  4061cf:	pop    es
  4061d0:	add    DWORD PTR [eax],eax
  4061d2:	add    BYTE PTR [eax],al
  4061d4:	add    BYTE PTR [eax],cl
  4061d6:	add    DWORD PTR [eax],eax
  4061d8:	or     BYTE PTR [eax],al
  4061da:	add    BYTE PTR [eax],al
  4061dc:	add    BYTE PTR [eax],al
  4061de:	push   ds
  4061df:	add    DWORD PTR [eax],eax
  4061e1:	add    DWORD PTR [eax],eax
  4061e3:	push   esp
  4061e4:	add    dl,BYTE PTR [esi]
  4061e6:	push   edi
  4061e7:	jb     0x40624a
  4061e9:	jo     0x406239
  4061eb:	outs   dx,DWORD PTR ds:[esi]
  4061ec:	outs   dx,BYTE PTR ds:[esi]
  4061ed:	inc    ebp
  4061ee:	js     0x406253
  4061f0:	gs jo  0x406267
  4061f3:	imul   ebp,DWORD PTR [edi+0x6e],0x6f726854
  4061fa:	ja     0x40626f
  4061fc:	add    DWORD PTR [eax],eax
  4061fe:	add    BYTE PTR [eax],al
  406200:	add    BYTE PTR [eax],al
  406202:	add    BYTE PTR [eax],al
  406204:	mov    ds:0x562e52,eax
  406209:	add    BYTE PTR [eax],al
  40620b:	add    BYTE PTR [edx],al
  40620d:	add    BYTE PTR [eax],al
  40620f:	add    BYTE PTR [ecx+eax*1],bl
  406212:	add    BYTE PTR [eax],al
  406214:	sbb    al,0x62
  406216:	add    BYTE PTR [eax],al
  406218:	sbb    al,0x44
  40621a:	add    BYTE PTR [eax],al
  40621c:	push   edx
  40621d:	push   ebx
  40621e:	inc    esp
  40621f:	push   ebx
  406220:	mov    edi,0x912a1f0
  406225:	mov    dl,0xa
  406227:	dec    edx
  406228:	stos   BYTE PTR es:[edi],al
  406229:	call   0xfb94ea05
  40622e:	iret   
  40622f:	lds    eax,FWORD PTR [edx]
  406231:	add    BYTE PTR [eax],al
  406233:	add    BYTE PTR [edx+edi*1+0x5c],ah
  406237:	push   eax
  406238:	jb     0x4062a9
  40623a:	push   0x65
  40623c:	arpl   WORD PTR [ebx+esi*2+0x5c],si
  406240:	js     0x4062a5
  406242:	outs   dx,DWORD PTR ds:[esi]
  406243:	ins    DWORD PTR es:[edi],dx
  406244:	xor    bl,BYTE PTR [ebp+ebp*2+0x61]
  406248:	imul   ebp,DWORD PTR [esi+0x5c],0x4d4f4358
  40624f:	xor    bl,BYTE PTR [esp+eax*2+0x65]
  406253:	jbe    0x4062ba
  406255:	ins    BYTE PTR es:[edi],dx
  406256:	outs   dx,DWORD PTR ds:[esi]
  406257:	jo     0x4062c6
  406259:	outs   dx,BYTE PTR gs:[esi]
  40625b:	je     0x4062b9
  40625d:	push   esp
  40625e:	outs   dx,DWORD PTR ds:[esi]
  40625f:	outs   dx,DWORD PTR ds:[esi]
  406260:	ins    BYTE PTR es:[edi],dx
  406261:	jae    0x4062bf
  406263:	inc    ebx
  406264:	jb     0x4062c7
  406266:	jae    0x4062d0
  406268:	inc    esp
  406269:	jne    0x4062d8
  40626b:	jo     0x4062c4
  40626d:	popa   
  40626e:	je     0x4062d3
  406270:	push   0x435c7265
  406275:	jb     0x4062d8
  406277:	jae    0x4062e1
  406279:	inc    esp
  40627a:	jne    0x4062e9
  40627c:	jo     0x4062d5
  40627e:	popa   
  40627f:	je     0x4062e4
  406281:	push   0x6f5c7265
  406286:	bound  ebp,QWORD PTR [edx+0x5c]
  406289:	inc    esp
  40628a:	bound  esi,QWORD PTR gs:[ebp+0x67]
  40628e:	pop    esp
  40628f:	inc    ebx
  406290:	jb     0x4062f3
  406292:	jae    0x4062fc
  406294:	inc    esp
  406295:	jne    0x406304
  406297:	jo     0x4062f0
  406299:	popa   
  40629a:	je     0x4062ff
  40629c:	push   0x702e7265
  4062a1:	bound  eax,QWORD PTR fs:[eax]
	...
  406338:	pusha  
  406339:	arpl   WORD PTR [eax],ax
	...
  406343:	add    BYTE PTR [esi+0x63],bh
  406346:	add    BYTE PTR [eax],al
  406348:	add    BYTE PTR [eax],ah
	...
  40635e:	add    BYTE PTR [eax],al
  406360:	jo     0x4063c5
	...
  406372:	pop    edi
  406373:	inc    ebx
  406374:	outs   dx,DWORD PTR ds:[esi]
  406375:	jb     0x4063bc
  406377:	js     0x4063de
  406379:	dec    ebp
  40637a:	popa   
  40637b:	imul   ebp,DWORD PTR [esi+0x0],0x6f63736d
  406382:	jb     0x4063e9
  406384:	gs cs fs ins BYTE PTR es:[edi],dx
  406388:	ins    BYTE PTR es:[edi],dx
  406389:	add    BYTE PTR [eax],al
  40638b:	add    BYTE PTR [eax],al
  40638d:	add    bh,bh
  40638f:	and    eax,0x402000

Disassembly of section .rsrc:

00408000 <.rsrc>:
	...
  40800c:	add    BYTE PTR [eax],al
  40800e:	add    al,BYTE PTR [eax]
  408010:	adc    BYTE PTR [eax],al
  408012:	add    BYTE PTR [eax],al
  408014:	and    BYTE PTR [eax],al
  408016:	add    BYTE PTR [eax+0x18],al
  40801c:	cmp    BYTE PTR [eax],al
  40801e:	add    BYTE PTR [eax+0x0],al
	...
  40802c:	add    BYTE PTR [eax],al
  40802e:	add    DWORD PTR [eax],eax
  408030:	add    DWORD PTR [eax],eax
  408032:	add    BYTE PTR [eax],al
  408034:	push   eax
  408035:	add    BYTE PTR [eax],al
  408037:	add    BYTE PTR [eax],0x0
	...
  408046:	add    DWORD PTR [eax],eax
  408048:	add    DWORD PTR [eax],eax
  40804a:	add    BYTE PTR [eax],al
  40804c:	push   0x800000
	...
  40805d:	add    BYTE PTR [ecx],al
  40805f:	add    BYTE PTR [eax],al
  408061:	add    BYTE PTR [eax],al
  408063:	add    BYTE PTR [eax+0x0],al
	...
  408075:	add    BYTE PTR [ecx],al
  408077:	add    BYTE PTR [eax],al
  408079:	add    BYTE PTR [eax],al
  40807b:	add    BYTE PTR [eax-0x60000000],dl
  408081:	add    BYTE PTR [eax],0x0
  408084:	cmp    BYTE PTR [ebx],al
	...
  40808e:	add    BYTE PTR [eax],al
  408090:	fadd   DWORD PTR [ebx+0x1ea0000]
	...
  40809e:	add    BYTE PTR [eax],al
  4080a0:	cmp    BYTE PTR [ebx],al
  4080a2:	xor    al,0x0
  4080a4:	add    BYTE PTR [eax],al
  4080a6:	push   esi
  4080a7:	add    BYTE PTR [ebx+0x0],dl
  4080aa:	pop    edi
  4080ab:	add    BYTE PTR [esi+0x0],dl
  4080ae:	inc    ebp
  4080af:	add    BYTE PTR [edx+0x0],dl
  4080b2:	push   ebx
  4080b3:	add    BYTE PTR [ecx+0x0],cl
  4080b6:	dec    edi
  4080b7:	add    BYTE PTR [esi+0x0],cl
  4080ba:	pop    edi
  4080bb:	add    BYTE PTR [ecx+0x0],cl
  4080be:	dec    esi
  4080bf:	add    BYTE PTR [esi+0x0],al
  4080c2:	dec    edi
  4080c3:	add    BYTE PTR [eax],al
  4080c5:	add    BYTE PTR [eax],al
  4080c7:	add    BYTE PTR [ebp+0xfeef04],bh
  4080cd:	add    BYTE PTR [ecx],al
  4080cf:	add    BYTE PTR [eax],al
  4080d1:	add    BYTE PTR [ecx],al
  4080d3:	add    BYTE PTR [eax],al
  4080d5:	add    BYTE PTR [eax],al
  4080d7:	add    BYTE PTR [eax],al
  4080d9:	add    BYTE PTR [ecx],al
  4080db:	add    BYTE PTR [eax],al
  4080dd:	add    BYTE PTR [eax],al
  4080df:	add    BYTE PTR [edi],bh
  4080e1:	add    BYTE PTR [eax],al
  4080e3:	add    BYTE PTR [eax],al
  4080e5:	add    BYTE PTR [eax],al
  4080e7:	add    BYTE PTR [eax+eax*1],al
  4080ea:	add    BYTE PTR [eax],al
  4080ec:	add    DWORD PTR [eax],eax
	...
  4080fa:	add    BYTE PTR [eax],al
  4080fc:	inc    esp
  4080fd:	add    BYTE PTR [eax],al
  4080ff:	add    BYTE PTR [ecx],al
  408101:	add    BYTE PTR [esi+0x0],dl
  408104:	popa   
  408105:	add    BYTE PTR [edx+0x0],dh
  408108:	inc    esi
  408109:	add    BYTE PTR [ecx+0x0],ch
  40810c:	ins    BYTE PTR es:[edi],dx
  40810d:	add    BYTE PTR [ebp+0x0],ah
  408110:	dec    ecx
  408111:	add    BYTE PTR [esi+0x0],ch
  408114:	data16 add BYTE PTR [edi+0x0],ch
  408118:	add    BYTE PTR [eax],al
  40811a:	add    BYTE PTR [eax],al
  40811c:	and    al,0x0
  40811e:	add    al,0x0
  408120:	add    BYTE PTR [eax],al
  408122:	push   esp
  408123:	add    BYTE PTR [edx+0x0],dh
  408126:	popa   
  408127:	add    BYTE PTR [esi+0x0],ch
  40812a:	jae    0x40812c
  40812c:	ins    BYTE PTR es:[edi],dx
  40812d:	add    BYTE PTR [ecx+0x0],ah
  408130:	je     0x408132
  408132:	imul   eax,DWORD PTR [eax],0x6e006f
  408138:	add    BYTE PTR [eax],al
  40813a:	add    BYTE PTR [eax],al
  40813c:	add    BYTE PTR [eax],al
  40813e:	mov    al,0x4
  408140:	cwde   
  408141:	add    al,BYTE PTR [eax]
  408143:	add    BYTE PTR [ecx],al
  408145:	add    BYTE PTR [ebx+0x0],dl
  408148:	je     0x40814a
  40814a:	jb     0x40814c
  40814c:	imul   eax,DWORD PTR [eax],0x67006e
  408152:	inc    esi
  408153:	add    BYTE PTR [ecx+0x0],ch
  408156:	ins    BYTE PTR es:[edi],dx
  408157:	add    BYTE PTR [ebp+0x0],ah
  40815a:	dec    ecx
  40815b:	add    BYTE PTR [esi+0x0],ch
  40815e:	data16 add BYTE PTR [edi+0x0],ch
  408162:	add    BYTE PTR [eax],al
  408164:	je     0x408168
  408166:	add    BYTE PTR [eax],al
  408168:	add    DWORD PTR [eax],eax
  40816a:	xor    BYTE PTR [eax],al
  40816c:	xor    BYTE PTR [eax],al
  40816e:	xor    BYTE PTR [eax],al
  408170:	xor    BYTE PTR [eax],al
  408172:	xor    BYTE PTR [eax],al
  408174:	xor    al,0x0
  408176:	bound  eax,QWORD PTR [eax]
  408178:	xor    BYTE PTR [eax],al
  40817a:	add    BYTE PTR [eax],al
  40817c:	xor    al,0x0
  40817e:	or     al,BYTE PTR [eax]
  408180:	add    DWORD PTR [eax],eax
  408182:	inc    ebx
  408183:	add    BYTE PTR [edi+0x0],ch
  408186:	ins    DWORD PTR es:[edi],dx
  408187:	add    BYTE PTR [eax+0x0],dh
  40818a:	popa   
  40818b:	add    BYTE PTR [esi+0x0],ch
  40818e:	jns    0x408190
  408190:	dec    esi
  408191:	add    BYTE PTR [ecx+0x0],ah
  408194:	ins    DWORD PTR es:[edi],dx
  408195:	add    BYTE PTR [ebp+0x0],ah
  408198:	add    BYTE PTR [eax],al
  40819a:	add    BYTE PTR [eax],al
  40819c:	dec    ebp
  40819d:	add    BYTE PTR [ecx+0x0],ch
  4081a0:	arpl   WORD PTR [eax],ax
  4081a2:	jb     0x4081a4
  4081a4:	outs   dx,DWORD PTR ds:[esi]
  4081a5:	add    BYTE PTR [ebx+0x0],dh
  4081a8:	outs   dx,DWORD PTR ds:[esi]
  4081a9:	add    BYTE PTR [esi+0x0],ah
  4081ac:	je     0x4081ae
  4081ae:	add    BYTE PTR [eax],al
  4081b0:	dec    esp
  4081b1:	add    BYTE PTR [ecx],dl
  4081b3:	add    BYTE PTR [ecx],al
  4081b5:	add    BYTE PTR [esi+0x0],al
  4081b8:	imul   eax,DWORD PTR [eax],0x65006c
  4081be:	inc    esp
  4081bf:	add    BYTE PTR [ebp+0x0],ah
  4081c2:	jae    0x4081c4
  4081c4:	arpl   WORD PTR [eax],ax
  4081c6:	jb     0x4081c8
  4081c8:	imul   eax,DWORD PTR [eax],0x740070
  4081ce:	imul   eax,DWORD PTR [eax],0x6e006f
  4081d4:	add    BYTE PTR [eax],al
  4081d6:	add    BYTE PTR [eax],al
  4081d8:	inc    ebx
  4081d9:	add    BYTE PTR [edx+0x0],dh
  4081dc:	popa   
  4081dd:	add    BYTE PTR [ebx+0x0],dh
  4081e0:	push   0x75004400
  4081e5:	add    BYTE PTR [ebp+0x0],ch
  4081e8:	jo     0x4081ea
  4081ea:	push   edi
  4081eb:	add    BYTE PTR [ecx+0x0],ah
  4081ee:	je     0x4081f0
  4081f0:	arpl   WORD PTR [eax],ax
  4081f2:	push   0x72006500
  4081f7:	add    BYTE PTR [eax],al
  4081f9:	add    BYTE PTR [eax],al
  4081fb:	add    BYTE PTR [eax],dh
  4081fd:	add    BYTE PTR [eax],cl
  4081ff:	add    BYTE PTR [ecx],al
  408201:	add    BYTE PTR [esi+0x0],al
  408204:	imul   eax,DWORD PTR [eax],0x65006c
  40820a:	push   esi
  40820b:	add    BYTE PTR [ebp+0x0],ah
  40820e:	jb     0x408210
  408210:	jae    0x408212
  408212:	imul   eax,DWORD PTR [eax],0x6e006f
  408218:	add    BYTE PTR [eax],al
  40821a:	add    BYTE PTR [eax],al
  40821c:	xor    DWORD PTR [eax],eax
  40821e:	add    BYTE PTR cs:[eax],dh
  408221:	add    BYTE PTR [esi],ch
  408223:	add    BYTE PTR [eax],dh
  408225:	add    BYTE PTR [esi],ch
  408227:	add    BYTE PTR [eax],dh
  408229:	add    BYTE PTR [eax],al
  40822b:	add    BYTE PTR [eax+eax*1+0x15],cl
  40822f:	add    BYTE PTR [ecx],al
  408231:	add    BYTE PTR [ecx+0x0],cl
  408234:	outs   dx,BYTE PTR ds:[esi]
  408235:	add    BYTE PTR [eax+eax*1+0x65],dh
  408239:	add    BYTE PTR [edx+0x0],dh
  40823c:	outs   dx,BYTE PTR ds:[esi]
  40823d:	add    BYTE PTR [ecx+0x0],ah
  408240:	ins    BYTE PTR es:[edi],dx
  408241:	add    BYTE PTR [esi+0x0],cl
  408244:	popa   
  408245:	add    BYTE PTR [ebp+0x0],ch
  408248:	add    BYTE PTR gs:[eax],al
  40824b:	add    BYTE PTR [ebx+0x0],al
  40824e:	jb     0x408250
  408250:	popa   
  408251:	add    BYTE PTR [ebx+0x0],dh
  408254:	push   0x75004400
  408259:	add    BYTE PTR [ebp+0x0],ch
  40825c:	jo     0x40825e
  40825e:	push   edi
  40825f:	add    BYTE PTR [ecx+0x0],ah
  408262:	je     0x408264
  408264:	arpl   WORD PTR [eax],ax
  408266:	push   0x72006500
  40826b:	add    BYTE PTR [esi],ch
  40826d:	add    BYTE PTR [ebp+0x0],ah
  408270:	js     0x408272
  408272:	add    BYTE PTR gs:[eax],al
  408275:	add    BYTE PTR [eax],al
  408277:	add    BYTE PTR [eax+eax*1+0x1b],bl
  40827b:	add    BYTE PTR [ecx],al
  40827d:	add    BYTE PTR [eax+eax*1+0x65],cl
  408281:	add    BYTE PTR [edi+0x0],ah
  408284:	popa   
  408285:	add    BYTE PTR [eax+eax*1+0x43],ch
  408289:	add    BYTE PTR [edi+0x0],ch
  40828c:	jo     0x40828e
  40828e:	jns    0x408290
  408290:	jb     0x408292
  408292:	imul   eax,DWORD PTR [eax],0x680067
  408298:	je     0x40829a
  40829a:	add    BYTE PTR [eax],al
  40829c:	inc    ebx
  40829d:	add    BYTE PTR [edi+0x0],ch
  4082a0:	jo     0x4082a2
  4082a2:	jns    0x4082a4
  4082a4:	jb     0x4082a6
  4082a6:	imul   eax,DWORD PTR [eax],0x680067
  4082ac:	je     0x4082ae
  4082ae:	and    BYTE PTR [eax],al
  4082b0:	test   eax,0x4d002000
  4082b5:	add    BYTE PTR [ecx+0x0],ch
  4082b8:	arpl   WORD PTR [eax],ax
  4082ba:	jb     0x4082bc
  4082bc:	outs   dx,DWORD PTR ds:[esi]
  4082bd:	add    BYTE PTR [ebx+0x0],dh
  4082c0:	outs   dx,DWORD PTR ds:[esi]
  4082c1:	add    BYTE PTR [esi+0x0],ah
  4082c4:	je     0x4082c6
  4082c6:	and    BYTE PTR [eax],al
  4082c8:	xor    al,BYTE PTR [eax]
  4082ca:	xor    BYTE PTR [eax],al
  4082cc:	xor    DWORD PTR [eax],eax
  4082ce:	xor    eax,0x0
  4082d3:	add    BYTE PTR [eax+eax*1+0x15],dl
  4082d7:	add    BYTE PTR [ecx],al
  4082d9:	add    BYTE PTR [edi+0x0],cl
  4082dc:	jb     0x4082de
  4082de:	imul   eax,DWORD PTR [eax],0x690067
  4082e4:	outs   dx,BYTE PTR ds:[esi]
  4082e5:	add    BYTE PTR [ecx+0x0],ah
  4082e8:	ins    BYTE PTR es:[edi],dx
  4082e9:	add    BYTE PTR [esi+0x0],al
  4082ec:	imul   eax,DWORD PTR [eax],0x65006c
  4082f2:	outs   dx,BYTE PTR ds:[esi]
  4082f3:	add    BYTE PTR [ecx+0x0],ah
  4082f6:	ins    DWORD PTR es:[edi],dx
  4082f7:	add    BYTE PTR [ebp+0x0],ah
  4082fa:	add    BYTE PTR [eax],al
  4082fc:	inc    ebx
  4082fd:	add    BYTE PTR [edx+0x0],dh
  408300:	popa   
  408301:	add    BYTE PTR [ebx+0x0],dh
  408304:	push   0x75004400
  408309:	add    BYTE PTR [ebp+0x0],ch
  40830c:	jo     0x40830e
  40830e:	push   edi
  40830f:	add    BYTE PTR [ecx+0x0],ah
  408312:	je     0x408314
  408314:	arpl   WORD PTR [eax],ax
  408316:	push   0x72006500
  40831b:	add    BYTE PTR [esi],ch
  40831d:	add    BYTE PTR [ebp+0x0],ah
  408320:	js     0x408322
  408322:	add    BYTE PTR gs:[eax],al
  408325:	add    BYTE PTR [eax],al
  408327:	add    BYTE PTR [eax+eax*1+0x11],al
  40832b:	add    BYTE PTR [ecx],al
  40832d:	add    BYTE PTR [eax+0x0],dl
  408330:	jb     0x408332
  408332:	outs   dx,DWORD PTR ds:[esi]
  408333:	add    BYTE PTR [eax+eax*1+0x75],ah
  408337:	add    BYTE PTR [ebx+0x0],ah
  40833a:	je     0x40833c
  40833c:	dec    esi
  40833d:	add    BYTE PTR [ecx+0x0],ah
  408340:	ins    DWORD PTR es:[edi],dx
  408341:	add    BYTE PTR [ebp+0x0],ah
  408344:	add    BYTE PTR [eax],al
  408346:	add    BYTE PTR [eax],al
  408348:	inc    ebx
  408349:	add    BYTE PTR [edx+0x0],dh
  40834c:	popa   
  40834d:	add    BYTE PTR [ebx+0x0],dh
  408350:	push   0x75004400
  408355:	add    BYTE PTR [ebp+0x0],ch
  408358:	jo     0x40835a
  40835a:	push   edi
  40835b:	add    BYTE PTR [ecx+0x0],ah
  40835e:	je     0x408360
  408360:	arpl   WORD PTR [eax],ax
  408362:	push   0x72006500
  408367:	add    BYTE PTR [eax],al
  408369:	add    BYTE PTR [eax],al
  40836b:	add    BYTE PTR [eax+eax*1],dh
  40836e:	or     BYTE PTR [eax],al
  408370:	add    DWORD PTR [eax],eax
  408372:	push   eax
  408373:	add    BYTE PTR [edx+0x0],dh
  408376:	outs   dx,DWORD PTR ds:[esi]
  408377:	add    BYTE PTR [eax+eax*1+0x75],ah
  40837b:	add    BYTE PTR [ebx+0x0],ah
  40837e:	je     0x408380
  408380:	push   esi
  408381:	add    BYTE PTR [ebp+0x0],ah
  408384:	jb     0x408386
  408386:	jae    0x408388
  408388:	imul   eax,DWORD PTR [eax],0x6e006f
  40838e:	add    BYTE PTR [eax],al
  408390:	xor    DWORD PTR [eax],eax
  408392:	add    BYTE PTR cs:[eax],dh
  408395:	add    BYTE PTR [esi],ch
  408397:	add    BYTE PTR [eax],dh
  408399:	add    BYTE PTR [esi],ch
  40839b:	add    BYTE PTR [eax],dh
  40839d:	add    BYTE PTR [eax],al
  40839f:	add    BYTE PTR [eax],bh
  4083a1:	add    BYTE PTR [eax],cl
  4083a3:	add    BYTE PTR [ecx],al
  4083a5:	add    BYTE PTR [ecx+0x0],al
  4083a8:	jae    0x4083aa
  4083aa:	jae    0x4083ac
  4083ac:	add    BYTE PTR gs:[ebp+0x0],ch
  4083b0:	bound  eax,QWORD PTR [eax]
  4083b2:	ins    BYTE PTR es:[edi],dx
  4083b3:	add    BYTE PTR [ecx+0x0],bh
  4083b6:	and    BYTE PTR [eax],al
  4083b8:	push   esi
  4083b9:	add    BYTE PTR [ebp+0x0],ah
  4083bc:	jb     0x4083be
  4083be:	jae    0x4083c0
  4083c0:	imul   eax,DWORD PTR [eax],0x6e006f
  4083c6:	add    BYTE PTR [eax],al
  4083c8:	xor    DWORD PTR [eax],eax
  4083ca:	add    BYTE PTR cs:[eax],dh
  4083cd:	add    BYTE PTR [esi],ch
  4083cf:	add    BYTE PTR [eax],dh
  4083d1:	add    BYTE PTR [esi],ch
  4083d3:	add    BYTE PTR [eax],dh
  4083d5:	add    BYTE PTR [eax],al
  4083d7:	add    bh,ch
  4083d9:	mov    ebx,0x783f3cbf
  4083de:	ins    DWORD PTR es:[edi],dx
  4083df:	ins    BYTE PTR es:[edi],dx
  4083e0:	and    BYTE PTR [esi+0x65],dh
  4083e3:	jb     0x408458
  4083e5:	imul   ebp,DWORD PTR [edi+0x6e],0x2e31223d
  4083ec:	xor    BYTE PTR [edx],ah
  4083ee:	and    BYTE PTR [ebp+0x6e],ah
  4083f1:	arpl   WORD PTR [edi+0x64],bp
  4083f4:	imul   ebp,DWORD PTR [esi+0x67],0x5455223d
  4083fb:	inc    esi
  4083fc:	sub    eax,0x73202238
  408401:	je     0x408464
  408403:	outs   dx,BYTE PTR ds:[esi]
  408404:	fs popa 
  408406:	ins    BYTE PTR es:[edi],dx
  408407:	outs   dx,DWORD PTR ds:[esi]
  408408:	outs   dx,BYTE PTR ds:[esi]
  408409:	gs cmp eax,0x73657922
  40840f:	and    bh,BYTE PTR [edi]
  408411:	ds or  eax,0x73613c0a
  408417:	jae    0x40847e
  408419:	ins    DWORD PTR es:[edi],dx
  40841a:	bound  ebp,QWORD PTR [ecx+edi*2+0x20]
  40841e:	js     0x40848d
  408420:	ins    BYTE PTR es:[edi],dx
  408421:	outs   dx,BYTE PTR ds:[esi]
  408422:	jae    0x408461
  408424:	and    dh,BYTE PTR [ebp+0x72]
  408427:	outs   dx,BYTE PTR ds:[esi]
  408428:	cmp    dh,BYTE PTR [ebx+0x63]
  40842b:	push   0x73616d65
  408430:	sub    eax,0x7263696d
  408435:	outs   dx,DWORD PTR ds:[esi]
  408436:	jae    0x4084a7
  408438:	data16 je 0x408468
  40843b:	arpl   WORD PTR [edi+0x6d],bp
  40843e:	cmp    ah,BYTE PTR [ecx+0x73]
  408441:	ins    DWORD PTR es:[edi],dx
  408442:	cs jbe 0x408476
  408445:	and    ah,BYTE PTR [eax]
  408447:	ins    DWORD PTR es:[edi],dx
  408448:	popa   
  408449:	outs   dx,BYTE PTR ds:[esi]
  40844a:	imul   esp,DWORD PTR [esi+0x65],0x65567473
  408451:	jb     0x4084c6
  408453:	imul   ebp,DWORD PTR [edi+0x6e],0x2e31223d
  40845a:	xor    BYTE PTR [edx],ah
  40845c:	ds or  eax,0x3c20200a
  408462:	popa   
  408463:	jae    0x4084d8
  408465:	gs ins DWORD PTR es:[edi],dx
  408467:	bound  ebp,QWORD PTR [ecx+edi*2+0x49]
  40846b:	fs outs dx,BYTE PTR gs:[esi]
  40846e:	je     0x4084d9
  408470:	je     0x4084eb
  408472:	and    BYTE PTR [esi+0x65],dh
  408475:	jb     0x4084ea
  408477:	imul   ebp,DWORD PTR [edi+0x6e],0x2e31223d
  40847e:	xor    BYTE PTR [esi],ch
  408480:	xor    BYTE PTR [esi],ch
  408482:	xor    BYTE PTR [edx],ah
  408484:	and    BYTE PTR [esi+0x61],ch
  408487:	ins    DWORD PTR es:[edi],dx
  408488:	gs cmp eax,0x41794d22
  40848e:	jo     0x408500
  408490:	ins    BYTE PTR es:[edi],dx
  408491:	imul   esp,DWORD PTR [ebx+0x61],0x6e6f6974
  408498:	cs popa 
  40849a:	jo     0x40850c
  40849c:	and    ch,BYTE PTR [edi]
  40849e:	ds or  eax,0x3c20200a
  4084a4:	je     0x408518
  4084a6:	jne    0x40851b
  4084a8:	je     0x4084f3
  4084aa:	outs   dx,BYTE PTR ds:[esi]
  4084ab:	outs   dx,WORD PTR ds:[esi]
  4084ad:	and    BYTE PTR [eax+0x6d],bh
  4084b0:	ins    BYTE PTR es:[edi],dx
  4084b1:	outs   dx,BYTE PTR ds:[esi]
  4084b2:	jae    0x4084f1
  4084b4:	and    dh,BYTE PTR [ebp+0x72]
  4084b7:	outs   dx,BYTE PTR ds:[esi]
  4084b8:	cmp    dh,BYTE PTR [ebx+0x63]
  4084bb:	push   0x73616d65
  4084c0:	sub    eax,0x7263696d
  4084c5:	outs   dx,DWORD PTR ds:[esi]
  4084c6:	jae    0x408537
  4084c8:	data16 je 0x4084f8
  4084cb:	arpl   WORD PTR [edi+0x6d],bp
  4084ce:	cmp    ah,BYTE PTR [ecx+0x73]
  4084d1:	ins    DWORD PTR es:[edi],dx
  4084d2:	cs jbe 0x408507
  4084d5:	and    bh,BYTE PTR [esi]
  4084d7:	or     eax,0x2020200a
  4084dc:	and    BYTE PTR [ebx+esi*2],bh
  4084df:	arpl   WORD PTR gs:[ebp+0x72],si
  4084e3:	imul   esi,DWORD PTR [ecx+edi*2+0x3e],0x20200a0d
  4084eb:	and    BYTE PTR [eax],ah
  4084ed:	and    BYTE PTR [eax],ah
  4084ef:	cmp    al,0x72
  4084f1:	gs jno 0x408569
  4084f4:	gs jae 0x40856b
  4084f7:	gs fs push eax
  4084fa:	jb     0x408565
  4084fc:	jbe    0x408567
  4084fe:	ins    BYTE PTR es:[edi],dx
  4084ff:	gs addr16 gs jae 0x408524
  408504:	js     0x408573
  408506:	ins    BYTE PTR es:[edi],dx
  408507:	outs   dx,BYTE PTR ds:[esi]
  408508:	jae    0x408547
  40850a:	and    dh,BYTE PTR [ebp+0x72]
  40850d:	outs   dx,BYTE PTR ds:[esi]
  40850e:	cmp    dh,BYTE PTR [ebx+0x63]
  408511:	push   0x73616d65
  408516:	sub    eax,0x7263696d
  40851b:	outs   dx,DWORD PTR ds:[esi]
  40851c:	jae    0x40858d
  40851e:	data16 je 0x40854e
  408521:	arpl   WORD PTR [edi+0x6d],bp
  408524:	cmp    ah,BYTE PTR [ecx+0x73]
  408527:	ins    DWORD PTR es:[edi],dx
  408528:	cs jbe 0x40855e
  40852b:	and    bh,BYTE PTR [esi]
  40852d:	or     eax,0x2020200a
  408532:	and    BYTE PTR [eax],ah
  408534:	and    BYTE PTR [eax],ah
  408536:	and    BYTE PTR [edx+esi*2],bh
  408539:	gs jno 0x4085b1
  40853c:	gs jae 0x4085b3
  40853f:	gs fs inc ebp
  408542:	js     0x4085a9
  408544:	arpl   WORD PTR [ebp+0x74],si
  408547:	imul   ebp,DWORD PTR [edi+0x6e],0x6576654c
  40854e:	ins    BYTE PTR es:[edi],dx
  40854f:	and    BYTE PTR [ebp+eiz*2+0x76],ch
  408553:	gs ins BYTE PTR es:[edi],dx
  408555:	cmp    eax,0x49736122
  40855a:	outs   dx,BYTE PTR ds:[esi]
  40855b:	jbe    0x4085cc
  40855d:	imul   esp,DWORD PTR [ebp+0x72],0x22
  408561:	and    BYTE PTR [ebp+0x69],dh
  408564:	inc    ecx
  408565:	arpl   WORD PTR [ebx+0x65],sp
  408568:	jae    0x4085dd
  40856a:	cmp    eax,0x6c616622
  40856f:	jae    0x4085d6
  408571:	and    ch,BYTE PTR [edi]
  408573:	ds or  eax,0x2020200a
  408579:	and    BYTE PTR [eax],ah
  40857b:	and    BYTE PTR [edi+ebp*1],bh
  40857e:	jb     0x4085e5
  408580:	jno    0x4085f7
  408582:	gs jae 0x4085f9
  408585:	gs fs push eax
  408588:	jb     0x4085f3
  40858a:	jbe    0x4085f5
  40858c:	ins    BYTE PTR es:[edi],dx
  40858d:	gs addr16 gs jae 0x4085d0
  408592:	or     eax,0x2020200a
  408597:	and    BYTE PTR [edi+ebp*1],bh
  40859a:	jae    0x408601
  40859c:	arpl   WORD PTR [ebp+0x72],si
  40859f:	imul   esi,DWORD PTR [ecx+edi*2+0x3e],0x20200a0d
  4085a7:	cmp    al,0x2f
  4085a9:	je     0x40861d
  4085ab:	jne    0x408620
  4085ad:	je     0x4085f8
  4085af:	outs   dx,BYTE PTR ds:[esi]
  4085b0:	outs   dx,WORD PTR ds:[esi]
  4085b2:	ds or  eax,0x612f3c0a
  4085b8:	jae    0x40862d
  4085ba:	gs ins DWORD PTR es:[edi],dx
  4085bc:	bound  ebp,QWORD PTR [ecx+edi*2+0x3e]
  4085c0:	or     eax,0xa
  4085c5:	add    BYTE PTR [eax],al
	...

Disassembly of section .reloc:

0040a000 <.reloc>:
  40a000:	add    BYTE PTR [eax+0x0],ah
  40a003:	add    BYTE PTR [eax+eax*1],cl
  40a006:	add    BYTE PTR [eax],al
  40a008:	nop
  40a009:	xor    eax,DWORD PTR [eax]
	...
