
b4853f76dfe066a5b2aeb3166bac4d6ff1548e9119205f65ac6cab6d165f9850.exe:     file format pei-i386


Disassembly of section .text:

00401000 <.text>:
	...
  401010:	adc    BYTE PTR [ebx],bl
  401012:	add    BYTE PTR [eax],al
  401014:	adc    BYTE PTR ds:0x27200000,bl
  40101a:	add    BYTE PTR [eax],al
  40101c:	lock xor DWORD PTR [eax],eax
  40101f:	add    BYTE PTR [eax-0x4fffffc4],al
  401025:	cmp    al,0x0
  401027:	add    al,al
  401029:	cmp    al,0x0
  40102b:	add    al,dl
  40102d:	cmp    al,0x0
  40102f:	add    al,ah
  401031:	cmp    al,0x0
  401033:	add    BYTE PTR [eax],al
  401035:	cmp    eax,0x3d100000
  40103a:	add    BYTE PTR [eax],al
  40103c:	add    BYTE PTR [edi+0x0],al
  40103f:	add    al,dl
  401041:	inc    edi
  401042:	add    BYTE PTR [eax],al
  401044:	inc    eax
  401045:	dec    eax
  401046:	add    BYTE PTR [eax],al
  401048:	mov    al,ds:0x48
  40104d:	add    BYTE PTR [eax],al
  40104f:	add    BYTE PTR [ebx+0x76],dl
  401052:	arpl   WORD PTR [eax+0x6f],bp
  401055:	jae    0x4010cb
  401057:	push   eax
  401058:	jne    0x4010cd
  40105a:	push   0x76726553
  40105f:	imul   esp,DWORD PTR [ebx+0x65],0x626f6c47
  401066:	popa   
  401067:	ins    BYTE PTR es:[edi],dx
  401068:	jae    0x40106a
  40106a:	add    BYTE PTR [eax],al
  40106c:	push   ebx
  40106d:	add    BYTE PTR [ebp+0x0],ah
  401070:	jb     0x401072
  401072:	jbe    0x401074
  401074:	imul   eax,DWORD PTR [eax],0x650063
  40107a:	dec    ebp
  40107b:	add    BYTE PTR [ecx+0x0],ah
  40107e:	imul   eax,DWORD PTR [eax],0x6e
  401084:	push   ebx
  401085:	add    BYTE PTR [ebp+0x0],ah
  401088:	jb     0x40108a
  40108a:	jbe    0x40108c
  40108c:	imul   eax,DWORD PTR [eax],0x650063
  401092:	dec    ebp
  401093:	add    BYTE PTR [ecx+0x0],ah
  401096:	outs   dx,BYTE PTR ds:[esi]
  401097:	add    BYTE PTR [ecx+0x0],ch
  40109a:	data16 add BYTE PTR [ebp+0x0],ah
  40109e:	jae    0x4010a0
  4010a0:	je     0x4010a2
  4010a2:	add    BYTE PTR [eax],al
  4010a4:	push   ebx
  4010a5:	add    BYTE PTR [ebp+0x0],ah
  4010a8:	jb     0x4010aa
  4010aa:	jbe    0x4010ac
  4010ac:	imul   eax,DWORD PTR [eax],0x650063
  4010b2:	inc    esp
  4010b3:	add    BYTE PTR [eax+eax*1+0x6c],ch
  4010b7:	add    BYTE PTR [eax],al
  4010b9:	add    BYTE PTR [eax],al
  4010bb:	add    BYTE PTR [eax+0x0],dl
  4010be:	popa   
  4010bf:	add    BYTE PTR [edx+0x0],dh
  4010c2:	popa   
  4010c3:	add    BYTE PTR [ebp+0x0],ch
  4010c6:	add    BYTE PTR gs:[eax+eax*1+0x65],dh
  4010cb:	add    BYTE PTR [edx+0x0],dh
  4010ce:	jae    0x4010d0
	...
  4010d8:	push   ebx
  4010d9:	add    BYTE PTR [ecx+0x0],bh
  4010dc:	jae    0x4010de
  4010de:	je     0x4010e0
  4010e0:	add    BYTE PTR gs:[ebp+0x0],ch
  4010e4:	pop    esp
  4010e5:	add    BYTE PTR [ebx+0x0],al
  4010e8:	jne    0x4010ea
  4010ea:	jb     0x4010ec
  4010ec:	jb     0x4010ee
  4010ee:	add    BYTE PTR gs:[esi+0x0],ch
  4010f2:	je     0x4010f4
  4010f4:	inc    ebx
  4010f5:	add    BYTE PTR [edi+0x0],ch
  4010f8:	outs   dx,BYTE PTR ds:[esi]
  4010f9:	add    BYTE PTR [eax+eax*1+0x72],dh
  4010fd:	add    BYTE PTR [edi+0x0],ch
  401100:	ins    BYTE PTR es:[edi],dx
  401101:	add    BYTE PTR [ebx+0x0],dl
  401104:	add    BYTE PTR gs:[eax+eax*1+0x5c],dh
  401109:	add    BYTE PTR [ebx+0x0],dl
  40110c:	add    BYTE PTR gs:[edx+0x0],dh
  401110:	jbe    0x401112
  401112:	imul   eax,DWORD PTR [eax],0x650063
  401118:	jae    0x40111a
  40111a:	add    BYTE PTR [eax],al
  40111c:	add    BYTE PTR [eax],al
  40111e:	add    BYTE PTR [eax],al
  401120:	add    BYTE PTR gs:[eax],al
  401123:	adc    BYTE PTR [ecx+eax*1],al
  401126:	add    DWORD PTR [eax],eax
  401128:	add    BYTE PTR [eax],al
  40112a:	add    BYTE PTR [eax],al
  40112c:	add    BYTE PTR [eax],al
  40112e:	add    BYTE PTR [eax+0x10000066],al
  401134:	add    al,0x2
  401136:	add    DWORD PTR [eax],eax
  401138:	add    BYTE PTR [eax],al
  40113a:	add    BYTE PTR [eax],al
  40113c:	add    BYTE PTR [eax],al
  40113e:	add    BYTE PTR [eax+0x650053],al
  401144:	jb     0x401146
  401146:	jbe    0x401148
  401148:	imul   eax,DWORD PTR [eax],0x650063
  40114e:	inc    esp
  40114f:	add    BYTE PTR [eax+eax*1+0x6c],ch
  401153:	add    BYTE PTR [ebp+0x0],dl
  401156:	outs   dx,BYTE PTR ds:[esi]
  401157:	add    BYTE PTR [eax+eax*1+0x6f],ch
  40115b:	add    BYTE PTR [ecx+0x0],ah
  40115e:	add    BYTE PTR fs:[edi+0x0],cl
  401162:	outs   dx,BYTE PTR ds:[esi]
  401163:	add    BYTE PTR [ebx+0x0],dl
  401166:	je     0x401168
  401168:	outs   dx,DWORD PTR ds:[esi]
  401169:	add    BYTE PTR [eax+0x0],dh
  40116c:	add    BYTE PTR [eax],al
  40116e:	add    BYTE PTR [eax],al
  401170:	push   ebx
  401171:	gs jb  0x4011ea
  401174:	imul   esp,DWORD PTR [ebx+0x65],0x6e69614d
  40117b:	add    BYTE PTR [edi+0x106184c],dl
  401181:	push   edx
  401182:	push   cs
  401183:	dec    eax
  401184:	xchg   edx,eax
  401185:	scas   eax,DWORD PTR es:[edi]
  401186:	cmp    dh,BYTE PTR [esi]
  401188:	lds    esi,FWORD PTR es:[ecx+0x40]
  40118f:	add    BYTE PTR [ebx+0x0],dl
  401192:	outs   dx,DWORD PTR ds:[esi]
  401193:	add    BYTE PTR [esi+0x0],ah
  401196:	je     0x401198
  401198:	ja     0x40119a
  40119a:	popa   
  40119b:	add    BYTE PTR [edx+0x0],dh
  40119e:	add    BYTE PTR gs:[eax+eax*1+0x4d],bl
  4011a3:	add    BYTE PTR [ecx+0x0],ch
  4011a6:	arpl   WORD PTR [eax],ax
  4011a8:	jb     0x4011aa
  4011aa:	outs   dx,DWORD PTR ds:[esi]
  4011ab:	add    BYTE PTR [ebx+0x0],dh
  4011ae:	outs   dx,DWORD PTR ds:[esi]
  4011af:	add    BYTE PTR [esi+0x0],ah
  4011b2:	je     0x4011b4
  4011b4:	pop    esp
  4011b5:	add    BYTE PTR [edi+0x0],dl
  4011b8:	imul   eax,DWORD PTR [eax],0x64006e
  4011be:	outs   dx,DWORD PTR ds:[esi]
  4011bf:	add    BYTE PTR [edi+0x0],dh
  4011c2:	jae    0x4011c4
  4011c4:	and    BYTE PTR [eax],al
  4011c6:	dec    esi
  4011c7:	add    BYTE PTR [eax+eax*1+0x5c],dl
  4011cb:	add    BYTE PTR [ebx+0x0],al
  4011ce:	jne    0x4011d0
  4011d0:	jb     0x4011d2
  4011d2:	jb     0x4011d4
  4011d4:	add    BYTE PTR gs:[esi+0x0],ch
  4011d8:	je     0x4011da
  4011da:	push   esi
  4011db:	add    BYTE PTR [ebp+0x0],ah
  4011de:	jb     0x4011e0
  4011e0:	jae    0x4011e2
  4011e2:	imul   eax,DWORD PTR [eax],0x6e006f
  4011e8:	pop    esp
  4011e9:	add    BYTE PTR [ebx+0x0],dl
  4011ec:	jbe    0x4011ee
  4011ee:	arpl   WORD PTR [eax],ax
  4011f0:	push   0x73006f00
  4011f5:	add    BYTE PTR [eax+eax*1+0x0],dh
  4011f9:	add    BYTE PTR [eax],al
  4011fb:	add    BYTE PTR [eax],al
  4011fd:	add    BYTE PTR [eax],al
  4011ff:	add    BYTE PTR [ebx+0x0],dl
  401202:	outs   dx,DWORD PTR ds:[esi]
  401203:	add    BYTE PTR [esi+0x0],ah
  401206:	je     0x401208
  401208:	ja     0x40120a
  40120a:	popa   
  40120b:	add    BYTE PTR [edx+0x0],dh
  40120e:	add    BYTE PTR gs:[eax+eax*1+0x4d],bl
  401213:	add    BYTE PTR [ecx+0x0],ch
  401216:	arpl   WORD PTR [eax],ax
  401218:	jb     0x40121a
  40121a:	outs   dx,DWORD PTR ds:[esi]
  40121b:	add    BYTE PTR [ebx+0x0],dh
  40121e:	outs   dx,DWORD PTR ds:[esi]
  40121f:	add    BYTE PTR [esi+0x0],ah
  401222:	je     0x401224
  401224:	pop    esp
  401225:	add    BYTE PTR [edi+0x0],dl
  401228:	imul   eax,DWORD PTR [eax],0x64006e
  40122e:	outs   dx,DWORD PTR ds:[esi]
  40122f:	add    BYTE PTR [edi+0x0],dh
  401232:	jae    0x401234
  401234:	pop    esp
  401235:	add    BYTE PTR [ebx+0x0],al
  401238:	jne    0x40123a
  40123a:	jb     0x40123c
  40123c:	jb     0x40123e
  40123e:	add    BYTE PTR gs:[esi+0x0],ch
  401242:	je     0x401244
  401244:	push   esi
  401245:	add    BYTE PTR [ebp+0x0],ah
  401248:	jb     0x40124a
  40124a:	jae    0x40124c
  40124c:	imul   eax,DWORD PTR [eax],0x6e006f
  401252:	pop    esp
  401253:	add    BYTE PTR [eax+eax*1+0x69],al
  401257:	add    BYTE PTR [ecx+0x0],ah
  40125a:	add    BYTE PTR [bp+0x0],ch
  40125e:	outs   dx,DWORD PTR ds:[esi]
  40125f:	add    BYTE PTR [ebx+0x0],dh
  401262:	je     0x401264
  401264:	imul   eax,DWORD PTR [eax],0x730063
  40126a:	pop    esp
  40126b:	add    BYTE PTR [eax+0x0],dl
  40126e:	add    BYTE PTR gs:[edx+0x0],dh
  401272:	data16 add BYTE PTR [eax+eax*1+0x72],dl
  401277:	add    BYTE PTR [ecx+0x0],ah
  40127a:	arpl   WORD PTR [eax],ax
  40127c:	imul   eax,DWORD PTR [eax],0x5c
  40127f:	add    BYTE PTR [eax+eax*1+0x72],dl
  401283:	add    BYTE PTR [ecx+0x0],ah
  401286:	arpl   WORD PTR [eax],ax
  401288:	add    BYTE PTR gs:[eax+0x0],dl
  40128c:	jb     0x40128e
  40128e:	outs   dx,DWORD PTR ds:[esi]
  40128f:	add    BYTE PTR [esi+0x0],ah
  401292:	imul   eax,DWORD PTR [eax],0x65006c
  401298:	add    BYTE PTR [eax],al
  40129a:	add    BYTE PTR [eax],al
  40129c:	dec    esi
  40129d:	add    BYTE PTR [edi+0x0],ch
  4012a0:	inc    edi
  4012a1:	add    BYTE PTR [ebp+0x0],dh
  4012a4:	imul   eax,DWORD PTR [eax],0x630041
  4012aa:	arpl   WORD PTR [eax],ax
  4012ac:	add    BYTE PTR gs:[ebx+0x0],dh
  4012b0:	jae    0x4012b2
  4012b2:	add    BYTE PTR [eax],al
  4012b4:	push   ebx
  4012b5:	add    BYTE PTR [ecx+0x0],bh
  4012b8:	jae    0x4012ba
  4012ba:	je     0x4012bc
  4012bc:	add    BYTE PTR gs:[ebp+0x0],ch
  4012c0:	inc    ebx
  4012c1:	add    BYTE PTR [edx+0x0],dh
  4012c4:	imul   eax,DWORD PTR [eax],0x690074
  4012ca:	arpl   WORD PTR [eax],ax
  4012cc:	popa   
  4012cd:	add    BYTE PTR [eax+eax*1+0x0],ch
  4012d1:	add    BYTE PTR [eax],al
  4012d3:	add    BYTE PTR [edx+0x0],dl
  4012d6:	jo     0x4012d8
  4012d8:	arpl   WORD PTR [eax],ax
  4012da:	inc    ebp
  4012db:	add    BYTE PTR [eax+0x0],bh
  4012de:	arpl   WORD PTR [eax],ax
  4012e0:	add    BYTE PTR gs:[eax+0x0],dh
  4012e4:	je     0x4012e6
  4012e6:	imul   eax,DWORD PTR [eax],0x6e006f
  4012ec:	inc    esi
  4012ed:	add    BYTE PTR [ecx+0x0],ch
  4012f0:	ins    BYTE PTR es:[edi],dx
  4012f1:	add    BYTE PTR [eax+eax*1+0x65],dh
  4012f5:	add    BYTE PTR [edx+0x0],dh
  4012f8:	dec    ebp
  4012f9:	add    BYTE PTR [edi+0x0],ch
  4012fc:	add    BYTE PTR fs:[ebp+0x0],ah
  401300:	add    BYTE PTR [eax],al
  401302:	add    BYTE PTR [eax],al
  401304:	inc    esp
  401305:	add    BYTE PTR [ebp+0x0],ah
  401308:	data16 add BYTE PTR [ecx+0x0],ah
  40130c:	jne    0x40130e
  40130e:	ins    BYTE PTR es:[edi],dx
  40130f:	add    BYTE PTR [eax+eax*1+0x52],dh
  401313:	add    BYTE PTR [eax+0x0],dh
  401316:	arpl   WORD PTR [eax],ax
  401318:	push   ebx
  401319:	add    BYTE PTR [eax+eax*1+0x61],dh
  40131d:	add    BYTE PTR [ebx+0x0],ah
  401320:	imul   eax,DWORD PTR [eax],0x53
  401323:	add    BYTE PTR [ecx+0x0],ch
  401326:	jp     0x401328
  401328:	add    BYTE PTR gs:[eax],al
  40132b:	add    BYTE PTR [eax],al
  40132d:	add    BYTE PTR [eax],al
  40132f:	add    BYTE PTR [ebx+0x0],al
  401332:	outs   dx,DWORD PTR ds:[esi]
  401333:	add    BYTE PTR [ecx+0x0],cl
  401336:	outs   dx,BYTE PTR ds:[esi]
  401337:	add    BYTE PTR [ecx+0x0],ch
  40133a:	je     0x40133c
  40133c:	imul   eax,DWORD PTR [eax],0x6c0061
  401342:	imul   eax,DWORD PTR [eax],0x65007a
  401348:	push   ebx
  401349:	add    BYTE PTR [ebp+0x0],ah
  40134c:	arpl   WORD PTR [eax],ax
  40134e:	jne    0x401350
  401350:	jb     0x401352
  401352:	imul   eax,DWORD PTR [eax],0x790074
  401358:	inc    ecx
  401359:	add    BYTE PTR [eax+eax*1+0x6c],ch
  40135d:	add    BYTE PTR [edi+0x0],ch
  401360:	ja     0x401362
  401362:	dec    ecx
  401363:	add    BYTE PTR [esi+0x0],ch
  401366:	je     0x401368
  401368:	add    BYTE PTR gs:[edx+0x0],dh
  40136c:	popa   
  40136d:	add    BYTE PTR [ebx+0x0],ah
  401370:	je     0x401372
  401372:	imul   eax,DWORD PTR [eax],0x650076
  401378:	push   ebp
  401379:	add    BYTE PTR [ebx+0x0],dh
  40137c:	add    BYTE PTR gs:[edx+0x0],dh
  401380:	jae    0x401382
  401382:	add    BYTE PTR [eax],al
  401384:	add    BYTE PTR [eax],al
  401386:	add    BYTE PTR [eax],al
  401388:	inc    ebx
  401389:	add    BYTE PTR [edi+0x0],ch
  40138c:	dec    ecx
  40138d:	add    BYTE PTR [esi+0x0],ch
  401390:	imul   eax,DWORD PTR [eax],0x690074
  401396:	popa   
  401397:	add    BYTE PTR [eax+eax*1+0x69],ch
  40139b:	add    BYTE PTR [edx+0x0],bh
  40139e:	add    BYTE PTR gs:[ebx+0x0],dl
  4013a2:	add    BYTE PTR gs:[ebx+0x0],ah
  4013a6:	jne    0x4013a8
  4013a8:	jb     0x4013aa
  4013aa:	imul   eax,DWORD PTR [eax],0x790074
  4013b0:	inc    ecx
  4013b1:	add    BYTE PTR [eax+eax*1+0x6c],ch
  4013b5:	add    BYTE PTR [edi+0x0],ch
  4013b8:	ja     0x4013ba
  4013ba:	dec    esp
  4013bb:	add    BYTE PTR [edi+0x0],ch
  4013be:	ja     0x4013c0
  4013c0:	inc    edx
  4013c1:	add    BYTE PTR [edi+0x0],ch
  4013c4:	js     0x4013c6
  4013c6:	add    BYTE PTR [eax],al
  4013c8:	inc    ebx
  4013c9:	add    BYTE PTR [edi+0x0],ch
  4013cc:	dec    ecx
  4013cd:	add    BYTE PTR [esi+0x0],ch
  4013d0:	imul   eax,DWORD PTR [eax],0x690074
  4013d6:	popa   
  4013d7:	add    BYTE PTR [eax+eax*1+0x69],ch
  4013db:	add    BYTE PTR [edx+0x0],bh
  4013de:	add    BYTE PTR gs:[ebx+0x0],dl
  4013e2:	add    BYTE PTR gs:[ebx+0x0],ah
  4013e6:	jne    0x4013e8
  4013e8:	jb     0x4013ea
  4013ea:	imul   eax,DWORD PTR [eax],0x790074
  4013f0:	push   eax
  4013f1:	add    BYTE PTR [ecx+0x0],ah
  4013f4:	jb     0x4013f6
  4013f6:	popa   
  4013f7:	add    BYTE PTR [ebp+0x0],ch
  4013fa:	add    BYTE PTR [eax],al
  4013fc:	inc    ebx
  4013fd:	add    BYTE PTR [edi+0x0],ch
  401400:	dec    ecx
  401401:	add    BYTE PTR [esi+0x0],ch
  401404:	imul   eax,DWORD PTR [eax],0x690074
  40140a:	popa   
  40140b:	add    BYTE PTR [eax+eax*1+0x69],ch
  40140f:	add    BYTE PTR [edx+0x0],bh
  401412:	add    BYTE PTR gs:[ebx+0x0],dl
  401416:	add    BYTE PTR gs:[ebx+0x0],ah
  40141a:	jne    0x40141c
  40141c:	jb     0x40141e
  40141e:	imul   eax,DWORD PTR [eax],0x790074
  401424:	inc    ecx
  401425:	add    BYTE PTR [eax+0x0],dh
  401428:	jo     0x40142a
  40142a:	dec    ecx
  40142b:	add    BYTE PTR [eax+eax*1+0x0],al
  40142f:	add    BYTE PTR [ecx+0x0],al
  401432:	jne    0x401434
  401434:	je     0x401436
  401436:	push   0x6e006500
  40143b:	add    BYTE PTR [eax+eax*1+0x69],dh
  40143f:	add    BYTE PTR [ebx+0x0],ah
  401442:	popa   
  401443:	add    BYTE PTR [eax+eax*1+0x69],dh
  401447:	add    BYTE PTR [edi+0x0],ch
  40144a:	outs   dx,BYTE PTR ds:[esi]
  40144b:	add    BYTE PTR [ebx+0x0],al
  40144e:	popa   
  40144f:	add    BYTE PTR [eax+0x0],dh
  401452:	popa   
  401453:	add    BYTE PTR [edx+0x0],ah
  401456:	imul   eax,DWORD PTR [eax],0x69006c
  40145c:	je     0x40145e
  40145e:	imul   eax,DWORD PTR [eax],0x730065
  401464:	add    BYTE PTR [eax],al
  401466:	add    BYTE PTR [eax],al
  401468:	dec    ecx
  401469:	add    BYTE PTR [ebp+0x0],ch
  40146c:	jo     0x40146e
  40146e:	add    BYTE PTR gs:[edx+0x0],dh
  401472:	jae    0x401474
  401474:	outs   dx,DWORD PTR ds:[esi]
  401475:	add    BYTE PTR [esi+0x0],ch
  401478:	popa   
  401479:	add    BYTE PTR [eax+eax*1+0x69],dh
  40147d:	add    BYTE PTR [edi+0x0],ch
  401480:	outs   dx,BYTE PTR ds:[esi]
  401481:	add    BYTE PTR [eax+eax*1+0x65],cl
  401485:	add    BYTE PTR [esi+0x0],dh
  401488:	add    BYTE PTR gs:[eax+eax*1+0x0],ch
  40148d:	add    BYTE PTR [eax],al
  40148f:	add    BYTE PTR [ecx+0x0],al
  401492:	jne    0x401494
  401494:	je     0x401496
  401496:	push   0x6e006500
  40149b:	add    BYTE PTR [eax+eax*1+0x69],dh
  40149f:	add    BYTE PTR [ebx+0x0],ah
  4014a2:	popa   
  4014a3:	add    BYTE PTR [eax+eax*1+0x69],dh
  4014a7:	add    BYTE PTR [edi+0x0],ch
  4014aa:	outs   dx,BYTE PTR ds:[esi]
  4014ab:	add    BYTE PTR [eax+eax*1+0x65],cl
  4014af:	add    BYTE PTR [esi+0x0],dh
  4014b2:	add    BYTE PTR gs:[eax+eax*1+0x0],ch
  4014b7:	add    BYTE PTR [ebx+0x3],cl
  4014ba:	add    BYTE PTR [eax],al
  4014bc:	add    BYTE PTR [eax],al
  4014be:	add    BYTE PTR [eax],al
  4014c0:	rol    BYTE PTR [eax],0x0
  4014c3:	add    BYTE PTR [eax],al
  4014c5:	add    BYTE PTR [eax],al
  4014c7:	inc    esi
  4014c8:	pop    ebx
  4014c9:	add    DWORD PTR [eax],eax
  4014cb:	add    BYTE PTR [eax],al
  4014cd:	add    BYTE PTR [eax],al
  4014cf:	add    al,al
  4014d1:	add    BYTE PTR [eax],al
  4014d3:	add    BYTE PTR [eax],al
  4014d5:	add    BYTE PTR [eax],al
  4014d7:	inc    esi
  4014d8:	add    DWORD PTR [ecx],eax
  4014da:	add    BYTE PTR [eax],al
  4014dc:	add    BYTE PTR [eax],al
  4014de:	add    BYTE PTR ds:0xb,al
  4014e4:	add    DWORD PTR [edx],eax
  4014e6:	add    BYTE PTR [eax],al
  4014e8:	add    BYTE PTR [eax],al
  4014ea:	add    BYTE PTR [edi],cl
  4014ec:	add    al,BYTE PTR [eax]
  4014ee:	add    BYTE PTR [eax],al
  4014f0:	add    DWORD PTR [eax],eax
  4014f2:	add    BYTE PTR [eax],al
  4014f4:	add    DWORD PTR [ecx],eax
  4014f6:	add    BYTE PTR [eax],al
  4014f8:	add    BYTE PTR [eax],al
  4014fa:	add    BYTE PTR ds:0x4,al
	...
  401510:	or     BYTE PTR [eax+0x40],dl
  401513:	add    BYTE PTR [eax+0x50],bl
  401516:	inc    eax
	...
  40151f:	add    BYTE PTR [ecx+0x70],ah
  401522:	imul   ebp,DWORD PTR ds:0x772d736d,0x632d6e69
  40152c:	outs   dx,DWORD PTR ds:[esi]
  40152d:	jb     0x401594
  40152f:	sub    eax,0x2d6d6f63
  401534:	ins    BYTE PTR es:[edi],dx
  401535:	xor    DWORD PTR ds:0x2e312d31,ebp
  40153b:	fs ins BYTE PTR es:[edi],dx
  40153d:	ins    BYTE PTR es:[edi],dx
  40153e:	add    BYTE PTR [eax],al
  401540:	rcl    BYTE PTR [ebx+0x40],0x0
	...
  401550:	mov    esp,0x4053
  401555:	add    BYTE PTR [eax],al
  401557:	add    BYTE PTR [eax],al
  401559:	add    DWORD PTR [eax],eax
  40155b:	add    BYTE PTR [eax],al
  40155d:	add    BYTE PTR [eax],al
  40155f:	add    BYTE PTR [eax+0x4053],bh
  401565:	add    BYTE PTR [eax],al
  401567:	add    BYTE PTR [eax],al
  401569:	add    al,BYTE PTR [eax]
  40156b:	add    BYTE PTR [eax],al
  40156d:	add    BYTE PTR [eax],al
  40156f:	add    BYTE PTR [ebx+edx*2+0x40],dh
  401576:	add    BYTE PTR [eax],al
  401578:	add    BYTE PTR ds:0x20000,al
  40157e:	add    BYTE PTR [eax],al
  401580:	les    edx,FWORD PTR [ebx+0x40]
  401583:	add    BYTE PTR [eax],al
  401585:	add    BYTE PTR [eax],al
  401587:	add    BYTE PTR [eax],al
  401589:	add    eax,0x40000
  40158e:	add    BYTE PTR [eax],al
  401590:	rcl    BYTE PTR [ebx+0x40],1
  401593:	add    BYTE PTR [eax],al
  401595:	add    BYTE PTR [eax],al
  401597:	add    BYTE PTR [eax],al
  401599:	add    eax,0x60000
  40159e:	add    BYTE PTR [eax],al
  4015a0:	mov    al,0x53
  4015a2:	inc    eax
  4015a3:	add    BYTE PTR [eax],al
  4015a5:	add    BYTE PTR [eax],al
  4015a7:	add    BYTE PTR [eax],al
  4015a9:	add    eax,0x120000
  4015ae:	add    BYTE PTR [eax],al
  4015b0:	lods   al,BYTE PTR ds:[esi]
  4015b1:	push   ebx
  4015b2:	inc    eax
  4015b3:	add    BYTE PTR [eax],al
  4015b5:	add    BYTE PTR [eax],al
  4015b7:	add    BYTE PTR [eax],al
  4015b9:	add    eax,0x130000
  4015be:	add    BYTE PTR [eax],al
  4015c0:	test   al,0x53
  4015c2:	inc    eax
  4015c3:	add    BYTE PTR [eax],al
  4015c5:	add    BYTE PTR [eax],al
  4015c7:	add    BYTE PTR [eax],al
  4015c9:	add    eax,0x140000
  4015ce:	add    BYTE PTR [eax],al
  4015d0:	jl     0x401625
  4015d2:	inc    eax
  4015d3:	add    BYTE PTR [eax],al
  4015d5:	add    BYTE PTR [eax],al
  4015d7:	add    BYTE PTR [eax],al
  4015d9:	add    eax,0x200000
  4015de:	add    BYTE PTR [eax],al
  4015e0:	movs   BYTE PTR es:[edi],BYTE PTR ds:[esi]
  4015e1:	push   ebx
  4015e2:	inc    eax
  4015e3:	add    BYTE PTR [eax],al
  4015e5:	add    BYTE PTR [eax],al
  4015e7:	add    BYTE PTR [eax],al
  4015e9:	add    eax,0xb0000
  4015ee:	add    BYTE PTR [eax],al
  4015f0:	mov    al,ds:0x4053
  4015f5:	add    BYTE PTR [eax],al
  4015f7:	add    BYTE PTR [eax],al
  4015f9:	add    eax,0x70000
  4015fe:	add    BYTE PTR [eax],al
  401600:	aam    0x53
  401602:	inc    eax
  401603:	add    BYTE PTR [eax],al
  401605:	add    BYTE PTR [eax],al
  401607:	add    BYTE PTR [eax],al
  401609:	add    eax,DWORD PTR [eax]
  40160b:	add    BYTE PTR [eax+eax*1],al
  40160e:	add    BYTE PTR [eax],al
  401610:	enter  0x4053,0x0
  401614:	add    BYTE PTR [eax],al
  401616:	add    BYTE PTR [eax],al
  401618:	add    BYTE PTR ds:0x210000,al
  40161e:	add    BYTE PTR [eax],al
  401620:	int3   
  401621:	push   ebx
  401622:	inc    eax
  401623:	add    BYTE PTR [eax],al
  401625:	add    BYTE PTR [eax],al
  401627:	add    BYTE PTR [eax],al
  401629:	add    eax,0x500000
  40162e:	add    BYTE PTR [eax],al
  401630:	add    BYTE PTR [eax],al
  401632:	add    BYTE PTR [eax],al
  401634:	cmp    DWORD PTR [ebx],edi
  401636:	lahf   
  401637:	push   ebp
  401638:	add    BYTE PTR [eax],al
  40163a:	add    BYTE PTR [eax],al
  40163c:	add    al,BYTE PTR [eax]
  40163e:	add    BYTE PTR [eax],al
  401640:	and    al,0x0
  401642:	add    BYTE PTR [eax],al
  401644:	push   0x68000017
  401649:	or     eax,DWORD PTR [eax]
  40164b:	add    BYTE PTR [eax],al
  40164d:	add    BYTE PTR [eax],al
  40164f:	add    BYTE PTR [ecx],bh
  401651:	cmp    ebx,DWORD PTR [edi+0x55]
  401657:	add    BYTE PTR ds:0x54000000,cl
  40165d:	add    eax,DWORD PTR [eax]
  40165f:	add    BYTE PTR [eax-0x5fffffe9],ah
  401665:	or     eax,DWORD PTR [eax]
	...
  401687:	add    BYTE PTR [eax+0x0],ch
	...
  4016c2:	add    BYTE PTR [eax],al
  4016c4:	add    BYTE PTR [eax+0x40],dl
	...
  4016cf:	add    al,al
  4016d1:	popa   
  4016d2:	inc    eax
  4016d3:	add    BYTE PTR [eax],al
  4016d5:	add    BYTE PTR [eax],al
  4016d7:	add    BYTE PTR [eax],dl
  4016d9:	adc    BYTE PTR [eax+0x0],al
  4016dc:	sldt   WORD PTR [eax]
  4016df:	add    BYTE PTR [eax],al
  4016e1:	xor    eax,0x0
	...
  4016ee:	add    BYTE PTR [eax],al
  4016f0:	pushf  
  4016f1:	push   ebx
  4016f2:	inc    eax
  4016f3:	add    BYTE PTR [eax],ah
  4016f5:	add    al,BYTE PTR [eax]
  4016f7:	add    BYTE PTR [eax+0x21004053],bl
  4016fd:	add    al,BYTE PTR [eax]
  4016ff:	add    BYTE PTR [ebx+edx*2+0x2220040],dl
  401706:	add    BYTE PTR [eax],al
  401708:	nop
  401709:	push   ebx
  40170a:	inc    eax
  40170b:	add    BYTE PTR [ebx],ah
  40170d:	add    al,BYTE PTR [eax]
  40170f:	add    BYTE PTR [ebx+edx*2+0x2240040],cl
  401716:	add    BYTE PTR [eax],al
  401718:	mov    BYTE PTR [ebx+0x40],dl
  40171b:	add    BYTE PTR ds:0x84000002,ah
  401721:	push   ebx
  401722:	inc    eax
  401723:	add    BYTE PTR [esi],ah
  401725:	add    al,BYTE PTR [eax]
  401727:	add    BYTE PTR [eax+0x27004053],al
  40172d:	add    al,BYTE PTR [eax]
  40172f:	add    BYTE PTR [ebx+0x0],dh
  401732:	jbe    0x401734
  401734:	arpl   WORD PTR [eax],ax
  401736:	push   0x73006f00
  40173b:	add    BYTE PTR [eax+eax*1+0x0],dh
  40173f:	add    BYTE PTR [eax+eax*1+0x50],bl
  401743:	add    BYTE PTR [ecx+0x0],cl
  401746:	push   eax
  401747:	add    BYTE PTR [ebp+0x0],al
  40174a:	pop    esp
  40174b:	add    BYTE PTR [eax],al
  40174d:	add    BYTE PTR [eax],al
  40174f:	add    BYTE PTR [esi+0x0],ch
  401752:	arpl   WORD PTR [eax],ax
  401754:	popa   
  401755:	add    BYTE PTR [ebx+0x0],ah
  401758:	outs   dx,BYTE PTR ds:[esi]
  401759:	add    BYTE PTR [edi+0x0],bl
  40175c:	outs   dx,BYTE PTR ds:[esi]
  40175d:	add    BYTE PTR [eax+0x0],dh
	...
  401768:	push   edx
  401769:	push   ebx
  40176a:	inc    esp
  40176b:	push   ebx
  40176c:	inc    ebp
  40176d:	jne    0x401754
  40176f:	or     DWORD PTR [ebx],edx
  401771:	sbb    eax,0xdbbe4244
  401776:	fisttp DWORD PTR [ebp+ebp*2+0x1d2d97e]
  40177d:	add    BYTE PTR [eax],al
  40177f:	add    BYTE PTR [ebx+0x76],dh
  401782:	arpl   WORD PTR [eax+0x6f],bp
  401785:	jae    0x4017fb
  401787:	cs jo  0x4017ee
  40178a:	bound  eax,QWORD PTR [eax]
	...
  4017a0:	add    BYTE PTR [ebp+0x47],dl
  4017a3:	push   eax
  4017a4:	add    BYTE PTR [eax],dl
  4017a6:	add    BYTE PTR [eax],al
  4017a8:	add    al,0x0
  4017aa:	add    BYTE PTR [eax],al
  4017ac:	cs inc ebx
  4017ae:	push   edx
  4017af:	push   esp
  4017b0:	and    al,0x58
  4017b2:	inc    ebx
  4017b3:	inc    ecx
  4017b4:	add    BYTE PTR [eax],al
  4017b6:	add    BYTE PTR [eax],al
  4017b8:	add    al,0x10
  4017ba:	add    BYTE PTR [eax],al
  4017bc:	add    al,0x0
  4017be:	add    BYTE PTR [eax],al
  4017c0:	cs inc ebx
  4017c2:	push   edx
  4017c3:	push   esp
  4017c4:	and    al,0x58
  4017c6:	inc    ebx
  4017c7:	pop    edx
  4017c8:	add    BYTE PTR [eax],al
  4017ca:	add    BYTE PTR [eax],al
  4017cc:	or     BYTE PTR [eax],dl
  4017ce:	add    BYTE PTR [eax],al
  4017d0:	add    al,0x0
  4017d2:	add    BYTE PTR [eax],al
  4017d4:	cs inc ebx
  4017d6:	push   edx
  4017d7:	push   esp
  4017d8:	and    al,0x58
  4017da:	dec    ecx
  4017db:	inc    ecx
  4017dc:	add    BYTE PTR [eax],al
  4017de:	add    BYTE PTR [eax],al
  4017e0:	or     al,0x10
  4017e2:	add    BYTE PTR [eax],al
  4017e4:	add    al,0x0
  4017e6:	add    BYTE PTR [eax],al
  4017e8:	cs inc ebx
  4017ea:	push   edx
  4017eb:	push   esp
  4017ec:	and    al,0x58
  4017ee:	dec    ecx
  4017ef:	pop    edx
  4017f0:	add    BYTE PTR [eax],al
  4017f2:	add    BYTE PTR [eax],al
  4017f4:	adc    BYTE PTR [eax],dl
  4017f6:	add    BYTE PTR [eax],al
  4017f8:	cmp    al,0x0
  4017fa:	add    BYTE PTR [eax],al
  4017fc:	imul   sp,WORD PTR cs:[si+0x73],0x7824
  401804:	add    BYTE PTR [eax],al
  401806:	add    BYTE PTR [eax],al
  401808:	push   eax
  401809:	adc    BYTE PTR [eax],al
  40180b:	add    BYTE PTR [eax+0x2e000006],ah
  401811:	jb     0x401877
  401813:	popa   
  401814:	je     0x401877
  401816:	add    BYTE PTR [eax],al
  401818:	lock push ss
  40181a:	add    BYTE PTR [eax],al
  40181c:	inc    eax
  40181d:	add    BYTE PTR [eax],al
  40181f:	add    BYTE PTR [esi],ch
  401821:	jb     0x401887
  401823:	popa   
  401824:	je     0x401887
  401826:	and    al,0x30
  401828:	cmp    DWORD PTR [eax],eax
  40182a:	add    BYTE PTR [eax],al
  40182c:	xor    BYTE PTR [edi],dl
  40182e:	add    BYTE PTR [eax],al
  401830:	cmp    BYTE PTR [eax],al
  401832:	add    BYTE PTR [eax],al
  401834:	cs jb  0x40189b
  401837:	popa   
  401838:	je     0x40189b
  40183a:	and    al,0x7a
  40183c:	jp     0x40183e
  40183e:	add    BYTE PTR [eax],al
  401840:	push   0x8c000017
  401845:	add    eax,DWORD PTR [eax]
  401847:	add    BYTE PTR [esi],ch
  401849:	jb     0x4018af
  40184b:	popa   
  40184c:	je     0x4018af
  40184e:	and    al,0x7a
  401850:	jp     0x4018cc
  401852:	bound  esp,QWORD PTR fs:[edi+0x0]
  401856:	add    BYTE PTR [eax],al
  401858:	add    BYTE PTR [ebx],bl
  40185a:	add    BYTE PTR [eax],al
  40185c:	not    DWORD PTR [edi]
  40185e:	add    BYTE PTR [eax],al
  401860:	cs je  0x4018c8
  401863:	js     0x4018d9
  401865:	and    al,0x6c
  401867:	jo     0x401899
  401869:	xor    DWORD PTR [ebx+0x76],esi
  40186c:	arpl   WORD PTR [eax+0x6f],bp
  40186f:	jae    0x4018e5
  401871:	cs gs js 0x4018da
  401875:	and    DWORD PTR [edx],esi
  401877:	xor    BYTE PTR [edi+0x70],bl
  40187a:	jb     0x4018e5
  40187c:	aaa    
  40187d:	add    BYTE PTR [eax],al
  40187f:	add    BYTE PTR [eax],al
  401881:	xor    eax,DWORD PTR [eax]
  401883:	add    BYTE PTR [eax],cl
  401885:	pop    es
  401886:	add    BYTE PTR [eax],al
  401888:	cs je  0x4018f0
  40188b:	js     0x401901
  40188d:	and    al,0x6c
  40188f:	jo     0x4018c1
  401891:	cmp    BYTE PTR [ebx+0x76],dh
  401894:	arpl   WORD PTR [eax+0x6f],bp
  401897:	jae    0x40190d
  401899:	cs gs js 0x401902
  40189d:	and    DWORD PTR ds:0x6f635f30,esi
  4018a3:	ins    BYTE PTR es:[edi],dx
  4018a4:	bound  ebp,QWORD PTR fs:[edi+0x6f]
  4018a8:	je     0x4018aa
  4018aa:	add    BYTE PTR [eax],al
  4018ac:	adc    BYTE PTR [edx],bh
  4018ae:	add    BYTE PTR [eax],al
  4018b0:	data16 add BYTE PTR [eax],al
  4018b3:	add    BYTE PTR [esi],ch
  4018b5:	je     0x40191c
  4018b7:	js     0x40192d
  4018b9:	and    al,0x6c
  4018bb:	jo     0x4018ed
  4018bd:	cmp    DWORD PTR [ebx+0x76],esi
  4018c0:	arpl   WORD PTR [eax+0x6f],bp
  4018c3:	jae    0x401939
  4018c5:	cs gs js 0x40192e
  4018c9:	and    DWORD PTR ds:0x6f635f30,esi
  4018cf:	ins    BYTE PTR es:[edi],dx
  4018d0:	bound  ebp,QWORD PTR fs:[edi+0x6f]
  4018d4:	je     0x4018d6
  4018d6:	add    BYTE PTR [eax],al
  4018d8:	jbe    0x401914
  4018da:	add    BYTE PTR [eax],al
  4018dc:	mov    eax,DWORD PTR [edx]
  4018de:	add    BYTE PTR [eax],al
  4018e0:	cs je  0x401948
  4018e3:	js     0x401959
  4018e5:	and    al,0x6d
  4018e7:	outs   dx,BYTE PTR ds:[esi]
  4018e8:	add    BYTE PTR [eax],al
  4018ea:	add    BYTE PTR [eax],al
  4018ec:	add    DWORD PTR ds:0x120000,edi
  4018f2:	add    BYTE PTR [eax],al
  4018f4:	cs je  0x40195c
  4018f7:	js     0x40196d
  4018f9:	and    al,0x6e
  4018fb:	jo     0x4018fd
  4018fd:	add    BYTE PTR [eax],al
  4018ff:	add    BYTE PTR [ebx],dl
  401901:	cmp    eax,0x160000
  401906:	add    BYTE PTR [eax],al
  401908:	cs je  0x401970
  40190b:	js     0x401981
  40190d:	and    al,0x7a
  40190f:	jae    0x401911
  401911:	add    BYTE PTR [eax],al
  401913:	add    BYTE PTR [ecx],ch
  401915:	cmp    eax,0x95b0000
  40191a:	add    BYTE PTR [eax],al
  40191c:	cs je  0x401984
  40191f:	js     0x401995
  401921:	and    al,0x7a
  401923:	jns    0x401925
  401925:	add    BYTE PTR [eax],al
  401927:	add    BYTE PTR [esi+eax*2+0x3990000],al
  40192e:	add    BYTE PTR [eax],al
  401930:	cs je  0x401998
  401933:	js     0x4019a9
  401935:	and    al,0x7a
  401937:	jp     0x401939
  401939:	add    BYTE PTR [eax],al
  40193b:	add    BYTE PTR [eax],ah
  40193d:	dec    edx
  40193e:	add    BYTE PTR [eax],al
  401940:	and    BYTE PTR [eax],al
  401942:	add    BYTE PTR [eax],al
  401944:	cs imul esp,DWORD PTR fs:[ecx+eiz*2+0x74],0x3224
  40194e:	add    BYTE PTR [eax],al
  401950:	inc    eax
  401951:	dec    edx
  401952:	add    BYTE PTR [eax],al
  401954:	and    BYTE PTR [eax],al
  401956:	add    BYTE PTR [eax],al
  401958:	cs imul esp,DWORD PTR fs:[ecx+eiz*2+0x74],0x3324
  401962:	add    BYTE PTR [eax],al
  401964:	pusha  
  401965:	dec    edx
  401966:	add    BYTE PTR [eax],al
  401968:	adc    al,0x0
  40196a:	add    BYTE PTR [eax],al
  40196c:	cs imul esp,DWORD PTR fs:[ecx+eiz*2+0x74],0x3424
  401976:	add    BYTE PTR [eax],al
  401978:	je     0x4019c4
  40197a:	add    BYTE PTR [eax],al
  40197c:	push   eax
  40197d:	add    BYTE PTR [eax],al
  40197f:	add    BYTE PTR [esi],ch
  401981:	imul   esp,DWORD PTR fs:[ecx+eiz*2+0x74],0x3624
  40198a:	add    BYTE PTR [eax],al
  40198c:	les    ecx,FWORD PTR [edx+0x0]
  40198f:	add    BYTE PTR [eax+eax*1],dl
  401992:	add    BYTE PTR [eax],al
  401994:	cs imul esp,DWORD PTR fs:[ecx+eiz*2+0x74],0x3724
  40199e:	add    BYTE PTR [eax],al
  4019a0:	add    BYTE PTR [eax+0x0],dl
  4019a3:	add    BYTE PTR [eax],cl
  4019a5:	add    BYTE PTR [eax],al
  4019a7:	add    BYTE PTR [esi],ch
  4019a9:	fs popa 
  4019ab:	je     0x401a0e
  4019ad:	add    BYTE PTR [eax],al
  4019af:	add    BYTE PTR [eax],cl
  4019b1:	push   eax
  4019b2:	add    BYTE PTR [eax],al
  4019b4:	inc    esp
  4019b5:	add    eax,DWORD PTR [eax]
  4019b7:	add    BYTE PTR [esi],ch
  4019b9:	bound  esi,QWORD PTR [ebx+0x73]
  4019bc:	add    BYTE PTR [eax],al
  4019be:	add    BYTE PTR [eax],al
  4019c0:	dec    esp
  4019c1:	push   ebx
  4019c2:	add    BYTE PTR [eax],al
  4019c4:	or     BYTE PTR [eax],al
  4019c6:	add    BYTE PTR [eax],al
  4019c8:	bound  esi,QWORD PTR cs:[ebx+0x73]
  4019cc:	and    al,0x30
  4019ce:	xor    BYTE PTR [eax],al
  4019d0:	push   esp
  4019d1:	push   ebx
  4019d2:	add    BYTE PTR [eax],al
  4019d4:	add    al,0x0
  4019d6:	add    BYTE PTR [eax],al
  4019d8:	bound  esi,QWORD PTR cs:[ebx+0x73]
  4019dc:	and    al,0x30
  4019de:	cmp    DWORD PTR [eax],eax
  4019e0:	pop    eax
  4019e1:	push   ebx
  4019e2:	add    BYTE PTR [eax],al
  4019e4:	or     BYTE PTR [eax],al
  4019e6:	add    BYTE PTR [eax],al
  4019e8:	bound  esi,QWORD PTR cs:[ebx+0x73]
  4019ec:	and    al,0x64
  4019ee:	imul   esi,DWORD PTR [eax],0x30
  4019f1:	add    BYTE PTR [eax],al
  4019f3:	add    BYTE PTR [eax+0x53],ah
  4019f6:	add    BYTE PTR [eax],al
  4019f8:	sbb    BYTE PTR [eax],al
  4019fa:	add    BYTE PTR [eax],al
  4019fc:	bound  esi,QWORD PTR cs:[ebx+0x73]
  401a00:	and    al,0x64
  401a02:	imul   esi,DWORD PTR [eax],0x31
  401a05:	add    BYTE PTR [eax],al
  401a07:	add    BYTE PTR [eax+0x53],bh
  401a0a:	add    BYTE PTR [eax],al
  401a0c:	add    al,0x0
  401a0e:	add    BYTE PTR [eax],al
  401a10:	bound  esi,QWORD PTR cs:[ebx+0x73]
  401a14:	and    al,0x64
  401a16:	imul   esi,DWORD PTR [eax],0x39
  401a19:	add    BYTE PTR [eax],al
  401a1b:	add    BYTE PTR [ebx+edx*2+0x0],bh
  401a1f:	add    BYTE PTR [eax+eax*1],al
  401a22:	add    BYTE PTR [eax],al
  401a24:	bound  esi,QWORD PTR cs:[ebx+0x73]
  401a28:	and    al,0x70
  401a2a:	jb     0x401a5c
  401a2c:	xor    DWORD PTR [eax],eax
  401a2e:	add    BYTE PTR [eax],al
  401a30:	adc    BYTE PTR [ebx+0x0],0x0
  401a34:	pop    eax
  401a35:	add    BYTE PTR [eax],al
  401a37:	add    BYTE PTR [esi],ch
  401a39:	bound  esi,QWORD PTR [ebx+0x73]
  401a3c:	and    al,0x70
  401a3e:	jb     0x401a70
  401a40:	cmp    DWORD PTR [eax],eax
  401a42:	add    BYTE PTR [eax],al
  401a44:	add    BYTE PTR [eax+0x0],ah
  401a47:	add    al,al
  401a49:	add    DWORD PTR [eax],eax
  401a4b:	add    BYTE PTR [esi],ch
  401a4d:	imul   esp,DWORD PTR [ecx+eiz*2+0x74],0x352461
  401a55:	add    BYTE PTR [eax],al
  401a57:	add    al,al
  401a59:	popa   
  401a5a:	add    BYTE PTR [eax],al
  401a5c:	add    al,0x0
  401a5e:	add    BYTE PTR [eax],al
  401a60:	xor    BYTE PTR cs:[eax],dh
  401a63:	arpl   WORD PTR [esi+0x67],sp
  401a66:	add    BYTE PTR [eax],al
  401a68:	les    esp,FWORD PTR [ecx+0x0]
  401a6b:	add    ah,cl
  401a6d:	add    DWORD PTR [eax],eax
  401a6f:	add    BYTE PTR [esi],ch
  401a71:	imul   esp,DWORD PTR [ecx+eiz*2+0x74],0x322461
  401a79:	add    BYTE PTR [eax],al
  401a7b:	add    BYTE PTR [eax+0x14000063],dl
  401a81:	add    BYTE PTR [eax],al
  401a83:	add    BYTE PTR [esi],ch
  401a85:	imul   esp,DWORD PTR [ecx+eiz*2+0x74],0x332461
  401a8d:	add    BYTE PTR [eax],al
  401a8f:	add    BYTE PTR [ebx+eiz*2+0x1c00000],ah
  401a96:	add    BYTE PTR [eax],al
  401a98:	imul   esp,DWORD PTR cs:[ecx+eiz*2+0x74],0x342461
  401aa1:	add    BYTE PTR [eax],al
  401aa3:	add    BYTE PTR [ebp+eiz*2+0x0],ah
  401aa7:	add    BYTE PTR [esi+0x2e00000a],bl
  401aad:	imul   esp,DWORD PTR [ecx+eiz*2+0x74],0x362461
  401ab5:	add    BYTE PTR [eax],al
  401ab7:	add    BYTE PTR [eax],al
  401ab9:	add    BYTE PTR [eax],0x0
  401abc:	adc    al,0x0
  401abe:	add    BYTE PTR [eax],al
  401ac0:	cs imul esp,DWORD PTR fs:[ecx+eiz*2+0x74],0x3524
  401aca:	add    BYTE PTR [eax],al
  401acc:	add    BYTE PTR [eax+0xf00000],dl
  401ad2:	add    BYTE PTR [eax],al
  401ad4:	cs jb  0x401b4a
  401ad7:	jb     0x401b3c
  401ad9:	and    al,0x30
  401adb:	xor    DWORD PTR [eax],eax
  401add:	add    BYTE PTR [eax],al
  401adf:	add    al,dh
  401ae1:	nop
  401ae2:	add    BYTE PTR [eax],al
  401ae4:	and    BYTE PTR [edi],al
  401ae6:	add    BYTE PTR [eax],al
  401ae8:	cs jb  0x401b5e
  401aeb:	jb     0x401b50
  401aed:	and    al,0x30
  401aef:	xor    al,BYTE PTR [eax]
	...
  401b0d:	add    BYTE PTR [eax],al
  401b0f:	add    BYTE PTR [ebx-0x1374aa01],cl
  401b15:	push   ecx
  401b16:	mov    eax,ds:0x405000
  401b1b:	xor    eax,ebp
  401b1d:	mov    DWORD PTR [ebp-0x4],eax
  401b20:	push   esi
  401b21:	push   edi
  401b22:	mov    edi,DWORD PTR [ebp+0x8]
  401b25:	mov    eax,DWORD PTR [edi+0x4]
  401b28:	add    eax,0x18
  401b2b:	push   eax
  401b2c:	call   DWORD PTR ds:0x406128
  401b32:	mov    eax,DWORD PTR [edi+0x4]
  401b35:	mov    esi,DWORD PTR [eax+0x10]
  401b38:	mov    DWORD PTR [eax+0x10],0x0
  401b3f:	mov    eax,DWORD PTR [edi+0x4]
  401b42:	add    eax,0x18
  401b45:	push   eax
  401b46:	call   DWORD PTR ds:0x40612c
  401b4c:	push   DWORD PTR [ebp+0xc]
  401b4f:	mov    ecx,esi
  401b51:	push   DWORD PTR [edi]
  401b53:	call   DWORD PTR ds:0x4061c0
  401b59:	call   esi
  401b5b:	mov    ecx,DWORD PTR [edi+0x4]
  401b5e:	call   0x401b90
  401b63:	push   edi
  401b64:	push   0x0
  401b66:	push   DWORD PTR ds:0x40532c
  401b6c:	call   DWORD PTR ds:0x406078
  401b72:	mov    ecx,DWORD PTR [ebp-0x4]
  401b75:	pop    edi
  401b76:	xor    ecx,ebp
  401b78:	pop    esi
  401b79:	call   0x403a7b
  401b7e:	mov    esp,ebp
  401b80:	pop    ebp
  401b81:	ret    0x8
  401b84:	int3   
  401b85:	int3   
  401b86:	int3   
  401b87:	int3   
  401b88:	int3   
  401b89:	int3   
  401b8a:	int3   
  401b8b:	int3   
  401b8c:	int3   
  401b8d:	int3   
  401b8e:	int3   
  401b8f:	int3   
  401b90:	mov    edi,edi
  401b92:	push   ebp
  401b93:	mov    ebp,esp
  401b95:	sub    esp,0x14
  401b98:	push   esi
  401b99:	mov    esi,ecx
  401b9b:	mov    DWORD PTR [ebp-0x10],0x4
  401ba2:	push   edi
  401ba3:	mov    DWORD PTR [ebp-0x8],0x0
  401baa:	mov    DWORD PTR [ebp-0x4],0x0
  401bb1:	lea    edi,[esi+0x18]
  401bb4:	push   edi
  401bb5:	call   DWORD PTR ds:0x406128
  401bbb:	mov    ecx,DWORD PTR [esi]
  401bbd:	lea    edx,[ebp-0x4]
  401bc0:	dec    DWORD PTR [esi+0xc]
  401bc3:	call   0x401c60
  401bc8:	test   eax,eax
  401bca:	jne    0x401c35
  401bcc:	lea    eax,[ebp-0x10]
  401bcf:	push   eax
  401bd0:	lea    eax,[ebp-0x8]
  401bd3:	push   eax
  401bd4:	lea    eax,[ebp-0x14]
  401bd7:	push   eax
  401bd8:	push   0x0
  401bda:	push   0x401140
  401bdf:	push   DWORD PTR [ebp-0x4]
  401be2:	call   DWORD PTR ds:0x4060e0
  401be8:	test   eax,eax
  401bea:	jne    0x401c35
  401bec:	cmp    DWORD PTR [ebp-0x14],0x4
  401bf0:	jne    0x401c35
  401bf2:	cmp    DWORD PTR [ebp-0x8],0x1
  401bf6:	jne    0x401c35
  401bf8:	cmp    DWORD PTR [esi+0xc],eax
  401bfb:	jne    0x401c35
  401bfd:	mov    DWORD PTR [ebp-0xc],eax
  401c00:	lea    eax,[ebp-0xc]
  401c03:	push   eax
  401c04:	mov    eax,DWORD PTR [esi+0x4]
  401c07:	push   DWORD PTR [eax+0x14]
  401c0a:	call   DWORD PTR ds:0x4060fc
  401c10:	test   eax,eax
  401c12:	je     0x401c35
  401c14:	mov    eax,DWORD PTR [esi+0x4]
  401c17:	push   DWORD PTR [eax+0x8]
  401c1a:	call   DWORD PTR ds:0x40608c
  401c20:	mov    eax,DWORD PTR [esi+0x4]
  401c23:	mov    DWORD PTR [eax+0x8],0x0
  401c2a:	push   DWORD PTR [ebp-0xc]
  401c2d:	push   0x0
  401c2f:	call   DWORD PTR ds:0x406100
  401c35:	push   edi
  401c36:	call   DWORD PTR ds:0x40612c
  401c3c:	mov    eax,DWORD PTR [ebp-0x4]
  401c3f:	pop    edi
  401c40:	pop    esi
  401c41:	test   eax,eax
  401c43:	je     0x401c4c
  401c45:	push   eax
  401c46:	call   DWORD PTR ds:0x4060e4
  401c4c:	mov    esp,ebp
  401c4e:	pop    ebp
  401c4f:	ret    
  401c50:	int3   
  401c51:	int3   
  401c52:	int3   
  401c53:	int3   
  401c54:	int3   
  401c55:	int3   
  401c56:	int3   
  401c57:	int3   
  401c58:	int3   
  401c59:	int3   
  401c5a:	int3   
  401c5b:	int3   
  401c5c:	int3   
  401c5d:	int3   
  401c5e:	int3   
  401c5f:	int3   
  401c60:	mov    edi,edi
  401c62:	push   ebp
  401c63:	mov    ebp,esp
  401c65:	sub    esp,0x8
  401c68:	push   ebx
  401c69:	push   esi
  401c6a:	push   edi
  401c6b:	lea    eax,[ebp-0x8]
  401c6e:	mov    DWORD PTR [ebp-0x8],0x0
  401c75:	push   eax
  401c76:	push   0x20019
  401c7b:	push   0x0
  401c7d:	push   0x4010d8
  401c82:	push   0x80000002
  401c87:	mov    edi,edx
  401c89:	mov    DWORD PTR [ebp-0x4],0x0
  401c90:	mov    ebx,ecx
  401c92:	call   DWORD PTR ds:0x4060dc
  401c98:	mov    esi,eax
  401c9a:	test   esi,esi
  401c9c:	jne    0x401cd4
  401c9e:	lea    eax,[ebp-0x4]
  401ca1:	push   eax
  401ca2:	push   0x20019
  401ca7:	push   esi
  401ca8:	push   ebx
  401ca9:	push   DWORD PTR [ebp-0x8]
  401cac:	call   DWORD PTR ds:0x4060dc
  401cb2:	mov    esi,eax
  401cb4:	test   esi,esi
  401cb6:	jne    0x401cd4
  401cb8:	push   edi
  401cb9:	push   0x20019
  401cbe:	push   eax
  401cbf:	push   0x4010bc
  401cc4:	push   DWORD PTR [ebp-0x4]
  401cc7:	call   DWORD PTR ds:0x4060dc
  401ccd:	mov    esi,eax
  401ccf:	cmp    esi,0x2
  401cd2:	je     0x401cfc
  401cd4:	mov    eax,DWORD PTR [ebp-0x4]
  401cd7:	mov    ecx,DWORD PTR [ebp-0x8]
  401cda:	test   ecx,ecx
  401cdc:	je     0x401ce8
  401cde:	push   ecx
  401cdf:	call   DWORD PTR ds:0x4060e4
  401ce5:	mov    eax,DWORD PTR [ebp-0x4]
  401ce8:	test   eax,eax
  401cea:	je     0x401cf3
  401cec:	push   eax
  401ced:	call   DWORD PTR ds:0x4060e4
  401cf3:	pop    edi
  401cf4:	mov    eax,esi
  401cf6:	pop    esi
  401cf7:	pop    ebx
  401cf8:	mov    esp,ebp
  401cfa:	pop    ebp
  401cfb:	ret    
  401cfc:	mov    eax,DWORD PTR [ebp-0x4]
  401cff:	mov    DWORD PTR [edi],eax
  401d01:	xor    eax,eax
  401d03:	mov    DWORD PTR [ebp-0x4],eax
  401d06:	xor    esi,esi
  401d08:	jmp    0x401cd7
  401d0a:	int3   
  401d0b:	int3   
  401d0c:	int3   
  401d0d:	int3   
  401d0e:	int3   
  401d0f:	int3   
  401d10:	mov    edi,edi
  401d12:	push   ebp
  401d13:	mov    ebp,esp
  401d15:	sub    esp,0x30
  401d18:	mov    eax,ds:0x405000
  401d1d:	xor    eax,ebp
  401d1f:	mov    DWORD PTR [ebp-0x4],eax
  401d22:	mov    eax,DWORD PTR [ebp+0xc]
  401d25:	push   ebx
  401d26:	push   esi
  401d27:	xor    esi,esi
  401d29:	mov    DWORD PTR [ebp-0x1c],eax
  401d2c:	mov    ebx,DWORD PTR [eax]
  401d2e:	mov    DWORD PTR [ebp-0x18],0x0
  401d35:	mov    DWORD PTR [ebp-0x20],0x0
  401d3c:	mov    DWORD PTR [ebp-0x24],0x2
  401d43:	cmp    DWORD PTR ds:0x40534c,esi
  401d49:	jbe    0x401f9b
  401d4f:	push   edi
  401d50:	xor    edi,edi
  401d52:	mov    eax,ds:0x405344
  401d57:	push   0x1
  401d59:	push   0xffffffff
  401d5b:	push   DWORD PTR [edi+eax*1]
  401d5e:	push   0xffffffff
  401d60:	push   ebx
  401d61:	call   DWORD PTR ds:0x406108
  401d67:	cmp    eax,0x2
  401d6a:	je     0x401d7d
  401d6c:	inc    esi
  401d6d:	add    edi,0x1c
  401d70:	cmp    esi,DWORD PTR ds:0x40534c
  401d76:	jb     0x401d52
  401d78:	jmp    0x401f9a
  401d7d:	mov    eax,ds:0x405344
  401d82:	lea    ecx,[esi*8+0x0]
  401d89:	sub    ecx,esi
  401d8b:	lea    esi,[eax+ecx*4]
  401d8e:	test   esi,esi
  401d90:	je     0x401f9a
  401d96:	lea    eax,[esi+0x18]
  401d99:	push   eax
  401d9a:	call   DWORD PTR ds:0x406128
  401da0:	lea    eax,[ebp-0x24]
  401da3:	mov    ecx,esi
  401da5:	push   eax
  401da6:	lea    eax,[ebp-0x20]
  401da9:	push   eax
  401daa:	lea    edx,[ebp-0x18]
  401dad:	call   0x4020a0
  401db2:	mov    eax,DWORD PTR [ebp-0x18]
  401db5:	mov    edi,DWORD PTR [ebp-0x20]
  401db8:	test   eax,eax
  401dba:	je     0x401de6
  401dbc:	test   edi,edi
  401dbe:	je     0x401de6
  401dc0:	push   0x405340
  401dc5:	call   DWORD PTR ds:0x406128
  401dcb:	cmp    DWORD PTR ds:0x405328,0x0
  401dd2:	je     0x402033
  401dd8:	push   0x405340
  401ddd:	call   DWORD PTR ds:0x40612c
  401de3:	mov    eax,DWORD PTR [ebp-0x18]
  401de6:	mov    ecx,DWORD PTR [ebp-0x1c]
  401de9:	mov    ecx,DWORD PTR [ecx]
  401deb:	mov    DWORD PTR [ebp-0x20],ecx
  401dee:	test   edi,edi
  401df0:	je     0x401fad
  401df6:	cmp    DWORD PTR ds:0x405328,0x0
  401dfd:	je     0x401fad
  401e03:	inc    DWORD PTR [esi+0xc]
  401e06:	lea    eax,[esi+0x18]
  401e09:	push   eax
  401e0a:	call   DWORD PTR ds:0x40612c
  401e10:	test   edi,edi
  401e12:	je     0x401fc2
  401e18:	mov    eax,ds:0x405328
  401e1d:	test   eax,eax
  401e1f:	je     0x401fc2
  401e25:	push   eax
  401e26:	mov    ecx,edi
  401e28:	call   DWORD PTR ds:0x4061c0
  401e2e:	call   edi
  401e30:	mov    edi,DWORD PTR [ebp-0x18]
  401e33:	test   edi,edi
  401e35:	je     0x403dcb
  401e3b:	mov    ecx,DWORD PTR ds:0x405358
  401e41:	mov    eax,ecx
  401e43:	mov    edx,DWORD PTR ds:0x40535c
  401e49:	or     eax,edx
  401e4b:	je     0x401e62
  401e4d:	push   0x401120
  401e52:	push   edx
  401e53:	push   ecx
  401e54:	call   DWORD PTR ds:0x406184
  401e5a:	test   al,al
  401e5c:	jne    0x403d29
  401e62:	push   DWORD PTR [ebp-0x1c]
  401e65:	mov    ecx,edi
  401e67:	push   DWORD PTR [ebp+0x8]
  401e6a:	call   DWORD PTR ds:0x4061c0
  401e70:	call   edi
  401e72:	mov    ecx,DWORD PTR ds:0x405358
  401e78:	mov    eax,ecx
  401e7a:	mov    edx,DWORD PTR ds:0x40535c
  401e80:	or     eax,edx
  401e82:	je     0x401e99
  401e84:	push   0x401130
  401e89:	push   edx
  401e8a:	push   ecx
  401e8b:	call   DWORD PTR ds:0x406184
  401e91:	test   al,al
  401e93:	jne    0x403d7a
  401e99:	lea    ebx,[esi+0x18]
  401e9c:	mov    DWORD PTR [ebp-0x28],0x4
  401ea3:	push   ebx
  401ea4:	mov    DWORD PTR [ebp-0x20],0x0
  401eab:	mov    DWORD PTR [ebp-0x24],0x0
  401eb2:	call   DWORD PTR ds:0x406128
  401eb8:	mov    eax,DWORD PTR [esi]
  401eba:	dec    DWORD PTR [esi+0xc]
  401ebd:	mov    DWORD PTR [ebp-0x30],eax
  401ec0:	lea    eax,[ebp-0x1c]
  401ec3:	push   eax
  401ec4:	push   0x20019
  401ec9:	push   0x0
  401ecb:	push   0x4010d8
  401ed0:	push   0x80000002
  401ed5:	mov    DWORD PTR [ebp-0x1c],0x0
  401edc:	mov    DWORD PTR [ebp-0x18],0x0
  401ee3:	call   DWORD PTR ds:0x4060dc
  401ee9:	mov    edi,eax
  401eeb:	test   edi,edi
  401eed:	jne    0x401f2e
  401eef:	lea    eax,[ebp-0x18]
  401ef2:	push   eax
  401ef3:	push   0x20019
  401ef8:	push   edi
  401ef9:	push   DWORD PTR [ebp-0x30]
  401efc:	push   DWORD PTR [ebp-0x1c]
  401eff:	call   DWORD PTR ds:0x4060dc
  401f05:	mov    edi,eax
  401f07:	test   edi,edi
  401f09:	jne    0x401f2e
  401f0b:	lea    eax,[ebp-0x24]
  401f0e:	push   eax
  401f0f:	push   0x20019
  401f14:	push   edi
  401f15:	push   0x4010bc
  401f1a:	push   DWORD PTR [ebp-0x18]
  401f1d:	call   DWORD PTR ds:0x4060dc
  401f23:	mov    edi,eax
  401f25:	cmp    edi,0x2
  401f28:	je     0x402082
  401f2e:	mov    eax,DWORD PTR [ebp-0x18]
  401f31:	mov    ecx,DWORD PTR [ebp-0x1c]
  401f34:	test   ecx,ecx
  401f36:	je     0x401f42
  401f38:	push   ecx
  401f39:	call   DWORD PTR ds:0x4060e4
  401f3f:	mov    eax,DWORD PTR [ebp-0x18]
  401f42:	test   eax,eax
  401f44:	je     0x401f4d
  401f46:	push   eax
  401f47:	call   DWORD PTR ds:0x4060e4
  401f4d:	test   edi,edi
  401f4f:	jne    0x401f85
  401f51:	lea    eax,[ebp-0x28]
  401f54:	push   eax
  401f55:	lea    eax,[ebp-0x20]
  401f58:	push   eax
  401f59:	lea    eax,[ebp-0x2c]
  401f5c:	push   eax
  401f5d:	push   edi
  401f5e:	push   0x401140
  401f63:	push   DWORD PTR [ebp-0x24]
  401f66:	call   DWORD PTR ds:0x4060e0
  401f6c:	test   eax,eax
  401f6e:	jne    0x401f85
  401f70:	cmp    DWORD PTR [ebp-0x2c],0x4
  401f74:	jne    0x401f85
  401f76:	cmp    DWORD PTR [ebp-0x20],0x1
  401f7a:	jne    0x401f85
  401f7c:	cmp    DWORD PTR [esi+0xc],eax
  401f7f:	je     0x40203d
  401f85:	push   ebx
  401f86:	call   DWORD PTR ds:0x40612c
  401f8c:	mov    eax,DWORD PTR [ebp-0x24]
  401f8f:	test   eax,eax
  401f91:	je     0x401f9a
  401f93:	push   eax
  401f94:	call   DWORD PTR ds:0x4060e4
  401f9a:	pop    edi
  401f9b:	pop    esi
  401f9c:	pop    ebx
  401f9d:	mov    ecx,DWORD PTR [ebp-0x4]
  401fa0:	xor    ecx,ebp
  401fa2:	call   0x403a7b
  401fa7:	mov    esp,ebp
  401fa9:	pop    ebp
  401faa:	ret    0x8
  401fad:	test   eax,eax
  401faf:	je     0x401e06
  401fb5:	test   edi,edi
  401fb7:	je     0x401e03
  401fbd:	jmp    0x401e06
  401fc2:	cmp    DWORD PTR [ebp-0x18],0x0
  401fc6:	je     0x403e34
  401fcc:	test   edi,edi
  401fce:	jne    0x403e34
  401fd4:	mov    ecx,DWORD PTR ds:0x405358
  401fda:	mov    eax,ecx
  401fdc:	mov    edx,DWORD PTR ds:0x40535c
  401fe2:	or     eax,edx
  401fe4:	je     0x401ffb
  401fe6:	push   0x401120
  401feb:	push   edx
  401fec:	push   ecx
  401fed:	call   DWORD PTR ds:0x406184
  401ff3:	test   al,al
  401ff5:	jne    0x403de3
  401ffb:	push   DWORD PTR [ebp-0x1c]
  401ffe:	mov    ecx,DWORD PTR [ebp-0x18]
  402001:	push   DWORD PTR [ebp+0x8]
  402004:	call   DWORD PTR ds:0x4061c0
  40200a:	call   DWORD PTR [ebp-0x18]
  40200d:	mov    edx,0x401130
  402012:	mov    ecx,ebx
  402014:	call   0x4026c0
  402019:	mov    ecx,esi
  40201b:	call   0x401b90
  402020:	mov    ecx,DWORD PTR [ebp-0x4]
  402023:	pop    edi
  402024:	pop    esi
  402025:	xor    ecx,ebp
  402027:	pop    ebx
  402028:	call   0x403a7b
  40202d:	mov    esp,ebp
  40202f:	pop    ebp
  402030:	ret    0x8
  402033:	call   0x403310
  402038:	jmp    0x401dd8
  40203d:	lea    eax,[ebp-0x1c]
  402040:	mov    DWORD PTR [ebp-0x1c],0x0
  402047:	push   eax
  402048:	mov    eax,DWORD PTR [esi+0x4]
  40204b:	push   DWORD PTR [eax+0x14]
  40204e:	call   DWORD PTR ds:0x4060fc
  402054:	test   eax,eax
  402056:	je     0x401f85
  40205c:	mov    eax,DWORD PTR [esi+0x4]
  40205f:	push   DWORD PTR [eax+0x8]
  402062:	call   DWORD PTR ds:0x40608c
  402068:	mov    eax,DWORD PTR [esi+0x4]
  40206b:	mov    DWORD PTR [eax+0x8],0x0
  402072:	push   DWORD PTR [ebp-0x1c]
  402075:	push   0x0
  402077:	call   DWORD PTR ds:0x406100
  40207d:	jmp    0x401f85
  402082:	mov    eax,DWORD PTR [ebp-0x18]
  402085:	mov    DWORD PTR [ebp-0x24],eax
  402088:	xor    eax,eax
  40208a:	mov    DWORD PTR [ebp-0x18],eax
  40208d:	xor    edi,edi
  40208f:	jmp    0x401f31
  402094:	int3   
  402095:	int3   
  402096:	int3   
  402097:	int3   
  402098:	int3   
  402099:	int3   
  40209a:	int3   
  40209b:	int3   
  40209c:	int3   
  40209d:	int3   
  40209e:	int3   
  40209f:	int3   
  4020a0:	mov    edi,edi
  4020a2:	push   ebp
  4020a3:	mov    ebp,esp
  4020a5:	sub    esp,0x470
  4020ab:	mov    eax,ds:0x405000
  4020b0:	xor    eax,ebp
  4020b2:	mov    DWORD PTR [ebp-0x4],eax
  4020b5:	push   ebx
  4020b6:	push   esi
  4020b7:	push   edi
  4020b8:	mov    DWORD PTR [ebp-0x450],edx
  4020be:	mov    ebx,ecx
  4020c0:	mov    DWORD PTR [ebp-0x424],ebx
  4020c6:	mov    eax,DWORD PTR [ebp+0x8]
  4020c9:	mov    DWORD PTR [ebp-0x44c],eax
  4020cf:	xor    eax,eax
  4020d1:	mov    DWORD PTR [ebp-0x46c],eax
  4020d7:	mov    DWORD PTR [ebp-0x468],eax
  4020dd:	mov    DWORD PTR [ebp-0x464],eax
  4020e3:	mov    DWORD PTR [ebp-0x460],eax
  4020e9:	mov    DWORD PTR [ebp-0x45c],eax
  4020ef:	mov    DWORD PTR [ebp-0x458],eax
  4020f5:	mov    DWORD PTR [ebp-0x454],eax
  4020fb:	mov    DWORD PTR [ebp-0x430],eax
  402101:	mov    DWORD PTR [ebp-0x43c],eax
  402107:	lea    eax,[ebp-0x41c]
  40210d:	mov    edi,DWORD PTR [ebp+0xc]
  402110:	mov    DWORD PTR [ebp-0x428],eax
  402116:	xor    eax,eax
  402118:	mov    WORD PTR [ebp-0x41c],ax
  40211f:	mov    WORD PTR [ebp-0x210],ax
  402126:	mov    DWORD PTR [edi],0x0
  40212c:	mov    eax,DWORD PTR [ebx+0x4]
  40212f:	mov    DWORD PTR [ebp-0x420],edi
  402135:	mov    DWORD PTR [ebp-0x470],0x20
  40213f:	mov    DWORD PTR [ebp-0x434],0x0
  402149:	test   eax,eax
  40214b:	jne    0x402670
  402151:	mov    edi,DWORD PTR [ebx]
  402153:	mov    DWORD PTR [ebp-0x440],eax
  402159:	mov    DWORD PTR [ebp-0x438],eax
  40215f:	lea    eax,[ebp-0x440]
  402165:	push   eax
  402166:	push   0x20019
  40216b:	push   0x0
  40216d:	push   0x4010d8
  402172:	push   0x80000002
  402177:	call   DWORD PTR ds:0x4060dc
  40217d:	mov    esi,eax
  40217f:	test   esi,esi
  402181:	jne    0x4021cc
  402183:	lea    eax,[ebp-0x438]
  402189:	push   eax
  40218a:	push   0x20019
  40218f:	push   esi
  402190:	push   edi
  402191:	push   DWORD PTR [ebp-0x440]
  402197:	call   DWORD PTR ds:0x4060dc
  40219d:	mov    esi,eax
  40219f:	test   esi,esi
  4021a1:	jne    0x4021cc
  4021a3:	lea    eax,[ebp-0x43c]
  4021a9:	push   eax
  4021aa:	push   0x20019
  4021af:	push   esi
  4021b0:	push   0x4010bc
  4021b5:	push   DWORD PTR [ebp-0x438]
  4021bb:	call   DWORD PTR ds:0x4060dc
  4021c1:	mov    esi,eax
  4021c3:	cmp    esi,0x2
  4021c6:	je     0x402694
  4021cc:	mov    eax,DWORD PTR [ebp-0x438]
  4021d2:	mov    ecx,DWORD PTR [ebp-0x440]
  4021d8:	test   ecx,ecx
  4021da:	je     0x4021e9
  4021dc:	push   ecx
  4021dd:	call   DWORD PTR ds:0x4060e4
  4021e3:	mov    eax,DWORD PTR [ebp-0x438]
  4021e9:	test   eax,eax
  4021eb:	je     0x4021f4
  4021ed:	push   eax
  4021ee:	call   DWORD PTR ds:0x4060e4
  4021f4:	test   esi,esi
  4021f6:	jne    0x40406f
  4021fc:	push   0x20a
  402201:	push   esi
  402202:	push   DWORD PTR ds:0x40532c
  402208:	call   DWORD PTR ds:0x40606c
  40220e:	mov    ebx,eax
  402210:	test   ebx,ebx
  402212:	je     0x403e4c
  402218:	xor    eax,eax
  40221a:	mov    WORD PTR [ebx],ax
  40221d:	lea    eax,[ebp-0x448]
  402223:	push   eax
  402224:	push   ebx
  402225:	lea    eax,[ebp-0x444]
  40222b:	mov    DWORD PTR [ebp-0x448],0x20a
  402235:	push   eax
  402236:	push   esi
  402237:	push   0x4010a4
  40223c:	push   DWORD PTR [ebp-0x43c]
  402242:	call   DWORD PTR ds:0x4060e0
  402248:	test   eax,eax
  40224a:	jne    0x403e5f
  402250:	cmp    DWORD PTR [ebp-0x444],0x2
  402257:	jne    0x403e6e
  40225d:	cmp    WORD PTR [ebx],ax
  402260:	je     0x403e81
  402266:	push   0x104
  40226b:	lea    eax,[ebp-0x41c]
  402271:	push   eax
  402272:	push   ebx
  402273:	call   DWORD PTR ds:0x4060a8
  402279:	lea    ecx,[ebp-0x41c]
  40227f:	lea    edx,[ecx+0x2]
  402282:	mov    ax,WORD PTR [ecx]
  402285:	add    ecx,0x2
  402288:	test   ax,ax
  40228b:	jne    0x402282
  40228d:	sub    ecx,edx
  40228f:	sar    ecx,1
  402291:	lea    eax,[ecx+0x1]
  402294:	push   eax
  402295:	lea    ecx,[ebp-0x41c]
  40229b:	push   ecx
  40229c:	push   eax
  40229d:	mov    eax,ecx
  40229f:	push   eax
  4022a0:	push   0x100
  4022a5:	push   0x400
  4022aa:	call   DWORD PTR ds:0x40609c
  4022b0:	lea    eax,[ebp-0x448]
  4022b6:	mov    DWORD PTR [ebp-0x448],0x20a
  4022c0:	push   eax
  4022c1:	push   ebx
  4022c2:	lea    eax,[ebp-0x444]
  4022c8:	push   eax
  4022c9:	push   0x0
  4022cb:	push   0x401084
  4022d0:	push   DWORD PTR [ebp-0x43c]
  4022d6:	call   DWORD PTR ds:0x4060e0
  4022dc:	cmp    eax,0x2
  4022df:	jne    0x403e94
  4022e5:	xor    eax,eax
  4022e7:	push   ebx
  4022e8:	push   eax
  4022e9:	push   DWORD PTR ds:0x40532c
  4022ef:	mov    WORD PTR [ebp-0x210],ax
  4022f6:	call   DWORD PTR ds:0x406078
  4022fc:	xor    ebx,ebx
  4022fe:	mov    DWORD PTR [ebp-0x434],ebx
  402304:	push   0x405334
  402309:	xor    edi,edi
  40230b:	call   DWORD PTR ds:0x40611c
  402311:	mov    esi,DWORD PTR ds:0x405338
  402317:	cmp    esi,0x405338
  40231d:	je     0x402376
  40231f:	mov    ebx,DWORD PTR [ebp-0x424]
  402325:	mov    eax,DWORD PTR [ebp-0x428]
  40232b:	mov    edi,esi
  40232d:	mov    ecx,DWORD PTR [esi+0xc]
  402330:	mov    dx,WORD PTR [ecx]
  402333:	cmp    dx,WORD PTR [eax]
  402336:	jne    0x402666
  40233c:	test   dx,dx
  40233f:	je     0x40235a
  402341:	mov    dx,WORD PTR [ecx+0x2]
  402345:	cmp    dx,WORD PTR [eax+0x2]
  402349:	jne    0x402666
  40234f:	add    ecx,0x4
  402352:	add    eax,0x4
  402355:	test   dx,dx
  402358:	jne    0x402330
  40235a:	xor    eax,eax
  40235c:	test   eax,eax
  40235e:	je     0x403f68
  402364:	mov    esi,DWORD PTR [esi]
  402366:	xor    edi,edi
  402368:	cmp    esi,0x405338
  40236e:	jne    0x402325
  402370:	mov    ebx,DWORD PTR [ebp-0x434]
  402376:	push   0x405334
  40237b:	call   DWORD PTR ds:0x406114
  402381:	test   edi,edi
  402383:	jne    0x404044
  402389:	cmp    WORD PTR [ebp-0x210],di
  402390:	jne    0x403fe3
  402396:	mov    edi,DWORD PTR [ebp-0x428]
  40239c:	lea    ecx,[edi+0x2]
  40239f:	nop
  4023a0:	mov    ax,WORD PTR [edi]
  4023a3:	add    edi,0x2
  4023a6:	test   ax,ax
  4023a9:	jne    0x4023a0
  4023ab:	sub    edi,ecx
  4023ad:	lea    ebx,[ebp-0x210]
  4023b3:	sar    edi,1
  4023b5:	lea    ecx,[ebx+0x2]
  4023b8:	jmp    0x4023c0
  4023ba:	lea    ebx,[ebx+0x0]
  4023c0:	mov    ax,WORD PTR [ebx]
  4023c3:	add    ebx,0x2
  4023c6:	test   ax,ax
  4023c9:	jne    0x4023c0
  4023cb:	sub    ebx,ecx
  4023cd:	sar    ebx,1
  4023cf:	lea    eax,[ebx+edi*1]
  4023d2:	lea    eax,[eax*2+0x20]
  4023d9:	push   eax
  4023da:	push   0x8
  4023dc:	push   DWORD PTR ds:0x40532c
  4023e2:	call   DWORD PTR ds:0x40606c
  4023e8:	mov    DWORD PTR [ebp-0x42c],eax
  4023ee:	test   eax,eax
  4023f0:	je     0x404027
  4023f6:	lea    edx,[edi+edi*1]
  4023f9:	mov    edi,eax
  4023fb:	lea    esi,[eax+0x1c]
  4023fe:	push   edx
  4023ff:	push   DWORD PTR [ebp-0x428]
  402405:	lea    ecx,[esi+0x2]
  402408:	mov    DWORD PTR [eax+0xc],esi
  40240b:	add    ecx,edx
  40240d:	push   esi
  40240e:	mov    DWORD PTR [edi+0x10],ecx
  402411:	call   0x403cec
  402416:	lea    eax,[ebx+ebx*1]
  402419:	push   eax
  40241a:	lea    eax,[ebp-0x210]
  402420:	push   eax
  402421:	push   DWORD PTR [edi+0x10]
  402424:	call   0x403cec
  402429:	mov    ebx,DWORD PTR [ebp-0x424]
  40242f:	add    esp,0x18
  402432:	mov    DWORD PTR [edi+0x18],ebx
  402435:	push   0x405334
  40243a:	call   DWORD PTR ds:0x406128
  402440:	mov    eax,ds:0x40533c
  402445:	mov    DWORD PTR [edi],0x405338
  40244b:	mov    DWORD PTR [edi+0x4],eax
  40244e:	cmp    DWORD PTR [eax],0x405338
  402454:	jne    0x404020
  40245a:	mov    DWORD PTR [eax],edi
  40245c:	push   0x405334
  402461:	mov    DWORD PTR ds:0x40533c,edi
  402467:	call   DWORD PTR ds:0x40612c
  40246d:	test   edi,edi
  40246f:	je     0x402594
  402475:	mov    eax,DWORD PTR [ebp-0x430]
  40247b:	mov    DWORD PTR [edi+0x14],eax
  40247e:	mov    DWORD PTR [ebp-0x430],0x0
  402488:	mov    ecx,DWORD PTR [ebp-0x43c]
  40248e:	lea    eax,[ebp-0x42c]
  402494:	push   eax
  402495:	lea    eax,[ebp-0x428]
  40249b:	mov    DWORD PTR [ebx+0x4],edi
  40249e:	push   eax
  40249f:	push   0x1
  4024a1:	mov    edx,0x40106c
  4024a6:	mov    DWORD PTR [ebx+0x8],0x0
  4024ad:	call   0x402f30
  4024b2:	test   eax,eax
  4024b4:	je     0x4025d4
  4024ba:	cmp    DWORD PTR [ebx+0x4],0x0
  4024be:	je     0x402594
  4024c4:	mov    eax,DWORD PTR [ebx+0x8]
  4024c7:	test   eax,eax
  4024c9:	mov    ebx,0x401170
  4024ce:	cmovne ebx,eax
  4024d1:	mov    eax,DWORD PTR [ebp-0x424]
  4024d7:	xor    edi,edi
  4024d9:	mov    DWORD PTR [ebp-0x42c],edi
  4024df:	mov    esi,DWORD PTR [eax+0x4]
  4024e2:	lea    eax,[ebp-0x42c]
  4024e8:	push   eax
  4024e9:	push   DWORD PTR [esi+0x14]
  4024ec:	call   DWORD PTR ds:0x4060fc
  4024f2:	test   eax,eax
  4024f4:	je     0x4040ce
  4024fa:	mov    eax,DWORD PTR [esi+0x8]
  4024fd:	test   eax,eax
  4024ff:	jne    0x402518
  402501:	push   0x8
  402503:	push   eax
  402504:	push   DWORD PTR [esi+0xc]
  402507:	call   DWORD PTR ds:0x406090
  40250d:	test   eax,eax
  40250f:	je     0x4040e1
  402515:	mov    DWORD PTR [esi+0x8],eax
  402518:	push   ebx
  402519:	push   eax
  40251a:	call   DWORD PTR ds:0x406094
  402520:	mov    edi,eax
  402522:	test   edi,edi
  402524:	je     0x4040e1
  40252a:	push   DWORD PTR [ebp-0x42c]
  402530:	push   0x0
  402532:	call   DWORD PTR ds:0x406100
  402538:	mov    eax,DWORD PTR [ebp-0x450]
  40253e:	xor    esi,esi
  402540:	mov    DWORD PTR [ebp-0x42c],esi
  402546:	mov    DWORD PTR [eax],edi
  402548:	mov    eax,DWORD PTR [ebp-0x424]
  40254e:	mov    edi,DWORD PTR [eax+0x4]
  402551:	lea    eax,[ebp-0x42c]
  402557:	push   eax
  402558:	push   DWORD PTR [edi+0x14]
  40255b:	call   DWORD PTR ds:0x4060fc
  402561:	test   eax,eax
  402563:	je     0x40258c
  402565:	mov    eax,DWORD PTR [edi+0x8]
  402568:	test   eax,eax
  40256a:	je     0x4040f4
  402570:	push   0x401050
  402575:	push   eax
  402576:	call   DWORD PTR ds:0x406094
  40257c:	mov    esi,eax
  40257e:	push   DWORD PTR [ebp-0x42c]
  402584:	push   0x0
  402586:	call   DWORD PTR ds:0x406100
  40258c:	mov    eax,DWORD PTR [ebp-0x44c]
  402592:	mov    DWORD PTR [eax],esi
  402594:	mov    ebx,DWORD PTR [ebp-0x434]
  40259a:	mov    esi,DWORD PTR [ebp-0x430]
  4025a0:	mov    eax,DWORD PTR [ebp-0x43c]
  4025a6:	test   eax,eax
  4025a8:	je     0x4025b1
  4025aa:	push   eax
  4025ab:	call   DWORD PTR ds:0x4060e4
  4025b1:	test   ebx,ebx
  4025b3:	jne    0x404111
  4025b9:	test   esi,esi
  4025bb:	jne    0x404125
  4025c1:	mov    ecx,DWORD PTR [ebp-0x4]
  4025c4:	pop    edi
  4025c5:	pop    esi
  4025c6:	xor    ecx,ebp
  4025c8:	pop    ebx
  4025c9:	call   0x403a7b
  4025ce:	mov    esp,ebp
  4025d0:	pop    ebp
  4025d1:	ret    0x8
  4025d4:	mov    edx,DWORD PTR [ebp-0x428]
  4025da:	mov    ecx,edx
  4025dc:	lea    esi,[ecx+0x2]
  4025df:	nop
  4025e0:	mov    ax,WORD PTR [ecx]
  4025e3:	add    ecx,0x2
  4025e6:	test   ax,ax
  4025e9:	jne    0x4025e0
  4025eb:	push   0x0
  4025ed:	push   0x0
  4025ef:	sub    ecx,esi
  4025f1:	push   0x0
  4025f3:	sar    ecx,1
  4025f5:	push   0x0
  4025f7:	lea    ebx,[ecx+0x1]
  4025fa:	push   ebx
  4025fb:	push   edx
  4025fc:	push   0x0
  4025fe:	push   0x0
  402600:	call   DWORD PTR ds:0x40610c
  402606:	mov    edi,eax
  402608:	test   edi,edi
  40260a:	je     0x4026af
  402610:	push   edi
  402611:	push   0x0
  402613:	push   DWORD PTR ds:0x40532c
  402619:	call   DWORD PTR ds:0x40606c
  40261f:	mov    esi,eax
  402621:	test   esi,esi
  402623:	je     0x4026af
  402629:	push   0x0
  40262b:	push   0x0
  40262d:	push   edi
  40262e:	mov    edi,DWORD PTR [ebp-0x428]
  402634:	push   esi
  402635:	push   ebx
  402636:	push   edi
  402637:	push   0x0
  402639:	push   0x0
  40263b:	call   DWORD PTR ds:0x40610c
  402641:	test   eax,eax
  402643:	je     0x40404f
  402649:	mov    ebx,DWORD PTR [ebp-0x424]
  40264f:	mov    DWORD PTR [ebx+0x8],esi
  402652:	push   edi
  402653:	push   0x0
  402655:	push   DWORD PTR ds:0x40532c
  40265b:	call   DWORD PTR ds:0x406078
  402661:	jmp    0x4024ba
  402666:	sbb    eax,eax
  402668:	or     eax,0x1
  40266b:	jmp    0x40235c
  402670:	cmp    DWORD PTR [eax+0x8],0x0
  402674:	jne    0x4024c4
  40267a:	mov    eax,DWORD PTR [eax+0x10]
  40267d:	test   eax,eax
  40267f:	je     0x4024c4
  402685:	cmp    WORD PTR [eax],0x0
  402689:	je     0x4024c4
  40268f:	jmp    0x40407c
  402694:	mov    eax,DWORD PTR [ebp-0x438]
  40269a:	mov    DWORD PTR [ebp-0x43c],eax
  4026a0:	xor    eax,eax
  4026a2:	mov    DWORD PTR [ebp-0x438],eax
  4026a8:	xor    esi,esi
  4026aa:	jmp    0x4021d2
  4026af:	mov    edi,DWORD PTR [ebp-0x428]
  4026b5:	jmp    0x404064
  4026ba:	int3   
  4026bb:	int3   
  4026bc:	int3   
  4026bd:	int3   
  4026be:	int3   
  4026bf:	int3   
  4026c0:	mov    edi,edi
  4026c2:	push   ebp
  4026c3:	mov    ebp,esp
  4026c5:	sub    esp,0x18
  4026c8:	mov    eax,ds:0x405000
  4026cd:	xor    eax,ebp
  4026cf:	mov    DWORD PTR [ebp-0x4],eax
  4026d2:	mov    eax,ds:0x40535c
  4026d7:	push   ebx
  4026d8:	push   esi
  4026d9:	push   edi
  4026da:	mov    edi,DWORD PTR ds:0x405358
  4026e0:	mov    ebx,edx
  4026e2:	mov    esi,edi
  4026e4:	mov    DWORD PTR [ebp-0x18],ecx
  4026e7:	or     esi,eax
  4026e9:	je     0x4026fc
  4026eb:	push   ebx
  4026ec:	push   eax
  4026ed:	push   edi
  4026ee:	call   DWORD PTR ds:0x406184
  4026f4:	test   al,al
  4026f6:	jne    0x40413a
  4026fc:	mov    ecx,DWORD PTR [ebp-0x4]
  4026ff:	pop    edi
  402700:	pop    esi
  402701:	xor    ecx,ebp
  402703:	pop    ebx
  402704:	call   0x403a7b
  402709:	mov    esp,ebp
  40270b:	pop    ebp
  40270c:	ret    
  40270d:	int3   
  40270e:	int3   
  40270f:	int3   
  402710:	int3   
  402711:	int3   
  402712:	int3   
  402713:	int3   
  402714:	int3   
  402715:	int3   
  402716:	int3   
  402717:	int3   
  402718:	int3   
  402719:	int3   
  40271a:	int3   
  40271b:	int3   
  40271c:	int3   
  40271d:	int3   
  40271e:	int3   
  40271f:	int3   
  402720:	call   0x403a90
  402725:	jmp    0x402730
  40272a:	int3   
  40272b:	int3   
  40272c:	int3   
  40272d:	int3   
  40272e:	int3   
  40272f:	int3   
  402730:	mov    edi,edi
  402732:	push   ebp
  402733:	mov    ebp,esp
  402735:	sub    esp,0x10
  402738:	lea    eax,[ebp-0x4]
  40273b:	mov    DWORD PTR [ebp-0xc],0x0
  402742:	push   0x40100c
  402747:	push   0x401008
  40274c:	mov    DWORD PTR [ebp-0x4],0x0
  402753:	mov    DWORD PTR [ebp-0x8],eax
  402756:	mov    DWORD PTR [ebp-0x10],0x0
  40275d:	call   DWORD PTR ds:0x406038
  402763:	add    esp,0x8
  402766:	test   eax,eax
  402768:	jne    0x402797
  40276a:	push   eax
  40276b:	push   eax
  40276c:	push   eax
  40276d:	lea    eax,[ebp-0x8]
  402770:	push   eax
  402771:	lea    eax,[ebp-0xc]
  402774:	push   eax
  402775:	call   DWORD PTR ds:0x40603c
  40277b:	push   0x401004
  402780:	push   0x401000
  402785:	call   DWORD PTR ds:0x406034
  40278b:	add    esp,0x1c
  40278e:	lea    eax,[ebp-0x10]
  402791:	push   eax
  402792:	call   0x4027b0
  402797:	mov    eax,0xff
  40279c:	mov    esp,ebp
  40279e:	pop    ebp
  40279f:	ret    
  4027a0:	int3   
  4027a1:	int3   
  4027a2:	int3   
  4027a3:	int3   
  4027a4:	int3   
  4027a5:	int3   
  4027a6:	int3   
  4027a7:	int3   
  4027a8:	int3   
  4027a9:	int3   
  4027aa:	int3   
  4027ab:	int3   
  4027ac:	int3   
  4027ad:	int3   
  4027ae:	int3   
  4027af:	int3   
  4027b0:	call   0x4027d0
  4027b5:	test   eax,eax
  4027b7:	je     0x4027c0
  4027b9:	push   eax
  4027ba:	call   DWORD PTR ds:0x406170
  4027c0:	push   0x0
  4027c2:	call   DWORD PTR ds:0x4060b0
  4027c8:	int3   
  4027c9:	int3   
  4027ca:	int3   
  4027cb:	int3   
  4027cc:	int3   
  4027cd:	int3   
  4027ce:	int3   
  4027cf:	int3   
  4027d0:	mov    edi,edi
  4027d2:	push   ebp
  4027d3:	mov    ebp,esp
  4027d5:	push   ecx
  4027d6:	push   esi
  4027d7:	push   edi
  4027d8:	push   0x4
  4027da:	lea    eax,[ebp-0x4]
  4027dd:	mov    DWORD PTR [ebp-0x4],0x1
  4027e4:	push   eax
  4027e5:	push   0x36
  4027e7:	push   0xffffffff
  4027e9:	xor    edi,edi
  4027eb:	call   DWORD PTR ds:0x4061b8
  4027f1:	push   0x404700
  4027f6:	call   DWORD PTR ds:0x406058
  4027fc:	push   0x1
  4027fe:	call   DWORD PTR ds:0x406050
  402804:	call   DWORD PTR ds:0x406074
  40280a:	push   0x405334
  40280f:	mov    ds:0x40532c,eax
  402814:	mov    DWORD PTR ds:0x40533c,0x405338
  40281e:	mov    DWORD PTR ds:0x405338,0x405338
  402828:	call   DWORD PTR ds:0x406118
  40282e:	push   0x405340
  402833:	call   DWORD PTR ds:0x406118
  402839:	call   DWORD PTR ds:0x4060ec
  40283f:	push   0x405358
  402844:	push   edi
  402845:	push   edi
  402846:	push   0x40117c
  40284b:	call   DWORD PTR ds:0x406188
  402851:	test   BYTE PTR ds:0x7ffe02f0,0x20
  402858:	jne    0x40418a
  40285e:	call   DWORD PTR ds:0x4060a4
  402864:	mov    ecx,eax
  402866:	call   0x403000
  40286b:	mov    esi,eax
  40286d:	test   esi,esi
  40286f:	je     0x40289d
  402871:	mov    edx,esi
  402873:	call   0x4029f0
  402878:	call   0x402980
  40287d:	mov    edi,eax
  40287f:	test   edi,edi
  402881:	je     0x40288e
  402883:	mov    ecx,esi
  402885:	call   0x4028c0
  40288a:	test   eax,eax
  40288c:	je     0x4028a5
  40288e:	push   esi
  40288f:	push   0x0
  402891:	push   DWORD PTR ds:0x40532c
  402897:	call   DWORD PTR ds:0x406078
  40289d:	mov    eax,edi
  40289f:	pop    edi
  4028a0:	pop    esi
  4028a1:	mov    esp,ebp
  4028a3:	pop    ebp
  4028a4:	ret    
  4028a5:	push   0x1
  4028a7:	call   DWORD PTR ds:0x4060b0
  4028ad:	int3   
  4028ae:	int3   
  4028af:	int3   
  4028b0:	int3   
  4028b1:	int3   
  4028b2:	int3   
  4028b3:	int3   
  4028b4:	int3   
  4028b5:	int3   
  4028b6:	int3   
  4028b7:	int3   
  4028b8:	int3   
  4028b9:	int3   
  4028ba:	int3   
  4028bb:	int3   
  4028bc:	int3   
  4028bd:	int3   
  4028be:	int3   
  4028bf:	int3   
  4028c0:	mov    edi,edi
  4028c2:	push   ebp
  4028c3:	mov    ebp,esp
  4028c5:	sub    esp,0x8
  4028c8:	push   esi
  4028c9:	mov    esi,ecx
  4028cb:	cmp    DWORD PTR [esi+0x10],0x0
  4028cf:	je     0x4028ff
  4028d1:	mov    eax,DWORD PTR [esi+0x3c]
  4028d4:	test   al,0x10
  4028d6:	jne    0x402966
  4028dc:	xor    ecx,ecx
  4028de:	mov    edx,DWORD PTR [esi+0x14]
  4028e1:	movzx  eax,al
  4028e4:	push   ecx
  4028e5:	shr    eax,1
  4028e7:	and    eax,0x1
  4028ea:	push   eax
  4028eb:	push   ecx
  4028ec:	lea    eax,[esi+0x20]
  4028ef:	push   eax
  4028f0:	push   DWORD PTR [esi+0x1c]
  4028f3:	push   DWORD PTR [esi+0x18]
  4028f6:	call   0x403600
  4028fb:	test   eax,eax
  4028fd:	je     0x402976
  4028ff:	mov    eax,DWORD PTR [esi+0x30]
  402902:	test   eax,eax
  402904:	jne    0x402970
  402906:	mov    eax,fs:0x30
  40290c:	push   DWORD PTR [eax+0x8]
  40290f:	call   DWORD PTR ds:0x4061b4
  402915:	test   eax,eax
  402917:	je     0x402922
  402919:	push   DWORD PTR [eax+0x64]
  40291c:	call   DWORD PTR ds:0x406020
  402922:	cmp    DWORD PTR [esi+0x34],0x1
  402926:	je     0x40295e
  402928:	cmp    DWORD PTR [esi+0x38],0x0
  40292c:	jne    0x4041aa
  402932:	push   0x0
  402934:	push   0x0
  402936:	push   0x1
  402938:	push   0x0
  40293a:	call   DWORD PTR ds:0x406070
  402940:	test   BYTE PTR [esi+0x3c],0x4
  402944:	jne    0x4041be
  40294a:	test   BYTE PTR [esi+0x3c],0x8
  40294e:	jne    0x4041de
  402954:	mov    eax,0x1
  402959:	pop    esi
  40295a:	mov    esp,ebp
  40295c:	pop    ebp
  40295d:	ret    
  40295e:	call   DWORD PTR ds:0x406004
  402964:	jmp    0x402928
  402966:	mov    ecx,0x1
  40296b:	jmp    0x4028de
  402970:	shl    eax,0xa
  402973:	push   eax
  402974:	jmp    0x40291c
  402976:	xor    eax,eax
  402978:	jmp    0x402959
  40297a:	int3   
  40297b:	int3   
  40297c:	int3   
  40297d:	int3   
  40297e:	int3   
  40297f:	int3   
  402980:	cmp    DWORD PTR ds:0x405344,0x0
  402987:	je     0x4029dc
  402989:	mov    eax,ds:0x40534c
  40298e:	test   eax,eax
  402990:	je     0x4029dc
  402992:	push   esi
  402993:	lea    eax,[eax*8+0x8]
  40299a:	push   eax
  40299b:	push   0x8
  40299d:	push   DWORD PTR ds:0x40532c
  4029a3:	call   DWORD PTR ds:0x40606c
  4029a9:	mov    esi,eax
  4029ab:	test   esi,esi
  4029ad:	je     0x4029d8
  4029af:	push   edi
  4029b0:	mov    edi,DWORD PTR ds:0x40534c
  4029b6:	xor    ecx,ecx
  4029b8:	test   edi,edi
  4029ba:	je     0x4029d7
  4029bc:	mov    edx,DWORD PTR ds:0x405344
  4029c2:	mov    eax,DWORD PTR [edx]
  4029c4:	lea    edx,[edx+0x1c]
  4029c7:	mov    DWORD PTR [esi+ecx*8],eax
  4029ca:	mov    DWORD PTR [esi+ecx*8+0x4],0x401d10
  4029d2:	inc    ecx
  4029d3:	cmp    ecx,edi
  4029d5:	jb     0x4029c2
  4029d7:	pop    edi
  4029d8:	mov    eax,esi
  4029da:	pop    esi
  4029db:	ret    
  4029dc:	xor    eax,eax
  4029de:	ret    
  4029df:	int3   
  4029e0:	int3   
  4029e1:	int3   
  4029e2:	int3   
  4029e3:	int3   
  4029e4:	int3   
  4029e5:	int3   
  4029e6:	int3   
  4029e7:	int3   
  4029e8:	int3   
  4029e9:	int3   
  4029ea:	int3   
  4029eb:	int3   
  4029ec:	int3   
  4029ed:	int3   
  4029ee:	int3   
  4029ef:	int3   
  4029f0:	mov    edi,edi
  4029f2:	push   ebp
  4029f3:	mov    ebp,esp
  4029f5:	push   ecx
  4029f6:	push   esi
  4029f7:	lea    eax,[ebp-0x4]
  4029fa:	mov    esi,edx
  4029fc:	push   eax
  4029fd:	push   0x20019
  402a02:	push   0x0
  402a04:	push   0x401190
  402a09:	push   0x80000002
  402a0e:	call   DWORD PTR ds:0x4060dc
  402a14:	test   eax,eax
  402a16:	jne    0x402adf
  402a1c:	mov    ecx,DWORD PTR [ebp-0x4]
  402a1f:	mov    edx,esi
  402a21:	call   0x402af0
  402a26:	push   DWORD PTR [ebp-0x4]
  402a29:	mov    esi,eax
  402a2b:	call   DWORD PTR ds:0x4060e4
  402a31:	test   esi,esi
  402a33:	jne    0x402adf
  402a39:	mov    edx,DWORD PTR ds:0x405348
  402a3f:	push   edi
  402a40:	mov    DWORD PTR ds:0x40534c,esi
  402a46:	cmp    WORD PTR [edx],si
  402a49:	je     0x402a76
  402a4b:	jmp    0x402a50
  402a4d:	lea    ecx,[ecx+0x0]
  402a50:	mov    eax,edx
  402a52:	inc    esi
  402a53:	lea    edi,[eax+0x2]
  402a56:	mov    cx,WORD PTR [eax]
  402a59:	add    eax,0x2
  402a5c:	test   cx,cx
  402a5f:	jne    0x402a56
  402a61:	sub    eax,edi
  402a63:	sar    eax,1
  402a65:	lea    edx,[edx+eax*2]
  402a68:	add    edx,0x2
  402a6b:	cmp    WORD PTR [edx],cx
  402a6e:	jne    0x402a50
  402a70:	mov    DWORD PTR ds:0x40534c,esi
  402a76:	lea    eax,[esi*8+0x0]
  402a7d:	sub    eax,esi
  402a7f:	shl    eax,0x2
  402a82:	push   eax
  402a83:	push   0x8
  402a85:	push   DWORD PTR ds:0x40532c
  402a8b:	call   DWORD PTR ds:0x40606c
  402a91:	mov    edi,eax
  402a93:	mov    DWORD PTR ds:0x405344,edi
  402a99:	test   edi,edi
  402a9b:	je     0x402ade
  402a9d:	mov    esi,DWORD PTR ds:0x405348
  402aa3:	cmp    WORD PTR [esi],0x0
  402aa7:	je     0x402ade
  402aa9:	lea    esp,[esp+0x0]
  402ab0:	lea    eax,[edi+0x18]
  402ab3:	mov    DWORD PTR [edi],esi
  402ab5:	push   eax
  402ab6:	call   DWORD PTR ds:0x406118
  402abc:	mov    ecx,esi
  402abe:	lea    edi,[edi+0x1c]
  402ac1:	lea    edx,[ecx+0x2]
  402ac4:	mov    ax,WORD PTR [ecx]
  402ac7:	add    ecx,0x2
  402aca:	test   ax,ax
  402acd:	jne    0x402ac4
  402acf:	sub    ecx,edx
  402ad1:	sar    ecx,1
  402ad3:	lea    esi,[esi+ecx*2]
  402ad6:	add    esi,0x2
  402ad9:	cmp    WORD PTR [esi],ax
  402adc:	jne    0x402ab0
  402ade:	pop    edi
  402adf:	pop    esi
  402ae0:	mov    esp,ebp
  402ae2:	pop    ebp
  402ae3:	ret    
  402ae4:	int3   
  402ae5:	int3   
  402ae6:	int3   
  402ae7:	int3   
  402ae8:	int3   
  402ae9:	int3   
  402aea:	int3   
  402aeb:	int3   
  402aec:	int3   
  402aed:	int3   
  402aee:	int3   
  402aef:	int3   
  402af0:	mov    edi,edi
  402af2:	push   ebp
  402af3:	mov    ebp,esp
  402af5:	sub    esp,0x228
  402afb:	mov    eax,ds:0x405000
  402b00:	xor    eax,ebp
  402b02:	mov    DWORD PTR [ebp-0x4],eax
  402b05:	push   ebx
  402b06:	push   esi
  402b07:	push   edi
  402b08:	lea    eax,[ebp-0x224]
  402b0e:	mov    DWORD PTR [ebp-0x224],0x0
  402b18:	mov    edi,edx
  402b1a:	mov    esi,ecx
  402b1c:	push   eax
  402b1d:	push   0x405348
  402b22:	push   0x7
  402b24:	mov    edx,DWORD PTR [edi+0xc]
  402b27:	call   0x402f30
  402b2c:	mov    DWORD PTR [ebp-0x210],eax
  402b32:	mov    eax,DWORD PTR [ebp-0x224]
  402b38:	mov    DWORD PTR [ebp-0x21c],eax
  402b3e:	lea    eax,[ebp-0x218]
  402b44:	push   eax
  402b45:	push   0x20019
  402b4a:	push   0x0
  402b4c:	push   DWORD PTR [edi+0xc]
  402b4f:	push   esi
  402b50:	call   DWORD PTR ds:0x4060dc
  402b56:	test   eax,eax
  402b58:	jne    0x402ecb
  402b5e:	mov    ebx,DWORD PTR [ebp-0x21c]
  402b64:	xor    esi,esi
  402b66:	push   0x0
  402b68:	push   0x0
  402b6a:	push   0x0
  402b6c:	push   0x0
  402b6e:	lea    eax,[ebp-0x220]
  402b74:	mov    DWORD PTR [ebp-0x220],0x101
  402b7e:	push   eax
  402b7f:	lea    eax,[ebp-0x208]
  402b85:	push   eax
  402b86:	push   esi
  402b87:	push   DWORD PTR [ebp-0x218]
  402b8d:	call   DWORD PTR ds:0x4060e8
  402b93:	mov    ecx,eax
  402b95:	test   ecx,ecx
  402b97:	je     0x404209
  402b9d:	inc    esi
  402b9e:	test   ecx,ecx
  402ba0:	je     0x402b66
  402ba2:	mov    DWORD PTR [ebp-0x21c],ebx
  402ba8:	test   ebx,ebx
  402baa:	mov    ebx,DWORD PTR [ebp-0x224]
  402bb0:	je     0x402bbb
  402bb2:	cmp    esi,0x1
  402bb5:	ja     0x40421a
  402bbb:	xor    ecx,ecx
  402bbd:	mov    eax,ds:0x405348
  402bc2:	mov    esi,DWORD PTR [ebp-0x210]
  402bc8:	test   eax,eax
  402bca:	je     0x404393
  402bd0:	cmp    ebx,0x2
  402bd3:	jb     0x404386
  402bd9:	cmp    WORD PTR [eax],0x0
  402bdd:	je     0x404393
  402be3:	lea    eax,[ebp-0x214]
  402be9:	mov    DWORD PTR [ebp-0x214],0x4
  402bf3:	push   eax
  402bf4:	lea    eax,[ebp-0x20c]
  402bfa:	push   eax
  402bfb:	lea    eax,[ebp-0x210]
  402c01:	push   eax
  402c02:	push   0x0
  402c04:	push   0x4013c8
  402c09:	push   DWORD PTR [ebp-0x218]
  402c0f:	call   DWORD PTR ds:0x4060e0
  402c15:	test   eax,eax
  402c17:	jne    0x402c2f
  402c19:	cmp    DWORD PTR [ebp-0x210],0x4
  402c20:	jne    0x40439d
  402c26:	mov    eax,DWORD PTR [ebp-0x20c]
  402c2c:	mov    DWORD PTR [edi+0x10],eax
  402c2f:	lea    eax,[ebp-0x214]
  402c35:	mov    DWORD PTR [ebp-0x214],0x4
  402c3f:	push   eax
  402c40:	lea    eax,[ebp-0x20c]
  402c46:	push   eax
  402c47:	lea    eax,[ebp-0x210]
  402c4d:	push   eax
  402c4e:	push   0x0
  402c50:	push   0x401388
  402c55:	push   DWORD PTR [ebp-0x218]
  402c5b:	call   DWORD PTR ds:0x4060e0
  402c61:	test   eax,eax
  402c63:	je     0x402e82
  402c69:	lea    eax,[ebp-0x214]
  402c6f:	mov    DWORD PTR [ebp-0x214],0x4
  402c79:	push   eax
  402c7a:	lea    eax,[ebp-0x20c]
  402c80:	push   eax
  402c81:	lea    eax,[ebp-0x210]
  402c87:	push   eax
  402c88:	push   0x0
  402c8a:	push   0x401330
  402c8f:	push   DWORD PTR [ebp-0x218]
  402c95:	call   DWORD PTR ds:0x4060e0
  402c9b:	test   eax,eax
  402c9d:	je     0x402ed6
  402ca3:	cmp    DWORD PTR [edi+0x10],0x0
  402ca7:	je     0x402d47
  402cad:	mov    ecx,DWORD PTR [ebp-0x218]
  402cb3:	lea    eax,[ebp-0x20c]
  402cb9:	push   eax
  402cba:	mov    edx,0x401490
  402cbf:	call   0x403990
  402cc4:	test   eax,eax
  402cc6:	je     0x402ef9
  402ccc:	mov    DWORD PTR [edi+0x14],0x4
  402cd3:	mov    ecx,DWORD PTR [ebp-0x218]
  402cd9:	lea    eax,[ebp-0x20c]
  402cdf:	push   eax
  402ce0:	mov    edx,0x401468
  402ce5:	call   0x403990
  402cea:	test   eax,eax
  402cec:	je     0x4043ca
  402cf2:	mov    DWORD PTR [edi+0x18],0x2
  402cf9:	mov    ecx,DWORD PTR [ebp-0x218]
  402cff:	lea    eax,[ebp-0x20c]
  402d05:	push   eax
  402d06:	mov    edx,0x401430
  402d0b:	call   0x403990
  402d10:	test   eax,eax
  402d12:	je     0x402e74
  402d18:	mov    DWORD PTR [edi+0x1c],0x3000
  402d1f:	mov    ecx,DWORD PTR [ebp-0x218]
  402d25:	lea    eax,[ebp-0x214]
  402d2b:	push   eax
  402d2c:	lea    eax,[ebp-0x210]
  402d32:	mov    edx,0x4013fc
  402d37:	push   eax
  402d38:	push   0x1
  402d3a:	call   0x402f30
  402d3f:	test   eax,eax
  402d41:	je     0x4043d8
  402d47:	lea    eax,[ebp-0x214]
  402d4d:	mov    DWORD PTR [ebp-0x214],0x4
  402d57:	push   eax
  402d58:	lea    eax,[ebp-0x20c]
  402d5e:	push   eax
  402d5f:	lea    eax,[ebp-0x210]
  402d65:	push   eax
  402d66:	push   0x0
  402d68:	push   0x401304
  402d6d:	push   DWORD PTR [ebp-0x218]
  402d73:	call   DWORD PTR ds:0x4060e0
  402d79:	test   eax,eax
  402d7b:	je     0x402f07
  402d81:	lea    eax,[ebp-0x214]
  402d87:	mov    DWORD PTR [ebp-0x214],0x4
  402d91:	push   eax
  402d92:	lea    eax,[ebp-0x20c]
  402d98:	push   eax
  402d99:	lea    eax,[ebp-0x210]
  402d9f:	push   eax
  402da0:	push   0x0
  402da2:	push   0x4012d4
  402da7:	push   DWORD PTR [ebp-0x218]
  402dad:	call   DWORD PTR ds:0x4060e0
  402db3:	test   eax,eax
  402db5:	je     0x402ea5
  402dbb:	lea    eax,[ebp-0x214]
  402dc1:	mov    DWORD PTR [ebp-0x214],0x4
  402dcb:	push   eax
  402dcc:	lea    eax,[ebp-0x20c]
  402dd2:	push   eax
  402dd3:	lea    eax,[ebp-0x210]
  402dd9:	push   eax
  402dda:	push   0x0
  402ddc:	push   0x4012b4
  402de1:	push   DWORD PTR [ebp-0x218]
  402de7:	call   DWORD PTR ds:0x4060e0
  402ded:	test   eax,eax
  402def:	je     0x404442
  402df5:	lea    eax,[ebp-0x214]
  402dfb:	mov    DWORD PTR [ebp-0x214],0x4
  402e05:	push   eax
  402e06:	lea    eax,[ebp-0x20c]
  402e0c:	push   eax
  402e0d:	lea    eax,[ebp-0x210]
  402e13:	push   eax
  402e14:	push   0x0
  402e16:	push   0x40129c
  402e1b:	push   DWORD PTR [ebp-0x218]
  402e21:	call   DWORD PTR ds:0x4060e0
  402e27:	test   eax,eax
  402e29:	je     0x40446d
  402e2f:	push   DWORD PTR [ebp-0x218]
  402e35:	call   DWORD PTR ds:0x4060e4
  402e3b:	lea    eax,[ebp-0x228]
  402e41:	push   eax
  402e42:	push   0x20019
  402e47:	push   0x0
  402e49:	push   0x401200
  402e4e:	push   0x80000002
  402e53:	call   DWORD PTR ds:0x4060dc
  402e59:	test   eax,eax
  402e5b:	je     0x40449b
  402e61:	mov    ecx,DWORD PTR [ebp-0x4]
  402e64:	mov    eax,esi
  402e66:	pop    edi
  402e67:	pop    esi
  402e68:	xor    ecx,ebp
  402e6a:	pop    ebx
  402e6b:	call   0x403a7b
  402e70:	mov    esp,ebp
  402e72:	pop    ebp
  402e73:	ret    
  402e74:	mov    eax,DWORD PTR [ebp-0x20c]
  402e7a:	mov    DWORD PTR [edi+0x1c],eax
  402e7d:	jmp    0x402d1f
  402e82:	cmp    DWORD PTR [ebp-0x210],0x4
  402e89:	jne    0x4043ac
  402e8f:	cmp    DWORD PTR [ebp-0x20c],0x0
  402e96:	je     0x402c69
  402e9c:	or     DWORD PTR [edi+0x3c],0x2
  402ea0:	jmp    0x402c69
  402ea5:	cmp    DWORD PTR [ebp-0x210],0x4
  402eac:	jne    0x404433
  402eb2:	cmp    DWORD PTR [ebp-0x20c],0x0
  402eb9:	jne    0x402dbb
  402ebf:	mov    DWORD PTR [edi+0x34],0x1
  402ec6:	jmp    0x402dbb
  402ecb:	mov    esi,DWORD PTR [ebp-0x210]
  402ed1:	jmp    0x402e3b
  402ed6:	cmp    DWORD PTR [ebp-0x210],0x4
  402edd:	jne    0x4043bb
  402ee3:	cmp    DWORD PTR [ebp-0x20c],0x0
  402eea:	je     0x402ca3
  402ef0:	or     DWORD PTR [edi+0x3c],0x10
  402ef4:	jmp    0x402ca3
  402ef9:	mov    eax,DWORD PTR [ebp-0x20c]
  402eff:	mov    DWORD PTR [edi+0x14],eax
  402f02:	jmp    0x402cd3
  402f07:	cmp    DWORD PTR [ebp-0x210],0x4
  402f0e:	jne    0x404424
  402f14:	mov    eax,DWORD PTR [ebp-0x20c]
  402f1a:	mov    DWORD PTR [edi+0x30],eax
  402f1d:	jmp    0x402d81
  402f22:	int3   
  402f23:	int3   
  402f24:	int3   
  402f25:	int3   
  402f26:	int3   
  402f27:	int3   
  402f28:	int3   
  402f29:	int3   
  402f2a:	int3   
  402f2b:	int3   
  402f2c:	int3   
  402f2d:	int3   
  402f2e:	int3   
  402f2f:	int3   
  402f30:	mov    edi,edi
  402f32:	push   ebp
  402f33:	mov    ebp,esp
  402f35:	sub    esp,0x10
  402f38:	push   ebx
  402f39:	push   esi
  402f3a:	mov    esi,DWORD PTR [ebp+0xc]
  402f3d:	mov    eax,ecx
  402f3f:	push   edi
  402f40:	mov    edi,DWORD PTR [ebp+0x10]
  402f43:	lea    ecx,[ebp-0x4]
  402f46:	push   ecx
  402f47:	push   0x0
  402f49:	lea    ecx,[ebp-0x8]
  402f4c:	mov    DWORD PTR [ebp-0x10],eax
  402f4f:	push   ecx
  402f50:	push   0xffff
  402f55:	mov    ebx,edx
  402f57:	mov    DWORD PTR [esi],0x0
  402f5d:	push   ebx
  402f5e:	push   0x0
  402f60:	push   eax
  402f61:	mov    DWORD PTR [edi],0x0
  402f67:	mov    DWORD PTR [ebp-0x4],0x0
  402f6e:	call   DWORD PTR ds:0x4060d8
  402f74:	test   eax,eax
  402f76:	je     0x402f81
  402f78:	pop    edi
  402f79:	pop    esi
  402f7a:	pop    ebx
  402f7b:	mov    esp,ebp
  402f7d:	pop    ebp
  402f7e:	ret    0xc
  402f81:	mov    eax,DWORD PTR [ebp-0x8]
  402f84:	cmp    eax,DWORD PTR [ebp+0x8]
  402f87:	jne    0x402fe6
  402f89:	mov    eax,DWORD PTR [ebp-0x4]
  402f8c:	test   eax,eax
  402f8e:	je     0x402fe6
  402f90:	push   eax
  402f91:	push   0x0
  402f93:	push   DWORD PTR ds:0x40532c
  402f99:	call   DWORD PTR ds:0x40606c
  402f9f:	mov    DWORD PTR [ebp-0xc],eax
  402fa2:	test   eax,eax
  402fa4:	je     0x402fdf
  402fa6:	lea    ecx,[ebp-0x4]
  402fa9:	push   ecx
  402faa:	push   eax
  402fab:	lea    eax,[ebp-0x8]
  402fae:	push   eax
  402faf:	push   0xffff
  402fb4:	push   ebx
  402fb5:	push   0x0
  402fb7:	push   DWORD PTR [ebp-0x10]
  402fba:	call   DWORD PTR ds:0x4060d8
  402fc0:	mov    ebx,eax
  402fc2:	mov    eax,DWORD PTR [ebp-0xc]
  402fc5:	test   ebx,ebx
  402fc7:	jne    0x403d13
  402fcd:	mov    ecx,DWORD PTR [ebp-0x4]
  402fd0:	mov    DWORD PTR [edi],ecx
  402fd2:	pop    edi
  402fd3:	mov    DWORD PTR [esi],eax
  402fd5:	mov    eax,ebx
  402fd7:	pop    esi
  402fd8:	pop    ebx
  402fd9:	mov    esp,ebp
  402fdb:	pop    ebp
  402fdc:	ret    0xc
  402fdf:	mov    eax,0xe
  402fe4:	jmp    0x402f78
  402fe6:	mov    eax,0xd
  402feb:	jmp    0x402f78
  402fed:	int3   
  402fee:	int3   
  402fef:	int3   
  402ff0:	int3   
  402ff1:	int3   
  402ff2:	int3   
  402ff3:	int3   
  402ff4:	int3   
  402ff5:	int3   
  402ff6:	int3   
  402ff7:	int3   
  402ff8:	int3   
  402ff9:	int3   
  402ffa:	int3   
  402ffb:	int3   
  402ffc:	int3   
  402ffd:	int3   
  402ffe:	int3   
  402fff:	int3   
  403000:	mov    edi,edi
  403002:	push   ebp
  403003:	mov    ebp,esp
  403005:	push   ecx
  403006:	push   esi
  403007:	mov    esi,ecx
  403009:	test   esi,esi
  40300b:	je     0x4031a0
  403011:	lea    edx,[ecx+0x2]
  403014:	mov    ax,WORD PTR [ecx]
  403017:	add    ecx,0x2
  40301a:	test   ax,ax
  40301d:	jne    0x403014
  40301f:	sub    ecx,edx
  403021:	push   ebx
  403022:	sar    ecx,1
  403024:	push   edi
  403025:	lea    edi,[ecx*2+0x2]
  40302c:	lea    eax,[edi+0x40]
  40302f:	push   eax
  403030:	push   0x8
  403032:	push   DWORD PTR ds:0x40532c
  403038:	call   DWORD PTR ds:0x40606c
  40303e:	mov    ebx,eax
  403040:	test   ebx,ebx
  403042:	je     0x403164
  403048:	push   edi
  403049:	lea    ecx,[ebx+0x40]
  40304c:	xor    eax,eax
  40304e:	push   esi
  40304f:	push   ecx
  403050:	mov    DWORD PTR [ebp-0x4],eax
  403053:	mov    DWORD PTR [ebx],ecx
  403055:	call   0x403cec
  40305a:	mov    esi,DWORD PTR [ebx]
  40305c:	mov    edi,0x20
  403061:	add    esp,0xc
  403064:	mov    DWORD PTR [ebx+0x4],esi
  403067:	cmp    WORD PTR [esi],0x0
  40306b:	lea    ecx,[edi-0x17]
  40306e:	je     0x403094
  403070:	movzx  eax,WORD PTR [esi]
  403073:	cmp    di,ax
  403076:	je     0x403086
  403078:	cmp    cx,ax
  40307b:	je     0x403086
  40307d:	add    esi,0x2
  403080:	cmp    WORD PTR [esi],0x0
  403084:	jne    0x403070
  403086:	cmp    WORD PTR [esi],0x0
  40308a:	je     0x403094
  40308c:	xor    eax,eax
  40308e:	mov    WORD PTR [esi],ax
  403091:	add    esi,0x2
  403094:	mov    ecx,DWORD PTR [ebx+0x4]
  403097:	call   0x4031b0
  40309c:	mov    edx,0x2d
  4030a1:	movzx  eax,WORD PTR [esi]
  4030a4:	test   ax,ax
  4030a7:	je     0x40314e
  4030ad:	lea    ecx,[ecx+0x0]
  4030b0:	cmp    di,ax
  4030b3:	je     0x40313e
  4030b9:	mov    ecx,0x9
  4030be:	cmp    cx,ax
  4030c1:	je     0x40313e
  4030c3:	movzx  eax,WORD PTR [esi]
  4030c6:	test   ax,ax
  4030c9:	je     0x40314e
  4030cf:	cmp    dx,ax
  4030d2:	je     0x40316d
  4030d8:	mov    ecx,0x2f
  4030dd:	cmp    cx,ax
  4030e0:	je     0x40316d
  4030e6:	mov    edx,0x22
  4030eb:	mov    ecx,esi
  4030ed:	cmp    dx,ax
  4030f0:	je     0x404511
  4030f6:	test   ax,ax
  4030f9:	je     0x403116
  4030fb:	mov    edx,0x9
  403100:	movzx  eax,WORD PTR [esi]
  403103:	cmp    di,ax
  403106:	je     0x403116
  403108:	cmp    dx,ax
  40310b:	je     0x403116
  40310d:	add    esi,0x2
  403110:	cmp    WORD PTR [esi],0x0
  403114:	jne    0x403100
  403116:	cmp    WORD PTR [esi],0x0
  40311a:	jne    0x404542
  403120:	mov    eax,DWORD PTR [ebp-0x4]
  403123:	mov    edx,0x2d
  403128:	test   eax,eax
  40312a:	je     0x4030a1
  403130:	mov    DWORD PTR [eax],ecx
  403132:	mov    DWORD PTR [ebp-0x4],0x0
  403139:	jmp    0x4030a1
  40313e:	movzx  eax,WORD PTR [esi+0x2]
  403142:	add    esi,0x2
  403145:	test   ax,ax
  403148:	jne    0x4030b0
  40314e:	cmp    DWORD PTR [ebx+0xc],0x0
  403152:	je     0x4031a4
  403154:	mov    eax,0x1
  403159:	mov    DWORD PTR [ebx+0x8],eax
  40315c:	test   eax,eax
  40315e:	je     0x40454f
  403164:	pop    edi
  403165:	mov    eax,ebx
  403167:	pop    ebx
  403168:	pop    esi
  403169:	mov    esp,ebp
  40316b:	pop    ebp
  40316c:	ret    
  40316d:	movzx  eax,WORD PTR [esi+0x2]
  403171:	add    esi,0x2
  403174:	test   ax,ax
  403177:	je     0x4030e6
  40317d:	mov    ecx,0x6b
  403182:	cmp    cx,ax
  403185:	jne    0x4044fe
  40318b:	lea    eax,[ebx+0xc]
  40318e:	mov    DWORD PTR [ebx+0x8],0x1
  403195:	mov    DWORD PTR [ebp-0x4],eax
  403198:	add    esi,0x2
  40319b:	jmp    0x4030a1
  4031a0:	xor    eax,eax
  4031a2:	jmp    0x403168
  4031a4:	xor    eax,eax
  4031a6:	jmp    0x403159
  4031a8:	int3   
  4031a9:	int3   
  4031aa:	int3   
  4031ab:	int3   
  4031ac:	int3   
  4031ad:	int3   
  4031ae:	int3   
  4031af:	int3   
  4031b0:	mov    edx,ecx
  4031b2:	test   edx,edx
  4031b4:	je     0x4031e5
  4031b6:	mov    eax,edx
  4031b8:	push   esi
  4031b9:	lea    esi,[eax+0x2]
  4031bc:	lea    esp,[esp+0x0]
  4031c0:	mov    cx,WORD PTR [eax]
  4031c3:	add    eax,0x2
  4031c6:	test   cx,cx
  4031c9:	jne    0x4031c0
  4031cb:	sub    eax,esi
  4031cd:	sar    eax,1
  4031cf:	inc    eax
  4031d0:	push   eax
  4031d1:	push   edx
  4031d2:	push   eax
  4031d3:	push   edx
  4031d4:	push   0x100
  4031d9:	push   0x400
  4031de:	call   DWORD PTR ds:0x40609c
  4031e4:	pop    esi
  4031e5:	ret    
  4031e6:	int3   
  4031e7:	int3   
  4031e8:	int3   
  4031e9:	int3   
  4031ea:	int3   
  4031eb:	int3   
  4031ec:	int3   
  4031ed:	int3   
  4031ee:	int3   
  4031ef:	int3   
  4031f0:	mov    edi,edi
  4031f2:	push   ebp
  4031f3:	mov    ebp,esp
  4031f5:	cmp    DWORD PTR [ebp+0x8],0x0
  4031f9:	push   ebx
  4031fa:	je     0x404590
  403200:	mov    ebx,DWORD PTR [ebp+0xc]
  403203:	test   ebx,ebx
  403205:	je     0x404590
  40320b:	cmp    DWORD PTR [ebp+0x10],0x0
  40320f:	je     0x404590
  403215:	cmp    DWORD PTR [ebp+0x14],0x0
  403219:	je     0x404590
  40321f:	push   esi
  403220:	xor    esi,esi
  403222:	push   edi
  403223:	cmp    DWORD PTR ds:0x40534c,esi
  403229:	jbe    0x404586
  40322f:	xor    edi,edi
  403231:	mov    eax,ds:0x405344
  403236:	push   0x1
  403238:	push   0xffffffff
  40323a:	push   DWORD PTR [edi+eax*1]
  40323d:	push   0xffffffff
  40323f:	push   ebx
  403240:	call   DWORD PTR ds:0x406108
  403246:	cmp    eax,0x2
  403249:	je     0x40325c
  40324b:	inc    esi
  40324c:	add    edi,0x1c
  40324f:	cmp    esi,DWORD PTR ds:0x40534c
  403255:	jb     0x403231
  403257:	jmp    0x404586
  40325c:	mov    eax,ds:0x405344
  403261:	lea    ecx,[esi*8+0x0]
  403268:	sub    ecx,esi
  40326a:	lea    esi,[eax+ecx*4]
  40326d:	test   esi,esi
  40326f:	je     0x404586
  403275:	lea    edi,[esi+0x18]
  403278:	push   edi
  403279:	call   DWORD PTR ds:0x406128
  40327f:	cmp    DWORD PTR [esi+0x10],0x0
  403283:	jne    0x4032e7
  403285:	push   0x8
  403287:	push   0x8
  403289:	push   DWORD PTR ds:0x40532c
  40328f:	call   DWORD PTR ds:0x40606c
  403295:	mov    ebx,eax
  403297:	test   ebx,ebx
  403299:	je     0x4032f0
  40329b:	push   DWORD PTR [ebp+0x1c]
  40329e:	mov    eax,DWORD PTR [ebp+0x18]
  4032a1:	push   0xffffffff
  4032a3:	push   ebx
  4032a4:	push   0x401b10
  4032a9:	push   DWORD PTR [ebp+0x10]
  4032ac:	mov    DWORD PTR [ebx],eax
  4032ae:	mov    DWORD PTR [ebx+0x4],esi
  4032b1:	call   DWORD PTR ds:0x406140
  4032b7:	mov    ecx,DWORD PTR [ebp+0x8]
  4032ba:	mov    DWORD PTR [ecx],eax
  4032bc:	test   eax,eax
  4032be:	je     0x404565
  4032c4:	mov    eax,DWORD PTR [ebp+0x14]
  4032c7:	inc    DWORD PTR [esi+0xc]
  4032ca:	mov    DWORD PTR [esi+0x10],eax
  4032cd:	xor    esi,esi
  4032cf:	push   edi
  4032d0:	call   DWORD PTR ds:0x40612c
  4032d6:	test   esi,esi
  4032d8:	jne    0x404572
  4032de:	mov    eax,esi
  4032e0:	pop    edi
  4032e1:	pop    esi
  4032e2:	pop    ebx
  4032e3:	pop    ebp
  4032e4:	ret    0x18
  4032e7:	mov    esi,0xd
  4032ec:	xor    ebx,ebx
  4032ee:	jmp    0x4032cf
  4032f0:	mov    esi,0x8
  4032f5:	jmp    0x4032cf
  4032f7:	int3   
  4032f8:	int3   
  4032f9:	int3   
  4032fa:	int3   
  4032fb:	int3   
  4032fc:	int3   
  4032fd:	int3   
  4032fe:	int3   
  4032ff:	int3   
  403300:	int3   
  403301:	int3   
  403302:	int3   
  403303:	int3   
  403304:	int3   
  403305:	int3   
  403306:	int3   
  403307:	int3   
  403308:	int3   
  403309:	int3   
  40330a:	int3   
  40330b:	int3   
  40330c:	int3   
  40330d:	int3   
  40330e:	int3   
  40330f:	int3   
  403310:	mov    eax,ds:0x405354
  403315:	test   al,0x1
  403317:	jne    0x403343
  403319:	push   0x405360
  40331e:	mov    DWORD PTR ds:0x405350,0x0
  403328:	call   DWORD PTR ds:0x406194
  40332e:	test   eax,eax
  403330:	js     0x403429
  403336:	mov    eax,ds:0x405354
  40333b:	or     eax,0x1
  40333e:	mov    ds:0x405354,eax
  403343:	test   al,0x4
  403345:	jne    0x40335b
  403347:	call   0x403430
  40334c:	test   eax,eax
  40334e:	js     0x403429
  403354:	or     DWORD PTR ds:0x405354,0x4
  40335b:	push   0x64
  40335d:	push   0x8
  40335f:	push   DWORD PTR ds:0x40532c
  403365:	call   DWORD PTR ds:0x40606c
  40336b:	mov    edx,eax
  40336d:	mov    DWORD PTR ds:0x405328,edx
  403373:	test   edx,edx
  403375:	je     0x403429
  40337b:	mov    ecx,DWORD PTR ds:0x4053c0
  403381:	mov    DWORD PTR [edx],ecx
  403383:	mov    ecx,DWORD PTR ds:0x4053bc
  403389:	mov    DWORD PTR [edx+0x4],ecx
  40338c:	mov    ecx,DWORD PTR ds:0x4053b8
  403392:	mov    DWORD PTR [edx+0x8],ecx
  403395:	mov    eax,ds:0x4053b4
  40339a:	mov    DWORD PTR [edx+0xc],eax
  40339d:	mov    eax,ds:0x4053b0
  4033a2:	mov    DWORD PTR [edx+0x10],eax
  4033a5:	mov    eax,ds:0x4053ac
  4033aa:	mov    DWORD PTR [edx+0x14],eax
  4033ad:	mov    eax,ds:0x4053a8
  4033b2:	mov    DWORD PTR [edx+0x18],eax
  4033b5:	mov    eax,ds:0x40537c
  4033ba:	mov    DWORD PTR [edx+0x1c],eax
  4033bd:	mov    eax,ds:0x4053a4
  4033c2:	mov    DWORD PTR [edx+0x20],eax
  4033c5:	mov    eax,ds:0x4053a0
  4033ca:	mov    DWORD PTR [edx+0x24],eax
  4033cd:	mov    eax,ds:0x40539c
  4033d2:	mov    DWORD PTR [edx+0x28],eax
  4033d5:	mov    eax,ds:0x405398
  4033da:	mov    DWORD PTR [edx+0x2c],eax
  4033dd:	mov    eax,ds:0x405394
  4033e2:	mov    DWORD PTR [edx+0x30],eax
  4033e5:	mov    eax,ds:0x405390
  4033ea:	mov    DWORD PTR [edx+0x34],eax
  4033ed:	mov    eax,ds:0x40538c
  4033f2:	mov    DWORD PTR [edx+0x38],eax
  4033f5:	mov    eax,ds:0x405388
  4033fa:	mov    DWORD PTR [edx+0x3c],eax
  4033fd:	mov    eax,ds:0x405384
  403402:	mov    DWORD PTR [edx+0x40],eax
  403405:	mov    eax,ds:0x405380
  40340a:	mov    DWORD PTR [edx+0x44],eax
  40340d:	mov    DWORD PTR [edx+0x48],0x4047d0
  403414:	mov    DWORD PTR [edx+0x4c],0x404840
  40341b:	mov    DWORD PTR [edx+0x50],0x4048a0
  403422:	mov    DWORD PTR [edx+0x60],0x4031f0
  403429:	ret    
  40342a:	int3   
  40342b:	int3   
  40342c:	int3   
  40342d:	int3   
  40342e:	int3   
  40342f:	int3   
  403430:	mov    edi,edi
  403432:	push   ebp
  403433:	mov    ebp,esp
  403435:	sub    esp,0x1c
  403438:	mov    eax,ds:0x405000
  40343d:	xor    eax,ebp
  40343f:	mov    DWORD PTR [ebp-0x4],eax
  403442:	push   esi
  403443:	push   edi
  403444:	mov    DWORD PTR [ebp-0xc],0x0
  40344b:	xor    esi,esi
  40344d:	mov    WORD PTR [ebp-0x8],0xf00
  403453:	jmp    0x403460
  403455:	lea    esp,[esp+0x0]
  40345c:	lea    esp,[esp+0x0]
  403460:	mov    edi,DWORD PTR [esi+0x401540]
  403466:	push   0x1
  403468:	call   DWORD PTR ds:0x40619c
  40346e:	push   eax
  40346f:	mov    eax,fs:0x30
  403475:	push   0x0
  403477:	push   DWORD PTR [eax+0x18]
  40347a:	call   DWORD PTR ds:0x4061a8
  403480:	mov    DWORD PTR [edi],eax
  403482:	test   eax,eax
  403484:	je     0x4045aa
  40348a:	push   0x1
  40348c:	lea    ecx,[esi+0x401544]
  403492:	push   ecx
  403493:	push   eax
  403494:	call   DWORD PTR ds:0x4061ac
  40349a:	mov    eax,DWORD PTR [esi+0x401540]
  4034a0:	push   0x0
  4034a2:	push   DWORD PTR [eax]
  4034a4:	call   DWORD PTR ds:0x406198
  4034aa:	mov    ecx,DWORD PTR [esi+0x40154c]
  4034b0:	add    esi,0x10
  4034b3:	mov    DWORD PTR [eax],ecx
  4034b5:	cmp    esi,0xf0
  4034bb:	jb     0x403460
  4034bd:	xor    esi,esi
  4034bf:	push   ebx
  4034c0:	mov    eax,DWORD PTR [esi+0x4016f4]
  4034c6:	mov    ebx,DWORD PTR ds:0x40537c
  4034cc:	mov    edi,DWORD PTR [esi+0x4016f0]
  4034d2:	mov    DWORD PTR [ebp-0x18],eax
  4034d5:	mov    eax,fs:0x30
  4034db:	push   ebx
  4034dc:	mov    eax,DWORD PTR [eax+0x18]
  4034df:	mov    DWORD PTR [ebp-0x10],eax
  4034e2:	call   DWORD PTR ds:0x4061b0
  4034e8:	mov    al,BYTE PTR [eax]
  4034ea:	movzx  eax,al
  4034ed:	mov    DWORD PTR [ebp-0x14],eax
  4034f0:	inc    eax
  4034f1:	push   eax
  4034f2:	call   DWORD PTR ds:0x40619c
  4034f8:	push   eax
  4034f9:	push   0x0
  4034fb:	push   DWORD PTR [ebp-0x10]
  4034fe:	mov    DWORD PTR [ebp-0x1c],eax
  403501:	call   DWORD PTR ds:0x4061a8
  403507:	mov    DWORD PTR [edi],eax
  403509:	test   eax,eax
  40350b:	je     0x403598
  403511:	push   ebx
  403512:	push   eax
  403513:	push   DWORD PTR [ebp-0x1c]
  403516:	call   DWORD PTR ds:0x4061a4
  40351c:	push   DWORD PTR [edi]
  40351e:	test   eax,eax
  403520:	js     0x40459a
  403526:	call   DWORD PTR ds:0x4061b0
  40352c:	push   DWORD PTR [ebp-0x14]
  40352f:	inc    BYTE PTR [eax]
  403531:	push   DWORD PTR [edi]
  403533:	call   DWORD PTR ds:0x406198
  403539:	mov    ecx,DWORD PTR [ebp-0x18]
  40353c:	add    esi,0x8
  40353f:	mov    DWORD PTR [eax],ecx
  403541:	cmp    esi,0x40
  403544:	jb     0x4034c0
  40354a:	push   0x2
  40354c:	lea    edx,[ebp-0xc]
  40354f:	mov    ecx,0x405378
  403554:	call   0x4035b0
  403559:	test   eax,eax
  40355b:	js     0x403598
  40355d:	push   0x0
  40355f:	push   DWORD PTR ds:0x405378
  403565:	call   DWORD PTR ds:0x406198
  40356b:	push   0x1
  40356d:	mov    DWORD PTR [eax],0x2
  403573:	push   DWORD PTR ds:0x405378
  403579:	call   DWORD PTR ds:0x406198
  40357f:	mov    DWORD PTR [eax],0x1
  403585:	xor    eax,eax
  403587:	pop    ebx
  403588:	mov    ecx,DWORD PTR [ebp-0x4]
  40358b:	pop    edi
  40358c:	xor    ecx,ebp
  40358e:	pop    esi
  40358f:	call   0x403a7b
  403594:	mov    esp,ebp
  403596:	pop    ebp
  403597:	ret    
  403598:	mov    eax,0xc0000017
  40359d:	jmp    0x403587
  40359f:	int3   
  4035a0:	int3   
  4035a1:	int3   
  4035a2:	int3   
  4035a3:	int3   
  4035a4:	int3   
  4035a5:	int3   
  4035a6:	int3   
  4035a7:	int3   
  4035a8:	int3   
  4035a9:	int3   
  4035aa:	int3   
  4035ab:	int3   
  4035ac:	int3   
  4035ad:	int3   
  4035ae:	int3   
  4035af:	int3   
  4035b0:	mov    edi,edi
  4035b2:	push   ebp
  4035b3:	mov    ebp,esp
  4035b5:	push   ebx
  4035b6:	push   esi
  4035b7:	push   edi
  4035b8:	mov    edi,DWORD PTR [ebp+0x8]
  4035bb:	mov    ebx,edx
  4035bd:	push   edi
  4035be:	mov    esi,ecx
  4035c0:	call   DWORD PTR ds:0x40619c
  4035c6:	push   eax
  4035c7:	mov    eax,fs:0x30
  4035cd:	push   0x0
  4035cf:	push   DWORD PTR [eax+0x18]
  4035d2:	call   DWORD PTR ds:0x4061a8
  4035d8:	mov    DWORD PTR [esi],eax
  4035da:	test   eax,eax
  4035dc:	je     0x4035f0
  4035de:	push   edi
  4035df:	push   ebx
  4035e0:	push   eax
  4035e1:	call   DWORD PTR ds:0x4061ac
  4035e7:	xor    eax,eax
  4035e9:	pop    edi
  4035ea:	pop    esi
  4035eb:	pop    ebx
  4035ec:	pop    ebp
  4035ed:	ret    0x4
  4035f0:	mov    eax,0xc0000017
  4035f5:	jmp    0x4035e9
  4035f7:	int3   
  4035f8:	int3   
  4035f9:	int3   
  4035fa:	int3   
  4035fb:	int3   
  4035fc:	int3   
  4035fd:	int3   
  4035fe:	int3   
  4035ff:	int3   
  403600:	mov    edi,edi
  403602:	push   ebp
  403603:	mov    ebp,esp
  403605:	sub    esp,0x10
  403608:	mov    eax,ds:0x405000
  40360d:	xor    eax,ebp
  40360f:	mov    DWORD PTR [ebp-0x4],eax
  403612:	mov    ecx,DWORD PTR [ebp+0x18]
  403615:	lea    eax,[ebp-0x10]
  403618:	push   ebx
  403619:	push   esi
  40361a:	push   edi
  40361b:	push   eax
  40361c:	lea    eax,[ebp-0xc]
  40361f:	mov    DWORD PTR [ebp-0xc],0x0
  403626:	mov    edi,edx
  403628:	mov    DWORD PTR [ebp-0x10],0x0
  40362f:	mov    edx,DWORD PTR [ebp+0x1c]
  403632:	mov    esi,0x80004005
  403637:	push   eax
  403638:	call   0x403730
  40363d:	mov    ebx,DWORD PTR [ebp-0xc]
  403640:	test   eax,eax
  403642:	jne    0x4036d4
  403648:	push   0x4
  40364a:	push   0x0
  40364c:	call   DWORD PTR ds:0x408008
  403652:	mov    esi,eax
  403654:	test   esi,esi
  403656:	js     0x4036d4
  403658:	push   0x0
  40365a:	push   DWORD PTR [ebp+0xc]
  40365d:	push   0x0
  40365f:	push   DWORD PTR [ebp+0x8]
  403662:	push   edi
  403663:	push   0x0
  403665:	push   0x0
  403667:	push   0xffffffff
  403669:	push   ebx
  40366a:	call   DWORD PTR ds:0x408004
  403670:	mov    esi,eax
  403672:	test   esi,esi
  403674:	js     0x4036d4
  403676:	lea    eax,[ebp-0x8]
  403679:	push   eax
  40367a:	push   0x4014c8
  40367f:	push   0x1
  403681:	push   0x0
  403683:	push   0x4014b8
  403688:	call   DWORD PTR ds:0x408000
  40368e:	mov    esi,eax
  403690:	test   esi,esi
  403692:	js     0x4036d4
  403694:	mov    eax,DWORD PTR [ebp-0x8]
  403697:	push   0x2
  403699:	push   0x1
  40369b:	push   eax
  40369c:	mov    ecx,DWORD PTR [eax]
  40369e:	mov    esi,DWORD PTR [ecx+0xc]
  4036a1:	mov    ecx,esi
  4036a3:	call   DWORD PTR ds:0x4061c0
  4036a9:	call   esi
  4036ab:	mov    esi,eax
  4036ad:	test   esi,esi
  4036af:	js     0x4036ba
  4036b1:	cmp    DWORD PTR ds:0x40534c,0x1
  4036b8:	je     0x403708
  4036ba:	mov    eax,DWORD PTR [ebp-0x8]
  4036bd:	push   eax
  4036be:	mov    ecx,DWORD PTR [eax]
  4036c0:	mov    edi,DWORD PTR [ecx+0x8]
  4036c3:	mov    ecx,edi
  4036c5:	call   DWORD PTR ds:0x4061c0
  4036cb:	call   edi
  4036cd:	mov    DWORD PTR [ebp-0x8],0x0
  4036d4:	push   ebx
  4036d5:	push   0x0
  4036d7:	push   DWORD PTR ds:0x40532c
  4036dd:	call   DWORD PTR ds:0x406078
  4036e3:	push   DWORD PTR [ebp-0x10]
  4036e6:	call   DWORD PTR ds:0x406084
  4036ec:	pop    edi
  4036ed:	test   esi,esi
  4036ef:	pop    esi
  4036f0:	pop    ebx
  4036f1:	js     0x40371f
  4036f3:	mov    eax,0x1
  4036f8:	mov    ecx,DWORD PTR [ebp-0x4]
  4036fb:	xor    ecx,ebp
  4036fd:	call   0x403a7b
  403702:	mov    esp,ebp
  403704:	pop    ebp
  403705:	ret    0x18
  403708:	mov    edi,DWORD PTR [ebp+0x10]
  40370b:	test   edi,edi
  40370d:	je     0x4036ba
  40370f:	mov    ecx,edi
  403711:	call   0x403a20
  403716:	test   eax,eax
  403718:	jne    0x4036ba
  40371a:	jmp    0x4045b4
  40371f:	xor    eax,eax
  403721:	jmp    0x4036f8
  403723:	int3   
  403724:	int3   
  403725:	int3   
  403726:	int3   
  403727:	int3   
  403728:	int3   
  403729:	int3   
  40372a:	int3   
  40372b:	int3   
  40372c:	int3   
  40372d:	int3   
  40372e:	int3   
  40372f:	int3   
  403730:	mov    edi,edi
  403732:	push   ebp
  403733:	mov    ebp,esp
  403735:	sub    esp,0x1c
  403738:	mov    eax,DWORD PTR [ebp+0x8]
  40373b:	push   ebx
  40373c:	push   esi
  40373d:	xor    esi,esi
  40373f:	mov    DWORD PTR [ebp-0x18],edx
  403742:	mov    DWORD PTR [eax],esi
  403744:	mov    eax,DWORD PTR [ebp+0xc]
  403747:	push   edi
  403748:	mov    DWORD PTR [ebp-0x14],ecx
  40374b:	xor    edi,edi
  40374d:	mov    DWORD PTR [ebp-0x4],0x0
  403754:	mov    DWORD PTR [eax],esi
  403756:	lea    eax,[ebp-0x4]
  403759:	push   eax
  40375a:	push   0x8
  40375c:	call   DWORD PTR ds:0x4060c8
  403762:	push   eax
  403763:	call   DWORD PTR ds:0x4060bc
  403769:	test   eax,eax
  40376b:	je     0x4045d1
  403771:	lea    eax,[ebp-0x8]
  403774:	push   eax
  403775:	push   esi
  403776:	push   esi
  403777:	push   0x1
  403779:	push   DWORD PTR [ebp-0x4]
  40377c:	call   DWORD PTR ds:0x40615c
  403782:	test   eax,eax
  403784:	jne    0x403797
  403786:	call   DWORD PTR ds:0x406054
  40378c:	mov    ebx,eax
  40378e:	cmp    ebx,0x7a
  403791:	jne    0x4038f7
  403797:	lea    eax,[ebp-0xc]
  40379a:	push   eax
  40379b:	push   0x0
  40379d:	push   0x0
  40379f:	push   0x5
  4037a1:	push   DWORD PTR [ebp-0x4]
  4037a4:	call   DWORD PTR ds:0x40615c
  4037aa:	test   eax,eax
  4037ac:	jne    0x4037bf
  4037ae:	call   DWORD PTR ds:0x406054
  4037b4:	mov    ebx,eax
  4037b6:	cmp    ebx,0x7a
  4037b9:	jne    0x4038f7
  4037bf:	mov    ebx,DWORD PTR [ebp-0x8]
  4037c2:	mov    eax,DWORD PTR [ebp-0xc]
  4037c5:	add    ebx,0x3
  4037c8:	add    eax,0x14
  4037cb:	and    ebx,0xfffffffc
  4037ce:	add    eax,ebx
  4037d0:	push   eax
  4037d1:	push   0x0
  4037d3:	push   DWORD PTR ds:0x40532c
  4037d9:	call   DWORD PTR ds:0x40606c
  4037df:	mov    edi,eax
  4037e1:	test   edi,edi
  4037e3:	je     0x4045de
  4037e9:	lea    eax,[ebx+0x14]
  4037ec:	push   0x1
  4037ee:	add    eax,edi
  4037f0:	push   edi
  4037f1:	mov    DWORD PTR [ebp-0x10],eax
  4037f4:	call   DWORD PTR ds:0x40614c
  4037fa:	test   eax,eax
  4037fc:	je     0x4045e8
  403802:	lea    eax,[ebp-0x8]
  403805:	push   eax
  403806:	push   DWORD PTR [ebp-0x8]
  403809:	lea    ebx,[edi+0x14]
  40380c:	push   ebx
  40380d:	push   0x1
  40380f:	push   DWORD PTR [ebp-0x4]
  403812:	call   DWORD PTR ds:0x40615c
  403818:	test   eax,eax
  40381a:	je     0x4045f5
  403820:	lea    eax,[ebp-0xc]
  403823:	push   eax
  403824:	push   DWORD PTR [ebp-0xc]
  403827:	push   DWORD PTR [ebp-0x10]
  40382a:	push   0x5
  40382c:	push   DWORD PTR [ebp-0x4]
  40382f:	call   DWORD PTR ds:0x40615c
  403835:	test   eax,eax
  403837:	je     0x404602
  40383d:	push   0x0
  40383f:	push   DWORD PTR [ebx]
  403841:	push   edi
  403842:	call   DWORD PTR ds:0x406158
  403848:	test   eax,eax
  40384a:	je     0x40460f
  403850:	mov    eax,DWORD PTR [ebp-0x10]
  403853:	push   0x0
  403855:	push   DWORD PTR [eax]
  403857:	push   edi
  403858:	call   DWORD PTR ds:0x406154
  40385e:	test   eax,eax
  403860:	je     0x40461c
  403866:	push   0x4014d8
  40386b:	call   DWORD PTR ds:0x406150
  403871:	lea    ebx,[eax+0x10]
  403874:	cmp    DWORD PTR [ebp-0x14],esi
  403877:	jne    0x403926
  40387d:	cmp    DWORD PTR [ebp-0x18],esi
  403880:	jne    0x403958
  403886:	push   ebx
  403887:	push   0x40
  403889:	call   DWORD PTR ds:0x406080
  40388f:	mov    esi,eax
  403891:	test   esi,esi
  403893:	je     0x404629
  403899:	push   0x2
  40389b:	push   ebx
  40389c:	push   esi
  40389d:	call   DWORD PTR ds:0x406164
  4038a3:	test   eax,eax
  4038a5:	je     0x404633
  4038ab:	push   0x4014d8
  4038b0:	push   0x1
  4038b2:	push   0x2
  4038b4:	push   esi
  4038b5:	call   DWORD PTR ds:0x406160
  4038bb:	test   eax,eax
  4038bd:	je     0x404640
  4038c3:	cmp    DWORD PTR [ebp-0x14],0x0
  4038c7:	jne    0x40393b
  4038c9:	cmp    DWORD PTR [ebp-0x18],0x0
  4038cd:	jne    0x40396d
  4038d3:	push   0x0
  4038d5:	push   esi
  4038d6:	push   0x1
  4038d8:	push   edi
  4038d9:	call   DWORD PTR ds:0x406148
  4038df:	test   eax,eax
  4038e1:	je     0x404667
  4038e7:	mov    eax,DWORD PTR [ebp+0x8]
  4038ea:	mov    DWORD PTR [eax],edi
  4038ec:	xor    edi,edi
  4038ee:	mov    eax,DWORD PTR [ebp+0xc]
  4038f1:	mov    DWORD PTR [eax],esi
  4038f3:	xor    esi,esi
  4038f5:	mov    ebx,esi
  4038f7:	mov    eax,DWORD PTR [ebp-0x4]
  4038fa:	test   eax,eax
  4038fc:	je     0x403905
  4038fe:	push   eax
  4038ff:	call   DWORD PTR ds:0x406064
  403905:	push   edi
  403906:	push   0x0
  403908:	push   DWORD PTR ds:0x40532c
  40390e:	call   DWORD PTR ds:0x406078
  403914:	push   esi
  403915:	call   DWORD PTR ds:0x406084
  40391b:	pop    edi
  40391c:	pop    esi
  40391d:	mov    eax,ebx
  40391f:	pop    ebx
  403920:	mov    esp,ebp
  403922:	pop    ebp
  403923:	ret    0x8
  403926:	push   0x4014e4
  40392b:	call   DWORD PTR ds:0x406150
  403931:	add    ebx,0x8
  403934:	add    ebx,eax
  403936:	jmp    0x40387d
  40393b:	push   0x4014e4
  403940:	push   0x1
  403942:	push   0x2
  403944:	push   esi
  403945:	call   DWORD PTR ds:0x406160
  40394b:	test   eax,eax
  40394d:	jne    0x4038c9
  403953:	jmp    0x40464d
  403958:	push   0x4014f4
  40395d:	call   DWORD PTR ds:0x406150
  403963:	add    ebx,0x8
  403966:	add    ebx,eax
  403968:	jmp    0x403886
  40396d:	push   0x4014f4
  403972:	push   0x1
  403974:	push   0x2
  403976:	push   esi
  403977:	call   DWORD PTR ds:0x406160
  40397d:	test   eax,eax
  40397f:	jne    0x4038d3
  403985:	jmp    0x40465a
  40398a:	int3   
  40398b:	int3   
  40398c:	int3   
  40398d:	int3   
  40398e:	int3   
  40398f:	int3   
  403990:	mov    edi,edi
  403992:	push   ebp
  403993:	mov    ebp,esp
  403995:	sub    esp,0x8
  403998:	push   esi
  403999:	mov    esi,DWORD PTR [ebp+0x8]
  40399c:	lea    eax,[ebp-0x4]
  40399f:	push   eax
  4039a0:	push   esi
  4039a1:	lea    eax,[ebp-0x8]
  4039a4:	mov    DWORD PTR [ebp-0x4],0x4
  4039ab:	push   eax
  4039ac:	push   0x0
  4039ae:	push   edx
  4039af:	push   ecx
  4039b0:	call   DWORD PTR ds:0x4060e0
  4039b6:	test   eax,eax
  4039b8:	je     0x4039c1
  4039ba:	pop    esi
  4039bb:	mov    esp,ebp
  4039bd:	pop    ebp
  4039be:	ret    0x4
  4039c1:	cmp    DWORD PTR [ebp-0x8],0x4
  4039c5:	je     0x4039ba
  4039c7:	jmp    0x404674
  4039cc:	int3   
  4039cd:	int3   
  4039ce:	int3   
  4039cf:	int3   
  4039d0:	int3   
  4039d1:	int3   
  4039d2:	int3   
  4039d3:	int3   
  4039d4:	int3   
  4039d5:	int3   
  4039d6:	int3   
  4039d7:	int3   
  4039d8:	int3   
  4039d9:	int3   
  4039da:	int3   
  4039db:	int3   
  4039dc:	int3   
  4039dd:	int3   
  4039de:	int3   
  4039df:	int3   
  4039e0:	mov    edi,edi
  4039e2:	push   ebp
  4039e3:	mov    ebp,esp
  4039e5:	push   0x0
  4039e7:	push   DWORD PTR [ebp+0xc]
  4039ea:	push   DWORD PTR ds:0x406044
  4039f0:	push   DWORD PTR ds:0x401764
  4039f6:	push   DWORD PTR [ebp+0x8]
  4039f9:	push   0x400000
  4039fe:	call   DWORD PTR ds:0x406048
  403a04:	pop    ebp
  403a05:	ret    0x8
  403a08:	int3   
  403a09:	int3   
  403a0a:	int3   
  403a0b:	int3   
  403a0c:	int3   
  403a0d:	int3   
  403a0e:	int3   
  403a0f:	int3   
  403a10:	int3   
  403a11:	int3   
  403a12:	int3   
  403a13:	int3   
  403a14:	int3   
  403a15:	int3   
  403a16:	int3   
  403a17:	int3   
  403a18:	int3   
  403a19:	int3   
  403a1a:	int3   
  403a1b:	int3   
  403a1c:	int3   
  403a1d:	int3   
  403a1e:	int3   
  403a1f:	int3   
  403a20:	mov    edi,edi
  403a22:	push   esi
  403a23:	mov    edx,ecx
  403a25:	mov    eax,0x401500
  403a2a:	mov    esi,0xc
  403a2f:	nop
  403a30:	mov    ecx,DWORD PTR [edx]
  403a32:	cmp    ecx,DWORD PTR [eax]
  403a34:	jne    0x403a55
  403a36:	add    edx,0x4
  403a39:	add    eax,0x4
  403a3c:	sub    esi,0x4
  403a3f:	jae    0x403a30
  403a41:	xor    eax,eax
  403a43:	jmp    0x403a4a
  403a45:	sbb    eax,eax
  403a47:	or     eax,0x1
  403a4a:	pop    esi
  403a4b:	test   eax,eax
  403a4d:	jne    0x403a73
  403a4f:	mov    eax,0x1
  403a54:	ret    
  403a55:	cmp    cl,BYTE PTR [eax]
  403a57:	jne    0x403a45
  403a59:	mov    cl,BYTE PTR [edx+0x1]
  403a5c:	cmp    cl,BYTE PTR [eax+0x1]
  403a5f:	jne    0x403a45
  403a61:	mov    cl,BYTE PTR [edx+0x2]
  403a64:	cmp    cl,BYTE PTR [eax+0x2]
  403a67:	jne    0x403a45
  403a69:	mov    cl,BYTE PTR [edx+0x3]
  403a6c:	cmp    cl,BYTE PTR [eax+0x3]
  403a6f:	jne    0x403a45
  403a71:	jmp    0x403a41
  403a73:	xor    eax,eax
  403a75:	ret    
  403a76:	int3   
  403a77:	int3   
  403a78:	int3   
  403a79:	int3   
  403a7a:	int3   
  403a7b:	cmp    ecx,DWORD PTR ds:0x405000
  403a81:	jne    0x403a86
  403a83:	ret    0x0
  403a86:	jmp    0x403b66
  403a8b:	int3   
  403a8c:	int3   
  403a8d:	int3   
  403a8e:	int3   
  403a8f:	int3   
  403a90:	mov    edi,edi
  403a92:	push   ebp
  403a93:	mov    ebp,esp
  403a95:	sub    esp,0x14
  403a98:	and    DWORD PTR [ebp-0xc],0x0
  403a9c:	and    DWORD PTR [ebp-0x8],0x0
  403aa0:	mov    eax,ds:0x405000
  403aa5:	push   esi
  403aa6:	push   edi
  403aa7:	mov    edi,0xbb40e64e
  403aac:	mov    esi,0xffff0000
  403ab1:	cmp    eax,edi
  403ab3:	je     0x403ac2
  403ab5:	test   esi,eax
  403ab7:	je     0x403ac2
  403ab9:	not    eax
  403abb:	mov    ds:0x405004,eax
  403ac0:	jmp    0x403b2c
  403ac2:	lea    eax,[ebp-0xc]
  403ac5:	push   eax
  403ac6:	call   DWORD PTR ds:0x406138
  403acc:	mov    eax,DWORD PTR [ebp-0x8]
  403acf:	xor    eax,DWORD PTR [ebp-0xc]
  403ad2:	mov    DWORD PTR [ebp-0x4],eax
  403ad5:	call   DWORD PTR ds:0x4060b4
  403adb:	xor    DWORD PTR [ebp-0x4],eax
  403ade:	call   DWORD PTR ds:0x4060c0
  403ae4:	xor    DWORD PTR [ebp-0x4],eax
  403ae7:	call   DWORD PTR ds:0x406134
  403aed:	xor    eax,DWORD PTR [ebp-0x4]
  403af0:	lea    ecx,[ebp-0x4]
  403af3:	xor    eax,ecx
  403af5:	mov    DWORD PTR [ebp-0x4],eax
  403af8:	lea    eax,[ebp-0x14]
  403afb:	push   eax
  403afc:	call   DWORD PTR ds:0x4060d0
  403b02:	mov    eax,DWORD PTR [ebp-0x10]
  403b05:	xor    eax,DWORD PTR [ebp-0x14]
  403b08:	mov    ecx,DWORD PTR [ebp-0x4]
  403b0b:	xor    ecx,eax
  403b0d:	cmp    ecx,edi
  403b0f:	je     0x403b19
  403b11:	test   DWORD PTR ds:0x405000,esi
  403b17:	jne    0x403b1e
  403b19:	mov    ecx,0xbb40e64f
  403b1e:	mov    DWORD PTR ds:0x405000,ecx
  403b24:	not    ecx
  403b26:	mov    DWORD PTR ds:0x405004,ecx
  403b2c:	pop    edi
  403b2d:	pop    esi
  403b2e:	mov    esp,ebp
  403b30:	pop    ebp
  403b31:	ret    
  403b32:	int3   
  403b33:	int3   
  403b34:	int3   
  403b35:	int3   
  403b36:	int3   
  403b37:	mov    edi,edi
  403b39:	push   ebp
  403b3a:	mov    ebp,esp
  403b3c:	push   0x0
  403b3e:	call   DWORD PTR ds:0x406058
  403b44:	push   DWORD PTR [ebp+0x8]
  403b47:	call   DWORD PTR ds:0x40605c
  403b4d:	push   0xc0000409
  403b52:	call   DWORD PTR ds:0x4060c8
  403b58:	push   eax
  403b59:	call   DWORD PTR ds:0x4060c4
  403b5f:	pop    ebp
  403b60:	ret    
  403b61:	int3   
  403b62:	int3   
  403b63:	int3   
  403b64:	int3   
  403b65:	int3   
  403b66:	mov    edi,edi
  403b68:	push   ebp
  403b69:	mov    ebp,esp
  403b6b:	sub    esp,0x324
  403b71:	mov    ds:0x405108,eax
  403b76:	mov    DWORD PTR ds:0x405104,ecx
  403b7c:	mov    DWORD PTR ds:0x405100,edx
  403b82:	mov    DWORD PTR ds:0x4050fc,ebx
  403b88:	mov    DWORD PTR ds:0x4050f8,esi
  403b8e:	mov    DWORD PTR ds:0x4050f4,edi
  403b94:	data16 mov WORD PTR ds:0x405120,ss
  403b9b:	data16 mov WORD PTR ds:0x405114,cs
  403ba2:	data16 mov WORD PTR ds:0x4050f0,ds
  403ba9:	data16 mov WORD PTR ds:0x4050ec,es
  403bb0:	data16 mov WORD PTR ds:0x4050e8,fs
  403bb7:	data16 mov WORD PTR ds:0x4050e4,gs
  403bbe:	pushf  
  403bbf:	pop    DWORD PTR ds:0x405118
  403bc5:	mov    eax,DWORD PTR [ebp+0x0]
  403bc8:	mov    ds:0x40510c,eax
  403bcd:	mov    eax,DWORD PTR [ebp+0x4]
  403bd0:	mov    ds:0x405110,eax
  403bd5:	lea    eax,[ebp+0x8]
  403bd8:	mov    ds:0x40511c,eax
  403bdd:	mov    eax,DWORD PTR [ebp-0x324]
  403be3:	mov    DWORD PTR ds:0x405058,0x10001
  403bed:	mov    eax,ds:0x405110
  403bf2:	mov    ds:0x405014,eax
  403bf7:	mov    DWORD PTR ds:0x405008,0xc0000409
  403c01:	mov    DWORD PTR ds:0x40500c,0x1
  403c0b:	mov    DWORD PTR ds:0x405018,0x3
  403c15:	push   0x4
  403c17:	pop    eax
  403c18:	imul   eax,eax,0x0
  403c1b:	mov    DWORD PTR [eax+0x40501c],0x2
  403c25:	push   0x4
  403c27:	pop    eax
  403c28:	shl    eax,0x0
  403c2b:	mov    ecx,DWORD PTR ds:0x405000
  403c31:	mov    DWORD PTR [eax+0x40501c],ecx
  403c37:	push   0x4
  403c39:	pop    eax
  403c3a:	shl    eax,1
  403c3c:	mov    ecx,DWORD PTR ds:0x405004
  403c42:	mov    DWORD PTR [eax+0x40501c],ecx
  403c48:	push   0x4
  403c4a:	pop    eax
  403c4b:	imul   eax,eax,0x0
  403c4e:	mov    ecx,DWORD PTR ds:0x405000
  403c54:	mov    DWORD PTR [ebp+eax*1-0x8],ecx
  403c58:	push   0x4
  403c5a:	pop    eax
  403c5b:	shl    eax,0x0
  403c5e:	mov    ecx,DWORD PTR ds:0x405004
  403c64:	mov    DWORD PTR [ebp+eax*1-0x8],ecx
  403c68:	push   0x401510
  403c6d:	call   0x403b37
  403c72:	mov    esp,ebp
  403c74:	pop    ebp
  403c75:	ret    
  403c76:	int3   
  403c77:	int3   
  403c78:	int3   
  403c79:	int3   
  403c7a:	int3   
  403c7b:	int3   
  403c7c:	int3   
  403c7d:	int3   
  403c7e:	int3   
  403c7f:	int3   
  403c80:	mov    eax,0x40800c
  403c85:	jmp    0x403c8f
  403c8a:	int3   
  403c8b:	int3   
  403c8c:	int3   
  403c8d:	int3   
  403c8e:	int3   
  403c8f:	push   ecx
  403c90:	push   edx
  403c91:	push   eax
  403c92:	push   0x404a20
  403c97:	call   0x4039e0
  403c9c:	pop    edx
  403c9d:	pop    ecx
  403c9e:	jmp    eax
  403ca0:	int3   
  403ca1:	int3   
  403ca2:	int3   
  403ca3:	int3   
  403ca4:	int3   
  403ca5:	int3   
  403ca6:	int3   
  403ca7:	int3   
  403ca8:	int3   
  403ca9:	int3   
  403caa:	int3   
  403cab:	int3   
  403cac:	int3   
  403cad:	int3   
  403cae:	int3   
  403caf:	int3   
  403cb0:	mov    eax,0x408000
  403cb5:	jmp    0x403c8f
  403cba:	int3   
  403cbb:	int3   
  403cbc:	int3   
  403cbd:	int3   
  403cbe:	int3   
  403cbf:	int3   
  403cc0:	mov    eax,0x408004
  403cc5:	jmp    0x403c8f
  403cca:	int3   
  403ccb:	int3   
  403ccc:	int3   
  403ccd:	int3   
  403cce:	int3   
  403ccf:	int3   
  403cd0:	mov    eax,0x408008
  403cd5:	jmp    0x403c8f
  403cda:	int3   
  403cdb:	int3   
  403cdc:	int3   
  403cdd:	int3   
  403cde:	int3   
  403cdf:	int3   
  403ce0:	jmp    DWORD PTR ds:0x406044
  403ce6:	int3   
  403ce7:	int3   
  403ce8:	int3   
  403ce9:	int3   
  403cea:	int3   
  403ceb:	int3   
  403cec:	jmp    DWORD PTR ds:0x40602c
  403cf2:	int3   
  403cf3:	int3   
  403cf4:	int3   
  403cf5:	int3   
  403cf6:	int3   
  403cf7:	int3   
  403cf8:	int3   
  403cf9:	int3   
  403cfa:	int3   
  403cfb:	int3   
  403cfc:	int3   
  403cfd:	int3   
  403cfe:	int3   
  403cff:	int3   
  403d00:	ret    
  403d01:	int3   
  403d02:	int3   
  403d03:	int3   
  403d04:	int3   
  403d05:	int3   
  403d06:	int3   
  403d07:	int3   
  403d08:	int3   
  403d09:	int3   
  403d0a:	int3   
  403d0b:	int3   
  403d0c:	int3   
  403d0d:	int3   
  403d0e:	int3   
  403d0f:	int3   
  403d10:	ret    0x4
  403d13:	push   eax
  403d14:	push   0x0
  403d16:	push   DWORD PTR ds:0x40532c
  403d1c:	call   DWORD PTR ds:0x406078
  403d22:	mov    eax,ebx
  403d24:	jmp    0x402f78
  403d29:	mov    ecx,ebx
  403d2b:	lea    edx,[ecx+0x2]
  403d2e:	mov    ax,WORD PTR [ecx]
  403d31:	add    ecx,0x2
  403d34:	test   ax,ax
  403d37:	jne    0x403d2e
  403d39:	sub    ecx,edx
  403d3b:	mov    DWORD PTR [ebp-0x14],ebx
  403d3e:	sar    ecx,1
  403d40:	mov    DWORD PTR [ebp-0x10],0x0
  403d47:	mov    DWORD PTR [ebp-0x8],0x0
  403d4e:	lea    eax,[ecx*2+0x2]
  403d55:	mov    DWORD PTR [ebp-0xc],eax
  403d58:	lea    eax,[ebp-0x14]
  403d5b:	push   eax
  403d5c:	push   0x1
  403d5e:	push   0x401120
  403d63:	push   DWORD PTR ds:0x40535c
  403d69:	push   DWORD PTR ds:0x405358
  403d6f:	call   DWORD PTR ds:0x406180
  403d75:	jmp    0x401e62
  403d7a:	mov    ecx,ebx
  403d7c:	lea    edx,[ecx+0x2]
  403d7f:	mov    ax,WORD PTR [ecx]
  403d82:	add    ecx,0x2
  403d85:	test   ax,ax
  403d88:	jne    0x403d7f
  403d8a:	sub    ecx,edx
  403d8c:	mov    DWORD PTR [ebp-0x14],ebx
  403d8f:	sar    ecx,1
  403d91:	mov    DWORD PTR [ebp-0x10],0x0
  403d98:	mov    DWORD PTR [ebp-0x8],0x0
  403d9f:	lea    eax,[ecx*2+0x2]
  403da6:	mov    DWORD PTR [ebp-0xc],eax
  403da9:	lea    eax,[ebp-0x14]
  403dac:	push   eax
  403dad:	push   0x1
  403daf:	push   0x401130
  403db4:	push   DWORD PTR ds:0x40535c
  403dba:	push   DWORD PTR ds:0x405358
  403dc0:	call   DWORD PTR ds:0x406180
  403dc6:	jmp    0x401e99
  403dcb:	mov    ecx,DWORD PTR [ebp-0x20]
  403dce:	test   ecx,ecx
  403dd0:	je     0x401e99
  403dd6:	mov    edx,DWORD PTR [ebp-0x24]
  403dd9:	call   0x404689
  403dde:	jmp    0x401e99
  403de3:	mov    ecx,ebx
  403de5:	lea    edx,[ecx+0x2]
  403de8:	mov    ax,WORD PTR [ecx]
  403deb:	add    ecx,0x2
  403dee:	test   ax,ax
  403df1:	jne    0x403de8
  403df3:	sub    ecx,edx
  403df5:	mov    DWORD PTR [ebp-0x14],ebx
  403df8:	sar    ecx,1
  403dfa:	mov    DWORD PTR [ebp-0x10],0x0
  403e01:	mov    DWORD PTR [ebp-0x8],0x0
  403e08:	lea    eax,[ecx*2+0x2]
  403e0f:	mov    DWORD PTR [ebp-0xc],eax
  403e12:	lea    eax,[ebp-0x14]
  403e15:	push   eax
  403e16:	push   0x1
  403e18:	push   0x401120
  403e1d:	push   DWORD PTR ds:0x40535c
  403e23:	push   DWORD PTR ds:0x405358
  403e29:	call   DWORD PTR ds:0x406180
  403e2f:	jmp    0x401ffb
  403e34:	mov    ecx,DWORD PTR [ebp-0x20]
  403e37:	test   ecx,ecx
  403e39:	je     0x401f9a
  403e3f:	mov    edx,DWORD PTR [ebp-0x24]
  403e42:	call   0x404689
  403e47:	jmp    0x401f9a
  403e4c:	mov    ecx,DWORD PTR [ebp-0x420]
  403e52:	xor    esi,esi
  403e54:	mov    DWORD PTR [ecx],0x8
  403e5a:	jmp    0x4025a0
  403e5f:	mov    ecx,DWORD PTR [ebp-0x420]
  403e65:	xor    esi,esi
  403e67:	mov    DWORD PTR [ecx],eax
  403e69:	jmp    0x4025a0
  403e6e:	mov    ecx,DWORD PTR [ebp-0x420]
  403e74:	xor    esi,esi
  403e76:	mov    DWORD PTR [ecx],0x2
  403e7c:	jmp    0x4025a0
  403e81:	mov    ecx,DWORD PTR [ebp-0x420]
  403e87:	xor    esi,esi
  403e89:	mov    DWORD PTR [ecx],0x2
  403e8f:	jmp    0x4025a0
  403e94:	test   eax,eax
  403e96:	je     0x403eb0
  403e98:	cmp    eax,0x3
  403e9b:	je     0x4022e5
  403ea1:	mov    ecx,DWORD PTR [ebp-0x420]
  403ea7:	xor    esi,esi
  403ea9:	mov    DWORD PTR [ecx],eax
  403eab:	jmp    0x4025a0
  403eb0:	cmp    DWORD PTR [ebp-0x444],0x2
  403eb7:	je     0x403ecc
  403eb9:	mov    ecx,DWORD PTR [ebp-0x420]
  403ebf:	xor    esi,esi
  403ec1:	mov    DWORD PTR [ecx],0x2
  403ec7:	jmp    0x4025a0
  403ecc:	cmp    WORD PTR [ebx],0x0
  403ed0:	jne    0x403ee5
  403ed2:	mov    ecx,DWORD PTR [ebp-0x420]
  403ed8:	xor    esi,esi
  403eda:	mov    DWORD PTR [ecx],0x2
  403ee0:	jmp    0x4025a0
  403ee5:	push   0x104
  403eea:	lea    eax,[ebp-0x210]
  403ef0:	push   eax
  403ef1:	push   ebx
  403ef2:	call   DWORD PTR ds:0x4060a8
  403ef8:	push   ebx
  403ef9:	push   0x0
  403efb:	push   DWORD PTR ds:0x40532c
  403f01:	call   DWORD PTR ds:0x406078
  403f07:	xor    ebx,ebx
  403f09:	lea    ecx,[ebp-0x210]
  403f0f:	mov    DWORD PTR [ebp-0x434],ebx
  403f15:	call   0x4031b0
  403f1a:	lea    ecx,[ebp-0x41c]
  403f20:	lea    edx,[ecx+0x2]
  403f23:	mov    ax,WORD PTR [ecx]
  403f26:	add    ecx,0x2
  403f29:	test   ax,ax
  403f2c:	jne    0x403f23
  403f2e:	sub    ecx,edx
  403f30:	sar    ecx,1
  403f32:	je     0x402304
  403f38:	movzx  eax,WORD PTR [ebp+ecx*2-0x41e]
  403f40:	dec    ecx
  403f41:	cmp    eax,0x5c
  403f44:	je     0x403f54
  403f46:	cmp    eax,0x2f
  403f49:	je     0x403f54
  403f4b:	test   ecx,ecx
  403f4d:	jne    0x403f38
  403f4f:	jmp    0x402304
  403f54:	lea    eax,[ebp-0x41a]
  403f5a:	lea    eax,[eax+ecx*2]
  403f5d:	mov    DWORD PTR [ebp-0x428],eax
  403f63:	jmp    0x402304
  403f68:	mov    eax,DWORD PTR [esi+0x10]
  403f6b:	lea    ecx,[ebp-0x210]
  403f71:	mov    dx,WORD PTR [eax]
  403f74:	cmp    dx,WORD PTR [ecx]
  403f77:	jne    0x403f97
  403f79:	test   dx,dx
  403f7c:	je     0x403f93
  403f7e:	mov    dx,WORD PTR [eax+0x2]
  403f82:	cmp    dx,WORD PTR [ecx+0x2]
  403f86:	jne    0x403f97
  403f88:	add    eax,0x4
  403f8b:	add    ecx,0x4
  403f8e:	test   dx,dx
  403f91:	jne    0x403f71
  403f93:	xor    eax,eax
  403f95:	jmp    0x403f9c
  403f97:	sbb    eax,eax
  403f99:	or     eax,0x1
  403f9c:	test   eax,eax
  403f9e:	jne    0x402364
  403fa4:	mov    eax,DWORD PTR [esi+0x18]
  403fa7:	mov    ecx,DWORD PTR [ebx]
  403fa9:	mov    eax,DWORD PTR [eax]
  403fab:	mov    dx,WORD PTR [eax]
  403fae:	cmp    dx,WORD PTR [ecx]
  403fb1:	jne    0x403fd1
  403fb3:	test   dx,dx
  403fb6:	je     0x403fcd
  403fb8:	mov    dx,WORD PTR [eax+0x2]
  403fbc:	cmp    dx,WORD PTR [ecx+0x2]
  403fc0:	jne    0x403fd1
  403fc2:	add    eax,0x4
  403fc5:	add    ecx,0x4
  403fc8:	test   dx,dx
  403fcb:	jne    0x403fab
  403fcd:	xor    eax,eax
  403fcf:	jmp    0x403fd6
  403fd1:	sbb    eax,eax
  403fd3:	or     eax,0x1
  403fd6:	test   eax,eax
  403fd8:	je     0x402370
  403fde:	jmp    0x402364
  403fe3:	lea    eax,[ebp-0x210]
  403fe9:	mov    DWORD PTR [ebp-0x468],eax
  403fef:	lea    eax,[ebp-0x470]
  403ff5:	push   eax
  403ff6:	call   DWORD PTR ds:0x4060f4
  403ffc:	mov    esi,eax
  403ffe:	mov    DWORD PTR [ebp-0x430],esi
  404004:	cmp    esi,0xffffffff
  404007:	jne    0x402396
  40400d:	call   DWORD PTR ds:0x406054
  404013:	mov    ecx,DWORD PTR [ebp-0x420]
  404019:	mov    DWORD PTR [ecx],eax
  40401b:	jmp    0x4025a0
  404020:	mov    ecx,0x3
  404025:	int    0x29
  404027:	mov    eax,DWORD PTR [ebp-0x420]
  40402d:	mov    edi,DWORD PTR [ebp-0x42c]
  404033:	mov    ebx,DWORD PTR [ebp-0x424]
  404039:	mov    DWORD PTR [eax],0x8
  40403f:	jmp    0x40246d
  404044:	mov    ebx,DWORD PTR [ebp-0x424]
  40404a:	jmp    0x402488
  40404f:	push   esi
  404050:	push   0x0
  404052:	push   DWORD PTR ds:0x40532c
  404058:	call   DWORD PTR ds:0x406078
  40405e:	call   DWORD PTR ds:0x406054
  404064:	mov    ebx,DWORD PTR [ebp-0x424]
  40406a:	jmp    0x402652
  40406f:	mov    eax,DWORD PTR [ebp-0x420]
  404075:	mov    DWORD PTR [eax],esi
  404077:	jmp    0x4024ba
  40407c:	mov    DWORD PTR [ebp-0x468],eax
  404082:	lea    eax,[ebp-0x470]
  404088:	push   eax
  404089:	call   DWORD PTR ds:0x4060f4
  40408f:	mov    esi,eax
  404091:	cmp    esi,0xffffffff
  404094:	jne    0x4040a5
  404096:	call   DWORD PTR ds:0x406054
  40409c:	mov    DWORD PTR [edi],eax
  40409e:	xor    ebx,ebx
  4040a0:	jmp    0x4025a0
  4040a5:	mov    eax,DWORD PTR [ebx+0x4]
  4040a8:	mov    eax,DWORD PTR [eax+0x14]
  4040ab:	test   eax,eax
  4040ad:	je     0x4040bb
  4040af:	cmp    eax,0xffffffff
  4040b2:	je     0x4040bb
  4040b4:	push   eax
  4040b5:	call   DWORD PTR ds:0x4060f8
  4040bb:	mov    eax,DWORD PTR [ebx+0x4]
  4040be:	mov    DWORD PTR [eax+0x14],esi
  4040c1:	xor    eax,eax
  4040c3:	mov    DWORD PTR [ebp-0x430],eax
  4040c9:	jmp    0x4024c4
  4040ce:	call   DWORD PTR ds:0x406054
  4040d4:	mov    ecx,DWORD PTR [ebp-0x420]
  4040da:	mov    DWORD PTR [ecx],eax
  4040dc:	jmp    0x402538
  4040e1:	call   DWORD PTR ds:0x406054
  4040e7:	mov    ecx,DWORD PTR [ebp-0x420]
  4040ed:	mov    DWORD PTR [ecx],eax
  4040ef:	jmp    0x40252a
  4040f4:	push   0x8
  4040f6:	push   0x0
  4040f8:	push   DWORD PTR [edi+0xc]
  4040fb:	call   DWORD PTR ds:0x406090
  404101:	test   eax,eax
  404103:	je     0x40257e
  404109:	mov    DWORD PTR [edi+0x8],eax
  40410c:	jmp    0x402570
  404111:	push   ebx
  404112:	push   0x0
  404114:	push   DWORD PTR ds:0x40532c
  40411a:	call   DWORD PTR ds:0x406078
  404120:	jmp    0x4025b9
  404125:	cmp    esi,0xffffffff
  404128:	je     0x4025c1
  40412e:	push   esi
  40412f:	call   DWORD PTR ds:0x4060f8
  404135:	jmp    0x4025c1
  40413a:	mov    ecx,DWORD PTR [ebp-0x18]
  40413d:	mov    edx,ecx
  40413f:	lea    esi,[edx+0x2]
  404142:	mov    ax,WORD PTR [edx]
  404145:	add    edx,0x2
  404148:	test   ax,ax
  40414b:	jne    0x404142
  40414d:	sub    edx,esi
  40414f:	mov    DWORD PTR [ebp-0x14],ecx
  404152:	sar    edx,1
  404154:	mov    DWORD PTR [ebp-0x10],0x0
  40415b:	mov    DWORD PTR [ebp-0x8],0x0
  404162:	lea    eax,[edx*2+0x2]
  404169:	mov    DWORD PTR [ebp-0xc],eax
  40416c:	lea    eax,[ebp-0x14]
  40416f:	push   eax
  404170:	push   0x1
  404172:	push   ebx
  404173:	push   DWORD PTR ds:0x40535c
  404179:	push   DWORD PTR ds:0x405358
  40417f:	call   DWORD PTR ds:0x406180
  404185:	jmp    0x4026fc
  40418a:	push   0x1
  40418c:	call   DWORD PTR ds:0x4060c8
  404192:	push   eax
  404193:	call   DWORD PTR ds:0x4060b8
  404199:	test   eax,eax
  40419b:	jne    0x40285e
  4041a1:	push   0x1
  4041a3:	call   DWORD PTR ds:0x4060b0
  4041a9:	int3   
  4041aa:	push   0x1
  4041ac:	push   0x0
  4041ae:	push   0x1
  4041b0:	call   DWORD PTR ds:0x406190
  4041b6:	add    esp,0xc
  4041b9:	jmp    0x402932
  4041be:	mov    eax,fs:0x30
  4041c4:	mov    ecx,DWORD PTR [eax+0x240]
  4041ca:	mov    eax,fs:0x30
  4041d0:	or     ecx,0x1
  4041d3:	mov    DWORD PTR [eax+0x240],ecx
  4041d9:	jmp    0x40294a
  4041de:	push   0x8
  4041e0:	lea    eax,[ebp-0x8]
  4041e3:	mov    DWORD PTR [ebp-0x8],0x4
  4041ea:	push   eax
  4041eb:	push   0x34
  4041ed:	push   0xffffffff
  4041ef:	mov    DWORD PTR [ebp-0x4],0x1
  4041f6:	call   DWORD PTR ds:0x4061b8
  4041fc:	test   eax,eax
  4041fe:	js     0x402976
  404204:	jmp    0x402954
  404209:	mov    eax,DWORD PTR [ebp-0x220]
  40420f:	lea    ebx,[ebx+eax*2]
  404212:	add    ebx,0x2
  404215:	jmp    0x402b9d
  40421a:	mov    eax,DWORD PTR [ebp-0x21c]
  404220:	add    eax,0x2
  404223:	push   eax
  404224:	push   0x0
  404226:	push   DWORD PTR ds:0x40532c
  40422c:	call   DWORD PTR ds:0x40606c
  404232:	mov    ecx,eax
  404234:	mov    DWORD PTR [ebp-0x214],ecx
  40423a:	test   ecx,ecx
  40423c:	je     0x402bbd
  404242:	mov    esi,DWORD PTR [ebp-0x210]
  404248:	mov    DWORD PTR [ebp-0x21c],ecx
  40424e:	test   esi,esi
  404250:	jne    0x4042ce
  404252:	cmp    ebx,0x2
  404255:	jb     0x4042ce
  404257:	mov    esi,DWORD PTR ds:0x405348
  40425d:	test   esi,esi
  40425f:	je     0x4042ce
  404261:	cmp    WORD PTR [esi],0x0
  404265:	je     0x4042ce
  404267:	mov    ebx,eax
  404269:	mov    ecx,esi
  40426b:	lea    edx,[ecx+0x2]
  40426e:	mov    ax,WORD PTR [ecx]
  404271:	add    ecx,0x2
  404274:	test   ax,ax
  404277:	jne    0x40426e
  404279:	sub    ecx,edx
  40427b:	sar    ecx,1
  40427d:	lea    eax,[ecx*2+0x2]
  404284:	push   eax
  404285:	push   esi
  404286:	push   ebx
  404287:	call   0x403cec
  40428c:	mov    ecx,esi
  40428e:	add    esp,0xc
  404291:	lea    edx,[ecx+0x2]
  404294:	mov    ax,WORD PTR [ecx]
  404297:	add    ecx,0x2
  40429a:	test   ax,ax
  40429d:	jne    0x404294
  40429f:	sub    ecx,edx
  4042a1:	sar    ecx,1
  4042a3:	lea    ebx,[ebx+ecx*2]
  4042a6:	mov    ecx,esi
  4042a8:	add    ebx,0x2
  4042ab:	lea    edx,[ecx+0x2]
  4042ae:	mov    ax,WORD PTR [ecx]
  4042b1:	add    ecx,0x2
  4042b4:	test   ax,ax
  4042b7:	jne    0x4042ae
  4042b9:	sub    ecx,edx
  4042bb:	sar    ecx,1
  4042bd:	lea    esi,[esi+ecx*2]
  4042c0:	add    esi,0x2
  4042c3:	cmp    WORD PTR [esi],ax
  4042c6:	jne    0x404269
  4042c8:	mov    DWORD PTR [ebp-0x21c],ebx
  4042ce:	mov    ebx,DWORD PTR [ebp-0x21c]
  4042d4:	xor    esi,esi
  4042d6:	push   0x0
  4042d8:	push   0x0
  4042da:	push   0x0
  4042dc:	push   0x0
  4042de:	lea    eax,[ebp-0x220]
  4042e4:	mov    DWORD PTR [ebp-0x220],0x101
  4042ee:	push   eax
  4042ef:	lea    eax,[ebp-0x208]
  4042f5:	push   eax
  4042f6:	push   esi
  4042f7:	push   DWORD PTR [ebp-0x218]
  4042fd:	call   DWORD PTR ds:0x4060e8
  404303:	mov    DWORD PTR [ebp-0x210],eax
  404309:	test   eax,eax
  40430b:	jne    0x40434f
  40430d:	lea    ecx,[ebp-0x208]
  404313:	lea    edx,[ecx+0x2]
  404316:	mov    ax,WORD PTR [ecx]
  404319:	add    ecx,0x2
  40431c:	test   ax,ax
  40431f:	jne    0x404316
  404321:	sub    ecx,edx
  404323:	sar    ecx,1
  404325:	lea    eax,[ecx*2+0x2]
  40432c:	push   eax
  40432d:	lea    eax,[ebp-0x208]
  404333:	push   eax
  404334:	push   ebx
  404335:	call   0x403cec
  40433a:	mov    eax,DWORD PTR [ebp-0x220]
  404340:	add    esp,0xc
  404343:	lea    ebx,[ebx+eax*2]
  404346:	mov    eax,DWORD PTR [ebp-0x210]
  40434c:	add    ebx,0x2
  40434f:	inc    esi
  404350:	test   eax,eax
  404352:	je     0x4042d6
  404354:	xor    eax,eax
  404356:	mov    WORD PTR [ebx],ax
  404359:	push   DWORD PTR ds:0x405348
  40435f:	push   eax
  404360:	push   DWORD PTR ds:0x40532c
  404366:	call   DWORD PTR ds:0x406078
  40436c:	mov    ecx,DWORD PTR [ebp-0x214]
  404372:	xor    esi,esi
  404374:	mov    ebx,DWORD PTR [ebp-0x224]
  40437a:	mov    eax,ecx
  40437c:	mov    ds:0x405348,eax
  404381:	jmp    0x402bc8
  404386:	test   ecx,ecx
  404388:	je     0x402be3
  40438e:	jmp    0x402bd9
  404393:	mov    esi,0xd
  404398:	jmp    0x402be3
  40439d:	mov    DWORD PTR [ebp-0x20c],0x0
  4043a7:	jmp    0x402c2f
  4043ac:	mov    DWORD PTR [ebp-0x20c],0x0
  4043b6:	jmp    0x402c69
  4043bb:	mov    DWORD PTR [ebp-0x20c],0x0
  4043c5:	jmp    0x402ca3
  4043ca:	mov    eax,DWORD PTR [ebp-0x20c]
  4043d0:	mov    DWORD PTR [edi+0x18],eax
  4043d3:	jmp    0x402cf9
  4043d8:	lea    ebx,[edi+0x20]
  4043db:	push   ebx
  4043dc:	push   DWORD PTR [ebp-0x210]
  4043e2:	call   DWORD PTR ds:0x40800c
  4043e8:	test   eax,eax
  4043ea:	jns    0x40440b
  4043ec:	mov    eax,ds:0x401500
  4043f1:	mov    DWORD PTR [ebx],eax
  4043f3:	mov    eax,ds:0x401504
  4043f8:	mov    DWORD PTR [ebx+0x4],eax
  4043fb:	mov    eax,ds:0x401508
  404400:	mov    DWORD PTR [ebx+0x8],eax
  404403:	mov    eax,ds:0x40150c
  404408:	mov    DWORD PTR [ebx+0xc],eax
  40440b:	push   DWORD PTR [ebp-0x210]
  404411:	push   0x0
  404413:	push   DWORD PTR ds:0x40532c
  404419:	call   DWORD PTR ds:0x406078
  40441f:	jmp    0x402d47
  404424:	mov    DWORD PTR [ebp-0x20c],0x0
  40442e:	jmp    0x402d81
  404433:	mov    DWORD PTR [ebp-0x20c],0x0
  40443d:	jmp    0x402dbb
  404442:	cmp    DWORD PTR [ebp-0x210],0x4
  404449:	je     0x40445a
  40444b:	mov    DWORD PTR [ebp-0x20c],0x0
  404455:	jmp    0x402df5
  40445a:	xor    eax,eax
  40445c:	cmp    DWORD PTR [ebp-0x20c],eax
  404462:	setne  al
  404465:	mov    DWORD PTR [edi+0x38],eax
  404468:	jmp    0x402df5
  40446d:	cmp    DWORD PTR [ebp-0x210],0x4
  404474:	je     0x404485
  404476:	mov    DWORD PTR [ebp-0x20c],0x0
  404480:	jmp    0x402e2f
  404485:	cmp    DWORD PTR [ebp-0x20c],0x0
  40448c:	je     0x402e2f
  404492:	or     DWORD PTR [edi+0x3c],0x8
  404496:	jmp    0x402e2f
  40449b:	mov    ecx,DWORD PTR [ebp-0x228]
  4044a1:	lea    eax,[ebp-0x210]
  4044a7:	push   eax
  4044a8:	lea    eax,[ebp-0x214]
  4044ae:	mov    edx,0x401730
  4044b3:	push   eax
  4044b4:	push   0x1
  4044b6:	call   0x402f30
  4044bb:	test   eax,eax
  4044bd:	jne    0x4044ed
  4044bf:	mov    ebx,DWORD PTR [ebp-0x214]
  4044c5:	push   0x1
  4044c7:	push   0xffffffff
  4044c9:	push   ebx
  4044ca:	push   0xffffffff
  4044cc:	push   DWORD PTR [edi+0xc]
  4044cf:	call   DWORD PTR ds:0x406108
  4044d5:	cmp    eax,0x2
  4044d8:	jne    0x4044de
  4044da:	or     DWORD PTR [edi+0x3c],0x4
  4044de:	push   ebx
  4044df:	push   0x0
  4044e1:	push   DWORD PTR ds:0x40532c
  4044e7:	call   DWORD PTR ds:0x406078
  4044ed:	push   DWORD PTR [ebp-0x228]
  4044f3:	call   DWORD PTR ds:0x4060e4
  4044f9:	jmp    0x402e61
  4044fe:	mov    ecx,0x4b
  404503:	cmp    cx,ax
  404506:	jne    0x403198
  40450c:	jmp    0x40318b
  404511:	movzx  eax,WORD PTR [esi+0x2]
  404515:	add    esi,0x2
  404518:	test   ax,ax
  40451b:	je     0x403116
  404521:	mov    ecx,esi
  404523:	mov    edx,0x22
  404528:	cmp    dx,ax
  40452b:	je     0x403116
  404531:	movzx  eax,WORD PTR [esi+0x2]
  404535:	add    esi,0x2
  404538:	test   ax,ax
  40453b:	jne    0x404523
  40453d:	jmp    0x403116
  404542:	xor    eax,eax
  404544:	mov    WORD PTR [esi],ax
  404547:	add    esi,0x2
  40454a:	jmp    0x403120
  40454f:	push   ebx
  404550:	push   0x0
  404552:	push   DWORD PTR ds:0x40532c
  404558:	call   DWORD PTR ds:0x406078
  40455e:	xor    ebx,ebx
  404560:	jmp    0x403164
  404565:	call   DWORD PTR ds:0x406054
  40456b:	mov    esi,eax
  40456d:	jmp    0x4032cf
  404572:	push   ebx
  404573:	push   0x0
  404575:	push   DWORD PTR ds:0x40532c
  40457b:	call   DWORD PTR ds:0x406078
  404581:	jmp    0x4032de
  404586:	mov    eax,0xd
  40458b:	jmp    0x4032e0
  404590:	mov    eax,0x57
  404595:	jmp    0x4032e2
  40459a:	push   0x0
  40459c:	push   DWORD PTR [ebp-0x10]
  40459f:	call   DWORD PTR ds:0x4061a0
  4045a5:	jmp    0x403598
  4045aa:	mov    eax,0xc0000017
  4045af:	jmp    0x403588
  4045b4:	mov    eax,DWORD PTR [ebp-0x8]
  4045b7:	push   edi
  4045b8:	push   0x2
  4045ba:	push   eax
  4045bb:	mov    ecx,DWORD PTR [eax]
  4045bd:	mov    esi,DWORD PTR [ecx+0xc]
  4045c0:	mov    ecx,esi
  4045c2:	call   DWORD PTR ds:0x4061c0
  4045c8:	call   esi
  4045ca:	mov    esi,eax
  4045cc:	jmp    0x4036ba
  4045d1:	call   DWORD PTR ds:0x406054
  4045d7:	mov    ebx,eax
  4045d9:	jmp    0x4038f7
  4045de:	mov    ebx,0x8
  4045e3:	jmp    0x4038f7
  4045e8:	call   DWORD PTR ds:0x406054
  4045ee:	mov    ebx,eax
  4045f0:	jmp    0x4038f7
  4045f5:	call   DWORD PTR ds:0x406054
  4045fb:	mov    ebx,eax
  4045fd:	jmp    0x4038f7
  404602:	call   DWORD PTR ds:0x406054
  404608:	mov    ebx,eax
  40460a:	jmp    0x4038f7
  40460f:	call   DWORD PTR ds:0x406054
  404615:	mov    ebx,eax
  404617:	jmp    0x4038f7
  40461c:	call   DWORD PTR ds:0x406054
  404622:	mov    ebx,eax
  404624:	jmp    0x4038f7
  404629:	mov    ebx,0x8
  40462e:	jmp    0x4038f7
  404633:	call   DWORD PTR ds:0x406054
  404639:	mov    ebx,eax
  40463b:	jmp    0x4038f7
  404640:	call   DWORD PTR ds:0x406054
  404646:	mov    ebx,eax
  404648:	jmp    0x4038f7
  40464d:	call   DWORD PTR ds:0x406054
  404653:	mov    ebx,eax
  404655:	jmp    0x4038f7
  40465a:	call   DWORD PTR ds:0x406054
  404660:	mov    ebx,eax
  404662:	jmp    0x4038f7
  404667:	call   DWORD PTR ds:0x406054
  40466d:	mov    ebx,eax
  40466f:	jmp    0x4038f7
  404674:	mov    DWORD PTR [esi],0x0
  40467a:	mov    eax,0x70c
  40467f:	jmp    0x4039ba
  404684:	int3   
  404685:	int3   
  404686:	int3   
  404687:	int3   
  404688:	int3   
  404689:	mov    edi,edi
  40468b:	push   ebp
  40468c:	mov    ebp,esp
  40468e:	sub    esp,0x20
  404691:	mov    eax,ds:0x405000
  404696:	xor    eax,ebp
  404698:	mov    DWORD PTR [ebp-0x4],eax
  40469b:	push   0x403d10
  4046a0:	push   ecx
  4046a1:	mov    DWORD PTR [ebp-0x20],0x30
  4046a8:	mov    DWORD PTR [ebp-0x1c],0x1
  4046af:	mov    DWORD PTR [ebp-0x18],0x1
  4046b6:	mov    DWORD PTR [ebp-0xc],0x0
  4046bd:	mov    DWORD PTR [ebp-0x8],0x0
  4046c4:	mov    DWORD PTR [ebp-0x14],edx
  4046c7:	mov    DWORD PTR [ebp-0x10],0x0
  4046ce:	call   DWORD PTR ds:0x406178
  4046d4:	test   eax,eax
  4046d6:	je     0x4046e3
  4046d8:	lea    ecx,[ebp-0x20]
  4046db:	push   ecx
  4046dc:	push   eax
  4046dd:	call   DWORD PTR ds:0x40616c
  4046e3:	mov    ecx,DWORD PTR [ebp-0x4]
  4046e6:	xor    ecx,ebp
  4046e8:	call   0x403a7b
  4046ed:	mov    esp,ebp
  4046ef:	pop    ebp
  4046f0:	ret    
  4046f1:	int3   
  4046f2:	int3   
  4046f3:	int3   
  4046f4:	int3   
  4046f5:	int3   
  4046f6:	int3   
  4046f7:	int3   
  4046f8:	int3   
  4046f9:	int3   
  4046fa:	int3   
  4046fb:	int3   
  4046fc:	int3   
  4046fd:	int3   
  4046fe:	int3   
  4046ff:	int3   
  404700:	mov    edi,edi
  404702:	push   ebp
  404703:	mov    ebp,esp
  404705:	pop    ebp
  404706:	jmp    DWORD PTR ds:0x40618c
  40470c:	int3   
  40470d:	int3   
  40470e:	int3   
  40470f:	int3   
  404710:	int3   
  404711:	mov    edi,edi
  404713:	push   ebp
  404714:	mov    ebp,esp
  404716:	push   ecx
  404717:	push   ebx
  404718:	mov    ebx,ecx
  40471a:	mov    DWORD PTR [ebp-0x4],edx
  40471d:	push   esi
  40471e:	mov    esi,ebx
  404720:	push   edi
  404721:	lea    ecx,[esi+0x2]
  404724:	mov    ax,WORD PTR [esi]
  404727:	add    esi,0x2
  40472a:	test   ax,ax
  40472d:	jne    0x404724
  40472f:	sub    esi,ecx
  404731:	sar    esi,1
  404733:	lea    edi,[esi*2+0x10]
  40473a:	push   edi
  40473b:	push   0x0
  40473d:	call   DWORD PTR ds:0x406080
  404743:	mov    esi,eax
  404745:	test   esi,esi
  404747:	jne    0x404750
  404749:	mov    eax,0xc0000017
  40474e:	jmp    0x4047bc
  404750:	push   ecx
  404751:	mov    edx,edi
  404753:	mov    ecx,esi
  404755:	call   0x40493f
  40475a:	test   eax,eax
  40475c:	js     0x404773
  40475e:	push   ebx
  40475f:	mov    edx,edi
  404761:	mov    ecx,esi
  404763:	call   0x4048f3
  404768:	test   eax,eax
  40476a:	jns    0x404781
  40476c:	push   esi
  40476d:	call   DWORD PTR ds:0x406084
  404773:	push   esi
  404774:	call   DWORD PTR ds:0x406084
  40477a:	mov    eax,0xc000000d
  40477f:	jmp    0x4047bc
  404781:	push   0x0
  404783:	push   esi
  404784:	push   0xa
  404786:	push   0x401750
  40478b:	call   DWORD PTR ds:0x406018
  404791:	mov    edi,eax
  404793:	test   edi,edi
  404795:	je     0x40479f
  404797:	cmp    edi,0x6cc
  40479d:	jne    0x4047ae
  40479f:	push   0x0
  4047a1:	push   0x0
  4047a3:	push   DWORD PTR [ebp-0x4]
  4047a6:	call   DWORD PTR ds:0x406008
  4047ac:	mov    edi,eax
  4047ae:	push   esi
  4047af:	call   DWORD PTR ds:0x406084
  4047b5:	push   edi
  4047b6:	call   DWORD PTR ds:0x406014
  4047bc:	pop    edi
  4047bd:	pop    esi
  4047be:	pop    ebx
  4047bf:	mov    esp,ebp
  4047c1:	pop    ebp
  4047c2:	ret    
  4047c3:	int3   
  4047c4:	int3   
  4047c5:	int3   
  4047c6:	int3   
  4047c7:	int3   
  4047c8:	int3   
  4047c9:	int3   
  4047ca:	int3   
  4047cb:	int3   
  4047cc:	int3   
  4047cd:	int3   
  4047ce:	int3   
  4047cf:	int3   
  4047d0:	mov    edi,edi
  4047d2:	push   ebp
  4047d3:	mov    ebp,esp
  4047d5:	push   esi
  4047d6:	push   0x405360
  4047db:	call   DWORD PTR ds:0x406124
  4047e1:	mov    edx,DWORD PTR [ebp+0xc]
  4047e4:	mov    ecx,DWORD PTR [ebp+0x8]
  4047e7:	call   0x404711
  4047ec:	mov    esi,eax
  4047ee:	test   esi,esi
  4047f0:	jne    0x40481b
  4047f2:	mov    eax,ds:0x405350
  4047f7:	inc    eax
  4047f8:	mov    ds:0x405350,eax
  4047fd:	cmp    eax,0x1
  404800:	jne    0x40481b
  404802:	push   eax
  404803:	push   0x3039
  404808:	push   eax
  404809:	call   DWORD PTR ds:0x406010
  40480f:	lea    esi,[eax-0x6b1]
  404815:	neg    esi
  404817:	sbb    esi,esi
  404819:	and    esi,eax
  40481b:	push   0x405360
  404820:	call   DWORD PTR ds:0x406120
  404826:	push   esi
  404827:	call   DWORD PTR ds:0x406014
  40482d:	pop    esi
  40482e:	pop    ebp
  40482f:	ret    0x8
  404832:	int3   
  404833:	int3   
  404834:	int3   
  404835:	int3   
  404836:	int3   
  404837:	int3   
  404838:	int3   
  404839:	int3   
  40483a:	int3   
  40483b:	int3   
  40483c:	int3   
  40483d:	int3   
  40483e:	int3   
  40483f:	int3   
  404840:	mov    edi,edi
  404842:	push   ebp
  404843:	mov    ebp,esp
  404845:	push   esi
  404846:	push   0x1
  404848:	push   0x0
  40484a:	push   DWORD PTR [ebp+0x8]
  40484d:	call   DWORD PTR ds:0x40601c
  404853:	push   0x405360
  404858:	mov    esi,eax
  40485a:	call   DWORD PTR ds:0x406124
  404860:	sub    DWORD PTR ds:0x405350,0x1
  404867:	jne    0x404877
  404869:	push   0x0
  40486b:	call   DWORD PTR ds:0x406000
  404871:	call   DWORD PTR ds:0x406024
  404877:	push   0x405360
  40487c:	call   DWORD PTR ds:0x406120
  404882:	push   esi
  404883:	call   DWORD PTR ds:0x406014
  404889:	pop    esi
  40488a:	pop    ebp
  40488b:	ret    0x4
  40488e:	int3   
  40488f:	int3   
  404890:	int3   
  404891:	int3   
  404892:	int3   
  404893:	int3   
  404894:	int3   
  404895:	int3   
  404896:	int3   
  404897:	int3   
  404898:	int3   
  404899:	int3   
  40489a:	int3   
  40489b:	int3   
  40489c:	int3   
  40489d:	int3   
  40489e:	int3   
  40489f:	int3   
  4048a0:	mov    edi,edi
  4048a2:	push   ebp
  4048a3:	mov    ebp,esp
  4048a5:	push   esi
  4048a6:	push   0x1
  4048a8:	push   0x0
  4048aa:	push   DWORD PTR [ebp+0x8]
  4048ad:	call   DWORD PTR ds:0x40600c
  4048b3:	push   0x405360
  4048b8:	mov    esi,eax
  4048ba:	call   DWORD PTR ds:0x406124
  4048c0:	sub    DWORD PTR ds:0x405350,0x1
  4048c7:	jne    0x4048d7
  4048c9:	push   0x0
  4048cb:	call   DWORD PTR ds:0x406000
  4048d1:	call   DWORD PTR ds:0x406024
  4048d7:	push   0x405360
  4048dc:	call   DWORD PTR ds:0x406120
  4048e2:	push   esi
  4048e3:	call   DWORD PTR ds:0x406014
  4048e9:	pop    esi
  4048ea:	pop    ebp
  4048eb:	ret    0x4
  4048ee:	int3   
  4048ef:	int3   
  4048f0:	int3   
  4048f1:	int3   
  4048f2:	int3   
  4048f3:	mov    edi,edi
  4048f5:	push   ebp
  4048f6:	mov    ebp,esp
  4048f8:	push   ecx
  4048f9:	push   esi
  4048fa:	mov    esi,edx
  4048fc:	push   edi
  4048fd:	shr    esi,1
  4048ff:	mov    edi,ecx
  404901:	push   ecx
  404902:	mov    edx,esi
  404904:	call   0x404a05
  404909:	test   eax,eax
  40490b:	js     0x40491b
  40490d:	lea    eax,[ebp-0x4]
  404910:	push   eax
  404911:	call   0x4049bc
  404916:	mov    ecx,DWORD PTR [ebp-0x4]
  404919:	jmp    0x40491d
  40491b:	xor    ecx,ecx
  40491d:	test   eax,eax
  40491f:	js     0x404932
  404921:	push   ecx
  404922:	push   DWORD PTR [ebp+0x8]
  404925:	sub    esi,ecx
  404927:	push   ecx
  404928:	lea    ecx,[edi+ecx*2]
  40492b:	mov    edx,esi
  40492d:	call   0x40496a
  404932:	pop    edi
  404933:	pop    esi
  404934:	mov    esp,ebp
  404936:	pop    ebp
  404937:	ret    0x4
  40493a:	int3   
  40493b:	int3   
  40493c:	int3   
  40493d:	int3   
  40493e:	int3   
  40493f:	shr    edx,1
  404941:	push   ecx
  404942:	call   0x404a05
  404947:	test   eax,eax
  404949:	js     0x404959
  40494b:	push   ecx
  40494c:	push   0x401740
  404951:	push   ecx
  404952:	call   0x40496a
  404957:	jmp    0x404962
  404959:	test   edx,edx
  40495b:	je     0x404962
  40495d:	xor    edx,edx
  40495f:	mov    WORD PTR [ecx],dx
  404962:	ret    0x4
  404965:	int3   
  404966:	int3   
  404967:	int3   
  404968:	int3   
  404969:	int3   
  40496a:	mov    edi,edi
  40496c:	push   ebp
  40496d:	mov    ebp,esp
  40496f:	push   ebx
  404970:	push   esi
  404971:	push   edi
  404972:	xor    edi,edi
  404974:	test   edx,edx
  404976:	je     0x4049a1
  404978:	mov    eax,DWORD PTR [ebp+0xc]
  40497b:	mov    esi,0x7ffffffe
  404980:	sub    eax,ecx
  404982:	test   esi,esi
  404984:	je     0x40499d
  404986:	movzx  ebx,WORD PTR [eax+ecx*1]
  40498a:	test   bx,bx
  40498d:	je     0x40499d
  40498f:	mov    WORD PTR [ecx],bx
  404992:	dec    esi
  404993:	add    ecx,0x2
  404996:	sub    edx,0x1
  404999:	jne    0x404982
  40499b:	jmp    0x4049a1
  40499d:	test   edx,edx
  40499f:	jne    0x4049a9
  4049a1:	sub    ecx,0x2
  4049a4:	mov    edi,0x80000005
  4049a9:	xor    eax,eax
  4049ab:	mov    WORD PTR [ecx],ax
  4049ae:	mov    eax,edi
  4049b0:	pop    edi
  4049b1:	pop    esi
  4049b2:	pop    ebx
  4049b3:	pop    ebp
  4049b4:	ret    0xc
  4049b7:	int3   
  4049b8:	int3   
  4049b9:	int3   
  4049ba:	int3   
  4049bb:	int3   
  4049bc:	mov    edi,edi
  4049be:	push   ebp
  4049bf:	mov    ebp,esp
  4049c1:	xor    eax,eax
  4049c3:	push   esi
  4049c4:	mov    esi,edx
  4049c6:	test   edx,edx
  4049c8:	je     0x4049df
  4049ca:	mov    edi,edi
  4049cc:	cmp    WORD PTR [ecx],ax
  4049cf:	je     0x4049db
  4049d1:	add    ecx,0x2
  4049d4:	sub    edx,0x1
  4049d7:	jne    0x4049cc
  4049d9:	jmp    0x4049df
  4049db:	test   edx,edx
  4049dd:	jne    0x4049e4
  4049df:	mov    eax,0xc000000d
  4049e4:	mov    ecx,DWORD PTR [ebp+0x8]
  4049e7:	test   ecx,ecx
  4049e9:	je     0x4049fb
  4049eb:	test   eax,eax
  4049ed:	js     0x4049f5
  4049ef:	sub    esi,edx
  4049f1:	mov    DWORD PTR [ecx],esi
  4049f3:	jmp    0x4049fb
  4049f5:	mov    DWORD PTR [ecx],0x0
  4049fb:	pop    esi
  4049fc:	pop    ebp
  4049fd:	ret    0x4
  404a00:	int3   
  404a01:	int3   
  404a02:	int3   
  404a03:	int3   
  404a04:	int3   
  404a05:	test   edx,edx
  404a07:	je     0x404a15
  404a09:	cmp    edx,0x7fffffff
  404a0f:	ja     0x404a15
  404a11:	xor    eax,eax
  404a13:	jmp    0x404a1a
  404a15:	mov    eax,0xc000000d
  404a1a:	ret    0x4
  404a1d:	int3   
  404a1e:	int3   
  404a1f:	int3   
  404a20:	add    DWORD PTR [eax],eax
  404a22:	add    BYTE PTR [eax],al
  404a24:	and    BYTE PTR ds:0x53240000,dl
  404a2a:	add    BYTE PTR [eax],al
  404a2c:	add    BYTE PTR [eax+0x4a600000],al
  404a32:	add    BYTE PTR [eax],al
  404a34:	les    ecx,FWORD PTR [edx+0x0]
	...
  404a5f:	add    BYTE PTR [esi-0x65ffffb6],al
  404a65:	dec    edx
  404a66:	add    BYTE PTR [eax],al
  404a68:	mov    dl,0x4a
  404a6a:	add    BYTE PTR [eax],al
  404a6c:	je     0x404ab8
	...
  404a76:	inc    ebx
  404a77:	dec    esp
  404a78:	push   ebx
  404a79:	dec    ecx
  404a7a:	inc    esp
  404a7b:	inc    esi
  404a7c:	jb     0x404aed
  404a7e:	ins    DWORD PTR es:[edi],dx
  404a7f:	push   ebx
  404a80:	je     0x404af4
  404a82:	imul   ebp,DWORD PTR [esi+0x67],0x43000000
  404a89:	outs   dx,DWORD PTR ds:[esi]
  404a8a:	inc    ebx
  404a8b:	jb     0x404af2
  404a8d:	popa   
  404a8e:	je     0x404af5
  404a90:	dec    ecx
  404a91:	outs   dx,BYTE PTR ds:[esi]
  404a92:	jae    0x404b08
  404a94:	popa   
  404a95:	outs   dx,BYTE PTR ds:[esi]
  404a96:	arpl   WORD PTR [ebp+0x0],sp
  404a99:	add    BYTE PTR [eax],al
  404a9b:	add    BYTE PTR [ebx+0x6f],al
  404a9e:	dec    ecx
  404a9f:	outs   dx,BYTE PTR ds:[esi]
  404aa0:	imul   esi,DWORD PTR [ecx+ebp*2+0x61],0x657a696c
  404aa8:	push   ebx
  404aa9:	arpl   WORD PTR gs:[ebp+0x72],si
  404aad:	imul   esi,DWORD PTR [ecx+edi*2+0x0],0x43000000
  404ab5:	outs   dx,DWORD PTR ds:[esi]
  404ab6:	dec    ecx
  404ab7:	outs   dx,BYTE PTR ds:[esi]
  404ab8:	imul   esi,DWORD PTR [ecx+ebp*2+0x61],0x657a696c
  404ac0:	inc    ebp
  404ac1:	js     0x404ac3
	...

Disassembly of section .data:

00405000 <.data>:
  405000:	dec    esi
  405001:	out    0x40,al
  405003:	mov    ebx,0x44bf19b1
	...

Disassembly of section .idata:

00406000 <.idata>:
  406000:	inc    edx
  406001:	outs   dx,BYTE PTR ds:[esi]
  406002:	add    BYTE PTR [eax],al
  406004:	jp     0x40606e
  406006:	add    BYTE PTR [eax],al
  406008:	out    0x6d,al
  40600a:	add    BYTE PTR [eax],al
  40600c:	cld    
  40600d:	ins    DWORD PTR es:[edi],dx
  40600e:	add    BYTE PTR [eax],al
  406010:	push   ss
  406011:	outs   dx,BYTE PTR ds:[esi]
  406012:	add    BYTE PTR [eax],al
  406014:	ret    0x6e
  406017:	add    BYTE PTR [eax-0x6fffff92],ch
  40601d:	outs   dx,BYTE PTR ds:[esi]
  40601e:	add    BYTE PTR [eax],al
  406020:	pop    esi
  406021:	push   0x6e280000
  406026:	add    BYTE PTR [eax],al
  406028:	add    BYTE PTR [eax],al
  40602a:	add    BYTE PTR [eax],al
  40602c:	fsubr  DWORD PTR [edi+0x0]
  40602f:	add    BYTE PTR [eax],al
  406031:	add    BYTE PTR [eax],al
  406033:	add    BYTE PTR [ebp+eiz*2+0x0],ah
  406037:	add    BYTE PTR [eax+0x65],dh
  40603a:	add    BYTE PTR [eax],al
  40603c:	sahf   
  40603d:	add    BYTE PTR gs:[eax],al
  406040:	add    BYTE PTR [eax],al
  406042:	add    BYTE PTR [eax],al
  406044:	lock outs dx,BYTE PTR ds:[esi]
  406046:	add    BYTE PTR [eax],al
  406048:	fsubr  DWORD PTR [esi+0x0]
  40604b:	add    BYTE PTR [eax],al
  40604d:	add    BYTE PTR [eax],al
  40604f:	add    dh,ah
  406051:	push   0x67500000
  406056:	add    BYTE PTR [eax],al
  406058:	cmp    al,0x66
  40605a:	add    BYTE PTR [eax],al
  40605c:	and    BYTE PTR [esi+0x0],ah
  40605f:	add    BYTE PTR [eax],al
  406061:	add    BYTE PTR [eax],al
  406063:	add    BYTE PTR [eax+0x6a],ch
  406069:	add    BYTE PTR [eax],al
  40606b:	add    BYTE PTR [ecx+ebp*2+0x689e0000],al
  406072:	add    BYTE PTR [eax],al
  406074:	imul   BYTE PTR [eax+0x0]
  406077:	add    BYTE PTR [eax+0x69],dl
  40607d:	add    BYTE PTR [eax],al
  40607f:	add    BYTE PTR [edx+ebp*2+0x0],dh
  406083:	add    BYTE PTR [esi+0x6a],dh
  406089:	add    BYTE PTR [eax],al
  40608b:	add    al,bl
  40608d:	push   0x67600000
  406092:	add    BYTE PTR [eax],al
  406094:	jb     0x4060fd
  406096:	add    BYTE PTR [eax],al
  406098:	add    BYTE PTR [eax],al
  40609a:	add    BYTE PTR [eax],al
  40609c:	enter  0x68,0x0
  4060a0:	add    BYTE PTR [eax],al
  4060a2:	add    BYTE PTR [eax],al
  4060a4:	push   esp
  4060a5:	imul   eax,DWORD PTR [eax],0x681a00
  4060ab:	add    BYTE PTR [eax],al
  4060ad:	add    BYTE PTR [eax],al
  4060af:	add    BYTE PTR [esi+0x69],al
  4060b2:	add    BYTE PTR [eax],al
  4060b4:	retf   0x65
  4060b7:	add    BYTE PTR [esi],ah
  4060b9:	imul   eax,DWORD PTR [eax],0x69c200
  4060bf:	add    al,ah
  4060c1:	add    BYTE PTR gs:[eax],al
  4060c4:	outs   dx,BYTE PTR ds:[esi]
  4060c5:	data16 add BYTE PTR [eax],al
  4060c8:	pop    edx
  4060c9:	data16 add BYTE PTR [eax],al
  4060cc:	add    BYTE PTR [eax],al
  4060ce:	add    BYTE PTR [eax],al
  4060d0:	mov    al,0x65
  4060d2:	add    BYTE PTR [eax],al
  4060d4:	add    BYTE PTR [eax],al
  4060d6:	add    BYTE PTR [eax],al
  4060d8:	pushf  
  4060d9:	imul   eax,DWORD PTR [eax],0x67e800
  4060df:	add    BYTE PTR [esi],al
  4060e1:	push   0x67f80000
  4060e6:	add    BYTE PTR [eax],al
  4060e8:	ss push 0x69080000
  4060ee:	add    BYTE PTR [eax],al
  4060f0:	add    BYTE PTR [eax],al
  4060f2:	add    BYTE PTR [eax],al
  4060f4:	lods   al,BYTE PTR ds:[esi]
  4060f5:	ins    BYTE PTR es:[edi],dx
  4060f6:	add    BYTE PTR [eax],al
  4060f8:	mov    esp,0x8600006c
  4060fd:	ins    BYTE PTR es:[edi],dx
  4060fe:	add    BYTE PTR [eax],al
  406100:	cwde   
  406101:	ins    BYTE PTR es:[edi],dx
  406102:	add    BYTE PTR [eax],al
  406104:	add    BYTE PTR [eax],al
  406106:	add    BYTE PTR [eax],al
  406108:	inc    esi
  406109:	push   0x69ac0000
  40610e:	add    BYTE PTR [eax],al
  406110:	add    BYTE PTR [eax],al
  406112:	add    BYTE PTR [eax],al
  406114:	pushf  
  406115:	add    BYTE PTR [bx+si],al
  406118:	mov    ah,0x68
  40611a:	add    BYTE PTR [eax],al
  40611c:	test   BYTE PTR [edi+0x0],ah
  40611f:	add    BYTE PTR [eax+0x6e],ah
  406122:	add    BYTE PTR [eax],al
  406124:	js     0x406194
  406126:	add    BYTE PTR [eax],al
  406128:	mov    ah,0x67
  40612a:	add    BYTE PTR [eax],al
  40612c:	into   
  40612d:	add    BYTE PTR [bx+si],al
  406130:	add    BYTE PTR [eax],al
  406132:	add    BYTE PTR [eax],al
  406134:	adc    BYTE PTR [esi+0x0],ah
  406137:	add    dh,dh
  406139:	add    BYTE PTR gs:[eax],al
  40613c:	add    BYTE PTR [eax],al
  40613e:	add    BYTE PTR [eax],al
  406140:	int3   
  406141:	ins    BYTE PTR es:[edi],dx
  406142:	add    BYTE PTR [eax],al
  406144:	add    BYTE PTR [eax],al
  406146:	add    BYTE PTR [eax],al
  406148:	sub    ch,BYTE PTR [edx+0x0]
  40614b:	add    BYTE PTR [edx],cl
  40614d:	push   0x0
  40614f:	add    BYTE PTR [eax-0x29ffff96],bl
  406155:	imul   eax,DWORD PTR [eax],0x6a5600
  40615b:	add    ah,dh
  40615d:	imul   eax,DWORD PTR [eax],0x6a8200
  406163:	add    BYTE PTR [esi+0x6a],al
  406166:	add    BYTE PTR [eax],al
  406168:	add    BYTE PTR [eax],al
  40616a:	add    BYTE PTR [eax],al
  40616c:	cmp    al,0x67
  40616e:	add    BYTE PTR [eax],al
  406170:	imul   ax,WORD PTR [eax],0x0
  406175:	add    BYTE PTR [eax],al
  406177:	add    BYTE PTR [esi],bl
  406179:	add    BYTE PTR [bx+si],al
  40617c:	add    BYTE PTR [eax],al
  40617e:	add    BYTE PTR [eax],al
  406180:	int3   
  406181:	ins    DWORD PTR es:[edi],dx
  406182:	add    BYTE PTR [eax],al
  406184:	mov    edx,0xa600006d
  406189:	ins    DWORD PTR es:[edi],dx
  40618a:	add    BYTE PTR [eax],al
  40618c:	mov    BYTE PTR [ebp+0x0],ch
  40618f:	add    BYTE PTR [ebp+ebp*2+0x0],dl
  406193:	add    BYTE PTR [esi],ch
  406195:	outs   dx,DWORD PTR ds:[esi]
  406196:	add    BYTE PTR [eax],al
  406198:	dec    esi
  406199:	outs   dx,DWORD PTR ds:[esi]
  40619a:	add    BYTE PTR [eax],al
  40619c:	outs   dx,DWORD PTR fs:[esi]
  40619e:	add    BYTE PTR [eax],al
  4061a0:	jl     0x406211
  4061a2:	add    BYTE PTR [eax],al
  4061a4:	mov    ch,BYTE PTR [edi+0x0]
  4061a7:	add    BYTE PTR [eax-0x55ffff91],bl
  4061ad:	outs   dx,DWORD PTR ds:[esi]
  4061ae:	add    BYTE PTR [eax],al
  4061b0:	mov    esi,0x4000006f
  4061b5:	ins    DWORD PTR es:[edi],dx
  4061b6:	add    BYTE PTR [eax],al
  4061b8:	outs   dx,BYTE PTR ds:[esi]
  4061b9:	ins    DWORD PTR es:[edi],dx
  4061ba:	add    BYTE PTR [eax],al
  4061bc:	add    BYTE PTR [eax],al
  4061be:	add    BYTE PTR [eax],al
  4061c0:	add    BYTE PTR ds:0x63d80040,bh
	...
  4061ce:	add    BYTE PTR [eax],al
  4061d0:	jle    0x406237
  4061d2:	add    BYTE PTR [eax],al
  4061d4:	xor    al,0x60
  4061d6:	add    BYTE PTR [eax],al
  4061d8:	je     0x40623e
	...
  4061e2:	add    BYTE PTR [eax],al
  4061e4:	and    BYTE PTR [esi+0x0],0x0
  4061e8:	shl    BYTE PTR [eax+0x0],1
  4061eb:	add    BYTE PTR [esp+eiz*2+0x0],dl
	...
  4061f7:	add    BYTE PTR [esi-0x4fffff9a],ah
  4061fd:	pusha  
  4061fe:	add    BYTE PTR [eax],al
  406200:	fsub   DWORD PTR [eax+eax*1+0x0]
	...
  40620c:	shl    BYTE PTR [esi+0x0],1
  40620f:	add    BYTE PTR [ecx+eiz*2],dh
  406212:	add    BYTE PTR [eax],al
  406214:	hlt    
  406215:	arpl   WORD PTR [eax],ax
	...
  40621f:	add    ah,dh
  406221:	data16 add BYTE PTR [eax],al
  406224:	push   eax
  406225:	pusha  
  406226:	add    BYTE PTR [eax],al
  406228:	sbb    al,0x65
	...
  406232:	add    BYTE PTR [eax],al
  406234:	ret    0x6a
  406237:	add    BYTE PTR [eax+0x61],bh
  40623a:	add    BYTE PTR [eax],al
  40623c:	adc    BYTE PTR [ebp+0x0],ah
	...
  406247:	add    al,ch
  406249:	push   0x0
  40624b:	add    BYTE PTR [ecx+eiz*2+0x0],ch
  40624f:	add    BYTE PTR [eax],dh
  406251:	add    BYTE PTR fs:[eax],al
	...
  40625c:	or     al,0x6b
  40625e:	add    BYTE PTR [eax],al
  406260:	mov    WORD PTR [eax+0x0],fs
  406263:	add    BYTE PTR [eax+0x64],bh
  406269:	add    BYTE PTR [eax],al
  40626b:	add    BYTE PTR [eax],al
  40626d:	add    BYTE PTR [eax],al
  40626f:	add    BYTE PTR [esi],dh
  406271:	imul   eax,DWORD PTR [eax],0x0
  406274:	adc    al,0x61
  406276:	add    BYTE PTR [eax],al
  406278:	jl     0x4062de
	...
  406282:	add    BYTE PTR [eax],al
  406284:	pop    eax
  406285:	imul   eax,DWORD PTR [eax],0x0
  406288:	fsub   DWORD PTR [eax+0x0]
  40628b:	add    BYTE PTR [eax+0x64],cl
	...
  406296:	add    BYTE PTR [eax],al
  406298:	jl     0x406305
  40629a:	add    BYTE PTR [eax],al
  40629c:	movs   BYTE PTR es:[edi],BYTE PTR ds:[esi]
  40629d:	pusha  
  40629e:	add    BYTE PTR [eax],al
  4062a0:	lods   al,BYTE PTR ds:[esi]
  4062a1:	add    BYTE PTR fs:[eax],al
	...
  4062ac:	stos   BYTE PTR es:[edi],al
  4062ad:	imul   eax,DWORD PTR [eax],0x0
  4062b0:	or     BYTE PTR [ecx+0x0],ah
  4062b3:	add    BYTE PTR [ebx+eiz*2+0x0],ah
  4062ba:	add    BYTE PTR [eax],al
  4062bc:	add    BYTE PTR [eax],al
  4062be:	add    BYTE PTR [eax],al
  4062c0:	int3   
  4062c1:	imul   eax,DWORD PTR [eax],0x0
  4062c4:	add    BYTE PTR [eax+0x0],ah
  4062c7:	add    BYTE PTR [eax],dl
  4062c9:	add    BYTE PTR fs:[eax],al
	...
  4062d4:	fsubr  DWORD PTR [ebx+0x0]
  4062d7:	add    BYTE PTR [eax+eiz*2+0x0],ch
  4062db:	add    BYTE PTR [eax+0x64],al
	...
  4062e6:	add    BYTE PTR [eax],al
  4062e8:	clc    
  4062e9:	imul   eax,DWORD PTR [eax],0x0
  4062ec:	pushf  
  4062ed:	pusha  
  4062ee:	add    BYTE PTR [eax],al
  4062f0:	in     al,dx
  4062f1:	add    BYTE PTR fs:[eax],al
	...
  4062fc:	and    BYTE PTR [eax+eax*1+0x0],ch
  406300:	dec    eax
  406301:	popa   
  406302:	add    BYTE PTR [eax],al
  406304:	and    al,0x64
	...
  40630e:	add    BYTE PTR [eax],al
  406310:	inc    esp
  406311:	ins    BYTE PTR es:[edi],dx
  406312:	add    BYTE PTR [eax],al
  406314:	and    BYTE PTR [eax+0x0],0x0
  406318:	or     BYTE PTR [eax+eax*1+0x0],ah
	...
  406324:	fs ins BYTE PTR es:[edi],dx
  406326:	add    BYTE PTR [eax],al
  406328:	fs pusha 
  40632a:	add    BYTE PTR [eax],al
  40632c:	cwde   
  40632d:	add    BYTE PTR fs:[eax],al
	...
  406338:	in     al,dx
  406339:	ins    BYTE PTR es:[edi],dx
  40633a:	add    BYTE PTR [eax],al
  40633c:	hlt    
  40633d:	pusha  
  40633e:	add    BYTE PTR [eax],al
  406340:	in     al,0x64
	...
  40634a:	add    BYTE PTR [eax],al
  40634c:	adc    ch,BYTE PTR [ebp+0x0]
  40634f:	add    BYTE PTR [eax+0x61],al
  406352:	add    BYTE PTR [eax],al
  406354:	and    al,0x65
	...
  40635e:	add    BYTE PTR [eax],al
  406360:	fsubr  QWORD PTR [ebp+0x0]
  406363:	add    BYTE PTR [eax-0x17ffff9f],al
  406369:	arpl   WORD PTR [eax],ax
	...
  406373:	add    BYTE PTR [eax],cl
  406375:	outs   dx,DWORD PTR ds:[esi]
  406376:	add    BYTE PTR [eax],al
  406378:	inc    esp
  406379:	pusha  
  40637a:	add    BYTE PTR [eax],al
  40637c:	shl    BYTE PTR [ebx+0x0],1
	...
  406387:	add    dl,ah
  406389:	outs   dx,DWORD PTR ds:[esi]
  40638a:	add    BYTE PTR [eax],al
  40638c:	sub    al,0x60
	...
  4063a2:	add    BYTE PTR [eax],al
  4063a4:	inc    edx
  4063a5:	outs   dx,BYTE PTR ds:[esi]
  4063a6:	add    BYTE PTR [eax],al
  4063a8:	jp     0x406412
  4063aa:	add    BYTE PTR [eax],al
  4063ac:	out    0x6d,al
  4063ae:	add    BYTE PTR [eax],al
  4063b0:	cld    
  4063b1:	ins    DWORD PTR es:[edi],dx
  4063b2:	add    BYTE PTR [eax],al
  4063b4:	push   ss
  4063b5:	outs   dx,BYTE PTR ds:[esi]
  4063b6:	add    BYTE PTR [eax],al
  4063b8:	ret    0x6e
  4063bb:	add    BYTE PTR [eax-0x6fffff92],ch
  4063c1:	outs   dx,BYTE PTR ds:[esi]
  4063c2:	add    BYTE PTR [eax],al
  4063c4:	pop    esi
  4063c5:	push   0x6e280000
  4063ca:	add    BYTE PTR [eax],al
  4063cc:	add    BYTE PTR [eax],al
  4063ce:	add    BYTE PTR [eax],al
  4063d0:	fsubr  DWORD PTR [edi+0x0]
  4063d3:	add    BYTE PTR [eax],al
  4063d5:	add    BYTE PTR [eax],al
  4063d7:	add    BYTE PTR [ebp+eiz*2+0x0],ah
  4063db:	add    BYTE PTR [eax+0x65],dh
  4063de:	add    BYTE PTR [eax],al
  4063e0:	sahf   
  4063e1:	add    BYTE PTR gs:[eax],al
  4063e4:	add    BYTE PTR [eax],al
  4063e6:	add    BYTE PTR [eax],al
  4063e8:	lock outs dx,BYTE PTR ds:[esi]
  4063ea:	add    BYTE PTR [eax],al
  4063ec:	fsubr  DWORD PTR [esi+0x0]
  4063ef:	add    BYTE PTR [eax],al
  4063f1:	add    BYTE PTR [eax],al
  4063f3:	add    dh,ah
  4063f5:	push   0x67500000
  4063fa:	add    BYTE PTR [eax],al
  4063fc:	cmp    al,0x66
  4063fe:	add    BYTE PTR [eax],al
  406400:	and    BYTE PTR [esi+0x0],ah
  406403:	add    BYTE PTR [eax],al
  406405:	add    BYTE PTR [eax],al
  406407:	add    BYTE PTR [eax+0x6a],ch
  40640d:	add    BYTE PTR [eax],al
  40640f:	add    BYTE PTR [ecx+ebp*2+0x689e0000],al
  406416:	add    BYTE PTR [eax],al
  406418:	imul   BYTE PTR [eax+0x0]
  40641b:	add    BYTE PTR [eax+0x69],dl
  406421:	add    BYTE PTR [eax],al
  406423:	add    BYTE PTR [edx+ebp*2+0x0],dh
  406427:	add    BYTE PTR [esi+0x6a],dh
  40642d:	add    BYTE PTR [eax],al
  40642f:	add    al,bl
  406431:	push   0x67600000
  406436:	add    BYTE PTR [eax],al
  406438:	jb     0x4064a1
  40643a:	add    BYTE PTR [eax],al
  40643c:	add    BYTE PTR [eax],al
  40643e:	add    BYTE PTR [eax],al
  406440:	enter  0x68,0x0
  406444:	add    BYTE PTR [eax],al
  406446:	add    BYTE PTR [eax],al
  406448:	push   esp
  406449:	imul   eax,DWORD PTR [eax],0x681a00
  40644f:	add    BYTE PTR [eax],al
  406451:	add    BYTE PTR [eax],al
  406453:	add    BYTE PTR [esi+0x69],al
  406456:	add    BYTE PTR [eax],al
  406458:	retf   0x65
  40645b:	add    BYTE PTR [esi],ah
  40645d:	imul   eax,DWORD PTR [eax],0x69c200
  406463:	add    al,ah
  406465:	add    BYTE PTR gs:[eax],al
  406468:	outs   dx,BYTE PTR ds:[esi]
  406469:	data16 add BYTE PTR [eax],al
  40646c:	pop    edx
  40646d:	data16 add BYTE PTR [eax],al
  406470:	add    BYTE PTR [eax],al
  406472:	add    BYTE PTR [eax],al
  406474:	mov    al,0x65
  406476:	add    BYTE PTR [eax],al
  406478:	add    BYTE PTR [eax],al
  40647a:	add    BYTE PTR [eax],al
  40647c:	pushf  
  40647d:	imul   eax,DWORD PTR [eax],0x67e800
  406483:	add    BYTE PTR [esi],al
  406485:	push   0x67f80000
  40648a:	add    BYTE PTR [eax],al
  40648c:	ss push 0x69080000
  406492:	add    BYTE PTR [eax],al
  406494:	add    BYTE PTR [eax],al
  406496:	add    BYTE PTR [eax],al
  406498:	lods   al,BYTE PTR ds:[esi]
  406499:	ins    BYTE PTR es:[edi],dx
  40649a:	add    BYTE PTR [eax],al
  40649c:	mov    esp,0x8600006c
  4064a1:	ins    BYTE PTR es:[edi],dx
  4064a2:	add    BYTE PTR [eax],al
  4064a4:	cwde   
  4064a5:	ins    BYTE PTR es:[edi],dx
  4064a6:	add    BYTE PTR [eax],al
  4064a8:	add    BYTE PTR [eax],al
  4064aa:	add    BYTE PTR [eax],al
  4064ac:	inc    esi
  4064ad:	push   0x69ac0000
  4064b2:	add    BYTE PTR [eax],al
  4064b4:	add    BYTE PTR [eax],al
  4064b6:	add    BYTE PTR [eax],al
  4064b8:	pushf  
  4064b9:	add    BYTE PTR [bx+si],al
  4064bc:	mov    ah,0x68
  4064be:	add    BYTE PTR [eax],al
  4064c0:	test   BYTE PTR [edi+0x0],ah
  4064c3:	add    BYTE PTR [eax+0x6e],ah
  4064c6:	add    BYTE PTR [eax],al
  4064c8:	js     0x406538
  4064ca:	add    BYTE PTR [eax],al
  4064cc:	mov    ah,0x67
  4064ce:	add    BYTE PTR [eax],al
  4064d0:	into   
  4064d1:	add    BYTE PTR [bx+si],al
  4064d4:	add    BYTE PTR [eax],al
  4064d6:	add    BYTE PTR [eax],al
  4064d8:	adc    BYTE PTR [esi+0x0],ah
  4064db:	add    dh,dh
  4064dd:	add    BYTE PTR gs:[eax],al
  4064e0:	add    BYTE PTR [eax],al
  4064e2:	add    BYTE PTR [eax],al
  4064e4:	int3   
  4064e5:	ins    BYTE PTR es:[edi],dx
  4064e6:	add    BYTE PTR [eax],al
  4064e8:	add    BYTE PTR [eax],al
  4064ea:	add    BYTE PTR [eax],al
  4064ec:	sub    ch,BYTE PTR [edx+0x0]
  4064ef:	add    BYTE PTR [edx],cl
  4064f1:	push   0x0
  4064f3:	add    BYTE PTR [eax-0x29ffff96],bl
  4064f9:	imul   eax,DWORD PTR [eax],0x6a5600
  4064ff:	add    ah,dh
  406501:	imul   eax,DWORD PTR [eax],0x6a8200
  406507:	add    BYTE PTR [esi+0x6a],al
  40650a:	add    BYTE PTR [eax],al
  40650c:	add    BYTE PTR [eax],al
  40650e:	add    BYTE PTR [eax],al
  406510:	cmp    al,0x67
  406512:	add    BYTE PTR [eax],al
  406514:	imul   ax,WORD PTR [eax],0x0
  406519:	add    BYTE PTR [eax],al
  40651b:	add    BYTE PTR [esi],bl
  40651d:	add    BYTE PTR [bx+si],al
  406520:	add    BYTE PTR [eax],al
  406522:	add    BYTE PTR [eax],al
  406524:	int3   
  406525:	ins    DWORD PTR es:[edi],dx
  406526:	add    BYTE PTR [eax],al
  406528:	mov    edx,0xa600006d
  40652d:	ins    DWORD PTR es:[edi],dx
  40652e:	add    BYTE PTR [eax],al
  406530:	mov    BYTE PTR [ebp+0x0],ch
  406533:	add    BYTE PTR [ebp+ebp*2+0x0],dl
  406537:	add    BYTE PTR [esi],ch
  406539:	outs   dx,DWORD PTR ds:[esi]
  40653a:	add    BYTE PTR [eax],al
  40653c:	dec    esi
  40653d:	outs   dx,DWORD PTR ds:[esi]
  40653e:	add    BYTE PTR [eax],al
  406540:	outs   dx,DWORD PTR fs:[esi]
  406542:	add    BYTE PTR [eax],al
  406544:	jl     0x4065b5
  406546:	add    BYTE PTR [eax],al
  406548:	mov    ch,BYTE PTR [edi+0x0]
  40654b:	add    BYTE PTR [eax-0x55ffff91],bl
  406551:	outs   dx,DWORD PTR ds:[esi]
  406552:	add    BYTE PTR [eax],al
  406554:	mov    esi,0x4000006f
  406559:	ins    DWORD PTR es:[edi],dx
  40655a:	add    BYTE PTR [eax],al
  40655c:	outs   dx,BYTE PTR ds:[esi]
  40655d:	ins    DWORD PTR es:[edi],dx
  40655e:	add    BYTE PTR [eax],al
  406560:	add    BYTE PTR [eax],al
  406562:	add    BYTE PTR [eax],al
  406564:	push   es
  406565:	add    BYTE PTR [edi+0x69],bl
  406568:	outs   dx,BYTE PTR ds:[esi]
  406569:	imul   esi,DWORD PTR [esp+esi*2+0x65],0x7006d72
  406571:	add    BYTE PTR [edi+0x69],bl
  406574:	outs   dx,BYTE PTR ds:[esi]
  406575:	imul   esi,DWORD PTR [esp+esi*2+0x65],0x655f6d72
  40657d:	add    BYTE PTR [ecx+0x70],ah
  406580:	imul   ebp,DWORD PTR ds:0x772d736d,0x632d6e69
  40658a:	outs   dx,DWORD PTR ds:[esi]
  40658b:	jb     0x4065f2
  40658d:	sub    eax,0x2d747263
  406592:	ins    BYTE PTR es:[edi],dx
  406593:	xor    ch,BYTE PTR ds:0x2e302d31
  406599:	fs ins BYTE PTR es:[edi],dx
  40659b:	ins    BYTE PTR es:[edi],dx
  40659c:	add    BYTE PTR [eax],al
  40659e:	add    DWORD PTR [eax],eax
  4065a0:	pop    edi
  4065a1:	pop    edi
  4065a2:	ja     0x40660b
  4065a4:	gs je  0x406614
  4065a7:	popa   
  4065a8:	imul   ebp,DWORD PTR [esi+0x61],0x736772
  4065af:	add    BYTE PTR [eax],al
  4065b1:	add    BYTE PTR [ecx+0x75],dl
  4065b4:	gs jb  0x406630
  4065b7:	push   eax
  4065b8:	gs jb  0x406621
  4065bb:	outs   dx,DWORD PTR ds:[esi]
  4065bc:	jb     0x40662b
  4065be:	popa   
  4065bf:	outs   dx,BYTE PTR ds:[esi]
  4065c0:	arpl   WORD PTR [ebp+0x43],sp
  4065c3:	outs   dx,DWORD PTR ds:[esi]
  4065c4:	jne    0x406634
  4065c6:	je     0x40662d
  4065c8:	jb     0x4065ca
  4065ca:	or     eax,0x74654700
  4065cf:	inc    ebx
  4065d0:	jne    0x406644
  4065d2:	jb     0x406639
  4065d4:	outs   dx,BYTE PTR ds:[esi]
  4065d5:	je     0x406627
  4065d7:	jb     0x406648
  4065d9:	arpl   WORD PTR [ebp+0x73],sp
  4065dc:	jae    0x406627
  4065de:	add    BYTE PTR fs:[ecx],dl
  4065e1:	add    BYTE PTR [edi+0x65],al
  4065e4:	je     0x406629
  4065e6:	jne    0x40665a
  4065e8:	jb     0x40664f
  4065ea:	outs   dx,BYTE PTR ds:[esi]
  4065eb:	je     0x406641
  4065ed:	push   0x64616572
  4065f2:	dec    ecx
  4065f3:	add    BYTE PTR fs:[eax],al
  4065f6:	adc    al,0x0
  4065f8:	inc    edi
  4065f9:	gs je  0x40664f
  4065fc:	jns    0x406671
  4065fe:	je     0x406665
  406600:	ins    DWORD PTR es:[edi],dx
  406601:	push   esp
  406602:	imul   ebp,DWORD PTR [ebp+0x65],0x69467341
  406609:	ins    BYTE PTR es:[edi],dx
  40660a:	gs push esp
  40660c:	imul   ebp,DWORD PTR [ebp+0x65],0x47001800
  406613:	gs je  0x40666a
  406616:	imul   esp,DWORD PTR [ebx+0x6b],0x6e756f43
  40661d:	je     0x40661f
  40661f:	add    BYTE PTR [ecx],dl
  406621:	add    BYTE PTR [ebp+0x6e],dl
  406624:	push   0x6c646e61
  406629:	gs fs inc ebp
  40662c:	js     0x406691
  40662e:	gs jo  0x4066a5
  406631:	imul   ebp,DWORD PTR [edi+0x6e],0x746c6946
  406638:	gs jb  0x40663b
  40663b:	add    BYTE PTR [edi],cl
  40663d:	add    BYTE PTR [ebx+0x65],dl
  406640:	je     0x406697
  406642:	outs   dx,BYTE PTR ds:[esi]
  406643:	push   0x6c646e61
  406648:	gs fs inc ebp
  40664b:	js     0x4066b0
  40664d:	gs jo  0x4066c4
  406650:	imul   ebp,DWORD PTR [edi+0x6e],0x746c6946
  406657:	gs jb  0x40665a
  40665a:	or     al,0x0
  40665c:	inc    edi
  40665d:	gs je  0x4066a3
  406660:	jne    0x4066d4
  406662:	jb     0x4066c9
  406664:	outs   dx,BYTE PTR ds:[esi]
  406665:	je     0x4066b7
  406667:	jb     0x4066d8
  406669:	arpl   WORD PTR [ebp+0x73],sp
  40666c:	jae    0x40666e
  40666e:	dec    ebx
  40666f:	add    BYTE PTR [ebp+eiz*2+0x72],dl
  406673:	ins    DWORD PTR es:[edi],dx
  406674:	imul   ebp,DWORD PTR [esi+0x61],0x72506574
  40667b:	outs   dx,DWORD PTR ds:[esi]
  40667c:	arpl   WORD PTR [ebp+0x73],sp
  40667f:	jae    0x406681
  406681:	add    BYTE PTR [ecx+0x70],ah
  406684:	imul   ebp,DWORD PTR ds:0x772d736d,0x632d6e69
  40668e:	outs   dx,DWORD PTR ds:[esi]
  40668f:	jb     0x4066f6
  406691:	sub    eax,0x666f7270
  406696:	imul   ebp,DWORD PTR [ebp+eiz*2+0x2d],0x312d316c
  40669e:	sub    eax,0x6c642e30
  4066a3:	ins    BYTE PTR es:[edi],dx
  4066a4:	add    BYTE PTR [eax],al
  4066a6:	popa   
  4066a7:	jo     0x406712
  4066a9:	sub    eax,0x772d736d
  4066ae:	imul   ebp,DWORD PTR [esi+0x2d],0x65726f63
  4066b5:	sub    eax,0x636f7270
  4066ba:	gs jae 0x406730
  4066bd:	je     0x406727
  4066bf:	jb     0x406726
  4066c1:	popa   
  4066c2:	fs jae 0x4066f2
  4066c5:	ins    BYTE PTR es:[edi],dx
  4066c6:	xor    DWORD PTR ds:0x2e322d31,ebp
  4066cc:	fs ins BYTE PTR es:[edi],dx
  4066ce:	ins    BYTE PTR es:[edi],dx
  4066cf:	add    BYTE PTR [ecx+0x70],ah
  4066d2:	imul   ebp,DWORD PTR ds:0x772d736d,0x632d6e69
  4066dc:	outs   dx,DWORD PTR ds:[esi]
  4066dd:	jb     0x406744
  4066df:	sub    eax,0x69737973
  4066e4:	outs   dx,BYTE PTR ds:[esi]
  4066e5:	outs   dx,WORD PTR ds:[esi]
  4066e7:	sub    eax,0x322d316c
  4066ec:	sub    eax,0x6c642e31
  4066f1:	ins    BYTE PTR es:[edi],dx
  4066f2:	add    BYTE PTR [eax],al
  4066f4:	popa   
  4066f5:	jo     0x406760
  4066f7:	sub    eax,0x772d736d
  4066fc:	imul   ebp,DWORD PTR [esi+0x2d],0x65726f63
  406703:	sub    eax,0x6f727265
  406708:	jb     0x406772
  40670a:	popa   
  40670b:	outs   dx,BYTE PTR ds:[esi]
  40670c:	fs ins BYTE PTR es:[edi],dx
  40670e:	imul   ebp,DWORD PTR [esi+0x67],0x2d316c2d
  406715:	xor    DWORD PTR ds:0x6c642e31,ebp
  40671b:	ins    BYTE PTR es:[edi],dx
  40671c:	add    BYTE PTR [eax],al
  40671e:	or     eax,0x67655200
  406723:	imul   esi,DWORD PTR [ebx+0x74],0x65537265
  40672a:	jb     0x4067a2
  40672c:	imul   esp,DWORD PTR [ebx+0x65],0x6c727443
  406733:	dec    eax
  406734:	popa   
  406735:	outs   dx,BYTE PTR ds:[esi]
  406736:	fs ins BYTE PTR es:[edi],dx
  406738:	gs jb  0x406792
  40673b:	add    BYTE PTR [esi],al
  40673d:	add    BYTE PTR [ebx+0x65],dl
  406740:	je     0x406795
  406742:	gs jb  0x4067bb
  406745:	imul   esp,DWORD PTR [ebx+0x65],0x74617453
  40674c:	jne    0x4067c1
  40674e:	add    BYTE PTR [eax],al
  406750:	add    eax,0x74654700
  406755:	dec    esp
  406756:	popa   
  406757:	jae    0x4067cd
  406759:	inc    ebp
  40675a:	jb     0x4067ce
  40675c:	outs   dx,DWORD PTR ds:[esi]
  40675d:	jb     0x40675f
  40675f:	add    BYTE PTR [edi],dl
  406761:	add    BYTE PTR [edi+ebp*2+0x61],cl
  406765:	fs dec esp
  406767:	imul   esp,DWORD PTR [edx+0x72],0x45797261
  40676e:	js     0x4067c7
  406770:	add    BYTE PTR [eax],al
  406772:	adc    al,0x0
  406774:	inc    edi
  406775:	gs je  0x4067c8
  406778:	jb     0x4067e9
  40677a:	arpl   WORD PTR [ecx+0x64],ax
  40677d:	fs jb  0x4067e5
  406780:	jae    0x4067f5
  406782:	add    BYTE PTR [eax],al
  406784:	add    DWORD PTR [eax],eax
  406786:	inc    ecx
  406787:	arpl   WORD PTR [ecx+0x75],si
  40678a:	imul   esi,DWORD PTR [edx+0x65],0x4c575253
  406791:	outs   dx,DWORD PTR ds:[esi]
  406792:	arpl   WORD PTR [ebx+0x53],bp
  406795:	push   0x64657261
  40679a:	add    BYTE PTR [eax],al
  40679c:	and    eax,0x6c655200
  4067a1:	gs popa 
  4067a3:	jae    0x40680a
  4067a5:	push   ebx
  4067a6:	push   edx
  4067a7:	push   edi
  4067a8:	dec    esp
  4067a9:	outs   dx,DWORD PTR ds:[esi]
  4067aa:	arpl   WORD PTR [ebx+0x53],bp
  4067ad:	push   0x64657261
  4067b2:	add    BYTE PTR [eax],al
  4067b4:	add    BYTE PTR [eax],al
  4067b6:	inc    ecx
  4067b7:	arpl   WORD PTR [ecx+0x75],si
  4067ba:	imul   esi,DWORD PTR [edx+0x65],0x4c575253
  4067c1:	outs   dx,DWORD PTR ds:[esi]
  4067c2:	arpl   WORD PTR [ebx+0x45],bp
  4067c5:	js     0x40682a
  4067c7:	ins    BYTE PTR es:[edi],dx
  4067c8:	jne    0x40683d
  4067ca:	imul   esi,DWORD PTR [esi+0x65],0x52002400
  4067d1:	gs ins BYTE PTR es:[edi],dx
  4067d3:	gs popa 
  4067d5:	jae    0x40683c
  4067d7:	push   ebx
  4067d8:	push   edx
  4067d9:	push   edi
  4067da:	dec    esp
  4067db:	outs   dx,DWORD PTR ds:[esi]
  4067dc:	arpl   WORD PTR [ebx+0x45],bp
  4067df:	js     0x406844
  4067e1:	ins    BYTE PTR es:[edi],dx
  4067e2:	jne    0x406857
  4067e4:	imul   esi,DWORD PTR [esi+0x65],0x52001e00
  4067eb:	gs addr16 dec edi
  4067ee:	jo     0x406855
  4067f0:	outs   dx,BYTE PTR ds:[esi]
  4067f1:	dec    ebx
  4067f2:	gs jns 0x40683a
  4067f5:	js     0x40684e
  4067f7:	add    BYTE PTR [eax],al
  4067f9:	add    BYTE PTR [edx+0x65],dl
  4067fc:	addr16 inc ebx
  4067fe:	ins    BYTE PTR es:[edi],dx
  4067ff:	outs   dx,DWORD PTR ds:[esi]
  406800:	jae    0x406867
  406802:	dec    ebx
  406803:	gs jns 0x406806
  406806:	and    eax,DWORD PTR [eax]
  406808:	push   edx
  406809:	gs addr16 push ecx
  40680c:	jne    0x406873
  40680e:	jb     0x406889
  406810:	push   esi
  406811:	popa   
  406812:	ins    BYTE PTR es:[edi],dx
  406813:	jne    0x40687a
  406815:	inc    ebp
  406816:	js     0x40686f
  406818:	add    BYTE PTR [eax],al
  40681a:	add    DWORD PTR [eax],eax
  40681c:	inc    ebp
  40681d:	js     0x40688f
  40681f:	popa   
  406820:	outs   dx,BYTE PTR ds:[esi]
  406821:	fs inc ebp
  406823:	outs   dx,BYTE PTR ds:[esi]
  406824:	jbe    0x40688f
  406826:	jb     0x406897
  406828:	outs   dx,BYTE PTR ds:[esi]
  406829:	ins    DWORD PTR es:[edi],dx
  40682a:	outs   dx,BYTE PTR gs:[esi]
  40682c:	je     0x406881
  40682e:	je     0x4068a2
  406830:	imul   ebp,DWORD PTR [esi+0x67],0xe005773
  406837:	add    BYTE PTR [edx+0x65],dl
  40683a:	addr16 inc ebp
  40683c:	outs   dx,BYTE PTR ds:[esi]
  40683d:	jne    0x4068ac
  40683f:	dec    ebx
  406840:	gs jns 0x406888
  406843:	js     0x40689c
  406845:	add    BYTE PTR [ecx],al
  406847:	add    BYTE PTR [ebx+0x6f],al
  40684a:	ins    DWORD PTR es:[edi],dx
  40684b:	jo     0x4068ae
  40684d:	jb     0x4068b4
  40684f:	push   ebx
  406850:	je     0x4068c4
  406852:	imul   ebp,DWORD PTR [esi+0x67],0x6964724f
  406859:	outs   dx,BYTE PTR ds:[esi]
  40685a:	popa   
  40685b:	ins    BYTE PTR es:[edi],dx
  40685c:	add    BYTE PTR [eax],al
  40685e:	lods   eax,DWORD PTR ds:[esi]
  40685f:	add    DWORD PTR [edx+0x70],edx
  406862:	arpl   WORD PTR [ebp+0x67],cx
  406865:	ins    DWORD PTR es:[edi],dx
  406866:	je     0x4068bb
  406868:	gs je  0x4068be
  40686b:	gs jb  0x4068e4
  40686e:	gs jb  0x4068c4
  406871:	je     0x4068d4
  406873:	arpl   WORD PTR [ebx+0x53],bp
  406876:	imul   edi,DWORD PTR [edx+0x65],0x49005b00
  40687d:	pop    edi
  40687e:	push   edx
  40687f:	jo     0x4068e4
  406881:	push   ebx
  406882:	gs jb  0x4068fb
  406885:	gs jb  0x4068cc
  406888:	imul   esi,DWORD PTR [ebx+0x61],0x45656c62
  40688f:	js     0x4068f4
  406891:	gs jo  0x406908
  406894:	imul   ebp,DWORD PTR [edi+0x6e],0x746c6946
  40689b:	gs jb  0x40689e
  40689e:	or     al,BYTE PTR [eax]
  4068a0:	dec    eax
  4068a1:	gs popa 
  4068a3:	jo     0x4068f8
  4068a5:	gs je  0x4068f1
  4068a8:	outs   dx,BYTE PTR ds:[esi]
  4068a9:	outs   dx,WORD PTR ds:[esi]
  4068ab:	jb     0x40691a
  4068ad:	popa   
  4068ae:	je     0x406919
  4068b0:	outs   dx,DWORD PTR ds:[esi]
  4068b1:	outs   dx,BYTE PTR ds:[esi]
  4068b2:	add    BYTE PTR [eax],al
  4068b4:	sbb    eax,DWORD PTR [eax]
  4068b6:	dec    ecx
  4068b7:	outs   dx,BYTE PTR ds:[esi]
  4068b8:	imul   esi,DWORD PTR [ecx+ebp*2+0x61],0x657a696c
  4068c0:	push   ebx
  4068c1:	push   edx
  4068c2:	push   edi
  4068c3:	dec    esp
  4068c4:	outs   dx,DWORD PTR ds:[esi]
  4068c5:	arpl   WORD PTR [ebx+0x0],bp
  4068c8:	xor    al,BYTE PTR [eax]
  4068ca:	dec    esp
  4068cb:	inc    ebx
  4068cc:	dec    ebp
  4068cd:	popa   
  4068ce:	jo     0x406923
  4068d0:	je     0x406944
  4068d2:	imul   ebp,DWORD PTR [esi+0x67],0xb000057
  4068d9:	add    BYTE PTR [esi+0x72],al
  4068dc:	gs gs dec esp
  4068df:	imul   esp,DWORD PTR [edx+0x72],0x797261
  4068e6:	or     al,0x0
  4068e8:	push   ebx
  4068e9:	gs je  0x406931
  4068ec:	jb     0x406960
  4068ee:	outs   dx,DWORD PTR ds:[esi]
  4068ef:	jb     0x40693e
  4068f1:	outs   dx,DWORD PTR ds:[esi]
  4068f2:	fs add BYTE PTR gs:[eax],al
  4068f6:	add    BYTE PTR [eax],al
  4068f8:	inc    edi
  4068f9:	gs je  0x40694c
  4068fc:	jb     0x40696d
  4068fe:	arpl   WORD PTR [ebp+0x73],sp
  406901:	jae    0x40694b
  406903:	gs popa 
  406905:	jo     0x406907
  406907:	add    BYTE PTR [eax+eax*1],cl
  40690a:	push   edx
  40690b:	gs addr16 inc esp
  40690e:	imul   esi,DWORD PTR [ebx+0x61],0x50656c62
  406915:	jb     0x40697c
  406917:	fs imul bp,WORD PTR gs:[esi+0x65],0x4364
  40691f:	popa   
  406920:	arpl   WORD PTR [eax+0x65],bp
  406923:	inc    ebp
  406924:	js     0x406926
  406926:	cmp    DWORD PTR [eax],eax
  406928:	push   ebx
  406929:	gs je  0x40697c
  40692c:	jb     0x40699d
  40692e:	arpl   WORD PTR [ebp+0x73],sp
  406931:	jae    0x406974
  406933:	data16 imul bp,WORD PTR [esi+0x69],0x7974
  40693a:	push   ebp
  40693b:	jo     0x4069a1
  40693d:	popa   
  40693e:	je     0x4069a5
  406940:	dec    ebp
  406941:	outs   dx,DWORD PTR ds:[esi]
  406942:	fs add BYTE PTR gs:[eax],al
  406946:	or     BYTE PTR [eax],al
  406948:	inc    ebp
  406949:	js     0x4069b4
  40694b:	je     0x40699d
  40694d:	jb     0x4069be
  40694f:	arpl   WORD PTR [ebp+0x73],sp
  406952:	jae    0x406954
  406954:	add    eax,0x74654700
  406959:	inc    ebx
  40695a:	outs   dx,DWORD PTR ds:[esi]
  40695b:	ins    DWORD PTR es:[edi],dx
  40695c:	ins    DWORD PTR es:[edi],dx
  40695d:	popa   
  40695e:	outs   dx,BYTE PTR ds:[esi]
  40695f:	fs dec esp
  406961:	imul   ebp,DWORD PTR [esi+0x65],0x70057
  406968:	push   ebx
  406969:	je     0x4069cc
  40696b:	jb     0x4069e1
  40696d:	push   ebx
  40696e:	gs jb  0x4069e7
  406971:	imul   esp,DWORD PTR [ebx+0x65],0x6c727443
  406978:	inc    esp
  406979:	imul   esi,DWORD PTR [ebx+0x70],0x68637461
  406980:	gs jb  0x4069da
  406983:	add    BYTE PTR [edx],al
  406985:	add    BYTE PTR [eax+0x65],cl
  406988:	popa   
  406989:	jo     0x4069cc
  40698b:	ins    BYTE PTR es:[edi],dx
  40698c:	ins    BYTE PTR es:[edi],dx
  40698d:	outs   dx,DWORD PTR ds:[esi]
  40698e:	arpl   WORD PTR [eax],ax
  406990:	push   es
  406991:	add    BYTE PTR [eax+0x65],cl
  406994:	popa   
  406995:	jo     0x4069dd
  406997:	jb     0x4069fe
  406999:	add    BYTE PTR gs:[eax],al
  40699c:	adc    al,0x0
  40699e:	push   edx
  40699f:	gs addr16 inc edi
  4069a2:	gs je  0x4069fb
  4069a5:	popa   
  4069a6:	ins    BYTE PTR es:[edi],dx
  4069a7:	jne    0x406a0e
  4069a9:	push   edi
  4069aa:	add    BYTE PTR [eax],al
  4069ac:	pop    es
  4069ad:	add    BYTE PTR [edi+0x69],dl
  4069b0:	fs gs inc ebx
  4069b3:	push   0x6f547261
  4069b8:	dec    ebp
  4069b9:	jne    0x406a27
  4069bb:	je     0x406a26
  4069bd:	inc    edx
  4069be:	jns    0x406a34
  4069c0:	add    BYTE PTR gs:[eax],dh
  4069c3:	add    BYTE PTR [edi+0x70],cl
  4069c6:	outs   dx,BYTE PTR gs:[esi]
  4069c8:	push   eax
  4069c9:	jb     0x406a3a
  4069cb:	arpl   WORD PTR [ebp+0x73],sp
  4069ce:	jae    0x406a24
  4069d0:	outs   dx,DWORD PTR ds:[esi]
  4069d1:	imul   esp,DWORD PTR [ebp+0x6e],0x0
  4069d5:	add    BYTE PTR [ecx+0x0],ah
  4069d8:	push   ebx
  4069d9:	gs je  0x406a2f
  4069dc:	arpl   WORD PTR gs:[ebp+0x72],si
  4069e0:	imul   esi,DWORD PTR [ecx+edi*2+0x44],0x72637365
  4069e8:	imul   esi,DWORD PTR [eax+0x74],0x7247726f
  4069ef:	outs   dx,DWORD PTR ds:[esi]
  4069f0:	jne    0x406a62
  4069f2:	add    BYTE PTR [eax],al
  4069f4:	inc    eax
  4069f5:	add    BYTE PTR [edi+0x65],al
  4069f8:	je     0x406a4e
  4069fa:	outs   dx,DWORD PTR ds:[esi]
  4069fb:	imul   esp,DWORD PTR [ebp+0x6e],0x49
  4069ff:	outs   dx,BYTE PTR ds:[esi]
  406a00:	outs   dx,WORD PTR ds:[esi]
  406a02:	jb     0x406a71
  406a04:	popa   
  406a05:	je     0x406a70
  406a07:	outs   dx,DWORD PTR ds:[esi]
  406a08:	outs   dx,BYTE PTR ds:[esi]
  406a09:	add    BYTE PTR [esi+0x0],al
  406a0c:	dec    ecx
  406a0d:	outs   dx,BYTE PTR ds:[esi]
  406a0e:	imul   esi,DWORD PTR [ecx+ebp*2+0x61],0x657a696c
  406a16:	push   ebx
  406a17:	arpl   WORD PTR gs:[ebp+0x72],si
  406a1b:	imul   esi,DWORD PTR [ecx+edi*2+0x44],0x72637365
  406a23:	imul   esi,DWORD PTR [eax+0x74],0x726f
  406a2a:	pusha  
  406a2b:	add    BYTE PTR [ebx+0x65],dl
  406a2e:	je     0x406a83
  406a30:	arpl   WORD PTR gs:[ebp+0x72],si
  406a34:	imul   esi,DWORD PTR [ecx+edi*2+0x44],0x72637365
  406a3c:	imul   esi,DWORD PTR [eax+0x74],0x6144726f
  406a43:	arpl   WORD PTR [eax+eax*1+0x45],bp
  406a47:	add    BYTE PTR [ecx+0x6e],cl
  406a4a:	imul   esi,DWORD PTR [ecx+ebp*2+0x61],0x657a696c
  406a52:	inc    ecx
  406a53:	arpl   WORD PTR [eax+eax*1+0x62],bp
  406a57:	add    BYTE PTR [ebx+0x65],dl
  406a5a:	je     0x406aaf
  406a5c:	arpl   WORD PTR gs:[ebp+0x72],si
  406a60:	imul   esi,DWORD PTR [ecx+edi*2+0x44],0x72637365
  406a68:	imul   esi,DWORD PTR [eax+0x74],0x774f726f
  406a6f:	outs   dx,BYTE PTR ds:[esi]
  406a70:	gs jb  0x406a73
  406a73:	add    BYTE PTR [edx],al
  406a75:	add    BYTE PTR [edi+ebp*2+0x63],cl
  406a79:	popa   
  406a7a:	ins    BYTE PTR es:[edi],dx
  406a7b:	inc    ecx
  406a7c:	ins    BYTE PTR es:[edi],dx
  406a7d:	ins    BYTE PTR es:[edi],dx
  406a7e:	outs   dx,DWORD PTR ds:[esi]
  406a7f:	arpl   WORD PTR [eax],ax
  406a81:	add    BYTE PTR [edi],al
  406a83:	add    BYTE PTR [ecx+0x64],al
  406a86:	fs inc ecx
  406a88:	arpl   WORD PTR [ebx+0x65],sp
  406a8b:	jae    0x406b00
  406a8d:	inc    ecx
  406a8e:	ins    BYTE PTR es:[edi],dx
  406a8f:	ins    BYTE PTR es:[edi],dx
  406a90:	outs   dx,DWORD PTR ds:[esi]
  406a91:	ja     0x406af8
  406a93:	fs inc ecx
  406a95:	arpl   WORD PTR [ebp+0x0],sp
  406a98:	xor    eax,DWORD PTR [eax]
  406a9a:	inc    edi
  406a9b:	gs je  0x406aea
  406a9e:	outs   dx,BYTE PTR gs:[esi]
  406aa0:	addr16 je 0x406b0b
  406aa3:	push   ebx
  406aa4:	imul   esp,DWORD PTR [eax+eax*1+0x0],0x6c430000
  406aac:	outs   dx,DWORD PTR ds:[esi]
  406aad:	jae    0x406b14
  406aaf:	dec    eax
  406ab0:	popa   
  406ab1:	outs   dx,BYTE PTR ds:[esi]
  406ab2:	fs ins BYTE PTR es:[edi],dx
  406ab4:	add    BYTE PTR gs:[ebx],al
  406ab7:	add    BYTE PTR [edi+ebp*2+0x63],cl
  406abb:	popa   
  406abc:	ins    BYTE PTR es:[edi],dx
  406abd:	inc    esi
  406abe:	jb     0x406b25
  406ac0:	add    BYTE PTR gs:[ecx+0x70],ah
  406ac4:	imul   ebp,DWORD PTR ds:0x772d736d,0x732d6e69
  406ace:	gs jb  0x406b47
  406ad1:	imul   esp,DWORD PTR [ebx+0x65],0x6e69772d
  406ad8:	jae    0x406b50
  406ada:	arpl   WORD PTR ds:0x322d316c,bp
  406ae0:	sub    eax,0x6c642e30
  406ae5:	ins    BYTE PTR es:[edi],dx
  406ae6:	add    BYTE PTR [eax],al
  406ae8:	popa   
  406ae9:	jo     0x406b54
  406aeb:	sub    eax,0x772d736d
  406af0:	imul   ebp,DWORD PTR [esi+0x2d],0x76726573
  406af7:	imul   esp,DWORD PTR [ebx+0x65],0x726f632d
  406afe:	gs sub eax,0x312d316c
  406b04:	sub    eax,0x6c642e31
  406b09:	ins    BYTE PTR es:[edi],dx
  406b0a:	add    BYTE PTR [eax],al
  406b0c:	popa   
  406b0d:	jo     0x406b78
  406b0f:	sub    eax,0x772d736d
  406b14:	imul   ebp,DWORD PTR [esi+0x2d],0x65726f63
  406b1b:	sub    eax,0x7262696c
  406b20:	popa   
  406b21:	jb     0x406b9c
  406b23:	ins    BYTE PTR es:[edi],dx
  406b24:	outs   dx,DWORD PTR ds:[esi]
  406b25:	popa   
  406b26:	fs gs jb 0x406b57
  406b2a:	ins    BYTE PTR es:[edi],dx
  406b2b:	xor    DWORD PTR ds:0x2e302d32,ebp
  406b31:	fs ins BYTE PTR es:[edi],dx
  406b33:	ins    BYTE PTR es:[edi],dx
  406b34:	add    BYTE PTR [eax],al
  406b36:	popa   
  406b37:	jo     0x406ba2
  406b39:	sub    eax,0x772d736d
  406b3e:	imul   ebp,DWORD PTR [esi+0x2d],0x65726f63
  406b45:	sub    eax,0x636e7973
  406b4a:	push   0x2d316c2d
  406b4f:	xor    ch,BYTE PTR ds:0x6c642e30
  406b55:	ins    BYTE PTR es:[edi],dx
  406b56:	add    BYTE PTR [eax],al
  406b58:	popa   
  406b59:	jo     0x406bc4
  406b5b:	sub    eax,0x772d736d
  406b60:	imul   ebp,DWORD PTR [esi+0x2d],0x65726f63
  406b67:	sub    eax,0x69676572
  406b6c:	jae    0x406be2
  406b6e:	jb     0x406be9
  406b70:	sub    eax,0x312d316c
  406b75:	sub    eax,0x6c642e30
  406b7a:	ins    BYTE PTR es:[edi],dx
  406b7b:	add    BYTE PTR [ecx+0x70],ah
  406b7e:	imul   ebp,DWORD PTR ds:0x772d736d,0x632d6e69
  406b88:	outs   dx,DWORD PTR ds:[esi]
  406b89:	jb     0x406bf0
  406b8b:	sub    eax,0x636f7270
  406b90:	gs jae 0x406c06
  406b93:	outs   dx,BYTE PTR gs:[esi]
  406b95:	jbe    0x406c00
  406b97:	jb     0x406c08
  406b99:	outs   dx,BYTE PTR ds:[esi]
  406b9a:	ins    DWORD PTR es:[edi],dx
  406b9b:	outs   dx,BYTE PTR gs:[esi]
  406b9d:	je     0x406bcc
  406b9f:	ins    BYTE PTR es:[edi],dx
  406ba0:	xor    DWORD PTR ds:0x2e302d32,ebp
  406ba6:	fs ins BYTE PTR es:[edi],dx
  406ba8:	ins    BYTE PTR es:[edi],dx
  406ba9:	add    BYTE PTR [ecx+0x70],ah
  406bac:	imul   ebp,DWORD PTR ds:0x772d736d,0x632d6e69
  406bb6:	outs   dx,DWORD PTR ds:[esi]
  406bb7:	jb     0x406c1e
  406bb9:	sub    eax,0x69727473
  406bbe:	outs   dx,BYTE PTR ds:[esi]
  406bbf:	addr16 sub eax,0x312d316c
  406bc5:	sub    eax,0x6c642e30
  406bca:	ins    BYTE PTR es:[edi],dx
  406bcb:	add    BYTE PTR [edx+0x50],dl
  406bce:	inc    ebx
  406bcf:	push   edx
  406bd0:	push   esp
  406bd1:	xor    al,0x2e
  406bd3:	fs ins BYTE PTR es:[edi],dx
  406bd5:	ins    BYTE PTR es:[edi],dx
  406bd6:	add    BYTE PTR [eax],al
  406bd8:	popa   
  406bd9:	jo     0x406c44
  406bdb:	sub    eax,0x772d736d
  406be0:	imul   ebp,DWORD PTR [esi+0x2d],0x65726f63
  406be7:	sub    eax,0x70616568
  406bec:	sub    eax,0x322d316c
  406bf1:	sub    eax,0x6c642e30
  406bf6:	ins    BYTE PTR es:[edi],dx
  406bf7:	add    BYTE PTR [ecx+0x70],ah
  406bfa:	imul   ebp,DWORD PTR ds:0x772d736d,0x632d6e69
  406c04:	outs   dx,DWORD PTR ds:[esi]
  406c05:	jb     0x406c6c
  406c07:	sub    eax,0x61636f6c
  406c0c:	ins    BYTE PTR es:[edi],dx
  406c0d:	imul   edi,DWORD PTR [edx+0x61],0x6e6f6974
  406c14:	sub    eax,0x322d316c
  406c19:	sub    eax,0x6c642e31
  406c1e:	ins    BYTE PTR es:[edi],dx
  406c1f:	add    BYTE PTR [ecx+0x70],ah
  406c22:	imul   ebp,DWORD PTR ds:0x772d736d,0x732d6e69
  406c2c:	arpl   WORD PTR gs:[ebp+0x72],si
  406c30:	imul   esi,DWORD PTR [ecx+edi*2+0x2d],0x65736162
  406c38:	sub    eax,0x322d316c
  406c3d:	sub    eax,0x6c642e30
  406c42:	ins    BYTE PTR es:[edi],dx
  406c43:	add    BYTE PTR [ecx+0x70],ah
  406c46:	imul   ebp,DWORD PTR ds:0x772d736d,0x632d6e69
  406c50:	outs   dx,DWORD PTR ds:[esi]
  406c51:	jb     0x406cb8
  406c53:	sub    eax,0x70616568
  406c58:	sub    eax,0x312d326c
  406c5d:	sub    eax,0x6c642e30
  406c62:	ins    BYTE PTR es:[edi],dx
  406c63:	add    BYTE PTR [ecx+0x70],ah
  406c66:	imul   ebp,DWORD PTR ds:0x772d736d,0x632d6e69
  406c70:	outs   dx,DWORD PTR ds:[esi]
  406c71:	jb     0x406cd8
  406c73:	sub    eax,0x646e6168
  406c78:	ins    BYTE PTR es:[edi],dx
  406c79:	gs sub eax,0x312d316c
  406c7f:	sub    eax,0x6c642e30
  406c84:	ins    BYTE PTR es:[edi],dx
  406c85:	add    BYTE PTR [eax],al
  406c87:	add    BYTE PTR [ecx+0x63],al
  406c8a:	je     0x406cf5
  406c8c:	jbe    0x406cef
  406c8e:	je     0x406cf5
  406c90:	inc    ecx
  406c91:	arpl   WORD PTR [ebx+eax*2+0x74],si
  406c95:	js     0x406c97
  406c97:	add    BYTE PTR [ebx],al
  406c99:	add    BYTE PTR [ebp+eiz*2+0x61],al
  406c9d:	arpl   WORD PTR [ecx+ebp*2+0x76],si
  406ca1:	popa   
  406ca2:	je     0x406d09
  406ca4:	inc    ecx
  406ca5:	arpl   WORD PTR [ebx+eax*2+0x74],si
  406ca9:	js     0x406cab
  406cab:	add    BYTE PTR [edx],al
  406cad:	add    BYTE PTR [ebx+0x72],al
  406cb0:	gs popa 
  406cb2:	je     0x406d19
  406cb4:	inc    ecx
  406cb5:	arpl   WORD PTR [ebx+eax*2+0x74],si
  406cb9:	js     0x406d12
  406cbb:	add    BYTE PTR [ecx],cl
  406cbd:	add    BYTE PTR [edx+0x65],dl
  406cc0:	ins    BYTE PTR es:[edi],dx
  406cc1:	gs popa 
  406cc3:	jae    0x406d2a
  406cc5:	inc    ecx
  406cc6:	arpl   WORD PTR [ebx+eax*2+0x74],si
  406cca:	js     0x406ccc
  406ccc:	add    BYTE PTR [eax],al
  406cce:	push   edx
  406ccf:	imul   esi,DWORD PTR gs:[bp+di+0x74],0x61577265
  406cd8:	imul   esi,DWORD PTR [esi+eax*2+0x6f],0x6e695372
  406ce0:	ins    BYTE PTR es:[di],dx
  406ce2:	gs dec edi
  406ce4:	bound  ebp,QWORD PTR [edx+0x65]
  406ce7:	arpl   WORD PTR [ebp+eax*2+0x78],si
  406ceb:	add    BYTE PTR [ecx+0x70],ah
  406cee:	imul   ebp,DWORD PTR ds:0x772d736d,0x632d6e69
  406cf8:	outs   dx,DWORD PTR ds:[esi]
  406cf9:	jb     0x406d60
  406cfb:	sub    eax,0x65646973
  406d00:	bound  edi,QWORD PTR [ecx+0x73]
  406d03:	imul   esp,DWORD PTR [ebp+eiz*2+0x2d],0x312d316c
  406d0b:	sub    eax,0x6c642e30
  406d10:	ins    BYTE PTR es:[edi],dx
  406d11:	add    BYTE PTR [ecx+0x70],ah
  406d14:	imul   ebp,DWORD PTR ds:0x772d736d,0x632d6e69
  406d1e:	outs   dx,DWORD PTR ds:[esi]
  406d1f:	jb     0x406d86
  406d21:	sub    eax,0x65726874
  406d26:	popa   
  406d27:	fs jo  0x406d99
  406d2a:	outs   dx,DWORD PTR ds:[esi]
  406d2b:	ins    BYTE PTR es:[edi],dx
  406d2c:	sub    eax,0x76697270
  406d31:	popa   
  406d32:	je     0x406d99
  406d34:	sub    eax,0x312d316c
  406d39:	sub    eax,0x6c642e30
  406d3e:	ins    BYTE PTR es:[edi],dx
  406d3f:	add    ch,dh
  406d41:	add    edx,DWORD PTR [edx+0x74]
  406d44:	ins    BYTE PTR es:[edi],dx
  406d45:	dec    ecx
  406d46:	ins    DWORD PTR es:[edi],dx
  406d47:	popa   
  406d48:	addr16 gs dec esi
  406d4b:	je     0x406d95
  406d4d:	gs popa 
  406d4f:	fs gs jb 0x406d53
  406d53:	add    BYTE PTR [eax*1+0x536c7452],dl
  406d5a:	gs je  0x406dad
  406d5d:	jb     0x406dce
  406d5f:	arpl   WORD PTR [ebp+0x73],sp
  406d62:	jae    0x406dad
  406d64:	jae    0x406da9
  406d66:	jb     0x406dd1
  406d68:	je     0x406dd3
  406d6a:	arpl   WORD PTR [ecx+0x6c],sp
  406d6d:	add    BYTE PTR [edx],ah
  406d6f:	add    cl,BYTE PTR [esi+0x74]
  406d72:	push   ebx
  406d73:	gs je  0x406dbf
  406d76:	outs   dx,BYTE PTR ds:[esi]
  406d77:	outs   dx,WORD PTR ds:[esi]
  406d79:	jb     0x406de8
  406d7b:	popa   
  406d7c:	je     0x406de7
  406d7e:	outs   dx,DWORD PTR ds:[esi]
  406d7f:	outs   dx,BYTE PTR ds:[esi]
  406d80:	push   eax
  406d81:	jb     0x406df2
  406d83:	arpl   WORD PTR [ebp+0x73],sp
  406d86:	jae    0x406d88
  406d88:	push   esp
  406d89:	add    eax,0x556c7452
  406d8e:	outs   dx,BYTE PTR ds:[esi]
  406d8f:	push   0x6c646e61
  406d94:	gs fs inc ebp
  406d97:	js     0x406dfc
  406d99:	gs jo  0x406e10
  406d9c:	imul   ebp,DWORD PTR [edi+0x6e],0x746c6946
  406da3:	gs jb  0x406da6
  406da6:	cmp    DWORD PTR [eax],eax
  406da8:	inc    ebp
  406da9:	je     0x406e22
  406dab:	inc    ebp
  406dac:	jbe    0x406e13
  406dae:	outs   dx,BYTE PTR ds:[esi]
  406daf:	je     0x406e03
  406db1:	imul   esi,DWORD PTR gs:[bp+di+0x74],0x7265
  406dba:	aaa    
  406dbb:	add    BYTE PTR [ebp+0x74],al
  406dbe:	ja     0x406e05
  406dc0:	jbe    0x406e27
  406dc2:	outs   dx,BYTE PTR ds:[esi]
  406dc3:	je     0x406e0a
  406dc5:	outs   dx,BYTE PTR ds:[esi]
  406dc6:	popa   
  406dc7:	bound  ebp,QWORD PTR [ebp+eiz*2+0x64]
  406dcb:	add    BYTE PTR [eax+eax*1],bh
  406dce:	inc    ebp
  406dcf:	je     0x406e48
  406dd1:	inc    ebp
  406dd2:	jbe    0x406e39
  406dd4:	outs   dx,BYTE PTR ds:[esi]
  406dd5:	je     0x406e2e
  406dd7:	jb     0x406e42
  406dd9:	je     0x406e40
  406ddb:	add    BYTE PTR [esi+0x74],ch
  406dde:	fs ins BYTE PTR es:[edi],dx
  406de0:	ins    BYTE PTR es:[edi],dx
  406de1:	cs fs ins BYTE PTR es:[edi],dx
  406de4:	ins    BYTE PTR es:[edi],dx
  406de5:	add    cl,dl
  406de7:	add    DWORD PTR [edx+0x70],edx
  406dea:	arpl   WORD PTR [ebx+0x65],dx
  406ded:	jb     0x406e65
  406def:	gs jb  0x406e44
  406df2:	imul   esi,DWORD PTR gs:[bp+di+0x74],0x66497265
  406dfb:	add    al,bl
  406dfd:	add    DWORD PTR [edx+0x70],edx
  406e00:	arpl   WORD PTR [ebx+0x65],dx
  406e03:	jb     0x406e7b
  406e05:	gs jb  0x406e5d
  406e08:	outs   dx,BYTE PTR ds:[esi]
  406e09:	jb     0x406e70
  406e0b:	imul   esi,DWORD PTR [bp+di+0x74],0x66497265
  406e13:	inc    ebp
  406e14:	js     0x406e16
  406e16:	into   
  406e17:	add    DWORD PTR [edx+0x70],edx
  406e1a:	arpl   WORD PTR [ebx+0x65],dx
  406e1d:	jb     0x406e95
  406e1f:	gs jb  0x406e6e
  406e22:	imul   esi,DWORD PTR [ebx+0x74],0xb0006e65
  406e29:	add    DWORD PTR [edx+0x70],edx
  406e2c:	arpl   WORD PTR [ebp+0x67],cx
  406e2f:	ins    DWORD PTR es:[edi],dx
  406e30:	je     0x406e89
  406e32:	popa   
  406e33:	imul   esi,DWORD PTR [ebx+edx*2+0x65],0x72657672
  406e3b:	dec    esp
  406e3c:	imul   esi,DWORD PTR [ebx+0x74],0xaf006e65
  406e43:	add    DWORD PTR [edx+0x70],edx
  406e46:	arpl   WORD PTR [ebp+0x67],cx
  406e49:	ins    DWORD PTR es:[edi],dx
  406e4a:	je     0x406e9f
  406e4c:	je     0x406ebd
  406e4e:	jo     0x406ea3
  406e50:	gs jb  0x406ec9
  406e53:	gs jb  0x406ea2
  406e56:	imul   esi,DWORD PTR [ebx+0x74],0x6e696e65
  406e5d:	add    BYTE PTR [bx+si],al
  406e60:	sbb    eax,0x61654c00
  406e65:	jbe    0x406ecc
  406e67:	inc    ebx
  406e68:	jb     0x406ed3
  406e6a:	je     0x406ed5
  406e6c:	arpl   WORD PTR [ecx+0x6c],sp
  406e6f:	push   ebx
  406e70:	arpl   WORD PTR gs:[ecx+ebp*2+0x6f],si
  406e75:	outs   dx,BYTE PTR ds:[esi]
  406e76:	add    BYTE PTR [eax],al
  406e78:	adc    DWORD PTR [eax],eax
  406e7a:	inc    ebp
  406e7b:	outs   dx,BYTE PTR ds:[esi]
  406e7c:	je     0x406ee3
  406e7e:	jb     0x406ec3
  406e80:	jb     0x406eeb
  406e82:	je     0x406eed
  406e84:	arpl   WORD PTR [ecx+0x6c],sp
  406e87:	push   ebx
  406e88:	arpl   WORD PTR gs:[ecx+ebp*2+0x6f],si
  406e8d:	outs   dx,BYTE PTR ds:[esi]
  406e8e:	add    BYTE PTR [eax],al
  406e90:	xlat   BYTE PTR ds:[ebx]
  406e91:	add    DWORD PTR [edx+0x70],edx
  406e94:	arpl   WORD PTR [ebx+0x65],dx
  406e97:	jb     0x406f0f
  406e99:	gs jb  0x406ef1
  406e9c:	outs   dx,BYTE PTR ds:[esi]
  406e9d:	jb     0x406f04
  406e9f:	imul   esi,DWORD PTR [bp+di+0x74],0x66497265
  406ea7:	add    dl,ah
  406ea9:	add    DWORD PTR [edx+0x70],edx
  406eac:	arpl   WORD PTR [ebx+0x65],dx
  406eaf:	jb     0x406f27
  406eb1:	gs jb  0x406f09
  406eb4:	jae    0x406f1b
  406eb6:	push   eax
  406eb7:	jb     0x406f28
  406eb9:	je     0x406f2e
  406ebb:	gs jno 0x406f03
  406ebe:	jo     0x406f17
  406ec0:	add    BYTE PTR [eax],al
  406ec2:	inc    edx
  406ec3:	add    BYTE PTR [ecx+0x5f],cl
  406ec6:	push   edx
  406ec7:	jo     0x406f2c
  406ec9:	dec    ebp
  406eca:	popa   
  406ecb:	jo     0x406f24
  406ecd:	imul   ebp,DWORD PTR [esi+0x33],0x61745332
  406ed4:	je     0x406f4b
  406ed6:	jae    0x406ed8
  406ed8:	add    DWORD PTR [eax],eax
  406eda:	push   edx
  406edb:	gs jae 0x406f4d
  406ede:	ins    BYTE PTR es:[edi],dx
  406edf:	jbe    0x406f46
  406ee1:	inc    esp
  406ee2:	gs ins BYTE PTR es:[edi],dx
  406ee4:	popa   
  406ee5:	jns    0x406f33
  406ee7:	outs   dx,DWORD PTR ds:[esi]
  406ee8:	popa   
  406ee9:	fs gs fs inc ecx
  406eed:	push   eax
  406eee:	dec    ecx
  406eef:	add    BYTE PTR [eax],al
  406ef1:	add    BYTE PTR [ebp+eiz*2+0x6c],al
  406ef5:	popa   
  406ef6:	jns    0x406f44
  406ef8:	outs   dx,DWORD PTR ds:[esi]
  406ef9:	popa   
  406efa:	fs inc esi
  406efc:	popa   
  406efd:	imul   ebp,DWORD PTR [ebp+esi*2+0x72],0x6f6f4865
  406f05:	imul   eax,DWORD PTR [eax],0x0
  406f08:	popa   
  406f09:	jo     0x406f74
  406f0b:	sub    eax,0x772d736d
  406f10:	imul   ebp,DWORD PTR [esi+0x2d],0x65726f63
  406f17:	sub    eax,0x616c6564
  406f1c:	jns    0x406f8a
  406f1e:	outs   dx,DWORD PTR ds:[esi]
  406f1f:	popa   
  406f20:	fs sub eax,0x312d316c
  406f26:	sub    eax,0x6c642e31
  406f2b:	ins    BYTE PTR es:[edi],dx
  406f2c:	add    BYTE PTR [eax],al
  406f2e:	or     eax,0x6c745204
  406f33:	dec    ecx
  406f34:	outs   dx,BYTE PTR ds:[esi]
  406f35:	imul   esi,DWORD PTR [ecx+ebp*2+0x61],0x657a696c
  406f3d:	inc    ebx
  406f3e:	jb     0x406fa9
  406f40:	je     0x406fab
  406f42:	arpl   WORD PTR [ecx+0x6c],sp
  406f45:	push   ebx
  406f46:	arpl   WORD PTR gs:[ecx+ebp*2+0x6f],si
  406f4b:	outs   dx,BYTE PTR ds:[esi]
  406f4c:	add    BYTE PTR [eax],al
  406f4e:	ss add eax,0x536c7452
  406f54:	jne    0x406fb8
  406f56:	inc    ecx
  406f57:	jne    0x406fcd
  406f59:	push   0x7469726f
  406f5e:	jns    0x406fb3
  406f60:	imul   esp,DWORD PTR [eax+eax*1+0x0],0x74520460
  406f68:	ins    BYTE PTR es:[edi],dx
  406f69:	dec    esp
  406f6a:	outs   dx,BYTE PTR gs:[esi]
  406f6c:	addr16 je 0x406fd7
  406f6f:	push   edx
  406f70:	gs jno 0x406fe8
  406f73:	imul   esi,DWORD PTR [edx+0x65],0x64695364
  406f7a:	add    BYTE PTR [eax],al
  406f7c:	test   al,0x3
  406f7e:	push   edx
  406f7f:	je     0x406fed
  406f81:	inc    esi
  406f82:	jb     0x406fe9
  406f84:	gs dec eax
  406f86:	gs popa 
  406f88:	jo     0x406f8a
  406f8a:	cli    
  406f8b:	add    dl,BYTE PTR [edx+0x74]
  406f8e:	ins    BYTE PTR es:[edi],dx
  406f8f:	inc    ebx
  406f90:	outs   dx,DWORD PTR ds:[esi]
  406f91:	jo     0x40700c
  406f93:	push   ebx
  406f94:	imul   esp,DWORD PTR [eax+eax*1+0x0],0x745202a9
  406f9c:	ins    BYTE PTR es:[edi],dx
  406f9d:	inc    ecx
  406f9e:	ins    BYTE PTR es:[edi],dx
  406f9f:	ins    BYTE PTR es:[edi],dx
  406fa0:	outs   dx,DWORD PTR ds:[esi]
  406fa1:	arpl   WORD PTR [ecx+0x74],sp
  406fa4:	gs dec eax
  406fa6:	gs popa 
  406fa8:	jo     0x406faa
  406faa:	sbb    al,BYTE PTR [edx+edx*2]
  406fad:	je     0x40701b
  406faf:	dec    ecx
  406fb0:	outs   dx,BYTE PTR ds:[esi]
  406fb1:	imul   esi,DWORD PTR [ecx+ebp*2+0x61],0x657a696c
  406fb9:	push   ebx
  406fba:	imul   esp,DWORD PTR [eax+eax*1+0x0],0x74520535
  406fc2:	ins    BYTE PTR es:[edi],dx
  406fc3:	push   ebx
  406fc4:	jne    0x407028
  406fc6:	inc    ecx
  406fc7:	jne    0x40703d
  406fc9:	push   0x7469726f
  406fce:	jns    0x407013
  406fd0:	outs   dx,DWORD PTR ds:[esi]
  406fd1:	jne    0x407041
  406fd3:	je     0x407028
  406fd5:	imul   esp,DWORD PTR [eax+eax*1+0x33],0x6d656d00
  406fdd:	arpl   WORD PTR [eax+0x79],si
  406fe0:	add    BYTE PTR [eax],al
  406fe2:	popa   
  406fe3:	jo     0x40704e
  406fe5:	sub    eax,0x772d736d
  406fea:	imul   ebp,DWORD PTR [esi+0x2d],0x65726f63
  406ff1:	sub    eax,0x2d747263
  406ff6:	ins    BYTE PTR es:[edi],dx
  406ff7:	xor    DWORD PTR ds:0x2e302d31,ebp
  406ffd:	fs ins BYTE PTR es:[edi],dx
  406fff:	ins    BYTE PTR es:[edi],dx
	...

Disassembly of section .didat:

00408000 <.didat>:
  408000:	mov    al,0x3c
  408002:	inc    eax
  408003:	add    al,al
  408005:	cmp    al,0x40
  408007:	add    al,dl
  408009:	cmp    al,0x40
  40800b:	add    BYTE PTR [eax+0x403c],al
  408011:	add    BYTE PTR [eax],al
	...

Disassembly of section .rsrc:

00409000 <.rsrc>:
	...
  40900c:	add    DWORD PTR [eax],eax
  40900e:	add    al,BYTE PTR [eax]
  409010:	call   0x28c09015
  409015:	add    BYTE PTR [eax],al
  409017:	adc    BYTE PTR [eax],0x0
  40901a:	add    BYTE PTR [eax],al
  40901c:	inc    eax
  40901d:	add    BYTE PTR [eax],al
  40901f:	sbb    BYTE PTR [eax],0x0
  409022:	add    BYTE PTR [eax],al
  409024:	pop    eax
  409025:	add    BYTE PTR [eax],al
  409027:	add    BYTE PTR [eax],0x0
	...
  409036:	add    DWORD PTR [eax],eax
  409038:	add    DWORD PTR [eax],eax
  40903a:	add    BYTE PTR [eax],al
  40903c:	jo     0x40903e
  40903e:	add    BYTE PTR [eax+0x0],al
	...
  40904c:	add    BYTE PTR [eax],al
  40904e:	add    DWORD PTR [eax],eax
  409050:	add    DWORD PTR [eax],eax
  409052:	add    BYTE PTR [eax],al
  409054:	mov    BYTE PTR [eax],al
  409056:	add    BYTE PTR [eax+0x0],al
	...
  409064:	add    BYTE PTR [eax],al
  409066:	add    DWORD PTR [eax],eax
  409068:	add    DWORD PTR [eax],eax
  40906a:	add    BYTE PTR [eax],al
  40906c:	mov    al,ds:0x800000
	...
  40907d:	add    BYTE PTR [ecx],al
  40907f:	add    BYTE PTR [ecx],cl
  409081:	add    al,0x0
  409083:	add    BYTE PTR [eax+0x0],bh
	...
  409095:	add    BYTE PTR [ecx],al
  409097:	add    BYTE PTR [ecx],cl
  409099:	add    al,0x0
  40909b:	add    al,cl
	...
  4090ad:	add    BYTE PTR [ecx],al
  4090af:	add    BYTE PTR [ecx],cl
  4090b1:	add    al,0x0
  4090b3:	add    al,bl
  4090b5:	add    BYTE PTR [eax],al
  4090b7:	add    BYTE PTR [eax-0x69],cl
  4090ba:	add    BYTE PTR [eax],al
  4090bc:	enter  0x0,0x0
	...
  4090c8:	mov    al,ds:0xa8000093
  4090cd:	add    eax,DWORD PTR [eax]
	...
  4090d7:	add    al,dh
  4090d9:	nop
  4090da:	add    BYTE PTR [eax],al
  4090dc:	mov    al,0x2
	...
  4090e6:	add    BYTE PTR [eax],al
  4090e8:	add    eax,DWORD PTR [eax]
  4090ea:	dec    ebp
  4090eb:	add    BYTE PTR [ebp+0x0],dl
  4090ee:	dec    ecx
  4090ef:	add    BYTE PTR [edi+edi*1],bh
  4090f2:	js     0x409161
  4090f4:	ins    BYTE PTR es:[edi],dx
  4090f5:	and    BYTE PTR [esi+0x65],dh
  4090f8:	jb     0x40916d
  4090fa:	imul   ebp,DWORD PTR [edi+0x6e],0x2e31223d
  409101:	xor    BYTE PTR [edx],ah
  409103:	and    BYTE PTR [ebp+0x6e],ah
  409106:	arpl   WORD PTR [edi+0x64],bp
  409109:	imul   ebp,DWORD PTR [esi+0x67],0x5455223d
  409110:	inc    esi
  409111:	sub    eax,0x73202238
  409116:	je     0x409179
  409118:	outs   dx,BYTE PTR ds:[esi]
  409119:	fs popa 
  40911b:	ins    BYTE PTR es:[edi],dx
  40911c:	outs   dx,DWORD PTR ds:[esi]
  40911d:	outs   dx,BYTE PTR ds:[esi]
  40911e:	gs cmp eax,0x73657922
  409124:	and    bh,BYTE PTR [edi]
  409126:	ds or  eax,0x2d213c0a
  40912c:	sub    eax,0x706f4320
  409131:	jns    0x4091a5
  409133:	imul   esp,DWORD PTR [edi+0x68],0x63282074
  40913a:	sub    DWORD PTR [eax],esp
  40913c:	dec    ebp
  40913d:	imul   esp,DWORD PTR [ebx+0x72],0x666f736f
  409144:	je     0x409166
  409146:	inc    ebx
  409147:	outs   dx,DWORD PTR ds:[esi]
  409148:	jb     0x4091ba
  40914a:	outs   dx,DWORD PTR ds:[esi]
  40914b:	jb     0x4091ae
  40914d:	je     0x4091b8
  40914f:	outs   dx,DWORD PTR ds:[esi]
  409150:	outs   dx,BYTE PTR ds:[esi]
  409151:	and    BYTE PTR ds:0xa0d3e2d,ch
  409157:	cmp    al,0x61
  409159:	jae    0x4091ce
  40915b:	gs ins DWORD PTR es:[edi],dx
  40915d:	bound  ebp,QWORD PTR [ecx+edi*2+0x20]
  409161:	js     0x4091d0
  409163:	ins    BYTE PTR es:[edi],dx
  409164:	outs   dx,BYTE PTR ds:[esi]
  409165:	jae    0x4091a4
  409167:	and    dh,BYTE PTR [ebp+0x72]
  40916a:	outs   dx,BYTE PTR ds:[esi]
  40916b:	cmp    dh,BYTE PTR [ebx+0x63]
  40916e:	push   0x73616d65
  409173:	sub    eax,0x7263696d
  409178:	outs   dx,DWORD PTR ds:[esi]
  409179:	jae    0x4091ea
  40917b:	data16 je 0x4091ab
  40917e:	arpl   WORD PTR [edi+0x6d],bp
  409181:	cmp    ah,BYTE PTR [ecx+0x73]
  409184:	ins    DWORD PTR es:[edi],dx
  409185:	cs jbe 0x4091b9
  409188:	and    ah,BYTE PTR [eax]
  40918a:	ins    DWORD PTR es:[edi],dx
  40918b:	popa   
  40918c:	outs   dx,BYTE PTR ds:[esi]
  40918d:	imul   esp,DWORD PTR [esi+0x65],0x65567473
  409194:	jb     0x409209
  409196:	imul   ebp,DWORD PTR [edi+0x6e],0x2e31223d
  40919d:	xor    BYTE PTR [edx],ah
  40919f:	ds or  eax,0x73613c0a
  4091a5:	jae    0x40920c
  4091a7:	ins    DWORD PTR es:[edi],dx
  4091a8:	bound  ebp,QWORD PTR [ecx+edi*2+0x49]
  4091ac:	fs outs dx,BYTE PTR gs:[esi]
  4091af:	je     0x40921a
  4091b1:	je     0x40922c
  4091b3:	or     eax,0x2020200a
  4091b8:	and    BYTE PTR [esi+0x65],dh
  4091bb:	jb     0x409230
  4091bd:	imul   ebp,DWORD PTR [edi+0x6e],0x2e35223d
  4091c4:	xor    DWORD PTR [esi],ebp
  4091c6:	xor    BYTE PTR [esi],ch
  4091c8:	xor    BYTE PTR [edx],ah
  4091ca:	or     eax,0x2020200a
  4091cf:	and    BYTE PTR [eax+0x72],dh
  4091d2:	outs   dx,DWORD PTR ds:[esi]
  4091d3:	arpl   WORD PTR [ebp+0x73],sp
  4091d6:	jae    0x409247
  4091d8:	jb     0x40921b
  4091da:	jb     0x40923f
  4091dc:	push   0x63657469
  4091e1:	je     0x409258
  4091e3:	jb     0x40924a
  4091e5:	cmp    eax,0x36387822
  4091ea:	and    cl,BYTE PTR ds:0x2020200a
  4091f0:	and    BYTE PTR [esi+0x61],ch
  4091f3:	ins    DWORD PTR es:[edi],dx
  4091f4:	gs cmp eax,0x63694d22
  4091fa:	jb     0x40926b
  4091fc:	jae    0x40926d
  4091fe:	data16 je 0x40922f
  409201:	push   edi
  409202:	imul   ebp,DWORD PTR [esi+0x64],0x2e73776f
  409209:	push   ebx
  40920a:	gs jb  0x409283
  40920d:	imul   esp,DWORD PTR [ebx+0x65],0x76532e73
  409214:	arpl   WORD PTR [eax+0x6f],cx
  409217:	jae    0x40928d
  409219:	and    cl,BYTE PTR ds:0x2020200a
  40921f:	and    BYTE PTR [ecx+edi*2+0x70],dh
  409223:	gs cmp eax,0x6e697722
  409229:	xor    esi,DWORD PTR [edx]
  40922b:	and    cl,BYTE PTR ds:0xd3e2f0a
  409231:	or     bh,BYTE PTR [esp+eiz*2]
  409234:	gs jae 0x40929a
  409237:	jb     0x4092a2
  409239:	jo     0x4092af
  40923b:	imul   ebp,DWORD PTR [edi+0x6e],0x736f483e
  409242:	je     0x409264
  409244:	push   eax
  409245:	jb     0x4092b6
  409247:	arpl   WORD PTR [ebp+0x73],sp
  40924a:	jae    0x40926c
  40924c:	outs   dx,WORD PTR ds:[esi]
  40924e:	jb     0x409270
  409250:	push   edi
  409251:	imul   ebp,DWORD PTR [esi+0x64],0x2073776f
  409258:	push   ebx
  409259:	gs jb  0x4092d2
  40925c:	imul   esp,DWORD PTR [ebx+0x65],0x642f3c73
  409263:	gs jae 0x4092c9
  409266:	jb     0x4092d1
  409268:	jo     0x4092de
  40926a:	imul   ebp,DWORD PTR [edi+0x6e],0xd0a0d3e
  409271:	or     bh,BYTE PTR [esp+esi*2]
  409274:	jb     0x4092eb
  409276:	jae    0x4092ec
  409278:	dec    ecx
  409279:	outs   dx,BYTE PTR ds:[esi]
  40927a:	outs   dx,WORD PTR ds:[esi]
  40927c:	and    BYTE PTR [eax+0x6d],bh
  40927f:	ins    BYTE PTR es:[edi],dx
  409280:	outs   dx,BYTE PTR ds:[esi]
  409281:	jae    0x4092c0
  409283:	and    dh,BYTE PTR [ebp+0x72]
  409286:	outs   dx,BYTE PTR ds:[esi]
  409287:	cmp    dh,BYTE PTR [ebx+0x63]
  40928a:	push   0x73616d65
  40928f:	sub    eax,0x7263696d
  409294:	outs   dx,DWORD PTR ds:[esi]
  409295:	jae    0x409306
  409297:	data16 je 0x4092c7
  40929a:	arpl   WORD PTR [edi+0x6d],bp
  40929d:	cmp    ah,BYTE PTR [ecx+0x73]
  4092a0:	ins    DWORD PTR es:[edi],dx
  4092a1:	cs jbe 0x4092d7
  4092a4:	and    bh,BYTE PTR [esi]
  4092a6:	or     eax,0x2020200a
  4092ab:	and    BYTE PTR [ebx+esi*2],bh
  4092ae:	arpl   WORD PTR gs:[ebp+0x72],si
  4092b2:	imul   esi,DWORD PTR [ecx+edi*2+0x3e],0x20200a0d
  4092ba:	and    BYTE PTR [eax],ah
  4092bc:	and    BYTE PTR [eax],ah
  4092be:	and    BYTE PTR [eax],ah
  4092c0:	cmp    al,0x72
  4092c2:	gs jno 0x40933a
  4092c5:	gs jae 0x40933c
  4092c8:	gs fs push eax
  4092cb:	jb     0x409336
  4092cd:	jbe    0x409338
  4092cf:	ins    BYTE PTR es:[edi],dx
  4092d0:	gs addr16 gs jae 0x409313
  4092d5:	or     eax,0x2020200a
  4092da:	and    BYTE PTR [eax],ah
  4092dc:	and    BYTE PTR [eax],ah
  4092de:	and    BYTE PTR [eax],ah
  4092e0:	and    BYTE PTR [eax],ah
  4092e2:	and    BYTE PTR [edx+esi*2],bh
  4092e5:	gs jno 0x40935d
  4092e8:	gs jae 0x40935f
  4092eb:	gs fs inc ebp
  4092ee:	js     0x409355
  4092f0:	arpl   WORD PTR [ebp+0x74],si
  4092f3:	imul   ebp,DWORD PTR [edi+0x6e],0x6576654c
  4092fa:	ins    BYTE PTR es:[edi],dx
  4092fb:	or     eax,0x2020200a
  409300:	and    BYTE PTR [eax],ah
  409302:	and    BYTE PTR [eax],ah
  409304:	and    BYTE PTR [eax],ah
  409306:	and    BYTE PTR [eax],ah
  409308:	and    BYTE PTR [eax],ah
  40930a:	and    BYTE PTR [eax],ah
  40930c:	and    BYTE PTR [ebp+eiz*2+0x76],ch
  409310:	gs ins BYTE PTR es:[edi],dx
  409312:	cmp    eax,0x49736122
  409317:	outs   dx,BYTE PTR ds:[esi]
  409318:	jbe    0x409389
  40931a:	imul   esp,DWORD PTR [ebp+0x72],0x22
  40931e:	or     eax,0x2020200a
  409323:	and    BYTE PTR [eax],ah
  409325:	and    BYTE PTR [eax],ah
  409327:	and    BYTE PTR [eax],ah
  409329:	and    BYTE PTR [eax],ah
  40932b:	and    BYTE PTR [eax],ah
  40932d:	and    BYTE PTR [eax],ah
  40932f:	and    BYTE PTR [ebp+0x69],dh
  409332:	inc    ecx
  409333:	arpl   WORD PTR [ebx+0x65],sp
  409336:	jae    0x4093ab
  409338:	cmp    eax,0x6c616622
  40933d:	jae    0x4093a4
  40933f:	and    cl,BYTE PTR ds:0x2020200a
  409345:	and    BYTE PTR [eax],ah
  409347:	and    BYTE PTR [eax],ah
  409349:	and    BYTE PTR [eax],ah
  40934b:	and    BYTE PTR [eax],ah
  40934d:	and    BYTE PTR [edi],ch
  40934f:	ds or  eax,0x2020200a
  409355:	and    BYTE PTR [eax],ah
  409357:	and    BYTE PTR [eax],ah
  409359:	and    BYTE PTR [edi+ebp*1],bh
  40935c:	jb     0x4093c3
  40935e:	jno    0x4093d5
  409360:	gs jae 0x4093d7
  409363:	gs fs push eax
  409366:	jb     0x4093d1
  409368:	jbe    0x4093d3
  40936a:	ins    BYTE PTR es:[edi],dx
  40936b:	gs addr16 gs jae 0x4093ae
  409370:	or     eax,0x2020200a
  409375:	and    BYTE PTR [edi+ebp*1],bh
  409378:	jae    0x4093df
  40937a:	arpl   WORD PTR [ebp+0x72],si
  40937d:	imul   esi,DWORD PTR [ecx+edi*2+0x3e],0x2f3c0a0d
  409385:	je     0x4093f9
  409387:	jne    0x4093fc
  409389:	je     0x4093d4
  40938b:	outs   dx,BYTE PTR ds:[esi]
  40938c:	outs   dx,WORD PTR ds:[esi]
  40938e:	ds or  eax,0x612f3c0a
  409394:	jae    0x409409
  409396:	gs ins DWORD PTR es:[edi],dx
  409398:	bound  ebp,QWORD PTR [ecx+edi*2+0x3e]
  40939c:	or     eax,0xa80a0d0a
  4093a1:	add    esi,DWORD PTR [eax+eax*1]
  4093a4:	add    BYTE PTR [eax],al
  4093a6:	push   esi
  4093a7:	add    BYTE PTR [ebx+0x0],dl
  4093aa:	pop    edi
  4093ab:	add    BYTE PTR [esi+0x0],dl
  4093ae:	inc    ebp
  4093af:	add    BYTE PTR [edx+0x0],dl
  4093b2:	push   ebx
  4093b3:	add    BYTE PTR [ecx+0x0],cl
  4093b6:	dec    edi
  4093b7:	add    BYTE PTR [esi+0x0],cl
  4093ba:	pop    edi
  4093bb:	add    BYTE PTR [ecx+0x0],cl
  4093be:	dec    esi
  4093bf:	add    BYTE PTR [esi+0x0],al
  4093c2:	dec    edi
  4093c3:	add    BYTE PTR [eax],al
  4093c5:	add    BYTE PTR [eax],al
  4093c7:	add    BYTE PTR [ebp+0xfeef04],bh
  4093cd:	add    BYTE PTR [ecx],al
  4093cf:	add    BYTE PTR [eax],al
  4093d1:	add    BYTE PTR [edx],cl
  4093d3:	add    BYTE PTR [eax],al
  4093d5:	inc    eax
  4093d6:	add    BYTE PTR [eax],ch
  4093d8:	add    BYTE PTR [eax],al
  4093da:	or     al,BYTE PTR [eax]
  4093dc:	add    BYTE PTR [eax+0x0],al
  4093df:	sub    BYTE PTR [edi],bh
  4093e1:	add    BYTE PTR [eax],al
  4093e3:	add    BYTE PTR [eax],al
  4093e5:	add    BYTE PTR [eax],al
  4093e7:	add    BYTE PTR [eax+eax*1],al
  4093ea:	add    al,0x0
  4093ec:	add    DWORD PTR [eax],eax
	...
  4093fa:	add    BYTE PTR [eax],al
  4093fc:	push   es
  4093fd:	add    eax,DWORD PTR [eax]
  4093ff:	add    BYTE PTR [ecx],al
  409401:	add    BYTE PTR [ebx+0x0],dl
  409404:	je     0x409406
  409406:	jb     0x409408
  409408:	imul   eax,DWORD PTR [eax],0x67006e
  40940e:	inc    esi
  40940f:	add    BYTE PTR [ecx+0x0],ch
  409412:	ins    BYTE PTR es:[edi],dx
  409413:	add    BYTE PTR [ebp+0x0],ah
  409416:	dec    ecx
  409417:	add    BYTE PTR [esi+0x0],ch
  40941a:	data16 add BYTE PTR [edi+0x0],ch
  40941e:	add    BYTE PTR [eax],al
  409420:	loop   0x409424
  409422:	add    BYTE PTR [eax],al
  409424:	add    DWORD PTR [eax],eax
  409426:	xor    BYTE PTR [eax],al
  409428:	xor    al,0x0
  40942a:	xor    BYTE PTR [eax],al
  40942c:	cmp    DWORD PTR [eax],eax
  40942e:	xor    BYTE PTR [eax],al
  409430:	xor    al,0x0
  409432:	inc    edx
  409433:	add    BYTE PTR [eax],dh
  409435:	add    BYTE PTR [eax],al
  409437:	add    BYTE PTR [eax+eax*1+0x16],cl
  40943b:	add    BYTE PTR [ecx],al
  40943d:	add    BYTE PTR [ebx+0x0],al
  409440:	outs   dx,DWORD PTR ds:[esi]
  409441:	add    BYTE PTR [ebp+0x0],ch
  409444:	jo     0x409446
  409446:	popa   
  409447:	add    BYTE PTR [esi+0x0],ch
  40944a:	jns    0x40944c
  40944c:	dec    esi
  40944d:	add    BYTE PTR [ecx+0x0],ah
  409450:	ins    DWORD PTR es:[edi],dx
  409451:	add    BYTE PTR [ebp+0x0],ah
  409454:	add    BYTE PTR [eax],al
  409456:	add    BYTE PTR [eax],al
  409458:	dec    ebp
  409459:	add    BYTE PTR [ecx+0x0],ch
  40945c:	arpl   WORD PTR [eax],ax
  40945e:	jb     0x409460
  409460:	outs   dx,DWORD PTR ds:[esi]
  409461:	add    BYTE PTR [ebx+0x0],dh
  409464:	outs   dx,DWORD PTR ds:[esi]
  409465:	add    BYTE PTR [esi+0x0],ah
  409468:	je     0x40946a
  40946a:	and    BYTE PTR [eax],al
  40946c:	inc    ebx
  40946d:	add    BYTE PTR [edi+0x0],ch
  409470:	jb     0x409472
  409472:	jo     0x409474
  409474:	outs   dx,DWORD PTR ds:[esi]
  409475:	add    BYTE PTR [edx+0x0],dh
  409478:	popa   
  409479:	add    BYTE PTR [eax+eax*1+0x69],dh
  40947d:	add    BYTE PTR [edi+0x0],ch
  409480:	outs   dx,BYTE PTR ds:[esi]
  409481:	add    BYTE PTR [eax],al
  409483:	add    BYTE PTR [eax+eax*1+0x22],ch
  409487:	add    BYTE PTR [ecx],al
  409489:	add    BYTE PTR [esi+0x0],al
  40948c:	imul   eax,DWORD PTR [eax],0x65006c
  409492:	inc    esp
  409493:	add    BYTE PTR [ebp+0x0],ah
  409496:	jae    0x409498
  409498:	arpl   WORD PTR [eax],ax
  40949a:	jb     0x40949c
  40949c:	imul   eax,DWORD PTR [eax],0x740070
  4094a2:	imul   eax,DWORD PTR [eax],0x6e006f
  4094a8:	add    BYTE PTR [eax],al
  4094aa:	add    BYTE PTR [eax],al
  4094ac:	dec    eax
  4094ad:	add    BYTE PTR [edi+0x0],ch
  4094b0:	jae    0x4094b2
  4094b2:	je     0x4094b4
  4094b4:	and    BYTE PTR [eax],al
  4094b6:	push   eax
  4094b7:	add    BYTE PTR [edx+0x0],dh
  4094ba:	outs   dx,DWORD PTR ds:[esi]
  4094bb:	add    BYTE PTR [ebx+0x0],ah
  4094be:	add    BYTE PTR gs:[ebx+0x0],dh
  4094c2:	jae    0x4094c4
  4094c4:	and    BYTE PTR [eax],al
  4094c6:	data16 add BYTE PTR [edi+0x0],ch
  4094ca:	jb     0x4094cc
  4094cc:	and    BYTE PTR [eax],al
  4094ce:	push   edi
  4094cf:	add    BYTE PTR [ecx+0x0],ch
  4094d2:	outs   dx,BYTE PTR ds:[esi]
  4094d3:	add    BYTE PTR [eax+eax*1+0x6f],ah
  4094d7:	add    BYTE PTR [edi+0x0],dh
  4094da:	jae    0x4094dc
  4094dc:	and    BYTE PTR [eax],al
  4094de:	push   ebx
  4094df:	add    BYTE PTR [ebp+0x0],ah
  4094e2:	jb     0x4094e4
  4094e4:	jbe    0x4094e6
  4094e6:	imul   eax,DWORD PTR [eax],0x650063
  4094ec:	jae    0x4094ee
  4094ee:	add    BYTE PTR [eax],al
  4094f0:	data16 add BYTE PTR [ebx],ah
  4094f3:	add    BYTE PTR [ecx],al
  4094f5:	add    BYTE PTR [esi+0x0],al
  4094f8:	imul   eax,DWORD PTR [eax],0x65006c
  4094fe:	push   esi
  4094ff:	add    BYTE PTR [ebp+0x0],ah
  409502:	jb     0x409504
  409504:	jae    0x409506
  409506:	imul   eax,DWORD PTR [eax],0x6e006f
  40950c:	add    BYTE PTR [eax],al
  40950e:	add    BYTE PTR [eax],al
  409510:	xor    DWORD PTR [eax],eax
  409512:	xor    BYTE PTR [eax],al
  409514:	add    BYTE PTR cs:[eax],dh
  409517:	add    BYTE PTR [esi],ch
  409519:	add    BYTE PTR [ecx],dh
  40951b:	add    BYTE PTR [eax],dh
  40951d:	add    BYTE PTR [edx],dh
  40951f:	add    BYTE PTR [eax+eax*1],dh
  409522:	xor    BYTE PTR [eax],al
  409524:	add    BYTE PTR cs:[ecx],dh
  409527:	add    BYTE PTR [esi],dh
  409529:	add    BYTE PTR [ebx],dh
  40952b:	add    BYTE PTR [eax],bh
  40952d:	add    BYTE PTR [eax+eax*1],dh
  409530:	and    BYTE PTR [eax],al
  409532:	sub    BYTE PTR [eax],al
  409534:	je     0x409536
  409536:	push   0x2e003100
  40953b:	add    BYTE PTR [ecx],dh
  40953d:	add    BYTE PTR ds:0x37003000,dh
  409543:	add    BYTE PTR [eax],dh
  409545:	add    BYTE PTR [ecx],bh
  409547:	add    BYTE PTR ds:0x37003100,ch
  40954d:	add    BYTE PTR [eax],dh
  40954f:	add    BYTE PTR [eax],dh
  409551:	add    BYTE PTR [ecx],ch
  409553:	add    BYTE PTR [eax],al
  409555:	add    BYTE PTR [eax],al
  409557:	add    BYTE PTR [eax],bh
  409559:	add    BYTE PTR [eax+eax*1],cl
  40955c:	add    DWORD PTR [eax],eax
  40955e:	dec    ecx
  40955f:	add    BYTE PTR [esi+0x0],ch
  409562:	je     0x409564
  409564:	add    BYTE PTR gs:[edx+0x0],dh
  409568:	outs   dx,BYTE PTR ds:[esi]
  409569:	add    BYTE PTR [ecx+0x0],ah
  40956c:	ins    BYTE PTR es:[edi],dx
  40956d:	add    BYTE PTR [esi+0x0],cl
  409570:	popa   
  409571:	add    BYTE PTR [ebp+0x0],ch
  409574:	add    BYTE PTR gs:[eax],al
  409577:	add    BYTE PTR [ebx+0x0],dh
  40957a:	jbe    0x40957c
  40957c:	arpl   WORD PTR [eax],ax
  40957e:	push   0x73006f00
  409583:	add    BYTE PTR [eax+eax*1+0x2e],dh
  409587:	add    BYTE PTR [ebp+0x0],ah
  40958a:	js     0x40958c
  40958c:	add    BYTE PTR gs:[eax],al
  40958f:	add    BYTE PTR [eax+0x1002e00],al
  409595:	add    BYTE PTR [eax+eax*1+0x65],cl
  409599:	add    BYTE PTR [edi+0x0],ah
  40959c:	popa   
  40959d:	add    BYTE PTR [eax+eax*1+0x43],ch
  4095a1:	add    BYTE PTR [edi+0x0],ch
  4095a4:	jo     0x4095a6
  4095a6:	jns    0x4095a8
  4095a8:	jb     0x4095aa
  4095aa:	imul   eax,DWORD PTR [eax],0x680067
  4095b0:	je     0x4095b2
  4095b2:	add    BYTE PTR [eax],al
  4095b4:	test   eax,0x4d002000
  4095b9:	add    BYTE PTR [ecx+0x0],ch
  4095bc:	arpl   WORD PTR [eax],ax
  4095be:	jb     0x4095c0
  4095c0:	outs   dx,DWORD PTR ds:[esi]
  4095c1:	add    BYTE PTR [ebx+0x0],dh
  4095c4:	outs   dx,DWORD PTR ds:[esi]
  4095c5:	add    BYTE PTR [esi+0x0],ah
  4095c8:	je     0x4095ca
  4095ca:	and    BYTE PTR [eax],al
  4095cc:	inc    ebx
  4095cd:	add    BYTE PTR [edi+0x0],ch
  4095d0:	jb     0x4095d2
  4095d2:	jo     0x4095d4
  4095d4:	outs   dx,DWORD PTR ds:[esi]
  4095d5:	add    BYTE PTR [edx+0x0],dh
  4095d8:	popa   
  4095d9:	add    BYTE PTR [eax+eax*1+0x69],dh
  4095dd:	add    BYTE PTR [edi+0x0],ch
  4095e0:	outs   dx,BYTE PTR ds:[esi]
  4095e1:	add    BYTE PTR [esi],ch
  4095e3:	add    BYTE PTR [eax],ah
  4095e5:	add    BYTE PTR [ecx+0x0],al
  4095e8:	ins    BYTE PTR es:[edi],dx
  4095e9:	add    BYTE PTR [eax+eax*1+0x20],ch
  4095ed:	add    BYTE PTR [edx+0x0],dh
  4095f0:	imul   eax,DWORD PTR [eax],0x680067
  4095f6:	je     0x4095f8
  4095f8:	jae    0x4095fa
  4095fa:	and    BYTE PTR [eax],al
  4095fc:	jb     0x4095fe
  4095fe:	add    BYTE PTR gs:[ebx+0x0],dh
  409602:	add    BYTE PTR gs:[edx+0x0],dh
  409606:	jbe    0x409608
  409608:	add    BYTE PTR gs:[eax+eax*1+0x2e],ah
  40960d:	add    BYTE PTR [eax],al
  40960f:	add    BYTE PTR [eax+0x0],al
  409612:	or     al,0x0
  409614:	add    DWORD PTR [eax],eax
  409616:	dec    edi
  409617:	add    BYTE PTR [edx+0x0],dh
  40961a:	imul   eax,DWORD PTR [eax],0x690067
  409620:	outs   dx,BYTE PTR ds:[esi]
  409621:	add    BYTE PTR [ecx+0x0],ah
  409624:	ins    BYTE PTR es:[edi],dx
  409625:	add    BYTE PTR [esi+0x0],al
  409628:	imul   eax,DWORD PTR [eax],0x65006c
  40962e:	outs   dx,BYTE PTR ds:[esi]
  40962f:	add    BYTE PTR [ecx+0x0],ah
  409632:	ins    DWORD PTR es:[edi],dx
  409633:	add    BYTE PTR [ebp+0x0],ah
  409636:	add    BYTE PTR [eax],al
  409638:	jae    0x40963a
  40963a:	jbe    0x40963c
  40963c:	arpl   WORD PTR [eax],ax
  40963e:	push   0x73006f00
  409643:	add    BYTE PTR [eax+eax*1+0x2e],dh
  409647:	add    BYTE PTR [ebp+0x0],ah
  40964a:	js     0x40964c
  40964c:	add    BYTE PTR gs:[eax],al
  40964f:	add    BYTE PTR [edx+0x0],ch
  409652:	and    eax,0x50000100
  409657:	add    BYTE PTR [edx+0x0],dh
  40965a:	outs   dx,DWORD PTR ds:[esi]
  40965b:	add    BYTE PTR [eax+eax*1+0x75],ah
  40965f:	add    BYTE PTR [ebx+0x0],ah
  409662:	je     0x409664
  409664:	dec    esi
  409665:	add    BYTE PTR [ecx+0x0],ah
  409668:	ins    DWORD PTR es:[edi],dx
  409669:	add    BYTE PTR [ebp+0x0],ah
  40966c:	add    BYTE PTR [eax],al
  40966e:	add    BYTE PTR [eax],al
  409670:	dec    ebp
  409671:	add    BYTE PTR [ecx+0x0],ch
  409674:	arpl   WORD PTR [eax],ax
  409676:	jb     0x409678
  409678:	outs   dx,DWORD PTR ds:[esi]
  409679:	add    BYTE PTR [ebx+0x0],dh
  40967c:	outs   dx,DWORD PTR ds:[esi]
  40967d:	add    BYTE PTR [esi+0x0],ah
  409680:	je     0x409682
  409682:	scas   al,BYTE PTR es:[edi]
  409683:	add    BYTE PTR [eax],ah
  409685:	add    BYTE PTR [edi+0x0],dl
  409688:	imul   eax,DWORD PTR [eax],0x64006e
  40968e:	outs   dx,DWORD PTR ds:[esi]
  40968f:	add    BYTE PTR [edi+0x0],dh
  409692:	jae    0x409694
  409694:	scas   al,BYTE PTR es:[edi]
  409695:	add    BYTE PTR [eax],ah
  409697:	add    BYTE PTR [edi+0x0],cl
  40969a:	jo     0x40969c
  40969c:	add    BYTE PTR gs:[edx+0x0],dh
  4096a0:	popa   
  4096a1:	add    BYTE PTR [eax+eax*1+0x69],dh
  4096a5:	add    BYTE PTR [esi+0x0],ch
  4096a8:	add    BYTE PTR [bx+si],ah
  4096ab:	add    BYTE PTR [ebx+0x0],dl
  4096ae:	jns    0x4096b0
  4096b0:	jae    0x4096b2
  4096b2:	je     0x4096b4
  4096b4:	add    BYTE PTR gs:[ebp+0x0],ch
  4096b8:	add    BYTE PTR [eax],al
  4096ba:	add    BYTE PTR [eax],al
  4096bc:	inc    esi
  4096bd:	add    BYTE PTR [ecx],dl
  4096bf:	add    BYTE PTR [ecx],al
  4096c1:	add    BYTE PTR [eax+0x0],dl
  4096c4:	jb     0x4096c6
  4096c6:	outs   dx,DWORD PTR ds:[esi]
  4096c7:	add    BYTE PTR [eax+eax*1+0x75],ah
  4096cb:	add    BYTE PTR [ebx+0x0],ah
  4096ce:	je     0x4096d0
  4096d0:	push   esi
  4096d1:	add    BYTE PTR [ebp+0x0],ah
  4096d4:	jb     0x4096d6
  4096d6:	jae    0x4096d8
  4096d8:	imul   eax,DWORD PTR [eax],0x6e006f
  4096de:	add    BYTE PTR [eax],al
  4096e0:	xor    DWORD PTR [eax],eax
  4096e2:	xor    BYTE PTR [eax],al
  4096e4:	add    BYTE PTR cs:[eax],dh
  4096e7:	add    BYTE PTR [esi],ch
  4096e9:	add    BYTE PTR [ecx],dh
  4096eb:	add    BYTE PTR [eax],dh
  4096ed:	add    BYTE PTR [edx],dh
  4096ef:	add    BYTE PTR [eax+eax*1],dh
  4096f2:	xor    BYTE PTR [eax],al
  4096f4:	add    BYTE PTR cs:[ecx],dh
  4096f7:	add    BYTE PTR [esi],dh
  4096f9:	add    BYTE PTR [ebx],dh
  4096fb:	add    BYTE PTR [eax],bh
  4096fd:	add    BYTE PTR [eax+eax*1],dh
  409700:	add    BYTE PTR [eax],al
  409702:	add    BYTE PTR [eax],al
  409704:	inc    esp
  409705:	add    BYTE PTR [eax],al
  409707:	add    BYTE PTR [ecx],al
  409709:	add    BYTE PTR [esi+0x0],dl
  40970c:	popa   
  40970d:	add    BYTE PTR [edx+0x0],dh
  409710:	inc    esi
  409711:	add    BYTE PTR [ecx+0x0],ch
  409714:	ins    BYTE PTR es:[edi],dx
  409715:	add    BYTE PTR [ebp+0x0],ah
  409718:	dec    ecx
  409719:	add    BYTE PTR [esi+0x0],ch
  40971c:	data16 add BYTE PTR [edi+0x0],ch
  409720:	add    BYTE PTR [eax],al
  409722:	add    BYTE PTR [eax],al
  409724:	and    al,0x0
  409726:	add    al,0x0
  409728:	add    BYTE PTR [eax],al
  40972a:	push   esp
  40972b:	add    BYTE PTR [edx+0x0],dh
  40972e:	popa   
  40972f:	add    BYTE PTR [esi+0x0],ch
  409732:	jae    0x409734
  409734:	ins    BYTE PTR es:[edi],dx
  409735:	add    BYTE PTR [ecx+0x0],ah
  409738:	je     0x40973a
  40973a:	imul   eax,DWORD PTR [eax],0x6e006f
  409740:	add    BYTE PTR [eax],al
  409742:	add    BYTE PTR [eax],al
  409744:	or     DWORD PTR [eax+esi*4],eax
  409747:	add    al,0xcd
  409749:	dec    ch
  40974b:	dec    al
  40974d:	add    BYTE PTR [eax],al
  40974f:	add    BYTE PTR [eax],al
  409751:	add    BYTE PTR [ecx],al
  409753:	add    BYTE PTR [eax],al
  409755:	add    BYTE PTR [eax],al
  409757:	add    BYTE PTR [ecx],dl
  409759:	add    BYTE PTR [eax],al
  40975b:	add    BYTE PTR [eax],al
  40975d:	add    BYTE PTR [eax],al
  40975f:	add    BYTE PTR [edx],al
  409761:	add    BYTE PTR [eax],al
  409763:	add    BYTE PTR [ebp-0x33],ah
  409766:	fdivr  st(3),st
  409768:	mov    ds:0xfc05ce59,al
  40976d:	cmp    DWORD PTR [ebp-0x36],0xffffffe5
  409771:	out    dx,al
  409772:	fiadd  WORD PTR [esi+0x73a55763]
  409778:	cmc    
  409779:	repnz sbb eax,ecx
  40977c:	pop    ss
  40977d:	sbb    al,0x61
  40977f:	mov    dh,ah
  409781:	call   0x0:0x1441
	...
  40979c:	mov    BYTE PTR [eax],al
  40979e:	add    BYTE PTR [eax],al
  4097a0:	push   cs
  4097a1:	add    BYTE PTR [eax],al
  4097a3:	add    BYTE PTR [eax+0x8000000],bl
  4097a9:	add    BYTE PTR [eax],al
  4097ab:	add    BYTE PTR [eax+0xe000000],ah
  4097b1:	add    BYTE PTR [eax],al
  4097b3:	add    BYTE PTR [eax+0x4000000],dh
	...
  4097c1:	add    BYTE PTR [eax],al
  4097c3:	add    BYTE PTR [eax+0xc000000],bh
  4097c9:	add    BYTE PTR [eax],al
  4097cb:	add    BYTE PTR [eax],al
  4097cd:	add    BYTE PTR [eax],al
  4097cf:	add    BYTE PTR [ebp+0x0],cl
  4097d2:	push   ebp
  4097d3:	add    BYTE PTR [ecx+0x0],cl
	...
  4097de:	add    BYTE PTR [eax],al
  4097e0:	adc    BYTE PTR [eax],al
  4097e2:	add    BYTE PTR [eax],al
  4097e4:	sbb    BYTE PTR [eax],al
  4097e6:	add    BYTE PTR [eax],al
  4097e8:	dec    ebp
  4097e9:	add    BYTE PTR [ebp+0x0],dl
  4097ec:	dec    ecx
	...
  4097f5:	add    BYTE PTR [eax],al
  4097f7:	add    BYTE PTR [eax],dl
  4097f9:	add    BYTE PTR [eax],al
  4097fb:	add    BYTE PTR [eax],al
  4097fd:	add    BYTE PTR [eax],al
  4097ff:	add    BYTE PTR [ebp+0x0],ah
  409802:	outs   dx,BYTE PTR ds:[esi]
  409803:	add    BYTE PTR ds:0x53005500,ch
  409809:	add    BYTE PTR [eax],al
  40980b:	add    BYTE PTR [eax],al
  40980d:	add    BYTE PTR [eax],al
	...

Disassembly of section .reloc:

0040a000 <.reloc>:
  40a000:	add    BYTE PTR [eax],dl
  40a002:	add    BYTE PTR [eax],al
  40a004:	mov    esp,0x10000000
  40a009:	xor    eax,0x35403514
  40a00e:	push   eax
  40a00f:	xor    eax,0x35703560
  40a014:	xor    BYTE PTR ds:0x35a03590,0xb0
  40a01b:	xor    eax,0x35d035c0
  40a020:	loopne 0x40a057
  40a022:	lock xor eax,0x36103600
  40a028:	and    BYTE PTR [esi],dh
  40a02a:	les    esi,FWORD PTR [esi]
  40a02c:	shl    BYTE PTR [esi],1
  40a02e:	fdiv   DWORD PTR [esi]
  40a030:	lock ss clc 
  40a033:	add    BYTE PTR ss:[edi],dh
  40a036:	or     BYTE PTR [edi],dh
  40a038:	adc    BYTE PTR [edi],dh
  40a03a:	sbb    BYTE PTR [edi],dh
  40a03c:	and    BYTE PTR [edi],dh
  40a03e:	sub    BYTE PTR [edi],dh
  40a040:	pop    ss
  40a041:	cmp    ebp,DWORD PTR [esi]
  40a043:	cmp    ecx,DWORD PTR [eax+0x3b]
  40a046:	push   ebp
  40a047:	cmp    ebp,DWORD PTR [eax+0x3b]
  40a04a:	outs   dx,BYTE PTR ds:[esi]
  40a04b:	cmp    esi,DWORD PTR [edi-0x1bc424c5]
  40a051:	cmp    ecx,DWORD PTR [esp+edi*1]
  40a054:	sbb    al,0x3c
  40a056:	xor    DWORD PTR [eax+edi*1],edi
  40a059:	cmp    al,0x48
  40a05b:	cmp    al,0x7e
  40a05d:	cmp    al,0x94
  40a05f:	cmp    al,0xae
  40a061:	cmp    al,0xc0
  40a063:	cmp    al,0xc9
  40a065:	cmp    al,0xe1
  40a067:	cmp    al,0xef
  40a069:	cmp    al,0x19
  40a06b:	cmp    eax,0x3d533d45
  40a070:	arpl   WORD PTR ds:0x3d7e3d72,di
  40a076:	pushf  
  40a077:	cmp    eax,0x3dc73dc1
  40a07c:	int    0x3d
  40a07e:	fnstcw WORD PTR ds:0x3df83ddf
  40a084:	or     al,0x3e
  40a086:	sbb    DWORD PTR [esi],edi
  40a088:	sub    bh,BYTE PTR [esi]
  40a08a:	cmp    eax,0x4e3e453e
  40a08f:	ds push esi
  40a091:	ds ins BYTE PTR es:[edi],dx
  40a093:	ds je  0x40a0d4
  40a096:	jl     0x40a0d6
  40a098:	test   DWORD PTR [esi],edi
  40a09a:	lea    edi,[esi]
  40a09c:	mov    ah,0x3e
  40a09e:	int3   
  40a09f:	ds in  eax,0x3e
  40a0a2:	add    DWORD PTR [edi],edi
  40a0a4:	push   ss
  40a0a5:	aas    
  40a0a6:	pop    ds
  40a0a7:	aas    
  40a0a8:	cmp    edi,DWORD PTR [edi]
  40a0aa:	dec    ecx
  40a0ab:	aas    
  40a0ac:	pop    edi
  40a0ad:	aas    
  40a0ae:	push   0x963f883f
  40a0b3:	aas    
  40a0b4:	(bad)  
  40a0b5:	aas    
  40a0b6:	fidivr WORD PTR [edi]
  40a0b8:	out    0x3f,eax
  40a0ba:	out    dx,eax
  40a0bb:	aas    
  40a0bc:	add    BYTE PTR [eax],ah
  40a0be:	add    BYTE PTR [eax],al
  40a0c0:	sub    BYTE PTR [ecx],al
  40a0c2:	add    BYTE PTR [eax],al
  40a0c4:	push   es
  40a0c5:	xor    BYTE PTR [esi],cl
  40a0c7:	xor    BYTE PTR [eax+0x30],dl
  40a0ca:	xor    BYTE PTR fs:[ecx+0x30],bh
  40a0ce:	lods   al,BYTE PTR ds:[esi]
  40a0cf:	xor    BYTE PTR [esi+0x31],ch
  40a0d2:	jns    0x40a105
  40a0d4:	cdq    
  40a0d5:	xor    DWORD PTR [ecx-0x20ce42cf],esi
  40a0db:	xor    eax,esi
  40a0dd:	xor    DWORD PTR [edx+esi*1],eax
  40a0e0:	or     dh,BYTE PTR [edx]
  40a0e2:	cmp    BYTE PTR [edx],dh
  40a0e4:	inc    esp
  40a0e5:	xor    dh,BYTE PTR [ebp+0x32]
  40a0e8:	lods   al,BYTE PTR ds:[esi]
  40a0e9:	xor    cl,ah
  40a0eb:	xor    bl,al
  40a0ed:	xor    ch,bl
  40a0ef:	xor    bh,al
  40a0f1:	xor    al,BYTE PTR ds:0x13330d33
  40a0f7:	xor    ebx,DWORD PTR [ecx]
  40a0f9:	xor    ebp,DWORD PTR [edx+0x33]
  40a0fc:	ja     0x40a131
  40a0fe:	jge    0x40a133
  40a100:	fidiv  WORD PTR [ebx]
  40a102:	in     al,0x33
  40a104:	ss xor al,0x3c
  40a107:	xor    al,0x41
  40a109:	xor    al,0x47
  40a10b:	xor    al,0x50
  40a10d:	xor    al,0x5d
  40a10f:	xor    al,0x63
  40a111:	xor    al,0x69
  40a113:	xor    al,0xa2
  40a115:	xor    al,0xca
  40a117:	xor    al,0xee
  40a119:	xor    al,0x9
  40a11b:	xor    eax,0x3534351c
  40a120:	pop    ebp
  40a121:	xor    eax,0x35783571
  40a126:	mov    BYTE PTR ds:0x360235ad,dh
  40a12c:	adc    eax,0x3d361b36
  40a131:	ss push edi
  40a133:	ss pop ebp
  40a135:	ss leave 
  40a137:	shl    DWORD PTR ss:[esi],cl
  40a13a:	fdiv   QWORD PTR [esi]
  40a13c:	lock ss inc ebx
  40a13f:	aaa    
  40a140:	dec    eax
  40a141:	aaa    
  40a142:	pop    edi
  40a143:	aaa    
  40a144:	ja     0x40a17d
  40a146:	jl     0x40a17f
  40a148:	xor    DWORD PTR [edi],0x37bc3787
  40a14e:	les    esi,FWORD PTR [edi]
  40a150:	in     eax,dx
  40a151:	aaa    
  40a152:	repnz aaa 
  40a154:	clc    
  40a155:	aaa    
  40a156:	add    BYTE PTR [eax],bh
  40a158:	push   es
  40a159:	cmp    BYTE PTR [ebx],cl
  40a15b:	cmp    BYTE PTR [eax],dl
  40a15d:	cmp    BYTE PTR [esi],dl
  40a15f:	cmp    BYTE PTR [edx],bl
  40a161:	cmp    BYTE PTR [eax],ah
  40a163:	cmp    BYTE PTR [eax+edi*1],ah
  40a166:	sub    bh,BYTE PTR [eax]
  40a168:	das    
  40a169:	cmp    BYTE PTR ds:0x40383b38,dh
  40a16f:	cmp    BYTE PTR [edi+0x38],al
  40a172:	dec    ebp
  40a173:	cmp    BYTE PTR [eax+0x38],ah
  40a176:	xchg   ebx,eax
  40a177:	cmp    BYTE PTR [ecx+0x1138a938],bl
  40a17d:	cmp    DWORD PTR [esi],ebx
  40a17f:	cmp    DWORD PTR [ecx+edi*1],edi
  40a182:	pusha  
  40a183:	cmp    DWORD PTR [edx-0x60c675c7],eax
  40a189:	cmp    DWORD PTR [ebp-0x41c64dc7],esp
  40a18f:	cmp    esi,ecx
  40a191:	cmp    DWORD PTR ds:0x2d3a103a,eax
  40a197:	cmp    bh,BYTE PTR [ebx]
  40a199:	cmp    al,BYTE PTR [edx+0x3a]
  40a19c:	jb     0x40a1d8
  40a19e:	xchg   DWORD PTR [edx],edi
  40a1a0:	lea    edi,[edx]
  40a1a2:	xchg   ebp,eax
  40a1a3:	cmp    bl,BYTE PTR [edi-0x3c547c6]
  40a1a9:	cmp    bl,BYTE PTR [esi]
  40a1ab:	cmp    edx,DWORD PTR [edx+0x3b]
  40a1ae:	(bad)  
  40a1af:	cmp    edi,DWORD PTR [esi+0x113c053b]
  40a1b5:	cmp    al,0x51
  40a1b7:	cmp    al,0x5d
  40a1b9:	cmp    al,0x8b
  40a1bb:	cmp    al,0x97
  40a1bd:	cmp    al,0xbb
  40a1bf:	cmp    al,0xe1
  40a1c1:	cmp    al,0x7
  40a1c3:	cmp    eax,0x3d693d33
  40a1c8:	jne    0x40a207
  40a1ca:	mov    ds:0xdd3daf3d,eax
  40a1cf:	cmp    eax,0x3e173de9
  40a1d4:	and    edi,DWORD PTR [esi]
  40a1d6:	aaa    
  40a1d7:	ds dec edx
  40a1d9:	ds push ebp
  40a1db:	ds jo  0x40a21d
  40a1de:	xchg   ebp,eax
  40a1df:	aas    
  40a1e0:	fwait
  40a1e1:	aas    
  40a1e2:	mov    esp,0x30003f
  40a1e7:	add    BYTE PTR [eax+0x34000001],cl
  40a1ed:	xor    BYTE PTR [edx],bh
  40a1ef:	xor    al,ah
  40a1f1:	xor    DWORD PTR ds:0x42323232,esp
  40a1f7:	xor    dl,BYTE PTR [ecx+0x32]
  40a1fa:	pop    ebp
  40a1fb:	xor    bh,BYTE PTR [ebx+0x32]
  40a1fe:	mov    esi,DWORD PTR [edx]
  40a200:	xchg   ecx,eax
  40a201:	xor    ah,BYTE PTR [ebp-0x2dcd4cce]
  40a207:	xor    dl,BYTE PTR [ecx]
  40a209:	xor    ebx,DWORD PTR [edx]
  40a20b:	xor    esp,DWORD PTR [eax]
  40a20d:	xor    ebp,DWORD PTR [edx]
  40a20f:	xor    esi,DWORD PTR [edi]
  40a211:	xor    edi,DWORD PTR [edi]
  40a213:	xor    edx,DWORD PTR [esi+0x33]
  40a216:	popa   
  40a217:	xor    esp,DWORD PTR [edi+0x33]
  40a21a:	outs   dx,DWORD PTR ds:[esi]
  40a21b:	xor    edi,DWORD PTR [ebp+0x33]
  40a21e:	test   DWORD PTR [ebx],esi
  40a220:	mov    ?,WORD PTR [ebx]
  40a222:	xchg   esi,eax
  40a223:	xor    ebx,DWORD PTR [esi-0x51cc59cd]
  40a229:	xor    esi,DWORD PTR [esi-0x39cc41cd]
  40a22f:	xor    ecx,esi
  40a231:	xor    edx,esi
  40a233:	xor    ebx,esi
  40a235:	xor    esp,esi
  40a237:	xor    ebp,esi
  40a239:	xor    esi,esi
  40a23b:	xor    edi,esi
  40a23d:	xor    eax,DWORD PTR [esi]
  40a23f:	xor    al,0x10
  40a241:	xor    al,0x17
  40a243:	xor    al,0x1e
  40a245:	xor    al,0x25
  40a247:	xor    al,0x39
  40a249:	xor    al,0x62
  40a24b:	xor    al,0x6a
  40a24d:	xor    al,0x7c
  40a24f:	xor    al,0x8e
  40a251:	xor    al,0x96
  40a253:	xor    al,0x9c
  40a255:	xor    al,0xa6
  40a257:	xor    al,0xac
  40a259:	xor    al,0xc2
  40a25b:	xor    al,0xc8
  40a25d:	xor    al,0xce
  40a25f:	xor    al,0xe4
  40a261:	xor    al,0xf4
  40a263:	xor    al,0x3
  40a265:	xor    eax,0x35283518
  40a26a:	xor    eax,0x61355035
  40a26f:	xor    eax,0x35753567
  40a274:	jnp    0x40a2ab
  40a276:	ret    0xd435
  40a279:	xor    eax,0x360935e3
  40a27e:	dec    esi
  40a27f:	ss ins BYTE PTR es:[edi],dx
  40a281:	ss jnp 0x40a2ba
  40a284:	test   BYTE PTR [esi],dh
  40a286:	mov    dh,BYTE PTR [esi]
  40a288:	movs   DWORD PTR es:[edi],DWORD PTR ds:[esi]
  40a289:	ss mov bl,0x36
  40a28c:	(bad)  
  40a28d:	fnstenv ss:[esi]
  40a290:	fbstp  TBYTE PTR [esi]
  40a292:	call   0x657800cd
  40a297:	aaa    
  40a298:	jle    0x40a2d1
  40a29a:	mov    BYTE PTR [edi],dh
  40a29c:	cmps   BYTE PTR ds:[esi],BYTE PTR es:[edi]
  40a29d:	aaa    
  40a29e:	mov    al,0x37
  40a2a0:	aad    0x37
  40a2a2:	(bad)  [edi]
  40a2a4:	div    BYTE PTR [edi]
  40a2a6:	adc    al,0x38
  40a2a8:	xor    DWORD PTR [eax],edi
  40a2aa:	inc    esp
  40a2ab:	cmp    BYTE PTR [edx+0x38],bl
  40a2ae:	cmp    BYTE PTR [di+0x38],ch
  40a2b2:	mov    edi,DWORD PTR [eax]
  40a2b4:	lahf   
  40a2b5:	cmp    BYTE PTR [eax+edi*1+0x38db38b7],ch
  40a2bc:	add    DWORD PTR [ecx],edi
  40a2be:	or     bh,BYTE PTR [ecx]
  40a2c0:	adc    BYTE PTR [ecx],bh
  40a2c2:	pop    ss
  40a2c3:	cmp    DWORD PTR [edi],esp
  40a2c5:	cmp    DWORD PTR ds:0x47393c39,ebp
  40a2cb:	cmp    DWORD PTR [ecx+0x39],ebx
  40a2ce:	pop    edi
  40a2cf:	cmp    DWORD PTR [esi+0x39],ebp
  40a2d2:	jns    0x40a30d
  40a2d4:	mov    dl,0x39
  40a2d6:	in     al,dx
  40a2d7:	cmp    edx,esi
  40a2d9:	cmp    edx,edi
  40a2db:	cmp    DWORD PTR [eax],eax
  40a2dd:	cmp    ah,BYTE PTR [esi]
  40a2df:	cmp    bh,BYTE PTR [ebp+0x3a]
  40a2e2:	mov    eax,ds:0xc83abc3a
  40a2e7:	cmp    dl,bh
  40a2e9:	cmp    ah,al
  40a2eb:	cmp    ch,cl
  40a2ed:	cmp    bh,dh
  40a2ef:	cmp    dl,BYTE PTR [ebx]
  40a2f1:	cmp    esp,DWORD PTR [eax]
  40a2f3:	cmp    ebp,DWORD PTR [eax]
  40a2f5:	cmp    eax,DWORD PTR [eax+0x3b]
  40a2f8:	dec    ecx
  40a2f9:	cmp    edx,DWORD PTR [ebx+edi*1+0x5b]
  40a2fd:	cmp    esi,DWORD PTR [edx+0x3b]
  40a300:	js     0x40a33d
  40a302:	jle    0x40a33f
  40a304:	test   BYTE PTR [ebx],bh
  40a306:	mov    bh,BYTE PTR [ebx]
  40a308:	nop
  40a309:	cmp    edx,DWORD PTR [edi-0x5ac461c5]
  40a30f:	cmp    ebp,DWORD PTR [ebx+edi*1+0x3bba3bb3]
  40a316:	sar    DWORD PTR [ebx],0xc9
  40a319:	cmp    edx,ecx
  40a31b:	cmp    ebx,ecx
  40a31d:	cmp    esp,ebp
  40a31f:	cmp    ebp,esi
  40a321:	cmp    esi,ebx
  40a323:	cmp    edi,ecx
  40a325:	cmp    eax,DWORD PTR [ebx]
  40a327:	cmp    al,0xd
  40a329:	cmp    al,0x1d
  40a32b:	cmp    al,0x2d
  40a32d:	cmp    al,0x33
  40a32f:	cmp    al,0x3e
  40a331:	cmp    al,0x44
  40a333:	cmp    al,0x50
  40a335:	cmp    al,0x60
  40a337:	cmp    al,0x69
  40a339:	cmp    al,0x81
  40a33b:	cmp    al,0x93
  40a33d:	cmp    al,0xb1
  40a33f:	cmp    al,0xc1
  40a341:	cmp    al,0xd1
  40a343:	cmp    al,0xe2
  40a345:	cmp    al,0xee
  40a347:	cmp    al,0x18
  40a349:	cmp    eax,0x3d5f3d1e
  40a34e:	gs cmp eax,0x3d713d6b
  40a354:	mov    al,0x3d
  40a356:	mov    dh,0x3d
  40a358:	mov    esp,0x193dc23d
  40a35d:	ds pop ds
  40a35f:	ds and eax,0xf43e2b3e
  40a365:	ds std 
  40a367:	add    edi,DWORD PTR ds:[edi]
  40a36a:	clc    
  40a36b:	aas    
  40a36c:	add    BYTE PTR [eax+0x0],al
  40a36f:	add    al,dl
  40a371:	add    BYTE PTR [eax],al
  40a373:	add    BYTE PTR [edi],cl
  40a375:	xor    BYTE PTR [eax+esi*1+0x5a],dl
  40a379:	xor    BYTE PTR [eax+0x30],ah
  40a37c:	mov    esi,DWORD PTR [eax]
  40a37e:	cwde   
  40a37f:	xor    BYTE PTR [edi-0x1ccf2fd0],dh
  40a385:	xor    ch,bh
  40a387:	xor    BYTE PTR [esi],dl
  40a389:	xor    DWORD PTR [ecx+esi*1],ebx
  40a38c:	xor    DWORD PTR [ecx],esi
  40a38e:	jne    0x40a3c1
  40a390:	jnp    0x40a3c3
  40a392:	xor    DWORD PTR [ecx],0x3195318e
  40a398:	movs   DWORD PTR es:[edi],DWORD PTR ds:[esi]
  40a399:	xor    DWORD PTR [edx+0x2831f831],esi
  40a39f:	xor    ch,BYTE PTR [esi]
  40a3a1:	xor    bl,BYTE PTR [ecx+0x32]
  40a3a4:	push   DWORD PTR [edx]
  40a3a6:	pop    ebx
  40a3a7:	xor    esp,DWORD PTR [edx+0x33]
  40a3aa:	push   0xe4337d33
  40a3af:	xor    ebp,ebp
  40a3b1:	xor    esi,esp
  40a3b3:	xor    edi,esp
  40a3b5:	xor    eax,DWORD PTR [esp+esi*1]
  40a3b8:	adc    eax,0xaf341b34
  40a3bd:	xor    al,0xd1
  40a3bf:	xor    al,0xe3
  40a3c1:	xor    al,0xe9
  40a3c3:	xor    al,0xf5
  40a3c5:	xor    al,0x54
  40a3c7:	xor    eax,0x3567355a
  40a3cc:	ja     0x40a403
  40a3ce:	jge    0x40a405
  40a3d0:	mov    eax,ds:0xd335c435
  40a3d5:	xor    eax,0x35f735ea
  40a3da:	add    al,0x36
  40a3dc:	adc    DWORD PTR [esi],esi
  40a3de:	push   ds
  40a3df:	ss xor eax,0x4f364236
  40a3e5:	ss pop esp
  40a3e7:	imul   esi,DWORD PTR ss:[esi],0x369c3692
  40a3ee:	shl    BYTE PTR [esi],1
  40a3f0:	fbstp  TBYTE PTR [esi]
  40a3f2:	or     BYTE PTR [edi],dh
  40a3f4:	aas    
  40a3f5:	aaa    
  40a3f6:	outs   dx,DWORD PTR ds:[esi]
  40a3f7:	aaa    
  40a3f8:	jbe    0x40a431
  40a3fa:	xchg   DWORD PTR [edi],esi
  40a3fc:	lea    esi,[edi]
  40a3fe:	test   al,0x37
  40a400:	mov    cl,0x37
  40a402:	mov    eax,0xdd37d737
  40a407:	aaa    
  40a408:	repz aaa 
  40a40a:	stc    
  40a40b:	aaa    
  40a40c:	or     edi,DWORD PTR [eax]
  40a40e:	sbb    al,0x38
  40a410:	and    bh,BYTE PTR [eax]
  40a412:	sub    DWORD PTR [eax],edi
  40a414:	dec    edi
  40a415:	cmp    BYTE PTR [eax+edi*1+0x5c],dl
  40a419:	cmp    BYTE PTR [edx+0x38],ah
  40a41c:	ins    DWORD PTR es:[edi],dx
  40a41d:	cmp    BYTE PTR [ebx+0x38],dh
  40a420:	js     0x40a45a
  40a422:	jle    0x40a45c
  40a424:	test   DWORD PTR [eax],edi
  40a426:	scas   eax,DWORD PTR es:[edi]
  40a427:	cmp    BYTE PTR [eax+edi*1+0x38c238bc],dh
  40a42e:	int    0x38
  40a430:	sar    DWORD PTR [eax],cl
  40a432:	fdivr  DWORD PTR [eax]
  40a434:	fidivr WORD PTR [eax]
  40a436:	in     eax,0x38
  40a438:	dec    ebp
  40a439:	cmp    DWORD PTR [eax],eax
  40a43b:	add    BYTE PTR [eax],al
  40a43d:	pusha  
  40a43e:	add    BYTE PTR [eax],al
  40a440:	or     al,0x0
  40a442:	add    BYTE PTR [eax],al
  40a444:	shl    BYTE PTR [ecx],0x0
  40a447:	add    BYTE PTR [eax],al
  40a449:	add    BYTE PTR [eax],0x0
  40a44c:	adc    BYTE PTR [eax],al
  40a44e:	add    BYTE PTR [eax],al
  40a450:	add    BYTE PTR [eax],dh
  40a452:	add    al,0x30
  40a454:	or     BYTE PTR [eax],dh
  40a456:	or     al,0x30
