
b4e7447b3732199920a940f3a7c0768ab7040d68290e45c4178d2e0e4365c972.exe:     file format pei-i386


Disassembly of section .text:

00402000 <.text>:
  402000:	ror    BYTE PTR [ebx+0x0],1
  402003:	add    BYTE PTR [eax],al
  402005:	add    BYTE PTR [eax],al
  402007:	add    BYTE PTR [eax+0x0],cl
  40200a:	add    BYTE PTR [eax],al
  40200c:	add    al,BYTE PTR [eax]
  40200e:	add    eax,0x2e0400
  402013:	add    BYTE PTR [eax+0x1c],ah
  402016:	add    BYTE PTR [eax],al
  402018:	or     eax,DWORD PTR [eax]
  40201a:	add    BYTE PTR [eax],al
  40201c:	or     eax,0x70060000
  402021:	daa    
  402022:	add    BYTE PTR [eax],al
  402024:	xchg   ebx,eax
  402025:	push   es
  402026:	add    BYTE PTR [eax],al
  402028:	push   eax
  402029:	and    BYTE PTR [eax],al
  40202b:	add    BYTE PTR [eax+0x0],al
	...
  40204d:	add    BYTE PTR [eax],al
  40204f:	add    BYTE PTR [edx-0x3d],dl
  402052:	jl     0x402024
  402054:	cmps   DWORD PTR ds:[esi],DWORD PTR es:[edi]
  402055:	test   DWORD PTR [esi-0x54],ebx
  402058:	jp     0x401ff3
  40205a:	stos   BYTE PTR es:[edi],al
  40205b:	ss xchg ebp,eax
  40205d:	push   edi
  40205e:	xor    eax,DWORD PTR [ecx-0x75]
  402061:	mov    BYTE PTR [ebp+0x45],bh
  402064:	jg     0x402068
  402066:	dec    edi
  402067:	and    al,0x6b
  402069:	sbb    al,dl
  40206b:	in     eax,0xc1
  40206d:	xchg   edi,eax
  40206e:	scas   eax,DWORD PTR es:[edi]
  40206f:	mov    al,0x50
  402071:	loope  0x402027
  402073:	sar    dl,1
  402075:	dec    esi
  402076:	push   ebp
  402077:	or     DWORD PTR [ebp-0x51],edi
  40207a:	cmp    ebx,esp
  40207c:	enter  0x8935,0x0
  402080:	jge    0x4020ad
  402082:	outs   dx,BYTE PTR ds:[esi]
  402083:	loopne 0x4020c6
  402085:	call   0x78c5dfe2
  40208a:	fcom   QWORD PTR [edi]
  40208c:	pop    cx
  40208e:	arpl   WORD PTR [esi+edx*2-0x1bd1b69c],cx
  402095:	call   0xf05c02cf
  40209a:	loop   0x4020aa
  40209c:	dec    esi
  40209d:	test   cl,ch
  40209f:	ins    DWORD PTR es:[edi],dx
  4020a0:	ss or  ch,cl
  4020a3:	stc    
  4020a4:	cmp    al,0x12
  4020a6:	jmp    0x3c71a6c0
  4020ab:	(bad)  
  4020ac:	call   FWORD PTR [esi*8-0x34fc1c2b]
  4020b3:	pop    esp
  4020b4:	js     0x4020d8
  4020b6:	sti    
  4020b7:	(bad)  
  4020b9:	(bad)  
  4020ba:	fidivr WORD PTR [eax]
  4020bc:	xor    DWORD PTR [esp+edx*1+0x713f84f6],esi
  4020c3:	mov    edx,0x5d19d10
  4020c8:	pushf  
  4020c9:	push   ebp
  4020ca:	movs   DWORD PTR es:[edi],DWORD PTR ds:[esi]
  4020cb:	out    dx,al
  4020cc:	dec    ecx
  4020cd:	loop   0x402100
  4020cf:	add    eax,0x1428021e
  4020d4:	add    BYTE PTR [eax],al
  4020d6:	or     ch,BYTE PTR [edx]
  4020d8:	adc    esi,DWORD PTR [eax]
  4020da:	add    eax,0x9a00
  4020df:	add    BYTE PTR [ecx],al
  4020e1:	add    BYTE PTR [eax],al
  4020e3:	adc    DWORD PTR [edx],eax
  4020e5:	sub    BYTE PTR ds:0x3a0a0000,dl
  4020eb:	xchg   DWORD PTR [eax],eax
  4020ed:	add    BYTE PTR [eax],al
  4020ef:	sub    BYTE PTR [esi],dl
  4020f1:	add    BYTE PTR [eax],al
  4020f3:	or     cl,BYTE PTR [edx]
  4020f5:	push   es
  4020f6:	outs   dx,DWORD PTR ds:[esi]
  4020f7:	pop    ss
  4020f8:	add    BYTE PTR [eax],al
  4020fa:	or     dl,BYTE PTR [ebx]
  4020fc:	add    al,0x16
  4020fe:	adc    eax,DWORD PTR ds:0x411482b
  402104:	adc    DWORD PTR ds:0xd0070b9a,eax
  40210a:	and    al,BYTE PTR [eax]
  40210c:	add    BYTE PTR [ecx],al
  40210e:	sub    BYTE PTR [eax],bl
  402110:	add    BYTE PTR [eax],al
  402112:	or     ch,BYTE PTR [eax]
  402114:	sbb    DWORD PTR [eax],eax
  402116:	add    BYTE PTR [edx],cl
  402118:	je     0x40213c
  40211a:	add    BYTE PTR [eax],al
  40211c:	add    DWORD PTR [eax+ecx*1],ecx
  40211f:	sub    al,0x23
  402121:	or     BYTE PTR [edi+0x1a],ch
  402124:	add    BYTE PTR [eax],al
  402126:	or     al,BYTE PTR [edx]
  402128:	pop    ss
  402129:	outs   dx,DWORD PTR ds:[esi]
  40212a:	sbb    eax,DWORD PTR [eax]
  40212c:	add    BYTE PTR [edx],cl
  40212e:	sub    al,0x14
  402130:	push   es
  402131:	pop    es
  402132:	outs   dx,DWORD PTR ds:[esi]
  402133:	sbb    al,0x0
  402135:	add    BYTE PTR [edx],cl
  402137:	outs   dx,DWORD PTR ds:[esi]
  402138:	sbb    eax,0x740a0000
  40213d:	add    al,BYTE PTR [eax]
  40213f:	add    BYTE PTR [edx],al
  402141:	or     eax,0x51138de
  402146:	pop    ss
  402147:	pop    eax
  402148:	adc    eax,DWORD PTR ds:0x4110511
  40214e:	mov    gs,WORD PTR [ecx+0x32]
  402151:	mov    al,0x28
  402153:	push   ds
  402154:	add    BYTE PTR [eax],al
  402156:	or     ch,BYTE PTR [eax]
  402158:	push   ds
  402159:	add    BYTE PTR [eax],al
  40215b:	push   es
  40215c:	pop    ss
  40215d:	lea    eax,[ebx]
  40215f:	add    BYTE PTR [eax],al
  402161:	add    DWORD PTR [ebx],edx
  402163:	push   es
  402164:	adc    DWORD PTR [esi],eax
  402166:	push   ss
  402167:	add    ah,BYTE PTR [edx+0x1f280611]
  40216d:	add    BYTE PTR [eax],al
  40216f:	or     dh,BYTE PTR [ebx+0x20]
  402172:	add    BYTE PTR [eax],al
  402174:	or     bh,BYTE PTR [edx+0x73]
  402177:	or     al,0x0
  402179:	add    BYTE PTR [esi],al
  40217b:	sub    cl,BYTE PTR [ecx]
  40217d:	sub    bl,BYTE PTR [edx]
  40217f:	sub    BYTE PTR [eax],bl
  402181:	add    BYTE PTR [eax],al
  402183:	push   es
  402184:	sub    dh,BYTE PTR [edx]
  402186:	sub    BYTE PTR [edi],cl
  402188:	add    BYTE PTR [eax],al
  40218a:	push   es
  40218b:	add    ebp,DWORD PTR [edi+0x21]
  40218e:	add    BYTE PTR [eax],al
  402190:	or     ch,BYTE PTR [edx]
  402192:	add    BYTE PTR [eax],al
  402194:	adc    esi,DWORD PTR [eax]
  402196:	add    al,0x0
  402198:	(bad)  
  402199:	add    BYTE PTR [eax],al
  40219b:	add    BYTE PTR [edx],al
  40219d:	add    BYTE PTR [eax],al
  40219f:	adc    DWORD PTR [edx],eax
  4021a1:	outs   dx,DWORD PTR ds:[esi]
  4021a2:	and    eax,DWORD PTR [eax]
  4021a4:	add    BYTE PTR [edx],cl
  4021a6:	sbb    ecx,DWORD PTR [ebp+0x1000008]
  4021ac:	or     al,BYTE PTR [esi]
  4021ae:	push   ss
  4021af:	and    BYTE PTR [eax],ch
  4021b1:	add    eax,0x69e0000
  4021b6:	pop    ss
  4021b7:	and    BYTE PTR [esi+0x5],al
  4021ba:	add    BYTE PTR [eax],al
  4021bc:	sahf   
  4021bd:	push   es
  4021be:	sbb    BYTE PTR [eax],ah
  4021c0:	mov    WORD PTR ds:0x69e0000,es
  4021c6:	sbb    DWORD PTR [eax],esp
  4021c8:	stos   BYTE PTR es:[edi],al
  4021c9:	add    eax,0x69e0000
  4021ce:	sbb    ah,BYTE PTR [eax]
  4021d0:	loop   0x4021d6
  4021d2:	add    BYTE PTR [eax],al
  4021d4:	sahf   
  4021d5:	push   es
  4021d6:	outs   dx,DWORD PTR ds:[esi]
  4021d7:	and    al,0x0
  4021d9:	add    BYTE PTR [edx],cl
  4021db:	add    al,BYTE PTR [ebx]
  4021dd:	add    al,0x28
  4021df:	and    eax,0x20a0000
  4021e4:	jae    0x40220c
  4021e6:	add    BYTE PTR [eax],al
  4021e8:	or     bh,BYTE PTR [ebp+0x1]
  4021eb:	add    BYTE PTR [eax],al
  4021ed:	add    al,0x2
  4021ef:	jnp    0x4021f2
  4021f1:	add    BYTE PTR [eax],al
  4021f3:	add    al,0x2
  4021f5:	sub    BYTE PTR [edi],ah
  4021f7:	add    BYTE PTR [eax],al
  4021f9:	or     ah,BYTE PTR [eax]
  4021fb:	sub    BYTE PTR ds:0x286f0000,al
  402201:	add    BYTE PTR [eax],al
  402203:	or     ch,BYTE PTR [edi+0x29]
  402206:	add    BYTE PTR [eax],al
  402208:	or     al,BYTE PTR [edx]
  40220a:	jnp    0x40220d
  40220c:	add    BYTE PTR [eax],al
  40220e:	add    al,0x2
  402210:	sub    BYTE PTR [edi],ah
  402212:	add    BYTE PTR [eax],al
  402214:	or     ah,BYTE PTR [eax]
  402216:	inc    esi
  402217:	add    eax,0x286f0000
  40221c:	add    BYTE PTR [eax],al
  40221e:	or     ch,BYTE PTR [edi+0x2a]
  402221:	add    BYTE PTR [eax],al
  402223:	or     al,BYTE PTR [edx]
  402225:	jnp    0x402228
  402227:	add    BYTE PTR [eax],al
  402229:	add    al,0x2
  40222b:	sub    BYTE PTR [edi],ah
  40222d:	add    BYTE PTR [eax],al
  40222f:	or     ah,BYTE PTR [eax]
  402231:	stos   BYTE PTR es:[edi],al
  402232:	add    eax,0x286f0000
  402237:	add    BYTE PTR [eax],al
  402239:	or     ch,BYTE PTR [edi+0x2b]
  40223c:	add    BYTE PTR [eax],al
  40223e:	or     al,BYTE PTR [edx]
  402240:	jnp    0x402243
  402242:	add    BYTE PTR [eax],al
  402244:	add    al,0x2
  402246:	sub    BYTE PTR [edi],ah
  402248:	add    BYTE PTR [eax],al
  40224a:	or     ah,BYTE PTR [eax]
  40224c:	mov    WORD PTR ds:0x286f0000,es
  402252:	add    BYTE PTR [eax],al
  402254:	or     ch,BYTE PTR [edi+0x2c]
  402257:	add    BYTE PTR [eax],al
  402259:	or     al,BYTE PTR [edx]
  40225b:	jnp    0x40225e
  40225d:	add    BYTE PTR [eax],al
  40225f:	add    al,0x2
  402261:	sub    BYTE PTR [edi],ah
  402263:	add    BYTE PTR [eax],al
  402265:	or     ah,BYTE PTR [eax]
  402267:	loop   0x40226d
  402269:	add    BYTE PTR [eax],al
  40226b:	outs   dx,DWORD PTR ds:[esi]
  40226c:	sub    BYTE PTR [eax],al
  40226e:	add    BYTE PTR [edx],cl
  402270:	outs   dx,DWORD PTR ds:[esi]
  402271:	sub    eax,0x2a0a0000
  402276:	sbb    ch,BYTE PTR [eax]
  402278:	sbb    DWORD PTR [eax],eax
  40227a:	add    BYTE PTR [esi],al
  40227c:	sub    al,BYTE PTR [eax]
  40227e:	add    BYTE PTR [eax],al
  402280:	sbb    esi,DWORD PTR [eax]
  402282:	add    eax,0x1df00
  402287:	add    BYTE PTR [ebx],al
  402289:	add    BYTE PTR [eax],al
  40228b:	adc    DWORD PTR [ebx+0x2e],esi
  40228e:	add    BYTE PTR [eax],al
  402290:	or     cl,BYTE PTR [edx]
  402292:	add    bh,BYTE PTR [ebx+0x1]
  402295:	add    BYTE PTR [eax],al
  402297:	add    al,0x6f
  402299:	das    
  40229a:	add    BYTE PTR [eax],al
  40229c:	or     ch,BYTE PTR ds:0x17b0227
  4022a2:	add    BYTE PTR [eax],al
  4022a4:	add    al,0x6f
  4022a6:	xor    BYTE PTR [eax],al
  4022a8:	add    BYTE PTR [edx],cl
  4022aa:	sub    eax,0x17b021a
  4022af:	add    BYTE PTR [eax],al
  4022b1:	add    al,0x6f
  4022b3:	xor    DWORD PTR [eax],eax
  4022b5:	add    BYTE PTR [edx],cl
  4022b7:	sub    eax,0x17b020d
  4022bc:	add    BYTE PTR [eax],al
  4022be:	add    al,0x6f
  4022c0:	xor    al,BYTE PTR [eax]
  4022c2:	add    BYTE PTR [edx],cl
  4022c4:	sub    al,0x12
  4022c6:	push   es
  4022c7:	add    bh,BYTE PTR [ebx+0x1]
  4022ca:	add    BYTE PTR [eax],al
  4022cc:	add    al,0x2
  4022ce:	jnp    0x402303
  4022d0:	add    BYTE PTR [eax],al
  4022d2:	or     ch,BYTE PTR [edi+0x34]
  4022d5:	add    BYTE PTR [eax],al
  4022d7:	or     al,BYTE PTR [edx]
  4022d9:	jnp    0x4022dc
  4022db:	add    BYTE PTR [eax],al
  4022dd:	add    al,0x6f
  4022df:	xor    eax,0x390a0000
  4022e4:	xor    eax,0x6000001
  4022e9:	add    bh,BYTE PTR [ebx+0x33]
  4022ec:	add    BYTE PTR [eax],al
  4022ee:	or     ch,BYTE PTR [edi+0x36]
  4022f1:	add    BYTE PTR [eax],al
  4022f3:	or     cl,BYTE PTR [ebx]
  4022f5:	add    bh,BYTE PTR [esi+0x37]
  4022f8:	add    BYTE PTR [eax],al
  4022fa:	or     ch,BYTE PTR [eax]
  4022fc:	add    al,0x0
  4022fe:	add    BYTE PTR [esi],al
  402300:	sub    BYTE PTR [esi],bl
  402302:	add    BYTE PTR [eax],al
  402304:	or     dh,BYTE PTR [edx+0x1]
  402307:	add    BYTE PTR [eax],al
  402309:	jo     0x402323
  40230b:	lea    eax,[ebx]
  40230d:	add    BYTE PTR [eax],al
  40230f:	add    DWORD PTR [ebx],edx
  402311:	add    al,0x11
  402313:	add    al,0x16
  402315:	sub    BYTE PTR [edi],dl
  402317:	add    BYTE PTR [eax],al
  402319:	push   es
  40231a:	mov    ds:0x7170411,al
  40231f:	outs   dx,DWORD PTR ds:[esi]
  402320:	cmp    BYTE PTR [eax],al
  402322:	add    BYTE PTR [edx],cl
  402324:	adc    eax,DWORD PTR ds:0x39280512
  40232a:	add    BYTE PTR [eax],al
  40232c:	or     ah,BYTE PTR [edx+0x1f280411]
  402332:	add    BYTE PTR [eax],al
  402334:	or     cl,BYTE PTR [edx+eax*1]
  402337:	or     BYTE PTR [eax],ch
  402339:	add    al,0x0
  40233b:	add    BYTE PTR [esi],al
  40233d:	pop    es
  40233e:	outs   dx,DWORD PTR ds:[esi]
  40233f:	cmp    BYTE PTR [eax],al
  402341:	add    BYTE PTR [edx],cl
  402343:	cmp    ebp,edx
  402345:	add    BYTE PTR [eax],al
  402347:	add    BYTE PTR [edx],al
  402349:	jle    0x402382
  40234b:	add    BYTE PTR [eax],al
  40234d:	or     ch,BYTE PTR [eax]
  40234f:	add    al,0x0
  402351:	add    BYTE PTR [esi],al
  402353:	sub    BYTE PTR [esi],bl
  402355:	add    BYTE PTR [eax],al
  402357:	or     dh,BYTE PTR [edx+0x25]
  40235a:	add    BYTE PTR [eax],al
  40235c:	jo     0x402375
  40235e:	lea    eax,[ebx]
  402360:	add    BYTE PTR [eax],al
  402362:	add    DWORD PTR [ebx],edx
  402364:	push   es
  402365:	adc    DWORD PTR [esi],eax
  402367:	push   ss
  402368:	jb     0x4023a1
  40236a:	add    BYTE PTR [eax],al
  40236c:	jo     0x402310
  40236e:	adc    DWORD PTR [esi],eax
  402370:	sub    BYTE PTR [edi],bl
  402372:	add    BYTE PTR [eax],al
  402374:	or     cl,BYTE PTR [edx+eax*1]
  402377:	or     BYTE PTR [eax],ch
  402379:	add    al,0x0
  40237b:	add    BYTE PTR [esi],al
  40237d:	sub    BYTE PTR [esi],bl
  40237f:	add    BYTE PTR [eax],al
  402381:	or     dh,BYTE PTR [edx+0x25]
  402384:	add    BYTE PTR [eax],al
  402386:	jo     0x40239f
  402388:	lea    eax,[ebx]
  40238a:	add    BYTE PTR [eax],al
  40238c:	add    DWORD PTR [ebx],edx
  40238e:	pop    es
  40238f:	adc    DWORD PTR [edi],eax
  402391:	push   ss
  402392:	jb     0x40232b
  402394:	add    BYTE PTR [eax],al
  402396:	jo     0x40233a
  402398:	adc    DWORD PTR [edi],eax
  40239a:	sub    BYTE PTR [edi],bl
  40239c:	add    BYTE PTR [eax],al
  40239e:	or     cl,BYTE PTR [edx+eax*1]
  4023a1:	or     BYTE PTR [eax],ch
  4023a3:	add    al,0x0
  4023a5:	add    BYTE PTR [esi],al
  4023a7:	pop    es
  4023a8:	outs   dx,DWORD PTR ds:[esi]
  4023a9:	cmp    al,BYTE PTR [eax]
  4023ab:	add    BYTE PTR [edx],cl
  4023ad:	outs   dx,DWORD PTR ds:[esi]
  4023ae:	cmp    eax,DWORD PTR [eax]
  4023b0:	add    BYTE PTR [edx],cl
  4023b2:	push   ss
  4023b3:	xor    DWORD PTR [ebp+0x7],ebx
  4023b6:	outs   dx,DWORD PTR ds:[esi]
  4023b7:	cmp    al,BYTE PTR [eax]
  4023b9:	add    BYTE PTR [edx],cl
  4023bb:	outs   dx,DWORD PTR ds:[esi]
  4023bc:	cmp    al,0x0
  4023be:	add    BYTE PTR [edx],cl
  4023c0:	adc    ecx,DWORD PTR [eax]
  4023c2:	sub    esi,DWORD PTR [edi]
  4023c4:	adc    DWORD PTR [eax],ecx
  4023c6:	outs   dx,DWORD PTR ds:[esi]
  4023c7:	cmp    eax,0xd0a0000
  4023cc:	sub    BYTE PTR [esi],bl
  4023ce:	add    BYTE PTR [eax],al
  4023d0:	or     dh,BYTE PTR [edx-0x9]
  4023d3:	add    BYTE PTR [eax],al
  4023d5:	jo     0x4023ef
  4023d7:	lea    eax,[ebx]
  4023d9:	add    BYTE PTR [eax],al
  4023db:	add    DWORD PTR [ebx],edx
  4023dd:	or     DWORD PTR [ecx],edx
  4023df:	or     DWORD PTR [esi],edx
  4023e1:	jb     0x4023f8
  4023e3:	add    DWORD PTR [eax],eax
  4023e5:	jo     0x402389
  4023e7:	adc    DWORD PTR [ecx],ecx
  4023e9:	pop    ss
  4023ea:	or     DWORD PTR [edx+0x1f280911],esp
  4023f0:	add    BYTE PTR [eax],al
  4023f2:	or     cl,BYTE PTR [edx+eax*1]
  4023f5:	or     BYTE PTR [eax],ch
  4023f7:	add    al,0x0
  4023f9:	add    BYTE PTR [esi],al
  4023fb:	adc    DWORD PTR [eax],ecx
  4023fd:	outs   dx,DWORD PTR ds:[esi]
  4023fe:	add    BYTE PTR ds:[eax],al
  402401:	or     ch,BYTE PTR ds:0x1117dec0
  402407:	or     BYTE PTR [edi+eax*1],ch
  40240a:	adc    DWORD PTR [eax],ecx
  40240c:	outs   dx,DWORD PTR ds:[esi]
  40240d:	aas    
  40240e:	add    BYTE PTR [eax],al
  402410:	or     bl,ah
  402412:	add    ch,BYTE PTR [eax]
  402414:	sbb    eax,0x28060000
  402419:	add    al,0x0
  40241b:	add    BYTE PTR [esi],al
  40241d:	add    bh,BYTE PTR [ebx+0x1]
  402420:	add    BYTE PTR [eax],al
  402422:	add    al,0x6f
  402424:	xor    eax,0x2d0a0000
  402429:	inc    eax
  40242a:	add    bh,BYTE PTR [ebx+0x1]
  40242d:	add    BYTE PTR [eax],al
  40242f:	add    al,0x6f
  402431:	das    
  402432:	add    BYTE PTR [eax],al
  402434:	or     ch,BYTE PTR ds:0x17b0233
  40243a:	add    BYTE PTR [eax],al
  40243c:	add    al,0x6f
  40243e:	xor    BYTE PTR [eax],al
  402440:	add    BYTE PTR [edx],cl
  402442:	sub    eax,0x17b0226
  402447:	add    BYTE PTR [eax],al
  402449:	add    al,0x6f
  40244b:	xor    DWORD PTR [eax],eax
  40244d:	add    BYTE PTR [edx],cl
  40244f:	sub    eax,0x17b0219
  402454:	add    BYTE PTR [eax],al
  402456:	add    al,0x6f
  402458:	xor    al,BYTE PTR [eax]
  40245a:	add    BYTE PTR [edx],cl
  40245c:	sub    eax,0x6f02020c
  402461:	add    eax,DWORD PTR [eax]
  402463:	add    BYTE PTR [esi],al
  402465:	sub    BYTE PTR [eax+eax*1],al
  402468:	add    BYTE PTR [esi],al
  40246a:	sub    al,BYTE PTR [eax]
  40246c:	add    DWORD PTR [eax],edx
  40246e:	add    BYTE PTR [eax],al
  402470:	add    al,BYTE PTR [eax]
  402472:	add    DWORD PTR ss:[edx+edi*2+0x1],eax
  402477:	or     al,0x0
  402479:	add    BYTE PTR [eax],al
  40247b:	add    BYTE PTR [esi],bl
  40247d:	add    ch,BYTE PTR [eax]
  40247f:	add    DWORD PTR [eax],eax
  402481:	add    BYTE PTR [esi],al
  402483:	sub    dl,BYTE PTR [ebx]
  402485:	xor    BYTE PTR [ebx],al
  402487:	add    BYTE PTR [esi],ah
  402489:	add    BYTE PTR [eax],al
  40248b:	add    BYTE PTR [eax+eax*1],al
  40248e:	add    BYTE PTR [ecx],dl
  402490:	sub    BYTE PTR [edi],cl
  402492:	add    BYTE PTR [eax],al
  402494:	push   es
  402495:	outs   dx,DWORD PTR ds:[esi]
  402496:	inc    eax
  402497:	add    BYTE PTR [eax],al
  402499:	or     cl,BYTE PTR [edx]
  40249b:	push   es
  40249c:	sub    BYTE PTR ds:0x2d0a0000,dl
  4024a2:	adc    al,BYTE PTR [edx]
  4024a4:	push   es
  4024a5:	push   ss
  4024a6:	lea    ebx,[edi]
  4024a8:	add    BYTE PTR [eax],al
  4024aa:	add    DWORD PTR [eax],ebp
  4024ac:	add    al,BYTE PTR [eax]
  4024ae:	add    BYTE PTR [esi],al
  4024b0:	jge    0x4024b4
  4024b2:	add    BYTE PTR [eax],al
  4024b4:	add    al,0x2a
  4024b6:	add    BYTE PTR [eax],al
  4024b8:	adc    esi,DWORD PTR [eax]
  4024ba:	add    al,BYTE PTR [eax]
  4024bc:	xor    DWORD PTR [eax],eax
  4024be:	add    BYTE PTR [eax],al
  4024c0:	add    al,0x0
  4024c2:	add    BYTE PTR [ecx],dl
  4024c4:	add    bh,BYTE PTR [ebx+0x2]
  4024c7:	add    BYTE PTR [eax],al
  4024c9:	add    al,0x2d
  4024cb:	or     eax,0x36f0202
  4024d0:	add    BYTE PTR [eax],al
  4024d2:	push   es
  4024d3:	sub    BYTE PTR [eax+eax*1],al
  4024d6:	add    BYTE PTR [esi],al
  4024d8:	sub    al,BYTE PTR [edx]
  4024da:	jnp    0x4024de
  4024dc:	add    BYTE PTR [eax],al
  4024de:	add    al,0x6f
  4024e0:	add    eax,DWORD PTR [eax]
  4024e2:	add    BYTE PTR [esi],al
  4024e4:	or     al,BYTE PTR [esi]
  4024e6:	sub    BYTE PTR ds:0x2d0a0000,dl
  4024ec:	pop    es
  4024ed:	add    al,BYTE PTR [esi]
  4024ef:	sub    BYTE PTR [eax+eax*1],al
  4024f2:	add    BYTE PTR [esi],al
  4024f4:	sub    bl,BYTE PTR [edx]
  4024f6:	jae    0x402539
  4024f8:	add    BYTE PTR [eax],al
  4024fa:	or     ch,BYTE PTR [edx]
  4024fc:	push   ds
  4024fd:	add    ch,BYTE PTR [eax]
  4024ff:	add    DWORD PTR [eax],eax
  402501:	add    BYTE PTR [esi],al
  402503:	sub    dh,BYTE PTR [edx]
  402505:	sub    BYTE PTR [edi],cl
  402507:	add    BYTE PTR [eax],al
  402509:	push   es
  40250a:	add    ch,BYTE PTR [edi+0x43]
  40250d:	add    BYTE PTR [eax],al
  40250f:	or     ch,BYTE PTR [edx]
  402511:	add    BYTE PTR [eax],al
  402513:	add    BYTE PTR [ebx],bl
  402515:	xor    BYTE PTR [eax+eax*1],al
  402518:	mov    es,WORD PTR [eax]
  40251a:	add    BYTE PTR [eax],al
  40251c:	add    eax,0x2110000
  402521:	sub    BYTE PTR [eax],dl
  402523:	add    BYTE PTR [eax],al
  402525:	push   es
  402526:	add    ch,BYTE PTR [eax]
  402528:	inc    esp
  402529:	add    BYTE PTR [eax],al
  40252b:	or     ch,BYTE PTR [eax+ecx*1]
  40252e:	jae    0x40253c
  402530:	add    BYTE PTR [eax],al
  402532:	push   es
  402533:	or     ch,BYTE PTR [ebx]
  402535:	or     BYTE PTR [ebx],al
  402537:	add    al,0x28
  402539:	add    al,BYTE PTR [eax]
  40253b:	add    BYTE PTR [esi],al
  40253d:	or     al,BYTE PTR [esi]
  40253f:	add    al,0x2
  402541:	inc    BYTE PTR [esi]
  402543:	inc    ebp
  402544:	add    BYTE PTR [eax],al
  402546:	or     dh,BYTE PTR [ebx+0x46]
  402549:	add    BYTE PTR [eax],al
  40254b:	or     ch,BYTE PTR [edi+0x25]
  40254e:	add    BYTE PTR [eax],al
  402550:	or     al,BYTE PTR [esi]
  402552:	outs   dx,DWORD PTR ds:[esi]
  402553:	inc    edi
  402554:	add    BYTE PTR [eax],al
  402556:	or     bl,dh
  402558:	inc    ebp
  402559:	or     eax,DWORD PTR [edx]
  40255b:	jle    0x402594
  40255d:	add    BYTE PTR [eax],al
  40255f:	or     ch,BYTE PTR [eax]
  402561:	and    DWORD PTR [eax],eax
  402563:	add    BYTE PTR [edx],cl
  402565:	add    al,BYTE PTR [edi]
  402567:	outs   dx,DWORD PTR ds:[esi]
  402568:	dec    eax
  402569:	add    BYTE PTR [eax],al
  40256b:	or     ch,BYTE PTR [eax]
  40256d:	and    DWORD PTR [eax],eax
  40256f:	add    BYTE PTR [edx],cl
  402571:	add    al,BYTE PTR [esi]
  402573:	outs   dx,DWORD PTR ds:[esi]
  402574:	add    eax,DWORD PTR [eax]
  402576:	add    BYTE PTR [esi],al
  402578:	sub    BYTE PTR [ecx],ah
  40257a:	add    BYTE PTR [eax],al
  40257c:	or     bl,dh
  40257e:	sub    BYTE PTR [eax+ecx*1],cl
  402581:	sub    BYTE PTR [ecx+0x0],cl
  402584:	add    BYTE PTR [edx],cl
  402586:	add    dh,BYTE PTR [edx+0x37]
  402589:	add    DWORD PTR [eax],eax
  40258b:	jo     0x402595
  40258d:	sub    BYTE PTR [edx+0x0],cl
  402590:	add    BYTE PTR [edx],cl
  402592:	sub    BYTE PTR [ebx+0x0],cl
  402595:	add    BYTE PTR [edx],cl
  402597:	sub    BYTE PTR [ecx],ah
  402599:	add    BYTE PTR [eax],al
  40259b:	or     bl,dh
  40259d:	or     esi,ebx
  40259f:	pop    es
  4025a0:	push   es
  4025a1:	outs   dx,DWORD PTR ds:[esi]
  4025a2:	dec    esp
  4025a3:	add    BYTE PTR [eax],al
  4025a5:	or     bl,ah
  4025a7:	adc    eax,0x4d28
  4025ac:	or     ch,BYTE PTR [edx]
  4025ae:	add    BYTE PTR [eax],al
  4025b0:	add    DWORD PTR [eax],ebp
  4025b2:	add    BYTE PTR [eax],al
  4025b4:	add    BYTE PTR [eax],al
  4025b6:	push   ds
  4025b7:	add    BYTE PTR [ebx],bl
  4025b9:	cmp    DWORD PTR [eax],eax
  4025bb:	cmp    DWORD PTR es:[eax],eax
  4025be:	add    BYTE PTR [ecx],al
  4025c0:	add    BYTE PTR [eax],al
  4025c2:	push   ds
  4025c3:	add    BYTE PTR [ebx],bl
  4025c5:	pop    edi
  4025c6:	add    BYTE PTR [edi],bl
  4025c8:	xor    al,0x0
  4025ca:	add    BYTE PTR [ecx],al
  4025cc:	add    al,BYTE PTR [eax]
  4025ce:	push   ds
  4025cf:	add    BYTE PTR [edx-0x80],ah
  4025d2:	add    BYTE PTR [edi],al
  4025d4:	add    BYTE PTR [eax],al
  4025d6:	add    BYTE PTR [eax],al
  4025d8:	pop    esi
  4025d9:	jle    0x4025de
  4025db:	add    BYTE PTR [eax],al
  4025dd:	add    al,0x2d
  4025df:	or     dh,BYTE PTR [ebx+0x11]
  4025e2:	add    BYTE PTR [eax],al
  4025e4:	push   es
  4025e5:	add    BYTE PTR [ebx],0x0
  4025e8:	add    BYTE PTR [esi+edi*2],al
  4025eb:	add    eax,DWORD PTR [eax]
  4025ed:	add    BYTE PTR [edx+ebp*1],al
  4025f0:	adc    esi,DWORD PTR [eax]
  4025f2:	add    eax,0x3200
  4025f7:	add    BYTE PTR [esi],al
  4025f9:	add    BYTE PTR [eax],al
  4025fb:	adc    DWORD PTR [eax],ebp
  4025fd:	push   ds
  4025fe:	add    BYTE PTR [eax],al
  402600:	or     ch,BYTE PTR [eax]
  402602:	push   ss
  402603:	add    BYTE PTR [eax],al
  402605:	push   es
  402606:	pop    ss
  402607:	lea    eax,[ebx]
  402609:	add    BYTE PTR [eax],al
  40260b:	add    DWORD PTR [ebx],ecx
  40260d:	pop    es
  40260e:	push   ss
  40260f:	sub    BYTE PTR [esi],dl
  402611:	add    BYTE PTR [eax],al
  402613:	or     ch,BYTE PTR [edi+0x4e]
  402616:	add    BYTE PTR [eax],al
  402618:	or     ch,BYTE PTR [edi+0x4f]
  40261b:	add    BYTE PTR [eax],al
  40261d:	or     ah,BYTE PTR [edx+0x1f2807]
  402623:	add    BYTE PTR [edx],cl
  402625:	or     al,BYTE PTR [edx]
  402627:	push   es
  402628:	sub    BYTE PTR [ecx],ah
  40262a:	add    BYTE PTR [eax],al
  40262c:	or     ch,BYTE PTR [edx]
  40262e:	push   ds
  40262f:	add    ch,BYTE PTR [eax]
  402631:	push   eax
  402632:	add    BYTE PTR [eax],al
  402634:	or     ch,BYTE PTR [edx]
  402636:	push   ds
  402637:	add    ch,BYTE PTR [eax]
  402639:	push   esp
  40263a:	add    BYTE PTR [eax],al
  40263c:	or     ch,BYTE PTR [edx]
  40263e:	add    BYTE PTR [eax],al
  402640:	adc    esi,DWORD PTR [eax]
  402642:	add    al,BYTE PTR [eax]
  402644:	xor    eax,DWORD PTR [eax]
  402646:	add    BYTE PTR [eax],al
  402648:	pop    es
  402649:	add    BYTE PTR [eax],al
  40264b:	adc    DWORD PTR [esi+0x4],edi
  40264e:	add    BYTE PTR [eax],al
  402650:	add    al,0x14
  402652:	sub    BYTE PTR [ebp+0x0],dl
  402655:	add    BYTE PTR [edx],cl
  402657:	sub    al,0x20
  402659:	jb     0x4026ae
  40265b:	add    DWORD PTR [eax],eax
  40265d:	jo     0x40262f
  40265f:	push   es
  402660:	add    BYTE PTR [eax],al
  402662:	add    ch,BYTE PTR [eax]
  402664:	sbb    BYTE PTR [eax],al
  402666:	add    BYTE PTR [edx],cl
  402668:	outs   dx,DWORD PTR ds:[esi]
  402669:	push   esi
  40266a:	add    BYTE PTR [eax],al
  40266c:	or     dh,BYTE PTR [ebx+0x57]
  40266f:	add    BYTE PTR [eax],al
  402671:	or     cl,BYTE PTR [edx]
  402673:	push   es
  402674:	add    BYTE PTR [eax+eax*1],0x0
  402678:	add    al,0x7e
  40267a:	add    al,0x0
  40267c:	add    BYTE PTR [edx+ebp*1],al
  40267f:	sbb    bh,BYTE PTR [esi+0x5]
  402682:	add    BYTE PTR [eax],al
  402684:	add    al,0x2a
  402686:	push   ds
  402687:	add    al,BYTE PTR [eax+0x4000005]
  40268d:	sub    dl,BYTE PTR [esi+0x28]
  402690:	adc    eax,DWORD PTR [eax]
  402692:	add    BYTE PTR [esi],al
  402694:	jb     0x40265f
  402696:	add    DWORD PTR [eax],eax
  402698:	jo     0x402718
  40269a:	add    eax,0x6f040000
  40269f:	pop    eax
  4026a0:	add    BYTE PTR [eax],al
  4026a2:	or     ch,BYTE PTR [edx]
  4026a4:	push   esi
  4026a5:	sub    BYTE PTR [ebx],dl
  4026a7:	add    BYTE PTR [eax],al
  4026a9:	push   es
  4026aa:	jb     0x402697
  4026ac:	add    DWORD PTR [eax],eax
  4026ae:	jo     0x40272e
  4026b0:	add    eax,0x6f040000
  4026b5:	pop    eax
  4026b6:	add    BYTE PTR [eax],al
  4026b8:	or     ch,BYTE PTR [edx]
  4026ba:	push   esi
  4026bb:	sub    BYTE PTR [ebx],dl
  4026bd:	add    BYTE PTR [eax],al
  4026bf:	push   es
  4026c0:	jb     0x4026cd
  4026c2:	add    al,BYTE PTR [eax]
  4026c4:	jo     0x402744
  4026c6:	add    eax,0x6f040000
  4026cb:	pop    eax
  4026cc:	add    BYTE PTR [eax],al
  4026ce:	or     ch,BYTE PTR [edx]
  4026d0:	push   esi
  4026d1:	sub    BYTE PTR [ebx],dl
  4026d3:	add    BYTE PTR [eax],al
  4026d5:	push   es
  4026d6:	jb     0x4026f5
  4026d8:	add    al,BYTE PTR [eax]
  4026da:	jo     0x40275a
  4026dc:	add    eax,0x6f040000
  4026e1:	pop    eax
  4026e2:	add    BYTE PTR [eax],al
  4026e4:	or     ch,BYTE PTR [edx]
  4026e6:	push   esi
  4026e7:	sub    BYTE PTR [ebx],dl
  4026e9:	add    BYTE PTR [eax],al
  4026eb:	push   es
  4026ec:	jb     0x402735
  4026ee:	add    al,BYTE PTR [eax]
  4026f0:	jo     0x402770
  4026f2:	add    eax,0x6f040000
  4026f7:	pop    eax
  4026f8:	add    BYTE PTR [eax],al
  4026fa:	or     ch,BYTE PTR [edx]
  4026fc:	push   esi
  4026fd:	sub    BYTE PTR [ebx],dl
  4026ff:	add    BYTE PTR [eax],al
  402701:	push   es
  402702:	jb     0x402761
  402704:	add    al,BYTE PTR [eax]
  402706:	jo     0x402786
  402708:	add    eax,0x6f040000
  40270d:	pop    eax
  40270e:	add    BYTE PTR [eax],al
  402710:	or     ch,BYTE PTR [edx]
  402712:	push   esi
  402713:	sub    BYTE PTR [ebx],dl
  402715:	add    BYTE PTR [eax],al
  402717:	push   es
  402718:	jb     0x40278d
  40271a:	add    al,BYTE PTR [eax]
  40271c:	jo     0x40279c
  40271e:	add    eax,0x6f040000
  402723:	pop    eax
  402724:	add    BYTE PTR [eax],al
  402726:	or     ch,BYTE PTR [edx]
  402728:	push   esi
  402729:	sub    BYTE PTR [ebx],dl
  40272b:	add    BYTE PTR [eax],al
  40272d:	push   es
  40272e:	jb     0x4026b5
  402730:	add    al,BYTE PTR [eax]
  402732:	jo     0x4027b2
  402734:	add    eax,0x6f040000
  402739:	pop    eax
  40273a:	add    BYTE PTR [eax],al
  40273c:	or     ch,BYTE PTR [edx]
  40273e:	push   esi
  40273f:	sub    BYTE PTR [ebx],dl
  402741:	add    BYTE PTR [eax],al
  402743:	push   es
  402744:	jb     0x4026e3
  402746:	add    al,BYTE PTR [eax]
  402748:	jo     0x4027c8
  40274a:	add    eax,0x6f040000
  40274f:	pop    eax
  402750:	add    BYTE PTR [eax],al
  402752:	or     ch,BYTE PTR [edx]
  402754:	push   esi
  402755:	sub    BYTE PTR [ebx],dl
  402757:	add    BYTE PTR [eax],al
  402759:	push   es
  40275a:	jb     0x402733
  40275c:	add    al,BYTE PTR [eax]
  40275e:	jo     0x4027de
  402760:	add    eax,0x6f040000
  402765:	pop    eax
  402766:	add    BYTE PTR [eax],al
  402768:	or     ch,BYTE PTR [edx]
  40276a:	add    BYTE PTR [eax],al
  40276c:	add    BYTE PTR [eax],al
  40276e:	add    BYTE PTR [eax],al
  402770:	pop    DWORD PTR [esi]
  402772:	add    BYTE PTR [eax],al
  402774:	into   
  402775:	retf   0xbeef
  402778:	add    DWORD PTR [eax],eax
  40277a:	add    BYTE PTR [eax],al
  40277c:	xchg   ecx,eax
  40277d:	add    BYTE PTR [eax],al
  40277f:	add    BYTE PTR [ebx+edx*2+0x79],ch
  402783:	jae    0x4027f9
  402785:	gs ins DWORD PTR es:[edi],dx
  402787:	cs push edx
  402789:	gs jae 0x4027fb
  40278c:	jne    0x402800
  40278e:	arpl   WORD PTR [ebp+0x73],sp
  402791:	cs push edx
  402793:	gs jae 0x402805
  402796:	jne    0x40280a
  402798:	arpl   WORD PTR [ebp+0x52],sp
  40279b:	gs popa 
  40279d:	fs gs jb 0x4027cd
  4027a1:	and    BYTE PTR [ebp+0x73],ch
  4027a4:	arpl   WORD PTR [edi+0x72],bp
  4027a7:	ins    BYTE PTR es:[edi],dx
  4027a8:	imul   esp,DWORD PTR [edx+0x2c],0x72655620
  4027af:	jae    0x40281a
  4027b1:	outs   dx,DWORD PTR ds:[esi]
  4027b2:	outs   dx,BYTE PTR ds:[esi]
  4027b3:	cmp    eax,0x2e302e34
  4027b8:	xor    BYTE PTR [esi],ch
  4027ba:	xor    BYTE PTR [eax+eiz*1],ch
  4027bd:	inc    ebx
  4027be:	jne    0x40282c
  4027c0:	je     0x402837
  4027c2:	jb     0x402829
  4027c4:	cmp    eax,0x7475656e
  4027c9:	jb     0x40282c
  4027cb:	ins    BYTE PTR es:[edi],dx
  4027cc:	sub    al,0x20
  4027ce:	push   eax
  4027cf:	jne    0x402833
  4027d1:	ins    BYTE PTR es:[edi],dx
  4027d2:	imul   esp,DWORD PTR [ebx+0x4b],0x6f547965
  4027d9:	imul   esp,DWORD PTR [ebp+0x6e],0x3d
  4027dd:	bound  esi,QWORD PTR [edi]
  4027df:	aaa    
  4027e0:	popa   
  4027e1:	xor    eax,0x31363563
  4027e6:	cmp    DWORD PTR [ebx],esi
  4027e8:	xor    al,0x65
  4027ea:	xor    BYTE PTR [eax],bh
  4027ec:	cmp    DWORD PTR [ebx],esp
  4027ee:	push   ebx
  4027ef:	jns    0x402864
  4027f1:	je     0x402858
  4027f3:	ins    DWORD PTR es:[edi],dx
  4027f4:	cs push edx
  4027f6:	gs jae 0x402868
  4027f9:	jne    0x40286d
  4027fb:	arpl   WORD PTR [ebp+0x73],sp
  4027fe:	cs push edx
  402800:	jne    0x402870
  402802:	je     0x40286d
  402804:	ins    DWORD PTR es:[edi],dx
  402805:	gs push edx
  402807:	gs jae 0x402879
  40280a:	jne    0x40287e
  40280c:	arpl   WORD PTR [ebp+0x53],sp
  40280f:	gs je  0x402814
  402812:	add    BYTE PTR [eax],al
  402814:	add    BYTE PTR [edx],cl
  402816:	add    BYTE PTR [eax],al
  402818:	add    BYTE PTR [eax],al
  40281a:	add    BYTE PTR [eax],al
  40281c:	add    BYTE PTR [eax+0x41],dl
  40281f:	inc    esp
  402820:	push   eax
  402821:	inc    ecx
  402822:	inc    esp
  402823:	push   eax
  402824:	sub    edi,ebx
  402826:	jnp    0x4027ba
  402828:	std    
  402829:	xchg   dh,dh
  40282b:	cmps   BYTE PTR ds:[esi],BYTE PTR es:[edi]
  40282c:	jns    0x402816
  40282e:	pop    edx
  40282f:	mov    esp,0xbe425641
  402834:	scas   al,BYTE PTR es:[edi]
  402835:	ja     0x40287b
  402837:	pop    es
  402838:	dec    ebp
  402839:	popf   
  40283a:	pusha  
  40283b:	and    al,0x4e
  40283d:	popf   
  40283e:	pusha  
  40283f:	and    al,0xa6
  402841:	retf   0x47bd
  402844:	cmp    ecx,DWORD PTR [ebx]
  402846:	jp     0x402899
  402848:	lds    edx,FWORD PTR [ebx+esi*4+0x69]
  40284c:	add    BYTE PTR [eax],al
  40284e:	add    BYTE PTR [eax],al
  402850:	loop   0x402852
  402852:	add    BYTE PTR [eax],al
  402854:	cmp    eax,0x8a000001
  402859:	add    BYTE PTR [eax],al
  40285b:	add    BYTE PTR [ebp+0x24000000],ah
  402861:	add    DWORD PTR [eax],eax
  402863:	add    BYTE PTR [ebx],cl
  402865:	add    DWORD PTR [eax],eax
  402867:	add    BYTE PTR [ebp+0x0],bl
  40286a:	add    BYTE PTR [eax],al
  40286c:	and    eax,0x48000000
  402871:	add    BYTE PTR [eax],al
  402873:	add    BYTE PTR [esi+0x2],dl
  402876:	add    BYTE PTR [eax],al
  402878:	and    BYTE PTR [ebx+0x0],al
  40287b:	outs   dx,DWORD PTR ds:[esi]
  40287c:	add    BYTE PTR [eax+0x0],dh
  40287f:	jns    0x402881
  402881:	jb     0x402883
  402883:	imul   eax,DWORD PTR [eax],0x680067
  402889:	je     0x40288b
  40288b:	dec    ebp
  40288c:	add    BYTE PTR [ebp+0x0],ah
  40288f:	jae    0x402891
  402891:	jae    0x402893
  402893:	popa   
  402894:	add    BYTE PTR [edi+0x0],ah
  402897:	add    BYTE PTR gs:[eax],al
  40289a:	add    BYTE PTR [eax],al
  40289c:	add    BYTE PTR [esi],bl
  40289e:	inc    esp
  40289f:	add    BYTE PTR [edx+0x0],dh
  4028a2:	imul   eax,DWORD PTR [eax],0x650076
  4028a8:	jb     0x4028aa
  4028aa:	dec    ecx
  4028ab:	add    BYTE PTR [esi+0x0],ch
  4028ae:	jae    0x4028b0
  4028b0:	je     0x4028b2
  4028b2:	popa   
  4028b3:	add    BYTE PTR [eax+eax*1+0x6c],ch
  4028b7:	add    BYTE PTR [ebp+0x0],ah
  4028ba:	add    BYTE PTR fs:[eax+0x10000000],cl
  4028c1:	dec    eax
  4028c2:	add    BYTE PTR [ebp+0x0],ah
  4028c5:	ins    BYTE PTR es:[edi],dx
  4028c6:	add    BYTE PTR [eax+0x0],dh
  4028c9:	dec    eax
  4028ca:	add    BYTE PTR [ebp+0x0],ah
  4028cd:	ins    BYTE PTR es:[edi],dx
  4028ce:	add    BYTE PTR [eax+0x0],dh
  4028d1:	lods   al,BYTE PTR ds:[esi]
  4028d2:	add    BYTE PTR [eax],al
  4028d4:	add    BYTE PTR [eax],ch
  4028d6:	dec    eax
  4028d7:	add    BYTE PTR [ebp+0x0],ah
  4028da:	ins    BYTE PTR es:[edi],dx
  4028db:	add    BYTE PTR [eax+0x0],dh
  4028de:	dec    esi
  4028df:	add    BYTE PTR [ebp+0x0],ah
  4028e2:	je     0x4028e4
  4028e4:	ja     0x4028e6
  4028e6:	outs   dx,DWORD PTR ds:[esi]
  4028e7:	add    BYTE PTR [edx+0x0],dh
  4028ea:	imul   eax,DWORD PTR [eax],0x45
  4028ed:	add    BYTE PTR [ebp+0x0],ch
  4028f0:	jne    0x4028f2
  4028f2:	ins    BYTE PTR es:[edi],dx
  4028f3:	add    BYTE PTR [ecx+0x0],ah
  4028f6:	je     0x4028f8
  4028f8:	imul   eax,DWORD PTR [eax],0x6e006f
  4028fe:	test   eax,0x16000001
  402903:	dec    esi
  402904:	add    BYTE PTR [edi+0x0],ch
  402907:	inc    edx
  402908:	add    BYTE PTR [edi+0x0],ch
  40290b:	jne    0x40290d
  40290d:	outs   dx,BYTE PTR ds:[esi]
  40290e:	add    BYTE PTR [eax+eax*1+0x4e],ah
  402912:	add    BYTE PTR [ecx+0x0],cl
  402915:	inc    ebx
  402916:	add    BYTE PTR [ebx+0x0],dh
  402919:	sti    
  40291a:	add    al,BYTE PTR [eax]
  40291c:	add    BYTE PTR [eax],bh
  40291e:	push   ebp
  40291f:	add    BYTE PTR [esi+0x0],ch
  402922:	jb     0x402924
  402924:	add    BYTE PTR gs:[ebx+0x0],ah
  402928:	outs   dx,DWORD PTR ds:[esi]
  402929:	add    BYTE PTR [edi+0x0],ah
  40292c:	outs   dx,BYTE PTR ds:[esi]
  40292d:	add    BYTE PTR [ecx+0x0],ch
  402930:	jp     0x402932
  402932:	add    BYTE PTR gs:[eax+eax*1+0x43],ah
  402937:	add    BYTE PTR [edi+0x0],ch
  40293a:	ins    DWORD PTR es:[edi],dx
  40293b:	add    BYTE PTR [ebp+0x0],ch
  40293e:	popa   
  40293f:	add    BYTE PTR [esi+0x0],ch
  402942:	add    BYTE PTR fs:[ebp+0x0],al
  402946:	js     0x402948
  402948:	arpl   WORD PTR [eax],ax
  40294a:	add    BYTE PTR gs:[eax+0x0],dh
  40294e:	je     0x402950
  402950:	imul   eax,DWORD PTR [eax],0x6e006f
  402956:	xor    al,0x3
  402958:	add    BYTE PTR [eax],al
  40295a:	and    al,0x55
  40295c:	add    BYTE PTR [esi+0x0],ch
  40295f:	jb     0x402961
  402961:	add    BYTE PTR gs:[ebx+0x0],ah
  402965:	outs   dx,DWORD PTR ds:[esi]
  402966:	add    BYTE PTR [edi+0x0],ah
  402969:	outs   dx,BYTE PTR ds:[esi]
  40296a:	add    BYTE PTR [ecx+0x0],ch
  40296d:	jp     0x40296f
  40296f:	add    BYTE PTR gs:[eax+eax*1+0x4f],ah
  402974:	add    BYTE PTR [eax+0x0],dh
  402977:	je     0x402979
  402979:	imul   eax,DWORD PTR [eax],0x6e006f
  40297f:	mov    dl,0x3
  402981:	add    BYTE PTR [eax],al
  402983:	adc    al,0x6d
  402985:	add    BYTE PTR [ebx+0x0],dh
  402988:	add    BYTE PTR [bx+0x0],cl
  40298c:	jo     0x40298e
  40298e:	je     0x402990
  402990:	imul   eax,DWORD PTR [eax],0x6e006f
  402996:	xor    DWORD PTR [eax],eax
  402998:	fild   WORD PTR [ebx]
  40299a:	add    BYTE PTR [eax],al
  40299c:	adc    al,0x6d
  40299e:	add    BYTE PTR [ebx+0x0],dh
  4029a1:	add    BYTE PTR [bx+0x0],cl
  4029a5:	jo     0x4029a7
  4029a7:	je     0x4029a9
  4029a9:	imul   eax,DWORD PTR [eax],0x6e006f
  4029af:	xor    al,BYTE PTR [eax]
  4029b1:	jmp    0x104029b9
  4029b6:	ins    DWORD PTR es:[edi],dx
  4029b7:	add    BYTE PTR [ebx+0x0],dh
  4029ba:	add    BYTE PTR [di+0x0],dl
  4029be:	jae    0x4029c0
  4029c0:	popa   
  4029c1:	add    BYTE PTR [edi+0x0],ah
  4029c4:	add    BYTE PTR gs:[edx],ah
  4029c7:	add    al,0x0
  4029c9:	add    BYTE PTR [ecx],al
  4029cb:	test   DWORD PTR [ecx],eax
  4029cd:	dec    ebp
  4029ce:	imul   esp,DWORD PTR [ebx+0x72],0x666f736f
  4029d5:	je     0x4029f7
  4029d7:	sub    BYTE PTR [edx+0x29],dl
  4029da:	and    BYTE PTR [esi+0x53],dl
  4029dd:	push   esp
  4029de:	gs jae 0x402a55
  4029e1:	inc    ebx
  4029e2:	outs   dx,DWORD PTR ds:[esi]
  4029e3:	outs   dx,BYTE PTR ds:[esi]
  4029e4:	imul   sp,WORD PTR [edi+0x20],0x6556
  4029ea:	jb     0x402a5f
  4029ec:	imul   ebp,DWORD PTR [edi+0x6e],0x7d307b20
  4029f3:	or     eax,0x726f660a
  4029f8:	and    BYTE PTR [ebp+0x69],cl
  4029fb:	arpl   WORD PTR [edx+0x6f],si
  4029fe:	jae    0x402a6f
  402a00:	data16 je 0x402a23
  402a03:	push   esi
  402a04:	imul   esi,DWORD PTR [ebx+0x75],0x53206c61
  402a0b:	je     0x402a82
  402a0d:	imul   ebp,DWORD PTR fs:[edi+0x20],0x2e313176
  402a15:	xor    BYTE PTR ds:0x706f430a,cl
  402a1b:	jns    0x402a8f
  402a1d:	imul   esp,DWORD PTR [edi+0x68],0x63282074
  402a24:	sub    DWORD PTR [eax],esp
  402a26:	dec    ebp
  402a27:	imul   esp,DWORD PTR [ebx+0x72],0x666f736f
  402a2e:	je     0x402a50
  402a30:	inc    ebx
  402a31:	outs   dx,DWORD PTR ds:[esi]
  402a32:	jb     0x402aa4
  402a34:	outs   dx,DWORD PTR ds:[esi]
  402a35:	jb     0x402a98
  402a37:	je     0x402aa2
  402a39:	outs   dx,DWORD PTR ds:[esi]
  402a3a:	outs   dx,BYTE PTR ds:[esi]
  402a3b:	and    BYTE PTR cs:[eax],ah
  402a3e:	inc    ecx
  402a3f:	ins    BYTE PTR es:[edi],dx
  402a40:	ins    BYTE PTR es:[edi],dx
  402a41:	and    BYTE PTR [edx+0x69],dh
  402a44:	addr16 push 0x72207374
  402a4a:	gs jae 0x402ab2
  402a4d:	jb     0x402ac5
  402a4f:	gs fs add DWORD PTR cs:[edx],esp
  402a54:	dec    esi
  402a55:	gs je  0x402acf
  402a58:	outs   dx,DWORD PTR ds:[esi]
  402a59:	jb     0x402ac6
  402a5b:	and    BYTE PTR [ebp+0x6d],al
  402a5e:	jne    0x402acc
  402a60:	popa   
  402a61:	je     0x402acc
  402a63:	outs   dx,DWORD PTR ds:[esi]
  402a64:	outs   dx,BYTE PTR ds:[esi]
  402a65:	and    BYTE PTR [edx+esi*2+0x69],al
  402a69:	jbe    0x402ad0
  402a6b:	jb     0x402a8d
  402a6d:	dec    ecx
  402a6e:	outs   dx,BYTE PTR ds:[esi]
  402a6f:	jae    0x402ae5
  402a71:	popa   
  402a72:	ins    BYTE PTR es:[edi],dx
  402a73:	ins    BYTE PTR es:[edi],dx
  402a74:	gs fs add edx,edi
  402a78:	add    DWORD PTR [esi+0x53],edx
  402a7b:	push   esp
  402a7c:	gs jae 0x402af3
  402a7f:	inc    ebx
  402a80:	outs   dx,DWORD PTR ds:[esi]
  402a81:	outs   dx,BYTE PTR ds:[esi]
  402a82:	imul   sp,WORD PTR [edi+0x20],0x6568
  402a88:	ins    BYTE PTR es:[edi],dx
  402a89:	jo     0x402aab
  402a8b:	pop    ebx
  402a8c:	arpl   WORD PTR [edi+0x6d],bp
  402a8f:	ins    DWORD PTR es:[edi],dx
  402a90:	popa   
  402a91:	outs   dx,BYTE PTR ds:[esi]
  402a92:	fs pop ebp
  402a94:	or     eax,0x630a0d0a
  402a99:	outs   dx,DWORD PTR ds:[esi]
  402a9a:	ins    DWORD PTR es:[edi],dx
  402a9b:	ins    DWORD PTR es:[edi],dx
  402a9c:	popa   
  402a9d:	outs   dx,BYTE PTR ds:[esi]
  402a9e:	and    BYTE PTR fs:[eax],ah
  402aa1:	and    BYTE PTR [eax],ah
  402aa3:	and    BYTE PTR [eax],ah
  402aa5:	and    BYTE PTR [eax],ah
  402aa7:	and    BYTE PTR [eax],ah
  402aa9:	and    BYTE PTR [eax+ebp*2+0x65],dl
  402aad:	and    BYTE PTR [esi+0x61],ch
  402ab0:	ins    DWORD PTR es:[edi],dx
  402ab1:	and    BYTE PTR gs:[edi+0x66],ch
  402ab5:	and    BYTE PTR [eax+ebp*2+0x65],dh
  402ab9:	and    BYTE PTR [ebx+0x6f],ah
  402abc:	ins    DWORD PTR es:[edi],dx
  402abd:	ins    DWORD PTR es:[edi],dx
  402abe:	popa   
  402abf:	outs   dx,BYTE PTR ds:[esi]
  402ac0:	and    BYTE PTR fs:[ecx+0x6f],bh
  402ac4:	jne    0x402ae6
  402ac6:	ja     0x402b29
  402ac8:	outs   dx,BYTE PTR ds:[esi]
  402ac9:	je     0x402aeb
  402acb:	push   0x20706c65
  402ad0:	outs   dx,DWORD PTR ds:[esi]
  402ad1:	outs   dx,BYTE PTR ds:[esi]
  402ad2:	or     eax,0x4c0a0d0a
  402ad7:	imul   esi,DWORD PTR [ebx+0x74],0x20666f20
  402ade:	arpl   WORD PTR [edi+0x6d],bp
  402ae1:	ins    DWORD PTR es:[edi],dx
  402ae2:	popa   
  402ae3:	outs   dx,BYTE PTR ds:[esi]
  402ae4:	fs jae 0x402b21
  402ae7:	or     eax,0x4e0a0d0a
  402aec:	gs je  0x402b66
  402aef:	outs   dx,DWORD PTR ds:[esi]
  402af0:	jb     0x402b5d
  402af2:	inc    ebp
  402af3:	ins    DWORD PTR es:[edi],dx
  402af4:	jne    0x402b62
  402af6:	popa   
  402af7:	je     0x402b62
  402af9:	outs   dx,DWORD PTR ds:[esi]
  402afa:	outs   dx,BYTE PTR ds:[esi]
  402afb:	and    BYTE PTR [eax],ah
  402afd:	and    BYTE PTR [eax],ah
  402aff:	and    BYTE PTR [eax],ah
  402b01:	and    BYTE PTR [eax],ah
  402b03:	and    BYTE PTR [eax],ah
  402b05:	and    BYTE PTR [eax],ah
  402b07:	and    BYTE PTR [eax],ah
  402b09:	and    BYTE PTR [eax],ah
  402b0b:	and    BYTE PTR [ebx+0x6f],al
  402b0e:	outs   dx,BYTE PTR ds:[esi]
  402b0f:	imul   sp,WORD PTR [edi+0x75],0x6572
  402b15:	and    BYTE PTR [eax+ebp*2+0x65],dh
  402b19:	and    BYTE PTR [esi+0x65],cl
  402b1c:	je     0x402b95
  402b1e:	outs   dx,DWORD PTR ds:[esi]
  402b1f:	jb     0x402b8c
  402b21:	and    BYTE PTR [ebp+0x6d],al
  402b24:	jne    0x402b92
  402b26:	popa   
  402b27:	je     0x402b92
  402b29:	outs   dx,DWORD PTR ds:[esi]
  402b2a:	outs   dx,BYTE PTR ds:[esi]
  402b2b:	and    BYTE PTR [edx+esi*2+0x69],ah
  402b2f:	jbe    0x402b96
  402b31:	jb     0x402b40
  402b33:	or     cl,BYTE PTR [eax+0x65]
  402b36:	ins    BYTE PTR es:[edi],dx
  402b37:	jo     0x402b59
  402b39:	and    BYTE PTR [eax],ah
  402b3b:	and    BYTE PTR [eax],ah
  402b3d:	and    BYTE PTR [eax],ah
  402b3f:	and    BYTE PTR [eax],ah
  402b41:	and    BYTE PTR [eax],ah
  402b43:	and    BYTE PTR [eax],ah
  402b45:	and    BYTE PTR [eax],ah
  402b47:	and    BYTE PTR [eax],ah
  402b49:	and    BYTE PTR [eax],ah
  402b4b:	and    BYTE PTR [eax],ah
  402b4d:	and    BYTE PTR [eax],ah
  402b4f:	and    BYTE PTR [eax],ah
  402b51:	and    BYTE PTR [eax],ah
  402b53:	and    BYTE PTR [eax],ah
  402b55:	push   eax
  402b56:	jb     0x402bc1
  402b58:	outs   dx,BYTE PTR ds:[esi]
  402b59:	je     0x402bce
  402b5b:	and    BYTE PTR [eax+ebp*2+0x69],dh
  402b5f:	jae    0x402b81
  402b61:	push   0x20706c65
  402b66:	ins    DWORD PTR es:[edi],dx
  402b67:	gs jae 0x402bdd
  402b6a:	popa   
  402b6b:	addr16 gs or eax,0x2020200a
  402b72:	and    BYTE PTR [ecx],al
  402b74:	iret   
  402b75:	add    dl,BYTE PTR [ebx+0x79]
  402b78:	outs   dx,BYTE PTR ds:[esi]
  402b79:	je     0x402bdc
  402b7b:	js     0x402baa
  402b7d:	or     eax,0x5453560a
  402b82:	gs jae 0x402bf9
  402b85:	inc    ebx
  402b86:	outs   dx,DWORD PTR ds:[esi]
  402b87:	outs   dx,BYTE PTR ds:[esi]
  402b88:	imul   sp,WORD PTR [edi+0x2e],0x7865
  402b8e:	and    BYTE PTR gs:[esi+0x65],cl
  402b92:	je     0x402c0b
  402b94:	outs   dx,DWORD PTR ds:[esi]
  402b95:	jb     0x402c02
  402b97:	inc    ebp
  402b98:	ins    DWORD PTR es:[edi],dx
  402b99:	jne    0x402c07
  402b9b:	popa   
  402b9c:	je     0x402c07
  402b9e:	outs   dx,DWORD PTR ds:[esi]
  402b9f:	outs   dx,BYTE PTR ds:[esi]
  402ba0:	and    BYTE PTR [ebx+0x2f],bl
  402ba3:	dec    ecx
  402ba4:	outs   dx,BYTE PTR ds:[esi]
  402ba5:	jae    0x402c1b
  402ba7:	popa   
  402ba8:	ins    BYTE PTR es:[edi],dx
  402ba9:	ins    BYTE PTR es:[edi],dx
  402baa:	pop    ebp
  402bab:	and    BYTE PTR [ebx+0x2f],bl
  402bae:	push   ebp
  402baf:	outs   dx,BYTE PTR ds:[esi]
  402bb0:	imul   ebp,DWORD PTR [esi+0x73],0x6c6c6174
  402bb7:	pop    ebp
  402bb8:	and    BYTE PTR [ebx+0x2f],bl
  402bbb:	push   edx
  402bbc:	gs jo  0x402c20
  402bbf:	imul   esi,DWORD PTR [edx+0x5d],0x442f5b20
  402bc6:	imul   esi,DWORD PTR [ebx+0x70],0x4979616c
  402bcd:	outs   dx,BYTE PTR ds:[esi]
  402bce:	outs   dx,WORD PTR ds:[esi]
  402bd0:	pop    ebp
  402bd1:	or     eax,0x450a0d0a
  402bd6:	js     0x402c39
  402bd8:	ins    DWORD PTR es:[edi],dx
  402bd9:	jo     0x402c47
  402bdb:	gs jae 0x402c18
  402bde:	or     eax,0x560a0d0a
  402be3:	push   ebx
  402be4:	push   esp
  402be5:	gs jae 0x402c5c
  402be8:	inc    ebx
  402be9:	outs   dx,DWORD PTR ds:[esi]
  402bea:	outs   dx,BYTE PTR ds:[esi]
  402beb:	imul   sp,WORD PTR [edi+0x2e],0x7865
  402bf1:	and    BYTE PTR gs:[esi+0x65],cl
  402bf5:	je     0x402c6e
  402bf7:	outs   dx,DWORD PTR ds:[esi]
  402bf8:	jb     0x402c65
  402bfa:	inc    ebp
  402bfb:	ins    DWORD PTR es:[edi],dx
  402bfc:	jne    0x402c6a
  402bfe:	popa   
  402bff:	je     0x402c6a
  402c01:	outs   dx,DWORD PTR ds:[esi]
  402c02:	outs   dx,BYTE PTR ds:[esi]
  402c03:	and    BYTE PTR [edi],ch
  402c05:	dec    ecx
  402c06:	outs   dx,BYTE PTR ds:[esi]
  402c07:	jae    0x402c7d
  402c09:	popa   
  402c0a:	ins    BYTE PTR es:[edi],dx
  402c0b:	ins    BYTE PTR es:[edi],dx
  402c0c:	or     eax,0x560a0d0a
  402c11:	push   ebx
  402c12:	push   esp
  402c13:	gs jae 0x402c8a
  402c16:	inc    ebx
  402c17:	outs   dx,DWORD PTR ds:[esi]
  402c18:	outs   dx,BYTE PTR ds:[esi]
  402c19:	imul   sp,WORD PTR [edi+0x2e],0x7865
  402c1f:	and    BYTE PTR gs:[esi+0x65],cl
  402c23:	je     0x402c9c
  402c25:	outs   dx,DWORD PTR ds:[esi]
  402c26:	jb     0x402c93
  402c28:	inc    ebp
  402c29:	ins    DWORD PTR es:[edi],dx
  402c2a:	jne    0x402c98
  402c2c:	popa   
  402c2d:	je     0x402c98
  402c2f:	outs   dx,DWORD PTR ds:[esi]
  402c30:	outs   dx,BYTE PTR ds:[esi]
  402c31:	and    BYTE PTR [edi],ch
  402c33:	push   ebp
  402c34:	outs   dx,BYTE PTR ds:[esi]
  402c35:	imul   ebp,DWORD PTR [esi+0x73],0x6c6c6174
  402c3c:	or     eax,0x560a0d0a
  402c41:	push   ebx
  402c42:	push   esp
  402c43:	gs jae 0x402cba
  402c46:	inc    ebx
  402c47:	outs   dx,DWORD PTR ds:[esi]
  402c48:	outs   dx,BYTE PTR ds:[esi]
  402c49:	imul   sp,WORD PTR [edi+0x2e],0x7865
  402c4f:	and    BYTE PTR gs:[esi+0x65],cl
  402c53:	je     0x402ccc
  402c55:	outs   dx,DWORD PTR ds:[esi]
  402c56:	jb     0x402cc3
  402c58:	inc    ebp
  402c59:	ins    DWORD PTR es:[edi],dx
  402c5a:	jne    0x402cc8
  402c5c:	popa   
  402c5d:	je     0x402cc8
  402c5f:	outs   dx,DWORD PTR ds:[esi]
  402c60:	outs   dx,BYTE PTR ds:[esi]
  402c61:	and    BYTE PTR [edi],ch
  402c63:	push   edx
  402c64:	gs jo  0x402cc8
  402c67:	imul   esi,DWORD PTR [edx+0xd],0x560a0d0a
  402c6e:	push   ebx
  402c6f:	push   esp
  402c70:	gs jae 0x402ce7
  402c73:	inc    ebx
  402c74:	outs   dx,DWORD PTR ds:[esi]
  402c75:	outs   dx,BYTE PTR ds:[esi]
  402c76:	imul   sp,WORD PTR [edi+0x2e],0x7865
  402c7c:	and    BYTE PTR gs:[esi+0x65],cl
  402c80:	je     0x402cf9
  402c82:	outs   dx,DWORD PTR ds:[esi]
  402c83:	jb     0x402cf0
  402c85:	inc    ebp
  402c86:	ins    DWORD PTR es:[edi],dx
  402c87:	jne    0x402cf5
  402c89:	popa   
  402c8a:	je     0x402cf5
  402c8c:	outs   dx,DWORD PTR ds:[esi]
  402c8d:	outs   dx,BYTE PTR ds:[esi]
  402c8e:	and    BYTE PTR [edi],ch
  402c90:	inc    esp
  402c91:	imul   esi,DWORD PTR [ebx+0x70],0x4979616c
  402c98:	outs   dx,BYTE PTR ds:[esi]
  402c99:	outs   dx,WORD PTR ds:[esi]
  402c9b:	or     eax,0x560a0d0a
  402ca0:	push   ebx
  402ca1:	push   esp
  402ca2:	gs jae 0x402d19
  402ca5:	inc    ebx
  402ca6:	outs   dx,DWORD PTR ds:[esi]
  402ca7:	outs   dx,BYTE PTR ds:[esi]
  402ca8:	imul   sp,WORD PTR [edi+0x2e],0x7865
  402cae:	and    BYTE PTR gs:[esi+0x65],cl
  402cb2:	je     0x402d2b
  402cb4:	outs   dx,DWORD PTR ds:[esi]
  402cb5:	jb     0x402d22
  402cb7:	inc    ebp
  402cb8:	ins    DWORD PTR es:[edi],dx
  402cb9:	jne    0x402d27
  402cbb:	popa   
  402cbc:	je     0x402d27
  402cbe:	outs   dx,DWORD PTR ds:[esi]
  402cbf:	outs   dx,BYTE PTR ds:[esi]
  402cc0:	and    BYTE PTR ds:0x10a0d0a,cl
  402cc6:	aaa    
  402cc7:	push   esp
  402cc8:	push   0x72642065
  402ccd:	imul   esi,DWORD PTR [esi+0x65],0x73692072
  402cd4:	and    BYTE PTR [esi+0x6f],ch
  402cd7:	je     0x402cf9
  402cd9:	bound  ebp,QWORD PTR [edi+0x75]
  402cdc:	outs   dx,BYTE PTR ds:[esi]
  402cdd:	and    BYTE PTR fs:[edi+ebp*2+0x20],dh
  402ce2:	popa   
  402ce3:	outs   dx,BYTE PTR ds:[esi]
  402ce4:	jns    0x402d06
  402ce6:	dec    esi
  402ce7:	gs je  0x402d61
  402cea:	outs   dx,DWORD PTR ds:[esi]
  402ceb:	jb     0x402d58
  402ced:	and    BYTE PTR [ecx+0x6e],cl
  402cf0:	je     0x402d57
  402cf2:	jb     0x402d5a
  402cf4:	popa   
  402cf5:	arpl   WORD PTR [ebp+0x20],sp
  402cf8:	inc    ebx
  402cf9:	popa   
  402cfa:	jb     0x402d60
  402cfc:	jae    0x402d2c
  402cfe:	add    DWORD PTR [esp+edx*2+0x68],edi
  402d02:	and    BYTE PTR gs:[ebx+0x6f],ah
  402d06:	ins    DWORD PTR es:[edi],dx
  402d07:	ins    DWORD PTR es:[edi],dx
  402d08:	popa   
  402d09:	outs   dx,BYTE PTR ds:[esi]
  402d0a:	and    BYTE PTR fs:[ebx+0x30],bh
  402d0e:	jge    0x402d30
  402d10:	ja     0x402d73
  402d12:	jae    0x402d34
  402d14:	outs   dx,BYTE PTR ds:[esi]
  402d15:	outs   dx,DWORD PTR ds:[esi]
  402d16:	je     0x402d38
  402d18:	jb     0x402d7f
  402d1a:	arpl   WORD PTR [edi+0x67],bp
  402d1d:	outs   dx,BYTE PTR ds:[esi]
  402d1e:	imul   edi,DWORD PTR [edx+0x65],0x41202e64
  402d25:	je     0x402d47
  402d27:	je     0x402d91
  402d29:	and    BYTE PTR gs:[ebx+0x6f],ah
  402d2d:	ins    DWORD PTR es:[edi],dx
  402d2e:	ins    DWORD PTR es:[edi],dx
  402d2f:	popa   
  402d30:	outs   dx,BYTE PTR ds:[esi]
  402d31:	and    BYTE PTR fs:[eax+0x72],dh
  402d35:	outs   dx,DWORD PTR ds:[esi]
  402d36:	ins    DWORD PTR es:[edi],dx
  402d37:	jo     0x402dad
  402d39:	sub    al,0x20
  402d3b:	je     0x402db6
  402d3d:	jo     0x402da4
  402d3f:	and    BYTE PTR [edx],ah
  402d41:	push   esi
  402d42:	push   ebx
  402d43:	push   esp
  402d44:	gs jae 0x402dbb
  402d47:	inc    ebx
  402d48:	outs   dx,DWORD PTR ds:[esi]
  402d49:	outs   dx,BYTE PTR ds:[esi]
  402d4a:	imul   sp,WORD PTR [edi+0x2e],0x7865
  402d50:	and    BYTE PTR gs:[eax+0x65],cl
  402d54:	ins    BYTE PTR es:[edi],dx
  402d55:	jo     0x402d79
  402d57:	and    BYTE PTR [edi+ebp*2+0x20],dh
  402d5b:	addr16 gs je 0x402d7f
  402d5f:	popa   
  402d60:	and    BYTE PTR [ecx+ebp*2+0x73],ch
  402d64:	je     0x402d86
  402d66:	outs   dx,DWORD PTR ds:[esi]
  402d67:	data16 and BYTE PTR [ecx+0x76],ah
  402d6b:	popa   
  402d6c:	imul   ebp,DWORD PTR [ecx+eiz*2+0x62],0x6320656c
  402d74:	outs   dx,DWORD PTR ds:[esi]
  402d75:	ins    DWORD PTR es:[edi],dx
  402d76:	ins    DWORD PTR es:[edi],dx
  402d77:	popa   
  402d78:	outs   dx,BYTE PTR ds:[esi]
  402d79:	fs jae 0x402daa
  402d7c:	add    DWORD PTR [ebx],ebp
  402d7e:	push   esp
  402d7f:	push   0x6f662065
  402d84:	ins    BYTE PTR es:[edi],dx
  402d85:	ins    BYTE PTR es:[edi],dx
  402d86:	outs   dx,DWORD PTR ds:[esi]
  402d87:	ja     0x402df2
  402d89:	outs   dx,BYTE PTR ds:[esi]
  402d8a:	and    BYTE PTR [bx+0x70],ch
  402d8e:	je     0x402df9
  402d90:	outs   dx,DWORD PTR ds:[esi]
  402d91:	outs   dx,BYTE PTR ds:[esi]
  402d92:	and    BYTE PTR [ecx+0x73],ch
  402d95:	and    BYTE PTR [esi+0x6f],ch
  402d98:	je     0x402dba
  402d9a:	jb     0x402e01
  402d9c:	arpl   WORD PTR [edi+0x67],bp
  402d9f:	outs   dx,BYTE PTR ds:[esi]
  402da0:	imul   edi,DWORD PTR [edx+0x65],0x7b203a64
  402da7:	xor    BYTE PTR [ebp+0x1],bh
  402daa:	or     BYTE PTR [edi+0x70],cl
  402dad:	je     0x402e18
  402daf:	outs   dx,DWORD PTR ds:[esi]
  402db0:	outs   dx,BYTE PTR ds:[esi]
  402db1:	jae    0x402ded
  402db3:	add    DWORD PTR [edi],esi
  402db5:	jnp    0x402de7
  402db7:	jge    0x402dd9
  402db9:	cmp    ah,BYTE PTR [eax]
  402dbb:	inc    esp
  402dbc:	imul   esi,DWORD PTR [ebx+0x70],0x7379616c
  402dc3:	and    BYTE PTR [eax+ebp*2+0x69],dh
  402dc7:	jae    0x402de9
  402dc9:	jne    0x402e3e
  402dcb:	popa   
  402dcc:	and    BYTE PTR gs:[di+0x65],ch
  402dd1:	jae    0x402e46
  402dd3:	popa   
  402dd4:	gs and BYTE PTR cs:[bp+di+0x68],dl
  402dda:	outs   dx,DWORD PTR ds:[esi]
  402ddb:	jb     0x402e51
  402ddd:	and    BYTE PTR [esi+0x6f],ah
  402de0:	jb     0x402e4f
  402de2:	cmp    ah,BYTE PTR [eax]
  402de4:	das    
  402de5:	aas    
  402de6:	and    BYTE PTR [edi+0x72],ch
  402de9:	and    BYTE PTR [edi],ch
  402deb:	push   0x73551501
  402df0:	popa   
  402df1:	and    BYTE PTR gs:[bp+si],bh
  402df5:	and    BYTE PTR [eax],ah
  402df7:	jnp    0x402e29
  402df9:	jge    0x402e56
  402dfb:	outs   dx,DWORD PTR ds:[esi]
  402dfc:	jo     0x402e72
  402dfe:	imul   ebp,DWORD PTR [edi+0x6e],0x42005d73
  402e05:	push   ebx
  402e06:	dec    edx
  402e07:	inc    edx
  402e08:	add    DWORD PTR [eax],eax
  402e0a:	add    DWORD PTR [eax],eax
  402e0c:	add    BYTE PTR [eax],al
  402e0e:	add    BYTE PTR [eax],al
  402e10:	or     al,0x0
  402e12:	add    BYTE PTR [eax],al
  402e14:	jbe    0x402e4a
  402e16:	xor    BYTE PTR cs:[esi],ch
  402e19:	xor    esi,DWORD PTR [eax]
  402e1b:	xor    esi,DWORD PTR [ecx]
  402e1d:	cmp    DWORD PTR [eax],eax
  402e1f:	add    BYTE PTR [eax],al
  402e21:	add    BYTE PTR ds:0x6c00,al
  402e27:	add    BYTE PTR [eax+ecx*1+0x0],dl
  402e2b:	add    BYTE PTR [ebx],ah
  402e2d:	jle    0x402e2f
  402e2f:	add    al,al
  402e31:	or     BYTE PTR [eax],al
  402e33:	add    BYTE PTR [esp+ecx*1],bh
  402e36:	add    BYTE PTR [eax],al
  402e38:	and    edx,DWORD PTR [ebx+0x74]
  402e3b:	jb     0x402ea6
  402e3d:	outs   dx,BYTE PTR ds:[esi]
  402e3e:	addr16 jae 0x402e41
  402e41:	add    BYTE PTR [eax],al
  402e43:	add    ah,bh
  402e45:	adc    al,0x0
  402e47:	add    BYTE PTR [eax],al
  402e49:	add    eax,DWORD PTR [eax]
  402e4b:	add    BYTE PTR [ebx],ah
  402e4d:	push   ebp
  402e4e:	push   ebx
  402e4f:	add    ah,bh
  402e51:	pop    ss
  402e52:	add    BYTE PTR [eax],al
  402e54:	adc    BYTE PTR [eax],al
  402e56:	add    BYTE PTR [eax],al
  402e58:	and    eax,DWORD PTR [edi+0x55]
  402e5b:	dec    ecx
  402e5c:	inc    esp
  402e5d:	add    BYTE PTR [eax],al
  402e5f:	add    BYTE PTR [eax+ebx*1],cl
  402e62:	add    BYTE PTR [eax],al
  402e64:	push   esp
  402e65:	add    al,0x0
  402e67:	add    BYTE PTR [ebx],ah
  402e69:	inc    edx
  402e6a:	ins    BYTE PTR es:[edi],dx
  402e6b:	outs   dx,DWORD PTR ds:[esi]
  402e6c:	bound  eax,QWORD PTR [eax]
  402e6e:	add    BYTE PTR [eax],al
  402e70:	add    BYTE PTR [eax],al
  402e72:	add    BYTE PTR [eax],al
  402e74:	add    al,BYTE PTR [eax]
  402e76:	add    BYTE PTR [ecx],al
  402e78:	push   edi
  402e79:	adc    eax,0x10909a2
  402e7e:	add    BYTE PTR [eax],al
  402e80:	add    dl,bh
  402e82:	and    eax,0x160033
  402e87:	add    BYTE PTR [ecx],al
  402e89:	add    BYTE PTR [eax],al
  402e8b:	add    BYTE PTR [eax+0x0],al
  402e8e:	add    BYTE PTR [eax],al
  402e90:	push   es
  402e91:	add    BYTE PTR [eax],al
  402e93:	add    BYTE PTR ds:0x1f000000,al
  402e99:	add    BYTE PTR [eax],al
  402e9b:	add    BYTE PTR [ebx],cl
  402e9d:	add    BYTE PTR [eax],al
  402e9f:	add    BYTE PTR [ecx+0x0],bl
  402ea2:	add    BYTE PTR [eax],al
  402ea4:	sbb    al,BYTE PTR [eax]
  402ea6:	add    BYTE PTR [eax],al
  402ea8:	pop    es
  402ea9:	add    BYTE PTR [eax],al
  402eab:	add    BYTE PTR [ebx],al
  402ead:	add    BYTE PTR [eax],al
  402eaf:	add    BYTE PTR [esi],cl
  402eb1:	add    BYTE PTR [eax],al
  402eb3:	add    BYTE PTR [edi],cl
  402eb5:	add    BYTE PTR [eax],al
  402eb7:	add    BYTE PTR [eax+eax*1],al
  402eba:	add    BYTE PTR [eax],al
  402ebc:	add    DWORD PTR [eax],eax
  402ebe:	add    BYTE PTR [eax],al
  402ec0:	add    eax,0x1000000
  402ec5:	add    BYTE PTR [eax],al
  402ec7:	add    BYTE PTR [eax],al
  402ec9:	add    BYTE PTR [edx],cl
  402ecb:	add    BYTE PTR [ecx],al
  402ecd:	add    BYTE PTR [eax],al
  402ecf:	add    BYTE PTR [eax],al
  402ed1:	add    BYTE PTR [esi],al
  402ed3:	add    BYTE PTR [ecx+0x6008d00],bh
  402ed9:	add    cl,al
  402edb:	add    BYTE PTR [ebp-0x22fff600],cl
  402ee1:	add    dh,dl
  402ee3:	add    BYTE PTR [esi],al
  402ee5:	add    BYTE PTR [ecx+eax*1],al
  402ee8:	lea    eax,[eax]
  402eea:	push   es
  402eeb:	add    BYTE PTR [ecx],bh
  402eed:	add    DWORD PTR [ebp+0x78000a00],ecx
  402ef3:	add    DWORD PTR [ebp+0x1],ebx
  402ef6:	push   es
  402ef7:	add    BYTE PTR [edi+0x1],bh
  402efa:	lea    eax,[eax]
  402efc:	pop    ds
  402efd:	add    BYTE PTR [edi+0xa000001],al
  402f03:	add    BYTE PTR [edx],al
  402f05:	add    dh,cl
  402f07:	add    DWORD PTR [edx],ecx
  402f09:	add    BYTE PTR [ebx],dh
  402f0b:	add    bl,BYTE PTR [esi]
  402f0d:	add    cl,BYTE PTR [edx]
  402f0f:	add    BYTE PTR [edi],ah
  402f11:	add    al,0xd
  402f13:	add    al,0xa
  402f15:	add    BYTE PTR [edi+0x4],bl
  402f18:	inc    eax
  402f19:	add    al,0xa
  402f1b:	add    BYTE PTR [ebx+0x4],dh
  402f1e:	(bad)  
  402f1f:	add    BYTE PTR [edx],cl
  402f21:	add    BYTE PTR [ebx+0xa048904],bl
  402f27:	add    BYTE PTR [edx+0xa048904],dh
  402f2d:	add    bh,cl
  402f2f:	add    al,0x89
  402f31:	add    al,0xa
  402f33:	add    ch,ch
  402f35:	add    al,0x89
  402f37:	add    al,0xa
  402f39:	add    BYTE PTR [esi],al
  402f3b:	add    eax,0xa0489
  402f40:	pop    ds
  402f41:	add    eax,0xa0489
  402f46:	cmp    al,BYTE PTR ds:0xa0489
  402f4c:	push   ebx
  402f4d:	add    eax,0xa0489
  402f52:	jo     0x402f59
  402f54:	mov    DWORD PTR [edx+ecx*1],eax
  402f57:	add    BYTE PTR [esi+0xa01f105],dl
  402f5d:	add    BYTE PTR [eax+0xa01f105],bh
  402f63:	add    dl,bl
  402f65:	add    eax,0xa0489
  402f6a:	cmc    
  402f6b:	add    eax,0xa0489
  402f70:	cs push es
  402f72:	push   cs
  402f73:	push   es
  402f74:	or     al,BYTE PTR [eax]
  402f76:	pop    edi
  402f77:	push   es
  402f78:	dec    esp
  402f79:	push   es
  402f7a:	jae    0x402f7c
  402f7c:	jae    0x402f84
  402f7e:	add    BYTE PTR [eax],al
  402f80:	or     al,BYTE PTR [eax]
  402f82:	add    BYTE PTR [esi],0xe
  402f85:	push   es
  402f86:	or     al,BYTE PTR [eax]
  402f88:	scas   eax,DWORD PTR es:[edi]
  402f89:	push   es
  402f8a:	(bad)  
  402f8b:	add    BYTE PTR [edx],cl
  402f8d:	add    ah,al
  402f8f:	push   es
  402f90:	mov    DWORD PTR [edx+ecx*1],eax
  402f93:	add    dl,ah
  402f95:	push   es
  402f96:	(bad)  
  402f97:	add    BYTE PTR [edi],al
  402f99:	add    al,dh
  402f9b:	push   es
  402f9c:	add    BYTE PTR [eax],al
  402f9e:	or     al,BYTE PTR [eax]
  402fa0:	inc    BYTE PTR [esi]
  402fa2:	(bad)  
  402fa3:	add    BYTE PTR [edx],cl
  402fa5:	add    BYTE PTR [edx],ah
  402fa7:	pop    es
  402fa8:	(bad)  
  402fa9:	add    BYTE PTR [edx],cl
  402fab:	add    BYTE PTR [edi+eax*1],ch
  402fae:	mov    DWORD PTR [edx+ecx*1],eax
  402fb1:	add    BYTE PTR [edx+0x7],bl
  402fb4:	(bad)  
  402fb5:	add    BYTE PTR [edx],cl
  402fb7:	add    BYTE PTR [ecx+0x700d607],ah
  402fbd:	add    BYTE PTR [edi+0xa000003],ch
  402fc3:	add    BYTE PTR [eax+0x6015d07],bh
  402fc9:	add    bh,cl
  402fcb:	pop    es
  402fcc:	lea    eax,[eax]
  402fce:	push   es
  402fcf:	add    BYTE PTR [eax+ecx*1-0x73],dl
  402fd3:	add    BYTE PTR [edi+0x8f600],ch
  402fd9:	add    BYTE PTR [edx],cl
  402fdb:	add    BYTE PTR [ecx],bh
  402fdd:	or     esi,edx
  402fdf:	add    BYTE PTR [edx],cl
  402fe1:	add    BYTE PTR [edx+0x9],cl
  402fe4:	pop    ebp
  402fe5:	add    DWORD PTR [edx],ecx
  402fe7:	add    BYTE PTR [eax+0x9],dh
  402fea:	pop    ebp
  402feb:	add    DWORD PTR [edx],ecx
  402fed:	add    BYTE PTR [ebx+0xa099809],ch
  402ff3:	add    al,al
  402ff5:	or     esi,edx
  402ff7:	add    BYTE PTR [edx],cl
  402ff9:	add    bh,ah
  402ffb:	or     esi,edx
  402ffd:	add    BYTE PTR [esi],al
  402fff:	add    BYTE PTR [eax],cl
  403001:	or     cl,BYTE PTR [ebp+0x32000a00]
  403007:	or     dl,dh
  403009:	add    BYTE PTR [esi],al
  40300b:	add    BYTE PTR [eax+0xa],cl
  40300e:	lea    eax,[eax]
  403010:	push   cs
  403011:	add    BYTE PTR [eax+0x120a800a],ch
  403017:	add    BYTE PTR [edx],dh
  403019:	or     dl,dh
  40301b:	add    BYTE PTR [edx],cl
  40301d:	add    bl,dl
  40301f:	or     dl,dh
  403021:	add    BYTE PTR [edi],al
  403023:	add    ah,ah
  403025:	or     al,BYTE PTR [eax]
  403027:	add    BYTE PTR [edx],cl
  403029:	add    dl,bh
  40302b:	or     cl,BYTE PTR [ecx+0xf000a04]
  403031:	or     edx,esi
  403033:	add    BYTE PTR [esi],dl
  403035:	add    BYTE PTR [ebx],bh
  403037:	or     esp,DWORD PTR [ebx]
  403039:	or     ecx,DWORD PTR [edx]
  40303b:	add    BYTE PTR [edx+0xb],dl
  40303e:	dec    esp
  40303f:	push   es
  403040:	or     al,BYTE PTR [eax]
  403042:	outs   dx,DWORD PTR ds:[esi]
  403043:	or     ecx,DWORD PTR [esi]
  403045:	push   es
  403046:	push   ss
  403047:	add    bh,al
  403049:	or     esi,DWORD PTR [ecx-0x1fffe9f5]
  40304f:	or     esi,DWORD PTR [ecx+0xb]
  403055:	add    BYTE PTR [ecx],al
  403057:	add    BYTE PTR [eax],al
  403059:	add    BYTE PTR [eax],al
  40305b:	add    BYTE PTR [ecx],al
  40305d:	add    BYTE PTR [ecx],al
  40305f:	add    BYTE PTR [eax+0x1b001000],al
  403065:	add    BYTE PTR ds:0x1000500,ah
  40306b:	add    BYTE PTR [ecx],al
  40306d:	add    BYTE PTR [eax],al
  40306f:	add    BYTE PTR [eax],dl
  403071:	add    BYTE PTR [esi+0x0],dl
  403074:	and    eax,0x1000800
  403079:	add    BYTE PTR ds:0x10000000,al
  40307f:	add    BYTE PTR [esi+0x0],ch
  403082:	and    eax,0x2000800
  403087:	add    BYTE PTR [ecx],cl
  403089:	add    BYTE PTR [eax],al
  40308b:	add    BYTE PTR [eax],dl
  40308d:	add    BYTE PTR [edx+0x0],bh
  403090:	and    eax,0x3000900
  403095:	add    BYTE PTR ds:0x10000000,cl
  40309b:	add    BYTE PTR [ebx+0xd002500],al
  4030a1:	add    BYTE PTR [eax+eax*1],al
  4030a4:	adc    al,BYTE PTR [eax]
  4030a6:	add    DWORD PTR [eax],eax
  4030a8:	sub    al,0x1
  4030aa:	sub    BYTE PTR [eax],al
  4030ac:	add    DWORD PTR [eax],eax
  4030ae:	cdq    
  4030af:	add    DWORD PTR ds:0xdf001100,edi
  4030b5:	add    DWORD PTR [eax+eax*1+0x11],ebx
  4030b9:	add    BYTE PTR [edx],dl
  4030bb:	add    ah,BYTE PTR [ebp+0x0]
  4030be:	adc    DWORD PTR [eax],eax
  4030c0:	aas    
  4030c1:	add    ch,BYTE PTR [ecx+0x0]
  4030c4:	shl    BYTE PTR [eax],1
  4030c6:	add    BYTE PTR [eax],al
  4030c8:	add    BYTE PTR [eax],al
  4030ca:	sbb    DWORD PTR [eax],0xffffffe4
  4030cd:	add    BYTE PTR [ebx],dl
  4030cf:	add    BYTE PTR [ecx],al
  4030d1:	add    al,bl
  4030d3:	and    BYTE PTR [eax],al
  4030d5:	add    BYTE PTR [eax],al
  4030d7:	add    BYTE PTR [esi+0x1700ea00],dl
  4030dd:	add    BYTE PTR [ecx],al
  4030df:	add    BYTE PTR [esi+0x21],bh
  4030e2:	add    BYTE PTR [eax],al
  4030e4:	add    BYTE PTR [eax],al
  4030e6:	mov    BYTE PTR [ecx],0xf1
  4030e9:	add    BYTE PTR [edi],bl
  4030eb:	add    BYTE PTR [ebx],al
  4030ed:	add    BYTE PTR [ebp+0x21],al
  4030f3:	add    BYTE PTR [eax+eax*1+0x2300fa],al
  4030fa:	add    eax,DWORD PTR [eax]
  4030fc:	xchg   esp,eax
  4030fd:	and    DWORD PTR [eax],eax
  4030ff:	add    BYTE PTR [eax],al
  403101:	add    dh,al
  403103:	add    BYTE PTR [esi+0x1],cl
  403106:	sub    al,0x0
  403108:	add    al,0x0
  40310a:	jbe    0x40312e
  40310c:	add    BYTE PTR [eax],al
  40310e:	add    BYTE PTR [eax],al
  403110:	mov    BYTE PTR [eax],0xf1
  403113:	add    BYTE PTR [edi],bl
  403115:	add    BYTE PTR [esi],al
  403117:	add    BYTE PTR [eax+0x22],al
  40311d:	add    dh,al
  40311f:	add    BYTE PTR [ecx+0x1],bl
  403122:	adc    eax,DWORD PTR [eax]
  403124:	push   es
  403125:	add    BYTE PTR [esp+0x0],bh
  403129:	add    BYTE PTR [eax],al
  40312b:	add    BYTE PTR [esi+0x1300e418],al
  403131:	add    BYTE PTR [esi],al
  403133:	add    BYTE PTR [esp+0x0],al
  40313a:	mov    BYTE PTR [eax],0x4e
  40313d:	add    DWORD PTR [eax+eax*1],ebp
  403140:	push   es
  403141:	add    BYTE PTR [eax+0x24],bh
  403147:	add    dh,al
  403149:	add    BYTE PTR [ecx+0x1],bl
  40314c:	adc    eax,DWORD PTR [eax]
  40314e:	or     BYTE PTR [eax],al
  403150:	cmc    
  403151:	and    al,0x0
  403153:	add    BYTE PTR [eax],al
  403155:	add    ah,al
  403157:	or     BYTE PTR [edx+0x8003401],cl
  40315d:	add    ah,bh
  40315f:	and    al,0x0
  403161:	add    BYTE PTR [eax],al
  403163:	add    BYTE PTR [esi+0x1300e418],al
  403169:	add    BYTE PTR [eax],cl
  40316b:	add    BYTE PTR [eiz*1+0x0],al
  403172:	xchg   ecx,eax
  403173:	add    BYTE PTR [ebx+0x8004a01],dh
  403179:	add    BYTE PTR [eiz*1+0x0],dl
  403180:	mov    BYTE PTR [eax],0xb8
  403183:	add    DWORD PTR [eax+0x0],edx
  403186:	or     DWORD PTR [eax],eax
  403188:	fsub   DWORD PTR ds:0x0
  40318e:	xchg   esi,eax
  40318f:	or     bl,al
  403191:	add    DWORD PTR [edi+0x0],edx
  403194:	or     eax,DWORD PTR [eax]
  403196:	lock and eax,0x0
  40319c:	add    DWORD PTR [eax],0x1301d0
  4031a2:	or     eax,DWORD PTR [eax]
  4031a4:	cs add BYTE PTR es:[eax],al
  4031a8:	add    BYTE PTR [eax],al
  4031aa:	xchg   BYTE PTR [eax],bl
  4031ac:	in     al,0x0
  4031ae:	adc    eax,DWORD PTR [eax]
  4031b0:	or     eax,DWORD PTR [eax]
  4031b2:	ss add BYTE PTR es:[eax],al
  4031b6:	add    BYTE PTR [eax],al
  4031b8:	sbb    DWORD PTR [eax],0xffffffe4
  4031bb:	add    BYTE PTR [ebx],dl
  4031bd:	add    BYTE PTR [ebx],cl
  4031bf:	add    BYTE PTR [eax+0x26],al
  4031c2:	add    BYTE PTR [eax],al
  4031c4:	add    BYTE PTR [eax],al
  4031c6:	xchg   ebx,eax
  4031c7:	or     BYTE PTR [edi+0x2],cl
  4031ca:	ins    DWORD PTR es:[edi],dx
  4031cb:	add    BYTE PTR [ebx],cl
  4031cd:	add    BYTE PTR [edi+0x26],bh
  4031d0:	add    BYTE PTR [eax],al
  4031d2:	add    BYTE PTR [eax],al
  4031d4:	xchg   ebx,eax
  4031d5:	or     BYTE PTR [ebx+0x2],ah
  4031d8:	jb     0x4031da
  4031da:	or     eax,DWORD PTR [eax]
  4031dc:	xchg   BYTE PTR [esi],ah
  4031de:	add    BYTE PTR [eax],al
  4031e0:	add    BYTE PTR [eax],al
  4031e2:	xchg   ebx,eax
  4031e3:	or     BYTE PTR [edi+0x2],ch
  4031e6:	ja     0x4031e8
  4031e8:	or     eax,DWORD PTR [eax]
  4031ea:	mov    fs,WORD PTR [esi]
  4031ec:	add    BYTE PTR [eax],al
  4031ee:	add    BYTE PTR [eax],al
  4031f0:	xchg   ebx,eax
  4031f1:	or     BYTE PTR [ebx+0x2],bh
  4031f4:	jge    0x4031f6
  4031f6:	or     al,0x0
  4031f8:	movs   BYTE PTR es:[edi],BYTE PTR ds:[esi]
  4031f9:	add    BYTE PTR es:[eax],al
  4031fc:	add    BYTE PTR [eax],al
  4031fe:	xchg   ebx,eax
  4031ff:	or     BYTE PTR [eax+0xc007d02],dl
  403205:	add    BYTE PTR [edx+0x26],bh
  40320b:	add    BYTE PTR [ebx+0x7d02a408],dl
  403211:	add    BYTE PTR [eax+eax*1],cl
  403214:	shl    BYTE PTR [esi],1
  403216:	add    BYTE PTR [eax],al
  403218:	add    BYTE PTR [eax],al
  40321a:	xchg   ebx,eax
  40321b:	or     BYTE PTR [ecx+0xc007d02],dh
  403221:	add    dh,ah
  403223:	add    BYTE PTR es:[eax],al
  403226:	add    BYTE PTR [eax],al
  403228:	xchg   ebx,eax
  403229:	or     dl,cl
  40322b:	add    bh,BYTE PTR [ebp+0x0]
  40322e:	or     al,0x0
  403230:	cld    
  403231:	add    BYTE PTR es:[eax],al
  403234:	add    BYTE PTR [eax],al
  403236:	xchg   ebx,eax
  403237:	or     cl,bl
  403239:	add    bh,BYTE PTR [ebp+0x0]
  40323c:	or     al,0x0
  40323e:	adc    ah,BYTE PTR [edi]
  403240:	add    BYTE PTR [eax],al
  403242:	add    BYTE PTR [eax],al
  403244:	xchg   ebx,eax
  403245:	or     al,ch
  403247:	add    bh,BYTE PTR [ebp+0x0]
  40324a:	or     al,0x0
  40324c:	sub    BYTE PTR [edi],ah
  40324e:	add    BYTE PTR [eax],al
  403250:	add    BYTE PTR [eax],al
  403252:	xchg   ebx,eax
  403253:	or     ch,dh
  403255:	add    bh,BYTE PTR [ebp+0x0]
  403258:	or     al,0x0
  40325a:	ds daa 
  40325c:	add    BYTE PTR [eax],al
  40325e:	add    BYTE PTR [eax],al
  403260:	xchg   ebx,eax
  403261:	or     BYTE PTR ds:0xc007d03,al
  403267:	add    BYTE PTR [edi+eiz*1+0x0],dl
  40326b:	add    BYTE PTR [eax],al
  40326d:	add    BYTE PTR [ebx+0x7d032608],dl
  403273:	add    BYTE PTR [eax+eax*1],cl
  403276:	add    BYTE PTR [eax],al
  403278:	add    DWORD PTR [eax],eax
  40327a:	fild   WORD PTR [ebx]
  40327c:	add    BYTE PTR [eax],al
  40327e:	add    al,BYTE PTR [eax]
  403280:	jmp    0x403285
  403282:	add    BYTE PTR [eax],al
  403284:	add    DWORD PTR [eax],eax
  403286:	lock add eax,DWORD PTR [eax]
  403289:	add    BYTE PTR [ecx],al
  40328b:	add    bl,ch
  40328d:	add    eax,DWORD PTR [eax]
  40328f:	add    BYTE PTR [edx],al
  403291:	add    al,bh
  403293:	add    eax,DWORD PTR [eax]
  403295:	add    BYTE PTR [ecx],al
  403297:	add    bl,ch
  403299:	add    eax,DWORD PTR [eax]
  40329b:	add    BYTE PTR [edx],al
  40329d:	add    al,bh
  40329f:	add    eax,DWORD PTR [eax]
  4032a1:	add    BYTE PTR [ecx],al
  4032a3:	add    bl,ch
  4032a5:	add    eax,DWORD PTR [eax]
  4032a7:	add    BYTE PTR [ecx],al
  4032a9:	add    bh,bl
  4032ab:	add    eax,DWORD PTR [eax]
  4032ad:	add    BYTE PTR [edx],al
  4032af:	add    bl,ch
  4032b1:	add    eax,DWORD PTR [eax]
  4032b3:	add    BYTE PTR [ecx],al
  4032b5:	add    BYTE PTR [edi],al
  4032b7:	add    al,0x59
  4032b9:	add    ah,ah
  4032bb:	add    BYTE PTR [ebx],ah
  4032bd:	add    BYTE PTR [ecx+0x0],ah
  4032c0:	in     al,0x0
  4032c2:	pop    DWORD PTR [eax]
  4032c4:	imul   eax,DWORD PTR [eax],0x8f00e4
  4032ca:	jno    0x4032cc
  4032cc:	in     al,0x0
  4032ce:	and    eax,DWORD PTR [eax]
  4032d0:	jns    0x4032d2
  4032d2:	in     al,0x0
  4032d4:	and    eax,DWORD PTR [eax]
  4032d6:	add    DWORD PTR [eax],0x2300e4
  4032dc:	mov    DWORD PTR [eax],eax
  4032de:	in     al,0x0
  4032e0:	and    eax,DWORD PTR [eax]
  4032e2:	xchg   ecx,eax
  4032e3:	add    ah,ah
  4032e5:	add    BYTE PTR [ebx],ah
  4032e7:	add    BYTE PTR [ecx+0x2300e400],bl
  4032ed:	add    BYTE PTR [ecx+0x2300e400],ah
  4032f3:	add    BYTE PTR [ecx+0x2300e400],ch
  4032f9:	add    BYTE PTR [ecx+0x2300e400],dh
  4032ff:	add    BYTE PTR [ecx+0x2300e400],bh
  403305:	add    cl,al
  403307:	add    ah,ah
  403309:	add    BYTE PTR [ebx],ah
  40330b:	add    cl,cl
  40330d:	add    ah,ah
  40330f:	add    BYTE PTR [edi-0x1bff2f00],cl
  403315:	add    BYTE PTR [ebx],ah
  403317:	add    cl,bl
  403319:	add    ah,ah
  40331b:	add    BYTE PTR [ebx],dl
  40331d:	add    cl,ah
  40331f:	add    ah,ah
  403321:	add    BYTE PTR [eax+eax*1+0xe400f1],dl
  403328:	call   0x1300:0xe4000900
  40332f:	add    cl,bh
  403331:	add    BYTE PTR [esi+0x1014106],dh
  403337:	add    ebp,ecx
  403339:	push   es
  40333a:	inc    esi
  40333b:	add    DWORD PTR [ecx],eax
  40333d:	add    edi,esp
  40333f:	push   es
  403340:	dec    esp
  403341:	add    DWORD PTR [ecx],ecx
  403343:	add    DWORD PTR [eax],edx
  403345:	pop    es
  403346:	push   ebx
  403347:	add    DWORD PTR [ecx],esp
  403349:	add    DWORD PTR [edi],esi
  40334b:	pop    es
  40334c:	pop    esp
  40334d:	add    DWORD PTR [ecx],edx
  40334f:	add    DWORD PTR [edx+0x7],ecx
  403352:	pop    ds
  403353:	add    cl,bh
  403355:	add    BYTE PTR [ebx+0x7],ch
  403358:	push   0x72010901
  40335d:	pop    es
  40335e:	pop    ds
  40335f:	add    BYTE PTR [ecx],al
  403361:	add    DWORD PTR [edi+0x7],edi
  403364:	jo     0x403367
  403366:	push   ecx
  403367:	add    BYTE PTR [esi-0x6ff8df9],cl
  40336d:	add    BYTE PTR [ecx+0x41017507],dh
  403373:	add    esp,esp
  403375:	add    BYTE PTR [ebx],ah
  403377:	add    BYTE PTR [ecx],dl
  403379:	add    dl,bh
  40337b:	add    BYTE PTR [ebx],ah
  40337d:	add    BYTE PTR [ecx],dl
  40337f:	add    esp,esp
  403381:	add    BYTE PTR [ebx],ah
  403383:	add    BYTE PTR [ecx],cl
  403385:	add    BYTE PTR [edx+0xc003401],cl
  40338b:	add    dh,al
  40338d:	pop    es
  40338e:	mov    cl,0x1
  403390:	or     DWORD PTR [eax],eax
  403392:	dec    esi
  403393:	add    DWORD PTR [eax+eax*1],ebp
  403396:	and    DWORD PTR [eax],eax
  403398:	in     al,0x0
  40339a:	adc    eax,DWORD PTR [eax]
  40339c:	or     DWORD PTR [eax],eax
  40339e:	fld    DWORD PTR [edi]
  4033a0:	mov    esp,0xe7015101
  4033a5:	pop    es
  4033a6:	ret    0x2101
  4033a9:	add    al,dh
  4033ab:	pop    es
  4033ac:	pop    DWORD PTR [eax]
  4033ae:	and    DWORD PTR [eax],eax
  4033b0:	add    cl,BYTE PTR [eax]
  4033b2:	pop    DWORD PTR [eax]
  4033b4:	and    DWORD PTR [eax],eax
  4033b6:	push   ss
  4033b7:	or     BYTE PTR [edi+0x31002100],cl
  4033bd:	or     BYTE PTR [edi+0x42002100],cl
  4033c3:	or     BYTE PTR [edi-0x1bfea700],cl
  4033c9:	add    BYTE PTR [ebx],dl
  4033cb:	add    BYTE PTR [ecx],ah
  4033cd:	add    BYTE PTR [edx+0x8],dh
  4033d0:	into   
  4033d1:	add    DWORD PTR [ecx],esp
  4033d3:	add    BYTE PTR [eax+ecx*1+0x2101ce],al
  4033da:	cwde   
  4033db:	or     dh,cl
  4033dd:	add    DWORD PTR [ecx],esp
  4033df:	add    BYTE PTR [ecx+0x901ce08],ch
  4033e5:	add    ah,al
  4033e7:	or     dl,dl
  4033e9:	add    DWORD PTR [ecx+0x1],ebx
  4033ec:	fimul  DWORD PTR [eax]
  4033ee:	(bad)  
  4033ef:	add    DWORD PTR [ecx],esp
  4033f1:	add    ah,ah
  4033f3:	or     dh,cl
  4033f5:	add    DWORD PTR [ecx+0x1],ebx
  4033f8:	and    DWORD PTR [ecx],ecx
  4033fa:	fiadd  WORD PTR [ecx]
  4033fc:	stc    
  4033fd:	add    BYTE PTR [ebx],dh
  4033ff:	or     esi,esp
  403401:	add    DWORD PTR [ecx+0x1],esp
  403404:	nop
  403405:	add    cl,dh
  403407:	add    DWORD PTR [ecx+0x1],ebp
  40340a:	inc    ecx
  40340b:	or     DWORD PTR [edi],ebx
  40340d:	add    BYTE PTR [ecx+0x1],ah
  403410:	pop    eax
  403411:	or     ecx,ebp
  403413:	add    DWORD PTR [eax+eax*1],edx
  403416:	or     cx,di
  403419:	add    DWORD PTR [eax+eax*1],ebx
  40341c:	jle    0x403427
  40341e:	add    al,0x2
  403420:	and    al,0x0
  403422:	mov    WORD PTR [ecx],cs
  403424:	adc    eax,0xb7018102
  403429:	or     esi,ecx
  40342b:	add    DWORD PTR [ecx+0x1309cc01],ecx
  403431:	add    BYTE PTR [ecx],dl
  403433:	add    ah,dl
  403435:	or     DWORD PTR [edi],ebx
  403437:	add    BYTE PTR [eax+eax*1],cl
  40343a:	in     al,0x0
  40343c:	adc    eax,DWORD PTR [eax]
  40343e:	xchg   ecx,eax
  40343f:	add    esp,esp
  403441:	add    BYTE PTR [ebx],dl
  403443:	add    BYTE PTR [ecx],dl
  403445:	add    BYTE PTR [ecx+0x1],bl
  403448:	inc    edi
  403449:	add    dl,BYTE PTR [ecx]
  40344b:	add    dl,bh
  40344d:	or     esi,ecx
  40344f:	add    DWORD PTR [ecx],edx
  403451:	add    BYTE PTR ds:0x29024d0a,bl
  403457:	add    ah,ah
  403459:	add    BYTE PTR [edx+eax*1+0x9],dl
  40345d:	add    BYTE PTR [ecx+0x1],bl
  403460:	adc    eax,DWORD PTR [eax]
  403462:	mov    eax,ds:0x1f0a3c01
  403467:	add    BYTE PTR [ecx+0x5a0a4f01],ch
  40346d:	add    dh,BYTE PTR [ecx+0x610ab801]
  403473:	add    bh,cl
  403475:	add    ah,cl
  403477:	or     ch,BYTE PTR [eax+0x2]
  40347a:	or     DWORD PTR [eax],eax
  40347c:	int3   
  40347d:	or     DWORD PTR [ebx],edx
  40347f:	add    cl,al
  403481:	add    edi,ebx
  403483:	or     ch,BYTE PTR [esi+0x2]
  403486:	add    DWORD PTR [ecx],eax
  403488:	pop    es
  403489:	or     edi,DWORD PTR [esi+0x2]
  40348c:	rol    DWORD PTR [ecx],1
  40348e:	pop    ss
  40348f:	or     eax,DWORD PTR [edx+eax*1+0xe40011]
  403496:	adc    eax,DWORD PTR [eax]
  403498:	loope  0x40349b
  40349a:	in     al,0x0
  40349c:	nop
  40349d:	add    ch,cl
  40349f:	add    esp,esp
  4034a1:	add    BYTE PTR [ebx],dl
  4034a3:	add    cl,dh
  4034a5:	add    esp,esp
  4034a7:	add    BYTE PTR [ebx],dl
  4034a9:	add    BYTE PTR [ecx],bl
  4034ab:	add    ah,ah
  4034ad:	add    BYTE PTR [ebx],dl
  4034af:	add    BYTE PTR [ecx],bl
  4034b1:	add    BYTE PTR [edx+0x902d70b],cl
  4034b7:	add    DWORD PTR [edx+0x4902dd0b],ebx
  4034bd:	add    ah,ah
  4034bf:	add    bl,ah
  4034c1:	add    cl,BYTE PTR [ecx+0x0]
  4034c4:	cmps   DWORD PTR ds:[esi],DWORD PTR es:[edi]
  4034c5:	or     esi,eax
  4034c7:	add    bh,cl
  4034c9:	add    esp,esp
  4034cb:	add    bh,dh
  4034cd:	add    ch,BYTE PTR [esi]
  4034cf:	add    BYTE PTR [ebx],ch
  4034d1:	add    BYTE PTR [ebx+0x3],cl
  4034d4:	add    BYTE PTR cs:[ebx],dh
  4034d7:	add    BYTE PTR [ebx+0x3],cl
  4034da:	add    BYTE PTR cs:[ebx+0x2e044b00],bl
  4034e1:	add    BYTE PTR [ebx+0x0],cl
  4034e4:	mov    ds:0x93002e03,al
  4034e9:	add    dh,bh
  4034eb:	add    ch,BYTE PTR [esi]
  4034ed:	add    BYTE PTR [ebx],dl
  4034ef:	add    BYTE PTR [edi],bh
  4034f1:	add    ebp,DWORD PTR [esi]
  4034f3:	add    BYTE PTR [ebx],bl
  4034f5:	add    BYTE PTR [ebp+0x3],al
  4034f8:	add    BYTE PTR cs:[ebx],ah
  4034fb:	add    BYTE PTR [ebx+0x3],cl
  4034fe:	add    BYTE PTR cs:[ebx+0x0],ah
  403502:	(bad)  
  403503:	add    ebp,DWORD PTR [esi]
  403505:	add    BYTE PTR [ebx+0x2e042c00],cl
  40350b:	add    BYTE PTR [ebx+0x0],al
  40350e:	jl     0x403513
  403510:	add    BYTE PTR cs:[ebx],cl
  403513:	add    BYTE PTR [edi],al
  403515:	add    ebp,DWORD PTR [esi]
  403517:	add    BYTE PTR [ebx+0x0],bl
  40351a:	(bad)  
  40351b:	add    ebp,DWORD PTR [esi]
  40351d:	add    BYTE PTR [ebx],bh
  40351f:	add    BYTE PTR [ecx+0x3],ah
  403522:	add    BYTE PTR cs:[ebx+0x0],ch
  403526:	call   0x7340632e
  40352b:	add    dh,dh
  40352d:	add    ebp,DWORD PTR [esi]
  40352f:	add    BYTE PTR [ebx+0x0],bh
  403532:	inc    ebp
  403533:	add    ebp,DWORD PTR [esi]
  403535:	add    BYTE PTR [ebx+0x63040100],al
  40353b:	add    BYTE PTR [ebx],dl
  40353d:	add    DWORD PTR [ecx+eax*1+0x2cb0069],edx
  403544:	inc    BYTE PTR [edx]
  403546:	add    DWORD PTR [eax],0x13
  403549:	add    DWORD PTR [edx+eax*1],esi
  40354c:	mov    DWORD PTR [eax],eax
  40354e:	retf   
  40354f:	add    bh,dh
  403551:	add    al,bl
  403553:	add    BYTE PTR [ebx-0x3cfd69fe],cl
  403559:	add    BYTE PTR [ebx-0x3cfdbdfe],dl
  40355f:	add    BYTE PTR [ebx-0x5ffdbdfe],bl
  403565:	add    DWORD PTR [ebx],edx
  403567:	add    al,BYTE PTR [edx+0x2]
  40356a:	jg     0x40356d
  40356c:	enter  0x1a01,0x2
  403570:	add    dh,BYTE PTR ds:[ebx+0x2]
  403574:	mov    al,BYTE PTR [edx]
  403576:	jmp    0x40357a
  403578:	add    al,0x0
  40357a:	add    DWORD PTR [eax],eax
  40357c:	add    eax,0x6000200
  403581:	add    BYTE PTR [ebx],al
  403583:	add    BYTE PTR [eax],al
  403585:	add    BYTE PTR [eax+0x4101],ch
  40358b:	add    al,ch
  40358d:	add    DWORD PTR [eax+0x0],esp
  403590:	add    BYTE PTR [eax],al
  403592:	add    al,BYTE PTR [edx]
  403594:	add    DWORD PTR [eax],0x33d0000
  40359a:	xchg   BYTE PTR [eax],al
  40359c:	add    BYTE PTR [eax],al
  40359e:	inc    ebp
  40359f:	add    ecx,DWORD PTR [ebx+0x56000000]
  4035a5:	add    ecx,DWORD PTR [ebx+0x66000000]
  4035ab:	add    ecx,DWORD PTR [ebx+0x6f000000]
  4035b1:	add    ecx,DWORD PTR [ebx-0x7c000000]
  4035b7:	add    ecx,DWORD PTR [ebx-0x71000000]
  4035bd:	add    ecx,DWORD PTR [ebx-0x66000000]
  4035c3:	add    ecx,DWORD PTR [ebx-0x5d000000]
  4035c9:	add    ecx,DWORD PTR [ebx-0x51000000]
  4035cf:	add    ecx,DWORD PTR [ebx-0x34000000]
  4035d5:	add    ecx,DWORD PTR [ebx+0xb000200]
  4035db:	add    BYTE PTR [ebx],al
  4035dd:	add    BYTE PTR [edx],al
  4035df:	add    BYTE PTR [edi],cl
  4035e1:	add    BYTE PTR ds:0x13000200,al
  4035e7:	add    BYTE PTR [edi],al
  4035e9:	add    BYTE PTR [edx],al
  4035eb:	add    BYTE PTR [eax+eax*1],dl
  4035ee:	or     DWORD PTR [eax],eax
  4035f0:	add    DWORD PTR [eax],eax
  4035f2:	adc    eax,0x2000900
  4035f7:	add    BYTE PTR [esi],dl
  4035f9:	add    BYTE PTR [ebx],cl
  4035fb:	add    BYTE PTR [edx],al
  4035fd:	add    BYTE PTR [edi],dl
  4035ff:	add    BYTE PTR ds:0x18000200,cl
  403605:	add    BYTE PTR [edi],cl
  403607:	add    BYTE PTR [edx],al
  403609:	add    BYTE PTR [ecx],bl
  40360b:	add    BYTE PTR [ecx],dl
  40360d:	add    BYTE PTR [edx],al
  40360f:	add    BYTE PTR [edx],bl
  403611:	add    BYTE PTR [ebx],dl
  403613:	add    BYTE PTR [edx],al
  403615:	add    BYTE PTR [ebx],bl
  403617:	add    BYTE PTR ds:0x1c000200,dl
  40361d:	add    BYTE PTR [edi],dl
  40361f:	add    BYTE PTR [edx],al
  403621:	add    BYTE PTR ds:0x2001900,bl
  403627:	add    BYTE PTR [esi],bl
  403629:	add    BYTE PTR [ebx],bl
  40362b:	add    BYTE PTR [edx],al
  40362d:	add    BYTE PTR [edi],bl
  40362f:	add    BYTE PTR ds:0xf201aa00,bl
  403635:	add    ebp,edi
  403637:	add    DWORD PTR [esi],ecx
  403639:	add    al,BYTE PTR [eax+eax*4]
  40363c:	add    BYTE PTR [eax],al
  40363e:	or     eax,DWORD PTR [eax]
  403640:	add    BYTE PTR [eax],al
  403642:	add    BYTE PTR [eax],al
  403644:	add    BYTE PTR [eax],al
  403646:	add    DWORD PTR [eax],eax
  403648:	add    BYTE PTR [eax],al
  40364a:	lahf   
  40364b:	add    BYTE PTR [edx+0xb000006],ah
	...
  403659:	add    BYTE PTR [eax],al
  40365b:	add    BYTE PTR [ecx],al
  40365d:	add    BYTE PTR [ebp+0x0],cl
  403663:	add    BYTE PTR [eax+eax*1],al
	...
  40366e:	add    BYTE PTR [eax],al
  403670:	or     al,BYTE PTR [eax]
  403672:	int    0x0
  403674:	add    BYTE PTR [eax],al
  403676:	add    BYTE PTR [eax],al
  403678:	or     eax,DWORD PTR [eax]
	...
  403682:	add    BYTE PTR [eax],al
  403684:	add    DWORD PTR [eax],eax
  403686:	push   ebp
  403687:	or     al,BYTE PTR [eax]
  403689:	add    BYTE PTR [eax],al
  40368b:	add    BYTE PTR [edx],al
	...
  403695:	add    BYTE PTR [eax],al
  403697:	add    BYTE PTR [edx],cl
  403699:	add    ch,cl
  40369b:	add    BYTE PTR [eax],al
  40369d:	add    BYTE PTR [eax],al
  40369f:	add    BYTE PTR [eax+eax*1],al
	...
  4036aa:	add    BYTE PTR [eax],al
  4036ac:	or     al,BYTE PTR [eax]
  4036ae:	(bad)  
	...
  4036b7:	add    BYTE PTR [ecx],al
  4036b9:	add    BYTE PTR [eax],al
  4036bb:	add    ch,dh
  4036bd:	or     eax,DWORD PTR [eax]
  4036bf:	add    BYTE PTR [eax],al
  4036c1:	add    BYTE PTR [eax],al
  4036c3:	add    BYTE PTR [eax],al
  4036c5:	cmp    al,0x4d
  4036c7:	outs   dx,DWORD PTR ds:[esi]
  4036c8:	fs jne 0x403737
  4036cb:	gs add BYTE PTR ds:[esi+0x53],dl
  4036d0:	push   esp
  4036d1:	gs jae 0x403748
  4036d4:	inc    ebx
  4036d5:	outs   dx,DWORD PTR ds:[esi]
  4036d6:	outs   dx,BYTE PTR ds:[esi]
  4036d7:	imul   sp,WORD PTR [edi+0x2e],0x7865
  4036dd:	add    BYTE PTR gs:[esi+0x53],dl
  4036e1:	inc    ebx
  4036e2:	outs   dx,DWORD PTR ds:[esi]
  4036e3:	ins    DWORD PTR es:[edi],dx
  4036e4:	ins    DWORD PTR es:[edi],dx
  4036e5:	popa   
  4036e6:	outs   dx,BYTE PTR ds:[esi]
  4036e7:	add    BYTE PTR fs:[ebp+0x69],cl
  4036eb:	arpl   WORD PTR [edx+0x6f],si
  4036ee:	jae    0x40375f
  4036f0:	data16 je 0x403721
  4036f3:	push   esi
  4036f4:	imul   esi,DWORD PTR [ebx+0x75],0x74536c61
  4036fb:	jne    0x403761
  4036fd:	imul   ebp,DWORD PTR [edi+0x2e],0x74736554
  403704:	push   esp
  403705:	outs   dx,DWORD PTR ds:[esi]
  403706:	outs   dx,DWORD PTR ds:[esi]
  403707:	ins    BYTE PTR es:[edi],dx
  403708:	jae    0x403738
  40370a:	push   esi
  40370b:	push   ebx
  40370c:	push   esp
  40370d:	gs jae 0x403784
  403710:	inc    ebx
  403711:	outs   dx,DWORD PTR ds:[esi]
  403712:	outs   dx,BYTE PTR ds:[esi]
  403713:	imul   sp,WORD PTR [edi+0x43],0x494c
  403719:	add    BYTE PTR [ebx+0x6f],al
  40371c:	ins    DWORD PTR es:[edi],dx
  40371d:	ins    DWORD PTR es:[edi],dx
  40371e:	popa   
  40371f:	outs   dx,BYTE PTR ds:[esi]
  403720:	fs dec esi
  403722:	gs je  0x40379c
  403725:	outs   dx,DWORD PTR ds:[esi]
  403726:	jb     0x403793
  403728:	inc    ebp
  403729:	ins    DWORD PTR es:[edi],dx
  40372a:	jne    0x403798
  40372c:	popa   
  40372d:	je     0x403798
  40372f:	outs   dx,DWORD PTR ds:[esi]
  403730:	outs   dx,BYTE PTR ds:[esi]
  403731:	add    BYTE PTR [ebx+0x6f],al
  403734:	ins    DWORD PTR es:[edi],dx
  403735:	ins    DWORD PTR es:[edi],dx
  403736:	popa   
  403737:	outs   dx,BYTE PTR ds:[esi]
  403738:	fs dec eax
  40373a:	gs ins BYTE PTR es:[edi],dx
  40373c:	jo     0x40373e
  40373e:	inc    ecx
  40373f:	jo     0x4037b1
  403741:	inc    ebp
  403742:	outs   dx,BYTE PTR ds:[esi]
  403743:	je     0x4037b7
  403745:	jns    0x403747
  403747:	push   edx
  403748:	gs jae 0x4037ba
  40374b:	jne    0x4037bf
  40374d:	arpl   WORD PTR [ebp+0x73],sp
  403750:	add    BYTE PTR [ebp+0x69],cl
  403753:	arpl   WORD PTR [edx+0x6f],si
  403756:	jae    0x4037c7
  403758:	data16 je 0x403789
  40375b:	push   esi
  40375c:	imul   esi,DWORD PTR [ebx+0x75],0x74536c61
  403763:	jne    0x4037c9
  403765:	imul   ebp,DWORD PTR [edi+0x2e],0x74736554
  40376c:	push   esp
  40376d:	outs   dx,DWORD PTR ds:[esi]
  40376e:	outs   dx,DWORD PTR ds:[esi]
  40376f:	ins    BYTE PTR es:[edi],dx
  403770:	jae    0x4037a0
  403772:	inc    ebx
  403773:	outs   dx,DWORD PTR ds:[esi]
  403774:	outs   dx,BYTE PTR ds:[esi]
  403775:	imul   sp,WORD PTR [edi+0x43],0x726f
  40377b:	add    BYTE PTR gs:[ebx+0x6f],al
  40377f:	ins    DWORD PTR es:[edi],dx
  403780:	ins    DWORD PTR es:[edi],dx
  403781:	popa   
  403782:	outs   dx,BYTE PTR ds:[esi]
  403783:	add    BYTE PTR fs:[ebx+0x6f],al
  403787:	ins    DWORD PTR es:[edi],dx
  403788:	ins    DWORD PTR es:[edi],dx
  403789:	popa   
  40378a:	outs   dx,BYTE PTR ds:[esi]
  40378b:	fs dec esp
  40378d:	imul   ebp,DWORD PTR [esi+0x65],0x63736d00
  403794:	outs   dx,DWORD PTR ds:[esi]
  403795:	jb     0x403803
  403797:	imul   esp,DWORD PTR [edx+0x0],0x74737953
  40379e:	gs ins DWORD PTR es:[edi],dx
  4037a0:	add    BYTE PTR [edi+0x62],cl
  4037a3:	push   0x65
  4037a5:	arpl   WORD PTR [eax+eax*1+0x2e],si
  4037a9:	arpl   WORD PTR [edi+ebp*2+0x72],si
  4037ad:	add    BYTE PTR [ebx+0x72],al
  4037b0:	gs popa 
  4037b2:	je     0x403819
  4037b4:	add    BYTE PTR [edi+0x65],al
  4037b7:	je     0x40380e
  4037b9:	jae    0x40381c
  4037bb:	add    BYTE PTR gs:[bx+0x72],dl
  4037c0:	imul   esi,DWORD PTR [ebp+eiz*2+0x4c],0x656e69
  4037c8:	dec    esi
  4037c9:	gs je  0x403843
  4037cc:	outs   dx,DWORD PTR ds:[esi]
  4037cd:	jb     0x40383a
  4037cf:	inc    ebp
  4037d0:	ins    DWORD PTR es:[edi],dx
  4037d1:	jne    0x40383f
  4037d3:	popa   
  4037d4:	je     0x40383f
  4037d6:	outs   dx,DWORD PTR ds:[esi]
  4037d7:	outs   dx,BYTE PTR ds:[esi]
  4037d8:	inc    ebx
  4037d9:	outs   dx,DWORD PTR ds:[esi]
  4037da:	outs   dx,BYTE PTR ds:[esi]
  4037db:	imul   sp,WORD PTR [edi+0x75],0x6172
  4037e1:	je     0x40384c
  4037e3:	outs   dx,DWORD PTR ds:[esi]
  4037e4:	outs   dx,BYTE PTR ds:[esi]
  4037e5:	push   ebp
  4037e6:	jo     0x40384c
  4037e8:	popa   
  4037e9:	je     0x403850
  4037eb:	push   eax
  4037ec:	popa   
  4037ed:	arpl   WORD PTR [ebx+0x0],bp
  4037f0:	ins    DWORD PTR es:[edi],dx
  4037f1:	pop    edi
  4037f2:	jne    0x403864
  4037f4:	fs popa 
  4037f6:	je     0x40385d
  4037f8:	push   eax
  4037f9:	popa   
  4037fa:	arpl   WORD PTR [ebx+0x0],bp
  4037fd:	inc    esp
  4037fe:	gs ins BYTE PTR es:[edi],dx
  403800:	gs addr16 popa 
  403803:	je     0x40386a
  403805:	push   ebx
  403806:	je     0x403869
  403808:	je     0x40387f
  40380a:	jae    0x403861
  40380c:	jo     0x403872
  40380e:	popa   
  40380f:	je     0x403876
  403811:	add    BYTE PTR [ecx+0x6e],cl
  403814:	imul   esi,DWORD PTR [ecx+ebp*2+0x61],0x657a696c
  40381c:	add    BYTE PTR [edx+0x75],dl
  40381f:	outs   dx,BYTE PTR ds:[esi]
  403820:	add    BYTE PTR [ebx+0x79],dl
  403823:	jae    0x403899
  403825:	gs ins DWORD PTR es:[edi],dx
  403827:	cs inc ebx
  403829:	outs   dx,DWORD PTR ds:[esi]
  40382a:	ins    BYTE PTR es:[edi],dx
  40382b:	ins    BYTE PTR es:[edi],dx
  40382c:	arpl   WORD PTR gs:[ecx+ebp*2+0x6f],si
  403831:	outs   dx,BYTE PTR ds:[esi]
  403832:	jae    0x403862
  403834:	inc    edi
  403835:	outs   dx,BYTE PTR gs:[esi]
  403837:	gs jb  0x4038a3
  40383a:	arpl   WORD PTR [eax],ax
  40383c:	dec    esp
  40383d:	imul   esi,DWORD PTR [ebx+0x74],0x4f003160
  403844:	jo     0x4038ba
  403846:	imul   ebp,DWORD PTR [edi+0x6e],0x44490073
  40384d:	add    BYTE PTR [edi+0x65],ah
  403850:	je     0x4038b1
  403852:	dec    edi
  403853:	jo     0x4038c9
  403855:	imul   ebp,DWORD PTR [edi+0x6e],0x7473694c
  40385c:	add    BYTE PTR [ebp+0x5f],ch
  40385f:	imul   ebp,DWORD PTR [esi+0x6e],0x6f437265
  403866:	ins    DWORD PTR es:[edi],dx
  403867:	ins    DWORD PTR es:[edi],dx
  403868:	popa   
  403869:	outs   dx,BYTE PTR ds:[esi]
  40386a:	add    BYTE PTR fs:[edi+0x70],cl
  40386e:	je     0x4038d9
  403870:	outs   dx,DWORD PTR ds:[esi]
  403871:	outs   dx,BYTE PTR ds:[esi]
  403872:	dec    esp
  403873:	imul   esi,DWORD PTR [ebx+0x74],0x69614d00
  40387a:	outs   dx,BYTE PTR ds:[esi]
  40387b:	add    BYTE PTR [edx+0x75],dl
  40387e:	outs   dx,BYTE PTR ds:[esi]
  40387f:	inc    ebx
  403880:	outs   dx,DWORD PTR ds:[esi]
  403881:	ins    DWORD PTR es:[edi],dx
  403882:	ins    DWORD PTR es:[edi],dx
  403883:	popa   
  403884:	outs   dx,BYTE PTR ds:[esi]
  403885:	add    BYTE PTR fs:[edi+0x65],ah
  403889:	je     0x4038ea
  40388b:	dec    ecx
  40388c:	outs   dx,BYTE PTR ds:[esi]
  40388d:	jae    0x403903
  40388f:	popa   
  403890:	outs   dx,BYTE PTR ds:[esi]
  403891:	arpl   WORD PTR [ebp+0x0],sp
  403894:	push   edi
  403895:	jb     0x403900
  403897:	je     0x4038fe
  403899:	inc    ebx
  40389a:	outs   dx,DWORD PTR ds:[esi]
  40389b:	jo     0x403916
  40389d:	push   edx
  40389e:	imul   esp,DWORD PTR [edi+0x68],0x6e690074
  4038a5:	jae    0x40391b
  4038a7:	popa   
  4038a8:	outs   dx,BYTE PTR ds:[esi]
  4038a9:	arpl   WORD PTR [ebp+0x0],sp
  4038ac:	dec    ecx
  4038ad:	outs   dx,BYTE PTR ds:[esi]
  4038ae:	jae    0x403924
  4038b0:	popa   
  4038b1:	outs   dx,BYTE PTR ds:[esi]
  4038b2:	arpl   WORD PTR [ebp+0x0],sp
  4038b5:	push   ebx
  4038b6:	jns    0x40392b
  4038b8:	je     0x40391f
  4038ba:	ins    DWORD PTR es:[edi],dx
  4038bb:	cs push edx
  4038bd:	gs jae 0x40392f
  4038c0:	jne    0x403934
  4038c2:	arpl   WORD PTR [ebp+0x73],sp
  4038c5:	add    BYTE PTR [edx+0x65],dl
  4038c8:	jae    0x403939
  4038ca:	jne    0x40393e
  4038cc:	arpl   WORD PTR [ebp+0x4d],sp
  4038cf:	popa   
  4038d0:	outs   dx,BYTE PTR ds:[esi]
  4038d1:	popa   
  4038d2:	addr16 gs jb 0x4038d6
  4038d6:	jb     0x40393d
  4038d8:	jae    0x403949
  4038da:	jne    0x40394e
  4038dc:	arpl   WORD PTR [ebp+0x4d],sp
  4038df:	popa   
  4038e0:	outs   dx,BYTE PTR ds:[esi]
  4038e1:	add    BYTE PTR [ebx+0x79],dl
  4038e4:	jae    0x40395a
  4038e6:	gs ins DWORD PTR es:[edi],dx
  4038e8:	cs inc edi
  4038ea:	ins    BYTE PTR es:[edi],dx
  4038eb:	outs   dx,DWORD PTR ds:[esi]
  4038ec:	bound  esp,QWORD PTR [ecx+0x6c]
  4038ef:	imul   edi,DWORD PTR [edx+0x61],0x6e6f6974
  4038f6:	add    BYTE PTR [ebx+0x75],al
  4038f9:	ins    BYTE PTR es:[edi],dx
  4038fa:	je     0x403971
  4038fc:	jb     0x403963
  4038fe:	dec    ecx
  4038ff:	outs   dx,BYTE PTR ds:[esi]
  403900:	outs   dx,WORD PTR ds:[esi]
  403902:	add    BYTE PTR [edx+0x65],dh
  403905:	jae    0x403976
  403907:	jne    0x40397b
  403909:	arpl   WORD PTR [ebp+0x43],sp
  40390c:	jne    0x40397a
  40390e:	je     0x403985
  403910:	jb     0x403977
  403912:	add    BYTE PTR [edi+0x65],ah
  403915:	je     0x403976
  403917:	push   edx
  403918:	gs jae 0x40398a
  40391b:	jne    0x40398f
  40391d:	arpl   WORD PTR [ebp+0x4d],sp
  403920:	popa   
  403921:	outs   dx,BYTE PTR ds:[esi]
  403922:	popa   
  403923:	addr16 gs jb 0x403927
  403927:	addr16 gs je 0x40398a
  40392b:	inc    ebx
  40392c:	jne    0x40399a
  40392e:	je     0x4039a5
  403930:	jb     0x403997
  403932:	add    BYTE PTR [ebx+0x65],dh
  403935:	je     0x403996
  403937:	inc    ebx
  403938:	jne    0x4039a6
  40393a:	je     0x4039b1
  40393c:	jb     0x4039a3
  40393e:	add    BYTE PTR [edi+0x65],ah
  403941:	je     0x4039a2
  403943:	inc    ebx
  403944:	outs   dx,DWORD PTR ds:[esi]
  403945:	jo     0x4039c0
  403947:	jb     0x4039b2
  403949:	addr16 push 0x73654d74
  40394f:	jae    0x4039b2
  403951:	add    BYTE PTR gs:[bx+0x65],ah
  403956:	je     0x4039b7
  403958:	inc    esp
  403959:	jb     0x4039c4
  40395b:	jbe    0x4039c2
  40395d:	jb     0x4039a8
  40395f:	outs   dx,BYTE PTR ds:[esi]
  403960:	jae    0x4039d6
  403962:	popa   
  403963:	ins    BYTE PTR es:[edi],dx
  403964:	ins    BYTE PTR es:[edi],dx
  403965:	gs add BYTE PTR fs:[edi+0x65],ah
  40396a:	je     0x4039cb
  40396c:	dec    eax
  40396d:	gs ins BYTE PTR es:[edi],dx
  40396f:	jo     0x4039b9
  403971:	gs ins BYTE PTR es:[edi],dx
  403973:	jo     0x403975
  403975:	addr16 gs je 0x4039d8
  403979:	dec    eax
  40397a:	gs ins BYTE PTR es:[edi],dx
  40397c:	jo     0x4039cc
  40397e:	gs je  0x4039f8
  403981:	outs   dx,DWORD PTR ds:[esi]
  403982:	jb     0x4039ef
  403984:	inc    ebp
  403985:	ins    DWORD PTR es:[edi],dx
  403986:	jne    0x4039f4
  403988:	popa   
  403989:	je     0x4039f4
  40398b:	outs   dx,DWORD PTR ds:[esi]
  40398c:	outs   dx,BYTE PTR ds:[esi]
  40398d:	add    BYTE PTR [edi+0x65],ah
  403990:	je     0x4039f1
  403992:	ins    DWORD PTR es:[edi],dx
  403993:	jae    0x4039fc
  403995:	dec    edi
  403996:	jo     0x403a0c
  403998:	imul   ebp,DWORD PTR [edi+0x6e],0x65670031
  40399f:	je     0x403a00
  4039a1:	ins    DWORD PTR es:[edi],dx
  4039a2:	jae    0x403a0b
  4039a4:	dec    edi
  4039a5:	jo     0x403a1b
  4039a7:	imul   ebp,DWORD PTR [edi+0x6e],0x65670032
  4039ae:	je     0x403a0f
  4039b0:	ins    DWORD PTR es:[edi],dx
  4039b1:	jae    0x403a1a
  4039b3:	push   ebp
  4039b4:	jae    0x403a17
  4039b6:	add    BYTE PTR gs:[bx+0x65],ah
  4039bb:	je     0x403a1c
  4039bd:	dec    esi
  4039be:	outs   dx,DWORD PTR ds:[esi]
  4039bf:	inc    edx
  4039c0:	outs   dx,DWORD PTR ds:[esi]
  4039c1:	jne    0x403a31
  4039c3:	fs dec esi
  4039c5:	dec    ecx
  4039c6:	inc    ebx
  4039c7:	jae    0x4039c9
  4039c9:	addr16 gs je 0x403a2c
  4039cd:	push   ebp
  4039ce:	outs   dx,BYTE PTR ds:[esi]
  4039cf:	jb     0x403a36
  4039d1:	arpl   WORD PTR [edi+0x67],bp
  4039d4:	outs   dx,BYTE PTR ds:[esi]
  4039d5:	imul   edi,DWORD PTR [edx+0x65],0x6d6f4364
  4039dc:	ins    DWORD PTR es:[edi],dx
  4039dd:	popa   
  4039de:	outs   dx,BYTE PTR ds:[esi]
  4039df:	fs inc ebp
  4039e1:	js     0x403a46
  4039e3:	gs jo  0x403a5a
  4039e6:	imul   ebp,DWORD PTR [edi+0x6e],0x74656700
  4039ed:	pop    edi
  4039ee:	push   ebp
  4039ef:	outs   dx,BYTE PTR ds:[esi]
  4039f0:	jb     0x403a57
  4039f2:	arpl   WORD PTR [edi+0x67],bp
  4039f5:	outs   dx,BYTE PTR ds:[esi]
  4039f6:	imul   edi,DWORD PTR [edx+0x65],0x74704f64
  4039fd:	imul   ebp,DWORD PTR [edi+0x6e],0x6c754300
  403a04:	je     0x403a7b
  403a06:	jb     0x403a6d
  403a08:	add    BYTE PTR [ebx+0x6f],al
  403a0b:	jo     0x403a86
  403a0d:	jb     0x403a78
  403a0f:	addr16 push 0x73654d74
  403a15:	jae    0x403a78
  403a17:	add    BYTE PTR gs:[si+0x72],al
  403a1c:	imul   esi,DWORD PTR [esi+0x65],0x736e4972
  403a23:	je     0x403a86
  403a25:	ins    BYTE PTR es:[edi],dx
  403a26:	ins    BYTE PTR es:[edi],dx
  403a27:	gs add BYTE PTR fs:[eax+0x65],cl
  403a2c:	ins    BYTE PTR es:[edi],dx
  403a2d:	jo     0x403a77
  403a2f:	gs ins BYTE PTR es:[edi],dx
  403a31:	jo     0x403a33
  403a33:	dec    eax
  403a34:	gs ins BYTE PTR es:[edi],dx
  403a36:	jo     0x403a86
  403a38:	gs je  0x403ab2
  403a3b:	outs   dx,DWORD PTR ds:[esi]
  403a3c:	jb     0x403aa9
  403a3e:	inc    ebp
  403a3f:	ins    DWORD PTR es:[edi],dx
  403a40:	jne    0x403aae
  403a42:	popa   
  403a43:	je     0x403aae
  403a45:	outs   dx,DWORD PTR ds:[esi]
  403a46:	outs   dx,BYTE PTR ds:[esi]
  403a47:	add    BYTE PTR [ebp+0x73],ch
  403a4a:	addr16 dec edi
  403a4c:	jo     0x403ac2
  403a4e:	imul   ebp,DWORD PTR [edi+0x6e],0x736d0031
  403a55:	addr16 dec edi
  403a57:	jo     0x403acd
  403a59:	imul   ebp,DWORD PTR [edi+0x6e],0x736d0032
  403a60:	addr16 push ebp
  403a62:	jae    0x403ac5
  403a64:	add    BYTE PTR gs:[bp+0x6f],cl
  403a69:	inc    edx
  403a6a:	outs   dx,DWORD PTR ds:[esi]
  403a6b:	jne    0x403adb
  403a6d:	fs dec esi
  403a6f:	dec    ecx
  403a70:	inc    ebx
  403a71:	jae    0x403a73
  403a73:	push   ebp
  403a74:	outs   dx,BYTE PTR ds:[esi]
  403a75:	jb     0x403adc
  403a77:	arpl   WORD PTR [edi+0x67],bp
  403a7a:	outs   dx,BYTE PTR ds:[esi]
  403a7b:	imul   edi,DWORD PTR [edx+0x65],0x6d6f4364
  403a82:	ins    DWORD PTR es:[edi],dx
  403a83:	popa   
  403a84:	outs   dx,BYTE PTR ds:[esi]
  403a85:	fs inc ebp
  403a87:	js     0x403aec
  403a89:	gs jo  0x403b00
  403a8c:	imul   ebp,DWORD PTR [edi+0x6e],0x726e5500
  403a93:	arpl   WORD PTR gs:[edi+0x67],bp
  403a97:	outs   dx,BYTE PTR ds:[esi]
  403a98:	imul   edi,DWORD PTR [edx+0x65],0x74704f64
  403a9f:	imul   ebp,DWORD PTR [edi+0x6e],0x6d6f6300
  403aa6:	ins    DWORD PTR es:[edi],dx
  403aa7:	popa   
  403aa8:	outs   dx,BYTE PTR ds:[esi]
  403aa9:	fs dec esi
  403aab:	popa   
  403aac:	ins    DWORD PTR es:[edi],dx
  403aad:	add    BYTE PTR gs:[ecx+0x72],ah
  403ab1:	addr16 jae 0x403ab4
  403ab4:	ins    DWORD PTR es:[edi],dx
  403ab5:	gs jae 0x403b2b
  403ab8:	popa   
  403ab9:	add    BYTE PTR gs:[bp+di+0x74],dh
  403abe:	popa   
  403abf:	je     0x403b36
  403ac1:	jae    0x403b0f
  403ac3:	imul   esi,DWORD PTR [ebx+0x74],0x72656e65
  403aca:	add    BYTE PTR [esi+0x61],dh
  403acd:	ins    BYTE PTR es:[edi],dx
  403ace:	jne    0x403b35
  403ad0:	add    BYTE PTR [ebx+0x79],dl
  403ad3:	jae    0x403b49
  403ad5:	gs ins DWORD PTR es:[edi],dx
  403ad7:	cs push edx
  403ad9:	jne    0x403b49
  403adb:	je     0x403b46
  403add:	ins    DWORD PTR es:[edi],dx
  403ade:	gs cs push esi
  403ae1:	gs jb  0x403b57
  403ae4:	imul   ebp,DWORD PTR [edi+0x6e],0x676e69
  403aeb:	push   esp
  403aec:	popa   
  403aed:	jb     0x403b56
  403aef:	gs je  0x403b38
  403af2:	jb     0x403b55
  403af4:	ins    DWORD PTR es:[edi],dx
  403af5:	gs ja  0x403b67
  403af8:	jb     0x403b65
  403afa:	inc    ecx
  403afb:	je     0x403b71
  403afd:	jb     0x403b68
  403aff:	bound  esi,QWORD PTR [ebp+0x74]
  403b02:	add    BYTE PTR gs:[ebx+0x79],dl
  403b06:	jae    0x403b7c
  403b08:	gs ins DWORD PTR es:[edi],dx
  403b0a:	cs push edx
  403b0c:	jne    0x403b7c
  403b0e:	je     0x403b79
  403b10:	ins    DWORD PTR es:[edi],dx
  403b11:	gs cs dec ecx
  403b14:	outs   dx,BYTE PTR ds:[esi]
  403b15:	je     0x403b7c
  403b17:	jb     0x403b88
  403b19:	jo     0x403b6e
  403b1b:	gs jb  0x403b94
  403b1e:	imul   esp,DWORD PTR [ebx+0x65],0x6f430073
  403b25:	ins    DWORD PTR es:[edi],dx
  403b26:	push   esi
  403b27:	imul   esi,DWORD PTR [ebx+0x69],0x41656c62
  403b2e:	je     0x403ba4
  403b30:	jb     0x403b9b
  403b32:	bound  esi,QWORD PTR [ebp+0x74]
  403b35:	add    BYTE PTR gs:[ebx+0x4c],al
  403b39:	push   ebx
  403b3a:	inc    ebx
  403b3b:	outs   dx,DWORD PTR ds:[esi]
  403b3c:	ins    DWORD PTR es:[edi],dx
  403b3d:	jo     0x403bab
  403b3f:	imul   esp,DWORD PTR [ecx+0x6e],0x74744174
  403b46:	jb     0x403bb1
  403b48:	bound  esi,QWORD PTR [ebp+0x74]
  403b4b:	add    BYTE PTR gs:[ebx+0x79],dl
  403b4f:	jae    0x403bc5
  403b51:	gs ins DWORD PTR es:[edi],dx
  403b53:	cs push edx
  403b55:	gs data16 ins BYTE PTR es:[edi],dx
  403b58:	arpl   WORD PTR gs:[ecx+ebp*2+0x6f],si
  403b5d:	outs   dx,BYTE PTR ds:[esi]
  403b5e:	add    BYTE PTR [ecx+0x73],al
  403b61:	jae    0x403bc8
  403b63:	ins    DWORD PTR es:[edi],dx
  403b64:	bound  ebp,QWORD PTR [ecx+edi*2+0x54]
  403b68:	imul   esi,DWORD PTR [esp+ebp*2+0x65],0x72747441
  403b70:	imul   esp,DWORD PTR [edx+0x75],0x41006574
  403b77:	jae    0x403bec
  403b79:	gs ins DWORD PTR es:[edi],dx
  403b7b:	bound  ebp,QWORD PTR [ecx+edi*2+0x44]
  403b7f:	gs jae 0x403be5
  403b82:	jb     0x403bed
  403b84:	jo     0x403bfa
  403b86:	imul   ebp,DWORD PTR [edi+0x6e],0x72747441
  403b8d:	imul   esp,DWORD PTR [edx+0x75],0x41006574
  403b94:	jae    0x403c09
  403b96:	gs ins DWORD PTR es:[edi],dx
  403b98:	bound  ebp,QWORD PTR [ecx+edi*2+0x44]
  403b9c:	gs popaw 
  403b9f:	jne    0x403c0d
  403ba1:	je     0x403be4
  403ba3:	ins    BYTE PTR es:[edi],dx
  403ba4:	imul   esp,DWORD PTR [ecx+0x73],0x72747441
  403bab:	imul   esp,DWORD PTR [edx+0x75],0x41006574
  403bb2:	jae    0x403c27
  403bb4:	gs ins DWORD PTR es:[edi],dx
  403bb6:	bound  ebp,QWORD PTR [ecx+edi*2+0x43]
  403bba:	outs   dx,DWORD PTR ds:[esi]
  403bbb:	ins    DWORD PTR es:[edi],dx
  403bbc:	jo     0x403c1f
  403bbe:	outs   dx,BYTE PTR ds:[esi]
  403bbf:	jns    0x403c02
  403bc1:	je     0x403c37
  403bc3:	jb     0x403c2e
  403bc5:	bound  esi,QWORD PTR [ebp+0x74]
  403bc8:	add    BYTE PTR gs:[ecx+0x73],al
  403bcc:	jae    0x403c33
  403bce:	ins    DWORD PTR es:[edi],dx
  403bcf:	bound  ebp,QWORD PTR [ecx+edi*2+0x50]
  403bd3:	jb     0x403c44
  403bd5:	fs jne 0x403c3b
  403bd8:	je     0x403c1b
  403bda:	je     0x403c50
  403bdc:	jb     0x403c47
  403bde:	bound  esi,QWORD PTR [ebp+0x74]
  403be1:	add    BYTE PTR gs:[ecx+0x73],al
  403be5:	jae    0x403c4c
  403be7:	ins    DWORD PTR es:[edi],dx
  403be8:	bound  ebp,QWORD PTR [ecx+edi*2+0x43]
  403bec:	outs   dx,DWORD PTR ds:[esi]
  403bed:	jo     0x403c68
  403bef:	jb     0x403c5a
  403bf1:	addr16 push 0x74744174
  403bf7:	jb     0x403c62
  403bf9:	bound  esi,QWORD PTR [ebp+0x74]
  403bfc:	add    BYTE PTR gs:[ecx+0x73],al
  403c00:	jae    0x403c67
  403c02:	ins    DWORD PTR es:[edi],dx
  403c03:	bound  ebp,QWORD PTR [ecx+edi*2+0x56]
  403c07:	gs jb  0x403c7d
  403c0a:	imul   ebp,DWORD PTR [edi+0x6e],0x72747441
  403c11:	imul   esp,DWORD PTR [edx+0x75],0x41006574
  403c18:	jae    0x403c8d
  403c1a:	gs ins DWORD PTR es:[edi],dx
  403c1c:	bound  ebp,QWORD PTR [ecx+edi*2+0x46]
  403c20:	imul   ebp,DWORD PTR [ebp+eiz*2+0x56],0x69737265
  403c28:	outs   dx,DWORD PTR ds:[esi]
  403c29:	outs   dx,BYTE PTR ds:[esi]
  403c2a:	inc    ecx
  403c2b:	je     0x403ca1
  403c2d:	jb     0x403c98
  403c2f:	bound  esi,QWORD PTR [ebp+0x74]
  403c32:	add    BYTE PTR gs:[ecx+0x73],al
  403c36:	jae    0x403c9d
  403c38:	ins    DWORD PTR es:[edi],dx
  403c39:	bound  ebp,QWORD PTR [ecx+edi*2+0x49]
  403c3d:	outs   dx,BYTE PTR ds:[esi]
  403c3e:	outs   dx,WORD PTR ds:[esi]
  403c40:	jb     0x403caf
  403c42:	popa   
  403c43:	je     0x403cae
  403c45:	outs   dx,DWORD PTR ds:[esi]
  403c46:	outs   dx,BYTE PTR ds:[esi]
  403c47:	popa   
  403c48:	ins    BYTE PTR es:[edi],dx
  403c49:	push   esi
  403c4a:	gs jb  0x403cc0
  403c4d:	imul   ebp,DWORD PTR [edi+0x6e],0x72747441
  403c54:	imul   esp,DWORD PTR [edx+0x75],0x53006574
  403c5b:	popa   
  403c5c:	je     0x403cc3
  403c5e:	ins    BYTE PTR es:[edi],dx
  403c5f:	ins    BYTE PTR es:[edi],dx
  403c60:	imul   esi,DWORD PTR [ebp+eiz*2+0x43],0x72746e6f
  403c68:	popa   
  403c69:	arpl   WORD PTR [esi+edx*2+0x65],si
  403c6d:	jb     0x403ce2
  403c6f:	imul   ebp,DWORD PTR [edi+0x6e],0x72747441
  403c76:	imul   esp,DWORD PTR [edx+0x75],0x4e006574
  403c7d:	gs jne 0x403cf4
  403c80:	jb     0x403ce3
  403c82:	ins    BYTE PTR es:[edi],dx
  403c83:	push   edx
  403c84:	gs jae 0x403cf6
  403c87:	jne    0x403cfb
  403c89:	arpl   WORD PTR [ebp+0x73],sp
  403c8c:	dec    esp
  403c8d:	popa   
  403c8e:	outs   dx,BYTE PTR ds:[esi]
  403c8f:	addr16 jne 0x403cf3
  403c92:	addr16 gs inc ecx
  403c95:	je     0x403d0b
  403c97:	jb     0x403d02
  403c99:	bound  esi,QWORD PTR [ebp+0x74]
  403c9c:	add    BYTE PTR gs:[ecx+0x73],al
  403ca0:	jae    0x403d07
  403ca2:	ins    DWORD PTR es:[edi],dx
  403ca3:	bound  ebp,QWORD PTR [ecx+edi*2+0x44]
  403ca7:	gs ins BYTE PTR es:[edi],dx
  403ca9:	popa   
  403caa:	jns    0x403cff
  403cac:	imul   esp,DWORD PTR [edi+0x6e],0x72747441
  403cb3:	imul   esp,DWORD PTR [edx+0x75],0x41006574
  403cba:	jae    0x403d2f
  403cbc:	gs ins DWORD PTR es:[edi],dx
  403cbe:	bound  ebp,QWORD PTR [ecx+edi*2+0x4b]
  403cc2:	gs jns 0x403d0b
  403cc5:	imul   ebp,DWORD PTR [ebp+eiz*2+0x41],0x69727474
  403ccd:	bound  esi,QWORD PTR [ebp+0x74]
  403cd0:	add    BYTE PTR gs:[ebx+0x79],dl
  403cd4:	jae    0x403d4a
  403cd6:	gs ins DWORD PTR es:[edi],dx
  403cd8:	cs push edx
  403cda:	jne    0x403d4a
  403cdc:	je     0x403d47
  403cde:	ins    DWORD PTR es:[edi],dx
  403cdf:	gs cs inc ebx
  403ce2:	outs   dx,DWORD PTR ds:[esi]
  403ce3:	ins    DWORD PTR es:[edi],dx
  403ce4:	jo     0x403d4f
  403ce6:	ins    BYTE PTR es:[edi],dx
  403ce7:	gs jb  0x403d3d
  403cea:	gs jb  0x403d63
  403ced:	imul   esp,DWORD PTR [ebx+0x65],0x75520073
  403cf4:	outs   dx,BYTE PTR ds:[esi]
  403cf5:	je     0x403d60
  403cf7:	ins    DWORD PTR es:[edi],dx
  403cf8:	gs inc ebx
  403cfa:	outs   dx,DWORD PTR ds:[esi]
  403cfb:	ins    DWORD PTR es:[edi],dx
  403cfc:	jo     0x403d5f
  403cfe:	je     0x403d69
  403d00:	bound  ebp,QWORD PTR [ecx+0x6c]
  403d03:	imul   esi,DWORD PTR [ecx+edi*2+0x41],0x69727474
  403d0b:	bound  esi,QWORD PTR [ebp+0x74]
  403d0e:	add    BYTE PTR gs:[ebx+0x79],dl
  403d12:	jae    0x403d88
  403d14:	gs ins DWORD PTR es:[edi],dx
  403d16:	cs inc esp
  403d18:	imul   esp,DWORD PTR [ecx+0x67],0x74736f6e
  403d1f:	imul   esp,DWORD PTR [ebx+0x73],0x62654400
  403d26:	jne    0x403d8f
  403d28:	addr16 popa 
  403d2a:	bound  ebp,QWORD PTR [ebp+eiz*2+0x41]
  403d2e:	je     0x403da4
  403d30:	jb     0x403d9b
  403d32:	bound  esi,QWORD PTR [ebp+0x74]
  403d35:	add    BYTE PTR gs:[ebp+eiz*2+0x62],al
  403d3a:	jne    0x403da3
  403d3c:	imul   ebp,DWORD PTR [bp+0x67],0x65646f4d
  403d44:	jae    0x403d46
  403d46:	inc    ebx
  403d47:	outs   dx,DWORD PTR ds:[esi]
  403d48:	ins    DWORD PTR es:[edi],dx
  403d49:	jo     0x403db4
  403d4b:	ins    BYTE PTR es:[edi],dx
  403d4c:	popa   
  403d4d:	je     0x403db8
  403d4f:	outs   dx,DWORD PTR ds:[esi]
  403d50:	outs   dx,BYTE PTR ds:[esi]
  403d51:	push   edx
  403d52:	gs ins BYTE PTR es:[edi],dx
  403d54:	popa   
  403d55:	js     0x403db8
  403d57:	je     0x403dc2
  403d59:	outs   dx,DWORD PTR ds:[esi]
  403d5a:	outs   dx,BYTE PTR ds:[esi]
  403d5b:	jae    0x403d9e
  403d5d:	je     0x403dd3
  403d5f:	jb     0x403dca
  403d61:	bound  esi,QWORD PTR [ebp+0x74]
  403d64:	add    BYTE PTR gs:[esi+0x53],dl
  403d68:	push   esp
  403d69:	gs jae 0x403de0
  403d6c:	inc    ebx
  403d6d:	outs   dx,DWORD PTR ds:[esi]
  403d6e:	outs   dx,BYTE PTR ds:[esi]
  403d6f:	imul   sp,WORD PTR [edi+0x0],0x7453
  403d75:	jb     0x403de0
  403d77:	outs   dx,BYTE PTR ds:[esi]
  403d78:	add    BYTE PTR [bx+di+0x73],cl
  403d7c:	dec    esi
  403d7d:	jne    0x403deb
  403d7f:	ins    BYTE PTR es:[edi],dx
  403d80:	dec    edi
  403d81:	jb     0x403dc8
  403d83:	ins    DWORD PTR es:[edi],dx
  403d84:	jo     0x403dfa
  403d86:	jns    0x403d88
  403d88:	inc    ecx
  403d89:	jae    0x403dfe
  403d8b:	gs ins DWORD PTR es:[edi],dx
  403d8d:	bound  ebp,QWORD PTR [ecx+edi*2+0x0]
  403d91:	inc    edi
  403d92:	gs je  0x403dda
  403d95:	js     0x403dfc
  403d97:	arpl   WORD PTR [ebp+0x74],si
  403d9a:	imul   ebp,DWORD PTR [esi+0x67],0x65737341
  403da1:	ins    DWORD PTR es:[edi],dx
  403da2:	bound  ebp,QWORD PTR [ecx+edi*2+0x0]
  403da6:	push   esp
  403da7:	jns    0x403e19
  403da9:	add    BYTE PTR gs:[edi+0x65],al
  403dad:	je     0x403e03
  403daf:	jns    0x403e21
  403db1:	gs jae 0x403db4
  403db4:	dec    esi
  403db5:	popa   
  403db6:	ins    DWORD PTR es:[edi],dx
  403db7:	gs inc ecx
  403db9:	je     0x403e2f
  403dbb:	jb     0x403e26
  403dbd:	bound  esi,QWORD PTR [ebp+0x74]
  403dc0:	add    BYTE PTR gs:[edx+0x75],dl
  403dc4:	outs   dx,BYTE PTR ds:[esi]
  403dc5:	je     0x403e30
  403dc7:	ins    DWORD PTR es:[edi],dx
  403dc8:	gs push esp
  403dca:	jns    0x403e3c
  403dcc:	gs dec eax
  403dce:	popa   
  403dcf:	outs   dx,BYTE PTR ds:[esi]
  403dd0:	fs ins BYTE PTR es:[edi],dx
  403dd2:	add    BYTE PTR gs:[edi+0x65],al
  403dd6:	je     0x403e2c
  403dd8:	jns    0x403e4a
  403dda:	gs inc esi
  403ddc:	jb     0x403e4d
  403dde:	ins    DWORD PTR es:[edi],dx
  403ddf:	dec    eax
  403de0:	popa   
  403de1:	outs   dx,BYTE PTR ds:[esi]
  403de2:	fs ins BYTE PTR es:[edi],dx
  403de4:	add    BYTE PTR gs:[ecx+0x74],al
  403de8:	je     0x403e5c
  403dea:	imul   esp,DWORD PTR [edx+0x75],0x4d006574
  403df1:	gs ins DWORD PTR es:[edi],dx
  403df3:	bound  esp,QWORD PTR [ebp+0x72]
  403df6:	dec    ecx
  403df7:	outs   dx,BYTE PTR ds:[esi]
  403df8:	outs   dx,WORD PTR ds:[esi]
  403dfa:	add    BYTE PTR [edi+0x65],al
  403dfd:	je     0x403e42
  403dff:	jne    0x403e74
  403e01:	je     0x403e72
  403e03:	ins    DWORD PTR es:[edi],dx
  403e04:	inc    ecx
  403e05:	je     0x403e7b
  403e07:	jb     0x403e72
  403e09:	bound  esi,QWORD PTR [ebp+0x74]
  403e0c:	add    BYTE PTR gs:[edi+0x65],ah
  403e10:	je     0x403e71
  403e12:	inc    ebx
  403e13:	outs   dx,DWORD PTR ds:[esi]
  403e14:	ins    DWORD PTR es:[edi],dx
  403e15:	ins    DWORD PTR es:[edi],dx
  403e16:	popa   
  403e17:	outs   dx,BYTE PTR ds:[esi]
  403e18:	fs dec esi
  403e1a:	popa   
  403e1b:	ins    DWORD PTR es:[edi],dx
  403e1c:	add    BYTE PTR gs:[ebx+0x74],dl
  403e20:	jb     0x403e8b
  403e22:	outs   dx,BYTE PTR ds:[esi]
  403e23:	addr16 inc ebx
  403e25:	outs   dx,DWORD PTR ds:[esi]
  403e26:	ins    DWORD PTR es:[edi],dx
  403e27:	jo     0x403e8a
  403e29:	jb     0x403e94
  403e2b:	jae    0x403e9c
  403e2d:	outs   dx,BYTE PTR ds:[esi]
  403e2e:	add    BYTE PTR [ebp+0x71],al
  403e31:	jne    0x403e94
  403e33:	ins    BYTE PTR es:[edi],dx
  403e34:	jae    0x403e36
  403e36:	addr16 gs je 0x403e99
  403e3a:	inc    esi
  403e3b:	jne    0x403ea9
  403e3d:	ins    BYTE PTR es:[edi],dx
  403e3e:	dec    esi
  403e3f:	popa   
  403e40:	ins    DWORD PTR es:[edi],dx
  403e41:	add    BYTE PTR gs:[ebx+0x72],al
  403e45:	gs popa 
  403e47:	je     0x403eae
  403e49:	dec    ecx
  403e4a:	outs   dx,BYTE PTR ds:[esi]
  403e4b:	jae    0x403ec1
  403e4d:	popa   
  403e4e:	outs   dx,BYTE PTR ds:[esi]
  403e4f:	arpl   WORD PTR [ebp+0x0],sp
  403e52:	addr16 gs je 0x403eb5
  403e56:	inc    ebx
  403e57:	jne    0x403ecb
  403e59:	jb     0x403ec0
  403e5b:	outs   dx,BYTE PTR ds:[esi]
  403e5c:	je     0x403ea1
  403e5e:	jne    0x403ecc
  403e60:	je     0x403ed7
  403e62:	jb     0x403ec9
  403e64:	add    BYTE PTR [ecx+0x46],cl
  403e67:	outs   dx,DWORD PTR ds:[esi]
  403e68:	jb     0x403ed7
  403e6a:	popa   
  403e6b:	je     0x403ebd
  403e6d:	jb     0x403ede
  403e6f:	jbe    0x403eda
  403e71:	fs gs jb 0x403e75
  403e75:	inc    esi
  403e76:	outs   dx,DWORD PTR ds:[esi]
  403e77:	jb     0x403ee6
  403e79:	popa   
  403e7a:	je     0x403e7c
  403e7c:	dec    ecx
  403e7d:	inc    ebp
  403e7e:	outs   dx,BYTE PTR ds:[esi]
  403e7f:	jne    0x403eee
  403e81:	gs jb  0x403ee5
  403e84:	bound  ebp,QWORD PTR [ebp+eiz*2+0x60]
  403e88:	xor    DWORD PTR [eax],eax
  403e8a:	inc    ecx
  403e8b:	fs fs push edx
  403e8e:	popa   
  403e8f:	outs   dx,BYTE PTR ds:[esi]
  403e90:	add    BYTE PTR gs:[bx+di+0x72],al
  403e95:	addr16 jne 0x403f05
  403e98:	outs   dx,BYTE PTR gs:[esi]
  403e9a:	je     0x403f0f
  403e9c:	add    BYTE PTR [edi+0x65],ah
  403e9f:	je     0x403f00
  403ea1:	inc    ecx
  403ea2:	jb     0x403f0b
  403ea4:	jne    0x403f13
  403ea6:	outs   dx,BYTE PTR gs:[esi]
  403ea8:	je     0x403f1d
  403eaa:	add    BYTE PTR [ebx+0x6f],al
  403ead:	outs   dx,BYTE PTR ds:[esi]
  403eae:	je     0x403f11
  403eb0:	imul   ebp,DWORD PTR [esi+0x73],0x74657300
  403eb7:	pop    edi
  403eb8:	dec    ecx
  403eb9:	outs   dx,BYTE PTR ds:[esi]
  403eba:	jae    0x403f30
  403ebc:	popa   
  403ebd:	ins    BYTE PTR es:[edi],dx
  403ebe:	ins    BYTE PTR es:[edi],dx
  403ebf:	inc    esp
  403ec0:	jb     0x403f2b
  403ec2:	jbe    0x403f29
  403ec4:	jb     0x403ec6
  403ec6:	jae    0x403f2d
  403ec8:	je     0x403f29
  403eca:	push   ebp
  403ecb:	outs   dx,BYTE PTR ds:[esi]
  403ecc:	imul   ebp,DWORD PTR [esi+0x73],0x6c6c6174
  403ed3:	inc    esp
  403ed4:	jb     0x403f3f
  403ed6:	jbe    0x403f3d
  403ed8:	jb     0x403eda
  403eda:	jae    0x403f41
  403edc:	je     0x403f3d
  403ede:	inc    ebx
  403edf:	push   0x656b6365
  403ee4:	fs push ebp
  403ee6:	outs   dx,BYTE PTR ds:[esi]
  403ee7:	imul   ebp,DWORD PTR [esi+0x73],0x6c6c6174
  403eee:	inc    esp
  403eef:	jb     0x403f5a
  403ef1:	jbe    0x403f58
  403ef3:	jb     0x403ef5
  403ef5:	jae    0x403f5c
  403ef7:	je     0x403f58
  403ef9:	push   edx
  403efa:	gs jo  0x403f5e
  403efd:	imul   esi,DWORD PTR [edx+0x44],0x65766972
  403f04:	jb     0x403f06
  403f06:	jae    0x403f6d
  403f08:	je     0x403f69
  403f0a:	inc    esp
  403f0b:	imul   esi,DWORD PTR [ebx+0x70],0x5379616c
  403f12:	je     0x403f75
  403f14:	je     0x403f8b
  403f16:	jae    0x403f18
  403f18:	dec    esi
  403f19:	gs je  0x403f93
  403f1c:	outs   dx,DWORD PTR ds:[esi]
  403f1d:	jb     0x403f8a
  403f1f:	inc    ebp
  403f20:	ins    DWORD PTR es:[edi],dx
  403f21:	jne    0x403f8f
  403f23:	popa   
  403f24:	je     0x403f8f
  403f26:	outs   dx,DWORD PTR ds:[esi]
  403f27:	outs   dx,BYTE PTR ds:[esi]
  403f28:	inc    ebx
  403f29:	outs   dx,DWORD PTR ds:[esi]
  403f2a:	outs   dx,BYTE PTR ds:[esi]
  403f2b:	imul   sp,WORD PTR [edi+0x75],0x6172
  403f31:	je     0x403f9c
  403f33:	outs   dx,DWORD PTR ds:[esi]
  403f34:	outs   dx,BYTE PTR ds:[esi]
  403f35:	add    BYTE PTR [edi+0x65],ah
  403f38:	je     0x403f99
  403f3a:	dec    ecx
  403f3b:	outs   dx,BYTE PTR ds:[esi]
  403f3c:	jae    0x403fb2
  403f3e:	popa   
  403f3f:	ins    BYTE PTR es:[edi],dx
  403f40:	ins    BYTE PTR es:[edi],dx
  403f41:	inc    esp
  403f42:	jb     0x403fad
  403f44:	jbe    0x403fab
  403f46:	jb     0x403f48
  403f48:	addr16 gs je 0x403fab
  403f4c:	push   ebp
  403f4d:	outs   dx,BYTE PTR ds:[esi]
  403f4e:	imul   ebp,DWORD PTR [esi+0x73],0x6c6c6174
  403f55:	inc    esp
  403f56:	jb     0x403fc1
  403f58:	jbe    0x403fbf
  403f5a:	jb     0x403f5c
  403f5c:	addr16 gs je 0x403fbf
  403f60:	push   edx
  403f61:	gs jo  0x403fc5
  403f64:	imul   esi,DWORD PTR [edx+0x44],0x65766972
  403f6b:	jb     0x403f6d
  403f6d:	addr16 gs je 0x403fd0
  403f71:	inc    ebx
  403f72:	push   0x656b6365
  403f77:	fs push ebp
  403f79:	outs   dx,BYTE PTR ds:[esi]
  403f7a:	imul   ebp,DWORD PTR [esi+0x73],0x6c6c6174
  403f81:	inc    esp
  403f82:	jb     0x403fed
  403f84:	jbe    0x403feb
  403f86:	jb     0x403f88
  403f88:	arpl   WORD PTR [edi+0x6d],bp
  403f8b:	ins    DWORD PTR es:[edi],dx
  403f8c:	popa   
  403f8d:	outs   dx,BYTE PTR ds:[esi]
  403f8e:	fs push ebx
  403f90:	je     0x403ff3
  403f92:	je     0x404009
  403f94:	jae    0x403fe2
  403f96:	imul   esi,DWORD PTR [ebx+0x74],0x72656e65
  403f9d:	add    BYTE PTR [ebx+0x6f],al
  403fa0:	outs   dx,BYTE PTR ds:[esi]
  403fa1:	imul   sp,WORD PTR [edi+0x75],0x6572
  403fa7:	add    BYTE PTR [edi+0x65],ah
  403faa:	je     0x40400b
  403fac:	inc    esp
  403fad:	imul   esi,DWORD PTR [ebx+0x70],0x5379616c
  403fb4:	je     0x404017
  403fb6:	je     0x40402d
  403fb8:	jae    0x403fba
  403fba:	dec    esi
  403fbb:	gs je  0x404035
  403fbe:	outs   dx,DWORD PTR ds:[esi]
  403fbf:	jb     0x40402c
  403fc1:	inc    ebp
  403fc2:	ins    DWORD PTR es:[edi],dx
  403fc3:	jne    0x404031
  403fc5:	popa   
  403fc6:	je     0x404031
  403fc8:	outs   dx,DWORD PTR ds:[esi]
  403fc9:	outs   dx,BYTE PTR ds:[esi]
  403fca:	inc    ebx
  403fcb:	outs   dx,DWORD PTR ds:[esi]
  403fcc:	outs   dx,BYTE PTR ds:[esi]
  403fcd:	imul   sp,WORD PTR [edi+0x75],0x6172
  403fd3:	je     0x40403e
  403fd5:	outs   dx,DWORD PTR ds:[esi]
  403fd6:	outs   dx,BYTE PTR ds:[esi]
  403fd7:	inc    esp
  403fd8:	imul   esi,DWORD PTR [ebx+0x70],0x5079616c
  403fdf:	popa   
  403fe0:	arpl   WORD PTR [ebx+0x65],bp
  403fe3:	je     0x403fe5
  403fe5:	inc    edi
  403fe6:	gs je  0x40402c
  403fe9:	outs   dx,DWORD PTR ds:[esi]
  403fea:	outs   dx,BYTE PTR ds:[esi]
  403feb:	imul   sp,WORD PTR [edi+0x75],0x6172
  403ff1:	je     0x40405c
  403ff3:	outs   dx,DWORD PTR ds:[esi]
  403ff4:	outs   dx,BYTE PTR ds:[esi]
  403ff5:	jae    0x403ff7
  403ff7:	inc    ebp
  403ff8:	ins    DWORD PTR es:[edi],dx
  403ff9:	jo     0x40406f
  403ffb:	jns    0x403ffd
  403ffd:	inc    edx
  403ffe:	outs   dx,DWORD PTR ds:[esi]
  403fff:	outs   dx,DWORD PTR ds:[esi]
  404000:	ins    BYTE PTR es:[edi],dx
  404001:	gs popa 
  404003:	outs   dx,BYTE PTR ds:[esi]
  404004:	add    BYTE PTR [edi+ebp*2+0x53],dl
  404008:	je     0x40407c
  40400a:	imul   ebp,DWORD PTR [esi+0x67],0x6f434900
  404011:	ins    BYTE PTR es:[edi],dx
  404012:	ins    BYTE PTR es:[edi],dx
  404013:	arpl   WORD PTR gs:[ecx+ebp*2+0x6f],si
  404018:	outs   dx,BYTE PTR ds:[esi]
  404019:	pusha  
  40401a:	xor    DWORD PTR [eax],eax
  40401c:	addr16 gs je 0x40407f
  404020:	inc    edx
  404021:	outs   dx,DWORD PTR ds:[esi]
  404022:	jne    0x404092
  404024:	fs dec esi
  404026:	dec    ecx
  404027:	inc    ebx
  404028:	push   ebx
  404029:	add    BYTE PTR [edi+0x65],ah
  40402c:	je     0x40408d
  40402e:	inc    ebx
  40402f:	outs   dx,DWORD PTR ds:[esi]
  404030:	jne    0x4040a0
  404032:	je     0x404034
  404034:	dec    ecx
  404035:	inc    ebp
  404036:	outs   dx,BYTE PTR ds:[esi]
  404037:	jne    0x4040a6
  404039:	gs jb  0x40409d
  40403c:	je     0x4040ad
  40403e:	jb     0x4040a0
  404040:	xor    DWORD PTR [eax],eax
  404042:	inc    edi
  404043:	gs je  0x40408b
  404046:	outs   dx,BYTE PTR ds:[esi]
  404047:	jne    0x4040b6
  404049:	gs jb  0x4040ad
  40404c:	je     0x4040bd
  40404e:	jb     0x404050
  404050:	addr16 gs je 0x4040b3
  404054:	inc    ebx
  404055:	jne    0x4040c9
  404057:	jb     0x4040be
  404059:	outs   dx,BYTE PTR ds:[esi]
  40405a:	je     0x40405c
  40405c:	push   ebx
  40405d:	jns    0x4040d2
  40405f:	je     0x4040c6
  404061:	ins    DWORD PTR es:[edi],dx
  404062:	cs inc ebx
  404064:	outs   dx,DWORD PTR ds:[esi]
  404065:	ins    BYTE PTR es:[edi],dx
  404066:	ins    BYTE PTR es:[edi],dx
  404067:	arpl   WORD PTR gs:[ecx+ebp*2+0x6f],si
  40406c:	outs   dx,BYTE PTR ds:[esi]
  40406d:	jae    0x40406f
  40406f:	dec    ecx
  404070:	inc    ebp
  404071:	outs   dx,BYTE PTR ds:[esi]
  404072:	jne    0x4040e1
  404074:	gs jb  0x4040d8
  404077:	je     0x4040e8
  404079:	jb     0x40407b
  40407b:	dec    ebp
  40407c:	outs   dx,DWORD PTR ds:[esi]
  40407d:	jbe    0x4040e4
  40407f:	dec    esi
  404080:	gs js  0x4040f7
  404083:	add    BYTE PTR [ecx+0x44],cl
  404086:	imul   esi,DWORD PTR [ebx+0x70],0x6261736f
  40408d:	ins    BYTE PTR es:[edi],dx
  40408e:	add    BYTE PTR gs:[ecx+ebp*2+0x73],al
  404093:	jo     0x404104
  404095:	jae    0x4040fc
  404097:	add    BYTE PTR [edi+0x65],al
  40409a:	je     0x4040e4
  40409c:	gs ins BYTE PTR es:[edi],dx
  40409e:	jo     0x4040e3
  4040a0:	outs   dx,DWORD PTR ds:[esi]
  4040a1:	ins    DWORD PTR es:[edi],dx
  4040a2:	ins    DWORD PTR es:[edi],dx
  4040a3:	popa   
  4040a4:	outs   dx,BYTE PTR ds:[esi]
  4040a5:	fs dec esi
  4040a7:	popa   
  4040a8:	ins    DWORD PTR es:[edi],dx
  4040a9:	add    BYTE PTR gs:[ebx+0x54],dl
  4040ad:	inc    ecx
  4040ae:	push   esp
  4040af:	push   0x64616572
  4040b4:	inc    ecx
  4040b5:	je     0x40412b
  4040b7:	jb     0x404122
  4040b9:	bound  esi,QWORD PTR [ebp+0x74]
  4040bc:	add    BYTE PTR gs:[eax+0x65],cl
  4040c0:	ins    BYTE PTR es:[edi],dx
  4040c1:	jo     0x404115
  4040c3:	gs jno 0x40413b
  4040c6:	gs jae 0x40413d
  4040c9:	gs add BYTE PTR fs:[ebx+0x6f],al
  4040ce:	outs   dx,BYTE PTR ds:[esi]
  4040cf:	imul   sp,WORD PTR [edi+0x75],0x6172
  4040d5:	je     0x404140
  4040d7:	outs   dx,DWORD PTR ds:[esi]
  4040d8:	outs   dx,BYTE PTR ds:[esi]
  4040d9:	dec    ebp
  4040da:	gs jae 0x404150
  4040dd:	popa   
  4040de:	add    BYTE PTR gs:[di+0x70],dl
  4040e3:	fs popa 
  4040e5:	je     0x40414c
  4040e7:	push   ebx
  4040e8:	je     0x40414b
  4040ea:	je     0x404161
  4040ec:	jae    0x404131
  4040ee:	popa   
  4040ef:	ins    BYTE PTR es:[edi],dx
  4040f0:	ins    BYTE PTR es:[edi],dx
  4040f1:	bound  esp,QWORD PTR [ecx+0x63]
  4040f4:	imul   eax,DWORD PTR [eax],0x45
  4040f7:	js     0x40415c
  4040f9:	gs jo  0x404170
  4040fc:	imul   ebp,DWORD PTR [edi+0x6e],0x74656700
  404103:	pop    edi
  404104:	dec    ebp
  404105:	gs jae 0x40417b
  404108:	popa   
  404109:	add    BYTE PTR gs:[si+0x6f],cl
  40410e:	addr16 addr16 gs jb 0x404113
  404113:	inc    ebp
  404114:	jb     0x404188
  404116:	outs   dx,DWORD PTR ds:[esi]
  404117:	jb     0x404119
  404119:	dec    ebp
  40411a:	imul   esp,DWORD PTR [ebx+0x72],0x666f736f
  404121:	je     0x404151
  404123:	push   esi
  404124:	imul   esi,DWORD PTR [ebx+0x75],0x74536c61
  40412b:	jne    0x404191
  40412d:	imul   ebp,DWORD PTR [edi+0x2e],0x6c617551
  404134:	imul   esi,DWORD PTR [ecx+edi*2+0x54],0x736c6f6f
  40413c:	cs inc ebx
  40413e:	outs   dx,DWORD PTR ds:[esi]
  40413f:	ins    DWORD PTR es:[edi],dx
  404140:	ins    DWORD PTR es:[edi],dx
  404141:	outs   dx,DWORD PTR ds:[esi]
  404142:	outs   dx,BYTE PTR ds:[esi]
  404143:	add    BYTE PTR [ebp+0x69],cl
  404146:	arpl   WORD PTR [edx+0x6f],si
  404149:	jae    0x4041ba
  40414b:	data16 je 0x40417c
  40414e:	push   esi
  40414f:	imul   esi,DWORD PTR [ebx+0x75],0x74536c61
  404156:	jne    0x4041bc
  404158:	imul   ebp,DWORD PTR [edi+0x2e],0x74736554
  40415f:	push   esp
  404160:	outs   dx,DWORD PTR ds:[esi]
  404161:	outs   dx,DWORD PTR ds:[esi]
  404162:	ins    BYTE PTR es:[edi],dx
  404163:	jae    0x404193
  404165:	inc    ebx
  404166:	outs   dx,DWORD PTR ds:[esi]
  404167:	ins    DWORD PTR es:[edi],dx
  404168:	ins    DWORD PTR es:[edi],dx
  404169:	outs   dx,DWORD PTR ds:[esi]
  40416a:	outs   dx,BYTE PTR ds:[esi]
  40416b:	add    BYTE PTR [ebp+0x78],al
  40416e:	arpl   WORD PTR [ebp+0x70],sp
  404171:	je     0x4041dc
  404173:	outs   dx,DWORD PTR ds:[esi]
  404174:	outs   dx,BYTE PTR ds:[esi]
  404175:	dec    eax
  404176:	gs ins BYTE PTR es:[edi],dx
  404178:	jo     0x4041df
  40417a:	jb     0x40417c
  40417c:	inc    edi
  40417d:	gs je  0x4041c5
  404180:	js     0x4041e5
  404182:	gs jo  0x4041f9
  404185:	imul   ebp,DWORD PTR [edi+0x6e],0x7373654d
  40418c:	popa   
  40418d:	add    BYTE PTR gs:[bp+di+0x6f],al
  404192:	outs   dx,BYTE PTR ds:[esi]
  404193:	arpl   WORD PTR [ecx+0x74],sp
  404196:	add    BYTE PTR [ebp+0x6e],al
  404199:	jbe    0x404204
  40419b:	jb     0x40420c
  40419d:	outs   dx,BYTE PTR ds:[esi]
  40419e:	ins    DWORD PTR es:[edi],dx
  40419f:	outs   dx,BYTE PTR gs:[esi]
  4041a1:	je     0x4041a3
  4041a3:	inc    ebp
  4041a4:	js     0x40420f
  4041a6:	je     0x4041a8
  4041a8:	inc    ecx
  4041a9:	jb     0x404212
  4041ab:	jne    0x40421a
  4041ad:	outs   dx,BYTE PTR gs:[esi]
  4041af:	je     0x4041fd
  4041b1:	imul   esi,DWORD PTR [ebx+0x74],0x65637845
  4041b8:	jo     0x40422e
  4041ba:	imul   ebp,DWORD PTR [edi+0x6e],0x73734100
  4041c1:	gs ins DWORD PTR es:[edi],dx
  4041c3:	bound  ebp,QWORD PTR [ecx+edi*2+0x4e]
  4041c7:	popa   
  4041c8:	ins    DWORD PTR es:[edi],dx
  4041c9:	add    BYTE PTR gs:[edi+0x65],al
  4041cd:	je     0x40421d
  4041cf:	popa   
  4041d0:	ins    DWORD PTR es:[edi],dx
  4041d1:	add    BYTE PTR gs:[esi+0x65],dl
  4041d5:	jb     0x40424a
  4041d7:	imul   ebp,DWORD PTR [edi+0x6e],0x74656700
  4041de:	pop    edi
  4041df:	push   esi
  4041e0:	gs jb  0x404256
  4041e3:	imul   ebp,DWORD PTR [edi+0x6e],0x73795300
  4041ea:	je     0x404251
  4041ec:	ins    DWORD PTR es:[edi],dx
  4041ed:	cs inc ebx
  4041ef:	outs   dx,DWORD PTR ds:[esi]
  4041f0:	fs gs inc esp
  4041f3:	outs   dx,DWORD PTR ds:[esi]
  4041f4:	ins    DWORD PTR es:[edi],dx
  4041f5:	cs inc ebx
  4041f7:	outs   dx,DWORD PTR ds:[esi]
  4041f8:	ins    DWORD PTR es:[edi],dx
  4041f9:	jo     0x404264
  4041fb:	ins    BYTE PTR es:[edi],dx
  4041fc:	gs jb  0x4041ff
  4041ff:	inc    edi
  404200:	outs   dx,BYTE PTR gs:[esi]
  404202:	gs jb  0x404266
  404205:	je     0x40426c
  404207:	fs inc ebx
  404209:	outs   dx,DWORD PTR ds:[esi]
  40420a:	fs gs inc ecx
  40420d:	je     0x404283
  40420f:	jb     0x40427a
  404211:	bound  esi,QWORD PTR [ebp+0x74]
  404214:	add    BYTE PTR gs:[ebp+eiz*2+0x62],al
  404219:	jne    0x404282
  40421b:	addr16 gs jb 0x40426d
  40421f:	outs   dx,DWORD PTR ds:[esi]
  404220:	outs   dx,BYTE PTR ds:[esi]
  404221:	push   ebp
  404222:	jae    0x404289
  404224:	jb     0x404269
  404226:	outs   dx,DWORD PTR ds:[esi]
  404227:	fs gs inc ecx
  40422a:	je     0x4042a0
  40422c:	jb     0x404297
  40422e:	bound  esi,QWORD PTR [ebp+0x74]
  404231:	add    BYTE PTR gs:[ebx+0x6f],al
  404235:	ins    DWORD PTR es:[edi],dx
  404236:	jo     0x4042a1
  404238:	ins    BYTE PTR es:[edi],dx
  404239:	gs jb  0x404283
  40423c:	outs   dx,BYTE PTR gs:[esi]
  40423e:	gs jb  0x4042a2
  404241:	je     0x4042a8
  404243:	fs inc ecx
  404245:	je     0x4042bb
  404247:	jb     0x4042b2
  404249:	bound  esi,QWORD PTR [ebp+0x74]
  40424c:	add    BYTE PTR gs:[edx+0x65],dl
  404250:	data16 gs jb 0x4042b9
  404254:	outs   dx,BYTE PTR ds:[esi]
  404255:	arpl   WORD PTR [ebp+0x45],sp
  404258:	jno    0x4042cf
  40425a:	popa   
  40425b:	ins    BYTE PTR es:[edi],dx
  40425c:	jae    0x40425e
  40425e:	addr16 gs je 0x4042c1
  404262:	inc    ecx
  404263:	jae    0x4042d8
  404265:	gs ins DWORD PTR es:[edi],dx
  404267:	bound  ebp,QWORD PTR [ecx+edi*2+0x0]
  40426b:	inc    edi
  40426c:	gs je  0x4042c2
  40426f:	je     0x4042e3
  404271:	imul   ebp,DWORD PTR [esi+0x67],0x73795300
  404278:	je     0x4042df
  40427a:	ins    DWORD PTR es:[edi],dx
  40427b:	cs inc ebx
  40427d:	outs   dx,DWORD PTR ds:[esi]
  40427e:	ins    DWORD PTR es:[edi],dx
  40427f:	jo     0x4042f0
  404281:	outs   dx,BYTE PTR ds:[esi]
  404282:	outs   dx,BYTE PTR gs:[esi]
  404284:	je     0x4042d3
  404286:	outs   dx,DWORD PTR ds:[esi]
  404287:	fs gs ins BYTE PTR es:[edi],dx
  40428a:	add    BYTE PTR [ebp+0x64],al
  40428d:	imul   esi,DWORD PTR [edi+ebp*2+0x72],0x776f7242
  404295:	jae    0x4042f8
  404297:	bound  ebp,QWORD PTR [ebp+eiz*2+0x41]
  40429b:	je     0x404311
  40429d:	jb     0x404308
  40429f:	bound  esi,QWORD PTR [ebp+0x74]
  4042a2:	add    BYTE PTR gs:[ebp+0x64],al
  4042a6:	imul   esi,DWORD PTR [edi+ebp*2+0x72],0x776f7242
  4042ae:	jae    0x404311
  4042b0:	bound  ebp,QWORD PTR [ebp+eiz*2+0x53]
  4042b4:	je     0x404317
  4042b6:	je     0x40431d
  4042b8:	add    BYTE PTR [ebp+0x69],cl
  4042bb:	arpl   WORD PTR [edx+0x6f],si
  4042be:	jae    0x40432f
  4042c0:	data16 je 0x4042f1
  4042c3:	push   esi
  4042c4:	imul   esi,DWORD PTR [ebx+0x75],0x74536c61
  4042cb:	jne    0x404331
  4042cd:	imul   ebp,DWORD PTR [edi+0x2e],0x74736554
  4042d4:	push   esp
  4042d5:	outs   dx,DWORD PTR ds:[esi]
  4042d6:	outs   dx,DWORD PTR ds:[esi]
  4042d7:	ins    BYTE PTR es:[edi],dx
  4042d8:	jae    0x404308
  4042da:	push   esi
  4042db:	push   ebx
  4042dc:	push   esp
  4042dd:	gs jae 0x404354
  4042e0:	inc    ebx
  4042e1:	outs   dx,DWORD PTR ds:[esi]
  4042e2:	outs   dx,BYTE PTR ds:[esi]
  4042e3:	imul   sp,WORD PTR [edi+0x43],0x494c
  4042e9:	cs push edx
  4042eb:	gs jae 0x40435d
  4042ee:	jne    0x404362
  4042f0:	arpl   WORD PTR [ebp+0x73],sp
  4042f3:	cs jb  0x40435b
  4042f6:	jae    0x404367
  4042f8:	jne    0x40436c
  4042fa:	arpl   WORD PTR [ebp+0x73],sp
  4042fd:	add    BYTE PTR [eax],al
  4042ff:	add    BYTE PTR [eax],al
  404301:	and    edi,DWORD PTR [ebx+0x0]
  404304:	xor    BYTE PTR [eax],al
  404306:	sub    al,0x0
  404308:	sub    eax,0x35003400
  40430d:	add    BYTE PTR [ebp+0x0],bh
  404310:	and    BYTE PTR [eax],al
  404312:	cmp    al,BYTE PTR [eax]
  404314:	and    BYTE PTR [eax],al
  404316:	jnp    0x404318
  404318:	xor    DWORD PTR [eax],eax
  40431a:	sub    al,0x0
  40431c:	and    BYTE PTR [eax],al
  40431e:	sub    eax,0x7d003500
  404323:	add    BYTE PTR [ecx],al
  404325:	adc    DWORD PTR [ebx+0x0],edi
  404328:	xor    BYTE PTR [eax],al
  40432a:	sub    al,0x0
  40432c:	and    BYTE PTR [eax],al
  40432e:	sub    eax,0x35003400
  404333:	add    BYTE PTR [ebp+0x0],bh
  404336:	add    DWORD PTR [edi+0x42],ebx
  404339:	add    BYTE PTR [edi+0x0],ch
  40433c:	jne    0x40433e
  40433e:	outs   dx,BYTE PTR ds:[esi]
  40433f:	add    BYTE PTR [eax+eax*1+0x20],ah
  404343:	add    BYTE PTR [eax+eax*1+0x6f],dh
  404347:	add    BYTE PTR [eax],ah
  404349:	add    BYTE PTR [eax+eax*1+0x68],dh
  40434d:	add    BYTE PTR [ebp+0x0],ah
  404350:	and    BYTE PTR [eax],al
  404352:	data16 add BYTE PTR [edi+0x0],ch
  404356:	ins    BYTE PTR es:[edi],dx
  404357:	add    BYTE PTR [eax+eax*1+0x6f],ch
  40435b:	add    BYTE PTR [edi+0x0],dh
  40435e:	imul   eax,DWORD PTR [eax],0x67006e
  404364:	and    BYTE PTR [eax],al
  404366:	dec    esi
  404367:	add    BYTE PTR [ebp+0x0],ah
  40436a:	je     0x40436c
  40436c:	ja     0x40436e
  40436e:	outs   dx,DWORD PTR ds:[esi]
  40436f:	add    BYTE PTR [edx+0x0],dh
  404372:	imul   eax,DWORD PTR [eax],0x20
  404375:	add    BYTE PTR [ecx+0x0],cl
  404378:	outs   dx,BYTE PTR ds:[esi]
  404379:	add    BYTE PTR [eax+eax*1+0x65],dh
  40437d:	add    BYTE PTR [edx+0x0],dh
  404380:	data16 add BYTE PTR [ecx+0x0],ah
  404384:	arpl   WORD PTR [eax],ax
  404386:	add    BYTE PTR gs:[eax],ah
  404389:	add    BYTE PTR [ebx+0x0],al
  40438c:	popa   
  40438d:	add    BYTE PTR [edx+0x0],dh
  404390:	add    BYTE PTR fs:[ebx+0x0],dh
  404394:	cmp    al,BYTE PTR [eax]
  404396:	add    BYTE PTR [edi+0x2d],bl
  404399:	add    BYTE PTR ds:0x2d002d00,ch
  40439f:	add    BYTE PTR ds:0x2d002d00,ch
  4043a5:	add    BYTE PTR ds:0x2d002d00,ch
  4043ab:	add    BYTE PTR ds:0x2d002d00,ch
  4043b1:	add    BYTE PTR ds:0x2d002d00,ch
  4043b7:	add    BYTE PTR ds:0x2d002d00,ch
  4043bd:	add    BYTE PTR ds:0x2d002d00,ch
  4043c3:	add    BYTE PTR ds:0x2d002d00,ch
  4043c9:	add    BYTE PTR ds:0x2d002d00,ch
  4043cf:	add    BYTE PTR ds:0x2d002d00,ch
  4043d5:	add    BYTE PTR ds:0x2d002d00,ch
  4043db:	add    BYTE PTR ds:0x2d002d00,ch
  4043e1:	add    BYTE PTR ds:0x2d002d00,ch
  4043e7:	add    BYTE PTR ds:0x2d002d00,ch
  4043ed:	add    BYTE PTR ds:0x2d002d00,ch
  4043f3:	add    BYTE PTR ds:0x7b1d0100,ch
  4043f9:	add    BYTE PTR [eax],dh
  4043fb:	add    BYTE PTR [eax+eax*1],ch
  4043fe:	and    BYTE PTR [eax],al
  404400:	sub    eax,0x35003200
  404405:	add    BYTE PTR [ebp+0x0],bh
  404408:	and    BYTE PTR [eax],al
  40440a:	cmp    al,BYTE PTR [eax]
  40440c:	and    BYTE PTR [eax],al
  40440e:	jnp    0x404410
  404410:	xor    DWORD PTR [eax],eax
  404412:	jge    0x404414
  404414:	add    DWORD PTR [ecx],esp
  404416:	push   eax
  404417:	add    BYTE PTR [eax+0x0],ch
  40441a:	jns    0x40441c
  40441c:	jae    0x40441e
  40441e:	imul   eax,DWORD PTR [eax],0x610063
  404424:	ins    BYTE PTR es:[edi],dx
  404425:	add    BYTE PTR [eax],ah
  404427:	add    BYTE PTR [ecx+0x0],al
  40442a:	add    BYTE PTR fs:[eax+eax*1+0x72],ah
  40442f:	add    BYTE PTR [ebp+0x0],ah
  404432:	jae    0x404434
  404434:	jae    0x404436
  404436:	add    BYTE PTR [ebx],bl
  404438:	or     al,BYTE PTR [eax]
  40443a:	inc    ebp
  40443b:	add    BYTE PTR [eax+0x0],bh
  40443e:	arpl   WORD PTR [eax],ax
  404440:	add    BYTE PTR gs:[eax+0x0],dh
  404444:	je     0x404446
  404446:	imul   eax,DWORD PTR [eax],0x6e006f
  40444c:	and    BYTE PTR [eax],al
  40444e:	cmp    al,BYTE PTR [eax]
  404450:	and    BYTE PTR [eax],al
  404452:	add    BYTE PTR [ebp+0x4d],dh
  404455:	add    BYTE PTR [ecx+0x0],ch
  404458:	arpl   WORD PTR [eax],ax
  40445a:	jb     0x40445c
  40445c:	outs   dx,DWORD PTR ds:[esi]
  40445d:	add    BYTE PTR [ebx+0x0],dh
  404460:	outs   dx,DWORD PTR ds:[esi]
  404461:	add    BYTE PTR [esi+0x0],ah
  404464:	je     0x404466
  404466:	add    BYTE PTR cs:[esi+0x0],dl
  40446a:	imul   eax,DWORD PTR [eax],0x750073
  404470:	popa   
  404471:	add    BYTE PTR [eax+eax*1+0x53],ch
  404475:	add    BYTE PTR [eax+eax*1+0x75],dh
  404479:	add    BYTE PTR [eax+eax*1+0x69],ah
  40447d:	add    BYTE PTR [edi+0x0],ch
  404480:	add    BYTE PTR cs:[eax+eax*1+0x65],dl
  404485:	add    BYTE PTR [ebx+0x0],dh
  404488:	je     0x40448a
  40448a:	push   esp
  40448b:	add    BYTE PTR [edi+0x0],ch
  40448e:	outs   dx,DWORD PTR ds:[esi]
  40448f:	add    BYTE PTR [eax+eax*1+0x73],ch
  404493:	add    BYTE PTR [esi],ch
  404495:	add    BYTE PTR [esi+0x0],dl
  404498:	push   ebx
  404499:	add    BYTE PTR [eax+eax*1+0x65],dl
  40449d:	add    BYTE PTR [ebx+0x0],dh
  4044a0:	je     0x4044a2
  4044a2:	inc    ebx
  4044a3:	add    BYTE PTR [edi+0x0],ch
  4044a6:	outs   dx,BYTE PTR ds:[esi]
  4044a7:	add    BYTE PTR [esi+0x0],ah
  4044aa:	imul   eax,DWORD PTR [eax],0x430067
  4044b0:	dec    esp
  4044b1:	add    BYTE PTR [ecx+0x0],cl
  4044b4:	add    BYTE PTR cs:[edx+0x0],dl
  4044b8:	add    BYTE PTR gs:[ebx+0x0],dh
  4044bc:	outs   dx,DWORD PTR ds:[esi]
  4044bd:	add    BYTE PTR [ebp+0x0],dh
  4044c0:	jb     0x4044c2
  4044c2:	arpl   WORD PTR [eax],ax
  4044c4:	add    BYTE PTR gs:[ebx+0x0],dh
  4044c8:	add    BYTE PTR [ecx],ah
  4044ca:	inc    ebx
  4044cb:	add    BYTE PTR [edi+0x0],ch
  4044ce:	jo     0x4044d0
  4044d0:	jns    0x4044d2
  4044d2:	jb     0x4044d4
  4044d4:	imul   eax,DWORD PTR [eax],0x680067
  4044da:	je     0x4044dc
  4044dc:	dec    ebp
  4044dd:	add    BYTE PTR [ebp+0x0],ah
  4044e0:	jae    0x4044e2
  4044e2:	jae    0x4044e4
  4044e4:	popa   
  4044e5:	add    BYTE PTR [edi+0x0],ah
  4044e8:	add    BYTE PTR gs:[eax],al
  4044eb:	pop    ds
  4044ec:	inc    esp
  4044ed:	add    BYTE PTR [edx+0x0],dh
  4044f0:	imul   eax,DWORD PTR [eax],0x650076
  4044f6:	jb     0x4044f8
  4044f8:	dec    ecx
  4044f9:	add    BYTE PTR [esi+0x0],ch
  4044fc:	jae    0x4044fe
  4044fe:	je     0x404500
  404500:	popa   
  404501:	add    BYTE PTR [eax+eax*1+0x6c],ch
  404505:	add    BYTE PTR [ebp+0x0],ah
  404508:	add    BYTE PTR fs:[eax],al
  40450b:	adc    DWORD PTR [eax+0x0],ecx
  40450e:	add    BYTE PTR gs:[eax+eax*1+0x70],ch
  404513:	add    BYTE PTR [eax+0x0],cl
  404516:	add    BYTE PTR gs:[eax+eax*1+0x70],ch
  40451b:	add    BYTE PTR [eax],al
  40451d:	sub    DWORD PTR [eax+0x0],ecx
  404520:	add    BYTE PTR gs:[eax+eax*1+0x70],ch
  404525:	add    BYTE PTR [esi+0x0],cl
  404528:	add    BYTE PTR gs:[eax+eax*1+0x77],dh
  40452d:	add    BYTE PTR [edi+0x0],ch
  404530:	jb     0x404532
  404532:	imul   eax,DWORD PTR [eax],0x45
  404535:	add    BYTE PTR [ebp+0x0],ch
  404538:	jne    0x40453a
  40453a:	ins    BYTE PTR es:[edi],dx
  40453b:	add    BYTE PTR [ecx+0x0],ah
  40453e:	je     0x404540
  404540:	imul   eax,DWORD PTR [eax],0x6e006f
  404546:	add    BYTE PTR ds:0x73006d,dl
  40454c:	add    BYTE PTR [bx+0x0],cl
  404550:	jo     0x404552
  404552:	je     0x404554
  404554:	imul   eax,DWORD PTR [eax],0x6e006f
  40455a:	xor    DWORD PTR [eax],eax
  40455c:	add    BYTE PTR ds:0x73006d,dl
  404562:	add    BYTE PTR [bx+0x0],cl
  404566:	jo     0x404568
  404568:	je     0x40456a
  40456a:	imul   eax,DWORD PTR [eax],0x6e006f
  404570:	xor    al,BYTE PTR [eax]
  404572:	add    BYTE PTR [ecx],dl
  404574:	ins    DWORD PTR es:[edi],dx
  404575:	add    BYTE PTR [ebx+0x0],dh
  404578:	add    BYTE PTR [di+0x0],dl
  40457c:	jae    0x40457e
  40457e:	popa   
  40457f:	add    BYTE PTR [edi+0x0],ah
  404582:	add    BYTE PTR gs:[eax],al
  404585:	pop    ss
  404586:	dec    esi
  404587:	add    BYTE PTR [edi+0x0],ch
  40458a:	inc    edx
  40458b:	add    BYTE PTR [edi+0x0],ch
  40458e:	jne    0x404590
  404590:	outs   dx,BYTE PTR ds:[esi]
  404591:	add    BYTE PTR [eax+eax*1+0x4e],ah
  404595:	add    BYTE PTR [ecx+0x0],cl
  404598:	inc    ebx
  404599:	add    BYTE PTR [ebx+0x0],dh
  40459c:	add    BYTE PTR [ecx],bh
  40459e:	push   ebp
  40459f:	add    BYTE PTR [esi+0x0],ch
  4045a2:	jb     0x4045a4
  4045a4:	add    BYTE PTR gs:[ebx+0x0],ah
  4045a8:	outs   dx,DWORD PTR ds:[esi]
  4045a9:	add    BYTE PTR [edi+0x0],ah
  4045ac:	outs   dx,BYTE PTR ds:[esi]
  4045ad:	add    BYTE PTR [ecx+0x0],ch
  4045b0:	jp     0x4045b2
  4045b2:	add    BYTE PTR gs:[eax+eax*1+0x43],ah
  4045b7:	add    BYTE PTR [edi+0x0],ch
  4045ba:	ins    DWORD PTR es:[edi],dx
  4045bb:	add    BYTE PTR [ebp+0x0],ch
  4045be:	popa   
  4045bf:	add    BYTE PTR [esi+0x0],ch
  4045c2:	add    BYTE PTR fs:[ebp+0x0],al
  4045c6:	js     0x4045c8
  4045c8:	arpl   WORD PTR [eax],ax
  4045ca:	add    BYTE PTR gs:[eax+0x0],dh
  4045ce:	je     0x4045d0
  4045d0:	imul   eax,DWORD PTR [eax],0x6e006f
  4045d6:	add    BYTE PTR ds:0x6e0055,ah
  4045dc:	jb     0x4045de
  4045de:	add    BYTE PTR gs:[ebx+0x0],ah
  4045e2:	outs   dx,DWORD PTR ds:[esi]
  4045e3:	add    BYTE PTR [edi+0x0],ah
  4045e6:	outs   dx,BYTE PTR ds:[esi]
  4045e7:	add    BYTE PTR [ecx+0x0],ch
  4045ea:	jp     0x4045ec
  4045ec:	add    BYTE PTR gs:[eax+eax*1+0x4f],ah
  4045f1:	add    BYTE PTR [eax+0x0],dh
  4045f4:	je     0x4045f6
  4045f6:	imul   eax,DWORD PTR [eax],0x6e006f
  4045fc:	add    BYTE PTR [eax],al
  4045fe:	add    BYTE PTR [eax],al
  404600:	xchg   esi,eax
  404601:	es in  al,0x20
  404604:	jbe    0x4045cc
  404606:	push   ss
  404607:	dec    edi
  404608:	lea    esi,[esp+eax*8-0x8ece2e3]
  40460f:	sbb    BYTE PTR [eax],al
  404611:	or     BYTE PTR [eax+0x117f5f3f],dh
  404617:	aad    0xa
  404619:	cmp    cl,BYTE PTR [eax]
  40461b:	mov    bh,0x7a
  40461d:	pop    esp
  40461e:	push   esi
  40461f:	sbb    DWORD PTR [eax+eiz*8],esi
  404622:	mov    DWORD PTR [ebx],eax
  404624:	and    BYTE PTR [eax],al
  404626:	add    DWORD PTR [edi],eax
  404628:	add    BYTE PTR [edx],al
  40462a:	adc    cl,BYTE PTR [eax]
  40462c:	push   cs
  40462d:	sbb    eax,0x20030e
  404632:	push   cs
  404633:	add    al,0x20
  404635:	add    DWORD PTR [ecx],eax
  404637:	push   cs
  404638:	add    eax,DWORD PTR [esi]
  40463a:	adc    dl,BYTE PTR [ecx]
  40463c:	pop    es
  40463d:	and    BYTE PTR [edx],al
  40463f:	add    DWORD PTR ds:0x815120e,ebx
  404645:	and    BYTE PTR [eax],al
  404647:	adc    eax,0x11011912
  40464c:	and    DWORD PTR [ebx],eax
  40464e:	push   es
  40464f:	adc    cl,BYTE PTR [eax]
  404651:	or     BYTE PTR [eax],ch
  404653:	add    BYTE PTR ds:0x11011912,dl
  404659:	and    DWORD PTR ds:0x1d010100,eax
  40465f:	push   cs
  404660:	push   es
  404661:	and    BYTE PTR [edx],al
  404663:	add    DWORD PTR [esi],ecx
  404665:	sbb    eax,0x40e
  40466a:	adc    dl,BYTE PTR [ebx+eax*1]
  40466d:	push   es
  40466e:	adc    dl,BYTE PTR [esp+eax*1]
  404671:	or     BYTE PTR [eax],al
  404673:	adc    dl,BYTE PTR [ebx+eax*1]
  404676:	push   es
  404677:	adc    ah,BYTE PTR ds:0x29120603
  40467d:	add    al,0x0
  40467f:	add    BYTE PTR [edx],dl
  404681:	and    eax,0x12000004
  404686:	sub    DWORD PTR ds:0x12010100,eax
  40468c:	sub    DWORD PTR [ebx],eax
  40468e:	add    BYTE PTR [eax],al
  404690:	push   cs
  404691:	add    al,0x8
  404693:	add    BYTE PTR [edx],dl
  404695:	and    eax,0x12000804
  40469a:	sub    DWORD PTR [ebx],eax
  40469c:	or     BYTE PTR [eax],al
  40469e:	push   cs
  40469f:	add    al,0x20
  4046a1:	add    DWORD PTR [ecx],eax
  4046a3:	add    al,BYTE PTR ds:0x11010120
  4046a9:	jne    0x4046af
  4046ab:	and    BYTE PTR [ecx],al
  4046ad:	add    DWORD PTR [eax],ecx
  4046af:	and    BYTE PTR [eax+0x2400],0x4
  4046b6:	add    BYTE PTR [eax],0x0
  4046b9:	xchg   esp,eax
  4046ba:	add    BYTE PTR [eax],al
  4046bc:	add    BYTE PTR [esi],al
  4046be:	add    al,BYTE PTR [eax]
  4046c0:	add    BYTE PTR [eax],al
  4046c2:	and    al,0x0
  4046c4:	add    BYTE PTR [edx+0x53],dl
  4046c7:	inc    ecx
  4046c8:	xor    DWORD PTR [eax],eax
  4046ca:	add    al,0x0
  4046cc:	add    BYTE PTR [ecx],al
  4046ce:	add    BYTE PTR [ecx],al
  4046d0:	add    BYTE PTR [edi],al
  4046d2:	sar    edx,1
  4046d4:	push   edi
  4046d5:	les    ebp,FWORD PTR [esi+0x2ea3f0d9]
  4046db:	test   BYTE PTR [edx+0xdfdae0f],ch
  4046e1:	jmp    0xecab44ce
  4046e6:	pop    DWORD PTR [edi+0x6c7603fb]
  4046ec:	or     DWORD PTR [ecx+ebx*4-0x6e],0x1e
  4046f1:	mov    dl,0x3b
  4046f3:	out    0x9a,eax
  4046f5:	(bad)  
  4046f7:	fadd   st(1),st
  4046f9:	fstp   QWORD PTR [edx+0x211336d2]
  4046ff:	add    dl,BYTE PTR [eax-0x6c38df5]
  404705:	adc    BYTE PTR [ebp+0x77e1c47f],0x10
  40470c:	pop    esi
  40470e:	pop    es
  40470f:	ja     0x404760
  404711:	sub    eax,ebp
  404713:	xor    cl,BYTE PTR [esi]
  404715:	xchg   edx,eax
  404716:	jmp    0xc021:0xe8e4ec05
  40471d:	movs   DWORD PTR es:[edi],DWORD PTR ds:[esi]
  40471e:	out    dx,eax
  40471f:	call   0x4c9cac15
  404724:	or     al,0x93
  404726:	shr    DWORD PTR [ebx+0x625d2899],0x2c
  40472d:	stos   BYTE PTR es:[edi],al
  40472e:	gs sub al,0x1d
  404731:	cli    
  404732:	(bad)  
  404733:	cmp    eax,0x2d6f5d74
  404738:	in     eax,0xf1
  40473a:	jle    0x40479a
  40473c:	scas   eax,DWORD PTR es:[edi]
  40473d:	pinsrw mm2,WORD PTR [esi-0x75e3d9c3],0x12
  404745:	inc    ebx
  404746:	sbb    BYTE PTR gs:[eax],ah
  404749:	ins    DWORD PTR es:[edi],dx
  40474a:	rcl    BYTE PTR [ebx-0x2da5b2cc],0x93
  404751:	add    al,0x0
  404753:	add    DWORD PTR [edx],eax
  404755:	push   cs
  404756:	add    eax,0x80120000
  40475b:	add    DWORD PTR [esi],0x121d0020
  404761:	add    BYTE PTR [ebp+0x12010008],0x80
  404768:	test   DWORD PTR [ecx],edx
  40476a:	or     BYTE PTR [ebp+0x1202000b],0x80
  404771:	xchg   ecx,eax
  404772:	adc    al,BYTE PTR [eax-0x7a7fed6b]
  404778:	pop    es
  404779:	and    BYTE PTR [edx],al
  40477b:	add    cl,BYTE PTR [esi]
  40477d:	adc    DWORD PTR [eax+0x1200499],eax
  404783:	sbb    al,0xe
  404785:	or     DWORD PTR [eax],eax
  404787:	add    ecx,DWORD PTR [esi]
  404789:	adc    al,BYTE PTR [eax+0x1c1d0e9d]
  40478f:	adc    al,0x7
  404791:	pop    es
  404792:	adc    al,BYTE PTR [eax-0x7a7fed7f]
  404798:	adc    al,BYTE PTR [eax+0x1d081289]
  40479e:	adc    al,BYTE PTR [eax+0x1c1d0885]
  4047a4:	adc    eax,0x4e100001
  4047a9:	gs je  0x404823
  4047ac:	outs   dx,DWORD PTR ds:[esi]
  4047ad:	jb     0x40481a
  4047af:	inc    ebp
  4047b0:	ins    DWORD PTR es:[edi],dx
  4047b1:	jne    0x40481f
  4047b3:	popa   
  4047b4:	je     0x40481f
  4047b6:	outs   dx,DWORD PTR ds:[esi]
  4047b7:	outs   dx,BYTE PTR ds:[esi]
  4047b8:	add    BYTE PTR [eax],al
  4047ba:	push   es
  4047bb:	adc    eax,0x11011912
  4047c0:	and    DWORD PTR [edx],ecx
  4047c2:	and    BYTE PTR [ecx],al
  4047c4:	add    DWORD PTR ds:0x1a58012,edx
  4047ca:	adc    eax,DWORD PTR [eax]
  4047cc:	add    eax,0x80120020
  4047d1:	test   eax,0x2012005
  4047d6:	adc    DWORD PTR [ecx],esp
  4047d8:	add    eax,0x111d0107
  4047dd:	and    DWORD PTR [ebx],eax
  4047df:	and    BYTE PTR [eax],al
  4047e1:	add    al,BYTE PTR [ebx]
  4047e3:	push   es
  4047e4:	adc    dl,BYTE PTR ds:0x1022007
  4047ea:	adc    dl,BYTE PTR [ecx]
  4047ec:	adc    dl,BYTE PTR ds:0x12012007
  4047f2:	xor    BYTE PTR [ecx+0x6021512],0xe
  4047f9:	or     BYTE PTR [eax],ah
  4047fb:	add    BYTE PTR ds:0x1b98012,dl
  404801:	push   cs
  404802:	push   es
  404803:	adc    eax,0x1b98012
  404808:	push   cs
  404809:	add    esp,DWORD PTR [eax]
  40480b:	add    BYTE PTR [eax],cl
  40480d:	push   es
  40480e:	adc    eax,0x1a58012
  404813:	push   cs
  404814:	or     DWORD PTR [eax],esp
  404816:	add    BYTE PTR ds:0x1bd8012,dl
  40481c:	adc    eax,DWORD PTR [eax]
  40481e:	push   es
  40481f:	adc    eax,0x1bd8012
  404824:	push   cs
  404825:	add    al,0x20
  404827:	add    BYTE PTR [ebx],dl
  404829:	add    BYTE PTR [ecx],bl
  40482b:	pop    es
  40482c:	or     dl,BYTE PTR [edx]
  40482e:	sub    BYTE PTR [ebp+0xeb18012],0xe
  404835:	sbb    eax,0x1c1d021c
  40483a:	sbb    eax,0x8012151c
  40483f:	mov    ebp,0x1c1d0e01
  404844:	or     DWORD PTR [ecx],eax
  404846:	add    BYTE PTR [eax+ebp*2],al
  404849:	gs ins BYTE PTR es:[edi],dx
  40484b:	jo     0x40484d
  40484d:	add    BYTE PTR [ebx],al
  40484f:	pop    es
  404850:	add    DWORD PTR [esi],ecx
  404852:	add    al,0x1
  404854:	add    BYTE PTR [eax],al
  404856:	add    BYTE PTR ds:0x1d010120,al
  40485c:	push   cs
  40485d:	push   es
  40485e:	and    BYTE PTR [ecx],al
  404860:	add    DWORD PTR [edx],edx
  404862:	or     ch,0x5
  404865:	and    BYTE PTR [edx],al
  404867:	add    DWORD PTR [eax+ebx*1],ebx
  40486a:	push   es
  40486b:	add    BYTE PTR [ecx],al
  40486d:	add    DWORD PTR [edx],edx
  40486f:	adc    cl,0x6
  404872:	add    BYTE PTR [ecx],al
  404874:	push   cs
  404875:	adc    al,BYTE PTR [eax+0x20005dd]
  40487b:	push   cs
  40487c:	push   cs
  40487d:	push   cs
  40487e:	add    al,0x0
  404880:	add    DWORD PTR [ecx],eax
  404882:	or     BYTE PTR [edx],cl
  404884:	pop    es
  404885:	add    edx,DWORD PTR [edx]
  404887:	or     BYTE PTR [edx],dl
  404889:	and    ch,0x12
  40488c:	adc    cl,0x5
  40488f:	and    BYTE PTR [eax],al
  404891:	adc    al,BYTE PTR [eax+0x2005e9]
  404897:	adc    al,BYTE PTR [eax+0x20705ed]
  40489d:	push   cs
  40489e:	sbb    eax,0x220051c
  4048a3:	add    DWORD PTR [esi],ecx
  4048a5:	push   cs
  4048a6:	inc    eax
  4048a7:	add    DWORD PTR [eax],eax
  4048a9:	xor    edx,DWORD PTR [ebx+0x79]
  4048ac:	jae    0x404922
  4048ae:	gs ins DWORD PTR es:[edi],dx
  4048b0:	cs push edx
  4048b2:	gs jae 0x404924
  4048b5:	jne    0x404929
  4048b7:	arpl   WORD PTR [ebp+0x73],sp
  4048ba:	cs push esp
  4048bc:	outs   dx,DWORD PTR ds:[esi]
  4048bd:	outs   dx,DWORD PTR ds:[esi]
  4048be:	ins    BYTE PTR es:[edi],dx
  4048bf:	jae    0x4048ef
  4048c1:	push   ebx
  4048c2:	je     0x404936
  4048c4:	outs   dx,DWORD PTR ds:[esi]
  4048c5:	outs   dx,BYTE PTR ds:[esi]
  4048c6:	ins    BYTE PTR es:[di],dx
  4048c8:	jns    0x40491e
  4048ca:	jns    0x40493c
  4048cc:	gs fs push edx
  4048cf:	gs jae 0x404941
  4048d2:	jne    0x404946
  4048d4:	arpl   WORD PTR [ebp+0x42],sp
  4048d7:	jne    0x404942
  4048d9:	ins    BYTE PTR es:[edi],dx
  4048da:	fs gs jb 0x4048e5
  4048de:	xor    al,0x2e
  4048e0:	xor    BYTE PTR [esi],ch
  4048e2:	xor    BYTE PTR [esi],ch
  4048e4:	xor    BYTE PTR [eax],al
  4048e6:	add    BYTE PTR ds:0x1c020200,al
  4048ec:	sbb    al,0x5
  4048ee:	and    BYTE PTR [eax],al
  4048f0:	adc    al,BYTE PTR [eax+0x2200781]
  4048f6:	add    DWORD PTR [esi],ecx
  4048f8:	adc    al,BYTE PTR [eax+0x1070481]
  4048fe:	adc    ah,BYTE PTR ds:0xe022006
  404904:	push   cs
  404905:	adc    ch,BYTE PTR [ecx]
  404907:	push   es
  404908:	and    BYTE PTR [ecx],al
  40490a:	add    DWORD PTR [ecx],edx
  40490c:	add    DWORD PTR [ecx],0x2000108
  404912:	add    BYTE PTR [eax],al
  404914:	add    BYTE PTR [eax],al
  404916:	add    BYTE PTR [edi],dh
  404918:	add    DWORD PTR [eax],eax
  40491a:	sbb    ch,BYTE PTR [esi]
  40491c:	dec    esi
  40491d:	inc    ebp
  40491e:	push   esp
  40491f:	inc    esi
  404920:	jb     0x404983
  404922:	ins    DWORD PTR es:[edi],dx
  404923:	gs ja  0x404995
  404926:	jb     0x404993
  404928:	sub    al,0x56
  40492a:	gs jb  0x4049a0
  40492d:	imul   ebp,DWORD PTR [edi+0x6e],0x2e34763d
  404934:	xor    BYTE PTR [ecx],al
  404936:	add    BYTE PTR [esi+ecx*1+0x14],dl
  40493a:	inc    esi
  40493b:	jb     0x40499e
  40493d:	ins    DWORD PTR es:[edi],dx
  40493e:	gs ja  0x4049b0
  404941:	jb     0x4049ae
  404943:	inc    esp
  404944:	imul   esi,DWORD PTR [ebx+0x70],0x4e79616c
  40494b:	popa   
  40494c:	ins    DWORD PTR es:[edi],dx
  40494d:	add    BYTE PTR gs:0x1,al
  404954:	add    BYTE PTR ds:0x10001,al
  40495a:	add    BYTE PTR ds:0x56100001,dl
  404960:	push   ebx
  404961:	push   esp
  404962:	gs jae 0x4049d9
  404965:	inc    ebx
  404966:	outs   dx,DWORD PTR ds:[esi]
  404967:	outs   dx,BYTE PTR ds:[esi]
  404968:	imul   sp,WORD PTR [edi+0x2e],0x7865
  40496e:	add    BYTE PTR gs:[eax],al
  404971:	sbb    al,BYTE PTR [ecx]
  404973:	add    BYTE PTR ds:0x7263694d,dl
  404979:	outs   dx,DWORD PTR ds:[esi]
  40497a:	jae    0x4049eb
  40497c:	data16 je 0x40499f
  40497f:	inc    ebx
  404980:	outs   dx,DWORD PTR ds:[esi]
  404981:	jb     0x4049f3
  404983:	outs   dx,DWORD PTR ds:[esi]
  404984:	jb     0x4049e7
  404986:	je     0x4049f1
  404988:	outs   dx,DWORD PTR ds:[esi]
  404989:	outs   dx,BYTE PTR ds:[esi]
  40498a:	add    BYTE PTR [eax],al
  40498c:	and    eax,0x4d200001
  404991:	imul   esp,DWORD PTR [ebx+0x72],0x666f736f
  404998:	je     0x40495c
  40499a:	scas   al,BYTE PTR es:[edi]
  40499b:	and    BYTE PTR [esi+0x69],dl
  40499e:	jae    0x404a15
  4049a0:	popa   
  4049a1:	ins    BYTE PTR es:[edi],dx
  4049a2:	and    BYTE PTR [ebx+0x74],dl
  4049a5:	jne    0x404a0b
  4049a7:	imul   ebp,DWORD PTR [edi-0x3e],0x303220ae
  4049ae:	xor    DWORD PTR [edx],esi
  4049b0:	add    BYTE PTR [eax],al
  4049b2:	xor    eax,DWORD PTR [ecx]
  4049b4:	add    BYTE PTR [esi],ch
  4049b6:	ret    0x20a9
  4049b9:	dec    ebp
  4049ba:	imul   esp,DWORD PTR [ebx+0x72],0x666f736f
  4049c1:	je     0x4049e3
  4049c3:	inc    ebx
  4049c4:	outs   dx,DWORD PTR ds:[esi]
  4049c5:	jb     0x404a37
  4049c7:	outs   dx,DWORD PTR ds:[esi]
  4049c8:	jb     0x404a2b
  4049ca:	je     0x404a35
  4049cc:	outs   dx,DWORD PTR ds:[esi]
  4049cd:	outs   dx,BYTE PTR ds:[esi]
  4049ce:	and    BYTE PTR cs:[ecx+0x6c],al
  4049d2:	ins    BYTE PTR es:[edi],dx
  4049d3:	and    BYTE PTR [edx+0x69],dh
  4049d6:	addr16 push 0x72207374
  4049dc:	gs jae 0x404a44
  4049df:	jb     0x404a57
  4049e1:	gs fs add BYTE PTR cs:[eax],al
  4049e6:	adc    DWORD PTR [ecx],eax
  4049e8:	add    BYTE PTR [ecx+esi*1],cl
  4049eb:	xor    DWORD PTR [esi],ebp
  4049ed:	xor    BYTE PTR [esi],ch
  4049ef:	xor    eax,0x37323730
  4049f4:	xor    DWORD PTR cs:[eax],eax
  4049f7:	add    BYTE PTR ds:0x31080001,cl
  4049fd:	xor    DWORD PTR [esi],ebp
  4049ff:	xor    BYTE PTR [esi],ch
  404a01:	xor    BYTE PTR [esi],ch
  404a03:	xor    BYTE PTR [eax],al
  404a05:	add    BYTE PTR [edx],cl
  404a07:	add    DWORD PTR [eax],eax
  404a09:	add    eax,0x552d6e65
  404a0e:	push   ebx
  404a0f:	add    BYTE PTR [eax],al
  404a11:	sub    al,BYTE PTR [ecx]
  404a13:	add    BYTE PTR ds:0x645c3a46,ah
  404a19:	fs pop esp
  404a1b:	je     0x404a8c
  404a1d:	outs   dx,DWORD PTR ds:[esi]
  404a1e:	ins    BYTE PTR es:[edi],dx
  404a1f:	jae    0x404a7d
  404a21:	fs gs jbe 0x404a89
  404a25:	imul   esi,DWORD PTR [esi+0x5c],0x616e6946
  404a2c:	ins    BYTE PTR es:[edi],dx
  404a2d:	push   eax
  404a2e:	jne    0x404a92
  404a30:	ins    BYTE PTR es:[edi],dx
  404a31:	imul   esp,DWORD PTR [ebx+0x4b],0x732e7965
  404a38:	outs   dx,BYTE PTR ds:[esi]
  404a39:	imul   eax,DWORD PTR [eax],0x0
  404a3c:	push   ds
  404a3d:	add    DWORD PTR [eax],eax
  404a3f:	add    DWORD PTR [eax],eax
  404a41:	push   esp
  404a42:	add    dl,BYTE PTR [esi]
  404a44:	push   edi
  404a45:	jb     0x404aa8
  404a47:	jo     0x404a97
  404a49:	outs   dx,DWORD PTR ds:[esi]
  404a4a:	outs   dx,BYTE PTR ds:[esi]
  404a4b:	inc    ebp
  404a4c:	js     0x404ab1
  404a4e:	gs jo  0x404ac5
  404a51:	imul   ebp,DWORD PTR [edi+0x6e],0x6f726854
  404a58:	ja     0x404acd
  404a5a:	add    DWORD PTR [eax],ecx
  404a5c:	add    DWORD PTR [eax],eax
  404a5e:	or     BYTE PTR [eax],al
	...
  404a68:	mov    ebx,fs
  404a6a:	adc    DWORD PTR [eax+0x0],edx
  404a6d:	add    BYTE PTR [eax],al
  404a6f:	add    BYTE PTR [edx],al
  404a71:	add    BYTE PTR [eax],al
  404a73:	add    BYTE PTR [ecx+eax*1],bl
  404a76:	add    BYTE PTR [eax],al
  404a78:	or     BYTE PTR [edx+0x0],0x0
  404a7c:	sub    BYTE PTR [eax+eax*1],0x0
  404a80:	push   edx
  404a81:	push   ebx
  404a82:	inc    esp
  404a83:	push   ebx
  404a84:	repnz xchg ebp,eax
  404a86:	or     al,0x84
  404a88:	imul   ecx,esi,0x618a4feb
  404a8e:	cli    
  404a8f:	fstp   TBYTE PTR [edi]
  404a91:	sub    ebp,eax
  404a93:	push   ebp
  404a94:	add    DWORD PTR [eax],eax
  404a96:	add    BYTE PTR [eax],al
  404a98:	data16 cmp bl,BYTE PTR [edx+eiz*2+0x69]
  404a9d:	outs   dx,BYTE PTR ds:[esi]
  404a9e:	popa   
  404a9f:	jb     0x404b0a
  404aa1:	gs jae 0x404b00
  404aa4:	dec    ecx
  404aa5:	outs   dx,BYTE PTR ds:[esi]
  404aa6:	je     0x404b0d
  404aa8:	jb     0x404b17
  404aaa:	gs imul esp,DWORD PTR fs:[ecx+0x74],0x73765c65
  404ab3:	gs je  0x404b12
  404ab6:	jbe    0x404b2b
  404ab8:	je     0x404b1f
  404aba:	jae    0x404b30
  404abc:	arpl   WORD PTR [edi+0x6e],bp
  404abf:	imul   sp,WORD PTR [edi+0x74],0x6f6f
  404ac5:	ins    BYTE PTR es:[edi],dx
  404ac6:	arpl   WORD PTR cs:[ebx+0x70],si
  404aca:	jb     0x404b3b
  404acc:	push   0x5f
  404ace:	xor    esi,DWORD PTR [ebx]
  404ad0:	xor    al,0x30
  404ad2:	xor    eax,0x33393532
  404ad7:	pop    esp
  404ad8:	outs   dx,DWORD PTR ds:[esi]
  404ad9:	bound  ebp,QWORD PTR [edx+0x72]
  404adc:	pop    esp
  404add:	js     0x404b17
  404adf:	ss pop esp
  404ae1:	push   esi
  404ae2:	push   ebx
  404ae3:	push   esp
  404ae4:	gs jae 0x404b5b
  404ae7:	inc    ebx
  404ae8:	outs   dx,DWORD PTR ds:[esi]
  404ae9:	outs   dx,BYTE PTR ds:[esi]
  404aea:	imul   sp,WORD PTR [edi+0x2e],0x6470
  404af0:	bound  eax,QWORD PTR [eax]
	...
  404b9a:	add    BYTE PTR [eax],al
  404b9c:	les    ecx,FWORD PTR [ebx+0x0]
	...
  404ba7:	add    dh,bl
  404ba9:	dec    ebx
  404baa:	add    BYTE PTR [eax],al
  404bac:	add    BYTE PTR [eax],ah
	...
  404bc2:	add    BYTE PTR [eax],al
  404bc4:	ror    BYTE PTR [ebx+0x0],1
	...
  404bcf:	add    BYTE PTR [eax],al
  404bd1:	add    BYTE PTR [edi+0x43],bl
  404bd4:	outs   dx,DWORD PTR ds:[esi]
  404bd5:	jb     0x404c1c
  404bd7:	js     0x404c3e
  404bd9:	dec    ebp
  404bda:	popa   
  404bdb:	imul   ebp,DWORD PTR [esi+0x0],0x6f63736d
  404be2:	jb     0x404c49
  404be4:	gs cs fs ins BYTE PTR es:[edi],dx
  404be8:	ins    BYTE PTR es:[edi],dx
  404be9:	add    BYTE PTR [eax],al
  404beb:	add    BYTE PTR [eax],al
  404bed:	add    bh,bh
  404bef:	and    eax,0x402000
