
c2b4237ffd1a0efe97fde1a25f18c3d75b9d17195061a1060798ef69b7d372f5.exe:     file format pei-i386


Disassembly of section .text:

00401000 <.text>:
  401000:	add    BYTE PTR [eax],al
  401002:	add    BYTE PTR [eax],al
  401004:	rol    BYTE PTR [edx+0x40],1
  401007:	add    BYTE PTR [eax],al
  401009:	sub    al,0x40
  40100b:	add    BYTE PTR [eax],dl
  40100d:	sub    al,0x40
  40100f:	add    BYTE PTR [eax],ah
  401011:	sub    al,0x40
  401013:	add    BYTE PTR [eax+0x2b],al
  401016:	inc    eax
  401017:	add    BYTE PTR [eax+0x2b],ah
  40101a:	inc    eax
  40101b:	add    al,al
  40101d:	sub    eax,DWORD PTR [eax+0x0]
  401020:	loopne 0x40104d
  401022:	inc    eax
	...
  40102b:	add    BYTE PTR [eax],al
  40102d:	inc    edx
  40102e:	inc    eax
  40102f:	add    al,al
  401031:	inc    esi
  401032:	inc    eax
  401033:	add    BYTE PTR [eax],al
  401035:	add    BYTE PTR [eax],al
  401037:	add    BYTE PTR [eax+0x29],ah
  40103a:	add    BYTE PTR [eax],al
  40103c:	inc    eax
  40103d:	sub    eax,DWORD PTR [eax]
  40103f:	add    BYTE PTR [eax+0x2b],ah
  401042:	add    BYTE PTR [eax],al
  401044:	shr    BYTE PTR [ebx],0x0
  401047:	add    al,ah
  401049:	sub    eax,DWORD PTR [eax]
  40104b:	add    BYTE PTR [eax],al
  40104d:	sub    al,0x0
  40104f:	add    BYTE PTR [eax],dl
  401051:	sub    al,0x0
  401053:	add    BYTE PTR [eax],ah
  401055:	sub    al,0x0
  401057:	add    BYTE PTR [eax+0x2c],al
  40105a:	add    BYTE PTR [eax],al
  40105c:	pusha  
  40105d:	sub    al,0x0
  40105f:	add    BYTE PTR [eax+0x2d],dl
  401062:	add    BYTE PTR [eax],al
  401064:	mov    al,ds:0xc000002d
  401069:	xor    DWORD PTR [eax],eax
  40106b:	add    al,dh
  40106d:	xor    DWORD PTR [eax],eax
  40106f:	add    BYTE PTR [eax+0x32],dl
  401072:	add    BYTE PTR [eax],al
  401074:	loopne 0x4010ab
  401076:	add    BYTE PTR [eax],al
  401078:	mov    al,ds:0xc000003a
  40107d:	cmp    al,0x0
  40107f:	add    BYTE PTR [eax+0x3d],al
  401082:	add    BYTE PTR [eax],al
  401084:	jo     0x4010c3
  401086:	add    BYTE PTR [eax],al
  401088:	add    BYTE PTR [edx+0x0],al
  40108b:	add    al,dl
  40108d:	inc    edx
  40108e:	add    BYTE PTR [eax],al
  401090:	push   eax
  401091:	inc    ebp
  401092:	add    BYTE PTR [eax],al
  401094:	pusha  
  401095:	inc    ebp
  401096:	add    BYTE PTR [eax],al
  401098:	xor    BYTE PTR [esi+0x0],al
  40109b:	add    BYTE PTR [eax+0x46],ah
  40109e:	add    BYTE PTR [eax],al
  4010a0:	jo     0x4010e8
  4010a2:	add    BYTE PTR [eax],al
  4010a4:	rol    BYTE PTR [esi+0x0],0x0
  4010a8:	mov    al,ds:0x30000049
  4010ad:	dec    edx
  4010ae:	add    BYTE PTR [eax],al
  4010b0:	mov    al,ds:0x4c
  4010b5:	dec    ebp
  4010b6:	add    BYTE PTR [eax],al
  4010b8:	pusha  
  4010b9:	dec    ebp
  4010ba:	add    BYTE PTR [eax],al
  4010bc:	jo     0x40110b
  4010be:	add    BYTE PTR [eax],al
  4010c0:	mov    al,ds:0xd000004d
  4010c5:	dec    ebp
  4010c6:	add    BYTE PTR [eax],al
  4010c8:	add    BYTE PTR [esi+0x0],cl
  4010cb:	add    al,al
  4010cd:	push   ecx
  4010ce:	add    BYTE PTR [eax],al
  4010d0:	add    BYTE PTR [edx+0x0],dl
  4010d3:	add    BYTE PTR [eax],ah
  4010d5:	push   edx
  4010d6:	add    BYTE PTR [eax],al
  4010d8:	push   eax
  4010d9:	push   edx
  4010da:	add    BYTE PTR [eax],al
  4010dc:	adc    BYTE PTR [ebx+0x0],0x0
  4010e0:	rcl    BYTE PTR [ebx+0x0],0x0
  4010e4:	add    BYTE PTR [eax+eax*1+0x0],dl
  4010e8:	inc    eax
  4010e9:	push   esp
  4010ea:	add    BYTE PTR [eax],al
  4010ec:	push   eax
  4010ed:	push   esp
  4010ee:	add    BYTE PTR [eax],al
  4010f0:	pusha  
  4010f1:	push   esp
  4010f2:	add    BYTE PTR [eax],al
  4010f4:	add    BYTE PTR [ebp+0x0],dl
  4010f7:	add    BYTE PTR [eax],ah
  4010f9:	push   ebp
  4010fa:	add    BYTE PTR [eax],al
  4010fc:	rcl    BYTE PTR [esi+0x0],0x0
  401100:	add    BYTE PTR [edi+0x0],dl
  401103:	add    BYTE PTR [eax+0x57],ah
  401106:	add    BYTE PTR [eax],al
  401108:	adc    BYTE PTR [edi+0x0],0x0
  40110c:	nop
  40110d:	push   edi
  40110e:	add    BYTE PTR [eax],al
  401110:	mov    al,ds:0xb0000057
  401115:	push   edi
	...
  40111e:	add    BYTE PTR [eax],al
  401120:	xor    BYTE PTR [esi+0x40],al
  401123:	add    BYTE PTR [eax-0xfffbf9f],ah
  401129:	popa   
  40112a:	inc    eax
  40112b:	add    al,dl
  40112d:	dec    ebp
  40112e:	inc    eax
  40112f:	add    BYTE PTR [eax],ah
  401131:	push   ebp
  401132:	inc    eax
  401133:	add    BYTE PTR [edx+0x61],ah
  401136:	and    BYTE PTR fs:[ecx+0x6c],ah
  40113a:	ins    BYTE PTR es:[edi],dx
  40113b:	outs   dx,DWORD PTR ds:[esi]
  40113c:	arpl   WORD PTR [ecx+0x74],sp
  40113f:	imul   ebp,DWORD PTR [edi+0x6e],0x4e000000
  401146:	inc    eax
  401147:	add    BYTE PTR [eax],ah
  401149:	push   ebp
  40114a:	inc    eax
  40114b:	add    BYTE PTR [eax+0x6000404d],ah
  401151:	inc    esi
  401152:	inc    eax
  401153:	add    BYTE PTR [eax+0x46],ah
  401156:	inc    eax
  401157:	add    BYTE PTR [eax],al
  401159:	push   edx
  40115a:	inc    eax
  40115b:	add    BYTE PTR [eax],ah
  40115d:	push   edx
  40115e:	inc    eax
  40115f:	add    BYTE PTR [eax+0x52],dl
  401162:	inc    eax
  401163:	add    BYTE PTR [eax+0x4000404d],ah
  401169:	push   esp
  40116a:	inc    eax
  40116b:	add    BYTE PTR [eax+0x4053],al
  401171:	push   edx
  401172:	inc    eax
  401173:	add    BYTE PTR [eax],ah
  401175:	push   edx
  401176:	inc    eax
  401177:	add    BYTE PTR [eax+0x52],dl
  40117a:	inc    eax
  40117b:	add    BYTE PTR [edi+0x65],ah
  40117e:	outs   dx,BYTE PTR ds:[esi]
  40117f:	gs jb  0x4011eb
  401182:	arpl   WORD PTR [eax],ax
  401184:	jne    0x4011f4
  401186:	imul   ebp,DWORD PTR [esi+0x6f],0x77
  40118a:	outs   dx,BYTE PTR ds:[esi]
  40118b:	and    BYTE PTR [ebp+0x72],ah
  40118e:	jb     0x4011ff
  401190:	jb     0x401192
  401192:	add    BYTE PTR [eax],al
  401194:	mov    al,ds:0x5000404d
  401199:	push   esp
  40119a:	inc    eax
  40119b:	add    al,al
  40119d:	push   ebx
  40119e:	inc    eax
  40119f:	add    BYTE PTR [eax],al
  4011a1:	push   edx
  4011a2:	inc    eax
  4011a3:	add    BYTE PTR [eax],ah
  4011a5:	push   edx
  4011a6:	inc    eax
  4011a7:	add    BYTE PTR [eax+0x52],dl
  4011aa:	inc    eax
  4011ab:	add    BYTE PTR [ecx+0x6f],ch
  4011ae:	jae    0x401224
  4011b0:	jb     0x401217
  4011b2:	popa   
  4011b3:	ins    DWORD PTR es:[edi],dx
  4011b4:	add    BYTE PTR [eax],al
  4011b6:	add    BYTE PTR [eax],al
  4011b8:	imul   ebp,DWORD PTR [edi+0x73],0x61657274
  4011bf:	ins    DWORD PTR es:[edi],dx
  4011c0:	and    BYTE PTR [ebx+0x74],dh
  4011c3:	jb     0x40122a
  4011c5:	popa   
  4011c6:	ins    DWORD PTR es:[edi],dx
  4011c7:	and    BYTE PTR [ebp+0x72],ah
  4011ca:	jb     0x40123b
  4011cc:	jb     0x4011ce
  4011ce:	add    BYTE PTR [eax],al
  4011d0:	mov    al,ds:0x6000404d
  4011d5:	push   esp
  4011d6:	inc    eax
  4011d7:	add    BYTE PTR [eax],al
  4011d9:	push   esp
  4011da:	inc    eax
  4011db:	add    al,al
  4011dd:	push   ecx
  4011de:	inc    eax
  4011df:	add    BYTE PTR [eax],ah
  4011e1:	push   edx
  4011e2:	inc    eax
  4011e3:	add    BYTE PTR [eax+0x52],dl
  4011e6:	inc    eax
  4011e7:	add    BYTE PTR [ebx+0x79],dh
  4011ea:	jae    0x401260
  4011ec:	gs ins DWORD PTR es:[edi],dx
  4011ee:	add    BYTE PTR [eax],al
  4011f0:	imul   ebp,DWORD PTR [esi+0x76],0x64696c61
  4011f7:	and    BYTE PTR [ebx+0x74],dh
  4011fa:	jb     0x401265
  4011fc:	outs   dx,BYTE PTR ds:[esi]
  4011fd:	and    BYTE PTR [bx+si+0x6f],dh
  401201:	jae    0x40126c
  401203:	je     0x40126e
  401205:	outs   dx,DWORD PTR ds:[esi]
  401206:	outs   dx,BYTE PTR ds:[esi]
  401207:	add    BYTE PTR [ebx+0x74],dh
  40120a:	jb     0x401275
  40120c:	outs   dx,BYTE PTR ds:[esi]
  40120d:	and    BYTE PTR [si+0x6f],dh
  401211:	outs   dx,DWORD PTR ds:[esi]
  401212:	and    BYTE PTR [edi+ebp*2+0x6e],ch
  401216:	add    BYTE PTR [di],al
  401219:	add    BYTE PTR [eax],al
  40121b:	add    BYTE PTR [eax+0x14],dh
  40121e:	inc    eax
  40121f:	add    BYTE PTR [edi-0x7c000000],dh
  401225:	adc    al,0x40
  401227:	add    BYTE PTR [eax+eax*1],dl
  40122a:	add    BYTE PTR [eax],al
  40122c:	nop
  40122d:	adc    al,0x40
  40122f:	add    BYTE PTR [edi+0x0],ch
  401232:	add    BYTE PTR [eax],al
  401234:	mov    al,ds:0xaa004014
  401239:	add    BYTE PTR [eax],al
  40123b:	add    BYTE PTR [esp+edx*1+0x8e0040],dh
  401242:	add    BYTE PTR [eax],al
  401244:	mov    ah,0x14
  401246:	inc    eax
  401247:	add    BYTE PTR [edx+0x0],dl
  40124a:	add    BYTE PTR [eax],al
  40124c:	jo     0x401262
  40124e:	inc    eax
  40124f:	add    bl,dh
  401251:	add    eax,DWORD PTR [eax]
  401253:	add    ah,cl
  401255:	adc    al,0x40
  401257:	add    ah,dh
  401259:	add    eax,DWORD PTR [eax]
  40125b:	add    ah,cl
  40125d:	adc    al,0x40
  40125f:	add    ch,dh
  401261:	add    eax,DWORD PTR [eax]
  401263:	add    ah,cl
  401265:	adc    al,0x40
  401267:	add    BYTE PTR [eax],dl
  401269:	add    BYTE PTR [eax],al
  40126b:	add    BYTE PTR [eax+0x14],dh
  40126e:	inc    eax
  40126f:	add    BYTE PTR [edi],dh
  401271:	add    BYTE PTR [eax],al
  401273:	add    BYTE PTR [eax+0x64004014],dl
  401279:	or     DWORD PTR [eax],eax
  40127b:	add    BYTE PTR [esp+edx*1+0x910040],dh
  401282:	add    BYTE PTR [eax],al
  401284:	fcom   DWORD PTR [eax+eax*2]
  401287:	add    BYTE PTR [ebx],cl
  401289:	add    DWORD PTR [eax],eax
  40128b:	add    ah,ch
  40128d:	adc    al,0x40
  40128f:	add    BYTE PTR [eax+0x0],dh
  401292:	add    BYTE PTR [eax],al
  401294:	add    BYTE PTR ds:0x500040,dl
  40129a:	add    BYTE PTR [eax],al
  40129c:	test   BYTE PTR [eax+eax*2],dl
  40129f:	add    BYTE PTR [edx],al
  4012a1:	add    BYTE PTR [eax],al
  4012a3:	add    BYTE PTR [edx*1+0x270040],dl
  4012aa:	add    BYTE PTR [eax],al
  4012ac:	add    BYTE PTR ds:0xc0040,dl
  4012b2:	add    BYTE PTR [eax],al
  4012b4:	jo     0x4012ca
  4012b6:	inc    eax
  4012b7:	add    BYTE PTR [edi],cl
  4012b9:	add    BYTE PTR [eax],al
  4012bb:	add    BYTE PTR [eax+0x1004014],dl
  4012c1:	add    BYTE PTR [eax],al
  4012c3:	add    BYTE PTR [eax],dh
  4012c5:	adc    eax,0x60040
  4012ca:	add    BYTE PTR [eax],al
  4012cc:	in     al,dx
  4012cd:	adc    al,0x40
  4012cf:	add    BYTE PTR [ebx+0x0],bh
  4012d2:	add    BYTE PTR [eax],al
  4012d4:	in     al,dx
  4012d5:	adc    al,0x40
  4012d7:	add    BYTE PTR [ecx],ah
  4012d9:	add    BYTE PTR [eax],al
  4012db:	add    BYTE PTR [eax+0x15],cl
  4012de:	inc    eax
  4012df:	add    ah,dl
  4012e1:	add    BYTE PTR [eax],al
  4012e3:	add    BYTE PTR [eax+0x15],cl
  4012e6:	inc    eax
  4012e7:	add    BYTE PTR [ebx-0x14000000],al
  4012ed:	adc    al,0x40
  4012ef:	add    dh,ah
  4012f1:	add    eax,DWORD PTR [eax]
  4012f3:	add    BYTE PTR [eax+0x14],dh
  4012f6:	inc    eax
  4012f7:	add    BYTE PTR [eax],cl
  4012f9:	add    BYTE PTR [eax],al
  4012fb:	add    BYTE PTR [ebp+edx*1+0x40],bl
  4012ff:	add    BYTE PTR ds:0x70000000,dl
  401305:	adc    eax,0x110040
  40130a:	add    BYTE PTR [eax],al
  40130c:	nop
  40130d:	adc    eax,0x6e0040
  401312:	add    BYTE PTR [eax],al
  401314:	int3   
  401315:	adc    al,0x40
  401317:	add    BYTE PTR [ecx+0x9],ah
  40131a:	add    BYTE PTR [eax],al
  40131c:	mov    ah,0x14
  40131e:	inc    eax
  40131f:	add    bl,ah
  401321:	add    eax,DWORD PTR [eax]
  401323:	add    BYTE PTR [ebp+edx*1+0xe0040],ah
  40132a:	add    BYTE PTR [eax],al
  40132c:	pop    esp
  40132d:	adc    eax,0x30040
  401332:	add    BYTE PTR [eax],al
  401334:	adc    al,0x15
  401336:	inc    eax
  401337:	add    BYTE PTR [esi],bl
  401339:	add    BYTE PTR [eax],al
  40133b:	add    ah,cl
  40133d:	adc    al,0x40
  40133f:	add    ch,dl
  401341:	add    al,0x0
  401343:	add    BYTE PTR [eax+0x15],dh
  401346:	inc    eax
  401347:	add    BYTE PTR [ecx],bl
  401349:	add    BYTE PTR [eax],al
  40134b:	add    ah,cl
  40134d:	adc    al,0x40
  40134f:	add    BYTE PTR [eax],ah
  401351:	add    BYTE PTR [eax],al
  401353:	add    BYTE PTR [eax+0x14],dh
  401356:	inc    eax
  401357:	add    BYTE PTR [eax+eax*1],al
  40135a:	add    BYTE PTR [eax],al
  40135c:	mov    eax,0x1d004015
  401361:	add    BYTE PTR [eax],al
  401363:	add    ah,cl
  401365:	adc    al,0x40
  401367:	add    BYTE PTR [ebx],dl
  401369:	add    BYTE PTR [eax],al
  40136b:	add    BYTE PTR [eax+0x14],dh
  40136e:	inc    eax
  40136f:	add    BYTE PTR ds:0xcc000027,bl
  401375:	adc    eax,0x27400040
  40137a:	add    BYTE PTR [eax],al
  40137c:	loopne 0x401393
  40137e:	inc    eax
  40137f:	add    BYTE PTR [ecx+0x27],al
  401382:	add    BYTE PTR [eax],al
  401384:	lock adc eax,0x273f0040
  40138a:	add    BYTE PTR [eax],al
  40138c:	or     BYTE PTR [esi],dl
  40138e:	inc    eax
  40138f:	add    BYTE PTR ds:0x28000027,dh
  401395:	push   ss
  401396:	inc    eax
  401397:	add    BYTE PTR [ecx],bl
  401399:	daa    
  40139a:	add    BYTE PTR [eax],al
  40139c:	dec    eax
  40139d:	push   ss
  40139e:	inc    eax
  40139f:	add    BYTE PTR [ebp+0x27],al
  4013a2:	add    BYTE PTR [eax],al
  4013a4:	pop    esp
  4013a5:	push   ss
  4013a6:	inc    eax
  4013a7:	add    BYTE PTR [ebp+0x27],cl
  4013aa:	add    BYTE PTR [eax],al
  4013ac:	jo     0x4013c4
  4013ae:	inc    eax
  4013af:	add    BYTE PTR [esi+0x27],al
  4013b2:	add    BYTE PTR [eax],al
  4013b4:	test   BYTE PTR [esi],dl
  4013b6:	inc    eax
  4013b7:	add    BYTE PTR [edi],dh
  4013b9:	daa    
  4013ba:	add    BYTE PTR [eax],al
  4013bc:	cwde   
  4013bd:	push   ss
  4013be:	inc    eax
  4013bf:	add    BYTE PTR [esi],bl
  4013c1:	daa    
  4013c2:	add    BYTE PTR [eax],al
  4013c4:	mov    eax,0x51004016
  4013c9:	daa    
  4013ca:	add    BYTE PTR [eax],al
  4013cc:	les    edx,FWORD PTR [esi]
  4013ce:	inc    eax
  4013cf:	add    BYTE PTR [edi+eiz*1],dh
  4013d2:	add    BYTE PTR [eax],al
  4013d4:	fcom   DWORD PTR [esi]
  4013d6:	inc    eax
  4013d7:	add    BYTE PTR [edi+eiz*1],dl
  4013da:	add    BYTE PTR [eax],al
  4013dc:	lock push ss
  4013de:	inc    eax
  4013df:	add    BYTE PTR [esi],ah
  4013e1:	daa    
  4013e2:	add    BYTE PTR [eax],al
  4013e4:	cld    
  4013e5:	push   ss
  4013e6:	inc    eax
  4013e7:	add    BYTE PTR [eax+0x27],cl
  4013ea:	add    BYTE PTR [eax],al
  4013ec:	adc    BYTE PTR [edi],dl
  4013ee:	inc    eax
  4013ef:	add    BYTE PTR [eax],ch
  4013f1:	daa    
  4013f2:	add    BYTE PTR [eax],al
  4013f4:	and    al,0x17
  4013f6:	inc    eax
  4013f7:	add    BYTE PTR [eax],bh
  4013f9:	daa    
  4013fa:	add    BYTE PTR [eax],al
  4013fc:	cmp    BYTE PTR [edi],dl
  4013fe:	inc    eax
  4013ff:	add    BYTE PTR [edi+0x27],cl
  401402:	add    BYTE PTR [eax],al
  401404:	dec    eax
  401405:	pop    ss
  401406:	inc    eax
  401407:	add    BYTE PTR [edx+0x27],al
  40140a:	add    BYTE PTR [eax],al
  40140c:	pop    esp
  40140d:	pop    ss
  40140e:	inc    eax
  40140f:	add    BYTE PTR [edi+eiz*1+0x0],al
  401413:	add    BYTE PTR [edi+edx*1+0x40],ch
  401417:	add    BYTE PTR [ebx+0x27],al
  40141a:	add    BYTE PTR [eax],al
  40141c:	jl     0x401435
  40141e:	inc    eax
  40141f:	add    BYTE PTR [edi+0x27],al
  401422:	add    BYTE PTR [eax],al
  401424:	nop
  401425:	pop    ss
  401426:	inc    eax
  401427:	add    BYTE PTR [edx],bh
  401429:	daa    
  40142a:	add    BYTE PTR [eax],al
  40142c:	mov    al,ds:0x49004017
  401431:	daa    
  401432:	add    BYTE PTR [eax],al
  401434:	mov    ah,0x17
  401436:	inc    eax
  401437:	add    BYTE PTR [esi],dh
  401439:	daa    
  40143a:	add    BYTE PTR [eax],al
  40143c:	les    edx,FWORD PTR [edi]
  40143e:	inc    eax
  40143f:	add    BYTE PTR ds:0xd4000027,bh
  401445:	pop    ss
  401446:	inc    eax
  401447:	add    BYTE PTR [ebx],bh
  401449:	daa    
  40144a:	add    BYTE PTR [eax],al
  40144c:	in     al,dx
  40144d:	pop    ss
  40144e:	inc    eax
  40144f:	add    BYTE PTR [ecx],bh
  401451:	daa    
  401452:	add    BYTE PTR [eax],al
  401454:	add    al,0x18
  401456:	inc    eax
  401457:	add    BYTE PTR [edi+eiz*1+0x0],cl
  40145b:	add    BYTE PTR [eax],bl
  40145d:	sbb    BYTE PTR [eax+0x0],al
  401460:	xor    esp,DWORD PTR [edi]
  401462:	add    BYTE PTR [eax],al
  401464:	and    al,0x18
  401466:	inc    eax
	...
  40146f:	add    BYTE PTR [eax+0x65],dh
  401472:	jb     0x4014e1
  401474:	imul   esi,DWORD PTR [ebx+0x73],0x206e6f69
  40147b:	fs outs dx,BYTE PTR gs:[esi]
  40147e:	imul   esp,DWORD PTR [ebp+0x64],0x66000000
  401485:	imul   ebp,DWORD PTR [ebp+eiz*2+0x20],0x73697865
  40148d:	je     0x401502
  40148f:	add    BYTE PTR [esi+0x6f],ch
  401492:	and    BYTE PTR [ebx+0x75],dh
  401495:	arpl   WORD PTR [eax+0x20],bp
  401498:	fs gs jbe 0x401505
  40149c:	arpl   WORD PTR [ebp+0x0],sp
  40149f:	add    BYTE PTR [esi+0x69],ah
  4014a2:	ins    BYTE PTR es:[edi],dx
  4014a3:	outs   dx,BYTE PTR gs:[esi]
  4014a5:	popa   
  4014a6:	ins    DWORD PTR es:[edi],dx
  4014a7:	and    BYTE PTR gs:[edi+ebp*2+0x6f],dh
  4014ac:	and    BYTE PTR [edi+ebp*2+0x6e],ch
  4014b0:	add    BYTE PTR [bx+si],al
  4014b3:	add    BYTE PTR [ebp+eiz*2+0x76],ah
  4014b7:	imul   esp,DWORD PTR [ebx+0x65],0x20726f20
  4014be:	jb     0x401525
  4014c0:	jae    0x401531
  4014c2:	jne    0x401536
  4014c4:	arpl   WORD PTR [ebp+0x20],sp
  4014c7:	bound  esi,QWORD PTR [ebp+0x73]
  4014ca:	jns    0x4014cc
  4014cc:	imul   ebp,DWORD PTR [edi+0x20],0x6f727265
  4014d3:	jb     0x4014d5
  4014d5:	add    BYTE PTR [eax],al
  4014d7:	add    BYTE PTR [ecx+ebp*2+0x72],ah
  4014db:	arpl   WORD PTR gs:[edi+ebp*2+0x72],si
  4014e0:	jns    0x401502
  4014e2:	outs   dx,BYTE PTR ds:[esi]
  4014e3:	outs   dx,DWORD PTR ds:[esi]
  4014e4:	je     0x401506
  4014e6:	gs ins DWORD PTR es:[edi],dx
  4014e8:	jo     0x40155e
  4014ea:	jns    0x4014ec
  4014ec:	imul   ebp,DWORD PTR [esi+0x76],0x64696c61
  4014f3:	and    BYTE PTR [ecx+0x72],ah
  4014f6:	addr16 jne 0x401566
  4014f9:	outs   dx,BYTE PTR gs:[esi]
  4014fb:	je     0x4014fd
  4014fd:	add    BYTE PTR [eax],al
  4014ff:	add    BYTE PTR [esi+0x6f],ch
  401502:	and    BYTE PTR [ebx+0x70],dh
  401505:	popa   
  401506:	arpl   WORD PTR [ebp+0x20],sp
  401509:	outs   dx,DWORD PTR ds:[esi]
  40150a:	outs   dx,BYTE PTR ds:[esi]
  40150b:	and    BYTE PTR [ebp+eiz*2+0x76],ah
  40150f:	imul   esp,DWORD PTR [ebx+0x65],0x6f6e0000
  401516:	and    BYTE PTR [ebx+0x75],dh
  401519:	arpl   WORD PTR [eax+0x20],bp
  40151c:	imul   bp,WORD PTR [ebp+eiz*2+0x20],0x726f
  401523:	and    BYTE PTR [ecx+ebp*2+0x72],ah
  401527:	arpl   WORD PTR gs:[edi+ebp*2+0x72],si
  40152c:	jns    0x40152e
  40152e:	add    BYTE PTR [eax],al
  401530:	data16 jne 0x4015a1
  401533:	arpl   WORD PTR [ecx+ebp*2+0x6f],si
  401537:	outs   dx,BYTE PTR ds:[esi]
  401538:	and    BYTE PTR [esi+0x6f],ch
  40153b:	je     0x40155d
  40153d:	jae    0x4015b4
  40153f:	jo     0x4015b1
  401541:	outs   dx,DWORD PTR ds:[esi]
  401542:	jb     0x4015b8
  401544:	gs add BYTE PTR fs:[eax],al
  401548:	outs   dx,BYTE PTR ds:[esi]
  401549:	outs   dx,DWORD PTR ds:[esi]
  40154a:	and    BYTE PTR [edi+ebp*2+0x63],ch
  40154e:	imul   esp,DWORD PTR [eax],0x61
  401551:	jbe    0x4015b4
  401553:	imul   ebp,DWORD PTR [ecx+eiz*2+0x62],0x656c
  40155b:	add    BYTE PTR [esi+0x6f],ch
  40155e:	je     0x401580
  401560:	outs   dx,BYTE PTR gs:[esi]
  401562:	outs   dx,DWORD PTR ds:[esi]
  401563:	jne    0x4015cc
  401565:	push   0x6d656d20
  40156a:	outs   dx,DWORD PTR ds:[esi]
  40156b:	jb     0x4015e6
  40156d:	add    BYTE PTR [eax],al
  40156f:	add    BYTE PTR [edx+0x65],dh
  401572:	jae    0x4015e3
  401574:	jne    0x4015e8
  401576:	arpl   WORD PTR [ebp+0x20],sp
  401579:	jne    0x4015e9
  40157b:	popa   
  40157c:	jbe    0x4015df
  40157e:	imul   ebp,DWORD PTR [ecx+eiz*2+0x62],0x7420656c
  401586:	jb     0x401601
  401588:	and    BYTE PTR [ecx+0x67],ah
  40158b:	popa   
  40158c:	imul   ebp,DWORD PTR [esi+0x0],0x6f726300
  401593:	jae    0x401608
  401595:	and    BYTE PTR [ebp+eiz*2+0x76],ah
  401599:	imul   esp,DWORD PTR [ebx+0x65],0x6e696c20
  4015a0:	imul   eax,DWORD PTR [eax],0x0
  4015a3:	add    BYTE PTR [edi+0x70],ch
  4015a6:	gs jb  0x40160a
  4015a9:	je     0x401614
  4015ab:	outs   dx,DWORD PTR ds:[esi]
  4015ac:	outs   dx,BYTE PTR ds:[esi]
  4015ad:	and    BYTE PTR [ebx+0x61],ah
  4015b0:	outs   dx,BYTE PTR ds:[esi]
  4015b1:	arpl   WORD PTR [ebp+0x6c],sp
  4015b4:	gs add BYTE PTR fs:[eax],al
  4015b8:	je     0x401629
  4015ba:	outs   dx,DWORD PTR ds:[esi]
  4015bb:	and    BYTE PTR [ebp+0x61],ch
  4015be:	outs   dx,BYTE PTR ds:[esi]
  4015bf:	jns    0x4015e1
  4015c1:	imul   bp,WORD PTR [ebp+eiz*2+0x73],0x6f20
  4015c8:	jo     0x40162f
  4015ca:	outs   dx,BYTE PTR ds:[esi]
  4015cb:	add    BYTE PTR [eax+0x65],dh
  4015ce:	jb     0x40163d
  4015d0:	imul   esi,DWORD PTR [ebx+0x73],0x5f6e6f69
  4015d7:	fs outs dx,BYTE PTR gs:[esi]
  4015da:	imul   esp,DWORD PTR [ebp+0x64],0x61000000
  4015e1:	fs fs jb 0x40164a
  4015e5:	jae    0x40165a
  4015e7:	pop    edi
  4015e8:	imul   ebp,DWORD PTR [esi+0x5f],0x657375
  4015ef:	add    BYTE PTR [ecx+0x64],ah
  4015f2:	fs jb  0x40165a
  4015f5:	jae    0x40166a
  4015f7:	pop    edi
  4015f8:	outs   dx,BYTE PTR ds:[esi]
  4015f9:	outs   dx,DWORD PTR ds:[esi]
  4015fa:	je     0x40165b
  4015fc:	popa   
  4015fd:	jbe    0x401660
  4015ff:	imul   ebp,DWORD PTR [ecx+eiz*2+0x62],0x656c
  401607:	add    BYTE PTR [ecx+0x64],ah
  40160a:	fs jb  0x401672
  40160d:	jae    0x401682
  40160f:	pop    edi
  401610:	popaw  
  401612:	ins    DWORD PTR es:[edi],dx
  401613:	imul   ebp,DWORD PTR [ecx+edi*2+0x5f],0x5f746f6e
  40161b:	jae    0x401692
  40161d:	jo     0x40168f
  40161f:	outs   dx,DWORD PTR ds:[esi]
  401620:	jb     0x401696
  401622:	gs add BYTE PTR fs:[eax],al
  401626:	add    BYTE PTR [eax],al
  401628:	arpl   WORD PTR [edi+0x6e],bp
  40162b:	outs   dx,BYTE PTR ds:[esi]
  40162c:	arpl   WORD PTR gs:[ecx+ebp*2+0x6f],si
  401631:	outs   dx,BYTE PTR ds:[esi]
  401632:	pop    edi
  401633:	popa   
  401634:	ins    BYTE PTR es:[edi],dx
  401635:	jb     0x40169c
  401637:	popa   
  401638:	fs jns 0x40169a
  40163b:	imul   ebp,DWORD PTR [esi+0x5f],0x676f7270
  401642:	jb     0x4016a9
  401644:	jae    0x4016b9
  401646:	add    BYTE PTR [eax],al
  401648:	bound  esp,QWORD PTR [ecx+0x64]
  40164b:	pop    edi
  40164c:	imul   bp,WORD PTR [ebp+eiz*2+0x5f],0x6564
  401653:	jae    0x4016b8
  401655:	jb     0x4016c0
  401657:	jo     0x4016cd
  401659:	outs   dx,DWORD PTR ds:[esi]
  40165a:	jb     0x40165c
  40165c:	arpl   WORD PTR [edi+0x6e],bp
  40165f:	outs   dx,BYTE PTR ds:[esi]
  401660:	arpl   WORD PTR gs:[ecx+ebp*2+0x6f],si
  401665:	outs   dx,BYTE PTR ds:[esi]
  401666:	pop    edi
  401667:	popa   
  401668:	bound  ebp,QWORD PTR [edi+0x72]
  40166b:	je     0x4016d2
  40166d:	add    BYTE PTR fs:[eax],al
  401670:	arpl   WORD PTR [edi+0x6e],bp
  401673:	outs   dx,BYTE PTR ds:[esi]
  401674:	arpl   WORD PTR gs:[ecx+ebp*2+0x6f],si
  401679:	outs   dx,BYTE PTR ds:[esi]
  40167a:	pop    edi
  40167b:	jb     0x4016e2
  40167d:	data16 jne 0x4016f3
  401680:	gs add BYTE PTR fs:[eax],al
  401684:	arpl   WORD PTR [edi+0x6e],bp
  401687:	outs   dx,BYTE PTR ds:[esi]
  401688:	arpl   WORD PTR gs:[ecx+ebp*2+0x6f],si
  40168d:	outs   dx,BYTE PTR ds:[esi]
  40168e:	pop    edi
  40168f:	jb     0x4016f6
  401691:	jae    0x4016f8
  401693:	je     0x401695
  401695:	add    BYTE PTR [eax],al
  401697:	add    BYTE PTR [ebp+eiz*2+0x73],ah
  40169b:	je     0x401706
  40169d:	outs   dx,BYTE PTR ds:[esi]
  40169e:	popa   
  40169f:	je     0x40170a
  4016a1:	outs   dx,DWORD PTR ds:[esi]
  4016a2:	outs   dx,BYTE PTR ds:[esi]
  4016a3:	pop    edi
  4016a4:	popa   
  4016a5:	fs fs jb 0x40170e
  4016a9:	jae    0x40171e
  4016ab:	pop    edi
  4016ac:	jb     0x401713
  4016ae:	jno    0x401725
  4016b0:	imul   esi,DWORD PTR [edx+0x65],0x64
  4016b7:	add    BYTE PTR [edx+0x61],ah
  4016ba:	fs pop edi
  4016bc:	popa   
  4016bd:	fs fs jb 0x401726
  4016c1:	jae    0x401736
  4016c3:	add    BYTE PTR [eax+0x6f],ch
  4016c6:	jae    0x40173c
  4016c8:	pop    edi
  4016c9:	jne    0x401739
  4016cb:	jb     0x401732
  4016cd:	popa   
  4016ce:	arpl   WORD PTR [eax+0x61],bp
  4016d1:	bound  ebp,QWORD PTR [ebp+eiz*2+0x0]
  4016d5:	add    BYTE PTR [eax],al
  4016d7:	add    BYTE PTR [edi+0x70],ch
  4016da:	gs jb  0x40173e
  4016dd:	je     0x401748
  4016df:	outs   dx,DWORD PTR ds:[esi]
  4016e0:	outs   dx,BYTE PTR ds:[esi]
  4016e1:	pop    edi
  4016e2:	imul   ebp,DWORD PTR [esi+0x5f],0x676f7270
  4016e9:	jb     0x401750
  4016eb:	jae    0x401760
  4016ed:	add    BYTE PTR [eax],al
  4016ef:	add    BYTE PTR [ecx+0x6e],ch
  4016f2:	je     0x401759
  4016f4:	jb     0x401768
  4016f6:	jne    0x401768
  4016f8:	je     0x40175f
  4016fa:	add    BYTE PTR fs:[ecx+0x6e],ch
  4016fe:	jbe    0x401761
  401700:	ins    BYTE PTR es:[edi],dx
  401701:	imul   esp,DWORD PTR [edi+ebx*2+0x61],0x6d756772
  401709:	outs   dx,BYTE PTR gs:[esi]
  40170b:	je     0x40170d
  40170d:	add    BYTE PTR [eax],al
  40170f:	add    BYTE PTR [ecx+0x6c],ah
  401712:	jb     0x401779
  401714:	popa   
  401715:	fs jns 0x401777
  401718:	arpl   WORD PTR [edi+0x6e],bp
  40171b:	outs   dx,BYTE PTR ds:[esi]
  40171c:	arpl   WORD PTR gs:[ebp+eiz*2+0x64],si
  401721:	add    BYTE PTR [eax],al
  401723:	add    BYTE PTR [edi+ebp*2+0x6f],dh
  401727:	pop    edi
  401728:	ins    DWORD PTR es:[edi],dx
  401729:	popa   
  40172a:	outs   dx,BYTE PTR ds:[esi]
  40172b:	jns    0x40178c
  40172d:	imul   bp,WORD PTR [ebp+eiz*2+0x73],0x6f5f
  401734:	jo     0x40179b
  401736:	outs   dx,BYTE PTR ds:[esi]
  401737:	add    BYTE PTR [ebp+0x65],ch
  40173a:	jae    0x4017af
  40173c:	popa   
  40173d:	addr16 gs pop edi
  401740:	jae    0x4017ab
  401742:	jp     0x4017a9
  401744:	add    BYTE PTR [eax],al
  401746:	add    BYTE PTR [eax],al
  401748:	imul   bp,WORD PTR [ebp+eiz*2+0x6e],0x6d61
  40174f:	gs pop edi
  401751:	je     0x4017c2
  401753:	outs   dx,DWORD PTR ds:[esi]
  401754:	pop    edi
  401755:	ins    BYTE PTR es:[edi],dx
  401756:	outs   dx,DWORD PTR ds:[esi]
  401757:	outs   dx,BYTE PTR ds:[esi]
  401758:	add    BYTE PTR [bx+si],al
  40175b:	add    BYTE PTR [esi+0x65],ch
  40175e:	je     0x4017d7
  401760:	outs   dx,DWORD PTR ds:[esi]
  401761:	jb     0x4017ce
  401763:	pop    edi
  401764:	outs   dx,DWORD PTR fs:[esi]
  401766:	ja     0x4017d6
  401768:	add    BYTE PTR [eax],al
  40176a:	add    BYTE PTR [eax],al
  40176c:	outs   dx,BYTE PTR ds:[esi]
  40176d:	gs je  0x4017e7
  401770:	outs   dx,DWORD PTR ds:[esi]
  401771:	jb     0x4017de
  401773:	pop    edi
  401774:	jb     0x4017db
  401776:	jae    0x4017dd
  401778:	je     0x40177a
  40177a:	add    BYTE PTR [eax],al
  40177c:	outs   dx,BYTE PTR ds:[esi]
  40177d:	gs je  0x4017f7
  401780:	outs   dx,DWORD PTR ds:[esi]
  401781:	jb     0x4017ee
  401783:	pop    edi
  401784:	jne    0x4017f4
  401786:	jb     0x4017ed
  401788:	popa   
  401789:	arpl   WORD PTR [eax+0x61],bp
  40178c:	bound  ebp,QWORD PTR [ebp+eiz*2+0x0]
  401790:	outs   dx,BYTE PTR ds:[esi]
  401791:	outs   dx,DWORD PTR ds:[esi]
  401792:	pop    edi
  401793:	bound  esi,QWORD PTR [ebp+0x66]
  401796:	data16 gs jb 0x4017f9
  40179a:	jae    0x40180c
  40179c:	popa   
  40179d:	arpl   WORD PTR [ebp+0x0],sp
  4017a0:	outs   dx,BYTE PTR ds:[esi]
  4017a1:	outs   dx,DWORD PTR ds:[esi]
  4017a2:	pop    edi
  4017a3:	jo     0x401817
  4017a5:	outs   dx,DWORD PTR ds:[esi]
  4017a6:	je     0x401817
  4017a8:	arpl   WORD PTR [edi+0x6c],bp
  4017ab:	pop    edi
  4017ac:	outs   dx,DWORD PTR ds:[esi]
  4017ad:	jo     0x401823
  4017af:	imul   ebp,DWORD PTR [edi+0x6e],0x6f6e0000
  4017b6:	je     0x401817
  4017b8:	arpl   WORD PTR [edi+0x6e],bp
  4017bb:	outs   dx,BYTE PTR ds:[esi]
  4017bc:	arpl   WORD PTR gs:[ebp+eiz*2+0x64],si
  4017c1:	add    BYTE PTR [eax],al
  4017c3:	add    BYTE PTR [esi+0x6f],ch
  4017c6:	je     0x401827
  4017c8:	popa   
  4017c9:	pop    edi
  4017ca:	jae    0x40183b
  4017cc:	arpl   WORD PTR [ebx+0x65],bp
  4017cf:	je     0x4017d1
  4017d1:	add    BYTE PTR [eax],al
  4017d3:	add    BYTE PTR [edi+0x70],ch
  4017d6:	gs jb  0x40183a
  4017d9:	je     0x401844
  4017db:	outs   dx,DWORD PTR ds:[esi]
  4017dc:	outs   dx,BYTE PTR ds:[esi]
  4017dd:	pop    edi
  4017de:	outs   dx,BYTE PTR ds:[esi]
  4017df:	outs   dx,DWORD PTR ds:[esi]
  4017e0:	je     0x401841
  4017e2:	jae    0x401859
  4017e4:	jo     0x401856
  4017e6:	outs   dx,DWORD PTR ds:[esi]
  4017e7:	jb     0x40185d
  4017e9:	gs add BYTE PTR fs:[eax+0x72],dh
  4017ee:	outs   dx,DWORD PTR ds:[esi]
  4017ef:	je     0x401860
  4017f1:	arpl   WORD PTR [edi+0x6c],bp
  4017f4:	pop    edi
  4017f5:	outs   dx,BYTE PTR ds:[esi]
  4017f6:	outs   dx,DWORD PTR ds:[esi]
  4017f7:	je     0x401858
  4017f9:	jae    0x401870
  4017fb:	jo     0x40186d
  4017fd:	outs   dx,DWORD PTR ds:[esi]
  4017fe:	jb     0x401874
  401800:	gs add BYTE PTR fs:[eax],al
  401804:	ja     0x401878
  401806:	outs   dx,DWORD PTR ds:[esi]
  401807:	outs   dx,BYTE PTR ds:[esi]
  401808:	addr16 pop edi
  40180a:	jo     0x40187e
  40180c:	outs   dx,DWORD PTR ds:[esi]
  40180d:	je     0x40187e
  40180f:	arpl   WORD PTR [edi+0x6c],bp
  401812:	pop    edi
  401813:	je     0x40188e
  401815:	jo     0x40187c
  401817:	add    BYTE PTR [ecx+ebp*2+0x6d],dh
  40181b:	gs fs pop edi
  40181e:	outs   dx,DWORD PTR ds:[esi]
  40181f:	jne    0x401895
  401821:	add    BYTE PTR [eax],al
  401823:	add    BYTE PTR [edi+0x70],ch
  401826:	gs jb  0x40188a
  401829:	je     0x401894
  40182b:	outs   dx,DWORD PTR ds:[esi]
  40182c:	outs   dx,BYTE PTR ds:[esi]
  40182d:	pop    edi
  40182e:	ja     0x40189f
  401830:	jne    0x40189e
  401832:	fs pop edi
  401834:	bound  ebp,QWORD PTR [edi+ebp*2+0x63]
  401838:	imul   eax,DWORD PTR [eax],0x0
  40183b:	add    BYTE PTR [eax],al
  40183d:	add    BYTE PTR [eax],al
  40183f:	add    BYTE PTR [esi+0x0],ah
  401842:	add    BYTE PTR [eax],al
  401844:	mov    eax,0x6400401a
  401849:	add    BYTE PTR [eax],al
  40184b:	add    al,bl
  40184d:	sbb    al,BYTE PTR [eax+0x0]
  401850:	add    BYTE PTR gs:[eax],al
  401853:	add    al,ch
  401855:	sbb    al,BYTE PTR [eax+0x0]
  401858:	jno    0x40185a
  40185a:	add    BYTE PTR [eax],al
  40185c:	add    BYTE PTR [ebx],bl
  40185e:	inc    eax
  40185f:	add    BYTE PTR [edi],al
  401861:	add    BYTE PTR [eax],al
  401863:	add    BYTE PTR [ebx+ebx*1],dl
  401866:	inc    eax
  401867:	add    BYTE PTR [ecx],ah
  401869:	add    BYTE PTR [eax],al
  40186b:	add    BYTE PTR [ebx+ebx*1],ch
  40186e:	inc    eax
  40186f:	add    BYTE PTR [esi],cl
  401871:	add    BYTE PTR [eax],al
  401873:	add    BYTE PTR [ebx+ebx*1+0x40],al
  401877:	add    BYTE PTR [ecx],cl
  401879:	add    BYTE PTR [eax],al
  40187b:	add    BYTE PTR [eax+0x1b],dl
  40187e:	inc    eax
  40187f:	add    BYTE PTR [eax+0x0],ch
  401882:	add    BYTE PTR [eax],al
  401884:	sbb    eax,DWORD PTR fs:[eax+0x0]
  401888:	and    BYTE PTR [eax],al
  40188a:	add    BYTE PTR [eax],al
  40188c:	jo     0x4018a9
  40188e:	inc    eax
  40188f:	add    BYTE PTR [edx+0x0],ch
  401892:	add    BYTE PTR [eax],al
  401894:	jl     0x4018b1
  401896:	inc    eax
  401897:	add    BYTE PTR [edi+0x0],ah
  40189a:	add    BYTE PTR [eax],al
  40189c:	nop
  40189d:	sbb    eax,DWORD PTR [eax+0x0]
  4018a0:	imul   eax,DWORD PTR [eax],0x0
  4018a3:	add    BYTE PTR [eax+0x6c00401b],dh
  4018a9:	add    BYTE PTR [eax],al
  4018ab:	add    ah,al
  4018ad:	sbb    eax,DWORD PTR [eax+0x0]
  4018b0:	adc    al,BYTE PTR [eax]
  4018b2:	add    BYTE PTR [eax],al
  4018b4:	nop
  4018b5:	adc    eax,0x6d0040
  4018ba:	add    BYTE PTR [eax],al
  4018bc:	fcomp  DWORD PTR [ebx]
  4018be:	inc    eax
  4018bf:	add    BYTE PTR [eax],dl
  4018c1:	add    BYTE PTR [eax],al
  4018c3:	add    BYTE PTR [esp+edx*1+0x290040],dh
  4018ca:	add    BYTE PTR [eax],al
  4018cc:	fcom   DWORD PTR [eax+eax*2]
  4018cf:	add    BYTE PTR [eax],cl
  4018d1:	add    BYTE PTR [eax],al
  4018d3:	add    al,bh
  4018d5:	sbb    eax,DWORD PTR [eax+0x0]
  4018d8:	adc    DWORD PTR [eax],eax
  4018da:	add    BYTE PTR [eax],al
  4018dc:	test   BYTE PTR [eax+eax*2],dl
  4018df:	add    BYTE PTR [ebx],bl
  4018e1:	add    BYTE PTR [eax],al
  4018e3:	add    BYTE PTR [eax],dl
  4018e5:	sbb    al,0x40
  4018e7:	add    BYTE PTR [esi],ah
  4018e9:	add    BYTE PTR [eax],al
  4018eb:	add    BYTE PTR [eax+0x28004014],ah
  4018f1:	add    BYTE PTR [eax],al
  4018f3:	add    BYTE PTR [eax],dh
  4018f5:	adc    eax,0x6e0040
  4018fa:	add    BYTE PTR [eax],al
  4018fc:	and    BYTE PTR [eax+eax*2],bl
  4018ff:	add    BYTE PTR [edi+0x0],ch
  401902:	add    BYTE PTR [eax],al
  401904:	xor    al,0x1c
  401906:	inc    eax
  401907:	add    BYTE PTR [edx],ch
  401909:	add    BYTE PTR [eax],al
  40190b:	add    BYTE PTR [eax+0x1c],cl
  40190e:	inc    eax
  40190f:	add    BYTE PTR [ecx],bl
  401911:	add    BYTE PTR [eax],al
  401913:	add    BYTE PTR [eax+0x1c],ah
  401916:	inc    eax
  401917:	add    BYTE PTR [eax+eax*1],al
  40191a:	add    BYTE PTR [eax],al
  40191c:	lock push ss
  40191e:	inc    eax
  40191f:	add    BYTE PTR [esi],dl
  401921:	add    BYTE PTR [eax],al
  401923:	add    ah,ch
  401925:	adc    al,0x40
  401927:	add    BYTE PTR ds:0x84000000,bl
  40192d:	sbb    al,0x40
  40192f:	add    BYTE PTR ds:0xcc000000,al
  401935:	adc    al,0x40
  401937:	add    BYTE PTR ds:0x94000000,dl
  40193d:	sbb    al,0x40
  40193f:	add    BYTE PTR [ebx+0x0],dh
  401942:	add    BYTE PTR [eax],al
  401944:	movs   BYTE PTR es:[edi],BYTE PTR ds:[esi]
  401945:	sbb    al,0x40
  401947:	add    BYTE PTR [eax+eax*1+0x0],dh
  40194b:	add    BYTE PTR [esp+ebx*1+0x750040],dh
  401952:	add    BYTE PTR [eax],al
  401954:	les    ebx,FWORD PTR [eax+eax*2]
  401957:	add    BYTE PTR [esi+0x0],dh
  40195a:	add    BYTE PTR [eax],al
  40195c:	aam    0x1c
  40195e:	inc    eax
  40195f:	add    BYTE PTR [edi+0x0],dh
  401962:	add    BYTE PTR [eax],al
  401964:	call   0xa405985
  401969:	add    BYTE PTR [eax],al
  40196b:	add    al,bh
  40196d:	sbb    al,0x40
  40196f:	add    BYTE PTR [ecx+0x0],bh
  401972:	add    BYTE PTR [eax],al
  401974:	or     al,0x1d
  401976:	inc    eax
  401977:	add    BYTE PTR [edi],ah
  401979:	add    BYTE PTR [eax],al
  40197b:	add    BYTE PTR [eax+0x15],cl
  40197e:	inc    eax
  40197f:	add    BYTE PTR [eax+0x0],bh
  401982:	add    BYTE PTR [eax],al
  401984:	adc    al,0x1d
  401986:	inc    eax
  401987:	add    BYTE PTR [edx+0x0],bh
  40198a:	add    BYTE PTR [eax],al
  40198c:	sub    al,0x1d
  40198e:	inc    eax
  40198f:	add    BYTE PTR [ebx+0x0],bh
  401992:	add    BYTE PTR [eax],al
  401994:	cmp    BYTE PTR ds:0x1c0040,bl
  40199a:	add    BYTE PTR [eax],al
  40199c:	add    BYTE PTR ds:0x7c0040,dl
  4019a2:	add    BYTE PTR [eax],al
  4019a4:	dec    esp
  4019a5:	sbb    eax,0x60040
  4019aa:	add    BYTE PTR [eax],al
  4019ac:	pusha  
  4019ad:	sbb    eax,0x130040
  4019b2:	add    BYTE PTR [eax],al
  4019b4:	nop
  4019b5:	adc    al,0x40
  4019b7:	add    BYTE PTR [edx],al
  4019b9:	add    BYTE PTR [eax],al
  4019bb:	add    BYTE PTR [edx*1+0x30040],dl
  4019c2:	add    BYTE PTR [eax],al
  4019c4:	jl     0x4019e3
  4019c6:	inc    eax
  4019c7:	add    BYTE PTR [eax+eax*1],dl
  4019ca:	add    BYTE PTR [eax],al
  4019cc:	mov    WORD PTR ds:0x800040,ds
  4019d2:	add    BYTE PTR [eax],al
  4019d4:	pushf  
  4019d5:	sbb    eax,0x7d0040
  4019da:	add    BYTE PTR [eax],al
  4019dc:	lods   al,BYTE PTR ds:[esi]
  4019dd:	sbb    eax,0x7e0040
  4019e2:	add    BYTE PTR [eax],al
  4019e4:	mov    esp,0xc00401d
  4019e9:	add    BYTE PTR [eax],al
  4019eb:	add    BYTE PTR [ebp+edx*1+0x40],bl
  4019ef:	add    BYTE PTR [ecx-0x34000000],al
  4019f5:	sbb    eax,0x690040
  4019fa:	add    BYTE PTR [eax],al
  4019fc:	movs   BYTE PTR es:[edi],BYTE PTR ds:[esi]
  4019fd:	adc    eax,0x700040
  401a02:	add    BYTE PTR [eax],al
  401a04:	fcomp  QWORD PTR ds:0x10040
  401a0a:	add    BYTE PTR [eax],al
  401a0c:	hlt    
  401a0d:	sbb    eax,0x820040
  401a12:	add    BYTE PTR [eax],al
  401a14:	or     al,0x1e
  401a16:	inc    eax
  401a17:	add    BYTE PTR [eax+eax*1+0x1e240000],cl
  401a1e:	inc    eax
  401a1f:	add    BYTE PTR [ebp+0x3c000000],al
  401a25:	push   ds
  401a26:	inc    eax
  401a27:	add    BYTE PTR ds:0x70000000,cl
  401a2d:	adc    al,0x40
  401a2f:	add    BYTE PTR [esi+0x48000000],al
  401a35:	push   ds
  401a36:	inc    eax
  401a37:	add    BYTE PTR [edi+0x58000000],al
  401a3d:	push   ds
  401a3e:	inc    eax
  401a3f:	add    BYTE PTR [esi],bl
  401a41:	add    BYTE PTR [eax],al
  401a43:	add    BYTE PTR [eax+0x1e],dh
  401a46:	inc    eax
  401a47:	add    BYTE PTR [eax+eax*1],ah
  401a4a:	add    BYTE PTR [eax],al
  401a4c:	mov    BYTE PTR [esi],bl
  401a4e:	inc    eax
  401a4f:	add    BYTE PTR [ebx],cl
  401a51:	add    BYTE PTR [eax],al
  401a53:	add    BYTE PTR [eax+0x15],dh
  401a56:	inc    eax
  401a57:	add    BYTE PTR [edx],ah
  401a59:	add    BYTE PTR [eax],al
  401a5b:	add    BYTE PTR [eax+0x7f00401e],ch
  401a61:	add    BYTE PTR [eax],al
  401a63:	add    BYTE PTR [esi+ebx*1+0x890040],bh
  401a6a:	add    BYTE PTR [eax],al
  401a6c:	aam    0x1e
  401a6e:	inc    eax
  401a6f:	add    BYTE PTR [ebx-0x1c000000],cl
  401a75:	push   ds
  401a76:	inc    eax
  401a77:	add    BYTE PTR [edx-0xc000000],cl
  401a7d:	push   ds
  401a7e:	inc    eax
  401a7f:	add    BYTE PTR [edi],dl
  401a81:	add    BYTE PTR [eax],al
  401a83:	add    BYTE PTR [eax],al
  401a85:	pop    ds
  401a86:	inc    eax
  401a87:	add    BYTE PTR [eax],bl
  401a89:	add    BYTE PTR [eax],al
  401a8b:	add    BYTE PTR [eax+0x1f004015],bh
  401a91:	add    BYTE PTR [eax],al
  401a93:	add    BYTE PTR [eax],ah
  401a95:	pop    ds
  401a96:	inc    eax
  401a97:	add    BYTE PTR [edx+0x0],dh
  401a9a:	add    BYTE PTR [eax],al
  401a9c:	xor    BYTE PTR [edi],bl
  401a9e:	inc    eax
  401a9f:	add    BYTE PTR [eax+eax*1+0x1f500000],al
  401aa6:	inc    eax
  401aa7:	add    BYTE PTR [eax+0x60000000],cl
  401aad:	pop    ds
  401aae:	inc    eax
	...
  401ab7:	add    BYTE PTR [ecx+0x64],ah
  401aba:	fs jb  0x401b22
  401abd:	jae    0x401b32
  401abf:	and    BYTE PTR [esi+0x61],ah
  401ac2:	ins    DWORD PTR es:[edi],dx
  401ac3:	imul   ebp,DWORD PTR [ecx+edi*2+0x20],0x20746f6e
  401acb:	jae    0x401b42
  401acd:	jo     0x401b3f
  401acf:	outs   dx,DWORD PTR ds:[esi]
  401ad0:	jb     0x401b46
  401ad2:	gs add BYTE PTR fs:[eax],al
  401ad6:	add    BYTE PTR [eax],al
  401ad8:	popa   
  401ad9:	fs fs jb 0x401b42
  401add:	jae    0x401b52
  401adf:	and    BYTE PTR [ecx+0x6e],ch
  401ae2:	and    BYTE PTR [ebp+0x73],dh
  401ae5:	add    BYTE PTR gs:[eax],al
  401ae8:	popa   
  401ae9:	fs fs jb 0x401b52
  401aed:	jae    0x401b62
  401aef:	and    BYTE PTR [esi+0x6f],ch
  401af2:	je     0x401b14
  401af4:	popa   
  401af5:	jbe    0x401b58
  401af7:	imul   ebp,DWORD PTR [ecx+eiz*2+0x62],0x656c
  401aff:	add    BYTE PTR [ecx+0x6c],ah
  401b02:	jb     0x401b69
  401b04:	popa   
  401b05:	fs jns 0x401b28
  401b08:	arpl   WORD PTR [edi+0x6e],bp
  401b0b:	outs   dx,BYTE PTR ds:[esi]
  401b0c:	arpl   WORD PTR gs:[ebp+eiz*2+0x64],si
  401b11:	add    BYTE PTR [eax],al
  401b13:	add    BYTE PTR [ecx+0x72],ah
  401b16:	addr16 jne 0x401b86
  401b19:	outs   dx,BYTE PTR gs:[esi]
  401b1b:	je     0x401b3d
  401b1d:	ins    BYTE PTR es:[edi],dx
  401b1e:	imul   esi,DWORD PTR [ebx+0x74],0x6f6f7420
  401b25:	and    BYTE PTR [edi+ebp*2+0x6e],ch
  401b29:	add    BYTE PTR [bx+si],al
  401b2c:	popa   
  401b2d:	jb     0x401b96
  401b2f:	jne    0x401b9e
  401b31:	outs   dx,BYTE PTR gs:[esi]
  401b33:	je     0x401b55
  401b35:	outs   dx,DWORD PTR ds:[esi]
  401b36:	jne    0x401bac
  401b38:	and    BYTE PTR [edi+0x66],ch
  401b3b:	and    BYTE PTR [edi+ebp*2+0x6d],ah
  401b3f:	popa   
  401b40:	imul   ebp,DWORD PTR [esi+0x0],0x64616200
  401b47:	and    BYTE PTR [ecx+0x64],ah
  401b4a:	fs jb  0x401bb2
  401b4d:	jae    0x401bc2
  401b4f:	add    BYTE PTR [edx+0x61],ah
  401b52:	and    BYTE PTR fs:[esi+0x69],ah
  401b56:	ins    BYTE PTR es:[edi],dx
  401b57:	and    BYTE PTR gs:[ebp+eiz*2+0x73],ah
  401b5c:	arpl   WORD PTR [edx+0x69],si
  401b5f:	jo     0x401bd5
  401b61:	outs   dx,DWORD PTR ds:[esi]
  401b62:	jb     0x401b64
  401b64:	bound  esp,QWORD PTR [ecx+0x64]
  401b67:	and    BYTE PTR [ebp+0x65],ch
  401b6a:	jae    0x401bdf
  401b6c:	popa   
  401b6d:	add    BYTE PTR gs:[bp+si+0x72],ah
  401b72:	outs   dx,DWORD PTR ds:[esi]
  401b73:	imul   esp,DWORD PTR [ebp+0x6e],0x20
  401b77:	jo     0x401be2
  401b79:	jo     0x401be0
  401b7b:	add    BYTE PTR [ebx+0x6f],ah
  401b7e:	outs   dx,BYTE PTR ds:[esi]
  401b7f:	outs   dx,BYTE PTR ds:[esi]
  401b80:	arpl   WORD PTR gs:[ecx+ebp*2+0x6f],si
  401b85:	outs   dx,BYTE PTR ds:[esi]
  401b86:	and    BYTE PTR [ecx+0x62],ah
  401b89:	outs   dx,DWORD PTR ds:[esi]
  401b8a:	jb     0x401c00
  401b8c:	gs add BYTE PTR fs:[eax],al
  401b90:	arpl   WORD PTR [edi+0x6e],bp
  401b93:	outs   dx,BYTE PTR ds:[esi]
  401b94:	arpl   WORD PTR gs:[ecx+ebp*2+0x6f],si
  401b99:	outs   dx,BYTE PTR ds:[esi]
  401b9a:	and    BYTE PTR [ecx+0x6c],ah
  401b9d:	jb     0x401c04
  401b9f:	popa   
  401ba0:	fs jns 0x401bc3
  401ba3:	imul   ebp,DWORD PTR [esi+0x20],0x676f7270
  401baa:	jb     0x401c11
  401bac:	jae    0x401c21
  401bae:	add    BYTE PTR [eax],al
  401bb0:	arpl   WORD PTR [edi+0x6e],bp
  401bb3:	outs   dx,BYTE PTR ds:[esi]
  401bb4:	arpl   WORD PTR gs:[ecx+ebp*2+0x6f],si
  401bb9:	outs   dx,BYTE PTR ds:[esi]
  401bba:	and    BYTE PTR [edx+0x65],dh
  401bbd:	data16 jne 0x401c33
  401bc0:	gs add BYTE PTR fs:[eax],al
  401bc4:	arpl   WORD PTR [edi+0x6e],bp
  401bc7:	outs   dx,BYTE PTR ds:[esi]
  401bc8:	arpl   WORD PTR gs:[ecx+ebp*2+0x6f],si
  401bcd:	outs   dx,BYTE PTR ds:[esi]
  401bce:	and    BYTE PTR [edx+0x65],dh
  401bd1:	jae    0x401c38
  401bd3:	je     0x401bd5
  401bd5:	add    BYTE PTR [eax],al
  401bd7:	add    BYTE PTR [ebp+eiz*2+0x73],ah
  401bdb:	je     0x401c46
  401bdd:	outs   dx,BYTE PTR ds:[esi]
  401bde:	popa   
  401bdf:	je     0x401c4a
  401be1:	outs   dx,DWORD PTR ds:[esi]
  401be2:	outs   dx,BYTE PTR ds:[esi]
  401be3:	and    BYTE PTR [ecx+0x64],ah
  401be6:	fs jb  0x401c4e
  401be9:	jae    0x401c5e
  401beb:	and    BYTE PTR [edx+0x65],dh
  401bee:	jno    0x401c65
  401bf0:	imul   esi,DWORD PTR [edx+0x65],0x64
  401bf7:	add    BYTE PTR [ebp+0x78],ah
  401bfa:	arpl   WORD PTR gs:[ebp+0x74],si
  401bfe:	popa   
  401bff:	bound  ebp,QWORD PTR [ebp+eiz*2+0x20]
  401c03:	outs   dx,WORD PTR ds:[esi]
  401c05:	jb     0x401c74
  401c07:	popa   
  401c08:	je     0x401c2a
  401c0a:	gs jb  0x401c7f
  401c0d:	outs   dx,DWORD PTR ds:[esi]
  401c0e:	jb     0x401c10
  401c10:	imul   bp,WORD PTR [ebp+eiz*2+0x20],0x6f74
  401c17:	outs   dx,DWORD PTR ds:[esi]
  401c18:	and    BYTE PTR [ecx+eiz*2+0x72],ch
  401c1c:	add    BYTE PTR gs:[bx+si],al
  401c20:	push   0x2074736f
  401c25:	jne    0x401c95
  401c27:	jb     0x401c8e
  401c29:	popa   
  401c2a:	arpl   WORD PTR [eax+0x61],bp
  401c2d:	bound  ebp,QWORD PTR [ebp+eiz*2+0x0]
  401c31:	add    BYTE PTR [eax],al
  401c33:	add    BYTE PTR [ecx+0x64],ch
  401c36:	outs   dx,BYTE PTR gs:[esi]
  401c38:	je     0x401ca3
  401c3a:	imul   sp,WORD PTR [ebp+0x72],0x7220
  401c40:	gs ins DWORD PTR es:[edi],dx
  401c42:	outs   dx,DWORD PTR ds:[esi]
  401c43:	jbe    0x401caa
  401c45:	add    BYTE PTR fs:[eax],al
  401c48:	imul   ebp,DWORD PTR [esp+ebp*2+0x65],0x206c6167
  401c50:	bound  edi,QWORD PTR [ecx+0x74]
  401c53:	and    BYTE PTR gs:[ebx+0x65],dh
  401c57:	jno    0x401cce
  401c59:	outs   dx,BYTE PTR gs:[esi]
  401c5b:	arpl   WORD PTR [ebp+0x0],sp
  401c5e:	add    BYTE PTR [eax],al
  401c60:	imul   ebp,DWORD PTR [esi+0x61],0x6f727070
  401c67:	jo     0x401cdb
  401c69:	imul   esp,DWORD PTR [ecx+0x74],0x6f692065
  401c70:	and    BYTE PTR [ebx+0x6f],ah
  401c73:	outs   dx,BYTE PTR ds:[esi]
  401c74:	je     0x401ce8
  401c76:	outs   dx,DWORD PTR ds:[esi]
  401c77:	ins    BYTE PTR es:[edi],dx
  401c78:	and    BYTE PTR [edi+0x70],ch
  401c7b:	gs jb  0x401cdf
  401c7e:	je     0x401ce9
  401c80:	outs   dx,DWORD PTR ds:[esi]
  401c81:	outs   dx,BYTE PTR ds:[esi]
  401c82:	add    BYTE PTR [eax],al
  401c84:	imul   ebp,DWORD PTR [esi+0x76],0x64696c61
  401c8b:	and    BYTE PTR [ebx+0x65],dh
  401c8e:	imul   eax,DWORD PTR gs:[eax],0x0
  401c92:	add    BYTE PTR [eax],al
  401c94:	imul   esi,DWORD PTR [ebx+0x20],0x69642061
  401c9b:	jb     0x401d02
  401c9d:	arpl   WORD PTR [edi+ebp*2+0x72],si
  401ca1:	jns    0x401ca3
  401ca3:	add    BYTE PTR [ebp+0x65],ch
  401ca6:	jae    0x401d1b
  401ca8:	popa   
  401ca9:	and    BYTE PTR gs:[bp+di+0x69],dh
  401cae:	jp     0x401d15
  401cb0:	add    BYTE PTR [eax],al
  401cb2:	add    BYTE PTR [eax],al
  401cb4:	outs   dx,BYTE PTR ds:[esi]
  401cb5:	gs je  0x401d2f
  401cb8:	outs   dx,DWORD PTR ds:[esi]
  401cb9:	jb     0x401d26
  401cbb:	and    BYTE PTR [edi+ebp*2+0x77],ah
  401cbf:	outs   dx,BYTE PTR ds:[esi]
  401cc0:	add    BYTE PTR [eax],al
  401cc2:	add    BYTE PTR [eax],al
  401cc4:	outs   dx,BYTE PTR ds:[esi]
  401cc5:	gs je  0x401d3f
  401cc8:	outs   dx,DWORD PTR ds:[esi]
  401cc9:	jb     0x401d36
  401ccb:	and    BYTE PTR [edx+0x65],dh
  401cce:	jae    0x401d35
  401cd0:	je     0x401cd2
  401cd2:	add    BYTE PTR [eax],al
  401cd4:	outs   dx,BYTE PTR ds:[esi]
  401cd5:	gs je  0x401d4f
  401cd8:	outs   dx,DWORD PTR ds:[esi]
  401cd9:	jb     0x401d46
  401cdb:	and    BYTE PTR [ebp+0x6e],dh
  401cde:	jb     0x401d45
  401ce0:	popa   
  401ce1:	arpl   WORD PTR [eax+0x61],bp
  401ce4:	bound  ebp,QWORD PTR [ebp+eiz*2+0x0]
  401ce8:	outs   dx,BYTE PTR ds:[esi]
  401ce9:	outs   dx,DWORD PTR ds:[esi]
  401cea:	and    BYTE PTR [edx+0x75],ah
  401ced:	data16 data16 gs jb 0x401d12
  401cf2:	jae    0x401d64
  401cf4:	popa   
  401cf5:	arpl   WORD PTR [ebp+0x0],sp
  401cf8:	outs   dx,BYTE PTR ds:[esi]
  401cf9:	outs   dx,DWORD PTR ds:[esi]
  401cfa:	and    BYTE PTR [ebx+0x68],ah
  401cfd:	imul   ebp,DWORD PTR [esp+eiz*2+0x20],0x636f7270
  401d05:	gs jae 0x401d7b
  401d08:	add    BYTE PTR [eax],al
  401d0a:	add    BYTE PTR [eax],al
  401d0c:	outs   dx,BYTE PTR ds:[esi]
  401d0d:	outs   dx,DWORD PTR ds:[esi]
  401d0e:	and    BYTE PTR [ecx+ebp*2+0x6e],ch
  401d12:	imul   eax,DWORD PTR [eax],0x6e
  401d15:	outs   dx,DWORD PTR ds:[esi]
  401d16:	and    BYTE PTR [ebp+0x65],ch
  401d19:	jae    0x401d8e
  401d1b:	popa   
  401d1c:	and    BYTE PTR gs:[bx+di+0x76],ah
  401d21:	popa   
  401d22:	imul   ebp,DWORD PTR [ecx+eiz*2+0x62],0x656c
  401d2a:	add    BYTE PTR [eax],al
  401d2c:	outs   dx,BYTE PTR ds:[esi]
  401d2d:	outs   dx,DWORD PTR ds:[esi]
  401d2e:	and    BYTE PTR [ebp+0x65],ch
  401d31:	jae    0x401da6
  401d33:	popa   
  401d34:	add    BYTE PTR gs:[bx+si],al
  401d38:	outs   dx,BYTE PTR ds:[esi]
  401d39:	outs   dx,DWORD PTR ds:[esi]
  401d3a:	and    BYTE PTR [eax+0x72],dh
  401d3d:	outs   dx,DWORD PTR ds:[esi]
  401d3e:	je     0x401daf
  401d40:	arpl   WORD PTR [edi+0x6c],bp
  401d43:	and    BYTE PTR [edi+0x70],ch
  401d46:	je     0x401db1
  401d48:	outs   dx,DWORD PTR ds:[esi]
  401d49:	outs   dx,BYTE PTR ds:[esi]
  401d4a:	add    BYTE PTR [eax],al
  401d4c:	outs   dx,BYTE PTR ds:[esi]
  401d4d:	outs   dx,DWORD PTR ds:[esi]
  401d4e:	and    BYTE PTR [ebx+0x74],dh
  401d51:	jb     0x401db8
  401d53:	popa   
  401d54:	ins    DWORD PTR es:[edi],dx
  401d55:	and    BYTE PTR [edx+0x65],dh
  401d58:	jae    0x401dc9
  401d5a:	jne    0x401dce
  401d5c:	arpl   WORD PTR [ebp+0x73],sp
  401d5f:	add    BYTE PTR [esi+0x6f],ch
  401d62:	and    BYTE PTR [ebx+0x75],dh
  401d65:	arpl   WORD PTR [eax+0x20],bp
  401d68:	fs gs jbe 0x401dd5
  401d6c:	arpl   WORD PTR [ebp+0x20],sp
  401d6f:	outs   dx,DWORD PTR ds:[esi]
  401d70:	jb     0x401d92
  401d72:	popa   
  401d73:	fs fs jb 0x401ddc
  401d77:	jae    0x401dec
  401d79:	add    BYTE PTR [eax],al
  401d7b:	add    BYTE PTR [esi+0x6f],ch
  401d7e:	and    BYTE PTR [ebx+0x75],dh
  401d81:	arpl   WORD PTR [eax+0x20],bp
  401d84:	jo     0x401df8
  401d86:	outs   dx,DWORD PTR ds:[esi]
  401d87:	arpl   WORD PTR [ebp+0x73],sp
  401d8a:	jae    0x401d8c
  401d8c:	outs   dx,BYTE PTR ds:[esi]
  401d8d:	outs   dx,DWORD PTR ds:[esi]
  401d8e:	je     0x401db0
  401d90:	popa   
  401d91:	and    BYTE PTR [ecx+ebp*2+0x72],ah
  401d95:	arpl   WORD PTR gs:[edi+ebp*2+0x72],si
  401d9a:	jns    0x401d9c
  401d9c:	outs   dx,BYTE PTR ds:[esi]
  401d9d:	outs   dx,DWORD PTR ds:[esi]
  401d9e:	je     0x401dc0
  401da0:	popa   
  401da1:	and    BYTE PTR [ebx+0x6f],dh
  401da4:	arpl   WORD PTR [ebx+0x65],bp
  401da7:	je     0x401da9
  401da9:	add    BYTE PTR [eax],al
  401dab:	add    BYTE PTR [esi+0x6f],ch
  401dae:	je     0x401dd0
  401db0:	popa   
  401db1:	and    BYTE PTR [ebx+0x74],dh
  401db4:	jb     0x401e1b
  401db6:	popa   
  401db7:	ins    DWORD PTR es:[edi],dx
  401db8:	add    BYTE PTR [eax],al
  401dba:	add    BYTE PTR [eax],al
  401dbc:	outs   dx,BYTE PTR ds:[esi]
  401dbd:	outs   dx,DWORD PTR ds:[esi]
  401dbe:	je     0x401de0
  401dc0:	arpl   WORD PTR [edi+0x6e],bp
  401dc3:	outs   dx,BYTE PTR ds:[esi]
  401dc4:	arpl   WORD PTR gs:[ebp+eiz*2+0x64],si
  401dc9:	add    BYTE PTR [eax],al
  401dcb:	add    BYTE PTR [esi+0x6f],ch
  401dce:	je     0x401df0
  401dd0:	jae    0x401e47
  401dd2:	jo     0x401e44
  401dd4:	outs   dx,DWORD PTR ds:[esi]
  401dd5:	jb     0x401e4b
  401dd7:	gs add BYTE PTR fs:[eax],al
  401ddb:	add    BYTE PTR [edi+0x70],ch
  401dde:	gs jb  0x401e42
  401de1:	je     0x401e4c
  401de3:	outs   dx,DWORD PTR ds:[esi]
  401de4:	outs   dx,BYTE PTR ds:[esi]
  401de5:	and    BYTE PTR [ecx+0x6e],ch
  401de8:	and    BYTE PTR [eax+0x72],dh
  401deb:	outs   dx,DWORD PTR ds:[esi]
  401dec:	addr16 jb 0x401e54
  401def:	jae    0x401e64
  401df1:	add    BYTE PTR [eax],al
  401df3:	add    BYTE PTR [edi+0x70],ch
  401df6:	gs jb  0x401e5a
  401df9:	je     0x401e64
  401dfb:	outs   dx,DWORD PTR ds:[esi]
  401dfc:	outs   dx,BYTE PTR ds:[esi]
  401dfd:	and    BYTE PTR [esi+0x6f],ch
  401e00:	je     0x401e22
  401e02:	jo     0x401e69
  401e04:	jb     0x401e73
  401e06:	imul   esi,DWORD PTR [esp+esi*2+0x65],0x706f0064
  401e0e:	gs jb  0x401e72
  401e11:	je     0x401e7c
  401e13:	outs   dx,DWORD PTR ds:[esi]
  401e14:	outs   dx,BYTE PTR ds:[esi]
  401e15:	and    BYTE PTR [esi+0x6f],ch
  401e18:	je     0x401e3a
  401e1a:	jae    0x401e91
  401e1c:	jo     0x401e8e
  401e1e:	outs   dx,DWORD PTR ds:[esi]
  401e1f:	jb     0x401e95
  401e21:	gs add BYTE PTR fs:[edi+0x70],ch
  401e26:	gs jb  0x401e8a
  401e29:	je     0x401e94
  401e2b:	outs   dx,DWORD PTR ds:[esi]
  401e2c:	outs   dx,BYTE PTR ds:[esi]
  401e2d:	and    BYTE PTR [edi+0x6f],dh
  401e30:	jne    0x401e9e
  401e32:	and    BYTE PTR fs:[edx+0x6c],ah
  401e36:	outs   dx,DWORD PTR ds:[esi]
  401e37:	arpl   WORD PTR [ebx+0x0],bp
  401e3a:	add    BYTE PTR [eax],al
  401e3c:	outs   dx,DWORD PTR ds:[esi]
  401e3d:	ja     0x401ead
  401e3f:	gs jb  0x401e62
  401e42:	fs gs popa 
  401e45:	add    BYTE PTR fs:[eax],al
  401e48:	jo     0x401ebc
  401e4a:	outs   dx,DWORD PTR ds:[esi]
  401e4b:	je     0x401ebc
  401e4d:	arpl   WORD PTR [edi+0x6c],bp
  401e50:	and    BYTE PTR [ebp+0x72],ah
  401e53:	jb     0x401ec4
  401e55:	jb     0x401e57
  401e57:	add    BYTE PTR [eax+0x72],dh
  401e5a:	outs   dx,DWORD PTR ds:[esi]
  401e5b:	je     0x401ecc
  401e5d:	arpl   WORD PTR [edi+0x6c],bp
  401e60:	and    BYTE PTR [esi+0x6f],ch
  401e63:	je     0x401e85
  401e65:	jae    0x401edc
  401e67:	jo     0x401ed9
  401e69:	outs   dx,DWORD PTR ds:[esi]
  401e6a:	jb     0x401ee0
  401e6c:	gs add BYTE PTR fs:[eax],al
  401e70:	jb     0x401ed7
  401e72:	popa   
  401e73:	and    BYTE PTR fs:[edi+0x6e],ch
  401e77:	ins    BYTE PTR es:[edi],dx
  401e78:	jns    0x401e9a
  401e7a:	imul   bp,WORD PTR [ebp+eiz*2+0x20],0x7973
  401e81:	jae    0x401ef7
  401e83:	gs ins DWORD PTR es:[edi],dx
  401e85:	add    BYTE PTR [eax],al
  401e87:	add    BYTE PTR [edx+0x65],dh
  401e8a:	jae    0x401efb
  401e8c:	jne    0x401f00
  401e8e:	arpl   WORD PTR [ebp+0x20],sp
  401e91:	fs gs popa 
  401e94:	fs ins BYTE PTR es:[edi],dx
  401e96:	outs   dx,DWORD PTR ds:[esi]
  401e97:	arpl   WORD PTR [ebx+0x20],bp
  401e9a:	ja     0x401f0b
  401e9c:	jne    0x401f0a
  401e9e:	and    BYTE PTR fs:[edi+0x63],ch
  401ea2:	arpl   WORD PTR [ebp+0x72],si
  401ea5:	add    BYTE PTR [eax],al
  401ea7:	add    BYTE PTR [edx+0x65],dh
  401eaa:	jae    0x401f21
  401eac:	ins    BYTE PTR es:[edi],dx
  401ead:	je     0x401ecf
  401eaf:	outs   dx,DWORD PTR ds:[esi]
  401eb0:	jne    0x401f26
  401eb2:	and    BYTE PTR [edi+0x66],ch
  401eb5:	and    BYTE PTR [edx+0x61],dh
  401eb8:	outs   dx,BYTE PTR ds:[esi]
  401eb9:	add    BYTE PTR gs:[bp+di+0x74],dh
  401ebe:	popa   
  401ebf:	je     0x401f26
  401ec1:	and    BYTE PTR [esi+0x6f],ch
  401ec4:	je     0x401ee6
  401ec6:	jb     0x401f2d
  401ec8:	arpl   WORD PTR [edi+0x76],bp
  401ecb:	gs jb  0x401f2f
  401ece:	bound  ebp,QWORD PTR [ebp+eiz*2+0x0]
  401ed2:	add    BYTE PTR [eax],al
  401ed4:	jae    0x401f4a
  401ed6:	jb     0x401f3d
  401ed8:	popa   
  401ed9:	ins    DWORD PTR es:[edi],dx
  401eda:	and    BYTE PTR [ecx+ebp*2+0x6d],dh
  401ede:	outs   dx,DWORD PTR gs:[esi]
  401ee0:	jne    0x401f56
  401ee2:	add    BYTE PTR [eax],al
  401ee4:	je     0x401f4b
  401ee6:	js     0x401f5c
  401ee8:	and    BYTE PTR [esi+0x69],ah
  401eeb:	ins    BYTE PTR es:[edi],dx
  401eec:	and    BYTE PTR gs:[edx+0x75],ah
  401ef0:	jae    0x401f6b
  401ef2:	add    BYTE PTR [eax],al
  401ef4:	je     0x401f5f
  401ef6:	ins    DWORD PTR es:[edi],dx
  401ef7:	gs and BYTE PTR fs:[edi+0x75],ch
  401efc:	je     0x401efe
  401efe:	add    BYTE PTR [eax],al
  401f00:	je     0x401f71
  401f02:	outs   dx,DWORD PTR ds:[esi]
  401f03:	and    BYTE PTR [ebp+0x61],ch
  401f06:	outs   dx,BYTE PTR ds:[esi]
  401f07:	jns    0x401f29
  401f09:	imul   bp,WORD PTR [ebp+eiz*2+0x73],0x6f20
  401f10:	jo     0x401f77
  401f12:	outs   dx,BYTE PTR ds:[esi]
  401f13:	and    BYTE PTR [ecx+0x6e],ch
  401f16:	and    BYTE PTR [ebx+0x79],dh
  401f19:	jae    0x401f8f
  401f1b:	gs ins DWORD PTR es:[edi],dx
  401f1d:	add    BYTE PTR [eax],al
  401f1f:	add    BYTE PTR [edi+ebp*2+0x6f],dh
  401f23:	and    BYTE PTR [ebp+0x61],ch
  401f26:	outs   dx,BYTE PTR ds:[esi]
  401f27:	jns    0x401f49
  401f29:	ins    BYTE PTR es:[edi],dx
  401f2a:	imul   ebp,DWORD PTR [esi+0x6b],0x74000073
  401f31:	outs   dx,DWORD PTR ds:[esi]
  401f32:	outs   dx,DWORD PTR ds:[esi]
  401f33:	and    BYTE PTR [ebp+0x61],ch
  401f36:	outs   dx,BYTE PTR ds:[esi]
  401f37:	jns    0x401f59
  401f39:	jae    0x401fb4
  401f3b:	ins    DWORD PTR es:[edi],dx
  401f3c:	bound  ebp,QWORD PTR [edi+0x6c]
  401f3f:	imul   esp,DWORD PTR [ebx+0x20],0x6b6e696c
  401f46:	and    BYTE PTR [ebp+eiz*2+0x76],ch
  401f4a:	gs ins BYTE PTR es:[edi],dx
  401f4c:	jae    0x401f4e
  401f4e:	add    BYTE PTR [eax],al
  401f50:	jbe    0x401fb3
  401f52:	ins    BYTE PTR es:[edi],dx
  401f53:	jne    0x401fba
  401f55:	and    BYTE PTR [edi+ebp*2+0x6f],dh
  401f59:	and    BYTE PTR [ecx+eiz*2+0x72],ch
  401f5d:	add    BYTE PTR gs:[bx+0x72],dh
  401f62:	outs   dx,DWORD PTR ds:[esi]
  401f63:	outs   dx,BYTE PTR ds:[esi]
  401f64:	and    BYTE PTR [bx+si+0x72],dh
  401f68:	outs   dx,DWORD PTR ds:[esi]
  401f69:	je     0x401fda
  401f6b:	arpl   WORD PTR [edi+0x6c],bp
  401f6e:	and    BYTE PTR [ecx+edi*2+0x70],dh
  401f72:	add    BYTE PTR gs:[esi+0x0],ch
  401f76:	je     0x401f78
  401f78:	add    BYTE PTR fs:[eax+eax*1+0x6c],ch
  401f7d:	add    BYTE PTR [esi],ch
  401f7f:	add    BYTE PTR [eax+eax*1+0x6c],ah
  401f83:	add    BYTE PTR [eax+eax*1+0x0],ch
  401f87:	add    BYTE PTR [esp+eiz*2+0x72],cl
  401f8b:	inc    esi
  401f8c:	popa   
  401f8d:	jae    0x402003
  401f8f:	inc    esi
  401f90:	popa   
  401f91:	imul   ebp,DWORD PTR [ecx+ecx*2+0x6e],0x64616f4c
  401f99:	gs jb  0x401fdf
  401f9c:	popa   
  401f9d:	ins    BYTE PTR es:[edi],dx
  401f9e:	ins    BYTE PTR es:[edi],dx
  401f9f:	outs   dx,DWORD PTR ds:[esi]
  401fa0:	jne    0x402016
  401fa2:	add    BYTE PTR [eax],al
  401fa4:	push   edx
  401fa5:	je     0x402013
  401fa7:	dec    esi
  401fa8:	je     0x401ffd
  401faa:	je     0x40200d
  401fac:	je     0x402023
  401fae:	jae    0x402004
  401fb0:	outs   dx,DWORD PTR ds:[esi]
  401fb1:	inc    esp
  401fb2:	outs   dx,DWORD PTR ds:[esi]
  401fb3:	jae    0x401ffa
  401fb5:	jb     0x402029
  401fb7:	outs   dx,DWORD PTR ds:[esi]
  401fb8:	jb     0x402008
  401fba:	outs   dx,DWORD PTR ds:[esi]
  401fbb:	push   esp
  401fbc:	bound  eax,QWORD PTR gs:[eax]
  401fbf:	add    ah,bh
  401fc1:	and    al,BYTE PTR [eax+0x0]
  401fc4:	lock xor DWORD PTR [eax+0x0],eax
  401fc8:	push   eax
  401fc9:	xor    al,BYTE PTR [eax+0x0]
  401fcc:	loopne 0x402003
  401fce:	inc    eax
  401fcf:	add    al,al
  401fd1:	xor    DWORD PTR [eax+0x0],eax
  401fd4:	jl     0x401ff9
  401fd6:	inc    eax
  401fd7:	add    al,dh
  401fd9:	xor    DWORD PTR [eax+0x0],eax
  401fdc:	push   eax
  401fdd:	xor    al,BYTE PTR [eax+0x0]
  401fe0:	loopne 0x402017
  401fe2:	inc    eax
  401fe3:	add    al,al
  401fe5:	xor    DWORD PTR [eax+0x0],eax
  401fe8:	inc    eax
  401fe9:	cmp    eax,0x3cc00040
  401fee:	inc    eax
  401fef:	add    BYTE PTR [eax+0x7000403a],ah
  401ff5:	cmp    eax,0xa4f90040
  401ffa:	repz xor DWORD PTR [edi+0x7],edi
  401ffe:	add    al,0x46
  402000:	xchg   ebp,eax
  402001:	ins    DWORD PTR es:[edi],dx
  402002:	push   0x5d9e5e61
  402007:	add    al,0x66
  402009:	xor    ah,BYTE PTR [edi+0x790cdf99]
  40200f:	inc    esp
  402010:	mov    BYTE PTR [edi-0x5534bde8],ch
  402016:	fisub  DWORD PTR [edx]
  402018:	imul   eax,DWORD PTR [eax],0x6a006d
  40201e:	jo     0x402020
  402020:	jne    0x402022
  402022:	je     0x402024
  402024:	jns    0x402026
  402026:	arpl   WORD PTR [eax],ax
  402028:	add    BYTE PTR cs:[eax+eax*1+0x6c],ah
  40202d:	add    BYTE PTR [eax+eax*1+0x0],ch
  402031:	add    BYTE PTR [eax],al
  402033:	add    BYTE PTR [edi+0x70],cl
  402036:	outs   dx,BYTE PTR gs:[esi]
  402038:	push   ebp
  402039:	je     0x4020b4
  40203b:	add    BYTE PTR [edi],ch
  40203d:	add    BYTE PTR [eax+eax*1+0x0],ah
  402041:	add    BYTE PTR [eax],al
  402043:	add    BYTE PTR [edi],ch
  402045:	add    BYTE PTR [eax+eax*1+0x0],al
  402049:	add    BYTE PTR [eax],al
  40204b:	add    BYTE PTR [edi],ch
  40204d:	add    BYTE PTR [eax+0x0],dh
  402050:	add    BYTE PTR [eax],al
  402052:	add    BYTE PTR [eax],al
  402054:	das    
  402055:	add    BYTE PTR [eax+0x0],dl
  402058:	add    BYTE PTR [eax],al
  40205a:	add    BYTE PTR [eax],al
  40205c:	das    
  40205d:	add    BYTE PTR [ebx+0x0],dl
  402060:	pop    ecx
  402061:	add    BYTE PTR [ebx+0x0],dl
  402064:	push   ebx
  402065:	add    BYTE PTR [ebp+0x0],al
  402068:	push   esp
  402069:	add    BYTE PTR [eax],al
  40206b:	add    BYTE PTR [eax+0x72],dl
  40206e:	outs   dx,DWORD PTR ds:[esi]
  40206f:	jo     0x4020d6
  402071:	jb     0x4020e7
  402073:	jns    0x4020be
  402075:	outs   dx,BYTE PTR ds:[esi]
  402076:	jbe    0x4020e7
  402078:	imul   esp,DWORD PTR [ebp+0x0],0x0
  40207c:	push   ebx
  40207d:	jns    0x4020f2
  40207f:	je     0x4020e6
  402081:	ins    DWORD PTR es:[edi],dx
  402082:	push   ebx
  402083:	gs je  0x4020fa
  402086:	imul   ebp,DWORD PTR [esi+0x67],0x73
  40208d:	add    BYTE PTR [eax],al
  40208f:	add    BYTE PTR [esi+0x65],dh
  402092:	arpl   WORD PTR [edi+ebp*2+0x72],si
  402096:	cmp    al,0x54
  402098:	and    BYTE PTR ds:[edi+ebp*2+0x6f],dh
  40209d:	and    BYTE PTR [edi+ebp*2+0x6e],ch
  4020a1:	add    BYTE PTR [bx+si],al
  4020a4:	outs   dx,DWORD PTR ds:[esi]
  4020a5:	add    BYTE PTR [eax+eax*1+0x65],ch
  4020a9:	add    BYTE PTR [ebx],dh
  4020ab:	add    BYTE PTR [edx],dh
  4020ad:	add    BYTE PTR [esi],ch
  4020af:	add    BYTE PTR [eax+eax*1+0x6c],ah
  4020b3:	add    BYTE PTR [eax+eax*1+0x0],ch
  4020b7:	add    BYTE PTR [esp+ebp*2+0x6c],al
  4020bb:	inc    edi
  4020bc:	gs je  0x402102
  4020bf:	ins    BYTE PTR es:[edi],dx
  4020c0:	popa   
  4020c1:	jae    0x402136
  4020c3:	dec    edi
  4020c4:	bound  ebp,QWORD PTR [edx+0x65]
  4020c7:	arpl   WORD PTR [eax+eax*1+0x0],si
  4020cb:	add    BYTE PTR [esp+ebp*2+0x6c],al
  4020cf:	inc    ebx
  4020d0:	popa   
  4020d1:	outs   dx,BYTE PTR ds:[esi]
  4020d2:	push   ebp
  4020d3:	outs   dx,BYTE PTR ds:[esi]
  4020d4:	ins    BYTE PTR es:[edi],dx
  4020d5:	outs   dx,DWORD PTR ds:[esi]
  4020d6:	popa   
  4020d7:	fs dec esi
  4020d9:	outs   dx,DWORD PTR ds:[esi]
  4020da:	ja     0x4020dc
  4020dc:	imul   eax,DWORD PTR [eax],0x65
  4020df:	add    BYTE PTR [edx+0x0],dh
  4020e2:	outs   dx,BYTE PTR ds:[esi]
  4020e3:	add    BYTE PTR [ebp+0x0],ah
  4020e6:	ins    BYTE PTR es:[edi],dx
  4020e7:	add    BYTE PTR [ebx],dh
  4020e9:	add    BYTE PTR [edx],dh
  4020eb:	add    BYTE PTR [eax],al
  4020ed:	add    BYTE PTR [eax],al
  4020ef:	add    BYTE PTR [ebx+0x65],dl
  4020f2:	je     0x402144
  4020f4:	jb     0x402165
  4020f6:	arpl   WORD PTR [ebp+0x73],sp
  4020f9:	jae    0x40213f
  4020fb:	inc    ebp
  4020fc:	push   eax
  4020fd:	push   eax
  4020fe:	outs   dx,DWORD PTR ds:[esi]
  4020ff:	ins    BYTE PTR es:[edi],dx
  402100:	imul   esp,DWORD PTR [ebx+0x79],0x0
  402107:	add    BYTE PTR [ebx+0x0],dl
  40210a:	outs   dx,DWORD PTR ds:[esi]
  40210b:	add    BYTE PTR [esi+0x0],ah
  40210e:	je     0x402110
  402110:	ja     0x402112
  402112:	popa   
  402113:	add    BYTE PTR [edx+0x0],dh
  402116:	add    BYTE PTR gs:[eax+eax*1+0x4d],bl
  40211b:	add    BYTE PTR [ecx+0x0],ch
  40211e:	arpl   WORD PTR [eax],ax
  402120:	jb     0x402122
  402122:	outs   dx,DWORD PTR ds:[esi]
  402123:	add    BYTE PTR [ebx+0x0],dh
  402126:	outs   dx,DWORD PTR ds:[esi]
  402127:	add    BYTE PTR [esi+0x0],ah
  40212a:	je     0x40212c
  40212c:	pop    esp
  40212d:	add    BYTE PTR [edi+0x0],dl
  402130:	imul   eax,DWORD PTR [eax],0x64006e
  402136:	outs   dx,DWORD PTR ds:[esi]
  402137:	add    BYTE PTR [edi+0x0],dh
  40213a:	jae    0x40213c
  40213c:	pop    esp
  40213d:	add    BYTE PTR [ebx+0x0],al
  402140:	jne    0x402142
  402142:	jb     0x402144
  402144:	jb     0x402146
  402146:	add    BYTE PTR gs:[esi+0x0],ch
  40214a:	je     0x40214c
  40214c:	push   esi
  40214d:	add    BYTE PTR [ebp+0x0],ah
  402150:	jb     0x402152
  402152:	jae    0x402154
  402154:	imul   eax,DWORD PTR [eax],0x6e006f
  40215a:	pop    esp
  40215b:	add    BYTE PTR [eax+0x0],dl
  40215e:	outs   dx,DWORD PTR ds:[esi]
  40215f:	add    BYTE PTR [eax+eax*1+0x69],ch
  402163:	add    BYTE PTR [ebx+0x0],ah
  402166:	imul   eax,DWORD PTR [eax],0x730065
  40216c:	pop    esp
  40216d:	add    BYTE PTR [ebx+0x0],dl
  402170:	jns    0x402172
  402172:	jae    0x402174
  402174:	je     0x402176
  402176:	add    BYTE PTR gs:[ebp+0x0],ch
  40217a:	add    BYTE PTR [eax],al
  40217c:	inc    ebp
  40217d:	add    BYTE PTR [esi+0x0],ch
  402180:	popa   
  402181:	add    BYTE PTR [edx+0x0],ah
  402184:	ins    BYTE PTR es:[edi],dx
  402185:	add    BYTE PTR [ebp+0x0],ah
  402188:	dec    esp
  402189:	add    BYTE PTR [ebp+0x0],dl
  40218c:	inc    ecx
  40218d:	add    BYTE PTR [eax],al
  40218f:	add    BYTE PTR [ebx+0x0],dl
  402192:	dec    edi
  402193:	add    BYTE PTR [esi+0x0],al
  402196:	push   esp
  402197:	add    BYTE PTR [edi+0x0],dl
  40219a:	inc    ecx
  40219b:	add    BYTE PTR [edx+0x0],dl
  40219e:	inc    ebp
  40219f:	add    BYTE PTR [eax+eax*1+0x43],bl
  4021a3:	add    BYTE PTR [eax+eax*1+0x61],ch
  4021a7:	add    BYTE PTR [ebx+0x0],dh
  4021aa:	jae    0x4021ac
  4021ac:	add    BYTE PTR gs:[ebx+0x0],dh
  4021b0:	pop    esp
  4021b1:	add    BYTE PTR [ebx+0x0],al
  4021b4:	dec    esp
  4021b5:	add    BYTE PTR [ebx+0x0],dl
  4021b8:	dec    ecx
  4021b9:	add    BYTE PTR [eax+eax*1+0x5c],al
  4021bd:	add    BYTE PTR ds:0x5c007300,ah
  4021c3:	add    BYTE PTR [ecx+0x0],cl
  4021c6:	outs   dx,BYTE PTR ds:[esi]
  4021c7:	add    BYTE PTR [eax+0x0],dh
  4021ca:	jb     0x4021cc
  4021cc:	outs   dx,DWORD PTR ds:[esi]
  4021cd:	add    BYTE PTR [ebx+0x0],ah
  4021d0:	push   ebx
  4021d1:	add    BYTE PTR [ebp+0x0],ah
  4021d4:	jb     0x4021d6
  4021d6:	jbe    0x4021d8
  4021d8:	add    BYTE PTR gs:[edx+0x0],dh
  4021dc:	xor    eax,DWORD PTR [eax]
  4021de:	xor    al,BYTE PTR [eax]
  4021e0:	add    BYTE PTR [eax],al
  4021e2:	add    BYTE PTR [eax],al
  4021e4:	add    DWORD PTR [eax],eax
  4021e6:	add    BYTE PTR [eax],al
  4021e8:	add    BYTE PTR [eax],al
  4021ea:	add    BYTE PTR [eax],al
  4021ec:	rol    BYTE PTR [eax],0x0
  4021ef:	add    BYTE PTR [eax],al
  4021f1:	add    BYTE PTR [eax],al
  4021f3:	inc    esi
	...
  402204:	cs jmp 0x407a39
  40220a:	add    BYTE PTR [eax],al
  40220c:	add    al,BYTE PTR [eax]
  40220e:	add    BYTE PTR [eax],al
  402210:	and    al,0x0
  402212:	add    BYTE PTR [eax],al
  402214:	je     0x40223c
  402216:	add    BYTE PTR [eax],al
  402218:	je     0x402234
  40221a:	add    BYTE PTR [eax],al
  40221c:	add    BYTE PTR [eax],al
  40221e:	add    BYTE PTR [eax],al
  402220:	cs jmp 0x407a55
  402226:	add    BYTE PTR [eax],al
  402228:	or     eax,0xa8000000
  40222d:	add    al,BYTE PTR [eax]
  40222f:	add    BYTE PTR [esi+eiz*1+0x1aac0000],ch
	...
  402256:	add    BYTE PTR [eax],al
  402258:	push   0x0
	...
  402291:	add    BYTE PTR [eax],al
  402293:	add    BYTE PTR [eax+eiz*2],al
  402296:	inc    eax
  402297:	add    BYTE PTR [eax+0x4004023],dl
  40229d:	add    BYTE PTR [eax],al
  40229f:	add    BYTE PTR [ecx+esi*2+0x40],bh
  4022a3:	add    BYTE PTR [eax],al
  4022a5:	add    BYTE PTR [eax],al
  4022a7:	add    BYTE PTR [eax],bh
  4022a9:	adc    BYTE PTR [eax+0x0],al
  4022ac:	cmp    BYTE PTR [eax],al
  4022ae:	add    BYTE PTR [eax],al
  4022b0:	add    BYTE PTR ds:0x0,dh
	...
  4022be:	add    BYTE PTR [eax],al
  4022c0:	in     al,0x60
  4022c2:	inc    eax
  4022c3:	add    BYTE PTR [edx],al
  4022c5:	add    BYTE PTR [eax],al
  4022c7:	add    BYTE PTR [eax],al
  4022c9:	add    BYTE PTR [eax],al
  4022cb:	add    bh,bh
  4022cd:	(bad)  
  4022ce:	(bad)  
  4022cf:	inc    DWORD PTR [eax]
  4022d1:	add    BYTE PTR [eax],al
  4022d3:	add    BYTE PTR [eax+0x0],al
  4022d6:	add    BYTE PTR [eax],al
  4022d8:	in     al,dx
  4022d9:	and    al,BYTE PTR [eax+0x0]
  4022dc:	shl    BYTE PTR [edx],0x40
  4022df:	add    BYTE PTR [eax],dl
  4022e1:	and    eax,DWORD PTR [eax+0x0]
  4022e4:	inc    esp
  4022e5:	and    eax,DWORD PTR [eax+0x0]
	...
  4022f4:	add    eax,DWORD PTR [eax]
  4022f6:	add    BYTE PTR [eax],al
  4022f8:	fsub   QWORD PTR [edx]
  4022fa:	inc    eax
	...
  402307:	add    ah,ah
  402309:	pusha  
  40230a:	inc    eax
  40230b:	add    ah,ch
  40230d:	and    al,BYTE PTR [eax+0x0]
  402310:	adc    al,0x61
  402312:	inc    eax
  402313:	add    BYTE PTR [ecx],al
  402315:	add    BYTE PTR [eax],al
  402317:	add    BYTE PTR [eax],al
  402319:	add    BYTE PTR [eax],al
  40231b:	add    bh,bh
  40231d:	(bad)  
  40231e:	(bad)  
  40231f:	inc    DWORD PTR [eax]
  402321:	add    BYTE PTR [eax],al
  402323:	add    BYTE PTR [eax+0x0],al
  402326:	add    BYTE PTR [eax],al
  402328:	ins    BYTE PTR es:[edi],dx
  402329:	and    eax,DWORD PTR [eax+0x0]
  40232c:	inc    esp
  40232d:	and    eax,DWORD PTR [eax+0x0]
	...
  40233c:	add    DWORD PTR [eax],eax
  40233e:	add    BYTE PTR [eax],al
  402340:	sub    al,0x23
  402342:	inc    eax
  402343:	add    BYTE PTR [ecx+eiz*2],bh
  402346:	inc    eax
	...
  40234f:	add    bh,bh
  402351:	(bad)  
  402352:	(bad)  
  402353:	inc    DWORD PTR [eax]
  402355:	add    BYTE PTR [eax],al
  402357:	add    BYTE PTR [eax+0x0],al
  40235a:	add    BYTE PTR [eax],al
  40235c:	xor    al,0x23
  40235e:	inc    eax
  40235f:	add    BYTE PTR [eax],dl
  402361:	and    eax,DWORD PTR [eax+0x0]
  402364:	inc    esp
  402365:	and    eax,DWORD PTR [eax+0x0]
	...
  402374:	add    al,BYTE PTR [eax]
  402376:	add    BYTE PTR [eax],al
  402378:	pusha  
  402379:	and    eax,DWORD PTR [eax+0x0]
	...
  402388:	adc    al,0x61
  40238a:	inc    eax
  40238b:	add    BYTE PTR [ebx+eiz*1+0x40],ch
  40238f:	add    BYTE PTR [eax],dh
  402391:	dec    edx
  402392:	add    BYTE PTR [eax],al
  402394:	cmp    eax,0x77000056
  402399:	push   esi
  40239a:	add    BYTE PTR [eax],al
  40239c:	xchg   edi,eax
  40239d:	push   esi
  40239e:	add    BYTE PTR [eax],al
  4023a0:	inc    ebp
  4023a1:	push   esp
  4023a2:	push   edi
  4023a3:	xor    BYTE PTR [eax],dl
  4023a5:	add    BYTE PTR [eax],al
  4023a7:	add    BYTE PTR [esi+0x2b88040e],al
  4023ad:	add    eax,0xb03bb8a
  4023b2:	add    eax,0x0
  4023b7:	add    BYTE PTR [eax],al
  4023b9:	and    BYTE PTR [eax],al
  4023bb:	add    bh,dh
  4023bd:	add    BYTE PTR [eax],al
  4023bf:	inc    esi
  4023c0:	popa   
  4023c1:	ins    BYTE PTR es:[edi],dx
  4023c2:	ins    BYTE PTR es:[edi],dx
  4023c3:	bound  esp,QWORD PTR [ecx+0x63]
  4023c6:	imul   eax,DWORD PTR [ebp+0x72],0x72
  4023ca:	outs   dx,DWORD PTR ds:[esi]
  4023cb:	jb     0x4023cd
  4023cd:	ja     0x402438
  4023cf:	ins    BYTE PTR es:[edi],dx
  4023d0:	push   edx
  4023d1:	gs jae 0x402449
  4023d4:	ins    BYTE PTR es:[edi],dx
  4023d5:	je     0x4023d7
  4023d7:	cwde   
  4023d8:	push   cs
  4023d9:	push   0x75736572
  4023de:	ins    BYTE PTR es:[edi],dx
  4023df:	je     0x4023e1
  4023e1:	or     BYTE PTR [esi+0x69],ah
  4023e4:	ins    BYTE PTR es:[edi],dx
  4023e5:	gs dec esi
  4023e7:	popa   
  4023e8:	ins    DWORD PTR es:[edi],dx
  4023e9:	add    BYTE PTR gs:[edx],al
  4023ec:	ins    BYTE PTR es:[edi],dx
  4023ed:	imul   ebp,DWORD PTR [esi+0x65],0x626d754e
  4023f4:	gs jb  0x4023f7
  4023f7:	or     BYTE PTR [ebp+0x6f],ch
  4023fa:	fs jne 0x402469
  4023fd:	add    BYTE PTR gs:[edx],al
  402400:	popaw  
  402402:	imul   ebp,DWORD PTR [ebp+esi*2+0x72],0x70795465
  40240a:	add    BYTE PTR gs:[eax],cl
  40240d:	ins    DWORD PTR es:[edi],dx
  40240e:	gs jae 0x402484
  402411:	popa   
  402412:	add    BYTE PTR gs:[bx+di],al
  402416:	je     0x402480
  402418:	jb     0x40247f
  40241a:	popa   
  40241b:	fs dec ecx
  40241d:	add    BYTE PTR fs:[eax],cl
  402420:	arpl   WORD PTR [ecx+0x6c],sp
  402423:	ins    BYTE PTR es:[edi],dx
  402424:	inc    ebx
  402425:	outs   dx,DWORD PTR ds:[esi]
  402426:	outs   dx,BYTE PTR ds:[esi]
  402427:	je     0x40248e
  402429:	js     0x40249f
  40242b:	add    BYTE PTR [edx],al
  40242d:	outs   dx,DWORD PTR ds:[esi]
  40242e:	jb     0x402499
  402430:	imul   ebp,DWORD PTR [bp+0x61],0x676e6974
  402438:	inc    ebx
  402439:	outs   dx,DWORD PTR ds:[esi]
  40243a:	outs   dx,BYTE PTR ds:[esi]
  40243b:	je     0x4024a2
  40243d:	js     0x4024b3
  40243f:	dec    ecx
  402440:	add    BYTE PTR fs:[eax],cl
  402443:	outs   dx,DWORD PTR ds:[esi]
  402444:	jb     0x4024af
  402446:	imul   ebp,DWORD PTR [bp+0x61],0x676e6974
  40244e:	inc    ebx
  40244f:	outs   dx,DWORD PTR ds:[esi]
  402450:	outs   dx,BYTE PTR ds:[esi]
  402451:	je     0x4024b8
  402453:	js     0x4024c9
  402455:	dec    esi
  402456:	popa   
  402457:	ins    DWORD PTR es:[edi],dx
  402458:	add    BYTE PTR gs:[edx],al
  40245b:	outs   dx,DWORD PTR ds:[esi]
  40245c:	jb     0x4024c7
  40245e:	imul   ebp,DWORD PTR [bp+0x61],0x676e6974
  402466:	inc    ebx
  402467:	outs   dx,DWORD PTR ds:[esi]
  402468:	outs   dx,BYTE PTR ds:[esi]
  402469:	je     0x4024d0
  40246b:	js     0x4024e1
  40246d:	dec    ebp
  40246e:	gs jae 0x4024e4
  402471:	popa   
  402472:	add    BYTE PTR gs:[bx+di],al
  402476:	arpl   WORD PTR [ebp+0x72],si
  402479:	jb     0x4024e0
  40247b:	outs   dx,BYTE PTR ds:[esi]
  40247c:	je     0x4024c1
  40247e:	outs   dx,DWORD PTR ds:[esi]
  40247f:	outs   dx,BYTE PTR ds:[esi]
  402480:	je     0x4024e7
  402482:	js     0x4024f8
  402484:	dec    ecx
  402485:	add    BYTE PTR fs:[eax],cl
  402488:	arpl   WORD PTR [ebp+0x72],si
  40248b:	jb     0x4024f2
  40248d:	outs   dx,BYTE PTR ds:[esi]
  40248e:	je     0x4024d3
  402490:	outs   dx,DWORD PTR ds:[esi]
  402491:	outs   dx,BYTE PTR ds:[esi]
  402492:	je     0x4024f9
  402494:	js     0x40250a
  402496:	dec    esi
  402497:	popa   
  402498:	ins    DWORD PTR es:[edi],dx
  402499:	add    BYTE PTR gs:[edx],al
  40249c:	arpl   WORD PTR [ebp+0x72],si
  40249f:	jb     0x402506
  4024a1:	outs   dx,BYTE PTR ds:[esi]
  4024a2:	je     0x4024e7
  4024a4:	outs   dx,DWORD PTR ds:[esi]
  4024a5:	outs   dx,BYTE PTR ds:[esi]
  4024a6:	je     0x40250d
  4024a8:	js     0x40251e
  4024aa:	dec    ebp
  4024ab:	gs jae 0x402521
  4024ae:	popa   
  4024af:	add    BYTE PTR gs:[bx+di],al
  4024b3:	add    ecx,DWORD PTR [ebx]
  4024b5:	add    eax,0x0
  4024ba:	add    BYTE PTR [eax],al
  4024bc:	add    BYTE PTR [eax],al
  4024be:	add    BYTE PTR [edx],bl
  4024c0:	add    DWORD PTR [eax],eax
  4024c2:	inc    esi
  4024c3:	popa   
  4024c4:	ins    BYTE PTR es:[edi],dx
  4024c5:	ins    BYTE PTR es:[edi],dx
  4024c6:	bound  esp,QWORD PTR [ecx+0x63]
  4024c9:	imul   eax,DWORD PTR [ebp+0x72],0x72
  4024cd:	outs   dx,DWORD PTR ds:[esi]
  4024ce:	jb     0x4024d0
  4024d0:	ja     0x40253b
  4024d2:	ins    BYTE PTR es:[edi],dx
  4024d3:	push   edx
  4024d4:	gs jae 0x40254c
  4024d7:	ins    BYTE PTR es:[edi],dx
  4024d8:	je     0x4024da
  4024da:	cwde   
  4024db:	adc    DWORD PTR [eax+0x72],ebp
  4024de:	gs jae 0x402556
  4024e1:	ins    BYTE PTR es:[edi],dx
  4024e2:	je     0x4024e4
  4024e4:	or     BYTE PTR [esi+0x69],ah
  4024e7:	ins    BYTE PTR es:[edi],dx
  4024e8:	gs dec esi
  4024ea:	popa   
  4024eb:	ins    DWORD PTR es:[edi],dx
  4024ec:	add    BYTE PTR gs:[edx],al
  4024ef:	ins    BYTE PTR es:[edi],dx
  4024f0:	imul   ebp,DWORD PTR [esi+0x65],0x626d754e
  4024f7:	gs jb  0x4024fa
  4024fa:	or     BYTE PTR [ebp+0x6f],ch
  4024fd:	fs jne 0x40256c
  402500:	add    BYTE PTR gs:[edx],al
  402503:	popaw  
  402505:	imul   ebp,DWORD PTR [ebp+esi*2+0x72],0x70795465
  40250d:	add    BYTE PTR gs:[eax],cl
  402510:	ins    DWORD PTR es:[edi],dx
  402511:	gs jae 0x402587
  402514:	popa   
  402515:	add    BYTE PTR gs:[bx+di],al
  402519:	je     0x402583
  40251b:	jb     0x402582
  40251d:	popa   
  40251e:	fs dec ecx
  402520:	add    BYTE PTR fs:[eax],cl
  402523:	arpl   WORD PTR [ecx+0x6c],sp
  402526:	ins    BYTE PTR es:[edi],dx
  402527:	inc    ebx
  402528:	outs   dx,DWORD PTR ds:[esi]
  402529:	outs   dx,BYTE PTR ds:[esi]
  40252a:	je     0x402591
  40252c:	js     0x4025a2
  40252e:	add    BYTE PTR [edx],al
  402530:	outs   dx,DWORD PTR ds:[esi]
  402531:	jb     0x40259c
  402533:	imul   ebp,DWORD PTR [bp+0x61],0x676e6974
  40253b:	inc    ebx
  40253c:	outs   dx,DWORD PTR ds:[esi]
  40253d:	outs   dx,BYTE PTR ds:[esi]
  40253e:	je     0x4025a5
  402540:	js     0x4025b6
  402542:	dec    ecx
  402543:	add    BYTE PTR fs:[eax],cl
  402546:	outs   dx,DWORD PTR ds:[esi]
  402547:	jb     0x4025b2
  402549:	imul   ebp,DWORD PTR [bp+0x61],0x676e6974
  402551:	inc    ebx
  402552:	outs   dx,DWORD PTR ds:[esi]
  402553:	outs   dx,BYTE PTR ds:[esi]
  402554:	je     0x4025bb
  402556:	js     0x4025cc
  402558:	dec    esi
  402559:	popa   
  40255a:	ins    DWORD PTR es:[edi],dx
  40255b:	add    BYTE PTR gs:[edx],al
  40255e:	outs   dx,DWORD PTR ds:[esi]
  40255f:	jb     0x4025ca
  402561:	imul   ebp,DWORD PTR [bp+0x61],0x676e6974
  402569:	inc    ebx
  40256a:	outs   dx,DWORD PTR ds:[esi]
  40256b:	outs   dx,BYTE PTR ds:[esi]
  40256c:	je     0x4025d3
  40256e:	js     0x4025e4
  402570:	dec    ebp
  402571:	gs jae 0x4025e7
  402574:	popa   
  402575:	add    BYTE PTR gs:[bx+di],al
  402579:	arpl   WORD PTR [ebp+0x72],si
  40257c:	jb     0x4025e3
  40257e:	outs   dx,BYTE PTR ds:[esi]
  40257f:	je     0x4025c4
  402581:	outs   dx,DWORD PTR ds:[esi]
  402582:	outs   dx,BYTE PTR ds:[esi]
  402583:	je     0x4025ea
  402585:	js     0x4025fb
  402587:	dec    ecx
  402588:	add    BYTE PTR fs:[eax],cl
  40258b:	arpl   WORD PTR [ebp+0x72],si
  40258e:	jb     0x4025f5
  402590:	outs   dx,BYTE PTR ds:[esi]
  402591:	je     0x4025d6
  402593:	outs   dx,DWORD PTR ds:[esi]
  402594:	outs   dx,BYTE PTR ds:[esi]
  402595:	je     0x4025fc
  402597:	js     0x40260d
  402599:	dec    esi
  40259a:	popa   
  40259b:	ins    DWORD PTR es:[edi],dx
  40259c:	add    BYTE PTR gs:[edx],al
  40259f:	arpl   WORD PTR [ebp+0x72],si
  4025a2:	jb     0x402609
  4025a4:	outs   dx,BYTE PTR ds:[esi]
  4025a5:	je     0x4025ea
  4025a7:	outs   dx,DWORD PTR ds:[esi]
  4025a8:	outs   dx,BYTE PTR ds:[esi]
  4025a9:	je     0x402610
  4025ab:	js     0x402621
  4025ad:	dec    ebp
  4025ae:	gs jae 0x402624
  4025b1:	popa   
  4025b2:	add    BYTE PTR gs:[bx+di],al
  4025b6:	popaw  
  4025b8:	imul   ebp,DWORD PTR [ebp+esi*2+0x72],0x644965
  4025c0:	or     BYTE PTR [esi+0x61],ah
  4025c3:	imul   ebp,DWORD PTR [ebp+esi*2+0x72],0x756f4365
  4025cb:	outs   dx,BYTE PTR ds:[esi]
  4025cc:	je     0x4025ce
  4025ce:	or     BYTE PTR [esi+0x75],ah
  4025d1:	outs   dx,BYTE PTR ds:[esi]
  4025d2:	arpl   WORD PTR [ecx+ebp*2+0x6f],si
  4025d6:	outs   dx,BYTE PTR ds:[esi]
  4025d7:	add    BYTE PTR [edx],al
  4025d9:	add    ecx,DWORD PTR [ebx]
  4025db:	add    eax,0x0
  4025e0:	add    BYTE PTR [eax],al
  4025e2:	inc    eax
  4025e3:	add    BYTE PTR [eax],al
  4025e5:	cmp    BYTE PTR [eax],al
  4025e7:	add    BYTE PTR [ebp+0x65],cl
  4025ea:	outs   dx,BYTE PTR ds:[esi]
  4025eb:	jne    0x402640
  4025ed:	gs ins BYTE PTR es:[edi],dx
  4025ef:	arpl   WORD PTR gs:[ebp+eiz*2+0x64],si
  4025f4:	add    BYTE PTR [ebp+0x6e],ah
  4025f7:	je     0x40266b
  4025f9:	jns    0x40264b
  4025fb:	outs   dx,DWORD PTR ds:[esi]
  4025fc:	imul   ebp,DWORD PTR [esi+0x74],0x656d0200
  402603:	outs   dx,BYTE PTR ds:[esi]
  402604:	jne    0x402649
  402606:	outs   dx,DWORD PTR ds:[esi]
  402607:	ins    DWORD PTR es:[edi],dx
  402608:	ins    DWORD PTR es:[edi],dx
  402609:	popa   
  40260a:	outs   dx,BYTE PTR ds:[esi]
  40260b:	add    BYTE PTR fs:[edx],al
  40260e:	ins    DWORD PTR es:[edi],dx
  40260f:	outs   dx,BYTE PTR gs:[esi]
  402611:	jne    0x402656
  402613:	outs   dx,DWORD PTR ds:[esi]
  402614:	ins    DWORD PTR es:[edi],dx
  402615:	ins    DWORD PTR es:[edi],dx
  402616:	popa   
  402617:	outs   dx,BYTE PTR ds:[esi]
  402618:	fs dec ecx
  40261a:	add    BYTE PTR fs:[eax],cl
  40261d:	add    al,0xf
  40261f:	jmp    0x5a94:0xbe9f47a8
  402626:	adc    eax,0x19ed5d86
  40262b:	aad    0x7c
  40262d:	cmp    eax,0x694d0045
  402632:	arpl   WORD PTR [edx+0x6f],si
  402635:	jae    0x4026a6
  402637:	data16 je 0x402668
  40263a:	push   edi
  40263b:	imul   ebp,DWORD PTR [esi+0x64],0x2e73776f
  402642:	inc    esp
  402643:	gs jae 0x4026b1
  402646:	je     0x4026b7
  402648:	jo     0x402678
  40264a:	push   esp
  40264b:	gs js  0x4026c2
  40264e:	dec    ecx
  40264f:	outs   dx,BYTE PTR ds:[esi]
  402650:	jo     0x4026c7
  402652:	je     0x402682
  402654:	dec    edx
  402655:	popa   
  402656:	jo     0x4026b9
  402658:	outs   dx,BYTE PTR ds:[esi]
  402659:	gs jae 0x4026c1
  40265c:	dec    ecx
  40265d:	ins    DWORD PTR es:[edi],dx
  40265e:	add    BYTE PTR gs:[ebx],dl
  402661:	add    BYTE PTR [ecx],al
  402663:	sbb    dh,BYTE PTR [ebx+0x50]
  402666:	dec    edi
  402667:	iret   
  402668:	mov    DWORD PTR [edx-0x231f4cb9],eax
  40266e:	call   0xbab62b3c
  402673:	add    DWORD PTR [edx+0x53],edx
  402676:	inc    esp
  402677:	push   ebx
  402678:	retf   0x7dc
  40267b:	xlat   BYTE PTR ds:[ebx]
  40267c:	add    dh,0x17
  40267f:	dec    edx
  402680:	mov    ds:0x434adf7f,eax
  402685:	push   edx
  402686:	popf   
  402687:	outs   dx,BYTE PTR ds:[esi]
  402688:	add    DWORD PTR [eax],eax
  40268a:	add    BYTE PTR [eax],al
  40268c:	imul   ebp,DWORD PTR [ebp+0x6a],0x78657570
  402693:	cs jo  0x4026fa
  402696:	bound  eax,QWORD PTR [eax]
	...
  4026ac:	inc    edi
  4026ad:	inc    ebx
  4026ae:	push   esp
  4026af:	dec    esp
  4026b0:	add    BYTE PTR [eax],dl
  4026b2:	add    BYTE PTR [eax],al
  4026b4:	add    al,0x0
  4026b6:	add    BYTE PTR [eax],al
  4026b8:	cs inc ebx
  4026ba:	push   edx
  4026bb:	push   esp
  4026bc:	and    al,0x58
  4026be:	inc    ebx
  4026bf:	inc    ecx
  4026c0:	add    BYTE PTR [eax],al
  4026c2:	add    BYTE PTR [eax],al
  4026c4:	add    al,0x10
  4026c6:	add    BYTE PTR [eax],al
  4026c8:	add    al,0x0
  4026ca:	add    BYTE PTR [eax],al
  4026cc:	cs inc ebx
  4026ce:	push   edx
  4026cf:	push   esp
  4026d0:	and    al,0x58
  4026d2:	inc    ebx
  4026d3:	inc    ecx
  4026d4:	inc    ecx
  4026d5:	add    BYTE PTR [eax],al
  4026d7:	add    BYTE PTR [eax],cl
  4026d9:	adc    BYTE PTR [eax],al
  4026db:	add    BYTE PTR [eax+eax*1],bl
  4026de:	add    BYTE PTR [eax],al
  4026e0:	cs inc ebx
  4026e2:	push   edx
  4026e3:	push   esp
  4026e4:	and    al,0x58
  4026e6:	inc    ebx
  4026e7:	push   ebp
  4026e8:	add    BYTE PTR [eax],al
  4026ea:	add    BYTE PTR [eax],al
  4026ec:	and    al,0x10
  4026ee:	add    BYTE PTR [eax],al
  4026f0:	add    al,0x0
  4026f2:	add    BYTE PTR [eax],al
  4026f4:	cs inc ebx
  4026f6:	push   edx
  4026f7:	push   esp
  4026f8:	and    al,0x58
  4026fa:	inc    ebx
  4026fb:	pop    edx
  4026fc:	add    BYTE PTR [eax],al
  4026fe:	add    BYTE PTR [eax],al
  402700:	sub    BYTE PTR [eax],dl
  402702:	add    BYTE PTR [eax],al
  402704:	add    al,0x0
  402706:	add    BYTE PTR [eax],al
  402708:	cs inc ebx
  40270a:	push   edx
  40270b:	push   esp
  40270c:	and    al,0x58
  40270e:	dec    ecx
  40270f:	inc    ecx
  402710:	add    BYTE PTR [eax],al
  402712:	add    BYTE PTR [eax],al
  402714:	sub    al,0x10
  402716:	add    BYTE PTR [eax],al
  402718:	add    al,0x0
  40271a:	add    BYTE PTR [eax],al
  40271c:	cs inc ebx
  40271e:	push   edx
  40271f:	push   esp
  402720:	and    al,0x58
  402722:	dec    ecx
  402723:	inc    ecx
  402724:	inc    ecx
  402725:	add    BYTE PTR [eax],al
  402727:	add    BYTE PTR [eax],dh
  402729:	adc    BYTE PTR [eax],al
  40272b:	add    BYTE PTR [eax+eax*1],al
  40272e:	add    BYTE PTR [eax],al
  402730:	cs inc ebx
  402732:	push   edx
  402733:	push   esp
  402734:	and    al,0x58
  402736:	dec    ecx
  402737:	pop    ecx
  402738:	add    BYTE PTR [eax],al
  40273a:	add    BYTE PTR [eax],al
  40273c:	xor    al,0x10
  40273e:	add    BYTE PTR [eax],al
  402740:	add    al,0x0
  402742:	add    BYTE PTR [eax],al
  402744:	cs inc ebx
  402746:	push   edx
  402747:	push   esp
  402748:	and    al,0x58
  40274a:	dec    ecx
  40274b:	pop    edx
  40274c:	add    BYTE PTR [eax],al
  40274e:	add    BYTE PTR [eax],al
  402750:	cmp    BYTE PTR [eax],dl
  402752:	add    BYTE PTR [eax],al
  402754:	loopne 0x402756
  402756:	add    BYTE PTR [eax],al
  402758:	imul   sp,WORD PTR cs:[si+0x73],0x7824
  402760:	add    BYTE PTR [eax],al
  402762:	add    BYTE PTR [eax],al
  402764:	and    BYTE PTR [ecx],dl
  402766:	add    BYTE PTR [eax],al
  402768:	mov    al,ds:0x2e000011
  40276d:	jb     0x4027d3
  40276f:	popa   
  402770:	je     0x4027d3
  402772:	add    BYTE PTR [eax],al
  402774:	shl    BYTE PTR [edx],0x0
  402777:	add    al,dl
  402779:	add    BYTE PTR [eax],al
  40277b:	add    BYTE PTR [esi],ch
  40277d:	jb     0x4027e3
  40277f:	popa   
  402780:	je     0x4027e3
  402782:	and    al,0x72
  402784:	add    BYTE PTR [eax],al
  402786:	add    BYTE PTR [eax],al
  402788:	nop
  402789:	and    eax,DWORD PTR [eax]
  40278b:	add    BYTE PTR [eax],dl
  40278d:	add    BYTE PTR [eax],al
  40278f:	add    BYTE PTR [esi],ch
  402791:	jb     0x4027f7
  402793:	popa   
  402794:	je     0x4027f7
  402796:	and    al,0x73
  402798:	js     0x4027fe
  40279a:	popa   
  40279b:	je     0x4027fe
  40279d:	add    BYTE PTR [eax],al
  40279f:	add    BYTE PTR [eax+0x10000023],ah
  4027a5:	add    BYTE PTR [eax],al
  4027a7:	add    BYTE PTR [esi],ch
  4027a9:	jb     0x40280f
  4027ab:	popa   
  4027ac:	je     0x40280f
  4027ae:	and    al,0x7a
  4027b0:	inc    ebp
  4027b1:	push   esp
  4027b2:	push   edi
  4027b3:	xor    BYTE PTR [eax],al
  4027b5:	add    BYTE PTR [eax],al
  4027b7:	add    BYTE PTR [eax+0x6d000023],dh
  4027bd:	add    al,BYTE PTR [eax]
  4027bf:	add    BYTE PTR [esi],ch
  4027c1:	jb     0x402827
  4027c3:	popa   
  4027c4:	je     0x402827
  4027c6:	and    al,0x7a
  4027c8:	inc    ebp
  4027c9:	push   esp
  4027ca:	push   edi
  4027cb:	xor    DWORD PTR [eax],eax
  4027cd:	add    BYTE PTR [eax],al
  4027cf:	add    BYTE PTR ds:0x56000026,bl
  4027d5:	add    BYTE PTR [eax],al
  4027d7:	add    BYTE PTR [esi],ch
  4027d9:	jb     0x40283f
  4027db:	popa   
  4027dc:	je     0x40283f
  4027de:	and    al,0x7a
  4027e0:	inc    ebp
  4027e1:	push   esp
  4027e2:	push   edi
  4027e3:	xor    al,BYTE PTR [eax]
  4027e5:	add    BYTE PTR [eax],al
  4027e7:	add    BYTE PTR [ebx+0x26],dh
  4027ea:	add    BYTE PTR [eax],al
  4027ec:	add    DWORD PTR [eax],eax
  4027ee:	add    BYTE PTR [eax],al
  4027f0:	cs jb  0x402857
  4027f3:	popa   
  4027f4:	je     0x402857
  4027f6:	and    al,0x7a
  4027f8:	inc    ebp
  4027f9:	push   esp
  4027fa:	push   edi
  4027fb:	cmp    DWORD PTR [eax],eax
  4027fd:	add    BYTE PTR [eax],al
  4027ff:	add    BYTE PTR [esi+eiz*1+0x0],dh
  402803:	add    al,ah
  402805:	add    al,BYTE PTR [eax]
  402807:	add    BYTE PTR [esi],ch
  402809:	jb     0x40286f
  40280b:	popa   
  40280c:	je     0x40286f
  40280e:	and    al,0x7a
  402810:	jp     0x40288c
  402812:	bound  esp,QWORD PTR fs:[edi+0x0]
  402816:	add    BYTE PTR [eax],al
  402818:	push   esp
  402819:	sub    DWORD PTR [eax],eax
  40281b:	add    bh,bl
  40281d:	add    DWORD PTR [eax],eax
  40281f:	add    BYTE PTR [esi],ch
  402821:	je     0x402888
  402823:	js     0x402899
  402825:	add    BYTE PTR [eax],al
  402827:	add    BYTE PTR [ebx],dh
  402829:	sub    eax,DWORD PTR [eax]
  40282b:	add    cl,bh
  40282d:	add    BYTE PTR [eax],al
  40282f:	add    BYTE PTR [esi],ch
  402831:	je     0x402898
  402833:	js     0x4028a9
  402835:	and    al,0x64
  402837:	imul   eax,DWORD PTR [eax],0x30000000
  40283d:	sub    al,0x0
  40283f:	add    BYTE PTR [eax],al
  402841:	sub    al,BYTE PTR [eax]
  402843:	add    BYTE PTR [esi],ch
  402845:	je     0x4028ac
  402847:	js     0x4028bd
  402849:	and    al,0x6d
  40284b:	outs   dx,BYTE PTR ds:[esi]
  40284c:	add    BYTE PTR [eax],al
  40284e:	add    BYTE PTR [eax],al
  402850:	xor    BYTE PTR [esi+0x0],dl
  402853:	add    BYTE PTR [edx+0x2e000000],al
  402859:	je     0x4028c0
  40285b:	js     0x4028d1
  40285d:	and    al,0x78
  40285f:	add    BYTE PTR [edx+0x9000056],dh
  402865:	add    DWORD PTR [eax],eax
  402867:	add    BYTE PTR [esi],ch
  402869:	je     0x4028d0
  40286b:	js     0x4028e1
  40286d:	and    al,0x79
  40286f:	add    BYTE PTR fs:[eax],al
  402872:	add    BYTE PTR [eax],al
  402874:	rcl    BYTE PTR [edi+0x0],0x0
  402878:	pop    eax
  402879:	add    al,BYTE PTR [eax]
  40287b:	add    BYTE PTR [esi],ch
  40287d:	js     0x4028e3
  40287f:	popa   
  402880:	je     0x4028e3
  402882:	and    al,0x78
  402884:	add    BYTE PTR [eax],al
  402886:	add    BYTE PTR [eax],al
  402888:	add    BYTE PTR [eax+0x0],ah
  40288b:	add    BYTE PTR [eax+0x0],dl
  40288e:	add    BYTE PTR [eax],al
  402890:	cs fs popa 
  402893:	je     0x4028f6
  402895:	add    BYTE PTR [eax],al
  402897:	add    BYTE PTR [eax+0x60],dl
  40289a:	add    BYTE PTR [eax],al
  40289c:	pop    ss
  40289d:	add    DWORD PTR [eax],eax
  40289f:	add    BYTE PTR [esi],ch
  4028a1:	fs popa 
  4028a3:	je     0x402906
  4028a5:	and    al,0x72
  4028a7:	add    BYTE PTR [eax+0x61],ch
  4028aa:	add    BYTE PTR [eax],al
  4028ac:	dec    esp
  4028ad:	push   es
  4028ae:	add    BYTE PTR [eax],al
  4028b0:	bound  esi,QWORD PTR cs:[ebx+0x73]
  4028b4:	add    BYTE PTR [eax],al
  4028b6:	add    BYTE PTR [eax],al
  4028b8:	add    BYTE PTR [eax+0x0],dh
  4028bb:	add    BYTE PTR [ecx+eax*1+0x0],bh
  4028bf:	add    BYTE PTR [esi],ch
  4028c1:	imul   esp,DWORD PTR [ecx+eiz*2+0x74],0x352461
  4028c9:	add    BYTE PTR [eax],al
  4028cb:	add    BYTE PTR [ecx+esi*2+0x0],bh
  4028cf:	add    BYTE PTR [eax+eax*1],al
  4028d2:	add    BYTE PTR [eax],al
  4028d4:	xor    BYTE PTR cs:[eax],dh
  4028d7:	arpl   WORD PTR [esi+0x67],sp
  4028da:	add    BYTE PTR [eax],al
  4028dc:	xor    BYTE PTR [ecx+0x0],0x0
  4028e0:	mov    WORD PTR [eax],es
  4028e2:	add    BYTE PTR [eax],al
  4028e4:	imul   esp,DWORD PTR cs:[ecx+eiz*2+0x74],0x322461
  4028ed:	add    BYTE PTR [eax],al
  4028ef:	add    BYTE PTR [edx+esi*2],cl
  4028f2:	add    BYTE PTR [eax],al
  4028f4:	adc    al,0x0
  4028f6:	add    BYTE PTR [eax],al
  4028f8:	imul   esp,DWORD PTR cs:[ecx+eiz*2+0x74],0x332461
  402901:	add    BYTE PTR [eax],al
  402903:	add    BYTE PTR [eax],ah
  402905:	jb     0x402907
  402907:	add    BYTE PTR [ecx+eax*1+0x0],bh
  40290b:	add    BYTE PTR [esi],ch
  40290d:	imul   esp,DWORD PTR [ecx+eiz*2+0x74],0x342461
  402915:	add    BYTE PTR [eax],al
  402917:	add    BYTE PTR [ebx+esi*2+0x6680000],bl
  40291e:	add    BYTE PTR [eax],al
  402920:	imul   esp,DWORD PTR cs:[ecx+eiz*2+0x74],0x362461
  402929:	add    BYTE PTR [eax],al
  40292b:	add    BYTE PTR [eax],al
  40292d:	add    BYTE PTR [eax],0x0
  402930:	add    BYTE PTR [eax+eax*1],al
  402933:	add    BYTE PTR [esi],ch
  402935:	jb     0x4029aa
  402937:	jb     0x40299c
  402939:	and    al,0x30
  40293b:	xor    DWORD PTR [eax],eax
  40293d:	add    BYTE PTR [eax],al
  40293f:	add    BYTE PTR [eax],al
  402941:	test   BYTE PTR [eax],al
  402943:	add    BYTE PTR [eax],al
  402945:	stos   DWORD PTR es:[edi],eax
  402946:	add    BYTE PTR [eax],al
  402948:	cs jb  0x4029be
  40294b:	jb     0x4029b0
  40294d:	and    al,0x30
  40294f:	xor    al,BYTE PTR [eax]
	...
  40295d:	add    BYTE PTR [eax],al
  40295f:	add    BYTE PTR [ebx-0x1374aa01],cl
  402965:	push   ecx
  402966:	mov    eax,ds:0x406004
  40296b:	xor    eax,ebp
  40296d:	mov    DWORD PTR [ebp-0x4],eax
  402970:	mov    eax,DWORD PTR [ebp+0x28]
  402973:	test   eax,eax
  402975:	je     0x4029e2
  402977:	mov    ecx,DWORD PTR [ebp+0xc]
  40297a:	mov    edx,DWORD PTR [ebp+0x10]
  40297d:	push   ebx
  40297e:	mov    ebx,DWORD PTR [ebp+0x1c]
  402981:	push   edi
  402982:	mov    edi,DWORD PTR [ebp+0x20]
  402985:	sub    ecx,0x0
  402988:	je     0x4029b4
  40298a:	sub    ecx,0x1
  40298d:	jne    0x4029b7
  40298f:	test   dl,dl
  402991:	je     0x402999
  402993:	movzx  ecx,dl
  402996:	inc    ecx
  402997:	jmp    0x40299e
  402999:	mov    ecx,0x100
  40299e:	mov    DWORD PTR [eax],ecx
  4029a0:	mov    ecx,DWORD PTR [ebp+0x14]
  4029a3:	mov    DWORD PTR [eax+0x8],ecx
  4029a6:	mov    ecx,DWORD PTR [ebp+0x18]
  4029a9:	mov    DWORD PTR [eax+0xc],ecx
  4029ac:	mov    DWORD PTR [eax+0x10],ebx
  4029af:	mov    DWORD PTR [eax+0x14],edi
  4029b2:	jmp    0x4029ba
  4029b4:	and    DWORD PTR [eax],0x0
  4029b7:	mov    ecx,DWORD PTR [ebp+0x18]
  4029ba:	push   esi
  4029bb:	mov    esi,DWORD PTR [eax+0x20]
  4029be:	test   esi,esi
  4029c0:	je     0x4029df
  4029c2:	push   DWORD PTR [eax+0x24]
  4029c5:	push   DWORD PTR [ebp+0x24]
  4029c8:	push   edi
  4029c9:	push   ebx
  4029ca:	push   ecx
  4029cb:	push   DWORD PTR [ebp+0x14]
  4029ce:	mov    ecx,esi
  4029d0:	push   edx
  4029d1:	push   DWORD PTR [ebp+0xc]
  4029d4:	push   DWORD PTR [ebp+0x8]
  4029d7:	call   DWORD PTR ds:0x40717c
  4029dd:	call   esi
  4029df:	pop    esi
  4029e0:	pop    edi
  4029e1:	pop    ebx
  4029e2:	mov    ecx,DWORD PTR [ebp-0x4]
  4029e5:	xor    ecx,ebp
  4029e7:	call   0x404560
  4029ec:	mov    esp,ebp
  4029ee:	pop    ebp
  4029ef:	ret    0x24
  4029f2:	int3   
  4029f3:	int3   
  4029f4:	int3   
  4029f5:	int3   
  4029f6:	int3   
  4029f7:	mov    edi,edi
  4029f9:	push   ebx
  4029fa:	push   esi
  4029fb:	xor    ebx,ebx
  4029fd:	mov    esi,ebx
  4029ff:	push   edi
  402a00:	mov    edi,0x40208c
  402a05:	test   edx,edx
  402a07:	je     0x402a1f
  402a09:	mov    esi,edx
  402a0b:	mov    edi,edx
  402a0d:	lea    edx,[esi+0x2]
  402a10:	mov    ax,WORD PTR [esi]
  402a13:	add    esi,0x2
  402a16:	cmp    ax,bx
  402a19:	jne    0x402a10
  402a1b:	sub    esi,edx
  402a1d:	sar    esi,1
  402a1f:	mov    DWORD PTR [ecx],edi
  402a21:	lea    eax,[esi*2+0x2]
  402a28:	pop    edi
  402a29:	pop    esi
  402a2a:	mov    DWORD PTR [ecx+0x4],ebx
  402a2d:	mov    DWORD PTR [ecx+0xc],ebx
  402a30:	mov    DWORD PTR [ecx+0x8],eax
  402a33:	pop    ebx
  402a34:	ret    
  402a35:	int3   
  402a36:	int3   
  402a37:	int3   
  402a38:	int3   
  402a39:	int3   
  402a3a:	mov    edi,edi
  402a3c:	push   ebp
  402a3d:	mov    ebp,esp
  402a3f:	mov    edx,DWORD PTR [ecx+0x8]
  402a42:	mov    eax,DWORD PTR [ecx+0xc]
  402a45:	and    edx,DWORD PTR [ebp+0x8]
  402a48:	and    eax,DWORD PTR [ebp+0xc]
  402a4b:	or     edx,eax
  402a4d:	je     0x402a69
  402a4f:	mov    eax,DWORD PTR [ecx+0x10]
  402a52:	mov    edx,DWORD PTR [ecx+0x14]
  402a55:	and    eax,DWORD PTR [ebp+0x8]
  402a58:	and    edx,DWORD PTR [ebp+0xc]
  402a5b:	cmp    eax,DWORD PTR [ecx+0x10]
  402a5e:	jne    0x402a69
  402a60:	cmp    edx,DWORD PTR [ecx+0x14]
  402a63:	jne    0x402a69
  402a65:	mov    al,0x1
  402a67:	jmp    0x402a6b
  402a69:	xor    al,al
  402a6b:	pop    ebp
  402a6c:	ret    0x8
  402a6f:	int3   
  402a70:	int3   
  402a71:	int3   
  402a72:	int3   
  402a73:	int3   
  402a74:	mov    edi,edi
  402a76:	push   esi
  402a77:	xor    esi,esi
  402a79:	push   edi
  402a7a:	mov    edi,0x40208e
  402a7f:	test   edx,edx
  402a81:	je     0x402a93
  402a83:	mov    esi,edx
  402a85:	mov    edi,edx
  402a87:	lea    edx,[esi+0x1]
  402a8a:	mov    al,BYTE PTR [esi]
  402a8c:	inc    esi
  402a8d:	test   al,al
  402a8f:	jne    0x402a8a
  402a91:	sub    esi,edx
  402a93:	and    DWORD PTR [ecx+0x4],0x0
  402a97:	lea    eax,[esi+0x1]
  402a9a:	and    DWORD PTR [ecx+0xc],0x0
  402a9e:	mov    DWORD PTR [ecx],edi
  402aa0:	pop    edi
  402aa1:	mov    DWORD PTR [ecx+0x8],eax
  402aa4:	pop    esi
  402aa5:	ret    
  402aa6:	int3   
  402aa7:	int3   
  402aa8:	int3   
  402aa9:	int3   
  402aaa:	int3   
  402aab:	mov    edi,edi
  402aad:	push   ebp
  402aae:	mov    ebp,esp
  402ab0:	sub    esp,0x10
  402ab3:	mov    al,ds:0x402673
  402ab8:	movzx  eax,BYTE PTR [edx]
  402abb:	push   esi
  402abc:	shl    eax,0x18
  402abf:	mov    esi,edx
  402ac1:	push   edi
  402ac2:	sub    esi,0x4023a0
  402ac8:	mov    edi,ecx
  402aca:	mov    ecx,DWORD PTR [ebp+0x14]
  402acd:	or     eax,esi
  402acf:	mov    DWORD PTR [ebp-0x10],eax
  402ad2:	xor    esi,esi
  402ad4:	movzx  eax,WORD PTR [edx+0x1]
  402ad8:	mov    DWORD PTR [ebp-0xc],eax
  402adb:	mov    eax,DWORD PTR [edx+0x3]
  402ade:	mov    DWORD PTR [ebp-0x8],eax
  402ae1:	mov    eax,DWORD PTR [edx+0x7]
  402ae4:	add    edx,0xb
  402ae7:	mov    DWORD PTR [ebp-0x4],eax
  402aea:	mov    eax,DWORD PTR [edi+0x4]
  402aed:	mov    DWORD PTR [ecx],eax
  402aef:	mov    DWORD PTR [ecx+0x4],esi
  402af2:	mov    eax,DWORD PTR [edi+0x4]
  402af5:	push   ecx
  402af6:	push   DWORD PTR [ebp+0x10]
  402af9:	movzx  eax,WORD PTR [eax]
  402afc:	mov    DWORD PTR [ecx+0x8],eax
  402aff:	mov    DWORD PTR [ecx+0xc],0x2
  402b06:	mov    DWORD PTR [ecx+0x10],edx
  402b09:	mov    DWORD PTR [ecx+0x14],esi
  402b0c:	movzx  eax,WORD PTR [edx]
  402b0f:	push   esi
  402b10:	mov    DWORD PTR [ecx+0x18],eax
  402b13:	lea    eax,[ebp-0x10]
  402b16:	push   esi
  402b17:	push   eax
  402b18:	mov    DWORD PTR [ecx+0x1c],0x1
  402b1f:	push   DWORD PTR [edi+0x1c]
  402b22:	push   DWORD PTR [edi+0x18]
  402b25:	call   DWORD PTR ds:0x407000
  402b2b:	pop    edi
  402b2c:	pop    esi
  402b2d:	mov    esp,ebp
  402b2f:	pop    ebp
  402b30:	ret    0x10
  402b33:	int3   
  402b34:	int3   
  402b35:	int3   
  402b36:	int3   
  402b37:	int3   
  402b38:	int3   
  402b39:	int3   
  402b3a:	int3   
  402b3b:	int3   
  402b3c:	int3   
  402b3d:	int3   
  402b3e:	int3   
  402b3f:	int3   
  402b40:	mov    DWORD PTR ds:0x4064e0,0x402c60
  402b4a:	mov    DWORD PTR ds:0x4064d8,0x402d50
  402b54:	mov    DWORD PTR ds:0x4064dc,0x402da0
  402b5e:	ret    
  402b5f:	int3   
  402b60:	mov    edi,edi
  402b62:	push   ebp
  402b63:	mov    ebp,esp
  402b65:	push   ecx
  402b66:	push   0x4020a4
  402b6b:	call   DWORD PTR ds:0x40709c
  402b71:	cmp    DWORD PTR ds:0x406500,0x0
  402b78:	mov    ds:0x40656c,eax
  402b7d:	jne    0x402ba6
  402b7f:	push   0xc
  402b81:	call   DWORD PTR ds:0x4070b8
  402b87:	mov    DWORD PTR [ebp-0x4],eax
  402b8a:	pop    ecx
  402b8b:	test   eax,eax
  402b8d:	je     0x402b9f
  402b8f:	and    DWORD PTR [eax+0x4],0x0
  402b93:	and    DWORD PTR [eax+0x8],0x0
  402b97:	mov    DWORD PTR [eax],0x401fe8
  402b9d:	jmp    0x402ba1
  402b9f:	xor    eax,eax
  402ba1:	mov    ds:0x406500,eax
  402ba6:	push   0x405700
  402bab:	call   0x404613
  402bb0:	pop    ecx
  402bb1:	mov    esp,ebp
  402bb3:	pop    ebp
  402bb4:	ret    
  402bb5:	int3   
  402bb6:	int3   
  402bb7:	int3   
  402bb8:	int3   
  402bb9:	int3   
  402bba:	int3   
  402bbb:	int3   
  402bbc:	int3   
  402bbd:	int3   
  402bbe:	int3   
  402bbf:	int3   
  402bc0:	push   0x406570
  402bc5:	call   DWORD PTR ds:0x407048
  402bcb:	push   0x405760
  402bd0:	call   0x404613
  402bd5:	pop    ecx
  402bd6:	ret    
  402bd7:	int3   
  402bd8:	int3   
  402bd9:	int3   
  402bda:	int3   
  402bdb:	int3   
  402bdc:	int3   
  402bdd:	int3   
  402bde:	int3   
  402bdf:	int3   
  402be0:	call   0x403a09
  402be5:	push   0x405780
  402bea:	mov    ds:0x406588,eax
  402bef:	call   0x404613
  402bf4:	pop    ecx
  402bf5:	ret    
  402bf6:	int3   
  402bf7:	int3   
  402bf8:	int3   
  402bf9:	int3   
  402bfa:	int3   
  402bfb:	int3   
  402bfc:	int3   
  402bfd:	int3   
  402bfe:	int3   
  402bff:	int3   
  402c00:	push   0x405790
  402c05:	call   0x404613
  402c0a:	pop    ecx
  402c0b:	ret    
  402c0c:	int3   
  402c0d:	int3   
  402c0e:	int3   
  402c0f:	int3   
  402c10:	push   0x4057a0
  402c15:	call   0x404613
  402c1a:	pop    ecx
  402c1b:	ret    
  402c1c:	int3   
  402c1d:	int3   
  402c1e:	int3   
  402c1f:	int3   
  402c20:	push   0x4057b0
  402c25:	call   0x404613
  402c2a:	pop    ecx
  402c2b:	ret    
  402c2c:	int3   
  402c2d:	int3   
  402c2e:	int3   
  402c2f:	int3   
  402c30:	int3   
  402c31:	int3   
  402c32:	int3   
  402c33:	int3   
  402c34:	int3   
  402c35:	int3   
  402c36:	int3   
  402c37:	int3   
  402c38:	int3   
  402c39:	int3   
  402c3a:	int3   
  402c3b:	int3   
  402c3c:	int3   
  402c3d:	int3   
  402c3e:	int3   
  402c3f:	int3   
  402c40:	mov    edi,edi
  402c42:	push   ebp
  402c43:	mov    ebp,esp
  402c45:	mov    eax,DWORD PTR [ebp+0x8]
  402c48:	mov    ds:0x4064f0,eax
  402c4d:	xor    eax,eax
  402c4f:	inc    eax
  402c50:	pop    ebp
  402c51:	ret    0x4
  402c54:	int3   
  402c55:	int3   
  402c56:	int3   
  402c57:	int3   
  402c58:	int3   
  402c59:	int3   
  402c5a:	int3   
  402c5b:	int3   
  402c5c:	int3   
  402c5d:	int3   
  402c5e:	int3   
  402c5f:	int3   
  402c60:	mov    edi,edi
  402c62:	push   ebp
  402c63:	mov    ebp,esp
  402c65:	sub    esp,0x10c
  402c6b:	mov    eax,ds:0x406004
  402c70:	xor    eax,ebp
  402c72:	mov    DWORD PTR [ebp-0x4],eax
  402c75:	cmp    BYTE PTR ds:0x4064ec,0x0
  402c7c:	push   edi
  402c7d:	mov    edi,0x406508
  402c82:	jne    0x402d2d
  402c88:	push   esi
  402c89:	push   0x40
  402c8b:	pop    esi
  402c8c:	push   esi
  402c8d:	push   0x0
  402c8f:	push   edi
  402c90:	call   0x40562a
  402c95:	and    DWORD PTR [ebp-0x10c],0x0
  402c9c:	lea    eax,[ebp-0x10c]
  402ca2:	add    esp,0xc
  402ca5:	push   eax
  402ca6:	push   0x402c40
  402cab:	push   0x6
  402cad:	call   DWORD PTR ds:0x407080
  402cb3:	test   eax,eax
  402cb5:	je     0x402d25
  402cb7:	push   0x104
  402cbc:	lea    eax,[ebp-0x108]
  402cc2:	push   eax
  402cc3:	push   DWORD PTR [ebp-0x10c]
  402cc9:	call   DWORD PTR ds:0x40708c
  402ccf:	test   eax,eax
  402cd1:	je     0x402d25
  402cd3:	lea    ecx,[ebp-0x108]
  402cd9:	lea    edx,[ecx+0x1]
  402cdc:	mov    al,BYTE PTR [ecx]
  402cde:	inc    ecx
  402cdf:	test   al,al
  402ce1:	jne    0x402cdc
  402ce3:	sub    ecx,edx
  402ce5:	lea    edx,[ebp-0x108]
  402ceb:	add    edx,ecx
  402ced:	jmp    0x402cf6
  402cef:	cmp    BYTE PTR [edx-0x1],0x5c
  402cf3:	je     0x402d00
  402cf5:	dec    edx
  402cf6:	lea    eax,[ebp-0x108]
  402cfc:	cmp    edx,eax
  402cfe:	ja     0x402cef
  402d00:	mov    ecx,edi
  402d02:	sub    edx,edi
  402d04:	lea    eax,[esi+0x7fffffbe]
  402d0a:	test   eax,eax
  402d0c:	je     0x402d1d
  402d0e:	mov    al,BYTE PTR [edx+ecx*1]
  402d11:	test   al,al
  402d13:	je     0x402d1d
  402d15:	mov    BYTE PTR [ecx],al
  402d17:	inc    ecx
  402d18:	sub    esi,0x1
  402d1b:	jne    0x402d04
  402d1d:	test   esi,esi
  402d1f:	jne    0x402d22
  402d21:	dec    ecx
  402d22:	mov    BYTE PTR [ecx],0x0
  402d25:	mov    BYTE PTR ds:0x4064ec,0x1
  402d2c:	pop    esi
  402d2d:	mov    ecx,DWORD PTR [ebp-0x4]
  402d30:	mov    eax,edi
  402d32:	xor    ecx,ebp
  402d34:	pop    edi
  402d35:	call   0x404560
  402d3a:	mov    esp,ebp
  402d3c:	pop    ebp
  402d3d:	ret    
  402d3e:	int3   
  402d3f:	int3   
  402d40:	int3   
  402d41:	int3   
  402d42:	int3   
  402d43:	int3   
  402d44:	int3   
  402d45:	int3   
  402d46:	int3   
  402d47:	int3   
  402d48:	int3   
  402d49:	int3   
  402d4a:	int3   
  402d4b:	int3   
  402d4c:	int3   
  402d4d:	int3   
  402d4e:	int3   
  402d4f:	int3   
  402d50:	mov    edi,edi
  402d52:	push   ebp
  402d53:	mov    ebp,esp
  402d55:	push   ecx
  402d56:	mov    eax,ds:0x406004
  402d5b:	xor    eax,ebp
  402d5d:	mov    DWORD PTR [ebp-0x4],eax
  402d60:	push   0x401f74
  402d65:	call   DWORD PTR ds:0x407084
  402d6b:	test   eax,eax
  402d6d:	je     0x402d8d
  402d6f:	push   esi
  402d70:	push   0x401f88
  402d75:	push   eax
  402d76:	call   DWORD PTR ds:0x407088
  402d7c:	mov    esi,eax
  402d7e:	test   esi,esi
  402d80:	je     0x402d8c
  402d82:	mov    ecx,esi
  402d84:	call   DWORD PTR ds:0x40717c
  402d8a:	call   esi
  402d8c:	pop    esi
  402d8d:	mov    ecx,DWORD PTR [ebp-0x4]
  402d90:	xor    ecx,ebp
  402d92:	call   0x404560
  402d97:	mov    esp,ebp
  402d99:	pop    ebp
  402d9a:	ret    
  402d9b:	int3   
  402d9c:	int3   
  402d9d:	int3   
  402d9e:	int3   
  402d9f:	int3   
  402da0:	mov    edi,edi
  402da2:	push   ebp
  402da3:	mov    ebp,esp
  402da5:	push   ecx
  402da6:	mov    eax,ds:0x406004
  402dab:	xor    eax,ebp
  402dad:	mov    DWORD PTR [ebp-0x4],eax
  402db0:	push   esi
  402db1:	mov    esi,DWORD PTR ds:0x4064e8
  402db7:	push   edi
  402db8:	test   esi,esi
  402dba:	jne    0x402df5
  402dbc:	mov    eax,ds:0x4064e4
  402dc1:	xor    edi,edi
  402dc3:	test   eax,eax
  402dc5:	jne    0x402ddd
  402dc7:	push   0x800
  402dcc:	push   edi
  402dcd:	push   0x401f74
  402dd2:	call   DWORD PTR ds:0x40707c
  402dd8:	mov    ds:0x4064e4,eax
  402ddd:	push   0x401fa4
  402de2:	push   eax
  402de3:	call   DWORD PTR ds:0x407088
  402de9:	mov    esi,eax
  402deb:	mov    DWORD PTR ds:0x4064e8,esi
  402df1:	test   esi,esi
  402df3:	je     0x402e04
  402df5:	push   DWORD PTR [ebp+0x8]
  402df8:	mov    ecx,esi
  402dfa:	call   DWORD PTR ds:0x40717c
  402e00:	call   esi
  402e02:	mov    edi,eax
  402e04:	mov    ecx,DWORD PTR [ebp-0x4]
  402e07:	mov    eax,edi
  402e09:	pop    edi
  402e0a:	xor    ecx,ebp
  402e0c:	pop    esi
  402e0d:	call   0x404560
  402e12:	mov    esp,ebp
  402e14:	pop    ebp
  402e15:	ret    0x4
  402e18:	int3   
  402e19:	int3   
  402e1a:	int3   
  402e1b:	int3   
  402e1c:	int3   
  402e1d:	mov    edi,edi
  402e1f:	push   ebp
  402e20:	mov    ebp,esp
  402e22:	push   esi
  402e23:	push   edi
  402e24:	mov    edi,ecx
  402e26:	mov    esi,edx
  402e28:	test   edi,edi
  402e2a:	jne    0x402e33
  402e2c:	xor    eax,eax
  402e2e:	jmp    0x402ec8
  402e33:	push   ebx
  402e34:	push   DWORD PTR [ebp+0x10]
  402e37:	mov    eax,esi
  402e39:	and    esi,0xf
  402e3c:	sar    eax,0x4
  402e3f:	inc    eax
  402e40:	movzx  ebx,ax
  402e43:	push   ebx
  402e44:	push   0x6
  402e46:	push   edi
  402e47:	call   DWORD PTR ds:0x407090
  402e4d:	test   eax,eax
  402e4f:	jne    0x402e6b
  402e51:	mov    eax,0x400
  402e56:	cmp    WORD PTR [ebp+0x10],ax
  402e5a:	je     0x402e84
  402e5c:	push   eax
  402e5d:	push   ebx
  402e5e:	push   0x6
  402e60:	push   edi
  402e61:	call   DWORD PTR ds:0x407090
  402e67:	test   eax,eax
  402e69:	je     0x402e84
  402e6b:	push   eax
  402e6c:	push   edi
  402e6d:	call   DWORD PTR ds:0x407094
  402e73:	test   eax,eax
  402e75:	je     0x402e84
  402e77:	push   eax
  402e78:	call   DWORD PTR ds:0x407098
  402e7e:	mov    ecx,eax
  402e80:	test   ecx,ecx
  402e82:	jne    0x402e88
  402e84:	xor    eax,eax
  402e86:	jmp    0x402ec7
  402e88:	test   esi,esi
  402e8a:	je     0x402e9a
  402e8c:	movzx  eax,WORD PTR [ecx]
  402e8f:	lea    ecx,[ecx+eax*2]
  402e92:	add    ecx,0x2
  402e95:	sub    esi,0x1
  402e98:	jne    0x402e8c
  402e9a:	mov    ebx,DWORD PTR [ebp+0x8]
  402e9d:	movzx  edi,WORD PTR [ecx]
  402ea0:	test   ebx,ebx
  402ea2:	je     0x402ec5
  402ea4:	mov    eax,DWORD PTR [ebp+0xc]
  402ea7:	dec    eax
  402ea8:	cmp    edi,eax
  402eaa:	jb     0x402eae
  402eac:	mov    edi,eax
  402eae:	lea    esi,[edi+edi*1]
  402eb1:	add    ecx,0x2
  402eb4:	push   esi
  402eb5:	push   ecx
  402eb6:	push   ebx
  402eb7:	call   0x40561e
  402ebc:	add    esp,0xc
  402ebf:	xor    eax,eax
  402ec1:	mov    WORD PTR [esi+ebx*1],ax
  402ec5:	mov    eax,edi
  402ec7:	pop    ebx
  402ec8:	pop    edi
  402ec9:	pop    esi
  402eca:	pop    ebp
  402ecb:	ret    0xc
  402ece:	int3   
  402ecf:	int3   
  402ed0:	int3   
  402ed1:	int3   
  402ed2:	int3   
  402ed3:	mov    edi,edi
  402ed5:	push   ebp
  402ed6:	mov    ebp,esp
  402ed8:	and    esp,0xfffffff8
  402edb:	sub    esp,0x344
  402ee1:	mov    eax,ds:0x406004
  402ee6:	xor    eax,esp
  402ee8:	mov    DWORD PTR [esp+0x340],eax
  402eef:	mov    eax,DWORD PTR [ebp+0x8]
  402ef2:	push   ebx
  402ef3:	push   esi
  402ef4:	push   edi
  402ef5:	push   0x4020dc
  402efa:	mov    DWORD PTR [esp+0x20],eax
  402efe:	call   DWORD PTR ds:0x407084
  402f04:	test   eax,eax
  402f06:	je     0x402f26
  402f08:	push   0x4020f0
  402f0d:	push   eax
  402f0e:	call   DWORD PTR ds:0x407088
  402f14:	mov    esi,eax
  402f16:	test   esi,esi
  402f18:	je     0x402f26
  402f1a:	push   0x1
  402f1c:	mov    ecx,esi
  402f1e:	call   DWORD PTR ds:0x40717c
  402f24:	call   esi
  402f26:	call   0x403f31
  402f2b:	test   eax,eax
  402f2d:	je     0x403053
  402f33:	call   0x403f07
  402f38:	test   eax,eax
  402f3a:	je     0x403053
  402f40:	lea    eax,[esp+0x10]
  402f44:	xor    edi,edi
  402f46:	push   eax
  402f47:	push   ecx
  402f48:	push   ecx
  402f49:	mov    ebx,0x411
  402f4e:	mov    DWORD PTR [esp+0x1c],edi
  402f52:	call   0x403c26
  402f57:	mov    ecx,DWORD PTR [esp+0x10]
  402f5b:	test   ecx,ecx
  402f5d:	je     0x402fca
  402f5f:	mov    DWORD PTR [esp+0xc],edi
  402f63:	lea    edx,[esp+0xc]
  402f67:	mov    eax,DWORD PTR [ecx]
  402f69:	push   edx
  402f6a:	push   ecx
  402f6b:	mov    esi,DWORD PTR [eax+0x94]
  402f71:	mov    ecx,esi
  402f73:	call   DWORD PTR ds:0x40717c
  402f79:	call   esi
  402f7b:	mov    ecx,DWORD PTR [esp+0xc]
  402f7f:	test   ecx,ecx
  402f81:	je     0x402fb6
  402f83:	mov    eax,DWORD PTR [ecx]
  402f85:	lea    edx,[esp+0x14]
  402f89:	push   edx
  402f8a:	push   ecx
  402f8b:	mov    esi,DWORD PTR [eax+0x20]
  402f8e:	mov    ecx,esi
  402f90:	call   DWORD PTR ds:0x40717c
  402f96:	call   esi
  402f98:	mov    eax,DWORD PTR [esp+0xc]
  402f9c:	push   eax
  402f9d:	mov    ecx,DWORD PTR [eax]
  402f9f:	mov    esi,DWORD PTR [ecx+0x8]
  402fa2:	mov    ecx,esi
  402fa4:	call   DWORD PTR ds:0x40717c
  402faa:	call   esi
  402fac:	cmp    DWORD PTR [esp+0x14],0x1
  402fb1:	jne    0x402fb6
  402fb3:	add    ebx,0xfffffff8
  402fb6:	mov    eax,DWORD PTR [esp+0x10]
  402fba:	push   eax
  402fbb:	mov    ecx,DWORD PTR [eax]
  402fbd:	mov    esi,DWORD PTR [ecx+0x8]
  402fc0:	mov    ecx,esi
  402fc2:	call   DWORD PTR ds:0x40717c
  402fc8:	call   esi
  402fca:	xor    eax,eax
  402fcc:	push   0xc6
  402fd1:	mov    WORD PTR [esp+0x2c],ax
  402fd6:	lea    eax,[esp+0x2e]
  402fda:	push   edi
  402fdb:	push   eax
  402fdc:	call   0x40562a
  402fe1:	add    esp,0xc
  402fe4:	xor    eax,eax
  402fe6:	mov    WORD PTR [esp+0xf0],ax
  402fee:	lea    eax,[esp+0xf2]
  402ff5:	push   0x256
  402ffa:	push   edi
  402ffb:	push   eax
  402ffc:	call   0x40562a
  403001:	mov    ecx,DWORD PTR [esp+0x28]
  403005:	lea    eax,[esp+0x34]
  403009:	add    esp,0xc
  40300c:	mov    edx,0x14b4
  403011:	push   ebx
  403012:	push   0x64
  403014:	push   eax
  403015:	call   0x402e1d
  40301a:	mov    ecx,DWORD PTR [esp+0x1c]
  40301e:	lea    eax,[esp+0xf0]
  403025:	push   ebx
  403026:	push   0x12c
  40302b:	push   eax
  40302c:	mov    edx,0x14b5
  403031:	call   0x402e1d
  403036:	push   edi
  403037:	lea    eax,[esp+0x2c]
  40303b:	push   eax
  40303c:	lea    eax,[esp+0xf8]
  403043:	push   eax
  403044:	push   edi
  403045:	call   DWORD PTR ds:0x4070d0
  40304b:	or     eax,0xffffffff
  40304e:	jmp    0x4031a0
  403053:	call   DWORD PTR ds:0x4070cc
  403059:	xor    edi,edi
  40305b:	push   edi
  40305c:	call   DWORD PTR ds:0x407170
  403062:	xor    ecx,ecx
  403064:	test   eax,eax
  403066:	push   0x402018
  40306b:	setns  cl
  40306e:	mov    DWORD PTR [esp+0x28],ecx
  403072:	call   DWORD PTR ds:0x40709c
  403078:	mov    ebx,eax
  40307a:	mov    DWORD PTR [esp+0x20],ebx
  40307e:	test   ebx,ebx
  403080:	je     0x403186
  403086:	push   0x402034
  40308b:	push   ebx
  40308c:	call   DWORD PTR ds:0x407088
  403092:	mov    esi,eax
  403094:	mov    DWORD PTR [esp+0x14],esi
  403098:	test   esi,esi
  40309a:	je     0x403186
  4030a0:	lea    eax,[esp+0x18]
  4030a4:	mov    DWORD PTR [esp+0x18],edi
  4030a8:	push   eax
  4030a9:	call   DWORD PTR ds:0x4070a0
  4030af:	push   eax
  4030b0:	call   DWORD PTR ds:0x4070c4
  4030b6:	mov    ebx,eax
  4030b8:	mov    DWORD PTR [esp+0xc],edi
  4030bc:	mov    ecx,edi
  4030be:	mov    DWORD PTR [esp+0x10],ecx
  4030c2:	test   ebx,ebx
  4030c4:	je     0x40315b
  4030ca:	xor    esi,esi
  4030cc:	inc    esi
  4030cd:	cmp    DWORD PTR [esp+0x18],esi
  4030d1:	jle    0x40314c
  4030d3:	push   0x40203c
  4030d8:	push   DWORD PTR [ebx+esi*4]
  4030db:	call   DWORD PTR ds:0x4070a4
  4030e1:	test   eax,eax
  4030e3:	je     0x4030f7
  4030e5:	push   0x402044
  4030ea:	push   DWORD PTR [ebx+esi*4]
  4030ed:	call   DWORD PTR ds:0x4070a4
  4030f3:	test   eax,eax
  4030f5:	jne    0x4030ff
  4030f7:	mov    DWORD PTR [esp+0xc],0x1
  4030ff:	push   0x40204c
  403104:	push   DWORD PTR [ebx+esi*4]
  403107:	call   DWORD PTR ds:0x4070a4
  40310d:	test   eax,eax
  40310f:	je     0x403123
  403111:	push   0x402054
  403116:	push   DWORD PTR [ebx+esi*4]
  403119:	call   DWORD PTR ds:0x4070a4
  40311f:	test   eax,eax
  403121:	jne    0x40312b
  403123:	mov    DWORD PTR [esp+0x10],0x1
  40312b:	push   0x40205c
  403130:	push   DWORD PTR [ebx+esi*4]
  403133:	call   DWORD PTR ds:0x407110
  403139:	pop    ecx
  40313a:	pop    ecx
  40313b:	test   eax,eax
  40313d:	jne    0x403145
  40313f:	push   ecx
  403140:	call   0x403644
  403145:	inc    esi
  403146:	cmp    esi,DWORD PTR [esp+0x18]
  40314a:	jl     0x4030d3
  40314c:	push   ebx
  40314d:	call   DWORD PTR ds:0x4070b0
  403153:	mov    esi,DWORD PTR [esp+0x14]
  403157:	mov    ecx,DWORD PTR [esp+0x10]
  40315b:	mov    eax,edi
  40315d:	cmp    DWORD PTR [esp+0xc],eax
  403161:	je     0x403167
  403163:	push   0x2
  403165:	jmp    0x40316d
  403167:	test   ecx,ecx
  403169:	je     0x40316e
  40316b:	push   0x5
  40316d:	pop    eax
  40316e:	push   edi
  40316f:	push   eax
  403170:	push   edi
  403171:	push   edi
  403172:	push   DWORD PTR [esp+0x2c]
  403176:	mov    ecx,esi
  403178:	call   DWORD PTR ds:0x40717c
  40317e:	call   esi
  403180:	mov    ebx,DWORD PTR [esp+0x20]
  403184:	mov    edi,eax
  403186:	cmp    DWORD PTR [esp+0x24],0x0
  40318b:	je     0x403193
  40318d:	call   DWORD PTR ds:0x40716c
  403193:	test   ebx,ebx
  403195:	je     0x40319e
  403197:	push   ebx
  403198:	call   DWORD PTR ds:0x407034
  40319e:	mov    eax,edi
  4031a0:	mov    ecx,DWORD PTR [esp+0x34c]
  4031a7:	pop    edi
  4031a8:	pop    esi
  4031a9:	pop    ebx
  4031aa:	xor    ecx,esp
  4031ac:	call   0x404560
  4031b1:	mov    esp,ebp
  4031b3:	pop    ebp
  4031b4:	ret    0x10
  4031b7:	int3   
  4031b8:	int3   
  4031b9:	int3   
  4031ba:	int3   
  4031bb:	int3   
  4031bc:	int3   
  4031bd:	int3   
  4031be:	int3   
  4031bf:	int3   
  4031c0:	mov    edi,edi
  4031c2:	push   ebp
  4031c3:	mov    ebp,esp
  4031c5:	push   esi
  4031c6:	mov    esi,ecx
  4031c8:	call   0x403617
  4031cd:	test   BYTE PTR [ebp+0x8],0x1
  4031d1:	je     0x4031db
  4031d3:	push   esi
  4031d4:	call   DWORD PTR ds:0x4070bc
  4031da:	pop    ecx
  4031db:	mov    eax,esi
  4031dd:	pop    esi
  4031de:	pop    ebp
  4031df:	ret    0x4
  4031e2:	int3   
  4031e3:	int3   
  4031e4:	int3   
  4031e5:	int3   
  4031e6:	int3   
  4031e7:	int3   
  4031e8:	int3   
  4031e9:	int3   
  4031ea:	int3   
  4031eb:	int3   
  4031ec:	int3   
  4031ed:	int3   
  4031ee:	int3   
  4031ef:	int3   
  4031f0:	mov    edi,edi
  4031f2:	push   ebp
  4031f3:	mov    ebp,esp
  4031f5:	push   ecx
  4031f6:	mov    eax,ds:0x406004
  4031fb:	xor    eax,ebp
  4031fd:	mov    DWORD PTR [ebp-0x4],eax
  403200:	push   esi
  403201:	mov    esi,DWORD PTR [ebp+0x8]
  403204:	push   edi
  403205:	mov    edi,ecx
  403207:	mov    edx,DWORD PTR [esi+0x8]
  40320a:	cmp    DWORD PTR ds:0x406048,edx
  403210:	mov    DWORD PTR ds:0x406048,edx
  403216:	sete   al
  403219:	test   al,al
  40321b:	jne    0x403231
  40321d:	mov    eax,DWORD PTR [edi]
  40321f:	push   esi
  403220:	push   0x0
  403222:	mov    esi,DWORD PTR [eax+0x8]
  403225:	mov    ecx,esi
  403227:	call   DWORD PTR ds:0x40717c
  40322d:	mov    ecx,edi
  40322f:	call   esi
  403231:	mov    ecx,DWORD PTR [ebp-0x4]
  403234:	mov    al,0x1
  403236:	pop    edi
  403237:	xor    ecx,ebp
  403239:	pop    esi
  40323a:	call   0x404560
  40323f:	mov    esp,ebp
  403241:	pop    ebp
  403242:	ret    0x4
  403245:	int3   
  403246:	int3   
  403247:	int3   
  403248:	int3   
  403249:	int3   
  40324a:	int3   
  40324b:	int3   
  40324c:	int3   
  40324d:	int3   
  40324e:	int3   
  40324f:	int3   
  403250:	ret    
  403251:	int3   
  403252:	int3   
  403253:	int3   
  403254:	int3   
  403255:	int3   
  403256:	mov    edi,edi
  403258:	push   ebp
  403259:	mov    ebp,esp
  40325b:	sub    esp,0x120
  403261:	mov    eax,ds:0x406004
  403266:	xor    eax,ebp
  403268:	mov    DWORD PTR [ebp-0x8],eax
  40326b:	push   ebx
  40326c:	push   esi
  40326d:	mov    esi,DWORD PTR [ecx+0x4]
  403270:	push   edi
  403271:	mov    edi,DWORD PTR [ebp+0x8]
  403274:	cmp    DWORD PTR [esi],0x5
  403277:	jbe    0x4033dc
  40327d:	push   0x2000
  403282:	push   0x0
  403284:	mov    ecx,esi
  403286:	call   0x402a3a
  40328b:	test   al,al
  40328d:	je     0x4033dc
  403293:	mov    eax,DWORD PTR [edi+0x4]
  403296:	lea    ecx,[ebp-0xdc]
  40329c:	mov    edx,DWORD PTR [edi+0x1c]
  40329f:	and    DWORD PTR [ebp-0xe8],0x0
  4032a6:	and    DWORD PTR [ebp-0xe0],0x0
  4032ad:	push   0x4
  4032af:	mov    DWORD PTR [ebp-0x11c],eax
  4032b5:	lea    eax,[ebp-0x11c]
  4032bb:	pop    ebx
  4032bc:	mov    DWORD PTR [ebp-0xec],eax
  4032c2:	mov    DWORD PTR [ebp-0xe4],ebx
  4032c8:	call   0x402a74
  4032cd:	mov    edx,DWORD PTR [edi+0x44]
  4032d0:	lea    eax,[edi+0x20]
  4032d3:	and    DWORD PTR [ebp-0xc8],0x0
  4032da:	lea    ecx,[ebp-0xbc]
  4032e0:	and    DWORD PTR [ebp-0xc0],0x0
  4032e7:	mov    DWORD PTR [ebp-0xcc],eax
  4032ed:	mov    DWORD PTR [ebp-0xc4],ebx
  4032f3:	call   0x402a74
  4032f8:	mov    eax,DWORD PTR [edi]
  4032fa:	lea    ecx,[ebp-0x9c]
  403300:	mov    edx,DWORD PTR [edi+0xc]
  403303:	and    DWORD PTR [ebp-0xa8],0x0
  40330a:	and    DWORD PTR [ebp-0xa0],0x0
  403311:	mov    DWORD PTR [ebp-0x120],eax
  403317:	lea    eax,[ebp-0x120]
  40331d:	mov    DWORD PTR [ebp-0xac],eax
  403323:	mov    DWORD PTR [ebp-0xa4],ebx
  403329:	call   0x4029f7
  40332e:	mov    eax,DWORD PTR [edi+0x10]
  403331:	lea    ecx,[ebp-0x7c]
  403334:	mov    edx,DWORD PTR [edi+0x28]
  403337:	and    DWORD PTR [ebp-0x88],0x0
  40333e:	and    DWORD PTR [ebp-0x80],0x0
  403342:	mov    DWORD PTR [ebp-0x110],eax
  403348:	lea    eax,[ebp-0x110]
  40334e:	mov    DWORD PTR [ebp-0x8c],eax
  403354:	mov    DWORD PTR [ebp-0x84],ebx
  40335a:	call   0x402a74
  40335f:	mov    eax,DWORD PTR [edi+0x2c]
  403362:	lea    ecx,[ebp-0x5c]
  403365:	mov    edx,DWORD PTR [edi+0x30]
  403368:	and    DWORD PTR [ebp-0x68],0x0
  40336c:	and    DWORD PTR [ebp-0x60],0x0
  403370:	mov    DWORD PTR [ebp-0x114],eax
  403376:	lea    eax,[ebp-0x114]
  40337c:	mov    DWORD PTR [ebp-0x6c],eax
  40337f:	mov    DWORD PTR [ebp-0x64],ebx
  403382:	call   0x402a74
  403387:	mov    edx,DWORD PTR [edi+0x34]
  40338a:	lea    ecx,[ebp-0x4c]
  40338d:	call   0x4029f7
  403392:	mov    eax,DWORD PTR [edi+0x38]
  403395:	lea    ecx,[ebp-0x2c]
  403398:	mov    edx,DWORD PTR [edi+0x3c]
  40339b:	and    DWORD PTR [ebp-0x38],0x0
  40339f:	and    DWORD PTR [ebp-0x30],0x0
  4033a3:	mov    DWORD PTR [ebp-0x118],eax
  4033a9:	lea    eax,[ebp-0x118]
  4033af:	mov    DWORD PTR [ebp-0x3c],eax
  4033b2:	mov    DWORD PTR [ebp-0x34],ebx
  4033b5:	call   0x402a74
  4033ba:	mov    edx,DWORD PTR [edi+0x40]
  4033bd:	lea    ecx,[ebp-0x1c]
  4033c0:	call   0x4029f7
  4033c5:	lea    eax,[ebp-0x10c]
  4033cb:	mov    edx,0x4023b1
  4033d0:	push   eax
  4033d1:	push   0x10
  4033d3:	push   ecx
  4033d4:	push   ecx
  4033d5:	mov    ecx,esi
  4033d7:	call   0x402aab
  4033dc:	mov    ecx,DWORD PTR [ebp-0x8]
  4033df:	pop    edi
  4033e0:	pop    esi
  4033e1:	xor    ecx,ebp
  4033e3:	pop    ebx
  4033e4:	call   0x404560
  4033e9:	mov    esp,ebp
  4033eb:	pop    ebp
  4033ec:	ret    0x4
  4033ef:	int3   
  4033f0:	int3   
  4033f1:	int3   
  4033f2:	int3   
  4033f3:	int3   
  4033f4:	mov    edi,edi
  4033f6:	push   ebp
  4033f7:	mov    ebp,esp
  4033f9:	sub    esp,0x158
  4033ff:	mov    eax,ds:0x406004
  403404:	xor    eax,ebp
  403406:	mov    DWORD PTR [ebp-0x8],eax
  403409:	push   ebx
  40340a:	push   esi
  40340b:	mov    esi,DWORD PTR [ebp+0x8]
  40340e:	push   edi
  40340f:	mov    edi,DWORD PTR [ecx+0x4]
  403412:	cmp    DWORD PTR [edi],0x5
  403415:	jbe    0x4035bc
  40341b:	mov    eax,DWORD PTR [esi+0x4]
  40341e:	lea    ecx,[ebp-0x10c]
  403424:	mov    edx,DWORD PTR [esi+0x1c]
  403427:	and    DWORD PTR [ebp-0x118],0x0
  40342e:	and    DWORD PTR [ebp-0x110],0x0
  403435:	push   0x4
  403437:	mov    DWORD PTR [ebp-0x14c],eax
  40343d:	lea    eax,[ebp-0x14c]
  403443:	pop    ebx
  403444:	mov    DWORD PTR [ebp-0x11c],eax
  40344a:	mov    DWORD PTR [ebp-0x114],ebx
  403450:	call   0x402a74
  403455:	mov    edx,DWORD PTR [esi+0x44]
  403458:	lea    eax,[esi+0x20]
  40345b:	and    DWORD PTR [ebp-0xf8],0x0
  403462:	lea    ecx,[ebp-0xec]
  403468:	and    DWORD PTR [ebp-0xf0],0x0
  40346f:	mov    DWORD PTR [ebp-0xfc],eax
  403475:	mov    DWORD PTR [ebp-0xf4],ebx
  40347b:	call   0x402a74
  403480:	mov    eax,DWORD PTR [esi]
  403482:	lea    ecx,[ebp-0xcc]
  403488:	mov    edx,DWORD PTR [esi+0xc]
  40348b:	and    DWORD PTR [ebp-0xd8],0x0
  403492:	and    DWORD PTR [ebp-0xd0],0x0
  403499:	mov    DWORD PTR [ebp-0x158],eax
  40349f:	lea    eax,[ebp-0x158]
  4034a5:	mov    DWORD PTR [ebp-0xdc],eax
  4034ab:	mov    DWORD PTR [ebp-0xd4],ebx
  4034b1:	call   0x4029f7
  4034b6:	mov    eax,DWORD PTR [esi+0x10]
  4034b9:	lea    ecx,[ebp-0xac]
  4034bf:	mov    edx,DWORD PTR [esi+0x28]
  4034c2:	and    DWORD PTR [ebp-0xb8],0x0
  4034c9:	and    DWORD PTR [ebp-0xb0],0x0
  4034d0:	mov    DWORD PTR [ebp-0x154],eax
  4034d6:	lea    eax,[ebp-0x154]
  4034dc:	mov    DWORD PTR [ebp-0xbc],eax
  4034e2:	mov    DWORD PTR [ebp-0xb4],ebx
  4034e8:	call   0x402a74
  4034ed:	mov    eax,DWORD PTR [esi+0x2c]
  4034f0:	lea    ecx,[ebp-0x8c]
  4034f6:	mov    edx,DWORD PTR [esi+0x30]
  4034f9:	and    DWORD PTR [ebp-0x98],0x0
  403500:	and    DWORD PTR [ebp-0x90],0x0
  403507:	mov    DWORD PTR [ebp-0x140],eax
  40350d:	lea    eax,[ebp-0x140]
  403513:	mov    DWORD PTR [ebp-0x9c],eax
  403519:	mov    DWORD PTR [ebp-0x94],ebx
  40351f:	call   0x402a74
  403524:	mov    edx,DWORD PTR [esi+0x34]
  403527:	lea    ecx,[ebp-0x7c]
  40352a:	call   0x4029f7
  40352f:	mov    eax,DWORD PTR [esi+0x38]
  403532:	lea    ecx,[ebp-0x5c]
  403535:	mov    edx,DWORD PTR [esi+0x3c]
  403538:	and    DWORD PTR [ebp-0x68],0x0
  40353c:	and    DWORD PTR [ebp-0x60],0x0
  403540:	mov    DWORD PTR [ebp-0x144],eax
  403546:	lea    eax,[ebp-0x144]
  40354c:	mov    DWORD PTR [ebp-0x6c],eax
  40354f:	mov    DWORD PTR [ebp-0x64],ebx
  403552:	call   0x402a74
  403557:	mov    edx,DWORD PTR [esi+0x40]
  40355a:	lea    ecx,[ebp-0x4c]
  40355d:	call   0x4029f7
  403562:	mov    eax,DWORD PTR [esi+0x8]
  403565:	xor    ecx,ecx
  403567:	mov    DWORD PTR [ebp-0x148],eax
  40356d:	lea    eax,[ebp-0x148]
  403573:	mov    DWORD PTR [ebp-0x3c],eax
  403576:	mov    eax,DWORD PTR [esi+0x24]
  403579:	mov    DWORD PTR [ebp-0x150],eax
  40357f:	lea    eax,[ebp-0x150]
  403585:	mov    DWORD PTR [ebp-0x38],ecx
  403588:	mov    DWORD PTR [ebp-0x34],ebx
  40358b:	mov    DWORD PTR [ebp-0x30],ecx
  40358e:	mov    DWORD PTR [ebp-0x2c],eax
  403591:	mov    DWORD PTR [ebp-0x28],ecx
  403594:	mov    DWORD PTR [ebp-0x24],ebx
  403597:	mov    DWORD PTR [ebp-0x20],ecx
  40359a:	mov    edx,DWORD PTR [esi+0x18]
  40359d:	lea    ecx,[ebp-0x1c]
  4035a0:	call   0x402a74
  4035a5:	lea    eax,[ebp-0x13c]
  4035ab:	mov    edx,0x4024b4
  4035b0:	push   eax
  4035b1:	push   0x13
  4035b3:	push   ecx
  4035b4:	push   ecx
  4035b5:	mov    ecx,edi
  4035b7:	call   0x402aab
  4035bc:	mov    ecx,DWORD PTR [ebp-0x8]
  4035bf:	pop    edi
  4035c0:	pop    esi
  4035c1:	xor    ecx,ebp
  4035c3:	pop    ebx
  4035c4:	call   0x404560
  4035c9:	mov    esp,ebp
  4035cb:	pop    ebp
  4035cc:	ret    0x4
  4035cf:	int3   
  4035d0:	int3   
  4035d1:	int3   
  4035d2:	int3   
  4035d3:	int3   
  4035d4:	int3   
  4035d5:	int3   
  4035d6:	int3   
  4035d7:	int3   
  4035d8:	int3   
  4035d9:	int3   
  4035da:	int3   
  4035db:	int3   
  4035dc:	int3   
  4035dd:	int3   
  4035de:	int3   
  4035df:	int3   
  4035e0:	mov    edi,edi
  4035e2:	push   ebp
  4035e3:	mov    ebp,esp
  4035e5:	and    esp,0xfffffff8
  4035e8:	cmp    BYTE PTR [ebp+0x8],0x0
  4035ec:	jne    0x40360c
  4035ee:	cmp    DWORD PTR [ecx+0xc],0x1
  4035f2:	jne    0x4035fe
  4035f4:	push   DWORD PTR [ebp+0xc]
  4035f7:	call   0x403256
  4035fc:	jmp    0x40360c
  4035fe:	cmp    DWORD PTR [ecx+0xc],0x2
  403602:	jne    0x40360c
  403604:	push   DWORD PTR [ebp+0xc]
  403607:	call   0x4033f4
  40360c:	mov    esp,ebp
  40360e:	pop    ebp
  40360f:	ret    0x8
  403612:	int3   
  403613:	int3   
  403614:	int3   
  403615:	int3   
  403616:	int3   
  403617:	cmp    BYTE PTR [ecx+0x8],0x0
  40361b:	mov    DWORD PTR [ecx],0x401fd8
  403621:	je     0x40363e
  403623:	push   esi
  403624:	mov    esi,DWORD PTR [ecx+0x4]
  403627:	push   DWORD PTR [esi+0x1c]
  40362a:	push   DWORD PTR [esi+0x18]
  40362d:	call   DWORD PTR ds:0x407004
  403633:	xor    eax,eax
  403635:	mov    DWORD PTR [esi+0x18],eax
  403638:	mov    DWORD PTR [esi+0x1c],eax
  40363b:	mov    DWORD PTR [esi],eax
  40363d:	pop    esi
  40363e:	ret    
  40363f:	int3   
  403640:	int3   
  403641:	int3   
  403642:	int3   
  403643:	int3   
  403644:	mov    edi,edi
  403646:	push   ebp
  403647:	mov    ebp,esp
  403649:	sub    esp,0x78
  40364c:	mov    eax,ds:0x406004
  403651:	xor    eax,ebp
  403653:	mov    DWORD PTR [ebp-0x8],eax
  403656:	mov    eax,ds:0x406560
  40365b:	push   ebx
  40365c:	xor    ebx,ebx
  40365e:	mov    DWORD PTR [ebp-0x74],ebx
  403661:	push   esi
  403662:	push   edi
  403663:	test   al,0x1
  403665:	jne    0x40367a
  403667:	or     eax,0x1
  40366a:	push   0x4056c0
  40366f:	mov    ds:0x406560,eax
  403674:	call   0x404613
  403679:	pop    ecx
  40367a:	lea    eax,[ebp-0x70]
  40367d:	push   eax
  40367e:	lea    eax,[ebp-0x78]
  403681:	push   eax
  403682:	push   ebx
  403683:	push   0x406548
  403688:	call   DWORD PTR ds:0x4070a8
  40368e:	cmp    DWORD PTR [ebp-0x78],ebx
  403691:	je     0x403744
  403697:	mov    DWORD PTR [ebp-0x70],0x40654c
  40369e:	mov    DWORD PTR ds:0x40654c,0x401fc4
  4036a8:	mov    esi,DWORD PTR ds:0x40601c
  4036ae:	lea    edi,[ebp-0x6c]
  4036b1:	mov    ecx,0x406018
  4036b6:	mov    BYTE PTR ds:0x406554,0x1
  4036bd:	mov    DWORD PTR ds:0x40655c,ecx
  4036c3:	lea    eax,[ebp-0x6c]
  4036c6:	mov    DWORD PTR ds:0x406550,ecx
  4036cc:	lea    esi,[esi-0x10]
  4036cf:	movs   DWORD PTR es:[edi],DWORD PTR ds:[esi]
  4036d0:	push   0x406030
  4036d5:	push   ecx
  4036d6:	push   0x402960
  4036db:	movs   DWORD PTR es:[edi],DWORD PTR ds:[esi]
  4036dc:	push   eax
  4036dd:	movs   DWORD PTR es:[edi],DWORD PTR ds:[esi]
  4036de:	movs   DWORD PTR es:[edi],DWORD PTR ds:[esi]
  4036df:	mov    DWORD PTR ds:0x406038,ebx
  4036e5:	mov    DWORD PTR ds:0x40603c,ebx
  4036eb:	call   DWORD PTR ds:0x40700c
  4036f1:	test   eax,eax
  4036f3:	jne    0x403714
  4036f5:	mov    ecx,DWORD PTR ds:0x40601c
  4036fb:	movzx  eax,WORD PTR [ecx]
  4036fe:	push   eax
  4036ff:	push   ecx
  403700:	push   0x2
  403702:	push   DWORD PTR ds:0x406034
  403708:	push   DWORD PTR ds:0x406030
  40370e:	call   DWORD PTR ds:0x407008
  403714:	mov    eax,ds:0x40654c
  403719:	mov    DWORD PTR ds:0x406558,0x1
  403723:	mov    esi,DWORD PTR [eax+0x4]
  403726:	mov    ecx,esi
  403728:	call   DWORD PTR ds:0x40717c
  40372e:	mov    edi,0x40654c
  403733:	mov    ecx,edi
  403735:	call   esi
  403737:	push   edi
  403738:	push   ebx
  403739:	push   0x406548
  40373e:	call   DWORD PTR ds:0x4070ac
  403744:	mov    eax,DWORD PTR [ebp-0x70]
  403747:	mov    esi,DWORD PTR [eax+0x4]
  40374a:	cmp    DWORD PTR [esi],0x5
  40374d:	jbe    0x4037a1
  40374f:	push   0x4000
  403754:	push   ebx
  403755:	mov    ecx,esi
  403757:	call   0x402a3a
  40375c:	test   al,al
  40375e:	je     0x4037a1
  403760:	mov    edx,0x40207c
  403765:	lea    ecx,[ebp-0x3c]
  403768:	call   0x402a74
  40376d:	mov    edx,0x40206c
  403772:	lea    ecx,[ebp-0x2c]
  403775:	call   0x402a74
  40377a:	lea    eax,[ebp-0x74]
  40377d:	mov    DWORD PTR [ebp-0x18],ebx
  403780:	mov    DWORD PTR [ebp-0x1c],eax
  403783:	mov    DWORD PTR [ebp-0x14],0x4
  40378a:	mov    DWORD PTR [ebp-0x10],ebx
  40378d:	lea    eax,[ebp-0x5c]
  403790:	mov    edx,0x4025da
  403795:	push   eax
  403796:	push   0x5
  403798:	push   ecx
  403799:	push   ecx
  40379a:	mov    ecx,esi
  40379c:	call   0x402aab
  4037a1:	mov    ecx,DWORD PTR [ebp-0x8]
  4037a4:	pop    edi
  4037a5:	pop    esi
  4037a6:	xor    ecx,ebp
  4037a8:	pop    ebx
  4037a9:	call   0x404560
  4037ae:	mov    esp,ebp
  4037b0:	pop    ebp
  4037b1:	ret    0x4
  4037b4:	int3   
  4037b5:	int3   
  4037b6:	int3   
  4037b7:	int3   
  4037b8:	int3   
  4037b9:	mov    edi,edi
  4037bb:	push   ebp
  4037bc:	mov    ebp,esp
  4037be:	mov    eax,ds:0x4064fc
  4037c3:	push   esi
  4037c4:	mov    esi,edx
  4037c6:	test   al,0x1
  4037c8:	jne    0x4037f7
  4037ca:	or     eax,0x1
  4037cd:	mov    ds:0x4064fc,eax
  4037d2:	call   0x403f31
  4037d7:	test   eax,eax
  4037d9:	je     0x4037f0
  4037db:	call   0x403f07
  4037e0:	test   eax,eax
  4037e2:	je     0x4037f0
  4037e4:	mov    DWORD PTR ds:0x4064f8,0x1
  4037ee:	jmp    0x4037f7
  4037f0:	and    DWORD PTR ds:0x4064f8,0x0
  4037f7:	push   DWORD PTR [ebp+0x10]
  4037fa:	push   0x20019
  4037ff:	push   0x0
  403801:	push   esi
  403802:	push   0x80000002
  403807:	call   DWORD PTR ds:0x40702c
  40380d:	pop    esi
  40380e:	pop    ebp
  40380f:	ret    0xc
  403812:	int3   
  403813:	int3   
  403814:	int3   
  403815:	int3   
  403816:	int3   
  403817:	mov    eax,ds:0x406588
  40381c:	mov    ecx,0x406588
  403821:	push   DWORD PTR [eax+0x4]
  403824:	call   0x4039cc
  403829:	mov    eax,ds:0x406588
  40382e:	mov    DWORD PTR [eax+0x4],eax
  403831:	mov    eax,ds:0x406588
  403836:	mov    DWORD PTR [eax],eax
  403838:	mov    eax,ds:0x406588
  40383d:	mov    DWORD PTR [eax+0x8],eax
  403840:	push   DWORD PTR ds:0x406588
  403846:	and    DWORD PTR ds:0x40658c,0x0
  40384d:	call   DWORD PTR ds:0x4070bc
  403853:	pop    ecx
  403854:	ret    
  403855:	int3   
  403856:	int3   
  403857:	int3   
  403858:	int3   
  403859:	int3   
  40385a:	mov    edi,edi
  40385c:	push   esi
  40385d:	mov    esi,ecx
  40385f:	cmp    DWORD PTR [esi],0x0
  403862:	je     0x403877
  403864:	push   DWORD PTR [esi]
  403866:	call   DWORD PTR ds:0x4070bc
  40386c:	xor    eax,eax
  40386e:	pop    ecx
  40386f:	mov    DWORD PTR [esi],eax
  403871:	mov    DWORD PTR [esi+0x4],eax
  403874:	mov    DWORD PTR [esi+0x8],eax
  403877:	pop    esi
  403878:	ret    
  403879:	int3   
  40387a:	int3   
  40387b:	int3   
  40387c:	int3   
  40387d:	int3   
  40387e:	mov    edi,edi
  403880:	push   ebp
  403881:	mov    ebp,esp
  403883:	push   ebx
  403884:	mov    ebx,ecx
  403886:	push   esi
  403887:	mov    esi,DWORD PTR [ebp+0x8]
  40388a:	mov    eax,DWORD PTR [ebx+0x4]
  40388d:	mov    ecx,eax
  40388f:	mov    edx,DWORD PTR [ebx]
  403891:	sub    ecx,edx
  403893:	cmp    ecx,esi
  403895:	jbe    0x4038bd
  403897:	add    esi,edx
  403899:	cmp    esi,edx
  40389b:	jne    0x4038a2
  40389d:	mov    DWORD PTR [ebx+0x4],edx
  4038a0:	jmp    0x4038e7
  4038a2:	cmp    esi,eax
  4038a4:	je     0x4038e7
  4038a6:	push   edi
  4038a7:	mov    edi,eax
  4038a9:	sub    edi,eax
  4038ab:	push   edi
  4038ac:	push   eax
  4038ad:	push   esi
  4038ae:	call   DWORD PTR ds:0x40712c
  4038b4:	add    esp,0xc
  4038b7:	lea    eax,[edi+esi*1]
  4038ba:	pop    edi
  4038bb:	jmp    0x4038e4
  4038bd:	jae    0x4038e7
  4038bf:	sub    edx,eax
  4038c1:	mov    ecx,ebx
  4038c3:	add    edx,esi
  4038c5:	push   edx
  4038c6:	call   0x4038f2
  4038cb:	mov    eax,DWORD PTR [ebx]
  4038cd:	sub    eax,DWORD PTR [ebx+0x4]
  4038d0:	add    eax,esi
  4038d2:	push   eax
  4038d3:	push   0x0
  4038d5:	push   DWORD PTR [ebx+0x4]
  4038d8:	call   0x40562a
  4038dd:	mov    eax,DWORD PTR [ebx]
  4038df:	add    esp,0xc
  4038e2:	add    eax,esi
  4038e4:	mov    DWORD PTR [ebx+0x4],eax
  4038e7:	pop    esi
  4038e8:	pop    ebx
  4038e9:	pop    ebp
  4038ea:	ret    0x4
  4038ed:	int3   
  4038ee:	int3   
  4038ef:	int3   
  4038f0:	int3   
  4038f1:	int3   
  4038f2:	mov    edi,edi
  4038f4:	push   ebp
  4038f5:	mov    ebp,esp
  4038f7:	mov    edx,DWORD PTR [ecx+0x8]
  4038fa:	mov    eax,edx
  4038fc:	push   esi
  4038fd:	mov    esi,DWORD PTR [ecx+0x4]
  403900:	sub    eax,esi
  403902:	cmp    eax,DWORD PTR [ebp+0x8]
  403905:	jae    0x403939
  403907:	mov    eax,DWORD PTR [ecx]
  403909:	sub    eax,esi
  40390b:	dec    eax
  40390c:	cmp    eax,DWORD PTR [ebp+0x8]
  40390f:	jb     0x40393e
  403911:	sub    edx,DWORD PTR [ecx]
  403913:	or     eax,0xffffffff
  403916:	sub    esi,DWORD PTR [ecx]
  403918:	add    esi,DWORD PTR [ebp+0x8]
  40391b:	push   edi
  40391c:	mov    edi,edx
  40391e:	shr    edi,1
  403920:	sub    eax,edi
  403922:	cmp    eax,edx
  403924:	jae    0x40392a
  403926:	xor    edx,edx
  403928:	jmp    0x40392c
  40392a:	add    edx,edi
  40392c:	pop    edi
  40392d:	cmp    edx,esi
  40392f:	jae    0x403933
  403931:	mov    edx,esi
  403933:	push   edx
  403934:	call   0x403949
  403939:	pop    esi
  40393a:	pop    ebp
  40393b:	ret    0x4
  40393e:	call   0x4039bc
  403943:	int3   
  403944:	int3   
  403945:	int3   
  403946:	int3   
  403947:	int3   
  403948:	int3   
  403949:	mov    edi,edi
  40394b:	push   ebp
  40394c:	mov    ebp,esp
  40394e:	push   ecx
  40394f:	push   ebx
  403950:	push   esi
  403951:	push   edi
  403952:	mov    edi,DWORD PTR [ebp+0x8]
  403955:	xor    esi,esi
  403957:	mov    ebx,ecx
  403959:	test   edi,edi
  40395b:	je     0x403970
  40395d:	cmp    edi,0xffffffff
  403960:	ja     0x4039b1
  403962:	push   edi
  403963:	call   DWORD PTR ds:0x4070b8
  403969:	mov    esi,eax
  40396b:	pop    ecx
  40396c:	test   esi,esi
  40396e:	je     0x4039b1
  403970:	mov    eax,DWORD PTR [ebx+0x4]
  403973:	sub    eax,DWORD PTR [ebx]
  403975:	push   eax
  403976:	push   DWORD PTR [ebx]
  403978:	push   esi
  403979:	call   DWORD PTR ds:0x40712c
  40397f:	mov    eax,DWORD PTR [ebx+0x4]
  403982:	add    esp,0xc
  403985:	sub    eax,DWORD PTR [ebx]
  403987:	cmp    DWORD PTR [ebx],0x0
  40398a:	mov    DWORD PTR [ebp-0x4],eax
  40398d:	je     0x403998
  40398f:	push   DWORD PTR [ebx]
  403991:	call   DWORD PTR ds:0x4070bc
  403997:	pop    ecx
  403998:	lea    eax,[esi+edi*1]
  40399b:	mov    DWORD PTR [ebx],esi
  40399d:	mov    DWORD PTR [ebx+0x8],eax
  4039a0:	mov    eax,DWORD PTR [ebp-0x4]
  4039a3:	pop    edi
  4039a4:	add    eax,esi
  4039a6:	pop    esi
  4039a7:	mov    DWORD PTR [ebx+0x4],eax
  4039aa:	pop    ebx
  4039ab:	mov    esp,ebp
  4039ad:	pop    ebp
  4039ae:	ret    0x4
  4039b1:	call   0x405015
  4039b6:	int3   
  4039b7:	int3   
  4039b8:	int3   
  4039b9:	int3   
  4039ba:	int3   
  4039bb:	int3   
  4039bc:	push   0x402090
  4039c1:	call   0x405049
  4039c6:	int3   
  4039c7:	int3   
  4039c8:	int3   
  4039c9:	int3   
  4039ca:	int3   
  4039cb:	int3   
  4039cc:	mov    edi,edi
  4039ce:	push   ebp
  4039cf:	mov    ebp,esp
  4039d1:	push   ebx
  4039d2:	push   esi
  4039d3:	push   edi
  4039d4:	mov    edi,DWORD PTR [ebp+0x8]
  4039d7:	mov    ebx,ecx
  4039d9:	mov    esi,edi
  4039db:	cmp    BYTE PTR [edi+0xd],0x0
  4039df:	jne    0x4039fd
  4039e1:	push   DWORD PTR [esi+0x8]
  4039e4:	mov    ecx,ebx
  4039e6:	call   0x4039cc
  4039eb:	mov    esi,DWORD PTR [esi]
  4039ed:	push   edi
  4039ee:	call   DWORD PTR ds:0x4070bc
  4039f4:	cmp    BYTE PTR [esi+0xd],0x0
  4039f8:	mov    edi,esi
  4039fa:	pop    ecx
  4039fb:	je     0x4039e1
  4039fd:	pop    edi
  4039fe:	pop    esi
  4039ff:	pop    ebx
  403a00:	pop    ebp
  403a01:	ret    0x4
  403a04:	int3   
  403a05:	int3   
  403a06:	int3   
  403a07:	int3   
  403a08:	int3   
  403a09:	push   0x18
  403a0b:	call   DWORD PTR ds:0x4070b8
  403a11:	pop    ecx
  403a12:	test   eax,eax
  403a14:	je     0x405015
  403a1a:	lea    ecx,[eax+0x4]
  403a1d:	mov    DWORD PTR [eax],eax
  403a1f:	test   ecx,ecx
  403a21:	je     0x403a25
  403a23:	mov    DWORD PTR [ecx],eax
  403a25:	lea    ecx,[eax+0x8]
  403a28:	test   ecx,ecx
  403a2a:	je     0x403a2e
  403a2c:	mov    DWORD PTR [ecx],eax
  403a2e:	mov    WORD PTR [eax+0xc],0x101
  403a34:	ret    
  403a35:	int3   
  403a36:	int3   
  403a37:	int3   
  403a38:	int3   
  403a39:	int3   
  403a3a:	mov    edi,edi
  403a3c:	push   ebp
  403a3d:	mov    ebp,esp
  403a3f:	lea    eax,[ebp+0x14]
  403a42:	push   eax
  403a43:	push   DWORD PTR [ebp+0x10]
  403a46:	push   0xffffffff
  403a48:	push   DWORD PTR [ebp+0xc]
  403a4b:	push   DWORD PTR [ebp+0x8]
  403a4e:	call   DWORD PTR ds:0x407130
  403a54:	add    esp,0x14
  403a57:	cmp    eax,0xffffffff
  403a5a:	jne    0x403a63
  403a5c:	mov    eax,0x8007007a
  403a61:	pop    ebp
  403a62:	ret    
  403a63:	xor    eax,eax
  403a65:	pop    ebp
  403a66:	ret    
  403a67:	int3   
  403a68:	int3   
  403a69:	int3   
  403a6a:	int3   
  403a6b:	int3   
  403a6c:	test   ecx,ecx
  403a6e:	je     0x403a88
  403a70:	push   esi
  403a71:	lea    edx,[ecx+0x2]
  403a74:	xor    esi,esi
  403a76:	mov    ax,WORD PTR [ecx]
  403a79:	add    ecx,0x2
  403a7c:	cmp    ax,si
  403a7f:	jne    0x403a76
  403a81:	sub    ecx,edx
  403a83:	sar    ecx,1
  403a85:	pop    esi
  403a86:	jmp    0x403a8a
  403a88:	xor    ecx,ecx
  403a8a:	mov    eax,ecx
  403a8c:	ret    
  403a8d:	int3   
  403a8e:	int3   
  403a8f:	int3   
  403a90:	int3   
  403a91:	int3   
  403a92:	mov    DWORD PTR [ecx],0x401ff0
  403a98:	ret    
  403a99:	int3   
  403a9a:	int3   
  403a9b:	int3   
  403a9c:	int3   
  403a9d:	int3   
  403a9e:	int3   
  403a9f:	int3   
  403aa0:	mov    edi,edi
  403aa2:	push   ebp
  403aa3:	mov    ebp,esp
  403aa5:	test   BYTE PTR [ebp+0x8],0x1
  403aa9:	push   esi
  403aaa:	mov    esi,ecx
  403aac:	mov    DWORD PTR [esi],0x401ff0
  403ab2:	je     0x403abc
  403ab4:	push   esi
  403ab5:	call   DWORD PTR ds:0x4070bc
  403abb:	pop    ecx
  403abc:	mov    eax,esi
  403abe:	pop    esi
  403abf:	pop    ebp
  403ac0:	ret    0x4
  403ac3:	int3   
  403ac4:	int3   
  403ac5:	int3   
  403ac6:	int3   
  403ac7:	int3   
  403ac8:	mov    edi,edi
  403aca:	push   ebp
  403acb:	mov    ebp,esp
  403acd:	sub    esp,0x14
  403ad0:	mov    eax,ds:0x406004
  403ad5:	xor    eax,ebp
  403ad7:	mov    DWORD PTR [ebp-0x4],eax
  403ada:	mov    eax,ds:0x406500
  403adf:	push   ebx
  403ae0:	push   esi
  403ae1:	push   edi
  403ae2:	mov    ebx,DWORD PTR [eax+0x8]
  403ae5:	mov    edi,ecx
  403ae7:	mov    DWORD PTR [ebp-0x8],edi
  403aea:	mov    esi,0x402008
  403aef:	jmp    0x403b07
  403af1:	xor    ecx,ecx
  403af3:	mov    eax,DWORD PTR [esi+ecx*4]
  403af6:	cmp    eax,DWORD PTR [ebx+ecx*4+0x8]
  403afa:	jne    0x403b04
  403afc:	inc    ecx
  403afd:	cmp    ecx,0x4
  403b00:	jne    0x403af3
  403b02:	jmp    0x403b0b
  403b04:	mov    ebx,DWORD PTR [ebx+0x4]
  403b07:	test   ebx,ebx
  403b09:	jne    0x403af1
  403b0b:	test   ebx,ebx
  403b0d:	jne    0x403b99
  403b13:	push   ecx
  403b14:	xor    eax,eax
  403b16:	push   ecx
  403b17:	mov    ds:0x406598,ax
  403b1d:	call   0x404035
  403b22:	test   eax,eax
  403b24:	je     0x403b30
  403b26:	mov    eax,0x80004002
  403b2b:	jmp    0x403c10
  403b30:	push   0x406598
  403b35:	call   DWORD PTR ds:0x40709c
  403b3b:	mov    DWORD PTR [ebp-0xc],eax
  403b3e:	test   eax,eax
  403b40:	je     0x403b26
  403b42:	push   0x1c
  403b44:	call   DWORD PTR ds:0x4070b8
  403b4a:	mov    ebx,eax
  403b4c:	mov    DWORD PTR [ebp-0x10],ebx
  403b4f:	pop    ecx
  403b50:	test   ebx,ebx
  403b52:	je     0x403b70
  403b54:	and    DWORD PTR [ebx+0x4],0x0
  403b58:	lea    edi,[ebx+0x8]
  403b5b:	mov    eax,DWORD PTR [ebp-0xc]
  403b5e:	mov    DWORD PTR [ebx],0x401fec
  403b64:	movs   DWORD PTR es:[edi],DWORD PTR ds:[esi]
  403b65:	movs   DWORD PTR es:[edi],DWORD PTR ds:[esi]
  403b66:	movs   DWORD PTR es:[edi],DWORD PTR ds:[esi]
  403b67:	movs   DWORD PTR es:[edi],DWORD PTR ds:[esi]
  403b68:	mov    edi,DWORD PTR [ebp-0x8]
  403b6b:	mov    DWORD PTR [ebx+0x18],eax
  403b6e:	jmp    0x403b72
  403b70:	xor    ebx,ebx
  403b72:	test   ebx,ebx
  403b74:	jne    0x403b80
  403b76:	mov    eax,0x8007000e
  403b7b:	jmp    0x403c10
  403b80:	mov    edx,DWORD PTR ds:0x406500
  403b86:	lea    eax,[edx+0x8]
  403b89:	jmp    0x403b8e
  403b8b:	lea    eax,[ecx+0x4]
  403b8e:	mov    ecx,DWORD PTR [eax]
  403b90:	test   ecx,ecx
  403b92:	jne    0x403b8b
  403b94:	mov    DWORD PTR [eax],ebx
  403b96:	inc    DWORD PTR [edx+0x4]
  403b99:	push   0x4020b8
  403b9e:	push   DWORD PTR [ebx+0x18]
  403ba1:	call   DWORD PTR ds:0x407088
  403ba7:	mov    esi,eax
  403ba9:	test   esi,esi
  403bab:	jne    0x403bf1
  403bad:	mov    edx,DWORD PTR ds:0x406500
  403bb3:	lea    ecx,[edx+0x8]
  403bb6:	jmp    0x403bc1
  403bb8:	mov    eax,DWORD PTR [ecx]
  403bba:	cmp    ebx,eax
  403bbc:	je     0x403be7
  403bbe:	lea    ecx,[eax+0x4]
  403bc1:	cmp    DWORD PTR [ecx],0x0
  403bc4:	jne    0x403bb8
  403bc6:	xor    ebx,ebx
  403bc8:	test   ebx,ebx
  403bca:	je     0x403b26
  403bd0:	mov    eax,DWORD PTR [ebx]
  403bd2:	push   0x1
  403bd4:	mov    esi,DWORD PTR [eax]
  403bd6:	mov    ecx,esi
  403bd8:	call   DWORD PTR ds:0x40717c
  403bde:	mov    ecx,ebx
  403be0:	call   esi
  403be2:	jmp    0x403b26
  403be7:	mov    eax,DWORD PTR [eax+0x4]
  403bea:	mov    DWORD PTR [ecx],eax
  403bec:	dec    DWORD PTR [edx+0x4]
  403bef:	jmp    0x403bc8
  403bf1:	push   edi
  403bf2:	push   0x4021e4
  403bf7:	push   0x402008
  403bfc:	mov    ecx,esi
  403bfe:	call   DWORD PTR ds:0x40717c
  403c04:	call   esi
  403c06:	test   eax,eax
  403c08:	js     0x403b26
  403c0e:	xor    eax,eax
  403c10:	mov    ecx,DWORD PTR [ebp-0x4]
  403c13:	pop    edi
  403c14:	pop    esi
  403c15:	xor    ecx,ebp
  403c17:	pop    ebx
  403c18:	call   0x404560
  403c1d:	mov    esp,ebp
  403c1f:	pop    ebp
  403c20:	ret    
  403c21:	int3   
  403c22:	int3   
  403c23:	int3   
  403c24:	int3   
  403c25:	int3   
  403c26:	mov    edi,edi
  403c28:	push   ebp
  403c29:	mov    ebp,esp
  403c2b:	push   ecx
  403c2c:	push   ecx
  403c2d:	mov    eax,ds:0x406004
  403c32:	xor    eax,ebp
  403c34:	mov    DWORD PTR [ebp-0x4],eax
  403c37:	push   ebx
  403c38:	mov    ebx,DWORD PTR [ebp+0x10]
  403c3b:	push   esi
  403c3c:	push   edi
  403c3d:	test   ebx,ebx
  403c3f:	jne    0x403c48
  403c41:	mov    eax,0x80070057
  403c46:	jmp    0x403ca2
  403c48:	and    DWORD PTR [ebx],0x0
  403c4b:	and    DWORD PTR [ebp-0x8],0x0
  403c4f:	cmp    DWORD PTR ds:0x406500,0x0
  403c56:	jne    0x403c5f
  403c58:	mov    edi,0x800401f0
  403c5d:	jmp    0x403ca0
  403c5f:	lea    ecx,[ebp-0x8]
  403c62:	call   0x403ac8
  403c67:	mov    edi,eax
  403c69:	test   edi,edi
  403c6b:	js     0x403ca0
  403c6d:	mov    eax,DWORD PTR [ebp-0x8]
  403c70:	test   eax,eax
  403c72:	je     0x403ca0
  403c74:	mov    esi,DWORD PTR [eax]
  403c76:	push   ebx
  403c77:	push   0x401ff8
  403c7c:	push   0x0
  403c7e:	mov    ecx,DWORD PTR [esi+0xc]
  403c81:	push   eax
  403c82:	call   DWORD PTR ds:0x40717c
  403c88:	call   DWORD PTR [esi+0xc]
  403c8b:	mov    edi,eax
  403c8d:	mov    eax,DWORD PTR [ebp-0x8]
  403c90:	push   eax
  403c91:	mov    ecx,DWORD PTR [eax]
  403c93:	mov    esi,DWORD PTR [ecx+0x8]
  403c96:	mov    ecx,esi
  403c98:	call   DWORD PTR ds:0x40717c
  403c9e:	call   esi
  403ca0:	mov    eax,edi
  403ca2:	mov    ecx,DWORD PTR [ebp-0x4]
  403ca5:	pop    edi
  403ca6:	pop    esi
  403ca7:	xor    ecx,ebp
  403ca9:	pop    ebx
  403caa:	call   0x404560
  403caf:	mov    esp,ebp
  403cb1:	pop    ebp
  403cb2:	ret    0xc
  403cb5:	int3   
  403cb6:	int3   
  403cb7:	int3   
  403cb8:	int3   
  403cb9:	int3   
  403cba:	int3   
  403cbb:	int3   
  403cbc:	int3   
  403cbd:	int3   
  403cbe:	int3   
  403cbf:	int3   
  403cc0:	push   0x8
  403cc2:	mov    eax,0x40563d
  403cc7:	call   0x40559c
  403ccc:	mov    esi,ecx
  403cce:	mov    DWORD PTR [ebp-0x14],esi
  403cd1:	mov    DWORD PTR [esi],0x401fec
  403cd7:	and    DWORD PTR [ebp-0x4],0x0
  403cdb:	cmp    DWORD PTR [esi+0x18],0x0
  403cdf:	je     0x403d11
  403ce1:	push   0x4020cc
  403ce6:	push   DWORD PTR [esi+0x18]
  403ce9:	call   DWORD PTR ds:0x407088
  403cef:	mov    edi,eax
  403cf1:	test   edi,edi
  403cf3:	je     0x403d08
  403cf5:	mov    ecx,edi
  403cf7:	call   DWORD PTR ds:0x40717c
  403cfd:	call   edi
  403cff:	neg    eax
  403d01:	sbb    eax,eax
  403d03:	add    eax,0x1
  403d06:	je     0x403d11
  403d08:	push   DWORD PTR [esi+0x18]
  403d0b:	call   DWORD PTR ds:0x407034
  403d11:	test   BYTE PTR [ebp+0x8],0x1
  403d15:	mov    DWORD PTR [esi],0x401ff0
  403d1b:	je     0x403d25
  403d1d:	push   esi
  403d1e:	call   DWORD PTR ds:0x4070bc
  403d24:	pop    ecx
  403d25:	mov    eax,esi
  403d27:	call   0x405550
  403d2c:	ret    0x4
  403d2f:	int3   
  403d30:	int3   
  403d31:	int3   
  403d32:	int3   
  403d33:	int3   
  403d34:	int3   
  403d35:	int3   
  403d36:	int3   
  403d37:	int3   
  403d38:	int3   
  403d39:	int3   
  403d3a:	int3   
  403d3b:	int3   
  403d3c:	int3   
  403d3d:	int3   
  403d3e:	int3   
  403d3f:	int3   
  403d40:	mov    edi,edi
  403d42:	push   ebp
  403d43:	mov    ebp,esp
  403d45:	push   esi
  403d46:	mov    esi,ecx
  403d48:	mov    DWORD PTR [esi],0x401fe8
  403d4e:	call   0x403d97
  403d53:	test   BYTE PTR [ebp+0x8],0x1
  403d57:	je     0x403d61
  403d59:	push   esi
  403d5a:	call   DWORD PTR ds:0x4070bc
  403d60:	pop    ecx
  403d61:	mov    eax,esi
  403d63:	pop    esi
  403d64:	pop    ebp
  403d65:	ret    0x4
  403d68:	int3   
  403d69:	int3   
  403d6a:	int3   
  403d6b:	int3   
  403d6c:	int3   
  403d6d:	int3   
  403d6e:	int3   
  403d6f:	int3   
  403d70:	mov    edi,edi
  403d72:	push   ebp
  403d73:	mov    ebp,esp
  403d75:	push   esi
  403d76:	mov    esi,ecx
  403d78:	call   0x403d97
  403d7d:	test   BYTE PTR [ebp+0x8],0x1
  403d81:	je     0x403d8b
  403d83:	push   esi
  403d84:	call   DWORD PTR ds:0x4070bc
  403d8a:	pop    ecx
  403d8b:	mov    eax,esi
  403d8d:	pop    esi
  403d8e:	pop    ebp
  403d8f:	ret    0x4
  403d92:	int3   
  403d93:	int3   
  403d94:	int3   
  403d95:	int3   
  403d96:	int3   
  403d97:	mov    edi,edi
  403d99:	push   ebp
  403d9a:	mov    ebp,esp
  403d9c:	push   ecx
  403d9d:	mov    eax,ds:0x406004
  403da2:	xor    eax,ebp
  403da4:	mov    DWORD PTR [ebp-0x4],eax
  403da7:	push   ebx
  403da8:	push   esi
  403da9:	push   edi
  403daa:	mov    edi,ecx
  403dac:	mov    DWORD PTR [edi],0x401ff4
  403db2:	lea    ecx,[edi+0x8]
  403db5:	xor    eax,eax
  403db7:	mov    edx,ecx
  403db9:	cmp    DWORD PTR [edx],eax
  403dbb:	je     0x403dcc
  403dbd:	test   eax,eax
  403dbf:	je     0x403de6
  403dc1:	mov    edx,DWORD PTR [edx]
  403dc3:	add    edx,0x4
  403dc6:	inc    eax
  403dc7:	cmp    DWORD PTR [edx],0x0
  403dca:	jne    0x403dbd
  403dcc:	xor    ebx,ebx
  403dce:	test   ebx,ebx
  403dd0:	je     0x403df2
  403dd2:	mov    eax,DWORD PTR [ebx]
  403dd4:	push   0x1
  403dd6:	mov    esi,DWORD PTR [eax]
  403dd8:	mov    ecx,esi
  403dda:	call   DWORD PTR ds:0x40717c
  403de0:	mov    ecx,ebx
  403de2:	call   esi
  403de4:	jmp    0x403db2
  403de6:	mov    ebx,DWORD PTR [edx]
  403de8:	mov    eax,DWORD PTR [ebx+0x4]
  403deb:	mov    DWORD PTR [edx],eax
  403ded:	dec    DWORD PTR [edi+0x4]
  403df0:	jmp    0x403dce
  403df2:	and    DWORD PTR [edi+0x4],0x0
  403df6:	and    DWORD PTR [ecx],0x0
  403df9:	mov    ecx,DWORD PTR [ebp-0x4]
  403dfc:	pop    edi
  403dfd:	pop    esi
  403dfe:	xor    ecx,ebp
  403e00:	pop    ebx
  403e01:	call   0x404560
  403e06:	mov    esp,ebp
  403e08:	pop    ebp
  403e09:	ret    
  403e0a:	int3   
  403e0b:	int3   
  403e0c:	int3   
  403e0d:	int3   
  403e0e:	int3   
  403e0f:	cmp    DWORD PTR [ecx],0x0
  403e12:	je     0x403e21
  403e14:	cmp    DWORD PTR [ecx],0xffffffff
  403e17:	je     0x403e21
  403e19:	push   DWORD PTR [ecx]
  403e1b:	call   DWORD PTR ds:0x40703c
  403e21:	ret    
  403e22:	int3   
  403e23:	int3   
  403e24:	int3   
  403e25:	int3   
  403e26:	int3   
  403e27:	push   0x18
  403e29:	mov    eax,0x405677
  403e2e:	call   0x405564
  403e33:	mov    DWORD PTR [ebp-0x18],ecx
  403e36:	xor    esi,esi
  403e38:	mov    eax,esi
  403e3a:	mov    DWORD PTR [ebp-0x10],eax
  403e3d:	mov    DWORD PTR [ebp-0x4],esi
  403e40:	test   ecx,ecx
  403e42:	je     0x403eea
  403e48:	lea    eax,[ebp-0x10]
  403e4b:	push   eax
  403e4c:	push   0x18
  403e4e:	call   DWORD PTR ds:0x407050
  403e54:	push   eax
  403e55:	call   DWORD PTR ds:0x407020
  403e5b:	test   eax,eax
  403e5d:	je     0x403ee7
  403e63:	lea    eax,[ebp-0x14]
  403e66:	mov    DWORD PTR [ebp-0x14],esi
  403e69:	push   eax
  403e6a:	push   esi
  403e6b:	push   esi
  403e6c:	push   0x19
  403e6e:	push   DWORD PTR [ebp-0x10]
  403e71:	call   DWORD PTR ds:0x407014
  403e77:	cmp    DWORD PTR [ebp-0x14],esi
  403e7a:	je     0x403ee7
  403e7c:	mov    DWORD PTR [ebp-0x24],esi
  403e7f:	mov    DWORD PTR [ebp-0x20],esi
  403e82:	mov    DWORD PTR [ebp-0x1c],esi
  403e85:	mov    BYTE PTR [ebp-0x4],0x1
  403e89:	lea    ecx,[ebp-0x24]
  403e8c:	push   DWORD PTR [ebp-0x14]
  403e8f:	call   0x40387e
  403e94:	mov    edi,DWORD PTR [ebp-0x24]
  403e97:	lea    eax,[ebp-0x14]
  403e9a:	push   eax
  403e9b:	push   DWORD PTR [ebp-0x14]
  403e9e:	push   edi
  403e9f:	push   0x19
  403ea1:	push   DWORD PTR [ebp-0x10]
  403ea4:	call   DWORD PTR ds:0x407014
  403eaa:	test   eax,eax
  403eac:	je     0x403edb
  403eae:	test   edi,edi
  403eb0:	je     0x403ee7
  403eb2:	mov    ebx,DWORD PTR [edi]
  403eb4:	push   ebx
  403eb5:	call   DWORD PTR ds:0x407010
  403ebb:	test   eax,eax
  403ebd:	je     0x403edb
  403ebf:	push   ebx
  403ec0:	call   DWORD PTR ds:0x407018
  403ec6:	cmp    BYTE PTR [eax],0x1
  403ec9:	jb     0x403edb
  403ecb:	push   esi
  403ecc:	push   ebx
  403ecd:	call   DWORD PTR ds:0x40701c
  403ed3:	mov    ecx,DWORD PTR [ebp-0x18]
  403ed6:	inc    esi
  403ed7:	mov    eax,DWORD PTR [eax]
  403ed9:	mov    DWORD PTR [ecx],eax
  403edb:	test   edi,edi
  403edd:	je     0x403ee7
  403edf:	push   edi
  403ee0:	call   DWORD PTR ds:0x4070bc
  403ee6:	pop    ecx
  403ee7:	mov    eax,DWORD PTR [ebp-0x10]
  403eea:	test   eax,eax
  403eec:	je     0x403efa
  403eee:	cmp    eax,0xffffffff
  403ef1:	je     0x403efa
  403ef3:	push   eax
  403ef4:	call   DWORD PTR ds:0x40703c
  403efa:	mov    eax,esi
  403efc:	call   0x405537
  403f01:	ret    
  403f02:	int3   
  403f03:	int3   
  403f04:	int3   
  403f05:	int3   
  403f06:	int3   
  403f07:	mov    edi,edi
  403f09:	push   ebp
  403f0a:	mov    ebp,esp
  403f0c:	push   ecx
  403f0d:	and    DWORD PTR [ebp-0x4],0x0
  403f11:	lea    ecx,[ebp-0x4]
  403f14:	call   0x403e27
  403f19:	test   eax,eax
  403f1b:	je     0x403f28
  403f1d:	cmp    DWORD PTR [ebp-0x4],0x2000
  403f24:	sbb    eax,eax
  403f26:	neg    eax
  403f28:	mov    esp,ebp
  403f2a:	pop    ebp
  403f2b:	ret    
  403f2c:	int3   
  403f2d:	int3   
  403f2e:	int3   
  403f2f:	int3   
  403f30:	int3   
  403f31:	mov    edi,edi
  403f33:	push   ebp
  403f34:	mov    ebp,esp
  403f36:	sub    esp,0x138
  403f3c:	mov    eax,ds:0x406004
  403f41:	xor    eax,ebp
  403f43:	mov    DWORD PTR [ebp-0x4],eax
  403f46:	push   esi
  403f47:	push   edi
  403f48:	lea    eax,[ebp-0x128]
  403f4e:	mov    DWORD PTR [ebp-0x128],0x11c
  403f58:	push   eax
  403f59:	call   DWORD PTR ds:0x407040
  403f5f:	test   eax,eax
  403f61:	setne  al
  403f64:	mov    BYTE PTR [ebp-0xc],al
  403f67:	test   al,al
  403f69:	je     0x403ff5
  403f6f:	cmp    DWORD PTR [ebp-0x124],0x6
  403f76:	jb     0x403ff5
  403f78:	lea    eax,[ebp-0x12c]
  403f7e:	xor    edi,edi
  403f80:	push   eax
  403f81:	push   0x20019
  403f86:	push   edi
  403f87:	push   0x402108
  403f8c:	xor    esi,esi
  403f8e:	mov    DWORD PTR [ebp-0x12c],edi
  403f94:	push   0x80000002
  403f99:	inc    esi
  403f9a:	call   DWORD PTR ds:0x40702c
  403fa0:	test   eax,eax
  403fa2:	jne    0x403ff1
  403fa4:	lea    eax,[ebp-0x134]
  403faa:	mov    DWORD PTR [ebp-0x130],edi
  403fb0:	push   eax
  403fb1:	lea    eax,[ebp-0x130]
  403fb7:	mov    DWORD PTR [ebp-0x134],0x4
  403fc1:	push   eax
  403fc2:	push   edi
  403fc3:	push   edi
  403fc4:	push   0x40217c
  403fc9:	push   DWORD PTR [ebp-0x12c]
  403fcf:	call   DWORD PTR ds:0x407028
  403fd5:	test   eax,eax
  403fd7:	jne    0x403fe5
  403fd9:	mov    eax,DWORD PTR [ebp-0x130]
  403fdf:	neg    eax
  403fe1:	sbb    eax,eax
  403fe3:	and    esi,eax
  403fe5:	push   DWORD PTR [ebp-0x12c]
  403feb:	call   DWORD PTR ds:0x407024
  403ff1:	mov    eax,esi
  403ff3:	jmp    0x403ff7
  403ff5:	xor    eax,eax
  403ff7:	mov    ecx,DWORD PTR [ebp-0x4]
  403ffa:	pop    edi
  403ffb:	xor    ecx,ebp
  403ffd:	pop    esi
  403ffe:	call   0x404560
  404003:	mov    esp,ebp
  404005:	pop    ebp
  404006:	ret    
  404007:	int3   
  404008:	int3   
  404009:	int3   
  40400a:	int3   
  40400b:	int3   
  40400c:	push   0xffffffff
  40400e:	push   ecx
  40400f:	push   0x104
  404014:	push   0x406598
  404019:	call   DWORD PTR ds:0x407134
  40401f:	add    esp,0x10
  404022:	cmp    eax,0x50
  404025:	jne    0x40402d
  404027:	mov    eax,0x8007007a
  40402c:	ret    
  40402d:	xor    eax,eax
  40402f:	ret    
  404030:	int3   
  404031:	int3   
  404032:	int3   
  404033:	int3   
  404034:	int3   
  404035:	mov    edi,edi
  404037:	push   ebp
  404038:	mov    ebp,esp
  40403a:	sub    esp,0x29c
  404040:	mov    eax,ds:0x406004
  404045:	xor    eax,ebp
  404047:	mov    DWORD PTR [ebp-0x4],eax
  40404a:	push   ebx
  40404b:	push   esi
  40404c:	push   edi
  40404d:	push   0x40
  40404f:	lea    eax,[ebp-0x88]
  404055:	push   eax
  404056:	push   0x402008
  40405b:	call   DWORD PTR ds:0x407174
  404061:	test   eax,eax
  404063:	jne    0x40406d
  404065:	or     eax,0xffffffff
  404068:	jmp    0x4041d2
  40406d:	lea    eax,[ebp-0x88]
  404073:	push   eax
  404074:	push   0x402190
  404079:	lea    eax,[ebp-0x288]
  40407f:	push   0x100
  404084:	push   eax
  404085:	call   0x403a3a
  40408a:	add    esp,0x10
  40408d:	test   eax,eax
  40408f:	js     0x404065
  404091:	lea    eax,[ebp-0x28c]
  404097:	push   eax
  404098:	push   ecx
  404099:	push   ecx
  40409a:	lea    edx,[ebp-0x288]
  4040a0:	call   0x4037b9
  4040a5:	test   eax,eax
  4040a7:	jne    0x4041d2
  4040ad:	lea    eax,[ebp-0x294]
  4040b3:	mov    DWORD PTR [ebp-0x294],0x208
  4040bd:	push   eax
  4040be:	mov    ebx,0x406598
  4040c3:	lea    eax,[ebp-0x290]
  4040c9:	push   ebx
  4040ca:	push   eax
  4040cb:	push   0x0
  4040cd:	push   0x0
  4040cf:	push   DWORD PTR [ebp-0x28c]
  4040d5:	call   DWORD PTR ds:0x407028
  4040db:	mov    esi,eax
  4040dd:	test   esi,esi
  4040df:	jne    0x4041c4
  4040e5:	push   0x2
  4040e7:	pop    edx
  4040e8:	mov    edi,0x104
  4040ed:	cmp    DWORD PTR [ebp-0x290],edx
  4040f3:	jne    0x40414b
  4040f5:	xor    ecx,ecx
  4040f7:	mov    eax,edi
  4040f9:	mul    edx
  4040fb:	seto   cl
  4040fe:	neg    ecx
  404100:	or     ecx,eax
  404102:	push   ecx
  404103:	call   0x40546b
  404108:	pop    ecx
  404109:	push   edi
  40410a:	mov    esi,eax
  40410c:	push   esi
  40410d:	push   ebx
  40410e:	call   DWORD PTR ds:0x407038
  404114:	test   eax,eax
  404116:	je     0x40416b
  404118:	cmp    eax,edi
  40411a:	jae    0x40416b
  40411c:	mov    ecx,esi
  40411e:	call   0x403a6c
  404123:	cmp    eax,edi
  404125:	jb     0x404130
  404127:	mov    ecx,esi
  404129:	call   0x40400c
  40412e:	jmp    0x40413f
  404130:	push   eax
  404131:	push   esi
  404132:	push   edi
  404133:	push   ebx
  404134:	call   DWORD PTR ds:0x407134
  40413a:	add    esp,0x10
  40413d:	xor    eax,eax
  40413f:	push   esi
  404140:	test   eax,eax
  404142:	jne    0x40416c
  404144:	call   DWORD PTR ds:0x40713c
  40414a:	pop    ecx
  40414b:	xor    eax,eax
  40414d:	cmp    eax,ebx
  40414f:	je     0x404178
  404151:	push   edi
  404152:	push   ebx
  404153:	call   DWORD PTR ds:0x407138
  404159:	pop    ecx
  40415a:	pop    ecx
  40415b:	cmp    eax,edi
  40415d:	je     0x404178
  40415f:	lea    ecx,[ebp-0x298]
  404165:	test   ecx,ecx
  404167:	je     0x4041c2
  404169:	jmp    0x404184
  40416b:	push   esi
  40416c:	call   DWORD PTR ds:0x40713c
  404172:	pop    ecx
  404173:	or     esi,0xffffffff
  404176:	jmp    0x4041c4
  404178:	lea    eax,[ebp-0x298]
  40417e:	test   eax,eax
  404180:	je     0x4041c2
  404182:	xor    eax,eax
  404184:	test   eax,eax
  404186:	je     0x4041c2
  404188:	push   0x22
  40418a:	pop    ecx
  40418b:	cmp    WORD PTR ds:0x406598,cx
  404192:	jne    0x4041c2
  404194:	cmp    WORD PTR [eax*2+0x406596],cx
  40419c:	jne    0x4041c2
  40419e:	add    eax,0xfffffffe
  4041a1:	cmp    eax,edi
  4041a3:	jb     0x4041b1
  4041a5:	mov    ecx,0x40659a
  4041aa:	call   0x40400c
  4041af:	jmp    0x4041c2
  4041b1:	push   eax
  4041b2:	push   0x40659a
  4041b7:	push   edi
  4041b8:	push   ebx
  4041b9:	call   DWORD PTR ds:0x407134
  4041bf:	add    esp,0x10
  4041c2:	xor    esi,esi
  4041c4:	push   DWORD PTR [ebp-0x28c]
  4041ca:	call   DWORD PTR ds:0x407024
  4041d0:	mov    eax,esi
  4041d2:	mov    ecx,DWORD PTR [ebp-0x4]
  4041d5:	pop    edi
  4041d6:	pop    esi
  4041d7:	xor    ecx,ebp
  4041d9:	pop    ebx
  4041da:	call   0x404560
  4041df:	mov    esp,ebp
  4041e1:	pop    ebp
  4041e2:	ret    0x8
  4041e5:	int3   
  4041e6:	int3   
  4041e7:	int3   
  4041e8:	int3   
  4041e9:	int3   
  4041ea:	jmp    DWORD PTR ds:0x4070bc
  4041f0:	int3   
  4041f1:	int3   
  4041f2:	int3   
  4041f3:	int3   
  4041f4:	int3   
  4041f5:	int3   
  4041f6:	int3   
  4041f7:	int3   
  4041f8:	int3   
  4041f9:	int3   
  4041fa:	int3   
  4041fb:	int3   
  4041fc:	int3   
  4041fd:	int3   
  4041fe:	int3   
  4041ff:	int3   
  404200:	mov    eax,0x5a4d
  404205:	cmp    WORD PTR ds:0x400000,ax
  40420c:	je     0x404212
  40420e:	xor    eax,eax
  404210:	jmp    0x404260
  404212:	mov    ecx,DWORD PTR ds:0x40003c
  404218:	cmp    DWORD PTR [ecx+0x400000],0x4550
  404222:	jne    0x40420e
  404224:	movzx  eax,WORD PTR [ecx+0x400018]
  40422b:	cmp    eax,0x10b
  404230:	je     0x40424c
  404232:	cmp    eax,0x20b
  404237:	jne    0x40420e
  404239:	xor    eax,eax
  40423b:	cmp    DWORD PTR [ecx+0x400084],0xe
  404242:	jbe    0x404260
  404244:	cmp    DWORD PTR [ecx+0x4000f8],eax
  40424a:	jmp    0x40425d
  40424c:	xor    eax,eax
  40424e:	cmp    DWORD PTR [ecx+0x400074],0xe
  404255:	jbe    0x404260
  404257:	cmp    DWORD PTR [ecx+0x4000e8],eax
  40425d:	setne  al
  404260:	push   0x2
  404262:	mov    ds:0x406184,eax
  404267:	call   0x40474e
  40426c:	push   eax
  40426d:	call   DWORD PTR ds:0x4070f8
  404273:	or     DWORD PTR ds:0x4067a8,0xffffffff
  40427a:	or     DWORD PTR ds:0x4067ac,0xffffffff
  404281:	pop    ecx
  404282:	pop    ecx
  404283:	call   DWORD PTR ds:0x4070e8
  404289:	mov    ecx,DWORD PTR ds:0x406198
  40428f:	mov    DWORD PTR [eax],ecx
  404291:	call   DWORD PTR ds:0x407104
  404297:	mov    ecx,DWORD PTR ds:0x40618c
  40429d:	mov    DWORD PTR [eax],ecx
  40429f:	call   0x4049a0
  4042a4:	cmp    DWORD PTR ds:0x406000,0x0
  4042ab:	jne    0x4042b9
  4042ad:	push   0x4049a0
  4042b2:	call   DWORD PTR ds:0x4070e4
  4042b8:	pop    ecx
  4042b9:	call   0x4049a8
  4042be:	xor    eax,eax
  4042c0:	ret    
  4042c1:	int3   
  4042c2:	int3   
  4042c3:	int3   
  4042c4:	int3   
  4042c5:	int3   
  4042c6:	int3   
  4042c7:	int3   
  4042c8:	int3   
  4042c9:	int3   
  4042ca:	int3   
  4042cb:	int3   
  4042cc:	int3   
  4042cd:	int3   
  4042ce:	int3   
  4042cf:	int3   
  4042d0:	mov    eax,ds:0x406194
  4042d5:	push   0x406188
  4042da:	push   DWORD PTR ds:0x406190
  4042e0:	mov    ds:0x406188,eax
  4042e5:	push   0x40617c
  4042ea:	push   0x406178
  4042ef:	push   0x406174
  4042f4:	call   DWORD PTR ds:0x4070fc
  4042fa:	add    esp,0x14
  4042fd:	mov    ds:0x406180,eax
  404302:	ret    
  404303:	int3   
  404304:	int3   
  404305:	int3   
  404306:	int3   
  404307:	int3   
  404308:	push   0x5c
  40430a:	push   0x405820
  40430f:	call   0x4049cc
  404314:	and    DWORD PTR [ebp-0x24],0x0
  404318:	and    DWORD PTR [ebp-0x4],0x0
  40431c:	lea    eax,[ebp-0x6c]
  40431f:	push   eax
  404320:	call   DWORD PTR ds:0x407074
  404326:	mov    DWORD PTR [ebp-0x4],0xfffffffe
  40432d:	xor    ebx,ebx
  40432f:	inc    ebx
  404330:	mov    DWORD PTR [ebp-0x4],ebx
  404333:	mov    eax,fs:0x18
  404339:	mov    edi,DWORD PTR [eax+0x4]
  40433c:	xor    esi,esi
  40433e:	mov    edx,0x4067a0
  404343:	mov    ecx,edi
  404345:	xor    eax,eax
  404347:	lock cmpxchg DWORD PTR [edx],ecx
  40434b:	test   eax,eax
  40434d:	je     0x404355
  40434f:	cmp    eax,edi
  404351:	jne    0x404367
  404353:	mov    esi,ebx
  404355:	cmp    DWORD PTR ds:0x4067a4,ebx
  40435b:	jne    0x404374
  40435d:	push   0x1f
  40435f:	call   0x40478a
  404364:	pop    ecx
  404365:	jmp    0x4043a3
  404367:	push   0x3e8
  40436c:	call   DWORD PTR ds:0x407078
  404372:	jmp    0x40433e
  404374:	cmp    DWORD PTR ds:0x4067a4,0x0
  40437b:	jne    0x40439d
  40437d:	mov    DWORD PTR ds:0x4067a4,ebx
  404383:	push   0x401034
  404388:	push   0x401028
  40438d:	call   0x4044f4
  404392:	pop    ecx
  404393:	pop    ecx
  404394:	test   eax,eax
  404396:	je     0x4043a3
  404398:	jmp    0x4044dd
  40439d:	mov    DWORD PTR ds:0x406170,ebx
  4043a3:	cmp    DWORD PTR ds:0x4067a4,ebx
  4043a9:	jne    0x4043c6
  4043ab:	push   0x401024
  4043b0:	push   0x401000
  4043b5:	call   0x4049c0
  4043ba:	pop    ecx
  4043bb:	pop    ecx
  4043bc:	mov    DWORD PTR ds:0x4067a4,0x2
  4043c6:	test   esi,esi
  4043c8:	jne    0x4043d3
  4043ca:	xor    eax,eax
  4043cc:	mov    ecx,0x4067a0
  4043d1:	xchg   DWORD PTR [ecx],eax
  4043d3:	cmp    DWORD PTR ds:0x4067b0,0x0
  4043da:	je     0x404401
  4043dc:	push   0x4067b0
  4043e1:	call   0x4047f0
  4043e6:	pop    ecx
  4043e7:	test   eax,eax
  4043e9:	je     0x404401
  4043eb:	push   0x0
  4043ed:	push   0x2
  4043ef:	push   0x0
  4043f1:	mov    esi,DWORD PTR ds:0x4067b0
  4043f7:	mov    ecx,esi
  4043f9:	call   DWORD PTR ds:0x40717c
  4043ff:	call   esi
  404401:	mov    eax,ds:0x4070dc
  404406:	mov    ecx,DWORD PTR [eax]
  404408:	test   ecx,ecx
  40440a:	je     0x4044dd
  404410:	mov    DWORD PTR [ebp-0x20],ecx
  404413:	push   0x20
  404415:	pop    esi
  404416:	mov    edx,DWORD PTR [ebp-0x24]
  404419:	movzx  eax,WORD PTR [ecx]
  40441c:	cmp    ax,si
  40441f:	ja     0x404471
  404421:	test   ax,ax
  404424:	je     0x40442a
  404426:	test   edx,edx
  404428:	jne    0x404471
  40442a:	movzx  eax,WORD PTR [ecx]
  40442d:	test   ax,ax
  404430:	je     0x40443f
  404432:	cmp    ax,si
  404435:	ja     0x40443f
  404437:	add    ecx,0x2
  40443a:	mov    DWORD PTR [ebp-0x20],ecx
  40443d:	jmp    0x40442a
  40443f:	test   BYTE PTR [ebp-0x40],0x1
  404443:	je     0x40444b
  404445:	movzx  eax,WORD PTR [ebp-0x3c]
  404449:	jmp    0x40444e
  40444b:	push   0xa
  40444d:	pop    eax
  40444e:	push   eax
  40444f:	push   ecx
  404450:	push   0x0
  404452:	push   0x400000
  404457:	call   0x402ed3
  40445c:	mov    ds:0x40616c,eax
  404461:	cmp    DWORD PTR ds:0x406184,0x0
  404468:	jne    0x4044b9
  40446a:	push   eax
  40446b:	call   DWORD PTR ds:0x4070f4
  404471:	cmp    eax,0x22
  404474:	jne    0x404482
  404476:	xor    eax,eax
  404478:	test   edx,edx
  40447a:	sete   al
  40447d:	mov    edx,eax
  40447f:	mov    DWORD PTR [ebp-0x24],edx
  404482:	add    ecx,0x2
  404485:	mov    DWORD PTR [ebp-0x20],ecx
  404488:	jmp    0x404419
  40448a:	mov    ecx,DWORD PTR [ebp-0x14]
  40448d:	mov    eax,DWORD PTR [ecx]
  40448f:	mov    eax,DWORD PTR [eax]
  404491:	mov    DWORD PTR [ebp-0x28],eax
  404494:	push   ecx
  404495:	push   eax
  404496:	call   0x4046d4
  40449b:	pop    ecx
  40449c:	pop    ecx
  40449d:	ret    
  40449e:	mov    esp,DWORD PTR [ebp-0x18]
  4044a1:	mov    eax,DWORD PTR [ebp-0x28]
  4044a4:	mov    ds:0x40616c,eax
  4044a9:	cmp    DWORD PTR ds:0x406184,0x0
  4044b0:	jne    0x4044b9
  4044b2:	push   eax
  4044b3:	call   DWORD PTR ds:0x4070f0
  4044b9:	cmp    DWORD PTR ds:0x406170,0x0
  4044c0:	jne    0x4044cd
  4044c2:	call   DWORD PTR ds:0x4070ec
  4044c8:	mov    eax,ds:0x40616c
  4044cd:	mov    DWORD PTR [ebp-0x4],0xfffffffe
  4044d4:	jmp    0x4044e9
  4044d6:	xor    eax,eax
  4044d8:	inc    eax
  4044d9:	ret    
  4044da:	mov    esp,DWORD PTR [ebp-0x18]
  4044dd:	mov    DWORD PTR [ebp-0x4],0xfffffffe
  4044e4:	mov    eax,0xff
  4044e9:	call   0x404a14
  4044ee:	ret    
  4044ef:	int3   
  4044f0:	int3   
  4044f1:	int3   
  4044f2:	int3   
  4044f3:	int3   
  4044f4:	mov    edi,edi
  4044f6:	push   ebp
  4044f7:	mov    ebp,esp
  4044f9:	push   ecx
  4044fa:	mov    eax,ds:0x406004
  4044ff:	xor    eax,ebp
  404501:	mov    DWORD PTR [ebp-0x4],eax
  404504:	push   esi
  404505:	mov    esi,DWORD PTR [ebp+0x8]
  404508:	xor    eax,eax
  40450a:	cmp    esi,DWORD PTR [ebp+0xc]
  40450d:	jae    0x40452d
  40450f:	push   edi
  404510:	test   eax,eax
  404512:	jne    0x40452c
  404514:	mov    edi,DWORD PTR [esi]
  404516:	test   edi,edi
  404518:	je     0x404524
  40451a:	mov    ecx,edi
  40451c:	call   DWORD PTR ds:0x40717c
  404522:	call   edi
  404524:	add    esi,0x4
  404527:	cmp    esi,DWORD PTR [ebp+0xc]
  40452a:	jb     0x404510
  40452c:	pop    edi
  40452d:	mov    ecx,DWORD PTR [ebp-0x4]
  404530:	xor    ecx,ebp
  404532:	pop    esi
  404533:	call   0x404560
  404538:	mov    esp,ebp
  40453a:	pop    ebp
  40453b:	ret    
  40453c:	int3   
  40453d:	int3   
  40453e:	int3   
  40453f:	int3   
  404540:	int3   
  404541:	int3   
  404542:	int3   
  404543:	int3   
  404544:	int3   
  404545:	int3   
  404546:	int3   
  404547:	int3   
  404548:	int3   
  404549:	int3   
  40454a:	int3   
  40454b:	int3   
  40454c:	int3   
  40454d:	int3   
  40454e:	int3   
  40454f:	int3   
  404550:	call   0x4048f8
  404555:	jmp    0x404308
  40455a:	int3   
  40455b:	int3   
  40455c:	int3   
  40455d:	int3   
  40455e:	int3   
  40455f:	int3   
  404560:	cmp    ecx,DWORD PTR ds:0x406004
  404566:	jne    0x40456b
  404568:	ret    0x0
  40456b:	jmp    0x404a89
  404570:	int3   
  404571:	int3   
  404572:	int3   
  404573:	int3   
  404574:	int3   
  404575:	push   0x18
  404577:	push   0x405848
  40457c:	call   0x4049cc
  404581:	and    DWORD PTR [ebp-0x28],0x0
  404585:	mov    eax,ds:0x4067ac
  40458a:	mov    DWORD PTR [ebp-0x20],eax
  40458d:	cmp    eax,0xffffffff
  404590:	jne    0x4045a8
  404592:	push   DWORD PTR [ebp+0x8]
  404595:	mov    esi,DWORD PTR ds:0x407118
  40459b:	mov    ecx,esi
  40459d:	call   DWORD PTR ds:0x40717c
  4045a3:	call   esi
  4045a5:	pop    ecx
  4045a6:	jmp    0x4045fc
  4045a8:	push   0x8
  4045aa:	call   0x404b9e
  4045af:	pop    ecx
  4045b0:	and    DWORD PTR [ebp-0x4],0x0
  4045b4:	mov    eax,ds:0x4067ac
  4045b9:	mov    DWORD PTR [ebp-0x20],eax
  4045bc:	mov    eax,ds:0x4067a8
  4045c1:	mov    DWORD PTR [ebp-0x24],eax
  4045c4:	lea    eax,[ebp-0x24]
  4045c7:	push   eax
  4045c8:	lea    eax,[ebp-0x20]
  4045cb:	push   eax
  4045cc:	push   DWORD PTR [ebp+0x8]
  4045cf:	call   0x404bb6
  4045d4:	add    esp,0xc
  4045d7:	mov    esi,eax
  4045d9:	mov    DWORD PTR [ebp-0x28],esi
  4045dc:	mov    ecx,DWORD PTR [ebp-0x20]
  4045df:	mov    DWORD PTR ds:0x4067ac,ecx
  4045e5:	mov    ecx,DWORD PTR [ebp-0x24]
  4045e8:	mov    DWORD PTR ds:0x4067a8,ecx
  4045ee:	mov    DWORD PTR [ebp-0x4],0xfffffffe
  4045f5:	call   0x404605
  4045fa:	mov    eax,esi
  4045fc:	call   0x404a14
  404601:	ret    
  404602:	mov    esi,DWORD PTR [ebp-0x28]
  404605:	push   0x8
  404607:	call   0x404baa
  40460c:	pop    ecx
  40460d:	ret    
  40460e:	int3   
  40460f:	int3   
  404610:	int3   
  404611:	int3   
  404612:	int3   
  404613:	mov    edi,edi
  404615:	push   ebp
  404616:	mov    ebp,esp
  404618:	push   DWORD PTR [ebp+0x8]
  40461b:	call   0x404575
  404620:	neg    eax
  404622:	pop    ecx
  404623:	sbb    eax,eax
  404625:	neg    eax
  404627:	dec    eax
  404628:	pop    ebp
  404629:	ret    
  40462a:	int3   
  40462b:	int3   
  40462c:	int3   
  40462d:	int3   
  40462e:	int3   
  40462f:	int3   
  404630:	mov    edi,edi
  404632:	push   ebp
  404633:	mov    ebp,esp
  404635:	push   esi
  404636:	mov    esi,ecx
  404638:	call   DWORD PTR ds:0x40711c
  40463e:	test   BYTE PTR [ebp+0x8],0x1
  404642:	je     0x40464b
  404644:	push   esi
  404645:	call   0x4041ea
  40464a:	pop    ecx
  40464b:	mov    eax,esi
  40464d:	pop    esi
  40464e:	pop    ebp
  40464f:	ret    0x4
  404652:	int3   
  404653:	int3   
  404654:	int3   
  404655:	int3   
  404656:	int3   
  404657:	int3   
  404658:	int3   
  404659:	int3   
  40465a:	int3   
  40465b:	int3   
  40465c:	int3   
  40465d:	int3   
  40465e:	int3   
  40465f:	int3   
  404660:	jmp    DWORD PTR ds:0x40710c
  404666:	int3   
  404667:	int3   
  404668:	int3   
  404669:	int3   
  40466a:	int3   
  40466b:	int3   
  40466c:	int3   
  40466d:	int3   
  40466e:	int3   
  40466f:	int3   
  404670:	mov    edi,edi
  404672:	push   ebp
  404673:	mov    ebp,esp
  404675:	mov    eax,DWORD PTR [ebp+0x8]
  404678:	mov    eax,DWORD PTR [eax]
  40467a:	cmp    DWORD PTR [eax],0xe06d7363
  404680:	jne    0x4046ad
  404682:	cmp    DWORD PTR [eax+0x10],0x3
  404686:	jne    0x4046ad
  404688:	mov    eax,DWORD PTR [eax+0x14]
  40468b:	cmp    eax,0x19930520
  404690:	je     0x4046a7
  404692:	cmp    eax,0x19930521
  404697:	je     0x4046a7
  404699:	cmp    eax,0x19930522
  40469e:	je     0x4046a7
  4046a0:	cmp    eax,0x1994000
  4046a5:	jne    0x4046ad
  4046a7:	call   DWORD PTR ds:0x407120
  4046ad:	xor    eax,eax
  4046af:	pop    ebp
  4046b0:	ret    0x4
  4046b3:	int3   
  4046b4:	int3   
  4046b5:	int3   
  4046b6:	int3   
  4046b7:	int3   
  4046b8:	int3   
  4046b9:	int3   
  4046ba:	int3   
  4046bb:	int3   
  4046bc:	int3   
  4046bd:	int3   
  4046be:	int3   
  4046bf:	int3   
  4046c0:	push   0x404670
  4046c5:	call   DWORD PTR ds:0x407070
  4046cb:	xor    eax,eax
  4046cd:	ret    
  4046ce:	int3   
  4046cf:	int3   
  4046d0:	int3   
  4046d1:	int3   
  4046d2:	int3   
  4046d3:	int3   
  4046d4:	jmp    DWORD PTR ds:0x407160
  4046da:	int3   
  4046db:	int3   
  4046dc:	int3   
  4046dd:	int3   
  4046de:	int3   
  4046df:	push   0xc
  4046e1:	push   0x405868
  4046e6:	call   0x404bc4
  4046eb:	xor    ecx,ecx
  4046ed:	mov    eax,DWORD PTR [ebp+0x8]
  4046f0:	test   eax,eax
  4046f2:	je     0x40473f
  4046f4:	cmp    eax,0xffffffff
  4046f7:	je     0x40473f
  4046f9:	mov    DWORD PTR [ebp-0x4],ecx
  4046fc:	mov    edx,0x5a4d
  404701:	cmp    WORD PTR [eax],dx
  404704:	jne    0x404738
  404706:	mov    edx,DWORD PTR [eax+0x3c]
  404709:	test   edx,edx
  40470b:	js     0x404738
  40470d:	cmp    edx,0x10000000
  404713:	jae    0x404738
  404715:	add    eax,edx
  404717:	mov    DWORD PTR [ebp-0x1c],eax
  40471a:	mov    ecx,DWORD PTR [eax]
  40471c:	sub    ecx,0x4550
  404722:	neg    ecx
  404724:	sbb    ecx,ecx
  404726:	not    ecx
  404728:	and    ecx,eax
  40472a:	jmp    0x404735
  40472c:	xor    eax,eax
  40472e:	inc    eax
  40472f:	ret    
  404730:	mov    esp,DWORD PTR [ebp-0x18]
  404733:	xor    ecx,ecx
  404735:	mov    DWORD PTR [ebp-0x1c],ecx
  404738:	mov    DWORD PTR [ebp-0x4],0xfffffffe
  40473f:	mov    eax,ecx
  404741:	call   0x404c09
  404746:	ret    0x4
  404749:	int3   
  40474a:	int3   
  40474b:	int3   
  40474c:	int3   
  40474d:	int3   
  40474e:	mov    edi,edi
  404750:	push   ebp
  404751:	mov    ebp,esp
  404753:	push   0x0
  404755:	call   DWORD PTR ds:0x40706c
  40475b:	test   eax,eax
  40475d:	je     0x40477f
  40475f:	push   eax
  404760:	call   0x4046df
  404765:	test   eax,eax
  404767:	je     0x40477f
  404769:	movzx  ecx,WORD PTR [eax+0x5c]
  40476d:	push   0x2
  40476f:	pop    eax
  404770:	cmp    cx,ax
  404773:	je     0x404782
  404775:	cmp    ecx,0x3
  404778:	jne    0x40477f
  40477a:	xor    eax,eax
  40477c:	inc    eax
  40477d:	pop    ebp
  40477e:	ret    
  40477f:	mov    eax,DWORD PTR [ebp+0x8]
  404782:	pop    ebp
  404783:	ret    
  404784:	int3   
  404785:	int3   
  404786:	int3   
  404787:	int3   
  404788:	int3   
  404789:	int3   
  40478a:	jmp    DWORD PTR ds:0x407100
  404790:	int3   
  404791:	int3   
  404792:	int3   
  404793:	int3   
  404794:	int3   
  404795:	int3   
  404796:	int3   
  404797:	int3   
  404798:	int3   
  404799:	int3   
  40479a:	int3   
  40479b:	int3   
  40479c:	int3   
  40479d:	int3   
  40479e:	int3   
  40479f:	int3   
  4047a0:	mov    edi,edi
  4047a2:	push   ebp
  4047a3:	mov    ebp,esp
  4047a5:	mov    eax,DWORD PTR [ebp+0x8]
  4047a8:	xor    edx,edx
  4047aa:	push   ebx
  4047ab:	push   esi
  4047ac:	push   edi
  4047ad:	mov    ecx,DWORD PTR [eax+0x3c]
  4047b0:	add    ecx,eax
  4047b2:	movzx  eax,WORD PTR [ecx+0x14]
  4047b6:	movzx  ebx,WORD PTR [ecx+0x6]
  4047ba:	add    eax,0x18
  4047bd:	add    eax,ecx
  4047bf:	test   ebx,ebx
  4047c1:	je     0x4047de
  4047c3:	mov    edi,DWORD PTR [ebp+0xc]
  4047c6:	mov    esi,DWORD PTR [eax+0xc]
  4047c9:	cmp    edi,esi
  4047cb:	jb     0x4047d6
  4047cd:	mov    ecx,DWORD PTR [eax+0x8]
  4047d0:	add    ecx,esi
  4047d2:	cmp    edi,ecx
  4047d4:	jb     0x4047e0
  4047d6:	inc    edx
  4047d7:	add    eax,0x28
  4047da:	cmp    edx,ebx
  4047dc:	jb     0x4047c6
  4047de:	xor    eax,eax
  4047e0:	pop    edi
  4047e1:	pop    esi
  4047e2:	pop    ebx
  4047e3:	pop    ebp
  4047e4:	ret    
  4047e5:	int3   
  4047e6:	int3   
  4047e7:	int3   
  4047e8:	int3   
  4047e9:	int3   
  4047ea:	int3   
  4047eb:	int3   
  4047ec:	int3   
  4047ed:	int3   
  4047ee:	int3   
  4047ef:	int3   
  4047f0:	mov    edi,edi
  4047f2:	push   ebp
  4047f3:	mov    ebp,esp
  4047f5:	push   0xfffffffe
  4047f7:	push   0x405888
  4047fc:	push   0x404a30
  404801:	mov    eax,fs:0x0
  404807:	push   eax
  404808:	sub    esp,0x8
  40480b:	push   ebx
  40480c:	push   esi
  40480d:	push   edi
  40480e:	mov    eax,ds:0x406004
  404813:	xor    DWORD PTR [ebp-0x8],eax
  404816:	xor    eax,ebp
  404818:	push   eax
  404819:	lea    eax,[ebp-0x10]
  40481c:	mov    fs:0x0,eax
  404822:	mov    DWORD PTR [ebp-0x18],esp
  404825:	mov    DWORD PTR [ebp-0x4],0x0
  40482c:	push   0x400000
  404831:	call   0x4048c0
  404836:	add    esp,0x4
  404839:	test   eax,eax
  40483b:	je     0x404891
  40483d:	mov    eax,DWORD PTR [ebp+0x8]
  404840:	sub    eax,0x400000
  404845:	push   eax
  404846:	push   0x400000
  40484b:	call   0x4047a0
  404850:	add    esp,0x8
  404853:	test   eax,eax
  404855:	je     0x404891
  404857:	mov    eax,DWORD PTR [eax+0x24]
  40485a:	shr    eax,0x1f
  40485d:	not    eax
  40485f:	and    eax,0x1
  404862:	mov    DWORD PTR [ebp-0x4],0xfffffffe
  404869:	mov    ecx,DWORD PTR [ebp-0x10]
  40486c:	mov    DWORD PTR fs:0x0,ecx
  404873:	pop    ecx
  404874:	pop    edi
  404875:	pop    esi
  404876:	pop    ebx
  404877:	mov    esp,ebp
  404879:	pop    ebp
  40487a:	ret    
  40487b:	mov    eax,DWORD PTR [ebp-0x14]
  40487e:	mov    eax,DWORD PTR [eax]
  404880:	xor    ecx,ecx
  404882:	cmp    DWORD PTR [eax],0xc0000005
  404888:	sete   cl
  40488b:	mov    eax,ecx
  40488d:	ret    
  40488e:	mov    esp,DWORD PTR [ebp-0x18]
  404891:	mov    DWORD PTR [ebp-0x4],0xfffffffe
  404898:	xor    eax,eax
  40489a:	mov    ecx,DWORD PTR [ebp-0x10]
  40489d:	mov    DWORD PTR fs:0x0,ecx
  4048a4:	pop    ecx
  4048a5:	pop    edi
  4048a6:	pop    esi
  4048a7:	pop    ebx
  4048a8:	mov    esp,ebp
  4048aa:	pop    ebp
  4048ab:	ret    
  4048ac:	int3   
  4048ad:	int3   
  4048ae:	int3   
  4048af:	int3   
  4048b0:	int3   
  4048b1:	int3   
  4048b2:	int3   
  4048b3:	int3   
  4048b4:	int3   
  4048b5:	int3   
  4048b6:	int3   
  4048b7:	int3   
  4048b8:	int3   
  4048b9:	int3   
  4048ba:	int3   
  4048bb:	int3   
  4048bc:	int3   
  4048bd:	int3   
  4048be:	int3   
  4048bf:	int3   
  4048c0:	mov    edi,edi
  4048c2:	push   ebp
  4048c3:	mov    ebp,esp
  4048c5:	mov    eax,DWORD PTR [ebp+0x8]
  4048c8:	mov    ecx,0x5a4d
  4048cd:	cmp    WORD PTR [eax],cx
  4048d0:	je     0x4048d6
  4048d2:	xor    eax,eax
  4048d4:	pop    ebp
  4048d5:	ret    
  4048d6:	mov    ecx,DWORD PTR [eax+0x3c]
  4048d9:	add    ecx,eax
  4048db:	xor    eax,eax
  4048dd:	cmp    DWORD PTR [ecx],0x4550
  4048e3:	jne    0x4048f1
  4048e5:	mov    edx,0x10b
  4048ea:	cmp    WORD PTR [ecx+0x18],dx
  4048ee:	sete   al
  4048f1:	pop    ebp
  4048f2:	ret    
  4048f3:	int3   
  4048f4:	int3   
  4048f5:	int3   
  4048f6:	int3   
  4048f7:	int3   
  4048f8:	mov    edi,edi
  4048fa:	push   ebp
  4048fb:	mov    ebp,esp
  4048fd:	sub    esp,0x14
  404900:	and    DWORD PTR [ebp-0xc],0x0
  404904:	and    DWORD PTR [ebp-0x8],0x0
  404908:	mov    eax,ds:0x406004
  40490d:	push   esi
  40490e:	push   edi
  40490f:	mov    edi,0xbb40e64e
  404914:	mov    esi,0xffff0000
  404919:	cmp    eax,edi
  40491b:	je     0x40492a
  40491d:	test   esi,eax
  40491f:	je     0x40492a
  404921:	not    eax
  404923:	mov    ds:0x406008,eax
  404928:	jmp    0x404994
  40492a:	lea    eax,[ebp-0xc]
  40492d:	push   eax
  40492e:	call   DWORD PTR ds:0x40705c
  404934:	mov    eax,DWORD PTR [ebp-0x8]
  404937:	xor    eax,DWORD PTR [ebp-0xc]
  40493a:	mov    DWORD PTR [ebp-0x4],eax
  40493d:	call   DWORD PTR ds:0x407064
  404943:	xor    DWORD PTR [ebp-0x4],eax
  404946:	call   DWORD PTR ds:0x407060
  40494c:	xor    DWORD PTR [ebp-0x4],eax
  40494f:	call   DWORD PTR ds:0x407058
  404955:	xor    eax,DWORD PTR [ebp-0x4]
  404958:	lea    ecx,[ebp-0x4]
  40495b:	xor    eax,ecx
  40495d:	mov    DWORD PTR [ebp-0x4],eax
  404960:	lea    eax,[ebp-0x14]
  404963:	push   eax
  404964:	call   DWORD PTR ds:0x407068
  40496a:	mov    eax,DWORD PTR [ebp-0x10]
  40496d:	xor    eax,DWORD PTR [ebp-0x14]
  404970:	mov    ecx,DWORD PTR [ebp-0x4]
  404973:	xor    ecx,eax
  404975:	cmp    ecx,edi
  404977:	je     0x404981
  404979:	test   DWORD PTR ds:0x406004,esi
  40497f:	jne    0x404986
  404981:	mov    ecx,0xbb40e64f
  404986:	mov    DWORD PTR ds:0x406004,ecx
  40498c:	not    ecx
  40498e:	mov    DWORD PTR ds:0x406008,ecx
  404994:	pop    edi
  404995:	pop    esi
  404996:	mov    esp,ebp
  404998:	pop    ebp
  404999:	ret    
  40499a:	int3   
  40499b:	int3   
  40499c:	int3   
  40499d:	int3   
  40499e:	int3   
  40499f:	int3   
  4049a0:	xor    eax,eax
  4049a2:	ret    
  4049a3:	int3   
  4049a4:	int3   
  4049a5:	int3   
  4049a6:	int3   
  4049a7:	int3   
  4049a8:	push   0x30000
  4049ad:	push   0x10000
  4049b2:	call   DWORD PTR ds:0x407124
  4049b8:	pop    ecx
  4049b9:	pop    ecx
  4049ba:	ret    
  4049bb:	int3   
  4049bc:	int3   
  4049bd:	int3   
  4049be:	int3   
  4049bf:	int3   
  4049c0:	jmp    DWORD PTR ds:0x4070e0
  4049c6:	int3   
  4049c7:	int3   
  4049c8:	int3   
  4049c9:	int3   
  4049ca:	int3   
  4049cb:	int3   
  4049cc:	push   0x404a30
  4049d1:	push   DWORD PTR fs:0x0
  4049d8:	mov    eax,DWORD PTR [esp+0x10]
  4049dc:	mov    DWORD PTR [esp+0x10],ebp
  4049e0:	lea    ebp,[esp+0x10]
  4049e4:	sub    esp,eax
  4049e6:	push   ebx
  4049e7:	push   esi
  4049e8:	push   edi
  4049e9:	mov    eax,ds:0x406004
  4049ee:	xor    DWORD PTR [ebp-0x4],eax
  4049f1:	xor    eax,ebp
  4049f3:	mov    DWORD PTR [ebp-0x1c],eax
  4049f6:	push   eax
  4049f7:	mov    DWORD PTR [ebp-0x18],esp
  4049fa:	push   DWORD PTR [ebp-0x8]
  4049fd:	mov    eax,DWORD PTR [ebp-0x4]
  404a00:	mov    DWORD PTR [ebp-0x4],0xfffffffe
  404a07:	mov    DWORD PTR [ebp-0x8],eax
  404a0a:	lea    eax,[ebp-0x10]
  404a0d:	mov    fs:0x0,eax
  404a13:	ret    
  404a14:	mov    ecx,DWORD PTR [ebp-0x1c]
  404a17:	xor    ecx,ebp
  404a19:	call   0x404560
  404a1e:	jmp    0x404c09
  404a23:	int3   
  404a24:	int3   
  404a25:	int3   
  404a26:	int3   
  404a27:	int3   
  404a28:	int3   
  404a29:	int3   
  404a2a:	int3   
  404a2b:	int3   
  404a2c:	int3   
  404a2d:	int3   
  404a2e:	int3   
  404a2f:	int3   
  404a30:	mov    edi,edi
  404a32:	push   ebp
  404a33:	mov    ebp,esp
  404a35:	push   DWORD PTR [ebp+0x14]
  404a38:	push   DWORD PTR [ebp+0x10]
  404a3b:	push   DWORD PTR [ebp+0xc]
  404a3e:	push   DWORD PTR [ebp+0x8]
  404a41:	push   0x404560
  404a46:	push   0x406004
  404a4b:	call   0x404c22
  404a50:	add    esp,0x18
  404a53:	pop    ebp
  404a54:	ret    
  404a55:	int3   
  404a56:	int3   
  404a57:	int3   
  404a58:	int3   
  404a59:	int3   
  404a5a:	mov    edi,edi
  404a5c:	push   ebp
  404a5d:	mov    ebp,esp
  404a5f:	push   0x0
  404a61:	call   DWORD PTR ds:0x407070
  404a67:	push   DWORD PTR [ebp+0x8]
  404a6a:	call   DWORD PTR ds:0x407054
  404a70:	push   0xc0000409
  404a75:	call   DWORD PTR ds:0x407050
  404a7b:	push   eax
  404a7c:	call   DWORD PTR ds:0x40704c
  404a82:	pop    ebp
  404a83:	ret    
  404a84:	int3   
  404a85:	int3   
  404a86:	int3   
  404a87:	int3   
  404a88:	int3   
  404a89:	mov    edi,edi
  404a8b:	push   ebp
  404a8c:	mov    ebp,esp
  404a8e:	sub    esp,0x324
  404a94:	mov    ds:0x4062a0,eax
  404a99:	mov    DWORD PTR ds:0x40629c,ecx
  404a9f:	mov    DWORD PTR ds:0x406298,edx
  404aa5:	mov    DWORD PTR ds:0x406294,ebx
  404aab:	mov    DWORD PTR ds:0x406290,esi
  404ab1:	mov    DWORD PTR ds:0x40628c,edi
  404ab7:	data16 mov WORD PTR ds:0x4062b8,ss
  404abe:	data16 mov WORD PTR ds:0x4062ac,cs
  404ac5:	data16 mov WORD PTR ds:0x406288,ds
  404acc:	data16 mov WORD PTR ds:0x406284,es
  404ad3:	data16 mov WORD PTR ds:0x406280,fs
  404ada:	data16 mov WORD PTR ds:0x40627c,gs
  404ae1:	pushf  
  404ae2:	pop    DWORD PTR ds:0x4062b0
  404ae8:	mov    eax,DWORD PTR [ebp+0x0]
  404aeb:	mov    ds:0x4062a4,eax
  404af0:	mov    eax,DWORD PTR [ebp+0x4]
  404af3:	mov    ds:0x4062a8,eax
  404af8:	lea    eax,[ebp+0x8]
  404afb:	mov    ds:0x4062b4,eax
  404b00:	mov    eax,DWORD PTR [ebp-0x324]
  404b06:	mov    DWORD PTR ds:0x4061f0,0x10001
  404b10:	mov    eax,ds:0x4062a8
  404b15:	mov    ds:0x4061ac,eax
  404b1a:	mov    DWORD PTR ds:0x4061a0,0xc0000409
  404b24:	mov    DWORD PTR ds:0x4061a4,0x1
  404b2e:	mov    DWORD PTR ds:0x4061b0,0x3
  404b38:	push   0x4
  404b3a:	pop    eax
  404b3b:	imul   eax,eax,0x0
  404b3e:	mov    DWORD PTR [eax+0x4061b4],0x2
  404b48:	push   0x4
  404b4a:	pop    eax
  404b4b:	shl    eax,0x0
  404b4e:	mov    ecx,DWORD PTR ds:0x406004
  404b54:	mov    DWORD PTR [eax+0x4061b4],ecx
  404b5a:	push   0x4
  404b5c:	pop    eax
  404b5d:	shl    eax,1
  404b5f:	mov    ecx,DWORD PTR ds:0x406008
  404b65:	mov    DWORD PTR [eax+0x4061b4],ecx
  404b6b:	push   0x4
  404b6d:	pop    eax
  404b6e:	imul   eax,eax,0x0
  404b71:	mov    ecx,DWORD PTR ds:0x406004
  404b77:	mov    DWORD PTR [ebp+eax*1-0x8],ecx
  404b7b:	push   0x4
  404b7d:	pop    eax
  404b7e:	shl    eax,0x0
  404b81:	mov    ecx,DWORD PTR ds:0x406008
  404b87:	mov    DWORD PTR [ebp+eax*1-0x8],ecx
  404b8b:	push   0x401124
  404b90:	call   0x404a5a
  404b95:	mov    esp,ebp
  404b97:	pop    ebp
  404b98:	ret    
  404b99:	int3   
  404b9a:	int3   
  404b9b:	int3   
  404b9c:	int3   
  404b9d:	int3   
  404b9e:	jmp    DWORD PTR ds:0x4070d8
  404ba4:	int3   
  404ba5:	int3   
  404ba6:	int3   
  404ba7:	int3   
  404ba8:	int3   
  404ba9:	int3   
  404baa:	jmp    DWORD PTR ds:0x407108
  404bb0:	int3   
  404bb1:	int3   
  404bb2:	int3   
  404bb3:	int3   
  404bb4:	int3   
  404bb5:	int3   
  404bb6:	jmp    DWORD PTR ds:0x407114
  404bbc:	int3   
  404bbd:	int3   
  404bbe:	int3   
  404bbf:	int3   
  404bc0:	int3   
  404bc1:	int3   
  404bc2:	int3   
  404bc3:	int3   
  404bc4:	push   0x404a30
  404bc9:	push   DWORD PTR fs:0x0
  404bd0:	mov    eax,DWORD PTR [esp+0x10]
  404bd4:	mov    DWORD PTR [esp+0x10],ebp
  404bd8:	lea    ebp,[esp+0x10]
  404bdc:	sub    esp,eax
  404bde:	push   ebx
  404bdf:	push   esi
  404be0:	push   edi
  404be1:	mov    eax,ds:0x406004
  404be6:	xor    DWORD PTR [ebp-0x4],eax
  404be9:	xor    eax,ebp
  404beb:	push   eax
  404bec:	mov    DWORD PTR [ebp-0x18],esp
  404bef:	push   DWORD PTR [ebp-0x8]
  404bf2:	mov    eax,DWORD PTR [ebp-0x4]
  404bf5:	mov    DWORD PTR [ebp-0x4],0xfffffffe
  404bfc:	mov    DWORD PTR [ebp-0x8],eax
  404bff:	lea    eax,[ebp-0x10]
  404c02:	mov    fs:0x0,eax
  404c08:	ret    
  404c09:	mov    ecx,DWORD PTR [ebp-0x10]
  404c0c:	mov    DWORD PTR fs:0x0,ecx
  404c13:	pop    ecx
  404c14:	pop    edi
  404c15:	pop    edi
  404c16:	pop    esi
  404c17:	pop    ebx
  404c18:	mov    esp,ebp
  404c1a:	pop    ebp
  404c1b:	push   ecx
  404c1c:	ret    
  404c1d:	int3   
  404c1e:	int3   
  404c1f:	int3   
  404c20:	int3   
  404c21:	int3   
  404c22:	jmp    DWORD PTR ds:0x407128
  404c28:	int3   
  404c29:	int3   
  404c2a:	int3   
  404c2b:	int3   
  404c2c:	int3   
  404c2d:	int3   
  404c2e:	jmp    DWORD PTR ds:0x4070b8
  404c34:	int3   
  404c35:	int3   
  404c36:	int3   
  404c37:	int3   
  404c38:	int3   
  404c39:	mov    edi,edi
  404c3b:	push   ebp
  404c3c:	mov    ebp,esp
  404c3e:	mov    eax,DWORD PTR [ebp+0x8]
  404c41:	xor    ecx,ecx
  404c43:	test   eax,eax
  404c45:	je     0x404c5e
  404c47:	cmp    eax,0xffffffff
  404c4a:	ja     0x404c59
  404c4c:	push   eax
  404c4d:	call   0x404c2e
  404c52:	pop    ecx
  404c53:	mov    ecx,eax
  404c55:	test   ecx,ecx
  404c57:	jne    0x404c5e
  404c59:	jmp    0x405015
  404c5e:	mov    eax,ecx
  404c60:	pop    ebp
  404c61:	ret    
  404c62:	int3   
  404c63:	int3   
  404c64:	int3   
  404c65:	int3   
  404c66:	int3   
  404c67:	mov    edi,edi
  404c69:	push   ebp
  404c6a:	mov    ebp,esp
  404c6c:	push   esi
  404c6d:	push   DWORD PTR [ebp+0x8]
  404c70:	mov    esi,ecx
  404c72:	and    DWORD PTR [esi+0x10],0x0
  404c76:	mov    DWORD PTR [esi+0x14],0xf
  404c7d:	mov    BYTE PTR [esi],0x0
  404c80:	call   0x405357
  404c85:	pop    ecx
  404c86:	push   eax
  404c87:	push   DWORD PTR [ebp+0x8]
  404c8a:	mov    ecx,esi
  404c8c:	call   0x40513e
  404c91:	mov    eax,esi
  404c93:	pop    esi
  404c94:	pop    ebp
  404c95:	ret    0x4
  404c98:	int3   
  404c99:	int3   
  404c9a:	int3   
  404c9b:	int3   
  404c9c:	int3   
  404c9d:	int3   
  404c9e:	int3   
  404c9f:	int3   
  404ca0:	mov    edi,edi
  404ca2:	push   ebp
  404ca3:	mov    ebp,esp
  404ca5:	push   ecx
  404ca6:	push   esi
  404ca7:	push   DWORD PTR [ebp+0x8]
  404caa:	mov    esi,ecx
  404cac:	mov    DWORD PTR [ebp-0x4],esi
  404caf:	call   0x405500
  404cb4:	mov    DWORD PTR [esi],0x40112c
  404cba:	mov    eax,esi
  404cbc:	pop    esi
  404cbd:	mov    esp,ebp
  404cbf:	pop    ebp
  404cc0:	ret    0x4
  404cc3:	int3   
  404cc4:	int3   
  404cc5:	int3   
  404cc6:	int3   
  404cc7:	int3   
  404cc8:	mov    edi,edi
  404cca:	push   ebp
  404ccb:	mov    ebp,esp
  404ccd:	push   ecx
  404cce:	push   esi
  404ccf:	push   0x1
  404cd1:	lea    eax,[ebp-0x4]
  404cd4:	mov    DWORD PTR [ebp-0x4],0x401134
  404cdb:	push   eax
  404cdc:	mov    esi,ecx
  404cde:	call   0x4054ea
  404ce3:	mov    DWORD PTR [esi],0x40112c
  404ce9:	mov    eax,esi
  404ceb:	pop    esi
  404cec:	mov    esp,ebp
  404cee:	pop    ebp
  404cef:	ret    
  404cf0:	int3   
  404cf1:	int3   
  404cf2:	int3   
  404cf3:	int3   
  404cf4:	int3   
  404cf5:	int3   
  404cf6:	int3   
  404cf7:	int3   
  404cf8:	int3   
  404cf9:	int3   
  404cfa:	int3   
  404cfb:	int3   
  404cfc:	int3   
  404cfd:	int3   
  404cfe:	int3   
  404cff:	int3   
  404d00:	mov    edi,edi
  404d02:	push   ebp
  404d03:	mov    ebp,esp
  404d05:	push   ecx
  404d06:	push   esi
  404d07:	push   DWORD PTR [ebp+0x8]
  404d0a:	mov    esi,ecx
  404d0c:	mov    DWORD PTR [ebp-0x4],esi
  404d0f:	call   0x405500
  404d14:	mov    DWORD PTR [esi],0x401144
  404d1a:	mov    eax,esi
  404d1c:	pop    esi
  404d1d:	mov    esp,ebp
  404d1f:	pop    ebp
  404d20:	ret    0x4
  404d23:	int3   
  404d24:	int3   
  404d25:	int3   
  404d26:	int3   
  404d27:	int3   
  404d28:	mov    edi,edi
  404d2a:	push   ebp
  404d2b:	mov    ebp,esp
  404d2d:	push   ecx
  404d2e:	mov    eax,DWORD PTR [ebp+0x8]
  404d31:	push   esi
  404d32:	mov    esi,ecx
  404d34:	mov    DWORD PTR [ebp-0x4],esi
  404d37:	mov    DWORD PTR [ebp-0x4],eax
  404d3a:	lea    eax,[ebp-0x4]
  404d3d:	push   eax
  404d3e:	call   0x4054de
  404d43:	mov    DWORD PTR [esi],0x401144
  404d49:	mov    eax,esi
  404d4b:	pop    esi
  404d4c:	mov    esp,ebp
  404d4e:	pop    ebp
  404d4f:	ret    0x4
  404d52:	int3   
  404d53:	int3   
  404d54:	int3   
  404d55:	int3   
  404d56:	int3   
  404d57:	int3   
  404d58:	int3   
  404d59:	int3   
  404d5a:	int3   
  404d5b:	int3   
  404d5c:	int3   
  404d5d:	int3   
  404d5e:	int3   
  404d5f:	int3   
  404d60:	mov    DWORD PTR [ecx],0x40112c
  404d66:	jmp    0x40550c
  404d6b:	int3   
  404d6c:	int3   
  404d6d:	int3   
  404d6e:	int3   
  404d6f:	int3   
  404d70:	jmp    0x40550c
  404d75:	int3   
  404d76:	int3   
  404d77:	int3   
  404d78:	int3   
  404d79:	int3   
  404d7a:	mov    edi,edi
  404d7c:	push   ebp
  404d7d:	mov    ebp,esp
  404d7f:	mov    edx,DWORD PTR [ebp+0x8]
  404d82:	mov    eax,DWORD PTR [ecx+0x4]
  404d85:	cmp    eax,DWORD PTR [edx+0x4]
  404d88:	jne    0x404d95
  404d8a:	mov    eax,DWORD PTR [ecx]
  404d8c:	cmp    eax,DWORD PTR [edx]
  404d8e:	jne    0x404d95
  404d90:	xor    eax,eax
  404d92:	inc    eax
  404d93:	jmp    0x404d97
  404d95:	xor    eax,eax
  404d97:	pop    ebp
  404d98:	ret    0x4
  404d9b:	int3   
  404d9c:	int3   
  404d9d:	int3   
  404d9e:	int3   
  404d9f:	int3   
  404da0:	mov    edi,edi
  404da2:	push   ebp
  404da3:	mov    ebp,esp
  404da5:	test   BYTE PTR [ebp+0x8],0x1
  404da9:	push   esi
  404daa:	mov    esi,ecx
  404dac:	mov    DWORD PTR [esi],0x40114c
  404db2:	je     0x404dbb
  404db4:	push   esi
  404db5:	call   0x4041ea
  404dba:	pop    ecx
  404dbb:	mov    eax,esi
  404dbd:	pop    esi
  404dbe:	pop    ebp
  404dbf:	ret    0x4
  404dc2:	int3   
  404dc3:	int3   
  404dc4:	int3   
  404dc5:	int3   
  404dc6:	int3   
  404dc7:	int3   
  404dc8:	int3   
  404dc9:	int3   
  404dca:	int3   
  404dcb:	int3   
  404dcc:	int3   
  404dcd:	int3   
  404dce:	int3   
  404dcf:	int3   
  404dd0:	mov    edi,edi
  404dd2:	push   ebp
  404dd3:	mov    ebp,esp
  404dd5:	push   esi
  404dd6:	mov    esi,ecx
  404dd8:	mov    DWORD PTR [esi],0x40112c
  404dde:	call   0x40550c
  404de3:	test   BYTE PTR [ebp+0x8],0x1
  404de7:	je     0x404df0
  404de9:	push   esi
  404dea:	call   0x4041ea
  404def:	pop    ecx
  404df0:	mov    eax,esi
  404df2:	pop    esi
  404df3:	pop    ebp
  404df4:	ret    0x4
  404df7:	int3   
  404df8:	int3   
  404df9:	int3   
  404dfa:	int3   
  404dfb:	int3   
  404dfc:	int3   
  404dfd:	int3   
  404dfe:	int3   
  404dff:	int3   
  404e00:	mov    edi,edi
  404e02:	push   ebp
  404e03:	mov    ebp,esp
  404e05:	push   esi
  404e06:	mov    esi,ecx
  404e08:	call   0x40550c
  404e0d:	test   BYTE PTR [ebp+0x8],0x1
  404e11:	je     0x404e1a
  404e13:	push   esi
  404e14:	call   0x4041ea
  404e19:	pop    ecx
  404e1a:	mov    eax,esi
  404e1c:	pop    esi
  404e1d:	pop    ebp
  404e1e:	ret    0x4
  404e21:	int3   
  404e22:	int3   
  404e23:	int3   
  404e24:	int3   
  404e25:	int3   
  404e26:	push   0x10
  404e28:	mov    eax,0x405697
  404e2d:	call   0x4055d7
  404e32:	mov    esi,ecx
  404e34:	mov    DWORD PTR [ebp-0x18],esi
  404e37:	mov    edi,DWORD PTR [ebp+0x8]
  404e3a:	or     edi,0xf
  404e3d:	cmp    edi,0xfffffffe
  404e40:	jbe    0x404e47
  404e42:	mov    edi,DWORD PTR [ebp+0x8]
  404e45:	jmp    0x404e71
  404e47:	xor    edx,edx
  404e49:	mov    DWORD PTR [ebp-0x14],0x3
  404e50:	mov    eax,edi
  404e52:	mov    ebx,DWORD PTR [esi+0x14]
  404e55:	div    DWORD PTR [ebp-0x14]
  404e58:	mov    ecx,ebx
  404e5a:	shr    ecx,1
  404e5c:	cmp    ecx,eax
  404e5e:	jbe    0x404e71
  404e60:	push   0xfffffffe
  404e62:	pop    eax
  404e63:	sub    eax,ecx
  404e65:	cmp    ebx,eax
  404e67:	ja     0x404e6e
  404e69:	lea    edi,[ecx+ebx*1]
  404e6c:	jmp    0x404e71
  404e6e:	push   0xfffffffe
  404e70:	pop    edi
  404e71:	xor    ebx,ebx
  404e73:	lea    eax,[edi+0x1]
  404e76:	push   ebx
  404e77:	push   eax
  404e78:	mov    DWORD PTR [ebp-0x4],ebx
  404e7b:	call   0x404c39
  404e80:	pop    ecx
  404e81:	pop    ecx
  404e82:	mov    ecx,eax
  404e84:	mov    DWORD PTR [ebp-0x14],eax
  404e87:	jmp    0x404eb8
  404e89:	mov    eax,DWORD PTR [ebp+0x8]
  404e8c:	mov    DWORD PTR [ebp-0x10],esp
  404e8f:	mov    DWORD PTR [ebp-0x14],eax
  404e92:	inc    eax
  404e93:	push   0x0
  404e95:	push   eax
  404e96:	mov    BYTE PTR [ebp-0x4],0x2
  404e9a:	call   0x404c39
  404e9f:	pop    ecx
  404ea0:	mov    DWORD PTR [ebp-0x1c],eax
  404ea3:	mov    eax,0x404eaa
  404ea8:	pop    ecx
  404ea9:	ret    
  404eaa:	mov    edi,DWORD PTR [ebp-0x14]
  404ead:	xor    ebx,ebx
  404eaf:	mov    ecx,DWORD PTR [ebp-0x1c]
  404eb2:	mov    esi,DWORD PTR [ebp-0x18]
  404eb5:	mov    DWORD PTR [ebp-0x14],ecx
  404eb8:	mov    eax,DWORD PTR [ebp+0xc]
  404ebb:	test   eax,eax
  404ebd:	je     0x404eda
  404ebf:	cmp    DWORD PTR [esi+0x14],0x10
  404ec3:	jb     0x404ec9
  404ec5:	mov    edx,DWORD PTR [esi]
  404ec7:	jmp    0x404ecb
  404ec9:	mov    edx,esi
  404ecb:	test   eax,eax
  404ecd:	je     0x404eda
  404ecf:	push   eax
  404ed0:	push   edx
  404ed1:	push   ecx
  404ed2:	call   0x40561e
  404ed7:	add    esp,0xc
  404eda:	push   ebx
  404edb:	push   0x1
  404edd:	mov    ecx,esi
  404edf:	call   0x404fca
  404ee4:	test   esi,esi
  404ee6:	je     0x404eed
  404ee8:	mov    eax,DWORD PTR [ebp-0x14]
  404eeb:	mov    DWORD PTR [esi],eax
  404eed:	mov    eax,DWORD PTR [ebp+0xc]
  404ef0:	mov    DWORD PTR [esi+0x14],edi
  404ef3:	mov    DWORD PTR [esi+0x10],eax
  404ef6:	cmp    edi,0x10
  404ef9:	jb     0x404efd
  404efb:	mov    esi,DWORD PTR [esi]
  404efd:	mov    BYTE PTR [esi+eax*1],bl
  404f00:	call   0x405537
  404f05:	ret    0x8
  404f08:	mov    ecx,DWORD PTR [ebp-0x18]
  404f0b:	xor    ebx,ebx
  404f0d:	push   ebx
  404f0e:	push   0x1
  404f10:	call   0x404fca
  404f15:	push   ebx
  404f16:	push   ebx
  404f17:	call   0x40552c
  404f1c:	int3   
  404f1d:	int3   
  404f1e:	int3   
  404f1f:	int3   
  404f20:	int3   
  404f21:	int3   
  404f22:	mov    edi,edi
  404f24:	push   ebp
  404f25:	mov    ebp,esp
  404f27:	push   esi
  404f28:	mov    esi,DWORD PTR [ebp+0x8]
  404f2b:	cmp    esi,0xfffffffe
  404f2e:	ja     0x404f7d
  404f30:	cmp    DWORD PTR [ecx+0x14],esi
  404f33:	jae    0x404f40
  404f35:	push   DWORD PTR [ecx+0x10]
  404f38:	push   esi
  404f39:	call   0x404e26
  404f3e:	jmp    0x404f70
  404f40:	cmp    BYTE PTR [ebp+0xc],0x0
  404f44:	je     0x404f5e
  404f46:	cmp    esi,0x10
  404f49:	jae    0x404f5e
  404f4b:	mov    eax,DWORD PTR [ecx+0x10]
  404f4e:	cmp    esi,eax
  404f50:	jae    0x404f54
  404f52:	mov    eax,esi
  404f54:	push   eax
  404f55:	push   0x1
  404f57:	call   0x404fca
  404f5c:	jmp    0x404f70
  404f5e:	test   esi,esi
  404f60:	jne    0x404f70
  404f62:	and    DWORD PTR [ecx+0x10],esi
  404f65:	cmp    DWORD PTR [ecx+0x14],0x10
  404f69:	jb     0x404f6d
  404f6b:	mov    ecx,DWORD PTR [ecx]
  404f6d:	mov    BYTE PTR [ecx],0x0
  404f70:	xor    eax,eax
  404f72:	cmp    eax,esi
  404f74:	pop    esi
  404f75:	sbb    eax,eax
  404f77:	neg    eax
  404f79:	pop    ebp
  404f7a:	ret    0x8
  404f7d:	call   0x405039
  404f82:	int3   
  404f83:	int3   
  404f84:	int3   
  404f85:	int3   
  404f86:	int3   
  404f87:	int3   
  404f88:	mov    edi,edi
  404f8a:	push   ebp
  404f8b:	mov    ebp,esp
  404f8d:	mov    edx,DWORD PTR [ebp+0x8]
  404f90:	test   edx,edx
  404f92:	je     0x404fbf
  404f94:	cmp    DWORD PTR [ecx+0x14],0x10
  404f98:	jb     0x404f9e
  404f9a:	mov    eax,DWORD PTR [ecx]
  404f9c:	jmp    0x404fa0
  404f9e:	mov    eax,ecx
  404fa0:	cmp    edx,eax
  404fa2:	jb     0x404fbf
  404fa4:	cmp    DWORD PTR [ecx+0x14],0x10
  404fa8:	push   esi
  404fa9:	jb     0x404faf
  404fab:	mov    esi,DWORD PTR [ecx]
  404fad:	jmp    0x404fb1
  404faf:	mov    esi,ecx
  404fb1:	mov    eax,DWORD PTR [ecx+0x10]
  404fb4:	add    eax,esi
  404fb6:	pop    esi
  404fb7:	cmp    eax,edx
  404fb9:	jbe    0x404fbf
  404fbb:	mov    al,0x1
  404fbd:	jmp    0x404fc1
  404fbf:	xor    al,al
  404fc1:	pop    ebp
  404fc2:	ret    0x4
  404fc5:	int3   
  404fc6:	int3   
  404fc7:	int3   
  404fc8:	int3   
  404fc9:	int3   
  404fca:	mov    edi,edi
  404fcc:	push   ebp
  404fcd:	mov    ebp,esp
  404fcf:	cmp    BYTE PTR [ebp+0x8],0x0
  404fd3:	push   esi
  404fd4:	push   edi
  404fd5:	mov    edi,DWORD PTR [ebp+0xc]
  404fd8:	mov    esi,ecx
  404fda:	je     0x404ffc
  404fdc:	cmp    DWORD PTR [esi+0x14],0x10
  404fe0:	jb     0x404ffc
  404fe2:	push   ebx
  404fe3:	mov    ebx,DWORD PTR [esi]
  404fe5:	test   edi,edi
  404fe7:	je     0x404ff4
  404fe9:	push   edi
  404fea:	push   ebx
  404feb:	push   esi
  404fec:	call   0x40561e
  404ff1:	add    esp,0xc
  404ff4:	push   ebx
  404ff5:	call   0x4041ea
  404ffa:	pop    ecx
  404ffb:	pop    ebx
  404ffc:	mov    DWORD PTR [esi+0x10],edi
  404fff:	mov    DWORD PTR [esi+0x14],0xf
  405006:	mov    BYTE PTR [edi+esi*1],0x0
  40500a:	pop    edi
  40500b:	pop    esi
  40500c:	pop    ebp
  40500d:	ret    0x8
  405010:	int3   
  405011:	int3   
  405012:	int3   
  405013:	int3   
  405014:	int3   
  405015:	mov    edi,edi
  405017:	push   ebp
  405018:	mov    ebp,esp
  40501a:	sub    esp,0xc
  40501d:	lea    ecx,[ebp-0xc]
  405020:	call   0x404cc8
  405025:	push   0x405930
  40502a:	lea    eax,[ebp-0xc]
  40502d:	push   eax
  40502e:	call   0x40552c
  405033:	int3   
  405034:	int3   
  405035:	int3   
  405036:	int3   
  405037:	int3   
  405038:	int3   
  405039:	push   0x401208
  40503e:	call   0x405049
  405043:	int3   
  405044:	int3   
  405045:	int3   
  405046:	int3   
  405047:	int3   
  405048:	int3   
  405049:	mov    edi,edi
  40504b:	push   ebp
  40504c:	mov    ebp,esp
  40504e:	sub    esp,0xc
  405051:	lea    ecx,[ebp-0xc]
  405054:	push   DWORD PTR [ebp+0x8]
  405057:	call   0x404d28
  40505c:	push   0x4059a0
  405061:	lea    eax,[ebp-0xc]
  405064:	push   eax
  405065:	call   0x40552c
  40506a:	int3   
  40506b:	int3   
  40506c:	int3   
  40506d:	int3   
  40506e:	int3   
  40506f:	int3   
  405070:	mov    edi,edi
  405072:	push   ebp
  405073:	mov    ebp,esp
  405075:	sub    esp,0xc
  405078:	lea    ecx,[ebp-0xc]
  40507b:	push   DWORD PTR [ebp+0x8]
  40507e:	call   0x404d28
  405083:	push   0x4059dc
  405088:	lea    eax,[ebp-0xc]
  40508b:	push   eax
  40508c:	call   0x40552c
  405091:	int3   
  405092:	int3   
  405093:	int3   
  405094:	int3   
  405095:	int3   
  405096:	int3   
  405097:	push   0x4011f0
  40509c:	call   0x405070
  4050a1:	int3   
  4050a2:	int3   
  4050a3:	int3   
  4050a4:	int3   
  4050a5:	int3   
  4050a6:	int3   
  4050a7:	mov    edi,edi
  4050a9:	push   ebp
  4050aa:	mov    ebp,esp
  4050ac:	mov    eax,DWORD PTR [ebp+0xc]
  4050af:	push   ebx
  4050b0:	mov    ebx,DWORD PTR [ebp+0x8]
  4050b3:	push   esi
  4050b4:	push   edi
  4050b5:	mov    esi,ecx
  4050b7:	mov    edi,DWORD PTR [ebx+0x10]
  4050ba:	cmp    edi,eax
  4050bc:	jb     0x405133
  4050be:	sub    edi,eax
  4050c0:	cmp    DWORD PTR [ebp+0x10],edi
  4050c3:	jae    0x4050c8
  4050c5:	mov    edi,DWORD PTR [ebp+0x10]
  4050c8:	cmp    esi,ebx
  4050ca:	jne    0x4050e3
  4050cc:	add    eax,edi
  4050ce:	push   eax
  4050cf:	call   0x40529f
  4050d4:	mov    eax,DWORD PTR [ebp+0xc]
  4050d7:	mov    ecx,esi
  4050d9:	push   eax
  4050da:	push   0x0
  4050dc:	call   0x4052d0
  4050e1:	jmp    0x40512a
  4050e3:	push   0x0
  4050e5:	push   edi
  4050e6:	call   0x404f22
  4050eb:	test   al,al
  4050ed:	je     0x40512a
  4050ef:	cmp    DWORD PTR [ebx+0x14],0x10
  4050f3:	jb     0x4050f7
  4050f5:	mov    ebx,DWORD PTR [ebx]
  4050f7:	cmp    DWORD PTR [esi+0x14],0x10
  4050fb:	jb     0x405101
  4050fd:	mov    ecx,DWORD PTR [esi]
  4050ff:	jmp    0x405103
  405101:	mov    ecx,esi
  405103:	test   edi,edi
  405105:	je     0x405117
  405107:	mov    eax,DWORD PTR [ebp+0xc]
  40510a:	push   edi
  40510b:	add    eax,ebx
  40510d:	push   eax
  40510e:	push   ecx
  40510f:	call   0x40561e
  405114:	add    esp,0xc
  405117:	cmp    DWORD PTR [esi+0x14],0x10
  40511b:	mov    DWORD PTR [esi+0x10],edi
  40511e:	jb     0x405124
  405120:	mov    eax,DWORD PTR [esi]
  405122:	jmp    0x405126
  405124:	mov    eax,esi
  405126:	mov    BYTE PTR [eax+edi*1],0x0
  40512a:	pop    edi
  40512b:	mov    eax,esi
  40512d:	pop    esi
  40512e:	pop    ebx
  40512f:	pop    ebp
  405130:	ret    0xc
  405133:	call   0x405097
  405138:	int3   
  405139:	int3   
  40513a:	int3   
  40513b:	int3   
  40513c:	int3   
  40513d:	int3   
  40513e:	mov    edi,edi
  405140:	push   ebp
  405141:	mov    ebp,esp
  405143:	push   ebx
  405144:	mov    ebx,DWORD PTR [ebp+0x8]
  405147:	push   esi
  405148:	push   ebx
  405149:	mov    esi,ecx
  40514b:	call   0x404f88
  405150:	test   al,al
  405152:	je     0x405170
  405154:	cmp    DWORD PTR [esi+0x14],0x10
  405158:	jb     0x40515e
  40515a:	mov    eax,DWORD PTR [esi]
  40515c:	jmp    0x405160
  40515e:	mov    eax,esi
  405160:	push   DWORD PTR [ebp+0xc]
  405163:	sub    ebx,eax
  405165:	mov    ecx,esi
  405167:	push   ebx
  405168:	push   esi
  405169:	call   0x4050a7
  40516e:	jmp    0x4051b3
  405170:	push   edi
  405171:	mov    edi,DWORD PTR [ebp+0xc]
  405174:	mov    ecx,esi
  405176:	push   0x0
  405178:	push   edi
  405179:	call   0x404f22
  40517e:	test   al,al
  405180:	je     0x4051b0
  405182:	cmp    DWORD PTR [esi+0x14],0x10
  405186:	jb     0x40518c
  405188:	mov    eax,DWORD PTR [esi]
  40518a:	jmp    0x40518e
  40518c:	mov    eax,esi
  40518e:	test   edi,edi
  405190:	je     0x40519d
  405192:	push   edi
  405193:	push   ebx
  405194:	push   eax
  405195:	call   0x40561e
  40519a:	add    esp,0xc
  40519d:	cmp    DWORD PTR [esi+0x14],0x10
  4051a1:	mov    DWORD PTR [esi+0x10],edi
  4051a4:	jb     0x4051aa
  4051a6:	mov    eax,DWORD PTR [esi]
  4051a8:	jmp    0x4051ac
  4051aa:	mov    eax,esi
  4051ac:	mov    BYTE PTR [eax+edi*1],0x0
  4051b0:	mov    eax,esi
  4051b2:	pop    edi
  4051b3:	pop    esi
  4051b4:	pop    ebx
  4051b5:	pop    ebp
  4051b6:	ret    0x8
  4051b9:	int3   
  4051ba:	int3   
  4051bb:	int3   
  4051bc:	int3   
  4051bd:	int3   
  4051be:	int3   
  4051bf:	int3   
  4051c0:	mov    edi,edi
  4051c2:	push   ebp
  4051c3:	mov    ebp,esp
  4051c5:	push   esi
  4051c6:	mov    esi,DWORD PTR [ebp+0xc]
  4051c9:	push   esi
  4051ca:	call   0x40547b
  4051cf:	test   eax,eax
  4051d1:	mov    eax,DWORD PTR [ebp+0x8]
  4051d4:	pop    ecx
  4051d5:	mov    DWORD PTR [eax],esi
  4051d7:	je     0x4051e2
  4051d9:	mov    DWORD PTR [eax+0x4],0x40600c
  4051e0:	jmp    0x4051e9
  4051e2:	mov    DWORD PTR [eax+0x4],0x406014
  4051e9:	pop    esi
  4051ea:	pop    ebp
  4051eb:	ret    0x8
  4051ee:	int3   
  4051ef:	int3   
  4051f0:	int3   
  4051f1:	int3   
  4051f2:	int3   
  4051f3:	int3   
  4051f4:	int3   
  4051f5:	int3   
  4051f6:	int3   
  4051f7:	int3   
  4051f8:	int3   
  4051f9:	int3   
  4051fa:	int3   
  4051fb:	int3   
  4051fc:	int3   
  4051fd:	int3   
  4051fe:	int3   
  4051ff:	int3   
  405200:	mov    edi,edi
  405202:	push   ebp
  405203:	mov    ebp,esp
  405205:	mov    eax,DWORD PTR [ebp+0x8]
  405208:	mov    edx,DWORD PTR [ebp+0xc]
  40520b:	mov    DWORD PTR [eax],edx
  40520d:	mov    DWORD PTR [eax+0x4],ecx
  405210:	pop    ebp
  405211:	ret    0x8
  405214:	int3   
  405215:	int3   
  405216:	int3   
  405217:	int3   
  405218:	int3   
  405219:	int3   
  40521a:	int3   
  40521b:	int3   
  40521c:	int3   
  40521d:	int3   
  40521e:	int3   
  40521f:	int3   
  405220:	mov    edi,edi
  405222:	push   ebp
  405223:	mov    ebp,esp
  405225:	mov    eax,DWORD PTR [ebp+0x8]
  405228:	cmp    ecx,DWORD PTR [eax+0x4]
  40522b:	jne    0x405239
  40522d:	mov    eax,DWORD PTR [eax]
  40522f:	cmp    eax,DWORD PTR [ebp+0xc]
  405232:	jne    0x405239
  405234:	xor    eax,eax
  405236:	inc    eax
  405237:	jmp    0x40523b
  405239:	xor    eax,eax
  40523b:	pop    ebp
  40523c:	ret    0x8
  40523f:	int3   
  405240:	int3   
  405241:	int3   
  405242:	int3   
  405243:	int3   
  405244:	int3   
  405245:	int3   
  405246:	int3   
  405247:	int3   
  405248:	int3   
  405249:	int3   
  40524a:	int3   
  40524b:	int3   
  40524c:	int3   
  40524d:	int3   
  40524e:	int3   
  40524f:	int3   
  405250:	mov    edi,edi
  405252:	push   ebp
  405253:	mov    ebp,esp
  405255:	sub    esp,0xc
  405258:	mov    eax,ds:0x406004
  40525d:	xor    eax,ebp
  40525f:	mov    DWORD PTR [ebp-0x4],eax
  405262:	push   esi
  405263:	push   edi
  405264:	push   DWORD PTR [ebp+0xc]
  405267:	mov    edi,ecx
  405269:	lea    ecx,[ebp-0xc]
  40526c:	push   DWORD PTR [ebp+0x8]
  40526f:	push   ecx
  405270:	mov    eax,DWORD PTR [edi]
  405272:	mov    esi,DWORD PTR [eax+0xc]
  405275:	mov    ecx,esi
  405277:	call   DWORD PTR ds:0x40717c
  40527d:	mov    ecx,edi
  40527f:	call   esi
  405281:	mov    ecx,eax
  405283:	call   0x404d7a
  405288:	mov    ecx,DWORD PTR [ebp-0x4]
  40528b:	pop    edi
  40528c:	xor    ecx,ebp
  40528e:	pop    esi
  40528f:	call   0x404560
  405294:	mov    esp,ebp
  405296:	pop    ebp
  405297:	ret    0x8
  40529a:	int3   
  40529b:	int3   
  40529c:	int3   
  40529d:	int3   
  40529e:	int3   
  40529f:	mov    edi,edi
  4052a1:	push   ebp
  4052a2:	mov    ebp,esp
  4052a4:	mov    eax,DWORD PTR [ebp+0x8]
  4052a7:	cmp    DWORD PTR [ecx+0x10],eax
  4052aa:	jb     0x4052c5
  4052ac:	cmp    DWORD PTR [ecx+0x14],0x10
  4052b0:	mov    DWORD PTR [ecx+0x10],eax
  4052b3:	jb     0x4052b9
  4052b5:	mov    edx,DWORD PTR [ecx]
  4052b7:	jmp    0x4052bb
  4052b9:	mov    edx,ecx
  4052bb:	mov    BYTE PTR [edx+eax*1],0x0
  4052bf:	mov    eax,ecx
  4052c1:	pop    ebp
  4052c2:	ret    0x4
  4052c5:	call   0x405097
  4052ca:	int3   
  4052cb:	int3   
  4052cc:	int3   
  4052cd:	int3   
  4052ce:	int3   
  4052cf:	int3   
  4052d0:	mov    edi,edi
  4052d2:	push   ebp
  4052d3:	mov    ebp,esp
  4052d5:	push   esi
  4052d6:	mov    esi,ecx
  4052d8:	mov    ecx,DWORD PTR [ebp+0x8]
  4052db:	push   edi
  4052dc:	mov    edi,DWORD PTR [esi+0x10]
  4052df:	cmp    edi,ecx
  4052e1:	jb     0x40534a
  4052e3:	mov    edx,DWORD PTR [ebp+0xc]
  4052e6:	mov    eax,edi
  4052e8:	sub    eax,ecx
  4052ea:	cmp    eax,edx
  4052ec:	ja     0x405303
  4052ee:	cmp    DWORD PTR [esi+0x14],0x10
  4052f2:	mov    DWORD PTR [esi+0x10],ecx
  4052f5:	jb     0x4052fb
  4052f7:	mov    eax,DWORD PTR [esi]
  4052f9:	jmp    0x4052fd
  4052fb:	mov    eax,esi
  4052fd:	mov    BYTE PTR [eax+ecx*1],0x0
  405301:	jmp    0x405342
  405303:	test   edx,edx
  405305:	je     0x405342
  405307:	cmp    DWORD PTR [esi+0x14],0x10
  40530b:	jb     0x405311
  40530d:	mov    eax,DWORD PTR [esi]
  40530f:	jmp    0x405313
  405311:	mov    eax,esi
  405313:	sub    edi,edx
  405315:	push   ebx
  405316:	lea    ebx,[eax+ecx*1]
  405319:	mov    eax,edi
  40531b:	sub    eax,ecx
  40531d:	je     0x40532e
  40531f:	push   eax
  405320:	lea    eax,[ebx+edx*1]
  405323:	push   eax
  405324:	push   ebx
  405325:	call   DWORD PTR ds:0x40712c
  40532b:	add    esp,0xc
  40532e:	cmp    DWORD PTR [esi+0x14],0x10
  405332:	mov    DWORD PTR [esi+0x10],edi
  405335:	pop    ebx
  405336:	jb     0x40533c
  405338:	mov    eax,DWORD PTR [esi]
  40533a:	jmp    0x40533e
  40533c:	mov    eax,esi
  40533e:	mov    BYTE PTR [eax+edi*1],0x0
  405342:	pop    edi
  405343:	mov    eax,esi
  405345:	pop    esi
  405346:	pop    ebp
  405347:	ret    0x8
  40534a:	mov    ecx,esi
  40534c:	call   0x405097
  405351:	int3   
  405352:	int3   
  405353:	int3   
  405354:	int3   
  405355:	int3   
  405356:	int3   
  405357:	mov    edi,edi
  405359:	push   ebp
  40535a:	mov    ebp,esp
  40535c:	mov    eax,DWORD PTR [ebp+0x8]
  40535f:	cmp    BYTE PTR [eax],0x0
  405362:	jne    0x405368
  405364:	xor    eax,eax
  405366:	pop    ebp
  405367:	ret    
  405368:	lea    edx,[eax+0x1]
  40536b:	mov    cl,BYTE PTR [eax]
  40536d:	inc    eax
  40536e:	test   cl,cl
  405370:	jne    0x40536b
  405372:	sub    eax,edx
  405374:	pop    ebp
  405375:	ret    
  405376:	int3   
  405377:	int3   
  405378:	int3   
  405379:	int3   
  40537a:	int3   
  40537b:	int3   
  40537c:	int3   
  40537d:	int3   
  40537e:	int3   
  40537f:	int3   
  405380:	mov    edi,edi
  405382:	push   ebp
  405383:	mov    ebp,esp
  405385:	push   ecx
  405386:	push   DWORD PTR [ebp+0xc]
  405389:	and    DWORD PTR [ebp-0x4],0x0
  40538d:	call   0x40547b
  405392:	pop    ecx
  405393:	test   eax,eax
  405395:	jne    0x40539c
  405397:	mov    eax,0x401184
  40539c:	mov    ecx,DWORD PTR [ebp+0x8]
  40539f:	push   eax
  4053a0:	call   0x404c67
  4053a5:	mov    eax,DWORD PTR [ebp+0x8]
  4053a8:	mov    esp,ebp
  4053aa:	pop    ebp
  4053ab:	ret    0x8
  4053ae:	int3   
  4053af:	int3   
  4053b0:	int3   
  4053b1:	int3   
  4053b2:	int3   
  4053b3:	int3   
  4053b4:	int3   
  4053b5:	int3   
  4053b6:	int3   
  4053b7:	int3   
  4053b8:	int3   
  4053b9:	int3   
  4053ba:	int3   
  4053bb:	int3   
  4053bc:	int3   
  4053bd:	int3   
  4053be:	int3   
  4053bf:	int3   
  4053c0:	mov    edi,edi
  4053c2:	push   ebp
  4053c3:	mov    ebp,esp
  4053c5:	push   ecx
  4053c6:	and    DWORD PTR [ebp-0x4],0x0
  4053ca:	cmp    DWORD PTR [ebp+0xc],0x1
  4053ce:	jne    0x4053df
  4053d0:	mov    ecx,DWORD PTR [ebp+0x8]
  4053d3:	push   0x4011b8
  4053d8:	call   0x404c67
  4053dd:	jmp    0x4053ea
  4053df:	push   DWORD PTR [ebp+0xc]
  4053e2:	push   DWORD PTR [ebp+0x8]
  4053e5:	call   0x405380
  4053ea:	mov    eax,DWORD PTR [ebp+0x8]
  4053ed:	mov    esp,ebp
  4053ef:	pop    ebp
  4053f0:	ret    0x8
  4053f3:	int3   
  4053f4:	int3   
  4053f5:	int3   
  4053f6:	int3   
  4053f7:	int3   
  4053f8:	int3   
  4053f9:	int3   
  4053fa:	int3   
  4053fb:	int3   
  4053fc:	int3   
  4053fd:	int3   
  4053fe:	int3   
  4053ff:	int3   
  405400:	mov    edi,edi
  405402:	push   ebp
  405403:	mov    ebp,esp
  405405:	push   ecx
  405406:	push   DWORD PTR [ebp+0xc]
  405409:	and    DWORD PTR [ebp-0x4],0x0
  40540d:	call   0x4054ac
  405412:	pop    ecx
  405413:	test   eax,eax
  405415:	jne    0x40541c
  405417:	mov    eax,0x401184
  40541c:	mov    ecx,DWORD PTR [ebp+0x8]
  40541f:	push   eax
  405420:	call   0x404c67
  405425:	mov    eax,DWORD PTR [ebp+0x8]
  405428:	mov    esp,ebp
  40542a:	pop    ebp
  40542b:	ret    0x8
  40542e:	int3   
  40542f:	int3   
  405430:	int3   
  405431:	int3   
  405432:	int3   
  405433:	int3   
  405434:	int3   
  405435:	int3   
  405436:	int3   
  405437:	int3   
  405438:	int3   
  405439:	int3   
  40543a:	int3   
  40543b:	int3   
  40543c:	int3   
  40543d:	int3   
  40543e:	int3   
  40543f:	int3   
  405440:	mov    eax,0x40117c
  405445:	ret    
  405446:	int3   
  405447:	int3   
  405448:	int3   
  405449:	int3   
  40544a:	int3   
  40544b:	int3   
  40544c:	int3   
  40544d:	int3   
  40544e:	int3   
  40544f:	int3   
  405450:	mov    eax,0x4011ac
  405455:	ret    
  405456:	int3   
  405457:	int3   
  405458:	int3   
  405459:	int3   
  40545a:	int3   
  40545b:	int3   
  40545c:	int3   
  40545d:	int3   
  40545e:	int3   
  40545f:	int3   
  405460:	mov    eax,0x4011e8
  405465:	ret    
  405466:	int3   
  405467:	int3   
  405468:	int3   
  405469:	int3   
  40546a:	int3   
  40546b:	mov    edi,edi
  40546d:	push   ebp
  40546e:	mov    ebp,esp
  405470:	pop    ebp
  405471:	jmp    0x404c2e
  405476:	int3   
  405477:	int3   
  405478:	int3   
  405479:	int3   
  40547a:	int3   
  40547b:	mov    edi,edi
  40547d:	push   ebp
  40547e:	mov    ebp,esp
  405480:	cmp    DWORD PTR ds:0x401844,0x0
  405487:	mov    eax,0x401840
  40548c:	je     0x40549e
  40548e:	mov    ecx,DWORD PTR [ebp+0x8]
  405491:	cmp    DWORD PTR [eax],ecx
  405493:	je     0x4054a2
  405495:	add    eax,0x8
  405498:	cmp    DWORD PTR [eax+0x4],0x0
  40549c:	jne    0x405491
  40549e:	xor    eax,eax
  4054a0:	pop    ebp
  4054a1:	ret    
  4054a2:	mov    eax,DWORD PTR [eax+0x4]
  4054a5:	pop    ebp
  4054a6:	ret    
  4054a7:	int3   
  4054a8:	int3   
  4054a9:	int3   
  4054aa:	int3   
  4054ab:	int3   
  4054ac:	mov    edi,edi
  4054ae:	push   ebp
  4054af:	mov    ebp,esp
  4054b1:	cmp    DWORD PTR ds:0x40121c,0x0
  4054b8:	mov    eax,0x401218
  4054bd:	je     0x4054cf
  4054bf:	mov    ecx,DWORD PTR [ebp+0x8]
  4054c2:	cmp    DWORD PTR [eax],ecx
  4054c4:	je     0x4054d3
  4054c6:	add    eax,0x8
  4054c9:	cmp    DWORD PTR [eax+0x4],0x0
  4054cd:	jne    0x4054c2
  4054cf:	xor    eax,eax
  4054d1:	pop    ebp
  4054d2:	ret    
  4054d3:	mov    eax,DWORD PTR [eax+0x4]
  4054d6:	pop    ebp
  4054d7:	ret    
  4054d8:	int3   
  4054d9:	int3   
  4054da:	int3   
  4054db:	int3   
  4054dc:	int3   
  4054dd:	int3   
  4054de:	jmp    DWORD PTR ds:0x407140
  4054e4:	int3   
  4054e5:	int3   
  4054e6:	int3   
  4054e7:	int3   
  4054e8:	int3   
  4054e9:	int3   
  4054ea:	jmp    DWORD PTR ds:0x407144
  4054f0:	int3   
  4054f1:	int3   
  4054f2:	int3   
  4054f3:	int3   
  4054f4:	int3   
  4054f5:	int3   
  4054f6:	int3   
  4054f7:	int3   
  4054f8:	int3   
  4054f9:	int3   
  4054fa:	int3   
  4054fb:	int3   
  4054fc:	int3   
  4054fd:	int3   
  4054fe:	int3   
  4054ff:	int3   
  405500:	jmp    DWORD PTR ds:0x407148
  405506:	int3   
  405507:	int3   
  405508:	int3   
  405509:	int3   
  40550a:	int3   
  40550b:	int3   
  40550c:	jmp    DWORD PTR ds:0x40714c
  405512:	int3   
  405513:	int3   
  405514:	int3   
  405515:	int3   
  405516:	int3   
  405517:	int3   
  405518:	int3   
  405519:	int3   
  40551a:	int3   
  40551b:	int3   
  40551c:	int3   
  40551d:	int3   
  40551e:	int3   
  40551f:	int3   
  405520:	jmp    DWORD PTR ds:0x407150
  405526:	int3   
  405527:	int3   
  405528:	int3   
  405529:	int3   
  40552a:	int3   
  40552b:	int3   
  40552c:	jmp    DWORD PTR ds:0x407154
  405532:	int3   
  405533:	int3   
  405534:	int3   
  405535:	int3   
  405536:	int3   
  405537:	mov    ecx,DWORD PTR [ebp-0xc]
  40553a:	mov    DWORD PTR fs:0x0,ecx
  405541:	pop    ecx
  405542:	pop    edi
  405543:	pop    edi
  405544:	pop    esi
  405545:	pop    ebx
  405546:	mov    esp,ebp
  405548:	pop    ebp
  405549:	push   ecx
  40554a:	ret    
  40554b:	int3   
  40554c:	int3   
  40554d:	int3   
  40554e:	int3   
  40554f:	int3   
  405550:	mov    ecx,DWORD PTR [ebp-0x10]
  405553:	xor    ecx,ebp
  405555:	call   0x404560
  40555a:	jmp    0x405537
  40555f:	int3   
  405560:	int3   
  405561:	int3   
  405562:	int3   
  405563:	int3   
  405564:	push   eax
  405565:	push   DWORD PTR fs:0x0
  40556c:	lea    eax,[esp+0xc]
  405570:	sub    esp,DWORD PTR [esp+0xc]
  405574:	push   ebx
  405575:	push   esi
  405576:	push   edi
  405577:	mov    DWORD PTR [eax],ebp
  405579:	mov    ebp,eax
  40557b:	mov    eax,ds:0x406004
  405580:	xor    eax,ebp
  405582:	push   eax
  405583:	push   DWORD PTR [ebp-0x4]
  405586:	mov    DWORD PTR [ebp-0x4],0xffffffff
  40558d:	lea    eax,[ebp-0xc]
  405590:	mov    fs:0x0,eax
  405596:	ret    
  405597:	int3   
  405598:	int3   
  405599:	int3   
  40559a:	int3   
  40559b:	int3   
  40559c:	push   eax
  40559d:	push   DWORD PTR fs:0x0
  4055a4:	lea    eax,[esp+0xc]
  4055a8:	sub    esp,DWORD PTR [esp+0xc]
  4055ac:	push   ebx
  4055ad:	push   esi
  4055ae:	push   edi
  4055af:	mov    DWORD PTR [eax],ebp
  4055b1:	mov    ebp,eax
  4055b3:	mov    eax,ds:0x406004
  4055b8:	xor    eax,ebp
  4055ba:	push   eax
  4055bb:	mov    DWORD PTR [ebp-0x10],eax
  4055be:	push   DWORD PTR [ebp-0x4]
  4055c1:	mov    DWORD PTR [ebp-0x4],0xffffffff
  4055c8:	lea    eax,[ebp-0xc]
  4055cb:	mov    fs:0x0,eax
  4055d1:	ret    
  4055d2:	int3   
  4055d3:	int3   
  4055d4:	int3   
  4055d5:	int3   
  4055d6:	int3   
  4055d7:	push   eax
  4055d8:	push   DWORD PTR fs:0x0
  4055df:	lea    eax,[esp+0xc]
  4055e3:	sub    esp,DWORD PTR [esp+0xc]
  4055e7:	push   ebx
  4055e8:	push   esi
  4055e9:	push   edi
  4055ea:	mov    DWORD PTR [eax],ebp
  4055ec:	mov    ebp,eax
  4055ee:	mov    eax,ds:0x406004
  4055f3:	xor    eax,ebp
  4055f5:	push   eax
  4055f6:	mov    DWORD PTR [ebp-0x10],esp
  4055f9:	push   DWORD PTR [ebp-0x4]
  4055fc:	mov    DWORD PTR [ebp-0x4],0xffffffff
  405603:	lea    eax,[ebp-0xc]
  405606:	mov    fs:0x0,eax
  40560c:	ret    
  40560d:	int3   
  40560e:	int3   
  40560f:	int3   
  405610:	int3   
  405611:	int3   
  405612:	jmp    DWORD PTR ds:0x407158
  405618:	int3   
  405619:	int3   
  40561a:	int3   
  40561b:	int3   
  40561c:	int3   
  40561d:	int3   
  40561e:	jmp    DWORD PTR ds:0x40715c
  405624:	int3   
  405625:	int3   
  405626:	int3   
  405627:	int3   
  405628:	int3   
  405629:	int3   
  40562a:	jmp    DWORD PTR ds:0x407164
  405630:	int3   
  405631:	int3   
  405632:	int3   
  405633:	int3   
  405634:	int3   
  405635:	mov    ecx,DWORD PTR [ebp-0x14]
  405638:	jmp    0x403a92
  40563d:	mov    edx,DWORD PTR [esp+0x8]
  405641:	lea    eax,[edx+0xc]
  405644:	mov    ecx,DWORD PTR [edx-0x18]
  405647:	xor    ecx,eax
  405649:	call   0x404560
  40564e:	mov    ecx,DWORD PTR [edx-0x4]
  405651:	xor    ecx,eax
  405653:	call   0x404560
  405658:	mov    eax,0x4057c0
  40565d:	jmp    0x405612
  405662:	int3   
  405663:	int3   
  405664:	int3   
  405665:	int3   
  405666:	int3   
  405667:	lea    ecx,[ebp-0x10]
  40566a:	jmp    0x403e0f
  40566f:	lea    ecx,[ebp-0x24]
  405672:	jmp    0x40385a
  405677:	mov    edx,DWORD PTR [esp+0x8]
  40567b:	lea    eax,[edx+0xc]
  40567e:	mov    ecx,DWORD PTR [edx-0x28]
  405681:	xor    ecx,eax
  405683:	call   0x404560
  405688:	mov    eax,0x4057ec
  40568d:	jmp    0x405612
  405692:	int3   
  405693:	int3   
  405694:	int3   
  405695:	int3   
  405696:	int3   
  405697:	mov    edx,DWORD PTR [esp+0x8]
  40569b:	lea    eax,[edx+0xc]
  40569e:	mov    ecx,DWORD PTR [edx-0x20]
  4056a1:	xor    ecx,eax
  4056a3:	call   0x404560
  4056a8:	mov    eax,0x4058e4
  4056ad:	jmp    0x405612
  4056b2:	int3   
  4056b3:	int3   
  4056b4:	int3   
  4056b5:	int3   
  4056b6:	int3   
  4056b7:	int3   
  4056b8:	int3   
  4056b9:	int3   
  4056ba:	int3   
  4056bb:	int3   
  4056bc:	int3   
  4056bd:	int3   
  4056be:	int3   
  4056bf:	int3   
  4056c0:	mov    edi,edi
  4056c2:	push   ebp
  4056c3:	mov    ebp,esp
  4056c5:	push   ecx
  4056c6:	push   ecx
  4056c7:	lea    eax,[ebp-0x8]
  4056ca:	push   eax
  4056cb:	lea    eax,[ebp-0x4]
  4056ce:	push   eax
  4056cf:	push   0x0
  4056d1:	push   0x406548
  4056d6:	call   DWORD PTR ds:0x4070a8
  4056dc:	test   eax,eax
  4056de:	je     0x4056ee
  4056e0:	cmp    DWORD PTR [ebp-0x4],0x0
  4056e4:	jne    0x4056ee
  4056e6:	mov    ecx,DWORD PTR [ebp-0x8]
  4056e9:	call   0x403617
  4056ee:	mov    esp,ebp
  4056f0:	pop    ebp
  4056f1:	ret    
  4056f2:	int3   
  4056f3:	int3   
  4056f4:	int3   
  4056f5:	int3   
  4056f6:	int3   
  4056f7:	int3   
  4056f8:	int3   
  4056f9:	int3   
  4056fa:	int3   
  4056fb:	int3   
  4056fc:	int3   
  4056fd:	int3   
  4056fe:	int3   
  4056ff:	int3   
  405700:	mov    edi,edi
  405702:	push   ebp
  405703:	mov    ebp,esp
  405705:	push   ecx
  405706:	mov    eax,ds:0x406004
  40570b:	xor    eax,ebp
  40570d:	mov    DWORD PTR [ebp-0x4],eax
  405710:	mov    eax,ds:0x40656c
  405715:	test   eax,eax
  405717:	je     0x405720
  405719:	push   eax
  40571a:	call   DWORD PTR ds:0x407034
  405720:	push   edi
  405721:	mov    edi,DWORD PTR ds:0x406500
  405727:	test   edi,edi
  405729:	je     0x405746
  40572b:	mov    eax,DWORD PTR [edi]
  40572d:	push   esi
  40572e:	push   0x1
  405730:	mov    esi,DWORD PTR [eax]
  405732:	mov    ecx,esi
  405734:	call   DWORD PTR ds:0x40717c
  40573a:	mov    ecx,edi
  40573c:	call   esi
  40573e:	and    DWORD PTR ds:0x406500,0x0
  405745:	pop    esi
  405746:	mov    ecx,DWORD PTR [ebp-0x4]
  405749:	xor    ecx,ebp
  40574b:	pop    edi
  40574c:	call   0x404560
  405751:	mov    esp,ebp
  405753:	pop    ebp
  405754:	ret    
  405755:	int3   
  405756:	int3   
  405757:	int3   
  405758:	int3   
  405759:	int3   
  40575a:	int3   
  40575b:	int3   
  40575c:	int3   
  40575d:	int3   
  40575e:	int3   
  40575f:	int3   
  405760:	push   0x406570
  405765:	call   DWORD PTR ds:0x407044
  40576b:	ret    
  40576c:	int3   
  40576d:	int3   
  40576e:	int3   
  40576f:	int3   
  405770:	int3   
  405771:	int3   
  405772:	int3   
  405773:	int3   
  405774:	int3   
  405775:	int3   
  405776:	int3   
  405777:	int3   
  405778:	int3   
  405779:	int3   
  40577a:	int3   
  40577b:	int3   
  40577c:	int3   
  40577d:	int3   
  40577e:	int3   
  40577f:	int3   
  405780:	jmp    0x403817
  405785:	int3   
  405786:	int3   
  405787:	int3   
  405788:	int3   
  405789:	int3   
  40578a:	int3   
  40578b:	int3   
  40578c:	int3   
  40578d:	int3   
  40578e:	int3   
  40578f:	int3   
  405790:	mov    DWORD PTR ds:0x40600c,0x40114c
  40579a:	ret    
  40579b:	int3   
  40579c:	int3   
  40579d:	int3   
  40579e:	int3   
  40579f:	int3   
  4057a0:	mov    DWORD PTR ds:0x406010,0x40114c
  4057aa:	ret    
  4057ab:	int3   
  4057ac:	int3   
  4057ad:	int3   
  4057ae:	int3   
  4057af:	int3   
  4057b0:	mov    DWORD PTR ds:0x406014,0x40114c
  4057ba:	ret    
  4057bb:	int3   
  4057bc:	int3   
  4057bd:	int3   
  4057be:	int3   
  4057bf:	int3   
  4057c0:	and    al,BYTE PTR ds:0x11993
  4057c6:	add    BYTE PTR [eax],al
  4057c8:	in     al,0x57
  4057ca:	inc    eax
	...
  4057df:	add    BYTE PTR [ecx],al
  4057e1:	add    BYTE PTR [eax],al
  4057e3:	add    bh,bh
  4057e5:	(bad)  
  4057e6:	(bad)  
  4057e7:	push   DWORD PTR ds:0x22004056
  4057ed:	add    eax,0x21993
  4057f2:	add    BYTE PTR [eax],al
  4057f4:	adc    BYTE PTR [eax+0x40],bl
	...
  40580b:	add    BYTE PTR [ecx],al
  40580d:	add    BYTE PTR [eax],al
  40580f:	add    bh,bh
  405811:	(bad)  
  405812:	(bad)  
  405813:	jmp    DWORD PTR [edi+0x56]
  405816:	inc    eax
  405817:	add    BYTE PTR [eax],al
  405819:	add    BYTE PTR [eax],al
  40581b:	add    BYTE PTR [edi+0x56],ch
  40581e:	inc    eax
  40581f:	add    ah,ah
  405821:	(bad)  
  405822:	(bad)  
  405823:	inc    DWORD PTR [eax]
  405825:	add    BYTE PTR [eax],al
  405827:	add    BYTE PTR [edi+edi*8+0xffff],al
  40582e:	add    BYTE PTR [eax],al
  405830:	(bad)  
  405831:	(bad)  
  405832:	(bad)  
  405833:	call   esi
  405835:	inc    esp
  405836:	inc    eax
  405837:	add    dl,bl
  405839:	inc    esp
  40583a:	inc    eax
  40583b:	add    dh,bh
  40583d:	(bad)  
  40583e:	(bad)  
  40583f:	dec    DWORD PTR [edx-0x61ffbfbc]
  405845:	inc    esp
  405846:	inc    eax
  405847:	add    ah,ah
  405849:	(bad)  
  40584a:	(bad)  
  40584b:	inc    DWORD PTR [eax]
  40584d:	add    BYTE PTR [eax],al
  40584f:	add    al,cl
  405851:	(bad)  
  405852:	(bad)  
  405853:	inc    DWORD PTR [eax]
  405855:	add    BYTE PTR [eax],al
  405857:	add    dh,bh
  405859:	(bad)  
  40585a:	(bad)  
  40585b:	inc    DWORD PTR [eax]
  40585d:	add    BYTE PTR [eax],al
  40585f:	add    BYTE PTR [edx],al
  405861:	inc    esi
  405862:	inc    eax
  405863:	add    BYTE PTR [eax],al
  405865:	add    BYTE PTR [eax],al
  405867:	add    dh,bh
  405869:	(bad)  
  40586a:	(bad)  
  40586b:	inc    DWORD PTR [eax]
  40586d:	add    BYTE PTR [eax],al
  40586f:	add    ah,dl
  405871:	(bad)  
  405872:	(bad)  
  405873:	inc    DWORD PTR [eax]
  405875:	add    BYTE PTR [eax],al
  405877:	add    dh,bh
  405879:	(bad)  
  40587a:	(bad)  
  40587b:	jmp    FWORD PTR [edi+eax*2]
  40587e:	inc    eax
  40587f:	add    BYTE PTR [eax],dh
  405881:	inc    edi
  405882:	inc    eax
  405883:	add    BYTE PTR [eax],al
  405885:	add    BYTE PTR [eax],al
  405887:	add    dh,bh
  405889:	(bad)  
  40588a:	(bad)  
  40588b:	inc    DWORD PTR [eax]
  40588d:	add    BYTE PTR [eax],al
  40588f:	add    al,bl
  405891:	(bad)  
  405892:	(bad)  
  405893:	inc    DWORD PTR [eax]
  405895:	add    BYTE PTR [eax],al
  405897:	add    dh,bh
  405899:	(bad)  
  40589a:	(bad)  
  40589b:	(bad)  
  40589c:	jnp    0x4058e6
  40589e:	inc    eax
  40589f:	add    BYTE PTR [esi+0x40004048],cl
	...
  4058ad:	add    BYTE PTR [eax],al
  4058af:	add    BYTE PTR [ecx+0x4000404e],cl
	...
  4058bd:	add    BYTE PTR [eax],al
  4058bf:	add    BYTE PTR [eax],cl
  4058c1:	dec    edi
  4058c2:	inc    eax
  4058c3:	add    bh,bh
  4058c5:	(bad)  
  4058c6:	(bad)  
  4058c7:	inc    DWORD PTR [eax]
  4058c9:	add    BYTE PTR [eax],al
  4058cb:	add    bh,bh
  4058cd:	(bad)  
  4058ce:	(bad)  
  4058cf:	inc    DWORD PTR [eax]
  4058d1:	add    BYTE PTR [eax],al
  4058d3:	add    BYTE PTR [ecx],al
  4058d5:	add    BYTE PTR [eax],al
  4058d7:	add    BYTE PTR [eax],al
  4058d9:	add    BYTE PTR [eax],al
  4058db:	add    BYTE PTR [ecx],al
  4058dd:	add    BYTE PTR [eax],al
  4058df:	add    BYTE PTR [eax],al
  4058e1:	add    BYTE PTR [eax],al
  4058e3:	add    BYTE PTR [edx],ah
  4058e5:	add    eax,0x41993
  4058ea:	add    BYTE PTR [eax],al
  4058ec:	les    ebx,FWORD PTR [eax+0x40]
  4058ef:	add    BYTE PTR [edx],al
  4058f1:	add    BYTE PTR [eax],al
  4058f3:	add    BYTE PTR [eax],cl
  4058f5:	pop    ecx
  4058f6:	inc    eax
	...
  405903:	add    BYTE PTR [ecx],al
  405905:	add    BYTE PTR [eax],al
  405907:	add    BYTE PTR [edx],al
  405909:	add    BYTE PTR [eax],al
  40590b:	add    BYTE PTR [edx],al
  40590d:	add    BYTE PTR [eax],al
  40590f:	add    BYTE PTR [ebx],al
  405911:	add    BYTE PTR [eax],al
  405913:	add    BYTE PTR [ecx],al
  405915:	add    BYTE PTR [eax],al
  405917:	add    BYTE PTR [eax+ebx*2+0x40],dh
  40591e:	add    BYTE PTR [eax],al
  405920:	add    BYTE PTR [eax],al
  405922:	add    BYTE PTR [eax],al
  405924:	add    eax,DWORD PTR [eax]
  405926:	add    BYTE PTR [eax],al
  405928:	add    DWORD PTR [eax],eax
  40592a:	add    BYTE PTR [eax],al
  40592c:	movs   BYTE PTR es:[edi],BYTE PTR ds:[esi]
  40592d:	pop    eax
  40592e:	inc    eax
  40592f:	add    BYTE PTR [eax],al
  405931:	add    BYTE PTR [eax],al
  405933:	add    BYTE PTR [eax+0x4d],ah
  405936:	inc    eax
  405937:	add    BYTE PTR [eax],al
  405939:	add    BYTE PTR [eax],al
  40593b:	add    BYTE PTR [eax+0x59],al
  40593e:	inc    eax
  40593f:	add    BYTE PTR [edx],al
  405941:	add    BYTE PTR [eax],al
  405943:	add    BYTE PTR [ecx+ebx*2+0x40],cl
  405947:	add    BYTE PTR [eax+0x59],ch
  40594a:	inc    eax
  40594b:	add    BYTE PTR [eax],dl
  40594d:	add    BYTE PTR [eax],al
  40594f:	add    BYTE PTR [eax+0x60],dl
  405952:	inc    eax
  405953:	add    BYTE PTR [eax],al
  405955:	add    BYTE PTR [eax],al
  405957:	add    bh,bh
  405959:	(bad)  
  40595a:	(bad)  
  40595b:	inc    DWORD PTR [eax]
  40595d:	add    BYTE PTR [eax],al
  40595f:	add    BYTE PTR [eax+eax*1],cl
  405962:	add    BYTE PTR [eax],al
  405964:	mov    al,ds:0x404c
  405969:	add    BYTE PTR [eax],al
  40596b:	add    BYTE PTR [eax+eiz*2+0x40],ch
  40596f:	add    BYTE PTR [eax],al
  405971:	add    BYTE PTR [eax],al
  405973:	add    bh,bh
  405975:	(bad)  
  405976:	(bad)  
  405977:	inc    DWORD PTR [eax]
  405979:	add    BYTE PTR [eax],al
  40597b:	add    BYTE PTR [eax+eax*1],cl
  40597e:	add    BYTE PTR [eax],al
  405980:	add    BYTE PTR [ebp+0x40],dl
  405983:	add    BYTE PTR [eax],al
  405985:	add    BYTE PTR [eax],al
  405987:	add    BYTE PTR [eax+eiz*2+0x40],al
  40598e:	add    BYTE PTR [eax],al
  405990:	(bad)  
  405991:	(bad)  
  405992:	(bad)  
  405993:	inc    DWORD PTR [eax]
  405995:	add    BYTE PTR [eax],al
  405997:	add    BYTE PTR [eax+eax*1],cl
  40599a:	add    BYTE PTR [eax],al
  40599c:	add    BYTE PTR [ebp+0x40],cl
  40599f:	add    BYTE PTR [eax],al
  4059a1:	add    BYTE PTR [eax],al
  4059a3:	add    BYTE PTR [eax+0x4d],dh
  4059a6:	inc    eax
  4059a7:	add    BYTE PTR [eax],al
  4059a9:	add    BYTE PTR [eax],al
  4059ab:	add    BYTE PTR [eax+0x3004059],dh
  4059b1:	add    BYTE PTR [eax],al
  4059b3:	add    al,al
  4059b5:	pop    ecx
  4059b6:	inc    eax
  4059b7:	add    BYTE PTR [ecx+ebx*2+0x59680040],al
  4059be:	inc    eax
  4059bf:	add    BYTE PTR [eax],al
  4059c1:	add    BYTE PTR [eax],al
  4059c3:	add    BYTE PTR [eax+eiz*2+0x40],ah
  4059ca:	add    BYTE PTR [eax],al
  4059cc:	(bad)  
  4059cd:	(bad)  
  4059ce:	(bad)  
  4059cf:	inc    DWORD PTR [eax]
  4059d1:	add    BYTE PTR [eax],al
  4059d3:	add    BYTE PTR [eax+eax*1],cl
  4059d6:	add    BYTE PTR [eax],al
  4059d8:	add    BYTE PTR [ebp+0x40],cl
  4059db:	add    BYTE PTR [eax],al
  4059dd:	add    BYTE PTR [eax],al
  4059df:	add    BYTE PTR [eax+0x4d],dh
  4059e2:	inc    eax
  4059e3:	add    BYTE PTR [eax],al
  4059e5:	add    BYTE PTR [eax],al
  4059e7:	add    ah,ch
  4059e9:	pop    ecx
  4059ea:	inc    eax
  4059eb:	add    BYTE PTR [ebx],al
  4059ed:	add    BYTE PTR [eax],al
  4059ef:	add    ah,bh
  4059f1:	pop    ecx
  4059f2:	inc    eax
  4059f3:	add    BYTE PTR [ecx+ebx*2+0x59680040],al
  4059fa:	inc    eax
  4059fb:	add    BYTE PTR [eax],al
  4059fd:	add    BYTE PTR [eax],al
  4059ff:	add    ah,al
  405a01:	pusha  
  405a02:	inc    eax
  405a03:	add    BYTE PTR [eax],al
  405a05:	add    BYTE PTR [eax],al
  405a07:	add    bh,bh
  405a09:	(bad)  
  405a0a:	(bad)  
  405a0b:	inc    DWORD PTR [eax]
  405a0d:	add    BYTE PTR [eax],al
  405a0f:	add    BYTE PTR [eax+eax*1],cl
  405a12:	add    BYTE PTR [eax],al
  405a14:	add    BYTE PTR [ebp+0x40],cl
	...
