
c3f865f60ea816281c90cca306f592c65bdc204bbf8b0c6a3140b0500cdc75e8.exe:     file format pei-i386


Disassembly of section .text:

00402000 <.text>:
  402000:	and    BYTE PTR [ebp+0x0],ah
  402006:	add    BYTE PTR [eax],al
  402008:	dec    eax
  402009:	add    BYTE PTR [eax],al
  40200b:	add    BYTE PTR [edx],al
  40200d:	add    BYTE PTR ds:0x4e6c00,al
  402013:	add    BYTE PTR [ebp+edx*2+0x0],cl
  402017:	add    BYTE PTR [ecx],cl
  402019:	add    BYTE PTR [eax],al
  40201b:	add    BYTE PTR [edx],al
  40201d:	add    BYTE PTR [eax],al
  40201f:	push   es
  402020:	enter  0x46,0x0
  402024:	mov    ds:0x50000007,al
  402029:	and    BYTE PTR [eax],al
  40202b:	add    BYTE PTR [eax],al
  40202d:	add    DWORD PTR [eax],eax
	...
  40204f:	add    ch,bh
  402051:	scas   al,BYTE PTR es:[edi]
  402052:	movs   BYTE PTR es:[edi],BYTE PTR ds:[esi]
  402053:	jno    0x4020b8
  402055:	fucompp 
  402057:	or     DWORD PTR [ebp-0x56],esp
  40205a:	xchg   ebp,eax
  40205b:	jo     0x401fea
  40205d:	cmc    
  40205e:	jae    0x402039
  402060:	sub    eax,0x336e17bf
  402065:	mov    bh,0xfb
  402067:	jns    0x4020e2
  402069:	shl    BYTE PTR ds:0xea8bead,1
  40206f:	cdq    
  402070:	std    
  402071:	idiv   BYTE PTR [ebp+0x3f53321b]
  402077:	dec    esi
  402078:	mov    ds:0x7b26d189,al
  40207d:	push   ecx
  40207e:	adc    bl,bl
  402080:	inc    ebp
  402081:	jae    0x40205b
  402083:	adc    BYTE PTR [ebx+0xf],bh
  402086:	xor    al,0x81
  402088:	lds    edx,FWORD PTR [eax-0x677f5ec5]
  40208e:	push   ds
  40208f:	push   esp
  402090:	or     bh,BYTE PTR [ebp+0x4c]
  402093:	add    edi,DWORD PTR [edi-0x4e0b4f24]
  402099:	jb     0x4020fc
  40209b:	enter  0x880e,0x31
  40209f:	into   
  4020a0:	ficomp DWORD PTR [eax+eax*1]
  4020a3:	inc    eax
  4020a4:	ins    BYTE PTR es:[edi],dx
  4020a5:	xor    eax,0x4742f038
  4020aa:	add    bl,dh
  4020ac:	fdiv   st,st(4)
  4020ae:	dec    ebx
  4020af:	(bad)  
  4020b0:	xchg   ebp,eax
  4020b1:	ret    
  4020b2:	repnz lods eax,DWORD PTR ds:[esi]
  4020b4:	movs   DWORD PTR es:[edi],DWORD PTR ds:[esi]
  4020b5:	ucomiss xmm0,xmm7
  4020b8:	in     al,0xd6
  4020ba:	mov    ch,al
  4020bc:	(bad)  
  4020bd:	or     BYTE PTR [edx-0x42950337],0x8f
  4020c4:	scas   eax,DWORD PTR es:[edi]
  4020c5:	in     eax,dx
  4020c6:	repz inc edx
  4020c8:	jmp    0x2434:0x1bcc69cf
  4020cf:	dec    edi
  4020d0:	out    0x38,eax
  4020d2:	or     di,WORD PTR [ebp-0x61]
  4020d6:	gs hlt 
  4020d8:	and    DWORD PTR [ebp-0x10],eax
  4020db:	xchg   ecx,eax
  4020dc:	push   0x634546a2
  4020e1:	ret    
  4020e2:	mov    esp,ebp
  4020e4:	push   ebx
  4020e5:	mov    ah,0x4b
  4020e7:	sahf   
  4020e8:	dec    ebp
  4020e9:	test   ch,0xd8
  4020ec:	outs   dx,BYTE PTR ds:[esi]
  4020ed:	jns    0x40212d
  4020ef:	mov    al,ds:0x6860456d
  4020f4:	or     eax,0xf160154e
  4020f9:	mov    ebx,0xa69d0764
  4020fe:	mov    bh,0x1d
  402100:	jmp    0x8c11f754
  402105:	repnz cmp esi,DWORD PTR [edi]
  402108:	ret    
  402109:	xchg   BYTE PTR [ebx+0x676c4837],bh
  40210f:	ins    BYTE PTR es:[edi],dx
  402110:	fs jmp 0x71b38203
  402116:	jl     0x402166
  402118:	push   DWORD PTR [ecx+0x1e]
  40211b:	sti    
  40211c:	retf   
  40211d:	(bad)  
  40211e:	adc    ch,BYTE PTR [edi-0x74]
  402121:	jl     0x4020a8
  402123:	ret    0x5eed
  402126:	outs   dx,DWORD PTR ds:[esi]
  402127:	pop    ss
  402128:	dec    ebp
  402129:	sbb    BYTE PTR [esi+0x20],dh
  40212c:	xchg   edi,eax
  40212d:	jno    0x402157
  40212f:	nop
  402130:	shl    BYTE PTR [ecx+0x652c8bd0],cl
  402136:	sub    BYTE PTR [edi+0x4f],cl
  402139:	rcl    DWORD PTR [ebx-0x6b31adce],1
  40213f:	pop    ds
  402140:	out    0xa9,al
  402142:	retf   0x108e
  402145:	push   eax
  402146:	adc    BYTE PTR [edx],ah
  402148:	in     eax,dx
  402149:	mov    ds:0x7698727c,eax
  40214e:	add    BYTE PTR [ecx],al
  402150:	add    esi,DWORD PTR [eax]
  402152:	add    al,BYTE PTR [eax]
  402154:	dec    eax
  402155:	add    BYTE PTR [eax],al
  402157:	add    BYTE PTR [eax],al
  402159:	add    BYTE PTR [eax],al
  40215b:	add    BYTE PTR [edi],dl
  40215d:	jae    0x402177
  40215f:	add    BYTE PTR [eax],al
  402161:	or     ch,BYTE PTR [eax]
  402163:	sbb    DWORD PTR [eax],eax
  402165:	add    BYTE PTR [edx],cl
  402167:	sub    BYTE PTR [edx],bl
  402169:	add    BYTE PTR [eax],al
  40216b:	or     ch,BYTE PTR [eax]
  40216d:	sbb    eax,DWORD PTR [eax]
  40216f:	add    BYTE PTR [edx],cl
  402171:	jae    0x40218f
  402173:	add    BYTE PTR [eax],al
  402175:	or     al,BYTE PTR [eax+0x4000001]
  40217b:	sub    BYTE PTR ds:0x280a0000,bl
  402181:	sbb    eax,DWORD PTR [eax]
  402183:	add    BYTE PTR [edx],cl
  402185:	jae    0x4021a3
  402187:	add    BYTE PTR [eax],al
  402189:	or     al,BYTE PTR [eax+0x4000002]
  40218f:	jle    0x402192
  402191:	add    BYTE PTR [eax],al
  402193:	add    al,0x28
  402195:	push   ds
  402196:	add    BYTE PTR [eax],al
  402198:	or     bh,BYTE PTR [esi+0x2]
  40219b:	add    BYTE PTR [eax],al
  40219d:	add    al,0x28
  40219f:	pop    ds
  4021a0:	add    BYTE PTR [eax],al
  4021a2:	or     ch,BYTE PTR [edx]
  4021a4:	sbb    esi,DWORD PTR [eax]
  4021a6:	pop    es
  4021a7:	add    BYTE PTR ds:0x1000001,cl
  4021ad:	add    BYTE PTR [eax],al
  4021af:	adc    DWORD PTR [eax],ebp
  4021b1:	add    DWORD PTR [eax],eax
  4021b3:	add    BYTE PTR [esi],al
  4021b5:	add    ch,BYTE PTR [eax]
  4021b7:	adc    al,BYTE PTR [eax]
  4021b9:	add    BYTE PTR [esi],al
  4021bb:	or     al,BYTE PTR [esi]
  4021bd:	jnp    0x4021c8
  4021bf:	add    BYTE PTR [eax],al
  4021c1:	add    al,0x2c
  4021c3:	push   ds
  4021c4:	push   ss
  4021c5:	or     ebp,DWORD PTR [ebx]
  4021c7:	or     ebx,DWORD PTR [edi]
  4021c9:	sub    BYTE PTR fs:[eax],ah
  4021cc:	add    BYTE PTR [eax],al
  4021ce:	or     al,BYTE PTR [edi]
  4021d0:	pop    ss
  4021d1:	pop    eax
  4021d2:	or     ebp,DWORD PTR [eax]
  4021d4:	and    DWORD PTR [eax],eax
  4021d6:	add    BYTE PTR [edx],cl
  4021d8:	sub    eax,0x58200708
  4021dd:	add    al,BYTE PTR [eax]
  4021df:	add    BYTE PTR [edx],dh
  4021e1:	out    0x6,al
  4021e3:	jnp    0x4021eb
  4021e5:	add    BYTE PTR [eax],al
  4021e7:	add    al,0x2c
  4021e9:	adc    eax,0x2228
  4021ee:	or     al,BYTE PTR [esi]
  4021f0:	jnp    0x4021f8
  4021f2:	add    BYTE PTR [eax],al
  4021f4:	add    al,0x73
  4021f6:	and    eax,DWORD PTR [eax]
  4021f8:	add    BYTE PTR [edx],cl
  4021fa:	outs   dx,DWORD PTR ds:[esi]
  4021fb:	and    al,0x0
  4021fd:	add    BYTE PTR [edx],cl
  4021ff:	jle    0x402226
  402201:	add    BYTE PTR [eax],al
  402203:	or     ch,BYTE PTR [eax]
  402205:	add    BYTE PTR es:[eax],al
  402208:	or     al,BYTE PTR [esi]
  40220a:	jnp    0x402210
  40220c:	add    BYTE PTR [eax],al
  40220e:	add    al,0x2d
  402210:	or     BYTE PTR [edi],dl
  402212:	jae    0x40222c
  402214:	add    BYTE PTR [eax],al
  402216:	or     ch,BYTE PTR [ebx]
  402218:	or     eax,DWORD PTR [esi]
  40221a:	jnp    0x402220
  40221c:	add    BYTE PTR [eax],al
  40221e:	add    al,0x28
  402220:	push   es
  402221:	add    BYTE PTR [eax],al
  402223:	push   es
  402224:	or     al,0x28
  402226:	daa    
  402227:	add    BYTE PTR [eax],al
  402229:	or     cl,BYTE PTR ds:0x2873
  40222f:	or     dl,BYTE PTR [ebx]
  402231:	add    al,0x11
  402233:	add    al,0x9
  402235:	outs   dx,DWORD PTR ds:[esi]
  402236:	sub    DWORD PTR [eax],eax
  402238:	add    BYTE PTR [edx],cl
  40223a:	sub    BYTE PTR [edx],ch
  40223c:	add    BYTE PTR [eax],al
  40223e:	or     ch,BYTE PTR [edi+0x2b]
  402241:	add    BYTE PTR [eax],al
  402243:	or     dh,BYTE PTR [edx+0x1]
  402246:	add    BYTE PTR [eax],al
  402248:	jo     0x40225e
  40224a:	adc    DWORD PTR [eax+ecx*1],eax
  40224d:	pop    ss
  40224e:	lea    ecx,ds:0x13010000
  402254:	pop    es
  402255:	adc    DWORD PTR [edi],eax
  402257:	push   ss
  402258:	or     DWORD PTR [eax],ebp
  40225a:	add    eax,0xa2060000
  40225f:	adc    DWORD PTR [edi],eax
  402261:	sub    BYTE PTR [eax+eax*1],ch
  402264:	add    BYTE PTR [edx],cl
  402266:	adc    eax,DWORD PTR ds:0x6f090511
  40226c:	sub    eax,0xd00a0000
  402271:	add    al,BYTE PTR [eax]
  402273:	add    BYTE PTR [edx],al
  402275:	sub    BYTE PTR [esi],ch
  402277:	add    BYTE PTR [eax],al
  402279:	or     ch,BYTE PTR [edi+0x2f]
  40227c:	add    BYTE PTR [eax],al
  40227e:	or     ch,BYTE PTR [edi+0x30]
  402281:	add    BYTE PTR [eax],al
  402283:	or     dh,BYTE PTR [edx+eax*1+0x0]
  402287:	add    BYTE PTR [edx],al
  402289:	add    ch,BYTE PTR [edi+0x9]
  40228c:	add    BYTE PTR [eax],al
  40228e:	push   es
  40228f:	fimul  WORD PTR [eax]
  402291:	adc    DWORD PTR ds:0x3128,eax
  402297:	or     bl,ah
  402299:	fisub  WORD PTR [ecx]
  40229b:	adc    eax,DWORD PTR [esi]
  40229d:	push   es
  40229e:	jnp    0x4022ab
  4022a0:	add    BYTE PTR [eax],al
  4022a2:	add    al,0x2d
  4022a4:	or     DWORD PTR [ecx],edx
  4022a6:	push   es
  4022a7:	sub    BYTE PTR [eax+eax*1],al
  4022aa:	add    BYTE PTR [esi],al
  4022ac:	sub    eax,DWORD PTR [edi]
  4022ae:	adc    DWORD PTR [esi],eax
  4022b0:	outs   dx,DWORD PTR ds:[esi]
  4022b1:	xor    al,BYTE PTR [eax]
  4022b3:	add    BYTE PTR [edx],cl
  4022b5:	sub    BYTE PTR [eax],cl
  4022b7:	add    BYTE PTR [eax],al
  4022b9:	push   es
  4022ba:	fiadd  WORD PTR [eax]
  4022bc:	sub    al,BYTE PTR [eax]
  4022be:	add    BYTE PTR [eax],al
  4022c0:	add    DWORD PTR [eax+eax*1],ebx
  4022c3:	add    BYTE PTR [edx],al
  4022c5:	add    BYTE PTR [eax+0xe12900],bh
  4022cb:	or     BYTE PTR [eax],al
  4022cd:	add    BYTE PTR [eax],al
  4022cf:	add    BYTE PTR [eax],al
  4022d1:	add    BYTE PTR [eax+eax*1],cl
  4022d4:	fucomip st,st(3)
  4022d6:	add    BYTE PTR [ecx],ah
  4022d8:	or     eax,DWORD PTR [eax]
  4022da:	add    BYTE PTR [ecx],al
  4022dc:	adc    esi,DWORD PTR [eax]
  4022de:	add    eax,DWORD PTR [eax]
  4022e0:	mov    ds:0x2000001,al
  4022e5:	add    BYTE PTR [eax],al
  4022e7:	adc    DWORD PTR [edx],eax
  4022e9:	outs   dx,DWORD PTR ds:[esi]
  4022ea:	xor    eax,DWORD PTR [eax]
  4022ec:	add    BYTE PTR [edx],cl
  4022ee:	outs   dx,DWORD PTR ds:[esi]
  4022ef:	xor    al,0x0
  4022f1:	add    BYTE PTR [edx],cl
  4022f3:	or     ch,BYTE PTR [eax]
  4022f5:	xor    eax,0xb0a0000
  4022fa:	add    eax,DWORD PTR [esi]
  4022fc:	outs   dx,DWORD PTR ds:[esi]
  4022fd:	add    BYTE PTR ss:[eax],al
  402300:	or     ah,BYTE PTR [esi]
  402302:	add    eax,DWORD PTR [edi]
  402304:	outs   dx,DWORD PTR ds:[esi]
  402305:	add    BYTE PTR ss:[eax],al
  402308:	or     ah,BYTE PTR [esi]
  40230a:	add    ebx,DWORD PTR [edi]
  40230c:	sub    eax,0x376f06
  402311:	add    BYTE PTR [edx],cl
  402313:	jae    0x40234d
  402315:	add    BYTE PTR [eax],al
  402317:	or     ch,BYTE PTR [edi+0x36]
  40231a:	add    BYTE PTR [eax],al
  40231c:	or     ah,BYTE PTR [esi]
  40231e:	add    eax,DWORD PTR [edi]
  402320:	outs   dx,DWORD PTR ds:[esi]
  402321:	add    BYTE PTR ss:[eax],al
  402324:	or     ah,BYTE PTR [esi]
  402326:	add    eax,DWORD PTR [edx]
  402328:	outs   dx,DWORD PTR ds:[esi]
  402329:	cmp    DWORD PTR [eax],eax
  40232b:	add    BYTE PTR [edx],cl
  40232d:	outs   dx,DWORD PTR ds:[esi]
  40232e:	add    BYTE PTR ss:[eax],al
  402331:	or     ah,BYTE PTR [esi]
  402333:	add    eax,DWORD PTR [edi]
  402335:	outs   dx,DWORD PTR ds:[esi]
  402336:	add    BYTE PTR ss:[eax],al
  402339:	or     ah,BYTE PTR [esi]
  40233b:	add    dh,BYTE PTR [ebp+0x51]
  40233e:	add    BYTE PTR [eax],al
  402340:	add    DWORD PTR [eax+ecx*1],ecx
  402343:	cmp    DWORD PTR [ecx],edi
  402345:	add    DWORD PTR [eax],eax
  402347:	add    BYTE PTR [ebx],al
  402349:	pop    es
  40234a:	outs   dx,DWORD PTR ds:[esi]
  40234b:	add    BYTE PTR ss:[eax],al
  40234e:	or     ah,BYTE PTR [esi]
  402350:	add    esi,DWORD PTR [edx+0xb]
  402353:	add    BYTE PTR [eax],al
  402355:	jo     0x40237f
  402357:	pop    ebp
  402358:	add    BYTE PTR [eax],al
  40235a:	push   es
  40235b:	outs   dx,DWORD PTR ds:[esi]
  40235c:	add    BYTE PTR ss:[eax],al
  40235f:	or     ah,BYTE PTR [esi]
  402361:	add    eax,DWORD PTR [edi]
  402363:	outs   dx,DWORD PTR ds:[esi]
  402364:	add    BYTE PTR ss:[eax],al
  402367:	or     ah,BYTE PTR [esi]
  402369:	or     BYTE PTR [edi+0x3a],ch
  40236c:	add    BYTE PTR [eax],al
  40236e:	or     ch,BYTE PTR [esi+edi*1]
  402371:	add    eax,DWORD PTR [edi]
  402373:	outs   dx,DWORD PTR ds:[esi]
  402374:	add    BYTE PTR ss:[eax],al
  402377:	or     ah,BYTE PTR [esi]
  402379:	add    esi,DWORD PTR [edx+0x35]
  40237c:	add    BYTE PTR [eax],al
  40237e:	jo     0x4023ef
  402380:	add    BYTE PTR ss:[eax],al
  402383:	or     ah,BYTE PTR [esi]
  402385:	add    eax,DWORD PTR [edi]
  402387:	outs   dx,DWORD PTR ds:[esi]
  402388:	add    BYTE PTR ss:[eax],al
  40238b:	or     ah,BYTE PTR [esi]
  40238d:	add    eax,DWORD PTR [edi]
  40238f:	outs   dx,DWORD PTR ds:[esi]
  402390:	add    BYTE PTR ss:[eax],al
  402393:	or     ah,BYTE PTR [esi]
  402395:	add    ecx,DWORD PTR [eax]
  402397:	outs   dx,DWORD PTR ds:[esi]
  402398:	cmp    al,BYTE PTR [eax]
  40239a:	add    BYTE PTR [edx],cl
  40239c:	outs   dx,DWORD PTR ds:[esi]
  40239d:	xor    al,BYTE PTR [eax]
  40239f:	add    BYTE PTR [edx],cl
  4023a1:	outs   dx,DWORD PTR ds:[esi]
  4023a2:	add    BYTE PTR ss:[eax],al
  4023a5:	or     ah,BYTE PTR [esi]
  4023a7:	add    eax,DWORD PTR [edi]
  4023a9:	outs   dx,DWORD PTR ds:[esi]
  4023aa:	add    BYTE PTR ss:[eax],al
  4023ad:	or     ah,BYTE PTR [esi]
  4023af:	or     BYTE PTR [edi+0x3b],ch
  4023b2:	add    BYTE PTR [eax],al
  4023b4:	or     ch,BYTE PTR [esi+edi*1]
  4023b7:	add    eax,DWORD PTR [edi]
  4023b9:	outs   dx,DWORD PTR ds:[esi]
  4023ba:	add    BYTE PTR ss:[eax],al
  4023bd:	or     ah,BYTE PTR [esi]
  4023bf:	add    esi,DWORD PTR [edx+0x69]
  4023c2:	add    BYTE PTR [eax],al
  4023c4:	jo     0x402435
  4023c6:	add    BYTE PTR ss:[eax],al
  4023c9:	or     ah,BYTE PTR [esi]
  4023cb:	add    eax,DWORD PTR [edi]
  4023cd:	outs   dx,DWORD PTR ds:[esi]
  4023ce:	add    BYTE PTR ss:[eax],al
  4023d1:	or     ah,BYTE PTR [esi]
  4023d3:	add    eax,DWORD PTR [edi]
  4023d5:	outs   dx,DWORD PTR ds:[esi]
  4023d6:	add    BYTE PTR ss:[eax],al
  4023d9:	or     ah,BYTE PTR [esi]
  4023db:	add    ecx,DWORD PTR [eax]
  4023dd:	outs   dx,DWORD PTR ds:[esi]
  4023de:	cmp    eax,DWORD PTR [eax]
  4023e0:	add    BYTE PTR [edx],cl
  4023e2:	outs   dx,DWORD PTR ds:[esi]
  4023e3:	xor    al,BYTE PTR [eax]
  4023e5:	add    BYTE PTR [edx],cl
  4023e7:	outs   dx,DWORD PTR ds:[esi]
  4023e8:	add    BYTE PTR ss:[eax],al
  4023eb:	or     ah,BYTE PTR [esi]
  4023ed:	add    eax,DWORD PTR [edi]
  4023ef:	outs   dx,DWORD PTR ds:[esi]
  4023f0:	add    BYTE PTR ss:[eax],al
  4023f3:	or     ah,BYTE PTR [esi]
  4023f5:	or     BYTE PTR [edi+0x3c],ch
  4023f8:	add    BYTE PTR [eax],al
  4023fa:	or     ch,BYTE PTR [eax]
  4023fc:	cmp    eax,0x2d0a0000
  402401:	cmp    DWORD PTR [ebx],eax
  402403:	pop    es
  402404:	outs   dx,DWORD PTR ds:[esi]
  402405:	add    BYTE PTR ss:[eax],al
  402408:	or     ah,BYTE PTR [esi]
  40240a:	add    esi,DWORD PTR [edx+0x7b]
  40240d:	add    BYTE PTR [eax],al
  40240f:	jo     0x402480
  402411:	add    BYTE PTR ss:[eax],al
  402414:	or     ah,BYTE PTR [esi]
  402416:	add    eax,DWORD PTR [edi]
  402418:	outs   dx,DWORD PTR ds:[esi]
  402419:	add    BYTE PTR ss:[eax],al
  40241c:	or     ah,BYTE PTR [esi]
  40241e:	add    eax,DWORD PTR [edi]
  402420:	outs   dx,DWORD PTR ds:[esi]
  402421:	add    BYTE PTR ss:[eax],al
  402424:	or     ah,BYTE PTR [esi]
  402426:	add    ecx,DWORD PTR [eax]
  402428:	outs   dx,DWORD PTR ds:[esi]
  402429:	cmp    al,0x0
  40242b:	add    BYTE PTR [edx],cl
  40242d:	outs   dx,DWORD PTR ds:[esi]
  40242e:	add    BYTE PTR ss:[eax],al
  402431:	or     ah,BYTE PTR [esi]
  402433:	add    eax,DWORD PTR [edi]
  402435:	outs   dx,DWORD PTR ds:[esi]
  402436:	add    BYTE PTR ss:[eax],al
  402439:	or     ah,BYTE PTR [esi]
  40243b:	or     BYTE PTR [edi+0x3e],ch
  40243e:	add    BYTE PTR [eax],al
  402440:	or     ch,BYTE PTR [esi+edi*1]
  402443:	add    eax,DWORD PTR [edi]
  402445:	outs   dx,DWORD PTR ds:[esi]
  402446:	add    BYTE PTR ss:[eax],al
  402449:	or     ah,BYTE PTR [esi]
  40244b:	add    esi,DWORD PTR [edx-0x6f]
  40244e:	add    BYTE PTR [eax],al
  402450:	jo     0x4024c1
  402452:	add    BYTE PTR ss:[eax],al
  402455:	or     ah,BYTE PTR [esi]
  402457:	add    eax,DWORD PTR [edi]
  402459:	outs   dx,DWORD PTR ds:[esi]
  40245a:	add    BYTE PTR ss:[eax],al
  40245d:	or     ah,BYTE PTR [esi]
  40245f:	add    eax,DWORD PTR [edi]
  402461:	outs   dx,DWORD PTR ds:[esi]
  402462:	add    BYTE PTR ss:[eax],al
  402465:	or     ah,BYTE PTR [esi]
  402467:	add    ecx,DWORD PTR [eax]
  402469:	outs   dx,DWORD PTR ds:[esi]
  40246a:	add    BYTE PTR ds:[eax],al
  40246d:	or     ch,BYTE PTR [edi+0x32]
  402470:	add    BYTE PTR [eax],al
  402472:	or     ch,BYTE PTR [edi+0x36]
  402475:	add    BYTE PTR [eax],al
  402477:	or     ah,BYTE PTR [esi]
  402479:	add    eax,DWORD PTR [edi]
  40247b:	outs   dx,DWORD PTR ds:[esi]
  40247c:	add    BYTE PTR ss:[eax],al
  40247f:	or     ah,BYTE PTR [esi]
  402481:	add    eax,DWORD PTR [edi]
  402483:	outs   dx,DWORD PTR ds:[esi]
  402484:	add    BYTE PTR ss:[eax],al
  402487:	or     ah,BYTE PTR [esi]
  402489:	sub    al,BYTE PTR [eax]
  40248b:	add    BYTE PTR [ebx],dl
  40248d:	xor    BYTE PTR [edx],al
  40248f:	add    BYTE PTR [edi],bl
  402491:	add    BYTE PTR [eax],al
  402493:	add    BYTE PTR [ebx],al
  402495:	add    BYTE PTR [eax],al
  402497:	adc    DWORD PTR [ebx+0x3f],esi
  40249a:	add    BYTE PTR [eax],al
  40249c:	or     cl,BYTE PTR [edx]
  40249e:	add    al,BYTE PTR [esi]
  4024a0:	sub    BYTE PTR [ebx],al
  4024a2:	add    BYTE PTR [eax],al
  4024a4:	push   es
  4024a5:	add    ch,BYTE PTR [edi+0x40]
  4024a8:	add    BYTE PTR [eax],al
  4024aa:	or     dl,BYTE PTR [eax]
  4024ac:	add    BYTE PTR [edx],al
  4024ae:	sub    eax,0x326f06ee
  4024b3:	add    BYTE PTR [eax],al
  4024b5:	or     ch,BYTE PTR [edx]
  4024b7:	add    BYTE PTR [ebx],dl
  4024b9:	xor    BYTE PTR [ebx],al
  4024bb:	add    BYTE PTR [esi],ah
  4024bd:	add    BYTE PTR [eax],al
  4024bf:	add    BYTE PTR [eax+eax*1],al
  4024c2:	add    BYTE PTR [ecx],dl
  4024c4:	add    ch,BYTE PTR [edi+0x41]
  4024c7:	add    BYTE PTR [eax],al
  4024c9:	or     cl,BYTE PTR [edx]
  4024cb:	push   es
  4024cc:	outs   dx,DWORD PTR ds:[esi]
  4024cd:	inc    edx
  4024ce:	add    BYTE PTR [eax],al
  4024d0:	or     cl,BYTE PTR [ebx]
  4024d2:	pop    es
  4024d3:	jae    0x402518
  4024d5:	add    BYTE PTR [eax],al
  4024d7:	or     al,BYTE PTR [esi]
  4024d9:	outs   dx,DWORD PTR ds:[esi]
  4024da:	inc    esp
  4024db:	add    BYTE PTR [eax],al
  4024dd:	or     al,BYTE PTR [esi]
  4024df:	outs   dx,DWORD PTR ds:[esi]
  4024e0:	inc    ebp
  4024e1:	add    BYTE PTR [eax],al
  4024e3:	or     dh,BYTE PTR [ebx+0x46]
  4024e6:	add    BYTE PTR [eax],al
  4024e8:	or     ch,BYTE PTR [edx]
  4024ea:	add    BYTE PTR [eax],al
  4024ec:	adc    esi,DWORD PTR [eax]
  4024ee:	add    eax,DWORD PTR [eax]
  4024f0:	iret   
  4024f1:	add    BYTE PTR [eax],al
  4024f3:	add    BYTE PTR ds:0x73110000,al
  4024f9:	inc    edi
  4024fa:	add    BYTE PTR [eax],al
  4024fc:	or     dl,BYTE PTR [edx+eax*1]
  4024ff:	outs   dx,DWORD PTR ds:[esi]
  402500:	dec    eax
  402501:	add    BYTE PTR [eax],al
  402503:	or     cl,BYTE PTR [edx]
  402505:	jae    0x402550
  402507:	add    BYTE PTR [eax],al
  402509:	or     cl,BYTE PTR [ebx]
  40250b:	push   es
  40250c:	outs   dx,DWORD PTR ds:[esi]
  40250d:	dec    edx
  40250e:	add    BYTE PTR [eax],al
  402510:	or     ch,BYTE PTR [eax]
  402512:	dec    ebx
  402513:	add    BYTE PTR [eax],al
  402515:	or     cl,BYTE PTR [edi+eax*1]
  402518:	or     BYTE PTR [edi+0x1],ch
  40251b:	add    BYTE PTR [eax],al
  40251d:	sub    eax,DWORD PTR [esi]
  40251f:	outs   dx,DWORD PTR ds:[esi]
  402520:	dec    ebp
  402521:	add    BYTE PTR [eax],al
  402523:	or     ch,BYTE PTR [ecx+ebx*1]
  402526:	push   es
  402527:	outs   dx,DWORD PTR ds:[esi]
  402528:	dec    esi
  402529:	add    BYTE PTR [eax],al
  40252b:	or     ch,BYTE PTR ds:0x6f060711
  402531:	dec    edx
  402532:	add    BYTE PTR [eax],al
  402534:	or     ch,BYTE PTR [eax]
  402536:	dec    edi
  402537:	add    BYTE PTR [eax],al
  402539:	or     ch,BYTE PTR [edi+0x2]
  40253c:	add    BYTE PTR [eax],al
  40253e:	sub    eax,DWORD PTR [edi]
  402540:	sub    BYTE PTR [eax+0x0],dl
  402543:	add    BYTE PTR [edx],cl
  402545:	or     eax,0x516f09
  40254a:	add    BYTE PTR [edx],cl
  40254c:	sub    eax,0x4e6f0677
  402551:	add    BYTE PTR [eax],al
  402553:	or     ch,BYTE PTR [edi+ebp*2]
  402556:	push   es
  402557:	outs   dx,DWORD PTR ds:[esi]
  402558:	push   edx
  402559:	add    BYTE PTR [eax],al
  40255b:	or     ch,BYTE PTR [eax]
  40255d:	sub    al,BYTE PTR [eax]
  40255f:	add    BYTE PTR [edx],cl
  402561:	adc    eax,DWORD PTR [esi+eax*1]
  402564:	outs   dx,DWORD PTR ds:[esi]
  402565:	push   ebx
  402566:	add    BYTE PTR [eax],al
  402568:	or     ch,BYTE PTR [ebx+ecx*2]
  40256b:	push   es
  40256c:	pop    ds
  40256d:	or     eax,0x546f19
  402572:	add    BYTE PTR [edx],cl
  402574:	adc    eax,DWORD PTR ds:0x6061316
  40257a:	outs   dx,DWORD PTR ds:[esi]
  40257b:	push   ebp
  40257c:	add    BYTE PTR [eax],al
  40257e:	or     cl,BYTE PTR [esi+0x2b071369]
  402584:	sbb    BYTE PTR [ecx],dl
  402586:	add    eax,0x556f06
  40258b:	add    BYTE PTR [edx],cl
  40258d:	adc    DWORD PTR [esi],eax
  40258f:	call   0x130a:0x5628
  402596:	add    eax,0x58170611
  40259b:	adc    eax,DWORD PTR [esi]
  40259d:	adc    DWORD PTR [esi],eax
  40259f:	sbb    BYTE PTR [edi],ch
  4025a1:	push   es
  4025a2:	adc    DWORD PTR [esi],eax
  4025a4:	adc    DWORD PTR [edi],eax
  4025a6:	xor    bl,ch
  4025a8:	adc    DWORD PTR ds:0x5773,eax
  4025ae:	or     ch,BYTE PTR [eax]
  4025b0:	push   edx
  4025b1:	add    BYTE PTR [eax],al
  4025b3:	or     dl,BYTE PTR [ebx]
  4025b5:	add    al,0x9
  4025b7:	pop    ss
  4025b8:	adc    DWORD PTR [ebx+esi*2],eax
  4025bb:	pop    eax
  4025bc:	add    BYTE PTR [eax],al
  4025be:	or     ch,BYTE PTR [edi+0x59]
  4025c1:	add    BYTE PTR [eax],al
  4025c3:	or     ah,BYTE PTR [esi]
  4025c5:	or     DWORD PTR [edx],ebp
  4025c7:	pop    edx
  4025c8:	jle    0x4025cb
  4025ca:	add    BYTE PTR [eax],al
  4025cc:	add    al,0x2
  4025ce:	outs   dx,DWORD PTR ds:[esi]
  4025cf:	pop    edx
  4025d0:	add    BYTE PTR [eax],al
  4025d2:	or     bh,BYTE PTR [esi+0x1]
  4025d5:	add    BYTE PTR [eax],al
  4025d7:	add    al,0x6f
  4025d9:	pop    ebx
  4025da:	add    BYTE PTR [eax],al
  4025dc:	or     ch,BYTE PTR [edx]
  4025de:	pop    edx
  4025df:	jle    0x4025e3
  4025e1:	add    BYTE PTR [eax],al
  4025e3:	add    al,0x2
  4025e5:	outs   dx,DWORD PTR ds:[esi]
  4025e6:	pop    edx
  4025e7:	add    BYTE PTR [eax],al
  4025e9:	or     bh,BYTE PTR [esi+0x2]
  4025ec:	add    BYTE PTR [eax],al
  4025ee:	add    al,0x6f
  4025f0:	pop    ebx
  4025f1:	add    BYTE PTR [eax],al
  4025f3:	or     ch,BYTE PTR [edx]
  4025f5:	add    BYTE PTR [eax],al
  4025f7:	add    BYTE PTR [ebx],bl
  4025f9:	xor    BYTE PTR ds:0x1cb00,al
  4025ff:	add    BYTE PTR [esi],al
  402601:	add    BYTE PTR [eax],al
  402603:	adc    DWORD PTR [eax],ebp
  402605:	add    DWORD PTR [eax],eax
  402607:	add    BYTE PTR [esi],al
  402609:	add    ebp,DWORD PTR [eax]
  40260b:	adc    al,BYTE PTR [eax]
  40260d:	add    BYTE PTR [esi],al
  40260f:	or     dh,BYTE PTR [ebx+0x47]
  402612:	add    BYTE PTR [eax],al
  402614:	or     cl,BYTE PTR [ebx]
  402616:	jae    0x402674
  402618:	add    BYTE PTR [eax],al
  40261a:	or     cl,BYTE PTR [esp+edx*1]
  40261d:	or     eax,0x5d28
  402622:	or     dl,BYTE PTR [ebx]
  402624:	add    al,0x6
  402626:	jnp    0x40262f
  402628:	add    BYTE PTR [eax],al
  40262a:	add    al,0x2c
  40262c:	sub    al,BYTE PTR [edx]
  40262e:	push   es
  40262f:	jnp    0x402638
  402631:	add    BYTE PTR [eax],al
  402633:	add    al,0x6
  402635:	jnp    0x40263f
  402637:	add    BYTE PTR [eax],al
  402639:	add    al,0x28
  40263b:	or     eax,0xd060000
  402640:	or     DWORD PTR [eax+ebp*1],edx
  402643:	pop    esi
  402644:	add    BYTE PTR [eax],al
  402646:	or     ch,BYTE PTR [eax*1+0x180dd]
  40264d:	add    BYTE PTR [eax],cl
  40264f:	or     DWORD PTR [edi+0x5f],ebp
  402652:	add    BYTE PTR [eax],al
  402654:	or     ch,BYTE PTR [ebx]
  402656:	adc    ecx,DWORD PTR [eax]
  402658:	push   es
  402659:	jnp    0x40265f
  40265b:	add    BYTE PTR [eax],al
  40265d:	add    al,0x6
  40265f:	jnp    0x40266f
  402661:	add    BYTE PTR [eax],al
  402663:	add    al,0x7
  402665:	outs   dx,DWORD PTR ds:[esi]
  402666:	pusha  
  402667:	add    BYTE PTR [eax],al
  402669:	or     dl,BYTE PTR [ecx]
  40266b:	add    al,0x6f
  40266d:	popa   
  40266e:	add    BYTE PTR [eax],al
  402670:	or     al,BYTE PTR [esi]
  402672:	jnp    0x40267e
  402674:	add    BYTE PTR [eax],al
  402676:	add    al,0x2c
  402678:	and    al,0x72
  40267a:	lods   eax,DWORD PTR ds:[esi]
  40267b:	add    BYTE PTR [eax],al
  40267d:	jo     0x402696
  40267f:	lea    eax,[edx]
  402681:	add    BYTE PTR [eax],al
  402683:	add    DWORD PTR [ebx],edx
  402685:	or     al,0x11
  402687:	or     al,0x16
  402689:	adc    DWORD PTR [eax+ebp*1],eax
  40268c:	or     al,0x0
  40268e:	add    BYTE PTR [esi],al
  402690:	mov    ds:0x5c280c11,al
  402695:	add    BYTE PTR [eax],al
  402697:	push   es
  402698:	sub    BYTE PTR [edi],al
  40269a:	add    BYTE PTR [eax],al
  40269c:	push   es
  40269d:	push   es
  40269e:	jnp    0x4026ac
  4026a0:	add    BYTE PTR [eax],al
  4026a2:	add    al,0x2c
  4026a4:	jl     0x4026af
  4026a6:	adc    al,0x28
  4026a8:	bound  eax,QWORD PTR [eax]
  4026aa:	add    BYTE PTR [edx],cl
  4026ac:	sub    al,0x73
  4026ae:	sub    BYTE PTR [ebx],cl
  4026b0:	add    BYTE PTR [eax],al
  4026b2:	push   es
  4026b3:	or     DWORD PTR [edi],ebx
  4026b5:	sub    BYTE PTR [edi+0x63],ch
  4026b8:	add    BYTE PTR [eax],al
  4026ba:	or     dl,BYTE PTR [ebx]
  4026bc:	add    eax,0x5d28
  4026c1:	or     dl,BYTE PTR [ebx]
  4026c3:	push   es
  4026c4:	adc    DWORD PTR ds:0x13160d13,eax
  4026ca:	push   cs
  4026cb:	sub    ebx,DWORD PTR [ecx]
  4026cd:	adc    DWORD PTR ds:0x139a0e11,ecx
  4026d3:	pop    es
  4026d4:	adc    DWORD PTR [edi],eax
  4026d6:	outs   dx,DWORD PTR ds:[esi]
  4026d7:	add    BYTE PTR fs:[eax],al
  4026da:	or     ch,BYTE PTR [eax]
  4026dc:	add    BYTE PTR gs:[eax],al
  4026df:	or     dl,BYTE PTR [ecx]
  4026e1:	push   cs
  4026e2:	pop    ss
  4026e3:	pop    eax
  4026e4:	adc    ecx,DWORD PTR [esi]
  4026e6:	adc    DWORD PTR [esi],ecx
  4026e8:	adc    DWORD PTR ds:0xdf32698e,ecx
  4026ee:	adc    DWORD PTR [esi],eax
  4026f0:	outs   dx,DWORD PTR ds:[esi]
  4026f1:	popa   
  4026f2:	add    BYTE PTR [eax],al
  4026f4:	or     al,BYTE PTR [esi]
  4026f6:	jnp    0x402702
  4026f8:	add    BYTE PTR [eax],al
  4026fa:	add    al,0x2c
  4026fc:	and    al,0x72
  4026fe:	mov    edi,0x17700000
  402703:	lea    eax,[edx]
  402705:	add    BYTE PTR [eax],al
  402707:	add    DWORD PTR [ebx],edx
  402709:	movups XMMWORD PTR [edi],xmm1
  40270c:	push   ss
  40270d:	adc    DWORD PTR [esi],eax
  40270f:	sub    BYTE PTR [eax+eax*1],cl
  402712:	add    BYTE PTR [esi],al
  402714:	mov    ds:0x5c280f11,al
  402719:	add    BYTE PTR [eax],al
  40271b:	push   es
  40271c:	sub    BYTE PTR [edi],al
  40271e:	add    BYTE PTR [eax],al
  402720:	push   es
  402721:	add    al,BYTE PTR [esi]
  402723:	jnp    0x40272a
  402725:	add    BYTE PTR [eax],al
  402727:	add    al,0x8
  402729:	outs   dx,DWORD PTR ds:[esi]
  40272a:	data16 add BYTE PTR [eax],al
  40272d:	or     ch,BYTE PTR [eax]
  40272f:	push   cs
  402730:	add    BYTE PTR [eax],al
  402732:	push   es
  402733:	adc    ecx,DWORD PTR [eax]
  402735:	add    al,BYTE PTR [esi]
  402737:	jnp    0x40273c
  402739:	add    BYTE PTR [eax],al
  40273b:	add    al,0x7
  40273d:	sub    BYTE PTR [edx],cl
  40273f:	add    BYTE PTR [eax],al
  402741:	push   es
  402742:	adc    ecx,DWORD PTR [ecx]
  402744:	sub    BYTE PTR [ebp+0x0],bl
  402747:	add    BYTE PTR [edx],cl
  402749:	adc    ecx,DWORD PTR [edx]
  40274b:	or     BYTE PTR [ecx],dl
  40274d:	or     DWORD PTR [esi],eax
  40274f:	jnp    0x40275e
  402751:	add    BYTE PTR [eax],al
  402753:	add    al,0x11
  402755:	or     BYTE PTR [edi],al
  402757:	outs   dx,DWORD PTR ds:[esi]
  402758:	add    BYTE PTR [bx+si],al
  40275b:	or     dl,BYTE PTR [ecx]
  40275d:	or     ch,BYTE PTR [edi+0x61]
  402760:	add    BYTE PTR [eax],al
  402762:	or     al,BYTE PTR [esi]
  402764:	jnp    0x402770
  402766:	add    BYTE PTR [eax],al
  402768:	add    al,0x2c
  40276a:	and    al,0x72
  40276c:	iret   
  40276d:	add    BYTE PTR [eax],al
  40276f:	jo     0x402788
  402771:	lea    eax,[edx]
  402773:	add    BYTE PTR [eax],al
  402775:	add    DWORD PTR [ebx],edx
  402777:	adc    BYTE PTR [ecx],dl
  402779:	adc    BYTE PTR [esi],dl
  40277b:	adc    DWORD PTR [edx],ecx
  40277d:	sub    BYTE PTR [eax+eax*1],cl
  402780:	add    BYTE PTR [esi],al
  402782:	mov    ds:0x5c281011,al
  402787:	add    BYTE PTR [eax],al
  402789:	push   es
  40278a:	sub    BYTE PTR [edi],al
  40278c:	add    BYTE PTR [eax],al
  40278e:	push   es
  40278f:	fimul  WORD PTR [ecx+edx*1]
  402792:	or     DWORD PTR [edi+eax*1],ebp
  402795:	adc    DWORD PTR [ecx],ecx
  402797:	outs   dx,DWORD PTR ds:[esi]
  402798:	push   0xdc0a0000
  40279d:	fimul  WORD PTR [ecx+edx*1]
  4027a0:	or     BYTE PTR [edi+eax*1],ch
  4027a3:	adc    DWORD PTR [eax],ecx
  4027a5:	outs   dx,DWORD PTR ds:[esi]
  4027a6:	push   0xdc0a0000
  4027ab:	fisub  WORD PTR [ecx]
  4027ad:	adc    ecx,DWORD PTR [ebx]
  4027af:	push   es
  4027b0:	jnp    0x4027bd
  4027b2:	add    BYTE PTR [eax],al
  4027b4:	add    al,0x2d
  4027b6:	or     DWORD PTR [ecx],edx
  4027b8:	or     ebp,DWORD PTR [eax]
  4027ba:	add    al,0x0
  4027bc:	add    BYTE PTR [esi],al
  4027be:	sub    eax,DWORD PTR [edi]
  4027c0:	adc    DWORD PTR [ebx],ecx
  4027c2:	outs   dx,DWORD PTR ds:[esi]
  4027c3:	xor    al,BYTE PTR [eax]
  4027c5:	add    BYTE PTR [edx],cl
  4027c7:	sub    BYTE PTR [eax],cl
  4027c9:	add    BYTE PTR [eax],al
  4027cb:	push   es
  4027cc:	fiadd  WORD PTR [eax]
  4027ce:	sub    al,BYTE PTR [eax]
  4027d0:	inc    ecx
  4027d1:	dec    esp
  4027d2:	add    BYTE PTR [eax],al
  4027d4:	add    al,BYTE PTR [eax]
  4027d6:	add    BYTE PTR [eax],al
  4027d8:	inc    eax
  4027d9:	add    DWORD PTR [eax],eax
  4027db:	add    BYTE PTR [ebp+0x0],cl
  4027de:	add    BYTE PTR [eax],al
  4027e0:	lea    eax,[ecx]
  4027e2:	add    BYTE PTR [eax],al
  4027e4:	or     al,0x0
  4027e6:	add    BYTE PTR [eax],al
  4027e8:	add    BYTE PTR [eax],al
  4027ea:	add    BYTE PTR [eax],al
  4027ec:	add    al,BYTE PTR [eax]
  4027ee:	add    BYTE PTR [eax],al
  4027f0:	xor    DWORD PTR [ecx],eax
  4027f2:	add    BYTE PTR [eax],al
  4027f4:	push   0x0
  4027f6:	add    BYTE PTR [eax],al
  4027f8:	fwait
  4027f9:	add    DWORD PTR [eax],eax
  4027fb:	add    BYTE PTR [eax+eax*1],cl
	...
  402806:	add    BYTE PTR [eax],al
  402808:	or     al,0x0
  40280a:	add    BYTE PTR [eax],al
  40280c:	popf   
  40280d:	add    DWORD PTR [eax],eax
  40280f:	add    BYTE PTR [ecx+0x21000001],ch
  402815:	add    BYTE PTR [eax],al
  402817:	add    BYTE PTR [ebx],cl
  402819:	add    BYTE PTR [eax],al
  40281b:	add    DWORD PTR [ebx],edx
  40281d:	xor    BYTE PTR [eax+eax*1],al
  402820:	push   ebp
  402821:	add    BYTE PTR [eax],al
  402823:	add    BYTE PTR [edi],al
  402825:	add    BYTE PTR [eax],al
  402827:	adc    DWORD PTR [edi],edx
  402829:	jae    0x402843
  40282b:	add    BYTE PTR [eax],al
  40282d:	or     ch,BYTE PTR [eax]
  40282f:	sbb    DWORD PTR [eax],eax
  402831:	add    BYTE PTR [edx],cl
  402833:	add    al,0x14
  402835:	add    ebp,DWORD PTR [edi+0x48]
  402838:	add    BYTE PTR [eax],al
  40283a:	or     cl,BYTE PTR [edx]
  40283c:	jae    0x4028a7
  40283e:	add    BYTE PTR [eax],al
  402840:	or     cl,BYTE PTR [ebx]
  402842:	pop    es
  402843:	add    al,0x6f
  402845:	push   0x0
  402847:	add    BYTE PTR [edx],cl
  402849:	pop    es
  40284a:	sbb    BYTE PTR [edi+0x6b],ch
  40284d:	add    BYTE PTR [eax],al
  40284f:	or     al,BYTE PTR [edi]
  402851:	pop    ss
  402852:	outs   dx,DWORD PTR ds:[esi]
  402853:	ins    BYTE PTR es:[edi],dx
  402854:	add    BYTE PTR [eax],al
  402856:	or     al,BYTE PTR [esi+eax*1]
  402859:	adc    al,0xd0
  40285b:	add    al,0x0
  40285d:	add    BYTE PTR [ecx],al
  40285f:	sub    BYTE PTR [esi],ch
  402861:	add    BYTE PTR [eax],al
  402863:	or     ch,BYTE PTR [edi+0x6d]
  402866:	add    BYTE PTR [eax],al
  402868:	or     dh,BYTE PTR [esp+eax*1+0x0]
  40286c:	add    BYTE PTR [ecx],al
  40286e:	or     al,0x8
  402870:	pop    es
  402871:	push   es
  402872:	outs   dx,DWORD PTR ds:[esi]
  402873:	xor    al,BYTE PTR [eax]
  402875:	add    BYTE PTR [edx],cl
  402877:	sub    BYTE PTR [esi+0x0],ch
  40287a:	add    BYTE PTR [edx],cl
  40287c:	sub    al,BYTE PTR [eax]
  40287e:	add    BYTE PTR [eax],al
  402880:	sbb    esi,DWORD PTR [eax]
  402882:	add    al,0x0
  402884:	int    0x0
  402886:	add    BYTE PTR [eax],al
  402888:	or     BYTE PTR [eax],al
  40288a:	add    BYTE PTR [ecx],dl
  40288c:	jb     0x402879
  40288e:	add    BYTE PTR [eax],al
  402890:	jo     0x4028ba
  402892:	outs   dx,DWORD PTR ds:[esi]
  402893:	add    BYTE PTR [eax],al
  402895:	or     ah,BYTE PTR [esi]
  402897:	jb     0x402821
  402899:	add    DWORD PTR [eax],eax
  40289b:	jo     0x4028c5
  40289d:	outs   dx,DWORD PTR ds:[esi]
  40289e:	add    BYTE PTR [eax],al
  4028a0:	or     ah,BYTE PTR [esi]
  4028a2:	push   ss
  4028a3:	or     dl,BYTE PTR [esi]
  4028a5:	or     ebp,DWORD PTR [eax]
  4028a7:	jo     0x4028a9
  4028a9:	add    BYTE PTR [edx],cl
  4028ab:	outs   dx,DWORD PTR ds:[esi]
  4028ac:	jno    0x4028ae
  4028ae:	add    BYTE PTR [edx],cl
  4028b0:	outs   dx,DWORD PTR ds:[esi]
  4028b1:	jb     0x4028b3
  4028b3:	add    BYTE PTR [edx],cl
  4028b5:	or     eax,0x6f09382b
  4028ba:	jae    0x4028bc
  4028bc:	add    BYTE PTR [edx],cl
  4028be:	je     0x40292b
  4028c0:	add    BYTE PTR [eax],al
  4028c2:	add    DWORD PTR [eax+ecx*1],ecx
  4028c5:	outs   dx,DWORD PTR ds:[esi]
  4028c6:	je     0x4028c8
  4028c8:	add    BYTE PTR [edx],cl
  4028ca:	jb     0x402901
  4028cc:	add    al,BYTE PTR [eax]
  4028ce:	jo     0x4028eb
  4028d0:	outs   dx,DWORD PTR ds:[esi]
  4028d1:	jne    0x4028d3
  4028d3:	add    BYTE PTR [edx],cl
  4028d5:	sub    al,0x4
  4028d7:	pop    ss
  4028d8:	or     ch,BYTE PTR [ebx]
  4028da:	adc    eax,0x746f08
  4028df:	add    BYTE PTR [edx],cl
  4028e1:	jb     0x40293c
  4028e3:	add    al,BYTE PTR [eax]
  4028e5:	jo     0x402902
  4028e7:	outs   dx,DWORD PTR ds:[esi]
  4028e8:	jne    0x4028ea
  4028ea:	add    BYTE PTR [edx],cl
  4028ec:	sub    al,0x2
  4028ee:	pop    ss
  4028ef:	or     ecx,DWORD PTR [ecx]
  4028f1:	outs   dx,DWORD PTR ds:[esi]
  4028f2:	jbe    0x4028f4
  4028f4:	add    BYTE PTR [edx],cl
  4028f6:	sub    eax,0x914dec0
  4028fb:	jne    0x402962
  4028fd:	add    BYTE PTR [eax],al
  4028ff:	add    DWORD PTR [ebx],edx
  402901:	add    al,0x11
  402903:	add    al,0x2c
  402905:	pop    es
  402906:	adc    DWORD PTR [edi+ebp*2],eax
  402909:	push   0xdc0a0000
  40290e:	push   es
  40290f:	sub    eax,0x28d7222
  402914:	add    BYTE PTR [eax+0x17],dh
  402917:	lea    eax,[edx]
  402919:	add    BYTE PTR [eax],al
  40291b:	add    DWORD PTR [ebx],edx
  40291d:	add    eax,0x72160511
  402922:	fwait
  402923:	add    al,BYTE PTR [eax]
  402925:	jo     0x4028c9
  402927:	adc    DWORD PTR ds:0x5c28,eax
  40292d:	push   es
  40292e:	sub    BYTE PTR [edi],al
  402930:	add    BYTE PTR [eax],al
  402932:	push   es
  402933:	pop    es
  402934:	sub    eax,0x28d7222
  402939:	add    BYTE PTR [eax+0x17],dh
  40293c:	lea    eax,[edx]
  40293e:	add    BYTE PTR [eax],al
  402940:	add    DWORD PTR [ebx],edx
  402942:	push   es
  402943:	adc    DWORD PTR [esi],eax
  402945:	push   ss
  402946:	jb     0x4028f9
  402948:	add    al,BYTE PTR [eax]
  40294a:	jo     0x4028ee
  40294c:	adc    DWORD PTR [esi],eax
  40294e:	sub    BYTE PTR [eax+eax*1+0x0],bl
  402952:	push   es
  402953:	sub    BYTE PTR [edi],al
  402955:	add    BYTE PTR [eax],al
  402957:	push   es
  402958:	sub    al,BYTE PTR [eax]
  40295a:	add    BYTE PTR [eax],al
  40295c:	add    DWORD PTR [eax],edx
  40295e:	add    BYTE PTR [eax],al
  402960:	add    al,BYTE PTR [eax]
  402962:	sub    al,BYTE PTR [eax]
  402964:	inc    esp
  402965:	outs   dx,BYTE PTR ds:[esi]
  402966:	add    BYTE PTR [eax+eax*1],dl
  402969:	add    BYTE PTR [eax],al
  40296b:	add    BYTE PTR [ebx],dl
  40296d:	xor    BYTE PTR [eax+eax*1],al
  402970:	dec    esi
  402971:	add    BYTE PTR [eax],al
  402973:	add    BYTE PTR [ecx],cl
  402975:	add    BYTE PTR [eax],al
  402977:	adc    DWORD PTR [ecx],ebx
  402979:	or     al,BYTE PTR [edx]
  40297b:	outs   dx,DWORD PTR ds:[esi]
  40297c:	ja     0x40297e
  40297e:	add    BYTE PTR [edx],cl
  402980:	adc    eax,DWORD PTR [edx+edx*1]
  402983:	add    al,0x28
  402985:	js     0x402987
  402987:	add    BYTE PTR [edx],cl
  402989:	or     eax,DWORD PTR [edi]
  40298b:	or     al,0x2b
  40298d:	adc    BYTE PTR [esi],al
  40298f:	pop    ss
  402990:	pop    ecx
  402991:	or     cl,BYTE PTR [eax]
  402993:	and    eax,DWORD PTR [eax]
  402995:	add    BYTE PTR [eax],al
  402997:	add    BYTE PTR [eax],al
  402999:	add    BYTE PTR [eax+eax*2],ah
  40299c:	pop    ebx
  40299d:	or     al,0x6
  40299f:	push   ss
  4029a0:	xor    DWORD PTR [eax+ecx*1],ecx
  4029a3:	and    eax,DWORD PTR [eax]
  4029a5:	add    BYTE PTR [eax],al
  4029a7:	add    BYTE PTR [eax],al
  4029a9:	add    BYTE PTR [eax+eax*2],ah
  4029ac:	das    
  4029ad:	loopne 0x402a21
  4029af:	xlat   BYTE PTR ds:[ebx]
  4029b0:	add    al,BYTE PTR [eax]
  4029b2:	jo     0x4029ca
  4029b4:	sbb    BYTE PTR [esi],al
  4029b6:	pop    eax
  4029b7:	outs   dx,DWORD PTR ds:[esi]
  4029b8:	jns    0x4029ba
  4029ba:	add    BYTE PTR [edx],cl
  4029bc:	or     eax,0x28090112
  4029c1:	jp     0x4029c3
  4029c3:	add    BYTE PTR [edx],cl
  4029c5:	sub    al,BYTE PTR [eax]
  4029c7:	add    BYTE PTR [ebx],bl
  4029c9:	xor    BYTE PTR [eax+eax*1],al
  4029cc:	jecxz  0x4029ce
  4029ce:	add    BYTE PTR [eax],al
  4029d0:	or     al,BYTE PTR [eax]
  4029d2:	add    BYTE PTR [ecx],dl
  4029d4:	pop    ss
  4029d5:	jae    0x4029ef
  4029d7:	add    BYTE PTR [eax],al
  4029d9:	or     ch,BYTE PTR [eax]
  4029db:	sbb    DWORD PTR [eax],eax
  4029dd:	add    BYTE PTR [edx],cl
  4029df:	jae    0x402a5c
  4029e1:	add    BYTE PTR [eax],al
  4029e3:	or     cl,BYTE PTR [edx]
  4029e5:	push   es
  4029e6:	add    ebp,DWORD PTR [edi+0x7c]
  4029e9:	add    BYTE PTR [eax],al
  4029eb:	or     al,BYTE PTR [esi]
  4029ed:	sub    BYTE PTR [ebp+0x0],bh
  4029f0:	add    BYTE PTR [edx],cl
  4029f2:	or     eax,DWORD PTR [esp+ebp*1]
  4029f5:	or     BYTE PTR [edi],al
  4029f7:	add    al,0x6f
  4029f9:	jle    0x4029fb
  4029fb:	add    BYTE PTR [edx],cl
  4029fd:	sub    dh,BYTE PTR [ebx+0x7f]
  402a00:	add    BYTE PTR [eax],al
  402a02:	or     cl,BYTE PTR [edi+eax*1]
  402a05:	outs   dx,DWORD PTR ds:[esi]
  402a06:	add    BYTE PTR [eax],0x0
  402a09:	or     dl,BYTE PTR [ebx]
  402a0b:	add    eax,0x2b061316
  402a10:	adc    DWORD PTR es:0xd9a0611,eax
  402a17:	or     DWORD PTR [edi+0x34],ebp
  402a1a:	add    BYTE PTR [eax],al
  402a1c:	or     dh,BYTE PTR [edx-0x1d]
  402a1f:	add    al,BYTE PTR [eax]
  402a21:	jo     0x402a3b
  402a23:	outs   dx,DWORD PTR ds:[esi]
  402a24:	add    DWORD PTR [eax],0x72d0a00
  402a2a:	or     BYTE PTR [ecx],cl
  402a2c:	outs   dx,DWORD PTR ds:[esi]
  402a2d:	add    BYTE PTR [eax],0x0
  402a30:	or     dl,BYTE PTR [ecx]
  402a32:	push   es
  402a33:	pop    ss
  402a34:	pop    eax
  402a35:	adc    eax,DWORD PTR [esi]
  402a37:	adc    DWORD PTR [esi],eax
  402a39:	adc    DWORD PTR ds:0xd232698e,eax
  402a3f:	or     BYTE PTR [edi-0x7d],ch
  402a42:	add    BYTE PTR [eax],al
  402a44:	or     dl,BYTE PTR [edi]
  402a46:	xor    ecx,DWORD PTR [eax]
  402a48:	or     BYTE PTR [esi],dl
  402a4a:	outs   dx,DWORD PTR ds:[esi]
  402a4b:	test   BYTE PTR [eax],al
  402a4d:	add    BYTE PTR [edx],cl
  402a4f:	sub    dh,BYTE PTR [edx-0x19]
  402a52:	add    al,BYTE PTR [eax]
  402a54:	jo     0x402a6d
  402a56:	lea    eax,[edx]
  402a58:	add    BYTE PTR [eax],al
  402a5a:	add    DWORD PTR [ebx],edx
  402a5c:	pop    es
  402a5d:	adc    DWORD PTR [edi],eax
  402a5f:	push   ss
  402a60:	add    esp,DWORD PTR [edx+0x5c280711]
  402a66:	add    BYTE PTR [eax],al
  402a68:	push   es
  402a69:	sub    BYTE PTR [eax],cl
  402a6b:	add    BYTE PTR [eax],al
  402a6d:	push   es
  402a6e:	or     BYTE PTR [edi-0x7b],ch
  402a71:	add    BYTE PTR [eax],al
  402a73:	or     dl,BYTE PTR [ebx]
  402a75:	or     BYTE PTR [ebx],ch
  402a77:	and    al,0x12
  402a79:	or     BYTE PTR [eax],ch
  402a7b:	xchg   BYTE PTR [eax],al
  402a7d:	add    BYTE PTR [edx],cl
  402a7f:	adc    eax,DWORD PTR [eax+ebp*1]
  402a82:	xchg   DWORD PTR [eax],eax
  402a84:	add    BYTE PTR [edx],cl
  402a86:	jb     0x402a89
  402a88:	add    eax,DWORD PTR [eax]
  402a8a:	jo     0x402afb
  402a8c:	mov    BYTE PTR [eax],al
  402a8e:	add    BYTE PTR [edx],cl
  402a90:	adc    DWORD PTR [edi+ebp*2],eax
  402a93:	xor    al,0x0
  402a95:	add    BYTE PTR [edx],cl
  402a97:	sub    BYTE PTR [eax],cl
  402a99:	add    BYTE PTR [eax],al
  402a9b:	push   es
  402a9c:	adc    cl,BYTE PTR [eax]
  402a9e:	sub    BYTE PTR [ecx+0x2d0a0000],cl
  402aa4:	rcr    esi,cl
  402aa6:	push   cs
  402aa7:	adc    cl,BYTE PTR [eax]
  402aa9:	(bad)  
  402aaa:	push   ss
  402aab:	add    al,BYTE PTR [eax]
  402aad:	add    BYTE PTR [ebx],bl
  402aaf:	outs   dx,DWORD PTR ds:[esi]
  402ab0:	push   0xdc0a0000
  402ab5:	adc    al,0x2a
  402ab7:	add    BYTE PTR [ecx],al
  402ab9:	adc    BYTE PTR [eax],al
  402abb:	add    BYTE PTR [edx],al
  402abd:	add    BYTE PTR [edx+0xd33100],ah
  402ac3:	push   cs
  402ac4:	add    BYTE PTR [eax],al
  402ac6:	add    BYTE PTR [eax],al
  402ac8:	adc    esi,DWORD PTR [eax]
  402aca:	add    al,BYTE PTR [eax]
  402acc:	pop    ebx
  402acd:	add    BYTE PTR [eax],al
  402acf:	add    BYTE PTR [ebx],cl
  402ad1:	add    BYTE PTR [eax],al
  402ad3:	adc    DWORD PTR [ebx],eax
  402ad5:	sub    BYTE PTR ds:0x2c0a0000,bh
  402adb:	or     al,0x28
  402add:	mov    al,BYTE PTR [eax]
  402adf:	add    BYTE PTR [edx],cl
  402ae1:	add    al,0x28
  402ae3:	mov    eax,DWORD PTR [eax]
  402ae5:	add    BYTE PTR [edx],cl
  402ae7:	sub    dl,BYTE PTR [edi]
  402ae9:	or     al,BYTE PTR [ebx]
  402aeb:	or     al,0x16
  402aed:	or     eax,0x908182b
  402af2:	outs   dx,DWORD PTR ds:[esi]
  402af3:	mov    WORD PTR [eax],es
  402af5:	add    BYTE PTR [edx],cl
  402af7:	or     eax,DWORD PTR [edi]
  402af9:	pop    ds
  402afa:	xor    BYTE PTR [edx],dh
  402afc:	add    eax,0x2f07391f
  402b01:	add    dl,BYTE PTR [esi]
  402b03:	or     cl,BYTE PTR [ecx]
  402b05:	pop    ss
  402b06:	pop    eax
  402b07:	or     eax,0x376f0809
  402b0c:	add    BYTE PTR [eax],al
  402b0e:	or     dh,BYTE PTR [edx]
  402b10:	fild   WORD PTR [esi]
  402b12:	sub    al,0x13
  402b14:	pop    ss
  402b15:	jae    0x402b2f
  402b17:	add    BYTE PTR [eax],al
  402b19:	or     ch,BYTE PTR [eax]
  402b1b:	sbb    DWORD PTR [eax],eax
  402b1d:	add    BYTE PTR [edx],cl
  402b1f:	add    eax,DWORD PTR [ebx+esi*2]
  402b22:	sbb    al,BYTE PTR [eax]
  402b24:	add    BYTE PTR [esi],al
  402b26:	sub    al,BYTE PTR [ebx]
  402b28:	add    al,0x28
  402b2a:	lea    eax,[eax]
  402b2c:	add    BYTE PTR [edx],cl
  402b2e:	sub    al,BYTE PTR [eax]
  402b30:	adc    esi,DWORD PTR [eax]
  402b32:	add    eax,DWORD PTR [eax]
  402b34:	daa    
  402b35:	add    BYTE PTR [eax],al
  402b37:	add    BYTE PTR [eax+eax*1],cl
  402b3a:	add    BYTE PTR [ecx],dl
  402b3c:	jb     0x402b45
  402b3e:	add    eax,DWORD PTR [eax]
  402b40:	jo     0x402b6a
  402b42:	pop    ebp
  402b43:	add    BYTE PTR [eax],al
  402b45:	push   es
  402b46:	jb     0x402b5b
  402b48:	add    eax,DWORD PTR [eax]
  402b4a:	jo     0x402b74
  402b4c:	xor    eax,0x6f0a0000
  402b51:	mov    es,WORD PTR [eax]
  402b53:	add    BYTE PTR [edx],cl
  402b55:	or     al,BYTE PTR [esi]
  402b57:	sub    BYTE PTR [eax],cl
  402b59:	add    BYTE PTR [eax],al
  402b5b:	push   es
  402b5c:	pop    ss
  402b5d:	sub    BYTE PTR [edi+0x2a0a0000],cl
  402b63:	add    BYTE PTR [ebx],dl
  402b65:	xor    BYTE PTR [eax+eax*1],al
  402b68:	and    al,BYTE PTR [eax]
  402b6a:	add    BYTE PTR [eax],al
  402b6c:	or     eax,0x72110000
  402b71:	sbb    DWORD PTR [ebx],eax
  402b73:	add    BYTE PTR [eax+0x17],dh
  402b76:	lea    eax,[edx]
  402b78:	add    BYTE PTR [eax],al
  402b7a:	add    DWORD PTR [edx],ecx
  402b7c:	push   es
  402b7d:	push   ss
  402b7e:	add    ah,BYTE PTR [edx+0x5c2806]
  402b84:	add    BYTE PTR [esi],al
  402b86:	sub    BYTE PTR [eax],cl
  402b88:	add    BYTE PTR [eax],al
  402b8a:	push   es
  402b8b:	pop    ss
  402b8c:	sub    BYTE PTR [edi+0x2a0a0000],cl
  402b92:	add    BYTE PTR [eax],al
  402b94:	adc    esi,DWORD PTR [eax]
  402b96:	add    al,BYTE PTR [eax]
  402b98:	cmp    eax,0xe000000
  402b9d:	add    BYTE PTR [eax],al
  402b9f:	adc    DWORD PTR [edx+ecx*1],edx
  402ba2:	push   ss
  402ba3:	or     ebp,DWORD PTR [ebx]
  402ba5:	das    
  402ba6:	add    al,BYTE PTR [edi]
  402ba8:	call   0x0:0x376f080c
  402baf:	or     ch,BYTE PTR [edi+ebx*1]
  402bb2:	or     BYTE PTR [esi],dl
  402bb4:	outs   dx,DWORD PTR ds:[esi]
  402bb5:	mov    WORD PTR [eax],es
  402bb7:	add    BYTE PTR [edx],cl
  402bb9:	pop    ds
  402bba:	sub    eax,0x1608142e
  402bbf:	outs   dx,DWORD PTR ds:[esi]
  402bc0:	mov    WORD PTR [eax],es
  402bc2:	add    BYTE PTR [edx],cl
  402bc4:	pop    ds
  402bc5:	das    
  402bc6:	or     DWORD PTR cs:[esi],eax
  402bc9:	sub    eax,0x2b0a0804
  402bce:	add    cl,BYTE PTR [eax]
  402bd0:	sub    al,BYTE PTR [edi]
  402bd2:	pop    ss
  402bd3:	pop    eax
  402bd4:	or     eax,DWORD PTR [edi]
  402bd6:	add    cl,BYTE PTR [esi+0x14cb3269]
  402bdc:	sub    al,BYTE PTR [eax]
  402bde:	add    BYTE PTR [eax],al
  402be0:	sbb    esi,DWORD PTR [eax]
  402be2:	add    al,0x0
  402be4:	in     eax,dx
  402be5:	add    al,BYTE PTR [eax]
  402be7:	add    BYTE PTR [edi],cl
  402be9:	add    BYTE PTR [eax],al
  402beb:	adc    DWORD PTR [ebx+0x19],esi
  402bee:	add    BYTE PTR [eax],al
  402bf0:	push   es
  402bf1:	or     dl,BYTE PTR [ebx+ecx*1]
  402bf4:	push   ss
  402bf5:	or     al,0x38
  402bf7:	lods   al,BYTE PTR ds:[esi]
  402bf8:	add    al,BYTE PTR [eax]
  402bfa:	add    BYTE PTR [edx],al
  402bfc:	or     BYTE PTR [edx+0x376f090d],bl
  402c02:	add    BYTE PTR [eax],al
  402c04:	or     bh,BYTE PTR [ecx]
  402c06:	cdq    
  402c07:	add    al,BYTE PTR [eax]
  402c09:	add    BYTE PTR [ecx],cl
  402c0b:	push   ss
  402c0c:	outs   dx,DWORD PTR ds:[esi]
  402c0d:	mov    WORD PTR [eax],es
  402c0f:	add    BYTE PTR [edx],cl
  402c11:	pop    ds
  402c12:	sub    eax,0x16090e2e
  402c17:	outs   dx,DWORD PTR ds:[esi]
  402c18:	mov    WORD PTR [eax],es
  402c1a:	add    BYTE PTR [edx],cl
  402c1c:	pop    ds
  402c1d:	das    
  402c1e:	inc    eax
  402c1f:	pop    ecx
  402c20:	add    al,BYTE PTR [eax]
  402c22:	add    BYTE PTR [ecx],cl
  402c24:	pop    ss
  402c25:	outs   dx,DWORD PTR ds:[esi]
  402c26:	nop
  402c27:	add    BYTE PTR [eax],al
  402c29:	or     cl,BYTE PTR ds:0x33f7209
  402c2f:	add    BYTE PTR [eax+0x28],dh
  402c32:	xchg   ecx,eax
  402c33:	add    BYTE PTR [eax],al
  402c35:	or     ch,BYTE PTR ds:0x4972090d
  402c3b:	add    eax,DWORD PTR [eax]
  402c3d:	jo     0x402c67
  402c3f:	xchg   ecx,eax
  402c40:	add    BYTE PTR [eax],al
  402c42:	or     ch,BYTE PTR [edx+ecx*1]
  402c45:	sub    BYTE PTR [edi],cl
  402c47:	add    BYTE PTR [eax],al
  402c49:	push   es
  402c4a:	cmp    BYTE PTR [edx+eax*1+0x0],dl
  402c4e:	add    BYTE PTR [ecx],cl
  402c50:	jb     0x402c9f
  402c52:	add    eax,DWORD PTR [eax]
  402c54:	jo     0x402cc8
  402c56:	popa   
  402c57:	add    eax,DWORD PTR [eax]
  402c59:	jo     0x402c61
  402c5b:	jl     0x402c64
  402c5d:	add    BYTE PTR [eax],al
  402c5f:	add    al,0x28
  402c61:	adc    eax,0x3a060000
  402c66:	cmp    DWORD PTR [edx],eax
  402c68:	add    BYTE PTR [eax],al
  402c6a:	or     DWORD PTR [edx+0x67],esi
  402c6d:	add    eax,DWORD PTR [eax]
  402c6f:	jo     0x402ce3
  402c71:	jae    0x402c76
  402c73:	add    BYTE PTR [eax+0x6],dh
  402c76:	jl     0x402c80
  402c78:	add    BYTE PTR [eax],al
  402c7a:	add    al,0x28
  402c7c:	adc    eax,0x3a060000
  402c81:	push   ds
  402c82:	add    al,BYTE PTR [eax]
  402c84:	add    BYTE PTR [ecx],cl
  402c86:	jb     0x402d01
  402c88:	add    eax,DWORD PTR [eax]
  402c8a:	jo     0x402cfe
  402c8c:	mov    DWORD PTR [ebx],eax
  402c8e:	add    BYTE PTR [eax+0x6],dh
  402c91:	jl     0x402c98
  402c93:	add    BYTE PTR [eax],al
  402c95:	add    al,0x28
  402c97:	adc    eax,0x3a060000
  402c9c:	add    eax,DWORD PTR [edx]
  402c9e:	add    BYTE PTR [eax],al
  402ca0:	or     DWORD PTR [edx-0x71],esi
  402ca3:	add    eax,DWORD PTR [eax]
  402ca5:	jo     0x402d19
  402ca7:	mov    eax,ds:0x6700003
  402cac:	jl     0x402cb4
  402cae:	add    BYTE PTR [eax],al
  402cb0:	add    al,0x28
  402cb2:	adc    eax,0x3a060000
  402cb7:	call   0x9402cbd
  402cbc:	jb     0x402c65
  402cbe:	add    eax,DWORD PTR [eax]
  402cc0:	jo     0x402cc8
  402cc2:	jl     0x402ccd
  402cc4:	add    BYTE PTR [eax],al
  402cc6:	add    al,0x28
  402cc8:	push   ss
  402cc9:	add    BYTE PTR [eax],al
  402ccb:	push   es
  402ccc:	cmp    dl,dl
  402cce:	add    DWORD PTR [eax],eax
  402cd0:	add    BYTE PTR [ecx],cl
  402cd2:	jb     0x402c85
  402cd4:	add    eax,DWORD PTR [eax]
  402cd6:	jo     0x402cde
  402cd8:	jl     0x402ce4
  402cda:	add    BYTE PTR [eax],al
  402cdc:	add    al,0x28
  402cde:	push   ss
  402cdf:	add    BYTE PTR [eax],al
  402ce1:	push   es
  402ce2:	cmp    bh,BYTE PTR [ecx+eax*1+0x72090000]
  402ce9:	mov    ebx,0x6700003
  402cee:	jl     0x402cfb
  402cf0:	add    BYTE PTR [eax],al
  402cf2:	add    al,0x28
  402cf4:	push   ss
  402cf5:	add    BYTE PTR [eax],al
  402cf7:	push   es
  402cf8:	cmp    ah,BYTE PTR [esi+0x9000001]
  402cfe:	jb     0x402cc7
  402d00:	add    eax,DWORD PTR [eax]
  402d02:	jo     0x402d0a
  402d04:	jl     0x402d12
  402d06:	add    BYTE PTR [eax],al
  402d08:	add    al,0x28
  402d0a:	push   ss
  402d0b:	add    BYTE PTR [eax],al
  402d0d:	push   es
  402d0e:	cmp    dl,BYTE PTR [eax+0x9000001]
  402d14:	jb     0x402ce5
  402d16:	add    eax,DWORD PTR [eax]
  402d18:	jo     0x402d2c
  402d1a:	add    DWORD PTR [eax],ebp
  402d1c:	adc    al,0x0
  402d1e:	add    BYTE PTR [esi],al
  402d20:	cmp    DWORD PTR [ebx+0x7000000],ebx
  402d26:	sub    BYTE PTR [ebx],dl
  402d28:	add    BYTE PTR [eax],al
  402d2a:	push   es
  402d2b:	and    eax,0x82390813
  402d30:	add    BYTE PTR [eax],al
  402d32:	add    BYTE PTR [ecx],dl
  402d34:	or     BYTE PTR [edx-0x21],dh
  402d37:	add    eax,DWORD PTR [eax]
  402d39:	jo     0x402d63
  402d3b:	xchg   ecx,eax
  402d3c:	add    BYTE PTR [eax],al
  402d3e:	or     ch,BYTE PTR ds:0x7208112c
  402d44:	jmp    0x28b02d4c
  402d49:	xchg   ecx,eax
  402d4a:	add    BYTE PTR [eax],al
  402d4c:	or     ch,BYTE PTR ds:0x72081130
  402d52:	sti    
  402d53:	add    eax,DWORD PTR [eax]
  402d55:	jo     0x402d7f
  402d57:	xchg   ecx,eax
  402d58:	add    BYTE PTR [eax],al
  402d5a:	or     ch,BYTE PTR ds:0x72081134
  402d60:	or     DWORD PTR [eax+eax*1],eax
  402d63:	jo     0x402d8d
  402d65:	xchg   ecx,eax
  402d66:	add    BYTE PTR [eax],al
  402d68:	or     ch,BYTE PTR ds:0x6482b38
  402d6e:	push   ss
  402d6f:	push   ss
  402d70:	jae    0x402d04
  402d72:	add    BYTE PTR [eax],al
  402d74:	or     bh,BYTE PTR [ebp+0xe]
  402d77:	add    BYTE PTR [eax],al
  402d79:	add    al,0x38
  402d7b:	and    al,0x1
  402d7d:	add    BYTE PTR [eax],al
  402d7f:	push   es
  402d80:	push   ss
  402d81:	pop    ss
  402d82:	jae    0x402d16
  402d84:	add    BYTE PTR [eax],al
  402d86:	or     bh,BYTE PTR [ebp+0xe]
  402d89:	add    BYTE PTR [eax],al
  402d8b:	add    al,0x38
  402d8d:	adc    al,BYTE PTR [ecx]
  402d8f:	add    BYTE PTR [eax],al
  402d91:	push   es
  402d92:	pop    ss
  402d93:	push   ss
  402d94:	jae    0x402d28
  402d96:	add    BYTE PTR [eax],al
  402d98:	or     bh,BYTE PTR [ebp+0xe]
  402d9b:	add    BYTE PTR [eax],al
  402d9d:	add    al,0x38
  402d9f:	add    BYTE PTR [ecx],al
  402da1:	add    BYTE PTR [eax],al
  402da3:	push   es
  402da4:	pop    ss
  402da5:	pop    ss
  402da6:	jae    0x402d3a
  402da8:	add    BYTE PTR [eax],al
  402daa:	or     bh,BYTE PTR [ebp+0xe]
  402dad:	add    BYTE PTR [eax],al
  402daf:	add    al,0x38
  402db1:	out    dx,al
  402db2:	add    BYTE PTR [eax],al
  402db4:	add    BYTE PTR [ecx],cl
  402db6:	sub    BYTE PTR [eax],dl
  402db8:	add    BYTE PTR [eax],al
  402dba:	push   es
  402dbb:	cmp    bl,ah
  402dbd:	add    BYTE PTR [eax],al
  402dbf:	add    BYTE PTR [ecx],cl
  402dc1:	jb     0x402dd4
  402dc3:	add    al,0x0
  402dc5:	jo     0x402e39
  402dc7:	pop    ds
  402dc8:	add    al,0x0
  402dca:	jo     0x402dde
  402dcc:	add    DWORD PTR [eax],ebp
  402dce:	adc    eax,0x39060000
  402dd3:	popf   
  402dd4:	add    BYTE PTR [eax],al
  402dd6:	add    BYTE PTR [edi],al
  402dd8:	outs   dx,DWORD PTR ds:[esi]
  402dd9:	aaa    
  402dda:	add    BYTE PTR [eax],al
  402ddc:	or     ch,BYTE PTR ds:0x10280906
  402de2:	add    BYTE PTR [eax],al
  402de4:	push   es
  402de5:	jb     0x402e0c
  402de7:	add    al,0x0
  402de9:	jo     0x402dfe
  402deb:	add    al,0x72
  402ded:	and    eax,0x13700004
  402df2:	add    eax,0x8c6f1607
  402df7:	add    BYTE PTR [eax],al
  402df9:	or     bl,BYTE PTR [edi]
  402dfb:	jnp    0x402e30
  402dfd:	cmp    DWORD PTR [edi],eax
  402dff:	pop    ds
  402e00:	jge    0x402e71
  402e02:	xchg   ebx,eax
  402e03:	add    BYTE PTR [eax],al
  402e05:	or     dl,BYTE PTR [ebx]
  402e07:	push   es
  402e08:	adc    DWORD PTR [esi],eax
  402e0a:	push   ss
  402e0b:	xor    DWORD PTR [edi+eax*1],ecx
  402e0e:	outs   dx,DWORD PTR ds:[esi]
  402e0f:	aaa    
  402e10:	add    BYTE PTR [eax],al
  402e12:	or     dl,BYTE PTR [edi]
  402e14:	pop    ecx
  402e15:	adc    DWORD PTR [esi],eax
  402e17:	xor    BYTE PTR [esi],al
  402e19:	or     DWORD PTR [eax],ebp
  402e1b:	adc    BYTE PTR [eax],al
  402e1d:	add    BYTE PTR [esi],al
  402e1f:	pop    es
  402e20:	pop    ss
  402e21:	adc    DWORD PTR [esi],eax
  402e23:	pop    ss
  402e24:	pop    ecx
  402e25:	outs   dx,DWORD PTR ds:[esi]
  402e26:	jns    0x402e28
  402e28:	add    BYTE PTR [edx],cl
  402e2a:	adc    eax,DWORD PTR [edi+eax*1]
  402e2d:	adc    DWORD PTR [esi],eax
  402e2f:	pop    ss
  402e30:	pop    eax
  402e31:	outs   dx,DWORD PTR ds:[esi]
  402e32:	nop
  402e33:	add    BYTE PTR [eax],al
  402e35:	or     cl,BYTE PTR [ebx]
  402e37:	pop    es
  402e38:	pop    ds
  402e39:	cmp    eax,0x936f
  402e3e:	or     dl,BYTE PTR [ebx]
  402e40:	pop    es
  402e41:	adc    DWORD PTR [edi],eax
  402e43:	push   ss
  402e44:	xor    BYTE PTR [esi],al
  402e46:	or     DWORD PTR [eax],ebp
  402e48:	adc    BYTE PTR [eax],al
  402e4a:	add    BYTE PTR [esi],al
  402e4c:	pop    es
  402e4d:	push   ss
  402e4e:	adc    DWORD PTR [edi],eax
  402e50:	outs   dx,DWORD PTR ds:[esi]
  402e51:	jns    0x402e53
  402e53:	add    BYTE PTR [edx],cl
  402e55:	adc    eax,DWORD PTR ds:0x17071107
  402e5b:	pop    eax
  402e5c:	outs   dx,DWORD PTR ds:[esi]
  402e5d:	nop
  402e5e:	add    BYTE PTR [eax],al
  402e60:	or     cl,BYTE PTR [ebx]
  402e62:	push   es
  402e63:	jnp    0x402e72
  402e65:	add    BYTE PTR [eax],al
  402e67:	add    al,0x11
  402e69:	add    eax,0x6f070411
  402e6e:	xchg   esp,eax
  402e6f:	add    BYTE PTR [eax],al
  402e71:	or     ch,BYTE PTR [ebx]
  402e73:	das    
  402e74:	or     DWORD PTR [eax],ebp
  402e76:	adc    BYTE PTR [eax],al
  402e78:	add    BYTE PTR [esi],al
  402e7a:	sub    esp,DWORD PTR [edi]
  402e7c:	push   es
  402e7d:	jnp    0x402e82
  402e7f:	add    BYTE PTR [eax],al
  402e81:	add    al,0x2d
  402e83:	or     DWORD PTR [esi],eax
  402e85:	or     DWORD PTR [ebp+0x3],edi
  402e88:	add    BYTE PTR [eax],al
  402e8a:	add    al,0x2b
  402e8c:	push   ss
  402e8d:	push   es
  402e8e:	jnp    0x402e94
  402e90:	add    BYTE PTR [eax],al
  402e92:	add    al,0x2d
  402e94:	or     DWORD PTR [esi],eax
  402e96:	or     DWORD PTR [ebp+0x4],edi
  402e99:	add    BYTE PTR [eax],al
  402e9b:	add    al,0x2b
  402e9d:	add    eax,0xf28
  402ea2:	push   es
  402ea3:	or     BYTE PTR [edi],dl
  402ea5:	pop    eax
  402ea6:	or     al,0x8
  402ea8:	add    cl,BYTE PTR [esi-0x2b4c097]
  402eae:	(bad)  
  402eaf:	inc    DWORD PTR [esi]
  402eb1:	jnp    0x402eb6
  402eb3:	add    BYTE PTR [eax],al
  402eb5:	add    al,0x2c
  402eb7:	adc    BYTE PTR [esi],al
  402eb9:	jnp    0x402ebf
  402ebb:	add    BYTE PTR [eax],al
  402ebd:	add    al,0x2d
  402ebf:	or     eax,0x77b06
  402ec4:	add    BYTE PTR [ebp*1+0xf2805],al
  402ecb:	add    BYTE PTR [esi],al
  402ecd:	fimul  WORD PTR [eax]
  402ecf:	sub    BYTE PTR es:[edi],cl
  402ed2:	add    BYTE PTR [eax],al
  402ed4:	push   es
  402ed5:	fiadd  WORD PTR [eax]
  402ed7:	push   es
  402ed8:	sub    al,BYTE PTR [eax]
  402eda:	add    BYTE PTR [eax],al
  402edc:	inc    ecx
  402edd:	sbb    al,0x0
  402edf:	add    BYTE PTR [eax],al
  402ee1:	add    BYTE PTR [eax],al
  402ee3:	add    BYTE PTR [esi],al
  402ee5:	add    BYTE PTR [eax],al
  402ee7:	add    ch,bl
  402ee9:	add    al,BYTE PTR [eax]
  402eeb:	add    bl,ah
  402eed:	add    al,BYTE PTR [eax]
  402eef:	add    BYTE PTR [eax],cl
  402ef1:	add    BYTE PTR [eax],al
  402ef3:	add    BYTE PTR [edx],al
  402ef5:	add    BYTE PTR [eax],al
  402ef7:	add    DWORD PTR [ebx],edx
  402ef9:	xor    BYTE PTR [ebx],al
  402efb:	add    BYTE PTR [edi+0x0],al
  402efe:	add    BYTE PTR [eax],al
  402f00:	adc    BYTE PTR [eax],al
  402f02:	add    BYTE PTR [ecx],dl
  402f04:	add    ch,BYTE PTR [edi+0x37]
  402f07:	add    BYTE PTR [eax],al
  402f09:	or     dh,BYTE PTR [ebx-0x6b]
  402f0c:	add    BYTE PTR [eax],al
  402f0e:	or     cl,BYTE PTR [edx]
  402f10:	add    cl,BYTE PTR [esi+edx*1]
  402f13:	or     eax,0x908252b
  402f18:	outs   dx,DWORD PTR ds:[esi]
  402f19:	mov    WORD PTR [eax],es
  402f1b:	add    BYTE PTR [edx],cl
  402f1d:	or     eax,DWORD PTR [esi]
  402f1f:	pop    ds
  402f20:	inc    ecx
  402f21:	pop    es
  402f22:	xor    BYTE PTR ds:0x315a1f07,al
  402f28:	add    eax,DWORD PTR [edi]
  402f2a:	sub    eax,DWORD PTR ds:0x60201f07
  402f30:	shr    DWORD PTR [edi-0x6a],1
  402f33:	add    BYTE PTR [eax],al
  402f35:	or     ah,BYTE PTR [esi]
  402f37:	or     DWORD PTR [edi],edx
  402f39:	pop    eax
  402f3a:	or     eax,0x376f0809
  402f3f:	add    BYTE PTR [eax],al
  402f41:	or     dh,BYTE PTR [edx]
  402f43:	rol    BYTE PTR [esi],cl
  402f45:	outs   dx,DWORD PTR ds:[esi]
  402f46:	xor    al,BYTE PTR [eax]
  402f48:	add    BYTE PTR [edx],cl
  402f4a:	sub    al,BYTE PTR [eax]
  402f4c:	adc    esi,DWORD PTR [eax]
  402f4e:	push   es
  402f4f:	add    BYTE PTR [ecx],ah
  402f51:	add    BYTE PTR [eax],al
  402f53:	add    BYTE PTR [ecx],dl
  402f55:	add    BYTE PTR [eax],al
  402f57:	adc    DWORD PTR [ebx],eax
  402f59:	outs   dx,DWORD PTR ds:[esi]
  402f5a:	aaa    
  402f5b:	add    BYTE PTR [eax],al
  402f5d:	or     cl,BYTE PTR [edx]
  402f5f:	add    dl,BYTE PTR [esi]
  402f61:	add    edx,DWORD PTR [esi]
  402f63:	push   es
  402f64:	sbb    ebp,DWORD PTR [eax]
  402f66:	xchg   edi,eax
  402f67:	add    BYTE PTR [eax],al
  402f69:	or     ch,BYTE PTR ds:0x602040b
  402f6f:	outs   dx,DWORD PTR ds:[esi]
  402f70:	nop
  402f71:	add    BYTE PTR [eax],al
  402f73:	or     dl,BYTE PTR [ecx+0x17]
  402f76:	sub    dl,BYTE PTR [esi]
  402f78:	sub    dl,BYTE PTR [esi+0x2]
  402f7b:	add    eax,DWORD PTR ds:0x1428
  402f81:	push   es
  402f82:	sub    eax,0x5040209
  402f87:	sub    BYTE PTR [eax+eax*1],dl
  402f8a:	add    BYTE PTR [esi],al
  402f8c:	sub    dl,BYTE PTR [edi]
  402f8e:	sub    al,BYTE PTR [eax]
  402f90:	adc    esi,DWORD PTR [eax]
  402f92:	push   es
  402f93:	add    BYTE PTR [ebp+0x0],dl
  402f96:	add    BYTE PTR [eax],al
  402f98:	adc    al,BYTE PTR [eax]
  402f9a:	add    BYTE PTR [ecx],dl
  402f9c:	add    ch,BYTE PTR [edi+0x37]
  402f9f:	add    BYTE PTR [eax],al
  402fa1:	or     cl,BYTE PTR [edx]
  402fa3:	add    ebp,DWORD PTR [edi+0x37]
  402fa6:	add    BYTE PTR [eax],al
  402fa8:	or     cl,BYTE PTR [ebx]
  402faa:	push   es
  402fab:	pop    es
  402fac:	xor    ecx,DWORD PTR [esi]
  402fae:	add    al,BYTE PTR [ebx]
  402fb0:	sub    BYTE PTR [ecx+0x2c0a0000],dl
  402fb6:	add    eax,0x17521704
  402fbb:	sub    al,BYTE PTR [esi]
  402fbd:	pop    es
  402fbe:	pop    ss
  402fbf:	pop    eax
  402fc0:	xor    ebp,DWORD PTR ds:0x16031602
  402fc6:	pop    es
  402fc7:	sbb    ebp,DWORD PTR [eax]
  402fc9:	xchg   edi,eax
  402fca:	add    BYTE PTR [eax],al
  402fcc:	or     ch,BYTE PTR ds:0x6f070220
  402fd2:	mov    WORD PTR [eax],es
  402fd4:	add    BYTE PTR [edx],cl
  402fd6:	pop    ds
  402fd7:	sub    esi,DWORD PTR [ebx]
  402fd9:	add    eax,0x17521704
  402fde:	sub    al,BYTE PTR [edx]
  402fe0:	pop    es
  402fe1:	outs   dx,DWORD PTR ds:[esi]
  402fe2:	mov    WORD PTR [eax],es
  402fe4:	add    BYTE PTR [edx],cl
  402fe6:	pop    ds
  402fe7:	sub    eax,0x16040533
  402fec:	push   edx
  402fed:	pop    ss
  402fee:	sub    dl,BYTE PTR [esi]
  402ff0:	sub    dl,BYTE PTR [esi+0x2]
  402ff3:	add    eax,DWORD PTR ds:0x1628
  402ff9:	push   es
  402ffa:	sub    eax,0x5040209
  402fff:	sub    BYTE PTR [esi],dl
  403001:	add    BYTE PTR [eax],al
  403003:	push   es
  403004:	sub    dl,BYTE PTR [edi]
  403006:	sub    bl,BYTE PTR [esi]
  403008:	add    ch,BYTE PTR [eax]
  40300a:	cwde   
  40300b:	add    BYTE PTR [eax],al
  40300d:	or     ch,BYTE PTR [edx]
  40300f:	jbe    0x403013
  403011:	jae    0x402fac
  403013:	add    BYTE PTR [eax],al
  403015:	or     bh,BYTE PTR [ebp+0xd]
  403018:	add    BYTE PTR [eax],al
  40301a:	add    al,0x2
  40301c:	jae    0x402fb8
  40301e:	add    BYTE PTR [eax],al
  403020:	or     bh,BYTE PTR [ebp+0xe]
  403023:	add    BYTE PTR [eax],al
  403025:	add    al,0x2
  403027:	sub    BYTE PTR [ebx+0x2a0a0000],bl
  40302d:	add    BYTE PTR [eax],al
  40302f:	add    BYTE PTR [ebx],dl
  403031:	xor    BYTE PTR [ebx],al
  403033:	add    BYTE PTR [eax+0x0],bl
  403036:	add    BYTE PTR [eax],al
  403038:	adc    eax,DWORD PTR [eax]
  40303a:	add    BYTE PTR [ecx],dl
  40303c:	add    ch,BYTE PTR [eax]
  40303e:	pushf  
  40303f:	add    BYTE PTR [eax],al
  403041:	or     bl,BYTE PTR [eax]
  403043:	add    esi,DWORD PTR [ebx-0x63]
  403046:	add    BYTE PTR [eax],al
  403048:	or     cl,BYTE PTR [edx]
  40304a:	add    al,0x6f
  40304c:	sahf   
  40304d:	add    BYTE PTR [eax],al
  40304f:	or     bl,BYTE PTR [ecx]
  403051:	cs adc al,0x6
  403054:	add    al,0x6f
  403056:	lahf   
  403057:	add    BYTE PTR [eax],al
  403059:	or     al,BYTE PTR [edi+ebp*2]
  40305c:	sahf   
  40305d:	add    BYTE PTR [eax],al
  40305f:	or     ch,BYTE PTR [eax]
  403061:	sbb    al,0x0
  403063:	add    BYTE PTR [esi],al
  403065:	sub    edx,DWORD PTR [eax]
  403067:	add    al,BYTE PTR [esi]
  403069:	jae    0x4030ad
  40306b:	add    BYTE PTR [eax],al
  40306d:	push   es
  40306e:	and    eax,0x107d0b
  403073:	add    BYTE PTR [edi+eax*1],al
  403076:	or     al,BYTE PTR [edi+ebp*2]
  403079:	mov    al,ds:0x100a0000
  40307e:	add    al,BYTE PTR [edi+edx*1]
  403081:	outs   dx,DWORD PTR ds:[esi]
  403082:	mov    eax,ds:0x20a0000
  403087:	push   es
  403088:	add    al,0x28
  40308a:	mov    ds:0x7d0a0000,al
  40308f:	sldt   WORD PTR [eax]
  403092:	add    al,0x2a
  403094:	add    esi,DWORD PTR [eax]
  403096:	add    eax,DWORD PTR [eax]
  403098:	push   esp
  403099:	add    BYTE PTR [eax],al
  40309b:	add    BYTE PTR [eax],al
  40309d:	add    BYTE PTR [eax],al
  40309f:	add    BYTE PTR [edx],al
  4030a1:	jnp    0x4030b3
  4030a3:	add    BYTE PTR [eax],al
  4030a5:	add    al,0x2c
  4030a7:	dec    ebx
  4030a8:	add    bh,BYTE PTR [ebx+0xf]
  4030ab:	add    BYTE PTR [eax],al
  4030ad:	add    al,0x6f
  4030af:	mov    ds:0x6f0a0000,eax
  4030b4:	sahf   
  4030b5:	add    BYTE PTR [eax],al
  4030b7:	or     bl,BYTE PTR [ecx]
  4030b9:	cmp    BYTE PTR cs:[edx],al
  4030bc:	jnp    0x4030ce
  4030be:	add    BYTE PTR [eax],al
  4030c0:	add    al,0x6f
  4030c2:	inc    esi
  4030c3:	add    BYTE PTR [eax],al
  4030c5:	push   es
  4030c6:	add    ch,BYTE PTR [edi-0x5d]
  4030c9:	add    BYTE PTR [eax],al
  4030cb:	or     ch,BYTE PTR [edi-0x61]
  4030ce:	add    BYTE PTR [eax],al
  4030d0:	or     al,BYTE PTR [edx]
  4030d2:	outs   dx,DWORD PTR ds:[esi]
  4030d3:	mov    ds:0x6f0a0000,eax
  4030d8:	sahf   
  4030d9:	add    BYTE PTR [eax],al
  4030db:	or     ch,BYTE PTR [eax]
  4030dd:	sbb    al,0x0
  4030df:	add    BYTE PTR [esi],al
  4030e1:	add    bh,BYTE PTR [ebx+0x10]
  4030e4:	add    BYTE PTR [eax],al
  4030e6:	add    al,0x6f
  4030e8:	inc    edi
  4030e9:	add    BYTE PTR [eax],al
  4030eb:	push   es
  4030ec:	add    dl,BYTE PTR [edi*2+0x4000010]
  4030f3:	sub    dl,BYTE PTR [ebx]
  4030f5:	xor    BYTE PTR [edx],al
  4030f7:	add    BYTE PTR [ecx],ah
  4030f9:	add    BYTE PTR [eax],al
  4030fb:	add    BYTE PTR [eax+eax*1],dl
  4030fe:	add    BYTE PTR [ecx],dl
  403100:	add    dh,BYTE PTR [ebx-0x5c]
  403103:	add    BYTE PTR [eax],al
  403105:	or     cl,BYTE PTR [edx]
  403107:	push   es
  403108:	add    ebp,DWORD PTR [edi-0x5b]
  40310b:	add    BYTE PTR [eax],al
  40310d:	or     ch,BYTE PTR [edi-0x5a]
  403110:	add    BYTE PTR [eax],al
  403112:	or     al,BYTE PTR [esi]
  403114:	add    al,0x6f
  403116:	cmps   DWORD PTR ds:[esi],DWORD PTR es:[edi]
  403117:	add    BYTE PTR [eax],al
  403119:	or     al,BYTE PTR [esi]
  40311b:	outs   dx,DWORD PTR ds:[esi]
  40311c:	test   al,0x0
  40311e:	add    BYTE PTR [edx],cl
  403120:	sub    dh,BYTE PTR [edx]
  403122:	add    bh,BYTE PTR [ebx+0xf]
  403125:	add    BYTE PTR [eax],al
  403127:	add    al,0x6f
  403129:	mov    ds:0x2a0a0000,eax
  40312e:	add    BYTE PTR [eax],al
  403130:	add    esi,DWORD PTR [eax]
  403132:	add    eax,DWORD PTR [eax]
  403134:	inc    edx
  403135:	add    BYTE PTR [eax],al
  403137:	add    BYTE PTR [eax],al
  403139:	add    BYTE PTR [eax],al
  40313b:	add    BYTE PTR [edx],al
  40313d:	jnp    0x40314f
  40313f:	add    BYTE PTR [eax],al
  403141:	add    al,0x2c
  403143:	add    bh,BYTE PTR cs:[ebx+0x10]
  403147:	add    BYTE PTR [eax],al
  403149:	add    al,0x6f
  40314b:	inc    esi
  40314c:	add    BYTE PTR [eax],al
  40314e:	push   es
  40314f:	add    ch,BYTE PTR [edi-0x5d]
  403152:	add    BYTE PTR [eax],al
  403154:	or     ch,BYTE PTR [edi-0x61]
  403157:	add    BYTE PTR [eax],al
  403159:	or     dl,BYTE PTR [esi]
  40315b:	sub    BYTE PTR [eax+eax*1],bl
  40315e:	add    BYTE PTR [esi],al
  403160:	add    bh,BYTE PTR [ebx+0x10]
  403163:	add    BYTE PTR [eax],al
  403165:	add    al,0x6f
  403167:	inc    edi
  403168:	add    BYTE PTR [eax],al
  40316a:	push   es
  40316b:	add    dl,BYTE PTR [edi*2+0x4000010]
  403172:	add    bh,BYTE PTR [ebx+0xf]
  403175:	add    BYTE PTR [eax],al
  403177:	add    al,0x6f
  403179:	test   eax,0x2a0a0000
  40317e:	mov    edx,0xf7b02
  403183:	add    BYTE PTR [ebx+eax*1],al
  403186:	add    al,0x5
  403188:	outs   dx,DWORD PTR ds:[esi]
  403189:	stos   BYTE PTR es:[edi],al
  40318a:	add    BYTE PTR [eax],al
  40318c:	or     al,BYTE PTR [edx]
  40318e:	sub    BYTE PTR [ebx],bl
  403190:	add    BYTE PTR [eax],al
  403192:	push   es
  403193:	add    ch,BYTE PTR [edi-0x5d]
  403196:	add    BYTE PTR [eax],al
  403198:	or     ch,BYTE PTR [edi-0x62]
  40319b:	add    BYTE PTR [eax],al
  40319d:	or     dl,BYTE PTR [edi]
  40319f:	or     eax,DWORD PTR cs:[edx]
  4031a2:	jnp    0x4031b3
  4031a4:	add    BYTE PTR [eax],al
  4031a6:	add    al,0x6f
  4031a8:	stos   DWORD PTR es:[edi],eax
  4031a9:	add    BYTE PTR [eax],al
  4031ab:	or     ch,BYTE PTR [edx]
  4031ad:	mov    ds:0xf7b02,al
  4031b2:	add    BYTE PTR [ebx+eax*1],al
  4031b5:	add    al,0x5
  4031b7:	outs   dx,DWORD PTR ds:[esi]
  4031b8:	lods   al,BYTE PTR ds:[esi]
  4031b9:	add    BYTE PTR [eax],al
  4031bb:	or     al,BYTE PTR [edx]
  4031bd:	outs   dx,DWORD PTR ds:[esi]
  4031be:	mov    ds:0x6f0a0000,eax
  4031c3:	sahf   
  4031c4:	add    BYTE PTR [eax],al
  4031c6:	or     dl,BYTE PTR [edi]
  4031c8:	or     eax,DWORD PTR cs:[edx]
  4031cb:	jnp    0x4031dc
  4031cd:	add    BYTE PTR [eax],al
  4031cf:	add    al,0x6f
  4031d1:	stos   DWORD PTR es:[edi],eax
  4031d2:	add    BYTE PTR [eax],al
  4031d4:	or     ch,BYTE PTR [edx]
  4031d6:	pop    esi
  4031d7:	add    bh,BYTE PTR [ebx+0xf]
  4031da:	add    BYTE PTR [eax],al
  4031dc:	add    al,0x6f
  4031de:	lods   eax,DWORD PTR ds:[esi]
  4031df:	add    BYTE PTR [eax],al
  4031e1:	or     al,BYTE PTR [edx]
  4031e3:	jnp    0x4031f4
  4031e5:	add    BYTE PTR [eax],al
  4031e7:	add    al,0x6f
  4031e9:	stos   DWORD PTR es:[edi],eax
  4031ea:	add    BYTE PTR [eax],al
  4031ec:	or     ch,BYTE PTR [edx]
  4031ee:	bound  eax,QWORD PTR [edx]
  4031f0:	jnp    0x403201
  4031f2:	add    BYTE PTR [eax],al
  4031f4:	add    al,0x3
  4031f6:	outs   dx,DWORD PTR ds:[esi]
  4031f7:	scas   al,BYTE PTR es:[edi]
  4031f8:	add    BYTE PTR [eax],al
  4031fa:	or     al,BYTE PTR [edx]
  4031fc:	jnp    0x40320d
  4031fe:	add    BYTE PTR [eax],al
  403200:	add    al,0x6f
  403202:	stos   DWORD PTR es:[edi],eax
  403203:	add    BYTE PTR [eax],al
  403205:	or     ch,BYTE PTR [edx]
  403207:	data16 add bh,BYTE PTR [ebx+0xf]
  40320b:	add    BYTE PTR [eax],al
  40320d:	add    al,0x3
  40320f:	add    al,0x6f
  403211:	scas   eax,DWORD PTR es:[edi]
  403212:	add    BYTE PTR [eax],al
  403214:	or     al,BYTE PTR [edx]
  403216:	jnp    0x403227
  403218:	add    BYTE PTR [eax],al
  40321a:	add    al,0x6f
  40321c:	stos   DWORD PTR es:[edi],eax
  40321d:	add    BYTE PTR [eax],al
  40321f:	or     ch,BYTE PTR [edx]
  403221:	jp     0x403225
  403223:	jnp    0x403234
  403225:	add    BYTE PTR [eax],al
  403227:	add    al,0x3
  403229:	outs   dx,DWORD PTR ds:[esi]
  40322a:	mov    al,0x0
  40322c:	add    BYTE PTR [edx],cl
  40322e:	add    ch,BYTE PTR [eax]
  403230:	sbb    eax,DWORD PTR [eax]
  403232:	add    BYTE PTR [esi],al
  403234:	add    bh,BYTE PTR [ebx+0xf]
  403237:	add    BYTE PTR [eax],al
  403239:	add    al,0x6f
  40323b:	stos   DWORD PTR es:[edi],eax
  40323c:	add    BYTE PTR [eax],al
  40323e:	or     ch,BYTE PTR [edx]
  403240:	jp     0x403244
  403242:	jnp    0x403253
  403244:	add    BYTE PTR [eax],al
  403246:	add    al,0x3
  403248:	outs   dx,DWORD PTR ds:[esi]
  403249:	mov    cl,0x0
  40324b:	add    BYTE PTR [edx],cl
  40324d:	add    ch,BYTE PTR [eax]
  40324f:	sbb    eax,DWORD PTR [eax]
  403251:	add    BYTE PTR [esi],al
  403253:	add    bh,BYTE PTR [ebx+0xf]
  403256:	add    BYTE PTR [eax],al
  403258:	add    al,0x6f
  40325a:	stos   DWORD PTR es:[edi],eax
  40325b:	add    BYTE PTR [eax],al
  40325d:	or     ch,BYTE PTR [edx]
  40325f:	xor    al,BYTE PTR [edx]
  403261:	jnp    0x403272
  403263:	add    BYTE PTR [eax],al
  403265:	add    al,0x6f
  403267:	stos   DWORD PTR es:[edi],eax
  403268:	add    BYTE PTR [eax],al
  40326a:	or     ch,BYTE PTR [edx]
  40326c:	dec    esi
  40326d:	add    bh,BYTE PTR [ebx+0xf]
  403270:	add    BYTE PTR [eax],al
  403272:	add    al,0x3
  403274:	outs   dx,DWORD PTR ds:[esi]
  403275:	mov    dl,0x0
  403277:	add    BYTE PTR [edx],cl
  403279:	add    ch,BYTE PTR [eax]
  40327b:	sbb    eax,DWORD PTR [eax]
  40327d:	add    BYTE PTR [esi],al
  40327f:	sub    cl,BYTE PTR [esi+0x2]
  403282:	jnp    0x403293
  403284:	add    BYTE PTR [eax],al
  403286:	add    al,0x3
  403288:	outs   dx,DWORD PTR ds:[esi]
  403289:	mov    bl,0x0
  40328b:	add    BYTE PTR [edx],cl
  40328d:	add    ch,BYTE PTR [eax]
  40328f:	sbb    eax,DWORD PTR [eax]
  403291:	add    BYTE PTR [esi],al
  403293:	sub    cl,BYTE PTR [esi+0x2]
  403296:	jnp    0x4032a7
  403298:	add    BYTE PTR [eax],al
  40329a:	add    al,0x3
  40329c:	outs   dx,DWORD PTR ds:[esi]
  40329d:	mov    ah,0x0
  40329f:	add    BYTE PTR [edx],cl
  4032a1:	add    ch,BYTE PTR [eax]
  4032a3:	sbb    eax,DWORD PTR [eax]
  4032a5:	add    BYTE PTR [esi],al
  4032a7:	sub    cl,BYTE PTR [esi+0x2]
  4032aa:	jnp    0x4032bb
  4032ac:	add    BYTE PTR [eax],al
  4032ae:	add    al,0x3
  4032b0:	outs   dx,DWORD PTR ds:[esi]
  4032b1:	mov    ch,0x0
  4032b3:	add    BYTE PTR [edx],cl
  4032b5:	add    ch,BYTE PTR [eax]
  4032b7:	sbb    eax,DWORD PTR [eax]
  4032b9:	add    BYTE PTR [esi],al
  4032bb:	sub    cl,BYTE PTR [esi+0x2]
  4032be:	jnp    0x4032cf
  4032c0:	add    BYTE PTR [eax],al
  4032c2:	add    al,0x3
  4032c4:	outs   dx,DWORD PTR ds:[esi]
  4032c5:	mov    dh,0x0
  4032c7:	add    BYTE PTR [edx],cl
  4032c9:	add    ch,BYTE PTR [eax]
  4032cb:	sbb    eax,DWORD PTR [eax]
  4032cd:	add    BYTE PTR [esi],al
  4032cf:	sub    cl,BYTE PTR [esi+0x2]
  4032d2:	jnp    0x4032e3
  4032d4:	add    BYTE PTR [eax],al
  4032d6:	add    al,0x3
  4032d8:	outs   dx,DWORD PTR ds:[esi]
  4032d9:	mov    bh,0x0
  4032db:	add    BYTE PTR [edx],cl
  4032dd:	add    ch,BYTE PTR [eax]
  4032df:	sbb    eax,DWORD PTR [eax]
  4032e1:	add    BYTE PTR [esi],al
  4032e3:	sub    cl,BYTE PTR [esi+0x2]
  4032e6:	jnp    0x4032f7
  4032e8:	add    BYTE PTR [eax],al
  4032ea:	add    al,0x3
  4032ec:	outs   dx,DWORD PTR ds:[esi]
  4032ed:	mov    eax,0x20a0000
  4032f2:	sub    BYTE PTR [ebx],bl
  4032f4:	add    BYTE PTR [eax],al
  4032f6:	push   es
  4032f7:	sub    cl,BYTE PTR [esi+0x2]
  4032fa:	jnp    0x40330b
  4032fc:	add    BYTE PTR [eax],al
  4032fe:	add    al,0x3
  403300:	outs   dx,DWORD PTR ds:[esi]
  403301:	mov    ecx,0x20a0000
  403306:	sub    BYTE PTR [ebx],bl
  403308:	add    BYTE PTR [eax],al
  40330a:	push   es
  40330b:	sub    cl,BYTE PTR [esi+0x2]
  40330e:	jnp    0x40331f
  403310:	add    BYTE PTR [eax],al
  403312:	add    al,0x3
  403314:	outs   dx,DWORD PTR ds:[esi]
  403315:	mov    edx,0x20a0000
  40331a:	sub    BYTE PTR [ebx],bl
  40331c:	add    BYTE PTR [eax],al
  40331e:	push   es
  40331f:	sub    bl,BYTE PTR [esi+0x2]
  403322:	jnp    0x403333
  403324:	add    BYTE PTR [eax],al
  403326:	add    al,0x6f
  403328:	mov    ebx,0x20a0000
  40332d:	jnp    0x40333e
  40332f:	add    BYTE PTR [eax],al
  403331:	add    al,0x6f
  403333:	stos   DWORD PTR es:[edi],eax
  403334:	add    BYTE PTR [eax],al
  403336:	or     ch,BYTE PTR [edx]
  403338:	pop    esi
  403339:	add    bh,BYTE PTR [ebx+0xf]
  40333c:	add    BYTE PTR [eax],al
  40333e:	add    al,0x6f
  403340:	mov    esp,0x20a0000
  403345:	jnp    0x403356
  403347:	add    BYTE PTR [eax],al
  403349:	add    al,0x6f
  40334b:	stos   DWORD PTR es:[edi],eax
  40334c:	add    BYTE PTR [eax],al
  40334e:	or     ch,BYTE PTR [edx]
  403350:	xor    al,BYTE PTR [edx]
  403352:	jnp    0x403363
  403354:	add    BYTE PTR [eax],al
  403356:	add    al,0x6f
  403358:	mov    ebp,0x2a0a0000
  40335d:	sbb    dh,BYTE PTR [ebx-0x42]
  403360:	add    BYTE PTR [eax],al
  403362:	or     bh,BYTE PTR [edx+0x1a]
  403365:	jae    0x403325
  403367:	add    BYTE PTR [eax],al
  403369:	or     bh,BYTE PTR [edx+0x1a]
  40336c:	jae    0x40332c
  40336e:	add    BYTE PTR [eax],al
  403370:	or     bh,BYTE PTR [edx+0x1a]
  403373:	jae    0x403333
  403375:	add    BYTE PTR [eax],al
  403377:	or     bh,BYTE PTR [edx+0x1a]
  40337a:	jae    0x40333a
  40337c:	add    BYTE PTR [eax],al
  40337e:	or     bh,BYTE PTR [edx+0x1a]
  403381:	jae    0x403341
  403383:	add    BYTE PTR [eax],al
  403385:	or     bh,BYTE PTR [edx+0x1a]
  403388:	jae    0x403348
  40338a:	add    BYTE PTR [eax],al
  40338c:	or     bh,BYTE PTR [edx+0x1a]
  40338f:	jae    0x40334f
  403391:	add    BYTE PTR [eax],al
  403393:	or     bh,BYTE PTR [edx+0x1a]
  403396:	jae    0x403356
  403398:	add    BYTE PTR [eax],al
  40339a:	or     bh,BYTE PTR [edx+0x1a]
  40339d:	jae    0x40335d
  40339f:	add    BYTE PTR [eax],al
  4033a1:	or     bh,BYTE PTR [edx+0x1a]
  4033a4:	jae    0x403364
  4033a6:	add    BYTE PTR [eax],al
  4033a8:	or     bh,BYTE PTR [edx+0x1a]
  4033ab:	jae    0x40336b
  4033ad:	add    BYTE PTR [eax],al
  4033af:	or     bh,BYTE PTR [edx+0x1a]
  4033b2:	jae    0x403372
  4033b4:	add    BYTE PTR [eax],al
  4033b6:	or     bh,BYTE PTR [edx+0x1a]
  4033b9:	jae    0x403379
  4033bb:	add    BYTE PTR [eax],al
  4033bd:	or     bh,BYTE PTR [edx+0x1a]
  4033c0:	jae    0x403380
  4033c2:	add    BYTE PTR [eax],al
  4033c4:	or     bh,BYTE PTR [edx+0x66]
  4033c7:	add    dh,BYTE PTR [ebx-0x41]
  4033ca:	add    BYTE PTR [eax],al
  4033cc:	or     bh,BYTE PTR [ebp+0x12]
  4033cf:	add    BYTE PTR [eax],al
  4033d1:	add    al,0x2
  4033d3:	sub    al,al
  4033d5:	add    BYTE PTR [eax],al
  4033d7:	or     al,BYTE PTR [edx]
  4033d9:	add    edi,DWORD PTR [ebp+0x11]
  4033dc:	add    BYTE PTR [eax],al
  4033de:	add    al,0x2a
  4033e0:	xor    al,BYTE PTR [edx]
  4033e2:	jnp    0x4033f5
  4033e4:	add    BYTE PTR [eax],al
  4033e6:	add    al,0x6f
  4033e8:	rol    DWORD PTR [eax],0x0
  4033eb:	or     ch,BYTE PTR [edx]
  4033ed:	data16 add bh,BYTE PTR [ebx+0x12]
  4033f1:	add    BYTE PTR [eax],al
  4033f3:	add    al,0x25
  4033f5:	sub    eax,0x7b022607
  4033fa:	adc    DWORD PTR [eax],eax
  4033fc:	add    BYTE PTR [ebx+eax*1],al
  4033ff:	add    al,0x5
  403401:	outs   dx,DWORD PTR ds:[esi]
  403402:	ret    0x0
  403405:	or     ch,BYTE PTR [edx]
  403407:	pop    edx
  403408:	add    bh,BYTE PTR [ebx+0x12]
  40340b:	add    BYTE PTR [eax],al
  40340d:	add    al,0x25
  40340f:	sub    eax,0x7b022607
  403414:	adc    DWORD PTR [eax],eax
  403416:	add    BYTE PTR [edi+ebp*2],al
  403419:	ret    
  40341a:	add    BYTE PTR [eax],al
  40341c:	or     ch,BYTE PTR [edx]
  40341e:	push   ds
  40341f:	add    bh,BYTE PTR [ebx+0x11]
  403422:	add    BYTE PTR [eax],al
  403424:	add    al,0x2a
  403426:	add    BYTE PTR [eax],al
  403428:	adc    esi,DWORD PTR [eax]
  40342a:	add    al,0x0
  40342c:	inc    esp
  40342d:	add    BYTE PTR [eax],al
  40342f:	add    BYTE PTR [ecx],dl
  403431:	add    BYTE PTR [eax],al
  403433:	adc    DWORD PTR [edx],eax
  403435:	jnp    0x403449
  403437:	add    BYTE PTR [eax],al
  403439:	add    al,0x2c
  40343b:	cmp    eax,DWORD PTR [edx]
  40343d:	jnp    0x403451
  40343f:	add    BYTE PTR [eax],al
  403441:	add    al,0x6f
  403443:	les    eax,FWORD PTR [eax]
  403445:	add    BYTE PTR [edx],cl
  403447:	imul   ecx,DWORD PTR [edx],0x127b02
  40344d:	add    BYTE PTR [esi+edx*1],al
  403450:	push   0x16
  403452:	outs   dx,DWORD PTR ds:[esi]
  403453:	lds    eax,FWORD PTR [eax]
  403455:	add    BYTE PTR [edx],cl
  403457:	add    bh,BYTE PTR es:[ebx+0x11]
  40345b:	add    BYTE PTR [eax],al
  40345d:	add    al,0x2
  40345f:	jnp    0x403473
  403461:	add    BYTE PTR [eax],al
  403463:	add    al,0x6f
  403465:	mov    BYTE PTR [eax],0x0
  403468:	or     dl,BYTE PTR [esi]
  40346a:	push   es
  40346b:	outs   dx,DWORD PTR ds:[esi]
  40346c:	ret    0x0
  40346f:	or     al,BYTE PTR [edx]
  403471:	adc    al,0x7d
  403473:	adc    al,BYTE PTR [eax]
  403475:	add    BYTE PTR [edx+ebp*1],al
  403478:	dec    edx
  403479:	add    ch,BYTE PTR [eax]
  40347b:	inc    edi
  40347c:	add    BYTE PTR [eax],al
  40347e:	push   es
  40347f:	add    bh,BYTE PTR [ebx+0x11]
  403482:	add    BYTE PTR [eax],al
  403484:	add    al,0x6f
  403486:	mov    DWORD PTR [eax],0x1e2a0a00
  40348c:	add    ch,BYTE PTR [edi-0x39]
  40348f:	add    BYTE PTR [eax],al
  403491:	or     ch,BYTE PTR [edx]
  403493:	or     dl,BYTE PTR [esi]
  403495:	sub    cl,BYTE PTR [edx]
  403497:	push   ss
  403498:	sub    bl,BYTE PTR [edx]
  40349a:	jae    0x403464
  40349c:	add    BYTE PTR [eax],al
  40349e:	or     bh,BYTE PTR [edx+0xa]
  4034a1:	push   ss
  4034a2:	sub    bl,BYTE PTR [edx]
  4034a4:	jae    0x40346e
  4034a6:	add    BYTE PTR [eax],al
  4034a8:	or     bh,BYTE PTR [edx+0x1a]
  4034ab:	jae    0x403475
  4034ad:	add    BYTE PTR [eax],al
  4034af:	or     bh,BYTE PTR [edx+0x1a]
  4034b2:	jae    0x40347c
  4034b4:	add    BYTE PTR [eax],al
  4034b6:	or     bh,BYTE PTR [edx+0x1a]
  4034b9:	jae    0x403483
  4034bb:	add    BYTE PTR [eax],al
  4034bd:	or     bh,BYTE PTR [edx+0x1a]
  4034c0:	jae    0x40348a
  4034c2:	add    BYTE PTR [eax],al
  4034c4:	or     bh,BYTE PTR [edx+0x22]
  4034c7:	add    al,BYTE PTR [ebx]
  4034c9:	sub    dl,cl
  4034cb:	add    BYTE PTR [eax],al
  4034cd:	or     ch,BYTE PTR [edx]
  4034cf:	sahf   
  4034d0:	add    bh,BYTE PTR [ebx+0x13]
  4034d3:	add    BYTE PTR [eax],al
  4034d5:	add    al,0x2d
  4034d7:	sbb    BYTE PTR [edx],al
  4034d9:	pop    ss
  4034da:	jge    0x4034ef
  4034dc:	add    BYTE PTR [eax],al
  4034de:	add    al,0x2
  4034e0:	add    ch,BYTE PTR [eax]
  4034e2:	retf   
  4034e3:	add    BYTE PTR [eax],al
  4034e5:	or     ch,BYTE PTR [eax]
  4034e7:	pop    ebp
  4034e8:	add    BYTE PTR [eax],al
  4034ea:	push   es
  4034eb:	sub    ah,cl
  4034ed:	add    BYTE PTR [eax],al
  4034ef:	or     al,BYTE PTR [edx]
  4034f1:	sub    bl,cl
  4034f3:	add    BYTE PTR [eax],al
  4034f5:	or     ch,BYTE PTR [edx]
  4034f7:	and    al,BYTE PTR [edx]
  4034f9:	add    ebp,DWORD PTR [eax]
  4034fb:	int    0x0
  4034fd:	add    BYTE PTR [edx],cl
  4034ff:	sub    bl,BYTE PTR [esi]
  403501:	add    ebp,DWORD PTR [eax]
  403503:	pop    ebp
  403504:	add    BYTE PTR [eax],al
  403506:	push   es
  403507:	sub    dl,BYTE PTR [ebx]
  403509:	xor    BYTE PTR [ebx],al
  40350b:	add    BYTE PTR [eax],ah
  40350d:	add    BYTE PTR [eax],al
  40350f:	add    BYTE PTR ds:0x7e110000,dl
  403515:	push   ds
  403516:	add    BYTE PTR [eax],al
  403518:	add    al,0x2d
  40351a:	adc    esi,DWORD PTR [ebx-0x65]
  40351d:	add    BYTE PTR [eax],al
  40351f:	or     cl,BYTE PTR [edx]
  403521:	jg     0x403541
  403523:	add    BYTE PTR [eax],al
  403525:	add    al,0x6
  403527:	adc    al,0x28
  403529:	into   
  40352a:	add    BYTE PTR [eax],al
  40352c:	or     ah,BYTE PTR [esi]
  40352e:	jle    0x40354e
  403530:	add    BYTE PTR [eax],al
  403532:	add    al,0x2a
  403534:	mov    al,BYTE PTR [edx]
  403536:	sub    BYTE PTR [ebx+0x20a0000],bl
  40353c:	jb     0x403565
  40353e:	add    al,0x0
  403540:	jo     0x403544
  403542:	sub    bh,cl
  403544:	add    BYTE PTR [eax],al
  403546:	or     ch,BYTE PTR [edi-0x30]
  403549:	add    BYTE PTR [eax],al
  40354b:	or     dh,BYTE PTR [ebx-0x2f]
  40354e:	add    BYTE PTR [eax],al
  403550:	or     bh,BYTE PTR [ebp+0x1d]
  403553:	add    BYTE PTR [eax],al
  403555:	add    al,0x2a
  403557:	add    BYTE PTR [ebx],bl
  403559:	xor    BYTE PTR [edx],al
  40355b:	add    BYTE PTR [edx],bh
  40355d:	add    BYTE PTR [eax],al
  40355f:	add    BYTE PTR [esi],dl
  403561:	add    BYTE PTR [eax],al
  403563:	adc    DWORD PTR [esi+0x1c],edi
  403566:	add    BYTE PTR [eax],al
  403568:	add    al,0x2d
  40356a:	sub    eax,0x57280a16
  40356f:	add    BYTE PTR [eax],al
  403571:	push   es
  403572:	and    eax,0x2800120b
  403577:	rol    BYTE PTR [eax],cl
  403579:	add    BYTE PTR [edx],cl
  40357b:	jle    0x403599
  40357d:	add    BYTE PTR [eax],al
  40357f:	add    al,0x2d
  403581:	or     dh,BYTE PTR [ebx+0x58]
  403584:	add    BYTE PTR [eax],al
  403586:	push   es
  403587:	sbb    BYTE PTR [eax+eax*1],0x0
  40358b:	add    al,0xde
  40358d:	or     al,BYTE PTR [esi]
  40358f:	sub    al,0x6
  403591:	pop    es
  403592:	sub    bl,dl
  403594:	add    BYTE PTR [eax],al
  403596:	or     bl,ah
  403598:	jle    0x4035b6
  40359a:	add    BYTE PTR [eax],al
  40359c:	add    al,0x2a
  40359e:	add    BYTE PTR [eax],al
  4035a0:	add    DWORD PTR [eax],edx
  4035a2:	add    BYTE PTR [eax],al
  4035a4:	add    al,BYTE PTR [eax]
  4035a6:	or     DWORD PTR [eax],eax
  4035a8:	and    DWORD PTR [edx],ebp
  4035aa:	add    BYTE PTR [edx],cl
  4035ac:	add    BYTE PTR [eax],al
  4035ae:	add    BYTE PTR [eax],al
  4035b0:	or     dl,BYTE PTR [edx+ebp*1]
  4035b3:	sub    BYTE PTR cs:[ecx+0x0],bl
  4035b7:	add    BYTE PTR [esi],al
  4035b9:	jnp    0x4035d8
  4035bb:	add    BYTE PTR [eax],al
  4035bd:	add    al,0x2a
  4035bf:	add    BYTE PTR [ebx],dl
  4035c1:	xor    BYTE PTR [ebx],al
  4035c3:	add    BYTE PTR ds:0x17000000,dh
  4035c9:	add    BYTE PTR [eax],al
  4035cb:	adc    DWORD PTR [eax],ebp
  4035cd:	pop    ecx
  4035ce:	add    BYTE PTR [eax],al
  4035d0:	push   es
  4035d1:	or     al,BYTE PTR [esi]
  4035d3:	sub    eax,0x62a1402
  4035d8:	jnp    0x4035f7
  4035da:	add    BYTE PTR [eax],al
  4035dc:	add    al,0x2
  4035de:	sub    BYTE PTR [edx+0x0],bl
  4035e1:	add    BYTE PTR [esi],al
  4035e3:	outs   dx,DWORD PTR ds:[esi]
  4035e4:	aam    0x0
  4035e6:	add    BYTE PTR [edx],cl
  4035e8:	or     eax,DWORD PTR [ebx]
  4035ea:	sub    al,0x13
  4035ec:	add    ecx,DWORD PTR [esi+0xd311669]
  4035f2:	sub    ch,dl
  4035f4:	add    BYTE PTR [eax],al
  4035f6:	or     al,BYTE PTR [edi]
  4035f8:	add    ebp,DWORD PTR [eax]
  4035fa:	(bad)  
  4035fb:	add    BYTE PTR [eax],al
  4035fd:	or     ch,BYTE PTR [edx]
  4035ff:	pop    es
  403600:	sub    al,BYTE PTR [eax]
  403602:	add    BYTE PTR [eax],al
  403604:	adc    esi,DWORD PTR [eax]
  403606:	add    eax,DWORD PTR [eax]
  403608:	sbb    eax,0x18000000
  40360d:	add    BYTE PTR [eax],al
  40360f:	adc    DWORD PTR [eax],ebp
  403611:	pop    ecx
  403612:	add    BYTE PTR [eax],al
  403614:	push   es
  403615:	or     al,BYTE PTR [esi]
  403617:	sub    eax,0x62a1402
  40361c:	jnp    0x40363b
  40361e:	add    BYTE PTR [eax],al
  403620:	add    al,0x2
  403622:	sub    BYTE PTR [edx+0x0],bl
  403625:	add    BYTE PTR [esi],al
  403627:	outs   dx,DWORD PTR ds:[esi]
  403628:	aam    0x0
  40362a:	add    BYTE PTR [edx],cl
  40362c:	sub    al,BYTE PTR [eax]
  40362e:	add    BYTE PTR [eax],al
  403630:	adc    esi,DWORD PTR [eax]
  403632:	add    eax,DWORD PTR [eax]
  403634:	sbb    eax,0x18000000
  403639:	add    BYTE PTR [eax],al
  40363b:	adc    DWORD PTR [eax],ebp
  40363d:	pop    ecx
  40363e:	add    BYTE PTR [eax],al
  403640:	push   es
  403641:	or     al,BYTE PTR [esi]
  403643:	sub    eax,0x62a1402
  403648:	jnp    0x403667
  40364a:	add    BYTE PTR [eax],al
  40364c:	add    al,0x2
  40364e:	sub    BYTE PTR [edx+0x0],bl
  403651:	add    BYTE PTR [esi],al
  403653:	outs   dx,DWORD PTR ds:[esi]
  403654:	xlat   BYTE PTR ds:[ebx]
  403655:	add    BYTE PTR [eax],al
  403657:	or     ch,BYTE PTR [edx]
  403659:	push   ds
  40365a:	adc    al,0x80
  40365c:	sbb    al,0x0
  40365e:	add    BYTE PTR [edx+ebp*1],al
  403661:	mov    ds:0x9b2802,al
  403666:	add    BYTE PTR [edx],cl
  403668:	add    bh,BYTE PTR [esi-0x28]
  40366b:	add    BYTE PTR [eax],al
  40366d:	or     bh,BYTE PTR [ebp+0x30]
  403670:	add    BYTE PTR [eax],al
  403672:	add    al,0x2
  403674:	jle    0x40364f
  403676:	add    BYTE PTR [eax],al
  403678:	or     bh,BYTE PTR [ebp+0x31]
  40367b:	add    BYTE PTR [eax],al
  40367d:	add    al,0x2
  40367f:	jle    0x40365a
  403681:	add    BYTE PTR [eax],al
  403683:	or     bh,BYTE PTR [ebp+0x32]
  403686:	add    BYTE PTR [eax],al
  403688:	add    al,0x2a
  40368a:	push   ds
  40368b:	add    bh,BYTE PTR [ebx+0x30]
  40368e:	add    BYTE PTR [eax],al
  403690:	add    al,0x2a
  403692:	and    al,BYTE PTR [edx]
  403694:	add    edi,DWORD PTR [ebp+0x30]
  403697:	add    BYTE PTR [eax],al
  403699:	add    al,0x2a
  40369b:	xor    al,BYTE PTR [edx]
  40369d:	jnp    0x4036cf
  40369f:	add    BYTE PTR [eax],al
  4036a1:	add    al,0x6f
  4036a3:	fiadd  DWORD PTR [eax]
  4036a5:	add    BYTE PTR [edx],cl
  4036a7:	sub    bl,BYTE PTR [esi]
  4036a9:	add    bh,BYTE PTR [ebx+0x31]
  4036ac:	add    BYTE PTR [eax],al
  4036ae:	add    al,0x2a
  4036b0:	and    al,BYTE PTR [edx]
  4036b2:	add    edi,DWORD PTR [ebp+0x31]
  4036b5:	add    BYTE PTR [eax],al
  4036b7:	add    al,0x2a
  4036b9:	xor    al,BYTE PTR [edx]
  4036bb:	jnp    0x4036ed
  4036bd:	add    BYTE PTR [eax],al
  4036bf:	add    al,0x6f
  4036c1:	fild   DWORD PTR [eax]
  4036c3:	add    BYTE PTR [edx],cl
  4036c5:	sub    bl,BYTE PTR [esi]
  4036c7:	add    bh,BYTE PTR [ebx+0x32]
  4036ca:	add    BYTE PTR [eax],al
  4036cc:	add    al,0x2a
  4036ce:	and    al,BYTE PTR [edx]
  4036d0:	add    edi,DWORD PTR [ebp+0x32]
  4036d3:	add    BYTE PTR [eax],al
  4036d5:	add    al,0x2a
  4036d7:	add    BYTE PTR [ebx],dl
  4036d9:	xor    BYTE PTR [eax+eax*1],al
  4036dc:	sahf   
  4036dd:	add    BYTE PTR [eax],al
  4036df:	add    BYTE PTR [ecx],bl
  4036e1:	add    BYTE PTR [eax],al
  4036e3:	adc    DWORD PTR [ebx+0x60],esi
  4036e6:	add    BYTE PTR [eax],al
  4036e8:	push   es
  4036e9:	or     bh,BYTE PTR [esi-0x27]
  4036ec:	add    BYTE PTR [eax],al
  4036ee:	or     cl,BYTE PTR [ebx]
  4036f0:	jle    0x4036cb
  4036f2:	add    BYTE PTR [eax],al
  4036f4:	or     cl,BYTE PTR [esi+eax*1]
  4036f7:	add    ch,BYTE PTR [edi+0x68]
  4036fa:	add    BYTE PTR [eax],al
  4036fc:	push   es
  4036fd:	add    bl,BYTE PTR [edi]
  4036ff:	jge    0x403770
  403701:	fadd   QWORD PTR [eax]
  403703:	add    BYTE PTR [edx],cl
  403705:	or     eax,0xd97e
  40370a:	or     dl,BYTE PTR [ebx]
  40370c:	add    al,0x9
  40370e:	push   ss
  40370f:	xor    DWORD PTR [eax],ebx
  403711:	add    cl,BYTE PTR [ecx]
  403713:	pop    ss
  403714:	pop    eax
  403715:	outs   dx,DWORD PTR ds:[esi]
  403716:	nop
  403717:	add    BYTE PTR [eax],al
  403719:	or     dl,BYTE PTR [ebx]
  40371b:	add    al,0x2
  40371d:	pop    ss
  40371e:	or     DWORD PTR [edi],edx
  403720:	pop    ecx
  403721:	outs   dx,DWORD PTR ds:[esi]
  403722:	jns    0x403724
  403724:	add    BYTE PTR [edx],cl
  403726:	or     ebp,DWORD PTR [ebx]
  403728:	add    eax,DWORD PTR [edx]
  40372a:	adc    eax,DWORD PTR [ecx+edx*1]
  40372d:	add    al,0x1f
  40372f:	cmp    ch,BYTE PTR [edi-0x24]
  403732:	add    BYTE PTR [eax],al
  403734:	or     dl,BYTE PTR [ebx]
  403736:	add    eax,0x31160511
  40373b:	push   ds
  40373c:	push   es
  40373d:	adc    DWORD PTR [esi+edx*1],eax
  403740:	adc    DWORD PTR ds:0x796f,eax
  403746:	or     ch,BYTE PTR [edi+0x65]
  403749:	add    BYTE PTR [eax],al
  40374b:	push   es
  40374c:	adc    DWORD PTR [ecx+edx*1],eax
  40374f:	add    eax,0x906f5817
  403754:	add    BYTE PTR [eax],al
  403756:	or     cl,BYTE PTR [ebx+ebp*1]
  403759:	add    edx,DWORD PTR [ecx]
  40375b:	add    al,0xc
  40375d:	pop    es
  40375e:	sub    BYTE PTR ds:0x2c0a0000,bh
  403764:	push   cs
  403765:	push   es
  403766:	or     BYTE PTR [ebx-0x23],dh
  403769:	add    BYTE PTR [eax],al
  40376b:	or     ch,BYTE PTR [edi+0x62]
  40376e:	add    BYTE PTR [eax],al
  403770:	push   es
  403771:	sub    ecx,DWORD PTR ds:0x73070806
  403777:	fiadd  WORD PTR [eax]
  403779:	add    BYTE PTR [edx],cl
  40377b:	outs   dx,DWORD PTR ds:[esi]
  40377c:	bound  eax,QWORD PTR [eax]
  40377e:	add    BYTE PTR [esi],al
  403780:	push   es
  403781:	sub    al,BYTE PTR [eax]
  403783:	add    BYTE PTR [ebx],dl
  403785:	xor    BYTE PTR [eax+eax*1],al
  403788:	in     al,dx
  403789:	add    BYTE PTR [eax],al
  40378b:	add    BYTE PTR [eax+eax*1],cl
  40378e:	add    BYTE PTR [ecx],dl
  403790:	add    ch,BYTE PTR [eax]
  403792:	data16 add BYTE PTR [eax],al
  403795:	push   es
  403796:	sub    BYTE PTR ds:0x3a0a0000,bh
  40379c:	mov    ds:0x2000000,al
  4037a1:	sub    BYTE PTR [esi+0x0],ah
  4037a4:	add    BYTE PTR [esi],al
  4037a6:	jb     0x403805
  4037a8:	add    al,0x0
  4037aa:	jo     0x40381b
  4037ac:	fild   WORD PTR [eax]
  4037ae:	add    BYTE PTR [edx],cl
  4037b0:	cmp    DWORD PTR [ebp+0x2000000],ecx
  4037b6:	sub    BYTE PTR [ecx+0x0],ah
  4037b9:	add    BYTE PTR [esi],al
  4037bb:	outs   dx,DWORD PTR ds:[esi]
  4037bc:	fiadd  DWORD PTR [eax]
  4037be:	add    BYTE PTR [edx],cl
  4037c0:	and    eax,0x64e2c0a
  4037c5:	jb     0x40376e
  4037c7:	add    al,0x0
  4037c9:	jo     0x4037f3
  4037cb:	xchg   ecx,eax
  4037cc:	add    BYTE PTR [eax],al
  4037ce:	or     ch,BYTE PTR ds:0xb1720629
  4037d4:	add    al,0x0
  4037d6:	jo     0x403800
  4037d8:	xchg   ecx,eax
  4037d9:	add    BYTE PTR [eax],al
  4037db:	or     ch,BYTE PTR ds:0xc3720622
  4037e1:	add    al,0x0
  4037e3:	jo     0x40380d
  4037e5:	xchg   ecx,eax
  4037e6:	add    BYTE PTR [eax],al
  4037e8:	or     ch,BYTE PTR ds:0xd372061b
  4037ee:	add    al,0x0
  4037f0:	jo     0x40381a
  4037f2:	xchg   ecx,eax
  4037f3:	add    BYTE PTR [eax],al
  4037f5:	or     ch,BYTE PTR ds:0x72182b14
  4037fb:	jmp    0x2ab03804
  403800:	jb     0x4037f9
  403802:	add    al,0x0
  403804:	jo     0x403830
  403806:	jb     0x403815
  403808:	add    eax,0x722a7000
  40380d:	daa    
  40380e:	add    eax,0x22a7000
  403813:	sub    BYTE PTR [ecx+0x0],ah
  403816:	add    BYTE PTR [esi],al
  403818:	outs   dx,DWORD PTR ds:[esi]
  403819:	fiadd  DWORD PTR [eax]
  40381b:	add    BYTE PTR [edx],cl
  40381d:	jb     0x40386a
  40381f:	add    eax,0x6f1a7000
  403824:	add    DWORD PTR [eax],0x72c0a00
  40382a:	add    ch,BYTE PTR [eax]
  40382c:	arpl   WORD PTR [eax],ax
  40382e:	add    BYTE PTR [esi],al
  403830:	sub    dh,BYTE PTR [edx+0x61]
  403833:	add    eax,0x28027000
  403838:	arpl   WORD PTR [eax],ax
  40383a:	add    BYTE PTR [esi],al
  40383c:	sub    BYTE PTR [esi+0x0],dl
  40383f:	add    BYTE PTR [edx],cl
  403841:	sub    al,BYTE PTR [edx]
  403843:	sub    BYTE PTR [eax+eax*1+0x0],ah
  403847:	push   es
  403848:	sub    BYTE PTR ds:0x2c0a0000,bh
  40384e:	adc    DWORD PTR [edx-0x1d],esi
  403851:	add    al,BYTE PTR [eax]
  403853:	jo     0x403857
  403855:	sub    BYTE PTR [ebx+0x0],ah
  403858:	add    BYTE PTR [esi],al
  40385a:	sub    BYTE PTR [esi+0x0],dl
  40385d:	add    BYTE PTR [edx],cl
  40385f:	sub    dh,BYTE PTR [edx-0x1d]
  403862:	add    al,BYTE PTR [eax]
  403864:	jo     0x403868
  403866:	sub    BYTE PTR [eax+eax*1+0x0],ah
  40386a:	push   es
  40386b:	jb     0x4038d6
  40386d:	add    eax,0x28027000
  403872:	arpl   WORD PTR [eax],ax
  403874:	add    BYTE PTR [esi],al
  403876:	sub    al,ah
  403878:	add    BYTE PTR [eax],al
  40387a:	or     ch,BYTE PTR [edx]
  40387c:	dec    edx
  40387d:	add    ch,BYTE PTR [eax]
  40387f:	fwait
  403880:	add    BYTE PTR [eax],al
  403882:	or     al,BYTE PTR [edx]
  403884:	jae    0x403812
  403886:	add    BYTE PTR [eax],al
  403888:	push   es
  403889:	jge    0x4038bf
  40388b:	add    BYTE PTR [eax],al
  40388d:	add    al,0x2a
  40388f:	pop    esi
  403890:	jle    0x4038c5
  403892:	add    BYTE PTR [eax],al
  403894:	add    al,0x2d
  403896:	or     dh,BYTE PTR [ebx+0x6b]
  403899:	add    BYTE PTR [eax],al
  40389b:	push   es
  40389c:	xor    BYTE PTR [ebx],0x0
  40389f:	add    BYTE PTR [esi+edi*2],al
  4038a2:	xor    eax,DWORD PTR [eax]
  4038a4:	add    BYTE PTR [edx+ebp*1],al
  4038a7:	add    BYTE PTR [ebx],dl
  4038a9:	xor    BYTE PTR [esi],al
  4038ab:	add    al,ah
  4038ad:	add    BYTE PTR [eax],al
  4038af:	add    BYTE PTR [edx],bl
  4038b1:	add    BYTE PTR [eax],al
  4038b3:	adc    DWORD PTR [edi+edx*1],eax
  4038b6:	lea    edi,[edx+0x0]
  4038b9:	add    BYTE PTR [ecx],al
  4038bb:	adc    ecx,DWORD PTR [eax]
  4038bd:	adc    DWORD PTR [eax],ecx
  4038bf:	push   ss
  4038c0:	pop    ss
  4038c1:	popf   
  4038c2:	adc    DWORD PTR [eax],ecx
  4038c4:	outs   dx,DWORD PTR ds:[esi]
  4038c5:	loope  0x4038c7
  4038c7:	add    BYTE PTR [edx],cl
  4038c9:	or     al,BYTE PTR [edx]
  4038cb:	jnp    0x403901
  4038cd:	add    BYTE PTR [eax],al
  4038cf:	add    al,0x6f
  4038d1:	add    DWORD PTR [eax],0x0
  4038d4:	push   es
  4038d5:	adc    al,0xb
  4038d7:	push   es
  4038d8:	mov    gs,WORD PTR [ecx+0xc]
  4038db:	push   ss
  4038dc:	or     eax,0x906242b
  4038e1:	call   0xb06:0x6928
  4038e8:	add    al,BYTE PTR [ebx]
  4038ea:	pop    es
  4038eb:	outs   dx,DWORD PTR ds:[esi]
  4038ec:	arpl   WORD PTR [eax],ax
  4038ee:	add    BYTE PTR [esi],al
  4038f0:	pop    es
  4038f1:	outs   dx,DWORD PTR ds:[esi]
  4038f2:	data16 add BYTE PTR [eax],al
  4038f5:	push   es
  4038f6:	add    eax,0x72289a09
  4038fb:	add    BYTE PTR [eax],al
  4038fd:	push   es
  4038fe:	or     DWORD PTR es:[edi],edx
  403901:	pop    eax
  403902:	or     eax,0xd8320809
  403907:	add    bh,BYTE PTR [ebx+0x34]
  40390a:	add    BYTE PTR [eax],al
  40390c:	add    al,0x13
  40390e:	add    al,0x3
  403910:	outs   dx,DWORD PTR ds:[esi]
  403911:	loop   0x403913
  403913:	add    BYTE PTR [edx],cl
  403915:	adc    eax,DWORD PTR ds:0x9130511
  40391b:	push   ss
  40391c:	adc    ecx,DWORD PTR [edx]
  40391e:	sub    ebp,DWORD PTR [edx+0x11]
  403921:	or     DWORD PTR [ecx],edx
  403923:	or     bl,BYTE PTR [edx+0x6110613]
  403929:	sub    BYTE PTR [ecx+0x0],ch
  40392c:	add    BYTE PTR [esi],al
  40392e:	adc    eax,DWORD PTR [edi]
  403930:	adc    DWORD PTR [edi],eax
  403932:	outs   dx,DWORD PTR ds:[esi]
  403933:	data16 add BYTE PTR [eax],al
  403936:	push   es
  403937:	sub    BYTE PTR ds:0x2d0a0000,bh
  40393d:	adc    edx,DWORD PTR [ecx]
  40393f:	pop    es
  403940:	outs   dx,DWORD PTR ds:[esi]
  403941:	data16 add BYTE PTR [eax],al
  403944:	push   es
  403945:	jb     0x4039a4
  403947:	add    al,0x0
  403949:	jo     0x4039ba
  40394b:	fild   WORD PTR [eax]
  40394d:	add    BYTE PTR [edx],cl
  40394f:	sub    eax,0x11041133
  403954:	pop    es
  403955:	outs   dx,DWORD PTR ds:[esi]
  403956:	popa   
  403957:	add    BYTE PTR [eax],al
  403959:	push   es
  40395a:	outs   dx,DWORD PTR ds:[esi]
  40395b:	mov    eax,DWORD PTR [eax]
  40395d:	add    BYTE PTR [esi],al
  40395f:	sub    eax,0x11030223
  403964:	pop    es
  403965:	outs   dx,DWORD PTR ds:[esi]
  403966:	arpl   WORD PTR [eax],ax
  403968:	add    BYTE PTR [esi],al
  40396a:	adc    DWORD PTR [edi],eax
  40396c:	outs   dx,DWORD PTR ds:[esi]
  40396d:	data16 add BYTE PTR [eax],al
  403970:	push   es
  403971:	add    edx,DWORD PTR [ecx]
  403973:	pop    es
  403974:	outs   dx,DWORD PTR ds:[esi]
  403975:	add    BYTE PTR [bx+si],al
  403978:	push   es
  403979:	outs   dx,DWORD PTR ds:[esi]
  40397a:	jecxz  0x40397c
  40397c:	add    BYTE PTR [edx],cl
  40397e:	sub    BYTE PTR [edx+0x0],dh
  403981:	add    BYTE PTR [esi],al
  403983:	adc    DWORD PTR es:[edx],ecx
  403986:	pop    ss
  403987:	pop    eax
  403988:	adc    ecx,DWORD PTR [edx]
  40398a:	adc    DWORD PTR [edx],ecx
  40398c:	adc    DWORD PTR [ecx],ecx
  40398e:	mov    gs,WORD PTR [ecx+0x32]
  403991:	mov    ss,WORD PTR [edi]
  403993:	sub    dl,BYTE PTR [ebx]
  403995:	xor    BYTE PTR [eax+eax*1],al
  403998:	sub    al,BYTE PTR [eax]
  40399a:	add    BYTE PTR [eax],al
  40399c:	sbb    eax,DWORD PTR [eax]
  40399e:	add    BYTE PTR [ecx],dl
  4039a0:	add    al,0x8e
  4039a2:	imul   ecx,DWORD PTR [edx],0x28d06
  4039a8:	add    BYTE PTR [ecx],al
  4039aa:	or     edx,DWORD PTR [esi]
  4039ac:	or     al,0x2b
  4039ae:	adc    eax,0xd9a0804
  4039b3:	or     DWORD PTR [edx+ecx*1],ebp
  4039b6:	pop    es
  4039b7:	or     BYTE PTR [ebx],al
  4039b9:	or     DWORD PTR [edi-0x1c],ebp
  4039bc:	add    BYTE PTR [eax],al
  4039be:	or     ah,BYTE PTR [edx+0xc581708]
  4039c4:	or     BYTE PTR [esi],al
  4039c6:	xor    ah,bh
  4039c8:	pop    es
  4039c9:	sub    al,BYTE PTR [eax]
  4039cb:	add    BYTE PTR [ebx],dl
  4039cd:	xor    BYTE PTR [ebx],al
  4039cf:	add    BYTE PTR [ecx],ch
  4039d1:	add    BYTE PTR [eax],al
  4039d3:	add    BYTE PTR [eax+eax*1],bl
  4039d6:	add    BYTE PTR [ecx],dl
  4039d8:	add    ecx,DWORD PTR [esi-0x72f9f597]
  4039de:	jnp    0x4039e0
  4039e0:	add    BYTE PTR [ecx],al
  4039e2:	or     edx,DWORD PTR [esi]
  4039e4:	or     al,0x2b
  4039e6:	adc    al,0x3
  4039e8:	or     BYTE PTR [edx+0x92c090d],bl
  4039ee:	pop    es
  4039ef:	or     BYTE PTR [ecx],cl
  4039f1:	outs   dx,DWORD PTR ds:[esi]
  4039f2:	in     eax,0x0
  4039f4:	add    BYTE PTR [edx],cl
  4039f6:	sahf   
  4039f7:	or     BYTE PTR [edi],dl
  4039f9:	pop    eax
  4039fa:	or     al,0x8
  4039fc:	push   es
  4039fd:	xor    ch,al
  4039ff:	pop    es
  403a00:	sub    al,BYTE PTR [eax]
  403a02:	add    BYTE PTR [eax],al
  403a04:	adc    esi,DWORD PTR [eax]
  403a06:	add    eax,0x3b00
  403a0b:	add    BYTE PTR ds:0x4110000,bl
  403a11:	pop    ss
  403a12:	lea    edi,[edx+0x0]
  403a15:	add    BYTE PTR [ecx],al
  403a17:	adc    eax,DWORD PTR [ecx+edx*1]
  403a1a:	add    al,0x16
  403a1c:	pop    ss
  403a1d:	popf   
  403a1e:	adc    DWORD PTR [edi+ebp*2],eax
  403a21:	loope  0x403a23
  403a23:	add    BYTE PTR [edx],cl
  403a25:	or     al,BYTE PTR [esi]
  403a27:	mov    gs,WORD PTR [ecx+0xb]
  403a2a:	pop    es
  403a2b:	lea    esp,[eax+eax*1]
  403a2e:	add    BYTE PTR [ecx],al
  403a30:	or     al,0x16
  403a32:	or     eax,0x908102b
  403a37:	add    eax,DWORD PTR [esi]
  403a39:	or     DWORD PTR [edx+0xe36f],ebx
  403a3f:	or     ah,BYTE PTR [edx+0xd581709]
  403a45:	or     DWORD PTR [edi],eax
  403a47:	xor    ch,ah
  403a49:	or     BYTE PTR [edx],ch
  403a4b:	add    BYTE PTR [ebx],dl
  403a4d:	xor    BYTE PTR [edx],al
  403a4f:	add    BYTE PTR [eax],bl
  403a51:	add    BYTE PTR [eax],al
  403a53:	add    BYTE PTR [esi],bl
  403a55:	add    BYTE PTR [eax],al
  403a57:	adc    DWORD PTR [edx+ecx*1],edx
  403a5a:	add    ebp,DWORD PTR [edi+eax*1]
  403a5d:	add    ebp,DWORD PTR [edi-0x1e]
  403a60:	add    BYTE PTR [eax],al
  403a62:	or     cl,BYTE PTR [edx]
  403a64:	jb     0x403ad3
  403a66:	add    eax,0x28067000
  403a6b:	out    0x0,al
  403a6d:	add    BYTE PTR [edx],cl
  403a6f:	sub    dl,BYTE PTR [ebx]
  403a71:	xor    BYTE PTR [ebx],al
  403a73:	add    bh,bl
  403a75:	add    BYTE PTR [eax],al
  403a77:	add    BYTE PTR [edi],bl
  403a79:	add    BYTE PTR [eax],al
  403a7b:	adc    DWORD PTR [edx+ecx*1],edx
  403a7e:	push   cs
  403a7f:	add    al,0x75
  403a81:	and    al,0x0
  403a83:	add    BYTE PTR [ecx],al
  403a85:	or     eax,DWORD PTR [edi]
  403a87:	cmp    DWORD PTR [ecx+0x7000000],ebx
  403a8d:	outs   dx,DWORD PTR ds:[esi]
  403a8e:	in     eax,0x0
  403a90:	add    BYTE PTR [edx],cl
  403a92:	pop    ss
  403a93:	inc    eax
  403a94:	lods   eax,DWORD PTR ds:[esi]
  403a95:	add    BYTE PTR [eax],al
  403a97:	add    BYTE PTR [edi],al
  403a99:	push   ss
  403a9a:	outs   dx,DWORD PTR ds:[esi]
  403a9b:	out    0x0,eax
  403a9d:	add    BYTE PTR [edx],cl
  403a9f:	jne    0x403b1e
  403aa1:	add    BYTE PTR [eax],al
  403aa3:	add    DWORD PTR [eax+ecx*1],ecx
  403aa6:	adc    BYTE PTR [eax+ecx*1],al
  403aa9:	sub    al,0x6f
  403aab:	or     BYTE PTR [edi-0x18],ch
  403aae:	add    BYTE PTR [eax],al
  403ab0:	or     ch,BYTE PTR ds:0xe96f0867
  403ab6:	add    BYTE PTR [eax],al
  403ab8:	or     ch,BYTE PTR [edi-0x16]
  403abb:	add    BYTE PTR [eax],al
  403abd:	or     cl,BYTE PTR ds:0x590c1f09
  403ac3:	inc    ebp
  403ac4:	add    eax,0x34000000
  403ac9:	add    BYTE PTR [eax],al
  403acb:	add    BYTE PTR ds:0x69000000,ah
  403ad1:	add    BYTE PTR [eax],al
  403ad3:	add    BYTE PTR [ecx+0x0],ch
  403ad6:	add    BYTE PTR [eax],al
  403ad8:	pop    es
  403ad9:	add    BYTE PTR [eax],al
  403adb:	add    BYTE PTR [ecx],cl
  403add:	pop    ds
  403ade:	sub    BYTE PTR [esi],ch
  403ae0:	adc    DWORD PTR [ebx],ebp
  403ae2:	bound  ecx,QWORD PTR [eax]
  403ae4:	outs   dx,DWORD PTR ds:[esi]
  403ae5:	jmp    0x403ae7
  403ae7:	add    BYTE PTR [edx],cl
  403ae9:	mov    WORD PTR [ebp+0x0],gs
  403aec:	add    BYTE PTR [ecx],al
  403aee:	adc    BYTE PTR [ebx+ebp*1],al
  403af1:	push   ebx
  403af2:	or     BYTE PTR [edi-0x14],ch
  403af5:	add    BYTE PTR [eax],al
  403af7:	or     cl,BYTE PTR [ebx+edi*2+0x10010000]
  403afe:	add    al,0x2b
  403b00:	inc    esp
  403b01:	or     BYTE PTR [edi-0x13],ch
  403b04:	add    BYTE PTR [eax],al
  403b06:	or     cl,BYTE PTR [eax+eax*4+0x10010000]
  403b0d:	add    al,0x2b
  403b0f:	xor    eax,0xee6f08
  403b14:	add    BYTE PTR [edx],cl
  403b16:	adc    BYTE PTR [ebx+ebp*1],al
  403b19:	sub    eax,DWORD PTR [ebx]
  403b1b:	pop    es
  403b1c:	outs   dx,DWORD PTR ds:[esi]
  403b1d:	in     al,0x0
  403b1f:	add    BYTE PTR [edx],cl
  403b21:	adc    BYTE PTR [ebx+ebp*1],al
  403b24:	and    BYTE PTR ds:0x45d72,al
  403b2a:	jo     0x403b9b
  403b2c:	fild   WORD PTR [eax]
  403b2e:	add    BYTE PTR [edx],cl
  403b30:	sub    eax,0x75040e13
  403b35:	and    al,BYTE PTR [eax]
  403b37:	add    BYTE PTR [ecx],al
  403b39:	and    eax,0x6082c0a
  403b3e:	jae    0x403ada
  403b40:	add    BYTE PTR [eax],al
  403b42:	push   es
  403b43:	adc    BYTE PTR [edx+eax*1],al
  403b46:	jnp    0x403b7c
  403b48:	add    BYTE PTR [eax],al
  403b4a:	add    al,0x4
  403b4c:	add    eax,0xde73
  403b51:	or     cl,BYTE PTR [esi]
  403b53:	add    al,0x6f
  403b55:	add    BYTE PTR [eax],0x0
  403b58:	push   es
  403b59:	pop    ss
  403b5a:	sub    ah,BYTE PTR [edx]
  403b5c:	add    al,BYTE PTR [ebx]
  403b5e:	jge    0x403b95
  403b60:	add    BYTE PTR [eax],al
  403b62:	add    al,0x2a
  403b64:	add    bh,BYTE PTR ss:[ebx+0x34]
  403b68:	add    BYTE PTR [eax],al
  403b6a:	add    al,0x6f
  403b6c:	add    DWORD PTR [eax],0x0
  403b6f:	push   es
  403b70:	pop    ss
  403b71:	sub    ah,BYTE PTR [edx]
  403b73:	add    al,BYTE PTR [ebx]
  403b75:	jge    0x403bad
  403b77:	add    BYTE PTR [eax],al
  403b79:	add    al,0x2a
  403b7b:	and    al,BYTE PTR [edx]
  403b7d:	add    edi,DWORD PTR [ebp+0x37]
  403b80:	add    BYTE PTR [eax],al
  403b82:	add    al,0x2a
  403b84:	adc    esi,DWORD PTR [eax]
  403b86:	add    al,BYTE PTR [eax]
  403b88:	add    BYTE PTR ds:[eax],al
  403b8b:	add    BYTE PTR [eax],ah
  403b8d:	add    BYTE PTR [eax],al
  403b8f:	adc    DWORD PTR [edx],eax
  403b91:	outs   dx,DWORD PTR ds:[esi]
  403b92:	out    dx,eax
  403b93:	add    BYTE PTR [eax],al
  403b95:	or     bl,BYTE PTR [ecx]
  403b97:	xor    esi,DWORD PTR [ebx]
  403b99:	add    ch,BYTE PTR [edi-0x10]
  403b9c:	add    BYTE PTR [eax],al
  403b9e:	or     cl,BYTE PTR [edx]
  403ba0:	push   es
  403ba1:	outs   dx,DWORD PTR ds:[esi]
  403ba2:	icebp  
  403ba3:	add    BYTE PTR [eax],al
  403ba5:	or     ch,BYTE PTR [esp]
  403ba8:	push   es
  403ba9:	sbb    BYTE PTR [edi-0xe],ch
  403bac:	add    BYTE PTR [eax],al
  403bae:	or     ch,BYTE PTR [ecx+ebx*1]
  403bb1:	push   es
  403bb2:	outs   dx,DWORD PTR ds:[esi]
  403bb3:	repz add BYTE PTR [eax],al
  403bb6:	or     al,BYTE PTR [edx]
  403bb8:	outs   dx,DWORD PTR ds:[esi]
  403bb9:	repz add BYTE PTR [eax],al
  403bbc:	or     dh,BYTE PTR [ebx]
  403bbe:	add    dl,BYTE PTR [esi]
  403bc0:	sub    al,BYTE PTR [esi]
  403bc2:	sbb    BYTE PTR [edi-0xc],ch
  403bc5:	add    BYTE PTR [eax],al
  403bc7:	or     ch,BYTE PTR ds:0x162a17e7
  403bcd:	sub    al,BYTE PTR [eax]
  403bcf:	add    BYTE PTR [ebx],bl
  403bd1:	xor    BYTE PTR ds:0x15800,al
  403bd7:	add    BYTE PTR [ecx],ah
  403bd9:	add    BYTE PTR [eax],al
  403bdb:	adc    DWORD PTR [ebx],eax
  403bdd:	jb     0x403c50
  403bdf:	add    eax,0xdf6f7000
  403be4:	add    BYTE PTR [eax],al
  403be6:	or     bh,BYTE PTR [ecx]
  403be8:	fwait
  403be9:	add    BYTE PTR [eax],al
  403beb:	add    BYTE PTR [edx],al
  403bed:	jnp    0x403c24
  403bef:	add    BYTE PTR [eax],al
  403bf1:	add    al,0x75
  403bf3:	add    DWORD PTR [eax],0x0
  403bf6:	add    DWORD PTR [edx],ecx
  403bf8:	push   es
  403bf9:	sub    al,0x76
  403bfb:	push   es
  403bfc:	outs   dx,DWORD PTR ds:[esi]
  403bfd:	cmc    
  403bfe:	add    BYTE PTR [eax],al
  403c00:	or     ch,BYTE PTR [esi+ebp*2]
  403c03:	add    bh,BYTE PTR [ebx+0x35]
  403c06:	add    BYTE PTR [eax],al
  403c08:	add    al,0x28
  403c0a:	ja     0x403c0c
  403c0c:	add    BYTE PTR [esi],al
  403c0e:	sub    eax,0x508d1b61
  403c13:	add    BYTE PTR [eax],al
  403c15:	add    DWORD PTR [ebx],edx
  403c17:	or     BYTE PTR [ecx],dl
  403c19:	or     BYTE PTR [esi],dl
  403c1b:	add    bh,BYTE PTR [ebx+0x35]
  403c1e:	add    BYTE PTR [eax],al
  403c20:	add    al,0x6f
  403c22:	test   BYTE PTR [eax],0x0
  403c25:	or     ah,BYTE PTR [edx+0x72170811]
  403c2b:	xchg   DWORD PTR ds:0x11a27000,eax
  403c31:	or     BYTE PTR [eax],bl
  403c33:	push   es
  403c34:	outs   dx,DWORD PTR ds:[esi]
  403c35:	test   DWORD PTR [eax],0x9130a00
  403c3b:	adc    cl,BYTE PTR [ecx]
  403c3d:	sub    al,bh
  403c3f:	add    BYTE PTR [eax],al
  403c41:	or     ch,BYTE PTR [eax]
  403c43:	stc    
  403c44:	add    BYTE PTR [eax],al
  403c46:	or     ah,BYTE PTR [edx+0x72190811]
  403c4c:	mov    eax,DWORD PTR ds:0x11a27000
  403c52:	or     BYTE PTR [edx],bl
  403c54:	push   es
  403c55:	outs   dx,DWORD PTR ds:[esi]
  403c56:	cli    
  403c57:	add    BYTE PTR [eax],al
  403c59:	or     dl,BYTE PTR [ebx]
  403c5b:	or     dl,BYTE PTR [edx]
  403c5d:	or     ch,BYTE PTR [eax]
  403c5f:	clc    
  403c60:	add    BYTE PTR [eax],al
  403c62:	or     ch,BYTE PTR [eax]
  403c64:	stc    
  403c65:	add    BYTE PTR [eax],al
  403c67:	or     ah,BYTE PTR [edx-0x4d7f7ef]
  403c6d:	add    BYTE PTR [eax],al
  403c6f:	or     ch,BYTE PTR [edx]
  403c71:	add    bh,BYTE PTR [ebx+0x35]
  403c74:	add    BYTE PTR [eax],al
  403c76:	add    al,0x6f
  403c78:	test   BYTE PTR [eax],0x0
  403c7b:	or     dh,BYTE PTR [edx-0x71]
  403c7e:	add    eax,0x56287000
  403c83:	add    BYTE PTR [eax],al
  403c85:	or     ch,BYTE PTR [edx]
  403c87:	add    bh,BYTE PTR [ebx+0x35]
  403c8a:	add    BYTE PTR [eax],al
  403c8c:	add    al,0x3
  403c8e:	outs   dx,DWORD PTR ds:[esi]
  403c8f:	cld    
  403c90:	add    BYTE PTR [eax],al
  403c92:	or     cl,BYTE PTR [ebx]
  403c94:	pop    es
  403c95:	add    bh,BYTE PTR [ebx+0x34]
  403c98:	add    BYTE PTR [eax],al
  403c9a:	add    al,0x6f
  403c9c:	std    
  403c9d:	add    BYTE PTR [eax],al
  403c9f:	or     al,BYTE PTR [edx]
  403ca1:	jnp    0x403cd8
  403ca3:	add    BYTE PTR [eax],al
  403ca5:	add    al,0x7
  403ca7:	add    bh,BYTE PTR [ebx+0x35]
  403caa:	add    BYTE PTR [eax],al
  403cac:	add    al,0x2
  403cae:	jnp    0x403ce6
  403cb0:	add    BYTE PTR [eax],al
  403cb2:	add    al,0x2
  403cb4:	jnp    0x403ced
  403cb6:	add    BYTE PTR [eax],al
  403cb8:	add    al,0x73
  403cba:	fwait
  403cbb:	add    BYTE PTR [eax],al
  403cbd:	push   es
  403cbe:	outs   dx,DWORD PTR ds:[esi]
  403cbf:	inc    BYTE PTR [eax]
  403cc1:	add    BYTE PTR [edx],cl
  403cc3:	or     al,0x8
  403cc5:	jne    0x403cd0
  403cc7:	add    BYTE PTR [eax],al
  403cc9:	add    DWORD PTR ds:0x73402c09,ecx
  403ccf:	inc    DWORD PTR [eax]
  403cd1:	add    BYTE PTR [edx],cl
  403cd3:	adc    eax,DWORD PTR [ebx+ebp*1]
  403cd6:	adc    edx,DWORD PTR [ecx]
  403cd8:	add    al,0x9
  403cda:	outs   dx,DWORD PTR ds:[esi]
  403cdb:	add    BYTE PTR [ecx],al
  403cdd:	add    BYTE PTR [edx],cl
  403cdf:	outs   dx,DWORD PTR ds:[esi]
  403ce0:	lock add BYTE PTR [eax],al
  403ce3:	or     ch,BYTE PTR [edi+0x1]
  403ce6:	add    DWORD PTR [eax],eax
  403ce8:	or     ah,BYTE PTR [esi]
  403cea:	or     DWORD PTR [edi+0x2],ebp
  403ced:	add    DWORD PTR [eax],eax
  403cef:	or     ch,BYTE PTR ds:0x6f0411e5
  403cf5:	add    eax,DWORD PTR [ecx]
  403cf7:	add    BYTE PTR [edx],cl
  403cf9:	pop    ss
  403cfa:	xor    ecx,DWORD PTR [ecx+edx*1]
  403cfd:	add    al,0x16
  403cff:	outs   dx,DWORD PTR ds:[esi]
  403d00:	add    al,0x1
  403d02:	add    BYTE PTR [edx],cl
  403d04:	adc    eax,DWORD PTR [edi]
  403d06:	fisubr WORD PTR [ecx]
  403d08:	adc    DWORD PTR [ebx+edx*1],eax
  403d0b:	pop    es
  403d0c:	fisub  WORD PTR [ebx]
  403d0e:	or     BYTE PTR [ebx],dl
  403d10:	pop    es
  403d11:	ficomp WORD PTR [esi]
  403d13:	adc    eax,DWORD PTR ds:0x79280511
  403d19:	add    BYTE PTR [eax],al
  403d1b:	push   es
  403d1c:	jae    0x403d23
  403d1e:	add    DWORD PTR [eax],eax
  403d20:	or     bh,BYTE PTR [edx+0x13]
  403d23:	push   es
  403d24:	adc    DWORD PTR [esi],eax
  403d26:	sub    BYTE PTR [ecx+0x0],bh
  403d29:	add    BYTE PTR [esi],al
  403d2b:	jae    0x403d32
  403d2d:	add    DWORD PTR [eax],eax
  403d2f:	or     bh,BYTE PTR [edx+0x11]
  403d32:	pop    es
  403d33:	sub    al,BYTE PTR [ecx]
  403d35:	sbb    al,0x0
  403d37:	add    BYTE PTR [eax],al
  403d39:	add    BYTE PTR [ebx+0x1378c00],ch
  403d3f:	ja     0x413d45
  403d45:	add    BYTE PTR [ebx+0x1468c00],ch
  403d4b:	js     0x13413d51
  403d51:	xor    BYTE PTR [ebx],al
  403d53:	add    BYTE PTR [eax],dh
  403d55:	add    BYTE PTR [eax],al
  403d57:	add    BYTE PTR [eax+eax*1],cl
  403d5a:	add    BYTE PTR [ecx],dl
  403d5c:	add    ch,BYTE PTR [edi+0x39]
  403d5f:	add    BYTE PTR [eax],al
  403d61:	or     cl,BYTE PTR [edx]
  403d63:	sub    ebx,DWORD PTR [edx]
  403d65:	add    ch,BYTE PTR [edi+0x39]
  403d68:	add    BYTE PTR [eax],al
  403d6a:	or     ch,BYTE PTR [edx+edx*1]
  403d6d:	push   es
  403d6e:	jb     0x403d09
  403d70:	add    eax,0x6f027000
  403d75:	cmp    DWORD PTR [eax],eax
  403d77:	add    BYTE PTR [edx],cl
  403d79:	sub    BYTE PTR [esi],al
  403d7b:	add    DWORD PTR [eax],eax
  403d7d:	or     cl,BYTE PTR [edx]
  403d7f:	add    ch,BYTE PTR [edi+0x40]
  403d82:	add    BYTE PTR [eax],al
  403d84:	or     ah,BYTE PTR ds:0xdb2d0010
  403d8a:	push   es
  403d8b:	sub    bl,BYTE PTR [ebx]
  403d8d:	xor    BYTE PTR ds:0x18f00,al
  403d93:	add    BYTE PTR [edx],ah
  403d95:	add    BYTE PTR [eax],al
  403d97:	adc    DWORD PTR [esi],edx
  403d99:	or     al,BYTE PTR [ecx+edi*1]
  403d9c:	test   DWORD PTR [ecx],eax
  403d9e:	add    BYTE PTR [eax],al
  403da0:	add    al,0x6f
  403da2:	in     eax,0x0
  403da4:	add    BYTE PTR [edx],cl
  403da6:	pop    ss
  403da7:	inc    eax
  403da8:	jns    0x403dab
  403daa:	add    BYTE PTR [eax],al
  403dac:	add    bh,BYTE PTR [ebx+0x35]
  403daf:	add    BYTE PTR [eax],al
  403db1:	add    al,0x3
  403db3:	outs   dx,DWORD PTR ds:[esi]
  403db4:	cld    
  403db5:	add    BYTE PTR [eax],al
  403db7:	or     cl,BYTE PTR [ebx]
  403db9:	pop    es
  403dba:	add    bh,BYTE PTR [ebx+0x34]
  403dbd:	add    BYTE PTR [eax],al
  403dbf:	add    al,0x6f
  403dc1:	std    
  403dc2:	add    BYTE PTR [eax],al
  403dc4:	or     al,BYTE PTR [edx]
  403dc6:	jnp    0x403dfd
  403dc8:	add    BYTE PTR [eax],al
  403dca:	add    al,0x7
  403dcc:	add    bh,BYTE PTR [ebx+0x35]
  403dcf:	add    BYTE PTR [eax],al
  403dd1:	add    al,0x2
  403dd3:	jnp    0x403e0b
  403dd5:	add    BYTE PTR [eax],al
  403dd7:	add    al,0x2
  403dd9:	jnp    0x403e12
  403ddb:	add    BYTE PTR [eax],al
  403ddd:	add    al,0x73
  403ddf:	fwait
  403de0:	add    BYTE PTR [eax],al
  403de2:	push   es
  403de3:	outs   dx,DWORD PTR ds:[esi]
  403de4:	inc    BYTE PTR [eax]
  403de6:	add    BYTE PTR [edx],cl
  403de8:	or     al,0x8
  403dea:	cmp    DWORD PTR [edi],ebp
  403dec:	add    DWORD PTR [eax],eax
  403dee:	add    BYTE PTR [esi+edx*1],al
  403df1:	outs   dx,DWORD PTR ds:[esi]
  403df2:	out    0x0,eax
  403df4:	add    BYTE PTR [edx],cl
  403df6:	jne    0x403e75
  403df8:	add    BYTE PTR [eax],al
  403dfa:	add    DWORD PTR ds:0x1076f09,ecx
  403e00:	add    BYTE PTR [edx],cl
  403e02:	adc    eax,DWORD PTR [esp+edx*1]
  403e05:	adc    eax,DWORD PTR ds:0x50750411
  403e0b:	add    BYTE PTR [eax],al
  403e0d:	add    DWORD PTR [esi+ebp*1],ebp
  403e10:	or     BYTE PTR [eax],ch
  403e12:	jle    0x403e14
  403e14:	add    BYTE PTR [esi],al
  403e16:	adc    eax,DWORD PTR [esi]
  403e18:	pop    ds
  403e19:	or     al,0x28
  403e1b:	or     BYTE PTR [ecx],al
  403e1d:	add    BYTE PTR [edx],cl
  403e1f:	outs   dx,DWORD PTR ds:[esi]
  403e20:	or     DWORD PTR [ecx],eax
  403e22:	add    BYTE PTR [edx],cl
  403e24:	adc    DWORD PTR [esi],eax
  403e26:	ror    BYTE PTR [ebx+0x28010000],1
  403e2c:	add    BYTE PTR cs:[eax],al
  403e2f:	or     ch,BYTE PTR [edi+0xa]
  403e32:	add    DWORD PTR [eax],eax
  403e34:	or     dh,BYTE PTR [ebp-0x75]
  403e37:	add    BYTE PTR [eax],al
  403e39:	add    DWORD PTR [ebx],edx
  403e3b:	add    eax,0x411762b
  403e40:	jne    0x403eaf
  403e42:	add    BYTE PTR [eax],al
  403e44:	add    DWORD PTR [ebx+esi*1],ebp
  403e47:	or     BYTE PTR [eax],ch
  403e49:	jg     0x403e4b
  403e4b:	add    BYTE PTR [esi],al
  403e4d:	adc    eax,DWORD PTR [edi]
  403e4f:	pop    ds
  403e50:	adc    BYTE PTR [eax],ch
  403e52:	or     BYTE PTR [ecx],al
  403e54:	add    BYTE PTR [edx],cl
  403e56:	outs   dx,DWORD PTR ds:[esi]
  403e57:	or     DWORD PTR [ecx],eax
  403e59:	add    BYTE PTR [edx],cl
  403e5b:	adc    DWORD PTR [edi],eax
  403e5d:	mov    WORD PTR [ebp+0x0],gs
  403e60:	add    BYTE PTR [ecx],al
  403e62:	ror    BYTE PTR [ebx+0x28010000],1
  403e68:	add    BYTE PTR cs:[eax],al
  403e6b:	or     ch,BYTE PTR [edi+0xa]
  403e6e:	add    DWORD PTR [eax],eax
  403e70:	or     dh,BYTE PTR [ebp-0x75]
  403e73:	add    BYTE PTR [eax],al
  403e75:	add    DWORD PTR [ebx],edx
  403e77:	add    eax,0x4113a2b
  403e7c:	jne    0x403dfe
  403e7e:	add    BYTE PTR [eax],al
  403e80:	add    DWORD PTR [ecx+esi*1],ebp
  403e83:	or     BYTE PTR [eax],ch
  403e85:	add    BYTE PTR [eax],0x0
  403e88:	push   es
  403e89:	adc    ecx,DWORD PTR [eax]
  403e8b:	pop    ds
  403e8c:	or     eax,0x10828
  403e91:	or     ch,BYTE PTR [edi+0x9]
  403e94:	add    DWORD PTR [eax],eax
  403e96:	or     dl,BYTE PTR [ecx]
  403e98:	or     BYTE PTR [eax+eax*4-0x2fff0000],cl
  403e9f:	mov    eax,DWORD PTR [eax]
  403ea1:	add    BYTE PTR [ecx],al
  403ea3:	sub    BYTE PTR [esi],ch
  403ea5:	add    BYTE PTR [eax],al
  403ea7:	or     ch,BYTE PTR [edi+0xa]
  403eaa:	add    DWORD PTR [eax],eax
  403eac:	or     dh,BYTE PTR [ebp-0x75]
  403eaf:	add    BYTE PTR [eax],al
  403eb1:	add    DWORD PTR [ebx],edx
  403eb3:	add    eax,0x662c0511
  403eb8:	add    al,0x6f
  403eba:	iret   
  403ebb:	add    BYTE PTR [eax],al
  403ebd:	or     dl,BYTE PTR [ebx]
  403ebf:	or     DWORD PTR [ecx],edx
  403ec1:	or     DWORD PTR [edx-0x63],esi
  403ec4:	add    eax,0xb6f7000
  403ec9:	add    DWORD PTR [eax],eax
  403ecb:	or     dl,BYTE PTR [ebx]
  403ecd:	or     dl,BYTE PTR [ecx]
  403ecf:	or     DWORD PTR [edx-0x57],esi
  403ed2:	add    eax,0x8d177000
  403ed7:	adc    eax,DWORD PTR [eax]
  403ed9:	add    BYTE PTR [ecx],al
  403edb:	adc    ecx,DWORD PTR [ecx+edx*1]
  403ede:	or     al,0x16
  403ee0:	sar    BYTE PTR [ebp+0x0],1
  403ee3:	add    BYTE PTR [ecx],al
  403ee5:	sub    BYTE PTR [esi],ch
  403ee7:	add    BYTE PTR [eax],al
  403ee9:	or     ah,BYTE PTR [edx+0xc6f0c11]
  403eef:	add    DWORD PTR [eax],eax
  403ef1:	or     dl,BYTE PTR [ebx]
  403ef3:	or     edx,DWORD PTR [ecx]
  403ef5:	or     al,BYTE PTR [esi+edx*1]
  403ef8:	lea    eax,[edx]
  403efa:	add    BYTE PTR [eax],al
  403efc:	add    DWORD PTR [edi+0xd],ebp
  403eff:	add    DWORD PTR [eax],eax
  403f01:	or     ah,BYTE PTR [esi]
  403f03:	adc    DWORD PTR [ebx],ecx
  403f05:	add    al,0x17
  403f07:	lea    eax,[edx]
  403f09:	add    BYTE PTR [eax],al
  403f0b:	add    DWORD PTR [ebx],edx
  403f0d:	or     eax,0x11160d11
  403f12:	add    eax,0x6f0d11a2
  403f17:	or     eax,0x260a0001
  403f1c:	pop    ss
  403f1d:	or     bl,dh
  403f1f:	add    eax,0xde0a1626
  403f24:	add    BYTE PTR [esi],al
  403f26:	sub    al,BYTE PTR [eax]
  403f28:	inc    ecx
  403f29:	sbb    al,0x0
  403f2b:	add    BYTE PTR [eax],al
  403f2d:	add    BYTE PTR [eax],al
  403f2f:	add    BYTE PTR [eax+eax*1],dl
  403f32:	add    BYTE PTR [eax],al
  403f34:	je     0x403f37
  403f36:	add    BYTE PTR [eax],al
  403f38:	mov    BYTE PTR [ecx],al
  403f3a:	add    BYTE PTR [eax],al
  403f3c:	add    eax,0x2000000
  403f41:	add    BYTE PTR [eax],al
  403f43:	add    DWORD PTR [ebx],edx
  403f45:	xor    BYTE PTR [eax+eax*1],al
  403f48:	rol    BYTE PTR [eax],cl
  403f4a:	add    BYTE PTR [eax],al
  403f4c:	and    eax,DWORD PTR [eax]
  403f4e:	add    BYTE PTR [ecx],dl
  403f50:	jle    0x403f2b
  403f52:	add    BYTE PTR [eax],al
  403f54:	or     cl,BYTE PTR [edx]
  403f56:	add    esi,DWORD PTR [edx+0xd]
  403f59:	add    eax,0xdf6f7000
  403f5e:	add    BYTE PTR [eax],al
  403f60:	or     ch,BYTE PTR [esi+eax*1]
  403f63:	jb     0x403f28
  403f65:	add    al,0x0
  403f67:	jo     0x403f93
  403f69:	add    esi,DWORD PTR [edx-0x17]
  403f6c:	add    al,0x0
  403f6e:	jo     0x403fdf
  403f70:	fild   WORD PTR [eax]
  403f72:	add    BYTE PTR [edx],cl
  403f74:	sub    al,0x6
  403f76:	jb     0x403f1f
  403f78:	add    al,0x0
  403f7a:	jo     0x403fa6
  403f7c:	add    esi,DWORD PTR [edx-0x9]
  403f7f:	add    al,0x0
  403f81:	jo     0x403ff2
  403f83:	fild   WORD PTR [eax]
  403f85:	add    BYTE PTR [edx],cl
  403f87:	sub    al,0x6
  403f89:	jb     0x403f3c
  403f8b:	add    al,0x0
  403f8d:	jo     0x403fb9
  403f8f:	add    ecx,DWORD PTR [ebx]
  403f91:	add    esi,DWORD PTR [edx-0x1d]
  403f94:	add    al,BYTE PTR [eax]
  403f96:	jo     0x404007
  403f98:	push   cs
  403f99:	add    DWORD PTR [eax],eax
  403f9b:	or     ch,BYTE PTR [edx+ecx*1]
  403f9e:	add    edx,DWORD PTR [edi]
  403fa0:	outs   dx,DWORD PTR ds:[esi]
  403fa1:	nop
  403fa2:	add    BYTE PTR [eax],al
  403fa4:	or     cl,BYTE PTR [ebx]
  403fa6:	sub    eax,DWORD PTR [edx]
  403fa8:	push   es
  403fa9:	sub    al,BYTE PTR [edi]
  403fab:	pop    ss
  403fac:	lea    edi,[edx+0x0]
  403faf:	add    BYTE PTR [ecx],al
  403fb1:	adc    eax,DWORD PTR ds:0x1f160511
  403fb7:	cmp    bl,BYTE PTR [ebp-0x1e90faef]
  403fbd:	add    BYTE PTR [eax],al
  403fbf:	or     cl,BYTE PTR [eax+ecx*1]
  403fc2:	mov    gs,WORD PTR [ecx+0x17]
  403fc5:	xor    eax,DWORD PTR [edi+eax*1]
  403fc8:	or     ch,BYTE PTR [ebx]
  403fca:	push   ebp
  403fcb:	or     BYTE PTR [esi+0x4f331869],cl
  403fd1:	or     BYTE PTR [esi],dl
  403fd3:	call   0x0:0x347b020d
  403fda:	add    al,0x9
  403fdc:	outs   dx,DWORD PTR ds:[esi]
  403fdd:	sgdtd  [eax]
  403fe0:	or     dl,BYTE PTR [ebx]
  403fe2:	add    al,0x1c
  403fe4:	lea    edx,[eax+0x0]
  403fe7:	add    BYTE PTR [ecx],al
  403fe9:	adc    eax,DWORD PTR [esi]
  403feb:	adc    DWORD PTR [esi],eax
  403fed:	push   ss
  403fee:	jb     0x403fa1
  403ff0:	add    eax,0x11a27000
  403ff5:	push   es
  403ff6:	pop    ss
  403ff7:	adc    DWORD PTR [edx+eiz*4],eax
  403ffa:	adc    DWORD PTR [esi],eax
  403ffc:	sbb    BYTE PTR [edx-0x4b],dh
  403fff:	add    eax,0x11a27000
  404004:	push   es
  404005:	sbb    DWORD PTR [ecx],ecx
  404007:	mov    ds:0x721a0611,al
  40400c:	imul   eax,DWORD PTR ds:0x11a27000,0x17081b06
  404016:	call   0xfb:0x280611a2
  40401d:	add    BYTE PTR [edx],cl
  40401f:	or     al,BYTE PTR [esi]
  404021:	sub    al,BYTE PTR [eax]
  404023:	add    BYTE PTR [ebx],dl
  404025:	xor    BYTE PTR [edx],al
  404027:	add    BYTE PTR [eax+0x24000000],ch
  40402d:	add    BYTE PTR [eax],al
  40402f:	adc    DWORD PTR [ebx+0x10],esi
  404032:	add    DWORD PTR [eax],eax
  404034:	or     cl,BYTE PTR [edx]
  404036:	add    edi,DWORD PTR [ecx]
  404038:	xchg   ebp,eax
  404039:	add    BYTE PTR [eax],al
  40403b:	add    BYTE PTR [ebx],al
  40403d:	sbb    BYTE PTR [edi-0xe],ch
  404040:	add    BYTE PTR [eax],al
  404042:	or     ch,BYTE PTR [edx+ebp*1]
  404045:	push   es
  404046:	add    ebp,DWORD PTR [edi-0x10]
  404049:	add    BYTE PTR [eax],al
  40404b:	or     ch,BYTE PTR [edi+0x11]
  40404e:	add    DWORD PTR [eax],eax
  404050:	or     ch,BYTE PTR [ebx]
  404052:	or     al,0x6
  404054:	add    ebp,DWORD PTR [edi-0x10]
  404057:	add    BYTE PTR [eax],al
  404059:	or     ch,BYTE PTR [edi+0x11]
  40405c:	add    DWORD PTR [eax],eax
  40405e:	or     al,BYTE PTR [ebx]
  404060:	sbb    BYTE PTR [edi-0xc],ch
  404063:	add    BYTE PTR [eax],al
  404065:	or     ch,BYTE PTR ds:0xf16f03eb
  40406b:	add    BYTE PTR [eax],al
  40406d:	or     ah,BYTE PTR [esi]
  40406f:	add    ebp,DWORD PTR [edi+0x12]
  404072:	add    DWORD PTR [eax],eax
  404074:	or     ch,BYTE PTR [ecx+ebp*1]
  404077:	push   es
  404078:	add    ebp,DWORD PTR [edi-0x10]
  40407b:	add    BYTE PTR [eax],al
  40407d:	or     ch,BYTE PTR [edi+0x11]
  404080:	add    DWORD PTR [eax],eax
  404082:	or     ch,BYTE PTR [ebx]
  404084:	or     al,0x6
  404086:	add    ebp,DWORD PTR [edi-0x10]
  404089:	add    BYTE PTR [eax],al
  40408b:	or     ch,BYTE PTR [edi+0x11]
  40408e:	add    DWORD PTR [eax],eax
  404090:	or     al,BYTE PTR [ebx]
  404092:	outs   dx,DWORD PTR ds:[esi]
  404093:	adc    eax,DWORD PTR [ecx]
  404095:	add    BYTE PTR [edx],cl
  404097:	sub    eax,0xf16f03ec
  40409c:	add    BYTE PTR [eax],al
  40409e:	or     ah,BYTE PTR [esi]
  4040a0:	add    ebp,DWORD PTR [edi+0x14]
  4040a3:	add    DWORD PTR [eax],eax
  4040a5:	or     ch,BYTE PTR [ecx+ebp*1]
  4040a8:	push   es
  4040a9:	add    ebp,DWORD PTR [edi-0x10]
  4040ac:	add    BYTE PTR [eax],al
  4040ae:	or     ch,BYTE PTR [edi+0x11]
  4040b1:	add    DWORD PTR [eax],eax
  4040b3:	or     ch,BYTE PTR [ebx]
  4040b5:	or     al,0x6
  4040b7:	add    ebp,DWORD PTR [edi-0x10]
  4040ba:	add    BYTE PTR [eax],al
  4040bc:	or     ch,BYTE PTR [edi+0x11]
  4040bf:	add    DWORD PTR [eax],eax
  4040c1:	or     al,BYTE PTR [ebx]
  4040c3:	outs   dx,DWORD PTR ds:[esi]
  4040c4:	adc    eax,0x2d0a0001
  4040c9:	in     al,dx
  4040ca:	add    ebp,DWORD PTR [edi-0xf]
  4040cd:	add    BYTE PTR [eax],al
  4040cf:	or     ah,BYTE PTR [esi]
  4040d1:	push   es
  4040d2:	outs   dx,DWORD PTR ds:[esi]
  4040d3:	push   ss
  4040d4:	add    DWORD PTR [eax],eax
  4040d6:	or     ch,BYTE PTR [edx]
  4040d8:	adc    esi,DWORD PTR [eax]
  4040da:	add    eax,DWORD PTR [eax]
  4040dc:	jbe    0x4040de
  4040de:	add    BYTE PTR [eax],al
  4040e0:	and    eax,0x7e110000
  4040e5:	fld    DWORD PTR [eax]
  4040e7:	add    BYTE PTR [edx],cl
  4040e9:	or     al,BYTE PTR [ebx]
  4040eb:	sub    al,0x6b
  4040ed:	add    ebp,DWORD PTR [edi-0x11]
  4040f0:	add    BYTE PTR [eax],al
  4040f2:	or     cl,BYTE PTR ds:0x94509
  4040f8:	add    BYTE PTR [eax],al
  4040fa:	add    al,BYTE PTR [eax]
  4040fc:	add    BYTE PTR [eax],al
  4040fe:	or     al,BYTE PTR [eax]
  404100:	add    BYTE PTR [eax],al
  404102:	xor    eax,DWORD PTR [eax]
  404104:	add    BYTE PTR [eax],al
  404106:	xor    eax,DWORD PTR [eax]
  404108:	add    BYTE PTR [eax],al
  40410a:	xor    eax,DWORD PTR [eax]
  40410c:	add    BYTE PTR [eax],al
  40410e:	xor    eax,DWORD PTR [eax]
  404110:	add    BYTE PTR [eax],al
  404112:	xor    eax,DWORD PTR [eax]
  404114:	add    BYTE PTR [eax],al
  404116:	xor    eax,DWORD PTR [eax]
  404118:	add    BYTE PTR [eax],al
  40411a:	xor    eax,DWORD PTR [eax]
  40411c:	add    BYTE PTR [eax],al
  40411e:	sub    edi,DWORD PTR [eax]
  404120:	jb     0x4040db
  404122:	add    eax,0x2b0a7000
  404127:	xor    BYTE PTR [ebx],al
  404129:	outs   dx,DWORD PTR ds:[esi]
  40412a:	pop    ss
  40412b:	add    DWORD PTR [eax],eax
  40412d:	or     cl,BYTE PTR [ebx]
  40412f:	add    ebp,DWORD PTR [edi-0xd]
  404132:	add    BYTE PTR [eax],al
  404134:	or     cl,BYTE PTR [edi+eax*1]
  404137:	sub    BYTE PTR ds:0x2c0a0000,bh
  40413d:	add    al,0x8
  40413f:	or     ch,BYTE PTR [ebx]
  404141:	push   ss
  404142:	pop    es
  404143:	jb     0x4041ae
  404145:	add    eax,0x28087000
  40414a:	push   es
  40414b:	add    DWORD PTR [eax],eax
  40414d:	or     cl,BYTE PTR [edx]
  40414f:	sub    eax,DWORD PTR [edi]
  404151:	add    ebp,DWORD PTR [edi-0x12]
  404154:	add    BYTE PTR [eax],al
  404156:	or     cl,BYTE PTR [edx]
  404158:	push   es
  404159:	sub    al,BYTE PTR [eax]
  40415b:	add    BYTE PTR [ebx],dl
  40415d:	xor    BYTE PTR [ebx],al
  40415f:	add    BYTE PTR [ebp+0x0],bh
  404162:	add    BYTE PTR [eax],al
  404164:	add    BYTE PTR es:[eax],al
  404167:	adc    DWORD PTR [edx],eax
  404169:	sub    al,0x74
  40416b:	add    ch,BYTE PTR [eax]
  40416d:	add    DWORD PTR [eax],0x80c0600
  404173:	inc    ebp
  404174:	add    al,0x0
  404176:	add    BYTE PTR [eax],al
  404178:	cmp    BYTE PTR [eax],al
  40417a:	add    BYTE PTR [eax],al
  40417c:	sbb    eax,0x24000000
  404181:	add    BYTE PTR [eax],al
  404183:	add    BYTE PTR [edx],al
  404185:	add    BYTE PTR [eax],al
  404187:	add    BYTE PTR [ebx],ch
  404189:	dec    edi
  40418a:	add    dh,BYTE PTR [ebp+0x9]
  40418d:	add    BYTE PTR [eax],al
  40418f:	add    DWORD PTR [edx],ecx
  404191:	push   es
  404192:	outs   dx,DWORD PTR ds:[esi]
  404193:	add    al,BYTE PTR [ecx]
  404195:	add    BYTE PTR [edx],cl
  404197:	sub    al,0x46
  404199:	push   es
  40419a:	outs   dx,DWORD PTR ds:[esi]
  40419b:	add    BYTE PTR [ecx],al
  40419d:	add    BYTE PTR [edx],cl
  40419f:	outs   dx,DWORD PTR ds:[esi]
  4041a0:	out    dx,al
  4041a1:	add    BYTE PTR [eax],al
  4041a3:	or     ch,BYTE PTR [edx]
  4041a5:	add    dh,BYTE PTR [eax+edx*2+0x0]
  4041a9:	add    BYTE PTR [ecx],al
  4041ab:	sub    al,BYTE PTR [edx]
  4041ad:	movs   DWORD PTR es:[edi],DWORD PTR ds:[esi]
  4041ae:	add    BYTE PTR [eax],0x0
  4041b1:	add    DWORD PTR ds:0x5bd7206,ebp
  4041b7:	add    BYTE PTR [eax+0x2a],dh
  4041ba:	jb     0x404185
  4041bc:	add    eax,0x22a7000
  4041c1:	movs   DWORD PTR es:[edi],DWORD PTR ds:[esi]
  4041c2:	ins    DWORD PTR es:[edi],dx
  4041c3:	add    BYTE PTR [eax],al
  4041c5:	add    DWORD PTR [ebx],ecx
  4041c7:	adc    al,BYTE PTR [ecx]
  4041c9:	jb     0x40419e
  4041cb:	add    eax,0x18287000
  4041d0:	add    DWORD PTR [eax],eax
  4041d2:	or     ch,BYTE PTR [eax]
  4041d4:	sbb    DWORD PTR [ecx],eax
  4041d6:	add    BYTE PTR [edx],cl
  4041d8:	sub    dh,BYTE PTR [ebx+0x1a]
  4041db:	add    DWORD PTR [eax],eax
  4041dd:	or     bh,BYTE PTR [edx+0x7e]
  4041e0:	fld    DWORD PTR [eax]
  4041e2:	add    BYTE PTR [edx],cl
  4041e4:	sub    al,BYTE PTR [eax]
  4041e6:	add    BYTE PTR [eax],al
  4041e8:	adc    esi,DWORD PTR [eax]
  4041ea:	add    al,BYTE PTR [eax]
  4041ec:	mov    DWORD PTR [eax],eax
  4041ee:	add    BYTE PTR [eax],al
  4041f0:	daa    
  4041f1:	add    BYTE PTR [eax],al
  4041f3:	adc    DWORD PTR [edx],eax
  4041f5:	sub    al,0x7c
  4041f7:	add    ch,BYTE PTR [eax]
  4041f9:	add    DWORD PTR [eax],0x80c0600
  4041ff:	inc    ebp
  404200:	add    al,0x0
  404202:	add    BYTE PTR [eax],al
  404204:	dec    esp
  404205:	add    BYTE PTR [eax],al
  404207:	add    BYTE PTR [eax+eax*1],ah
  40420a:	add    BYTE PTR [eax],al
  40420c:	xor    BYTE PTR [eax],al
  40420e:	add    BYTE PTR [eax],al
  404210:	add    al,BYTE PTR [eax]
  404212:	add    BYTE PTR [eax],al
  404214:	sub    edx,DWORD PTR [ecx+0x2]
  404217:	jne    0x404222
  404219:	add    BYTE PTR [eax],al
  40421b:	add    DWORD PTR [edx],ecx
  40421d:	push   es
  40421e:	outs   dx,DWORD PTR ds:[esi]
  40421f:	add    al,BYTE PTR [ecx]
  404221:	add    BYTE PTR [edx],cl
  404223:	sub    al,0x4e
  404225:	push   es
  404226:	outs   dx,DWORD PTR ds:[esi]
  404227:	add    BYTE PTR [ecx],al
  404229:	add    BYTE PTR [edx],cl
  40422b:	outs   dx,DWORD PTR ds:[esi]
  40422c:	out    dx,al
  40422d:	add    BYTE PTR [eax],al
  40422f:	or     cl,BYTE PTR [ebx]
  404231:	pop    es
  404232:	sub    BYTE PTR [ebx],bl
  404234:	add    DWORD PTR [eax],eax
  404236:	or     ch,BYTE PTR [edx]
  404238:	add    dh,BYTE PTR [eax+edx*2+0x0]
  40423c:	add    BYTE PTR [ecx],al
  40423e:	sub    BYTE PTR [ebx],bl
  404240:	add    DWORD PTR [eax],eax
  404242:	or     ch,BYTE PTR [edx]
  404244:	add    ah,BYTE PTR [ebp+0x1000080]
  40424a:	sub    eax,0x230a
  40424f:	add    BYTE PTR [eax],al
  404251:	add    BYTE PTR [eax],al
  404253:	add    BYTE PTR [eax],al
  404255:	sub    ah,BYTE PTR [ebx]
  404257:	add    BYTE PTR [eax],al
  404259:	add    BYTE PTR [eax],al
  40425b:	add    BYTE PTR [eax],al
  40425d:	lock aas 
  40425f:	sub    al,BYTE PTR [edx]
  404261:	movs   DWORD PTR es:[edi],DWORD PTR ds:[esi]
  404262:	ins    DWORD PTR es:[edi],dx
  404263:	add    BYTE PTR [eax],al
  404265:	add    DWORD PTR [edx],ebp
  404267:	add    ch,BYTE PTR [eax]
  404269:	sbb    BYTE PTR [ecx],al
  40426b:	add    BYTE PTR [edx],cl
  40426d:	sub    BYTE PTR [ecx+eax*1],bl
  404270:	add    BYTE PTR [edx],cl
  404272:	sub    ah,BYTE PTR [ebx]
  404274:	add    BYTE PTR [eax],al
  404276:	add    BYTE PTR [eax],al
  404278:	add    BYTE PTR [eax],al
  40427a:	clc    
  40427b:	jmp    FWORD PTR [edx]
  40427d:	add    BYTE PTR [eax],al
  40427f:	add    BYTE PTR [ebx],dl
  404281:	xor    BYTE PTR [edx],al
  404283:	add    BYTE PTR [ebp+0x0],ch
  404286:	add    BYTE PTR [eax],al
  404288:	add    BYTE PTR es:[eax],al
  40428b:	adc    DWORD PTR [edx],eax
  40428d:	sub    al,0x68
  40428f:	add    ch,BYTE PTR [eax]
  404291:	add    DWORD PTR [eax],0x80c0600
  404297:	inc    ebp
  404298:	add    al,0x0
  40429a:	add    BYTE PTR [eax],al
  40429c:	add    BYTE PTR es:[eax],al
  40429f:	add    BYTE PTR [eax],dl
  4042a1:	add    BYTE PTR [eax],al
  4042a3:	add    BYTE PTR [edi],bl
  4042a5:	add    BYTE PTR [eax],al
  4042a7:	add    BYTE PTR [edx],al
  4042a9:	add    BYTE PTR [eax],al
  4042ab:	add    BYTE PTR [ebx],ch
  4042ad:	inc    ebx
  4042ae:	add    dh,BYTE PTR [ebp+0x9]
  4042b1:	add    BYTE PTR [eax],al
  4042b3:	add    DWORD PTR [edx],ecx
  4042b5:	push   es
  4042b6:	outs   dx,DWORD PTR ds:[esi]
  4042b7:	add    al,BYTE PTR [ecx]
  4042b9:	add    BYTE PTR [edx],cl
  4042bb:	sub    al,BYTE PTR [edx]
  4042bd:	je     0x40430f
  4042bf:	add    BYTE PTR [eax],al
  4042c1:	add    DWORD PTR [edi+0x37],ebp
  4042c4:	add    BYTE PTR [eax],al
  4042c6:	or     dl,BYTE PTR [esi]
  4042c8:	inc    BYTE PTR [edx]
  4042ca:	sub    al,BYTE PTR [edx]
  4042cc:	movs   DWORD PTR es:[edi],DWORD PTR ds:[esi]
  4042cd:	add    BYTE PTR [eax],0x0
  4042d0:	add    DWORD PTR [edx],ebp
  4042d2:	add    ah,BYTE PTR [ebp+0x100006d]
  4042d8:	or     eax,DWORD PTR [edi]
  4042da:	and    eax,DWORD PTR [eax]
  4042dc:	add    BYTE PTR [eax],al
  4042de:	add    BYTE PTR [eax],al
  4042e0:	add    BYTE PTR [eax],al
  4042e2:	add    BYTE PTR [esi],ch
  4042e4:	or     al,BYTE PTR [edi]
  4042e6:	sub    BYTE PTR ds:0x160a0001,bl
  4042ec:	inc    BYTE PTR [ecx]
  4042ee:	sub    dl,BYTE PTR [esi]
  4042f0:	sub    dh,BYTE PTR [ebx+0x1a]
  4042f3:	add    DWORD PTR [eax],eax
  4042f5:	or     bh,BYTE PTR [edx+0x17]
  4042f8:	sub    ch,BYTE PTR [edx+0x97502]
  4042fe:	add    BYTE PTR [ecx],al
  404300:	sub    al,0x2
  404302:	sbb    DWORD PTR [edx],ebp
  404304:	add    dh,BYTE PTR [ebp+0x50]
  404307:	add    BYTE PTR [eax],al
  404309:	add    DWORD PTR [edx+eax*1],ebp
  40430c:	pop    ss
  40430d:	sub    al,BYTE PTR [edx]
  40430f:	jne    0x40437e
  404311:	add    BYTE PTR [eax],al
  404313:	add    DWORD PTR [edx+eax*1],ebp
  404316:	push   ss
  404317:	sub    al,BYTE PTR [edx]
  404319:	jne    0x40429b
  40431b:	add    BYTE PTR [eax],al
  40431d:	add    DWORD PTR [edx+eax*1],ebp
  404320:	sbb    BYTE PTR [edx],ch
  404322:	sbb    ebp,DWORD PTR [edx]
  404324:	sbb    esi,DWORD PTR [eax]
  404326:	add    eax,DWORD PTR [eax]
  404328:	add    DWORD PTR es:[eax],eax
  40432b:	add    BYTE PTR [eax],ch
  40432d:	add    BYTE PTR [eax],al
  40432f:	adc    DWORD PTR [ebx],eax
  404331:	outs   dx,DWORD PTR ds:[esi]
  404332:	fild   DWORD PTR [eax]
  404334:	add    BYTE PTR [edx],cl
  404336:	jb     0x404395
  404338:	add    al,0x0
  40433a:	jo     0x4043ab
  40433c:	fild   WORD PTR [eax]
  40433e:	add    BYTE PTR [edx],cl
  404340:	cmp    esi,edi
  404342:	add    BYTE PTR [eax],al
  404344:	add    BYTE PTR [ebx],al
  404346:	outs   dx,DWORD PTR ds:[esi]
  404347:	fiadd  DWORD PTR [eax]
  404349:	add    BYTE PTR [edx],cl
  40434b:	and    eax,0xf1390d
  404350:	add    BYTE PTR [eax],al
  404352:	or     DWORD PTR [edx-0x2d],esi
  404355:	add    al,0x0
  404357:	jo     0x404381
  404359:	xchg   ecx,eax
  40435a:	add    BYTE PTR [eax],al
  40435c:	or     ch,BYTE PTR ds:0xc3720935
  404362:	add    al,0x0
  404364:	jo     0x40438e
  404366:	xchg   ecx,eax
  404367:	add    BYTE PTR [eax],al
  404369:	or     bh,BYTE PTR [edx]
  40436b:	lahf   
  40436c:	add    BYTE PTR [eax],al
  40436e:	add    BYTE PTR [ecx],cl
  404370:	jb     0x404323
  404372:	add    al,0x0
  404374:	jo     0x40439e
  404376:	xchg   ecx,eax
  404377:	add    BYTE PTR [eax],al
  404379:	or     bh,BYTE PTR [edx]
  40437b:	mov    al,ds:0x9000000
  404380:	jb     0x404329
  404382:	add    al,0x0
  404384:	jo     0x4043ae
  404386:	xchg   ecx,eax
  404387:	add    BYTE PTR [eax],al
  404389:	or     bh,BYTE PTR [edx]
  40438b:	mov    ds:0x38000000,al
  404390:	scas   eax,DWORD PTR es:[edi]
  404391:	add    BYTE PTR [eax],al
  404393:	add    BYTE PTR [esi*2+0x1000024],al
  40439a:	or     al,BYTE PTR [esi]
  40439c:	sub    al,0x4e
  40439e:	push   es
  40439f:	outs   dx,DWORD PTR ds:[esi]
  4043a0:	push   ds
  4043a1:	add    DWORD PTR [eax],eax
  4043a3:	or     dl,BYTE PTR [ebx]
  4043a5:	add    al,0x2b
  4043a7:	and    al,0x11
  4043a9:	add    al,0x6f
  4043ab:	jae    0x4043ad
  4043ad:	add    BYTE PTR [edx],cl
  4043af:	je     0x4043d3
  4043b1:	add    BYTE PTR [eax],al
  4043b3:	add    DWORD PTR [ebx],ecx
  4043b5:	add    bh,BYTE PTR [ebx+0x39]
  4043b8:	add    BYTE PTR [eax],al
  4043ba:	add    al,0x7
  4043bc:	outs   dx,DWORD PTR ds:[esi]
  4043bd:	repz add BYTE PTR [eax],al
  4043c0:	or     al,BYTE PTR [edi]
  4043c2:	outs   dx,DWORD PTR ds:[esi]
  4043c3:	out    dx,al
  4043c4:	add    BYTE PTR [eax],al
  4043c6:	or     ch,BYTE PTR [edi+0x1f]
  4043c9:	add    DWORD PTR [eax],eax
  4043cb:	or     dl,BYTE PTR [ecx]
  4043cd:	add    al,0x6f
  4043cf:	jbe    0x4043d1
  4043d1:	add    BYTE PTR [edx],cl
  4043d3:	sub    eax,0x1136ded3
  4043d8:	add    al,0x75
  4043da:	add    BYTE PTR gs:[eax],al
  4043dd:	add    DWORD PTR [ebx],edx
  4043df:	add    eax,0x72c0511
  4043e4:	adc    DWORD PTR ds:0x686f,eax
  4043ea:	or     bl,ah
  4043ec:	add    al,0x75
  4043ee:	and    al,BYTE PTR [eax]
  4043f0:	add    BYTE PTR [ecx],al
  4043f2:	or     al,0x8
  4043f4:	sub    al,0x17
  4043f6:	add    bh,BYTE PTR [ebx+0x39]
  4043f9:	add    BYTE PTR [eax],al
  4043fb:	add    al,0x8
  4043fd:	outs   dx,DWORD PTR ds:[esi]
  4043fe:	repz add BYTE PTR [eax],al
  404401:	or     cl,BYTE PTR [eax]
  404403:	outs   dx,DWORD PTR ds:[esi]
  404404:	out    dx,al
  404405:	add    BYTE PTR [eax],al
  404407:	or     ch,BYTE PTR [edi+0x1f]
  40440a:	add    DWORD PTR [eax],eax
  40440c:	or     ch,BYTE PTR [edx]
  40440e:	sub    BYTE PTR [eax+eax*1+0x0],ch
  404412:	push   es
  404413:	add    al,0x75
  404415:	and    al,BYTE PTR [eax]
  404417:	add    BYTE PTR [ecx],al
  404419:	outs   dx,DWORD PTR ds:[esi]
  40441a:	jae    0x40441c
  40441c:	add    BYTE PTR [esi],al
  40441e:	sub    ch,BYTE PTR [eax]
  404420:	ins    BYTE PTR es:[edi],dx
  404421:	add    BYTE PTR [eax],al
  404423:	push   es
  404424:	add    al,0xa5
  404426:	ins    DWORD PTR es:[edi],dx
  404427:	add    BYTE PTR [eax],al
  404429:	add    DWORD PTR [ecx+0x6f],ebp
  40442c:	jne    0x40442e
  40442e:	add    BYTE PTR [esi],al
  404430:	sub    ch,BYTE PTR [eax]
  404432:	ins    BYTE PTR es:[edi],dx
  404433:	add    BYTE PTR [eax],al
  404435:	push   es
  404436:	add    al,0xa5
  404438:	ins    DWORD PTR es:[edi],dx
  404439:	add    BYTE PTR [eax],al
  40443b:	add    DWORD PTR [ecx+0x6f],ebp
  40443e:	jbe    0x404440
  404440:	add    BYTE PTR [esi],al
  404442:	sub    al,BYTE PTR [edx]
  404444:	jnp    0x40447e
  404446:	add    BYTE PTR [eax],al
  404448:	add    al,0x3
  40444a:	add    al,0x73
  40444c:	lea    eax,[eax]
  40444e:	add    BYTE PTR [esi],al
  404450:	outs   dx,DWORD PTR ds:[esi]
  404451:	and    BYTE PTR [ecx],al
  404453:	add    BYTE PTR [edx],cl
  404455:	sub    al,BYTE PTR [eax]
  404457:	add    BYTE PTR [ecx],al
  404459:	adc    BYTE PTR [eax],al
  40445b:	add    BYTE PTR [edx],al
  40445d:	add    BYTE PTR [esi+0x0],dh
  404460:	xor    DWORD PTR [edi+0x1500],esp
  404466:	add    BYTE PTR [eax],al
  404468:	pop    esi
  404469:	add    bh,BYTE PTR [ebx+0x38]
  40446c:	add    BYTE PTR [eax],al
  40446e:	add    al,0x6f
  404470:	and    DWORD PTR [ecx],eax
  404472:	add    BYTE PTR [edx],cl
  404474:	add    bh,BYTE PTR [ebx+0x39]
  404477:	add    BYTE PTR [eax],al
  404479:	add    al,0x6f
  40447b:	and    al,BYTE PTR [ecx]
  40447d:	add    BYTE PTR [edx],cl
  40447f:	sub    al,BYTE PTR [esi+0x2]
  404482:	jnp    0x4044bd
  404484:	add    BYTE PTR [eax],al
  404486:	add    al,0x7e
  404488:	fld    DWORD PTR [eax]
  40448a:	add    BYTE PTR [edx],cl
  40448c:	outs   dx,DWORD PTR ds:[esi]
  40448d:	and    eax,DWORD PTR [ecx]
  40448f:	add    BYTE PTR [edx],cl
  404491:	sub    al,BYTE PTR [eax]
  404493:	add    BYTE PTR [ebx],dl
  404495:	xor    BYTE PTR [ebx],al
  404497:	add    BYTE PTR [eax],bl
  404499:	add    BYTE PTR [eax],al
  40449b:	add    BYTE PTR [eax+eax*1],cl
  40449e:	add    BYTE PTR [ecx],dl
  4044a0:	add    bh,BYTE PTR [ebx+0x39]
  4044a3:	add    BYTE PTR [eax],al
  4044a5:	add    al,0x3
  4044a7:	adc    al,BYTE PTR [eax]
  4044a9:	outs   dx,DWORD PTR ds:[esi]
  4044aa:	and    al,0x1
  4044ac:	add    BYTE PTR [edx],cl
  4044ae:	sub    eax,0xd97e06
  4044b3:	add    BYTE PTR [edx],cl
  4044b5:	sub    al,BYTE PTR [esi]
  4044b7:	sub    dl,BYTE PTR [ebx]
  4044b9:	xor    BYTE PTR [ebx],al
  4044bb:	add    BYTE PTR [ebx],dh
  4044bd:	add    BYTE PTR [eax],al
  4044bf:	add    BYTE PTR [ecx],ch
  4044c1:	add    BYTE PTR [eax],al
  4044c3:	adc    DWORD PTR [ebx],eax
  4044c5:	outs   dx,DWORD PTR ds:[esi]
  4044c6:	aaa    
  4044c7:	add    BYTE PTR [eax],al
  4044c9:	or     ch,BYTE PTR [ecx+ecx*1]
  4044cc:	add    al,BYTE PTR [ebx]
  4044ce:	outs   dx,DWORD PTR ds:[esi]
  4044cf:	sgdtd  [eax]
  4044d2:	or     ch,BYTE PTR [ebx]
  4044d4:	add    eax,0xd97e
  4044d9:	or     cl,BYTE PTR [edx]
  4044db:	add    al,0x6
  4044dd:	jae    0x4044bd
  4044df:	add    BYTE PTR [eax],al
  4044e1:	or     cl,BYTE PTR [ebx]
  4044e3:	add    bh,BYTE PTR [ebx+0x38]
  4044e6:	add    BYTE PTR [eax],al
  4044e8:	add    al,0x7
  4044ea:	adc    al,BYTE PTR [edx]
  4044ec:	outs   dx,DWORD PTR ds:[esi]
  4044ed:	and    eax,0x2d0a0001
  4044f2:	add    dl,BYTE PTR [edx+ebp*1]
  4044f5:	or     BYTE PTR [edx],ch
  4044f7:	or     dl,BYTE PTR [edx+ebp*1]
  4044fa:	or     dl,BYTE PTR [esi]
  4044fc:	sub    cl,BYTE PTR [edx]
  4044fe:	push   ss
  4044ff:	sub    cl,BYTE PTR [edx]
  404501:	push   ss
  404502:	sub    dh,BYTE PTR [esi]
  404504:	add    bh,BYTE PTR [ebx+0x38]
  404507:	add    BYTE PTR [eax],al
  404509:	add    al,0x3
  40450b:	outs   dx,DWORD PTR ds:[esi]
  40450c:	add    DWORD PTR es:[eax],eax
  40450f:	or     ch,BYTE PTR [edx]
  404511:	jbe    0x404515
  404513:	jae    0x40453c
  404515:	add    DWORD PTR [eax],eax
  404517:	or     bh,BYTE PTR [ebp+0x38]
  40451a:	add    BYTE PTR [eax],al
  40451c:	add    al,0x2
  40451e:	jae    0x404548
  404520:	add    DWORD PTR [eax],eax
  404522:	or     bh,BYTE PTR [ebp+0x39]
  404525:	add    BYTE PTR [eax],al
  404527:	add    al,0x2
  404529:	sub    BYTE PTR [ecx],ch
  40452b:	add    DWORD PTR [eax],eax
  40452d:	or     ch,BYTE PTR [edx]
  40452f:	cmp    al,BYTE PTR [edx]
  404531:	sub    BYTE PTR [ebx+0x20a0000],bl
  404537:	add    edi,DWORD PTR [ebp+0x3a]
  40453a:	add    BYTE PTR [eax],al
  40453c:	add    al,0x2a
  40453e:	or     dl,BYTE PTR [edi]
  404540:	sub    cl,BYTE PTR [edx]
  404542:	push   ss
  404543:	sub    cl,BYTE PTR [edx]
  404545:	sbb    ebp,DWORD PTR [edx]
  404547:	add    BYTE PTR [ebx],dl
  404549:	xor    BYTE PTR [ecx],al
  40454b:	add    BYTE PTR [ebx],dh
  40454d:	add    BYTE PTR [eax],al
  40454f:	add    BYTE PTR [edx],ch
  404551:	add    BYTE PTR [eax],al
  404553:	adc    DWORD PTR [edx],eax
  404555:	jnp    0x404591
  404557:	add    BYTE PTR [eax],al
  404559:	add    al,0x75
  40455b:	and    al,0x0
  40455d:	add    BYTE PTR [ecx],al
  40455f:	or     al,BYTE PTR [esi]
  404561:	sub    al,0x7
  404563:	push   es
  404564:	jae    0x4044f8
  404566:	add    BYTE PTR [eax],al
  404568:	push   es
  404569:	sub    al,BYTE PTR [edx]
  40456b:	jnp    0x4045a7
  40456d:	add    BYTE PTR [eax],al
  40456f:	add    al,0x75
  404571:	and    al,BYTE PTR [eax]
  404573:	add    BYTE PTR [ecx],al
  404575:	or     eax,DWORD PTR [edi]
  404577:	sub    al,0x7
  404579:	pop    es
  40457a:	jae    0x404516
  40457c:	add    BYTE PTR [eax],al
  40457e:	push   es
  40457f:	sub    al,BYTE PTR [edx]
  404581:	jnp    0x4045bd
  404583:	add    BYTE PTR [eax],al
  404585:	add    al,0x2a
  404587:	push   esi
  404588:	add    ch,BYTE PTR [eax]
  40458a:	sub    al,BYTE PTR [ecx]
  40458c:	add    BYTE PTR [edx],cl
  40458e:	add    al,BYTE PTR [ebx]
  404590:	jge    0x4045cd
  404592:	add    BYTE PTR [eax],al
  404594:	add    al,0x2
  404596:	push   ss
  404597:	jge    0x4045d5
  404599:	add    BYTE PTR [eax],al
  40459b:	add    al,0x2a
  40459d:	add    BYTE PTR [eax],al
  40459f:	add    BYTE PTR [ebx],dl
  4045a1:	xor    BYTE PTR [edx],al
  4045a3:	add    BYTE PTR [edx],bl
  4045a5:	add    BYTE PTR [eax],al
  4045a7:	add    BYTE PTR [ebx],ch
  4045a9:	add    BYTE PTR [eax],al
  4045ab:	adc    DWORD PTR [edx],eax
  4045ad:	jnp    0x4045ea
  4045af:	add    BYTE PTR [eax],al
  4045b1:	add    al,0x73
  4045b3:	xchg   edx,eax
  4045b4:	add    BYTE PTR [eax],al
  4045b6:	push   es
  4045b7:	or     al,BYTE PTR [esi]
  4045b9:	add    bh,BYTE PTR [ebx+0x3c]
  4045bc:	add    BYTE PTR [eax],al
  4045be:	add    al,0x7d
  4045c0:	cmp    al,0x0
  4045c2:	add    BYTE PTR [esi+eax*1],al
  4045c5:	sub    dl,BYTE PTR [esi+0x3c7b02]
  4045cb:	add    BYTE PTR [edx+eax*1],al
  4045ce:	jnp    0x40460b
  4045d0:	add    BYTE PTR [eax],al
  4045d2:	add    al,0x6f
  4045d4:	in     eax,0x0
  4045d6:	add    BYTE PTR [edx],cl
  4045d8:	das    
  4045d9:	adc    BYTE PTR [edx],al
  4045db:	and    eax,0x3c7b
  4045e0:	add    al,0x17
  4045e2:	pop    eax
  4045e3:	jge    0x404621
  4045e5:	add    BYTE PTR [eax],al
  4045e7:	add    al,0x17
  4045e9:	sub    dl,BYTE PTR [esi]
  4045eb:	sub    dl,BYTE PTR [edx+0x3c7b0216]
  4045f1:	add    BYTE PTR [eax],al
  4045f3:	add    al,0x32
  4045f5:	add    dl,BYTE PTR [edx+ebp*1]
  4045f8:	add    bh,BYTE PTR [ebx+0x3b]
  4045fb:	add    BYTE PTR [eax],al
  4045fd:	add    al,0x2
  4045ff:	jnp    0x40463d
  404601:	add    BYTE PTR [eax],al
  404603:	add    al,0x17
  404605:	pop    ecx
  404606:	outs   dx,DWORD PTR ds:[esi]
  404607:	out    0x0,eax
  404609:	add    BYTE PTR [edx],cl
  40460b:	je     0x40462f
  40460d:	add    BYTE PTR [eax],al
  40460f:	add    DWORD PTR [edx],ebp
  404611:	push   ds
  404612:	add    bh,BYTE PTR [ebx+0x3c]
  404615:	add    BYTE PTR [eax],al
  404617:	add    al,0x2a
  404619:	xor    al,BYTE PTR [edx]
  40461b:	jnp    0x404658
  40461d:	add    BYTE PTR [eax],al
  40461f:	add    al,0x6f
  404621:	in     eax,0x0
  404623:	add    BYTE PTR [edx],cl
  404625:	sub    ah,BYTE PTR [edx]
  404627:	add    dl,BYTE PTR [esi]
  404629:	jge    0x404667
  40462b:	add    BYTE PTR [eax],al
  40462d:	add    al,0x2a
  40462f:	xor    al,BYTE PTR [edx]
  404631:	jnp    0x40466e
  404633:	add    BYTE PTR [eax],al
  404635:	add    al,0x6f
  404637:	push   ds
  404638:	add    DWORD PTR [eax],eax
  40463a:	or     ch,BYTE PTR [edx]
  40463c:	push   esi
  40463d:	add    ch,BYTE PTR [eax]
  40463f:	sub    al,BYTE PTR [ecx]
  404641:	add    BYTE PTR [edx],cl
  404643:	add    al,BYTE PTR [ebx]
  404645:	jge    0x404684
  404647:	add    BYTE PTR [eax],al
  404649:	add    al,0x2
  40464b:	push   ss
  40464c:	jge    0x40468e
  40464e:	add    BYTE PTR [eax],al
  404650:	add    al,0x2a
  404652:	jb     0x404656
  404654:	sub    BYTE PTR [edx],ch
  404656:	add    DWORD PTR [eax],eax
  404658:	or     al,BYTE PTR [edx]
  40465a:	add    edi,DWORD PTR [ebp+0x3d]
  40465d:	add    BYTE PTR [eax],al
  40465f:	add    al,0x2
  404661:	add    al,0x7d
  404663:	add    BYTE PTR ds:[eax],al
  404666:	add    al,0x2
  404668:	add    eax,0x3f7d
  40466d:	add    al,0x2a
  40466f:	bound  eax,QWORD PTR [edx]
  404671:	jnp    0x4046b0
  404673:	add    BYTE PTR [eax],al
  404675:	add    al,0x2
  404677:	jnp    0x4046b7
  404679:	add    BYTE PTR [eax],al
  40467b:	add    al,0x2
  40467d:	jnp    0x4046be
  40467f:	add    BYTE PTR [eax],al
  404681:	add    al,0x73
  404683:	fwait
  404684:	add    BYTE PTR [eax],al
  404686:	push   es
  404687:	sub    cl,BYTE PTR [esi+0x2]
  40468a:	jnp    0x4046cc
  40468c:	add    BYTE PTR [eax],al
  40468e:	add    al,0x2c
  404690:	add    dl,BYTE PTR [esi]
  404692:	sub    al,BYTE PTR [edx]
  404694:	pop    ss
  404695:	jge    0x4046d7
  404697:	add    BYTE PTR [eax],al
  404699:	add    al,0x17
  40469b:	sub    bl,BYTE PTR [esi]
  40469d:	add    bh,BYTE PTR [ebx+0x3d]
  4046a0:	add    BYTE PTR [eax],al
  4046a2:	add    al,0x2a
  4046a4:	push   ds
  4046a5:	add    bh,BYTE PTR [ebx+0x3e]
  4046a8:	add    BYTE PTR [eax],al
  4046aa:	add    al,0x2a
  4046ac:	push   ds
  4046ad:	add    bh,BYTE PTR [ebx+0x3f]
  4046b0:	add    BYTE PTR [eax],al
  4046b2:	add    al,0x2a
  4046b4:	and    al,BYTE PTR [edx]
  4046b6:	push   ss
  4046b7:	jge    0x4046f9
  4046b9:	add    BYTE PTR [eax],al
  4046bb:	add    al,0x2a
  4046bd:	or     dl,BYTE PTR [edx+ebp*1]
  4046c0:	push   ds
  4046c1:	add    ch,BYTE PTR [eax]
  4046c3:	fwait
  4046c4:	add    BYTE PTR [eax],al
  4046c6:	or     ch,BYTE PTR [edx]
  4046c8:	sahf   
  4046c9:	pop    es
  4046ca:	add    BYTE PTR [eax],al
  4046cc:	into   
  4046cd:	retf   0xbeef
  4046d0:	add    DWORD PTR [eax],eax
  4046d2:	add    BYTE PTR [eax],al
  4046d4:	xchg   ecx,eax
  4046d5:	add    BYTE PTR [eax],al
  4046d7:	add    BYTE PTR [ebx+edx*2+0x79],ch
  4046db:	jae    0x404751
  4046dd:	gs ins DWORD PTR es:[edi],dx
  4046df:	cs push edx
  4046e1:	gs jae 0x404753
  4046e4:	jne    0x404758
  4046e6:	arpl   WORD PTR [ebp+0x73],sp
  4046e9:	cs push edx
  4046eb:	gs jae 0x40475d
  4046ee:	jne    0x404762
  4046f0:	arpl   WORD PTR [ebp+0x52],sp
  4046f3:	gs popa 
  4046f5:	fs gs jb 0x404725
  4046f9:	and    BYTE PTR [ebp+0x73],ch
  4046fc:	arpl   WORD PTR [edi+0x72],bp
  4046ff:	ins    BYTE PTR es:[edi],dx
  404700:	imul   esp,DWORD PTR [edx+0x2c],0x72655620
  404707:	jae    0x404772
  404709:	outs   dx,DWORD PTR ds:[esi]
  40470a:	outs   dx,BYTE PTR ds:[esi]
  40470b:	cmp    eax,0x2e302e34
  404710:	xor    BYTE PTR [esi],ch
  404712:	xor    BYTE PTR [eax+eiz*1],ch
  404715:	inc    ebx
  404716:	jne    0x404784
  404718:	je     0x40478f
  40471a:	jb     0x404781
  40471c:	cmp    eax,0x7475656e
  404721:	jb     0x404784
  404723:	ins    BYTE PTR es:[edi],dx
  404724:	sub    al,0x20
  404726:	push   eax
  404727:	jne    0x40478b
  404729:	ins    BYTE PTR es:[edi],dx
  40472a:	imul   esp,DWORD PTR [ebx+0x4b],0x6f547965
  404731:	imul   esp,DWORD PTR [ebp+0x6e],0x3d
  404735:	bound  esi,QWORD PTR [edi]
  404737:	aaa    
  404738:	popa   
  404739:	xor    eax,0x31363563
  40473e:	cmp    DWORD PTR [ebx],esi
  404740:	xor    al,0x65
  404742:	xor    BYTE PTR [eax],bh
  404744:	cmp    DWORD PTR [ebx],esp
  404746:	push   ebx
  404747:	jns    0x4047bc
  404749:	je     0x4047b0
  40474b:	ins    DWORD PTR es:[edi],dx
  40474c:	cs push edx
  40474e:	gs jae 0x4047c0
  404751:	jne    0x4047c5
  404753:	arpl   WORD PTR [ebp+0x73],sp
  404756:	cs push edx
  404758:	jne    0x4047c8
  40475a:	je     0x4047c5
  40475c:	ins    DWORD PTR es:[edi],dx
  40475d:	gs push edx
  40475f:	gs jae 0x4047d1
  404762:	jne    0x4047d6
  404764:	arpl   WORD PTR [ebp+0x53],sp
  404767:	gs je  0x40476c
  40476a:	add    BYTE PTR [eax],al
  40476c:	add    BYTE PTR [eax],cl
  40476e:	add    BYTE PTR [eax],al
  404770:	add    BYTE PTR [eax],al
  404772:	add    BYTE PTR [eax],al
  404774:	add    BYTE PTR [eax+0x41],dl
  404777:	inc    esp
  404778:	push   eax
  404779:	inc    ecx
  40477a:	inc    esp
  40477b:	push   eax
  40477c:	push   ss
  40477d:	push   0x3a
  40477f:	and    DWORD PTR [ebx],0x65
  404782:	adc    DWORD PTR [ebx-0x59097903],ebx
  404788:	push   es
  404789:	lock lea ebp,[eax-0x276aa61e]
  404790:	inc    edi
  404791:	popf   
  404792:	push   edi
  404793:	fisub  WORD PTR [eax]
  404795:	enter  0xd0e,0xb4
  404799:	sbb    DWORD PTR [esi+0x322c],ebx
  40479f:	add    BYTE PTR [ebp+0x75000000],ch
  4047a5:	add    BYTE PTR [eax],al
  4047a7:	add    BYTE PTR [edi+0x0],al
  4047aa:	add    BYTE PTR [eax],al
  4047ac:	add    BYTE PTR [eax],al
  4047ae:	add    BYTE PTR [eax],al
  4047b0:	pop    ds
  4047b1:	add    BYTE PTR [eax],al
  4047b3:	add    BYTE PTR [esi+0x58000000],bl
  4047b9:	add    BYTE PTR [eax],al
  4047bb:	add    dh,cl
  4047bd:	add    DWORD PTR [eax],eax
  4047bf:	add    BYTE PTR [edx],bl
  4047c1:	inc    ebp
  4047c2:	add    BYTE PTR [eax+0x0],bh
  4047c5:	add    BYTE PTR gs:[ebx+0x0],ah
  4047c9:	jne    0x4047cb
  4047cb:	je     0x4047cd
  4047cd:	imul   eax,DWORD PTR [eax],0x6e006f
  4047d3:	push   esp
  4047d4:	add    BYTE PTR [ecx+0x0],ch
  4047d7:	ins    DWORD PTR es:[edi],dx
  4047d8:	add    BYTE PTR [ebp+0x0],ah
  4047db:	add    BYTE PTR [eax],al
  4047dd:	add    BYTE PTR [eax],al
  4047df:	push   cs
  4047e0:	dec    edx
  4047e1:	add    BYTE PTR [ecx+0x0],ch
  4047e4:	je     0x4047e6
  4047e6:	push   esp
  4047e7:	add    BYTE PTR [ecx+0x0],ch
  4047ea:	ins    DWORD PTR es:[edi],dx
  4047eb:	add    BYTE PTR [ebp+0x0],ah
  4047ee:	and    eax,DWORD PTR [eax]
  4047f0:	add    BYTE PTR [eax],al
  4047f2:	adc    BYTE PTR [eax+eax*1+0x6f],cl
  4047f6:	add    BYTE PTR [ecx+0x0],ah
  4047f9:	add    BYTE PTR fs:[eax+eax*1+0x69],dl
  4047fe:	add    BYTE PTR [ebp+0x0],ch
  404801:	add    BYTE PTR gs:[eax+0x0],al
  404805:	add    BYTE PTR [eax],al
  404807:	or     al,0x4e
  404809:	add    BYTE PTR [edi+0x0],ch
  40480c:	dec    esi
  40480d:	add    BYTE PTR [edi+0x0],al
  404810:	add    BYTE PTR gs:[esi+0x0],ch
  404814:	pop    esi
  404815:	add    BYTE PTR [eax],al
  404817:	add    BYTE PTR [eax],bl
  404819:	push   esp
  40481a:	add    BYTE PTR [ecx+0x0],bh
  40481d:	jo     0x40481f
  40481f:	add    BYTE PTR gs:[edx+0x0],dl
  404823:	add    BYTE PTR gs:[ecx+0x0],dh
  404827:	jne    0x404829
  404829:	imul   eax,DWORD PTR [eax],0x650072
  40482f:	fs add dh,al
  404832:	add    BYTE PTR [eax],al
  404834:	add    BYTE PTR [edx*2+0x72006e00],ah
  40483b:	add    BYTE PTR [ebp+0x0],ah
  40483e:	arpl   WORD PTR [eax],ax
  404840:	outs   dx,DWORD PTR ds:[esi]
  404841:	add    BYTE PTR [edi+0x0],ah
  404844:	outs   dx,BYTE PTR ds:[esi]
  404845:	add    BYTE PTR [ecx+0x0],ch
  404848:	jp     0x40484a
  40484a:	add    BYTE PTR gs:[eax+eax*1+0x4f],ah
  40484f:	add    BYTE PTR [eax+0x0],dh
  404852:	je     0x404854
  404854:	imul   eax,DWORD PTR [eax],0x6e006f
  40485a:	cmp    BYTE PTR [ecx],al
  40485c:	add    BYTE PTR [eax],al
  40485e:	or     dl,BYTE PTR [ebp+0x0]
  404861:	jae    0x404863
  404863:	popa   
  404864:	add    BYTE PTR [edi+0x0],ah
  404867:	add    BYTE PTR gs:[ecx+eax*1+0x0],dl
  40486c:	add    BYTE PTR [eax],ch
  40486e:	pop    eax
  40486f:	add    BYTE PTR [ebx+0x0],dh
  404872:	ins    BYTE PTR es:[edi],dx
  404873:	add    BYTE PTR [ebx+0x0],dl
  404876:	add    BYTE PTR gs:[ebx+0x0],ah
  40487a:	jne    0x40487c
  40487c:	jb     0x40487e
  40487e:	imul   eax,DWORD PTR [eax],0x790074
  404884:	inc    ebp
  404885:	add    BYTE PTR [eax+0x0],bh
  404888:	arpl   WORD PTR [eax],ax
  40488a:	add    BYTE PTR gs:[eax+0x0],dh
  40488e:	je     0x404890
  404890:	imul   eax,DWORD PTR [eax],0x6e006f
  404896:	rol    BYTE PTR [eax+eax*1],cl
  404899:	add    BYTE PTR [ecx],al
  40489b:	and    DWORD PTR [ebx+0x74],edx
  40489e:	jns    0x40490c
  4048a0:	gs jae 0x40490b
  4048a3:	gs gs je 0x4048c7
  4048a7:	gs js  0x40490f
  4048aa:	arpl   WORD PTR [ebp+0x74],si
  4048ad:	imul   ebp,DWORD PTR [edi+0x6e],0x6d697420
  4048b4:	cmp    ah,BYTE PTR gs:[eax]
  4048b7:	jnp    0x4048e9
  4048b9:	jge    0x4048db
  4048bb:	ins    DWORD PTR es:[edi],dx
  4048bc:	jae    0x4048bf
  4048be:	sbb    edx,DWORD PTR [ebx+0x74]
  4048c1:	jns    0x40492f
  4048c3:	gs jae 0x40492e
  4048c6:	gs gs je 0x4048ea
  4048ca:	dec    edx
  4048cb:	dec    ecx
  4048cc:	push   esp
  4048cd:	and    BYTE PTR [ecx+ebp*2+0x6d],dh
  4048d1:	cmp    ah,BYTE PTR gs:[eax]
  4048d4:	jnp    0x404906
  4048d6:	jge    0x4048f8
  4048d8:	ins    DWORD PTR es:[edi],dx
  4048d9:	jae    0x4048dc
  4048db:	sbb    al,0x53
  4048dd:	je     0x404958
  4048df:	ins    BYTE PTR es:[edi],dx
  4048e0:	gs jae 0x40494b
  4048e3:	gs gs je 0x404907
  4048e7:	ins    BYTE PTR es:[edi],dx
  4048e8:	outs   dx,DWORD PTR ds:[esi]
  4048e9:	popa   
  4048ea:	and    BYTE PTR fs:[ecx+ebp*2+0x6d],dh
  4048ef:	cmp    ah,BYTE PTR gs:[eax]
  4048f2:	jnp    0x404924
  4048f4:	jge    0x404916
  4048f6:	ins    DWORD PTR es:[edi],dx
  4048f7:	jae    0x4048fa
  4048f9:	push   di
  4048fb:	popa   
  4048fc:	jb     0x40496c
  4048fe:	imul   ebp,DWORD PTR [esi+0x67],0x7b27203a
  404905:	xor    BYTE PTR [ebp+0x27],bh
  404908:	and    BYTE PTR [ecx+0x73],ch
  40490b:	and    BYTE PTR [esi+0x6f],ch
  40490e:	je     0x404930
  404910:	ins    BYTE PTR es:[edi],dx
  404911:	outs   dx,DWORD PTR ds:[esi]
  404912:	popa   
  404913:	fs gs and BYTE PTR fs:[esi+0x72],ah
  404919:	outs   dx,DWORD PTR ds:[esi]
  40491a:	ins    DWORD PTR es:[edi],dx
  40491b:	and    BYTE PTR [eax+ebp*2+0x65],dh
  40491f:	and    BYTE PTR [esi+0x61],cl
  404922:	je     0x40498d
  404924:	jbe    0x40498b
  404926:	and    BYTE PTR [ecx+0x6d],cl
  404929:	popa   
  40492a:	and    BYTE PTR gs:[bp+di+0x61],al
  40492f:	arpl   WORD PTR [eax+0x65],bp
  404932:	and    BYTE PTR cs:[eax+ebp*2+0x61],dl
  404937:	je     0x404959
  404939:	popa   
  40493a:	data16 data16 arpl WORD PTR gs:[ebx+esi*2+0x20],si
  404941:	popa   
  404942:	arpl   WORD PTR [ebx+0x75],sp
  404945:	jb     0x4049a8
  404947:	arpl   WORD PTR [ecx+0x20],di
  40494a:	outs   dx,DWORD PTR ds:[esi]
  40494b:	data16 and BYTE PTR [ecx+ebp*2+0x6d],dh
  404950:	imul   ebp,DWORD PTR [esi+0x67],0x666e6920
  404957:	outs   dx,DWORD PTR ds:[esi]
  404958:	jb     0x4049c7
  40495a:	popa   
  40495b:	je     0x4049c6
  40495d:	outs   dx,DWORD PTR ds:[esi]
  40495e:	outs   dx,BYTE PTR ds:[esi]
  40495f:	add    DWORD PTR cs:[eax+0x55],esi
  404963:	jae    0x4049ca
  404965:	and    BYTE PTR [edi],ch
  404967:	je     0x404989
  404969:	outs   dx,DWORD PTR ds:[esi]
  40496a:	jo     0x4049e0
  40496c:	imul   ebp,DWORD PTR [edi+0x6e],0x206f7420
  404973:	jo     0x4049e7
  404975:	outs   dx,DWORD PTR ds:[esi]
  404976:	jbe    0x4049e1
  404978:	fs and BYTE PTR gs:[eax+ebp*2+0x65],dh
  40497e:	and    BYTE PTR [esi+0x61],ch
  404981:	ins    DWORD PTR es:[edi],dx
  404982:	and    BYTE PTR gs:[edi+0x66],ch
  404986:	and    BYTE PTR [eax+ebp*2+0x65],dh
  40498a:	and    BYTE PTR [ecx+edi*2+0x70],dh
  40498e:	and    BYTE PTR gs:[ecx+0x6f],bh
  404992:	jne    0x4049b4
  404994:	ja     0x4049f7
  404996:	outs   dx,BYTE PTR ds:[esi]
  404997:	je     0x4049b9
  404999:	je     0x404a0a
  40499b:	and    BYTE PTR [edi+ebp*2+0x61],ch
  40499f:	fs and BYTE PTR cs:[eax+ebp*2+0x65],dl
  4049a5:	and    BYTE PTR [ecx+0x73],ah
  4049a8:	jae    0x404a0f
  4049aa:	ins    DWORD PTR es:[edi],dx
  4049ab:	bound  ebp,QWORD PTR [ecx+edi*2+0x20]
  4049af:	daa    
  4049b0:	jnp    0x4049e2
  4049b2:	jge    0x4049db
  4049b4:	and    BYTE PTR [ebx+0x6f],ah
  4049b7:	outs   dx,BYTE PTR ds:[esi]
  4049b8:	je     0x404a1b
  4049ba:	imul   ebp,DWORD PTR [esi+0x73],0x65687420
  4049c1:	and    BYTE PTR [esi+0x6f],ah
  4049c4:	ins    BYTE PTR es:[edi],dx
  4049c5:	ins    BYTE PTR es:[edi],dx
  4049c6:	outs   dx,DWORD PTR ds:[esi]
  4049c7:	ja     0x404a32
  4049c9:	outs   dx,BYTE PTR ds:[esi]
  4049ca:	and    BYTE PTR [si+0x79],dh
  4049ce:	jo     0x404a35
  4049d0:	jae    0x404a0c
  4049d2:	add    DWORD PTR [edx],ebx
  4049d4:	push   ebp
  4049d5:	outs   dx,BYTE PTR ds:[esi]
  4049d6:	jb     0x404a3d
  4049d8:	arpl   WORD PTR [edi+0x67],bp
  4049db:	outs   dx,BYTE PTR ds:[esi]
  4049dc:	imul   edi,DWORD PTR [edx+0x65],0x706f2064
  4049e3:	je     0x404a4e
  4049e5:	outs   dx,DWORD PTR ds:[esi]
  4049e6:	outs   dx,BYTE PTR ds:[esi]
  4049e7:	and    BYTE PTR [edx],ah
  4049e9:	jnp    0x404a1b
  4049eb:	jge    0x404a0f
  4049ed:	cs add ebx,edi
  4049f0:	push   es
  4049f1:	pop    eax
  4049f2:	push   ebx
  4049f3:	dec    esp
  4049f4:	push   esp
  4049f5:	and    BYTE PTR [ebx+0x6f],al
  4049f8:	ins    DWORD PTR es:[edi],dx
  4049f9:	ins    DWORD PTR es:[edi],dx
  4049fa:	popa   
  4049fb:	outs   dx,BYTE PTR ds:[esi]
  4049fc:	and    BYTE PTR fs:[ecx+ebp*2+0x6e],cl
  404a01:	and    BYTE PTR gs:[ebp+0x74],dl
  404a05:	imul   ebp,DWORD PTR [ecx+ebp*2+0x74],0x5b0a0d79
  404a0d:	dec    ebp
  404a0e:	imul   esp,DWORD PTR [ebx+0x72],0x666f736f
  404a15:	je     0x404a37
  404a17:	sub    BYTE PTR [edx+0x29],dl
  404a1a:	and    BYTE PTR [esi+0x69],dl
  404a1d:	jae    0x404a94
  404a1f:	popa   
  404a20:	ins    BYTE PTR es:[edi],dx
  404a21:	and    BYTE PTR [ebx+0x74],dl
  404a24:	jne    0x404a8a
  404a26:	imul   ebp,DWORD PTR [edi+0x20],0x20295228
  404a2d:	xor    dh,BYTE PTR [eax]
  404a2f:	xor    DWORD PTR [eax],esi
  404a31:	pop    ebp
  404a32:	or     eax,0x550a0d0a
  404a37:	jae    0x404a9a
  404a39:	cmp    ah,BYTE PTR gs:[bx+si]
  404a3d:	pop    eax
  404a3e:	push   ebx
  404a3f:	dec    esp
  404a40:	push   esp
  404a41:	and    BYTE PTR [eax+edi*2],bh
  404a44:	ins    DWORD PTR es:[edi],dx
  404a45:	ins    BYTE PTR es:[edi],dx
  404a46:	sub    eax,0x656c6966
  404a4b:	and    BYTE PTR ds:[ebx+0x3c],bl
  404a4f:	js     0x404ac4
  404a51:	ins    BYTE PTR es:[edi],dx
  404a52:	sub    eax,0x656c6966
  404a57:	ds pop ebp
  404a59:	and    BYTE PTR [ebx+0x3c],bl
  404a5c:	outs   dx,DWORD PTR ds:[esi]
  404a5d:	jo     0x404ad3
  404a5f:	imul   ebp,DWORD PTR [edi+0x6e],0xd5d2b3e
  404a66:	or     cl,BYTE PTR ds:0x74704f0a
  404a6c:	imul   ebp,DWORD PTR [edi+0x6e],0xa0d3a73
  404a73:	das    
  404a74:	popa   
  404a75:	jae    0x404aea
  404a77:	gs ins DWORD PTR es:[edi],dx
  404a79:	bound  ebp,QWORD PTR [ecx+edi*2+0x3a]
  404a7d:	cmp    al,0x66
  404a7f:	imul   ebp,DWORD PTR [ebp+eiz*2+0x3e],0x20202020
  404a87:	and    BYTE PTR [eax],ah
  404a89:	and    BYTE PTR [eax],ah
  404a8b:	inc    ecx
  404a8c:	jae    0x404b01
  404a8e:	gs ins DWORD PTR es:[edi],dx
  404a90:	bound  ebp,QWORD PTR [ecx+edi*2+0x20]
  404a94:	ja     0x404aff
  404a96:	je     0x404b00
  404a98:	and    BYTE PTR [ebx+0x6f],ah
  404a9b:	ins    DWORD PTR es:[edi],dx
  404a9c:	jo     0x404b07
  404a9e:	ins    BYTE PTR es:[edi],dx
  404a9f:	gs and BYTE PTR fs:[eax+0x53],bl
  404aa4:	dec    esp
  404aa5:	push   esp
  404aa6:	and    BYTE PTR [eax],ch
  404aa8:	jae    0x404b12
  404aaa:	outs   dx,DWORD PTR ds:[esi]
  404aab:	jb     0x404b21
  404aad:	and    BYTE PTR [esi+0x6f],ah
  404ab0:	jb     0x404b1f
  404ab2:	cmp    ah,BYTE PTR [eax]
  404ab4:	das    
  404ab5:	popa   
  404ab6:	sub    DWORD PTR [esi],ebp
  404ab8:	or     eax,0x79742f0a
  404abd:	jo     0x404b24
  404abf:	cmp    bh,BYTE PTR [esp+esi*2]
  404ac2:	jns    0x404b34
  404ac4:	gs and BYTE PTR ds:[eax],ah
  404ac8:	and    BYTE PTR [eax],ah
  404aca:	and    BYTE PTR [eax],ah
  404acc:	and    BYTE PTR [eax],ah
  404ace:	and    BYTE PTR [eax],ah
  404ad0:	and    BYTE PTR [eax],ah
  404ad2:	inc    ebx
  404ad3:	dec    esp
  404ad4:	push   edx
  404ad5:	and    BYTE PTR [ecx+edi*2+0x70],dh
  404ad9:	and    BYTE PTR gs:[ecx+0x6e],ch
  404add:	and    BYTE PTR [eax+ebp*2+0x69],dh
  404ae1:	jae    0x404b03
  404ae3:	popa   
  404ae4:	jae    0x404b59
  404ae6:	gs ins DWORD PTR es:[edi],dx
  404ae8:	bound  ebp,QWORD PTR [ecx+edi*2+0x20]
  404aec:	sub    BYTE PTR [ebx+0x68],dh
  404aef:	outs   dx,DWORD PTR ds:[esi]
  404af0:	jb     0x404b66
  404af2:	and    BYTE PTR [esi+0x6f],ah
  404af5:	jb     0x404b64
  404af7:	cmp    ah,BYTE PTR [eax]
  404af9:	das    
  404afa:	je     0x404b25
  404afc:	cs or  eax,0x756f2f0a
  404b02:	je     0x404b74
  404b04:	jne    0x404b7a
  404b06:	cmp    bh,BYTE PTR [esi+eiz*2]
  404b09:	imul   ebp,DWORD PTR [ebp+eiz*2+0x3e],0x20202020
  404b11:	and    BYTE PTR [eax],ah
  404b13:	and    BYTE PTR [eax],ah
  404b15:	and    BYTE PTR [eax],ah
  404b17:	push   edx
  404b18:	gs imul esi,DWORD PTR fs:[edx+0x65],0x6f207463
  404b21:	jne    0x404b97
  404b23:	jo     0x404b9a
  404b25:	je     0x404b47
  404b27:	je     0x404b98
  404b29:	and    BYTE PTR [eax+ebp*2+0x65],dh
  404b2d:	and    BYTE PTR [edi+0x69],ah
  404b30:	jbe    0x404b97
  404b32:	outs   dx,BYTE PTR ds:[esi]
  404b33:	and    BYTE PTR [esi+0x69],ah
  404b36:	ins    BYTE PTR es:[edi],dx
  404b37:	and    BYTE PTR gs:[eax],ch
  404b3a:	jae    0x404ba4
  404b3c:	outs   dx,DWORD PTR ds:[esi]
  404b3d:	jb     0x404bb3
  404b3f:	and    BYTE PTR [esi+0x6f],ah
  404b42:	jb     0x404bb1
  404b44:	cmp    ah,BYTE PTR [eax]
  404b46:	das    
  404b47:	outs   dx,DWORD PTR ds:[esi]
  404b48:	sub    DWORD PTR [esi],ebp
  404b4a:	or     eax,0x61702f0a
  404b4f:	jb     0x404bb2
  404b51:	ins    DWORD PTR es:[edi],dx
  404b52:	cmp    bh,BYTE PTR [esi+ebp*2]
  404b55:	popa   
  404b56:	ins    DWORD PTR es:[edi],dx
  404b57:	gs ds cmp eax,0x6c61763c
  404b5e:	jne    0x404bc5
  404b60:	and    BYTE PTR ds:[eax],ah
  404b63:	and    BYTE PTR [ebx+0x70],dl
  404b66:	arpl   WORD PTR gs:[ecx+0x66],bp
  404b6a:	jns    0x404b8c
  404b6c:	jo     0x404bcf
  404b6e:	jb     0x404bd1
  404b70:	ins    DWORD PTR es:[edi],dx
  404b71:	gs je  0x404bd9
  404b74:	jb     0x404b96
  404b76:	outs   dx,WORD PTR ds:[esi]
  404b78:	jb     0x404b9a
  404b7a:	je     0x404bee
  404b7c:	popa   
  404b7d:	outs   dx,BYTE PTR ds:[esi]
  404b7e:	jae    0x404be6
  404b80:	outs   dx,DWORD PTR ds:[esi]
  404b81:	jb     0x404bf0
  404b83:	popa   
  404b84:	je     0x404bef
  404b86:	outs   dx,DWORD PTR ds:[esi]
  404b87:	outs   dx,BYTE PTR ds:[esi]
  404b88:	and    BYTE PTR [eax],ch
  404b8a:	jae    0x404bf4
  404b8c:	outs   dx,DWORD PTR ds:[esi]
  404b8d:	jb     0x404c03
  404b8f:	and    BYTE PTR [esi+0x6f],ah
  404b92:	jb     0x404c01
  404b94:	cmp    ah,BYTE PTR [eax]
  404b96:	das    
  404b97:	jo     0x404bc2
  404b99:	cs or  eax,0x6e652f0a
  404b9f:	popa   
  404ba0:	bound  ebp,QWORD PTR [ebp+eiz*2+0x3a]
  404ba4:	cmp    al,0x66
  404ba6:	gs popa 
  404ba8:	je     0x404c1f
  404baa:	jb     0x404c11
  404bac:	jae    0x404bec
  404bae:	and    BYTE PTR [eax],ah
  404bb0:	and    BYTE PTR [eax],ah
  404bb2:	and    BYTE PTR [eax],ah
  404bb4:	inc    ebp
  404bb5:	outs   dx,BYTE PTR ds:[esi]
  404bb6:	popa   
  404bb7:	bound  ebp,QWORD PTR [ebp+eiz*2+0x20]
  404bbb:	outs   dx,DWORD PTR ds:[esi]
  404bbc:	jo     0x404c32
  404bbe:	imul   ebp,DWORD PTR [edi+0x6e],0x66206c61
  404bc5:	gs popa 
  404bc7:	je     0x404c3e
  404bc9:	jb     0x404c30
  404bcb:	jae    0x404c07
  404bcd:	and    BYTE PTR [esi+0x6f],ch
  404bd0:	outs   dx,BYTE PTR ds:[esi]
  404bd1:	gs sub al,0x20
  404bd4:	outs   dx,DWORD PTR fs:[esi]
  404bd6:	arpl   WORD PTR [ebp+0x6d],si
  404bd9:	outs   dx,BYTE PTR gs:[esi]
  404bdb:	je     0x404c09
  404bdd:	and    BYTE PTR [ebx+0x63],dh
  404be0:	jb     0x404c4b
  404be2:	jo     0x404c58
  404be4:	sub    al,0x20
  404be6:	outs   dx,DWORD PTR ds:[esi]
  404be7:	jb     0x404c09
  404be9:	popa   
  404bea:	ins    BYTE PTR es:[edi],dx
  404beb:	ins    BYTE PTR es:[edi],dx
  404bec:	and    BYTE PTR cs:[eax+ebp*2+0x65],dl
  404bf1:	and    BYTE PTR [ebp+eiz*2+0x66],ah
  404bf5:	popa   
  404bf6:	jne    0x404c64
  404bf8:	je     0x404c1a
  404bfa:	imul   esi,DWORD PTR [ebx+0x20],0x2e6c6c61
  404c01:	or     eax,0x75632f0a
  404c06:	ins    BYTE PTR es:[edi],dx
  404c07:	je     0x404c7e
  404c09:	jb     0x404c70
  404c0b:	cmp    bh,BYTE PTR [esi+ebp*2]
  404c0e:	popa   
  404c0f:	ins    DWORD PTR es:[edi],dx
  404c10:	gs and BYTE PTR ds:[eax],ah
  404c14:	and    BYTE PTR [eax],ah
  404c16:	and    BYTE PTR [eax],ah
  404c18:	and    BYTE PTR [eax],ah
  404c1a:	and    BYTE PTR [ebx+0x65],dl
  404c1d:	je     0x404c92
  404c1f:	and    BYTE PTR [eax+ebp*2+0x65],dh
  404c23:	and    BYTE PTR [ebx+0x75],ah
  404c26:	ins    BYTE PTR es:[edi],dx
  404c27:	je     0x404c9e
  404c29:	jb     0x404c90
  404c2b:	and    BYTE PTR [ebp+0x73],dh
  404c2e:	gs and BYTE PTR fs:[edx+0x79],ah
  404c33:	and    BYTE PTR [eax+ebp*2+0x65],dh
  404c37:	and    BYTE PTR [edx+0x65],dl
  404c3a:	jae    0x404cab
  404c3c:	jne    0x404cb0
  404c3e:	arpl   WORD PTR [ebp+0x20],sp
  404c41:	dec    ebp
  404c42:	popa   
  404c43:	outs   dx,BYTE PTR ds:[esi]
  404c44:	popa   
  404c45:	addr16 gs jb 0x404c69
  404c49:	je     0x404cba
  404c4b:	and    BYTE PTR [edi+ebp*2+0x6f],ch
  404c4f:	imul   esp,DWORD PTR [eax],0x75
  404c52:	jo     0x404c74
  404c54:	arpl   WORD PTR [ebp+0x6c],si
  404c57:	je     0x404cce
  404c59:	jb     0x404cc0
  404c5b:	sub    eax,0x63657073
  404c60:	imul   esp,DWORD PTR [esi+0x69],0x65722063
  404c67:	jae    0x404cd8
  404c69:	jne    0x404cdd
  404c6b:	arpl   WORD PTR [ebp+0x73],sp
  404c6e:	and    BYTE PTR cs:0x69742f0a,cl
  404c75:	ins    DWORD PTR es:[edi],dx
  404c76:	and    BYTE PTR gs:[eax],ah
  404c79:	and    BYTE PTR [eax],ah
  404c7b:	and    BYTE PTR [eax],ah
  404c7d:	and    BYTE PTR [eax],ah
  404c7f:	and    BYTE PTR [eax],ah
  404c81:	and    BYTE PTR [eax],ah
  404c83:	and    BYTE PTR [eax],ah
  404c85:	and    BYTE PTR [eax],ah
  404c87:	and    BYTE PTR [eax],ah
  404c89:	and    BYTE PTR [eax+0x72],dl
  404c8c:	imul   ebp,DWORD PTR [esi+0x74],0x65786520
  404c93:	arpl   WORD PTR [ebp+0x74],si
  404c96:	imul   ebp,DWORD PTR [edi+0x6e],0x6d697420
  404c9d:	gs cs or eax,0x696a2f0a
  404ca4:	je     0x404cc6
  404ca6:	and    BYTE PTR [eax],ah
  404ca8:	and    BYTE PTR [eax],ah
  404caa:	and    BYTE PTR [eax],ah
  404cac:	and    BYTE PTR [eax],ah
  404cae:	and    BYTE PTR [eax],ah
  404cb0:	and    BYTE PTR [eax],ah
  404cb2:	and    BYTE PTR [eax],ah
  404cb4:	and    BYTE PTR [eax],ah
  404cb6:	and    BYTE PTR [eax],ah
  404cb8:	and    BYTE PTR [eax+0x72],dl
  404cbb:	gs sub eax,0x2054494a
  404cc1:	arpl   WORD PTR [edi+0x6d],bp
  404cc4:	jo     0x404d2f
  404cc6:	ins    BYTE PTR es:[edi],dx
  404cc7:	gs and BYTE PTR fs:[eax+0x53],bl
  404ccc:	dec    esp
  404ccd:	push   esp
  404cce:	and    BYTE PTR [ebx+0x74],dh
  404cd1:	jns    0x404d3f
  404cd3:	gs jae 0x404d3e
  404cd6:	gs gs je 0x404cfa
  404cda:	bound  esp,QWORD PTR [ebp+0x66]
  404cdd:	outs   dx,DWORD PTR ds:[esi]
  404cde:	jb     0x404d45
  404ce0:	and    BYTE PTR [ebp+0x78],ah
  404ce3:	arpl   WORD PTR gs:[ebp+0x74],si
  404ce7:	imul   ebp,DWORD PTR [edi+0x6e],0x2f0a0d2e
  404cee:	ja     0x404d51
  404cf0:	imul   esi,DWORD PTR [eax+eiz*1+0x20],0x20202020
  404cf8:	and    BYTE PTR [eax],ah
  404cfa:	and    BYTE PTR [eax],ah
  404cfc:	and    BYTE PTR [eax],ah
  404cfe:	and    BYTE PTR [eax],ah
  404d00:	and    BYTE PTR [eax],ah
  404d02:	and    BYTE PTR [eax],ah
  404d04:	and    BYTE PTR [edi+0x61],dl
  404d07:	imul   esi,DWORD PTR [eax+eiz*1+0x66],0x6420726f
  404d0f:	bound  esi,QWORD PTR gs:[ebp+0x67]
  404d13:	addr16 gs jb 0x404d37
  404d17:	je     0x404d88
  404d19:	and    BYTE PTR [edx+0x65],ah
  404d1c:	and    BYTE PTR [ecx+0x74],ah
  404d1f:	je     0x404d82
  404d21:	arpl   WORD PTR [eax+0x65],bp
  404d24:	fs cs or eax,0x65682f0a
  404d2b:	ins    BYTE PTR es:[edi],dx
  404d2c:	jo     0x404d4e
  404d2e:	and    BYTE PTR [eax],ah
  404d30:	and    BYTE PTR [eax],ah
  404d32:	and    BYTE PTR [eax],ah
  404d34:	and    BYTE PTR [eax],ah
  404d36:	and    BYTE PTR [eax],ah
  404d38:	and    BYTE PTR [eax],ah
  404d3a:	and    BYTE PTR [eax],ah
  404d3c:	and    BYTE PTR [eax],ah
  404d3e:	and    BYTE PTR [eax],ah
  404d40:	inc    esp
  404d41:	imul   esi,DWORD PTR [ebx+0x70],0x2079616c
  404d48:	je     0x404db2
  404d4a:	imul   esi,DWORD PTR [ebx+0x20],0x67617375
  404d51:	and    BYTE PTR gs:[ebp+0x65],ch
  404d55:	jae    0x404dca
  404d57:	popa   
  404d58:	and    BYTE PTR gs:[bx+si],ch
  404d5c:	jae    0x404dc6
  404d5e:	outs   dx,DWORD PTR ds:[esi]
  404d5f:	jb     0x404dd5
  404d61:	and    BYTE PTR [esi+0x6f],ah
  404d64:	jb     0x404dd3
  404d66:	cmp    ah,BYTE PTR [eax]
  404d68:	das    
  404d69:	aas    
  404d6a:	sub    DWORD PTR [esi],ebp
  404d6c:	add    ebx,edi
  404d6e:	add    DWORD PTR [eax+0x53],ebx
  404d71:	dec    esp
  404d72:	and    BYTE PTR [edi+0x65],ah
  404d75:	outs   dx,BYTE PTR ds:[esi]
  404d76:	gs jb  0x404dda
  404d79:	je     0x404de0
  404d7b:	and    BYTE PTR fs:[ecx+0x20],ah
  404d7f:	jae    0x404de6
  404d81:	arpl   WORD PTR [ebp+0x72],si
  404d84:	imul   esi,DWORD PTR [ecx+edi*2+0x20],0x65637865
  404d8c:	jo     0x404e02
  404d8e:	imul   ebp,DWORD PTR [edi+0x6e],0x6649202e
  404d95:	and    BYTE PTR [ecx+0x6f],bh
  404d98:	jne    0x404dba
  404d9a:	je     0x404e0e
  404d9c:	jne    0x404e11
  404d9e:	je     0x404dc0
  404da0:	je     0x404e0a
  404da2:	imul   esi,DWORD PTR [ebx+0x20],0x6c797473
  404da9:	gs jae 0x404e14
  404dac:	gs gs je 0x404dd0
  404db0:	je     0x404e1a
  404db2:	outs   dx,BYTE PTR gs:[esi]
  404db4:	and    BYTE PTR [ebx+0x6f],ah
  404db7:	jo     0x404e32
  404db9:	imul   ebp,DWORD PTR [esi+0x67],0x20746920
  404dc0:	je     0x404e31
  404dc2:	and    BYTE PTR [ecx+0x6f],bh
  404dc5:	jne    0x404e39
  404dc7:	and    BYTE PTR [edi+ebp*2+0x63],ch
  404dcb:	popa   
  404dcc:	ins    BYTE PTR es:[edi],dx
  404dcd:	and    BYTE PTR [eax+0x61],ch
  404dd0:	jb     0x404e36
  404dd2:	and    BYTE PTR [edx+esi*2+0x69],ah
  404dd6:	jbe    0x404e3d
  404dd8:	and    BYTE PTR [edi+0x69],dh
  404ddb:	ins    BYTE PTR es:[edi],dx
  404ddc:	ins    BYTE PTR es:[edi],dx
  404ddd:	and    BYTE PTR [edx+0x65],dh
  404de0:	ins    DWORD PTR es:[edi],dx
  404de1:	outs   dx,DWORD PTR ds:[esi]
  404de2:	jbe    0x404e49
  404de4:	and    BYTE PTR [eax+ebp*2+0x69],dh
  404de8:	jae    0x404e0a
  404dea:	jae    0x404e51
  404dec:	arpl   WORD PTR [ebp+0x72],si
  404def:	imul   esi,DWORD PTR [ecx+edi*2+0x20],0x63656863
  404df7:	imul   ebp,DWORD PTR [esi],0x20
  404dfa:	inc    edx
  404dfb:	jne    0x404e71
  404dfd:	and    BYTE PTR [ecx+0x74],ch
  404e00:	and    BYTE PTR [ecx+0x73],ch
  404e03:	and    BYTE PTR [eax+0x69],ch
  404e06:	addr16 push 0x6120796c
  404e0c:	fs jbe 0x404e78
  404e0f:	jae    0x404e76
  404e11:	and    BYTE PTR fs:[eax+ebp*2+0x61],dh
  404e16:	je     0x404e38
  404e18:	jns    0x404e89
  404e1a:	jne    0x404e3c
  404e1c:	jb     0x404e83
  404e1e:	jbe    0x404e89
  404e20:	gs ja  0x404e43
  404e23:	popa   
  404e24:	ins    BYTE PTR es:[edi],dx
  404e25:	ins    BYTE PTR es:[edi],dx
  404e26:	and    BYTE PTR [ebx+0x63],dh
  404e29:	jb     0x404e94
  404e2b:	jo     0x404ea1
  404e2d:	and    BYTE PTR [edx+0x6c],ah
  404e30:	outs   dx,DWORD PTR ds:[esi]
  404e31:	arpl   WORD PTR [ebx+0x73],bp
  404e34:	and    BYTE PTR [ecx+0x6e],ah
  404e37:	and    BYTE PTR fs:[eax+0x54],cl
  404e3b:	push   esp
  404e3c:	push   eax
  404e3d:	and    BYTE PTR [edx+0x65],dh
  404e40:	jno    0x404eb7
  404e42:	gs jae 0x404eb9
  404e45:	jae    0x404e67
  404e47:	imul   ebp,DWORD PTR [esi+0x20],0x20656874
  404e4e:	jae    0x404ec4
  404e50:	jns    0x404ebe
  404e52:	gs jae 0x404ebd
  404e55:	gs gs je 0x404e79
  404e59:	bound  esp,QWORD PTR [ebp+0x66]
  404e5c:	outs   dx,DWORD PTR ds:[esi]
  404e5d:	jb     0x404ec4
  404e5f:	and    BYTE PTR [ecx+0x6f],bh
  404e62:	jne    0x404e84
  404e64:	outs   dx,DWORD PTR fs:[esi]
  404e66:	and    BYTE PTR [ebx+0x6f],dh
  404e69:	add    BYTE PTR cs:[eax],al
  404e6c:	inc    edx
  404e6d:	push   ebx
  404e6e:	dec    edx
  404e6f:	inc    edx
  404e70:	add    DWORD PTR [eax],eax
  404e72:	add    DWORD PTR [eax],eax
  404e74:	add    BYTE PTR [eax],al
  404e76:	add    BYTE PTR [eax],al
  404e78:	or     al,0x0
  404e7a:	add    BYTE PTR [eax],al
  404e7c:	jbe    0x404eb2
  404e7e:	xor    BYTE PTR cs:[esi],ch
  404e81:	xor    esi,DWORD PTR [eax]
  404e83:	xor    esi,DWORD PTR [ecx]
  404e85:	cmp    DWORD PTR [eax],eax
  404e87:	add    BYTE PTR [eax],al
  404e89:	add    BYTE PTR ds:0x6c00,al
  404e8f:	add    BYTE PTR [esi+ebx*1],bh
  404e92:	add    BYTE PTR [eax],al
  404e94:	and    edi,DWORD PTR [esi+0x0]
  404e97:	add    BYTE PTR [eax-0x6fffffe2],ch
  404e9d:	and    BYTE PTR [eax],al
  404e9f:	add    BYTE PTR [ebx],ah
  404ea1:	push   ebx
  404ea2:	je     0x404f16
  404ea4:	imul   ebp,DWORD PTR [esi+0x67],0x73
  404eab:	add    BYTE PTR [eax],bh
  404ead:	aas    
  404eae:	add    BYTE PTR [eax],al
  404eb0:	fadd   DWORD PTR ds:0x55230000
  404eb6:	push   ebx
  404eb7:	add    BYTE PTR [eax],dl
  404eb9:	inc    ebp
  404eba:	add    BYTE PTR [eax],al
  404ebc:	adc    BYTE PTR [eax],al
  404ebe:	add    BYTE PTR [eax],al
  404ec0:	and    eax,DWORD PTR [edi+0x55]
  404ec3:	dec    ecx
  404ec4:	inc    esp
  404ec5:	add    BYTE PTR [eax],al
  404ec7:	add    BYTE PTR [eax],ah
  404ec9:	inc    ebp
  404eca:	add    BYTE PTR [eax],al
  404ecc:	sub    al,0x10
  404ece:	add    BYTE PTR [eax],al
  404ed0:	and    eax,DWORD PTR [edx+0x6c]
  404ed3:	outs   dx,DWORD PTR ds:[esi]
  404ed4:	bound  eax,QWORD PTR [eax]
  404ed6:	add    BYTE PTR [eax],al
  404ed8:	add    BYTE PTR [eax],al
  404eda:	add    BYTE PTR [eax],al
  404edc:	add    al,BYTE PTR [eax]
  404ede:	add    BYTE PTR [ecx],al
  404ee0:	push   edi
  404ee1:	pop    ds
  404ee2:	mov    ds:0xb091d,al
  404ee7:	add    BYTE PTR [eax],al
  404ee9:	cli    
  404eea:	and    eax,0x160033
  404eef:	add    BYTE PTR [ecx],al
  404ef1:	add    BYTE PTR [eax],al
  404ef3:	add    BYTE PTR [eax+0x11000000],dl
  404ef9:	add    BYTE PTR [eax],al
  404efb:	add    BYTE PTR [ecx+0x0],al
  404efe:	add    BYTE PTR [eax],al
  404f00:	cmps   BYTE PTR ds:[esi],BYTE PTR es:[edi]
  404f01:	add    BYTE PTR [eax],al
  404f03:	add    BYTE PTR [ebx+0x1000000],ah
  404f09:	add    BYTE PTR [eax],al
  404f0b:	add    BYTE PTR [ebx],ch
  404f0d:	add    DWORD PTR [eax],eax
  404f0f:	add    BYTE PTR [edx],bl
  404f11:	add    BYTE PTR [eax],al
  404f13:	add    BYTE PTR [edi],dl
  404f15:	add    BYTE PTR [eax],al
  404f17:	add    BYTE PTR [ebx],ch
  404f19:	add    BYTE PTR [eax],al
  404f1b:	add    BYTE PTR [ecx],cl
  404f1d:	add    BYTE PTR [eax],al
  404f1f:	add    BYTE PTR [eax],ah
  404f21:	add    BYTE PTR [eax],al
  404f23:	add    BYTE PTR [eax+eax*1],ah
  404f26:	add    BYTE PTR [eax],al
  404f28:	add    eax,DWORD PTR [eax]
  404f2a:	add    BYTE PTR [eax],al
  404f2c:	add    eax,0x3000000
  404f31:	add    BYTE PTR [eax],al
  404f33:	add    BYTE PTR [ecx],al
  404f35:	add    BYTE PTR [eax],al
  404f37:	add    BYTE PTR ds:0x1000000,al
  404f3d:	add    BYTE PTR [eax],al
  404f3f:	add    BYTE PTR [eax+eax*1],al
  404f42:	add    BYTE PTR [eax],al
  404f44:	add    al,BYTE PTR [eax]
  404f46:	add    BYTE PTR [eax],al
  404f48:	add    BYTE PTR [eax],al
  404f4a:	or     al,BYTE PTR [eax]
  404f4c:	add    DWORD PTR [eax],eax
  404f4e:	add    BYTE PTR [eax],al
  404f50:	add    BYTE PTR [eax],al
  404f52:	push   es
  404f53:	add    BYTE PTR [ebx+0x1],dl
  404f56:	dec    esp
  404f57:	add    DWORD PTR [esi],eax
  404f59:	add    BYTE PTR [esi+0x1],ah
  404f5c:	dec    esp
  404f5d:	add    DWORD PTR [edx],ecx
  404f5f:	add    BYTE PTR [eax+0x1],bh
  404f62:	ins    DWORD PTR es:[edi],dx
  404f63:	add    DWORD PTR [esi],eax
  404f65:	add    BYTE PTR [ecx+eax*1+0xe0182],cl
  404f6c:	test   eax,0xe019301
  404f71:	add    BYTE PTR [esi+0xa019301],bh
  404f77:	add    bh,bl
  404f79:	add    eax,edx
  404f7b:	add    DWORD PTR [edx],ecx
  404f7d:	add    bl,ch
  404f7f:	add    eax,edx
  404f81:	add    DWORD PTR [edx],ecx
  404f83:	add    BYTE PTR [ecx],dl
  404f85:	add    al,BYTE PTR [eax]
  404f87:	add    al,BYTE PTR [esi]
  404f89:	add    BYTE PTR [ebx],ah
  404f8b:	add    al,BYTE PTR [edx+0x5a000601]
  404f91:	add    cl,BYTE PTR [ecx+eax*1+0x6]
  404f95:	add    BYTE PTR [eax+0x2],dh
  404f98:	add    al,BYTE PTR fs:[esi]
  404f9b:	add    BYTE PTR [eax+0x6029902],dh
  404fa1:	add    ch,cl
  404fa3:	add    bh,BYTE PTR [ebx-0xbfff9fe]
  404fa9:	add    ah,ah
  404fab:	add    cl,BYTE PTR [edx]
  404fad:	add    BYTE PTR [eax],bh
  404faf:	add    ebp,DWORD PTR [ebp+0x1]
  404fb2:	or     al,BYTE PTR [eax]
  404fb4:	inc    edx
  404fb5:	add    ebp,DWORD PTR [ebp+0x1]
  404fb8:	push   cs
  404fb9:	add    BYTE PTR [ebx+0x3],bh
  404fbc:	push   0x90000603
  404fc1:	add    ecx,DWORD PTR [ecx+eax*1+0xa]
  404fc5:	add    BYTE PTR [esi+0xa016d03],bl
  404fcb:	add    BYTE PTR [eax+0xa01d004],cl
  404fd1:	add    BYTE PTR [edx+0x601d004],ah
  404fd7:	add    dh,ah
  404fd9:	add    al,0x64
  404fdb:	add    cl,BYTE PTR [edx]
  404fdd:	add    bh,ch
  404fdf:	add    al,0x6d
  404fe1:	add    DWORD PTR [esi],eax
  404fe3:	add    BYTE PTR [ebp+eax*1+0x6014c],ah
  404fea:	lods   eax,DWORD PTR ds:[esi]
  404feb:	add    eax,0xa014c
  404ff0:	fld    DWORD PTR ds:0xa016d
  404ff6:	fwait
  404ff7:	push   es
  404ff8:	ins    DWORD PTR es:[edi],dx
  404ff9:	add    DWORD PTR [esi],eax
  404ffb:	add    cl,bl
  404ffd:	push   es
  404ffe:	add    BYTE PTR [ecx],0x6
  405001:	add    BYTE PTR [esi+0x7],cl
  405004:	add    BYTE PTR [ecx],0x6
  405007:	add    BYTE PTR [edx+0x8],ch
  40500a:	pop    ecx
  40500b:	or     BYTE PTR [esi],al
  40500d:	add    bh,cl
  40500f:	or     BYTE PTR [edx+0x66000a08],bh
  405015:	or     ch,BYTE PTR [ebp+0x1]
  405018:	or     al,BYTE PTR [eax]
  40501a:	pop    eax
  40501b:	or     eax,DWORD PTR [eax]
  40501d:	add    dl,BYTE PTR [edx]
  40501f:	add    BYTE PTR [ebx+0x60ba40b],bh
  405025:	add    dh,ch
  405027:	or     ebx,ebx
  405029:	or     ecx,DWORD PTR [edx]
  40502b:	add    BYTE PTR [ecx],cl
  40502d:	or     eax,0x60200
  405032:	inc    ecx
  405033:	or     eax,0xa0d26
  405038:	lahf   
  405039:	or     eax,0x601d0
  40503e:	mov    ah,0xe
  405040:	fisttp DWORD PTR [ebx]
  405042:	push   es
  405043:	add    BYTE PTR [ebx+0x10],ch
  405046:	dec    esp
  405047:	add    DWORD PTR [esi],eax
  405049:	add    dh,al
  40504b:	adc    DWORD PTR [edi-0x7fff9ef],esp
  405051:	adc    esi,ebx
  405053:	adc    DWORD PTR [esi],eax
  405055:	add    BYTE PTR [ecx],dl
  405057:	adc    ah,BYTE PTR [edi+0x25000611]
  40505d:	adc    cl,BYTE PTR [ecx+eax*1+0x6]
  405061:	add    BYTE PTR [ebx],bh
  405063:	adc    bh,BYTE PTR [ebx+0x52000602]
  405069:	adc    bh,BYTE PTR [ebx+0x6f000602]
  40506f:	adc    bh,BYTE PTR [ebx-0x72fff9fe]
  405075:	adc    bh,BYTE PTR [ebx-0x59fff9fe]
  40507b:	adc    bh,BYTE PTR [ebx-0x40fff9fe]
  405081:	adc    bh,BYTE PTR [ebx-0x25fff9fe]
  405087:	adc    bh,BYTE PTR [ebx-0xcfff9fe]
  40508d:	adc    bh,BYTE PTR [ebx+0x10000602]
  405093:	adc    edi,DWORD PTR [ebx+0x36000602]
  405099:	adc    ebx,DWORD PTR [ecx+0x8]
  40509c:	push   es
  40509d:	add    BYTE PTR [eax+0x13],bl
  4050a0:	pop    ecx
  4050a1:	or     BYTE PTR [esi],al
  4050a3:	add    BYTE PTR [edx+0x13],bh
  4050a6:	mov    ebx,0x95000602
  4050ab:	adc    edi,DWORD PTR [ebx-0x51fff9fe]
  4050b1:	adc    edi,DWORD PTR [ebx-0x13fff9fe]
  4050b7:	adc    ecx,esp
  4050b9:	adc    eax,DWORD PTR [esi]
  4050bb:	add    BYTE PTR [edx],cl
  4050bd:	adc    al,0xe4
  4050bf:	add    al,BYTE PTR [esi]
  4050c1:	add    BYTE PTR [ecx],ah
  4050c3:	adc    al,0xe4
  4050c5:	add    al,BYTE PTR [esi]
  4050c7:	add    BYTE PTR [ecx],dh
  4050c9:	adc    al,0x68
  4050cb:	add    edi,edi
  4050cd:	add    BYTE PTR [ebp+0x14],al
  4050d0:	add    BYTE PTR [eax],al
  4050d2:	push   es
  4050d3:	add    BYTE PTR [esp+edx*1-0x34],dl
  4050d7:	adc    eax,DWORD PTR [esi]
  4050d9:	add    BYTE PTR [eax+0x6147414],dl
  4050df:	add    BYTE PTR [edi+0x6014c14],ah
  4050e5:	add    ch,bl
  4050e7:	adc    al,0x82
  4050e9:	add    DWORD PTR [esi],eax
  4050eb:	add    BYTE PTR [ecx],cl
  4050ed:	adc    eax,0x614f8
  4050f2:	push   ss
  4050f3:	adc    eax,0x60368
  4050f8:	push   ebp
  4050f9:	adc    eax,0x6014c
  4050fe:	test   BYTE PTR ds:0x61563,dl
  405104:	mov    eax,0x6014c15
  405109:	add    ah,dl
  40510b:	adc    eax,0x60182
  405110:	(bad)  
  405111:	adc    eax,0x6014c
  405116:	or     BYTE PTR [esi],dl
  405118:	cdq    
  405119:	add    al,BYTE PTR [esi]
  40511b:	add    BYTE PTR [ebx],ch
  40511d:	push   ss
  40511e:	dec    esp
  40511f:	add    DWORD PTR [esi],eax
  405121:	add    BYTE PTR [edi+0x16],bh
  405124:	mov    ebx,0x93000602
  405129:	push   ss
  40512a:	dec    esp
  40512b:	add    DWORD PTR [esi],eax
  40512d:	add    BYTE PTR [edx+0x6014c16],dh
  405133:	add    ch,al
  405135:	push   ss
  405136:	in     al,0x2
  405138:	push   es
  405139:	add    bh,dl
  40513b:	push   ss
  40513c:	in     al,0x2
  40513e:	push   es
  40513f:	add    BYTE PTR [eax+0x17],bl
  405142:	mov    ebx,0x7a000602
  405147:	pop    ss
  405148:	je     0x40515e
  40514a:	push   es
  40514b:	add    BYTE PTR [edx+0xa014c17],dl
  405151:	add    BYTE PTR [esi+0xe016d17],ah
  405157:	add    BYTE PTR [ebp+0x6014c17],dh
  40515d:	add    ah,dl
  40515f:	pop    ss
  405160:	cdq    
  405161:	add    al,BYTE PTR [esi]
  405163:	add    BYTE PTR [eax+ebx*1],dl
  405166:	cdq    
  405167:	add    al,BYTE PTR [esi]
  405169:	add    BYTE PTR [ecx],bl
  40516b:	sbb    ah,ah
  40516d:	add    cl,BYTE PTR [esi]
  40516f:	add    BYTE PTR [ebx+0x18],ah
  405172:	dec    esp
  405173:	add    DWORD PTR [esi],ecx
  405175:	add    BYTE PTR [ecx+0x18],dh
  405178:	dec    esp
  405179:	add    DWORD PTR [esi],eax
  40517b:	add    BYTE PTR [ebp+0x6147418],bl
  405181:	add    BYTE PTR [esi+0xa147418],ch
  405187:	add    ch,bl
  405189:	sbb    al,dl
  40518b:	add    DWORD PTR [esi],eax
  40518d:	add    BYTE PTR [edi],bl
  40518f:	sbb    DWORD PTR [ebx+0x2a000602],edi
  405195:	sbb    DWORD PTR [ebx+0x42000602],edi
  40519b:	sbb    DWORD PTR [ebx+0x4d000602],edi
  4051a1:	sbb    DWORD PTR [ecx+eax*1+0x6],ecx
  4051a5:	add    BYTE PTR [edx+0x19],dh
  4051a8:	int3   
  4051a9:	adc    eax,DWORD PTR [esi]
  4051ab:	add    BYTE PTR [ecx+ebx*1+0xa014c],ch
  4051b2:	mov    eax,0xa016d19
  4051b7:	add    dl,bl
  4051b9:	sbb    DWORD PTR [ebp+0x1],ebp
  4051bc:	push   cs
  4051bd:	add    BYTE PTR [edx],bl
  4051bf:	sbb    ch,BYTE PTR [eax+0x3]
  4051c2:	push   cs
  4051c3:	add    BYTE PTR [edx+ebx*1],dh
  4051c6:	push   0x58000603
  4051cb:	sbb    bl,bl
  4051cd:	or     ecx,DWORD PTR [esi]
  4051cf:	add    BYTE PTR [edi+0x1a],ch
  4051d2:	push   0x8c000603
  4051d7:	sbb    cl,BYTE PTR [ecx+eax*1+0x6]
  4051db:	add    al,dl
  4051dd:	sbb    cl,BYTE PTR [ecx+eax*1+0x6]
  4051e1:	add    ah,ah
  4051e3:	sbb    ah,BYTE PTR [esi]
  4051e5:	or     eax,0x1b0c01bb
  4051ea:	add    BYTE PTR [eax],al
  4051ec:	push   ss
  4051ed:	add    BYTE PTR [ebp+0x1b],dh
  4051f0:	sbb    edx,DWORD PTR gs:[esi]
  4051f3:	add    BYTE PTR [edi+0x61b651b],cl
  4051f9:	add    bl,cl
  4051fb:	sbb    eax,DWORD PTR [edx-0x1bfff9ff]
  405201:	sbb    ecx,DWORD PTR [ecx+eax*1+0x6]
  405205:	add    BYTE PTR [esp+ebx*1],al
  405208:	dec    esp
  405209:	add    DWORD PTR [esi],eax
  40520b:	add    BYTE PTR [esi],bl
  40520d:	sbb    al,0x4c
  40520f:	add    DWORD PTR [esi],eax
  405211:	add    BYTE PTR [esi],dh
  405213:	sbb    al,0x4c
  405215:	add    DWORD PTR [esi],eax
  405217:	add    BYTE PTR [esp+ebx*1-0x8],bl
  40521b:	adc    al,0x6
  40521d:	add    BYTE PTR [ebp+0x614f81c],al
  405223:	add    BYTE PTR [esi+0x6014c1c],ah
  405229:	add    dh,dl
  40522b:	sbb    al,0x4c
  40522d:	add    DWORD PTR [esi],eax
  40522f:	add    BYTE PTR [ebx],bl
  405231:	sbb    eax,0x6014c
  405236:	and    DWORD PTR ds:0xa0bdb,ebx
  40523c:	xor    bl,BYTE PTR ds:0xa0200
  405242:	pop    ecx
  405243:	sbb    eax,0xa1d47
  405248:	jae    0x405267
  40524a:	inc    edi
  40524b:	sbb    eax,0x1dc00006
  405250:	dec    esp
  405251:	add    DWORD PTR [edx],ecx
  405253:	add    dl,dl
  405255:	sbb    eax,0xa0200
  40525a:	cli    
  40525b:	sbb    eax,0xa0200
  405260:	aaa    
  405261:	push   ds
  405262:	ins    DWORD PTR es:[edi],dx
  405263:	add    DWORD PTR [edx],ecx
  405265:	add    BYTE PTR [ecx+0xa02001e],dl
  40526b:	add    BYTE PTR [ecx+0x6016d1e],ch
  405271:	add    al,cl
  405273:	push   ds
  405274:	fisttp DWORD PTR [ebx]
  405276:	or     al,BYTE PTR [eax]
  405278:	rcr    BYTE PTR [esi],cl
  40527a:	add    BYTE PTR [edx],al
  40527c:	push   es
  40527d:	add    cl,ah
  40527f:	push   ds
  405280:	dec    esp
  405281:	add    DWORD PTR [edx],ecx
  405283:	add    BYTE PTR [edx],al
  405285:	pop    ds
  405286:	inc    edi
  405287:	sbb    eax,0x1f2b000a
  40528c:	inc    edi
  40528d:	sbb    eax,0x1f4a000a
  405292:	inc    edi
  405293:	sbb    eax,0x1fc20006
  405298:	mov    edx,0xe5000a08
  40529d:	pop    ds
  40529e:	ins    DWORD PTR es:[edi],dx
  40529f:	add    DWORD PTR [esi],eax
  4052a1:	add    cl,bh
  4052a3:	pop    ds
  4052a4:	dec    esp
  4052a5:	add    DWORD PTR [esi],eax
  4052a7:	add    BYTE PTR [edi],al
  4052a9:	and    bl,bl
  4052ab:	or     eax,DWORD PTR [esi]
  4052ad:	add    BYTE PTR [ecx],dh
  4052af:	and    BYTE PTR [edi+0x11],ah
  4052b5:	add    BYTE PTR [ecx],al
  4052b7:	add    BYTE PTR [eax],al
  4052b9:	add    BYTE PTR [eax],al
  4052bb:	add    BYTE PTR [ecx],al
  4052bd:	add    BYTE PTR [ecx],al
  4052bf:	add    BYTE PTR [eax],al
  4052c1:	add    BYTE PTR [eax],dl
  4052c3:	add    BYTE PTR [ecx],ch
  4052c5:	add    BYTE PTR [edx],dh
  4052c7:	add    BYTE PTR ds:0x1000100,al
  4052cd:	add    BYTE PTR [ebx],al
  4052cf:	add    BYTE PTR [eax],dl
  4052d1:	add    BYTE PTR [ebp+0x0],cl
  4052d4:	add    BYTE PTR [eax],al
  4052d6:	or     DWORD PTR [eax],eax
  4052d8:	add    eax,DWORD PTR [eax]
  4052da:	sbb    DWORD PTR [eax],eax
  4052dc:	add    eax,DWORD PTR [eax]
  4052de:	adc    BYTE PTR [eax],al
  4052e0:	pop    ecx
  4052e1:	add    BYTE PTR [eax],al
  4052e3:	add    BYTE PTR ds:0x1a000f00,cl
  4052e9:	add    BYTE PTR [ebx],al
  4052eb:	add    BYTE PTR [eax],dl
  4052ed:	add    BYTE PTR [edi+0x0],ah
  4052f0:	add    BYTE PTR [eax],al
  4052f2:	adc    DWORD PTR [eax],eax
  4052f4:	adc    DWORD PTR [eax],eax
  4052f6:	inc    edx
  4052f7:	add    BYTE PTR [eax],al
  4052f9:	add    DWORD PTR [eax],edx
  4052fb:	add    BYTE PTR [ebp+0x0],dh
  4052fe:	xor    al,BYTE PTR [eax]
  405300:	adc    eax,0x53001300
  405305:	add    BYTE PTR [eax],al
  405307:	add    DWORD PTR [eax],edx
  405309:	add    BYTE PTR [eax+eax*1+0x190032],cl
  405310:	adc    al,0x0
  405312:	push   ebp
  405313:	add    BYTE PTR [eax],al
  405315:	add    DWORD PTR [eax],edx
  405317:	add    BYTE PTR [eax+0x9003200],ah
  40531d:	add    BYTE PTR [eax+eax*1],dl
  405320:	push   edi
  405321:	add    BYTE PTR [eax-0x5cffefff],al
  405327:	add    BYTE PTR [eax+0x1f000900],bh
  40532d:	add    BYTE PTR [eax+0x0],ah
  405330:	add    BYTE PTR [eax],al
  405332:	adc    BYTE PTR [eax],al
  405334:	into   
  405335:	add    BYTE PTR [eax+0x30000900],bh
  40533b:	add    BYTE PTR [eax+0x0],ah
  40533e:	add    DWORD PTR [eax],eax
  405340:	adc    BYTE PTR [eax],al
  405342:	fadd   DWORD PTR [eax]
  405344:	xor    al,BYTE PTR [eax]
  405346:	or     DWORD PTR [eax],eax
  405348:	xor    eax,DWORD PTR [eax]
  40534a:	imul   eax,DWORD PTR [eax],0xffffff85
  40534d:	add    DWORD PTR [eax],edx
  40534f:	add    dl,ah
  405351:	add    BYTE PTR [eax],al
  405353:	add    BYTE PTR [ecx],cl
  405355:	add    BYTE PTR [eax],bh
  405357:	add    BYTE PTR [esi+0x0],bh
  40535a:	add    BYTE PTR [eax],al
  40535c:	adc    BYTE PTR [eax],al
  40535e:	icebp  
  40535f:	add    BYTE PTR [edx],dh
  405361:	add    BYTE PTR ds:0x82003800,bl
  405367:	add    BYTE PTR [eax],al
  405369:	add    BYTE PTR [eax],dl
  40536b:	add    BYTE PTR [edx],al
  40536d:	add    DWORD PTR [edx],esi
  40536f:	add    BYTE PTR [ecx],cl
  405371:	add    BYTE PTR [edx],bh
  405373:	add    BYTE PTR [ebp+0x10000000],cl
  405379:	add    BYTE PTR [ecx+eax*1],dl
  40537c:	xor    al,BYTE PTR [eax]
  40537e:	and    eax,0x92003b00
  405383:	add    BYTE PTR [eax],al
  405385:	add    BYTE PTR [eax],dl
  405387:	add    BYTE PTR [ebx],ah
  405389:	add    DWORD PTR [edx],esi
  40538b:	add    BYTE PTR ds:0x9a003d00,ah
  405391:	add    BYTE PTR [eax+0x35001000],al
  405397:	add    DWORD PTR [edx],esi
  405399:	add    BYTE PTR [ecx],cl
  40539b:	add    BYTE PTR [ecx+0x0],al
  40539e:	mov    ds:0x30001100,eax
  4053a3:	add    cl,BYTE PTR [edx]
  4053a5:	add    BYTE PTR [ecx],dl
  4053a7:	add    BYTE PTR [edx],bh
  4053a9:	add    cl,BYTE PTR [edx]
  4053ab:	add    BYTE PTR [esi],al
  4053ad:	add    BYTE PTR [esi],ch
  4053af:	add    al,0x93
  4053b1:	add    BYTE PTR [esi],al
  4053b3:	add    BYTE PTR [esi],dh
  4053b5:	add    al,0x93
  4053b7:	add    BYTE PTR [esi],al
  4053b9:	add    BYTE PTR [esi],bh
  4053bb:	add    al,0x93
  4053bd:	add    BYTE PTR [esi],al
  4053bf:	add    BYTE PTR [esi+0x4],al
  4053c2:	xchg   ebx,eax
  4053c3:	add    BYTE PTR [esi],al
  4053c5:	add    BYTE PTR [esi+0x4],cl
  4053c8:	xchg   ebx,eax
  4053c9:	add    BYTE PTR [esi],al
  4053cb:	add    BYTE PTR [edi+0x4],dl
  4053ce:	xchg   ebx,eax
  4053cf:	add    BYTE PTR [esi],al
  4053d1:	add    BYTE PTR [esp+eax*1-0x6a],bl
  4053d5:	add    BYTE PTR [esi],al
  4053d7:	add    BYTE PTR [esp+eax*1-0x6a],ch
  4053db:	add    BYTE PTR [esi],al
  4053dd:	add    BYTE PTR [esi+0x4],dh
  4053e0:	xchg   esi,eax
  4053e1:	add    BYTE PTR [esi],al
  4053e3:	add    BYTE PTR [ecx+0x6009604],al
  4053e9:	add    BYTE PTR [ecx+0x6009904],bl
  4053ef:	add    BYTE PTR [edi+0x1009d04],ch
  4053f5:	add    BYTE PTR [eax+0x100a104],bh
  4053fb:	add    BYTE PTR [edi+0x100a504],bh
  405401:	add    dh,cl
  405403:	push   es
  405404:	inc    esp
  405405:	add    DWORD PTR [ecx],eax
  405407:	add    dh,ah
  405409:	push   es
  40540a:	dec    eax
  40540b:	add    DWORD PTR [ecx],eax
  40540d:	add    ah,cl
  40540f:	pop    es
  405410:	xchg   esi,eax
  405411:	add    BYTE PTR [ebx-0x80],dl
  405414:	add    al,0x8
  405416:	xchg   ebx,eax
  405417:	add    BYTE PTR [ebx-0x80],dl
  40541a:	sbb    DWORD PTR [eax],ecx
  40541c:	xchg   ebx,eax
  40541d:	add    BYTE PTR [ebx-0x80],dl
  405420:	int    0x3
  405422:	xchg   ebx,eax
  405423:	add    BYTE PTR [ebx-0x80],dl
  405426:	or     BYTE PTR es:[ebx+0x2c805300],dl
  40542d:	or     BYTE PTR [ebx+0x35805300],dl
  405433:	or     BYTE PTR [ebx+0x3d805300],dl
  405439:	or     BYTE PTR [ebx+0x4b805300],dl
  40543f:	or     BYTE PTR [ebx+0x52001100],dl
  405445:	or     BYTE PTR ds:0x7a000102,dh
  40544b:	or     BYTE PTR [ecx],bh
  40544d:	add    dl,BYTE PTR [ecx]
  40544f:	add    BYTE PTR [eax+ecx*1-0x7facfdc3],al
  405456:	or     DWORD PTR cs:[ebx+0x3e805300],edx
  40545d:	or     DWORD PTR [ebx+0x4c805300],edx
  405463:	or     DWORD PTR [ebx+0x58805300],edx
  405469:	or     DWORD PTR [ebx+0x66805300],edx
  40546f:	or     DWORD PTR [ebx+0x73805300],edx
  405475:	or     DWORD PTR [ebx-0x7f7fad00],edx
  40547b:	or     DWORD PTR [ebx-0x6e7fad00],edx
  405481:	or     DWORD PTR [ebx-0x5b7fad00],edx
  405487:	or     DWORD PTR [ebx-0x457fad00],edx
  40548d:	or     DWORD PTR [ebx-0x317fad00],edx
  405493:	or     DWORD PTR [ebx-0x217fad00],edx
  405499:	or     DWORD PTR [ebx-0xc7fad00],edx
  40549f:	or     DWORD PTR [ebx+0x9805300],edx
  4054a5:	or     dl,BYTE PTR [ebx+0x22805300]
  4054ab:	or     dl,BYTE PTR [ebx+0x39805300]
  4054b1:	or     dl,BYTE PTR [ebx+0x4c805300]
  4054b7:	or     dl,BYTE PTR [ebx+0x77000100]
  4054bd:	or     al,dl
  4054bf:	add    eax,DWORD PTR [ecx]
  4054c1:	add    BYTE PTR [ebp+0xa],bh
  4054c4:	xchg   ebx,eax
  4054c5:	add    BYTE PTR [ecx],al
  4054c7:	add    BYTE PTR [edx+ecx*1+0x110093],al
  4054ce:	inc    esi
  4054cf:	or     esp,eax
  4054d1:	add    eax,DWORD PTR [ecx]
  4054d3:	add    BYTE PTR [eax+0xb],dl
  4054d6:	in     al,0x3
  4054d8:	add    DWORD PTR [eax],eax
  4054da:	addr16 or ebp,eax
  4054dd:	add    eax,DWORD PTR [ecx]
  4054df:	add    BYTE PTR [ebx+0xb],dh
  4054e2:	in     eax,dx
  4054e3:	add    eax,DWORD PTR [ecx]
  4054e5:	add    BYTE PTR [ebx+ecx*1-0x13],bh
  4054e9:	add    eax,DWORD PTR [ecx]
  4054eb:	add    BYTE PTR [esi+0xd],cl
  4054ee:	jb     0x4054f4
  4054f0:	add    DWORD PTR [eax],eax
  4054f2:	pop    edi
  4054f3:	or     eax,0x1047e
  4054f8:	push   ds
  4054f9:	push   cs
  4054fa:	cmp    eax,0x6a000402
  4054ff:	push   cs
  405500:	enter  0x404,0x0
  405504:	outs   dx,DWORD PTR ds:[esi]
  405505:	push   cs
  405506:	in     eax,dx
  405507:	add    eax,DWORD PTR [eax+eax*1]
  40550a:	addr16 or ebp,eax
  40550d:	add    eax,DWORD PTR [eax+eax*1]
  405510:	jae    0x40551d
  405512:	in     eax,dx
  405513:	add    eax,DWORD PTR [eax+eax*1]
  405516:	jl     0x405523
  405518:	in     eax,dx
  405519:	add    eax,DWORD PTR [eax+eax*1]
  40551c:	in     al,dx
  40551d:	push   cs
  40551e:	xchg   esi,eax
  40551f:	add    BYTE PTR [ebx-0x80],dl
  405522:	hlt    
  405523:	push   cs
  405524:	in     eax,dx
  405525:	add    edx,DWORD PTR [eax+0x21]
  405528:	add    BYTE PTR [eax],al
  40552a:	add    BYTE PTR [eax],al
  40552c:	xchg   ecx,eax
  40552d:	add    BYTE PTR [esi+0x2],al
  405530:	push   cs
  405531:	add    BYTE PTR [ecx],al
  405533:	add    BYTE PTR [ecx+eiz*1+0x0],ah
  40553a:	xchg   ecx,eax
  40553b:	add    BYTE PTR [ebp+0x2],dl
  40553e:	adc    al,BYTE PTR [eax]
  405540:	add    DWORD PTR [eax],eax
  405542:	fsub   QWORD PTR [edx]
  405544:	add    BYTE PTR [eax],al
  405546:	add    BYTE PTR [eax],al
  405548:	xchg   ecx,eax
  405549:	add    BYTE PTR [esi+0x2],bh
  40554c:	sbb    BYTE PTR [eax],al
  40554e:	add    al,BYTE PTR [eax]
  405550:	mov    WORD PTR [eax+eax*1],fs
  405553:	add    BYTE PTR [eax],al
  405555:	add    BYTE PTR [ecx+0x20028a00],dl
  40555b:	add    BYTE PTR [eax+eax*1],al
  40555e:	mov    eax,0x24
  405563:	add    BYTE PTR [ecx+0x2602d600],dl
  405569:	add    BYTE PTR ds:0x24ec00,al
  40556f:	add    BYTE PTR [eax],al
  405571:	add    BYTE PTR [ecx+0x2d030200],dl
  405577:	add    BYTE PTR [esi],al
  405579:	add    bh,al
  40557b:	and    eax,0x0
  405580:	xchg   ecx,eax
  405581:	add    BYTE PTR [ebx+eax*1],dl
  405584:	xor    eax,DWORD PTR [eax]
  405586:	pop    es
  405587:	add    dh,bl
  405589:	and    eax,0x0
  40558e:	xchg   ecx,eax
  40558f:	add    BYTE PTR [ecx],ah
  405591:	add    esi,DWORD PTR [ebx]
  405593:	add    BYTE PTR [eax],cl
  405595:	add    al,bh
  405597:	and    eax,0x0
  40559c:	add    DWORD PTR [eax],0x380330
  4055a2:	or     DWORD PTR [eax],eax
  4055a4:	sbb    al,0x28
  4055a6:	add    BYTE PTR [eax],al
  4055a8:	add    BYTE PTR [eax],al
  4055aa:	add    DWORD PTR [eax],0x3e034e
  4055b0:	or     al,BYTE PTR [eax]
  4055b2:	sub    BYTE PTR [eax],0x0
  4055b5:	add    BYTE PTR [eax],al
  4055b7:	add    BYTE PTR [ecx+0xe035e00],dl
  4055bd:	add    BYTE PTR [eax+eax*1],cl
  4055c0:	ins    BYTE PTR es:[edi],dx
  4055c1:	sub    DWORD PTR [eax],eax
  4055c3:	add    BYTE PTR [eax],al
  4055c5:	add    BYTE PTR [ecx+0x46038500],dl
  4055cb:	add    BYTE PTR [eax+eax*1],cl
  4055ce:	enter  0x29,0x0
  4055d2:	add    BYTE PTR [eax],al
  4055d4:	add    DWORD PTR [eax],0x4c0395
  4055da:	or     eax,0x2ac800
  4055df:	add    BYTE PTR [eax],al
  4055e1:	add    BYTE PTR [ecx+0x5303b000],al
  4055e7:	add    BYTE PTR [edi],cl
  4055e9:	add    BYTE PTR [eax],dh
  4055eb:	sub    eax,DWORD PTR [eax]
  4055ed:	add    BYTE PTR [eax],al
  4055ef:	add    BYTE PTR [ecx+0xe03c300],dl
  4055f5:	add    BYTE PTR [ecx],dl
  4055f7:	add    BYTE PTR [ebx+ebp*1+0x0],ah
  4055fb:	add    BYTE PTR [eax],al
  4055fd:	add    BYTE PTR [ecx+0x3303cd00],dl
  405603:	add    BYTE PTR [ecx],dl
  405605:	add    BYTE PTR [ebx+ebp*1+0x0],dl
  40560c:	xchg   ecx,eax
  40560d:	add    al,ah
  40560f:	add    ebx,DWORD PTR [ebx+0x0]
  405612:	adc    al,BYTE PTR [eax]
  405614:	loopne 0x405641
  405616:	add    BYTE PTR [eax],al
  405618:	add    BYTE PTR [eax],al
  40561a:	xchg   ecx,eax
  40561b:	add    dh,ch
  40561d:	add    esp,DWORD PTR [ecx+0x0]
  405620:	adc    eax,DWORD PTR [eax]
  405622:	clc    
  405623:	add    BYTE PTR cs:[eax],al
  405626:	add    BYTE PTR [eax],al
  405628:	xchg   ecx,eax
  405629:	add    ch,bh
  40562b:	add    ebp,DWORD PTR [eax+0x0]
  40562e:	adc    al,0x0
  405630:	dec    esp
  405631:	das    
  405632:	add    BYTE PTR [eax],al
  405634:	add    BYTE PTR [eax],al
  405636:	xchg   ecx,eax
  405637:	add    BYTE PTR [edx],cl
  405639:	add    al,0x6d
  40563b:	add    BYTE PTR ds:0x2f7900,dl
  405641:	add    BYTE PTR [eax],al
  405643:	add    BYTE PTR [ecx+0x75040a00],dl
  405649:	add    BYTE PTR [eax],bl
  40564b:	add    BYTE PTR [eax+0x2f],dl
  405651:	add    BYTE PTR [ecx+0x7e041a00],dl
  405657:	add    BYTE PTR [eax+eax*1],bl
  40565a:	icebp  
  40565b:	das    
  40565c:	add    BYTE PTR [eax],al
  40565e:	add    BYTE PTR [eax],al
  405660:	xchg   ecx,eax
  405661:	add    BYTE PTR [edx],bl
  405663:	add    al,0x86
  405665:	add    BYTE PTR [edi],bl
  405667:	add    BYTE PTR [edi],al
  405669:	xor    BYTE PTR [eax],al
  40566b:	add    BYTE PTR [eax],al
  40566d:	add    BYTE PTR [esi-0x70fbd7e8],al
  405673:	add    BYTE PTR [ebx],ah
  405675:	add    BYTE PTR [edi],cl
  405677:	xor    BYTE PTR [eax],al
  405679:	add    BYTE PTR [eax],al
  40567b:	add    BYTE PTR [esi-0x70fbd7e8],al
  405681:	add    BYTE PTR [ebx],ah
  405683:	add    BYTE PTR [eax],dh
  405685:	xor    BYTE PTR [eax],al
  405687:	add    BYTE PTR [eax],al
  405689:	add    BYTE PTR [esi-0x56fbd7e8],al
  40568f:	add    BYTE PTR [ebx],ah
  405691:	add    BYTE PTR [eax+esi*1+0x0],dl
  405698:	add    DWORD PTR [eax],0x8f04cc
  40569e:	and    eax,0x30f400
  4056a3:	add    BYTE PTR [eax],al
  4056a5:	add    BYTE PTR [ecx-0x4ffb0100],dl
  4056ab:	add    BYTE PTR ds:0x312100,ah
  4056b1:	add    BYTE PTR [eax],al
  4056b3:	add    dh,al
  4056b5:	or     BYTE PTR [ebx],cl
  4056b7:	add    eax,0x2800ba
  4056bc:	xor    BYTE PTR [ecx],dh
  4056be:	add    BYTE PTR [eax],al
  4056c0:	add    BYTE PTR [eax],al
  4056c2:	mov    BYTE PTR [eax],0x18
  4056c5:	add    eax,0x28008f
  4056ca:	jle    0x4056fd
  4056cc:	add    BYTE PTR [eax],al
  4056ce:	add    BYTE PTR [eax],al
  4056d0:	mov    BYTE PTR [eax],0x1e
  4056d3:	add    eax,0x2800bf
  4056d8:	lods   eax,DWORD PTR ds:[esi]
  4056d9:	xor    DWORD PTR [eax],eax
  4056db:	add    BYTE PTR [eax],al
  4056dd:	add    dh,al
  4056df:	add    BYTE PTR [eax],dh
  4056e1:	add    eax,0x2b00bf
  4056e6:	(bad)  
  4056e7:	xor    DWORD PTR [eax],eax
  4056e9:	add    BYTE PTR [eax],al
  4056eb:	add    dh,al
  4056ed:	add    BYTE PTR [ebp+eax*1-0x71],al
  4056f1:	add    BYTE PTR [esi],ch
  4056f3:	add    dh,ch
  4056f5:	xor    DWORD PTR [eax],eax
  4056f7:	add    BYTE PTR [eax],al
  4056f9:	add    dh,al
  4056fb:	add    BYTE PTR [esi+0x5],dl
  4056fe:	mov    BYTE PTR [eax],0x2e
  405701:	add    BYTE PTR [edi],al
  405703:	xor    al,BYTE PTR [eax]
  405705:	add    BYTE PTR [eax],al
  405707:	add    dh,al
  405709:	add    BYTE PTR [ebx+0x5],ah
  40570c:	retf   
  40570d:	add    BYTE PTR [edi],ch
  40570f:	add    BYTE PTR [ecx],ah
  405711:	xor    al,BYTE PTR [eax]
  405713:	add    BYTE PTR [eax],al
  405715:	add    dh,al
  405717:	add    BYTE PTR [esi+0x5],bh
  40571a:	mov    BYTE PTR [eax],0x31
  40571d:	add    BYTE PTR [eax+0x32],al
  405720:	add    BYTE PTR [eax],al
  405722:	add    BYTE PTR [eax],al
  405724:	mov    BYTE PTR [eax],0x8a
  405727:	add    eax,0x3200c6
  40572c:	pop    edi
  40572d:	xor    al,BYTE PTR [eax]
  40572f:	add    BYTE PTR [eax],al
  405731:	add    dh,al
  405733:	add    BYTE PTR [ebx+0x33008f05],dl
  405739:	add    BYTE PTR [edx+esi*1+0x0],ch
  40573d:	add    BYTE PTR [eax],al
  40573f:	add    dh,al
  405741:	add    BYTE PTR [ecx+0x3300d105],bl
  405747:	add    BYTE PTR [eax+0x32],al
  40574d:	add    dh,al
  40574f:	add    BYTE PTR [ecx+0x3400c605],bl
  405755:	add    BYTE PTR [edx+esi*1+0x0],dl
  40575c:	mov    BYTE PTR [eax],0x99
  40575f:	add    eax,0x3500d6
  405764:	test   al,0x32
  405766:	add    BYTE PTR [eax],al
  405768:	add    BYTE PTR [eax],al
  40576a:	mov    BYTE PTR [eax],0x99
  40576d:	add    eax,0x3600db
  405772:	mov    esp,0x32
  405777:	add    dh,al
  405779:	add    BYTE PTR [ecx+0x3700e105],bl
  40577f:	add    al,dl
  405781:	xor    al,BYTE PTR [eax]
  405783:	add    BYTE PTR [eax],al
  405785:	add    dh,al
  405787:	add    BYTE PTR [ecx+0x3800e605],bl
  40578d:	add    ah,ah
  40578f:	xor    al,BYTE PTR [eax]
  405791:	add    BYTE PTR [eax],al
  405793:	add    dh,al
  405795:	add    BYTE PTR [ecx+0x3900eb05],bl
  40579b:	add    al,bh
  40579d:	xor    al,BYTE PTR [eax]
  40579f:	add    BYTE PTR [eax],al
  4057a1:	add    dh,al
  4057a3:	add    BYTE PTR [ecx+0x3a00f105],bl
  4057a9:	add    BYTE PTR [ebx+esi*1],cl
  4057ac:	add    BYTE PTR [eax],al
  4057ae:	add    BYTE PTR [eax],al
  4057b0:	mov    BYTE PTR [eax],0x99
  4057b3:	add    eax,0x3b00f6
  4057b8:	and    BYTE PTR [ebx],dh
  4057ba:	add    BYTE PTR [eax],al
  4057bc:	add    BYTE PTR [eax],al
  4057be:	mov    BYTE PTR [eax],0xb5
  4057c1:	add    eax,0x3c008f
  4057c6:	cmp    BYTE PTR [ebx],dh
  4057c8:	add    BYTE PTR [eax],al
  4057ca:	add    BYTE PTR [eax],al
  4057cc:	mov    BYTE PTR [eax],0xc5
  4057cf:	add    eax,0x3c008f
  4057d4:	push   eax
  4057d5:	xor    eax,DWORD PTR [eax]
  4057d7:	add    BYTE PTR [eax],al
  4057d9:	add    dh,al
  4057db:	or     ah,ah
  4057dd:	add    eax,0x3c00fb
  4057e2:	pop    ebp
  4057e3:	xor    eax,DWORD PTR [eax]
  4057e5:	add    BYTE PTR [eax],al
  4057e7:	add    dh,al
  4057e9:	add    bl,dh
  4057eb:	add    eax,0x3c008f
  4057f0:	xor    eax,DWORD PTR fs:[eax]
  4057f3:	add    BYTE PTR [eax],al
  4057f5:	add    dh,al
  4057f7:	add    bl,dh
  4057f9:	add    eax,0x3c00d6
  4057fe:	imul   esi,DWORD PTR [ebx],0x0
  405801:	add    BYTE PTR [eax],al
  405803:	add    dh,al
  405805:	add    BYTE PTR [esi],al
  405807:	push   es
  405808:	pop    DWORD PTR [eax]
  40580a:	cmp    eax,0x337200
  40580f:	add    BYTE PTR [eax],al
  405811:	add    dh,al
  405813:	add    BYTE PTR [edi],dl
  405815:	push   es
  405816:	add    BYTE PTR [ecx],al
  405818:	cmp    eax,0x337900
  40581d:	add    BYTE PTR [eax],al
  40581f:	add    dh,al
  405821:	add    BYTE PTR [esi+eax*1],ah
  405824:	mov    BYTE PTR [eax],0x41
  405827:	add    BYTE PTR [eax+0x33],al
  40582d:	add    dh,al
  40582f:	add    BYTE PTR [ebx],dh
  405831:	push   es
  405832:	or     BYTE PTR [ecx],al
  405834:	inc    edx
  405835:	add    BYTE PTR [edi+0x33],al
  40583b:	add    dh,al
  40583d:	add    BYTE PTR [ebx+0x6],al
  405840:	or     eax,0x8e004301
  405845:	xor    eax,DWORD PTR [eax]
  405847:	add    BYTE PTR [eax],al
  405849:	add    dh,al
  40584b:	add    BYTE PTR [esi+eax*1-0x3a],bl
  40584f:	add    BYTE PTR [ebp+0x0],al
  405852:	xchg   ebp,eax
  405853:	xor    eax,DWORD PTR [eax]
  405855:	add    BYTE PTR [eax],al
  405857:	add    dh,al
  405859:	add    BYTE PTR [esi+eax*1+0x13],ch
  40585d:	add    DWORD PTR [esi+0x0],eax
  405860:	pushf  
  405861:	xor    eax,DWORD PTR [eax]
  405863:	add    BYTE PTR [eax],al
  405865:	add    dh,al
  405867:	add    BYTE PTR [edx+0x49011305],cl
  40586d:	add    BYTE PTR [ebx+0x33],ah
  405873:	add    dh,al
  405875:	add    BYTE PTR [edi+0x6],dh
  405878:	sbb    eax,DWORD PTR [ecx]
  40587a:	dec    esp
  40587b:	add    BYTE PTR [edx+0x33],ch
  405881:	add    dh,al
  405883:	add    BYTE PTR [ebx+0x4f00c606],al
  405889:	add    BYTE PTR [ecx+0x33],dh
  40588f:	add    dh,al
  405891:	add    BYTE PTR [esi+0x50012306],cl
  405897:	add    BYTE PTR [eax+0x33],bh
  40589d:	add    dh,al
  40589f:	or     BYTE PTR [esi+eax*1+0x510128],ah
  4058a6:	mov    edi,0x33
  4058ab:	add    dh,al
  4058ad:	or     BYTE PTR [ecx+0x51012d06],dh
  4058b3:	add    dh,al
  4058b5:	xor    eax,DWORD PTR [eax]
  4058b7:	add    BYTE PTR [eax],al
  4058b9:	add    BYTE PTR [esi+0x4c042818],al
  4058bf:	add    DWORD PTR [ecx+0x0],edx
  4058c2:	loopne 0x4058f7
  4058c4:	add    BYTE PTR [eax],al
  4058c6:	add    BYTE PTR [eax],al
  4058c8:	(bad)  
  4058c9:	or     ah,ch
  4058cb:	push   es
  4058cc:	push   edx
  4058cd:	add    DWORD PTR [edx+0x0],edx
  4058d0:	in     eax,dx
  4058d1:	xor    eax,DWORD PTR [eax]
  4058d3:	add    BYTE PTR [eax],al
  4058d5:	add    dh,al
  4058d7:	add    cl,bh
  4058d9:	push   es
  4058da:	sbb    eax,DWORD PTR [ecx]
  4058dc:	push   edx
  4058dd:	add    BYTE PTR [edi],al
  4058df:	xor    al,0x0
  4058e1:	add    BYTE PTR [eax],al
  4058e3:	add    dh,al
  4058e5:	add    BYTE PTR [ebx+0x55008f05],dl
  4058eb:	add    BYTE PTR [esi],bl
  4058ed:	xor    al,0x0
  4058ef:	add    BYTE PTR [eax],al
  4058f1:	add    BYTE PTR [esi+0x5606ff08],al
  4058f7:	add    DWORD PTR [ebp+0x0],edx
  4058fa:	sub    BYTE PTR [eax+eax*1],dh
  4058fd:	add    BYTE PTR [eax],al
  4058ff:	add    BYTE PTR [esi-0x70f8f200],al
  405905:	add    BYTE PTR [ebp+0x0],dl
  405908:	js     0x40593e
  40590a:	add    BYTE PTR [eax],al
  40590c:	add    BYTE PTR [eax],al
  40590e:	mov    BYTE PTR [eax],0x18
  405911:	add    eax,0x55008f
  405916:	mov    esi,DWORD PTR [eax+eax*1]
  405919:	add    BYTE PTR [eax],al
  40591b:	add    ah,al
  40591d:	add    BYTE PTR [edx],bl
  40591f:	pop    es
  405920:	(bad)  
  405921:	add    BYTE PTR [ebp+0x0],dl
  405924:	xchg   ebx,eax
  405925:	xor    al,0x0
  405927:	add    BYTE PTR [eax],al
  405929:	add    dh,al
  40592b:	or     BYTE PTR [edx],ah
  40592d:	pop    es
  40592e:	push   edx
  40592f:	add    DWORD PTR [esi+0x0],edx
  405932:	xchg   esi,eax
  405933:	xor    al,0x0
  405935:	add    BYTE PTR [eax],al
  405937:	add    dh,al
  405939:	or     BYTE PTR [ecx],dh
  40593b:	pop    es
  40593c:	push   edx
  40593d:	add    DWORD PTR [esi+0x0],edx
  405940:	cdq    
  405941:	xor    al,0x0
  405943:	add    BYTE PTR [eax],al
  405945:	add    dh,al
  405947:	add    BYTE PTR ds:0x56015b07,bh
  40594d:	add    BYTE PTR [eax+0x34],ah
  405953:	add    dh,al
  405955:	or     BYTE PTR [edx+0x7],al
  405958:	push   edx
  405959:	add    DWORD PTR [ecx+0x0],ebx
  40595c:	mov    ds:0x34,eax
  405961:	add    dh,al
  405963:	add    BYTE PTR [ecx+0x7],bl
  405966:	arpl   WORD PTR [ecx],ax
  405968:	pop    ecx
  405969:	add    BYTE PTR [edx+0x34],ch
  40596f:	add    dh,al
  405971:	or     BYTE PTR [esi+0x7],bl
  405974:	push   0x1
  405976:	pop    ebx
  405977:	add    BYTE PTR [ecx+0x34],dh
  40597d:	add    dh,al
  40597f:	or     BYTE PTR [ebx+0x7],ch
  405982:	test   BYTE PTR [eax],0x5b
  405985:	add    BYTE PTR [eax+0x34],bh
  40598b:	add    dh,al
  40598d:	or     BYTE PTR [eax+0x7],bh
  405990:	push   0x1
  405992:	pop    esp
  405993:	add    BYTE PTR [edi+0x34],bh
  405999:	add    dh,al
  40599b:	add    BYTE PTR [ebx+0x5c00f607],al
  4059a1:	add    dh,al
  4059a3:	xor    al,0x0
  4059a5:	add    BYTE PTR [eax],al
  4059a7:	add    BYTE PTR [esi-0x39fbd7e8],al
  4059ad:	add    BYTE PTR [ebp+0x0],bl
  4059b0:	iret   
  4059b1:	xor    al,0x0
  4059b3:	add    BYTE PTR [eax],al
  4059b5:	add    dh,al
  4059b7:	or     ch,dl
  4059b9:	pop    es
  4059ba:	sub    eax,0xf7005e01
  4059bf:	xor    al,0x0
  4059c1:	add    BYTE PTR [eax],al
  4059c3:	add    BYTE PTR [esi-0x39fbd7e8],al
  4059c9:	add    BYTE PTR [esi+0x0],bl
  4059cc:	add    BYTE PTR ds:0x0,dh
  4059d2:	les    eax,FWORD PTR [eax]
  4059d4:	icebp  
  4059d5:	pop    es
  4059d6:	and    eax,DWORD PTR [ecx]
  4059d8:	pop    edi
  4059d9:	add    BYTE PTR [eax],cl
  4059db:	xor    eax,0x0
  4059e0:	xchg   ecx,eax
  4059e1:	or     BYTE PTR [ecx+0x60024008],bl
  4059e7:	add    BYTE PTR [esi*1+0x0],dh
  4059ee:	sbb    DWORD PTR [eax],0x28
  4059f1:	add    al,0x8f
  4059f3:	add    BYTE PTR [eax+0x0],ah
  4059f6:	pop    eax
  4059f7:	xor    eax,0x0
  4059fc:	xchg   ecx,eax
  4059fd:	add    BYTE PTR [eax+0x60024408],dh
  405a03:	add    BYTE PTR [eax+0x35],dh
  405a09:	add    BYTE PTR [ecx+0x4908db08],dl
  405a0f:	add    ah,BYTE PTR [eax+0x0]
  405a12:	mov    bl,0x35
  405a14:	add    BYTE PTR [eax],al
  405a16:	add    BYTE PTR [eax],al
  405a18:	xchg   esi,eax
  405a19:	or     bh,ah
  405a1b:	or     BYTE PTR [edi+0x2],cl
  405a1e:	pusha  
  405a1f:	add    al,al
  405a21:	xor    eax,0x0
  405a26:	xchg   esi,eax
  405a27:	add    ch,dh
  405a29:	or     BYTE PTR [edx+eax*1+0x60],dl
  405a2d:	add    BYTE PTR [esi+esi*1],al
  405a30:	add    BYTE PTR [eax],al
  405a32:	add    BYTE PTR [eax],al
  405a34:	xchg   esi,eax
  405a35:	add    ch,dh
  405a37:	or     BYTE PTR [eax+0x0],ch
  405a3a:	bound  eax,QWORD PTR [eax]
  405a3c:	xor    BYTE PTR [esi],dh
  405a3e:	add    BYTE PTR [eax],al
  405a40:	add    BYTE PTR [eax],al
  405a42:	xchg   esi,eax
  405a43:	add    bh,bh
  405a45:	or     BYTE PTR [ebx+0x2],bl
  405a48:	arpl   WORD PTR [eax],ax
  405a4a:	pop    ecx
  405a4b:	add    BYTE PTR ss:[eax],al
  405a4e:	add    BYTE PTR [eax],al
  405a50:	xchg   ecx,eax
  405a51:	sbb    BYTE PTR [ebp+0x64000e1c],bh
  405a57:	add    BYTE PTR [ecx+0x36],ah
  405a5a:	add    BYTE PTR [eax],al
  405a5c:	add    BYTE PTR [eax],al
  405a5e:	sbb    DWORD PTR [eax],0x8f0428
  405a64:	add    BYTE PTR fs:[edx+0x36],cl
  405a6b:	add    BYTE PTR [ebx-0x38f573f8],al
  405a71:	add    esp,DWORD PTR [eax+eax*1-0x6e]
  405a75:	add    BYTE PTR ss:[eax],al
  405a78:	add    BYTE PTR [eax],al
  405a7a:	or     DWORD PTR [eax],0xffffff96
  405a7d:	or     cl,ch
  405a7f:	add    esp,DWORD PTR [eax+eax*1-0x65]
  405a83:	add    BYTE PTR ss:[eax],al
  405a86:	add    BYTE PTR [eax],al
  405a88:	or     DWORD PTR [eax],0xffffffa0
  405a8b:	or     ch,BYTE PTR ds:0xa8006501
  405a91:	add    BYTE PTR ss:[eax],al
  405a94:	add    BYTE PTR [eax],al
  405a96:	or     DWORD PTR [eax],0xffffffae
  405a99:	or     ch,BYTE PTR ds:0xb0006501
  405a9f:	add    BYTE PTR ss:[eax],al
  405aa2:	add    BYTE PTR [eax],al
  405aa4:	or     DWORD PTR [eax],0xffffffb9
  405aa7:	or     al,dh
  405aa9:	add    BYTE PTR [ebp+0x0],ah
  405aac:	mov    ecx,0x36
  405ab1:	add    BYTE PTR [ebx+0x2d0ac408],al
  405ab7:	add    DWORD PTR [esi+0x0],esp
  405aba:	(bad)  
  405abb:	add    BYTE PTR ss:[eax],al
  405abe:	add    BYTE PTR [eax],al
  405ac0:	or     DWORD PTR [eax],0xffffffd2
  405ac3:	or     ch,BYTE PTR ds:0xce006601
  405ac9:	add    BYTE PTR ss:[eax],al
  405acc:	add    BYTE PTR [eax],al
  405ace:	or     DWORD PTR [eax],0xffffffde
  405ad1:	or     al,dh
  405ad3:	add    BYTE PTR [esi+0x0],ah
  405ad6:	fdiv   DWORD PTR [esi]
  405ad8:	add    BYTE PTR [eax],al
  405ada:	add    BYTE PTR [eax],al
  405adc:	xchg   ebx,eax
  405add:	add    dl,ch
  405adf:	or     dl,ah
  405ae1:	add    esp,DWORD PTR [edi+0x0]
  405ae4:	test   BYTE PTR [edi],dh
  405ae6:	add    BYTE PTR [eax],al
  405ae8:	add    BYTE PTR [eax],al
  405aea:	or     DWORD PTR [eax],0x1
  405aed:	or     ebp,DWORD PTR ds:0x7c006801
  405af3:	cmp    BYTE PTR [eax],al
  405af5:	add    BYTE PTR [eax],al
  405af7:	add    BYTE PTR [ecx-0x70fbd7e8],al
  405afd:	add    BYTE PTR [eax+0x0],ch
  405b00:	(bad)  
  405b01:	cmp    BYTE PTR [eax],al
  405b03:	add    BYTE PTR [eax],al
  405b05:	add    BYTE PTR [esi-0xff47f00],dl
  405b0b:	add    ebp,DWORD PTR [eax+0x0]
  405b0e:	test   al,0x38
  405b10:	add    BYTE PTR [eax],al
  405b12:	add    BYTE PTR [eax],al
  405b14:	xchg   BYTE PTR [eax],al
  405b16:	retf   
  405b17:	or     esi,ebp
  405b19:	add    ebp,DWORD PTR [eax+0x0]
  405b1c:	xchg   esp,eax
  405b1d:	cmp    DWORD PTR [eax],eax
  405b1f:	add    BYTE PTR [eax],al
  405b21:	add    BYTE PTR [esi-0xf40c00],al
  405b27:	add    ebp,DWORD PTR [ebx+0x0]
  405b2a:	int3   
  405b2b:	cmp    DWORD PTR [eax],eax
  405b2d:	add    BYTE PTR [eax],al
  405b2f:	add    BYTE PTR [esi+0xb0c0200],al
  405b35:	add    al,0x6d
  405b37:	add    BYTE PTR [edx+edi*1],al
  405b3a:	add    BYTE PTR [eax],al
  405b3c:	add    BYTE PTR [eax],al
  405b3e:	xchg   BYTE PTR [eax],al
  405b40:	adc    eax,0x6e04140c
  405b45:	add    BYTE PTR [edx+edi*1+0x0],cl
  405b49:	add    BYTE PTR [eax],al
  405b4b:	add    BYTE PTR [esi+0x1f0c2500],al
  405b51:	add    al,0x70
  405b53:	add    BYTE PTR [eax+0x3a],dh
  405b56:	add    BYTE PTR [eax],al
  405b58:	add    BYTE PTR [eax],al
  405b5a:	xchg   BYTE PTR [eax],al
  405b5c:	xor    al,0xc
  405b5e:	es add al,0x71
  405b61:	add    BYTE PTR [ebx+0x3b],bl
  405b64:	add    BYTE PTR [eax],al
  405b66:	add    BYTE PTR [eax],al
  405b68:	xchg   BYTE PTR [eax],al
  405b6a:	inc    ecx
  405b6b:	or     al,0x30
  405b6d:	add    al,0x75
  405b6f:	add    BYTE PTR [ebx+edi*1+0x0],ah
  405b73:	add    BYTE PTR [eax],al
  405b75:	add    BYTE PTR [esi+0x520c5000],al
  405b7b:	add    DWORD PTR [esi+0x0],esi
  405b7e:	jb     0x405bbb
  405b80:	add    BYTE PTR [eax],al
  405b82:	add    BYTE PTR [eax],al
  405b84:	xchg   BYTE PTR [eax],al
  405b86:	pop    ebp
  405b87:	or     al,0xf1
  405b89:	add    BYTE PTR [esi+0x0],dh
  405b8c:	jnp    0x405bc9
  405b8e:	add    BYTE PTR [eax],al
  405b90:	add    BYTE PTR [eax],al
  405b92:	xchg   BYTE PTR [eax],al
  405b94:	imul   ecx,DWORD PTR [ecx+esi*8],0x84007700
  405b9b:	cmp    eax,DWORD PTR [eax]
  405b9d:	add    BYTE PTR [eax],al
  405b9f:	add    BYTE PTR [esi+0x370c7100],dl
  405ba5:	add    al,0x78
  405ba7:	add    al,dl
  405ba9:	cmp    eax,DWORD PTR [eax]
  405bab:	add    BYTE PTR [eax],al
  405bad:	add    BYTE PTR [esi+0x3e0c8600],al
  405bb3:	add    al,0x79
  405bb5:	add    BYTE PTR [eax+0x3d],dl
  405bb8:	add    BYTE PTR [eax],al
  405bba:	add    BYTE PTR [eax],al
  405bbc:	xchg   ecx,eax
  405bbd:	add    BYTE PTR [edi+0x7a00200c],cl
  405bc3:	add    BYTE PTR [ebp+edi*1+0x0],cl
  405bca:	xchg   BYTE PTR [eax],al
  405bcc:	mov    al,ds:0x7b04430c
  405bd1:	add    BYTE PTR [edi+edi*1+0x0],al
  405bd5:	add    BYTE PTR [eax],al
  405bd7:	add    BYTE PTR [esi+0x230cb100],al
  405bdd:	add    DWORD PTR [ebp+0x0],edi
  405be0:	and    al,0x40
  405be2:	add    BYTE PTR [eax],al
  405be4:	add    BYTE PTR [eax],al
  405be6:	xchg   BYTE PTR [eax],al
  405be8:	retf   
  405be9:	or     al,0x4b
  405beb:	add    al,0x7e
  405bed:	add    al,bl
  405bef:	inc    eax
  405bf0:	add    BYTE PTR [eax],al
  405bf2:	add    BYTE PTR [eax],al
  405bf4:	xchg   BYTE PTR [eax],al
  405bf6:	loopne 0x405c04
  405bf8:	push   ebp
  405bf9:	add    al,0x7f
  405bfb:	add    BYTE PTR [ecx+eax*2+0x0],bl
  405bff:	add    BYTE PTR [eax],al
  405c01:	add    BYTE PTR [esi+0x5c0ced00],dl
  405c07:	add    al,0x80
  405c09:	add    al,ch
  405c0b:	inc    ecx
  405c0c:	add    BYTE PTR [eax],al
  405c0e:	add    BYTE PTR [eax],al
  405c10:	xchg   esi,eax
  405c11:	add    dh,dh
  405c13:	or     al,0x61
  405c15:	add    al,0x81
  405c17:	add    BYTE PTR [eax+0x42],al
  405c1d:	add    BYTE PTR [esi+0x660cff00],dl
  405c23:	add    al,0x82
  405c25:	add    cl,bh
  405c27:	inc    edx
  405c28:	add    BYTE PTR [eax],al
  405c2a:	add    BYTE PTR [eax],al
  405c2c:	xchg   ecx,eax
  405c2d:	add    BYTE PTR [ecx],bl
  405c2f:	or     eax,0x83046b
  405c34:	and    al,0x43
  405c36:	add    BYTE PTR [eax],al
  405c38:	add    BYTE PTR [eax],al
  405c3a:	xchg   BYTE PTR [eax],al
  405c3c:	xor    al,0xc
  405c3e:	xchg   DWORD PTR [esp+eax*4],eax
  405c41:	add    BYTE PTR [eax+0x44],ch
  405c44:	add    BYTE PTR [eax],al
  405c46:	add    BYTE PTR [eax],al
  405c48:	xchg   BYTE PTR [eax],al
  405c4a:	push   eax
  405c4b:	or     al,0x8f
  405c4d:	add    BYTE PTR [esi+0x448000],al
  405c53:	add    BYTE PTR [eax],al
  405c55:	add    dh,al
  405c57:	or     BYTE PTR [edx+0xd],ch
  405c5a:	sub    eax,0x94008601
  405c5f:	inc    esp
  405c60:	add    BYTE PTR [eax],al
  405c62:	add    BYTE PTR [eax],al
  405c64:	mov    BYTE PTR [eax],0x7f
  405c67:	or     eax,0x860123
  405c6c:	mov    eax,0x44
  405c71:	add    dh,al
  405c73:	add    BYTE PTR [edi-0x78fb70f3],cl
  405c79:	add    bh,dh
  405c7b:	inc    esp
  405c7c:	add    BYTE PTR [eax],al
  405c7e:	add    BYTE PTR [eax],al
  405c80:	mov    BYTE PTR [eax],0xb4
  405c83:	or     eax,0x890496
  405c88:	cli    
  405c89:	inc    esp
  405c8a:	add    BYTE PTR [eax],al
  405c8c:	add    BYTE PTR [eax],al
  405c8e:	(bad)  
  405c8f:	or     ah,al
  405c91:	or     eax,0x8c0152
  405c96:	std    
  405c97:	inc    esp
  405c98:	add    BYTE PTR [eax],al
  405c9a:	add    BYTE PTR [eax],al
  405c9c:	mov    BYTE PTR [eax],0xd3
  405c9f:	or     eax,0x8c04a2
  405ca4:	add    BYTE PTR [ebp+0x0],al
  405ca7:	add    BYTE PTR [eax],al
  405ca9:	add    dh,al
  405cab:	add    dh,ah
  405cad:	or     eax,0x8d04a9
  405cb2:	add    eax,DWORD PTR [ebp+0x0]
  405cb5:	add    BYTE PTR [eax],al
  405cb7:	add    BYTE PTR [ebx-0x50f20a00],al
  405cbd:	add    al,0x8f
  405cbf:	add    BYTE PTR [ecx],dl
  405cc1:	inc    ebp
  405cc2:	add    BYTE PTR [eax],al
  405cc4:	add    BYTE PTR [eax],al
  405cc6:	xchg   BYTE PTR [eax],bl
  405cc8:	sub    BYTE PTR [edi+ecx*4],al
  405ccb:	add    BYTE PTR [eax+0x452f00],dl
  405cd1:	add    BYTE PTR [eax],al
  405cd3:	add    BYTE PTR [esi-0x2efbd7e8],al
  405cd9:	add    BYTE PTR [eax+0x453e00],dl
  405cdf:	add    BYTE PTR [eax],al
  405ce1:	add    dh,ah
  405ce3:	or     DWORD PTR [esi+ecx*1],esp
  405ce6:	push   edx
  405ce7:	add    DWORD PTR [ecx+0x454100],edx
  405ced:	add    BYTE PTR [eax],al
  405cef:	add    dh,ah
  405cf1:	or     DWORD PTR [eax],esi
  405cf3:	push   cs
  405cf4:	push   edx
  405cf5:	add    DWORD PTR [ecx+0x454400],edx
  405cfb:	add    BYTE PTR [eax],al
  405cfd:	add    dh,ah
  405cff:	or     DWORD PTR [esi+ecx*1],edi
  405d02:	mov    dh,0x4
  405d04:	xchg   ecx,eax
  405d05:	add    BYTE PTR [eax+0x45],cl
  405d08:	add    BYTE PTR [eax],al
  405d0a:	add    BYTE PTR [eax],al
  405d0c:	out    0x1,al
  405d0e:	xchg   BYTE PTR [esp+edi*4],cl
  405d11:	add    al,0x91
  405d13:	add    BYTE PTR [edi+0x45],al
  405d19:	add    BYTE PTR [esi-0x32fbd7e8],al
  405d1f:	add    al,0x92
  405d21:	add    BYTE PTR [eax+0x45],ah
  405d27:	add    dh,al
  405d29:	add    BYTE PTR [ebp+0xe],dh
  405d2c:	aam    0x4
  405d2e:	xchg   ebx,eax
  405d2f:	add    dh,al
  405d31:	inc    ebp
  405d32:	add    BYTE PTR [eax],al
  405d34:	add    BYTE PTR [eax],al
  405d36:	mov    BYTE PTR [eax],0x7b
  405d39:	push   cs
  405d3a:	push   edx
  405d3b:	add    DWORD PTR [ebx+0x45ec00],edx
  405d41:	add    BYTE PTR [eax],al
  405d43:	add    dh,al
  405d45:	or     BYTE PTR [esi+ecx*1+0x9304d9],al
  405d4c:	adc    DWORD PTR [esi+0x0],eax
  405d4f:	add    BYTE PTR [eax],al
  405d51:	add    dh,al
  405d53:	or     BYTE PTR [eax-0x6cfb20f2],dl
  405d59:	add    BYTE PTR [ecx],bl
  405d5b:	inc    esi
  405d5c:	add    BYTE PTR [eax],al
  405d5e:	add    BYTE PTR [eax],al
  405d60:	(bad)  
  405d61:	or     BYTE PTR [esi+ecx*1+0x9304df],ah
  405d68:	es inc esi
  405d6a:	add    BYTE PTR [eax],al
  405d6c:	add    BYTE PTR [eax],al
  405d6e:	xchg   BYTE PTR [eax],al
  405d70:	scas   al,BYTE PTR es:[edi]
  405d71:	push   cs
  405d72:	pop    DWORD PTR [eax]
  405d74:	xchg   ebx,eax
  405d75:	add    BYTE PTR [edi],ch
  405d77:	inc    esi
  405d78:	add    BYTE PTR [eax],al
  405d7a:	add    BYTE PTR [eax],al
  405d7c:	mov    BYTE PTR [eax],0xc0
  405d7f:	push   cs
  405d80:	jecxz  0x405d86
  405d82:	xchg   ebx,eax
  405d83:	add    BYTE PTR [esi+eax*2],bh
  405d86:	add    BYTE PTR [eax],al
  405d88:	add    BYTE PTR [eax],al
  405d8a:	xchg   BYTE PTR [eax],bl
  405d8c:	sub    BYTE PTR [eax+esi*1],al
  405d8f:	add    al,0x93
  405d91:	add    BYTE PTR [edx+0x46],dl
  405d94:	add    BYTE PTR [eax],al
  405d96:	add    BYTE PTR [eax],al
  405d98:	xchg   BYTE PTR [eax],bl
  405d9a:	sub    BYTE PTR [ebx+esi*8],al
  405d9d:	add    al,0x94
  405d9f:	add    BYTE PTR [edi+0x46],ch
  405da2:	add    BYTE PTR [eax],al
  405da4:	add    BYTE PTR [eax],al
  405da6:	mov    BYTE PTR [eax],0x75
  405da9:	push   cs
  405daa:	aam    0x4
  405dac:	xchg   edi,eax
  405dad:	add    BYTE PTR [eax+0x46],cl
  405db3:	add    dh,al
  405db5:	add    BYTE PTR [ebx+0xe],bh
  405db8:	push   edx
  405db9:	add    DWORD PTR [edi+0x469c00],edx
  405dbf:	add    BYTE PTR [eax],al
  405dc1:	add    dh,al
  405dc3:	or     BYTE PTR [esi+ecx*1+0x9704d9],al
  405dca:	movs   BYTE PTR es:[edi],BYTE PTR ds:[esi]
  405dcb:	inc    esi
  405dcc:	add    BYTE PTR [eax],al
  405dce:	add    BYTE PTR [eax],al
  405dd0:	(bad)  
  405dd1:	or     BYTE PTR [eax-0x68fb20f2],dl
  405dd7:	add    BYTE PTR [esi+eax*2+0x0],ch
  405dde:	(bad)  
  405ddf:	or     BYTE PTR [esi+ecx*1+0x9704df],ah
  405de6:	mov    ah,0x46
  405de8:	add    BYTE PTR [eax],al
  405dea:	add    BYTE PTR [eax],al
  405dec:	xchg   BYTE PTR [eax],al
  405dee:	scas   al,BYTE PTR es:[edi]
  405def:	push   cs
  405df0:	pop    DWORD PTR [eax]
  405df2:	xchg   edi,eax
  405df3:	add    BYTE PTR [ebp+0x46],bh
  405df9:	add    dh,al
  405dfb:	add    al,al
  405dfd:	push   cs
  405dfe:	jecxz  0x405e04
  405e00:	xchg   edi,eax
  405e01:	add    al,al
  405e03:	inc    esi
  405e04:	add    BYTE PTR [eax],al
  405e06:	add    BYTE PTR [eax],al
  405e08:	sbb    DWORD PTR [eax],0x8f0428
  405e0e:	xchg   edi,eax
  405e0f:	add    BYTE PTR [eax],al
  405e11:	add    BYTE PTR [eax],al
  405e13:	add    BYTE PTR [eax-0x2df6a00],al
  405e19:	push   cs
  405e1a:	add    DWORD PTR ds:0x97,eax
  405e20:	add    BYTE PTR [eax],al
  405e22:	add    BYTE PTR [eax],0x96
  405e25:	and    BYTE PTR [edi+ecx*1],dl
  405e28:	or     al,0x5
  405e2a:	popf   
  405e2b:	add    BYTE PTR [eax],al
  405e2d:	add    BYTE PTR [eax],al
  405e2f:	add    BYTE PTR [eax+0x2b209300],al
  405e35:	unpckhps xmm0,XMMWORD PTR ds:0xa1
  405e3c:	add    DWORD PTR [eax],eax
  405e3e:	cmp    al,0xf
  405e40:	add    BYTE PTR [eax],al
  405e42:	add    DWORD PTR [eax],eax
  405e44:	inc    ecx
  405e45:	sldt   WORD PTR [eax]
  405e48:	add    al,BYTE PTR [eax]
  405e4a:	inc    ebx
  405e4b:	sldt   WORD PTR [eax]
  405e4e:	add    DWORD PTR [eax],eax
  405e50:	inc    esi
  405e51:	sldt   WORD PTR [eax]
  405e54:	add    DWORD PTR [eax],eax
  405e56:	dec    ecx
  405e57:	sldt   WORD PTR [eax]
  405e5a:	add    DWORD PTR [eax],eax
  405e5c:	dec    ebx
  405e5d:	sldt   WORD PTR [eax]
  405e60:	add    DWORD PTR [eax],eax
  405e62:	push   ecx
  405e63:	sldt   WORD PTR [eax]
  405e66:	add    DWORD PTR [eax],eax
  405e68:	push   ecx
  405e69:	sldt   WORD PTR [eax]
  405e6c:	add    DWORD PTR [eax],eax
  405e6e:	cmp    al,0xf
  405e70:	add    BYTE PTR [eax],al
  405e72:	add    DWORD PTR [eax],eax
  405e74:	cs add al,0x0
  405e77:	add    BYTE PTR [edx],al
  405e79:	add    BYTE PTR [ecx+0xf],bl
  405e7c:	add    BYTE PTR [eax],al
  405e7e:	add    DWORD PTR [eax],eax
  405e80:	bound  ecx,QWORD PTR [edi]
  405e82:	add    BYTE PTR [eax],al
  405e84:	add    DWORD PTR [eax],eax
  405e86:	ins    BYTE PTR es:[edi],dx
  405e87:	sldt   WORD PTR [eax]
  405e8a:	add    al,BYTE PTR [eax]
  405e8c:	je     0x405e9d
  405e8e:	add    BYTE PTR [eax],al
  405e90:	add    DWORD PTR [eax],eax
  405e92:	ds add al,0x0
  405e95:	add    BYTE PTR [edx],al
  405e97:	add    BYTE PTR [ebp+0xf],bh
  405e9a:	add    BYTE PTR [eax],al
  405e9c:	add    DWORD PTR [eax],eax
  405e9e:	mov    WORD PTR [edi],cs
  405ea0:	add    BYTE PTR [eax],al
  405ea2:	add    DWORD PTR [eax],eax
  405ea4:	cmp    al,0xf
  405ea6:	add    BYTE PTR [eax],al
  405ea8:	add    DWORD PTR [eax],eax
  405eaa:	cmp    al,0xf
  405eac:	add    BYTE PTR [eax],al
  405eae:	add    DWORD PTR [eax],eax
  405eb0:	nop
  405eb1:	sldt   WORD PTR [eax]
  405eb4:	add    DWORD PTR [eax],eax
  405eb6:	mov    WORD PTR [edi],cs
  405eb8:	add    BYTE PTR [eax],al
  405eba:	add    al,BYTE PTR [eax]
  405ebc:	xchg   esp,eax
  405ebd:	sldt   WORD PTR [eax]
  405ec0:	add    eax,DWORD PTR [eax]
  405ec2:	lahf   
  405ec3:	sldt   WORD PTR [eax]
  405ec6:	add    DWORD PTR [eax],eax
  405ec8:	mov    WORD PTR [edi],cs
  405eca:	add    BYTE PTR [eax],al
  405ecc:	add    al,BYTE PTR [eax]
  405ece:	stos   DWORD PTR es:[edi],eax
  405ecf:	sldt   WORD PTR [eax]
  405ed2:	add    eax,DWORD PTR [eax]
  405ed4:	mov    ah,0xf
  405ed6:	add    BYTE PTR [eax],al
  405ed8:	add    al,0x0
  405eda:	lahf   
  405edb:	sldt   WORD PTR [eax]
  405ede:	add    DWORD PTR [eax],eax
  405ee0:	mov    WORD PTR [edi],cs
  405ee2:	add    BYTE PTR [eax],al
  405ee4:	add    al,BYTE PTR [eax]
  405ee6:	xchg   esp,eax
  405ee7:	sldt   WORD PTR [eax]
  405eea:	add    eax,DWORD PTR [eax]
  405eec:	lahf   
  405eed:	sldt   WORD PTR [eax]
  405ef0:	add    DWORD PTR [eax],eax
  405ef2:	mov    WORD PTR [edi],cs
  405ef4:	add    BYTE PTR [eax],al
  405ef6:	add    al,BYTE PTR [eax]
  405ef8:	stos   DWORD PTR es:[edi],eax
  405ef9:	sldt   WORD PTR [eax]
  405efc:	add    eax,DWORD PTR [eax]
  405efe:	mov    ah,0xf
  405f00:	add    BYTE PTR [eax],al
  405f02:	add    al,0x0
  405f04:	lahf   
  405f05:	sldt   WORD PTR [eax]
  405f08:	add    DWORD PTR [eax],eax
  405f0a:	mov    esi,0x200000f
  405f0f:	add    BYTE PTR [edi+0x1000004],ch
  405f15:	add    cl,cl
  405f17:	sldt   WORD PTR [eax]
  405f1a:	add    al,BYTE PTR [eax]
  405f1c:	ror    BYTE PTR [edi],1
  405f1e:	add    BYTE PTR [eax],al
  405f20:	add    eax,DWORD PTR [eax]
  405f22:	(bad)  [edi]
  405f24:	add    BYTE PTR [eax],al
  405f26:	add    DWORD PTR [eax],eax
  405f28:	jge    0x405f34
  405f2a:	add    BYTE PTR [eax],al
  405f2c:	add    al,BYTE PTR [eax]
  405f2e:	loopne 0x405f3f
  405f30:	add    BYTE PTR [eax],al
  405f32:	add    eax,DWORD PTR [eax]
  405f34:	jmp    0x7d00:0x100000f
  405f3b:	or     al,BYTE PTR [eax]
  405f3d:	add    BYTE PTR [edx],al
  405f3f:	add    al,ah
  405f41:	sldt   WORD PTR [eax]
  405f44:	add    eax,DWORD PTR [eax]
  405f46:	jmp    0xed00:0x100000f
  405f4d:	sldt   WORD PTR [eax]
  405f50:	add    DWORD PTR [eax],eax
  405f52:	repnz sldt WORD PTR [eax]
  405f56:	add    al,BYTE PTR [eax]
  405f58:	in     eax,dx
  405f59:	sldt   WORD PTR [eax]
  405f5c:	add    DWORD PTR [eax],eax
  405f5e:	in     eax,dx
  405f5f:	sldt   WORD PTR [eax]
  405f62:	add    DWORD PTR [eax],eax
  405f64:	test   DWORD PTR [edi],0x10000
  405f6a:	push   ds
  405f6b:	push   cs
  405f6c:	add    BYTE PTR [eax],al
  405f6e:	add    DWORD PTR [eax],eax
  405f70:	push   ds
  405f71:	push   cs
  405f72:	add    BYTE PTR [eax],al
  405f74:	add    DWORD PTR [eax],eax
  405f76:	push   ds
  405f77:	push   cs
  405f78:	add    BYTE PTR [eax],al
  405f7a:	add    DWORD PTR [eax],eax
  405f7c:	push   ds
  405f7d:	push   cs
  405f7e:	add    BYTE PTR [eax],al
  405f80:	add    DWORD PTR [eax],eax
  405f82:	push   ds
  405f83:	push   cs
  405f84:	add    BYTE PTR [eax],al
  405f86:	add    DWORD PTR [eax],eax
  405f88:	push   ds
  405f89:	push   cs
  405f8a:	add    BYTE PTR [eax],al
  405f8c:	add    DWORD PTR [eax],eax
  405f8e:	push   ds
  405f8f:	push   cs
  405f90:	add    BYTE PTR [eax],al
  405f92:	add    DWORD PTR [eax],eax
  405f94:	push   ds
  405f95:	push   cs
  405f96:	add    BYTE PTR [eax],al
  405f98:	add    DWORD PTR [eax],eax
  405f9a:	push   ds
  405f9b:	push   cs
  405f9c:	add    BYTE PTR [eax],al
  405f9e:	add    DWORD PTR [eax],eax
  405fa0:	cld    
  405fa1:	sldt   WORD PTR [eax]
  405fa4:	add    DWORD PTR [eax],eax
  405fa6:	repnz sldt WORD PTR [eax]
  405faa:	add    al,BYTE PTR [eax]
  405fac:	pop    es
  405fad:	adc    BYTE PTR [eax],al
  405faf:	add    BYTE PTR [ebx],al
  405fb1:	add    BYTE PTR ds:0x4000010,cl
  405fb7:	add    BYTE PTR [ebx],dl
  405fb9:	adc    BYTE PTR [eax],al
  405fbb:	add    BYTE PTR [ecx],al
  405fbd:	add    dl,dh
  405fbf:	sldt   WORD PTR [eax]
  405fc2:	add    DWORD PTR [eax],eax
  405fc4:	sbb    dl,BYTE PTR [eax]
  405fc6:	add    BYTE PTR [eax],al
  405fc8:	add    DWORD PTR [eax],eax
  405fca:	sbb    eax,0x2000010
  405fcf:	add    BYTE PTR ds:0x1000010,ah
  405fd5:	add    BYTE PTR [esi],ch
  405fd7:	adc    BYTE PTR [eax],al
  405fd9:	add    BYTE PTR [ecx],al
  405fdb:	add    BYTE PTR [ecx],dh
  405fdd:	adc    BYTE PTR [eax],al
  405fdf:	add    BYTE PTR [edx],al
  405fe1:	add    BYTE PTR [edi+0xe],ch
  405fe4:	add    BYTE PTR [eax],al
  405fe6:	add    eax,DWORD PTR [eax]
  405fe8:	cmp    BYTE PTR [eax],dl
  405fea:	add    BYTE PTR [eax],al
  405fec:	add    DWORD PTR [eax],eax
  405fee:	xor    DWORD PTR [eax],edx
  405ff0:	add    BYTE PTR [eax],al
  405ff2:	add    al,BYTE PTR [eax]
  405ff4:	outs   dx,DWORD PTR ds:[esi]
  405ff5:	push   cs
  405ff6:	add    BYTE PTR [eax],al
  405ff8:	add    eax,DWORD PTR [eax]
  405ffa:	cmp    BYTE PTR [eax],dl
  405ffc:	add    BYTE PTR [eax],al
  405ffe:	add    DWORD PTR [eax],eax
  406000:	xor    DWORD PTR [eax],edx
  406002:	add    BYTE PTR [eax],al
  406004:	add    al,BYTE PTR [eax]
  406006:	outs   dx,DWORD PTR ds:[esi]
  406007:	push   cs
  406008:	add    BYTE PTR [eax],al
  40600a:	add    eax,DWORD PTR [eax]
  40600c:	cmp    BYTE PTR [eax],dl
  40600e:	add    BYTE PTR [eax],al
  406010:	add    DWORD PTR [eax],eax
  406012:	in     eax,dx
  406013:	sldt   WORD PTR [eax]
  406016:	add    DWORD PTR [eax],eax
  406018:	jmp    0xce00:0x100000f
  40601f:	push   es
  406020:	add    BYTE PTR [eax],al
  406022:	add    DWORD PTR [eax],eax
  406024:	xor    DWORD PTR [eax],edx
  406026:	add    BYTE PTR [eax],al
  406028:	add    al,BYTE PTR [eax]
  40602a:	adc    BYTE PTR ds:[eax],al
  40602d:	add    BYTE PTR [ebx],al
  40602f:	add    BYTE PTR [eax],bh
  406031:	adc    BYTE PTR [eax],al
  406033:	add    BYTE PTR [ecx],al
  406035:	add    BYTE PTR [ebp+0x10],al
  406038:	add    BYTE PTR [eax],al
  40603a:	add    DWORD PTR [eax],eax
  40603c:	xor    DWORD PTR [eax],edx
  40603e:	add    BYTE PTR [eax],al
  406040:	add    al,BYTE PTR [eax]
  406042:	adc    BYTE PTR ds:[eax],al
  406045:	add    BYTE PTR [ebx],al
  406047:	add    BYTE PTR [eax],bh
  406049:	adc    BYTE PTR [eax],al
  40604b:	add    BYTE PTR [ecx],al
  40604d:	add    BYTE PTR [esi],bh
  40604f:	adc    BYTE PTR [eax],al
  406051:	add    BYTE PTR [edx],al
  406053:	add    BYTE PTR [edi+0x10],cl
  406056:	add    BYTE PTR [eax],al
  406058:	add    DWORD PTR [eax],eax
  40605a:	push   ds
  40605b:	push   cs
  40605c:	add    BYTE PTR [eax],al
  40605e:	add    DWORD PTR [eax],eax
  406060:	push   ds
  406061:	push   cs
  406062:	add    BYTE PTR [eax],al
  406064:	add    DWORD PTR [eax],eax
  406066:	push   esi
  406067:	adc    BYTE PTR [eax],al
  406069:	add    BYTE PTR [ecx],al
  40606b:	add    BYTE PTR [edx+0x10],ah
  40606e:	add    BYTE PTR [eax],al
  406070:	add    DWORD PTR [eax],eax
  406072:	push   ds
  406073:	push   cs
  406074:	add    BYTE PTR [eax],al
  406076:	add    DWORD PTR [eax],eax
  406078:	repnz sldt WORD PTR [eax]
  40607c:	add    al,BYTE PTR [eax]
  40607e:	cmp    al,0xf
  406080:	add    BYTE PTR [eax],al
  406082:	add    DWORD PTR [eax],eax
  406084:	repnz sldt WORD PTR [eax]
  406088:	add    DWORD PTR [eax],eax
  40608a:	repnz sldt WORD PTR [eax]
  40608e:	add    DWORD PTR [eax],eax
  406090:	push   ds
  406091:	push   cs
  406092:	add    BYTE PTR [eax],al
  406094:	add    DWORD PTR [eax],eax
  406096:	push   ds
  406097:	push   cs
  406098:	add    BYTE PTR [eax],al
  40609a:	add    DWORD PTR [eax],eax
  40609c:	push   ds
  40609d:	push   cs
  40609e:	add    BYTE PTR [eax],al
  4060a0:	add    DWORD PTR [eax],eax
  4060a2:	test   BYTE PTR [edx],cl
  4060a4:	add    BYTE PTR [eax],al
  4060a6:	add    DWORD PTR [eax],eax
  4060a8:	jg     0x4060ba
  4060aa:	add    BYTE PTR [eax],al
  4060ac:	add    al,BYTE PTR [eax]
  4060ae:	xchg   DWORD PTR [eax],edx
  4060b0:	add    BYTE PTR [eax],al
  4060b2:	add    eax,DWORD PTR [eax]
  4060b4:	cwde   
  4060b5:	adc    BYTE PTR [eax],al
  4060b7:	add    BYTE PTR [ecx],al
  4060b9:	add    BYTE PTR [edi+0x10],bh
  4060bc:	add    BYTE PTR [eax],al
  4060be:	add    al,BYTE PTR [eax]
  4060c0:	mov    al,ds:0x1000010
  4060c5:	add    BYTE PTR [eax+0x1000010],ah
  4060cb:	add    BYTE PTR [edi+0x10],bh
  4060ce:	add    BYTE PTR [eax],al
  4060d0:	add    al,BYTE PTR [eax]
  4060d2:	cmps   DWORD PTR ds:[esi],DWORD PTR es:[edi]
  4060d3:	adc    BYTE PTR [eax],al
  4060d5:	add    BYTE PTR [ecx],al
  4060d7:	add    BYTE PTR [edi+0x10],bh
  4060da:	add    BYTE PTR [eax],al
  4060dc:	add    DWORD PTR [eax],eax
  4060de:	jg     0x4060f0
  4060e0:	add    BYTE PTR [eax],al
  4060e2:	add    al,BYTE PTR [eax]
  4060e4:	lods   eax,DWORD PTR ds:[esi]
  4060e5:	adc    BYTE PTR [eax],al
  4060e7:	add    BYTE PTR [ebx],al
  4060e9:	add    BYTE PTR [ebx+0x4000010],dh
  4060ef:	add    BYTE PTR [esi+0x1000010],bh
  4060f5:	add    ch,al
  4060f7:	adc    BYTE PTR [eax],al
  4060f9:	add    BYTE PTR [ecx],al
  4060fb:	add    dh,cl
  4060fd:	adc    BYTE PTR [eax],al
  4060ff:	add    BYTE PTR [ecx],al
  406101:	add    al,bl
  406103:	adc    BYTE PTR [eax],al
  406105:	add    BYTE PTR [ecx],al
  406107:	add    dh,bl
  406109:	adc    BYTE PTR [eax],al
  40610b:	add    BYTE PTR [ecx],al
  40610d:	add    bl,ah
  40610f:	adc    BYTE PTR [eax],al
  406111:	add    BYTE PTR [ecx],al
  406113:	add    BYTE PTR [esi+0xf],al
  406116:	add    BYTE PTR [eax],al
  406118:	add    DWORD PTR [eax],eax
  40611a:	jecxz  0x40612c
  40611c:	add    BYTE PTR [eax],al
  40611e:	add    al,BYTE PTR [eax]
  406120:	call   0x1406135
  406125:	add    ah,ch
  406127:	adc    BYTE PTR [eax],al
  406129:	add    BYTE PTR [ecx],al
  40612b:	add    al,bh
  40612d:	adc    BYTE PTR [eax],al
  40612f:	add    BYTE PTR [ecx],al
  406131:	add    al,bh
  406133:	adc    BYTE PTR [eax],al
  406135:	add    BYTE PTR [ecx],al
  406137:	add    BYTE PTR [esi],bl
  406139:	push   cs
  40613a:	add    BYTE PTR [eax],al
  40613c:	add    DWORD PTR [eax],eax
  40613e:	push   ds
  40613f:	push   cs
  406140:	add    BYTE PTR [eax],al
  406142:	add    DWORD PTR [eax],eax
  406144:	push   ds
  406145:	push   cs
  406146:	add    BYTE PTR [eax],al
  406148:	add    DWORD PTR [eax],eax
  40614a:	push   ds
  40614b:	push   cs
  40614c:	add    BYTE PTR [eax],al
  40614e:	add    DWORD PTR [eax],eax
  406150:	cld    
  406151:	adc    BYTE PTR [eax],al
  406153:	add    BYTE PTR [edx],al
  406155:	add    BYTE PTR [edx],al
  406157:	adc    DWORD PTR [eax],eax
  406159:	add    BYTE PTR [ecx],al
  40615b:	add    BYTE PTR [ebp+0xa],bh
  40615e:	add    BYTE PTR [eax],al
  406160:	add    DWORD PTR [eax],eax
  406162:	jge    0x40616e
  406164:	add    BYTE PTR [eax],al
  406166:	add    al,BYTE PTR [eax]
  406168:	repnz sldt WORD PTR [eax]
  40616c:	add    DWORD PTR [eax],eax
  40616e:	jge    0x40617a
  406170:	add    BYTE PTR [eax],al
  406172:	add    al,BYTE PTR [eax]
  406174:	repnz sldt WORD PTR [eax]
  406178:	add    eax,DWORD PTR [eax]
  40617a:	or     edx,DWORD PTR [ecx]
  40617c:	add    BYTE PTR [eax],al
  40617e:	add    DWORD PTR [eax],eax
  406180:	ficom  WORD PTR [eax]
  406182:	add    BYTE PTR [eax],al
  406184:	add    DWORD PTR [eax],eax
  406186:	adc    al,0x11
  406188:	add    BYTE PTR [eax],al
  40618a:	add    al,BYTE PTR [eax]
  40618c:	sbb    al,0x11
  40618e:	add    BYTE PTR [eax],al
  406190:	add    DWORD PTR [eax],eax
  406192:	repnz sldt WORD PTR [eax]
  406196:	add    DWORD PTR [eax],eax
  406198:	mov    esi,0x1000010
  40619d:	add    BYTE PTR [eax],ch
  40619f:	adc    DWORD PTR [eax],eax
  4061a1:	add    BYTE PTR [ecx],al
  4061a3:	add    BYTE PTR [edx+0xe],ch
  4061a6:	add    BYTE PTR [eax],al
  4061a8:	add    DWORD PTR [eax],eax
  4061aa:	push   eax
  4061ab:	or     eax,DWORD PTR [eax]
  4061ad:	add    BYTE PTR [ecx],al
  4061af:	add    BYTE PTR [eax+0xb],dl
  4061b2:	add    BYTE PTR [eax],al
  4061b4:	add    al,BYTE PTR [eax]
  4061b6:	xor    al,0x11
  4061b8:	add    BYTE PTR [eax],al
  4061ba:	add    eax,DWORD PTR [eax]
  4061bc:	jl     0x4061c9
  4061be:	add    BYTE PTR [eax],al
  4061c0:	add    DWORD PTR [eax],eax
  4061c2:	cmp    BYTE PTR [ecx],dl
  4061c4:	add    BYTE PTR [eax],al
  4061c6:	add    al,BYTE PTR [eax]
  4061c8:	inc    esp
  4061c9:	adc    DWORD PTR [eax],eax
  4061cb:	add    BYTE PTR [ebx],al
  4061cd:	add    BYTE PTR [edx+0x11],cl
  4061d0:	add    BYTE PTR [eax],al
  4061d2:	add    al,0x0
  4061d4:	push   ebp
  4061d5:	adc    DWORD PTR [eax],eax
  4061d7:	add    BYTE PTR ds:0x116100,al
  4061dd:	add    BYTE PTR [esi],al
  4061df:	add    BYTE PTR [ecx+edx*1+0x0],ch
  4061e3:	add    BYTE PTR [ecx],al
  4061e5:	add    BYTE PTR [ecx+0x11],dh
  4061e8:	add    BYTE PTR [eax],al
  4061ea:	add    al,BYTE PTR [eax]
  4061ec:	jnp    0x4061ff
  4061ee:	add    BYTE PTR [eax],al
  4061f0:	add    eax,DWORD PTR [eax]
  4061f2:	test   BYTE PTR [ecx],dl
  4061f4:	add    BYTE PTR [eax],al
  4061f6:	add    al,0x0
  4061f8:	mov    WORD PTR [ecx],ss
  4061fa:	add    BYTE PTR [eax],al
  4061fc:	add    DWORD PTR [eax],eax
  4061fe:	xchg   esp,eax
  4061ff:	adc    DWORD PTR [edx],eax
  406201:	add    BYTE PTR [edx],al
  406203:	add    BYTE PTR [ebp+0x3000011],bl
  406209:	add    bl,dl
  40620b:	adc    DWORD PTR [esi],ecx
  40620d:	add    BYTE PTR [ecx],ah
  40620f:	add    BYTE PTR [ecx+0x1],cl
  406212:	sub    BYTE PTR [edi+ecx*4],al
  406215:	add    BYTE PTR [ecx+0x1],dl
  406218:	sub    BYTE PTR [edi+ecx*4],al
  40621b:	add    BYTE PTR [ecx+0x1],bl
  40621e:	sub    BYTE PTR [esi+eax*8],al
  406221:	add    BYTE PTR [ecx+0x1],ah
  406224:	sub    BYTE PTR [esi+edx*8],al
  406227:	add    BYTE PTR [ecx+0x1],ch
  40622a:	sub    BYTE PTR [esi+edx*8],al
  40622d:	add    BYTE PTR [ecx+0x1],dh
  406230:	sub    BYTE PTR [esi+eax*8],al
  406233:	add    BYTE PTR [ecx+0x1],bh
  406236:	sub    BYTE PTR [esi+eax*8],al
  406239:	add    BYTE PTR [ecx-0x39fbd7ff],al
  40623f:	add    BYTE PTR [ecx-0x39fbd7ff],cl
  406245:	add    BYTE PTR [ecx-0x39fbd7ff],dl
  40624b:	add    BYTE PTR [ecx-0x39fbd7ff],bl
  406251:	add    BYTE PTR [ecx-0x39fbd7ff],ah
  406257:	add    BYTE PTR [ecx-0x39fbd7ff],ch
  40625d:	add    BYTE PTR [ecx-0x39fbd7ff],dh
  406263:	add    BYTE PTR [ecx-0x39fbd7ff],bh
  406269:	add    cl,al
  40626b:	add    DWORD PTR [eax],ebp
  40626d:	add    al,0xc6
  40626f:	add    cl,cl
  406271:	add    DWORD PTR [eax],ebp
  406273:	add    al,0xd6
  406275:	add    cl,dl
  406277:	add    DWORD PTR [eax],ebp
  406279:	add    al,0xc6
  40627b:	add    cl,bl
  40627d:	add    DWORD PTR [eax],ebp
  40627f:	add    al,0xcb
  406281:	add    cl,ah
  406283:	add    DWORD PTR [eax],ebp
  406285:	add    al,0x8f
  406287:	add    cl,ch
  406289:	add    DWORD PTR [eax],ebp
  40628b:	add    al,0x22
  40628d:	add    eax,0x42801f9
  406292:	sub    DWORD PTR ds:0x4280209,eax
  406298:	icebp  
  406299:	add    BYTE PTR [ecx+0x0],bh
  40629c:	sub    BYTE PTR [edx+edx*8],al
  40629f:	add    eax,0x14a00079
  4062a4:	pop    DWORD PTR [eax]
  4062a6:	sbb    DWORD PTR [edx],eax
  4062a8:	scas   eax,DWORD PTR es:[edi]
  4062a9:	adc    al,0xd9
  4062ab:	add    eax,0x14c200b9
  4062b0:	fiadd  WORD PTR ds:0x4280051
  4062b6:	jecxz  0x4062bd
  4062b8:	sbb    DWORD PTR [edx],eax
  4062ba:	retf   
  4062bb:	adc    al,0xd9
  4062bd:	add    eax,0x14e80219
  4062c2:	jmp    0x4062c9
  4062c4:	sbb    DWORD PTR [edx],eax
  4062c6:	out    dx,eax
  4062c7:	adc    al,0xeb
  4062c9:	add    eax,0x15100229
  4062ce:	repnz add eax,0x151f0231
  4062d4:	test   DWORD PTR ds:0x152e0229,0x10105fb
  4062de:	sub    BYTE PTR [esi+eax*8],al
  4062e1:	add    BYTE PTR [ecx],ch
  4062e3:	add    al,BYTE PTR [eax+0x15]
  4062e6:	add    DWORD PTR [esi],eax
  4062e8:	cmp    DWORD PTR [edx],eax
  4062ea:	pop    esi
  4062eb:	adc    eax,0x2410608
  4062f0:	xchg   ebp,eax
  4062f1:	adc    eax,0x71060d
  4062f6:	mov    ds:0x49061415,eax
  4062fb:	add    ch,BYTE PTR [eax]
  4062fd:	add    al,0x8f
  4062ff:	add    BYTE PTR [ecx+0x0],dh
  406302:	(bad)  
  406303:	adc    eax,0x251012d
  406308:	fst    DWORD PTR ds:0x2490068
  40630e:	jmp    0x1102:0x5900c615
  406315:	push   ss
  406316:	sbb    DWORD PTR [esi],eax
  406318:	jno    0x40631a
  40631a:	push   ds
  40631b:	push   ss
  40631c:	sub    eax,0x3d009901
  406321:	push   ss
  406322:	sub    eax,DWORD PTR [esi]
  406324:	cdq    
  406325:	add    BYTE PTR [esi],bl
  406327:	push   ss
  406328:	sub    eax,0x4f025901
  40632d:	push   ss
  40632e:	xor    eax,DWORD PTR [esi]
  406330:	pop    ecx
  406331:	add    ah,BYTE PTR [edi+0x16]
  406334:	cmp    DWORD PTR [esi],eax
  406336:	adc    DWORD PTR [eax],eax
  406338:	outs   dx,BYTE PTR ds:[esi]
  406339:	push   ss
  40633a:	sub    eax,0x77005901
  40633f:	push   ss
  406340:	push   ebp
  406341:	push   es
  406342:	jno    0x406346
  406344:	mov    dl,BYTE PTR [esi]
  406346:	sub    eax,0x9f027901
  40634b:	push   ss
  40634c:	pop    edx
  40634d:	push   es
  40634e:	popa   
  40634f:	add    BYTE PTR [ebx-0x7ef9a1ea],ch
  406355:	add    bh,BYTE PTR [eax+0x7]
  406358:	fild   WORD PTR [ecx+eax*4]
  40635b:	add    ch,BYTE PTR [eax]
  40635d:	add    al,0x64
  40635f:	push   es
  406360:	pop    ecx
  406361:	add    BYTE PTR [ecx-0x76fed2ea],bh
  406367:	add    ah,bl
  406369:	push   ss
  40636a:	push   0x6
  40636c:	mov    DWORD PTR [edx],eax
  40636e:	add    DWORD PTR [edi],edx
  406370:	jo     0x406378
  406372:	mov    DWORD PTR [edx],eax
  406374:	push   cs
  406375:	pop    ss
  406376:	sub    eax,0x1d028101
  40637b:	pop    ss
  40637c:	je     0x406384
  40637e:	mov    DWORD PTR [edx],eax
  406380:	sub    edx,DWORD PTR [edi]
  406382:	jo     0x40638a
  406384:	popa   
  406385:	add    BYTE PTR [eax],ch
  406387:	add    al,0x8f
  406389:	add    BYTE PTR [ecx+0x0],bl
  40638c:	inc    ebp
  40638d:	pop    ss
  40638e:	add    DWORD PTR [esi],0x17650071
  406394:	mov    eax,DWORD PTR [esi]
  406396:	cdq    
  406397:	add    ch,BYTE PTR [ebp+0x17]
  40639a:	xchg   ecx,eax
  40639b:	push   es
  40639c:	mov    eax,ds:0x96042802
  4063a1:	push   es
  4063a2:	cdq    
  4063a3:	add    cl,BYTE PTR [edx-0x66fed2ea]
  4063a9:	add    bl,BYTE PTR [edx+0x69069c17]
  4063af:	add    BYTE PTR [eax],ch
  4063b1:	add    al,0xa2
  4063b3:	push   es
  4063b4:	mov    cl,0x2
  4063b6:	sub    BYTE PTR [edi+ecx*4],al
  4063b9:	add    BYTE PTR [ecx-0x4ae84700],cl
  4063bf:	push   es
  4063c0:	popa   
  4063c1:	add    ch,BYTE PTR [eax]
  4063c3:	add    al,0x8f
  4063c5:	add    BYTE PTR [ecx+0x2d17c402],bh
  4063cb:	add    ecx,eax
  4063cd:	add    bl,cl
  4063cf:	pop    ss
  4063d0:	mov    edi,0xe7026106
  4063d5:	pop    ss
  4063d6:	mov    BYTE PTR [esi],0xb9
  4063d9:	add    dh,bh
  4063db:	pop    ss
  4063dc:	push   edx
  4063dd:	add    DWORD PTR [ecx+0x52180902],edi
  4063e3:	add    ecx,ecx
  4063e5:	add    bl,cl
  4063e7:	pop    ss
  4063e8:	rol    DWORD PTR [esi],cl
  4063ea:	rol    DWORD PTR [edx],1
  4063ec:	sub    DWORD PTR [eax],ebx
  4063ee:	loopne 0x4063f6
  4063f0:	jns    0x4063f2
  4063f2:	cmp    al,0x18
  4063f4:	push   edx
  4063f5:	add    DWORD PTR [ecx+0x2d184b02],edi
  4063fb:	add    DWORD PTR [ecx+0x52185902],edi
  406401:	add    DWORD PTR [ecx-0x17e784fe],edi
  406407:	push   es
  406408:	mov    ecx,0xf2188902
  40640d:	push   es
  40640e:	add    DWORD PTR [edx],0x6f71896
  406414:	mov    ecx,0xc6042802
  406419:	add    cl,ch
  40641b:	add    ch,BYTE PTR [eax]
  40641d:	add    al,0xfd
  40641f:	push   es
  406420:	jns    0x406422
  406422:	lds    ebx,FWORD PTR [eax]
  406424:	add    eax,0xd3022107
  406429:	sbb    dh,al
  40642b:	add    BYTE PTR [ecx],ah
  40642d:	add    dl,BYTE PTR [ebx-0x6ff70fb]
  406433:	add    ch,BYTE PTR [eax]
  406435:	add    al,0x8f
  406437:	add    BYTE PTR [ecx+0x2018f200],dl
  40643d:	pop    es
  40643e:	cdq    
  40643f:	add    bl,bh
  406441:	sbb    BYTE PTR ds:0x702f907,ah
  406447:	sbb    DWORD PTR ds:0x702f907,ebp
  40644d:	sbb    DWORD PTR [ebx],esi
  40644f:	pop    es
  406450:	xchg   ecx,eax
  406451:	add    BYTE PTR [ecx+ebx*1],cl
  406454:	pop    DWORD PTR [eax]
  406456:	cdq    
  406457:	add    BYTE PTR [ecx],dl
  406459:	sbb    DWORD PTR ds:0x37009907,esp
  40645f:	sbb    DWORD PTR [edi+eax*1],edi
  406462:	adc    DWORD PTR [ebx],eax
  406464:	popa   
  406465:	sbb    DWORD PTR [esi+0x7],eax
  406468:	and    DWORD PTR [ebx],eax
  40646a:	sbb    DWORD PTR [ecx],0x2f9074c
  406470:	(bad)  
  406471:	sbb    DWORD PTR [edx-0x5dfd0700],edi
  406477:	sbb    DWORD PTR [ebx+0x7],edx
  40647a:	sub    DWORD PTR [ebx],eax
  40647c:	sbb    al,BYTE PTR [edi]
  40647e:	pop    DWORD PTR [eax]
  406480:	xor    DWORD PTR [ebx],eax
  406482:	sub    BYTE PTR [edi+ecx*4],al
  406485:	add    BYTE PTR [ecx],dh
  406487:	add    ecx,edx
  406489:	sbb    DWORD PTR [edx-0x17fccef9],ecx
  40648f:	sbb    DWORD PTR [eax-0x5fccef9],edx
  406495:	sbb    esi,edx
  406497:	add    BYTE PTR [ecx-0x68e5f700],cl
  40649d:	pop    es
  40649e:	add    DWORD PTR [eax],0x7a11a13
  4064a4:	jno    0x4064a6
  4064a6:	pop    es
  4064a7:	sbb    DWORD PTR [edi+0x22034107],esi
  4064ad:	sbb    bh,BYTE PTR [ebp+0x4c034107]
  4064b3:	sbb    al,bl
  4064b5:	pop    es
  4064b6:	push   ecx
  4064b7:	add    eax,eax
  4064b9:	push   cs
  4064ba:	jecxz  0x4064c0
  4064bc:	inc    ecx
  4064bd:	add    DWORD PTR [esi+ecx*1+0x3590670],eax
  4064c4:	jge    0x4064e0
  4064c6:	sub    eax,0x9d028101
  4064cb:	sbb    cl,cl
  4064cd:	pop    es
  4064ce:	inc    ecx
  4064cf:	add    DWORD PTR [ebx+0xe],edi
  4064d2:	push   edx
  4064d3:	add    DWORD PTR [ecx-0x1ce55c00],edx
  4064d9:	pop    es
  4064da:	cmp    DWORD PTR [edx],eax
  4064dc:	mov    al,0x1a
  4064de:	jmp    0xc642e5ea
  4064e3:	sbb    ch,ch
  4064e5:	pop    es
  4064e6:	imul   eax,DWORD PTR [ebx],0x123166e
  4064ec:	cdq    
  4064ed:	add    ch,BYTE PTR [eax]
  4064ef:	add    al,0x8f
  4064f1:	add    BYTE PTR [ecx-0x39e528fe],bl
  4064f7:	add    BYTE PTR [ecx+0x0],dh
  4064fa:	pop    es
  4064fb:	sbb    ebp,edi
  4064fd:	pop    es
  4064fe:	jno    0x406500
  406500:	ja     0x406518
  406502:	add    eax,0x28000c08
  406507:	add    al,0x8f
  406509:	add    BYTE PTR [ecx+0x0],dh
  40650c:	jmp    0x406528
  40650e:	adc    ecx,DWORD PTR [eax]
  406510:	add    DWORD PTR [edx],0x7c91af4
  406516:	or     al,0x0
  406518:	call   FWORD PTR [edx]
  40651a:	sbb    DWORD PTR [eax],ecx
  40651c:	or     al,0x0
  40651e:	movs   BYTE PTR es:[edi],BYTE PTR ds:[esi]
  40651f:	push   cs
  406520:	fild   WORD PTR [esp+ecx*1]
  406523:	add    BYTE PTR [ebx],al
  406525:	sbb    ebx,DWORD PTR [edi]
  406527:	or     BYTE PTR [eax+eax*1],cl
  40652a:	ror    BYTE PTR [esi],0x25
  40652d:	or     BYTE PTR [eax+eax*1],dl
  406530:	test   BYTE PTR [esi],cl
  406532:	aaa    
  406533:	or     BYTE PTR [ecx],bl
  406535:	add    dl,BYTE PTR [edi]
  406537:	sbb    edi,DWORD PTR [eax+ecx*1]
  40653a:	and    DWORD PTR [edx],eax
  40653c:	stc    
  40653d:	push   es
  40653e:	mov    BYTE PTR [eax],0x14
  406541:	add    BYTE PTR [ebx+0xe],bh
  406544:	push   edx
  406545:	add    DWORD PTR [ecx],ebx
  406547:	add    ah,BYTE PTR [ecx]
  406549:	sbb    edi,DWORD PTR [eax+ecx*1]
  40654c:	sbb    DWORD PTR [eax],eax
  40654e:	adc    ebx,DWORD PTR [edx]
  406550:	bound  ecx,QWORD PTR [eax]
  406552:	add    DWORD PTR [edx],0x86c1b29
  406558:	sbb    DWORD PTR [eax],eax
  40655a:	adc    ebx,DWORD PTR [edx]
  40655c:	jno    0x406566
  40655e:	add    DWORD PTR [edx],0x8801b33
  406564:	jns    0x406568
  406566:	cmp    ebx,DWORD PTR [ebx]
  406568:	repnz add eax,0x1ac60281
  40656e:	xchg   ebp,eax
  40656f:	or     BYTE PTR [ecx-0x65e704fe],al
  406575:	or     BYTE PTR [ecx-0x5ffbd800],dh
  40657b:	or     BYTE PTR [ecx-0x59e4bffe],al
  406581:	or     BYTE PTR [ecx-0x54e4b800],ch
  406587:	or     BYTE PTR [ecx+0x0],ah
  40658a:	sub    BYTE PTR [ecx+esi*8],al
  40658d:	add    BYTE PTR [ecx+0x0],ah
  406590:	stos   DWORD PTR es:[edi],eax
  406591:	push   ss
  406592:	mov    edi,0x51028108
  406597:	sbb    ecx,ebp
  406599:	or     BYTE PTR [ecx],cl
  40659b:	add    BYTE PTR [eax],ch
  40659d:	add    al,0x8f
  40659f:	add    BYTE PTR [ecx-0x70fbd800],ch
  4065a5:	add    BYTE PTR [ecx-0x70fbd800],dh
  4065ab:	add    BYTE PTR [ecx],dl
  4065ad:	add    BYTE PTR [eax],ch
  4065af:	add    al,0x8f
  4065b1:	add    BYTE PTR [ecx],bl
  4065b3:	add    BYTE PTR [eax],ch
  4065b5:	add    al,0x8f
  4065b7:	add    BYTE PTR [ecx-0x1dfbd7fd],al
  4065bd:	or     BYTE PTR [ecx-0x15e46300],ah
  4065c3:	or     BYTE PTR [ecx-0x10e45200],ah
  4065c9:	or     BYTE PTR [ecx-0x45f18b00],ah
  4065cf:	add    BYTE PTR [ecx-0x29e44500],ah
  4065d5:	add    BYTE PTR [ecx],bl
  4065d7:	add    BYTE PTR [ebx],dl
  4065d9:	sbb    dh,ah
  4065db:	or     BYTE PTR [ecx],bl
  4065dd:	add    BYTE PTR [ebx],cl
  4065df:	add    eax,0x39100ba
  4065e4:	sub    BYTE PTR [esp+ecx*2],al
  4065e7:	add    DWORD PTR [ecx+0x2d1bd800],edi
  4065ed:	add    DWORD PTR [ecx-0x39f906fd],edx
  4065f3:	add    BYTE PTR [ecx-0xef906fd],dl
  4065f9:	add    BYTE PTR [ecx-0x70fa6cfd],dl
  4065ff:	add    BYTE PTR [ecx],bl
  406601:	add    BYTE PTR [eax],bl
  406603:	add    eax,0x19008f
  406608:	push   ds
  406609:	add    eax,0x1900bf
  40660e:	xchg   ebx,eax
  40660f:	add    eax,0x19008f
  406614:	xor    BYTE PTR ds:0x1900bf,al
  40661a:	inc    esp
  40661b:	add    eax,0x19008f
  406620:	push   esi
  406621:	add    eax,0x1900c6
  406626:	arpl   WORD PTR ds:0x1900cb,ax
  40662c:	jle    0x406633
  40662e:	mov    BYTE PTR [eax],0x19
  406631:	add    BYTE PTR [edx+0x1900c605],cl
  406637:	add    BYTE PTR [ecx+0x1900d105],bl
  40663d:	add    BYTE PTR [ecx+0x1900c605],bl
  406643:	add    BYTE PTR [ecx+0x1900d605],bl
  406649:	add    BYTE PTR [ecx+0x1900db05],bl
  40664f:	add    BYTE PTR [ecx+0x1900e105],bl
  406655:	add    BYTE PTR [ecx+0x1900e605],bl
  40665b:	add    BYTE PTR [ecx+0x1900eb05],bl
  406661:	add    BYTE PTR [ecx+0x1900f105],bl
  406667:	add    BYTE PTR [ecx+0x1900f605],bl
  40666d:	add    BYTE PTR [ebp+0x19008f05],dh
  406673:	add    ch,al
  406675:	add    eax,0x19008f
  40667a:	in     al,0x5
  40667c:	sti    
  40667d:	add    BYTE PTR [ecx-0x70fbd7fd],bl
  406683:	add    cl,ch
  406685:	add    BYTE PTR [eax],ch
  406687:	add    al,0x8f
  406689:	add    BYTE PTR [ecx],ah
  40668b:	add    BYTE PTR [eax],ch
  40668d:	add    al,0x8f
  40668f:	add    BYTE PTR [ecx],ah
  406691:	add    ah,ch
  406693:	push   es
  406694:	push   edx
  406695:	add    DWORD PTR [ecx],esp
  406697:	add    cl,bh
  406699:	push   es
  40669a:	sbb    eax,DWORD PTR [ecx]
  40669c:	and    DWORD PTR [eax],eax
  40669e:	xchg   ebx,eax
  40669f:	add    eax,0x21008f
  4066a4:	pop    esi
  4066a5:	pop    es
  4066a6:	push   0x1
  4066a8:	and    DWORD PTR [eax],eax
  4066aa:	pop    ecx
  4066ab:	pop    es
  4066ac:	arpl   WORD PTR [ecx],ax
  4066ae:	jmp    0x915c60b3
  4066b3:	push   es
  4066b4:	and    DWORD PTR [eax],eax
  4066b6:	sbb    BYTE PTR ds:0x3a1008f,al
  4066bc:	sub    BYTE PTR [edi+ecx*4],al
  4066bf:	add    BYTE PTR [ecx+0xa042803],ch
  4066c5:	or     DWORD PTR [ecx],ebp
  4066c7:	add    BYTE PTR [eax],ch
  4066c9:	add    al,0xc6
  4066cb:	add    BYTE PTR [ecx],ch
  4066cd:	add    ch,dl
  4066cf:	pop    es
  4066d0:	sub    eax,0x47002901
  4066d5:	sbb    al,0xc6
  4066d7:	add    BYTE PTR [ecx],dh
  4066d9:	add    BYTE PTR [eax],ch
  4066db:	add    al,0xc6
  4066dd:	add    BYTE PTR [ecx+0x1a1c6803],bh
  4066e3:	or     DWORD PTR [ecx],edx
  4066e5:	add    BYTE PTR [edi+0x16],dh
  4066e8:	push   ebp
  4066e9:	push   es
  4066ea:	cdq    
  4066eb:	add    BYTE PTR [eax+0x1c],bh
  4066ee:	es or  ecx,edi
  4066f1:	add    BYTE PTR [eax],ch
  4066f3:	add    al,0x2b
  4066f5:	or     ecx,eax
  4066f7:	add    ecx,DWORD PTR [ebp-0x3ef6cde4]
  4066fd:	add    edi,DWORD PTR [ebx]
  4066ff:	sbb    edi,DWORD PTR [ecx]
  406701:	or     ecx,edi
  406703:	add    ch,dh
  406705:	or     BYTE PTR [ebx+0x9],al
  406708:	add    DWORD PTR [ecx],eax
  40670a:	xchg   ebx,eax
  40670b:	sbb    al,0x49
  40670d:	add    al,BYTE PTR [ecx+0x4b1cb602]
  406713:	or     ecx,edi
  406715:	add    bh,bh
  406717:	or     BYTE PTR [eax+0x9],ah
  40671a:	or     DWORD PTR [ecx],eax
  40671c:	les    ebx,FWORD PTR [edx+eax*8]
  40671f:	add    eax,DWORD PTR [ecx-0x6ce33bfe]
  406725:	add    BYTE PTR [ecx],cl
  406727:	add    DWORD PTR [edx+0x9012d16],ecx
  40672d:	add    esp,eax
  40672f:	or     ch,BYTE PTR ds:0xca028101
  406735:	sbb    al,0xa6
  406737:	or     BYTE PTR [ecx],cl
  406739:	add    DWORD PTR [eax],ebp
  40673b:	add    al,0xc6
  40673d:	add    BYTE PTR [ecx],cl
  40673f:	add    DWORD PTR [eax],ebp
  406741:	add    al,0xcb
  406743:	add    BYTE PTR [ecx+0x721a9d02],al
  406749:	or     DWORD PTR [ecx+0x77189602],eax
  40674f:	or     DWORD PTR [ecx+0x7f1cdb02],eax
  406755:	or     DWORD PTR [ecx],ebx
  406757:	add    ecx,esp
  406759:	sbb    al,0xf2
  40675b:	push   es
  40675c:	sbb    DWORD PTR [ecx],eax
  40675e:	cmc    
  40675f:	sbb    al,0x86
  406761:	or     DWORD PTR [ecx],ebx
  406763:	add    DWORD PTR [ecx],ecx
  406765:	sbb    eax,0x3e109a2
  40676a:	movs   BYTE PTR es:[edi],BYTE PTR ds:[esi]
  40676b:	push   cs
  40676c:	fild   WORD PTR [ecx+eax*4]
  40676f:	add    ch,BYTE PTR ds:0x2109ca1d
  406775:	add    DWORD PTR [ebx],eax
  406777:	sbb    edx,esi
  406779:	or     ecx,ebp
  40677b:	add    edi,DWORD PTR [ebx*1+0x3e90152]
  406782:	addr16 sbb eax,0x3f109db
  406788:	jg     0x4067a7
  40678a:	loope  0x406795
  40678c:	jmp    0xe95df394
  406791:	pop    es
  406792:	jmp    0xdf5e059a
  406797:	add    al,0xe9
  406799:	add    ebp,DWORD PTR [ebp-0x16feade3]
  40679f:	add    ecx,eax
  4067a1:	sbb    eax,0x111012d
  4067a6:	loopne 0x4067c5
  4067a8:	test   BYTE PTR [ecx],0x11
  4067ab:	add    DWORD PTR [ebp+0xe],esi
  4067ae:	fld    DWORD PTR [ecx+edx*1]
  4067b1:	add    ebp,ebp
  4067b3:	sbb    eax,0x1110152
  4067b8:	push   cs
  4067b9:	push   ds
  4067ba:	cld    
  4067bb:	or     DWORD PTR [ecx],edx
  4067bd:	add    DWORD PTR [eax+0x11012d0a],esp
  4067c3:	add    DWORD PTR [ebx],esp
  4067c5:	push   ds
  4067c6:	cld    
  4067c7:	or     DWORD PTR [ecx],ebx
  4067c9:	add    al,0x44
  4067cb:	push   ds
  4067cc:	push   edx
  4067cd:	add    DWORD PTR [ecx],edx
  4067cf:	add    DWORD PTR [eax+0x1e],edx
  4067d2:	sub    eax,0x5c041901
  4067d7:	push   ds
  4067d8:	fild   WORD PTR [ecx+eax*1]
  4067db:	add    DWORD PTR [ebx+0x1e],ebp
  4067de:	dec    ecx
  4067df:	add    bl,cl
  4067e1:	add    ebp,DWORD PTR [esi+0x16]
  4067e4:	or     DWORD PTR [edx],ecx
  4067e6:	sbb    DWORD PTR [eax+eax*4],eax
  4067e9:	push   ds
  4067ea:	fild   WORD PTR [ecx+eax*4]
  4067ed:	add    dl,BYTE PTR [esi+0x11005b18]
  4067f3:	add    DWORD PTR [ecx+0x210a101e],esp
  4067f9:	add    al,0xbd
  4067fb:	push   ds
  4067fc:	pop    ss
  4067fd:	or     dl,BYTE PTR [ecx]
  4067ff:	add    DWORD PTR [esi+0x310a1e0c],eax
  406805:	add    al,0x28
  406807:	add    al,0x8f
  406809:	add    BYTE PTR [ecx+0x0],cl
  40680c:	test   BYTE PTR [esi],cl
  40680e:	fld    DWORD PTR [ecx+esi*1]
  406811:	add    al,0xff
  406813:	sbb    ah,BYTE PTR [edi]
  406815:	or     cl,BYTE PTR [ecx+0x0]
  406818:	jnp    0x406828
  40681a:	push   edx
  40681b:	add    DWORD PTR [ecx],esi
  40681d:	add    al,0xa4
  40681f:	push   cs
  406820:	fild   WORD PTR [ecx+esi*1]
  406823:	add    al,0x3
  406825:	sbb    edx,esi
  406827:	or     DWORD PTR [ecx+0x0],ebx
  40682a:	sub    BYTE PTR [esi+eax*8],al
  40682d:	add    BYTE PTR [ecx+0x46189602],al
  406833:	or     ch,cl
  406835:	add    esi,ebx
  406837:	push   ds
  406838:	jo     0x406840
  40683a:	icebp  
  40683b:	add    edx,DWORD PTR [esi]
  40683d:	pop    ds
  40683e:	dec    ebp
  40683f:	or     dh,cl
  406841:	add    edi,DWORD PTR ds:0x510a561f
  406847:	add    al,0x59
  406849:	pop    ds
  40684a:	pop    esp
  40684b:	or     bl,BYTE PTR [ecx+0x631f6400]
  406851:	or     bl,BYTE PTR [ecx+0x6a1f6400]
  406857:	or     dl,BYTE PTR [ecx]
  406859:	add    ebp,DWORD PTR [esi+0x1f]
  40685c:	je     0x406868
  40685e:	add    DWORD PTR [edx],0x9721af4
  406864:	sub    DWORD PTR [edi+edi*2],eax
  406867:	or     eax,0x1c0123
  40686c:	sub    BYTE PTR [edi+ecx*4],al
  40686f:	add    BYTE PTR [eax+eax*1],bl
  406872:	call   FWORD PTR [edx]
  406874:	sbb    DWORD PTR [eax],ecx
  406876:	adc    DWORD PTR [ecx],eax
  406878:	jne    0x406899
  40687a:	push   edx
  40687b:	add    DWORD PTR [ecx],edx
  40687d:	add    DWORD PTR [edx+0x1101521f],ecx
  406883:	add    DWORD PTR [esi+0x1101521f],ebx
  406889:	add    DWORD PTR [edi+0x1c01521f],ebp
  40688f:	add    BYTE PTR [edx+0x110ab01f],bh
  406895:	add    DWORD PTR [esi+0x61012d0a],ebp
  40689b:	add    al,0xd3
  40689d:	pop    ds
  40689e:	retf   0x690a
  4068a1:	add    ebp,DWORD PTR [esi+0x16]
  4068a4:	ror    BYTE PTR [edx],1
  4068a6:	pop    ecx
  4068a7:	add    BYTE PTR [eax],ch
  4068a9:	add    al,0x8f
  4068ab:	add    BYTE PTR [ecx+0x4],ch
  4068ae:	lock pop ds
  4068b0:	loope  0x4068bc
  4068b2:	jno    0x4068b8
  4068b4:	lock pop ds
  4068b6:	out    0xa,al
  4068b8:	imul   eax,DWORD PTR [ebx],0xaf72001
  4068be:	jns    0x4068c4
  4068c0:	ror    BYTE PTR [esi],0xe3
  4068c3:	add    al,0x24
  4068c5:	add    bh,bh
  4068c7:	sbb    al,BYTE PTR [ebx+ecx*1]
  4068ca:	sub    al,0x0
  4068cc:	call   FWORD PTR [edx]
  4068ce:	add    al,0xb
  4068d0:	sub    al,0x0
  4068d2:	adc    esp,DWORD PTR [eax]
  4068d4:	pop    DWORD PTR [eax]
  4068d6:	and    al,0x0
  4068d8:	adc    esp,DWORD PTR [eax]
  4068da:	pop    DWORD PTR [eax]
  4068dc:	and    al,0x0
  4068de:	add    ebx,DWORD PTR [ebx]
  4068e0:	sub    cl,BYTE PTR [ebx]
  4068e2:	and    al,0x0
  4068e4:	sbb    DWORD PTR [eax],esp
  4068e6:	xor    DWORD PTR [ebx],ecx
  4068e8:	sub    al,0x0
  4068ea:	sbb    DWORD PTR [eax],esp
  4068ec:	xor    DWORD PTR [ebx],ecx
  4068ee:	sub    al,0x0
  4068f0:	and    eax,0x2c0b4320
  4068f5:	add    BYTE PTR [eax],ch
  4068f7:	add    al,0x8f
  4068f9:	add    BYTE PTR [eax+eax*1],ah
  4068fc:	sub    BYTE PTR [edi+ecx*4],al
  4068ff:	add    BYTE PTR [ecx],bh
  406901:	add    BYTE PTR [eax],ch
  406903:	add    al,0x8f
  406905:	add    BYTE PTR [ecx+0x0],cl
  406908:	sub    BYTE PTR [edi+ecx*4],al
  40690b:	add    BYTE PTR [ecx-0x39fbd7fc],al
  406911:	add    BYTE PTR [esi],cl
  406913:	add    BYTE PTR [eax+0x0],dl
  406916:	jnp    0x406919
  406918:	push   cs
  406919:	add    BYTE PTR [eax+eax*1-0x5c],dl
  40691d:	add    DWORD PTR [esi],ecx
  40691f:	add    BYTE PTR [eax+0x0],bl
  406922:	mov    ebp,0x5c000e01
  406927:	add    dl,ah
  406929:	add    DWORD PTR [esi],ecx
  40692b:	add    BYTE PTR [eax+0x0],ah
  40692e:	in     eax,dx
  40692f:	add    DWORD PTR [esi],ecx
  406931:	add    BYTE PTR [eax+eax*1-0x2],ah
  406935:	add    DWORD PTR [esi],ecx
  406937:	add    BYTE PTR [eax+0x0],ch
  40693a:	or     eax,0x6c000e02
  40693f:	add    BYTE PTR [eax],ch
  406941:	add    cl,BYTE PTR [esi]
  406943:	add    BYTE PTR [eax+eax*1+0x6f],bh
  406947:	add    cl,BYTE PTR [esi]
  406949:	add    BYTE PTR [eax+0xe027e00],al
  40694f:	add    BYTE PTR [eax+eax*1+0xe028b],al
  406956:	mov    BYTE PTR [eax],al
  406958:	call   0xa700:0x8c000e02
  40695f:	add    cl,BYTE PTR [esi]
  406961:	add    BYTE PTR [eax+0xe02b200],dl
  406967:	add    BYTE PTR [eax+eax*1+0xe02bb],dl
  40696e:	cwde   
  40696f:	add    al,cl
  406971:	add    cl,BYTE PTR [esi]
  406973:	add    BYTE PTR [eax+eax*1+0xe02e1],bl
  40697a:	mov    al,ds:0xe030400
  40697f:	add    BYTE PTR [eax+eax*1+0xe0319],ah
  406986:	test   al,0x0
  406988:	add    ecx,DWORD PTR es:[esi]
  40698b:	add    BYTE PTR [eax+eax*1+0xe033b],ch
  406992:	mov    al,0x0
  406994:	dec    edx
  406995:	add    ecx,DWORD PTR [esi]
  406997:	add    BYTE PTR [eax+eax*1+0xe035f],dh
  40699e:	mov    eax,0xe037000
  4069a3:	add    BYTE PTR [eax+eax*1+0x80379],bh
  4069aa:	add    al,0x1
  4069ac:	cld    
  4069ad:	add    al,0x2e
  4069af:	add    BYTE PTR [ebx+0x0],bl
  4069b2:	add    BYTE PTR [esi+ebp*1],cl
  4069b5:	add    BYTE PTR [ebx+0x2e101800],dh
  4069bb:	add    BYTE PTR [ebx],bl
  4069bd:	add    BYTE PTR [edi+0xb],dl
  4069c0:	add    BYTE PTR cs:[ebx],ah
  4069c3:	add    BYTE PTR [edi+0x2b002e0b],cl
  4069c9:	add    BYTE PTR [ebp+0x33002e0b],dl
  4069cf:	add    BYTE PTR [ebx+0x3b002e0b],bl
  4069d5:	add    BYTE PTR [ebx+0x43002e0b],bl
  4069db:	add    BYTE PTR [ebx+0x4b002e0b],bl
  4069e1:	add    BYTE PTR [edi+0x53002e0b],bh
  4069e7:	add    dl,bl
  4069e9:	or     ebp,DWORD PTR [esi]
  4069eb:	add    BYTE PTR [ebx+0x2e102100],bh
  4069f1:	add    BYTE PTR [ebx+0x0],ch
  4069f4:	xor    al,0xc
  4069f6:	add    BYTE PTR cs:[ebx+0x0],dh
  4069fa:	xor    al,0xc
  4069fc:	add    BYTE PTR cs:[ebx+0x0],bh
  406a00:	inc    esi
  406a01:	or     al,0x2e
  406a03:	add    BYTE PTR [ebx+0x2e0c5400],al
  406a09:	add    BYTE PTR [ebx+0x2e0b9500],cl
  406a0f:	add    BYTE PTR [ebx+0x2e0c5f00],dl
  406a15:	add    BYTE PTR [ebx+0x2e0c8a00],bl
  406a1b:	add    BYTE PTR [ebx+0x2e0fd400],ah
  406a21:	add    BYTE PTR [ebx-0x3cf00d00],ch
  406a27:	add    BYTE PTR [ebx+0x6],cl
  406a2a:	adc    DWORD PTR [ecx],ecx
  406a2c:	jecxz  0x406a2e
  406a2e:	dec    ebx
  406a2f:	push   es
  406a30:	adc    DWORD PTR [ecx],ecx
  406a32:	and    al,0xc
  406a34:	or     eax,DWORD PTR [eax]
  406a36:	sbb    eax,0x79064005
  406a3b:	push   es
  406a3c:	xchg   BYTE PTR [esi],al
  406a3e:	lods   eax,DWORD PTR ds:[esi]
  406a3f:	push   es
  406a40:	push   cs
  406a41:	pop    es
  406a42:	pop    edi
  406a43:	pop    es
  406a44:	lods   al,BYTE PTR ds:[esi]
  406a45:	pop    es
  406a46:	rol    DWORD PTR [edi],1
  406a48:	repz pop es
  406a4a:	inc    edx
  406a4b:	or     BYTE PTR [ecx+0x8],bh
  406a4e:	xchg   BYTE PTR [eax],cl
  406a50:	mov    cl,BYTE PTR [eax]
  406a52:	(bad)
  406a56:	lds    ecx,FWORD PTR [eax]
  406a58:	(bad)  [eax]
  406a5a:	fisttp QWORD PTR [eax]
  406a5c:	std    
  406a5d:	or     BYTE PTR [ecx+ecx*1],al
  406a60:	and    cl,BYTE PTR [ecx]
  406a62:	or     DWORD PTR ds:[ebp+0x9],edx
  406a66:	pop    ebx
  406a67:	or     DWORD PTR [eax+0x9],ebp
  406a6a:	lea    ecx,[ecx]
  406a6c:	test   eax,0xbd09b309
  406a71:	or     ecx,edx
  406a73:	or     edi,esp
  406a75:	or     DWORD PTR [ebx],eax
  406a77:	or     ch,BYTE PTR [edx+ecx*1]
  406a7a:	jnp    0x406a86
  406a7c:	call   0xd80a:0xc10ab60a
  406a83:	or     ch,dh
  406a85:	or     dl,BYTE PTR [edi]
  406a87:	or     edi,DWORD PTR [edx]
  406a89:	or     ecx,DWORD PTR [ecx+0xb]
  406a8c:	push   edx
  406a8d:	or     eax,DWORD PTR [eax+eax*1]
  406a90:	add    DWORD PTR [eax],eax
  406a92:	add    eax,0x6000500
  406a97:	add    BYTE PTR [eax+eax*1],cl
  406a9a:	or     BYTE PTR [eax],al
  406a9c:	or     eax,0x10000a00
  406aa1:	add    BYTE PTR ds:0xe001600,cl
  406aa7:	add    BYTE PTR [eax],bl
  406aa9:	add    BYTE PTR [edi],cl
  406aab:	add    BYTE PTR [ebx],bl
  406aad:	add    BYTE PTR [eax],dl
  406aaf:	add    BYTE PTR [esi],bl
  406ab1:	add    BYTE PTR [eax],al
  406ab3:	add    BYTE PTR [ebp+0x13106],bh
  406ab9:	add    cl,bl
  406abb:	add    eax,0x136
  406ac0:	fwait
  406ac1:	push   es
  406ac2:	cmp    eax,DWORD PTR [ecx]
  406ac4:	add    BYTE PTR [eax],al
  406ac6:	mov    BYTE PTR [esi],0x40
  406ac9:	add    DWORD PTR [eax],eax
  406acb:	add    BYTE PTR [ebp+0x16e07],cl
  406ad1:	add    BYTE PTR [esi+0x17207],dl
  406ad7:	add    BYTE PTR [ecx+0x16e07],ah
  406add:	add    BYTE PTR [edi+eax*1+0x16e],ch
  406ae4:	mov    ah,0x7
  406ae6:	outs   dx,BYTE PTR ds:[esi]
  406ae7:	add    DWORD PTR [eax],eax
  406ae9:	add    BYTE PTR [edi+eax*1+0x177],bh
  406af0:	lds    eax,FWORD PTR [edi]
  406af2:	ja     0x406af5
  406af4:	add    BYTE PTR [eax],al
  406af6:	in     eax,0x7
  406af8:	inc    eax
  406af9:	add    DWORD PTR [eax],eax
  406afb:	add    BYTE PTR [ecx],cl
  406afd:	or     DWORD PTR [eax+0x2],esp
  406b00:	add    BYTE PTR [eax],al
  406b02:	sbb    al,0x9
  406b04:	add    al,BYTE PTR fs:[eax]
  406b07:	add    BYTE PTR [ecx+ecx*1],ah
  406b0a:	push   0x2
  406b0c:	add    BYTE PTR [eax],al
  406b0e:	adc    DWORD PTR [ebx],ecx
  406b10:	fiadd  DWORD PTR [ebx]
  406b12:	add    BYTE PTR [eax],al
  406b14:	pop    ss
  406b15:	or     eax,DWORD PTR [eax+0x1]
  406b18:	add    BYTE PTR [eax],al
  406b1a:	and    DWORD PTR [ebx],ecx
  406b1c:	inc    eax
  406b1d:	add    DWORD PTR [eax],eax
  406b1f:	add    BYTE PTR [eax],ch
  406b21:	or     eax,DWORD PTR [eax+0x1]
  406b24:	add    BYTE PTR [eax],al
  406b26:	xor    cl,BYTE PTR [ebx]
  406b28:	inc    eax
  406b29:	add    DWORD PTR [eax],eax
  406b2b:	add    BYTE PTR [edx],bh
  406b2d:	or     eax,DWORD PTR [eax+0x1]
  406b30:	add    BYTE PTR [eax],al
  406b32:	add    cl,BYTE PTR [esi]
  406b34:	inc    eax
  406b35:	add    DWORD PTR [eax],eax
  406b37:	add    BYTE PTR [ebx],dl
  406b39:	push   cs
  406b3a:	outs   dx,BYTE PTR ds:[esi]
  406b3b:	add    DWORD PTR [eax],eax
  406b3d:	add    BYTE PTR [ebp+0xe],cl
  406b40:	outs   dx,BYTE PTR ds:[esi]
  406b41:	add    DWORD PTR [eax],eax
  406b43:	add    BYTE PTR [ebp+0xe],dl
  406b46:	outs   dx,BYTE PTR ds:[esi]
  406b47:	add    DWORD PTR [eax],eax
  406b49:	add    BYTE PTR [ebp+0xe],bl
  406b4c:	ret    0x4
  406b4f:	add    dh,cl
  406b51:	push   cs
  406b52:	jmp    0xd6406b5b
  406b57:	push   cs
  406b58:	out    dx,eax
  406b59:	add    al,0x0
  406b5b:	add    dh,ah
  406b5d:	push   cs
  406b5e:	out    dx,eax
  406b5f:	add    al,0x0
  406b61:	add    dh,cl
  406b63:	push   cs
  406b64:	jmp    0xd6406b6d
  406b69:	push   cs
  406b6a:	out    dx,eax
  406b6b:	add    al,0x0
  406b6d:	add    dh,ah
  406b6f:	push   cs
  406b70:	out    dx,eax
  406b71:	add    al,0x2
  406b73:	add    BYTE PTR ds:0x2000300,bl
  406b79:	add    BYTE PTR [edx],dh
  406b7b:	add    BYTE PTR ds:0x40000200,al
  406b81:	add    BYTE PTR [edi],al
  406b83:	add    BYTE PTR [edx],al
  406b85:	add    BYTE PTR [ecx+0x0],al
  406b88:	or     DWORD PTR [eax],eax
  406b8a:	add    al,BYTE PTR [eax]
  406b8c:	inc    ebx
  406b8d:	add    BYTE PTR [ebx],cl
  406b8f:	add    BYTE PTR [edx],al
  406b91:	add    BYTE PTR [esi+0x0],al
  406b94:	or     eax,0x4a000200
  406b99:	add    BYTE PTR [edi],cl
  406b9b:	add    BYTE PTR [edx],al
  406b9d:	add    BYTE PTR [ebx+0x0],cl
  406ba0:	adc    DWORD PTR [eax],eax
  406ba2:	add    al,BYTE PTR [eax]
  406ba4:	dec    ebp
  406ba5:	add    BYTE PTR [ebx],dl
  406ba7:	add    BYTE PTR [edx],al
  406ba9:	add    BYTE PTR [edi+0x0],cl
  406bac:	adc    eax,0x50000100
  406bb1:	add    BYTE PTR ds:0x51000200,dl
  406bb7:	add    BYTE PTR [edi],dl
  406bb9:	add    BYTE PTR [edx],al
  406bbb:	add    BYTE PTR [eax+eax*1+0x19],dl
  406bbf:	add    BYTE PTR [edx],al
  406bc1:	add    BYTE PTR [edi+0x0],dl
  406bc4:	sbb    eax,DWORD PTR [eax]
  406bc6:	add    al,BYTE PTR [eax]
  406bc8:	pop    edx
  406bc9:	add    BYTE PTR ds:0x5b000200,bl
  406bcf:	add    BYTE PTR [edi],bl
  406bd1:	add    BYTE PTR [ecx],al
  406bd3:	add    BYTE PTR [edx+0x0],ah
  406bd6:	and    DWORD PTR [eax],eax
  406bd8:	add    al,BYTE PTR [eax]
  406bda:	popa   
  406bdb:	add    BYTE PTR [ecx],ah
  406bdd:	add    BYTE PTR [edx],al
  406bdf:	add    BYTE PTR [ebx+0x0],ah
  406be2:	and    eax,DWORD PTR [eax]
  406be4:	add    al,BYTE PTR [eax]
  406be6:	add    BYTE PTR fs:0x65000100,ah
  406bed:	add    BYTE PTR ds:0x66000200,ah
  406bf3:	add    BYTE PTR [edi],ah
  406bf5:	add    BYTE PTR [edx],al
  406bf7:	add    BYTE PTR [edi+0x0],ah
  406bfa:	sub    DWORD PTR [eax],eax
  406bfc:	add    DWORD PTR [eax],eax
  406bfe:	push   0x2002900
  406c03:	add    BYTE PTR [edx+0x0],ch
  406c06:	sub    eax,DWORD PTR [eax]
  406c08:	add    al,BYTE PTR [eax]
  406c0a:	test   BYTE PTR [eax],al
  406c0c:	sub    eax,0x88000200
  406c11:	add    BYTE PTR [edi],ch
  406c13:	add    BYTE PTR [edx],al
  406c15:	add    BYTE PTR [esi+0x2003100],cl
  406c1b:	add    BYTE PTR [edi+0x2003300],cl
  406c21:	add    BYTE PTR [eax+0x2003500],dl
  406c27:	add    BYTE PTR [ebp+0x2003700],dl
  406c2d:	add    BYTE PTR [esi+0x2003900],dl
  406c33:	add    BYTE PTR [edi+0x2003b00],dl
  406c39:	add    BYTE PTR [esi+0x2003d00],bl
  406c3f:	add    BYTE PTR [edi+0x2003f00],bl
  406c45:	add    BYTE PTR [eax+0x44004100],ah
  406c4b:	and    BYTE PTR [edi+0x20],cl
  406c4e:	pop    ebx
  406c4f:	and    BYTE PTR [ebx],cl
  406c51:	or     BYTE PTR [edi],ch
  406c53:	or     BYTE PTR [edi+0xc0afc0a],ah
  406c59:	or     esp,DWORD PTR [esi]
  406c5b:	add    DWORD PTR [ecx+0x1],ecx
  406c5e:	std    
  406c5f:	push   cs
  406c60:	add    DWORD PTR [eax],eax
  406c62:	add    DWORD PTR es:[ebx+0x1],ecx
  406c66:	adc    al,0xf
  406c68:	add    al,BYTE PTR [eax]
  406c6a:	add    WORD PTR [ebp+0x1],cx
  406c6e:	sub    ecx,DWORD PTR [edi]
  406c70:	add    eax,DWORD PTR [eax]
  406c72:	add    al,0x80
  406c74:	add    BYTE PTR [eax],al
  406c76:	or     eax,DWORD PTR [eax]
  406c78:	add    BYTE PTR [eax],al
  406c7a:	add    BYTE PTR [eax],al
  406c7c:	add    BYTE PTR [eax],al
  406c7e:	add    DWORD PTR [eax],eax
  406c80:	add    BYTE PTR [eax],al
  406c82:	xor    BYTE PTR ds:0x32,al
  406c88:	add    al,0x0
	...
  406c92:	add    BYTE PTR [eax],al
  406c94:	add    DWORD PTR [eax],eax
  406c96:	inc    ebx
  406c97:	add    DWORD PTR [eax],eax
  406c99:	add    BYTE PTR [eax],al
  406c9b:	add    BYTE PTR [eax+eax*1],al
	...
  406ca6:	add    BYTE PTR [eax],al
  406ca8:	add    DWORD PTR [eax],eax
  406caa:	ins    DWORD PTR es:[edi],dx
  406cab:	add    DWORD PTR [eax],eax
  406cad:	add    BYTE PTR [eax],al
  406caf:	add    BYTE PTR [eax+eax*1],al
	...
  406cba:	add    BYTE PTR [eax],al
  406cbc:	add    DWORD PTR [eax],eax
  406cbe:	dec    esp
  406cbf:	add    DWORD PTR [eax],eax
  406cc1:	add    BYTE PTR [eax],al
  406cc3:	add    BYTE PTR [eax+eax*1],al
	...
  406cce:	add    BYTE PTR [eax],al
  406cd0:	add    DWORD PTR [eax],eax
  406cd2:	xchg   ecx,eax
  406cd3:	or     eax,DWORD PTR [eax]
  406cd5:	add    BYTE PTR [eax],al
  406cd7:	add    BYTE PTR [eax+eax*1],al
	...
  406ce2:	add    BYTE PTR [eax],al
  406ce4:	add    DWORD PTR [eax],eax
  406ce6:	pop    ecx
  406ce7:	sbb    eax,DWORD PTR [eax]
  406ce9:	add    BYTE PTR [eax],al
  406ceb:	add    BYTE PTR [eax],al
  406ced:	add    BYTE PTR [eax],al
  406cef:	add    BYTE PTR [ecx],al
  406cf1:	add    BYTE PTR [eax],al
  406cf3:	add    BYTE PTR [eax+0x20],ch
  406cf6:	add    BYTE PTR [eax],al
  406cf8:	add    eax,DWORD PTR [eax]
  406cfa:	add    al,BYTE PTR [eax]
  406cfc:	add    al,0x0
  406cfe:	add    al,BYTE PTR [eax]
  406d00:	add    eax,0xc000400
  406d05:	add    BYTE PTR [ebx],cl
  406d07:	add    BYTE PTR [ecx-0x66f93300],bl
  406d0d:	add    dl,bl
  406d0f:	push   es
  406d10:	add    BYTE PTR [eax],al
  406d12:	add    BYTE PTR [eax],al
  406d14:	add    BYTE PTR [ecx*2+0x6c75646f],bh
  406d1b:	gs add BYTE PTR ds:[ebp+0x69],cl
  406d20:	arpl   WORD PTR [edx+0x6f],si
  406d23:	jae    0x406d94
  406d25:	data16 je 0x406d56
  406d28:	pop    eax
  406d29:	jae    0x406d97
  406d2b:	inc    esp
  406d2c:	bound  esi,QWORD PTR gs:[ebp+0x67]
  406d30:	addr16 gs jb 0x406d62
  406d34:	dec    eax
  406d35:	outs   dx,DWORD PTR ds:[esi]
  406d36:	jae    0x406dac
  406d38:	cs gs js 0x406da1
  406d3c:	add    BYTE PTR [ebp+0x78],al
  406d3f:	arpl   WORD PTR gs:[ebp+0x74],si
  406d43:	outs   dx,DWORD PTR ds:[esi]
  406d44:	jb     0x406d46
  406d46:	dec    ebp
  406d47:	imul   esp,DWORD PTR [ebx+0x72],0x666f736f
  406d4e:	je     0x406d7e
  406d50:	pop    eax
  406d51:	jae    0x406dbf
  406d53:	inc    esp
  406d54:	bound  esi,QWORD PTR gs:[ebp+0x67]
  406d58:	addr16 gs jb 0x406d8a
  406d5c:	dec    eax
  406d5d:	outs   dx,DWORD PTR ds:[esi]
  406d5e:	jae    0x406dd4
  406d60:	add    BYTE PTR [eax+0x72],dl
  406d63:	outs   dx,DWORD PTR ds:[esi]
  406d64:	addr16 jb 0x406dc8
  406d67:	ins    DWORD PTR es:[edi],dx
  406d68:	inc    ecx
  406d69:	jb     0x406dd2
  406d6b:	jae    0x406d6d
  406d6d:	push   eax
  406d6e:	imul   esi,DWORD PTR [eax+0x65],0x576c6d58
  406d75:	jb     0x406de0
  406d77:	je     0x406dde
  406d79:	jb     0x406d7b
  406d7b:	inc    ebx
  406d7c:	popa   
  406d7d:	arpl   WORD PTR [eax+0x69],bp
  406d80:	outs   dx,BYTE PTR ds:[esi]
  406d81:	addr16 push ebx
  406d83:	je     0x406df7
  406d85:	gs popa 
  406d87:	ins    DWORD PTR es:[edi],dx
  406d88:	add    BYTE PTR [ebx+0x52],dl
  406d8b:	inc    esp
  406d8c:	gs jae 0x406df2
  406d8f:	jb     0x406dfa
  406d91:	jo     0x406e07
  406d93:	imul   ebp,DWORD PTR [edi+0x6e],0x72747441
  406d9a:	imul   esp,DWORD PTR [edx+0x75],0x53006574
  406da1:	push   edx
  406da2:	inc    ebx
  406da3:	popa   
  406da4:	je     0x406e0b
  406da6:	outs   dx,DWORD PTR ds:[si]
  406da8:	jb     0x406e23
  406daa:	inc    ecx
  406dab:	je     0x406e21
  406dad:	jb     0x406e18
  406daf:	bound  esi,QWORD PTR [ebp+0x74]
  406db2:	add    BYTE PTR gs:[ebx+0x52],dl
  406db6:	add    BYTE PTR [eax+0x73],bl
  406db9:	ins    BYTE PTR es:[edi],dx
  406dba:	dec    esp
  406dbb:	popa   
  406dbc:	outs   dx,BYTE PTR ds:[esi]
  406dbd:	addr16 jne 0x406e21
  406dc0:	addr16 gs inc ebx
  406dc3:	outs   dx,DWORD PTR ds:[esi]
  406dc4:	outs   dx,BYTE PTR ds:[esi]
  406dc5:	jae    0x406e3b
  406dc7:	popa   
  406dc8:	outs   dx,BYTE PTR ds:[esi]
  406dc9:	je     0x406e3e
  406dcb:	add    BYTE PTR [ebp+0x69],cl
  406dce:	arpl   WORD PTR [edx+0x6f],si
  406dd1:	jae    0x406e42
  406dd3:	data16 je 0x406e04
  406dd6:	pop    eax
  406dd7:	jae    0x406e45
  406dd9:	inc    esp
  406dda:	bound  esi,QWORD PTR gs:[ebp+0x67]
  406dde:	addr16 gs jb 0x406de2
  406de2:	dec    esi
  406de3:	popa   
  406de4:	ins    DWORD PTR es:[edi],dx
  406de5:	gs push esp
  406de7:	jne    0x406e59
  406de9:	ins    BYTE PTR es:[edi],dx
  406dea:	add    BYTE PTR gs:[ebp+0x76],al
  406dee:	popa   
  406def:	ins    BYTE PTR es:[edi],dx
  406df0:	jne    0x406e53
  406df2:	je     0x406e63
  406df4:	jb     0x406df6
  406df6:	pop    eax
  406df7:	push   eax
  406df8:	popa   
  406df9:	je     0x406e63
  406dfb:	inc    ebx
  406dfc:	outs   dx,DWORD PTR ds:[esi]
  406dfd:	outs   dx,BYTE PTR ds:[esi]
  406dfe:	jbe    0x406e65
  406e00:	jb     0x406e76
  406e02:	gs jb  0x406e05
  406e05:	inc    esp
  406e06:	bound  esi,QWORD PTR gs:[ebp+0x67]
  406e0a:	pop    eax
  406e0b:	jae    0x406e79
  406e0d:	je     0x406e52
  406e0f:	outs   dx,DWORD PTR ds:[esi]
  406e10:	outs   dx,BYTE PTR ds:[esi]
  406e11:	je     0x406e78
  406e13:	js     0x406e89
  406e15:	add    BYTE PTR [ebp+eiz*2+0x62],al
  406e19:	jne    0x406e82
  406e1b:	pop    eax
  406e1c:	jae    0x406e8a
  406e1e:	je     0x406e76
  406e20:	popa   
  406e21:	jb     0x406e8c
  406e23:	popa   
  406e24:	bound  ebp,QWORD PTR [ebp+eiz*2+0x0]
  406e28:	inc    ebx
  406e29:	popa   
  406e2a:	arpl   WORD PTR [eax+0x65],bp
  406e2d:	fs dec ecx
  406e2f:	je     0x406e96
  406e31:	jb     0x406e94
  406e33:	je     0x406ea4
  406e35:	jb     0x406e37
  406e37:	push   ebx
  406e38:	imul   ebp,DWORD PTR [esi+0x67],0x6f74656c
  406e3f:	outs   dx,BYTE PTR ds:[esi]
  406e40:	dec    ecx
  406e41:	je     0x406ea8
  406e43:	jb     0x406ea6
  406e45:	je     0x406eb6
  406e47:	jb     0x406e49
  406e49:	dec    esi
  406e4a:	popa   
  406e4b:	je     0x406eb6
  406e4d:	jbe    0x406eb4
  406e4f:	dec    ebp
  406e50:	gs je  0x406ebb
  406e53:	outs   dx,DWORD PTR ds:[esi]
  406e54:	fs jae 0x406e57
  406e57:	ins    DWORD PTR es:[edi],dx
  406e58:	jae    0x406ebd
  406e5a:	outs   dx,DWORD PTR ds:[esi]
  406e5b:	jb     0x406ec9
  406e5d:	imul   esp,DWORD PTR [edx+0x0],0x74737953
  406e64:	gs ins DWORD PTR es:[edi],dx
  406e66:	add    BYTE PTR [ebp+0x61],cl
  406e69:	jb     0x406ede
  406e6b:	push   0x79426c61
  406e70:	push   edx
  406e71:	gs dec di
  406e74:	bound  ebp,QWORD PTR [edx+0x65]
  406e77:	arpl   WORD PTR [eax+eax*1+0x4f],si
  406e7b:	bound  ebp,QWORD PTR [edx+0x65]
  406e7e:	arpl   WORD PTR [eax+eax*1+0x53],si
  406e82:	jns    0x406ef7
  406e84:	je     0x406eeb
  406e86:	ins    DWORD PTR es:[edi],dx
  406e87:	cs pop eax
  406e89:	ins    DWORD PTR es:[edi],dx
  406e8a:	ins    BYTE PTR es:[edi],dx
  406e8b:	add    BYTE PTR [eax+0x6d],bl
  406e8e:	ins    BYTE PTR es:[edi],dx
  406e8f:	push   edi
  406e90:	jb     0x406efb
  406e92:	je     0x406ef9
  406e94:	jb     0x406e96
  406e96:	push   ebx
  406e97:	jns    0x406f0c
  406e99:	je     0x406f00
  406e9b:	ins    DWORD PTR es:[edi],dx
  406e9c:	cs dec ecx
  406e9e:	dec    edi
  406e9f:	add    BYTE PTR [ebx+0x74],dl
  406ea2:	jb     0x406f09
  406ea4:	popa   
  406ea5:	ins    DWORD PTR es:[edi],dx
  406ea6:	add    BYTE PTR [ebx+0x79],dl
  406ea9:	jae    0x406f1f
  406eab:	gs ins DWORD PTR es:[edi],dx
  406ead:	cs inc ebx
  406eaf:	outs   dx,DWORD PTR ds:[esi]
  406eb0:	ins    DWORD PTR es:[edi],dx
  406eb1:	jo     0x406f22
  406eb3:	outs   dx,BYTE PTR ds:[esi]
  406eb4:	outs   dx,BYTE PTR gs:[esi]
  406eb6:	je     0x406f05
  406eb8:	outs   dx,DWORD PTR ds:[esi]
  406eb9:	fs gs ins BYTE PTR es:[edi],dx
  406ebc:	add    BYTE PTR [ebp+eiz*2+0x73],al
  406ec0:	arpl   WORD PTR [edx+0x69],si
  406ec3:	jo     0x406f39
  406ec5:	imul   ebp,DWORD PTR [edi+0x6e],0x72747441
  406ecc:	imul   esp,DWORD PTR [edx+0x75],0x43006574
  406ed3:	popa   
  406ed4:	je     0x406f3b
  406ed6:	outs   dx,DWORD PTR ds:[si]
  406ed8:	jb     0x406f53
  406eda:	inc    ecx
  406edb:	je     0x406f51
  406edd:	jb     0x406f48
  406edf:	bound  esi,QWORD PTR [ebp+0x74]
  406ee2:	add    BYTE PTR gs:[ebx+0x79],dl
  406ee6:	jae    0x406f5c
  406ee8:	gs ins DWORD PTR es:[edi],dx
  406eea:	cs pop eax
  406eec:	ins    DWORD PTR es:[edi],dx
  406eed:	ins    BYTE PTR es:[edi],dx
  406eee:	cs pop eax
  406ef0:	jae    0x406f5e
  406ef2:	add    BYTE PTR [eax+0x73],bl
  406ef5:	ins    BYTE PTR es:[edi],dx
  406ef6:	je     0x406f3b
  406ef8:	outs   dx,DWORD PTR ds:[esi]
  406ef9:	outs   dx,BYTE PTR ds:[esi]
  406efa:	je     0x406f61
  406efc:	js     0x406f72
  406efe:	add    BYTE PTR [ecx+0x58],cl
  406f01:	jae    0x406f6f
  406f03:	je     0x406f48
  406f05:	outs   dx,DWORD PTR ds:[esi]
  406f06:	outs   dx,BYTE PTR ds:[esi]
  406f07:	je     0x406f6e
  406f09:	js     0x406f7f
  406f0b:	push   esi
  406f0c:	popa   
  406f0d:	jb     0x406f78
  406f0f:	popa   
  406f10:	bound  ebp,QWORD PTR [ebp+eiz*2+0x0]
  406f14:	push   ebx
  406f15:	jns    0x406f8a
  406f17:	je     0x406f7e
  406f19:	ins    DWORD PTR es:[edi],dx
  406f1a:	cs pop eax
  406f1c:	ins    DWORD PTR es:[edi],dx
  406f1d:	ins    BYTE PTR es:[edi],dx
  406f1e:	cs pop eax
  406f20:	push   eax
  406f21:	popa   
  406f22:	je     0x406f8c
  406f24:	add    BYTE PTR [eax+0x50],bl
  406f27:	popa   
  406f28:	je     0x406f92
  406f2a:	dec    esi
  406f2b:	outs   dx,DWORD PTR ds:[esi]
  406f2c:	fs gs dec ecx
  406f2f:	je     0x406f96
  406f31:	jb     0x406f94
  406f33:	je     0x406fa4
  406f35:	jb     0x406f37
  406f37:	push   ebx
  406f38:	je     0x406fac
  406f3a:	gs popa 
  406f3c:	ins    DWORD PTR es:[edi],dx
  406f3d:	push   edi
  406f3e:	jb     0x406fa9
  406f40:	je     0x406fa7
  406f42:	jb     0x406f44
  406f44:	dec    edi
  406f45:	jne    0x406fbb
  406f47:	push   edi
  406f48:	jb     0x406fb3
  406f4a:	je     0x406fb1
  406f4c:	jb     0x406f4e
  406f4e:	inc    ebp
  406f4f:	jb     0x406fc3
  406f51:	outs   dx,DWORD PTR ds:[esi]
  406f52:	jb     0x406fab
  406f54:	jb     0x406fbf
  406f56:	je     0x406fbd
  406f58:	jb     0x406f5a
  406f5a:	push   ebx
  406f5b:	gs je  0x406fad
  406f5e:	jne    0x406fd4
  406f60:	inc    ecx
  406f61:	outs   dx,BYTE PTR ds:[esi]
  406f62:	fs inc ebp
  406f64:	jb     0x406fd8
  406f66:	outs   dx,DWORD PTR ds:[esi]
  406f67:	jb     0x406f69
  406f69:	dec    ebp
  406f6a:	popa   
  406f6b:	imul   ebp,DWORD PTR [esi+0x0],0x65637845
  406f72:	jo     0x406fe8
  406f74:	imul   ebp,DWORD PTR [edi+0x6e],0x73795300
  406f7b:	je     0x406fe2
  406f7d:	ins    DWORD PTR es:[edi],dx
  406f7e:	cs push esp
  406f80:	gs js  0x406ff7
  406f83:	add    BYTE PTR [ebx+0x74],dl
  406f86:	jb     0x406ff1
  406f88:	outs   dx,BYTE PTR ds:[esi]
  406f89:	addr16 inc edx
  406f8b:	jne    0x406ff6
  406f8d:	ins    BYTE PTR es:[edi],dx
  406f8e:	fs gs jb 0x406f92
  406f92:	inc    ecx
  406f93:	jo     0x407005
  406f95:	outs   dx,BYTE PTR gs:[esi]
  406f97:	fs inc ebp
  406f99:	jb     0x40700d
  406f9b:	outs   dx,DWORD PTR ds:[esi]
  406f9c:	jb     0x406f9e
  406f9e:	push   eax
  406f9f:	jb     0x40700a
  406fa1:	outs   dx,BYTE PTR ds:[esi]
  406fa2:	je     0x406fe9
  406fa4:	js     0x407009
  406fa6:	gs jo  0x40701d
  406fa9:	imul   ebp,DWORD PTR [edi+0x6e],0x73795300
  406fb0:	je     0x407017
  406fb2:	ins    DWORD PTR es:[edi],dx
  406fb3:	cs push ebx
  406fb5:	arpl   WORD PTR gs:[ebp+0x72],si
  406fb9:	imul   esi,DWORD PTR [ecx+edi*2+0x2e],0x696c6f50
  406fc1:	arpl   WORD PTR [ecx+0x0],di
  406fc4:	push   ebx
  406fc5:	je     0x407039
  406fc7:	outs   dx,DWORD PTR ds:[esi]
  406fc8:	outs   dx,BYTE PTR ds:[esi]
  406fc9:	addr16 dec esi
  406fcb:	popa   
  406fcc:	ins    DWORD PTR es:[edi],dx
  406fcd:	add    BYTE PTR gs:[ebx+0x79],dl
  406fd1:	jae    0x407047
  406fd3:	gs ins DWORD PTR es:[edi],dx
  406fd5:	cs push edx
  406fd7:	gs data16 ins BYTE PTR es:[edi],dx
  406fda:	arpl   WORD PTR gs:[ecx+ebp*2+0x6f],si
  406fdf:	outs   dx,BYTE PTR ds:[esi]
  406fe0:	add    BYTE PTR [ecx+0x73],al
  406fe3:	jae    0x40704a
  406fe5:	ins    DWORD PTR es:[edi],dx
  406fe6:	bound  ebp,QWORD PTR [ecx+edi*2+0x0]
  406fea:	inc    edi
  406feb:	gs je  0x407041
  406fee:	je     0x407062
  406ff0:	outs   dx,DWORD PTR ds:[esi]
  406ff1:	outs   dx,BYTE PTR ds:[esi]
  406ff2:	addr16 dec esi
  406ff4:	popa   
  406ff5:	ins    DWORD PTR es:[edi],dx
  406ff6:	add    BYTE PTR gs:[ebx+0x79],dl
  406ffa:	jae    0x407070
  406ffc:	gs ins DWORD PTR es:[edi],dx
  406ffe:	cs push ebx
  407000:	arpl   WORD PTR gs:[ebp+0x72],si
  407004:	imul   esi,DWORD PTR [ecx+edi*2+0x0],0x6d726550
  40700c:	imul   esi,DWORD PTR [ebx+0x73],0x536e6f69
  407013:	gs je  0x407016
  407016:	inc    edi
  407017:	gs je  0x40706f
  40701a:	jb     0x407085
  40701c:	push   eax
  40701d:	gs jb  0x40708d
  407020:	imul   esi,DWORD PTR [ebx+0x73],0x736e6f69
  407027:	add    BYTE PTR [edi+0x75],cl
  40702a:	je     0x407083
  40702c:	jb     0x407097
  40702e:	je     0x407095
  407030:	dec    esp
  407031:	imul   ebp,DWORD PTR [esi+0x65],0x72724500
  407038:	outs   dx,DWORD PTR ds:[esi]
  407039:	jb     0x407092
  40703b:	jb     0x4070a6
  40703d:	je     0x4070a4
  40703f:	dec    esp
  407040:	imul   ebp,DWORD PTR [esi+0x65],0x65784500
  407047:	arpl   WORD PTR [ebp+0x74],si
  40704a:	add    BYTE PTR gs:[eax+0x6d],bl
  40704e:	ins    BYTE PTR es:[edi],dx
  40704f:	push   edx
  407050:	gs popa 
  407052:	fs gs jb 0x407056
  407056:	pop    eax
  407057:	ins    DWORD PTR es:[edi],dx
  407058:	ins    BYTE PTR es:[edi],dx
  407059:	push   edx
  40705a:	gs jae 0x4070cc
  40705d:	ins    BYTE PTR es:[edi],dx
  40705e:	jbe    0x4070c5
  407060:	jb     0x407062
  407062:	dec    edi
  407063:	jo     0x4070ca
  407065:	outs   dx,BYTE PTR ds:[esi]
  407066:	dec    ecx
  407067:	outs   dx,BYTE PTR ds:[esi]
  407068:	jo     0x4070df
  40706a:	je     0x4070be
  40706c:	gs popa 
  40706e:	fs gs jb 0x407072
  407072:	inc    ebx
  407073:	push   0x4e6b6365
  407078:	inc    edi
  407079:	outs   dx,BYTE PTR gs:[esi]
  40707b:	add    BYTE PTR [ebx+0x79],dl
  40707e:	jae    0x4070f4
  407080:	gs ins DWORD PTR es:[edi],dx
  407082:	cs inc esp
  407084:	imul   esp,DWORD PTR [ecx+0x67],0x74736f6e
  40708b:	imul   esp,DWORD PTR [ebx+0x73],0x6f745300
  407092:	jo     0x40710b
  407094:	popa   
  407095:	je     0x4070fa
  407097:	push   0x726f4600
  40709c:	ins    DWORD PTR es:[edi],dx
  40709d:	popa   
  40709e:	je     0x4070f4
  4070a0:	imul   ebp,DWORD PTR [ebp+0x65],0x70795400
  4070a7:	add    BYTE PTR gs:[esi+0x69],al
  4070ab:	outs   dx,BYTE PTR ds:[esi]
  4070ac:	fs push esp
  4070ae:	jns    0x407120
  4070b0:	add    BYTE PTR gs:[eax+0x6d],bl
  4070b4:	ins    BYTE PTR es:[edi],dx
  4070b5:	push   edi
  4070b6:	jb     0x407121
  4070b8:	je     0x40711f
  4070ba:	jb     0x40710f
  4070bc:	gs je  0x407133
  4070bf:	imul   ebp,DWORD PTR [esi+0x67],0x72430073
  4070c6:	gs popa 
  4070c8:	je     0x40712f
  4070ca:	dec    edi
  4070cb:	jne    0x407141
  4070cd:	jo     0x407144
  4070cf:	je     0x407128
  4070d1:	jb     0x40713c
  4070d3:	je     0x40713a
  4070d5:	jb     0x4070d7
  4070d7:	push   ebx
  4070d8:	push   0x7355776f
  4070dd:	popa   
  4070de:	add    BYTE PTR gs:[di+0x6e],dl
  4070e3:	jb     0x40714a
  4070e5:	arpl   WORD PTR [edi+0x67],bp
  4070e8:	outs   dx,BYTE PTR ds:[esi]
  4070e9:	imul   edi,DWORD PTR [edx+0x65],0x74704f64
  4070f0:	imul   ebp,DWORD PTR [edi+0x6e],0x74654700
  4070f7:	push   ebx
  4070f8:	je     0x407173
  4070fa:	ins    BYTE PTR es:[edi],dx
  4070fb:	gs jae 0x407166
  4070fe:	gs gs je 0x407102
  407102:	push   eax
  407103:	popa   
  407104:	jb     0x407179
  407106:	gs inc ecx
  407108:	jb     0x407171
  40710a:	jne    0x407179
  40710c:	outs   dx,BYTE PTR gs:[esi]
  40710e:	je     0x407183
  407110:	add    BYTE PTR [edi+ebp*2+0x4c],dl
  407114:	outs   dx,DWORD PTR ds:[esi]
  407115:	ja     0x40717c
  407117:	jb     0x40715a
  407119:	jae    0x40717e
  40711b:	imul   ebp,DWORD PTR [ecx+0x0],0x53746547
  407122:	je     0x407196
  407124:	imul   ebp,DWORD PTR [esi+0x67],0x6974704f
  40712b:	outs   dx,DWORD PTR ds:[esi]
  40712c:	outs   dx,BYTE PTR ds:[esi]
  40712d:	add    BYTE PTR [edi+0x65],al
  407130:	je     0x407174
  407132:	outs   dx,DWORD PTR ds:[esi]
  407133:	outs   dx,DWORD PTR ds:[esi]
  407134:	ins    BYTE PTR es:[edi],dx
  407135:	dec    edi
  407136:	jo     0x4071ac
  407138:	imul   ebp,DWORD PTR [edi+0x6e],0x74632e00
  40713f:	outs   dx,DWORD PTR ds:[esi]
  407140:	jb     0x407142
  407142:	js     0x4071b1
  407144:	ins    BYTE PTR es:[edi],dx
  407145:	inc    esi
  407146:	imul   ebp,DWORD PTR [ebp+eiz*2+0x0],0x466c7378
  40714e:	imul   ebp,DWORD PTR [ebp+eiz*2+0x0],0x4674756f
  407156:	imul   ebp,DWORD PTR [ebp+eiz*2+0x0],0x746c7563
  40715e:	jne    0x4071d2
  407160:	add    BYTE PTR gs:[ecx+0x73],ah
  407164:	jae    0x4071cb
  407166:	ins    DWORD PTR es:[edi],dx
  407167:	bound  ebp,QWORD PTR [ecx+edi*2+0x0]
  40716b:	je     0x4071e6
  40716d:	jo     0x4071d4
  40716f:	add    BYTE PTR [edi+0x61],dh
  407172:	imul   esi,DWORD PTR [esi+eax*2+0x6f],0x62654472
  40717a:	jne    0x4071e3
  40717c:	addr16 gs jb 0x407180
  407180:	jo     0x4071f4
  407182:	imul   ebp,DWORD PTR [esi+0x74],0x656d6954
  407189:	add    BYTE PTR [eax+0x72],dh
  40718c:	imul   ebp,DWORD PTR [esi+0x74],0x63617453
  407193:	imul   eax,DWORD PTR [eax],0x70
  407196:	jb     0x4071fd
  407198:	dec    edx
  407199:	imul   esi,DWORD PTR [eax+eax*1+0x58],0x41746c73
  4071a1:	jb     0x40720a
  4071a3:	jne    0x407212
  4071a5:	outs   dx,BYTE PTR gs:[esi]
  4071a7:	je     0x4071f5
  4071a9:	imul   esi,DWORD PTR [ebx+0x74],0x6c737800
  4071b0:	je     0x4071f3
  4071b2:	jb     0x40721b
  4071b4:	jae    0x4071b6
  4071b6:	pop    eax
  4071b7:	jae    0x407225
  4071b9:	je     0x40720e
  4071bb:	gs je  0x407232
  4071be:	imul   ebp,DWORD PTR [esi+0x67],0x65730073
  4071c5:	je     0x40723b
  4071c7:	imul   ebp,DWORD PTR [esi+0x67],0x72770073
  4071ce:	imul   esi,DWORD PTR [ebp+eiz*2+0x72],0x63616300
  4071d6:	push   0x754f6465
  4071db:	je     0x40724d
  4071dd:	jne    0x407253
  4071df:	add    BYTE PTR [edi+0x72],dl
  4071e2:	imul   esi,DWORD PTR [ebp+eiz*2+0x4f],0x75707475
  4071ea:	je     0x407239
  4071ec:	gs je  0x407257
  4071ef:	outs   dx,DWORD PTR ds:[esi]
  4071f0:	fs push esp
  4071f2:	outs   dx,DWORD PTR ds:[esi]
  4071f3:	dec    eax
  4071f4:	gs popa 
  4071f6:	fs gs jb 0x4071fa
  4071fa:	inc    ebp
  4071fb:	outs   dx,BYTE PTR ds:[esi]
  4071fc:	arpl   WORD PTR [edi+0x64],bp
  4071ff:	imul   ebp,DWORD PTR [esi+0x67],0x6c6d5800
  407206:	dec    edi
  407207:	jne    0x40727d
  407209:	jo     0x407280
  40720b:	je     0x40725a
  40720d:	gs je  0x407278
  407210:	outs   dx,DWORD PTR ds:[esi]
  407211:	add    BYTE PTR fs:[edi+0x72],dl
  407215:	imul   esi,DWORD PTR [ebp+eiz*2+0x48],0x65646165
  40721d:	jb     0x40721f
  40721f:	addr16 gs je 0x407282
  407223:	push   ebx
  407224:	gs je  0x40729b
  407227:	imul   ebp,DWORD PTR [esi+0x67],0x6c430073
  40722e:	outs   dx,DWORD PTR ds:[esi]
  40722f:	jae    0x407296
  407231:	add    BYTE PTR [edi+0x72],dl
  407234:	imul   esi,DWORD PTR [ebp+eiz*2+0x53],0x74726174
  40723c:	inc    ebp
  40723d:	ins    BYTE PTR es:[edi],dx
  40723e:	gs ins DWORD PTR es:[edi],dx
  407240:	outs   dx,BYTE PTR gs:[esi]
  407242:	je     0x407244
  407244:	push   edi
  407245:	jb     0x4072b0
  407247:	je     0x4072ae
  407249:	push   ebx
  40724a:	je     0x4072ad
  40724c:	jb     0x4072c2
  40724e:	inc    ecx
  40724f:	je     0x4072c5
  407251:	jb     0x4072bc
  407253:	bound  esi,QWORD PTR [ebp+0x74]
  407256:	add    BYTE PTR gs:[edi+0x72],dl
  40725a:	imul   esi,DWORD PTR [ebp+eiz*2+0x45],0x7441646e
  407262:	je     0x4072d6
  407264:	imul   esp,DWORD PTR [edx+0x75],0x57006574
  40726b:	jb     0x4072d6
  40726d:	je     0x4072d4
  40726f:	inc    ebx
  407270:	outs   dx,DWORD PTR ds:[esi]
  407271:	ins    DWORD PTR es:[edi],dx
  407272:	ins    DWORD PTR es:[edi],dx
  407273:	outs   dx,BYTE PTR gs:[esi]
  407275:	je     0x407277
  407277:	push   edi
  407278:	jb     0x4072e3
  40727a:	je     0x4072e1
  40727c:	push   eax
  40727d:	jb     0x4072ee
  40727f:	arpl   WORD PTR [ebp+0x73],sp
  407282:	jae    0x4072ed
  407284:	outs   dx,BYTE PTR ds:[esi]
  407285:	addr16 dec ecx
  407287:	outs   dx,BYTE PTR ds:[esi]
  407288:	jae    0x4072fe
  40728a:	jb     0x407301
  40728c:	arpl   WORD PTR [ecx+ebp*2+0x6f],si
  407290:	outs   dx,BYTE PTR ds:[esi]
  407291:	add    BYTE PTR [edi+0x72],dl
  407294:	imul   esi,DWORD PTR [ebp+eiz*2+0x53],0x6e697274
  40729c:	add    BYTE PTR [bx+0x72],dl
  4072a0:	imul   esi,DWORD PTR [ebp+eiz*2+0x52],0x46007761
  4072a8:	ins    BYTE PTR es:[edi],dx
  4072a9:	jne    0x40731e
  4072ab:	push   0x69725700
  4072b0:	je     0x407317
  4072b2:	push   esi
  4072b3:	popa   
  4072b4:	ins    BYTE PTR es:[edi],dx
  4072b5:	jne    0x40731c
  4072b7:	add    BYTE PTR [ecx+eiz*2+0x74],al
  4072bb:	gs push esp
  4072bd:	imul   ebp,DWORD PTR [ebp+0x65],0x63654400
  4072c4:	imul   ebp,DWORD PTR [ebp+0x61],0x7257006c
  4072cb:	imul   esi,DWORD PTR [ebp+eiz*2+0x45],0x6c45646e
  4072d3:	gs ins DWORD PTR es:[edi],dx
  4072d5:	outs   dx,BYTE PTR gs:[esi]
  4072d7:	je     0x4072d9
  4072d9:	push   edi
  4072da:	jb     0x407345
  4072dc:	je     0x407343
  4072de:	inc    esi
  4072df:	jne    0x40734d
  4072e1:	ins    BYTE PTR es:[edi],dx
  4072e2:	inc    ebp
  4072e3:	outs   dx,BYTE PTR ds:[esi]
  4072e4:	fs inc ebp
  4072e6:	ins    BYTE PTR es:[edi],dx
  4072e7:	gs ins DWORD PTR es:[edi],dx
  4072e9:	outs   dx,BYTE PTR gs:[esi]
  4072eb:	je     0x4072ed
  4072ed:	push   edi
  4072ee:	jb     0x407359
  4072f0:	je     0x407357
  4072f2:	push   ebx
  4072f3:	je     0x407356
  4072f5:	je     0x40735c
  4072f7:	add    BYTE PTR [edi+0x65],ah
  4072fa:	je     0x40735b
  4072fc:	push   edi
  4072fd:	jb     0x407368
  4072ff:	je     0x407366
  407301:	push   ebx
  407302:	je     0x407365
  407304:	je     0x40736b
  407306:	add    BYTE PTR [edi+0x72],dl
  407309:	imul   esi,DWORD PTR [ebp+eiz*2+0x53],0x74726174
  407311:	inc    esp
  407312:	outs   dx,DWORD PTR ds:[esi]
  407313:	arpl   WORD PTR [ebp+0x6d],si
  407316:	outs   dx,BYTE PTR gs:[esi]
  407318:	je     0x40731a
  40731a:	push   edi
  40731b:	jb     0x407386
  40731d:	je     0x407384
  40731f:	inc    ebp
  407320:	outs   dx,BYTE PTR ds:[esi]
  407321:	fs inc esp
  407323:	outs   dx,DWORD PTR ds:[esi]
  407324:	arpl   WORD PTR [ebp+0x6d],si
  407327:	outs   dx,BYTE PTR gs:[esi]
  407329:	je     0x40732b
  40732b:	push   edi
  40732c:	jb     0x407397
  40732e:	je     0x407395
  407330:	inc    esp
  407331:	outs   dx,DWORD PTR ds:[esi]
  407332:	arpl   WORD PTR [ecx+edi*2+0x70],dx
  407336:	add    BYTE PTR gs:[edi+0x72],dl
  40733a:	imul   esi,DWORD PTR [ebp+eiz*2+0x45],0x7469746e
  407342:	jns    0x407396
  407344:	data16 add BYTE PTR gs:[edi+0x72],dl
  407349:	imul   esi,DWORD PTR [ebp+eiz*2+0x43],0x45726168
  407351:	outs   dx,BYTE PTR ds:[esi]
  407352:	je     0x4073bd
  407354:	je     0x4073cf
  407356:	add    BYTE PTR [edi+0x72],dl
  407359:	imul   esi,DWORD PTR [ebp+eiz*2+0x53],0x6f727275
  407361:	addr16 popa 
  407363:	je     0x4073ca
  407365:	inc    ebx
  407366:	push   0x6e457261
  40736b:	je     0x4073d6
  40736d:	je     0x4073e8
  40736f:	add    BYTE PTR [edi+0x72],dl
  407372:	imul   esi,DWORD PTR [ebp+eiz*2+0x57],0x65746968
  40737a:	jae    0x4073ec
  40737c:	popa   
  40737d:	arpl   WORD PTR [ebp+0x0],sp
  407380:	push   edi
  407381:	jb     0x4073ec
  407383:	je     0x4073ea
  407385:	inc    ebx
  407386:	push   0x737261
  40738b:	push   edi
  40738c:	jb     0x4073f7
  40738e:	je     0x4073f5
  407390:	inc    edx
  407391:	popa   
  407392:	jae    0x4073f9
  407394:	ss xor al,0x0
  407397:	push   edi
  407398:	jb     0x407403
  40739a:	je     0x407401
  40739c:	inc    ebx
  40739d:	inc    esp
  40739e:	popa   
  40739f:	je     0x407402
  4073a1:	add    BYTE PTR [edi+ebp*2+0x6f],cl
  4073a5:	imul   esi,DWORD PTR [ebp+0x70],0x50
  4073a9:	jb     0x407410
  4073ab:	imul   di,WORD PTR [eax+0x0],0x6d58
  4073b1:	ins    BYTE PTR es:[edi],dx
  4073b2:	push   ebx
  4073b3:	jo     0x407416
  4073b5:	arpl   WORD PTR [ebp+0x0],sp
  4073b8:	addr16 gs je 0x40741b
  4073bc:	pop    eax
  4073bd:	ins    DWORD PTR es:[edi],dx
  4073be:	ins    BYTE PTR es:[edi],dx
  4073bf:	push   ebx
  4073c0:	jo     0x407423
  4073c2:	arpl   WORD PTR [ebp+0x0],sp
  4073c5:	addr16 gs je 0x407428
  4073c9:	pop    eax
  4073ca:	ins    DWORD PTR es:[edi],dx
  4073cb:	ins    BYTE PTR es:[edi],dx
  4073cc:	dec    esp
  4073cd:	popa   
  4073ce:	outs   dx,BYTE PTR ds:[esi]
  4073cf:	add    BYTE PTR [bp+di+0x65],dl
  4073d3:	je     0x407449
  4073d5:	imul   ebp,DWORD PTR [esi+0x67],0x6d580073
  4073dc:	ins    BYTE PTR es:[edi],dx
  4073dd:	dec    esp
  4073de:	popa   
  4073df:	outs   dx,BYTE PTR ds:[esi]
  4073e0:	add    BYTE PTR [bp+si+0x61],ah
  4073e4:	jae    0x40744b
  4073e6:	push   ebx
  4073e7:	je     0x40745b
  4073e9:	gs popa 
  4073eb:	ins    DWORD PTR es:[edi],dx
  4073ec:	add    BYTE PTR [ebp+0x65],cl
  4073ef:	ins    DWORD PTR es:[edi],dx
  4073f0:	outs   dx,DWORD PTR ds:[esi]
  4073f1:	jb     0x40746c
  4073f3:	push   ebx
  4073f4:	je     0x407468
  4073f6:	gs popa 
  4073f8:	ins    DWORD PTR es:[edi],dx
  4073f9:	add    BYTE PTR [ebx+0x61],ah
  4073fc:	arpl   WORD PTR [eax+0x65],bp
  4073ff:	add    BYTE PTR [edi+0x65],ah
  407402:	je     0x407463
  407404:	inc    ebx
  407405:	popa   
  407406:	outs   dx,BYTE PTR ds:[esi]
  407407:	push   edi
  407408:	jb     0x407473
  40740a:	je     0x407471
  40740c:	add    BYTE PTR [edi+0x72],dl
  40740f:	imul   esi,DWORD PTR [ebp+eiz*2+0x0],0x5f746567
  407417:	inc    edx
  407418:	popa   
  407419:	jae    0x407480
  40741b:	push   ebx
  40741c:	je     0x407490
  40741e:	gs popa 
  407420:	ins    DWORD PTR es:[edi],dx
  407421:	add    BYTE PTR [ebx+0x74],dl
  407424:	outs   dx,DWORD PTR ds:[esi]
  407425:	jo     0x40746a
  407427:	popa   
  407428:	arpl   WORD PTR [eax+0x69],bp
  40742b:	outs   dx,BYTE PTR ds:[esi]
  40742c:	add    BYTE PTR [si+0x69],al
  407430:	jae    0x4074a2
  407432:	outs   dx,DWORD PTR ds:[esi]
  407433:	jae    0x40749a
  407435:	add    BYTE PTR [edi+0x65],ah
  407438:	je     0x407499
  40743a:	inc    ebx
  40743b:	popa   
  40743c:	outs   dx,BYTE PTR ds:[esi]
  40743d:	push   esp
  40743e:	imul   ebp,DWORD PTR [ebp+0x65],0x74756f
  407445:	addr16 gs je 0x4074a8
  407449:	inc    ebx
  40744a:	popa   
  40744b:	outs   dx,BYTE PTR ds:[esi]
  40744c:	push   edx
  40744d:	gs popa 
  40744f:	add    BYTE PTR fs:[edx+0x65],dl
  407453:	popa   
  407454:	add    BYTE PTR fs:[edi+0x65],ah
  407458:	je     0x4074b9
  40745a:	inc    ebx
  40745b:	popa   
  40745c:	outs   dx,BYTE PTR ds:[esi]
  40745d:	push   ebx
  40745e:	gs imul eax,DWORD PTR gs:[eax],0x53
  407463:	gs imul ecx,DWORD PTR gs:[edi+0x72],0x69
  407469:	imul   ebp,DWORD PTR [bp+0x0],0x6b656553
  407471:	add    BYTE PTR [edi+0x65],ah
  407474:	je     0x4074d5
  407476:	push   eax
  407477:	outs   dx,DWORD PTR ds:[esi]
  407478:	jae    0x4074e3
  40747a:	je     0x4074e5
  40747c:	outs   dx,DWORD PTR ds:[esi]
  40747d:	outs   dx,BYTE PTR ds:[esi]
  40747e:	add    BYTE PTR [ebx+0x65],dh
  407481:	je     0x4074e2
  407483:	push   eax
  407484:	outs   dx,DWORD PTR ds:[esi]
  407485:	jae    0x4074f0
  407487:	je     0x4074f2
  407489:	outs   dx,DWORD PTR ds:[esi]
  40748a:	outs   dx,BYTE PTR ds:[esi]
  40748b:	add    BYTE PTR [edi+0x65],ah
  40748e:	je     0x4074ef
  407490:	dec    esp
  407491:	outs   dx,BYTE PTR gs:[esi]
  407493:	addr16 je 0x4074fe
  407496:	add    BYTE PTR [ebx+0x65],dl
  407499:	je     0x4074e7
  40749b:	outs   dx,BYTE PTR gs:[esi]
  40749d:	addr16 je 0x407508
  4074a0:	add    BYTE PTR [ebx+0x61],al
  4074a3:	outs   dx,BYTE PTR ds:[esi]
  4074a4:	push   edi
  4074a5:	jb     0x407510
  4074a7:	je     0x40750e
  4074a9:	add    BYTE PTR [edx+0x61],al
  4074ac:	jae    0x407513
  4074ae:	push   ebx
  4074af:	je     0x407523
  4074b1:	gs popa 
  4074b3:	ins    DWORD PTR es:[edi],dx
  4074b4:	add    BYTE PTR [ebx+0x61],al
  4074b7:	outs   dx,BYTE PTR ds:[esi]
  4074b8:	push   esp
  4074b9:	imul   ebp,DWORD PTR [ebp+0x65],0x74756f
  4074c0:	inc    ebx
  4074c1:	popa   
  4074c2:	outs   dx,BYTE PTR ds:[esi]
  4074c3:	push   edx
  4074c4:	gs popa 
  4074c6:	add    BYTE PTR fs:[ebx+0x61],al
  4074ca:	outs   dx,BYTE PTR ds:[esi]
  4074cb:	push   ebx
  4074cc:	gs imul eax,DWORD PTR gs:[eax],0x50
  4074d1:	outs   dx,DWORD PTR ds:[esi]
  4074d2:	jae    0x40753d
  4074d4:	je     0x40753f
  4074d6:	outs   dx,DWORD PTR ds:[esi]
  4074d7:	outs   dx,BYTE PTR ds:[esi]
  4074d8:	add    BYTE PTR [ebp+eiz*2+0x6e],cl
  4074dc:	addr16 je 0x407547
  4074df:	add    BYTE PTR [edx+0x65],dh
  4074e2:	jo     0x407550
  4074e4:	popa   
  4074e5:	arpl   WORD PTR [ebp+0x64],sp
  4074e8:	add    BYTE PTR [edi+0x65],ah
  4074eb:	je     0x40754c
  4074ed:	inc    esp
  4074ee:	gs jae 0x407554
  4074f1:	jb     0x40755c
  4074f3:	jo     0x407569
  4074f5:	imul   ebp,DWORD PTR [edi+0x6e],0x73654400
  4074fc:	arpl   WORD PTR [edx+0x69],si
  4074ff:	jo     0x407575
  407501:	imul   ebp,DWORD PTR [edi+0x6e],0x74654700
  407508:	dec    esp
  407509:	outs   dx,DWORD PTR ds:[esi]
  40750a:	arpl   WORD PTR [ecx+0x6c],sp
  40750d:	imul   edi,DWORD PTR [edx+0x65],0x72745364
  407514:	imul   ebp,DWORD PTR [esi+0x67],0x6c735800
  40751b:	push   ebx
  40751c:	arpl   WORD PTR gs:[ebp+0x72],si
  407520:	imul   esi,DWORD PTR [ecx+edi*2+0x45],0x70656378
  407528:	je     0x407593
  40752a:	outs   dx,DWORD PTR ds:[esi]
  40752b:	outs   dx,BYTE PTR ds:[esi]
  40752c:	add    BYTE PTR [ecx+edi*2+0x70],dl
  407530:	gs push edx
  407532:	gs jno 0x4075aa
  407535:	imul   esi,DWORD PTR [edx+0x65],0x73550064
  40753c:	popa   
  40753d:	add    BYTE PTR gs:[si+0x6f],cl
  407542:	popa   
  407543:	fs push esp
  407545:	imul   ebp,DWORD PTR [ebp+0x65],0x74694a00
  40754c:	push   esp
  40754d:	imul   ebp,DWORD PTR [ebp+0x65],0x65784500
  407554:	arpl   WORD PTR [ebp+0x74],si
  407557:	imul   ebp,DWORD PTR [edi+0x6e],0x656d6954
  40755e:	add    BYTE PTR [esi+0x6f],cl
  407561:	dec    esi
  407562:	inc    edi
  407563:	outs   dx,BYTE PTR gs:[esi]
  407565:	add    BYTE PTR [edi+ebp*2+0x61],ch
  407569:	fs gs jb 0x40756d
  40756d:	push   ebx
  40756e:	jns    0x4075e3
  407570:	je     0x4075d7
  407572:	ins    DWORD PTR es:[edi],dx
  407573:	cs push edx
  407575:	gs jae 0x4075e7
  407578:	jne    0x4075ec
  40757a:	arpl   WORD PTR [ebp+0x73],sp
  40757d:	add    BYTE PTR [edx+0x65],dl
  407580:	jae    0x4075f1
  407582:	jne    0x4075f6
  407584:	arpl   WORD PTR [ebp+0x4d],sp
  407587:	popa   
  407588:	outs   dx,BYTE PTR ds:[esi]
  407589:	popa   
  40758a:	addr16 gs jb 0x40758e
  40758e:	jb     0x4075f5
  407590:	jae    0x407601
  407592:	jne    0x407606
  407594:	arpl   WORD PTR [ebp+0x73],sp
  407597:	add    BYTE PTR [ebx+0x5f],dh
  40759a:	dec    ecx
  40759b:	outs   dx,BYTE PTR ds:[esi]
  40759c:	je     0x407603
  40759e:	jb     0x40760e
  4075a0:	popa   
  4075a1:	ins    BYTE PTR es:[edi],dx
  4075a2:	push   ebx
  4075a3:	jns    0x407613
  4075a5:	arpl   WORD PTR [edi+0x62],cx
  4075a8:	push   0x65
  4075aa:	arpl   WORD PTR [eax+eax*1+0x67],si
  4075ae:	gs je  0x407610
  4075b1:	dec    ecx
  4075b2:	outs   dx,BYTE PTR ds:[esi]
  4075b3:	je     0x40761a
  4075b5:	jb     0x407625
  4075b7:	popa   
  4075b8:	ins    BYTE PTR es:[edi],dx
  4075b9:	push   ebx
  4075ba:	jns    0x40762a
  4075bc:	arpl   WORD PTR [edi+0x62],cx
  4075bf:	push   0x65
  4075c1:	arpl   WORD PTR [eax+eax*1+0x47],si
  4075c5:	gs je  0x407614
  4075c8:	outs   dx,DWORD PTR ds:[esi]
  4075c9:	popa   
  4075ca:	fs gs jb 0x4075ce
  4075ce:	push   ebx
  4075cf:	jns    0x407644
  4075d1:	je     0x407638
  4075d3:	ins    DWORD PTR es:[edi],dx
  4075d4:	cs inc edi
  4075d6:	ins    BYTE PTR es:[edi],dx
  4075d7:	outs   dx,DWORD PTR ds:[esi]
  4075d8:	bound  esp,QWORD PTR [ecx+0x6c]
  4075db:	imul   edi,DWORD PTR [edx+0x61],0x6e6f6974
  4075e2:	add    BYTE PTR [ebx+0x75],al
  4075e5:	ins    BYTE PTR es:[edi],dx
  4075e6:	je     0x40765d
  4075e8:	jb     0x40764f
  4075ea:	dec    ecx
  4075eb:	outs   dx,BYTE PTR ds:[esi]
  4075ec:	outs   dx,WORD PTR ds:[esi]
  4075ee:	add    BYTE PTR [edi+0x65],ah
  4075f1:	je     0x407652
  4075f3:	inc    ebx
  4075f4:	jne    0x407662
  4075f6:	je     0x40766d
  4075f8:	jb     0x40765f
  4075fa:	add    BYTE PTR [edi+0x65],ah
  4075fd:	je     0x40765e
  4075ff:	push   edx
  407600:	gs jae 0x407672
  407603:	jne    0x407677
  407605:	arpl   WORD PTR [ebp+0x73],sp
  407608:	add    BYTE PTR [edi+0x65],al
  40760b:	je     0x407660
  40760d:	je     0x407681
  40760f:	imul   ebp,DWORD PTR [esi+0x67],0x74654700
  407616:	dec    edi
  407617:	bound  ebp,QWORD PTR [edx+0x65]
  40761a:	arpl   WORD PTR [eax+eax*1+0x49],si
  40761e:	outs   dx,BYTE PTR ds:[esi]
  40761f:	je     0x407686
  407621:	jb     0x407691
  407623:	popa   
  407624:	ins    BYTE PTR es:[edi],dx
  407625:	push   ebx
  407626:	jns    0x407696
  407628:	arpl   WORD PTR [edi+0x62],cx
  40762b:	push   0x65
  40762d:	arpl   WORD PTR [eax+eax*1+0x43],si
  407631:	jne    0x40769f
  407633:	je     0x4076aa
  407635:	jb     0x40769c
  407637:	add    BYTE PTR [edx+0x65],dl
  40763a:	jae    0x4076ab
  40763c:	jne    0x4076b0
  40763e:	arpl   WORD PTR [ebp+0x73],sp
  407641:	add    BYTE PTR [eax+0x73],bl
  407644:	ins    BYTE PTR es:[edi],dx
  407645:	push   ebx
  407646:	gs jno 0x4076be
  407649:	outs   dx,BYTE PTR gs:[esi]
  40764b:	arpl   WORD PTR [ebp+0x54],sp
  40764e:	jns    0x4076c0
  407650:	add    BYTE PTR gs:[eax+0x73],bl
  407654:	ins    BYTE PTR es:[edi],dx
  407655:	dec    esi
  407656:	jne    0x4076c5
  407658:	bound  esp,QWORD PTR [ebp+0x72]
  40765b:	push   esp
  40765c:	jns    0x4076ce
  40765e:	add    BYTE PTR gs:[eax+0x73],bl
  407662:	ins    BYTE PTR es:[edi],dx
  407663:	inc    edx
  407664:	outs   dx,DWORD PTR ds:[esi]
  407665:	outs   dx,DWORD PTR ds:[esi]
  407666:	ins    BYTE PTR es:[edi],dx
  407667:	push   esp
  407668:	jns    0x4076da
  40766a:	add    BYTE PTR gs:[eax+0x73],bl
  40766e:	ins    BYTE PTR es:[edi],dx
  40766f:	push   ebx
  407670:	je     0x4076e4
  407672:	imul   ebp,DWORD PTR [esi+0x67],0x65707954
  407679:	add    BYTE PTR [eax+0x73],bl
  40767c:	ins    BYTE PTR es:[edi],dx
  40767d:	pop    eax
  40767e:	ins    DWORD PTR es:[edi],dx
  40767f:	ins    BYTE PTR es:[edi],dx
  407680:	dec    esi
  407681:	push   ebx
  407682:	dec    esi
  407683:	popa   
  407684:	ins    DWORD PTR es:[edi],dx
  407685:	add    BYTE PTR gs:[eax+0x73],bl
  407689:	ins    BYTE PTR es:[edi],dx
  40768a:	dec    esi
  40768b:	jne    0x4076f9
  40768d:	ins    BYTE PTR es:[edi],dx
  40768e:	push   esi
  40768f:	popa   
  407690:	ins    BYTE PTR es:[edi],dx
  407691:	jne    0x4076f8
  407693:	add    BYTE PTR [eax+0x73],bl
  407696:	ins    BYTE PTR es:[edi],dx
  407697:	inc    ebx
  407698:	push   0x41646c69
  40769d:	js     0x407708
  40769f:	jae    0x4076ef
  4076a1:	popa   
  4076a2:	ins    DWORD PTR es:[edi],dx
  4076a3:	add    BYTE PTR gs:[eax+0x73],bl
  4076a7:	ins    BYTE PTR es:[edi],dx
  4076a8:	inc    ebx
  4076a9:	jne    0x40771d
  4076ab:	jb     0x407712
  4076ad:	outs   dx,BYTE PTR ds:[esi]
  4076ae:	je     0x407706
  4076b0:	popa   
  4076b1:	jb     0x40771c
  4076b3:	popa   
  4076b4:	bound  ebp,QWORD PTR [ebp+eiz*2+0x0]
  4076b8:	pop    eax
  4076b9:	jae    0x407727
  4076bb:	dec    esi
  4076bc:	popa   
  4076bd:	ins    DWORD PTR es:[edi],dx
  4076be:	gs jae 0x407731
  4076c1:	popa   
  4076c2:	arpl   WORD PTR [ebp+0x73],sp
  4076c5:	push   esi
  4076c6:	popa   
  4076c7:	jb     0x407732
  4076c9:	popa   
  4076ca:	bound  ebp,QWORD PTR [ebp+eiz*2+0x0]
  4076ce:	pop    eax
  4076cf:	jae    0x40773d
  4076d1:	push   eax
  4076d2:	outs   dx,DWORD PTR ds:[esi]
  4076d3:	jae    0x40773e
  4076d5:	je     0x407740
  4076d7:	outs   dx,DWORD PTR ds:[esi]
  4076d8:	outs   dx,BYTE PTR ds:[esi]
  4076d9:	push   esi
  4076da:	popa   
  4076db:	jb     0x407746
  4076dd:	popa   
  4076de:	bound  ebp,QWORD PTR [ebp+eiz*2+0x0]
  4076e2:	pop    eax
  4076e3:	jae    0x407751
  4076e5:	dec    esp
  4076e6:	popa   
  4076e7:	jae    0x40775d
  4076e9:	push   esi
  4076ea:	popa   
  4076eb:	jb     0x407756
  4076ed:	popa   
  4076ee:	bound  ebp,QWORD PTR [ebp+eiz*2+0x0]
  4076f2:	pop    eax
  4076f3:	jae    0x407761
  4076f5:	push   edi
  4076f6:	imul   esi,DWORD PTR [eax+ebp*2+0x50],0x6d617261
  4076fe:	push   esi
  4076ff:	popa   
  407700:	jb     0x40776b
  407702:	popa   
  407703:	bound  ebp,QWORD PTR [ebp+eiz*2+0x0]
  407707:	pop    eax
  407708:	jae    0x407776
  40770a:	push   eax
  40770b:	inc    esp
  40770c:	inc    edx
  40770d:	inc    ebx
  40770e:	jne    0x407782
  407710:	jb     0x407777
  407712:	outs   dx,BYTE PTR ds:[esi]
  407713:	je     0x40776b
  407715:	popa   
  407716:	jb     0x407781
  407718:	popa   
  407719:	bound  ebp,QWORD PTR [ebp+eiz*2+0x0]
  40771d:	pop    eax
  40771e:	jae    0x40778c
  407720:	push   eax
  407721:	inc    esp
  407722:	inc    edx
  407723:	dec    esi
  407724:	popa   
  407725:	ins    DWORD PTR es:[edi],dx
  407726:	gs jae 0x407799
  407729:	popa   
  40772a:	arpl   WORD PTR [ebp+0x73],sp
  40772d:	push   esi
  40772e:	popa   
  40772f:	jb     0x40779a
  407731:	popa   
  407732:	bound  ebp,QWORD PTR [ebp+eiz*2+0x0]
  407736:	pop    eax
  407737:	jae    0x4077a5
  407739:	push   eax
  40773a:	inc    esp
  40773b:	inc    edx
  40773c:	push   eax
  40773d:	outs   dx,DWORD PTR ds:[esi]
  40773e:	jae    0x4077a9
  407740:	je     0x4077ab
  407742:	outs   dx,DWORD PTR ds:[esi]
  407743:	outs   dx,BYTE PTR ds:[esi]
  407744:	push   esi
  407745:	popa   
  407746:	jb     0x4077b1
  407748:	popa   
  407749:	bound  ebp,QWORD PTR [ebp+eiz*2+0x0]
  40774d:	pop    eax
  40774e:	jae    0x4077bc
  407750:	push   eax
  407751:	inc    esp
  407752:	inc    edx
  407753:	dec    esp
  407754:	popa   
  407755:	jae    0x4077cb
  407757:	push   esi
  407758:	popa   
  407759:	jb     0x4077c4
  40775b:	popa   
  40775c:	bound  ebp,QWORD PTR [ebp+eiz*2+0x0]
  407760:	dec    ecx
  407761:	outs   dx,BYTE PTR ds:[esi]
  407762:	je     0x4077c9
  407764:	jb     0x4077d4
  407766:	popa   
  407767:	ins    BYTE PTR es:[edi],dx
  407768:	push   esi
  407769:	popa   
  40776a:	jb     0x4077d5
  40776c:	popa   
  40776d:	bound  ebp,QWORD PTR [ebp+eiz*2+0x4e]
  407771:	popa   
  407772:	ins    DWORD PTR es:[edi],dx
  407773:	gs jae 0x4077e6
  407776:	popa   
  407777:	arpl   WORD PTR [ebp+0x0],sp
  40777a:	pop    eax
  40777b:	ins    DWORD PTR es:[edi],dx
  40777c:	ins    BYTE PTR es:[edi],dx
  40777d:	push   ecx
  40777e:	jne    0x4077e1
  407780:	ins    BYTE PTR es:[edi],dx
  407781:	imul   esp,DWORD PTR [esi+0x69],0x614e6465
  407788:	ins    DWORD PTR es:[edi],dx
  407789:	add    BYTE PTR gs:[ecx+0x4e],dh
  40778d:	popa   
  40778e:	ins    DWORD PTR es:[edi],dx
  40778f:	add    BYTE PTR gs:[eax+0x72],dh
  407793:	imul   di,WORD PTR gs:[eax+0x0],0x6470
  40779a:	bound  ecx,QWORD PTR [esi+0x61]
  40779d:	ins    DWORD PTR es:[edi],dx
  40779e:	add    BYTE PTR gs:[edi+0x65],ah
  4077a2:	je     0x407803
  4077a4:	push   ecx
  4077a5:	dec    esi
  4077a6:	popa   
  4077a7:	ins    DWORD PTR es:[edi],dx
  4077a8:	add    BYTE PTR gs:[ebx+0x65],dh
  4077ac:	je     0x40780d
  4077ae:	push   ecx
  4077af:	dec    esi
  4077b0:	popa   
  4077b1:	ins    DWORD PTR es:[edi],dx
  4077b2:	add    BYTE PTR gs:[edi+0x65],ah
  4077b6:	je     0x407817
  4077b8:	dec    esp
  4077b9:	outs   dx,DWORD PTR ds:[esi]
  4077ba:	arpl   WORD PTR [ecx+0x6c],sp
  4077bd:	dec    esi
  4077be:	popa   
  4077bf:	ins    DWORD PTR es:[edi],dx
  4077c0:	add    BYTE PTR gs:[edi+0x65],ah
  4077c4:	je     0x407825
  4077c6:	push   eax
  4077c7:	jb     0x40782e
  4077c9:	imul   di,WORD PTR [eax+0x0],0x6573
  4077cf:	je     0x407830
  4077d1:	push   eax
  4077d2:	jb     0x407839
  4077d4:	imul   di,WORD PTR [eax+0x0],0x6567
  4077da:	je     0x40783b
  4077dc:	dec    esi
  4077dd:	popa   
  4077de:	ins    DWORD PTR es:[edi],dx
  4077df:	gs jae 0x407852
  4077e2:	popa   
  4077e3:	arpl   WORD PTR [ebp+0x0],sp
  4077e6:	addr16 gs je 0x407849
  4077ea:	push   eax
  4077eb:	inc    esp
  4077ec:	inc    edx
  4077ed:	dec    esi
  4077ee:	popa   
  4077ef:	ins    DWORD PTR es:[edi],dx
  4077f0:	add    BYTE PTR gs:[ebx+0x65],dh
  4077f4:	je     0x407855
  4077f6:	push   eax
  4077f7:	inc    esp
  4077f8:	inc    edx
  4077f9:	dec    esi
  4077fa:	popa   
  4077fb:	ins    DWORD PTR es:[edi],dx
  4077fc:	add    BYTE PTR gs:[ebx+0x72],al
  407800:	gs popa 
  407802:	je     0x407869
  407804:	push   esp
  407805:	jne    0x407877
  407807:	ins    BYTE PTR es:[edi],dx
  407808:	gs inc esi
  40780a:	jb     0x40787b
  40780c:	ins    DWORD PTR es:[edi],dx
  40780d:	push   eax
  40780e:	inc    esp
  40780f:	inc    edx
  407810:	dec    esi
  407811:	popa   
  407812:	ins    DWORD PTR es:[edi],dx
  407813:	add    BYTE PTR gs:[edi+0x65],ah
  407817:	je     0x407878
  407819:	inc    esp
  40781a:	imul   esi,DWORD PTR [ebx+0x70],0x4e79616c
  407821:	popa   
  407822:	ins    DWORD PTR es:[edi],dx
  407823:	add    BYTE PTR gs:[ecx+0x4e],dl
  407827:	popa   
  407828:	ins    DWORD PTR es:[edi],dx
  407829:	add    BYTE PTR gs:[edi+ebp*2+0x63],cl
  40782e:	popa   
  40782f:	ins    BYTE PTR es:[edi],dx
  407830:	dec    esi
  407831:	popa   
  407832:	ins    DWORD PTR es:[edi],dx
  407833:	add    BYTE PTR gs:[eax+0x72],dl
  407837:	imul   di,WORD PTR gs:[eax+0x0],0x614e
  40783e:	ins    DWORD PTR es:[edi],dx
  40783f:	gs jae 0x4078b2
  407842:	popa   
  407843:	arpl   WORD PTR [ebp+0x0],sp
  407846:	push   eax
  407847:	inc    esp
  407848:	inc    edx
  407849:	dec    esi
  40784a:	popa   
  40784b:	ins    DWORD PTR es:[edi],dx
  40784c:	add    BYTE PTR gs:[ecx+ebp*2+0x73],al
  407851:	jo     0x4078bf
  407853:	popa   
  407854:	jns    0x4078a4
  407856:	popa   
  407857:	ins    DWORD PTR es:[edi],dx
  407858:	add    BYTE PTR gs:[ebp+0x76],ah
  40785c:	popa   
  40785d:	ins    BYTE PTR es:[edi],dx
  40785e:	jne    0x4078c1
  407860:	je     0x4078d1
  407862:	jb     0x407864
  407864:	arpl   WORD PTR [edi+0x6e],bp
  407867:	je     0x4078ce
  407869:	js     0x4078df
  40786b:	add    BYTE PTR [eax+0x50],bl
  40786e:	popa   
  40786f:	je     0x4078d9
  407871:	dec    esi
  407872:	popa   
  407873:	jbe    0x4078de
  407875:	addr16 popa 
  407877:	je     0x4078e8
  407879:	jb     0x40787b
  40787b:	arpl   WORD PTR [edi+0x6e],bp
  40787e:	je     0x4078e5
  407880:	js     0x4078f6
  407882:	dec    esi
  407883:	outs   dx,DWORD PTR ds:[esi]
  407884:	fs add BYTE PTR gs:[eax+0x6f],dh
  407889:	jae    0x4078f4
  40788b:	je     0x4078f6
  40788d:	outs   dx,DWORD PTR ds:[esi]
  40788e:	outs   dx,BYTE PTR ds:[esi]
  40788f:	add    BYTE PTR [ecx+eiz*2+0x73],ch
  407893:	je     0x407895
  407895:	inc    ebx
  407896:	jb     0x4078fd
  407898:	popa   
  407899:	je     0x407900
  40789b:	inc    ebp
  40789c:	jbe    0x4078ff
  40789e:	ins    BYTE PTR es:[edi],dx
  40789f:	jne    0x407902
  4078a1:	je     0x407912
  4078a3:	jb     0x4078a5
  4078a5:	push   ebx
  4078a6:	jns    0x40791b
  4078a8:	je     0x40790f
  4078aa:	ins    DWORD PTR es:[edi],dx
  4078ab:	cs inc esp
  4078ad:	popa   
  4078ae:	je     0x407911
  4078b0:	cs push ebx
  4078b2:	jno    0x407920
  4078b4:	pop    eax
  4078b5:	ins    DWORD PTR es:[edi],dx
  4078b6:	ins    BYTE PTR es:[edi],dx
  4078b7:	add    BYTE PTR [ebx+0x79],dl
  4078ba:	jae    0x407930
  4078bc:	gs ins DWORD PTR es:[edi],dx
  4078be:	cs pop eax
  4078c0:	ins    DWORD PTR es:[edi],dx
  4078c1:	ins    BYTE PTR es:[edi],dx
  4078c2:	cs pop eax
  4078c4:	jae    0x407932
  4078c6:	cs push edx
  4078c8:	jne    0x407938
  4078ca:	je     0x407935
  4078cc:	ins    DWORD PTR es:[edi],dx
  4078cd:	add    BYTE PTR gs:[eax+0x6d],bl
  4078d1:	ins    BYTE PTR es:[edi],dx
  4078d2:	push   ecx
  4078d3:	jne    0x40793a
  4078d5:	jb     0x407950
  4078d7:	push   edx
  4078d8:	jne    0x407948
  4078da:	je     0x407945
  4078dc:	ins    DWORD PTR es:[edi],dx
  4078dd:	add    BYTE PTR gs:[ebx+0x65],dl
  4078e1:	je     0x407927
  4078e3:	bound  esi,QWORD PTR gs:[ebp+0x67]
  4078e7:	inc    ebx
  4078e8:	outs   dx,DWORD PTR ds:[esi]
  4078e9:	outs   dx,BYTE PTR ds:[esi]
  4078ea:	je     0x407951
  4078ec:	js     0x407962
  4078ee:	add    BYTE PTR [ebx+0x79],dl
  4078f1:	jae    0x407967
  4078f3:	gs ins DWORD PTR es:[edi],dx
  4078f5:	cs inc ebx
  4078f7:	outs   dx,DWORD PTR ds:[esi]
  4078f8:	ins    BYTE PTR es:[edi],dx
  4078f9:	ins    BYTE PTR es:[edi],dx
  4078fa:	arpl   WORD PTR gs:[ecx+ebp*2+0x6f],si
  4078ff:	outs   dx,BYTE PTR ds:[esi]
  407900:	jae    0x407902
  407902:	dec    ecx
  407903:	dec    esp
  407904:	imul   esi,DWORD PTR [ebx+0x74],0x74654700
  40790b:	pop    eax
  40790c:	jae    0x40797a
  40790e:	je     0x407966
  407910:	popa   
  407911:	ins    BYTE PTR es:[edi],dx
  407912:	jne    0x407979
  407914:	jae    0x407916
  407916:	inc    edi
  407917:	gs je  0x40796d
  40791a:	gs jno 0x407992
  40791d:	outs   dx,BYTE PTR gs:[esi]
  40791f:	arpl   WORD PTR [ebp+0x4c],sp
  407922:	outs   dx,BYTE PTR gs:[esi]
  407924:	addr16 je 0x40798f
  407927:	jae    0x407929
  407929:	inc    edi
  40792a:	gs je  0x407974
  40792d:	ins    BYTE PTR es:[edi],dx
  40792e:	outs   dx,DWORD PTR ds:[esi]
  40792f:	bound  esp,QWORD PTR [ecx+0x6c]
  407932:	push   esi
  407933:	popa   
  407934:	ins    BYTE PTR es:[edi],dx
  407935:	jne    0x40799c
  407937:	jae    0x407939
  407939:	inc    edi
  40793a:	gs je  0x407984
  40793d:	ins    BYTE PTR es:[edi],dx
  40793e:	outs   dx,DWORD PTR ds:[esi]
  40793f:	bound  esp,QWORD PTR [ecx+0x6c]
  407942:	dec    esi
  407943:	popa   
  407944:	ins    DWORD PTR es:[edi],dx
  407945:	gs jae 0x407948
  407948:	inc    ecx
  407949:	fs fs push esp
  40794c:	outs   dx,DWORD PTR ds:[esi]
  40794d:	inc    ebx
  40794e:	outs   dx,DWORD PTR ds:[esi]
  40794f:	outs   dx,BYTE PTR ds:[esi]
  407950:	je     0x4079b7
  407952:	js     0x4079c8
  407954:	add    BYTE PTR [ebx+0x65],dl
  407957:	je     0x40799c
  407959:	outs   dx,DWORD PTR ds:[esi]
  40795a:	outs   dx,BYTE PTR ds:[esi]
  40795b:	je     0x4079c2
  40795d:	js     0x4079d3
  40795f:	dec    esi
  407960:	outs   dx,DWORD PTR ds:[esi]
  407961:	fs add BYTE PTR gs:[ebx+0x6c],al
  407966:	gs popa 
  407968:	jb     0x4079ad
  40796a:	outs   dx,DWORD PTR ds:[esi]
  40796b:	outs   dx,BYTE PTR ds:[esi]
  40796c:	je     0x4079d3
  40796e:	js     0x4079e4
  407970:	add    BYTE PTR [ebx+0x65],dl
  407973:	je     0x4079c5
  407975:	outs   dx,DWORD PTR ds:[esi]
  407976:	jae    0x4079e1
  407978:	je     0x4079e3
  40797a:	outs   dx,DWORD PTR ds:[esi]
  40797b:	outs   dx,BYTE PTR ds:[esi]
  40797c:	add    BYTE PTR [ebx+0x65],dl
  40797f:	je     0x4079cd
  407981:	popa   
  407982:	jae    0x4079f8
  407984:	add    BYTE PTR [ecx+0x73],cl
  407987:	dec    ecx
  407988:	outs   dx,BYTE PTR ds:[esi]
  407989:	push   0x74697265
  40798e:	gs fs dec esi
  407991:	popa   
  407992:	ins    DWORD PTR es:[edi],dx
  407993:	gs jae 0x407a06
  407996:	popa   
  407997:	arpl   WORD PTR [ebp+0x0],sp
  40799a:	inc    ebp
  40799b:	jbe    0x4079fe
  40799d:	ins    BYTE PTR es:[edi],dx
  40799e:	jne    0x407a01
  4079a0:	je     0x407a07
  4079a2:	add    BYTE PTR [edi+0x65],al
  4079a5:	je     0x4079ec
  4079a7:	js     0x407a0c
  4079a9:	gs jo  0x407a20
  4079ac:	imul   ebp,DWORD PTR [edi+0x6e],0x74786554
  4079b3:	add    BYTE PTR [ebx+0x65],dl
  4079b6:	je     0x407a0e
  4079b8:	popa   
  4079b9:	jb     0x407a24
  4079bb:	popa   
  4079bc:	bound  ebp,QWORD PTR [ebp+eiz*2+0x56]
  4079c0:	popa   
  4079c1:	ins    BYTE PTR es:[edi],dx
  4079c2:	jne    0x407a29
  4079c4:	add    BYTE PTR [edi+0x65],al
  4079c7:	je     0x407a19
  4079c9:	inc    esp
  4079ca:	inc    edx
  4079cb:	dec    esi
  4079cc:	popa   
  4079cd:	ins    DWORD PTR es:[edi],dx
  4079ce:	gs inc esi
  4079d0:	jb     0x407a41
  4079d2:	ins    DWORD PTR es:[edi],dx
  4079d3:	inc    esp
  4079d4:	imul   esi,DWORD PTR [ebx+0x70],0x4e79616c
  4079db:	popa   
  4079dc:	ins    DWORD PTR es:[edi],dx
  4079dd:	add    BYTE PTR gs:[edi+0x65],al
  4079e1:	je     0x407a31
  4079e3:	popa   
  4079e4:	jbe    0x407a4f
  4079e6:	addr16 popa 
  4079e8:	je     0x407a59
  4079ea:	jb     0x407a2f
  4079ec:	push   0x72646c69
  4079f1:	outs   dx,BYTE PTR gs:[esi]
  4079f3:	add    BYTE PTR [edi+0x65],al
  4079f6:	je     0x407a46
  4079f8:	outs   dx,DWORD PTR ds:[esi]
  4079f9:	fs gs push esi
  4079fc:	popa   
  4079fd:	ins    BYTE PTR es:[edi],dx
  4079fe:	jne    0x407a65
  407a00:	add    BYTE PTR [edi+ebp*2+0x53],dh
  407a04:	je     0x407a78
  407a06:	imul   ebp,DWORD PTR [esi+0x67],0x4e6f7400
  407a0d:	jne    0x407a7c
  407a0f:	bound  esp,QWORD PTR [ebp+0x72]
  407a12:	add    BYTE PTR [edi+ebp*2+0x42],dh
  407a16:	outs   dx,DWORD PTR ds:[esi]
  407a17:	outs   dx,DWORD PTR ds:[esi]
  407a18:	ins    BYTE PTR es:[edi],dx
  407a19:	gs popa 
  407a1b:	outs   dx,BYTE PTR ds:[esi]
  407a1c:	add    BYTE PTR [eax+0x50],bl
  407a1f:	popa   
  407a20:	je     0x407a8a
  407a22:	push   edx
  407a23:	gs jae 0x407a9b
  407a26:	ins    BYTE PTR es:[edi],dx
  407a27:	je     0x407a7d
  407a29:	jns    0x407a9b
  407a2b:	add    BYTE PTR gs:[edi+0x65],al
  407a2f:	je     0x407a89
  407a31:	push   eax
  407a32:	popa   
  407a33:	je     0x407a9d
  407a35:	push   esp
  407a36:	jns    0x407aa8
  407a38:	add    BYTE PTR gs:[ebx+0x79],dl
  407a3c:	jae    0x407ab2
  407a3e:	gs ins DWORD PTR es:[edi],dx
  407a40:	cs inc ebx
  407a42:	outs   dx,DWORD PTR ds:[esi]
  407a43:	ins    BYTE PTR es:[edi],dx
  407a44:	ins    BYTE PTR es:[edi],dx
  407a45:	arpl   WORD PTR gs:[ecx+ebp*2+0x6f],si
  407a4a:	outs   dx,BYTE PTR ds:[esi]
  407a4b:	jae    0x407a7b
  407a4d:	inc    edi
  407a4e:	outs   dx,BYTE PTR gs:[esi]
  407a50:	gs jb  0x407abc
  407a53:	arpl   WORD PTR [eax],ax
  407a55:	inc    esp
  407a56:	imul   esp,DWORD PTR [ebx+0x74],0x616e6f69
  407a5d:	jb     0x407ad8
  407a5f:	pusha  
  407a60:	xor    al,BYTE PTR [eax]
  407a62:	jbe    0x407ac5
  407a64:	jb     0x407acf
  407a66:	popa   
  407a67:	bound  ebp,QWORD PTR [ebp+eiz*2+0x73]
  407a6b:	dec    ecx
  407a6c:	outs   dx,BYTE PTR ds:[esi]
  407a6d:	push   ebx
  407a6e:	arpl   WORD PTR [edi+0x70],bp
  407a71:	add    BYTE PTR gs:[esi+0x61],ch
  407a75:	ins    DWORD PTR es:[edi],dx
  407a76:	gs jae 0x407ae9
  407a79:	popa   
  407a7a:	arpl   WORD PTR [ebp+0x73],sp
  407a7d:	add    BYTE PTR [edi+0x65],ah
  407a80:	je     0x407ae1
  407a82:	inc    esp
  407a83:	gs popaw 
  407a86:	jne    0x407af4
  407a88:	je     0x407ad8
  407a8a:	popa   
  407a8b:	ins    DWORD PTR es:[edi],dx
  407a8c:	gs jae 0x407aff
  407a8f:	popa   
  407a90:	arpl   WORD PTR [ebp+0x0],sp
  407a93:	dec    esp
  407a94:	outs   dx,DWORD PTR ds:[esi]
  407a95:	outs   dx,DWORD PTR ds:[esi]
  407a96:	imul   esi,DWORD PTR [ebp+0x70],0x4e
  407a9a:	popa   
  407a9b:	ins    DWORD PTR es:[edi],dx
  407a9c:	gs jae 0x407b0f
  407a9f:	popa   
  407aa0:	arpl   WORD PTR [ebp+0x0],sp
  407aa3:	push   edx
  407aa4:	gs jae 0x407b16
  407aa7:	ins    BYTE PTR es:[edi],dx
  407aa8:	jbe    0x407b0f
  407aaa:	push   esi
  407aab:	popa   
  407aac:	jb     0x407b17
  407aae:	popa   
  407aaf:	bound  ebp,QWORD PTR [ebp+eiz*2+0x0]
  407ab3:	dec    ecx
  407ab4:	pop    eax
  407ab5:	jae    0x407b23
  407ab7:	je     0x407afc
  407ab9:	outs   dx,DWORD PTR ds:[esi]
  407aba:	outs   dx,BYTE PTR ds:[esi]
  407abb:	je     0x407b22
  407abd:	js     0x407b33
  407abf:	inc    esi
  407ac0:	jne    0x407b30
  407ac2:	arpl   WORD PTR [ecx+ebp*2+0x6f],si
  407ac6:	outs   dx,BYTE PTR ds:[esi]
  407ac7:	add    BYTE PTR [edx+0x65],dl
  407aca:	jae    0x407b3b
  407acc:	ins    BYTE PTR es:[edi],dx
  407acd:	jbe    0x407b34
  407acf:	inc    esi
  407ad0:	jne    0x407b40
  407ad2:	arpl   WORD PTR [ecx+ebp*2+0x6f],si
  407ad6:	outs   dx,BYTE PTR ds:[esi]
  407ad7:	add    BYTE PTR [edi+0x65],ah
  407ada:	je     0x407b3b
  407adc:	push   edi
  407add:	push   0x73657469
  407ae2:	jo     0x407b45
  407ae4:	arpl   WORD PTR [ebp+0x0],sp
  407ae7:	push   eax
  407ae8:	jb     0x407b4f
  407aea:	jae    0x407b51
  407aec:	jb     0x407b64
  407aee:	gs push edi
  407af0:	push   0x73657469
  407af5:	jo     0x407b58
  407af7:	arpl   WORD PTR [ebp+0x0],sp
  407afa:	inc    ebx
  407afb:	outs   dx,DWORD PTR ds:[esi]
  407afc:	ins    DWORD PTR es:[edi],dx
  407afd:	jo     0x407b60
  407aff:	jb     0x407b66
  407b01:	inc    esp
  407b02:	outs   dx,DWORD PTR ds:[esi]
  407b03:	arpl   WORD PTR [ebp+0x6d],si
  407b06:	outs   dx,BYTE PTR gs:[esi]
  407b08:	je     0x407b0a
  407b0a:	dec    eax
  407b0b:	popa   
  407b0c:	jae    0x407b64
  407b0e:	popa   
  407b0f:	jb     0x407b7a
  407b11:	popa   
  407b12:	bound  ebp,QWORD PTR [ebp+eiz*2+0x0]
  407b16:	inc    esp
  407b17:	gs popaw 
  407b1a:	jne    0x407b88
  407b1c:	je     0x407b6c
  407b1e:	popa   
  407b1f:	ins    DWORD PTR es:[edi],dx
  407b20:	gs jae 0x407b93
  407b23:	popa   
  407b24:	arpl   WORD PTR [ebp+0x0],sp
  407b27:	push   edi
  407b28:	push   0x73657469
  407b2d:	jo     0x407b90
  407b2f:	arpl   WORD PTR [ebp+0x0],sp
  407b32:	jbe    0x407b95
  407b34:	ins    BYTE PTR es:[edi],dx
  407b35:	jne    0x407b9c
  407b37:	add    BYTE PTR [edi+0x65],ah
  407b3a:	je     0x407b9b
  407b3c:	dec    ecx
  407b3d:	jae    0x407b8b
  407b3f:	outs   dx,DWORD PTR ds:[esi]
  407b40:	arpl   WORD PTR [ecx+0x6c],sp
  407b43:	add    BYTE PTR [edi+0x65],ah
  407b46:	je     0x407ba7
  407b48:	dec    ecx
  407b49:	jae    0x407b9b
  407b4b:	popa   
  407b4c:	jb     0x407baf
  407b4e:	ins    DWORD PTR es:[edi],dx
  407b4f:	add    BYTE PTR [edi+0x65],ah
  407b52:	je     0x407bb3
  407b54:	push   esi
  407b55:	popa   
  407b56:	jb     0x407bc1
  407b58:	popa   
  407b59:	bound  ebp,QWORD PTR [ebp+eiz*2+0x54]
  407b5d:	jns    0x407bcf
  407b5f:	add    BYTE PTR gs:[ecx+0x73],cl
  407b63:	dec    esp
  407b64:	outs   dx,DWORD PTR ds:[esi]
  407b65:	arpl   WORD PTR [ecx+0x6c],sp
  407b68:	add    BYTE PTR [ecx+0x73],cl
  407b6b:	push   eax
  407b6c:	popa   
  407b6d:	jb     0x407bd0
  407b6f:	ins    DWORD PTR es:[edi],dx
  407b70:	add    BYTE PTR [esi+0x61],dl
  407b73:	jb     0x407bde
  407b75:	popa   
  407b76:	bound  ebp,QWORD PTR [ebp+eiz*2+0x54]
  407b7a:	jns    0x407bec
  407b7c:	add    BYTE PTR gs:[ecx+ebp*2+0x73],ch
  407b81:	je     0x407b83
  407b83:	imul   ebp,DWORD PTR [esi+0x64],0x43007865
  407b8a:	ins    BYTE PTR es:[edi],dx
  407b8b:	outs   dx,DWORD PTR ds:[esi]
  407b8c:	outs   dx,BYTE PTR ds:[esi]
  407b8d:	add    BYTE PTR gs:[ebp+0x6f],cl
  407b91:	jbe    0x407bf8
  407b93:	dec    esi
  407b94:	gs js  0x407c0b
  407b97:	add    BYTE PTR [edi+0x65],ah
  407b9a:	je     0x407bfb
  407b9c:	inc    ebx
  407b9d:	jne    0x407c11
  407b9f:	jb     0x407c06
  407ba1:	outs   dx,BYTE PTR ds:[esi]
  407ba2:	je     0x407ba4
  407ba4:	addr16 gs je 0x407c07
  407ba8:	inc    ebx
  407ba9:	jne    0x407c1d
  407bab:	jb     0x407c12
  407bad:	outs   dx,BYTE PTR ds:[esi]
  407bae:	je     0x407c00
  407bb0:	outs   dx,DWORD PTR ds:[esi]
  407bb1:	jae    0x407c1c
  407bb3:	je     0x407c1e
  407bb5:	outs   dx,DWORD PTR ds:[esi]
  407bb6:	outs   dx,BYTE PTR ds:[esi]
  407bb7:	add    BYTE PTR [edi+0x65],ah
  407bba:	je     0x407c1b
  407bbc:	inc    ebx
  407bbd:	outs   dx,DWORD PTR ds:[esi]
  407bbe:	jne    0x407c2e
  407bc0:	je     0x407bc2
  407bc2:	push   edx
  407bc3:	gs jae 0x407c2b
  407bc6:	je     0x407bc8
  407bc8:	dec    ecx
  407bc9:	inc    ebp
  407bca:	outs   dx,BYTE PTR ds:[esi]
  407bcb:	jne    0x407c3a
  407bcd:	gs jb  0x407c31
  407bd0:	je     0x407c41
  407bd2:	jb     0x407bd4
  407bd4:	inc    edi
  407bd5:	gs je  0x407c1d
  407bd8:	outs   dx,BYTE PTR ds:[esi]
  407bd9:	jne    0x407c48
  407bdb:	gs jb  0x407c3f
  407bde:	je     0x407c4f
  407be0:	jb     0x407be2
  407be2:	inc    ebx
  407be3:	jne    0x407c57
  407be5:	jb     0x407c4c
  407be7:	outs   dx,BYTE PTR ds:[esi]
  407be8:	je     0x407bea
  407bea:	inc    ebx
  407beb:	jne    0x407c5f
  407bed:	jb     0x407c54
  407bef:	outs   dx,BYTE PTR ds:[esi]
  407bf0:	je     0x407c42
  407bf2:	outs   dx,DWORD PTR ds:[esi]
  407bf3:	jae    0x407c5e
  407bf5:	je     0x407c60
  407bf7:	outs   dx,DWORD PTR ds:[esi]
  407bf8:	outs   dx,BYTE PTR ds:[esi]
  407bf9:	add    BYTE PTR [ebx+0x6f],al
  407bfc:	jne    0x407c6c
  407bfe:	je     0x407c00
  407c00:	jbe    0x407c6b
  407c02:	jae    0x407c6d
  407c04:	je     0x407c6b
  407c06:	add    BYTE PTR fs:[ebp+0x41],cl
  407c0a:	pop    eax
  407c0b:	pop    edi
  407c0c:	push   eax
  407c0d:	inc    ecx
  407c0e:	push   esp
  407c0f:	dec    eax
  407c10:	add    BYTE PTR [ebp+0x52],dl
  407c13:	dec    esp
  407c14:	inc    esp
  407c15:	outs   dx,DWORD PTR ds:[esi]
  407c16:	ja     0x407c86
  407c18:	ins    BYTE PTR es:[edi],dx
  407c19:	outs   dx,DWORD PTR ds:[esi]
  407c1a:	popa   
  407c1b:	fs push esp
  407c1d:	outs   dx,DWORD PTR ds:[esi]
  407c1e:	inc    ebx
  407c1f:	popa   
  407c20:	arpl   WORD PTR [eax+0x65],bp
  407c23:	inc    esi
  407c24:	imul   ebp,DWORD PTR [ebp+eiz*2+0x0],0x65474853
  407c2c:	je     0x407c81
  407c2e:	jo     0x407c95
  407c30:	arpl   WORD PTR [ecx+0x61],bp
  407c33:	ins    BYTE PTR es:[edi],dx
  407c34:	inc    esi
  407c35:	outs   dx,DWORD PTR ds:[esi]
  407c36:	ins    BYTE PTR es:[edi],dx
  407c37:	fs gs jb 0x407c8b
  407c3b:	popa   
  407c3c:	je     0x407ca6
  407c3e:	add    BYTE PTR [edi+0x65],al
  407c41:	je     0x407c96
  407c43:	push   0x5074726f
  407c48:	popa   
  407c49:	je     0x407cb3
  407c4b:	dec    esi
  407c4c:	popa   
  407c4d:	ins    DWORD PTR es:[edi],dx
  407c4e:	add    BYTE PTR gs:[ecx+0x72],ah
  407c52:	addr16 jae 0x407c55
  407c55:	add    BYTE PTR gs:[ebx+0x62],dh
  407c59:	add    BYTE PTR [ebp+0x78],ah
  407c5c:	add    BYTE PTR [ecx+0x0],ah
  407c5f:	data16 outs dx,BYTE PTR ds:[esi]
  407c61:	popa   
  407c62:	ins    DWORD PTR es:[edi],dx
  407c63:	add    BYTE PTR gs:[ebp+0x65],ch
  407c67:	jae    0x407cdc
  407c69:	popa   
  407c6a:	add    BYTE PTR gs:[bp+si+0x65],dh
  407c6f:	jae    0x407ce0
  407c71:	ins    BYTE PTR es:[edi],dx
  407c72:	jbe    0x407cd9
  407c74:	jb     0x407c76
  407c76:	jae    0x407cec
  407c78:	outs   dx,DWORD PTR ds:[esi]
  407c79:	jo     0x407cf2
  407c7b:	popa   
  407c7c:	je     0x407ce1
  407c7e:	push   0x73736100
  407c83:	push   eax
  407c84:	popa   
  407c85:	je     0x407cef
  407c87:	add    BYTE PTR [ecx+edi*2+0x70],dh
  407c8b:	gs dec esi
  407c8d:	popa   
  407c8e:	ins    DWORD PTR es:[edi],dx
  407c8f:	add    BYTE PTR gs:[edi+0x75],ch
  407c93:	je     0x407d05
  407c95:	jne    0x407d0b
  407c97:	push   ebx
  407c98:	gs je  0x407d0f
  407c9b:	imul   ebp,DWORD PTR [esi+0x67],0x72610073
  407ca2:	add    BYTE PTR [bp+di+0x74],dh
  407ca6:	jb     0x407ca8
  407ca8:	outs   dx,DWORD PTR ds:[esi]
  407ca9:	jo     0x407d1f
  407cab:	imul   ebp,DWORD PTR [edi+0x6e],0x656d614e
  407cb2:	add    BYTE PTR [edi+0x70],ch
  407cb5:	je     0x407d20
  407cb7:	outs   dx,DWORD PTR ds:[esi]
  407cb8:	outs   dx,BYTE PTR ds:[esi]
  407cb9:	push   esi
  407cba:	popa   
  407cbb:	ins    BYTE PTR es:[edi],dx
  407cbc:	jne    0x407d23
  407cbe:	add    BYTE PTR [esi+0x75],ah
  407cc1:	ins    BYTE PTR es:[edi],dx
  407cc2:	ins    BYTE PTR es:[edi],dx
  407cc3:	inc    esi
  407cc4:	outs   dx,DWORD PTR ds:[esi]
  407cc5:	jb     0x407d34
  407cc7:	add    BYTE PTR [ebx+0x68],dh
  407cca:	outs   dx,DWORD PTR ds:[esi]
  407ccb:	jb     0x407d41
  407ccd:	inc    esi
  407cce:	outs   dx,DWORD PTR ds:[esi]
  407ccf:	jb     0x407d3e
  407cd1:	add    BYTE PTR [eax+0x69],dh
  407cd4:	jo     0x407d3b
  407cd6:	dec    eax
  407cd7:	popa   
  407cd8:	outs   dx,BYTE PTR ds:[esi]
  407cd9:	fs ins BYTE PTR es:[edi],dx
  407cdb:	add    BYTE PTR gs:[edi+0x75],ch
  407cdf:	je     0x407d51
  407ce1:	jne    0x407d57
  407ce3:	add    BYTE PTR [ebp+0x6e],ah
  407ce6:	arpl   WORD PTR [edi+0x64],bp
  407ce9:	imul   ebp,DWORD PTR [esi+0x67],0x74656d00
  407cf0:	push   0x6c00646f
  407cf5:	outs   dx,DWORD PTR ds:[esi]
  407cf6:	arpl   WORD PTR [ecx+0x6c],sp
  407cf9:	dec    esi
  407cfa:	popa   
  407cfb:	ins    DWORD PTR es:[edi],dx
  407cfc:	add    BYTE PTR gs:[esi+0x73],ch
  407d00:	add    BYTE PTR [ebp+eiz*2+0x78],dh
  407d04:	je     0x407d06
  407d06:	outs   dx,BYTE PTR ds:[esi]
  407d07:	popa   
  407d08:	ins    DWORD PTR es:[edi],dx
  407d09:	add    BYTE PTR gs:[ecx+eiz*2+0x74],ah
  407d0e:	popa   
  407d0f:	add    BYTE PTR [ebx+0x74],dh
  407d12:	popa   
  407d13:	outs   dx,BYTE PTR ds:[esi]
  407d14:	fs popa 
  407d16:	ins    BYTE PTR es:[edi],dx
  407d17:	outs   dx,DWORD PTR ds:[esi]
  407d18:	outs   dx,BYTE PTR ds:[esi]
  407d19:	add    BYTE PTR gs:[eax+0x75],dh
  407d1d:	bound  ebp,QWORD PTR [ecx+0x64]
  407d20:	add    BYTE PTR [ebx+0x79],dh
  407d23:	jae    0x407d8e
  407d25:	add    BYTE PTR fs:[ebx+0x75],dh
  407d29:	bound  esi,QWORD PTR [ebx+0x65]
  407d2c:	je     0x407d2e
  407d2e:	arpl   WORD PTR [eax+0x0],bp
  407d31:	ins    BYTE PTR es:[edi],dx
  407d32:	outs   dx,DWORD PTR ds:[esi]
  407d33:	ja     0x407d78
  407d35:	push   0x68007261
  407d3a:	imul   esp,DWORD PTR [edi+0x68],0x72616843
  407d41:	add    BYTE PTR [edi+0x73],dh
  407d44:	add    BYTE PTR [edx+0x75],ah
  407d47:	data16 data16 gs jb 0x407d4c
  407d4c:	arpl   WORD PTR [edi+0x75],bp
  407d4f:	outs   dx,BYTE PTR ds:[esi]
  407d50:	je     0x407d52
  407d52:	outs   dx,DWORD PTR ds:[esi]
  407d53:	data16 data16 jae 0x407dbc
  407d57:	je     0x407d59
  407d59:	imul   esi,DWORD PTR fs:[ebx+0x70],0x6e69736f
  407d61:	add    BYTE PTR [bx+0x72],ch
  407d65:	imul   esp,DWORD PTR [edi+0x69],0x6564006e
  407d6c:	jae    0x407dd1
  407d6e:	jb     0x407dd9
  407d70:	jo     0x407de6
  407d72:	imul   ebp,DWORD PTR [edi+0x6e],0x74616300
  407d79:	outs   dx,DWORD PTR gs:[si]
  407d7c:	jb     0x407df7
  407d7e:	add    BYTE PTR [eax+0x61],dl
  407d81:	jb     0x407de4
  407d83:	ins    DWORD PTR es:[edi],dx
  407d84:	inc    ecx
  407d85:	jb     0x407df9
  407d87:	popa   
  407d88:	jns    0x407dcb
  407d8a:	je     0x407e00
  407d8c:	jb     0x407df7
  407d8e:	bound  esi,QWORD PTR [ebp+0x74]
  407d91:	add    BYTE PTR gs:[edx+0x75],dh
  407d95:	outs   dx,BYTE PTR ds:[esi]
  407d96:	je     0x407e01
  407d98:	ins    DWORD PTR es:[edi],dx
  407d99:	add    BYTE PTR gs:[ebx+0x6f],ah
  407d9d:	outs   dx,BYTE PTR ds:[esi]
  407d9e:	arpl   WORD PTR [ecx+0x74],sp
  407da1:	gs fs push eax
  407da4:	bound  ecx,QWORD PTR fs:[esi+0x61]
  407da8:	ins    DWORD PTR es:[edi],dx
  407da9:	gs jae 0x407dac
  407dac:	jo     0x407e04
  407dae:	popa   
  407daf:	ins    BYTE PTR es:[edi],dx
  407db0:	jne    0x407e17
  407db2:	jae    0x407db4
  407db4:	jbe    0x407e17
  407db6:	ins    BYTE PTR es:[edi],dx
  407db7:	jne    0x407e1e
  407db9:	jae    0x407dbb
  407dbb:	outs   dx,BYTE PTR ds:[esi]
  407dbc:	popa   
  407dbd:	ins    DWORD PTR es:[edi],dx
  407dbe:	gs jae 0x407dc1
  407dc1:	jo     0x407e11
  407dc3:	popa   
  407dc4:	ins    DWORD PTR es:[edi],dx
  407dc5:	add    BYTE PTR gs:[eax+0x4e],dh
  407dc9:	popa   
  407dca:	ins    DWORD PTR es:[edi],dx
  407dcb:	gs jae 0x407e3e
  407dce:	popa   
  407dcf:	arpl   WORD PTR [ebp+0x0],sp
  407dd2:	jo     0x407e2a
  407dd4:	popa   
  407dd5:	ins    BYTE PTR es:[edi],dx
  407dd6:	jne    0x407e3d
  407dd8:	add    BYTE PTR [eax+0x43],dh
  407ddb:	outs   dx,DWORD PTR ds:[esi]
  407ddc:	outs   dx,BYTE PTR ds:[esi]
  407ddd:	je     0x407e44
  407ddf:	js     0x407e55
  407de1:	add    BYTE PTR [eax+0x50],dh
  407de4:	outs   dx,DWORD PTR ds:[esi]
  407de5:	jae    0x407e50
  407de7:	je     0x407e52
  407de9:	outs   dx,DWORD PTR ds:[esi]
  407dea:	outs   dx,BYTE PTR ds:[esi]
  407deb:	add    BYTE PTR [eax+0x4c],dh
  407dee:	popa   
  407def:	jae    0x407e65
  407df1:	add    BYTE PTR [esi+0x6f],ch
  407df4:	fs add BYTE PTR gs:[ebp+0x78],ah
  407df9:	jo     0x407e6d
  407dfb:	add    BYTE PTR [esi+0x61],dh
  407dfe:	jb     0x407e00
  407e00:	imul   esi,DWORD PTR fs:[ebx+0x70],0x4e79616c
  407e08:	popa   
  407e09:	ins    DWORD PTR es:[edi],dx
  407e0a:	add    BYTE PTR gs:[esi+0x61],ch
  407e0e:	jbe    0x407e10
  407e10:	jno    0x407e80
  407e12:	popa   
  407e13:	ins    DWORD PTR es:[edi],dx
  407e14:	add    BYTE PTR gs:[esi+0x61],dh
  407e18:	jb     0x407e83
  407e1a:	popa   
  407e1b:	bound  ebp,QWORD PTR [ebp+eiz*2+0x0]
  407e1f:	inc    ecx
  407e20:	jb     0x407e89
  407e22:	push   esp
  407e23:	jns    0x407e95
  407e25:	gs jae 0x407e28
  407e28:	bound  esp,QWORD PTR [ecx+0x73]
  407e2b:	gs push ebp
  407e2d:	jb     0x407e98
  407e2f:	add    BYTE PTR [esi+0x65],ch
  407e32:	js     0x407ea8
  407e34:	bound  esp,QWORD PTR [ecx+0x73]
  407e37:	gs push ebp
  407e39:	jb     0x407ea4
  407e3b:	add    BYTE PTR [eax+0x73],bh
  407e3e:	ins    BYTE PTR es:[edi],dx
  407e3f:	je     0x407e84
  407e41:	outs   dx,DWORD PTR ds:[esi]
  407e42:	outs   dx,BYTE PTR ds:[esi]
  407e43:	je     0x407eaa
  407e45:	js     0x407ebb
  407e47:	add    BYTE PTR [eax+0x6f],dh
  407e4a:	jae    0x407e4c
  407e4c:	ins    BYTE PTR es:[edi],dx
  407e4d:	jo     0x407ea4
  407e4f:	outs   dx,BYTE PTR ds:[esi]
  407e50:	imul   esp,DWORD PTR [ebx+0x61],0x6c
  407e54:	ins    BYTE PTR es:[edi],dx
  407e55:	gs jb  0x407e58
  407e58:	jae    0x407ed4
  407e5a:	push   ebp
  407e5b:	push   edx
  407e5c:	dec    esp
  407e5d:	add    BYTE PTR [ebx+0x7a],dh
  407e60:	inc    esi
  407e61:	imul   ebp,DWORD PTR [ebp+eiz*2+0x4e],0x656d61
  407e69:	arpl   WORD PTR [ebx+0x68],sp
  407e6c:	inc    esi
  407e6d:	imul   ebp,DWORD PTR [ebp+eiz*2+0x4e],0x656d61
  407e75:	fs ja  0x407eca
  407e78:	gs jae 0x407ee0
  407e7b:	jb     0x407ef3
  407e7d:	gs add BYTE PTR fs:[eax+0x42],dh
  407e82:	push   ebx
  407e83:	inc    ebx
  407e84:	add    BYTE PTR [eax+0x77],ch
  407e87:	outs   dx,BYTE PTR ds:[esi]
  407e88:	fs dec edi
  407e8a:	ja     0x407efa
  407e8c:	gs jb  0x407e8f
  407e8f:	ins    BYTE PTR es:[edi],dx
  407e90:	jo     0x407f05
  407e92:	jp     0x407ee4
  407e94:	popa   
  407e95:	je     0x407eff
  407e97:	add    BYTE PTR [esi+0x46],ch
  407e9a:	outs   dx,DWORD PTR ds:[esi]
  407e9b:	ins    BYTE PTR es:[edi],dx
  407e9c:	fs gs jb 0x407ea0
  407ea0:	inc    bx
  407ea2:	jb     0x407f09
  407ea4:	popa   
  407ea5:	je     0x407f0c
  407ea7:	add    BYTE PTR [edi+ebp*2+0x6e],cl
  407eab:	addr16 push eax
  407ead:	popa   
  407eae:	je     0x407f18
  407eb0:	add    BYTE PTR [ebx+0x68],dl
  407eb3:	outs   dx,DWORD PTR ds:[esi]
  407eb4:	jb     0x407f2a
  407eb6:	push   eax
  407eb7:	popa   
  407eb8:	je     0x407f22
  407eba:	add    BYTE PTR [ebx+0x79],dl
  407ebd:	jae    0x407f33
  407ebf:	gs ins DWORD PTR es:[edi],dx
  407ec1:	cs push edx
  407ec3:	jne    0x407f33
  407ec5:	je     0x407f30
  407ec7:	ins    DWORD PTR es:[edi],dx
  407ec8:	gs cs dec ecx
  407ecb:	outs   dx,BYTE PTR ds:[esi]
  407ecc:	je     0x407f33
  407ece:	jb     0x407f3f
  407ed0:	jo     0x407f25
  407ed2:	gs jb  0x407f4b
  407ed5:	imul   esp,DWORD PTR [ebx+0x65],0x754f0073
  407edc:	je     0x407f1f
  407ede:	je     0x407f54
  407ee0:	jb     0x407f4b
  407ee2:	bound  esi,QWORD PTR [ebp+0x74]
  407ee5:	add    BYTE PTR gs:[edx+0x75],al
  407ee9:	data16 data16 gs jb 0x407f41
  407eee:	imul   edi,DWORD PTR [edx+0x65],0x73795300
  407ef5:	je     0x407f5c
  407ef7:	ins    DWORD PTR es:[edi],dx
  407ef8:	cs push edx
  407efa:	jne    0x407f6a
  407efc:	je     0x407f67
  407efe:	ins    DWORD PTR es:[edi],dx
  407eff:	gs cs push esi
  407f02:	gs jb  0x407f78
  407f05:	imul   ebp,DWORD PTR [edi+0x6e],0x676e69
  407f0c:	push   esp
  407f0d:	popa   
  407f0e:	jb     0x407f77
  407f10:	gs je  0x407f59
  407f13:	jb     0x407f76
  407f15:	ins    DWORD PTR es:[edi],dx
  407f16:	gs ja  0x407f88
  407f19:	jb     0x407f86
  407f1b:	inc    ecx
  407f1c:	je     0x407f92
  407f1e:	jb     0x407f89
  407f20:	bound  esi,QWORD PTR [ebp+0x74]
  407f23:	add    BYTE PTR gs:[ebx+0x6f],al
  407f27:	ins    DWORD PTR es:[edi],dx
  407f28:	push   esi
  407f29:	imul   esi,DWORD PTR [ebx+0x69],0x41656c62
  407f30:	je     0x407fa6
  407f32:	jb     0x407f9d
  407f34:	bound  esi,QWORD PTR [ebp+0x74]
  407f37:	add    BYTE PTR gs:[ebx+0x4c],al
  407f3b:	push   ebx
  407f3c:	inc    ebx
  407f3d:	outs   dx,DWORD PTR ds:[esi]
  407f3e:	ins    DWORD PTR es:[edi],dx
  407f3f:	jo     0x407fad
  407f41:	imul   esp,DWORD PTR [ecx+0x6e],0x74744174
  407f48:	jb     0x407fb3
  407f4a:	bound  esi,QWORD PTR [ebp+0x74]
  407f4d:	add    BYTE PTR gs:[ecx+0x73],al
  407f51:	jae    0x407fb8
  407f53:	ins    DWORD PTR es:[edi],dx
  407f54:	bound  ebp,QWORD PTR [ecx+edi*2+0x54]
  407f58:	imul   esi,DWORD PTR [esp+ebp*2+0x65],0x72747441
  407f60:	imul   esp,DWORD PTR [edx+0x75],0x41006574
  407f67:	jae    0x407fdc
  407f69:	gs ins DWORD PTR es:[edi],dx
  407f6b:	bound  ebp,QWORD PTR [ecx+edi*2+0x44]
  407f6f:	gs jae 0x407fd5
  407f72:	jb     0x407fdd
  407f74:	jo     0x407fea
  407f76:	imul   ebp,DWORD PTR [edi+0x6e],0x72747441
  407f7d:	imul   esp,DWORD PTR [edx+0x75],0x41006574
  407f84:	jae    0x407ff9
  407f86:	gs ins DWORD PTR es:[edi],dx
  407f88:	bound  ebp,QWORD PTR [ecx+edi*2+0x44]
  407f8c:	gs popaw 
  407f8f:	jne    0x407ffd
  407f91:	je     0x407fd4
  407f93:	ins    BYTE PTR es:[edi],dx
  407f94:	imul   esp,DWORD PTR [ecx+0x73],0x72747441
  407f9b:	imul   esp,DWORD PTR [edx+0x75],0x41006574
  407fa2:	jae    0x408017
  407fa4:	gs ins DWORD PTR es:[edi],dx
  407fa6:	bound  ebp,QWORD PTR [ecx+edi*2+0x43]
  407faa:	outs   dx,DWORD PTR ds:[esi]
  407fab:	ins    DWORD PTR es:[edi],dx
  407fac:	jo     0x40800f
  407fae:	outs   dx,BYTE PTR ds:[esi]
  407faf:	jns    0x407ff2
  407fb1:	je     0x408027
  407fb3:	jb     0x40801e
  407fb5:	bound  esi,QWORD PTR [ebp+0x74]
  407fb8:	add    BYTE PTR gs:[ecx+0x73],al
  407fbc:	jae    0x408023
  407fbe:	ins    DWORD PTR es:[edi],dx
  407fbf:	bound  ebp,QWORD PTR [ecx+edi*2+0x50]
  407fc3:	jb     0x408034
  407fc5:	fs jne 0x40802b
  407fc8:	je     0x40800b
  407fca:	je     0x408040
  407fcc:	jb     0x408037
  407fce:	bound  esi,QWORD PTR [ebp+0x74]
  407fd1:	add    BYTE PTR gs:[ecx+0x73],al
  407fd5:	jae    0x40803c
  407fd7:	ins    DWORD PTR es:[edi],dx
  407fd8:	bound  ebp,QWORD PTR [ecx+edi*2+0x43]
  407fdc:	outs   dx,DWORD PTR ds:[esi]
  407fdd:	jo     0x408058
  407fdf:	jb     0x40804a
  407fe1:	addr16 push 0x74744174
  407fe7:	jb     0x408052
  407fe9:	bound  esi,QWORD PTR [ebp+0x74]
  407fec:	add    BYTE PTR gs:[ecx+0x73],al
  407ff0:	jae    0x408057
  407ff2:	ins    DWORD PTR es:[edi],dx
  407ff3:	bound  ebp,QWORD PTR [ecx+edi*2+0x56]
  407ff7:	gs jb  0x40806d
  407ffa:	imul   ebp,DWORD PTR [edi+0x6e],0x72747441
  408001:	imul   esp,DWORD PTR [edx+0x75],0x41006574
  408008:	jae    0x40807d
  40800a:	gs ins DWORD PTR es:[edi],dx
  40800c:	bound  ebp,QWORD PTR [ecx+edi*2+0x46]
  408010:	imul   ebp,DWORD PTR [ebp+eiz*2+0x56],0x69737265
  408018:	outs   dx,DWORD PTR ds:[esi]
  408019:	outs   dx,BYTE PTR ds:[esi]
  40801a:	inc    ecx
  40801b:	je     0x408091
  40801d:	jb     0x408088
  40801f:	bound  esi,QWORD PTR [ebp+0x74]
  408022:	add    BYTE PTR gs:[ecx+0x73],al
  408026:	jae    0x40808d
  408028:	ins    DWORD PTR es:[edi],dx
  408029:	bound  ebp,QWORD PTR [ecx+edi*2+0x49]
  40802d:	outs   dx,BYTE PTR ds:[esi]
  40802e:	outs   dx,WORD PTR ds:[esi]
  408030:	jb     0x40809f
  408032:	popa   
  408033:	je     0x40809e
  408035:	outs   dx,DWORD PTR ds:[esi]
  408036:	outs   dx,BYTE PTR ds:[esi]
  408037:	popa   
  408038:	ins    BYTE PTR es:[edi],dx
  408039:	push   esi
  40803a:	gs jb  0x4080b0
  40803d:	imul   ebp,DWORD PTR [edi+0x6e],0x72747441
  408044:	imul   esp,DWORD PTR [edx+0x75],0x53006574
  40804b:	popa   
  40804c:	je     0x4080b3
  40804e:	ins    BYTE PTR es:[edi],dx
  40804f:	ins    BYTE PTR es:[edi],dx
  408050:	imul   esi,DWORD PTR [ebp+eiz*2+0x43],0x72746e6f
  408058:	popa   
  408059:	arpl   WORD PTR [esi+edx*2+0x65],si
  40805d:	jb     0x4080d2
  40805f:	imul   ebp,DWORD PTR [edi+0x6e],0x72747441
  408066:	imul   esp,DWORD PTR [edx+0x75],0x4e006574
  40806d:	gs jne 0x4080e4
  408070:	jb     0x4080d3
  408072:	ins    BYTE PTR es:[edi],dx
  408073:	push   edx
  408074:	gs jae 0x4080e6
  408077:	jne    0x4080eb
  408079:	arpl   WORD PTR [ebp+0x73],sp
  40807c:	dec    esp
  40807d:	popa   
  40807e:	outs   dx,BYTE PTR ds:[esi]
  40807f:	addr16 jne 0x4080e3
  408082:	addr16 gs inc ecx
  408085:	je     0x4080fb
  408087:	jb     0x4080f2
  408089:	bound  esi,QWORD PTR [ebp+0x74]
  40808c:	add    BYTE PTR gs:[ecx+0x73],al
  408090:	jae    0x4080f7
  408092:	ins    DWORD PTR es:[edi],dx
  408093:	bound  ebp,QWORD PTR [ecx+edi*2+0x44]
  408097:	gs ins BYTE PTR es:[edi],dx
  408099:	popa   
  40809a:	jns    0x4080ef
  40809c:	imul   esp,DWORD PTR [edi+0x6e],0x72747441
  4080a3:	imul   esp,DWORD PTR [edx+0x75],0x41006574
  4080aa:	jae    0x40811f
  4080ac:	gs ins DWORD PTR es:[edi],dx
  4080ae:	bound  ebp,QWORD PTR [ecx+edi*2+0x4b]
  4080b2:	gs jns 0x4080fb
  4080b5:	imul   ebp,DWORD PTR [ebp+eiz*2+0x41],0x69727474
  4080bd:	bound  esi,QWORD PTR [ebp+0x74]
  4080c0:	add    BYTE PTR gs:[ecx+0x73],al
  4080c4:	jae    0x40812b
  4080c6:	ins    DWORD PTR es:[edi],dx
  4080c7:	bound  ebp,QWORD PTR [ecx+edi*2+0x53]
  4080cb:	imul   esp,DWORD PTR [edi+0x6e],0x72757461
  4080d2:	gs dec ebx
  4080d4:	gs jns 0x408118
  4080d7:	je     0x40814d
  4080d9:	jb     0x408144
  4080db:	bound  esi,QWORD PTR [ebp+0x74]
  4080de:	add    BYTE PTR gs:[ebx+0x79],dl
  4080e2:	jae    0x408158
  4080e4:	gs ins DWORD PTR es:[edi],dx
  4080e6:	cs push edx
  4080e8:	jne    0x408158
  4080ea:	je     0x408155
  4080ec:	ins    DWORD PTR es:[edi],dx
  4080ed:	gs cs inc ebx
  4080f0:	outs   dx,DWORD PTR ds:[esi]
  4080f1:	ins    DWORD PTR es:[edi],dx
  4080f2:	jo     0x40815d
  4080f4:	ins    BYTE PTR es:[edi],dx
  4080f5:	gs jb  0x40814b
  4080f8:	gs jb  0x408171
  4080fb:	imul   esp,DWORD PTR [ebx+0x65],0x75520073
  408102:	outs   dx,BYTE PTR ds:[esi]
  408103:	je     0x40816e
  408105:	ins    DWORD PTR es:[edi],dx
  408106:	gs inc ebx
  408108:	outs   dx,DWORD PTR ds:[esi]
  408109:	ins    DWORD PTR es:[edi],dx
  40810a:	jo     0x40816d
  40810c:	je     0x408177
  40810e:	bound  ebp,QWORD PTR [ecx+0x6c]
  408111:	imul   esi,DWORD PTR [ecx+edi*2+0x41],0x69727474
  408119:	bound  esi,QWORD PTR [ebp+0x74]
  40811c:	add    BYTE PTR gs:[ebx+0x65],dl
  408120:	arpl   WORD PTR [ebp+0x72],si
  408123:	imul   esi,DWORD PTR [ecx+edi*2+0x52],0x73656c75
  40812b:	inc    ecx
  40812c:	je     0x4081a2
  40812e:	jb     0x408199
  408130:	bound  esi,QWORD PTR [ebp+0x74]
  408133:	add    BYTE PTR gs:[ebx+0x65],dl
  408137:	arpl   WORD PTR [ebp+0x72],si
  40813a:	imul   esi,DWORD PTR [ecx+edi*2+0x52],0x53656c75
  408142:	gs je  0x408145
  408145:	inc    esp
  408146:	bound  esi,QWORD PTR gs:[ebp+0x67]
  40814a:	addr16 popa 
  40814c:	bound  ebp,QWORD PTR [ebp+eiz*2+0x41]
  408150:	je     0x4081c6
  408152:	jb     0x4081bd
  408154:	bound  esi,QWORD PTR [ebp+0x74]
  408157:	add    BYTE PTR gs:[ebp+eiz*2+0x62],al
  40815c:	jne    0x4081c5
  40815e:	imul   ebp,DWORD PTR [bp+0x67],0x65646f4d
  408166:	jae    0x408168
  408168:	inc    ebx
  408169:	outs   dx,DWORD PTR ds:[esi]
  40816a:	ins    DWORD PTR es:[edi],dx
  40816b:	jo     0x4081d6
  40816d:	ins    BYTE PTR es:[edi],dx
  40816e:	popa   
  40816f:	je     0x4081da
  408171:	outs   dx,DWORD PTR ds:[esi]
  408172:	outs   dx,BYTE PTR ds:[esi]
  408173:	push   edx
  408174:	gs ins BYTE PTR es:[edi],dx
  408176:	popa   
  408177:	js     0x4081da
  408179:	je     0x4081e4
  40817b:	outs   dx,DWORD PTR ds:[esi]
  40817c:	outs   dx,BYTE PTR ds:[esi]
  40817d:	jae    0x4081c0
  40817f:	je     0x4081f5
  408181:	jb     0x4081ec
  408183:	bound  esi,QWORD PTR [ebp+0x74]
  408186:	add    BYTE PTR gs:[ebx+0x79],dl
  40818a:	jae    0x408200
  40818c:	gs ins DWORD PTR es:[edi],dx
  40818e:	cs push ebx
  408190:	arpl   WORD PTR gs:[ebp+0x72],si
  408194:	imul   esi,DWORD PTR [ecx+edi*2+0x2e],0x6d726550
  40819c:	imul   esi,DWORD PTR [ebx+0x73],0x736e6f69
  4081a3:	add    BYTE PTR [eax+0x65],dl
  4081a6:	jb     0x408215
  4081a8:	imul   esi,DWORD PTR [ebx+0x73],0x536e6f69
  4081af:	je     0x408212
  4081b1:	je     0x408218
  4081b3:	add    BYTE PTR [ecx+0x73],al
  4081b6:	jae    0x40821d
  4081b8:	jb     0x40822e
  4081ba:	add    BYTE PTR [ebx+0x6f],al
  4081bd:	outs   dx,BYTE PTR ds:[esi]
  4081be:	jae    0x40822f
  4081c0:	ins    BYTE PTR es:[edi],dx
  4081c1:	add    BYTE PTR gs:[edi+0x70],cl
  4081c5:	outs   dx,BYTE PTR gs:[esi]
  4081c7:	push   ebx
  4081c8:	je     0x40822b
  4081ca:	outs   dx,BYTE PTR ds:[esi]
  4081cb:	fs popa 
  4081cd:	jb     0x408233
  4081cf:	dec    edi
  4081d0:	jne    0x408246
  4081d2:	jo     0x408249
  4081d4:	je     0x4081d6
  4081d6:	addr16 gs je 0x408239
  4081da:	push   ebp
  4081db:	push   esp
  4081dc:	inc    esi
  4081dd:	cmp    BYTE PTR [eax],al
  4081df:	dec    edi
  4081e0:	jo     0x408247
  4081e2:	outs   dx,BYTE PTR ds:[esi]
  4081e3:	push   ebx
  4081e4:	je     0x408247
  4081e6:	outs   dx,BYTE PTR ds:[esi]
  4081e7:	fs popa 
  4081e9:	jb     0x40824f
  4081eb:	inc    ebp
  4081ec:	jb     0x408260
  4081ee:	outs   dx,DWORD PTR ds:[esi]
  4081ef:	jb     0x4081f1
  4081f1:	push   esp
  4081f2:	gs js  0x408269
  4081f5:	push   edi
  4081f6:	jb     0x408261
  4081f8:	je     0x40825f
  4081fa:	jb     0x4081fc
  4081fc:	push   ebx
  4081fd:	gs je  0x40824f
  408200:	jne    0x408276
  408202:	add    BYTE PTR [ebx+0x65],dl
  408205:	je     0x40824c
  408207:	jb     0x40827b
  408209:	outs   dx,DWORD PTR ds:[esi]
  40820a:	jb     0x40820c
  40820c:	push   ebx
  40820d:	jns    0x408282
  40820f:	je     0x408276
  408211:	ins    DWORD PTR es:[edi],dx
  408212:	cs push esp
  408214:	push   0x64616572
  408219:	imul   ebp,DWORD PTR [esi+0x67],0x72685400
  408220:	gs popa 
  408222:	add    BYTE PTR fs:[ebx+0x6c],dl
  408226:	gs gs jo 0x40822a
  40822a:	inc    esp
  40822b:	bound  esi,QWORD PTR gs:[ebp+0x67]
  40822f:	addr16 gs jb 0x408233
  408233:	addr16 gs je 0x408296
  408237:	dec    ecx
  408238:	jae    0x40827b
  40823a:	je     0x4082b0
  40823c:	popa   
  40823d:	arpl   WORD PTR [eax+0x65],bp
  408240:	add    BYTE PTR fs:[edi+0x65],ah
  408244:	je     0x4082a5
  408246:	inc    ebx
  408247:	jne    0x4082bb
  408249:	jb     0x4082b0
  40824b:	outs   dx,BYTE PTR ds:[esi]
  40824c:	je     0x4082a2
  40824e:	push   0x64616572
  408253:	add    BYTE PTR [ebx+0x65],dh
  408256:	je     0x4082b7
  408258:	inc    ebx
  408259:	jne    0x4082cd
  40825b:	jb     0x4082c2
  40825d:	outs   dx,BYTE PTR ds:[esi]
  40825e:	je     0x4082b5
  408260:	dec    ecx
  408261:	inc    ebx
  408262:	jne    0x4082d0
  408264:	je     0x4082db
  408266:	jb     0x4082cd
  408268:	add    BYTE PTR [ecx+ebp*2+0x6d],dl
  40826c:	gs push ebx
  40826e:	jo     0x4082d1
  408270:	outs   dx,BYTE PTR ds:[esi]
  408271:	add    BYTE PTR [edx+0x65],bl
  408274:	jb     0x4082e5
  408276:	add    BYTE PTR [ebx+0x79],dl
  408279:	jae    0x4082ef
  40827b:	gs ins DWORD PTR es:[edi],dx
  40827d:	cs push edx
  40827f:	jne    0x4082ef
  408281:	je     0x4082ec
  408283:	ins    DWORD PTR es:[edi],dx
  408284:	gs cs push edx
  408287:	gs ins DWORD PTR es:[edi],dx
  408289:	outs   dx,DWORD PTR ds:[esi]
  40828a:	je     0x4082f5
  40828c:	outs   dx,BYTE PTR ds:[esi]
  40828d:	addr16 cs dec esp
  408290:	imul   esp,DWORD PTR [esi+0x65],0x656d6974
  408297:	add    BYTE PTR [ecx+ebp*2+0x66],cl
  40829b:	gs je  0x408307
  40829e:	ins    DWORD PTR es:[edi],dx
  40829f:	gs push ebx
  4082a1:	gs jb  0x40831a
  4082a4:	imul   esp,DWORD PTR [ebx+0x65],0x65730073
  4082ab:	je     0x40830c
  4082ad:	dec    esp
  4082ae:	gs popa 
  4082b0:	jae    0x408317
  4082b2:	push   esp
  4082b3:	imul   ebp,DWORD PTR [ebp+0x65],0x74654700
  4082ba:	inc    ebp
  4082bb:	js     0x408322
  4082bd:	arpl   WORD PTR [ebp+0x74],si
  4082c0:	imul   ebp,DWORD PTR [esi+0x67],0x65737341
  4082c7:	ins    DWORD PTR es:[edi],dx
  4082c8:	bound  ebp,QWORD PTR [ecx+edi*2+0x0]
  4082cc:	inc    ecx
  4082cd:	jo     0x40833f
  4082cf:	inc    esp
  4082d0:	outs   dx,DWORD PTR ds:[esi]
  4082d1:	ins    DWORD PTR es:[edi],dx
  4082d2:	popa   
  4082d3:	imul   ebp,DWORD PTR [esi+0x53],0x70757465
  4082da:	add    BYTE PTR [edi+0x65],ah
  4082dd:	je     0x40833e
  4082df:	dec    esp
  4082e0:	outs   dx,DWORD PTR ds:[esi]
  4082e1:	arpl   WORD PTR [ecx+0x74],sp
  4082e4:	imul   ebp,DWORD PTR [edi+0x6e],0x74615000
  4082eb:	push   0x74654700
  4082f0:	inc    esp
  4082f1:	imul   esi,DWORD PTR [edx+0x65],0x726f7463
  4082f8:	jns    0x408348
  4082fa:	popa   
  4082fb:	ins    DWORD PTR es:[edi],dx
  4082fc:	add    BYTE PTR gs:[ebx+0x65],dh
  408300:	je     0x408361
  408302:	inc    ecx
  408303:	jo     0x408375
  408305:	ins    BYTE PTR es:[edi],dx
  408306:	imul   esp,DWORD PTR [ebx+0x61],0x6e6f6974
  40830d:	inc    edx
  40830e:	popa   
  40830f:	jae    0x408376
  408311:	add    BYTE PTR [ecx+0x70],al
  408314:	jo     0x40835a
  408316:	outs   dx,DWORD PTR ds:[esi]
  408317:	ins    DWORD PTR es:[edi],dx
  408318:	popa   
  408319:	imul   ebp,DWORD PTR [esi+0x0],0x64697645
  408320:	outs   dx,BYTE PTR gs:[esi]
  408322:	arpl   WORD PTR [ebp+0x0],sp
  408325:	inc    ebx
  408326:	jb     0x40838d
  408328:	popa   
  408329:	je     0x408390
  40832b:	inc    esp
  40832c:	outs   dx,DWORD PTR ds:[esi]
  40832d:	ins    DWORD PTR es:[edi],dx
  40832e:	popa   
  40832f:	imul   ebp,DWORD PTR [esi+0x0],0x5f746567
  408336:	inc    esi
  408337:	jne    0x4083a5
  408339:	ins    BYTE PTR es:[edi],dx
  40833a:	dec    esi
  40833b:	popa   
  40833c:	ins    DWORD PTR es:[edi],dx
  40833d:	add    BYTE PTR gs:[edx+0x75],dl
  408341:	outs   dx,BYTE PTR ds:[esi]
  408342:	je     0x4083ad
  408344:	ins    DWORD PTR es:[edi],dx
  408345:	gs push esp
  408347:	jns    0x4083b9
  408349:	gs dec eax
  40834b:	popa   
  40834c:	outs   dx,BYTE PTR ds:[esi]
  40834d:	fs ins BYTE PTR es:[edi],dx
  40834f:	add    BYTE PTR gs:[edi+0x65],al
  408353:	je     0x4083a9
  408355:	jns    0x4083c7
  408357:	gs inc esi
  408359:	jb     0x4083ca
  40835b:	ins    DWORD PTR es:[edi],dx
  40835c:	dec    eax
  40835d:	popa   
  40835e:	outs   dx,BYTE PTR ds:[esi]
  40835f:	fs ins BYTE PTR es:[edi],dx
  408361:	add    BYTE PTR gs:[ebx+0x72],al
  408365:	gs popa 
  408367:	je     0x4083ce
  408369:	dec    ecx
  40836a:	outs   dx,BYTE PTR ds:[esi]
  40836b:	jae    0x4083e1
  40836d:	popa   
  40836e:	outs   dx,BYTE PTR ds:[esi]
  40836f:	arpl   WORD PTR [ebp+0x41],sp
  408372:	outs   dx,BYTE PTR ds:[esi]
  408373:	fs push ebp
  408375:	outs   dx,BYTE PTR ds:[esi]
  408376:	ja     0x4083ea
  408378:	popa   
  408379:	jo     0x40837b
  40837b:	push   ebp
  40837c:	outs   dx,BYTE PTR ds:[esi]
  40837d:	ins    BYTE PTR es:[edi],dx
  40837e:	outs   dx,DWORD PTR ds:[esi]
  40837f:	popa   
  408380:	add    BYTE PTR fs:[edi+ebp*2+0x53],dl
  408385:	je     0x4083f9
  408387:	imul   ebp,DWORD PTR [esi+0x67],0x74654700
  40838e:	push   esp
  40838f:	jns    0x408401
  408391:	add    BYTE PTR gs:[ebp+0x65],cl
  408395:	ins    DWORD PTR es:[edi],dx
  408396:	bound  esp,QWORD PTR [ebp+0x72]
  408399:	dec    ecx
  40839a:	outs   dx,BYTE PTR ds:[esi]
  40839b:	outs   dx,WORD PTR ds:[esi]
  40839d:	add    BYTE PTR [edi+0x65],ah
  4083a0:	je     0x408401
  4083a2:	dec    esi
  4083a3:	popa   
  4083a4:	ins    DWORD PTR es:[edi],dx
  4083a5:	add    BYTE PTR gs:[ebp+0x6e],al
  4083a9:	jbe    0x408414
  4083ab:	jb     0x40841c
  4083ad:	outs   dx,BYTE PTR ds:[esi]
  4083ae:	ins    DWORD PTR es:[edi],dx
  4083af:	outs   dx,BYTE PTR gs:[esi]
  4083b1:	je     0x4083b3
  4083b3:	addr16 gs je 0x408416
  4083b7:	dec    esi
  4083b8:	gs ja  0x408407
  4083bb:	imul   ebp,DWORD PTR [esi+0x65],0x70704100
  4083c2:	outs   dx,BYTE PTR gs:[esi]
  4083c4:	add    BYTE PTR fs:[ebx+0x74],dl
  4083c8:	jb     0x408433
  4083ca:	outs   dx,BYTE PTR ds:[esi]
  4083cb:	add    BYTE PTR [bx+0x65],ah
  4083cf:	je     0x408430
  4083d1:	dec    ebp
  4083d2:	gs jae 0x408448
  4083d5:	popa   
  4083d6:	add    BYTE PTR gs:[bp+di+0x65],dl
  4083db:	arpl   WORD PTR [ebp+0x72],si
  4083de:	imul   esi,DWORD PTR [ecx+edi*2+0x45],0x70656378
  4083e6:	je     0x408451
  4083e8:	outs   dx,DWORD PTR ds:[esi]
  4083e9:	outs   dx,BYTE PTR ds:[esi]
  4083ea:	add    BYTE PTR [ecx+0x50],cl
  4083ed:	gs jb  0x40845d
  4083f0:	imul   esi,DWORD PTR [ebx+0x73],0x6e6f69
  4083f7:	addr16 gs je 0x40845a
  4083fb:	inc    esi
  4083fc:	imul   esi,DWORD PTR [edx+0x73],0x72655074
  408403:	ins    DWORD PTR es:[edi],dx
  408404:	imul   esi,DWORD PTR [ebx+0x73],0x546e6f69
  40840b:	push   0x61467461
  408410:	imul   ebp,DWORD PTR [ebp+eiz*2+0x64],0x74656700
  408418:	pop    edi
  408419:	inc    esp
  40841a:	gs ins DWORD PTR es:[edi],dx
  40841c:	popa   
  40841d:	outs   dx,BYTE PTR ds:[esi]
  40841e:	fs gs add BYTE PTR fs:[edi+0x65],ah
  408424:	je     0x408485
  408426:	inc    edi
  408427:	jb     0x40848a
  408429:	outs   dx,BYTE PTR ds:[esi]
  40842a:	je     0x408491
  40842c:	fs push ebx
  40842e:	gs je  0x408431
  408431:	dec    ecx
  408432:	jae    0x408482
  408434:	jne    0x4084a2
  408436:	ins    BYTE PTR es:[edi],dx
  408437:	dec    edi
  408438:	jb     0x40847f
  40843a:	ins    DWORD PTR es:[edi],dx
  40843b:	jo     0x4084b1
  40843d:	jns    0x40843f
  40843f:	addr16 gs je 0x4084a2
  408443:	push   eax
  408444:	gs jb  0x4084b4
  408447:	imul   esi,DWORD PTR [edi+ecx*2+0x6e],0x6553796c
  40844f:	je     0x40849a
  408451:	outs   dx,BYTE PTR ds:[esi]
  408452:	jae    0x4084c8
  408454:	popa   
  408455:	outs   dx,BYTE PTR ds:[esi]
  408456:	arpl   WORD PTR [ebp+0x0],sp
  408459:	addr16 gs je 0x4084bc
  40845d:	dec    ecx
  40845e:	outs   dx,BYTE PTR ds:[esi]
  40845f:	outs   dx,BYTE PTR ds:[esi]
  408460:	gs jb  0x4084a8
  408463:	js     0x4084c8
  408465:	gs jo  0x4084dc
  408468:	imul   ebp,DWORD PTR [edi+0x6e],0x73734100
  40846f:	gs ins DWORD PTR es:[edi],dx
  408471:	bound  ebp,QWORD PTR [ecx+edi*2+0x4e]
  408475:	popa   
  408476:	ins    DWORD PTR es:[edi],dx
  408477:	add    BYTE PTR gs:[edi+0x65],al
  40847b:	je     0x4084cb
  40847d:	popa   
  40847e:	ins    DWORD PTR es:[edi],dx
  40847f:	add    BYTE PTR gs:[edi+0x65],al
  408483:	je     0x4084d5
  408485:	jne    0x4084e9
  408487:	ins    BYTE PTR es:[edi],dx
  408488:	imul   esp,DWORD PTR [ebx+0x4b],0x53007965
  40848f:	je     0x408503
  408491:	outs   dx,DWORD PTR ds:[esi]
  408492:	outs   dx,BYTE PTR ds:[esi]
  408493:	addr16 dec esi
  408495:	popa   
  408496:	ins    DWORD PTR es:[edi],dx
  408497:	gs push eax
  408499:	jne    0x4084fd
  40849b:	ins    BYTE PTR es:[edi],dx
  40849c:	imul   esp,DWORD PTR [ebx+0x4b],0x6c427965
  4084a3:	outs   dx,DWORD PTR ds:[esi]
  4084a4:	bound  eax,QWORD PTR [eax]
  4084a6:	push   esi
  4084a7:	gs jb  0x40851d
  4084aa:	imul   ebp,DWORD PTR [edi+0x6e],0x74656700
  4084b1:	pop    edi
  4084b2:	push   esi
  4084b3:	gs jb  0x408529
  4084b6:	imul   ebp,DWORD PTR [edi+0x6e],0x6c6d5800
  4084bd:	push   ebp
  4084be:	jb     0x40852c
  4084c0:	push   edx
  4084c1:	gs jae 0x408533
  4084c4:	ins    BYTE PTR es:[edi],dx
  4084c5:	jbe    0x40852c
  4084c7:	jb     0x4084c9
  4084c9:	push   ebp
  4084ca:	jb     0x408535
  4084cc:	add    BYTE PTR [edx+0x65],dl
  4084cf:	jae    0x408540
  4084d1:	ins    BYTE PTR es:[edi],dx
  4084d2:	jbe    0x408539
  4084d4:	push   ebp
  4084d5:	jb     0x408540
  4084d7:	add    BYTE PTR [edi+0x65],ah
  4084da:	je     0x40853b
  4084dc:	inc    ecx
  4084dd:	bound  esi,QWORD PTR [ebx+0x6f]
  4084e0:	ins    BYTE PTR es:[edi],dx
  4084e1:	jne    0x408557
  4084e3:	gs push ebp
  4084e5:	jb     0x408550
  4084e7:	add    BYTE PTR [edx+0x6f],bl
  4084ea:	outs   dx,BYTE PTR ds:[esi]
  4084eb:	add    BYTE PTR gs:[ebx+0x72],al
  4084ef:	gs popa 
  4084f1:	je     0x408558
  4084f3:	inc    esi
  4084f4:	jb     0x408565
  4084f6:	ins    DWORD PTR es:[edi],dx
  4084f7:	push   ebp
  4084f8:	jb     0x408566
  4084fa:	add    BYTE PTR [ecx+0x64],al
  4084fd:	fs dec eax
  4084ff:	outs   dx,DWORD PTR ds:[esi]
  408500:	jae    0x408576
  408502:	inc    ebp
  408503:	jbe    0x40856e
  408505:	fs outs dx,BYTE PTR gs:[esi]
  408508:	arpl   WORD PTR [ebp+0x0],sp
  40850b:	addr16 gs je 0x40856e
  40850f:	dec    ecx
  408510:	jae    0x408553
  408512:	bound  esi,QWORD PTR [ebx+0x6f]
  408515:	ins    BYTE PTR es:[edi],dx
  408516:	jne    0x40858c
  408518:	gs push ebp
  40851a:	jb     0x408585
  40851c:	add    BYTE PTR [edi+0x65],ah
  40851f:	je     0x408580
  408521:	dec    ecx
  408522:	jae    0x40856a
  408524:	imul   ebp,DWORD PTR [ebp+eiz*2+0x0],0x65746953
  40852c:	add    BYTE PTR [ebx+0x65],dl
  40852f:	arpl   WORD PTR [ebp+0x72],si
  408532:	imul   esi,DWORD PTR [ecx+edi*2+0x4d],0x67616e61
  40853a:	gs jb  0x40853d
  40853d:	inc    edi
  40853e:	gs je  0x408594
  408541:	je     0x4085a4
  408543:	outs   dx,BYTE PTR ds:[esi]
  408544:	fs popa 
  408546:	jb     0x4085ac
  408548:	push   ebx
  408549:	popa   
  40854a:	outs   dx,BYTE PTR ds:[esi]
  40854b:	bound  ebp,QWORD PTR fs:[edi+0x78]
  40854f:	add    BYTE PTR [ecx+0x73],cl
  408552:	push   ebp
  408553:	outs   dx,BYTE PTR ds:[esi]
  408554:	jb     0x4085bb
  408556:	jae    0x4085cc
  408558:	jb     0x4085c3
  40855a:	arpl   WORD PTR [ebp+eiz*2+0x64],si
  40855e:	add    BYTE PTR [edi+0x65],ah
  408561:	je     0x4085c2
  408563:	dec    esp
  408564:	outs   dx,DWORD PTR ds:[esi]
  408565:	arpl   WORD PTR [ecx+0x6c],sp
  408568:	push   eax
  408569:	popa   
  40856a:	je     0x4085d4
  40856c:	add    BYTE PTR [edi+0x65],ah
  40856f:	je     0x4085d0
  408571:	dec    ecx
  408572:	jae    0x4085c9
  408574:	outs   dx,BYTE PTR ds:[esi]
  408575:	arpl   WORD PTR [eax],ax
  408577:	push   ebp
  408578:	jb     0x4085e3
  40857a:	inc    ebx
  40857b:	outs   dx,DWORD PTR ds:[esi]
  40857c:	ins    DWORD PTR es:[edi],dx
  40857d:	jo     0x4085ee
  40857f:	outs   dx,BYTE PTR ds:[esi]
  408580:	outs   dx,BYTE PTR gs:[esi]
  408582:	je     0x4085f7
  408584:	add    BYTE PTR [ebp+0x72],dl
  408587:	imul   eax,DWORD PTR [esi+0x6f],0x74616d72
  40858e:	add    BYTE PTR [edi+0x65],al
  408591:	je     0x4085d6
  408593:	outs   dx,DWORD PTR ds:[esi]
  408594:	ins    DWORD PTR es:[edi],dx
  408595:	jo     0x408606
  408597:	outs   dx,BYTE PTR ds:[esi]
  408598:	outs   dx,BYTE PTR gs:[esi]
  40859a:	je     0x40860f
  40859c:	add    BYTE PTR [edi+0x65],ah
  40859f:	je     0x408600
  4085a1:	push   ebx
  4085a2:	gs ins DWORD PTR es:[di],dx
  4085a5:	outs   dx,BYTE PTR gs:[esi]
  4085a7:	je     0x40861c
  4085a9:	add    BYTE PTR [ebx+0x6f],al
  4085ac:	outs   dx,BYTE PTR ds:[esi]
  4085ad:	arpl   WORD PTR [ecx+0x74],sp
  4085b0:	add    BYTE PTR [esi+0x69],al
  4085b3:	ins    BYTE PTR es:[edi],dx
  4085b4:	gs dec ecx
  4085b6:	dec    edi
  4085b7:	push   eax
  4085b8:	gs jb  0x408628
  4085bb:	imul   esi,DWORD PTR [ebx+0x73],0x6e6f69
  4085c2:	inc    esi
  4085c3:	imul   ebp,DWORD PTR [ebp+eiz*2+0x49],0x7265504f
  4085cb:	ins    DWORD PTR es:[edi],dx
  4085cc:	imul   esi,DWORD PTR [ebx+0x73],0x416e6f69
  4085d3:	arpl   WORD PTR [ebx+0x65],sp
  4085d6:	jae    0x40864b
  4085d8:	add    BYTE PTR [ecx+0x64],al
  4085db:	fs push eax
  4085dd:	gs jb  0x40864d
  4085e0:	imul   esi,DWORD PTR [ebx+0x73],0x6e6f69
  4085e7:	push   edi
  4085e8:	jb     0x408653
  4085ea:	je     0x408651
  4085ec:	dec    esp
  4085ed:	imul   ebp,DWORD PTR [esi+0x65],0x6c735800
  4085f4:	inc    ebx
  4085f5:	outs   dx,DWORD PTR ds:[esi]
  4085f6:	ins    DWORD PTR es:[edi],dx
  4085f7:	jo     0x408662
  4085f9:	ins    BYTE PTR es:[edi],dx
  4085fa:	gs fs push esp
  4085fd:	jb     0x408660
  4085ff:	outs   dx,BYTE PTR ds:[esi]
  408600:	jae    0x408668
  408602:	outs   dx,DWORD PTR ds:[esi]
  408603:	jb     0x408672
  408605:	add    BYTE PTR [ebx+0x74],dl
  408608:	popa   
  408609:	jb     0x40867f
  40860b:	dec    esi
  40860c:	gs ja  0x40860f
  40860f:	outs   dx,DWORD PTR ds:[esi]
  408610:	jo     0x408671
  408612:	inc    ebp
  408613:	jno    0x40868a
  408615:	popa   
  408616:	ins    BYTE PTR es:[edi],dx
  408617:	imul   esi,DWORD PTR [ecx+edi*2+0x0],0x64616f4c
  40861f:	add    BYTE PTR [ebx+0x74],dl
  408622:	outs   dx,DWORD PTR ds:[esi]
  408623:	jo     0x408625
  408625:	outs   dx,DWORD PTR ds:[esi]
  408626:	jo     0x408687
  408628:	dec    ecx
  408629:	outs   dx,BYTE PTR ds:[esi]
  40862a:	gs jno 0x4086a2
  40862d:	popa   
  40862e:	ins    BYTE PTR es:[edi],dx
  40862f:	imul   esi,DWORD PTR [ecx+edi*2+0x0],0x6874654d
  408637:	outs   dx,DWORD PTR ds:[esi]
  408638:	fs dec ecx
  40863a:	outs   dx,BYTE PTR ds:[esi]
  40863b:	outs   dx,WORD PTR ds:[esi]
  40863d:	add    BYTE PTR [edx+0x69],al
  408640:	outs   dx,BYTE PTR ds:[esi]
  408641:	imul   ebp,DWORD PTR fs:[esi+0x67],0x67616c46
  408649:	jae    0x40864b
  40864b:	inc    edi
  40864c:	gs je  0x40869c
  40864f:	gs je  0x4086ba
  408652:	outs   dx,DWORD PTR ds:[esi]
  408653:	fs jae 0x408656
  408656:	dec    ebp
  408657:	gs je  0x4086c2
  40865a:	outs   dx,DWORD PTR ds:[esi]
  40865b:	fs inc edx
  40865d:	popa   
  40865e:	jae    0x4086c5
  408660:	add    BYTE PTR [edx+0x75],dl
  408663:	outs   dx,BYTE PTR ds:[esi]
  408664:	je     0x4086cf
  408666:	ins    DWORD PTR es:[edi],dx
  408667:	gs dec ebp
  408669:	gs je  0x4086d4
  40866c:	outs   dx,DWORD PTR ds:[esi]
  40866d:	fs dec eax
  40866f:	popa   
  408670:	outs   dx,BYTE PTR ds:[esi]
  408671:	fs ins BYTE PTR es:[edi],dx
  408673:	add    BYTE PTR gs:[edi+0x65],ah
  408677:	je     0x4086d8
  408679:	dec    ebp
  40867a:	gs je  0x4086e5
  40867d:	outs   dx,DWORD PTR ds:[esi]
  40867e:	fs dec eax
  408680:	popa   
  408681:	outs   dx,BYTE PTR ds:[esi]
  408682:	fs ins BYTE PTR es:[edi],dx
  408684:	add    BYTE PTR gs:[edx+0x75],dl
  408688:	outs   dx,BYTE PTR ds:[esi]
  408689:	je     0x4086f4
  40868b:	ins    DWORD PTR es:[edi],dx
  40868c:	gs dec eax
  40868e:	gs ins BYTE PTR es:[edi],dx
  408690:	jo     0x4086f7
  408692:	jb     0x408707
  408694:	add    BYTE PTR [eax+0x72],dl
  408697:	gs jo  0x4086fb
  40869a:	jb     0x408701
  40869c:	dec    ebp
  40869d:	gs je  0x408708
  4086a0:	outs   dx,DWORD PTR ds:[esi]
  4086a1:	add    BYTE PTR fs:[edi+0x65],ah
  4086a5:	je     0x408706
  4086a7:	dec    edi
  4086a8:	jne    0x40871e
  4086aa:	jo     0x408721
  4086ac:	je     0x408701
  4086ae:	gs je  0x408725
  4086b1:	imul   ebp,DWORD PTR [esi+0x67],0x72540073
  4086b8:	popa   
  4086b9:	outs   dx,BYTE PTR ds:[esi]
  4086ba:	jae    0x408722
  4086bc:	outs   dx,DWORD PTR ds:[esi]
  4086bd:	jb     0x40872c
  4086bf:	add    BYTE PTR [ecx+0x44],cl
  4086c2:	imul   esi,DWORD PTR [ebx+0x70],0x6261736f
  4086c9:	ins    BYTE PTR es:[edi],dx
  4086ca:	add    BYTE PTR gs:[eax+0x6d],bl
  4086ce:	ins    BYTE PTR es:[edi],dx
  4086cf:	push   edx
  4086d0:	gs popa 
  4086d2:	fs gs jb 0x408729
  4086d6:	gs je  0x40874d
  4086d9:	imul   ebp,DWORD PTR [esi+0x67],0x65730073
  4086e0:	je     0x408741
  4086e2:	pop    eax
  4086e3:	ins    DWORD PTR es:[edi],dx
  4086e4:	ins    BYTE PTR es:[edi],dx
  4086e5:	push   edx
  4086e6:	gs jae 0x408758
  4086e9:	ins    BYTE PTR es:[edi],dx
  4086ea:	jbe    0x408751
  4086ec:	jb     0x4086ee
  4086ee:	inc    esp
  4086ef:	je     0x408755
  4086f1:	push   eax
  4086f2:	jb     0x408763
  4086f4:	arpl   WORD PTR [ebp+0x73],sp
  4086f7:	jae    0x408762
  4086f9:	outs   dx,BYTE PTR ds:[esi]
  4086fa:	add    BYTE PTR [bp+di+0x65],dh
  4086fe:	je     0x40875f
  408700:	inc    esp
  408701:	je     0x408767
  408703:	push   eax
  408704:	jb     0x408775
  408706:	arpl   WORD PTR [ebp+0x73],sp
  408709:	jae    0x408774
  40870b:	outs   dx,BYTE PTR ds:[esi]
  40870c:	add    BYTE PTR [bp+di+0x65],dh
  408710:	je     0x408771
  408712:	inc    ebx
  408713:	ins    BYTE PTR es:[edi],dx
  408714:	outs   dx,DWORD PTR ds:[esi]
  408715:	jae    0x40877c
  408717:	dec    ecx
  408718:	outs   dx,BYTE PTR ds:[esi]
  408719:	jo     0x408790
  40871b:	je     0x40871d
  40871d:	inc    edi
  40871e:	gs je  0x408766
  408721:	outs   dx,BYTE PTR ds:[esi]
  408722:	je     0x40878d
  408724:	je     0x40879f
  408726:	add    BYTE PTR [ebx+0x72],al
  408729:	gs popa 
  40872b:	je     0x408792
  40872d:	add    BYTE PTR [eax+0x72],dl
  408730:	outs   dx,DWORD PTR ds:[esi]
  408731:	arpl   WORD PTR [ebp+0x73],sp
  408734:	jae    0x408736
  408736:	inc    edi
  408737:	gs je  0x40877d
  40873a:	jne    0x4087ae
  40873c:	jb     0x4087a3
  40873e:	outs   dx,BYTE PTR ds:[esi]
  40873f:	je     0x408791
  408741:	jb     0x4087b2
  408743:	arpl   WORD PTR [ebp+0x73],sp
  408746:	jae    0x408748
  408748:	push   eax
  408749:	jb     0x4087ba
  40874b:	arpl   WORD PTR [ebp+0x73],sp
  40874e:	jae    0x40879d
  408750:	outs   dx,DWORD PTR ds:[esi]
  408751:	fs jne 0x4087c0
  408754:	gs inc ebx
  408756:	outs   dx,DWORD PTR ds:[esi]
  408757:	ins    BYTE PTR es:[edi],dx
  408758:	ins    BYTE PTR es:[edi],dx
  408759:	arpl   WORD PTR gs:[ecx+ebp*2+0x6f],si
  40875e:	outs   dx,BYTE PTR ds:[esi]
  40875f:	add    BYTE PTR [edi+0x65],ah
  408762:	je     0x4087c3
  408764:	dec    ebp
  408765:	outs   dx,DWORD PTR ds:[esi]
  408766:	fs jne 0x4087d5
  408769:	gs jae 0x40876c
  40876c:	push   edx
  40876d:	gs popa 
  40876f:	fs dec edi
  408771:	outs   dx,BYTE PTR ds:[esi]
  408772:	ins    BYTE PTR es:[edi],dx
  408773:	jns    0x4087b8
  408775:	outs   dx,DWORD PTR ds:[esi]
  408776:	ins    BYTE PTR es:[edi],dx
  408777:	ins    BYTE PTR es:[edi],dx
  408778:	arpl   WORD PTR gs:[ecx+ebp*2+0x6f],si
  40877d:	outs   dx,BYTE PTR ds:[esi]
  40877e:	inc    edx
  40877f:	popa   
  408780:	jae    0x4087e7
  408782:	add    BYTE PTR [eax+0x72],dl
  408785:	outs   dx,DWORD PTR ds:[esi]
  408786:	arpl   WORD PTR [ebp+0x73],sp
  408789:	jae    0x4087d8
  40878b:	outs   dx,DWORD PTR ds:[esi]
  40878c:	fs jne 0x4087fb
  40878f:	add    BYTE PTR gs:[edi+0x65],ah
  408793:	je     0x4087f4
  408795:	dec    ebp
  408796:	outs   dx,DWORD PTR ds:[esi]
  408797:	fs jne 0x408806
  40879a:	gs dec esi
  40879c:	popa   
  40879d:	ins    DWORD PTR es:[edi],dx
  40879e:	add    BYTE PTR gs:[ebx+0x74],dl
  4087a2:	jb     0x40880d
  4087a4:	outs   dx,BYTE PTR ds:[esi]
  4087a5:	addr16 inc ebx
  4087a7:	outs   dx,DWORD PTR ds:[esi]
  4087a8:	ins    DWORD PTR es:[edi],dx
  4087a9:	jo     0x40880c
  4087ab:	jb     0x408816
  4087ad:	jae    0x40881e
  4087af:	outs   dx,BYTE PTR ds:[esi]
  4087b0:	add    BYTE PTR [ebp+0x71],al
  4087b3:	jne    0x408816
  4087b5:	ins    BYTE PTR es:[edi],dx
  4087b6:	jae    0x4087b8
  4087b8:	addr16 gs je 0x40881b
  4087bc:	inc    ebp
  4087bd:	ins    BYTE PTR es:[edi],dx
  4087be:	popa   
  4087bf:	jo     0x408834
  4087c1:	gs add BYTE PTR fs:[edi+0x65],ah
  4087c6:	je     0x408827
  4087c8:	push   esp
  4087c9:	outs   dx,DWORD PTR ds:[esi]
  4087ca:	je     0x40882d
  4087cc:	ins    BYTE PTR es:[edi],dx
  4087cd:	dec    ebp
  4087ce:	imul   ebp,DWORD PTR [esp+ebp*2+0x69],0x6f636573
  4087d6:	outs   dx,BYTE PTR ds:[esi]
  4087d7:	fs jae 0x4087da
  4087da:	push   ebx
  4087db:	jne    0x40883f
  4087dd:	jae    0x408853
  4087df:	jb     0x40884a
  4087e1:	outs   dx,BYTE PTR ds:[esi]
  4087e2:	add    BYTE PTR [si+0x6f],al
  4087e6:	jne    0x40884a
  4087e8:	ins    BYTE PTR es:[edi],dx
  4087e9:	add    BYTE PTR gs:[ebx+0x65],dh
  4087ed:	je     0x40884e
  4087ef:	inc    ebx
  4087f0:	outs   dx,DWORD PTR ds:[esi]
  4087f1:	fs gs inc edx
  4087f4:	popa   
  4087f5:	jae    0x40885c
  4087f7:	add    BYTE PTR [ecx+ebp*2+0x73],cl
  4087fb:	je     0x40885d
  4087fd:	xor    DWORD PTR [eax],eax
  4087ff:	inc    edi
  408800:	gs je  0x408857
  408803:	jns    0x408875
  408805:	gs jae 0x408808
  408808:	push   ebx
  408809:	je     0x40886c
  40880b:	jb     0x408881
  40880d:	jae    0x408866
  40880f:	imul   esi,DWORD PTR [eax+ebp*2+0x0],0x646441
  408817:	addr16 gs je 0x40887a
  40881b:	dec    ecx
  40881c:	je     0x408883
  40881e:	ins    DWORD PTR es:[edi],dx
  40881f:	add    BYTE PTR [ebp+0x6e],al
  408822:	jne    0x408891
  408824:	gs jb  0x408888
  408827:	je     0x408898
  408829:	jb     0x40882b
  40882b:	addr16 gs je 0x40888e
  40882f:	inc    ebp
  408830:	jb     0x4088a4
  408832:	outs   dx,DWORD PTR ds:[esi]
  408833:	jb     0x408835
  408835:	addr16 gs je 0x408898
  408839:	dec    edi
  40883a:	jne    0x4088b0
  40883c:	add    BYTE PTR [edi+0x65],ah
  40883f:	je     0x4088a0
  408841:	inc    ebx
  408842:	push   0x737261
  408847:	push   edx
  408848:	gs jo  0x4088b7
  40884b:	popa   
  40884c:	arpl   WORD PTR [ebp+0x0],sp
  40884f:	inc    ebp
  408850:	js     0x4088bb
  408852:	je     0x408854
  408854:	dec    ecx
  408855:	outs   dx,BYTE PTR ds:[esi]
  408856:	fs gs js 0x4088a9
  40885a:	data16 add BYTE PTR [ecx+0x64],al
  40885e:	fs push eax
  408860:	popa   
  408861:	jb     0x4088c4
  408863:	ins    DWORD PTR es:[edi],dx
  408864:	add    BYTE PTR [ebx+0x6f],al
  408867:	ins    DWORD PTR es:[edi],dx
  408868:	jo     0x4088cb
  40886a:	jb     0x4088d1
  40886c:	add    BYTE PTR [ebx+0x79],dl
  40886f:	jae    0x4088e5
  408871:	gs ins DWORD PTR es:[edi],dx
  408873:	cs inc ebx
  408875:	outs   dx,DWORD PTR ds:[esi]
  408876:	jb     0x4088dd
  408878:	add    BYTE PTR [ebx+0x79],dl
  40887b:	jae    0x4088f1
  40887d:	gs ins DWORD PTR es:[edi],dx
  40887f:	cs dec ecx
  408881:	dec    edi
  408882:	cs push eax
  408884:	imul   esi,DWORD PTR [eax+0x65],0x6e410073
  40888b:	outs   dx,DWORD PTR ds:[esi]
  40888c:	outs   dx,BYTE PTR ds:[esi]
  40888d:	jns    0x4088fc
  40888f:	outs   dx,DWORD PTR ds:[esi]
  408890:	jne    0x408905
  408892:	push   eax
  408893:	imul   esi,DWORD PTR [eax+0x65],0x65696c43
  40889a:	outs   dx,BYTE PTR ds:[esi]
  40889b:	je     0x4088f0
  40889d:	je     0x408911
  40889f:	gs popa 
  4088a1:	ins    DWORD PTR es:[edi],dx
  4088a2:	add    BYTE PTR [eax+0x69],dl
  4088a5:	jo     0x40890c
  4088a7:	inc    esp
  4088a8:	imul   esi,DWORD PTR [edx+0x65],0x6f697463
  4088af:	outs   dx,BYTE PTR ds:[esi]
  4088b0:	add    BYTE PTR [edi+0x65],ah
  4088b3:	je     0x408914
  4088b5:	dec    edi
  4088b6:	jne    0x40892c
  4088b8:	jo     0x40892f
  4088ba:	je     0x408909
  4088bc:	gs je  0x408927
  4088bf:	outs   dx,DWORD PTR ds:[esi]
  4088c0:	add    BYTE PTR fs:[edi+0x65],ah
  4088c4:	je     0x408925
  4088c6:	inc    ebp
  4088c7:	outs   dx,BYTE PTR ds:[esi]
  4088c8:	arpl   WORD PTR [edi+0x64],bp
  4088cb:	imul   ebp,DWORD PTR [esi+0x67],0x74657300
  4088d2:	pop    edi
  4088d3:	inc    ebx
  4088d4:	ins    BYTE PTR es:[edi],dx
  4088d5:	outs   dx,DWORD PTR ds:[esi]
  4088d6:	jae    0x40893d
  4088d8:	dec    edi
  4088d9:	jne    0x40894f
  4088db:	jo     0x408952
  4088dd:	je     0x4088df
  4088df:	inc    edx
  4088e0:	imul   ebp,DWORD PTR [esi+0x61],0x72577972
  4088e7:	imul   esi,DWORD PTR [ebp+eiz*2+0x72],0x74656700
  4088ef:	pop    edi
  4088f0:	push   edi
  4088f1:	bound  ecx,QWORD PTR gs:[esi+0x61]
  4088f5:	ins    DWORD PTR es:[edi],dx
  4088f6:	add    BYTE PTR gs:[esi+0x6f],cl
  4088fa:	je     0x40894f
  4088fc:	jne    0x40896e
  4088fe:	jo     0x40896f
  408900:	jb     0x408976
  408902:	gs fs inc ebp
  408905:	js     0x40896a
  408907:	gs jo  0x40897e
  40890a:	imul   ebp,DWORD PTR [edi+0x6e],0x74654700
  408911:	inc    edx
  408912:	jne    0x40897a
  408914:	data16 gs jb 0x408918
  408918:	dec    ecx
  408919:	outs   dx,BYTE PTR ds:[esi]
  40891a:	jbe    0x40897d
  40891c:	ins    BYTE PTR es:[edi],dx
  40891d:	imul   esp,DWORD PTR [edi+ecx*2+0x70],0x74617265
  408925:	imul   ebp,DWORD PTR [edi+0x6e],0x65637845
  40892c:	jo     0x4089a2
  40892e:	imul   ebp,DWORD PTR [edi+0x6e],0x74744100
  408935:	jb     0x4089a0
  408937:	bound  esi,QWORD PTR [ebp+0x74]
  40893a:	gs push ebp
  40893c:	jae    0x40899f
  40893e:	addr16 gs inc ecx
  408941:	je     0x4089b7
  408943:	jb     0x4089ae
  408945:	bound  esi,QWORD PTR [ebp+0x74]
  408948:	add    BYTE PTR gs:[ecx+0x74],al
  40894c:	je     0x4089c0
  40894e:	imul   esp,DWORD PTR [edx+0x75],0x61546574
  408955:	jb     0x4089be
  408957:	gs je  0x4089cd
  40895a:	add    BYTE PTR [ebx+0x65],dh
  40895d:	je     0x4089be
  40895f:	inc    esp
  408960:	gs jae 0x4089c6
  408963:	jb     0x4089ce
  408965:	jo     0x4089db
  408967:	imul   ebp,DWORD PTR [edi+0x6e],0x756c6156
  40896e:	add    BYTE PTR gs:[ecx+0x6e],cl
  408972:	je     0x4089d9
  408974:	jb     0x4089e2
  408976:	outs   dx,DWORD PTR ds:[esi]
  408977:	arpl   WORD PTR [ebx+0x65],bp
  40897a:	add    BYTE PTR fs:[ebx+0x6f],al
  40897e:	ins    DWORD PTR es:[edi],dx
  40897f:	jo     0x4089e2
  408981:	jb     0x4089e8
  408983:	inc    ebp
  408984:	js     0x4089e9
  408986:	push   0x65676e61
  40898b:	add    BYTE PTR [edi+0x65],ah
  40898e:	je     0x4089ef
  408990:	inc    ecx
  408991:	jae    0x408a06
  408993:	gs ins DWORD PTR es:[edi],dx
  408995:	bound  ebp,QWORD PTR [ecx+edi*2+0x0]
  408999:	dec    ebp
  40899a:	outs   dx,DWORD PTR ds:[esi]
  40899b:	outs   dx,BYTE PTR ds:[esi]
  40899c:	imul   esi,DWORD PTR [edi+ebp*2+0x72],0x746e4500
  4089a4:	gs jb  0x4089a7
  4089a7:	addr16 gs je 0x408a0a
  4089ab:	inc    ebx
  4089ac:	jne    0x408a20
  4089ae:	jb     0x408a15
  4089b0:	outs   dx,BYTE PTR ds:[esi]
  4089b1:	je     0x4089f6
  4089b3:	jne    0x408a21
  4089b5:	je     0x408a2c
  4089b7:	jb     0x408a1e
  4089b9:	add    BYTE PTR [ecx+0x46],cl
  4089bc:	outs   dx,DWORD PTR ds:[esi]
  4089bd:	jb     0x408a2c
  4089bf:	popa   
  4089c0:	je     0x408a12
  4089c2:	jb     0x408a33
  4089c4:	jbe    0x408a2f
  4089c6:	fs gs jb 0x4089ca
  4089ca:	inc    esi
  4089cb:	outs   dx,DWORD PTR ds:[esi]
  4089cc:	jb     0x408a3b
  4089ce:	popa   
  4089cf:	je     0x4089d1
  4089d1:	arpl   WORD PTR cs:[ebx+0x74],sp
  4089d5:	outs   dx,DWORD PTR ds:[esi]
  4089d6:	jb     0x4089d8
  4089d8:	inc    ebp
  4089d9:	ins    DWORD PTR es:[edi],dx
  4089da:	jo     0x408a50
  4089dc:	jns    0x4089de
  4089de:	dec    esp
  4089df:	popa   
  4089e0:	jae    0x408a56
  4089e2:	dec    ecx
  4089e3:	outs   dx,BYTE PTR ds:[esi]
  4089e4:	fs gs js 0x408a37
  4089e8:	data16 add BYTE PTR [ebx+0x68],al
  4089ec:	popa   
  4089ed:	jb     0x4089ef
  4089ef:	push   ebx
  4089f0:	jo     0x408a5e
  4089f2:	imul   esi,DWORD PTR [eax+eax*1+0x44],0x67756265
  4089fa:	inc    edi
  4089fb:	gs je  0x408a45
  4089fe:	ins    BYTE PTR es:[edi],dx
  4089ff:	outs   dx,DWORD PTR ds:[esi]
  408a00:	bound  esp,QWORD PTR [ecx+0x6c]
  408a03:	dec    esi
  408a04:	popa   
  408a05:	ins    DWORD PTR es:[edi],dx
  408a06:	gs jae 0x408a09
  408a09:	inc    esp
  408a0a:	bound  esi,QWORD PTR gs:[ebp+0x67]
  408a0e:	inc    edi
  408a0f:	gs je  0x408a59
  408a12:	ins    BYTE PTR es:[edi],dx
  408a13:	outs   dx,DWORD PTR ds:[esi]
  408a14:	bound  esp,QWORD PTR [ecx+0x6c]
  408a17:	push   esi
  408a18:	popa   
  408a19:	ins    BYTE PTR es:[edi],dx
  408a1a:	jne    0x408a81
  408a1c:	add    BYTE PTR [ebp+eiz*2+0x62],al
  408a20:	jne    0x408a89
  408a22:	inc    edi
  408a23:	gs je  0x408a7e
  408a26:	jae    0x408a94
  408a28:	je     0x408a80
  408a2a:	popa   
  408a2b:	ins    BYTE PTR es:[edi],dx
  408a2c:	jne    0x408a93
  408a2e:	add    BYTE PTR [ecx+0x6e],cl
  408a31:	je     0x408a66
  408a33:	xor    al,BYTE PTR [eax]
  408a35:	dec    ecx
  408a36:	inc    ebx
  408a37:	outs   dx,DWORD PTR ds:[esi]
  408a38:	ins    BYTE PTR es:[edi],dx
  408a39:	ins    BYTE PTR es:[edi],dx
  408a3a:	arpl   WORD PTR gs:[ecx+ebp*2+0x6f],si
  408a3f:	outs   dx,BYTE PTR ds:[esi]
  408a40:	add    BYTE PTR [edx+0x6f],cl
  408a43:	imul   ebp,DWORD PTR [esi+0x0],0x74615058
  408a4a:	push   0x6d657449
  408a4f:	add    BYTE PTR [edi+0x65],ah
  408a52:	je     0x408ab3
  408a54:	dec    ecx
  408a55:	jae    0x408aa5
  408a57:	outs   dx,DWORD PTR ds:[esi]
  408a58:	fs add BYTE PTR gs:[ebx+0x79],dl
  408a5d:	jae    0x408ad3
  408a5f:	gs ins DWORD PTR es:[edi],dx
  408a61:	cs pop eax
  408a63:	ins    DWORD PTR es:[edi],dx
  408a64:	ins    BYTE PTR es:[edi],dx
  408a65:	cs push ebx
  408a67:	arpl   WORD PTR [eax+0x65],bp
  408a6a:	ins    DWORD PTR es:[edi],dx
  408a6b:	popa   
  408a6c:	add    BYTE PTR [eax+0x6d],bl
  408a6f:	ins    BYTE PTR es:[edi],dx
  408a70:	push   ebx
  408a71:	arpl   WORD PTR [eax+0x65],bp
  408a74:	ins    DWORD PTR es:[edi],dx
  408a75:	popa   
  408a76:	push   esp
  408a77:	jns    0x408ae9
  408a79:	add    BYTE PTR gs:[edi+0x65],ah
  408a7d:	je     0x408ade
  408a7f:	pop    eax
  408a80:	ins    DWORD PTR es:[edi],dx
  408a81:	ins    BYTE PTR es:[edi],dx
  408a82:	push   esp
  408a83:	jns    0x408af5
  408a85:	add    BYTE PTR gs:[eax+0x6d],bl
  408a89:	ins    BYTE PTR es:[edi],dx
  408a8a:	push   esp
  408a8b:	jns    0x408afd
  408a8d:	gs inc ebx
  408a8f:	outs   dx,DWORD PTR ds:[esi]
  408a90:	fs add BYTE PTR gs:[edi+0x65],ah
  408a95:	je     0x408af6
  408a97:	push   esp
  408a98:	jns    0x408b0a
  408a9a:	gs inc ebx
  408a9c:	outs   dx,DWORD PTR ds:[esi]
  408a9d:	fs add BYTE PTR gs:[edi+0x65],ah
  408aa2:	je     0x408b03
  408aa4:	push   esi
  408aa5:	popa   
  408aa6:	ins    BYTE PTR es:[edi],dx
  408aa7:	jne    0x408b0e
  408aa9:	inc    ecx
  408aaa:	jae    0x408af0
  408aac:	outs   dx,DWORD PTR ds:[esi]
  408aad:	jne    0x408b11
  408aaf:	ins    BYTE PTR es:[edi],dx
  408ab0:	add    BYTE PTR gs:[edi+0x65],ah
  408ab4:	je     0x408b15
  408ab6:	push   esi
  408ab7:	popa   
  408ab8:	ins    BYTE PTR es:[edi],dx
  408ab9:	jne    0x408b20
  408abb:	inc    ecx
  408abc:	jae    0x408b07
  408abe:	outs   dx,BYTE PTR ds:[esi]
  408abf:	je     0x408ac1
  408ac1:	addr16 gs je 0x408b24
  408ac5:	push   esi
  408ac6:	popa   
  408ac7:	ins    BYTE PTR es:[edi],dx
  408ac8:	jne    0x408b2f
  408aca:	inc    ecx
  408acb:	jae    0x408b0f
  408acd:	outs   dx,DWORD PTR ds:[esi]
  408ace:	outs   dx,DWORD PTR ds:[esi]
  408acf:	ins    BYTE PTR es:[edi],dx
  408ad0:	gs popa 
  408ad2:	outs   dx,BYTE PTR ds:[esi]
  408ad3:	add    BYTE PTR [edx+0x6f],al
  408ad6:	outs   dx,DWORD PTR ds:[esi]
  408ad7:	ins    BYTE PTR es:[edi],dx
  408ad8:	gs popa 
  408ada:	outs   dx,BYTE PTR ds:[esi]
  408adb:	add    BYTE PTR [edi+0x65],ah
  408ade:	je     0x408b3f
  408ae0:	push   esi
  408ae1:	popa   
  408ae2:	ins    BYTE PTR es:[edi],dx
  408ae3:	jne    0x408b4a
  408ae5:	add    BYTE PTR [eax+0x50],bl
  408ae8:	popa   
  408ae9:	je     0x408b53
  408aeb:	dec    esi
  408aec:	outs   dx,DWORD PTR ds:[esi]
  408aed:	fs gs push esp
  408af0:	jns    0x408b62
  408af2:	add    BYTE PTR gs:[edi+0x65],ah
  408af6:	je     0x408b57
  408af8:	dec    esi
  408af9:	outs   dx,DWORD PTR ds:[esi]
  408afa:	fs gs push esp
  408afd:	jns    0x408b6f
  408aff:	add    BYTE PTR gs:[ebp+0x6f],cl
  408b03:	jbe    0x408b6a
  408b05:	push   esp
  408b06:	outs   dx,DWORD PTR ds:[esi]
  408b07:	push   eax
  408b08:	popa   
  408b09:	jb     0x408b70
  408b0b:	outs   dx,BYTE PTR ds:[esi]
  408b0c:	je     0x408b0e
  408b0e:	pop    eax
  408b0f:	push   eax
  408b10:	popa   
  408b11:	je     0x408b7b
  408b13:	dec    esi
  408b14:	popa   
  408b15:	ins    DWORD PTR es:[edi],dx
  408b16:	gs jae 0x408b89
  408b19:	popa   
  408b1a:	arpl   WORD PTR [ebp+0x53],sp
  408b1d:	arpl   WORD PTR [edi+0x70],bp
  408b20:	add    BYTE PTR gs:[ebp+0x6f],cl
  408b24:	jbe    0x408b8b
  408b26:	push   esp
  408b27:	outs   dx,DWORD PTR ds:[esi]
  408b28:	inc    esi
  408b29:	imul   esi,DWORD PTR [edx+0x73],0x6d614e74
  408b30:	gs jae 0x408ba3
  408b33:	popa   
  408b34:	arpl   WORD PTR [ebp+0x0],sp
  408b37:	dec    ebp
  408b38:	outs   dx,DWORD PTR ds:[esi]
  408b39:	jbe    0x408ba0
  408b3b:	push   esp
  408b3c:	outs   dx,DWORD PTR ds:[esi]
  408b3d:	dec    esi
  408b3e:	gs js  0x408bb5
  408b41:	dec    esi
  408b42:	popa   
  408b43:	ins    DWORD PTR es:[edi],dx
  408b44:	gs jae 0x408bb7
  408b47:	popa   
  408b48:	arpl   WORD PTR [ebp+0x0],sp
  408b4b:	dec    ecx
  408b4c:	pop    eax
  408b4d:	ins    DWORD PTR es:[edi],dx
  408b4e:	ins    BYTE PTR es:[edi],dx
  408b4f:	dec    esp
  408b50:	imul   ebp,DWORD PTR [esi+0x65],0x6f666e49
  408b57:	add    BYTE PTR [eax+0x61],cl
  408b5a:	jae    0x408ba8
  408b5c:	imul   ebp,DWORD PTR [esi+0x65],0x6f666e49
  408b63:	add    BYTE PTR [edi+0x65],ah
  408b66:	je     0x408bc7
  408b68:	inc    edx
  408b69:	popa   
  408b6a:	jae    0x408bd1
  408b6c:	push   ebp
  408b6d:	push   edx
  408b6e:	dec    ecx
  408b6f:	add    BYTE PTR [edi+0x65],ah
  408b72:	je     0x408bd3
  408b74:	dec    esp
  408b75:	imul   ebp,DWORD PTR [esi+0x65],0x626d754e
  408b7c:	gs jb  0x408b7f
  408b7f:	addr16 gs je 0x408be2
  408b83:	dec    ecx
  408b84:	outs   dx,BYTE PTR ds:[esi]
  408b85:	jbe    0x408be8
  408b87:	jb     0x408bf2
  408b89:	popa   
  408b8a:	outs   dx,BYTE PTR ds:[esi]
  408b8b:	je     0x408bd0
  408b8d:	jne    0x408bfb
  408b8f:	je     0x408c06
  408b91:	jb     0x408bf8
  408b93:	add    BYTE PTR [edi+0x65],ah
  408b96:	je     0x408bf7
  408b98:	dec    esp
  408b99:	imul   ebp,DWORD PTR [esi+0x65],0x69736f50
  408ba0:	je     0x408c0b
  408ba2:	outs   dx,DWORD PTR ds:[esi]
  408ba3:	outs   dx,BYTE PTR ds:[esi]
  408ba4:	add    BYTE PTR [eax+0x50],bl
  408ba7:	popa   
  408ba8:	je     0x408c12
  408baa:	inc    ebp
  408bab:	js     0x408c1d
  408bad:	jb     0x408c14
  408baf:	jae    0x408c24
  408bb1:	imul   ebp,DWORD PTR [edi+0x6e],0x6d6f4300
  408bb8:	jo     0x408c23
  408bba:	ins    BYTE PTR es:[edi],dx
  408bbb:	add    BYTE PTR gs:[eax+0x6d],bl
  408bbf:	ins    BYTE PTR es:[edi],dx
  408bc0:	dec    esi
  408bc1:	popa   
  408bc2:	ins    DWORD PTR es:[edi],dx
  408bc3:	gs jae 0x408c36
  408bc6:	popa   
  408bc7:	arpl   WORD PTR [ebp+0x4d],sp
  408bca:	popa   
  408bcb:	outs   dx,BYTE PTR ds:[esi]
  408bcc:	popa   
  408bcd:	addr16 gs jb 0x408bd1
  408bd1:	push   ebx
  408bd2:	gs je  0x408c18
  408bd5:	outs   dx,DWORD PTR ds:[esi]
  408bd6:	outs   dx,BYTE PTR ds:[esi]
  408bd7:	je     0x408c3e
  408bd9:	js     0x408c4f
  408bdb:	add    BYTE PTR [ecx+0x72],al
  408bde:	jb     0x408c41
  408be0:	jns    0x408c2e
  408be2:	imul   esi,DWORD PTR [ebx+0x74],0x61505800
  408be9:	je     0x408c53
  408beb:	inc    ebp
  408bec:	js     0x408c51
  408bee:	gs jo  0x408c65
  408bf1:	imul   ebp,DWORD PTR [edi+0x6e],0x67724100
  408bf8:	jne    0x408c67
  408bfa:	outs   dx,BYTE PTR gs:[esi]
  408bfc:	je     0x408c43
  408bfe:	js     0x408c63
  408c00:	gs jo  0x408c77
  408c03:	imul   ebp,DWORD PTR [edi+0x6e],0x74656700
  408c0a:	pop    edi
  408c0b:	push   esp
  408c0c:	jns    0x408c7e
  408c0e:	gs fs push esi
  408c11:	popa   
  408c12:	ins    BYTE PTR es:[edi],dx
  408c13:	jne    0x408c7a
  408c15:	add    BYTE PTR [eax+0x6d],bl
  408c18:	ins    BYTE PTR es:[edi],dx
  408c19:	push   ebx
  408c1a:	arpl   WORD PTR [eax+0x65],bp
  408c1d:	ins    DWORD PTR es:[edi],dx
  408c1e:	popa   
  408c1f:	push   ebx
  408c20:	imul   ebp,DWORD PTR [ebp+0x70],0x7954656c
  408c27:	jo     0x408c8e
  408c29:	add    BYTE PTR [edi+0x65],al
  408c2c:	je     0x408c70
  408c2e:	jne    0x408c99
  408c30:	ins    BYTE PTR es:[edi],dx
  408c31:	je     0x408c7c
  408c33:	outs   dx,BYTE PTR ds:[esi]
  408c34:	push   ebx
  408c35:	imul   ebp,DWORD PTR [ebp+0x70],0x7954656c
  408c3c:	jo     0x408ca3
  408c3e:	add    BYTE PTR [eax+0x6d],bl
  408c41:	ins    BYTE PTR es:[edi],dx
  408c42:	push   ebx
  408c43:	arpl   WORD PTR [eax+0x65],bp
  408c46:	ins    DWORD PTR es:[edi],dx
  408c47:	popa   
  408c48:	inc    esp
  408c49:	popa   
  408c4a:	je     0x408cad
  408c4c:	je     0x408cc7
  408c4e:	jo     0x408cb5
  408c50:	add    BYTE PTR [edi+0x65],ah
  408c53:	je     0x408cb4
  408c55:	inc    esp
  408c56:	popa   
  408c57:	je     0x408cba
  408c59:	je     0x408cd4
  408c5b:	jo     0x408cc2
  408c5d:	add    BYTE PTR [eax+0x6d],bl
  408c60:	ins    BYTE PTR es:[edi],dx
  408c61:	inc    ecx
  408c62:	je     0x408cd3
  408c64:	ins    DWORD PTR es:[edi],dx
  408c65:	imul   esp,DWORD PTR [ebx+0x56],0x65756c61
  408c6c:	add    BYTE PTR [ebx+0x68],al
  408c6f:	popa   
  408c70:	outs   dx,BYTE PTR ds:[esi]
  408c71:	addr16 gs push esp
  408c74:	jns    0x408ce6
  408c76:	add    BYTE PTR gs:[edi+0x65],al
  408c7a:	je     0x408cc9
  408c7c:	gs je  0x408ce7
  408c7f:	outs   dx,DWORD PTR ds:[esi]
  408c80:	add    BYTE PTR fs:[ecx+0x6e],cl
  408c84:	jbe    0x408cf5
  408c86:	imul   esp,DWORD PTR [ebp+0x0],0x4d
  408c8a:	outs   dx,DWORD PTR ds:[esi]
  408c8b:	jbe    0x408cf2
  408c8d:	push   esp
  408c8e:	outs   dx,DWORD PTR ds:[esi]
  408c8f:	inc    esi
  408c90:	imul   esi,DWORD PTR [edx+0x73],0x74744174
  408c97:	jb     0x408d02
  408c99:	bound  esi,QWORD PTR [ebp+0x74]
  408c9c:	add    BYTE PTR gs:[ebp+0x6f],cl
  408ca0:	jbe    0x408d07
  408ca2:	push   esp
  408ca3:	outs   dx,DWORD PTR ds:[esi]
  408ca4:	dec    esi
  408ca5:	gs js  0x408d1c
  408ca8:	inc    ecx
  408ca9:	je     0x408d1f
  408cab:	jb     0x408d16
  408cad:	bound  esi,QWORD PTR [ebp+0x74]
  408cb0:	add    BYTE PTR gs:[ebp+0x6f],cl
  408cb4:	jbe    0x408d1b
  408cb6:	push   esp
  408cb7:	outs   dx,DWORD PTR ds:[esi]
  408cb8:	inc    esi
  408cb9:	imul   esi,DWORD PTR [edx+0x73],0x69684374
  408cc0:	ins    BYTE PTR es:[edi],dx
  408cc1:	add    BYTE PTR fs:[ebp+0x6f],cl
  408cc5:	jbe    0x408d2c
  408cc7:	push   esp
  408cc8:	outs   dx,DWORD PTR ds:[esi]
  408cc9:	dec    esi
  408cca:	gs js  0x408d41
  408ccd:	add    BYTE PTR [edi+ebp*2+0x41],dl
  408cd1:	jb     0x408d45
  408cd3:	popa   
  408cd4:	jns    0x408cd6
  408cd6:	dec    esi
  408cd7:	jne    0x408d46
  408cd9:	bound  esp,QWORD PTR [ebp+0x72]
  408cdc:	inc    esi
  408cdd:	outs   dx,DWORD PTR ds:[esi]
  408cde:	jb     0x408d4d
  408ce0:	popa   
  408ce1:	je     0x408d2c
  408ce3:	outs   dx,BYTE PTR ds:[esi]
  408ce4:	outs   dx,WORD PTR ds:[esi]
  408ce6:	add    BYTE PTR [edi+0x65],ah
  408ce9:	je     0x408d4a
  408ceb:	dec    ecx
  408cec:	outs   dx,BYTE PTR ds:[esi]
  408ced:	jbe    0x408d50
  408cef:	jb     0x408d5a
  408cf1:	popa   
  408cf2:	outs   dx,BYTE PTR ds:[esi]
  408cf3:	je     0x408d3e
  408cf5:	outs   dx,BYTE PTR ds:[esi]
  408cf6:	outs   dx,WORD PTR ds:[esi]
  408cf8:	add    BYTE PTR [eax+0x6d],bl
  408cfb:	ins    BYTE PTR es:[edi],dx
  408cfc:	inc    ebx
  408cfd:	outs   dx,DWORD PTR ds:[esi]
  408cfe:	outs   dx,BYTE PTR ds:[esi]
  408cff:	jbe    0x408d66
  408d01:	jb     0x408d77
  408d03:	add    BYTE PTR [edi+ebp*2+0x44],dl
  408d07:	outs   dx,DWORD PTR ds:[esi]
  408d08:	jne    0x408d6c
  408d0a:	ins    BYTE PTR es:[edi],dx
  408d0b:	add    BYTE PTR gs:[ebx+0x6f],al
  408d0f:	outs   dx,BYTE PTR ds:[esi]
  408d10:	jbe    0x408d77
  408d12:	jb     0x408d88
  408d14:	add    BYTE PTR [ecx+0x73],cl
  408d17:	dec    esi
  408d18:	popa   
  408d19:	dec    esi
  408d1a:	add    BYTE PTR [ecx+0x45],cl
  408d1d:	outs   dx,BYTE PTR ds:[esi]
  408d1e:	jne    0x408d8d
  408d20:	gs jb  0x408d84
  408d23:	bound  ebp,QWORD PTR [ebp+eiz*2+0x0]
  408d27:	inc    ebx
  408d28:	ins    BYTE PTR es:[edi],dx
  408d29:	gs popa 
  408d2b:	jb     0x408d2d
  408d2d:	push   esp
  408d2e:	jb     0x408da9
  408d30:	inc    edi
  408d31:	gs je  0x408d8a
  408d34:	popa   
  408d35:	ins    BYTE PTR es:[edi],dx
  408d36:	jne    0x408d9d
  408d38:	add    BYTE PTR [ebx+0x6f],al
  408d3b:	outs   dx,BYTE PTR ds:[esi]
  408d3c:	je     0x408d9f
  408d3e:	imul   ebp,DWORD PTR [esi+0x73],0x79654b
  408d45:	inc    esp
  408d46:	ins    BYTE PTR es:[edi],dx
  408d47:	ins    BYTE PTR es:[edi],dx
  408d48:	dec    ecx
  408d49:	ins    DWORD PTR es:[edi],dx
  408d4a:	jo     0x408dbb
  408d4c:	jb     0x408dc2
  408d4e:	inc    ecx
  408d4f:	je     0x408dc5
  408d51:	jb     0x408dbc
  408d53:	bound  esi,QWORD PTR [ebp+0x74]
  408d56:	add    BYTE PTR gs:[ebp+0x72],dh
  408d5a:	ins    BYTE PTR es:[edi],dx
  408d5b:	ins    DWORD PTR es:[edi],dx
  408d5c:	outs   dx,DWORD PTR ds:[esi]
  408d5d:	outs   dx,BYTE PTR ds:[esi]
  408d5e:	cs fs ins BYTE PTR es:[edi],dx
  408d61:	ins    BYTE PTR es:[edi],dx
  408d62:	add    BYTE PTR [ebx+0x68],dh
  408d65:	gs ins BYTE PTR es:[edi],dx
  408d67:	ins    BYTE PTR es:[edi],dx
  408d68:	xor    esi,DWORD PTR [edx]
  408d6a:	cs fs ins BYTE PTR es:[edi],dx
  408d6d:	ins    BYTE PTR es:[edi],dx
  408d6e:	add    BYTE PTR [ebx+0x65],ch
  408d71:	jb     0x408de1
  408d73:	gs ins BYTE PTR es:[edi],dx
  408d75:	xor    esi,DWORD PTR [edx]
  408d77:	cs fs ins BYTE PTR es:[edi],dx
  408d7a:	ins    BYTE PTR es:[edi],dx
  408d7b:	add    BYTE PTR [ebp+0x69],cl
  408d7e:	arpl   WORD PTR [edx+0x6f],si
  408d81:	jae    0x408df2
  408d83:	data16 je 0x408db4
  408d86:	pop    eax
  408d87:	jae    0x408df5
  408d89:	inc    esp
  408d8a:	bound  esi,QWORD PTR gs:[ebp+0x67]
  408d8e:	addr16 gs jb 0x408dc0
  408d92:	dec    eax
  408d93:	outs   dx,DWORD PTR ds:[esi]
  408d94:	jae    0x408e0a
  408d96:	cs jb  0x408dfe
  408d99:	jae    0x408e0a
  408d9b:	jne    0x408e0f
  408d9d:	arpl   WORD PTR [ebp+0x73],sp
  408da0:	add    BYTE PTR [eax],al
  408da2:	add    BYTE PTR [eax],al
  408da4:	add    BYTE PTR [ecx],cl
  408da6:	dec    eax
  408da7:	add    BYTE PTR [edi+0x0],ch
  408daa:	jae    0x408dac
  408dac:	je     0x408dae
  408dae:	add    BYTE PTR [ecx],ch
  408db0:	pop    eax
  408db1:	add    BYTE PTR [ebx+0x0],dh
  408db4:	ins    BYTE PTR es:[edi],dx
  408db5:	add    BYTE PTR [ebx+0x0],dl
  408db8:	add    BYTE PTR gs:[ebx+0x0],ah
  408dbc:	jne    0x408dbe
  408dbe:	jb     0x408dc0
  408dc0:	imul   eax,DWORD PTR [eax],0x790074
  408dc6:	inc    ebp
  408dc7:	add    BYTE PTR [eax+0x0],bh
  408dca:	arpl   WORD PTR [eax],ax
  408dcc:	add    BYTE PTR gs:[eax+0x0],dh
  408dd0:	je     0x408dd2
  408dd2:	imul   eax,DWORD PTR [eax],0x6e006f
  408dd8:	add    BYTE PTR [ebx],dh
  408dda:	inc    esi
  408ddb:	add    BYTE PTR [ecx+0x0],ch
  408dde:	jb     0x408de0
  408de0:	jae    0x408de2
  408de2:	je     0x408de4
  408de4:	push   eax
  408de5:	add    BYTE PTR [ebp+0x0],ah
  408de8:	jb     0x408dea
  408dea:	ins    DWORD PTR es:[edi],dx
  408deb:	add    BYTE PTR [ecx+0x0],ch
  408dee:	jae    0x408df0
  408df0:	jae    0x408df2
  408df2:	imul   eax,DWORD PTR [eax],0x6e006f
  408df8:	push   esp
  408df9:	add    BYTE PTR [eax+0x0],ch
  408dfc:	popa   
  408dfd:	add    BYTE PTR [eax+eax*1+0x46],dh
  408e01:	add    BYTE PTR [ecx+0x0],ah
  408e04:	imul   eax,DWORD PTR [eax],0x65006c
  408e0a:	add    BYTE PTR fs:[eax],al
  408e0d:	adc    DWORD PTR [eax+eax*1+0x65],eax
  408e11:	add    BYTE PTR [ebp+0x0],ch
  408e14:	popa   
  408e15:	add    BYTE PTR [esi+0x0],ch
  408e18:	add    BYTE PTR fs:[ebp+0x0],ah
  408e1c:	add    BYTE PTR fs:[eax],al
  408e1f:	adc    eax,0x720047
  408e24:	popa   
  408e25:	add    BYTE PTR [esi+0x0],ch
  408e28:	je     0x408e2a
  408e2a:	add    BYTE PTR gs:[eax+eax*1+0x53],ah
  408e2f:	add    BYTE PTR [ebp+0x0],ah
  408e32:	je     0x408e34
  408e34:	add    BYTE PTR [ebx],bl
  408e36:	push   eax
  408e37:	add    BYTE PTR [ebp+0x0],ah
  408e3a:	jb     0x408e3c
  408e3c:	ins    DWORD PTR es:[edi],dx
  408e3d:	add    BYTE PTR [ecx+0x0],ch
  408e40:	je     0x408e42
  408e42:	dec    edi
  408e43:	add    BYTE PTR [esi+0x0],ch
  408e46:	ins    BYTE PTR es:[edi],dx
  408e47:	add    BYTE PTR [ecx+0x0],bh
  408e4a:	push   ebx
  408e4b:	add    BYTE PTR [ebp+0x0],ah
  408e4e:	je     0x408e50
  408e50:	add    BYTE PTR [ecx],dl
  408e52:	dec    esp
  408e53:	add    BYTE PTR [edi+0x0],ch
  408e56:	popa   
  408e57:	add    BYTE PTR [eax+eax*1+0x54],ah
  408e5b:	add    BYTE PTR [ecx+0x0],ch
  408e5e:	ins    DWORD PTR es:[edi],dx
  408e5f:	add    BYTE PTR [ebp+0x0],ah
  408e62:	add    BYTE PTR [edi],cl
  408e64:	dec    edx
  408e65:	add    BYTE PTR [ecx+0x0],ch
  408e68:	je     0x408e6a
  408e6a:	push   esp
  408e6b:	add    BYTE PTR [ecx+0x0],ch
  408e6e:	ins    DWORD PTR es:[edi],dx
  408e6f:	add    BYTE PTR [ebp+0x0],ah
  408e72:	add    BYTE PTR [ebx],bl
  408e74:	inc    ebp
  408e75:	add    BYTE PTR [eax+0x0],bh
  408e78:	add    BYTE PTR gs:[ebx+0x0],ah
  408e7c:	jne    0x408e7e
  408e7e:	je     0x408e80
  408e80:	imul   eax,DWORD PTR [eax],0x6e006f
  408e86:	push   esp
  408e87:	add    BYTE PTR [ecx+0x0],ch
  408e8a:	ins    DWORD PTR es:[edi],dx
  408e8b:	add    BYTE PTR [ebp+0x0],ah
  408e8e:	add    BYTE PTR [eax+0x7900539b],al
  408e94:	add    BYTE PTR [ebx+0x0],dh
  408e97:	je     0x408e99
  408e99:	add    BYTE PTR gs:[ebp+0x0],ch
  408e9d:	add    BYTE PTR cs:[eax+0x0],bl
  408ea1:	ins    DWORD PTR es:[edi],dx
  408ea2:	add    BYTE PTR [eax+eax*1+0x2c],ch
  408ea6:	add    BYTE PTR [eax],ah
  408ea8:	add    BYTE PTR [esi+0x0],dl
  408eab:	add    BYTE PTR gs:[edx+0x0],dh
  408eaf:	jae    0x408eb1
  408eb1:	imul   eax,DWORD PTR [eax],0x6e006f
  408eb7:	cmp    eax,0x2e003400
  408ebc:	add    BYTE PTR [eax],dh
  408ebe:	add    BYTE PTR [esi],ch
  408ec0:	add    BYTE PTR [eax],dh
  408ec2:	add    BYTE PTR [esi],ch
  408ec4:	add    BYTE PTR [eax],dh
  408ec6:	add    BYTE PTR [eax+eax*1],ch
  408ec9:	and    BYTE PTR [eax],al
  408ecb:	inc    ebx
  408ecc:	add    BYTE PTR [ebp+0x0],dh
  408ecf:	ins    BYTE PTR es:[edi],dx
  408ed0:	add    BYTE PTR [eax+eax*1+0x75],dh
  408ed4:	add    BYTE PTR [edx+0x0],dh
  408ed7:	add    BYTE PTR gs:0x65006e00,bh
  408ede:	add    BYTE PTR [ebp+0x0],dh
  408ee1:	je     0x408ee3
  408ee3:	jb     0x408ee5
  408ee5:	popa   
  408ee6:	add    BYTE PTR [eax+eax*1+0x2c],ch
  408eea:	add    BYTE PTR [eax],ah
  408eec:	add    BYTE PTR [eax+0x0],dl
  408eef:	jne    0x408ef1
  408ef1:	bound  eax,QWORD PTR [eax]
  408ef3:	ins    BYTE PTR es:[edi],dx
  408ef4:	add    BYTE PTR [ecx+0x0],ch
  408ef7:	arpl   WORD PTR [eax],ax
  408ef9:	dec    ebx
  408efa:	add    BYTE PTR [ebp+0x0],ah
  408efd:	jns    0x408eff
  408eff:	push   esp
  408f00:	add    BYTE PTR [edi+0x0],ch
  408f03:	imul   eax,DWORD PTR [eax],0x65
  408f06:	add    BYTE PTR [esi+0x0],ch
  408f09:	cmp    eax,0x37006200
  408f0e:	add    BYTE PTR [edi],dh
  408f10:	add    BYTE PTR [ecx+0x0],ah
  408f13:	xor    eax,0x35006300
  408f18:	add    BYTE PTR [esi],dh
  408f1a:	add    BYTE PTR [ecx],dh
  408f1c:	add    BYTE PTR [ecx],bh
  408f1e:	add    BYTE PTR [ebx],dh
  408f20:	add    BYTE PTR [eax+eax*1],dh
  408f23:	add    BYTE PTR gs:[eax],dh
  408f26:	add    BYTE PTR [eax],bh
  408f28:	add    BYTE PTR [ecx],bh
  408f2a:	add    BYTE PTR [eax],al
  408f2c:	sub    BYTE PTR [ebx+0x790053],0x73
  408f33:	add    BYTE PTR [eax+eax*1+0x65],dh
  408f37:	add    BYTE PTR [ebp+0x0],ch
  408f3a:	add    BYTE PTR cs:[eax+eax*1+0x61],al
  408f3f:	add    BYTE PTR [eax+eax*1+0x61],dh
  408f43:	add    BYTE PTR [esi],ch
  408f45:	add    BYTE PTR [ebx+0x0],dl
  408f48:	jno    0x408f4a
  408f4a:	ins    BYTE PTR es:[edi],dx
  408f4b:	add    BYTE PTR [eax+0x0],bl
  408f4e:	ins    DWORD PTR es:[edi],dx
  408f4f:	add    BYTE PTR [eax+eax*1+0x2c],ch
  408f53:	add    BYTE PTR [eax],ah
  408f55:	add    BYTE PTR [esi+0x0],dl
  408f58:	add    BYTE PTR gs:[edx+0x0],dh
  408f5c:	jae    0x408f5e
  408f5e:	imul   eax,DWORD PTR [eax],0x6e006f
  408f64:	cmp    eax,0x2e003400
  408f69:	add    BYTE PTR [eax],dh
  408f6b:	add    BYTE PTR [esi],ch
  408f6d:	add    BYTE PTR [eax],dh
  408f6f:	add    BYTE PTR [esi],ch
  408f71:	add    BYTE PTR [eax],dh
  408f73:	add    BYTE PTR [eax+eax*1],ch
  408f76:	and    BYTE PTR [eax],al
  408f78:	inc    ebx
  408f79:	add    BYTE PTR [ebp+0x0],dh
  408f7c:	ins    BYTE PTR es:[edi],dx
  408f7d:	add    BYTE PTR [eax+eax*1+0x75],dh
  408f81:	add    BYTE PTR [edx+0x0],dh
  408f84:	add    BYTE PTR gs:0x65006e00,bh
  408f8b:	add    BYTE PTR [ebp+0x0],dh
  408f8e:	je     0x408f90
  408f90:	jb     0x408f92
  408f92:	popa   
  408f93:	add    BYTE PTR [eax+eax*1+0x2c],ch
  408f97:	add    BYTE PTR [eax],ah
  408f99:	add    BYTE PTR [eax+0x0],dl
  408f9c:	jne    0x408f9e
  408f9e:	bound  eax,QWORD PTR [eax]
  408fa0:	ins    BYTE PTR es:[edi],dx
  408fa1:	add    BYTE PTR [ecx+0x0],ch
  408fa4:	arpl   WORD PTR [eax],ax
  408fa6:	dec    ebx
  408fa7:	add    BYTE PTR [ebp+0x0],ah
  408faa:	jns    0x408fac
  408fac:	push   esp
  408fad:	add    BYTE PTR [edi+0x0],ch
  408fb0:	imul   eax,DWORD PTR [eax],0x65
  408fb3:	add    BYTE PTR [esi+0x0],ch
  408fb6:	cmp    eax,0x37006200
  408fbb:	add    BYTE PTR [edi],dh
  408fbd:	add    BYTE PTR [ecx+0x0],ah
  408fc0:	xor    eax,0x35006300
  408fc5:	add    BYTE PTR [esi],dh
  408fc7:	add    BYTE PTR [ecx],dh
  408fc9:	add    BYTE PTR [ecx],bh
  408fcb:	add    BYTE PTR [ebx],dh
  408fcd:	add    BYTE PTR [eax+eax*1],dh
  408fd0:	add    BYTE PTR gs:[eax],dh
  408fd3:	add    BYTE PTR [eax],bh
  408fd5:	add    BYTE PTR [ecx],bh
  408fd7:	add    BYTE PTR [eax],al
  408fd9:	and    edx,DWORD PTR [ebx+0x0]
  408fdc:	jns    0x408fde
  408fde:	jae    0x408fe0
  408fe0:	je     0x408fe2
  408fe2:	add    BYTE PTR gs:[ebp+0x0],ch
  408fe6:	add    BYTE PTR cs:[eax+0x0],bl
  408fea:	ins    DWORD PTR es:[edi],dx
  408feb:	add    BYTE PTR [eax+eax*1+0x2e],ch
  408fef:	add    BYTE PTR [esi+0x0],ch
  408ff2:	imul   eax,DWORD PTR [eax],0x64002e
  408ff8:	ins    BYTE PTR es:[edi],dx
  408ff9:	add    BYTE PTR [eax+eax*1+0x0],ch
  408ffd:	xor    edx,DWORD PTR [ebx+0x0]
  409000:	jns    0x409002
  409002:	jae    0x409004
  409004:	je     0x409006
  409006:	add    BYTE PTR gs:[ebp+0x0],ch
  40900a:	add    BYTE PTR cs:[eax+eax*1+0x61],al
  40900f:	add    BYTE PTR [eax+eax*1+0x61],dh
  409013:	add    BYTE PTR [esi],ch
  409015:	add    BYTE PTR [ebx+0x0],dl
  409018:	jno    0x40901a
  40901a:	ins    BYTE PTR es:[edi],dx
  40901b:	add    BYTE PTR [eax+0x0],bl
  40901e:	ins    DWORD PTR es:[edi],dx
  40901f:	add    BYTE PTR [eax+eax*1+0x2e],ch
  409023:	add    BYTE PTR [esi+0x0],ch
  409026:	imul   eax,DWORD PTR [eax],0x64002e
  40902c:	ins    BYTE PTR es:[edi],dx
  40902d:	add    BYTE PTR [eax+eax*1+0x0],ch
  409031:	or     eax,0x6f004e
  409036:	dec    esi
  409037:	add    BYTE PTR [edi+0x0],al
  40903a:	add    BYTE PTR gs:[esi+0x0],ch
  40903e:	add    BYTE PTR ds:0x790053,dl
  409044:	jae    0x409046
  409046:	je     0x409048
  409048:	add    BYTE PTR gs:[ebp+0x0],ch
  40904c:	add    BYTE PTR cs:[eax+0x0],bl
  409050:	ins    DWORD PTR es:[edi],dx
  409051:	add    BYTE PTR [eax+eax*1+0x0],ch
  409055:	and    eax,0x790053
  40905a:	jae    0x40905c
  40905c:	je     0x40905e
  40905e:	add    BYTE PTR gs:[ebp+0x0],ch
  409062:	add    BYTE PTR cs:[eax+eax*1+0x61],al
  409067:	add    BYTE PTR [eax+eax*1+0x61],dh
  40906b:	add    BYTE PTR [esi],ch
  40906d:	add    BYTE PTR [ebx+0x0],dl
  409070:	jno    0x409072
  409072:	ins    BYTE PTR es:[edi],dx
  409073:	add    BYTE PTR [eax+0x0],bl
  409076:	ins    DWORD PTR es:[edi],dx
  409077:	add    BYTE PTR [eax+eax*1+0x0],ch
  40907b:	or     esi,DWORD PTR [eax]
  40907d:	add    BYTE PTR [esi],ch
  40907f:	add    BYTE PTR [eax],dh
  409081:	add    BYTE PTR [eax],dh
  409083:	add    BYTE PTR [eax],dh
  409085:	add    BYTE PTR [eax],al
  409087:	add    esp,DWORD PTR [eax+eax*1]
  40908a:	add    BYTE PTR [ecx],bl
  40908c:	push   esp
  40908d:	add    BYTE PTR [ecx+0x0],bh
  409090:	jo     0x409092
  409092:	add    BYTE PTR gs:[edx+0x0],dl
  409096:	add    BYTE PTR gs:[ecx+0x0],dh
  40909a:	jne    0x40909c
  40909c:	imul   eax,DWORD PTR [eax],0x650072
  4090a2:	add    BYTE PTR fs:[eax],al
  4090a5:	add    eax,0x74002f
  4090aa:	add    BYTE PTR [ebx],cl
  4090ac:	push   ebp
  4090ad:	add    BYTE PTR [ebx+0x0],dh
  4090b0:	popa   
  4090b1:	add    BYTE PTR [edi+0x0],ah
  4090b4:	add    BYTE PTR gs:[eax],al
  4090b7:	add    eax,0xa000d
  4090bc:	add    BYTE PTR ds:0x6e0055,ah
  4090c2:	jb     0x4090c4
  4090c4:	add    BYTE PTR gs:[ebx+0x0],ah
  4090c8:	outs   dx,DWORD PTR ds:[esi]
  4090c9:	add    BYTE PTR [edi+0x0],ah
  4090cc:	outs   dx,BYTE PTR ds:[esi]
  4090cd:	add    BYTE PTR [ecx+0x0],ch
  4090d0:	jp     0x4090d2
  4090d2:	add    BYTE PTR gs:[eax+eax*1+0x4f],ah
  4090d7:	add    BYTE PTR [eax+0x0],dh
  4090da:	je     0x4090dc
  4090dc:	imul   eax,DWORD PTR [eax],0x6e006f
  4090e2:	add    BYTE PTR [ecx],cl
  4090e4:	push   0x6c006500
  4090e9:	add    BYTE PTR [eax+0x0],dh
  4090ec:	add    BYTE PTR [ebx],al
  4090ee:	aas    
  4090ef:	add    BYTE PTR [eax],al
  4090f1:	adc    esp,DWORD PTR [ecx+0x0]
  4090f4:	jae    0x4090f6
  4090f6:	jae    0x4090f8
  4090f8:	add    BYTE PTR gs:[ebp+0x0],ch
  4090fc:	bound  eax,QWORD PTR [eax]
  4090fe:	ins    BYTE PTR es:[edi],dx
  4090ff:	add    BYTE PTR [ecx+0x0],bh
  409102:	cmp    al,BYTE PTR [eax]
  409104:	add    BYTE PTR ds:0x3a0061,al
  40910a:	add    BYTE PTR [ebx],cl
  40910c:	je     0x40910e
  40910e:	jns    0x409110
  409110:	jo     0x409112
  409112:	add    BYTE PTR gs:[edx],bh
  409115:	add    BYTE PTR [eax],al
  409117:	add    eax,0x3a0074
  40911c:	add    BYTE PTR [edi],cl
  40911e:	outs   dx,DWORD PTR ds:[esi]
  40911f:	add    BYTE PTR [ebp+0x0],dh
  409122:	je     0x409124
  409124:	jo     0x409126
  409126:	jne    0x409128
  409128:	je     0x40912a
  40912a:	cmp    al,BYTE PTR [eax]
  40912c:	add    BYTE PTR ds:0x3a006f,al
  409132:	add    BYTE PTR [ecx],dl
  409134:	arpl   WORD PTR [eax],ax
  409136:	jne    0x409138
  409138:	ins    BYTE PTR es:[edi],dx
  409139:	add    BYTE PTR [eax+eax*1+0x75],dh
  40913d:	add    BYTE PTR [edx+0x0],dh
  409140:	add    BYTE PTR gs:[edx],bh
  409143:	add    BYTE PTR [eax],al
  409145:	add    eax,0x3a0063
  40914a:	add    BYTE PTR [ecx],cl
  40914c:	ja     0x40914e
  40914e:	popa   
  40914f:	add    BYTE PTR [ecx+0x0],ch
  409152:	je     0x409154
  409154:	add    BYTE PTR [ecx],cl
  409156:	je     0x409158
  409158:	imul   eax,DWORD PTR [eax],0x65006d
  40915e:	add    BYTE PTR [ebx],cl
  409160:	jae    0x409162
  409162:	je     0x409164
  409164:	popa   
  409165:	add    BYTE PTR [ebx+0x0],ah
  409168:	imul   eax,DWORD PTR [eax],0x0
  40916b:	pop    es
  40916c:	push   0x0
  40916e:	imul   eax,DWORD PTR [eax],0xf000074
  409174:	add    BYTE PTR gs:[esi+0x0],ch
  409178:	popa   
  409179:	add    BYTE PTR [edx+0x0],ah
  40917c:	ins    BYTE PTR es:[edi],dx
  40917d:	add    BYTE PTR [ebp+0x0],ah
  409180:	cmp    al,BYTE PTR [eax]
  409182:	add    BYTE PTR [ecx],cl
  409184:	outs   dx,BYTE PTR ds:[esi]
  409185:	add    BYTE PTR [edi+0x0],ch
  409188:	outs   dx,BYTE PTR ds:[esi]
  409189:	add    BYTE PTR [ebp+0x0],ah
  40918c:	add    BYTE PTR [ecx],dl
  40918e:	add    BYTE PTR fs:[edi+0x0],ch
  409192:	arpl   WORD PTR [eax],ax
  409194:	jne    0x409196
  409196:	ins    DWORD PTR es:[edi],dx
  409197:	add    BYTE PTR [ebp+0x0],ah
  40919a:	outs   dx,BYTE PTR ds:[esi]
  40919b:	add    BYTE PTR [eax+eax*1+0x0],dh
  40919f:	or     eax,0x630073
  4091a4:	jb     0x4091a6
  4091a6:	imul   eax,DWORD PTR [eax],0x740070
  4091ac:	add    BYTE PTR [edi],al
  4091ae:	popa   
  4091af:	add    BYTE PTR [eax+eax*1+0x6c],ch
  4091b3:	add    BYTE PTR [eax],al
  4091b5:	or     eax,0x610070
  4091ba:	jb     0x4091bc
  4091bc:	popa   
  4091bd:	add    BYTE PTR [ebp+0x0],ch
  4091c0:	cmp    al,BYTE PTR [eax]
  4091c2:	add    BYTE PTR ds:0x3a0070,al
  4091c8:	add    BYTE PTR [ecx],al
  4091ca:	add    BYTE PTR ds:0x69004d,dh
  4091d0:	arpl   WORD PTR [eax],ax
  4091d2:	jb     0x4091d4
  4091d4:	outs   dx,DWORD PTR ds:[esi]
  4091d5:	add    BYTE PTR [ebx+0x0],dh
  4091d8:	outs   dx,DWORD PTR ds:[esi]
  4091d9:	add    BYTE PTR [esi+0x0],ah
  4091dc:	je     0x4091de
  4091de:	add    BYTE PTR cs:[eax+0x0],bl
  4091e2:	jae    0x4091e4
  4091e4:	ins    BYTE PTR es:[edi],dx
  4091e5:	add    BYTE PTR [eax+eax*1+0x65],al
  4091e9:	add    BYTE PTR [edx+0x0],ah
  4091ec:	jne    0x4091ee
  4091ee:	add    BYTE PTR [bx+0x0],ah
  4091f2:	add    BYTE PTR gs:[edx+0x0],dh
  4091f6:	add    BYTE PTR cs:[eax+0x0],cl
  4091fa:	outs   dx,DWORD PTR ds:[esi]
  4091fb:	add    BYTE PTR [ebx+0x0],dh
  4091fe:	je     0x409200
  409200:	add    BYTE PTR [ecx+0x75],cl
  409203:	add    BYTE PTR [edx+0x0],dh
  409206:	outs   dx,BYTE PTR ds:[esi]
  409207:	add    BYTE PTR [edx],bh
  409209:	add    BYTE PTR [ebx+0x0],dh
  40920c:	arpl   WORD PTR [eax],ax
  40920e:	push   0x6d006500
  409213:	add    BYTE PTR [ecx+0x0],ah
  409216:	jae    0x409218
  409218:	sub    eax,0x69006d00
  40921d:	add    BYTE PTR [ebx+0x0],ah
  409220:	jb     0x409222
  409222:	outs   dx,DWORD PTR ds:[esi]
  409223:	add    BYTE PTR [ebx+0x0],dh
  409226:	outs   dx,DWORD PTR ds:[esi]
  409227:	add    BYTE PTR [esi+0x0],ah
  40922a:	je     0x40922c
  40922c:	sub    eax,0x6f006300
  409231:	add    BYTE PTR [ebp+0x0],ch
  409234:	cmp    al,BYTE PTR [eax]
  409236:	js     0x409238
  409238:	jae    0x40923a
  40923a:	ins    BYTE PTR es:[edi],dx
  40923b:	add    BYTE PTR [eax+eax*1+0x2d],dh
  40923f:	add    BYTE PTR [eax+eax*1+0x65],ah
  409243:	add    BYTE PTR [edx+0x0],ah
  409246:	jne    0x409248
  409248:	add    BYTE PTR [bx+di],al
  40924b:	or     DWORD PTR [eax+eax*1+0x61],ebp
  40924f:	add    BYTE PTR [ebx+0x0],dh
  409252:	je     0x409254
  409254:	add    BYTE PTR [ecx],dl
  409256:	jo     0x409258
  409258:	outs   dx,DWORD PTR ds:[esi]
  409259:	add    BYTE PTR [ebx+0x0],dh
  40925c:	imul   eax,DWORD PTR [eax],0x690074
  409262:	outs   dx,DWORD PTR ds:[esi]
  409263:	add    BYTE PTR [esi+0x0],ch
  409266:	add    BYTE PTR [edi],cl
  409268:	arpl   WORD PTR [eax],ax
  40926a:	jne    0x40926c
  40926c:	jb     0x40926e
  40926e:	jb     0x409270
  409270:	add    BYTE PTR gs:[esi+0x0],ch
  409274:	je     0x409276
  409276:	add    BYTE PTR ds:0x61006e,dl
  40927c:	ins    DWORD PTR es:[edi],dx
  40927d:	add    BYTE PTR [ebp+0x0],ah
  409280:	jae    0x409282
  409282:	jo     0x409284
  409284:	popa   
  409285:	add    BYTE PTR [ebx+0x0],ah
  409288:	add    BYTE PTR gs:[ebx+0x0],dh
  40928c:	add    BYTE PTR ds:0x61006c,cl
  409292:	jae    0x409294
  409294:	je     0x409296
  409296:	sub    BYTE PTR [eax],al
  409298:	sub    DWORD PTR [eax],eax
  40929a:	add    BYTE PTR ds:0x6f0070,dl
  4092a0:	jae    0x4092a2
  4092a2:	imul   eax,DWORD PTR [eax],0x690074
  4092a8:	outs   dx,DWORD PTR ds:[esi]
  4092a9:	add    BYTE PTR [esi+0x0],ch
  4092ac:	sub    BYTE PTR [eax],al
  4092ae:	sub    DWORD PTR [eax],eax
  4092b0:	add    BYTE PTR [ecx],bl
  4092b2:	jae    0x4092b4
  4092b4:	add    BYTE PTR gs:[eax+eax*1+0x66],ch
  4092b9:	add    BYTE PTR [edx],bh
  4092bb:	add    BYTE PTR [edx],bh
  4092bd:	add    BYTE PTR [esi+0x0],ch
  4092c0:	outs   dx,DWORD PTR ds:[esi]
  4092c1:	add    BYTE PTR [eax+eax*1+0x65],ah
  4092c5:	add    BYTE PTR [eax],ch
  4092c7:	add    BYTE PTR [ecx],ch
  4092c9:	add    BYTE PTR [eax],al
  4092cb:	and    ebp,DWORD PTR [esi+0x0]
  4092ce:	popa   
  4092cf:	add    BYTE PTR [ebp+0x0],ch
  4092d2:	add    BYTE PTR gs:[ebx+0x0],dh
  4092d6:	jo     0x4092d8
  4092d8:	popa   
  4092d9:	add    BYTE PTR [ebx+0x0],ah
  4092dc:	add    BYTE PTR gs:[edx],bh
  4092df:	add    BYTE PTR [edx],bh
  4092e1:	add    BYTE PTR [esi+0x0],ch
  4092e4:	outs   dx,DWORD PTR ds:[esi]
  4092e5:	add    BYTE PTR [eax+eax*1+0x65],ah
  4092e9:	add    BYTE PTR [eax],ch
  4092eb:	add    BYTE PTR [ecx],ch
  4092ed:	add    BYTE PTR [eax],al
  4092ef:	adc    eax,0x690077
  4092f4:	je     0x4092f6
  4092f6:	push   0x70002d00
  4092fb:	add    BYTE PTR [ecx+0x0],ah
  4092fe:	jb     0x409300
  409300:	popa   
  409301:	add    BYTE PTR [ebp+0x0],ch
  409304:	add    DWORD PTR [edi],eax
  409306:	and    al,0x0
  409308:	and    al,0x0
  40930a:	and    al,0x0
  40930c:	add    BYTE PTR [ebx],al
  40930e:	cmp    al,BYTE PTR [eax]
  409310:	add    BYTE PTR [ebx],al
  409312:	add    DWORD PTR [eax],eax
  409314:	add    DWORD PTR ds:0x240021,edx
  40931a:	ins    BYTE PTR es:[edi],dx
  40931b:	add    BYTE PTR [ecx+0x0],ch
  40931e:	outs   dx,BYTE PTR ds:[esi]
  40931f:	add    BYTE PTR [ebp+0x0],ah
  409322:	imul   eax,DWORD PTR [eax],0x66006e
  409328:	outs   dx,DWORD PTR ds:[esi]
  409329:	add    BYTE PTR [eax],al
  40932b:	add    esp,DWORD PTR [ecx]
  40932d:	add    BYTE PTR [eax],al
  40932f:	add    ebp,DWORD PTR [eax+eax*1]
  409332:	add    BYTE PTR [ecx],cl
  409334:	and    DWORD PTR [eax],eax
  409336:	xor    BYTE PTR [eax],al
  409338:	sub    al,0x0
  40933a:	xor    BYTE PTR [eax],al
  40933c:	add    BYTE PTR [ebx],al
  40933e:	and    BYTE PTR [eax],al
  409340:	add    BYTE PTR [ebx],cl
  409342:	inc    ebx
  409343:	add    BYTE PTR [eax+eax*1+0x65],ch
  409347:	add    BYTE PTR [ecx+0x0],ah
  40934a:	jb     0x40934c
  40934c:	add    BYTE PTR [edi],al
  40934e:	inc    ecx
  40934f:	add    BYTE PTR [eax+eax*1+0x64],ah
  409353:	add    BYTE PTR [eax],al
  409355:	add    edi,DWORD PTR [ebx+0x0]
  409358:	add    BYTE PTR [ebx],al
  40935a:	jge    0x40935c
  40935c:	add    BYTE PTR [ebx],al
  40935e:	das    
  40935f:	add    BYTE PTR [eax],al
  409361:	or     esp,DWORD PTR [esi+0x0]
  409364:	popa   
  409365:	add    BYTE PTR [eax+eax*1+0x73],ch
  409369:	add    BYTE PTR [ebp+0x0],ah
  40936c:	add    BYTE PTR [ecx],cl
  40936e:	je     0x409370
  409370:	jb     0x409372
  409372:	jne    0x409374
  409374:	add    BYTE PTR gs:[eax],al
  409377:	add    edx,DWORD PTR [edx+0x0]
  40937a:	add    BYTE PTR [eax],al
  40937c:	lock arpl WORD PTR [ebx],si
  40937f:	loopne 0x409379
  409381:	add    eax,0x469c4c45
  409386:	in     al,dx
  409387:	mov    al,0xb6
  409389:	and    BYTE PTR [ebx-0x48f7ff05],0x7a
  409390:	pop    esp
  409391:	push   esi
  409392:	sbb    DWORD PTR [eax+eiz*8],esi
  409395:	mov    DWORD PTR [ebx],eax
  409397:	push   es
  409398:	adc    ch,BYTE PTR [ecx]
  40939a:	add    eax,DWORD PTR [eax]
  40939c:	add    BYTE PTR [ecx],al
  40939e:	add    eax,0x1d010100
  4093a3:	push   cs
  4093a4:	pop    es
  4093a5:	add    BYTE PTR [edx],al
  4093a7:	add    DWORD PTR [edx],edx
  4093a9:	sub    eax,0x53112
  4093ae:	add    DWORD PTR [esi],ecx
  4093b0:	adc    ch,BYTE PTR ds:0x12010006
  4093b6:	xor    eax,0x53912
  4093bb:	add    DWORD PTR [edx],edx
  4093bd:	cmp    eax,0x100040e
  4093c2:	add    DWORD PTR [esi],ecx
  4093c4:	add    eax,0x1d010120
  4093c9:	push   cs
  4093ca:	pop    es
  4093cb:	and    BYTE PTR [edx],al
  4093cd:	adc    al,BYTE PTR [ecx+0xe]
  4093d0:	adc    al,BYTE PTR [ebp+0x5]
  4093d3:	add    BYTE PTR [ecx],al
  4093d5:	push   cs
  4093d6:	adc    cl,BYTE PTR [ecx+0x6]
  4093d9:	and    BYTE PTR [edx],al
  4093db:	adc    cl,BYTE PTR [ebp+0xe]
  4093de:	push   cs
  4093df:	pop    es
  4093e0:	and    BYTE PTR [edx],al
  4093e2:	adc    cl,BYTE PTR ds:0x551120e
  4093e8:	add    BYTE PTR [ecx],al
  4093ea:	push   cs
  4093eb:	sbb    eax,0x100060e
  4093f0:	adc    cl,BYTE PTR [ebx*1+0x100040e]
  4093f7:	push   cs
  4093f8:	push   cs
  4093f9:	pop    es
  4093fa:	add    BYTE PTR [ebx],al
  4093fc:	add    cl,BYTE PTR [esi]
  4093fe:	push   cs
  4093ff:	adc    BYTE PTR [esi],cl
  409401:	or     BYTE PTR [eax],al
  409403:	add    al,0x2
  409405:	push   cs
  409406:	push   cs
  409407:	push   cs
  409408:	adc    BYTE PTR [esi],cl
  40940a:	pop    es
  40940b:	add    BYTE PTR [ebx],al
  40940d:	add    cl,BYTE PTR [esi]
  40940f:	push   cs
  409410:	adc    BYTE PTR [edx],al
  409412:	or     BYTE PTR [eax],al
  409414:	add    al,0x2
  409416:	push   cs
  409417:	push   cs
  409418:	push   cs
  409419:	adc    BYTE PTR [edx],al
  40941b:	add    esp,DWORD PTR [eax]
  40941d:	add    BYTE PTR [ecx],al
  40941f:	add    al,BYTE PTR [esi]
  409421:	push   cs
  409422:	add    al,BYTE PTR [esi]
  409424:	add    al,BYTE PTR [ebx]
  409426:	push   es
  409427:	adc    dl,BYTE PTR [ebp+0x3]
  40942a:	push   es
  40942b:	adc    bl,BYTE PTR [ecx+0x3]
  40942e:	push   es
  40942f:	adc    cl,BYTE PTR ds:0x14120603
  409435:	push   es
  409436:	and    BYTE PTR [edx],al
  409438:	add    DWORD PTR [esi],ecx
  40943a:	adc    dl,BYTE PTR [ecx+0x9]
  40943d:	add    BYTE PTR [ebx],al
  40943f:	add    DWORD PTR [edx],edx
  409441:	adc    DWORD PTR [edx],edx
  409443:	pop    ebp
  409444:	adc    DWORD PTR [ecx+0x4],esp
  409447:	and    BYTE PTR [eax],al
  409449:	adc    dl,BYTE PTR [ecx+0x6]
  40944c:	and    BYTE PTR [ebx],al
  40944e:	add    DWORD PTR [esi],ecx
  409450:	push   cs
  409451:	push   cs
  409452:	add    al,0x20
  409454:	add    DWORD PTR [ecx],eax
  409456:	push   cs
  409457:	add    eax,0xe010220
  40945c:	push   cs
  40945d:	add    al,0x20
  40945f:	add    DWORD PTR [ecx],eax
  409461:	sbb    al,0x4
  409463:	and    BYTE PTR [ecx],al
  409465:	add    DWORD PTR [edx],eax
  409467:	add    eax,0x11010120
  40946c:	gs add al,0x20
  40946f:	add    DWORD PTR [ecx],eax
  409471:	or     eax,0x1012004
  409476:	or     al,0x5
  409478:	and    BYTE PTR [ecx],al
  40947a:	add    DWORD PTR [ecx],edx
  40947c:	imul   eax,DWORD PTR [eax+eiz*1],0x4080101
  409483:	and    BYTE PTR [ecx],al
  409485:	add    DWORD PTR [edx],ecx
  409487:	add    al,0x20
  409489:	add    BYTE PTR [ecx],dl
  40948b:	ins    DWORD PTR es:[edi],dx
  40948c:	pop    es
  40948d:	and    BYTE PTR [ecx+eax*1],al
  409490:	push   cs
  409491:	push   cs
  409492:	push   cs
  409493:	push   cs
  409494:	add    al,0x20
  409496:	add    DWORD PTR [ecx],eax
  409498:	add    eax,DWORD PTR ds:0x3010220
  40949e:	add    eax,DWORD PTR [edi]
  4094a0:	and    BYTE PTR [ebx],al
  4094a2:	add    DWORD PTR ds:0x7080803,ebx
  4094a8:	and    BYTE PTR [ebx],al
  4094aa:	add    DWORD PTR ds:0x4080805,ebx
  4094b0:	and    BYTE PTR [ecx],al
  4094b2:	push   cs
  4094b3:	push   cs
  4094b4:	add    al,0x20
  4094b6:	add    BYTE PTR [ecx],dl
  4094b8:	jno    0x4094bd
  4094ba:	and    BYTE PTR [eax],al
  4094bc:	push   cs
  4094bd:	add    al,0x28
  4094bf:	add    BYTE PTR [edx],dl
  4094c1:	push   ecx
  4094c2:	add    al,0x28
  4094c4:	add    BYTE PTR [ecx],dl
  4094c6:	ins    DWORD PTR es:[edi],dx
  4094c7:	add    al,0x28
  4094c9:	add    BYTE PTR [ecx],dl
  4094cb:	jno    0x4094d0
  4094cd:	sub    BYTE PTR [eax],al
  4094cf:	push   cs
  4094d0:	add    eax,DWORD PTR [esi]
  4094d2:	adc    dl,BYTE PTR [ecx]
  4094d4:	add    eax,DWORD PTR [esi]
  4094d6:	adc    dh,BYTE PTR [ebp+0x5]
  4094d9:	and    BYTE PTR [ecx],al
  4094db:	add    DWORD PTR [edx],edx
  4094dd:	adc    DWORD PTR [ebx],eax
  4094df:	and    BYTE PTR [eax],al
  4094e1:	add    al,BYTE PTR [eax+eiz*1]
  4094e4:	add    BYTE PTR [edx],dl
  4094e6:	adc    DWORD PTR [edi],eax
  4094e8:	and    BYTE PTR [ebx],al
  4094ea:	or     BYTE PTR ds:0x6080805,bl
  4094f0:	and    BYTE PTR [edx],al
  4094f2:	or     cl,BYTE PTR [edx]
  4094f4:	adc    DWORD PTR [ecx+0x3],edi
  4094f7:	and    BYTE PTR [eax],al
  4094f9:	or     al,BYTE PTR [ebx]
  4094fb:	sub    BYTE PTR [eax],al
  4094fd:	add    al,BYTE PTR [eax+ebp*1]
  409500:	add    BYTE PTR [edx],dl
  409502:	adc    DWORD PTR [ebx],eax
  409504:	sub    BYTE PTR [eax],al
  409506:	or     ch,BYTE PTR [eax]
  409508:	pop    eax
  409509:	add    BYTE PTR [ebx+0x0],dh
  40950c:	ins    BYTE PTR es:[edi],dx
  40950d:	add    BYTE PTR [ebx+0x0],dl
  409510:	add    BYTE PTR gs:[ebx+0x0],ah
  409514:	jne    0x409516
  409516:	jb     0x409518
  409518:	imul   eax,DWORD PTR [eax],0x790074
  40951e:	inc    ebp
  40951f:	add    BYTE PTR [eax+0x0],bh
  409522:	arpl   WORD PTR [eax],ax
  409524:	add    BYTE PTR gs:[eax+0x0],dh
  409528:	je     0x40952a
  40952a:	imul   eax,DWORD PTR [eax],0x6e006f
  409530:	sbb    BYTE PTR [eax+eax*1+0x79],dl
  409534:	add    BYTE PTR [eax+0x0],dh
  409537:	add    BYTE PTR gs:[edx+0x0],dl
  40953b:	add    BYTE PTR gs:[ecx+0x0],dh
  40953f:	jne    0x409541
  409541:	imul   eax,DWORD PTR [eax],0x650072
  409547:	add    BYTE PTR fs:[edx*2+0x72006e00],ah
  40954f:	add    BYTE PTR [ebp+0x0],ah
  409552:	arpl   WORD PTR [eax],ax
  409554:	outs   dx,DWORD PTR ds:[esi]
  409555:	add    BYTE PTR [edi+0x0],ah
  409558:	outs   dx,BYTE PTR ds:[esi]
  409559:	add    BYTE PTR [ecx+0x0],ch
  40955c:	jp     0x40955e
  40955e:	add    BYTE PTR gs:[eax+eax*1+0x4f],ah
  409563:	add    BYTE PTR [eax+0x0],dh
  409566:	je     0x409568
  409568:	imul   eax,DWORD PTR [eax],0x6e006f
  40956e:	or     dl,BYTE PTR [ebp+0x0]
  409571:	jae    0x409573
  409573:	popa   
  409574:	add    BYTE PTR [edi+0x0],ah
  409577:	add    BYTE PTR gs:[eax],dl
  40957a:	dec    esp
  40957b:	add    BYTE PTR [edi+0x0],ch
  40957e:	popa   
  40957f:	add    BYTE PTR [eax+eax*1+0x54],ah
  409583:	add    BYTE PTR [ecx+0x0],ch
  409586:	ins    DWORD PTR es:[edi],dx
  409587:	add    BYTE PTR [ebp+0x0],ah
  40958a:	push   cs
  40958b:	dec    edx
  40958c:	add    BYTE PTR [ecx+0x0],ch
  40958f:	je     0x409591
  409591:	push   esp
  409592:	add    BYTE PTR [ecx+0x0],ch
  409595:	ins    DWORD PTR es:[edi],dx
  409596:	add    BYTE PTR [ebp+0x0],ah
  409599:	sbb    al,BYTE PTR [ebp+0x0]
  40959c:	js     0x40959e
  40959e:	add    BYTE PTR gs:[ebx+0x0],ah
  4095a2:	jne    0x4095a4
  4095a4:	je     0x4095a6
  4095a6:	imul   eax,DWORD PTR [eax],0x6e006f
  4095ac:	push   esp
  4095ad:	add    BYTE PTR [ecx+0x0],ch
  4095b0:	ins    DWORD PTR es:[edi],dx
  4095b1:	add    BYTE PTR [ebp+0x0],ah
  4095b4:	or     al,0x4e
  4095b6:	add    BYTE PTR [edi+0x0],ch
  4095b9:	dec    esi
  4095ba:	add    BYTE PTR [edi+0x0],al
  4095bd:	add    BYTE PTR gs:[esi+0x0],ch
  4095c1:	add    eax,DWORD PTR [esi]
  4095c3:	adc    ah,BYTE PTR [eax]
  4095c5:	add    eax,DWORD PTR [esi]
  4095c7:	adc    bh,BYTE PTR [ebp+0x2]
  4095ca:	push   es
  4095cb:	sbb    al,0x3
  4095cd:	add    BYTE PTR [eax],al
  4095cf:	sbb    al,0x4
  4095d1:	add    BYTE PTR [eax],al
  4095d3:	adc    ah,BYTE PTR [eax]
  4095d5:	add    eax,0x80120000
  4095da:	add    DWORD PTR [eax+eax*1],0x67d1200
  4095e1:	add    BYTE PTR [edx],al
  4095e3:	push   cs
  4095e4:	push   cs
  4095e5:	sbb    eax,0x100041c
  4095ea:	sbb    al,0xe
  4095ec:	add    ecx,DWORD PTR [eax]
  4095ee:	add    BYTE PTR [eax*1-0x7fedfff8],bl
  4095f5:	add    DWORD PTR [eax+ecx*1],0xe7d1200
  4095fc:	dec    esi
  4095fd:	add    BYTE PTR [edi+0x0],ch
  409600:	add    BYTE PTR fs:[ebp+0x0],ah
  409604:	push   ebx
  409605:	add    BYTE PTR [ebp+0x0],ah
  409608:	je     0x40960a
  40960a:	or     al,0x4e
  40960c:	add    BYTE PTR [ebp+0x0],dh
  40960f:	ins    DWORD PTR es:[edi],dx
  409610:	add    BYTE PTR [edx+0x0],ah
  409613:	add    BYTE PTR gs:[edx+0x0],dh
  409617:	push   cs
  409618:	inc    edx
  409619:	add    BYTE PTR [edi+0x0],ch
  40961c:	outs   dx,DWORD PTR ds:[esi]
  40961d:	add    BYTE PTR [eax+eax*1+0x65],ch
  409621:	add    BYTE PTR [ecx+0x0],ah
  409624:	outs   dx,BYTE PTR ds:[esi]
  409625:	add    BYTE PTR [ebx+edx*2],cl
  409628:	add    BYTE PTR [eax+eax*1+0x72],dh
  40962c:	add    BYTE PTR [ecx+0x0],ch
  40962f:	outs   dx,BYTE PTR ds:[esi]
  409630:	add    BYTE PTR [edi+0x0],ah
  409633:	or     bh,BYTE PTR [eax+0x0]
  409636:	ins    DWORD PTR es:[edi],dx
  409637:	add    BYTE PTR [eax+eax*1+0x6e],ch
  40963b:	add    BYTE PTR [ebx+0x0],dh
  40963e:	or     BYTE PTR [esi+0x0],cl
  409641:	push   ebp
  409642:	add    BYTE PTR [eax+eax*1+0x4c],cl
  409646:	add    BYTE PTR [esi+ebp*2],cl
  409649:	add    BYTE PTR [edi+0x0],ch
  40964c:	add    BYTE PTR fs:[ebp+0x0],ah
  409650:	sub    BYTE PTR [eax],al
  409652:	sub    DWORD PTR [eax],eax
  409654:	sbb    BYTE PTR [ebx+0x0],dh
  409657:	add    BYTE PTR gs:[eax+eax*1+0x66],ch
  40965c:	add    BYTE PTR [edx],bh
  40965e:	add    BYTE PTR [edx],bh
  409660:	add    BYTE PTR [esi+0x0],ch
  409663:	outs   dx,DWORD PTR ds:[esi]
  409664:	add    BYTE PTR [eax+eax*1+0x65],ah
  409668:	add    BYTE PTR [eax],ch
  40966a:	add    BYTE PTR [ecx],ch
  40966c:	add    BYTE PTR [edx],ah
  40966e:	outs   dx,BYTE PTR ds:[esi]
  40966f:	add    BYTE PTR [ecx+0x0],ah
  409672:	ins    DWORD PTR es:[edi],dx
  409673:	add    BYTE PTR [ebp+0x0],ah
  409676:	jae    0x409678
  409678:	jo     0x40967a
  40967a:	popa   
  40967b:	add    BYTE PTR [ebx+0x0],ah
  40967e:	add    BYTE PTR gs:[edx],bh
  409681:	add    BYTE PTR [edx],bh
  409683:	add    BYTE PTR [esi+0x0],ch
  409686:	outs   dx,DWORD PTR ds:[esi]
  409687:	add    BYTE PTR [eax+eax*1+0x65],ah
  40968b:	add    BYTE PTR [eax],ch
  40968d:	add    BYTE PTR [ecx],ch
  40968f:	add    BYTE PTR [eax+esi*2],dl
  409692:	add    BYTE PTR [edi+0x0],ch
  409695:	jae    0x409697
  409697:	imul   eax,DWORD PTR [eax],0x690074
  40969d:	outs   dx,DWORD PTR ds:[esi]
  40969e:	add    BYTE PTR [esi+0x0],ch
  4096a1:	sub    BYTE PTR [eax],al
  4096a3:	sub    DWORD PTR [eax],eax
  4096a5:	or     al,0x6c
  4096a7:	add    BYTE PTR [ecx+0x0],ah
  4096aa:	jae    0x4096ac
  4096ac:	je     0x4096ae
  4096ae:	sub    BYTE PTR [eax],al
  4096b0:	sub    DWORD PTR [eax],eax
  4096b2:	adc    al,0x77
  4096b4:	add    BYTE PTR [ecx+0x0],ch
  4096b7:	je     0x4096b9
  4096b9:	push   0x70002d00
  4096be:	add    BYTE PTR [ecx+0x0],ah
  4096c1:	jb     0x4096c3
  4096c3:	popa   
  4096c4:	add    BYTE PTR [ebp+0x0],ch
  4096c7:	push   cs
  4096c8:	arpl   WORD PTR [eax],ax
  4096ca:	jne    0x4096cc
  4096cc:	jb     0x4096ce
  4096ce:	jb     0x4096d0
  4096d0:	add    BYTE PTR gs:[esi+0x0],ch
  4096d4:	je     0x4096d6
  4096d6:	adc    al,0x6e
  4096d8:	add    BYTE PTR [ecx+0x0],ah
  4096db:	ins    DWORD PTR es:[edi],dx
  4096dc:	add    BYTE PTR [ebp+0x0],ah
  4096df:	jae    0x4096e1
  4096e1:	jo     0x4096e3
  4096e3:	popa   
  4096e4:	add    BYTE PTR [ebx+0x0],ah
  4096e7:	add    BYTE PTR gs:[ebx+0x0],dh
  4096eb:	adc    BYTE PTR [eax+0x0],dh
  4096ee:	outs   dx,DWORD PTR ds:[esi]
  4096ef:	add    BYTE PTR [ebx+0x0],dh
  4096f2:	imul   eax,DWORD PTR [eax],0x690074
  4096f8:	outs   dx,DWORD PTR ds:[esi]
  4096f9:	add    BYTE PTR [esi+0x0],ch
  4096fc:	or     BYTE PTR [eax+eax*1+0x61],ch
  409700:	add    BYTE PTR [ebx+0x0],dh
  409703:	je     0x409705
  409705:	dec    eax
  409706:	jne    0x409708
  409708:	jb     0x40970a
  40970a:	outs   dx,BYTE PTR ds:[esi]
  40970b:	add    BYTE PTR [edx],bh
  40970d:	add    BYTE PTR [ebx+0x0],dh
  409710:	arpl   WORD PTR [eax],ax
  409712:	push   0x6d006500
  409717:	add    BYTE PTR [ecx+0x0],ah
  40971a:	jae    0x40971c
  40971c:	sub    eax,0x69006d00
  409721:	add    BYTE PTR [ebx+0x0],ah
  409724:	jb     0x409726
  409726:	outs   dx,DWORD PTR ds:[esi]
  409727:	add    BYTE PTR [ebx+0x0],dh
  40972a:	outs   dx,DWORD PTR ds:[esi]
  40972b:	add    BYTE PTR [esi+0x0],ah
  40972e:	je     0x409730
  409730:	sub    eax,0x6f006300
  409735:	add    BYTE PTR [ebp+0x0],ch
  409738:	cmp    al,BYTE PTR [eax]
  40973a:	js     0x40973c
  40973c:	jae    0x40973e
  40973e:	ins    BYTE PTR es:[edi],dx
  40973f:	add    BYTE PTR [eax+eax*1+0x2d],dh
  409743:	add    BYTE PTR [eax+eax*1+0x65],ah
  409747:	add    BYTE PTR [edx+0x0],ah
  40974a:	jne    0x40974c
  40974c:	add    BYTE PTR [si],al
  40974f:	push   es
  409750:	adc    al,BYTE PTR [eax+0x200585]
  409756:	adc    al,BYTE PTR [eax+0x1200685]
  40975c:	add    DWORD PTR [edx],edx
  40975e:	add    BYTE PTR [ebp+0x12010005],0x28
  409765:	push   cs
  409766:	add    eax,0x80120028
  40976b:	test   DWORD PTR [ebx],eax
  40976d:	push   es
  40976e:	adc    ch,BYTE PTR [ebx+eax*1]
  409771:	push   es
  409772:	adc    dh,BYTE PTR [esp+eax*1]
  409775:	push   es
  409776:	adc    al,BYTE PTR [eax+0x8060289]
  40977c:	add    al,0x0
  40977e:	add    BYTE PTR [edx],dl
  409780:	sub    al,0x9
  409782:	and    BYTE PTR [ebx],al
  409784:	add    dl,BYTE PTR [edx]
  409786:	or     BYTE PTR [ebp+0xb1c1d0e],0x20
  40978d:	add    bl,BYTE PTR ds:0x8d80121c
  409793:	sbb    eax,0x8918012
  409798:	and    BYTE PTR [ecx],al
  40979a:	sbb    eax,0x80121d08
  40979f:	xchg   ecx,eax
  4097a0:	or     ah,BYTE PTR [eax]
  4097a2:	add    bl,BYTE PTR ds:0x12918012
  4097a8:	or     BYTE PTR [ebp+0x120060e],0xe
  4097af:	adc    al,BYTE PTR [eax+0x420098d]
  4097b5:	add    dl,BYTE PTR [edx]
  4097b7:	or     BYTE PTR [ebp+0x61c0e0e],0x20
  4097be:	add    DWORD PTR [ecx],eax
  4097c0:	adc    al,BYTE PTR [eax+0x1000689]
  4097c6:	add    dl,BYTE PTR [edx]
  4097c8:	or     BYTE PTR [ecx+0x1c012004],0xe
  4097cf:	pop    es
  4097d0:	and    BYTE PTR [edx],al
  4097d2:	add    cl,BYTE PTR [esi]
  4097d4:	adc    al,BYTE PTR [eax+0x1200991]
  4097da:	sbb    eax,0x12898012
  4097df:	or     BYTE PTR [ecx+0xe012006],0x12
  4097e6:	or     BYTE PTR [ecx+0xe010004],0x1c
  4097ed:	add    al,0x0
  4097ef:	add    DWORD PTR ds:0x100041c,ecx
  4097f5:	add    bl,BYTE PTR [esi+eax*1]
  4097f8:	add    BYTE PTR [ecx],al
  4097fa:	adc    DWORD PTR [eax+0x60b1c95],eax
  409800:	adc    eax,0x2998012
  409805:	adc    al,BYTE PTR [eax+0x8211285]
  40980b:	push   es
  40980c:	adc    eax,0x2998012
  409811:	push   cs
  409812:	push   cs
  409813:	pop    es
  409814:	and    BYTE PTR [edx],al
  409816:	add    DWORD PTR [edx],edx
  409818:	add    BYTE PTR [ebp+0x220061c],0x12
  40981f:	and    DWORD PTR [esi],ecx
  409821:	push   cs
  409822:	or     esp,DWORD PTR [eax]
  409824:	add    edx,DWORD PTR [edx]
  409826:	sbb    BYTE PTR [ebp+0x111d0e0e],0x80
  40982d:	xchg   ebp,eax
  40982e:	push   es
  40982f:	and    BYTE PTR [ecx],al
  409831:	add    dl,BYTE PTR [edx]
  409833:	or     BYTE PTR [ecx+0x8022005],0xe
  40983a:	push   cs
  40983b:	push   es
  40983c:	and    BYTE PTR [ecx],al
  40983e:	add    dl,BYTE PTR [edx]
  409840:	add    BYTE PTR [ebp+0x11002005],0x80
  409847:	xchg   ebp,eax
  409848:	add    eax,0x121c0120
  40984d:	sbb    eax,0x11002805
  409852:	adc    BYTE PTR [ebp-0x7fedf9fc],0x91
  409859:	push   es
  40985a:	and    BYTE PTR [ecx],al
  40985c:	add    DWORD PTR [edx],edx
  40985e:	adc    BYTE PTR [ecx+0x12002004],0x25
  409865:	add    eax,0x80120020
  40986a:	mov    DWORD PTR [ebx],eax
  40986c:	and    BYTE PTR [eax],al
  40986e:	or     BYTE PTR ds:0x80120020,al
  409874:	mov    eax,ds:0x12002805
  409879:	or     BYTE PTR [ecx+0x8002803],0x8
  409880:	and    BYTE PTR [ebx],al
  409882:	add    DWORD PTR [edx],edx
  409884:	or     BYTE PTR [ecx+0x4040808],0x1
  40988b:	add    BYTE PTR [eax],al
  40988d:	or     al,BYTE PTR [eax]
  40988f:	push   es
  409890:	or     BYTE PTR [eax],bl
  409892:	push   cs
  409893:	adc    dh,BYTE PTR [ecx]
  409895:	or     ecx,DWORD PTR [ebx]
  409897:	sbb    BYTE PTR [eax],cl
  409899:	add    BYTE PTR [edx+eax*1],al
  40989c:	sbb    BYTE PTR [edx],dl
  40989e:	xor    DWORD PTR [eax],ecx
  4098a0:	add    al,BYTE PTR [edi]
  4098a2:	add    BYTE PTR [ebx],al
  4098a4:	or     BYTE PTR [esi],cl
  4098a6:	adc    dh,BYTE PTR [ecx]
  4098a8:	or     BYTE PTR [ecx+eax*1],al
  4098ab:	add    BYTE PTR [eax],al
  4098ad:	add    BYTE PTR [esi],al
  4098af:	and    BYTE PTR [ecx],al
  4098b1:	add    DWORD PTR [ecx],edx
  4098b3:	cmp    cl,0x6
  4098b6:	and    BYTE PTR [ecx],al
  4098b8:	add    DWORD PTR [ecx],edx
  4098ba:	add    DWORD PTR [ecx],0x2400a080
  4098c0:	add    BYTE PTR [eax],al
  4098c2:	add    al,0x80
  4098c4:	add    BYTE PTR [eax],al
  4098c6:	xchg   esp,eax
  4098c7:	add    BYTE PTR [eax],al
  4098c9:	add    BYTE PTR [esi],al
  4098cb:	add    al,BYTE PTR [eax]
  4098cd:	add    BYTE PTR [eax],al
  4098cf:	and    al,0x0
  4098d1:	add    BYTE PTR [edx+0x53],dl
  4098d4:	inc    ecx
  4098d5:	xor    DWORD PTR [eax],eax
  4098d7:	add    al,0x0
  4098d9:	add    BYTE PTR [ecx],al
  4098db:	add    BYTE PTR [ecx],al
  4098dd:	add    BYTE PTR [edi],al
  4098df:	sar    edx,1
  4098e1:	push   edi
  4098e2:	les    ebp,FWORD PTR [esi+0x2ea3f0d9]
  4098e8:	test   BYTE PTR [edx+0xdfdae0f],ch
  4098ee:	jmp    0xecab96db
  4098f3:	pop    DWORD PTR [edi+0x6c7603fb]
  4098f9:	or     DWORD PTR [ecx+ebx*4-0x6e],0x1e
  4098fe:	mov    dl,0x3b
  409900:	out    0x9a,eax
  409902:	(bad)  
  409904:	fadd   st(1),st
  409906:	fstp   QWORD PTR [edx+0x211336d2]
  40990c:	add    dl,BYTE PTR [eax-0x6c38df5]
  409912:	adc    BYTE PTR [ebp+0x77e1c47f],0x10
  409919:	pop    esi
  40991b:	pop    es
  40991c:	ja     0x40996d
  40991e:	sub    eax,ebp
  409920:	xor    cl,BYTE PTR [esi]
  409922:	xchg   edx,eax
  409923:	jmp    0xc021:0xe8e4ec05
  40992a:	movs   DWORD PTR es:[edi],DWORD PTR ds:[esi]
  40992b:	out    dx,eax
  40992c:	call   0x4c9cfe22
  409931:	or     al,0x93
  409933:	shr    DWORD PTR [ebx+0x625d2899],0x2c
  40993a:	stos   BYTE PTR es:[edi],al
  40993b:	gs sub al,0x1d
  40993e:	cli    
  40993f:	(bad)  
  409940:	cmp    eax,0x2d6f5d74
  409945:	in     eax,0xf1
  409947:	jle    0x4099a7
  409949:	scas   eax,DWORD PTR es:[edi]
  40994a:	pinsrw mm2,WORD PTR [esi-0x75e3d9c3],0x12
  409952:	inc    ebx
  409953:	sbb    BYTE PTR gs:[eax],ah
  409956:	ins    DWORD PTR es:[edi],dx
  409957:	rcl    BYTE PTR [ebx-0x2da5b2cc],0x93
  40995e:	push   es
  40995f:	and    BYTE PTR [ecx],al
  409961:	add    DWORD PTR [ecx],edx
  409963:	or     DWORD PTR [ecx],0x12000004
  409969:	adc    DWORD PTR [eax+eax*1],eax
  40996c:	add    BYTE PTR [edx],dl
  40996e:	pop    ebp
  40996f:	pop    es
  409970:	and    BYTE PTR [edx],al
  409972:	add    DWORD PTR [edx],edx
  409974:	adc    DWORD PTR [edx],edx
  409976:	pop    ebp
  409977:	push   es
  409978:	add    BYTE PTR [ecx],al
  40997a:	add    DWORD PTR [edx],edx
  40997c:	adc    DWORD PTR [ecx],0x1010004
  409982:	or     BYTE PTR [ebx],al
  409984:	add    BYTE PTR [eax],al
  409986:	add    al,BYTE PTR ds:0x81120000
  40998c:	adc    eax,0x1012006
  409991:	adc    al,BYTE PTR [eax+0x11060481]
  409997:	sbb    DWORD PTR ds:0x1010006,0x41d8111
  4099a1:	add    BYTE PTR [eax],al
  4099a3:	adc    bh,BYTE PTR [ecx]
  4099a5:	adc    DWORD PTR [eax],eax
  4099a7:	add    eax,0xe2d8112
  4099ac:	adc    al,BYTE PTR [ecx+0x25811231]
  4099b2:	adc    bh,BYTE PTR ds:0x735121d
  4099b8:	add    BYTE PTR [ecx],al
  4099ba:	adc    cl,BYTE PTR [ebp+0x11]
  4099bd:	xor    DWORD PTR ds:0x1c022005,0x60e0e
  4099c7:	add    DWORD PTR [ecx],eax
  4099c9:	adc    al,BYTE PTR [ecx+0x807142d]
  4099cf:	adc    cl,BYTE PTR [eax+ecx*1]
  4099d2:	adc    bh,BYTE PTR ds:0x81123912
  4099d8:	and    eax,0x122d8112
  4099dd:	sub    eax,0x435121d
  4099e2:	and    BYTE PTR [eax],al
  4099e4:	adc    cl,BYTE PTR [ebp+0x3]
  4099e7:	add    BYTE PTR [eax],al
  4099e9:	push   cs
  4099ea:	add    eax,0x31120120
  4099ef:	push   cs
  4099f0:	add    eax,0x3010220
  4099f5:	or     BYTE PTR ds:0x81120020,al
  4099fb:	dec    ecx
  4099fc:	add    esp,DWORD PTR [eax]
  4099fe:	add    BYTE PTR [esp+eax*1],bl
  409a01:	add    BYTE PTR [ecx],al
  409a03:	add    cl,BYTE PTR [esi]
  409a05:	pop    es
  409a06:	pop    es
  409a07:	add    ecx,DWORD PTR [esi]
  409a09:	push   cs
  409a0a:	adc    al,BYTE PTR [ecx+0x200445]
  409a10:	adc    ch,BYTE PTR ds:0x12010704
  409a16:	xor    DWORD PTR ds:0x81120020,eax
  409a1c:	dec    ebp
  409a1d:	add    al,0x20
  409a1f:	add    BYTE PTR ds:0x1200505,bl
  409a25:	add    DWORD PTR ds:0x200505,ebx
  409a2b:	adc    al,BYTE PTR [ecx+0x3200a55]
  409a31:	add    DWORD PTR [edx],edx
  409a33:	adc    DWORD PTR [ecx+0xe],0x7558112
  409a3a:	pop    es
  409a3b:	add    dl,BYTE PTR [edx]
  409a3d:	or     DWORD PTR [ebp+0x1d],0x2200905
  409a44:	adc    al,BYTE PTR [ecx+0x5d81125d]
  409a4a:	push   cs
  409a4b:	push   es
  409a4c:	add    BYTE PTR [ecx],al
  409a4e:	adc    al,BYTE PTR [ecx+0x30060e61]
  409a54:	add    DWORD PTR [ecx],eax
  409a56:	add    DWORD PTR [esi],ebx
  409a58:	add    BYTE PTR ds:0x8112010a,al
  409a5e:	popa   
  409a5f:	push   es
  409a60:	add    BYTE PTR [ecx],al
  409a62:	adc    al,BYTE PTR [ecx+0xa050e65]
  409a68:	add    DWORD PTR [edx],edx
  409a6a:	and    DWORD PTR [ebp+0x7],0x3d120100
  409a71:	adc    al,BYTE PTR [ecx+0x2200931]
  409a77:	push   cs
  409a78:	adc    DWORD PTR [ecx+0x7181116d],eax
  409a7e:	add    al,0x20
  409a80:	add    BYTE PTR ds:0x200050e,bl
  409a86:	push   cs
  409a87:	push   cs
  409a88:	push   cs
  409a89:	pop    es
  409a8a:	and    BYTE PTR [edx],al
  409a8c:	add    DWORD PTR [ecx],edx
  409a8e:	cmp    DWORD PTR [ecx+0xe],0x12012008
  409a95:	or     DWORD PTR [ecx+0x12],0x7114981
  409a9c:	or     BYTE PTR [edx],dl
  409a9e:	sbb    DWORD PTR [ebp+0x12],0x81123181
  409aa5:	popa   
  409aa6:	adc    bh,BYTE PTR ds:0x8080e0e
  409aac:	add    al,0x0
  409aae:	add    BYTE PTR [edx],dl
  409ab0:	dec    ecx
  409ab1:	pop    es
  409ab2:	add    BYTE PTR [edx],al
  409ab4:	add    dl,BYTE PTR [edx]
  409ab6:	dec    ebp
  409ab7:	adc    cl,BYTE PTR [ebp+0x5]
  409aba:	and    BYTE PTR [ecx],al
  409abc:	add    DWORD PTR [edx],edx
  409abe:	dec    ebp
  409abf:	or     BYTE PTR [eax],ah
  409ac1:	add    eax,DWORD PTR [ecx]
  409ac3:	push   cs
  409ac4:	adc    bl,BYTE PTR [ecx+0x12]
  409ac7:	inc    ebp
  409ac8:	or     DWORD PTR [eax],esp
  409aca:	add    DWORD PTR ds:0x11818112,ebx
  409ad0:	add    DWORD PTR [ebp+0x11002005],0x68d81
  409ada:	add    DWORD PTR [ecx],eax
  409adc:	adc    DWORD PTR [ecx+0x4200b8d],eax
  409ae2:	add    DWORD PTR [edx],edx
  409ae4:	inc    ecx
  409ae5:	adc    dl,BYTE PTR [ebp+0x12]
  409ae8:	or     eax,0x72a4512
  409aed:	adc    DWORD PTR [edx],edx
  409aef:	or     al,0x12
  409af1:	sbb    DWORD PTR [ecx+0x12],0x4d127d81
  409af8:	adc    cl,BYTE PTR [ecx+0x1d]
  409afb:	adc    al,BYTE PTR [ecx+0x12491281]
  409b01:	add    DWORD PTR [ecx+0x41120d12],0x2d124912
  409b0b:	sbb    eax,0x81121d1c
  409b10:	or     DWORD PTR [eax],0x1c1d1c1d
  409b16:	add    eax,0x12010120
  409b1b:	inc    ebp
  409b1c:	push   es
  409b1d:	and    BYTE PTR [ecx],al
  409b1f:	add    DWORD PTR [ecx],edx
  409b21:	sbb    DWORD PTR [ebp+0x1c032009],0xe5d8112
  409b2b:	adc    cl,BYTE PTR [ebp+0xa]
  409b2e:	add    BYTE PTR [ebx],al
  409b30:	adc    al,BYTE PTR [ecx+0x12]
  409b33:	adc    DWORD PTR [edx],edx
  409b35:	sbb    DWORD PTR [ecx+0x3070a0e],0x125d8112
  409b3f:	sbb    DWORD PTR [ecx+0x51112],0xe391201
  409b49:	add    eax,0x81120000
  409b4e:	mov    eax,ds:0x12002005
  409b53:	and    DWORD PTR [ebp+0x2022007],0xb181110e
  409b5d:	adc    DWORD PTR [edi],eax
  409b5f:	pop    es
  409b60:	add    al,BYTE PTR [edx]
  409b62:	adc    al,BYTE PTR [ecx-0x5e7fed53]
  409b68:	adc    al,BYTE PTR [ecx+0x1d1c1d95]
  409b6e:	sbb    al,0x5
  409b70:	and    BYTE PTR [eax],al
  409b72:	adc    DWORD PTR [ecx+0x20031d],eax
  409b78:	or     eax,0xe022005
  409b7d:	or     BYTE PTR [eax],cl
  409b7f:	or     DWORD PTR [edi],eax
  409b81:	add    eax,0xe0d0d08
  409b86:	adc    DWORD PTR [ecx+0x100071d],eax
  409b8c:	adc    bh,BYTE PTR [ecx]
  409b8e:	adc    al,BYTE PTR [ecx+0x120054d]
  409b94:	adc    cl,BYTE PTR [ebp+0xe]
  409b97:	pop    es
  409b98:	adc    eax,0x1b98112
  409b9d:	adc    cl,BYTE PTR [ebp+0x5]
  409ba0:	and    BYTE PTR [eax],al
  409ba2:	sbb    eax,0x20054d12
  409ba7:	add    DWORD PTR [ecx],eax
  409ba9:	adc    eax,DWORD PTR [eax]
  409bab:	add    eax,0x130120
  409bb0:	or     BYTE PTR [ecx],cl
  409bb2:	and    BYTE PTR [eax],al
  409bb4:	adc    eax,0x1bd8111
  409bb9:	adc    eax,DWORD PTR [eax]
  409bbb:	pop    es
  409bbc:	adc    eax,0x1bd8111
  409bc1:	adc    cl,BYTE PTR [ebp+0x4]
  409bc4:	and    BYTE PTR [eax],al
  409bc6:	adc    eax,DWORD PTR [eax]
  409bc8:	add    eax,0x81120000
  409bcd:	adc    DWORD PTR [edi],ebx
  409bcf:	pop    es
  409bd0:	or     DWORD PTR [edx],edx
  409bd2:	or     DWORD PTR [ebp+0x12],0x81121539
  409bd9:	mov    ecx,0x124d1201
  409bde:	dec    ebp
  409bdf:	adc    cl,BYTE PTR [ebp+0x1d]
  409be2:	adc    cl,BYTE PTR [ebp+0x8]
  409be5:	sbb    eax,0x8111151c
  409bea:	mov    ebp,0x94d1201
  409bef:	add    BYTE PTR [edx],al
  409bf1:	adc    cl,BYTE PTR ds:0x12118112
  409bf7:	push   ecx
  409bf8:	add    al,0x20
  409bfa:	add    DWORD PTR [ebx],eax
  409bfc:	or     BYTE PTR [edi],al
  409bfe:	add    BYTE PTR [edx],al
  409c00:	adc    cl,BYTE PTR ds:0x651120e
  409c06:	pop    es
  409c07:	add    al,0x2
  409c09:	add    ecx,DWORD PTR [esi]
  409c0b:	or     BYTE PTR ds:0xe0e0220,al
  409c11:	push   cs
  409c12:	add    eax,DWORD PTR [edi]
  409c14:	add    DWORD PTR [esi],ecx
  409c16:	add    al,0x7
  409c18:	add    DWORD PTR ds:0x307051c,ebx
  409c1e:	push   cs
  409c1f:	or     BYTE PTR [esi],cl
  409c21:	add    al,0x20
  409c23:	add    DWORD PTR [esi],ecx
  409c25:	or     BYTE PTR ds:0xe020200,al
  409c2b:	push   cs
  409c2c:	add    eax,0x2010220
  409c31:	add    al,BYTE PTR [eax+eiz*1]
  409c34:	add    DWORD PTR [eax],ecx
  409c36:	add    eax,DWORD PTR [esi]
  409c38:	and    BYTE PTR [ebx],al
  409c3a:	add    DWORD PTR [esi],ecx
  409c3c:	push   cs
  409c3d:	sbb    al,0xc
  409c3f:	pop    es
  409c40:	or     DWORD PTR [edx],edx
  409c42:	or     al,0xe
  409c44:	or     BYTE PTR [esi],cl
  409c46:	push   cs
  409c47:	push   cs
  409c48:	or     BYTE PTR [eax],cl
  409c4a:	push   cs
  409c4b:	add    eax,0x31120120
  409c50:	add    eax,DWORD PTR [edi]
  409c52:	pop    es
  409c53:	add    al,0x12
  409c55:	xor    DWORD PTR [ebx],eax
  409c57:	push   cs
  409c58:	or     BYTE PTR [ebx],cl
  409c5a:	add    BYTE PTR [esi],al
  409c5c:	or     BYTE PTR [esi],cl
  409c5e:	or     BYTE PTR [esi],cl
  409c60:	or     BYTE PTR [eax],cl
  409c62:	adc    DWORD PTR [ecx+0x10703b1],eax
  409c68:	or     BYTE PTR [edi+eax*1],al
  409c6b:	add    cl,BYTE PTR [eax]
  409c6d:	or     BYTE PTR [edi],al
  409c6f:	and    BYTE PTR [edx],al
  409c71:	add    DWORD PTR [ecx],edx
  409c73:	add    ebp,0x20040e
  409c79:	adc    DWORD PTR [ecx+0x4],esp
  409c7c:	and    BYTE PTR [eax],al
  409c7e:	adc    bl,BYTE PTR [ebp+0x8]
  409c81:	add    BYTE PTR [edx],al
  409c83:	adc    cl,BYTE PTR ds:0x51121112
  409c89:	push   es
  409c8a:	pop    es
  409c8b:	add    dl,BYTE PTR [edx]
  409c8d:	adc    DWORD PTR [edx],edx
  409c8f:	adc    al,0x5
  409c91:	pop    es
  409c92:	add    DWORD PTR [edx],edx
  409c94:	or     ecx,0x1012006
  409c9a:	adc    DWORD PTR [ecx+0x108d9],eax
  409ca0:	(bad)  
  409ca1:	jg     0x409ca3
  409ca3:	add    BYTE PTR [eax],al
  409ca5:	add    BYTE PTR [edi],al
  409ca7:	add    BYTE PTR [ebx],al
  409ca9:	sbb    al,0x10
  409cab:	sbb    al,0x1c
  409cad:	sbb    al,0x3
  409caf:	pop    es
  409cb0:	add    DWORD PTR [esp+eax*1],ebx
  409cb3:	and    BYTE PTR [eax],al
  409cb5:	adc    bh,BYTE PTR [ecx]
  409cb7:	push   es
  409cb8:	and    BYTE PTR [edx],al
  409cba:	add    DWORD PTR [esi],ecx
  409cbc:	adc    bh,BYTE PTR [ecx]
  409cbe:	push   es
  409cbf:	add    BYTE PTR [edx],al
  409cc1:	add    DWORD PTR [eax+edx*1],ebx
  409cc4:	add    al,BYTE PTR [eax+eax*1]
  409cc7:	add    DWORD PTR [ecx],eax
  409cc9:	sbb    al,0x4
  409ccb:	pop    es
  409ccc:	add    al,BYTE PTR [edx]
  409cce:	sbb    al,0x7
  409cd0:	and    BYTE PTR [edx],al
  409cd2:	push   cs
  409cd3:	push   cs
  409cd4:	adc    al,BYTE PTR [eax+0x3000981]
  409cda:	push   cs
  409cdb:	adc    al,BYTE PTR [ecx+0x1c1d0ee5]
  409ce1:	add    eax,0x20120207
  409ce6:	push   cs
  409ce7:	add    al,0x7
  409ce9:	add    DWORD PTR [edx],edx
  409ceb:	and    BYTE PTR [edi],al
  409ced:	and    BYTE PTR [edx],al
  409cef:	sbb    al,0xe
  409cf1:	adc    al,BYTE PTR [eax+0x6070981]
  409cf7:	adc    ch,BYTE PTR [eax]
  409cf9:	push   cs
  409cfa:	push   cs
  409cfb:	or     BYTE PTR [esi],cl
  409cfd:	or     BYTE PTR [eax+eiz*1],al
  409d00:	add    DWORD PTR [edx],eax
  409d02:	push   cs
  409d03:	pop    es
  409d04:	add    BYTE PTR [esi+ecx*1],al
  409d07:	push   cs
  409d08:	push   cs
  409d09:	push   cs
  409d0a:	push   cs
  409d0b:	push   es
  409d0c:	and    BYTE PTR [ecx],al
  409d0e:	sbb    eax,0x6031d0e
  409d13:	and    BYTE PTR [ecx],al
  409d15:	adc    al,BYTE PTR [eax+0x7140e91]
  409d1b:	or     ebx,DWORD PTR ds:0x828120e
  409d21:	or     BYTE PTR [edx],dl
  409d23:	xor    al,0x1d
  409d25:	push   cs
  409d26:	push   cs
  409d27:	adc    ch,BYTE PTR [eax]
  409d29:	sbb    eax,0x80e1d03
  409d2e:	push   es
  409d2f:	and    BYTE PTR [ecx],al
  409d31:	sbb    al,0x12
  409d33:	adc    BYTE PTR [ecx+0x8040709],0x1d
  409d3a:	sbb    al,0x8
  409d3c:	adc    al,BYTE PTR [eax+0x4070991]
  409d42:	or     BYTE PTR ds:0x80120808,bl
  409d48:	xchg   ecx,eax
  409d49:	or     al,0x7
  409d4b:	add    eax,0x1d080e1d
  409d50:	adc    al,BYTE PTR [eax+0x31d0891]
  409d56:	push   es
  409d57:	add    BYTE PTR [edx],al
  409d59:	push   cs
  409d5a:	push   cs
  409d5b:	sbb    eax,0x107040e
  409d60:	sbb    eax,0x120040e
  409d65:	sbb    al,0x8
  409d67:	add    eax,0x81120020
  409d6c:	stc    
  409d6d:	add    eax,0x81110020
  409d72:	std    
  409d73:	push   cs
  409d74:	pop    es
  409d75:	add    al,0x12
  409d77:	or     BYTE PTR [ecx+0x12918012],0x81
  409d7e:	cmc    
  409d7f:	adc    DWORD PTR [ecx+0x2005fd],eax
  409d85:	adc    DWORD PTR [edx+0x1200605],eax
  409d8b:	add    dl,BYTE PTR [ecx]
  409d8d:	or     BYTE PTR [ecx],0x5
  409d90:	pop    es
  409d91:	add    DWORD PTR [edx],edx
  409d93:	or     BYTE PTR [ecx+0xe012006],0x12
  409d9a:	and    ebp,0x12012006
  409da0:	adc    BYTE PTR [ecx],0xe
  409da3:	push   es
  409da4:	and    BYTE PTR [ecx],al
  409da6:	add    DWORD PTR [edx],edx
  409da8:	adc    BYTE PTR ds:0x1c022008,0x12
  409daf:	adc    BYTE PTR [ecx],0x12
  409db2:	and    eax,0x8012004
  409db7:	sbb    al,0x19
  409db9:	pop    es
  409dba:	or     edx,DWORD PTR [edx]
  409dbc:	or     BYTE PTR ds:0x1c118212,0x12
  409dc3:	and    eax,0x12198212
  409dc8:	sbb    BYTE PTR ds:0x1c218212,0x1d
  409dcf:	push   cs
  409dd0:	or     BYTE PTR [eax],cl
  409dd2:	push   es
  409dd3:	add    BYTE PTR [ebx],al
  409dd5:	push   cs
  409dd6:	push   cs
  409dd7:	push   cs
  409dd8:	push   cs
  409dd9:	or     BYTE PTR [eax],al
  409ddb:	add    DWORD PTR [edx],edx
  409ddd:	and    BYTE PTR ds:0x5fd8111,0x20
  409de4:	add    BYTE PTR [edx],dl
  409de6:	sub    BYTE PTR [ecx],0x6
  409de9:	and    BYTE PTR [edx],al
  409deb:	sbb    al,0x1c
  409ded:	adc    cl,BYTE PTR [ebp+0x6]
  409df0:	and    BYTE PTR [ecx],al
  409df2:	adc    al,BYTE PTR [ecx+0x20090e81]
  409df8:	add    dl,BYTE PTR [edx]
  409dfa:	add    DWORD PTR [ecx+0x4d121d0e],0x1c022006
  409e04:	sbb    al,0x1d
  409e06:	sbb    al,0x1e
  409e08:	pop    es
  409e09:	push   cs
  409e0a:	add    dl,BYTE PTR [edx]
  409e0c:	adc    BYTE PTR [ecx],0x1c
  409e0f:	adc    al,BYTE PTR [ecx-0x7dede30b]
  409e15:	sub    eax,0x12020d0e
  409e1a:	dec    ebp
  409e1b:	adc    al,BYTE PTR [ecx-0x7e7eed7f]
  409e21:	sbb    eax,0x1c1d4d12
  409e26:	or     al,0x7
  409e28:	pop    es
  409e29:	push   cs
  409e2a:	push   cs
  409e2b:	sbb    eax,0x1d0e0e0e
  409e30:	add    ebx,DWORD PTR ds:0x1215080e
  409e36:	cmp    DWORD PTR [ecx-0x767fedff],0x1d002005
  409e40:	adc    eax,DWORD PTR [eax]
  409e42:	or     al,BYTE PTR [edi]
  409e44:	add    DWORD PTR ds:0x1b98112,edx
  409e4a:	adc    al,BYTE PTR [eax+0x4070889]
  409e50:	push   cs
  409e51:	push   cs
  409e52:	push   cs
  409e53:	adc    DWORD PTR [edx+0x505],eax
  409e59:	adc    al,BYTE PTR [edx+0x2200731]
  409e5f:	push   cs
  409e60:	push   cs
  409e61:	adc    al,BYTE PTR [ecx+0x30708e5]
  409e67:	adc    ah,BYTE PTR ds:0x9580110d
  409e6d:	add    al,0x0
  409e6f:	add    DWORD PTR ds:0x200070e,ecx
  409e75:	or     eax,0xe581121c
  409e7a:	or     BYTE PTR [edi],al
  409e7c:	add    edx,DWORD PTR [edx]
  409e7e:	and    eax,0x9580110e
  409e83:	add    al,0x0
  409e85:	add    DWORD PTR [edx],eax
  409e87:	or     eax,0x80121507
  409e8c:	cdq    
  409e8d:	add    cl,BYTE PTR [esi]
  409e8f:	push   cs
  409e90:	pop    es
  409e91:	and    BYTE PTR [edx],al
  409e93:	add    DWORD PTR [ebx],edx
  409e95:	add    BYTE PTR [ebx],dl
  409e97:	add    DWORD PTR [edx],ecx
  409e99:	adc    eax,0x2998012
  409e9e:	adc    al,BYTE PTR [eax+0x12211285]
  409ea4:	pop    es
  409ea5:	push   es
  409ea6:	adc    al,BYTE PTR [eax-0x767fed6f]
  409eac:	adc    al,BYTE PTR [eax-0x7fedf177]
  409eb2:	mov    eax,ds:0x6958112
  409eb7:	and    BYTE PTR [ecx],al
  409eb9:	adc    eax,DWORD PTR [ecx]
  409ebb:	adc    eax,DWORD PTR [eax]
  409ebd:	or     BYTE PTR [eax],ah
  409ebf:	add    al,BYTE PTR [edx]
  409ec1:	adc    eax,DWORD PTR [eax]
  409ec3:	adc    BYTE PTR [ebx],dl
  409ec5:	add    DWORD PTR [eax],ecx
  409ec7:	pop    es
  409ec8:	add    ecx,DWORD PTR [esi]
  409eca:	adc    al,BYTE PTR [eax+0x5211285]
  409ed0:	and    BYTE PTR [ecx],al
  409ed2:	add    dl,BYTE PTR [ebx]
  409ed4:	add    BYTE PTR [eax],cl
  409ed6:	pop    es
  409ed7:	add    dl,BYTE PTR [edx]
  409ed9:	adc    BYTE PTR [ecx+0x4898012],0x7
  409ee0:	add    DWORD PTR [edx],edx
  409ee2:	cmp    al,0x37
  409ee4:	add    DWORD PTR [eax],eax
  409ee6:	sbb    ch,BYTE PTR [esi]
  409ee8:	dec    esi
  409ee9:	inc    ebp
  409eea:	push   esp
  409eeb:	inc    esi
  409eec:	jb     0x409f4f
  409eee:	ins    DWORD PTR es:[edi],dx
  409eef:	gs ja  0x409f61
  409ef2:	jb     0x409f5f
  409ef4:	sub    al,0x56
  409ef6:	gs jb  0x409f6c
  409ef9:	imul   ebp,DWORD PTR [edi+0x6e],0x2e34763d
  409f00:	xor    eax,0xe540001
  409f05:	adc    al,0x46
  409f07:	jb     0x409f6a
  409f09:	ins    DWORD PTR es:[edi],dx
  409f0a:	gs ja  0x409f7c
  409f0d:	jb     0x409f7a
  409f0f:	inc    esp
  409f10:	imul   esi,DWORD PTR [ebx+0x70],0x4e79616c
  409f17:	popa   
  409f18:	ins    DWORD PTR es:[edi],dx
  409f19:	add    BYTE PTR gs:0x1,al
  409f20:	add    BYTE PTR ds:0x10001,al
  409f26:	add    BYTE PTR [ebx],ah
  409f28:	add    DWORD PTR [eax],eax
  409f2a:	push   ds
  409f2b:	dec    ebp
  409f2c:	imul   esp,DWORD PTR [ebx+0x72],0x666f736f
  409f33:	je     0x409f63
  409f35:	pop    eax
  409f36:	jae    0x409fa4
  409f38:	inc    esp
  409f39:	bound  esi,QWORD PTR gs:[ebp+0x67]
  409f3d:	addr16 gs jb 0x409f6f
  409f41:	dec    eax
  409f42:	outs   dx,DWORD PTR ds:[esi]
  409f43:	jae    0x409fb9
  409f45:	cs gs js 0x409fae
  409f49:	add    BYTE PTR [eax],al
  409f4b:	sbb    al,BYTE PTR [ecx]
  409f4d:	add    BYTE PTR ds:0x7263694d,dl
  409f53:	outs   dx,DWORD PTR ds:[esi]
  409f54:	jae    0x409fc5
  409f56:	data16 je 0x409f79
  409f59:	inc    ebx
  409f5a:	outs   dx,DWORD PTR ds:[esi]
  409f5b:	jb     0x409fcd
  409f5d:	outs   dx,DWORD PTR ds:[esi]
  409f5e:	jb     0x409fc1
  409f60:	je     0x409fcb
  409f62:	outs   dx,DWORD PTR ds:[esi]
  409f63:	outs   dx,BYTE PTR ds:[esi]
  409f64:	add    BYTE PTR [eax],al
  409f66:	and    eax,0x4d200001
  409f6b:	imul   esp,DWORD PTR [ebx+0x72],0x666f736f
  409f72:	je     0x409f36
  409f74:	scas   al,BYTE PTR es:[edi]
  409f75:	and    BYTE PTR [esi+0x69],dl
  409f78:	jae    0x409fef
  409f7a:	popa   
  409f7b:	ins    BYTE PTR es:[edi],dx
  409f7c:	and    BYTE PTR [ebx+0x74],dl
  409f7f:	jne    0x409fe5
  409f81:	imul   ebp,DWORD PTR [edi-0x3e],0x303220ae
  409f88:	xor    DWORD PTR [edx],esi
  409f8a:	add    BYTE PTR [eax],al
  409f8c:	xor    eax,DWORD PTR [ecx]
  409f8e:	add    BYTE PTR [esi],ch
  409f90:	ret    0x20a9
  409f93:	dec    ebp
  409f94:	imul   esp,DWORD PTR [ebx+0x72],0x666f736f
  409f9b:	je     0x409fbd
  409f9d:	inc    ebx
  409f9e:	outs   dx,DWORD PTR ds:[esi]
  409f9f:	jb     0x40a011
  409fa1:	outs   dx,DWORD PTR ds:[esi]
  409fa2:	jb     0x40a005
  409fa4:	je     0x40a00f
  409fa6:	outs   dx,DWORD PTR ds:[esi]
  409fa7:	outs   dx,BYTE PTR ds:[esi]
  409fa8:	and    BYTE PTR cs:[ecx+0x6c],al
  409fac:	ins    BYTE PTR es:[edi],dx
  409fad:	and    BYTE PTR [edx+0x69],dh
  409fb0:	addr16 push 0x72207374
  409fb6:	gs jae 0x40a01e
  409fb9:	jb     0x40a031
  409fbb:	gs fs add BYTE PTR cs:[eax],al
  409fc0:	adc    DWORD PTR [ecx],eax
  409fc2:	add    BYTE PTR [ecx+esi*1],cl
  409fc5:	xor    DWORD PTR [esi],ebp
  409fc7:	xor    BYTE PTR [esi],ch
  409fc9:	xor    eax,0x37323730
  409fce:	xor    DWORD PTR cs:[eax],eax
  409fd1:	add    BYTE PTR ds:0x31080001,cl
  409fd7:	xor    DWORD PTR [esi],ebp
  409fd9:	xor    BYTE PTR [esi],ch
  409fdb:	xor    BYTE PTR [esi],ch
  409fdd:	xor    BYTE PTR [eax],al
  409fdf:	add    BYTE PTR [edx],cl
  409fe1:	add    DWORD PTR [eax],eax
  409fe3:	add    eax,0x552d6e65
  409fe8:	push   ebx
  409fe9:	add    BYTE PTR [eax],al
  409feb:	sub    al,BYTE PTR [ecx]
  409fed:	add    BYTE PTR ds:0x645c3a46,ah
  409ff3:	fs pop esp
  409ff5:	je     0x40a066
  409ff7:	outs   dx,DWORD PTR ds:[esi]
  409ff8:	ins    BYTE PTR es:[edi],dx
  409ff9:	jae    0x40a057
  409ffb:	fs gs jbe 0x40a063
  409fff:	imul   esi,DWORD PTR [esi+0x5c],0x616e6946
  40a006:	ins    BYTE PTR es:[edi],dx
  40a007:	push   eax
  40a008:	jne    0x40a06c
  40a00a:	ins    BYTE PTR es:[edi],dx
  40a00b:	imul   esp,DWORD PTR [ebx+0x4b],0x732e7965
  40a012:	outs   dx,BYTE PTR ds:[esi]
  40a013:	imul   eax,DWORD PTR [eax],0x0
  40a016:	or     DWORD PTR [eax+0x1],0x0
  40a01a:	add    BYTE PTR [eax+0x30],0x30
  40a01e:	xor    dh,BYTE PTR [eax+esi*1]
  40a021:	xor    BYTE PTR [eax],dh
  40a023:	xor    BYTE PTR [eax],dh
  40a025:	arpl   WORD PTR [eax],di
  40a027:	xor    BYTE PTR [eax],dh
  40a029:	xor    BYTE PTR [eax],dh
  40a02b:	xor    BYTE PTR [ecx],dh
  40a02d:	xor    al,0x30
  40a02f:	xor    DWORD PTR [eax],esi
  40a031:	xor    BYTE PTR [eax],dh
  40a033:	xor    BYTE PTR [eax],dh
  40a035:	xor    BYTE PTR ss:[edx],dh
  40a038:	xor    BYTE PTR [eax],dh
  40a03a:	xor    BYTE PTR [eax],dh
  40a03c:	xor    BYTE PTR [eax],dh
  40a03e:	xor    dh,BYTE PTR [eax+esi*1]
  40a041:	xor    BYTE PTR [eax],dh
  40a043:	xor    BYTE PTR ds:0x34333532,dh
  40a049:	xor    DWORD PTR [ebx],esi
  40a04b:	xor    DWORD PTR [eax],esi
  40a04d:	xor    BYTE PTR [eax],dh
  40a04f:	cmp    BYTE PTR [eax],dh
  40a051:	xor    BYTE PTR [eax],dh
  40a053:	xor    BYTE PTR [eax],dh
  40a055:	xor    DWORD PTR [eax],esi
  40a057:	xor    BYTE PTR [eax],dh
  40a059:	xor    DWORD PTR [eax],esi
  40a05b:	xor    BYTE PTR [esi],dh
  40a05d:	xor    DWORD PTR [ebx],esi
  40a05f:	xor    edi,DWORD PTR [ecx]
  40a061:	cmp    DWORD PTR [ecx+0x66],esp
  40a064:	xor    WORD PTR [eax],di
  40a067:	xor    WORD PTR gs:[ecx+0x32],sp
  40a06c:	arpl   WORD PTR [edx],si
  40a06e:	xor    eax,0x32613431
  40a073:	aaa    
  40a074:	xor    esp,DWORD PTR [ecx+0x34]
  40a077:	xor    ah,BYTE PTR [ecx+edi*1+0x30]
  40a07b:	xor    al,0x32
  40a07d:	bound  esi,QWORD PTR [edi]
  40a07f:	xor    dh,BYTE PTR [ebx]
  40a081:	xor    dh,BYTE PTR [ecx]
  40a083:	xor    WORD PTR [edi],si
  40a086:	xor    eax,0x32303137
  40a08b:	cmp    WORD PTR fs:[ebp+0x62],sp
  40a090:	popa   
  40a091:	fs popa 
  40a093:	cmp    DWORD PTR ss:[ecx],edi
  40a096:	xor    dh,BYTE PTR [ebx]
  40a098:	xor    dh,BYTE PTR gs:[edi]
  40a09b:	xor    edi,DWORD PTR [eax]
  40a09d:	xor    al,0x30
  40a09f:	arpl   WORD PTR ss:[edx],si
  40a0a2:	xor    DWORD PTR [ebp+0x35],esp
  40a0a5:	bound  edi,QWORD PTR [eax]
  40a0a7:	xor    BYTE PTR [ecx],dh
  40a0a9:	xor    eax,0x62613235
  40a0ae:	cmp    BYTE PTR [edx+esi*1+0x30],ah
  40a0b2:	xor    BYTE PTR [ecx+0x36],ah
  40a0b5:	xor    eax,0x35333261
  40a0ba:	xor    BYTE PTR gs:[eax],dh
  40a0bd:	xor    DWORD PTR [ecx+0x63],esp
  40a0c0:	cmp    DWORD PTR [ecx+0x64],esp
  40a0c3:	arpl   WORD PTR [edx],si
  40a0c5:	xor    eax,0x38643266
  40a0ca:	xor    DWORD PTR [ecx],esi
  40a0cc:	bound  esi,QWORD PTR gs:[eax]
  40a0cf:	cmp    DWORD PTR [ecx+edi*1],esi
  40a0d2:	ss popa 
  40a0d4:	xor    al,0x63
  40a0d6:	ss popa 
  40a0d8:	xor    eax,0x36346439
  40a0dd:	xor    DWORD PTR [ecx],edi
  40a0df:	xor    eax,0x36633938
  40a0e4:	cmp    DWORD PTR [esi+0x35],esp
  40a0e7:	bound  esp,QWORD PTR [ecx+0x66]
  40a0ea:	xor    BYTE PTR [ebx+0x34],ah
  40a0ed:	xor    DWORD PTR [edi],esi
  40a0ef:	cmp    DWORD PTR [ecx+0x34],esp
  40a0f2:	aaa    
  40a0f3:	xor    esi,DWORD PTR [ecx]
  40a0f5:	xor    DWORD PTR [ecx+edi*1+0x32],esp
  40a0f9:	xor    eax,0x64633535
  40a0fe:	xor    BYTE PTR [eax],dh
  40a100:	ss popa 
  40a102:	arpl   WORD PTR [ebx+0x38],sp
  40a105:	bound  esi,QWORD PTR ds:0x66393539
  40a10b:	xor    ah,BYTE PTR [edx+0x64]
  40a10e:	ss xor DWORD PTR gs:[eax],esi
  40a112:	xor    esi,DWORD PTR gs:[esi]
  40a115:	xor    BYTE PTR [ebx+0x33],ah
  40a118:	xor    al,0x35
  40a11a:	xor    esi,DWORD PTR [edi]
  40a11c:	popa   
  40a11d:	xor    DWORD PTR [edx+esi*1+0x36],esp
  40a121:	ss fs popa 
  40a124:	cmp    BYTE PTR [eax],dh
  40a126:	cmp    BYTE PTR ds:0x35363538,dh
  40a12c:	cmp    BYTE PTR [ebx],dh
  40a12e:	arpl   WORD PTR [eax],di
  40a130:	xor    eax,0x64313864
  40a135:	popa   
  40a136:	aaa    
  40a137:	xor    sp,WORD PTR [ebp+0x63]
  40a13b:	xor    BYTE PTR [ecx],dh
  40a13d:	gs cmp DWORD PTR fs:0x35633436,esi
  40a145:	cmp    BYTE PTR [ecx+edi*1+0x33],ah
  40a149:	fs aaa 
  40a14b:	xor    DWORD PTR [ebx],esi
  40a14d:	arpl   WORD PTR [eax+esi*1+0x31],sp
  40a151:	aaa    
  40a152:	xor    ah,BYTE PTR [ebx+0x38]
  40a155:	xor    dh,BYTE PTR gs:[ebx]
  40a158:	popa   
  40a159:	xor    DWORD PTR [eax],esi
  40a15b:	data16 xor BYTE PTR [edx],dh
  40a15e:	xor    edi,DWORD PTR [ecx]
  40a160:	bound  edi,QWORD PTR [eax]
  40a162:	xor    BYTE PTR [ebx+0x39],ah
  40a165:	bound  esi,QWORD PTR ss:[eax]
  40a168:	aaa    
  40a169:	aaa    
  40a16a:	xor    esi,DWORD PTR [esi]
  40a16c:	xor    ax,0x3864
  40a170:	bound  esi,QWORD PTR [eax]
  40a172:	xor    dh,BYTE PTR [edx]
  40a174:	xor    eax,0x34613234
  40a179:	gs aaa 
  40a17b:	xor    al,0x32
  40a17d:	xor    eax,0x66356131
  40a182:	xor    al,0x33
  40a184:	xor    bh,BYTE PTR [eax]
  40a186:	xor    dh,BYTE PTR [ebx+esi*1]
  40a189:	xor    DWORD PTR [eax],edi
  40a18b:	bound  esi,QWORD PTR [ebx]
  40a18d:	xor    eax,0x35613933
  40a192:	popa   
  40a193:	xor    BYTE PTR [eax],bh
  40a195:	aaa    
  40a196:	data16 cmp BYTE PTR [ebp+0x35],ah
  40a19a:	xor    esp,DWORD PTR [edx+esi*1+0x66]
  40a19e:	xor    DWORD PTR [ebx],esi
  40a1a0:	xor    eax,0x61633966
  40a1a5:	xor    al,0x37
  40a1a7:	xor    sp,WORD PTR [edx+0x62]
  40a1ab:	xor    ah,BYTE PTR [ebp+0x31]
  40a1ae:	xor    BYTE PTR [ecx+0x66],ah
  40a1b1:	data16 xor BYTE PTR [ecx+0x66],ah
  40a1b5:	xor    BYTE PTR [eax],bh
  40a1b7:	xor    al,0x39
  40a1b9:	xor    eax,0x62663430
  40a1be:	aaa    
  40a1bf:	arpl   WORD PTR [ebp+0x61],sp
  40a1c2:	xor    esp,DWORD PTR [esi+0x66]
  40a1c5:	xor    DWORD PTR [ecx],edi
  40a1c7:	xor    ah,BYTE PTR [ebx+eiz*2+0x38]
  40a1cb:	fs xor BYTE PTR gs:[ebp+0x64],ah
  40a1d0:	popa   
  40a1d1:	fs ss xor al,0x63
  40a1d5:	cmp    BYTE PTR ss:[ebp+0x66],ah
  40a1d9:	fs xor esi,DWORD PTR gs:[ebx+eiz*2]
  40a1de:	xor    eax,0x30336436
  40a1e3:	xor    ah,BYTE PTR [ecx+0x64]
  40a1e6:	xor    eax,0x36646635
  40a1eb:	cmp    BYTE PTR gs:[eax],dh
  40a1ee:	xor    si,WORD PTR [eax]
  40a1f1:	xor    ah,BYTE PTR [ebp+esi*1+0x65]
  40a1f5:	data16 arpl WORD PTR [ebp+eiz*2+0x61],sp
  40a1fa:	cmp    DWORD PTR gs:0x38353633,esi
  40a201:	xor    esi,DWORD PTR fs:[esi*1+0x31363532]
  40a209:	bound  esi,QWORD PTR ds:0x63363366
  40a20f:	xor    eax,0x66653234
  40a214:	bound  esp,QWORD PTR fs:[esp+eiz*2+0x39]
  40a219:	data16 cmp BYTE PTR [eax],bh
  40a21c:	cmp    BYTE PTR ds:0x33643833,dh
  40a222:	aaa    
  40a223:	xor    al,0x63
  40a225:	xor    WORD PTR gs:[eax],si
  40a229:	ss popa 
  40a22b:	arpl   WORD PTR [esi+0x37],sp
  40a22e:	cmp    DWORD PTR fs:[ebx],esi
  40a231:	popa   
  40a232:	xor    al,0x34
  40a234:	xor    al,0x35
  40a236:	arpl   WORD PTR [ebx],si
  40a238:	arpl   WORD PTR [edi],si
  40a23a:	xor    esp,DWORD PTR [ebx+0x64]
  40a23d:	cmp    DWORD PTR [ecx],esi
  40a23f:	xor    DWORD PTR [esi+0x30],esp
  40a242:	xor    eax,0x61613137
  40a247:	xor    sp,WORD PTR [ebp+esi*1+0x34]
  40a24c:	fs popa 
  40a24e:	xor    DWORD PTR [edx],esi
  40a250:	bound  esi,QWORD PTR [ecx]
  40a252:	xor    DWORD PTR [esp+eiz*2+0x65],esp
  40a256:	arpl   WORD PTR [ebx],si
  40a258:	aaa    
  40a259:	xor    eax,0x813362
  40a25e:	popa   
  40a25f:	xor    eax,0x36363861
  40a264:	xor    DWORD PTR gs:[ebp+0x65],esp
  40a268:	xor    DWORD PTR [eax],edi
  40a26a:	data16 cmp BYTE PTR ss:[eax],dh
  40a26e:	aaa    
  40a26f:	ss cmp BYTE PTR ss:[edx],dh
  40a273:	xor    BYTE PTR [ecx],bh
  40a275:	xor    sp,WORD PTR [edx+0x31]
  40a279:	xor    DWORD PTR [edx],esi
  40a27b:	xor    esi,DWORD PTR [esi]
  40a27d:	popa   
  40a27e:	arpl   WORD PTR [ebp+0x35],sp
  40a281:	xor    dh,BYTE PTR gs:[ecx]
  40a284:	xor    WORD PTR [ecx],si
  40a287:	aaa    
  40a288:	cmp    BYTE PTR [eax],dh
  40a28a:	xor    esp,DWORD PTR [ecx+0x33]
  40a28d:	xor    DWORD PTR [ebx+esi*1],esi
  40a290:	popa   
  40a291:	bound  esp,QWORD PTR [edx+0x31]
  40a294:	xor    dh,BYTE PTR [esi]
  40a296:	fs xor BYTE PTR fs:[ebx],dh
  40a29a:	xor    eax,0x32643764
  40a29f:	data16 cmp BYTE PTR [edi],dh
  40a2a2:	bound  esi,QWORD PTR ss:[esi]
  40a2a5:	cmp    DWORD PTR [ebx],esi
  40a2a7:	cmp    BYTE PTR [ecx+0x61],ah
  40a2aa:	data16 xor ah,BYTE PTR [ebp+0x65]
  40a2ae:	xor    esi,DWORD PTR [ecx+esi*1]
  40a2b1:	xor    al,0x64
  40a2b3:	xor    eax,0x64303234
  40a2b8:	aaa    
  40a2b9:	xor    eax,0x31323633
  40a2be:	xor    al,0x30
  40a2c0:	xor    BYTE PTR [edx+eiz*2+0x34],ah
  40a2c4:	xor    al,0x61
  40a2c6:	xor    al,0x39
  40a2c8:	arpl   WORD PTR [eax+edi*1],si
  40a2cb:	arpl   WORD PTR ss:[ebp+0x31],sp
  40a2cf:	xor    esi,DWORD PTR [ebx+esi*1]
  40a2d2:	xor    BYTE PTR [eax],dh
  40a2d4:	popa   
  40a2d5:	xor    dh,BYTE PTR [ecx]
  40a2d7:	xor    BYTE PTR [esi],dh
  40a2d9:	popa   
  40a2da:	bound  esi,QWORD PTR fs:[esi]
  40a2dd:	bound  esp,QWORD PTR [edx+eiz*2+0x34]
  40a2e1:	xor    esi,DWORD PTR [ebx]
  40a2e3:	xor    eax,0x65663039
  40a2e8:	data16 cmp BYTE PTR [ecx+0x64],ah
  40a2ec:	xor    eax,0x63333463
  40a2f1:	bound  esp,QWORD PTR [ecx+0x38]
  40a2f4:	xor    dh,BYTE PTR [edx]
  40a2f6:	cmp    DWORD PTR [eax],esi
  40a2f8:	arpl   WORD PTR fs:[ecx+edi*1],si
  40a2fc:	xor    eax,0x66653033
  40a301:	data16 cmp BYTE PTR fs:[esi],dh
  40a305:	xor    eax,0x39643332
  40a30a:	xor    al,0x38
  40a30c:	xor    esp,DWORD PTR [ebx+0x30]
  40a30f:	xor    BYTE PTR [esi+0x34],ah
  40a312:	xor    eax,0x34666138
  40a317:	cmp    BYTE PTR ss:[ecx],bh
  40a31a:	xor    BYTE PTR [eax],dh
  40a31c:	xor    esi,DWORD PTR [esi]
  40a31e:	bound  esi,QWORD PTR [eax]
  40a320:	xor    ah,BYTE PTR gs:[ebx+0x36]
  40a324:	xor    DWORD PTR [eax+esi*1+0x37],esp
  40a328:	aaa    
  40a329:	fs aaa 
  40a32b:	bound  sp,DWORD PTR [ecx+0x63]
  40a32f:	xor    al,0x36
  40a331:	aaa    
  40a332:	popa   
  40a333:	xor    eax,0x62653630
  40a338:	popa   
  40a339:	xor    bh,BYTE PTR [ecx]
  40a33b:	gs xor al,0x36
  40a33e:	aaa    
  40a33f:	popa   
  40a340:	cmp    BYTE PTR [edi],dh
  40a342:	xor    DWORD PTR [ecx],edi
  40a344:	cmp    BYTE PTR [edx+0x30],ah
  40a347:	xor    eax,0x34376333
  40a34c:	cmp    DWORD PTR [ecx+0x61],esp
  40a34f:	xor    ah,BYTE PTR [ecx+0x34]
  40a352:	xor    bh,BYTE PTR fs:[eax]
  40a355:	xor    al,0x30
  40a357:	arpl   WORD PTR [edi],si
  40a359:	cmp    BYTE PTR [eiz*2+0x6436],dh
  40a360:	push   ds
  40a361:	add    DWORD PTR [eax],eax
  40a363:	add    DWORD PTR [eax],eax
  40a365:	push   esp
  40a366:	add    dl,BYTE PTR [esi]
  40a368:	push   edi
  40a369:	jb     0x40a3cc
  40a36b:	jo     0x40a3bb
  40a36d:	outs   dx,DWORD PTR ds:[esi]
  40a36e:	outs   dx,BYTE PTR ds:[esi]
  40a36f:	inc    ebp
  40a370:	js     0x40a3d5
  40a372:	gs jo  0x40a3e9
  40a375:	imul   ebp,DWORD PTR [edi+0x6e],0x6f726854
  40a37c:	ja     0x40a3f1
  40a37e:	add    DWORD PTR [ecx+eax*1],esp
  40a381:	add    BYTE PTR [ecx],al
  40a383:	add    DWORD PTR [eax],eax
  40a385:	push   esp
  40a386:	add    bl,BYTE PTR [ebx]
  40a388:	push   ebx
  40a389:	imul   ebp,DWORD PTR [ecx+0x70],0x56
  40a38d:	gs jb  0x40a3f9
  40a390:	imul   sp,WORD PTR [ebx+0x61],0x6974
  40a396:	outs   dx,DWORD PTR ds:[esi]
  40a397:	outs   dx,BYTE PTR ds:[esi]
  40a398:	dec    ecx
  40a399:	outs   dx,BYTE PTR ds:[esi]
  40a39a:	inc    esi
  40a39b:	jne    0x40a409
  40a39d:	ins    BYTE PTR es:[edi],dx
  40a39e:	push   esp
  40a39f:	jb     0x40a416
  40a3a1:	jae    0x40a417
  40a3a3:	add    DWORD PTR [eax],ecx
  40a3a5:	add    DWORD PTR [eax],eax
  40a3a7:	add    al,BYTE PTR [eax]
  40a3a9:	add    BYTE PTR [eax],al
  40a3ab:	add    BYTE PTR [eax],al
  40a3ad:	or     BYTE PTR [ecx],al
  40a3af:	add    BYTE PTR [eax],cl
	...
  40a3b9:	add    BYTE PTR [eax],al
  40a3bb:	add    BYTE PTR [edi],al
  40a3bd:	fst    DWORD PTR [ecx]
  40a3bf:	push   eax
  40a3c0:	add    BYTE PTR [eax],al
  40a3c2:	add    BYTE PTR [eax],al
  40a3c4:	add    al,BYTE PTR [eax]
  40a3c6:	add    BYTE PTR [eax],al
  40a3c8:	sbb    al,0x1
  40a3ca:	add    BYTE PTR [eax],al
  40a3cc:	aam    0xa3
  40a3ce:	add    BYTE PTR [eax],al
  40a3d0:	aam    0x85
  40a3d2:	add    BYTE PTR [eax],al
  40a3d4:	push   edx
  40a3d5:	push   ebx
  40a3d6:	inc    esp
  40a3d7:	push   ebx
  40a3d8:	and    BYTE PTR [eax+edi*1-0x707b2195],bl
  40a3df:	dec    ebp
  40a3e0:	xchg   esi,eax
  40a3e1:	jmp    0x6513:0x109fcdce
  40a3e8:	add    DWORD PTR [eax],eax
  40a3ea:	add    BYTE PTR [eax],al
  40a3ec:	data16 cmp bl,BYTE PTR [edx+eiz*2+0x69]
  40a3f1:	outs   dx,BYTE PTR ds:[esi]
  40a3f2:	popa   
  40a3f3:	jb     0x40a45e
  40a3f5:	gs jae 0x40a454
  40a3f8:	dec    ecx
  40a3f9:	outs   dx,BYTE PTR ds:[esi]
  40a3fa:	je     0x40a461
  40a3fc:	jb     0x40a46b
  40a3fe:	gs imul esp,DWORD PTR fs:[ecx+0x74],0x50445c65
  40a407:	push   esp
  40a408:	outs   dx,DWORD PTR ds:[esi]
  40a409:	outs   dx,DWORD PTR ds:[esi]
  40a40a:	ins    BYTE PTR es:[edi],dx
  40a40b:	jae    0x40a469
  40a40d:	ins    DWORD PTR es:[edi],dx
  40a40e:	imul   esp,DWORD PTR [ebx+0x72],0x666f736f
  40a415:	je     0x40a445
  40a417:	js     0x40a48c
  40a419:	ins    BYTE PTR es:[edi],dx
  40a41a:	fs bound esi,QWORD PTR gs:[ebp+0x67]
  40a41f:	addr16 gs jb 0x40a451
  40a423:	push   0x2e74736f
  40a428:	arpl   WORD PTR [ebx+0x70],si
  40a42b:	jb     0x40a49c
  40a42d:	push   0x5f
  40a42f:	xor    DWORD PTR [eax],esi
  40a431:	xor    eax,0x31333731
  40a436:	xor    BYTE PTR [ebx],dh
  40a438:	ss pop esp
  40a43a:	outs   dx,DWORD PTR ds:[esi]
  40a43b:	bound  ebp,QWORD PTR [edx+0x72]
  40a43e:	pop    esp
  40a43f:	js     0x40a479
  40a441:	ss pop esp
  40a443:	dec    ebp
  40a444:	imul   esp,DWORD PTR [ebx+0x72],0x666f736f
  40a44b:	je     0x40a47b
  40a44d:	pop    eax
  40a44e:	jae    0x40a4bc
  40a450:	inc    esp
  40a451:	bound  esi,QWORD PTR gs:[ebp+0x67]
  40a455:	addr16 gs jb 0x40a487
  40a459:	dec    eax
  40a45a:	outs   dx,DWORD PTR ds:[esi]
  40a45b:	jae    0x40a4d1
  40a45d:	cs jo  0x40a4c4
  40a460:	bound  eax,QWORD PTR [eax]
	...
  40a4ee:	add    BYTE PTR [eax],al
  40a4f0:	sbb    BYTE PTR [ebp+0x0],ah
  40a4f6:	add    BYTE PTR [eax],al
  40a4f8:	add    BYTE PTR [eax],al
  40a4fa:	add    BYTE PTR [eax],al
  40a4fc:	movs   DWORD PTR es:[edi],DWORD PTR cs:[esi]
  40a4fe:	add    BYTE PTR [eax],al
  40a500:	add    BYTE PTR [eax],ah
	...
  40a516:	add    BYTE PTR [eax],al
  40a518:	and    BYTE PTR [ebp+0x0],ah
  40a51e:	add    BYTE PTR [eax],al
  40a520:	add    BYTE PTR [eax],al
  40a522:	pop    edi
  40a523:	inc    ebx
  40a524:	outs   dx,DWORD PTR ds:[esi]
  40a525:	jb     0x40a56c
  40a527:	js     0x40a58e
  40a529:	dec    ebp
  40a52a:	popa   
  40a52b:	imul   ebp,DWORD PTR [esi+0x0],0x6f63736d
  40a532:	jb     0x40a599
  40a534:	gs cs fs ins BYTE PTR es:[edi],dx
  40a538:	ins    BYTE PTR es:[edi],dx
  40a539:	add    BYTE PTR [eax],al
  40a53b:	add    BYTE PTR [eax],al
  40a53d:	add    bh,bh
  40a53f:	and    eax,0x402000

Disassembly of section .rsrc:

0040c000 <.rsrc>:
	...
  40c00c:	add    BYTE PTR [eax],al
  40c00e:	add    al,BYTE PTR [eax]
  40c010:	adc    BYTE PTR [eax],al
  40c012:	add    BYTE PTR [eax],al
  40c014:	and    BYTE PTR [eax],al
  40c016:	add    BYTE PTR [eax+0x18],al
  40c01c:	cmp    BYTE PTR [eax],al
  40c01e:	add    BYTE PTR [eax+0x0],al
	...
  40c02c:	add    BYTE PTR [eax],al
  40c02e:	add    DWORD PTR [eax],eax
  40c030:	add    DWORD PTR [eax],eax
  40c032:	add    BYTE PTR [eax],al
  40c034:	push   eax
  40c035:	add    BYTE PTR [eax],al
  40c037:	add    BYTE PTR [eax],0x0
	...
  40c046:	add    DWORD PTR [eax],eax
  40c048:	add    DWORD PTR [eax],eax
  40c04a:	add    BYTE PTR [eax],al
  40c04c:	push   0x800000
	...
  40c05d:	add    BYTE PTR [ecx],al
  40c05f:	add    BYTE PTR [ecx],cl
  40c061:	add    al,0x0
  40c063:	add    BYTE PTR [eax+0x0],al
	...
  40c075:	add    BYTE PTR [ecx],al
  40c077:	add    BYTE PTR [ecx],cl
  40c079:	add    al,0x0
  40c07b:	add    BYTE PTR [eax-0x60000000],dl
  40c081:	rol    BYTE PTR [eax],0x0
  40c084:	in     al,dx
  40c085:	add    eax,DWORD PTR [eax]
	...
  40c08f:	add    BYTE PTR [eax+0x410000c4],dl
  40c095:	add    DWORD PTR [eax],eax
	...
  40c09f:	add    ah,ch
  40c0a1:	add    esi,DWORD PTR [eax+eax*1]
  40c0a4:	add    BYTE PTR [eax],al
  40c0a6:	push   esi
  40c0a7:	add    BYTE PTR [ebx+0x0],dl
  40c0aa:	pop    edi
  40c0ab:	add    BYTE PTR [esi+0x0],dl
  40c0ae:	inc    ebp
  40c0af:	add    BYTE PTR [edx+0x0],dl
  40c0b2:	push   ebx
  40c0b3:	add    BYTE PTR [ecx+0x0],cl
  40c0b6:	dec    edi
  40c0b7:	add    BYTE PTR [esi+0x0],cl
  40c0ba:	pop    edi
  40c0bb:	add    BYTE PTR [ecx+0x0],cl
  40c0be:	dec    esi
  40c0bf:	add    BYTE PTR [esi+0x0],al
  40c0c2:	dec    edi
  40c0c3:	add    BYTE PTR [eax],al
  40c0c5:	add    BYTE PTR [eax],al
  40c0c7:	add    BYTE PTR [ebp+0xfeef04],bh
  40c0cd:	add    BYTE PTR [ecx],al
  40c0cf:	add    BYTE PTR [eax],al
  40c0d1:	add    BYTE PTR [ebx],cl
  40c0d3:	add    BYTE PTR [ecx],al
  40c0d5:	add    BYTE PTR [edi],ah
  40c0d7:	mov    BYTE PTR [eax],0x0
  40c0da:	or     eax,DWORD PTR [eax]
  40c0dc:	add    DWORD PTR [eax],eax
  40c0de:	daa    
  40c0df:	(bad)  
  40c0e0:	aas    
  40c0e1:	add    BYTE PTR [eax],al
  40c0e3:	add    BYTE PTR [eax],al
  40c0e5:	add    BYTE PTR [eax],al
  40c0e7:	add    BYTE PTR [eax+eax*1],al
  40c0ea:	add    BYTE PTR [eax],al
  40c0ec:	add    DWORD PTR [eax],eax
	...
  40c0fa:	add    BYTE PTR [eax],al
  40c0fc:	dec    edx
  40c0fd:	add    eax,DWORD PTR [eax]
  40c0ff:	add    BYTE PTR [ecx],al
  40c101:	add    BYTE PTR [ebx+0x0],dl
  40c104:	je     0x40c106
  40c106:	jb     0x40c108
  40c108:	imul   eax,DWORD PTR [eax],0x67006e
  40c10e:	inc    esi
  40c10f:	add    BYTE PTR [ecx+0x0],ch
  40c112:	ins    BYTE PTR es:[edi],dx
  40c113:	add    BYTE PTR [ebp+0x0],ah
  40c116:	dec    ecx
  40c117:	add    BYTE PTR [esi+0x0],ch
  40c11a:	data16 add BYTE PTR [edi+0x0],ch
  40c11e:	add    BYTE PTR [eax],al
  40c120:	add    eax,DWORD PTR es:[eax]
  40c123:	add    BYTE PTR [ecx],al
  40c125:	add    BYTE PTR [eax],dh
  40c127:	add    BYTE PTR [eax+eax*1],dh
  40c12a:	xor    BYTE PTR [eax],al
  40c12c:	cmp    DWORD PTR [eax],eax
  40c12e:	xor    BYTE PTR [eax],al
  40c130:	xor    al,0x0
  40c132:	inc    edx
  40c133:	add    BYTE PTR [eax],dh
  40c135:	add    BYTE PTR [eax],al
  40c137:	add    BYTE PTR [eax+eax*1+0x16],cl
  40c13b:	add    BYTE PTR [ecx],al
  40c13d:	add    BYTE PTR [ebx+0x0],al
  40c140:	outs   dx,DWORD PTR ds:[esi]
  40c141:	add    BYTE PTR [ebp+0x0],ch
  40c144:	jo     0x40c146
  40c146:	popa   
  40c147:	add    BYTE PTR [esi+0x0],ch
  40c14a:	jns    0x40c14c
  40c14c:	dec    esi
  40c14d:	add    BYTE PTR [ecx+0x0],ah
  40c150:	ins    DWORD PTR es:[edi],dx
  40c151:	add    BYTE PTR [ebp+0x0],ah
  40c154:	add    BYTE PTR [eax],al
  40c156:	add    BYTE PTR [eax],al
  40c158:	dec    ebp
  40c159:	add    BYTE PTR [ecx+0x0],ch
  40c15c:	arpl   WORD PTR [eax],ax
  40c15e:	jb     0x40c160
  40c160:	outs   dx,DWORD PTR ds:[esi]
  40c161:	add    BYTE PTR [ebx+0x0],dh
  40c164:	outs   dx,DWORD PTR ds:[esi]
  40c165:	add    BYTE PTR [esi+0x0],ah
  40c168:	je     0x40c16a
  40c16a:	and    BYTE PTR [eax],al
  40c16c:	inc    ebx
  40c16d:	add    BYTE PTR [edi+0x0],ch
  40c170:	jb     0x40c172
  40c172:	jo     0x40c174
  40c174:	outs   dx,DWORD PTR ds:[esi]
  40c175:	add    BYTE PTR [edx+0x0],dh
  40c178:	popa   
  40c179:	add    BYTE PTR [eax+eax*1+0x69],dh
  40c17d:	add    BYTE PTR [edi+0x0],ch
  40c180:	outs   dx,BYTE PTR ds:[esi]
  40c181:	add    BYTE PTR [eax],al
  40c183:	add    BYTE PTR [esi+0x0],dl
  40c186:	pop    ss
  40c187:	add    BYTE PTR [ecx],al
  40c189:	add    BYTE PTR [esi+0x0],al
  40c18c:	imul   eax,DWORD PTR [eax],0x65006c
  40c192:	inc    esp
  40c193:	add    BYTE PTR [ebp+0x0],ah
  40c196:	jae    0x40c198
  40c198:	arpl   WORD PTR [eax],ax
  40c19a:	jb     0x40c19c
  40c19c:	imul   eax,DWORD PTR [eax],0x740070
  40c1a2:	imul   eax,DWORD PTR [eax],0x6e006f
  40c1a8:	add    BYTE PTR [eax],al
  40c1aa:	add    BYTE PTR [eax],al
  40c1ac:	pop    eax
  40c1ad:	add    BYTE PTR [ebx+0x0],dl
  40c1b0:	dec    esp
  40c1b1:	add    BYTE PTR [eax+eax*1+0x20],dl
  40c1b5:	add    BYTE PTR [ebp+0x0],al
  40c1b8:	js     0x40c1ba
  40c1ba:	add    BYTE PTR gs:[ebx+0x0],ah
  40c1be:	jne    0x40c1c0
  40c1c0:	je     0x40c1c2
  40c1c2:	imul   eax,DWORD PTR [eax],0x6e006f
  40c1c8:	and    BYTE PTR [eax],al
  40c1ca:	push   ebp
  40c1cb:	add    BYTE PTR [eax+eax*1+0x69],dh
  40c1cf:	add    BYTE PTR [eax+eax*1+0x69],ch
  40c1d3:	add    BYTE PTR [eax+eax*1+0x79],dh
  40c1d7:	add    BYTE PTR [eax],al
  40c1d9:	add    BYTE PTR [eax],al
  40c1db:	add    BYTE PTR [eax+eax*1+0x1e],bl
  40c1df:	add    BYTE PTR [ecx],al
  40c1e1:	add    BYTE PTR [esi+0x0],al
  40c1e4:	imul   eax,DWORD PTR [eax],0x65006c
  40c1ea:	push   esi
  40c1eb:	add    BYTE PTR [ebp+0x0],ah
  40c1ee:	jb     0x40c1f0
  40c1f0:	jae    0x40c1f2
  40c1f2:	imul   eax,DWORD PTR [eax],0x6e006f
  40c1f8:	add    BYTE PTR [eax],al
  40c1fa:	add    BYTE PTR [eax],al
  40c1fc:	xor    DWORD PTR [eax],eax
  40c1fe:	xor    DWORD PTR [eax],eax
  40c200:	add    BYTE PTR cs:[eax],dh
  40c203:	add    BYTE PTR [esi],ch
  40c205:	add    BYTE PTR ds:0x37003000,dh
  40c20b:	add    BYTE PTR [edx],dh
  40c20d:	add    BYTE PTR [edi],dh
  40c20f:	add    BYTE PTR [esi],ch
  40c211:	add    BYTE PTR [ecx],dh
  40c213:	add    BYTE PTR [eax],ah
  40c215:	add    BYTE PTR [edx+0x0],ah
  40c218:	jne    0x40c21a
  40c21a:	imul   eax,DWORD PTR [eax],0x74006c
  40c220:	and    BYTE PTR [eax],al
  40c222:	bound  eax,QWORD PTR [eax]
  40c224:	jns    0x40c226
  40c226:	cmp    al,BYTE PTR [eax]
  40c228:	and    BYTE PTR [eax],al
  40c22a:	push   edx
  40c22b:	add    BYTE PTR [eax+eax*1+0x4d],dl
  40c22f:	add    BYTE PTR [edx+0x0],dl
  40c232:	inc    ebp
  40c233:	add    BYTE PTR [eax+eax*1+0x0],cl
  40c237:	add    BYTE PTR [esi+0x0],bl
  40c23a:	pop    ds
  40c23b:	add    BYTE PTR [ecx],al
  40c23d:	add    BYTE PTR [ecx+0x0],cl
  40c240:	outs   dx,BYTE PTR ds:[esi]
  40c241:	add    BYTE PTR [eax+eax*1+0x65],dh
  40c245:	add    BYTE PTR [edx+0x0],dh
  40c248:	outs   dx,BYTE PTR ds:[esi]
  40c249:	add    BYTE PTR [ecx+0x0],ah
  40c24c:	ins    BYTE PTR es:[edi],dx
  40c24d:	add    BYTE PTR [esi+0x0],cl
  40c250:	popa   
  40c251:	add    BYTE PTR [ebp+0x0],ch
  40c254:	add    BYTE PTR gs:[eax],al
  40c257:	add    BYTE PTR [ebp+0x0],cl
  40c25a:	imul   eax,DWORD PTR [eax],0x720063
  40c260:	outs   dx,DWORD PTR ds:[esi]
  40c261:	add    BYTE PTR [ebx+0x0],dh
  40c264:	outs   dx,DWORD PTR ds:[esi]
  40c265:	add    BYTE PTR [esi+0x0],ah
  40c268:	je     0x40c26a
  40c26a:	add    BYTE PTR cs:[eax+0x0],bl
  40c26e:	jae    0x40c270
  40c270:	ins    BYTE PTR es:[edi],dx
  40c271:	add    BYTE PTR [eax+eax*1+0x65],al
  40c275:	add    BYTE PTR [edx+0x0],ah
  40c278:	jne    0x40c27a
  40c27a:	add    BYTE PTR [bx+0x0],ah
  40c27e:	add    BYTE PTR gs:[edx+0x0],dh
  40c282:	add    BYTE PTR cs:[eax+0x0],cl
  40c286:	outs   dx,DWORD PTR ds:[esi]
  40c287:	add    BYTE PTR [ebx+0x0],dh
  40c28a:	je     0x40c28c
  40c28c:	add    BYTE PTR cs:[ebp+0x0],ah
  40c290:	js     0x40c292
  40c292:	add    BYTE PTR gs:[eax],al
  40c295:	add    BYTE PTR [eax],al
  40c297:	add    BYTE PTR [eax+0x1002e00],al
  40c29d:	add    BYTE PTR [eax+eax*1+0x65],cl
  40c2a1:	add    BYTE PTR [edi+0x0],ah
  40c2a4:	popa   
  40c2a5:	add    BYTE PTR [eax+eax*1+0x43],ch
  40c2a9:	add    BYTE PTR [edi+0x0],ch
  40c2ac:	jo     0x40c2ae
  40c2ae:	jns    0x40c2b0
  40c2b0:	jb     0x40c2b2
  40c2b2:	imul   eax,DWORD PTR [eax],0x680067
  40c2b8:	je     0x40c2ba
  40c2ba:	add    BYTE PTR [eax],al
  40c2bc:	test   eax,0x4d002000
  40c2c1:	add    BYTE PTR [ecx+0x0],ch
  40c2c4:	arpl   WORD PTR [eax],ax
  40c2c6:	jb     0x40c2c8
  40c2c8:	outs   dx,DWORD PTR ds:[esi]
  40c2c9:	add    BYTE PTR [ebx+0x0],dh
  40c2cc:	outs   dx,DWORD PTR ds:[esi]
  40c2cd:	add    BYTE PTR [esi+0x0],ah
  40c2d0:	je     0x40c2d2
  40c2d2:	and    BYTE PTR [eax],al
  40c2d4:	inc    ebx
  40c2d5:	add    BYTE PTR [edi+0x0],ch
  40c2d8:	jb     0x40c2da
  40c2da:	jo     0x40c2dc
  40c2dc:	outs   dx,DWORD PTR ds:[esi]
  40c2dd:	add    BYTE PTR [edx+0x0],dh
  40c2e0:	popa   
  40c2e1:	add    BYTE PTR [eax+eax*1+0x69],dh
  40c2e5:	add    BYTE PTR [edi+0x0],ch
  40c2e8:	outs   dx,BYTE PTR ds:[esi]
  40c2e9:	add    BYTE PTR [esi],ch
  40c2eb:	add    BYTE PTR [eax],ah
  40c2ed:	add    BYTE PTR [ecx+0x0],al
  40c2f0:	ins    BYTE PTR es:[edi],dx
  40c2f1:	add    BYTE PTR [eax+eax*1+0x20],ch
  40c2f5:	add    BYTE PTR [edx+0x0],dh
  40c2f8:	imul   eax,DWORD PTR [eax],0x680067
  40c2fe:	je     0x40c300
  40c300:	jae    0x40c302
  40c302:	and    BYTE PTR [eax],al
  40c304:	jb     0x40c306
  40c306:	add    BYTE PTR gs:[ebx+0x0],dh
  40c30a:	add    BYTE PTR gs:[edx+0x0],dh
  40c30e:	jbe    0x40c310
  40c310:	add    BYTE PTR gs:[eax+eax*1+0x2e],ah
  40c315:	add    BYTE PTR [eax],al
  40c317:	add    BYTE PTR [eax],ch
  40c319:	add    BYTE PTR [eax],al
  40c31b:	add    BYTE PTR [ecx],al
  40c31d:	add    BYTE PTR [eax+eax*1+0x65],cl
  40c321:	add    BYTE PTR [edi+0x0],ah
  40c324:	popa   
  40c325:	add    BYTE PTR [eax+eax*1+0x54],ch
  40c329:	add    BYTE PTR [edx+0x0],dh
  40c32c:	popa   
  40c32d:	add    BYTE PTR [eax+eax*1+0x65],ah
  40c331:	add    BYTE PTR [ebp+0x0],ch
  40c334:	popa   
  40c335:	add    BYTE PTR [edx+0x0],dh
  40c338:	imul   eax,DWORD PTR [eax],0x73
  40c33b:	add    BYTE PTR [eax],al
  40c33d:	add    BYTE PTR [eax],al
  40c33f:	add    BYTE PTR [esi+0x0],ah
  40c342:	pop    ds
  40c343:	add    BYTE PTR [ecx],al
  40c345:	add    BYTE PTR [edi+0x0],cl
  40c348:	jb     0x40c34a
  40c34a:	imul   eax,DWORD PTR [eax],0x690067
  40c350:	outs   dx,BYTE PTR ds:[esi]
  40c351:	add    BYTE PTR [ecx+0x0],ah
  40c354:	ins    BYTE PTR es:[edi],dx
  40c355:	add    BYTE PTR [esi+0x0],al
  40c358:	imul   eax,DWORD PTR [eax],0x65006c
  40c35e:	outs   dx,BYTE PTR ds:[esi]
  40c35f:	add    BYTE PTR [ecx+0x0],ah
  40c362:	ins    DWORD PTR es:[edi],dx
  40c363:	add    BYTE PTR [ebp+0x0],ah
  40c366:	add    BYTE PTR [eax],al
  40c368:	dec    ebp
  40c369:	add    BYTE PTR [ecx+0x0],ch
  40c36c:	arpl   WORD PTR [eax],ax
  40c36e:	jb     0x40c370
  40c370:	outs   dx,DWORD PTR ds:[esi]
  40c371:	add    BYTE PTR [ebx+0x0],dh
  40c374:	outs   dx,DWORD PTR ds:[esi]
  40c375:	add    BYTE PTR [esi+0x0],ah
  40c378:	je     0x40c37a
  40c37a:	add    BYTE PTR cs:[eax+0x0],bl
  40c37e:	jae    0x40c380
  40c380:	ins    BYTE PTR es:[edi],dx
  40c381:	add    BYTE PTR [eax+eax*1+0x65],al
  40c385:	add    BYTE PTR [edx+0x0],ah
  40c388:	jne    0x40c38a
  40c38a:	add    BYTE PTR [bx+0x0],ah
  40c38e:	add    BYTE PTR gs:[edx+0x0],dh
  40c392:	add    BYTE PTR cs:[eax+0x0],cl
  40c396:	outs   dx,DWORD PTR ds:[esi]
  40c397:	add    BYTE PTR [ebx+0x0],dh
  40c39a:	je     0x40c39c
  40c39c:	add    BYTE PTR cs:[ebp+0x0],ah
  40c3a0:	js     0x40c3a2
  40c3a2:	add    BYTE PTR gs:[eax],al
  40c3a5:	add    BYTE PTR [eax],al
  40c3a7:	add    BYTE PTR [esi+0x0],bl
  40c3aa:	pop    ds
  40c3ab:	add    BYTE PTR [ecx],al
  40c3ad:	add    BYTE PTR [eax+0x0],dl
  40c3b0:	jb     0x40c3b2
  40c3b2:	outs   dx,DWORD PTR ds:[esi]
  40c3b3:	add    BYTE PTR [eax+eax*1+0x75],ah
  40c3b7:	add    BYTE PTR [ebx+0x0],ah
  40c3ba:	je     0x40c3bc
  40c3bc:	dec    esi
  40c3bd:	add    BYTE PTR [ecx+0x0],ah
  40c3c0:	ins    DWORD PTR es:[edi],dx
  40c3c1:	add    BYTE PTR [ebp+0x0],ah
  40c3c4:	add    BYTE PTR [eax],al
  40c3c6:	add    BYTE PTR [eax],al
  40c3c8:	dec    ebp
  40c3c9:	add    BYTE PTR [ecx+0x0],ch
  40c3cc:	arpl   WORD PTR [eax],ax
  40c3ce:	jb     0x40c3d0
  40c3d0:	outs   dx,DWORD PTR ds:[esi]
  40c3d1:	add    BYTE PTR [ebx+0x0],dh
  40c3d4:	outs   dx,DWORD PTR ds:[esi]
  40c3d5:	add    BYTE PTR [esi+0x0],ah
  40c3d8:	je     0x40c3da
  40c3da:	scas   al,BYTE PTR es:[edi]
  40c3db:	add    BYTE PTR [eax],ah
  40c3dd:	add    BYTE PTR [esi+0x0],dl
  40c3e0:	imul   eax,DWORD PTR [eax],0x750073
  40c3e6:	popa   
  40c3e7:	add    BYTE PTR [eax+eax*1+0x20],ch
  40c3eb:	add    BYTE PTR [ebx+0x0],dl
  40c3ee:	je     0x40c3f0
  40c3f0:	jne    0x40c3f2
  40c3f2:	add    BYTE PTR fs:[ecx+0x0],ch
  40c3f6:	outs   dx,DWORD PTR ds:[esi]
  40c3f7:	add    BYTE PTR [esi+0x32002000],ch
  40c3fd:	add    BYTE PTR [eax],dh
  40c3ff:	add    BYTE PTR [ecx],dh
  40c401:	add    BYTE PTR [edx],dh
  40c403:	add    BYTE PTR [eax],al
  40c405:	add    BYTE PTR [eax],al
  40c407:	add    BYTE PTR [esi],bh
  40c409:	add    BYTE PTR ds:0x50000100,cl
  40c40f:	add    BYTE PTR [edx+0x0],dh
  40c412:	outs   dx,DWORD PTR ds:[esi]
  40c413:	add    BYTE PTR [eax+eax*1+0x75],ah
  40c417:	add    BYTE PTR [ebx+0x0],ah
  40c41a:	je     0x40c41c
  40c41c:	push   esi
  40c41d:	add    BYTE PTR [ebp+0x0],ah
  40c420:	jb     0x40c422
  40c422:	jae    0x40c424
  40c424:	imul   eax,DWORD PTR [eax],0x6e006f
  40c42a:	add    BYTE PTR [eax],al
  40c42c:	xor    DWORD PTR [eax],eax
  40c42e:	xor    DWORD PTR [eax],eax
  40c430:	add    BYTE PTR cs:[eax],dh
  40c433:	add    BYTE PTR [esi],ch
  40c435:	add    BYTE PTR ds:0x37003000,dh
  40c43b:	add    BYTE PTR [edx],dh
  40c43d:	add    BYTE PTR [edi],dh
  40c43f:	add    BYTE PTR [esi],ch
  40c441:	add    BYTE PTR [ecx],dh
  40c443:	add    BYTE PTR [eax],al
  40c445:	add    BYTE PTR [eax],al
  40c447:	add    BYTE PTR [eax+eax*1+0x0],al
  40c44b:	add    BYTE PTR [ecx],al
  40c44d:	add    BYTE PTR [esi+0x0],dl
  40c450:	popa   
  40c451:	add    BYTE PTR [edx+0x0],dh
  40c454:	inc    esi
  40c455:	add    BYTE PTR [ecx+0x0],ch
  40c458:	ins    BYTE PTR es:[edi],dx
  40c459:	add    BYTE PTR [ebp+0x0],ah
  40c45c:	dec    ecx
  40c45d:	add    BYTE PTR [esi+0x0],ch
  40c460:	data16 add BYTE PTR [edi+0x0],ch
  40c464:	add    BYTE PTR [eax],al
  40c466:	add    BYTE PTR [eax],al
  40c468:	and    al,0x0
  40c46a:	add    al,0x0
  40c46c:	add    BYTE PTR [eax],al
  40c46e:	push   esp
  40c46f:	add    BYTE PTR [edx+0x0],dh
  40c472:	popa   
  40c473:	add    BYTE PTR [esi+0x0],ch
  40c476:	jae    0x40c478
  40c478:	ins    BYTE PTR es:[edi],dx
  40c479:	add    BYTE PTR [ecx+0x0],ah
  40c47c:	je     0x40c47e
  40c47e:	imul   eax,DWORD PTR [eax],0x6e006f
  40c484:	add    BYTE PTR [eax],al
  40c486:	add    BYTE PTR [eax],al
  40c488:	or     DWORD PTR [eax+esi*4],eax
  40c48b:	add    al,0x0
  40c48d:	add    BYTE PTR [eax],al
  40c48f:	add    BYTE PTR [ecx+eiz*2],bh
  40c492:	jae    0x40c507
  40c494:	gs ins DWORD PTR es:[edi],dx
  40c496:	bound  ebp,QWORD PTR [ecx+edi*2+0x20]
  40c49a:	js     0x40c509
  40c49c:	ins    BYTE PTR es:[edi],dx
  40c49d:	outs   dx,BYTE PTR ds:[esi]
  40c49e:	jae    0x40c4dd
  40c4a0:	and    dh,BYTE PTR [ebp+0x72]
  40c4a3:	outs   dx,BYTE PTR ds:[esi]
  40c4a4:	cmp    dh,BYTE PTR [ebx+0x63]
  40c4a7:	push   0x73616d65
  40c4ac:	sub    eax,0x7263696d
  40c4b1:	outs   dx,DWORD PTR ds:[esi]
  40c4b2:	jae    0x40c523
  40c4b4:	data16 je 0x40c4e4
  40c4b7:	arpl   WORD PTR [edi+0x6d],bp
  40c4ba:	cmp    ah,BYTE PTR [ecx+0x73]
  40c4bd:	ins    DWORD PTR es:[edi],dx
  40c4be:	cs jbe 0x40c4f2
  40c4c1:	and    ah,BYTE PTR [eax]
  40c4c3:	ins    DWORD PTR es:[edi],dx
  40c4c4:	popa   
  40c4c5:	outs   dx,BYTE PTR ds:[esi]
  40c4c6:	imul   esp,DWORD PTR [esi+0x65],0x65567473
  40c4cd:	jb     0x40c542
  40c4cf:	imul   ebp,DWORD PTR [edi+0x6e],0x2e31223d
  40c4d6:	xor    BYTE PTR [edx],ah
  40c4d8:	ds or  eax,0x3c20200a
  40c4de:	je     0x40c552
  40c4e0:	jne    0x40c555
  40c4e2:	je     0x40c52d
  40c4e4:	outs   dx,BYTE PTR ds:[esi]
  40c4e5:	outs   dx,WORD PTR ds:[esi]
  40c4e7:	and    BYTE PTR [eax+0x6d],bh
  40c4ea:	ins    BYTE PTR es:[edi],dx
  40c4eb:	outs   dx,BYTE PTR ds:[esi]
  40c4ec:	jae    0x40c52b
  40c4ee:	and    dh,BYTE PTR [ebp+0x72]
  40c4f1:	outs   dx,BYTE PTR ds:[esi]
  40c4f2:	cmp    dh,BYTE PTR [ebx+0x63]
  40c4f5:	push   0x73616d65
  40c4fa:	sub    eax,0x7263696d
  40c4ff:	outs   dx,DWORD PTR ds:[esi]
  40c500:	jae    0x40c571
  40c502:	data16 je 0x40c532
  40c505:	arpl   WORD PTR [edi+0x6d],bp
  40c508:	cmp    ah,BYTE PTR [ecx+0x73]
  40c50b:	ins    DWORD PTR es:[edi],dx
  40c50c:	cs jbe 0x40c542
  40c50f:	and    bh,BYTE PTR [esi]
  40c511:	or     eax,0x2020200a
  40c516:	and    BYTE PTR [ebx+esi*2],bh
  40c519:	arpl   WORD PTR gs:[ebp+0x72],si
  40c51d:	imul   esi,DWORD PTR [ecx+edi*2+0x3e],0x20200a0d
  40c525:	and    BYTE PTR [eax],ah
  40c527:	and    BYTE PTR [eax],ah
  40c529:	cmp    al,0x72
  40c52b:	gs jno 0x40c5a3
  40c52e:	gs jae 0x40c5a5
  40c531:	gs fs push eax
  40c534:	jb     0x40c59f
  40c536:	jbe    0x40c5a1
  40c538:	ins    BYTE PTR es:[edi],dx
  40c539:	gs addr16 gs jae 0x40c57c
  40c53e:	or     eax,0x2020200a
  40c543:	and    BYTE PTR [eax],ah
  40c545:	and    BYTE PTR [eax],ah
  40c547:	and    BYTE PTR [edx+esi*2],bh
  40c54a:	gs jno 0x40c5c2
  40c54d:	gs jae 0x40c5c4
  40c550:	gs fs inc ebp
  40c553:	js     0x40c5ba
  40c555:	arpl   WORD PTR [ebp+0x74],si
  40c558:	imul   ebp,DWORD PTR [edi+0x6e],0x6576654c
  40c55f:	ins    BYTE PTR es:[edi],dx
  40c560:	and    BYTE PTR [ebp+eiz*2+0x76],ch
  40c564:	gs ins BYTE PTR es:[edi],dx
  40c566:	cmp    eax,0x49736122
  40c56b:	outs   dx,BYTE PTR ds:[esi]
  40c56c:	jbe    0x40c5dd
  40c56e:	imul   esp,DWORD PTR [ebp+0x72],0x22
  40c572:	and    BYTE PTR [ebp+0x69],dh
  40c575:	inc    ecx
  40c576:	arpl   WORD PTR [ebx+0x65],sp
  40c579:	jae    0x40c5ee
  40c57b:	cmp    eax,0x6c616622
  40c580:	jae    0x40c5e7
  40c582:	and    ch,BYTE PTR [edi]
  40c584:	ds or  eax,0x2020200a
  40c58a:	and    BYTE PTR [eax],ah
  40c58c:	and    BYTE PTR [edi+ebp*1],bh
  40c58f:	jb     0x40c5f6
  40c591:	jno    0x40c608
  40c593:	gs jae 0x40c60a
  40c596:	gs fs push eax
  40c599:	jb     0x40c604
  40c59b:	jbe    0x40c606
  40c59d:	ins    BYTE PTR es:[edi],dx
  40c59e:	gs addr16 gs jae 0x40c5e1
  40c5a3:	or     eax,0x2020200a
  40c5a8:	and    BYTE PTR [edi+ebp*1],bh
  40c5ab:	jae    0x40c612
  40c5ad:	arpl   WORD PTR [ebp+0x72],si
  40c5b0:	imul   esi,DWORD PTR [ecx+edi*2+0x3e],0x20200a0d
  40c5b8:	cmp    al,0x2f
  40c5ba:	je     0x40c62e
  40c5bc:	jne    0x40c631
  40c5be:	je     0x40c609
  40c5c0:	outs   dx,BYTE PTR ds:[esi]
  40c5c1:	outs   dx,WORD PTR ds:[esi]
  40c5c3:	ds or  eax,0x612f3c0a
  40c5c9:	jae    0x40c63e
  40c5cb:	gs ins DWORD PTR es:[edi],dx
  40c5cd:	bound  ebp,QWORD PTR [ecx+edi*2+0x3e]
  40c5d1:	add    BYTE PTR [eax],al
  40c5d3:	add    BYTE PTR [eax],al
  40c5d5:	add    BYTE PTR [eax],al
	...

Disassembly of section .reloc:

0040e000 <.reloc>:
  40e000:	add    BYTE PTR [eax+0xc0000],ah
  40e006:	add    BYTE PTR [eax],al
  40e008:	inc    eax
  40e009:	.byte 0x35
	...
